ARM GAS  C:\Users\dtjld\AppData\Local\Temp\ccIjCgHN.s 			page 1


   1              		.cpu cortex-m4
   2              		.eabi_attribute 27, 1
   3              		.eabi_attribute 28, 1
   4              		.eabi_attribute 20, 1
   5              		.eabi_attribute 21, 1
   6              		.eabi_attribute 23, 3
   7              		.eabi_attribute 24, 1
   8              		.eabi_attribute 25, 1
   9              		.eabi_attribute 26, 1
  10              		.eabi_attribute 30, 6
  11              		.eabi_attribute 34, 1
  12              		.eabi_attribute 18, 4
  13              		.file	"agenttiny.c"
  14              		.text
  15              	.Ltext0:
  16              		.cfi_sections	.debug_frame
  17              		.section	.text.dm_isUriOpaqueHandle,"ax",%progbits
  18              		.align	1
  19              		.syntax unified
  20              		.thumb
  21              		.thumb_func
  22              		.fpu fpv4-sp-d16
  24              	dm_isUriOpaqueHandle:
  25              	.LFB3:
  26              		.file 1 "C:/Users/dtjld/Desktop/AIoT_software/LiteOS_Lab_overseas/LiteOS_Lab/iot_link/network/lwm2
   1:C:/Users/dtjld/Desktop/AIoT_software/LiteOS_Lab_overseas/LiteOS_Lab/iot_link/network/lwm2m/wakaama_lwm2m/core\internals.h **** /*----------------------------------------------------------------------------
   2:C:/Users/dtjld/Desktop/AIoT_software/LiteOS_Lab_overseas/LiteOS_Lab/iot_link/network/lwm2m/wakaama_lwm2m/core\internals.h ****  * Copyright (c) <2016-2018>, <Huawei Technologies Co., Ltd>
   3:C:/Users/dtjld/Desktop/AIoT_software/LiteOS_Lab_overseas/LiteOS_Lab/iot_link/network/lwm2m/wakaama_lwm2m/core\internals.h ****  * All rights reserved.
   4:C:/Users/dtjld/Desktop/AIoT_software/LiteOS_Lab_overseas/LiteOS_Lab/iot_link/network/lwm2m/wakaama_lwm2m/core\internals.h ****  * Redistribution and use in source and binary forms, with or without modification,
   5:C:/Users/dtjld/Desktop/AIoT_software/LiteOS_Lab_overseas/LiteOS_Lab/iot_link/network/lwm2m/wakaama_lwm2m/core\internals.h ****  * are permitted provided that the following conditions are met:
   6:C:/Users/dtjld/Desktop/AIoT_software/LiteOS_Lab_overseas/LiteOS_Lab/iot_link/network/lwm2m/wakaama_lwm2m/core\internals.h ****  * 1. Redistributions of source code must retain the above copyright notice, this list of
   7:C:/Users/dtjld/Desktop/AIoT_software/LiteOS_Lab_overseas/LiteOS_Lab/iot_link/network/lwm2m/wakaama_lwm2m/core\internals.h ****  * conditions and the following disclaimer.
   8:C:/Users/dtjld/Desktop/AIoT_software/LiteOS_Lab_overseas/LiteOS_Lab/iot_link/network/lwm2m/wakaama_lwm2m/core\internals.h ****  * 2. Redistributions in binary form must reproduce the above copyright notice, this list
   9:C:/Users/dtjld/Desktop/AIoT_software/LiteOS_Lab_overseas/LiteOS_Lab/iot_link/network/lwm2m/wakaama_lwm2m/core\internals.h ****  * of conditions and the following disclaimer in the documentation and/or other materials
  10:C:/Users/dtjld/Desktop/AIoT_software/LiteOS_Lab_overseas/LiteOS_Lab/iot_link/network/lwm2m/wakaama_lwm2m/core\internals.h ****  * provided with the distribution.
  11:C:/Users/dtjld/Desktop/AIoT_software/LiteOS_Lab_overseas/LiteOS_Lab/iot_link/network/lwm2m/wakaama_lwm2m/core\internals.h ****  * 3. Neither the name of the copyright holder nor the names of its contributors may be used
  12:C:/Users/dtjld/Desktop/AIoT_software/LiteOS_Lab_overseas/LiteOS_Lab/iot_link/network/lwm2m/wakaama_lwm2m/core\internals.h ****  * to endorse or promote products derived from this software without specific prior written
  13:C:/Users/dtjld/Desktop/AIoT_software/LiteOS_Lab_overseas/LiteOS_Lab/iot_link/network/lwm2m/wakaama_lwm2m/core\internals.h ****  * permission.
  14:C:/Users/dtjld/Desktop/AIoT_software/LiteOS_Lab_overseas/LiteOS_Lab/iot_link/network/lwm2m/wakaama_lwm2m/core\internals.h ****  * THIS SOFTWARE IS PROVIDED BY THE COPYRIGHT HOLDERS AND CONTRIBUTORS
  15:C:/Users/dtjld/Desktop/AIoT_software/LiteOS_Lab_overseas/LiteOS_Lab/iot_link/network/lwm2m/wakaama_lwm2m/core\internals.h ****  * "AS IS" AND ANY EXPRESS OR IMPLIED WARRANTIES, INCLUDING, BUT NOT LIMITED TO,
  16:C:/Users/dtjld/Desktop/AIoT_software/LiteOS_Lab_overseas/LiteOS_Lab/iot_link/network/lwm2m/wakaama_lwm2m/core\internals.h ****  * THE IMPLIED WARRANTIES OF MERCHANTABILITY AND FITNESS FOR A PARTICULAR
  17:C:/Users/dtjld/Desktop/AIoT_software/LiteOS_Lab_overseas/LiteOS_Lab/iot_link/network/lwm2m/wakaama_lwm2m/core\internals.h ****  * PURPOSE ARE DISCLAIMED. IN NO EVENT SHALL THE COPYRIGHT HOLDER OR
  18:C:/Users/dtjld/Desktop/AIoT_software/LiteOS_Lab_overseas/LiteOS_Lab/iot_link/network/lwm2m/wakaama_lwm2m/core\internals.h ****  * CONTRIBUTORS BE LIABLE FOR ANY DIRECT, INDIRECT, INCIDENTAL, SPECIAL,
  19:C:/Users/dtjld/Desktop/AIoT_software/LiteOS_Lab_overseas/LiteOS_Lab/iot_link/network/lwm2m/wakaama_lwm2m/core\internals.h ****  * EXEMPLARY, OR CONSEQUENTIAL DAMAGES (INCLUDING, BUT NOT LIMITED TO,
  20:C:/Users/dtjld/Desktop/AIoT_software/LiteOS_Lab_overseas/LiteOS_Lab/iot_link/network/lwm2m/wakaama_lwm2m/core\internals.h ****  * PROCUREMENT OF SUBSTITUTE GOODS OR SERVICES; LOSS OF USE, DATA, OR PROFITS;
  21:C:/Users/dtjld/Desktop/AIoT_software/LiteOS_Lab_overseas/LiteOS_Lab/iot_link/network/lwm2m/wakaama_lwm2m/core\internals.h ****  * OR BUSINESS INTERRUPTION) HOWEVER CAUSED AND ON ANY THEORY OF LIABILITY,
  22:C:/Users/dtjld/Desktop/AIoT_software/LiteOS_Lab_overseas/LiteOS_Lab/iot_link/network/lwm2m/wakaama_lwm2m/core\internals.h ****  * WHETHER IN CONTRACT, STRICT LIABILITY, OR TORT (INCLUDING NEGLIGENCE OR
  23:C:/Users/dtjld/Desktop/AIoT_software/LiteOS_Lab_overseas/LiteOS_Lab/iot_link/network/lwm2m/wakaama_lwm2m/core\internals.h ****  * OTHERWISE) ARISING IN ANY WAY OUT OF THE USE OF THIS SOFTWARE, EVEN IF
  24:C:/Users/dtjld/Desktop/AIoT_software/LiteOS_Lab_overseas/LiteOS_Lab/iot_link/network/lwm2m/wakaama_lwm2m/core\internals.h ****  * ADVISED OF THE POSSIBILITY OF SUCH DAMAGE.
  25:C:/Users/dtjld/Desktop/AIoT_software/LiteOS_Lab_overseas/LiteOS_Lab/iot_link/network/lwm2m/wakaama_lwm2m/core\internals.h ****  *---------------------------------------------------------------------------*/
  26:C:/Users/dtjld/Desktop/AIoT_software/LiteOS_Lab_overseas/LiteOS_Lab/iot_link/network/lwm2m/wakaama_lwm2m/core\internals.h **** /*----------------------------------------------------------------------------
  27:C:/Users/dtjld/Desktop/AIoT_software/LiteOS_Lab_overseas/LiteOS_Lab/iot_link/network/lwm2m/wakaama_lwm2m/core\internals.h ****  * Notice of Export Control Law
  28:C:/Users/dtjld/Desktop/AIoT_software/LiteOS_Lab_overseas/LiteOS_Lab/iot_link/network/lwm2m/wakaama_lwm2m/core\internals.h ****  * ===============================================
  29:C:/Users/dtjld/Desktop/AIoT_software/LiteOS_Lab_overseas/LiteOS_Lab/iot_link/network/lwm2m/wakaama_lwm2m/core\internals.h ****  * Huawei LiteOS may be subject to applicable export control laws and regulations, which might
  30:C:/Users/dtjld/Desktop/AIoT_software/LiteOS_Lab_overseas/LiteOS_Lab/iot_link/network/lwm2m/wakaama_lwm2m/core\internals.h ****  * include those applicable to Huawei LiteOS of U.S. and the country in which you are located.
  31:C:/Users/dtjld/Desktop/AIoT_software/LiteOS_Lab_overseas/LiteOS_Lab/iot_link/network/lwm2m/wakaama_lwm2m/core\internals.h ****  * Import, export and usage of Huawei LiteOS in any manner by you shall be in compliance with such
  32:C:/Users/dtjld/Desktop/AIoT_software/LiteOS_Lab_overseas/LiteOS_Lab/iot_link/network/lwm2m/wakaama_lwm2m/core\internals.h ****  * applicable export control laws and regulations.
ARM GAS  C:\Users\dtjld\AppData\Local\Temp\ccIjCgHN.s 			page 2


  33:C:/Users/dtjld/Desktop/AIoT_software/LiteOS_Lab_overseas/LiteOS_Lab/iot_link/network/lwm2m/wakaama_lwm2m/core\internals.h ****  *---------------------------------------------------------------------------*/
  34:C:/Users/dtjld/Desktop/AIoT_software/LiteOS_Lab_overseas/LiteOS_Lab/iot_link/network/lwm2m/wakaama_lwm2m/core\internals.h **** 
  35:C:/Users/dtjld/Desktop/AIoT_software/LiteOS_Lab_overseas/LiteOS_Lab/iot_link/network/lwm2m/wakaama_lwm2m/core\internals.h **** /*******************************************************************************
  36:C:/Users/dtjld/Desktop/AIoT_software/LiteOS_Lab_overseas/LiteOS_Lab/iot_link/network/lwm2m/wakaama_lwm2m/core\internals.h ****  *
  37:C:/Users/dtjld/Desktop/AIoT_software/LiteOS_Lab_overseas/LiteOS_Lab/iot_link/network/lwm2m/wakaama_lwm2m/core\internals.h ****  * Copyright (c) 2013, 2014 Intel Corporation and others.
  38:C:/Users/dtjld/Desktop/AIoT_software/LiteOS_Lab_overseas/LiteOS_Lab/iot_link/network/lwm2m/wakaama_lwm2m/core\internals.h ****  * All rights reserved. This program and the accompanying materials
  39:C:/Users/dtjld/Desktop/AIoT_software/LiteOS_Lab_overseas/LiteOS_Lab/iot_link/network/lwm2m/wakaama_lwm2m/core\internals.h ****  * are made available under the terms of the Eclipse Public License v1.0
  40:C:/Users/dtjld/Desktop/AIoT_software/LiteOS_Lab_overseas/LiteOS_Lab/iot_link/network/lwm2m/wakaama_lwm2m/core\internals.h ****  * and Eclipse Distribution License v1.0 which accompany this distribution.
  41:C:/Users/dtjld/Desktop/AIoT_software/LiteOS_Lab_overseas/LiteOS_Lab/iot_link/network/lwm2m/wakaama_lwm2m/core\internals.h ****  *
  42:C:/Users/dtjld/Desktop/AIoT_software/LiteOS_Lab_overseas/LiteOS_Lab/iot_link/network/lwm2m/wakaama_lwm2m/core\internals.h ****  * The Eclipse Public License is available at
  43:C:/Users/dtjld/Desktop/AIoT_software/LiteOS_Lab_overseas/LiteOS_Lab/iot_link/network/lwm2m/wakaama_lwm2m/core\internals.h ****  *    http://www.eclipse.org/legal/epl-v10.html
  44:C:/Users/dtjld/Desktop/AIoT_software/LiteOS_Lab_overseas/LiteOS_Lab/iot_link/network/lwm2m/wakaama_lwm2m/core\internals.h ****  * The Eclipse Distribution License is available at
  45:C:/Users/dtjld/Desktop/AIoT_software/LiteOS_Lab_overseas/LiteOS_Lab/iot_link/network/lwm2m/wakaama_lwm2m/core\internals.h ****  *    http://www.eclipse.org/org/documents/edl-v10.php.
  46:C:/Users/dtjld/Desktop/AIoT_software/LiteOS_Lab_overseas/LiteOS_Lab/iot_link/network/lwm2m/wakaama_lwm2m/core\internals.h ****  *
  47:C:/Users/dtjld/Desktop/AIoT_software/LiteOS_Lab_overseas/LiteOS_Lab/iot_link/network/lwm2m/wakaama_lwm2m/core\internals.h ****  * Contributors:
  48:C:/Users/dtjld/Desktop/AIoT_software/LiteOS_Lab_overseas/LiteOS_Lab/iot_link/network/lwm2m/wakaama_lwm2m/core\internals.h ****  *    David Navarro, Intel Corporation - initial API and implementation
  49:C:/Users/dtjld/Desktop/AIoT_software/LiteOS_Lab_overseas/LiteOS_Lab/iot_link/network/lwm2m/wakaama_lwm2m/core\internals.h ****  *    Fabien Fleutot - Please refer to git log
  50:C:/Users/dtjld/Desktop/AIoT_software/LiteOS_Lab_overseas/LiteOS_Lab/iot_link/network/lwm2m/wakaama_lwm2m/core\internals.h ****  *    Toby Jaffey - Please refer to git log
  51:C:/Users/dtjld/Desktop/AIoT_software/LiteOS_Lab_overseas/LiteOS_Lab/iot_link/network/lwm2m/wakaama_lwm2m/core\internals.h ****  *    Bosch Software Innovations GmbH - Please refer to git log
  52:C:/Users/dtjld/Desktop/AIoT_software/LiteOS_Lab_overseas/LiteOS_Lab/iot_link/network/lwm2m/wakaama_lwm2m/core\internals.h ****  *    Pascal Rieux - Please refer to git log
  53:C:/Users/dtjld/Desktop/AIoT_software/LiteOS_Lab_overseas/LiteOS_Lab/iot_link/network/lwm2m/wakaama_lwm2m/core\internals.h ****  *    Scott Bertin - Please refer to git log
  54:C:/Users/dtjld/Desktop/AIoT_software/LiteOS_Lab_overseas/LiteOS_Lab/iot_link/network/lwm2m/wakaama_lwm2m/core\internals.h ****  *
  55:C:/Users/dtjld/Desktop/AIoT_software/LiteOS_Lab_overseas/LiteOS_Lab/iot_link/network/lwm2m/wakaama_lwm2m/core\internals.h ****  *******************************************************************************/
  56:C:/Users/dtjld/Desktop/AIoT_software/LiteOS_Lab_overseas/LiteOS_Lab/iot_link/network/lwm2m/wakaama_lwm2m/core\internals.h **** /*
  57:C:/Users/dtjld/Desktop/AIoT_software/LiteOS_Lab_overseas/LiteOS_Lab/iot_link/network/lwm2m/wakaama_lwm2m/core\internals.h ****  Copyright (c) 2013, 2014 Intel Corporation
  58:C:/Users/dtjld/Desktop/AIoT_software/LiteOS_Lab_overseas/LiteOS_Lab/iot_link/network/lwm2m/wakaama_lwm2m/core\internals.h **** 
  59:C:/Users/dtjld/Desktop/AIoT_software/LiteOS_Lab_overseas/LiteOS_Lab/iot_link/network/lwm2m/wakaama_lwm2m/core\internals.h ****  Redistribution and use in source and binary forms, with or without modification,
  60:C:/Users/dtjld/Desktop/AIoT_software/LiteOS_Lab_overseas/LiteOS_Lab/iot_link/network/lwm2m/wakaama_lwm2m/core\internals.h ****  are permitted provided that the following conditions are met:
  61:C:/Users/dtjld/Desktop/AIoT_software/LiteOS_Lab_overseas/LiteOS_Lab/iot_link/network/lwm2m/wakaama_lwm2m/core\internals.h **** 
  62:C:/Users/dtjld/Desktop/AIoT_software/LiteOS_Lab_overseas/LiteOS_Lab/iot_link/network/lwm2m/wakaama_lwm2m/core\internals.h ****      * Redistributions of source code must retain the above copyright notice,
  63:C:/Users/dtjld/Desktop/AIoT_software/LiteOS_Lab_overseas/LiteOS_Lab/iot_link/network/lwm2m/wakaama_lwm2m/core\internals.h ****        this list of conditions and the following disclaimer.
  64:C:/Users/dtjld/Desktop/AIoT_software/LiteOS_Lab_overseas/LiteOS_Lab/iot_link/network/lwm2m/wakaama_lwm2m/core\internals.h ****      * Redistributions in binary form must reproduce the above copyright notice,
  65:C:/Users/dtjld/Desktop/AIoT_software/LiteOS_Lab_overseas/LiteOS_Lab/iot_link/network/lwm2m/wakaama_lwm2m/core\internals.h ****        this list of conditions and the following disclaimer in the documentation
  66:C:/Users/dtjld/Desktop/AIoT_software/LiteOS_Lab_overseas/LiteOS_Lab/iot_link/network/lwm2m/wakaama_lwm2m/core\internals.h ****        and/or other materials provided with the distribution.
  67:C:/Users/dtjld/Desktop/AIoT_software/LiteOS_Lab_overseas/LiteOS_Lab/iot_link/network/lwm2m/wakaama_lwm2m/core\internals.h ****      * Neither the name of Intel Corporation nor the names of its contributors
  68:C:/Users/dtjld/Desktop/AIoT_software/LiteOS_Lab_overseas/LiteOS_Lab/iot_link/network/lwm2m/wakaama_lwm2m/core\internals.h ****        may be used to endorse or promote products derived from this software
  69:C:/Users/dtjld/Desktop/AIoT_software/LiteOS_Lab_overseas/LiteOS_Lab/iot_link/network/lwm2m/wakaama_lwm2m/core\internals.h ****        without specific prior written permission.
  70:C:/Users/dtjld/Desktop/AIoT_software/LiteOS_Lab_overseas/LiteOS_Lab/iot_link/network/lwm2m/wakaama_lwm2m/core\internals.h **** 
  71:C:/Users/dtjld/Desktop/AIoT_software/LiteOS_Lab_overseas/LiteOS_Lab/iot_link/network/lwm2m/wakaama_lwm2m/core\internals.h ****  THIS SOFTWARE IS PROVIDED BY THE COPYRIGHT HOLDERS AND CONTRIBUTORS "AS IS" AND
  72:C:/Users/dtjld/Desktop/AIoT_software/LiteOS_Lab_overseas/LiteOS_Lab/iot_link/network/lwm2m/wakaama_lwm2m/core\internals.h ****  ANY EXPRESS OR IMPLIED WARRANTIES, INCLUDING, BUT NOT LIMITED TO, THE IMPLIED
  73:C:/Users/dtjld/Desktop/AIoT_software/LiteOS_Lab_overseas/LiteOS_Lab/iot_link/network/lwm2m/wakaama_lwm2m/core\internals.h ****  WARRANTIES OF MERCHANTABILITY AND FITNESS FOR A PARTICULAR PURPOSE ARE DISCLAIMED.
  74:C:/Users/dtjld/Desktop/AIoT_software/LiteOS_Lab_overseas/LiteOS_Lab/iot_link/network/lwm2m/wakaama_lwm2m/core\internals.h ****  IN NO EVENT SHALL THE COPYRIGHT OWNER OR CONTRIBUTORS BE LIABLE FOR ANY DIRECT,
  75:C:/Users/dtjld/Desktop/AIoT_software/LiteOS_Lab_overseas/LiteOS_Lab/iot_link/network/lwm2m/wakaama_lwm2m/core\internals.h ****  INDIRECT, INCIDENTAL, SPECIAL, EXEMPLARY, OR CONSEQUENTIAL DAMAGES (INCLUDING,
  76:C:/Users/dtjld/Desktop/AIoT_software/LiteOS_Lab_overseas/LiteOS_Lab/iot_link/network/lwm2m/wakaama_lwm2m/core\internals.h ****  BUT NOT LIMITED TO, PROCUREMENT OF SUBSTITUTE GOODS OR SERVICES; LOSS OF USE,
  77:C:/Users/dtjld/Desktop/AIoT_software/LiteOS_Lab_overseas/LiteOS_Lab/iot_link/network/lwm2m/wakaama_lwm2m/core\internals.h ****  DATA, OR PROFITS; OR BUSINESS INTERRUPTION) HOWEVER CAUSED AND ON ANY THEORY OF
  78:C:/Users/dtjld/Desktop/AIoT_software/LiteOS_Lab_overseas/LiteOS_Lab/iot_link/network/lwm2m/wakaama_lwm2m/core\internals.h ****  LIABILITY, WHETHER IN CONTRACT, STRICT LIABILITY, OR TORT (INCLUDING NEGLIGENCE OR
  79:C:/Users/dtjld/Desktop/AIoT_software/LiteOS_Lab_overseas/LiteOS_Lab/iot_link/network/lwm2m/wakaama_lwm2m/core\internals.h ****  OTHERWISE) ARISING IN ANY WAY OUT OF THE USE OF THIS SOFTWARE, EVEN IF ADVISED OF
  80:C:/Users/dtjld/Desktop/AIoT_software/LiteOS_Lab_overseas/LiteOS_Lab/iot_link/network/lwm2m/wakaama_lwm2m/core\internals.h ****  THE POSSIBILITY OF SUCH DAMAGE.
  81:C:/Users/dtjld/Desktop/AIoT_software/LiteOS_Lab_overseas/LiteOS_Lab/iot_link/network/lwm2m/wakaama_lwm2m/core\internals.h **** 
  82:C:/Users/dtjld/Desktop/AIoT_software/LiteOS_Lab_overseas/LiteOS_Lab/iot_link/network/lwm2m/wakaama_lwm2m/core\internals.h ****  David Navarro <david.navarro@intel.com>
  83:C:/Users/dtjld/Desktop/AIoT_software/LiteOS_Lab_overseas/LiteOS_Lab/iot_link/network/lwm2m/wakaama_lwm2m/core\internals.h **** 
  84:C:/Users/dtjld/Desktop/AIoT_software/LiteOS_Lab_overseas/LiteOS_Lab/iot_link/network/lwm2m/wakaama_lwm2m/core\internals.h **** */
  85:C:/Users/dtjld/Desktop/AIoT_software/LiteOS_Lab_overseas/LiteOS_Lab/iot_link/network/lwm2m/wakaama_lwm2m/core\internals.h **** 
  86:C:/Users/dtjld/Desktop/AIoT_software/LiteOS_Lab_overseas/LiteOS_Lab/iot_link/network/lwm2m/wakaama_lwm2m/core\internals.h **** #ifndef _LWM2M_INTERNALS_H_
  87:C:/Users/dtjld/Desktop/AIoT_software/LiteOS_Lab_overseas/LiteOS_Lab/iot_link/network/lwm2m/wakaama_lwm2m/core\internals.h **** #define _LWM2M_INTERNALS_H_
  88:C:/Users/dtjld/Desktop/AIoT_software/LiteOS_Lab_overseas/LiteOS_Lab/iot_link/network/lwm2m/wakaama_lwm2m/core\internals.h **** 
  89:C:/Users/dtjld/Desktop/AIoT_software/LiteOS_Lab_overseas/LiteOS_Lab/iot_link/network/lwm2m/wakaama_lwm2m/core\internals.h **** #include "liblwm2m.h"
ARM GAS  C:\Users\dtjld\AppData\Local\Temp\ccIjCgHN.s 			page 3


  90:C:/Users/dtjld/Desktop/AIoT_software/LiteOS_Lab_overseas/LiteOS_Lab/iot_link/network/lwm2m/wakaama_lwm2m/core\internals.h **** 
  91:C:/Users/dtjld/Desktop/AIoT_software/LiteOS_Lab_overseas/LiteOS_Lab/iot_link/network/lwm2m/wakaama_lwm2m/core\internals.h **** #include <stdlib.h>
  92:C:/Users/dtjld/Desktop/AIoT_software/LiteOS_Lab_overseas/LiteOS_Lab/iot_link/network/lwm2m/wakaama_lwm2m/core\internals.h **** #include <string.h>
  93:C:/Users/dtjld/Desktop/AIoT_software/LiteOS_Lab_overseas/LiteOS_Lab/iot_link/network/lwm2m/wakaama_lwm2m/core\internals.h **** #include <stdio.h>
  94:C:/Users/dtjld/Desktop/AIoT_software/LiteOS_Lab_overseas/LiteOS_Lab/iot_link/network/lwm2m/wakaama_lwm2m/core\internals.h **** #include <ctype.h>
  95:C:/Users/dtjld/Desktop/AIoT_software/LiteOS_Lab_overseas/LiteOS_Lab/iot_link/network/lwm2m/wakaama_lwm2m/core\internals.h **** #include <stdint.h>
  96:C:/Users/dtjld/Desktop/AIoT_software/LiteOS_Lab_overseas/LiteOS_Lab/iot_link/network/lwm2m/wakaama_lwm2m/core\internals.h **** #include <stddef.h>
  97:C:/Users/dtjld/Desktop/AIoT_software/LiteOS_Lab_overseas/LiteOS_Lab/iot_link/network/lwm2m/wakaama_lwm2m/core\internals.h **** #include <stdbool.h>
  98:C:/Users/dtjld/Desktop/AIoT_software/LiteOS_Lab_overseas/LiteOS_Lab/iot_link/network/lwm2m/wakaama_lwm2m/core\internals.h **** 
  99:C:/Users/dtjld/Desktop/AIoT_software/LiteOS_Lab_overseas/LiteOS_Lab/iot_link/network/lwm2m/wakaama_lwm2m/core\internals.h **** #include "er-coap-13/er-coap-13.h"
 100:C:/Users/dtjld/Desktop/AIoT_software/LiteOS_Lab_overseas/LiteOS_Lab/iot_link/network/lwm2m/wakaama_lwm2m/core\internals.h **** #include "connection.h"
 101:C:/Users/dtjld/Desktop/AIoT_software/LiteOS_Lab_overseas/LiteOS_Lab/iot_link/network/lwm2m/wakaama_lwm2m/core\internals.h **** 
 102:C:/Users/dtjld/Desktop/AIoT_software/LiteOS_Lab_overseas/LiteOS_Lab/iot_link/network/lwm2m/wakaama_lwm2m/core\internals.h **** 
 103:C:/Users/dtjld/Desktop/AIoT_software/LiteOS_Lab_overseas/LiteOS_Lab/iot_link/network/lwm2m/wakaama_lwm2m/core\internals.h **** #ifdef LWM2M_WITH_LOGS
 104:C:/Users/dtjld/Desktop/AIoT_software/LiteOS_Lab_overseas/LiteOS_Lab/iot_link/network/lwm2m/wakaama_lwm2m/core\internals.h **** #include <inttypes.h>
 105:C:/Users/dtjld/Desktop/AIoT_software/LiteOS_Lab_overseas/LiteOS_Lab/iot_link/network/lwm2m/wakaama_lwm2m/core\internals.h **** #define LOG(STR) (void)lwm2m_printf("[%d][%s:%d] " STR "\r\n", (uint32_t)lwm2m_gettime(), __func__ 
 106:C:/Users/dtjld/Desktop/AIoT_software/LiteOS_Lab_overseas/LiteOS_Lab/iot_link/network/lwm2m/wakaama_lwm2m/core\internals.h **** #define LOG_ARG(FMT, ...) (void)lwm2m_printf("[%d][%s:%d] " FMT "\r\n", (uint32_t)lwm2m_gettime(), 
 107:C:/Users/dtjld/Desktop/AIoT_software/LiteOS_Lab_overseas/LiteOS_Lab/iot_link/network/lwm2m/wakaama_lwm2m/core\internals.h **** #define LOG_URI(URI)                                                                \
 108:C:/Users/dtjld/Desktop/AIoT_software/LiteOS_Lab_overseas/LiteOS_Lab/iot_link/network/lwm2m/wakaama_lwm2m/core\internals.h **** {                                                                                   \
 109:C:/Users/dtjld/Desktop/AIoT_software/LiteOS_Lab_overseas/LiteOS_Lab/iot_link/network/lwm2m/wakaama_lwm2m/core\internals.h ****     if ((URI) == NULL) (void)lwm2m_printf("[%s:%d] NULL\r\n", __func__ , __LINE__);     \
 110:C:/Users/dtjld/Desktop/AIoT_software/LiteOS_Lab_overseas/LiteOS_Lab/iot_link/network/lwm2m/wakaama_lwm2m/core\internals.h ****     else                                                                            \
 111:C:/Users/dtjld/Desktop/AIoT_software/LiteOS_Lab_overseas/LiteOS_Lab/iot_link/network/lwm2m/wakaama_lwm2m/core\internals.h ****     {                                                                               \
 112:C:/Users/dtjld/Desktop/AIoT_software/LiteOS_Lab_overseas/LiteOS_Lab/iot_link/network/lwm2m/wakaama_lwm2m/core\internals.h ****         (void)lwm2m_printf("[%s:%d] /%d", __func__ , __LINE__ , (URI)->objectId);       \
 113:C:/Users/dtjld/Desktop/AIoT_software/LiteOS_Lab_overseas/LiteOS_Lab/iot_link/network/lwm2m/wakaama_lwm2m/core\internals.h ****         if (LWM2M_URI_IS_SET_INSTANCE(URI)) (void)lwm2m_printf("/%d", (URI)->instanceId); \
 114:C:/Users/dtjld/Desktop/AIoT_software/LiteOS_Lab_overseas/LiteOS_Lab/iot_link/network/lwm2m/wakaama_lwm2m/core\internals.h ****         if (LWM2M_URI_IS_SET_RESOURCE(URI)) (void)lwm2m_printf("/%d", (URI)->resourceId); \
 115:C:/Users/dtjld/Desktop/AIoT_software/LiteOS_Lab_overseas/LiteOS_Lab/iot_link/network/lwm2m/wakaama_lwm2m/core\internals.h ****         (void)lwm2m_printf("\r\n");                                                       \
 116:C:/Users/dtjld/Desktop/AIoT_software/LiteOS_Lab_overseas/LiteOS_Lab/iot_link/network/lwm2m/wakaama_lwm2m/core\internals.h ****     }                                                                               \
 117:C:/Users/dtjld/Desktop/AIoT_software/LiteOS_Lab_overseas/LiteOS_Lab/iot_link/network/lwm2m/wakaama_lwm2m/core\internals.h **** }
 118:C:/Users/dtjld/Desktop/AIoT_software/LiteOS_Lab_overseas/LiteOS_Lab/iot_link/network/lwm2m/wakaama_lwm2m/core\internals.h **** #define UNUSEX(x)
 119:C:/Users/dtjld/Desktop/AIoT_software/LiteOS_Lab_overseas/LiteOS_Lab/iot_link/network/lwm2m/wakaama_lwm2m/core\internals.h **** #define STR_STATUS(S)                                           \
 120:C:/Users/dtjld/Desktop/AIoT_software/LiteOS_Lab_overseas/LiteOS_Lab/iot_link/network/lwm2m/wakaama_lwm2m/core\internals.h **** ((S) == STATE_DEREGISTERED ? "STATE_DEREGISTERED" :             \
 121:C:/Users/dtjld/Desktop/AIoT_software/LiteOS_Lab_overseas/LiteOS_Lab/iot_link/network/lwm2m/wakaama_lwm2m/core\internals.h **** ((S) == STATE_REG_PENDING ? "STATE_REG_PENDING" :               \
 122:C:/Users/dtjld/Desktop/AIoT_software/LiteOS_Lab_overseas/LiteOS_Lab/iot_link/network/lwm2m/wakaama_lwm2m/core\internals.h **** ((S) == STATE_REGISTERED ? "STATE_REGISTERED" :                 \
 123:C:/Users/dtjld/Desktop/AIoT_software/LiteOS_Lab_overseas/LiteOS_Lab/iot_link/network/lwm2m/wakaama_lwm2m/core\internals.h **** ((S) == STATE_REG_FAILED ? "STATE_REG_FAILED" :                 \
 124:C:/Users/dtjld/Desktop/AIoT_software/LiteOS_Lab_overseas/LiteOS_Lab/iot_link/network/lwm2m/wakaama_lwm2m/core\internals.h **** ((S) == STATE_REG_UPDATE_PENDING ? "STATE_REG_UPDATE_PENDING" : \
 125:C:/Users/dtjld/Desktop/AIoT_software/LiteOS_Lab_overseas/LiteOS_Lab/iot_link/network/lwm2m/wakaama_lwm2m/core\internals.h **** ((S) == STATE_REG_UPDATE_NEEDED ? "STATE_REG_UPDATE_NEEDED" :   \
 126:C:/Users/dtjld/Desktop/AIoT_software/LiteOS_Lab_overseas/LiteOS_Lab/iot_link/network/lwm2m/wakaama_lwm2m/core\internals.h **** ((S) == STATE_REG_FULL_UPDATE_NEEDED ? "STATE_REG_FULL_UPDATE_NEEDED" :   \
 127:C:/Users/dtjld/Desktop/AIoT_software/LiteOS_Lab_overseas/LiteOS_Lab/iot_link/network/lwm2m/wakaama_lwm2m/core\internals.h **** ((S) == STATE_DEREG_PENDING ? "STATE_DEREG_PENDING" :           \
 128:C:/Users/dtjld/Desktop/AIoT_software/LiteOS_Lab_overseas/LiteOS_Lab/iot_link/network/lwm2m/wakaama_lwm2m/core\internals.h **** ((S) == STATE_BS_HOLD_OFF ? "STATE_BS_HOLD_OFF" :               \
 129:C:/Users/dtjld/Desktop/AIoT_software/LiteOS_Lab_overseas/LiteOS_Lab/iot_link/network/lwm2m/wakaama_lwm2m/core\internals.h **** ((S) == STATE_BS_INITIATED ? "STATE_BS_INITIATED" :             \
 130:C:/Users/dtjld/Desktop/AIoT_software/LiteOS_Lab_overseas/LiteOS_Lab/iot_link/network/lwm2m/wakaama_lwm2m/core\internals.h **** ((S) == STATE_BS_PENDING ? "STATE_BS_PENDING" :                 \
 131:C:/Users/dtjld/Desktop/AIoT_software/LiteOS_Lab_overseas/LiteOS_Lab/iot_link/network/lwm2m/wakaama_lwm2m/core\internals.h **** ((S) == STATE_BS_FINISHED ? "STATE_BS_FINISHED" :               \
 132:C:/Users/dtjld/Desktop/AIoT_software/LiteOS_Lab_overseas/LiteOS_Lab/iot_link/network/lwm2m/wakaama_lwm2m/core\internals.h **** ((S) == STATE_BS_FINISHING ? "STATE_BS_FINISHING" :             \
 133:C:/Users/dtjld/Desktop/AIoT_software/LiteOS_Lab_overseas/LiteOS_Lab/iot_link/network/lwm2m/wakaama_lwm2m/core\internals.h **** ((S) == STATE_BS_FAILING ? "STATE_BS_FAILING" :                 \
 134:C:/Users/dtjld/Desktop/AIoT_software/LiteOS_Lab_overseas/LiteOS_Lab/iot_link/network/lwm2m/wakaama_lwm2m/core\internals.h **** ((S) == STATE_BS_FAILED ? "STATE_BS_FAILED" :                   \
 135:C:/Users/dtjld/Desktop/AIoT_software/LiteOS_Lab_overseas/LiteOS_Lab/iot_link/network/lwm2m/wakaama_lwm2m/core\internals.h **** "Unknown")))))))))))))))
 136:C:/Users/dtjld/Desktop/AIoT_software/LiteOS_Lab_overseas/LiteOS_Lab/iot_link/network/lwm2m/wakaama_lwm2m/core\internals.h **** #define STR_MEDIA_TYPE(M)                                \
 137:C:/Users/dtjld/Desktop/AIoT_software/LiteOS_Lab_overseas/LiteOS_Lab/iot_link/network/lwm2m/wakaama_lwm2m/core\internals.h **** ((M) == LWM2M_CONTENT_TEXT ? "LWM2M_CONTENT_TEXT" :      \
 138:C:/Users/dtjld/Desktop/AIoT_software/LiteOS_Lab_overseas/LiteOS_Lab/iot_link/network/lwm2m/wakaama_lwm2m/core\internals.h **** ((M) == LWM2M_CONTENT_LINK ? "LWM2M_CONTENT_LINK" :      \
 139:C:/Users/dtjld/Desktop/AIoT_software/LiteOS_Lab_overseas/LiteOS_Lab/iot_link/network/lwm2m/wakaama_lwm2m/core\internals.h **** ((M) == LWM2M_CONTENT_OPAQUE ? "LWM2M_CONTENT_OPAQUE" :  \
 140:C:/Users/dtjld/Desktop/AIoT_software/LiteOS_Lab_overseas/LiteOS_Lab/iot_link/network/lwm2m/wakaama_lwm2m/core\internals.h **** ((M) == LWM2M_CONTENT_TLV ? "LWM2M_CONTENT_TLV" :        \
 141:C:/Users/dtjld/Desktop/AIoT_software/LiteOS_Lab_overseas/LiteOS_Lab/iot_link/network/lwm2m/wakaama_lwm2m/core\internals.h **** ((M) == LWM2M_CONTENT_JSON ? "LWM2M_CONTENT_JSON" :      \
 142:C:/Users/dtjld/Desktop/AIoT_software/LiteOS_Lab_overseas/LiteOS_Lab/iot_link/network/lwm2m/wakaama_lwm2m/core\internals.h **** "Unknown")))))
 143:C:/Users/dtjld/Desktop/AIoT_software/LiteOS_Lab_overseas/LiteOS_Lab/iot_link/network/lwm2m/wakaama_lwm2m/core\internals.h **** #define STR_STATE(S)                                \
 144:C:/Users/dtjld/Desktop/AIoT_software/LiteOS_Lab_overseas/LiteOS_Lab/iot_link/network/lwm2m/wakaama_lwm2m/core\internals.h **** ((S) == STATE_INITIAL ? "STATE_INITIAL" :      \
 145:C:/Users/dtjld/Desktop/AIoT_software/LiteOS_Lab_overseas/LiteOS_Lab/iot_link/network/lwm2m/wakaama_lwm2m/core\internals.h **** ((S) == STATE_BOOTSTRAP_REQUIRED ? "STATE_BOOTSTRAP_REQUIRED" :      \
 146:C:/Users/dtjld/Desktop/AIoT_software/LiteOS_Lab_overseas/LiteOS_Lab/iot_link/network/lwm2m/wakaama_lwm2m/core\internals.h **** ((S) == STATE_BOOTSTRAPPING ? "STATE_BOOTSTRAPPING" :  \
ARM GAS  C:\Users\dtjld\AppData\Local\Temp\ccIjCgHN.s 			page 4


 147:C:/Users/dtjld/Desktop/AIoT_software/LiteOS_Lab_overseas/LiteOS_Lab/iot_link/network/lwm2m/wakaama_lwm2m/core\internals.h **** ((S) == STATE_REGISTER_REQUIRED ? "STATE_REGISTER_REQUIRED" :        \
 148:C:/Users/dtjld/Desktop/AIoT_software/LiteOS_Lab_overseas/LiteOS_Lab/iot_link/network/lwm2m/wakaama_lwm2m/core\internals.h **** ((S) == STATE_REGISTERING ? "STATE_REGISTERING" :      \
 149:C:/Users/dtjld/Desktop/AIoT_software/LiteOS_Lab_overseas/LiteOS_Lab/iot_link/network/lwm2m/wakaama_lwm2m/core\internals.h **** ((S) == STATE_READY ? "STATE_READY" :      \
 150:C:/Users/dtjld/Desktop/AIoT_software/LiteOS_Lab_overseas/LiteOS_Lab/iot_link/network/lwm2m/wakaama_lwm2m/core\internals.h **** "Unknown"))))))
 151:C:/Users/dtjld/Desktop/AIoT_software/LiteOS_Lab_overseas/LiteOS_Lab/iot_link/network/lwm2m/wakaama_lwm2m/core\internals.h **** #else
 152:C:/Users/dtjld/Desktop/AIoT_software/LiteOS_Lab_overseas/LiteOS_Lab/iot_link/network/lwm2m/wakaama_lwm2m/core\internals.h **** #define UNUSEX(x) (x)=(x)
 153:C:/Users/dtjld/Desktop/AIoT_software/LiteOS_Lab_overseas/LiteOS_Lab/iot_link/network/lwm2m/wakaama_lwm2m/core\internals.h **** #define LOG_ARG(FMT, ...)
 154:C:/Users/dtjld/Desktop/AIoT_software/LiteOS_Lab_overseas/LiteOS_Lab/iot_link/network/lwm2m/wakaama_lwm2m/core\internals.h **** #define LOG(STR)
 155:C:/Users/dtjld/Desktop/AIoT_software/LiteOS_Lab_overseas/LiteOS_Lab/iot_link/network/lwm2m/wakaama_lwm2m/core\internals.h **** #define LOG_URI(URI)
 156:C:/Users/dtjld/Desktop/AIoT_software/LiteOS_Lab_overseas/LiteOS_Lab/iot_link/network/lwm2m/wakaama_lwm2m/core\internals.h **** #endif
 157:C:/Users/dtjld/Desktop/AIoT_software/LiteOS_Lab_overseas/LiteOS_Lab/iot_link/network/lwm2m/wakaama_lwm2m/core\internals.h **** 
 158:C:/Users/dtjld/Desktop/AIoT_software/LiteOS_Lab_overseas/LiteOS_Lab/iot_link/network/lwm2m/wakaama_lwm2m/core\internals.h **** #define LWM2M_DEFAULT_LIFETIME  86400
 159:C:/Users/dtjld/Desktop/AIoT_software/LiteOS_Lab_overseas/LiteOS_Lab/iot_link/network/lwm2m/wakaama_lwm2m/core\internals.h **** 
 160:C:/Users/dtjld/Desktop/AIoT_software/LiteOS_Lab_overseas/LiteOS_Lab/iot_link/network/lwm2m/wakaama_lwm2m/core\internals.h **** #ifdef LWM2M_SUPPORT_JSON
 161:C:/Users/dtjld/Desktop/AIoT_software/LiteOS_Lab_overseas/LiteOS_Lab/iot_link/network/lwm2m/wakaama_lwm2m/core\internals.h **** #define REG_LWM2M_RESOURCE_TYPE     ">;rt=\"oma.lwm2m\";ct=11543,"
 162:C:/Users/dtjld/Desktop/AIoT_software/LiteOS_Lab_overseas/LiteOS_Lab/iot_link/network/lwm2m/wakaama_lwm2m/core\internals.h **** #define REG_LWM2M_RESOURCE_TYPE_LEN 25
 163:C:/Users/dtjld/Desktop/AIoT_software/LiteOS_Lab_overseas/LiteOS_Lab/iot_link/network/lwm2m/wakaama_lwm2m/core\internals.h **** #else
 164:C:/Users/dtjld/Desktop/AIoT_software/LiteOS_Lab_overseas/LiteOS_Lab/iot_link/network/lwm2m/wakaama_lwm2m/core\internals.h **** #define REG_LWM2M_RESOURCE_TYPE     ">;rt=\"oma.lwm2m\","
 165:C:/Users/dtjld/Desktop/AIoT_software/LiteOS_Lab_overseas/LiteOS_Lab/iot_link/network/lwm2m/wakaama_lwm2m/core\internals.h **** #define REG_LWM2M_RESOURCE_TYPE_LEN 17
 166:C:/Users/dtjld/Desktop/AIoT_software/LiteOS_Lab_overseas/LiteOS_Lab/iot_link/network/lwm2m/wakaama_lwm2m/core\internals.h **** #endif
 167:C:/Users/dtjld/Desktop/AIoT_software/LiteOS_Lab_overseas/LiteOS_Lab/iot_link/network/lwm2m/wakaama_lwm2m/core\internals.h **** #define REG_START           "<"
 168:C:/Users/dtjld/Desktop/AIoT_software/LiteOS_Lab_overseas/LiteOS_Lab/iot_link/network/lwm2m/wakaama_lwm2m/core\internals.h **** #define REG_DEFAULT_PATH    "/"
 169:C:/Users/dtjld/Desktop/AIoT_software/LiteOS_Lab_overseas/LiteOS_Lab/iot_link/network/lwm2m/wakaama_lwm2m/core\internals.h **** 
 170:C:/Users/dtjld/Desktop/AIoT_software/LiteOS_Lab_overseas/LiteOS_Lab/iot_link/network/lwm2m/wakaama_lwm2m/core\internals.h **** #define REG_OBJECT_MIN_LEN  5   // "</n>,"
 171:C:/Users/dtjld/Desktop/AIoT_software/LiteOS_Lab_overseas/LiteOS_Lab/iot_link/network/lwm2m/wakaama_lwm2m/core\internals.h **** #define REG_PATH_END        ">,"
 172:C:/Users/dtjld/Desktop/AIoT_software/LiteOS_Lab_overseas/LiteOS_Lab/iot_link/network/lwm2m/wakaama_lwm2m/core\internals.h **** #define REG_PATH_SEPARATOR  "/"
 173:C:/Users/dtjld/Desktop/AIoT_software/LiteOS_Lab_overseas/LiteOS_Lab/iot_link/network/lwm2m/wakaama_lwm2m/core\internals.h **** 
 174:C:/Users/dtjld/Desktop/AIoT_software/LiteOS_Lab_overseas/LiteOS_Lab/iot_link/network/lwm2m/wakaama_lwm2m/core\internals.h **** #define REG_OBJECT_PATH             "<%s/%hu>,"
 175:C:/Users/dtjld/Desktop/AIoT_software/LiteOS_Lab_overseas/LiteOS_Lab/iot_link/network/lwm2m/wakaama_lwm2m/core\internals.h **** #define REG_OBJECT_INSTANCE_PATH    "<%s/%hu/%hu>,"
 176:C:/Users/dtjld/Desktop/AIoT_software/LiteOS_Lab_overseas/LiteOS_Lab/iot_link/network/lwm2m/wakaama_lwm2m/core\internals.h **** 
 177:C:/Users/dtjld/Desktop/AIoT_software/LiteOS_Lab_overseas/LiteOS_Lab/iot_link/network/lwm2m/wakaama_lwm2m/core\internals.h **** #define URI_REGISTRATION_SEGMENT        "rd"
 178:C:/Users/dtjld/Desktop/AIoT_software/LiteOS_Lab_overseas/LiteOS_Lab/iot_link/network/lwm2m/wakaama_lwm2m/core\internals.h **** #define URI_REGISTRATION_SEGMENT_LEN    2
 179:C:/Users/dtjld/Desktop/AIoT_software/LiteOS_Lab_overseas/LiteOS_Lab/iot_link/network/lwm2m/wakaama_lwm2m/core\internals.h **** #define URI_BOOTSTRAP_SEGMENT           "bs"
 180:C:/Users/dtjld/Desktop/AIoT_software/LiteOS_Lab_overseas/LiteOS_Lab/iot_link/network/lwm2m/wakaama_lwm2m/core\internals.h **** #define URI_BOOTSTRAP_SEGMENT_LEN       2
 181:C:/Users/dtjld/Desktop/AIoT_software/LiteOS_Lab_overseas/LiteOS_Lab/iot_link/network/lwm2m/wakaama_lwm2m/core\internals.h **** 
 182:C:/Users/dtjld/Desktop/AIoT_software/LiteOS_Lab_overseas/LiteOS_Lab/iot_link/network/lwm2m/wakaama_lwm2m/core\internals.h **** #define QUERY_STARTER       "?"
 183:C:/Users/dtjld/Desktop/AIoT_software/LiteOS_Lab_overseas/LiteOS_Lab/iot_link/network/lwm2m/wakaama_lwm2m/core\internals.h **** #define QUERY_NAME          "ep="
 184:C:/Users/dtjld/Desktop/AIoT_software/LiteOS_Lab_overseas/LiteOS_Lab/iot_link/network/lwm2m/wakaama_lwm2m/core\internals.h **** #define QUERY_NAME_LEN      3       // strlen("ep=")
 185:C:/Users/dtjld/Desktop/AIoT_software/LiteOS_Lab_overseas/LiteOS_Lab/iot_link/network/lwm2m/wakaama_lwm2m/core\internals.h **** #define QUERY_SMS           "sms="
 186:C:/Users/dtjld/Desktop/AIoT_software/LiteOS_Lab_overseas/LiteOS_Lab/iot_link/network/lwm2m/wakaama_lwm2m/core\internals.h **** #define QUERY_SMS_LEN       4
 187:C:/Users/dtjld/Desktop/AIoT_software/LiteOS_Lab_overseas/LiteOS_Lab/iot_link/network/lwm2m/wakaama_lwm2m/core\internals.h **** #define QUERY_LIFETIME      "lt="
 188:C:/Users/dtjld/Desktop/AIoT_software/LiteOS_Lab_overseas/LiteOS_Lab/iot_link/network/lwm2m/wakaama_lwm2m/core\internals.h **** #define QUERY_LIFETIME_LEN  3
 189:C:/Users/dtjld/Desktop/AIoT_software/LiteOS_Lab_overseas/LiteOS_Lab/iot_link/network/lwm2m/wakaama_lwm2m/core\internals.h **** #define QUERY_VERSION       "lwm2m="
 190:C:/Users/dtjld/Desktop/AIoT_software/LiteOS_Lab_overseas/LiteOS_Lab/iot_link/network/lwm2m/wakaama_lwm2m/core\internals.h **** #define QUERY_VERSION_LEN   6
 191:C:/Users/dtjld/Desktop/AIoT_software/LiteOS_Lab_overseas/LiteOS_Lab/iot_link/network/lwm2m/wakaama_lwm2m/core\internals.h **** #define QUERY_BINDING       "b="
 192:C:/Users/dtjld/Desktop/AIoT_software/LiteOS_Lab_overseas/LiteOS_Lab/iot_link/network/lwm2m/wakaama_lwm2m/core\internals.h **** #define QUERY_BINDING_LEN   2
 193:C:/Users/dtjld/Desktop/AIoT_software/LiteOS_Lab_overseas/LiteOS_Lab/iot_link/network/lwm2m/wakaama_lwm2m/core\internals.h **** #define QUERY_DELIMITER     "&"
 194:C:/Users/dtjld/Desktop/AIoT_software/LiteOS_Lab_overseas/LiteOS_Lab/iot_link/network/lwm2m/wakaama_lwm2m/core\internals.h **** 
 195:C:/Users/dtjld/Desktop/AIoT_software/LiteOS_Lab_overseas/LiteOS_Lab/iot_link/network/lwm2m/wakaama_lwm2m/core\internals.h **** #define LWM2M_VERSION      "1.0"
 196:C:/Users/dtjld/Desktop/AIoT_software/LiteOS_Lab_overseas/LiteOS_Lab/iot_link/network/lwm2m/wakaama_lwm2m/core\internals.h **** #define LWM2M_VERSION_LEN  3
 197:C:/Users/dtjld/Desktop/AIoT_software/LiteOS_Lab_overseas/LiteOS_Lab/iot_link/network/lwm2m/wakaama_lwm2m/core\internals.h **** 
 198:C:/Users/dtjld/Desktop/AIoT_software/LiteOS_Lab_overseas/LiteOS_Lab/iot_link/network/lwm2m/wakaama_lwm2m/core\internals.h **** #define QUERY_VERSION_FULL      QUERY_VERSION LWM2M_VERSION
 199:C:/Users/dtjld/Desktop/AIoT_software/LiteOS_Lab_overseas/LiteOS_Lab/iot_link/network/lwm2m/wakaama_lwm2m/core\internals.h **** #define QUERY_VERSION_FULL_LEN  QUERY_VERSION_LEN+LWM2M_VERSION_LEN
 200:C:/Users/dtjld/Desktop/AIoT_software/LiteOS_Lab_overseas/LiteOS_Lab/iot_link/network/lwm2m/wakaama_lwm2m/core\internals.h **** 
 201:C:/Users/dtjld/Desktop/AIoT_software/LiteOS_Lab_overseas/LiteOS_Lab/iot_link/network/lwm2m/wakaama_lwm2m/core\internals.h **** #define REG_URI_START       '<'
 202:C:/Users/dtjld/Desktop/AIoT_software/LiteOS_Lab_overseas/LiteOS_Lab/iot_link/network/lwm2m/wakaama_lwm2m/core\internals.h **** #define REG_URI_END         '>'
 203:C:/Users/dtjld/Desktop/AIoT_software/LiteOS_Lab_overseas/LiteOS_Lab/iot_link/network/lwm2m/wakaama_lwm2m/core\internals.h **** #define REG_DELIMITER       ','
ARM GAS  C:\Users\dtjld\AppData\Local\Temp\ccIjCgHN.s 			page 5


 204:C:/Users/dtjld/Desktop/AIoT_software/LiteOS_Lab_overseas/LiteOS_Lab/iot_link/network/lwm2m/wakaama_lwm2m/core\internals.h **** #define REG_ATTR_SEPARATOR  ';'
 205:C:/Users/dtjld/Desktop/AIoT_software/LiteOS_Lab_overseas/LiteOS_Lab/iot_link/network/lwm2m/wakaama_lwm2m/core\internals.h **** #define REG_ATTR_EQUALS     '='
 206:C:/Users/dtjld/Desktop/AIoT_software/LiteOS_Lab_overseas/LiteOS_Lab/iot_link/network/lwm2m/wakaama_lwm2m/core\internals.h **** #define REG_ATTR_TYPE_KEY           "rt"
 207:C:/Users/dtjld/Desktop/AIoT_software/LiteOS_Lab_overseas/LiteOS_Lab/iot_link/network/lwm2m/wakaama_lwm2m/core\internals.h **** #define REG_ATTR_TYPE_KEY_LEN       2
 208:C:/Users/dtjld/Desktop/AIoT_software/LiteOS_Lab_overseas/LiteOS_Lab/iot_link/network/lwm2m/wakaama_lwm2m/core\internals.h **** #define REG_ATTR_TYPE_VALUE         "\"oma.lwm2m\""
 209:C:/Users/dtjld/Desktop/AIoT_software/LiteOS_Lab_overseas/LiteOS_Lab/iot_link/network/lwm2m/wakaama_lwm2m/core\internals.h **** #define REG_ATTR_TYPE_VALUE_LEN     11
 210:C:/Users/dtjld/Desktop/AIoT_software/LiteOS_Lab_overseas/LiteOS_Lab/iot_link/network/lwm2m/wakaama_lwm2m/core\internals.h **** #define REG_ATTR_CONTENT_KEY        "ct"
 211:C:/Users/dtjld/Desktop/AIoT_software/LiteOS_Lab_overseas/LiteOS_Lab/iot_link/network/lwm2m/wakaama_lwm2m/core\internals.h **** #define REG_ATTR_CONTENT_KEY_LEN    2
 212:C:/Users/dtjld/Desktop/AIoT_software/LiteOS_Lab_overseas/LiteOS_Lab/iot_link/network/lwm2m/wakaama_lwm2m/core\internals.h **** #define REG_ATTR_CONTENT_JSON       "11543"   // Temporary value
 213:C:/Users/dtjld/Desktop/AIoT_software/LiteOS_Lab_overseas/LiteOS_Lab/iot_link/network/lwm2m/wakaama_lwm2m/core\internals.h **** #define REG_ATTR_CONTENT_JSON_LEN   5
 214:C:/Users/dtjld/Desktop/AIoT_software/LiteOS_Lab_overseas/LiteOS_Lab/iot_link/network/lwm2m/wakaama_lwm2m/core\internals.h **** 
 215:C:/Users/dtjld/Desktop/AIoT_software/LiteOS_Lab_overseas/LiteOS_Lab/iot_link/network/lwm2m/wakaama_lwm2m/core\internals.h **** #define ATTR_SERVER_ID_STR       "ep="
 216:C:/Users/dtjld/Desktop/AIoT_software/LiteOS_Lab_overseas/LiteOS_Lab/iot_link/network/lwm2m/wakaama_lwm2m/core\internals.h **** #define ATTR_SERVER_ID_LEN       3
 217:C:/Users/dtjld/Desktop/AIoT_software/LiteOS_Lab_overseas/LiteOS_Lab/iot_link/network/lwm2m/wakaama_lwm2m/core\internals.h **** #define ATTR_MIN_PERIOD_STR      "pmin="
 218:C:/Users/dtjld/Desktop/AIoT_software/LiteOS_Lab_overseas/LiteOS_Lab/iot_link/network/lwm2m/wakaama_lwm2m/core\internals.h **** #define ATTR_MIN_PERIOD_LEN      5
 219:C:/Users/dtjld/Desktop/AIoT_software/LiteOS_Lab_overseas/LiteOS_Lab/iot_link/network/lwm2m/wakaama_lwm2m/core\internals.h **** #define ATTR_MAX_PERIOD_STR      "pmax="
 220:C:/Users/dtjld/Desktop/AIoT_software/LiteOS_Lab_overseas/LiteOS_Lab/iot_link/network/lwm2m/wakaama_lwm2m/core\internals.h **** #define ATTR_MAX_PERIOD_LEN      5
 221:C:/Users/dtjld/Desktop/AIoT_software/LiteOS_Lab_overseas/LiteOS_Lab/iot_link/network/lwm2m/wakaama_lwm2m/core\internals.h **** #define ATTR_GREATER_THAN_STR    "gt="
 222:C:/Users/dtjld/Desktop/AIoT_software/LiteOS_Lab_overseas/LiteOS_Lab/iot_link/network/lwm2m/wakaama_lwm2m/core\internals.h **** #define ATTR_GREATER_THAN_LEN    3
 223:C:/Users/dtjld/Desktop/AIoT_software/LiteOS_Lab_overseas/LiteOS_Lab/iot_link/network/lwm2m/wakaama_lwm2m/core\internals.h **** #define ATTR_LESS_THAN_STR       "lt="
 224:C:/Users/dtjld/Desktop/AIoT_software/LiteOS_Lab_overseas/LiteOS_Lab/iot_link/network/lwm2m/wakaama_lwm2m/core\internals.h **** #define ATTR_LESS_THAN_LEN       3
 225:C:/Users/dtjld/Desktop/AIoT_software/LiteOS_Lab_overseas/LiteOS_Lab/iot_link/network/lwm2m/wakaama_lwm2m/core\internals.h **** #define ATTR_STEP_STR            "st="
 226:C:/Users/dtjld/Desktop/AIoT_software/LiteOS_Lab_overseas/LiteOS_Lab/iot_link/network/lwm2m/wakaama_lwm2m/core\internals.h **** #define ATTR_STEP_LEN            3
 227:C:/Users/dtjld/Desktop/AIoT_software/LiteOS_Lab_overseas/LiteOS_Lab/iot_link/network/lwm2m/wakaama_lwm2m/core\internals.h **** #define ATTR_DIMENSION_STR       "dim="
 228:C:/Users/dtjld/Desktop/AIoT_software/LiteOS_Lab_overseas/LiteOS_Lab/iot_link/network/lwm2m/wakaama_lwm2m/core\internals.h **** #define ATTR_DIMENSION_LEN       4
 229:C:/Users/dtjld/Desktop/AIoT_software/LiteOS_Lab_overseas/LiteOS_Lab/iot_link/network/lwm2m/wakaama_lwm2m/core\internals.h **** 
 230:C:/Users/dtjld/Desktop/AIoT_software/LiteOS_Lab_overseas/LiteOS_Lab/iot_link/network/lwm2m/wakaama_lwm2m/core\internals.h **** #define URI_MAX_STRING_LEN    18      // /65535/65535/65535
 231:C:/Users/dtjld/Desktop/AIoT_software/LiteOS_Lab_overseas/LiteOS_Lab/iot_link/network/lwm2m/wakaama_lwm2m/core\internals.h **** #define _PRV_64BIT_BUFFER_SIZE 8
 232:C:/Users/dtjld/Desktop/AIoT_software/LiteOS_Lab_overseas/LiteOS_Lab/iot_link/network/lwm2m/wakaama_lwm2m/core\internals.h **** 
 233:C:/Users/dtjld/Desktop/AIoT_software/LiteOS_Lab_overseas/LiteOS_Lab/iot_link/network/lwm2m/wakaama_lwm2m/core\internals.h **** #define LINK_ITEM_START             "<"
 234:C:/Users/dtjld/Desktop/AIoT_software/LiteOS_Lab_overseas/LiteOS_Lab/iot_link/network/lwm2m/wakaama_lwm2m/core\internals.h **** #define LINK_ITEM_START_SIZE        1
 235:C:/Users/dtjld/Desktop/AIoT_software/LiteOS_Lab_overseas/LiteOS_Lab/iot_link/network/lwm2m/wakaama_lwm2m/core\internals.h **** #define LINK_ITEM_END               ">,"
 236:C:/Users/dtjld/Desktop/AIoT_software/LiteOS_Lab_overseas/LiteOS_Lab/iot_link/network/lwm2m/wakaama_lwm2m/core\internals.h **** #define LINK_ITEM_END_SIZE          2
 237:C:/Users/dtjld/Desktop/AIoT_software/LiteOS_Lab_overseas/LiteOS_Lab/iot_link/network/lwm2m/wakaama_lwm2m/core\internals.h **** #define LINK_ITEM_DIM_START         ">;dim="
 238:C:/Users/dtjld/Desktop/AIoT_software/LiteOS_Lab_overseas/LiteOS_Lab/iot_link/network/lwm2m/wakaama_lwm2m/core\internals.h **** #define LINK_ITEM_DIM_START_SIZE    6
 239:C:/Users/dtjld/Desktop/AIoT_software/LiteOS_Lab_overseas/LiteOS_Lab/iot_link/network/lwm2m/wakaama_lwm2m/core\internals.h **** #define LINK_ITEM_ATTR_END          ","
 240:C:/Users/dtjld/Desktop/AIoT_software/LiteOS_Lab_overseas/LiteOS_Lab/iot_link/network/lwm2m/wakaama_lwm2m/core\internals.h **** #define LINK_ITEM_ATTR_END_SIZE     1
 241:C:/Users/dtjld/Desktop/AIoT_software/LiteOS_Lab_overseas/LiteOS_Lab/iot_link/network/lwm2m/wakaama_lwm2m/core\internals.h **** #define LINK_URI_SEPARATOR          "/"
 242:C:/Users/dtjld/Desktop/AIoT_software/LiteOS_Lab_overseas/LiteOS_Lab/iot_link/network/lwm2m/wakaama_lwm2m/core\internals.h **** #define LINK_URI_SEPARATOR_SIZE     1
 243:C:/Users/dtjld/Desktop/AIoT_software/LiteOS_Lab_overseas/LiteOS_Lab/iot_link/network/lwm2m/wakaama_lwm2m/core\internals.h **** #define LINK_ATTR_SEPARATOR         ";"
 244:C:/Users/dtjld/Desktop/AIoT_software/LiteOS_Lab_overseas/LiteOS_Lab/iot_link/network/lwm2m/wakaama_lwm2m/core\internals.h **** #define LINK_ATTR_SEPARATOR_SIZE    1
 245:C:/Users/dtjld/Desktop/AIoT_software/LiteOS_Lab_overseas/LiteOS_Lab/iot_link/network/lwm2m/wakaama_lwm2m/core\internals.h **** 
 246:C:/Users/dtjld/Desktop/AIoT_software/LiteOS_Lab_overseas/LiteOS_Lab/iot_link/network/lwm2m/wakaama_lwm2m/core\internals.h **** #define ATTR_FLAG_NUMERIC (uint8_t)(LWM2M_ATTR_FLAG_LESS_THAN | LWM2M_ATTR_FLAG_GREATER_THAN | LWM2
 247:C:/Users/dtjld/Desktop/AIoT_software/LiteOS_Lab_overseas/LiteOS_Lab/iot_link/network/lwm2m/wakaama_lwm2m/core\internals.h **** 
 248:C:/Users/dtjld/Desktop/AIoT_software/LiteOS_Lab_overseas/LiteOS_Lab/iot_link/network/lwm2m/wakaama_lwm2m/core\internals.h **** #define LWM2M_URI_FLAG_DM           (uint8_t)0x00
 249:C:/Users/dtjld/Desktop/AIoT_software/LiteOS_Lab_overseas/LiteOS_Lab/iot_link/network/lwm2m/wakaama_lwm2m/core\internals.h **** #define LWM2M_URI_FLAG_DELETE_ALL   (uint8_t)0x10
 250:C:/Users/dtjld/Desktop/AIoT_software/LiteOS_Lab_overseas/LiteOS_Lab/iot_link/network/lwm2m/wakaama_lwm2m/core\internals.h **** #define LWM2M_URI_FLAG_REGISTRATION (uint8_t)0x20
 251:C:/Users/dtjld/Desktop/AIoT_software/LiteOS_Lab_overseas/LiteOS_Lab/iot_link/network/lwm2m/wakaama_lwm2m/core\internals.h **** #define LWM2M_URI_FLAG_BOOTSTRAP    (uint8_t)0x40
 252:C:/Users/dtjld/Desktop/AIoT_software/LiteOS_Lab_overseas/LiteOS_Lab/iot_link/network/lwm2m/wakaama_lwm2m/core\internals.h **** 
 253:C:/Users/dtjld/Desktop/AIoT_software/LiteOS_Lab_overseas/LiteOS_Lab/iot_link/network/lwm2m/wakaama_lwm2m/core\internals.h **** #define LWM2M_URI_MASK_TYPE (uint8_t)0x70
 254:C:/Users/dtjld/Desktop/AIoT_software/LiteOS_Lab_overseas/LiteOS_Lab/iot_link/network/lwm2m/wakaama_lwm2m/core\internals.h **** #define LWM2M_URI_MASK_ID   (uint8_t)0x07
 255:C:/Users/dtjld/Desktop/AIoT_software/LiteOS_Lab_overseas/LiteOS_Lab/iot_link/network/lwm2m/wakaama_lwm2m/core\internals.h **** 
 256:C:/Users/dtjld/Desktop/AIoT_software/LiteOS_Lab_overseas/LiteOS_Lab/iot_link/network/lwm2m/wakaama_lwm2m/core\internals.h **** typedef struct
 257:C:/Users/dtjld/Desktop/AIoT_software/LiteOS_Lab_overseas/LiteOS_Lab/iot_link/network/lwm2m/wakaama_lwm2m/core\internals.h **** {
 258:C:/Users/dtjld/Desktop/AIoT_software/LiteOS_Lab_overseas/LiteOS_Lab/iot_link/network/lwm2m/wakaama_lwm2m/core\internals.h ****     uint16_t clientID;
 259:C:/Users/dtjld/Desktop/AIoT_software/LiteOS_Lab_overseas/LiteOS_Lab/iot_link/network/lwm2m/wakaama_lwm2m/core\internals.h ****     lwm2m_uri_t uri;
 260:C:/Users/dtjld/Desktop/AIoT_software/LiteOS_Lab_overseas/LiteOS_Lab/iot_link/network/lwm2m/wakaama_lwm2m/core\internals.h ****     lwm2m_result_callback_t callback;
ARM GAS  C:\Users\dtjld\AppData\Local\Temp\ccIjCgHN.s 			page 6


 261:C:/Users/dtjld/Desktop/AIoT_software/LiteOS_Lab_overseas/LiteOS_Lab/iot_link/network/lwm2m/wakaama_lwm2m/core\internals.h ****     void * userData;
 262:C:/Users/dtjld/Desktop/AIoT_software/LiteOS_Lab_overseas/LiteOS_Lab/iot_link/network/lwm2m/wakaama_lwm2m/core\internals.h **** } dm_data_t;
 263:C:/Users/dtjld/Desktop/AIoT_software/LiteOS_Lab_overseas/LiteOS_Lab/iot_link/network/lwm2m/wakaama_lwm2m/core\internals.h **** 
 264:C:/Users/dtjld/Desktop/AIoT_software/LiteOS_Lab_overseas/LiteOS_Lab/iot_link/network/lwm2m/wakaama_lwm2m/core\internals.h **** typedef enum
 265:C:/Users/dtjld/Desktop/AIoT_software/LiteOS_Lab_overseas/LiteOS_Lab/iot_link/network/lwm2m/wakaama_lwm2m/core\internals.h **** {
 266:C:/Users/dtjld/Desktop/AIoT_software/LiteOS_Lab_overseas/LiteOS_Lab/iot_link/network/lwm2m/wakaama_lwm2m/core\internals.h ****     URI_DEPTH_OBJECT,
 267:C:/Users/dtjld/Desktop/AIoT_software/LiteOS_Lab_overseas/LiteOS_Lab/iot_link/network/lwm2m/wakaama_lwm2m/core\internals.h ****     URI_DEPTH_OBJECT_INSTANCE,
 268:C:/Users/dtjld/Desktop/AIoT_software/LiteOS_Lab_overseas/LiteOS_Lab/iot_link/network/lwm2m/wakaama_lwm2m/core\internals.h ****     URI_DEPTH_RESOURCE,
 269:C:/Users/dtjld/Desktop/AIoT_software/LiteOS_Lab_overseas/LiteOS_Lab/iot_link/network/lwm2m/wakaama_lwm2m/core\internals.h ****     URI_DEPTH_RESOURCE_INSTANCE
 270:C:/Users/dtjld/Desktop/AIoT_software/LiteOS_Lab_overseas/LiteOS_Lab/iot_link/network/lwm2m/wakaama_lwm2m/core\internals.h **** } uri_depth_t;
 271:C:/Users/dtjld/Desktop/AIoT_software/LiteOS_Lab_overseas/LiteOS_Lab/iot_link/network/lwm2m/wakaama_lwm2m/core\internals.h **** 
 272:C:/Users/dtjld/Desktop/AIoT_software/LiteOS_Lab_overseas/LiteOS_Lab/iot_link/network/lwm2m/wakaama_lwm2m/core\internals.h **** #ifdef LWM2M_BOOTSTRAP_SERVER_MODE
 273:C:/Users/dtjld/Desktop/AIoT_software/LiteOS_Lab_overseas/LiteOS_Lab/iot_link/network/lwm2m/wakaama_lwm2m/core\internals.h **** typedef struct
 274:C:/Users/dtjld/Desktop/AIoT_software/LiteOS_Lab_overseas/LiteOS_Lab/iot_link/network/lwm2m/wakaama_lwm2m/core\internals.h **** {
 275:C:/Users/dtjld/Desktop/AIoT_software/LiteOS_Lab_overseas/LiteOS_Lab/iot_link/network/lwm2m/wakaama_lwm2m/core\internals.h ****     bool        isUri;
 276:C:/Users/dtjld/Desktop/AIoT_software/LiteOS_Lab_overseas/LiteOS_Lab/iot_link/network/lwm2m/wakaama_lwm2m/core\internals.h ****     lwm2m_uri_t uri;
 277:C:/Users/dtjld/Desktop/AIoT_software/LiteOS_Lab_overseas/LiteOS_Lab/iot_link/network/lwm2m/wakaama_lwm2m/core\internals.h ****     lwm2m_bootstrap_callback_t callback;
 278:C:/Users/dtjld/Desktop/AIoT_software/LiteOS_Lab_overseas/LiteOS_Lab/iot_link/network/lwm2m/wakaama_lwm2m/core\internals.h ****     void *      userData;
 279:C:/Users/dtjld/Desktop/AIoT_software/LiteOS_Lab_overseas/LiteOS_Lab/iot_link/network/lwm2m/wakaama_lwm2m/core\internals.h **** } bs_data_t;
 280:C:/Users/dtjld/Desktop/AIoT_software/LiteOS_Lab_overseas/LiteOS_Lab/iot_link/network/lwm2m/wakaama_lwm2m/core\internals.h **** #endif
 281:C:/Users/dtjld/Desktop/AIoT_software/LiteOS_Lab_overseas/LiteOS_Lab/iot_link/network/lwm2m/wakaama_lwm2m/core\internals.h **** 
 282:C:/Users/dtjld/Desktop/AIoT_software/LiteOS_Lab_overseas/LiteOS_Lab/iot_link/network/lwm2m/wakaama_lwm2m/core\internals.h **** // defined in uri.c
 283:C:/Users/dtjld/Desktop/AIoT_software/LiteOS_Lab_overseas/LiteOS_Lab/iot_link/network/lwm2m/wakaama_lwm2m/core\internals.h **** lwm2m_uri_t * uri_decode(char * altPath, multi_option_t *uriPath);
 284:C:/Users/dtjld/Desktop/AIoT_software/LiteOS_Lab_overseas/LiteOS_Lab/iot_link/network/lwm2m/wakaama_lwm2m/core\internals.h **** int uri_getNumber(uint8_t * uriString, size_t uriLength);
 285:C:/Users/dtjld/Desktop/AIoT_software/LiteOS_Lab_overseas/LiteOS_Lab/iot_link/network/lwm2m/wakaama_lwm2m/core\internals.h **** int uri_toString(lwm2m_uri_t * uriP, uint8_t * buffer, size_t bufferLen, uri_depth_t * depthP);
 286:C:/Users/dtjld/Desktop/AIoT_software/LiteOS_Lab_overseas/LiteOS_Lab/iot_link/network/lwm2m/wakaama_lwm2m/core\internals.h **** 
 287:C:/Users/dtjld/Desktop/AIoT_software/LiteOS_Lab_overseas/LiteOS_Lab/iot_link/network/lwm2m/wakaama_lwm2m/core\internals.h **** // defined in objects.c
 288:C:/Users/dtjld/Desktop/AIoT_software/LiteOS_Lab_overseas/LiteOS_Lab/iot_link/network/lwm2m/wakaama_lwm2m/core\internals.h **** uint8_t object_readData(lwm2m_context_t * contextP, lwm2m_uri_t * uriP, int * sizeP, lwm2m_data_t *
 289:C:/Users/dtjld/Desktop/AIoT_software/LiteOS_Lab_overseas/LiteOS_Lab/iot_link/network/lwm2m/wakaama_lwm2m/core\internals.h **** uint8_t object_read(lwm2m_context_t * contextP, lwm2m_uri_t * uriP, lwm2m_media_type_t * formatP, u
 290:C:/Users/dtjld/Desktop/AIoT_software/LiteOS_Lab_overseas/LiteOS_Lab/iot_link/network/lwm2m/wakaama_lwm2m/core\internals.h **** uint8_t object_write(lwm2m_context_t * contextP, lwm2m_uri_t * uriP, lwm2m_media_type_t format, uin
 291:C:/Users/dtjld/Desktop/AIoT_software/LiteOS_Lab_overseas/LiteOS_Lab/iot_link/network/lwm2m/wakaama_lwm2m/core\internals.h **** uint8_t object_create(lwm2m_context_t * contextP, lwm2m_uri_t * uriP, lwm2m_media_type_t format, ui
 292:C:/Users/dtjld/Desktop/AIoT_software/LiteOS_Lab_overseas/LiteOS_Lab/iot_link/network/lwm2m/wakaama_lwm2m/core\internals.h **** uint8_t object_execute(lwm2m_context_t * contextP, lwm2m_uri_t * uriP, uint8_t * buffer, size_t len
 293:C:/Users/dtjld/Desktop/AIoT_software/LiteOS_Lab_overseas/LiteOS_Lab/iot_link/network/lwm2m/wakaama_lwm2m/core\internals.h **** uint8_t object_delete(lwm2m_context_t * contextP, lwm2m_uri_t * uriP);
 294:C:/Users/dtjld/Desktop/AIoT_software/LiteOS_Lab_overseas/LiteOS_Lab/iot_link/network/lwm2m/wakaama_lwm2m/core\internals.h **** uint8_t object_discover(lwm2m_context_t * contextP, lwm2m_uri_t * uriP, lwm2m_server_t * serverP, u
 295:C:/Users/dtjld/Desktop/AIoT_software/LiteOS_Lab_overseas/LiteOS_Lab/iot_link/network/lwm2m/wakaama_lwm2m/core\internals.h **** uint8_t object_checkReadable(lwm2m_context_t * contextP, lwm2m_uri_t * uriP);
 296:C:/Users/dtjld/Desktop/AIoT_software/LiteOS_Lab_overseas/LiteOS_Lab/iot_link/network/lwm2m/wakaama_lwm2m/core\internals.h **** uint8_t object_checkNumeric(lwm2m_context_t * contextP, lwm2m_uri_t * uriP);
 297:C:/Users/dtjld/Desktop/AIoT_software/LiteOS_Lab_overseas/LiteOS_Lab/iot_link/network/lwm2m/wakaama_lwm2m/core\internals.h **** bool object_isInstanceNew(lwm2m_context_t * contextP, uint16_t objectId, uint16_t instanceId);
 298:C:/Users/dtjld/Desktop/AIoT_software/LiteOS_Lab_overseas/LiteOS_Lab/iot_link/network/lwm2m/wakaama_lwm2m/core\internals.h **** int object_getRegisterPayloadBufferLength(lwm2m_context_t * contextP);
 299:C:/Users/dtjld/Desktop/AIoT_software/LiteOS_Lab_overseas/LiteOS_Lab/iot_link/network/lwm2m/wakaama_lwm2m/core\internals.h **** int object_getRegisterPayload(lwm2m_context_t * contextP, uint8_t * buffer, size_t length);
 300:C:/Users/dtjld/Desktop/AIoT_software/LiteOS_Lab_overseas/LiteOS_Lab/iot_link/network/lwm2m/wakaama_lwm2m/core\internals.h **** int object_getServers(lwm2m_context_t * contextP, bool checkOnly);
 301:C:/Users/dtjld/Desktop/AIoT_software/LiteOS_Lab_overseas/LiteOS_Lab/iot_link/network/lwm2m/wakaama_lwm2m/core\internals.h **** uint8_t object_createInstance(lwm2m_context_t * contextP, lwm2m_uri_t * uriP, lwm2m_data_t * dataP)
 302:C:/Users/dtjld/Desktop/AIoT_software/LiteOS_Lab_overseas/LiteOS_Lab/iot_link/network/lwm2m/wakaama_lwm2m/core\internals.h **** uint8_t object_writeInstance(lwm2m_context_t * contextP, lwm2m_uri_t * uriP, lwm2m_data_t * dataP);
 303:C:/Users/dtjld/Desktop/AIoT_software/LiteOS_Lab_overseas/LiteOS_Lab/iot_link/network/lwm2m/wakaama_lwm2m/core\internals.h **** 
 304:C:/Users/dtjld/Desktop/AIoT_software/LiteOS_Lab_overseas/LiteOS_Lab/iot_link/network/lwm2m/wakaama_lwm2m/core\internals.h **** // defined in transaction.c
 305:C:/Users/dtjld/Desktop/AIoT_software/LiteOS_Lab_overseas/LiteOS_Lab/iot_link/network/lwm2m/wakaama_lwm2m/core\internals.h **** lwm2m_transaction_t * transaction_new(void * sessionH, unsigned char method, char * altPath, lwm2m_
 306:C:/Users/dtjld/Desktop/AIoT_software/LiteOS_Lab_overseas/LiteOS_Lab/iot_link/network/lwm2m/wakaama_lwm2m/core\internals.h **** int transaction_send(lwm2m_context_t * contextP, lwm2m_transaction_t * transacP);
 307:C:/Users/dtjld/Desktop/AIoT_software/LiteOS_Lab_overseas/LiteOS_Lab/iot_link/network/lwm2m/wakaama_lwm2m/core\internals.h **** void transaction_free(lwm2m_transaction_t * transacP);
 308:C:/Users/dtjld/Desktop/AIoT_software/LiteOS_Lab_overseas/LiteOS_Lab/iot_link/network/lwm2m/wakaama_lwm2m/core\internals.h **** void transaction_remove(lwm2m_context_t * contextP, lwm2m_transaction_t * transacP);
 309:C:/Users/dtjld/Desktop/AIoT_software/LiteOS_Lab_overseas/LiteOS_Lab/iot_link/network/lwm2m/wakaama_lwm2m/core\internals.h **** bool transaction_handleResponse(lwm2m_context_t * contextP, void * fromSessionH, coap_packet_t * me
 310:C:/Users/dtjld/Desktop/AIoT_software/LiteOS_Lab_overseas/LiteOS_Lab/iot_link/network/lwm2m/wakaama_lwm2m/core\internals.h **** void transaction_step(lwm2m_context_t * contextP, time_t currentTime, time_t * timeoutP);
 311:C:/Users/dtjld/Desktop/AIoT_software/LiteOS_Lab_overseas/LiteOS_Lab/iot_link/network/lwm2m/wakaama_lwm2m/core\internals.h **** 
 312:C:/Users/dtjld/Desktop/AIoT_software/LiteOS_Lab_overseas/LiteOS_Lab/iot_link/network/lwm2m/wakaama_lwm2m/core\internals.h **** // defined in management.c
 313:C:/Users/dtjld/Desktop/AIoT_software/LiteOS_Lab_overseas/LiteOS_Lab/iot_link/network/lwm2m/wakaama_lwm2m/core\internals.h **** uint8_t dm_handleRequest(lwm2m_context_t * contextP, lwm2m_uri_t * uriP, lwm2m_server_t * serverP, 
 314:C:/Users/dtjld/Desktop/AIoT_software/LiteOS_Lab_overseas/LiteOS_Lab/iot_link/network/lwm2m/wakaama_lwm2m/core\internals.h **** 
 315:C:/Users/dtjld/Desktop/AIoT_software/LiteOS_Lab_overseas/LiteOS_Lab/iot_link/network/lwm2m/wakaama_lwm2m/core\internals.h **** // defined in observe.c
 316:C:/Users/dtjld/Desktop/AIoT_software/LiteOS_Lab_overseas/LiteOS_Lab/iot_link/network/lwm2m/wakaama_lwm2m/core\internals.h **** uint8_t observe_handleRequest(lwm2m_context_t * contextP, lwm2m_uri_t * uriP, lwm2m_server_t * serv
 317:C:/Users/dtjld/Desktop/AIoT_software/LiteOS_Lab_overseas/LiteOS_Lab/iot_link/network/lwm2m/wakaama_lwm2m/core\internals.h **** void observe_cancel(lwm2m_context_t * contextP, uint16_t mid, void * fromSessionH);
ARM GAS  C:\Users\dtjld\AppData\Local\Temp\ccIjCgHN.s 			page 7


 318:C:/Users/dtjld/Desktop/AIoT_software/LiteOS_Lab_overseas/LiteOS_Lab/iot_link/network/lwm2m/wakaama_lwm2m/core\internals.h **** uint8_t observe_setParameters(lwm2m_context_t * contextP, lwm2m_uri_t * uriP, lwm2m_server_t * serv
 319:C:/Users/dtjld/Desktop/AIoT_software/LiteOS_Lab_overseas/LiteOS_Lab/iot_link/network/lwm2m/wakaama_lwm2m/core\internals.h **** void observe_step(lwm2m_context_t * contextP, time_t currentTime, time_t * timeoutP);
 320:C:/Users/dtjld/Desktop/AIoT_software/LiteOS_Lab_overseas/LiteOS_Lab/iot_link/network/lwm2m/wakaama_lwm2m/core\internals.h **** void observe_clear(lwm2m_context_t * contextP, lwm2m_uri_t * uriP);
 321:C:/Users/dtjld/Desktop/AIoT_software/LiteOS_Lab_overseas/LiteOS_Lab/iot_link/network/lwm2m/wakaama_lwm2m/core\internals.h **** //bool observe_handleNotify(lwm2m_context_t * contextP, void * fromSessionH, coap_packet_t * messag
 322:C:/Users/dtjld/Desktop/AIoT_software/LiteOS_Lab_overseas/LiteOS_Lab/iot_link/network/lwm2m/wakaama_lwm2m/core\internals.h **** void observe_remove(lwm2m_observation_t * observationP);
 323:C:/Users/dtjld/Desktop/AIoT_software/LiteOS_Lab_overseas/LiteOS_Lab/iot_link/network/lwm2m/wakaama_lwm2m/core\internals.h **** lwm2m_observed_t * observe_findByUri(lwm2m_context_t * contextP, lwm2m_uri_t * uriP);
 324:C:/Users/dtjld/Desktop/AIoT_software/LiteOS_Lab_overseas/LiteOS_Lab/iot_link/network/lwm2m/wakaama_lwm2m/core\internals.h **** 
 325:C:/Users/dtjld/Desktop/AIoT_software/LiteOS_Lab_overseas/LiteOS_Lab/iot_link/network/lwm2m/wakaama_lwm2m/core\internals.h **** // defined in registration.c
 326:C:/Users/dtjld/Desktop/AIoT_software/LiteOS_Lab_overseas/LiteOS_Lab/iot_link/network/lwm2m/wakaama_lwm2m/core\internals.h **** //uint8_t registration_handleRequest(lwm2m_context_t * contextP, lwm2m_uri_t * uriP, void * fromSes
 327:C:/Users/dtjld/Desktop/AIoT_software/LiteOS_Lab_overseas/LiteOS_Lab/iot_link/network/lwm2m/wakaama_lwm2m/core\internals.h **** void registration_deregister(lwm2m_context_t * contextP, lwm2m_server_t * serverP);
 328:C:/Users/dtjld/Desktop/AIoT_software/LiteOS_Lab_overseas/LiteOS_Lab/iot_link/network/lwm2m/wakaama_lwm2m/core\internals.h **** void registration_freeClient(lwm2m_client_t * clientP);
 329:C:/Users/dtjld/Desktop/AIoT_software/LiteOS_Lab_overseas/LiteOS_Lab/iot_link/network/lwm2m/wakaama_lwm2m/core\internals.h **** uint8_t registration_start(lwm2m_context_t * contextP);
 330:C:/Users/dtjld/Desktop/AIoT_software/LiteOS_Lab_overseas/LiteOS_Lab/iot_link/network/lwm2m/wakaama_lwm2m/core\internals.h **** void registration_step(lwm2m_context_t * contextP, time_t currentTime, time_t * timeoutP);
 331:C:/Users/dtjld/Desktop/AIoT_software/LiteOS_Lab_overseas/LiteOS_Lab/iot_link/network/lwm2m/wakaama_lwm2m/core\internals.h **** lwm2m_status_t registration_getStatus(lwm2m_context_t * contextP);
 332:C:/Users/dtjld/Desktop/AIoT_software/LiteOS_Lab_overseas/LiteOS_Lab/iot_link/network/lwm2m/wakaama_lwm2m/core\internals.h **** void registration_reset(lwm2m_context_t * contextP, lwm2m_server_t * serverP);
 333:C:/Users/dtjld/Desktop/AIoT_software/LiteOS_Lab_overseas/LiteOS_Lab/iot_link/network/lwm2m/wakaama_lwm2m/core\internals.h **** 
 334:C:/Users/dtjld/Desktop/AIoT_software/LiteOS_Lab_overseas/LiteOS_Lab/iot_link/network/lwm2m/wakaama_lwm2m/core\internals.h **** // defined in packet.c
 335:C:/Users/dtjld/Desktop/AIoT_software/LiteOS_Lab_overseas/LiteOS_Lab/iot_link/network/lwm2m/wakaama_lwm2m/core\internals.h **** uint8_t message_send(lwm2m_context_t * contextP, coap_packet_t * message, void * sessionH);
 336:C:/Users/dtjld/Desktop/AIoT_software/LiteOS_Lab_overseas/LiteOS_Lab/iot_link/network/lwm2m/wakaama_lwm2m/core\internals.h **** 
 337:C:/Users/dtjld/Desktop/AIoT_software/LiteOS_Lab_overseas/LiteOS_Lab/iot_link/network/lwm2m/wakaama_lwm2m/core\internals.h **** // defined in bootstrap.c
 338:C:/Users/dtjld/Desktop/AIoT_software/LiteOS_Lab_overseas/LiteOS_Lab/iot_link/network/lwm2m/wakaama_lwm2m/core\internals.h **** void bootstrap_step(lwm2m_context_t * contextP, uint32_t currentTime, time_t* timeoutP);
 339:C:/Users/dtjld/Desktop/AIoT_software/LiteOS_Lab_overseas/LiteOS_Lab/iot_link/network/lwm2m/wakaama_lwm2m/core\internals.h **** uint8_t bootstrap_handleCommand(lwm2m_context_t * contextP, lwm2m_uri_t * uriP, lwm2m_server_t * se
 340:C:/Users/dtjld/Desktop/AIoT_software/LiteOS_Lab_overseas/LiteOS_Lab/iot_link/network/lwm2m/wakaama_lwm2m/core\internals.h **** uint8_t bootstrap_handleDeleteAll(lwm2m_context_t * context, void * fromSessionH);
 341:C:/Users/dtjld/Desktop/AIoT_software/LiteOS_Lab_overseas/LiteOS_Lab/iot_link/network/lwm2m/wakaama_lwm2m/core\internals.h **** uint8_t bootstrap_handleFinish(lwm2m_context_t * context, void * fromSessionH);
 342:C:/Users/dtjld/Desktop/AIoT_software/LiteOS_Lab_overseas/LiteOS_Lab/iot_link/network/lwm2m/wakaama_lwm2m/core\internals.h **** uint8_t bootstrap_handleRequest(lwm2m_context_t * contextP, lwm2m_uri_t * uriP, void * fromSessionH
 343:C:/Users/dtjld/Desktop/AIoT_software/LiteOS_Lab_overseas/LiteOS_Lab/iot_link/network/lwm2m/wakaama_lwm2m/core\internals.h **** void bootstrap_start(lwm2m_context_t * contextP);
 344:C:/Users/dtjld/Desktop/AIoT_software/LiteOS_Lab_overseas/LiteOS_Lab/iot_link/network/lwm2m/wakaama_lwm2m/core\internals.h **** lwm2m_status_t bootstrap_getStatus(lwm2m_context_t * contextP);
 345:C:/Users/dtjld/Desktop/AIoT_software/LiteOS_Lab_overseas/LiteOS_Lab/iot_link/network/lwm2m/wakaama_lwm2m/core\internals.h **** bool bootstrap_isBsServerIpValid(const lwm2m_context_t *contextP);
 346:C:/Users/dtjld/Desktop/AIoT_software/LiteOS_Lab_overseas/LiteOS_Lab/iot_link/network/lwm2m/wakaama_lwm2m/core\internals.h **** 
 347:C:/Users/dtjld/Desktop/AIoT_software/LiteOS_Lab_overseas/LiteOS_Lab/iot_link/network/lwm2m/wakaama_lwm2m/core\internals.h **** 
 348:C:/Users/dtjld/Desktop/AIoT_software/LiteOS_Lab_overseas/LiteOS_Lab/iot_link/network/lwm2m/wakaama_lwm2m/core\internals.h **** // defined in tlv.c
 349:C:/Users/dtjld/Desktop/AIoT_software/LiteOS_Lab_overseas/LiteOS_Lab/iot_link/network/lwm2m/wakaama_lwm2m/core\internals.h **** int tlv_parse(uint8_t * buffer, size_t bufferLen, lwm2m_data_t ** dataP);
 350:C:/Users/dtjld/Desktop/AIoT_software/LiteOS_Lab_overseas/LiteOS_Lab/iot_link/network/lwm2m/wakaama_lwm2m/core\internals.h **** int tlv_serialize(bool isResourceInstance, int size, lwm2m_data_t * dataP, uint8_t ** bufferP);
 351:C:/Users/dtjld/Desktop/AIoT_software/LiteOS_Lab_overseas/LiteOS_Lab/iot_link/network/lwm2m/wakaama_lwm2m/core\internals.h **** 
 352:C:/Users/dtjld/Desktop/AIoT_software/LiteOS_Lab_overseas/LiteOS_Lab/iot_link/network/lwm2m/wakaama_lwm2m/core\internals.h **** // defined in json.c
 353:C:/Users/dtjld/Desktop/AIoT_software/LiteOS_Lab_overseas/LiteOS_Lab/iot_link/network/lwm2m/wakaama_lwm2m/core\internals.h **** #ifdef LWM2M_SUPPORT_JSON
 354:C:/Users/dtjld/Desktop/AIoT_software/LiteOS_Lab_overseas/LiteOS_Lab/iot_link/network/lwm2m/wakaama_lwm2m/core\internals.h **** int json_parse(lwm2m_uri_t * uriP, uint8_t * buffer, size_t bufferLen, lwm2m_data_t ** dataP);
 355:C:/Users/dtjld/Desktop/AIoT_software/LiteOS_Lab_overseas/LiteOS_Lab/iot_link/network/lwm2m/wakaama_lwm2m/core\internals.h **** int json_serialize(lwm2m_uri_t * uriP, int size, lwm2m_data_t * tlvP, uint8_t ** bufferP);
 356:C:/Users/dtjld/Desktop/AIoT_software/LiteOS_Lab_overseas/LiteOS_Lab/iot_link/network/lwm2m/wakaama_lwm2m/core\internals.h **** #endif
 357:C:/Users/dtjld/Desktop/AIoT_software/LiteOS_Lab_overseas/LiteOS_Lab/iot_link/network/lwm2m/wakaama_lwm2m/core\internals.h **** 
 358:C:/Users/dtjld/Desktop/AIoT_software/LiteOS_Lab_overseas/LiteOS_Lab/iot_link/network/lwm2m/wakaama_lwm2m/core\internals.h **** // defined in discover.c
 359:C:/Users/dtjld/Desktop/AIoT_software/LiteOS_Lab_overseas/LiteOS_Lab/iot_link/network/lwm2m/wakaama_lwm2m/core\internals.h **** int discover_serialize(lwm2m_context_t * contextP, lwm2m_uri_t * uriP, lwm2m_server_t * serverP, in
 360:C:/Users/dtjld/Desktop/AIoT_software/LiteOS_Lab_overseas/LiteOS_Lab/iot_link/network/lwm2m/wakaama_lwm2m/core\internals.h **** 
 361:C:/Users/dtjld/Desktop/AIoT_software/LiteOS_Lab_overseas/LiteOS_Lab/iot_link/network/lwm2m/wakaama_lwm2m/core\internals.h **** // defined in block1.c
 362:C:/Users/dtjld/Desktop/AIoT_software/LiteOS_Lab_overseas/LiteOS_Lab/iot_link/network/lwm2m/wakaama_lwm2m/core\internals.h **** uint8_t coap_block1_handler(lwm2m_block1_data_t ** block1Data, uint16_t mid, uint8_t * buffer, size
 363:C:/Users/dtjld/Desktop/AIoT_software/LiteOS_Lab_overseas/LiteOS_Lab/iot_link/network/lwm2m/wakaama_lwm2m/core\internals.h **** void free_block1_buffer(lwm2m_block1_data_t * block1Data);
 364:C:/Users/dtjld/Desktop/AIoT_software/LiteOS_Lab_overseas/LiteOS_Lab/iot_link/network/lwm2m/wakaama_lwm2m/core\internals.h **** 
 365:C:/Users/dtjld/Desktop/AIoT_software/LiteOS_Lab_overseas/LiteOS_Lab/iot_link/network/lwm2m/wakaama_lwm2m/core\internals.h **** // defined in utils.c
 366:C:/Users/dtjld/Desktop/AIoT_software/LiteOS_Lab_overseas/LiteOS_Lab/iot_link/network/lwm2m/wakaama_lwm2m/core\internals.h **** lwm2m_data_type_t utils_depthToDatatype(uri_depth_t depth);
 367:C:/Users/dtjld/Desktop/AIoT_software/LiteOS_Lab_overseas/LiteOS_Lab/iot_link/network/lwm2m/wakaama_lwm2m/core\internals.h **** lwm2m_binding_t utils_stringToBinding(uint8_t *buffer, size_t length);
 368:C:/Users/dtjld/Desktop/AIoT_software/LiteOS_Lab_overseas/LiteOS_Lab/iot_link/network/lwm2m/wakaama_lwm2m/core\internals.h **** lwm2m_media_type_t utils_convertMediaType(coap_content_type_t type);
 369:C:/Users/dtjld/Desktop/AIoT_software/LiteOS_Lab_overseas/LiteOS_Lab/iot_link/network/lwm2m/wakaama_lwm2m/core\internals.h **** int utils_isAltPathValid(const char * altPath);
 370:C:/Users/dtjld/Desktop/AIoT_software/LiteOS_Lab_overseas/LiteOS_Lab/iot_link/network/lwm2m/wakaama_lwm2m/core\internals.h **** int utils_stringCopy(char * buffer, size_t length, const char * str);
 371:C:/Users/dtjld/Desktop/AIoT_software/LiteOS_Lab_overseas/LiteOS_Lab/iot_link/network/lwm2m/wakaama_lwm2m/core\internals.h **** size_t utils_intToText(int64_t data, uint8_t * string, size_t length);
 372:C:/Users/dtjld/Desktop/AIoT_software/LiteOS_Lab_overseas/LiteOS_Lab/iot_link/network/lwm2m/wakaama_lwm2m/core\internals.h **** size_t utils_floatToText(double data, uint8_t * string, size_t length);
 373:C:/Users/dtjld/Desktop/AIoT_software/LiteOS_Lab_overseas/LiteOS_Lab/iot_link/network/lwm2m/wakaama_lwm2m/core\internals.h **** int utils_textToInt(uint8_t * buffer, int length, int64_t * dataP);
 374:C:/Users/dtjld/Desktop/AIoT_software/LiteOS_Lab_overseas/LiteOS_Lab/iot_link/network/lwm2m/wakaama_lwm2m/core\internals.h **** int utils_textToFloat(uint8_t * buffer, int length, double * dataP);
ARM GAS  C:\Users\dtjld\AppData\Local\Temp\ccIjCgHN.s 			page 8


 375:C:/Users/dtjld/Desktop/AIoT_software/LiteOS_Lab_overseas/LiteOS_Lab/iot_link/network/lwm2m/wakaama_lwm2m/core\internals.h **** void utils_copyValue(void * dst, const void * src, size_t len);
 376:C:/Users/dtjld/Desktop/AIoT_software/LiteOS_Lab_overseas/LiteOS_Lab/iot_link/network/lwm2m/wakaama_lwm2m/core\internals.h **** size_t utils_base64GetSize(size_t dataLen);
 377:C:/Users/dtjld/Desktop/AIoT_software/LiteOS_Lab_overseas/LiteOS_Lab/iot_link/network/lwm2m/wakaama_lwm2m/core\internals.h **** size_t utils_base64Encode(uint8_t * dataP, size_t dataLen, uint8_t * bufferP, size_t bufferLen);
 378:C:/Users/dtjld/Desktop/AIoT_software/LiteOS_Lab_overseas/LiteOS_Lab/iot_link/network/lwm2m/wakaama_lwm2m/core\internals.h **** #ifdef LWM2M_CLIENT_MODE
 379:C:/Users/dtjld/Desktop/AIoT_software/LiteOS_Lab_overseas/LiteOS_Lab/iot_link/network/lwm2m/wakaama_lwm2m/core\internals.h **** lwm2m_server_t * utils_findServer(lwm2m_context_t * contextP, void * fromSessionH);
 380:C:/Users/dtjld/Desktop/AIoT_software/LiteOS_Lab_overseas/LiteOS_Lab/iot_link/network/lwm2m/wakaama_lwm2m/core\internals.h **** lwm2m_server_t * utils_findBootstrapServer(lwm2m_context_t * contextP, void * fromSessionH);
 381:C:/Users/dtjld/Desktop/AIoT_software/LiteOS_Lab_overseas/LiteOS_Lab/iot_link/network/lwm2m/wakaama_lwm2m/core\internals.h **** #endif
 382:C:/Users/dtjld/Desktop/AIoT_software/LiteOS_Lab_overseas/LiteOS_Lab/iot_link/network/lwm2m/wakaama_lwm2m/core\internals.h **** static inline int dm_isUriOpaqueHandle(const lwm2m_uri_t * uriP)
 383:C:/Users/dtjld/Desktop/AIoT_software/LiteOS_Lab_overseas/LiteOS_Lab/iot_link/network/lwm2m/wakaama_lwm2m/core\internals.h **** {
  27              		.loc 1 383 0
  28              		.cfi_startproc
  29              		@ args = 0, pretend = 0, frame = 8
  30              		@ frame_needed = 1, uses_anonymous_args = 0
  31              		@ link register save eliminated.
  32 0000 80B4     		push	{r7}
  33              	.LCFI0:
  34              		.cfi_def_cfa_offset 4
  35              		.cfi_offset 7, -4
  36 0002 83B0     		sub	sp, sp, #12
  37              	.LCFI1:
  38              		.cfi_def_cfa_offset 16
  39 0004 00AF     		add	r7, sp, #0
  40              	.LCFI2:
  41              		.cfi_def_cfa_register 7
  42 0006 7860     		str	r0, [r7, #4]
 384:C:/Users/dtjld/Desktop/AIoT_software/LiteOS_Lab_overseas/LiteOS_Lab/iot_link/network/lwm2m/wakaama_lwm2m/core\internals.h ****     return (19 == uriP->objectId);
  43              		.loc 1 384 0
  44 0008 7B68     		ldr	r3, [r7, #4]
  45 000a 5B88     		ldrh	r3, [r3, #2]
  46 000c 132B     		cmp	r3, #19
  47 000e 0CBF     		ite	eq
  48 0010 0123     		moveq	r3, #1
  49 0012 0023     		movne	r3, #0
  50 0014 DBB2     		uxtb	r3, r3
 385:C:/Users/dtjld/Desktop/AIoT_software/LiteOS_Lab_overseas/LiteOS_Lab/iot_link/network/lwm2m/wakaama_lwm2m/core\internals.h **** }
  51              		.loc 1 385 0
  52 0016 1846     		mov	r0, r3
  53 0018 0C37     		adds	r7, r7, #12
  54              	.LCFI3:
  55              		.cfi_def_cfa_offset 4
  56 001a BD46     		mov	sp, r7
  57              	.LCFI4:
  58              		.cfi_def_cfa_register 13
  59              		@ sp needed
  60 001c 5DF8047B 		ldr	r7, [sp], #4
  61              	.LCFI5:
  62              		.cfi_restore 7
  63              		.cfi_def_cfa_offset 0
  64 0020 7047     		bx	lr
  65              		.cfi_endproc
  66              	.LFE3:
  68              		.section	.text.get_resource_uri,"ax",%progbits
  69              		.align	1
  70              		.syntax unified
  71              		.thumb
  72              		.thumb_func
  73              		.fpu fpv4-sp-d16
ARM GAS  C:\Users\dtjld\AppData\Local\Temp\ccIjCgHN.s 			page 9


  75              	get_resource_uri:
  76              	.LFB13:
  77              		.file 2 "C:/Users/dtjld/Desktop/AIoT_software/LiteOS_Lab_overseas/LiteOS_Lab/iot_link/oc/oc_lwm2m/
   1:C:/Users/dtjld/Desktop/AIoT_software/LiteOS_Lab_overseas/LiteOS_Lab/iot_link/oc/oc_lwm2m/atiny_lwm2m\atiny_rpt.h **** /*----------------------------------------------------------------------------
   2:C:/Users/dtjld/Desktop/AIoT_software/LiteOS_Lab_overseas/LiteOS_Lab/iot_link/oc/oc_lwm2m/atiny_lwm2m\atiny_rpt.h ****  * Copyright (c) <2016-2018>, <Huawei Technologies Co., Ltd>
   3:C:/Users/dtjld/Desktop/AIoT_software/LiteOS_Lab_overseas/LiteOS_Lab/iot_link/oc/oc_lwm2m/atiny_lwm2m\atiny_rpt.h ****  * All rights reserved.
   4:C:/Users/dtjld/Desktop/AIoT_software/LiteOS_Lab_overseas/LiteOS_Lab/iot_link/oc/oc_lwm2m/atiny_lwm2m\atiny_rpt.h ****  * Redistribution and use in source and binary forms, with or without modification,
   5:C:/Users/dtjld/Desktop/AIoT_software/LiteOS_Lab_overseas/LiteOS_Lab/iot_link/oc/oc_lwm2m/atiny_lwm2m\atiny_rpt.h ****  * are permitted provided that the following conditions are met:
   6:C:/Users/dtjld/Desktop/AIoT_software/LiteOS_Lab_overseas/LiteOS_Lab/iot_link/oc/oc_lwm2m/atiny_lwm2m\atiny_rpt.h ****  * 1. Redistributions of source code must retain the above copyright notice, this list of
   7:C:/Users/dtjld/Desktop/AIoT_software/LiteOS_Lab_overseas/LiteOS_Lab/iot_link/oc/oc_lwm2m/atiny_lwm2m\atiny_rpt.h ****  * conditions and the following disclaimer.
   8:C:/Users/dtjld/Desktop/AIoT_software/LiteOS_Lab_overseas/LiteOS_Lab/iot_link/oc/oc_lwm2m/atiny_lwm2m\atiny_rpt.h ****  * 2. Redistributions in binary form must reproduce the above copyright notice, this list
   9:C:/Users/dtjld/Desktop/AIoT_software/LiteOS_Lab_overseas/LiteOS_Lab/iot_link/oc/oc_lwm2m/atiny_lwm2m\atiny_rpt.h ****  * of conditions and the following disclaimer in the documentation and/or other materials
  10:C:/Users/dtjld/Desktop/AIoT_software/LiteOS_Lab_overseas/LiteOS_Lab/iot_link/oc/oc_lwm2m/atiny_lwm2m\atiny_rpt.h ****  * provided with the distribution.
  11:C:/Users/dtjld/Desktop/AIoT_software/LiteOS_Lab_overseas/LiteOS_Lab/iot_link/oc/oc_lwm2m/atiny_lwm2m\atiny_rpt.h ****  * 3. Neither the name of the copyright holder nor the names of its contributors may be used
  12:C:/Users/dtjld/Desktop/AIoT_software/LiteOS_Lab_overseas/LiteOS_Lab/iot_link/oc/oc_lwm2m/atiny_lwm2m\atiny_rpt.h ****  * to endorse or promote products derived from this software without specific prior written
  13:C:/Users/dtjld/Desktop/AIoT_software/LiteOS_Lab_overseas/LiteOS_Lab/iot_link/oc/oc_lwm2m/atiny_lwm2m\atiny_rpt.h ****  * permission.
  14:C:/Users/dtjld/Desktop/AIoT_software/LiteOS_Lab_overseas/LiteOS_Lab/iot_link/oc/oc_lwm2m/atiny_lwm2m\atiny_rpt.h ****  * THIS SOFTWARE IS PROVIDED BY THE COPYRIGHT HOLDERS AND CONTRIBUTORS
  15:C:/Users/dtjld/Desktop/AIoT_software/LiteOS_Lab_overseas/LiteOS_Lab/iot_link/oc/oc_lwm2m/atiny_lwm2m\atiny_rpt.h ****  * "AS IS" AND ANY EXPRESS OR IMPLIED WARRANTIES, INCLUDING, BUT NOT LIMITED TO,
  16:C:/Users/dtjld/Desktop/AIoT_software/LiteOS_Lab_overseas/LiteOS_Lab/iot_link/oc/oc_lwm2m/atiny_lwm2m\atiny_rpt.h ****  * THE IMPLIED WARRANTIES OF MERCHANTABILITY AND FITNESS FOR A PARTICULAR
  17:C:/Users/dtjld/Desktop/AIoT_software/LiteOS_Lab_overseas/LiteOS_Lab/iot_link/oc/oc_lwm2m/atiny_lwm2m\atiny_rpt.h ****  * PURPOSE ARE DISCLAIMED. IN NO EVENT SHALL THE COPYRIGHT HOLDER OR
  18:C:/Users/dtjld/Desktop/AIoT_software/LiteOS_Lab_overseas/LiteOS_Lab/iot_link/oc/oc_lwm2m/atiny_lwm2m\atiny_rpt.h ****  * CONTRIBUTORS BE LIABLE FOR ANY DIRECT, INDIRECT, INCIDENTAL, SPECIAL,
  19:C:/Users/dtjld/Desktop/AIoT_software/LiteOS_Lab_overseas/LiteOS_Lab/iot_link/oc/oc_lwm2m/atiny_lwm2m\atiny_rpt.h ****  * EXEMPLARY, OR CONSEQUENTIAL DAMAGES (INCLUDING, BUT NOT LIMITED TO,
  20:C:/Users/dtjld/Desktop/AIoT_software/LiteOS_Lab_overseas/LiteOS_Lab/iot_link/oc/oc_lwm2m/atiny_lwm2m\atiny_rpt.h ****  * PROCUREMENT OF SUBSTITUTE GOODS OR SERVICES; LOSS OF USE, DATA, OR PROFITS;
  21:C:/Users/dtjld/Desktop/AIoT_software/LiteOS_Lab_overseas/LiteOS_Lab/iot_link/oc/oc_lwm2m/atiny_lwm2m\atiny_rpt.h ****  * OR BUSINESS INTERRUPTION) HOWEVER CAUSED AND ON ANY THEORY OF LIABILITY,
  22:C:/Users/dtjld/Desktop/AIoT_software/LiteOS_Lab_overseas/LiteOS_Lab/iot_link/oc/oc_lwm2m/atiny_lwm2m\atiny_rpt.h ****  * WHETHER IN CONTRACT, STRICT LIABILITY, OR TORT (INCLUDING NEGLIGENCE OR
  23:C:/Users/dtjld/Desktop/AIoT_software/LiteOS_Lab_overseas/LiteOS_Lab/iot_link/oc/oc_lwm2m/atiny_lwm2m\atiny_rpt.h ****  * OTHERWISE) ARISING IN ANY WAY OUT OF THE USE OF THIS SOFTWARE, EVEN IF
  24:C:/Users/dtjld/Desktop/AIoT_software/LiteOS_Lab_overseas/LiteOS_Lab/iot_link/oc/oc_lwm2m/atiny_lwm2m\atiny_rpt.h ****  * ADVISED OF THE POSSIBILITY OF SUCH DAMAGE.
  25:C:/Users/dtjld/Desktop/AIoT_software/LiteOS_Lab_overseas/LiteOS_Lab/iot_link/oc/oc_lwm2m/atiny_lwm2m\atiny_rpt.h ****  *---------------------------------------------------------------------------*/
  26:C:/Users/dtjld/Desktop/AIoT_software/LiteOS_Lab_overseas/LiteOS_Lab/iot_link/oc/oc_lwm2m/atiny_lwm2m\atiny_rpt.h **** /*----------------------------------------------------------------------------
  27:C:/Users/dtjld/Desktop/AIoT_software/LiteOS_Lab_overseas/LiteOS_Lab/iot_link/oc/oc_lwm2m/atiny_lwm2m\atiny_rpt.h ****  * Notice of Export Control Law
  28:C:/Users/dtjld/Desktop/AIoT_software/LiteOS_Lab_overseas/LiteOS_Lab/iot_link/oc/oc_lwm2m/atiny_lwm2m\atiny_rpt.h ****  * ===============================================
  29:C:/Users/dtjld/Desktop/AIoT_software/LiteOS_Lab_overseas/LiteOS_Lab/iot_link/oc/oc_lwm2m/atiny_lwm2m\atiny_rpt.h ****  * Huawei LiteOS may be subject to applicable export control laws and regulations, which might
  30:C:/Users/dtjld/Desktop/AIoT_software/LiteOS_Lab_overseas/LiteOS_Lab/iot_link/oc/oc_lwm2m/atiny_lwm2m\atiny_rpt.h ****  * include those applicable to Huawei LiteOS of U.S. and the country in which you are located.
  31:C:/Users/dtjld/Desktop/AIoT_software/LiteOS_Lab_overseas/LiteOS_Lab/iot_link/oc/oc_lwm2m/atiny_lwm2m\atiny_rpt.h ****  * Import, export and usage of Huawei LiteOS in any manner by you shall be in compliance with such
  32:C:/Users/dtjld/Desktop/AIoT_software/LiteOS_Lab_overseas/LiteOS_Lab/iot_link/oc/oc_lwm2m/atiny_lwm2m\atiny_rpt.h ****  * applicable export control laws and regulations.
  33:C:/Users/dtjld/Desktop/AIoT_software/LiteOS_Lab_overseas/LiteOS_Lab/iot_link/oc/oc_lwm2m/atiny_lwm2m\atiny_rpt.h ****  *---------------------------------------------------------------------------*/
  34:C:/Users/dtjld/Desktop/AIoT_software/LiteOS_Lab_overseas/LiteOS_Lab/iot_link/oc/oc_lwm2m/atiny_lwm2m\atiny_rpt.h **** 
  35:C:/Users/dtjld/Desktop/AIoT_software/LiteOS_Lab_overseas/LiteOS_Lab/iot_link/oc/oc_lwm2m/atiny_lwm2m\atiny_rpt.h **** #ifndef ATINY_RPT_H
  36:C:/Users/dtjld/Desktop/AIoT_software/LiteOS_Lab_overseas/LiteOS_Lab/iot_link/oc/oc_lwm2m/atiny_lwm2m\atiny_rpt.h **** #define ATINY_RPT_H
  37:C:/Users/dtjld/Desktop/AIoT_software/LiteOS_Lab_overseas/LiteOS_Lab/iot_link/oc/oc_lwm2m/atiny_lwm2m\atiny_rpt.h **** #include <agenttiny.h>
  38:C:/Users/dtjld/Desktop/AIoT_software/LiteOS_Lab_overseas/LiteOS_Lab/iot_link/oc/oc_lwm2m/atiny_lwm2m\atiny_rpt.h **** #include "agent_list.h"
  39:C:/Users/dtjld/Desktop/AIoT_software/LiteOS_Lab_overseas/LiteOS_Lab/iot_link/oc/oc_lwm2m/atiny_lwm2m\atiny_rpt.h **** 
  40:C:/Users/dtjld/Desktop/AIoT_software/LiteOS_Lab_overseas/LiteOS_Lab/iot_link/oc/oc_lwm2m/atiny_lwm2m\atiny_rpt.h **** #ifdef __cplusplus
  41:C:/Users/dtjld/Desktop/AIoT_software/LiteOS_Lab_overseas/LiteOS_Lab/iot_link/oc/oc_lwm2m/atiny_lwm2m\atiny_rpt.h **** extern "C" {
  42:C:/Users/dtjld/Desktop/AIoT_software/LiteOS_Lab_overseas/LiteOS_Lab/iot_link/oc/oc_lwm2m/atiny_lwm2m\atiny_rpt.h **** #endif
  43:C:/Users/dtjld/Desktop/AIoT_software/LiteOS_Lab_overseas/LiteOS_Lab/iot_link/oc/oc_lwm2m/atiny_lwm2m\atiny_rpt.h **** 
  44:C:/Users/dtjld/Desktop/AIoT_software/LiteOS_Lab_overseas/LiteOS_Lab/iot_link/oc/oc_lwm2m/atiny_lwm2m\atiny_rpt.h **** #define URI_FORMAT "uri(flag:0x%x, objId:%d, instId:%d, resId:%d)"
  45:C:/Users/dtjld/Desktop/AIoT_software/LiteOS_Lab_overseas/LiteOS_Lab/iot_link/oc/oc_lwm2m/atiny_lwm2m\atiny_rpt.h **** #define URI_LOG_PARAM(uri) (uri)->flag, (uri)->objectId, (uri)->instanceId, (uri)->resourceId
  46:C:/Users/dtjld/Desktop/AIoT_software/LiteOS_Lab_overseas/LiteOS_Lab/iot_link/oc/oc_lwm2m/atiny_lwm2m\atiny_rpt.h **** 
  47:C:/Users/dtjld/Desktop/AIoT_software/LiteOS_Lab_overseas/LiteOS_Lab/iot_link/oc/oc_lwm2m/atiny_lwm2m\atiny_rpt.h **** ATINY_INLINE void get_instance_uri(uint16_t object_id, uint16_t instance_id, lwm2m_uri_t* uri)
  48:C:/Users/dtjld/Desktop/AIoT_software/LiteOS_Lab_overseas/LiteOS_Lab/iot_link/oc/oc_lwm2m/atiny_lwm2m\atiny_rpt.h **** {
  49:C:/Users/dtjld/Desktop/AIoT_software/LiteOS_Lab_overseas/LiteOS_Lab/iot_link/oc/oc_lwm2m/atiny_lwm2m\atiny_rpt.h ****     if (uri == NULL)
  50:C:/Users/dtjld/Desktop/AIoT_software/LiteOS_Lab_overseas/LiteOS_Lab/iot_link/oc/oc_lwm2m/atiny_lwm2m\atiny_rpt.h ****     {
  51:C:/Users/dtjld/Desktop/AIoT_software/LiteOS_Lab_overseas/LiteOS_Lab/iot_link/oc/oc_lwm2m/atiny_lwm2m\atiny_rpt.h ****         return;
  52:C:/Users/dtjld/Desktop/AIoT_software/LiteOS_Lab_overseas/LiteOS_Lab/iot_link/oc/oc_lwm2m/atiny_lwm2m\atiny_rpt.h ****     }
  53:C:/Users/dtjld/Desktop/AIoT_software/LiteOS_Lab_overseas/LiteOS_Lab/iot_link/oc/oc_lwm2m/atiny_lwm2m\atiny_rpt.h ****     uri->flag = LWM2M_URI_FLAG_OBJECT_ID | LWM2M_URI_FLAG_INSTANCE_ID;
  54:C:/Users/dtjld/Desktop/AIoT_software/LiteOS_Lab_overseas/LiteOS_Lab/iot_link/oc/oc_lwm2m/atiny_lwm2m\atiny_rpt.h ****     uri->objectId = object_id;
ARM GAS  C:\Users\dtjld\AppData\Local\Temp\ccIjCgHN.s 			page 10


  55:C:/Users/dtjld/Desktop/AIoT_software/LiteOS_Lab_overseas/LiteOS_Lab/iot_link/oc/oc_lwm2m/atiny_lwm2m\atiny_rpt.h ****     uri->instanceId = instance_id;
  56:C:/Users/dtjld/Desktop/AIoT_software/LiteOS_Lab_overseas/LiteOS_Lab/iot_link/oc/oc_lwm2m/atiny_lwm2m\atiny_rpt.h ****     uri->resourceId = 0;
  57:C:/Users/dtjld/Desktop/AIoT_software/LiteOS_Lab_overseas/LiteOS_Lab/iot_link/oc/oc_lwm2m/atiny_lwm2m\atiny_rpt.h **** }
  58:C:/Users/dtjld/Desktop/AIoT_software/LiteOS_Lab_overseas/LiteOS_Lab/iot_link/oc/oc_lwm2m/atiny_lwm2m\atiny_rpt.h **** 
  59:C:/Users/dtjld/Desktop/AIoT_software/LiteOS_Lab_overseas/LiteOS_Lab/iot_link/oc/oc_lwm2m/atiny_lwm2m\atiny_rpt.h **** ATINY_INLINE void get_resource_uri(uint16_t object_id, uint16_t instance_id, uint16_t resource_id, 
  60:C:/Users/dtjld/Desktop/AIoT_software/LiteOS_Lab_overseas/LiteOS_Lab/iot_link/oc/oc_lwm2m/atiny_lwm2m\atiny_rpt.h **** {
  78              		.loc 2 60 0
  79              		.cfi_startproc
  80              		@ args = 0, pretend = 0, frame = 16
  81              		@ frame_needed = 1, uses_anonymous_args = 0
  82              		@ link register save eliminated.
  83 0000 80B4     		push	{r7}
  84              	.LCFI6:
  85              		.cfi_def_cfa_offset 4
  86              		.cfi_offset 7, -4
  87 0002 85B0     		sub	sp, sp, #20
  88              	.LCFI7:
  89              		.cfi_def_cfa_offset 24
  90 0004 00AF     		add	r7, sp, #0
  91              	.LCFI8:
  92              		.cfi_def_cfa_register 7
  93 0006 7B60     		str	r3, [r7, #4]
  94 0008 0346     		mov	r3, r0	@ movhi
  95 000a FB81     		strh	r3, [r7, #14]	@ movhi
  96 000c 0B46     		mov	r3, r1	@ movhi
  97 000e BB81     		strh	r3, [r7, #12]	@ movhi
  98 0010 1346     		mov	r3, r2	@ movhi
  99 0012 7B81     		strh	r3, [r7, #10]	@ movhi
  61:C:/Users/dtjld/Desktop/AIoT_software/LiteOS_Lab_overseas/LiteOS_Lab/iot_link/oc/oc_lwm2m/atiny_lwm2m\atiny_rpt.h ****     if (uri == NULL)
 100              		.loc 2 61 0
 101 0014 7B68     		ldr	r3, [r7, #4]
 102 0016 002B     		cmp	r3, #0
 103 0018 0CD0     		beq	.L6
  62:C:/Users/dtjld/Desktop/AIoT_software/LiteOS_Lab_overseas/LiteOS_Lab/iot_link/oc/oc_lwm2m/atiny_lwm2m\atiny_rpt.h ****     {
  63:C:/Users/dtjld/Desktop/AIoT_software/LiteOS_Lab_overseas/LiteOS_Lab/iot_link/oc/oc_lwm2m/atiny_lwm2m\atiny_rpt.h ****         return;
  64:C:/Users/dtjld/Desktop/AIoT_software/LiteOS_Lab_overseas/LiteOS_Lab/iot_link/oc/oc_lwm2m/atiny_lwm2m\atiny_rpt.h ****     }
  65:C:/Users/dtjld/Desktop/AIoT_software/LiteOS_Lab_overseas/LiteOS_Lab/iot_link/oc/oc_lwm2m/atiny_lwm2m\atiny_rpt.h ****     uri->flag = LWM2M_URI_FLAG_OBJECT_ID | LWM2M_URI_FLAG_INSTANCE_ID | LWM2M_URI_FLAG_RESOURCE_ID;
 104              		.loc 2 65 0
 105 001a 7B68     		ldr	r3, [r7, #4]
 106 001c 0722     		movs	r2, #7
 107 001e 1A70     		strb	r2, [r3]
  66:C:/Users/dtjld/Desktop/AIoT_software/LiteOS_Lab_overseas/LiteOS_Lab/iot_link/oc/oc_lwm2m/atiny_lwm2m\atiny_rpt.h ****     uri->objectId = object_id;
 108              		.loc 2 66 0
 109 0020 7B68     		ldr	r3, [r7, #4]
 110 0022 FA89     		ldrh	r2, [r7, #14]	@ movhi
 111 0024 5A80     		strh	r2, [r3, #2]	@ movhi
  67:C:/Users/dtjld/Desktop/AIoT_software/LiteOS_Lab_overseas/LiteOS_Lab/iot_link/oc/oc_lwm2m/atiny_lwm2m\atiny_rpt.h ****     uri->instanceId = instance_id;
 112              		.loc 2 67 0
 113 0026 7B68     		ldr	r3, [r7, #4]
 114 0028 BA89     		ldrh	r2, [r7, #12]	@ movhi
 115 002a 9A80     		strh	r2, [r3, #4]	@ movhi
  68:C:/Users/dtjld/Desktop/AIoT_software/LiteOS_Lab_overseas/LiteOS_Lab/iot_link/oc/oc_lwm2m/atiny_lwm2m\atiny_rpt.h ****     uri->resourceId = resource_id;
 116              		.loc 2 68 0
 117 002c 7B68     		ldr	r3, [r7, #4]
 118 002e 7A89     		ldrh	r2, [r7, #10]	@ movhi
 119 0030 DA80     		strh	r2, [r3, #6]	@ movhi
 120 0032 00E0     		b	.L3
ARM GAS  C:\Users\dtjld\AppData\Local\Temp\ccIjCgHN.s 			page 11


 121              	.L6:
  63:C:/Users/dtjld/Desktop/AIoT_software/LiteOS_Lab_overseas/LiteOS_Lab/iot_link/oc/oc_lwm2m/atiny_lwm2m\atiny_rpt.h ****     }
 122              		.loc 2 63 0
 123 0034 00BF     		nop
 124              	.L3:
  69:C:/Users/dtjld/Desktop/AIoT_software/LiteOS_Lab_overseas/LiteOS_Lab/iot_link/oc/oc_lwm2m/atiny_lwm2m\atiny_rpt.h **** }
 125              		.loc 2 69 0
 126 0036 1437     		adds	r7, r7, #20
 127              	.LCFI9:
 128              		.cfi_def_cfa_offset 4
 129 0038 BD46     		mov	sp, r7
 130              	.LCFI10:
 131              		.cfi_def_cfa_register 13
 132              		@ sp needed
 133 003a 5DF8047B 		ldr	r7, [sp], #4
 134              	.LCFI11:
 135              		.cfi_restore 7
 136              		.cfi_def_cfa_offset 0
 137 003e 7047     		bx	lr
 138              		.cfi_endproc
 139              	.LFE13:
 141              		.global	g_reboot
 142              		.section	.bss.g_reboot,"aw",%nobits
 143              		.align	2
 146              	g_reboot:
 147 0000 00000000 		.space	4
 148              		.section	.bss.g_atiny_handle,"aw",%nobits
 149              		.align	2
 152              	g_atiny_handle:
 153 0000 00000000 		.space	136
 153      00000000 
 153      00000000 
 153      00000000 
 153      00000000 
 154              		.section	.rodata
 155              		.align	2
 156              	.LC0:
 157 0000 5B25645D 		.ascii	"[%d][%s:%d] [bootstrap_tag]: BOOTSTRAP_FACTORY mode"
 157      5B25733A 
 157      25645D20 
 157      5B626F6F 
 157      74737472 
 158 0033 27732070 		.ascii	"'s params is wrong, should have iot server ip/port\015"
 158      6172616D 
 158      73206973 
 158      2077726F 
 158      6E672C20 
 159 0066 0A00     		.ascii	"\012\000"
 160              		.align	2
 161              	.LC1:
 162 0068 5B25645D 		.ascii	"[%d][%s:%d] [bootstrap_tag]: BOOTSTRAP_CLIENT_INITI"
 162      5B25733A 
 162      25645D20 
 162      5B626F6F 
 162      74737472 
 163 009b 41544544 		.ascii	"ATED mode's params is wrong, should have bootstrap "
 163      206D6F64 
ARM GAS  C:\Users\dtjld\AppData\Local\Temp\ccIjCgHN.s 			page 12


 163      65277320 
 163      70617261 
 163      6D732069 
 164 00ce 73657276 		.ascii	"server ip/port\015\012\000"
 164      65722069 
 164      702F706F 
 164      72740D0A 
 164      00
 165 00df 00       		.align	2
 166              	.LC2:
 167 00e0 5B25645D 		.ascii	"[%d][%s:%d] [bootstrap_tag]: BOOTSTRAP only have th"
 167      5B25733A 
 167      25645D20 
 167      5B626F6F 
 167      74737472 
 168 0113 72656520 		.ascii	"ree mode, should been :0,1,2\015\012\000"
 168      6D6F6465 
 168      2C207368 
 168      6F756C64 
 168      20626565 
 169              		.section	.text.atiny_check_bootstrap_init_param,"ax",%progbits
 170              		.align	1
 171              		.syntax unified
 172              		.thumb
 173              		.thumb_func
 174              		.fpu fpv4-sp-d16
 176              	atiny_check_bootstrap_init_param:
 177              	.LFB14:
 178              		.file 3 "C:/Users/dtjld/Desktop/AIoT_software/LiteOS_Lab_overseas/LiteOS_Lab/iot_link/oc/oc_lwm2m/
   1:C:/Users/dtjld/Desktop/AIoT_software/LiteOS_Lab_overseas/LiteOS_Lab/iot_link/oc/oc_lwm2m/atiny_lwm2m\agenttiny.c **** /*----------------------------------------------------------------------------
   2:C:/Users/dtjld/Desktop/AIoT_software/LiteOS_Lab_overseas/LiteOS_Lab/iot_link/oc/oc_lwm2m/atiny_lwm2m\agenttiny.c ****  * Copyright (c) <2016-2018>, <Huawei Technologies Co., Ltd>
   3:C:/Users/dtjld/Desktop/AIoT_software/LiteOS_Lab_overseas/LiteOS_Lab/iot_link/oc/oc_lwm2m/atiny_lwm2m\agenttiny.c ****  * All rights reserved.
   4:C:/Users/dtjld/Desktop/AIoT_software/LiteOS_Lab_overseas/LiteOS_Lab/iot_link/oc/oc_lwm2m/atiny_lwm2m\agenttiny.c ****  * Redistribution and use in source and binary forms, with or without modification,
   5:C:/Users/dtjld/Desktop/AIoT_software/LiteOS_Lab_overseas/LiteOS_Lab/iot_link/oc/oc_lwm2m/atiny_lwm2m\agenttiny.c ****  * are permitted provided that the following conditions are met:
   6:C:/Users/dtjld/Desktop/AIoT_software/LiteOS_Lab_overseas/LiteOS_Lab/iot_link/oc/oc_lwm2m/atiny_lwm2m\agenttiny.c ****  * 1. Redistributions of source code must retain the above copyright notice, this list of
   7:C:/Users/dtjld/Desktop/AIoT_software/LiteOS_Lab_overseas/LiteOS_Lab/iot_link/oc/oc_lwm2m/atiny_lwm2m\agenttiny.c ****  * conditions and the following disclaimer.
   8:C:/Users/dtjld/Desktop/AIoT_software/LiteOS_Lab_overseas/LiteOS_Lab/iot_link/oc/oc_lwm2m/atiny_lwm2m\agenttiny.c ****  * 2. Redistributions in binary form must reproduce the above copyright notice, this list
   9:C:/Users/dtjld/Desktop/AIoT_software/LiteOS_Lab_overseas/LiteOS_Lab/iot_link/oc/oc_lwm2m/atiny_lwm2m\agenttiny.c ****  * of conditions and the following disclaimer in the documentation and/or other materials
  10:C:/Users/dtjld/Desktop/AIoT_software/LiteOS_Lab_overseas/LiteOS_Lab/iot_link/oc/oc_lwm2m/atiny_lwm2m\agenttiny.c ****  * provided with the distribution.
  11:C:/Users/dtjld/Desktop/AIoT_software/LiteOS_Lab_overseas/LiteOS_Lab/iot_link/oc/oc_lwm2m/atiny_lwm2m\agenttiny.c ****  * 3. Neither the name of the copyright holder nor the names of its contributors may be used
  12:C:/Users/dtjld/Desktop/AIoT_software/LiteOS_Lab_overseas/LiteOS_Lab/iot_link/oc/oc_lwm2m/atiny_lwm2m\agenttiny.c ****  * to endorse or promote products derived from this software without specific prior written
  13:C:/Users/dtjld/Desktop/AIoT_software/LiteOS_Lab_overseas/LiteOS_Lab/iot_link/oc/oc_lwm2m/atiny_lwm2m\agenttiny.c ****  * permission.
  14:C:/Users/dtjld/Desktop/AIoT_software/LiteOS_Lab_overseas/LiteOS_Lab/iot_link/oc/oc_lwm2m/atiny_lwm2m\agenttiny.c ****  * THIS SOFTWARE IS PROVIDED BY THE COPYRIGHT HOLDERS AND CONTRIBUTORS
  15:C:/Users/dtjld/Desktop/AIoT_software/LiteOS_Lab_overseas/LiteOS_Lab/iot_link/oc/oc_lwm2m/atiny_lwm2m\agenttiny.c ****  * "AS IS" AND ANY EXPRESS OR IMPLIED WARRANTIES, INCLUDING, BUT NOT LIMITED TO,
  16:C:/Users/dtjld/Desktop/AIoT_software/LiteOS_Lab_overseas/LiteOS_Lab/iot_link/oc/oc_lwm2m/atiny_lwm2m\agenttiny.c ****  * THE IMPLIED WARRANTIES OF MERCHANTABILITY AND FITNESS FOR A PARTICULAR
  17:C:/Users/dtjld/Desktop/AIoT_software/LiteOS_Lab_overseas/LiteOS_Lab/iot_link/oc/oc_lwm2m/atiny_lwm2m\agenttiny.c ****  * PURPOSE ARE DISCLAIMED. IN NO EVENT SHALL THE COPYRIGHT HOLDER OR
  18:C:/Users/dtjld/Desktop/AIoT_software/LiteOS_Lab_overseas/LiteOS_Lab/iot_link/oc/oc_lwm2m/atiny_lwm2m\agenttiny.c ****  * CONTRIBUTORS BE LIABLE FOR ANY DIRECT, INDIRECT, INCIDENTAL, SPECIAL,
  19:C:/Users/dtjld/Desktop/AIoT_software/LiteOS_Lab_overseas/LiteOS_Lab/iot_link/oc/oc_lwm2m/atiny_lwm2m\agenttiny.c ****  * EXEMPLARY, OR CONSEQUENTIAL DAMAGES (INCLUDING, BUT NOT LIMITED TO,
  20:C:/Users/dtjld/Desktop/AIoT_software/LiteOS_Lab_overseas/LiteOS_Lab/iot_link/oc/oc_lwm2m/atiny_lwm2m\agenttiny.c ****  * PROCUREMENT OF SUBSTITUTE GOODS OR SERVICES; LOSS OF USE, DATA, OR PROFITS;
  21:C:/Users/dtjld/Desktop/AIoT_software/LiteOS_Lab_overseas/LiteOS_Lab/iot_link/oc/oc_lwm2m/atiny_lwm2m\agenttiny.c ****  * OR BUSINESS INTERRUPTION) HOWEVER CAUSED AND ON ANY THEORY OF LIABILITY,
  22:C:/Users/dtjld/Desktop/AIoT_software/LiteOS_Lab_overseas/LiteOS_Lab/iot_link/oc/oc_lwm2m/atiny_lwm2m\agenttiny.c ****  * WHETHER IN CONTRACT, STRICT LIABILITY, OR TORT (INCLUDING NEGLIGENCE OR
  23:C:/Users/dtjld/Desktop/AIoT_software/LiteOS_Lab_overseas/LiteOS_Lab/iot_link/oc/oc_lwm2m/atiny_lwm2m\agenttiny.c ****  * OTHERWISE) ARISING IN ANY WAY OUT OF THE USE OF THIS SOFTWARE, EVEN IF
  24:C:/Users/dtjld/Desktop/AIoT_software/LiteOS_Lab_overseas/LiteOS_Lab/iot_link/oc/oc_lwm2m/atiny_lwm2m\agenttiny.c ****  * ADVISED OF THE POSSIBILITY OF SUCH DAMAGE.
  25:C:/Users/dtjld/Desktop/AIoT_software/LiteOS_Lab_overseas/LiteOS_Lab/iot_link/oc/oc_lwm2m/atiny_lwm2m\agenttiny.c ****  *---------------------------------------------------------------------------*/
  26:C:/Users/dtjld/Desktop/AIoT_software/LiteOS_Lab_overseas/LiteOS_Lab/iot_link/oc/oc_lwm2m/atiny_lwm2m\agenttiny.c **** /*----------------------------------------------------------------------------
  27:C:/Users/dtjld/Desktop/AIoT_software/LiteOS_Lab_overseas/LiteOS_Lab/iot_link/oc/oc_lwm2m/atiny_lwm2m\agenttiny.c ****  * Notice of Export Control Law
  28:C:/Users/dtjld/Desktop/AIoT_software/LiteOS_Lab_overseas/LiteOS_Lab/iot_link/oc/oc_lwm2m/atiny_lwm2m\agenttiny.c ****  * ===============================================
ARM GAS  C:\Users\dtjld\AppData\Local\Temp\ccIjCgHN.s 			page 13


  29:C:/Users/dtjld/Desktop/AIoT_software/LiteOS_Lab_overseas/LiteOS_Lab/iot_link/oc/oc_lwm2m/atiny_lwm2m\agenttiny.c ****  * Huawei LiteOS may be subject to applicable export control laws and regulations, which might
  30:C:/Users/dtjld/Desktop/AIoT_software/LiteOS_Lab_overseas/LiteOS_Lab/iot_link/oc/oc_lwm2m/atiny_lwm2m\agenttiny.c ****  * include those applicable to Huawei LiteOS of U.S. and the country in which you are located.
  31:C:/Users/dtjld/Desktop/AIoT_software/LiteOS_Lab_overseas/LiteOS_Lab/iot_link/oc/oc_lwm2m/atiny_lwm2m\agenttiny.c ****  * Import, export and usage of Huawei LiteOS in any manner by you shall be in compliance with such
  32:C:/Users/dtjld/Desktop/AIoT_software/LiteOS_Lab_overseas/LiteOS_Lab/iot_link/oc/oc_lwm2m/atiny_lwm2m\agenttiny.c ****  * applicable export control laws and regulations.
  33:C:/Users/dtjld/Desktop/AIoT_software/LiteOS_Lab_overseas/LiteOS_Lab/iot_link/oc/oc_lwm2m/atiny_lwm2m\agenttiny.c ****  *---------------------------------------------------------------------------*/
  34:C:/Users/dtjld/Desktop/AIoT_software/LiteOS_Lab_overseas/LiteOS_Lab/iot_link/oc/oc_lwm2m/atiny_lwm2m\agenttiny.c **** 
  35:C:/Users/dtjld/Desktop/AIoT_software/LiteOS_Lab_overseas/LiteOS_Lab/iot_link/oc/oc_lwm2m/atiny_lwm2m\agenttiny.c **** #include "internals.h"
  36:C:/Users/dtjld/Desktop/AIoT_software/LiteOS_Lab_overseas/LiteOS_Lab/iot_link/oc/oc_lwm2m/atiny_lwm2m\agenttiny.c **** #include <agenttiny.h>
  37:C:/Users/dtjld/Desktop/AIoT_software/LiteOS_Lab_overseas/LiteOS_Lab/iot_link/oc/oc_lwm2m/atiny_lwm2m\agenttiny.c **** 
  38:C:/Users/dtjld/Desktop/AIoT_software/LiteOS_Lab_overseas/LiteOS_Lab/iot_link/oc/oc_lwm2m/atiny_lwm2m\agenttiny.c **** 
  39:C:/Users/dtjld/Desktop/AIoT_software/LiteOS_Lab_overseas/LiteOS_Lab/iot_link/oc/oc_lwm2m/atiny_lwm2m\agenttiny.c **** #include <atiny_log.h>
  40:C:/Users/dtjld/Desktop/AIoT_software/LiteOS_Lab_overseas/LiteOS_Lab/iot_link/oc/oc_lwm2m/atiny_lwm2m\agenttiny.c **** #include "atiny_context.h"
  41:C:/Users/dtjld/Desktop/AIoT_software/LiteOS_Lab_overseas/LiteOS_Lab/iot_link/oc/oc_lwm2m/atiny_lwm2m\agenttiny.c **** #include "connection.h"
  42:C:/Users/dtjld/Desktop/AIoT_software/LiteOS_Lab_overseas/LiteOS_Lab/iot_link/oc/oc_lwm2m/atiny_lwm2m\agenttiny.c **** #include "atiny_rpt.h"
  43:C:/Users/dtjld/Desktop/AIoT_software/LiteOS_Lab_overseas/LiteOS_Lab/iot_link/oc/oc_lwm2m/atiny_lwm2m\agenttiny.c **** #ifdef CONFIG_FEATURE_FOTA
  44:C:/Users/dtjld/Desktop/AIoT_software/LiteOS_Lab_overseas/LiteOS_Lab/iot_link/oc/oc_lwm2m/atiny_lwm2m\agenttiny.c **** #include "atiny_fota_manager.h"
  45:C:/Users/dtjld/Desktop/AIoT_software/LiteOS_Lab_overseas/LiteOS_Lab/iot_link/oc/oc_lwm2m/atiny_lwm2m\agenttiny.c **** #endif
  46:C:/Users/dtjld/Desktop/AIoT_software/LiteOS_Lab_overseas/LiteOS_Lab/iot_link/oc/oc_lwm2m/atiny_lwm2m\agenttiny.c **** 
  47:C:/Users/dtjld/Desktop/AIoT_software/LiteOS_Lab_overseas/LiteOS_Lab/iot_link/oc/oc_lwm2m/atiny_lwm2m\agenttiny.c **** 
  48:C:/Users/dtjld/Desktop/AIoT_software/LiteOS_Lab_overseas/LiteOS_Lab/iot_link/oc/oc_lwm2m/atiny_lwm2m\agenttiny.c **** 
  49:C:/Users/dtjld/Desktop/AIoT_software/LiteOS_Lab_overseas/LiteOS_Lab/iot_link/oc/oc_lwm2m/atiny_lwm2m\agenttiny.c **** int g_reboot = 0;
  50:C:/Users/dtjld/Desktop/AIoT_software/LiteOS_Lab_overseas/LiteOS_Lab/iot_link/oc/oc_lwm2m/atiny_lwm2m\agenttiny.c **** 
  51:C:/Users/dtjld/Desktop/AIoT_software/LiteOS_Lab_overseas/LiteOS_Lab/iot_link/oc/oc_lwm2m/atiny_lwm2m\agenttiny.c **** 
  52:C:/Users/dtjld/Desktop/AIoT_software/LiteOS_Lab_overseas/LiteOS_Lab/iot_link/oc/oc_lwm2m/atiny_lwm2m\agenttiny.c **** void observe_handle_ack(lwm2m_transaction_t *transacP, void *message);
  53:C:/Users/dtjld/Desktop/AIoT_software/LiteOS_Lab_overseas/LiteOS_Lab/iot_link/oc/oc_lwm2m/atiny_lwm2m\agenttiny.c **** static int atiny_check_bootstrap_init_param(atiny_param_t *atiny_params);
  54:C:/Users/dtjld/Desktop/AIoT_software/LiteOS_Lab_overseas/LiteOS_Lab/iot_link/oc/oc_lwm2m/atiny_lwm2m\agenttiny.c **** 
  55:C:/Users/dtjld/Desktop/AIoT_software/LiteOS_Lab_overseas/LiteOS_Lab/iot_link/oc/oc_lwm2m/atiny_lwm2m\agenttiny.c **** static handle_data_t g_atiny_handle;
  56:C:/Users/dtjld/Desktop/AIoT_software/LiteOS_Lab_overseas/LiteOS_Lab/iot_link/oc/oc_lwm2m/atiny_lwm2m\agenttiny.c **** 
  57:C:/Users/dtjld/Desktop/AIoT_software/LiteOS_Lab_overseas/LiteOS_Lab/iot_link/oc/oc_lwm2m/atiny_lwm2m\agenttiny.c **** /*
  58:C:/Users/dtjld/Desktop/AIoT_software/LiteOS_Lab_overseas/LiteOS_Lab/iot_link/oc/oc_lwm2m/atiny_lwm2m\agenttiny.c ****  * modify date:   2018-06-20
  59:C:/Users/dtjld/Desktop/AIoT_software/LiteOS_Lab_overseas/LiteOS_Lab/iot_link/oc/oc_lwm2m/atiny_lwm2m\agenttiny.c ****  * description: in order to check the params for the bootstrap, expecialy for the mode and the ip/p
  60:C:/Users/dtjld/Desktop/AIoT_software/LiteOS_Lab_overseas/LiteOS_Lab/iot_link/oc/oc_lwm2m/atiny_lwm2m\agenttiny.c ****  * return:
  61:C:/Users/dtjld/Desktop/AIoT_software/LiteOS_Lab_overseas/LiteOS_Lab/iot_link/oc/oc_lwm2m/atiny_lwm2m\agenttiny.c ****  *              success: ATINY_OK
  62:C:/Users/dtjld/Desktop/AIoT_software/LiteOS_Lab_overseas/LiteOS_Lab/iot_link/oc/oc_lwm2m/atiny_lwm2m\agenttiny.c ****  *              fail:    ATINY_ARG_INVALID
  63:C:/Users/dtjld/Desktop/AIoT_software/LiteOS_Lab_overseas/LiteOS_Lab/iot_link/oc/oc_lwm2m/atiny_lwm2m\agenttiny.c ****  *
  64:C:/Users/dtjld/Desktop/AIoT_software/LiteOS_Lab_overseas/LiteOS_Lab/iot_link/oc/oc_lwm2m/atiny_lwm2m\agenttiny.c ****  */
  65:C:/Users/dtjld/Desktop/AIoT_software/LiteOS_Lab_overseas/LiteOS_Lab/iot_link/oc/oc_lwm2m/atiny_lwm2m\agenttiny.c **** static int atiny_check_bootstrap_init_param(atiny_param_t *atiny_params)
  66:C:/Users/dtjld/Desktop/AIoT_software/LiteOS_Lab_overseas/LiteOS_Lab/iot_link/oc/oc_lwm2m/atiny_lwm2m\agenttiny.c **** {
 179              		.loc 3 66 0
 180              		.cfi_startproc
 181              		@ args = 0, pretend = 0, frame = 8
 182              		@ frame_needed = 1, uses_anonymous_args = 0
 183 0000 90B5     		push	{r4, r7, lr}
 184              	.LCFI12:
 185              		.cfi_def_cfa_offset 12
 186              		.cfi_offset 4, -12
 187              		.cfi_offset 7, -8
 188              		.cfi_offset 14, -4
 189 0002 83B0     		sub	sp, sp, #12
 190              	.LCFI13:
 191              		.cfi_def_cfa_offset 24
 192 0004 00AF     		add	r7, sp, #0
 193              	.LCFI14:
 194              		.cfi_def_cfa_register 7
 195 0006 7860     		str	r0, [r7, #4]
  67:C:/Users/dtjld/Desktop/AIoT_software/LiteOS_Lab_overseas/LiteOS_Lab/iot_link/oc/oc_lwm2m/atiny_lwm2m\agenttiny.c ****     if(NULL == atiny_params)
 196              		.loc 3 67 0
ARM GAS  C:\Users\dtjld\AppData\Local\Temp\ccIjCgHN.s 			page 14


 197 0008 7B68     		ldr	r3, [r7, #4]
 198 000a 002B     		cmp	r3, #0
 199 000c 02D1     		bne	.L8
  68:C:/Users/dtjld/Desktop/AIoT_software/LiteOS_Lab_overseas/LiteOS_Lab/iot_link/oc/oc_lwm2m/atiny_lwm2m\agenttiny.c ****     {
  69:C:/Users/dtjld/Desktop/AIoT_software/LiteOS_Lab_overseas/LiteOS_Lab/iot_link/oc/oc_lwm2m/atiny_lwm2m\agenttiny.c ****         return ATINY_ARG_INVALID;
 200              		.loc 3 69 0
 201 000e 4FF0FF33 		mov	r3, #-1
 202 0012 45E0     		b	.L9
 203              	.L8:
  70:C:/Users/dtjld/Desktop/AIoT_software/LiteOS_Lab_overseas/LiteOS_Lab/iot_link/oc/oc_lwm2m/atiny_lwm2m\agenttiny.c ****     }
  71:C:/Users/dtjld/Desktop/AIoT_software/LiteOS_Lab_overseas/LiteOS_Lab/iot_link/oc/oc_lwm2m/atiny_lwm2m\agenttiny.c **** 
  72:C:/Users/dtjld/Desktop/AIoT_software/LiteOS_Lab_overseas/LiteOS_Lab/iot_link/oc/oc_lwm2m/atiny_lwm2m\agenttiny.c ****     if(BOOTSTRAP_FACTORY == atiny_params->server_params.bootstrap_mode)
 204              		.loc 3 72 0
 205 0014 7B68     		ldr	r3, [r7, #4]
 206 0016 1B7B     		ldrb	r3, [r3, #12]	@ zero_extendqisi2
 207 0018 002B     		cmp	r3, #0
 208 001a 14D1     		bne	.L10
  73:C:/Users/dtjld/Desktop/AIoT_software/LiteOS_Lab_overseas/LiteOS_Lab/iot_link/oc/oc_lwm2m/atiny_lwm2m\agenttiny.c ****     {
  74:C:/Users/dtjld/Desktop/AIoT_software/LiteOS_Lab_overseas/LiteOS_Lab/iot_link/oc/oc_lwm2m/atiny_lwm2m\agenttiny.c ****         if((NULL == atiny_params->security_params[0].server_ip) || (NULL == atiny_params->security_
 209              		.loc 3 74 0
 210 001c 7B68     		ldr	r3, [r7, #4]
 211 001e 5B69     		ldr	r3, [r3, #20]
 212 0020 002B     		cmp	r3, #0
 213 0022 03D0     		beq	.L11
 214              		.loc 3 74 0 is_stmt 0 discriminator 1
 215 0024 7B68     		ldr	r3, [r7, #4]
 216 0026 9B69     		ldr	r3, [r3, #24]
 217 0028 002B     		cmp	r3, #0
 218 002a 38D1     		bne	.L12
 219              	.L11:
  75:C:/Users/dtjld/Desktop/AIoT_software/LiteOS_Lab_overseas/LiteOS_Lab/iot_link/oc/oc_lwm2m/atiny_lwm2m\agenttiny.c ****         {
  76:C:/Users/dtjld/Desktop/AIoT_software/LiteOS_Lab_overseas/LiteOS_Lab/iot_link/oc/oc_lwm2m/atiny_lwm2m\agenttiny.c ****             LOG("[bootstrap_tag]: BOOTSTRAP_FACTORY mode's params is wrong, should have iot server 
 220              		.loc 3 76 0 is_stmt 1
 221 002c FFF7FEFF 		bl	lwm2m_gettime
 222 0030 0346     		mov	r3, r0
 223 0032 0C46     		mov	r4, r1
 224 0034 1946     		mov	r1, r3
 225 0036 4C23     		movs	r3, #76
 226 0038 1B4A     		ldr	r2, .L16
 227 003a 1C48     		ldr	r0, .L16+4
 228 003c FFF7FEFF 		bl	atiny_printf
  77:C:/Users/dtjld/Desktop/AIoT_software/LiteOS_Lab_overseas/LiteOS_Lab/iot_link/oc/oc_lwm2m/atiny_lwm2m\agenttiny.c ****             return ATINY_ARG_INVALID;
 229              		.loc 3 77 0
 230 0040 4FF0FF33 		mov	r3, #-1
 231 0044 2CE0     		b	.L9
 232              	.L10:
  78:C:/Users/dtjld/Desktop/AIoT_software/LiteOS_Lab_overseas/LiteOS_Lab/iot_link/oc/oc_lwm2m/atiny_lwm2m\agenttiny.c ****         }
  79:C:/Users/dtjld/Desktop/AIoT_software/LiteOS_Lab_overseas/LiteOS_Lab/iot_link/oc/oc_lwm2m/atiny_lwm2m\agenttiny.c ****     }
  80:C:/Users/dtjld/Desktop/AIoT_software/LiteOS_Lab_overseas/LiteOS_Lab/iot_link/oc/oc_lwm2m/atiny_lwm2m\agenttiny.c ****     else if(BOOTSTRAP_CLIENT_INITIATED == atiny_params->server_params.bootstrap_mode)
 233              		.loc 3 80 0
 234 0046 7B68     		ldr	r3, [r7, #4]
 235 0048 1B7B     		ldrb	r3, [r3, #12]	@ zero_extendqisi2
 236 004a 012B     		cmp	r3, #1
 237 004c 14D1     		bne	.L13
  81:C:/Users/dtjld/Desktop/AIoT_software/LiteOS_Lab_overseas/LiteOS_Lab/iot_link/oc/oc_lwm2m/atiny_lwm2m\agenttiny.c ****     {
  82:C:/Users/dtjld/Desktop/AIoT_software/LiteOS_Lab_overseas/LiteOS_Lab/iot_link/oc/oc_lwm2m/atiny_lwm2m\agenttiny.c ****         if((NULL == atiny_params->security_params[1].server_ip) || (NULL == atiny_params->security_
 238              		.loc 3 82 0
ARM GAS  C:\Users\dtjld\AppData\Local\Temp\ccIjCgHN.s 			page 15


 239 004e 7B68     		ldr	r3, [r7, #4]
 240 0050 9B6A     		ldr	r3, [r3, #40]
 241 0052 002B     		cmp	r3, #0
 242 0054 03D0     		beq	.L14
 243              		.loc 3 82 0 is_stmt 0 discriminator 1
 244 0056 7B68     		ldr	r3, [r7, #4]
 245 0058 DB6A     		ldr	r3, [r3, #44]
 246 005a 002B     		cmp	r3, #0
 247 005c 1FD1     		bne	.L12
 248              	.L14:
  83:C:/Users/dtjld/Desktop/AIoT_software/LiteOS_Lab_overseas/LiteOS_Lab/iot_link/oc/oc_lwm2m/atiny_lwm2m\agenttiny.c ****         {
  84:C:/Users/dtjld/Desktop/AIoT_software/LiteOS_Lab_overseas/LiteOS_Lab/iot_link/oc/oc_lwm2m/atiny_lwm2m\agenttiny.c ****             LOG("[bootstrap_tag]: BOOTSTRAP_CLIENT_INITIATED mode's params is wrong, should have bo
 249              		.loc 3 84 0 is_stmt 1
 250 005e FFF7FEFF 		bl	lwm2m_gettime
 251 0062 0346     		mov	r3, r0
 252 0064 0C46     		mov	r4, r1
 253 0066 1946     		mov	r1, r3
 254 0068 5423     		movs	r3, #84
 255 006a 0F4A     		ldr	r2, .L16
 256 006c 1048     		ldr	r0, .L16+8
 257 006e FFF7FEFF 		bl	atiny_printf
  85:C:/Users/dtjld/Desktop/AIoT_software/LiteOS_Lab_overseas/LiteOS_Lab/iot_link/oc/oc_lwm2m/atiny_lwm2m\agenttiny.c ****             return ATINY_ARG_INVALID;
 258              		.loc 3 85 0
 259 0072 4FF0FF33 		mov	r3, #-1
 260 0076 13E0     		b	.L9
 261              	.L13:
  86:C:/Users/dtjld/Desktop/AIoT_software/LiteOS_Lab_overseas/LiteOS_Lab/iot_link/oc/oc_lwm2m/atiny_lwm2m\agenttiny.c ****         }
  87:C:/Users/dtjld/Desktop/AIoT_software/LiteOS_Lab_overseas/LiteOS_Lab/iot_link/oc/oc_lwm2m/atiny_lwm2m\agenttiny.c ****     }
  88:C:/Users/dtjld/Desktop/AIoT_software/LiteOS_Lab_overseas/LiteOS_Lab/iot_link/oc/oc_lwm2m/atiny_lwm2m\agenttiny.c ****     else if(BOOTSTRAP_SEQUENCE == atiny_params->server_params.bootstrap_mode)
 262              		.loc 3 88 0
 263 0078 7B68     		ldr	r3, [r7, #4]
 264 007a 1B7B     		ldrb	r3, [r3, #12]	@ zero_extendqisi2
 265 007c 022B     		cmp	r3, #2
 266 007e 01D1     		bne	.L15
  89:C:/Users/dtjld/Desktop/AIoT_software/LiteOS_Lab_overseas/LiteOS_Lab/iot_link/oc/oc_lwm2m/atiny_lwm2m\agenttiny.c ****     {
  90:C:/Users/dtjld/Desktop/AIoT_software/LiteOS_Lab_overseas/LiteOS_Lab/iot_link/oc/oc_lwm2m/atiny_lwm2m\agenttiny.c ****         return ATINY_OK;
 267              		.loc 3 90 0
 268 0080 0023     		movs	r3, #0
 269 0082 0DE0     		b	.L9
 270              	.L15:
  91:C:/Users/dtjld/Desktop/AIoT_software/LiteOS_Lab_overseas/LiteOS_Lab/iot_link/oc/oc_lwm2m/atiny_lwm2m\agenttiny.c ****     }
  92:C:/Users/dtjld/Desktop/AIoT_software/LiteOS_Lab_overseas/LiteOS_Lab/iot_link/oc/oc_lwm2m/atiny_lwm2m\agenttiny.c ****     else
  93:C:/Users/dtjld/Desktop/AIoT_software/LiteOS_Lab_overseas/LiteOS_Lab/iot_link/oc/oc_lwm2m/atiny_lwm2m\agenttiny.c ****     {
  94:C:/Users/dtjld/Desktop/AIoT_software/LiteOS_Lab_overseas/LiteOS_Lab/iot_link/oc/oc_lwm2m/atiny_lwm2m\agenttiny.c ****         //it is ok? if the mode value is not 0,1,2, we all set it to 2 ?
  95:C:/Users/dtjld/Desktop/AIoT_software/LiteOS_Lab_overseas/LiteOS_Lab/iot_link/oc/oc_lwm2m/atiny_lwm2m\agenttiny.c ****         LOG("[bootstrap_tag]: BOOTSTRAP only have three mode, should been :0,1,2");
 271              		.loc 3 95 0
 272 0084 FFF7FEFF 		bl	lwm2m_gettime
 273 0088 0346     		mov	r3, r0
 274 008a 0C46     		mov	r4, r1
 275 008c 1946     		mov	r1, r3
 276 008e 5F23     		movs	r3, #95
 277 0090 054A     		ldr	r2, .L16
 278 0092 0848     		ldr	r0, .L16+12
 279 0094 FFF7FEFF 		bl	atiny_printf
  96:C:/Users/dtjld/Desktop/AIoT_software/LiteOS_Lab_overseas/LiteOS_Lab/iot_link/oc/oc_lwm2m/atiny_lwm2m\agenttiny.c ****         return ATINY_ARG_INVALID;
 280              		.loc 3 96 0
 281 0098 4FF0FF33 		mov	r3, #-1
ARM GAS  C:\Users\dtjld\AppData\Local\Temp\ccIjCgHN.s 			page 16


 282 009c 00E0     		b	.L9
 283              	.L12:
  97:C:/Users/dtjld/Desktop/AIoT_software/LiteOS_Lab_overseas/LiteOS_Lab/iot_link/oc/oc_lwm2m/atiny_lwm2m\agenttiny.c ****     }
  98:C:/Users/dtjld/Desktop/AIoT_software/LiteOS_Lab_overseas/LiteOS_Lab/iot_link/oc/oc_lwm2m/atiny_lwm2m\agenttiny.c **** 
  99:C:/Users/dtjld/Desktop/AIoT_software/LiteOS_Lab_overseas/LiteOS_Lab/iot_link/oc/oc_lwm2m/atiny_lwm2m\agenttiny.c **** 
 100:C:/Users/dtjld/Desktop/AIoT_software/LiteOS_Lab_overseas/LiteOS_Lab/iot_link/oc/oc_lwm2m/atiny_lwm2m\agenttiny.c ****     return ATINY_OK;
 284              		.loc 3 100 0
 285 009e 0023     		movs	r3, #0
 286              	.L9:
 101:C:/Users/dtjld/Desktop/AIoT_software/LiteOS_Lab_overseas/LiteOS_Lab/iot_link/oc/oc_lwm2m/atiny_lwm2m\agenttiny.c **** }
 287              		.loc 3 101 0
 288 00a0 1846     		mov	r0, r3
 289 00a2 0C37     		adds	r7, r7, #12
 290              	.LCFI15:
 291              		.cfi_def_cfa_offset 12
 292 00a4 BD46     		mov	sp, r7
 293              	.LCFI16:
 294              		.cfi_def_cfa_register 13
 295              		@ sp needed
 296 00a6 90BD     		pop	{r4, r7, pc}
 297              	.L17:
 298              		.align	2
 299              	.L16:
 300 00a8 00000000 		.word	__func__.8890
 301 00ac 00000000 		.word	.LC0
 302 00b0 68000000 		.word	.LC1
 303 00b4 E0000000 		.word	.LC2
 304              		.cfi_endproc
 305              	.LFE14:
 307              		.section	.rodata
 308 0132 0000     		.align	2
 309              	.LC3:
 310 0134 5B25735D 		.ascii	"[%s][%u][%s:%d] atiny_init_rpt fail,ret=%d\015\012\000"
 310      5B25755D 
 310      5B25733A 
 310      25645D20 
 310      6174696E 
 311 0161 000000   		.align	2
 312              	.LC4:
 313 0164 5B25735D 		.ascii	"[%s][%u][%s:%d] Invalid args\015\012\000"
 313      5B25755D 
 313      5B25733A 
 313      25645D20 
 313      496E7661 
 314 0183 00       		.align	2
 315              	.LC5:
 316 0184 5B25645D 		.ascii	"[%d][%s:%d] [bootstrap_tag]: BOOTSTRAP's params are"
 316      5B25733A 
 316      25645D20 
 316      5B626F6F 
 316      74737472 
 317 01b7 2077726F 		.ascii	" wrong\015\012\000"
 317      6E670D0A 
 317      00
 318              		.align	2
 319              	.LC6:
 320 01c0 5B25735D 		.ascii	"[%s][%u][%s:%d] osal_semp_create fail\015\012\000"
ARM GAS  C:\Users\dtjld\AppData\Local\Temp\ccIjCgHN.s 			page 17


 320      5B25755D 
 320      5B25733A 
 320      25645D20 
 320      6F73616C 
 321              		.section	.text.atiny_init,"ax",%progbits
 322              		.align	1
 323              		.global	atiny_init
 324              		.syntax unified
 325              		.thumb
 326              		.thumb_func
 327              		.fpu fpv4-sp-d16
 329              	atiny_init:
 330              	.LFB15:
 102:C:/Users/dtjld/Desktop/AIoT_software/LiteOS_Lab_overseas/LiteOS_Lab/iot_link/oc/oc_lwm2m/atiny_lwm2m\agenttiny.c **** 
 103:C:/Users/dtjld/Desktop/AIoT_software/LiteOS_Lab_overseas/LiteOS_Lab/iot_link/oc/oc_lwm2m/atiny_lwm2m\agenttiny.c **** #ifdef LWM2M_BOOTSTRAP
 104:C:/Users/dtjld/Desktop/AIoT_software/LiteOS_Lab_overseas/LiteOS_Lab/iot_link/oc/oc_lwm2m/atiny_lwm2m\agenttiny.c **** static int atiny_check_psk_init_param(atiny_param_t *atiny_params)
 105:C:/Users/dtjld/Desktop/AIoT_software/LiteOS_Lab_overseas/LiteOS_Lab/iot_link/oc/oc_lwm2m/atiny_lwm2m\agenttiny.c **** {
 106:C:/Users/dtjld/Desktop/AIoT_software/LiteOS_Lab_overseas/LiteOS_Lab/iot_link/oc/oc_lwm2m/atiny_lwm2m\agenttiny.c ****     int i = 0;
 107:C:/Users/dtjld/Desktop/AIoT_software/LiteOS_Lab_overseas/LiteOS_Lab/iot_link/oc/oc_lwm2m/atiny_lwm2m\agenttiny.c ****     int psk_id_len = 0;
 108:C:/Users/dtjld/Desktop/AIoT_software/LiteOS_Lab_overseas/LiteOS_Lab/iot_link/oc/oc_lwm2m/atiny_lwm2m\agenttiny.c ****     int psk_len = 0;
 109:C:/Users/dtjld/Desktop/AIoT_software/LiteOS_Lab_overseas/LiteOS_Lab/iot_link/oc/oc_lwm2m/atiny_lwm2m\agenttiny.c ****     const int PSK_ID_LIMIT_LEN = 128;
 110:C:/Users/dtjld/Desktop/AIoT_software/LiteOS_Lab_overseas/LiteOS_Lab/iot_link/oc/oc_lwm2m/atiny_lwm2m\agenttiny.c ****     const int PSK_LIMIT_LEN = 64;
 111:C:/Users/dtjld/Desktop/AIoT_software/LiteOS_Lab_overseas/LiteOS_Lab/iot_link/oc/oc_lwm2m/atiny_lwm2m\agenttiny.c ****     int total_element = 0;
 112:C:/Users/dtjld/Desktop/AIoT_software/LiteOS_Lab_overseas/LiteOS_Lab/iot_link/oc/oc_lwm2m/atiny_lwm2m\agenttiny.c **** 
 113:C:/Users/dtjld/Desktop/AIoT_software/LiteOS_Lab_overseas/LiteOS_Lab/iot_link/oc/oc_lwm2m/atiny_lwm2m\agenttiny.c ****     if(NULL == atiny_params)
 114:C:/Users/dtjld/Desktop/AIoT_software/LiteOS_Lab_overseas/LiteOS_Lab/iot_link/oc/oc_lwm2m/atiny_lwm2m\agenttiny.c ****     {
 115:C:/Users/dtjld/Desktop/AIoT_software/LiteOS_Lab_overseas/LiteOS_Lab/iot_link/oc/oc_lwm2m/atiny_lwm2m\agenttiny.c ****         return ATINY_ARG_INVALID;
 116:C:/Users/dtjld/Desktop/AIoT_software/LiteOS_Lab_overseas/LiteOS_Lab/iot_link/oc/oc_lwm2m/atiny_lwm2m\agenttiny.c ****     }
 117:C:/Users/dtjld/Desktop/AIoT_software/LiteOS_Lab_overseas/LiteOS_Lab/iot_link/oc/oc_lwm2m/atiny_lwm2m\agenttiny.c **** 
 118:C:/Users/dtjld/Desktop/AIoT_software/LiteOS_Lab_overseas/LiteOS_Lab/iot_link/oc/oc_lwm2m/atiny_lwm2m\agenttiny.c ****     //security_params have 2 element, we have 2 pair psk.
 119:C:/Users/dtjld/Desktop/AIoT_software/LiteOS_Lab_overseas/LiteOS_Lab/iot_link/oc/oc_lwm2m/atiny_lwm2m\agenttiny.c ****     total_element = (sizeof(atiny_params->security_params)) / (sizeof(atiny_params->security_params
 120:C:/Users/dtjld/Desktop/AIoT_software/LiteOS_Lab_overseas/LiteOS_Lab/iot_link/oc/oc_lwm2m/atiny_lwm2m\agenttiny.c **** 
 121:C:/Users/dtjld/Desktop/AIoT_software/LiteOS_Lab_overseas/LiteOS_Lab/iot_link/oc/oc_lwm2m/atiny_lwm2m\agenttiny.c ****     for(i = 0; i < total_element; i++)
 122:C:/Users/dtjld/Desktop/AIoT_software/LiteOS_Lab_overseas/LiteOS_Lab/iot_link/oc/oc_lwm2m/atiny_lwm2m\agenttiny.c ****     {
 123:C:/Users/dtjld/Desktop/AIoT_software/LiteOS_Lab_overseas/LiteOS_Lab/iot_link/oc/oc_lwm2m/atiny_lwm2m\agenttiny.c ****         //if there are null, we could run not in security mode
 124:C:/Users/dtjld/Desktop/AIoT_software/LiteOS_Lab_overseas/LiteOS_Lab/iot_link/oc/oc_lwm2m/atiny_lwm2m\agenttiny.c ****         if((atiny_params->security_params[i].psk_Id != NULL) && (atiny_params->security_params[i].p
 125:C:/Users/dtjld/Desktop/AIoT_software/LiteOS_Lab_overseas/LiteOS_Lab/iot_link/oc/oc_lwm2m/atiny_lwm2m\agenttiny.c ****         {
 126:C:/Users/dtjld/Desktop/AIoT_software/LiteOS_Lab_overseas/LiteOS_Lab/iot_link/oc/oc_lwm2m/atiny_lwm2m\agenttiny.c ****             psk_id_len = strlen(atiny_params->security_params[i].psk_Id);
 127:C:/Users/dtjld/Desktop/AIoT_software/LiteOS_Lab_overseas/LiteOS_Lab/iot_link/oc/oc_lwm2m/atiny_lwm2m\agenttiny.c ****             psk_len = strlen(atiny_params->security_params[i].psk);
 128:C:/Users/dtjld/Desktop/AIoT_software/LiteOS_Lab_overseas/LiteOS_Lab/iot_link/oc/oc_lwm2m/atiny_lwm2m\agenttiny.c **** 
 129:C:/Users/dtjld/Desktop/AIoT_software/LiteOS_Lab_overseas/LiteOS_Lab/iot_link/oc/oc_lwm2m/atiny_lwm2m\agenttiny.c ****             //the limit of the len, please read RFC4279  or OMA-TS-LightweightM2M E.1.1
 130:C:/Users/dtjld/Desktop/AIoT_software/LiteOS_Lab_overseas/LiteOS_Lab/iot_link/oc/oc_lwm2m/atiny_lwm2m\agenttiny.c ****             if((psk_id_len > PSK_ID_LIMIT_LEN) || (psk_len > PSK_LIMIT_LEN))
 131:C:/Users/dtjld/Desktop/AIoT_software/LiteOS_Lab_overseas/LiteOS_Lab/iot_link/oc/oc_lwm2m/atiny_lwm2m\agenttiny.c ****             {
 132:C:/Users/dtjld/Desktop/AIoT_software/LiteOS_Lab_overseas/LiteOS_Lab/iot_link/oc/oc_lwm2m/atiny_lwm2m\agenttiny.c ****                 LOG("[bootstrap_tag]: psk_Id len over 128 or psk len over 64");
 133:C:/Users/dtjld/Desktop/AIoT_software/LiteOS_Lab_overseas/LiteOS_Lab/iot_link/oc/oc_lwm2m/atiny_lwm2m\agenttiny.c ****                 return ATINY_ARG_INVALID;
 134:C:/Users/dtjld/Desktop/AIoT_software/LiteOS_Lab_overseas/LiteOS_Lab/iot_link/oc/oc_lwm2m/atiny_lwm2m\agenttiny.c ****             }
 135:C:/Users/dtjld/Desktop/AIoT_software/LiteOS_Lab_overseas/LiteOS_Lab/iot_link/oc/oc_lwm2m/atiny_lwm2m\agenttiny.c ****         }
 136:C:/Users/dtjld/Desktop/AIoT_software/LiteOS_Lab_overseas/LiteOS_Lab/iot_link/oc/oc_lwm2m/atiny_lwm2m\agenttiny.c ****     }
 137:C:/Users/dtjld/Desktop/AIoT_software/LiteOS_Lab_overseas/LiteOS_Lab/iot_link/oc/oc_lwm2m/atiny_lwm2m\agenttiny.c **** 
 138:C:/Users/dtjld/Desktop/AIoT_software/LiteOS_Lab_overseas/LiteOS_Lab/iot_link/oc/oc_lwm2m/atiny_lwm2m\agenttiny.c ****     return ATINY_OK;
 139:C:/Users/dtjld/Desktop/AIoT_software/LiteOS_Lab_overseas/LiteOS_Lab/iot_link/oc/oc_lwm2m/atiny_lwm2m\agenttiny.c **** }
 140:C:/Users/dtjld/Desktop/AIoT_software/LiteOS_Lab_overseas/LiteOS_Lab/iot_link/oc/oc_lwm2m/atiny_lwm2m\agenttiny.c **** #endif
 141:C:/Users/dtjld/Desktop/AIoT_software/LiteOS_Lab_overseas/LiteOS_Lab/iot_link/oc/oc_lwm2m/atiny_lwm2m\agenttiny.c **** 
 142:C:/Users/dtjld/Desktop/AIoT_software/LiteOS_Lab_overseas/LiteOS_Lab/iot_link/oc/oc_lwm2m/atiny_lwm2m\agenttiny.c **** 
 143:C:/Users/dtjld/Desktop/AIoT_software/LiteOS_Lab_overseas/LiteOS_Lab/iot_link/oc/oc_lwm2m/atiny_lwm2m\agenttiny.c **** int  atiny_init(atiny_param_t *atiny_params, void **phandle)
 144:C:/Users/dtjld/Desktop/AIoT_software/LiteOS_Lab_overseas/LiteOS_Lab/iot_link/oc/oc_lwm2m/atiny_lwm2m\agenttiny.c **** {
 331              		.loc 3 144 0
ARM GAS  C:\Users\dtjld\AppData\Local\Temp\ccIjCgHN.s 			page 18


 332              		.cfi_startproc
 333              		@ args = 0, pretend = 0, frame = 16
 334              		@ frame_needed = 1, uses_anonymous_args = 0
 335 0000 B0B5     		push	{r4, r5, r7, lr}
 336              	.LCFI17:
 337              		.cfi_def_cfa_offset 16
 338              		.cfi_offset 4, -16
 339              		.cfi_offset 5, -12
 340              		.cfi_offset 7, -8
 341              		.cfi_offset 14, -4
 342 0002 86B0     		sub	sp, sp, #24
 343              	.LCFI18:
 344              		.cfi_def_cfa_offset 40
 345 0004 02AF     		add	r7, sp, #8
 346              	.LCFI19:
 347              		.cfi_def_cfa 7, 32
 348 0006 7860     		str	r0, [r7, #4]
 349 0008 3960     		str	r1, [r7]
 145:C:/Users/dtjld/Desktop/AIoT_software/LiteOS_Lab_overseas/LiteOS_Lab/iot_link/oc/oc_lwm2m/atiny_lwm2m\agenttiny.c ****     int result;
 146:C:/Users/dtjld/Desktop/AIoT_software/LiteOS_Lab_overseas/LiteOS_Lab/iot_link/oc/oc_lwm2m/atiny_lwm2m\agenttiny.c ****     
 147:C:/Users/dtjld/Desktop/AIoT_software/LiteOS_Lab_overseas/LiteOS_Lab/iot_link/oc/oc_lwm2m/atiny_lwm2m\agenttiny.c ****     result = atiny_init_rpt();
 350              		.loc 3 147 0
 351 000a FFF7FEFF 		bl	atiny_init_rpt
 352 000e F860     		str	r0, [r7, #12]
 148:C:/Users/dtjld/Desktop/AIoT_software/LiteOS_Lab_overseas/LiteOS_Lab/iot_link/oc/oc_lwm2m/atiny_lwm2m\agenttiny.c ****     if (result != ATINY_OK)
 353              		.loc 3 148 0
 354 0010 FB68     		ldr	r3, [r7, #12]
 355 0012 002B     		cmp	r3, #0
 356 0014 18D0     		beq	.L19
 149:C:/Users/dtjld/Desktop/AIoT_software/LiteOS_Lab_overseas/LiteOS_Lab/iot_link/oc/oc_lwm2m/atiny_lwm2m\agenttiny.c ****     {
 150:C:/Users/dtjld/Desktop/AIoT_software/LiteOS_Lab_overseas/LiteOS_Lab/iot_link/oc/oc_lwm2m/atiny_lwm2m\agenttiny.c ****         ATINY_LOG(LOG_FATAL, "atiny_init_rpt fail,ret=%d", result);
 357              		.loc 3 150 0
 358 0016 FFF7FEFF 		bl	atiny_get_log_level
 359 001a 0346     		mov	r3, r0
 360 001c 042B     		cmp	r3, #4
 361 001e 11D8     		bhi	.L20
 362              		.loc 3 150 0 is_stmt 0 discriminator 1
 363 0020 0420     		movs	r0, #4
 364 0022 FFF7FEFF 		bl	atiny_get_log_level_name
 365 0026 0546     		mov	r5, r0
 366 0028 FFF7FEFF 		bl	osal_sys_time
 367 002c 0346     		mov	r3, r0
 368 002e 0C46     		mov	r4, r1
 369 0030 1A46     		mov	r2, r3
 370 0032 FB68     		ldr	r3, [r7, #12]
 371 0034 0193     		str	r3, [sp, #4]
 372 0036 9623     		movs	r3, #150
 373 0038 0093     		str	r3, [sp]
 374 003a 394B     		ldr	r3, .L28
 375 003c 2946     		mov	r1, r5
 376 003e 3948     		ldr	r0, .L28+4
 377 0040 FFF7FEFF 		bl	atiny_printf
 378              	.L20:
 151:C:/Users/dtjld/Desktop/AIoT_software/LiteOS_Lab_overseas/LiteOS_Lab/iot_link/oc/oc_lwm2m/atiny_lwm2m\agenttiny.c ****         return result;
 379              		.loc 3 151 0 is_stmt 1
 380 0044 FB68     		ldr	r3, [r7, #12]
 381 0046 67E0     		b	.L21
ARM GAS  C:\Users\dtjld\AppData\Local\Temp\ccIjCgHN.s 			page 19


 382              	.L19:
 152:C:/Users/dtjld/Desktop/AIoT_software/LiteOS_Lab_overseas/LiteOS_Lab/iot_link/oc/oc_lwm2m/atiny_lwm2m\agenttiny.c ****     }
 153:C:/Users/dtjld/Desktop/AIoT_software/LiteOS_Lab_overseas/LiteOS_Lab/iot_link/oc/oc_lwm2m/atiny_lwm2m\agenttiny.c **** 
 154:C:/Users/dtjld/Desktop/AIoT_software/LiteOS_Lab_overseas/LiteOS_Lab/iot_link/oc/oc_lwm2m/atiny_lwm2m\agenttiny.c ****     if (NULL == atiny_params || NULL == phandle)
 383              		.loc 3 154 0
 384 0048 7B68     		ldr	r3, [r7, #4]
 385 004a 002B     		cmp	r3, #0
 386 004c 02D0     		beq	.L22
 387              		.loc 3 154 0 is_stmt 0 discriminator 1
 388 004e 3B68     		ldr	r3, [r7]
 389 0050 002B     		cmp	r3, #0
 390 0052 17D1     		bne	.L23
 391              	.L22:
 155:C:/Users/dtjld/Desktop/AIoT_software/LiteOS_Lab_overseas/LiteOS_Lab/iot_link/oc/oc_lwm2m/atiny_lwm2m\agenttiny.c ****     {
 156:C:/Users/dtjld/Desktop/AIoT_software/LiteOS_Lab_overseas/LiteOS_Lab/iot_link/oc/oc_lwm2m/atiny_lwm2m\agenttiny.c ****         ATINY_LOG(LOG_FATAL, "Invalid args");
 392              		.loc 3 156 0 is_stmt 1
 393 0054 FFF7FEFF 		bl	atiny_get_log_level
 394 0058 0346     		mov	r3, r0
 395 005a 042B     		cmp	r3, #4
 396 005c 0FD8     		bhi	.L24
 397              		.loc 3 156 0 is_stmt 0 discriminator 1
 398 005e 0420     		movs	r0, #4
 399 0060 FFF7FEFF 		bl	atiny_get_log_level_name
 400 0064 0546     		mov	r5, r0
 401 0066 FFF7FEFF 		bl	osal_sys_time
 402 006a 0346     		mov	r3, r0
 403 006c 0C46     		mov	r4, r1
 404 006e 1A46     		mov	r2, r3
 405 0070 9C23     		movs	r3, #156
 406 0072 0093     		str	r3, [sp]
 407 0074 2A4B     		ldr	r3, .L28
 408 0076 2946     		mov	r1, r5
 409 0078 2B48     		ldr	r0, .L28+8
 410 007a FFF7FEFF 		bl	atiny_printf
 411              	.L24:
 157:C:/Users/dtjld/Desktop/AIoT_software/LiteOS_Lab_overseas/LiteOS_Lab/iot_link/oc/oc_lwm2m/atiny_lwm2m\agenttiny.c ****         return ATINY_ARG_INVALID;
 412              		.loc 3 157 0 is_stmt 1
 413 007e 4FF0FF33 		mov	r3, #-1
 414 0082 49E0     		b	.L21
 415              	.L23:
 158:C:/Users/dtjld/Desktop/AIoT_software/LiteOS_Lab_overseas/LiteOS_Lab/iot_link/oc/oc_lwm2m/atiny_lwm2m\agenttiny.c ****     }
 159:C:/Users/dtjld/Desktop/AIoT_software/LiteOS_Lab_overseas/LiteOS_Lab/iot_link/oc/oc_lwm2m/atiny_lwm2m\agenttiny.c **** 
 160:C:/Users/dtjld/Desktop/AIoT_software/LiteOS_Lab_overseas/LiteOS_Lab/iot_link/oc/oc_lwm2m/atiny_lwm2m\agenttiny.c ****     if(ATINY_OK != atiny_check_bootstrap_init_param(atiny_params))
 416              		.loc 3 160 0
 417 0084 7868     		ldr	r0, [r7, #4]
 418 0086 FFF7FEFF 		bl	atiny_check_bootstrap_init_param
 419 008a 0346     		mov	r3, r0
 420 008c 002B     		cmp	r3, #0
 421 008e 0CD0     		beq	.L25
 161:C:/Users/dtjld/Desktop/AIoT_software/LiteOS_Lab_overseas/LiteOS_Lab/iot_link/oc/oc_lwm2m/atiny_lwm2m\agenttiny.c ****     {
 162:C:/Users/dtjld/Desktop/AIoT_software/LiteOS_Lab_overseas/LiteOS_Lab/iot_link/oc/oc_lwm2m/atiny_lwm2m\agenttiny.c ****         LOG("[bootstrap_tag]: BOOTSTRAP's params are wrong");
 422              		.loc 3 162 0
 423 0090 FFF7FEFF 		bl	lwm2m_gettime
 424 0094 0346     		mov	r3, r0
 425 0096 0C46     		mov	r4, r1
 426 0098 1946     		mov	r1, r3
 427 009a A223     		movs	r3, #162
ARM GAS  C:\Users\dtjld\AppData\Local\Temp\ccIjCgHN.s 			page 20


 428 009c 234A     		ldr	r2, .L28+12
 429 009e 2448     		ldr	r0, .L28+16
 430 00a0 FFF7FEFF 		bl	atiny_printf
 163:C:/Users/dtjld/Desktop/AIoT_software/LiteOS_Lab_overseas/LiteOS_Lab/iot_link/oc/oc_lwm2m/atiny_lwm2m\agenttiny.c ****         return ATINY_ARG_INVALID;
 431              		.loc 3 163 0
 432 00a4 4FF0FF33 		mov	r3, #-1
 433 00a8 36E0     		b	.L21
 434              	.L25:
 164:C:/Users/dtjld/Desktop/AIoT_software/LiteOS_Lab_overseas/LiteOS_Lab/iot_link/oc/oc_lwm2m/atiny_lwm2m\agenttiny.c ****     }
 165:C:/Users/dtjld/Desktop/AIoT_software/LiteOS_Lab_overseas/LiteOS_Lab/iot_link/oc/oc_lwm2m/atiny_lwm2m\agenttiny.c **** 
 166:C:/Users/dtjld/Desktop/AIoT_software/LiteOS_Lab_overseas/LiteOS_Lab/iot_link/oc/oc_lwm2m/atiny_lwm2m\agenttiny.c **** #ifdef LWM2M_BOOTSTRAP
 167:C:/Users/dtjld/Desktop/AIoT_software/LiteOS_Lab_overseas/LiteOS_Lab/iot_link/oc/oc_lwm2m/atiny_lwm2m\agenttiny.c ****     if(ATINY_OK != atiny_check_psk_init_param(atiny_params))
 168:C:/Users/dtjld/Desktop/AIoT_software/LiteOS_Lab_overseas/LiteOS_Lab/iot_link/oc/oc_lwm2m/atiny_lwm2m\agenttiny.c ****     {
 169:C:/Users/dtjld/Desktop/AIoT_software/LiteOS_Lab_overseas/LiteOS_Lab/iot_link/oc/oc_lwm2m/atiny_lwm2m\agenttiny.c ****         LOG("[bootstrap_tag]: psk params are wrong");
 170:C:/Users/dtjld/Desktop/AIoT_software/LiteOS_Lab_overseas/LiteOS_Lab/iot_link/oc/oc_lwm2m/atiny_lwm2m\agenttiny.c ****     }
 171:C:/Users/dtjld/Desktop/AIoT_software/LiteOS_Lab_overseas/LiteOS_Lab/iot_link/oc/oc_lwm2m/atiny_lwm2m\agenttiny.c **** #endif
 172:C:/Users/dtjld/Desktop/AIoT_software/LiteOS_Lab_overseas/LiteOS_Lab/iot_link/oc/oc_lwm2m/atiny_lwm2m\agenttiny.c **** 
 173:C:/Users/dtjld/Desktop/AIoT_software/LiteOS_Lab_overseas/LiteOS_Lab/iot_link/oc/oc_lwm2m/atiny_lwm2m\agenttiny.c ****     memset((void *)&g_atiny_handle, 0, sizeof(handle_data_t));
 435              		.loc 3 173 0
 436 00aa 8822     		movs	r2, #136
 437 00ac 0021     		movs	r1, #0
 438 00ae 2148     		ldr	r0, .L28+20
 439 00b0 FFF7FEFF 		bl	memset
 174:C:/Users/dtjld/Desktop/AIoT_software/LiteOS_Lab_overseas/LiteOS_Lab/iot_link/oc/oc_lwm2m/atiny_lwm2m\agenttiny.c **** 
 175:C:/Users/dtjld/Desktop/AIoT_software/LiteOS_Lab_overseas/LiteOS_Lab/iot_link/oc/oc_lwm2m/atiny_lwm2m\agenttiny.c ****     if (false == osal_semp_create(&g_atiny_handle.quit_sem,1,0))
 440              		.loc 3 175 0
 441 00b4 0022     		movs	r2, #0
 442 00b6 0121     		movs	r1, #1
 443 00b8 1F48     		ldr	r0, .L28+24
 444 00ba FFF7FEFF 		bl	osal_semp_create
 445 00be 0346     		mov	r3, r0
 446 00c0 002B     		cmp	r3, #0
 447 00c2 17D1     		bne	.L26
 176:C:/Users/dtjld/Desktop/AIoT_software/LiteOS_Lab_overseas/LiteOS_Lab/iot_link/oc/oc_lwm2m/atiny_lwm2m\agenttiny.c ****     {
 177:C:/Users/dtjld/Desktop/AIoT_software/LiteOS_Lab_overseas/LiteOS_Lab/iot_link/oc/oc_lwm2m/atiny_lwm2m\agenttiny.c ****         ATINY_LOG(LOG_FATAL, "osal_semp_create fail");
 448              		.loc 3 177 0
 449 00c4 FFF7FEFF 		bl	atiny_get_log_level
 450 00c8 0346     		mov	r3, r0
 451 00ca 042B     		cmp	r3, #4
 452 00cc 0FD8     		bhi	.L27
 453              		.loc 3 177 0 is_stmt 0 discriminator 1
 454 00ce 0420     		movs	r0, #4
 455 00d0 FFF7FEFF 		bl	atiny_get_log_level_name
 456 00d4 0546     		mov	r5, r0
 457 00d6 FFF7FEFF 		bl	osal_sys_time
 458 00da 0346     		mov	r3, r0
 459 00dc 0C46     		mov	r4, r1
 460 00de 1A46     		mov	r2, r3
 461 00e0 B123     		movs	r3, #177
 462 00e2 0093     		str	r3, [sp]
 463 00e4 0E4B     		ldr	r3, .L28
 464 00e6 2946     		mov	r1, r5
 465 00e8 1448     		ldr	r0, .L28+28
 466 00ea FFF7FEFF 		bl	atiny_printf
 467              	.L27:
 178:C:/Users/dtjld/Desktop/AIoT_software/LiteOS_Lab_overseas/LiteOS_Lab/iot_link/oc/oc_lwm2m/atiny_lwm2m\agenttiny.c ****         return ATINY_RESOURCE_NOT_ENOUGH;
 468              		.loc 3 178 0 is_stmt 1
ARM GAS  C:\Users\dtjld\AppData\Local\Temp\ccIjCgHN.s 			page 21


 469 00ee 6FF00503 		mvn	r3, #5
 470 00f2 11E0     		b	.L21
 471              	.L26:
 179:C:/Users/dtjld/Desktop/AIoT_software/LiteOS_Lab_overseas/LiteOS_Lab/iot_link/oc/oc_lwm2m/atiny_lwm2m\agenttiny.c ****     }
 180:C:/Users/dtjld/Desktop/AIoT_software/LiteOS_Lab_overseas/LiteOS_Lab/iot_link/oc/oc_lwm2m/atiny_lwm2m\agenttiny.c ****     g_atiny_handle.atiny_params = *atiny_params;
 472              		.loc 3 180 0
 473 00f4 0F4B     		ldr	r3, .L28+20
 474 00f6 7A68     		ldr	r2, [r7, #4]
 475 00f8 1C1D     		adds	r4, r3, #4
 476 00fa 1546     		mov	r5, r2
 477 00fc 0FCD     		ldmia	r5!, {r0, r1, r2, r3}
 478 00fe 0FC4     		stmia	r4!, {r0, r1, r2, r3}
 479 0100 0FCD     		ldmia	r5!, {r0, r1, r2, r3}
 480 0102 0FC4     		stmia	r4!, {r0, r1, r2, r3}
 481 0104 0FCD     		ldmia	r5!, {r0, r1, r2, r3}
 482 0106 0FC4     		stmia	r4!, {r0, r1, r2, r3}
 483 0108 95E80F00 		ldm	r5, {r0, r1, r2, r3}
 484 010c 84E80F00 		stm	r4, {r0, r1, r2, r3}
 181:C:/Users/dtjld/Desktop/AIoT_software/LiteOS_Lab_overseas/LiteOS_Lab/iot_link/oc/oc_lwm2m/atiny_lwm2m\agenttiny.c ****     *phandle = &g_atiny_handle;
 485              		.loc 3 181 0
 486 0110 3B68     		ldr	r3, [r7]
 487 0112 084A     		ldr	r2, .L28+20
 488 0114 1A60     		str	r2, [r3]
 182:C:/Users/dtjld/Desktop/AIoT_software/LiteOS_Lab_overseas/LiteOS_Lab/iot_link/oc/oc_lwm2m/atiny_lwm2m\agenttiny.c **** 
 183:C:/Users/dtjld/Desktop/AIoT_software/LiteOS_Lab_overseas/LiteOS_Lab/iot_link/oc/oc_lwm2m/atiny_lwm2m\agenttiny.c **** #ifdef CONFIG_FEATURE_FOTA
 184:C:/Users/dtjld/Desktop/AIoT_software/LiteOS_Lab_overseas/LiteOS_Lab/iot_link/oc/oc_lwm2m/atiny_lwm2m\agenttiny.c **** 
 185:C:/Users/dtjld/Desktop/AIoT_software/LiteOS_Lab_overseas/LiteOS_Lab/iot_link/oc/oc_lwm2m/atiny_lwm2m\agenttiny.c ****     return atiny_fota_manager_set_storage_device(atiny_fota_manager_get_instance());
 186:C:/Users/dtjld/Desktop/AIoT_software/LiteOS_Lab_overseas/LiteOS_Lab/iot_link/oc/oc_lwm2m/atiny_lwm2m\agenttiny.c **** #else
 187:C:/Users/dtjld/Desktop/AIoT_software/LiteOS_Lab_overseas/LiteOS_Lab/iot_link/oc/oc_lwm2m/atiny_lwm2m\agenttiny.c ****     return ATINY_OK;
 489              		.loc 3 187 0
 490 0116 0023     		movs	r3, #0
 491              	.L21:
 188:C:/Users/dtjld/Desktop/AIoT_software/LiteOS_Lab_overseas/LiteOS_Lab/iot_link/oc/oc_lwm2m/atiny_lwm2m\agenttiny.c **** #endif
 189:C:/Users/dtjld/Desktop/AIoT_software/LiteOS_Lab_overseas/LiteOS_Lab/iot_link/oc/oc_lwm2m/atiny_lwm2m\agenttiny.c **** 
 190:C:/Users/dtjld/Desktop/AIoT_software/LiteOS_Lab_overseas/LiteOS_Lab/iot_link/oc/oc_lwm2m/atiny_lwm2m\agenttiny.c **** }
 492              		.loc 3 190 0
 493 0118 1846     		mov	r0, r3
 494 011a 1037     		adds	r7, r7, #16
 495              	.LCFI20:
 496              		.cfi_def_cfa_offset 16
 497 011c BD46     		mov	sp, r7
 498              	.LCFI21:
 499              		.cfi_def_cfa_register 13
 500              		@ sp needed
 501 011e B0BD     		pop	{r4, r5, r7, pc}
 502              	.L29:
 503              		.align	2
 504              	.L28:
 505 0120 00000000 		.word	__FUNCTION__.8896
 506 0124 34010000 		.word	.LC3
 507 0128 64010000 		.word	.LC4
 508 012c 00000000 		.word	__func__.8897
 509 0130 84010000 		.word	.LC5
 510 0134 00000000 		.word	g_atiny_handle
 511 0138 7C000000 		.word	g_atiny_handle+124
 512 013c C0010000 		.word	.LC6
 513              		.cfi_endproc
ARM GAS  C:\Users\dtjld\AppData\Local\Temp\ccIjCgHN.s 			page 22


 514              	.LFE15:
 516              		.section	.text.atiny_set_bootstrap_sequence_state,"ax",%progbits
 517              		.align	1
 518              		.global	atiny_set_bootstrap_sequence_state
 519              		.syntax unified
 520              		.thumb
 521              		.thumb_func
 522              		.fpu fpv4-sp-d16
 524              	atiny_set_bootstrap_sequence_state:
 525              	.LFB16:
 191:C:/Users/dtjld/Desktop/AIoT_software/LiteOS_Lab_overseas/LiteOS_Lab/iot_link/oc/oc_lwm2m/atiny_lwm2m\agenttiny.c **** 
 192:C:/Users/dtjld/Desktop/AIoT_software/LiteOS_Lab_overseas/LiteOS_Lab/iot_link/oc/oc_lwm2m/atiny_lwm2m\agenttiny.c **** /*
 193:C:/Users/dtjld/Desktop/AIoT_software/LiteOS_Lab_overseas/LiteOS_Lab/iot_link/oc/oc_lwm2m/atiny_lwm2m\agenttiny.c ****  * add date:     2018-06-05
 194:C:/Users/dtjld/Desktop/AIoT_software/LiteOS_Lab_overseas/LiteOS_Lab/iot_link/oc/oc_lwm2m/atiny_lwm2m\agenttiny.c ****  * description:  get bootstrap info from atiny_params which from user, set bs_sequence_state and bs
 195:C:/Users/dtjld/Desktop/AIoT_software/LiteOS_Lab_overseas/LiteOS_Lab/iot_link/oc/oc_lwm2m/atiny_lwm2m\agenttiny.c ****  *
 196:C:/Users/dtjld/Desktop/AIoT_software/LiteOS_Lab_overseas/LiteOS_Lab/iot_link/oc/oc_lwm2m/atiny_lwm2m\agenttiny.c ****  * return:       none
 197:C:/Users/dtjld/Desktop/AIoT_software/LiteOS_Lab_overseas/LiteOS_Lab/iot_link/oc/oc_lwm2m/atiny_lwm2m\agenttiny.c ****  * param:
 198:C:/Users/dtjld/Desktop/AIoT_software/LiteOS_Lab_overseas/LiteOS_Lab/iot_link/oc/oc_lwm2m/atiny_lwm2m\agenttiny.c ****  *     in:  atiny_params
 199:C:/Users/dtjld/Desktop/AIoT_software/LiteOS_Lab_overseas/LiteOS_Lab/iot_link/oc/oc_lwm2m/atiny_lwm2m\agenttiny.c ****  *     out: lwm2m_context
 200:C:/Users/dtjld/Desktop/AIoT_software/LiteOS_Lab_overseas/LiteOS_Lab/iot_link/oc/oc_lwm2m/atiny_lwm2m\agenttiny.c ****  */
 201:C:/Users/dtjld/Desktop/AIoT_software/LiteOS_Lab_overseas/LiteOS_Lab/iot_link/oc/oc_lwm2m/atiny_lwm2m\agenttiny.c **** void atiny_set_bootstrap_sequence_state(atiny_param_t *atiny_params, lwm2m_context_t *lwm2m_context
 202:C:/Users/dtjld/Desktop/AIoT_software/LiteOS_Lab_overseas/LiteOS_Lab/iot_link/oc/oc_lwm2m/atiny_lwm2m\agenttiny.c **** {
 526              		.loc 3 202 0
 527              		.cfi_startproc
 528              		@ args = 0, pretend = 0, frame = 8
 529              		@ frame_needed = 1, uses_anonymous_args = 0
 530 0000 80B5     		push	{r7, lr}
 531              	.LCFI22:
 532              		.cfi_def_cfa_offset 8
 533              		.cfi_offset 7, -8
 534              		.cfi_offset 14, -4
 535 0002 82B0     		sub	sp, sp, #8
 536              	.LCFI23:
 537              		.cfi_def_cfa_offset 16
 538 0004 00AF     		add	r7, sp, #0
 539              	.LCFI24:
 540              		.cfi_def_cfa_register 7
 541 0006 7860     		str	r0, [r7, #4]
 542 0008 3960     		str	r1, [r7]
 203:C:/Users/dtjld/Desktop/AIoT_software/LiteOS_Lab_overseas/LiteOS_Lab/iot_link/oc/oc_lwm2m/atiny_lwm2m\agenttiny.c ****     (void)lwm2m_initBootStrap(lwm2m_context, atiny_params->server_params.bootstrap_mode);
 543              		.loc 3 203 0
 544 000a 7B68     		ldr	r3, [r7, #4]
 545 000c 1B7B     		ldrb	r3, [r3, #12]	@ zero_extendqisi2
 546 000e 1946     		mov	r1, r3
 547 0010 3868     		ldr	r0, [r7]
 548 0012 FFF7FEFF 		bl	lwm2m_initBootStrap
 204:C:/Users/dtjld/Desktop/AIoT_software/LiteOS_Lab_overseas/LiteOS_Lab/iot_link/oc/oc_lwm2m/atiny_lwm2m\agenttiny.c **** }
 549              		.loc 3 204 0
 550 0016 00BF     		nop
 551 0018 0837     		adds	r7, r7, #8
 552              	.LCFI25:
 553              		.cfi_def_cfa_offset 8
 554 001a BD46     		mov	sp, r7
 555              	.LCFI26:
 556              		.cfi_def_cfa_register 13
 557              		@ sp needed
 558 001c 80BD     		pop	{r7, pc}
ARM GAS  C:\Users\dtjld\AppData\Local\Temp\ccIjCgHN.s 			page 23


 559              		.cfi_endproc
 560              	.LFE16:
 562              		.section	.rodata
 563              		.align	2
 564              	.LC7:
 565 01e8 5B25735D 		.ascii	"[%s][%u][%s:%d] Trying to init objects\015\012\000"
 565      5B25755D 
 565      5B25733A 
 565      25645D20 
 565      54727969 
 566 0211 000000   		.align	2
 567              	.LC8:
 568 0214 5B25735D 		.ascii	"[%s][%u][%s:%d] lwm2m_init fail\015\012\000"
 568      5B25755D 
 568      5B25733A 
 568      25645D20 
 568      6C776D32 
 569 0236 0000     		.align	2
 570              	.LC9:
 571 0238 5B25735D 		.ascii	"[%s][%u][%s:%d] osal_mutex_create fail\015\012\000"
 571      5B25755D 
 571      5B25733A 
 571      25645D20 
 571      6F73616C 
 572 0261 000000   		.align	2
 573              	.LC10:
 574 0264 5B25735D 		.ascii	"[%s][%u][%s:%d] Failed to create security object\015"
 574      5B25755D 
 574      5B25733A 
 574      25645D20 
 574      4661696C 
 575 0295 0A00     		.ascii	"\012\000"
 576 0297 00       		.align	2
 577              	.LC11:
 578 0298 5B25735D 		.ascii	"[%s][%u][%s:%d] Failed to create server object\015\012"
 578      5B25755D 
 578      5B25733A 
 578      25645D20 
 578      4661696C 
 579 02c8 00       		.ascii	"\000"
 580 02c9 000000   		.align	2
 581              	.LC12:
 582 02cc 5B25735D 		.ascii	"[%s][%u][%s:%d] Failed to create access control obj"
 582      5B25755D 
 582      5B25733A 
 582      25645D20 
 582      4661696C 
 583 02ff 6563740D 		.ascii	"ect\015\012\000"
 583      0A00
 584 0305 000000   		.align	2
 585              	.LC13:
 586 0308 5B25735D 		.ascii	"[%s][%u][%s:%d] Failed to create device object\015\012"
 586      5B25755D 
 586      5B25733A 
 586      25645D20 
 586      4661696C 
 587 0338 00       		.ascii	"\000"
ARM GAS  C:\Users\dtjld\AppData\Local\Temp\ccIjCgHN.s 			page 24


 588 0339 000000   		.align	2
 589              	.LC14:
 590 033c 5B25735D 		.ascii	"[%s][%u][%s:%d] Failed to create connect object\015"
 590      5B25755D 
 590      5B25733A 
 590      25645D20 
 590      4661696C 
 591 036c 0A00     		.ascii	"\012\000"
 592 036e 0000     		.align	2
 593              	.LC15:
 594 0370 5B25735D 		.ascii	"[%s][%u][%s:%d] Failed to create location object\015"
 594      5B25755D 
 594      5B25733A 
 594      25645D20 
 594      4661696C 
 595 03a1 0A00     		.ascii	"\012\000"
 596 03a3 00       		.align	2
 597              	.LC16:
 598 03a4 5B25735D 		.ascii	"[%s][%u][%s:%d] Failed to create app object\015\012"
 598      5B25755D 
 598      5B25733A 
 598      25645D20 
 598      4661696C 
 599 03d1 00       		.ascii	"\000"
 600              		.section	.text.atiny_init_objects,"ax",%progbits
 601              		.align	1
 602              		.global	atiny_init_objects
 603              		.syntax unified
 604              		.thumb
 605              		.thumb_func
 606              		.fpu fpv4-sp-d16
 608              	atiny_init_objects:
 609              	.LFB17:
 205:C:/Users/dtjld/Desktop/AIoT_software/LiteOS_Lab_overseas/LiteOS_Lab/iot_link/oc/oc_lwm2m/atiny_lwm2m\agenttiny.c **** 
 206:C:/Users/dtjld/Desktop/AIoT_software/LiteOS_Lab_overseas/LiteOS_Lab/iot_link/oc/oc_lwm2m/atiny_lwm2m\agenttiny.c **** 
 207:C:/Users/dtjld/Desktop/AIoT_software/LiteOS_Lab_overseas/LiteOS_Lab/iot_link/oc/oc_lwm2m/atiny_lwm2m\agenttiny.c **** 
 208:C:/Users/dtjld/Desktop/AIoT_software/LiteOS_Lab_overseas/LiteOS_Lab/iot_link/oc/oc_lwm2m/atiny_lwm2m\agenttiny.c **** /*
 209:C:/Users/dtjld/Desktop/AIoT_software/LiteOS_Lab_overseas/LiteOS_Lab/iot_link/oc/oc_lwm2m/atiny_lwm2m\agenttiny.c **** * modify info:
 210:C:/Users/dtjld/Desktop/AIoT_software/LiteOS_Lab_overseas/LiteOS_Lab/iot_link/oc/oc_lwm2m/atiny_lwm2m\agenttiny.c **** *     date:    2018-05-30
 211:C:/Users/dtjld/Desktop/AIoT_software/LiteOS_Lab_overseas/LiteOS_Lab/iot_link/oc/oc_lwm2m/atiny_lwm2m\agenttiny.c **** *     reason:  modify for bootstrap mode, origin code only support FACTORY mode.
 212:C:/Users/dtjld/Desktop/AIoT_software/LiteOS_Lab_overseas/LiteOS_Lab/iot_link/oc/oc_lwm2m/atiny_lwm2m\agenttiny.c **** */
 213:C:/Users/dtjld/Desktop/AIoT_software/LiteOS_Lab_overseas/LiteOS_Lab/iot_link/oc/oc_lwm2m/atiny_lwm2m\agenttiny.c **** int atiny_init_objects(atiny_param_t *atiny_params, const atiny_device_info_t *device_info, handle_
 214:C:/Users/dtjld/Desktop/AIoT_software/LiteOS_Lab_overseas/LiteOS_Lab/iot_link/oc/oc_lwm2m/atiny_lwm2m\agenttiny.c **** {
 610              		.loc 3 214 0
 611              		.cfi_startproc
 612              		@ args = 0, pretend = 0, frame = 40
 613              		@ frame_needed = 1, uses_anonymous_args = 0
 614 0000 B0B5     		push	{r4, r5, r7, lr}
 615              	.LCFI27:
 616              		.cfi_def_cfa_offset 16
 617              		.cfi_offset 4, -16
 618              		.cfi_offset 5, -12
 619              		.cfi_offset 7, -8
 620              		.cfi_offset 14, -4
 621 0002 8CB0     		sub	sp, sp, #48
 622              	.LCFI28:
 623              		.cfi_def_cfa_offset 64
ARM GAS  C:\Users\dtjld\AppData\Local\Temp\ccIjCgHN.s 			page 25


 624 0004 02AF     		add	r7, sp, #8
 625              	.LCFI29:
 626              		.cfi_def_cfa 7, 56
 627 0006 F860     		str	r0, [r7, #12]
 628 0008 B960     		str	r1, [r7, #8]
 629 000a 7A60     		str	r2, [r7, #4]
 215:C:/Users/dtjld/Desktop/AIoT_software/LiteOS_Lab_overseas/LiteOS_Lab/iot_link/oc/oc_lwm2m/atiny_lwm2m\agenttiny.c ****     int result;
 216:C:/Users/dtjld/Desktop/AIoT_software/LiteOS_Lab_overseas/LiteOS_Lab/iot_link/oc/oc_lwm2m/atiny_lwm2m\agenttiny.c ****     client_data_t *pdata;
 217:C:/Users/dtjld/Desktop/AIoT_software/LiteOS_Lab_overseas/LiteOS_Lab/iot_link/oc/oc_lwm2m/atiny_lwm2m\agenttiny.c ****     lwm2m_context_t *lwm2m_context = NULL;
 630              		.loc 3 217 0
 631 000c 0023     		movs	r3, #0
 632 000e 7B62     		str	r3, [r7, #36]
 218:C:/Users/dtjld/Desktop/AIoT_software/LiteOS_Lab_overseas/LiteOS_Lab/iot_link/oc/oc_lwm2m/atiny_lwm2m\agenttiny.c ****     uint16_t serverId = SERVER_ID;
 633              		.loc 3 218 0
 634 0010 7B23     		movs	r3, #123
 635 0012 7B84     		strh	r3, [r7, #34]	@ movhi
 219:C:/Users/dtjld/Desktop/AIoT_software/LiteOS_Lab_overseas/LiteOS_Lab/iot_link/oc/oc_lwm2m/atiny_lwm2m\agenttiny.c ****     char *epname = (char *)device_info->endpoint_name;
 636              		.loc 3 219 0
 637 0014 BB68     		ldr	r3, [r7, #8]
 638 0016 1B68     		ldr	r3, [r3]
 639 0018 FB61     		str	r3, [r7, #28]
 220:C:/Users/dtjld/Desktop/AIoT_software/LiteOS_Lab_overseas/LiteOS_Lab/iot_link/oc/oc_lwm2m/atiny_lwm2m\agenttiny.c **** 
 221:C:/Users/dtjld/Desktop/AIoT_software/LiteOS_Lab_overseas/LiteOS_Lab/iot_link/oc/oc_lwm2m/atiny_lwm2m\agenttiny.c **** 
 222:C:/Users/dtjld/Desktop/AIoT_software/LiteOS_Lab_overseas/LiteOS_Lab/iot_link/oc/oc_lwm2m/atiny_lwm2m\agenttiny.c **** 
 223:C:/Users/dtjld/Desktop/AIoT_software/LiteOS_Lab_overseas/LiteOS_Lab/iot_link/oc/oc_lwm2m/atiny_lwm2m\agenttiny.c ****     pdata = &handle->client_data;
 640              		.loc 3 223 0
 641 001a 7B68     		ldr	r3, [r7, #4]
 642 001c 4433     		adds	r3, r3, #68
 643 001e BB61     		str	r3, [r7, #24]
 224:C:/Users/dtjld/Desktop/AIoT_software/LiteOS_Lab_overseas/LiteOS_Lab/iot_link/oc/oc_lwm2m/atiny_lwm2m\agenttiny.c ****     memset(pdata, 0, sizeof(client_data_t));
 644              		.loc 3 224 0
 645 0020 1022     		movs	r2, #16
 646 0022 0021     		movs	r1, #0
 647 0024 B869     		ldr	r0, [r7, #24]
 648 0026 FFF7FEFF 		bl	memset
 225:C:/Users/dtjld/Desktop/AIoT_software/LiteOS_Lab_overseas/LiteOS_Lab/iot_link/oc/oc_lwm2m/atiny_lwm2m\agenttiny.c **** 
 226:C:/Users/dtjld/Desktop/AIoT_software/LiteOS_Lab_overseas/LiteOS_Lab/iot_link/oc/oc_lwm2m/atiny_lwm2m\agenttiny.c ****     ATINY_LOG(LOG_INFO, "Trying to init objects");
 649              		.loc 3 226 0
 650 002a FFF7FEFF 		bl	atiny_get_log_level
 651 002e 0346     		mov	r3, r0
 652 0030 012B     		cmp	r3, #1
 653 0032 0FD8     		bhi	.L32
 654              		.loc 3 226 0 is_stmt 0 discriminator 1
 655 0034 0120     		movs	r0, #1
 656 0036 FFF7FEFF 		bl	atiny_get_log_level_name
 657 003a 0546     		mov	r5, r0
 658 003c FFF7FEFF 		bl	osal_sys_time
 659 0040 0346     		mov	r3, r0
 660 0042 0C46     		mov	r4, r1
 661 0044 1A46     		mov	r2, r3
 662 0046 E223     		movs	r3, #226
 663 0048 0093     		str	r3, [sp]
 664 004a BA4B     		ldr	r3, .L53
 665 004c 2946     		mov	r1, r5
 666 004e BA48     		ldr	r0, .L53+4
 667 0050 FFF7FEFF 		bl	atiny_printf
 668              	.L32:
ARM GAS  C:\Users\dtjld\AppData\Local\Temp\ccIjCgHN.s 			page 26


 227:C:/Users/dtjld/Desktop/AIoT_software/LiteOS_Lab_overseas/LiteOS_Lab/iot_link/oc/oc_lwm2m/atiny_lwm2m\agenttiny.c **** 
 228:C:/Users/dtjld/Desktop/AIoT_software/LiteOS_Lab_overseas/LiteOS_Lab/iot_link/oc/oc_lwm2m/atiny_lwm2m\agenttiny.c ****     lwm2m_context = lwm2m_init(pdata);
 669              		.loc 3 228 0 is_stmt 1
 670 0054 B869     		ldr	r0, [r7, #24]
 671 0056 FFF7FEFF 		bl	lwm2m_init
 672 005a 7862     		str	r0, [r7, #36]
 229:C:/Users/dtjld/Desktop/AIoT_software/LiteOS_Lab_overseas/LiteOS_Lab/iot_link/oc/oc_lwm2m/atiny_lwm2m\agenttiny.c ****     if (NULL == lwm2m_context)
 673              		.loc 3 229 0
 674 005c 7B6A     		ldr	r3, [r7, #36]
 675 005e 002B     		cmp	r3, #0
 676 0060 17D1     		bne	.L33
 230:C:/Users/dtjld/Desktop/AIoT_software/LiteOS_Lab_overseas/LiteOS_Lab/iot_link/oc/oc_lwm2m/atiny_lwm2m\agenttiny.c ****     {
 231:C:/Users/dtjld/Desktop/AIoT_software/LiteOS_Lab_overseas/LiteOS_Lab/iot_link/oc/oc_lwm2m/atiny_lwm2m\agenttiny.c ****         ATINY_LOG(LOG_FATAL, "lwm2m_init fail");
 677              		.loc 3 231 0
 678 0062 FFF7FEFF 		bl	atiny_get_log_level
 679 0066 0346     		mov	r3, r0
 680 0068 042B     		cmp	r3, #4
 681 006a 0FD8     		bhi	.L34
 682              		.loc 3 231 0 is_stmt 0 discriminator 1
 683 006c 0420     		movs	r0, #4
 684 006e FFF7FEFF 		bl	atiny_get_log_level_name
 685 0072 0546     		mov	r5, r0
 686 0074 FFF7FEFF 		bl	osal_sys_time
 687 0078 0346     		mov	r3, r0
 688 007a 0C46     		mov	r4, r1
 689 007c 1A46     		mov	r2, r3
 690 007e E723     		movs	r3, #231
 691 0080 0093     		str	r3, [sp]
 692 0082 AC4B     		ldr	r3, .L53
 693 0084 2946     		mov	r1, r5
 694 0086 AD48     		ldr	r0, .L53+8
 695 0088 FFF7FEFF 		bl	atiny_printf
 696              	.L34:
 232:C:/Users/dtjld/Desktop/AIoT_software/LiteOS_Lab_overseas/LiteOS_Lab/iot_link/oc/oc_lwm2m/atiny_lwm2m\agenttiny.c ****         return ATINY_MALLOC_FAILED;
 697              		.loc 3 232 0 is_stmt 1
 698 008c 6FF00303 		mvn	r3, #3
 699 0090 4CE1     		b	.L35
 700              	.L33:
 233:C:/Users/dtjld/Desktop/AIoT_software/LiteOS_Lab_overseas/LiteOS_Lab/iot_link/oc/oc_lwm2m/atiny_lwm2m\agenttiny.c ****     }
 234:C:/Users/dtjld/Desktop/AIoT_software/LiteOS_Lab_overseas/LiteOS_Lab/iot_link/oc/oc_lwm2m/atiny_lwm2m\agenttiny.c **** 
 235:C:/Users/dtjld/Desktop/AIoT_software/LiteOS_Lab_overseas/LiteOS_Lab/iot_link/oc/oc_lwm2m/atiny_lwm2m\agenttiny.c ****     if (false == osal_mutex_create(&lwm2m_context->observe_mutex))
 701              		.loc 3 235 0
 702 0092 7B6A     		ldr	r3, [r7, #36]
 703 0094 2033     		adds	r3, r3, #32
 704 0096 1846     		mov	r0, r3
 705 0098 FFF7FEFF 		bl	osal_mutex_create
 706 009c 0346     		mov	r3, r0
 707 009e 002B     		cmp	r3, #0
 708 00a0 1AD1     		bne	.L36
 236:C:/Users/dtjld/Desktop/AIoT_software/LiteOS_Lab_overseas/LiteOS_Lab/iot_link/oc/oc_lwm2m/atiny_lwm2m\agenttiny.c ****     {
 237:C:/Users/dtjld/Desktop/AIoT_software/LiteOS_Lab_overseas/LiteOS_Lab/iot_link/oc/oc_lwm2m/atiny_lwm2m\agenttiny.c ****         ATINY_LOG(LOG_FATAL, "osal_mutex_create fail");
 709              		.loc 3 237 0
 710 00a2 FFF7FEFF 		bl	atiny_get_log_level
 711 00a6 0346     		mov	r3, r0
 712 00a8 042B     		cmp	r3, #4
 713 00aa 0FD8     		bhi	.L37
 714              		.loc 3 237 0 is_stmt 0 discriminator 1
ARM GAS  C:\Users\dtjld\AppData\Local\Temp\ccIjCgHN.s 			page 27


 715 00ac 0420     		movs	r0, #4
 716 00ae FFF7FEFF 		bl	atiny_get_log_level_name
 717 00b2 0546     		mov	r5, r0
 718 00b4 FFF7FEFF 		bl	osal_sys_time
 719 00b8 0346     		mov	r3, r0
 720 00ba 0C46     		mov	r4, r1
 721 00bc 1A46     		mov	r2, r3
 722 00be ED23     		movs	r3, #237
 723 00c0 0093     		str	r3, [sp]
 724 00c2 9C4B     		ldr	r3, .L53
 725 00c4 2946     		mov	r1, r5
 726 00c6 9E48     		ldr	r0, .L53+12
 727 00c8 FFF7FEFF 		bl	atiny_printf
 728              	.L37:
 238:C:/Users/dtjld/Desktop/AIoT_software/LiteOS_Lab_overseas/LiteOS_Lab/iot_link/oc/oc_lwm2m/atiny_lwm2m\agenttiny.c ****         lwm2m_free(lwm2m_context);
 729              		.loc 3 238 0 is_stmt 1
 730 00cc 786A     		ldr	r0, [r7, #36]
 731 00ce FFF7FEFF 		bl	lwm2m_free
 239:C:/Users/dtjld/Desktop/AIoT_software/LiteOS_Lab_overseas/LiteOS_Lab/iot_link/oc/oc_lwm2m/atiny_lwm2m\agenttiny.c ****         return ATINY_RESOURCE_NOT_ENOUGH;
 732              		.loc 3 239 0
 733 00d2 6FF00503 		mvn	r3, #5
 734 00d6 29E1     		b	.L35
 735              	.L36:
 240:C:/Users/dtjld/Desktop/AIoT_software/LiteOS_Lab_overseas/LiteOS_Lab/iot_link/oc/oc_lwm2m/atiny_lwm2m\agenttiny.c ****     }
 241:C:/Users/dtjld/Desktop/AIoT_software/LiteOS_Lab_overseas/LiteOS_Lab/iot_link/oc/oc_lwm2m/atiny_lwm2m\agenttiny.c **** 
 242:C:/Users/dtjld/Desktop/AIoT_software/LiteOS_Lab_overseas/LiteOS_Lab/iot_link/oc/oc_lwm2m/atiny_lwm2m\agenttiny.c ****     pdata->lwm2mH = lwm2m_context;
 736              		.loc 3 242 0
 737 00d8 BB69     		ldr	r3, [r7, #24]
 738 00da 7A6A     		ldr	r2, [r7, #36]
 739 00dc DA60     		str	r2, [r3, #12]
 243:C:/Users/dtjld/Desktop/AIoT_software/LiteOS_Lab_overseas/LiteOS_Lab/iot_link/oc/oc_lwm2m/atiny_lwm2m\agenttiny.c **** 
 244:C:/Users/dtjld/Desktop/AIoT_software/LiteOS_Lab_overseas/LiteOS_Lab/iot_link/oc/oc_lwm2m/atiny_lwm2m\agenttiny.c ****     handle->lwm2m_context = lwm2m_context;
 740              		.loc 3 244 0
 741 00de 7B68     		ldr	r3, [r7, #4]
 742 00e0 7A6A     		ldr	r2, [r7, #36]
 743 00e2 1A60     		str	r2, [r3]
 245:C:/Users/dtjld/Desktop/AIoT_software/LiteOS_Lab_overseas/LiteOS_Lab/iot_link/oc/oc_lwm2m/atiny_lwm2m\agenttiny.c **** 
 246:C:/Users/dtjld/Desktop/AIoT_software/LiteOS_Lab_overseas/LiteOS_Lab/iot_link/oc/oc_lwm2m/atiny_lwm2m\agenttiny.c ****     //even if not in bootstrap sequence mode, still set it NO_BS_SEQUENCE_STATE
 247:C:/Users/dtjld/Desktop/AIoT_software/LiteOS_Lab_overseas/LiteOS_Lab/iot_link/oc/oc_lwm2m/atiny_lwm2m\agenttiny.c ****     atiny_set_bootstrap_sequence_state(atiny_params, lwm2m_context);
 744              		.loc 3 247 0
 745 00e4 796A     		ldr	r1, [r7, #36]
 746 00e6 F868     		ldr	r0, [r7, #12]
 747 00e8 FFF7FEFF 		bl	atiny_set_bootstrap_sequence_state
 248:C:/Users/dtjld/Desktop/AIoT_software/LiteOS_Lab_overseas/LiteOS_Lab/iot_link/oc/oc_lwm2m/atiny_lwm2m\agenttiny.c **** 
 249:C:/Users/dtjld/Desktop/AIoT_software/LiteOS_Lab_overseas/LiteOS_Lab/iot_link/oc/oc_lwm2m/atiny_lwm2m\agenttiny.c ****     handle->obj_array[OBJ_SECURITY_INDEX] = get_security_object(serverId, atiny_params, lwm2m_conte
 748              		.loc 3 249 0
 749 00ec 7B8C     		ldrh	r3, [r7, #34]
 750 00ee 7A6A     		ldr	r2, [r7, #36]
 751 00f0 F968     		ldr	r1, [r7, #12]
 752 00f2 1846     		mov	r0, r3
 753 00f4 FFF7FEFF 		bl	get_security_object
 754 00f8 0246     		mov	r2, r0
 755 00fa 7B68     		ldr	r3, [r7, #4]
 756 00fc 5A65     		str	r2, [r3, #84]
 250:C:/Users/dtjld/Desktop/AIoT_software/LiteOS_Lab_overseas/LiteOS_Lab/iot_link/oc/oc_lwm2m/atiny_lwm2m\agenttiny.c **** 
 251:C:/Users/dtjld/Desktop/AIoT_software/LiteOS_Lab_overseas/LiteOS_Lab/iot_link/oc/oc_lwm2m/atiny_lwm2m\agenttiny.c ****     if (NULL ==  handle->obj_array[OBJ_SECURITY_INDEX])
 757              		.loc 3 251 0
ARM GAS  C:\Users\dtjld\AppData\Local\Temp\ccIjCgHN.s 			page 28


 758 00fe 7B68     		ldr	r3, [r7, #4]
 759 0100 5B6D     		ldr	r3, [r3, #84]
 760 0102 002B     		cmp	r3, #0
 761 0104 17D1     		bne	.L38
 252:C:/Users/dtjld/Desktop/AIoT_software/LiteOS_Lab_overseas/LiteOS_Lab/iot_link/oc/oc_lwm2m/atiny_lwm2m\agenttiny.c ****     {
 253:C:/Users/dtjld/Desktop/AIoT_software/LiteOS_Lab_overseas/LiteOS_Lab/iot_link/oc/oc_lwm2m/atiny_lwm2m\agenttiny.c ****         ATINY_LOG(LOG_FATAL, "Failed to create security object");
 762              		.loc 3 253 0
 763 0106 FFF7FEFF 		bl	atiny_get_log_level
 764 010a 0346     		mov	r3, r0
 765 010c 042B     		cmp	r3, #4
 766 010e 0FD8     		bhi	.L39
 767              		.loc 3 253 0 is_stmt 0 discriminator 1
 768 0110 0420     		movs	r0, #4
 769 0112 FFF7FEFF 		bl	atiny_get_log_level_name
 770 0116 0546     		mov	r5, r0
 771 0118 FFF7FEFF 		bl	osal_sys_time
 772 011c 0346     		mov	r3, r0
 773 011e 0C46     		mov	r4, r1
 774 0120 1A46     		mov	r2, r3
 775 0122 FD23     		movs	r3, #253
 776 0124 0093     		str	r3, [sp]
 777 0126 834B     		ldr	r3, .L53
 778 0128 2946     		mov	r1, r5
 779 012a 8648     		ldr	r0, .L53+16
 780 012c FFF7FEFF 		bl	atiny_printf
 781              	.L39:
 254:C:/Users/dtjld/Desktop/AIoT_software/LiteOS_Lab_overseas/LiteOS_Lab/iot_link/oc/oc_lwm2m/atiny_lwm2m\agenttiny.c ****         return ATINY_MALLOC_FAILED;
 782              		.loc 3 254 0 is_stmt 1
 783 0130 6FF00303 		mvn	r3, #3
 784 0134 FAE0     		b	.L35
 785              	.L38:
 255:C:/Users/dtjld/Desktop/AIoT_software/LiteOS_Lab_overseas/LiteOS_Lab/iot_link/oc/oc_lwm2m/atiny_lwm2m\agenttiny.c ****     }
 256:C:/Users/dtjld/Desktop/AIoT_software/LiteOS_Lab_overseas/LiteOS_Lab/iot_link/oc/oc_lwm2m/atiny_lwm2m\agenttiny.c ****     pdata->securityObjP = handle->obj_array[OBJ_SECURITY_INDEX];
 786              		.loc 3 256 0
 787 0136 7B68     		ldr	r3, [r7, #4]
 788 0138 5A6D     		ldr	r2, [r3, #84]
 789 013a BB69     		ldr	r3, [r7, #24]
 790 013c 1A60     		str	r2, [r3]
 257:C:/Users/dtjld/Desktop/AIoT_software/LiteOS_Lab_overseas/LiteOS_Lab/iot_link/oc/oc_lwm2m/atiny_lwm2m\agenttiny.c **** 
 258:C:/Users/dtjld/Desktop/AIoT_software/LiteOS_Lab_overseas/LiteOS_Lab/iot_link/oc/oc_lwm2m/atiny_lwm2m\agenttiny.c ****     handle->obj_array[OBJ_SERVER_INDEX] = get_server_object(serverId, atiny_params->server_params.b
 791              		.loc 3 258 0
 792 013e 788C     		ldrh	r0, [r7, #34]
 793 0140 FB68     		ldr	r3, [r7, #12]
 794 0142 1968     		ldr	r1, [r3]
 795 0144 FB68     		ldr	r3, [r7, #12]
 796 0146 5A68     		ldr	r2, [r3, #4]
 259:C:/Users/dtjld/Desktop/AIoT_software/LiteOS_Lab_overseas/LiteOS_Lab/iot_link/oc/oc_lwm2m/atiny_lwm2m\agenttiny.c ****                                           atiny_params->server_params.life_time, atiny_params->serv
 797              		.loc 3 259 0
 798 0148 FB68     		ldr	r3, [r7, #12]
 799 014a 9B68     		ldr	r3, [r3, #8]
 258:C:/Users/dtjld/Desktop/AIoT_software/LiteOS_Lab_overseas/LiteOS_Lab/iot_link/oc/oc_lwm2m/atiny_lwm2m\agenttiny.c ****                                           atiny_params->server_params.life_time, atiny_params->serv
 800              		.loc 3 258 0
 801 014c 002B     		cmp	r3, #0
 802 014e 14BF     		ite	ne
 803 0150 0123     		movne	r3, #1
 804 0152 0023     		moveq	r3, #0
 805 0154 DBB2     		uxtb	r3, r3
ARM GAS  C:\Users\dtjld\AppData\Local\Temp\ccIjCgHN.s 			page 29


 806 0156 FFF7FEFF 		bl	get_server_object
 807 015a 0246     		mov	r2, r0
 808 015c 7B68     		ldr	r3, [r7, #4]
 809 015e 9A65     		str	r2, [r3, #88]
 260:C:/Users/dtjld/Desktop/AIoT_software/LiteOS_Lab_overseas/LiteOS_Lab/iot_link/oc/oc_lwm2m/atiny_lwm2m\agenttiny.c ****     if (NULL == handle->obj_array[OBJ_SERVER_INDEX])
 810              		.loc 3 260 0
 811 0160 7B68     		ldr	r3, [r7, #4]
 812 0162 9B6D     		ldr	r3, [r3, #88]
 813 0164 002B     		cmp	r3, #0
 814 0166 18D1     		bne	.L40
 261:C:/Users/dtjld/Desktop/AIoT_software/LiteOS_Lab_overseas/LiteOS_Lab/iot_link/oc/oc_lwm2m/atiny_lwm2m\agenttiny.c ****     {
 262:C:/Users/dtjld/Desktop/AIoT_software/LiteOS_Lab_overseas/LiteOS_Lab/iot_link/oc/oc_lwm2m/atiny_lwm2m\agenttiny.c ****         ATINY_LOG(LOG_FATAL, "Failed to create server object");
 815              		.loc 3 262 0
 816 0168 FFF7FEFF 		bl	atiny_get_log_level
 817 016c 0346     		mov	r3, r0
 818 016e 042B     		cmp	r3, #4
 819 0170 10D8     		bhi	.L41
 820              		.loc 3 262 0 is_stmt 0 discriminator 1
 821 0172 0420     		movs	r0, #4
 822 0174 FFF7FEFF 		bl	atiny_get_log_level_name
 823 0178 0546     		mov	r5, r0
 824 017a FFF7FEFF 		bl	osal_sys_time
 825 017e 0346     		mov	r3, r0
 826 0180 0C46     		mov	r4, r1
 827 0182 1A46     		mov	r2, r3
 828 0184 4FF48373 		mov	r3, #262
 829 0188 0093     		str	r3, [sp]
 830 018a 6A4B     		ldr	r3, .L53
 831 018c 2946     		mov	r1, r5
 832 018e 6E48     		ldr	r0, .L53+20
 833 0190 FFF7FEFF 		bl	atiny_printf
 834              	.L41:
 263:C:/Users/dtjld/Desktop/AIoT_software/LiteOS_Lab_overseas/LiteOS_Lab/iot_link/oc/oc_lwm2m/atiny_lwm2m\agenttiny.c ****         return ATINY_MALLOC_FAILED;
 835              		.loc 3 263 0 is_stmt 1
 836 0194 6FF00303 		mvn	r3, #3
 837 0198 C8E0     		b	.L35
 838              	.L40:
 264:C:/Users/dtjld/Desktop/AIoT_software/LiteOS_Lab_overseas/LiteOS_Lab/iot_link/oc/oc_lwm2m/atiny_lwm2m\agenttiny.c ****     }
 265:C:/Users/dtjld/Desktop/AIoT_software/LiteOS_Lab_overseas/LiteOS_Lab/iot_link/oc/oc_lwm2m/atiny_lwm2m\agenttiny.c **** 
 266:C:/Users/dtjld/Desktop/AIoT_software/LiteOS_Lab_overseas/LiteOS_Lab/iot_link/oc/oc_lwm2m/atiny_lwm2m\agenttiny.c ****     handle->obj_array[OBJ_ACCESS_CONTROL_INDEX] = acc_ctrl_create_object();
 839              		.loc 3 266 0
 840 019a FFF7FEFF 		bl	acc_ctrl_create_object
 841 019e 0246     		mov	r2, r0
 842 01a0 7B68     		ldr	r3, [r7, #4]
 843 01a2 DA65     		str	r2, [r3, #92]
 267:C:/Users/dtjld/Desktop/AIoT_software/LiteOS_Lab_overseas/LiteOS_Lab/iot_link/oc/oc_lwm2m/atiny_lwm2m\agenttiny.c ****     if (NULL == handle->obj_array[OBJ_ACCESS_CONTROL_INDEX])
 844              		.loc 3 267 0
 845 01a4 7B68     		ldr	r3, [r7, #4]
 846 01a6 DB6D     		ldr	r3, [r3, #92]
 847 01a8 002B     		cmp	r3, #0
 848 01aa 18D1     		bne	.L42
 268:C:/Users/dtjld/Desktop/AIoT_software/LiteOS_Lab_overseas/LiteOS_Lab/iot_link/oc/oc_lwm2m/atiny_lwm2m\agenttiny.c ****     {
 269:C:/Users/dtjld/Desktop/AIoT_software/LiteOS_Lab_overseas/LiteOS_Lab/iot_link/oc/oc_lwm2m/atiny_lwm2m\agenttiny.c ****         ATINY_LOG(LOG_FATAL, "Failed to create access control object");
 849              		.loc 3 269 0
 850 01ac FFF7FEFF 		bl	atiny_get_log_level
 851 01b0 0346     		mov	r3, r0
 852 01b2 042B     		cmp	r3, #4
ARM GAS  C:\Users\dtjld\AppData\Local\Temp\ccIjCgHN.s 			page 30


 853 01b4 10D8     		bhi	.L43
 854              		.loc 3 269 0 is_stmt 0 discriminator 1
 855 01b6 0420     		movs	r0, #4
 856 01b8 FFF7FEFF 		bl	atiny_get_log_level_name
 857 01bc 0546     		mov	r5, r0
 858 01be FFF7FEFF 		bl	osal_sys_time
 859 01c2 0346     		mov	r3, r0
 860 01c4 0C46     		mov	r4, r1
 861 01c6 1A46     		mov	r2, r3
 862 01c8 40F20D13 		movw	r3, #269
 863 01cc 0093     		str	r3, [sp]
 864 01ce 594B     		ldr	r3, .L53
 865 01d0 2946     		mov	r1, r5
 866 01d2 5E48     		ldr	r0, .L53+24
 867 01d4 FFF7FEFF 		bl	atiny_printf
 868              	.L43:
 270:C:/Users/dtjld/Desktop/AIoT_software/LiteOS_Lab_overseas/LiteOS_Lab/iot_link/oc/oc_lwm2m/atiny_lwm2m\agenttiny.c ****         return ATINY_MALLOC_FAILED;
 869              		.loc 3 270 0 is_stmt 1
 870 01d8 6FF00303 		mvn	r3, #3
 871 01dc A6E0     		b	.L35
 872              	.L42:
 271:C:/Users/dtjld/Desktop/AIoT_software/LiteOS_Lab_overseas/LiteOS_Lab/iot_link/oc/oc_lwm2m/atiny_lwm2m\agenttiny.c ****     }
 272:C:/Users/dtjld/Desktop/AIoT_software/LiteOS_Lab_overseas/LiteOS_Lab/iot_link/oc/oc_lwm2m/atiny_lwm2m\agenttiny.c **** 
 273:C:/Users/dtjld/Desktop/AIoT_software/LiteOS_Lab_overseas/LiteOS_Lab/iot_link/oc/oc_lwm2m/atiny_lwm2m\agenttiny.c ****     handle->obj_array[OBJ_DEVICE_INDEX] = get_object_device(atiny_params, device_info->manufacturer
 873              		.loc 3 273 0
 874 01de BB68     		ldr	r3, [r7, #8]
 875 01e0 5B68     		ldr	r3, [r3, #4]
 876 01e2 1946     		mov	r1, r3
 877 01e4 F868     		ldr	r0, [r7, #12]
 878 01e6 FFF7FEFF 		bl	get_object_device
 879 01ea 0246     		mov	r2, r0
 880 01ec 7B68     		ldr	r3, [r7, #4]
 881 01ee 1A66     		str	r2, [r3, #96]
 274:C:/Users/dtjld/Desktop/AIoT_software/LiteOS_Lab_overseas/LiteOS_Lab/iot_link/oc/oc_lwm2m/atiny_lwm2m\agenttiny.c ****     if (NULL == handle->obj_array[OBJ_DEVICE_INDEX])
 882              		.loc 3 274 0
 883 01f0 7B68     		ldr	r3, [r7, #4]
 884 01f2 1B6E     		ldr	r3, [r3, #96]
 885 01f4 002B     		cmp	r3, #0
 886 01f6 18D1     		bne	.L44
 275:C:/Users/dtjld/Desktop/AIoT_software/LiteOS_Lab_overseas/LiteOS_Lab/iot_link/oc/oc_lwm2m/atiny_lwm2m\agenttiny.c ****     {
 276:C:/Users/dtjld/Desktop/AIoT_software/LiteOS_Lab_overseas/LiteOS_Lab/iot_link/oc/oc_lwm2m/atiny_lwm2m\agenttiny.c ****         ATINY_LOG(LOG_FATAL, "Failed to create device object");
 887              		.loc 3 276 0
 888 01f8 FFF7FEFF 		bl	atiny_get_log_level
 889 01fc 0346     		mov	r3, r0
 890 01fe 042B     		cmp	r3, #4
 891 0200 10D8     		bhi	.L45
 892              		.loc 3 276 0 is_stmt 0 discriminator 1
 893 0202 0420     		movs	r0, #4
 894 0204 FFF7FEFF 		bl	atiny_get_log_level_name
 895 0208 0546     		mov	r5, r0
 896 020a FFF7FEFF 		bl	osal_sys_time
 897 020e 0346     		mov	r3, r0
 898 0210 0C46     		mov	r4, r1
 899 0212 1A46     		mov	r2, r3
 900 0214 4FF48A73 		mov	r3, #276
 901 0218 0093     		str	r3, [sp]
 902 021a 464B     		ldr	r3, .L53
ARM GAS  C:\Users\dtjld\AppData\Local\Temp\ccIjCgHN.s 			page 31


 903 021c 2946     		mov	r1, r5
 904 021e 4C48     		ldr	r0, .L53+28
 905 0220 FFF7FEFF 		bl	atiny_printf
 906              	.L45:
 277:C:/Users/dtjld/Desktop/AIoT_software/LiteOS_Lab_overseas/LiteOS_Lab/iot_link/oc/oc_lwm2m/atiny_lwm2m\agenttiny.c ****         return ATINY_MALLOC_FAILED;
 907              		.loc 3 277 0 is_stmt 1
 908 0224 6FF00303 		mvn	r3, #3
 909 0228 80E0     		b	.L35
 910              	.L44:
 278:C:/Users/dtjld/Desktop/AIoT_software/LiteOS_Lab_overseas/LiteOS_Lab/iot_link/oc/oc_lwm2m/atiny_lwm2m\agenttiny.c ****     }
 279:C:/Users/dtjld/Desktop/AIoT_software/LiteOS_Lab_overseas/LiteOS_Lab/iot_link/oc/oc_lwm2m/atiny_lwm2m\agenttiny.c **** 
 280:C:/Users/dtjld/Desktop/AIoT_software/LiteOS_Lab_overseas/LiteOS_Lab/iot_link/oc/oc_lwm2m/atiny_lwm2m\agenttiny.c ****     handle->obj_array[OBJ_CONNECT_INDEX] = get_object_conn_m(atiny_params);
 911              		.loc 3 280 0
 912 022a F868     		ldr	r0, [r7, #12]
 913 022c FFF7FEFF 		bl	get_object_conn_m
 914 0230 0246     		mov	r2, r0
 915 0232 7B68     		ldr	r3, [r7, #4]
 916 0234 5A66     		str	r2, [r3, #100]
 281:C:/Users/dtjld/Desktop/AIoT_software/LiteOS_Lab_overseas/LiteOS_Lab/iot_link/oc/oc_lwm2m/atiny_lwm2m\agenttiny.c ****     if (NULL == handle->obj_array[OBJ_CONNECT_INDEX])
 917              		.loc 3 281 0
 918 0236 7B68     		ldr	r3, [r7, #4]
 919 0238 5B6E     		ldr	r3, [r3, #100]
 920 023a 002B     		cmp	r3, #0
 921 023c 18D1     		bne	.L46
 282:C:/Users/dtjld/Desktop/AIoT_software/LiteOS_Lab_overseas/LiteOS_Lab/iot_link/oc/oc_lwm2m/atiny_lwm2m\agenttiny.c ****     {
 283:C:/Users/dtjld/Desktop/AIoT_software/LiteOS_Lab_overseas/LiteOS_Lab/iot_link/oc/oc_lwm2m/atiny_lwm2m\agenttiny.c ****         ATINY_LOG(LOG_FATAL, "Failed to create connect object");
 922              		.loc 3 283 0
 923 023e FFF7FEFF 		bl	atiny_get_log_level
 924 0242 0346     		mov	r3, r0
 925 0244 042B     		cmp	r3, #4
 926 0246 10D8     		bhi	.L47
 927              		.loc 3 283 0 is_stmt 0 discriminator 1
 928 0248 0420     		movs	r0, #4
 929 024a FFF7FEFF 		bl	atiny_get_log_level_name
 930 024e 0546     		mov	r5, r0
 931 0250 FFF7FEFF 		bl	osal_sys_time
 932 0254 0346     		mov	r3, r0
 933 0256 0C46     		mov	r4, r1
 934 0258 1A46     		mov	r2, r3
 935 025a 40F21B13 		movw	r3, #283
 936 025e 0093     		str	r3, [sp]
 937 0260 344B     		ldr	r3, .L53
 938 0262 2946     		mov	r1, r5
 939 0264 3B48     		ldr	r0, .L53+32
 940 0266 FFF7FEFF 		bl	atiny_printf
 941              	.L47:
 284:C:/Users/dtjld/Desktop/AIoT_software/LiteOS_Lab_overseas/LiteOS_Lab/iot_link/oc/oc_lwm2m/atiny_lwm2m\agenttiny.c ****         return ATINY_MALLOC_FAILED;
 942              		.loc 3 284 0 is_stmt 1
 943 026a 6FF00303 		mvn	r3, #3
 944 026e 5DE0     		b	.L35
 945              	.L46:
 285:C:/Users/dtjld/Desktop/AIoT_software/LiteOS_Lab_overseas/LiteOS_Lab/iot_link/oc/oc_lwm2m/atiny_lwm2m\agenttiny.c ****     }
 286:C:/Users/dtjld/Desktop/AIoT_software/LiteOS_Lab_overseas/LiteOS_Lab/iot_link/oc/oc_lwm2m/atiny_lwm2m\agenttiny.c **** 
 287:C:/Users/dtjld/Desktop/AIoT_software/LiteOS_Lab_overseas/LiteOS_Lab/iot_link/oc/oc_lwm2m/atiny_lwm2m\agenttiny.c ****     handle->obj_array[OBJ_FIRMWARE_INDEX] = get_object_firmware(atiny_params);
 946              		.loc 3 287 0
 947 0270 F868     		ldr	r0, [r7, #12]
 948 0272 FFF7FEFF 		bl	get_object_firmware
ARM GAS  C:\Users\dtjld\AppData\Local\Temp\ccIjCgHN.s 			page 32


 949 0276 0246     		mov	r2, r0
 950 0278 7B68     		ldr	r3, [r7, #4]
 951 027a 9A66     		str	r2, [r3, #104]
 288:C:/Users/dtjld/Desktop/AIoT_software/LiteOS_Lab_overseas/LiteOS_Lab/iot_link/oc/oc_lwm2m/atiny_lwm2m\agenttiny.c **** #ifdef CONFIG_FEATURE_FOTA
 289:C:/Users/dtjld/Desktop/AIoT_software/LiteOS_Lab_overseas/LiteOS_Lab/iot_link/oc/oc_lwm2m/atiny_lwm2m\agenttiny.c ****     if (NULL == handle->obj_array[OBJ_FIRMWARE_INDEX])
 290:C:/Users/dtjld/Desktop/AIoT_software/LiteOS_Lab_overseas/LiteOS_Lab/iot_link/oc/oc_lwm2m/atiny_lwm2m\agenttiny.c ****     {
 291:C:/Users/dtjld/Desktop/AIoT_software/LiteOS_Lab_overseas/LiteOS_Lab/iot_link/oc/oc_lwm2m/atiny_lwm2m\agenttiny.c ****         ATINY_LOG(LOG_FATAL, "Failed to create firmware object");
 292:C:/Users/dtjld/Desktop/AIoT_software/LiteOS_Lab_overseas/LiteOS_Lab/iot_link/oc/oc_lwm2m/atiny_lwm2m\agenttiny.c ****         return ATINY_MALLOC_FAILED;
 293:C:/Users/dtjld/Desktop/AIoT_software/LiteOS_Lab_overseas/LiteOS_Lab/iot_link/oc/oc_lwm2m/atiny_lwm2m\agenttiny.c ****     }
 294:C:/Users/dtjld/Desktop/AIoT_software/LiteOS_Lab_overseas/LiteOS_Lab/iot_link/oc/oc_lwm2m/atiny_lwm2m\agenttiny.c **** #endif
 295:C:/Users/dtjld/Desktop/AIoT_software/LiteOS_Lab_overseas/LiteOS_Lab/iot_link/oc/oc_lwm2m/atiny_lwm2m\agenttiny.c **** 
 296:C:/Users/dtjld/Desktop/AIoT_software/LiteOS_Lab_overseas/LiteOS_Lab/iot_link/oc/oc_lwm2m/atiny_lwm2m\agenttiny.c ****     handle->obj_array[OBJ_LOCATION_INDEX] = get_object_location();
 952              		.loc 3 296 0
 953 027c FFF7FEFF 		bl	get_object_location
 954 0280 0246     		mov	r2, r0
 955 0282 7B68     		ldr	r3, [r7, #4]
 956 0284 DA66     		str	r2, [r3, #108]
 297:C:/Users/dtjld/Desktop/AIoT_software/LiteOS_Lab_overseas/LiteOS_Lab/iot_link/oc/oc_lwm2m/atiny_lwm2m\agenttiny.c ****     if (NULL == handle->obj_array[OBJ_LOCATION_INDEX])
 957              		.loc 3 297 0
 958 0286 7B68     		ldr	r3, [r7, #4]
 959 0288 DB6E     		ldr	r3, [r3, #108]
 960 028a 002B     		cmp	r3, #0
 961 028c 18D1     		bne	.L48
 298:C:/Users/dtjld/Desktop/AIoT_software/LiteOS_Lab_overseas/LiteOS_Lab/iot_link/oc/oc_lwm2m/atiny_lwm2m\agenttiny.c ****     {
 299:C:/Users/dtjld/Desktop/AIoT_software/LiteOS_Lab_overseas/LiteOS_Lab/iot_link/oc/oc_lwm2m/atiny_lwm2m\agenttiny.c ****         ATINY_LOG(LOG_FATAL, "Failed to create location object");
 962              		.loc 3 299 0
 963 028e FFF7FEFF 		bl	atiny_get_log_level
 964 0292 0346     		mov	r3, r0
 965 0294 042B     		cmp	r3, #4
 966 0296 10D8     		bhi	.L49
 967              		.loc 3 299 0 is_stmt 0 discriminator 1
 968 0298 0420     		movs	r0, #4
 969 029a FFF7FEFF 		bl	atiny_get_log_level_name
 970 029e 0546     		mov	r5, r0
 971 02a0 FFF7FEFF 		bl	osal_sys_time
 972 02a4 0346     		mov	r3, r0
 973 02a6 0C46     		mov	r4, r1
 974 02a8 1A46     		mov	r2, r3
 975 02aa 40F22B13 		movw	r3, #299
 976 02ae 0093     		str	r3, [sp]
 977 02b0 204B     		ldr	r3, .L53
 978 02b2 2946     		mov	r1, r5
 979 02b4 2848     		ldr	r0, .L53+36
 980 02b6 FFF7FEFF 		bl	atiny_printf
 981              	.L49:
 300:C:/Users/dtjld/Desktop/AIoT_software/LiteOS_Lab_overseas/LiteOS_Lab/iot_link/oc/oc_lwm2m/atiny_lwm2m\agenttiny.c ****         return ATINY_MALLOC_FAILED;
 982              		.loc 3 300 0 is_stmt 1
 983 02ba 6FF00303 		mvn	r3, #3
 984 02be 35E0     		b	.L35
 985              	.L48:
 301:C:/Users/dtjld/Desktop/AIoT_software/LiteOS_Lab_overseas/LiteOS_Lab/iot_link/oc/oc_lwm2m/atiny_lwm2m\agenttiny.c ****     }
 302:C:/Users/dtjld/Desktop/AIoT_software/LiteOS_Lab_overseas/LiteOS_Lab/iot_link/oc/oc_lwm2m/atiny_lwm2m\agenttiny.c **** 
 303:C:/Users/dtjld/Desktop/AIoT_software/LiteOS_Lab_overseas/LiteOS_Lab/iot_link/oc/oc_lwm2m/atiny_lwm2m\agenttiny.c ****     handle->obj_array[OBJ_APP_INDEX] = get_binary_app_data_object(atiny_params);
 986              		.loc 3 303 0
 987 02c0 F868     		ldr	r0, [r7, #12]
 988 02c2 FFF7FEFF 		bl	get_binary_app_data_object
 989 02c6 0246     		mov	r2, r0
ARM GAS  C:\Users\dtjld\AppData\Local\Temp\ccIjCgHN.s 			page 33


 990 02c8 7B68     		ldr	r3, [r7, #4]
 991 02ca 1A67     		str	r2, [r3, #112]
 304:C:/Users/dtjld/Desktop/AIoT_software/LiteOS_Lab_overseas/LiteOS_Lab/iot_link/oc/oc_lwm2m/atiny_lwm2m\agenttiny.c ****     if (NULL == handle->obj_array[OBJ_APP_INDEX])
 992              		.loc 3 304 0
 993 02cc 7B68     		ldr	r3, [r7, #4]
 994 02ce 1B6F     		ldr	r3, [r3, #112]
 995 02d0 002B     		cmp	r3, #0
 996 02d2 18D1     		bne	.L50
 305:C:/Users/dtjld/Desktop/AIoT_software/LiteOS_Lab_overseas/LiteOS_Lab/iot_link/oc/oc_lwm2m/atiny_lwm2m\agenttiny.c ****     {
 306:C:/Users/dtjld/Desktop/AIoT_software/LiteOS_Lab_overseas/LiteOS_Lab/iot_link/oc/oc_lwm2m/atiny_lwm2m\agenttiny.c ****         ATINY_LOG(LOG_FATAL, "Failed to create app object");
 997              		.loc 3 306 0
 998 02d4 FFF7FEFF 		bl	atiny_get_log_level
 999 02d8 0346     		mov	r3, r0
 1000 02da 042B     		cmp	r3, #4
 1001 02dc 10D8     		bhi	.L51
 1002              		.loc 3 306 0 is_stmt 0 discriminator 1
 1003 02de 0420     		movs	r0, #4
 1004 02e0 FFF7FEFF 		bl	atiny_get_log_level_name
 1005 02e4 0546     		mov	r5, r0
 1006 02e6 FFF7FEFF 		bl	osal_sys_time
 1007 02ea 0346     		mov	r3, r0
 1008 02ec 0C46     		mov	r4, r1
 1009 02ee 1A46     		mov	r2, r3
 1010 02f0 4FF49973 		mov	r3, #306
 1011 02f4 0093     		str	r3, [sp]
 1012 02f6 0F4B     		ldr	r3, .L53
 1013 02f8 2946     		mov	r1, r5
 1014 02fa 1848     		ldr	r0, .L53+40
 1015 02fc FFF7FEFF 		bl	atiny_printf
 1016              	.L51:
 307:C:/Users/dtjld/Desktop/AIoT_software/LiteOS_Lab_overseas/LiteOS_Lab/iot_link/oc/oc_lwm2m/atiny_lwm2m\agenttiny.c ****         return ATINY_MALLOC_FAILED;
 1017              		.loc 3 307 0 is_stmt 1
 1018 0300 6FF00303 		mvn	r3, #3
 1019 0304 12E0     		b	.L35
 1020              	.L50:
 308:C:/Users/dtjld/Desktop/AIoT_software/LiteOS_Lab_overseas/LiteOS_Lab/iot_link/oc/oc_lwm2m/atiny_lwm2m\agenttiny.c ****     }
 309:C:/Users/dtjld/Desktop/AIoT_software/LiteOS_Lab_overseas/LiteOS_Lab/iot_link/oc/oc_lwm2m/atiny_lwm2m\agenttiny.c **** 
 310:C:/Users/dtjld/Desktop/AIoT_software/LiteOS_Lab_overseas/LiteOS_Lab/iot_link/oc/oc_lwm2m/atiny_lwm2m\agenttiny.c ****     result = lwm2m_configure(lwm2m_context, epname, NULL, NULL, OBJ_MAX_NUM, handle->obj_array);
 1021              		.loc 3 310 0
 1022 0306 7B68     		ldr	r3, [r7, #4]
 1023 0308 5433     		adds	r3, r3, #84
 1024 030a 0193     		str	r3, [sp, #4]
 1025 030c 0823     		movs	r3, #8
 1026 030e 0093     		str	r3, [sp]
 1027 0310 0023     		movs	r3, #0
 1028 0312 0022     		movs	r2, #0
 1029 0314 F969     		ldr	r1, [r7, #28]
 1030 0316 786A     		ldr	r0, [r7, #36]
 1031 0318 FFF7FEFF 		bl	lwm2m_configure
 1032 031c 7861     		str	r0, [r7, #20]
 311:C:/Users/dtjld/Desktop/AIoT_software/LiteOS_Lab_overseas/LiteOS_Lab/iot_link/oc/oc_lwm2m/atiny_lwm2m\agenttiny.c ****     if (result != 0)
 1033              		.loc 3 311 0
 1034 031e 7B69     		ldr	r3, [r7, #20]
 1035 0320 002B     		cmp	r3, #0
 1036 0322 02D0     		beq	.L52
 312:C:/Users/dtjld/Desktop/AIoT_software/LiteOS_Lab_overseas/LiteOS_Lab/iot_link/oc/oc_lwm2m/atiny_lwm2m\agenttiny.c ****     {
 313:C:/Users/dtjld/Desktop/AIoT_software/LiteOS_Lab_overseas/LiteOS_Lab/iot_link/oc/oc_lwm2m/atiny_lwm2m\agenttiny.c ****         return ATINY_RESOURCE_NOT_FOUND;
ARM GAS  C:\Users\dtjld\AppData\Local\Temp\ccIjCgHN.s 			page 34


 1037              		.loc 3 313 0
 1038 0324 6FF00403 		mvn	r3, #4
 1039 0328 00E0     		b	.L35
 1040              	.L52:
 314:C:/Users/dtjld/Desktop/AIoT_software/LiteOS_Lab_overseas/LiteOS_Lab/iot_link/oc/oc_lwm2m/atiny_lwm2m\agenttiny.c ****     }
 315:C:/Users/dtjld/Desktop/AIoT_software/LiteOS_Lab_overseas/LiteOS_Lab/iot_link/oc/oc_lwm2m/atiny_lwm2m\agenttiny.c **** 
 316:C:/Users/dtjld/Desktop/AIoT_software/LiteOS_Lab_overseas/LiteOS_Lab/iot_link/oc/oc_lwm2m/atiny_lwm2m\agenttiny.c ****     return ATINY_OK;
 1041              		.loc 3 316 0
 1042 032a 0023     		movs	r3, #0
 1043              	.L35:
 317:C:/Users/dtjld/Desktop/AIoT_software/LiteOS_Lab_overseas/LiteOS_Lab/iot_link/oc/oc_lwm2m/atiny_lwm2m\agenttiny.c **** }
 1044              		.loc 3 317 0
 1045 032c 1846     		mov	r0, r3
 1046 032e 2837     		adds	r7, r7, #40
 1047              	.LCFI30:
 1048              		.cfi_def_cfa_offset 16
 1049 0330 BD46     		mov	sp, r7
 1050              	.LCFI31:
 1051              		.cfi_def_cfa_register 13
 1052              		@ sp needed
 1053 0332 B0BD     		pop	{r4, r5, r7, pc}
 1054              	.L54:
 1055              		.align	2
 1056              	.L53:
 1057 0334 00000000 		.word	__FUNCTION__.8912
 1058 0338 E8010000 		.word	.LC7
 1059 033c 14020000 		.word	.LC8
 1060 0340 38020000 		.word	.LC9
 1061 0344 64020000 		.word	.LC10
 1062 0348 98020000 		.word	.LC11
 1063 034c CC020000 		.word	.LC12
 1064 0350 08030000 		.word	.LC13
 1065 0354 3C030000 		.word	.LC14
 1066 0358 70030000 		.word	.LC15
 1067 035c A4030000 		.word	.LC16
 1068              		.cfi_endproc
 1069              	.LFE17:
 1071              		.section	.rodata
 1072 03d2 0000     		.align	2
 1073              	.LC17:
 1074 03d4 5B25735D 		.ascii	"[%s][%u][%s:%d] no packet arrived!\015\012\000"
 1074      5B25755D 
 1074      5B25733A 
 1074      25645D20 
 1074      6E6F2070 
 1075              		.section	.text.lwm2m_poll,"ax",%progbits
 1076              		.align	1
 1077              		.syntax unified
 1078              		.thumb
 1079              		.thumb_func
 1080              		.fpu fpv4-sp-d16
 1082              	lwm2m_poll:
 1083              	.LFB18:
 318:C:/Users/dtjld/Desktop/AIoT_software/LiteOS_Lab_overseas/LiteOS_Lab/iot_link/oc/oc_lwm2m/atiny_lwm2m\agenttiny.c **** 
 319:C:/Users/dtjld/Desktop/AIoT_software/LiteOS_Lab_overseas/LiteOS_Lab/iot_link/oc/oc_lwm2m/atiny_lwm2m\agenttiny.c **** static int lwm2m_poll(handle_data_t *phandle, uint32_t *timeout)
 320:C:/Users/dtjld/Desktop/AIoT_software/LiteOS_Lab_overseas/LiteOS_Lab/iot_link/oc/oc_lwm2m/atiny_lwm2m\agenttiny.c **** {
 1084              		.loc 3 320 0
ARM GAS  C:\Users\dtjld\AppData\Local\Temp\ccIjCgHN.s 			page 35


 1085              		.cfi_startproc
 1086              		@ args = 0, pretend = 0, frame = 32
 1087              		@ frame_needed = 1, uses_anonymous_args = 0
 1088 0000 B0B5     		push	{r4, r5, r7, lr}
 1089              	.LCFI32:
 1090              		.cfi_def_cfa_offset 16
 1091              		.cfi_offset 4, -16
 1092              		.cfi_offset 5, -12
 1093              		.cfi_offset 7, -8
 1094              		.cfi_offset 14, -4
 1095 0002 8AB0     		sub	sp, sp, #40
 1096              	.LCFI33:
 1097              		.cfi_def_cfa_offset 56
 1098 0004 02AF     		add	r7, sp, #8
 1099              	.LCFI34:
 1100              		.cfi_def_cfa 7, 48
 1101 0006 7860     		str	r0, [r7, #4]
 1102 0008 3960     		str	r1, [r7]
 321:C:/Users/dtjld/Desktop/AIoT_software/LiteOS_Lab_overseas/LiteOS_Lab/iot_link/oc/oc_lwm2m/atiny_lwm2m\agenttiny.c ****     client_data_t *dataP;
 322:C:/Users/dtjld/Desktop/AIoT_software/LiteOS_Lab_overseas/LiteOS_Lab/iot_link/oc/oc_lwm2m/atiny_lwm2m\agenttiny.c ****     int numBytes;
 323:C:/Users/dtjld/Desktop/AIoT_software/LiteOS_Lab_overseas/LiteOS_Lab/iot_link/oc/oc_lwm2m/atiny_lwm2m\agenttiny.c ****     connection_t *connP;
 324:C:/Users/dtjld/Desktop/AIoT_software/LiteOS_Lab_overseas/LiteOS_Lab/iot_link/oc/oc_lwm2m/atiny_lwm2m\agenttiny.c ****     lwm2m_context_t *contextP = phandle->lwm2m_context;
 1103              		.loc 3 324 0
 1104 000a 7B68     		ldr	r3, [r7, #4]
 1105 000c 1B68     		ldr	r3, [r3]
 1106 000e BB61     		str	r3, [r7, #24]
 325:C:/Users/dtjld/Desktop/AIoT_software/LiteOS_Lab_overseas/LiteOS_Lab/iot_link/oc/oc_lwm2m/atiny_lwm2m\agenttiny.c ****     uint8_t *recv_buffer = phandle->recv_buffer;
 1107              		.loc 3 325 0
 1108 0010 7B68     		ldr	r3, [r7, #4]
 1109 0012 D3F88430 		ldr	r3, [r3, #132]
 1110 0016 7B61     		str	r3, [r7, #20]
 326:C:/Users/dtjld/Desktop/AIoT_software/LiteOS_Lab_overseas/LiteOS_Lab/iot_link/oc/oc_lwm2m/atiny_lwm2m\agenttiny.c **** 
 327:C:/Users/dtjld/Desktop/AIoT_software/LiteOS_Lab_overseas/LiteOS_Lab/iot_link/oc/oc_lwm2m/atiny_lwm2m\agenttiny.c ****     dataP = (client_data_t *)(contextP->userData);
 1111              		.loc 3 327 0
 1112 0018 BB69     		ldr	r3, [r7, #24]
 1113 001a 5B6B     		ldr	r3, [r3, #52]
 1114 001c 3B61     		str	r3, [r7, #16]
 328:C:/Users/dtjld/Desktop/AIoT_software/LiteOS_Lab_overseas/LiteOS_Lab/iot_link/oc/oc_lwm2m/atiny_lwm2m\agenttiny.c ****     connP = dataP->connList;
 1115              		.loc 3 328 0
 1116 001e 3B69     		ldr	r3, [r7, #16]
 1117 0020 9B68     		ldr	r3, [r3, #8]
 1118 0022 FB61     		str	r3, [r7, #28]
 329:C:/Users/dtjld/Desktop/AIoT_software/LiteOS_Lab_overseas/LiteOS_Lab/iot_link/oc/oc_lwm2m/atiny_lwm2m\agenttiny.c **** 
 330:C:/Users/dtjld/Desktop/AIoT_software/LiteOS_Lab_overseas/LiteOS_Lab/iot_link/oc/oc_lwm2m/atiny_lwm2m\agenttiny.c ****     while (connP != NULL)
 1119              		.loc 3 330 0
 1120 0024 33E0     		b	.L56
 1121              	.L60:
 331:C:/Users/dtjld/Desktop/AIoT_software/LiteOS_Lab_overseas/LiteOS_Lab/iot_link/oc/oc_lwm2m/atiny_lwm2m\agenttiny.c ****     {
 332:C:/Users/dtjld/Desktop/AIoT_software/LiteOS_Lab_overseas/LiteOS_Lab/iot_link/oc/oc_lwm2m/atiny_lwm2m\agenttiny.c ****         numBytes = lwm2m_buffer_recv(connP, recv_buffer, MAX_PACKET_SIZE, *timeout);
 1122              		.loc 3 332 0
 1123 0026 3B68     		ldr	r3, [r7]
 1124 0028 1B68     		ldr	r3, [r3]
 1125 002a 4FF48062 		mov	r2, #1024
 1126 002e 7969     		ldr	r1, [r7, #20]
 1127 0030 F869     		ldr	r0, [r7, #28]
 1128 0032 FFF7FEFF 		bl	lwm2m_buffer_recv
 1129 0036 F860     		str	r0, [r7, #12]
ARM GAS  C:\Users\dtjld\AppData\Local\Temp\ccIjCgHN.s 			page 36


 333:C:/Users/dtjld/Desktop/AIoT_software/LiteOS_Lab_overseas/LiteOS_Lab/iot_link/oc/oc_lwm2m/atiny_lwm2m\agenttiny.c ****         if (numBytes <= 0)
 1130              		.loc 3 333 0
 1131 0038 FB68     		ldr	r3, [r7, #12]
 1132 003a 002B     		cmp	r3, #0
 1133 003c 16DC     		bgt	.L57
 334:C:/Users/dtjld/Desktop/AIoT_software/LiteOS_Lab_overseas/LiteOS_Lab/iot_link/oc/oc_lwm2m/atiny_lwm2m\agenttiny.c ****         {
 335:C:/Users/dtjld/Desktop/AIoT_software/LiteOS_Lab_overseas/LiteOS_Lab/iot_link/oc/oc_lwm2m/atiny_lwm2m\agenttiny.c ****             ATINY_LOG(LOG_INFO, "no packet arrived!");
 1134              		.loc 3 335 0
 1135 003e FFF7FEFF 		bl	atiny_get_log_level
 1136 0042 0346     		mov	r3, r0
 1137 0044 012B     		cmp	r3, #1
 1138 0046 1FD8     		bhi	.L59
 1139              		.loc 3 335 0 is_stmt 0 discriminator 1
 1140 0048 0120     		movs	r0, #1
 1141 004a FFF7FEFF 		bl	atiny_get_log_level_name
 1142 004e 0546     		mov	r5, r0
 1143 0050 FFF7FEFF 		bl	osal_sys_time
 1144 0054 0346     		mov	r3, r0
 1145 0056 0C46     		mov	r4, r1
 1146 0058 1A46     		mov	r2, r3
 1147 005a 40F24F13 		movw	r3, #335
 1148 005e 0093     		str	r3, [sp]
 1149 0060 0F4B     		ldr	r3, .L62
 1150 0062 2946     		mov	r1, r5
 1151 0064 0F48     		ldr	r0, .L62+4
 1152 0066 FFF7FEFF 		bl	atiny_printf
 1153 006a 0DE0     		b	.L59
 1154              	.L57:
 336:C:/Users/dtjld/Desktop/AIoT_software/LiteOS_Lab_overseas/LiteOS_Lab/iot_link/oc/oc_lwm2m/atiny_lwm2m\agenttiny.c ****         }
 337:C:/Users/dtjld/Desktop/AIoT_software/LiteOS_Lab_overseas/LiteOS_Lab/iot_link/oc/oc_lwm2m/atiny_lwm2m\agenttiny.c ****         else
 338:C:/Users/dtjld/Desktop/AIoT_software/LiteOS_Lab_overseas/LiteOS_Lab/iot_link/oc/oc_lwm2m/atiny_lwm2m\agenttiny.c ****         {
 339:C:/Users/dtjld/Desktop/AIoT_software/LiteOS_Lab_overseas/LiteOS_Lab/iot_link/oc/oc_lwm2m/atiny_lwm2m\agenttiny.c ****             output_buffer(stderr, recv_buffer, numBytes, 0);
 1155              		.loc 3 339 0 is_stmt 1
 1156 006c 0E4B     		ldr	r3, .L62+8
 1157 006e 1B68     		ldr	r3, [r3]
 1158 0070 D868     		ldr	r0, [r3, #12]
 1159 0072 0023     		movs	r3, #0
 1160 0074 FA68     		ldr	r2, [r7, #12]
 1161 0076 7969     		ldr	r1, [r7, #20]
 1162 0078 FFF7FEFF 		bl	output_buffer
 340:C:/Users/dtjld/Desktop/AIoT_software/LiteOS_Lab_overseas/LiteOS_Lab/iot_link/oc/oc_lwm2m/atiny_lwm2m\agenttiny.c ****             lwm2m_handle_packet(contextP, recv_buffer, numBytes, connP);
 1163              		.loc 3 340 0
 1164 007c FB69     		ldr	r3, [r7, #28]
 1165 007e FA68     		ldr	r2, [r7, #12]
 1166 0080 7969     		ldr	r1, [r7, #20]
 1167 0082 B869     		ldr	r0, [r7, #24]
 1168 0084 FFF7FEFF 		bl	lwm2m_handle_packet
 1169              	.L59:
 341:C:/Users/dtjld/Desktop/AIoT_software/LiteOS_Lab_overseas/LiteOS_Lab/iot_link/oc/oc_lwm2m/atiny_lwm2m\agenttiny.c ****         }
 342:C:/Users/dtjld/Desktop/AIoT_software/LiteOS_Lab_overseas/LiteOS_Lab/iot_link/oc/oc_lwm2m/atiny_lwm2m\agenttiny.c ****         connP = connP->next;
 1170              		.loc 3 342 0
 1171 0088 FB69     		ldr	r3, [r7, #28]
 1172 008a 1B68     		ldr	r3, [r3]
 1173 008c FB61     		str	r3, [r7, #28]
 1174              	.L56:
 330:C:/Users/dtjld/Desktop/AIoT_software/LiteOS_Lab_overseas/LiteOS_Lab/iot_link/oc/oc_lwm2m/atiny_lwm2m\agenttiny.c ****     {
 1175              		.loc 3 330 0
ARM GAS  C:\Users\dtjld\AppData\Local\Temp\ccIjCgHN.s 			page 37


 1176 008e FB69     		ldr	r3, [r7, #28]
 1177 0090 002B     		cmp	r3, #0
 1178 0092 C8D1     		bne	.L60
 343:C:/Users/dtjld/Desktop/AIoT_software/LiteOS_Lab_overseas/LiteOS_Lab/iot_link/oc/oc_lwm2m/atiny_lwm2m\agenttiny.c ****     }
 344:C:/Users/dtjld/Desktop/AIoT_software/LiteOS_Lab_overseas/LiteOS_Lab/iot_link/oc/oc_lwm2m/atiny_lwm2m\agenttiny.c **** 
 345:C:/Users/dtjld/Desktop/AIoT_software/LiteOS_Lab_overseas/LiteOS_Lab/iot_link/oc/oc_lwm2m/atiny_lwm2m\agenttiny.c ****     return ATINY_OK;
 1179              		.loc 3 345 0
 1180 0094 0023     		movs	r3, #0
 346:C:/Users/dtjld/Desktop/AIoT_software/LiteOS_Lab_overseas/LiteOS_Lab/iot_link/oc/oc_lwm2m/atiny_lwm2m\agenttiny.c **** }
 1181              		.loc 3 346 0
 1182 0096 1846     		mov	r0, r3
 1183 0098 2037     		adds	r7, r7, #32
 1184              	.LCFI35:
 1185              		.cfi_def_cfa_offset 16
 1186 009a BD46     		mov	sp, r7
 1187              	.LCFI36:
 1188              		.cfi_def_cfa_register 13
 1189              		@ sp needed
 1190 009c B0BD     		pop	{r4, r5, r7, pc}
 1191              	.L63:
 1192 009e 00BF     		.align	2
 1193              	.L62:
 1194 00a0 00000000 		.word	__FUNCTION__.8922
 1195 00a4 D4030000 		.word	.LC17
 1196 00a8 00000000 		.word	_impure_ptr
 1197              		.cfi_endproc
 1198              	.LFE18:
 1200              		.section	.text.atiny_destroy,"ax",%progbits
 1201              		.align	1
 1202              		.global	atiny_destroy
 1203              		.syntax unified
 1204              		.thumb
 1205              		.thumb_func
 1206              		.fpu fpv4-sp-d16
 1208              	atiny_destroy:
 1209              	.LFB19:
 347:C:/Users/dtjld/Desktop/AIoT_software/LiteOS_Lab_overseas/LiteOS_Lab/iot_link/oc/oc_lwm2m/atiny_lwm2m\agenttiny.c **** 
 348:C:/Users/dtjld/Desktop/AIoT_software/LiteOS_Lab_overseas/LiteOS_Lab/iot_link/oc/oc_lwm2m/atiny_lwm2m\agenttiny.c **** void atiny_destroy(void *handle)
 349:C:/Users/dtjld/Desktop/AIoT_software/LiteOS_Lab_overseas/LiteOS_Lab/iot_link/oc/oc_lwm2m/atiny_lwm2m\agenttiny.c **** {
 1210              		.loc 3 349 0
 1211              		.cfi_startproc
 1212              		@ args = 0, pretend = 0, frame = 16
 1213              		@ frame_needed = 1, uses_anonymous_args = 0
 1214 0000 80B5     		push	{r7, lr}
 1215              	.LCFI37:
 1216              		.cfi_def_cfa_offset 8
 1217              		.cfi_offset 7, -8
 1218              		.cfi_offset 14, -4
 1219 0002 84B0     		sub	sp, sp, #16
 1220              	.LCFI38:
 1221              		.cfi_def_cfa_offset 24
 1222 0004 00AF     		add	r7, sp, #0
 1223              	.LCFI39:
 1224              		.cfi_def_cfa_register 7
 1225 0006 7860     		str	r0, [r7, #4]
 350:C:/Users/dtjld/Desktop/AIoT_software/LiteOS_Lab_overseas/LiteOS_Lab/iot_link/oc/oc_lwm2m/atiny_lwm2m\agenttiny.c ****     handle_data_t *handle_data = (handle_data_t *)handle;
 1226              		.loc 3 350 0
ARM GAS  C:\Users\dtjld\AppData\Local\Temp\ccIjCgHN.s 			page 38


 1227 0008 7B68     		ldr	r3, [r7, #4]
 1228 000a FB60     		str	r3, [r7, #12]
 351:C:/Users/dtjld/Desktop/AIoT_software/LiteOS_Lab_overseas/LiteOS_Lab/iot_link/oc/oc_lwm2m/atiny_lwm2m\agenttiny.c **** 
 352:C:/Users/dtjld/Desktop/AIoT_software/LiteOS_Lab_overseas/LiteOS_Lab/iot_link/oc/oc_lwm2m/atiny_lwm2m\agenttiny.c ****     if (handle_data == NULL)
 1229              		.loc 3 352 0
 1230 000c FB68     		ldr	r3, [r7, #12]
 1231 000e 002B     		cmp	r3, #0
 1232 0010 6FD0     		beq	.L78
 353:C:/Users/dtjld/Desktop/AIoT_software/LiteOS_Lab_overseas/LiteOS_Lab/iot_link/oc/oc_lwm2m/atiny_lwm2m\agenttiny.c ****     {
 354:C:/Users/dtjld/Desktop/AIoT_software/LiteOS_Lab_overseas/LiteOS_Lab/iot_link/oc/oc_lwm2m/atiny_lwm2m\agenttiny.c ****         return;
 355:C:/Users/dtjld/Desktop/AIoT_software/LiteOS_Lab_overseas/LiteOS_Lab/iot_link/oc/oc_lwm2m/atiny_lwm2m\agenttiny.c ****     }
 356:C:/Users/dtjld/Desktop/AIoT_software/LiteOS_Lab_overseas/LiteOS_Lab/iot_link/oc/oc_lwm2m/atiny_lwm2m\agenttiny.c **** #ifdef CONFIG_FEATURE_FOTA
 357:C:/Users/dtjld/Desktop/AIoT_software/LiteOS_Lab_overseas/LiteOS_Lab/iot_link/oc/oc_lwm2m/atiny_lwm2m\agenttiny.c ****     atiny_fota_manager_destroy(atiny_fota_manager_get_instance());
 358:C:/Users/dtjld/Desktop/AIoT_software/LiteOS_Lab_overseas/LiteOS_Lab/iot_link/oc/oc_lwm2m/atiny_lwm2m\agenttiny.c **** #endif
 359:C:/Users/dtjld/Desktop/AIoT_software/LiteOS_Lab_overseas/LiteOS_Lab/iot_link/oc/oc_lwm2m/atiny_lwm2m\agenttiny.c ****     if(handle_data->recv_buffer != NULL)
 1233              		.loc 3 359 0
 1234 0012 FB68     		ldr	r3, [r7, #12]
 1235 0014 D3F88430 		ldr	r3, [r3, #132]
 1236 0018 002B     		cmp	r3, #0
 1237 001a 05D0     		beq	.L67
 360:C:/Users/dtjld/Desktop/AIoT_software/LiteOS_Lab_overseas/LiteOS_Lab/iot_link/oc/oc_lwm2m/atiny_lwm2m\agenttiny.c ****     {
 361:C:/Users/dtjld/Desktop/AIoT_software/LiteOS_Lab_overseas/LiteOS_Lab/iot_link/oc/oc_lwm2m/atiny_lwm2m\agenttiny.c ****         lwm2m_free(handle_data->recv_buffer);
 1238              		.loc 3 361 0
 1239 001c FB68     		ldr	r3, [r7, #12]
 1240 001e D3F88430 		ldr	r3, [r3, #132]
 1241 0022 1846     		mov	r0, r3
 1242 0024 FFF7FEFF 		bl	lwm2m_free
 1243              	.L67:
 362:C:/Users/dtjld/Desktop/AIoT_software/LiteOS_Lab_overseas/LiteOS_Lab/iot_link/oc/oc_lwm2m/atiny_lwm2m\agenttiny.c ****     }
 363:C:/Users/dtjld/Desktop/AIoT_software/LiteOS_Lab_overseas/LiteOS_Lab/iot_link/oc/oc_lwm2m/atiny_lwm2m\agenttiny.c ****     if (handle_data->obj_array[OBJ_SECURITY_INDEX] != NULL)
 1244              		.loc 3 363 0
 1245 0028 FB68     		ldr	r3, [r7, #12]
 1246 002a 5B6D     		ldr	r3, [r3, #84]
 1247 002c 002B     		cmp	r3, #0
 1248 002e 04D0     		beq	.L68
 364:C:/Users/dtjld/Desktop/AIoT_software/LiteOS_Lab_overseas/LiteOS_Lab/iot_link/oc/oc_lwm2m/atiny_lwm2m\agenttiny.c ****     {
 365:C:/Users/dtjld/Desktop/AIoT_software/LiteOS_Lab_overseas/LiteOS_Lab/iot_link/oc/oc_lwm2m/atiny_lwm2m\agenttiny.c ****         clean_security_object(handle_data->obj_array[OBJ_SECURITY_INDEX]);
 1249              		.loc 3 365 0
 1250 0030 FB68     		ldr	r3, [r7, #12]
 1251 0032 5B6D     		ldr	r3, [r3, #84]
 1252 0034 1846     		mov	r0, r3
 1253 0036 FFF7FEFF 		bl	clean_security_object
 1254              	.L68:
 366:C:/Users/dtjld/Desktop/AIoT_software/LiteOS_Lab_overseas/LiteOS_Lab/iot_link/oc/oc_lwm2m/atiny_lwm2m\agenttiny.c ****     }
 367:C:/Users/dtjld/Desktop/AIoT_software/LiteOS_Lab_overseas/LiteOS_Lab/iot_link/oc/oc_lwm2m/atiny_lwm2m\agenttiny.c **** 
 368:C:/Users/dtjld/Desktop/AIoT_software/LiteOS_Lab_overseas/LiteOS_Lab/iot_link/oc/oc_lwm2m/atiny_lwm2m\agenttiny.c ****     if (handle_data->obj_array[OBJ_SERVER_INDEX] != NULL)
 1255              		.loc 3 368 0
 1256 003a FB68     		ldr	r3, [r7, #12]
 1257 003c 9B6D     		ldr	r3, [r3, #88]
 1258 003e 002B     		cmp	r3, #0
 1259 0040 04D0     		beq	.L69
 369:C:/Users/dtjld/Desktop/AIoT_software/LiteOS_Lab_overseas/LiteOS_Lab/iot_link/oc/oc_lwm2m/atiny_lwm2m\agenttiny.c ****     {
 370:C:/Users/dtjld/Desktop/AIoT_software/LiteOS_Lab_overseas/LiteOS_Lab/iot_link/oc/oc_lwm2m/atiny_lwm2m\agenttiny.c ****         clean_server_object(handle_data->obj_array[OBJ_SERVER_INDEX]);
 1260              		.loc 3 370 0
 1261 0042 FB68     		ldr	r3, [r7, #12]
 1262 0044 9B6D     		ldr	r3, [r3, #88]
 1263 0046 1846     		mov	r0, r3
ARM GAS  C:\Users\dtjld\AppData\Local\Temp\ccIjCgHN.s 			page 39


 1264 0048 FFF7FEFF 		bl	clean_server_object
 1265              	.L69:
 371:C:/Users/dtjld/Desktop/AIoT_software/LiteOS_Lab_overseas/LiteOS_Lab/iot_link/oc/oc_lwm2m/atiny_lwm2m\agenttiny.c ****     }
 372:C:/Users/dtjld/Desktop/AIoT_software/LiteOS_Lab_overseas/LiteOS_Lab/iot_link/oc/oc_lwm2m/atiny_lwm2m\agenttiny.c **** 
 373:C:/Users/dtjld/Desktop/AIoT_software/LiteOS_Lab_overseas/LiteOS_Lab/iot_link/oc/oc_lwm2m/atiny_lwm2m\agenttiny.c ****     if (handle_data->obj_array[OBJ_ACCESS_CONTROL_INDEX] != NULL)
 1266              		.loc 3 373 0
 1267 004c FB68     		ldr	r3, [r7, #12]
 1268 004e DB6D     		ldr	r3, [r3, #92]
 1269 0050 002B     		cmp	r3, #0
 1270 0052 04D0     		beq	.L70
 374:C:/Users/dtjld/Desktop/AIoT_software/LiteOS_Lab_overseas/LiteOS_Lab/iot_link/oc/oc_lwm2m/atiny_lwm2m\agenttiny.c ****     {
 375:C:/Users/dtjld/Desktop/AIoT_software/LiteOS_Lab_overseas/LiteOS_Lab/iot_link/oc/oc_lwm2m/atiny_lwm2m\agenttiny.c ****         acl_ctrl_free_object(handle_data->obj_array[OBJ_ACCESS_CONTROL_INDEX]);
 1271              		.loc 3 375 0
 1272 0054 FB68     		ldr	r3, [r7, #12]
 1273 0056 DB6D     		ldr	r3, [r3, #92]
 1274 0058 1846     		mov	r0, r3
 1275 005a FFF7FEFF 		bl	acl_ctrl_free_object
 1276              	.L70:
 376:C:/Users/dtjld/Desktop/AIoT_software/LiteOS_Lab_overseas/LiteOS_Lab/iot_link/oc/oc_lwm2m/atiny_lwm2m\agenttiny.c ****     }
 377:C:/Users/dtjld/Desktop/AIoT_software/LiteOS_Lab_overseas/LiteOS_Lab/iot_link/oc/oc_lwm2m/atiny_lwm2m\agenttiny.c **** 
 378:C:/Users/dtjld/Desktop/AIoT_software/LiteOS_Lab_overseas/LiteOS_Lab/iot_link/oc/oc_lwm2m/atiny_lwm2m\agenttiny.c ****     if (handle_data->obj_array[OBJ_DEVICE_INDEX] != NULL)
 1277              		.loc 3 378 0
 1278 005e FB68     		ldr	r3, [r7, #12]
 1279 0060 1B6E     		ldr	r3, [r3, #96]
 1280 0062 002B     		cmp	r3, #0
 1281 0064 04D0     		beq	.L71
 379:C:/Users/dtjld/Desktop/AIoT_software/LiteOS_Lab_overseas/LiteOS_Lab/iot_link/oc/oc_lwm2m/atiny_lwm2m\agenttiny.c ****     {
 380:C:/Users/dtjld/Desktop/AIoT_software/LiteOS_Lab_overseas/LiteOS_Lab/iot_link/oc/oc_lwm2m/atiny_lwm2m\agenttiny.c ****         free_object_device(handle_data->obj_array[OBJ_DEVICE_INDEX]);
 1282              		.loc 3 380 0
 1283 0066 FB68     		ldr	r3, [r7, #12]
 1284 0068 1B6E     		ldr	r3, [r3, #96]
 1285 006a 1846     		mov	r0, r3
 1286 006c FFF7FEFF 		bl	free_object_device
 1287              	.L71:
 381:C:/Users/dtjld/Desktop/AIoT_software/LiteOS_Lab_overseas/LiteOS_Lab/iot_link/oc/oc_lwm2m/atiny_lwm2m\agenttiny.c ****     }
 382:C:/Users/dtjld/Desktop/AIoT_software/LiteOS_Lab_overseas/LiteOS_Lab/iot_link/oc/oc_lwm2m/atiny_lwm2m\agenttiny.c **** 
 383:C:/Users/dtjld/Desktop/AIoT_software/LiteOS_Lab_overseas/LiteOS_Lab/iot_link/oc/oc_lwm2m/atiny_lwm2m\agenttiny.c ****     if (handle_data->obj_array[OBJ_CONNECT_INDEX] != NULL)
 1288              		.loc 3 383 0
 1289 0070 FB68     		ldr	r3, [r7, #12]
 1290 0072 5B6E     		ldr	r3, [r3, #100]
 1291 0074 002B     		cmp	r3, #0
 1292 0076 04D0     		beq	.L72
 384:C:/Users/dtjld/Desktop/AIoT_software/LiteOS_Lab_overseas/LiteOS_Lab/iot_link/oc/oc_lwm2m/atiny_lwm2m\agenttiny.c ****     {
 385:C:/Users/dtjld/Desktop/AIoT_software/LiteOS_Lab_overseas/LiteOS_Lab/iot_link/oc/oc_lwm2m/atiny_lwm2m\agenttiny.c ****         free_object_conn_m(handle_data->obj_array[OBJ_CONNECT_INDEX]);
 1293              		.loc 3 385 0
 1294 0078 FB68     		ldr	r3, [r7, #12]
 1295 007a 5B6E     		ldr	r3, [r3, #100]
 1296 007c 1846     		mov	r0, r3
 1297 007e FFF7FEFF 		bl	free_object_conn_m
 1298              	.L72:
 386:C:/Users/dtjld/Desktop/AIoT_software/LiteOS_Lab_overseas/LiteOS_Lab/iot_link/oc/oc_lwm2m/atiny_lwm2m\agenttiny.c ****     }
 387:C:/Users/dtjld/Desktop/AIoT_software/LiteOS_Lab_overseas/LiteOS_Lab/iot_link/oc/oc_lwm2m/atiny_lwm2m\agenttiny.c **** 
 388:C:/Users/dtjld/Desktop/AIoT_software/LiteOS_Lab_overseas/LiteOS_Lab/iot_link/oc/oc_lwm2m/atiny_lwm2m\agenttiny.c ****     if (handle_data->obj_array[OBJ_FIRMWARE_INDEX] != NULL)
 1299              		.loc 3 388 0
 1300 0082 FB68     		ldr	r3, [r7, #12]
 1301 0084 9B6E     		ldr	r3, [r3, #104]
 1302 0086 002B     		cmp	r3, #0
ARM GAS  C:\Users\dtjld\AppData\Local\Temp\ccIjCgHN.s 			page 40


 1303 0088 04D0     		beq	.L73
 389:C:/Users/dtjld/Desktop/AIoT_software/LiteOS_Lab_overseas/LiteOS_Lab/iot_link/oc/oc_lwm2m/atiny_lwm2m\agenttiny.c ****     {
 390:C:/Users/dtjld/Desktop/AIoT_software/LiteOS_Lab_overseas/LiteOS_Lab/iot_link/oc/oc_lwm2m/atiny_lwm2m\agenttiny.c ****         free_object_firmware(handle_data->obj_array[OBJ_FIRMWARE_INDEX]);
 1304              		.loc 3 390 0
 1305 008a FB68     		ldr	r3, [r7, #12]
 1306 008c 9B6E     		ldr	r3, [r3, #104]
 1307 008e 1846     		mov	r0, r3
 1308 0090 FFF7FEFF 		bl	free_object_firmware
 1309              	.L73:
 391:C:/Users/dtjld/Desktop/AIoT_software/LiteOS_Lab_overseas/LiteOS_Lab/iot_link/oc/oc_lwm2m/atiny_lwm2m\agenttiny.c ****     }
 392:C:/Users/dtjld/Desktop/AIoT_software/LiteOS_Lab_overseas/LiteOS_Lab/iot_link/oc/oc_lwm2m/atiny_lwm2m\agenttiny.c **** 
 393:C:/Users/dtjld/Desktop/AIoT_software/LiteOS_Lab_overseas/LiteOS_Lab/iot_link/oc/oc_lwm2m/atiny_lwm2m\agenttiny.c ****     if (handle_data->obj_array[OBJ_LOCATION_INDEX] != NULL)
 1310              		.loc 3 393 0
 1311 0094 FB68     		ldr	r3, [r7, #12]
 1312 0096 DB6E     		ldr	r3, [r3, #108]
 1313 0098 002B     		cmp	r3, #0
 1314 009a 04D0     		beq	.L74
 394:C:/Users/dtjld/Desktop/AIoT_software/LiteOS_Lab_overseas/LiteOS_Lab/iot_link/oc/oc_lwm2m/atiny_lwm2m\agenttiny.c ****     {
 395:C:/Users/dtjld/Desktop/AIoT_software/LiteOS_Lab_overseas/LiteOS_Lab/iot_link/oc/oc_lwm2m/atiny_lwm2m\agenttiny.c ****         free_object_location(handle_data->obj_array[OBJ_LOCATION_INDEX]);
 1315              		.loc 3 395 0
 1316 009c FB68     		ldr	r3, [r7, #12]
 1317 009e DB6E     		ldr	r3, [r3, #108]
 1318 00a0 1846     		mov	r0, r3
 1319 00a2 FFF7FEFF 		bl	free_object_location
 1320              	.L74:
 396:C:/Users/dtjld/Desktop/AIoT_software/LiteOS_Lab_overseas/LiteOS_Lab/iot_link/oc/oc_lwm2m/atiny_lwm2m\agenttiny.c ****     }
 397:C:/Users/dtjld/Desktop/AIoT_software/LiteOS_Lab_overseas/LiteOS_Lab/iot_link/oc/oc_lwm2m/atiny_lwm2m\agenttiny.c **** 
 398:C:/Users/dtjld/Desktop/AIoT_software/LiteOS_Lab_overseas/LiteOS_Lab/iot_link/oc/oc_lwm2m/atiny_lwm2m\agenttiny.c ****     if (handle_data->obj_array[OBJ_APP_INDEX] != NULL)
 1321              		.loc 3 398 0
 1322 00a6 FB68     		ldr	r3, [r7, #12]
 1323 00a8 1B6F     		ldr	r3, [r3, #112]
 1324 00aa 002B     		cmp	r3, #0
 1325 00ac 04D0     		beq	.L75
 399:C:/Users/dtjld/Desktop/AIoT_software/LiteOS_Lab_overseas/LiteOS_Lab/iot_link/oc/oc_lwm2m/atiny_lwm2m\agenttiny.c ****     {
 400:C:/Users/dtjld/Desktop/AIoT_software/LiteOS_Lab_overseas/LiteOS_Lab/iot_link/oc/oc_lwm2m/atiny_lwm2m\agenttiny.c ****         free_binary_app_data_object(handle_data->obj_array[OBJ_APP_INDEX]);
 1326              		.loc 3 400 0
 1327 00ae FB68     		ldr	r3, [r7, #12]
 1328 00b0 1B6F     		ldr	r3, [r3, #112]
 1329 00b2 1846     		mov	r0, r3
 1330 00b4 FFF7FEFF 		bl	free_binary_app_data_object
 1331              	.L75:
 401:C:/Users/dtjld/Desktop/AIoT_software/LiteOS_Lab_overseas/LiteOS_Lab/iot_link/oc/oc_lwm2m/atiny_lwm2m\agenttiny.c ****     }
 402:C:/Users/dtjld/Desktop/AIoT_software/LiteOS_Lab_overseas/LiteOS_Lab/iot_link/oc/oc_lwm2m/atiny_lwm2m\agenttiny.c ****     atiny_destroy_rpt();
 1332              		.loc 3 402 0
 1333 00b8 FFF7FEFF 		bl	atiny_destroy_rpt
 403:C:/Users/dtjld/Desktop/AIoT_software/LiteOS_Lab_overseas/LiteOS_Lab/iot_link/oc/oc_lwm2m/atiny_lwm2m\agenttiny.c **** 
 404:C:/Users/dtjld/Desktop/AIoT_software/LiteOS_Lab_overseas/LiteOS_Lab/iot_link/oc/oc_lwm2m/atiny_lwm2m\agenttiny.c ****     if (handle_data->lwm2m_context != NULL)
 1334              		.loc 3 404 0
 1335 00bc FB68     		ldr	r3, [r7, #12]
 1336 00be 1B68     		ldr	r3, [r3]
 1337 00c0 002B     		cmp	r3, #0
 1338 00c2 10D0     		beq	.L76
 405:C:/Users/dtjld/Desktop/AIoT_software/LiteOS_Lab_overseas/LiteOS_Lab/iot_link/oc/oc_lwm2m/atiny_lwm2m\agenttiny.c ****     {
 406:C:/Users/dtjld/Desktop/AIoT_software/LiteOS_Lab_overseas/LiteOS_Lab/iot_link/oc/oc_lwm2m/atiny_lwm2m\agenttiny.c ****         if (handle_data->lwm2m_context->observe_mutex != cn_mutex_invalid)
 1339              		.loc 3 406 0
 1340 00c4 FB68     		ldr	r3, [r7, #12]
 1341 00c6 1B68     		ldr	r3, [r3]
ARM GAS  C:\Users\dtjld\AppData\Local\Temp\ccIjCgHN.s 			page 41


 1342 00c8 1B6A     		ldr	r3, [r3, #32]
 1343 00ca B3F1FF3F 		cmp	r3, #-1
 1344 00ce 05D0     		beq	.L77
 407:C:/Users/dtjld/Desktop/AIoT_software/LiteOS_Lab_overseas/LiteOS_Lab/iot_link/oc/oc_lwm2m/atiny_lwm2m\agenttiny.c ****         {
 408:C:/Users/dtjld/Desktop/AIoT_software/LiteOS_Lab_overseas/LiteOS_Lab/iot_link/oc/oc_lwm2m/atiny_lwm2m\agenttiny.c ****             osal_mutex_del(handle_data->lwm2m_context->observe_mutex);
 1345              		.loc 3 408 0
 1346 00d0 FB68     		ldr	r3, [r7, #12]
 1347 00d2 1B68     		ldr	r3, [r3]
 1348 00d4 1B6A     		ldr	r3, [r3, #32]
 1349 00d6 1846     		mov	r0, r3
 1350 00d8 FFF7FEFF 		bl	osal_mutex_del
 1351              	.L77:
 409:C:/Users/dtjld/Desktop/AIoT_software/LiteOS_Lab_overseas/LiteOS_Lab/iot_link/oc/oc_lwm2m/atiny_lwm2m\agenttiny.c ****         }
 410:C:/Users/dtjld/Desktop/AIoT_software/LiteOS_Lab_overseas/LiteOS_Lab/iot_link/oc/oc_lwm2m/atiny_lwm2m\agenttiny.c ****         lwm2m_close(handle_data->lwm2m_context);
 1352              		.loc 3 410 0
 1353 00dc FB68     		ldr	r3, [r7, #12]
 1354 00de 1B68     		ldr	r3, [r3]
 1355 00e0 1846     		mov	r0, r3
 1356 00e2 FFF7FEFF 		bl	lwm2m_close
 1357              	.L76:
 411:C:/Users/dtjld/Desktop/AIoT_software/LiteOS_Lab_overseas/LiteOS_Lab/iot_link/oc/oc_lwm2m/atiny_lwm2m\agenttiny.c ****     }
 412:C:/Users/dtjld/Desktop/AIoT_software/LiteOS_Lab_overseas/LiteOS_Lab/iot_link/oc/oc_lwm2m/atiny_lwm2m\agenttiny.c ****     osal_semp_post(handle_data->quit_sem);
 1358              		.loc 3 412 0
 1359 00e6 FB68     		ldr	r3, [r7, #12]
 1360 00e8 DB6F     		ldr	r3, [r3, #124]
 1361 00ea 1846     		mov	r0, r3
 1362 00ec FFF7FEFF 		bl	osal_semp_post
 1363 00f0 00E0     		b	.L64
 1364              	.L78:
 354:C:/Users/dtjld/Desktop/AIoT_software/LiteOS_Lab_overseas/LiteOS_Lab/iot_link/oc/oc_lwm2m/atiny_lwm2m\agenttiny.c ****     }
 1365              		.loc 3 354 0
 1366 00f2 00BF     		nop
 1367              	.L64:
 413:C:/Users/dtjld/Desktop/AIoT_software/LiteOS_Lab_overseas/LiteOS_Lab/iot_link/oc/oc_lwm2m/atiny_lwm2m\agenttiny.c **** }
 1368              		.loc 3 413 0
 1369 00f4 1037     		adds	r7, r7, #16
 1370              	.LCFI40:
 1371              		.cfi_def_cfa_offset 8
 1372 00f6 BD46     		mov	sp, r7
 1373              	.LCFI41:
 1374              		.cfi_def_cfa_register 13
 1375              		@ sp needed
 1376 00f8 80BD     		pop	{r7, pc}
 1377              		.cfi_endproc
 1378              	.LFE19:
 1380              		.section	.text.atiny_event_handle,"ax",%progbits
 1381              		.align	1
 1382              		.global	atiny_event_handle
 1383              		.syntax unified
 1384              		.thumb
 1385              		.thumb_func
 1386              		.fpu fpv4-sp-d16
 1388              	atiny_event_handle:
 1389              	.LFB20:
 414:C:/Users/dtjld/Desktop/AIoT_software/LiteOS_Lab_overseas/LiteOS_Lab/iot_link/oc/oc_lwm2m/atiny_lwm2m\agenttiny.c **** 
 415:C:/Users/dtjld/Desktop/AIoT_software/LiteOS_Lab_overseas/LiteOS_Lab/iot_link/oc/oc_lwm2m/atiny_lwm2m\agenttiny.c **** void atiny_event_handle(module_type_t type, int code, const char *arg, int arg_len)
 416:C:/Users/dtjld/Desktop/AIoT_software/LiteOS_Lab_overseas/LiteOS_Lab/iot_link/oc/oc_lwm2m/atiny_lwm2m\agenttiny.c **** {
ARM GAS  C:\Users\dtjld\AppData\Local\Temp\ccIjCgHN.s 			page 42


 1390              		.loc 3 416 0
 1391              		.cfi_startproc
 1392              		@ args = 0, pretend = 0, frame = 24
 1393              		@ frame_needed = 1, uses_anonymous_args = 0
 1394 0000 80B5     		push	{r7, lr}
 1395              	.LCFI42:
 1396              		.cfi_def_cfa_offset 8
 1397              		.cfi_offset 7, -8
 1398              		.cfi_offset 14, -4
 1399 0002 86B0     		sub	sp, sp, #24
 1400              	.LCFI43:
 1401              		.cfi_def_cfa_offset 32
 1402 0004 00AF     		add	r7, sp, #0
 1403              	.LCFI44:
 1404              		.cfi_def_cfa_register 7
 1405 0006 B960     		str	r1, [r7, #8]
 1406 0008 7A60     		str	r2, [r7, #4]
 1407 000a 3B60     		str	r3, [r7]
 1408 000c 0346     		mov	r3, r0
 1409 000e FB73     		strb	r3, [r7, #15]
 417:C:/Users/dtjld/Desktop/AIoT_software/LiteOS_Lab_overseas/LiteOS_Lab/iot_link/oc/oc_lwm2m/atiny_lwm2m\agenttiny.c ****     switch (type)
 1410              		.loc 3 417 0
 1411 0010 FB7B     		ldrb	r3, [r7, #15]	@ zero_extendqisi2
 1412 0012 012B     		cmp	r3, #1
 1413 0014 46D0     		beq	.L90
 1414 0016 022B     		cmp	r3, #2
 1415 0018 14D0     		beq	.L82
 1416 001a 002B     		cmp	r3, #0
 1417 001c 00D0     		beq	.L83
 418:C:/Users/dtjld/Desktop/AIoT_software/LiteOS_Lab_overseas/LiteOS_Lab/iot_link/oc/oc_lwm2m/atiny_lwm2m\agenttiny.c ****     {
 419:C:/Users/dtjld/Desktop/AIoT_software/LiteOS_Lab_overseas/LiteOS_Lab/iot_link/oc/oc_lwm2m/atiny_lwm2m\agenttiny.c ****     case MODULE_LWM2M:
 420:C:/Users/dtjld/Desktop/AIoT_software/LiteOS_Lab_overseas/LiteOS_Lab/iot_link/oc/oc_lwm2m/atiny_lwm2m\agenttiny.c ****     {
 421:C:/Users/dtjld/Desktop/AIoT_software/LiteOS_Lab_overseas/LiteOS_Lab/iot_link/oc/oc_lwm2m/atiny_lwm2m\agenttiny.c ****         if (code == STATE_REGISTERED)
 422:C:/Users/dtjld/Desktop/AIoT_software/LiteOS_Lab_overseas/LiteOS_Lab/iot_link/oc/oc_lwm2m/atiny_lwm2m\agenttiny.c ****         {
 423:C:/Users/dtjld/Desktop/AIoT_software/LiteOS_Lab_overseas/LiteOS_Lab/iot_link/oc/oc_lwm2m/atiny_lwm2m\agenttiny.c ****             atiny_event_notify(ATINY_REG_OK, NULL, 0);
 424:C:/Users/dtjld/Desktop/AIoT_software/LiteOS_Lab_overseas/LiteOS_Lab/iot_link/oc/oc_lwm2m/atiny_lwm2m\agenttiny.c **** #ifdef CONFIG_FEATURE_FOTA
 425:C:/Users/dtjld/Desktop/AIoT_software/LiteOS_Lab_overseas/LiteOS_Lab/iot_link/oc/oc_lwm2m/atiny_lwm2m\agenttiny.c ****             (void)atiny_fota_manager_repot_result(atiny_fota_manager_get_instance());
 426:C:/Users/dtjld/Desktop/AIoT_software/LiteOS_Lab_overseas/LiteOS_Lab/iot_link/oc/oc_lwm2m/atiny_lwm2m\agenttiny.c **** #endif
 427:C:/Users/dtjld/Desktop/AIoT_software/LiteOS_Lab_overseas/LiteOS_Lab/iot_link/oc/oc_lwm2m/atiny_lwm2m\agenttiny.c ****         }
 428:C:/Users/dtjld/Desktop/AIoT_software/LiteOS_Lab_overseas/LiteOS_Lab/iot_link/oc/oc_lwm2m/atiny_lwm2m\agenttiny.c ****         else if (code == STATE_REG_FAILED)
 429:C:/Users/dtjld/Desktop/AIoT_software/LiteOS_Lab_overseas/LiteOS_Lab/iot_link/oc/oc_lwm2m/atiny_lwm2m\agenttiny.c ****         {
 430:C:/Users/dtjld/Desktop/AIoT_software/LiteOS_Lab_overseas/LiteOS_Lab/iot_link/oc/oc_lwm2m/atiny_lwm2m\agenttiny.c ****             atiny_event_notify(ATINY_REG_FAIL, NULL, 0);
 431:C:/Users/dtjld/Desktop/AIoT_software/LiteOS_Lab_overseas/LiteOS_Lab/iot_link/oc/oc_lwm2m/atiny_lwm2m\agenttiny.c **** 
 432:C:/Users/dtjld/Desktop/AIoT_software/LiteOS_Lab_overseas/LiteOS_Lab/iot_link/oc/oc_lwm2m/atiny_lwm2m\agenttiny.c ****         }
 433:C:/Users/dtjld/Desktop/AIoT_software/LiteOS_Lab_overseas/LiteOS_Lab/iot_link/oc/oc_lwm2m/atiny_lwm2m\agenttiny.c ****         break;
 434:C:/Users/dtjld/Desktop/AIoT_software/LiteOS_Lab_overseas/LiteOS_Lab/iot_link/oc/oc_lwm2m/atiny_lwm2m\agenttiny.c ****     }
 435:C:/Users/dtjld/Desktop/AIoT_software/LiteOS_Lab_overseas/LiteOS_Lab/iot_link/oc/oc_lwm2m/atiny_lwm2m\agenttiny.c ****     case MODULE_NET:
 436:C:/Users/dtjld/Desktop/AIoT_software/LiteOS_Lab_overseas/LiteOS_Lab/iot_link/oc/oc_lwm2m/atiny_lwm2m\agenttiny.c ****     {
 437:C:/Users/dtjld/Desktop/AIoT_software/LiteOS_Lab_overseas/LiteOS_Lab/iot_link/oc/oc_lwm2m/atiny_lwm2m\agenttiny.c ****         break;
 438:C:/Users/dtjld/Desktop/AIoT_software/LiteOS_Lab_overseas/LiteOS_Lab/iot_link/oc/oc_lwm2m/atiny_lwm2m\agenttiny.c ****     }
 439:C:/Users/dtjld/Desktop/AIoT_software/LiteOS_Lab_overseas/LiteOS_Lab/iot_link/oc/oc_lwm2m/atiny_lwm2m\agenttiny.c ****     case MODULE_URI:
 440:C:/Users/dtjld/Desktop/AIoT_software/LiteOS_Lab_overseas/LiteOS_Lab/iot_link/oc/oc_lwm2m/atiny_lwm2m\agenttiny.c ****     {
 441:C:/Users/dtjld/Desktop/AIoT_software/LiteOS_Lab_overseas/LiteOS_Lab/iot_link/oc/oc_lwm2m/atiny_lwm2m\agenttiny.c ****         if ((arg == NULL) || (arg_len < sizeof(lwm2m_uri_t)))
 442:C:/Users/dtjld/Desktop/AIoT_software/LiteOS_Lab_overseas/LiteOS_Lab/iot_link/oc/oc_lwm2m/atiny_lwm2m\agenttiny.c ****         {
 443:C:/Users/dtjld/Desktop/AIoT_software/LiteOS_Lab_overseas/LiteOS_Lab/iot_link/oc/oc_lwm2m/atiny_lwm2m\agenttiny.c ****             break;
 444:C:/Users/dtjld/Desktop/AIoT_software/LiteOS_Lab_overseas/LiteOS_Lab/iot_link/oc/oc_lwm2m/atiny_lwm2m\agenttiny.c ****         }
 445:C:/Users/dtjld/Desktop/AIoT_software/LiteOS_Lab_overseas/LiteOS_Lab/iot_link/oc/oc_lwm2m/atiny_lwm2m\agenttiny.c **** 
ARM GAS  C:\Users\dtjld\AppData\Local\Temp\ccIjCgHN.s 			page 43


 446:C:/Users/dtjld/Desktop/AIoT_software/LiteOS_Lab_overseas/LiteOS_Lab/iot_link/oc/oc_lwm2m/atiny_lwm2m\agenttiny.c ****         if (code == OBSERVE_UNSUBSCRIBE)
 447:C:/Users/dtjld/Desktop/AIoT_software/LiteOS_Lab_overseas/LiteOS_Lab/iot_link/oc/oc_lwm2m/atiny_lwm2m\agenttiny.c ****         {
 448:C:/Users/dtjld/Desktop/AIoT_software/LiteOS_Lab_overseas/LiteOS_Lab/iot_link/oc/oc_lwm2m/atiny_lwm2m\agenttiny.c ****             if (dm_isUriOpaqueHandle((lwm2m_uri_t *)arg))
 449:C:/Users/dtjld/Desktop/AIoT_software/LiteOS_Lab_overseas/LiteOS_Lab/iot_link/oc/oc_lwm2m/atiny_lwm2m\agenttiny.c ****             {
 450:C:/Users/dtjld/Desktop/AIoT_software/LiteOS_Lab_overseas/LiteOS_Lab/iot_link/oc/oc_lwm2m/atiny_lwm2m\agenttiny.c ****                 atiny_report_type_e rpt_type = APP_DATA;
 451:C:/Users/dtjld/Desktop/AIoT_software/LiteOS_Lab_overseas/LiteOS_Lab/iot_link/oc/oc_lwm2m/atiny_lwm2m\agenttiny.c ****                 atiny_event_notify(ATINY_DATA_UNSUBSCRIBLE, (char *)&rpt_type, sizeof(rpt_type));
 452:C:/Users/dtjld/Desktop/AIoT_software/LiteOS_Lab_overseas/LiteOS_Lab/iot_link/oc/oc_lwm2m/atiny_lwm2m\agenttiny.c ****             }
 453:C:/Users/dtjld/Desktop/AIoT_software/LiteOS_Lab_overseas/LiteOS_Lab/iot_link/oc/oc_lwm2m/atiny_lwm2m\agenttiny.c ****             (void)atiny_clear_rpt_data((lwm2m_uri_t *)arg, SENT_FAIL);
 454:C:/Users/dtjld/Desktop/AIoT_software/LiteOS_Lab_overseas/LiteOS_Lab/iot_link/oc/oc_lwm2m/atiny_lwm2m\agenttiny.c ****         }
 455:C:/Users/dtjld/Desktop/AIoT_software/LiteOS_Lab_overseas/LiteOS_Lab/iot_link/oc/oc_lwm2m/atiny_lwm2m\agenttiny.c ****         else if (code == OBSERVE_SUBSCRIBE)
 456:C:/Users/dtjld/Desktop/AIoT_software/LiteOS_Lab_overseas/LiteOS_Lab/iot_link/oc/oc_lwm2m/atiny_lwm2m\agenttiny.c ****         {
 457:C:/Users/dtjld/Desktop/AIoT_software/LiteOS_Lab_overseas/LiteOS_Lab/iot_link/oc/oc_lwm2m/atiny_lwm2m\agenttiny.c ****             if (dm_isUriOpaqueHandle((lwm2m_uri_t *)arg))
 458:C:/Users/dtjld/Desktop/AIoT_software/LiteOS_Lab_overseas/LiteOS_Lab/iot_link/oc/oc_lwm2m/atiny_lwm2m\agenttiny.c ****             {
 459:C:/Users/dtjld/Desktop/AIoT_software/LiteOS_Lab_overseas/LiteOS_Lab/iot_link/oc/oc_lwm2m/atiny_lwm2m\agenttiny.c ****                 atiny_report_type_e rpt_type = APP_DATA;
 460:C:/Users/dtjld/Desktop/AIoT_software/LiteOS_Lab_overseas/LiteOS_Lab/iot_link/oc/oc_lwm2m/atiny_lwm2m\agenttiny.c ****                 atiny_event_notify(ATINY_DATA_SUBSCRIBLE, (char *)&rpt_type, sizeof(rpt_type));
 461:C:/Users/dtjld/Desktop/AIoT_software/LiteOS_Lab_overseas/LiteOS_Lab/iot_link/oc/oc_lwm2m/atiny_lwm2m\agenttiny.c ****             }
 462:C:/Users/dtjld/Desktop/AIoT_software/LiteOS_Lab_overseas/LiteOS_Lab/iot_link/oc/oc_lwm2m/atiny_lwm2m\agenttiny.c ****         }
 463:C:/Users/dtjld/Desktop/AIoT_software/LiteOS_Lab_overseas/LiteOS_Lab/iot_link/oc/oc_lwm2m/atiny_lwm2m\agenttiny.c **** 
 464:C:/Users/dtjld/Desktop/AIoT_software/LiteOS_Lab_overseas/LiteOS_Lab/iot_link/oc/oc_lwm2m/atiny_lwm2m\agenttiny.c ****         break;
 465:C:/Users/dtjld/Desktop/AIoT_software/LiteOS_Lab_overseas/LiteOS_Lab/iot_link/oc/oc_lwm2m/atiny_lwm2m\agenttiny.c ****     }
 466:C:/Users/dtjld/Desktop/AIoT_software/LiteOS_Lab_overseas/LiteOS_Lab/iot_link/oc/oc_lwm2m/atiny_lwm2m\agenttiny.c ****     default:
 467:C:/Users/dtjld/Desktop/AIoT_software/LiteOS_Lab_overseas/LiteOS_Lab/iot_link/oc/oc_lwm2m/atiny_lwm2m\agenttiny.c ****     {
 468:C:/Users/dtjld/Desktop/AIoT_software/LiteOS_Lab_overseas/LiteOS_Lab/iot_link/oc/oc_lwm2m/atiny_lwm2m\agenttiny.c ****         break;
 1418              		.loc 3 468 0
 1419 001e 46E0     		b	.L86
 1420              	.L83:
 421:C:/Users/dtjld/Desktop/AIoT_software/LiteOS_Lab_overseas/LiteOS_Lab/iot_link/oc/oc_lwm2m/atiny_lwm2m\agenttiny.c ****         {
 1421              		.loc 3 421 0
 1422 0020 BB68     		ldr	r3, [r7, #8]
 1423 0022 022B     		cmp	r3, #2
 1424 0024 05D1     		bne	.L84
 423:C:/Users/dtjld/Desktop/AIoT_software/LiteOS_Lab_overseas/LiteOS_Lab/iot_link/oc/oc_lwm2m/atiny_lwm2m\agenttiny.c **** #ifdef CONFIG_FEATURE_FOTA
 1425              		.loc 3 423 0
 1426 0026 0022     		movs	r2, #0
 1427 0028 0021     		movs	r1, #0
 1428 002a 0020     		movs	r0, #0
 1429 002c FFF7FEFF 		bl	atiny_event_notify
 433:C:/Users/dtjld/Desktop/AIoT_software/LiteOS_Lab_overseas/LiteOS_Lab/iot_link/oc/oc_lwm2m/atiny_lwm2m\agenttiny.c ****     }
 1430              		.loc 3 433 0
 1431 0030 3AE0     		b	.L91
 1432              	.L84:
 428:C:/Users/dtjld/Desktop/AIoT_software/LiteOS_Lab_overseas/LiteOS_Lab/iot_link/oc/oc_lwm2m/atiny_lwm2m\agenttiny.c ****         {
 1433              		.loc 3 428 0
 1434 0032 BB68     		ldr	r3, [r7, #8]
 1435 0034 032B     		cmp	r3, #3
 1436 0036 37D1     		bne	.L91
 430:C:/Users/dtjld/Desktop/AIoT_software/LiteOS_Lab_overseas/LiteOS_Lab/iot_link/oc/oc_lwm2m/atiny_lwm2m\agenttiny.c **** 
 1437              		.loc 3 430 0
 1438 0038 0022     		movs	r2, #0
 1439 003a 0021     		movs	r1, #0
 1440 003c 0120     		movs	r0, #1
 1441 003e FFF7FEFF 		bl	atiny_event_notify
 433:C:/Users/dtjld/Desktop/AIoT_software/LiteOS_Lab_overseas/LiteOS_Lab/iot_link/oc/oc_lwm2m/atiny_lwm2m\agenttiny.c ****     }
 1442              		.loc 3 433 0
 1443 0042 31E0     		b	.L91
 1444              	.L82:
 441:C:/Users/dtjld/Desktop/AIoT_software/LiteOS_Lab_overseas/LiteOS_Lab/iot_link/oc/oc_lwm2m/atiny_lwm2m\agenttiny.c ****         {
ARM GAS  C:\Users\dtjld\AppData\Local\Temp\ccIjCgHN.s 			page 44


 1445              		.loc 3 441 0
 1446 0044 7B68     		ldr	r3, [r7, #4]
 1447 0046 002B     		cmp	r3, #0
 1448 0048 31D0     		beq	.L92
 441:C:/Users/dtjld/Desktop/AIoT_software/LiteOS_Lab_overseas/LiteOS_Lab/iot_link/oc/oc_lwm2m/atiny_lwm2m\agenttiny.c ****         {
 1449              		.loc 3 441 0 is_stmt 0 discriminator 1
 1450 004a 3B68     		ldr	r3, [r7]
 1451 004c 072B     		cmp	r3, #7
 1452 004e 2ED9     		bls	.L92
 446:C:/Users/dtjld/Desktop/AIoT_software/LiteOS_Lab_overseas/LiteOS_Lab/iot_link/oc/oc_lwm2m/atiny_lwm2m\agenttiny.c ****         {
 1453              		.loc 3 446 0 is_stmt 1
 1454 0050 BB68     		ldr	r3, [r7, #8]
 1455 0052 002B     		cmp	r3, #0
 1456 0054 13D1     		bne	.L87
 448:C:/Users/dtjld/Desktop/AIoT_software/LiteOS_Lab_overseas/LiteOS_Lab/iot_link/oc/oc_lwm2m/atiny_lwm2m\agenttiny.c ****             {
 1457              		.loc 3 448 0
 1458 0056 7868     		ldr	r0, [r7, #4]
 1459 0058 FFF7FEFF 		bl	dm_isUriOpaqueHandle
 1460 005c 0346     		mov	r3, r0
 1461 005e 002B     		cmp	r3, #0
 1462 0060 08D0     		beq	.L88
 1463              	.LBB2:
 450:C:/Users/dtjld/Desktop/AIoT_software/LiteOS_Lab_overseas/LiteOS_Lab/iot_link/oc/oc_lwm2m/atiny_lwm2m\agenttiny.c ****                 atiny_event_notify(ATINY_DATA_UNSUBSCRIBLE, (char *)&rpt_type, sizeof(rpt_type));
 1464              		.loc 3 450 0
 1465 0062 0123     		movs	r3, #1
 1466 0064 FB75     		strb	r3, [r7, #23]
 451:C:/Users/dtjld/Desktop/AIoT_software/LiteOS_Lab_overseas/LiteOS_Lab/iot_link/oc/oc_lwm2m/atiny_lwm2m\agenttiny.c ****             }
 1467              		.loc 3 451 0
 1468 0066 07F11703 		add	r3, r7, #23
 1469 006a 0122     		movs	r2, #1
 1470 006c 1946     		mov	r1, r3
 1471 006e 0320     		movs	r0, #3
 1472 0070 FFF7FEFF 		bl	atiny_event_notify
 1473              	.L88:
 1474              	.LBE2:
 453:C:/Users/dtjld/Desktop/AIoT_software/LiteOS_Lab_overseas/LiteOS_Lab/iot_link/oc/oc_lwm2m/atiny_lwm2m\agenttiny.c ****         }
 1475              		.loc 3 453 0
 1476 0074 0221     		movs	r1, #2
 1477 0076 7868     		ldr	r0, [r7, #4]
 1478 0078 FFF7FEFF 		bl	atiny_clear_rpt_data
 464:C:/Users/dtjld/Desktop/AIoT_software/LiteOS_Lab_overseas/LiteOS_Lab/iot_link/oc/oc_lwm2m/atiny_lwm2m\agenttiny.c ****     }
 1479              		.loc 3 464 0
 1480 007c 16E0     		b	.L93
 1481              	.L87:
 455:C:/Users/dtjld/Desktop/AIoT_software/LiteOS_Lab_overseas/LiteOS_Lab/iot_link/oc/oc_lwm2m/atiny_lwm2m\agenttiny.c ****         {
 1482              		.loc 3 455 0
 1483 007e BB68     		ldr	r3, [r7, #8]
 1484 0080 012B     		cmp	r3, #1
 1485 0082 13D1     		bne	.L93
 457:C:/Users/dtjld/Desktop/AIoT_software/LiteOS_Lab_overseas/LiteOS_Lab/iot_link/oc/oc_lwm2m/atiny_lwm2m\agenttiny.c ****             {
 1486              		.loc 3 457 0
 1487 0084 7868     		ldr	r0, [r7, #4]
 1488 0086 FFF7FEFF 		bl	dm_isUriOpaqueHandle
 1489 008a 0346     		mov	r3, r0
 1490 008c 002B     		cmp	r3, #0
 1491 008e 0DD0     		beq	.L93
 1492              	.LBB3:
ARM GAS  C:\Users\dtjld\AppData\Local\Temp\ccIjCgHN.s 			page 45


 459:C:/Users/dtjld/Desktop/AIoT_software/LiteOS_Lab_overseas/LiteOS_Lab/iot_link/oc/oc_lwm2m/atiny_lwm2m\agenttiny.c ****                 atiny_event_notify(ATINY_DATA_SUBSCRIBLE, (char *)&rpt_type, sizeof(rpt_type));
 1493              		.loc 3 459 0
 1494 0090 0123     		movs	r3, #1
 1495 0092 BB75     		strb	r3, [r7, #22]
 460:C:/Users/dtjld/Desktop/AIoT_software/LiteOS_Lab_overseas/LiteOS_Lab/iot_link/oc/oc_lwm2m/atiny_lwm2m\agenttiny.c ****             }
 1496              		.loc 3 460 0
 1497 0094 07F11603 		add	r3, r7, #22
 1498 0098 0122     		movs	r2, #1
 1499 009a 1946     		mov	r1, r3
 1500 009c 0220     		movs	r0, #2
 1501 009e FFF7FEFF 		bl	atiny_event_notify
 1502              	.LBE3:
 464:C:/Users/dtjld/Desktop/AIoT_software/LiteOS_Lab_overseas/LiteOS_Lab/iot_link/oc/oc_lwm2m/atiny_lwm2m\agenttiny.c ****     }
 1503              		.loc 3 464 0
 1504 00a2 03E0     		b	.L93
 1505              	.L90:
 437:C:/Users/dtjld/Desktop/AIoT_software/LiteOS_Lab_overseas/LiteOS_Lab/iot_link/oc/oc_lwm2m/atiny_lwm2m\agenttiny.c ****     }
 1506              		.loc 3 437 0
 1507 00a4 00BF     		nop
 1508 00a6 02E0     		b	.L92
 1509              	.L91:
 433:C:/Users/dtjld/Desktop/AIoT_software/LiteOS_Lab_overseas/LiteOS_Lab/iot_link/oc/oc_lwm2m/atiny_lwm2m\agenttiny.c ****     }
 1510              		.loc 3 433 0
 1511 00a8 00BF     		nop
 1512 00aa 00E0     		b	.L92
 1513              	.L93:
 464:C:/Users/dtjld/Desktop/AIoT_software/LiteOS_Lab_overseas/LiteOS_Lab/iot_link/oc/oc_lwm2m/atiny_lwm2m\agenttiny.c ****     }
 1514              		.loc 3 464 0
 1515 00ac 00BF     		nop
 1516              	.L86:
 1517              	.L92:
 469:C:/Users/dtjld/Desktop/AIoT_software/LiteOS_Lab_overseas/LiteOS_Lab/iot_link/oc/oc_lwm2m/atiny_lwm2m\agenttiny.c ****     }
 470:C:/Users/dtjld/Desktop/AIoT_software/LiteOS_Lab_overseas/LiteOS_Lab/iot_link/oc/oc_lwm2m/atiny_lwm2m\agenttiny.c ****     }
 471:C:/Users/dtjld/Desktop/AIoT_software/LiteOS_Lab_overseas/LiteOS_Lab/iot_link/oc/oc_lwm2m/atiny_lwm2m\agenttiny.c **** 
 472:C:/Users/dtjld/Desktop/AIoT_software/LiteOS_Lab_overseas/LiteOS_Lab/iot_link/oc/oc_lwm2m/atiny_lwm2m\agenttiny.c **** }
 1518              		.loc 3 472 0
 1519 00ae 00BF     		nop
 1520 00b0 1837     		adds	r7, r7, #24
 1521              	.LCFI45:
 1522              		.cfi_def_cfa_offset 8
 1523 00b2 BD46     		mov	sp, r7
 1524              	.LCFI46:
 1525              		.cfi_def_cfa_register 13
 1526              		@ sp needed
 1527 00b4 80BD     		pop	{r7, pc}
 1528              		.cfi_endproc
 1529              	.LFE20:
 1531              		.section	.text.reboot_check,"ax",%progbits
 1532              		.align	1
 1533              		.global	reboot_check
 1534              		.syntax unified
 1535              		.thumb
 1536              		.thumb_func
 1537              		.fpu fpv4-sp-d16
 1539              	reboot_check:
 1540              	.LFB21:
 473:C:/Users/dtjld/Desktop/AIoT_software/LiteOS_Lab_overseas/LiteOS_Lab/iot_link/oc/oc_lwm2m/atiny_lwm2m\agenttiny.c **** 
ARM GAS  C:\Users\dtjld\AppData\Local\Temp\ccIjCgHN.s 			page 46


 474:C:/Users/dtjld/Desktop/AIoT_software/LiteOS_Lab_overseas/LiteOS_Lab/iot_link/oc/oc_lwm2m/atiny_lwm2m\agenttiny.c **** void reboot_check(void)
 475:C:/Users/dtjld/Desktop/AIoT_software/LiteOS_Lab_overseas/LiteOS_Lab/iot_link/oc/oc_lwm2m/atiny_lwm2m\agenttiny.c **** {
 1541              		.loc 3 475 0
 1542              		.cfi_startproc
 1543              		@ args = 0, pretend = 0, frame = 0
 1544              		@ frame_needed = 1, uses_anonymous_args = 0
 1545 0000 80B5     		push	{r7, lr}
 1546              	.LCFI47:
 1547              		.cfi_def_cfa_offset 8
 1548              		.cfi_offset 7, -8
 1549              		.cfi_offset 14, -4
 1550 0002 00AF     		add	r7, sp, #0
 1551              	.LCFI48:
 1552              		.cfi_def_cfa_register 7
 476:C:/Users/dtjld/Desktop/AIoT_software/LiteOS_Lab_overseas/LiteOS_Lab/iot_link/oc/oc_lwm2m/atiny_lwm2m\agenttiny.c ****     if(g_reboot == 1)
 1553              		.loc 3 476 0
 1554 0004 054B     		ldr	r3, .L97
 1555 0006 1B68     		ldr	r3, [r3]
 1556 0008 012B     		cmp	r3, #1
 1557 000a 04D1     		bne	.L96
 477:C:/Users/dtjld/Desktop/AIoT_software/LiteOS_Lab_overseas/LiteOS_Lab/iot_link/oc/oc_lwm2m/atiny_lwm2m\agenttiny.c ****     {
 478:C:/Users/dtjld/Desktop/AIoT_software/LiteOS_Lab_overseas/LiteOS_Lab/iot_link/oc/oc_lwm2m/atiny_lwm2m\agenttiny.c ****         (void)atiny_cmd_ioctl(ATINY_DO_DEV_REBOOT, NULL, 0);
 1558              		.loc 3 478 0
 1559 000c 0022     		movs	r2, #0
 1560 000e 0021     		movs	r1, #0
 1561 0010 0420     		movs	r0, #4
 1562 0012 FFF7FEFF 		bl	atiny_cmd_ioctl
 1563              	.L96:
 479:C:/Users/dtjld/Desktop/AIoT_software/LiteOS_Lab_overseas/LiteOS_Lab/iot_link/oc/oc_lwm2m/atiny_lwm2m\agenttiny.c ****     }
 480:C:/Users/dtjld/Desktop/AIoT_software/LiteOS_Lab_overseas/LiteOS_Lab/iot_link/oc/oc_lwm2m/atiny_lwm2m\agenttiny.c **** }
 1564              		.loc 3 480 0
 1565 0016 00BF     		nop
 1566 0018 80BD     		pop	{r7, pc}
 1567              	.L98:
 1568 001a 00BF     		.align	2
 1569              	.L97:
 1570 001c 00000000 		.word	g_reboot
 1571              		.cfi_endproc
 1572              	.LFE21:
 1574              		.section	.rodata
 1575 03f9 000000   		.align	2
 1576              	.LC18:
 1577 03fc 5B25735D 		.ascii	"[%s][%u][%s:%d] null point\015\012\000"
 1577      5B25755D 
 1577      5B25733A 
 1577      25645D20 
 1577      6E756C6C 
 1578 0419 000000   		.align	2
 1579              	.LC19:
 1580 041c 5B25735D 		.ascii	"[%s][%u][%s:%d] connection err type %d bootstrap %d"
 1580      5B25755D 
 1580      5B25733A 
 1580      25645D20 
 1580      636F6E6E 
 1581 044f 0D0A00   		.ascii	"\015\012\000"
 1582              		.section	.text.atiny_connection_err_notify,"ax",%progbits
 1583              		.align	1
ARM GAS  C:\Users\dtjld\AppData\Local\Temp\ccIjCgHN.s 			page 47


 1584              		.syntax unified
 1585              		.thumb
 1586              		.thumb_func
 1587              		.fpu fpv4-sp-d16
 1589              	atiny_connection_err_notify:
 1590              	.LFB22:
 481:C:/Users/dtjld/Desktop/AIoT_software/LiteOS_Lab_overseas/LiteOS_Lab/iot_link/oc/oc_lwm2m/atiny_lwm2m\agenttiny.c **** 
 482:C:/Users/dtjld/Desktop/AIoT_software/LiteOS_Lab_overseas/LiteOS_Lab/iot_link/oc/oc_lwm2m/atiny_lwm2m\agenttiny.c **** static void atiny_connection_err_notify(lwm2m_context_t *context, connection_err_e err_type, bool b
 483:C:/Users/dtjld/Desktop/AIoT_software/LiteOS_Lab_overseas/LiteOS_Lab/iot_link/oc/oc_lwm2m/atiny_lwm2m\agenttiny.c **** {
 1591              		.loc 3 483 0
 1592              		.cfi_startproc
 1593              		@ args = 0, pretend = 0, frame = 16
 1594              		@ frame_needed = 1, uses_anonymous_args = 0
 1595 0000 B0B5     		push	{r4, r5, r7, lr}
 1596              	.LCFI49:
 1597              		.cfi_def_cfa_offset 16
 1598              		.cfi_offset 4, -16
 1599              		.cfi_offset 5, -12
 1600              		.cfi_offset 7, -8
 1601              		.cfi_offset 14, -4
 1602 0002 88B0     		sub	sp, sp, #32
 1603              	.LCFI50:
 1604              		.cfi_def_cfa_offset 48
 1605 0004 04AF     		add	r7, sp, #16
 1606              	.LCFI51:
 1607              		.cfi_def_cfa 7, 32
 1608 0006 7860     		str	r0, [r7, #4]
 1609 0008 0B46     		mov	r3, r1
 1610 000a FB70     		strb	r3, [r7, #3]
 1611 000c 1346     		mov	r3, r2
 1612 000e BB70     		strb	r3, [r7, #2]
 484:C:/Users/dtjld/Desktop/AIoT_software/LiteOS_Lab_overseas/LiteOS_Lab/iot_link/oc/oc_lwm2m/atiny_lwm2m\agenttiny.c ****     handle_data_t *handle = NULL;
 1613              		.loc 3 484 0
 1614 0010 0023     		movs	r3, #0
 1615 0012 FB60     		str	r3, [r7, #12]
 485:C:/Users/dtjld/Desktop/AIoT_software/LiteOS_Lab_overseas/LiteOS_Lab/iot_link/oc/oc_lwm2m/atiny_lwm2m\agenttiny.c **** 
 486:C:/Users/dtjld/Desktop/AIoT_software/LiteOS_Lab_overseas/LiteOS_Lab/iot_link/oc/oc_lwm2m/atiny_lwm2m\agenttiny.c ****     if((NULL == context) || (NULL == context->userData))
 1616              		.loc 3 486 0
 1617 0014 7B68     		ldr	r3, [r7, #4]
 1618 0016 002B     		cmp	r3, #0
 1619 0018 03D0     		beq	.L100
 1620              		.loc 3 486 0 is_stmt 0 discriminator 1
 1621 001a 7B68     		ldr	r3, [r7, #4]
 1622 001c 5B6B     		ldr	r3, [r3, #52]
 1623 001e 002B     		cmp	r3, #0
 1624 0020 16D1     		bne	.L101
 1625              	.L100:
 487:C:/Users/dtjld/Desktop/AIoT_software/LiteOS_Lab_overseas/LiteOS_Lab/iot_link/oc/oc_lwm2m/atiny_lwm2m\agenttiny.c ****     {
 488:C:/Users/dtjld/Desktop/AIoT_software/LiteOS_Lab_overseas/LiteOS_Lab/iot_link/oc/oc_lwm2m/atiny_lwm2m\agenttiny.c ****         ATINY_LOG(LOG_ERR, "null point");
 1626              		.loc 3 488 0 is_stmt 1
 1627 0022 FFF7FEFF 		bl	atiny_get_log_level
 1628 0026 0346     		mov	r3, r0
 1629 0028 032B     		cmp	r3, #3
 1630 002a 3AD8     		bhi	.L105
 1631              		.loc 3 488 0 is_stmt 0 discriminator 1
 1632 002c 0320     		movs	r0, #3
 1633 002e FFF7FEFF 		bl	atiny_get_log_level_name
ARM GAS  C:\Users\dtjld\AppData\Local\Temp\ccIjCgHN.s 			page 48


 1634 0032 0546     		mov	r5, r0
 1635 0034 FFF7FEFF 		bl	osal_sys_time
 1636 0038 0346     		mov	r3, r0
 1637 003a 0C46     		mov	r4, r1
 1638 003c 1A46     		mov	r2, r3
 1639 003e 4FF4F473 		mov	r3, #488
 1640 0042 0093     		str	r3, [sp]
 1641 0044 194B     		ldr	r3, .L106
 1642 0046 2946     		mov	r1, r5
 1643 0048 1948     		ldr	r0, .L106+4
 1644 004a FFF7FEFF 		bl	atiny_printf
 489:C:/Users/dtjld/Desktop/AIoT_software/LiteOS_Lab_overseas/LiteOS_Lab/iot_link/oc/oc_lwm2m/atiny_lwm2m\agenttiny.c ****         return;
 1645              		.loc 3 489 0 is_stmt 1 discriminator 1
 1646 004e 28E0     		b	.L105
 1647              	.L101:
 490:C:/Users/dtjld/Desktop/AIoT_software/LiteOS_Lab_overseas/LiteOS_Lab/iot_link/oc/oc_lwm2m/atiny_lwm2m\agenttiny.c ****     }
 491:C:/Users/dtjld/Desktop/AIoT_software/LiteOS_Lab_overseas/LiteOS_Lab/iot_link/oc/oc_lwm2m/atiny_lwm2m\agenttiny.c **** 
 492:C:/Users/dtjld/Desktop/AIoT_software/LiteOS_Lab_overseas/LiteOS_Lab/iot_link/oc/oc_lwm2m/atiny_lwm2m\agenttiny.c ****     if(!boostrap_flag)
 1648              		.loc 3 492 0
 1649 0050 BB78     		ldrb	r3, [r7, #2]
 1650 0052 83F00103 		eor	r3, r3, #1
 1651 0056 DBB2     		uxtb	r3, r3
 1652 0058 002B     		cmp	r3, #0
 1653 005a 06D0     		beq	.L104
 493:C:/Users/dtjld/Desktop/AIoT_software/LiteOS_Lab_overseas/LiteOS_Lab/iot_link/oc/oc_lwm2m/atiny_lwm2m\agenttiny.c ****     {
 494:C:/Users/dtjld/Desktop/AIoT_software/LiteOS_Lab_overseas/LiteOS_Lab/iot_link/oc/oc_lwm2m/atiny_lwm2m\agenttiny.c ****         handle = ATINY_FIELD_TO_STRUCT(context->userData, handle_data_t, client_data);
 1654              		.loc 3 494 0
 1655 005c 7B68     		ldr	r3, [r7, #4]
 1656 005e 5B6B     		ldr	r3, [r3, #52]
 1657 0060 443B     		subs	r3, r3, #68
 1658 0062 FB60     		str	r3, [r7, #12]
 495:C:/Users/dtjld/Desktop/AIoT_software/LiteOS_Lab_overseas/LiteOS_Lab/iot_link/oc/oc_lwm2m/atiny_lwm2m\agenttiny.c ****         (void)atiny_reconnect(handle);
 1659              		.loc 3 495 0
 1660 0064 F868     		ldr	r0, [r7, #12]
 1661 0066 FFF7FEFF 		bl	atiny_reconnect
 1662              	.L104:
 496:C:/Users/dtjld/Desktop/AIoT_software/LiteOS_Lab_overseas/LiteOS_Lab/iot_link/oc/oc_lwm2m/atiny_lwm2m\agenttiny.c ****     }
 497:C:/Users/dtjld/Desktop/AIoT_software/LiteOS_Lab_overseas/LiteOS_Lab/iot_link/oc/oc_lwm2m/atiny_lwm2m\agenttiny.c ****     ATINY_LOG(LOG_INFO, "connection err type %d bootstrap %d", err_type, boostrap_flag);
 1663              		.loc 3 497 0
 1664 006a FFF7FEFF 		bl	atiny_get_log_level
 1665 006e 0346     		mov	r3, r0
 1666 0070 012B     		cmp	r3, #1
 1667 0072 17D8     		bhi	.L99
 1668              		.loc 3 497 0 is_stmt 0 discriminator 1
 1669 0074 0120     		movs	r0, #1
 1670 0076 FFF7FEFF 		bl	atiny_get_log_level_name
 1671 007a 0546     		mov	r5, r0
 1672 007c FFF7FEFF 		bl	osal_sys_time
 1673 0080 0346     		mov	r3, r0
 1674 0082 0C46     		mov	r4, r1
 1675 0084 1946     		mov	r1, r3
 1676 0086 FB78     		ldrb	r3, [r7, #3]	@ zero_extendqisi2
 1677 0088 BA78     		ldrb	r2, [r7, #2]	@ zero_extendqisi2
 1678 008a 0292     		str	r2, [sp, #8]
 1679 008c 0193     		str	r3, [sp, #4]
 1680 008e 40F2F113 		movw	r3, #497
 1681 0092 0093     		str	r3, [sp]
ARM GAS  C:\Users\dtjld\AppData\Local\Temp\ccIjCgHN.s 			page 49


 1682 0094 054B     		ldr	r3, .L106
 1683 0096 0A46     		mov	r2, r1
 1684 0098 2946     		mov	r1, r5
 1685 009a 0648     		ldr	r0, .L106+8
 1686 009c FFF7FEFF 		bl	atiny_printf
 1687 00a0 00E0     		b	.L99
 1688              	.L105:
 489:C:/Users/dtjld/Desktop/AIoT_software/LiteOS_Lab_overseas/LiteOS_Lab/iot_link/oc/oc_lwm2m/atiny_lwm2m\agenttiny.c ****     }
 1689              		.loc 3 489 0 is_stmt 1
 1690 00a2 00BF     		nop
 1691              	.L99:
 498:C:/Users/dtjld/Desktop/AIoT_software/LiteOS_Lab_overseas/LiteOS_Lab/iot_link/oc/oc_lwm2m/atiny_lwm2m\agenttiny.c **** }
 1692              		.loc 3 498 0
 1693 00a4 1037     		adds	r7, r7, #16
 1694              	.LCFI52:
 1695              		.cfi_def_cfa_offset 16
 1696 00a6 BD46     		mov	sp, r7
 1697              	.LCFI53:
 1698              		.cfi_def_cfa_register 13
 1699              		@ sp needed
 1700 00a8 B0BD     		pop	{r4, r5, r7, pc}
 1701              	.L107:
 1702 00aa 00BF     		.align	2
 1703              	.L106:
 1704 00ac 00000000 		.word	__FUNCTION__.8952
 1705 00b0 FC030000 		.word	.LC18
 1706 00b4 1C040000 		.word	.LC19
 1707              		.cfi_endproc
 1708              	.LFE22:
 1710              		.section	.rodata
 1711 0452 0000     		.align	2
 1712              	.LC20:
 1713 0454 5B25735D 		.ascii	"[%s][%u][%s:%d] lwm2m reconnect\015\012\000"
 1713      5B25755D 
 1713      5B25733A 
 1713      25645D20 
 1713      6C776D32 
 1714              		.section	.text.atiny_handle_reconnect,"ax",%progbits
 1715              		.align	1
 1716              		.syntax unified
 1717              		.thumb
 1718              		.thumb_func
 1719              		.fpu fpv4-sp-d16
 1721              	atiny_handle_reconnect:
 1722              	.LFB23:
 499:C:/Users/dtjld/Desktop/AIoT_software/LiteOS_Lab_overseas/LiteOS_Lab/iot_link/oc/oc_lwm2m/atiny_lwm2m\agenttiny.c **** 
 500:C:/Users/dtjld/Desktop/AIoT_software/LiteOS_Lab_overseas/LiteOS_Lab/iot_link/oc/oc_lwm2m/atiny_lwm2m\agenttiny.c **** 
 501:C:/Users/dtjld/Desktop/AIoT_software/LiteOS_Lab_overseas/LiteOS_Lab/iot_link/oc/oc_lwm2m/atiny_lwm2m\agenttiny.c **** static void atiny_handle_reconnect(handle_data_t *handle)
 502:C:/Users/dtjld/Desktop/AIoT_software/LiteOS_Lab_overseas/LiteOS_Lab/iot_link/oc/oc_lwm2m/atiny_lwm2m\agenttiny.c **** {
 1723              		.loc 3 502 0
 1724              		.cfi_startproc
 1725              		@ args = 0, pretend = 0, frame = 8
 1726              		@ frame_needed = 1, uses_anonymous_args = 0
 1727 0000 B0B5     		push	{r4, r5, r7, lr}
 1728              	.LCFI54:
 1729              		.cfi_def_cfa_offset 16
 1730              		.cfi_offset 4, -16
ARM GAS  C:\Users\dtjld\AppData\Local\Temp\ccIjCgHN.s 			page 50


 1731              		.cfi_offset 5, -12
 1732              		.cfi_offset 7, -8
 1733              		.cfi_offset 14, -4
 1734 0002 84B0     		sub	sp, sp, #16
 1735              	.LCFI55:
 1736              		.cfi_def_cfa_offset 32
 1737 0004 02AF     		add	r7, sp, #8
 1738              	.LCFI56:
 1739              		.cfi_def_cfa 7, 24
 1740 0006 7860     		str	r0, [r7, #4]
 503:C:/Users/dtjld/Desktop/AIoT_software/LiteOS_Lab_overseas/LiteOS_Lab/iot_link/oc/oc_lwm2m/atiny_lwm2m\agenttiny.c ****     if(handle->reconnect_flag)
 1741              		.loc 3 503 0
 1742 0008 7B68     		ldr	r3, [r7, #4]
 1743 000a 9B6F     		ldr	r3, [r3, #120]
 1744 000c 002B     		cmp	r3, #0
 1745 000e 1DD0     		beq	.L110
 504:C:/Users/dtjld/Desktop/AIoT_software/LiteOS_Lab_overseas/LiteOS_Lab/iot_link/oc/oc_lwm2m/atiny_lwm2m\agenttiny.c ****     {
 505:C:/Users/dtjld/Desktop/AIoT_software/LiteOS_Lab_overseas/LiteOS_Lab/iot_link/oc/oc_lwm2m/atiny_lwm2m\agenttiny.c ****         (void)lwm2m_reconnect(handle->lwm2m_context);
 1746              		.loc 3 505 0
 1747 0010 7B68     		ldr	r3, [r7, #4]
 1748 0012 1B68     		ldr	r3, [r3]
 1749 0014 1846     		mov	r0, r3
 1750 0016 FFF7FEFF 		bl	lwm2m_reconnect
 506:C:/Users/dtjld/Desktop/AIoT_software/LiteOS_Lab_overseas/LiteOS_Lab/iot_link/oc/oc_lwm2m/atiny_lwm2m\agenttiny.c ****         handle->reconnect_flag = false;
 1751              		.loc 3 506 0
 1752 001a 7B68     		ldr	r3, [r7, #4]
 1753 001c 0022     		movs	r2, #0
 1754 001e 9A67     		str	r2, [r3, #120]
 507:C:/Users/dtjld/Desktop/AIoT_software/LiteOS_Lab_overseas/LiteOS_Lab/iot_link/oc/oc_lwm2m/atiny_lwm2m\agenttiny.c ****         ATINY_LOG(LOG_INFO, "lwm2m reconnect");
 1755              		.loc 3 507 0
 1756 0020 FFF7FEFF 		bl	atiny_get_log_level
 1757 0024 0346     		mov	r3, r0
 1758 0026 012B     		cmp	r3, #1
 1759 0028 10D8     		bhi	.L110
 1760              		.loc 3 507 0 is_stmt 0 discriminator 1
 1761 002a 0120     		movs	r0, #1
 1762 002c FFF7FEFF 		bl	atiny_get_log_level_name
 1763 0030 0546     		mov	r5, r0
 1764 0032 FFF7FEFF 		bl	osal_sys_time
 1765 0036 0346     		mov	r3, r0
 1766 0038 0C46     		mov	r4, r1
 1767 003a 1A46     		mov	r2, r3
 1768 003c 40F2FB13 		movw	r3, #507
 1769 0040 0093     		str	r3, [sp]
 1770 0042 044B     		ldr	r3, .L111
 1771 0044 2946     		mov	r1, r5
 1772 0046 0448     		ldr	r0, .L111+4
 1773 0048 FFF7FEFF 		bl	atiny_printf
 1774              	.L110:
 508:C:/Users/dtjld/Desktop/AIoT_software/LiteOS_Lab_overseas/LiteOS_Lab/iot_link/oc/oc_lwm2m/atiny_lwm2m\agenttiny.c ****     }
 509:C:/Users/dtjld/Desktop/AIoT_software/LiteOS_Lab_overseas/LiteOS_Lab/iot_link/oc/oc_lwm2m/atiny_lwm2m\agenttiny.c **** }
 1775              		.loc 3 509 0 is_stmt 1
 1776 004c 00BF     		nop
 1777 004e 0837     		adds	r7, r7, #8
 1778              	.LCFI57:
 1779              		.cfi_def_cfa_offset 16
 1780 0050 BD46     		mov	sp, r7
ARM GAS  C:\Users\dtjld\AppData\Local\Temp\ccIjCgHN.s 			page 51


 1781              	.LCFI58:
 1782              		.cfi_def_cfa_register 13
 1783              		@ sp needed
 1784 0052 B0BD     		pop	{r4, r5, r7, pc}
 1785              	.L112:
 1786              		.align	2
 1787              	.L111:
 1788 0054 00000000 		.word	__FUNCTION__.8956
 1789 0058 54040000 		.word	.LC20
 1790              		.cfi_endproc
 1791              	.LFE23:
 1793              		.section	.rodata
 1794 0476 0000     		.align	2
 1795              	.LC21:
 1796 0478 5B25735D 		.ascii	"[%s][%u][%s:%d] Parameter null\015\012\000"
 1796      5B25755D 
 1796      5B25733A 
 1796      25645D20 
 1796      50617261 
 1797 0499 000000   		.align	2
 1798              	.LC22:
 1799 049c 5B25735D 		.ascii	"[%s][%u][%s:%d] Endpoint name null\015\012\000"
 1799      5B25755D 
 1799      5B25733A 
 1799      25645D20 
 1799      456E6470 
 1800 04c1 000000   		.align	2
 1801              	.LC23:
 1802 04c4 5B25735D 		.ascii	"[%s][%u][%s:%d] Manufacturer name null\015\012\000"
 1802      5B25755D 
 1802      5B25733A 
 1802      25645D20 
 1802      4D616E75 
 1803 04ed 000000   		.align	2
 1804              	.LC24:
 1805 04f0 5B25735D 		.ascii	"[%s][%u][%s:%d] atiny_init_object fail %d\015\012\000"
 1805      5B25755D 
 1805      5B25733A 
 1805      25645D20 
 1805      6174696E 
 1806              		.align	2
 1807              	.LC25:
 1808 051c 5B25735D 		.ascii	"[%s][%u][%s:%d] memory not enough\015\012\000"
 1808      5B25755D 
 1808      5B25733A 
 1808      25645D20 
 1808      6D656D6F 
 1809              		.section	.text.atiny_bind,"ax",%progbits
 1810              		.align	1
 1811              		.global	atiny_bind
 1812              		.syntax unified
 1813              		.thumb
 1814              		.thumb_func
 1815              		.fpu fpv4-sp-d16
 1817              	atiny_bind:
 1818              	.LFB24:
 510:C:/Users/dtjld/Desktop/AIoT_software/LiteOS_Lab_overseas/LiteOS_Lab/iot_link/oc/oc_lwm2m/atiny_lwm2m\agenttiny.c **** 
ARM GAS  C:\Users\dtjld\AppData\Local\Temp\ccIjCgHN.s 			page 52


 511:C:/Users/dtjld/Desktop/AIoT_software/LiteOS_Lab_overseas/LiteOS_Lab/iot_link/oc/oc_lwm2m/atiny_lwm2m\agenttiny.c **** int atiny_bind(atiny_device_info_t *device_info, void *phandle)
 512:C:/Users/dtjld/Desktop/AIoT_software/LiteOS_Lab_overseas/LiteOS_Lab/iot_link/oc/oc_lwm2m/atiny_lwm2m\agenttiny.c **** {
 1819              		.loc 3 512 0
 1820              		.cfi_startproc
 1821              		@ args = 0, pretend = 0, frame = 24
 1822              		@ frame_needed = 1, uses_anonymous_args = 0
 1823 0000 B0B5     		push	{r4, r5, r7, lr}
 1824              	.LCFI59:
 1825              		.cfi_def_cfa_offset 16
 1826              		.cfi_offset 4, -16
 1827              		.cfi_offset 5, -12
 1828              		.cfi_offset 7, -8
 1829              		.cfi_offset 14, -4
 1830 0002 88B0     		sub	sp, sp, #32
 1831              	.LCFI60:
 1832              		.cfi_def_cfa_offset 48
 1833 0004 02AF     		add	r7, sp, #8
 1834              	.LCFI61:
 1835              		.cfi_def_cfa 7, 40
 1836 0006 7860     		str	r0, [r7, #4]
 1837 0008 3960     		str	r1, [r7]
 513:C:/Users/dtjld/Desktop/AIoT_software/LiteOS_Lab_overseas/LiteOS_Lab/iot_link/oc/oc_lwm2m/atiny_lwm2m\agenttiny.c ****     handle_data_t *handle = (handle_data_t *)phandle;
 1838              		.loc 3 513 0
 1839 000a 3B68     		ldr	r3, [r7]
 1840 000c 7B61     		str	r3, [r7, #20]
 514:C:/Users/dtjld/Desktop/AIoT_software/LiteOS_Lab_overseas/LiteOS_Lab/iot_link/oc/oc_lwm2m/atiny_lwm2m\agenttiny.c ****     uint32_t timeout;
 515:C:/Users/dtjld/Desktop/AIoT_software/LiteOS_Lab_overseas/LiteOS_Lab/iot_link/oc/oc_lwm2m/atiny_lwm2m\agenttiny.c ****     int ret;
 516:C:/Users/dtjld/Desktop/AIoT_software/LiteOS_Lab_overseas/LiteOS_Lab/iot_link/oc/oc_lwm2m/atiny_lwm2m\agenttiny.c **** 
 517:C:/Users/dtjld/Desktop/AIoT_software/LiteOS_Lab_overseas/LiteOS_Lab/iot_link/oc/oc_lwm2m/atiny_lwm2m\agenttiny.c ****     if ((NULL == device_info) || (NULL == phandle))
 1841              		.loc 3 517 0
 1842 000e 7B68     		ldr	r3, [r7, #4]
 1843 0010 002B     		cmp	r3, #0
 1844 0012 02D0     		beq	.L114
 1845              		.loc 3 517 0 is_stmt 0 discriminator 1
 1846 0014 3B68     		ldr	r3, [r7]
 1847 0016 002B     		cmp	r3, #0
 1848 0018 1BD1     		bne	.L115
 1849              	.L114:
 518:C:/Users/dtjld/Desktop/AIoT_software/LiteOS_Lab_overseas/LiteOS_Lab/iot_link/oc/oc_lwm2m/atiny_lwm2m\agenttiny.c ****     {
 519:C:/Users/dtjld/Desktop/AIoT_software/LiteOS_Lab_overseas/LiteOS_Lab/iot_link/oc/oc_lwm2m/atiny_lwm2m\agenttiny.c ****         ATINY_LOG(LOG_FATAL, "Parameter null");
 1850              		.loc 3 519 0 is_stmt 1
 1851 001a FFF7FEFF 		bl	atiny_get_log_level
 1852 001e 0346     		mov	r3, r0
 1853 0020 042B     		cmp	r3, #4
 1854 0022 10D8     		bhi	.L116
 1855              		.loc 3 519 0 is_stmt 0 discriminator 1
 1856 0024 0420     		movs	r0, #4
 1857 0026 FFF7FEFF 		bl	atiny_get_log_level_name
 1858 002a 0546     		mov	r5, r0
 1859 002c FFF7FEFF 		bl	osal_sys_time
 1860 0030 0346     		mov	r3, r0
 1861 0032 0C46     		mov	r4, r1
 1862 0034 1A46     		mov	r2, r3
 1863 0036 40F20723 		movw	r3, #519
 1864 003a 0093     		str	r3, [sp]
 1865 003c 664B     		ldr	r3, .L130
 1866 003e 2946     		mov	r1, r5
ARM GAS  C:\Users\dtjld\AppData\Local\Temp\ccIjCgHN.s 			page 53


 1867 0040 6648     		ldr	r0, .L130+4
 1868 0042 FFF7FEFF 		bl	atiny_printf
 1869              	.L116:
 520:C:/Users/dtjld/Desktop/AIoT_software/LiteOS_Lab_overseas/LiteOS_Lab/iot_link/oc/oc_lwm2m/atiny_lwm2m\agenttiny.c ****         atiny_deinit(phandle);
 1870              		.loc 3 520 0 is_stmt 1
 1871 0046 3868     		ldr	r0, [r7]
 1872 0048 FFF7FEFF 		bl	atiny_deinit
 521:C:/Users/dtjld/Desktop/AIoT_software/LiteOS_Lab_overseas/LiteOS_Lab/iot_link/oc/oc_lwm2m/atiny_lwm2m\agenttiny.c ****         return ATINY_ARG_INVALID;
 1873              		.loc 3 521 0
 1874 004c 4FF0FF33 		mov	r3, #-1
 1875 0050 BDE0     		b	.L129
 1876              	.L115:
 522:C:/Users/dtjld/Desktop/AIoT_software/LiteOS_Lab_overseas/LiteOS_Lab/iot_link/oc/oc_lwm2m/atiny_lwm2m\agenttiny.c ****     }
 523:C:/Users/dtjld/Desktop/AIoT_software/LiteOS_Lab_overseas/LiteOS_Lab/iot_link/oc/oc_lwm2m/atiny_lwm2m\agenttiny.c **** 
 524:C:/Users/dtjld/Desktop/AIoT_software/LiteOS_Lab_overseas/LiteOS_Lab/iot_link/oc/oc_lwm2m/atiny_lwm2m\agenttiny.c ****     if (NULL == device_info->endpoint_name)
 1877              		.loc 3 524 0
 1878 0052 7B68     		ldr	r3, [r7, #4]
 1879 0054 1B68     		ldr	r3, [r3]
 1880 0056 002B     		cmp	r3, #0
 1881 0058 1BD1     		bne	.L118
 525:C:/Users/dtjld/Desktop/AIoT_software/LiteOS_Lab_overseas/LiteOS_Lab/iot_link/oc/oc_lwm2m/atiny_lwm2m\agenttiny.c ****     {
 526:C:/Users/dtjld/Desktop/AIoT_software/LiteOS_Lab_overseas/LiteOS_Lab/iot_link/oc/oc_lwm2m/atiny_lwm2m\agenttiny.c ****         ATINY_LOG(LOG_FATAL, "Endpoint name null");
 1882              		.loc 3 526 0
 1883 005a FFF7FEFF 		bl	atiny_get_log_level
 1884 005e 0346     		mov	r3, r0
 1885 0060 042B     		cmp	r3, #4
 1886 0062 10D8     		bhi	.L119
 1887              		.loc 3 526 0 is_stmt 0 discriminator 1
 1888 0064 0420     		movs	r0, #4
 1889 0066 FFF7FEFF 		bl	atiny_get_log_level_name
 1890 006a 0546     		mov	r5, r0
 1891 006c FFF7FEFF 		bl	osal_sys_time
 1892 0070 0346     		mov	r3, r0
 1893 0072 0C46     		mov	r4, r1
 1894 0074 1A46     		mov	r2, r3
 1895 0076 40F20E23 		movw	r3, #526
 1896 007a 0093     		str	r3, [sp]
 1897 007c 564B     		ldr	r3, .L130
 1898 007e 2946     		mov	r1, r5
 1899 0080 5748     		ldr	r0, .L130+8
 1900 0082 FFF7FEFF 		bl	atiny_printf
 1901              	.L119:
 527:C:/Users/dtjld/Desktop/AIoT_software/LiteOS_Lab_overseas/LiteOS_Lab/iot_link/oc/oc_lwm2m/atiny_lwm2m\agenttiny.c ****         atiny_deinit(phandle);
 1902              		.loc 3 527 0 is_stmt 1
 1903 0086 3868     		ldr	r0, [r7]
 1904 0088 FFF7FEFF 		bl	atiny_deinit
 528:C:/Users/dtjld/Desktop/AIoT_software/LiteOS_Lab_overseas/LiteOS_Lab/iot_link/oc/oc_lwm2m/atiny_lwm2m\agenttiny.c ****         return ATINY_ARG_INVALID;
 1905              		.loc 3 528 0
 1906 008c 4FF0FF33 		mov	r3, #-1
 1907 0090 9DE0     		b	.L129
 1908              	.L118:
 529:C:/Users/dtjld/Desktop/AIoT_software/LiteOS_Lab_overseas/LiteOS_Lab/iot_link/oc/oc_lwm2m/atiny_lwm2m\agenttiny.c ****     }
 530:C:/Users/dtjld/Desktop/AIoT_software/LiteOS_Lab_overseas/LiteOS_Lab/iot_link/oc/oc_lwm2m/atiny_lwm2m\agenttiny.c **** 
 531:C:/Users/dtjld/Desktop/AIoT_software/LiteOS_Lab_overseas/LiteOS_Lab/iot_link/oc/oc_lwm2m/atiny_lwm2m\agenttiny.c ****     if (NULL == device_info->manufacturer)
 1909              		.loc 3 531 0
 1910 0092 7B68     		ldr	r3, [r7, #4]
 1911 0094 5B68     		ldr	r3, [r3, #4]
ARM GAS  C:\Users\dtjld\AppData\Local\Temp\ccIjCgHN.s 			page 54


 1912 0096 002B     		cmp	r3, #0
 1913 0098 1BD1     		bne	.L120
 532:C:/Users/dtjld/Desktop/AIoT_software/LiteOS_Lab_overseas/LiteOS_Lab/iot_link/oc/oc_lwm2m/atiny_lwm2m\agenttiny.c ****     {
 533:C:/Users/dtjld/Desktop/AIoT_software/LiteOS_Lab_overseas/LiteOS_Lab/iot_link/oc/oc_lwm2m/atiny_lwm2m\agenttiny.c ****         ATINY_LOG(LOG_FATAL, "Manufacturer name null");
 1914              		.loc 3 533 0
 1915 009a FFF7FEFF 		bl	atiny_get_log_level
 1916 009e 0346     		mov	r3, r0
 1917 00a0 042B     		cmp	r3, #4
 1918 00a2 10D8     		bhi	.L121
 1919              		.loc 3 533 0 is_stmt 0 discriminator 1
 1920 00a4 0420     		movs	r0, #4
 1921 00a6 FFF7FEFF 		bl	atiny_get_log_level_name
 1922 00aa 0546     		mov	r5, r0
 1923 00ac FFF7FEFF 		bl	osal_sys_time
 1924 00b0 0346     		mov	r3, r0
 1925 00b2 0C46     		mov	r4, r1
 1926 00b4 1A46     		mov	r2, r3
 1927 00b6 40F21523 		movw	r3, #533
 1928 00ba 0093     		str	r3, [sp]
 1929 00bc 464B     		ldr	r3, .L130
 1930 00be 2946     		mov	r1, r5
 1931 00c0 4848     		ldr	r0, .L130+12
 1932 00c2 FFF7FEFF 		bl	atiny_printf
 1933              	.L121:
 534:C:/Users/dtjld/Desktop/AIoT_software/LiteOS_Lab_overseas/LiteOS_Lab/iot_link/oc/oc_lwm2m/atiny_lwm2m\agenttiny.c ****         atiny_deinit(phandle);
 1934              		.loc 3 534 0 is_stmt 1
 1935 00c6 3868     		ldr	r0, [r7]
 1936 00c8 FFF7FEFF 		bl	atiny_deinit
 535:C:/Users/dtjld/Desktop/AIoT_software/LiteOS_Lab_overseas/LiteOS_Lab/iot_link/oc/oc_lwm2m/atiny_lwm2m\agenttiny.c ****         return ATINY_ARG_INVALID;
 1937              		.loc 3 535 0
 1938 00cc 4FF0FF33 		mov	r3, #-1
 1939 00d0 7DE0     		b	.L129
 1940              	.L120:
 536:C:/Users/dtjld/Desktop/AIoT_software/LiteOS_Lab_overseas/LiteOS_Lab/iot_link/oc/oc_lwm2m/atiny_lwm2m\agenttiny.c ****     }
 537:C:/Users/dtjld/Desktop/AIoT_software/LiteOS_Lab_overseas/LiteOS_Lab/iot_link/oc/oc_lwm2m/atiny_lwm2m\agenttiny.c **** 
 538:C:/Users/dtjld/Desktop/AIoT_software/LiteOS_Lab_overseas/LiteOS_Lab/iot_link/oc/oc_lwm2m/atiny_lwm2m\agenttiny.c ****     ret = atiny_init_objects(&handle->atiny_params, device_info, handle);
 1941              		.loc 3 538 0
 1942 00d2 7B69     		ldr	r3, [r7, #20]
 1943 00d4 0433     		adds	r3, r3, #4
 1944 00d6 7A69     		ldr	r2, [r7, #20]
 1945 00d8 7968     		ldr	r1, [r7, #4]
 1946 00da 1846     		mov	r0, r3
 1947 00dc FFF7FEFF 		bl	atiny_init_objects
 1948 00e0 3861     		str	r0, [r7, #16]
 539:C:/Users/dtjld/Desktop/AIoT_software/LiteOS_Lab_overseas/LiteOS_Lab/iot_link/oc/oc_lwm2m/atiny_lwm2m\agenttiny.c ****     if (ret != ATINY_OK)
 1949              		.loc 3 539 0
 1950 00e2 3B69     		ldr	r3, [r7, #16]
 1951 00e4 002B     		cmp	r3, #0
 1952 00e6 1CD0     		beq	.L122
 540:C:/Users/dtjld/Desktop/AIoT_software/LiteOS_Lab_overseas/LiteOS_Lab/iot_link/oc/oc_lwm2m/atiny_lwm2m\agenttiny.c ****     {
 541:C:/Users/dtjld/Desktop/AIoT_software/LiteOS_Lab_overseas/LiteOS_Lab/iot_link/oc/oc_lwm2m/atiny_lwm2m\agenttiny.c ****         ATINY_LOG(LOG_FATAL, "atiny_init_object fail %d", ret);
 1953              		.loc 3 541 0
 1954 00e8 FFF7FEFF 		bl	atiny_get_log_level
 1955 00ec 0346     		mov	r3, r0
 1956 00ee 042B     		cmp	r3, #4
 1957 00f0 12D8     		bhi	.L123
 1958              		.loc 3 541 0 is_stmt 0 discriminator 1
ARM GAS  C:\Users\dtjld\AppData\Local\Temp\ccIjCgHN.s 			page 55


 1959 00f2 0420     		movs	r0, #4
 1960 00f4 FFF7FEFF 		bl	atiny_get_log_level_name
 1961 00f8 0546     		mov	r5, r0
 1962 00fa FFF7FEFF 		bl	osal_sys_time
 1963 00fe 0346     		mov	r3, r0
 1964 0100 0C46     		mov	r4, r1
 1965 0102 1A46     		mov	r2, r3
 1966 0104 3B69     		ldr	r3, [r7, #16]
 1967 0106 0193     		str	r3, [sp, #4]
 1968 0108 40F21D23 		movw	r3, #541
 1969 010c 0093     		str	r3, [sp]
 1970 010e 324B     		ldr	r3, .L130
 1971 0110 2946     		mov	r1, r5
 1972 0112 3548     		ldr	r0, .L130+16
 1973 0114 FFF7FEFF 		bl	atiny_printf
 1974              	.L123:
 542:C:/Users/dtjld/Desktop/AIoT_software/LiteOS_Lab_overseas/LiteOS_Lab/iot_link/oc/oc_lwm2m/atiny_lwm2m\agenttiny.c ****         atiny_destroy(handle);
 1975              		.loc 3 542 0 is_stmt 1
 1976 0118 7869     		ldr	r0, [r7, #20]
 1977 011a FFF7FEFF 		bl	atiny_destroy
 543:C:/Users/dtjld/Desktop/AIoT_software/LiteOS_Lab_overseas/LiteOS_Lab/iot_link/oc/oc_lwm2m/atiny_lwm2m\agenttiny.c ****         return ret;
 1978              		.loc 3 543 0
 1979 011e 3B69     		ldr	r3, [r7, #16]
 1980 0120 55E0     		b	.L129
 1981              	.L122:
 544:C:/Users/dtjld/Desktop/AIoT_software/LiteOS_Lab_overseas/LiteOS_Lab/iot_link/oc/oc_lwm2m/atiny_lwm2m\agenttiny.c ****     }
 545:C:/Users/dtjld/Desktop/AIoT_software/LiteOS_Lab_overseas/LiteOS_Lab/iot_link/oc/oc_lwm2m/atiny_lwm2m\agenttiny.c **** #ifdef CONFIG_FEATURE_FOTA
 546:C:/Users/dtjld/Desktop/AIoT_software/LiteOS_Lab_overseas/LiteOS_Lab/iot_link/oc/oc_lwm2m/atiny_lwm2m\agenttiny.c ****     (void)atiny_fota_manager_set_lwm2m_context(atiny_fota_manager_get_instance(), handle->lwm2m_con
 547:C:/Users/dtjld/Desktop/AIoT_software/LiteOS_Lab_overseas/LiteOS_Lab/iot_link/oc/oc_lwm2m/atiny_lwm2m\agenttiny.c **** #endif
 548:C:/Users/dtjld/Desktop/AIoT_software/LiteOS_Lab_overseas/LiteOS_Lab/iot_link/oc/oc_lwm2m/atiny_lwm2m\agenttiny.c ****     lwm2m_register_observe_ack_call_back(observe_handle_ack);
 1982              		.loc 3 548 0
 1983 0122 3248     		ldr	r0, .L130+20
 1984 0124 FFF7FEFF 		bl	lwm2m_register_observe_ack_call_back
 549:C:/Users/dtjld/Desktop/AIoT_software/LiteOS_Lab_overseas/LiteOS_Lab/iot_link/oc/oc_lwm2m/atiny_lwm2m\agenttiny.c ****     lwm2m_register_event_handler(atiny_event_handle);
 1985              		.loc 3 549 0
 1986 0128 3148     		ldr	r0, .L130+24
 1987 012a FFF7FEFF 		bl	lwm2m_register_event_handler
 550:C:/Users/dtjld/Desktop/AIoT_software/LiteOS_Lab_overseas/LiteOS_Lab/iot_link/oc/oc_lwm2m/atiny_lwm2m\agenttiny.c ****     lwm2m_register_connection_err_notify(atiny_connection_err_notify);
 1988              		.loc 3 550 0
 1989 012e 3148     		ldr	r0, .L130+28
 1990 0130 FFF7FEFF 		bl	lwm2m_register_connection_err_notify
 551:C:/Users/dtjld/Desktop/AIoT_software/LiteOS_Lab_overseas/LiteOS_Lab/iot_link/oc/oc_lwm2m/atiny_lwm2m\agenttiny.c **** 
 552:C:/Users/dtjld/Desktop/AIoT_software/LiteOS_Lab_overseas/LiteOS_Lab/iot_link/oc/oc_lwm2m/atiny_lwm2m\agenttiny.c ****     handle->recv_buffer = (uint8_t *)lwm2m_malloc(MAX_PACKET_SIZE);
 1991              		.loc 3 552 0
 1992 0134 4FF48060 		mov	r0, #1024
 1993 0138 FFF7FEFF 		bl	lwm2m_malloc
 1994 013c 0246     		mov	r2, r0
 1995 013e 7B69     		ldr	r3, [r7, #20]
 1996 0140 C3F88420 		str	r2, [r3, #132]
 553:C:/Users/dtjld/Desktop/AIoT_software/LiteOS_Lab_overseas/LiteOS_Lab/iot_link/oc/oc_lwm2m/atiny_lwm2m\agenttiny.c ****     if(handle->recv_buffer == NULL)
 1997              		.loc 3 553 0
 1998 0144 7B69     		ldr	r3, [r7, #20]
 1999 0146 D3F88430 		ldr	r3, [r3, #132]
 2000 014a 002B     		cmp	r3, #0
 2001 014c 37D1     		bne	.L126
 554:C:/Users/dtjld/Desktop/AIoT_software/LiteOS_Lab_overseas/LiteOS_Lab/iot_link/oc/oc_lwm2m/atiny_lwm2m\agenttiny.c ****     {
 555:C:/Users/dtjld/Desktop/AIoT_software/LiteOS_Lab_overseas/LiteOS_Lab/iot_link/oc/oc_lwm2m/atiny_lwm2m\agenttiny.c ****         ATINY_LOG(LOG_FATAL, "memory not enough");
ARM GAS  C:\Users\dtjld\AppData\Local\Temp\ccIjCgHN.s 			page 56


 2002              		.loc 3 555 0
 2003 014e FFF7FEFF 		bl	atiny_get_log_level
 2004 0152 0346     		mov	r3, r0
 2005 0154 042B     		cmp	r3, #4
 2006 0156 10D8     		bhi	.L125
 2007              		.loc 3 555 0 is_stmt 0 discriminator 1
 2008 0158 0420     		movs	r0, #4
 2009 015a FFF7FEFF 		bl	atiny_get_log_level_name
 2010 015e 0546     		mov	r5, r0
 2011 0160 FFF7FEFF 		bl	osal_sys_time
 2012 0164 0346     		mov	r3, r0
 2013 0166 0C46     		mov	r4, r1
 2014 0168 1A46     		mov	r2, r3
 2015 016a 40F22B23 		movw	r3, #555
 2016 016e 0093     		str	r3, [sp]
 2017 0170 194B     		ldr	r3, .L130
 2018 0172 2946     		mov	r1, r5
 2019 0174 2048     		ldr	r0, .L130+32
 2020 0176 FFF7FEFF 		bl	atiny_printf
 2021              	.L125:
 556:C:/Users/dtjld/Desktop/AIoT_software/LiteOS_Lab_overseas/LiteOS_Lab/iot_link/oc/oc_lwm2m/atiny_lwm2m\agenttiny.c ****         return ATINY_MALLOC_FAILED;
 2022              		.loc 3 556 0 is_stmt 1
 2023 017a 6FF00303 		mvn	r3, #3
 2024 017e 26E0     		b	.L129
 2025              	.L128:
 557:C:/Users/dtjld/Desktop/AIoT_software/LiteOS_Lab_overseas/LiteOS_Lab/iot_link/oc/oc_lwm2m/atiny_lwm2m\agenttiny.c ****     }
 558:C:/Users/dtjld/Desktop/AIoT_software/LiteOS_Lab_overseas/LiteOS_Lab/iot_link/oc/oc_lwm2m/atiny_lwm2m\agenttiny.c **** 
 559:C:/Users/dtjld/Desktop/AIoT_software/LiteOS_Lab_overseas/LiteOS_Lab/iot_link/oc/oc_lwm2m/atiny_lwm2m\agenttiny.c ****     while (!handle->atiny_quit)
 560:C:/Users/dtjld/Desktop/AIoT_software/LiteOS_Lab_overseas/LiteOS_Lab/iot_link/oc/oc_lwm2m/atiny_lwm2m\agenttiny.c ****     {
 561:C:/Users/dtjld/Desktop/AIoT_software/LiteOS_Lab_overseas/LiteOS_Lab/iot_link/oc/oc_lwm2m/atiny_lwm2m\agenttiny.c ****         timeout = BIND_TIMEOUT;
 2026              		.loc 3 561 0
 2027 0180 0A23     		movs	r3, #10
 2028 0182 FB60     		str	r3, [r7, #12]
 562:C:/Users/dtjld/Desktop/AIoT_software/LiteOS_Lab_overseas/LiteOS_Lab/iot_link/oc/oc_lwm2m/atiny_lwm2m\agenttiny.c **** 
 563:C:/Users/dtjld/Desktop/AIoT_software/LiteOS_Lab_overseas/LiteOS_Lab/iot_link/oc/oc_lwm2m/atiny_lwm2m\agenttiny.c ****         (void)atiny_step_rpt(handle->lwm2m_context);
 2029              		.loc 3 563 0
 2030 0184 7B69     		ldr	r3, [r7, #20]
 2031 0186 1B68     		ldr	r3, [r3]
 2032 0188 1846     		mov	r0, r3
 2033 018a FFF7FEFF 		bl	atiny_step_rpt
 564:C:/Users/dtjld/Desktop/AIoT_software/LiteOS_Lab_overseas/LiteOS_Lab/iot_link/oc/oc_lwm2m/atiny_lwm2m\agenttiny.c ****         atiny_handle_reconnect(handle);
 2034              		.loc 3 564 0
 2035 018e 7869     		ldr	r0, [r7, #20]
 2036 0190 FFF7FEFF 		bl	atiny_handle_reconnect
 565:C:/Users/dtjld/Desktop/AIoT_software/LiteOS_Lab_overseas/LiteOS_Lab/iot_link/oc/oc_lwm2m/atiny_lwm2m\agenttiny.c ****         (void)lwm2m_step(handle->lwm2m_context, (time_t *)&timeout);
 2037              		.loc 3 565 0
 2038 0194 7B69     		ldr	r3, [r7, #20]
 2039 0196 1B68     		ldr	r3, [r3]
 2040 0198 07F10C02 		add	r2, r7, #12
 2041 019c 1146     		mov	r1, r2
 2042 019e 1846     		mov	r0, r3
 2043 01a0 FFF7FEFF 		bl	lwm2m_step
 566:C:/Users/dtjld/Desktop/AIoT_software/LiteOS_Lab_overseas/LiteOS_Lab/iot_link/oc/oc_lwm2m/atiny_lwm2m\agenttiny.c ****         reboot_check();
 2044              		.loc 3 566 0
 2045 01a4 FFF7FEFF 		bl	reboot_check
 567:C:/Users/dtjld/Desktop/AIoT_software/LiteOS_Lab_overseas/LiteOS_Lab/iot_link/oc/oc_lwm2m/atiny_lwm2m\agenttiny.c ****         if(0 == timeout)
 2046              		.loc 3 567 0
ARM GAS  C:\Users\dtjld\AppData\Local\Temp\ccIjCgHN.s 			page 57


 2047 01a8 FB68     		ldr	r3, [r7, #12]
 2048 01aa 002B     		cmp	r3, #0
 2049 01ac 01D1     		bne	.L127
 568:C:/Users/dtjld/Desktop/AIoT_software/LiteOS_Lab_overseas/LiteOS_Lab/iot_link/oc/oc_lwm2m/atiny_lwm2m\agenttiny.c ****         {
 569:C:/Users/dtjld/Desktop/AIoT_software/LiteOS_Lab_overseas/LiteOS_Lab/iot_link/oc/oc_lwm2m/atiny_lwm2m\agenttiny.c ****             timeout =1;
 2050              		.loc 3 569 0
 2051 01ae 0123     		movs	r3, #1
 2052 01b0 FB60     		str	r3, [r7, #12]
 2053              	.L127:
 570:C:/Users/dtjld/Desktop/AIoT_software/LiteOS_Lab_overseas/LiteOS_Lab/iot_link/oc/oc_lwm2m/atiny_lwm2m\agenttiny.c ****         }
 571:C:/Users/dtjld/Desktop/AIoT_software/LiteOS_Lab_overseas/LiteOS_Lab/iot_link/oc/oc_lwm2m/atiny_lwm2m\agenttiny.c **** 
 572:C:/Users/dtjld/Desktop/AIoT_software/LiteOS_Lab_overseas/LiteOS_Lab/iot_link/oc/oc_lwm2m/atiny_lwm2m\agenttiny.c ****         (void)lwm2m_poll(handle, &timeout);
 2054              		.loc 3 572 0
 2055 01b2 07F10C03 		add	r3, r7, #12
 2056 01b6 1946     		mov	r1, r3
 2057 01b8 7869     		ldr	r0, [r7, #20]
 2058 01ba FFF7FEFF 		bl	lwm2m_poll
 2059              	.L126:
 559:C:/Users/dtjld/Desktop/AIoT_software/LiteOS_Lab_overseas/LiteOS_Lab/iot_link/oc/oc_lwm2m/atiny_lwm2m\agenttiny.c ****     {
 2060              		.loc 3 559 0
 2061 01be 7B69     		ldr	r3, [r7, #20]
 2062 01c0 5B6F     		ldr	r3, [r3, #116]
 2063 01c2 002B     		cmp	r3, #0
 2064 01c4 DCD0     		beq	.L128
 573:C:/Users/dtjld/Desktop/AIoT_software/LiteOS_Lab_overseas/LiteOS_Lab/iot_link/oc/oc_lwm2m/atiny_lwm2m\agenttiny.c ****     }
 574:C:/Users/dtjld/Desktop/AIoT_software/LiteOS_Lab_overseas/LiteOS_Lab/iot_link/oc/oc_lwm2m/atiny_lwm2m\agenttiny.c **** 
 575:C:/Users/dtjld/Desktop/AIoT_software/LiteOS_Lab_overseas/LiteOS_Lab/iot_link/oc/oc_lwm2m/atiny_lwm2m\agenttiny.c ****     atiny_destroy(phandle);
 2065              		.loc 3 575 0
 2066 01c6 3868     		ldr	r0, [r7]
 2067 01c8 FFF7FEFF 		bl	atiny_destroy
 576:C:/Users/dtjld/Desktop/AIoT_software/LiteOS_Lab_overseas/LiteOS_Lab/iot_link/oc/oc_lwm2m/atiny_lwm2m\agenttiny.c **** 
 577:C:/Users/dtjld/Desktop/AIoT_software/LiteOS_Lab_overseas/LiteOS_Lab/iot_link/oc/oc_lwm2m/atiny_lwm2m\agenttiny.c ****     return ATINY_OK;
 2068              		.loc 3 577 0
 2069 01cc 0023     		movs	r3, #0
 2070              	.L129:
 578:C:/Users/dtjld/Desktop/AIoT_software/LiteOS_Lab_overseas/LiteOS_Lab/iot_link/oc/oc_lwm2m/atiny_lwm2m\agenttiny.c **** }
 2071              		.loc 3 578 0 discriminator 1
 2072 01ce 1846     		mov	r0, r3
 2073 01d0 1837     		adds	r7, r7, #24
 2074              	.LCFI62:
 2075              		.cfi_def_cfa_offset 16
 2076 01d2 BD46     		mov	sp, r7
 2077              	.LCFI63:
 2078              		.cfi_def_cfa_register 13
 2079              		@ sp needed
 2080 01d4 B0BD     		pop	{r4, r5, r7, pc}
 2081              	.L131:
 2082 01d6 00BF     		.align	2
 2083              	.L130:
 2084 01d8 00000000 		.word	__FUNCTION__.8964
 2085 01dc 78040000 		.word	.LC21
 2086 01e0 9C040000 		.word	.LC22
 2087 01e4 C4040000 		.word	.LC23
 2088 01e8 F0040000 		.word	.LC24
 2089 01ec 00000000 		.word	observe_handle_ack
 2090 01f0 00000000 		.word	atiny_event_handle
 2091 01f4 00000000 		.word	atiny_connection_err_notify
ARM GAS  C:\Users\dtjld\AppData\Local\Temp\ccIjCgHN.s 			page 58


 2092 01f8 1C050000 		.word	.LC25
 2093              		.cfi_endproc
 2094              	.LFE24:
 2096              		.section	.text.atiny_deinit,"ax",%progbits
 2097              		.align	1
 2098              		.global	atiny_deinit
 2099              		.syntax unified
 2100              		.thumb
 2101              		.thumb_func
 2102              		.fpu fpv4-sp-d16
 2104              	atiny_deinit:
 2105              	.LFB25:
 579:C:/Users/dtjld/Desktop/AIoT_software/LiteOS_Lab_overseas/LiteOS_Lab/iot_link/oc/oc_lwm2m/atiny_lwm2m\agenttiny.c **** 
 580:C:/Users/dtjld/Desktop/AIoT_software/LiteOS_Lab_overseas/LiteOS_Lab/iot_link/oc/oc_lwm2m/atiny_lwm2m\agenttiny.c **** void atiny_deinit(void *phandle)
 581:C:/Users/dtjld/Desktop/AIoT_software/LiteOS_Lab_overseas/LiteOS_Lab/iot_link/oc/oc_lwm2m/atiny_lwm2m\agenttiny.c **** {
 2106              		.loc 3 581 0
 2107              		.cfi_startproc
 2108              		@ args = 0, pretend = 0, frame = 16
 2109              		@ frame_needed = 1, uses_anonymous_args = 0
 2110 0000 80B5     		push	{r7, lr}
 2111              	.LCFI64:
 2112              		.cfi_def_cfa_offset 8
 2113              		.cfi_offset 7, -8
 2114              		.cfi_offset 14, -4
 2115 0002 84B0     		sub	sp, sp, #16
 2116              	.LCFI65:
 2117              		.cfi_def_cfa_offset 24
 2118 0004 00AF     		add	r7, sp, #0
 2119              	.LCFI66:
 2120              		.cfi_def_cfa_register 7
 2121 0006 7860     		str	r0, [r7, #4]
 582:C:/Users/dtjld/Desktop/AIoT_software/LiteOS_Lab_overseas/LiteOS_Lab/iot_link/oc/oc_lwm2m/atiny_lwm2m\agenttiny.c ****     handle_data_t *handle;
 583:C:/Users/dtjld/Desktop/AIoT_software/LiteOS_Lab_overseas/LiteOS_Lab/iot_link/oc/oc_lwm2m/atiny_lwm2m\agenttiny.c **** 
 584:C:/Users/dtjld/Desktop/AIoT_software/LiteOS_Lab_overseas/LiteOS_Lab/iot_link/oc/oc_lwm2m/atiny_lwm2m\agenttiny.c ****     if (phandle == NULL)
 2122              		.loc 3 584 0
 2123 0008 7B68     		ldr	r3, [r7, #4]
 2124 000a 002B     		cmp	r3, #0
 2125 000c 15D0     		beq	.L135
 585:C:/Users/dtjld/Desktop/AIoT_software/LiteOS_Lab_overseas/LiteOS_Lab/iot_link/oc/oc_lwm2m/atiny_lwm2m\agenttiny.c ****     {
 586:C:/Users/dtjld/Desktop/AIoT_software/LiteOS_Lab_overseas/LiteOS_Lab/iot_link/oc/oc_lwm2m/atiny_lwm2m\agenttiny.c ****         return;
 587:C:/Users/dtjld/Desktop/AIoT_software/LiteOS_Lab_overseas/LiteOS_Lab/iot_link/oc/oc_lwm2m/atiny_lwm2m\agenttiny.c ****     }
 588:C:/Users/dtjld/Desktop/AIoT_software/LiteOS_Lab_overseas/LiteOS_Lab/iot_link/oc/oc_lwm2m/atiny_lwm2m\agenttiny.c **** 
 589:C:/Users/dtjld/Desktop/AIoT_software/LiteOS_Lab_overseas/LiteOS_Lab/iot_link/oc/oc_lwm2m/atiny_lwm2m\agenttiny.c ****     handle = (handle_data_t *)phandle;
 2126              		.loc 3 589 0
 2127 000e 7B68     		ldr	r3, [r7, #4]
 2128 0010 FB60     		str	r3, [r7, #12]
 590:C:/Users/dtjld/Desktop/AIoT_software/LiteOS_Lab_overseas/LiteOS_Lab/iot_link/oc/oc_lwm2m/atiny_lwm2m\agenttiny.c ****     handle->atiny_quit = 1;
 2129              		.loc 3 590 0
 2130 0012 FB68     		ldr	r3, [r7, #12]
 2131 0014 0122     		movs	r2, #1
 2132 0016 5A67     		str	r2, [r3, #116]
 591:C:/Users/dtjld/Desktop/AIoT_software/LiteOS_Lab_overseas/LiteOS_Lab/iot_link/oc/oc_lwm2m/atiny_lwm2m\agenttiny.c **** 
 592:C:/Users/dtjld/Desktop/AIoT_software/LiteOS_Lab_overseas/LiteOS_Lab/iot_link/oc/oc_lwm2m/atiny_lwm2m\agenttiny.c ****     osal_semp_pend(handle->quit_sem,cn_osal_timeout_forever);
 2133              		.loc 3 592 0
 2134 0018 FB68     		ldr	r3, [r7, #12]
 2135 001a DB6F     		ldr	r3, [r3, #124]
 2136 001c 4FF0FF31 		mov	r1, #-1
ARM GAS  C:\Users\dtjld\AppData\Local\Temp\ccIjCgHN.s 			page 59


 2137 0020 1846     		mov	r0, r3
 2138 0022 FFF7FEFF 		bl	osal_semp_pend
 593:C:/Users/dtjld/Desktop/AIoT_software/LiteOS_Lab_overseas/LiteOS_Lab/iot_link/oc/oc_lwm2m/atiny_lwm2m\agenttiny.c ****     osal_semp_del(handle->quit_sem);
 2139              		.loc 3 593 0
 2140 0026 FB68     		ldr	r3, [r7, #12]
 2141 0028 DB6F     		ldr	r3, [r3, #124]
 2142 002a 1846     		mov	r0, r3
 2143 002c FFF7FEFF 		bl	osal_semp_del
 594:C:/Users/dtjld/Desktop/AIoT_software/LiteOS_Lab_overseas/LiteOS_Lab/iot_link/oc/oc_lwm2m/atiny_lwm2m\agenttiny.c ****     handle->quit_sem = cn_semp_invalid;
 2144              		.loc 3 594 0
 2145 0030 FB68     		ldr	r3, [r7, #12]
 2146 0032 4FF0FF32 		mov	r2, #-1
 2147 0036 DA67     		str	r2, [r3, #124]
 2148 0038 00E0     		b	.L132
 2149              	.L135:
 586:C:/Users/dtjld/Desktop/AIoT_software/LiteOS_Lab_overseas/LiteOS_Lab/iot_link/oc/oc_lwm2m/atiny_lwm2m\agenttiny.c ****     }
 2150              		.loc 3 586 0
 2151 003a 00BF     		nop
 2152              	.L132:
 595:C:/Users/dtjld/Desktop/AIoT_software/LiteOS_Lab_overseas/LiteOS_Lab/iot_link/oc/oc_lwm2m/atiny_lwm2m\agenttiny.c **** }
 2153              		.loc 3 595 0
 2154 003c 1037     		adds	r7, r7, #16
 2155              	.LCFI67:
 2156              		.cfi_def_cfa_offset 8
 2157 003e BD46     		mov	sp, r7
 2158              	.LCFI68:
 2159              		.cfi_def_cfa_register 13
 2160              		@ sp needed
 2161 0040 80BD     		pop	{r7, pc}
 2162              		.cfi_endproc
 2163              	.LFE25:
 2165              		.section	.rodata
 2166              		.align	2
 2167              	.LC26:
 2168 0540 5B25735D 		.ascii	"[%s][%u][%s:%d] invalid args\015\012\000"
 2168      5B25755D 
 2168      5B25733A 
 2168      25645D20 
 2168      696E7661 
 2169 055f 00       		.align	2
 2170              	.LC27:
 2171 0560 2F352F30 		.ascii	"/5/0/3\000"
 2171      2F3300
 2172 0567 00       		.align	2
 2173              	.LC28:
 2174 0568 5B25735D 		.ascii	"[%s][%u][%s:%d] lwm2m_malloc fail,len %d\015\012\000"
 2174      5B25755D 
 2174      5B25733A 
 2174      25645D20 
 2174      6C776D32 
 2175              		.section	.text.atiny_data_report,"ax",%progbits
 2176              		.align	1
 2177              		.global	atiny_data_report
 2178              		.syntax unified
 2179              		.thumb
 2180              		.thumb_func
 2181              		.fpu fpv4-sp-d16
ARM GAS  C:\Users\dtjld\AppData\Local\Temp\ccIjCgHN.s 			page 60


 2183              	atiny_data_report:
 2184              	.LFB26:
 596:C:/Users/dtjld/Desktop/AIoT_software/LiteOS_Lab_overseas/LiteOS_Lab/iot_link/oc/oc_lwm2m/atiny_lwm2m\agenttiny.c **** 
 597:C:/Users/dtjld/Desktop/AIoT_software/LiteOS_Lab_overseas/LiteOS_Lab/iot_link/oc/oc_lwm2m/atiny_lwm2m\agenttiny.c **** int atiny_data_report(void *phandle, data_report_t *report_data)
 598:C:/Users/dtjld/Desktop/AIoT_software/LiteOS_Lab_overseas/LiteOS_Lab/iot_link/oc/oc_lwm2m/atiny_lwm2m\agenttiny.c **** {
 2185              		.loc 3 598 0
 2186              		.cfi_startproc
 2187              		@ args = 0, pretend = 0, frame = 40
 2188              		@ frame_needed = 1, uses_anonymous_args = 0
 2189 0000 B0B5     		push	{r4, r5, r7, lr}
 2190              	.LCFI69:
 2191              		.cfi_def_cfa_offset 16
 2192              		.cfi_offset 4, -16
 2193              		.cfi_offset 5, -12
 2194              		.cfi_offset 7, -8
 2195              		.cfi_offset 14, -4
 2196 0002 8CB0     		sub	sp, sp, #48
 2197              	.LCFI70:
 2198              		.cfi_def_cfa_offset 64
 2199 0004 02AF     		add	r7, sp, #8
 2200              	.LCFI71:
 2201              		.cfi_def_cfa 7, 56
 2202 0006 7860     		str	r0, [r7, #4]
 2203 0008 3960     		str	r1, [r7]
 599:C:/Users/dtjld/Desktop/AIoT_software/LiteOS_Lab_overseas/LiteOS_Lab/iot_link/oc/oc_lwm2m/atiny_lwm2m\agenttiny.c ****     lwm2m_uri_t uri;
 600:C:/Users/dtjld/Desktop/AIoT_software/LiteOS_Lab_overseas/LiteOS_Lab/iot_link/oc/oc_lwm2m/atiny_lwm2m\agenttiny.c ****     int ret;
 601:C:/Users/dtjld/Desktop/AIoT_software/LiteOS_Lab_overseas/LiteOS_Lab/iot_link/oc/oc_lwm2m/atiny_lwm2m\agenttiny.c ****     data_report_t data;
 602:C:/Users/dtjld/Desktop/AIoT_software/LiteOS_Lab_overseas/LiteOS_Lab/iot_link/oc/oc_lwm2m/atiny_lwm2m\agenttiny.c **** 
 603:C:/Users/dtjld/Desktop/AIoT_software/LiteOS_Lab_overseas/LiteOS_Lab/iot_link/oc/oc_lwm2m/atiny_lwm2m\agenttiny.c **** 
 604:C:/Users/dtjld/Desktop/AIoT_software/LiteOS_Lab_overseas/LiteOS_Lab/iot_link/oc/oc_lwm2m/atiny_lwm2m\agenttiny.c ****     if (NULL == phandle || NULL == report_data || report_data->len <= 0
 2204              		.loc 3 604 0
 2205 000a 7B68     		ldr	r3, [r7, #4]
 2206 000c 002B     		cmp	r3, #0
 2207 000e 0FD0     		beq	.L137
 2208              		.loc 3 604 0 is_stmt 0 discriminator 1
 2209 0010 3B68     		ldr	r3, [r7]
 2210 0012 002B     		cmp	r3, #0
 2211 0014 0CD0     		beq	.L137
 2212              		.loc 3 604 0 discriminator 2
 2213 0016 3B68     		ldr	r3, [r7]
 2214 0018 9B68     		ldr	r3, [r3, #8]
 2215 001a 002B     		cmp	r3, #0
 2216 001c 08DD     		ble	.L137
 605:C:/Users/dtjld/Desktop/AIoT_software/LiteOS_Lab_overseas/LiteOS_Lab/iot_link/oc/oc_lwm2m/atiny_lwm2m\agenttiny.c ****             || report_data->len > MAX_REPORT_DATA_LEN || NULL == report_data->buf)
 2217              		.loc 3 605 0 is_stmt 1
 2218 001e 3B68     		ldr	r3, [r7]
 2219 0020 9B68     		ldr	r3, [r3, #8]
 2220 0022 B3F5806F 		cmp	r3, #1024
 2221 0026 03DC     		bgt	.L137
 2222              		.loc 3 605 0 is_stmt 0 discriminator 1
 2223 0028 3B68     		ldr	r3, [r7]
 2224 002a DB68     		ldr	r3, [r3, #12]
 2225 002c 002B     		cmp	r3, #0
 2226 002e 18D1     		bne	.L138
 2227              	.L137:
 606:C:/Users/dtjld/Desktop/AIoT_software/LiteOS_Lab_overseas/LiteOS_Lab/iot_link/oc/oc_lwm2m/atiny_lwm2m\agenttiny.c ****     {
 607:C:/Users/dtjld/Desktop/AIoT_software/LiteOS_Lab_overseas/LiteOS_Lab/iot_link/oc/oc_lwm2m/atiny_lwm2m\agenttiny.c ****         ATINY_LOG(LOG_ERR, "invalid args");
ARM GAS  C:\Users\dtjld\AppData\Local\Temp\ccIjCgHN.s 			page 61


 2228              		.loc 3 607 0 is_stmt 1
 2229 0030 FFF7FEFF 		bl	atiny_get_log_level
 2230 0034 0346     		mov	r3, r0
 2231 0036 032B     		cmp	r3, #3
 2232 0038 10D8     		bhi	.L139
 2233              		.loc 3 607 0 is_stmt 0 discriminator 1
 2234 003a 0320     		movs	r0, #3
 2235 003c FFF7FEFF 		bl	atiny_get_log_level_name
 2236 0040 0546     		mov	r5, r0
 2237 0042 FFF7FEFF 		bl	osal_sys_time
 2238 0046 0346     		mov	r3, r0
 2239 0048 0C46     		mov	r4, r1
 2240 004a 1A46     		mov	r2, r3
 2241 004c 40F25F23 		movw	r3, #607
 2242 0050 0093     		str	r3, [sp]
 2243 0052 3A4B     		ldr	r3, .L150
 2244 0054 2946     		mov	r1, r5
 2245 0056 3A48     		ldr	r0, .L150+4
 2246 0058 FFF7FEFF 		bl	atiny_printf
 2247              	.L139:
 608:C:/Users/dtjld/Desktop/AIoT_software/LiteOS_Lab_overseas/LiteOS_Lab/iot_link/oc/oc_lwm2m/atiny_lwm2m\agenttiny.c ****         return ATINY_ARG_INVALID;
 2248              		.loc 3 608 0 is_stmt 1
 2249 005c 4FF0FF33 		mov	r3, #-1
 2250 0060 68E0     		b	.L148
 2251              	.L138:
 609:C:/Users/dtjld/Desktop/AIoT_software/LiteOS_Lab_overseas/LiteOS_Lab/iot_link/oc/oc_lwm2m/atiny_lwm2m\agenttiny.c ****     }
 610:C:/Users/dtjld/Desktop/AIoT_software/LiteOS_Lab_overseas/LiteOS_Lab/iot_link/oc/oc_lwm2m/atiny_lwm2m\agenttiny.c **** 
 611:C:/Users/dtjld/Desktop/AIoT_software/LiteOS_Lab_overseas/LiteOS_Lab/iot_link/oc/oc_lwm2m/atiny_lwm2m\agenttiny.c ****     memset((void *)&uri, 0, sizeof(uri));
 2252              		.loc 3 611 0
 2253 0062 07F11C03 		add	r3, r7, #28
 2254 0066 0822     		movs	r2, #8
 2255 0068 0021     		movs	r1, #0
 2256 006a 1846     		mov	r0, r3
 2257 006c FFF7FEFF 		bl	memset
 612:C:/Users/dtjld/Desktop/AIoT_software/LiteOS_Lab_overseas/LiteOS_Lab/iot_link/oc/oc_lwm2m/atiny_lwm2m\agenttiny.c **** 
 613:C:/Users/dtjld/Desktop/AIoT_software/LiteOS_Lab_overseas/LiteOS_Lab/iot_link/oc/oc_lwm2m/atiny_lwm2m\agenttiny.c ****     switch (report_data->type)
 2258              		.loc 3 613 0
 2259 0070 3B68     		ldr	r3, [r7]
 2260 0072 1B78     		ldrb	r3, [r3]	@ zero_extendqisi2
 2261 0074 002B     		cmp	r3, #0
 2262 0076 02D0     		beq	.L142
 2263 0078 012B     		cmp	r3, #1
 2264 007a 08D0     		beq	.L143
 2265 007c 0FE0     		b	.L149
 2266              	.L142:
 614:C:/Users/dtjld/Desktop/AIoT_software/LiteOS_Lab_overseas/LiteOS_Lab/iot_link/oc/oc_lwm2m/atiny_lwm2m\agenttiny.c ****     {
 615:C:/Users/dtjld/Desktop/AIoT_software/LiteOS_Lab_overseas/LiteOS_Lab/iot_link/oc/oc_lwm2m/atiny_lwm2m\agenttiny.c ****     case FIRMWARE_UPDATE_STATE:
 616:C:/Users/dtjld/Desktop/AIoT_software/LiteOS_Lab_overseas/LiteOS_Lab/iot_link/oc/oc_lwm2m/atiny_lwm2m\agenttiny.c ****         (void)lwm2m_stringToUri("/5/0/3", 6, &uri);
 2267              		.loc 3 616 0
 2268 007e 07F11C03 		add	r3, r7, #28
 2269 0082 1A46     		mov	r2, r3
 2270 0084 0621     		movs	r1, #6
 2271 0086 2F48     		ldr	r0, .L150+8
 2272 0088 FFF7FEFF 		bl	lwm2m_stringToUri
 617:C:/Users/dtjld/Desktop/AIoT_software/LiteOS_Lab_overseas/LiteOS_Lab/iot_link/oc/oc_lwm2m/atiny_lwm2m\agenttiny.c ****         break;
 2273              		.loc 3 617 0
 2274 008c 0AE0     		b	.L144
ARM GAS  C:\Users\dtjld\AppData\Local\Temp\ccIjCgHN.s 			page 62


 2275              	.L143:
 618:C:/Users/dtjld/Desktop/AIoT_software/LiteOS_Lab_overseas/LiteOS_Lab/iot_link/oc/oc_lwm2m/atiny_lwm2m\agenttiny.c ****     case APP_DATA:
 619:C:/Users/dtjld/Desktop/AIoT_software/LiteOS_Lab_overseas/LiteOS_Lab/iot_link/oc/oc_lwm2m/atiny_lwm2m\agenttiny.c ****         get_resource_uri(BINARY_APP_DATA_OBJECT_ID, 0, BINARY_APP_DATA_RES_ID, &uri);
 2276              		.loc 3 619 0
 2277 008e 07F11C03 		add	r3, r7, #28
 2278 0092 0022     		movs	r2, #0
 2279 0094 0021     		movs	r1, #0
 2280 0096 1320     		movs	r0, #19
 2281 0098 FFF7FEFF 		bl	get_resource_uri
 620:C:/Users/dtjld/Desktop/AIoT_software/LiteOS_Lab_overseas/LiteOS_Lab/iot_link/oc/oc_lwm2m/atiny_lwm2m\agenttiny.c ****         break;
 2282              		.loc 3 620 0
 2283 009c 02E0     		b	.L144
 2284              	.L149:
 621:C:/Users/dtjld/Desktop/AIoT_software/LiteOS_Lab_overseas/LiteOS_Lab/iot_link/oc/oc_lwm2m/atiny_lwm2m\agenttiny.c ****     default:
 622:C:/Users/dtjld/Desktop/AIoT_software/LiteOS_Lab_overseas/LiteOS_Lab/iot_link/oc/oc_lwm2m/atiny_lwm2m\agenttiny.c ****         return ATINY_RESOURCE_NOT_FOUND;
 2285              		.loc 3 622 0
 2286 009e 6FF00403 		mvn	r3, #4
 2287 00a2 47E0     		b	.L148
 2288              	.L144:
 623:C:/Users/dtjld/Desktop/AIoT_software/LiteOS_Lab_overseas/LiteOS_Lab/iot_link/oc/oc_lwm2m/atiny_lwm2m\agenttiny.c ****     }
 624:C:/Users/dtjld/Desktop/AIoT_software/LiteOS_Lab_overseas/LiteOS_Lab/iot_link/oc/oc_lwm2m/atiny_lwm2m\agenttiny.c **** 
 625:C:/Users/dtjld/Desktop/AIoT_software/LiteOS_Lab_overseas/LiteOS_Lab/iot_link/oc/oc_lwm2m/atiny_lwm2m\agenttiny.c ****     memcpy(&data, report_data, sizeof(data));
 2289              		.loc 3 625 0
 2290 00a4 07F10803 		add	r3, r7, #8
 2291 00a8 1422     		movs	r2, #20
 2292 00aa 3968     		ldr	r1, [r7]
 2293 00ac 1846     		mov	r0, r3
 2294 00ae FFF7FEFF 		bl	memcpy
 626:C:/Users/dtjld/Desktop/AIoT_software/LiteOS_Lab_overseas/LiteOS_Lab/iot_link/oc/oc_lwm2m/atiny_lwm2m\agenttiny.c ****     data.buf = lwm2m_malloc(report_data->len);
 2295              		.loc 3 626 0
 2296 00b2 3B68     		ldr	r3, [r7]
 2297 00b4 9B68     		ldr	r3, [r3, #8]
 2298 00b6 1846     		mov	r0, r3
 2299 00b8 FFF7FEFF 		bl	lwm2m_malloc
 2300 00bc 0346     		mov	r3, r0
 2301 00be 7B61     		str	r3, [r7, #20]
 627:C:/Users/dtjld/Desktop/AIoT_software/LiteOS_Lab_overseas/LiteOS_Lab/iot_link/oc/oc_lwm2m/atiny_lwm2m\agenttiny.c ****     if (NULL == data.buf)
 2302              		.loc 3 627 0
 2303 00c0 7B69     		ldr	r3, [r7, #20]
 2304 00c2 002B     		cmp	r3, #0
 2305 00c4 1AD1     		bne	.L145
 628:C:/Users/dtjld/Desktop/AIoT_software/LiteOS_Lab_overseas/LiteOS_Lab/iot_link/oc/oc_lwm2m/atiny_lwm2m\agenttiny.c ****     {
 629:C:/Users/dtjld/Desktop/AIoT_software/LiteOS_Lab_overseas/LiteOS_Lab/iot_link/oc/oc_lwm2m/atiny_lwm2m\agenttiny.c ****         ATINY_LOG(LOG_ERR, "lwm2m_malloc fail,len %d", data.len);
 2306              		.loc 3 629 0
 2307 00c6 FFF7FEFF 		bl	atiny_get_log_level
 2308 00ca 0346     		mov	r3, r0
 2309 00cc 032B     		cmp	r3, #3
 2310 00ce 12D8     		bhi	.L146
 2311              		.loc 3 629 0 is_stmt 0 discriminator 1
 2312 00d0 0320     		movs	r0, #3
 2313 00d2 FFF7FEFF 		bl	atiny_get_log_level_name
 2314 00d6 0546     		mov	r5, r0
 2315 00d8 FFF7FEFF 		bl	osal_sys_time
 2316 00dc 0346     		mov	r3, r0
 2317 00de 0C46     		mov	r4, r1
 2318 00e0 1A46     		mov	r2, r3
 2319 00e2 3B69     		ldr	r3, [r7, #16]
ARM GAS  C:\Users\dtjld\AppData\Local\Temp\ccIjCgHN.s 			page 63


 2320 00e4 0193     		str	r3, [sp, #4]
 2321 00e6 40F27523 		movw	r3, #629
 2322 00ea 0093     		str	r3, [sp]
 2323 00ec 134B     		ldr	r3, .L150
 2324 00ee 2946     		mov	r1, r5
 2325 00f0 1548     		ldr	r0, .L150+12
 2326 00f2 FFF7FEFF 		bl	atiny_printf
 2327              	.L146:
 630:C:/Users/dtjld/Desktop/AIoT_software/LiteOS_Lab_overseas/LiteOS_Lab/iot_link/oc/oc_lwm2m/atiny_lwm2m\agenttiny.c ****         return ATINY_MALLOC_FAILED;;
 2328              		.loc 3 630 0 is_stmt 1
 2329 00f6 6FF00303 		mvn	r3, #3
 2330 00fa 1BE0     		b	.L148
 2331              	.L145:
 631:C:/Users/dtjld/Desktop/AIoT_software/LiteOS_Lab_overseas/LiteOS_Lab/iot_link/oc/oc_lwm2m/atiny_lwm2m\agenttiny.c ****     }
 632:C:/Users/dtjld/Desktop/AIoT_software/LiteOS_Lab_overseas/LiteOS_Lab/iot_link/oc/oc_lwm2m/atiny_lwm2m\agenttiny.c ****     memcpy(data.buf, report_data->buf, report_data->len);
 2332              		.loc 3 632 0
 2333 00fc 7869     		ldr	r0, [r7, #20]
 2334 00fe 3B68     		ldr	r3, [r7]
 2335 0100 D968     		ldr	r1, [r3, #12]
 2336 0102 3B68     		ldr	r3, [r7]
 2337 0104 9B68     		ldr	r3, [r3, #8]
 2338 0106 1A46     		mov	r2, r3
 2339 0108 FFF7FEFF 		bl	memcpy
 633:C:/Users/dtjld/Desktop/AIoT_software/LiteOS_Lab_overseas/LiteOS_Lab/iot_link/oc/oc_lwm2m/atiny_lwm2m\agenttiny.c **** 
 634:C:/Users/dtjld/Desktop/AIoT_software/LiteOS_Lab_overseas/LiteOS_Lab/iot_link/oc/oc_lwm2m/atiny_lwm2m\agenttiny.c ****     ret = atiny_queue_rpt_data(&uri, &data);
 2340              		.loc 3 634 0
 2341 010c 07F10802 		add	r2, r7, #8
 2342 0110 07F11C03 		add	r3, r7, #28
 2343 0114 1146     		mov	r1, r2
 2344 0116 1846     		mov	r0, r3
 2345 0118 FFF7FEFF 		bl	atiny_queue_rpt_data
 2346 011c 7862     		str	r0, [r7, #36]
 635:C:/Users/dtjld/Desktop/AIoT_software/LiteOS_Lab_overseas/LiteOS_Lab/iot_link/oc/oc_lwm2m/atiny_lwm2m\agenttiny.c **** 
 636:C:/Users/dtjld/Desktop/AIoT_software/LiteOS_Lab_overseas/LiteOS_Lab/iot_link/oc/oc_lwm2m/atiny_lwm2m\agenttiny.c ****     if (ATINY_OK != ret)
 2347              		.loc 3 636 0
 2348 011e 7B6A     		ldr	r3, [r7, #36]
 2349 0120 002B     		cmp	r3, #0
 2350 0122 06D0     		beq	.L147
 637:C:/Users/dtjld/Desktop/AIoT_software/LiteOS_Lab_overseas/LiteOS_Lab/iot_link/oc/oc_lwm2m/atiny_lwm2m\agenttiny.c ****     {
 638:C:/Users/dtjld/Desktop/AIoT_software/LiteOS_Lab_overseas/LiteOS_Lab/iot_link/oc/oc_lwm2m/atiny_lwm2m\agenttiny.c ****         if (data.buf != NULL)
 2351              		.loc 3 638 0
 2352 0124 7B69     		ldr	r3, [r7, #20]
 2353 0126 002B     		cmp	r3, #0
 2354 0128 03D0     		beq	.L147
 639:C:/Users/dtjld/Desktop/AIoT_software/LiteOS_Lab_overseas/LiteOS_Lab/iot_link/oc/oc_lwm2m/atiny_lwm2m\agenttiny.c ****         {
 640:C:/Users/dtjld/Desktop/AIoT_software/LiteOS_Lab_overseas/LiteOS_Lab/iot_link/oc/oc_lwm2m/atiny_lwm2m\agenttiny.c ****             lwm2m_free(data.buf);
 2355              		.loc 3 640 0
 2356 012a 7B69     		ldr	r3, [r7, #20]
 2357 012c 1846     		mov	r0, r3
 2358 012e FFF7FEFF 		bl	lwm2m_free
 2359              	.L147:
 641:C:/Users/dtjld/Desktop/AIoT_software/LiteOS_Lab_overseas/LiteOS_Lab/iot_link/oc/oc_lwm2m/atiny_lwm2m\agenttiny.c ****         }
 642:C:/Users/dtjld/Desktop/AIoT_software/LiteOS_Lab_overseas/LiteOS_Lab/iot_link/oc/oc_lwm2m/atiny_lwm2m\agenttiny.c ****     }
 643:C:/Users/dtjld/Desktop/AIoT_software/LiteOS_Lab_overseas/LiteOS_Lab/iot_link/oc/oc_lwm2m/atiny_lwm2m\agenttiny.c **** 
 644:C:/Users/dtjld/Desktop/AIoT_software/LiteOS_Lab_overseas/LiteOS_Lab/iot_link/oc/oc_lwm2m/atiny_lwm2m\agenttiny.c ****     return ret;
 2360              		.loc 3 644 0
 2361 0132 7B6A     		ldr	r3, [r7, #36]
ARM GAS  C:\Users\dtjld\AppData\Local\Temp\ccIjCgHN.s 			page 64


 2362              	.L148:
 645:C:/Users/dtjld/Desktop/AIoT_software/LiteOS_Lab_overseas/LiteOS_Lab/iot_link/oc/oc_lwm2m/atiny_lwm2m\agenttiny.c **** }
 2363              		.loc 3 645 0 discriminator 1
 2364 0134 1846     		mov	r0, r3
 2365 0136 2837     		adds	r7, r7, #40
 2366              	.LCFI72:
 2367              		.cfi_def_cfa_offset 16
 2368 0138 BD46     		mov	sp, r7
 2369              	.LCFI73:
 2370              		.cfi_def_cfa_register 13
 2371              		@ sp needed
 2372 013a B0BD     		pop	{r4, r5, r7, pc}
 2373              	.L151:
 2374              		.align	2
 2375              	.L150:
 2376 013c 00000000 		.word	__FUNCTION__.8979
 2377 0140 40050000 		.word	.LC26
 2378 0144 60050000 		.word	.LC27
 2379 0148 68050000 		.word	.LC28
 2380              		.cfi_endproc
 2381              	.LFE26:
 2383              		.section	.rodata
 2384 0593 00       		.align	2
 2385              	.LC29:
 2386 0594 5B25735D 		.ascii	"[%s][%u][%s:%d] not registered\015\012\000"
 2386      5B25755D 
 2386      5B25733A 
 2386      25645D20 
 2386      6E6F7420 
 2387              		.section	.text.atiny_data_change,"ax",%progbits
 2388              		.align	1
 2389              		.global	atiny_data_change
 2390              		.syntax unified
 2391              		.thumb
 2392              		.thumb_func
 2393              		.fpu fpv4-sp-d16
 2395              	atiny_data_change:
 2396              	.LFB27:
 646:C:/Users/dtjld/Desktop/AIoT_software/LiteOS_Lab_overseas/LiteOS_Lab/iot_link/oc/oc_lwm2m/atiny_lwm2m\agenttiny.c **** 
 647:C:/Users/dtjld/Desktop/AIoT_software/LiteOS_Lab_overseas/LiteOS_Lab/iot_link/oc/oc_lwm2m/atiny_lwm2m\agenttiny.c **** int atiny_data_change(void *phandle, const char *data_type)
 648:C:/Users/dtjld/Desktop/AIoT_software/LiteOS_Lab_overseas/LiteOS_Lab/iot_link/oc/oc_lwm2m/atiny_lwm2m\agenttiny.c **** {
 2397              		.loc 3 648 0
 2398              		.cfi_startproc
 2399              		@ args = 0, pretend = 0, frame = 24
 2400              		@ frame_needed = 1, uses_anonymous_args = 0
 2401 0000 B0B5     		push	{r4, r5, r7, lr}
 2402              	.LCFI74:
 2403              		.cfi_def_cfa_offset 16
 2404              		.cfi_offset 4, -16
 2405              		.cfi_offset 5, -12
 2406              		.cfi_offset 7, -8
 2407              		.cfi_offset 14, -4
 2408 0002 88B0     		sub	sp, sp, #32
 2409              	.LCFI75:
 2410              		.cfi_def_cfa_offset 48
 2411 0004 02AF     		add	r7, sp, #8
 2412              	.LCFI76:
ARM GAS  C:\Users\dtjld\AppData\Local\Temp\ccIjCgHN.s 			page 65


 2413              		.cfi_def_cfa 7, 40
 2414 0006 7860     		str	r0, [r7, #4]
 2415 0008 3960     		str	r1, [r7]
 649:C:/Users/dtjld/Desktop/AIoT_software/LiteOS_Lab_overseas/LiteOS_Lab/iot_link/oc/oc_lwm2m/atiny_lwm2m\agenttiny.c ****     lwm2m_uri_t uri;
 650:C:/Users/dtjld/Desktop/AIoT_software/LiteOS_Lab_overseas/LiteOS_Lab/iot_link/oc/oc_lwm2m/atiny_lwm2m\agenttiny.c ****     handle_data_t *handle;
 651:C:/Users/dtjld/Desktop/AIoT_software/LiteOS_Lab_overseas/LiteOS_Lab/iot_link/oc/oc_lwm2m/atiny_lwm2m\agenttiny.c **** 
 652:C:/Users/dtjld/Desktop/AIoT_software/LiteOS_Lab_overseas/LiteOS_Lab/iot_link/oc/oc_lwm2m/atiny_lwm2m\agenttiny.c ****     if (NULL == phandle || NULL == data_type)
 2416              		.loc 3 652 0
 2417 000a 7B68     		ldr	r3, [r7, #4]
 2418 000c 002B     		cmp	r3, #0
 2419 000e 02D0     		beq	.L153
 2420              		.loc 3 652 0 is_stmt 0 discriminator 1
 2421 0010 3B68     		ldr	r3, [r7]
 2422 0012 002B     		cmp	r3, #0
 2423 0014 18D1     		bne	.L154
 2424              	.L153:
 653:C:/Users/dtjld/Desktop/AIoT_software/LiteOS_Lab_overseas/LiteOS_Lab/iot_link/oc/oc_lwm2m/atiny_lwm2m\agenttiny.c ****     {
 654:C:/Users/dtjld/Desktop/AIoT_software/LiteOS_Lab_overseas/LiteOS_Lab/iot_link/oc/oc_lwm2m/atiny_lwm2m\agenttiny.c ****         ATINY_LOG(LOG_ERR, "invalid args");
 2425              		.loc 3 654 0 is_stmt 1
 2426 0016 FFF7FEFF 		bl	atiny_get_log_level
 2427 001a 0346     		mov	r3, r0
 2428 001c 032B     		cmp	r3, #3
 2429 001e 10D8     		bhi	.L155
 2430              		.loc 3 654 0 is_stmt 0 discriminator 1
 2431 0020 0320     		movs	r0, #3
 2432 0022 FFF7FEFF 		bl	atiny_get_log_level_name
 2433 0026 0546     		mov	r5, r0
 2434 0028 FFF7FEFF 		bl	osal_sys_time
 2435 002c 0346     		mov	r3, r0
 2436 002e 0C46     		mov	r4, r1
 2437 0030 1A46     		mov	r2, r3
 2438 0032 40F28E23 		movw	r3, #654
 2439 0036 0093     		str	r3, [sp]
 2440 0038 2A4B     		ldr	r3, .L161
 2441 003a 2946     		mov	r1, r5
 2442 003c 2A48     		ldr	r0, .L161+4
 2443 003e FFF7FEFF 		bl	atiny_printf
 2444              	.L155:
 655:C:/Users/dtjld/Desktop/AIoT_software/LiteOS_Lab_overseas/LiteOS_Lab/iot_link/oc/oc_lwm2m/atiny_lwm2m\agenttiny.c ****         return ATINY_ARG_INVALID;
 2445              		.loc 3 655 0 is_stmt 1
 2446 0042 4FF0FF33 		mov	r3, #-1
 2447 0046 49E0     		b	.L160
 2448              	.L154:
 656:C:/Users/dtjld/Desktop/AIoT_software/LiteOS_Lab_overseas/LiteOS_Lab/iot_link/oc/oc_lwm2m/atiny_lwm2m\agenttiny.c ****     }
 657:C:/Users/dtjld/Desktop/AIoT_software/LiteOS_Lab_overseas/LiteOS_Lab/iot_link/oc/oc_lwm2m/atiny_lwm2m\agenttiny.c **** 
 658:C:/Users/dtjld/Desktop/AIoT_software/LiteOS_Lab_overseas/LiteOS_Lab/iot_link/oc/oc_lwm2m/atiny_lwm2m\agenttiny.c ****     memset((void *)&uri, 0, sizeof(uri));
 2449              		.loc 3 658 0
 2450 0048 07F10C03 		add	r3, r7, #12
 2451 004c 0822     		movs	r2, #8
 2452 004e 0021     		movs	r1, #0
 2453 0050 1846     		mov	r0, r3
 2454 0052 FFF7FEFF 		bl	memset
 659:C:/Users/dtjld/Desktop/AIoT_software/LiteOS_Lab_overseas/LiteOS_Lab/iot_link/oc/oc_lwm2m/atiny_lwm2m\agenttiny.c ****     handle = (handle_data_t *)phandle;
 2455              		.loc 3 659 0
 2456 0056 7B68     		ldr	r3, [r7, #4]
 2457 0058 7B61     		str	r3, [r7, #20]
 660:C:/Users/dtjld/Desktop/AIoT_software/LiteOS_Lab_overseas/LiteOS_Lab/iot_link/oc/oc_lwm2m/atiny_lwm2m\agenttiny.c **** 
ARM GAS  C:\Users\dtjld\AppData\Local\Temp\ccIjCgHN.s 			page 66


 661:C:/Users/dtjld/Desktop/AIoT_software/LiteOS_Lab_overseas/LiteOS_Lab/iot_link/oc/oc_lwm2m/atiny_lwm2m\agenttiny.c ****     if ((handle->lwm2m_context == NULL) || (handle->lwm2m_context->state != STATE_READY))
 2458              		.loc 3 661 0
 2459 005a 7B69     		ldr	r3, [r7, #20]
 2460 005c 1B68     		ldr	r3, [r3]
 2461 005e 002B     		cmp	r3, #0
 2462 0060 04D0     		beq	.L157
 2463              		.loc 3 661 0 is_stmt 0 discriminator 1
 2464 0062 7B69     		ldr	r3, [r7, #20]
 2465 0064 1B68     		ldr	r3, [r3]
 2466 0066 1B78     		ldrb	r3, [r3]	@ zero_extendqisi2
 2467 0068 052B     		cmp	r3, #5
 2468 006a 18D0     		beq	.L158
 2469              	.L157:
 662:C:/Users/dtjld/Desktop/AIoT_software/LiteOS_Lab_overseas/LiteOS_Lab/iot_link/oc/oc_lwm2m/atiny_lwm2m\agenttiny.c ****     {
 663:C:/Users/dtjld/Desktop/AIoT_software/LiteOS_Lab_overseas/LiteOS_Lab/iot_link/oc/oc_lwm2m/atiny_lwm2m\agenttiny.c ****         ATINY_LOG(LOG_INFO, "not registered");
 2470              		.loc 3 663 0 is_stmt 1
 2471 006c FFF7FEFF 		bl	atiny_get_log_level
 2472 0070 0346     		mov	r3, r0
 2473 0072 012B     		cmp	r3, #1
 2474 0074 10D8     		bhi	.L159
 2475              		.loc 3 663 0 is_stmt 0 discriminator 1
 2476 0076 0120     		movs	r0, #1
 2477 0078 FFF7FEFF 		bl	atiny_get_log_level_name
 2478 007c 0546     		mov	r5, r0
 2479 007e FFF7FEFF 		bl	osal_sys_time
 2480 0082 0346     		mov	r3, r0
 2481 0084 0C46     		mov	r4, r1
 2482 0086 1A46     		mov	r2, r3
 2483 0088 40F29723 		movw	r3, #663
 2484 008c 0093     		str	r3, [sp]
 2485 008e 154B     		ldr	r3, .L161
 2486 0090 2946     		mov	r1, r5
 2487 0092 1648     		ldr	r0, .L161+8
 2488 0094 FFF7FEFF 		bl	atiny_printf
 2489              	.L159:
 664:C:/Users/dtjld/Desktop/AIoT_software/LiteOS_Lab_overseas/LiteOS_Lab/iot_link/oc/oc_lwm2m/atiny_lwm2m\agenttiny.c ****         return ATINY_CLIENT_UNREGISTERED;
 2490              		.loc 3 664 0 is_stmt 1
 2491 0098 6FF00603 		mvn	r3, #6
 2492 009c 1EE0     		b	.L160
 2493              	.L158:
 665:C:/Users/dtjld/Desktop/AIoT_software/LiteOS_Lab_overseas/LiteOS_Lab/iot_link/oc/oc_lwm2m/atiny_lwm2m\agenttiny.c ****     }
 666:C:/Users/dtjld/Desktop/AIoT_software/LiteOS_Lab_overseas/LiteOS_Lab/iot_link/oc/oc_lwm2m/atiny_lwm2m\agenttiny.c **** 
 667:C:/Users/dtjld/Desktop/AIoT_software/LiteOS_Lab_overseas/LiteOS_Lab/iot_link/oc/oc_lwm2m/atiny_lwm2m\agenttiny.c ****     (void)lwm2m_stringToUri(data_type, strlen(data_type), &uri);
 2494              		.loc 3 667 0
 2495 009e 3868     		ldr	r0, [r7]
 2496 00a0 FFF7FEFF 		bl	strlen
 2497 00a4 0146     		mov	r1, r0
 2498 00a6 07F10C03 		add	r3, r7, #12
 2499 00aa 1A46     		mov	r2, r3
 2500 00ac 3868     		ldr	r0, [r7]
 2501 00ae FFF7FEFF 		bl	lwm2m_stringToUri
 668:C:/Users/dtjld/Desktop/AIoT_software/LiteOS_Lab_overseas/LiteOS_Lab/iot_link/oc/oc_lwm2m/atiny_lwm2m\agenttiny.c **** 
 669:C:/Users/dtjld/Desktop/AIoT_software/LiteOS_Lab_overseas/LiteOS_Lab/iot_link/oc/oc_lwm2m/atiny_lwm2m\agenttiny.c ****     osal_mutex_lock(handle->lwm2m_context->observe_mutex);
 2502              		.loc 3 669 0
 2503 00b2 7B69     		ldr	r3, [r7, #20]
 2504 00b4 1B68     		ldr	r3, [r3]
 2505 00b6 1B6A     		ldr	r3, [r3, #32]
ARM GAS  C:\Users\dtjld\AppData\Local\Temp\ccIjCgHN.s 			page 67


 2506 00b8 1846     		mov	r0, r3
 2507 00ba FFF7FEFF 		bl	osal_mutex_lock
 670:C:/Users/dtjld/Desktop/AIoT_software/LiteOS_Lab_overseas/LiteOS_Lab/iot_link/oc/oc_lwm2m/atiny_lwm2m\agenttiny.c ****     lwm2m_resource_value_changed(handle->lwm2m_context, &uri);
 2508              		.loc 3 670 0
 2509 00be 7B69     		ldr	r3, [r7, #20]
 2510 00c0 1B68     		ldr	r3, [r3]
 2511 00c2 07F10C02 		add	r2, r7, #12
 2512 00c6 1146     		mov	r1, r2
 2513 00c8 1846     		mov	r0, r3
 2514 00ca FFF7FEFF 		bl	lwm2m_resource_value_changed
 671:C:/Users/dtjld/Desktop/AIoT_software/LiteOS_Lab_overseas/LiteOS_Lab/iot_link/oc/oc_lwm2m/atiny_lwm2m\agenttiny.c ****     osal_mutex_unlock(handle->lwm2m_context->observe_mutex);
 2515              		.loc 3 671 0
 2516 00ce 7B69     		ldr	r3, [r7, #20]
 2517 00d0 1B68     		ldr	r3, [r3]
 2518 00d2 1B6A     		ldr	r3, [r3, #32]
 2519 00d4 1846     		mov	r0, r3
 2520 00d6 FFF7FEFF 		bl	osal_mutex_unlock
 672:C:/Users/dtjld/Desktop/AIoT_software/LiteOS_Lab_overseas/LiteOS_Lab/iot_link/oc/oc_lwm2m/atiny_lwm2m\agenttiny.c **** 
 673:C:/Users/dtjld/Desktop/AIoT_software/LiteOS_Lab_overseas/LiteOS_Lab/iot_link/oc/oc_lwm2m/atiny_lwm2m\agenttiny.c ****     return ATINY_OK;
 2521              		.loc 3 673 0
 2522 00da 0023     		movs	r3, #0
 2523              	.L160:
 674:C:/Users/dtjld/Desktop/AIoT_software/LiteOS_Lab_overseas/LiteOS_Lab/iot_link/oc/oc_lwm2m/atiny_lwm2m\agenttiny.c **** }
 2524              		.loc 3 674 0 discriminator 1
 2525 00dc 1846     		mov	r0, r3
 2526 00de 1837     		adds	r7, r7, #24
 2527              	.LCFI77:
 2528              		.cfi_def_cfa_offset 16
 2529 00e0 BD46     		mov	sp, r7
 2530              	.LCFI78:
 2531              		.cfi_def_cfa_register 13
 2532              		@ sp needed
 2533 00e2 B0BD     		pop	{r4, r5, r7, pc}
 2534              	.L162:
 2535              		.align	2
 2536              	.L161:
 2537 00e4 00000000 		.word	__FUNCTION__.8990
 2538 00e8 40050000 		.word	.LC26
 2539 00ec 94050000 		.word	.LC29
 2540              		.cfi_endproc
 2541              	.LFE27:
 2543              		.section	.text.observe_handle_ack,"ax",%progbits
 2544              		.align	1
 2545              		.global	observe_handle_ack
 2546              		.syntax unified
 2547              		.thumb
 2548              		.thumb_func
 2549              		.fpu fpv4-sp-d16
 2551              	observe_handle_ack:
 2552              	.LFB28:
 675:C:/Users/dtjld/Desktop/AIoT_software/LiteOS_Lab_overseas/LiteOS_Lab/iot_link/oc/oc_lwm2m/atiny_lwm2m\agenttiny.c **** 
 676:C:/Users/dtjld/Desktop/AIoT_software/LiteOS_Lab_overseas/LiteOS_Lab/iot_link/oc/oc_lwm2m/atiny_lwm2m\agenttiny.c **** void observe_handle_ack(lwm2m_transaction_t *transacP, void *message)
 677:C:/Users/dtjld/Desktop/AIoT_software/LiteOS_Lab_overseas/LiteOS_Lab/iot_link/oc/oc_lwm2m/atiny_lwm2m\agenttiny.c **** {
 2553              		.loc 3 677 0
 2554              		.cfi_startproc
 2555              		@ args = 0, pretend = 0, frame = 16
 2556              		@ frame_needed = 1, uses_anonymous_args = 0
ARM GAS  C:\Users\dtjld\AppData\Local\Temp\ccIjCgHN.s 			page 68


 2557 0000 80B5     		push	{r7, lr}
 2558              	.LCFI79:
 2559              		.cfi_def_cfa_offset 8
 2560              		.cfi_offset 7, -8
 2561              		.cfi_offset 14, -4
 2562 0002 84B0     		sub	sp, sp, #16
 2563              	.LCFI80:
 2564              		.cfi_def_cfa_offset 24
 2565 0004 00AF     		add	r7, sp, #0
 2566              	.LCFI81:
 2567              		.cfi_def_cfa_register 7
 2568 0006 7860     		str	r0, [r7, #4]
 2569 0008 3960     		str	r1, [r7]
 678:C:/Users/dtjld/Desktop/AIoT_software/LiteOS_Lab_overseas/LiteOS_Lab/iot_link/oc/oc_lwm2m/atiny_lwm2m\agenttiny.c ****     atiny_ack_callback ack_callback = (atiny_ack_callback)transacP->cfg.callback;
 2570              		.loc 3 678 0
 2571 000a 7B68     		ldr	r3, [r7, #4]
 2572 000c DB6B     		ldr	r3, [r3, #60]
 2573 000e FB60     		str	r3, [r7, #12]
 679:C:/Users/dtjld/Desktop/AIoT_software/LiteOS_Lab_overseas/LiteOS_Lab/iot_link/oc/oc_lwm2m/atiny_lwm2m\agenttiny.c ****     if (transacP->ack_received)
 2574              		.loc 3 679 0
 2575 0010 7B68     		ldr	r3, [r7, #4]
 2576 0012 1B7B     		ldrb	r3, [r3, #12]	@ zero_extendqisi2
 2577 0014 002B     		cmp	r3, #0
 2578 0016 08D0     		beq	.L164
 680:C:/Users/dtjld/Desktop/AIoT_software/LiteOS_Lab_overseas/LiteOS_Lab/iot_link/oc/oc_lwm2m/atiny_lwm2m\agenttiny.c ****     {
 681:C:/Users/dtjld/Desktop/AIoT_software/LiteOS_Lab_overseas/LiteOS_Lab/iot_link/oc/oc_lwm2m/atiny_lwm2m\agenttiny.c ****         ack_callback((atiny_report_type_e)(transacP->cfg.type), transacP->cfg.cookie, SENT_SUCCESS)
 2579              		.loc 3 681 0
 2580 0018 7B68     		ldr	r3, [r7, #4]
 2581 001a 5B6B     		ldr	r3, [r3, #52]
 2582 001c D8B2     		uxtb	r0, r3
 2583 001e 7B68     		ldr	r3, [r7, #4]
 2584 0020 996B     		ldr	r1, [r3, #56]
 2585 0022 FB68     		ldr	r3, [r7, #12]
 2586 0024 0422     		movs	r2, #4
 2587 0026 9847     		blx	r3
 2588              	.LVL0:
 682:C:/Users/dtjld/Desktop/AIoT_software/LiteOS_Lab_overseas/LiteOS_Lab/iot_link/oc/oc_lwm2m/atiny_lwm2m\agenttiny.c ****     }
 683:C:/Users/dtjld/Desktop/AIoT_software/LiteOS_Lab_overseas/LiteOS_Lab/iot_link/oc/oc_lwm2m/atiny_lwm2m\agenttiny.c ****     else if (transacP->retrans_counter > COAP_MAX_RETRANSMIT)
 684:C:/Users/dtjld/Desktop/AIoT_software/LiteOS_Lab_overseas/LiteOS_Lab/iot_link/oc/oc_lwm2m/atiny_lwm2m\agenttiny.c ****     {
 685:C:/Users/dtjld/Desktop/AIoT_software/LiteOS_Lab_overseas/LiteOS_Lab/iot_link/oc/oc_lwm2m/atiny_lwm2m\agenttiny.c ****         ack_callback((atiny_report_type_e)(transacP->cfg.type), transacP->cfg.cookie, SENT_TIME_OUT
 686:C:/Users/dtjld/Desktop/AIoT_software/LiteOS_Lab_overseas/LiteOS_Lab/iot_link/oc/oc_lwm2m/atiny_lwm2m\agenttiny.c ****     }
 687:C:/Users/dtjld/Desktop/AIoT_software/LiteOS_Lab_overseas/LiteOS_Lab/iot_link/oc/oc_lwm2m/atiny_lwm2m\agenttiny.c ****     else
 688:C:/Users/dtjld/Desktop/AIoT_software/LiteOS_Lab_overseas/LiteOS_Lab/iot_link/oc/oc_lwm2m/atiny_lwm2m\agenttiny.c ****     {
 689:C:/Users/dtjld/Desktop/AIoT_software/LiteOS_Lab_overseas/LiteOS_Lab/iot_link/oc/oc_lwm2m/atiny_lwm2m\agenttiny.c ****         ack_callback((atiny_report_type_e)(transacP->cfg.type), transacP->cfg.cookie, SENT_FAIL);
 690:C:/Users/dtjld/Desktop/AIoT_software/LiteOS_Lab_overseas/LiteOS_Lab/iot_link/oc/oc_lwm2m/atiny_lwm2m\agenttiny.c ****     }
 691:C:/Users/dtjld/Desktop/AIoT_software/LiteOS_Lab_overseas/LiteOS_Lab/iot_link/oc/oc_lwm2m/atiny_lwm2m\agenttiny.c **** }
 2589              		.loc 3 691 0
 2590 0028 14E0     		b	.L167
 2591              	.L164:
 683:C:/Users/dtjld/Desktop/AIoT_software/LiteOS_Lab_overseas/LiteOS_Lab/iot_link/oc/oc_lwm2m/atiny_lwm2m\agenttiny.c ****     {
 2592              		.loc 3 683 0
 2593 002a 7B68     		ldr	r3, [r7, #4]
 2594 002c 1B7E     		ldrb	r3, [r3, #24]	@ zero_extendqisi2
 2595 002e 042B     		cmp	r3, #4
 2596 0030 08D9     		bls	.L166
 685:C:/Users/dtjld/Desktop/AIoT_software/LiteOS_Lab_overseas/LiteOS_Lab/iot_link/oc/oc_lwm2m/atiny_lwm2m\agenttiny.c ****     }
 2597              		.loc 3 685 0
ARM GAS  C:\Users\dtjld\AppData\Local\Temp\ccIjCgHN.s 			page 69


 2598 0032 7B68     		ldr	r3, [r7, #4]
 2599 0034 5B6B     		ldr	r3, [r3, #52]
 2600 0036 D8B2     		uxtb	r0, r3
 2601 0038 7B68     		ldr	r3, [r7, #4]
 2602 003a 996B     		ldr	r1, [r3, #56]
 2603 003c FB68     		ldr	r3, [r7, #12]
 2604 003e 0322     		movs	r2, #3
 2605 0040 9847     		blx	r3
 2606              	.LVL1:
 2607              		.loc 3 691 0
 2608 0042 07E0     		b	.L167
 2609              	.L166:
 689:C:/Users/dtjld/Desktop/AIoT_software/LiteOS_Lab_overseas/LiteOS_Lab/iot_link/oc/oc_lwm2m/atiny_lwm2m\agenttiny.c ****     }
 2610              		.loc 3 689 0
 2611 0044 7B68     		ldr	r3, [r7, #4]
 2612 0046 5B6B     		ldr	r3, [r3, #52]
 2613 0048 D8B2     		uxtb	r0, r3
 2614 004a 7B68     		ldr	r3, [r7, #4]
 2615 004c 996B     		ldr	r1, [r3, #56]
 2616 004e FB68     		ldr	r3, [r7, #12]
 2617 0050 0222     		movs	r2, #2
 2618 0052 9847     		blx	r3
 2619              	.LVL2:
 2620              	.L167:
 2621              		.loc 3 691 0
 2622 0054 00BF     		nop
 2623 0056 1037     		adds	r7, r7, #16
 2624              	.LCFI82:
 2625              		.cfi_def_cfa_offset 8
 2626 0058 BD46     		mov	sp, r7
 2627              	.LCFI83:
 2628              		.cfi_def_cfa_register 13
 2629              		@ sp needed
 2630 005a 80BD     		pop	{r7, pc}
 2631              		.cfi_endproc
 2632              	.LFE28:
 2634              		.section	.text.atiny_reconnect,"ax",%progbits
 2635              		.align	1
 2636              		.global	atiny_reconnect
 2637              		.syntax unified
 2638              		.thumb
 2639              		.thumb_func
 2640              		.fpu fpv4-sp-d16
 2642              	atiny_reconnect:
 2643              	.LFB29:
 692:C:/Users/dtjld/Desktop/AIoT_software/LiteOS_Lab_overseas/LiteOS_Lab/iot_link/oc/oc_lwm2m/atiny_lwm2m\agenttiny.c **** 
 693:C:/Users/dtjld/Desktop/AIoT_software/LiteOS_Lab_overseas/LiteOS_Lab/iot_link/oc/oc_lwm2m/atiny_lwm2m\agenttiny.c **** int atiny_reconnect(void *phandle)
 694:C:/Users/dtjld/Desktop/AIoT_software/LiteOS_Lab_overseas/LiteOS_Lab/iot_link/oc/oc_lwm2m/atiny_lwm2m\agenttiny.c **** {
 2644              		.loc 3 694 0
 2645              		.cfi_startproc
 2646              		@ args = 0, pretend = 0, frame = 16
 2647              		@ frame_needed = 1, uses_anonymous_args = 0
 2648 0000 B0B5     		push	{r4, r5, r7, lr}
 2649              	.LCFI84:
 2650              		.cfi_def_cfa_offset 16
 2651              		.cfi_offset 4, -16
 2652              		.cfi_offset 5, -12
ARM GAS  C:\Users\dtjld\AppData\Local\Temp\ccIjCgHN.s 			page 70


 2653              		.cfi_offset 7, -8
 2654              		.cfi_offset 14, -4
 2655 0002 86B0     		sub	sp, sp, #24
 2656              	.LCFI85:
 2657              		.cfi_def_cfa_offset 40
 2658 0004 02AF     		add	r7, sp, #8
 2659              	.LCFI86:
 2660              		.cfi_def_cfa 7, 32
 2661 0006 7860     		str	r0, [r7, #4]
 695:C:/Users/dtjld/Desktop/AIoT_software/LiteOS_Lab_overseas/LiteOS_Lab/iot_link/oc/oc_lwm2m/atiny_lwm2m\agenttiny.c ****     handle_data_t *handle = (handle_data_t *)phandle;
 2662              		.loc 3 695 0
 2663 0008 7B68     		ldr	r3, [r7, #4]
 2664 000a FB60     		str	r3, [r7, #12]
 696:C:/Users/dtjld/Desktop/AIoT_software/LiteOS_Lab_overseas/LiteOS_Lab/iot_link/oc/oc_lwm2m/atiny_lwm2m\agenttiny.c **** 
 697:C:/Users/dtjld/Desktop/AIoT_software/LiteOS_Lab_overseas/LiteOS_Lab/iot_link/oc/oc_lwm2m/atiny_lwm2m\agenttiny.c **** 
 698:C:/Users/dtjld/Desktop/AIoT_software/LiteOS_Lab_overseas/LiteOS_Lab/iot_link/oc/oc_lwm2m/atiny_lwm2m\agenttiny.c ****     if (NULL == phandle)
 2665              		.loc 3 698 0
 2666 000c 7B68     		ldr	r3, [r7, #4]
 2667 000e 002B     		cmp	r3, #0
 2668 0010 18D1     		bne	.L169
 699:C:/Users/dtjld/Desktop/AIoT_software/LiteOS_Lab_overseas/LiteOS_Lab/iot_link/oc/oc_lwm2m/atiny_lwm2m\agenttiny.c ****     {
 700:C:/Users/dtjld/Desktop/AIoT_software/LiteOS_Lab_overseas/LiteOS_Lab/iot_link/oc/oc_lwm2m/atiny_lwm2m\agenttiny.c ****         ATINY_LOG(LOG_FATAL, "Parameter null");
 2669              		.loc 3 700 0
 2670 0012 FFF7FEFF 		bl	atiny_get_log_level
 2671 0016 0346     		mov	r3, r0
 2672 0018 042B     		cmp	r3, #4
 2673 001a 10D8     		bhi	.L170
 2674              		.loc 3 700 0 is_stmt 0 discriminator 1
 2675 001c 0420     		movs	r0, #4
 2676 001e FFF7FEFF 		bl	atiny_get_log_level_name
 2677 0022 0546     		mov	r5, r0
 2678 0024 FFF7FEFF 		bl	osal_sys_time
 2679 0028 0346     		mov	r3, r0
 2680 002a 0C46     		mov	r4, r1
 2681 002c 1A46     		mov	r2, r3
 2682 002e 4FF42F73 		mov	r3, #700
 2683 0032 0093     		str	r3, [sp]
 2684 0034 074B     		ldr	r3, .L172
 2685 0036 2946     		mov	r1, r5
 2686 0038 0748     		ldr	r0, .L172+4
 2687 003a FFF7FEFF 		bl	atiny_printf
 2688              	.L170:
 701:C:/Users/dtjld/Desktop/AIoT_software/LiteOS_Lab_overseas/LiteOS_Lab/iot_link/oc/oc_lwm2m/atiny_lwm2m\agenttiny.c ****         return ATINY_ARG_INVALID;
 2689              		.loc 3 701 0 is_stmt 1
 2690 003e 4FF0FF33 		mov	r3, #-1
 2691 0042 03E0     		b	.L171
 2692              	.L169:
 702:C:/Users/dtjld/Desktop/AIoT_software/LiteOS_Lab_overseas/LiteOS_Lab/iot_link/oc/oc_lwm2m/atiny_lwm2m\agenttiny.c ****     }
 703:C:/Users/dtjld/Desktop/AIoT_software/LiteOS_Lab_overseas/LiteOS_Lab/iot_link/oc/oc_lwm2m/atiny_lwm2m\agenttiny.c ****     handle->reconnect_flag = true;
 2693              		.loc 3 703 0
 2694 0044 FB68     		ldr	r3, [r7, #12]
 2695 0046 0122     		movs	r2, #1
 2696 0048 9A67     		str	r2, [r3, #120]
 704:C:/Users/dtjld/Desktop/AIoT_software/LiteOS_Lab_overseas/LiteOS_Lab/iot_link/oc/oc_lwm2m/atiny_lwm2m\agenttiny.c **** 
 705:C:/Users/dtjld/Desktop/AIoT_software/LiteOS_Lab_overseas/LiteOS_Lab/iot_link/oc/oc_lwm2m/atiny_lwm2m\agenttiny.c ****     return ATINY_OK;
 2697              		.loc 3 705 0
 2698 004a 0023     		movs	r3, #0
ARM GAS  C:\Users\dtjld\AppData\Local\Temp\ccIjCgHN.s 			page 71


 2699              	.L171:
 706:C:/Users/dtjld/Desktop/AIoT_software/LiteOS_Lab_overseas/LiteOS_Lab/iot_link/oc/oc_lwm2m/atiny_lwm2m\agenttiny.c **** }
 2700              		.loc 3 706 0
 2701 004c 1846     		mov	r0, r3
 2702 004e 1037     		adds	r7, r7, #16
 2703              	.LCFI87:
 2704              		.cfi_def_cfa_offset 16
 2705 0050 BD46     		mov	sp, r7
 2706              	.LCFI88:
 2707              		.cfi_def_cfa_register 13
 2708              		@ sp needed
 2709 0052 B0BD     		pop	{r4, r5, r7, pc}
 2710              	.L173:
 2711              		.align	2
 2712              	.L172:
 2713 0054 00000000 		.word	__FUNCTION__.9000
 2714 0058 78040000 		.word	.LC21
 2715              		.cfi_endproc
 2716              	.LFE29:
 2718              		.section	.text.atiny_set_reboot_flag,"ax",%progbits
 2719              		.align	1
 2720              		.global	atiny_set_reboot_flag
 2721              		.syntax unified
 2722              		.thumb
 2723              		.thumb_func
 2724              		.fpu fpv4-sp-d16
 2726              	atiny_set_reboot_flag:
 2727              	.LFB30:
 707:C:/Users/dtjld/Desktop/AIoT_software/LiteOS_Lab_overseas/LiteOS_Lab/iot_link/oc/oc_lwm2m/atiny_lwm2m\agenttiny.c **** 
 708:C:/Users/dtjld/Desktop/AIoT_software/LiteOS_Lab_overseas/LiteOS_Lab/iot_link/oc/oc_lwm2m/atiny_lwm2m\agenttiny.c **** void atiny_set_reboot_flag()
 709:C:/Users/dtjld/Desktop/AIoT_software/LiteOS_Lab_overseas/LiteOS_Lab/iot_link/oc/oc_lwm2m/atiny_lwm2m\agenttiny.c **** {
 2728              		.loc 3 709 0
 2729              		.cfi_startproc
 2730              		@ args = 0, pretend = 0, frame = 0
 2731              		@ frame_needed = 1, uses_anonymous_args = 0
 2732              		@ link register save eliminated.
 2733 0000 80B4     		push	{r7}
 2734              	.LCFI89:
 2735              		.cfi_def_cfa_offset 4
 2736              		.cfi_offset 7, -4
 2737 0002 00AF     		add	r7, sp, #0
 2738              	.LCFI90:
 2739              		.cfi_def_cfa_register 7
 710:C:/Users/dtjld/Desktop/AIoT_software/LiteOS_Lab_overseas/LiteOS_Lab/iot_link/oc/oc_lwm2m/atiny_lwm2m\agenttiny.c ****     g_reboot = true;
 2740              		.loc 3 710 0
 2741 0004 034B     		ldr	r3, .L175
 2742 0006 0122     		movs	r2, #1
 2743 0008 1A60     		str	r2, [r3]
 711:C:/Users/dtjld/Desktop/AIoT_software/LiteOS_Lab_overseas/LiteOS_Lab/iot_link/oc/oc_lwm2m/atiny_lwm2m\agenttiny.c **** }
 2744              		.loc 3 711 0
 2745 000a 00BF     		nop
 2746 000c BD46     		mov	sp, r7
 2747              	.LCFI91:
 2748              		.cfi_def_cfa_register 13
 2749              		@ sp needed
 2750 000e 5DF8047B 		ldr	r7, [sp], #4
 2751              	.LCFI92:
ARM GAS  C:\Users\dtjld\AppData\Local\Temp\ccIjCgHN.s 			page 72


 2752              		.cfi_restore 7
 2753              		.cfi_def_cfa_offset 0
 2754 0012 7047     		bx	lr
 2755              	.L176:
 2756              		.align	2
 2757              	.L175:
 2758 0014 00000000 		.word	g_reboot
 2759              		.cfi_endproc
 2760              	.LFE30:
 2762              		.section	.rodata.__func__.8890,"a",%progbits
 2763              		.align	2
 2766              	__func__.8890:
 2767 0000 6174696E 		.ascii	"atiny_check_bootstrap_init_param\000"
 2767      795F6368 
 2767      65636B5F 
 2767      626F6F74 
 2767      73747261 
 2768              		.section	.rodata.__FUNCTION__.8896,"a",%progbits
 2769              		.align	2
 2772              	__FUNCTION__.8896:
 2773 0000 6174696E 		.ascii	"atiny_init\000"
 2773      795F696E 
 2773      697400
 2774              		.section	.rodata.__func__.8897,"a",%progbits
 2775              		.align	2
 2778              	__func__.8897:
 2779 0000 6174696E 		.ascii	"atiny_init\000"
 2779      795F696E 
 2779      697400
 2780              		.section	.rodata.__FUNCTION__.8912,"a",%progbits
 2781              		.align	2
 2784              	__FUNCTION__.8912:
 2785 0000 6174696E 		.ascii	"atiny_init_objects\000"
 2785      795F696E 
 2785      69745F6F 
 2785      626A6563 
 2785      747300
 2786              		.section	.rodata.__FUNCTION__.8922,"a",%progbits
 2787              		.align	2
 2790              	__FUNCTION__.8922:
 2791 0000 6C776D32 		.ascii	"lwm2m_poll\000"
 2791      6D5F706F 
 2791      6C6C00
 2792              		.section	.rodata.__FUNCTION__.8952,"a",%progbits
 2793              		.align	2
 2796              	__FUNCTION__.8952:
 2797 0000 6174696E 		.ascii	"atiny_connection_err_notify\000"
 2797      795F636F 
 2797      6E6E6563 
 2797      74696F6E 
 2797      5F657272 
 2798              		.section	.rodata.__FUNCTION__.8956,"a",%progbits
 2799              		.align	2
 2802              	__FUNCTION__.8956:
 2803 0000 6174696E 		.ascii	"atiny_handle_reconnect\000"
 2803      795F6861 
 2803      6E646C65 
ARM GAS  C:\Users\dtjld\AppData\Local\Temp\ccIjCgHN.s 			page 73


 2803      5F726563 
 2803      6F6E6E65 
 2804              		.section	.rodata.__FUNCTION__.8964,"a",%progbits
 2805              		.align	2
 2808              	__FUNCTION__.8964:
 2809 0000 6174696E 		.ascii	"atiny_bind\000"
 2809      795F6269 
 2809      6E6400
 2810              		.section	.rodata.__FUNCTION__.8979,"a",%progbits
 2811              		.align	2
 2814              	__FUNCTION__.8979:
 2815 0000 6174696E 		.ascii	"atiny_data_report\000"
 2815      795F6461 
 2815      74615F72 
 2815      65706F72 
 2815      7400
 2816              		.section	.rodata.__FUNCTION__.8990,"a",%progbits
 2817              		.align	2
 2820              	__FUNCTION__.8990:
 2821 0000 6174696E 		.ascii	"atiny_data_change\000"
 2821      795F6461 
 2821      74615F63 
 2821      68616E67 
 2821      6500
 2822              		.section	.rodata.__FUNCTION__.9000,"a",%progbits
 2823              		.align	2
 2826              	__FUNCTION__.9000:
 2827 0000 6174696E 		.ascii	"atiny_reconnect\000"
 2827      795F7265 
 2827      636F6E6E 
 2827      65637400 
 2828              		.text
 2829              	.Letext0:
 2830              		.file 4 "c:\\ac6\\systemworkbench\\plugins\\fr.ac6.mcu.externaltools.arm-none.win32_1.16.0.2018071
 2831              		.file 5 "c:\\ac6\\systemworkbench\\plugins\\fr.ac6.mcu.externaltools.arm-none.win32_1.16.0.2018071
 2832              		.file 6 "C:/Users/dtjld/Desktop/AIoT_software/LiteOS_Lab_overseas/LiteOS_Lab/iot_link/network/lwm2
 2833              		.file 7 "c:\\ac6\\systemworkbench\\plugins\\fr.ac6.mcu.externaltools.arm-none.win32_1.16.0.2018071
 2834              		.file 8 "c:\\ac6\\systemworkbench\\plugins\\fr.ac6.mcu.externaltools.arm-none.win32_1.16.0.2018071
 2835              		.file 9 "c:\\ac6\\systemworkbench\\plugins\\fr.ac6.mcu.externaltools.arm-none.win32_1.16.0.2018071
 2836              		.file 10 "c:\\ac6\\systemworkbench\\plugins\\fr.ac6.mcu.externaltools.arm-none.win32_1.16.0.201807
 2837              		.file 11 "c:\\ac6\\systemworkbench\\plugins\\fr.ac6.mcu.externaltools.arm-none.win32_1.16.0.201807
 2838              		.file 12 "c:\\ac6\\systemworkbench\\plugins\\fr.ac6.mcu.externaltools.arm-none.win32_1.16.0.201807
 2839              		.file 13 "C:/Users/dtjld/Desktop/AIoT_software/LiteOS_Lab_overseas/LiteOS_Lab/iot_link/network/lwm
 2840              		.file 14 "C:/Users/dtjld/Desktop/AIoT_software/LiteOS_Lab_overseas/LiteOS_Lab/iot_link/os/osal/osa
 2841              		.file 15 "C:/Users/dtjld/Desktop/AIoT_software/LiteOS_Lab_overseas/LiteOS_Lab/iot_link/link_log/at
 2842              		.file 16 "C:/Users/dtjld/Desktop/AIoT_software/LiteOS_Lab_overseas/LiteOS_Lab/iot_link/network/lwm
 2843              		.file 17 "c:\\ac6\\systemworkbench\\plugins\\fr.ac6.mcu.externaltools.arm-none.win32_1.16.0.201807
 2844              		.file 18 "c:\\ac6\\systemworkbench\\plugins\\fr.ac6.mcu.externaltools.arm-none.win32_1.16.0.201807
 2845              		.file 19 "C:/Users/dtjld/Desktop/AIoT_software/LiteOS_Lab_overseas/LiteOS_Lab/iot_link/oc/oc_lwm2m
 2846              		.file 20 "C:/Users/dtjld/Desktop/AIoT_software/LiteOS_Lab_overseas/LiteOS_Lab/iot_link/oc/oc_lwm2m
 2847              		.file 21 "C:/Users/dtjld/Desktop/AIoT_software/LiteOS_Lab_overseas/LiteOS_Lab/iot_link/oc/oc_lwm2m
 2848              		.file 22 "C:/Users/dtjld/Desktop/AIoT_software/LiteOS_Lab_overseas/LiteOS_Lab/iot_link/oc/oc_lwm2m
ARM GAS  C:\Users\dtjld\AppData\Local\Temp\ccIjCgHN.s 			page 74


DEFINED SYMBOLS
                            *ABS*:00000000 agenttiny.c
C:\Users\dtjld\AppData\Local\Temp\ccIjCgHN.s:18     .text.dm_isUriOpaqueHandle:00000000 $t
C:\Users\dtjld\AppData\Local\Temp\ccIjCgHN.s:24     .text.dm_isUriOpaqueHandle:00000000 dm_isUriOpaqueHandle
C:\Users\dtjld\AppData\Local\Temp\ccIjCgHN.s:69     .text.get_resource_uri:00000000 $t
C:\Users\dtjld\AppData\Local\Temp\ccIjCgHN.s:75     .text.get_resource_uri:00000000 get_resource_uri
C:\Users\dtjld\AppData\Local\Temp\ccIjCgHN.s:146    .bss.g_reboot:00000000 g_reboot
C:\Users\dtjld\AppData\Local\Temp\ccIjCgHN.s:143    .bss.g_reboot:00000000 $d
C:\Users\dtjld\AppData\Local\Temp\ccIjCgHN.s:149    .bss.g_atiny_handle:00000000 $d
C:\Users\dtjld\AppData\Local\Temp\ccIjCgHN.s:152    .bss.g_atiny_handle:00000000 g_atiny_handle
C:\Users\dtjld\AppData\Local\Temp\ccIjCgHN.s:155    .rodata:00000000 $d
C:\Users\dtjld\AppData\Local\Temp\ccIjCgHN.s:170    .text.atiny_check_bootstrap_init_param:00000000 $t
C:\Users\dtjld\AppData\Local\Temp\ccIjCgHN.s:176    .text.atiny_check_bootstrap_init_param:00000000 atiny_check_bootstrap_init_param
C:\Users\dtjld\AppData\Local\Temp\ccIjCgHN.s:300    .text.atiny_check_bootstrap_init_param:000000a8 $d
C:\Users\dtjld\AppData\Local\Temp\ccIjCgHN.s:2766   .rodata.__func__.8890:00000000 __func__.8890
C:\Users\dtjld\AppData\Local\Temp\ccIjCgHN.s:322    .text.atiny_init:00000000 $t
C:\Users\dtjld\AppData\Local\Temp\ccIjCgHN.s:329    .text.atiny_init:00000000 atiny_init
C:\Users\dtjld\AppData\Local\Temp\ccIjCgHN.s:505    .text.atiny_init:00000120 $d
C:\Users\dtjld\AppData\Local\Temp\ccIjCgHN.s:2772   .rodata.__FUNCTION__.8896:00000000 __FUNCTION__.8896
C:\Users\dtjld\AppData\Local\Temp\ccIjCgHN.s:2778   .rodata.__func__.8897:00000000 __func__.8897
C:\Users\dtjld\AppData\Local\Temp\ccIjCgHN.s:517    .text.atiny_set_bootstrap_sequence_state:00000000 $t
C:\Users\dtjld\AppData\Local\Temp\ccIjCgHN.s:524    .text.atiny_set_bootstrap_sequence_state:00000000 atiny_set_bootstrap_sequence_state
C:\Users\dtjld\AppData\Local\Temp\ccIjCgHN.s:601    .text.atiny_init_objects:00000000 $t
C:\Users\dtjld\AppData\Local\Temp\ccIjCgHN.s:608    .text.atiny_init_objects:00000000 atiny_init_objects
C:\Users\dtjld\AppData\Local\Temp\ccIjCgHN.s:1057   .text.atiny_init_objects:00000334 $d
C:\Users\dtjld\AppData\Local\Temp\ccIjCgHN.s:2784   .rodata.__FUNCTION__.8912:00000000 __FUNCTION__.8912
C:\Users\dtjld\AppData\Local\Temp\ccIjCgHN.s:1076   .text.lwm2m_poll:00000000 $t
C:\Users\dtjld\AppData\Local\Temp\ccIjCgHN.s:1082   .text.lwm2m_poll:00000000 lwm2m_poll
C:\Users\dtjld\AppData\Local\Temp\ccIjCgHN.s:1194   .text.lwm2m_poll:000000a0 $d
C:\Users\dtjld\AppData\Local\Temp\ccIjCgHN.s:2790   .rodata.__FUNCTION__.8922:00000000 __FUNCTION__.8922
C:\Users\dtjld\AppData\Local\Temp\ccIjCgHN.s:1201   .text.atiny_destroy:00000000 $t
C:\Users\dtjld\AppData\Local\Temp\ccIjCgHN.s:1208   .text.atiny_destroy:00000000 atiny_destroy
C:\Users\dtjld\AppData\Local\Temp\ccIjCgHN.s:1381   .text.atiny_event_handle:00000000 $t
C:\Users\dtjld\AppData\Local\Temp\ccIjCgHN.s:1388   .text.atiny_event_handle:00000000 atiny_event_handle
C:\Users\dtjld\AppData\Local\Temp\ccIjCgHN.s:1532   .text.reboot_check:00000000 $t
C:\Users\dtjld\AppData\Local\Temp\ccIjCgHN.s:1539   .text.reboot_check:00000000 reboot_check
C:\Users\dtjld\AppData\Local\Temp\ccIjCgHN.s:1570   .text.reboot_check:0000001c $d
C:\Users\dtjld\AppData\Local\Temp\ccIjCgHN.s:1583   .text.atiny_connection_err_notify:00000000 $t
C:\Users\dtjld\AppData\Local\Temp\ccIjCgHN.s:1589   .text.atiny_connection_err_notify:00000000 atiny_connection_err_notify
C:\Users\dtjld\AppData\Local\Temp\ccIjCgHN.s:2642   .text.atiny_reconnect:00000000 atiny_reconnect
C:\Users\dtjld\AppData\Local\Temp\ccIjCgHN.s:1704   .text.atiny_connection_err_notify:000000ac $d
C:\Users\dtjld\AppData\Local\Temp\ccIjCgHN.s:2796   .rodata.__FUNCTION__.8952:00000000 __FUNCTION__.8952
C:\Users\dtjld\AppData\Local\Temp\ccIjCgHN.s:1715   .text.atiny_handle_reconnect:00000000 $t
C:\Users\dtjld\AppData\Local\Temp\ccIjCgHN.s:1721   .text.atiny_handle_reconnect:00000000 atiny_handle_reconnect
C:\Users\dtjld\AppData\Local\Temp\ccIjCgHN.s:1788   .text.atiny_handle_reconnect:00000054 $d
C:\Users\dtjld\AppData\Local\Temp\ccIjCgHN.s:2802   .rodata.__FUNCTION__.8956:00000000 __FUNCTION__.8956
C:\Users\dtjld\AppData\Local\Temp\ccIjCgHN.s:1810   .text.atiny_bind:00000000 $t
C:\Users\dtjld\AppData\Local\Temp\ccIjCgHN.s:1817   .text.atiny_bind:00000000 atiny_bind
C:\Users\dtjld\AppData\Local\Temp\ccIjCgHN.s:2104   .text.atiny_deinit:00000000 atiny_deinit
C:\Users\dtjld\AppData\Local\Temp\ccIjCgHN.s:2084   .text.atiny_bind:000001d8 $d
C:\Users\dtjld\AppData\Local\Temp\ccIjCgHN.s:2808   .rodata.__FUNCTION__.8964:00000000 __FUNCTION__.8964
C:\Users\dtjld\AppData\Local\Temp\ccIjCgHN.s:2551   .text.observe_handle_ack:00000000 observe_handle_ack
C:\Users\dtjld\AppData\Local\Temp\ccIjCgHN.s:2097   .text.atiny_deinit:00000000 $t
C:\Users\dtjld\AppData\Local\Temp\ccIjCgHN.s:2176   .text.atiny_data_report:00000000 $t
C:\Users\dtjld\AppData\Local\Temp\ccIjCgHN.s:2183   .text.atiny_data_report:00000000 atiny_data_report
C:\Users\dtjld\AppData\Local\Temp\ccIjCgHN.s:2376   .text.atiny_data_report:0000013c $d
C:\Users\dtjld\AppData\Local\Temp\ccIjCgHN.s:2814   .rodata.__FUNCTION__.8979:00000000 __FUNCTION__.8979
ARM GAS  C:\Users\dtjld\AppData\Local\Temp\ccIjCgHN.s 			page 75


C:\Users\dtjld\AppData\Local\Temp\ccIjCgHN.s:2388   .text.atiny_data_change:00000000 $t
C:\Users\dtjld\AppData\Local\Temp\ccIjCgHN.s:2395   .text.atiny_data_change:00000000 atiny_data_change
C:\Users\dtjld\AppData\Local\Temp\ccIjCgHN.s:2537   .text.atiny_data_change:000000e4 $d
C:\Users\dtjld\AppData\Local\Temp\ccIjCgHN.s:2820   .rodata.__FUNCTION__.8990:00000000 __FUNCTION__.8990
C:\Users\dtjld\AppData\Local\Temp\ccIjCgHN.s:2544   .text.observe_handle_ack:00000000 $t
C:\Users\dtjld\AppData\Local\Temp\ccIjCgHN.s:2635   .text.atiny_reconnect:00000000 $t
C:\Users\dtjld\AppData\Local\Temp\ccIjCgHN.s:2713   .text.atiny_reconnect:00000054 $d
C:\Users\dtjld\AppData\Local\Temp\ccIjCgHN.s:2826   .rodata.__FUNCTION__.9000:00000000 __FUNCTION__.9000
C:\Users\dtjld\AppData\Local\Temp\ccIjCgHN.s:2719   .text.atiny_set_reboot_flag:00000000 $t
C:\Users\dtjld\AppData\Local\Temp\ccIjCgHN.s:2726   .text.atiny_set_reboot_flag:00000000 atiny_set_reboot_flag
C:\Users\dtjld\AppData\Local\Temp\ccIjCgHN.s:2758   .text.atiny_set_reboot_flag:00000014 $d
C:\Users\dtjld\AppData\Local\Temp\ccIjCgHN.s:2763   .rodata.__func__.8890:00000000 $d
C:\Users\dtjld\AppData\Local\Temp\ccIjCgHN.s:2769   .rodata.__FUNCTION__.8896:00000000 $d
C:\Users\dtjld\AppData\Local\Temp\ccIjCgHN.s:2775   .rodata.__func__.8897:00000000 $d
C:\Users\dtjld\AppData\Local\Temp\ccIjCgHN.s:2781   .rodata.__FUNCTION__.8912:00000000 $d
C:\Users\dtjld\AppData\Local\Temp\ccIjCgHN.s:2787   .rodata.__FUNCTION__.8922:00000000 $d
C:\Users\dtjld\AppData\Local\Temp\ccIjCgHN.s:2793   .rodata.__FUNCTION__.8952:00000000 $d
C:\Users\dtjld\AppData\Local\Temp\ccIjCgHN.s:2799   .rodata.__FUNCTION__.8956:00000000 $d
C:\Users\dtjld\AppData\Local\Temp\ccIjCgHN.s:2805   .rodata.__FUNCTION__.8964:00000000 $d
C:\Users\dtjld\AppData\Local\Temp\ccIjCgHN.s:2811   .rodata.__FUNCTION__.8979:00000000 $d
C:\Users\dtjld\AppData\Local\Temp\ccIjCgHN.s:2817   .rodata.__FUNCTION__.8990:00000000 $d
C:\Users\dtjld\AppData\Local\Temp\ccIjCgHN.s:2823   .rodata.__FUNCTION__.9000:00000000 $d

UNDEFINED SYMBOLS
lwm2m_gettime
atiny_printf
atiny_init_rpt
atiny_get_log_level
atiny_get_log_level_name
osal_sys_time
memset
osal_semp_create
lwm2m_initBootStrap
lwm2m_init
osal_mutex_create
lwm2m_free
get_security_object
get_server_object
acc_ctrl_create_object
get_object_device
get_object_conn_m
get_object_firmware
get_object_location
get_binary_app_data_object
lwm2m_configure
lwm2m_buffer_recv
output_buffer
lwm2m_handle_packet
_impure_ptr
clean_security_object
clean_server_object
acl_ctrl_free_object
free_object_device
free_object_conn_m
free_object_firmware
free_object_location
free_binary_app_data_object
ARM GAS  C:\Users\dtjld\AppData\Local\Temp\ccIjCgHN.s 			page 76


atiny_destroy_rpt
osal_mutex_del
lwm2m_close
osal_semp_post
atiny_event_notify
atiny_clear_rpt_data
atiny_cmd_ioctl
lwm2m_reconnect
lwm2m_register_observe_ack_call_back
lwm2m_register_event_handler
lwm2m_register_connection_err_notify
lwm2m_malloc
atiny_step_rpt
lwm2m_step
osal_semp_pend
osal_semp_del
lwm2m_stringToUri
memcpy
atiny_queue_rpt_data
strlen
osal_mutex_lock
lwm2m_resource_value_changed
osal_mutex_unlock
