ARM GAS  C:\Users\dtjld\AppData\Local\Temp\ccvmmsjH.s 			page 1


   1              		.cpu cortex-m4
   2              		.eabi_attribute 27, 1
   3              		.eabi_attribute 28, 1
   4              		.eabi_attribute 20, 1
   5              		.eabi_attribute 21, 1
   6              		.eabi_attribute 23, 3
   7              		.eabi_attribute 24, 1
   8              		.eabi_attribute 25, 1
   9              		.eabi_attribute 26, 1
  10              		.eabi_attribute 30, 6
  11              		.eabi_attribute 34, 1
  12              		.eabi_attribute 18, 4
  13              		.file	"agent_tiny_cmd_ioctl.c"
  14              		.text
  15              	.Ltext0:
  16              		.cfi_sections	.debug_frame
  17              		.section	.rodata
  18              		.align	2
  19              	.LC0:
  20 0000 4F70656E 		.ascii	"Open Mobile Alliance\000"
  20      204D6F62 
  20      696C6520 
  20      416C6C69 
  20      616E6365 
  21              		.section	.text.atiny_get_manufacturer,"ax",%progbits
  22              		.align	1
  23              		.global	atiny_get_manufacturer
  24              		.syntax unified
  25              		.thumb
  26              		.thumb_func
  27              		.fpu fpv4-sp-d16
  29              	atiny_get_manufacturer:
  30              	.LFB3:
  31              		.file 1 "C:/Users/dtjld/Desktop/AIoT_software/LiteOS_Lab_overseas/LiteOS_Lab/iot_link/oc/oc_lwm2m/
   1:C:/Users/dtjld/Desktop/AIoT_software/LiteOS_Lab_overseas/LiteOS_Lab/iot_link/oc/oc_lwm2m/atiny_lwm2m\agent_tiny_cmd_ioctl.c **** /*----------------------------------------------------------------------------
   2:C:/Users/dtjld/Desktop/AIoT_software/LiteOS_Lab_overseas/LiteOS_Lab/iot_link/oc/oc_lwm2m/atiny_lwm2m\agent_tiny_cmd_ioctl.c ****  * Copyright (c) <2016-2018>, <Huawei Technologies Co., Ltd>
   3:C:/Users/dtjld/Desktop/AIoT_software/LiteOS_Lab_overseas/LiteOS_Lab/iot_link/oc/oc_lwm2m/atiny_lwm2m\agent_tiny_cmd_ioctl.c ****  * All rights reserved.
   4:C:/Users/dtjld/Desktop/AIoT_software/LiteOS_Lab_overseas/LiteOS_Lab/iot_link/oc/oc_lwm2m/atiny_lwm2m\agent_tiny_cmd_ioctl.c ****  * Redistribution and use in source and binary forms, with or without modification,
   5:C:/Users/dtjld/Desktop/AIoT_software/LiteOS_Lab_overseas/LiteOS_Lab/iot_link/oc/oc_lwm2m/atiny_lwm2m\agent_tiny_cmd_ioctl.c ****  * are permitted provided that the following conditions are met:
   6:C:/Users/dtjld/Desktop/AIoT_software/LiteOS_Lab_overseas/LiteOS_Lab/iot_link/oc/oc_lwm2m/atiny_lwm2m\agent_tiny_cmd_ioctl.c ****  * 1. Redistributions of source code must retain the above copyright notice, this list of
   7:C:/Users/dtjld/Desktop/AIoT_software/LiteOS_Lab_overseas/LiteOS_Lab/iot_link/oc/oc_lwm2m/atiny_lwm2m\agent_tiny_cmd_ioctl.c ****  * conditions and the following disclaimer.
   8:C:/Users/dtjld/Desktop/AIoT_software/LiteOS_Lab_overseas/LiteOS_Lab/iot_link/oc/oc_lwm2m/atiny_lwm2m\agent_tiny_cmd_ioctl.c ****  * 2. Redistributions in binary form must reproduce the above copyright notice, this list
   9:C:/Users/dtjld/Desktop/AIoT_software/LiteOS_Lab_overseas/LiteOS_Lab/iot_link/oc/oc_lwm2m/atiny_lwm2m\agent_tiny_cmd_ioctl.c ****  * of conditions and the following disclaimer in the documentation and/or other materials
  10:C:/Users/dtjld/Desktop/AIoT_software/LiteOS_Lab_overseas/LiteOS_Lab/iot_link/oc/oc_lwm2m/atiny_lwm2m\agent_tiny_cmd_ioctl.c ****  * provided with the distribution.
  11:C:/Users/dtjld/Desktop/AIoT_software/LiteOS_Lab_overseas/LiteOS_Lab/iot_link/oc/oc_lwm2m/atiny_lwm2m\agent_tiny_cmd_ioctl.c ****  * 3. Neither the name of the copyright holder nor the names of its contributors may be used
  12:C:/Users/dtjld/Desktop/AIoT_software/LiteOS_Lab_overseas/LiteOS_Lab/iot_link/oc/oc_lwm2m/atiny_lwm2m\agent_tiny_cmd_ioctl.c ****  * to endorse or promote products derived from this software without specific prior written
  13:C:/Users/dtjld/Desktop/AIoT_software/LiteOS_Lab_overseas/LiteOS_Lab/iot_link/oc/oc_lwm2m/atiny_lwm2m\agent_tiny_cmd_ioctl.c ****  * permission.
  14:C:/Users/dtjld/Desktop/AIoT_software/LiteOS_Lab_overseas/LiteOS_Lab/iot_link/oc/oc_lwm2m/atiny_lwm2m\agent_tiny_cmd_ioctl.c ****  * THIS SOFTWARE IS PROVIDED BY THE COPYRIGHT HOLDERS AND CONTRIBUTORS
  15:C:/Users/dtjld/Desktop/AIoT_software/LiteOS_Lab_overseas/LiteOS_Lab/iot_link/oc/oc_lwm2m/atiny_lwm2m\agent_tiny_cmd_ioctl.c ****  * "AS IS" AND ANY EXPRESS OR IMPLIED WARRANTIES, INCLUDING, BUT NOT LIMITED TO,
  16:C:/Users/dtjld/Desktop/AIoT_software/LiteOS_Lab_overseas/LiteOS_Lab/iot_link/oc/oc_lwm2m/atiny_lwm2m\agent_tiny_cmd_ioctl.c ****  * THE IMPLIED WARRANTIES OF MERCHANTABILITY AND FITNESS FOR A PARTICULAR
  17:C:/Users/dtjld/Desktop/AIoT_software/LiteOS_Lab_overseas/LiteOS_Lab/iot_link/oc/oc_lwm2m/atiny_lwm2m\agent_tiny_cmd_ioctl.c ****  * PURPOSE ARE DISCLAIMED. IN NO EVENT SHALL THE COPYRIGHT HOLDER OR
  18:C:/Users/dtjld/Desktop/AIoT_software/LiteOS_Lab_overseas/LiteOS_Lab/iot_link/oc/oc_lwm2m/atiny_lwm2m\agent_tiny_cmd_ioctl.c ****  * CONTRIBUTORS BE LIABLE FOR ANY DIRECT, INDIRECT, INCIDENTAL, SPECIAL,
  19:C:/Users/dtjld/Desktop/AIoT_software/LiteOS_Lab_overseas/LiteOS_Lab/iot_link/oc/oc_lwm2m/atiny_lwm2m\agent_tiny_cmd_ioctl.c ****  * EXEMPLARY, OR CONSEQUENTIAL DAMAGES (INCLUDING, BUT NOT LIMITED TO,
  20:C:/Users/dtjld/Desktop/AIoT_software/LiteOS_Lab_overseas/LiteOS_Lab/iot_link/oc/oc_lwm2m/atiny_lwm2m\agent_tiny_cmd_ioctl.c ****  * PROCUREMENT OF SUBSTITUTE GOODS OR SERVICES; LOSS OF USE, DATA, OR PROFITS;
  21:C:/Users/dtjld/Desktop/AIoT_software/LiteOS_Lab_overseas/LiteOS_Lab/iot_link/oc/oc_lwm2m/atiny_lwm2m\agent_tiny_cmd_ioctl.c ****  * OR BUSINESS INTERRUPTION) HOWEVER CAUSED AND ON ANY THEORY OF LIABILITY,
  22:C:/Users/dtjld/Desktop/AIoT_software/LiteOS_Lab_overseas/LiteOS_Lab/iot_link/oc/oc_lwm2m/atiny_lwm2m\agent_tiny_cmd_ioctl.c ****  * WHETHER IN CONTRACT, STRICT LIABILITY, OR TORT (INCLUDING NEGLIGENCE OR
  23:C:/Users/dtjld/Desktop/AIoT_software/LiteOS_Lab_overseas/LiteOS_Lab/iot_link/oc/oc_lwm2m/atiny_lwm2m\agent_tiny_cmd_ioctl.c ****  * OTHERWISE) ARISING IN ANY WAY OUT OF THE USE OF THIS SOFTWARE, EVEN IF
ARM GAS  C:\Users\dtjld\AppData\Local\Temp\ccvmmsjH.s 			page 2


  24:C:/Users/dtjld/Desktop/AIoT_software/LiteOS_Lab_overseas/LiteOS_Lab/iot_link/oc/oc_lwm2m/atiny_lwm2m\agent_tiny_cmd_ioctl.c ****  * ADVISED OF THE POSSIBILITY OF SUCH DAMAGE.
  25:C:/Users/dtjld/Desktop/AIoT_software/LiteOS_Lab_overseas/LiteOS_Lab/iot_link/oc/oc_lwm2m/atiny_lwm2m\agent_tiny_cmd_ioctl.c ****  *---------------------------------------------------------------------------*/
  26:C:/Users/dtjld/Desktop/AIoT_software/LiteOS_Lab_overseas/LiteOS_Lab/iot_link/oc/oc_lwm2m/atiny_lwm2m\agent_tiny_cmd_ioctl.c **** /*----------------------------------------------------------------------------
  27:C:/Users/dtjld/Desktop/AIoT_software/LiteOS_Lab_overseas/LiteOS_Lab/iot_link/oc/oc_lwm2m/atiny_lwm2m\agent_tiny_cmd_ioctl.c ****  * Notice of Export Control Law
  28:C:/Users/dtjld/Desktop/AIoT_software/LiteOS_Lab_overseas/LiteOS_Lab/iot_link/oc/oc_lwm2m/atiny_lwm2m\agent_tiny_cmd_ioctl.c ****  * ===============================================
  29:C:/Users/dtjld/Desktop/AIoT_software/LiteOS_Lab_overseas/LiteOS_Lab/iot_link/oc/oc_lwm2m/atiny_lwm2m\agent_tiny_cmd_ioctl.c ****  * Huawei LiteOS may be subject to applicable export control laws and regulations, which might
  30:C:/Users/dtjld/Desktop/AIoT_software/LiteOS_Lab_overseas/LiteOS_Lab/iot_link/oc/oc_lwm2m/atiny_lwm2m\agent_tiny_cmd_ioctl.c ****  * include those applicable to Huawei LiteOS of U.S. and the country in which you are located.
  31:C:/Users/dtjld/Desktop/AIoT_software/LiteOS_Lab_overseas/LiteOS_Lab/iot_link/oc/oc_lwm2m/atiny_lwm2m\agent_tiny_cmd_ioctl.c ****  * Import, export and usage of Huawei LiteOS in any manner by you shall be in compliance with such
  32:C:/Users/dtjld/Desktop/AIoT_software/LiteOS_Lab_overseas/LiteOS_Lab/iot_link/oc/oc_lwm2m/atiny_lwm2m\agent_tiny_cmd_ioctl.c ****  * applicable export control laws and regulations.
  33:C:/Users/dtjld/Desktop/AIoT_software/LiteOS_Lab_overseas/LiteOS_Lab/iot_link/oc/oc_lwm2m/atiny_lwm2m\agent_tiny_cmd_ioctl.c ****  *---------------------------------------------------------------------------*/
  34:C:/Users/dtjld/Desktop/AIoT_software/LiteOS_Lab_overseas/LiteOS_Lab/iot_link/oc/oc_lwm2m/atiny_lwm2m\agent_tiny_cmd_ioctl.c **** 
  35:C:/Users/dtjld/Desktop/AIoT_software/LiteOS_Lab_overseas/LiteOS_Lab/iot_link/oc/oc_lwm2m/atiny_lwm2m\agent_tiny_cmd_ioctl.c **** #include "agent_tiny_cmd_ioctl.h"
  36:C:/Users/dtjld/Desktop/AIoT_software/LiteOS_Lab_overseas/LiteOS_Lab/iot_link/oc/oc_lwm2m/atiny_lwm2m\agent_tiny_cmd_ioctl.c **** #include "agenttiny.h"
  37:C:/Users/dtjld/Desktop/AIoT_software/LiteOS_Lab_overseas/LiteOS_Lab/iot_link/oc/oc_lwm2m/atiny_lwm2m\agent_tiny_cmd_ioctl.c **** #ifdef CONFIG_FEATURE_FOTA
  38:C:/Users/dtjld/Desktop/AIoT_software/LiteOS_Lab_overseas/LiteOS_Lab/iot_link/oc/oc_lwm2m/atiny_lwm2m\agent_tiny_cmd_ioctl.c **** #include "ota/ota_api.h"
  39:C:/Users/dtjld/Desktop/AIoT_software/LiteOS_Lab_overseas/LiteOS_Lab/iot_link/oc/oc_lwm2m/atiny_lwm2m\agent_tiny_cmd_ioctl.c **** #include "ota_port.h"
  40:C:/Users/dtjld/Desktop/AIoT_software/LiteOS_Lab_overseas/LiteOS_Lab/iot_link/oc/oc_lwm2m/atiny_lwm2m\agent_tiny_cmd_ioctl.c **** #endif
  41:C:/Users/dtjld/Desktop/AIoT_software/LiteOS_Lab_overseas/LiteOS_Lab/iot_link/oc/oc_lwm2m/atiny_lwm2m\agent_tiny_cmd_ioctl.c **** 
  42:C:/Users/dtjld/Desktop/AIoT_software/LiteOS_Lab_overseas/LiteOS_Lab/iot_link/oc/oc_lwm2m/atiny_lwm2m\agent_tiny_cmd_ioctl.c **** #include <osal.h>
  43:C:/Users/dtjld/Desktop/AIoT_software/LiteOS_Lab_overseas/LiteOS_Lab/iot_link/oc/oc_lwm2m/atiny_lwm2m\agent_tiny_cmd_ioctl.c **** 
  44:C:/Users/dtjld/Desktop/AIoT_software/LiteOS_Lab_overseas/LiteOS_Lab/iot_link/oc/oc_lwm2m/atiny_lwm2m\agent_tiny_cmd_ioctl.c **** 
  45:C:/Users/dtjld/Desktop/AIoT_software/LiteOS_Lab_overseas/LiteOS_Lab/iot_link/oc/oc_lwm2m/atiny_lwm2m\agent_tiny_cmd_ioctl.c **** #define ATINY_POWER_VOLTAGE     3800
  46:C:/Users/dtjld/Desktop/AIoT_software/LiteOS_Lab_overseas/LiteOS_Lab/iot_link/oc/oc_lwm2m/atiny_lwm2m\agent_tiny_cmd_ioctl.c **** #define ATINY_BATTERY_LEVEL     90
  47:C:/Users/dtjld/Desktop/AIoT_software/LiteOS_Lab_overseas/LiteOS_Lab/iot_link/oc/oc_lwm2m/atiny_lwm2m\agent_tiny_cmd_ioctl.c **** #define ATINY_MEMORY_FREE       50
  48:C:/Users/dtjld/Desktop/AIoT_software/LiteOS_Lab_overseas/LiteOS_Lab/iot_link/oc/oc_lwm2m/atiny_lwm2m\agent_tiny_cmd_ioctl.c **** #define ATINY_NETWORK_BEARER    5
  49:C:/Users/dtjld/Desktop/AIoT_software/LiteOS_Lab_overseas/LiteOS_Lab/iot_link/oc/oc_lwm2m/atiny_lwm2m\agent_tiny_cmd_ioctl.c **** #define ATINY_SIGNAL_STRENGTH   90
  50:C:/Users/dtjld/Desktop/AIoT_software/LiteOS_Lab_overseas/LiteOS_Lab/iot_link/oc/oc_lwm2m/atiny_lwm2m\agent_tiny_cmd_ioctl.c **** #define ATINY_CELL_ID           21103
  51:C:/Users/dtjld/Desktop/AIoT_software/LiteOS_Lab_overseas/LiteOS_Lab/iot_link/oc/oc_lwm2m/atiny_lwm2m\agent_tiny_cmd_ioctl.c **** #define ATINY_LINK_QUALITY      98
  52:C:/Users/dtjld/Desktop/AIoT_software/LiteOS_Lab_overseas/LiteOS_Lab/iot_link/oc/oc_lwm2m/atiny_lwm2m\agent_tiny_cmd_ioctl.c **** #define ATINY_LINK_UTRILIZATION 10
  53:C:/Users/dtjld/Desktop/AIoT_software/LiteOS_Lab_overseas/LiteOS_Lab/iot_link/oc/oc_lwm2m/atiny_lwm2m\agent_tiny_cmd_ioctl.c **** #define ATINY_POWER_SOURCE      1
  54:C:/Users/dtjld/Desktop/AIoT_software/LiteOS_Lab_overseas/LiteOS_Lab/iot_link/oc/oc_lwm2m/atiny_lwm2m\agent_tiny_cmd_ioctl.c **** #define ATINY_POWER_CURRENT     125
  55:C:/Users/dtjld/Desktop/AIoT_software/LiteOS_Lab_overseas/LiteOS_Lab/iot_link/oc/oc_lwm2m/atiny_lwm2m\agent_tiny_cmd_ioctl.c **** #define ATINY_LATITUDE          27.986065f
  56:C:/Users/dtjld/Desktop/AIoT_software/LiteOS_Lab_overseas/LiteOS_Lab/iot_link/oc/oc_lwm2m/atiny_lwm2m\agent_tiny_cmd_ioctl.c **** #define ATINY_LONGITUDE         86.922623f
  57:C:/Users/dtjld/Desktop/AIoT_software/LiteOS_Lab_overseas/LiteOS_Lab/iot_link/oc/oc_lwm2m/atiny_lwm2m\agent_tiny_cmd_ioctl.c **** #define ATINY_ALTITUDE          8495.0000f
  58:C:/Users/dtjld/Desktop/AIoT_software/LiteOS_Lab_overseas/LiteOS_Lab/iot_link/oc/oc_lwm2m/atiny_lwm2m\agent_tiny_cmd_ioctl.c **** #define ATINY_RADIUS            0.0f
  59:C:/Users/dtjld/Desktop/AIoT_software/LiteOS_Lab_overseas/LiteOS_Lab/iot_link/oc/oc_lwm2m/atiny_lwm2m\agent_tiny_cmd_ioctl.c **** #define ATINY_SPEED             0.0f
  60:C:/Users/dtjld/Desktop/AIoT_software/LiteOS_Lab_overseas/LiteOS_Lab/iot_link/oc/oc_lwm2m/atiny_lwm2m\agent_tiny_cmd_ioctl.c **** #define ATINY_TIME_CODE         1367491215
  61:C:/Users/dtjld/Desktop/AIoT_software/LiteOS_Lab_overseas/LiteOS_Lab/iot_link/oc/oc_lwm2m/atiny_lwm2m\agent_tiny_cmd_ioctl.c **** 
  62:C:/Users/dtjld/Desktop/AIoT_software/LiteOS_Lab_overseas/LiteOS_Lab/iot_link/oc/oc_lwm2m/atiny_lwm2m\agent_tiny_cmd_ioctl.c **** int atiny_get_manufacturer(char *manu, int len)
  63:C:/Users/dtjld/Desktop/AIoT_software/LiteOS_Lab_overseas/LiteOS_Lab/iot_link/oc/oc_lwm2m/atiny_lwm2m\agent_tiny_cmd_ioctl.c **** {
  32              		.loc 1 63 0
  33              		.cfi_startproc
  34              		@ args = 0, pretend = 0, frame = 8
  35              		@ frame_needed = 1, uses_anonymous_args = 0
  36 0000 80B5     		push	{r7, lr}
  37              	.LCFI0:
  38              		.cfi_def_cfa_offset 8
  39              		.cfi_offset 7, -8
  40              		.cfi_offset 14, -4
  41 0002 82B0     		sub	sp, sp, #8
  42              	.LCFI1:
  43              		.cfi_def_cfa_offset 16
  44 0004 00AF     		add	r7, sp, #0
  45              	.LCFI2:
  46              		.cfi_def_cfa_register 7
  47 0006 7860     		str	r0, [r7, #4]
  48 0008 3960     		str	r1, [r7]
ARM GAS  C:\Users\dtjld\AppData\Local\Temp\ccvmmsjH.s 			page 3


  64:C:/Users/dtjld/Desktop/AIoT_software/LiteOS_Lab_overseas/LiteOS_Lab/iot_link/oc/oc_lwm2m/atiny_lwm2m\agent_tiny_cmd_ioctl.c ****     (void)snprintf(manu, len, "Open Mobile Alliance");
  49              		.loc 1 64 0
  50 000a 3B68     		ldr	r3, [r7]
  51 000c 044A     		ldr	r2, .L3
  52 000e 1946     		mov	r1, r3
  53 0010 7868     		ldr	r0, [r7, #4]
  54 0012 FFF7FEFF 		bl	snprintf
  65:C:/Users/dtjld/Desktop/AIoT_software/LiteOS_Lab_overseas/LiteOS_Lab/iot_link/oc/oc_lwm2m/atiny_lwm2m\agent_tiny_cmd_ioctl.c ****     return ATINY_OK;
  55              		.loc 1 65 0
  56 0016 0023     		movs	r3, #0
  66:C:/Users/dtjld/Desktop/AIoT_software/LiteOS_Lab_overseas/LiteOS_Lab/iot_link/oc/oc_lwm2m/atiny_lwm2m\agent_tiny_cmd_ioctl.c **** }
  57              		.loc 1 66 0
  58 0018 1846     		mov	r0, r3
  59 001a 0837     		adds	r7, r7, #8
  60              	.LCFI3:
  61              		.cfi_def_cfa_offset 8
  62 001c BD46     		mov	sp, r7
  63              	.LCFI4:
  64              		.cfi_def_cfa_register 13
  65              		@ sp needed
  66 001e 80BD     		pop	{r7, pc}
  67              	.L4:
  68              		.align	2
  69              	.L3:
  70 0020 00000000 		.word	.LC0
  71              		.cfi_endproc
  72              	.LFE3:
  74              		.section	.rodata
  75 0015 000000   		.align	2
  76              	.LC1:
  77 0018 4C696768 		.ascii	"Lightweight M2M Client\000"
  77      74776569 
  77      67687420 
  77      4D324D20 
  77      436C6965 
  78              		.section	.text.atiny_get_model_number,"ax",%progbits
  79              		.align	1
  80              		.global	atiny_get_model_number
  81              		.syntax unified
  82              		.thumb
  83              		.thumb_func
  84              		.fpu fpv4-sp-d16
  86              	atiny_get_model_number:
  87              	.LFB4:
  67:C:/Users/dtjld/Desktop/AIoT_software/LiteOS_Lab_overseas/LiteOS_Lab/iot_link/oc/oc_lwm2m/atiny_lwm2m\agent_tiny_cmd_ioctl.c **** 
  68:C:/Users/dtjld/Desktop/AIoT_software/LiteOS_Lab_overseas/LiteOS_Lab/iot_link/oc/oc_lwm2m/atiny_lwm2m\agent_tiny_cmd_ioctl.c **** int atiny_get_model_number(char *mode, int len)
  69:C:/Users/dtjld/Desktop/AIoT_software/LiteOS_Lab_overseas/LiteOS_Lab/iot_link/oc/oc_lwm2m/atiny_lwm2m\agent_tiny_cmd_ioctl.c **** {
  88              		.loc 1 69 0
  89              		.cfi_startproc
  90              		@ args = 0, pretend = 0, frame = 8
  91              		@ frame_needed = 1, uses_anonymous_args = 0
  92 0000 80B5     		push	{r7, lr}
  93              	.LCFI5:
  94              		.cfi_def_cfa_offset 8
  95              		.cfi_offset 7, -8
  96              		.cfi_offset 14, -4
  97 0002 82B0     		sub	sp, sp, #8
ARM GAS  C:\Users\dtjld\AppData\Local\Temp\ccvmmsjH.s 			page 4


  98              	.LCFI6:
  99              		.cfi_def_cfa_offset 16
 100 0004 00AF     		add	r7, sp, #0
 101              	.LCFI7:
 102              		.cfi_def_cfa_register 7
 103 0006 7860     		str	r0, [r7, #4]
 104 0008 3960     		str	r1, [r7]
  70:C:/Users/dtjld/Desktop/AIoT_software/LiteOS_Lab_overseas/LiteOS_Lab/iot_link/oc/oc_lwm2m/atiny_lwm2m\agent_tiny_cmd_ioctl.c ****     (void)snprintf(mode, len, "Lightweight M2M Client");
 105              		.loc 1 70 0
 106 000a 3B68     		ldr	r3, [r7]
 107 000c 044A     		ldr	r2, .L7
 108 000e 1946     		mov	r1, r3
 109 0010 7868     		ldr	r0, [r7, #4]
 110 0012 FFF7FEFF 		bl	snprintf
  71:C:/Users/dtjld/Desktop/AIoT_software/LiteOS_Lab_overseas/LiteOS_Lab/iot_link/oc/oc_lwm2m/atiny_lwm2m\agent_tiny_cmd_ioctl.c ****     return ATINY_OK;
 111              		.loc 1 71 0
 112 0016 0023     		movs	r3, #0
  72:C:/Users/dtjld/Desktop/AIoT_software/LiteOS_Lab_overseas/LiteOS_Lab/iot_link/oc/oc_lwm2m/atiny_lwm2m\agent_tiny_cmd_ioctl.c **** }
 113              		.loc 1 72 0
 114 0018 1846     		mov	r0, r3
 115 001a 0837     		adds	r7, r7, #8
 116              	.LCFI8:
 117              		.cfi_def_cfa_offset 8
 118 001c BD46     		mov	sp, r7
 119              	.LCFI9:
 120              		.cfi_def_cfa_register 13
 121              		@ sp needed
 122 001e 80BD     		pop	{r7, pc}
 123              	.L8:
 124              		.align	2
 125              	.L7:
 126 0020 18000000 		.word	.LC1
 127              		.cfi_endproc
 128              	.LFE4:
 130              		.section	.rodata
 131 002f 00       		.align	2
 132              	.LC2:
 133 0030 33343530 		.ascii	"345000123\000"
 133      30303132 
 133      3300
 134              		.section	.text.atiny_get_serial_number,"ax",%progbits
 135              		.align	1
 136              		.global	atiny_get_serial_number
 137              		.syntax unified
 138              		.thumb
 139              		.thumb_func
 140              		.fpu fpv4-sp-d16
 142              	atiny_get_serial_number:
 143              	.LFB5:
  73:C:/Users/dtjld/Desktop/AIoT_software/LiteOS_Lab_overseas/LiteOS_Lab/iot_link/oc/oc_lwm2m/atiny_lwm2m\agent_tiny_cmd_ioctl.c **** 
  74:C:/Users/dtjld/Desktop/AIoT_software/LiteOS_Lab_overseas/LiteOS_Lab/iot_link/oc/oc_lwm2m/atiny_lwm2m\agent_tiny_cmd_ioctl.c **** int atiny_get_serial_number(char *num, int len)
  75:C:/Users/dtjld/Desktop/AIoT_software/LiteOS_Lab_overseas/LiteOS_Lab/iot_link/oc/oc_lwm2m/atiny_lwm2m\agent_tiny_cmd_ioctl.c **** {
 144              		.loc 1 75 0
 145              		.cfi_startproc
 146              		@ args = 0, pretend = 0, frame = 8
 147              		@ frame_needed = 1, uses_anonymous_args = 0
 148 0000 80B5     		push	{r7, lr}
ARM GAS  C:\Users\dtjld\AppData\Local\Temp\ccvmmsjH.s 			page 5


 149              	.LCFI10:
 150              		.cfi_def_cfa_offset 8
 151              		.cfi_offset 7, -8
 152              		.cfi_offset 14, -4
 153 0002 82B0     		sub	sp, sp, #8
 154              	.LCFI11:
 155              		.cfi_def_cfa_offset 16
 156 0004 00AF     		add	r7, sp, #0
 157              	.LCFI12:
 158              		.cfi_def_cfa_register 7
 159 0006 7860     		str	r0, [r7, #4]
 160 0008 3960     		str	r1, [r7]
  76:C:/Users/dtjld/Desktop/AIoT_software/LiteOS_Lab_overseas/LiteOS_Lab/iot_link/oc/oc_lwm2m/atiny_lwm2m\agent_tiny_cmd_ioctl.c ****     (void)snprintf(num, len, "345000123");
 161              		.loc 1 76 0
 162 000a 3B68     		ldr	r3, [r7]
 163 000c 044A     		ldr	r2, .L11
 164 000e 1946     		mov	r1, r3
 165 0010 7868     		ldr	r0, [r7, #4]
 166 0012 FFF7FEFF 		bl	snprintf
  77:C:/Users/dtjld/Desktop/AIoT_software/LiteOS_Lab_overseas/LiteOS_Lab/iot_link/oc/oc_lwm2m/atiny_lwm2m\agent_tiny_cmd_ioctl.c ****     return ATINY_OK;
 167              		.loc 1 77 0
 168 0016 0023     		movs	r3, #0
  78:C:/Users/dtjld/Desktop/AIoT_software/LiteOS_Lab_overseas/LiteOS_Lab/iot_link/oc/oc_lwm2m/atiny_lwm2m\agent_tiny_cmd_ioctl.c **** }
 169              		.loc 1 78 0
 170 0018 1846     		mov	r0, r3
 171 001a 0837     		adds	r7, r7, #8
 172              	.LCFI13:
 173              		.cfi_def_cfa_offset 8
 174 001c BD46     		mov	sp, r7
 175              	.LCFI14:
 176              		.cfi_def_cfa_register 13
 177              		@ sp needed
 178 001e 80BD     		pop	{r7, pc}
 179              	.L12:
 180              		.align	2
 181              	.L11:
 182 0020 30000000 		.word	.LC2
 183              		.cfi_endproc
 184              	.LFE5:
 186              		.section	.rodata
 187 003a 0000     		.align	2
 188              	.LC3:
 189 003c 6578616D 		.ascii	"example_ver001\000"
 189      706C655F 
 189      76657230 
 189      303100
 190              		.section	.text.atiny_get_firmware_ver,"ax",%progbits
 191              		.align	1
 192              		.global	atiny_get_firmware_ver
 193              		.syntax unified
 194              		.thumb
 195              		.thumb_func
 196              		.fpu fpv4-sp-d16
 198              	atiny_get_firmware_ver:
 199              	.LFB6:
  79:C:/Users/dtjld/Desktop/AIoT_software/LiteOS_Lab_overseas/LiteOS_Lab/iot_link/oc/oc_lwm2m/atiny_lwm2m\agent_tiny_cmd_ioctl.c **** 
  80:C:/Users/dtjld/Desktop/AIoT_software/LiteOS_Lab_overseas/LiteOS_Lab/iot_link/oc/oc_lwm2m/atiny_lwm2m\agent_tiny_cmd_ioctl.c **** int atiny_get_firmware_ver(char *version, int len)
ARM GAS  C:\Users\dtjld\AppData\Local\Temp\ccvmmsjH.s 			page 6


  81:C:/Users/dtjld/Desktop/AIoT_software/LiteOS_Lab_overseas/LiteOS_Lab/iot_link/oc/oc_lwm2m/atiny_lwm2m\agent_tiny_cmd_ioctl.c **** {
 200              		.loc 1 81 0
 201              		.cfi_startproc
 202              		@ args = 0, pretend = 0, frame = 8
 203              		@ frame_needed = 1, uses_anonymous_args = 0
 204 0000 80B5     		push	{r7, lr}
 205              	.LCFI15:
 206              		.cfi_def_cfa_offset 8
 207              		.cfi_offset 7, -8
 208              		.cfi_offset 14, -4
 209 0002 82B0     		sub	sp, sp, #8
 210              	.LCFI16:
 211              		.cfi_def_cfa_offset 16
 212 0004 00AF     		add	r7, sp, #0
 213              	.LCFI17:
 214              		.cfi_def_cfa_register 7
 215 0006 7860     		str	r0, [r7, #4]
 216 0008 3960     		str	r1, [r7]
  82:C:/Users/dtjld/Desktop/AIoT_software/LiteOS_Lab_overseas/LiteOS_Lab/iot_link/oc/oc_lwm2m/atiny_lwm2m\agent_tiny_cmd_ioctl.c ****     (void)snprintf(version, len, "example_ver001");
 217              		.loc 1 82 0
 218 000a 3B68     		ldr	r3, [r7]
 219 000c 044A     		ldr	r2, .L15
 220 000e 1946     		mov	r1, r3
 221 0010 7868     		ldr	r0, [r7, #4]
 222 0012 FFF7FEFF 		bl	snprintf
  83:C:/Users/dtjld/Desktop/AIoT_software/LiteOS_Lab_overseas/LiteOS_Lab/iot_link/oc/oc_lwm2m/atiny_lwm2m\agent_tiny_cmd_ioctl.c ****     return ATINY_OK;
 223              		.loc 1 83 0
 224 0016 0023     		movs	r3, #0
  84:C:/Users/dtjld/Desktop/AIoT_software/LiteOS_Lab_overseas/LiteOS_Lab/iot_link/oc/oc_lwm2m/atiny_lwm2m\agent_tiny_cmd_ioctl.c **** }
 225              		.loc 1 84 0
 226 0018 1846     		mov	r0, r3
 227 001a 0837     		adds	r7, r7, #8
 228              	.LCFI18:
 229              		.cfi_def_cfa_offset 8
 230 001c BD46     		mov	sp, r7
 231              	.LCFI19:
 232              		.cfi_def_cfa_register 13
 233              		@ sp needed
 234 001e 80BD     		pop	{r7, pc}
 235              	.L16:
 236              		.align	2
 237              	.L15:
 238 0020 3C000000 		.word	.LC3
 239              		.cfi_endproc
 240              	.LFE6:
 242              		.section	.rodata
 243 004b 00       		.align	2
 244              	.LC4:
 245 004c 64657669 		.ascii	"device is rebooting......\015\000"
 245      63652069 
 245      73207265 
 245      626F6F74 
 245      696E672E 
 246              		.section	.text.atiny_do_dev_reboot,"ax",%progbits
 247              		.align	1
 248              		.global	atiny_do_dev_reboot
 249              		.syntax unified
ARM GAS  C:\Users\dtjld\AppData\Local\Temp\ccvmmsjH.s 			page 7


 250              		.thumb
 251              		.thumb_func
 252              		.fpu fpv4-sp-d16
 254              	atiny_do_dev_reboot:
 255              	.LFB7:
  85:C:/Users/dtjld/Desktop/AIoT_software/LiteOS_Lab_overseas/LiteOS_Lab/iot_link/oc/oc_lwm2m/atiny_lwm2m\agent_tiny_cmd_ioctl.c **** 
  86:C:/Users/dtjld/Desktop/AIoT_software/LiteOS_Lab_overseas/LiteOS_Lab/iot_link/oc/oc_lwm2m/atiny_lwm2m\agent_tiny_cmd_ioctl.c **** int atiny_do_dev_reboot(void)
  87:C:/Users/dtjld/Desktop/AIoT_software/LiteOS_Lab_overseas/LiteOS_Lab/iot_link/oc/oc_lwm2m/atiny_lwm2m\agent_tiny_cmd_ioctl.c **** {
 256              		.loc 1 87 0
 257              		.cfi_startproc
 258              		@ args = 0, pretend = 0, frame = 0
 259              		@ frame_needed = 1, uses_anonymous_args = 0
 260 0000 80B5     		push	{r7, lr}
 261              	.LCFI20:
 262              		.cfi_def_cfa_offset 8
 263              		.cfi_offset 7, -8
 264              		.cfi_offset 14, -4
 265 0002 00AF     		add	r7, sp, #0
 266              	.LCFI21:
 267              		.cfi_def_cfa_register 7
  88:C:/Users/dtjld/Desktop/AIoT_software/LiteOS_Lab_overseas/LiteOS_Lab/iot_link/oc/oc_lwm2m/atiny_lwm2m\agent_tiny_cmd_ioctl.c ****     (void)printf("device is rebooting......\r\n");
 268              		.loc 1 88 0
 269 0004 0348     		ldr	r0, .L19
 270 0006 FFF7FEFF 		bl	puts
  89:C:/Users/dtjld/Desktop/AIoT_software/LiteOS_Lab_overseas/LiteOS_Lab/iot_link/oc/oc_lwm2m/atiny_lwm2m\agent_tiny_cmd_ioctl.c ****     //LOS_TaskDelay(1000);
  90:C:/Users/dtjld/Desktop/AIoT_software/LiteOS_Lab_overseas/LiteOS_Lab/iot_link/oc/oc_lwm2m/atiny_lwm2m\agent_tiny_cmd_ioctl.c ****     osal_reboot();///< here may be we never comeback
 271              		.loc 1 90 0
 272 000a FFF7FEFF 		bl	osal_reboot
  91:C:/Users/dtjld/Desktop/AIoT_software/LiteOS_Lab_overseas/LiteOS_Lab/iot_link/oc/oc_lwm2m/atiny_lwm2m\agent_tiny_cmd_ioctl.c ****     return ATINY_OK;
 273              		.loc 1 91 0
 274 000e 0023     		movs	r3, #0
  92:C:/Users/dtjld/Desktop/AIoT_software/LiteOS_Lab_overseas/LiteOS_Lab/iot_link/oc/oc_lwm2m/atiny_lwm2m\agent_tiny_cmd_ioctl.c **** }
 275              		.loc 1 92 0
 276 0010 1846     		mov	r0, r3
 277 0012 80BD     		pop	{r7, pc}
 278              	.L20:
 279              		.align	2
 280              	.L19:
 281 0014 4C000000 		.word	.LC4
 282              		.cfi_endproc
 283              	.LFE7:
 285              		.section	.rodata
 286 0067 00       		.align	2
 287              	.LC5:
 288 0068 0A092046 		.ascii	"\012\011 FACTORY RESET\015\012\000"
 288      4143544F 
 288      52592052 
 288      45534554 
 288      0D0A00
 289              		.section	.text.atiny_do_factory_reset,"ax",%progbits
 290              		.align	1
 291              		.global	atiny_do_factory_reset
 292              		.syntax unified
 293              		.thumb
 294              		.thumb_func
 295              		.fpu fpv4-sp-d16
 297              	atiny_do_factory_reset:
ARM GAS  C:\Users\dtjld\AppData\Local\Temp\ccvmmsjH.s 			page 8


 298              	.LFB8:
  93:C:/Users/dtjld/Desktop/AIoT_software/LiteOS_Lab_overseas/LiteOS_Lab/iot_link/oc/oc_lwm2m/atiny_lwm2m\agent_tiny_cmd_ioctl.c **** 
  94:C:/Users/dtjld/Desktop/AIoT_software/LiteOS_Lab_overseas/LiteOS_Lab/iot_link/oc/oc_lwm2m/atiny_lwm2m\agent_tiny_cmd_ioctl.c **** int atiny_do_factory_reset(void)
  95:C:/Users/dtjld/Desktop/AIoT_software/LiteOS_Lab_overseas/LiteOS_Lab/iot_link/oc/oc_lwm2m/atiny_lwm2m\agent_tiny_cmd_ioctl.c **** {
 299              		.loc 1 95 0
 300              		.cfi_startproc
 301              		@ args = 0, pretend = 0, frame = 0
 302              		@ frame_needed = 1, uses_anonymous_args = 0
 303 0000 80B5     		push	{r7, lr}
 304              	.LCFI22:
 305              		.cfi_def_cfa_offset 8
 306              		.cfi_offset 7, -8
 307              		.cfi_offset 14, -4
 308 0002 00AF     		add	r7, sp, #0
 309              	.LCFI23:
 310              		.cfi_def_cfa_register 7
  96:C:/Users/dtjld/Desktop/AIoT_software/LiteOS_Lab_overseas/LiteOS_Lab/iot_link/oc/oc_lwm2m/atiny_lwm2m\agent_tiny_cmd_ioctl.c ****     (void)printf("\n\t FACTORY RESET\r\n\n");
 311              		.loc 1 96 0
 312 0004 0248     		ldr	r0, .L23
 313 0006 FFF7FEFF 		bl	puts
  97:C:/Users/dtjld/Desktop/AIoT_software/LiteOS_Lab_overseas/LiteOS_Lab/iot_link/oc/oc_lwm2m/atiny_lwm2m\agent_tiny_cmd_ioctl.c ****     return ATINY_OK;
 314              		.loc 1 97 0
 315 000a 0023     		movs	r3, #0
  98:C:/Users/dtjld/Desktop/AIoT_software/LiteOS_Lab_overseas/LiteOS_Lab/iot_link/oc/oc_lwm2m/atiny_lwm2m\agent_tiny_cmd_ioctl.c **** }
 316              		.loc 1 98 0
 317 000c 1846     		mov	r0, r3
 318 000e 80BD     		pop	{r7, pc}
 319              	.L24:
 320              		.align	2
 321              	.L23:
 322 0010 68000000 		.word	.LC5
 323              		.cfi_endproc
 324              	.LFE8:
 326              		.section	.text.atiny_get_power_source,"ax",%progbits
 327              		.align	1
 328              		.global	atiny_get_power_source
 329              		.syntax unified
 330              		.thumb
 331              		.thumb_func
 332              		.fpu fpv4-sp-d16
 334              	atiny_get_power_source:
 335              	.LFB9:
  99:C:/Users/dtjld/Desktop/AIoT_software/LiteOS_Lab_overseas/LiteOS_Lab/iot_link/oc/oc_lwm2m/atiny_lwm2m\agent_tiny_cmd_ioctl.c **** 
 100:C:/Users/dtjld/Desktop/AIoT_software/LiteOS_Lab_overseas/LiteOS_Lab/iot_link/oc/oc_lwm2m/atiny_lwm2m\agent_tiny_cmd_ioctl.c **** int atiny_get_power_source(int *arg)
 101:C:/Users/dtjld/Desktop/AIoT_software/LiteOS_Lab_overseas/LiteOS_Lab/iot_link/oc/oc_lwm2m/atiny_lwm2m\agent_tiny_cmd_ioctl.c **** {
 336              		.loc 1 101 0
 337              		.cfi_startproc
 338              		@ args = 0, pretend = 0, frame = 8
 339              		@ frame_needed = 1, uses_anonymous_args = 0
 340              		@ link register save eliminated.
 341 0000 80B4     		push	{r7}
 342              	.LCFI24:
 343              		.cfi_def_cfa_offset 4
 344              		.cfi_offset 7, -4
 345 0002 83B0     		sub	sp, sp, #12
 346              	.LCFI25:
 347              		.cfi_def_cfa_offset 16
ARM GAS  C:\Users\dtjld\AppData\Local\Temp\ccvmmsjH.s 			page 9


 348 0004 00AF     		add	r7, sp, #0
 349              	.LCFI26:
 350              		.cfi_def_cfa_register 7
 351 0006 7860     		str	r0, [r7, #4]
 102:C:/Users/dtjld/Desktop/AIoT_software/LiteOS_Lab_overseas/LiteOS_Lab/iot_link/oc/oc_lwm2m/atiny_lwm2m\agent_tiny_cmd_ioctl.c ****     *arg = ATINY_POWER_SOURCE;
 352              		.loc 1 102 0
 353 0008 7B68     		ldr	r3, [r7, #4]
 354 000a 0122     		movs	r2, #1
 355 000c 1A60     		str	r2, [r3]
 103:C:/Users/dtjld/Desktop/AIoT_software/LiteOS_Lab_overseas/LiteOS_Lab/iot_link/oc/oc_lwm2m/atiny_lwm2m\agent_tiny_cmd_ioctl.c ****     return ATINY_OK;
 356              		.loc 1 103 0
 357 000e 0023     		movs	r3, #0
 104:C:/Users/dtjld/Desktop/AIoT_software/LiteOS_Lab_overseas/LiteOS_Lab/iot_link/oc/oc_lwm2m/atiny_lwm2m\agent_tiny_cmd_ioctl.c **** }
 358              		.loc 1 104 0
 359 0010 1846     		mov	r0, r3
 360 0012 0C37     		adds	r7, r7, #12
 361              	.LCFI27:
 362              		.cfi_def_cfa_offset 4
 363 0014 BD46     		mov	sp, r7
 364              	.LCFI28:
 365              		.cfi_def_cfa_register 13
 366              		@ sp needed
 367 0016 5DF8047B 		ldr	r7, [sp], #4
 368              	.LCFI29:
 369              		.cfi_restore 7
 370              		.cfi_def_cfa_offset 0
 371 001a 7047     		bx	lr
 372              		.cfi_endproc
 373              	.LFE9:
 375              		.section	.text.atiny_get_source_voltage,"ax",%progbits
 376              		.align	1
 377              		.global	atiny_get_source_voltage
 378              		.syntax unified
 379              		.thumb
 380              		.thumb_func
 381              		.fpu fpv4-sp-d16
 383              	atiny_get_source_voltage:
 384              	.LFB10:
 105:C:/Users/dtjld/Desktop/AIoT_software/LiteOS_Lab_overseas/LiteOS_Lab/iot_link/oc/oc_lwm2m/atiny_lwm2m\agent_tiny_cmd_ioctl.c **** 
 106:C:/Users/dtjld/Desktop/AIoT_software/LiteOS_Lab_overseas/LiteOS_Lab/iot_link/oc/oc_lwm2m/atiny_lwm2m\agent_tiny_cmd_ioctl.c **** int atiny_get_source_voltage(int *voltage)
 107:C:/Users/dtjld/Desktop/AIoT_software/LiteOS_Lab_overseas/LiteOS_Lab/iot_link/oc/oc_lwm2m/atiny_lwm2m\agent_tiny_cmd_ioctl.c **** {
 385              		.loc 1 107 0
 386              		.cfi_startproc
 387              		@ args = 0, pretend = 0, frame = 8
 388              		@ frame_needed = 1, uses_anonymous_args = 0
 389              		@ link register save eliminated.
 390 0000 80B4     		push	{r7}
 391              	.LCFI30:
 392              		.cfi_def_cfa_offset 4
 393              		.cfi_offset 7, -4
 394 0002 83B0     		sub	sp, sp, #12
 395              	.LCFI31:
 396              		.cfi_def_cfa_offset 16
 397 0004 00AF     		add	r7, sp, #0
 398              	.LCFI32:
 399              		.cfi_def_cfa_register 7
 400 0006 7860     		str	r0, [r7, #4]
ARM GAS  C:\Users\dtjld\AppData\Local\Temp\ccvmmsjH.s 			page 10


 108:C:/Users/dtjld/Desktop/AIoT_software/LiteOS_Lab_overseas/LiteOS_Lab/iot_link/oc/oc_lwm2m/atiny_lwm2m\agent_tiny_cmd_ioctl.c ****     *voltage = ATINY_POWER_VOLTAGE;
 401              		.loc 1 108 0
 402 0008 7B68     		ldr	r3, [r7, #4]
 403 000a 40F6D862 		movw	r2, #3800
 404 000e 1A60     		str	r2, [r3]
 109:C:/Users/dtjld/Desktop/AIoT_software/LiteOS_Lab_overseas/LiteOS_Lab/iot_link/oc/oc_lwm2m/atiny_lwm2m\agent_tiny_cmd_ioctl.c ****     return ATINY_OK;
 405              		.loc 1 109 0
 406 0010 0023     		movs	r3, #0
 110:C:/Users/dtjld/Desktop/AIoT_software/LiteOS_Lab_overseas/LiteOS_Lab/iot_link/oc/oc_lwm2m/atiny_lwm2m\agent_tiny_cmd_ioctl.c **** }
 407              		.loc 1 110 0
 408 0012 1846     		mov	r0, r3
 409 0014 0C37     		adds	r7, r7, #12
 410              	.LCFI33:
 411              		.cfi_def_cfa_offset 4
 412 0016 BD46     		mov	sp, r7
 413              	.LCFI34:
 414              		.cfi_def_cfa_register 13
 415              		@ sp needed
 416 0018 5DF8047B 		ldr	r7, [sp], #4
 417              	.LCFI35:
 418              		.cfi_restore 7
 419              		.cfi_def_cfa_offset 0
 420 001c 7047     		bx	lr
 421              		.cfi_endproc
 422              	.LFE10:
 424              		.section	.text.atiny_get_power_current,"ax",%progbits
 425              		.align	1
 426              		.global	atiny_get_power_current
 427              		.syntax unified
 428              		.thumb
 429              		.thumb_func
 430              		.fpu fpv4-sp-d16
 432              	atiny_get_power_current:
 433              	.LFB11:
 111:C:/Users/dtjld/Desktop/AIoT_software/LiteOS_Lab_overseas/LiteOS_Lab/iot_link/oc/oc_lwm2m/atiny_lwm2m\agent_tiny_cmd_ioctl.c **** 
 112:C:/Users/dtjld/Desktop/AIoT_software/LiteOS_Lab_overseas/LiteOS_Lab/iot_link/oc/oc_lwm2m/atiny_lwm2m\agent_tiny_cmd_ioctl.c **** int atiny_get_power_current(int *arg)
 113:C:/Users/dtjld/Desktop/AIoT_software/LiteOS_Lab_overseas/LiteOS_Lab/iot_link/oc/oc_lwm2m/atiny_lwm2m\agent_tiny_cmd_ioctl.c **** {
 434              		.loc 1 113 0
 435              		.cfi_startproc
 436              		@ args = 0, pretend = 0, frame = 8
 437              		@ frame_needed = 1, uses_anonymous_args = 0
 438              		@ link register save eliminated.
 439 0000 80B4     		push	{r7}
 440              	.LCFI36:
 441              		.cfi_def_cfa_offset 4
 442              		.cfi_offset 7, -4
 443 0002 83B0     		sub	sp, sp, #12
 444              	.LCFI37:
 445              		.cfi_def_cfa_offset 16
 446 0004 00AF     		add	r7, sp, #0
 447              	.LCFI38:
 448              		.cfi_def_cfa_register 7
 449 0006 7860     		str	r0, [r7, #4]
 114:C:/Users/dtjld/Desktop/AIoT_software/LiteOS_Lab_overseas/LiteOS_Lab/iot_link/oc/oc_lwm2m/atiny_lwm2m\agent_tiny_cmd_ioctl.c ****     *arg = ATINY_POWER_CURRENT;
 450              		.loc 1 114 0
 451 0008 7B68     		ldr	r3, [r7, #4]
 452 000a 7D22     		movs	r2, #125
ARM GAS  C:\Users\dtjld\AppData\Local\Temp\ccvmmsjH.s 			page 11


 453 000c 1A60     		str	r2, [r3]
 115:C:/Users/dtjld/Desktop/AIoT_software/LiteOS_Lab_overseas/LiteOS_Lab/iot_link/oc/oc_lwm2m/atiny_lwm2m\agent_tiny_cmd_ioctl.c ****     return ATINY_OK;
 454              		.loc 1 115 0
 455 000e 0023     		movs	r3, #0
 116:C:/Users/dtjld/Desktop/AIoT_software/LiteOS_Lab_overseas/LiteOS_Lab/iot_link/oc/oc_lwm2m/atiny_lwm2m\agent_tiny_cmd_ioctl.c **** }
 456              		.loc 1 116 0
 457 0010 1846     		mov	r0, r3
 458 0012 0C37     		adds	r7, r7, #12
 459              	.LCFI39:
 460              		.cfi_def_cfa_offset 4
 461 0014 BD46     		mov	sp, r7
 462              	.LCFI40:
 463              		.cfi_def_cfa_register 13
 464              		@ sp needed
 465 0016 5DF8047B 		ldr	r7, [sp], #4
 466              	.LCFI41:
 467              		.cfi_restore 7
 468              		.cfi_def_cfa_offset 0
 469 001a 7047     		bx	lr
 470              		.cfi_endproc
 471              	.LFE11:
 473              		.section	.text.atiny_get_baterry_level,"ax",%progbits
 474              		.align	1
 475              		.global	atiny_get_baterry_level
 476              		.syntax unified
 477              		.thumb
 478              		.thumb_func
 479              		.fpu fpv4-sp-d16
 481              	atiny_get_baterry_level:
 482              	.LFB12:
 117:C:/Users/dtjld/Desktop/AIoT_software/LiteOS_Lab_overseas/LiteOS_Lab/iot_link/oc/oc_lwm2m/atiny_lwm2m\agent_tiny_cmd_ioctl.c **** 
 118:C:/Users/dtjld/Desktop/AIoT_software/LiteOS_Lab_overseas/LiteOS_Lab/iot_link/oc/oc_lwm2m/atiny_lwm2m\agent_tiny_cmd_ioctl.c **** int atiny_get_baterry_level(int *voltage)
 119:C:/Users/dtjld/Desktop/AIoT_software/LiteOS_Lab_overseas/LiteOS_Lab/iot_link/oc/oc_lwm2m/atiny_lwm2m\agent_tiny_cmd_ioctl.c **** {
 483              		.loc 1 119 0
 484              		.cfi_startproc
 485              		@ args = 0, pretend = 0, frame = 8
 486              		@ frame_needed = 1, uses_anonymous_args = 0
 487              		@ link register save eliminated.
 488 0000 80B4     		push	{r7}
 489              	.LCFI42:
 490              		.cfi_def_cfa_offset 4
 491              		.cfi_offset 7, -4
 492 0002 83B0     		sub	sp, sp, #12
 493              	.LCFI43:
 494              		.cfi_def_cfa_offset 16
 495 0004 00AF     		add	r7, sp, #0
 496              	.LCFI44:
 497              		.cfi_def_cfa_register 7
 498 0006 7860     		str	r0, [r7, #4]
 120:C:/Users/dtjld/Desktop/AIoT_software/LiteOS_Lab_overseas/LiteOS_Lab/iot_link/oc/oc_lwm2m/atiny_lwm2m\agent_tiny_cmd_ioctl.c ****     *voltage = ATINY_BATTERY_LEVEL;
 499              		.loc 1 120 0
 500 0008 7B68     		ldr	r3, [r7, #4]
 501 000a 5A22     		movs	r2, #90
 502 000c 1A60     		str	r2, [r3]
 121:C:/Users/dtjld/Desktop/AIoT_software/LiteOS_Lab_overseas/LiteOS_Lab/iot_link/oc/oc_lwm2m/atiny_lwm2m\agent_tiny_cmd_ioctl.c ****     return ATINY_OK;
 503              		.loc 1 121 0
 504 000e 0023     		movs	r3, #0
ARM GAS  C:\Users\dtjld\AppData\Local\Temp\ccvmmsjH.s 			page 12


 122:C:/Users/dtjld/Desktop/AIoT_software/LiteOS_Lab_overseas/LiteOS_Lab/iot_link/oc/oc_lwm2m/atiny_lwm2m\agent_tiny_cmd_ioctl.c **** }
 505              		.loc 1 122 0
 506 0010 1846     		mov	r0, r3
 507 0012 0C37     		adds	r7, r7, #12
 508              	.LCFI45:
 509              		.cfi_def_cfa_offset 4
 510 0014 BD46     		mov	sp, r7
 511              	.LCFI46:
 512              		.cfi_def_cfa_register 13
 513              		@ sp needed
 514 0016 5DF8047B 		ldr	r7, [sp], #4
 515              	.LCFI47:
 516              		.cfi_restore 7
 517              		.cfi_def_cfa_offset 0
 518 001a 7047     		bx	lr
 519              		.cfi_endproc
 520              	.LFE12:
 522              		.section	.text.atiny_get_memory_free,"ax",%progbits
 523              		.align	1
 524              		.global	atiny_get_memory_free
 525              		.syntax unified
 526              		.thumb
 527              		.thumb_func
 528              		.fpu fpv4-sp-d16
 530              	atiny_get_memory_free:
 531              	.LFB13:
 123:C:/Users/dtjld/Desktop/AIoT_software/LiteOS_Lab_overseas/LiteOS_Lab/iot_link/oc/oc_lwm2m/atiny_lwm2m\agent_tiny_cmd_ioctl.c **** 
 124:C:/Users/dtjld/Desktop/AIoT_software/LiteOS_Lab_overseas/LiteOS_Lab/iot_link/oc/oc_lwm2m/atiny_lwm2m\agent_tiny_cmd_ioctl.c **** int atiny_get_memory_free(int *voltage)
 125:C:/Users/dtjld/Desktop/AIoT_software/LiteOS_Lab_overseas/LiteOS_Lab/iot_link/oc/oc_lwm2m/atiny_lwm2m\agent_tiny_cmd_ioctl.c **** {
 532              		.loc 1 125 0
 533              		.cfi_startproc
 534              		@ args = 0, pretend = 0, frame = 16
 535              		@ frame_needed = 1, uses_anonymous_args = 0
 536 0000 80B5     		push	{r7, lr}
 537              	.LCFI48:
 538              		.cfi_def_cfa_offset 8
 539              		.cfi_offset 7, -8
 540              		.cfi_offset 14, -4
 541 0002 84B0     		sub	sp, sp, #16
 542              	.LCFI49:
 543              		.cfi_def_cfa_offset 24
 544 0004 00AF     		add	r7, sp, #0
 545              	.LCFI50:
 546              		.cfi_def_cfa_register 7
 547 0006 7860     		str	r0, [r7, #4]
 126:C:/Users/dtjld/Desktop/AIoT_software/LiteOS_Lab_overseas/LiteOS_Lab/iot_link/oc/oc_lwm2m/atiny_lwm2m\agent_tiny_cmd_ioctl.c ****     int tmp;
 127:C:/Users/dtjld/Desktop/AIoT_software/LiteOS_Lab_overseas/LiteOS_Lab/iot_link/oc/oc_lwm2m/atiny_lwm2m\agent_tiny_cmd_ioctl.c **** //    (void)atiny_random(&tmp, sizeof(tmp));
 128:C:/Users/dtjld/Desktop/AIoT_software/LiteOS_Lab_overseas/LiteOS_Lab/iot_link/oc/oc_lwm2m/atiny_lwm2m\agent_tiny_cmd_ioctl.c ****     link_random(&tmp, sizeof(tmp));
 548              		.loc 1 128 0
 549 0008 07F10C03 		add	r3, r7, #12
 550 000c 0421     		movs	r1, #4
 551 000e 1846     		mov	r0, r3
 552 0010 FFF7FEFF 		bl	link_random
 129:C:/Users/dtjld/Desktop/AIoT_software/LiteOS_Lab_overseas/LiteOS_Lab/iot_link/oc/oc_lwm2m/atiny_lwm2m\agent_tiny_cmd_ioctl.c **** 
 130:C:/Users/dtjld/Desktop/AIoT_software/LiteOS_Lab_overseas/LiteOS_Lab/iot_link/oc/oc_lwm2m/atiny_lwm2m\agent_tiny_cmd_ioctl.c ****     tmp %= 30;
 553              		.loc 1 130 0
 554 0014 FA68     		ldr	r2, [r7, #12]
ARM GAS  C:\Users\dtjld\AppData\Local\Temp\ccvmmsjH.s 			page 13


 555 0016 0B4B     		ldr	r3, .L35
 556 0018 83FB0213 		smull	r1, r3, r3, r2
 557 001c 1344     		add	r3, r3, r2
 558 001e 1911     		asrs	r1, r3, #4
 559 0020 D317     		asrs	r3, r2, #31
 560 0022 C91A     		subs	r1, r1, r3
 561 0024 0B46     		mov	r3, r1
 562 0026 1B01     		lsls	r3, r3, #4
 563 0028 5B1A     		subs	r3, r3, r1
 564 002a 5B00     		lsls	r3, r3, #1
 565 002c D11A     		subs	r1, r2, r3
 566 002e F960     		str	r1, [r7, #12]
 131:C:/Users/dtjld/Desktop/AIoT_software/LiteOS_Lab_overseas/LiteOS_Lab/iot_link/oc/oc_lwm2m/atiny_lwm2m\agent_tiny_cmd_ioctl.c ****     *voltage = ATINY_MEMORY_FREE + tmp;
 567              		.loc 1 131 0
 568 0030 FB68     		ldr	r3, [r7, #12]
 569 0032 03F13202 		add	r2, r3, #50
 570 0036 7B68     		ldr	r3, [r7, #4]
 571 0038 1A60     		str	r2, [r3]
 132:C:/Users/dtjld/Desktop/AIoT_software/LiteOS_Lab_overseas/LiteOS_Lab/iot_link/oc/oc_lwm2m/atiny_lwm2m\agent_tiny_cmd_ioctl.c ****     return ATINY_OK;
 572              		.loc 1 132 0
 573 003a 0023     		movs	r3, #0
 133:C:/Users/dtjld/Desktop/AIoT_software/LiteOS_Lab_overseas/LiteOS_Lab/iot_link/oc/oc_lwm2m/atiny_lwm2m\agent_tiny_cmd_ioctl.c **** }
 574              		.loc 1 133 0
 575 003c 1846     		mov	r0, r3
 576 003e 1037     		adds	r7, r7, #16
 577              	.LCFI51:
 578              		.cfi_def_cfa_offset 8
 579 0040 BD46     		mov	sp, r7
 580              	.LCFI52:
 581              		.cfi_def_cfa_register 13
 582              		@ sp needed
 583 0042 80BD     		pop	{r7, pc}
 584              	.L36:
 585              		.align	2
 586              	.L35:
 587 0044 89888888 		.word	-2004318071
 588              		.cfi_endproc
 589              	.LFE13:
 591              		.section	.bss.err_code,"aw",%nobits
 592              		.align	2
 595              	err_code:
 596 0000 00000000 		.space	4
 597              		.section	.text.atiny_get_dev_err,"ax",%progbits
 598              		.align	1
 599              		.global	atiny_get_dev_err
 600              		.syntax unified
 601              		.thumb
 602              		.thumb_func
 603              		.fpu fpv4-sp-d16
 605              	atiny_get_dev_err:
 606              	.LFB14:
 134:C:/Users/dtjld/Desktop/AIoT_software/LiteOS_Lab_overseas/LiteOS_Lab/iot_link/oc/oc_lwm2m/atiny_lwm2m\agent_tiny_cmd_ioctl.c **** 
 135:C:/Users/dtjld/Desktop/AIoT_software/LiteOS_Lab_overseas/LiteOS_Lab/iot_link/oc/oc_lwm2m/atiny_lwm2m\agent_tiny_cmd_ioctl.c **** static int err_code = ATINY_OK;
 136:C:/Users/dtjld/Desktop/AIoT_software/LiteOS_Lab_overseas/LiteOS_Lab/iot_link/oc/oc_lwm2m/atiny_lwm2m\agent_tiny_cmd_ioctl.c **** 
 137:C:/Users/dtjld/Desktop/AIoT_software/LiteOS_Lab_overseas/LiteOS_Lab/iot_link/oc/oc_lwm2m/atiny_lwm2m\agent_tiny_cmd_ioctl.c **** int atiny_get_dev_err(int *arg)
 138:C:/Users/dtjld/Desktop/AIoT_software/LiteOS_Lab_overseas/LiteOS_Lab/iot_link/oc/oc_lwm2m/atiny_lwm2m\agent_tiny_cmd_ioctl.c **** {
 607              		.loc 1 138 0
ARM GAS  C:\Users\dtjld\AppData\Local\Temp\ccvmmsjH.s 			page 14


 608              		.cfi_startproc
 609              		@ args = 0, pretend = 0, frame = 8
 610              		@ frame_needed = 1, uses_anonymous_args = 0
 611              		@ link register save eliminated.
 612 0000 80B4     		push	{r7}
 613              	.LCFI53:
 614              		.cfi_def_cfa_offset 4
 615              		.cfi_offset 7, -4
 616 0002 83B0     		sub	sp, sp, #12
 617              	.LCFI54:
 618              		.cfi_def_cfa_offset 16
 619 0004 00AF     		add	r7, sp, #0
 620              	.LCFI55:
 621              		.cfi_def_cfa_register 7
 622 0006 7860     		str	r0, [r7, #4]
 139:C:/Users/dtjld/Desktop/AIoT_software/LiteOS_Lab_overseas/LiteOS_Lab/iot_link/oc/oc_lwm2m/atiny_lwm2m\agent_tiny_cmd_ioctl.c ****     *arg = err_code;
 623              		.loc 1 139 0
 624 0008 054B     		ldr	r3, .L39
 625 000a 1A68     		ldr	r2, [r3]
 626 000c 7B68     		ldr	r3, [r7, #4]
 627 000e 1A60     		str	r2, [r3]
 140:C:/Users/dtjld/Desktop/AIoT_software/LiteOS_Lab_overseas/LiteOS_Lab/iot_link/oc/oc_lwm2m/atiny_lwm2m\agent_tiny_cmd_ioctl.c ****     return ATINY_OK;
 628              		.loc 1 140 0
 629 0010 0023     		movs	r3, #0
 141:C:/Users/dtjld/Desktop/AIoT_software/LiteOS_Lab_overseas/LiteOS_Lab/iot_link/oc/oc_lwm2m/atiny_lwm2m\agent_tiny_cmd_ioctl.c **** }
 630              		.loc 1 141 0
 631 0012 1846     		mov	r0, r3
 632 0014 0C37     		adds	r7, r7, #12
 633              	.LCFI56:
 634              		.cfi_def_cfa_offset 4
 635 0016 BD46     		mov	sp, r7
 636              	.LCFI57:
 637              		.cfi_def_cfa_register 13
 638              		@ sp needed
 639 0018 5DF8047B 		ldr	r7, [sp], #4
 640              	.LCFI58:
 641              		.cfi_restore 7
 642              		.cfi_def_cfa_offset 0
 643 001c 7047     		bx	lr
 644              	.L40:
 645 001e 00BF     		.align	2
 646              	.L39:
 647 0020 00000000 		.word	err_code
 648              		.cfi_endproc
 649              	.LFE14:
 651              		.section	.text.atiny_do_reset_dev_err,"ax",%progbits
 652              		.align	1
 653              		.global	atiny_do_reset_dev_err
 654              		.syntax unified
 655              		.thumb
 656              		.thumb_func
 657              		.fpu fpv4-sp-d16
 659              	atiny_do_reset_dev_err:
 660              	.LFB15:
 142:C:/Users/dtjld/Desktop/AIoT_software/LiteOS_Lab_overseas/LiteOS_Lab/iot_link/oc/oc_lwm2m/atiny_lwm2m\agent_tiny_cmd_ioctl.c **** 
 143:C:/Users/dtjld/Desktop/AIoT_software/LiteOS_Lab_overseas/LiteOS_Lab/iot_link/oc/oc_lwm2m/atiny_lwm2m\agent_tiny_cmd_ioctl.c **** int atiny_do_reset_dev_err(void)
 144:C:/Users/dtjld/Desktop/AIoT_software/LiteOS_Lab_overseas/LiteOS_Lab/iot_link/oc/oc_lwm2m/atiny_lwm2m\agent_tiny_cmd_ioctl.c **** {
ARM GAS  C:\Users\dtjld\AppData\Local\Temp\ccvmmsjH.s 			page 15


 661              		.loc 1 144 0
 662              		.cfi_startproc
 663              		@ args = 0, pretend = 0, frame = 0
 664              		@ frame_needed = 1, uses_anonymous_args = 0
 665              		@ link register save eliminated.
 666 0000 80B4     		push	{r7}
 667              	.LCFI59:
 668              		.cfi_def_cfa_offset 4
 669              		.cfi_offset 7, -4
 670 0002 00AF     		add	r7, sp, #0
 671              	.LCFI60:
 672              		.cfi_def_cfa_register 7
 145:C:/Users/dtjld/Desktop/AIoT_software/LiteOS_Lab_overseas/LiteOS_Lab/iot_link/oc/oc_lwm2m/atiny_lwm2m\agent_tiny_cmd_ioctl.c ****     err_code = ATINY_OK;
 673              		.loc 1 145 0
 674 0004 044B     		ldr	r3, .L43
 675 0006 0022     		movs	r2, #0
 676 0008 1A60     		str	r2, [r3]
 146:C:/Users/dtjld/Desktop/AIoT_software/LiteOS_Lab_overseas/LiteOS_Lab/iot_link/oc/oc_lwm2m/atiny_lwm2m\agent_tiny_cmd_ioctl.c ****     return ATINY_OK;
 677              		.loc 1 146 0
 678 000a 0023     		movs	r3, #0
 147:C:/Users/dtjld/Desktop/AIoT_software/LiteOS_Lab_overseas/LiteOS_Lab/iot_link/oc/oc_lwm2m/atiny_lwm2m\agent_tiny_cmd_ioctl.c **** }
 679              		.loc 1 147 0
 680 000c 1846     		mov	r0, r3
 681 000e BD46     		mov	sp, r7
 682              	.LCFI61:
 683              		.cfi_def_cfa_register 13
 684              		@ sp needed
 685 0010 5DF8047B 		ldr	r7, [sp], #4
 686              	.LCFI62:
 687              		.cfi_restore 7
 688              		.cfi_def_cfa_offset 0
 689 0014 7047     		bx	lr
 690              	.L44:
 691 0016 00BF     		.align	2
 692              	.L43:
 693 0018 00000000 		.word	err_code
 694              		.cfi_endproc
 695              	.LFE15:
 697              		.section	.data.g_current_time,"aw",%progbits
 698              		.align	3
 701              	g_current_time:
 702 0000 8F428251 		.word	1367491215
 703 0004 00000000 		.word	0
 704              		.global	__aeabi_ldivmod
 705              		.section	.text.atiny_get_current_time,"ax",%progbits
 706              		.align	1
 707              		.global	atiny_get_current_time
 708              		.syntax unified
 709              		.thumb
 710              		.thumb_func
 711              		.fpu fpv4-sp-d16
 713              	atiny_get_current_time:
 714              	.LFB16:
 148:C:/Users/dtjld/Desktop/AIoT_software/LiteOS_Lab_overseas/LiteOS_Lab/iot_link/oc/oc_lwm2m/atiny_lwm2m\agent_tiny_cmd_ioctl.c **** 
 149:C:/Users/dtjld/Desktop/AIoT_software/LiteOS_Lab_overseas/LiteOS_Lab/iot_link/oc/oc_lwm2m/atiny_lwm2m\agent_tiny_cmd_ioctl.c **** static int64_t g_current_time = ATINY_TIME_CODE;
 150:C:/Users/dtjld/Desktop/AIoT_software/LiteOS_Lab_overseas/LiteOS_Lab/iot_link/oc/oc_lwm2m/atiny_lwm2m\agent_tiny_cmd_ioctl.c **** 
 151:C:/Users/dtjld/Desktop/AIoT_software/LiteOS_Lab_overseas/LiteOS_Lab/iot_link/oc/oc_lwm2m/atiny_lwm2m\agent_tiny_cmd_ioctl.c **** int atiny_get_current_time(int64_t *arg)
ARM GAS  C:\Users\dtjld\AppData\Local\Temp\ccvmmsjH.s 			page 16


 152:C:/Users/dtjld/Desktop/AIoT_software/LiteOS_Lab_overseas/LiteOS_Lab/iot_link/oc/oc_lwm2m/atiny_lwm2m\agent_tiny_cmd_ioctl.c **** {
 715              		.loc 1 152 0
 716              		.cfi_startproc
 717              		@ args = 0, pretend = 0, frame = 8
 718              		@ frame_needed = 1, uses_anonymous_args = 0
 719 0000 2DE99048 		push	{r4, r7, fp, lr}
 720              	.LCFI63:
 721              		.cfi_def_cfa_offset 16
 722              		.cfi_offset 4, -16
 723              		.cfi_offset 7, -12
 724              		.cfi_offset 11, -8
 725              		.cfi_offset 14, -4
 726 0004 82B0     		sub	sp, sp, #8
 727              	.LCFI64:
 728              		.cfi_def_cfa_offset 24
 729 0006 00AF     		add	r7, sp, #0
 730              	.LCFI65:
 731              		.cfi_def_cfa_register 7
 732 0008 7860     		str	r0, [r7, #4]
 153:C:/Users/dtjld/Desktop/AIoT_software/LiteOS_Lab_overseas/LiteOS_Lab/iot_link/oc/oc_lwm2m/atiny_lwm2m\agent_tiny_cmd_ioctl.c ****     *arg = g_current_time + (int64_t)osal_sys_time() / 1000;
 733              		.loc 1 153 0
 734 000a FFF7FEFF 		bl	osal_sys_time
 735 000e 0346     		mov	r3, r0
 736 0010 0C46     		mov	r4, r1
 737 0012 1846     		mov	r0, r3
 738 0014 2146     		mov	r1, r4
 739 0016 4FF47A72 		mov	r2, #1000
 740 001a 4FF00003 		mov	r3, #0
 741 001e FFF7FEFF 		bl	__aeabi_ldivmod
 742              	.LVL0:
 743 0022 0346     		mov	r3, r0
 744 0024 0C46     		mov	r4, r1
 745 0026 1946     		mov	r1, r3
 746 0028 2246     		mov	r2, r4
 747 002a 084B     		ldr	r3, .L47
 748 002c D3E900BC 		ldrd	fp, [r3]
 749 0030 1BEB0103 		adds	r3, fp, r1
 750 0034 4CEB0204 		adc	r4, ip, r2
 751 0038 7A68     		ldr	r2, [r7, #4]
 752 003a C2E90034 		strd	r3, [r2]
 154:C:/Users/dtjld/Desktop/AIoT_software/LiteOS_Lab_overseas/LiteOS_Lab/iot_link/oc/oc_lwm2m/atiny_lwm2m\agent_tiny_cmd_ioctl.c ****     return ATINY_OK;
 753              		.loc 1 154 0
 754 003e 0023     		movs	r3, #0
 155:C:/Users/dtjld/Desktop/AIoT_software/LiteOS_Lab_overseas/LiteOS_Lab/iot_link/oc/oc_lwm2m/atiny_lwm2m\agent_tiny_cmd_ioctl.c **** }
 755              		.loc 1 155 0
 756 0040 1846     		mov	r0, r3
 757 0042 0837     		adds	r7, r7, #8
 758              	.LCFI66:
 759              		.cfi_def_cfa_offset 16
 760 0044 BD46     		mov	sp, r7
 761              	.LCFI67:
 762              		.cfi_def_cfa_register 13
 763              		@ sp needed
 764 0046 BDE89088 		pop	{r4, r7, fp, pc}
 765              	.L48:
 766 004a 00BF     		.align	2
 767              	.L47:
ARM GAS  C:\Users\dtjld\AppData\Local\Temp\ccvmmsjH.s 			page 17


 768 004c 00000000 		.word	g_current_time
 769              		.cfi_endproc
 770              	.LFE16:
 772              		.section	.text.atiny_set_current_time,"ax",%progbits
 773              		.align	1
 774              		.global	atiny_set_current_time
 775              		.syntax unified
 776              		.thumb
 777              		.thumb_func
 778              		.fpu fpv4-sp-d16
 780              	atiny_set_current_time:
 781              	.LFB17:
 156:C:/Users/dtjld/Desktop/AIoT_software/LiteOS_Lab_overseas/LiteOS_Lab/iot_link/oc/oc_lwm2m/atiny_lwm2m\agent_tiny_cmd_ioctl.c **** 
 157:C:/Users/dtjld/Desktop/AIoT_software/LiteOS_Lab_overseas/LiteOS_Lab/iot_link/oc/oc_lwm2m/atiny_lwm2m\agent_tiny_cmd_ioctl.c **** int atiny_set_current_time(const int64_t *arg)
 158:C:/Users/dtjld/Desktop/AIoT_software/LiteOS_Lab_overseas/LiteOS_Lab/iot_link/oc/oc_lwm2m/atiny_lwm2m\agent_tiny_cmd_ioctl.c **** {
 782              		.loc 1 158 0
 783              		.cfi_startproc
 784              		@ args = 0, pretend = 0, frame = 8
 785              		@ frame_needed = 1, uses_anonymous_args = 0
 786 0000 B0B5     		push	{r4, r5, r7, lr}
 787              	.LCFI68:
 788              		.cfi_def_cfa_offset 16
 789              		.cfi_offset 4, -16
 790              		.cfi_offset 5, -12
 791              		.cfi_offset 7, -8
 792              		.cfi_offset 14, -4
 793 0002 82B0     		sub	sp, sp, #8
 794              	.LCFI69:
 795              		.cfi_def_cfa_offset 24
 796 0004 00AF     		add	r7, sp, #0
 797              	.LCFI70:
 798              		.cfi_def_cfa_register 7
 799 0006 7860     		str	r0, [r7, #4]
 159:C:/Users/dtjld/Desktop/AIoT_software/LiteOS_Lab_overseas/LiteOS_Lab/iot_link/oc/oc_lwm2m/atiny_lwm2m\agent_tiny_cmd_ioctl.c ****     g_current_time = *arg - (int64_t)osal_sys_time() / 1000;
 800              		.loc 1 159 0
 801 0008 7B68     		ldr	r3, [r7, #4]
 802 000a D3E90045 		ldrd	r4, [r3]
 803 000e FFF7FEFF 		bl	osal_sys_time
 804 0012 0246     		mov	r2, r0
 805 0014 0B46     		mov	r3, r1
 806 0016 1046     		mov	r0, r2
 807 0018 1946     		mov	r1, r3
 808 001a 0A4A     		ldr	r2, .L51
 809 001c 4FF0FF33 		mov	r3, #-1
 810 0020 FFF7FEFF 		bl	__aeabi_ldivmod
 811              	.LVL1:
 812 0024 0246     		mov	r2, r0
 813 0026 0B46     		mov	r3, r1
 814 0028 A018     		adds	r0, r4, r2
 815 002a 45EB0301 		adc	r1, r5, r3
 816 002e 0346     		mov	r3, r0
 817 0030 0C46     		mov	r4, r1
 818 0032 054A     		ldr	r2, .L51+4
 819 0034 C2E90034 		strd	r3, [r2]
 160:C:/Users/dtjld/Desktop/AIoT_software/LiteOS_Lab_overseas/LiteOS_Lab/iot_link/oc/oc_lwm2m/atiny_lwm2m\agent_tiny_cmd_ioctl.c ****     return ATINY_OK;
 820              		.loc 1 160 0
 821 0038 0023     		movs	r3, #0
ARM GAS  C:\Users\dtjld\AppData\Local\Temp\ccvmmsjH.s 			page 18


 161:C:/Users/dtjld/Desktop/AIoT_software/LiteOS_Lab_overseas/LiteOS_Lab/iot_link/oc/oc_lwm2m/atiny_lwm2m\agent_tiny_cmd_ioctl.c **** }
 822              		.loc 1 161 0
 823 003a 1846     		mov	r0, r3
 824 003c 0837     		adds	r7, r7, #8
 825              	.LCFI71:
 826              		.cfi_def_cfa_offset 16
 827 003e BD46     		mov	sp, r7
 828              	.LCFI72:
 829              		.cfi_def_cfa_register 13
 830              		@ sp needed
 831 0040 B0BD     		pop	{r4, r5, r7, pc}
 832              	.L52:
 833 0042 00BF     		.align	2
 834              	.L51:
 835 0044 18FCFFFF 		.word	-1000
 836 0048 00000000 		.word	g_current_time
 837              		.cfi_endproc
 838              	.LFE17:
 840              		.section	.data.g_UTC_offset,"aw",%progbits
 841              		.align	2
 844              	g_UTC_offset:
 845 0000 2B30313A 		.ascii	"+01:00\000"
 845      303000
 846              		.section	.text.atiny_get_UTC_offset,"ax",%progbits
 847              		.align	1
 848              		.global	atiny_get_UTC_offset
 849              		.syntax unified
 850              		.thumb
 851              		.thumb_func
 852              		.fpu fpv4-sp-d16
 854              	atiny_get_UTC_offset:
 855              	.LFB18:
 162:C:/Users/dtjld/Desktop/AIoT_software/LiteOS_Lab_overseas/LiteOS_Lab/iot_link/oc/oc_lwm2m/atiny_lwm2m\agent_tiny_cmd_ioctl.c **** 
 163:C:/Users/dtjld/Desktop/AIoT_software/LiteOS_Lab_overseas/LiteOS_Lab/iot_link/oc/oc_lwm2m/atiny_lwm2m\agent_tiny_cmd_ioctl.c **** #define UTC_OFFSET_MAX_LEN 7
 164:C:/Users/dtjld/Desktop/AIoT_software/LiteOS_Lab_overseas/LiteOS_Lab/iot_link/oc/oc_lwm2m/atiny_lwm2m\agent_tiny_cmd_ioctl.c **** static char g_UTC_offset[UTC_OFFSET_MAX_LEN] = "+01:00";
 165:C:/Users/dtjld/Desktop/AIoT_software/LiteOS_Lab_overseas/LiteOS_Lab/iot_link/oc/oc_lwm2m/atiny_lwm2m\agent_tiny_cmd_ioctl.c **** 
 166:C:/Users/dtjld/Desktop/AIoT_software/LiteOS_Lab_overseas/LiteOS_Lab/iot_link/oc/oc_lwm2m/atiny_lwm2m\agent_tiny_cmd_ioctl.c **** int atiny_get_UTC_offset(char *offset, int len)
 167:C:/Users/dtjld/Desktop/AIoT_software/LiteOS_Lab_overseas/LiteOS_Lab/iot_link/oc/oc_lwm2m/atiny_lwm2m\agent_tiny_cmd_ioctl.c **** {
 856              		.loc 1 167 0
 857              		.cfi_startproc
 858              		@ args = 0, pretend = 0, frame = 8
 859              		@ frame_needed = 1, uses_anonymous_args = 0
 860 0000 80B5     		push	{r7, lr}
 861              	.LCFI73:
 862              		.cfi_def_cfa_offset 8
 863              		.cfi_offset 7, -8
 864              		.cfi_offset 14, -4
 865 0002 82B0     		sub	sp, sp, #8
 866              	.LCFI74:
 867              		.cfi_def_cfa_offset 16
 868 0004 00AF     		add	r7, sp, #0
 869              	.LCFI75:
 870              		.cfi_def_cfa_register 7
 871 0006 7860     		str	r0, [r7, #4]
 872 0008 3960     		str	r1, [r7]
 168:C:/Users/dtjld/Desktop/AIoT_software/LiteOS_Lab_overseas/LiteOS_Lab/iot_link/oc/oc_lwm2m/atiny_lwm2m\agent_tiny_cmd_ioctl.c ****     if(len > strlen(g_UTC_offset) + 1)
 873              		.loc 1 168 0
ARM GAS  C:\Users\dtjld\AppData\Local\Temp\ccvmmsjH.s 			page 19


 874 000a 0948     		ldr	r0, .L56
 875 000c FFF7FEFF 		bl	strlen
 876 0010 0346     		mov	r3, r0
 877 0012 5A1C     		adds	r2, r3, #1
 878 0014 3B68     		ldr	r3, [r7]
 879 0016 9A42     		cmp	r2, r3
 880 0018 05D2     		bcs	.L54
 169:C:/Users/dtjld/Desktop/AIoT_software/LiteOS_Lab_overseas/LiteOS_Lab/iot_link/oc/oc_lwm2m/atiny_lwm2m\agent_tiny_cmd_ioctl.c ****     {
 170:C:/Users/dtjld/Desktop/AIoT_software/LiteOS_Lab_overseas/LiteOS_Lab/iot_link/oc/oc_lwm2m/atiny_lwm2m\agent_tiny_cmd_ioctl.c ****         (void)snprintf(offset, len, g_UTC_offset);
 881              		.loc 1 170 0
 882 001a 3B68     		ldr	r3, [r7]
 883 001c 044A     		ldr	r2, .L56
 884 001e 1946     		mov	r1, r3
 885 0020 7868     		ldr	r0, [r7, #4]
 886 0022 FFF7FEFF 		bl	snprintf
 887              	.L54:
 171:C:/Users/dtjld/Desktop/AIoT_software/LiteOS_Lab_overseas/LiteOS_Lab/iot_link/oc/oc_lwm2m/atiny_lwm2m\agent_tiny_cmd_ioctl.c ****     }
 172:C:/Users/dtjld/Desktop/AIoT_software/LiteOS_Lab_overseas/LiteOS_Lab/iot_link/oc/oc_lwm2m/atiny_lwm2m\agent_tiny_cmd_ioctl.c ****     return ATINY_OK;
 888              		.loc 1 172 0
 889 0026 0023     		movs	r3, #0
 173:C:/Users/dtjld/Desktop/AIoT_software/LiteOS_Lab_overseas/LiteOS_Lab/iot_link/oc/oc_lwm2m/atiny_lwm2m\agent_tiny_cmd_ioctl.c **** }
 890              		.loc 1 173 0
 891 0028 1846     		mov	r0, r3
 892 002a 0837     		adds	r7, r7, #8
 893              	.LCFI76:
 894              		.cfi_def_cfa_offset 8
 895 002c BD46     		mov	sp, r7
 896              	.LCFI77:
 897              		.cfi_def_cfa_register 13
 898              		@ sp needed
 899 002e 80BD     		pop	{r7, pc}
 900              	.L57:
 901              		.align	2
 902              	.L56:
 903 0030 00000000 		.word	g_UTC_offset
 904              		.cfi_endproc
 905              	.LFE18:
 907              		.section	.text.atiny_set_UTC_offset,"ax",%progbits
 908              		.align	1
 909              		.global	atiny_set_UTC_offset
 910              		.syntax unified
 911              		.thumb
 912              		.thumb_func
 913              		.fpu fpv4-sp-d16
 915              	atiny_set_UTC_offset:
 916              	.LFB19:
 174:C:/Users/dtjld/Desktop/AIoT_software/LiteOS_Lab_overseas/LiteOS_Lab/iot_link/oc/oc_lwm2m/atiny_lwm2m\agent_tiny_cmd_ioctl.c **** 
 175:C:/Users/dtjld/Desktop/AIoT_software/LiteOS_Lab_overseas/LiteOS_Lab/iot_link/oc/oc_lwm2m/atiny_lwm2m\agent_tiny_cmd_ioctl.c **** int atiny_set_UTC_offset(const char *offset, int len)
 176:C:/Users/dtjld/Desktop/AIoT_software/LiteOS_Lab_overseas/LiteOS_Lab/iot_link/oc/oc_lwm2m/atiny_lwm2m\agent_tiny_cmd_ioctl.c **** {
 917              		.loc 1 176 0
 918              		.cfi_startproc
 919              		@ args = 0, pretend = 0, frame = 8
 920              		@ frame_needed = 1, uses_anonymous_args = 0
 921 0000 80B5     		push	{r7, lr}
 922              	.LCFI78:
 923              		.cfi_def_cfa_offset 8
 924              		.cfi_offset 7, -8
ARM GAS  C:\Users\dtjld\AppData\Local\Temp\ccvmmsjH.s 			page 20


 925              		.cfi_offset 14, -4
 926 0002 82B0     		sub	sp, sp, #8
 927              	.LCFI79:
 928              		.cfi_def_cfa_offset 16
 929 0004 00AF     		add	r7, sp, #0
 930              	.LCFI80:
 931              		.cfi_def_cfa_register 7
 932 0006 7860     		str	r0, [r7, #4]
 933 0008 3960     		str	r1, [r7]
 177:C:/Users/dtjld/Desktop/AIoT_software/LiteOS_Lab_overseas/LiteOS_Lab/iot_link/oc/oc_lwm2m/atiny_lwm2m\agent_tiny_cmd_ioctl.c ****     (void)snprintf(g_UTC_offset, len + 1, offset);
 934              		.loc 1 177 0
 935 000a 3B68     		ldr	r3, [r7]
 936 000c 0133     		adds	r3, r3, #1
 937 000e 7A68     		ldr	r2, [r7, #4]
 938 0010 1946     		mov	r1, r3
 939 0012 0448     		ldr	r0, .L60
 940 0014 FFF7FEFF 		bl	snprintf
 178:C:/Users/dtjld/Desktop/AIoT_software/LiteOS_Lab_overseas/LiteOS_Lab/iot_link/oc/oc_lwm2m/atiny_lwm2m\agent_tiny_cmd_ioctl.c ****     return ATINY_OK;
 941              		.loc 1 178 0
 942 0018 0023     		movs	r3, #0
 179:C:/Users/dtjld/Desktop/AIoT_software/LiteOS_Lab_overseas/LiteOS_Lab/iot_link/oc/oc_lwm2m/atiny_lwm2m\agent_tiny_cmd_ioctl.c **** }
 943              		.loc 1 179 0
 944 001a 1846     		mov	r0, r3
 945 001c 0837     		adds	r7, r7, #8
 946              	.LCFI81:
 947              		.cfi_def_cfa_offset 8
 948 001e BD46     		mov	sp, r7
 949              	.LCFI82:
 950              		.cfi_def_cfa_register 13
 951              		@ sp needed
 952 0020 80BD     		pop	{r7, pc}
 953              	.L61:
 954 0022 00BF     		.align	2
 955              	.L60:
 956 0024 00000000 		.word	g_UTC_offset
 957              		.cfi_endproc
 958              	.LFE19:
 960              		.section	.data.g_timezone,"aw",%progbits
 961              		.align	2
 964              	g_timezone:
 965 0000 4575726F 		.ascii	"Europe/Berlin\000"
 965      70652F42 
 965      65726C69 
 965      6E00
 966 000e 00000000 		.space	11
 966      00000000 
 966      000000
 967              		.section	.text.atiny_get_timezone,"ax",%progbits
 968              		.align	1
 969              		.global	atiny_get_timezone
 970              		.syntax unified
 971              		.thumb
 972              		.thumb_func
 973              		.fpu fpv4-sp-d16
 975              	atiny_get_timezone:
 976              	.LFB20:
 180:C:/Users/dtjld/Desktop/AIoT_software/LiteOS_Lab_overseas/LiteOS_Lab/iot_link/oc/oc_lwm2m/atiny_lwm2m\agent_tiny_cmd_ioctl.c **** 
ARM GAS  C:\Users\dtjld\AppData\Local\Temp\ccvmmsjH.s 			page 21


 181:C:/Users/dtjld/Desktop/AIoT_software/LiteOS_Lab_overseas/LiteOS_Lab/iot_link/oc/oc_lwm2m/atiny_lwm2m\agent_tiny_cmd_ioctl.c **** #define TIMEZONE_MAXLEN 25
 182:C:/Users/dtjld/Desktop/AIoT_software/LiteOS_Lab_overseas/LiteOS_Lab/iot_link/oc/oc_lwm2m/atiny_lwm2m\agent_tiny_cmd_ioctl.c **** static char g_timezone[TIMEZONE_MAXLEN] = "Europe/Berlin";
 183:C:/Users/dtjld/Desktop/AIoT_software/LiteOS_Lab_overseas/LiteOS_Lab/iot_link/oc/oc_lwm2m/atiny_lwm2m\agent_tiny_cmd_ioctl.c **** 
 184:C:/Users/dtjld/Desktop/AIoT_software/LiteOS_Lab_overseas/LiteOS_Lab/iot_link/oc/oc_lwm2m/atiny_lwm2m\agent_tiny_cmd_ioctl.c **** int atiny_get_timezone(char *timezone, int len)
 185:C:/Users/dtjld/Desktop/AIoT_software/LiteOS_Lab_overseas/LiteOS_Lab/iot_link/oc/oc_lwm2m/atiny_lwm2m\agent_tiny_cmd_ioctl.c **** {
 977              		.loc 1 185 0
 978              		.cfi_startproc
 979              		@ args = 0, pretend = 0, frame = 8
 980              		@ frame_needed = 1, uses_anonymous_args = 0
 981 0000 80B5     		push	{r7, lr}
 982              	.LCFI83:
 983              		.cfi_def_cfa_offset 8
 984              		.cfi_offset 7, -8
 985              		.cfi_offset 14, -4
 986 0002 82B0     		sub	sp, sp, #8
 987              	.LCFI84:
 988              		.cfi_def_cfa_offset 16
 989 0004 00AF     		add	r7, sp, #0
 990              	.LCFI85:
 991              		.cfi_def_cfa_register 7
 992 0006 7860     		str	r0, [r7, #4]
 993 0008 3960     		str	r1, [r7]
 186:C:/Users/dtjld/Desktop/AIoT_software/LiteOS_Lab_overseas/LiteOS_Lab/iot_link/oc/oc_lwm2m/atiny_lwm2m\agent_tiny_cmd_ioctl.c ****     if(len > strlen(g_timezone) + 1)
 994              		.loc 1 186 0
 995 000a 0948     		ldr	r0, .L65
 996 000c FFF7FEFF 		bl	strlen
 997 0010 0346     		mov	r3, r0
 998 0012 5A1C     		adds	r2, r3, #1
 999 0014 3B68     		ldr	r3, [r7]
 1000 0016 9A42     		cmp	r2, r3
 1001 0018 05D2     		bcs	.L63
 187:C:/Users/dtjld/Desktop/AIoT_software/LiteOS_Lab_overseas/LiteOS_Lab/iot_link/oc/oc_lwm2m/atiny_lwm2m\agent_tiny_cmd_ioctl.c ****     {
 188:C:/Users/dtjld/Desktop/AIoT_software/LiteOS_Lab_overseas/LiteOS_Lab/iot_link/oc/oc_lwm2m/atiny_lwm2m\agent_tiny_cmd_ioctl.c ****         (void)snprintf(timezone, len, g_timezone);
 1002              		.loc 1 188 0
 1003 001a 3B68     		ldr	r3, [r7]
 1004 001c 044A     		ldr	r2, .L65
 1005 001e 1946     		mov	r1, r3
 1006 0020 7868     		ldr	r0, [r7, #4]
 1007 0022 FFF7FEFF 		bl	snprintf
 1008              	.L63:
 189:C:/Users/dtjld/Desktop/AIoT_software/LiteOS_Lab_overseas/LiteOS_Lab/iot_link/oc/oc_lwm2m/atiny_lwm2m\agent_tiny_cmd_ioctl.c ****     }
 190:C:/Users/dtjld/Desktop/AIoT_software/LiteOS_Lab_overseas/LiteOS_Lab/iot_link/oc/oc_lwm2m/atiny_lwm2m\agent_tiny_cmd_ioctl.c ****     return ATINY_OK;
 1009              		.loc 1 190 0
 1010 0026 0023     		movs	r3, #0
 191:C:/Users/dtjld/Desktop/AIoT_software/LiteOS_Lab_overseas/LiteOS_Lab/iot_link/oc/oc_lwm2m/atiny_lwm2m\agent_tiny_cmd_ioctl.c **** }
 1011              		.loc 1 191 0
 1012 0028 1846     		mov	r0, r3
 1013 002a 0837     		adds	r7, r7, #8
 1014              	.LCFI86:
 1015              		.cfi_def_cfa_offset 8
 1016 002c BD46     		mov	sp, r7
 1017              	.LCFI87:
 1018              		.cfi_def_cfa_register 13
 1019              		@ sp needed
 1020 002e 80BD     		pop	{r7, pc}
 1021              	.L66:
 1022              		.align	2
ARM GAS  C:\Users\dtjld\AppData\Local\Temp\ccvmmsjH.s 			page 22


 1023              	.L65:
 1024 0030 00000000 		.word	g_timezone
 1025              		.cfi_endproc
 1026              	.LFE20:
 1028              		.section	.text.atiny_set_timezone,"ax",%progbits
 1029              		.align	1
 1030              		.global	atiny_set_timezone
 1031              		.syntax unified
 1032              		.thumb
 1033              		.thumb_func
 1034              		.fpu fpv4-sp-d16
 1036              	atiny_set_timezone:
 1037              	.LFB21:
 192:C:/Users/dtjld/Desktop/AIoT_software/LiteOS_Lab_overseas/LiteOS_Lab/iot_link/oc/oc_lwm2m/atiny_lwm2m\agent_tiny_cmd_ioctl.c **** 
 193:C:/Users/dtjld/Desktop/AIoT_software/LiteOS_Lab_overseas/LiteOS_Lab/iot_link/oc/oc_lwm2m/atiny_lwm2m\agent_tiny_cmd_ioctl.c **** int atiny_set_timezone(const char *timezone, int len)
 194:C:/Users/dtjld/Desktop/AIoT_software/LiteOS_Lab_overseas/LiteOS_Lab/iot_link/oc/oc_lwm2m/atiny_lwm2m\agent_tiny_cmd_ioctl.c **** {
 1038              		.loc 1 194 0
 1039              		.cfi_startproc
 1040              		@ args = 0, pretend = 0, frame = 8
 1041              		@ frame_needed = 1, uses_anonymous_args = 0
 1042 0000 80B5     		push	{r7, lr}
 1043              	.LCFI88:
 1044              		.cfi_def_cfa_offset 8
 1045              		.cfi_offset 7, -8
 1046              		.cfi_offset 14, -4
 1047 0002 82B0     		sub	sp, sp, #8
 1048              	.LCFI89:
 1049              		.cfi_def_cfa_offset 16
 1050 0004 00AF     		add	r7, sp, #0
 1051              	.LCFI90:
 1052              		.cfi_def_cfa_register 7
 1053 0006 7860     		str	r0, [r7, #4]
 1054 0008 3960     		str	r1, [r7]
 195:C:/Users/dtjld/Desktop/AIoT_software/LiteOS_Lab_overseas/LiteOS_Lab/iot_link/oc/oc_lwm2m/atiny_lwm2m\agent_tiny_cmd_ioctl.c ****     (void)snprintf(g_timezone, len + 1, timezone);
 1055              		.loc 1 195 0
 1056 000a 3B68     		ldr	r3, [r7]
 1057 000c 0133     		adds	r3, r3, #1
 1058 000e 7A68     		ldr	r2, [r7, #4]
 1059 0010 1946     		mov	r1, r3
 1060 0012 0448     		ldr	r0, .L69
 1061 0014 FFF7FEFF 		bl	snprintf
 196:C:/Users/dtjld/Desktop/AIoT_software/LiteOS_Lab_overseas/LiteOS_Lab/iot_link/oc/oc_lwm2m/atiny_lwm2m\agent_tiny_cmd_ioctl.c ****     return ATINY_OK;
 1062              		.loc 1 196 0
 1063 0018 0023     		movs	r3, #0
 197:C:/Users/dtjld/Desktop/AIoT_software/LiteOS_Lab_overseas/LiteOS_Lab/iot_link/oc/oc_lwm2m/atiny_lwm2m\agent_tiny_cmd_ioctl.c **** }
 1064              		.loc 1 197 0
 1065 001a 1846     		mov	r0, r3
 1066 001c 0837     		adds	r7, r7, #8
 1067              	.LCFI91:
 1068              		.cfi_def_cfa_offset 8
 1069 001e BD46     		mov	sp, r7
 1070              	.LCFI92:
 1071              		.cfi_def_cfa_register 13
 1072              		@ sp needed
 1073 0020 80BD     		pop	{r7, pc}
 1074              	.L70:
 1075 0022 00BF     		.align	2
ARM GAS  C:\Users\dtjld\AppData\Local\Temp\ccvmmsjH.s 			page 23


 1076              	.L69:
 1077 0024 00000000 		.word	g_timezone
 1078              		.cfi_endproc
 1079              	.LFE21:
 1081              		.section	.rodata
 1082 007b 00       		.align	2
 1083              	.LC6:
 1084 007c 62696E64 		.ascii	"bind type is UQ......\015\000"
 1084      20747970 
 1084      65206973 
 1084      2055512E 
 1084      2E2E2E2E 
 1085 0093 00       		.align	2
 1086              	.LC7:
 1087 0094 555100   		.ascii	"UQ\000"
 1088              		.section	.text.atiny_get_bind_mode,"ax",%progbits
 1089              		.align	1
 1090              		.global	atiny_get_bind_mode
 1091              		.syntax unified
 1092              		.thumb
 1093              		.thumb_func
 1094              		.fpu fpv4-sp-d16
 1096              	atiny_get_bind_mode:
 1097              	.LFB22:
 198:C:/Users/dtjld/Desktop/AIoT_software/LiteOS_Lab_overseas/LiteOS_Lab/iot_link/oc/oc_lwm2m/atiny_lwm2m\agent_tiny_cmd_ioctl.c **** 
 199:C:/Users/dtjld/Desktop/AIoT_software/LiteOS_Lab_overseas/LiteOS_Lab/iot_link/oc/oc_lwm2m/atiny_lwm2m\agent_tiny_cmd_ioctl.c **** int atiny_get_bind_mode(char *mode, int len)
 200:C:/Users/dtjld/Desktop/AIoT_software/LiteOS_Lab_overseas/LiteOS_Lab/iot_link/oc/oc_lwm2m/atiny_lwm2m\agent_tiny_cmd_ioctl.c **** {
 1098              		.loc 1 200 0
 1099              		.cfi_startproc
 1100              		@ args = 0, pretend = 0, frame = 8
 1101              		@ frame_needed = 1, uses_anonymous_args = 0
 1102 0000 80B5     		push	{r7, lr}
 1103              	.LCFI93:
 1104              		.cfi_def_cfa_offset 8
 1105              		.cfi_offset 7, -8
 1106              		.cfi_offset 14, -4
 1107 0002 82B0     		sub	sp, sp, #8
 1108              	.LCFI94:
 1109              		.cfi_def_cfa_offset 16
 1110 0004 00AF     		add	r7, sp, #0
 1111              	.LCFI95:
 1112              		.cfi_def_cfa_register 7
 1113 0006 7860     		str	r0, [r7, #4]
 1114 0008 3960     		str	r1, [r7]
 201:C:/Users/dtjld/Desktop/AIoT_software/LiteOS_Lab_overseas/LiteOS_Lab/iot_link/oc/oc_lwm2m/atiny_lwm2m\agent_tiny_cmd_ioctl.c ****     (void)printf("bind type is UQ......\r\n");
 1115              		.loc 1 201 0
 1116 000a 0748     		ldr	r0, .L73
 1117 000c FFF7FEFF 		bl	puts
 202:C:/Users/dtjld/Desktop/AIoT_software/LiteOS_Lab_overseas/LiteOS_Lab/iot_link/oc/oc_lwm2m/atiny_lwm2m\agent_tiny_cmd_ioctl.c ****     (void)snprintf(mode, len, "UQ");
 1118              		.loc 1 202 0
 1119 0010 3B68     		ldr	r3, [r7]
 1120 0012 064A     		ldr	r2, .L73+4
 1121 0014 1946     		mov	r1, r3
 1122 0016 7868     		ldr	r0, [r7, #4]
 1123 0018 FFF7FEFF 		bl	snprintf
 203:C:/Users/dtjld/Desktop/AIoT_software/LiteOS_Lab_overseas/LiteOS_Lab/iot_link/oc/oc_lwm2m/atiny_lwm2m\agent_tiny_cmd_ioctl.c ****     return ATINY_OK;
 1124              		.loc 1 203 0
ARM GAS  C:\Users\dtjld\AppData\Local\Temp\ccvmmsjH.s 			page 24


 1125 001c 0023     		movs	r3, #0
 204:C:/Users/dtjld/Desktop/AIoT_software/LiteOS_Lab_overseas/LiteOS_Lab/iot_link/oc/oc_lwm2m/atiny_lwm2m\agent_tiny_cmd_ioctl.c **** }
 1126              		.loc 1 204 0
 1127 001e 1846     		mov	r0, r3
 1128 0020 0837     		adds	r7, r7, #8
 1129              	.LCFI96:
 1130              		.cfi_def_cfa_offset 8
 1131 0022 BD46     		mov	sp, r7
 1132              	.LCFI97:
 1133              		.cfi_def_cfa_register 13
 1134              		@ sp needed
 1135 0024 80BD     		pop	{r7, pc}
 1136              	.L74:
 1137 0026 00BF     		.align	2
 1138              	.L73:
 1139 0028 7C000000 		.word	.LC6
 1140 002c 94000000 		.word	.LC7
 1141              		.cfi_endproc
 1142              	.LFE22:
 1144              		.section	.rodata
 1145 0097 00       		.align	2
 1146              	.LC8:
 1147 0098 6669726D 		.ascii	"firmware is updating......\015\000"
 1147      77617265 
 1147      20697320 
 1147      75706461 
 1147      74696E67 
 1148              		.section	.text.atiny_trig_firmware_update,"ax",%progbits
 1149              		.align	1
 1150              		.global	atiny_trig_firmware_update
 1151              		.syntax unified
 1152              		.thumb
 1153              		.thumb_func
 1154              		.fpu fpv4-sp-d16
 1156              	atiny_trig_firmware_update:
 1157              	.LFB23:
 205:C:/Users/dtjld/Desktop/AIoT_software/LiteOS_Lab_overseas/LiteOS_Lab/iot_link/oc/oc_lwm2m/atiny_lwm2m\agent_tiny_cmd_ioctl.c **** 
 206:C:/Users/dtjld/Desktop/AIoT_software/LiteOS_Lab_overseas/LiteOS_Lab/iot_link/oc/oc_lwm2m/atiny_lwm2m\agent_tiny_cmd_ioctl.c **** int atiny_trig_firmware_update(void)
 207:C:/Users/dtjld/Desktop/AIoT_software/LiteOS_Lab_overseas/LiteOS_Lab/iot_link/oc/oc_lwm2m/atiny_lwm2m\agent_tiny_cmd_ioctl.c **** {
 1158              		.loc 1 207 0
 1159              		.cfi_startproc
 1160              		@ args = 0, pretend = 0, frame = 0
 1161              		@ frame_needed = 1, uses_anonymous_args = 0
 1162 0000 80B5     		push	{r7, lr}
 1163              	.LCFI98:
 1164              		.cfi_def_cfa_offset 8
 1165              		.cfi_offset 7, -8
 1166              		.cfi_offset 14, -4
 1167 0002 00AF     		add	r7, sp, #0
 1168              	.LCFI99:
 1169              		.cfi_def_cfa_register 7
 208:C:/Users/dtjld/Desktop/AIoT_software/LiteOS_Lab_overseas/LiteOS_Lab/iot_link/oc/oc_lwm2m/atiny_lwm2m\agent_tiny_cmd_ioctl.c ****     (void)printf("firmware is updating......\r\n");
 1170              		.loc 1 208 0
 1171 0004 0248     		ldr	r0, .L77
 1172 0006 FFF7FEFF 		bl	puts
 209:C:/Users/dtjld/Desktop/AIoT_software/LiteOS_Lab_overseas/LiteOS_Lab/iot_link/oc/oc_lwm2m/atiny_lwm2m\agent_tiny_cmd_ioctl.c ****     return ATINY_OK;
 1173              		.loc 1 209 0
ARM GAS  C:\Users\dtjld\AppData\Local\Temp\ccvmmsjH.s 			page 25


 1174 000a 0023     		movs	r3, #0
 210:C:/Users/dtjld/Desktop/AIoT_software/LiteOS_Lab_overseas/LiteOS_Lab/iot_link/oc/oc_lwm2m/atiny_lwm2m\agent_tiny_cmd_ioctl.c **** }
 1175              		.loc 1 210 0
 1176 000c 1846     		mov	r0, r3
 1177 000e 80BD     		pop	{r7, pc}
 1178              	.L78:
 1179              		.align	2
 1180              	.L77:
 1181 0010 98000000 		.word	.LC8
 1182              		.cfi_endproc
 1183              	.LFE23:
 1185              		.section	.text.atiny_get_firmware_result,"ax",%progbits
 1186              		.align	1
 1187              		.global	atiny_get_firmware_result
 1188              		.syntax unified
 1189              		.thumb
 1190              		.thumb_func
 1191              		.fpu fpv4-sp-d16
 1193              	atiny_get_firmware_result:
 1194              	.LFB24:
 211:C:/Users/dtjld/Desktop/AIoT_software/LiteOS_Lab_overseas/LiteOS_Lab/iot_link/oc/oc_lwm2m/atiny_lwm2m\agent_tiny_cmd_ioctl.c **** 
 212:C:/Users/dtjld/Desktop/AIoT_software/LiteOS_Lab_overseas/LiteOS_Lab/iot_link/oc/oc_lwm2m/atiny_lwm2m\agent_tiny_cmd_ioctl.c **** int atiny_get_firmware_result(int *result)
 213:C:/Users/dtjld/Desktop/AIoT_software/LiteOS_Lab_overseas/LiteOS_Lab/iot_link/oc/oc_lwm2m/atiny_lwm2m\agent_tiny_cmd_ioctl.c **** {
 1195              		.loc 1 213 0
 1196              		.cfi_startproc
 1197              		@ args = 0, pretend = 0, frame = 8
 1198              		@ frame_needed = 1, uses_anonymous_args = 0
 1199              		@ link register save eliminated.
 1200 0000 80B4     		push	{r7}
 1201              	.LCFI100:
 1202              		.cfi_def_cfa_offset 4
 1203              		.cfi_offset 7, -4
 1204 0002 83B0     		sub	sp, sp, #12
 1205              	.LCFI101:
 1206              		.cfi_def_cfa_offset 16
 1207 0004 00AF     		add	r7, sp, #0
 1208              	.LCFI102:
 1209              		.cfi_def_cfa_register 7
 1210 0006 7860     		str	r0, [r7, #4]
 214:C:/Users/dtjld/Desktop/AIoT_software/LiteOS_Lab_overseas/LiteOS_Lab/iot_link/oc/oc_lwm2m/atiny_lwm2m\agent_tiny_cmd_ioctl.c ****     *result = 0;
 1211              		.loc 1 214 0
 1212 0008 7B68     		ldr	r3, [r7, #4]
 1213 000a 0022     		movs	r2, #0
 1214 000c 1A60     		str	r2, [r3]
 215:C:/Users/dtjld/Desktop/AIoT_software/LiteOS_Lab_overseas/LiteOS_Lab/iot_link/oc/oc_lwm2m/atiny_lwm2m\agent_tiny_cmd_ioctl.c ****     return ATINY_OK;
 1215              		.loc 1 215 0
 1216 000e 0023     		movs	r3, #0
 216:C:/Users/dtjld/Desktop/AIoT_software/LiteOS_Lab_overseas/LiteOS_Lab/iot_link/oc/oc_lwm2m/atiny_lwm2m\agent_tiny_cmd_ioctl.c **** }
 1217              		.loc 1 216 0
 1218 0010 1846     		mov	r0, r3
 1219 0012 0C37     		adds	r7, r7, #12
 1220              	.LCFI103:
 1221              		.cfi_def_cfa_offset 4
 1222 0014 BD46     		mov	sp, r7
 1223              	.LCFI104:
 1224              		.cfi_def_cfa_register 13
 1225              		@ sp needed
ARM GAS  C:\Users\dtjld\AppData\Local\Temp\ccvmmsjH.s 			page 26


 1226 0016 5DF8047B 		ldr	r7, [sp], #4
 1227              	.LCFI105:
 1228              		.cfi_restore 7
 1229              		.cfi_def_cfa_offset 0
 1230 001a 7047     		bx	lr
 1231              		.cfi_endproc
 1232              	.LFE24:
 1234              		.section	.text.atiny_get_firmware_state,"ax",%progbits
 1235              		.align	1
 1236              		.global	atiny_get_firmware_state
 1237              		.syntax unified
 1238              		.thumb
 1239              		.thumb_func
 1240              		.fpu fpv4-sp-d16
 1242              	atiny_get_firmware_state:
 1243              	.LFB25:
 217:C:/Users/dtjld/Desktop/AIoT_software/LiteOS_Lab_overseas/LiteOS_Lab/iot_link/oc/oc_lwm2m/atiny_lwm2m\agent_tiny_cmd_ioctl.c **** 
 218:C:/Users/dtjld/Desktop/AIoT_software/LiteOS_Lab_overseas/LiteOS_Lab/iot_link/oc/oc_lwm2m/atiny_lwm2m\agent_tiny_cmd_ioctl.c **** int atiny_get_firmware_state(int *state)
 219:C:/Users/dtjld/Desktop/AIoT_software/LiteOS_Lab_overseas/LiteOS_Lab/iot_link/oc/oc_lwm2m/atiny_lwm2m\agent_tiny_cmd_ioctl.c **** {
 1244              		.loc 1 219 0
 1245              		.cfi_startproc
 1246              		@ args = 0, pretend = 0, frame = 8
 1247              		@ frame_needed = 1, uses_anonymous_args = 0
 1248              		@ link register save eliminated.
 1249 0000 80B4     		push	{r7}
 1250              	.LCFI106:
 1251              		.cfi_def_cfa_offset 4
 1252              		.cfi_offset 7, -4
 1253 0002 83B0     		sub	sp, sp, #12
 1254              	.LCFI107:
 1255              		.cfi_def_cfa_offset 16
 1256 0004 00AF     		add	r7, sp, #0
 1257              	.LCFI108:
 1258              		.cfi_def_cfa_register 7
 1259 0006 7860     		str	r0, [r7, #4]
 220:C:/Users/dtjld/Desktop/AIoT_software/LiteOS_Lab_overseas/LiteOS_Lab/iot_link/oc/oc_lwm2m/atiny_lwm2m\agent_tiny_cmd_ioctl.c ****     *state = 0;
 1260              		.loc 1 220 0
 1261 0008 7B68     		ldr	r3, [r7, #4]
 1262 000a 0022     		movs	r2, #0
 1263 000c 1A60     		str	r2, [r3]
 221:C:/Users/dtjld/Desktop/AIoT_software/LiteOS_Lab_overseas/LiteOS_Lab/iot_link/oc/oc_lwm2m/atiny_lwm2m\agent_tiny_cmd_ioctl.c ****     return ATINY_OK;
 1264              		.loc 1 221 0
 1265 000e 0023     		movs	r3, #0
 222:C:/Users/dtjld/Desktop/AIoT_software/LiteOS_Lab_overseas/LiteOS_Lab/iot_link/oc/oc_lwm2m/atiny_lwm2m\agent_tiny_cmd_ioctl.c **** }
 1266              		.loc 1 222 0
 1267 0010 1846     		mov	r0, r3
 1268 0012 0C37     		adds	r7, r7, #12
 1269              	.LCFI109:
 1270              		.cfi_def_cfa_offset 4
 1271 0014 BD46     		mov	sp, r7
 1272              	.LCFI110:
 1273              		.cfi_def_cfa_register 13
 1274              		@ sp needed
 1275 0016 5DF8047B 		ldr	r7, [sp], #4
 1276              	.LCFI111:
 1277              		.cfi_restore 7
 1278              		.cfi_def_cfa_offset 0
ARM GAS  C:\Users\dtjld\AppData\Local\Temp\ccvmmsjH.s 			page 27


 1279 001a 7047     		bx	lr
 1280              		.cfi_endproc
 1281              	.LFE25:
 1283              		.section	.text.atiny_get_network_bearer,"ax",%progbits
 1284              		.align	1
 1285              		.global	atiny_get_network_bearer
 1286              		.syntax unified
 1287              		.thumb
 1288              		.thumb_func
 1289              		.fpu fpv4-sp-d16
 1291              	atiny_get_network_bearer:
 1292              	.LFB26:
 223:C:/Users/dtjld/Desktop/AIoT_software/LiteOS_Lab_overseas/LiteOS_Lab/iot_link/oc/oc_lwm2m/atiny_lwm2m\agent_tiny_cmd_ioctl.c **** 
 224:C:/Users/dtjld/Desktop/AIoT_software/LiteOS_Lab_overseas/LiteOS_Lab/iot_link/oc/oc_lwm2m/atiny_lwm2m\agent_tiny_cmd_ioctl.c **** int atiny_get_network_bearer(int *network_brearer)
 225:C:/Users/dtjld/Desktop/AIoT_software/LiteOS_Lab_overseas/LiteOS_Lab/iot_link/oc/oc_lwm2m/atiny_lwm2m\agent_tiny_cmd_ioctl.c **** {
 1293              		.loc 1 225 0
 1294              		.cfi_startproc
 1295              		@ args = 0, pretend = 0, frame = 8
 1296              		@ frame_needed = 1, uses_anonymous_args = 0
 1297              		@ link register save eliminated.
 1298 0000 80B4     		push	{r7}
 1299              	.LCFI112:
 1300              		.cfi_def_cfa_offset 4
 1301              		.cfi_offset 7, -4
 1302 0002 83B0     		sub	sp, sp, #12
 1303              	.LCFI113:
 1304              		.cfi_def_cfa_offset 16
 1305 0004 00AF     		add	r7, sp, #0
 1306              	.LCFI114:
 1307              		.cfi_def_cfa_register 7
 1308 0006 7860     		str	r0, [r7, #4]
 226:C:/Users/dtjld/Desktop/AIoT_software/LiteOS_Lab_overseas/LiteOS_Lab/iot_link/oc/oc_lwm2m/atiny_lwm2m\agent_tiny_cmd_ioctl.c ****     *network_brearer = ATINY_NETWORK_BEARER;
 1309              		.loc 1 226 0
 1310 0008 7B68     		ldr	r3, [r7, #4]
 1311 000a 0522     		movs	r2, #5
 1312 000c 1A60     		str	r2, [r3]
 227:C:/Users/dtjld/Desktop/AIoT_software/LiteOS_Lab_overseas/LiteOS_Lab/iot_link/oc/oc_lwm2m/atiny_lwm2m\agent_tiny_cmd_ioctl.c ****     return ATINY_OK;
 1313              		.loc 1 227 0
 1314 000e 0023     		movs	r3, #0
 228:C:/Users/dtjld/Desktop/AIoT_software/LiteOS_Lab_overseas/LiteOS_Lab/iot_link/oc/oc_lwm2m/atiny_lwm2m\agent_tiny_cmd_ioctl.c **** }
 1315              		.loc 1 228 0
 1316 0010 1846     		mov	r0, r3
 1317 0012 0C37     		adds	r7, r7, #12
 1318              	.LCFI115:
 1319              		.cfi_def_cfa_offset 4
 1320 0014 BD46     		mov	sp, r7
 1321              	.LCFI116:
 1322              		.cfi_def_cfa_register 13
 1323              		@ sp needed
 1324 0016 5DF8047B 		ldr	r7, [sp], #4
 1325              	.LCFI117:
 1326              		.cfi_restore 7
 1327              		.cfi_def_cfa_offset 0
 1328 001a 7047     		bx	lr
 1329              		.cfi_endproc
 1330              	.LFE26:
 1332              		.section	.text.atiny_get_signal_strength,"ax",%progbits
ARM GAS  C:\Users\dtjld\AppData\Local\Temp\ccvmmsjH.s 			page 28


 1333              		.align	1
 1334              		.global	atiny_get_signal_strength
 1335              		.syntax unified
 1336              		.thumb
 1337              		.thumb_func
 1338              		.fpu fpv4-sp-d16
 1340              	atiny_get_signal_strength:
 1341              	.LFB27:
 229:C:/Users/dtjld/Desktop/AIoT_software/LiteOS_Lab_overseas/LiteOS_Lab/iot_link/oc/oc_lwm2m/atiny_lwm2m\agent_tiny_cmd_ioctl.c **** 
 230:C:/Users/dtjld/Desktop/AIoT_software/LiteOS_Lab_overseas/LiteOS_Lab/iot_link/oc/oc_lwm2m/atiny_lwm2m\agent_tiny_cmd_ioctl.c **** int atiny_get_signal_strength(int *singal_strength)
 231:C:/Users/dtjld/Desktop/AIoT_software/LiteOS_Lab_overseas/LiteOS_Lab/iot_link/oc/oc_lwm2m/atiny_lwm2m\agent_tiny_cmd_ioctl.c **** {
 1342              		.loc 1 231 0
 1343              		.cfi_startproc
 1344              		@ args = 0, pretend = 0, frame = 8
 1345              		@ frame_needed = 1, uses_anonymous_args = 0
 1346              		@ link register save eliminated.
 1347 0000 80B4     		push	{r7}
 1348              	.LCFI118:
 1349              		.cfi_def_cfa_offset 4
 1350              		.cfi_offset 7, -4
 1351 0002 83B0     		sub	sp, sp, #12
 1352              	.LCFI119:
 1353              		.cfi_def_cfa_offset 16
 1354 0004 00AF     		add	r7, sp, #0
 1355              	.LCFI120:
 1356              		.cfi_def_cfa_register 7
 1357 0006 7860     		str	r0, [r7, #4]
 232:C:/Users/dtjld/Desktop/AIoT_software/LiteOS_Lab_overseas/LiteOS_Lab/iot_link/oc/oc_lwm2m/atiny_lwm2m\agent_tiny_cmd_ioctl.c ****     *singal_strength = ATINY_SIGNAL_STRENGTH;
 1358              		.loc 1 232 0
 1359 0008 7B68     		ldr	r3, [r7, #4]
 1360 000a 5A22     		movs	r2, #90
 1361 000c 1A60     		str	r2, [r3]
 233:C:/Users/dtjld/Desktop/AIoT_software/LiteOS_Lab_overseas/LiteOS_Lab/iot_link/oc/oc_lwm2m/atiny_lwm2m\agent_tiny_cmd_ioctl.c ****     return ATINY_OK;
 1362              		.loc 1 233 0
 1363 000e 0023     		movs	r3, #0
 234:C:/Users/dtjld/Desktop/AIoT_software/LiteOS_Lab_overseas/LiteOS_Lab/iot_link/oc/oc_lwm2m/atiny_lwm2m\agent_tiny_cmd_ioctl.c **** }
 1364              		.loc 1 234 0
 1365 0010 1846     		mov	r0, r3
 1366 0012 0C37     		adds	r7, r7, #12
 1367              	.LCFI121:
 1368              		.cfi_def_cfa_offset 4
 1369 0014 BD46     		mov	sp, r7
 1370              	.LCFI122:
 1371              		.cfi_def_cfa_register 13
 1372              		@ sp needed
 1373 0016 5DF8047B 		ldr	r7, [sp], #4
 1374              	.LCFI123:
 1375              		.cfi_restore 7
 1376              		.cfi_def_cfa_offset 0
 1377 001a 7047     		bx	lr
 1378              		.cfi_endproc
 1379              	.LFE27:
 1381              		.section	.text.atiny_get_cell_id,"ax",%progbits
 1382              		.align	1
 1383              		.global	atiny_get_cell_id
 1384              		.syntax unified
 1385              		.thumb
ARM GAS  C:\Users\dtjld\AppData\Local\Temp\ccvmmsjH.s 			page 29


 1386              		.thumb_func
 1387              		.fpu fpv4-sp-d16
 1389              	atiny_get_cell_id:
 1390              	.LFB28:
 235:C:/Users/dtjld/Desktop/AIoT_software/LiteOS_Lab_overseas/LiteOS_Lab/iot_link/oc/oc_lwm2m/atiny_lwm2m\agent_tiny_cmd_ioctl.c **** 
 236:C:/Users/dtjld/Desktop/AIoT_software/LiteOS_Lab_overseas/LiteOS_Lab/iot_link/oc/oc_lwm2m/atiny_lwm2m\agent_tiny_cmd_ioctl.c **** int atiny_get_cell_id(long *cell_id)
 237:C:/Users/dtjld/Desktop/AIoT_software/LiteOS_Lab_overseas/LiteOS_Lab/iot_link/oc/oc_lwm2m/atiny_lwm2m\agent_tiny_cmd_ioctl.c **** {
 1391              		.loc 1 237 0
 1392              		.cfi_startproc
 1393              		@ args = 0, pretend = 0, frame = 8
 1394              		@ frame_needed = 1, uses_anonymous_args = 0
 1395              		@ link register save eliminated.
 1396 0000 80B4     		push	{r7}
 1397              	.LCFI124:
 1398              		.cfi_def_cfa_offset 4
 1399              		.cfi_offset 7, -4
 1400 0002 83B0     		sub	sp, sp, #12
 1401              	.LCFI125:
 1402              		.cfi_def_cfa_offset 16
 1403 0004 00AF     		add	r7, sp, #0
 1404              	.LCFI126:
 1405              		.cfi_def_cfa_register 7
 1406 0006 7860     		str	r0, [r7, #4]
 238:C:/Users/dtjld/Desktop/AIoT_software/LiteOS_Lab_overseas/LiteOS_Lab/iot_link/oc/oc_lwm2m/atiny_lwm2m\agent_tiny_cmd_ioctl.c ****     *cell_id = ATINY_CELL_ID;
 1407              		.loc 1 238 0
 1408 0008 7B68     		ldr	r3, [r7, #4]
 1409 000a 45F26F22 		movw	r2, #21103
 1410 000e 1A60     		str	r2, [r3]
 239:C:/Users/dtjld/Desktop/AIoT_software/LiteOS_Lab_overseas/LiteOS_Lab/iot_link/oc/oc_lwm2m/atiny_lwm2m\agent_tiny_cmd_ioctl.c ****     return ATINY_OK;
 1411              		.loc 1 239 0
 1412 0010 0023     		movs	r3, #0
 240:C:/Users/dtjld/Desktop/AIoT_software/LiteOS_Lab_overseas/LiteOS_Lab/iot_link/oc/oc_lwm2m/atiny_lwm2m\agent_tiny_cmd_ioctl.c **** }
 1413              		.loc 1 240 0
 1414 0012 1846     		mov	r0, r3
 1415 0014 0C37     		adds	r7, r7, #12
 1416              	.LCFI127:
 1417              		.cfi_def_cfa_offset 4
 1418 0016 BD46     		mov	sp, r7
 1419              	.LCFI128:
 1420              		.cfi_def_cfa_register 13
 1421              		@ sp needed
 1422 0018 5DF8047B 		ldr	r7, [sp], #4
 1423              	.LCFI129:
 1424              		.cfi_restore 7
 1425              		.cfi_def_cfa_offset 0
 1426 001c 7047     		bx	lr
 1427              		.cfi_endproc
 1428              	.LFE28:
 1430              		.section	.text.atiny_get_link_quality,"ax",%progbits
 1431              		.align	1
 1432              		.global	atiny_get_link_quality
 1433              		.syntax unified
 1434              		.thumb
 1435              		.thumb_func
 1436              		.fpu fpv4-sp-d16
 1438              	atiny_get_link_quality:
 1439              	.LFB29:
ARM GAS  C:\Users\dtjld\AppData\Local\Temp\ccvmmsjH.s 			page 30


 241:C:/Users/dtjld/Desktop/AIoT_software/LiteOS_Lab_overseas/LiteOS_Lab/iot_link/oc/oc_lwm2m/atiny_lwm2m\agent_tiny_cmd_ioctl.c **** 
 242:C:/Users/dtjld/Desktop/AIoT_software/LiteOS_Lab_overseas/LiteOS_Lab/iot_link/oc/oc_lwm2m/atiny_lwm2m\agent_tiny_cmd_ioctl.c **** int atiny_get_link_quality(int *quality)
 243:C:/Users/dtjld/Desktop/AIoT_software/LiteOS_Lab_overseas/LiteOS_Lab/iot_link/oc/oc_lwm2m/atiny_lwm2m\agent_tiny_cmd_ioctl.c **** {
 1440              		.loc 1 243 0
 1441              		.cfi_startproc
 1442              		@ args = 0, pretend = 0, frame = 8
 1443              		@ frame_needed = 1, uses_anonymous_args = 0
 1444              		@ link register save eliminated.
 1445 0000 80B4     		push	{r7}
 1446              	.LCFI130:
 1447              		.cfi_def_cfa_offset 4
 1448              		.cfi_offset 7, -4
 1449 0002 83B0     		sub	sp, sp, #12
 1450              	.LCFI131:
 1451              		.cfi_def_cfa_offset 16
 1452 0004 00AF     		add	r7, sp, #0
 1453              	.LCFI132:
 1454              		.cfi_def_cfa_register 7
 1455 0006 7860     		str	r0, [r7, #4]
 244:C:/Users/dtjld/Desktop/AIoT_software/LiteOS_Lab_overseas/LiteOS_Lab/iot_link/oc/oc_lwm2m/atiny_lwm2m\agent_tiny_cmd_ioctl.c ****     *quality = ATINY_LINK_QUALITY;
 1456              		.loc 1 244 0
 1457 0008 7B68     		ldr	r3, [r7, #4]
 1458 000a 6222     		movs	r2, #98
 1459 000c 1A60     		str	r2, [r3]
 245:C:/Users/dtjld/Desktop/AIoT_software/LiteOS_Lab_overseas/LiteOS_Lab/iot_link/oc/oc_lwm2m/atiny_lwm2m\agent_tiny_cmd_ioctl.c ****     return ATINY_OK;
 1460              		.loc 1 245 0
 1461 000e 0023     		movs	r3, #0
 246:C:/Users/dtjld/Desktop/AIoT_software/LiteOS_Lab_overseas/LiteOS_Lab/iot_link/oc/oc_lwm2m/atiny_lwm2m\agent_tiny_cmd_ioctl.c **** }
 1462              		.loc 1 246 0
 1463 0010 1846     		mov	r0, r3
 1464 0012 0C37     		adds	r7, r7, #12
 1465              	.LCFI133:
 1466              		.cfi_def_cfa_offset 4
 1467 0014 BD46     		mov	sp, r7
 1468              	.LCFI134:
 1469              		.cfi_def_cfa_register 13
 1470              		@ sp needed
 1471 0016 5DF8047B 		ldr	r7, [sp], #4
 1472              	.LCFI135:
 1473              		.cfi_restore 7
 1474              		.cfi_def_cfa_offset 0
 1475 001a 7047     		bx	lr
 1476              		.cfi_endproc
 1477              	.LFE29:
 1479              		.section	.text.atiny_get_link_utilization,"ax",%progbits
 1480              		.align	1
 1481              		.global	atiny_get_link_utilization
 1482              		.syntax unified
 1483              		.thumb
 1484              		.thumb_func
 1485              		.fpu fpv4-sp-d16
 1487              	atiny_get_link_utilization:
 1488              	.LFB30:
 247:C:/Users/dtjld/Desktop/AIoT_software/LiteOS_Lab_overseas/LiteOS_Lab/iot_link/oc/oc_lwm2m/atiny_lwm2m\agent_tiny_cmd_ioctl.c **** 
 248:C:/Users/dtjld/Desktop/AIoT_software/LiteOS_Lab_overseas/LiteOS_Lab/iot_link/oc/oc_lwm2m/atiny_lwm2m\agent_tiny_cmd_ioctl.c **** int atiny_get_link_utilization(int *utilization)
 249:C:/Users/dtjld/Desktop/AIoT_software/LiteOS_Lab_overseas/LiteOS_Lab/iot_link/oc/oc_lwm2m/atiny_lwm2m\agent_tiny_cmd_ioctl.c **** {
 1489              		.loc 1 249 0
ARM GAS  C:\Users\dtjld\AppData\Local\Temp\ccvmmsjH.s 			page 31


 1490              		.cfi_startproc
 1491              		@ args = 0, pretend = 0, frame = 8
 1492              		@ frame_needed = 1, uses_anonymous_args = 0
 1493              		@ link register save eliminated.
 1494 0000 80B4     		push	{r7}
 1495              	.LCFI136:
 1496              		.cfi_def_cfa_offset 4
 1497              		.cfi_offset 7, -4
 1498 0002 83B0     		sub	sp, sp, #12
 1499              	.LCFI137:
 1500              		.cfi_def_cfa_offset 16
 1501 0004 00AF     		add	r7, sp, #0
 1502              	.LCFI138:
 1503              		.cfi_def_cfa_register 7
 1504 0006 7860     		str	r0, [r7, #4]
 250:C:/Users/dtjld/Desktop/AIoT_software/LiteOS_Lab_overseas/LiteOS_Lab/iot_link/oc/oc_lwm2m/atiny_lwm2m\agent_tiny_cmd_ioctl.c ****     *utilization = ATINY_LINK_UTRILIZATION;
 1505              		.loc 1 250 0
 1506 0008 7B68     		ldr	r3, [r7, #4]
 1507 000a 0A22     		movs	r2, #10
 1508 000c 1A60     		str	r2, [r3]
 251:C:/Users/dtjld/Desktop/AIoT_software/LiteOS_Lab_overseas/LiteOS_Lab/iot_link/oc/oc_lwm2m/atiny_lwm2m\agent_tiny_cmd_ioctl.c ****     return ATINY_OK;
 1509              		.loc 1 251 0
 1510 000e 0023     		movs	r3, #0
 252:C:/Users/dtjld/Desktop/AIoT_software/LiteOS_Lab_overseas/LiteOS_Lab/iot_link/oc/oc_lwm2m/atiny_lwm2m\agent_tiny_cmd_ioctl.c **** }
 1511              		.loc 1 252 0
 1512 0010 1846     		mov	r0, r3
 1513 0012 0C37     		adds	r7, r7, #12
 1514              	.LCFI139:
 1515              		.cfi_def_cfa_offset 4
 1516 0014 BD46     		mov	sp, r7
 1517              	.LCFI140:
 1518              		.cfi_def_cfa_register 13
 1519              		@ sp needed
 1520 0016 5DF8047B 		ldr	r7, [sp], #4
 1521              	.LCFI141:
 1522              		.cfi_restore 7
 1523              		.cfi_def_cfa_offset 0
 1524 001a 7047     		bx	lr
 1525              		.cfi_endproc
 1526              	.LFE30:
 1528              		.section	.rodata
 1529              		.align	2
 1530              	.LC9:
 1531 00b4 77726974 		.ascii	"write num19 object success\015\000"
 1531      65206E75 
 1531      6D313920 
 1531      6F626A65 
 1531      63742073 
 1532              		.section	.text.atiny_app_write,"ax",%progbits
 1533              		.align	1
 1534              		.global	atiny_app_write
 1535              		.syntax unified
 1536              		.thumb
 1537              		.thumb_func
 1538              		.fpu fpv4-sp-d16
 1540              	atiny_app_write:
 1541              	.LFB31:
ARM GAS  C:\Users\dtjld\AppData\Local\Temp\ccvmmsjH.s 			page 32


 253:C:/Users/dtjld/Desktop/AIoT_software/LiteOS_Lab_overseas/LiteOS_Lab/iot_link/oc/oc_lwm2m/atiny_lwm2m\agent_tiny_cmd_ioctl.c **** 
 254:C:/Users/dtjld/Desktop/AIoT_software/LiteOS_Lab_overseas/LiteOS_Lab/iot_link/oc/oc_lwm2m/atiny_lwm2m\agent_tiny_cmd_ioctl.c **** #include <oc_lwm2m_al.h>
 255:C:/Users/dtjld/Desktop/AIoT_software/LiteOS_Lab_overseas/LiteOS_Lab/iot_link/oc/oc_lwm2m/atiny_lwm2m\agent_tiny_cmd_ioctl.c **** extern int lwm2m_agent_receive(en_oc_lwm2m_msg_t type,char *msg, int len);
 256:C:/Users/dtjld/Desktop/AIoT_software/LiteOS_Lab_overseas/LiteOS_Lab/iot_link/oc/oc_lwm2m/atiny_lwm2m\agent_tiny_cmd_ioctl.c **** 
 257:C:/Users/dtjld/Desktop/AIoT_software/LiteOS_Lab_overseas/LiteOS_Lab/iot_link/oc/oc_lwm2m/atiny_lwm2m\agent_tiny_cmd_ioctl.c **** int atiny_app_write(void *msg, int len)
 258:C:/Users/dtjld/Desktop/AIoT_software/LiteOS_Lab_overseas/LiteOS_Lab/iot_link/oc/oc_lwm2m/atiny_lwm2m\agent_tiny_cmd_ioctl.c **** {
 1542              		.loc 1 258 0
 1543              		.cfi_startproc
 1544              		@ args = 0, pretend = 0, frame = 8
 1545              		@ frame_needed = 1, uses_anonymous_args = 0
 1546 0000 80B5     		push	{r7, lr}
 1547              	.LCFI142:
 1548              		.cfi_def_cfa_offset 8
 1549              		.cfi_offset 7, -8
 1550              		.cfi_offset 14, -4
 1551 0002 82B0     		sub	sp, sp, #8
 1552              	.LCFI143:
 1553              		.cfi_def_cfa_offset 16
 1554 0004 00AF     		add	r7, sp, #0
 1555              	.LCFI144:
 1556              		.cfi_def_cfa_register 7
 1557 0006 7860     		str	r0, [r7, #4]
 1558 0008 3960     		str	r1, [r7]
 259:C:/Users/dtjld/Desktop/AIoT_software/LiteOS_Lab_overseas/LiteOS_Lab/iot_link/oc/oc_lwm2m/atiny_lwm2m\agent_tiny_cmd_ioctl.c ****     (void)printf("write num19 object success\r\n");
 1559              		.loc 1 259 0
 1560 000a 0648     		ldr	r0, .L95
 1561 000c FFF7FEFF 		bl	puts
 260:C:/Users/dtjld/Desktop/AIoT_software/LiteOS_Lab_overseas/LiteOS_Lab/iot_link/oc/oc_lwm2m/atiny_lwm2m\agent_tiny_cmd_ioctl.c ****     lwm2m_agent_receive(EN_OC_LWM2M_MSG_APPWRITE,msg,len);
 1562              		.loc 1 260 0
 1563 0010 3A68     		ldr	r2, [r7]
 1564 0012 7968     		ldr	r1, [r7, #4]
 1565 0014 0020     		movs	r0, #0
 1566 0016 FFF7FEFF 		bl	lwm2m_agent_receive
 261:C:/Users/dtjld/Desktop/AIoT_software/LiteOS_Lab_overseas/LiteOS_Lab/iot_link/oc/oc_lwm2m/atiny_lwm2m\agent_tiny_cmd_ioctl.c ****     return ATINY_OK;
 1567              		.loc 1 261 0
 1568 001a 0023     		movs	r3, #0
 262:C:/Users/dtjld/Desktop/AIoT_software/LiteOS_Lab_overseas/LiteOS_Lab/iot_link/oc/oc_lwm2m/atiny_lwm2m\agent_tiny_cmd_ioctl.c **** }
 1569              		.loc 1 262 0
 1570 001c 1846     		mov	r0, r3
 1571 001e 0837     		adds	r7, r7, #8
 1572              	.LCFI145:
 1573              		.cfi_def_cfa_offset 8
 1574 0020 BD46     		mov	sp, r7
 1575              	.LCFI146:
 1576              		.cfi_def_cfa_register 13
 1577              		@ sp needed
 1578 0022 80BD     		pop	{r7, pc}
 1579              	.L96:
 1580              		.align	2
 1581              	.L95:
 1582 0024 B4000000 		.word	.LC9
 1583              		.cfi_endproc
 1584              	.LFE31:
 1586              		.section	.rodata
 1587              		.align	2
 1588              	.LC10:
 1589 00d0 45584355 		.ascii	"EXCUTE num19 object success\015\000"
ARM GAS  C:\Users\dtjld\AppData\Local\Temp\ccvmmsjH.s 			page 33


 1589      5445206E 
 1589      756D3139 
 1589      206F626A 
 1589      65637420 
 1590              		.section	.text.atiny_app_execute,"ax",%progbits
 1591              		.align	1
 1592              		.global	atiny_app_execute
 1593              		.syntax unified
 1594              		.thumb
 1595              		.thumb_func
 1596              		.fpu fpv4-sp-d16
 1598              	atiny_app_execute:
 1599              	.LFB32:
 263:C:/Users/dtjld/Desktop/AIoT_software/LiteOS_Lab_overseas/LiteOS_Lab/iot_link/oc/oc_lwm2m/atiny_lwm2m\agent_tiny_cmd_ioctl.c **** 
 264:C:/Users/dtjld/Desktop/AIoT_software/LiteOS_Lab_overseas/LiteOS_Lab/iot_link/oc/oc_lwm2m/atiny_lwm2m\agent_tiny_cmd_ioctl.c **** int atiny_app_execute(void *msg, int len)
 265:C:/Users/dtjld/Desktop/AIoT_software/LiteOS_Lab_overseas/LiteOS_Lab/iot_link/oc/oc_lwm2m/atiny_lwm2m\agent_tiny_cmd_ioctl.c **** {
 1600              		.loc 1 265 0
 1601              		.cfi_startproc
 1602              		@ args = 0, pretend = 0, frame = 8
 1603              		@ frame_needed = 1, uses_anonymous_args = 0
 1604 0000 80B5     		push	{r7, lr}
 1605              	.LCFI147:
 1606              		.cfi_def_cfa_offset 8
 1607              		.cfi_offset 7, -8
 1608              		.cfi_offset 14, -4
 1609 0002 82B0     		sub	sp, sp, #8
 1610              	.LCFI148:
 1611              		.cfi_def_cfa_offset 16
 1612 0004 00AF     		add	r7, sp, #0
 1613              	.LCFI149:
 1614              		.cfi_def_cfa_register 7
 1615 0006 7860     		str	r0, [r7, #4]
 1616 0008 3960     		str	r1, [r7]
 266:C:/Users/dtjld/Desktop/AIoT_software/LiteOS_Lab_overseas/LiteOS_Lab/iot_link/oc/oc_lwm2m/atiny_lwm2m\agent_tiny_cmd_ioctl.c ****     (void)printf("EXCUTE num19 object success\r\n");
 1617              		.loc 1 266 0
 1618 000a 0648     		ldr	r0, .L99
 1619 000c FFF7FEFF 		bl	puts
 267:C:/Users/dtjld/Desktop/AIoT_software/LiteOS_Lab_overseas/LiteOS_Lab/iot_link/oc/oc_lwm2m/atiny_lwm2m\agent_tiny_cmd_ioctl.c ****     lwm2m_agent_receive(EN_OC_LWM2M_MSG_APPEXECUTE,msg,len);
 1620              		.loc 1 267 0
 1621 0010 3A68     		ldr	r2, [r7]
 1622 0012 7968     		ldr	r1, [r7, #4]
 1623 0014 0220     		movs	r0, #2
 1624 0016 FFF7FEFF 		bl	lwm2m_agent_receive
 268:C:/Users/dtjld/Desktop/AIoT_software/LiteOS_Lab_overseas/LiteOS_Lab/iot_link/oc/oc_lwm2m/atiny_lwm2m\agent_tiny_cmd_ioctl.c ****     return ATINY_OK;
 1625              		.loc 1 268 0
 1626 001a 0023     		movs	r3, #0
 269:C:/Users/dtjld/Desktop/AIoT_software/LiteOS_Lab_overseas/LiteOS_Lab/iot_link/oc/oc_lwm2m/atiny_lwm2m\agent_tiny_cmd_ioctl.c **** }
 1627              		.loc 1 269 0
 1628 001c 1846     		mov	r0, r3
 1629 001e 0837     		adds	r7, r7, #8
 1630              	.LCFI150:
 1631              		.cfi_def_cfa_offset 8
 1632 0020 BD46     		mov	sp, r7
 1633              	.LCFI151:
 1634              		.cfi_def_cfa_register 13
 1635              		@ sp needed
 1636 0022 80BD     		pop	{r7, pc}
ARM GAS  C:\Users\dtjld\AppData\Local\Temp\ccvmmsjH.s 			page 34


 1637              	.L100:
 1638              		.align	2
 1639              	.L99:
 1640 0024 D0000000 		.word	.LC10
 1641              		.cfi_endproc
 1642              	.LFE32:
 1644              		.section	.rodata
 1645 00ed 000000   		.align	2
 1646              	.LC11:
 1647 00f0 53455256 		.ascii	"SERVER TRIGGERE BOOTSTRAP\015\000"
 1647      45522054 
 1647      52494747 
 1647      45524520 
 1647      424F4F54 
 1648              		.section	.text.atiny_server_bootrigger,"ax",%progbits
 1649              		.align	1
 1650              		.global	atiny_server_bootrigger
 1651              		.syntax unified
 1652              		.thumb
 1653              		.thumb_func
 1654              		.fpu fpv4-sp-d16
 1656              	atiny_server_bootrigger:
 1657              	.LFB33:
 270:C:/Users/dtjld/Desktop/AIoT_software/LiteOS_Lab_overseas/LiteOS_Lab/iot_link/oc/oc_lwm2m/atiny_lwm2m\agent_tiny_cmd_ioctl.c **** 
 271:C:/Users/dtjld/Desktop/AIoT_software/LiteOS_Lab_overseas/LiteOS_Lab/iot_link/oc/oc_lwm2m/atiny_lwm2m\agent_tiny_cmd_ioctl.c **** int atiny_server_bootrigger(void *msg, int len)
 272:C:/Users/dtjld/Desktop/AIoT_software/LiteOS_Lab_overseas/LiteOS_Lab/iot_link/oc/oc_lwm2m/atiny_lwm2m\agent_tiny_cmd_ioctl.c **** {
 1658              		.loc 1 272 0
 1659              		.cfi_startproc
 1660              		@ args = 0, pretend = 0, frame = 8
 1661              		@ frame_needed = 1, uses_anonymous_args = 0
 1662 0000 80B5     		push	{r7, lr}
 1663              	.LCFI152:
 1664              		.cfi_def_cfa_offset 8
 1665              		.cfi_offset 7, -8
 1666              		.cfi_offset 14, -4
 1667 0002 82B0     		sub	sp, sp, #8
 1668              	.LCFI153:
 1669              		.cfi_def_cfa_offset 16
 1670 0004 00AF     		add	r7, sp, #0
 1671              	.LCFI154:
 1672              		.cfi_def_cfa_register 7
 1673 0006 7860     		str	r0, [r7, #4]
 1674 0008 3960     		str	r1, [r7]
 273:C:/Users/dtjld/Desktop/AIoT_software/LiteOS_Lab_overseas/LiteOS_Lab/iot_link/oc/oc_lwm2m/atiny_lwm2m\agent_tiny_cmd_ioctl.c ****     (void)printf("SERVER TRIGGERE BOOTSTRAP\r\n");
 1675              		.loc 1 273 0
 1676 000a 0648     		ldr	r0, .L103
 1677 000c FFF7FEFF 		bl	puts
 274:C:/Users/dtjld/Desktop/AIoT_software/LiteOS_Lab_overseas/LiteOS_Lab/iot_link/oc/oc_lwm2m/atiny_lwm2m\agent_tiny_cmd_ioctl.c ****     lwm2m_agent_receive(EN_OC_LWM2M_MSG_SERVERREBS,msg,len);
 1678              		.loc 1 274 0
 1679 0010 3A68     		ldr	r2, [r7]
 1680 0012 7968     		ldr	r1, [r7, #4]
 1681 0014 0320     		movs	r0, #3
 1682 0016 FFF7FEFF 		bl	lwm2m_agent_receive
 275:C:/Users/dtjld/Desktop/AIoT_software/LiteOS_Lab_overseas/LiteOS_Lab/iot_link/oc/oc_lwm2m/atiny_lwm2m\agent_tiny_cmd_ioctl.c ****     return ATINY_OK;
 1683              		.loc 1 275 0
 1684 001a 0023     		movs	r3, #0
 276:C:/Users/dtjld/Desktop/AIoT_software/LiteOS_Lab_overseas/LiteOS_Lab/iot_link/oc/oc_lwm2m/atiny_lwm2m\agent_tiny_cmd_ioctl.c **** }
ARM GAS  C:\Users\dtjld\AppData\Local\Temp\ccvmmsjH.s 			page 35


 1685              		.loc 1 276 0
 1686 001c 1846     		mov	r0, r3
 1687 001e 0837     		adds	r7, r7, #8
 1688              	.LCFI155:
 1689              		.cfi_def_cfa_offset 8
 1690 0020 BD46     		mov	sp, r7
 1691              	.LCFI156:
 1692              		.cfi_def_cfa_register 13
 1693              		@ sp needed
 1694 0022 80BD     		pop	{r7, pc}
 1695              	.L104:
 1696              		.align	2
 1697              	.L103:
 1698 0024 F0000000 		.word	.LC11
 1699              		.cfi_endproc
 1700              	.LFE33:
 1702              		.section	.rodata
 1703 010b 00       		.align	2
 1704              	.LC12:
 1705 010c 75706461 		.ascii	"update psk success\015\000"
 1705      74652070 
 1705      736B2073 
 1705      75636365 
 1705      73730D00 
 1706              		.section	.text.atiny_update_psk,"ax",%progbits
 1707              		.align	1
 1708              		.global	atiny_update_psk
 1709              		.syntax unified
 1710              		.thumb
 1711              		.thumb_func
 1712              		.fpu fpv4-sp-d16
 1714              	atiny_update_psk:
 1715              	.LFB34:
 277:C:/Users/dtjld/Desktop/AIoT_software/LiteOS_Lab_overseas/LiteOS_Lab/iot_link/oc/oc_lwm2m/atiny_lwm2m\agent_tiny_cmd_ioctl.c **** 
 278:C:/Users/dtjld/Desktop/AIoT_software/LiteOS_Lab_overseas/LiteOS_Lab/iot_link/oc/oc_lwm2m/atiny_lwm2m\agent_tiny_cmd_ioctl.c **** int atiny_update_psk(char *psk_id, int len)
 279:C:/Users/dtjld/Desktop/AIoT_software/LiteOS_Lab_overseas/LiteOS_Lab/iot_link/oc/oc_lwm2m/atiny_lwm2m\agent_tiny_cmd_ioctl.c **** {
 1716              		.loc 1 279 0
 1717              		.cfi_startproc
 1718              		@ args = 0, pretend = 0, frame = 8
 1719              		@ frame_needed = 1, uses_anonymous_args = 0
 1720 0000 80B5     		push	{r7, lr}
 1721              	.LCFI157:
 1722              		.cfi_def_cfa_offset 8
 1723              		.cfi_offset 7, -8
 1724              		.cfi_offset 14, -4
 1725 0002 82B0     		sub	sp, sp, #8
 1726              	.LCFI158:
 1727              		.cfi_def_cfa_offset 16
 1728 0004 00AF     		add	r7, sp, #0
 1729              	.LCFI159:
 1730              		.cfi_def_cfa_register 7
 1731 0006 7860     		str	r0, [r7, #4]
 1732 0008 3960     		str	r1, [r7]
 280:C:/Users/dtjld/Desktop/AIoT_software/LiteOS_Lab_overseas/LiteOS_Lab/iot_link/oc/oc_lwm2m/atiny_lwm2m\agent_tiny_cmd_ioctl.c ****     //memcpy_s(g_psk_value,psk_id,len,16);
 281:C:/Users/dtjld/Desktop/AIoT_software/LiteOS_Lab_overseas/LiteOS_Lab/iot_link/oc/oc_lwm2m/atiny_lwm2m\agent_tiny_cmd_ioctl.c ****     (void)printf("update psk success\r\n");
 1733              		.loc 1 281 0
 1734 000a 0448     		ldr	r0, .L107
ARM GAS  C:\Users\dtjld\AppData\Local\Temp\ccvmmsjH.s 			page 36


 1735 000c FFF7FEFF 		bl	puts
 282:C:/Users/dtjld/Desktop/AIoT_software/LiteOS_Lab_overseas/LiteOS_Lab/iot_link/oc/oc_lwm2m/atiny_lwm2m\agent_tiny_cmd_ioctl.c ****     return ATINY_OK;
 1736              		.loc 1 282 0
 1737 0010 0023     		movs	r3, #0
 283:C:/Users/dtjld/Desktop/AIoT_software/LiteOS_Lab_overseas/LiteOS_Lab/iot_link/oc/oc_lwm2m/atiny_lwm2m\agent_tiny_cmd_ioctl.c **** }
 1738              		.loc 1 283 0
 1739 0012 1846     		mov	r0, r3
 1740 0014 0837     		adds	r7, r7, #8
 1741              	.LCFI160:
 1742              		.cfi_def_cfa_offset 8
 1743 0016 BD46     		mov	sp, r7
 1744              	.LCFI161:
 1745              		.cfi_def_cfa_register 13
 1746              		@ sp needed
 1747 0018 80BD     		pop	{r7, pc}
 1748              	.L108:
 1749 001a 00BF     		.align	2
 1750              	.L107:
 1751 001c 0C010000 		.word	.LC12
 1752              		.cfi_endproc
 1753              	.LFE34:
 1755              		.section	.text.atiny_get_latitude,"ax",%progbits
 1756              		.align	1
 1757              		.global	atiny_get_latitude
 1758              		.syntax unified
 1759              		.thumb
 1760              		.thumb_func
 1761              		.fpu fpv4-sp-d16
 1763              	atiny_get_latitude:
 1764              	.LFB35:
 284:C:/Users/dtjld/Desktop/AIoT_software/LiteOS_Lab_overseas/LiteOS_Lab/iot_link/oc/oc_lwm2m/atiny_lwm2m\agent_tiny_cmd_ioctl.c **** 
 285:C:/Users/dtjld/Desktop/AIoT_software/LiteOS_Lab_overseas/LiteOS_Lab/iot_link/oc/oc_lwm2m/atiny_lwm2m\agent_tiny_cmd_ioctl.c **** int atiny_get_latitude(float *latitude)
 286:C:/Users/dtjld/Desktop/AIoT_software/LiteOS_Lab_overseas/LiteOS_Lab/iot_link/oc/oc_lwm2m/atiny_lwm2m\agent_tiny_cmd_ioctl.c **** {
 1765              		.loc 1 286 0
 1766              		.cfi_startproc
 1767              		@ args = 0, pretend = 0, frame = 8
 1768              		@ frame_needed = 1, uses_anonymous_args = 0
 1769              		@ link register save eliminated.
 1770 0000 80B4     		push	{r7}
 1771              	.LCFI162:
 1772              		.cfi_def_cfa_offset 4
 1773              		.cfi_offset 7, -4
 1774 0002 83B0     		sub	sp, sp, #12
 1775              	.LCFI163:
 1776              		.cfi_def_cfa_offset 16
 1777 0004 00AF     		add	r7, sp, #0
 1778              	.LCFI164:
 1779              		.cfi_def_cfa_register 7
 1780 0006 7860     		str	r0, [r7, #4]
 287:C:/Users/dtjld/Desktop/AIoT_software/LiteOS_Lab_overseas/LiteOS_Lab/iot_link/oc/oc_lwm2m/atiny_lwm2m\agent_tiny_cmd_ioctl.c ****     *latitude = ATINY_LATITUDE;
 1781              		.loc 1 287 0
 1782 0008 7B68     		ldr	r3, [r7, #4]
 1783 000a 044A     		ldr	r2, .L111
 1784 000c 1A60     		str	r2, [r3]	@ float
 288:C:/Users/dtjld/Desktop/AIoT_software/LiteOS_Lab_overseas/LiteOS_Lab/iot_link/oc/oc_lwm2m/atiny_lwm2m\agent_tiny_cmd_ioctl.c ****     return ATINY_OK;
 1785              		.loc 1 288 0
 1786 000e 0023     		movs	r3, #0
ARM GAS  C:\Users\dtjld\AppData\Local\Temp\ccvmmsjH.s 			page 37


 289:C:/Users/dtjld/Desktop/AIoT_software/LiteOS_Lab_overseas/LiteOS_Lab/iot_link/oc/oc_lwm2m/atiny_lwm2m\agent_tiny_cmd_ioctl.c **** }
 1787              		.loc 1 289 0
 1788 0010 1846     		mov	r0, r3
 1789 0012 0C37     		adds	r7, r7, #12
 1790              	.LCFI165:
 1791              		.cfi_def_cfa_offset 4
 1792 0014 BD46     		mov	sp, r7
 1793              	.LCFI166:
 1794              		.cfi_def_cfa_register 13
 1795              		@ sp needed
 1796 0016 5DF8047B 		ldr	r7, [sp], #4
 1797              	.LCFI167:
 1798              		.cfi_restore 7
 1799              		.cfi_def_cfa_offset 0
 1800 001a 7047     		bx	lr
 1801              	.L112:
 1802              		.align	2
 1803              	.L111:
 1804 001c 76E3DF41 		.word	1105191798
 1805              		.cfi_endproc
 1806              	.LFE35:
 1808              		.section	.text.atiny_get_longitude,"ax",%progbits
 1809              		.align	1
 1810              		.global	atiny_get_longitude
 1811              		.syntax unified
 1812              		.thumb
 1813              		.thumb_func
 1814              		.fpu fpv4-sp-d16
 1816              	atiny_get_longitude:
 1817              	.LFB36:
 290:C:/Users/dtjld/Desktop/AIoT_software/LiteOS_Lab_overseas/LiteOS_Lab/iot_link/oc/oc_lwm2m/atiny_lwm2m\agent_tiny_cmd_ioctl.c **** 
 291:C:/Users/dtjld/Desktop/AIoT_software/LiteOS_Lab_overseas/LiteOS_Lab/iot_link/oc/oc_lwm2m/atiny_lwm2m\agent_tiny_cmd_ioctl.c **** int atiny_get_longitude(float *longitude)
 292:C:/Users/dtjld/Desktop/AIoT_software/LiteOS_Lab_overseas/LiteOS_Lab/iot_link/oc/oc_lwm2m/atiny_lwm2m\agent_tiny_cmd_ioctl.c **** {
 1818              		.loc 1 292 0
 1819              		.cfi_startproc
 1820              		@ args = 0, pretend = 0, frame = 8
 1821              		@ frame_needed = 1, uses_anonymous_args = 0
 1822              		@ link register save eliminated.
 1823 0000 80B4     		push	{r7}
 1824              	.LCFI168:
 1825              		.cfi_def_cfa_offset 4
 1826              		.cfi_offset 7, -4
 1827 0002 83B0     		sub	sp, sp, #12
 1828              	.LCFI169:
 1829              		.cfi_def_cfa_offset 16
 1830 0004 00AF     		add	r7, sp, #0
 1831              	.LCFI170:
 1832              		.cfi_def_cfa_register 7
 1833 0006 7860     		str	r0, [r7, #4]
 293:C:/Users/dtjld/Desktop/AIoT_software/LiteOS_Lab_overseas/LiteOS_Lab/iot_link/oc/oc_lwm2m/atiny_lwm2m\agent_tiny_cmd_ioctl.c ****     *longitude = ATINY_LONGITUDE;
 1834              		.loc 1 293 0
 1835 0008 7B68     		ldr	r3, [r7, #4]
 1836 000a 044A     		ldr	r2, .L115
 1837 000c 1A60     		str	r2, [r3]	@ float
 294:C:/Users/dtjld/Desktop/AIoT_software/LiteOS_Lab_overseas/LiteOS_Lab/iot_link/oc/oc_lwm2m/atiny_lwm2m\agent_tiny_cmd_ioctl.c ****     return ATINY_OK;
 1838              		.loc 1 294 0
 1839 000e 0023     		movs	r3, #0
ARM GAS  C:\Users\dtjld\AppData\Local\Temp\ccvmmsjH.s 			page 38


 295:C:/Users/dtjld/Desktop/AIoT_software/LiteOS_Lab_overseas/LiteOS_Lab/iot_link/oc/oc_lwm2m/atiny_lwm2m\agent_tiny_cmd_ioctl.c **** }
 1840              		.loc 1 295 0
 1841 0010 1846     		mov	r0, r3
 1842 0012 0C37     		adds	r7, r7, #12
 1843              	.LCFI171:
 1844              		.cfi_def_cfa_offset 4
 1845 0014 BD46     		mov	sp, r7
 1846              	.LCFI172:
 1847              		.cfi_def_cfa_register 13
 1848              		@ sp needed
 1849 0016 5DF8047B 		ldr	r7, [sp], #4
 1850              	.LCFI173:
 1851              		.cfi_restore 7
 1852              		.cfi_def_cfa_offset 0
 1853 001a 7047     		bx	lr
 1854              	.L116:
 1855              		.align	2
 1856              	.L115:
 1857 001c 62D8AD42 		.word	1118689378
 1858              		.cfi_endproc
 1859              	.LFE36:
 1861              		.section	.text.atiny_get_altitude,"ax",%progbits
 1862              		.align	1
 1863              		.global	atiny_get_altitude
 1864              		.syntax unified
 1865              		.thumb
 1866              		.thumb_func
 1867              		.fpu fpv4-sp-d16
 1869              	atiny_get_altitude:
 1870              	.LFB37:
 296:C:/Users/dtjld/Desktop/AIoT_software/LiteOS_Lab_overseas/LiteOS_Lab/iot_link/oc/oc_lwm2m/atiny_lwm2m\agent_tiny_cmd_ioctl.c **** 
 297:C:/Users/dtjld/Desktop/AIoT_software/LiteOS_Lab_overseas/LiteOS_Lab/iot_link/oc/oc_lwm2m/atiny_lwm2m\agent_tiny_cmd_ioctl.c **** int atiny_get_altitude(float *altitude)
 298:C:/Users/dtjld/Desktop/AIoT_software/LiteOS_Lab_overseas/LiteOS_Lab/iot_link/oc/oc_lwm2m/atiny_lwm2m\agent_tiny_cmd_ioctl.c **** {
 1871              		.loc 1 298 0
 1872              		.cfi_startproc
 1873              		@ args = 0, pretend = 0, frame = 8
 1874              		@ frame_needed = 1, uses_anonymous_args = 0
 1875              		@ link register save eliminated.
 1876 0000 80B4     		push	{r7}
 1877              	.LCFI174:
 1878              		.cfi_def_cfa_offset 4
 1879              		.cfi_offset 7, -4
 1880 0002 83B0     		sub	sp, sp, #12
 1881              	.LCFI175:
 1882              		.cfi_def_cfa_offset 16
 1883 0004 00AF     		add	r7, sp, #0
 1884              	.LCFI176:
 1885              		.cfi_def_cfa_register 7
 1886 0006 7860     		str	r0, [r7, #4]
 299:C:/Users/dtjld/Desktop/AIoT_software/LiteOS_Lab_overseas/LiteOS_Lab/iot_link/oc/oc_lwm2m/atiny_lwm2m\agent_tiny_cmd_ioctl.c ****     *altitude = ATINY_ALTITUDE;
 1887              		.loc 1 299 0
 1888 0008 7B68     		ldr	r3, [r7, #4]
 1889 000a 044A     		ldr	r2, .L119
 1890 000c 1A60     		str	r2, [r3]	@ float
 300:C:/Users/dtjld/Desktop/AIoT_software/LiteOS_Lab_overseas/LiteOS_Lab/iot_link/oc/oc_lwm2m/atiny_lwm2m\agent_tiny_cmd_ioctl.c ****     return ATINY_OK;
 1891              		.loc 1 300 0
 1892 000e 0023     		movs	r3, #0
ARM GAS  C:\Users\dtjld\AppData\Local\Temp\ccvmmsjH.s 			page 39


 301:C:/Users/dtjld/Desktop/AIoT_software/LiteOS_Lab_overseas/LiteOS_Lab/iot_link/oc/oc_lwm2m/atiny_lwm2m\agent_tiny_cmd_ioctl.c **** }
 1893              		.loc 1 301 0
 1894 0010 1846     		mov	r0, r3
 1895 0012 0C37     		adds	r7, r7, #12
 1896              	.LCFI177:
 1897              		.cfi_def_cfa_offset 4
 1898 0014 BD46     		mov	sp, r7
 1899              	.LCFI178:
 1900              		.cfi_def_cfa_register 13
 1901              		@ sp needed
 1902 0016 5DF8047B 		ldr	r7, [sp], #4
 1903              	.LCFI179:
 1904              		.cfi_restore 7
 1905              		.cfi_def_cfa_offset 0
 1906 001a 7047     		bx	lr
 1907              	.L120:
 1908              		.align	2
 1909              	.L119:
 1910 001c 00BC0446 		.word	1174715392
 1911              		.cfi_endproc
 1912              	.LFE37:
 1914              		.section	.text.atiny_get_radius,"ax",%progbits
 1915              		.align	1
 1916              		.global	atiny_get_radius
 1917              		.syntax unified
 1918              		.thumb
 1919              		.thumb_func
 1920              		.fpu fpv4-sp-d16
 1922              	atiny_get_radius:
 1923              	.LFB38:
 302:C:/Users/dtjld/Desktop/AIoT_software/LiteOS_Lab_overseas/LiteOS_Lab/iot_link/oc/oc_lwm2m/atiny_lwm2m\agent_tiny_cmd_ioctl.c **** 
 303:C:/Users/dtjld/Desktop/AIoT_software/LiteOS_Lab_overseas/LiteOS_Lab/iot_link/oc/oc_lwm2m/atiny_lwm2m\agent_tiny_cmd_ioctl.c **** int atiny_get_radius(float *radius)
 304:C:/Users/dtjld/Desktop/AIoT_software/LiteOS_Lab_overseas/LiteOS_Lab/iot_link/oc/oc_lwm2m/atiny_lwm2m\agent_tiny_cmd_ioctl.c **** {
 1924              		.loc 1 304 0
 1925              		.cfi_startproc
 1926              		@ args = 0, pretend = 0, frame = 8
 1927              		@ frame_needed = 1, uses_anonymous_args = 0
 1928              		@ link register save eliminated.
 1929 0000 80B4     		push	{r7}
 1930              	.LCFI180:
 1931              		.cfi_def_cfa_offset 4
 1932              		.cfi_offset 7, -4
 1933 0002 83B0     		sub	sp, sp, #12
 1934              	.LCFI181:
 1935              		.cfi_def_cfa_offset 16
 1936 0004 00AF     		add	r7, sp, #0
 1937              	.LCFI182:
 1938              		.cfi_def_cfa_register 7
 1939 0006 7860     		str	r0, [r7, #4]
 305:C:/Users/dtjld/Desktop/AIoT_software/LiteOS_Lab_overseas/LiteOS_Lab/iot_link/oc/oc_lwm2m/atiny_lwm2m\agent_tiny_cmd_ioctl.c ****     *radius = ATINY_RADIUS;
 1940              		.loc 1 305 0
 1941 0008 7B68     		ldr	r3, [r7, #4]
 1942 000a 4FF00002 		mov	r2, #0
 1943 000e 1A60     		str	r2, [r3]	@ float
 306:C:/Users/dtjld/Desktop/AIoT_software/LiteOS_Lab_overseas/LiteOS_Lab/iot_link/oc/oc_lwm2m/atiny_lwm2m\agent_tiny_cmd_ioctl.c ****     return ATINY_OK;
 1944              		.loc 1 306 0
 1945 0010 0023     		movs	r3, #0
ARM GAS  C:\Users\dtjld\AppData\Local\Temp\ccvmmsjH.s 			page 40


 307:C:/Users/dtjld/Desktop/AIoT_software/LiteOS_Lab_overseas/LiteOS_Lab/iot_link/oc/oc_lwm2m/atiny_lwm2m\agent_tiny_cmd_ioctl.c **** }
 1946              		.loc 1 307 0
 1947 0012 1846     		mov	r0, r3
 1948 0014 0C37     		adds	r7, r7, #12
 1949              	.LCFI183:
 1950              		.cfi_def_cfa_offset 4
 1951 0016 BD46     		mov	sp, r7
 1952              	.LCFI184:
 1953              		.cfi_def_cfa_register 13
 1954              		@ sp needed
 1955 0018 5DF8047B 		ldr	r7, [sp], #4
 1956              	.LCFI185:
 1957              		.cfi_restore 7
 1958              		.cfi_def_cfa_offset 0
 1959 001c 7047     		bx	lr
 1960              		.cfi_endproc
 1961              	.LFE38:
 1963              		.section	.text.atiny_get_speed,"ax",%progbits
 1964              		.align	1
 1965              		.global	atiny_get_speed
 1966              		.syntax unified
 1967              		.thumb
 1968              		.thumb_func
 1969              		.fpu fpv4-sp-d16
 1971              	atiny_get_speed:
 1972              	.LFB39:
 308:C:/Users/dtjld/Desktop/AIoT_software/LiteOS_Lab_overseas/LiteOS_Lab/iot_link/oc/oc_lwm2m/atiny_lwm2m\agent_tiny_cmd_ioctl.c **** 
 309:C:/Users/dtjld/Desktop/AIoT_software/LiteOS_Lab_overseas/LiteOS_Lab/iot_link/oc/oc_lwm2m/atiny_lwm2m\agent_tiny_cmd_ioctl.c **** int atiny_get_speed(float *speed)
 310:C:/Users/dtjld/Desktop/AIoT_software/LiteOS_Lab_overseas/LiteOS_Lab/iot_link/oc/oc_lwm2m/atiny_lwm2m\agent_tiny_cmd_ioctl.c **** {
 1973              		.loc 1 310 0
 1974              		.cfi_startproc
 1975              		@ args = 0, pretend = 0, frame = 8
 1976              		@ frame_needed = 1, uses_anonymous_args = 0
 1977              		@ link register save eliminated.
 1978 0000 80B4     		push	{r7}
 1979              	.LCFI186:
 1980              		.cfi_def_cfa_offset 4
 1981              		.cfi_offset 7, -4
 1982 0002 83B0     		sub	sp, sp, #12
 1983              	.LCFI187:
 1984              		.cfi_def_cfa_offset 16
 1985 0004 00AF     		add	r7, sp, #0
 1986              	.LCFI188:
 1987              		.cfi_def_cfa_register 7
 1988 0006 7860     		str	r0, [r7, #4]
 311:C:/Users/dtjld/Desktop/AIoT_software/LiteOS_Lab_overseas/LiteOS_Lab/iot_link/oc/oc_lwm2m/atiny_lwm2m\agent_tiny_cmd_ioctl.c ****     *speed = ATINY_SPEED;
 1989              		.loc 1 311 0
 1990 0008 7B68     		ldr	r3, [r7, #4]
 1991 000a 4FF00002 		mov	r2, #0
 1992 000e 1A60     		str	r2, [r3]	@ float
 312:C:/Users/dtjld/Desktop/AIoT_software/LiteOS_Lab_overseas/LiteOS_Lab/iot_link/oc/oc_lwm2m/atiny_lwm2m\agent_tiny_cmd_ioctl.c ****     return ATINY_OK;
 1993              		.loc 1 312 0
 1994 0010 0023     		movs	r3, #0
 313:C:/Users/dtjld/Desktop/AIoT_software/LiteOS_Lab_overseas/LiteOS_Lab/iot_link/oc/oc_lwm2m/atiny_lwm2m\agent_tiny_cmd_ioctl.c **** }
 1995              		.loc 1 313 0
 1996 0012 1846     		mov	r0, r3
 1997 0014 0C37     		adds	r7, r7, #12
ARM GAS  C:\Users\dtjld\AppData\Local\Temp\ccvmmsjH.s 			page 41


 1998              	.LCFI189:
 1999              		.cfi_def_cfa_offset 4
 2000 0016 BD46     		mov	sp, r7
 2001              	.LCFI190:
 2002              		.cfi_def_cfa_register 13
 2003              		@ sp needed
 2004 0018 5DF8047B 		ldr	r7, [sp], #4
 2005              	.LCFI191:
 2006              		.cfi_restore 7
 2007              		.cfi_def_cfa_offset 0
 2008 001c 7047     		bx	lr
 2009              		.cfi_endproc
 2010              	.LFE39:
 2012              		.global	__aeabi_uldivmod
 2013              		.section	.text.atiny_get_timestamp,"ax",%progbits
 2014              		.align	1
 2015              		.global	atiny_get_timestamp
 2016              		.syntax unified
 2017              		.thumb
 2018              		.thumb_func
 2019              		.fpu fpv4-sp-d16
 2021              	atiny_get_timestamp:
 2022              	.LFB40:
 314:C:/Users/dtjld/Desktop/AIoT_software/LiteOS_Lab_overseas/LiteOS_Lab/iot_link/oc/oc_lwm2m/atiny_lwm2m\agent_tiny_cmd_ioctl.c **** 
 315:C:/Users/dtjld/Desktop/AIoT_software/LiteOS_Lab_overseas/LiteOS_Lab/iot_link/oc/oc_lwm2m/atiny_lwm2m\agent_tiny_cmd_ioctl.c **** int atiny_get_timestamp(uint64_t *timestamp)
 316:C:/Users/dtjld/Desktop/AIoT_software/LiteOS_Lab_overseas/LiteOS_Lab/iot_link/oc/oc_lwm2m/atiny_lwm2m\agent_tiny_cmd_ioctl.c **** {
 2023              		.loc 1 316 0
 2024              		.cfi_startproc
 2025              		@ args = 0, pretend = 0, frame = 8
 2026              		@ frame_needed = 1, uses_anonymous_args = 0
 2027 0000 2DE99048 		push	{r4, r7, fp, lr}
 2028              	.LCFI192:
 2029              		.cfi_def_cfa_offset 16
 2030              		.cfi_offset 4, -16
 2031              		.cfi_offset 7, -12
 2032              		.cfi_offset 11, -8
 2033              		.cfi_offset 14, -4
 2034 0004 82B0     		sub	sp, sp, #8
 2035              	.LCFI193:
 2036              		.cfi_def_cfa_offset 24
 2037 0006 00AF     		add	r7, sp, #0
 2038              	.LCFI194:
 2039              		.cfi_def_cfa_register 7
 2040 0008 7860     		str	r0, [r7, #4]
 317:C:/Users/dtjld/Desktop/AIoT_software/LiteOS_Lab_overseas/LiteOS_Lab/iot_link/oc/oc_lwm2m/atiny_lwm2m\agent_tiny_cmd_ioctl.c ****     *timestamp = osal_sys_time() / 1000 + ATINY_TIME_CODE;
 2041              		.loc 1 317 0
 2042 000a FFF7FEFF 		bl	osal_sys_time
 2043 000e 4FF47A72 		mov	r2, #1000
 2044 0012 4FF00003 		mov	r3, #0
 2045 0016 FFF7FEFF 		bl	__aeabi_uldivmod
 2046              	.LVL2:
 2047 001a 0346     		mov	r3, r0
 2048 001c 0C46     		mov	r4, r1
 2049 001e 1946     		mov	r1, r3
 2050 0020 2246     		mov	r2, r4
 2051 0022 09A4     		adr	r4, .L127
 2052 0024 D4E90034 		ldrd	r3, [r4]
ARM GAS  C:\Users\dtjld\AppData\Local\Temp\ccvmmsjH.s 			page 42


 2053 0028 13EB010B 		adds	fp, r3, r1
 2054 002c 44EB020C 		adc	ip, r4, r2
 2055 0030 7A68     		ldr	r2, [r7, #4]
 2056 0032 C2E900BC 		strd	fp, [r2]
 318:C:/Users/dtjld/Desktop/AIoT_software/LiteOS_Lab_overseas/LiteOS_Lab/iot_link/oc/oc_lwm2m/atiny_lwm2m\agent_tiny_cmd_ioctl.c ****     return ATINY_OK;
 2057              		.loc 1 318 0
 2058 0036 0023     		movs	r3, #0
 319:C:/Users/dtjld/Desktop/AIoT_software/LiteOS_Lab_overseas/LiteOS_Lab/iot_link/oc/oc_lwm2m/atiny_lwm2m\agent_tiny_cmd_ioctl.c **** }
 2059              		.loc 1 319 0
 2060 0038 1846     		mov	r0, r3
 2061 003a 0837     		adds	r7, r7, #8
 2062              	.LCFI195:
 2063              		.cfi_def_cfa_offset 16
 2064 003c BD46     		mov	sp, r7
 2065              	.LCFI196:
 2066              		.cfi_def_cfa_register 13
 2067              		@ sp needed
 2068 003e BDE89088 		pop	{r4, r7, fp, pc}
 2069              	.L128:
 2070 0042 00BFAFF3 		.align	3
 2070      0080
 2071              	.L127:
 2072 0048 8F428251 		.word	1367491215
 2073 004c 00000000 		.word	0
 2074              		.cfi_endproc
 2075              	.LFE40:
 2077              		.section	.text.location_get_velocity,"ax",%progbits
 2078              		.align	1
 2079              		.global	location_get_velocity
 2080              		.syntax unified
 2081              		.thumb
 2082              		.thumb_func
 2083              		.fpu fpv4-sp-d16
 2085              	location_get_velocity:
 2086              	.LFB41:
 320:C:/Users/dtjld/Desktop/AIoT_software/LiteOS_Lab_overseas/LiteOS_Lab/iot_link/oc/oc_lwm2m/atiny_lwm2m\agent_tiny_cmd_ioctl.c **** 
 321:C:/Users/dtjld/Desktop/AIoT_software/LiteOS_Lab_overseas/LiteOS_Lab/iot_link/oc/oc_lwm2m/atiny_lwm2m\agent_tiny_cmd_ioctl.c **** //-----  3GPP TS 23.032 V11.0.0(2012-09) ---------
 322:C:/Users/dtjld/Desktop/AIoT_software/LiteOS_Lab_overseas/LiteOS_Lab/iot_link/oc/oc_lwm2m/atiny_lwm2m\agent_tiny_cmd_ioctl.c **** #define HORIZONTAL_VELOCITY                  0
 323:C:/Users/dtjld/Desktop/AIoT_software/LiteOS_Lab_overseas/LiteOS_Lab/iot_link/oc/oc_lwm2m/atiny_lwm2m\agent_tiny_cmd_ioctl.c **** #define HORIZONTAL_VELOCITY_VERTICAL         1
 324:C:/Users/dtjld/Desktop/AIoT_software/LiteOS_Lab_overseas/LiteOS_Lab/iot_link/oc/oc_lwm2m/atiny_lwm2m\agent_tiny_cmd_ioctl.c **** #define HORIZONTAL_VELOCITY_WITH_UNCERTAINTY 2
 325:C:/Users/dtjld/Desktop/AIoT_software/LiteOS_Lab_overseas/LiteOS_Lab/iot_link/oc/oc_lwm2m/atiny_lwm2m\agent_tiny_cmd_ioctl.c **** 
 326:C:/Users/dtjld/Desktop/AIoT_software/LiteOS_Lab_overseas/LiteOS_Lab/iot_link/oc/oc_lwm2m/atiny_lwm2m\agent_tiny_cmd_ioctl.c **** #define VELOCITY_OCTETS                      5
 327:C:/Users/dtjld/Desktop/AIoT_software/LiteOS_Lab_overseas/LiteOS_Lab/iot_link/oc/oc_lwm2m/atiny_lwm2m\agent_tiny_cmd_ioctl.c **** 
 328:C:/Users/dtjld/Desktop/AIoT_software/LiteOS_Lab_overseas/LiteOS_Lab/iot_link/oc/oc_lwm2m/atiny_lwm2m\agent_tiny_cmd_ioctl.c **** void location_get_velocity(atiny_velocity_s *velocity,
 329:C:/Users/dtjld/Desktop/AIoT_software/LiteOS_Lab_overseas/LiteOS_Lab/iot_link/oc/oc_lwm2m/atiny_lwm2m\agent_tiny_cmd_ioctl.c ****                            uint16_t bearing,
 330:C:/Users/dtjld/Desktop/AIoT_software/LiteOS_Lab_overseas/LiteOS_Lab/iot_link/oc/oc_lwm2m/atiny_lwm2m\agent_tiny_cmd_ioctl.c ****                            uint16_t horizontal_speed,
 331:C:/Users/dtjld/Desktop/AIoT_software/LiteOS_Lab_overseas/LiteOS_Lab/iot_link/oc/oc_lwm2m/atiny_lwm2m\agent_tiny_cmd_ioctl.c ****                            uint8_t speed_uncertainty)
 332:C:/Users/dtjld/Desktop/AIoT_software/LiteOS_Lab_overseas/LiteOS_Lab/iot_link/oc/oc_lwm2m/atiny_lwm2m\agent_tiny_cmd_ioctl.c **** {
 2087              		.loc 1 332 0
 2088              		.cfi_startproc
 2089              		@ args = 0, pretend = 0, frame = 32
 2090              		@ frame_needed = 1, uses_anonymous_args = 0
 2091 0000 80B5     		push	{r7, lr}
 2092              	.LCFI197:
 2093              		.cfi_def_cfa_offset 8
 2094              		.cfi_offset 7, -8
 2095              		.cfi_offset 14, -4
ARM GAS  C:\Users\dtjld\AppData\Local\Temp\ccvmmsjH.s 			page 43


 2096 0002 88B0     		sub	sp, sp, #32
 2097              	.LCFI198:
 2098              		.cfi_def_cfa_offset 40
 2099 0004 00AF     		add	r7, sp, #0
 2100              	.LCFI199:
 2101              		.cfi_def_cfa_register 7
 2102 0006 F860     		str	r0, [r7, #12]
 2103 0008 0846     		mov	r0, r1
 2104 000a 1146     		mov	r1, r2
 2105 000c 1A46     		mov	r2, r3
 2106 000e 0346     		mov	r3, r0	@ movhi
 2107 0010 7B81     		strh	r3, [r7, #10]	@ movhi
 2108 0012 0B46     		mov	r3, r1	@ movhi
 2109 0014 3B81     		strh	r3, [r7, #8]	@ movhi
 2110 0016 1346     		mov	r3, r2
 2111 0018 FB71     		strb	r3, [r7, #7]
 333:C:/Users/dtjld/Desktop/AIoT_software/LiteOS_Lab_overseas/LiteOS_Lab/iot_link/oc/oc_lwm2m/atiny_lwm2m\agent_tiny_cmd_ioctl.c ****     uint8_t tmp[VELOCITY_OCTETS];
 334:C:/Users/dtjld/Desktop/AIoT_software/LiteOS_Lab_overseas/LiteOS_Lab/iot_link/oc/oc_lwm2m/atiny_lwm2m\agent_tiny_cmd_ioctl.c ****     int copy_len;
 335:C:/Users/dtjld/Desktop/AIoT_software/LiteOS_Lab_overseas/LiteOS_Lab/iot_link/oc/oc_lwm2m/atiny_lwm2m\agent_tiny_cmd_ioctl.c **** 
 336:C:/Users/dtjld/Desktop/AIoT_software/LiteOS_Lab_overseas/LiteOS_Lab/iot_link/oc/oc_lwm2m/atiny_lwm2m\agent_tiny_cmd_ioctl.c ****     tmp[0] = HORIZONTAL_VELOCITY_WITH_UNCERTAINTY << 4;
 2112              		.loc 1 336 0
 2113 001a 2023     		movs	r3, #32
 2114 001c 3B75     		strb	r3, [r7, #20]
 337:C:/Users/dtjld/Desktop/AIoT_software/LiteOS_Lab_overseas/LiteOS_Lab/iot_link/oc/oc_lwm2m/atiny_lwm2m\agent_tiny_cmd_ioctl.c ****     tmp[0] |= (bearing & 0x100) >> 8;
 2115              		.loc 1 337 0
 2116 001e 3B7D     		ldrb	r3, [r7, #20]	@ zero_extendqisi2
 2117 0020 5AB2     		sxtb	r2, r3
 2118 0022 7B89     		ldrh	r3, [r7, #10]
 2119 0024 1B12     		asrs	r3, r3, #8
 2120 0026 5BB2     		sxtb	r3, r3
 2121 0028 03F00103 		and	r3, r3, #1
 2122 002c 5BB2     		sxtb	r3, r3
 2123 002e 1343     		orrs	r3, r3, r2
 2124 0030 5BB2     		sxtb	r3, r3
 2125 0032 DBB2     		uxtb	r3, r3
 2126 0034 3B75     		strb	r3, [r7, #20]
 338:C:/Users/dtjld/Desktop/AIoT_software/LiteOS_Lab_overseas/LiteOS_Lab/iot_link/oc/oc_lwm2m/atiny_lwm2m\agent_tiny_cmd_ioctl.c ****     tmp[1] = (bearing & 0xff);
 2127              		.loc 1 338 0
 2128 0036 7B89     		ldrh	r3, [r7, #10]	@ movhi
 2129 0038 DBB2     		uxtb	r3, r3
 2130 003a 7B75     		strb	r3, [r7, #21]
 339:C:/Users/dtjld/Desktop/AIoT_software/LiteOS_Lab_overseas/LiteOS_Lab/iot_link/oc/oc_lwm2m/atiny_lwm2m\agent_tiny_cmd_ioctl.c ****     tmp[2] = horizontal_speed >> 8;
 2131              		.loc 1 339 0
 2132 003c 3B89     		ldrh	r3, [r7, #8]
 2133 003e 1B0A     		lsrs	r3, r3, #8
 2134 0040 9BB2     		uxth	r3, r3
 2135 0042 DBB2     		uxtb	r3, r3
 2136 0044 BB75     		strb	r3, [r7, #22]
 340:C:/Users/dtjld/Desktop/AIoT_software/LiteOS_Lab_overseas/LiteOS_Lab/iot_link/oc/oc_lwm2m/atiny_lwm2m\agent_tiny_cmd_ioctl.c ****     tmp[3] = horizontal_speed & 0xff;
 2137              		.loc 1 340 0
 2138 0046 3B89     		ldrh	r3, [r7, #8]	@ movhi
 2139 0048 DBB2     		uxtb	r3, r3
 2140 004a FB75     		strb	r3, [r7, #23]
 341:C:/Users/dtjld/Desktop/AIoT_software/LiteOS_Lab_overseas/LiteOS_Lab/iot_link/oc/oc_lwm2m/atiny_lwm2m\agent_tiny_cmd_ioctl.c ****     tmp[4] = speed_uncertainty;
 2141              		.loc 1 341 0
 2142 004c FB79     		ldrb	r3, [r7, #7]
 2143 004e 3B76     		strb	r3, [r7, #24]
ARM GAS  C:\Users\dtjld\AppData\Local\Temp\ccvmmsjH.s 			page 44


 342:C:/Users/dtjld/Desktop/AIoT_software/LiteOS_Lab_overseas/LiteOS_Lab/iot_link/oc/oc_lwm2m/atiny_lwm2m\agent_tiny_cmd_ioctl.c **** 
 343:C:/Users/dtjld/Desktop/AIoT_software/LiteOS_Lab_overseas/LiteOS_Lab/iot_link/oc/oc_lwm2m/atiny_lwm2m\agent_tiny_cmd_ioctl.c ****     copy_len = MAX_VELOCITY_LEN > sizeof(tmp) ? sizeof(tmp) : MAX_VELOCITY_LEN;
 2144              		.loc 1 343 0
 2145 0050 0523     		movs	r3, #5
 2146 0052 FB61     		str	r3, [r7, #28]
 344:C:/Users/dtjld/Desktop/AIoT_software/LiteOS_Lab_overseas/LiteOS_Lab/iot_link/oc/oc_lwm2m/atiny_lwm2m\agent_tiny_cmd_ioctl.c ****     memcpy(velocity->opaque, tmp, copy_len);
 2147              		.loc 1 344 0
 2148 0054 FB68     		ldr	r3, [r7, #12]
 2149 0056 FA69     		ldr	r2, [r7, #28]
 2150 0058 07F11401 		add	r1, r7, #20
 2151 005c 1846     		mov	r0, r3
 2152 005e FFF7FEFF 		bl	memcpy
 345:C:/Users/dtjld/Desktop/AIoT_software/LiteOS_Lab_overseas/LiteOS_Lab/iot_link/oc/oc_lwm2m/atiny_lwm2m\agent_tiny_cmd_ioctl.c ****     velocity->length = copy_len;
 2153              		.loc 1 345 0
 2154 0062 FB68     		ldr	r3, [r7, #12]
 2155 0064 FA69     		ldr	r2, [r7, #28]
 2156 0066 1A61     		str	r2, [r3, #16]
 346:C:/Users/dtjld/Desktop/AIoT_software/LiteOS_Lab_overseas/LiteOS_Lab/iot_link/oc/oc_lwm2m/atiny_lwm2m\agent_tiny_cmd_ioctl.c **** }
 2157              		.loc 1 346 0
 2158 0068 00BF     		nop
 2159 006a 2037     		adds	r7, r7, #32
 2160              	.LCFI200:
 2161              		.cfi_def_cfa_offset 8
 2162 006c BD46     		mov	sp, r7
 2163              	.LCFI201:
 2164              		.cfi_def_cfa_register 13
 2165              		@ sp needed
 2166 006e 80BD     		pop	{r7, pc}
 2167              		.cfi_endproc
 2168              	.LFE41:
 2170              		.section	.text.atiny_get_velocity,"ax",%progbits
 2171              		.align	1
 2172              		.global	atiny_get_velocity
 2173              		.syntax unified
 2174              		.thumb
 2175              		.thumb_func
 2176              		.fpu fpv4-sp-d16
 2178              	atiny_get_velocity:
 2179              	.LFB42:
 347:C:/Users/dtjld/Desktop/AIoT_software/LiteOS_Lab_overseas/LiteOS_Lab/iot_link/oc/oc_lwm2m/atiny_lwm2m\agent_tiny_cmd_ioctl.c **** 
 348:C:/Users/dtjld/Desktop/AIoT_software/LiteOS_Lab_overseas/LiteOS_Lab/iot_link/oc/oc_lwm2m/atiny_lwm2m\agent_tiny_cmd_ioctl.c **** int atiny_get_velocity(atiny_velocity_s *velocity)
 349:C:/Users/dtjld/Desktop/AIoT_software/LiteOS_Lab_overseas/LiteOS_Lab/iot_link/oc/oc_lwm2m/atiny_lwm2m\agent_tiny_cmd_ioctl.c **** {
 2180              		.loc 1 349 0
 2181              		.cfi_startproc
 2182              		@ args = 0, pretend = 0, frame = 8
 2183              		@ frame_needed = 1, uses_anonymous_args = 0
 2184 0000 80B5     		push	{r7, lr}
 2185              	.LCFI202:
 2186              		.cfi_def_cfa_offset 8
 2187              		.cfi_offset 7, -8
 2188              		.cfi_offset 14, -4
 2189 0002 82B0     		sub	sp, sp, #8
 2190              	.LCFI203:
 2191              		.cfi_def_cfa_offset 16
 2192 0004 00AF     		add	r7, sp, #0
 2193              	.LCFI204:
 2194              		.cfi_def_cfa_register 7
ARM GAS  C:\Users\dtjld\AppData\Local\Temp\ccvmmsjH.s 			page 45


 2195 0006 7860     		str	r0, [r7, #4]
 350:C:/Users/dtjld/Desktop/AIoT_software/LiteOS_Lab_overseas/LiteOS_Lab/iot_link/oc/oc_lwm2m/atiny_lwm2m\agent_tiny_cmd_ioctl.c ****     location_get_velocity(velocity, 0, 0, 255);
 2196              		.loc 1 350 0
 2197 0008 FF23     		movs	r3, #255
 2198 000a 0022     		movs	r2, #0
 2199 000c 0021     		movs	r1, #0
 2200 000e 7868     		ldr	r0, [r7, #4]
 2201 0010 FFF7FEFF 		bl	location_get_velocity
 351:C:/Users/dtjld/Desktop/AIoT_software/LiteOS_Lab_overseas/LiteOS_Lab/iot_link/oc/oc_lwm2m/atiny_lwm2m\agent_tiny_cmd_ioctl.c ****     return ATINY_OK;
 2202              		.loc 1 351 0
 2203 0014 0023     		movs	r3, #0
 352:C:/Users/dtjld/Desktop/AIoT_software/LiteOS_Lab_overseas/LiteOS_Lab/iot_link/oc/oc_lwm2m/atiny_lwm2m\agent_tiny_cmd_ioctl.c **** }
 2204              		.loc 1 352 0
 2205 0016 1846     		mov	r0, r3
 2206 0018 0837     		adds	r7, r7, #8
 2207              	.LCFI205:
 2208              		.cfi_def_cfa_offset 8
 2209 001a BD46     		mov	sp, r7
 2210              	.LCFI206:
 2211              		.cfi_def_cfa_register 13
 2212              		@ sp needed
 2213 001c 80BD     		pop	{r7, pc}
 2214              		.cfi_endproc
 2215              	.LFE42:
 2217              		.section	.text.atiny_cmd_ioctl,"ax",%progbits
 2218              		.align	1
 2219              		.global	atiny_cmd_ioctl
 2220              		.syntax unified
 2221              		.thumb
 2222              		.thumb_func
 2223              		.fpu fpv4-sp-d16
 2225              	atiny_cmd_ioctl:
 2226              	.LFB43:
 353:C:/Users/dtjld/Desktop/AIoT_software/LiteOS_Lab_overseas/LiteOS_Lab/iot_link/oc/oc_lwm2m/atiny_lwm2m\agent_tiny_cmd_ioctl.c **** 
 354:C:/Users/dtjld/Desktop/AIoT_software/LiteOS_Lab_overseas/LiteOS_Lab/iot_link/oc/oc_lwm2m/atiny_lwm2m\agent_tiny_cmd_ioctl.c **** int atiny_cmd_ioctl(atiny_cmd_e cmd, char *arg, int len)
 355:C:/Users/dtjld/Desktop/AIoT_software/LiteOS_Lab_overseas/LiteOS_Lab/iot_link/oc/oc_lwm2m/atiny_lwm2m\agent_tiny_cmd_ioctl.c **** {
 2227              		.loc 1 355 0
 2228              		.cfi_startproc
 2229              		@ args = 0, pretend = 0, frame = 24
 2230              		@ frame_needed = 1, uses_anonymous_args = 0
 2231 0000 80B5     		push	{r7, lr}
 2232              	.LCFI207:
 2233              		.cfi_def_cfa_offset 8
 2234              		.cfi_offset 7, -8
 2235              		.cfi_offset 14, -4
 2236 0002 86B0     		sub	sp, sp, #24
 2237              	.LCFI208:
 2238              		.cfi_def_cfa_offset 32
 2239 0004 00AF     		add	r7, sp, #0
 2240              	.LCFI209:
 2241              		.cfi_def_cfa_register 7
 2242 0006 0346     		mov	r3, r0
 2243 0008 B960     		str	r1, [r7, #8]
 2244 000a 7A60     		str	r2, [r7, #4]
 2245 000c FB73     		strb	r3, [r7, #15]
 356:C:/Users/dtjld/Desktop/AIoT_software/LiteOS_Lab_overseas/LiteOS_Lab/iot_link/oc/oc_lwm2m/atiny_lwm2m\agent_tiny_cmd_ioctl.c ****     int result = ATINY_OK;
 2246              		.loc 1 356 0
ARM GAS  C:\Users\dtjld\AppData\Local\Temp\ccvmmsjH.s 			page 46


 2247 000e 0023     		movs	r3, #0
 2248 0010 7B61     		str	r3, [r7, #20]
 357:C:/Users/dtjld/Desktop/AIoT_software/LiteOS_Lab_overseas/LiteOS_Lab/iot_link/oc/oc_lwm2m/atiny_lwm2m\agent_tiny_cmd_ioctl.c ****     switch(cmd)
 2249              		.loc 1 357 0
 2250 0012 FB7B     		ldrb	r3, [r7, #15]	@ zero_extendqisi2
 2251 0014 252B     		cmp	r3, #37
 2252 0016 00F21381 		bhi	.L174
 2253 001a 01A2     		adr	r2, .L135
 2254 001c 52F823F0 		ldr	pc, [r2, r3, lsl #2]
 2255              		.p2align 2
 2256              	.L135:
 2257 0020 B9000000 		.word	.L134+1
 2258 0024 C5000000 		.word	.L136+1
 2259 0028 D1000000 		.word	.L137+1
 2260 002c DD000000 		.word	.L138+1
 2261 0030 E9000000 		.word	.L139+1
 2262 0034 F1000000 		.word	.L140+1
 2263 0038 F9000000 		.word	.L141+1
 2264 003c 03010000 		.word	.L142+1
 2265 0040 0D010000 		.word	.L143+1
 2266 0044 17010000 		.word	.L144+1
 2267 0048 21010000 		.word	.L145+1
 2268 004c 2B010000 		.word	.L146+1
 2269 0050 35010000 		.word	.L147+1
 2270 0054 3D010000 		.word	.L148+1
 2271 0058 47010000 		.word	.L149+1
 2272 005c 51010000 		.word	.L150+1
 2273 0060 5D010000 		.word	.L151+1
 2274 0064 69010000 		.word	.L152+1
 2275 0068 75010000 		.word	.L153+1
 2276 006c 81010000 		.word	.L154+1
 2277 0070 8D010000 		.word	.L155+1
 2278 0074 97010000 		.word	.L156+1
 2279 0078 A1010000 		.word	.L157+1
 2280 007c AB010000 		.word	.L158+1
 2281 0080 B5010000 		.word	.L159+1
 2282 0084 BF010000 		.word	.L160+1
 2283 0088 C9010000 		.word	.L161+1
 2284 008c D5010000 		.word	.L162+1
 2285 0090 E1010000 		.word	.L163+1
 2286 0094 ED010000 		.word	.L164+1
 2287 0098 F7010000 		.word	.L165+1
 2288 009c 01020000 		.word	.L166+1
 2289 00a0 0B020000 		.word	.L167+1
 2290 00a4 15020000 		.word	.L168+1
 2291 00a8 1F020000 		.word	.L169+1
 2292 00ac 29020000 		.word	.L170+1
 2293 00b0 41020000 		.word	.L174+1
 2294 00b4 33020000 		.word	.L171+1
 2295              		.p2align 1
 2296              	.L134:
 358:C:/Users/dtjld/Desktop/AIoT_software/LiteOS_Lab_overseas/LiteOS_Lab/iot_link/oc/oc_lwm2m/atiny_lwm2m\agent_tiny_cmd_ioctl.c ****     {
 359:C:/Users/dtjld/Desktop/AIoT_software/LiteOS_Lab_overseas/LiteOS_Lab/iot_link/oc/oc_lwm2m/atiny_lwm2m\agent_tiny_cmd_ioctl.c ****     case ATINY_GET_MANUFACTURER:
 360:C:/Users/dtjld/Desktop/AIoT_software/LiteOS_Lab_overseas/LiteOS_Lab/iot_link/oc/oc_lwm2m/atiny_lwm2m\agent_tiny_cmd_ioctl.c ****         result = atiny_get_manufacturer(arg, len);
 2297              		.loc 1 360 0
 2298 00b8 7968     		ldr	r1, [r7, #4]
 2299 00ba B868     		ldr	r0, [r7, #8]
ARM GAS  C:\Users\dtjld\AppData\Local\Temp\ccvmmsjH.s 			page 47


 2300 00bc FFF7FEFF 		bl	atiny_get_manufacturer
 2301 00c0 7861     		str	r0, [r7, #20]
 361:C:/Users/dtjld/Desktop/AIoT_software/LiteOS_Lab_overseas/LiteOS_Lab/iot_link/oc/oc_lwm2m/atiny_lwm2m\agent_tiny_cmd_ioctl.c ****         break;
 2302              		.loc 1 361 0
 2303 00c2 BEE0     		b	.L172
 2304              	.L136:
 362:C:/Users/dtjld/Desktop/AIoT_software/LiteOS_Lab_overseas/LiteOS_Lab/iot_link/oc/oc_lwm2m/atiny_lwm2m\agent_tiny_cmd_ioctl.c ****     case ATINY_GET_MODEL_NUMBER:
 363:C:/Users/dtjld/Desktop/AIoT_software/LiteOS_Lab_overseas/LiteOS_Lab/iot_link/oc/oc_lwm2m/atiny_lwm2m\agent_tiny_cmd_ioctl.c ****         result = atiny_get_model_number(arg, len);
 2305              		.loc 1 363 0
 2306 00c4 7968     		ldr	r1, [r7, #4]
 2307 00c6 B868     		ldr	r0, [r7, #8]
 2308 00c8 FFF7FEFF 		bl	atiny_get_model_number
 2309 00cc 7861     		str	r0, [r7, #20]
 364:C:/Users/dtjld/Desktop/AIoT_software/LiteOS_Lab_overseas/LiteOS_Lab/iot_link/oc/oc_lwm2m/atiny_lwm2m\agent_tiny_cmd_ioctl.c ****         break;
 2310              		.loc 1 364 0
 2311 00ce B8E0     		b	.L172
 2312              	.L137:
 365:C:/Users/dtjld/Desktop/AIoT_software/LiteOS_Lab_overseas/LiteOS_Lab/iot_link/oc/oc_lwm2m/atiny_lwm2m\agent_tiny_cmd_ioctl.c ****     case ATINY_GET_SERIAL_NUMBER:
 366:C:/Users/dtjld/Desktop/AIoT_software/LiteOS_Lab_overseas/LiteOS_Lab/iot_link/oc/oc_lwm2m/atiny_lwm2m\agent_tiny_cmd_ioctl.c ****         result = atiny_get_serial_number(arg, len);
 2313              		.loc 1 366 0
 2314 00d0 7968     		ldr	r1, [r7, #4]
 2315 00d2 B868     		ldr	r0, [r7, #8]
 2316 00d4 FFF7FEFF 		bl	atiny_get_serial_number
 2317 00d8 7861     		str	r0, [r7, #20]
 367:C:/Users/dtjld/Desktop/AIoT_software/LiteOS_Lab_overseas/LiteOS_Lab/iot_link/oc/oc_lwm2m/atiny_lwm2m\agent_tiny_cmd_ioctl.c ****         break;
 2318              		.loc 1 367 0
 2319 00da B2E0     		b	.L172
 2320              	.L138:
 368:C:/Users/dtjld/Desktop/AIoT_software/LiteOS_Lab_overseas/LiteOS_Lab/iot_link/oc/oc_lwm2m/atiny_lwm2m\agent_tiny_cmd_ioctl.c ****     case ATINY_GET_FIRMWARE_VER:
 369:C:/Users/dtjld/Desktop/AIoT_software/LiteOS_Lab_overseas/LiteOS_Lab/iot_link/oc/oc_lwm2m/atiny_lwm2m\agent_tiny_cmd_ioctl.c ****         result = atiny_get_firmware_ver(arg, len);
 2321              		.loc 1 369 0
 2322 00dc 7968     		ldr	r1, [r7, #4]
 2323 00de B868     		ldr	r0, [r7, #8]
 2324 00e0 FFF7FEFF 		bl	atiny_get_firmware_ver
 2325 00e4 7861     		str	r0, [r7, #20]
 370:C:/Users/dtjld/Desktop/AIoT_software/LiteOS_Lab_overseas/LiteOS_Lab/iot_link/oc/oc_lwm2m/atiny_lwm2m\agent_tiny_cmd_ioctl.c ****         break;
 2326              		.loc 1 370 0
 2327 00e6 ACE0     		b	.L172
 2328              	.L139:
 371:C:/Users/dtjld/Desktop/AIoT_software/LiteOS_Lab_overseas/LiteOS_Lab/iot_link/oc/oc_lwm2m/atiny_lwm2m\agent_tiny_cmd_ioctl.c ****     case ATINY_DO_DEV_REBOOT:
 372:C:/Users/dtjld/Desktop/AIoT_software/LiteOS_Lab_overseas/LiteOS_Lab/iot_link/oc/oc_lwm2m/atiny_lwm2m\agent_tiny_cmd_ioctl.c ****         result = atiny_do_dev_reboot();
 2329              		.loc 1 372 0
 2330 00e8 FFF7FEFF 		bl	atiny_do_dev_reboot
 2331 00ec 7861     		str	r0, [r7, #20]
 373:C:/Users/dtjld/Desktop/AIoT_software/LiteOS_Lab_overseas/LiteOS_Lab/iot_link/oc/oc_lwm2m/atiny_lwm2m\agent_tiny_cmd_ioctl.c ****         break;
 2332              		.loc 1 373 0
 2333 00ee A8E0     		b	.L172
 2334              	.L140:
 374:C:/Users/dtjld/Desktop/AIoT_software/LiteOS_Lab_overseas/LiteOS_Lab/iot_link/oc/oc_lwm2m/atiny_lwm2m\agent_tiny_cmd_ioctl.c ****     case ATINY_DO_FACTORY_RESET:
 375:C:/Users/dtjld/Desktop/AIoT_software/LiteOS_Lab_overseas/LiteOS_Lab/iot_link/oc/oc_lwm2m/atiny_lwm2m\agent_tiny_cmd_ioctl.c ****         result = atiny_do_factory_reset();
 2335              		.loc 1 375 0
 2336 00f0 FFF7FEFF 		bl	atiny_do_factory_reset
 2337 00f4 7861     		str	r0, [r7, #20]
 376:C:/Users/dtjld/Desktop/AIoT_software/LiteOS_Lab_overseas/LiteOS_Lab/iot_link/oc/oc_lwm2m/atiny_lwm2m\agent_tiny_cmd_ioctl.c ****         break;
 2338              		.loc 1 376 0
 2339 00f6 A4E0     		b	.L172
 2340              	.L141:
ARM GAS  C:\Users\dtjld\AppData\Local\Temp\ccvmmsjH.s 			page 48


 377:C:/Users/dtjld/Desktop/AIoT_software/LiteOS_Lab_overseas/LiteOS_Lab/iot_link/oc/oc_lwm2m/atiny_lwm2m\agent_tiny_cmd_ioctl.c ****     case ATINY_GET_POWER_SOURCE:
 378:C:/Users/dtjld/Desktop/AIoT_software/LiteOS_Lab_overseas/LiteOS_Lab/iot_link/oc/oc_lwm2m/atiny_lwm2m\agent_tiny_cmd_ioctl.c ****         result = atiny_get_power_source((int *)arg);
 2341              		.loc 1 378 0
 2342 00f8 B868     		ldr	r0, [r7, #8]
 2343 00fa FFF7FEFF 		bl	atiny_get_power_source
 2344 00fe 7861     		str	r0, [r7, #20]
 379:C:/Users/dtjld/Desktop/AIoT_software/LiteOS_Lab_overseas/LiteOS_Lab/iot_link/oc/oc_lwm2m/atiny_lwm2m\agent_tiny_cmd_ioctl.c ****         break;
 2345              		.loc 1 379 0
 2346 0100 9FE0     		b	.L172
 2347              	.L142:
 380:C:/Users/dtjld/Desktop/AIoT_software/LiteOS_Lab_overseas/LiteOS_Lab/iot_link/oc/oc_lwm2m/atiny_lwm2m\agent_tiny_cmd_ioctl.c ****     case ATINY_GET_SOURCE_VOLTAGE:
 381:C:/Users/dtjld/Desktop/AIoT_software/LiteOS_Lab_overseas/LiteOS_Lab/iot_link/oc/oc_lwm2m/atiny_lwm2m\agent_tiny_cmd_ioctl.c ****         result = atiny_get_source_voltage((int *)arg);
 2348              		.loc 1 381 0
 2349 0102 B868     		ldr	r0, [r7, #8]
 2350 0104 FFF7FEFF 		bl	atiny_get_source_voltage
 2351 0108 7861     		str	r0, [r7, #20]
 382:C:/Users/dtjld/Desktop/AIoT_software/LiteOS_Lab_overseas/LiteOS_Lab/iot_link/oc/oc_lwm2m/atiny_lwm2m\agent_tiny_cmd_ioctl.c ****         break;
 2352              		.loc 1 382 0
 2353 010a 9AE0     		b	.L172
 2354              	.L143:
 383:C:/Users/dtjld/Desktop/AIoT_software/LiteOS_Lab_overseas/LiteOS_Lab/iot_link/oc/oc_lwm2m/atiny_lwm2m\agent_tiny_cmd_ioctl.c ****     case ATINY_GET_POWER_CURRENT:
 384:C:/Users/dtjld/Desktop/AIoT_software/LiteOS_Lab_overseas/LiteOS_Lab/iot_link/oc/oc_lwm2m/atiny_lwm2m\agent_tiny_cmd_ioctl.c ****         result = atiny_get_power_current((int *)arg);
 2355              		.loc 1 384 0
 2356 010c B868     		ldr	r0, [r7, #8]
 2357 010e FFF7FEFF 		bl	atiny_get_power_current
 2358 0112 7861     		str	r0, [r7, #20]
 385:C:/Users/dtjld/Desktop/AIoT_software/LiteOS_Lab_overseas/LiteOS_Lab/iot_link/oc/oc_lwm2m/atiny_lwm2m\agent_tiny_cmd_ioctl.c ****         break;
 2359              		.loc 1 385 0
 2360 0114 95E0     		b	.L172
 2361              	.L144:
 386:C:/Users/dtjld/Desktop/AIoT_software/LiteOS_Lab_overseas/LiteOS_Lab/iot_link/oc/oc_lwm2m/atiny_lwm2m\agent_tiny_cmd_ioctl.c ****     case ATINY_GET_BATERRY_LEVEL:
 387:C:/Users/dtjld/Desktop/AIoT_software/LiteOS_Lab_overseas/LiteOS_Lab/iot_link/oc/oc_lwm2m/atiny_lwm2m\agent_tiny_cmd_ioctl.c ****         result = atiny_get_baterry_level((int *)arg);
 2362              		.loc 1 387 0
 2363 0116 B868     		ldr	r0, [r7, #8]
 2364 0118 FFF7FEFF 		bl	atiny_get_baterry_level
 2365 011c 7861     		str	r0, [r7, #20]
 388:C:/Users/dtjld/Desktop/AIoT_software/LiteOS_Lab_overseas/LiteOS_Lab/iot_link/oc/oc_lwm2m/atiny_lwm2m\agent_tiny_cmd_ioctl.c ****         break;
 2366              		.loc 1 388 0
 2367 011e 90E0     		b	.L172
 2368              	.L145:
 389:C:/Users/dtjld/Desktop/AIoT_software/LiteOS_Lab_overseas/LiteOS_Lab/iot_link/oc/oc_lwm2m/atiny_lwm2m\agent_tiny_cmd_ioctl.c ****     case ATINY_GET_MEMORY_FREE:
 390:C:/Users/dtjld/Desktop/AIoT_software/LiteOS_Lab_overseas/LiteOS_Lab/iot_link/oc/oc_lwm2m/atiny_lwm2m\agent_tiny_cmd_ioctl.c ****         result = atiny_get_memory_free((int *)arg);
 2369              		.loc 1 390 0
 2370 0120 B868     		ldr	r0, [r7, #8]
 2371 0122 FFF7FEFF 		bl	atiny_get_memory_free
 2372 0126 7861     		str	r0, [r7, #20]
 391:C:/Users/dtjld/Desktop/AIoT_software/LiteOS_Lab_overseas/LiteOS_Lab/iot_link/oc/oc_lwm2m/atiny_lwm2m\agent_tiny_cmd_ioctl.c ****         break;
 2373              		.loc 1 391 0
 2374 0128 8BE0     		b	.L172
 2375              	.L146:
 392:C:/Users/dtjld/Desktop/AIoT_software/LiteOS_Lab_overseas/LiteOS_Lab/iot_link/oc/oc_lwm2m/atiny_lwm2m\agent_tiny_cmd_ioctl.c ****     case ATINY_GET_DEV_ERR:
 393:C:/Users/dtjld/Desktop/AIoT_software/LiteOS_Lab_overseas/LiteOS_Lab/iot_link/oc/oc_lwm2m/atiny_lwm2m\agent_tiny_cmd_ioctl.c ****         result = atiny_get_dev_err((int *)arg);
 2376              		.loc 1 393 0
 2377 012a B868     		ldr	r0, [r7, #8]
 2378 012c FFF7FEFF 		bl	atiny_get_dev_err
 2379 0130 7861     		str	r0, [r7, #20]
 394:C:/Users/dtjld/Desktop/AIoT_software/LiteOS_Lab_overseas/LiteOS_Lab/iot_link/oc/oc_lwm2m/atiny_lwm2m\agent_tiny_cmd_ioctl.c ****         break;
ARM GAS  C:\Users\dtjld\AppData\Local\Temp\ccvmmsjH.s 			page 49


 2380              		.loc 1 394 0
 2381 0132 86E0     		b	.L172
 2382              	.L147:
 395:C:/Users/dtjld/Desktop/AIoT_software/LiteOS_Lab_overseas/LiteOS_Lab/iot_link/oc/oc_lwm2m/atiny_lwm2m\agent_tiny_cmd_ioctl.c ****     case ATINY_DO_RESET_DEV_ERR:
 396:C:/Users/dtjld/Desktop/AIoT_software/LiteOS_Lab_overseas/LiteOS_Lab/iot_link/oc/oc_lwm2m/atiny_lwm2m\agent_tiny_cmd_ioctl.c ****         result = atiny_do_reset_dev_err();
 2383              		.loc 1 396 0
 2384 0134 FFF7FEFF 		bl	atiny_do_reset_dev_err
 2385 0138 7861     		str	r0, [r7, #20]
 397:C:/Users/dtjld/Desktop/AIoT_software/LiteOS_Lab_overseas/LiteOS_Lab/iot_link/oc/oc_lwm2m/atiny_lwm2m\agent_tiny_cmd_ioctl.c ****         break;
 2386              		.loc 1 397 0
 2387 013a 82E0     		b	.L172
 2388              	.L148:
 398:C:/Users/dtjld/Desktop/AIoT_software/LiteOS_Lab_overseas/LiteOS_Lab/iot_link/oc/oc_lwm2m/atiny_lwm2m\agent_tiny_cmd_ioctl.c ****     case ATINY_GET_CURRENT_TIME:
 399:C:/Users/dtjld/Desktop/AIoT_software/LiteOS_Lab_overseas/LiteOS_Lab/iot_link/oc/oc_lwm2m/atiny_lwm2m\agent_tiny_cmd_ioctl.c ****         result = atiny_get_current_time((int64_t *)arg);
 2389              		.loc 1 399 0
 2390 013c B868     		ldr	r0, [r7, #8]
 2391 013e FFF7FEFF 		bl	atiny_get_current_time
 2392 0142 7861     		str	r0, [r7, #20]
 400:C:/Users/dtjld/Desktop/AIoT_software/LiteOS_Lab_overseas/LiteOS_Lab/iot_link/oc/oc_lwm2m/atiny_lwm2m\agent_tiny_cmd_ioctl.c ****         break;
 2393              		.loc 1 400 0
 2394 0144 7DE0     		b	.L172
 2395              	.L149:
 401:C:/Users/dtjld/Desktop/AIoT_software/LiteOS_Lab_overseas/LiteOS_Lab/iot_link/oc/oc_lwm2m/atiny_lwm2m\agent_tiny_cmd_ioctl.c ****     case ATINY_SET_CURRENT_TIME:
 402:C:/Users/dtjld/Desktop/AIoT_software/LiteOS_Lab_overseas/LiteOS_Lab/iot_link/oc/oc_lwm2m/atiny_lwm2m\agent_tiny_cmd_ioctl.c ****         result = atiny_set_current_time((const int64_t *)arg);
 2396              		.loc 1 402 0
 2397 0146 B868     		ldr	r0, [r7, #8]
 2398 0148 FFF7FEFF 		bl	atiny_set_current_time
 2399 014c 7861     		str	r0, [r7, #20]
 403:C:/Users/dtjld/Desktop/AIoT_software/LiteOS_Lab_overseas/LiteOS_Lab/iot_link/oc/oc_lwm2m/atiny_lwm2m\agent_tiny_cmd_ioctl.c ****         break;
 2400              		.loc 1 403 0
 2401 014e 78E0     		b	.L172
 2402              	.L150:
 404:C:/Users/dtjld/Desktop/AIoT_software/LiteOS_Lab_overseas/LiteOS_Lab/iot_link/oc/oc_lwm2m/atiny_lwm2m\agent_tiny_cmd_ioctl.c ****     case ATINY_GET_UTC_OFFSET:
 405:C:/Users/dtjld/Desktop/AIoT_software/LiteOS_Lab_overseas/LiteOS_Lab/iot_link/oc/oc_lwm2m/atiny_lwm2m\agent_tiny_cmd_ioctl.c ****         result = atiny_get_UTC_offset(arg, len);
 2403              		.loc 1 405 0
 2404 0150 7968     		ldr	r1, [r7, #4]
 2405 0152 B868     		ldr	r0, [r7, #8]
 2406 0154 FFF7FEFF 		bl	atiny_get_UTC_offset
 2407 0158 7861     		str	r0, [r7, #20]
 406:C:/Users/dtjld/Desktop/AIoT_software/LiteOS_Lab_overseas/LiteOS_Lab/iot_link/oc/oc_lwm2m/atiny_lwm2m\agent_tiny_cmd_ioctl.c ****         break;
 2408              		.loc 1 406 0
 2409 015a 72E0     		b	.L172
 2410              	.L151:
 407:C:/Users/dtjld/Desktop/AIoT_software/LiteOS_Lab_overseas/LiteOS_Lab/iot_link/oc/oc_lwm2m/atiny_lwm2m\agent_tiny_cmd_ioctl.c ****     case ATINY_SET_UTC_OFFSET:
 408:C:/Users/dtjld/Desktop/AIoT_software/LiteOS_Lab_overseas/LiteOS_Lab/iot_link/oc/oc_lwm2m/atiny_lwm2m\agent_tiny_cmd_ioctl.c ****         result = atiny_set_UTC_offset(arg, len);
 2411              		.loc 1 408 0
 2412 015c 7968     		ldr	r1, [r7, #4]
 2413 015e B868     		ldr	r0, [r7, #8]
 2414 0160 FFF7FEFF 		bl	atiny_set_UTC_offset
 2415 0164 7861     		str	r0, [r7, #20]
 409:C:/Users/dtjld/Desktop/AIoT_software/LiteOS_Lab_overseas/LiteOS_Lab/iot_link/oc/oc_lwm2m/atiny_lwm2m\agent_tiny_cmd_ioctl.c ****         break;
 2416              		.loc 1 409 0
 2417 0166 6CE0     		b	.L172
 2418              	.L152:
 410:C:/Users/dtjld/Desktop/AIoT_software/LiteOS_Lab_overseas/LiteOS_Lab/iot_link/oc/oc_lwm2m/atiny_lwm2m\agent_tiny_cmd_ioctl.c ****     case ATINY_GET_TIMEZONE:
 411:C:/Users/dtjld/Desktop/AIoT_software/LiteOS_Lab_overseas/LiteOS_Lab/iot_link/oc/oc_lwm2m/atiny_lwm2m\agent_tiny_cmd_ioctl.c ****         result = atiny_get_timezone(arg, len);
 2419              		.loc 1 411 0
ARM GAS  C:\Users\dtjld\AppData\Local\Temp\ccvmmsjH.s 			page 50


 2420 0168 7968     		ldr	r1, [r7, #4]
 2421 016a B868     		ldr	r0, [r7, #8]
 2422 016c FFF7FEFF 		bl	atiny_get_timezone
 2423 0170 7861     		str	r0, [r7, #20]
 412:C:/Users/dtjld/Desktop/AIoT_software/LiteOS_Lab_overseas/LiteOS_Lab/iot_link/oc/oc_lwm2m/atiny_lwm2m\agent_tiny_cmd_ioctl.c ****         break;
 2424              		.loc 1 412 0
 2425 0172 66E0     		b	.L172
 2426              	.L153:
 413:C:/Users/dtjld/Desktop/AIoT_software/LiteOS_Lab_overseas/LiteOS_Lab/iot_link/oc/oc_lwm2m/atiny_lwm2m\agent_tiny_cmd_ioctl.c ****     case ATINY_SET_TIMEZONE:
 414:C:/Users/dtjld/Desktop/AIoT_software/LiteOS_Lab_overseas/LiteOS_Lab/iot_link/oc/oc_lwm2m/atiny_lwm2m\agent_tiny_cmd_ioctl.c ****         result = atiny_set_timezone(arg, len);
 2427              		.loc 1 414 0
 2428 0174 7968     		ldr	r1, [r7, #4]
 2429 0176 B868     		ldr	r0, [r7, #8]
 2430 0178 FFF7FEFF 		bl	atiny_set_timezone
 2431 017c 7861     		str	r0, [r7, #20]
 415:C:/Users/dtjld/Desktop/AIoT_software/LiteOS_Lab_overseas/LiteOS_Lab/iot_link/oc/oc_lwm2m/atiny_lwm2m\agent_tiny_cmd_ioctl.c ****         break;
 2432              		.loc 1 415 0
 2433 017e 60E0     		b	.L172
 2434              	.L154:
 416:C:/Users/dtjld/Desktop/AIoT_software/LiteOS_Lab_overseas/LiteOS_Lab/iot_link/oc/oc_lwm2m/atiny_lwm2m\agent_tiny_cmd_ioctl.c ****     case ATINY_GET_BINDING_MODES:
 417:C:/Users/dtjld/Desktop/AIoT_software/LiteOS_Lab_overseas/LiteOS_Lab/iot_link/oc/oc_lwm2m/atiny_lwm2m\agent_tiny_cmd_ioctl.c ****         result = atiny_get_bind_mode(arg, len);
 2435              		.loc 1 417 0
 2436 0180 7968     		ldr	r1, [r7, #4]
 2437 0182 B868     		ldr	r0, [r7, #8]
 2438 0184 FFF7FEFF 		bl	atiny_get_bind_mode
 2439 0188 7861     		str	r0, [r7, #20]
 418:C:/Users/dtjld/Desktop/AIoT_software/LiteOS_Lab_overseas/LiteOS_Lab/iot_link/oc/oc_lwm2m/atiny_lwm2m\agent_tiny_cmd_ioctl.c ****         break;
 2440              		.loc 1 418 0
 2441 018a 5AE0     		b	.L172
 2442              	.L155:
 419:C:/Users/dtjld/Desktop/AIoT_software/LiteOS_Lab_overseas/LiteOS_Lab/iot_link/oc/oc_lwm2m/atiny_lwm2m\agent_tiny_cmd_ioctl.c ****     case ATINY_GET_FIRMWARE_STATE:
 420:C:/Users/dtjld/Desktop/AIoT_software/LiteOS_Lab_overseas/LiteOS_Lab/iot_link/oc/oc_lwm2m/atiny_lwm2m\agent_tiny_cmd_ioctl.c ****         result = atiny_get_firmware_state((int *)arg);
 2443              		.loc 1 420 0
 2444 018c B868     		ldr	r0, [r7, #8]
 2445 018e FFF7FEFF 		bl	atiny_get_firmware_state
 2446 0192 7861     		str	r0, [r7, #20]
 421:C:/Users/dtjld/Desktop/AIoT_software/LiteOS_Lab_overseas/LiteOS_Lab/iot_link/oc/oc_lwm2m/atiny_lwm2m\agent_tiny_cmd_ioctl.c ****         break;
 2447              		.loc 1 421 0
 2448 0194 55E0     		b	.L172
 2449              	.L156:
 422:C:/Users/dtjld/Desktop/AIoT_software/LiteOS_Lab_overseas/LiteOS_Lab/iot_link/oc/oc_lwm2m/atiny_lwm2m\agent_tiny_cmd_ioctl.c ****     case ATINY_GET_NETWORK_BEARER:
 423:C:/Users/dtjld/Desktop/AIoT_software/LiteOS_Lab_overseas/LiteOS_Lab/iot_link/oc/oc_lwm2m/atiny_lwm2m\agent_tiny_cmd_ioctl.c ****         result = atiny_get_network_bearer((int *)arg);
 2450              		.loc 1 423 0
 2451 0196 B868     		ldr	r0, [r7, #8]
 2452 0198 FFF7FEFF 		bl	atiny_get_network_bearer
 2453 019c 7861     		str	r0, [r7, #20]
 424:C:/Users/dtjld/Desktop/AIoT_software/LiteOS_Lab_overseas/LiteOS_Lab/iot_link/oc/oc_lwm2m/atiny_lwm2m\agent_tiny_cmd_ioctl.c ****         break;
 2454              		.loc 1 424 0
 2455 019e 50E0     		b	.L172
 2456              	.L157:
 425:C:/Users/dtjld/Desktop/AIoT_software/LiteOS_Lab_overseas/LiteOS_Lab/iot_link/oc/oc_lwm2m/atiny_lwm2m\agent_tiny_cmd_ioctl.c ****     case ATINY_GET_SIGNAL_STRENGTH:
 426:C:/Users/dtjld/Desktop/AIoT_software/LiteOS_Lab_overseas/LiteOS_Lab/iot_link/oc/oc_lwm2m/atiny_lwm2m\agent_tiny_cmd_ioctl.c ****         result = atiny_get_signal_strength((int *)arg);
 2457              		.loc 1 426 0
 2458 01a0 B868     		ldr	r0, [r7, #8]
 2459 01a2 FFF7FEFF 		bl	atiny_get_signal_strength
 2460 01a6 7861     		str	r0, [r7, #20]
 427:C:/Users/dtjld/Desktop/AIoT_software/LiteOS_Lab_overseas/LiteOS_Lab/iot_link/oc/oc_lwm2m/atiny_lwm2m\agent_tiny_cmd_ioctl.c ****         break;
ARM GAS  C:\Users\dtjld\AppData\Local\Temp\ccvmmsjH.s 			page 51


 2461              		.loc 1 427 0
 2462 01a8 4BE0     		b	.L172
 2463              	.L158:
 428:C:/Users/dtjld/Desktop/AIoT_software/LiteOS_Lab_overseas/LiteOS_Lab/iot_link/oc/oc_lwm2m/atiny_lwm2m\agent_tiny_cmd_ioctl.c ****     case ATINY_GET_CELL_ID:
 429:C:/Users/dtjld/Desktop/AIoT_software/LiteOS_Lab_overseas/LiteOS_Lab/iot_link/oc/oc_lwm2m/atiny_lwm2m\agent_tiny_cmd_ioctl.c ****         result = atiny_get_cell_id((long *)arg);
 2464              		.loc 1 429 0
 2465 01aa B868     		ldr	r0, [r7, #8]
 2466 01ac FFF7FEFF 		bl	atiny_get_cell_id
 2467 01b0 7861     		str	r0, [r7, #20]
 430:C:/Users/dtjld/Desktop/AIoT_software/LiteOS_Lab_overseas/LiteOS_Lab/iot_link/oc/oc_lwm2m/atiny_lwm2m\agent_tiny_cmd_ioctl.c ****         break;
 2468              		.loc 1 430 0
 2469 01b2 46E0     		b	.L172
 2470              	.L159:
 431:C:/Users/dtjld/Desktop/AIoT_software/LiteOS_Lab_overseas/LiteOS_Lab/iot_link/oc/oc_lwm2m/atiny_lwm2m\agent_tiny_cmd_ioctl.c ****     case ATINY_GET_LINK_QUALITY:
 432:C:/Users/dtjld/Desktop/AIoT_software/LiteOS_Lab_overseas/LiteOS_Lab/iot_link/oc/oc_lwm2m/atiny_lwm2m\agent_tiny_cmd_ioctl.c ****         result = atiny_get_link_quality((int *)arg);
 2471              		.loc 1 432 0
 2472 01b4 B868     		ldr	r0, [r7, #8]
 2473 01b6 FFF7FEFF 		bl	atiny_get_link_quality
 2474 01ba 7861     		str	r0, [r7, #20]
 433:C:/Users/dtjld/Desktop/AIoT_software/LiteOS_Lab_overseas/LiteOS_Lab/iot_link/oc/oc_lwm2m/atiny_lwm2m\agent_tiny_cmd_ioctl.c ****         break;
 2475              		.loc 1 433 0
 2476 01bc 41E0     		b	.L172
 2477              	.L160:
 434:C:/Users/dtjld/Desktop/AIoT_software/LiteOS_Lab_overseas/LiteOS_Lab/iot_link/oc/oc_lwm2m/atiny_lwm2m\agent_tiny_cmd_ioctl.c ****     case ATINY_GET_LINK_UTILIZATION:
 435:C:/Users/dtjld/Desktop/AIoT_software/LiteOS_Lab_overseas/LiteOS_Lab/iot_link/oc/oc_lwm2m/atiny_lwm2m\agent_tiny_cmd_ioctl.c ****         result = atiny_get_link_utilization((int *)arg);
 2478              		.loc 1 435 0
 2479 01be B868     		ldr	r0, [r7, #8]
 2480 01c0 FFF7FEFF 		bl	atiny_get_link_utilization
 2481 01c4 7861     		str	r0, [r7, #20]
 436:C:/Users/dtjld/Desktop/AIoT_software/LiteOS_Lab_overseas/LiteOS_Lab/iot_link/oc/oc_lwm2m/atiny_lwm2m\agent_tiny_cmd_ioctl.c ****         break;
 2482              		.loc 1 436 0
 2483 01c6 3CE0     		b	.L172
 2484              	.L161:
 437:C:/Users/dtjld/Desktop/AIoT_software/LiteOS_Lab_overseas/LiteOS_Lab/iot_link/oc/oc_lwm2m/atiny_lwm2m\agent_tiny_cmd_ioctl.c ****     case ATINY_WRITE_APP_DATA:
 438:C:/Users/dtjld/Desktop/AIoT_software/LiteOS_Lab_overseas/LiteOS_Lab/iot_link/oc/oc_lwm2m/atiny_lwm2m\agent_tiny_cmd_ioctl.c ****         result = atiny_app_write((int *)arg, len);
 2485              		.loc 1 438 0
 2486 01c8 7968     		ldr	r1, [r7, #4]
 2487 01ca B868     		ldr	r0, [r7, #8]
 2488 01cc FFF7FEFF 		bl	atiny_app_write
 2489 01d0 7861     		str	r0, [r7, #20]
 439:C:/Users/dtjld/Desktop/AIoT_software/LiteOS_Lab_overseas/LiteOS_Lab/iot_link/oc/oc_lwm2m/atiny_lwm2m\agent_tiny_cmd_ioctl.c ****         break;
 2490              		.loc 1 439 0
 2491 01d2 36E0     		b	.L172
 2492              	.L162:
 440:C:/Users/dtjld/Desktop/AIoT_software/LiteOS_Lab_overseas/LiteOS_Lab/iot_link/oc/oc_lwm2m/atiny_lwm2m\agent_tiny_cmd_ioctl.c ****     case ATINY_EXECUTE_APP_DATA:
 441:C:/Users/dtjld/Desktop/AIoT_software/LiteOS_Lab_overseas/LiteOS_Lab/iot_link/oc/oc_lwm2m/atiny_lwm2m\agent_tiny_cmd_ioctl.c ****         result = atiny_app_execute((int *)arg, len);
 2493              		.loc 1 441 0
 2494 01d4 7968     		ldr	r1, [r7, #4]
 2495 01d6 B868     		ldr	r0, [r7, #8]
 2496 01d8 FFF7FEFF 		bl	atiny_app_execute
 2497 01dc 7861     		str	r0, [r7, #20]
 442:C:/Users/dtjld/Desktop/AIoT_software/LiteOS_Lab_overseas/LiteOS_Lab/iot_link/oc/oc_lwm2m/atiny_lwm2m\agent_tiny_cmd_ioctl.c ****         break;
 2498              		.loc 1 442 0
 2499 01de 30E0     		b	.L172
 2500              	.L163:
 443:C:/Users/dtjld/Desktop/AIoT_software/LiteOS_Lab_overseas/LiteOS_Lab/iot_link/oc/oc_lwm2m/atiny_lwm2m\agent_tiny_cmd_ioctl.c ****     case ATINY_UPDATE_PSK:
 444:C:/Users/dtjld/Desktop/AIoT_software/LiteOS_Lab_overseas/LiteOS_Lab/iot_link/oc/oc_lwm2m/atiny_lwm2m\agent_tiny_cmd_ioctl.c ****         result = atiny_update_psk(arg, len);
ARM GAS  C:\Users\dtjld\AppData\Local\Temp\ccvmmsjH.s 			page 52


 2501              		.loc 1 444 0
 2502 01e0 7968     		ldr	r1, [r7, #4]
 2503 01e2 B868     		ldr	r0, [r7, #8]
 2504 01e4 FFF7FEFF 		bl	atiny_update_psk
 2505 01e8 7861     		str	r0, [r7, #20]
 445:C:/Users/dtjld/Desktop/AIoT_software/LiteOS_Lab_overseas/LiteOS_Lab/iot_link/oc/oc_lwm2m/atiny_lwm2m\agent_tiny_cmd_ioctl.c ****         break;
 2506              		.loc 1 445 0
 2507 01ea 2AE0     		b	.L172
 2508              	.L164:
 446:C:/Users/dtjld/Desktop/AIoT_software/LiteOS_Lab_overseas/LiteOS_Lab/iot_link/oc/oc_lwm2m/atiny_lwm2m\agent_tiny_cmd_ioctl.c ****     case ATINY_GET_LATITUDE:
 447:C:/Users/dtjld/Desktop/AIoT_software/LiteOS_Lab_overseas/LiteOS_Lab/iot_link/oc/oc_lwm2m/atiny_lwm2m\agent_tiny_cmd_ioctl.c ****         result = atiny_get_latitude((float *)arg);
 2509              		.loc 1 447 0
 2510 01ec B868     		ldr	r0, [r7, #8]
 2511 01ee FFF7FEFF 		bl	atiny_get_latitude
 2512 01f2 7861     		str	r0, [r7, #20]
 448:C:/Users/dtjld/Desktop/AIoT_software/LiteOS_Lab_overseas/LiteOS_Lab/iot_link/oc/oc_lwm2m/atiny_lwm2m\agent_tiny_cmd_ioctl.c ****         break;
 2513              		.loc 1 448 0
 2514 01f4 25E0     		b	.L172
 2515              	.L165:
 449:C:/Users/dtjld/Desktop/AIoT_software/LiteOS_Lab_overseas/LiteOS_Lab/iot_link/oc/oc_lwm2m/atiny_lwm2m\agent_tiny_cmd_ioctl.c ****     case ATINY_GET_LONGITUDE:
 450:C:/Users/dtjld/Desktop/AIoT_software/LiteOS_Lab_overseas/LiteOS_Lab/iot_link/oc/oc_lwm2m/atiny_lwm2m\agent_tiny_cmd_ioctl.c ****         result = atiny_get_longitude((float *)arg);
 2516              		.loc 1 450 0
 2517 01f6 B868     		ldr	r0, [r7, #8]
 2518 01f8 FFF7FEFF 		bl	atiny_get_longitude
 2519 01fc 7861     		str	r0, [r7, #20]
 451:C:/Users/dtjld/Desktop/AIoT_software/LiteOS_Lab_overseas/LiteOS_Lab/iot_link/oc/oc_lwm2m/atiny_lwm2m\agent_tiny_cmd_ioctl.c ****         break;
 2520              		.loc 1 451 0
 2521 01fe 20E0     		b	.L172
 2522              	.L166:
 452:C:/Users/dtjld/Desktop/AIoT_software/LiteOS_Lab_overseas/LiteOS_Lab/iot_link/oc/oc_lwm2m/atiny_lwm2m\agent_tiny_cmd_ioctl.c ****     case ATINY_GET_ALTITUDE:
 453:C:/Users/dtjld/Desktop/AIoT_software/LiteOS_Lab_overseas/LiteOS_Lab/iot_link/oc/oc_lwm2m/atiny_lwm2m\agent_tiny_cmd_ioctl.c ****         result = atiny_get_altitude((float *)arg);
 2523              		.loc 1 453 0
 2524 0200 B868     		ldr	r0, [r7, #8]
 2525 0202 FFF7FEFF 		bl	atiny_get_altitude
 2526 0206 7861     		str	r0, [r7, #20]
 454:C:/Users/dtjld/Desktop/AIoT_software/LiteOS_Lab_overseas/LiteOS_Lab/iot_link/oc/oc_lwm2m/atiny_lwm2m\agent_tiny_cmd_ioctl.c ****         break;
 2527              		.loc 1 454 0
 2528 0208 1BE0     		b	.L172
 2529              	.L167:
 455:C:/Users/dtjld/Desktop/AIoT_software/LiteOS_Lab_overseas/LiteOS_Lab/iot_link/oc/oc_lwm2m/atiny_lwm2m\agent_tiny_cmd_ioctl.c ****     case ATINY_GET_RADIUS:
 456:C:/Users/dtjld/Desktop/AIoT_software/LiteOS_Lab_overseas/LiteOS_Lab/iot_link/oc/oc_lwm2m/atiny_lwm2m\agent_tiny_cmd_ioctl.c ****         result = atiny_get_radius((float *)arg);
 2530              		.loc 1 456 0
 2531 020a B868     		ldr	r0, [r7, #8]
 2532 020c FFF7FEFF 		bl	atiny_get_radius
 2533 0210 7861     		str	r0, [r7, #20]
 457:C:/Users/dtjld/Desktop/AIoT_software/LiteOS_Lab_overseas/LiteOS_Lab/iot_link/oc/oc_lwm2m/atiny_lwm2m\agent_tiny_cmd_ioctl.c ****         break;
 2534              		.loc 1 457 0
 2535 0212 16E0     		b	.L172
 2536              	.L168:
 458:C:/Users/dtjld/Desktop/AIoT_software/LiteOS_Lab_overseas/LiteOS_Lab/iot_link/oc/oc_lwm2m/atiny_lwm2m\agent_tiny_cmd_ioctl.c ****     case ATINY_GET_SPEED:
 459:C:/Users/dtjld/Desktop/AIoT_software/LiteOS_Lab_overseas/LiteOS_Lab/iot_link/oc/oc_lwm2m/atiny_lwm2m\agent_tiny_cmd_ioctl.c ****         result = atiny_get_speed((float *)arg);
 2537              		.loc 1 459 0
 2538 0214 B868     		ldr	r0, [r7, #8]
 2539 0216 FFF7FEFF 		bl	atiny_get_speed
 2540 021a 7861     		str	r0, [r7, #20]
 460:C:/Users/dtjld/Desktop/AIoT_software/LiteOS_Lab_overseas/LiteOS_Lab/iot_link/oc/oc_lwm2m/atiny_lwm2m\agent_tiny_cmd_ioctl.c ****         break;
 2541              		.loc 1 460 0
ARM GAS  C:\Users\dtjld\AppData\Local\Temp\ccvmmsjH.s 			page 53


 2542 021c 11E0     		b	.L172
 2543              	.L169:
 461:C:/Users/dtjld/Desktop/AIoT_software/LiteOS_Lab_overseas/LiteOS_Lab/iot_link/oc/oc_lwm2m/atiny_lwm2m\agent_tiny_cmd_ioctl.c ****     case ATINY_GET_TIMESTAMP:
 462:C:/Users/dtjld/Desktop/AIoT_software/LiteOS_Lab_overseas/LiteOS_Lab/iot_link/oc/oc_lwm2m/atiny_lwm2m\agent_tiny_cmd_ioctl.c ****         result = atiny_get_timestamp((uint64_t *)arg);
 2544              		.loc 1 462 0
 2545 021e B868     		ldr	r0, [r7, #8]
 2546 0220 FFF7FEFF 		bl	atiny_get_timestamp
 2547 0224 7861     		str	r0, [r7, #20]
 463:C:/Users/dtjld/Desktop/AIoT_software/LiteOS_Lab_overseas/LiteOS_Lab/iot_link/oc/oc_lwm2m/atiny_lwm2m\agent_tiny_cmd_ioctl.c ****         break;
 2548              		.loc 1 463 0
 2549 0226 0CE0     		b	.L172
 2550              	.L170:
 464:C:/Users/dtjld/Desktop/AIoT_software/LiteOS_Lab_overseas/LiteOS_Lab/iot_link/oc/oc_lwm2m/atiny_lwm2m\agent_tiny_cmd_ioctl.c ****     case ATINY_GET_VELOCITY:
 465:C:/Users/dtjld/Desktop/AIoT_software/LiteOS_Lab_overseas/LiteOS_Lab/iot_link/oc/oc_lwm2m/atiny_lwm2m\agent_tiny_cmd_ioctl.c ****         result = atiny_get_velocity((atiny_velocity_s *)arg);
 2551              		.loc 1 465 0
 2552 0228 B868     		ldr	r0, [r7, #8]
 2553 022a FFF7FEFF 		bl	atiny_get_velocity
 2554 022e 7861     		str	r0, [r7, #20]
 466:C:/Users/dtjld/Desktop/AIoT_software/LiteOS_Lab_overseas/LiteOS_Lab/iot_link/oc/oc_lwm2m/atiny_lwm2m\agent_tiny_cmd_ioctl.c ****         break;
 2555              		.loc 1 466 0
 2556 0230 07E0     		b	.L172
 2557              	.L171:
 467:C:/Users/dtjld/Desktop/AIoT_software/LiteOS_Lab_overseas/LiteOS_Lab/iot_link/oc/oc_lwm2m/atiny_lwm2m\agent_tiny_cmd_ioctl.c **** 
 468:C:/Users/dtjld/Desktop/AIoT_software/LiteOS_Lab_overseas/LiteOS_Lab/iot_link/oc/oc_lwm2m/atiny_lwm2m\agent_tiny_cmd_ioctl.c **** #ifdef CONFIG_FEATURE_FOTA
 469:C:/Users/dtjld/Desktop/AIoT_software/LiteOS_Lab_overseas/LiteOS_Lab/iot_link/oc/oc_lwm2m/atiny_lwm2m\agent_tiny_cmd_ioctl.c ****     case ATINY_GET_OTA_OPT:
 470:C:/Users/dtjld/Desktop/AIoT_software/LiteOS_Lab_overseas/LiteOS_Lab/iot_link/oc/oc_lwm2m/atiny_lwm2m\agent_tiny_cmd_ioctl.c ****     {
 471:C:/Users/dtjld/Desktop/AIoT_software/LiteOS_Lab_overseas/LiteOS_Lab/iot_link/oc/oc_lwm2m/atiny_lwm2m\agent_tiny_cmd_ioctl.c ****         ota_opt_s *opt = (ota_opt_s *)arg;
 472:C:/Users/dtjld/Desktop/AIoT_software/LiteOS_Lab_overseas/LiteOS_Lab/iot_link/oc/oc_lwm2m/atiny_lwm2m\agent_tiny_cmd_ioctl.c ****         hal_get_ota_opt(opt);
 473:C:/Users/dtjld/Desktop/AIoT_software/LiteOS_Lab_overseas/LiteOS_Lab/iot_link/oc/oc_lwm2m/atiny_lwm2m\agent_tiny_cmd_ioctl.c ****         opt->key.rsa_N = "C94BECB7BCBFF459B9A71F12C3CC0603B11F0D3A366A226FD3E73D453F96EFBBCD4DFED6D
 474:C:/Users/dtjld/Desktop/AIoT_software/LiteOS_Lab_overseas/LiteOS_Lab/iot_link/oc/oc_lwm2m/atiny_lwm2m\agent_tiny_cmd_ioctl.c ****         opt->key.rsa_E = "10001";
 475:C:/Users/dtjld/Desktop/AIoT_software/LiteOS_Lab_overseas/LiteOS_Lab/iot_link/oc/oc_lwm2m/atiny_lwm2m\agent_tiny_cmd_ioctl.c ****         result = ATINY_OK;
 476:C:/Users/dtjld/Desktop/AIoT_software/LiteOS_Lab_overseas/LiteOS_Lab/iot_link/oc/oc_lwm2m/atiny_lwm2m\agent_tiny_cmd_ioctl.c ****         break;
 477:C:/Users/dtjld/Desktop/AIoT_software/LiteOS_Lab_overseas/LiteOS_Lab/iot_link/oc/oc_lwm2m/atiny_lwm2m\agent_tiny_cmd_ioctl.c ****     }
 478:C:/Users/dtjld/Desktop/AIoT_software/LiteOS_Lab_overseas/LiteOS_Lab/iot_link/oc/oc_lwm2m/atiny_lwm2m\agent_tiny_cmd_ioctl.c **** #endif
 479:C:/Users/dtjld/Desktop/AIoT_software/LiteOS_Lab_overseas/LiteOS_Lab/iot_link/oc/oc_lwm2m/atiny_lwm2m\agent_tiny_cmd_ioctl.c **** 
 480:C:/Users/dtjld/Desktop/AIoT_software/LiteOS_Lab_overseas/LiteOS_Lab/iot_link/oc/oc_lwm2m/atiny_lwm2m\agent_tiny_cmd_ioctl.c ****     case ATINY_TRIGER_SERVER_INITIATED_BS:
 481:C:/Users/dtjld/Desktop/AIoT_software/LiteOS_Lab_overseas/LiteOS_Lab/iot_link/oc/oc_lwm2m/atiny_lwm2m\agent_tiny_cmd_ioctl.c ****         atiny_server_bootrigger(arg,len);
 2558              		.loc 1 481 0
 2559 0232 7968     		ldr	r1, [r7, #4]
 2560 0234 B868     		ldr	r0, [r7, #8]
 2561 0236 FFF7FEFF 		bl	atiny_server_bootrigger
 482:C:/Users/dtjld/Desktop/AIoT_software/LiteOS_Lab_overseas/LiteOS_Lab/iot_link/oc/oc_lwm2m/atiny_lwm2m\agent_tiny_cmd_ioctl.c ****         result = ATINY_OK;
 2562              		.loc 1 482 0
 2563 023a 0023     		movs	r3, #0
 2564 023c 7B61     		str	r3, [r7, #20]
 483:C:/Users/dtjld/Desktop/AIoT_software/LiteOS_Lab_overseas/LiteOS_Lab/iot_link/oc/oc_lwm2m/atiny_lwm2m\agent_tiny_cmd_ioctl.c ****         break;
 2565              		.loc 1 483 0
 2566 023e 00E0     		b	.L172
 2567              	.L174:
 484:C:/Users/dtjld/Desktop/AIoT_software/LiteOS_Lab_overseas/LiteOS_Lab/iot_link/oc/oc_lwm2m/atiny_lwm2m\agent_tiny_cmd_ioctl.c **** 
 485:C:/Users/dtjld/Desktop/AIoT_software/LiteOS_Lab_overseas/LiteOS_Lab/iot_link/oc/oc_lwm2m/atiny_lwm2m\agent_tiny_cmd_ioctl.c ****     default:
 486:C:/Users/dtjld/Desktop/AIoT_software/LiteOS_Lab_overseas/LiteOS_Lab/iot_link/oc/oc_lwm2m/atiny_lwm2m\agent_tiny_cmd_ioctl.c ****         break;
 2568              		.loc 1 486 0
 2569 0240 00BF     		nop
 2570              	.L172:
 487:C:/Users/dtjld/Desktop/AIoT_software/LiteOS_Lab_overseas/LiteOS_Lab/iot_link/oc/oc_lwm2m/atiny_lwm2m\agent_tiny_cmd_ioctl.c ****     }
 488:C:/Users/dtjld/Desktop/AIoT_software/LiteOS_Lab_overseas/LiteOS_Lab/iot_link/oc/oc_lwm2m/atiny_lwm2m\agent_tiny_cmd_ioctl.c ****     return result;
ARM GAS  C:\Users\dtjld\AppData\Local\Temp\ccvmmsjH.s 			page 54


 2571              		.loc 1 488 0
 2572 0242 7B69     		ldr	r3, [r7, #20]
 489:C:/Users/dtjld/Desktop/AIoT_software/LiteOS_Lab_overseas/LiteOS_Lab/iot_link/oc/oc_lwm2m/atiny_lwm2m\agent_tiny_cmd_ioctl.c **** }
 2573              		.loc 1 489 0
 2574 0244 1846     		mov	r0, r3
 2575 0246 1837     		adds	r7, r7, #24
 2576              	.LCFI210:
 2577              		.cfi_def_cfa_offset 8
 2578 0248 BD46     		mov	sp, r7
 2579              	.LCFI211:
 2580              		.cfi_def_cfa_register 13
 2581              		@ sp needed
 2582 024a 80BD     		pop	{r7, pc}
 2583              		.cfi_endproc
 2584              	.LFE43:
 2586              		.section	.rodata
 2587              		.align	2
 2588              	.LC13:
 2589 0120 6E6F7469 		.ascii	"notify:stat:%d\015\012\000"
 2589      66793A73 
 2589      7461743A 
 2589      25640D0A 
 2589      00
 2590              		.section	.text.atiny_event_notify,"ax",%progbits
 2591              		.align	1
 2592              		.global	atiny_event_notify
 2593              		.syntax unified
 2594              		.thumb
 2595              		.thumb_func
 2596              		.fpu fpv4-sp-d16
 2598              	atiny_event_notify:
 2599              	.LFB44:
 490:C:/Users/dtjld/Desktop/AIoT_software/LiteOS_Lab_overseas/LiteOS_Lab/iot_link/oc/oc_lwm2m/atiny_lwm2m\agent_tiny_cmd_ioctl.c **** 
 491:C:/Users/dtjld/Desktop/AIoT_software/LiteOS_Lab_overseas/LiteOS_Lab/iot_link/oc/oc_lwm2m/atiny_lwm2m\agent_tiny_cmd_ioctl.c **** void atiny_event_notify(atiny_event_e event, const char *arg, int len)
 492:C:/Users/dtjld/Desktop/AIoT_software/LiteOS_Lab_overseas/LiteOS_Lab/iot_link/oc/oc_lwm2m/atiny_lwm2m\agent_tiny_cmd_ioctl.c **** {
 2600              		.loc 1 492 0
 2601              		.cfi_startproc
 2602              		@ args = 0, pretend = 0, frame = 16
 2603              		@ frame_needed = 1, uses_anonymous_args = 0
 2604 0000 80B5     		push	{r7, lr}
 2605              	.LCFI212:
 2606              		.cfi_def_cfa_offset 8
 2607              		.cfi_offset 7, -8
 2608              		.cfi_offset 14, -4
 2609 0002 84B0     		sub	sp, sp, #16
 2610              	.LCFI213:
 2611              		.cfi_def_cfa_offset 24
 2612 0004 00AF     		add	r7, sp, #0
 2613              	.LCFI214:
 2614              		.cfi_def_cfa_register 7
 2615 0006 0346     		mov	r3, r0
 2616 0008 B960     		str	r1, [r7, #8]
 2617 000a 7A60     		str	r2, [r7, #4]
 2618 000c FB73     		strb	r3, [r7, #15]
 493:C:/Users/dtjld/Desktop/AIoT_software/LiteOS_Lab_overseas/LiteOS_Lab/iot_link/oc/oc_lwm2m/atiny_lwm2m\agent_tiny_cmd_ioctl.c ****     (void)printf("notify:stat:%d\r\n", event);
 2619              		.loc 1 493 0
 2620 000e FB7B     		ldrb	r3, [r7, #15]	@ zero_extendqisi2
ARM GAS  C:\Users\dtjld\AppData\Local\Temp\ccvmmsjH.s 			page 55


 2621 0010 1946     		mov	r1, r3
 2622 0012 0348     		ldr	r0, .L176
 2623 0014 FFF7FEFF 		bl	printf
 494:C:/Users/dtjld/Desktop/AIoT_software/LiteOS_Lab_overseas/LiteOS_Lab/iot_link/oc/oc_lwm2m/atiny_lwm2m\agent_tiny_cmd_ioctl.c **** }
 2624              		.loc 1 494 0
 2625 0018 00BF     		nop
 2626 001a 1037     		adds	r7, r7, #16
 2627              	.LCFI215:
 2628              		.cfi_def_cfa_offset 8
 2629 001c BD46     		mov	sp, r7
 2630              	.LCFI216:
 2631              		.cfi_def_cfa_register 13
 2632              		@ sp needed
 2633 001e 80BD     		pop	{r7, pc}
 2634              	.L177:
 2635              		.align	2
 2636              	.L176:
 2637 0020 20010000 		.word	.LC13
 2638              		.cfi_endproc
 2639              	.LFE44:
 2641              		.text
 2642              	.Letext0:
 2643              		.file 2 "c:\\ac6\\systemworkbench\\plugins\\fr.ac6.mcu.externaltools.arm-none.win32_1.16.0.2018071
 2644              		.file 3 "c:\\ac6\\systemworkbench\\plugins\\fr.ac6.mcu.externaltools.arm-none.win32_1.16.0.2018071
 2645              		.file 4 "c:\\ac6\\systemworkbench\\plugins\\fr.ac6.mcu.externaltools.arm-none.win32_1.16.0.2018071
 2646              		.file 5 "c:\\ac6\\systemworkbench\\plugins\\fr.ac6.mcu.externaltools.arm-none.win32_1.16.0.2018071
 2647              		.file 6 "c:\\ac6\\systemworkbench\\plugins\\fr.ac6.mcu.externaltools.arm-none.win32_1.16.0.2018071
 2648              		.file 7 "c:\\ac6\\systemworkbench\\plugins\\fr.ac6.mcu.externaltools.arm-none.win32_1.16.0.2018071
 2649              		.file 8 "c:\\ac6\\systemworkbench\\plugins\\fr.ac6.mcu.externaltools.arm-none.win32_1.16.0.2018071
 2650              		.file 9 "c:\\ac6\\systemworkbench\\plugins\\fr.ac6.mcu.externaltools.arm-none.win32_1.16.0.2018071
 2651              		.file 10 "c:\\ac6\\systemworkbench\\plugins\\fr.ac6.mcu.externaltools.arm-none.win32_1.16.0.201807
 2652              		.file 11 "C:/Users/dtjld/Desktop/AIoT_software/LiteOS_Lab_overseas/LiteOS_Lab/iot_link/oc/oc_lwm2m
 2653              		.file 12 "C:/Users/dtjld/Desktop/AIoT_software/LiteOS_Lab_overseas/LiteOS_Lab/iot_link/oc/oc_lwm2m
ARM GAS  C:\Users\dtjld\AppData\Local\Temp\ccvmmsjH.s 			page 56

