ARM GAS  C:\Users\dtjld\AppData\Local\Temp\ccQiNuxC.s 			page 1


   1              		.cpu cortex-m4
   2              		.eabi_attribute 27, 1
   3              		.eabi_attribute 28, 1
   4              		.eabi_attribute 20, 1
   5              		.eabi_attribute 21, 1
   6              		.eabi_attribute 23, 3
   7              		.eabi_attribute 24, 1
   8              		.eabi_attribute 25, 1
   9              		.eabi_attribute 26, 1
  10              		.eabi_attribute 30, 6
  11              		.eabi_attribute 34, 1
  12              		.eabi_attribute 18, 4
  13              		.file	"blowfish.c"
  14              		.text
  15              	.Ltext0:
  16              		.cfi_sections	.debug_frame
  17              		.section	.rodata.P,"a",%progbits
  18              		.align	2
  21              	P:
  22 0000 886A3F24 		.word	608135816
  23 0004 D308A385 		.word	-2052912941
  24 0008 2E8A1913 		.word	320440878
  25 000c 44737003 		.word	57701188
  26 0010 223809A4 		.word	-1542899678
  27 0014 D0319F29 		.word	698298832
  28 0018 98FA2E08 		.word	137296536
  29 001c 896C4EEC 		.word	-330404727
  30 0020 E6212845 		.word	1160258022
  31 0024 7713D038 		.word	953160567
  32 0028 CF6654BE 		.word	-1101764913
  33 002c 6C0CE934 		.word	887688300
  34 0030 B729ACC0 		.word	-1062458953
  35 0034 DD507CC9 		.word	-914599715
  36 0038 B5D5843F 		.word	1065670069
  37 003c 170947B5 		.word	-1253635817
  38 0040 D9D51692 		.word	-1843997223
  39 0044 1BFB7989 		.word	-1988494565
  40              		.section	.rodata.S,"a",%progbits
  41              		.align	2
  44              	S:
  45 0000 A60B31D1 		.word	-785314906
  46 0004 ACB5DF98 		.word	-1730169428
  47 0008 DB72FD2F 		.word	805139163
  48 000c B7DF1AD0 		.word	-803545161
  49 0010 EDAFE1B8 		.word	-1193168915
  50 0014 967E266A 		.word	1780907670
  51 0018 45907CBA 		.word	-1166241723
  52 001c 997F2CF1 		.word	-248741991
  53 0020 4799A124 		.word	614570311
  54 0024 F76C91B3 		.word	-1282315017
  55 0028 E2F20108 		.word	134345442
  56 002c 16FC8E85 		.word	-2054226922
  57 0030 D8206963 		.word	1667834072
  58 0034 694E5771 		.word	1901547113
  59 0038 A3FE58A4 		.word	-1537671517
  60 003c 7E3D93F4 		.word	-191677058
  61 0040 8F74950D 		.word	227898511
ARM GAS  C:\Users\dtjld\AppData\Local\Temp\ccQiNuxC.s 			page 2


  62 0044 58B68E72 		.word	1921955416
  63 0048 58CD8B71 		.word	1904987480
  64 004c EE4A1582 		.word	-2112533778
  65 0050 1DA4547B 		.word	2069144605
  66 0054 B5595AC2 		.word	-1034266187
  67 0058 39D5309C 		.word	-1674521287
  68 005c 1360F22A 		.word	720527379
  69 0060 23B0D1C5 		.word	-976113629
  70 0064 F0856028 		.word	677414384
  71 0068 187941CA 		.word	-901678824
  72 006c EF38DBB8 		.word	-1193592593
  73 0070 B0DC798E 		.word	-1904616272
  74 0074 0E183A60 		.word	1614419982
  75 0078 8B0E9E6C 		.word	1822297739
  76 007c 3E8A1EB0 		.word	-1340175810
  77 0080 C17715D7 		.word	-686458943
  78 0084 274B31BD 		.word	-1120842969
  79 0088 DA2FAF78 		.word	2024746970
  80 008c 605C6055 		.word	1432378464
  81 0090 F32555E6 		.word	-430627341
  82 0094 94AB55AA 		.word	-1437226092
  83 0098 62984857 		.word	1464375394
  84 009c 4014E863 		.word	1676153920
  85 00a0 6A39CA55 		.word	1439316330
  86 00a4 B610AB2A 		.word	715854006
  87 00a8 345CCCB4 		.word	-1261675468
  88 00ac CEE84111 		.word	289532110
  89 00b0 AF8654A1 		.word	-1588296017
  90 00b4 93E9727C 		.word	2087905683
  91 00b8 1114EEB3 		.word	-1276242927
  92 00bc 2ABC6F63 		.word	1668267050
  93 00c0 5DC5A92B 		.word	732546397
  94 00c4 F6311874 		.word	1947742710
  95 00c8 163E5CCE 		.word	-832815594
  96 00cc 1E93879B 		.word	-1685613794
  97 00d0 33BAD6AF 		.word	-1344882125
  98 00d4 5CCF246C 		.word	1814351708
  99 00d8 8153327A 		.word	2050118529
 100 00dc 77869528 		.word	680887927
 101 00e0 98488F3B 		.word	999245976
 102 00e4 AFB94B6B 		.word	1800124847
 103 00e8 1BE8BFC4 		.word	-994056165
 104 00ec 93212866 		.word	1713906067
 105 00f0 CC09D861 		.word	1641548236
 106 00f4 91A921FB 		.word	-81679983
 107 00f8 60AC7C48 		.word	1216130144
 108 00fc 3280EC5D 		.word	1575780402
 109 0100 5D5D84EF 		.word	-276538019
 110 0104 B17585E9 		.word	-377129551
 111 0108 022326DC 		.word	-601480446
 112 010c 881B65EB 		.word	-345695352
 113 0110 813E8923 		.word	596196993
 114 0114 C5AC96D3 		.word	-745100091
 115 0118 F36F6D0F 		.word	258830323
 116 011c 3942F483 		.word	-2081144263
 117 0120 82440B2E 		.word	772490370
 118 0124 042084A4 		.word	-1534844924
ARM GAS  C:\Users\dtjld\AppData\Local\Temp\ccQiNuxC.s 			page 3


 119 0128 4AF0C869 		.word	1774776394
 120 012c 5E9B1F9E 		.word	-1642095778
 121 0130 4268C621 		.word	566650946
 122 0134 9A6CE9F6 		.word	-152474470
 123 0138 619C0C67 		.word	1728879713
 124 013c F088D3AB 		.word	-1412200208
 125 0140 D2A0516A 		.word	1783734482
 126 0144 682F54D8 		.word	-665571480
 127 0148 28A70F96 		.word	-1777359064
 128 014c A33351AB 		.word	-1420741725
 129 0150 6C0BEF6E 		.word	1861159788
 130 0154 E43B7A13 		.word	326777828
 131 0158 50F03BBA 		.word	-1170476976
 132 015c 982AFB7E 		.word	2130389656
 133 0160 1D65F1A1 		.word	-1578015459
 134 0164 7601AF39 		.word	967770486
 135 0168 3E59CA66 		.word	1724537150
 136 016c 880E4382 		.word	-2109534584
 137 0170 1986EE8C 		.word	-1930525159
 138 0174 B49F6F45 		.word	1164943284
 139 0178 C3A5847D 		.word	2105845187
 140 017c BE5E8B3B 		.word	998989502
 141 0180 D8756FE0 		.word	-529566248
 142 0184 7320C185 		.word	-2050940813
 143 0188 9F441A40 		.word	1075463327
 144 018c A66AC156 		.word	1455516326
 145 0190 62AAD34E 		.word	1322494562
 146 0194 06773F36 		.word	910128902
 147 0198 72DFFE1B 		.word	469688178
 148 019c 3D029B42 		.word	1117454909
 149 01a0 24D7D037 		.word	936433444
 150 01a4 48120AD0 		.word	-804646328
 151 01a8 D3EA0FDB 		.word	-619713837
 152 01ac 9BC0F149 		.word	1240580251
 153 01b0 C9725307 		.word	122909385
 154 01b4 7B1B9980 		.word	-2137449605
 155 01b8 D879D425 		.word	634681816
 156 01bc F7DEE8F6 		.word	-152510729
 157 01c0 1A50FEE3 		.word	-469872614
 158 01c4 3B4C79B6 		.word	-1233564613
 159 01c8 BDE06C97 		.word	-1754472259
 160 01cc BA06C004 		.word	79693498
 161 01d0 B64FA9C1 		.word	-1045868618
 162 01d4 C4609F40 		.word	1084186820
 163 01d8 C29E5C5E 		.word	1583128258
 164 01dc 63246A19 		.word	426386531
 165 01e0 AF6FFB68 		.word	1761308591
 166 01e4 B5536C3E 		.word	1047286709
 167 01e8 EBB23913 		.word	322548459
 168 01ec 6FEC523B 		.word	995290223
 169 01f0 1F51FC6D 		.word	1845252383
 170 01f4 2C95309B 		.word	-1691314900
 171 01f8 444581CC 		.word	-863943356
 172 01fc 09BD5EAF 		.word	-1352745719
 173 0200 04D0E3BE 		.word	-1092366332
 174 0204 FD4A33DE 		.word	-567063811
 175 0208 07280F66 		.word	1712269319
ARM GAS  C:\Users\dtjld\AppData\Local\Temp\ccQiNuxC.s 			page 4


 176 020c B34B2E19 		.word	422464435
 177 0210 57A8CBC0 		.word	-1060394921
 178 0214 0F74C845 		.word	1170764815
 179 0218 395F0BD2 		.word	-771006663
 180 021c DBFBD3B9 		.word	-1177289765
 181 0220 BDC07955 		.word	1434042557
 182 0224 0A32601A 		.word	442511882
 183 0228 C600A1D6 		.word	-694091578
 184 022c 79722C40 		.word	1076654713
 185 0230 FE259F67 		.word	1738483198
 186 0234 CCA31FFB 		.word	-81812532
 187 0238 F8E9A58E 		.word	-1901729288
 188 023c F82232DB 		.word	-617471240
 189 0240 DF16753C 		.word	1014306527
 190 0244 156B61FD 		.word	-43947243
 191 0248 C81E502F 		.word	793779912
 192 024c AB5205AD 		.word	-1392160085
 193 0250 FAB53D32 		.word	842905082
 194 0254 608723FD 		.word	-48003232
 195 0258 487B3153 		.word	1395751752
 196 025c 82DF003E 		.word	1040244610
 197 0260 BB575C9E 		.word	-1638115397
 198 0264 A08C6FCA 		.word	-898659168
 199 0268 2E56871A 		.word	445077038
 200 026c DB6917DF 		.word	-552113701
 201 0270 F6A842D5 		.word	-717051658
 202 0274 C3FF7E28 		.word	679411651
 203 0278 C63267AC 		.word	-1402522938
 204 027c 73554F8C 		.word	-1940957837
 205 0280 B0275B69 		.word	1767581616
 206 0284 C858CABB 		.word	-1144366904
 207 0288 5DA3FFE1 		.word	-503340195
 208 028c A011F0B8 		.word	-1192226400
 209 0290 983DFA10 		.word	284835224
 210 0294 B88321FD 		.word	-48135240
 211 0298 6CB5FC4A 		.word	1258075500
 212 029c 5BD3D12D 		.word	768725851
 213 02a0 79E4539A 		.word	-1705778055
 214 02a4 6545F8B6 		.word	-1225243291
 215 02a8 BC498ED2 		.word	-762426948
 216 02ac 9097FB4B 		.word	1274779536
 217 02b0 DAF2DDE1 		.word	-505548070
 218 02b4 337ECBA4 		.word	-1530167757
 219 02b8 4113FB62 		.word	1660621633
 220 02bc E8C6E4CE 		.word	-823867672
 221 02c0 DACA20EF 		.word	-283063590
 222 02c4 014C7736 		.word	913787905
 223 02c8 FE9E7ED0 		.word	-797008130
 224 02cc B41FF12B 		.word	737222580
 225 02d0 4DDADB95 		.word	-1780753843
 226 02d4 989190AE 		.word	-1366257256
 227 02d8 718EADEA 		.word	-357724559
 228 02dc A0D5936B 		.word	1804850592
 229 02e0 D0D18ED0 		.word	-795946544
 230 02e4 E025C7AF 		.word	-1345903136
 231 02e8 2F5B3C8E 		.word	-1908647121
 232 02ec B794758E 		.word	-1904896841
ARM GAS  C:\Users\dtjld\AppData\Local\Temp\ccQiNuxC.s 			page 5


 233 02f0 FBE2F68F 		.word	-1879645445
 234 02f4 642B12F2 		.word	-233690268
 235 02f8 12B88888 		.word	-2004305902
 236 02fc 1CF00D90 		.word	-1878134756
 237 0300 A05EAD4F 		.word	1336762016
 238 0304 1CC38F68 		.word	1754252060
 239 0308 91F1CFD1 		.word	-774901359
 240 030c ADC1A8B3 		.word	-1280786003
 241 0310 18222F2F 		.word	791618072
 242 0314 77170EBE 		.word	-1106372745
 243 0318 FE2D75EA 		.word	-361419266
 244 031c A11F028B 		.word	-1962795103
 245 0320 0FCCA0E5 		.word	-442446833
 246 0324 E8746FB5 		.word	-1250986776
 247 0328 D6F3AC18 		.word	413987798
 248 032c 99E289CE 		.word	-829824359
 249 0330 E04FA8B4 		.word	-1264037920
 250 0334 B7E013FD 		.word	-49028937
 251 0338 813BC47C 		.word	2093235073
 252 033c D9A8ADD2 		.word	-760370983
 253 0340 66A25F16 		.word	375366246
 254 0344 05779580 		.word	-2137688315
 255 0348 1473CC93 		.word	-1815317740
 256 034c 77141A21 		.word	555357303
 257 0350 6520ADE6 		.word	-424861595
 258 0354 86FAB577 		.word	2008414854
 259 0358 F54254C7 		.word	-950779147
 260 035c CF359DFB 		.word	-73583153
 261 0360 0CAFCDEB 		.word	-338841844
 262 0364 A0893E7B 		.word	2067696032
 263 0368 D31B41D6 		.word	-700376109
 264 036c 497E1EAE 		.word	-1373733303
 265 0370 2D0E2500 		.word	2428461
 266 0374 5EB37120 		.word	544322398
 267 0378 BB006822 		.word	577241275
 268 037c AFE0B857 		.word	1471733935
 269 0380 9B366424 		.word	610547355
 270 0384 1EB909F0 		.word	-267798242
 271 0388 1D916355 		.word	1432588573
 272 038c AAA6DF59 		.word	1507829418
 273 0390 8943C178 		.word	2025931657
 274 0394 7F535AD9 		.word	-648391809
 275 0398 A25B7D20 		.word	545086370
 276 039c C5B9E502 		.word	48609733
 277 03a0 76032683 		.word	-2094660746
 278 03a4 A9CF9562 		.word	1653985193
 279 03a8 6819C811 		.word	298326376
 280 03ac 414A734E 		.word	1316178497
 281 03b0 CA2D47B3 		.word	-1287180854
 282 03b4 4AA9147B 		.word	2064951626
 283 03b8 5200511B 		.word	458293330
 284 03bc 1529539A 		.word	-1705826027
 285 03c0 3F570FD6 		.word	-703637697
 286 03c4 E4C69BBC 		.word	-1130641692
 287 03c8 76A4602B 		.word	727753846
 288 03cc 0074E681 		.word	-2115603456
 289 03d0 B56FBA08 		.word	146436021
ARM GAS  C:\Users\dtjld\AppData\Local\Temp\ccQiNuxC.s 			page 6


 290 03d4 1FE91B57 		.word	1461446943
 291 03d8 6BEC96F2 		.word	-224990101
 292 03dc 15D90D2A 		.word	705550613
 293 03e0 216563B6 		.word	-1235000031
 294 03e4 B6F9B9E7 		.word	-407242314
 295 03e8 2E0534FF 		.word	-13368018
 296 03ec 645685C5 		.word	-981117340
 297 03f0 5D2DB053 		.word	1404054877
 298 03f4 A18F9FA9 		.word	-1449160799
 299 03f8 9947BA08 		.word	146425753
 300 03fc 6A07856E 		.word	1854211946
 301 0400 E9707A4B 		.word	1266315497
 302 0404 4429B3B5 		.word	-1246549692
 303 0408 2E0975DB 		.word	-613086930
 304 040c 232619C4 		.word	-1004984797
 305 0410 B0A66EAD 		.word	-1385257296
 306 0414 7DDFA749 		.word	1235738493
 307 0418 B860EE9C 		.word	-1662099272
 308 041c 66B2ED8F 		.word	-1880247706
 309 0420 718CAAEC 		.word	-324367247
 310 0424 FF179A69 		.word	1771706367
 311 0428 6C526456 		.word	1449415276
 312 042c E19EB1C2 		.word	-1028546847
 313 0430 A5023619 		.word	422970021
 314 0434 294C0975 		.word	1963543593
 315 0438 401359A0 		.word	-1604775104
 316 043c 3E3A18E4 		.word	-468174274
 317 0440 9A98543F 		.word	1062508698
 318 0444 659D425B 		.word	1531092325
 319 0448 D6E48F6B 		.word	1804592342
 320 044c D63FF799 		.word	-1711849514
 321 0450 079CD2A1 		.word	-1580033017
 322 0454 F530E8EF 		.word	-269995787
 323 0458 E6382D4D 		.word	1294809318
 324 045c C15D25F0 		.word	-265986623
 325 0460 8620DD4C 		.word	1289560198
 326 0464 26EB7084 		.word	-2072974554
 327 0468 C6E98263 		.word	1669523910
 328 046c 5ECC1E02 		.word	35572830
 329 0470 3F6B6809 		.word	157838143
 330 0474 C9EFBA3E 		.word	1052438473
 331 0478 1418973C 		.word	1016535060
 332 047c A1706A6B 		.word	1802137761
 333 0480 84357F68 		.word	1753167236
 334 0484 86E2A052 		.word	1386275462
 335 0488 05539CB7 		.word	-1214491899
 336 048c 370750AA 		.word	-1437595849
 337 0490 1C84073E 		.word	1040679964
 338 0494 5CAEDE7F 		.word	2145300060
 339 0498 EC447D8E 		.word	-1904392980
 340 049c B8F21657 		.word	1461121720
 341 04a0 37DA3AB0 		.word	-1338320329
 342 04a4 0D0C50F0 		.word	-263189491
 343 04a8 041F1CF0 		.word	-266592508
 344 04ac FFB30002 		.word	33600511
 345 04b0 1AF50CAE 		.word	-1374882534
 346 04b4 B274B53C 		.word	1018524850
ARM GAS  C:\Users\dtjld\AppData\Local\Temp\ccQiNuxC.s 			page 7


 347 04b8 587A8325 		.word	629373528
 348 04bc BD2109DC 		.word	-603381315
 349 04c0 F91391D1 		.word	-779021319
 350 04c4 F62FA97C 		.word	2091462646
 351 04c8 73473294 		.word	-1808644237
 352 04cc 0147F522 		.word	586499841
 353 04d0 81E5E53A 		.word	988145025
 354 04d4 DCDAC237 		.word	935516892
 355 04d8 3476B5C8 		.word	-927631820
 356 04dc A7DDF39A 		.word	-1695294041
 357 04e0 466144A9 		.word	-1455136442
 358 04e4 0E03D00F 		.word	265290510
 359 04e8 3EC7C8EC 		.word	-322386114
 360 04ec 411E75A4 		.word	-1535828415
 361 04f0 99CD38E2 		.word	-499593831
 362 04f4 2F0EEA3B 		.word	1005194799
 363 04f8 A1BB8032 		.word	847297441
 364 04fc 31B33E18 		.word	406762289
 365 0500 388B544E 		.word	1314163512
 366 0504 08B96D4F 		.word	1332590856
 367 0508 030D426F 		.word	1866599683
 368 050c BF040AF6 		.word	-167115585
 369 0510 9012B82C 		.word	750260880
 370 0514 797C9724 		.word	613907577
 371 0518 72B07956 		.word	1450815602
 372 051c AF89AFBC 		.word	-1129346641
 373 0520 1F779ADE 		.word	-560302305
 374 0524 100893D9 		.word	-644675568
 375 0528 12AE8BB3 		.word	-1282691566
 376 052c 2E3FCFDC 		.word	-590397650
 377 0530 1F721255 		.word	1427272223
 378 0534 24716B2E 		.word	778793252
 379 0538 E6DD1A50 		.word	1343938022
 380 053c 87CD849F 		.word	-1618686585
 381 0540 1847587A 		.word	2052605720
 382 0544 17DA0874 		.word	1946737175
 383 0548 BC9A9FBC 		.word	-1130390852
 384 054c 8C7D4BE9 		.word	-380928628
 385 0550 3AEC7AEC 		.word	-327488454
 386 0554 FA1D85DB 		.word	-612033030
 387 0558 66430963 		.word	1661551462
 388 055c D2C364C4 		.word	-1000029230
 389 0560 47181CEF 		.word	-283371449
 390 0564 08D91532 		.word	840292616
 391 0568 373B43DD 		.word	-582796489
 392 056c 16BAC224 		.word	616741398
 393 0570 434DA112 		.word	312560963
 394 0574 51C4652A 		.word	711312465
 395 0578 02009450 		.word	1351876610
 396 057c DDE43A13 		.word	322626781
 397 0580 9EF8DF71 		.word	1910503582
 398 0584 554E3110 		.word	271666773
 399 0588 D677AC81 		.word	-2119403562
 400 058c 9B19115F 		.word	1594956187
 401 0590 F1563504 		.word	70604529
 402 0594 6BC7A3D7 		.word	-677132437
 403 0598 3B18113C 		.word	1007753275
ARM GAS  C:\Users\dtjld\AppData\Local\Temp\ccQiNuxC.s 			page 8


 404 059c 09A52459 		.word	1495573769
 405 05a0 EDE68FF2 		.word	-225450259
 406 05a4 FAFBF197 		.word	-1745748998
 407 05a8 2CBFBA9E 		.word	-1631928532
 408 05ac 6E3C151E 		.word	504708206
 409 05b0 7045E386 		.word	-2031925904
 410 05b4 B16FE9EA 		.word	-353800271
 411 05b8 0A5E0E86 		.word	-2045878774
 412 05bc B32A3E5A 		.word	1514023603
 413 05c0 1CE71F77 		.word	1998579484
 414 05c4 FA063D4E 		.word	1312622330
 415 05c8 B9DC6529 		.word	694541497
 416 05cc 0F1DE799 		.word	-1712906993
 417 05d0 D6893E80 		.word	-2143385130
 418 05d4 25C86652 		.word	1382467621
 419 05d8 78C94C2E 		.word	776784248
 420 05dc 6AB3109C 		.word	-1676627094
 421 05e0 BA0E15C6 		.word	-971698502
 422 05e4 78EAE294 		.word	-1797068168
 423 05e8 533CFCA5 		.word	-1510196141
 424 05ec F42D0A1E 		.word	503983604
 425 05f0 A74EF7F2 		.word	-218673497
 426 05f4 3D2B1D36 		.word	907881277
 427 05f8 0F263919 		.word	423175695
 428 05fc 6079C219 		.word	432175456
 429 0600 08A72352 		.word	1378068232
 430 0604 B61213F7 		.word	-149744970
 431 0608 6EFEADEB 		.word	-340918674
 432 060c 661FC3EA 		.word	-356311194
 433 0610 9545BCE3 		.word	-474200683
 434 0614 83C87BA6 		.word	-1501837181
 435 0618 D1377FB1 		.word	-1317062703
 436 061c 28FF8C01 		.word	26017576
 437 0620 EFDD32C3 		.word	-1020076561
 438 0624 A55A6CBE 		.word	-1100195163
 439 0628 85215865 		.word	1700274565
 440 062c 0298AB68 		.word	1756076034
 441 0630 0FA5CEEE 		.word	-288447217
 442 0634 3B952FDB 		.word	-617638597
 443 0638 AD7DEF2A 		.word	720338349
 444 063c 842F6E5B 		.word	1533947780
 445 0640 28B62115 		.word	354530856
 446 0644 70610729 		.word	688349552
 447 0648 7547DDEC 		.word	-321042571
 448 064c 10159F61 		.word	1637815568
 449 0650 30A8CC13 		.word	332179504
 450 0654 96BD61EB 		.word	-345916010
 451 0658 1EFE3403 		.word	53804574
 452 065c CF6303AA 		.word	-1442618417
 453 0660 905C73B5 		.word	-1250730864
 454 0664 39A2704C 		.word	1282449977
 455 0668 0B9E9ED5 		.word	-711025141
 456 066c 14DEAACB 		.word	-877994476
 457 0670 BC86CCEE 		.word	-288586052
 458 0674 A72C6260 		.word	1617046695
 459 0678 AB5CAB9C 		.word	-1666491221
 460 067c 6E84F3B2 		.word	-1292663698
ARM GAS  C:\Users\dtjld\AppData\Local\Temp\ccQiNuxC.s 			page 9


 461 0680 AF1E8B64 		.word	1686838959
 462 0684 CAF0BD19 		.word	431878346
 463 0688 B96923A0 		.word	-1608291911
 464 068c 50BB5A65 		.word	1700445008
 465 0690 325A6840 		.word	1080580658
 466 0694 B3B42A3C 		.word	1009431731
 467 0698 D5E99E31 		.word	832498133
 468 069c F7B821C0 		.word	-1071531785
 469 06a0 190B549B 		.word	-1688990951
 470 06a4 99A05F87 		.word	-2023776103
 471 06a8 7E99F795 		.word	-1778935426
 472 06ac A87D3D62 		.word	1648197032
 473 06b0 9A8837F8 		.word	-130578278
 474 06b4 772DE397 		.word	-1746719369
 475 06b8 5F93ED11 		.word	300782431
 476 06bc 81126816 		.word	375919233
 477 06c0 2988350E 		.word	238389289
 478 06c4 D61FE6C7 		.word	-941219882
 479 06c8 A1DFDE96 		.word	-1763778655
 480 06cc 99BA5878 		.word	2019080857
 481 06d0 A584F557 		.word	1475708069
 482 06d4 6372221B 		.word	455242339
 483 06d8 FFC3839B 		.word	-1685863425
 484 06dc 9646C21A 		.word	448939670
 485 06e0 EB0AB3CD 		.word	-843904277
 486 06e4 54302E53 		.word	1395535956
 487 06e8 E448D98F 		.word	-1881585436
 488 06ec 2831BC6D 		.word	1841049896
 489 06f0 EFF2EB58 		.word	1491858159
 490 06f4 EAFFC634 		.word	885456874
 491 06f8 61ED28FE 		.word	-30872223
 492 06fc 733C7CEE 		.word	-293847949
 493 0700 D9144A5D 		.word	1565136089
 494 0704 E3B764E8 		.word	-396052509
 495 0708 145D1042 		.word	1108368660
 496 070c E0133E20 		.word	540939232
 497 0710 B6E2EE45 		.word	1173283510
 498 0714 EAABAAA3 		.word	-1549095958
 499 0718 154F6CDB 		.word	-613658859
 500 071c D04FCBFA 		.word	-87339056
 501 0720 42F442C7 		.word	-951913406
 502 0724 B5BB6AEF 		.word	-278217803
 503 0728 1D3B4F65 		.word	1699691293
 504 072c 0521CD41 		.word	1103962373
 505 0730 9E791ED8 		.word	-669091426
 506 0734 C74D8586 		.word	-2038084153
 507 0738 6A474BE4 		.word	-464828566
 508 073c 5062813D 		.word	1031889488
 509 0740 F2A162CF 		.word	-815619598
 510 0744 46268D5B 		.word	1535977030
 511 0748 A08388FC 		.word	-58162272
 512 074c A3B6C7C1 		.word	-1043876189
 513 0750 C324157F 		.word	2132092099
 514 0754 9274CB69 		.word	1774941330
 515 0758 0B8A8447 		.word	1199868427
 516 075c 85B29256 		.word	1452454533
 517 0760 00BF5B09 		.word	157007616
ARM GAS  C:\Users\dtjld\AppData\Local\Temp\ccQiNuxC.s 			page 10


 518 0764 9D4819AD 		.word	-1390851939
 519 0768 74B16214 		.word	342012276
 520 076c 000E8223 		.word	595725824
 521 0770 2A8D4258 		.word	1480756522
 522 0774 EAF5550C 		.word	206960106
 523 0778 3EF4AD1D 		.word	497939518
 524 077c 61703F23 		.word	591360097
 525 0780 92F07233 		.word	863170706
 526 0784 417E938D 		.word	-1919713727
 527 0788 F1EC5FD6 		.word	-698356495
 528 078c DB3B226C 		.word	1814182875
 529 0790 5937DE7C 		.word	2094937945
 530 0794 6074EECB 		.word	-873565088
 531 0798 A7F28540 		.word	1082520231
 532 079c 6E3277CE 		.word	-831049106
 533 07a0 848007A6 		.word	-1509457788
 534 07a4 9E50F819 		.word	435703966
 535 07a8 55D8EFE8 		.word	-386934699
 536 07ac 3597D961 		.word	1641649973
 537 07b0 AAA769A9 		.word	-1452693590
 538 07b4 C2060CC5 		.word	-989067582
 539 07b8 FCAB045A 		.word	1510255612
 540 07bc DCCA0B80 		.word	-2146710820
 541 07c0 2E7A449E 		.word	-1639679442
 542 07c4 843445C3 		.word	-1018874748
 543 07c8 0567D5FD 		.word	-36346107
 544 07cc C99E1E0E 		.word	236887753
 545 07d0 D3DB73DB 		.word	-613164077
 546 07d4 CD885510 		.word	274041037
 547 07d8 79DA5F67 		.word	1734335097
 548 07dc 404367E3 		.word	-479771840
 549 07e0 6534C4C5 		.word	-976997275
 550 07e4 D8383E71 		.word	1899903192
 551 07e8 9EF8283D 		.word	1026095262
 552 07ec 20FF6DF1 		.word	-244449504
 553 07f0 E7213E15 		.word	356393447
 554 07f4 4A3DB08F 		.word	-1884275382
 555 07f8 2B9FE3E6 		.word	-421290197
 556 07fc F7AD83DB 		.word	-612127241
 557 0800 685A3DE9 		.word	-381855128
 558 0804 F7408194 		.word	-1803468553
 559 0808 1C264CF6 		.word	-162781668
 560 080c 34296994 		.word	-1805047500
 561 0810 F7201541 		.word	1091903735
 562 0814 F7D40276 		.word	1979897079
 563 0818 2E6BF4BC 		.word	-1124832466
 564 081c 6800A2D4 		.word	-727580568
 565 0820 712408D4 		.word	-737663887
 566 0824 6AF42033 		.word	857797738
 567 0828 B7D4B743 		.word	1136121015
 568 082c AF610050 		.word	1342202287
 569 0830 2EF6391E 		.word	507115054
 570 0834 46452497 		.word	-1759230650
 571 0838 744F2114 		.word	337727348
 572 083c 40888BBF 		.word	-1081374656
 573 0840 1DFC954D 		.word	1301675037
 574 0844 AF91B596 		.word	-1766485585
ARM GAS  C:\Users\dtjld\AppData\Local\Temp\ccQiNuxC.s 			page 11


 575 0848 D3DDF470 		.word	1895095763
 576 084c 452FA066 		.word	1721773893
 577 0850 EC09BCBF 		.word	-1078195732
 578 0854 8597BD03 		.word	62756741
 579 0858 D06DAC7F 		.word	2142006736
 580 085c 0485CB31 		.word	835421444
 581 0860 B327EB96 		.word	-1762973773
 582 0864 4139FD55 		.word	1442658625
 583 0868 E64725DA 		.word	-635090970
 584 086c 9A0ACAAB 		.word	-1412822374
 585 0870 25785028 		.word	676362277
 586 0874 F4290453 		.word	1392781812
 587 0878 DA862C0A 		.word	170690266
 588 087c FB6DB6E9 		.word	-373920261
 589 0880 6214DC68 		.word	1759253602
 590 0884 006948D7 		.word	-683120384
 591 0888 A4C00E68 		.word	1745797284
 592 088c EE8DA127 		.word	664899054
 593 0890 A2FE3F4F 		.word	1329594018
 594 0894 8CAD87E8 		.word	-393761396
 595 0898 06E08CB5 		.word	-1249058810
 596 089c B6D6F47A 		.word	2062866102
 597 08a0 7C1ECEAA 		.word	-1429332356
 598 08a4 EC5F37D3 		.word	-751345684
 599 08a8 99A378CE 		.word	-830954599
 600 08ac 422A6B40 		.word	1080764994
 601 08b0 359EFE20 		.word	553557557
 602 08b4 B985F3D9 		.word	-638351943
 603 08b8 ABD739EE 		.word	-298199125
 604 08bc 8B4E123B 		.word	991055499
 605 08c0 F7FAC91D 		.word	499776247
 606 08c4 56186D4B 		.word	1265440854
 607 08c8 3166A326 		.word	648242737
 608 08cc B297E3EA 		.word	-354183246
 609 08d0 74FA6E3A 		.word	980351604
 610 08d4 32435BDD 		.word	-581221582
 611 08d8 F7E74168 		.word	1749149687
 612 08dc FB2078CA 		.word	-898096901
 613 08e0 4EF50AFB 		.word	-83167922
 614 08e4 97B3FED8 		.word	-654396521
 615 08e8 AC564045 		.word	1161844396
 616 08ec 279548BA 		.word	-1169648345
 617 08f0 3A3A5355 		.word	1431517754
 618 08f4 878D8320 		.word	545492359
 619 08f8 B7A96BFE 		.word	-26498633
 620 08fc 4B9596D0 		.word	-795437749
 621 0900 BC67A855 		.word	1437099964
 622 0904 589A15A1 		.word	-1592419752
 623 0908 6329A9CC 		.word	-861329053
 624 090c 33DBE199 		.word	-1713251533
 625 0910 564A2AA6 		.word	-1507177898
 626 0914 F925313F 		.word	1060185593
 627 0918 1C7EF45E 		.word	1593081372
 628 091c 7C312990 		.word	-1876348548
 629 0920 02E8F8FD 		.word	-34019326
 630 0924 702F2704 		.word	69676912
 631 0928 5C15BB80 		.word	-2135222948
ARM GAS  C:\Users\dtjld\AppData\Local\Temp\ccQiNuxC.s 			page 12


 632 092c E32C2805 		.word	86519011
 633 0930 4815C195 		.word	-1782508216
 634 0934 226DC6E4 		.word	-456757982
 635 0938 3F13C148 		.word	1220612927
 636 093c DC860FC7 		.word	-955283748
 637 0940 EEC9F907 		.word	133810670
 638 0944 0F1F0441 		.word	1090789135
 639 0948 A4794740 		.word	1078426020
 640 094c 176E885D 		.word	1569222167
 641 0950 EB515F32 		.word	845107691
 642 0954 D1C09BD5 		.word	-711212847
 643 0958 8FC1BCF2 		.word	-222510705
 644 095c 64351141 		.word	1091646820
 645 0960 34787B25 		.word	628848692
 646 0964 609C2A60 		.word	1613405280
 647 0968 A3E8F8DF 		.word	-537335645
 648 096c 1B6C631F 		.word	526609435
 649 0970 C2B4120E 		.word	236106946
 650 0974 9E32E102 		.word	48312990
 651 0978 D14F66AF 		.word	-1352249391
 652 097c 1581D1CA 		.word	-892239595
 653 0980 E095236B 		.word	1797494240
 654 0984 E1923E33 		.word	859738849
 655 0988 620B243B 		.word	992217954
 656 098c 22B9BEEE 		.word	-289490654
 657 0990 0EA2B285 		.word	-2051890674
 658 0994 990DBAE6 		.word	-424014439
 659 0998 8C0C72DE 		.word	-562951028
 660 099c 28F7A22D 		.word	765654824
 661 09a0 457812D0 		.word	-804095931
 662 09a4 FD94B795 		.word	-1783130883
 663 09a8 62087D64 		.word	1685915746
 664 09ac F0F5CCE7 		.word	-405998096
 665 09b0 6FA34954 		.word	1414112111
 666 09b4 FA487D87 		.word	-2021832454
 667 09b8 27FD9DC3 		.word	-1013056217
 668 09bc 1E8D3EF3 		.word	-214004450
 669 09c0 4163470A 		.word	172450625
 670 09c4 74FF2E99 		.word	-1724973196
 671 09c8 AB6E6F3A 		.word	980381355
 672 09cc 37FDF8F4 		.word	-185008841
 673 09d0 60DC12A8 		.word	-1475158944
 674 09d4 F8DDEBA1 		.word	-1578377736
 675 09d8 4CE11B99 		.word	-1726226100
 676 09dc 0D6B6EDB 		.word	-613520627
 677 09e0 10557BC6 		.word	-964995824
 678 09e4 372C676D 		.word	1835478071
 679 09e8 3BD46527 		.word	660984891
 680 09ec 04E8D0DC 		.word	-590288892
 681 09f0 C70D29F1 		.word	-248967737
 682 09f4 A3FF00CC 		.word	-872349789
 683 09f8 920F39B5 		.word	-1254551662
 684 09fc 0BED0F69 		.word	1762651403
 685 0a00 FB9F7B66 		.word	1719377915
 686 0a04 9C7DDBCE 		.word	-824476260
 687 0a08 0BCF91A0 		.word	-1601057013
 688 0a0c A35E15D9 		.word	-652910941
ARM GAS  C:\Users\dtjld\AppData\Local\Temp\ccQiNuxC.s 			page 13


 689 0a10 882F13BB 		.word	-1156370552
 690 0a14 24AD5B51 		.word	1364962596
 691 0a18 BF79947B 		.word	2073328063
 692 0a1c EBD63B76 		.word	1983633131
 693 0a20 B32E3937 		.word	926494387
 694 0a24 795911CC 		.word	-871278215
 695 0a28 97E22680 		.word	-2144935273
 696 0a2c 2D312EF4 		.word	-198299347
 697 0a30 A7AD4268 		.word	1749200295
 698 0a34 3B2B6AC6 		.word	-966120645
 699 0a38 CC4C7512 		.word	309677260
 700 0a3c 1CF12E78 		.word	2016342300
 701 0a40 3742126A 		.word	1779581495
 702 0a44 E75192B7 		.word	-1215147545
 703 0a48 E6BBA106 		.word	111262694
 704 0a4c 5063FB4B 		.word	1274766160
 705 0a50 18106B1A 		.word	443224088
 706 0a54 FAEDCA11 		.word	298511866
 707 0a58 D8BD253D 		.word	1025883608
 708 0a5c C9C3E1E2 		.word	-488520759
 709 0a60 59164244 		.word	1145181785
 710 0a64 8613120A 		.word	168956806
 711 0a68 6EEC0CD9 		.word	-653464466
 712 0a6c 2AEAABD5 		.word	-710153686
 713 0a70 4E67AF64 		.word	1689216846
 714 0a74 5FA886DA 		.word	-628709281
 715 0a78 88E9BFBE 		.word	-1094719096
 716 0a7c FEC3E464 		.word	1692713982
 717 0a80 5780BC9D 		.word	-1648590761
 718 0a84 86C0F7F0 		.word	-252198778
 719 0a88 F87B7860 		.word	1618508792
 720 0a8c 4D600360 		.word	1610833997
 721 0a90 4683FDD1 		.word	-771914938
 722 0a94 B01F38F6 		.word	-164094032
 723 0a98 04AE4577 		.word	2001055236
 724 0a9c CCFC36D7 		.word	-684262196
 725 0aa0 336B4283 		.word	-2092799181
 726 0aa4 71AB1EF0 		.word	-266425487
 727 0aa8 874180B0 		.word	-1333771897
 728 0aac 5F5E003C 		.word	1006657119
 729 0ab0 BE57A077 		.word	2006996926
 730 0ab4 24AEE8BD 		.word	-1108824540
 731 0ab8 99424655 		.word	1430667929
 732 0abc 612E58BF 		.word	-1084739999
 733 0ac0 8FF4584E 		.word	1314452623
 734 0ac4 A2FDDDF2 		.word	-220332638
 735 0ac8 38EF74F4 		.word	-193663176
 736 0acc C2BD8987 		.word	-2021016126
 737 0ad0 C3F96653 		.word	1399257539
 738 0ad4 748EB3C8 		.word	-927756684
 739 0ad8 55F275B4 		.word	-1267338667
 740 0adc B9D9FC46 		.word	1190975929
 741 0ae0 6126EB7A 		.word	2062231137
 742 0ae4 84DF1D8B 		.word	-1960976508
 743 0ae8 790E6A84 		.word	-2073424263
 744 0aec E2955F91 		.word	-1856006686
 745 0af0 8E596E46 		.word	1181637006
ARM GAS  C:\Users\dtjld\AppData\Local\Temp\ccQiNuxC.s 			page 14


 746 0af4 7057B420 		.word	548689776
 747 0af8 9155D58C 		.word	-1932175983
 748 0afc 4CDE02C9 		.word	-922558900
 749 0b00 E1AC0BB9 		.word	-1190417183
 750 0b04 D00582BB 		.word	-1149106736
 751 0b08 4862A811 		.word	296247880
 752 0b0c 9EA97475 		.word	1970579870
 753 0b10 B6197FB7 		.word	-1216407114
 754 0b14 09DCA9E0 		.word	-525738999
 755 0b18 A1092D66 		.word	1714227617
 756 0b1c 334632C4 		.word	-1003338189
 757 0b20 021F5AE8 		.word	-396747006
 758 0b24 8CBEF009 		.word	166772364
 759 0b28 25A0994A 		.word	1251581989
 760 0b2c 10FE6E1D 		.word	493813264
 761 0b30 1D3DB91A 		.word	448347421
 762 0b34 DFA4A50B 		.word	195405023
 763 0b38 0FF286A1 		.word	-1584991729
 764 0b3c 69F16828 		.word	677966185
 765 0b40 83DAB7DC 		.word	-591930749
 766 0b44 FE063957 		.word	1463355134
 767 0b48 9BCEE2A1 		.word	-1578971493
 768 0b4c 527FCD4F 		.word	1338867538
 769 0b50 015E1150 		.word	1343315457
 770 0b54 FA8306A7 		.word	-1492745222
 771 0b58 C4B502A0 		.word	-1610435132
 772 0b5c 27D0E60D 		.word	233230375
 773 0b60 278CF89A 		.word	-1694987225
 774 0b64 41863F77 		.word	2000651841
 775 0b68 064C60C3 		.word	-1017099258
 776 0b6c B506A861 		.word	1638401717
 777 0b70 287A17F0 		.word	-266896856
 778 0b74 E086F5C0 		.word	-1057650976
 779 0b78 AA586000 		.word	6314154
 780 0b7c 627DDC30 		.word	819756386
 781 0b80 D79EE611 		.word	300326615
 782 0b84 63EA3823 		.word	590932579
 783 0b88 94DDC253 		.word	1405279636
 784 0b8c 3416C2C2 		.word	-1027467724
 785 0b90 56EECBBB 		.word	-1144263082
 786 0b94 DEB6BC90 		.word	-1866680610
 787 0b98 A17DFCEB 		.word	-335774303
 788 0b9c 761D59CE 		.word	-833020554
 789 0ba0 09E4056F 		.word	1862657033
 790 0ba4 88017C4B 		.word	1266418056
 791 0ba8 3D0A7239 		.word	963775037
 792 0bac 247C927C 		.word	2089974820
 793 0bb0 5F72E386 		.word	-2031914401
 794 0bb4 B99D4D72 		.word	1917689273
 795 0bb8 B45BC11A 		.word	448879540
 796 0bbc FCB89ED3 		.word	-744572676
 797 0bc0 785554ED 		.word	-313240200
 798 0bc4 B5A5FC08 		.word	150775221
 799 0bc8 D37C3DD8 		.word	-667058989
 800 0bcc C40FAD4D 		.word	1303187396
 801 0bd0 5EEF501E 		.word	508620638
 802 0bd4 F8E661B1 		.word	-1318983944
ARM GAS  C:\Users\dtjld\AppData\Local\Temp\ccQiNuxC.s 			page 15


 803 0bd8 D91485A2 		.word	-1568336679
 804 0bdc 3C13516C 		.word	1817252668
 805 0be0 E7C7D56F 		.word	1876281319
 806 0be4 C44EE156 		.word	1457606340
 807 0be8 CEBF2A36 		.word	908771278
 808 0bec 37C8C6DD 		.word	-574175177
 809 0bf0 34329AD7 		.word	-677760460
 810 0bf4 12826392 		.word	-1838972398
 811 0bf8 8EFA0E67 		.word	1729034894
 812 0bfc E0006040 		.word	1080033504
 813 0c00 37CE393A 		.word	976866871
 814 0c04 CFF5FAD3 		.word	-738527793
 815 0c08 3777C2AB 		.word	-1413318857
 816 0c0c 1B2DC55A 		.word	1522871579
 817 0c10 9E67B05C 		.word	1555064734
 818 0c14 4237A34F 		.word	1336096578
 819 0c18 402782D3 		.word	-746444992
 820 0c1c BE9BBC99 		.word	-1715692610
 821 0c20 9D8E11D5 		.word	-720269667
 822 0c24 15730FBF 		.word	-1089506539
 823 0c28 7E1C2DD6 		.word	-701686658
 824 0c2c 7BC400C7 		.word	-956251013
 825 0c30 6B1B8CB7 		.word	-1215554709
 826 0c34 4590A121 		.word	564236357
 827 0c38 BEB16EB2 		.word	-1301368386
 828 0c3c B46E366A 		.word	1781952180
 829 0c40 2FAB4857 		.word	1464380207
 830 0c44 796E94BC 		.word	-1131123079
 831 0c48 D276A3C6 		.word	-962365742
 832 0c4c C8C24965 		.word	1699332808
 833 0c50 EEF80F53 		.word	1393555694
 834 0c54 7DDE8D46 		.word	1183702653
 835 0c58 1D0A73D5 		.word	-713881059
 836 0c5c C64DD04C 		.word	1288719814
 837 0c60 DBBB3929 		.word	691649499
 838 0c64 5046BAA9 		.word	-1447410096
 839 0c68 E82695AC 		.word	-1399511320
 840 0c6c 04E35EBE 		.word	-1101077756
 841 0c70 F0D5FAA1 		.word	-1577396752
 842 0c74 9A512D6A 		.word	1781354906
 843 0c78 E28CEF63 		.word	1676643554
 844 0c7c 22EE869A 		.word	-1702433246
 845 0c80 B8C289C0 		.word	-1064713544
 846 0c84 F62E2443 		.word	1126444790
 847 0c88 AA031EA5 		.word	-1524759638
 848 0c8c A4D0F29C 		.word	-1661808476
 849 0c90 BA61C083 		.word	-2084544070
 850 0c94 4D6AE99B 		.word	-1679201715
 851 0c98 5015E58F 		.word	-1880812208
 852 0c9c D65B64BA 		.word	-1167828010
 853 0ca0 F9A22628 		.word	673620729
 854 0ca4 E13A3AA7 		.word	-1489356063
 855 0ca8 8695A94B 		.word	1269405062
 856 0cac E96255EF 		.word	-279616791
 857 0cb0 D3EF2FC7 		.word	-953159725
 858 0cb4 DAF752F7 		.word	-145557542
 859 0cb8 696F043F 		.word	1057255273
ARM GAS  C:\Users\dtjld\AppData\Local\Temp\ccQiNuxC.s 			page 16


 860 0cbc 590AFA77 		.word	2012875353
 861 0cc0 15A9E480 		.word	-2132498155
 862 0cc4 0186B087 		.word	-2018474495
 863 0cc8 ADE6099B 		.word	-1693849939
 864 0ccc 93E53E3B 		.word	993977747
 865 0cd0 5AFD90E9 		.word	-376373926
 866 0cd4 97D7349E 		.word	-1640704105
 867 0cd8 D9B7F02C 		.word	753973209
 868 0cdc 518B2B02 		.word	36408145
 869 0ce0 3AACD596 		.word	-1764381638
 870 0ce4 7DA67D01 		.word	25011837
 871 0ce8 D63ECFD1 		.word	-774947114
 872 0cec 282D7D7C 		.word	2088578344
 873 0cf0 CF259F1F 		.word	530523599
 874 0cf4 9BB8F2AD 		.word	-1376601957
 875 0cf8 72B4D65A 		.word	1524020338
 876 0cfc 4CF5885A 		.word	1518925132
 877 0d00 71AC29E0 		.word	-534139791
 878 0d04 E6A519E0 		.word	-535190042
 879 0d08 FDACB047 		.word	1202760957
 880 0d0c 9BFA93ED 		.word	-309069157
 881 0d10 8DC4D3E8 		.word	-388774771
 882 0d14 CC573B28 		.word	674977740
 883 0d18 2966D5F8 		.word	-120232407
 884 0d1c 282E1379 		.word	2031300136
 885 0d20 91015F78 		.word	2019492241
 886 0d24 556075ED 		.word	-311074731
 887 0d28 440E96F7 		.word	-141160892
 888 0d2c 8C5ED3E3 		.word	-472686964
 889 0d30 D46D0515 		.word	352677332
 890 0d34 BA6DF488 		.word	-1997247046
 891 0d38 2561A103 		.word	60907813
 892 0d3c BDF06405 		.word	90501309
 893 0d40 159EEBC3 		.word	-1007968747
 894 0d44 A257903C 		.word	1016092578
 895 0d48 EC1A2797 		.word	-1759044884
 896 0d4c 2A073AA9 		.word	-1455814870
 897 0d50 9B6D3F1B 		.word	457141659
 898 0d54 F521631E 		.word	509813237
 899 0d58 FB669CF5 		.word	-174299397
 900 0d5c 19F3DC26 		.word	652014361
 901 0d60 28D93375 		.word	1966332200
 902 0d64 F5FD55B1 		.word	-1319764491
 903 0d68 82345603 		.word	55981186
 904 0d6c BB3CBA8A 		.word	-1967506245
 905 0d70 11775128 		.word	676427537
 906 0d74 F8D90AC2 		.word	-1039476232
 907 0d78 6751CCAB 		.word	-1412673177
 908 0d7c 5F92ADCC 		.word	-861040033
 909 0d80 5117E84D 		.word	1307055953
 910 0d84 8EDC3038 		.word	942726286
 911 0d88 62589D37 		.word	933058658
 912 0d8c 91F92093 		.word	-1826555503
 913 0d90 C2907AEA 		.word	-361066302
 914 0d94 CE7B3EFB 		.word	-79791154
 915 0d98 64CE2151 		.word	1361170020
 916 0d9c 32BE4F77 		.word	2001714738
ARM GAS  C:\Users\dtjld\AppData\Local\Temp\ccQiNuxC.s 			page 17


 917 0da0 7EE3B6A8 		.word	-1464409218
 918 0da4 463D29C3 		.word	-1020707514
 919 0da8 6953DE48 		.word	1222529897
 920 0dac 80E61364 		.word	1679025792
 921 0db0 1008AEA2 		.word	-1565652976
 922 0db4 24B26DDD 		.word	-580013532
 923 0db8 FD2D8569 		.word	1770335741
 924 0dbc 66210709 		.word	151462246
 925 0dc0 0A469AB3 		.word	-1281735158
 926 0dc4 DDC04564 		.word	1682292957
 927 0dc8 CFDE6C58 		.word	1483529935
 928 0dcc AEC8201C 		.word	471910574
 929 0dd0 DDF7BE5B 		.word	1539241949
 930 0dd4 408D581B 		.word	458788160
 931 0dd8 7F01D2CC 		.word	-858652289
 932 0ddc BBE3B46B 		.word	1807016891
 933 0de0 7E6AA2DD 		.word	-576558466
 934 0de4 45FF593A 		.word	978976581
 935 0de8 440A353E 		.word	1043663428
 936 0dec D5CDB4BC 		.word	-1129001515
 937 0df0 A8CEEA72 		.word	1927990952
 938 0df4 BB8464FA 		.word	-94075717
 939 0df8 AE12668D 		.word	-1922690386
 940 0dfc 476F3CBF 		.word	-1086558393
 941 0e00 63E49BD2 		.word	-761535389
 942 0e04 9E5D2F54 		.word	1412390302
 943 0e08 1B77C2AE 		.word	-1362987237
 944 0e0c 70634EF6 		.word	-162634896
 945 0e10 8D0D0E74 		.word	1947078029
 946 0e14 57135BE7 		.word	-413461673
 947 0e18 711672F8 		.word	-126740879
 948 0e1c 5D7D53AF 		.word	-1353482915
 949 0e20 08CB4040 		.word	1077988104
 950 0e24 CCE2B44E 		.word	1320477388
 951 0e28 6A46D234 		.word	886195818
 952 0e2c 84AF1501 		.word	18198404
 953 0e30 2804B0E1 		.word	-508558296
 954 0e34 1D3A9895 		.word	-1785185763
 955 0e38 B49FB806 		.word	112762804
 956 0e3c 48A06ECE 		.word	-831610808
 957 0e40 823B3F6F 		.word	1866414978
 958 0e44 82AB2035 		.word	891333506
 959 0e48 4B1D1A01 		.word	18488651
 960 0e4c F8277227 		.word	661792760
 961 0e50 B1601561 		.word	1628790961
 962 0e54 DC3F93E7 		.word	-409780260
 963 0e58 2B793ABB 		.word	-1153795797
 964 0e5c BD254534 		.word	876946877
 965 0e60 E13988A0 		.word	-1601685023
 966 0e64 4B79CE51 		.word	1372485963
 967 0e68 B7C9322F 		.word	791857591
 968 0e6c C9BA1FA0 		.word	-1608533303
 969 0e70 7EC81CE0 		.word	-534984578
 970 0e74 F6D1C7BC 		.word	-1127755274
 971 0e78 C31101CF 		.word	-822013501
 972 0e7c C7AAE8A1 		.word	-1578587449
 973 0e80 4987901A 		.word	445679433
ARM GAS  C:\Users\dtjld\AppData\Local\Temp\ccQiNuxC.s 			page 18


 974 0e84 9ABD4FD4 		.word	-732971622
 975 0e88 CBDEDAD0 		.word	-790962485
 976 0e8c 38DA0AD5 		.word	-720709064
 977 0e90 2AC33903 		.word	54117162
 978 0e94 673691C6 		.word	-963561881
 979 0e98 7C31F98D 		.word	-1913048708
 980 0e9c 4F2BB1E0 		.word	-525259953
 981 0ea0 B7599EF7 		.word	-140617289
 982 0ea4 3ABBF543 		.word	1140177722
 983 0ea8 FF19D5F2 		.word	-220915201
 984 0eac 9C45D927 		.word	668550556
 985 0eb0 2C2297BF 		.word	-1080614356
 986 0eb4 2AFCE615 		.word	367459370
 987 0eb8 71FC910F 		.word	261225585
 988 0ebc 2515949B 		.word	-1684794075
 989 0ec0 6193E5FA 		.word	-85617823
 990 0ec4 EB9CB6CE 		.word	-826893077
 991 0ec8 5964A8C2 		.word	-1029151655
 992 0ecc D1A8BA12 		.word	314222801
 993 0ed0 5E07C1B6 		.word	-1228863650
 994 0ed4 0C6A05E3 		.word	-486184436
 995 0ed8 6550D210 		.word	282218597
 996 0edc 42A403CB 		.word	-888953790
 997 0ee0 0E6EECE0 		.word	-521376242
 998 0ee4 3BDB9816 		.word	379116347
 999 0ee8 BEA0984C 		.word	1285071038
 1000 0eec 64E97832 		.word	846784868
 1001 0ef0 32951F9F 		.word	-1625320142
 1002 0ef4 DF92D3E0 		.word	-523005217
 1003 0ef8 2B34A0D3 		.word	-744475605
 1004 0efc 1EF27189 		.word	-1989021154
 1005 0f00 41740A1B 		.word	453669953
 1006 0f04 8C34A34B 		.word	1268987020
 1007 0f08 2071BEC5 		.word	-977374944
 1008 0f0c D83276C3 		.word	-1015663912
 1009 0f10 8D9F35DF 		.word	-550133875
 1010 0f14 2E2F999B 		.word	-1684459730
 1011 0f18 476F0BE6 		.word	-435458233
 1012 0f1c 1DF1E30F 		.word	266596637
 1013 0f20 54DA4CE5 		.word	-447948204
 1014 0f24 91D8DA1E 		.word	517658769
 1015 0f28 CF7962CE 		.word	-832407089
 1016 0f2c 6F7E3ECD 		.word	-851542417
 1017 0f30 66B11816 		.word	370717030
 1018 0f34 051D2CFD 		.word	-47440635
 1019 0f38 C5D28F84 		.word	-2070949179
 1020 0f3c 9922FBF6 		.word	-151313767
 1021 0f40 57F323F5 		.word	-182193321
 1022 0f44 237632A6 		.word	-1506642397
 1023 0f48 3135A893 		.word	-1817692879
 1024 0f4c 02CDCC56 		.word	1456262402
 1025 0f50 6281F0AC 		.word	-1393524382
 1026 0f54 B5EB755A 		.word	1517677493
 1027 0f58 9736166E 		.word	1846949527
 1028 0f5c CC73D288 		.word	-1999473716
 1029 0f60 926296DE 		.word	-560569710
 1030 0f64 D049B981 		.word	-2118563376
ARM GAS  C:\Users\dtjld\AppData\Local\Temp\ccQiNuxC.s 			page 19


 1031 0f68 1B90504C 		.word	1280348187
 1032 0f6c 1456C671 		.word	1908823572
 1033 0f70 BDC7C6E6 		.word	-423180355
 1034 0f74 0A147A32 		.word	846861322
 1035 0f78 06D0E145 		.word	1172426758
 1036 0f7c 9A7BF2C3 		.word	-1007518822
 1037 0f80 FD53AAC9 		.word	-911584259
 1038 0f84 000FA862 		.word	1655181056
 1039 0f88 E2BF25BB 		.word	-1155153950
 1040 0f8c F6D2BD35 		.word	901632758
 1041 0f90 05691271 		.word	1897031941
 1042 0f94 220204B2 		.word	-1308360158
 1043 0f98 7CCFCBB6 		.word	-1228157060
 1044 0f9c 2B9C76CD 		.word	-847864789
 1045 0fa0 C03E1153 		.word	1393639104
 1046 0fa4 D3E34016 		.word	373351379
 1047 0fa8 60BDAB38 		.word	950779232
 1048 0fac F0AD4725 		.word	625454576
 1049 0fb0 9C2038BA 		.word	-1170726756
 1050 0fb4 76CE46F7 		.word	-146354570
 1051 0fb8 C5A1AF77 		.word	2007998917
 1052 0fbc 60607520 		.word	544563296
 1053 0fc0 4EFECB85 		.word	-2050228658
 1054 0fc4 D88DE88A 		.word	-1964470824
 1055 0fc8 B0F9AA7A 		.word	2058025392
 1056 0fcc 7EAAF94C 		.word	1291430526
 1057 0fd0 5CC24819 		.word	424198748
 1058 0fd4 8C8AFB02 		.word	50039436
 1059 0fd8 E46AC301 		.word	29584100
 1060 0fdc F9E1EBD6 		.word	-689184263
 1061 0fe0 69F8D490 		.word	-1865090967
 1062 0fe4 A0DE5CA6 		.word	-1503863136
 1063 0fe8 2D25093F 		.word	1057563949
 1064 0fec 9FE608C2 		.word	-1039604065
 1065 0ff0 32614EB7 		.word	-1219600078
 1066 0ff4 5BE277CE 		.word	-831004069
 1067 0ff8 E3DF8F57 		.word	1469046755
 1068 0ffc E672C33A 		.word	985887462
 1069              		.section	.text.F,"ax",%progbits
 1070              		.align	1
 1071              		.syntax unified
 1072              		.thumb
 1073              		.thumb_func
 1074              		.fpu fpv4-sp-d16
 1076              	F:
 1077              	.LFB0:
 1078              		.file 1 "C:/Users/dtjld/workspace/AIoT/src/LiteOS_Lab/iot_link/network/dtls/mbedtls/mbedtls-2.16.2
   1:C:/Users/dtjld/workspace/AIoT/src/LiteOS_Lab/iot_link/network/dtls/mbedtls/mbedtls-2.16.2/library\blowfish.c **** /*
   2:C:/Users/dtjld/workspace/AIoT/src/LiteOS_Lab/iot_link/network/dtls/mbedtls/mbedtls-2.16.2/library\blowfish.c ****  *  Blowfish implementation
   3:C:/Users/dtjld/workspace/AIoT/src/LiteOS_Lab/iot_link/network/dtls/mbedtls/mbedtls-2.16.2/library\blowfish.c ****  *
   4:C:/Users/dtjld/workspace/AIoT/src/LiteOS_Lab/iot_link/network/dtls/mbedtls/mbedtls-2.16.2/library\blowfish.c ****  *  Copyright (C) 2006-2015, ARM Limited, All Rights Reserved
   5:C:/Users/dtjld/workspace/AIoT/src/LiteOS_Lab/iot_link/network/dtls/mbedtls/mbedtls-2.16.2/library\blowfish.c ****  *  SPDX-License-Identifier: Apache-2.0
   6:C:/Users/dtjld/workspace/AIoT/src/LiteOS_Lab/iot_link/network/dtls/mbedtls/mbedtls-2.16.2/library\blowfish.c ****  *
   7:C:/Users/dtjld/workspace/AIoT/src/LiteOS_Lab/iot_link/network/dtls/mbedtls/mbedtls-2.16.2/library\blowfish.c ****  *  Licensed under the Apache License, Version 2.0 (the "License"); you may
   8:C:/Users/dtjld/workspace/AIoT/src/LiteOS_Lab/iot_link/network/dtls/mbedtls/mbedtls-2.16.2/library\blowfish.c ****  *  not use this file except in compliance with the License.
   9:C:/Users/dtjld/workspace/AIoT/src/LiteOS_Lab/iot_link/network/dtls/mbedtls/mbedtls-2.16.2/library\blowfish.c ****  *  You may obtain a copy of the License at
  10:C:/Users/dtjld/workspace/AIoT/src/LiteOS_Lab/iot_link/network/dtls/mbedtls/mbedtls-2.16.2/library\blowfish.c ****  *
ARM GAS  C:\Users\dtjld\AppData\Local\Temp\ccQiNuxC.s 			page 20


  11:C:/Users/dtjld/workspace/AIoT/src/LiteOS_Lab/iot_link/network/dtls/mbedtls/mbedtls-2.16.2/library\blowfish.c ****  *  http://www.apache.org/licenses/LICENSE-2.0
  12:C:/Users/dtjld/workspace/AIoT/src/LiteOS_Lab/iot_link/network/dtls/mbedtls/mbedtls-2.16.2/library\blowfish.c ****  *
  13:C:/Users/dtjld/workspace/AIoT/src/LiteOS_Lab/iot_link/network/dtls/mbedtls/mbedtls-2.16.2/library\blowfish.c ****  *  Unless required by applicable law or agreed to in writing, software
  14:C:/Users/dtjld/workspace/AIoT/src/LiteOS_Lab/iot_link/network/dtls/mbedtls/mbedtls-2.16.2/library\blowfish.c ****  *  distributed under the License is distributed on an "AS IS" BASIS, WITHOUT
  15:C:/Users/dtjld/workspace/AIoT/src/LiteOS_Lab/iot_link/network/dtls/mbedtls/mbedtls-2.16.2/library\blowfish.c ****  *  WARRANTIES OR CONDITIONS OF ANY KIND, either express or implied.
  16:C:/Users/dtjld/workspace/AIoT/src/LiteOS_Lab/iot_link/network/dtls/mbedtls/mbedtls-2.16.2/library\blowfish.c ****  *  See the License for the specific language governing permissions and
  17:C:/Users/dtjld/workspace/AIoT/src/LiteOS_Lab/iot_link/network/dtls/mbedtls/mbedtls-2.16.2/library\blowfish.c ****  *  limitations under the License.
  18:C:/Users/dtjld/workspace/AIoT/src/LiteOS_Lab/iot_link/network/dtls/mbedtls/mbedtls-2.16.2/library\blowfish.c ****  *
  19:C:/Users/dtjld/workspace/AIoT/src/LiteOS_Lab/iot_link/network/dtls/mbedtls/mbedtls-2.16.2/library\blowfish.c ****  *  This file is part of mbed TLS (https://tls.mbed.org)
  20:C:/Users/dtjld/workspace/AIoT/src/LiteOS_Lab/iot_link/network/dtls/mbedtls/mbedtls-2.16.2/library\blowfish.c ****  */
  21:C:/Users/dtjld/workspace/AIoT/src/LiteOS_Lab/iot_link/network/dtls/mbedtls/mbedtls-2.16.2/library\blowfish.c **** /*
  22:C:/Users/dtjld/workspace/AIoT/src/LiteOS_Lab/iot_link/network/dtls/mbedtls/mbedtls-2.16.2/library\blowfish.c ****  *  The Blowfish block cipher was designed by Bruce Schneier in 1993.
  23:C:/Users/dtjld/workspace/AIoT/src/LiteOS_Lab/iot_link/network/dtls/mbedtls/mbedtls-2.16.2/library\blowfish.c ****  *  http://www.schneier.com/blowfish.html
  24:C:/Users/dtjld/workspace/AIoT/src/LiteOS_Lab/iot_link/network/dtls/mbedtls/mbedtls-2.16.2/library\blowfish.c ****  *  http://en.wikipedia.org/wiki/Blowfish_%28cipher%29
  25:C:/Users/dtjld/workspace/AIoT/src/LiteOS_Lab/iot_link/network/dtls/mbedtls/mbedtls-2.16.2/library\blowfish.c ****  *
  26:C:/Users/dtjld/workspace/AIoT/src/LiteOS_Lab/iot_link/network/dtls/mbedtls/mbedtls-2.16.2/library\blowfish.c ****  */
  27:C:/Users/dtjld/workspace/AIoT/src/LiteOS_Lab/iot_link/network/dtls/mbedtls/mbedtls-2.16.2/library\blowfish.c **** 
  28:C:/Users/dtjld/workspace/AIoT/src/LiteOS_Lab/iot_link/network/dtls/mbedtls/mbedtls-2.16.2/library\blowfish.c **** #if !defined(MBEDTLS_CONFIG_FILE)
  29:C:/Users/dtjld/workspace/AIoT/src/LiteOS_Lab/iot_link/network/dtls/mbedtls/mbedtls-2.16.2/library\blowfish.c **** #include "mbedtls/config.h"
  30:C:/Users/dtjld/workspace/AIoT/src/LiteOS_Lab/iot_link/network/dtls/mbedtls/mbedtls-2.16.2/library\blowfish.c **** #else
  31:C:/Users/dtjld/workspace/AIoT/src/LiteOS_Lab/iot_link/network/dtls/mbedtls/mbedtls-2.16.2/library\blowfish.c **** #include MBEDTLS_CONFIG_FILE
  32:C:/Users/dtjld/workspace/AIoT/src/LiteOS_Lab/iot_link/network/dtls/mbedtls/mbedtls-2.16.2/library\blowfish.c **** #endif
  33:C:/Users/dtjld/workspace/AIoT/src/LiteOS_Lab/iot_link/network/dtls/mbedtls/mbedtls-2.16.2/library\blowfish.c **** 
  34:C:/Users/dtjld/workspace/AIoT/src/LiteOS_Lab/iot_link/network/dtls/mbedtls/mbedtls-2.16.2/library\blowfish.c **** #if defined(MBEDTLS_BLOWFISH_C)
  35:C:/Users/dtjld/workspace/AIoT/src/LiteOS_Lab/iot_link/network/dtls/mbedtls/mbedtls-2.16.2/library\blowfish.c **** 
  36:C:/Users/dtjld/workspace/AIoT/src/LiteOS_Lab/iot_link/network/dtls/mbedtls/mbedtls-2.16.2/library\blowfish.c **** #include "mbedtls/blowfish.h"
  37:C:/Users/dtjld/workspace/AIoT/src/LiteOS_Lab/iot_link/network/dtls/mbedtls/mbedtls-2.16.2/library\blowfish.c **** #include "mbedtls/platform_util.h"
  38:C:/Users/dtjld/workspace/AIoT/src/LiteOS_Lab/iot_link/network/dtls/mbedtls/mbedtls-2.16.2/library\blowfish.c **** 
  39:C:/Users/dtjld/workspace/AIoT/src/LiteOS_Lab/iot_link/network/dtls/mbedtls/mbedtls-2.16.2/library\blowfish.c **** #include <string.h>
  40:C:/Users/dtjld/workspace/AIoT/src/LiteOS_Lab/iot_link/network/dtls/mbedtls/mbedtls-2.16.2/library\blowfish.c **** 
  41:C:/Users/dtjld/workspace/AIoT/src/LiteOS_Lab/iot_link/network/dtls/mbedtls/mbedtls-2.16.2/library\blowfish.c **** #if !defined(MBEDTLS_BLOWFISH_ALT)
  42:C:/Users/dtjld/workspace/AIoT/src/LiteOS_Lab/iot_link/network/dtls/mbedtls/mbedtls-2.16.2/library\blowfish.c **** 
  43:C:/Users/dtjld/workspace/AIoT/src/LiteOS_Lab/iot_link/network/dtls/mbedtls/mbedtls-2.16.2/library\blowfish.c **** /* Parameter validation macros */
  44:C:/Users/dtjld/workspace/AIoT/src/LiteOS_Lab/iot_link/network/dtls/mbedtls/mbedtls-2.16.2/library\blowfish.c **** #define BLOWFISH_VALIDATE_RET( cond )                                       \
  45:C:/Users/dtjld/workspace/AIoT/src/LiteOS_Lab/iot_link/network/dtls/mbedtls/mbedtls-2.16.2/library\blowfish.c ****     MBEDTLS_INTERNAL_VALIDATE_RET( cond, MBEDTLS_ERR_BLOWFISH_BAD_INPUT_DATA )
  46:C:/Users/dtjld/workspace/AIoT/src/LiteOS_Lab/iot_link/network/dtls/mbedtls/mbedtls-2.16.2/library\blowfish.c **** #define BLOWFISH_VALIDATE( cond )                                           \
  47:C:/Users/dtjld/workspace/AIoT/src/LiteOS_Lab/iot_link/network/dtls/mbedtls/mbedtls-2.16.2/library\blowfish.c ****     MBEDTLS_INTERNAL_VALIDATE( cond )
  48:C:/Users/dtjld/workspace/AIoT/src/LiteOS_Lab/iot_link/network/dtls/mbedtls/mbedtls-2.16.2/library\blowfish.c **** 
  49:C:/Users/dtjld/workspace/AIoT/src/LiteOS_Lab/iot_link/network/dtls/mbedtls/mbedtls-2.16.2/library\blowfish.c **** /*
  50:C:/Users/dtjld/workspace/AIoT/src/LiteOS_Lab/iot_link/network/dtls/mbedtls/mbedtls-2.16.2/library\blowfish.c ****  * 32-bit integer manipulation macros (big endian)
  51:C:/Users/dtjld/workspace/AIoT/src/LiteOS_Lab/iot_link/network/dtls/mbedtls/mbedtls-2.16.2/library\blowfish.c ****  */
  52:C:/Users/dtjld/workspace/AIoT/src/LiteOS_Lab/iot_link/network/dtls/mbedtls/mbedtls-2.16.2/library\blowfish.c **** #ifndef GET_UINT32_BE
  53:C:/Users/dtjld/workspace/AIoT/src/LiteOS_Lab/iot_link/network/dtls/mbedtls/mbedtls-2.16.2/library\blowfish.c **** #define GET_UINT32_BE(n,b,i)                            \
  54:C:/Users/dtjld/workspace/AIoT/src/LiteOS_Lab/iot_link/network/dtls/mbedtls/mbedtls-2.16.2/library\blowfish.c **** {                                                       \
  55:C:/Users/dtjld/workspace/AIoT/src/LiteOS_Lab/iot_link/network/dtls/mbedtls/mbedtls-2.16.2/library\blowfish.c ****     (n) = ( (uint32_t) (b)[(i)    ] << 24 )             \
  56:C:/Users/dtjld/workspace/AIoT/src/LiteOS_Lab/iot_link/network/dtls/mbedtls/mbedtls-2.16.2/library\blowfish.c ****         | ( (uint32_t) (b)[(i) + 1] << 16 )             \
  57:C:/Users/dtjld/workspace/AIoT/src/LiteOS_Lab/iot_link/network/dtls/mbedtls/mbedtls-2.16.2/library\blowfish.c ****         | ( (uint32_t) (b)[(i) + 2] <<  8 )             \
  58:C:/Users/dtjld/workspace/AIoT/src/LiteOS_Lab/iot_link/network/dtls/mbedtls/mbedtls-2.16.2/library\blowfish.c ****         | ( (uint32_t) (b)[(i) + 3]       );            \
  59:C:/Users/dtjld/workspace/AIoT/src/LiteOS_Lab/iot_link/network/dtls/mbedtls/mbedtls-2.16.2/library\blowfish.c **** }
  60:C:/Users/dtjld/workspace/AIoT/src/LiteOS_Lab/iot_link/network/dtls/mbedtls/mbedtls-2.16.2/library\blowfish.c **** #endif
  61:C:/Users/dtjld/workspace/AIoT/src/LiteOS_Lab/iot_link/network/dtls/mbedtls/mbedtls-2.16.2/library\blowfish.c **** 
  62:C:/Users/dtjld/workspace/AIoT/src/LiteOS_Lab/iot_link/network/dtls/mbedtls/mbedtls-2.16.2/library\blowfish.c **** #ifndef PUT_UINT32_BE
  63:C:/Users/dtjld/workspace/AIoT/src/LiteOS_Lab/iot_link/network/dtls/mbedtls/mbedtls-2.16.2/library\blowfish.c **** #define PUT_UINT32_BE(n,b,i)                            \
  64:C:/Users/dtjld/workspace/AIoT/src/LiteOS_Lab/iot_link/network/dtls/mbedtls/mbedtls-2.16.2/library\blowfish.c **** {                                                       \
  65:C:/Users/dtjld/workspace/AIoT/src/LiteOS_Lab/iot_link/network/dtls/mbedtls/mbedtls-2.16.2/library\blowfish.c ****     (b)[(i)    ] = (unsigned char) ( (n) >> 24 );       \
  66:C:/Users/dtjld/workspace/AIoT/src/LiteOS_Lab/iot_link/network/dtls/mbedtls/mbedtls-2.16.2/library\blowfish.c ****     (b)[(i) + 1] = (unsigned char) ( (n) >> 16 );       \
  67:C:/Users/dtjld/workspace/AIoT/src/LiteOS_Lab/iot_link/network/dtls/mbedtls/mbedtls-2.16.2/library\blowfish.c ****     (b)[(i) + 2] = (unsigned char) ( (n) >>  8 );       \
ARM GAS  C:\Users\dtjld\AppData\Local\Temp\ccQiNuxC.s 			page 21


  68:C:/Users/dtjld/workspace/AIoT/src/LiteOS_Lab/iot_link/network/dtls/mbedtls/mbedtls-2.16.2/library\blowfish.c ****     (b)[(i) + 3] = (unsigned char) ( (n)       );       \
  69:C:/Users/dtjld/workspace/AIoT/src/LiteOS_Lab/iot_link/network/dtls/mbedtls/mbedtls-2.16.2/library\blowfish.c **** }
  70:C:/Users/dtjld/workspace/AIoT/src/LiteOS_Lab/iot_link/network/dtls/mbedtls/mbedtls-2.16.2/library\blowfish.c **** #endif
  71:C:/Users/dtjld/workspace/AIoT/src/LiteOS_Lab/iot_link/network/dtls/mbedtls/mbedtls-2.16.2/library\blowfish.c **** 
  72:C:/Users/dtjld/workspace/AIoT/src/LiteOS_Lab/iot_link/network/dtls/mbedtls/mbedtls-2.16.2/library\blowfish.c **** static const uint32_t P[MBEDTLS_BLOWFISH_ROUNDS + 2] = {
  73:C:/Users/dtjld/workspace/AIoT/src/LiteOS_Lab/iot_link/network/dtls/mbedtls/mbedtls-2.16.2/library\blowfish.c ****         0x243F6A88L, 0x85A308D3L, 0x13198A2EL, 0x03707344L,
  74:C:/Users/dtjld/workspace/AIoT/src/LiteOS_Lab/iot_link/network/dtls/mbedtls/mbedtls-2.16.2/library\blowfish.c ****         0xA4093822L, 0x299F31D0L, 0x082EFA98L, 0xEC4E6C89L,
  75:C:/Users/dtjld/workspace/AIoT/src/LiteOS_Lab/iot_link/network/dtls/mbedtls/mbedtls-2.16.2/library\blowfish.c ****         0x452821E6L, 0x38D01377L, 0xBE5466CFL, 0x34E90C6CL,
  76:C:/Users/dtjld/workspace/AIoT/src/LiteOS_Lab/iot_link/network/dtls/mbedtls/mbedtls-2.16.2/library\blowfish.c ****         0xC0AC29B7L, 0xC97C50DDL, 0x3F84D5B5L, 0xB5470917L,
  77:C:/Users/dtjld/workspace/AIoT/src/LiteOS_Lab/iot_link/network/dtls/mbedtls/mbedtls-2.16.2/library\blowfish.c ****         0x9216D5D9L, 0x8979FB1BL
  78:C:/Users/dtjld/workspace/AIoT/src/LiteOS_Lab/iot_link/network/dtls/mbedtls/mbedtls-2.16.2/library\blowfish.c **** };
  79:C:/Users/dtjld/workspace/AIoT/src/LiteOS_Lab/iot_link/network/dtls/mbedtls/mbedtls-2.16.2/library\blowfish.c **** 
  80:C:/Users/dtjld/workspace/AIoT/src/LiteOS_Lab/iot_link/network/dtls/mbedtls/mbedtls-2.16.2/library\blowfish.c **** /* declarations of data at the end of this file */
  81:C:/Users/dtjld/workspace/AIoT/src/LiteOS_Lab/iot_link/network/dtls/mbedtls/mbedtls-2.16.2/library\blowfish.c **** static const uint32_t S[4][256];
  82:C:/Users/dtjld/workspace/AIoT/src/LiteOS_Lab/iot_link/network/dtls/mbedtls/mbedtls-2.16.2/library\blowfish.c **** 
  83:C:/Users/dtjld/workspace/AIoT/src/LiteOS_Lab/iot_link/network/dtls/mbedtls/mbedtls-2.16.2/library\blowfish.c **** static uint32_t F( mbedtls_blowfish_context *ctx, uint32_t x )
  84:C:/Users/dtjld/workspace/AIoT/src/LiteOS_Lab/iot_link/network/dtls/mbedtls/mbedtls-2.16.2/library\blowfish.c **** {
 1079              		.loc 1 84 0
 1080              		.cfi_startproc
 1081              		@ args = 0, pretend = 0, frame = 24
 1082              		@ frame_needed = 1, uses_anonymous_args = 0
 1083              		@ link register save eliminated.
 1084 0000 80B4     		push	{r7}
 1085              	.LCFI0:
 1086              		.cfi_def_cfa_offset 4
 1087              		.cfi_offset 7, -4
 1088 0002 87B0     		sub	sp, sp, #28
 1089              	.LCFI1:
 1090              		.cfi_def_cfa_offset 32
 1091 0004 00AF     		add	r7, sp, #0
 1092              	.LCFI2:
 1093              		.cfi_def_cfa_register 7
 1094 0006 7860     		str	r0, [r7, #4]
 1095 0008 3960     		str	r1, [r7]
  85:C:/Users/dtjld/workspace/AIoT/src/LiteOS_Lab/iot_link/network/dtls/mbedtls/mbedtls-2.16.2/library\blowfish.c ****    unsigned short a, b, c, d;
  86:C:/Users/dtjld/workspace/AIoT/src/LiteOS_Lab/iot_link/network/dtls/mbedtls/mbedtls-2.16.2/library\blowfish.c ****    uint32_t  y;
  87:C:/Users/dtjld/workspace/AIoT/src/LiteOS_Lab/iot_link/network/dtls/mbedtls/mbedtls-2.16.2/library\blowfish.c **** 
  88:C:/Users/dtjld/workspace/AIoT/src/LiteOS_Lab/iot_link/network/dtls/mbedtls/mbedtls-2.16.2/library\blowfish.c ****    d = (unsigned short)(x & 0xFF);
 1096              		.loc 1 88 0
 1097 000a 3B68     		ldr	r3, [r7]
 1098 000c 9BB2     		uxth	r3, r3
 1099 000e DBB2     		uxtb	r3, r3
 1100 0010 FB82     		strh	r3, [r7, #22]	@ movhi
  89:C:/Users/dtjld/workspace/AIoT/src/LiteOS_Lab/iot_link/network/dtls/mbedtls/mbedtls-2.16.2/library\blowfish.c ****    x >>= 8;
 1101              		.loc 1 89 0
 1102 0012 3B68     		ldr	r3, [r7]
 1103 0014 1B0A     		lsrs	r3, r3, #8
 1104 0016 3B60     		str	r3, [r7]
  90:C:/Users/dtjld/workspace/AIoT/src/LiteOS_Lab/iot_link/network/dtls/mbedtls/mbedtls-2.16.2/library\blowfish.c ****    c = (unsigned short)(x & 0xFF);
 1105              		.loc 1 90 0
 1106 0018 3B68     		ldr	r3, [r7]
 1107 001a 9BB2     		uxth	r3, r3
 1108 001c DBB2     		uxtb	r3, r3
 1109 001e BB82     		strh	r3, [r7, #20]	@ movhi
  91:C:/Users/dtjld/workspace/AIoT/src/LiteOS_Lab/iot_link/network/dtls/mbedtls/mbedtls-2.16.2/library\blowfish.c ****    x >>= 8;
 1110              		.loc 1 91 0
 1111 0020 3B68     		ldr	r3, [r7]
ARM GAS  C:\Users\dtjld\AppData\Local\Temp\ccQiNuxC.s 			page 22


 1112 0022 1B0A     		lsrs	r3, r3, #8
 1113 0024 3B60     		str	r3, [r7]
  92:C:/Users/dtjld/workspace/AIoT/src/LiteOS_Lab/iot_link/network/dtls/mbedtls/mbedtls-2.16.2/library\blowfish.c ****    b = (unsigned short)(x & 0xFF);
 1114              		.loc 1 92 0
 1115 0026 3B68     		ldr	r3, [r7]
 1116 0028 9BB2     		uxth	r3, r3
 1117 002a DBB2     		uxtb	r3, r3
 1118 002c 7B82     		strh	r3, [r7, #18]	@ movhi
  93:C:/Users/dtjld/workspace/AIoT/src/LiteOS_Lab/iot_link/network/dtls/mbedtls/mbedtls-2.16.2/library\blowfish.c ****    x >>= 8;
 1119              		.loc 1 93 0
 1120 002e 3B68     		ldr	r3, [r7]
 1121 0030 1B0A     		lsrs	r3, r3, #8
 1122 0032 3B60     		str	r3, [r7]
  94:C:/Users/dtjld/workspace/AIoT/src/LiteOS_Lab/iot_link/network/dtls/mbedtls/mbedtls-2.16.2/library\blowfish.c ****    a = (unsigned short)(x & 0xFF);
 1123              		.loc 1 94 0
 1124 0034 3B68     		ldr	r3, [r7]
 1125 0036 9BB2     		uxth	r3, r3
 1126 0038 DBB2     		uxtb	r3, r3
 1127 003a 3B82     		strh	r3, [r7, #16]	@ movhi
  95:C:/Users/dtjld/workspace/AIoT/src/LiteOS_Lab/iot_link/network/dtls/mbedtls/mbedtls-2.16.2/library\blowfish.c ****    y = ctx->S[0][a] + ctx->S[1][b];
 1128              		.loc 1 95 0
 1129 003c 3A8A     		ldrh	r2, [r7, #16]
 1130 003e 7B68     		ldr	r3, [r7, #4]
 1131 0040 1232     		adds	r2, r2, #18
 1132 0042 53F82220 		ldr	r2, [r3, r2, lsl #2]
 1133 0046 798A     		ldrh	r1, [r7, #18]
 1134 0048 7B68     		ldr	r3, [r7, #4]
 1135 004a 01F58971 		add	r1, r1, #274
 1136 004e 53F82130 		ldr	r3, [r3, r1, lsl #2]
 1137 0052 1344     		add	r3, r3, r2
 1138 0054 FB60     		str	r3, [r7, #12]
  96:C:/Users/dtjld/workspace/AIoT/src/LiteOS_Lab/iot_link/network/dtls/mbedtls/mbedtls-2.16.2/library\blowfish.c ****    y = y ^ ctx->S[2][c];
 1139              		.loc 1 96 0
 1140 0056 BA8A     		ldrh	r2, [r7, #20]
 1141 0058 7B68     		ldr	r3, [r7, #4]
 1142 005a 02F21222 		addw	r2, r2, #530
 1143 005e 53F82230 		ldr	r3, [r3, r2, lsl #2]
 1144 0062 FA68     		ldr	r2, [r7, #12]
 1145 0064 5340     		eors	r3, r3, r2
 1146 0066 FB60     		str	r3, [r7, #12]
  97:C:/Users/dtjld/workspace/AIoT/src/LiteOS_Lab/iot_link/network/dtls/mbedtls/mbedtls-2.16.2/library\blowfish.c ****    y = y + ctx->S[3][d];
 1147              		.loc 1 97 0
 1148 0068 FA8A     		ldrh	r2, [r7, #22]
 1149 006a 7B68     		ldr	r3, [r7, #4]
 1150 006c 02F21232 		addw	r2, r2, #786
 1151 0070 53F82230 		ldr	r3, [r3, r2, lsl #2]
 1152 0074 FA68     		ldr	r2, [r7, #12]
 1153 0076 1344     		add	r3, r3, r2
 1154 0078 FB60     		str	r3, [r7, #12]
  98:C:/Users/dtjld/workspace/AIoT/src/LiteOS_Lab/iot_link/network/dtls/mbedtls/mbedtls-2.16.2/library\blowfish.c **** 
  99:C:/Users/dtjld/workspace/AIoT/src/LiteOS_Lab/iot_link/network/dtls/mbedtls/mbedtls-2.16.2/library\blowfish.c ****    return( y );
 1155              		.loc 1 99 0
 1156 007a FB68     		ldr	r3, [r7, #12]
 100:C:/Users/dtjld/workspace/AIoT/src/LiteOS_Lab/iot_link/network/dtls/mbedtls/mbedtls-2.16.2/library\blowfish.c **** }
 1157              		.loc 1 100 0
 1158 007c 1846     		mov	r0, r3
 1159 007e 1C37     		adds	r7, r7, #28
ARM GAS  C:\Users\dtjld\AppData\Local\Temp\ccQiNuxC.s 			page 23


 1160              	.LCFI3:
 1161              		.cfi_def_cfa_offset 4
 1162 0080 BD46     		mov	sp, r7
 1163              	.LCFI4:
 1164              		.cfi_def_cfa_register 13
 1165              		@ sp needed
 1166 0082 5DF8047B 		ldr	r7, [sp], #4
 1167              	.LCFI5:
 1168              		.cfi_restore 7
 1169              		.cfi_def_cfa_offset 0
 1170 0086 7047     		bx	lr
 1171              		.cfi_endproc
 1172              	.LFE0:
 1174              		.section	.text.blowfish_enc,"ax",%progbits
 1175              		.align	1
 1176              		.syntax unified
 1177              		.thumb
 1178              		.thumb_func
 1179              		.fpu fpv4-sp-d16
 1181              	blowfish_enc:
 1182              	.LFB1:
 101:C:/Users/dtjld/workspace/AIoT/src/LiteOS_Lab/iot_link/network/dtls/mbedtls/mbedtls-2.16.2/library\blowfish.c **** 
 102:C:/Users/dtjld/workspace/AIoT/src/LiteOS_Lab/iot_link/network/dtls/mbedtls/mbedtls-2.16.2/library\blowfish.c **** static void blowfish_enc( mbedtls_blowfish_context *ctx, uint32_t *xl, uint32_t *xr )
 103:C:/Users/dtjld/workspace/AIoT/src/LiteOS_Lab/iot_link/network/dtls/mbedtls/mbedtls-2.16.2/library\blowfish.c **** {
 1183              		.loc 1 103 0
 1184              		.cfi_startproc
 1185              		@ args = 0, pretend = 0, frame = 32
 1186              		@ frame_needed = 1, uses_anonymous_args = 0
 1187 0000 80B5     		push	{r7, lr}
 1188              	.LCFI6:
 1189              		.cfi_def_cfa_offset 8
 1190              		.cfi_offset 7, -8
 1191              		.cfi_offset 14, -4
 1192 0002 88B0     		sub	sp, sp, #32
 1193              	.LCFI7:
 1194              		.cfi_def_cfa_offset 40
 1195 0004 00AF     		add	r7, sp, #0
 1196              	.LCFI8:
 1197              		.cfi_def_cfa_register 7
 1198 0006 F860     		str	r0, [r7, #12]
 1199 0008 B960     		str	r1, [r7, #8]
 1200 000a 7A60     		str	r2, [r7, #4]
 104:C:/Users/dtjld/workspace/AIoT/src/LiteOS_Lab/iot_link/network/dtls/mbedtls/mbedtls-2.16.2/library\blowfish.c ****     uint32_t  Xl, Xr, temp;
 105:C:/Users/dtjld/workspace/AIoT/src/LiteOS_Lab/iot_link/network/dtls/mbedtls/mbedtls-2.16.2/library\blowfish.c ****     short i;
 106:C:/Users/dtjld/workspace/AIoT/src/LiteOS_Lab/iot_link/network/dtls/mbedtls/mbedtls-2.16.2/library\blowfish.c **** 
 107:C:/Users/dtjld/workspace/AIoT/src/LiteOS_Lab/iot_link/network/dtls/mbedtls/mbedtls-2.16.2/library\blowfish.c ****     Xl = *xl;
 1201              		.loc 1 107 0
 1202 000c BB68     		ldr	r3, [r7, #8]
 1203 000e 1B68     		ldr	r3, [r3]
 1204 0010 FB61     		str	r3, [r7, #28]
 108:C:/Users/dtjld/workspace/AIoT/src/LiteOS_Lab/iot_link/network/dtls/mbedtls/mbedtls-2.16.2/library\blowfish.c ****     Xr = *xr;
 1205              		.loc 1 108 0
 1206 0012 7B68     		ldr	r3, [r7, #4]
 1207 0014 1B68     		ldr	r3, [r3]
 1208 0016 BB61     		str	r3, [r7, #24]
 109:C:/Users/dtjld/workspace/AIoT/src/LiteOS_Lab/iot_link/network/dtls/mbedtls/mbedtls-2.16.2/library\blowfish.c **** 
 110:C:/Users/dtjld/workspace/AIoT/src/LiteOS_Lab/iot_link/network/dtls/mbedtls/mbedtls-2.16.2/library\blowfish.c ****     for( i = 0; i < MBEDTLS_BLOWFISH_ROUNDS; ++i )
ARM GAS  C:\Users\dtjld\AppData\Local\Temp\ccQiNuxC.s 			page 24


 1209              		.loc 1 110 0
 1210 0018 0023     		movs	r3, #0
 1211 001a FB82     		strh	r3, [r7, #22]	@ movhi
 1212 001c 19E0     		b	.L4
 1213              	.L5:
 111:C:/Users/dtjld/workspace/AIoT/src/LiteOS_Lab/iot_link/network/dtls/mbedtls/mbedtls-2.16.2/library\blowfish.c ****     {
 112:C:/Users/dtjld/workspace/AIoT/src/LiteOS_Lab/iot_link/network/dtls/mbedtls/mbedtls-2.16.2/library\blowfish.c ****         Xl = Xl ^ ctx->P[i];
 1214              		.loc 1 112 0 discriminator 3
 1215 001e B7F91620 		ldrsh	r2, [r7, #22]
 1216 0022 FB68     		ldr	r3, [r7, #12]
 1217 0024 53F82230 		ldr	r3, [r3, r2, lsl #2]
 1218 0028 FA69     		ldr	r2, [r7, #28]
 1219 002a 5340     		eors	r3, r3, r2
 1220 002c FB61     		str	r3, [r7, #28]
 113:C:/Users/dtjld/workspace/AIoT/src/LiteOS_Lab/iot_link/network/dtls/mbedtls/mbedtls-2.16.2/library\blowfish.c ****         Xr = F( ctx, Xl ) ^ Xr;
 1221              		.loc 1 113 0 discriminator 3
 1222 002e F969     		ldr	r1, [r7, #28]
 1223 0030 F868     		ldr	r0, [r7, #12]
 1224 0032 FFF7FEFF 		bl	F
 1225 0036 0246     		mov	r2, r0
 1226 0038 BB69     		ldr	r3, [r7, #24]
 1227 003a 5340     		eors	r3, r3, r2
 1228 003c BB61     		str	r3, [r7, #24]
 114:C:/Users/dtjld/workspace/AIoT/src/LiteOS_Lab/iot_link/network/dtls/mbedtls/mbedtls-2.16.2/library\blowfish.c **** 
 115:C:/Users/dtjld/workspace/AIoT/src/LiteOS_Lab/iot_link/network/dtls/mbedtls/mbedtls-2.16.2/library\blowfish.c ****         temp = Xl;
 1229              		.loc 1 115 0 discriminator 3
 1230 003e FB69     		ldr	r3, [r7, #28]
 1231 0040 3B61     		str	r3, [r7, #16]
 116:C:/Users/dtjld/workspace/AIoT/src/LiteOS_Lab/iot_link/network/dtls/mbedtls/mbedtls-2.16.2/library\blowfish.c ****         Xl = Xr;
 1232              		.loc 1 116 0 discriminator 3
 1233 0042 BB69     		ldr	r3, [r7, #24]
 1234 0044 FB61     		str	r3, [r7, #28]
 117:C:/Users/dtjld/workspace/AIoT/src/LiteOS_Lab/iot_link/network/dtls/mbedtls/mbedtls-2.16.2/library\blowfish.c ****         Xr = temp;
 1235              		.loc 1 117 0 discriminator 3
 1236 0046 3B69     		ldr	r3, [r7, #16]
 1237 0048 BB61     		str	r3, [r7, #24]
 110:C:/Users/dtjld/workspace/AIoT/src/LiteOS_Lab/iot_link/network/dtls/mbedtls/mbedtls-2.16.2/library\blowfish.c ****     {
 1238              		.loc 1 110 0 discriminator 3
 1239 004a FB8A     		ldrh	r3, [r7, #22]
 1240 004c 0133     		adds	r3, r3, #1
 1241 004e 9BB2     		uxth	r3, r3
 1242 0050 FB82     		strh	r3, [r7, #22]	@ movhi
 1243              	.L4:
 110:C:/Users/dtjld/workspace/AIoT/src/LiteOS_Lab/iot_link/network/dtls/mbedtls/mbedtls-2.16.2/library\blowfish.c ****     {
 1244              		.loc 1 110 0 is_stmt 0 discriminator 1
 1245 0052 B7F91630 		ldrsh	r3, [r7, #22]
 1246 0056 0F2B     		cmp	r3, #15
 1247 0058 E1DD     		ble	.L5
 118:C:/Users/dtjld/workspace/AIoT/src/LiteOS_Lab/iot_link/network/dtls/mbedtls/mbedtls-2.16.2/library\blowfish.c ****     }
 119:C:/Users/dtjld/workspace/AIoT/src/LiteOS_Lab/iot_link/network/dtls/mbedtls/mbedtls-2.16.2/library\blowfish.c **** 
 120:C:/Users/dtjld/workspace/AIoT/src/LiteOS_Lab/iot_link/network/dtls/mbedtls/mbedtls-2.16.2/library\blowfish.c ****     temp = Xl;
 1248              		.loc 1 120 0 is_stmt 1
 1249 005a FB69     		ldr	r3, [r7, #28]
 1250 005c 3B61     		str	r3, [r7, #16]
 121:C:/Users/dtjld/workspace/AIoT/src/LiteOS_Lab/iot_link/network/dtls/mbedtls/mbedtls-2.16.2/library\blowfish.c ****     Xl = Xr;
 1251              		.loc 1 121 0
 1252 005e BB69     		ldr	r3, [r7, #24]
ARM GAS  C:\Users\dtjld\AppData\Local\Temp\ccQiNuxC.s 			page 25


 1253 0060 FB61     		str	r3, [r7, #28]
 122:C:/Users/dtjld/workspace/AIoT/src/LiteOS_Lab/iot_link/network/dtls/mbedtls/mbedtls-2.16.2/library\blowfish.c ****     Xr = temp;
 1254              		.loc 1 122 0
 1255 0062 3B69     		ldr	r3, [r7, #16]
 1256 0064 BB61     		str	r3, [r7, #24]
 123:C:/Users/dtjld/workspace/AIoT/src/LiteOS_Lab/iot_link/network/dtls/mbedtls/mbedtls-2.16.2/library\blowfish.c **** 
 124:C:/Users/dtjld/workspace/AIoT/src/LiteOS_Lab/iot_link/network/dtls/mbedtls/mbedtls-2.16.2/library\blowfish.c ****     Xr = Xr ^ ctx->P[MBEDTLS_BLOWFISH_ROUNDS];
 1257              		.loc 1 124 0
 1258 0066 FB68     		ldr	r3, [r7, #12]
 1259 0068 1B6C     		ldr	r3, [r3, #64]
 1260 006a BA69     		ldr	r2, [r7, #24]
 1261 006c 5340     		eors	r3, r3, r2
 1262 006e BB61     		str	r3, [r7, #24]
 125:C:/Users/dtjld/workspace/AIoT/src/LiteOS_Lab/iot_link/network/dtls/mbedtls/mbedtls-2.16.2/library\blowfish.c ****     Xl = Xl ^ ctx->P[MBEDTLS_BLOWFISH_ROUNDS + 1];
 1263              		.loc 1 125 0
 1264 0070 FB68     		ldr	r3, [r7, #12]
 1265 0072 5B6C     		ldr	r3, [r3, #68]
 1266 0074 FA69     		ldr	r2, [r7, #28]
 1267 0076 5340     		eors	r3, r3, r2
 1268 0078 FB61     		str	r3, [r7, #28]
 126:C:/Users/dtjld/workspace/AIoT/src/LiteOS_Lab/iot_link/network/dtls/mbedtls/mbedtls-2.16.2/library\blowfish.c **** 
 127:C:/Users/dtjld/workspace/AIoT/src/LiteOS_Lab/iot_link/network/dtls/mbedtls/mbedtls-2.16.2/library\blowfish.c ****     *xl = Xl;
 1269              		.loc 1 127 0
 1270 007a BB68     		ldr	r3, [r7, #8]
 1271 007c FA69     		ldr	r2, [r7, #28]
 1272 007e 1A60     		str	r2, [r3]
 128:C:/Users/dtjld/workspace/AIoT/src/LiteOS_Lab/iot_link/network/dtls/mbedtls/mbedtls-2.16.2/library\blowfish.c ****     *xr = Xr;
 1273              		.loc 1 128 0
 1274 0080 7B68     		ldr	r3, [r7, #4]
 1275 0082 BA69     		ldr	r2, [r7, #24]
 1276 0084 1A60     		str	r2, [r3]
 129:C:/Users/dtjld/workspace/AIoT/src/LiteOS_Lab/iot_link/network/dtls/mbedtls/mbedtls-2.16.2/library\blowfish.c **** }
 1277              		.loc 1 129 0
 1278 0086 00BF     		nop
 1279 0088 2037     		adds	r7, r7, #32
 1280              	.LCFI9:
 1281              		.cfi_def_cfa_offset 8
 1282 008a BD46     		mov	sp, r7
 1283              	.LCFI10:
 1284              		.cfi_def_cfa_register 13
 1285              		@ sp needed
 1286 008c 80BD     		pop	{r7, pc}
 1287              		.cfi_endproc
 1288              	.LFE1:
 1290              		.section	.text.blowfish_dec,"ax",%progbits
 1291              		.align	1
 1292              		.syntax unified
 1293              		.thumb
 1294              		.thumb_func
 1295              		.fpu fpv4-sp-d16
 1297              	blowfish_dec:
 1298              	.LFB2:
 130:C:/Users/dtjld/workspace/AIoT/src/LiteOS_Lab/iot_link/network/dtls/mbedtls/mbedtls-2.16.2/library\blowfish.c **** 
 131:C:/Users/dtjld/workspace/AIoT/src/LiteOS_Lab/iot_link/network/dtls/mbedtls/mbedtls-2.16.2/library\blowfish.c **** static void blowfish_dec( mbedtls_blowfish_context *ctx, uint32_t *xl, uint32_t *xr )
 132:C:/Users/dtjld/workspace/AIoT/src/LiteOS_Lab/iot_link/network/dtls/mbedtls/mbedtls-2.16.2/library\blowfish.c **** {
 1299              		.loc 1 132 0
 1300              		.cfi_startproc
ARM GAS  C:\Users\dtjld\AppData\Local\Temp\ccQiNuxC.s 			page 26


 1301              		@ args = 0, pretend = 0, frame = 32
 1302              		@ frame_needed = 1, uses_anonymous_args = 0
 1303 0000 80B5     		push	{r7, lr}
 1304              	.LCFI11:
 1305              		.cfi_def_cfa_offset 8
 1306              		.cfi_offset 7, -8
 1307              		.cfi_offset 14, -4
 1308 0002 88B0     		sub	sp, sp, #32
 1309              	.LCFI12:
 1310              		.cfi_def_cfa_offset 40
 1311 0004 00AF     		add	r7, sp, #0
 1312              	.LCFI13:
 1313              		.cfi_def_cfa_register 7
 1314 0006 F860     		str	r0, [r7, #12]
 1315 0008 B960     		str	r1, [r7, #8]
 1316 000a 7A60     		str	r2, [r7, #4]
 133:C:/Users/dtjld/workspace/AIoT/src/LiteOS_Lab/iot_link/network/dtls/mbedtls/mbedtls-2.16.2/library\blowfish.c ****     uint32_t  Xl, Xr, temp;
 134:C:/Users/dtjld/workspace/AIoT/src/LiteOS_Lab/iot_link/network/dtls/mbedtls/mbedtls-2.16.2/library\blowfish.c ****     short i;
 135:C:/Users/dtjld/workspace/AIoT/src/LiteOS_Lab/iot_link/network/dtls/mbedtls/mbedtls-2.16.2/library\blowfish.c **** 
 136:C:/Users/dtjld/workspace/AIoT/src/LiteOS_Lab/iot_link/network/dtls/mbedtls/mbedtls-2.16.2/library\blowfish.c ****     Xl = *xl;
 1317              		.loc 1 136 0
 1318 000c BB68     		ldr	r3, [r7, #8]
 1319 000e 1B68     		ldr	r3, [r3]
 1320 0010 FB61     		str	r3, [r7, #28]
 137:C:/Users/dtjld/workspace/AIoT/src/LiteOS_Lab/iot_link/network/dtls/mbedtls/mbedtls-2.16.2/library\blowfish.c ****     Xr = *xr;
 1321              		.loc 1 137 0
 1322 0012 7B68     		ldr	r3, [r7, #4]
 1323 0014 1B68     		ldr	r3, [r3]
 1324 0016 BB61     		str	r3, [r7, #24]
 138:C:/Users/dtjld/workspace/AIoT/src/LiteOS_Lab/iot_link/network/dtls/mbedtls/mbedtls-2.16.2/library\blowfish.c **** 
 139:C:/Users/dtjld/workspace/AIoT/src/LiteOS_Lab/iot_link/network/dtls/mbedtls/mbedtls-2.16.2/library\blowfish.c ****     for( i = MBEDTLS_BLOWFISH_ROUNDS + 1; i > 1; --i )
 1325              		.loc 1 139 0
 1326 0018 1123     		movs	r3, #17
 1327 001a FB82     		strh	r3, [r7, #22]	@ movhi
 1328 001c 19E0     		b	.L7
 1329              	.L8:
 140:C:/Users/dtjld/workspace/AIoT/src/LiteOS_Lab/iot_link/network/dtls/mbedtls/mbedtls-2.16.2/library\blowfish.c ****     {
 141:C:/Users/dtjld/workspace/AIoT/src/LiteOS_Lab/iot_link/network/dtls/mbedtls/mbedtls-2.16.2/library\blowfish.c ****         Xl = Xl ^ ctx->P[i];
 1330              		.loc 1 141 0 discriminator 3
 1331 001e B7F91620 		ldrsh	r2, [r7, #22]
 1332 0022 FB68     		ldr	r3, [r7, #12]
 1333 0024 53F82230 		ldr	r3, [r3, r2, lsl #2]
 1334 0028 FA69     		ldr	r2, [r7, #28]
 1335 002a 5340     		eors	r3, r3, r2
 1336 002c FB61     		str	r3, [r7, #28]
 142:C:/Users/dtjld/workspace/AIoT/src/LiteOS_Lab/iot_link/network/dtls/mbedtls/mbedtls-2.16.2/library\blowfish.c ****         Xr = F( ctx, Xl ) ^ Xr;
 1337              		.loc 1 142 0 discriminator 3
 1338 002e F969     		ldr	r1, [r7, #28]
 1339 0030 F868     		ldr	r0, [r7, #12]
 1340 0032 FFF7FEFF 		bl	F
 1341 0036 0246     		mov	r2, r0
 1342 0038 BB69     		ldr	r3, [r7, #24]
 1343 003a 5340     		eors	r3, r3, r2
 1344 003c BB61     		str	r3, [r7, #24]
 143:C:/Users/dtjld/workspace/AIoT/src/LiteOS_Lab/iot_link/network/dtls/mbedtls/mbedtls-2.16.2/library\blowfish.c **** 
 144:C:/Users/dtjld/workspace/AIoT/src/LiteOS_Lab/iot_link/network/dtls/mbedtls/mbedtls-2.16.2/library\blowfish.c ****         temp = Xl;
 1345              		.loc 1 144 0 discriminator 3
ARM GAS  C:\Users\dtjld\AppData\Local\Temp\ccQiNuxC.s 			page 27


 1346 003e FB69     		ldr	r3, [r7, #28]
 1347 0040 3B61     		str	r3, [r7, #16]
 145:C:/Users/dtjld/workspace/AIoT/src/LiteOS_Lab/iot_link/network/dtls/mbedtls/mbedtls-2.16.2/library\blowfish.c ****         Xl = Xr;
 1348              		.loc 1 145 0 discriminator 3
 1349 0042 BB69     		ldr	r3, [r7, #24]
 1350 0044 FB61     		str	r3, [r7, #28]
 146:C:/Users/dtjld/workspace/AIoT/src/LiteOS_Lab/iot_link/network/dtls/mbedtls/mbedtls-2.16.2/library\blowfish.c ****         Xr = temp;
 1351              		.loc 1 146 0 discriminator 3
 1352 0046 3B69     		ldr	r3, [r7, #16]
 1353 0048 BB61     		str	r3, [r7, #24]
 139:C:/Users/dtjld/workspace/AIoT/src/LiteOS_Lab/iot_link/network/dtls/mbedtls/mbedtls-2.16.2/library\blowfish.c ****     {
 1354              		.loc 1 139 0 discriminator 3
 1355 004a FB8A     		ldrh	r3, [r7, #22]
 1356 004c 013B     		subs	r3, r3, #1
 1357 004e 9BB2     		uxth	r3, r3
 1358 0050 FB82     		strh	r3, [r7, #22]	@ movhi
 1359              	.L7:
 139:C:/Users/dtjld/workspace/AIoT/src/LiteOS_Lab/iot_link/network/dtls/mbedtls/mbedtls-2.16.2/library\blowfish.c ****     {
 1360              		.loc 1 139 0 is_stmt 0 discriminator 1
 1361 0052 B7F91630 		ldrsh	r3, [r7, #22]
 1362 0056 012B     		cmp	r3, #1
 1363 0058 E1DC     		bgt	.L8
 147:C:/Users/dtjld/workspace/AIoT/src/LiteOS_Lab/iot_link/network/dtls/mbedtls/mbedtls-2.16.2/library\blowfish.c ****     }
 148:C:/Users/dtjld/workspace/AIoT/src/LiteOS_Lab/iot_link/network/dtls/mbedtls/mbedtls-2.16.2/library\blowfish.c **** 
 149:C:/Users/dtjld/workspace/AIoT/src/LiteOS_Lab/iot_link/network/dtls/mbedtls/mbedtls-2.16.2/library\blowfish.c ****     temp = Xl;
 1364              		.loc 1 149 0 is_stmt 1
 1365 005a FB69     		ldr	r3, [r7, #28]
 1366 005c 3B61     		str	r3, [r7, #16]
 150:C:/Users/dtjld/workspace/AIoT/src/LiteOS_Lab/iot_link/network/dtls/mbedtls/mbedtls-2.16.2/library\blowfish.c ****     Xl = Xr;
 1367              		.loc 1 150 0
 1368 005e BB69     		ldr	r3, [r7, #24]
 1369 0060 FB61     		str	r3, [r7, #28]
 151:C:/Users/dtjld/workspace/AIoT/src/LiteOS_Lab/iot_link/network/dtls/mbedtls/mbedtls-2.16.2/library\blowfish.c ****     Xr = temp;
 1370              		.loc 1 151 0
 1371 0062 3B69     		ldr	r3, [r7, #16]
 1372 0064 BB61     		str	r3, [r7, #24]
 152:C:/Users/dtjld/workspace/AIoT/src/LiteOS_Lab/iot_link/network/dtls/mbedtls/mbedtls-2.16.2/library\blowfish.c **** 
 153:C:/Users/dtjld/workspace/AIoT/src/LiteOS_Lab/iot_link/network/dtls/mbedtls/mbedtls-2.16.2/library\blowfish.c ****     Xr = Xr ^ ctx->P[1];
 1373              		.loc 1 153 0
 1374 0066 FB68     		ldr	r3, [r7, #12]
 1375 0068 5B68     		ldr	r3, [r3, #4]
 1376 006a BA69     		ldr	r2, [r7, #24]
 1377 006c 5340     		eors	r3, r3, r2
 1378 006e BB61     		str	r3, [r7, #24]
 154:C:/Users/dtjld/workspace/AIoT/src/LiteOS_Lab/iot_link/network/dtls/mbedtls/mbedtls-2.16.2/library\blowfish.c ****     Xl = Xl ^ ctx->P[0];
 1379              		.loc 1 154 0
 1380 0070 FB68     		ldr	r3, [r7, #12]
 1381 0072 1B68     		ldr	r3, [r3]
 1382 0074 FA69     		ldr	r2, [r7, #28]
 1383 0076 5340     		eors	r3, r3, r2
 1384 0078 FB61     		str	r3, [r7, #28]
 155:C:/Users/dtjld/workspace/AIoT/src/LiteOS_Lab/iot_link/network/dtls/mbedtls/mbedtls-2.16.2/library\blowfish.c **** 
 156:C:/Users/dtjld/workspace/AIoT/src/LiteOS_Lab/iot_link/network/dtls/mbedtls/mbedtls-2.16.2/library\blowfish.c ****     *xl = Xl;
 1385              		.loc 1 156 0
 1386 007a BB68     		ldr	r3, [r7, #8]
 1387 007c FA69     		ldr	r2, [r7, #28]
 1388 007e 1A60     		str	r2, [r3]
ARM GAS  C:\Users\dtjld\AppData\Local\Temp\ccQiNuxC.s 			page 28


 157:C:/Users/dtjld/workspace/AIoT/src/LiteOS_Lab/iot_link/network/dtls/mbedtls/mbedtls-2.16.2/library\blowfish.c ****     *xr = Xr;
 1389              		.loc 1 157 0
 1390 0080 7B68     		ldr	r3, [r7, #4]
 1391 0082 BA69     		ldr	r2, [r7, #24]
 1392 0084 1A60     		str	r2, [r3]
 158:C:/Users/dtjld/workspace/AIoT/src/LiteOS_Lab/iot_link/network/dtls/mbedtls/mbedtls-2.16.2/library\blowfish.c **** }
 1393              		.loc 1 158 0
 1394 0086 00BF     		nop
 1395 0088 2037     		adds	r7, r7, #32
 1396              	.LCFI14:
 1397              		.cfi_def_cfa_offset 8
 1398 008a BD46     		mov	sp, r7
 1399              	.LCFI15:
 1400              		.cfi_def_cfa_register 13
 1401              		@ sp needed
 1402 008c 80BD     		pop	{r7, pc}
 1403              		.cfi_endproc
 1404              	.LFE2:
 1406              		.section	.text.mbedtls_blowfish_init,"ax",%progbits
 1407              		.align	1
 1408              		.global	mbedtls_blowfish_init
 1409              		.syntax unified
 1410              		.thumb
 1411              		.thumb_func
 1412              		.fpu fpv4-sp-d16
 1414              	mbedtls_blowfish_init:
 1415              	.LFB3:
 159:C:/Users/dtjld/workspace/AIoT/src/LiteOS_Lab/iot_link/network/dtls/mbedtls/mbedtls-2.16.2/library\blowfish.c **** 
 160:C:/Users/dtjld/workspace/AIoT/src/LiteOS_Lab/iot_link/network/dtls/mbedtls/mbedtls-2.16.2/library\blowfish.c **** void mbedtls_blowfish_init( mbedtls_blowfish_context *ctx )
 161:C:/Users/dtjld/workspace/AIoT/src/LiteOS_Lab/iot_link/network/dtls/mbedtls/mbedtls-2.16.2/library\blowfish.c **** {
 1416              		.loc 1 161 0
 1417              		.cfi_startproc
 1418              		@ args = 0, pretend = 0, frame = 8
 1419              		@ frame_needed = 1, uses_anonymous_args = 0
 1420 0000 80B5     		push	{r7, lr}
 1421              	.LCFI16:
 1422              		.cfi_def_cfa_offset 8
 1423              		.cfi_offset 7, -8
 1424              		.cfi_offset 14, -4
 1425 0002 82B0     		sub	sp, sp, #8
 1426              	.LCFI17:
 1427              		.cfi_def_cfa_offset 16
 1428 0004 00AF     		add	r7, sp, #0
 1429              	.LCFI18:
 1430              		.cfi_def_cfa_register 7
 1431 0006 7860     		str	r0, [r7, #4]
 162:C:/Users/dtjld/workspace/AIoT/src/LiteOS_Lab/iot_link/network/dtls/mbedtls/mbedtls-2.16.2/library\blowfish.c ****     BLOWFISH_VALIDATE( ctx != NULL );
 163:C:/Users/dtjld/workspace/AIoT/src/LiteOS_Lab/iot_link/network/dtls/mbedtls/mbedtls-2.16.2/library\blowfish.c ****     memset( ctx, 0, sizeof( mbedtls_blowfish_context ) );
 1432              		.loc 1 163 0
 1433 0008 41F24802 		movw	r2, #4168
 1434 000c 0021     		movs	r1, #0
 1435 000e 7868     		ldr	r0, [r7, #4]
 1436 0010 FFF7FEFF 		bl	memset
 164:C:/Users/dtjld/workspace/AIoT/src/LiteOS_Lab/iot_link/network/dtls/mbedtls/mbedtls-2.16.2/library\blowfish.c **** }
 1437              		.loc 1 164 0
 1438 0014 00BF     		nop
 1439 0016 0837     		adds	r7, r7, #8
ARM GAS  C:\Users\dtjld\AppData\Local\Temp\ccQiNuxC.s 			page 29


 1440              	.LCFI19:
 1441              		.cfi_def_cfa_offset 8
 1442 0018 BD46     		mov	sp, r7
 1443              	.LCFI20:
 1444              		.cfi_def_cfa_register 13
 1445              		@ sp needed
 1446 001a 80BD     		pop	{r7, pc}
 1447              		.cfi_endproc
 1448              	.LFE3:
 1450              		.section	.text.mbedtls_blowfish_free,"ax",%progbits
 1451              		.align	1
 1452              		.global	mbedtls_blowfish_free
 1453              		.syntax unified
 1454              		.thumb
 1455              		.thumb_func
 1456              		.fpu fpv4-sp-d16
 1458              	mbedtls_blowfish_free:
 1459              	.LFB4:
 165:C:/Users/dtjld/workspace/AIoT/src/LiteOS_Lab/iot_link/network/dtls/mbedtls/mbedtls-2.16.2/library\blowfish.c **** 
 166:C:/Users/dtjld/workspace/AIoT/src/LiteOS_Lab/iot_link/network/dtls/mbedtls/mbedtls-2.16.2/library\blowfish.c **** void mbedtls_blowfish_free( mbedtls_blowfish_context *ctx )
 167:C:/Users/dtjld/workspace/AIoT/src/LiteOS_Lab/iot_link/network/dtls/mbedtls/mbedtls-2.16.2/library\blowfish.c **** {
 1460              		.loc 1 167 0
 1461              		.cfi_startproc
 1462              		@ args = 0, pretend = 0, frame = 8
 1463              		@ frame_needed = 1, uses_anonymous_args = 0
 1464 0000 80B5     		push	{r7, lr}
 1465              	.LCFI21:
 1466              		.cfi_def_cfa_offset 8
 1467              		.cfi_offset 7, -8
 1468              		.cfi_offset 14, -4
 1469 0002 82B0     		sub	sp, sp, #8
 1470              	.LCFI22:
 1471              		.cfi_def_cfa_offset 16
 1472 0004 00AF     		add	r7, sp, #0
 1473              	.LCFI23:
 1474              		.cfi_def_cfa_register 7
 1475 0006 7860     		str	r0, [r7, #4]
 168:C:/Users/dtjld/workspace/AIoT/src/LiteOS_Lab/iot_link/network/dtls/mbedtls/mbedtls-2.16.2/library\blowfish.c ****     if( ctx == NULL )
 1476              		.loc 1 168 0
 1477 0008 7B68     		ldr	r3, [r7, #4]
 1478 000a 002B     		cmp	r3, #0
 1479 000c 05D0     		beq	.L13
 169:C:/Users/dtjld/workspace/AIoT/src/LiteOS_Lab/iot_link/network/dtls/mbedtls/mbedtls-2.16.2/library\blowfish.c ****         return;
 170:C:/Users/dtjld/workspace/AIoT/src/LiteOS_Lab/iot_link/network/dtls/mbedtls/mbedtls-2.16.2/library\blowfish.c **** 
 171:C:/Users/dtjld/workspace/AIoT/src/LiteOS_Lab/iot_link/network/dtls/mbedtls/mbedtls-2.16.2/library\blowfish.c ****     mbedtls_platform_zeroize( ctx, sizeof( mbedtls_blowfish_context ) );
 1480              		.loc 1 171 0
 1481 000e 41F24801 		movw	r1, #4168
 1482 0012 7868     		ldr	r0, [r7, #4]
 1483 0014 FFF7FEFF 		bl	mbedtls_platform_zeroize
 1484 0018 00E0     		b	.L10
 1485              	.L13:
 169:C:/Users/dtjld/workspace/AIoT/src/LiteOS_Lab/iot_link/network/dtls/mbedtls/mbedtls-2.16.2/library\blowfish.c ****         return;
 1486              		.loc 1 169 0
 1487 001a 00BF     		nop
 1488              	.L10:
 172:C:/Users/dtjld/workspace/AIoT/src/LiteOS_Lab/iot_link/network/dtls/mbedtls/mbedtls-2.16.2/library\blowfish.c **** }
 1489              		.loc 1 172 0
ARM GAS  C:\Users\dtjld\AppData\Local\Temp\ccQiNuxC.s 			page 30


 1490 001c 0837     		adds	r7, r7, #8
 1491              	.LCFI24:
 1492              		.cfi_def_cfa_offset 8
 1493 001e BD46     		mov	sp, r7
 1494              	.LCFI25:
 1495              		.cfi_def_cfa_register 13
 1496              		@ sp needed
 1497 0020 80BD     		pop	{r7, pc}
 1498              		.cfi_endproc
 1499              	.LFE4:
 1501              		.section	.text.mbedtls_blowfish_setkey,"ax",%progbits
 1502              		.align	1
 1503              		.global	mbedtls_blowfish_setkey
 1504              		.syntax unified
 1505              		.thumb
 1506              		.thumb_func
 1507              		.fpu fpv4-sp-d16
 1509              	mbedtls_blowfish_setkey:
 1510              	.LFB5:
 173:C:/Users/dtjld/workspace/AIoT/src/LiteOS_Lab/iot_link/network/dtls/mbedtls/mbedtls-2.16.2/library\blowfish.c **** 
 174:C:/Users/dtjld/workspace/AIoT/src/LiteOS_Lab/iot_link/network/dtls/mbedtls/mbedtls-2.16.2/library\blowfish.c **** /*
 175:C:/Users/dtjld/workspace/AIoT/src/LiteOS_Lab/iot_link/network/dtls/mbedtls/mbedtls-2.16.2/library\blowfish.c ****  * Blowfish key schedule
 176:C:/Users/dtjld/workspace/AIoT/src/LiteOS_Lab/iot_link/network/dtls/mbedtls/mbedtls-2.16.2/library\blowfish.c ****  */
 177:C:/Users/dtjld/workspace/AIoT/src/LiteOS_Lab/iot_link/network/dtls/mbedtls/mbedtls-2.16.2/library\blowfish.c **** int mbedtls_blowfish_setkey( mbedtls_blowfish_context *ctx,
 178:C:/Users/dtjld/workspace/AIoT/src/LiteOS_Lab/iot_link/network/dtls/mbedtls/mbedtls-2.16.2/library\blowfish.c ****                              const unsigned char *key,
 179:C:/Users/dtjld/workspace/AIoT/src/LiteOS_Lab/iot_link/network/dtls/mbedtls/mbedtls-2.16.2/library\blowfish.c ****                              unsigned int keybits )
 180:C:/Users/dtjld/workspace/AIoT/src/LiteOS_Lab/iot_link/network/dtls/mbedtls/mbedtls-2.16.2/library\blowfish.c **** {
 1511              		.loc 1 180 0
 1512              		.cfi_startproc
 1513              		@ args = 0, pretend = 0, frame = 40
 1514              		@ frame_needed = 1, uses_anonymous_args = 0
 1515 0000 80B5     		push	{r7, lr}
 1516              	.LCFI26:
 1517              		.cfi_def_cfa_offset 8
 1518              		.cfi_offset 7, -8
 1519              		.cfi_offset 14, -4
 1520 0002 8AB0     		sub	sp, sp, #40
 1521              	.LCFI27:
 1522              		.cfi_def_cfa_offset 48
 1523 0004 00AF     		add	r7, sp, #0
 1524              	.LCFI28:
 1525              		.cfi_def_cfa_register 7
 1526 0006 F860     		str	r0, [r7, #12]
 1527 0008 B960     		str	r1, [r7, #8]
 1528 000a 7A60     		str	r2, [r7, #4]
 181:C:/Users/dtjld/workspace/AIoT/src/LiteOS_Lab/iot_link/network/dtls/mbedtls/mbedtls-2.16.2/library\blowfish.c ****     unsigned int i, j, k;
 182:C:/Users/dtjld/workspace/AIoT/src/LiteOS_Lab/iot_link/network/dtls/mbedtls/mbedtls-2.16.2/library\blowfish.c ****     uint32_t data, datal, datar;
 183:C:/Users/dtjld/workspace/AIoT/src/LiteOS_Lab/iot_link/network/dtls/mbedtls/mbedtls-2.16.2/library\blowfish.c ****     BLOWFISH_VALIDATE_RET( ctx != NULL );
 184:C:/Users/dtjld/workspace/AIoT/src/LiteOS_Lab/iot_link/network/dtls/mbedtls/mbedtls-2.16.2/library\blowfish.c ****     BLOWFISH_VALIDATE_RET( key != NULL );
 185:C:/Users/dtjld/workspace/AIoT/src/LiteOS_Lab/iot_link/network/dtls/mbedtls/mbedtls-2.16.2/library\blowfish.c **** 
 186:C:/Users/dtjld/workspace/AIoT/src/LiteOS_Lab/iot_link/network/dtls/mbedtls/mbedtls-2.16.2/library\blowfish.c ****     if( keybits < MBEDTLS_BLOWFISH_MIN_KEY_BITS    ||
 1529              		.loc 1 186 0
 1530 000c 7B68     		ldr	r3, [r7, #4]
 1531 000e 1F2B     		cmp	r3, #31
 1532 0010 08D9     		bls	.L15
 1533              		.loc 1 186 0 is_stmt 0 discriminator 1
 1534 0012 7B68     		ldr	r3, [r7, #4]
ARM GAS  C:\Users\dtjld\AppData\Local\Temp\ccQiNuxC.s 			page 31


 1535 0014 B3F5E07F 		cmp	r3, #448
 1536 0018 04D8     		bhi	.L15
 187:C:/Users/dtjld/workspace/AIoT/src/LiteOS_Lab/iot_link/network/dtls/mbedtls/mbedtls-2.16.2/library\blowfish.c ****         keybits > MBEDTLS_BLOWFISH_MAX_KEY_BITS    ||
 188:C:/Users/dtjld/workspace/AIoT/src/LiteOS_Lab/iot_link/network/dtls/mbedtls/mbedtls-2.16.2/library\blowfish.c ****         keybits % 8 != 0 )
 1537              		.loc 1 188 0 is_stmt 1
 1538 001a 7B68     		ldr	r3, [r7, #4]
 1539 001c 03F00703 		and	r3, r3, #7
 187:C:/Users/dtjld/workspace/AIoT/src/LiteOS_Lab/iot_link/network/dtls/mbedtls/mbedtls-2.16.2/library\blowfish.c ****         keybits > MBEDTLS_BLOWFISH_MAX_KEY_BITS    ||
 1540              		.loc 1 187 0
 1541 0020 002B     		cmp	r3, #0
 1542 0022 02D0     		beq	.L16
 1543              	.L15:
 189:C:/Users/dtjld/workspace/AIoT/src/LiteOS_Lab/iot_link/network/dtls/mbedtls/mbedtls-2.16.2/library\blowfish.c ****     {
 190:C:/Users/dtjld/workspace/AIoT/src/LiteOS_Lab/iot_link/network/dtls/mbedtls/mbedtls-2.16.2/library\blowfish.c ****         return( MBEDTLS_ERR_BLOWFISH_BAD_INPUT_DATA );
 1544              		.loc 1 190 0
 1545 0024 6FF01503 		mvn	r3, #21
 1546 0028 A2E0     		b	.L33
 1547              	.L16:
 191:C:/Users/dtjld/workspace/AIoT/src/LiteOS_Lab/iot_link/network/dtls/mbedtls/mbedtls-2.16.2/library\blowfish.c ****     }
 192:C:/Users/dtjld/workspace/AIoT/src/LiteOS_Lab/iot_link/network/dtls/mbedtls/mbedtls-2.16.2/library\blowfish.c **** 
 193:C:/Users/dtjld/workspace/AIoT/src/LiteOS_Lab/iot_link/network/dtls/mbedtls/mbedtls-2.16.2/library\blowfish.c ****     keybits >>= 3;
 1548              		.loc 1 193 0
 1549 002a 7B68     		ldr	r3, [r7, #4]
 1550 002c DB08     		lsrs	r3, r3, #3
 1551 002e 7B60     		str	r3, [r7, #4]
 194:C:/Users/dtjld/workspace/AIoT/src/LiteOS_Lab/iot_link/network/dtls/mbedtls/mbedtls-2.16.2/library\blowfish.c **** 
 195:C:/Users/dtjld/workspace/AIoT/src/LiteOS_Lab/iot_link/network/dtls/mbedtls/mbedtls-2.16.2/library\blowfish.c ****     for( i = 0; i < 4; i++ )
 1552              		.loc 1 195 0
 1553 0030 0023     		movs	r3, #0
 1554 0032 7B62     		str	r3, [r7, #36]
 1555 0034 1AE0     		b	.L18
 1556              	.L21:
 196:C:/Users/dtjld/workspace/AIoT/src/LiteOS_Lab/iot_link/network/dtls/mbedtls/mbedtls-2.16.2/library\blowfish.c ****     {
 197:C:/Users/dtjld/workspace/AIoT/src/LiteOS_Lab/iot_link/network/dtls/mbedtls/mbedtls-2.16.2/library\blowfish.c ****         for( j = 0; j < 256; j++ )
 1557              		.loc 1 197 0
 1558 0036 0023     		movs	r3, #0
 1559 0038 3B62     		str	r3, [r7, #32]
 1560 003a 11E0     		b	.L19
 1561              	.L20:
 198:C:/Users/dtjld/workspace/AIoT/src/LiteOS_Lab/iot_link/network/dtls/mbedtls/mbedtls-2.16.2/library\blowfish.c ****             ctx->S[i][j] = S[i][j];
 1562              		.loc 1 198 0 discriminator 3
 1563 003c 4E49     		ldr	r1, .L34
 1564 003e 7B6A     		ldr	r3, [r7, #36]
 1565 0040 1A02     		lsls	r2, r3, #8
 1566 0042 3B6A     		ldr	r3, [r7, #32]
 1567 0044 1344     		add	r3, r3, r2
 1568 0046 51F82310 		ldr	r1, [r1, r3, lsl #2]
 1569 004a FB68     		ldr	r3, [r7, #12]
 1570 004c 7A6A     		ldr	r2, [r7, #36]
 1571 004e 1002     		lsls	r0, r2, #8
 1572 0050 3A6A     		ldr	r2, [r7, #32]
 1573 0052 0244     		add	r2, r2, r0
 1574 0054 1232     		adds	r2, r2, #18
 1575 0056 43F82210 		str	r1, [r3, r2, lsl #2]
 197:C:/Users/dtjld/workspace/AIoT/src/LiteOS_Lab/iot_link/network/dtls/mbedtls/mbedtls-2.16.2/library\blowfish.c ****             ctx->S[i][j] = S[i][j];
 1576              		.loc 1 197 0 discriminator 3
 1577 005a 3B6A     		ldr	r3, [r7, #32]
ARM GAS  C:\Users\dtjld\AppData\Local\Temp\ccQiNuxC.s 			page 32


 1578 005c 0133     		adds	r3, r3, #1
 1579 005e 3B62     		str	r3, [r7, #32]
 1580              	.L19:
 197:C:/Users/dtjld/workspace/AIoT/src/LiteOS_Lab/iot_link/network/dtls/mbedtls/mbedtls-2.16.2/library\blowfish.c ****             ctx->S[i][j] = S[i][j];
 1581              		.loc 1 197 0 is_stmt 0 discriminator 1
 1582 0060 3B6A     		ldr	r3, [r7, #32]
 1583 0062 FF2B     		cmp	r3, #255
 1584 0064 EAD9     		bls	.L20
 195:C:/Users/dtjld/workspace/AIoT/src/LiteOS_Lab/iot_link/network/dtls/mbedtls/mbedtls-2.16.2/library\blowfish.c ****     {
 1585              		.loc 1 195 0 is_stmt 1 discriminator 2
 1586 0066 7B6A     		ldr	r3, [r7, #36]
 1587 0068 0133     		adds	r3, r3, #1
 1588 006a 7B62     		str	r3, [r7, #36]
 1589              	.L18:
 195:C:/Users/dtjld/workspace/AIoT/src/LiteOS_Lab/iot_link/network/dtls/mbedtls/mbedtls-2.16.2/library\blowfish.c ****     {
 1590              		.loc 1 195 0 is_stmt 0 discriminator 1
 1591 006c 7B6A     		ldr	r3, [r7, #36]
 1592 006e 032B     		cmp	r3, #3
 1593 0070 E1D9     		bls	.L21
 199:C:/Users/dtjld/workspace/AIoT/src/LiteOS_Lab/iot_link/network/dtls/mbedtls/mbedtls-2.16.2/library\blowfish.c ****     }
 200:C:/Users/dtjld/workspace/AIoT/src/LiteOS_Lab/iot_link/network/dtls/mbedtls/mbedtls-2.16.2/library\blowfish.c **** 
 201:C:/Users/dtjld/workspace/AIoT/src/LiteOS_Lab/iot_link/network/dtls/mbedtls/mbedtls-2.16.2/library\blowfish.c ****     j = 0;
 1594              		.loc 1 201 0 is_stmt 1
 1595 0072 0023     		movs	r3, #0
 1596 0074 3B62     		str	r3, [r7, #32]
 202:C:/Users/dtjld/workspace/AIoT/src/LiteOS_Lab/iot_link/network/dtls/mbedtls/mbedtls-2.16.2/library\blowfish.c ****     for( i = 0; i < MBEDTLS_BLOWFISH_ROUNDS + 2; ++i )
 1597              		.loc 1 202 0
 1598 0076 0023     		movs	r3, #0
 1599 0078 7B62     		str	r3, [r7, #36]
 1600 007a 28E0     		b	.L22
 1601              	.L26:
 203:C:/Users/dtjld/workspace/AIoT/src/LiteOS_Lab/iot_link/network/dtls/mbedtls/mbedtls-2.16.2/library\blowfish.c ****     {
 204:C:/Users/dtjld/workspace/AIoT/src/LiteOS_Lab/iot_link/network/dtls/mbedtls/mbedtls-2.16.2/library\blowfish.c ****         data = 0x00000000;
 1602              		.loc 1 204 0
 1603 007c 0023     		movs	r3, #0
 1604 007e BB61     		str	r3, [r7, #24]
 205:C:/Users/dtjld/workspace/AIoT/src/LiteOS_Lab/iot_link/network/dtls/mbedtls/mbedtls-2.16.2/library\blowfish.c ****         for( k = 0; k < 4; ++k )
 1605              		.loc 1 205 0
 1606 0080 0023     		movs	r3, #0
 1607 0082 FB61     		str	r3, [r7, #28]
 1608 0084 12E0     		b	.L23
 1609              	.L25:
 206:C:/Users/dtjld/workspace/AIoT/src/LiteOS_Lab/iot_link/network/dtls/mbedtls/mbedtls-2.16.2/library\blowfish.c ****         {
 207:C:/Users/dtjld/workspace/AIoT/src/LiteOS_Lab/iot_link/network/dtls/mbedtls/mbedtls-2.16.2/library\blowfish.c ****             data = ( data << 8 ) | key[j++];
 1610              		.loc 1 207 0
 1611 0086 BB69     		ldr	r3, [r7, #24]
 1612 0088 1A02     		lsls	r2, r3, #8
 1613 008a 3B6A     		ldr	r3, [r7, #32]
 1614 008c 591C     		adds	r1, r3, #1
 1615 008e 3962     		str	r1, [r7, #32]
 1616 0090 B968     		ldr	r1, [r7, #8]
 1617 0092 0B44     		add	r3, r3, r1
 1618 0094 1B78     		ldrb	r3, [r3]	@ zero_extendqisi2
 1619 0096 1343     		orrs	r3, r3, r2
 1620 0098 BB61     		str	r3, [r7, #24]
 208:C:/Users/dtjld/workspace/AIoT/src/LiteOS_Lab/iot_link/network/dtls/mbedtls/mbedtls-2.16.2/library\blowfish.c ****             if( j >= keybits )
 1621              		.loc 1 208 0
ARM GAS  C:\Users\dtjld\AppData\Local\Temp\ccQiNuxC.s 			page 33


 1622 009a 3A6A     		ldr	r2, [r7, #32]
 1623 009c 7B68     		ldr	r3, [r7, #4]
 1624 009e 9A42     		cmp	r2, r3
 1625 00a0 01D3     		bcc	.L24
 209:C:/Users/dtjld/workspace/AIoT/src/LiteOS_Lab/iot_link/network/dtls/mbedtls/mbedtls-2.16.2/library\blowfish.c ****                 j = 0;
 1626              		.loc 1 209 0
 1627 00a2 0023     		movs	r3, #0
 1628 00a4 3B62     		str	r3, [r7, #32]
 1629              	.L24:
 205:C:/Users/dtjld/workspace/AIoT/src/LiteOS_Lab/iot_link/network/dtls/mbedtls/mbedtls-2.16.2/library\blowfish.c ****         {
 1630              		.loc 1 205 0 discriminator 2
 1631 00a6 FB69     		ldr	r3, [r7, #28]
 1632 00a8 0133     		adds	r3, r3, #1
 1633 00aa FB61     		str	r3, [r7, #28]
 1634              	.L23:
 205:C:/Users/dtjld/workspace/AIoT/src/LiteOS_Lab/iot_link/network/dtls/mbedtls/mbedtls-2.16.2/library\blowfish.c ****         {
 1635              		.loc 1 205 0 is_stmt 0 discriminator 1
 1636 00ac FB69     		ldr	r3, [r7, #28]
 1637 00ae 032B     		cmp	r3, #3
 1638 00b0 E9D9     		bls	.L25
 210:C:/Users/dtjld/workspace/AIoT/src/LiteOS_Lab/iot_link/network/dtls/mbedtls/mbedtls-2.16.2/library\blowfish.c ****         }
 211:C:/Users/dtjld/workspace/AIoT/src/LiteOS_Lab/iot_link/network/dtls/mbedtls/mbedtls-2.16.2/library\blowfish.c ****         ctx->P[i] = P[i] ^ data;
 1639              		.loc 1 211 0 is_stmt 1 discriminator 2
 1640 00b2 324A     		ldr	r2, .L34+4
 1641 00b4 7B6A     		ldr	r3, [r7, #36]
 1642 00b6 52F82320 		ldr	r2, [r2, r3, lsl #2]
 1643 00ba BB69     		ldr	r3, [r7, #24]
 1644 00bc 82EA0301 		eor	r1, r2, r3
 1645 00c0 FB68     		ldr	r3, [r7, #12]
 1646 00c2 7A6A     		ldr	r2, [r7, #36]
 1647 00c4 43F82210 		str	r1, [r3, r2, lsl #2]
 202:C:/Users/dtjld/workspace/AIoT/src/LiteOS_Lab/iot_link/network/dtls/mbedtls/mbedtls-2.16.2/library\blowfish.c ****     {
 1648              		.loc 1 202 0 discriminator 2
 1649 00c8 7B6A     		ldr	r3, [r7, #36]
 1650 00ca 0133     		adds	r3, r3, #1
 1651 00cc 7B62     		str	r3, [r7, #36]
 1652              	.L22:
 202:C:/Users/dtjld/workspace/AIoT/src/LiteOS_Lab/iot_link/network/dtls/mbedtls/mbedtls-2.16.2/library\blowfish.c ****     {
 1653              		.loc 1 202 0 is_stmt 0 discriminator 1
 1654 00ce 7B6A     		ldr	r3, [r7, #36]
 1655 00d0 112B     		cmp	r3, #17
 1656 00d2 D3D9     		bls	.L26
 212:C:/Users/dtjld/workspace/AIoT/src/LiteOS_Lab/iot_link/network/dtls/mbedtls/mbedtls-2.16.2/library\blowfish.c ****     }
 213:C:/Users/dtjld/workspace/AIoT/src/LiteOS_Lab/iot_link/network/dtls/mbedtls/mbedtls-2.16.2/library\blowfish.c **** 
 214:C:/Users/dtjld/workspace/AIoT/src/LiteOS_Lab/iot_link/network/dtls/mbedtls/mbedtls-2.16.2/library\blowfish.c ****     datal = 0x00000000;
 1657              		.loc 1 214 0 is_stmt 1
 1658 00d4 0023     		movs	r3, #0
 1659 00d6 7B61     		str	r3, [r7, #20]
 215:C:/Users/dtjld/workspace/AIoT/src/LiteOS_Lab/iot_link/network/dtls/mbedtls/mbedtls-2.16.2/library\blowfish.c ****     datar = 0x00000000;
 1660              		.loc 1 215 0
 1661 00d8 0023     		movs	r3, #0
 1662 00da 3B61     		str	r3, [r7, #16]
 216:C:/Users/dtjld/workspace/AIoT/src/LiteOS_Lab/iot_link/network/dtls/mbedtls/mbedtls-2.16.2/library\blowfish.c **** 
 217:C:/Users/dtjld/workspace/AIoT/src/LiteOS_Lab/iot_link/network/dtls/mbedtls/mbedtls-2.16.2/library\blowfish.c ****     for( i = 0; i < MBEDTLS_BLOWFISH_ROUNDS + 2; i += 2 )
 1663              		.loc 1 217 0
 1664 00dc 0023     		movs	r3, #0
 1665 00de 7B62     		str	r3, [r7, #36]
ARM GAS  C:\Users\dtjld\AppData\Local\Temp\ccQiNuxC.s 			page 34


 1666 00e0 15E0     		b	.L27
 1667              	.L28:
 218:C:/Users/dtjld/workspace/AIoT/src/LiteOS_Lab/iot_link/network/dtls/mbedtls/mbedtls-2.16.2/library\blowfish.c ****     {
 219:C:/Users/dtjld/workspace/AIoT/src/LiteOS_Lab/iot_link/network/dtls/mbedtls/mbedtls-2.16.2/library\blowfish.c ****         blowfish_enc( ctx, &datal, &datar );
 1668              		.loc 1 219 0 discriminator 3
 1669 00e2 07F11002 		add	r2, r7, #16
 1670 00e6 07F11403 		add	r3, r7, #20
 1671 00ea 1946     		mov	r1, r3
 1672 00ec F868     		ldr	r0, [r7, #12]
 1673 00ee FFF7FEFF 		bl	blowfish_enc
 220:C:/Users/dtjld/workspace/AIoT/src/LiteOS_Lab/iot_link/network/dtls/mbedtls/mbedtls-2.16.2/library\blowfish.c ****         ctx->P[i] = datal;
 1674              		.loc 1 220 0 discriminator 3
 1675 00f2 7969     		ldr	r1, [r7, #20]
 1676 00f4 FB68     		ldr	r3, [r7, #12]
 1677 00f6 7A6A     		ldr	r2, [r7, #36]
 1678 00f8 43F82210 		str	r1, [r3, r2, lsl #2]
 221:C:/Users/dtjld/workspace/AIoT/src/LiteOS_Lab/iot_link/network/dtls/mbedtls/mbedtls-2.16.2/library\blowfish.c ****         ctx->P[i + 1] = datar;
 1679              		.loc 1 221 0 discriminator 3
 1680 00fc 7B6A     		ldr	r3, [r7, #36]
 1681 00fe 5A1C     		adds	r2, r3, #1
 1682 0100 3969     		ldr	r1, [r7, #16]
 1683 0102 FB68     		ldr	r3, [r7, #12]
 1684 0104 43F82210 		str	r1, [r3, r2, lsl #2]
 217:C:/Users/dtjld/workspace/AIoT/src/LiteOS_Lab/iot_link/network/dtls/mbedtls/mbedtls-2.16.2/library\blowfish.c ****     {
 1685              		.loc 1 217 0 discriminator 3
 1686 0108 7B6A     		ldr	r3, [r7, #36]
 1687 010a 0233     		adds	r3, r3, #2
 1688 010c 7B62     		str	r3, [r7, #36]
 1689              	.L27:
 217:C:/Users/dtjld/workspace/AIoT/src/LiteOS_Lab/iot_link/network/dtls/mbedtls/mbedtls-2.16.2/library\blowfish.c ****     {
 1690              		.loc 1 217 0 is_stmt 0 discriminator 1
 1691 010e 7B6A     		ldr	r3, [r7, #36]
 1692 0110 112B     		cmp	r3, #17
 1693 0112 E6D9     		bls	.L28
 222:C:/Users/dtjld/workspace/AIoT/src/LiteOS_Lab/iot_link/network/dtls/mbedtls/mbedtls-2.16.2/library\blowfish.c ****     }
 223:C:/Users/dtjld/workspace/AIoT/src/LiteOS_Lab/iot_link/network/dtls/mbedtls/mbedtls-2.16.2/library\blowfish.c **** 
 224:C:/Users/dtjld/workspace/AIoT/src/LiteOS_Lab/iot_link/network/dtls/mbedtls/mbedtls-2.16.2/library\blowfish.c ****     for( i = 0; i < 4; i++ )
 1694              		.loc 1 224 0 is_stmt 1
 1695 0114 0023     		movs	r3, #0
 1696 0116 7B62     		str	r3, [r7, #36]
 1697 0118 26E0     		b	.L29
 1698              	.L32:
 225:C:/Users/dtjld/workspace/AIoT/src/LiteOS_Lab/iot_link/network/dtls/mbedtls/mbedtls-2.16.2/library\blowfish.c ****     {
 226:C:/Users/dtjld/workspace/AIoT/src/LiteOS_Lab/iot_link/network/dtls/mbedtls/mbedtls-2.16.2/library\blowfish.c ****        for( j = 0; j < 256; j += 2 )
 1699              		.loc 1 226 0
 1700 011a 0023     		movs	r3, #0
 1701 011c 3B62     		str	r3, [r7, #32]
 1702 011e 1DE0     		b	.L30
 1703              	.L31:
 227:C:/Users/dtjld/workspace/AIoT/src/LiteOS_Lab/iot_link/network/dtls/mbedtls/mbedtls-2.16.2/library\blowfish.c ****        {
 228:C:/Users/dtjld/workspace/AIoT/src/LiteOS_Lab/iot_link/network/dtls/mbedtls/mbedtls-2.16.2/library\blowfish.c ****             blowfish_enc( ctx, &datal, &datar );
 1704              		.loc 1 228 0 discriminator 3
 1705 0120 07F11002 		add	r2, r7, #16
 1706 0124 07F11403 		add	r3, r7, #20
 1707 0128 1946     		mov	r1, r3
 1708 012a F868     		ldr	r0, [r7, #12]
 1709 012c FFF7FEFF 		bl	blowfish_enc
ARM GAS  C:\Users\dtjld\AppData\Local\Temp\ccQiNuxC.s 			page 35


 229:C:/Users/dtjld/workspace/AIoT/src/LiteOS_Lab/iot_link/network/dtls/mbedtls/mbedtls-2.16.2/library\blowfish.c ****             ctx->S[i][j] = datal;
 1710              		.loc 1 229 0 discriminator 3
 1711 0130 7969     		ldr	r1, [r7, #20]
 1712 0132 FB68     		ldr	r3, [r7, #12]
 1713 0134 7A6A     		ldr	r2, [r7, #36]
 1714 0136 1002     		lsls	r0, r2, #8
 1715 0138 3A6A     		ldr	r2, [r7, #32]
 1716 013a 0244     		add	r2, r2, r0
 1717 013c 1232     		adds	r2, r2, #18
 1718 013e 43F82210 		str	r1, [r3, r2, lsl #2]
 230:C:/Users/dtjld/workspace/AIoT/src/LiteOS_Lab/iot_link/network/dtls/mbedtls/mbedtls-2.16.2/library\blowfish.c ****             ctx->S[i][j + 1] = datar;
 1719              		.loc 1 230 0 discriminator 3
 1720 0142 3B6A     		ldr	r3, [r7, #32]
 1721 0144 5A1C     		adds	r2, r3, #1
 1722 0146 3969     		ldr	r1, [r7, #16]
 1723 0148 FB68     		ldr	r3, [r7, #12]
 1724 014a 786A     		ldr	r0, [r7, #36]
 1725 014c 0002     		lsls	r0, r0, #8
 1726 014e 0244     		add	r2, r2, r0
 1727 0150 1232     		adds	r2, r2, #18
 1728 0152 43F82210 		str	r1, [r3, r2, lsl #2]
 226:C:/Users/dtjld/workspace/AIoT/src/LiteOS_Lab/iot_link/network/dtls/mbedtls/mbedtls-2.16.2/library\blowfish.c ****        {
 1729              		.loc 1 226 0 discriminator 3
 1730 0156 3B6A     		ldr	r3, [r7, #32]
 1731 0158 0233     		adds	r3, r3, #2
 1732 015a 3B62     		str	r3, [r7, #32]
 1733              	.L30:
 226:C:/Users/dtjld/workspace/AIoT/src/LiteOS_Lab/iot_link/network/dtls/mbedtls/mbedtls-2.16.2/library\blowfish.c ****        {
 1734              		.loc 1 226 0 is_stmt 0 discriminator 1
 1735 015c 3B6A     		ldr	r3, [r7, #32]
 1736 015e FF2B     		cmp	r3, #255
 1737 0160 DED9     		bls	.L31
 224:C:/Users/dtjld/workspace/AIoT/src/LiteOS_Lab/iot_link/network/dtls/mbedtls/mbedtls-2.16.2/library\blowfish.c ****     {
 1738              		.loc 1 224 0 is_stmt 1 discriminator 2
 1739 0162 7B6A     		ldr	r3, [r7, #36]
 1740 0164 0133     		adds	r3, r3, #1
 1741 0166 7B62     		str	r3, [r7, #36]
 1742              	.L29:
 224:C:/Users/dtjld/workspace/AIoT/src/LiteOS_Lab/iot_link/network/dtls/mbedtls/mbedtls-2.16.2/library\blowfish.c ****     {
 1743              		.loc 1 224 0 is_stmt 0 discriminator 1
 1744 0168 7B6A     		ldr	r3, [r7, #36]
 1745 016a 032B     		cmp	r3, #3
 1746 016c D5D9     		bls	.L32
 231:C:/Users/dtjld/workspace/AIoT/src/LiteOS_Lab/iot_link/network/dtls/mbedtls/mbedtls-2.16.2/library\blowfish.c ****         }
 232:C:/Users/dtjld/workspace/AIoT/src/LiteOS_Lab/iot_link/network/dtls/mbedtls/mbedtls-2.16.2/library\blowfish.c ****     }
 233:C:/Users/dtjld/workspace/AIoT/src/LiteOS_Lab/iot_link/network/dtls/mbedtls/mbedtls-2.16.2/library\blowfish.c ****     return( 0 );
 1747              		.loc 1 233 0 is_stmt 1
 1748 016e 0023     		movs	r3, #0
 1749              	.L33:
 234:C:/Users/dtjld/workspace/AIoT/src/LiteOS_Lab/iot_link/network/dtls/mbedtls/mbedtls-2.16.2/library\blowfish.c **** }
 1750              		.loc 1 234 0 discriminator 1
 1751 0170 1846     		mov	r0, r3
 1752 0172 2837     		adds	r7, r7, #40
 1753              	.LCFI29:
 1754              		.cfi_def_cfa_offset 8
 1755 0174 BD46     		mov	sp, r7
 1756              	.LCFI30:
ARM GAS  C:\Users\dtjld\AppData\Local\Temp\ccQiNuxC.s 			page 36


 1757              		.cfi_def_cfa_register 13
 1758              		@ sp needed
 1759 0176 80BD     		pop	{r7, pc}
 1760              	.L35:
 1761              		.align	2
 1762              	.L34:
 1763 0178 00000000 		.word	S
 1764 017c 00000000 		.word	P
 1765              		.cfi_endproc
 1766              	.LFE5:
 1768              		.section	.text.mbedtls_blowfish_crypt_ecb,"ax",%progbits
 1769              		.align	1
 1770              		.global	mbedtls_blowfish_crypt_ecb
 1771              		.syntax unified
 1772              		.thumb
 1773              		.thumb_func
 1774              		.fpu fpv4-sp-d16
 1776              	mbedtls_blowfish_crypt_ecb:
 1777              	.LFB6:
 235:C:/Users/dtjld/workspace/AIoT/src/LiteOS_Lab/iot_link/network/dtls/mbedtls/mbedtls-2.16.2/library\blowfish.c **** 
 236:C:/Users/dtjld/workspace/AIoT/src/LiteOS_Lab/iot_link/network/dtls/mbedtls/mbedtls-2.16.2/library\blowfish.c **** /*
 237:C:/Users/dtjld/workspace/AIoT/src/LiteOS_Lab/iot_link/network/dtls/mbedtls/mbedtls-2.16.2/library\blowfish.c ****  * Blowfish-ECB block encryption/decryption
 238:C:/Users/dtjld/workspace/AIoT/src/LiteOS_Lab/iot_link/network/dtls/mbedtls/mbedtls-2.16.2/library\blowfish.c ****  */
 239:C:/Users/dtjld/workspace/AIoT/src/LiteOS_Lab/iot_link/network/dtls/mbedtls/mbedtls-2.16.2/library\blowfish.c **** int mbedtls_blowfish_crypt_ecb( mbedtls_blowfish_context *ctx,
 240:C:/Users/dtjld/workspace/AIoT/src/LiteOS_Lab/iot_link/network/dtls/mbedtls/mbedtls-2.16.2/library\blowfish.c ****                     int mode,
 241:C:/Users/dtjld/workspace/AIoT/src/LiteOS_Lab/iot_link/network/dtls/mbedtls/mbedtls-2.16.2/library\blowfish.c ****                     const unsigned char input[MBEDTLS_BLOWFISH_BLOCKSIZE],
 242:C:/Users/dtjld/workspace/AIoT/src/LiteOS_Lab/iot_link/network/dtls/mbedtls/mbedtls-2.16.2/library\blowfish.c ****                     unsigned char output[MBEDTLS_BLOWFISH_BLOCKSIZE] )
 243:C:/Users/dtjld/workspace/AIoT/src/LiteOS_Lab/iot_link/network/dtls/mbedtls/mbedtls-2.16.2/library\blowfish.c **** {
 1778              		.loc 1 243 0
 1779              		.cfi_startproc
 1780              		@ args = 0, pretend = 0, frame = 24
 1781              		@ frame_needed = 1, uses_anonymous_args = 0
 1782 0000 80B5     		push	{r7, lr}
 1783              	.LCFI31:
 1784              		.cfi_def_cfa_offset 8
 1785              		.cfi_offset 7, -8
 1786              		.cfi_offset 14, -4
 1787 0002 86B0     		sub	sp, sp, #24
 1788              	.LCFI32:
 1789              		.cfi_def_cfa_offset 32
 1790 0004 00AF     		add	r7, sp, #0
 1791              	.LCFI33:
 1792              		.cfi_def_cfa_register 7
 1793 0006 F860     		str	r0, [r7, #12]
 1794 0008 B960     		str	r1, [r7, #8]
 1795 000a 7A60     		str	r2, [r7, #4]
 1796 000c 3B60     		str	r3, [r7]
 244:C:/Users/dtjld/workspace/AIoT/src/LiteOS_Lab/iot_link/network/dtls/mbedtls/mbedtls-2.16.2/library\blowfish.c ****     uint32_t X0, X1;
 245:C:/Users/dtjld/workspace/AIoT/src/LiteOS_Lab/iot_link/network/dtls/mbedtls/mbedtls-2.16.2/library\blowfish.c ****     BLOWFISH_VALIDATE_RET( ctx != NULL );
 246:C:/Users/dtjld/workspace/AIoT/src/LiteOS_Lab/iot_link/network/dtls/mbedtls/mbedtls-2.16.2/library\blowfish.c ****     BLOWFISH_VALIDATE_RET( mode == MBEDTLS_BLOWFISH_ENCRYPT ||
 247:C:/Users/dtjld/workspace/AIoT/src/LiteOS_Lab/iot_link/network/dtls/mbedtls/mbedtls-2.16.2/library\blowfish.c ****                            mode == MBEDTLS_BLOWFISH_DECRYPT );
 248:C:/Users/dtjld/workspace/AIoT/src/LiteOS_Lab/iot_link/network/dtls/mbedtls/mbedtls-2.16.2/library\blowfish.c ****     BLOWFISH_VALIDATE_RET( input  != NULL );
 249:C:/Users/dtjld/workspace/AIoT/src/LiteOS_Lab/iot_link/network/dtls/mbedtls/mbedtls-2.16.2/library\blowfish.c ****     BLOWFISH_VALIDATE_RET( output != NULL );
 250:C:/Users/dtjld/workspace/AIoT/src/LiteOS_Lab/iot_link/network/dtls/mbedtls/mbedtls-2.16.2/library\blowfish.c **** 
 251:C:/Users/dtjld/workspace/AIoT/src/LiteOS_Lab/iot_link/network/dtls/mbedtls/mbedtls-2.16.2/library\blowfish.c ****     GET_UINT32_BE( X0, input,  0 );
 1797              		.loc 1 251 0
 1798 000e 7B68     		ldr	r3, [r7, #4]
ARM GAS  C:\Users\dtjld\AppData\Local\Temp\ccQiNuxC.s 			page 37


 1799 0010 1B78     		ldrb	r3, [r3]	@ zero_extendqisi2
 1800 0012 1A06     		lsls	r2, r3, #24
 1801 0014 7B68     		ldr	r3, [r7, #4]
 1802 0016 0133     		adds	r3, r3, #1
 1803 0018 1B78     		ldrb	r3, [r3]	@ zero_extendqisi2
 1804 001a 1B04     		lsls	r3, r3, #16
 1805 001c 1A43     		orrs	r2, r2, r3
 1806 001e 7B68     		ldr	r3, [r7, #4]
 1807 0020 0233     		adds	r3, r3, #2
 1808 0022 1B78     		ldrb	r3, [r3]	@ zero_extendqisi2
 1809 0024 1B02     		lsls	r3, r3, #8
 1810 0026 1343     		orrs	r3, r3, r2
 1811 0028 7A68     		ldr	r2, [r7, #4]
 1812 002a 0332     		adds	r2, r2, #3
 1813 002c 1278     		ldrb	r2, [r2]	@ zero_extendqisi2
 1814 002e 1343     		orrs	r3, r3, r2
 1815 0030 7B61     		str	r3, [r7, #20]
 252:C:/Users/dtjld/workspace/AIoT/src/LiteOS_Lab/iot_link/network/dtls/mbedtls/mbedtls-2.16.2/library\blowfish.c ****     GET_UINT32_BE( X1, input,  4 );
 1816              		.loc 1 252 0
 1817 0032 7B68     		ldr	r3, [r7, #4]
 1818 0034 0433     		adds	r3, r3, #4
 1819 0036 1B78     		ldrb	r3, [r3]	@ zero_extendqisi2
 1820 0038 1A06     		lsls	r2, r3, #24
 1821 003a 7B68     		ldr	r3, [r7, #4]
 1822 003c 0533     		adds	r3, r3, #5
 1823 003e 1B78     		ldrb	r3, [r3]	@ zero_extendqisi2
 1824 0040 1B04     		lsls	r3, r3, #16
 1825 0042 1A43     		orrs	r2, r2, r3
 1826 0044 7B68     		ldr	r3, [r7, #4]
 1827 0046 0633     		adds	r3, r3, #6
 1828 0048 1B78     		ldrb	r3, [r3]	@ zero_extendqisi2
 1829 004a 1B02     		lsls	r3, r3, #8
 1830 004c 1343     		orrs	r3, r3, r2
 1831 004e 7A68     		ldr	r2, [r7, #4]
 1832 0050 0732     		adds	r2, r2, #7
 1833 0052 1278     		ldrb	r2, [r2]	@ zero_extendqisi2
 1834 0054 1343     		orrs	r3, r3, r2
 1835 0056 3B61     		str	r3, [r7, #16]
 253:C:/Users/dtjld/workspace/AIoT/src/LiteOS_Lab/iot_link/network/dtls/mbedtls/mbedtls-2.16.2/library\blowfish.c **** 
 254:C:/Users/dtjld/workspace/AIoT/src/LiteOS_Lab/iot_link/network/dtls/mbedtls/mbedtls-2.16.2/library\blowfish.c ****     if( mode == MBEDTLS_BLOWFISH_DECRYPT )
 1836              		.loc 1 254 0
 1837 0058 BB68     		ldr	r3, [r7, #8]
 1838 005a 002B     		cmp	r3, #0
 1839 005c 08D1     		bne	.L37
 255:C:/Users/dtjld/workspace/AIoT/src/LiteOS_Lab/iot_link/network/dtls/mbedtls/mbedtls-2.16.2/library\blowfish.c ****     {
 256:C:/Users/dtjld/workspace/AIoT/src/LiteOS_Lab/iot_link/network/dtls/mbedtls/mbedtls-2.16.2/library\blowfish.c ****         blowfish_dec( ctx, &X0, &X1 );
 1840              		.loc 1 256 0
 1841 005e 07F11002 		add	r2, r7, #16
 1842 0062 07F11403 		add	r3, r7, #20
 1843 0066 1946     		mov	r1, r3
 1844 0068 F868     		ldr	r0, [r7, #12]
 1845 006a FFF7FEFF 		bl	blowfish_dec
 1846 006e 07E0     		b	.L38
 1847              	.L37:
 257:C:/Users/dtjld/workspace/AIoT/src/LiteOS_Lab/iot_link/network/dtls/mbedtls/mbedtls-2.16.2/library\blowfish.c ****     }
 258:C:/Users/dtjld/workspace/AIoT/src/LiteOS_Lab/iot_link/network/dtls/mbedtls/mbedtls-2.16.2/library\blowfish.c ****     else /* MBEDTLS_BLOWFISH_ENCRYPT */
 259:C:/Users/dtjld/workspace/AIoT/src/LiteOS_Lab/iot_link/network/dtls/mbedtls/mbedtls-2.16.2/library\blowfish.c ****     {
ARM GAS  C:\Users\dtjld\AppData\Local\Temp\ccQiNuxC.s 			page 38


 260:C:/Users/dtjld/workspace/AIoT/src/LiteOS_Lab/iot_link/network/dtls/mbedtls/mbedtls-2.16.2/library\blowfish.c ****         blowfish_enc( ctx, &X0, &X1 );
 1848              		.loc 1 260 0
 1849 0070 07F11002 		add	r2, r7, #16
 1850 0074 07F11403 		add	r3, r7, #20
 1851 0078 1946     		mov	r1, r3
 1852 007a F868     		ldr	r0, [r7, #12]
 1853 007c FFF7FEFF 		bl	blowfish_enc
 1854              	.L38:
 261:C:/Users/dtjld/workspace/AIoT/src/LiteOS_Lab/iot_link/network/dtls/mbedtls/mbedtls-2.16.2/library\blowfish.c ****     }
 262:C:/Users/dtjld/workspace/AIoT/src/LiteOS_Lab/iot_link/network/dtls/mbedtls/mbedtls-2.16.2/library\blowfish.c **** 
 263:C:/Users/dtjld/workspace/AIoT/src/LiteOS_Lab/iot_link/network/dtls/mbedtls/mbedtls-2.16.2/library\blowfish.c ****     PUT_UINT32_BE( X0, output,  0 );
 1855              		.loc 1 263 0
 1856 0080 7B69     		ldr	r3, [r7, #20]
 1857 0082 1B0E     		lsrs	r3, r3, #24
 1858 0084 DAB2     		uxtb	r2, r3
 1859 0086 3B68     		ldr	r3, [r7]
 1860 0088 1A70     		strb	r2, [r3]
 1861 008a 7B69     		ldr	r3, [r7, #20]
 1862 008c 1A0C     		lsrs	r2, r3, #16
 1863 008e 3B68     		ldr	r3, [r7]
 1864 0090 0133     		adds	r3, r3, #1
 1865 0092 D2B2     		uxtb	r2, r2
 1866 0094 1A70     		strb	r2, [r3]
 1867 0096 7B69     		ldr	r3, [r7, #20]
 1868 0098 1A0A     		lsrs	r2, r3, #8
 1869 009a 3B68     		ldr	r3, [r7]
 1870 009c 0233     		adds	r3, r3, #2
 1871 009e D2B2     		uxtb	r2, r2
 1872 00a0 1A70     		strb	r2, [r3]
 1873 00a2 7A69     		ldr	r2, [r7, #20]
 1874 00a4 3B68     		ldr	r3, [r7]
 1875 00a6 0333     		adds	r3, r3, #3
 1876 00a8 D2B2     		uxtb	r2, r2
 1877 00aa 1A70     		strb	r2, [r3]
 264:C:/Users/dtjld/workspace/AIoT/src/LiteOS_Lab/iot_link/network/dtls/mbedtls/mbedtls-2.16.2/library\blowfish.c ****     PUT_UINT32_BE( X1, output,  4 );
 1878              		.loc 1 264 0
 1879 00ac 3B69     		ldr	r3, [r7, #16]
 1880 00ae 1A0E     		lsrs	r2, r3, #24
 1881 00b0 3B68     		ldr	r3, [r7]
 1882 00b2 0433     		adds	r3, r3, #4
 1883 00b4 D2B2     		uxtb	r2, r2
 1884 00b6 1A70     		strb	r2, [r3]
 1885 00b8 3B69     		ldr	r3, [r7, #16]
 1886 00ba 1A0C     		lsrs	r2, r3, #16
 1887 00bc 3B68     		ldr	r3, [r7]
 1888 00be 0533     		adds	r3, r3, #5
 1889 00c0 D2B2     		uxtb	r2, r2
 1890 00c2 1A70     		strb	r2, [r3]
 1891 00c4 3B69     		ldr	r3, [r7, #16]
 1892 00c6 1A0A     		lsrs	r2, r3, #8
 1893 00c8 3B68     		ldr	r3, [r7]
 1894 00ca 0633     		adds	r3, r3, #6
 1895 00cc D2B2     		uxtb	r2, r2
 1896 00ce 1A70     		strb	r2, [r3]
 1897 00d0 3A69     		ldr	r2, [r7, #16]
 1898 00d2 3B68     		ldr	r3, [r7]
 1899 00d4 0733     		adds	r3, r3, #7
ARM GAS  C:\Users\dtjld\AppData\Local\Temp\ccQiNuxC.s 			page 39


 1900 00d6 D2B2     		uxtb	r2, r2
 1901 00d8 1A70     		strb	r2, [r3]
 265:C:/Users/dtjld/workspace/AIoT/src/LiteOS_Lab/iot_link/network/dtls/mbedtls/mbedtls-2.16.2/library\blowfish.c **** 
 266:C:/Users/dtjld/workspace/AIoT/src/LiteOS_Lab/iot_link/network/dtls/mbedtls/mbedtls-2.16.2/library\blowfish.c ****     return( 0 );
 1902              		.loc 1 266 0
 1903 00da 0023     		movs	r3, #0
 267:C:/Users/dtjld/workspace/AIoT/src/LiteOS_Lab/iot_link/network/dtls/mbedtls/mbedtls-2.16.2/library\blowfish.c **** }
 1904              		.loc 1 267 0
 1905 00dc 1846     		mov	r0, r3
 1906 00de 1837     		adds	r7, r7, #24
 1907              	.LCFI34:
 1908              		.cfi_def_cfa_offset 8
 1909 00e0 BD46     		mov	sp, r7
 1910              	.LCFI35:
 1911              		.cfi_def_cfa_register 13
 1912              		@ sp needed
 1913 00e2 80BD     		pop	{r7, pc}
 1914              		.cfi_endproc
 1915              	.LFE6:
 1917              		.section	.text.mbedtls_blowfish_crypt_cbc,"ax",%progbits
 1918              		.align	1
 1919              		.global	mbedtls_blowfish_crypt_cbc
 1920              		.syntax unified
 1921              		.thumb
 1922              		.thumb_func
 1923              		.fpu fpv4-sp-d16
 1925              	mbedtls_blowfish_crypt_cbc:
 1926              	.LFB7:
 268:C:/Users/dtjld/workspace/AIoT/src/LiteOS_Lab/iot_link/network/dtls/mbedtls/mbedtls-2.16.2/library\blowfish.c **** 
 269:C:/Users/dtjld/workspace/AIoT/src/LiteOS_Lab/iot_link/network/dtls/mbedtls/mbedtls-2.16.2/library\blowfish.c **** #if defined(MBEDTLS_CIPHER_MODE_CBC)
 270:C:/Users/dtjld/workspace/AIoT/src/LiteOS_Lab/iot_link/network/dtls/mbedtls/mbedtls-2.16.2/library\blowfish.c **** /*
 271:C:/Users/dtjld/workspace/AIoT/src/LiteOS_Lab/iot_link/network/dtls/mbedtls/mbedtls-2.16.2/library\blowfish.c ****  * Blowfish-CBC buffer encryption/decryption
 272:C:/Users/dtjld/workspace/AIoT/src/LiteOS_Lab/iot_link/network/dtls/mbedtls/mbedtls-2.16.2/library\blowfish.c ****  */
 273:C:/Users/dtjld/workspace/AIoT/src/LiteOS_Lab/iot_link/network/dtls/mbedtls/mbedtls-2.16.2/library\blowfish.c **** int mbedtls_blowfish_crypt_cbc( mbedtls_blowfish_context *ctx,
 274:C:/Users/dtjld/workspace/AIoT/src/LiteOS_Lab/iot_link/network/dtls/mbedtls/mbedtls-2.16.2/library\blowfish.c ****                     int mode,
 275:C:/Users/dtjld/workspace/AIoT/src/LiteOS_Lab/iot_link/network/dtls/mbedtls/mbedtls-2.16.2/library\blowfish.c ****                     size_t length,
 276:C:/Users/dtjld/workspace/AIoT/src/LiteOS_Lab/iot_link/network/dtls/mbedtls/mbedtls-2.16.2/library\blowfish.c ****                     unsigned char iv[MBEDTLS_BLOWFISH_BLOCKSIZE],
 277:C:/Users/dtjld/workspace/AIoT/src/LiteOS_Lab/iot_link/network/dtls/mbedtls/mbedtls-2.16.2/library\blowfish.c ****                     const unsigned char *input,
 278:C:/Users/dtjld/workspace/AIoT/src/LiteOS_Lab/iot_link/network/dtls/mbedtls/mbedtls-2.16.2/library\blowfish.c ****                     unsigned char *output )
 279:C:/Users/dtjld/workspace/AIoT/src/LiteOS_Lab/iot_link/network/dtls/mbedtls/mbedtls-2.16.2/library\blowfish.c **** {
 1927              		.loc 1 279 0
 1928              		.cfi_startproc
 1929              		@ args = 8, pretend = 0, frame = 32
 1930              		@ frame_needed = 1, uses_anonymous_args = 0
 1931 0000 80B5     		push	{r7, lr}
 1932              	.LCFI36:
 1933              		.cfi_def_cfa_offset 8
 1934              		.cfi_offset 7, -8
 1935              		.cfi_offset 14, -4
 1936 0002 88B0     		sub	sp, sp, #32
 1937              	.LCFI37:
 1938              		.cfi_def_cfa_offset 40
 1939 0004 00AF     		add	r7, sp, #0
 1940              	.LCFI38:
 1941              		.cfi_def_cfa_register 7
 1942 0006 F860     		str	r0, [r7, #12]
 1943 0008 B960     		str	r1, [r7, #8]
ARM GAS  C:\Users\dtjld\AppData\Local\Temp\ccQiNuxC.s 			page 40


 1944 000a 7A60     		str	r2, [r7, #4]
 1945 000c 3B60     		str	r3, [r7]
 280:C:/Users/dtjld/workspace/AIoT/src/LiteOS_Lab/iot_link/network/dtls/mbedtls/mbedtls-2.16.2/library\blowfish.c ****     int i;
 281:C:/Users/dtjld/workspace/AIoT/src/LiteOS_Lab/iot_link/network/dtls/mbedtls/mbedtls-2.16.2/library\blowfish.c ****     unsigned char temp[MBEDTLS_BLOWFISH_BLOCKSIZE];
 282:C:/Users/dtjld/workspace/AIoT/src/LiteOS_Lab/iot_link/network/dtls/mbedtls/mbedtls-2.16.2/library\blowfish.c ****     BLOWFISH_VALIDATE_RET( ctx != NULL );
 283:C:/Users/dtjld/workspace/AIoT/src/LiteOS_Lab/iot_link/network/dtls/mbedtls/mbedtls-2.16.2/library\blowfish.c ****     BLOWFISH_VALIDATE_RET( mode == MBEDTLS_BLOWFISH_ENCRYPT ||
 284:C:/Users/dtjld/workspace/AIoT/src/LiteOS_Lab/iot_link/network/dtls/mbedtls/mbedtls-2.16.2/library\blowfish.c ****                            mode == MBEDTLS_BLOWFISH_DECRYPT );
 285:C:/Users/dtjld/workspace/AIoT/src/LiteOS_Lab/iot_link/network/dtls/mbedtls/mbedtls-2.16.2/library\blowfish.c ****     BLOWFISH_VALIDATE_RET( iv != NULL );
 286:C:/Users/dtjld/workspace/AIoT/src/LiteOS_Lab/iot_link/network/dtls/mbedtls/mbedtls-2.16.2/library\blowfish.c ****     BLOWFISH_VALIDATE_RET( length == 0 || input  != NULL );
 287:C:/Users/dtjld/workspace/AIoT/src/LiteOS_Lab/iot_link/network/dtls/mbedtls/mbedtls-2.16.2/library\blowfish.c ****     BLOWFISH_VALIDATE_RET( length == 0 || output != NULL );
 288:C:/Users/dtjld/workspace/AIoT/src/LiteOS_Lab/iot_link/network/dtls/mbedtls/mbedtls-2.16.2/library\blowfish.c **** 
 289:C:/Users/dtjld/workspace/AIoT/src/LiteOS_Lab/iot_link/network/dtls/mbedtls/mbedtls-2.16.2/library\blowfish.c ****     if( length % MBEDTLS_BLOWFISH_BLOCKSIZE )
 1946              		.loc 1 289 0
 1947 000e 7B68     		ldr	r3, [r7, #4]
 1948 0010 03F00703 		and	r3, r3, #7
 1949 0014 002B     		cmp	r3, #0
 1950 0016 02D0     		beq	.L41
 290:C:/Users/dtjld/workspace/AIoT/src/LiteOS_Lab/iot_link/network/dtls/mbedtls/mbedtls-2.16.2/library\blowfish.c ****         return( MBEDTLS_ERR_BLOWFISH_INVALID_INPUT_LENGTH );
 1951              		.loc 1 290 0
 1952 0018 6FF01703 		mvn	r3, #23
 1953 001c 69E0     		b	.L53
 1954              	.L41:
 291:C:/Users/dtjld/workspace/AIoT/src/LiteOS_Lab/iot_link/network/dtls/mbedtls/mbedtls-2.16.2/library\blowfish.c **** 
 292:C:/Users/dtjld/workspace/AIoT/src/LiteOS_Lab/iot_link/network/dtls/mbedtls/mbedtls-2.16.2/library\blowfish.c ****     if( mode == MBEDTLS_BLOWFISH_DECRYPT )
 1955              		.loc 1 292 0
 1956 001e BB68     		ldr	r3, [r7, #8]
 1957 0020 002B     		cmp	r3, #0
 1958 0022 62D1     		bne	.L49
 293:C:/Users/dtjld/workspace/AIoT/src/LiteOS_Lab/iot_link/network/dtls/mbedtls/mbedtls-2.16.2/library\blowfish.c ****     {
 294:C:/Users/dtjld/workspace/AIoT/src/LiteOS_Lab/iot_link/network/dtls/mbedtls/mbedtls-2.16.2/library\blowfish.c ****         while( length > 0 )
 1959              		.loc 1 294 0
 1960 0024 32E0     		b	.L44
 1961              	.L47:
 295:C:/Users/dtjld/workspace/AIoT/src/LiteOS_Lab/iot_link/network/dtls/mbedtls/mbedtls-2.16.2/library\blowfish.c ****         {
 296:C:/Users/dtjld/workspace/AIoT/src/LiteOS_Lab/iot_link/network/dtls/mbedtls/mbedtls-2.16.2/library\blowfish.c ****             memcpy( temp, input, MBEDTLS_BLOWFISH_BLOCKSIZE );
 1962              		.loc 1 296 0
 1963 0026 BA6A     		ldr	r2, [r7, #40]
 1964 0028 07F11403 		add	r3, r7, #20
 1965 002c 1068     		ldr	r0, [r2]	@ unaligned
 1966 002e 5168     		ldr	r1, [r2, #4]	@ unaligned
 1967 0030 03C3     		stmia	r3!, {r0, r1}
 297:C:/Users/dtjld/workspace/AIoT/src/LiteOS_Lab/iot_link/network/dtls/mbedtls/mbedtls-2.16.2/library\blowfish.c ****             mbedtls_blowfish_crypt_ecb( ctx, mode, input, output );
 1968              		.loc 1 297 0
 1969 0032 FB6A     		ldr	r3, [r7, #44]
 1970 0034 BA6A     		ldr	r2, [r7, #40]
 1971 0036 B968     		ldr	r1, [r7, #8]
 1972 0038 F868     		ldr	r0, [r7, #12]
 1973 003a FFF7FEFF 		bl	mbedtls_blowfish_crypt_ecb
 298:C:/Users/dtjld/workspace/AIoT/src/LiteOS_Lab/iot_link/network/dtls/mbedtls/mbedtls-2.16.2/library\blowfish.c **** 
 299:C:/Users/dtjld/workspace/AIoT/src/LiteOS_Lab/iot_link/network/dtls/mbedtls/mbedtls-2.16.2/library\blowfish.c ****             for( i = 0; i < MBEDTLS_BLOWFISH_BLOCKSIZE;i++ )
 1974              		.loc 1 299 0
 1975 003e 0023     		movs	r3, #0
 1976 0040 FB61     		str	r3, [r7, #28]
 1977 0042 10E0     		b	.L45
 1978              	.L46:
 300:C:/Users/dtjld/workspace/AIoT/src/LiteOS_Lab/iot_link/network/dtls/mbedtls/mbedtls-2.16.2/library\blowfish.c ****                 output[i] = (unsigned char)( output[i] ^ iv[i] );
 1979              		.loc 1 300 0 discriminator 3
ARM GAS  C:\Users\dtjld\AppData\Local\Temp\ccQiNuxC.s 			page 41


 1980 0044 FB69     		ldr	r3, [r7, #28]
 1981 0046 FA6A     		ldr	r2, [r7, #44]
 1982 0048 1344     		add	r3, r3, r2
 1983 004a 1978     		ldrb	r1, [r3]	@ zero_extendqisi2
 1984 004c FB69     		ldr	r3, [r7, #28]
 1985 004e 3A68     		ldr	r2, [r7]
 1986 0050 1344     		add	r3, r3, r2
 1987 0052 1A78     		ldrb	r2, [r3]	@ zero_extendqisi2
 1988 0054 FB69     		ldr	r3, [r7, #28]
 1989 0056 F86A     		ldr	r0, [r7, #44]
 1990 0058 0344     		add	r3, r3, r0
 1991 005a 4A40     		eors	r2, r2, r1
 1992 005c D2B2     		uxtb	r2, r2
 1993 005e 1A70     		strb	r2, [r3]
 299:C:/Users/dtjld/workspace/AIoT/src/LiteOS_Lab/iot_link/network/dtls/mbedtls/mbedtls-2.16.2/library\blowfish.c ****                 output[i] = (unsigned char)( output[i] ^ iv[i] );
 1994              		.loc 1 299 0 discriminator 3
 1995 0060 FB69     		ldr	r3, [r7, #28]
 1996 0062 0133     		adds	r3, r3, #1
 1997 0064 FB61     		str	r3, [r7, #28]
 1998              	.L45:
 299:C:/Users/dtjld/workspace/AIoT/src/LiteOS_Lab/iot_link/network/dtls/mbedtls/mbedtls-2.16.2/library\blowfish.c ****                 output[i] = (unsigned char)( output[i] ^ iv[i] );
 1999              		.loc 1 299 0 is_stmt 0 discriminator 1
 2000 0066 FB69     		ldr	r3, [r7, #28]
 2001 0068 072B     		cmp	r3, #7
 2002 006a EBDD     		ble	.L46
 301:C:/Users/dtjld/workspace/AIoT/src/LiteOS_Lab/iot_link/network/dtls/mbedtls/mbedtls-2.16.2/library\blowfish.c **** 
 302:C:/Users/dtjld/workspace/AIoT/src/LiteOS_Lab/iot_link/network/dtls/mbedtls/mbedtls-2.16.2/library\blowfish.c ****             memcpy( iv, temp, MBEDTLS_BLOWFISH_BLOCKSIZE );
 2003              		.loc 1 302 0 is_stmt 1
 2004 006c 3B68     		ldr	r3, [r7]
 2005 006e 1A46     		mov	r2, r3
 2006 0070 07F11403 		add	r3, r7, #20
 2007 0074 03CB     		ldmia	r3!, {r0, r1}
 2008 0076 1060     		str	r0, [r2]	@ unaligned
 2009 0078 5160     		str	r1, [r2, #4]	@ unaligned
 303:C:/Users/dtjld/workspace/AIoT/src/LiteOS_Lab/iot_link/network/dtls/mbedtls/mbedtls-2.16.2/library\blowfish.c **** 
 304:C:/Users/dtjld/workspace/AIoT/src/LiteOS_Lab/iot_link/network/dtls/mbedtls/mbedtls-2.16.2/library\blowfish.c ****             input  += MBEDTLS_BLOWFISH_BLOCKSIZE;
 2010              		.loc 1 304 0
 2011 007a BB6A     		ldr	r3, [r7, #40]
 2012 007c 0833     		adds	r3, r3, #8
 2013 007e BB62     		str	r3, [r7, #40]
 305:C:/Users/dtjld/workspace/AIoT/src/LiteOS_Lab/iot_link/network/dtls/mbedtls/mbedtls-2.16.2/library\blowfish.c ****             output += MBEDTLS_BLOWFISH_BLOCKSIZE;
 2014              		.loc 1 305 0
 2015 0080 FB6A     		ldr	r3, [r7, #44]
 2016 0082 0833     		adds	r3, r3, #8
 2017 0084 FB62     		str	r3, [r7, #44]
 306:C:/Users/dtjld/workspace/AIoT/src/LiteOS_Lab/iot_link/network/dtls/mbedtls/mbedtls-2.16.2/library\blowfish.c ****             length -= MBEDTLS_BLOWFISH_BLOCKSIZE;
 2018              		.loc 1 306 0
 2019 0086 7B68     		ldr	r3, [r7, #4]
 2020 0088 083B     		subs	r3, r3, #8
 2021 008a 7B60     		str	r3, [r7, #4]
 2022              	.L44:
 294:C:/Users/dtjld/workspace/AIoT/src/LiteOS_Lab/iot_link/network/dtls/mbedtls/mbedtls-2.16.2/library\blowfish.c ****         {
 2023              		.loc 1 294 0
 2024 008c 7B68     		ldr	r3, [r7, #4]
 2025 008e 002B     		cmp	r3, #0
 2026 0090 C9D1     		bne	.L47
 2027 0092 2DE0     		b	.L48
ARM GAS  C:\Users\dtjld\AppData\Local\Temp\ccQiNuxC.s 			page 42


 2028              	.L52:
 307:C:/Users/dtjld/workspace/AIoT/src/LiteOS_Lab/iot_link/network/dtls/mbedtls/mbedtls-2.16.2/library\blowfish.c ****         }
 308:C:/Users/dtjld/workspace/AIoT/src/LiteOS_Lab/iot_link/network/dtls/mbedtls/mbedtls-2.16.2/library\blowfish.c ****     }
 309:C:/Users/dtjld/workspace/AIoT/src/LiteOS_Lab/iot_link/network/dtls/mbedtls/mbedtls-2.16.2/library\blowfish.c ****     else
 310:C:/Users/dtjld/workspace/AIoT/src/LiteOS_Lab/iot_link/network/dtls/mbedtls/mbedtls-2.16.2/library\blowfish.c ****     {
 311:C:/Users/dtjld/workspace/AIoT/src/LiteOS_Lab/iot_link/network/dtls/mbedtls/mbedtls-2.16.2/library\blowfish.c ****         while( length > 0 )
 312:C:/Users/dtjld/workspace/AIoT/src/LiteOS_Lab/iot_link/network/dtls/mbedtls/mbedtls-2.16.2/library\blowfish.c ****         {
 313:C:/Users/dtjld/workspace/AIoT/src/LiteOS_Lab/iot_link/network/dtls/mbedtls/mbedtls-2.16.2/library\blowfish.c ****             for( i = 0; i < MBEDTLS_BLOWFISH_BLOCKSIZE; i++ )
 2029              		.loc 1 313 0
 2030 0094 0023     		movs	r3, #0
 2031 0096 FB61     		str	r3, [r7, #28]
 2032 0098 10E0     		b	.L50
 2033              	.L51:
 314:C:/Users/dtjld/workspace/AIoT/src/LiteOS_Lab/iot_link/network/dtls/mbedtls/mbedtls-2.16.2/library\blowfish.c ****                 output[i] = (unsigned char)( input[i] ^ iv[i] );
 2034              		.loc 1 314 0 discriminator 3
 2035 009a FB69     		ldr	r3, [r7, #28]
 2036 009c BA6A     		ldr	r2, [r7, #40]
 2037 009e 1344     		add	r3, r3, r2
 2038 00a0 1978     		ldrb	r1, [r3]	@ zero_extendqisi2
 2039 00a2 FB69     		ldr	r3, [r7, #28]
 2040 00a4 3A68     		ldr	r2, [r7]
 2041 00a6 1344     		add	r3, r3, r2
 2042 00a8 1A78     		ldrb	r2, [r3]	@ zero_extendqisi2
 2043 00aa FB69     		ldr	r3, [r7, #28]
 2044 00ac F86A     		ldr	r0, [r7, #44]
 2045 00ae 0344     		add	r3, r3, r0
 2046 00b0 4A40     		eors	r2, r2, r1
 2047 00b2 D2B2     		uxtb	r2, r2
 2048 00b4 1A70     		strb	r2, [r3]
 313:C:/Users/dtjld/workspace/AIoT/src/LiteOS_Lab/iot_link/network/dtls/mbedtls/mbedtls-2.16.2/library\blowfish.c ****                 output[i] = (unsigned char)( input[i] ^ iv[i] );
 2049              		.loc 1 313 0 discriminator 3
 2050 00b6 FB69     		ldr	r3, [r7, #28]
 2051 00b8 0133     		adds	r3, r3, #1
 2052 00ba FB61     		str	r3, [r7, #28]
 2053              	.L50:
 313:C:/Users/dtjld/workspace/AIoT/src/LiteOS_Lab/iot_link/network/dtls/mbedtls/mbedtls-2.16.2/library\blowfish.c ****                 output[i] = (unsigned char)( input[i] ^ iv[i] );
 2054              		.loc 1 313 0 is_stmt 0 discriminator 1
 2055 00bc FB69     		ldr	r3, [r7, #28]
 2056 00be 072B     		cmp	r3, #7
 2057 00c0 EBDD     		ble	.L51
 315:C:/Users/dtjld/workspace/AIoT/src/LiteOS_Lab/iot_link/network/dtls/mbedtls/mbedtls-2.16.2/library\blowfish.c **** 
 316:C:/Users/dtjld/workspace/AIoT/src/LiteOS_Lab/iot_link/network/dtls/mbedtls/mbedtls-2.16.2/library\blowfish.c ****             mbedtls_blowfish_crypt_ecb( ctx, mode, output, output );
 2058              		.loc 1 316 0 is_stmt 1
 2059 00c2 FB6A     		ldr	r3, [r7, #44]
 2060 00c4 FA6A     		ldr	r2, [r7, #44]
 2061 00c6 B968     		ldr	r1, [r7, #8]
 2062 00c8 F868     		ldr	r0, [r7, #12]
 2063 00ca FFF7FEFF 		bl	mbedtls_blowfish_crypt_ecb
 317:C:/Users/dtjld/workspace/AIoT/src/LiteOS_Lab/iot_link/network/dtls/mbedtls/mbedtls-2.16.2/library\blowfish.c ****             memcpy( iv, output, MBEDTLS_BLOWFISH_BLOCKSIZE );
 2064              		.loc 1 317 0
 2065 00ce 0822     		movs	r2, #8
 2066 00d0 F96A     		ldr	r1, [r7, #44]
 2067 00d2 3868     		ldr	r0, [r7]
 2068 00d4 FFF7FEFF 		bl	memcpy
 318:C:/Users/dtjld/workspace/AIoT/src/LiteOS_Lab/iot_link/network/dtls/mbedtls/mbedtls-2.16.2/library\blowfish.c **** 
 319:C:/Users/dtjld/workspace/AIoT/src/LiteOS_Lab/iot_link/network/dtls/mbedtls/mbedtls-2.16.2/library\blowfish.c ****             input  += MBEDTLS_BLOWFISH_BLOCKSIZE;
 2069              		.loc 1 319 0
ARM GAS  C:\Users\dtjld\AppData\Local\Temp\ccQiNuxC.s 			page 43


 2070 00d8 BB6A     		ldr	r3, [r7, #40]
 2071 00da 0833     		adds	r3, r3, #8
 2072 00dc BB62     		str	r3, [r7, #40]
 320:C:/Users/dtjld/workspace/AIoT/src/LiteOS_Lab/iot_link/network/dtls/mbedtls/mbedtls-2.16.2/library\blowfish.c ****             output += MBEDTLS_BLOWFISH_BLOCKSIZE;
 2073              		.loc 1 320 0
 2074 00de FB6A     		ldr	r3, [r7, #44]
 2075 00e0 0833     		adds	r3, r3, #8
 2076 00e2 FB62     		str	r3, [r7, #44]
 321:C:/Users/dtjld/workspace/AIoT/src/LiteOS_Lab/iot_link/network/dtls/mbedtls/mbedtls-2.16.2/library\blowfish.c ****             length -= MBEDTLS_BLOWFISH_BLOCKSIZE;
 2077              		.loc 1 321 0
 2078 00e4 7B68     		ldr	r3, [r7, #4]
 2079 00e6 083B     		subs	r3, r3, #8
 2080 00e8 7B60     		str	r3, [r7, #4]
 2081              	.L49:
 311:C:/Users/dtjld/workspace/AIoT/src/LiteOS_Lab/iot_link/network/dtls/mbedtls/mbedtls-2.16.2/library\blowfish.c ****         {
 2082              		.loc 1 311 0
 2083 00ea 7B68     		ldr	r3, [r7, #4]
 2084 00ec 002B     		cmp	r3, #0
 2085 00ee D1D1     		bne	.L52
 2086              	.L48:
 322:C:/Users/dtjld/workspace/AIoT/src/LiteOS_Lab/iot_link/network/dtls/mbedtls/mbedtls-2.16.2/library\blowfish.c ****         }
 323:C:/Users/dtjld/workspace/AIoT/src/LiteOS_Lab/iot_link/network/dtls/mbedtls/mbedtls-2.16.2/library\blowfish.c ****     }
 324:C:/Users/dtjld/workspace/AIoT/src/LiteOS_Lab/iot_link/network/dtls/mbedtls/mbedtls-2.16.2/library\blowfish.c **** 
 325:C:/Users/dtjld/workspace/AIoT/src/LiteOS_Lab/iot_link/network/dtls/mbedtls/mbedtls-2.16.2/library\blowfish.c ****     return( 0 );
 2087              		.loc 1 325 0
 2088 00f0 0023     		movs	r3, #0
 2089              	.L53:
 326:C:/Users/dtjld/workspace/AIoT/src/LiteOS_Lab/iot_link/network/dtls/mbedtls/mbedtls-2.16.2/library\blowfish.c **** }
 2090              		.loc 1 326 0 discriminator 1
 2091 00f2 1846     		mov	r0, r3
 2092 00f4 2037     		adds	r7, r7, #32
 2093              	.LCFI39:
 2094              		.cfi_def_cfa_offset 8
 2095 00f6 BD46     		mov	sp, r7
 2096              	.LCFI40:
 2097              		.cfi_def_cfa_register 13
 2098              		@ sp needed
 2099 00f8 80BD     		pop	{r7, pc}
 2100              		.cfi_endproc
 2101              	.LFE7:
 2103              		.section	.text.mbedtls_blowfish_crypt_cfb64,"ax",%progbits
 2104              		.align	1
 2105              		.global	mbedtls_blowfish_crypt_cfb64
 2106              		.syntax unified
 2107              		.thumb
 2108              		.thumb_func
 2109              		.fpu fpv4-sp-d16
 2111              	mbedtls_blowfish_crypt_cfb64:
 2112              	.LFB8:
 327:C:/Users/dtjld/workspace/AIoT/src/LiteOS_Lab/iot_link/network/dtls/mbedtls/mbedtls-2.16.2/library\blowfish.c **** #endif /* MBEDTLS_CIPHER_MODE_CBC */
 328:C:/Users/dtjld/workspace/AIoT/src/LiteOS_Lab/iot_link/network/dtls/mbedtls/mbedtls-2.16.2/library\blowfish.c **** 
 329:C:/Users/dtjld/workspace/AIoT/src/LiteOS_Lab/iot_link/network/dtls/mbedtls/mbedtls-2.16.2/library\blowfish.c **** #if defined(MBEDTLS_CIPHER_MODE_CFB)
 330:C:/Users/dtjld/workspace/AIoT/src/LiteOS_Lab/iot_link/network/dtls/mbedtls/mbedtls-2.16.2/library\blowfish.c **** /*
 331:C:/Users/dtjld/workspace/AIoT/src/LiteOS_Lab/iot_link/network/dtls/mbedtls/mbedtls-2.16.2/library\blowfish.c ****  * Blowfish CFB buffer encryption/decryption
 332:C:/Users/dtjld/workspace/AIoT/src/LiteOS_Lab/iot_link/network/dtls/mbedtls/mbedtls-2.16.2/library\blowfish.c ****  */
 333:C:/Users/dtjld/workspace/AIoT/src/LiteOS_Lab/iot_link/network/dtls/mbedtls/mbedtls-2.16.2/library\blowfish.c **** int mbedtls_blowfish_crypt_cfb64( mbedtls_blowfish_context *ctx,
 334:C:/Users/dtjld/workspace/AIoT/src/LiteOS_Lab/iot_link/network/dtls/mbedtls/mbedtls-2.16.2/library\blowfish.c ****                        int mode,
ARM GAS  C:\Users\dtjld\AppData\Local\Temp\ccQiNuxC.s 			page 44


 335:C:/Users/dtjld/workspace/AIoT/src/LiteOS_Lab/iot_link/network/dtls/mbedtls/mbedtls-2.16.2/library\blowfish.c ****                        size_t length,
 336:C:/Users/dtjld/workspace/AIoT/src/LiteOS_Lab/iot_link/network/dtls/mbedtls/mbedtls-2.16.2/library\blowfish.c ****                        size_t *iv_off,
 337:C:/Users/dtjld/workspace/AIoT/src/LiteOS_Lab/iot_link/network/dtls/mbedtls/mbedtls-2.16.2/library\blowfish.c ****                        unsigned char iv[MBEDTLS_BLOWFISH_BLOCKSIZE],
 338:C:/Users/dtjld/workspace/AIoT/src/LiteOS_Lab/iot_link/network/dtls/mbedtls/mbedtls-2.16.2/library\blowfish.c ****                        const unsigned char *input,
 339:C:/Users/dtjld/workspace/AIoT/src/LiteOS_Lab/iot_link/network/dtls/mbedtls/mbedtls-2.16.2/library\blowfish.c ****                        unsigned char *output )
 340:C:/Users/dtjld/workspace/AIoT/src/LiteOS_Lab/iot_link/network/dtls/mbedtls/mbedtls-2.16.2/library\blowfish.c **** {
 2113              		.loc 1 340 0
 2114              		.cfi_startproc
 2115              		@ args = 12, pretend = 0, frame = 24
 2116              		@ frame_needed = 1, uses_anonymous_args = 0
 2117 0000 80B5     		push	{r7, lr}
 2118              	.LCFI41:
 2119              		.cfi_def_cfa_offset 8
 2120              		.cfi_offset 7, -8
 2121              		.cfi_offset 14, -4
 2122 0002 86B0     		sub	sp, sp, #24
 2123              	.LCFI42:
 2124              		.cfi_def_cfa_offset 32
 2125 0004 00AF     		add	r7, sp, #0
 2126              	.LCFI43:
 2127              		.cfi_def_cfa_register 7
 2128 0006 F860     		str	r0, [r7, #12]
 2129 0008 B960     		str	r1, [r7, #8]
 2130 000a 7A60     		str	r2, [r7, #4]
 2131 000c 3B60     		str	r3, [r7]
 341:C:/Users/dtjld/workspace/AIoT/src/LiteOS_Lab/iot_link/network/dtls/mbedtls/mbedtls-2.16.2/library\blowfish.c ****     int c;
 342:C:/Users/dtjld/workspace/AIoT/src/LiteOS_Lab/iot_link/network/dtls/mbedtls/mbedtls-2.16.2/library\blowfish.c ****     size_t n;
 343:C:/Users/dtjld/workspace/AIoT/src/LiteOS_Lab/iot_link/network/dtls/mbedtls/mbedtls-2.16.2/library\blowfish.c **** 
 344:C:/Users/dtjld/workspace/AIoT/src/LiteOS_Lab/iot_link/network/dtls/mbedtls/mbedtls-2.16.2/library\blowfish.c ****     BLOWFISH_VALIDATE_RET( ctx != NULL );
 345:C:/Users/dtjld/workspace/AIoT/src/LiteOS_Lab/iot_link/network/dtls/mbedtls/mbedtls-2.16.2/library\blowfish.c ****     BLOWFISH_VALIDATE_RET( mode == MBEDTLS_BLOWFISH_ENCRYPT ||
 346:C:/Users/dtjld/workspace/AIoT/src/LiteOS_Lab/iot_link/network/dtls/mbedtls/mbedtls-2.16.2/library\blowfish.c ****                            mode == MBEDTLS_BLOWFISH_DECRYPT );
 347:C:/Users/dtjld/workspace/AIoT/src/LiteOS_Lab/iot_link/network/dtls/mbedtls/mbedtls-2.16.2/library\blowfish.c ****     BLOWFISH_VALIDATE_RET( iv     != NULL );
 348:C:/Users/dtjld/workspace/AIoT/src/LiteOS_Lab/iot_link/network/dtls/mbedtls/mbedtls-2.16.2/library\blowfish.c ****     BLOWFISH_VALIDATE_RET( iv_off != NULL );
 349:C:/Users/dtjld/workspace/AIoT/src/LiteOS_Lab/iot_link/network/dtls/mbedtls/mbedtls-2.16.2/library\blowfish.c ****     BLOWFISH_VALIDATE_RET( length == 0 || input  != NULL );
 350:C:/Users/dtjld/workspace/AIoT/src/LiteOS_Lab/iot_link/network/dtls/mbedtls/mbedtls-2.16.2/library\blowfish.c ****     BLOWFISH_VALIDATE_RET( length == 0 || output != NULL );
 351:C:/Users/dtjld/workspace/AIoT/src/LiteOS_Lab/iot_link/network/dtls/mbedtls/mbedtls-2.16.2/library\blowfish.c **** 
 352:C:/Users/dtjld/workspace/AIoT/src/LiteOS_Lab/iot_link/network/dtls/mbedtls/mbedtls-2.16.2/library\blowfish.c ****     n = *iv_off;
 2132              		.loc 1 352 0
 2133 000e 3B68     		ldr	r3, [r7]
 2134 0010 1B68     		ldr	r3, [r3]
 2135 0012 7B61     		str	r3, [r7, #20]
 353:C:/Users/dtjld/workspace/AIoT/src/LiteOS_Lab/iot_link/network/dtls/mbedtls/mbedtls-2.16.2/library\blowfish.c ****     if( n >= 8 )
 2136              		.loc 1 353 0
 2137 0014 7B69     		ldr	r3, [r7, #20]
 2138 0016 072B     		cmp	r3, #7
 2139 0018 02D9     		bls	.L55
 354:C:/Users/dtjld/workspace/AIoT/src/LiteOS_Lab/iot_link/network/dtls/mbedtls/mbedtls-2.16.2/library\blowfish.c ****         return( MBEDTLS_ERR_BLOWFISH_BAD_INPUT_DATA );
 2140              		.loc 1 354 0
 2141 001a 6FF01503 		mvn	r3, #21
 2142 001e 5AE0     		b	.L56
 2143              	.L55:
 355:C:/Users/dtjld/workspace/AIoT/src/LiteOS_Lab/iot_link/network/dtls/mbedtls/mbedtls-2.16.2/library\blowfish.c **** 
 356:C:/Users/dtjld/workspace/AIoT/src/LiteOS_Lab/iot_link/network/dtls/mbedtls/mbedtls-2.16.2/library\blowfish.c ****     if( mode == MBEDTLS_BLOWFISH_DECRYPT )
 2144              		.loc 1 356 0
 2145 0020 BB68     		ldr	r3, [r7, #8]
 2146 0022 002B     		cmp	r3, #0
 2147 0024 4ED1     		bne	.L62
ARM GAS  C:\Users\dtjld\AppData\Local\Temp\ccQiNuxC.s 			page 45


 357:C:/Users/dtjld/workspace/AIoT/src/LiteOS_Lab/iot_link/network/dtls/mbedtls/mbedtls-2.16.2/library\blowfish.c ****     {
 358:C:/Users/dtjld/workspace/AIoT/src/LiteOS_Lab/iot_link/network/dtls/mbedtls/mbedtls-2.16.2/library\blowfish.c ****         while( length-- )
 2148              		.loc 1 358 0
 2149 0026 26E0     		b	.L58
 2150              	.L60:
 359:C:/Users/dtjld/workspace/AIoT/src/LiteOS_Lab/iot_link/network/dtls/mbedtls/mbedtls-2.16.2/library\blowfish.c ****         {
 360:C:/Users/dtjld/workspace/AIoT/src/LiteOS_Lab/iot_link/network/dtls/mbedtls/mbedtls-2.16.2/library\blowfish.c ****             if( n == 0 )
 2151              		.loc 1 360 0
 2152 0028 7B69     		ldr	r3, [r7, #20]
 2153 002a 002B     		cmp	r3, #0
 2154 002c 05D1     		bne	.L59
 361:C:/Users/dtjld/workspace/AIoT/src/LiteOS_Lab/iot_link/network/dtls/mbedtls/mbedtls-2.16.2/library\blowfish.c ****                 mbedtls_blowfish_crypt_ecb( ctx, MBEDTLS_BLOWFISH_ENCRYPT, iv, iv );
 2155              		.loc 1 361 0
 2156 002e 3B6A     		ldr	r3, [r7, #32]
 2157 0030 3A6A     		ldr	r2, [r7, #32]
 2158 0032 0121     		movs	r1, #1
 2159 0034 F868     		ldr	r0, [r7, #12]
 2160 0036 FFF7FEFF 		bl	mbedtls_blowfish_crypt_ecb
 2161              	.L59:
 362:C:/Users/dtjld/workspace/AIoT/src/LiteOS_Lab/iot_link/network/dtls/mbedtls/mbedtls-2.16.2/library\blowfish.c **** 
 363:C:/Users/dtjld/workspace/AIoT/src/LiteOS_Lab/iot_link/network/dtls/mbedtls/mbedtls-2.16.2/library\blowfish.c ****             c = *input++;
 2162              		.loc 1 363 0
 2163 003a 7B6A     		ldr	r3, [r7, #36]
 2164 003c 5A1C     		adds	r2, r3, #1
 2165 003e 7A62     		str	r2, [r7, #36]
 2166 0040 1B78     		ldrb	r3, [r3]	@ zero_extendqisi2
 2167 0042 3B61     		str	r3, [r7, #16]
 364:C:/Users/dtjld/workspace/AIoT/src/LiteOS_Lab/iot_link/network/dtls/mbedtls/mbedtls-2.16.2/library\blowfish.c ****             *output++ = (unsigned char)( c ^ iv[n] );
 2168              		.loc 1 364 0
 2169 0044 3B69     		ldr	r3, [r7, #16]
 2170 0046 5AB2     		sxtb	r2, r3
 2171 0048 396A     		ldr	r1, [r7, #32]
 2172 004a 7B69     		ldr	r3, [r7, #20]
 2173 004c 0B44     		add	r3, r3, r1
 2174 004e 1B78     		ldrb	r3, [r3]	@ zero_extendqisi2
 2175 0050 5BB2     		sxtb	r3, r3
 2176 0052 5340     		eors	r3, r3, r2
 2177 0054 59B2     		sxtb	r1, r3
 2178 0056 BB6A     		ldr	r3, [r7, #40]
 2179 0058 5A1C     		adds	r2, r3, #1
 2180 005a BA62     		str	r2, [r7, #40]
 2181 005c CAB2     		uxtb	r2, r1
 2182 005e 1A70     		strb	r2, [r3]
 365:C:/Users/dtjld/workspace/AIoT/src/LiteOS_Lab/iot_link/network/dtls/mbedtls/mbedtls-2.16.2/library\blowfish.c ****             iv[n] = (unsigned char) c;
 2183              		.loc 1 365 0
 2184 0060 3A6A     		ldr	r2, [r7, #32]
 2185 0062 7B69     		ldr	r3, [r7, #20]
 2186 0064 1344     		add	r3, r3, r2
 2187 0066 3A69     		ldr	r2, [r7, #16]
 2188 0068 D2B2     		uxtb	r2, r2
 2189 006a 1A70     		strb	r2, [r3]
 366:C:/Users/dtjld/workspace/AIoT/src/LiteOS_Lab/iot_link/network/dtls/mbedtls/mbedtls-2.16.2/library\blowfish.c **** 
 367:C:/Users/dtjld/workspace/AIoT/src/LiteOS_Lab/iot_link/network/dtls/mbedtls/mbedtls-2.16.2/library\blowfish.c ****             n = ( n + 1 ) % MBEDTLS_BLOWFISH_BLOCKSIZE;
 2190              		.loc 1 367 0
 2191 006c 7B69     		ldr	r3, [r7, #20]
 2192 006e 0133     		adds	r3, r3, #1
 2193 0070 03F00703 		and	r3, r3, #7
ARM GAS  C:\Users\dtjld\AppData\Local\Temp\ccQiNuxC.s 			page 46


 2194 0074 7B61     		str	r3, [r7, #20]
 2195              	.L58:
 358:C:/Users/dtjld/workspace/AIoT/src/LiteOS_Lab/iot_link/network/dtls/mbedtls/mbedtls-2.16.2/library\blowfish.c ****         {
 2196              		.loc 1 358 0
 2197 0076 7B68     		ldr	r3, [r7, #4]
 2198 0078 5A1E     		subs	r2, r3, #1
 2199 007a 7A60     		str	r2, [r7, #4]
 2200 007c 002B     		cmp	r3, #0
 2201 007e D3D1     		bne	.L60
 2202 0080 25E0     		b	.L61
 2203              	.L64:
 368:C:/Users/dtjld/workspace/AIoT/src/LiteOS_Lab/iot_link/network/dtls/mbedtls/mbedtls-2.16.2/library\blowfish.c ****         }
 369:C:/Users/dtjld/workspace/AIoT/src/LiteOS_Lab/iot_link/network/dtls/mbedtls/mbedtls-2.16.2/library\blowfish.c ****     }
 370:C:/Users/dtjld/workspace/AIoT/src/LiteOS_Lab/iot_link/network/dtls/mbedtls/mbedtls-2.16.2/library\blowfish.c ****     else
 371:C:/Users/dtjld/workspace/AIoT/src/LiteOS_Lab/iot_link/network/dtls/mbedtls/mbedtls-2.16.2/library\blowfish.c ****     {
 372:C:/Users/dtjld/workspace/AIoT/src/LiteOS_Lab/iot_link/network/dtls/mbedtls/mbedtls-2.16.2/library\blowfish.c ****         while( length-- )
 373:C:/Users/dtjld/workspace/AIoT/src/LiteOS_Lab/iot_link/network/dtls/mbedtls/mbedtls-2.16.2/library\blowfish.c ****         {
 374:C:/Users/dtjld/workspace/AIoT/src/LiteOS_Lab/iot_link/network/dtls/mbedtls/mbedtls-2.16.2/library\blowfish.c ****             if( n == 0 )
 2204              		.loc 1 374 0
 2205 0082 7B69     		ldr	r3, [r7, #20]
 2206 0084 002B     		cmp	r3, #0
 2207 0086 05D1     		bne	.L63
 375:C:/Users/dtjld/workspace/AIoT/src/LiteOS_Lab/iot_link/network/dtls/mbedtls/mbedtls-2.16.2/library\blowfish.c ****                 mbedtls_blowfish_crypt_ecb( ctx, MBEDTLS_BLOWFISH_ENCRYPT, iv, iv );
 2208              		.loc 1 375 0
 2209 0088 3B6A     		ldr	r3, [r7, #32]
 2210 008a 3A6A     		ldr	r2, [r7, #32]
 2211 008c 0121     		movs	r1, #1
 2212 008e F868     		ldr	r0, [r7, #12]
 2213 0090 FFF7FEFF 		bl	mbedtls_blowfish_crypt_ecb
 2214              	.L63:
 376:C:/Users/dtjld/workspace/AIoT/src/LiteOS_Lab/iot_link/network/dtls/mbedtls/mbedtls-2.16.2/library\blowfish.c **** 
 377:C:/Users/dtjld/workspace/AIoT/src/LiteOS_Lab/iot_link/network/dtls/mbedtls/mbedtls-2.16.2/library\blowfish.c ****             iv[n] = *output++ = (unsigned char)( iv[n] ^ *input++ );
 2215              		.loc 1 377 0
 2216 0094 3A6A     		ldr	r2, [r7, #32]
 2217 0096 7B69     		ldr	r3, [r7, #20]
 2218 0098 1344     		add	r3, r3, r2
 2219 009a 1978     		ldrb	r1, [r3]	@ zero_extendqisi2
 2220 009c 7B6A     		ldr	r3, [r7, #36]
 2221 009e 5A1C     		adds	r2, r3, #1
 2222 00a0 7A62     		str	r2, [r7, #36]
 2223 00a2 1A78     		ldrb	r2, [r3]	@ zero_extendqisi2
 2224 00a4 BB6A     		ldr	r3, [r7, #40]
 2225 00a6 581C     		adds	r0, r3, #1
 2226 00a8 B862     		str	r0, [r7, #40]
 2227 00aa 4A40     		eors	r2, r2, r1
 2228 00ac D2B2     		uxtb	r2, r2
 2229 00ae 1A70     		strb	r2, [r3]
 2230 00b0 396A     		ldr	r1, [r7, #32]
 2231 00b2 7A69     		ldr	r2, [r7, #20]
 2232 00b4 0A44     		add	r2, r2, r1
 2233 00b6 1B78     		ldrb	r3, [r3]	@ zero_extendqisi2
 2234 00b8 1370     		strb	r3, [r2]
 378:C:/Users/dtjld/workspace/AIoT/src/LiteOS_Lab/iot_link/network/dtls/mbedtls/mbedtls-2.16.2/library\blowfish.c **** 
 379:C:/Users/dtjld/workspace/AIoT/src/LiteOS_Lab/iot_link/network/dtls/mbedtls/mbedtls-2.16.2/library\blowfish.c ****             n = ( n + 1 ) % MBEDTLS_BLOWFISH_BLOCKSIZE;
 2235              		.loc 1 379 0
 2236 00ba 7B69     		ldr	r3, [r7, #20]
 2237 00bc 0133     		adds	r3, r3, #1
ARM GAS  C:\Users\dtjld\AppData\Local\Temp\ccQiNuxC.s 			page 47


 2238 00be 03F00703 		and	r3, r3, #7
 2239 00c2 7B61     		str	r3, [r7, #20]
 2240              	.L62:
 372:C:/Users/dtjld/workspace/AIoT/src/LiteOS_Lab/iot_link/network/dtls/mbedtls/mbedtls-2.16.2/library\blowfish.c ****         {
 2241              		.loc 1 372 0
 2242 00c4 7B68     		ldr	r3, [r7, #4]
 2243 00c6 5A1E     		subs	r2, r3, #1
 2244 00c8 7A60     		str	r2, [r7, #4]
 2245 00ca 002B     		cmp	r3, #0
 2246 00cc D9D1     		bne	.L64
 2247              	.L61:
 380:C:/Users/dtjld/workspace/AIoT/src/LiteOS_Lab/iot_link/network/dtls/mbedtls/mbedtls-2.16.2/library\blowfish.c ****         }
 381:C:/Users/dtjld/workspace/AIoT/src/LiteOS_Lab/iot_link/network/dtls/mbedtls/mbedtls-2.16.2/library\blowfish.c ****     }
 382:C:/Users/dtjld/workspace/AIoT/src/LiteOS_Lab/iot_link/network/dtls/mbedtls/mbedtls-2.16.2/library\blowfish.c **** 
 383:C:/Users/dtjld/workspace/AIoT/src/LiteOS_Lab/iot_link/network/dtls/mbedtls/mbedtls-2.16.2/library\blowfish.c ****     *iv_off = n;
 2248              		.loc 1 383 0
 2249 00ce 3B68     		ldr	r3, [r7]
 2250 00d0 7A69     		ldr	r2, [r7, #20]
 2251 00d2 1A60     		str	r2, [r3]
 384:C:/Users/dtjld/workspace/AIoT/src/LiteOS_Lab/iot_link/network/dtls/mbedtls/mbedtls-2.16.2/library\blowfish.c **** 
 385:C:/Users/dtjld/workspace/AIoT/src/LiteOS_Lab/iot_link/network/dtls/mbedtls/mbedtls-2.16.2/library\blowfish.c ****     return( 0 );
 2252              		.loc 1 385 0
 2253 00d4 0023     		movs	r3, #0
 2254              	.L56:
 386:C:/Users/dtjld/workspace/AIoT/src/LiteOS_Lab/iot_link/network/dtls/mbedtls/mbedtls-2.16.2/library\blowfish.c **** }
 2255              		.loc 1 386 0
 2256 00d6 1846     		mov	r0, r3
 2257 00d8 1837     		adds	r7, r7, #24
 2258              	.LCFI44:
 2259              		.cfi_def_cfa_offset 8
 2260 00da BD46     		mov	sp, r7
 2261              	.LCFI45:
 2262              		.cfi_def_cfa_register 13
 2263              		@ sp needed
 2264 00dc 80BD     		pop	{r7, pc}
 2265              		.cfi_endproc
 2266              	.LFE8:
 2268              		.section	.text.mbedtls_blowfish_crypt_ctr,"ax",%progbits
 2269              		.align	1
 2270              		.global	mbedtls_blowfish_crypt_ctr
 2271              		.syntax unified
 2272              		.thumb
 2273              		.thumb_func
 2274              		.fpu fpv4-sp-d16
 2276              	mbedtls_blowfish_crypt_ctr:
 2277              	.LFB9:
 387:C:/Users/dtjld/workspace/AIoT/src/LiteOS_Lab/iot_link/network/dtls/mbedtls/mbedtls-2.16.2/library\blowfish.c **** #endif /*MBEDTLS_CIPHER_MODE_CFB */
 388:C:/Users/dtjld/workspace/AIoT/src/LiteOS_Lab/iot_link/network/dtls/mbedtls/mbedtls-2.16.2/library\blowfish.c **** 
 389:C:/Users/dtjld/workspace/AIoT/src/LiteOS_Lab/iot_link/network/dtls/mbedtls/mbedtls-2.16.2/library\blowfish.c **** #if defined(MBEDTLS_CIPHER_MODE_CTR)
 390:C:/Users/dtjld/workspace/AIoT/src/LiteOS_Lab/iot_link/network/dtls/mbedtls/mbedtls-2.16.2/library\blowfish.c **** /*
 391:C:/Users/dtjld/workspace/AIoT/src/LiteOS_Lab/iot_link/network/dtls/mbedtls/mbedtls-2.16.2/library\blowfish.c ****  * Blowfish CTR buffer encryption/decryption
 392:C:/Users/dtjld/workspace/AIoT/src/LiteOS_Lab/iot_link/network/dtls/mbedtls/mbedtls-2.16.2/library\blowfish.c ****  */
 393:C:/Users/dtjld/workspace/AIoT/src/LiteOS_Lab/iot_link/network/dtls/mbedtls/mbedtls-2.16.2/library\blowfish.c **** int mbedtls_blowfish_crypt_ctr( mbedtls_blowfish_context *ctx,
 394:C:/Users/dtjld/workspace/AIoT/src/LiteOS_Lab/iot_link/network/dtls/mbedtls/mbedtls-2.16.2/library\blowfish.c ****                        size_t length,
 395:C:/Users/dtjld/workspace/AIoT/src/LiteOS_Lab/iot_link/network/dtls/mbedtls/mbedtls-2.16.2/library\blowfish.c ****                        size_t *nc_off,
 396:C:/Users/dtjld/workspace/AIoT/src/LiteOS_Lab/iot_link/network/dtls/mbedtls/mbedtls-2.16.2/library\blowfish.c ****                        unsigned char nonce_counter[MBEDTLS_BLOWFISH_BLOCKSIZE],
 397:C:/Users/dtjld/workspace/AIoT/src/LiteOS_Lab/iot_link/network/dtls/mbedtls/mbedtls-2.16.2/library\blowfish.c ****                        unsigned char stream_block[MBEDTLS_BLOWFISH_BLOCKSIZE],
ARM GAS  C:\Users\dtjld\AppData\Local\Temp\ccQiNuxC.s 			page 48


 398:C:/Users/dtjld/workspace/AIoT/src/LiteOS_Lab/iot_link/network/dtls/mbedtls/mbedtls-2.16.2/library\blowfish.c ****                        const unsigned char *input,
 399:C:/Users/dtjld/workspace/AIoT/src/LiteOS_Lab/iot_link/network/dtls/mbedtls/mbedtls-2.16.2/library\blowfish.c ****                        unsigned char *output )
 400:C:/Users/dtjld/workspace/AIoT/src/LiteOS_Lab/iot_link/network/dtls/mbedtls/mbedtls-2.16.2/library\blowfish.c **** {
 2278              		.loc 1 400 0
 2279              		.cfi_startproc
 2280              		@ args = 12, pretend = 0, frame = 32
 2281              		@ frame_needed = 1, uses_anonymous_args = 0
 2282 0000 80B5     		push	{r7, lr}
 2283              	.LCFI46:
 2284              		.cfi_def_cfa_offset 8
 2285              		.cfi_offset 7, -8
 2286              		.cfi_offset 14, -4
 2287 0002 88B0     		sub	sp, sp, #32
 2288              	.LCFI47:
 2289              		.cfi_def_cfa_offset 40
 2290 0004 00AF     		add	r7, sp, #0
 2291              	.LCFI48:
 2292              		.cfi_def_cfa_register 7
 2293 0006 F860     		str	r0, [r7, #12]
 2294 0008 B960     		str	r1, [r7, #8]
 2295 000a 7A60     		str	r2, [r7, #4]
 2296 000c 3B60     		str	r3, [r7]
 401:C:/Users/dtjld/workspace/AIoT/src/LiteOS_Lab/iot_link/network/dtls/mbedtls/mbedtls-2.16.2/library\blowfish.c ****     int c, i;
 402:C:/Users/dtjld/workspace/AIoT/src/LiteOS_Lab/iot_link/network/dtls/mbedtls/mbedtls-2.16.2/library\blowfish.c ****     size_t n;
 403:C:/Users/dtjld/workspace/AIoT/src/LiteOS_Lab/iot_link/network/dtls/mbedtls/mbedtls-2.16.2/library\blowfish.c ****     BLOWFISH_VALIDATE_RET( ctx != NULL );
 404:C:/Users/dtjld/workspace/AIoT/src/LiteOS_Lab/iot_link/network/dtls/mbedtls/mbedtls-2.16.2/library\blowfish.c ****     BLOWFISH_VALIDATE_RET( nonce_counter != NULL );
 405:C:/Users/dtjld/workspace/AIoT/src/LiteOS_Lab/iot_link/network/dtls/mbedtls/mbedtls-2.16.2/library\blowfish.c ****     BLOWFISH_VALIDATE_RET( stream_block  != NULL );
 406:C:/Users/dtjld/workspace/AIoT/src/LiteOS_Lab/iot_link/network/dtls/mbedtls/mbedtls-2.16.2/library\blowfish.c ****     BLOWFISH_VALIDATE_RET( nc_off != NULL );
 407:C:/Users/dtjld/workspace/AIoT/src/LiteOS_Lab/iot_link/network/dtls/mbedtls/mbedtls-2.16.2/library\blowfish.c ****     BLOWFISH_VALIDATE_RET( length == 0 || input  != NULL );
 408:C:/Users/dtjld/workspace/AIoT/src/LiteOS_Lab/iot_link/network/dtls/mbedtls/mbedtls-2.16.2/library\blowfish.c ****     BLOWFISH_VALIDATE_RET( length == 0 || output != NULL );
 409:C:/Users/dtjld/workspace/AIoT/src/LiteOS_Lab/iot_link/network/dtls/mbedtls/mbedtls-2.16.2/library\blowfish.c **** 
 410:C:/Users/dtjld/workspace/AIoT/src/LiteOS_Lab/iot_link/network/dtls/mbedtls/mbedtls-2.16.2/library\blowfish.c ****     n = *nc_off;
 2297              		.loc 1 410 0
 2298 000e 7B68     		ldr	r3, [r7, #4]
 2299 0010 1B68     		ldr	r3, [r3]
 2300 0012 BB61     		str	r3, [r7, #24]
 411:C:/Users/dtjld/workspace/AIoT/src/LiteOS_Lab/iot_link/network/dtls/mbedtls/mbedtls-2.16.2/library\blowfish.c ****     if( n >= 8 )
 2301              		.loc 1 411 0
 2302 0014 BB69     		ldr	r3, [r7, #24]
 2303 0016 072B     		cmp	r3, #7
 2304 0018 39D9     		bls	.L68
 412:C:/Users/dtjld/workspace/AIoT/src/LiteOS_Lab/iot_link/network/dtls/mbedtls/mbedtls-2.16.2/library\blowfish.c ****         return( MBEDTLS_ERR_BLOWFISH_BAD_INPUT_DATA );
 2305              		.loc 1 412 0
 2306 001a 6FF01503 		mvn	r3, #21
 2307 001e 3FE0     		b	.L67
 2308              	.L73:
 413:C:/Users/dtjld/workspace/AIoT/src/LiteOS_Lab/iot_link/network/dtls/mbedtls/mbedtls-2.16.2/library\blowfish.c **** 
 414:C:/Users/dtjld/workspace/AIoT/src/LiteOS_Lab/iot_link/network/dtls/mbedtls/mbedtls-2.16.2/library\blowfish.c ****     while( length-- )
 415:C:/Users/dtjld/workspace/AIoT/src/LiteOS_Lab/iot_link/network/dtls/mbedtls/mbedtls-2.16.2/library\blowfish.c ****     {
 416:C:/Users/dtjld/workspace/AIoT/src/LiteOS_Lab/iot_link/network/dtls/mbedtls/mbedtls-2.16.2/library\blowfish.c ****         if( n == 0 ) {
 2309              		.loc 1 416 0
 2310 0020 BB69     		ldr	r3, [r7, #24]
 2311 0022 002B     		cmp	r3, #0
 2312 0024 1BD1     		bne	.L69
 417:C:/Users/dtjld/workspace/AIoT/src/LiteOS_Lab/iot_link/network/dtls/mbedtls/mbedtls-2.16.2/library\blowfish.c ****             mbedtls_blowfish_crypt_ecb( ctx, MBEDTLS_BLOWFISH_ENCRYPT, nonce_counter,
 2313              		.loc 1 417 0
 2314 0026 BB6A     		ldr	r3, [r7, #40]
ARM GAS  C:\Users\dtjld\AppData\Local\Temp\ccQiNuxC.s 			page 49


 2315 0028 3A68     		ldr	r2, [r7]
 2316 002a 0121     		movs	r1, #1
 2317 002c F868     		ldr	r0, [r7, #12]
 2318 002e FFF7FEFF 		bl	mbedtls_blowfish_crypt_ecb
 418:C:/Users/dtjld/workspace/AIoT/src/LiteOS_Lab/iot_link/network/dtls/mbedtls/mbedtls-2.16.2/library\blowfish.c ****                                 stream_block );
 419:C:/Users/dtjld/workspace/AIoT/src/LiteOS_Lab/iot_link/network/dtls/mbedtls/mbedtls-2.16.2/library\blowfish.c **** 
 420:C:/Users/dtjld/workspace/AIoT/src/LiteOS_Lab/iot_link/network/dtls/mbedtls/mbedtls-2.16.2/library\blowfish.c ****             for( i = MBEDTLS_BLOWFISH_BLOCKSIZE; i > 0; i-- )
 2319              		.loc 1 420 0
 2320 0032 0823     		movs	r3, #8
 2321 0034 FB61     		str	r3, [r7, #28]
 2322 0036 0DE0     		b	.L70
 2323              	.L72:
 421:C:/Users/dtjld/workspace/AIoT/src/LiteOS_Lab/iot_link/network/dtls/mbedtls/mbedtls-2.16.2/library\blowfish.c ****                 if( ++nonce_counter[i - 1] != 0 )
 2324              		.loc 1 421 0
 2325 0038 FB69     		ldr	r3, [r7, #28]
 2326 003a 013B     		subs	r3, r3, #1
 2327 003c 3A68     		ldr	r2, [r7]
 2328 003e 1344     		add	r3, r3, r2
 2329 0040 1A78     		ldrb	r2, [r3]	@ zero_extendqisi2
 2330 0042 0132     		adds	r2, r2, #1
 2331 0044 D2B2     		uxtb	r2, r2
 2332 0046 1A70     		strb	r2, [r3]
 2333 0048 1B78     		ldrb	r3, [r3]	@ zero_extendqisi2
 2334 004a 002B     		cmp	r3, #0
 2335 004c 06D1     		bne	.L74
 420:C:/Users/dtjld/workspace/AIoT/src/LiteOS_Lab/iot_link/network/dtls/mbedtls/mbedtls-2.16.2/library\blowfish.c ****                 if( ++nonce_counter[i - 1] != 0 )
 2336              		.loc 1 420 0 discriminator 2
 2337 004e FB69     		ldr	r3, [r7, #28]
 2338 0050 013B     		subs	r3, r3, #1
 2339 0052 FB61     		str	r3, [r7, #28]
 2340              	.L70:
 420:C:/Users/dtjld/workspace/AIoT/src/LiteOS_Lab/iot_link/network/dtls/mbedtls/mbedtls-2.16.2/library\blowfish.c ****                 if( ++nonce_counter[i - 1] != 0 )
 2341              		.loc 1 420 0 is_stmt 0 discriminator 1
 2342 0054 FB69     		ldr	r3, [r7, #28]
 2343 0056 002B     		cmp	r3, #0
 2344 0058 EEDC     		bgt	.L72
 2345 005a 00E0     		b	.L69
 2346              	.L74:
 422:C:/Users/dtjld/workspace/AIoT/src/LiteOS_Lab/iot_link/network/dtls/mbedtls/mbedtls-2.16.2/library\blowfish.c ****                     break;
 2347              		.loc 1 422 0 is_stmt 1
 2348 005c 00BF     		nop
 2349              	.L69:
 423:C:/Users/dtjld/workspace/AIoT/src/LiteOS_Lab/iot_link/network/dtls/mbedtls/mbedtls-2.16.2/library\blowfish.c ****         }
 424:C:/Users/dtjld/workspace/AIoT/src/LiteOS_Lab/iot_link/network/dtls/mbedtls/mbedtls-2.16.2/library\blowfish.c ****         c = *input++;
 2350              		.loc 1 424 0
 2351 005e FB6A     		ldr	r3, [r7, #44]
 2352 0060 5A1C     		adds	r2, r3, #1
 2353 0062 FA62     		str	r2, [r7, #44]
 2354 0064 1B78     		ldrb	r3, [r3]	@ zero_extendqisi2
 2355 0066 7B61     		str	r3, [r7, #20]
 425:C:/Users/dtjld/workspace/AIoT/src/LiteOS_Lab/iot_link/network/dtls/mbedtls/mbedtls-2.16.2/library\blowfish.c ****         *output++ = (unsigned char)( c ^ stream_block[n] );
 2356              		.loc 1 425 0
 2357 0068 7B69     		ldr	r3, [r7, #20]
 2358 006a 5AB2     		sxtb	r2, r3
 2359 006c B96A     		ldr	r1, [r7, #40]
 2360 006e BB69     		ldr	r3, [r7, #24]
 2361 0070 0B44     		add	r3, r3, r1
ARM GAS  C:\Users\dtjld\AppData\Local\Temp\ccQiNuxC.s 			page 50


 2362 0072 1B78     		ldrb	r3, [r3]	@ zero_extendqisi2
 2363 0074 5BB2     		sxtb	r3, r3
 2364 0076 5340     		eors	r3, r3, r2
 2365 0078 59B2     		sxtb	r1, r3
 2366 007a 3B6B     		ldr	r3, [r7, #48]
 2367 007c 5A1C     		adds	r2, r3, #1
 2368 007e 3A63     		str	r2, [r7, #48]
 2369 0080 CAB2     		uxtb	r2, r1
 2370 0082 1A70     		strb	r2, [r3]
 426:C:/Users/dtjld/workspace/AIoT/src/LiteOS_Lab/iot_link/network/dtls/mbedtls/mbedtls-2.16.2/library\blowfish.c **** 
 427:C:/Users/dtjld/workspace/AIoT/src/LiteOS_Lab/iot_link/network/dtls/mbedtls/mbedtls-2.16.2/library\blowfish.c ****         n = ( n + 1 ) % MBEDTLS_BLOWFISH_BLOCKSIZE;
 2371              		.loc 1 427 0
 2372 0084 BB69     		ldr	r3, [r7, #24]
 2373 0086 0133     		adds	r3, r3, #1
 2374 0088 03F00703 		and	r3, r3, #7
 2375 008c BB61     		str	r3, [r7, #24]
 2376              	.L68:
 414:C:/Users/dtjld/workspace/AIoT/src/LiteOS_Lab/iot_link/network/dtls/mbedtls/mbedtls-2.16.2/library\blowfish.c ****     {
 2377              		.loc 1 414 0
 2378 008e BB68     		ldr	r3, [r7, #8]
 2379 0090 5A1E     		subs	r2, r3, #1
 2380 0092 BA60     		str	r2, [r7, #8]
 2381 0094 002B     		cmp	r3, #0
 2382 0096 C3D1     		bne	.L73
 428:C:/Users/dtjld/workspace/AIoT/src/LiteOS_Lab/iot_link/network/dtls/mbedtls/mbedtls-2.16.2/library\blowfish.c ****     }
 429:C:/Users/dtjld/workspace/AIoT/src/LiteOS_Lab/iot_link/network/dtls/mbedtls/mbedtls-2.16.2/library\blowfish.c **** 
 430:C:/Users/dtjld/workspace/AIoT/src/LiteOS_Lab/iot_link/network/dtls/mbedtls/mbedtls-2.16.2/library\blowfish.c ****     *nc_off = n;
 2383              		.loc 1 430 0
 2384 0098 7B68     		ldr	r3, [r7, #4]
 2385 009a BA69     		ldr	r2, [r7, #24]
 2386 009c 1A60     		str	r2, [r3]
 431:C:/Users/dtjld/workspace/AIoT/src/LiteOS_Lab/iot_link/network/dtls/mbedtls/mbedtls-2.16.2/library\blowfish.c **** 
 432:C:/Users/dtjld/workspace/AIoT/src/LiteOS_Lab/iot_link/network/dtls/mbedtls/mbedtls-2.16.2/library\blowfish.c ****     return( 0 );
 2387              		.loc 1 432 0
 2388 009e 0023     		movs	r3, #0
 2389              	.L67:
 433:C:/Users/dtjld/workspace/AIoT/src/LiteOS_Lab/iot_link/network/dtls/mbedtls/mbedtls-2.16.2/library\blowfish.c **** }
 2390              		.loc 1 433 0
 2391 00a0 1846     		mov	r0, r3
 2392 00a2 2037     		adds	r7, r7, #32
 2393              	.LCFI49:
 2394              		.cfi_def_cfa_offset 8
 2395 00a4 BD46     		mov	sp, r7
 2396              	.LCFI50:
 2397              		.cfi_def_cfa_register 13
 2398              		@ sp needed
 2399 00a6 80BD     		pop	{r7, pc}
 2400              		.cfi_endproc
 2401              	.LFE9:
 2403              		.text
 2404              	.Letext0:
 2405              		.file 2 "c:\\ac6\\systemworkbench\\plugins\\fr.ac6.mcu.externaltools.arm-none.win32_1.16.0.2018071
 2406              		.file 3 "c:\\ac6\\systemworkbench\\plugins\\fr.ac6.mcu.externaltools.arm-none.win32_1.16.0.2018071
 2407              		.file 4 "c:\\ac6\\systemworkbench\\plugins\\fr.ac6.mcu.externaltools.arm-none.win32_1.16.0.2018071
 2408              		.file 5 "C:/Users/dtjld/workspace/AIoT/src/LiteOS_Lab/iot_link/network/dtls/mbedtls/mbedtls-2.16.2
 2409              		.file 6 "c:\\ac6\\systemworkbench\\plugins\\fr.ac6.mcu.externaltools.arm-none.win32_1.16.0.2018071
 2410              		.file 7 "c:\\ac6\\systemworkbench\\plugins\\fr.ac6.mcu.externaltools.arm-none.win32_1.16.0.2018071
ARM GAS  C:\Users\dtjld\AppData\Local\Temp\ccQiNuxC.s 			page 51


 2411              		.file 8 "c:\\ac6\\systemworkbench\\plugins\\fr.ac6.mcu.externaltools.arm-none.win32_1.16.0.2018071
ARM GAS  C:\Users\dtjld\AppData\Local\Temp\ccQiNuxC.s 			page 52

