ARM GAS  C:\Users\dtjld\AppData\Local\Temp\ccRGkA1L.s 			page 1


   1              		.cpu cortex-m4
   2              		.eabi_attribute 27, 1
   3              		.eabi_attribute 28, 1
   4              		.eabi_attribute 20, 1
   5              		.eabi_attribute 21, 1
   6              		.eabi_attribute 23, 3
   7              		.eabi_attribute 24, 1
   8              		.eabi_attribute 25, 1
   9              		.eabi_attribute 26, 1
  10              		.eabi_attribute 30, 6
  11              		.eabi_attribute 34, 1
  12              		.eabi_attribute 18, 4
  13              		.file	"camellia.c"
  14              		.text
  15              	.Ltext0:
  16              		.cfi_sections	.debug_frame
  17              		.section	.rodata.SIGMA_CHARS,"a",%progbits
  18              		.align	2
  21              	SIGMA_CHARS:
  22 0000 A0       		.byte	-96
  23 0001 9E       		.byte	-98
  24 0002 66       		.byte	102
  25 0003 7F       		.byte	127
  26 0004 3B       		.byte	59
  27 0005 CC       		.byte	-52
  28 0006 90       		.byte	-112
  29 0007 8B       		.byte	-117
  30 0008 B6       		.byte	-74
  31 0009 7A       		.byte	122
  32 000a E8       		.byte	-24
  33 000b 58       		.byte	88
  34 000c 4C       		.byte	76
  35 000d AA       		.byte	-86
  36 000e 73       		.byte	115
  37 000f B2       		.byte	-78
  38 0010 C6       		.byte	-58
  39 0011 EF       		.byte	-17
  40 0012 37       		.byte	55
  41 0013 2F       		.byte	47
  42 0014 E9       		.byte	-23
  43 0015 4F       		.byte	79
  44 0016 82       		.byte	-126
  45 0017 BE       		.byte	-66
  46 0018 54       		.byte	84
  47 0019 FF       		.byte	-1
  48 001a 53       		.byte	83
  49 001b A5       		.byte	-91
  50 001c F1       		.byte	-15
  51 001d D3       		.byte	-45
  52 001e 6F       		.byte	111
  53 001f 1C       		.byte	28
  54 0020 10       		.byte	16
  55 0021 E5       		.byte	-27
  56 0022 27       		.byte	39
  57 0023 FA       		.byte	-6
  58 0024 DE       		.byte	-34
  59 0025 68       		.byte	104
ARM GAS  C:\Users\dtjld\AppData\Local\Temp\ccRGkA1L.s 			page 2


  60 0026 2D       		.byte	45
  61 0027 1D       		.byte	29
  62 0028 B0       		.byte	-80
  63 0029 56       		.byte	86
  64 002a 88       		.byte	-120
  65 002b C2       		.byte	-62
  66 002c B3       		.byte	-77
  67 002d E6       		.byte	-26
  68 002e C1       		.byte	-63
  69 002f FD       		.byte	-3
  70              		.section	.rodata.FSb,"a",%progbits
  71              		.align	2
  74              	FSb:
  75 0000 70       		.byte	112
  76 0001 82       		.byte	-126
  77 0002 2C       		.byte	44
  78 0003 EC       		.byte	-20
  79 0004 B3       		.byte	-77
  80 0005 27       		.byte	39
  81 0006 C0       		.byte	-64
  82 0007 E5       		.byte	-27
  83 0008 E4       		.byte	-28
  84 0009 85       		.byte	-123
  85 000a 57       		.byte	87
  86 000b 35       		.byte	53
  87 000c EA       		.byte	-22
  88 000d 0C       		.byte	12
  89 000e AE       		.byte	-82
  90 000f 41       		.byte	65
  91 0010 23       		.byte	35
  92 0011 EF       		.byte	-17
  93 0012 6B       		.byte	107
  94 0013 93       		.byte	-109
  95 0014 45       		.byte	69
  96 0015 19       		.byte	25
  97 0016 A5       		.byte	-91
  98 0017 21       		.byte	33
  99 0018 ED       		.byte	-19
 100 0019 0E       		.byte	14
 101 001a 4F       		.byte	79
 102 001b 4E       		.byte	78
 103 001c 1D       		.byte	29
 104 001d 65       		.byte	101
 105 001e 92       		.byte	-110
 106 001f BD       		.byte	-67
 107 0020 86       		.byte	-122
 108 0021 B8       		.byte	-72
 109 0022 AF       		.byte	-81
 110 0023 8F       		.byte	-113
 111 0024 7C       		.byte	124
 112 0025 EB       		.byte	-21
 113 0026 1F       		.byte	31
 114 0027 CE       		.byte	-50
 115 0028 3E       		.byte	62
 116 0029 30       		.byte	48
 117 002a DC       		.byte	-36
 118 002b 5F       		.byte	95
ARM GAS  C:\Users\dtjld\AppData\Local\Temp\ccRGkA1L.s 			page 3


 119 002c 5E       		.byte	94
 120 002d C5       		.byte	-59
 121 002e 0B       		.byte	11
 122 002f 1A       		.byte	26
 123 0030 A6       		.byte	-90
 124 0031 E1       		.byte	-31
 125 0032 39       		.byte	57
 126 0033 CA       		.byte	-54
 127 0034 D5       		.byte	-43
 128 0035 47       		.byte	71
 129 0036 5D       		.byte	93
 130 0037 3D       		.byte	61
 131 0038 D9       		.byte	-39
 132 0039 01       		.byte	1
 133 003a 5A       		.byte	90
 134 003b D6       		.byte	-42
 135 003c 51       		.byte	81
 136 003d 56       		.byte	86
 137 003e 6C       		.byte	108
 138 003f 4D       		.byte	77
 139 0040 8B       		.byte	-117
 140 0041 0D       		.byte	13
 141 0042 9A       		.byte	-102
 142 0043 66       		.byte	102
 143 0044 FB       		.byte	-5
 144 0045 CC       		.byte	-52
 145 0046 B0       		.byte	-80
 146 0047 2D       		.byte	45
 147 0048 74       		.byte	116
 148 0049 12       		.byte	18
 149 004a 2B       		.byte	43
 150 004b 20       		.byte	32
 151 004c F0       		.byte	-16
 152 004d B1       		.byte	-79
 153 004e 84       		.byte	-124
 154 004f 99       		.byte	-103
 155 0050 DF       		.byte	-33
 156 0051 4C       		.byte	76
 157 0052 CB       		.byte	-53
 158 0053 C2       		.byte	-62
 159 0054 34       		.byte	52
 160 0055 7E       		.byte	126
 161 0056 76       		.byte	118
 162 0057 05       		.byte	5
 163 0058 6D       		.byte	109
 164 0059 B7       		.byte	-73
 165 005a A9       		.byte	-87
 166 005b 31       		.byte	49
 167 005c D1       		.byte	-47
 168 005d 17       		.byte	23
 169 005e 04       		.byte	4
 170 005f D7       		.byte	-41
 171 0060 14       		.byte	20
 172 0061 58       		.byte	88
 173 0062 3A       		.byte	58
 174 0063 61       		.byte	97
 175 0064 DE       		.byte	-34
ARM GAS  C:\Users\dtjld\AppData\Local\Temp\ccRGkA1L.s 			page 4


 176 0065 1B       		.byte	27
 177 0066 11       		.byte	17
 178 0067 1C       		.byte	28
 179 0068 32       		.byte	50
 180 0069 0F       		.byte	15
 181 006a 9C       		.byte	-100
 182 006b 16       		.byte	22
 183 006c 53       		.byte	83
 184 006d 18       		.byte	24
 185 006e F2       		.byte	-14
 186 006f 22       		.byte	34
 187 0070 FE       		.byte	-2
 188 0071 44       		.byte	68
 189 0072 CF       		.byte	-49
 190 0073 B2       		.byte	-78
 191 0074 C3       		.byte	-61
 192 0075 B5       		.byte	-75
 193 0076 7A       		.byte	122
 194 0077 91       		.byte	-111
 195 0078 24       		.byte	36
 196 0079 08       		.byte	8
 197 007a E8       		.byte	-24
 198 007b A8       		.byte	-88
 199 007c 60       		.byte	96
 200 007d FC       		.byte	-4
 201 007e 69       		.byte	105
 202 007f 50       		.byte	80
 203 0080 AA       		.byte	-86
 204 0081 D0       		.byte	-48
 205 0082 A0       		.byte	-96
 206 0083 7D       		.byte	125
 207 0084 A1       		.byte	-95
 208 0085 89       		.byte	-119
 209 0086 62       		.byte	98
 210 0087 97       		.byte	-105
 211 0088 54       		.byte	84
 212 0089 5B       		.byte	91
 213 008a 1E       		.byte	30
 214 008b 95       		.byte	-107
 215 008c E0       		.byte	-32
 216 008d FF       		.byte	-1
 217 008e 64       		.byte	100
 218 008f D2       		.byte	-46
 219 0090 10       		.byte	16
 220 0091 C4       		.byte	-60
 221 0092 00       		.byte	0
 222 0093 48       		.byte	72
 223 0094 A3       		.byte	-93
 224 0095 F7       		.byte	-9
 225 0096 75       		.byte	117
 226 0097 DB       		.byte	-37
 227 0098 8A       		.byte	-118
 228 0099 03       		.byte	3
 229 009a E6       		.byte	-26
 230 009b DA       		.byte	-38
 231 009c 09       		.byte	9
 232 009d 3F       		.byte	63
ARM GAS  C:\Users\dtjld\AppData\Local\Temp\ccRGkA1L.s 			page 5


 233 009e DD       		.byte	-35
 234 009f 94       		.byte	-108
 235 00a0 87       		.byte	-121
 236 00a1 5C       		.byte	92
 237 00a2 83       		.byte	-125
 238 00a3 02       		.byte	2
 239 00a4 CD       		.byte	-51
 240 00a5 4A       		.byte	74
 241 00a6 90       		.byte	-112
 242 00a7 33       		.byte	51
 243 00a8 73       		.byte	115
 244 00a9 67       		.byte	103
 245 00aa F6       		.byte	-10
 246 00ab F3       		.byte	-13
 247 00ac 9D       		.byte	-99
 248 00ad 7F       		.byte	127
 249 00ae BF       		.byte	-65
 250 00af E2       		.byte	-30
 251 00b0 52       		.byte	82
 252 00b1 9B       		.byte	-101
 253 00b2 D8       		.byte	-40
 254 00b3 26       		.byte	38
 255 00b4 C8       		.byte	-56
 256 00b5 37       		.byte	55
 257 00b6 C6       		.byte	-58
 258 00b7 3B       		.byte	59
 259 00b8 81       		.byte	-127
 260 00b9 96       		.byte	-106
 261 00ba 6F       		.byte	111
 262 00bb 4B       		.byte	75
 263 00bc 13       		.byte	19
 264 00bd BE       		.byte	-66
 265 00be 63       		.byte	99
 266 00bf 2E       		.byte	46
 267 00c0 E9       		.byte	-23
 268 00c1 79       		.byte	121
 269 00c2 A7       		.byte	-89
 270 00c3 8C       		.byte	-116
 271 00c4 9F       		.byte	-97
 272 00c5 6E       		.byte	110
 273 00c6 BC       		.byte	-68
 274 00c7 8E       		.byte	-114
 275 00c8 29       		.byte	41
 276 00c9 F5       		.byte	-11
 277 00ca F9       		.byte	-7
 278 00cb B6       		.byte	-74
 279 00cc 2F       		.byte	47
 280 00cd FD       		.byte	-3
 281 00ce B4       		.byte	-76
 282 00cf 59       		.byte	89
 283 00d0 78       		.byte	120
 284 00d1 98       		.byte	-104
 285 00d2 06       		.byte	6
 286 00d3 6A       		.byte	106
 287 00d4 E7       		.byte	-25
 288 00d5 46       		.byte	70
 289 00d6 71       		.byte	113
ARM GAS  C:\Users\dtjld\AppData\Local\Temp\ccRGkA1L.s 			page 6


 290 00d7 BA       		.byte	-70
 291 00d8 D4       		.byte	-44
 292 00d9 25       		.byte	37
 293 00da AB       		.byte	-85
 294 00db 42       		.byte	66
 295 00dc 88       		.byte	-120
 296 00dd A2       		.byte	-94
 297 00de 8D       		.byte	-115
 298 00df FA       		.byte	-6
 299 00e0 72       		.byte	114
 300 00e1 07       		.byte	7
 301 00e2 B9       		.byte	-71
 302 00e3 55       		.byte	85
 303 00e4 F8       		.byte	-8
 304 00e5 EE       		.byte	-18
 305 00e6 AC       		.byte	-84
 306 00e7 0A       		.byte	10
 307 00e8 36       		.byte	54
 308 00e9 49       		.byte	73
 309 00ea 2A       		.byte	42
 310 00eb 68       		.byte	104
 311 00ec 3C       		.byte	60
 312 00ed 38       		.byte	56
 313 00ee F1       		.byte	-15
 314 00ef A4       		.byte	-92
 315 00f0 40       		.byte	64
 316 00f1 28       		.byte	40
 317 00f2 D3       		.byte	-45
 318 00f3 7B       		.byte	123
 319 00f4 BB       		.byte	-69
 320 00f5 C9       		.byte	-55
 321 00f6 43       		.byte	67
 322 00f7 C1       		.byte	-63
 323 00f8 15       		.byte	21
 324 00f9 E3       		.byte	-29
 325 00fa AD       		.byte	-83
 326 00fb F4       		.byte	-12
 327 00fc 77       		.byte	119
 328 00fd C7       		.byte	-57
 329 00fe 80       		.byte	-128
 330 00ff 9E       		.byte	-98
 331              		.section	.rodata.FSb2,"a",%progbits
 332              		.align	2
 335              	FSb2:
 336 0000 E0       		.byte	-32
 337 0001 05       		.byte	5
 338 0002 58       		.byte	88
 339 0003 D9       		.byte	-39
 340 0004 67       		.byte	103
 341 0005 4E       		.byte	78
 342 0006 81       		.byte	-127
 343 0007 CB       		.byte	-53
 344 0008 C9       		.byte	-55
 345 0009 0B       		.byte	11
 346 000a AE       		.byte	-82
 347 000b 6A       		.byte	106
 348 000c D5       		.byte	-43
ARM GAS  C:\Users\dtjld\AppData\Local\Temp\ccRGkA1L.s 			page 7


 349 000d 18       		.byte	24
 350 000e 5D       		.byte	93
 351 000f 82       		.byte	-126
 352 0010 46       		.byte	70
 353 0011 DF       		.byte	-33
 354 0012 D6       		.byte	-42
 355 0013 27       		.byte	39
 356 0014 8A       		.byte	-118
 357 0015 32       		.byte	50
 358 0016 4B       		.byte	75
 359 0017 42       		.byte	66
 360 0018 DB       		.byte	-37
 361 0019 1C       		.byte	28
 362 001a 9E       		.byte	-98
 363 001b 9C       		.byte	-100
 364 001c 3A       		.byte	58
 365 001d CA       		.byte	-54
 366 001e 25       		.byte	37
 367 001f 7B       		.byte	123
 368 0020 0D       		.byte	13
 369 0021 71       		.byte	113
 370 0022 5F       		.byte	95
 371 0023 1F       		.byte	31
 372 0024 F8       		.byte	-8
 373 0025 D7       		.byte	-41
 374 0026 3E       		.byte	62
 375 0027 9D       		.byte	-99
 376 0028 7C       		.byte	124
 377 0029 60       		.byte	96
 378 002a B9       		.byte	-71
 379 002b BE       		.byte	-66
 380 002c BC       		.byte	-68
 381 002d 8B       		.byte	-117
 382 002e 16       		.byte	22
 383 002f 34       		.byte	52
 384 0030 4D       		.byte	77
 385 0031 C3       		.byte	-61
 386 0032 72       		.byte	114
 387 0033 95       		.byte	-107
 388 0034 AB       		.byte	-85
 389 0035 8E       		.byte	-114
 390 0036 BA       		.byte	-70
 391 0037 7A       		.byte	122
 392 0038 B3       		.byte	-77
 393 0039 02       		.byte	2
 394 003a B4       		.byte	-76
 395 003b AD       		.byte	-83
 396 003c A2       		.byte	-94
 397 003d AC       		.byte	-84
 398 003e D8       		.byte	-40
 399 003f 9A       		.byte	-102
 400 0040 17       		.byte	23
 401 0041 1A       		.byte	26
 402 0042 35       		.byte	53
 403 0043 CC       		.byte	-52
 404 0044 F7       		.byte	-9
 405 0045 99       		.byte	-103
ARM GAS  C:\Users\dtjld\AppData\Local\Temp\ccRGkA1L.s 			page 8


 406 0046 61       		.byte	97
 407 0047 5A       		.byte	90
 408 0048 E8       		.byte	-24
 409 0049 24       		.byte	36
 410 004a 56       		.byte	86
 411 004b 40       		.byte	64
 412 004c E1       		.byte	-31
 413 004d 63       		.byte	99
 414 004e 09       		.byte	9
 415 004f 33       		.byte	51
 416 0050 BF       		.byte	-65
 417 0051 98       		.byte	-104
 418 0052 97       		.byte	-105
 419 0053 85       		.byte	-123
 420 0054 68       		.byte	104
 421 0055 FC       		.byte	-4
 422 0056 EC       		.byte	-20
 423 0057 0A       		.byte	10
 424 0058 DA       		.byte	-38
 425 0059 6F       		.byte	111
 426 005a 53       		.byte	83
 427 005b 62       		.byte	98
 428 005c A3       		.byte	-93
 429 005d 2E       		.byte	46
 430 005e 08       		.byte	8
 431 005f AF       		.byte	-81
 432 0060 28       		.byte	40
 433 0061 B0       		.byte	-80
 434 0062 74       		.byte	116
 435 0063 C2       		.byte	-62
 436 0064 BD       		.byte	-67
 437 0065 36       		.byte	54
 438 0066 22       		.byte	34
 439 0067 38       		.byte	56
 440 0068 64       		.byte	100
 441 0069 1E       		.byte	30
 442 006a 39       		.byte	57
 443 006b 2C       		.byte	44
 444 006c A6       		.byte	-90
 445 006d 30       		.byte	48
 446 006e E5       		.byte	-27
 447 006f 44       		.byte	68
 448 0070 FD       		.byte	-3
 449 0071 88       		.byte	-120
 450 0072 9F       		.byte	-97
 451 0073 65       		.byte	101
 452 0074 87       		.byte	-121
 453 0075 6B       		.byte	107
 454 0076 F4       		.byte	-12
 455 0077 23       		.byte	35
 456 0078 48       		.byte	72
 457 0079 10       		.byte	16
 458 007a D1       		.byte	-47
 459 007b 51       		.byte	81
 460 007c C0       		.byte	-64
 461 007d F9       		.byte	-7
 462 007e D2       		.byte	-46
ARM GAS  C:\Users\dtjld\AppData\Local\Temp\ccRGkA1L.s 			page 9


 463 007f A0       		.byte	-96
 464 0080 55       		.byte	85
 465 0081 A1       		.byte	-95
 466 0082 41       		.byte	65
 467 0083 FA       		.byte	-6
 468 0084 43       		.byte	67
 469 0085 13       		.byte	19
 470 0086 C4       		.byte	-60
 471 0087 2F       		.byte	47
 472 0088 A8       		.byte	-88
 473 0089 B6       		.byte	-74
 474 008a 3C       		.byte	60
 475 008b 2B       		.byte	43
 476 008c C1       		.byte	-63
 477 008d FF       		.byte	-1
 478 008e C8       		.byte	-56
 479 008f A5       		.byte	-91
 480 0090 20       		.byte	32
 481 0091 89       		.byte	-119
 482 0092 00       		.byte	0
 483 0093 90       		.byte	-112
 484 0094 47       		.byte	71
 485 0095 EF       		.byte	-17
 486 0096 EA       		.byte	-22
 487 0097 B7       		.byte	-73
 488 0098 15       		.byte	21
 489 0099 06       		.byte	6
 490 009a CD       		.byte	-51
 491 009b B5       		.byte	-75
 492 009c 12       		.byte	18
 493 009d 7E       		.byte	126
 494 009e BB       		.byte	-69
 495 009f 29       		.byte	41
 496 00a0 0F       		.byte	15
 497 00a1 B8       		.byte	-72
 498 00a2 07       		.byte	7
 499 00a3 04       		.byte	4
 500 00a4 9B       		.byte	-101
 501 00a5 94       		.byte	-108
 502 00a6 21       		.byte	33
 503 00a7 66       		.byte	102
 504 00a8 E6       		.byte	-26
 505 00a9 CE       		.byte	-50
 506 00aa ED       		.byte	-19
 507 00ab E7       		.byte	-25
 508 00ac 3B       		.byte	59
 509 00ad FE       		.byte	-2
 510 00ae 7F       		.byte	127
 511 00af C5       		.byte	-59
 512 00b0 A4       		.byte	-92
 513 00b1 37       		.byte	55
 514 00b2 B1       		.byte	-79
 515 00b3 4C       		.byte	76
 516 00b4 91       		.byte	-111
 517 00b5 6E       		.byte	110
 518 00b6 8D       		.byte	-115
 519 00b7 76       		.byte	118
ARM GAS  C:\Users\dtjld\AppData\Local\Temp\ccRGkA1L.s 			page 10


 520 00b8 03       		.byte	3
 521 00b9 2D       		.byte	45
 522 00ba DE       		.byte	-34
 523 00bb 96       		.byte	-106
 524 00bc 26       		.byte	38
 525 00bd 7D       		.byte	125
 526 00be C6       		.byte	-58
 527 00bf 5C       		.byte	92
 528 00c0 D3       		.byte	-45
 529 00c1 F2       		.byte	-14
 530 00c2 4F       		.byte	79
 531 00c3 19       		.byte	25
 532 00c4 3F       		.byte	63
 533 00c5 DC       		.byte	-36
 534 00c6 79       		.byte	121
 535 00c7 1D       		.byte	29
 536 00c8 52       		.byte	82
 537 00c9 EB       		.byte	-21
 538 00ca F3       		.byte	-13
 539 00cb 6D       		.byte	109
 540 00cc 5E       		.byte	94
 541 00cd FB       		.byte	-5
 542 00ce 69       		.byte	105
 543 00cf B2       		.byte	-78
 544 00d0 F0       		.byte	-16
 545 00d1 31       		.byte	49
 546 00d2 0C       		.byte	12
 547 00d3 D4       		.byte	-44
 548 00d4 CF       		.byte	-49
 549 00d5 8C       		.byte	-116
 550 00d6 E2       		.byte	-30
 551 00d7 75       		.byte	117
 552 00d8 A9       		.byte	-87
 553 00d9 4A       		.byte	74
 554 00da 57       		.byte	87
 555 00db 84       		.byte	-124
 556 00dc 11       		.byte	17
 557 00dd 45       		.byte	69
 558 00de 1B       		.byte	27
 559 00df F5       		.byte	-11
 560 00e0 E4       		.byte	-28
 561 00e1 0E       		.byte	14
 562 00e2 73       		.byte	115
 563 00e3 AA       		.byte	-86
 564 00e4 F1       		.byte	-15
 565 00e5 DD       		.byte	-35
 566 00e6 59       		.byte	89
 567 00e7 14       		.byte	20
 568 00e8 6C       		.byte	108
 569 00e9 92       		.byte	-110
 570 00ea 54       		.byte	84
 571 00eb D0       		.byte	-48
 572 00ec 78       		.byte	120
 573 00ed 70       		.byte	112
 574 00ee E3       		.byte	-29
 575 00ef 49       		.byte	73
 576 00f0 80       		.byte	-128
ARM GAS  C:\Users\dtjld\AppData\Local\Temp\ccRGkA1L.s 			page 11


 577 00f1 50       		.byte	80
 578 00f2 A7       		.byte	-89
 579 00f3 F6       		.byte	-10
 580 00f4 77       		.byte	119
 581 00f5 93       		.byte	-109
 582 00f6 86       		.byte	-122
 583 00f7 83       		.byte	-125
 584 00f8 2A       		.byte	42
 585 00f9 C7       		.byte	-57
 586 00fa 5B       		.byte	91
 587 00fb E9       		.byte	-23
 588 00fc EE       		.byte	-18
 589 00fd 8F       		.byte	-113
 590 00fe 01       		.byte	1
 591 00ff 3D       		.byte	61
 592              		.section	.rodata.FSb3,"a",%progbits
 593              		.align	2
 596              	FSb3:
 597 0000 38       		.byte	56
 598 0001 41       		.byte	65
 599 0002 16       		.byte	22
 600 0003 76       		.byte	118
 601 0004 D9       		.byte	-39
 602 0005 93       		.byte	-109
 603 0006 60       		.byte	96
 604 0007 F2       		.byte	-14
 605 0008 72       		.byte	114
 606 0009 C2       		.byte	-62
 607 000a AB       		.byte	-85
 608 000b 9A       		.byte	-102
 609 000c 75       		.byte	117
 610 000d 06       		.byte	6
 611 000e 57       		.byte	87
 612 000f A0       		.byte	-96
 613 0010 91       		.byte	-111
 614 0011 F7       		.byte	-9
 615 0012 B5       		.byte	-75
 616 0013 C9       		.byte	-55
 617 0014 A2       		.byte	-94
 618 0015 8C       		.byte	-116
 619 0016 D2       		.byte	-46
 620 0017 90       		.byte	-112
 621 0018 F6       		.byte	-10
 622 0019 07       		.byte	7
 623 001a A7       		.byte	-89
 624 001b 27       		.byte	39
 625 001c 8E       		.byte	-114
 626 001d B2       		.byte	-78
 627 001e 49       		.byte	73
 628 001f DE       		.byte	-34
 629 0020 43       		.byte	67
 630 0021 5C       		.byte	92
 631 0022 D7       		.byte	-41
 632 0023 C7       		.byte	-57
 633 0024 3E       		.byte	62
 634 0025 F5       		.byte	-11
 635 0026 8F       		.byte	-113
ARM GAS  C:\Users\dtjld\AppData\Local\Temp\ccRGkA1L.s 			page 12


 636 0027 67       		.byte	103
 637 0028 1F       		.byte	31
 638 0029 18       		.byte	24
 639 002a 6E       		.byte	110
 640 002b AF       		.byte	-81
 641 002c 2F       		.byte	47
 642 002d E2       		.byte	-30
 643 002e 85       		.byte	-123
 644 002f 0D       		.byte	13
 645 0030 53       		.byte	83
 646 0031 F0       		.byte	-16
 647 0032 9C       		.byte	-100
 648 0033 65       		.byte	101
 649 0034 EA       		.byte	-22
 650 0035 A3       		.byte	-93
 651 0036 AE       		.byte	-82
 652 0037 9E       		.byte	-98
 653 0038 EC       		.byte	-20
 654 0039 80       		.byte	-128
 655 003a 2D       		.byte	45
 656 003b 6B       		.byte	107
 657 003c A8       		.byte	-88
 658 003d 2B       		.byte	43
 659 003e 36       		.byte	54
 660 003f A6       		.byte	-90
 661 0040 C5       		.byte	-59
 662 0041 86       		.byte	-122
 663 0042 4D       		.byte	77
 664 0043 33       		.byte	51
 665 0044 FD       		.byte	-3
 666 0045 66       		.byte	102
 667 0046 58       		.byte	88
 668 0047 96       		.byte	-106
 669 0048 3A       		.byte	58
 670 0049 09       		.byte	9
 671 004a 95       		.byte	-107
 672 004b 10       		.byte	16
 673 004c 78       		.byte	120
 674 004d D8       		.byte	-40
 675 004e 42       		.byte	66
 676 004f CC       		.byte	-52
 677 0050 EF       		.byte	-17
 678 0051 26       		.byte	38
 679 0052 E5       		.byte	-27
 680 0053 61       		.byte	97
 681 0054 1A       		.byte	26
 682 0055 3F       		.byte	63
 683 0056 3B       		.byte	59
 684 0057 82       		.byte	-126
 685 0058 B6       		.byte	-74
 686 0059 DB       		.byte	-37
 687 005a D4       		.byte	-44
 688 005b 98       		.byte	-104
 689 005c E8       		.byte	-24
 690 005d 8B       		.byte	-117
 691 005e 02       		.byte	2
 692 005f EB       		.byte	-21
ARM GAS  C:\Users\dtjld\AppData\Local\Temp\ccRGkA1L.s 			page 13


 693 0060 0A       		.byte	10
 694 0061 2C       		.byte	44
 695 0062 1D       		.byte	29
 696 0063 B0       		.byte	-80
 697 0064 6F       		.byte	111
 698 0065 8D       		.byte	-115
 699 0066 88       		.byte	-120
 700 0067 0E       		.byte	14
 701 0068 19       		.byte	25
 702 0069 87       		.byte	-121
 703 006a 4E       		.byte	78
 704 006b 0B       		.byte	11
 705 006c A9       		.byte	-87
 706 006d 0C       		.byte	12
 707 006e 79       		.byte	121
 708 006f 11       		.byte	17
 709 0070 7F       		.byte	127
 710 0071 22       		.byte	34
 711 0072 E7       		.byte	-25
 712 0073 59       		.byte	89
 713 0074 E1       		.byte	-31
 714 0075 DA       		.byte	-38
 715 0076 3D       		.byte	61
 716 0077 C8       		.byte	-56
 717 0078 12       		.byte	18
 718 0079 04       		.byte	4
 719 007a 74       		.byte	116
 720 007b 54       		.byte	84
 721 007c 30       		.byte	48
 722 007d 7E       		.byte	126
 723 007e B4       		.byte	-76
 724 007f 28       		.byte	40
 725 0080 55       		.byte	85
 726 0081 68       		.byte	104
 727 0082 50       		.byte	80
 728 0083 BE       		.byte	-66
 729 0084 D0       		.byte	-48
 730 0085 C4       		.byte	-60
 731 0086 31       		.byte	49
 732 0087 CB       		.byte	-53
 733 0088 2A       		.byte	42
 734 0089 AD       		.byte	-83
 735 008a 0F       		.byte	15
 736 008b CA       		.byte	-54
 737 008c 70       		.byte	112
 738 008d FF       		.byte	-1
 739 008e 32       		.byte	50
 740 008f 69       		.byte	105
 741 0090 08       		.byte	8
 742 0091 62       		.byte	98
 743 0092 00       		.byte	0
 744 0093 24       		.byte	36
 745 0094 D1       		.byte	-47
 746 0095 FB       		.byte	-5
 747 0096 BA       		.byte	-70
 748 0097 ED       		.byte	-19
 749 0098 45       		.byte	69
ARM GAS  C:\Users\dtjld\AppData\Local\Temp\ccRGkA1L.s 			page 14


 750 0099 81       		.byte	-127
 751 009a 73       		.byte	115
 752 009b 6D       		.byte	109
 753 009c 84       		.byte	-124
 754 009d 9F       		.byte	-97
 755 009e EE       		.byte	-18
 756 009f 4A       		.byte	74
 757 00a0 C3       		.byte	-61
 758 00a1 2E       		.byte	46
 759 00a2 C1       		.byte	-63
 760 00a3 01       		.byte	1
 761 00a4 E6       		.byte	-26
 762 00a5 25       		.byte	37
 763 00a6 48       		.byte	72
 764 00a7 99       		.byte	-103
 765 00a8 B9       		.byte	-71
 766 00a9 B3       		.byte	-77
 767 00aa 7B       		.byte	123
 768 00ab F9       		.byte	-7
 769 00ac CE       		.byte	-50
 770 00ad BF       		.byte	-65
 771 00ae DF       		.byte	-33
 772 00af 71       		.byte	113
 773 00b0 29       		.byte	41
 774 00b1 CD       		.byte	-51
 775 00b2 6C       		.byte	108
 776 00b3 13       		.byte	19
 777 00b4 64       		.byte	100
 778 00b5 9B       		.byte	-101
 779 00b6 63       		.byte	99
 780 00b7 9D       		.byte	-99
 781 00b8 C0       		.byte	-64
 782 00b9 4B       		.byte	75
 783 00ba B7       		.byte	-73
 784 00bb A5       		.byte	-91
 785 00bc 89       		.byte	-119
 786 00bd 5F       		.byte	95
 787 00be B1       		.byte	-79
 788 00bf 17       		.byte	23
 789 00c0 F4       		.byte	-12
 790 00c1 BC       		.byte	-68
 791 00c2 D3       		.byte	-45
 792 00c3 46       		.byte	70
 793 00c4 CF       		.byte	-49
 794 00c5 37       		.byte	55
 795 00c6 5E       		.byte	94
 796 00c7 47       		.byte	71
 797 00c8 94       		.byte	-108
 798 00c9 FA       		.byte	-6
 799 00ca FC       		.byte	-4
 800 00cb 5B       		.byte	91
 801 00cc 97       		.byte	-105
 802 00cd FE       		.byte	-2
 803 00ce 5A       		.byte	90
 804 00cf AC       		.byte	-84
 805 00d0 3C       		.byte	60
 806 00d1 4C       		.byte	76
ARM GAS  C:\Users\dtjld\AppData\Local\Temp\ccRGkA1L.s 			page 15


 807 00d2 03       		.byte	3
 808 00d3 35       		.byte	53
 809 00d4 F3       		.byte	-13
 810 00d5 23       		.byte	35
 811 00d6 B8       		.byte	-72
 812 00d7 5D       		.byte	93
 813 00d8 6A       		.byte	106
 814 00d9 92       		.byte	-110
 815 00da D5       		.byte	-43
 816 00db 21       		.byte	33
 817 00dc 44       		.byte	68
 818 00dd 51       		.byte	81
 819 00de C6       		.byte	-58
 820 00df 7D       		.byte	125
 821 00e0 39       		.byte	57
 822 00e1 83       		.byte	-125
 823 00e2 DC       		.byte	-36
 824 00e3 AA       		.byte	-86
 825 00e4 7C       		.byte	124
 826 00e5 77       		.byte	119
 827 00e6 56       		.byte	86
 828 00e7 05       		.byte	5
 829 00e8 1B       		.byte	27
 830 00e9 A4       		.byte	-92
 831 00ea 15       		.byte	21
 832 00eb 34       		.byte	52
 833 00ec 1E       		.byte	30
 834 00ed 1C       		.byte	28
 835 00ee F8       		.byte	-8
 836 00ef 52       		.byte	82
 837 00f0 20       		.byte	32
 838 00f1 14       		.byte	20
 839 00f2 E9       		.byte	-23
 840 00f3 BD       		.byte	-67
 841 00f4 DD       		.byte	-35
 842 00f5 E4       		.byte	-28
 843 00f6 A1       		.byte	-95
 844 00f7 E0       		.byte	-32
 845 00f8 8A       		.byte	-118
 846 00f9 F1       		.byte	-15
 847 00fa D6       		.byte	-42
 848 00fb 7A       		.byte	122
 849 00fc BB       		.byte	-69
 850 00fd E3       		.byte	-29
 851 00fe 40       		.byte	64
 852 00ff 4F       		.byte	79
 853              		.section	.rodata.FSb4,"a",%progbits
 854              		.align	2
 857              	FSb4:
 858 0000 70       		.byte	112
 859 0001 2C       		.byte	44
 860 0002 B3       		.byte	-77
 861 0003 C0       		.byte	-64
 862 0004 E4       		.byte	-28
 863 0005 57       		.byte	87
 864 0006 EA       		.byte	-22
 865 0007 AE       		.byte	-82
ARM GAS  C:\Users\dtjld\AppData\Local\Temp\ccRGkA1L.s 			page 16


 866 0008 23       		.byte	35
 867 0009 6B       		.byte	107
 868 000a 45       		.byte	69
 869 000b A5       		.byte	-91
 870 000c ED       		.byte	-19
 871 000d 4F       		.byte	79
 872 000e 1D       		.byte	29
 873 000f 92       		.byte	-110
 874 0010 86       		.byte	-122
 875 0011 AF       		.byte	-81
 876 0012 7C       		.byte	124
 877 0013 1F       		.byte	31
 878 0014 3E       		.byte	62
 879 0015 DC       		.byte	-36
 880 0016 5E       		.byte	94
 881 0017 0B       		.byte	11
 882 0018 A6       		.byte	-90
 883 0019 39       		.byte	57
 884 001a D5       		.byte	-43
 885 001b 5D       		.byte	93
 886 001c D9       		.byte	-39
 887 001d 5A       		.byte	90
 888 001e 51       		.byte	81
 889 001f 6C       		.byte	108
 890 0020 8B       		.byte	-117
 891 0021 9A       		.byte	-102
 892 0022 FB       		.byte	-5
 893 0023 B0       		.byte	-80
 894 0024 74       		.byte	116
 895 0025 2B       		.byte	43
 896 0026 F0       		.byte	-16
 897 0027 84       		.byte	-124
 898 0028 DF       		.byte	-33
 899 0029 CB       		.byte	-53
 900 002a 34       		.byte	52
 901 002b 76       		.byte	118
 902 002c 6D       		.byte	109
 903 002d A9       		.byte	-87
 904 002e D1       		.byte	-47
 905 002f 04       		.byte	4
 906 0030 14       		.byte	20
 907 0031 3A       		.byte	58
 908 0032 DE       		.byte	-34
 909 0033 11       		.byte	17
 910 0034 32       		.byte	50
 911 0035 9C       		.byte	-100
 912 0036 53       		.byte	83
 913 0037 F2       		.byte	-14
 914 0038 FE       		.byte	-2
 915 0039 CF       		.byte	-49
 916 003a C3       		.byte	-61
 917 003b 7A       		.byte	122
 918 003c 24       		.byte	36
 919 003d E8       		.byte	-24
 920 003e 60       		.byte	96
 921 003f 69       		.byte	105
 922 0040 AA       		.byte	-86
ARM GAS  C:\Users\dtjld\AppData\Local\Temp\ccRGkA1L.s 			page 17


 923 0041 A0       		.byte	-96
 924 0042 A1       		.byte	-95
 925 0043 62       		.byte	98
 926 0044 54       		.byte	84
 927 0045 1E       		.byte	30
 928 0046 E0       		.byte	-32
 929 0047 64       		.byte	100
 930 0048 10       		.byte	16
 931 0049 00       		.byte	0
 932 004a A3       		.byte	-93
 933 004b 75       		.byte	117
 934 004c 8A       		.byte	-118
 935 004d E6       		.byte	-26
 936 004e 09       		.byte	9
 937 004f DD       		.byte	-35
 938 0050 87       		.byte	-121
 939 0051 83       		.byte	-125
 940 0052 CD       		.byte	-51
 941 0053 90       		.byte	-112
 942 0054 73       		.byte	115
 943 0055 F6       		.byte	-10
 944 0056 9D       		.byte	-99
 945 0057 BF       		.byte	-65
 946 0058 52       		.byte	82
 947 0059 D8       		.byte	-40
 948 005a C8       		.byte	-56
 949 005b C6       		.byte	-58
 950 005c 81       		.byte	-127
 951 005d 6F       		.byte	111
 952 005e 13       		.byte	19
 953 005f 63       		.byte	99
 954 0060 E9       		.byte	-23
 955 0061 A7       		.byte	-89
 956 0062 9F       		.byte	-97
 957 0063 BC       		.byte	-68
 958 0064 29       		.byte	41
 959 0065 F9       		.byte	-7
 960 0066 2F       		.byte	47
 961 0067 B4       		.byte	-76
 962 0068 78       		.byte	120
 963 0069 06       		.byte	6
 964 006a E7       		.byte	-25
 965 006b 71       		.byte	113
 966 006c D4       		.byte	-44
 967 006d AB       		.byte	-85
 968 006e 88       		.byte	-120
 969 006f 8D       		.byte	-115
 970 0070 72       		.byte	114
 971 0071 B9       		.byte	-71
 972 0072 F8       		.byte	-8
 973 0073 AC       		.byte	-84
 974 0074 36       		.byte	54
 975 0075 2A       		.byte	42
 976 0076 3C       		.byte	60
 977 0077 F1       		.byte	-15
 978 0078 40       		.byte	64
 979 0079 D3       		.byte	-45
ARM GAS  C:\Users\dtjld\AppData\Local\Temp\ccRGkA1L.s 			page 18


 980 007a BB       		.byte	-69
 981 007b 43       		.byte	67
 982 007c 15       		.byte	21
 983 007d AD       		.byte	-83
 984 007e 77       		.byte	119
 985 007f 80       		.byte	-128
 986 0080 82       		.byte	-126
 987 0081 EC       		.byte	-20
 988 0082 27       		.byte	39
 989 0083 E5       		.byte	-27
 990 0084 85       		.byte	-123
 991 0085 35       		.byte	53
 992 0086 0C       		.byte	12
 993 0087 41       		.byte	65
 994 0088 EF       		.byte	-17
 995 0089 93       		.byte	-109
 996 008a 19       		.byte	25
 997 008b 21       		.byte	33
 998 008c 0E       		.byte	14
 999 008d 4E       		.byte	78
 1000 008e 65       		.byte	101
 1001 008f BD       		.byte	-67
 1002 0090 B8       		.byte	-72
 1003 0091 8F       		.byte	-113
 1004 0092 EB       		.byte	-21
 1005 0093 CE       		.byte	-50
 1006 0094 30       		.byte	48
 1007 0095 5F       		.byte	95
 1008 0096 C5       		.byte	-59
 1009 0097 1A       		.byte	26
 1010 0098 E1       		.byte	-31
 1011 0099 CA       		.byte	-54
 1012 009a 47       		.byte	71
 1013 009b 3D       		.byte	61
 1014 009c 01       		.byte	1
 1015 009d D6       		.byte	-42
 1016 009e 56       		.byte	86
 1017 009f 4D       		.byte	77
 1018 00a0 0D       		.byte	13
 1019 00a1 66       		.byte	102
 1020 00a2 CC       		.byte	-52
 1021 00a3 2D       		.byte	45
 1022 00a4 12       		.byte	18
 1023 00a5 20       		.byte	32
 1024 00a6 B1       		.byte	-79
 1025 00a7 99       		.byte	-103
 1026 00a8 4C       		.byte	76
 1027 00a9 C2       		.byte	-62
 1028 00aa 7E       		.byte	126
 1029 00ab 05       		.byte	5
 1030 00ac B7       		.byte	-73
 1031 00ad 31       		.byte	49
 1032 00ae 17       		.byte	23
 1033 00af D7       		.byte	-41
 1034 00b0 58       		.byte	88
 1035 00b1 61       		.byte	97
 1036 00b2 1B       		.byte	27
ARM GAS  C:\Users\dtjld\AppData\Local\Temp\ccRGkA1L.s 			page 19


 1037 00b3 1C       		.byte	28
 1038 00b4 0F       		.byte	15
 1039 00b5 16       		.byte	22
 1040 00b6 18       		.byte	24
 1041 00b7 22       		.byte	34
 1042 00b8 44       		.byte	68
 1043 00b9 B2       		.byte	-78
 1044 00ba B5       		.byte	-75
 1045 00bb 91       		.byte	-111
 1046 00bc 08       		.byte	8
 1047 00bd A8       		.byte	-88
 1048 00be FC       		.byte	-4
 1049 00bf 50       		.byte	80
 1050 00c0 D0       		.byte	-48
 1051 00c1 7D       		.byte	125
 1052 00c2 89       		.byte	-119
 1053 00c3 97       		.byte	-105
 1054 00c4 5B       		.byte	91
 1055 00c5 95       		.byte	-107
 1056 00c6 FF       		.byte	-1
 1057 00c7 D2       		.byte	-46
 1058 00c8 C4       		.byte	-60
 1059 00c9 48       		.byte	72
 1060 00ca F7       		.byte	-9
 1061 00cb DB       		.byte	-37
 1062 00cc 03       		.byte	3
 1063 00cd DA       		.byte	-38
 1064 00ce 3F       		.byte	63
 1065 00cf 94       		.byte	-108
 1066 00d0 5C       		.byte	92
 1067 00d1 02       		.byte	2
 1068 00d2 4A       		.byte	74
 1069 00d3 33       		.byte	51
 1070 00d4 67       		.byte	103
 1071 00d5 F3       		.byte	-13
 1072 00d6 7F       		.byte	127
 1073 00d7 E2       		.byte	-30
 1074 00d8 9B       		.byte	-101
 1075 00d9 26       		.byte	38
 1076 00da 37       		.byte	55
 1077 00db 3B       		.byte	59
 1078 00dc 96       		.byte	-106
 1079 00dd 4B       		.byte	75
 1080 00de BE       		.byte	-66
 1081 00df 2E       		.byte	46
 1082 00e0 79       		.byte	121
 1083 00e1 8C       		.byte	-116
 1084 00e2 6E       		.byte	110
 1085 00e3 8E       		.byte	-114
 1086 00e4 F5       		.byte	-11
 1087 00e5 B6       		.byte	-74
 1088 00e6 FD       		.byte	-3
 1089 00e7 59       		.byte	89
 1090 00e8 98       		.byte	-104
 1091 00e9 6A       		.byte	106
 1092 00ea 46       		.byte	70
 1093 00eb BA       		.byte	-70
ARM GAS  C:\Users\dtjld\AppData\Local\Temp\ccRGkA1L.s 			page 20


 1094 00ec 25       		.byte	37
 1095 00ed 42       		.byte	66
 1096 00ee A2       		.byte	-94
 1097 00ef FA       		.byte	-6
 1098 00f0 07       		.byte	7
 1099 00f1 55       		.byte	85
 1100 00f2 EE       		.byte	-18
 1101 00f3 0A       		.byte	10
 1102 00f4 49       		.byte	73
 1103 00f5 68       		.byte	104
 1104 00f6 38       		.byte	56
 1105 00f7 A4       		.byte	-92
 1106 00f8 28       		.byte	40
 1107 00f9 7B       		.byte	123
 1108 00fa C9       		.byte	-55
 1109 00fb C1       		.byte	-63
 1110 00fc E3       		.byte	-29
 1111 00fd F4       		.byte	-12
 1112 00fe C7       		.byte	-57
 1113 00ff 9E       		.byte	-98
 1114              		.section	.rodata.shifts,"a",%progbits
 1115              		.align	2
 1118              	shifts:
 1119 0000 01       		.byte	1
 1120 0001 01       		.byte	1
 1121 0002 01       		.byte	1
 1122 0003 01       		.byte	1
 1123 0004 00       		.byte	0
 1124 0005 00       		.byte	0
 1125 0006 00       		.byte	0
 1126 0007 00       		.byte	0
 1127 0008 01       		.byte	1
 1128 0009 01       		.byte	1
 1129 000a 01       		.byte	1
 1130 000b 01       		.byte	1
 1131 000c 00       		.byte	0
 1132 000d 00       		.byte	0
 1133 000e 00       		.byte	0
 1134 000f 00       		.byte	0
 1135 0010 01       		.byte	1
 1136 0011 00       		.byte	0
 1137 0012 01       		.byte	1
 1138 0013 01       		.byte	1
 1139 0014 01       		.byte	1
 1140 0015 01       		.byte	1
 1141 0016 00       		.byte	0
 1142 0017 01       		.byte	1
 1143 0018 01       		.byte	1
 1144 0019 01       		.byte	1
 1145 001a 01       		.byte	1
 1146 001b 00       		.byte	0
 1147 001c 01       		.byte	1
 1148 001d 01       		.byte	1
 1149 001e 00       		.byte	0
 1150 001f 01       		.byte	1
 1151              		.section	.rodata.indexes,"a",%progbits
 1152              		.align	2
ARM GAS  C:\Users\dtjld\AppData\Local\Temp\ccRGkA1L.s 			page 21


 1155              	indexes:
 1156 0000 00       		.byte	0
 1157 0001 01       		.byte	1
 1158 0002 02       		.byte	2
 1159 0003 03       		.byte	3
 1160 0004 08       		.byte	8
 1161 0005 09       		.byte	9
 1162 0006 0A       		.byte	10
 1163 0007 0B       		.byte	11
 1164 0008 26       		.byte	38
 1165 0009 27       		.byte	39
 1166 000a 24       		.byte	36
 1167 000b 25       		.byte	37
 1168 000c 17       		.byte	23
 1169 000d 14       		.byte	20
 1170 000e 15       		.byte	21
 1171 000f 16       		.byte	22
 1172 0010 1B       		.byte	27
 1173 0011 FF       		.byte	-1
 1174 0012 FF       		.byte	-1
 1175 0013 1A       		.byte	26
 1176 0014 FF       		.byte	-1
 1177 0015 FF       		.byte	-1
 1178 0016 FF       		.byte	-1
 1179 0017 FF       		.byte	-1
 1180 0018 FF       		.byte	-1
 1181 0019 FF       		.byte	-1
 1182 001a FF       		.byte	-1
 1183 001b FF       		.byte	-1
 1184 001c FF       		.byte	-1
 1185 001d FF       		.byte	-1
 1186 001e FF       		.byte	-1
 1187 001f FF       		.byte	-1
 1188 0020 FF       		.byte	-1
 1189 0021 FF       		.byte	-1
 1190 0022 FF       		.byte	-1
 1191 0023 FF       		.byte	-1
 1192 0024 FF       		.byte	-1
 1193 0025 FF       		.byte	-1
 1194 0026 FF       		.byte	-1
 1195 0027 FF       		.byte	-1
 1196 0028 04       		.byte	4
 1197 0029 05       		.byte	5
 1198 002a 06       		.byte	6
 1199 002b 07       		.byte	7
 1200 002c 0C       		.byte	12
 1201 002d 0D       		.byte	13
 1202 002e 0E       		.byte	14
 1203 002f 0F       		.byte	15
 1204 0030 10       		.byte	16
 1205 0031 11       		.byte	17
 1206 0032 12       		.byte	18
 1207 0033 13       		.byte	19
 1208 0034 FF       		.byte	-1
 1209 0035 18       		.byte	24
 1210 0036 19       		.byte	25
 1211 0037 FF       		.byte	-1
ARM GAS  C:\Users\dtjld\AppData\Local\Temp\ccRGkA1L.s 			page 22


 1212 0038 1F       		.byte	31
 1213 0039 1C       		.byte	28
 1214 003a 1D       		.byte	29
 1215 003b 1E       		.byte	30
 1216 003c FF       		.byte	-1
 1217 003d FF       		.byte	-1
 1218 003e FF       		.byte	-1
 1219 003f FF       		.byte	-1
 1220 0040 FF       		.byte	-1
 1221 0041 FF       		.byte	-1
 1222 0042 FF       		.byte	-1
 1223 0043 FF       		.byte	-1
 1224 0044 FF       		.byte	-1
 1225 0045 FF       		.byte	-1
 1226 0046 FF       		.byte	-1
 1227 0047 FF       		.byte	-1
 1228 0048 FF       		.byte	-1
 1229 0049 FF       		.byte	-1
 1230 004a FF       		.byte	-1
 1231 004b FF       		.byte	-1
 1232 004c FF       		.byte	-1
 1233 004d FF       		.byte	-1
 1234 004e FF       		.byte	-1
 1235 004f FF       		.byte	-1
 1236 0050 00       		.byte	0
 1237 0051 01       		.byte	1
 1238 0052 02       		.byte	2
 1239 0053 03       		.byte	3
 1240 0054 3D       		.byte	61
 1241 0055 3E       		.byte	62
 1242 0056 3F       		.byte	63
 1243 0057 3C       		.byte	60
 1244 0058 FF       		.byte	-1
 1245 0059 FF       		.byte	-1
 1246 005a FF       		.byte	-1
 1247 005b FF       		.byte	-1
 1248 005c 1B       		.byte	27
 1249 005d 18       		.byte	24
 1250 005e 19       		.byte	25
 1251 005f 1A       		.byte	26
 1252 0060 23       		.byte	35
 1253 0061 20       		.byte	32
 1254 0062 21       		.byte	33
 1255 0063 22       		.byte	34
 1256 0064 FF       		.byte	-1
 1257 0065 FF       		.byte	-1
 1258 0066 FF       		.byte	-1
 1259 0067 FF       		.byte	-1
 1260 0068 08       		.byte	8
 1261 0069 09       		.byte	9
 1262 006a 0A       		.byte	10
 1263 006b 0B       		.byte	11
 1264 006c 10       		.byte	16
 1265 006d 11       		.byte	17
 1266 006e 12       		.byte	18
 1267 006f 13       		.byte	19
 1268 0070 FF       		.byte	-1
ARM GAS  C:\Users\dtjld\AppData\Local\Temp\ccRGkA1L.s 			page 23


 1269 0071 FF       		.byte	-1
 1270 0072 FF       		.byte	-1
 1271 0073 FF       		.byte	-1
 1272 0074 27       		.byte	39
 1273 0075 24       		.byte	36
 1274 0076 25       		.byte	37
 1275 0077 26       		.byte	38
 1276 0078 FF       		.byte	-1
 1277 0079 FF       		.byte	-1
 1278 007a FF       		.byte	-1
 1279 007b FF       		.byte	-1
 1280 007c 0C       		.byte	12
 1281 007d 0D       		.byte	13
 1282 007e 0E       		.byte	14
 1283 007f 0F       		.byte	15
 1284 0080 3A       		.byte	58
 1285 0081 3B       		.byte	59
 1286 0082 38       		.byte	56
 1287 0083 39       		.byte	57
 1288 0084 1F       		.byte	31
 1289 0085 1C       		.byte	28
 1290 0086 1D       		.byte	29
 1291 0087 1E       		.byte	30
 1292 0088 FF       		.byte	-1
 1293 0089 FF       		.byte	-1
 1294 008a FF       		.byte	-1
 1295 008b FF       		.byte	-1
 1296 008c 04       		.byte	4
 1297 008d 05       		.byte	5
 1298 008e 06       		.byte	6
 1299 008f 07       		.byte	7
 1300 0090 41       		.byte	65
 1301 0091 42       		.byte	66
 1302 0092 43       		.byte	67
 1303 0093 40       		.byte	64
 1304 0094 14       		.byte	20
 1305 0095 15       		.byte	21
 1306 0096 16       		.byte	22
 1307 0097 17       		.byte	23
 1308 0098 FF       		.byte	-1
 1309 0099 FF       		.byte	-1
 1310 009a FF       		.byte	-1
 1311 009b FF       		.byte	-1
 1312 009c 2B       		.byte	43
 1313 009d 28       		.byte	40
 1314 009e 29       		.byte	41
 1315 009f 2A       		.byte	42
 1316              		.section	.rodata.transposes,"a",%progbits
 1317              		.align	2
 1320              	transposes:
 1321 0000 15       		.byte	21
 1322 0001 16       		.byte	22
 1323 0002 17       		.byte	23
 1324 0003 14       		.byte	20
 1325 0004 FF       		.byte	-1
 1326 0005 FF       		.byte	-1
 1327 0006 FF       		.byte	-1
ARM GAS  C:\Users\dtjld\AppData\Local\Temp\ccRGkA1L.s 			page 24


 1328 0007 FF       		.byte	-1
 1329 0008 12       		.byte	18
 1330 0009 13       		.byte	19
 1331 000a 10       		.byte	16
 1332 000b 11       		.byte	17
 1333 000c 0B       		.byte	11
 1334 000d 08       		.byte	8
 1335 000e 09       		.byte	9
 1336 000f 0A       		.byte	10
 1337 0010 0F       		.byte	15
 1338 0011 0C       		.byte	12
 1339 0012 0D       		.byte	13
 1340 0013 0E       		.byte	14
 1341 0014 19       		.byte	25
 1342 0015 1A       		.byte	26
 1343 0016 1B       		.byte	27
 1344 0017 18       		.byte	24
 1345 0018 1D       		.byte	29
 1346 0019 1E       		.byte	30
 1347 001a 1F       		.byte	31
 1348 001b 1C       		.byte	28
 1349 001c 12       		.byte	18
 1350 001d 13       		.byte	19
 1351 001e 10       		.byte	16
 1352 001f 11       		.byte	17
 1353 0020 FF       		.byte	-1
 1354 0021 FF       		.byte	-1
 1355 0022 FF       		.byte	-1
 1356 0023 FF       		.byte	-1
 1357 0024 FF       		.byte	-1
 1358 0025 FF       		.byte	-1
 1359 0026 FF       		.byte	-1
 1360 0027 FF       		.byte	-1
 1361              		.section	.text.camellia_feistel,"ax",%progbits
 1362              		.align	1
 1363              		.syntax unified
 1364              		.thumb
 1365              		.thumb_func
 1366              		.fpu fpv4-sp-d16
 1368              	camellia_feistel:
 1369              	.LFB3:
 1370              		.file 1 "C:/Users/dtjld/workspace/AIoT/src/LiteOS_Lab/iot_link/network/dtls/mbedtls/mbedtls-2.16.2
   1:C:/Users/dtjld/workspace/AIoT/src/LiteOS_Lab/iot_link/network/dtls/mbedtls/mbedtls-2.16.2/library\camellia.c **** /*
   2:C:/Users/dtjld/workspace/AIoT/src/LiteOS_Lab/iot_link/network/dtls/mbedtls/mbedtls-2.16.2/library\camellia.c ****  *  Camellia implementation
   3:C:/Users/dtjld/workspace/AIoT/src/LiteOS_Lab/iot_link/network/dtls/mbedtls/mbedtls-2.16.2/library\camellia.c ****  *
   4:C:/Users/dtjld/workspace/AIoT/src/LiteOS_Lab/iot_link/network/dtls/mbedtls/mbedtls-2.16.2/library\camellia.c ****  *  Copyright (C) 2006-2015, ARM Limited, All Rights Reserved
   5:C:/Users/dtjld/workspace/AIoT/src/LiteOS_Lab/iot_link/network/dtls/mbedtls/mbedtls-2.16.2/library\camellia.c ****  *  SPDX-License-Identifier: Apache-2.0
   6:C:/Users/dtjld/workspace/AIoT/src/LiteOS_Lab/iot_link/network/dtls/mbedtls/mbedtls-2.16.2/library\camellia.c ****  *
   7:C:/Users/dtjld/workspace/AIoT/src/LiteOS_Lab/iot_link/network/dtls/mbedtls/mbedtls-2.16.2/library\camellia.c ****  *  Licensed under the Apache License, Version 2.0 (the "License"); you may
   8:C:/Users/dtjld/workspace/AIoT/src/LiteOS_Lab/iot_link/network/dtls/mbedtls/mbedtls-2.16.2/library\camellia.c ****  *  not use this file except in compliance with the License.
   9:C:/Users/dtjld/workspace/AIoT/src/LiteOS_Lab/iot_link/network/dtls/mbedtls/mbedtls-2.16.2/library\camellia.c ****  *  You may obtain a copy of the License at
  10:C:/Users/dtjld/workspace/AIoT/src/LiteOS_Lab/iot_link/network/dtls/mbedtls/mbedtls-2.16.2/library\camellia.c ****  *
  11:C:/Users/dtjld/workspace/AIoT/src/LiteOS_Lab/iot_link/network/dtls/mbedtls/mbedtls-2.16.2/library\camellia.c ****  *  http://www.apache.org/licenses/LICENSE-2.0
  12:C:/Users/dtjld/workspace/AIoT/src/LiteOS_Lab/iot_link/network/dtls/mbedtls/mbedtls-2.16.2/library\camellia.c ****  *
  13:C:/Users/dtjld/workspace/AIoT/src/LiteOS_Lab/iot_link/network/dtls/mbedtls/mbedtls-2.16.2/library\camellia.c ****  *  Unless required by applicable law or agreed to in writing, software
  14:C:/Users/dtjld/workspace/AIoT/src/LiteOS_Lab/iot_link/network/dtls/mbedtls/mbedtls-2.16.2/library\camellia.c ****  *  distributed under the License is distributed on an "AS IS" BASIS, WITHOUT
  15:C:/Users/dtjld/workspace/AIoT/src/LiteOS_Lab/iot_link/network/dtls/mbedtls/mbedtls-2.16.2/library\camellia.c ****  *  WARRANTIES OR CONDITIONS OF ANY KIND, either express or implied.
ARM GAS  C:\Users\dtjld\AppData\Local\Temp\ccRGkA1L.s 			page 25


  16:C:/Users/dtjld/workspace/AIoT/src/LiteOS_Lab/iot_link/network/dtls/mbedtls/mbedtls-2.16.2/library\camellia.c ****  *  See the License for the specific language governing permissions and
  17:C:/Users/dtjld/workspace/AIoT/src/LiteOS_Lab/iot_link/network/dtls/mbedtls/mbedtls-2.16.2/library\camellia.c ****  *  limitations under the License.
  18:C:/Users/dtjld/workspace/AIoT/src/LiteOS_Lab/iot_link/network/dtls/mbedtls/mbedtls-2.16.2/library\camellia.c ****  *
  19:C:/Users/dtjld/workspace/AIoT/src/LiteOS_Lab/iot_link/network/dtls/mbedtls/mbedtls-2.16.2/library\camellia.c ****  *  This file is part of mbed TLS (https://tls.mbed.org)
  20:C:/Users/dtjld/workspace/AIoT/src/LiteOS_Lab/iot_link/network/dtls/mbedtls/mbedtls-2.16.2/library\camellia.c ****  */
  21:C:/Users/dtjld/workspace/AIoT/src/LiteOS_Lab/iot_link/network/dtls/mbedtls/mbedtls-2.16.2/library\camellia.c **** /*
  22:C:/Users/dtjld/workspace/AIoT/src/LiteOS_Lab/iot_link/network/dtls/mbedtls/mbedtls-2.16.2/library\camellia.c ****  *  The Camellia block cipher was designed by NTT and Mitsubishi Electric
  23:C:/Users/dtjld/workspace/AIoT/src/LiteOS_Lab/iot_link/network/dtls/mbedtls/mbedtls-2.16.2/library\camellia.c ****  *  Corporation.
  24:C:/Users/dtjld/workspace/AIoT/src/LiteOS_Lab/iot_link/network/dtls/mbedtls/mbedtls-2.16.2/library\camellia.c ****  *
  25:C:/Users/dtjld/workspace/AIoT/src/LiteOS_Lab/iot_link/network/dtls/mbedtls/mbedtls-2.16.2/library\camellia.c ****  *  http://info.isl.ntt.co.jp/crypt/eng/camellia/dl/01espec.pdf
  26:C:/Users/dtjld/workspace/AIoT/src/LiteOS_Lab/iot_link/network/dtls/mbedtls/mbedtls-2.16.2/library\camellia.c ****  */
  27:C:/Users/dtjld/workspace/AIoT/src/LiteOS_Lab/iot_link/network/dtls/mbedtls/mbedtls-2.16.2/library\camellia.c **** 
  28:C:/Users/dtjld/workspace/AIoT/src/LiteOS_Lab/iot_link/network/dtls/mbedtls/mbedtls-2.16.2/library\camellia.c **** #if !defined(MBEDTLS_CONFIG_FILE)
  29:C:/Users/dtjld/workspace/AIoT/src/LiteOS_Lab/iot_link/network/dtls/mbedtls/mbedtls-2.16.2/library\camellia.c **** #include "mbedtls/config.h"
  30:C:/Users/dtjld/workspace/AIoT/src/LiteOS_Lab/iot_link/network/dtls/mbedtls/mbedtls-2.16.2/library\camellia.c **** #else
  31:C:/Users/dtjld/workspace/AIoT/src/LiteOS_Lab/iot_link/network/dtls/mbedtls/mbedtls-2.16.2/library\camellia.c **** #include MBEDTLS_CONFIG_FILE
  32:C:/Users/dtjld/workspace/AIoT/src/LiteOS_Lab/iot_link/network/dtls/mbedtls/mbedtls-2.16.2/library\camellia.c **** #endif
  33:C:/Users/dtjld/workspace/AIoT/src/LiteOS_Lab/iot_link/network/dtls/mbedtls/mbedtls-2.16.2/library\camellia.c **** 
  34:C:/Users/dtjld/workspace/AIoT/src/LiteOS_Lab/iot_link/network/dtls/mbedtls/mbedtls-2.16.2/library\camellia.c **** #if defined(MBEDTLS_CAMELLIA_C)
  35:C:/Users/dtjld/workspace/AIoT/src/LiteOS_Lab/iot_link/network/dtls/mbedtls/mbedtls-2.16.2/library\camellia.c **** 
  36:C:/Users/dtjld/workspace/AIoT/src/LiteOS_Lab/iot_link/network/dtls/mbedtls/mbedtls-2.16.2/library\camellia.c **** #include "mbedtls/camellia.h"
  37:C:/Users/dtjld/workspace/AIoT/src/LiteOS_Lab/iot_link/network/dtls/mbedtls/mbedtls-2.16.2/library\camellia.c **** #include "mbedtls/platform_util.h"
  38:C:/Users/dtjld/workspace/AIoT/src/LiteOS_Lab/iot_link/network/dtls/mbedtls/mbedtls-2.16.2/library\camellia.c **** 
  39:C:/Users/dtjld/workspace/AIoT/src/LiteOS_Lab/iot_link/network/dtls/mbedtls/mbedtls-2.16.2/library\camellia.c **** #include <string.h>
  40:C:/Users/dtjld/workspace/AIoT/src/LiteOS_Lab/iot_link/network/dtls/mbedtls/mbedtls-2.16.2/library\camellia.c **** 
  41:C:/Users/dtjld/workspace/AIoT/src/LiteOS_Lab/iot_link/network/dtls/mbedtls/mbedtls-2.16.2/library\camellia.c **** #if defined(MBEDTLS_SELF_TEST)
  42:C:/Users/dtjld/workspace/AIoT/src/LiteOS_Lab/iot_link/network/dtls/mbedtls/mbedtls-2.16.2/library\camellia.c **** #if defined(MBEDTLS_PLATFORM_C)
  43:C:/Users/dtjld/workspace/AIoT/src/LiteOS_Lab/iot_link/network/dtls/mbedtls/mbedtls-2.16.2/library\camellia.c **** #include "mbedtls/platform.h"
  44:C:/Users/dtjld/workspace/AIoT/src/LiteOS_Lab/iot_link/network/dtls/mbedtls/mbedtls-2.16.2/library\camellia.c **** #else
  45:C:/Users/dtjld/workspace/AIoT/src/LiteOS_Lab/iot_link/network/dtls/mbedtls/mbedtls-2.16.2/library\camellia.c **** #include <stdio.h>
  46:C:/Users/dtjld/workspace/AIoT/src/LiteOS_Lab/iot_link/network/dtls/mbedtls/mbedtls-2.16.2/library\camellia.c **** #define mbedtls_printf printf
  47:C:/Users/dtjld/workspace/AIoT/src/LiteOS_Lab/iot_link/network/dtls/mbedtls/mbedtls-2.16.2/library\camellia.c **** #endif /* MBEDTLS_PLATFORM_C */
  48:C:/Users/dtjld/workspace/AIoT/src/LiteOS_Lab/iot_link/network/dtls/mbedtls/mbedtls-2.16.2/library\camellia.c **** #endif /* MBEDTLS_SELF_TEST */
  49:C:/Users/dtjld/workspace/AIoT/src/LiteOS_Lab/iot_link/network/dtls/mbedtls/mbedtls-2.16.2/library\camellia.c **** 
  50:C:/Users/dtjld/workspace/AIoT/src/LiteOS_Lab/iot_link/network/dtls/mbedtls/mbedtls-2.16.2/library\camellia.c **** #if !defined(MBEDTLS_CAMELLIA_ALT)
  51:C:/Users/dtjld/workspace/AIoT/src/LiteOS_Lab/iot_link/network/dtls/mbedtls/mbedtls-2.16.2/library\camellia.c **** 
  52:C:/Users/dtjld/workspace/AIoT/src/LiteOS_Lab/iot_link/network/dtls/mbedtls/mbedtls-2.16.2/library\camellia.c **** /* Parameter validation macros */
  53:C:/Users/dtjld/workspace/AIoT/src/LiteOS_Lab/iot_link/network/dtls/mbedtls/mbedtls-2.16.2/library\camellia.c **** #define CAMELLIA_VALIDATE_RET( cond )                                       \
  54:C:/Users/dtjld/workspace/AIoT/src/LiteOS_Lab/iot_link/network/dtls/mbedtls/mbedtls-2.16.2/library\camellia.c ****     MBEDTLS_INTERNAL_VALIDATE_RET( cond, MBEDTLS_ERR_CAMELLIA_BAD_INPUT_DATA )
  55:C:/Users/dtjld/workspace/AIoT/src/LiteOS_Lab/iot_link/network/dtls/mbedtls/mbedtls-2.16.2/library\camellia.c **** #define CAMELLIA_VALIDATE( cond )                                           \
  56:C:/Users/dtjld/workspace/AIoT/src/LiteOS_Lab/iot_link/network/dtls/mbedtls/mbedtls-2.16.2/library\camellia.c ****     MBEDTLS_INTERNAL_VALIDATE( cond )
  57:C:/Users/dtjld/workspace/AIoT/src/LiteOS_Lab/iot_link/network/dtls/mbedtls/mbedtls-2.16.2/library\camellia.c **** 
  58:C:/Users/dtjld/workspace/AIoT/src/LiteOS_Lab/iot_link/network/dtls/mbedtls/mbedtls-2.16.2/library\camellia.c **** /*
  59:C:/Users/dtjld/workspace/AIoT/src/LiteOS_Lab/iot_link/network/dtls/mbedtls/mbedtls-2.16.2/library\camellia.c ****  * 32-bit integer manipulation macros (big endian)
  60:C:/Users/dtjld/workspace/AIoT/src/LiteOS_Lab/iot_link/network/dtls/mbedtls/mbedtls-2.16.2/library\camellia.c ****  */
  61:C:/Users/dtjld/workspace/AIoT/src/LiteOS_Lab/iot_link/network/dtls/mbedtls/mbedtls-2.16.2/library\camellia.c **** #ifndef GET_UINT32_BE
  62:C:/Users/dtjld/workspace/AIoT/src/LiteOS_Lab/iot_link/network/dtls/mbedtls/mbedtls-2.16.2/library\camellia.c **** #define GET_UINT32_BE(n,b,i)                            \
  63:C:/Users/dtjld/workspace/AIoT/src/LiteOS_Lab/iot_link/network/dtls/mbedtls/mbedtls-2.16.2/library\camellia.c **** {                                                       \
  64:C:/Users/dtjld/workspace/AIoT/src/LiteOS_Lab/iot_link/network/dtls/mbedtls/mbedtls-2.16.2/library\camellia.c ****     (n) = ( (uint32_t) (b)[(i)    ] << 24 )             \
  65:C:/Users/dtjld/workspace/AIoT/src/LiteOS_Lab/iot_link/network/dtls/mbedtls/mbedtls-2.16.2/library\camellia.c ****         | ( (uint32_t) (b)[(i) + 1] << 16 )             \
  66:C:/Users/dtjld/workspace/AIoT/src/LiteOS_Lab/iot_link/network/dtls/mbedtls/mbedtls-2.16.2/library\camellia.c ****         | ( (uint32_t) (b)[(i) + 2] <<  8 )             \
  67:C:/Users/dtjld/workspace/AIoT/src/LiteOS_Lab/iot_link/network/dtls/mbedtls/mbedtls-2.16.2/library\camellia.c ****         | ( (uint32_t) (b)[(i) + 3]       );            \
  68:C:/Users/dtjld/workspace/AIoT/src/LiteOS_Lab/iot_link/network/dtls/mbedtls/mbedtls-2.16.2/library\camellia.c **** }
  69:C:/Users/dtjld/workspace/AIoT/src/LiteOS_Lab/iot_link/network/dtls/mbedtls/mbedtls-2.16.2/library\camellia.c **** #endif
  70:C:/Users/dtjld/workspace/AIoT/src/LiteOS_Lab/iot_link/network/dtls/mbedtls/mbedtls-2.16.2/library\camellia.c **** 
  71:C:/Users/dtjld/workspace/AIoT/src/LiteOS_Lab/iot_link/network/dtls/mbedtls/mbedtls-2.16.2/library\camellia.c **** #ifndef PUT_UINT32_BE
  72:C:/Users/dtjld/workspace/AIoT/src/LiteOS_Lab/iot_link/network/dtls/mbedtls/mbedtls-2.16.2/library\camellia.c **** #define PUT_UINT32_BE(n,b,i)                            \
ARM GAS  C:\Users\dtjld\AppData\Local\Temp\ccRGkA1L.s 			page 26


  73:C:/Users/dtjld/workspace/AIoT/src/LiteOS_Lab/iot_link/network/dtls/mbedtls/mbedtls-2.16.2/library\camellia.c **** {                                                       \
  74:C:/Users/dtjld/workspace/AIoT/src/LiteOS_Lab/iot_link/network/dtls/mbedtls/mbedtls-2.16.2/library\camellia.c ****     (b)[(i)    ] = (unsigned char) ( (n) >> 24 );       \
  75:C:/Users/dtjld/workspace/AIoT/src/LiteOS_Lab/iot_link/network/dtls/mbedtls/mbedtls-2.16.2/library\camellia.c ****     (b)[(i) + 1] = (unsigned char) ( (n) >> 16 );       \
  76:C:/Users/dtjld/workspace/AIoT/src/LiteOS_Lab/iot_link/network/dtls/mbedtls/mbedtls-2.16.2/library\camellia.c ****     (b)[(i) + 2] = (unsigned char) ( (n) >>  8 );       \
  77:C:/Users/dtjld/workspace/AIoT/src/LiteOS_Lab/iot_link/network/dtls/mbedtls/mbedtls-2.16.2/library\camellia.c ****     (b)[(i) + 3] = (unsigned char) ( (n)       );       \
  78:C:/Users/dtjld/workspace/AIoT/src/LiteOS_Lab/iot_link/network/dtls/mbedtls/mbedtls-2.16.2/library\camellia.c **** }
  79:C:/Users/dtjld/workspace/AIoT/src/LiteOS_Lab/iot_link/network/dtls/mbedtls/mbedtls-2.16.2/library\camellia.c **** #endif
  80:C:/Users/dtjld/workspace/AIoT/src/LiteOS_Lab/iot_link/network/dtls/mbedtls/mbedtls-2.16.2/library\camellia.c **** 
  81:C:/Users/dtjld/workspace/AIoT/src/LiteOS_Lab/iot_link/network/dtls/mbedtls/mbedtls-2.16.2/library\camellia.c **** static const unsigned char SIGMA_CHARS[6][8] =
  82:C:/Users/dtjld/workspace/AIoT/src/LiteOS_Lab/iot_link/network/dtls/mbedtls/mbedtls-2.16.2/library\camellia.c **** {
  83:C:/Users/dtjld/workspace/AIoT/src/LiteOS_Lab/iot_link/network/dtls/mbedtls/mbedtls-2.16.2/library\camellia.c ****     { 0xa0, 0x9e, 0x66, 0x7f, 0x3b, 0xcc, 0x90, 0x8b },
  84:C:/Users/dtjld/workspace/AIoT/src/LiteOS_Lab/iot_link/network/dtls/mbedtls/mbedtls-2.16.2/library\camellia.c ****     { 0xb6, 0x7a, 0xe8, 0x58, 0x4c, 0xaa, 0x73, 0xb2 },
  85:C:/Users/dtjld/workspace/AIoT/src/LiteOS_Lab/iot_link/network/dtls/mbedtls/mbedtls-2.16.2/library\camellia.c ****     { 0xc6, 0xef, 0x37, 0x2f, 0xe9, 0x4f, 0x82, 0xbe },
  86:C:/Users/dtjld/workspace/AIoT/src/LiteOS_Lab/iot_link/network/dtls/mbedtls/mbedtls-2.16.2/library\camellia.c ****     { 0x54, 0xff, 0x53, 0xa5, 0xf1, 0xd3, 0x6f, 0x1c },
  87:C:/Users/dtjld/workspace/AIoT/src/LiteOS_Lab/iot_link/network/dtls/mbedtls/mbedtls-2.16.2/library\camellia.c ****     { 0x10, 0xe5, 0x27, 0xfa, 0xde, 0x68, 0x2d, 0x1d },
  88:C:/Users/dtjld/workspace/AIoT/src/LiteOS_Lab/iot_link/network/dtls/mbedtls/mbedtls-2.16.2/library\camellia.c ****     { 0xb0, 0x56, 0x88, 0xc2, 0xb3, 0xe6, 0xc1, 0xfd }
  89:C:/Users/dtjld/workspace/AIoT/src/LiteOS_Lab/iot_link/network/dtls/mbedtls/mbedtls-2.16.2/library\camellia.c **** };
  90:C:/Users/dtjld/workspace/AIoT/src/LiteOS_Lab/iot_link/network/dtls/mbedtls/mbedtls-2.16.2/library\camellia.c **** 
  91:C:/Users/dtjld/workspace/AIoT/src/LiteOS_Lab/iot_link/network/dtls/mbedtls/mbedtls-2.16.2/library\camellia.c **** #if defined(MBEDTLS_CAMELLIA_SMALL_MEMORY)
  92:C:/Users/dtjld/workspace/AIoT/src/LiteOS_Lab/iot_link/network/dtls/mbedtls/mbedtls-2.16.2/library\camellia.c **** 
  93:C:/Users/dtjld/workspace/AIoT/src/LiteOS_Lab/iot_link/network/dtls/mbedtls/mbedtls-2.16.2/library\camellia.c **** static const unsigned char FSb[256] =
  94:C:/Users/dtjld/workspace/AIoT/src/LiteOS_Lab/iot_link/network/dtls/mbedtls/mbedtls-2.16.2/library\camellia.c **** {
  95:C:/Users/dtjld/workspace/AIoT/src/LiteOS_Lab/iot_link/network/dtls/mbedtls/mbedtls-2.16.2/library\camellia.c ****     112,130, 44,236,179, 39,192,229,228,133, 87, 53,234, 12,174, 65,
  96:C:/Users/dtjld/workspace/AIoT/src/LiteOS_Lab/iot_link/network/dtls/mbedtls/mbedtls-2.16.2/library\camellia.c ****      35,239,107,147, 69, 25,165, 33,237, 14, 79, 78, 29,101,146,189,
  97:C:/Users/dtjld/workspace/AIoT/src/LiteOS_Lab/iot_link/network/dtls/mbedtls/mbedtls-2.16.2/library\camellia.c ****     134,184,175,143,124,235, 31,206, 62, 48,220, 95, 94,197, 11, 26,
  98:C:/Users/dtjld/workspace/AIoT/src/LiteOS_Lab/iot_link/network/dtls/mbedtls/mbedtls-2.16.2/library\camellia.c ****     166,225, 57,202,213, 71, 93, 61,217,  1, 90,214, 81, 86,108, 77,
  99:C:/Users/dtjld/workspace/AIoT/src/LiteOS_Lab/iot_link/network/dtls/mbedtls/mbedtls-2.16.2/library\camellia.c ****     139, 13,154,102,251,204,176, 45,116, 18, 43, 32,240,177,132,153,
 100:C:/Users/dtjld/workspace/AIoT/src/LiteOS_Lab/iot_link/network/dtls/mbedtls/mbedtls-2.16.2/library\camellia.c ****     223, 76,203,194, 52,126,118,  5,109,183,169, 49,209, 23,  4,215,
 101:C:/Users/dtjld/workspace/AIoT/src/LiteOS_Lab/iot_link/network/dtls/mbedtls/mbedtls-2.16.2/library\camellia.c ****      20, 88, 58, 97,222, 27, 17, 28, 50, 15,156, 22, 83, 24,242, 34,
 102:C:/Users/dtjld/workspace/AIoT/src/LiteOS_Lab/iot_link/network/dtls/mbedtls/mbedtls-2.16.2/library\camellia.c ****     254, 68,207,178,195,181,122,145, 36,  8,232,168, 96,252,105, 80,
 103:C:/Users/dtjld/workspace/AIoT/src/LiteOS_Lab/iot_link/network/dtls/mbedtls/mbedtls-2.16.2/library\camellia.c ****     170,208,160,125,161,137, 98,151, 84, 91, 30,149,224,255,100,210,
 104:C:/Users/dtjld/workspace/AIoT/src/LiteOS_Lab/iot_link/network/dtls/mbedtls/mbedtls-2.16.2/library\camellia.c ****      16,196,  0, 72,163,247,117,219,138,  3,230,218,  9, 63,221,148,
 105:C:/Users/dtjld/workspace/AIoT/src/LiteOS_Lab/iot_link/network/dtls/mbedtls/mbedtls-2.16.2/library\camellia.c ****     135, 92,131,  2,205, 74,144, 51,115,103,246,243,157,127,191,226,
 106:C:/Users/dtjld/workspace/AIoT/src/LiteOS_Lab/iot_link/network/dtls/mbedtls/mbedtls-2.16.2/library\camellia.c ****      82,155,216, 38,200, 55,198, 59,129,150,111, 75, 19,190, 99, 46,
 107:C:/Users/dtjld/workspace/AIoT/src/LiteOS_Lab/iot_link/network/dtls/mbedtls/mbedtls-2.16.2/library\camellia.c ****     233,121,167,140,159,110,188,142, 41,245,249,182, 47,253,180, 89,
 108:C:/Users/dtjld/workspace/AIoT/src/LiteOS_Lab/iot_link/network/dtls/mbedtls/mbedtls-2.16.2/library\camellia.c ****     120,152,  6,106,231, 70,113,186,212, 37,171, 66,136,162,141,250,
 109:C:/Users/dtjld/workspace/AIoT/src/LiteOS_Lab/iot_link/network/dtls/mbedtls/mbedtls-2.16.2/library\camellia.c ****     114,  7,185, 85,248,238,172, 10, 54, 73, 42,104, 60, 56,241,164,
 110:C:/Users/dtjld/workspace/AIoT/src/LiteOS_Lab/iot_link/network/dtls/mbedtls/mbedtls-2.16.2/library\camellia.c ****      64, 40,211,123,187,201, 67,193, 21,227,173,244,119,199,128,158
 111:C:/Users/dtjld/workspace/AIoT/src/LiteOS_Lab/iot_link/network/dtls/mbedtls/mbedtls-2.16.2/library\camellia.c **** };
 112:C:/Users/dtjld/workspace/AIoT/src/LiteOS_Lab/iot_link/network/dtls/mbedtls/mbedtls-2.16.2/library\camellia.c **** 
 113:C:/Users/dtjld/workspace/AIoT/src/LiteOS_Lab/iot_link/network/dtls/mbedtls/mbedtls-2.16.2/library\camellia.c **** #define SBOX1(n) FSb[(n)]
 114:C:/Users/dtjld/workspace/AIoT/src/LiteOS_Lab/iot_link/network/dtls/mbedtls/mbedtls-2.16.2/library\camellia.c **** #define SBOX2(n) (unsigned char)((FSb[(n)] >> 7 ^ FSb[(n)] << 1) & 0xff)
 115:C:/Users/dtjld/workspace/AIoT/src/LiteOS_Lab/iot_link/network/dtls/mbedtls/mbedtls-2.16.2/library\camellia.c **** #define SBOX3(n) (unsigned char)((FSb[(n)] >> 1 ^ FSb[(n)] << 7) & 0xff)
 116:C:/Users/dtjld/workspace/AIoT/src/LiteOS_Lab/iot_link/network/dtls/mbedtls/mbedtls-2.16.2/library\camellia.c **** #define SBOX4(n) FSb[((n) << 1 ^ (n) >> 7) &0xff]
 117:C:/Users/dtjld/workspace/AIoT/src/LiteOS_Lab/iot_link/network/dtls/mbedtls/mbedtls-2.16.2/library\camellia.c **** 
 118:C:/Users/dtjld/workspace/AIoT/src/LiteOS_Lab/iot_link/network/dtls/mbedtls/mbedtls-2.16.2/library\camellia.c **** #else /* MBEDTLS_CAMELLIA_SMALL_MEMORY */
 119:C:/Users/dtjld/workspace/AIoT/src/LiteOS_Lab/iot_link/network/dtls/mbedtls/mbedtls-2.16.2/library\camellia.c **** 
 120:C:/Users/dtjld/workspace/AIoT/src/LiteOS_Lab/iot_link/network/dtls/mbedtls/mbedtls-2.16.2/library\camellia.c **** static const unsigned char FSb[256] =
 121:C:/Users/dtjld/workspace/AIoT/src/LiteOS_Lab/iot_link/network/dtls/mbedtls/mbedtls-2.16.2/library\camellia.c **** {
 122:C:/Users/dtjld/workspace/AIoT/src/LiteOS_Lab/iot_link/network/dtls/mbedtls/mbedtls-2.16.2/library\camellia.c ****  112, 130,  44, 236, 179,  39, 192, 229, 228, 133,  87,  53, 234,  12, 174,  65,
 123:C:/Users/dtjld/workspace/AIoT/src/LiteOS_Lab/iot_link/network/dtls/mbedtls/mbedtls-2.16.2/library\camellia.c ****   35, 239, 107, 147,  69,  25, 165,  33, 237,  14,  79,  78,  29, 101, 146, 189,
 124:C:/Users/dtjld/workspace/AIoT/src/LiteOS_Lab/iot_link/network/dtls/mbedtls/mbedtls-2.16.2/library\camellia.c ****  134, 184, 175, 143, 124, 235,  31, 206,  62,  48, 220,  95,  94, 197,  11,  26,
 125:C:/Users/dtjld/workspace/AIoT/src/LiteOS_Lab/iot_link/network/dtls/mbedtls/mbedtls-2.16.2/library\camellia.c ****  166, 225,  57, 202, 213,  71,  93,  61, 217,   1,  90, 214,  81,  86, 108,  77,
 126:C:/Users/dtjld/workspace/AIoT/src/LiteOS_Lab/iot_link/network/dtls/mbedtls/mbedtls-2.16.2/library\camellia.c ****  139,  13, 154, 102, 251, 204, 176,  45, 116,  18,  43,  32, 240, 177, 132, 153,
 127:C:/Users/dtjld/workspace/AIoT/src/LiteOS_Lab/iot_link/network/dtls/mbedtls/mbedtls-2.16.2/library\camellia.c ****  223,  76, 203, 194,  52, 126, 118,   5, 109, 183, 169,  49, 209,  23,   4, 215,
 128:C:/Users/dtjld/workspace/AIoT/src/LiteOS_Lab/iot_link/network/dtls/mbedtls/mbedtls-2.16.2/library\camellia.c ****   20,  88,  58,  97, 222,  27,  17,  28,  50,  15, 156,  22,  83,  24, 242,  34,
 129:C:/Users/dtjld/workspace/AIoT/src/LiteOS_Lab/iot_link/network/dtls/mbedtls/mbedtls-2.16.2/library\camellia.c ****  254,  68, 207, 178, 195, 181, 122, 145,  36,   8, 232, 168,  96, 252, 105,  80,
ARM GAS  C:\Users\dtjld\AppData\Local\Temp\ccRGkA1L.s 			page 27


 130:C:/Users/dtjld/workspace/AIoT/src/LiteOS_Lab/iot_link/network/dtls/mbedtls/mbedtls-2.16.2/library\camellia.c ****  170, 208, 160, 125, 161, 137,  98, 151,  84,  91,  30, 149, 224, 255, 100, 210,
 131:C:/Users/dtjld/workspace/AIoT/src/LiteOS_Lab/iot_link/network/dtls/mbedtls/mbedtls-2.16.2/library\camellia.c ****   16, 196,   0,  72, 163, 247, 117, 219, 138,   3, 230, 218,   9,  63, 221, 148,
 132:C:/Users/dtjld/workspace/AIoT/src/LiteOS_Lab/iot_link/network/dtls/mbedtls/mbedtls-2.16.2/library\camellia.c ****  135,  92, 131,   2, 205,  74, 144,  51, 115, 103, 246, 243, 157, 127, 191, 226,
 133:C:/Users/dtjld/workspace/AIoT/src/LiteOS_Lab/iot_link/network/dtls/mbedtls/mbedtls-2.16.2/library\camellia.c ****   82, 155, 216,  38, 200,  55, 198,  59, 129, 150, 111,  75,  19, 190,  99,  46,
 134:C:/Users/dtjld/workspace/AIoT/src/LiteOS_Lab/iot_link/network/dtls/mbedtls/mbedtls-2.16.2/library\camellia.c ****  233, 121, 167, 140, 159, 110, 188, 142,  41, 245, 249, 182,  47, 253, 180,  89,
 135:C:/Users/dtjld/workspace/AIoT/src/LiteOS_Lab/iot_link/network/dtls/mbedtls/mbedtls-2.16.2/library\camellia.c ****  120, 152,   6, 106, 231,  70, 113, 186, 212,  37, 171,  66, 136, 162, 141, 250,
 136:C:/Users/dtjld/workspace/AIoT/src/LiteOS_Lab/iot_link/network/dtls/mbedtls/mbedtls-2.16.2/library\camellia.c ****  114,   7, 185,  85, 248, 238, 172,  10,  54,  73,  42, 104,  60,  56, 241, 164,
 137:C:/Users/dtjld/workspace/AIoT/src/LiteOS_Lab/iot_link/network/dtls/mbedtls/mbedtls-2.16.2/library\camellia.c ****  64,  40, 211, 123, 187, 201,  67, 193,  21, 227, 173, 244, 119, 199, 128, 158
 138:C:/Users/dtjld/workspace/AIoT/src/LiteOS_Lab/iot_link/network/dtls/mbedtls/mbedtls-2.16.2/library\camellia.c **** };
 139:C:/Users/dtjld/workspace/AIoT/src/LiteOS_Lab/iot_link/network/dtls/mbedtls/mbedtls-2.16.2/library\camellia.c **** 
 140:C:/Users/dtjld/workspace/AIoT/src/LiteOS_Lab/iot_link/network/dtls/mbedtls/mbedtls-2.16.2/library\camellia.c **** static const unsigned char FSb2[256] =
 141:C:/Users/dtjld/workspace/AIoT/src/LiteOS_Lab/iot_link/network/dtls/mbedtls/mbedtls-2.16.2/library\camellia.c **** {
 142:C:/Users/dtjld/workspace/AIoT/src/LiteOS_Lab/iot_link/network/dtls/mbedtls/mbedtls-2.16.2/library\camellia.c ****  224,   5,  88, 217, 103,  78, 129, 203, 201,  11, 174, 106, 213,  24,  93, 130,
 143:C:/Users/dtjld/workspace/AIoT/src/LiteOS_Lab/iot_link/network/dtls/mbedtls/mbedtls-2.16.2/library\camellia.c ****   70, 223, 214,  39, 138,  50,  75,  66, 219,  28, 158, 156,  58, 202,  37, 123,
 144:C:/Users/dtjld/workspace/AIoT/src/LiteOS_Lab/iot_link/network/dtls/mbedtls/mbedtls-2.16.2/library\camellia.c ****   13, 113,  95,  31, 248, 215,  62, 157, 124,  96, 185, 190, 188, 139,  22,  52,
 145:C:/Users/dtjld/workspace/AIoT/src/LiteOS_Lab/iot_link/network/dtls/mbedtls/mbedtls-2.16.2/library\camellia.c ****   77, 195, 114, 149, 171, 142, 186, 122, 179,   2, 180, 173, 162, 172, 216, 154,
 146:C:/Users/dtjld/workspace/AIoT/src/LiteOS_Lab/iot_link/network/dtls/mbedtls/mbedtls-2.16.2/library\camellia.c ****   23,  26,  53, 204, 247, 153,  97,  90, 232,  36,  86,  64, 225,  99,   9,  51,
 147:C:/Users/dtjld/workspace/AIoT/src/LiteOS_Lab/iot_link/network/dtls/mbedtls/mbedtls-2.16.2/library\camellia.c ****  191, 152, 151, 133, 104, 252, 236,  10, 218, 111,  83,  98, 163,  46,   8, 175,
 148:C:/Users/dtjld/workspace/AIoT/src/LiteOS_Lab/iot_link/network/dtls/mbedtls/mbedtls-2.16.2/library\camellia.c ****   40, 176, 116, 194, 189,  54,  34,  56, 100,  30,  57,  44, 166,  48, 229,  68,
 149:C:/Users/dtjld/workspace/AIoT/src/LiteOS_Lab/iot_link/network/dtls/mbedtls/mbedtls-2.16.2/library\camellia.c ****  253, 136, 159, 101, 135, 107, 244,  35,  72,  16, 209,  81, 192, 249, 210, 160,
 150:C:/Users/dtjld/workspace/AIoT/src/LiteOS_Lab/iot_link/network/dtls/mbedtls/mbedtls-2.16.2/library\camellia.c ****   85, 161,  65, 250,  67,  19, 196,  47, 168, 182,  60,  43, 193, 255, 200, 165,
 151:C:/Users/dtjld/workspace/AIoT/src/LiteOS_Lab/iot_link/network/dtls/mbedtls/mbedtls-2.16.2/library\camellia.c ****   32, 137,   0, 144,  71, 239, 234, 183,  21,   6, 205, 181,  18, 126, 187,  41,
 152:C:/Users/dtjld/workspace/AIoT/src/LiteOS_Lab/iot_link/network/dtls/mbedtls/mbedtls-2.16.2/library\camellia.c ****   15, 184,   7,   4, 155, 148,  33, 102, 230, 206, 237, 231,  59, 254, 127, 197,
 153:C:/Users/dtjld/workspace/AIoT/src/LiteOS_Lab/iot_link/network/dtls/mbedtls/mbedtls-2.16.2/library\camellia.c ****  164,  55, 177,  76, 145, 110, 141, 118,   3,  45, 222, 150,  38, 125, 198,  92,
 154:C:/Users/dtjld/workspace/AIoT/src/LiteOS_Lab/iot_link/network/dtls/mbedtls/mbedtls-2.16.2/library\camellia.c ****  211, 242,  79,  25,  63, 220, 121,  29,  82, 235, 243, 109,  94, 251, 105, 178,
 155:C:/Users/dtjld/workspace/AIoT/src/LiteOS_Lab/iot_link/network/dtls/mbedtls/mbedtls-2.16.2/library\camellia.c ****  240,  49,  12, 212, 207, 140, 226, 117, 169,  74,  87, 132,  17,  69,  27, 245,
 156:C:/Users/dtjld/workspace/AIoT/src/LiteOS_Lab/iot_link/network/dtls/mbedtls/mbedtls-2.16.2/library\camellia.c ****  228,  14, 115, 170, 241, 221,  89,  20, 108, 146,  84, 208, 120, 112, 227,  73,
 157:C:/Users/dtjld/workspace/AIoT/src/LiteOS_Lab/iot_link/network/dtls/mbedtls/mbedtls-2.16.2/library\camellia.c ****  128,  80, 167, 246, 119, 147, 134, 131,  42, 199,  91, 233, 238, 143,   1,  61
 158:C:/Users/dtjld/workspace/AIoT/src/LiteOS_Lab/iot_link/network/dtls/mbedtls/mbedtls-2.16.2/library\camellia.c **** };
 159:C:/Users/dtjld/workspace/AIoT/src/LiteOS_Lab/iot_link/network/dtls/mbedtls/mbedtls-2.16.2/library\camellia.c **** 
 160:C:/Users/dtjld/workspace/AIoT/src/LiteOS_Lab/iot_link/network/dtls/mbedtls/mbedtls-2.16.2/library\camellia.c **** static const unsigned char FSb3[256] =
 161:C:/Users/dtjld/workspace/AIoT/src/LiteOS_Lab/iot_link/network/dtls/mbedtls/mbedtls-2.16.2/library\camellia.c **** {
 162:C:/Users/dtjld/workspace/AIoT/src/LiteOS_Lab/iot_link/network/dtls/mbedtls/mbedtls-2.16.2/library\camellia.c ****   56,  65,  22, 118, 217, 147,  96, 242, 114, 194, 171, 154, 117,   6,  87, 160,
 163:C:/Users/dtjld/workspace/AIoT/src/LiteOS_Lab/iot_link/network/dtls/mbedtls/mbedtls-2.16.2/library\camellia.c ****  145, 247, 181, 201, 162, 140, 210, 144, 246,   7, 167,  39, 142, 178,  73, 222,
 164:C:/Users/dtjld/workspace/AIoT/src/LiteOS_Lab/iot_link/network/dtls/mbedtls/mbedtls-2.16.2/library\camellia.c ****   67,  92, 215, 199,  62, 245, 143, 103,  31,  24, 110, 175,  47, 226, 133,  13,
 165:C:/Users/dtjld/workspace/AIoT/src/LiteOS_Lab/iot_link/network/dtls/mbedtls/mbedtls-2.16.2/library\camellia.c ****   83, 240, 156, 101, 234, 163, 174, 158, 236, 128,  45, 107, 168,  43,  54, 166,
 166:C:/Users/dtjld/workspace/AIoT/src/LiteOS_Lab/iot_link/network/dtls/mbedtls/mbedtls-2.16.2/library\camellia.c ****  197, 134,  77,  51, 253, 102,  88, 150,  58,   9, 149,  16, 120, 216,  66, 204,
 167:C:/Users/dtjld/workspace/AIoT/src/LiteOS_Lab/iot_link/network/dtls/mbedtls/mbedtls-2.16.2/library\camellia.c ****  239,  38, 229,  97,  26,  63,  59, 130, 182, 219, 212, 152, 232, 139,   2, 235,
 168:C:/Users/dtjld/workspace/AIoT/src/LiteOS_Lab/iot_link/network/dtls/mbedtls/mbedtls-2.16.2/library\camellia.c ****   10,  44,  29, 176, 111, 141, 136,  14,  25, 135,  78,  11, 169,  12, 121,  17,
 169:C:/Users/dtjld/workspace/AIoT/src/LiteOS_Lab/iot_link/network/dtls/mbedtls/mbedtls-2.16.2/library\camellia.c ****  127,  34, 231,  89, 225, 218,  61, 200,  18,   4, 116,  84,  48, 126, 180,  40,
 170:C:/Users/dtjld/workspace/AIoT/src/LiteOS_Lab/iot_link/network/dtls/mbedtls/mbedtls-2.16.2/library\camellia.c ****   85, 104,  80, 190, 208, 196,  49, 203,  42, 173,  15, 202, 112, 255,  50, 105,
 171:C:/Users/dtjld/workspace/AIoT/src/LiteOS_Lab/iot_link/network/dtls/mbedtls/mbedtls-2.16.2/library\camellia.c ****    8,  98,   0,  36, 209, 251, 186, 237,  69, 129, 115, 109, 132, 159, 238,  74,
 172:C:/Users/dtjld/workspace/AIoT/src/LiteOS_Lab/iot_link/network/dtls/mbedtls/mbedtls-2.16.2/library\camellia.c ****  195,  46, 193,   1, 230,  37,  72, 153, 185, 179, 123, 249, 206, 191, 223, 113,
 173:C:/Users/dtjld/workspace/AIoT/src/LiteOS_Lab/iot_link/network/dtls/mbedtls/mbedtls-2.16.2/library\camellia.c ****   41, 205, 108,  19, 100, 155,  99, 157, 192,  75, 183, 165, 137,  95, 177,  23,
 174:C:/Users/dtjld/workspace/AIoT/src/LiteOS_Lab/iot_link/network/dtls/mbedtls/mbedtls-2.16.2/library\camellia.c ****  244, 188, 211,  70, 207,  55,  94,  71, 148, 250, 252,  91, 151, 254,  90, 172,
 175:C:/Users/dtjld/workspace/AIoT/src/LiteOS_Lab/iot_link/network/dtls/mbedtls/mbedtls-2.16.2/library\camellia.c ****   60,  76,   3,  53, 243,  35, 184,  93, 106, 146, 213,  33,  68,  81, 198, 125,
 176:C:/Users/dtjld/workspace/AIoT/src/LiteOS_Lab/iot_link/network/dtls/mbedtls/mbedtls-2.16.2/library\camellia.c ****   57, 131, 220, 170, 124, 119,  86,   5,  27, 164,  21,  52,  30,  28, 248,  82,
 177:C:/Users/dtjld/workspace/AIoT/src/LiteOS_Lab/iot_link/network/dtls/mbedtls/mbedtls-2.16.2/library\camellia.c ****   32,  20, 233, 189, 221, 228, 161, 224, 138, 241, 214, 122, 187, 227,  64,  79
 178:C:/Users/dtjld/workspace/AIoT/src/LiteOS_Lab/iot_link/network/dtls/mbedtls/mbedtls-2.16.2/library\camellia.c **** };
 179:C:/Users/dtjld/workspace/AIoT/src/LiteOS_Lab/iot_link/network/dtls/mbedtls/mbedtls-2.16.2/library\camellia.c **** 
 180:C:/Users/dtjld/workspace/AIoT/src/LiteOS_Lab/iot_link/network/dtls/mbedtls/mbedtls-2.16.2/library\camellia.c **** static const unsigned char FSb4[256] =
 181:C:/Users/dtjld/workspace/AIoT/src/LiteOS_Lab/iot_link/network/dtls/mbedtls/mbedtls-2.16.2/library\camellia.c **** {
 182:C:/Users/dtjld/workspace/AIoT/src/LiteOS_Lab/iot_link/network/dtls/mbedtls/mbedtls-2.16.2/library\camellia.c ****  112,  44, 179, 192, 228,  87, 234, 174,  35, 107,  69, 165, 237,  79,  29, 146,
 183:C:/Users/dtjld/workspace/AIoT/src/LiteOS_Lab/iot_link/network/dtls/mbedtls/mbedtls-2.16.2/library\camellia.c ****  134, 175, 124,  31,  62, 220,  94,  11, 166,  57, 213,  93, 217,  90,  81, 108,
 184:C:/Users/dtjld/workspace/AIoT/src/LiteOS_Lab/iot_link/network/dtls/mbedtls/mbedtls-2.16.2/library\camellia.c ****  139, 154, 251, 176, 116,  43, 240, 132, 223, 203,  52, 118, 109, 169, 209,   4,
 185:C:/Users/dtjld/workspace/AIoT/src/LiteOS_Lab/iot_link/network/dtls/mbedtls/mbedtls-2.16.2/library\camellia.c ****   20,  58, 222,  17,  50, 156,  83, 242, 254, 207, 195, 122,  36, 232,  96, 105,
 186:C:/Users/dtjld/workspace/AIoT/src/LiteOS_Lab/iot_link/network/dtls/mbedtls/mbedtls-2.16.2/library\camellia.c ****  170, 160, 161,  98,  84,  30, 224, 100,  16,   0, 163, 117, 138, 230,   9, 221,
ARM GAS  C:\Users\dtjld\AppData\Local\Temp\ccRGkA1L.s 			page 28


 187:C:/Users/dtjld/workspace/AIoT/src/LiteOS_Lab/iot_link/network/dtls/mbedtls/mbedtls-2.16.2/library\camellia.c ****  135, 131, 205, 144, 115, 246, 157, 191,  82, 216, 200, 198, 129, 111,  19,  99,
 188:C:/Users/dtjld/workspace/AIoT/src/LiteOS_Lab/iot_link/network/dtls/mbedtls/mbedtls-2.16.2/library\camellia.c ****  233, 167, 159, 188,  41, 249,  47, 180, 120,   6, 231, 113, 212, 171, 136, 141,
 189:C:/Users/dtjld/workspace/AIoT/src/LiteOS_Lab/iot_link/network/dtls/mbedtls/mbedtls-2.16.2/library\camellia.c ****  114, 185, 248, 172,  54,  42,  60, 241,  64, 211, 187,  67,  21, 173, 119, 128,
 190:C:/Users/dtjld/workspace/AIoT/src/LiteOS_Lab/iot_link/network/dtls/mbedtls/mbedtls-2.16.2/library\camellia.c ****  130, 236,  39, 229, 133,  53,  12,  65, 239, 147,  25,  33,  14,  78, 101, 189,
 191:C:/Users/dtjld/workspace/AIoT/src/LiteOS_Lab/iot_link/network/dtls/mbedtls/mbedtls-2.16.2/library\camellia.c ****  184, 143, 235, 206,  48,  95, 197,  26, 225, 202,  71,  61,   1, 214,  86,  77,
 192:C:/Users/dtjld/workspace/AIoT/src/LiteOS_Lab/iot_link/network/dtls/mbedtls/mbedtls-2.16.2/library\camellia.c ****   13, 102, 204,  45,  18,  32, 177, 153,  76, 194, 126,   5, 183,  49,  23, 215,
 193:C:/Users/dtjld/workspace/AIoT/src/LiteOS_Lab/iot_link/network/dtls/mbedtls/mbedtls-2.16.2/library\camellia.c ****   88,  97,  27,  28,  15,  22,  24,  34,  68, 178, 181, 145,   8, 168, 252,  80,
 194:C:/Users/dtjld/workspace/AIoT/src/LiteOS_Lab/iot_link/network/dtls/mbedtls/mbedtls-2.16.2/library\camellia.c ****  208, 125, 137, 151,  91, 149, 255, 210, 196,  72, 247, 219,   3, 218,  63, 148,
 195:C:/Users/dtjld/workspace/AIoT/src/LiteOS_Lab/iot_link/network/dtls/mbedtls/mbedtls-2.16.2/library\camellia.c ****   92,   2,  74,  51, 103, 243, 127, 226, 155,  38,  55,  59, 150,  75, 190,  46,
 196:C:/Users/dtjld/workspace/AIoT/src/LiteOS_Lab/iot_link/network/dtls/mbedtls/mbedtls-2.16.2/library\camellia.c ****  121, 140, 110, 142, 245, 182, 253,  89, 152, 106,  70, 186,  37,  66, 162, 250,
 197:C:/Users/dtjld/workspace/AIoT/src/LiteOS_Lab/iot_link/network/dtls/mbedtls/mbedtls-2.16.2/library\camellia.c ****   7,  85, 238,  10,  73, 104,  56, 164,  40, 123, 201, 193, 227, 244, 199, 158
 198:C:/Users/dtjld/workspace/AIoT/src/LiteOS_Lab/iot_link/network/dtls/mbedtls/mbedtls-2.16.2/library\camellia.c **** };
 199:C:/Users/dtjld/workspace/AIoT/src/LiteOS_Lab/iot_link/network/dtls/mbedtls/mbedtls-2.16.2/library\camellia.c **** 
 200:C:/Users/dtjld/workspace/AIoT/src/LiteOS_Lab/iot_link/network/dtls/mbedtls/mbedtls-2.16.2/library\camellia.c **** #define SBOX1(n) FSb[(n)]
 201:C:/Users/dtjld/workspace/AIoT/src/LiteOS_Lab/iot_link/network/dtls/mbedtls/mbedtls-2.16.2/library\camellia.c **** #define SBOX2(n) FSb2[(n)]
 202:C:/Users/dtjld/workspace/AIoT/src/LiteOS_Lab/iot_link/network/dtls/mbedtls/mbedtls-2.16.2/library\camellia.c **** #define SBOX3(n) FSb3[(n)]
 203:C:/Users/dtjld/workspace/AIoT/src/LiteOS_Lab/iot_link/network/dtls/mbedtls/mbedtls-2.16.2/library\camellia.c **** #define SBOX4(n) FSb4[(n)]
 204:C:/Users/dtjld/workspace/AIoT/src/LiteOS_Lab/iot_link/network/dtls/mbedtls/mbedtls-2.16.2/library\camellia.c **** 
 205:C:/Users/dtjld/workspace/AIoT/src/LiteOS_Lab/iot_link/network/dtls/mbedtls/mbedtls-2.16.2/library\camellia.c **** #endif /* MBEDTLS_CAMELLIA_SMALL_MEMORY */
 206:C:/Users/dtjld/workspace/AIoT/src/LiteOS_Lab/iot_link/network/dtls/mbedtls/mbedtls-2.16.2/library\camellia.c **** 
 207:C:/Users/dtjld/workspace/AIoT/src/LiteOS_Lab/iot_link/network/dtls/mbedtls/mbedtls-2.16.2/library\camellia.c **** static const unsigned char shifts[2][4][4] =
 208:C:/Users/dtjld/workspace/AIoT/src/LiteOS_Lab/iot_link/network/dtls/mbedtls/mbedtls-2.16.2/library\camellia.c **** {
 209:C:/Users/dtjld/workspace/AIoT/src/LiteOS_Lab/iot_link/network/dtls/mbedtls/mbedtls-2.16.2/library\camellia.c ****     {
 210:C:/Users/dtjld/workspace/AIoT/src/LiteOS_Lab/iot_link/network/dtls/mbedtls/mbedtls-2.16.2/library\camellia.c ****         { 1, 1, 1, 1 }, /* KL */
 211:C:/Users/dtjld/workspace/AIoT/src/LiteOS_Lab/iot_link/network/dtls/mbedtls/mbedtls-2.16.2/library\camellia.c ****         { 0, 0, 0, 0 }, /* KR */
 212:C:/Users/dtjld/workspace/AIoT/src/LiteOS_Lab/iot_link/network/dtls/mbedtls/mbedtls-2.16.2/library\camellia.c ****         { 1, 1, 1, 1 }, /* KA */
 213:C:/Users/dtjld/workspace/AIoT/src/LiteOS_Lab/iot_link/network/dtls/mbedtls/mbedtls-2.16.2/library\camellia.c ****         { 0, 0, 0, 0 }  /* KB */
 214:C:/Users/dtjld/workspace/AIoT/src/LiteOS_Lab/iot_link/network/dtls/mbedtls/mbedtls-2.16.2/library\camellia.c ****     },
 215:C:/Users/dtjld/workspace/AIoT/src/LiteOS_Lab/iot_link/network/dtls/mbedtls/mbedtls-2.16.2/library\camellia.c ****     {
 216:C:/Users/dtjld/workspace/AIoT/src/LiteOS_Lab/iot_link/network/dtls/mbedtls/mbedtls-2.16.2/library\camellia.c ****         { 1, 0, 1, 1 }, /* KL */
 217:C:/Users/dtjld/workspace/AIoT/src/LiteOS_Lab/iot_link/network/dtls/mbedtls/mbedtls-2.16.2/library\camellia.c ****         { 1, 1, 0, 1 }, /* KR */
 218:C:/Users/dtjld/workspace/AIoT/src/LiteOS_Lab/iot_link/network/dtls/mbedtls/mbedtls-2.16.2/library\camellia.c ****         { 1, 1, 1, 0 }, /* KA */
 219:C:/Users/dtjld/workspace/AIoT/src/LiteOS_Lab/iot_link/network/dtls/mbedtls/mbedtls-2.16.2/library\camellia.c ****         { 1, 1, 0, 1 }  /* KB */
 220:C:/Users/dtjld/workspace/AIoT/src/LiteOS_Lab/iot_link/network/dtls/mbedtls/mbedtls-2.16.2/library\camellia.c ****     }
 221:C:/Users/dtjld/workspace/AIoT/src/LiteOS_Lab/iot_link/network/dtls/mbedtls/mbedtls-2.16.2/library\camellia.c **** };
 222:C:/Users/dtjld/workspace/AIoT/src/LiteOS_Lab/iot_link/network/dtls/mbedtls/mbedtls-2.16.2/library\camellia.c **** 
 223:C:/Users/dtjld/workspace/AIoT/src/LiteOS_Lab/iot_link/network/dtls/mbedtls/mbedtls-2.16.2/library\camellia.c **** static const signed char indexes[2][4][20] =
 224:C:/Users/dtjld/workspace/AIoT/src/LiteOS_Lab/iot_link/network/dtls/mbedtls/mbedtls-2.16.2/library\camellia.c **** {
 225:C:/Users/dtjld/workspace/AIoT/src/LiteOS_Lab/iot_link/network/dtls/mbedtls/mbedtls-2.16.2/library\camellia.c ****     {
 226:C:/Users/dtjld/workspace/AIoT/src/LiteOS_Lab/iot_link/network/dtls/mbedtls/mbedtls-2.16.2/library\camellia.c ****         {  0,  1,  2,  3,  8,  9, 10, 11, 38, 39,
 227:C:/Users/dtjld/workspace/AIoT/src/LiteOS_Lab/iot_link/network/dtls/mbedtls/mbedtls-2.16.2/library\camellia.c ****           36, 37, 23, 20, 21, 22, 27, -1, -1, 26 }, /* KL -> RK */
 228:C:/Users/dtjld/workspace/AIoT/src/LiteOS_Lab/iot_link/network/dtls/mbedtls/mbedtls-2.16.2/library\camellia.c ****         { -1, -1, -1, -1, -1, -1, -1, -1, -1, -1,
 229:C:/Users/dtjld/workspace/AIoT/src/LiteOS_Lab/iot_link/network/dtls/mbedtls/mbedtls-2.16.2/library\camellia.c ****           -1, -1, -1, -1, -1, -1, -1, -1, -1, -1 }, /* KR -> RK */
 230:C:/Users/dtjld/workspace/AIoT/src/LiteOS_Lab/iot_link/network/dtls/mbedtls/mbedtls-2.16.2/library\camellia.c ****         {  4,  5,  6,  7, 12, 13, 14, 15, 16, 17,
 231:C:/Users/dtjld/workspace/AIoT/src/LiteOS_Lab/iot_link/network/dtls/mbedtls/mbedtls-2.16.2/library\camellia.c ****           18, 19, -1, 24, 25, -1, 31, 28, 29, 30 }, /* KA -> RK */
 232:C:/Users/dtjld/workspace/AIoT/src/LiteOS_Lab/iot_link/network/dtls/mbedtls/mbedtls-2.16.2/library\camellia.c ****         { -1, -1, -1, -1, -1, -1, -1, -1, -1, -1,
 233:C:/Users/dtjld/workspace/AIoT/src/LiteOS_Lab/iot_link/network/dtls/mbedtls/mbedtls-2.16.2/library\camellia.c ****           -1, -1, -1, -1, -1, -1, -1, -1, -1, -1 }  /* KB -> RK */
 234:C:/Users/dtjld/workspace/AIoT/src/LiteOS_Lab/iot_link/network/dtls/mbedtls/mbedtls-2.16.2/library\camellia.c ****     },
 235:C:/Users/dtjld/workspace/AIoT/src/LiteOS_Lab/iot_link/network/dtls/mbedtls/mbedtls-2.16.2/library\camellia.c ****     {
 236:C:/Users/dtjld/workspace/AIoT/src/LiteOS_Lab/iot_link/network/dtls/mbedtls/mbedtls-2.16.2/library\camellia.c ****         {  0,  1,  2,  3, 61, 62, 63, 60, -1, -1,
 237:C:/Users/dtjld/workspace/AIoT/src/LiteOS_Lab/iot_link/network/dtls/mbedtls/mbedtls-2.16.2/library\camellia.c ****           -1, -1, 27, 24, 25, 26, 35, 32, 33, 34 }, /* KL -> RK */
 238:C:/Users/dtjld/workspace/AIoT/src/LiteOS_Lab/iot_link/network/dtls/mbedtls/mbedtls-2.16.2/library\camellia.c ****         { -1, -1, -1, -1,  8,  9, 10, 11, 16, 17,
 239:C:/Users/dtjld/workspace/AIoT/src/LiteOS_Lab/iot_link/network/dtls/mbedtls/mbedtls-2.16.2/library\camellia.c ****           18, 19, -1, -1, -1, -1, 39, 36, 37, 38 }, /* KR -> RK */
 240:C:/Users/dtjld/workspace/AIoT/src/LiteOS_Lab/iot_link/network/dtls/mbedtls/mbedtls-2.16.2/library\camellia.c ****         { -1, -1, -1, -1, 12, 13, 14, 15, 58, 59,
 241:C:/Users/dtjld/workspace/AIoT/src/LiteOS_Lab/iot_link/network/dtls/mbedtls/mbedtls-2.16.2/library\camellia.c ****           56, 57, 31, 28, 29, 30, -1, -1, -1, -1 }, /* KA -> RK */
 242:C:/Users/dtjld/workspace/AIoT/src/LiteOS_Lab/iot_link/network/dtls/mbedtls/mbedtls-2.16.2/library\camellia.c ****         {  4,  5,  6,  7, 65, 66, 67, 64, 20, 21,
 243:C:/Users/dtjld/workspace/AIoT/src/LiteOS_Lab/iot_link/network/dtls/mbedtls/mbedtls-2.16.2/library\camellia.c ****           22, 23, -1, -1, -1, -1, 43, 40, 41, 42 }  /* KB -> RK */
ARM GAS  C:\Users\dtjld\AppData\Local\Temp\ccRGkA1L.s 			page 29


 244:C:/Users/dtjld/workspace/AIoT/src/LiteOS_Lab/iot_link/network/dtls/mbedtls/mbedtls-2.16.2/library\camellia.c ****     }
 245:C:/Users/dtjld/workspace/AIoT/src/LiteOS_Lab/iot_link/network/dtls/mbedtls/mbedtls-2.16.2/library\camellia.c **** };
 246:C:/Users/dtjld/workspace/AIoT/src/LiteOS_Lab/iot_link/network/dtls/mbedtls/mbedtls-2.16.2/library\camellia.c **** 
 247:C:/Users/dtjld/workspace/AIoT/src/LiteOS_Lab/iot_link/network/dtls/mbedtls/mbedtls-2.16.2/library\camellia.c **** static const signed char transposes[2][20] =
 248:C:/Users/dtjld/workspace/AIoT/src/LiteOS_Lab/iot_link/network/dtls/mbedtls/mbedtls-2.16.2/library\camellia.c **** {
 249:C:/Users/dtjld/workspace/AIoT/src/LiteOS_Lab/iot_link/network/dtls/mbedtls/mbedtls-2.16.2/library\camellia.c ****     {
 250:C:/Users/dtjld/workspace/AIoT/src/LiteOS_Lab/iot_link/network/dtls/mbedtls/mbedtls-2.16.2/library\camellia.c ****         21, 22, 23, 20,
 251:C:/Users/dtjld/workspace/AIoT/src/LiteOS_Lab/iot_link/network/dtls/mbedtls/mbedtls-2.16.2/library\camellia.c ****         -1, -1, -1, -1,
 252:C:/Users/dtjld/workspace/AIoT/src/LiteOS_Lab/iot_link/network/dtls/mbedtls/mbedtls-2.16.2/library\camellia.c ****         18, 19, 16, 17,
 253:C:/Users/dtjld/workspace/AIoT/src/LiteOS_Lab/iot_link/network/dtls/mbedtls/mbedtls-2.16.2/library\camellia.c ****         11,  8,  9, 10,
 254:C:/Users/dtjld/workspace/AIoT/src/LiteOS_Lab/iot_link/network/dtls/mbedtls/mbedtls-2.16.2/library\camellia.c ****         15, 12, 13, 14
 255:C:/Users/dtjld/workspace/AIoT/src/LiteOS_Lab/iot_link/network/dtls/mbedtls/mbedtls-2.16.2/library\camellia.c ****     },
 256:C:/Users/dtjld/workspace/AIoT/src/LiteOS_Lab/iot_link/network/dtls/mbedtls/mbedtls-2.16.2/library\camellia.c ****     {
 257:C:/Users/dtjld/workspace/AIoT/src/LiteOS_Lab/iot_link/network/dtls/mbedtls/mbedtls-2.16.2/library\camellia.c ****         25, 26, 27, 24,
 258:C:/Users/dtjld/workspace/AIoT/src/LiteOS_Lab/iot_link/network/dtls/mbedtls/mbedtls-2.16.2/library\camellia.c ****         29, 30, 31, 28,
 259:C:/Users/dtjld/workspace/AIoT/src/LiteOS_Lab/iot_link/network/dtls/mbedtls/mbedtls-2.16.2/library\camellia.c ****         18, 19, 16, 17,
 260:C:/Users/dtjld/workspace/AIoT/src/LiteOS_Lab/iot_link/network/dtls/mbedtls/mbedtls-2.16.2/library\camellia.c ****         -1, -1, -1, -1,
 261:C:/Users/dtjld/workspace/AIoT/src/LiteOS_Lab/iot_link/network/dtls/mbedtls/mbedtls-2.16.2/library\camellia.c ****         -1, -1, -1, -1
 262:C:/Users/dtjld/workspace/AIoT/src/LiteOS_Lab/iot_link/network/dtls/mbedtls/mbedtls-2.16.2/library\camellia.c ****     }
 263:C:/Users/dtjld/workspace/AIoT/src/LiteOS_Lab/iot_link/network/dtls/mbedtls/mbedtls-2.16.2/library\camellia.c **** };
 264:C:/Users/dtjld/workspace/AIoT/src/LiteOS_Lab/iot_link/network/dtls/mbedtls/mbedtls-2.16.2/library\camellia.c **** 
 265:C:/Users/dtjld/workspace/AIoT/src/LiteOS_Lab/iot_link/network/dtls/mbedtls/mbedtls-2.16.2/library\camellia.c **** /* Shift macro for 128 bit strings with rotation smaller than 32 bits (!) */
 266:C:/Users/dtjld/workspace/AIoT/src/LiteOS_Lab/iot_link/network/dtls/mbedtls/mbedtls-2.16.2/library\camellia.c **** #define ROTL(DEST, SRC, SHIFT)                                      \
 267:C:/Users/dtjld/workspace/AIoT/src/LiteOS_Lab/iot_link/network/dtls/mbedtls/mbedtls-2.16.2/library\camellia.c **** {                                                                   \
 268:C:/Users/dtjld/workspace/AIoT/src/LiteOS_Lab/iot_link/network/dtls/mbedtls/mbedtls-2.16.2/library\camellia.c ****     (DEST)[0] = (SRC)[0] << (SHIFT) ^ (SRC)[1] >> (32 - (SHIFT));   \
 269:C:/Users/dtjld/workspace/AIoT/src/LiteOS_Lab/iot_link/network/dtls/mbedtls/mbedtls-2.16.2/library\camellia.c ****     (DEST)[1] = (SRC)[1] << (SHIFT) ^ (SRC)[2] >> (32 - (SHIFT));   \
 270:C:/Users/dtjld/workspace/AIoT/src/LiteOS_Lab/iot_link/network/dtls/mbedtls/mbedtls-2.16.2/library\camellia.c ****     (DEST)[2] = (SRC)[2] << (SHIFT) ^ (SRC)[3] >> (32 - (SHIFT));   \
 271:C:/Users/dtjld/workspace/AIoT/src/LiteOS_Lab/iot_link/network/dtls/mbedtls/mbedtls-2.16.2/library\camellia.c ****     (DEST)[3] = (SRC)[3] << (SHIFT) ^ (SRC)[0] >> (32 - (SHIFT));   \
 272:C:/Users/dtjld/workspace/AIoT/src/LiteOS_Lab/iot_link/network/dtls/mbedtls/mbedtls-2.16.2/library\camellia.c **** }
 273:C:/Users/dtjld/workspace/AIoT/src/LiteOS_Lab/iot_link/network/dtls/mbedtls/mbedtls-2.16.2/library\camellia.c **** 
 274:C:/Users/dtjld/workspace/AIoT/src/LiteOS_Lab/iot_link/network/dtls/mbedtls/mbedtls-2.16.2/library\camellia.c **** #define FL(XL, XR, KL, KR)                                          \
 275:C:/Users/dtjld/workspace/AIoT/src/LiteOS_Lab/iot_link/network/dtls/mbedtls/mbedtls-2.16.2/library\camellia.c **** {                                                                   \
 276:C:/Users/dtjld/workspace/AIoT/src/LiteOS_Lab/iot_link/network/dtls/mbedtls/mbedtls-2.16.2/library\camellia.c ****     (XR) = ((((XL) & (KL)) << 1) | (((XL) & (KL)) >> 31)) ^ (XR);   \
 277:C:/Users/dtjld/workspace/AIoT/src/LiteOS_Lab/iot_link/network/dtls/mbedtls/mbedtls-2.16.2/library\camellia.c ****     (XL) = ((XR) | (KR)) ^ (XL);                                    \
 278:C:/Users/dtjld/workspace/AIoT/src/LiteOS_Lab/iot_link/network/dtls/mbedtls/mbedtls-2.16.2/library\camellia.c **** }
 279:C:/Users/dtjld/workspace/AIoT/src/LiteOS_Lab/iot_link/network/dtls/mbedtls/mbedtls-2.16.2/library\camellia.c **** 
 280:C:/Users/dtjld/workspace/AIoT/src/LiteOS_Lab/iot_link/network/dtls/mbedtls/mbedtls-2.16.2/library\camellia.c **** #define FLInv(YL, YR, KL, KR)                                       \
 281:C:/Users/dtjld/workspace/AIoT/src/LiteOS_Lab/iot_link/network/dtls/mbedtls/mbedtls-2.16.2/library\camellia.c **** {                                                                   \
 282:C:/Users/dtjld/workspace/AIoT/src/LiteOS_Lab/iot_link/network/dtls/mbedtls/mbedtls-2.16.2/library\camellia.c ****     (YL) = ((YR) | (KR)) ^ (YL);                                    \
 283:C:/Users/dtjld/workspace/AIoT/src/LiteOS_Lab/iot_link/network/dtls/mbedtls/mbedtls-2.16.2/library\camellia.c ****     (YR) = ((((YL) & (KL)) << 1) | (((YL) & (KL)) >> 31)) ^ (YR);   \
 284:C:/Users/dtjld/workspace/AIoT/src/LiteOS_Lab/iot_link/network/dtls/mbedtls/mbedtls-2.16.2/library\camellia.c **** }
 285:C:/Users/dtjld/workspace/AIoT/src/LiteOS_Lab/iot_link/network/dtls/mbedtls/mbedtls-2.16.2/library\camellia.c **** 
 286:C:/Users/dtjld/workspace/AIoT/src/LiteOS_Lab/iot_link/network/dtls/mbedtls/mbedtls-2.16.2/library\camellia.c **** #define SHIFT_AND_PLACE(INDEX, OFFSET)                      \
 287:C:/Users/dtjld/workspace/AIoT/src/LiteOS_Lab/iot_link/network/dtls/mbedtls/mbedtls-2.16.2/library\camellia.c **** {                                                           \
 288:C:/Users/dtjld/workspace/AIoT/src/LiteOS_Lab/iot_link/network/dtls/mbedtls/mbedtls-2.16.2/library\camellia.c ****     TK[0] = KC[(OFFSET) * 4 + 0];                           \
 289:C:/Users/dtjld/workspace/AIoT/src/LiteOS_Lab/iot_link/network/dtls/mbedtls/mbedtls-2.16.2/library\camellia.c ****     TK[1] = KC[(OFFSET) * 4 + 1];                           \
 290:C:/Users/dtjld/workspace/AIoT/src/LiteOS_Lab/iot_link/network/dtls/mbedtls/mbedtls-2.16.2/library\camellia.c ****     TK[2] = KC[(OFFSET) * 4 + 2];                           \
 291:C:/Users/dtjld/workspace/AIoT/src/LiteOS_Lab/iot_link/network/dtls/mbedtls/mbedtls-2.16.2/library\camellia.c ****     TK[3] = KC[(OFFSET) * 4 + 3];                           \
 292:C:/Users/dtjld/workspace/AIoT/src/LiteOS_Lab/iot_link/network/dtls/mbedtls/mbedtls-2.16.2/library\camellia.c ****                                                             \
 293:C:/Users/dtjld/workspace/AIoT/src/LiteOS_Lab/iot_link/network/dtls/mbedtls/mbedtls-2.16.2/library\camellia.c ****     for( i = 1; i <= 4; i++ )                               \
 294:C:/Users/dtjld/workspace/AIoT/src/LiteOS_Lab/iot_link/network/dtls/mbedtls/mbedtls-2.16.2/library\camellia.c ****         if( shifts[(INDEX)][(OFFSET)][i -1] )               \
 295:C:/Users/dtjld/workspace/AIoT/src/LiteOS_Lab/iot_link/network/dtls/mbedtls/mbedtls-2.16.2/library\camellia.c ****             ROTL(TK + i * 4, TK, ( 15 * i ) % 32);          \
 296:C:/Users/dtjld/workspace/AIoT/src/LiteOS_Lab/iot_link/network/dtls/mbedtls/mbedtls-2.16.2/library\camellia.c ****                                                             \
 297:C:/Users/dtjld/workspace/AIoT/src/LiteOS_Lab/iot_link/network/dtls/mbedtls/mbedtls-2.16.2/library\camellia.c ****     for( i = 0; i < 20; i++ )                               \
 298:C:/Users/dtjld/workspace/AIoT/src/LiteOS_Lab/iot_link/network/dtls/mbedtls/mbedtls-2.16.2/library\camellia.c ****         if( indexes[(INDEX)][(OFFSET)][i] != -1 ) {         \
 299:C:/Users/dtjld/workspace/AIoT/src/LiteOS_Lab/iot_link/network/dtls/mbedtls/mbedtls-2.16.2/library\camellia.c ****             RK[indexes[(INDEX)][(OFFSET)][i]] = TK[ i ];    \
 300:C:/Users/dtjld/workspace/AIoT/src/LiteOS_Lab/iot_link/network/dtls/mbedtls/mbedtls-2.16.2/library\camellia.c ****         }                                                   \
ARM GAS  C:\Users\dtjld\AppData\Local\Temp\ccRGkA1L.s 			page 30


 301:C:/Users/dtjld/workspace/AIoT/src/LiteOS_Lab/iot_link/network/dtls/mbedtls/mbedtls-2.16.2/library\camellia.c **** }
 302:C:/Users/dtjld/workspace/AIoT/src/LiteOS_Lab/iot_link/network/dtls/mbedtls/mbedtls-2.16.2/library\camellia.c **** 
 303:C:/Users/dtjld/workspace/AIoT/src/LiteOS_Lab/iot_link/network/dtls/mbedtls/mbedtls-2.16.2/library\camellia.c **** static void camellia_feistel( const uint32_t x[2], const uint32_t k[2],
 304:C:/Users/dtjld/workspace/AIoT/src/LiteOS_Lab/iot_link/network/dtls/mbedtls/mbedtls-2.16.2/library\camellia.c ****                               uint32_t z[2])
 305:C:/Users/dtjld/workspace/AIoT/src/LiteOS_Lab/iot_link/network/dtls/mbedtls/mbedtls-2.16.2/library\camellia.c **** {
 1371              		.loc 1 305 0
 1372              		.cfi_startproc
 1373              		@ args = 0, pretend = 0, frame = 24
 1374              		@ frame_needed = 1, uses_anonymous_args = 0
 1375              		@ link register save eliminated.
 1376 0000 80B4     		push	{r7}
 1377              	.LCFI0:
 1378              		.cfi_def_cfa_offset 4
 1379              		.cfi_offset 7, -4
 1380 0002 87B0     		sub	sp, sp, #28
 1381              	.LCFI1:
 1382              		.cfi_def_cfa_offset 32
 1383 0004 00AF     		add	r7, sp, #0
 1384              	.LCFI2:
 1385              		.cfi_def_cfa_register 7
 1386 0006 F860     		str	r0, [r7, #12]
 1387 0008 B960     		str	r1, [r7, #8]
 1388 000a 7A60     		str	r2, [r7, #4]
 306:C:/Users/dtjld/workspace/AIoT/src/LiteOS_Lab/iot_link/network/dtls/mbedtls/mbedtls-2.16.2/library\camellia.c ****     uint32_t I0, I1;
 307:C:/Users/dtjld/workspace/AIoT/src/LiteOS_Lab/iot_link/network/dtls/mbedtls/mbedtls-2.16.2/library\camellia.c ****     I0 = x[0] ^ k[0];
 1389              		.loc 1 307 0
 1390 000c FB68     		ldr	r3, [r7, #12]
 1391 000e 1A68     		ldr	r2, [r3]
 1392 0010 BB68     		ldr	r3, [r7, #8]
 1393 0012 1B68     		ldr	r3, [r3]
 1394 0014 5340     		eors	r3, r3, r2
 1395 0016 7B61     		str	r3, [r7, #20]
 308:C:/Users/dtjld/workspace/AIoT/src/LiteOS_Lab/iot_link/network/dtls/mbedtls/mbedtls-2.16.2/library\camellia.c ****     I1 = x[1] ^ k[1];
 1396              		.loc 1 308 0
 1397 0018 FB68     		ldr	r3, [r7, #12]
 1398 001a 0433     		adds	r3, r3, #4
 1399 001c 1A68     		ldr	r2, [r3]
 1400 001e BB68     		ldr	r3, [r7, #8]
 1401 0020 0433     		adds	r3, r3, #4
 1402 0022 1B68     		ldr	r3, [r3]
 1403 0024 5340     		eors	r3, r3, r2
 1404 0026 3B61     		str	r3, [r7, #16]
 309:C:/Users/dtjld/workspace/AIoT/src/LiteOS_Lab/iot_link/network/dtls/mbedtls/mbedtls-2.16.2/library\camellia.c **** 
 310:C:/Users/dtjld/workspace/AIoT/src/LiteOS_Lab/iot_link/network/dtls/mbedtls/mbedtls-2.16.2/library\camellia.c ****     I0 = ((uint32_t) SBOX1((I0 >> 24) & 0xFF) << 24) |
 1405              		.loc 1 310 0
 1406 0028 7B69     		ldr	r3, [r7, #20]
 1407 002a 1B0E     		lsrs	r3, r3, #24
 1408 002c 2D4A     		ldr	r2, .L2
 1409 002e D35C     		ldrb	r3, [r2, r3]	@ zero_extendqisi2
 1410 0030 1A06     		lsls	r2, r3, #24
 311:C:/Users/dtjld/workspace/AIoT/src/LiteOS_Lab/iot_link/network/dtls/mbedtls/mbedtls-2.16.2/library\camellia.c ****          ((uint32_t) SBOX2((I0 >> 16) & 0xFF) << 16) |
 1411              		.loc 1 311 0
 1412 0032 7B69     		ldr	r3, [r7, #20]
 1413 0034 1B0C     		lsrs	r3, r3, #16
 1414 0036 DBB2     		uxtb	r3, r3
 1415 0038 2B49     		ldr	r1, .L2+4
 1416 003a CB5C     		ldrb	r3, [r1, r3]	@ zero_extendqisi2
ARM GAS  C:\Users\dtjld\AppData\Local\Temp\ccRGkA1L.s 			page 31


 1417 003c 1B04     		lsls	r3, r3, #16
 310:C:/Users/dtjld/workspace/AIoT/src/LiteOS_Lab/iot_link/network/dtls/mbedtls/mbedtls-2.16.2/library\camellia.c ****          ((uint32_t) SBOX2((I0 >> 16) & 0xFF) << 16) |
 1418              		.loc 1 310 0
 1419 003e 1A43     		orrs	r2, r2, r3
 312:C:/Users/dtjld/workspace/AIoT/src/LiteOS_Lab/iot_link/network/dtls/mbedtls/mbedtls-2.16.2/library\camellia.c ****          ((uint32_t) SBOX3((I0 >>  8) & 0xFF) <<  8) |
 1420              		.loc 1 312 0
 1421 0040 7B69     		ldr	r3, [r7, #20]
 1422 0042 1B0A     		lsrs	r3, r3, #8
 1423 0044 DBB2     		uxtb	r3, r3
 1424 0046 2949     		ldr	r1, .L2+8
 1425 0048 CB5C     		ldrb	r3, [r1, r3]	@ zero_extendqisi2
 1426 004a 1B02     		lsls	r3, r3, #8
 311:C:/Users/dtjld/workspace/AIoT/src/LiteOS_Lab/iot_link/network/dtls/mbedtls/mbedtls-2.16.2/library\camellia.c ****          ((uint32_t) SBOX2((I0 >> 16) & 0xFF) << 16) |
 1427              		.loc 1 311 0
 1428 004c 1343     		orrs	r3, r3, r2
 313:C:/Users/dtjld/workspace/AIoT/src/LiteOS_Lab/iot_link/network/dtls/mbedtls/mbedtls-2.16.2/library\camellia.c ****          ((uint32_t) SBOX4((I0      ) & 0xFF)      );
 1429              		.loc 1 313 0
 1430 004e 7A69     		ldr	r2, [r7, #20]
 1431 0050 D2B2     		uxtb	r2, r2
 1432 0052 2749     		ldr	r1, .L2+12
 1433 0054 8A5C     		ldrb	r2, [r1, r2]	@ zero_extendqisi2
 310:C:/Users/dtjld/workspace/AIoT/src/LiteOS_Lab/iot_link/network/dtls/mbedtls/mbedtls-2.16.2/library\camellia.c ****          ((uint32_t) SBOX2((I0 >> 16) & 0xFF) << 16) |
 1434              		.loc 1 310 0
 1435 0056 1343     		orrs	r3, r3, r2
 1436 0058 7B61     		str	r3, [r7, #20]
 314:C:/Users/dtjld/workspace/AIoT/src/LiteOS_Lab/iot_link/network/dtls/mbedtls/mbedtls-2.16.2/library\camellia.c ****     I1 = ((uint32_t) SBOX2((I1 >> 24) & 0xFF) << 24) |
 1437              		.loc 1 314 0
 1438 005a 3B69     		ldr	r3, [r7, #16]
 1439 005c 1B0E     		lsrs	r3, r3, #24
 1440 005e 224A     		ldr	r2, .L2+4
 1441 0060 D35C     		ldrb	r3, [r2, r3]	@ zero_extendqisi2
 1442 0062 1A06     		lsls	r2, r3, #24
 315:C:/Users/dtjld/workspace/AIoT/src/LiteOS_Lab/iot_link/network/dtls/mbedtls/mbedtls-2.16.2/library\camellia.c ****          ((uint32_t) SBOX3((I1 >> 16) & 0xFF) << 16) |
 1443              		.loc 1 315 0
 1444 0064 3B69     		ldr	r3, [r7, #16]
 1445 0066 1B0C     		lsrs	r3, r3, #16
 1446 0068 DBB2     		uxtb	r3, r3
 1447 006a 2049     		ldr	r1, .L2+8
 1448 006c CB5C     		ldrb	r3, [r1, r3]	@ zero_extendqisi2
 1449 006e 1B04     		lsls	r3, r3, #16
 314:C:/Users/dtjld/workspace/AIoT/src/LiteOS_Lab/iot_link/network/dtls/mbedtls/mbedtls-2.16.2/library\camellia.c ****     I1 = ((uint32_t) SBOX2((I1 >> 24) & 0xFF) << 24) |
 1450              		.loc 1 314 0
 1451 0070 1A43     		orrs	r2, r2, r3
 316:C:/Users/dtjld/workspace/AIoT/src/LiteOS_Lab/iot_link/network/dtls/mbedtls/mbedtls-2.16.2/library\camellia.c ****          ((uint32_t) SBOX4((I1 >>  8) & 0xFF) <<  8) |
 1452              		.loc 1 316 0
 1453 0072 3B69     		ldr	r3, [r7, #16]
 1454 0074 1B0A     		lsrs	r3, r3, #8
 1455 0076 DBB2     		uxtb	r3, r3
 1456 0078 1D49     		ldr	r1, .L2+12
 1457 007a CB5C     		ldrb	r3, [r1, r3]	@ zero_extendqisi2
 1458 007c 1B02     		lsls	r3, r3, #8
 315:C:/Users/dtjld/workspace/AIoT/src/LiteOS_Lab/iot_link/network/dtls/mbedtls/mbedtls-2.16.2/library\camellia.c ****          ((uint32_t) SBOX3((I1 >> 16) & 0xFF) << 16) |
 1459              		.loc 1 315 0
 1460 007e 1343     		orrs	r3, r3, r2
 317:C:/Users/dtjld/workspace/AIoT/src/LiteOS_Lab/iot_link/network/dtls/mbedtls/mbedtls-2.16.2/library\camellia.c ****          ((uint32_t) SBOX1((I1      ) & 0xFF)      );
 1461              		.loc 1 317 0
 1462 0080 3A69     		ldr	r2, [r7, #16]
ARM GAS  C:\Users\dtjld\AppData\Local\Temp\ccRGkA1L.s 			page 32


 1463 0082 D2B2     		uxtb	r2, r2
 1464 0084 1749     		ldr	r1, .L2
 1465 0086 8A5C     		ldrb	r2, [r1, r2]	@ zero_extendqisi2
 314:C:/Users/dtjld/workspace/AIoT/src/LiteOS_Lab/iot_link/network/dtls/mbedtls/mbedtls-2.16.2/library\camellia.c ****          ((uint32_t) SBOX3((I1 >> 16) & 0xFF) << 16) |
 1466              		.loc 1 314 0
 1467 0088 1343     		orrs	r3, r3, r2
 1468 008a 3B61     		str	r3, [r7, #16]
 318:C:/Users/dtjld/workspace/AIoT/src/LiteOS_Lab/iot_link/network/dtls/mbedtls/mbedtls-2.16.2/library\camellia.c **** 
 319:C:/Users/dtjld/workspace/AIoT/src/LiteOS_Lab/iot_link/network/dtls/mbedtls/mbedtls-2.16.2/library\camellia.c ****     I0 ^= (I1 << 8) | (I1 >> 24);
 1469              		.loc 1 319 0
 1470 008c 3B69     		ldr	r3, [r7, #16]
 1471 008e 4FEA3363 		ror	r3, r3, #24
 1472 0092 7A69     		ldr	r2, [r7, #20]
 1473 0094 5340     		eors	r3, r3, r2
 1474 0096 7B61     		str	r3, [r7, #20]
 320:C:/Users/dtjld/workspace/AIoT/src/LiteOS_Lab/iot_link/network/dtls/mbedtls/mbedtls-2.16.2/library\camellia.c ****     I1 ^= (I0 << 16) | (I0 >> 16);
 1475              		.loc 1 320 0
 1476 0098 7B69     		ldr	r3, [r7, #20]
 1477 009a 4FEA3343 		ror	r3, r3, #16
 1478 009e 3A69     		ldr	r2, [r7, #16]
 1479 00a0 5340     		eors	r3, r3, r2
 1480 00a2 3B61     		str	r3, [r7, #16]
 321:C:/Users/dtjld/workspace/AIoT/src/LiteOS_Lab/iot_link/network/dtls/mbedtls/mbedtls-2.16.2/library\camellia.c ****     I0 ^= (I1 >> 8) | (I1 << 24);
 1481              		.loc 1 321 0
 1482 00a4 3B69     		ldr	r3, [r7, #16]
 1483 00a6 4FEA3323 		ror	r3, r3, #8
 1484 00aa 7A69     		ldr	r2, [r7, #20]
 1485 00ac 5340     		eors	r3, r3, r2
 1486 00ae 7B61     		str	r3, [r7, #20]
 322:C:/Users/dtjld/workspace/AIoT/src/LiteOS_Lab/iot_link/network/dtls/mbedtls/mbedtls-2.16.2/library\camellia.c ****     I1 ^= (I0 >> 8) | (I0 << 24);
 1487              		.loc 1 322 0
 1488 00b0 7B69     		ldr	r3, [r7, #20]
 1489 00b2 4FEA3323 		ror	r3, r3, #8
 1490 00b6 3A69     		ldr	r2, [r7, #16]
 1491 00b8 5340     		eors	r3, r3, r2
 1492 00ba 3B61     		str	r3, [r7, #16]
 323:C:/Users/dtjld/workspace/AIoT/src/LiteOS_Lab/iot_link/network/dtls/mbedtls/mbedtls-2.16.2/library\camellia.c **** 
 324:C:/Users/dtjld/workspace/AIoT/src/LiteOS_Lab/iot_link/network/dtls/mbedtls/mbedtls-2.16.2/library\camellia.c ****     z[0] ^= I1;
 1493              		.loc 1 324 0
 1494 00bc 7B68     		ldr	r3, [r7, #4]
 1495 00be 1A68     		ldr	r2, [r3]
 1496 00c0 3B69     		ldr	r3, [r7, #16]
 1497 00c2 5A40     		eors	r2, r2, r3
 1498 00c4 7B68     		ldr	r3, [r7, #4]
 1499 00c6 1A60     		str	r2, [r3]
 325:C:/Users/dtjld/workspace/AIoT/src/LiteOS_Lab/iot_link/network/dtls/mbedtls/mbedtls-2.16.2/library\camellia.c ****     z[1] ^= I0;
 1500              		.loc 1 325 0
 1501 00c8 7B68     		ldr	r3, [r7, #4]
 1502 00ca 0433     		adds	r3, r3, #4
 1503 00cc 1968     		ldr	r1, [r3]
 1504 00ce 7B68     		ldr	r3, [r7, #4]
 1505 00d0 0433     		adds	r3, r3, #4
 1506 00d2 7A69     		ldr	r2, [r7, #20]
 1507 00d4 4A40     		eors	r2, r2, r1
 1508 00d6 1A60     		str	r2, [r3]
 326:C:/Users/dtjld/workspace/AIoT/src/LiteOS_Lab/iot_link/network/dtls/mbedtls/mbedtls-2.16.2/library\camellia.c **** }
 1509              		.loc 1 326 0
ARM GAS  C:\Users\dtjld\AppData\Local\Temp\ccRGkA1L.s 			page 33


 1510 00d8 00BF     		nop
 1511 00da 1C37     		adds	r7, r7, #28
 1512              	.LCFI3:
 1513              		.cfi_def_cfa_offset 4
 1514 00dc BD46     		mov	sp, r7
 1515              	.LCFI4:
 1516              		.cfi_def_cfa_register 13
 1517              		@ sp needed
 1518 00de 5DF8047B 		ldr	r7, [sp], #4
 1519              	.LCFI5:
 1520              		.cfi_restore 7
 1521              		.cfi_def_cfa_offset 0
 1522 00e2 7047     		bx	lr
 1523              	.L3:
 1524              		.align	2
 1525              	.L2:
 1526 00e4 00000000 		.word	FSb
 1527 00e8 00000000 		.word	FSb2
 1528 00ec 00000000 		.word	FSb3
 1529 00f0 00000000 		.word	FSb4
 1530              		.cfi_endproc
 1531              	.LFE3:
 1533              		.section	.text.mbedtls_camellia_init,"ax",%progbits
 1534              		.align	1
 1535              		.global	mbedtls_camellia_init
 1536              		.syntax unified
 1537              		.thumb
 1538              		.thumb_func
 1539              		.fpu fpv4-sp-d16
 1541              	mbedtls_camellia_init:
 1542              	.LFB4:
 327:C:/Users/dtjld/workspace/AIoT/src/LiteOS_Lab/iot_link/network/dtls/mbedtls/mbedtls-2.16.2/library\camellia.c **** 
 328:C:/Users/dtjld/workspace/AIoT/src/LiteOS_Lab/iot_link/network/dtls/mbedtls/mbedtls-2.16.2/library\camellia.c **** void mbedtls_camellia_init( mbedtls_camellia_context *ctx )
 329:C:/Users/dtjld/workspace/AIoT/src/LiteOS_Lab/iot_link/network/dtls/mbedtls/mbedtls-2.16.2/library\camellia.c **** {
 1543              		.loc 1 329 0
 1544              		.cfi_startproc
 1545              		@ args = 0, pretend = 0, frame = 8
 1546              		@ frame_needed = 1, uses_anonymous_args = 0
 1547 0000 80B5     		push	{r7, lr}
 1548              	.LCFI6:
 1549              		.cfi_def_cfa_offset 8
 1550              		.cfi_offset 7, -8
 1551              		.cfi_offset 14, -4
 1552 0002 82B0     		sub	sp, sp, #8
 1553              	.LCFI7:
 1554              		.cfi_def_cfa_offset 16
 1555 0004 00AF     		add	r7, sp, #0
 1556              	.LCFI8:
 1557              		.cfi_def_cfa_register 7
 1558 0006 7860     		str	r0, [r7, #4]
 330:C:/Users/dtjld/workspace/AIoT/src/LiteOS_Lab/iot_link/network/dtls/mbedtls/mbedtls-2.16.2/library\camellia.c ****     CAMELLIA_VALIDATE( ctx != NULL );
 331:C:/Users/dtjld/workspace/AIoT/src/LiteOS_Lab/iot_link/network/dtls/mbedtls/mbedtls-2.16.2/library\camellia.c ****     memset( ctx, 0, sizeof( mbedtls_camellia_context ) );
 1559              		.loc 1 331 0
 1560 0008 4FF48A72 		mov	r2, #276
 1561 000c 0021     		movs	r1, #0
 1562 000e 7868     		ldr	r0, [r7, #4]
 1563 0010 FFF7FEFF 		bl	memset
ARM GAS  C:\Users\dtjld\AppData\Local\Temp\ccRGkA1L.s 			page 34


 332:C:/Users/dtjld/workspace/AIoT/src/LiteOS_Lab/iot_link/network/dtls/mbedtls/mbedtls-2.16.2/library\camellia.c **** }
 1564              		.loc 1 332 0
 1565 0014 00BF     		nop
 1566 0016 0837     		adds	r7, r7, #8
 1567              	.LCFI9:
 1568              		.cfi_def_cfa_offset 8
 1569 0018 BD46     		mov	sp, r7
 1570              	.LCFI10:
 1571              		.cfi_def_cfa_register 13
 1572              		@ sp needed
 1573 001a 80BD     		pop	{r7, pc}
 1574              		.cfi_endproc
 1575              	.LFE4:
 1577              		.section	.text.mbedtls_camellia_free,"ax",%progbits
 1578              		.align	1
 1579              		.global	mbedtls_camellia_free
 1580              		.syntax unified
 1581              		.thumb
 1582              		.thumb_func
 1583              		.fpu fpv4-sp-d16
 1585              	mbedtls_camellia_free:
 1586              	.LFB5:
 333:C:/Users/dtjld/workspace/AIoT/src/LiteOS_Lab/iot_link/network/dtls/mbedtls/mbedtls-2.16.2/library\camellia.c **** 
 334:C:/Users/dtjld/workspace/AIoT/src/LiteOS_Lab/iot_link/network/dtls/mbedtls/mbedtls-2.16.2/library\camellia.c **** void mbedtls_camellia_free( mbedtls_camellia_context *ctx )
 335:C:/Users/dtjld/workspace/AIoT/src/LiteOS_Lab/iot_link/network/dtls/mbedtls/mbedtls-2.16.2/library\camellia.c **** {
 1587              		.loc 1 335 0
 1588              		.cfi_startproc
 1589              		@ args = 0, pretend = 0, frame = 8
 1590              		@ frame_needed = 1, uses_anonymous_args = 0
 1591 0000 80B5     		push	{r7, lr}
 1592              	.LCFI11:
 1593              		.cfi_def_cfa_offset 8
 1594              		.cfi_offset 7, -8
 1595              		.cfi_offset 14, -4
 1596 0002 82B0     		sub	sp, sp, #8
 1597              	.LCFI12:
 1598              		.cfi_def_cfa_offset 16
 1599 0004 00AF     		add	r7, sp, #0
 1600              	.LCFI13:
 1601              		.cfi_def_cfa_register 7
 1602 0006 7860     		str	r0, [r7, #4]
 336:C:/Users/dtjld/workspace/AIoT/src/LiteOS_Lab/iot_link/network/dtls/mbedtls/mbedtls-2.16.2/library\camellia.c ****     if( ctx == NULL )
 1603              		.loc 1 336 0
 1604 0008 7B68     		ldr	r3, [r7, #4]
 1605 000a 002B     		cmp	r3, #0
 1606 000c 05D0     		beq	.L8
 337:C:/Users/dtjld/workspace/AIoT/src/LiteOS_Lab/iot_link/network/dtls/mbedtls/mbedtls-2.16.2/library\camellia.c ****         return;
 338:C:/Users/dtjld/workspace/AIoT/src/LiteOS_Lab/iot_link/network/dtls/mbedtls/mbedtls-2.16.2/library\camellia.c **** 
 339:C:/Users/dtjld/workspace/AIoT/src/LiteOS_Lab/iot_link/network/dtls/mbedtls/mbedtls-2.16.2/library\camellia.c ****     mbedtls_platform_zeroize( ctx, sizeof( mbedtls_camellia_context ) );
 1607              		.loc 1 339 0
 1608 000e 4FF48A71 		mov	r1, #276
 1609 0012 7868     		ldr	r0, [r7, #4]
 1610 0014 FFF7FEFF 		bl	mbedtls_platform_zeroize
 1611 0018 00E0     		b	.L5
 1612              	.L8:
 337:C:/Users/dtjld/workspace/AIoT/src/LiteOS_Lab/iot_link/network/dtls/mbedtls/mbedtls-2.16.2/library\camellia.c ****         return;
 1613              		.loc 1 337 0
ARM GAS  C:\Users\dtjld\AppData\Local\Temp\ccRGkA1L.s 			page 35


 1614 001a 00BF     		nop
 1615              	.L5:
 340:C:/Users/dtjld/workspace/AIoT/src/LiteOS_Lab/iot_link/network/dtls/mbedtls/mbedtls-2.16.2/library\camellia.c **** }
 1616              		.loc 1 340 0
 1617 001c 0837     		adds	r7, r7, #8
 1618              	.LCFI14:
 1619              		.cfi_def_cfa_offset 8
 1620 001e BD46     		mov	sp, r7
 1621              	.LCFI15:
 1622              		.cfi_def_cfa_register 13
 1623              		@ sp needed
 1624 0020 80BD     		pop	{r7, pc}
 1625              		.cfi_endproc
 1626              	.LFE5:
 1628              		.section	.text.mbedtls_camellia_setkey_enc,"ax",%progbits
 1629              		.align	1
 1630              		.global	mbedtls_camellia_setkey_enc
 1631              		.syntax unified
 1632              		.thumb
 1633              		.thumb_func
 1634              		.fpu fpv4-sp-d16
 1636              	mbedtls_camellia_setkey_enc:
 1637              	.LFB6:
 341:C:/Users/dtjld/workspace/AIoT/src/LiteOS_Lab/iot_link/network/dtls/mbedtls/mbedtls-2.16.2/library\camellia.c **** 
 342:C:/Users/dtjld/workspace/AIoT/src/LiteOS_Lab/iot_link/network/dtls/mbedtls/mbedtls-2.16.2/library\camellia.c **** /*
 343:C:/Users/dtjld/workspace/AIoT/src/LiteOS_Lab/iot_link/network/dtls/mbedtls/mbedtls-2.16.2/library\camellia.c ****  * Camellia key schedule (encryption)
 344:C:/Users/dtjld/workspace/AIoT/src/LiteOS_Lab/iot_link/network/dtls/mbedtls/mbedtls-2.16.2/library\camellia.c ****  */
 345:C:/Users/dtjld/workspace/AIoT/src/LiteOS_Lab/iot_link/network/dtls/mbedtls/mbedtls-2.16.2/library\camellia.c **** int mbedtls_camellia_setkey_enc( mbedtls_camellia_context *ctx,
 346:C:/Users/dtjld/workspace/AIoT/src/LiteOS_Lab/iot_link/network/dtls/mbedtls/mbedtls-2.16.2/library\camellia.c ****                                  const unsigned char *key,
 347:C:/Users/dtjld/workspace/AIoT/src/LiteOS_Lab/iot_link/network/dtls/mbedtls/mbedtls-2.16.2/library\camellia.c ****                                  unsigned int keybits )
 348:C:/Users/dtjld/workspace/AIoT/src/LiteOS_Lab/iot_link/network/dtls/mbedtls/mbedtls-2.16.2/library\camellia.c **** {
 1638              		.loc 1 348 0
 1639              		.cfi_startproc
 1640              		@ args = 0, pretend = 0, frame = 288
 1641              		@ frame_needed = 1, uses_anonymous_args = 0
 1642 0000 80B5     		push	{r7, lr}
 1643              	.LCFI16:
 1644              		.cfi_def_cfa_offset 8
 1645              		.cfi_offset 7, -8
 1646              		.cfi_offset 14, -4
 1647 0002 C8B0     		sub	sp, sp, #288
 1648              	.LCFI17:
 1649              		.cfi_def_cfa_offset 296
 1650 0004 00AF     		add	r7, sp, #0
 1651              	.LCFI18:
 1652              		.cfi_def_cfa_register 7
 1653 0006 07F10C03 		add	r3, r7, #12
 1654 000a 1860     		str	r0, [r3]
 1655 000c 07F10803 		add	r3, r7, #8
 1656 0010 1960     		str	r1, [r3]
 1657 0012 3B1D     		adds	r3, r7, #4
 1658 0014 1A60     		str	r2, [r3]
 349:C:/Users/dtjld/workspace/AIoT/src/LiteOS_Lab/iot_link/network/dtls/mbedtls/mbedtls-2.16.2/library\camellia.c ****     int idx;
 350:C:/Users/dtjld/workspace/AIoT/src/LiteOS_Lab/iot_link/network/dtls/mbedtls/mbedtls-2.16.2/library\camellia.c ****     size_t i;
 351:C:/Users/dtjld/workspace/AIoT/src/LiteOS_Lab/iot_link/network/dtls/mbedtls/mbedtls-2.16.2/library\camellia.c ****     uint32_t *RK;
 352:C:/Users/dtjld/workspace/AIoT/src/LiteOS_Lab/iot_link/network/dtls/mbedtls/mbedtls-2.16.2/library\camellia.c ****     unsigned char t[64];
 353:C:/Users/dtjld/workspace/AIoT/src/LiteOS_Lab/iot_link/network/dtls/mbedtls/mbedtls-2.16.2/library\camellia.c ****     uint32_t SIGMA[6][2];
ARM GAS  C:\Users\dtjld\AppData\Local\Temp\ccRGkA1L.s 			page 36


 354:C:/Users/dtjld/workspace/AIoT/src/LiteOS_Lab/iot_link/network/dtls/mbedtls/mbedtls-2.16.2/library\camellia.c ****     uint32_t KC[16];
 355:C:/Users/dtjld/workspace/AIoT/src/LiteOS_Lab/iot_link/network/dtls/mbedtls/mbedtls-2.16.2/library\camellia.c ****     uint32_t TK[20];
 356:C:/Users/dtjld/workspace/AIoT/src/LiteOS_Lab/iot_link/network/dtls/mbedtls/mbedtls-2.16.2/library\camellia.c **** 
 357:C:/Users/dtjld/workspace/AIoT/src/LiteOS_Lab/iot_link/network/dtls/mbedtls/mbedtls-2.16.2/library\camellia.c ****     CAMELLIA_VALIDATE_RET( ctx != NULL );
 358:C:/Users/dtjld/workspace/AIoT/src/LiteOS_Lab/iot_link/network/dtls/mbedtls/mbedtls-2.16.2/library\camellia.c ****     CAMELLIA_VALIDATE_RET( key != NULL );
 359:C:/Users/dtjld/workspace/AIoT/src/LiteOS_Lab/iot_link/network/dtls/mbedtls/mbedtls-2.16.2/library\camellia.c **** 
 360:C:/Users/dtjld/workspace/AIoT/src/LiteOS_Lab/iot_link/network/dtls/mbedtls/mbedtls-2.16.2/library\camellia.c ****     RK = ctx->rk;
 1659              		.loc 1 360 0
 1660 0016 07F10C03 		add	r3, r7, #12
 1661 001a 1B68     		ldr	r3, [r3]
 1662 001c 0433     		adds	r3, r3, #4
 1663 001e C7F81431 		str	r3, [r7, #276]
 361:C:/Users/dtjld/workspace/AIoT/src/LiteOS_Lab/iot_link/network/dtls/mbedtls/mbedtls-2.16.2/library\camellia.c **** 
 362:C:/Users/dtjld/workspace/AIoT/src/LiteOS_Lab/iot_link/network/dtls/mbedtls/mbedtls-2.16.2/library\camellia.c ****     memset( t, 0, 64 );
 1664              		.loc 1 362 0
 1665 0022 07F1D403 		add	r3, r7, #212
 1666 0026 4022     		movs	r2, #64
 1667 0028 0021     		movs	r1, #0
 1668 002a 1846     		mov	r0, r3
 1669 002c FFF7FEFF 		bl	memset
 363:C:/Users/dtjld/workspace/AIoT/src/LiteOS_Lab/iot_link/network/dtls/mbedtls/mbedtls-2.16.2/library\camellia.c ****     memset( RK, 0, sizeof(ctx->rk) );
 1670              		.loc 1 363 0
 1671 0030 4FF48872 		mov	r2, #272
 1672 0034 0021     		movs	r1, #0
 1673 0036 D7F81401 		ldr	r0, [r7, #276]
 1674 003a FFF7FEFF 		bl	memset
 364:C:/Users/dtjld/workspace/AIoT/src/LiteOS_Lab/iot_link/network/dtls/mbedtls/mbedtls-2.16.2/library\camellia.c **** 
 365:C:/Users/dtjld/workspace/AIoT/src/LiteOS_Lab/iot_link/network/dtls/mbedtls/mbedtls-2.16.2/library\camellia.c ****     switch( keybits )
 1675              		.loc 1 365 0
 1676 003e 3B1D     		adds	r3, r7, #4
 1677 0040 1B68     		ldr	r3, [r3]
 1678 0042 C02B     		cmp	r3, #192
 1679 0044 0DD0     		beq	.L11
 1680 0046 B3F5807F 		cmp	r3, #256
 1681 004a 0AD0     		beq	.L11
 1682 004c 802B     		cmp	r3, #128
 1683 004e 11D1     		bne	.L61
 366:C:/Users/dtjld/workspace/AIoT/src/LiteOS_Lab/iot_link/network/dtls/mbedtls/mbedtls-2.16.2/library\camellia.c ****     {
 367:C:/Users/dtjld/workspace/AIoT/src/LiteOS_Lab/iot_link/network/dtls/mbedtls/mbedtls-2.16.2/library\camellia.c ****         case 128: ctx->nr = 3; idx = 0; break;
 1684              		.loc 1 367 0
 1685 0050 07F10C03 		add	r3, r7, #12
 1686 0054 1B68     		ldr	r3, [r3]
 1687 0056 0322     		movs	r2, #3
 1688 0058 1A60     		str	r2, [r3]
 1689 005a 0023     		movs	r3, #0
 1690 005c C7F81C31 		str	r3, [r7, #284]
 1691 0060 0CE0     		b	.L13
 1692              	.L11:
 368:C:/Users/dtjld/workspace/AIoT/src/LiteOS_Lab/iot_link/network/dtls/mbedtls/mbedtls-2.16.2/library\camellia.c ****         case 192:
 369:C:/Users/dtjld/workspace/AIoT/src/LiteOS_Lab/iot_link/network/dtls/mbedtls/mbedtls-2.16.2/library\camellia.c ****         case 256: ctx->nr = 4; idx = 1; break;
 1693              		.loc 1 369 0
 1694 0062 07F10C03 		add	r3, r7, #12
 1695 0066 1B68     		ldr	r3, [r3]
 1696 0068 0422     		movs	r2, #4
 1697 006a 1A60     		str	r2, [r3]
 1698 006c 0123     		movs	r3, #1
 1699 006e C7F81C31 		str	r3, [r7, #284]
ARM GAS  C:\Users\dtjld\AppData\Local\Temp\ccRGkA1L.s 			page 37


 1700 0072 03E0     		b	.L13
 1701              	.L61:
 370:C:/Users/dtjld/workspace/AIoT/src/LiteOS_Lab/iot_link/network/dtls/mbedtls/mbedtls-2.16.2/library\camellia.c ****         default : return( MBEDTLS_ERR_CAMELLIA_BAD_INPUT_DATA );
 1702              		.loc 1 370 0
 1703 0074 6FF02303 		mvn	r3, #35
 1704 0078 00F0A4BD 		b	.L60
 1705              	.L13:
 371:C:/Users/dtjld/workspace/AIoT/src/LiteOS_Lab/iot_link/network/dtls/mbedtls/mbedtls-2.16.2/library\camellia.c ****     }
 372:C:/Users/dtjld/workspace/AIoT/src/LiteOS_Lab/iot_link/network/dtls/mbedtls/mbedtls-2.16.2/library\camellia.c **** 
 373:C:/Users/dtjld/workspace/AIoT/src/LiteOS_Lab/iot_link/network/dtls/mbedtls/mbedtls-2.16.2/library\camellia.c ****     for( i = 0; i < keybits / 8; ++i )
 1706              		.loc 1 373 0
 1707 007c 0023     		movs	r3, #0
 1708 007e C7F81831 		str	r3, [r7, #280]
 1709 0082 12E0     		b	.L15
 1710              	.L16:
 374:C:/Users/dtjld/workspace/AIoT/src/LiteOS_Lab/iot_link/network/dtls/mbedtls/mbedtls-2.16.2/library\camellia.c ****         t[i] = key[i];
 1711              		.loc 1 374 0 discriminator 3
 1712 0084 07F10803 		add	r3, r7, #8
 1713 0088 1A68     		ldr	r2, [r3]
 1714 008a D7F81831 		ldr	r3, [r7, #280]
 1715 008e 1344     		add	r3, r3, r2
 1716 0090 1978     		ldrb	r1, [r3]	@ zero_extendqisi2
 1717 0092 07F1D402 		add	r2, r7, #212
 1718 0096 D7F81831 		ldr	r3, [r7, #280]
 1719 009a 1344     		add	r3, r3, r2
 1720 009c 0A46     		mov	r2, r1
 1721 009e 1A70     		strb	r2, [r3]
 373:C:/Users/dtjld/workspace/AIoT/src/LiteOS_Lab/iot_link/network/dtls/mbedtls/mbedtls-2.16.2/library\camellia.c ****         t[i] = key[i];
 1722              		.loc 1 373 0 discriminator 3
 1723 00a0 D7F81831 		ldr	r3, [r7, #280]
 1724 00a4 0133     		adds	r3, r3, #1
 1725 00a6 C7F81831 		str	r3, [r7, #280]
 1726              	.L15:
 373:C:/Users/dtjld/workspace/AIoT/src/LiteOS_Lab/iot_link/network/dtls/mbedtls/mbedtls-2.16.2/library\camellia.c ****         t[i] = key[i];
 1727              		.loc 1 373 0 is_stmt 0 discriminator 1
 1728 00aa 3B1D     		adds	r3, r7, #4
 1729 00ac 1B68     		ldr	r3, [r3]
 1730 00ae DB08     		lsrs	r3, r3, #3
 1731 00b0 D7F81821 		ldr	r2, [r7, #280]
 1732 00b4 9A42     		cmp	r2, r3
 1733 00b6 E5D3     		bcc	.L16
 375:C:/Users/dtjld/workspace/AIoT/src/LiteOS_Lab/iot_link/network/dtls/mbedtls/mbedtls-2.16.2/library\camellia.c **** 
 376:C:/Users/dtjld/workspace/AIoT/src/LiteOS_Lab/iot_link/network/dtls/mbedtls/mbedtls-2.16.2/library\camellia.c ****     if( keybits == 192 ) {
 1734              		.loc 1 376 0 is_stmt 1
 1735 00b8 3B1D     		adds	r3, r7, #4
 1736 00ba 1B68     		ldr	r3, [r3]
 1737 00bc C02B     		cmp	r3, #192
 1738 00be 1ED1     		bne	.L17
 377:C:/Users/dtjld/workspace/AIoT/src/LiteOS_Lab/iot_link/network/dtls/mbedtls/mbedtls-2.16.2/library\camellia.c ****         for( i = 0; i < 8; i++ )
 1739              		.loc 1 377 0
 1740 00c0 0023     		movs	r3, #0
 1741 00c2 C7F81831 		str	r3, [r7, #280]
 1742 00c6 16E0     		b	.L18
 1743              	.L19:
 378:C:/Users/dtjld/workspace/AIoT/src/LiteOS_Lab/iot_link/network/dtls/mbedtls/mbedtls-2.16.2/library\camellia.c ****             t[24 + i] = ~t[16 + i];
 1744              		.loc 1 378 0 discriminator 3
 1745 00c8 D7F81831 		ldr	r3, [r7, #280]
ARM GAS  C:\Users\dtjld\AppData\Local\Temp\ccRGkA1L.s 			page 38


 1746 00cc 1033     		adds	r3, r3, #16
 1747 00ce 07F59072 		add	r2, r7, #288
 1748 00d2 1344     		add	r3, r3, r2
 1749 00d4 13F84C2C 		ldrb	r2, [r3, #-76]	@ zero_extendqisi2
 1750 00d8 D7F81831 		ldr	r3, [r7, #280]
 1751 00dc 1833     		adds	r3, r3, #24
 1752 00de D243     		mvns	r2, r2
 1753 00e0 D2B2     		uxtb	r2, r2
 1754 00e2 07F59071 		add	r1, r7, #288
 1755 00e6 0B44     		add	r3, r3, r1
 1756 00e8 03F84C2C 		strb	r2, [r3, #-76]
 377:C:/Users/dtjld/workspace/AIoT/src/LiteOS_Lab/iot_link/network/dtls/mbedtls/mbedtls-2.16.2/library\camellia.c ****         for( i = 0; i < 8; i++ )
 1757              		.loc 1 377 0 discriminator 3
 1758 00ec D7F81831 		ldr	r3, [r7, #280]
 1759 00f0 0133     		adds	r3, r3, #1
 1760 00f2 C7F81831 		str	r3, [r7, #280]
 1761              	.L18:
 377:C:/Users/dtjld/workspace/AIoT/src/LiteOS_Lab/iot_link/network/dtls/mbedtls/mbedtls-2.16.2/library\camellia.c ****         for( i = 0; i < 8; i++ )
 1762              		.loc 1 377 0 is_stmt 0 discriminator 1
 1763 00f6 D7F81831 		ldr	r3, [r7, #280]
 1764 00fa 072B     		cmp	r3, #7
 1765 00fc E4D9     		bls	.L19
 1766              	.L17:
 379:C:/Users/dtjld/workspace/AIoT/src/LiteOS_Lab/iot_link/network/dtls/mbedtls/mbedtls-2.16.2/library\camellia.c ****     }
 380:C:/Users/dtjld/workspace/AIoT/src/LiteOS_Lab/iot_link/network/dtls/mbedtls/mbedtls-2.16.2/library\camellia.c **** 
 381:C:/Users/dtjld/workspace/AIoT/src/LiteOS_Lab/iot_link/network/dtls/mbedtls/mbedtls-2.16.2/library\camellia.c ****     /*
 382:C:/Users/dtjld/workspace/AIoT/src/LiteOS_Lab/iot_link/network/dtls/mbedtls/mbedtls-2.16.2/library\camellia.c ****      * Prepare SIGMA values
 383:C:/Users/dtjld/workspace/AIoT/src/LiteOS_Lab/iot_link/network/dtls/mbedtls/mbedtls-2.16.2/library\camellia.c ****      */
 384:C:/Users/dtjld/workspace/AIoT/src/LiteOS_Lab/iot_link/network/dtls/mbedtls/mbedtls-2.16.2/library\camellia.c ****     for( i = 0; i < 6; i++ ) {
 1767              		.loc 1 384 0 is_stmt 1
 1768 00fe 0023     		movs	r3, #0
 1769 0100 C7F81831 		str	r3, [r7, #280]
 1770 0104 4FE0     		b	.L20
 1771              	.L21:
 385:C:/Users/dtjld/workspace/AIoT/src/LiteOS_Lab/iot_link/network/dtls/mbedtls/mbedtls-2.16.2/library\camellia.c ****         GET_UINT32_BE( SIGMA[i][0], SIGMA_CHARS[i], 0 );
 1772              		.loc 1 385 0 discriminator 3
 1773 0106 B84A     		ldr	r2, .L62
 1774 0108 D7F81831 		ldr	r3, [r7, #280]
 1775 010c 12F83330 		ldrb	r3, [r2, r3, lsl #3]	@ zero_extendqisi2
 1776 0110 1A06     		lsls	r2, r3, #24
 1777 0112 B549     		ldr	r1, .L62
 1778 0114 D7F81831 		ldr	r3, [r7, #280]
 1779 0118 DB00     		lsls	r3, r3, #3
 1780 011a 0B44     		add	r3, r3, r1
 1781 011c 5B78     		ldrb	r3, [r3, #1]	@ zero_extendqisi2
 1782 011e 1B04     		lsls	r3, r3, #16
 1783 0120 1A43     		orrs	r2, r2, r3
 1784 0122 B149     		ldr	r1, .L62
 1785 0124 D7F81831 		ldr	r3, [r7, #280]
 1786 0128 DB00     		lsls	r3, r3, #3
 1787 012a 0B44     		add	r3, r3, r1
 1788 012c 9B78     		ldrb	r3, [r3, #2]	@ zero_extendqisi2
 1789 012e 1B02     		lsls	r3, r3, #8
 1790 0130 1A43     		orrs	r2, r2, r3
 1791 0132 AD49     		ldr	r1, .L62
 1792 0134 D7F81831 		ldr	r3, [r7, #280]
 1793 0138 DB00     		lsls	r3, r3, #3
ARM GAS  C:\Users\dtjld\AppData\Local\Temp\ccRGkA1L.s 			page 39


 1794 013a 0B44     		add	r3, r3, r1
 1795 013c DB78     		ldrb	r3, [r3, #3]	@ zero_extendqisi2
 1796 013e 1A43     		orrs	r2, r2, r3
 1797 0140 D7F81831 		ldr	r3, [r7, #280]
 1798 0144 DB00     		lsls	r3, r3, #3
 1799 0146 07F59071 		add	r1, r7, #288
 1800 014a 0B44     		add	r3, r3, r1
 1801 014c 43F87C2C 		str	r2, [r3, #-124]
 386:C:/Users/dtjld/workspace/AIoT/src/LiteOS_Lab/iot_link/network/dtls/mbedtls/mbedtls-2.16.2/library\camellia.c ****         GET_UINT32_BE( SIGMA[i][1], SIGMA_CHARS[i], 4 );
 1802              		.loc 1 386 0 discriminator 3
 1803 0150 A54A     		ldr	r2, .L62
 1804 0152 D7F81831 		ldr	r3, [r7, #280]
 1805 0156 DB00     		lsls	r3, r3, #3
 1806 0158 1344     		add	r3, r3, r2
 1807 015a 1B79     		ldrb	r3, [r3, #4]	@ zero_extendqisi2
 1808 015c 1A06     		lsls	r2, r3, #24
 1809 015e A249     		ldr	r1, .L62
 1810 0160 D7F81831 		ldr	r3, [r7, #280]
 1811 0164 DB00     		lsls	r3, r3, #3
 1812 0166 0B44     		add	r3, r3, r1
 1813 0168 5B79     		ldrb	r3, [r3, #5]	@ zero_extendqisi2
 1814 016a 1B04     		lsls	r3, r3, #16
 1815 016c 1A43     		orrs	r2, r2, r3
 1816 016e 9E49     		ldr	r1, .L62
 1817 0170 D7F81831 		ldr	r3, [r7, #280]
 1818 0174 DB00     		lsls	r3, r3, #3
 1819 0176 0B44     		add	r3, r3, r1
 1820 0178 9B79     		ldrb	r3, [r3, #6]	@ zero_extendqisi2
 1821 017a 1B02     		lsls	r3, r3, #8
 1822 017c 1A43     		orrs	r2, r2, r3
 1823 017e 9A49     		ldr	r1, .L62
 1824 0180 D7F81831 		ldr	r3, [r7, #280]
 1825 0184 DB00     		lsls	r3, r3, #3
 1826 0186 0B44     		add	r3, r3, r1
 1827 0188 DB79     		ldrb	r3, [r3, #7]	@ zero_extendqisi2
 1828 018a 1A43     		orrs	r2, r2, r3
 1829 018c D7F81831 		ldr	r3, [r7, #280]
 1830 0190 DB00     		lsls	r3, r3, #3
 1831 0192 07F59071 		add	r1, r7, #288
 1832 0196 0B44     		add	r3, r3, r1
 1833 0198 43F8782C 		str	r2, [r3, #-120]
 384:C:/Users/dtjld/workspace/AIoT/src/LiteOS_Lab/iot_link/network/dtls/mbedtls/mbedtls-2.16.2/library\camellia.c ****         GET_UINT32_BE( SIGMA[i][0], SIGMA_CHARS[i], 0 );
 1834              		.loc 1 384 0 discriminator 3
 1835 019c D7F81831 		ldr	r3, [r7, #280]
 1836 01a0 0133     		adds	r3, r3, #1
 1837 01a2 C7F81831 		str	r3, [r7, #280]
 1838              	.L20:
 384:C:/Users/dtjld/workspace/AIoT/src/LiteOS_Lab/iot_link/network/dtls/mbedtls/mbedtls-2.16.2/library\camellia.c ****         GET_UINT32_BE( SIGMA[i][0], SIGMA_CHARS[i], 0 );
 1839              		.loc 1 384 0 is_stmt 0 discriminator 1
 1840 01a6 D7F81831 		ldr	r3, [r7, #280]
 1841 01aa 052B     		cmp	r3, #5
 1842 01ac ABD9     		bls	.L21
 387:C:/Users/dtjld/workspace/AIoT/src/LiteOS_Lab/iot_link/network/dtls/mbedtls/mbedtls-2.16.2/library\camellia.c ****     }
 388:C:/Users/dtjld/workspace/AIoT/src/LiteOS_Lab/iot_link/network/dtls/mbedtls/mbedtls-2.16.2/library\camellia.c **** 
 389:C:/Users/dtjld/workspace/AIoT/src/LiteOS_Lab/iot_link/network/dtls/mbedtls/mbedtls-2.16.2/library\camellia.c ****     /*
 390:C:/Users/dtjld/workspace/AIoT/src/LiteOS_Lab/iot_link/network/dtls/mbedtls/mbedtls-2.16.2/library\camellia.c ****      * Key storage in KC
 391:C:/Users/dtjld/workspace/AIoT/src/LiteOS_Lab/iot_link/network/dtls/mbedtls/mbedtls-2.16.2/library\camellia.c ****      * Order: KL, KR, KA, KB
ARM GAS  C:\Users\dtjld\AppData\Local\Temp\ccRGkA1L.s 			page 40


 392:C:/Users/dtjld/workspace/AIoT/src/LiteOS_Lab/iot_link/network/dtls/mbedtls/mbedtls-2.16.2/library\camellia.c ****      */
 393:C:/Users/dtjld/workspace/AIoT/src/LiteOS_Lab/iot_link/network/dtls/mbedtls/mbedtls-2.16.2/library\camellia.c ****     memset( KC, 0, sizeof(KC) );
 1843              		.loc 1 393 0 is_stmt 1
 1844 01ae 07F16403 		add	r3, r7, #100
 1845 01b2 4022     		movs	r2, #64
 1846 01b4 0021     		movs	r1, #0
 1847 01b6 1846     		mov	r0, r3
 1848 01b8 FFF7FEFF 		bl	memset
 394:C:/Users/dtjld/workspace/AIoT/src/LiteOS_Lab/iot_link/network/dtls/mbedtls/mbedtls-2.16.2/library\camellia.c **** 
 395:C:/Users/dtjld/workspace/AIoT/src/LiteOS_Lab/iot_link/network/dtls/mbedtls/mbedtls-2.16.2/library\camellia.c ****     /* Store KL, KR */
 396:C:/Users/dtjld/workspace/AIoT/src/LiteOS_Lab/iot_link/network/dtls/mbedtls/mbedtls-2.16.2/library\camellia.c ****     for( i = 0; i < 8; i++ )
 1849              		.loc 1 396 0
 1850 01bc 0023     		movs	r3, #0
 1851 01be C7F81831 		str	r3, [r7, #280]
 1852 01c2 35E0     		b	.L22
 1853              	.L23:
 397:C:/Users/dtjld/workspace/AIoT/src/LiteOS_Lab/iot_link/network/dtls/mbedtls/mbedtls-2.16.2/library\camellia.c ****         GET_UINT32_BE( KC[i], t, i * 4 );
 1854              		.loc 1 397 0 discriminator 3
 1855 01c4 D7F81831 		ldr	r3, [r7, #280]
 1856 01c8 9B00     		lsls	r3, r3, #2
 1857 01ca 07F59072 		add	r2, r7, #288
 1858 01ce 1344     		add	r3, r3, r2
 1859 01d0 13F84C3C 		ldrb	r3, [r3, #-76]	@ zero_extendqisi2
 1860 01d4 1A06     		lsls	r2, r3, #24
 1861 01d6 D7F81831 		ldr	r3, [r7, #280]
 1862 01da 9B00     		lsls	r3, r3, #2
 1863 01dc 0133     		adds	r3, r3, #1
 1864 01de 07F59071 		add	r1, r7, #288
 1865 01e2 0B44     		add	r3, r3, r1
 1866 01e4 13F84C3C 		ldrb	r3, [r3, #-76]	@ zero_extendqisi2
 1867 01e8 1B04     		lsls	r3, r3, #16
 1868 01ea 1A43     		orrs	r2, r2, r3
 1869 01ec D7F81831 		ldr	r3, [r7, #280]
 1870 01f0 9B00     		lsls	r3, r3, #2
 1871 01f2 0233     		adds	r3, r3, #2
 1872 01f4 07F59071 		add	r1, r7, #288
 1873 01f8 0B44     		add	r3, r3, r1
 1874 01fa 13F84C3C 		ldrb	r3, [r3, #-76]	@ zero_extendqisi2
 1875 01fe 1B02     		lsls	r3, r3, #8
 1876 0200 1343     		orrs	r3, r3, r2
 1877 0202 D7F81821 		ldr	r2, [r7, #280]
 1878 0206 9200     		lsls	r2, r2, #2
 1879 0208 0332     		adds	r2, r2, #3
 1880 020a 07F59071 		add	r1, r7, #288
 1881 020e 0A44     		add	r2, r2, r1
 1882 0210 12F84C2C 		ldrb	r2, [r2, #-76]	@ zero_extendqisi2
 1883 0214 1A43     		orrs	r2, r2, r3
 1884 0216 D7F81831 		ldr	r3, [r7, #280]
 1885 021a 9B00     		lsls	r3, r3, #2
 1886 021c 07F59071 		add	r1, r7, #288
 1887 0220 0B44     		add	r3, r3, r1
 1888 0222 43F8BC2C 		str	r2, [r3, #-188]
 396:C:/Users/dtjld/workspace/AIoT/src/LiteOS_Lab/iot_link/network/dtls/mbedtls/mbedtls-2.16.2/library\camellia.c ****         GET_UINT32_BE( KC[i], t, i * 4 );
 1889              		.loc 1 396 0 discriminator 3
 1890 0226 D7F81831 		ldr	r3, [r7, #280]
 1891 022a 0133     		adds	r3, r3, #1
 1892 022c C7F81831 		str	r3, [r7, #280]
ARM GAS  C:\Users\dtjld\AppData\Local\Temp\ccRGkA1L.s 			page 41


 1893              	.L22:
 396:C:/Users/dtjld/workspace/AIoT/src/LiteOS_Lab/iot_link/network/dtls/mbedtls/mbedtls-2.16.2/library\camellia.c ****         GET_UINT32_BE( KC[i], t, i * 4 );
 1894              		.loc 1 396 0 is_stmt 0 discriminator 1
 1895 0230 D7F81831 		ldr	r3, [r7, #280]
 1896 0234 072B     		cmp	r3, #7
 1897 0236 C5D9     		bls	.L23
 398:C:/Users/dtjld/workspace/AIoT/src/LiteOS_Lab/iot_link/network/dtls/mbedtls/mbedtls-2.16.2/library\camellia.c **** 
 399:C:/Users/dtjld/workspace/AIoT/src/LiteOS_Lab/iot_link/network/dtls/mbedtls/mbedtls-2.16.2/library\camellia.c ****     /* Generate KA */
 400:C:/Users/dtjld/workspace/AIoT/src/LiteOS_Lab/iot_link/network/dtls/mbedtls/mbedtls-2.16.2/library\camellia.c ****     for( i = 0; i < 4; ++i )
 1898              		.loc 1 400 0 is_stmt 1
 1899 0238 0023     		movs	r3, #0
 1900 023a C7F81831 		str	r3, [r7, #280]
 1901 023e 1FE0     		b	.L24
 1902              	.L25:
 401:C:/Users/dtjld/workspace/AIoT/src/LiteOS_Lab/iot_link/network/dtls/mbedtls/mbedtls-2.16.2/library\camellia.c ****         KC[8 + i] = KC[i] ^ KC[4 + i];
 1903              		.loc 1 401 0 discriminator 3
 1904 0240 D7F81831 		ldr	r3, [r7, #280]
 1905 0244 9B00     		lsls	r3, r3, #2
 1906 0246 07F59072 		add	r2, r7, #288
 1907 024a 1344     		add	r3, r3, r2
 1908 024c 53F8BC1C 		ldr	r1, [r3, #-188]
 1909 0250 D7F81831 		ldr	r3, [r7, #280]
 1910 0254 0433     		adds	r3, r3, #4
 1911 0256 9B00     		lsls	r3, r3, #2
 1912 0258 07F59072 		add	r2, r7, #288
 1913 025c 1344     		add	r3, r3, r2
 1914 025e 53F8BC2C 		ldr	r2, [r3, #-188]
 1915 0262 D7F81831 		ldr	r3, [r7, #280]
 1916 0266 0833     		adds	r3, r3, #8
 1917 0268 4A40     		eors	r2, r2, r1
 1918 026a 9B00     		lsls	r3, r3, #2
 1919 026c 07F59071 		add	r1, r7, #288
 1920 0270 0B44     		add	r3, r3, r1
 1921 0272 43F8BC2C 		str	r2, [r3, #-188]
 400:C:/Users/dtjld/workspace/AIoT/src/LiteOS_Lab/iot_link/network/dtls/mbedtls/mbedtls-2.16.2/library\camellia.c ****         KC[8 + i] = KC[i] ^ KC[4 + i];
 1922              		.loc 1 400 0 discriminator 3
 1923 0276 D7F81831 		ldr	r3, [r7, #280]
 1924 027a 0133     		adds	r3, r3, #1
 1925 027c C7F81831 		str	r3, [r7, #280]
 1926              	.L24:
 400:C:/Users/dtjld/workspace/AIoT/src/LiteOS_Lab/iot_link/network/dtls/mbedtls/mbedtls-2.16.2/library\camellia.c ****         KC[8 + i] = KC[i] ^ KC[4 + i];
 1927              		.loc 1 400 0 is_stmt 0 discriminator 1
 1928 0280 D7F81831 		ldr	r3, [r7, #280]
 1929 0284 032B     		cmp	r3, #3
 1930 0286 DBD9     		bls	.L25
 402:C:/Users/dtjld/workspace/AIoT/src/LiteOS_Lab/iot_link/network/dtls/mbedtls/mbedtls-2.16.2/library\camellia.c **** 
 403:C:/Users/dtjld/workspace/AIoT/src/LiteOS_Lab/iot_link/network/dtls/mbedtls/mbedtls-2.16.2/library\camellia.c ****     camellia_feistel( KC + 8, SIGMA[0], KC + 10 );
 1931              		.loc 1 403 0 is_stmt 1
 1932 0288 07F16403 		add	r3, r7, #100
 1933 028c 2033     		adds	r3, r3, #32
 1934 028e 07F16402 		add	r2, r7, #100
 1935 0292 2832     		adds	r2, r2, #40
 1936 0294 07F1A401 		add	r1, r7, #164
 1937 0298 1846     		mov	r0, r3
 1938 029a FFF7FEFF 		bl	camellia_feistel
 404:C:/Users/dtjld/workspace/AIoT/src/LiteOS_Lab/iot_link/network/dtls/mbedtls/mbedtls-2.16.2/library\camellia.c ****     camellia_feistel( KC + 10, SIGMA[1], KC + 8 );
 1939              		.loc 1 404 0
ARM GAS  C:\Users\dtjld\AppData\Local\Temp\ccRGkA1L.s 			page 42


 1940 029e 07F16403 		add	r3, r7, #100
 1941 02a2 2833     		adds	r3, r3, #40
 1942 02a4 07F16402 		add	r2, r7, #100
 1943 02a8 2032     		adds	r2, r2, #32
 1944 02aa 07F1A401 		add	r1, r7, #164
 1945 02ae 0831     		adds	r1, r1, #8
 1946 02b0 1846     		mov	r0, r3
 1947 02b2 FFF7FEFF 		bl	camellia_feistel
 405:C:/Users/dtjld/workspace/AIoT/src/LiteOS_Lab/iot_link/network/dtls/mbedtls/mbedtls-2.16.2/library\camellia.c **** 
 406:C:/Users/dtjld/workspace/AIoT/src/LiteOS_Lab/iot_link/network/dtls/mbedtls/mbedtls-2.16.2/library\camellia.c ****     for( i = 0; i < 4; ++i )
 1948              		.loc 1 406 0
 1949 02b6 0023     		movs	r3, #0
 1950 02b8 C7F81831 		str	r3, [r7, #280]
 1951 02bc 1FE0     		b	.L26
 1952              	.L27:
 407:C:/Users/dtjld/workspace/AIoT/src/LiteOS_Lab/iot_link/network/dtls/mbedtls/mbedtls-2.16.2/library\camellia.c ****         KC[8 + i] ^= KC[i];
 1953              		.loc 1 407 0 discriminator 3
 1954 02be D7F81831 		ldr	r3, [r7, #280]
 1955 02c2 0833     		adds	r3, r3, #8
 1956 02c4 9B00     		lsls	r3, r3, #2
 1957 02c6 07F59072 		add	r2, r7, #288
 1958 02ca 1344     		add	r3, r3, r2
 1959 02cc 53F8BC1C 		ldr	r1, [r3, #-188]
 1960 02d0 D7F81831 		ldr	r3, [r7, #280]
 1961 02d4 9B00     		lsls	r3, r3, #2
 1962 02d6 07F59072 		add	r2, r7, #288
 1963 02da 1344     		add	r3, r3, r2
 1964 02dc 53F8BC2C 		ldr	r2, [r3, #-188]
 1965 02e0 D7F81831 		ldr	r3, [r7, #280]
 1966 02e4 0833     		adds	r3, r3, #8
 1967 02e6 4A40     		eors	r2, r2, r1
 1968 02e8 9B00     		lsls	r3, r3, #2
 1969 02ea 07F59071 		add	r1, r7, #288
 1970 02ee 0B44     		add	r3, r3, r1
 1971 02f0 43F8BC2C 		str	r2, [r3, #-188]
 406:C:/Users/dtjld/workspace/AIoT/src/LiteOS_Lab/iot_link/network/dtls/mbedtls/mbedtls-2.16.2/library\camellia.c ****         KC[8 + i] ^= KC[i];
 1972              		.loc 1 406 0 discriminator 3
 1973 02f4 D7F81831 		ldr	r3, [r7, #280]
 1974 02f8 0133     		adds	r3, r3, #1
 1975 02fa C7F81831 		str	r3, [r7, #280]
 1976              	.L26:
 406:C:/Users/dtjld/workspace/AIoT/src/LiteOS_Lab/iot_link/network/dtls/mbedtls/mbedtls-2.16.2/library\camellia.c ****         KC[8 + i] ^= KC[i];
 1977              		.loc 1 406 0 is_stmt 0 discriminator 1
 1978 02fe D7F81831 		ldr	r3, [r7, #280]
 1979 0302 032B     		cmp	r3, #3
 1980 0304 DBD9     		bls	.L27
 408:C:/Users/dtjld/workspace/AIoT/src/LiteOS_Lab/iot_link/network/dtls/mbedtls/mbedtls-2.16.2/library\camellia.c **** 
 409:C:/Users/dtjld/workspace/AIoT/src/LiteOS_Lab/iot_link/network/dtls/mbedtls/mbedtls-2.16.2/library\camellia.c ****     camellia_feistel( KC + 8, SIGMA[2], KC + 10 );
 1981              		.loc 1 409 0 is_stmt 1
 1982 0306 07F16403 		add	r3, r7, #100
 1983 030a 2033     		adds	r3, r3, #32
 1984 030c 07F16402 		add	r2, r7, #100
 1985 0310 2832     		adds	r2, r2, #40
 1986 0312 07F1A401 		add	r1, r7, #164
 1987 0316 1031     		adds	r1, r1, #16
 1988 0318 1846     		mov	r0, r3
 1989 031a FFF7FEFF 		bl	camellia_feistel
ARM GAS  C:\Users\dtjld\AppData\Local\Temp\ccRGkA1L.s 			page 43


 410:C:/Users/dtjld/workspace/AIoT/src/LiteOS_Lab/iot_link/network/dtls/mbedtls/mbedtls-2.16.2/library\camellia.c ****     camellia_feistel( KC + 10, SIGMA[3], KC + 8 );
 1990              		.loc 1 410 0
 1991 031e 07F16403 		add	r3, r7, #100
 1992 0322 2833     		adds	r3, r3, #40
 1993 0324 07F16402 		add	r2, r7, #100
 1994 0328 2032     		adds	r2, r2, #32
 1995 032a 07F1A401 		add	r1, r7, #164
 1996 032e 1831     		adds	r1, r1, #24
 1997 0330 1846     		mov	r0, r3
 1998 0332 FFF7FEFF 		bl	camellia_feistel
 411:C:/Users/dtjld/workspace/AIoT/src/LiteOS_Lab/iot_link/network/dtls/mbedtls/mbedtls-2.16.2/library\camellia.c **** 
 412:C:/Users/dtjld/workspace/AIoT/src/LiteOS_Lab/iot_link/network/dtls/mbedtls/mbedtls-2.16.2/library\camellia.c ****     if( keybits > 128 ) {
 1999              		.loc 1 412 0
 2000 0336 3B1D     		adds	r3, r7, #4
 2001 0338 1B68     		ldr	r3, [r3]
 2002 033a 802B     		cmp	r3, #128
 2003 033c 40D9     		bls	.L28
 413:C:/Users/dtjld/workspace/AIoT/src/LiteOS_Lab/iot_link/network/dtls/mbedtls/mbedtls-2.16.2/library\camellia.c ****         /* Generate KB */
 414:C:/Users/dtjld/workspace/AIoT/src/LiteOS_Lab/iot_link/network/dtls/mbedtls/mbedtls-2.16.2/library\camellia.c ****         for( i = 0; i < 4; ++i )
 2004              		.loc 1 414 0
 2005 033e 0023     		movs	r3, #0
 2006 0340 C7F81831 		str	r3, [r7, #280]
 2007 0344 20E0     		b	.L29
 2008              	.L30:
 415:C:/Users/dtjld/workspace/AIoT/src/LiteOS_Lab/iot_link/network/dtls/mbedtls/mbedtls-2.16.2/library\camellia.c ****             KC[12 + i] = KC[4 + i] ^ KC[8 + i];
 2009              		.loc 1 415 0 discriminator 3
 2010 0346 D7F81831 		ldr	r3, [r7, #280]
 2011 034a 0433     		adds	r3, r3, #4
 2012 034c 9B00     		lsls	r3, r3, #2
 2013 034e 07F59072 		add	r2, r7, #288
 2014 0352 1344     		add	r3, r3, r2
 2015 0354 53F8BC1C 		ldr	r1, [r3, #-188]
 2016 0358 D7F81831 		ldr	r3, [r7, #280]
 2017 035c 0833     		adds	r3, r3, #8
 2018 035e 9B00     		lsls	r3, r3, #2
 2019 0360 07F59072 		add	r2, r7, #288
 2020 0364 1344     		add	r3, r3, r2
 2021 0366 53F8BC2C 		ldr	r2, [r3, #-188]
 2022 036a D7F81831 		ldr	r3, [r7, #280]
 2023 036e 0C33     		adds	r3, r3, #12
 2024 0370 4A40     		eors	r2, r2, r1
 2025 0372 9B00     		lsls	r3, r3, #2
 2026 0374 07F59071 		add	r1, r7, #288
 2027 0378 0B44     		add	r3, r3, r1
 2028 037a 43F8BC2C 		str	r2, [r3, #-188]
 414:C:/Users/dtjld/workspace/AIoT/src/LiteOS_Lab/iot_link/network/dtls/mbedtls/mbedtls-2.16.2/library\camellia.c ****             KC[12 + i] = KC[4 + i] ^ KC[8 + i];
 2029              		.loc 1 414 0 discriminator 3
 2030 037e D7F81831 		ldr	r3, [r7, #280]
 2031 0382 0133     		adds	r3, r3, #1
 2032 0384 C7F81831 		str	r3, [r7, #280]
 2033              	.L29:
 414:C:/Users/dtjld/workspace/AIoT/src/LiteOS_Lab/iot_link/network/dtls/mbedtls/mbedtls-2.16.2/library\camellia.c ****             KC[12 + i] = KC[4 + i] ^ KC[8 + i];
 2034              		.loc 1 414 0 is_stmt 0 discriminator 1
 2035 0388 D7F81831 		ldr	r3, [r7, #280]
 2036 038c 032B     		cmp	r3, #3
 2037 038e DAD9     		bls	.L30
 416:C:/Users/dtjld/workspace/AIoT/src/LiteOS_Lab/iot_link/network/dtls/mbedtls/mbedtls-2.16.2/library\camellia.c **** 
ARM GAS  C:\Users\dtjld\AppData\Local\Temp\ccRGkA1L.s 			page 44


 417:C:/Users/dtjld/workspace/AIoT/src/LiteOS_Lab/iot_link/network/dtls/mbedtls/mbedtls-2.16.2/library\camellia.c ****         camellia_feistel( KC + 12, SIGMA[4], KC + 14 );
 2038              		.loc 1 417 0 is_stmt 1
 2039 0390 07F16403 		add	r3, r7, #100
 2040 0394 3033     		adds	r3, r3, #48
 2041 0396 07F16402 		add	r2, r7, #100
 2042 039a 3832     		adds	r2, r2, #56
 2043 039c 07F1A401 		add	r1, r7, #164
 2044 03a0 2031     		adds	r1, r1, #32
 2045 03a2 1846     		mov	r0, r3
 2046 03a4 FFF7FEFF 		bl	camellia_feistel
 418:C:/Users/dtjld/workspace/AIoT/src/LiteOS_Lab/iot_link/network/dtls/mbedtls/mbedtls-2.16.2/library\camellia.c ****         camellia_feistel( KC + 14, SIGMA[5], KC + 12 );
 2047              		.loc 1 418 0
 2048 03a8 07F16403 		add	r3, r7, #100
 2049 03ac 3833     		adds	r3, r3, #56
 2050 03ae 07F16402 		add	r2, r7, #100
 2051 03b2 3032     		adds	r2, r2, #48
 2052 03b4 07F1A401 		add	r1, r7, #164
 2053 03b8 2831     		adds	r1, r1, #40
 2054 03ba 1846     		mov	r0, r3
 2055 03bc FFF7FEFF 		bl	camellia_feistel
 2056              	.L28:
 419:C:/Users/dtjld/workspace/AIoT/src/LiteOS_Lab/iot_link/network/dtls/mbedtls/mbedtls-2.16.2/library\camellia.c ****     }
 420:C:/Users/dtjld/workspace/AIoT/src/LiteOS_Lab/iot_link/network/dtls/mbedtls/mbedtls-2.16.2/library\camellia.c **** 
 421:C:/Users/dtjld/workspace/AIoT/src/LiteOS_Lab/iot_link/network/dtls/mbedtls/mbedtls-2.16.2/library\camellia.c ****     /*
 422:C:/Users/dtjld/workspace/AIoT/src/LiteOS_Lab/iot_link/network/dtls/mbedtls/mbedtls-2.16.2/library\camellia.c ****      * Generating subkeys
 423:C:/Users/dtjld/workspace/AIoT/src/LiteOS_Lab/iot_link/network/dtls/mbedtls/mbedtls-2.16.2/library\camellia.c ****      */
 424:C:/Users/dtjld/workspace/AIoT/src/LiteOS_Lab/iot_link/network/dtls/mbedtls/mbedtls-2.16.2/library\camellia.c **** 
 425:C:/Users/dtjld/workspace/AIoT/src/LiteOS_Lab/iot_link/network/dtls/mbedtls/mbedtls-2.16.2/library\camellia.c ****     /* Manipulating KL */
 426:C:/Users/dtjld/workspace/AIoT/src/LiteOS_Lab/iot_link/network/dtls/mbedtls/mbedtls-2.16.2/library\camellia.c ****     SHIFT_AND_PLACE( idx, 0 );
 2057              		.loc 1 426 0
 2058 03c0 7A6E     		ldr	r2, [r7, #100]
 2059 03c2 07F11403 		add	r3, r7, #20
 2060 03c6 1A60     		str	r2, [r3]
 2061 03c8 BA6E     		ldr	r2, [r7, #104]
 2062 03ca 07F11403 		add	r3, r7, #20
 2063 03ce 5A60     		str	r2, [r3, #4]
 2064 03d0 FA6E     		ldr	r2, [r7, #108]
 2065 03d2 07F11403 		add	r3, r7, #20
 2066 03d6 9A60     		str	r2, [r3, #8]
 2067 03d8 3A6F     		ldr	r2, [r7, #112]
 2068 03da 07F11403 		add	r3, r7, #20
 2069 03de DA60     		str	r2, [r3, #12]
 2070 03e0 0123     		movs	r3, #1
 2071 03e2 C7F81831 		str	r3, [r7, #280]
 2072 03e6 9AE0     		b	.L31
 2073              	.L63:
 2074              		.align	2
 2075              	.L62:
 2076 03e8 00000000 		.word	SIGMA_CHARS
 2077              	.L33:
 2078              		.loc 1 426 0 is_stmt 0 discriminator 6
 2079 03ec D7F81831 		ldr	r3, [r7, #280]
 2080 03f0 013B     		subs	r3, r3, #1
 2081 03f2 C649     		ldr	r1, .L64
 2082 03f4 D7F81C21 		ldr	r2, [r7, #284]
 2083 03f8 1201     		lsls	r2, r2, #4
 2084 03fa 0A44     		add	r2, r2, r1
ARM GAS  C:\Users\dtjld\AppData\Local\Temp\ccRGkA1L.s 			page 45


 2085 03fc 1344     		add	r3, r3, r2
 2086 03fe 1B78     		ldrb	r3, [r3]	@ zero_extendqisi2
 2087 0400 002B     		cmp	r3, #0
 2088 0402 00F08780 		beq	.L32
 2089              		.loc 1 426 0 discriminator 2
 2090 0406 07F11403 		add	r3, r7, #20
 2091 040a 1968     		ldr	r1, [r3]
 2092 040c D7F81821 		ldr	r2, [r7, #280]
 2093 0410 1346     		mov	r3, r2
 2094 0412 1B01     		lsls	r3, r3, #4
 2095 0414 9B1A     		subs	r3, r3, r2
 2096 0416 03F01F03 		and	r3, r3, #31
 2097 041a 9940     		lsls	r1, r1, r3
 2098 041c 07F11403 		add	r3, r7, #20
 2099 0420 5868     		ldr	r0, [r3, #4]
 2100 0422 D7F81821 		ldr	r2, [r7, #280]
 2101 0426 1346     		mov	r3, r2
 2102 0428 1B01     		lsls	r3, r3, #4
 2103 042a 9B1A     		subs	r3, r3, r2
 2104 042c 03F01F03 		and	r3, r3, #31
 2105 0430 C3F12003 		rsb	r3, r3, #32
 2106 0434 20FA03F2 		lsr	r2, r0, r3
 2107 0438 D7F81831 		ldr	r3, [r7, #280]
 2108 043c 1B01     		lsls	r3, r3, #4
 2109 043e 07F11400 		add	r0, r7, #20
 2110 0442 0344     		add	r3, r3, r0
 2111 0444 4A40     		eors	r2, r2, r1
 2112 0446 1A60     		str	r2, [r3]
 2113 0448 07F11403 		add	r3, r7, #20
 2114 044c 5968     		ldr	r1, [r3, #4]
 2115 044e D7F81821 		ldr	r2, [r7, #280]
 2116 0452 1346     		mov	r3, r2
 2117 0454 1B01     		lsls	r3, r3, #4
 2118 0456 9B1A     		subs	r3, r3, r2
 2119 0458 03F01F03 		and	r3, r3, #31
 2120 045c 9940     		lsls	r1, r1, r3
 2121 045e 07F11403 		add	r3, r7, #20
 2122 0462 9868     		ldr	r0, [r3, #8]
 2123 0464 D7F81821 		ldr	r2, [r7, #280]
 2124 0468 1346     		mov	r3, r2
 2125 046a 1B01     		lsls	r3, r3, #4
 2126 046c 9B1A     		subs	r3, r3, r2
 2127 046e 03F01F03 		and	r3, r3, #31
 2128 0472 C3F12003 		rsb	r3, r3, #32
 2129 0476 20FA03F2 		lsr	r2, r0, r3
 2130 047a D7F81831 		ldr	r3, [r7, #280]
 2131 047e 1B01     		lsls	r3, r3, #4
 2132 0480 0433     		adds	r3, r3, #4
 2133 0482 07F11400 		add	r0, r7, #20
 2134 0486 0344     		add	r3, r3, r0
 2135 0488 4A40     		eors	r2, r2, r1
 2136 048a 1A60     		str	r2, [r3]
 2137 048c 07F11403 		add	r3, r7, #20
 2138 0490 9968     		ldr	r1, [r3, #8]
 2139 0492 D7F81821 		ldr	r2, [r7, #280]
 2140 0496 1346     		mov	r3, r2
 2141 0498 1B01     		lsls	r3, r3, #4
ARM GAS  C:\Users\dtjld\AppData\Local\Temp\ccRGkA1L.s 			page 46


 2142 049a 9B1A     		subs	r3, r3, r2
 2143 049c 03F01F03 		and	r3, r3, #31
 2144 04a0 9940     		lsls	r1, r1, r3
 2145 04a2 07F11403 		add	r3, r7, #20
 2146 04a6 D868     		ldr	r0, [r3, #12]
 2147 04a8 D7F81821 		ldr	r2, [r7, #280]
 2148 04ac 1346     		mov	r3, r2
 2149 04ae 1B01     		lsls	r3, r3, #4
 2150 04b0 9B1A     		subs	r3, r3, r2
 2151 04b2 03F01F03 		and	r3, r3, #31
 2152 04b6 C3F12003 		rsb	r3, r3, #32
 2153 04ba 20FA03F2 		lsr	r2, r0, r3
 2154 04be D7F81831 		ldr	r3, [r7, #280]
 2155 04c2 1B01     		lsls	r3, r3, #4
 2156 04c4 0833     		adds	r3, r3, #8
 2157 04c6 07F11400 		add	r0, r7, #20
 2158 04ca 0344     		add	r3, r3, r0
 2159 04cc 4A40     		eors	r2, r2, r1
 2160 04ce 1A60     		str	r2, [r3]
 2161 04d0 07F11403 		add	r3, r7, #20
 2162 04d4 D968     		ldr	r1, [r3, #12]
 2163 04d6 D7F81821 		ldr	r2, [r7, #280]
 2164 04da 1346     		mov	r3, r2
 2165 04dc 1B01     		lsls	r3, r3, #4
 2166 04de 9B1A     		subs	r3, r3, r2
 2167 04e0 03F01F03 		and	r3, r3, #31
 2168 04e4 9940     		lsls	r1, r1, r3
 2169 04e6 07F11403 		add	r3, r7, #20
 2170 04ea 1868     		ldr	r0, [r3]
 2171 04ec D7F81821 		ldr	r2, [r7, #280]
 2172 04f0 1346     		mov	r3, r2
 2173 04f2 1B01     		lsls	r3, r3, #4
 2174 04f4 9B1A     		subs	r3, r3, r2
 2175 04f6 03F01F03 		and	r3, r3, #31
 2176 04fa C3F12003 		rsb	r3, r3, #32
 2177 04fe 20FA03F2 		lsr	r2, r0, r3
 2178 0502 D7F81831 		ldr	r3, [r7, #280]
 2179 0506 1B01     		lsls	r3, r3, #4
 2180 0508 0C33     		adds	r3, r3, #12
 2181 050a 07F11400 		add	r0, r7, #20
 2182 050e 0344     		add	r3, r3, r0
 2183 0510 4A40     		eors	r2, r2, r1
 2184 0512 1A60     		str	r2, [r3]
 2185              	.L32:
 2186              		.loc 1 426 0 discriminator 4
 2187 0514 D7F81831 		ldr	r3, [r7, #280]
 2188 0518 0133     		adds	r3, r3, #1
 2189 051a C7F81831 		str	r3, [r7, #280]
 2190              	.L31:
 2191              		.loc 1 426 0 discriminator 5
 2192 051e D7F81831 		ldr	r3, [r7, #280]
 2193 0522 042B     		cmp	r3, #4
 2194 0524 7FF662AF 		bls	.L33
 2195              		.loc 1 426 0 discriminator 7
 2196 0528 0023     		movs	r3, #0
 2197 052a C7F81831 		str	r3, [r7, #280]
 2198 052e 2CE0     		b	.L34
ARM GAS  C:\Users\dtjld\AppData\Local\Temp\ccRGkA1L.s 			page 47


 2199              	.L36:
 2200              		.loc 1 426 0 discriminator 13
 2201 0530 7749     		ldr	r1, .L64+4
 2202 0532 D7F81C21 		ldr	r2, [r7, #284]
 2203 0536 1346     		mov	r3, r2
 2204 0538 9B00     		lsls	r3, r3, #2
 2205 053a 1344     		add	r3, r3, r2
 2206 053c 1B01     		lsls	r3, r3, #4
 2207 053e CA18     		adds	r2, r1, r3
 2208 0540 D7F81831 		ldr	r3, [r7, #280]
 2209 0544 1344     		add	r3, r3, r2
 2210 0546 93F90030 		ldrsb	r3, [r3]
 2211 054a B3F1FF3F 		cmp	r3, #-1
 2212 054e 17D0     		beq	.L35
 2213              		.loc 1 426 0 discriminator 9
 2214 0550 6F49     		ldr	r1, .L64+4
 2215 0552 D7F81C21 		ldr	r2, [r7, #284]
 2216 0556 1346     		mov	r3, r2
 2217 0558 9B00     		lsls	r3, r3, #2
 2218 055a 1344     		add	r3, r3, r2
 2219 055c 1B01     		lsls	r3, r3, #4
 2220 055e CA18     		adds	r2, r1, r3
 2221 0560 D7F81831 		ldr	r3, [r7, #280]
 2222 0564 1344     		add	r3, r3, r2
 2223 0566 93F90030 		ldrsb	r3, [r3]
 2224 056a 9B00     		lsls	r3, r3, #2
 2225 056c D7F81421 		ldr	r2, [r7, #276]
 2226 0570 1344     		add	r3, r3, r2
 2227 0572 07F11402 		add	r2, r7, #20
 2228 0576 D7F81811 		ldr	r1, [r7, #280]
 2229 057a 52F82120 		ldr	r2, [r2, r1, lsl #2]
 2230 057e 1A60     		str	r2, [r3]
 2231              	.L35:
 2232              		.loc 1 426 0 discriminator 11
 2233 0580 D7F81831 		ldr	r3, [r7, #280]
 2234 0584 0133     		adds	r3, r3, #1
 2235 0586 C7F81831 		str	r3, [r7, #280]
 2236              	.L34:
 2237              		.loc 1 426 0 discriminator 12
 2238 058a D7F81831 		ldr	r3, [r7, #280]
 2239 058e 132B     		cmp	r3, #19
 2240 0590 CED9     		bls	.L36
 427:C:/Users/dtjld/workspace/AIoT/src/LiteOS_Lab/iot_link/network/dtls/mbedtls/mbedtls-2.16.2/library\camellia.c **** 
 428:C:/Users/dtjld/workspace/AIoT/src/LiteOS_Lab/iot_link/network/dtls/mbedtls/mbedtls-2.16.2/library\camellia.c ****     /* Manipulating KR */
 429:C:/Users/dtjld/workspace/AIoT/src/LiteOS_Lab/iot_link/network/dtls/mbedtls/mbedtls-2.16.2/library\camellia.c ****     if( keybits > 128 ) {
 2241              		.loc 1 429 0 is_stmt 1
 2242 0592 3B1D     		adds	r3, r7, #4
 2243 0594 1B68     		ldr	r3, [r3]
 2244 0596 802B     		cmp	r3, #128
 2245 0598 40F2EF80 		bls	.L37
 430:C:/Users/dtjld/workspace/AIoT/src/LiteOS_Lab/iot_link/network/dtls/mbedtls/mbedtls-2.16.2/library\camellia.c ****         SHIFT_AND_PLACE( idx, 1 );
 2246              		.loc 1 430 0
 2247 059c 7A6F     		ldr	r2, [r7, #116]
 2248 059e 07F11403 		add	r3, r7, #20
 2249 05a2 1A60     		str	r2, [r3]
 2250 05a4 BA6F     		ldr	r2, [r7, #120]
 2251 05a6 07F11403 		add	r3, r7, #20
ARM GAS  C:\Users\dtjld\AppData\Local\Temp\ccRGkA1L.s 			page 48


 2252 05aa 5A60     		str	r2, [r3, #4]
 2253 05ac FA6F     		ldr	r2, [r7, #124]
 2254 05ae 07F11403 		add	r3, r7, #20
 2255 05b2 9A60     		str	r2, [r3, #8]
 2256 05b4 D7F88020 		ldr	r2, [r7, #128]
 2257 05b8 07F11403 		add	r3, r7, #20
 2258 05bc DA60     		str	r2, [r3, #12]
 2259 05be 0123     		movs	r3, #1
 2260 05c0 C7F81831 		str	r3, [r7, #280]
 2261 05c4 99E0     		b	.L38
 2262              	.L40:
 2263              		.loc 1 430 0 is_stmt 0 discriminator 6
 2264 05c6 D7F81831 		ldr	r3, [r7, #280]
 2265 05ca 013B     		subs	r3, r3, #1
 2266 05cc 4F49     		ldr	r1, .L64
 2267 05ce D7F81C21 		ldr	r2, [r7, #284]
 2268 05d2 1201     		lsls	r2, r2, #4
 2269 05d4 0A44     		add	r2, r2, r1
 2270 05d6 1344     		add	r3, r3, r2
 2271 05d8 0433     		adds	r3, r3, #4
 2272 05da 1B78     		ldrb	r3, [r3]	@ zero_extendqisi2
 2273 05dc 002B     		cmp	r3, #0
 2274 05de 00F08780 		beq	.L39
 2275              		.loc 1 430 0 discriminator 2
 2276 05e2 07F11403 		add	r3, r7, #20
 2277 05e6 1968     		ldr	r1, [r3]
 2278 05e8 D7F81821 		ldr	r2, [r7, #280]
 2279 05ec 1346     		mov	r3, r2
 2280 05ee 1B01     		lsls	r3, r3, #4
 2281 05f0 9B1A     		subs	r3, r3, r2
 2282 05f2 03F01F03 		and	r3, r3, #31
 2283 05f6 9940     		lsls	r1, r1, r3
 2284 05f8 07F11403 		add	r3, r7, #20
 2285 05fc 5868     		ldr	r0, [r3, #4]
 2286 05fe D7F81821 		ldr	r2, [r7, #280]
 2287 0602 1346     		mov	r3, r2
 2288 0604 1B01     		lsls	r3, r3, #4
 2289 0606 9B1A     		subs	r3, r3, r2
 2290 0608 03F01F03 		and	r3, r3, #31
 2291 060c C3F12003 		rsb	r3, r3, #32
 2292 0610 20FA03F2 		lsr	r2, r0, r3
 2293 0614 D7F81831 		ldr	r3, [r7, #280]
 2294 0618 1B01     		lsls	r3, r3, #4
 2295 061a 07F11400 		add	r0, r7, #20
 2296 061e 0344     		add	r3, r3, r0
 2297 0620 4A40     		eors	r2, r2, r1
 2298 0622 1A60     		str	r2, [r3]
 2299 0624 07F11403 		add	r3, r7, #20
 2300 0628 5968     		ldr	r1, [r3, #4]
 2301 062a D7F81821 		ldr	r2, [r7, #280]
 2302 062e 1346     		mov	r3, r2
 2303 0630 1B01     		lsls	r3, r3, #4
 2304 0632 9B1A     		subs	r3, r3, r2
 2305 0634 03F01F03 		and	r3, r3, #31
 2306 0638 9940     		lsls	r1, r1, r3
 2307 063a 07F11403 		add	r3, r7, #20
 2308 063e 9868     		ldr	r0, [r3, #8]
ARM GAS  C:\Users\dtjld\AppData\Local\Temp\ccRGkA1L.s 			page 49


 2309 0640 D7F81821 		ldr	r2, [r7, #280]
 2310 0644 1346     		mov	r3, r2
 2311 0646 1B01     		lsls	r3, r3, #4
 2312 0648 9B1A     		subs	r3, r3, r2
 2313 064a 03F01F03 		and	r3, r3, #31
 2314 064e C3F12003 		rsb	r3, r3, #32
 2315 0652 20FA03F2 		lsr	r2, r0, r3
 2316 0656 D7F81831 		ldr	r3, [r7, #280]
 2317 065a 1B01     		lsls	r3, r3, #4
 2318 065c 0433     		adds	r3, r3, #4
 2319 065e 07F11400 		add	r0, r7, #20
 2320 0662 0344     		add	r3, r3, r0
 2321 0664 4A40     		eors	r2, r2, r1
 2322 0666 1A60     		str	r2, [r3]
 2323 0668 07F11403 		add	r3, r7, #20
 2324 066c 9968     		ldr	r1, [r3, #8]
 2325 066e D7F81821 		ldr	r2, [r7, #280]
 2326 0672 1346     		mov	r3, r2
 2327 0674 1B01     		lsls	r3, r3, #4
 2328 0676 9B1A     		subs	r3, r3, r2
 2329 0678 03F01F03 		and	r3, r3, #31
 2330 067c 9940     		lsls	r1, r1, r3
 2331 067e 07F11403 		add	r3, r7, #20
 2332 0682 D868     		ldr	r0, [r3, #12]
 2333 0684 D7F81821 		ldr	r2, [r7, #280]
 2334 0688 1346     		mov	r3, r2
 2335 068a 1B01     		lsls	r3, r3, #4
 2336 068c 9B1A     		subs	r3, r3, r2
 2337 068e 03F01F03 		and	r3, r3, #31
 2338 0692 C3F12003 		rsb	r3, r3, #32
 2339 0696 20FA03F2 		lsr	r2, r0, r3
 2340 069a D7F81831 		ldr	r3, [r7, #280]
 2341 069e 1B01     		lsls	r3, r3, #4
 2342 06a0 0833     		adds	r3, r3, #8
 2343 06a2 07F11400 		add	r0, r7, #20
 2344 06a6 0344     		add	r3, r3, r0
 2345 06a8 4A40     		eors	r2, r2, r1
 2346 06aa 1A60     		str	r2, [r3]
 2347 06ac 07F11403 		add	r3, r7, #20
 2348 06b0 D968     		ldr	r1, [r3, #12]
 2349 06b2 D7F81821 		ldr	r2, [r7, #280]
 2350 06b6 1346     		mov	r3, r2
 2351 06b8 1B01     		lsls	r3, r3, #4
 2352 06ba 9B1A     		subs	r3, r3, r2
 2353 06bc 03F01F03 		and	r3, r3, #31
 2354 06c0 9940     		lsls	r1, r1, r3
 2355 06c2 07F11403 		add	r3, r7, #20
 2356 06c6 1868     		ldr	r0, [r3]
 2357 06c8 D7F81821 		ldr	r2, [r7, #280]
 2358 06cc 1346     		mov	r3, r2
 2359 06ce 1B01     		lsls	r3, r3, #4
 2360 06d0 9B1A     		subs	r3, r3, r2
 2361 06d2 03F01F03 		and	r3, r3, #31
 2362 06d6 C3F12003 		rsb	r3, r3, #32
 2363 06da 20FA03F2 		lsr	r2, r0, r3
 2364 06de D7F81831 		ldr	r3, [r7, #280]
 2365 06e2 1B01     		lsls	r3, r3, #4
ARM GAS  C:\Users\dtjld\AppData\Local\Temp\ccRGkA1L.s 			page 50


 2366 06e4 0C33     		adds	r3, r3, #12
 2367 06e6 07F11400 		add	r0, r7, #20
 2368 06ea 0344     		add	r3, r3, r0
 2369 06ec 4A40     		eors	r2, r2, r1
 2370 06ee 1A60     		str	r2, [r3]
 2371              	.L39:
 2372              		.loc 1 430 0 discriminator 4
 2373 06f0 D7F81831 		ldr	r3, [r7, #280]
 2374 06f4 0133     		adds	r3, r3, #1
 2375 06f6 C7F81831 		str	r3, [r7, #280]
 2376              	.L38:
 2377              		.loc 1 430 0 discriminator 5
 2378 06fa D7F81831 		ldr	r3, [r7, #280]
 2379 06fe 042B     		cmp	r3, #4
 2380 0700 7FF661AF 		bls	.L40
 2381              		.loc 1 430 0 discriminator 7
 2382 0704 0023     		movs	r3, #0
 2383 0706 C7F81831 		str	r3, [r7, #280]
 2384 070a 32E0     		b	.L41
 2385              	.L65:
 2386              		.align	2
 2387              	.L64:
 2388 070c 00000000 		.word	shifts
 2389 0710 00000000 		.word	indexes
 2390              	.L43:
 2391              		.loc 1 430 0 discriminator 13
 2392 0714 9E49     		ldr	r1, .L66
 2393 0716 D7F81C21 		ldr	r2, [r7, #284]
 2394 071a 1346     		mov	r3, r2
 2395 071c 9B00     		lsls	r3, r3, #2
 2396 071e 1344     		add	r3, r3, r2
 2397 0720 1B01     		lsls	r3, r3, #4
 2398 0722 CA18     		adds	r2, r1, r3
 2399 0724 D7F81831 		ldr	r3, [r7, #280]
 2400 0728 1344     		add	r3, r3, r2
 2401 072a 1433     		adds	r3, r3, #20
 2402 072c 93F90030 		ldrsb	r3, [r3]
 2403 0730 B3F1FF3F 		cmp	r3, #-1
 2404 0734 18D0     		beq	.L42
 2405              		.loc 1 430 0 discriminator 9
 2406 0736 9649     		ldr	r1, .L66
 2407 0738 D7F81C21 		ldr	r2, [r7, #284]
 2408 073c 1346     		mov	r3, r2
 2409 073e 9B00     		lsls	r3, r3, #2
 2410 0740 1344     		add	r3, r3, r2
 2411 0742 1B01     		lsls	r3, r3, #4
 2412 0744 CA18     		adds	r2, r1, r3
 2413 0746 D7F81831 		ldr	r3, [r7, #280]
 2414 074a 1344     		add	r3, r3, r2
 2415 074c 1433     		adds	r3, r3, #20
 2416 074e 93F90030 		ldrsb	r3, [r3]
 2417 0752 9B00     		lsls	r3, r3, #2
 2418 0754 D7F81421 		ldr	r2, [r7, #276]
 2419 0758 1344     		add	r3, r3, r2
 2420 075a 07F11402 		add	r2, r7, #20
 2421 075e D7F81811 		ldr	r1, [r7, #280]
 2422 0762 52F82120 		ldr	r2, [r2, r1, lsl #2]
ARM GAS  C:\Users\dtjld\AppData\Local\Temp\ccRGkA1L.s 			page 51


 2423 0766 1A60     		str	r2, [r3]
 2424              	.L42:
 2425              		.loc 1 430 0 discriminator 11
 2426 0768 D7F81831 		ldr	r3, [r7, #280]
 2427 076c 0133     		adds	r3, r3, #1
 2428 076e C7F81831 		str	r3, [r7, #280]
 2429              	.L41:
 2430              		.loc 1 430 0 discriminator 12
 2431 0772 D7F81831 		ldr	r3, [r7, #280]
 2432 0776 132B     		cmp	r3, #19
 2433 0778 CCD9     		bls	.L43
 2434              	.L37:
 431:C:/Users/dtjld/workspace/AIoT/src/LiteOS_Lab/iot_link/network/dtls/mbedtls/mbedtls-2.16.2/library\camellia.c ****     }
 432:C:/Users/dtjld/workspace/AIoT/src/LiteOS_Lab/iot_link/network/dtls/mbedtls/mbedtls-2.16.2/library\camellia.c **** 
 433:C:/Users/dtjld/workspace/AIoT/src/LiteOS_Lab/iot_link/network/dtls/mbedtls/mbedtls-2.16.2/library\camellia.c ****     /* Manipulating KA */
 434:C:/Users/dtjld/workspace/AIoT/src/LiteOS_Lab/iot_link/network/dtls/mbedtls/mbedtls-2.16.2/library\camellia.c ****     SHIFT_AND_PLACE( idx, 2 );
 2435              		.loc 1 434 0 is_stmt 1
 2436 077a D7F88420 		ldr	r2, [r7, #132]
 2437 077e 07F11403 		add	r3, r7, #20
 2438 0782 1A60     		str	r2, [r3]
 2439 0784 D7F88820 		ldr	r2, [r7, #136]
 2440 0788 07F11403 		add	r3, r7, #20
 2441 078c 5A60     		str	r2, [r3, #4]
 2442 078e D7F88C20 		ldr	r2, [r7, #140]
 2443 0792 07F11403 		add	r3, r7, #20
 2444 0796 9A60     		str	r2, [r3, #8]
 2445 0798 D7F89020 		ldr	r2, [r7, #144]
 2446 079c 07F11403 		add	r3, r7, #20
 2447 07a0 DA60     		str	r2, [r3, #12]
 2448 07a2 0123     		movs	r3, #1
 2449 07a4 C7F81831 		str	r3, [r7, #280]
 2450 07a8 99E0     		b	.L44
 2451              	.L46:
 2452              		.loc 1 434 0 is_stmt 0 discriminator 6
 2453 07aa D7F81831 		ldr	r3, [r7, #280]
 2454 07ae 013B     		subs	r3, r3, #1
 2455 07b0 7849     		ldr	r1, .L66+4
 2456 07b2 D7F81C21 		ldr	r2, [r7, #284]
 2457 07b6 1201     		lsls	r2, r2, #4
 2458 07b8 0A44     		add	r2, r2, r1
 2459 07ba 1344     		add	r3, r3, r2
 2460 07bc 0833     		adds	r3, r3, #8
 2461 07be 1B78     		ldrb	r3, [r3]	@ zero_extendqisi2
 2462 07c0 002B     		cmp	r3, #0
 2463 07c2 00F08780 		beq	.L45
 2464              		.loc 1 434 0 discriminator 2
 2465 07c6 07F11403 		add	r3, r7, #20
 2466 07ca 1968     		ldr	r1, [r3]
 2467 07cc D7F81821 		ldr	r2, [r7, #280]
 2468 07d0 1346     		mov	r3, r2
 2469 07d2 1B01     		lsls	r3, r3, #4
 2470 07d4 9B1A     		subs	r3, r3, r2
 2471 07d6 03F01F03 		and	r3, r3, #31
 2472 07da 9940     		lsls	r1, r1, r3
 2473 07dc 07F11403 		add	r3, r7, #20
 2474 07e0 5868     		ldr	r0, [r3, #4]
 2475 07e2 D7F81821 		ldr	r2, [r7, #280]
ARM GAS  C:\Users\dtjld\AppData\Local\Temp\ccRGkA1L.s 			page 52


 2476 07e6 1346     		mov	r3, r2
 2477 07e8 1B01     		lsls	r3, r3, #4
 2478 07ea 9B1A     		subs	r3, r3, r2
 2479 07ec 03F01F03 		and	r3, r3, #31
 2480 07f0 C3F12003 		rsb	r3, r3, #32
 2481 07f4 20FA03F2 		lsr	r2, r0, r3
 2482 07f8 D7F81831 		ldr	r3, [r7, #280]
 2483 07fc 1B01     		lsls	r3, r3, #4
 2484 07fe 07F11400 		add	r0, r7, #20
 2485 0802 0344     		add	r3, r3, r0
 2486 0804 4A40     		eors	r2, r2, r1
 2487 0806 1A60     		str	r2, [r3]
 2488 0808 07F11403 		add	r3, r7, #20
 2489 080c 5968     		ldr	r1, [r3, #4]
 2490 080e D7F81821 		ldr	r2, [r7, #280]
 2491 0812 1346     		mov	r3, r2
 2492 0814 1B01     		lsls	r3, r3, #4
 2493 0816 9B1A     		subs	r3, r3, r2
 2494 0818 03F01F03 		and	r3, r3, #31
 2495 081c 9940     		lsls	r1, r1, r3
 2496 081e 07F11403 		add	r3, r7, #20
 2497 0822 9868     		ldr	r0, [r3, #8]
 2498 0824 D7F81821 		ldr	r2, [r7, #280]
 2499 0828 1346     		mov	r3, r2
 2500 082a 1B01     		lsls	r3, r3, #4
 2501 082c 9B1A     		subs	r3, r3, r2
 2502 082e 03F01F03 		and	r3, r3, #31
 2503 0832 C3F12003 		rsb	r3, r3, #32
 2504 0836 20FA03F2 		lsr	r2, r0, r3
 2505 083a D7F81831 		ldr	r3, [r7, #280]
 2506 083e 1B01     		lsls	r3, r3, #4
 2507 0840 0433     		adds	r3, r3, #4
 2508 0842 07F11400 		add	r0, r7, #20
 2509 0846 0344     		add	r3, r3, r0
 2510 0848 4A40     		eors	r2, r2, r1
 2511 084a 1A60     		str	r2, [r3]
 2512 084c 07F11403 		add	r3, r7, #20
 2513 0850 9968     		ldr	r1, [r3, #8]
 2514 0852 D7F81821 		ldr	r2, [r7, #280]
 2515 0856 1346     		mov	r3, r2
 2516 0858 1B01     		lsls	r3, r3, #4
 2517 085a 9B1A     		subs	r3, r3, r2
 2518 085c 03F01F03 		and	r3, r3, #31
 2519 0860 9940     		lsls	r1, r1, r3
 2520 0862 07F11403 		add	r3, r7, #20
 2521 0866 D868     		ldr	r0, [r3, #12]
 2522 0868 D7F81821 		ldr	r2, [r7, #280]
 2523 086c 1346     		mov	r3, r2
 2524 086e 1B01     		lsls	r3, r3, #4
 2525 0870 9B1A     		subs	r3, r3, r2
 2526 0872 03F01F03 		and	r3, r3, #31
 2527 0876 C3F12003 		rsb	r3, r3, #32
 2528 087a 20FA03F2 		lsr	r2, r0, r3
 2529 087e D7F81831 		ldr	r3, [r7, #280]
 2530 0882 1B01     		lsls	r3, r3, #4
 2531 0884 0833     		adds	r3, r3, #8
 2532 0886 07F11400 		add	r0, r7, #20
ARM GAS  C:\Users\dtjld\AppData\Local\Temp\ccRGkA1L.s 			page 53


 2533 088a 0344     		add	r3, r3, r0
 2534 088c 4A40     		eors	r2, r2, r1
 2535 088e 1A60     		str	r2, [r3]
 2536 0890 07F11403 		add	r3, r7, #20
 2537 0894 D968     		ldr	r1, [r3, #12]
 2538 0896 D7F81821 		ldr	r2, [r7, #280]
 2539 089a 1346     		mov	r3, r2
 2540 089c 1B01     		lsls	r3, r3, #4
 2541 089e 9B1A     		subs	r3, r3, r2
 2542 08a0 03F01F03 		and	r3, r3, #31
 2543 08a4 9940     		lsls	r1, r1, r3
 2544 08a6 07F11403 		add	r3, r7, #20
 2545 08aa 1868     		ldr	r0, [r3]
 2546 08ac D7F81821 		ldr	r2, [r7, #280]
 2547 08b0 1346     		mov	r3, r2
 2548 08b2 1B01     		lsls	r3, r3, #4
 2549 08b4 9B1A     		subs	r3, r3, r2
 2550 08b6 03F01F03 		and	r3, r3, #31
 2551 08ba C3F12003 		rsb	r3, r3, #32
 2552 08be 20FA03F2 		lsr	r2, r0, r3
 2553 08c2 D7F81831 		ldr	r3, [r7, #280]
 2554 08c6 1B01     		lsls	r3, r3, #4
 2555 08c8 0C33     		adds	r3, r3, #12
 2556 08ca 07F11400 		add	r0, r7, #20
 2557 08ce 0344     		add	r3, r3, r0
 2558 08d0 4A40     		eors	r2, r2, r1
 2559 08d2 1A60     		str	r2, [r3]
 2560              	.L45:
 2561              		.loc 1 434 0 discriminator 4
 2562 08d4 D7F81831 		ldr	r3, [r7, #280]
 2563 08d8 0133     		adds	r3, r3, #1
 2564 08da C7F81831 		str	r3, [r7, #280]
 2565              	.L44:
 2566              		.loc 1 434 0 discriminator 5
 2567 08de D7F81831 		ldr	r3, [r7, #280]
 2568 08e2 042B     		cmp	r3, #4
 2569 08e4 7FF661AF 		bls	.L46
 2570              		.loc 1 434 0 discriminator 7
 2571 08e8 0023     		movs	r3, #0
 2572 08ea C7F81831 		str	r3, [r7, #280]
 2573 08ee 2EE0     		b	.L47
 2574              	.L49:
 2575              		.loc 1 434 0 discriminator 13
 2576 08f0 2749     		ldr	r1, .L66
 2577 08f2 D7F81C21 		ldr	r2, [r7, #284]
 2578 08f6 1346     		mov	r3, r2
 2579 08f8 9B00     		lsls	r3, r3, #2
 2580 08fa 1344     		add	r3, r3, r2
 2581 08fc 1B01     		lsls	r3, r3, #4
 2582 08fe CA18     		adds	r2, r1, r3
 2583 0900 D7F81831 		ldr	r3, [r7, #280]
 2584 0904 1344     		add	r3, r3, r2
 2585 0906 2833     		adds	r3, r3, #40
 2586 0908 93F90030 		ldrsb	r3, [r3]
 2587 090c B3F1FF3F 		cmp	r3, #-1
 2588 0910 18D0     		beq	.L48
 2589              		.loc 1 434 0 discriminator 9
ARM GAS  C:\Users\dtjld\AppData\Local\Temp\ccRGkA1L.s 			page 54


 2590 0912 1F49     		ldr	r1, .L66
 2591 0914 D7F81C21 		ldr	r2, [r7, #284]
 2592 0918 1346     		mov	r3, r2
 2593 091a 9B00     		lsls	r3, r3, #2
 2594 091c 1344     		add	r3, r3, r2
 2595 091e 1B01     		lsls	r3, r3, #4
 2596 0920 CA18     		adds	r2, r1, r3
 2597 0922 D7F81831 		ldr	r3, [r7, #280]
 2598 0926 1344     		add	r3, r3, r2
 2599 0928 2833     		adds	r3, r3, #40
 2600 092a 93F90030 		ldrsb	r3, [r3]
 2601 092e 9B00     		lsls	r3, r3, #2
 2602 0930 D7F81421 		ldr	r2, [r7, #276]
 2603 0934 1344     		add	r3, r3, r2
 2604 0936 07F11402 		add	r2, r7, #20
 2605 093a D7F81811 		ldr	r1, [r7, #280]
 2606 093e 52F82120 		ldr	r2, [r2, r1, lsl #2]
 2607 0942 1A60     		str	r2, [r3]
 2608              	.L48:
 2609              		.loc 1 434 0 discriminator 11
 2610 0944 D7F81831 		ldr	r3, [r7, #280]
 2611 0948 0133     		adds	r3, r3, #1
 2612 094a C7F81831 		str	r3, [r7, #280]
 2613              	.L47:
 2614              		.loc 1 434 0 discriminator 12
 2615 094e D7F81831 		ldr	r3, [r7, #280]
 2616 0952 132B     		cmp	r3, #19
 2617 0954 CCD9     		bls	.L49
 435:C:/Users/dtjld/workspace/AIoT/src/LiteOS_Lab/iot_link/network/dtls/mbedtls/mbedtls-2.16.2/library\camellia.c **** 
 436:C:/Users/dtjld/workspace/AIoT/src/LiteOS_Lab/iot_link/network/dtls/mbedtls/mbedtls-2.16.2/library\camellia.c ****     /* Manipulating KB */
 437:C:/Users/dtjld/workspace/AIoT/src/LiteOS_Lab/iot_link/network/dtls/mbedtls/mbedtls-2.16.2/library\camellia.c ****     if( keybits > 128 ) {
 2618              		.loc 1 437 0 is_stmt 1
 2619 0956 3B1D     		adds	r3, r7, #4
 2620 0958 1B68     		ldr	r3, [r3]
 2621 095a 802B     		cmp	r3, #128
 2622 095c 40F2F280 		bls	.L50
 438:C:/Users/dtjld/workspace/AIoT/src/LiteOS_Lab/iot_link/network/dtls/mbedtls/mbedtls-2.16.2/library\camellia.c ****         SHIFT_AND_PLACE( idx, 3 );
 2623              		.loc 1 438 0
 2624 0960 D7F89420 		ldr	r2, [r7, #148]
 2625 0964 07F11403 		add	r3, r7, #20
 2626 0968 1A60     		str	r2, [r3]
 2627 096a D7F89820 		ldr	r2, [r7, #152]
 2628 096e 07F11403 		add	r3, r7, #20
 2629 0972 5A60     		str	r2, [r3, #4]
 2630 0974 D7F89C20 		ldr	r2, [r7, #156]
 2631 0978 07F11403 		add	r3, r7, #20
 2632 097c 9A60     		str	r2, [r3, #8]
 2633 097e D7F8A020 		ldr	r2, [r7, #160]
 2634 0982 07F11403 		add	r3, r7, #20
 2635 0986 DA60     		str	r2, [r3, #12]
 2636 0988 0123     		movs	r3, #1
 2637 098a C7F81831 		str	r3, [r7, #280]
 2638 098e 9DE0     		b	.L51
 2639              	.L67:
 2640              		.align	2
 2641              	.L66:
 2642 0990 00000000 		.word	indexes
ARM GAS  C:\Users\dtjld\AppData\Local\Temp\ccRGkA1L.s 			page 55


 2643 0994 00000000 		.word	shifts
 2644              	.L53:
 2645              		.loc 1 438 0 is_stmt 0 discriminator 6
 2646 0998 D7F81831 		ldr	r3, [r7, #280]
 2647 099c 013B     		subs	r3, r3, #1
 2648 099e 8C49     		ldr	r1, .L68
 2649 09a0 D7F81C21 		ldr	r2, [r7, #284]
 2650 09a4 1201     		lsls	r2, r2, #4
 2651 09a6 0A44     		add	r2, r2, r1
 2652 09a8 1344     		add	r3, r3, r2
 2653 09aa 0C33     		adds	r3, r3, #12
 2654 09ac 1B78     		ldrb	r3, [r3]	@ zero_extendqisi2
 2655 09ae 002B     		cmp	r3, #0
 2656 09b0 00F08780 		beq	.L52
 2657              		.loc 1 438 0 discriminator 2
 2658 09b4 07F11403 		add	r3, r7, #20
 2659 09b8 1968     		ldr	r1, [r3]
 2660 09ba D7F81821 		ldr	r2, [r7, #280]
 2661 09be 1346     		mov	r3, r2
 2662 09c0 1B01     		lsls	r3, r3, #4
 2663 09c2 9B1A     		subs	r3, r3, r2
 2664 09c4 03F01F03 		and	r3, r3, #31
 2665 09c8 9940     		lsls	r1, r1, r3
 2666 09ca 07F11403 		add	r3, r7, #20
 2667 09ce 5868     		ldr	r0, [r3, #4]
 2668 09d0 D7F81821 		ldr	r2, [r7, #280]
 2669 09d4 1346     		mov	r3, r2
 2670 09d6 1B01     		lsls	r3, r3, #4
 2671 09d8 9B1A     		subs	r3, r3, r2
 2672 09da 03F01F03 		and	r3, r3, #31
 2673 09de C3F12003 		rsb	r3, r3, #32
 2674 09e2 20FA03F2 		lsr	r2, r0, r3
 2675 09e6 D7F81831 		ldr	r3, [r7, #280]
 2676 09ea 1B01     		lsls	r3, r3, #4
 2677 09ec 07F11400 		add	r0, r7, #20
 2678 09f0 0344     		add	r3, r3, r0
 2679 09f2 4A40     		eors	r2, r2, r1
 2680 09f4 1A60     		str	r2, [r3]
 2681 09f6 07F11403 		add	r3, r7, #20
 2682 09fa 5968     		ldr	r1, [r3, #4]
 2683 09fc D7F81821 		ldr	r2, [r7, #280]
 2684 0a00 1346     		mov	r3, r2
 2685 0a02 1B01     		lsls	r3, r3, #4
 2686 0a04 9B1A     		subs	r3, r3, r2
 2687 0a06 03F01F03 		and	r3, r3, #31
 2688 0a0a 9940     		lsls	r1, r1, r3
 2689 0a0c 07F11403 		add	r3, r7, #20
 2690 0a10 9868     		ldr	r0, [r3, #8]
 2691 0a12 D7F81821 		ldr	r2, [r7, #280]
 2692 0a16 1346     		mov	r3, r2
 2693 0a18 1B01     		lsls	r3, r3, #4
 2694 0a1a 9B1A     		subs	r3, r3, r2
 2695 0a1c 03F01F03 		and	r3, r3, #31
 2696 0a20 C3F12003 		rsb	r3, r3, #32
 2697 0a24 20FA03F2 		lsr	r2, r0, r3
 2698 0a28 D7F81831 		ldr	r3, [r7, #280]
 2699 0a2c 1B01     		lsls	r3, r3, #4
ARM GAS  C:\Users\dtjld\AppData\Local\Temp\ccRGkA1L.s 			page 56


 2700 0a2e 0433     		adds	r3, r3, #4
 2701 0a30 07F11400 		add	r0, r7, #20
 2702 0a34 0344     		add	r3, r3, r0
 2703 0a36 4A40     		eors	r2, r2, r1
 2704 0a38 1A60     		str	r2, [r3]
 2705 0a3a 07F11403 		add	r3, r7, #20
 2706 0a3e 9968     		ldr	r1, [r3, #8]
 2707 0a40 D7F81821 		ldr	r2, [r7, #280]
 2708 0a44 1346     		mov	r3, r2
 2709 0a46 1B01     		lsls	r3, r3, #4
 2710 0a48 9B1A     		subs	r3, r3, r2
 2711 0a4a 03F01F03 		and	r3, r3, #31
 2712 0a4e 9940     		lsls	r1, r1, r3
 2713 0a50 07F11403 		add	r3, r7, #20
 2714 0a54 D868     		ldr	r0, [r3, #12]
 2715 0a56 D7F81821 		ldr	r2, [r7, #280]
 2716 0a5a 1346     		mov	r3, r2
 2717 0a5c 1B01     		lsls	r3, r3, #4
 2718 0a5e 9B1A     		subs	r3, r3, r2
 2719 0a60 03F01F03 		and	r3, r3, #31
 2720 0a64 C3F12003 		rsb	r3, r3, #32
 2721 0a68 20FA03F2 		lsr	r2, r0, r3
 2722 0a6c D7F81831 		ldr	r3, [r7, #280]
 2723 0a70 1B01     		lsls	r3, r3, #4
 2724 0a72 0833     		adds	r3, r3, #8
 2725 0a74 07F11400 		add	r0, r7, #20
 2726 0a78 0344     		add	r3, r3, r0
 2727 0a7a 4A40     		eors	r2, r2, r1
 2728 0a7c 1A60     		str	r2, [r3]
 2729 0a7e 07F11403 		add	r3, r7, #20
 2730 0a82 D968     		ldr	r1, [r3, #12]
 2731 0a84 D7F81821 		ldr	r2, [r7, #280]
 2732 0a88 1346     		mov	r3, r2
 2733 0a8a 1B01     		lsls	r3, r3, #4
 2734 0a8c 9B1A     		subs	r3, r3, r2
 2735 0a8e 03F01F03 		and	r3, r3, #31
 2736 0a92 9940     		lsls	r1, r1, r3
 2737 0a94 07F11403 		add	r3, r7, #20
 2738 0a98 1868     		ldr	r0, [r3]
 2739 0a9a D7F81821 		ldr	r2, [r7, #280]
 2740 0a9e 1346     		mov	r3, r2
 2741 0aa0 1B01     		lsls	r3, r3, #4
 2742 0aa2 9B1A     		subs	r3, r3, r2
 2743 0aa4 03F01F03 		and	r3, r3, #31
 2744 0aa8 C3F12003 		rsb	r3, r3, #32
 2745 0aac 20FA03F2 		lsr	r2, r0, r3
 2746 0ab0 D7F81831 		ldr	r3, [r7, #280]
 2747 0ab4 1B01     		lsls	r3, r3, #4
 2748 0ab6 0C33     		adds	r3, r3, #12
 2749 0ab8 07F11400 		add	r0, r7, #20
 2750 0abc 0344     		add	r3, r3, r0
 2751 0abe 4A40     		eors	r2, r2, r1
 2752 0ac0 1A60     		str	r2, [r3]
 2753              	.L52:
 2754              		.loc 1 438 0 discriminator 4
 2755 0ac2 D7F81831 		ldr	r3, [r7, #280]
 2756 0ac6 0133     		adds	r3, r3, #1
ARM GAS  C:\Users\dtjld\AppData\Local\Temp\ccRGkA1L.s 			page 57


 2757 0ac8 C7F81831 		str	r3, [r7, #280]
 2758              	.L51:
 2759              		.loc 1 438 0 discriminator 5
 2760 0acc D7F81831 		ldr	r3, [r7, #280]
 2761 0ad0 042B     		cmp	r3, #4
 2762 0ad2 7FF661AF 		bls	.L53
 2763              		.loc 1 438 0 discriminator 7
 2764 0ad6 0023     		movs	r3, #0
 2765 0ad8 C7F81831 		str	r3, [r7, #280]
 2766 0adc 2EE0     		b	.L54
 2767              	.L56:
 2768              		.loc 1 438 0 discriminator 13
 2769 0ade 3D49     		ldr	r1, .L68+4
 2770 0ae0 D7F81C21 		ldr	r2, [r7, #284]
 2771 0ae4 1346     		mov	r3, r2
 2772 0ae6 9B00     		lsls	r3, r3, #2
 2773 0ae8 1344     		add	r3, r3, r2
 2774 0aea 1B01     		lsls	r3, r3, #4
 2775 0aec CA18     		adds	r2, r1, r3
 2776 0aee D7F81831 		ldr	r3, [r7, #280]
 2777 0af2 1344     		add	r3, r3, r2
 2778 0af4 3C33     		adds	r3, r3, #60
 2779 0af6 93F90030 		ldrsb	r3, [r3]
 2780 0afa B3F1FF3F 		cmp	r3, #-1
 2781 0afe 18D0     		beq	.L55
 2782              		.loc 1 438 0 discriminator 9
 2783 0b00 3449     		ldr	r1, .L68+4
 2784 0b02 D7F81C21 		ldr	r2, [r7, #284]
 2785 0b06 1346     		mov	r3, r2
 2786 0b08 9B00     		lsls	r3, r3, #2
 2787 0b0a 1344     		add	r3, r3, r2
 2788 0b0c 1B01     		lsls	r3, r3, #4
 2789 0b0e CA18     		adds	r2, r1, r3
 2790 0b10 D7F81831 		ldr	r3, [r7, #280]
 2791 0b14 1344     		add	r3, r3, r2
 2792 0b16 3C33     		adds	r3, r3, #60
 2793 0b18 93F90030 		ldrsb	r3, [r3]
 2794 0b1c 9B00     		lsls	r3, r3, #2
 2795 0b1e D7F81421 		ldr	r2, [r7, #276]
 2796 0b22 1344     		add	r3, r3, r2
 2797 0b24 07F11402 		add	r2, r7, #20
 2798 0b28 D7F81811 		ldr	r1, [r7, #280]
 2799 0b2c 52F82120 		ldr	r2, [r2, r1, lsl #2]
 2800 0b30 1A60     		str	r2, [r3]
 2801              	.L55:
 2802              		.loc 1 438 0 discriminator 11
 2803 0b32 D7F81831 		ldr	r3, [r7, #280]
 2804 0b36 0133     		adds	r3, r3, #1
 2805 0b38 C7F81831 		str	r3, [r7, #280]
 2806              	.L54:
 2807              		.loc 1 438 0 discriminator 12
 2808 0b3c D7F81831 		ldr	r3, [r7, #280]
 2809 0b40 132B     		cmp	r3, #19
 2810 0b42 CCD9     		bls	.L56
 2811              	.L50:
 439:C:/Users/dtjld/workspace/AIoT/src/LiteOS_Lab/iot_link/network/dtls/mbedtls/mbedtls-2.16.2/library\camellia.c ****     }
 440:C:/Users/dtjld/workspace/AIoT/src/LiteOS_Lab/iot_link/network/dtls/mbedtls/mbedtls-2.16.2/library\camellia.c **** 
ARM GAS  C:\Users\dtjld\AppData\Local\Temp\ccRGkA1L.s 			page 58


 441:C:/Users/dtjld/workspace/AIoT/src/LiteOS_Lab/iot_link/network/dtls/mbedtls/mbedtls-2.16.2/library\camellia.c ****     /* Do transpositions */
 442:C:/Users/dtjld/workspace/AIoT/src/LiteOS_Lab/iot_link/network/dtls/mbedtls/mbedtls-2.16.2/library\camellia.c ****     for( i = 0; i < 20; i++ ) {
 2812              		.loc 1 442 0 is_stmt 1
 2813 0b44 0023     		movs	r3, #0
 2814 0b46 C7F81831 		str	r3, [r7, #280]
 2815 0b4a 36E0     		b	.L57
 2816              	.L59:
 443:C:/Users/dtjld/workspace/AIoT/src/LiteOS_Lab/iot_link/network/dtls/mbedtls/mbedtls-2.16.2/library\camellia.c ****         if( transposes[idx][i] != -1 ) {
 2817              		.loc 1 443 0
 2818 0b4c 2249     		ldr	r1, .L68+8
 2819 0b4e D7F81C21 		ldr	r2, [r7, #284]
 2820 0b52 1346     		mov	r3, r2
 2821 0b54 9B00     		lsls	r3, r3, #2
 2822 0b56 1344     		add	r3, r3, r2
 2823 0b58 9B00     		lsls	r3, r3, #2
 2824 0b5a CA18     		adds	r2, r1, r3
 2825 0b5c D7F81831 		ldr	r3, [r7, #280]
 2826 0b60 1344     		add	r3, r3, r2
 2827 0b62 93F90030 		ldrsb	r3, [r3]
 2828 0b66 B3F1FF3F 		cmp	r3, #-1
 2829 0b6a 21D0     		beq	.L58
 444:C:/Users/dtjld/workspace/AIoT/src/LiteOS_Lab/iot_link/network/dtls/mbedtls/mbedtls-2.16.2/library\camellia.c ****             RK[32 + 12 * idx + i] = RK[transposes[idx][i]];
 2830              		.loc 1 444 0
 2831 0b6c 1A49     		ldr	r1, .L68+8
 2832 0b6e D7F81C21 		ldr	r2, [r7, #284]
 2833 0b72 1346     		mov	r3, r2
 2834 0b74 9B00     		lsls	r3, r3, #2
 2835 0b76 1344     		add	r3, r3, r2
 2836 0b78 9B00     		lsls	r3, r3, #2
 2837 0b7a CA18     		adds	r2, r1, r3
 2838 0b7c D7F81831 		ldr	r3, [r7, #280]
 2839 0b80 1344     		add	r3, r3, r2
 2840 0b82 93F90030 		ldrsb	r3, [r3]
 2841 0b86 9B00     		lsls	r3, r3, #2
 2842 0b88 D7F81421 		ldr	r2, [r7, #276]
 2843 0b8c D118     		adds	r1, r2, r3
 2844 0b8e D7F81C21 		ldr	r2, [r7, #284]
 2845 0b92 1346     		mov	r3, r2
 2846 0b94 5B00     		lsls	r3, r3, #1
 2847 0b96 1344     		add	r3, r3, r2
 2848 0b98 9B00     		lsls	r3, r3, #2
 2849 0b9a 1A46     		mov	r2, r3
 2850 0b9c D7F81831 		ldr	r3, [r7, #280]
 2851 0ba0 1344     		add	r3, r3, r2
 2852 0ba2 2033     		adds	r3, r3, #32
 2853 0ba4 9B00     		lsls	r3, r3, #2
 2854 0ba6 D7F81421 		ldr	r2, [r7, #276]
 2855 0baa 1344     		add	r3, r3, r2
 2856 0bac 0A68     		ldr	r2, [r1]
 2857 0bae 1A60     		str	r2, [r3]
 2858              	.L58:
 442:C:/Users/dtjld/workspace/AIoT/src/LiteOS_Lab/iot_link/network/dtls/mbedtls/mbedtls-2.16.2/library\camellia.c ****         if( transposes[idx][i] != -1 ) {
 2859              		.loc 1 442 0 discriminator 2
 2860 0bb0 D7F81831 		ldr	r3, [r7, #280]
 2861 0bb4 0133     		adds	r3, r3, #1
 2862 0bb6 C7F81831 		str	r3, [r7, #280]
 2863              	.L57:
ARM GAS  C:\Users\dtjld\AppData\Local\Temp\ccRGkA1L.s 			page 59


 442:C:/Users/dtjld/workspace/AIoT/src/LiteOS_Lab/iot_link/network/dtls/mbedtls/mbedtls-2.16.2/library\camellia.c ****         if( transposes[idx][i] != -1 ) {
 2864              		.loc 1 442 0 is_stmt 0 discriminator 1
 2865 0bba D7F81831 		ldr	r3, [r7, #280]
 2866 0bbe 132B     		cmp	r3, #19
 2867 0bc0 C4D9     		bls	.L59
 445:C:/Users/dtjld/workspace/AIoT/src/LiteOS_Lab/iot_link/network/dtls/mbedtls/mbedtls-2.16.2/library\camellia.c ****         }
 446:C:/Users/dtjld/workspace/AIoT/src/LiteOS_Lab/iot_link/network/dtls/mbedtls/mbedtls-2.16.2/library\camellia.c ****     }
 447:C:/Users/dtjld/workspace/AIoT/src/LiteOS_Lab/iot_link/network/dtls/mbedtls/mbedtls-2.16.2/library\camellia.c **** 
 448:C:/Users/dtjld/workspace/AIoT/src/LiteOS_Lab/iot_link/network/dtls/mbedtls/mbedtls-2.16.2/library\camellia.c ****     return( 0 );
 2868              		.loc 1 448 0 is_stmt 1
 2869 0bc2 0023     		movs	r3, #0
 2870              	.L60:
 449:C:/Users/dtjld/workspace/AIoT/src/LiteOS_Lab/iot_link/network/dtls/mbedtls/mbedtls-2.16.2/library\camellia.c **** }
 2871              		.loc 1 449 0 discriminator 1
 2872 0bc4 1846     		mov	r0, r3
 2873 0bc6 07F59077 		add	r7, r7, #288
 2874              	.LCFI19:
 2875              		.cfi_def_cfa_offset 8
 2876 0bca BD46     		mov	sp, r7
 2877              	.LCFI20:
 2878              		.cfi_def_cfa_register 13
 2879              		@ sp needed
 2880 0bcc 80BD     		pop	{r7, pc}
 2881              	.L69:
 2882 0bce 00BF     		.align	2
 2883              	.L68:
 2884 0bd0 00000000 		.word	shifts
 2885 0bd4 00000000 		.word	indexes
 2886 0bd8 00000000 		.word	transposes
 2887              		.cfi_endproc
 2888              	.LFE6:
 2890              		.section	.text.mbedtls_camellia_setkey_dec,"ax",%progbits
 2891              		.align	1
 2892              		.global	mbedtls_camellia_setkey_dec
 2893              		.syntax unified
 2894              		.thumb
 2895              		.thumb_func
 2896              		.fpu fpv4-sp-d16
 2898              	mbedtls_camellia_setkey_dec:
 2899              	.LFB7:
 450:C:/Users/dtjld/workspace/AIoT/src/LiteOS_Lab/iot_link/network/dtls/mbedtls/mbedtls-2.16.2/library\camellia.c **** 
 451:C:/Users/dtjld/workspace/AIoT/src/LiteOS_Lab/iot_link/network/dtls/mbedtls/mbedtls-2.16.2/library\camellia.c **** /*
 452:C:/Users/dtjld/workspace/AIoT/src/LiteOS_Lab/iot_link/network/dtls/mbedtls/mbedtls-2.16.2/library\camellia.c ****  * Camellia key schedule (decryption)
 453:C:/Users/dtjld/workspace/AIoT/src/LiteOS_Lab/iot_link/network/dtls/mbedtls/mbedtls-2.16.2/library\camellia.c ****  */
 454:C:/Users/dtjld/workspace/AIoT/src/LiteOS_Lab/iot_link/network/dtls/mbedtls/mbedtls-2.16.2/library\camellia.c **** int mbedtls_camellia_setkey_dec( mbedtls_camellia_context *ctx,
 455:C:/Users/dtjld/workspace/AIoT/src/LiteOS_Lab/iot_link/network/dtls/mbedtls/mbedtls-2.16.2/library\camellia.c ****                                  const unsigned char *key,
 456:C:/Users/dtjld/workspace/AIoT/src/LiteOS_Lab/iot_link/network/dtls/mbedtls/mbedtls-2.16.2/library\camellia.c ****                                  unsigned int keybits )
 457:C:/Users/dtjld/workspace/AIoT/src/LiteOS_Lab/iot_link/network/dtls/mbedtls/mbedtls-2.16.2/library\camellia.c **** {
 2900              		.loc 1 457 0
 2901              		.cfi_startproc
 2902              		@ args = 0, pretend = 0, frame = 312
 2903              		@ frame_needed = 1, uses_anonymous_args = 0
 2904 0000 80B5     		push	{r7, lr}
 2905              	.LCFI21:
 2906              		.cfi_def_cfa_offset 8
 2907              		.cfi_offset 7, -8
 2908              		.cfi_offset 14, -4
ARM GAS  C:\Users\dtjld\AppData\Local\Temp\ccRGkA1L.s 			page 60


 2909 0002 CEB0     		sub	sp, sp, #312
 2910              	.LCFI22:
 2911              		.cfi_def_cfa_offset 320
 2912 0004 00AF     		add	r7, sp, #0
 2913              	.LCFI23:
 2914              		.cfi_def_cfa_register 7
 2915 0006 07F10C03 		add	r3, r7, #12
 2916 000a 1860     		str	r0, [r3]
 2917 000c 07F10803 		add	r3, r7, #8
 2918 0010 1960     		str	r1, [r3]
 2919 0012 3B1D     		adds	r3, r7, #4
 2920 0014 1A60     		str	r2, [r3]
 458:C:/Users/dtjld/workspace/AIoT/src/LiteOS_Lab/iot_link/network/dtls/mbedtls/mbedtls-2.16.2/library\camellia.c ****     int idx, ret;
 459:C:/Users/dtjld/workspace/AIoT/src/LiteOS_Lab/iot_link/network/dtls/mbedtls/mbedtls-2.16.2/library\camellia.c ****     size_t i;
 460:C:/Users/dtjld/workspace/AIoT/src/LiteOS_Lab/iot_link/network/dtls/mbedtls/mbedtls-2.16.2/library\camellia.c ****     mbedtls_camellia_context cty;
 461:C:/Users/dtjld/workspace/AIoT/src/LiteOS_Lab/iot_link/network/dtls/mbedtls/mbedtls-2.16.2/library\camellia.c ****     uint32_t *RK;
 462:C:/Users/dtjld/workspace/AIoT/src/LiteOS_Lab/iot_link/network/dtls/mbedtls/mbedtls-2.16.2/library\camellia.c ****     uint32_t *SK;
 463:C:/Users/dtjld/workspace/AIoT/src/LiteOS_Lab/iot_link/network/dtls/mbedtls/mbedtls-2.16.2/library\camellia.c ****     CAMELLIA_VALIDATE_RET( ctx != NULL );
 464:C:/Users/dtjld/workspace/AIoT/src/LiteOS_Lab/iot_link/network/dtls/mbedtls/mbedtls-2.16.2/library\camellia.c ****     CAMELLIA_VALIDATE_RET( key != NULL );
 465:C:/Users/dtjld/workspace/AIoT/src/LiteOS_Lab/iot_link/network/dtls/mbedtls/mbedtls-2.16.2/library\camellia.c **** 
 466:C:/Users/dtjld/workspace/AIoT/src/LiteOS_Lab/iot_link/network/dtls/mbedtls/mbedtls-2.16.2/library\camellia.c ****     mbedtls_camellia_init( &cty );
 2921              		.loc 1 466 0
 2922 0016 07F11003 		add	r3, r7, #16
 2923 001a 1846     		mov	r0, r3
 2924 001c FFF7FEFF 		bl	mbedtls_camellia_init
 467:C:/Users/dtjld/workspace/AIoT/src/LiteOS_Lab/iot_link/network/dtls/mbedtls/mbedtls-2.16.2/library\camellia.c **** 
 468:C:/Users/dtjld/workspace/AIoT/src/LiteOS_Lab/iot_link/network/dtls/mbedtls/mbedtls-2.16.2/library\camellia.c ****     /* Also checks keybits */
 469:C:/Users/dtjld/workspace/AIoT/src/LiteOS_Lab/iot_link/network/dtls/mbedtls/mbedtls-2.16.2/library\camellia.c ****     if( ( ret = mbedtls_camellia_setkey_enc( &cty, key, keybits ) ) != 0 )
 2925              		.loc 1 469 0
 2926 0020 3A1D     		adds	r2, r7, #4
 2927 0022 07F10803 		add	r3, r7, #8
 2928 0026 07F11000 		add	r0, r7, #16
 2929 002a 1268     		ldr	r2, [r2]
 2930 002c 1968     		ldr	r1, [r3]
 2931 002e FFF7FEFF 		bl	mbedtls_camellia_setkey_enc
 2932 0032 C7F82801 		str	r0, [r7, #296]
 2933 0036 D7F82831 		ldr	r3, [r7, #296]
 2934 003a 002B     		cmp	r3, #0
 2935 003c 40F0BA80 		bne	.L76
 470:C:/Users/dtjld/workspace/AIoT/src/LiteOS_Lab/iot_link/network/dtls/mbedtls/mbedtls-2.16.2/library\camellia.c ****         goto exit;
 471:C:/Users/dtjld/workspace/AIoT/src/LiteOS_Lab/iot_link/network/dtls/mbedtls/mbedtls-2.16.2/library\camellia.c **** 
 472:C:/Users/dtjld/workspace/AIoT/src/LiteOS_Lab/iot_link/network/dtls/mbedtls/mbedtls-2.16.2/library\camellia.c ****     ctx->nr = cty.nr;
 2936              		.loc 1 472 0
 2937 0040 07F11003 		add	r3, r7, #16
 2938 0044 1A68     		ldr	r2, [r3]
 2939 0046 07F10C03 		add	r3, r7, #12
 2940 004a 1B68     		ldr	r3, [r3]
 2941 004c 1A60     		str	r2, [r3]
 473:C:/Users/dtjld/workspace/AIoT/src/LiteOS_Lab/iot_link/network/dtls/mbedtls/mbedtls-2.16.2/library\camellia.c ****     idx = ( ctx->nr == 4 );
 2942              		.loc 1 473 0
 2943 004e 07F10C03 		add	r3, r7, #12
 2944 0052 1B68     		ldr	r3, [r3]
 2945 0054 1B68     		ldr	r3, [r3]
 2946 0056 042B     		cmp	r3, #4
 2947 0058 0CBF     		ite	eq
 2948 005a 0123     		moveq	r3, #1
 2949 005c 0023     		movne	r3, #0
ARM GAS  C:\Users\dtjld\AppData\Local\Temp\ccRGkA1L.s 			page 61


 2950 005e DBB2     		uxtb	r3, r3
 2951 0060 C7F82431 		str	r3, [r7, #292]
 474:C:/Users/dtjld/workspace/AIoT/src/LiteOS_Lab/iot_link/network/dtls/mbedtls/mbedtls-2.16.2/library\camellia.c **** 
 475:C:/Users/dtjld/workspace/AIoT/src/LiteOS_Lab/iot_link/network/dtls/mbedtls/mbedtls-2.16.2/library\camellia.c ****     RK = ctx->rk;
 2952              		.loc 1 475 0
 2953 0064 07F10C03 		add	r3, r7, #12
 2954 0068 1B68     		ldr	r3, [r3]
 2955 006a 0433     		adds	r3, r3, #4
 2956 006c C7F83031 		str	r3, [r7, #304]
 476:C:/Users/dtjld/workspace/AIoT/src/LiteOS_Lab/iot_link/network/dtls/mbedtls/mbedtls-2.16.2/library\camellia.c ****     SK = cty.rk + 24 * 2 + 8 * idx * 2;
 2957              		.loc 1 476 0
 2958 0070 D7F82431 		ldr	r3, [r7, #292]
 2959 0074 9B01     		lsls	r3, r3, #6
 2960 0076 C033     		adds	r3, r3, #192
 2961 0078 07F11002 		add	r2, r7, #16
 2962 007c 0432     		adds	r2, r2, #4
 2963 007e 1344     		add	r3, r3, r2
 2964 0080 C7F82C31 		str	r3, [r7, #300]
 477:C:/Users/dtjld/workspace/AIoT/src/LiteOS_Lab/iot_link/network/dtls/mbedtls/mbedtls-2.16.2/library\camellia.c **** 
 478:C:/Users/dtjld/workspace/AIoT/src/LiteOS_Lab/iot_link/network/dtls/mbedtls/mbedtls-2.16.2/library\camellia.c ****     *RK++ = *SK++;
 2965              		.loc 1 478 0
 2966 0084 D7F82C21 		ldr	r2, [r7, #300]
 2967 0088 131D     		adds	r3, r2, #4
 2968 008a C7F82C31 		str	r3, [r7, #300]
 2969 008e D7F83031 		ldr	r3, [r7, #304]
 2970 0092 191D     		adds	r1, r3, #4
 2971 0094 C7F83011 		str	r1, [r7, #304]
 2972 0098 1268     		ldr	r2, [r2]
 2973 009a 1A60     		str	r2, [r3]
 479:C:/Users/dtjld/workspace/AIoT/src/LiteOS_Lab/iot_link/network/dtls/mbedtls/mbedtls-2.16.2/library\camellia.c ****     *RK++ = *SK++;
 2974              		.loc 1 479 0
 2975 009c D7F82C21 		ldr	r2, [r7, #300]
 2976 00a0 131D     		adds	r3, r2, #4
 2977 00a2 C7F82C31 		str	r3, [r7, #300]
 2978 00a6 D7F83031 		ldr	r3, [r7, #304]
 2979 00aa 191D     		adds	r1, r3, #4
 2980 00ac C7F83011 		str	r1, [r7, #304]
 2981 00b0 1268     		ldr	r2, [r2]
 2982 00b2 1A60     		str	r2, [r3]
 480:C:/Users/dtjld/workspace/AIoT/src/LiteOS_Lab/iot_link/network/dtls/mbedtls/mbedtls-2.16.2/library\camellia.c ****     *RK++ = *SK++;
 2983              		.loc 1 480 0
 2984 00b4 D7F82C21 		ldr	r2, [r7, #300]
 2985 00b8 131D     		adds	r3, r2, #4
 2986 00ba C7F82C31 		str	r3, [r7, #300]
 2987 00be D7F83031 		ldr	r3, [r7, #304]
 2988 00c2 191D     		adds	r1, r3, #4
 2989 00c4 C7F83011 		str	r1, [r7, #304]
 2990 00c8 1268     		ldr	r2, [r2]
 2991 00ca 1A60     		str	r2, [r3]
 481:C:/Users/dtjld/workspace/AIoT/src/LiteOS_Lab/iot_link/network/dtls/mbedtls/mbedtls-2.16.2/library\camellia.c ****     *RK++ = *SK++;
 2992              		.loc 1 481 0
 2993 00cc D7F82C21 		ldr	r2, [r7, #300]
 2994 00d0 131D     		adds	r3, r2, #4
 2995 00d2 C7F82C31 		str	r3, [r7, #300]
 2996 00d6 D7F83031 		ldr	r3, [r7, #304]
 2997 00da 191D     		adds	r1, r3, #4
 2998 00dc C7F83011 		str	r1, [r7, #304]
ARM GAS  C:\Users\dtjld\AppData\Local\Temp\ccRGkA1L.s 			page 62


 2999 00e0 1268     		ldr	r2, [r2]
 3000 00e2 1A60     		str	r2, [r3]
 482:C:/Users/dtjld/workspace/AIoT/src/LiteOS_Lab/iot_link/network/dtls/mbedtls/mbedtls-2.16.2/library\camellia.c **** 
 483:C:/Users/dtjld/workspace/AIoT/src/LiteOS_Lab/iot_link/network/dtls/mbedtls/mbedtls-2.16.2/library\camellia.c ****     for( i = 22 + 8 * idx, SK -= 6; i > 0; i--, SK -= 4 )
 3001              		.loc 1 483 0
 3002 00e4 D7F82431 		ldr	r3, [r7, #292]
 3003 00e8 DB00     		lsls	r3, r3, #3
 3004 00ea 1633     		adds	r3, r3, #22
 3005 00ec C7F83431 		str	r3, [r7, #308]
 3006 00f0 D7F82C31 		ldr	r3, [r7, #300]
 3007 00f4 183B     		subs	r3, r3, #24
 3008 00f6 C7F82C31 		str	r3, [r7, #300]
 3009 00fa 21E0     		b	.L73
 3010              	.L74:
 484:C:/Users/dtjld/workspace/AIoT/src/LiteOS_Lab/iot_link/network/dtls/mbedtls/mbedtls-2.16.2/library\camellia.c ****     {
 485:C:/Users/dtjld/workspace/AIoT/src/LiteOS_Lab/iot_link/network/dtls/mbedtls/mbedtls-2.16.2/library\camellia.c ****         *RK++ = *SK++;
 3011              		.loc 1 485 0 discriminator 3
 3012 00fc D7F82C21 		ldr	r2, [r7, #300]
 3013 0100 131D     		adds	r3, r2, #4
 3014 0102 C7F82C31 		str	r3, [r7, #300]
 3015 0106 D7F83031 		ldr	r3, [r7, #304]
 3016 010a 191D     		adds	r1, r3, #4
 3017 010c C7F83011 		str	r1, [r7, #304]
 3018 0110 1268     		ldr	r2, [r2]
 3019 0112 1A60     		str	r2, [r3]
 486:C:/Users/dtjld/workspace/AIoT/src/LiteOS_Lab/iot_link/network/dtls/mbedtls/mbedtls-2.16.2/library\camellia.c ****         *RK++ = *SK++;
 3020              		.loc 1 486 0 discriminator 3
 3021 0114 D7F82C21 		ldr	r2, [r7, #300]
 3022 0118 131D     		adds	r3, r2, #4
 3023 011a C7F82C31 		str	r3, [r7, #300]
 3024 011e D7F83031 		ldr	r3, [r7, #304]
 3025 0122 191D     		adds	r1, r3, #4
 3026 0124 C7F83011 		str	r1, [r7, #304]
 3027 0128 1268     		ldr	r2, [r2]
 3028 012a 1A60     		str	r2, [r3]
 483:C:/Users/dtjld/workspace/AIoT/src/LiteOS_Lab/iot_link/network/dtls/mbedtls/mbedtls-2.16.2/library\camellia.c ****     {
 3029              		.loc 1 483 0 discriminator 3
 3030 012c D7F83431 		ldr	r3, [r7, #308]
 3031 0130 013B     		subs	r3, r3, #1
 3032 0132 C7F83431 		str	r3, [r7, #308]
 3033 0136 D7F82C31 		ldr	r3, [r7, #300]
 3034 013a 103B     		subs	r3, r3, #16
 3035 013c C7F82C31 		str	r3, [r7, #300]
 3036              	.L73:
 483:C:/Users/dtjld/workspace/AIoT/src/LiteOS_Lab/iot_link/network/dtls/mbedtls/mbedtls-2.16.2/library\camellia.c ****     {
 3037              		.loc 1 483 0 is_stmt 0 discriminator 1
 3038 0140 D7F83431 		ldr	r3, [r7, #308]
 3039 0144 002B     		cmp	r3, #0
 3040 0146 D9D1     		bne	.L74
 487:C:/Users/dtjld/workspace/AIoT/src/LiteOS_Lab/iot_link/network/dtls/mbedtls/mbedtls-2.16.2/library\camellia.c ****     }
 488:C:/Users/dtjld/workspace/AIoT/src/LiteOS_Lab/iot_link/network/dtls/mbedtls/mbedtls-2.16.2/library\camellia.c **** 
 489:C:/Users/dtjld/workspace/AIoT/src/LiteOS_Lab/iot_link/network/dtls/mbedtls/mbedtls-2.16.2/library\camellia.c ****     SK -= 2;
 3041              		.loc 1 489 0 is_stmt 1
 3042 0148 D7F82C31 		ldr	r3, [r7, #300]
 3043 014c 083B     		subs	r3, r3, #8
 3044 014e C7F82C31 		str	r3, [r7, #300]
 490:C:/Users/dtjld/workspace/AIoT/src/LiteOS_Lab/iot_link/network/dtls/mbedtls/mbedtls-2.16.2/library\camellia.c **** 
ARM GAS  C:\Users\dtjld\AppData\Local\Temp\ccRGkA1L.s 			page 63


 491:C:/Users/dtjld/workspace/AIoT/src/LiteOS_Lab/iot_link/network/dtls/mbedtls/mbedtls-2.16.2/library\camellia.c ****     *RK++ = *SK++;
 3045              		.loc 1 491 0
 3046 0152 D7F82C21 		ldr	r2, [r7, #300]
 3047 0156 131D     		adds	r3, r2, #4
 3048 0158 C7F82C31 		str	r3, [r7, #300]
 3049 015c D7F83031 		ldr	r3, [r7, #304]
 3050 0160 191D     		adds	r1, r3, #4
 3051 0162 C7F83011 		str	r1, [r7, #304]
 3052 0166 1268     		ldr	r2, [r2]
 3053 0168 1A60     		str	r2, [r3]
 492:C:/Users/dtjld/workspace/AIoT/src/LiteOS_Lab/iot_link/network/dtls/mbedtls/mbedtls-2.16.2/library\camellia.c ****     *RK++ = *SK++;
 3054              		.loc 1 492 0
 3055 016a D7F82C21 		ldr	r2, [r7, #300]
 3056 016e 131D     		adds	r3, r2, #4
 3057 0170 C7F82C31 		str	r3, [r7, #300]
 3058 0174 D7F83031 		ldr	r3, [r7, #304]
 3059 0178 191D     		adds	r1, r3, #4
 3060 017a C7F83011 		str	r1, [r7, #304]
 3061 017e 1268     		ldr	r2, [r2]
 3062 0180 1A60     		str	r2, [r3]
 493:C:/Users/dtjld/workspace/AIoT/src/LiteOS_Lab/iot_link/network/dtls/mbedtls/mbedtls-2.16.2/library\camellia.c ****     *RK++ = *SK++;
 3063              		.loc 1 493 0
 3064 0182 D7F82C21 		ldr	r2, [r7, #300]
 3065 0186 131D     		adds	r3, r2, #4
 3066 0188 C7F82C31 		str	r3, [r7, #300]
 3067 018c D7F83031 		ldr	r3, [r7, #304]
 3068 0190 191D     		adds	r1, r3, #4
 3069 0192 C7F83011 		str	r1, [r7, #304]
 3070 0196 1268     		ldr	r2, [r2]
 3071 0198 1A60     		str	r2, [r3]
 494:C:/Users/dtjld/workspace/AIoT/src/LiteOS_Lab/iot_link/network/dtls/mbedtls/mbedtls-2.16.2/library\camellia.c ****     *RK++ = *SK++;
 3072              		.loc 1 494 0
 3073 019a D7F82C21 		ldr	r2, [r7, #300]
 3074 019e 131D     		adds	r3, r2, #4
 3075 01a0 C7F82C31 		str	r3, [r7, #300]
 3076 01a4 D7F83031 		ldr	r3, [r7, #304]
 3077 01a8 191D     		adds	r1, r3, #4
 3078 01aa C7F83011 		str	r1, [r7, #304]
 3079 01ae 1268     		ldr	r2, [r2]
 3080 01b0 1A60     		str	r2, [r3]
 3081 01b2 00E0     		b	.L72
 3082              	.L76:
 470:C:/Users/dtjld/workspace/AIoT/src/LiteOS_Lab/iot_link/network/dtls/mbedtls/mbedtls-2.16.2/library\camellia.c **** 
 3083              		.loc 1 470 0
 3084 01b4 00BF     		nop
 3085              	.L72:
 495:C:/Users/dtjld/workspace/AIoT/src/LiteOS_Lab/iot_link/network/dtls/mbedtls/mbedtls-2.16.2/library\camellia.c **** 
 496:C:/Users/dtjld/workspace/AIoT/src/LiteOS_Lab/iot_link/network/dtls/mbedtls/mbedtls-2.16.2/library\camellia.c **** exit:
 497:C:/Users/dtjld/workspace/AIoT/src/LiteOS_Lab/iot_link/network/dtls/mbedtls/mbedtls-2.16.2/library\camellia.c ****     mbedtls_camellia_free( &cty );
 3086              		.loc 1 497 0
 3087 01b6 07F11003 		add	r3, r7, #16
 3088 01ba 1846     		mov	r0, r3
 3089 01bc FFF7FEFF 		bl	mbedtls_camellia_free
 498:C:/Users/dtjld/workspace/AIoT/src/LiteOS_Lab/iot_link/network/dtls/mbedtls/mbedtls-2.16.2/library\camellia.c **** 
 499:C:/Users/dtjld/workspace/AIoT/src/LiteOS_Lab/iot_link/network/dtls/mbedtls/mbedtls-2.16.2/library\camellia.c ****     return( ret );
 3090              		.loc 1 499 0
 3091 01c0 D7F82831 		ldr	r3, [r7, #296]
ARM GAS  C:\Users\dtjld\AppData\Local\Temp\ccRGkA1L.s 			page 64


 500:C:/Users/dtjld/workspace/AIoT/src/LiteOS_Lab/iot_link/network/dtls/mbedtls/mbedtls-2.16.2/library\camellia.c **** }
 3092              		.loc 1 500 0
 3093 01c4 1846     		mov	r0, r3
 3094 01c6 07F59C77 		add	r7, r7, #312
 3095              	.LCFI24:
 3096              		.cfi_def_cfa_offset 8
 3097 01ca BD46     		mov	sp, r7
 3098              	.LCFI25:
 3099              		.cfi_def_cfa_register 13
 3100              		@ sp needed
 3101 01cc 80BD     		pop	{r7, pc}
 3102              		.cfi_endproc
 3103              	.LFE7:
 3105              		.section	.text.mbedtls_camellia_crypt_ecb,"ax",%progbits
 3106              		.align	1
 3107              		.global	mbedtls_camellia_crypt_ecb
 3108              		.syntax unified
 3109              		.thumb
 3110              		.thumb_func
 3111              		.fpu fpv4-sp-d16
 3113              	mbedtls_camellia_crypt_ecb:
 3114              	.LFB8:
 501:C:/Users/dtjld/workspace/AIoT/src/LiteOS_Lab/iot_link/network/dtls/mbedtls/mbedtls-2.16.2/library\camellia.c **** 
 502:C:/Users/dtjld/workspace/AIoT/src/LiteOS_Lab/iot_link/network/dtls/mbedtls/mbedtls-2.16.2/library\camellia.c **** /*
 503:C:/Users/dtjld/workspace/AIoT/src/LiteOS_Lab/iot_link/network/dtls/mbedtls/mbedtls-2.16.2/library\camellia.c ****  * Camellia-ECB block encryption/decryption
 504:C:/Users/dtjld/workspace/AIoT/src/LiteOS_Lab/iot_link/network/dtls/mbedtls/mbedtls-2.16.2/library\camellia.c ****  */
 505:C:/Users/dtjld/workspace/AIoT/src/LiteOS_Lab/iot_link/network/dtls/mbedtls/mbedtls-2.16.2/library\camellia.c **** int mbedtls_camellia_crypt_ecb( mbedtls_camellia_context *ctx,
 506:C:/Users/dtjld/workspace/AIoT/src/LiteOS_Lab/iot_link/network/dtls/mbedtls/mbedtls-2.16.2/library\camellia.c ****                     int mode,
 507:C:/Users/dtjld/workspace/AIoT/src/LiteOS_Lab/iot_link/network/dtls/mbedtls/mbedtls-2.16.2/library\camellia.c ****                     const unsigned char input[16],
 508:C:/Users/dtjld/workspace/AIoT/src/LiteOS_Lab/iot_link/network/dtls/mbedtls/mbedtls-2.16.2/library\camellia.c ****                     unsigned char output[16] )
 509:C:/Users/dtjld/workspace/AIoT/src/LiteOS_Lab/iot_link/network/dtls/mbedtls/mbedtls-2.16.2/library\camellia.c **** {
 3115              		.loc 1 509 0
 3116              		.cfi_startproc
 3117              		@ args = 0, pretend = 0, frame = 40
 3118              		@ frame_needed = 1, uses_anonymous_args = 0
 3119 0000 80B5     		push	{r7, lr}
 3120              	.LCFI26:
 3121              		.cfi_def_cfa_offset 8
 3122              		.cfi_offset 7, -8
 3123              		.cfi_offset 14, -4
 3124 0002 8AB0     		sub	sp, sp, #40
 3125              	.LCFI27:
 3126              		.cfi_def_cfa_offset 48
 3127 0004 00AF     		add	r7, sp, #0
 3128              	.LCFI28:
 3129              		.cfi_def_cfa_register 7
 3130 0006 F860     		str	r0, [r7, #12]
 3131 0008 B960     		str	r1, [r7, #8]
 3132 000a 7A60     		str	r2, [r7, #4]
 3133 000c 3B60     		str	r3, [r7]
 510:C:/Users/dtjld/workspace/AIoT/src/LiteOS_Lab/iot_link/network/dtls/mbedtls/mbedtls-2.16.2/library\camellia.c ****     int NR;
 511:C:/Users/dtjld/workspace/AIoT/src/LiteOS_Lab/iot_link/network/dtls/mbedtls/mbedtls-2.16.2/library\camellia.c ****     uint32_t *RK, X[4];
 512:C:/Users/dtjld/workspace/AIoT/src/LiteOS_Lab/iot_link/network/dtls/mbedtls/mbedtls-2.16.2/library\camellia.c ****     CAMELLIA_VALIDATE_RET( ctx != NULL );
 513:C:/Users/dtjld/workspace/AIoT/src/LiteOS_Lab/iot_link/network/dtls/mbedtls/mbedtls-2.16.2/library\camellia.c ****     CAMELLIA_VALIDATE_RET( mode == MBEDTLS_CAMELLIA_ENCRYPT ||
 514:C:/Users/dtjld/workspace/AIoT/src/LiteOS_Lab/iot_link/network/dtls/mbedtls/mbedtls-2.16.2/library\camellia.c ****                            mode == MBEDTLS_CAMELLIA_DECRYPT );
 515:C:/Users/dtjld/workspace/AIoT/src/LiteOS_Lab/iot_link/network/dtls/mbedtls/mbedtls-2.16.2/library\camellia.c ****     CAMELLIA_VALIDATE_RET( input  != NULL );
 516:C:/Users/dtjld/workspace/AIoT/src/LiteOS_Lab/iot_link/network/dtls/mbedtls/mbedtls-2.16.2/library\camellia.c ****     CAMELLIA_VALIDATE_RET( output != NULL );
ARM GAS  C:\Users\dtjld\AppData\Local\Temp\ccRGkA1L.s 			page 65


 517:C:/Users/dtjld/workspace/AIoT/src/LiteOS_Lab/iot_link/network/dtls/mbedtls/mbedtls-2.16.2/library\camellia.c **** 
 518:C:/Users/dtjld/workspace/AIoT/src/LiteOS_Lab/iot_link/network/dtls/mbedtls/mbedtls-2.16.2/library\camellia.c ****     ( (void) mode );
 519:C:/Users/dtjld/workspace/AIoT/src/LiteOS_Lab/iot_link/network/dtls/mbedtls/mbedtls-2.16.2/library\camellia.c **** 
 520:C:/Users/dtjld/workspace/AIoT/src/LiteOS_Lab/iot_link/network/dtls/mbedtls/mbedtls-2.16.2/library\camellia.c ****     NR = ctx->nr;
 3134              		.loc 1 520 0
 3135 000e FB68     		ldr	r3, [r7, #12]
 3136 0010 1B68     		ldr	r3, [r3]
 3137 0012 7B62     		str	r3, [r7, #36]
 521:C:/Users/dtjld/workspace/AIoT/src/LiteOS_Lab/iot_link/network/dtls/mbedtls/mbedtls-2.16.2/library\camellia.c ****     RK = ctx->rk;
 3138              		.loc 1 521 0
 3139 0014 FB68     		ldr	r3, [r7, #12]
 3140 0016 0433     		adds	r3, r3, #4
 3141 0018 3B62     		str	r3, [r7, #32]
 522:C:/Users/dtjld/workspace/AIoT/src/LiteOS_Lab/iot_link/network/dtls/mbedtls/mbedtls-2.16.2/library\camellia.c **** 
 523:C:/Users/dtjld/workspace/AIoT/src/LiteOS_Lab/iot_link/network/dtls/mbedtls/mbedtls-2.16.2/library\camellia.c ****     GET_UINT32_BE( X[0], input,  0 );
 3142              		.loc 1 523 0
 3143 001a 7B68     		ldr	r3, [r7, #4]
 3144 001c 1B78     		ldrb	r3, [r3]	@ zero_extendqisi2
 3145 001e 1A06     		lsls	r2, r3, #24
 3146 0020 7B68     		ldr	r3, [r7, #4]
 3147 0022 0133     		adds	r3, r3, #1
 3148 0024 1B78     		ldrb	r3, [r3]	@ zero_extendqisi2
 3149 0026 1B04     		lsls	r3, r3, #16
 3150 0028 1A43     		orrs	r2, r2, r3
 3151 002a 7B68     		ldr	r3, [r7, #4]
 3152 002c 0233     		adds	r3, r3, #2
 3153 002e 1B78     		ldrb	r3, [r3]	@ zero_extendqisi2
 3154 0030 1B02     		lsls	r3, r3, #8
 3155 0032 1343     		orrs	r3, r3, r2
 3156 0034 7A68     		ldr	r2, [r7, #4]
 3157 0036 0332     		adds	r2, r2, #3
 3158 0038 1278     		ldrb	r2, [r2]	@ zero_extendqisi2
 3159 003a 1343     		orrs	r3, r3, r2
 3160 003c 3B61     		str	r3, [r7, #16]
 524:C:/Users/dtjld/workspace/AIoT/src/LiteOS_Lab/iot_link/network/dtls/mbedtls/mbedtls-2.16.2/library\camellia.c ****     GET_UINT32_BE( X[1], input,  4 );
 3161              		.loc 1 524 0
 3162 003e 7B68     		ldr	r3, [r7, #4]
 3163 0040 0433     		adds	r3, r3, #4
 3164 0042 1B78     		ldrb	r3, [r3]	@ zero_extendqisi2
 3165 0044 1A06     		lsls	r2, r3, #24
 3166 0046 7B68     		ldr	r3, [r7, #4]
 3167 0048 0533     		adds	r3, r3, #5
 3168 004a 1B78     		ldrb	r3, [r3]	@ zero_extendqisi2
 3169 004c 1B04     		lsls	r3, r3, #16
 3170 004e 1A43     		orrs	r2, r2, r3
 3171 0050 7B68     		ldr	r3, [r7, #4]
 3172 0052 0633     		adds	r3, r3, #6
 3173 0054 1B78     		ldrb	r3, [r3]	@ zero_extendqisi2
 3174 0056 1B02     		lsls	r3, r3, #8
 3175 0058 1343     		orrs	r3, r3, r2
 3176 005a 7A68     		ldr	r2, [r7, #4]
 3177 005c 0732     		adds	r2, r2, #7
 3178 005e 1278     		ldrb	r2, [r2]	@ zero_extendqisi2
 3179 0060 1343     		orrs	r3, r3, r2
 3180 0062 7B61     		str	r3, [r7, #20]
 525:C:/Users/dtjld/workspace/AIoT/src/LiteOS_Lab/iot_link/network/dtls/mbedtls/mbedtls-2.16.2/library\camellia.c ****     GET_UINT32_BE( X[2], input,  8 );
 3181              		.loc 1 525 0
ARM GAS  C:\Users\dtjld\AppData\Local\Temp\ccRGkA1L.s 			page 66


 3182 0064 7B68     		ldr	r3, [r7, #4]
 3183 0066 0833     		adds	r3, r3, #8
 3184 0068 1B78     		ldrb	r3, [r3]	@ zero_extendqisi2
 3185 006a 1A06     		lsls	r2, r3, #24
 3186 006c 7B68     		ldr	r3, [r7, #4]
 3187 006e 0933     		adds	r3, r3, #9
 3188 0070 1B78     		ldrb	r3, [r3]	@ zero_extendqisi2
 3189 0072 1B04     		lsls	r3, r3, #16
 3190 0074 1A43     		orrs	r2, r2, r3
 3191 0076 7B68     		ldr	r3, [r7, #4]
 3192 0078 0A33     		adds	r3, r3, #10
 3193 007a 1B78     		ldrb	r3, [r3]	@ zero_extendqisi2
 3194 007c 1B02     		lsls	r3, r3, #8
 3195 007e 1343     		orrs	r3, r3, r2
 3196 0080 7A68     		ldr	r2, [r7, #4]
 3197 0082 0B32     		adds	r2, r2, #11
 3198 0084 1278     		ldrb	r2, [r2]	@ zero_extendqisi2
 3199 0086 1343     		orrs	r3, r3, r2
 3200 0088 BB61     		str	r3, [r7, #24]
 526:C:/Users/dtjld/workspace/AIoT/src/LiteOS_Lab/iot_link/network/dtls/mbedtls/mbedtls-2.16.2/library\camellia.c ****     GET_UINT32_BE( X[3], input, 12 );
 3201              		.loc 1 526 0
 3202 008a 7B68     		ldr	r3, [r7, #4]
 3203 008c 0C33     		adds	r3, r3, #12
 3204 008e 1B78     		ldrb	r3, [r3]	@ zero_extendqisi2
 3205 0090 1A06     		lsls	r2, r3, #24
 3206 0092 7B68     		ldr	r3, [r7, #4]
 3207 0094 0D33     		adds	r3, r3, #13
 3208 0096 1B78     		ldrb	r3, [r3]	@ zero_extendqisi2
 3209 0098 1B04     		lsls	r3, r3, #16
 3210 009a 1A43     		orrs	r2, r2, r3
 3211 009c 7B68     		ldr	r3, [r7, #4]
 3212 009e 0E33     		adds	r3, r3, #14
 3213 00a0 1B78     		ldrb	r3, [r3]	@ zero_extendqisi2
 3214 00a2 1B02     		lsls	r3, r3, #8
 3215 00a4 1343     		orrs	r3, r3, r2
 3216 00a6 7A68     		ldr	r2, [r7, #4]
 3217 00a8 0F32     		adds	r2, r2, #15
 3218 00aa 1278     		ldrb	r2, [r2]	@ zero_extendqisi2
 3219 00ac 1343     		orrs	r3, r3, r2
 3220 00ae FB61     		str	r3, [r7, #28]
 527:C:/Users/dtjld/workspace/AIoT/src/LiteOS_Lab/iot_link/network/dtls/mbedtls/mbedtls-2.16.2/library\camellia.c **** 
 528:C:/Users/dtjld/workspace/AIoT/src/LiteOS_Lab/iot_link/network/dtls/mbedtls/mbedtls-2.16.2/library\camellia.c ****     X[0] ^= *RK++;
 3221              		.loc 1 528 0
 3222 00b0 3B6A     		ldr	r3, [r7, #32]
 3223 00b2 1A1D     		adds	r2, r3, #4
 3224 00b4 3A62     		str	r2, [r7, #32]
 3225 00b6 1A68     		ldr	r2, [r3]
 3226 00b8 3B69     		ldr	r3, [r7, #16]
 3227 00ba 5340     		eors	r3, r3, r2
 3228 00bc 3B61     		str	r3, [r7, #16]
 529:C:/Users/dtjld/workspace/AIoT/src/LiteOS_Lab/iot_link/network/dtls/mbedtls/mbedtls-2.16.2/library\camellia.c ****     X[1] ^= *RK++;
 3229              		.loc 1 529 0
 3230 00be 3B6A     		ldr	r3, [r7, #32]
 3231 00c0 1A1D     		adds	r2, r3, #4
 3232 00c2 3A62     		str	r2, [r7, #32]
 3233 00c4 1A68     		ldr	r2, [r3]
 3234 00c6 7B69     		ldr	r3, [r7, #20]
ARM GAS  C:\Users\dtjld\AppData\Local\Temp\ccRGkA1L.s 			page 67


 3235 00c8 5340     		eors	r3, r3, r2
 3236 00ca 7B61     		str	r3, [r7, #20]
 530:C:/Users/dtjld/workspace/AIoT/src/LiteOS_Lab/iot_link/network/dtls/mbedtls/mbedtls-2.16.2/library\camellia.c ****     X[2] ^= *RK++;
 3237              		.loc 1 530 0
 3238 00cc 3B6A     		ldr	r3, [r7, #32]
 3239 00ce 1A1D     		adds	r2, r3, #4
 3240 00d0 3A62     		str	r2, [r7, #32]
 3241 00d2 1A68     		ldr	r2, [r3]
 3242 00d4 BB69     		ldr	r3, [r7, #24]
 3243 00d6 5340     		eors	r3, r3, r2
 3244 00d8 BB61     		str	r3, [r7, #24]
 531:C:/Users/dtjld/workspace/AIoT/src/LiteOS_Lab/iot_link/network/dtls/mbedtls/mbedtls-2.16.2/library\camellia.c ****     X[3] ^= *RK++;
 3245              		.loc 1 531 0
 3246 00da 3B6A     		ldr	r3, [r7, #32]
 3247 00dc 1A1D     		adds	r2, r3, #4
 3248 00de 3A62     		str	r2, [r7, #32]
 3249 00e0 1A68     		ldr	r2, [r3]
 3250 00e2 FB69     		ldr	r3, [r7, #28]
 3251 00e4 5340     		eors	r3, r3, r2
 3252 00e6 FB61     		str	r3, [r7, #28]
 532:C:/Users/dtjld/workspace/AIoT/src/LiteOS_Lab/iot_link/network/dtls/mbedtls/mbedtls-2.16.2/library\camellia.c **** 
 533:C:/Users/dtjld/workspace/AIoT/src/LiteOS_Lab/iot_link/network/dtls/mbedtls/mbedtls-2.16.2/library\camellia.c ****     while( NR ) {
 3253              		.loc 1 533 0
 3254 00e8 75E0     		b	.L78
 3255              	.L79:
 534:C:/Users/dtjld/workspace/AIoT/src/LiteOS_Lab/iot_link/network/dtls/mbedtls/mbedtls-2.16.2/library\camellia.c ****         --NR;
 3256              		.loc 1 534 0
 3257 00ea 7B6A     		ldr	r3, [r7, #36]
 3258 00ec 013B     		subs	r3, r3, #1
 3259 00ee 7B62     		str	r3, [r7, #36]
 535:C:/Users/dtjld/workspace/AIoT/src/LiteOS_Lab/iot_link/network/dtls/mbedtls/mbedtls-2.16.2/library\camellia.c ****         camellia_feistel( X, RK, X + 2 );
 3260              		.loc 1 535 0
 3261 00f0 07F11003 		add	r3, r7, #16
 3262 00f4 0833     		adds	r3, r3, #8
 3263 00f6 07F11000 		add	r0, r7, #16
 3264 00fa 1A46     		mov	r2, r3
 3265 00fc 396A     		ldr	r1, [r7, #32]
 3266 00fe FFF7FEFF 		bl	camellia_feistel
 536:C:/Users/dtjld/workspace/AIoT/src/LiteOS_Lab/iot_link/network/dtls/mbedtls/mbedtls-2.16.2/library\camellia.c ****         RK += 2;
 3267              		.loc 1 536 0
 3268 0102 3B6A     		ldr	r3, [r7, #32]
 3269 0104 0833     		adds	r3, r3, #8
 3270 0106 3B62     		str	r3, [r7, #32]
 537:C:/Users/dtjld/workspace/AIoT/src/LiteOS_Lab/iot_link/network/dtls/mbedtls/mbedtls-2.16.2/library\camellia.c ****         camellia_feistel( X + 2, RK, X );
 3271              		.loc 1 537 0
 3272 0108 07F11003 		add	r3, r7, #16
 3273 010c 0833     		adds	r3, r3, #8
 3274 010e 07F11002 		add	r2, r7, #16
 3275 0112 396A     		ldr	r1, [r7, #32]
 3276 0114 1846     		mov	r0, r3
 3277 0116 FFF7FEFF 		bl	camellia_feistel
 538:C:/Users/dtjld/workspace/AIoT/src/LiteOS_Lab/iot_link/network/dtls/mbedtls/mbedtls-2.16.2/library\camellia.c ****         RK += 2;
 3278              		.loc 1 538 0
 3279 011a 3B6A     		ldr	r3, [r7, #32]
 3280 011c 0833     		adds	r3, r3, #8
 3281 011e 3B62     		str	r3, [r7, #32]
 539:C:/Users/dtjld/workspace/AIoT/src/LiteOS_Lab/iot_link/network/dtls/mbedtls/mbedtls-2.16.2/library\camellia.c ****         camellia_feistel( X, RK, X + 2 );
ARM GAS  C:\Users\dtjld\AppData\Local\Temp\ccRGkA1L.s 			page 68


 3282              		.loc 1 539 0
 3283 0120 07F11003 		add	r3, r7, #16
 3284 0124 0833     		adds	r3, r3, #8
 3285 0126 07F11000 		add	r0, r7, #16
 3286 012a 1A46     		mov	r2, r3
 3287 012c 396A     		ldr	r1, [r7, #32]
 3288 012e FFF7FEFF 		bl	camellia_feistel
 540:C:/Users/dtjld/workspace/AIoT/src/LiteOS_Lab/iot_link/network/dtls/mbedtls/mbedtls-2.16.2/library\camellia.c ****         RK += 2;
 3289              		.loc 1 540 0
 3290 0132 3B6A     		ldr	r3, [r7, #32]
 3291 0134 0833     		adds	r3, r3, #8
 3292 0136 3B62     		str	r3, [r7, #32]
 541:C:/Users/dtjld/workspace/AIoT/src/LiteOS_Lab/iot_link/network/dtls/mbedtls/mbedtls-2.16.2/library\camellia.c ****         camellia_feistel( X + 2, RK, X );
 3293              		.loc 1 541 0
 3294 0138 07F11003 		add	r3, r7, #16
 3295 013c 0833     		adds	r3, r3, #8
 3296 013e 07F11002 		add	r2, r7, #16
 3297 0142 396A     		ldr	r1, [r7, #32]
 3298 0144 1846     		mov	r0, r3
 3299 0146 FFF7FEFF 		bl	camellia_feistel
 542:C:/Users/dtjld/workspace/AIoT/src/LiteOS_Lab/iot_link/network/dtls/mbedtls/mbedtls-2.16.2/library\camellia.c ****         RK += 2;
 3300              		.loc 1 542 0
 3301 014a 3B6A     		ldr	r3, [r7, #32]
 3302 014c 0833     		adds	r3, r3, #8
 3303 014e 3B62     		str	r3, [r7, #32]
 543:C:/Users/dtjld/workspace/AIoT/src/LiteOS_Lab/iot_link/network/dtls/mbedtls/mbedtls-2.16.2/library\camellia.c ****         camellia_feistel( X, RK, X + 2 );
 3304              		.loc 1 543 0
 3305 0150 07F11003 		add	r3, r7, #16
 3306 0154 0833     		adds	r3, r3, #8
 3307 0156 07F11000 		add	r0, r7, #16
 3308 015a 1A46     		mov	r2, r3
 3309 015c 396A     		ldr	r1, [r7, #32]
 3310 015e FFF7FEFF 		bl	camellia_feistel
 544:C:/Users/dtjld/workspace/AIoT/src/LiteOS_Lab/iot_link/network/dtls/mbedtls/mbedtls-2.16.2/library\camellia.c ****         RK += 2;
 3311              		.loc 1 544 0
 3312 0162 3B6A     		ldr	r3, [r7, #32]
 3313 0164 0833     		adds	r3, r3, #8
 3314 0166 3B62     		str	r3, [r7, #32]
 545:C:/Users/dtjld/workspace/AIoT/src/LiteOS_Lab/iot_link/network/dtls/mbedtls/mbedtls-2.16.2/library\camellia.c ****         camellia_feistel( X + 2, RK, X );
 3315              		.loc 1 545 0
 3316 0168 07F11003 		add	r3, r7, #16
 3317 016c 0833     		adds	r3, r3, #8
 3318 016e 07F11002 		add	r2, r7, #16
 3319 0172 396A     		ldr	r1, [r7, #32]
 3320 0174 1846     		mov	r0, r3
 3321 0176 FFF7FEFF 		bl	camellia_feistel
 546:C:/Users/dtjld/workspace/AIoT/src/LiteOS_Lab/iot_link/network/dtls/mbedtls/mbedtls-2.16.2/library\camellia.c ****         RK += 2;
 3322              		.loc 1 546 0
 3323 017a 3B6A     		ldr	r3, [r7, #32]
 3324 017c 0833     		adds	r3, r3, #8
 3325 017e 3B62     		str	r3, [r7, #32]
 547:C:/Users/dtjld/workspace/AIoT/src/LiteOS_Lab/iot_link/network/dtls/mbedtls/mbedtls-2.16.2/library\camellia.c **** 
 548:C:/Users/dtjld/workspace/AIoT/src/LiteOS_Lab/iot_link/network/dtls/mbedtls/mbedtls-2.16.2/library\camellia.c ****         if( NR ) {
 3326              		.loc 1 548 0
 3327 0180 7B6A     		ldr	r3, [r7, #36]
 3328 0182 002B     		cmp	r3, #0
 3329 0184 27D0     		beq	.L78
ARM GAS  C:\Users\dtjld\AppData\Local\Temp\ccRGkA1L.s 			page 69


 549:C:/Users/dtjld/workspace/AIoT/src/LiteOS_Lab/iot_link/network/dtls/mbedtls/mbedtls-2.16.2/library\camellia.c ****             FL(X[0], X[1], RK[0], RK[1]);
 3330              		.loc 1 549 0
 3331 0186 3A69     		ldr	r2, [r7, #16]
 3332 0188 3B6A     		ldr	r3, [r7, #32]
 3333 018a 1B68     		ldr	r3, [r3]
 3334 018c 1340     		ands	r3, r3, r2
 3335 018e 4FEAF372 		ror	r2, r3, #31
 3336 0192 7B69     		ldr	r3, [r7, #20]
 3337 0194 5340     		eors	r3, r3, r2
 3338 0196 7B61     		str	r3, [r7, #20]
 3339 0198 7A69     		ldr	r2, [r7, #20]
 3340 019a 3B6A     		ldr	r3, [r7, #32]
 3341 019c 0433     		adds	r3, r3, #4
 3342 019e 1B68     		ldr	r3, [r3]
 3343 01a0 1A43     		orrs	r2, r2, r3
 3344 01a2 3B69     		ldr	r3, [r7, #16]
 3345 01a4 5340     		eors	r3, r3, r2
 3346 01a6 3B61     		str	r3, [r7, #16]
 550:C:/Users/dtjld/workspace/AIoT/src/LiteOS_Lab/iot_link/network/dtls/mbedtls/mbedtls-2.16.2/library\camellia.c ****             RK += 2;
 3347              		.loc 1 550 0
 3348 01a8 3B6A     		ldr	r3, [r7, #32]
 3349 01aa 0833     		adds	r3, r3, #8
 3350 01ac 3B62     		str	r3, [r7, #32]
 551:C:/Users/dtjld/workspace/AIoT/src/LiteOS_Lab/iot_link/network/dtls/mbedtls/mbedtls-2.16.2/library\camellia.c ****             FLInv(X[2], X[3], RK[0], RK[1]);
 3351              		.loc 1 551 0
 3352 01ae FA69     		ldr	r2, [r7, #28]
 3353 01b0 3B6A     		ldr	r3, [r7, #32]
 3354 01b2 0433     		adds	r3, r3, #4
 3355 01b4 1B68     		ldr	r3, [r3]
 3356 01b6 1A43     		orrs	r2, r2, r3
 3357 01b8 BB69     		ldr	r3, [r7, #24]
 3358 01ba 5340     		eors	r3, r3, r2
 3359 01bc BB61     		str	r3, [r7, #24]
 3360 01be BA69     		ldr	r2, [r7, #24]
 3361 01c0 3B6A     		ldr	r3, [r7, #32]
 3362 01c2 1B68     		ldr	r3, [r3]
 3363 01c4 1340     		ands	r3, r3, r2
 3364 01c6 4FEAF372 		ror	r2, r3, #31
 3365 01ca FB69     		ldr	r3, [r7, #28]
 3366 01cc 5340     		eors	r3, r3, r2
 3367 01ce FB61     		str	r3, [r7, #28]
 552:C:/Users/dtjld/workspace/AIoT/src/LiteOS_Lab/iot_link/network/dtls/mbedtls/mbedtls-2.16.2/library\camellia.c ****             RK += 2;
 3368              		.loc 1 552 0
 3369 01d0 3B6A     		ldr	r3, [r7, #32]
 3370 01d2 0833     		adds	r3, r3, #8
 3371 01d4 3B62     		str	r3, [r7, #32]
 3372              	.L78:
 533:C:/Users/dtjld/workspace/AIoT/src/LiteOS_Lab/iot_link/network/dtls/mbedtls/mbedtls-2.16.2/library\camellia.c ****         --NR;
 3373              		.loc 1 533 0
 3374 01d6 7B6A     		ldr	r3, [r7, #36]
 3375 01d8 002B     		cmp	r3, #0
 3376 01da 86D1     		bne	.L79
 553:C:/Users/dtjld/workspace/AIoT/src/LiteOS_Lab/iot_link/network/dtls/mbedtls/mbedtls-2.16.2/library\camellia.c ****         }
 554:C:/Users/dtjld/workspace/AIoT/src/LiteOS_Lab/iot_link/network/dtls/mbedtls/mbedtls-2.16.2/library\camellia.c ****     }
 555:C:/Users/dtjld/workspace/AIoT/src/LiteOS_Lab/iot_link/network/dtls/mbedtls/mbedtls-2.16.2/library\camellia.c **** 
 556:C:/Users/dtjld/workspace/AIoT/src/LiteOS_Lab/iot_link/network/dtls/mbedtls/mbedtls-2.16.2/library\camellia.c ****     X[2] ^= *RK++;
 3377              		.loc 1 556 0
ARM GAS  C:\Users\dtjld\AppData\Local\Temp\ccRGkA1L.s 			page 70


 3378 01dc 3B6A     		ldr	r3, [r7, #32]
 3379 01de 1A1D     		adds	r2, r3, #4
 3380 01e0 3A62     		str	r2, [r7, #32]
 3381 01e2 1A68     		ldr	r2, [r3]
 3382 01e4 BB69     		ldr	r3, [r7, #24]
 3383 01e6 5340     		eors	r3, r3, r2
 3384 01e8 BB61     		str	r3, [r7, #24]
 557:C:/Users/dtjld/workspace/AIoT/src/LiteOS_Lab/iot_link/network/dtls/mbedtls/mbedtls-2.16.2/library\camellia.c ****     X[3] ^= *RK++;
 3385              		.loc 1 557 0
 3386 01ea 3B6A     		ldr	r3, [r7, #32]
 3387 01ec 1A1D     		adds	r2, r3, #4
 3388 01ee 3A62     		str	r2, [r7, #32]
 3389 01f0 1A68     		ldr	r2, [r3]
 3390 01f2 FB69     		ldr	r3, [r7, #28]
 3391 01f4 5340     		eors	r3, r3, r2
 3392 01f6 FB61     		str	r3, [r7, #28]
 558:C:/Users/dtjld/workspace/AIoT/src/LiteOS_Lab/iot_link/network/dtls/mbedtls/mbedtls-2.16.2/library\camellia.c ****     X[0] ^= *RK++;
 3393              		.loc 1 558 0
 3394 01f8 3B6A     		ldr	r3, [r7, #32]
 3395 01fa 1A1D     		adds	r2, r3, #4
 3396 01fc 3A62     		str	r2, [r7, #32]
 3397 01fe 1A68     		ldr	r2, [r3]
 3398 0200 3B69     		ldr	r3, [r7, #16]
 3399 0202 5340     		eors	r3, r3, r2
 3400 0204 3B61     		str	r3, [r7, #16]
 559:C:/Users/dtjld/workspace/AIoT/src/LiteOS_Lab/iot_link/network/dtls/mbedtls/mbedtls-2.16.2/library\camellia.c ****     X[1] ^= *RK++;
 3401              		.loc 1 559 0
 3402 0206 3B6A     		ldr	r3, [r7, #32]
 3403 0208 1A1D     		adds	r2, r3, #4
 3404 020a 3A62     		str	r2, [r7, #32]
 3405 020c 1A68     		ldr	r2, [r3]
 3406 020e 7B69     		ldr	r3, [r7, #20]
 3407 0210 5340     		eors	r3, r3, r2
 3408 0212 7B61     		str	r3, [r7, #20]
 560:C:/Users/dtjld/workspace/AIoT/src/LiteOS_Lab/iot_link/network/dtls/mbedtls/mbedtls-2.16.2/library\camellia.c **** 
 561:C:/Users/dtjld/workspace/AIoT/src/LiteOS_Lab/iot_link/network/dtls/mbedtls/mbedtls-2.16.2/library\camellia.c ****     PUT_UINT32_BE( X[2], output,  0 );
 3409              		.loc 1 561 0
 3410 0214 BB69     		ldr	r3, [r7, #24]
 3411 0216 1B0E     		lsrs	r3, r3, #24
 3412 0218 DAB2     		uxtb	r2, r3
 3413 021a 3B68     		ldr	r3, [r7]
 3414 021c 1A70     		strb	r2, [r3]
 3415 021e BB69     		ldr	r3, [r7, #24]
 3416 0220 1A0C     		lsrs	r2, r3, #16
 3417 0222 3B68     		ldr	r3, [r7]
 3418 0224 0133     		adds	r3, r3, #1
 3419 0226 D2B2     		uxtb	r2, r2
 3420 0228 1A70     		strb	r2, [r3]
 3421 022a BB69     		ldr	r3, [r7, #24]
 3422 022c 1A0A     		lsrs	r2, r3, #8
 3423 022e 3B68     		ldr	r3, [r7]
 3424 0230 0233     		adds	r3, r3, #2
 3425 0232 D2B2     		uxtb	r2, r2
 3426 0234 1A70     		strb	r2, [r3]
 3427 0236 BA69     		ldr	r2, [r7, #24]
 3428 0238 3B68     		ldr	r3, [r7]
 3429 023a 0333     		adds	r3, r3, #3
ARM GAS  C:\Users\dtjld\AppData\Local\Temp\ccRGkA1L.s 			page 71


 3430 023c D2B2     		uxtb	r2, r2
 3431 023e 1A70     		strb	r2, [r3]
 562:C:/Users/dtjld/workspace/AIoT/src/LiteOS_Lab/iot_link/network/dtls/mbedtls/mbedtls-2.16.2/library\camellia.c ****     PUT_UINT32_BE( X[3], output,  4 );
 3432              		.loc 1 562 0
 3433 0240 FB69     		ldr	r3, [r7, #28]
 3434 0242 1A0E     		lsrs	r2, r3, #24
 3435 0244 3B68     		ldr	r3, [r7]
 3436 0246 0433     		adds	r3, r3, #4
 3437 0248 D2B2     		uxtb	r2, r2
 3438 024a 1A70     		strb	r2, [r3]
 3439 024c FB69     		ldr	r3, [r7, #28]
 3440 024e 1A0C     		lsrs	r2, r3, #16
 3441 0250 3B68     		ldr	r3, [r7]
 3442 0252 0533     		adds	r3, r3, #5
 3443 0254 D2B2     		uxtb	r2, r2
 3444 0256 1A70     		strb	r2, [r3]
 3445 0258 FB69     		ldr	r3, [r7, #28]
 3446 025a 1A0A     		lsrs	r2, r3, #8
 3447 025c 3B68     		ldr	r3, [r7]
 3448 025e 0633     		adds	r3, r3, #6
 3449 0260 D2B2     		uxtb	r2, r2
 3450 0262 1A70     		strb	r2, [r3]
 3451 0264 FA69     		ldr	r2, [r7, #28]
 3452 0266 3B68     		ldr	r3, [r7]
 3453 0268 0733     		adds	r3, r3, #7
 3454 026a D2B2     		uxtb	r2, r2
 3455 026c 1A70     		strb	r2, [r3]
 563:C:/Users/dtjld/workspace/AIoT/src/LiteOS_Lab/iot_link/network/dtls/mbedtls/mbedtls-2.16.2/library\camellia.c ****     PUT_UINT32_BE( X[0], output,  8 );
 3456              		.loc 1 563 0
 3457 026e 3B69     		ldr	r3, [r7, #16]
 3458 0270 1A0E     		lsrs	r2, r3, #24
 3459 0272 3B68     		ldr	r3, [r7]
 3460 0274 0833     		adds	r3, r3, #8
 3461 0276 D2B2     		uxtb	r2, r2
 3462 0278 1A70     		strb	r2, [r3]
 3463 027a 3B69     		ldr	r3, [r7, #16]
 3464 027c 1A0C     		lsrs	r2, r3, #16
 3465 027e 3B68     		ldr	r3, [r7]
 3466 0280 0933     		adds	r3, r3, #9
 3467 0282 D2B2     		uxtb	r2, r2
 3468 0284 1A70     		strb	r2, [r3]
 3469 0286 3B69     		ldr	r3, [r7, #16]
 3470 0288 1A0A     		lsrs	r2, r3, #8
 3471 028a 3B68     		ldr	r3, [r7]
 3472 028c 0A33     		adds	r3, r3, #10
 3473 028e D2B2     		uxtb	r2, r2
 3474 0290 1A70     		strb	r2, [r3]
 3475 0292 3A69     		ldr	r2, [r7, #16]
 3476 0294 3B68     		ldr	r3, [r7]
 3477 0296 0B33     		adds	r3, r3, #11
 3478 0298 D2B2     		uxtb	r2, r2
 3479 029a 1A70     		strb	r2, [r3]
 564:C:/Users/dtjld/workspace/AIoT/src/LiteOS_Lab/iot_link/network/dtls/mbedtls/mbedtls-2.16.2/library\camellia.c ****     PUT_UINT32_BE( X[1], output, 12 );
 3480              		.loc 1 564 0
 3481 029c 7B69     		ldr	r3, [r7, #20]
 3482 029e 1A0E     		lsrs	r2, r3, #24
 3483 02a0 3B68     		ldr	r3, [r7]
ARM GAS  C:\Users\dtjld\AppData\Local\Temp\ccRGkA1L.s 			page 72


 3484 02a2 0C33     		adds	r3, r3, #12
 3485 02a4 D2B2     		uxtb	r2, r2
 3486 02a6 1A70     		strb	r2, [r3]
 3487 02a8 7B69     		ldr	r3, [r7, #20]
 3488 02aa 1A0C     		lsrs	r2, r3, #16
 3489 02ac 3B68     		ldr	r3, [r7]
 3490 02ae 0D33     		adds	r3, r3, #13
 3491 02b0 D2B2     		uxtb	r2, r2
 3492 02b2 1A70     		strb	r2, [r3]
 3493 02b4 7B69     		ldr	r3, [r7, #20]
 3494 02b6 1A0A     		lsrs	r2, r3, #8
 3495 02b8 3B68     		ldr	r3, [r7]
 3496 02ba 0E33     		adds	r3, r3, #14
 3497 02bc D2B2     		uxtb	r2, r2
 3498 02be 1A70     		strb	r2, [r3]
 3499 02c0 7A69     		ldr	r2, [r7, #20]
 3500 02c2 3B68     		ldr	r3, [r7]
 3501 02c4 0F33     		adds	r3, r3, #15
 3502 02c6 D2B2     		uxtb	r2, r2
 3503 02c8 1A70     		strb	r2, [r3]
 565:C:/Users/dtjld/workspace/AIoT/src/LiteOS_Lab/iot_link/network/dtls/mbedtls/mbedtls-2.16.2/library\camellia.c **** 
 566:C:/Users/dtjld/workspace/AIoT/src/LiteOS_Lab/iot_link/network/dtls/mbedtls/mbedtls-2.16.2/library\camellia.c ****     return( 0 );
 3504              		.loc 1 566 0
 3505 02ca 0023     		movs	r3, #0
 567:C:/Users/dtjld/workspace/AIoT/src/LiteOS_Lab/iot_link/network/dtls/mbedtls/mbedtls-2.16.2/library\camellia.c **** }
 3506              		.loc 1 567 0
 3507 02cc 1846     		mov	r0, r3
 3508 02ce 2837     		adds	r7, r7, #40
 3509              	.LCFI29:
 3510              		.cfi_def_cfa_offset 8
 3511 02d0 BD46     		mov	sp, r7
 3512              	.LCFI30:
 3513              		.cfi_def_cfa_register 13
 3514              		@ sp needed
 3515 02d2 80BD     		pop	{r7, pc}
 3516              		.cfi_endproc
 3517              	.LFE8:
 3519              		.section	.text.mbedtls_camellia_crypt_cbc,"ax",%progbits
 3520              		.align	1
 3521              		.global	mbedtls_camellia_crypt_cbc
 3522              		.syntax unified
 3523              		.thumb
 3524              		.thumb_func
 3525              		.fpu fpv4-sp-d16
 3527              	mbedtls_camellia_crypt_cbc:
 3528              	.LFB9:
 568:C:/Users/dtjld/workspace/AIoT/src/LiteOS_Lab/iot_link/network/dtls/mbedtls/mbedtls-2.16.2/library\camellia.c **** 
 569:C:/Users/dtjld/workspace/AIoT/src/LiteOS_Lab/iot_link/network/dtls/mbedtls/mbedtls-2.16.2/library\camellia.c **** #if defined(MBEDTLS_CIPHER_MODE_CBC)
 570:C:/Users/dtjld/workspace/AIoT/src/LiteOS_Lab/iot_link/network/dtls/mbedtls/mbedtls-2.16.2/library\camellia.c **** /*
 571:C:/Users/dtjld/workspace/AIoT/src/LiteOS_Lab/iot_link/network/dtls/mbedtls/mbedtls-2.16.2/library\camellia.c ****  * Camellia-CBC buffer encryption/decryption
 572:C:/Users/dtjld/workspace/AIoT/src/LiteOS_Lab/iot_link/network/dtls/mbedtls/mbedtls-2.16.2/library\camellia.c ****  */
 573:C:/Users/dtjld/workspace/AIoT/src/LiteOS_Lab/iot_link/network/dtls/mbedtls/mbedtls-2.16.2/library\camellia.c **** int mbedtls_camellia_crypt_cbc( mbedtls_camellia_context *ctx,
 574:C:/Users/dtjld/workspace/AIoT/src/LiteOS_Lab/iot_link/network/dtls/mbedtls/mbedtls-2.16.2/library\camellia.c ****                                 int mode,
 575:C:/Users/dtjld/workspace/AIoT/src/LiteOS_Lab/iot_link/network/dtls/mbedtls/mbedtls-2.16.2/library\camellia.c ****                                 size_t length,
 576:C:/Users/dtjld/workspace/AIoT/src/LiteOS_Lab/iot_link/network/dtls/mbedtls/mbedtls-2.16.2/library\camellia.c ****                                 unsigned char iv[16],
 577:C:/Users/dtjld/workspace/AIoT/src/LiteOS_Lab/iot_link/network/dtls/mbedtls/mbedtls-2.16.2/library\camellia.c ****                                 const unsigned char *input,
 578:C:/Users/dtjld/workspace/AIoT/src/LiteOS_Lab/iot_link/network/dtls/mbedtls/mbedtls-2.16.2/library\camellia.c ****                                 unsigned char *output )
ARM GAS  C:\Users\dtjld\AppData\Local\Temp\ccRGkA1L.s 			page 73


 579:C:/Users/dtjld/workspace/AIoT/src/LiteOS_Lab/iot_link/network/dtls/mbedtls/mbedtls-2.16.2/library\camellia.c **** {
 3529              		.loc 1 579 0
 3530              		.cfi_startproc
 3531              		@ args = 8, pretend = 0, frame = 40
 3532              		@ frame_needed = 1, uses_anonymous_args = 0
 3533 0000 B0B5     		push	{r4, r5, r7, lr}
 3534              	.LCFI31:
 3535              		.cfi_def_cfa_offset 16
 3536              		.cfi_offset 4, -16
 3537              		.cfi_offset 5, -12
 3538              		.cfi_offset 7, -8
 3539              		.cfi_offset 14, -4
 3540 0002 8AB0     		sub	sp, sp, #40
 3541              	.LCFI32:
 3542              		.cfi_def_cfa_offset 56
 3543 0004 00AF     		add	r7, sp, #0
 3544              	.LCFI33:
 3545              		.cfi_def_cfa_register 7
 3546 0006 F860     		str	r0, [r7, #12]
 3547 0008 B960     		str	r1, [r7, #8]
 3548 000a 7A60     		str	r2, [r7, #4]
 3549 000c 3B60     		str	r3, [r7]
 580:C:/Users/dtjld/workspace/AIoT/src/LiteOS_Lab/iot_link/network/dtls/mbedtls/mbedtls-2.16.2/library\camellia.c ****     int i;
 581:C:/Users/dtjld/workspace/AIoT/src/LiteOS_Lab/iot_link/network/dtls/mbedtls/mbedtls-2.16.2/library\camellia.c ****     unsigned char temp[16];
 582:C:/Users/dtjld/workspace/AIoT/src/LiteOS_Lab/iot_link/network/dtls/mbedtls/mbedtls-2.16.2/library\camellia.c ****     CAMELLIA_VALIDATE_RET( ctx != NULL );
 583:C:/Users/dtjld/workspace/AIoT/src/LiteOS_Lab/iot_link/network/dtls/mbedtls/mbedtls-2.16.2/library\camellia.c ****     CAMELLIA_VALIDATE_RET( mode == MBEDTLS_CAMELLIA_ENCRYPT ||
 584:C:/Users/dtjld/workspace/AIoT/src/LiteOS_Lab/iot_link/network/dtls/mbedtls/mbedtls-2.16.2/library\camellia.c ****                            mode == MBEDTLS_CAMELLIA_DECRYPT );
 585:C:/Users/dtjld/workspace/AIoT/src/LiteOS_Lab/iot_link/network/dtls/mbedtls/mbedtls-2.16.2/library\camellia.c ****     CAMELLIA_VALIDATE_RET( iv != NULL );
 586:C:/Users/dtjld/workspace/AIoT/src/LiteOS_Lab/iot_link/network/dtls/mbedtls/mbedtls-2.16.2/library\camellia.c ****     CAMELLIA_VALIDATE_RET( length == 0 || input  != NULL );
 587:C:/Users/dtjld/workspace/AIoT/src/LiteOS_Lab/iot_link/network/dtls/mbedtls/mbedtls-2.16.2/library\camellia.c ****     CAMELLIA_VALIDATE_RET( length == 0 || output != NULL );
 588:C:/Users/dtjld/workspace/AIoT/src/LiteOS_Lab/iot_link/network/dtls/mbedtls/mbedtls-2.16.2/library\camellia.c **** 
 589:C:/Users/dtjld/workspace/AIoT/src/LiteOS_Lab/iot_link/network/dtls/mbedtls/mbedtls-2.16.2/library\camellia.c ****     if( length % 16 )
 3550              		.loc 1 589 0
 3551 000e 7B68     		ldr	r3, [r7, #4]
 3552 0010 03F00F03 		and	r3, r3, #15
 3553 0014 002B     		cmp	r3, #0
 3554 0016 02D0     		beq	.L82
 590:C:/Users/dtjld/workspace/AIoT/src/LiteOS_Lab/iot_link/network/dtls/mbedtls/mbedtls-2.16.2/library\camellia.c ****         return( MBEDTLS_ERR_CAMELLIA_INVALID_INPUT_LENGTH );
 3555              		.loc 1 590 0
 3556 0018 6FF02503 		mvn	r3, #37
 3557 001c 6DE0     		b	.L94
 3558              	.L82:
 591:C:/Users/dtjld/workspace/AIoT/src/LiteOS_Lab/iot_link/network/dtls/mbedtls/mbedtls-2.16.2/library\camellia.c **** 
 592:C:/Users/dtjld/workspace/AIoT/src/LiteOS_Lab/iot_link/network/dtls/mbedtls/mbedtls-2.16.2/library\camellia.c ****     if( mode == MBEDTLS_CAMELLIA_DECRYPT )
 3559              		.loc 1 592 0
 3560 001e BB68     		ldr	r3, [r7, #8]
 3561 0020 002B     		cmp	r3, #0
 3562 0022 66D1     		bne	.L90
 593:C:/Users/dtjld/workspace/AIoT/src/LiteOS_Lab/iot_link/network/dtls/mbedtls/mbedtls-2.16.2/library\camellia.c ****     {
 594:C:/Users/dtjld/workspace/AIoT/src/LiteOS_Lab/iot_link/network/dtls/mbedtls/mbedtls-2.16.2/library\camellia.c ****         while( length > 0 )
 3563              		.loc 1 594 0
 3564 0024 36E0     		b	.L85
 3565              	.L88:
 595:C:/Users/dtjld/workspace/AIoT/src/LiteOS_Lab/iot_link/network/dtls/mbedtls/mbedtls-2.16.2/library\camellia.c ****         {
 596:C:/Users/dtjld/workspace/AIoT/src/LiteOS_Lab/iot_link/network/dtls/mbedtls/mbedtls-2.16.2/library\camellia.c ****             memcpy( temp, input, 16 );
 3566              		.loc 1 596 0
 3567 0026 BB6B     		ldr	r3, [r7, #56]
ARM GAS  C:\Users\dtjld\AppData\Local\Temp\ccRGkA1L.s 			page 74


 3568 0028 07F11404 		add	r4, r7, #20
 3569 002c 1868     		ldr	r0, [r3]	@ unaligned
 3570 002e 5968     		ldr	r1, [r3, #4]	@ unaligned
 3571 0030 9A68     		ldr	r2, [r3, #8]	@ unaligned
 3572 0032 DB68     		ldr	r3, [r3, #12]	@ unaligned
 3573 0034 0FC4     		stmia	r4!, {r0, r1, r2, r3}
 597:C:/Users/dtjld/workspace/AIoT/src/LiteOS_Lab/iot_link/network/dtls/mbedtls/mbedtls-2.16.2/library\camellia.c ****             mbedtls_camellia_crypt_ecb( ctx, mode, input, output );
 3574              		.loc 1 597 0
 3575 0036 FB6B     		ldr	r3, [r7, #60]
 3576 0038 BA6B     		ldr	r2, [r7, #56]
 3577 003a B968     		ldr	r1, [r7, #8]
 3578 003c F868     		ldr	r0, [r7, #12]
 3579 003e FFF7FEFF 		bl	mbedtls_camellia_crypt_ecb
 598:C:/Users/dtjld/workspace/AIoT/src/LiteOS_Lab/iot_link/network/dtls/mbedtls/mbedtls-2.16.2/library\camellia.c **** 
 599:C:/Users/dtjld/workspace/AIoT/src/LiteOS_Lab/iot_link/network/dtls/mbedtls/mbedtls-2.16.2/library\camellia.c ****             for( i = 0; i < 16; i++ )
 3580              		.loc 1 599 0
 3581 0042 0023     		movs	r3, #0
 3582 0044 7B62     		str	r3, [r7, #36]
 3583 0046 10E0     		b	.L86
 3584              	.L87:
 600:C:/Users/dtjld/workspace/AIoT/src/LiteOS_Lab/iot_link/network/dtls/mbedtls/mbedtls-2.16.2/library\camellia.c ****                 output[i] = (unsigned char)( output[i] ^ iv[i] );
 3585              		.loc 1 600 0 discriminator 3
 3586 0048 7B6A     		ldr	r3, [r7, #36]
 3587 004a FA6B     		ldr	r2, [r7, #60]
 3588 004c 1344     		add	r3, r3, r2
 3589 004e 1978     		ldrb	r1, [r3]	@ zero_extendqisi2
 3590 0050 7B6A     		ldr	r3, [r7, #36]
 3591 0052 3A68     		ldr	r2, [r7]
 3592 0054 1344     		add	r3, r3, r2
 3593 0056 1A78     		ldrb	r2, [r3]	@ zero_extendqisi2
 3594 0058 7B6A     		ldr	r3, [r7, #36]
 3595 005a F86B     		ldr	r0, [r7, #60]
 3596 005c 0344     		add	r3, r3, r0
 3597 005e 4A40     		eors	r2, r2, r1
 3598 0060 D2B2     		uxtb	r2, r2
 3599 0062 1A70     		strb	r2, [r3]
 599:C:/Users/dtjld/workspace/AIoT/src/LiteOS_Lab/iot_link/network/dtls/mbedtls/mbedtls-2.16.2/library\camellia.c ****                 output[i] = (unsigned char)( output[i] ^ iv[i] );
 3600              		.loc 1 599 0 discriminator 3
 3601 0064 7B6A     		ldr	r3, [r7, #36]
 3602 0066 0133     		adds	r3, r3, #1
 3603 0068 7B62     		str	r3, [r7, #36]
 3604              	.L86:
 599:C:/Users/dtjld/workspace/AIoT/src/LiteOS_Lab/iot_link/network/dtls/mbedtls/mbedtls-2.16.2/library\camellia.c ****                 output[i] = (unsigned char)( output[i] ^ iv[i] );
 3605              		.loc 1 599 0 is_stmt 0 discriminator 1
 3606 006a 7B6A     		ldr	r3, [r7, #36]
 3607 006c 0F2B     		cmp	r3, #15
 3608 006e EBDD     		ble	.L87
 601:C:/Users/dtjld/workspace/AIoT/src/LiteOS_Lab/iot_link/network/dtls/mbedtls/mbedtls-2.16.2/library\camellia.c **** 
 602:C:/Users/dtjld/workspace/AIoT/src/LiteOS_Lab/iot_link/network/dtls/mbedtls/mbedtls-2.16.2/library\camellia.c ****             memcpy( iv, temp, 16 );
 3609              		.loc 1 602 0 is_stmt 1
 3610 0070 3B68     		ldr	r3, [r7]
 3611 0072 1D46     		mov	r5, r3
 3612 0074 07F11404 		add	r4, r7, #20
 3613 0078 0FCC     		ldmia	r4!, {r0, r1, r2, r3}
 3614 007a 2860     		str	r0, [r5]	@ unaligned
 3615 007c 6960     		str	r1, [r5, #4]	@ unaligned
 3616 007e AA60     		str	r2, [r5, #8]	@ unaligned
ARM GAS  C:\Users\dtjld\AppData\Local\Temp\ccRGkA1L.s 			page 75


 3617 0080 EB60     		str	r3, [r5, #12]	@ unaligned
 603:C:/Users/dtjld/workspace/AIoT/src/LiteOS_Lab/iot_link/network/dtls/mbedtls/mbedtls-2.16.2/library\camellia.c **** 
 604:C:/Users/dtjld/workspace/AIoT/src/LiteOS_Lab/iot_link/network/dtls/mbedtls/mbedtls-2.16.2/library\camellia.c ****             input  += 16;
 3618              		.loc 1 604 0
 3619 0082 BB6B     		ldr	r3, [r7, #56]
 3620 0084 1033     		adds	r3, r3, #16
 3621 0086 BB63     		str	r3, [r7, #56]
 605:C:/Users/dtjld/workspace/AIoT/src/LiteOS_Lab/iot_link/network/dtls/mbedtls/mbedtls-2.16.2/library\camellia.c ****             output += 16;
 3622              		.loc 1 605 0
 3623 0088 FB6B     		ldr	r3, [r7, #60]
 3624 008a 1033     		adds	r3, r3, #16
 3625 008c FB63     		str	r3, [r7, #60]
 606:C:/Users/dtjld/workspace/AIoT/src/LiteOS_Lab/iot_link/network/dtls/mbedtls/mbedtls-2.16.2/library\camellia.c ****             length -= 16;
 3626              		.loc 1 606 0
 3627 008e 7B68     		ldr	r3, [r7, #4]
 3628 0090 103B     		subs	r3, r3, #16
 3629 0092 7B60     		str	r3, [r7, #4]
 3630              	.L85:
 594:C:/Users/dtjld/workspace/AIoT/src/LiteOS_Lab/iot_link/network/dtls/mbedtls/mbedtls-2.16.2/library\camellia.c ****         {
 3631              		.loc 1 594 0
 3632 0094 7B68     		ldr	r3, [r7, #4]
 3633 0096 002B     		cmp	r3, #0
 3634 0098 C5D1     		bne	.L88
 3635 009a 2DE0     		b	.L89
 3636              	.L93:
 607:C:/Users/dtjld/workspace/AIoT/src/LiteOS_Lab/iot_link/network/dtls/mbedtls/mbedtls-2.16.2/library\camellia.c ****         }
 608:C:/Users/dtjld/workspace/AIoT/src/LiteOS_Lab/iot_link/network/dtls/mbedtls/mbedtls-2.16.2/library\camellia.c ****     }
 609:C:/Users/dtjld/workspace/AIoT/src/LiteOS_Lab/iot_link/network/dtls/mbedtls/mbedtls-2.16.2/library\camellia.c ****     else
 610:C:/Users/dtjld/workspace/AIoT/src/LiteOS_Lab/iot_link/network/dtls/mbedtls/mbedtls-2.16.2/library\camellia.c ****     {
 611:C:/Users/dtjld/workspace/AIoT/src/LiteOS_Lab/iot_link/network/dtls/mbedtls/mbedtls-2.16.2/library\camellia.c ****         while( length > 0 )
 612:C:/Users/dtjld/workspace/AIoT/src/LiteOS_Lab/iot_link/network/dtls/mbedtls/mbedtls-2.16.2/library\camellia.c ****         {
 613:C:/Users/dtjld/workspace/AIoT/src/LiteOS_Lab/iot_link/network/dtls/mbedtls/mbedtls-2.16.2/library\camellia.c ****             for( i = 0; i < 16; i++ )
 3637              		.loc 1 613 0
 3638 009c 0023     		movs	r3, #0
 3639 009e 7B62     		str	r3, [r7, #36]
 3640 00a0 10E0     		b	.L91
 3641              	.L92:
 614:C:/Users/dtjld/workspace/AIoT/src/LiteOS_Lab/iot_link/network/dtls/mbedtls/mbedtls-2.16.2/library\camellia.c ****                 output[i] = (unsigned char)( input[i] ^ iv[i] );
 3642              		.loc 1 614 0 discriminator 3
 3643 00a2 7B6A     		ldr	r3, [r7, #36]
 3644 00a4 BA6B     		ldr	r2, [r7, #56]
 3645 00a6 1344     		add	r3, r3, r2
 3646 00a8 1978     		ldrb	r1, [r3]	@ zero_extendqisi2
 3647 00aa 7B6A     		ldr	r3, [r7, #36]
 3648 00ac 3A68     		ldr	r2, [r7]
 3649 00ae 1344     		add	r3, r3, r2
 3650 00b0 1A78     		ldrb	r2, [r3]	@ zero_extendqisi2
 3651 00b2 7B6A     		ldr	r3, [r7, #36]
 3652 00b4 F86B     		ldr	r0, [r7, #60]
 3653 00b6 0344     		add	r3, r3, r0
 3654 00b8 4A40     		eors	r2, r2, r1
 3655 00ba D2B2     		uxtb	r2, r2
 3656 00bc 1A70     		strb	r2, [r3]
 613:C:/Users/dtjld/workspace/AIoT/src/LiteOS_Lab/iot_link/network/dtls/mbedtls/mbedtls-2.16.2/library\camellia.c ****                 output[i] = (unsigned char)( input[i] ^ iv[i] );
 3657              		.loc 1 613 0 discriminator 3
 3658 00be 7B6A     		ldr	r3, [r7, #36]
 3659 00c0 0133     		adds	r3, r3, #1
ARM GAS  C:\Users\dtjld\AppData\Local\Temp\ccRGkA1L.s 			page 76


 3660 00c2 7B62     		str	r3, [r7, #36]
 3661              	.L91:
 613:C:/Users/dtjld/workspace/AIoT/src/LiteOS_Lab/iot_link/network/dtls/mbedtls/mbedtls-2.16.2/library\camellia.c ****                 output[i] = (unsigned char)( input[i] ^ iv[i] );
 3662              		.loc 1 613 0 is_stmt 0 discriminator 1
 3663 00c4 7B6A     		ldr	r3, [r7, #36]
 3664 00c6 0F2B     		cmp	r3, #15
 3665 00c8 EBDD     		ble	.L92
 615:C:/Users/dtjld/workspace/AIoT/src/LiteOS_Lab/iot_link/network/dtls/mbedtls/mbedtls-2.16.2/library\camellia.c **** 
 616:C:/Users/dtjld/workspace/AIoT/src/LiteOS_Lab/iot_link/network/dtls/mbedtls/mbedtls-2.16.2/library\camellia.c ****             mbedtls_camellia_crypt_ecb( ctx, mode, output, output );
 3666              		.loc 1 616 0 is_stmt 1
 3667 00ca FB6B     		ldr	r3, [r7, #60]
 3668 00cc FA6B     		ldr	r2, [r7, #60]
 3669 00ce B968     		ldr	r1, [r7, #8]
 3670 00d0 F868     		ldr	r0, [r7, #12]
 3671 00d2 FFF7FEFF 		bl	mbedtls_camellia_crypt_ecb
 617:C:/Users/dtjld/workspace/AIoT/src/LiteOS_Lab/iot_link/network/dtls/mbedtls/mbedtls-2.16.2/library\camellia.c ****             memcpy( iv, output, 16 );
 3672              		.loc 1 617 0
 3673 00d6 1022     		movs	r2, #16
 3674 00d8 F96B     		ldr	r1, [r7, #60]
 3675 00da 3868     		ldr	r0, [r7]
 3676 00dc FFF7FEFF 		bl	memcpy
 618:C:/Users/dtjld/workspace/AIoT/src/LiteOS_Lab/iot_link/network/dtls/mbedtls/mbedtls-2.16.2/library\camellia.c **** 
 619:C:/Users/dtjld/workspace/AIoT/src/LiteOS_Lab/iot_link/network/dtls/mbedtls/mbedtls-2.16.2/library\camellia.c ****             input  += 16;
 3677              		.loc 1 619 0
 3678 00e0 BB6B     		ldr	r3, [r7, #56]
 3679 00e2 1033     		adds	r3, r3, #16
 3680 00e4 BB63     		str	r3, [r7, #56]
 620:C:/Users/dtjld/workspace/AIoT/src/LiteOS_Lab/iot_link/network/dtls/mbedtls/mbedtls-2.16.2/library\camellia.c ****             output += 16;
 3681              		.loc 1 620 0
 3682 00e6 FB6B     		ldr	r3, [r7, #60]
 3683 00e8 1033     		adds	r3, r3, #16
 3684 00ea FB63     		str	r3, [r7, #60]
 621:C:/Users/dtjld/workspace/AIoT/src/LiteOS_Lab/iot_link/network/dtls/mbedtls/mbedtls-2.16.2/library\camellia.c ****             length -= 16;
 3685              		.loc 1 621 0
 3686 00ec 7B68     		ldr	r3, [r7, #4]
 3687 00ee 103B     		subs	r3, r3, #16
 3688 00f0 7B60     		str	r3, [r7, #4]
 3689              	.L90:
 611:C:/Users/dtjld/workspace/AIoT/src/LiteOS_Lab/iot_link/network/dtls/mbedtls/mbedtls-2.16.2/library\camellia.c ****         {
 3690              		.loc 1 611 0
 3691 00f2 7B68     		ldr	r3, [r7, #4]
 3692 00f4 002B     		cmp	r3, #0
 3693 00f6 D1D1     		bne	.L93
 3694              	.L89:
 622:C:/Users/dtjld/workspace/AIoT/src/LiteOS_Lab/iot_link/network/dtls/mbedtls/mbedtls-2.16.2/library\camellia.c ****         }
 623:C:/Users/dtjld/workspace/AIoT/src/LiteOS_Lab/iot_link/network/dtls/mbedtls/mbedtls-2.16.2/library\camellia.c ****     }
 624:C:/Users/dtjld/workspace/AIoT/src/LiteOS_Lab/iot_link/network/dtls/mbedtls/mbedtls-2.16.2/library\camellia.c **** 
 625:C:/Users/dtjld/workspace/AIoT/src/LiteOS_Lab/iot_link/network/dtls/mbedtls/mbedtls-2.16.2/library\camellia.c ****     return( 0 );
 3695              		.loc 1 625 0
 3696 00f8 0023     		movs	r3, #0
 3697              	.L94:
 626:C:/Users/dtjld/workspace/AIoT/src/LiteOS_Lab/iot_link/network/dtls/mbedtls/mbedtls-2.16.2/library\camellia.c **** }
 3698              		.loc 1 626 0 discriminator 1
 3699 00fa 1846     		mov	r0, r3
 3700 00fc 2837     		adds	r7, r7, #40
 3701              	.LCFI34:
 3702              		.cfi_def_cfa_offset 16
ARM GAS  C:\Users\dtjld\AppData\Local\Temp\ccRGkA1L.s 			page 77


 3703 00fe BD46     		mov	sp, r7
 3704              	.LCFI35:
 3705              		.cfi_def_cfa_register 13
 3706              		@ sp needed
 3707 0100 B0BD     		pop	{r4, r5, r7, pc}
 3708              		.cfi_endproc
 3709              	.LFE9:
 3711              		.section	.text.mbedtls_camellia_crypt_cfb128,"ax",%progbits
 3712              		.align	1
 3713              		.global	mbedtls_camellia_crypt_cfb128
 3714              		.syntax unified
 3715              		.thumb
 3716              		.thumb_func
 3717              		.fpu fpv4-sp-d16
 3719              	mbedtls_camellia_crypt_cfb128:
 3720              	.LFB10:
 627:C:/Users/dtjld/workspace/AIoT/src/LiteOS_Lab/iot_link/network/dtls/mbedtls/mbedtls-2.16.2/library\camellia.c **** #endif /* MBEDTLS_CIPHER_MODE_CBC */
 628:C:/Users/dtjld/workspace/AIoT/src/LiteOS_Lab/iot_link/network/dtls/mbedtls/mbedtls-2.16.2/library\camellia.c **** 
 629:C:/Users/dtjld/workspace/AIoT/src/LiteOS_Lab/iot_link/network/dtls/mbedtls/mbedtls-2.16.2/library\camellia.c **** #if defined(MBEDTLS_CIPHER_MODE_CFB)
 630:C:/Users/dtjld/workspace/AIoT/src/LiteOS_Lab/iot_link/network/dtls/mbedtls/mbedtls-2.16.2/library\camellia.c **** /*
 631:C:/Users/dtjld/workspace/AIoT/src/LiteOS_Lab/iot_link/network/dtls/mbedtls/mbedtls-2.16.2/library\camellia.c ****  * Camellia-CFB128 buffer encryption/decryption
 632:C:/Users/dtjld/workspace/AIoT/src/LiteOS_Lab/iot_link/network/dtls/mbedtls/mbedtls-2.16.2/library\camellia.c ****  */
 633:C:/Users/dtjld/workspace/AIoT/src/LiteOS_Lab/iot_link/network/dtls/mbedtls/mbedtls-2.16.2/library\camellia.c **** int mbedtls_camellia_crypt_cfb128( mbedtls_camellia_context *ctx,
 634:C:/Users/dtjld/workspace/AIoT/src/LiteOS_Lab/iot_link/network/dtls/mbedtls/mbedtls-2.16.2/library\camellia.c ****                        int mode,
 635:C:/Users/dtjld/workspace/AIoT/src/LiteOS_Lab/iot_link/network/dtls/mbedtls/mbedtls-2.16.2/library\camellia.c ****                        size_t length,
 636:C:/Users/dtjld/workspace/AIoT/src/LiteOS_Lab/iot_link/network/dtls/mbedtls/mbedtls-2.16.2/library\camellia.c ****                        size_t *iv_off,
 637:C:/Users/dtjld/workspace/AIoT/src/LiteOS_Lab/iot_link/network/dtls/mbedtls/mbedtls-2.16.2/library\camellia.c ****                        unsigned char iv[16],
 638:C:/Users/dtjld/workspace/AIoT/src/LiteOS_Lab/iot_link/network/dtls/mbedtls/mbedtls-2.16.2/library\camellia.c ****                        const unsigned char *input,
 639:C:/Users/dtjld/workspace/AIoT/src/LiteOS_Lab/iot_link/network/dtls/mbedtls/mbedtls-2.16.2/library\camellia.c ****                        unsigned char *output )
 640:C:/Users/dtjld/workspace/AIoT/src/LiteOS_Lab/iot_link/network/dtls/mbedtls/mbedtls-2.16.2/library\camellia.c **** {
 3721              		.loc 1 640 0
 3722              		.cfi_startproc
 3723              		@ args = 12, pretend = 0, frame = 24
 3724              		@ frame_needed = 1, uses_anonymous_args = 0
 3725 0000 80B5     		push	{r7, lr}
 3726              	.LCFI36:
 3727              		.cfi_def_cfa_offset 8
 3728              		.cfi_offset 7, -8
 3729              		.cfi_offset 14, -4
 3730 0002 86B0     		sub	sp, sp, #24
 3731              	.LCFI37:
 3732              		.cfi_def_cfa_offset 32
 3733 0004 00AF     		add	r7, sp, #0
 3734              	.LCFI38:
 3735              		.cfi_def_cfa_register 7
 3736 0006 F860     		str	r0, [r7, #12]
 3737 0008 B960     		str	r1, [r7, #8]
 3738 000a 7A60     		str	r2, [r7, #4]
 3739 000c 3B60     		str	r3, [r7]
 641:C:/Users/dtjld/workspace/AIoT/src/LiteOS_Lab/iot_link/network/dtls/mbedtls/mbedtls-2.16.2/library\camellia.c ****     int c;
 642:C:/Users/dtjld/workspace/AIoT/src/LiteOS_Lab/iot_link/network/dtls/mbedtls/mbedtls-2.16.2/library\camellia.c ****     size_t n;
 643:C:/Users/dtjld/workspace/AIoT/src/LiteOS_Lab/iot_link/network/dtls/mbedtls/mbedtls-2.16.2/library\camellia.c ****     CAMELLIA_VALIDATE_RET( ctx != NULL );
 644:C:/Users/dtjld/workspace/AIoT/src/LiteOS_Lab/iot_link/network/dtls/mbedtls/mbedtls-2.16.2/library\camellia.c ****     CAMELLIA_VALIDATE_RET( mode == MBEDTLS_CAMELLIA_ENCRYPT ||
 645:C:/Users/dtjld/workspace/AIoT/src/LiteOS_Lab/iot_link/network/dtls/mbedtls/mbedtls-2.16.2/library\camellia.c ****                            mode == MBEDTLS_CAMELLIA_DECRYPT );
 646:C:/Users/dtjld/workspace/AIoT/src/LiteOS_Lab/iot_link/network/dtls/mbedtls/mbedtls-2.16.2/library\camellia.c ****     CAMELLIA_VALIDATE_RET( iv     != NULL );
 647:C:/Users/dtjld/workspace/AIoT/src/LiteOS_Lab/iot_link/network/dtls/mbedtls/mbedtls-2.16.2/library\camellia.c ****     CAMELLIA_VALIDATE_RET( iv_off != NULL );
 648:C:/Users/dtjld/workspace/AIoT/src/LiteOS_Lab/iot_link/network/dtls/mbedtls/mbedtls-2.16.2/library\camellia.c ****     CAMELLIA_VALIDATE_RET( length == 0 || input  != NULL );
ARM GAS  C:\Users\dtjld\AppData\Local\Temp\ccRGkA1L.s 			page 78


 649:C:/Users/dtjld/workspace/AIoT/src/LiteOS_Lab/iot_link/network/dtls/mbedtls/mbedtls-2.16.2/library\camellia.c ****     CAMELLIA_VALIDATE_RET( length == 0 || output != NULL );
 650:C:/Users/dtjld/workspace/AIoT/src/LiteOS_Lab/iot_link/network/dtls/mbedtls/mbedtls-2.16.2/library\camellia.c **** 
 651:C:/Users/dtjld/workspace/AIoT/src/LiteOS_Lab/iot_link/network/dtls/mbedtls/mbedtls-2.16.2/library\camellia.c ****     n = *iv_off;
 3740              		.loc 1 651 0
 3741 000e 3B68     		ldr	r3, [r7]
 3742 0010 1B68     		ldr	r3, [r3]
 3743 0012 7B61     		str	r3, [r7, #20]
 652:C:/Users/dtjld/workspace/AIoT/src/LiteOS_Lab/iot_link/network/dtls/mbedtls/mbedtls-2.16.2/library\camellia.c ****     if( n >= 16 )
 3744              		.loc 1 652 0
 3745 0014 7B69     		ldr	r3, [r7, #20]
 3746 0016 0F2B     		cmp	r3, #15
 3747 0018 02D9     		bls	.L96
 653:C:/Users/dtjld/workspace/AIoT/src/LiteOS_Lab/iot_link/network/dtls/mbedtls/mbedtls-2.16.2/library\camellia.c ****         return( MBEDTLS_ERR_CAMELLIA_BAD_INPUT_DATA );
 3748              		.loc 1 653 0
 3749 001a 6FF02303 		mvn	r3, #35
 3750 001e 5AE0     		b	.L97
 3751              	.L96:
 654:C:/Users/dtjld/workspace/AIoT/src/LiteOS_Lab/iot_link/network/dtls/mbedtls/mbedtls-2.16.2/library\camellia.c **** 
 655:C:/Users/dtjld/workspace/AIoT/src/LiteOS_Lab/iot_link/network/dtls/mbedtls/mbedtls-2.16.2/library\camellia.c ****     if( mode == MBEDTLS_CAMELLIA_DECRYPT )
 3752              		.loc 1 655 0
 3753 0020 BB68     		ldr	r3, [r7, #8]
 3754 0022 002B     		cmp	r3, #0
 3755 0024 4ED1     		bne	.L103
 656:C:/Users/dtjld/workspace/AIoT/src/LiteOS_Lab/iot_link/network/dtls/mbedtls/mbedtls-2.16.2/library\camellia.c ****     {
 657:C:/Users/dtjld/workspace/AIoT/src/LiteOS_Lab/iot_link/network/dtls/mbedtls/mbedtls-2.16.2/library\camellia.c ****         while( length-- )
 3756              		.loc 1 657 0
 3757 0026 26E0     		b	.L99
 3758              	.L101:
 658:C:/Users/dtjld/workspace/AIoT/src/LiteOS_Lab/iot_link/network/dtls/mbedtls/mbedtls-2.16.2/library\camellia.c ****         {
 659:C:/Users/dtjld/workspace/AIoT/src/LiteOS_Lab/iot_link/network/dtls/mbedtls/mbedtls-2.16.2/library\camellia.c ****             if( n == 0 )
 3759              		.loc 1 659 0
 3760 0028 7B69     		ldr	r3, [r7, #20]
 3761 002a 002B     		cmp	r3, #0
 3762 002c 05D1     		bne	.L100
 660:C:/Users/dtjld/workspace/AIoT/src/LiteOS_Lab/iot_link/network/dtls/mbedtls/mbedtls-2.16.2/library\camellia.c ****                 mbedtls_camellia_crypt_ecb( ctx, MBEDTLS_CAMELLIA_ENCRYPT, iv, iv );
 3763              		.loc 1 660 0
 3764 002e 3B6A     		ldr	r3, [r7, #32]
 3765 0030 3A6A     		ldr	r2, [r7, #32]
 3766 0032 0121     		movs	r1, #1
 3767 0034 F868     		ldr	r0, [r7, #12]
 3768 0036 FFF7FEFF 		bl	mbedtls_camellia_crypt_ecb
 3769              	.L100:
 661:C:/Users/dtjld/workspace/AIoT/src/LiteOS_Lab/iot_link/network/dtls/mbedtls/mbedtls-2.16.2/library\camellia.c **** 
 662:C:/Users/dtjld/workspace/AIoT/src/LiteOS_Lab/iot_link/network/dtls/mbedtls/mbedtls-2.16.2/library\camellia.c ****             c = *input++;
 3770              		.loc 1 662 0
 3771 003a 7B6A     		ldr	r3, [r7, #36]
 3772 003c 5A1C     		adds	r2, r3, #1
 3773 003e 7A62     		str	r2, [r7, #36]
 3774 0040 1B78     		ldrb	r3, [r3]	@ zero_extendqisi2
 3775 0042 3B61     		str	r3, [r7, #16]
 663:C:/Users/dtjld/workspace/AIoT/src/LiteOS_Lab/iot_link/network/dtls/mbedtls/mbedtls-2.16.2/library\camellia.c ****             *output++ = (unsigned char)( c ^ iv[n] );
 3776              		.loc 1 663 0
 3777 0044 3B69     		ldr	r3, [r7, #16]
 3778 0046 5AB2     		sxtb	r2, r3
 3779 0048 396A     		ldr	r1, [r7, #32]
 3780 004a 7B69     		ldr	r3, [r7, #20]
 3781 004c 0B44     		add	r3, r3, r1
ARM GAS  C:\Users\dtjld\AppData\Local\Temp\ccRGkA1L.s 			page 79


 3782 004e 1B78     		ldrb	r3, [r3]	@ zero_extendqisi2
 3783 0050 5BB2     		sxtb	r3, r3
 3784 0052 5340     		eors	r3, r3, r2
 3785 0054 59B2     		sxtb	r1, r3
 3786 0056 BB6A     		ldr	r3, [r7, #40]
 3787 0058 5A1C     		adds	r2, r3, #1
 3788 005a BA62     		str	r2, [r7, #40]
 3789 005c CAB2     		uxtb	r2, r1
 3790 005e 1A70     		strb	r2, [r3]
 664:C:/Users/dtjld/workspace/AIoT/src/LiteOS_Lab/iot_link/network/dtls/mbedtls/mbedtls-2.16.2/library\camellia.c ****             iv[n] = (unsigned char) c;
 3791              		.loc 1 664 0
 3792 0060 3A6A     		ldr	r2, [r7, #32]
 3793 0062 7B69     		ldr	r3, [r7, #20]
 3794 0064 1344     		add	r3, r3, r2
 3795 0066 3A69     		ldr	r2, [r7, #16]
 3796 0068 D2B2     		uxtb	r2, r2
 3797 006a 1A70     		strb	r2, [r3]
 665:C:/Users/dtjld/workspace/AIoT/src/LiteOS_Lab/iot_link/network/dtls/mbedtls/mbedtls-2.16.2/library\camellia.c **** 
 666:C:/Users/dtjld/workspace/AIoT/src/LiteOS_Lab/iot_link/network/dtls/mbedtls/mbedtls-2.16.2/library\camellia.c ****             n = ( n + 1 ) & 0x0F;
 3798              		.loc 1 666 0
 3799 006c 7B69     		ldr	r3, [r7, #20]
 3800 006e 0133     		adds	r3, r3, #1
 3801 0070 03F00F03 		and	r3, r3, #15
 3802 0074 7B61     		str	r3, [r7, #20]
 3803              	.L99:
 657:C:/Users/dtjld/workspace/AIoT/src/LiteOS_Lab/iot_link/network/dtls/mbedtls/mbedtls-2.16.2/library\camellia.c ****         {
 3804              		.loc 1 657 0
 3805 0076 7B68     		ldr	r3, [r7, #4]
 3806 0078 5A1E     		subs	r2, r3, #1
 3807 007a 7A60     		str	r2, [r7, #4]
 3808 007c 002B     		cmp	r3, #0
 3809 007e D3D1     		bne	.L101
 3810 0080 25E0     		b	.L102
 3811              	.L105:
 667:C:/Users/dtjld/workspace/AIoT/src/LiteOS_Lab/iot_link/network/dtls/mbedtls/mbedtls-2.16.2/library\camellia.c ****         }
 668:C:/Users/dtjld/workspace/AIoT/src/LiteOS_Lab/iot_link/network/dtls/mbedtls/mbedtls-2.16.2/library\camellia.c ****     }
 669:C:/Users/dtjld/workspace/AIoT/src/LiteOS_Lab/iot_link/network/dtls/mbedtls/mbedtls-2.16.2/library\camellia.c ****     else
 670:C:/Users/dtjld/workspace/AIoT/src/LiteOS_Lab/iot_link/network/dtls/mbedtls/mbedtls-2.16.2/library\camellia.c ****     {
 671:C:/Users/dtjld/workspace/AIoT/src/LiteOS_Lab/iot_link/network/dtls/mbedtls/mbedtls-2.16.2/library\camellia.c ****         while( length-- )
 672:C:/Users/dtjld/workspace/AIoT/src/LiteOS_Lab/iot_link/network/dtls/mbedtls/mbedtls-2.16.2/library\camellia.c ****         {
 673:C:/Users/dtjld/workspace/AIoT/src/LiteOS_Lab/iot_link/network/dtls/mbedtls/mbedtls-2.16.2/library\camellia.c ****             if( n == 0 )
 3812              		.loc 1 673 0
 3813 0082 7B69     		ldr	r3, [r7, #20]
 3814 0084 002B     		cmp	r3, #0
 3815 0086 05D1     		bne	.L104
 674:C:/Users/dtjld/workspace/AIoT/src/LiteOS_Lab/iot_link/network/dtls/mbedtls/mbedtls-2.16.2/library\camellia.c ****                 mbedtls_camellia_crypt_ecb( ctx, MBEDTLS_CAMELLIA_ENCRYPT, iv, iv );
 3816              		.loc 1 674 0
 3817 0088 3B6A     		ldr	r3, [r7, #32]
 3818 008a 3A6A     		ldr	r2, [r7, #32]
 3819 008c 0121     		movs	r1, #1
 3820 008e F868     		ldr	r0, [r7, #12]
 3821 0090 FFF7FEFF 		bl	mbedtls_camellia_crypt_ecb
 3822              	.L104:
 675:C:/Users/dtjld/workspace/AIoT/src/LiteOS_Lab/iot_link/network/dtls/mbedtls/mbedtls-2.16.2/library\camellia.c **** 
 676:C:/Users/dtjld/workspace/AIoT/src/LiteOS_Lab/iot_link/network/dtls/mbedtls/mbedtls-2.16.2/library\camellia.c ****             iv[n] = *output++ = (unsigned char)( iv[n] ^ *input++ );
 3823              		.loc 1 676 0
 3824 0094 3A6A     		ldr	r2, [r7, #32]
ARM GAS  C:\Users\dtjld\AppData\Local\Temp\ccRGkA1L.s 			page 80


 3825 0096 7B69     		ldr	r3, [r7, #20]
 3826 0098 1344     		add	r3, r3, r2
 3827 009a 1978     		ldrb	r1, [r3]	@ zero_extendqisi2
 3828 009c 7B6A     		ldr	r3, [r7, #36]
 3829 009e 5A1C     		adds	r2, r3, #1
 3830 00a0 7A62     		str	r2, [r7, #36]
 3831 00a2 1A78     		ldrb	r2, [r3]	@ zero_extendqisi2
 3832 00a4 BB6A     		ldr	r3, [r7, #40]
 3833 00a6 581C     		adds	r0, r3, #1
 3834 00a8 B862     		str	r0, [r7, #40]
 3835 00aa 4A40     		eors	r2, r2, r1
 3836 00ac D2B2     		uxtb	r2, r2
 3837 00ae 1A70     		strb	r2, [r3]
 3838 00b0 396A     		ldr	r1, [r7, #32]
 3839 00b2 7A69     		ldr	r2, [r7, #20]
 3840 00b4 0A44     		add	r2, r2, r1
 3841 00b6 1B78     		ldrb	r3, [r3]	@ zero_extendqisi2
 3842 00b8 1370     		strb	r3, [r2]
 677:C:/Users/dtjld/workspace/AIoT/src/LiteOS_Lab/iot_link/network/dtls/mbedtls/mbedtls-2.16.2/library\camellia.c **** 
 678:C:/Users/dtjld/workspace/AIoT/src/LiteOS_Lab/iot_link/network/dtls/mbedtls/mbedtls-2.16.2/library\camellia.c ****             n = ( n + 1 ) & 0x0F;
 3843              		.loc 1 678 0
 3844 00ba 7B69     		ldr	r3, [r7, #20]
 3845 00bc 0133     		adds	r3, r3, #1
 3846 00be 03F00F03 		and	r3, r3, #15
 3847 00c2 7B61     		str	r3, [r7, #20]
 3848              	.L103:
 671:C:/Users/dtjld/workspace/AIoT/src/LiteOS_Lab/iot_link/network/dtls/mbedtls/mbedtls-2.16.2/library\camellia.c ****         {
 3849              		.loc 1 671 0
 3850 00c4 7B68     		ldr	r3, [r7, #4]
 3851 00c6 5A1E     		subs	r2, r3, #1
 3852 00c8 7A60     		str	r2, [r7, #4]
 3853 00ca 002B     		cmp	r3, #0
 3854 00cc D9D1     		bne	.L105
 3855              	.L102:
 679:C:/Users/dtjld/workspace/AIoT/src/LiteOS_Lab/iot_link/network/dtls/mbedtls/mbedtls-2.16.2/library\camellia.c ****         }
 680:C:/Users/dtjld/workspace/AIoT/src/LiteOS_Lab/iot_link/network/dtls/mbedtls/mbedtls-2.16.2/library\camellia.c ****     }
 681:C:/Users/dtjld/workspace/AIoT/src/LiteOS_Lab/iot_link/network/dtls/mbedtls/mbedtls-2.16.2/library\camellia.c **** 
 682:C:/Users/dtjld/workspace/AIoT/src/LiteOS_Lab/iot_link/network/dtls/mbedtls/mbedtls-2.16.2/library\camellia.c ****     *iv_off = n;
 3856              		.loc 1 682 0
 3857 00ce 3B68     		ldr	r3, [r7]
 3858 00d0 7A69     		ldr	r2, [r7, #20]
 3859 00d2 1A60     		str	r2, [r3]
 683:C:/Users/dtjld/workspace/AIoT/src/LiteOS_Lab/iot_link/network/dtls/mbedtls/mbedtls-2.16.2/library\camellia.c **** 
 684:C:/Users/dtjld/workspace/AIoT/src/LiteOS_Lab/iot_link/network/dtls/mbedtls/mbedtls-2.16.2/library\camellia.c ****     return( 0 );
 3860              		.loc 1 684 0
 3861 00d4 0023     		movs	r3, #0
 3862              	.L97:
 685:C:/Users/dtjld/workspace/AIoT/src/LiteOS_Lab/iot_link/network/dtls/mbedtls/mbedtls-2.16.2/library\camellia.c **** }
 3863              		.loc 1 685 0
 3864 00d6 1846     		mov	r0, r3
 3865 00d8 1837     		adds	r7, r7, #24
 3866              	.LCFI39:
 3867              		.cfi_def_cfa_offset 8
 3868 00da BD46     		mov	sp, r7
 3869              	.LCFI40:
 3870              		.cfi_def_cfa_register 13
 3871              		@ sp needed
ARM GAS  C:\Users\dtjld\AppData\Local\Temp\ccRGkA1L.s 			page 81


 3872 00dc 80BD     		pop	{r7, pc}
 3873              		.cfi_endproc
 3874              	.LFE10:
 3876              		.section	.text.mbedtls_camellia_crypt_ctr,"ax",%progbits
 3877              		.align	1
 3878              		.global	mbedtls_camellia_crypt_ctr
 3879              		.syntax unified
 3880              		.thumb
 3881              		.thumb_func
 3882              		.fpu fpv4-sp-d16
 3884              	mbedtls_camellia_crypt_ctr:
 3885              	.LFB11:
 686:C:/Users/dtjld/workspace/AIoT/src/LiteOS_Lab/iot_link/network/dtls/mbedtls/mbedtls-2.16.2/library\camellia.c **** #endif /* MBEDTLS_CIPHER_MODE_CFB */
 687:C:/Users/dtjld/workspace/AIoT/src/LiteOS_Lab/iot_link/network/dtls/mbedtls/mbedtls-2.16.2/library\camellia.c **** 
 688:C:/Users/dtjld/workspace/AIoT/src/LiteOS_Lab/iot_link/network/dtls/mbedtls/mbedtls-2.16.2/library\camellia.c **** #if defined(MBEDTLS_CIPHER_MODE_CTR)
 689:C:/Users/dtjld/workspace/AIoT/src/LiteOS_Lab/iot_link/network/dtls/mbedtls/mbedtls-2.16.2/library\camellia.c **** /*
 690:C:/Users/dtjld/workspace/AIoT/src/LiteOS_Lab/iot_link/network/dtls/mbedtls/mbedtls-2.16.2/library\camellia.c ****  * Camellia-CTR buffer encryption/decryption
 691:C:/Users/dtjld/workspace/AIoT/src/LiteOS_Lab/iot_link/network/dtls/mbedtls/mbedtls-2.16.2/library\camellia.c ****  */
 692:C:/Users/dtjld/workspace/AIoT/src/LiteOS_Lab/iot_link/network/dtls/mbedtls/mbedtls-2.16.2/library\camellia.c **** int mbedtls_camellia_crypt_ctr( mbedtls_camellia_context *ctx,
 693:C:/Users/dtjld/workspace/AIoT/src/LiteOS_Lab/iot_link/network/dtls/mbedtls/mbedtls-2.16.2/library\camellia.c ****                        size_t length,
 694:C:/Users/dtjld/workspace/AIoT/src/LiteOS_Lab/iot_link/network/dtls/mbedtls/mbedtls-2.16.2/library\camellia.c ****                        size_t *nc_off,
 695:C:/Users/dtjld/workspace/AIoT/src/LiteOS_Lab/iot_link/network/dtls/mbedtls/mbedtls-2.16.2/library\camellia.c ****                        unsigned char nonce_counter[16],
 696:C:/Users/dtjld/workspace/AIoT/src/LiteOS_Lab/iot_link/network/dtls/mbedtls/mbedtls-2.16.2/library\camellia.c ****                        unsigned char stream_block[16],
 697:C:/Users/dtjld/workspace/AIoT/src/LiteOS_Lab/iot_link/network/dtls/mbedtls/mbedtls-2.16.2/library\camellia.c ****                        const unsigned char *input,
 698:C:/Users/dtjld/workspace/AIoT/src/LiteOS_Lab/iot_link/network/dtls/mbedtls/mbedtls-2.16.2/library\camellia.c ****                        unsigned char *output )
 699:C:/Users/dtjld/workspace/AIoT/src/LiteOS_Lab/iot_link/network/dtls/mbedtls/mbedtls-2.16.2/library\camellia.c **** {
 3886              		.loc 1 699 0
 3887              		.cfi_startproc
 3888              		@ args = 12, pretend = 0, frame = 32
 3889              		@ frame_needed = 1, uses_anonymous_args = 0
 3890 0000 80B5     		push	{r7, lr}
 3891              	.LCFI41:
 3892              		.cfi_def_cfa_offset 8
 3893              		.cfi_offset 7, -8
 3894              		.cfi_offset 14, -4
 3895 0002 88B0     		sub	sp, sp, #32
 3896              	.LCFI42:
 3897              		.cfi_def_cfa_offset 40
 3898 0004 00AF     		add	r7, sp, #0
 3899              	.LCFI43:
 3900              		.cfi_def_cfa_register 7
 3901 0006 F860     		str	r0, [r7, #12]
 3902 0008 B960     		str	r1, [r7, #8]
 3903 000a 7A60     		str	r2, [r7, #4]
 3904 000c 3B60     		str	r3, [r7]
 700:C:/Users/dtjld/workspace/AIoT/src/LiteOS_Lab/iot_link/network/dtls/mbedtls/mbedtls-2.16.2/library\camellia.c ****     int c, i;
 701:C:/Users/dtjld/workspace/AIoT/src/LiteOS_Lab/iot_link/network/dtls/mbedtls/mbedtls-2.16.2/library\camellia.c ****     size_t n;
 702:C:/Users/dtjld/workspace/AIoT/src/LiteOS_Lab/iot_link/network/dtls/mbedtls/mbedtls-2.16.2/library\camellia.c ****     CAMELLIA_VALIDATE_RET( ctx != NULL );
 703:C:/Users/dtjld/workspace/AIoT/src/LiteOS_Lab/iot_link/network/dtls/mbedtls/mbedtls-2.16.2/library\camellia.c ****     CAMELLIA_VALIDATE_RET( nonce_counter != NULL );
 704:C:/Users/dtjld/workspace/AIoT/src/LiteOS_Lab/iot_link/network/dtls/mbedtls/mbedtls-2.16.2/library\camellia.c ****     CAMELLIA_VALIDATE_RET( stream_block  != NULL );
 705:C:/Users/dtjld/workspace/AIoT/src/LiteOS_Lab/iot_link/network/dtls/mbedtls/mbedtls-2.16.2/library\camellia.c ****     CAMELLIA_VALIDATE_RET( nc_off != NULL );
 706:C:/Users/dtjld/workspace/AIoT/src/LiteOS_Lab/iot_link/network/dtls/mbedtls/mbedtls-2.16.2/library\camellia.c ****     CAMELLIA_VALIDATE_RET( length == 0 || input  != NULL );
 707:C:/Users/dtjld/workspace/AIoT/src/LiteOS_Lab/iot_link/network/dtls/mbedtls/mbedtls-2.16.2/library\camellia.c ****     CAMELLIA_VALIDATE_RET( length == 0 || output != NULL );
 708:C:/Users/dtjld/workspace/AIoT/src/LiteOS_Lab/iot_link/network/dtls/mbedtls/mbedtls-2.16.2/library\camellia.c **** 
 709:C:/Users/dtjld/workspace/AIoT/src/LiteOS_Lab/iot_link/network/dtls/mbedtls/mbedtls-2.16.2/library\camellia.c ****     n = *nc_off;
 3905              		.loc 1 709 0
 3906 000e 7B68     		ldr	r3, [r7, #4]
ARM GAS  C:\Users\dtjld\AppData\Local\Temp\ccRGkA1L.s 			page 82


 3907 0010 1B68     		ldr	r3, [r3]
 3908 0012 BB61     		str	r3, [r7, #24]
 710:C:/Users/dtjld/workspace/AIoT/src/LiteOS_Lab/iot_link/network/dtls/mbedtls/mbedtls-2.16.2/library\camellia.c ****     if( n >= 16 )
 3909              		.loc 1 710 0
 3910 0014 BB69     		ldr	r3, [r7, #24]
 3911 0016 0F2B     		cmp	r3, #15
 3912 0018 39D9     		bls	.L109
 711:C:/Users/dtjld/workspace/AIoT/src/LiteOS_Lab/iot_link/network/dtls/mbedtls/mbedtls-2.16.2/library\camellia.c ****         return( MBEDTLS_ERR_CAMELLIA_BAD_INPUT_DATA );
 3913              		.loc 1 711 0
 3914 001a 6FF02303 		mvn	r3, #35
 3915 001e 3FE0     		b	.L108
 3916              	.L114:
 712:C:/Users/dtjld/workspace/AIoT/src/LiteOS_Lab/iot_link/network/dtls/mbedtls/mbedtls-2.16.2/library\camellia.c **** 
 713:C:/Users/dtjld/workspace/AIoT/src/LiteOS_Lab/iot_link/network/dtls/mbedtls/mbedtls-2.16.2/library\camellia.c ****     while( length-- )
 714:C:/Users/dtjld/workspace/AIoT/src/LiteOS_Lab/iot_link/network/dtls/mbedtls/mbedtls-2.16.2/library\camellia.c ****     {
 715:C:/Users/dtjld/workspace/AIoT/src/LiteOS_Lab/iot_link/network/dtls/mbedtls/mbedtls-2.16.2/library\camellia.c ****         if( n == 0 ) {
 3917              		.loc 1 715 0
 3918 0020 BB69     		ldr	r3, [r7, #24]
 3919 0022 002B     		cmp	r3, #0
 3920 0024 1BD1     		bne	.L110
 716:C:/Users/dtjld/workspace/AIoT/src/LiteOS_Lab/iot_link/network/dtls/mbedtls/mbedtls-2.16.2/library\camellia.c ****             mbedtls_camellia_crypt_ecb( ctx, MBEDTLS_CAMELLIA_ENCRYPT, nonce_counter,
 3921              		.loc 1 716 0
 3922 0026 BB6A     		ldr	r3, [r7, #40]
 3923 0028 3A68     		ldr	r2, [r7]
 3924 002a 0121     		movs	r1, #1
 3925 002c F868     		ldr	r0, [r7, #12]
 3926 002e FFF7FEFF 		bl	mbedtls_camellia_crypt_ecb
 717:C:/Users/dtjld/workspace/AIoT/src/LiteOS_Lab/iot_link/network/dtls/mbedtls/mbedtls-2.16.2/library\camellia.c ****                                 stream_block );
 718:C:/Users/dtjld/workspace/AIoT/src/LiteOS_Lab/iot_link/network/dtls/mbedtls/mbedtls-2.16.2/library\camellia.c **** 
 719:C:/Users/dtjld/workspace/AIoT/src/LiteOS_Lab/iot_link/network/dtls/mbedtls/mbedtls-2.16.2/library\camellia.c ****             for( i = 16; i > 0; i-- )
 3927              		.loc 1 719 0
 3928 0032 1023     		movs	r3, #16
 3929 0034 FB61     		str	r3, [r7, #28]
 3930 0036 0DE0     		b	.L111
 3931              	.L113:
 720:C:/Users/dtjld/workspace/AIoT/src/LiteOS_Lab/iot_link/network/dtls/mbedtls/mbedtls-2.16.2/library\camellia.c ****                 if( ++nonce_counter[i - 1] != 0 )
 3932              		.loc 1 720 0
 3933 0038 FB69     		ldr	r3, [r7, #28]
 3934 003a 013B     		subs	r3, r3, #1
 3935 003c 3A68     		ldr	r2, [r7]
 3936 003e 1344     		add	r3, r3, r2
 3937 0040 1A78     		ldrb	r2, [r3]	@ zero_extendqisi2
 3938 0042 0132     		adds	r2, r2, #1
 3939 0044 D2B2     		uxtb	r2, r2
 3940 0046 1A70     		strb	r2, [r3]
 3941 0048 1B78     		ldrb	r3, [r3]	@ zero_extendqisi2
 3942 004a 002B     		cmp	r3, #0
 3943 004c 06D1     		bne	.L115
 719:C:/Users/dtjld/workspace/AIoT/src/LiteOS_Lab/iot_link/network/dtls/mbedtls/mbedtls-2.16.2/library\camellia.c ****                 if( ++nonce_counter[i - 1] != 0 )
 3944              		.loc 1 719 0 discriminator 2
 3945 004e FB69     		ldr	r3, [r7, #28]
 3946 0050 013B     		subs	r3, r3, #1
 3947 0052 FB61     		str	r3, [r7, #28]
 3948              	.L111:
 719:C:/Users/dtjld/workspace/AIoT/src/LiteOS_Lab/iot_link/network/dtls/mbedtls/mbedtls-2.16.2/library\camellia.c ****                 if( ++nonce_counter[i - 1] != 0 )
 3949              		.loc 1 719 0 is_stmt 0 discriminator 1
 3950 0054 FB69     		ldr	r3, [r7, #28]
ARM GAS  C:\Users\dtjld\AppData\Local\Temp\ccRGkA1L.s 			page 83


 3951 0056 002B     		cmp	r3, #0
 3952 0058 EEDC     		bgt	.L113
 3953 005a 00E0     		b	.L110
 3954              	.L115:
 721:C:/Users/dtjld/workspace/AIoT/src/LiteOS_Lab/iot_link/network/dtls/mbedtls/mbedtls-2.16.2/library\camellia.c ****                     break;
 3955              		.loc 1 721 0 is_stmt 1
 3956 005c 00BF     		nop
 3957              	.L110:
 722:C:/Users/dtjld/workspace/AIoT/src/LiteOS_Lab/iot_link/network/dtls/mbedtls/mbedtls-2.16.2/library\camellia.c ****         }
 723:C:/Users/dtjld/workspace/AIoT/src/LiteOS_Lab/iot_link/network/dtls/mbedtls/mbedtls-2.16.2/library\camellia.c ****         c = *input++;
 3958              		.loc 1 723 0
 3959 005e FB6A     		ldr	r3, [r7, #44]
 3960 0060 5A1C     		adds	r2, r3, #1
 3961 0062 FA62     		str	r2, [r7, #44]
 3962 0064 1B78     		ldrb	r3, [r3]	@ zero_extendqisi2
 3963 0066 7B61     		str	r3, [r7, #20]
 724:C:/Users/dtjld/workspace/AIoT/src/LiteOS_Lab/iot_link/network/dtls/mbedtls/mbedtls-2.16.2/library\camellia.c ****         *output++ = (unsigned char)( c ^ stream_block[n] );
 3964              		.loc 1 724 0
 3965 0068 7B69     		ldr	r3, [r7, #20]
 3966 006a 5AB2     		sxtb	r2, r3
 3967 006c B96A     		ldr	r1, [r7, #40]
 3968 006e BB69     		ldr	r3, [r7, #24]
 3969 0070 0B44     		add	r3, r3, r1
 3970 0072 1B78     		ldrb	r3, [r3]	@ zero_extendqisi2
 3971 0074 5BB2     		sxtb	r3, r3
 3972 0076 5340     		eors	r3, r3, r2
 3973 0078 59B2     		sxtb	r1, r3
 3974 007a 3B6B     		ldr	r3, [r7, #48]
 3975 007c 5A1C     		adds	r2, r3, #1
 3976 007e 3A63     		str	r2, [r7, #48]
 3977 0080 CAB2     		uxtb	r2, r1
 3978 0082 1A70     		strb	r2, [r3]
 725:C:/Users/dtjld/workspace/AIoT/src/LiteOS_Lab/iot_link/network/dtls/mbedtls/mbedtls-2.16.2/library\camellia.c **** 
 726:C:/Users/dtjld/workspace/AIoT/src/LiteOS_Lab/iot_link/network/dtls/mbedtls/mbedtls-2.16.2/library\camellia.c ****         n = ( n + 1 ) & 0x0F;
 3979              		.loc 1 726 0
 3980 0084 BB69     		ldr	r3, [r7, #24]
 3981 0086 0133     		adds	r3, r3, #1
 3982 0088 03F00F03 		and	r3, r3, #15
 3983 008c BB61     		str	r3, [r7, #24]
 3984              	.L109:
 713:C:/Users/dtjld/workspace/AIoT/src/LiteOS_Lab/iot_link/network/dtls/mbedtls/mbedtls-2.16.2/library\camellia.c ****     {
 3985              		.loc 1 713 0
 3986 008e BB68     		ldr	r3, [r7, #8]
 3987 0090 5A1E     		subs	r2, r3, #1
 3988 0092 BA60     		str	r2, [r7, #8]
 3989 0094 002B     		cmp	r3, #0
 3990 0096 C3D1     		bne	.L114
 727:C:/Users/dtjld/workspace/AIoT/src/LiteOS_Lab/iot_link/network/dtls/mbedtls/mbedtls-2.16.2/library\camellia.c ****     }
 728:C:/Users/dtjld/workspace/AIoT/src/LiteOS_Lab/iot_link/network/dtls/mbedtls/mbedtls-2.16.2/library\camellia.c **** 
 729:C:/Users/dtjld/workspace/AIoT/src/LiteOS_Lab/iot_link/network/dtls/mbedtls/mbedtls-2.16.2/library\camellia.c ****     *nc_off = n;
 3991              		.loc 1 729 0
 3992 0098 7B68     		ldr	r3, [r7, #4]
 3993 009a BA69     		ldr	r2, [r7, #24]
 3994 009c 1A60     		str	r2, [r3]
 730:C:/Users/dtjld/workspace/AIoT/src/LiteOS_Lab/iot_link/network/dtls/mbedtls/mbedtls-2.16.2/library\camellia.c **** 
 731:C:/Users/dtjld/workspace/AIoT/src/LiteOS_Lab/iot_link/network/dtls/mbedtls/mbedtls-2.16.2/library\camellia.c ****     return( 0 );
 3995              		.loc 1 731 0
ARM GAS  C:\Users\dtjld\AppData\Local\Temp\ccRGkA1L.s 			page 84


 3996 009e 0023     		movs	r3, #0
 3997              	.L108:
 732:C:/Users/dtjld/workspace/AIoT/src/LiteOS_Lab/iot_link/network/dtls/mbedtls/mbedtls-2.16.2/library\camellia.c **** }
 3998              		.loc 1 732 0
 3999 00a0 1846     		mov	r0, r3
 4000 00a2 2037     		adds	r7, r7, #32
 4001              	.LCFI44:
 4002              		.cfi_def_cfa_offset 8
 4003 00a4 BD46     		mov	sp, r7
 4004              	.LCFI45:
 4005              		.cfi_def_cfa_register 13
 4006              		@ sp needed
 4007 00a6 80BD     		pop	{r7, pc}
 4008              		.cfi_endproc
 4009              	.LFE11:
 4011              		.section	.rodata.camellia_test_ecb_key,"a",%progbits
 4012              		.align	2
 4015              	camellia_test_ecb_key:
 4016 0000 01       		.byte	1
 4017 0001 23       		.byte	35
 4018 0002 45       		.byte	69
 4019 0003 67       		.byte	103
 4020 0004 89       		.byte	-119
 4021 0005 AB       		.byte	-85
 4022 0006 CD       		.byte	-51
 4023 0007 EF       		.byte	-17
 4024 0008 FE       		.byte	-2
 4025 0009 DC       		.byte	-36
 4026 000a BA       		.byte	-70
 4027 000b 98       		.byte	-104
 4028 000c 76       		.byte	118
 4029 000d 54       		.byte	84
 4030 000e 32       		.byte	50
 4031 000f 10       		.byte	16
 4032 0010 00000000 		.space	16
 4032      00000000 
 4032      00000000 
 4032      00000000 
 4033 0020 00       		.byte	0
 4034 0021 00       		.byte	0
 4035 0022 00       		.byte	0
 4036 0023 00       		.byte	0
 4037 0024 00       		.byte	0
 4038 0025 00       		.byte	0
 4039 0026 00       		.byte	0
 4040 0027 00       		.byte	0
 4041 0028 00       		.byte	0
 4042 0029 00       		.byte	0
 4043 002a 00       		.byte	0
 4044 002b 00       		.byte	0
 4045 002c 00       		.byte	0
 4046 002d 00       		.byte	0
 4047 002e 00       		.byte	0
 4048 002f 00       		.byte	0
 4049 0030 00000000 		.space	16
 4049      00000000 
 4049      00000000 
ARM GAS  C:\Users\dtjld\AppData\Local\Temp\ccRGkA1L.s 			page 85


 4049      00000000 
 4050 0040 01       		.byte	1
 4051 0041 23       		.byte	35
 4052 0042 45       		.byte	69
 4053 0043 67       		.byte	103
 4054 0044 89       		.byte	-119
 4055 0045 AB       		.byte	-85
 4056 0046 CD       		.byte	-51
 4057 0047 EF       		.byte	-17
 4058 0048 FE       		.byte	-2
 4059 0049 DC       		.byte	-36
 4060 004a BA       		.byte	-70
 4061 004b 98       		.byte	-104
 4062 004c 76       		.byte	118
 4063 004d 54       		.byte	84
 4064 004e 32       		.byte	50
 4065 004f 10       		.byte	16
 4066 0050 00       		.byte	0
 4067 0051 11       		.byte	17
 4068 0052 22       		.byte	34
 4069 0053 33       		.byte	51
 4070 0054 44       		.byte	68
 4071 0055 55       		.byte	85
 4072 0056 66       		.byte	102
 4073 0057 77       		.byte	119
 4074 0058 00000000 		.space	8
 4074      00000000 
 4075 0060 00       		.byte	0
 4076 0061 00       		.byte	0
 4077 0062 00       		.byte	0
 4078 0063 00       		.byte	0
 4079 0064 00       		.byte	0
 4080 0065 00       		.byte	0
 4081 0066 00       		.byte	0
 4082 0067 00       		.byte	0
 4083 0068 00       		.byte	0
 4084 0069 00       		.byte	0
 4085 006a 00       		.byte	0
 4086 006b 00       		.byte	0
 4087 006c 00       		.byte	0
 4088 006d 00       		.byte	0
 4089 006e 00       		.byte	0
 4090 006f 00       		.byte	0
 4091 0070 00       		.byte	0
 4092 0071 00       		.byte	0
 4093 0072 00       		.byte	0
 4094 0073 00       		.byte	0
 4095 0074 00       		.byte	0
 4096 0075 00       		.byte	0
 4097 0076 00       		.byte	0
 4098 0077 00       		.byte	0
 4099 0078 00000000 		.space	8
 4099      00000000 
 4100 0080 01       		.byte	1
 4101 0081 23       		.byte	35
 4102 0082 45       		.byte	69
 4103 0083 67       		.byte	103
ARM GAS  C:\Users\dtjld\AppData\Local\Temp\ccRGkA1L.s 			page 86


 4104 0084 89       		.byte	-119
 4105 0085 AB       		.byte	-85
 4106 0086 CD       		.byte	-51
 4107 0087 EF       		.byte	-17
 4108 0088 FE       		.byte	-2
 4109 0089 DC       		.byte	-36
 4110 008a BA       		.byte	-70
 4111 008b 98       		.byte	-104
 4112 008c 76       		.byte	118
 4113 008d 54       		.byte	84
 4114 008e 32       		.byte	50
 4115 008f 10       		.byte	16
 4116 0090 00       		.byte	0
 4117 0091 11       		.byte	17
 4118 0092 22       		.byte	34
 4119 0093 33       		.byte	51
 4120 0094 44       		.byte	68
 4121 0095 55       		.byte	85
 4122 0096 66       		.byte	102
 4123 0097 77       		.byte	119
 4124 0098 88       		.byte	-120
 4125 0099 99       		.byte	-103
 4126 009a AA       		.byte	-86
 4127 009b BB       		.byte	-69
 4128 009c CC       		.byte	-52
 4129 009d DD       		.byte	-35
 4130 009e EE       		.byte	-18
 4131 009f FF       		.byte	-1
 4132 00a0 00       		.byte	0
 4133 00a1 00       		.byte	0
 4134 00a2 00       		.byte	0
 4135 00a3 00       		.byte	0
 4136 00a4 00       		.byte	0
 4137 00a5 00       		.byte	0
 4138 00a6 00       		.byte	0
 4139 00a7 00       		.byte	0
 4140 00a8 00       		.byte	0
 4141 00a9 00       		.byte	0
 4142 00aa 00       		.byte	0
 4143 00ab 00       		.byte	0
 4144 00ac 00       		.byte	0
 4145 00ad 00       		.byte	0
 4146 00ae 00       		.byte	0
 4147 00af 00       		.byte	0
 4148 00b0 00       		.byte	0
 4149 00b1 00       		.byte	0
 4150 00b2 00       		.byte	0
 4151 00b3 00       		.byte	0
 4152 00b4 00       		.byte	0
 4153 00b5 00       		.byte	0
 4154 00b6 00       		.byte	0
 4155 00b7 00       		.byte	0
 4156 00b8 00       		.byte	0
 4157 00b9 00       		.byte	0
 4158 00ba 00       		.byte	0
 4159 00bb 00       		.byte	0
 4160 00bc 00       		.byte	0
ARM GAS  C:\Users\dtjld\AppData\Local\Temp\ccRGkA1L.s 			page 87


 4161 00bd 00       		.byte	0
 4162 00be 00       		.byte	0
 4163 00bf 00       		.byte	0
 4164              		.section	.rodata.camellia_test_ecb_plain,"a",%progbits
 4165              		.align	2
 4168              	camellia_test_ecb_plain:
 4169 0000 01       		.byte	1
 4170 0001 23       		.byte	35
 4171 0002 45       		.byte	69
 4172 0003 67       		.byte	103
 4173 0004 89       		.byte	-119
 4174 0005 AB       		.byte	-85
 4175 0006 CD       		.byte	-51
 4176 0007 EF       		.byte	-17
 4177 0008 FE       		.byte	-2
 4178 0009 DC       		.byte	-36
 4179 000a BA       		.byte	-70
 4180 000b 98       		.byte	-104
 4181 000c 76       		.byte	118
 4182 000d 54       		.byte	84
 4183 000e 32       		.byte	50
 4184 000f 10       		.byte	16
 4185 0010 00       		.byte	0
 4186 0011 00       		.byte	0
 4187 0012 00       		.byte	0
 4188 0013 00       		.byte	0
 4189 0014 02       		.byte	2
 4190 0015 00       		.byte	0
 4191 0016 00       		.byte	0
 4192 0017 00       		.byte	0
 4193 0018 00       		.byte	0
 4194 0019 00       		.byte	0
 4195 001a 00       		.byte	0
 4196 001b 00       		.byte	0
 4197 001c 00       		.byte	0
 4198 001d 00       		.byte	0
 4199 001e 00       		.byte	0
 4200 001f 00       		.byte	0
 4201              		.section	.rodata.camellia_test_ecb_cipher,"a",%progbits
 4202              		.align	2
 4205              	camellia_test_ecb_cipher:
 4206 0000 67       		.byte	103
 4207 0001 67       		.byte	103
 4208 0002 31       		.byte	49
 4209 0003 38       		.byte	56
 4210 0004 54       		.byte	84
 4211 0005 96       		.byte	-106
 4212 0006 69       		.byte	105
 4213 0007 73       		.byte	115
 4214 0008 08       		.byte	8
 4215 0009 57       		.byte	87
 4216 000a 06       		.byte	6
 4217 000b 56       		.byte	86
 4218 000c 48       		.byte	72
 4219 000d EA       		.byte	-22
 4220 000e BE       		.byte	-66
 4221 000f 43       		.byte	67
ARM GAS  C:\Users\dtjld\AppData\Local\Temp\ccRGkA1L.s 			page 88


 4222 0010 38       		.byte	56
 4223 0011 3C       		.byte	60
 4224 0012 6C       		.byte	108
 4225 0013 2A       		.byte	42
 4226 0014 AB       		.byte	-85
 4227 0015 EF       		.byte	-17
 4228 0016 7F       		.byte	127
 4229 0017 DE       		.byte	-34
 4230 0018 25       		.byte	37
 4231 0019 CD       		.byte	-51
 4232 001a 47       		.byte	71
 4233 001b 0B       		.byte	11
 4234 001c F7       		.byte	-9
 4235 001d 74       		.byte	116
 4236 001e A3       		.byte	-93
 4237 001f 31       		.byte	49
 4238 0020 B4       		.byte	-76
 4239 0021 99       		.byte	-103
 4240 0022 34       		.byte	52
 4241 0023 01       		.byte	1
 4242 0024 B3       		.byte	-77
 4243 0025 E9       		.byte	-23
 4244 0026 96       		.byte	-106
 4245 0027 F8       		.byte	-8
 4246 0028 4E       		.byte	78
 4247 0029 E5       		.byte	-27
 4248 002a CE       		.byte	-50
 4249 002b E7       		.byte	-25
 4250 002c D7       		.byte	-41
 4251 002d 9B       		.byte	-101
 4252 002e 09       		.byte	9
 4253 002f B9       		.byte	-71
 4254 0030 D1       		.byte	-47
 4255 0031 76       		.byte	118
 4256 0032 3F       		.byte	63
 4257 0033 C0       		.byte	-64
 4258 0034 19       		.byte	25
 4259 0035 D7       		.byte	-41
 4260 0036 7C       		.byte	124
 4261 0037 C9       		.byte	-55
 4262 0038 30       		.byte	48
 4263 0039 BF       		.byte	-65
 4264 003a F2       		.byte	-14
 4265 003b A5       		.byte	-91
 4266 003c 6F       		.byte	111
 4267 003d 7C       		.byte	124
 4268 003e 93       		.byte	-109
 4269 003f 64       		.byte	100
 4270 0040 9A       		.byte	-102
 4271 0041 CC       		.byte	-52
 4272 0042 23       		.byte	35
 4273 0043 7D       		.byte	125
 4274 0044 FF       		.byte	-1
 4275 0045 16       		.byte	22
 4276 0046 D7       		.byte	-41
 4277 0047 6C       		.byte	108
 4278 0048 20       		.byte	32
ARM GAS  C:\Users\dtjld\AppData\Local\Temp\ccRGkA1L.s 			page 89


 4279 0049 EF       		.byte	-17
 4280 004a 7C       		.byte	124
 4281 004b 91       		.byte	-111
 4282 004c 9E       		.byte	-98
 4283 004d 3A       		.byte	58
 4284 004e 75       		.byte	117
 4285 004f 09       		.byte	9
 4286 0050 05       		.byte	5
 4287 0051 03       		.byte	3
 4288 0052 FB       		.byte	-5
 4289 0053 10       		.byte	16
 4290 0054 AB       		.byte	-85
 4291 0055 24       		.byte	36
 4292 0056 1E       		.byte	30
 4293 0057 7C       		.byte	124
 4294 0058 F4       		.byte	-12
 4295 0059 5D       		.byte	93
 4296 005a 8C       		.byte	-116
 4297 005b DE       		.byte	-34
 4298 005c EE       		.byte	-18
 4299 005d 47       		.byte	71
 4300 005e 43       		.byte	67
 4301 005f 35       		.byte	53
 4302              		.section	.rodata.camellia_test_cbc_key,"a",%progbits
 4303              		.align	2
 4306              	camellia_test_cbc_key:
 4307 0000 2B       		.byte	43
 4308 0001 7E       		.byte	126
 4309 0002 15       		.byte	21
 4310 0003 16       		.byte	22
 4311 0004 28       		.byte	40
 4312 0005 AE       		.byte	-82
 4313 0006 D2       		.byte	-46
 4314 0007 A6       		.byte	-90
 4315 0008 AB       		.byte	-85
 4316 0009 F7       		.byte	-9
 4317 000a 15       		.byte	21
 4318 000b 88       		.byte	-120
 4319 000c 09       		.byte	9
 4320 000d CF       		.byte	-49
 4321 000e 4F       		.byte	79
 4322 000f 3C       		.byte	60
 4323 0010 00000000 		.space	16
 4323      00000000 
 4323      00000000 
 4323      00000000 
 4324 0020 8E       		.byte	-114
 4325 0021 73       		.byte	115
 4326 0022 B0       		.byte	-80
 4327 0023 F7       		.byte	-9
 4328 0024 DA       		.byte	-38
 4329 0025 0E       		.byte	14
 4330 0026 64       		.byte	100
 4331 0027 52       		.byte	82
 4332 0028 C8       		.byte	-56
 4333 0029 10       		.byte	16
 4334 002a F3       		.byte	-13
ARM GAS  C:\Users\dtjld\AppData\Local\Temp\ccRGkA1L.s 			page 90


 4335 002b 2B       		.byte	43
 4336 002c 80       		.byte	-128
 4337 002d 90       		.byte	-112
 4338 002e 79       		.byte	121
 4339 002f E5       		.byte	-27
 4340 0030 62       		.byte	98
 4341 0031 F8       		.byte	-8
 4342 0032 EA       		.byte	-22
 4343 0033 D2       		.byte	-46
 4344 0034 52       		.byte	82
 4345 0035 2C       		.byte	44
 4346 0036 6B       		.byte	107
 4347 0037 7B       		.byte	123
 4348 0038 00000000 		.space	8
 4348      00000000 
 4349 0040 60       		.byte	96
 4350 0041 3D       		.byte	61
 4351 0042 EB       		.byte	-21
 4352 0043 10       		.byte	16
 4353 0044 15       		.byte	21
 4354 0045 CA       		.byte	-54
 4355 0046 71       		.byte	113
 4356 0047 BE       		.byte	-66
 4357 0048 2B       		.byte	43
 4358 0049 73       		.byte	115
 4359 004a AE       		.byte	-82
 4360 004b F0       		.byte	-16
 4361 004c 85       		.byte	-123
 4362 004d 7D       		.byte	125
 4363 004e 77       		.byte	119
 4364 004f 81       		.byte	-127
 4365 0050 1F       		.byte	31
 4366 0051 35       		.byte	53
 4367 0052 2C       		.byte	44
 4368 0053 07       		.byte	7
 4369 0054 3B       		.byte	59
 4370 0055 61       		.byte	97
 4371 0056 08       		.byte	8
 4372 0057 D7       		.byte	-41
 4373 0058 2D       		.byte	45
 4374 0059 98       		.byte	-104
 4375 005a 10       		.byte	16
 4376 005b A3       		.byte	-93
 4377 005c 09       		.byte	9
 4378 005d 14       		.byte	20
 4379 005e DF       		.byte	-33
 4380 005f F4       		.byte	-12
 4381              		.section	.rodata.camellia_test_cbc_iv,"a",%progbits
 4382              		.align	2
 4385              	camellia_test_cbc_iv:
 4386 0000 00       		.byte	0
 4387 0001 01       		.byte	1
 4388 0002 02       		.byte	2
 4389 0003 03       		.byte	3
 4390 0004 04       		.byte	4
 4391 0005 05       		.byte	5
 4392 0006 06       		.byte	6
ARM GAS  C:\Users\dtjld\AppData\Local\Temp\ccRGkA1L.s 			page 91


 4393 0007 07       		.byte	7
 4394 0008 08       		.byte	8
 4395 0009 09       		.byte	9
 4396 000a 0A       		.byte	10
 4397 000b 0B       		.byte	11
 4398 000c 0C       		.byte	12
 4399 000d 0D       		.byte	13
 4400 000e 0E       		.byte	14
 4401 000f 0F       		.byte	15
 4402              		.section	.rodata.camellia_test_cbc_plain,"a",%progbits
 4403              		.align	2
 4406              	camellia_test_cbc_plain:
 4407 0000 6B       		.byte	107
 4408 0001 C1       		.byte	-63
 4409 0002 BE       		.byte	-66
 4410 0003 E2       		.byte	-30
 4411 0004 2E       		.byte	46
 4412 0005 40       		.byte	64
 4413 0006 9F       		.byte	-97
 4414 0007 96       		.byte	-106
 4415 0008 E9       		.byte	-23
 4416 0009 3D       		.byte	61
 4417 000a 7E       		.byte	126
 4418 000b 11       		.byte	17
 4419 000c 73       		.byte	115
 4420 000d 93       		.byte	-109
 4421 000e 17       		.byte	23
 4422 000f 2A       		.byte	42
 4423 0010 AE       		.byte	-82
 4424 0011 2D       		.byte	45
 4425 0012 8A       		.byte	-118
 4426 0013 57       		.byte	87
 4427 0014 1E       		.byte	30
 4428 0015 03       		.byte	3
 4429 0016 AC       		.byte	-84
 4430 0017 9C       		.byte	-100
 4431 0018 9E       		.byte	-98
 4432 0019 B7       		.byte	-73
 4433 001a 6F       		.byte	111
 4434 001b AC       		.byte	-84
 4435 001c 45       		.byte	69
 4436 001d AF       		.byte	-81
 4437 001e 8E       		.byte	-114
 4438 001f 51       		.byte	81
 4439 0020 30       		.byte	48
 4440 0021 C8       		.byte	-56
 4441 0022 1C       		.byte	28
 4442 0023 46       		.byte	70
 4443 0024 A3       		.byte	-93
 4444 0025 5C       		.byte	92
 4445 0026 E4       		.byte	-28
 4446 0027 11       		.byte	17
 4447 0028 E5       		.byte	-27
 4448 0029 FB       		.byte	-5
 4449 002a C1       		.byte	-63
 4450 002b 19       		.byte	25
 4451 002c 1A       		.byte	26
ARM GAS  C:\Users\dtjld\AppData\Local\Temp\ccRGkA1L.s 			page 92


 4452 002d 0A       		.byte	10
 4453 002e 52       		.byte	82
 4454 002f EF       		.byte	-17
 4455              		.section	.rodata.camellia_test_cbc_cipher,"a",%progbits
 4456              		.align	2
 4459              	camellia_test_cbc_cipher:
 4460 0000 16       		.byte	22
 4461 0001 07       		.byte	7
 4462 0002 CF       		.byte	-49
 4463 0003 49       		.byte	73
 4464 0004 4B       		.byte	75
 4465 0005 36       		.byte	54
 4466 0006 BB       		.byte	-69
 4467 0007 F0       		.byte	-16
 4468 0008 0D       		.byte	13
 4469 0009 AE       		.byte	-82
 4470 000a B0       		.byte	-80
 4471 000b B5       		.byte	-75
 4472 000c 03       		.byte	3
 4473 000d C8       		.byte	-56
 4474 000e 31       		.byte	49
 4475 000f AB       		.byte	-85
 4476 0010 A2       		.byte	-94
 4477 0011 F2       		.byte	-14
 4478 0012 CF       		.byte	-49
 4479 0013 67       		.byte	103
 4480 0014 16       		.byte	22
 4481 0015 29       		.byte	41
 4482 0016 EF       		.byte	-17
 4483 0017 78       		.byte	120
 4484 0018 40       		.byte	64
 4485 0019 C5       		.byte	-59
 4486 001a A5       		.byte	-91
 4487 001b DF       		.byte	-33
 4488 001c B5       		.byte	-75
 4489 001d 07       		.byte	7
 4490 001e 48       		.byte	72
 4491 001f 87       		.byte	-121
 4492 0020 0F       		.byte	15
 4493 0021 06       		.byte	6
 4494 0022 16       		.byte	22
 4495 0023 50       		.byte	80
 4496 0024 08       		.byte	8
 4497 0025 CF       		.byte	-49
 4498 0026 8B       		.byte	-117
 4499 0027 8B       		.byte	-117
 4500 0028 5A       		.byte	90
 4501 0029 63       		.byte	99
 4502 002a 58       		.byte	88
 4503 002b 63       		.byte	99
 4504 002c 62       		.byte	98
 4505 002d 54       		.byte	84
 4506 002e 3E       		.byte	62
 4507 002f 54       		.byte	84
 4508 0030 2A       		.byte	42
 4509 0031 48       		.byte	72
 4510 0032 30       		.byte	48
ARM GAS  C:\Users\dtjld\AppData\Local\Temp\ccRGkA1L.s 			page 93


 4511 0033 AB       		.byte	-85
 4512 0034 5A       		.byte	90
 4513 0035 C4       		.byte	-60
 4514 0036 A1       		.byte	-95
 4515 0037 A2       		.byte	-94
 4516 0038 40       		.byte	64
 4517 0039 59       		.byte	89
 4518 003a 55       		.byte	85
 4519 003b FD       		.byte	-3
 4520 003c 21       		.byte	33
 4521 003d 95       		.byte	-107
 4522 003e CF       		.byte	-49
 4523 003f 93       		.byte	-109
 4524 0040 5D       		.byte	93
 4525 0041 5A       		.byte	90
 4526 0042 86       		.byte	-122
 4527 0043 9B       		.byte	-101
 4528 0044 D1       		.byte	-47
 4529 0045 4C       		.byte	76
 4530 0046 E5       		.byte	-27
 4531 0047 42       		.byte	66
 4532 0048 64       		.byte	100
 4533 0049 F8       		.byte	-8
 4534 004a 92       		.byte	-110
 4535 004b A6       		.byte	-90
 4536 004c DD       		.byte	-35
 4537 004d 2E       		.byte	46
 4538 004e C3       		.byte	-61
 4539 004f D5       		.byte	-43
 4540 0050 37       		.byte	55
 4541 0051 D3       		.byte	-45
 4542 0052 59       		.byte	89
 4543 0053 C3       		.byte	-61
 4544 0054 34       		.byte	52
 4545 0055 98       		.byte	-104
 4546 0056 36       		.byte	54
 4547 0057 D8       		.byte	-40
 4548 0058 84       		.byte	-124
 4549 0059 E3       		.byte	-29
 4550 005a 10       		.byte	16
 4551 005b AD       		.byte	-83
 4552 005c DF       		.byte	-33
 4553 005d 68       		.byte	104
 4554 005e C4       		.byte	-60
 4555 005f 49       		.byte	73
 4556 0060 E6       		.byte	-26
 4557 0061 CF       		.byte	-49
 4558 0062 A3       		.byte	-93
 4559 0063 5F       		.byte	95
 4560 0064 C0       		.byte	-64
 4561 0065 2B       		.byte	43
 4562 0066 13       		.byte	19
 4563 0067 4A       		.byte	74
 4564 0068 4D       		.byte	77
 4565 0069 2C       		.byte	44
 4566 006a 0B       		.byte	11
 4567 006b 67       		.byte	103
ARM GAS  C:\Users\dtjld\AppData\Local\Temp\ccRGkA1L.s 			page 94


 4568 006c 37       		.byte	55
 4569 006d AC       		.byte	-84
 4570 006e 3E       		.byte	62
 4571 006f DA       		.byte	-38
 4572 0070 36       		.byte	54
 4573 0071 CB       		.byte	-53
 4574 0072 EB       		.byte	-21
 4575 0073 73       		.byte	115
 4576 0074 BD       		.byte	-67
 4577 0075 50       		.byte	80
 4578 0076 4B       		.byte	75
 4579 0077 40       		.byte	64
 4580 0078 70       		.byte	112
 4581 0079 B1       		.byte	-79
 4582 007a B7       		.byte	-73
 4583 007b DE       		.byte	-34
 4584 007c 2B       		.byte	43
 4585 007d 21       		.byte	33
 4586 007e EB       		.byte	-21
 4587 007f 50       		.byte	80
 4588 0080 E3       		.byte	-29
 4589 0081 1A       		.byte	26
 4590 0082 60       		.byte	96
 4591 0083 55       		.byte	85
 4592 0084 29       		.byte	41
 4593 0085 7D       		.byte	125
 4594 0086 96       		.byte	-106
 4595 0087 CA       		.byte	-54
 4596 0088 33       		.byte	51
 4597 0089 30       		.byte	48
 4598 008a CD       		.byte	-51
 4599 008b F1       		.byte	-15
 4600 008c B1       		.byte	-79
 4601 008d 86       		.byte	-122
 4602 008e 0A       		.byte	10
 4603 008f 83       		.byte	-125
 4604              		.section	.rodata.camellia_test_ctr_key,"a",%progbits
 4605              		.align	2
 4608              	camellia_test_ctr_key:
 4609 0000 AE       		.byte	-82
 4610 0001 68       		.byte	104
 4611 0002 52       		.byte	82
 4612 0003 F8       		.byte	-8
 4613 0004 12       		.byte	18
 4614 0005 10       		.byte	16
 4615 0006 67       		.byte	103
 4616 0007 CC       		.byte	-52
 4617 0008 4B       		.byte	75
 4618 0009 F7       		.byte	-9
 4619 000a A5       		.byte	-91
 4620 000b 76       		.byte	118
 4621 000c 55       		.byte	85
 4622 000d 77       		.byte	119
 4623 000e F3       		.byte	-13
 4624 000f 9E       		.byte	-98
 4625 0010 7E       		.byte	126
 4626 0011 24       		.byte	36
ARM GAS  C:\Users\dtjld\AppData\Local\Temp\ccRGkA1L.s 			page 95


 4627 0012 06       		.byte	6
 4628 0013 78       		.byte	120
 4629 0014 17       		.byte	23
 4630 0015 FA       		.byte	-6
 4631 0016 E0       		.byte	-32
 4632 0017 D7       		.byte	-41
 4633 0018 43       		.byte	67
 4634 0019 D6       		.byte	-42
 4635 001a CE       		.byte	-50
 4636 001b 1F       		.byte	31
 4637 001c 32       		.byte	50
 4638 001d 53       		.byte	83
 4639 001e 91       		.byte	-111
 4640 001f 63       		.byte	99
 4641 0020 76       		.byte	118
 4642 0021 91       		.byte	-111
 4643 0022 BE       		.byte	-66
 4644 0023 03       		.byte	3
 4645 0024 5E       		.byte	94
 4646 0025 50       		.byte	80
 4647 0026 20       		.byte	32
 4648 0027 A8       		.byte	-88
 4649 0028 AC       		.byte	-84
 4650 0029 6E       		.byte	110
 4651 002a 61       		.byte	97
 4652 002b 85       		.byte	-123
 4653 002c 29       		.byte	41
 4654 002d F9       		.byte	-7
 4655 002e A0       		.byte	-96
 4656 002f DC       		.byte	-36
 4657              		.section	.rodata.camellia_test_ctr_nonce_counter,"a",%progbits
 4658              		.align	2
 4661              	camellia_test_ctr_nonce_counter:
 4662 0000 00       		.byte	0
 4663 0001 00       		.byte	0
 4664 0002 00       		.byte	0
 4665 0003 30       		.byte	48
 4666 0004 00       		.byte	0
 4667 0005 00       		.byte	0
 4668 0006 00       		.byte	0
 4669 0007 00       		.byte	0
 4670 0008 00       		.byte	0
 4671 0009 00       		.byte	0
 4672 000a 00       		.byte	0
 4673 000b 00       		.byte	0
 4674 000c 00       		.byte	0
 4675 000d 00       		.byte	0
 4676 000e 00       		.byte	0
 4677 000f 01       		.byte	1
 4678 0010 00       		.byte	0
 4679 0011 6C       		.byte	108
 4680 0012 B6       		.byte	-74
 4681 0013 DB       		.byte	-37
 4682 0014 C0       		.byte	-64
 4683 0015 54       		.byte	84
 4684 0016 3B       		.byte	59
 4685 0017 59       		.byte	89
ARM GAS  C:\Users\dtjld\AppData\Local\Temp\ccRGkA1L.s 			page 96


 4686 0018 DA       		.byte	-38
 4687 0019 48       		.byte	72
 4688 001a D9       		.byte	-39
 4689 001b 0B       		.byte	11
 4690 001c 00       		.byte	0
 4691 001d 00       		.byte	0
 4692 001e 00       		.byte	0
 4693 001f 01       		.byte	1
 4694 0020 00       		.byte	0
 4695 0021 E0       		.byte	-32
 4696 0022 01       		.byte	1
 4697 0023 7B       		.byte	123
 4698 0024 27       		.byte	39
 4699 0025 77       		.byte	119
 4700 0026 7F       		.byte	127
 4701 0027 3F       		.byte	63
 4702 0028 4A       		.byte	74
 4703 0029 17       		.byte	23
 4704 002a 86       		.byte	-122
 4705 002b F0       		.byte	-16
 4706 002c 00       		.byte	0
 4707 002d 00       		.byte	0
 4708 002e 00       		.byte	0
 4709 002f 01       		.byte	1
 4710              		.section	.rodata.camellia_test_ctr_pt,"a",%progbits
 4711              		.align	2
 4714              	camellia_test_ctr_pt:
 4715 0000 53       		.byte	83
 4716 0001 69       		.byte	105
 4717 0002 6E       		.byte	110
 4718 0003 67       		.byte	103
 4719 0004 6C       		.byte	108
 4720 0005 65       		.byte	101
 4721 0006 20       		.byte	32
 4722 0007 62       		.byte	98
 4723 0008 6C       		.byte	108
 4724 0009 6F       		.byte	111
 4725 000a 63       		.byte	99
 4726 000b 6B       		.byte	107
 4727 000c 20       		.byte	32
 4728 000d 6D       		.byte	109
 4729 000e 73       		.byte	115
 4730 000f 67       		.byte	103
 4731 0010 00000000 		.space	32
 4731      00000000 
 4731      00000000 
 4731      00000000 
 4731      00000000 
 4732 0030 00       		.byte	0
 4733 0031 01       		.byte	1
 4734 0032 02       		.byte	2
 4735 0033 03       		.byte	3
 4736 0034 04       		.byte	4
 4737 0035 05       		.byte	5
 4738 0036 06       		.byte	6
 4739 0037 07       		.byte	7
 4740 0038 08       		.byte	8
ARM GAS  C:\Users\dtjld\AppData\Local\Temp\ccRGkA1L.s 			page 97


 4741 0039 09       		.byte	9
 4742 003a 0A       		.byte	10
 4743 003b 0B       		.byte	11
 4744 003c 0C       		.byte	12
 4745 003d 0D       		.byte	13
 4746 003e 0E       		.byte	14
 4747 003f 0F       		.byte	15
 4748 0040 10       		.byte	16
 4749 0041 11       		.byte	17
 4750 0042 12       		.byte	18
 4751 0043 13       		.byte	19
 4752 0044 14       		.byte	20
 4753 0045 15       		.byte	21
 4754 0046 16       		.byte	22
 4755 0047 17       		.byte	23
 4756 0048 18       		.byte	24
 4757 0049 19       		.byte	25
 4758 004a 1A       		.byte	26
 4759 004b 1B       		.byte	27
 4760 004c 1C       		.byte	28
 4761 004d 1D       		.byte	29
 4762 004e 1E       		.byte	30
 4763 004f 1F       		.byte	31
 4764 0050 00000000 		.space	16
 4764      00000000 
 4764      00000000 
 4764      00000000 
 4765 0060 00       		.byte	0
 4766 0061 01       		.byte	1
 4767 0062 02       		.byte	2
 4768 0063 03       		.byte	3
 4769 0064 04       		.byte	4
 4770 0065 05       		.byte	5
 4771 0066 06       		.byte	6
 4772 0067 07       		.byte	7
 4773 0068 08       		.byte	8
 4774 0069 09       		.byte	9
 4775 006a 0A       		.byte	10
 4776 006b 0B       		.byte	11
 4777 006c 0C       		.byte	12
 4778 006d 0D       		.byte	13
 4779 006e 0E       		.byte	14
 4780 006f 0F       		.byte	15
 4781 0070 10       		.byte	16
 4782 0071 11       		.byte	17
 4783 0072 12       		.byte	18
 4784 0073 13       		.byte	19
 4785 0074 14       		.byte	20
 4786 0075 15       		.byte	21
 4787 0076 16       		.byte	22
 4788 0077 17       		.byte	23
 4789 0078 18       		.byte	24
 4790 0079 19       		.byte	25
 4791 007a 1A       		.byte	26
 4792 007b 1B       		.byte	27
 4793 007c 1C       		.byte	28
 4794 007d 1D       		.byte	29
ARM GAS  C:\Users\dtjld\AppData\Local\Temp\ccRGkA1L.s 			page 98


 4795 007e 1E       		.byte	30
 4796 007f 1F       		.byte	31
 4797 0080 20       		.byte	32
 4798 0081 21       		.byte	33
 4799 0082 22       		.byte	34
 4800 0083 23       		.byte	35
 4801 0084 00000000 		.space	12
 4801      00000000 
 4801      00000000 
 4802              		.section	.rodata.camellia_test_ctr_ct,"a",%progbits
 4803              		.align	2
 4806              	camellia_test_ctr_ct:
 4807 0000 D0       		.byte	-48
 4808 0001 9D       		.byte	-99
 4809 0002 C2       		.byte	-62
 4810 0003 9A       		.byte	-102
 4811 0004 82       		.byte	-126
 4812 0005 14       		.byte	20
 4813 0006 61       		.byte	97
 4814 0007 9A       		.byte	-102
 4815 0008 20       		.byte	32
 4816 0009 87       		.byte	-121
 4817 000a 7C       		.byte	124
 4818 000b 76       		.byte	118
 4819 000c DB       		.byte	-37
 4820 000d 1F       		.byte	31
 4821 000e 0B       		.byte	11
 4822 000f 3F       		.byte	63
 4823 0010 00000000 		.space	32
 4823      00000000 
 4823      00000000 
 4823      00000000 
 4823      00000000 
 4824 0030 DB       		.byte	-37
 4825 0031 F3       		.byte	-13
 4826 0032 C7       		.byte	-57
 4827 0033 8D       		.byte	-115
 4828 0034 C0       		.byte	-64
 4829 0035 83       		.byte	-125
 4830 0036 96       		.byte	-106
 4831 0037 D4       		.byte	-44
 4832 0038 DA       		.byte	-38
 4833 0039 7C       		.byte	124
 4834 003a 90       		.byte	-112
 4835 003b 77       		.byte	119
 4836 003c 65       		.byte	101
 4837 003d BB       		.byte	-69
 4838 003e CB       		.byte	-53
 4839 003f 44       		.byte	68
 4840 0040 2B       		.byte	43
 4841 0041 8E       		.byte	-114
 4842 0042 8E       		.byte	-114
 4843 0043 0F       		.byte	15
 4844 0044 31       		.byte	49
 4845 0045 F0       		.byte	-16
 4846 0046 DC       		.byte	-36
 4847 0047 A7       		.byte	-89
ARM GAS  C:\Users\dtjld\AppData\Local\Temp\ccRGkA1L.s 			page 99


 4848 0048 2C       		.byte	44
 4849 0049 74       		.byte	116
 4850 004a 17       		.byte	23
 4851 004b E3       		.byte	-29
 4852 004c 53       		.byte	83
 4853 004d 60       		.byte	96
 4854 004e E0       		.byte	-32
 4855 004f 48       		.byte	72
 4856 0050 00000000 		.space	16
 4856      00000000 
 4856      00000000 
 4856      00000000 
 4857 0060 B1       		.byte	-79
 4858 0061 9D       		.byte	-99
 4859 0062 1F       		.byte	31
 4860 0063 CD       		.byte	-51
 4861 0064 CB       		.byte	-53
 4862 0065 75       		.byte	117
 4863 0066 EB       		.byte	-21
 4864 0067 88       		.byte	-120
 4865 0068 2F       		.byte	47
 4866 0069 84       		.byte	-124
 4867 006a 9C       		.byte	-100
 4868 006b E2       		.byte	-30
 4869 006c 4D       		.byte	77
 4870 006d 85       		.byte	-123
 4871 006e CF       		.byte	-49
 4872 006f 73       		.byte	115
 4873 0070 9C       		.byte	-100
 4874 0071 E6       		.byte	-26
 4875 0072 4B       		.byte	75
 4876 0073 2B       		.byte	43
 4877 0074 5C       		.byte	92
 4878 0075 9D       		.byte	-99
 4879 0076 73       		.byte	115
 4880 0077 F1       		.byte	-15
 4881 0078 4F       		.byte	79
 4882 0079 2D       		.byte	45
 4883 007a 5D       		.byte	93
 4884 007b 9D       		.byte	-99
 4885 007c CE       		.byte	-50
 4886 007d 98       		.byte	-104
 4887 007e 89       		.byte	-119
 4888 007f CD       		.byte	-51
 4889 0080 DF       		.byte	-33
 4890 0081 50       		.byte	80
 4891 0082 86       		.byte	-122
 4892 0083 96       		.byte	-106
 4893 0084 00000000 		.space	12
 4893      00000000 
 4893      00000000 
 4894              		.section	.rodata.camellia_test_ctr_len,"a",%progbits
 4895              		.align	2
 4898              	camellia_test_ctr_len:
 4899 0000 10000000 		.word	16
 4900 0004 20000000 		.word	32
 4901 0008 24000000 		.word	36
ARM GAS  C:\Users\dtjld\AppData\Local\Temp\ccRGkA1L.s 			page 100


 4902              		.section	.rodata
 4903              		.align	2
 4904              	.LC0:
 4905 0000 64656300 		.ascii	"dec\000"
 4906              		.align	2
 4907              	.LC1:
 4908 0004 656E6300 		.ascii	"enc\000"
 4909              		.align	2
 4910              	.LC2:
 4911 0008 20204341 		.ascii	"  CAMELLIA-ECB-%3d (%s): \000"
 4911      4D454C4C 
 4911      49412D45 
 4911      43422D25 
 4911      33642028 
 4912 0022 0000     		.align	2
 4913              	.LC3:
 4914 0024 6661696C 		.ascii	"failed\012\000"
 4914      65640A00 
 4915              		.align	2
 4916              	.LC4:
 4917 002c 70617373 		.ascii	"passed\012\000"
 4917      65640A00 
 4918              		.align	2
 4919              	.LC5:
 4920 0034 0A00     		.ascii	"\012\000"
 4921 0036 0000     		.align	2
 4922              	.LC6:
 4923 0038 20204341 		.ascii	"  CAMELLIA-CBC-%3d (%s): \000"
 4923      4D454C4C 
 4923      49412D43 
 4923      42432D25 
 4923      33642028 
 4924 0052 0000     		.align	2
 4925              	.LC7:
 4926 0054 20204341 		.ascii	"  CAMELLIA-CTR-128 (%s): \000"
 4926      4D454C4C 
 4926      49412D43 
 4926      54522D31 
 4926      32382028 
 4927              		.section	.text.mbedtls_camellia_self_test,"ax",%progbits
 4928              		.align	1
 4929              		.global	mbedtls_camellia_self_test
 4930              		.syntax unified
 4931              		.thumb
 4932              		.thumb_func
 4933              		.fpu fpv4-sp-d16
 4935              	mbedtls_camellia_self_test:
 4936              	.LFB12:
 733:C:/Users/dtjld/workspace/AIoT/src/LiteOS_Lab/iot_link/network/dtls/mbedtls/mbedtls-2.16.2/library\camellia.c **** #endif /* MBEDTLS_CIPHER_MODE_CTR */
 734:C:/Users/dtjld/workspace/AIoT/src/LiteOS_Lab/iot_link/network/dtls/mbedtls/mbedtls-2.16.2/library\camellia.c **** #endif /* !MBEDTLS_CAMELLIA_ALT */
 735:C:/Users/dtjld/workspace/AIoT/src/LiteOS_Lab/iot_link/network/dtls/mbedtls/mbedtls-2.16.2/library\camellia.c **** 
 736:C:/Users/dtjld/workspace/AIoT/src/LiteOS_Lab/iot_link/network/dtls/mbedtls/mbedtls-2.16.2/library\camellia.c **** #if defined(MBEDTLS_SELF_TEST)
 737:C:/Users/dtjld/workspace/AIoT/src/LiteOS_Lab/iot_link/network/dtls/mbedtls/mbedtls-2.16.2/library\camellia.c **** 
 738:C:/Users/dtjld/workspace/AIoT/src/LiteOS_Lab/iot_link/network/dtls/mbedtls/mbedtls-2.16.2/library\camellia.c **** /*
 739:C:/Users/dtjld/workspace/AIoT/src/LiteOS_Lab/iot_link/network/dtls/mbedtls/mbedtls-2.16.2/library\camellia.c ****  * Camellia test vectors from:
 740:C:/Users/dtjld/workspace/AIoT/src/LiteOS_Lab/iot_link/network/dtls/mbedtls/mbedtls-2.16.2/library\camellia.c ****  *
 741:C:/Users/dtjld/workspace/AIoT/src/LiteOS_Lab/iot_link/network/dtls/mbedtls/mbedtls-2.16.2/library\camellia.c ****  * http://info.isl.ntt.co.jp/crypt/eng/camellia/technology.html:
ARM GAS  C:\Users\dtjld\AppData\Local\Temp\ccRGkA1L.s 			page 101


 742:C:/Users/dtjld/workspace/AIoT/src/LiteOS_Lab/iot_link/network/dtls/mbedtls/mbedtls-2.16.2/library\camellia.c ****  *   http://info.isl.ntt.co.jp/crypt/eng/camellia/dl/cryptrec/intermediate.txt
 743:C:/Users/dtjld/workspace/AIoT/src/LiteOS_Lab/iot_link/network/dtls/mbedtls/mbedtls-2.16.2/library\camellia.c ****  *   http://info.isl.ntt.co.jp/crypt/eng/camellia/dl/cryptrec/t_camellia.txt
 744:C:/Users/dtjld/workspace/AIoT/src/LiteOS_Lab/iot_link/network/dtls/mbedtls/mbedtls-2.16.2/library\camellia.c ****  *                      (For each bitlength: Key 0, Nr 39)
 745:C:/Users/dtjld/workspace/AIoT/src/LiteOS_Lab/iot_link/network/dtls/mbedtls/mbedtls-2.16.2/library\camellia.c ****  */
 746:C:/Users/dtjld/workspace/AIoT/src/LiteOS_Lab/iot_link/network/dtls/mbedtls/mbedtls-2.16.2/library\camellia.c **** #define CAMELLIA_TESTS_ECB  2
 747:C:/Users/dtjld/workspace/AIoT/src/LiteOS_Lab/iot_link/network/dtls/mbedtls/mbedtls-2.16.2/library\camellia.c **** 
 748:C:/Users/dtjld/workspace/AIoT/src/LiteOS_Lab/iot_link/network/dtls/mbedtls/mbedtls-2.16.2/library\camellia.c **** static const unsigned char camellia_test_ecb_key[3][CAMELLIA_TESTS_ECB][32] =
 749:C:/Users/dtjld/workspace/AIoT/src/LiteOS_Lab/iot_link/network/dtls/mbedtls/mbedtls-2.16.2/library\camellia.c **** {
 750:C:/Users/dtjld/workspace/AIoT/src/LiteOS_Lab/iot_link/network/dtls/mbedtls/mbedtls-2.16.2/library\camellia.c ****     {
 751:C:/Users/dtjld/workspace/AIoT/src/LiteOS_Lab/iot_link/network/dtls/mbedtls/mbedtls-2.16.2/library\camellia.c ****         { 0x01, 0x23, 0x45, 0x67, 0x89, 0xab, 0xcd, 0xef,
 752:C:/Users/dtjld/workspace/AIoT/src/LiteOS_Lab/iot_link/network/dtls/mbedtls/mbedtls-2.16.2/library\camellia.c ****           0xfe, 0xdc, 0xba, 0x98, 0x76, 0x54, 0x32, 0x10 },
 753:C:/Users/dtjld/workspace/AIoT/src/LiteOS_Lab/iot_link/network/dtls/mbedtls/mbedtls-2.16.2/library\camellia.c ****         { 0x00, 0x00, 0x00, 0x00, 0x00, 0x00, 0x00, 0x00,
 754:C:/Users/dtjld/workspace/AIoT/src/LiteOS_Lab/iot_link/network/dtls/mbedtls/mbedtls-2.16.2/library\camellia.c ****           0x00, 0x00, 0x00, 0x00, 0x00, 0x00, 0x00, 0x00 }
 755:C:/Users/dtjld/workspace/AIoT/src/LiteOS_Lab/iot_link/network/dtls/mbedtls/mbedtls-2.16.2/library\camellia.c ****     },
 756:C:/Users/dtjld/workspace/AIoT/src/LiteOS_Lab/iot_link/network/dtls/mbedtls/mbedtls-2.16.2/library\camellia.c ****     {
 757:C:/Users/dtjld/workspace/AIoT/src/LiteOS_Lab/iot_link/network/dtls/mbedtls/mbedtls-2.16.2/library\camellia.c ****         { 0x01, 0x23, 0x45, 0x67, 0x89, 0xab, 0xcd, 0xef,
 758:C:/Users/dtjld/workspace/AIoT/src/LiteOS_Lab/iot_link/network/dtls/mbedtls/mbedtls-2.16.2/library\camellia.c ****           0xfe, 0xdc, 0xba, 0x98, 0x76, 0x54, 0x32, 0x10,
 759:C:/Users/dtjld/workspace/AIoT/src/LiteOS_Lab/iot_link/network/dtls/mbedtls/mbedtls-2.16.2/library\camellia.c ****           0x00, 0x11, 0x22, 0x33, 0x44, 0x55, 0x66, 0x77 },
 760:C:/Users/dtjld/workspace/AIoT/src/LiteOS_Lab/iot_link/network/dtls/mbedtls/mbedtls-2.16.2/library\camellia.c ****         { 0x00, 0x00, 0x00, 0x00, 0x00, 0x00, 0x00, 0x00,
 761:C:/Users/dtjld/workspace/AIoT/src/LiteOS_Lab/iot_link/network/dtls/mbedtls/mbedtls-2.16.2/library\camellia.c ****           0x00, 0x00, 0x00, 0x00, 0x00, 0x00, 0x00, 0x00,
 762:C:/Users/dtjld/workspace/AIoT/src/LiteOS_Lab/iot_link/network/dtls/mbedtls/mbedtls-2.16.2/library\camellia.c ****           0x00, 0x00, 0x00, 0x00, 0x00, 0x00, 0x00, 0x00 }
 763:C:/Users/dtjld/workspace/AIoT/src/LiteOS_Lab/iot_link/network/dtls/mbedtls/mbedtls-2.16.2/library\camellia.c ****     },
 764:C:/Users/dtjld/workspace/AIoT/src/LiteOS_Lab/iot_link/network/dtls/mbedtls/mbedtls-2.16.2/library\camellia.c ****     {
 765:C:/Users/dtjld/workspace/AIoT/src/LiteOS_Lab/iot_link/network/dtls/mbedtls/mbedtls-2.16.2/library\camellia.c ****         { 0x01, 0x23, 0x45, 0x67, 0x89, 0xab, 0xcd, 0xef,
 766:C:/Users/dtjld/workspace/AIoT/src/LiteOS_Lab/iot_link/network/dtls/mbedtls/mbedtls-2.16.2/library\camellia.c ****           0xfe, 0xdc, 0xba, 0x98, 0x76, 0x54, 0x32, 0x10,
 767:C:/Users/dtjld/workspace/AIoT/src/LiteOS_Lab/iot_link/network/dtls/mbedtls/mbedtls-2.16.2/library\camellia.c ****           0x00, 0x11, 0x22, 0x33, 0x44, 0x55, 0x66, 0x77,
 768:C:/Users/dtjld/workspace/AIoT/src/LiteOS_Lab/iot_link/network/dtls/mbedtls/mbedtls-2.16.2/library\camellia.c ****           0x88, 0x99, 0xaa, 0xbb, 0xcc, 0xdd, 0xee, 0xff },
 769:C:/Users/dtjld/workspace/AIoT/src/LiteOS_Lab/iot_link/network/dtls/mbedtls/mbedtls-2.16.2/library\camellia.c ****         { 0x00, 0x00, 0x00, 0x00, 0x00, 0x00, 0x00, 0x00,
 770:C:/Users/dtjld/workspace/AIoT/src/LiteOS_Lab/iot_link/network/dtls/mbedtls/mbedtls-2.16.2/library\camellia.c ****           0x00, 0x00, 0x00, 0x00, 0x00, 0x00, 0x00, 0x00,
 771:C:/Users/dtjld/workspace/AIoT/src/LiteOS_Lab/iot_link/network/dtls/mbedtls/mbedtls-2.16.2/library\camellia.c ****           0x00, 0x00, 0x00, 0x00, 0x00, 0x00, 0x00, 0x00,
 772:C:/Users/dtjld/workspace/AIoT/src/LiteOS_Lab/iot_link/network/dtls/mbedtls/mbedtls-2.16.2/library\camellia.c ****           0x00, 0x00, 0x00, 0x00, 0x00, 0x00, 0x00, 0x00 }
 773:C:/Users/dtjld/workspace/AIoT/src/LiteOS_Lab/iot_link/network/dtls/mbedtls/mbedtls-2.16.2/library\camellia.c ****     },
 774:C:/Users/dtjld/workspace/AIoT/src/LiteOS_Lab/iot_link/network/dtls/mbedtls/mbedtls-2.16.2/library\camellia.c **** };
 775:C:/Users/dtjld/workspace/AIoT/src/LiteOS_Lab/iot_link/network/dtls/mbedtls/mbedtls-2.16.2/library\camellia.c **** 
 776:C:/Users/dtjld/workspace/AIoT/src/LiteOS_Lab/iot_link/network/dtls/mbedtls/mbedtls-2.16.2/library\camellia.c **** static const unsigned char camellia_test_ecb_plain[CAMELLIA_TESTS_ECB][16] =
 777:C:/Users/dtjld/workspace/AIoT/src/LiteOS_Lab/iot_link/network/dtls/mbedtls/mbedtls-2.16.2/library\camellia.c **** {
 778:C:/Users/dtjld/workspace/AIoT/src/LiteOS_Lab/iot_link/network/dtls/mbedtls/mbedtls-2.16.2/library\camellia.c ****     { 0x01, 0x23, 0x45, 0x67, 0x89, 0xab, 0xcd, 0xef,
 779:C:/Users/dtjld/workspace/AIoT/src/LiteOS_Lab/iot_link/network/dtls/mbedtls/mbedtls-2.16.2/library\camellia.c ****       0xfe, 0xdc, 0xba, 0x98, 0x76, 0x54, 0x32, 0x10 },
 780:C:/Users/dtjld/workspace/AIoT/src/LiteOS_Lab/iot_link/network/dtls/mbedtls/mbedtls-2.16.2/library\camellia.c ****     { 0x00, 0x00, 0x00, 0x00, 0x02, 0x00, 0x00, 0x00,
 781:C:/Users/dtjld/workspace/AIoT/src/LiteOS_Lab/iot_link/network/dtls/mbedtls/mbedtls-2.16.2/library\camellia.c ****       0x00, 0x00, 0x00, 0x00, 0x00, 0x00, 0x00, 0x00 }
 782:C:/Users/dtjld/workspace/AIoT/src/LiteOS_Lab/iot_link/network/dtls/mbedtls/mbedtls-2.16.2/library\camellia.c **** };
 783:C:/Users/dtjld/workspace/AIoT/src/LiteOS_Lab/iot_link/network/dtls/mbedtls/mbedtls-2.16.2/library\camellia.c **** 
 784:C:/Users/dtjld/workspace/AIoT/src/LiteOS_Lab/iot_link/network/dtls/mbedtls/mbedtls-2.16.2/library\camellia.c **** static const unsigned char camellia_test_ecb_cipher[3][CAMELLIA_TESTS_ECB][16] =
 785:C:/Users/dtjld/workspace/AIoT/src/LiteOS_Lab/iot_link/network/dtls/mbedtls/mbedtls-2.16.2/library\camellia.c **** {
 786:C:/Users/dtjld/workspace/AIoT/src/LiteOS_Lab/iot_link/network/dtls/mbedtls/mbedtls-2.16.2/library\camellia.c ****     {
 787:C:/Users/dtjld/workspace/AIoT/src/LiteOS_Lab/iot_link/network/dtls/mbedtls/mbedtls-2.16.2/library\camellia.c ****         { 0x67, 0x67, 0x31, 0x38, 0x54, 0x96, 0x69, 0x73,
 788:C:/Users/dtjld/workspace/AIoT/src/LiteOS_Lab/iot_link/network/dtls/mbedtls/mbedtls-2.16.2/library\camellia.c ****           0x08, 0x57, 0x06, 0x56, 0x48, 0xea, 0xbe, 0x43 },
 789:C:/Users/dtjld/workspace/AIoT/src/LiteOS_Lab/iot_link/network/dtls/mbedtls/mbedtls-2.16.2/library\camellia.c ****         { 0x38, 0x3C, 0x6C, 0x2A, 0xAB, 0xEF, 0x7F, 0xDE,
 790:C:/Users/dtjld/workspace/AIoT/src/LiteOS_Lab/iot_link/network/dtls/mbedtls/mbedtls-2.16.2/library\camellia.c ****           0x25, 0xCD, 0x47, 0x0B, 0xF7, 0x74, 0xA3, 0x31 }
 791:C:/Users/dtjld/workspace/AIoT/src/LiteOS_Lab/iot_link/network/dtls/mbedtls/mbedtls-2.16.2/library\camellia.c ****     },
 792:C:/Users/dtjld/workspace/AIoT/src/LiteOS_Lab/iot_link/network/dtls/mbedtls/mbedtls-2.16.2/library\camellia.c ****     {
 793:C:/Users/dtjld/workspace/AIoT/src/LiteOS_Lab/iot_link/network/dtls/mbedtls/mbedtls-2.16.2/library\camellia.c ****         { 0xb4, 0x99, 0x34, 0x01, 0xb3, 0xe9, 0x96, 0xf8,
 794:C:/Users/dtjld/workspace/AIoT/src/LiteOS_Lab/iot_link/network/dtls/mbedtls/mbedtls-2.16.2/library\camellia.c ****           0x4e, 0xe5, 0xce, 0xe7, 0xd7, 0x9b, 0x09, 0xb9 },
 795:C:/Users/dtjld/workspace/AIoT/src/LiteOS_Lab/iot_link/network/dtls/mbedtls/mbedtls-2.16.2/library\camellia.c ****         { 0xD1, 0x76, 0x3F, 0xC0, 0x19, 0xD7, 0x7C, 0xC9,
 796:C:/Users/dtjld/workspace/AIoT/src/LiteOS_Lab/iot_link/network/dtls/mbedtls/mbedtls-2.16.2/library\camellia.c ****           0x30, 0xBF, 0xF2, 0xA5, 0x6F, 0x7C, 0x93, 0x64 }
 797:C:/Users/dtjld/workspace/AIoT/src/LiteOS_Lab/iot_link/network/dtls/mbedtls/mbedtls-2.16.2/library\camellia.c ****     },
 798:C:/Users/dtjld/workspace/AIoT/src/LiteOS_Lab/iot_link/network/dtls/mbedtls/mbedtls-2.16.2/library\camellia.c ****     {
ARM GAS  C:\Users\dtjld\AppData\Local\Temp\ccRGkA1L.s 			page 102


 799:C:/Users/dtjld/workspace/AIoT/src/LiteOS_Lab/iot_link/network/dtls/mbedtls/mbedtls-2.16.2/library\camellia.c ****         { 0x9a, 0xcc, 0x23, 0x7d, 0xff, 0x16, 0xd7, 0x6c,
 800:C:/Users/dtjld/workspace/AIoT/src/LiteOS_Lab/iot_link/network/dtls/mbedtls/mbedtls-2.16.2/library\camellia.c ****           0x20, 0xef, 0x7c, 0x91, 0x9e, 0x3a, 0x75, 0x09 },
 801:C:/Users/dtjld/workspace/AIoT/src/LiteOS_Lab/iot_link/network/dtls/mbedtls/mbedtls-2.16.2/library\camellia.c ****         { 0x05, 0x03, 0xFB, 0x10, 0xAB, 0x24, 0x1E, 0x7C,
 802:C:/Users/dtjld/workspace/AIoT/src/LiteOS_Lab/iot_link/network/dtls/mbedtls/mbedtls-2.16.2/library\camellia.c ****           0xF4, 0x5D, 0x8C, 0xDE, 0xEE, 0x47, 0x43, 0x35 }
 803:C:/Users/dtjld/workspace/AIoT/src/LiteOS_Lab/iot_link/network/dtls/mbedtls/mbedtls-2.16.2/library\camellia.c ****     }
 804:C:/Users/dtjld/workspace/AIoT/src/LiteOS_Lab/iot_link/network/dtls/mbedtls/mbedtls-2.16.2/library\camellia.c **** };
 805:C:/Users/dtjld/workspace/AIoT/src/LiteOS_Lab/iot_link/network/dtls/mbedtls/mbedtls-2.16.2/library\camellia.c **** 
 806:C:/Users/dtjld/workspace/AIoT/src/LiteOS_Lab/iot_link/network/dtls/mbedtls/mbedtls-2.16.2/library\camellia.c **** #if defined(MBEDTLS_CIPHER_MODE_CBC)
 807:C:/Users/dtjld/workspace/AIoT/src/LiteOS_Lab/iot_link/network/dtls/mbedtls/mbedtls-2.16.2/library\camellia.c **** #define CAMELLIA_TESTS_CBC  3
 808:C:/Users/dtjld/workspace/AIoT/src/LiteOS_Lab/iot_link/network/dtls/mbedtls/mbedtls-2.16.2/library\camellia.c **** 
 809:C:/Users/dtjld/workspace/AIoT/src/LiteOS_Lab/iot_link/network/dtls/mbedtls/mbedtls-2.16.2/library\camellia.c **** static const unsigned char camellia_test_cbc_key[3][32] =
 810:C:/Users/dtjld/workspace/AIoT/src/LiteOS_Lab/iot_link/network/dtls/mbedtls/mbedtls-2.16.2/library\camellia.c **** {
 811:C:/Users/dtjld/workspace/AIoT/src/LiteOS_Lab/iot_link/network/dtls/mbedtls/mbedtls-2.16.2/library\camellia.c ****         { 0x2B, 0x7E, 0x15, 0x16, 0x28, 0xAE, 0xD2, 0xA6,
 812:C:/Users/dtjld/workspace/AIoT/src/LiteOS_Lab/iot_link/network/dtls/mbedtls/mbedtls-2.16.2/library\camellia.c ****           0xAB, 0xF7, 0x15, 0x88, 0x09, 0xCF, 0x4F, 0x3C }
 813:C:/Users/dtjld/workspace/AIoT/src/LiteOS_Lab/iot_link/network/dtls/mbedtls/mbedtls-2.16.2/library\camellia.c ****     ,
 814:C:/Users/dtjld/workspace/AIoT/src/LiteOS_Lab/iot_link/network/dtls/mbedtls/mbedtls-2.16.2/library\camellia.c ****         { 0x8E, 0x73, 0xB0, 0xF7, 0xDA, 0x0E, 0x64, 0x52,
 815:C:/Users/dtjld/workspace/AIoT/src/LiteOS_Lab/iot_link/network/dtls/mbedtls/mbedtls-2.16.2/library\camellia.c ****           0xC8, 0x10, 0xF3, 0x2B, 0x80, 0x90, 0x79, 0xE5,
 816:C:/Users/dtjld/workspace/AIoT/src/LiteOS_Lab/iot_link/network/dtls/mbedtls/mbedtls-2.16.2/library\camellia.c ****           0x62, 0xF8, 0xEA, 0xD2, 0x52, 0x2C, 0x6B, 0x7B }
 817:C:/Users/dtjld/workspace/AIoT/src/LiteOS_Lab/iot_link/network/dtls/mbedtls/mbedtls-2.16.2/library\camellia.c ****     ,
 818:C:/Users/dtjld/workspace/AIoT/src/LiteOS_Lab/iot_link/network/dtls/mbedtls/mbedtls-2.16.2/library\camellia.c ****         { 0x60, 0x3D, 0xEB, 0x10, 0x15, 0xCA, 0x71, 0xBE,
 819:C:/Users/dtjld/workspace/AIoT/src/LiteOS_Lab/iot_link/network/dtls/mbedtls/mbedtls-2.16.2/library\camellia.c ****           0x2B, 0x73, 0xAE, 0xF0, 0x85, 0x7D, 0x77, 0x81,
 820:C:/Users/dtjld/workspace/AIoT/src/LiteOS_Lab/iot_link/network/dtls/mbedtls/mbedtls-2.16.2/library\camellia.c ****           0x1F, 0x35, 0x2C, 0x07, 0x3B, 0x61, 0x08, 0xD7,
 821:C:/Users/dtjld/workspace/AIoT/src/LiteOS_Lab/iot_link/network/dtls/mbedtls/mbedtls-2.16.2/library\camellia.c ****           0x2D, 0x98, 0x10, 0xA3, 0x09, 0x14, 0xDF, 0xF4 }
 822:C:/Users/dtjld/workspace/AIoT/src/LiteOS_Lab/iot_link/network/dtls/mbedtls/mbedtls-2.16.2/library\camellia.c **** };
 823:C:/Users/dtjld/workspace/AIoT/src/LiteOS_Lab/iot_link/network/dtls/mbedtls/mbedtls-2.16.2/library\camellia.c **** 
 824:C:/Users/dtjld/workspace/AIoT/src/LiteOS_Lab/iot_link/network/dtls/mbedtls/mbedtls-2.16.2/library\camellia.c **** static const unsigned char camellia_test_cbc_iv[16] =
 825:C:/Users/dtjld/workspace/AIoT/src/LiteOS_Lab/iot_link/network/dtls/mbedtls/mbedtls-2.16.2/library\camellia.c **** 
 826:C:/Users/dtjld/workspace/AIoT/src/LiteOS_Lab/iot_link/network/dtls/mbedtls/mbedtls-2.16.2/library\camellia.c ****     { 0x00, 0x01, 0x02, 0x03, 0x04, 0x05, 0x06, 0x07,
 827:C:/Users/dtjld/workspace/AIoT/src/LiteOS_Lab/iot_link/network/dtls/mbedtls/mbedtls-2.16.2/library\camellia.c ****       0x08, 0x09, 0x0A, 0x0B, 0x0C, 0x0D, 0x0E, 0x0F }
 828:C:/Users/dtjld/workspace/AIoT/src/LiteOS_Lab/iot_link/network/dtls/mbedtls/mbedtls-2.16.2/library\camellia.c **** ;
 829:C:/Users/dtjld/workspace/AIoT/src/LiteOS_Lab/iot_link/network/dtls/mbedtls/mbedtls-2.16.2/library\camellia.c **** 
 830:C:/Users/dtjld/workspace/AIoT/src/LiteOS_Lab/iot_link/network/dtls/mbedtls/mbedtls-2.16.2/library\camellia.c **** static const unsigned char camellia_test_cbc_plain[CAMELLIA_TESTS_CBC][16] =
 831:C:/Users/dtjld/workspace/AIoT/src/LiteOS_Lab/iot_link/network/dtls/mbedtls/mbedtls-2.16.2/library\camellia.c **** {
 832:C:/Users/dtjld/workspace/AIoT/src/LiteOS_Lab/iot_link/network/dtls/mbedtls/mbedtls-2.16.2/library\camellia.c ****     { 0x6B, 0xC1, 0xBE, 0xE2, 0x2E, 0x40, 0x9F, 0x96,
 833:C:/Users/dtjld/workspace/AIoT/src/LiteOS_Lab/iot_link/network/dtls/mbedtls/mbedtls-2.16.2/library\camellia.c ****       0xE9, 0x3D, 0x7E, 0x11, 0x73, 0x93, 0x17, 0x2A },
 834:C:/Users/dtjld/workspace/AIoT/src/LiteOS_Lab/iot_link/network/dtls/mbedtls/mbedtls-2.16.2/library\camellia.c ****     { 0xAE, 0x2D, 0x8A, 0x57, 0x1E, 0x03, 0xAC, 0x9C,
 835:C:/Users/dtjld/workspace/AIoT/src/LiteOS_Lab/iot_link/network/dtls/mbedtls/mbedtls-2.16.2/library\camellia.c ****       0x9E, 0xB7, 0x6F, 0xAC, 0x45, 0xAF, 0x8E, 0x51 },
 836:C:/Users/dtjld/workspace/AIoT/src/LiteOS_Lab/iot_link/network/dtls/mbedtls/mbedtls-2.16.2/library\camellia.c ****     { 0x30, 0xC8, 0x1C, 0x46, 0xA3, 0x5C, 0xE4, 0x11,
 837:C:/Users/dtjld/workspace/AIoT/src/LiteOS_Lab/iot_link/network/dtls/mbedtls/mbedtls-2.16.2/library\camellia.c ****       0xE5, 0xFB, 0xC1, 0x19, 0x1A, 0x0A, 0x52, 0xEF }
 838:C:/Users/dtjld/workspace/AIoT/src/LiteOS_Lab/iot_link/network/dtls/mbedtls/mbedtls-2.16.2/library\camellia.c **** 
 839:C:/Users/dtjld/workspace/AIoT/src/LiteOS_Lab/iot_link/network/dtls/mbedtls/mbedtls-2.16.2/library\camellia.c **** };
 840:C:/Users/dtjld/workspace/AIoT/src/LiteOS_Lab/iot_link/network/dtls/mbedtls/mbedtls-2.16.2/library\camellia.c **** 
 841:C:/Users/dtjld/workspace/AIoT/src/LiteOS_Lab/iot_link/network/dtls/mbedtls/mbedtls-2.16.2/library\camellia.c **** static const unsigned char camellia_test_cbc_cipher[3][CAMELLIA_TESTS_CBC][16] =
 842:C:/Users/dtjld/workspace/AIoT/src/LiteOS_Lab/iot_link/network/dtls/mbedtls/mbedtls-2.16.2/library\camellia.c **** {
 843:C:/Users/dtjld/workspace/AIoT/src/LiteOS_Lab/iot_link/network/dtls/mbedtls/mbedtls-2.16.2/library\camellia.c ****     {
 844:C:/Users/dtjld/workspace/AIoT/src/LiteOS_Lab/iot_link/network/dtls/mbedtls/mbedtls-2.16.2/library\camellia.c ****         { 0x16, 0x07, 0xCF, 0x49, 0x4B, 0x36, 0xBB, 0xF0,
 845:C:/Users/dtjld/workspace/AIoT/src/LiteOS_Lab/iot_link/network/dtls/mbedtls/mbedtls-2.16.2/library\camellia.c ****           0x0D, 0xAE, 0xB0, 0xB5, 0x03, 0xC8, 0x31, 0xAB },
 846:C:/Users/dtjld/workspace/AIoT/src/LiteOS_Lab/iot_link/network/dtls/mbedtls/mbedtls-2.16.2/library\camellia.c ****         { 0xA2, 0xF2, 0xCF, 0x67, 0x16, 0x29, 0xEF, 0x78,
 847:C:/Users/dtjld/workspace/AIoT/src/LiteOS_Lab/iot_link/network/dtls/mbedtls/mbedtls-2.16.2/library\camellia.c ****           0x40, 0xC5, 0xA5, 0xDF, 0xB5, 0x07, 0x48, 0x87 },
 848:C:/Users/dtjld/workspace/AIoT/src/LiteOS_Lab/iot_link/network/dtls/mbedtls/mbedtls-2.16.2/library\camellia.c ****         { 0x0F, 0x06, 0x16, 0x50, 0x08, 0xCF, 0x8B, 0x8B,
 849:C:/Users/dtjld/workspace/AIoT/src/LiteOS_Lab/iot_link/network/dtls/mbedtls/mbedtls-2.16.2/library\camellia.c ****           0x5A, 0x63, 0x58, 0x63, 0x62, 0x54, 0x3E, 0x54 }
 850:C:/Users/dtjld/workspace/AIoT/src/LiteOS_Lab/iot_link/network/dtls/mbedtls/mbedtls-2.16.2/library\camellia.c ****     },
 851:C:/Users/dtjld/workspace/AIoT/src/LiteOS_Lab/iot_link/network/dtls/mbedtls/mbedtls-2.16.2/library\camellia.c ****     {
 852:C:/Users/dtjld/workspace/AIoT/src/LiteOS_Lab/iot_link/network/dtls/mbedtls/mbedtls-2.16.2/library\camellia.c ****         { 0x2A, 0x48, 0x30, 0xAB, 0x5A, 0xC4, 0xA1, 0xA2,
 853:C:/Users/dtjld/workspace/AIoT/src/LiteOS_Lab/iot_link/network/dtls/mbedtls/mbedtls-2.16.2/library\camellia.c ****           0x40, 0x59, 0x55, 0xFD, 0x21, 0x95, 0xCF, 0x93 },
 854:C:/Users/dtjld/workspace/AIoT/src/LiteOS_Lab/iot_link/network/dtls/mbedtls/mbedtls-2.16.2/library\camellia.c ****         { 0x5D, 0x5A, 0x86, 0x9B, 0xD1, 0x4C, 0xE5, 0x42,
 855:C:/Users/dtjld/workspace/AIoT/src/LiteOS_Lab/iot_link/network/dtls/mbedtls/mbedtls-2.16.2/library\camellia.c ****           0x64, 0xF8, 0x92, 0xA6, 0xDD, 0x2E, 0xC3, 0xD5 },
ARM GAS  C:\Users\dtjld\AppData\Local\Temp\ccRGkA1L.s 			page 103


 856:C:/Users/dtjld/workspace/AIoT/src/LiteOS_Lab/iot_link/network/dtls/mbedtls/mbedtls-2.16.2/library\camellia.c ****         { 0x37, 0xD3, 0x59, 0xC3, 0x34, 0x98, 0x36, 0xD8,
 857:C:/Users/dtjld/workspace/AIoT/src/LiteOS_Lab/iot_link/network/dtls/mbedtls/mbedtls-2.16.2/library\camellia.c ****           0x84, 0xE3, 0x10, 0xAD, 0xDF, 0x68, 0xC4, 0x49 }
 858:C:/Users/dtjld/workspace/AIoT/src/LiteOS_Lab/iot_link/network/dtls/mbedtls/mbedtls-2.16.2/library\camellia.c ****     },
 859:C:/Users/dtjld/workspace/AIoT/src/LiteOS_Lab/iot_link/network/dtls/mbedtls/mbedtls-2.16.2/library\camellia.c ****     {
 860:C:/Users/dtjld/workspace/AIoT/src/LiteOS_Lab/iot_link/network/dtls/mbedtls/mbedtls-2.16.2/library\camellia.c ****         { 0xE6, 0xCF, 0xA3, 0x5F, 0xC0, 0x2B, 0x13, 0x4A,
 861:C:/Users/dtjld/workspace/AIoT/src/LiteOS_Lab/iot_link/network/dtls/mbedtls/mbedtls-2.16.2/library\camellia.c ****           0x4D, 0x2C, 0x0B, 0x67, 0x37, 0xAC, 0x3E, 0xDA },
 862:C:/Users/dtjld/workspace/AIoT/src/LiteOS_Lab/iot_link/network/dtls/mbedtls/mbedtls-2.16.2/library\camellia.c ****         { 0x36, 0xCB, 0xEB, 0x73, 0xBD, 0x50, 0x4B, 0x40,
 863:C:/Users/dtjld/workspace/AIoT/src/LiteOS_Lab/iot_link/network/dtls/mbedtls/mbedtls-2.16.2/library\camellia.c ****           0x70, 0xB1, 0xB7, 0xDE, 0x2B, 0x21, 0xEB, 0x50 },
 864:C:/Users/dtjld/workspace/AIoT/src/LiteOS_Lab/iot_link/network/dtls/mbedtls/mbedtls-2.16.2/library\camellia.c ****         { 0xE3, 0x1A, 0x60, 0x55, 0x29, 0x7D, 0x96, 0xCA,
 865:C:/Users/dtjld/workspace/AIoT/src/LiteOS_Lab/iot_link/network/dtls/mbedtls/mbedtls-2.16.2/library\camellia.c ****           0x33, 0x30, 0xCD, 0xF1, 0xB1, 0x86, 0x0A, 0x83 }
 866:C:/Users/dtjld/workspace/AIoT/src/LiteOS_Lab/iot_link/network/dtls/mbedtls/mbedtls-2.16.2/library\camellia.c ****     }
 867:C:/Users/dtjld/workspace/AIoT/src/LiteOS_Lab/iot_link/network/dtls/mbedtls/mbedtls-2.16.2/library\camellia.c **** };
 868:C:/Users/dtjld/workspace/AIoT/src/LiteOS_Lab/iot_link/network/dtls/mbedtls/mbedtls-2.16.2/library\camellia.c **** #endif /* MBEDTLS_CIPHER_MODE_CBC */
 869:C:/Users/dtjld/workspace/AIoT/src/LiteOS_Lab/iot_link/network/dtls/mbedtls/mbedtls-2.16.2/library\camellia.c **** 
 870:C:/Users/dtjld/workspace/AIoT/src/LiteOS_Lab/iot_link/network/dtls/mbedtls/mbedtls-2.16.2/library\camellia.c **** #if defined(MBEDTLS_CIPHER_MODE_CTR)
 871:C:/Users/dtjld/workspace/AIoT/src/LiteOS_Lab/iot_link/network/dtls/mbedtls/mbedtls-2.16.2/library\camellia.c **** /*
 872:C:/Users/dtjld/workspace/AIoT/src/LiteOS_Lab/iot_link/network/dtls/mbedtls/mbedtls-2.16.2/library\camellia.c ****  * Camellia-CTR test vectors from:
 873:C:/Users/dtjld/workspace/AIoT/src/LiteOS_Lab/iot_link/network/dtls/mbedtls/mbedtls-2.16.2/library\camellia.c ****  *
 874:C:/Users/dtjld/workspace/AIoT/src/LiteOS_Lab/iot_link/network/dtls/mbedtls/mbedtls-2.16.2/library\camellia.c ****  * http://www.faqs.org/rfcs/rfc5528.html
 875:C:/Users/dtjld/workspace/AIoT/src/LiteOS_Lab/iot_link/network/dtls/mbedtls/mbedtls-2.16.2/library\camellia.c ****  */
 876:C:/Users/dtjld/workspace/AIoT/src/LiteOS_Lab/iot_link/network/dtls/mbedtls/mbedtls-2.16.2/library\camellia.c **** 
 877:C:/Users/dtjld/workspace/AIoT/src/LiteOS_Lab/iot_link/network/dtls/mbedtls/mbedtls-2.16.2/library\camellia.c **** static const unsigned char camellia_test_ctr_key[3][16] =
 878:C:/Users/dtjld/workspace/AIoT/src/LiteOS_Lab/iot_link/network/dtls/mbedtls/mbedtls-2.16.2/library\camellia.c **** {
 879:C:/Users/dtjld/workspace/AIoT/src/LiteOS_Lab/iot_link/network/dtls/mbedtls/mbedtls-2.16.2/library\camellia.c ****     { 0xAE, 0x68, 0x52, 0xF8, 0x12, 0x10, 0x67, 0xCC,
 880:C:/Users/dtjld/workspace/AIoT/src/LiteOS_Lab/iot_link/network/dtls/mbedtls/mbedtls-2.16.2/library\camellia.c ****       0x4B, 0xF7, 0xA5, 0x76, 0x55, 0x77, 0xF3, 0x9E },
 881:C:/Users/dtjld/workspace/AIoT/src/LiteOS_Lab/iot_link/network/dtls/mbedtls/mbedtls-2.16.2/library\camellia.c ****     { 0x7E, 0x24, 0x06, 0x78, 0x17, 0xFA, 0xE0, 0xD7,
 882:C:/Users/dtjld/workspace/AIoT/src/LiteOS_Lab/iot_link/network/dtls/mbedtls/mbedtls-2.16.2/library\camellia.c ****       0x43, 0xD6, 0xCE, 0x1F, 0x32, 0x53, 0x91, 0x63 },
 883:C:/Users/dtjld/workspace/AIoT/src/LiteOS_Lab/iot_link/network/dtls/mbedtls/mbedtls-2.16.2/library\camellia.c ****     { 0x76, 0x91, 0xBE, 0x03, 0x5E, 0x50, 0x20, 0xA8,
 884:C:/Users/dtjld/workspace/AIoT/src/LiteOS_Lab/iot_link/network/dtls/mbedtls/mbedtls-2.16.2/library\camellia.c ****       0xAC, 0x6E, 0x61, 0x85, 0x29, 0xF9, 0xA0, 0xDC }
 885:C:/Users/dtjld/workspace/AIoT/src/LiteOS_Lab/iot_link/network/dtls/mbedtls/mbedtls-2.16.2/library\camellia.c **** };
 886:C:/Users/dtjld/workspace/AIoT/src/LiteOS_Lab/iot_link/network/dtls/mbedtls/mbedtls-2.16.2/library\camellia.c **** 
 887:C:/Users/dtjld/workspace/AIoT/src/LiteOS_Lab/iot_link/network/dtls/mbedtls/mbedtls-2.16.2/library\camellia.c **** static const unsigned char camellia_test_ctr_nonce_counter[3][16] =
 888:C:/Users/dtjld/workspace/AIoT/src/LiteOS_Lab/iot_link/network/dtls/mbedtls/mbedtls-2.16.2/library\camellia.c **** {
 889:C:/Users/dtjld/workspace/AIoT/src/LiteOS_Lab/iot_link/network/dtls/mbedtls/mbedtls-2.16.2/library\camellia.c ****     { 0x00, 0x00, 0x00, 0x30, 0x00, 0x00, 0x00, 0x00,
 890:C:/Users/dtjld/workspace/AIoT/src/LiteOS_Lab/iot_link/network/dtls/mbedtls/mbedtls-2.16.2/library\camellia.c ****       0x00, 0x00, 0x00, 0x00, 0x00, 0x00, 0x00, 0x01 },
 891:C:/Users/dtjld/workspace/AIoT/src/LiteOS_Lab/iot_link/network/dtls/mbedtls/mbedtls-2.16.2/library\camellia.c ****     { 0x00, 0x6C, 0xB6, 0xDB, 0xC0, 0x54, 0x3B, 0x59,
 892:C:/Users/dtjld/workspace/AIoT/src/LiteOS_Lab/iot_link/network/dtls/mbedtls/mbedtls-2.16.2/library\camellia.c ****       0xDA, 0x48, 0xD9, 0x0B, 0x00, 0x00, 0x00, 0x01 },
 893:C:/Users/dtjld/workspace/AIoT/src/LiteOS_Lab/iot_link/network/dtls/mbedtls/mbedtls-2.16.2/library\camellia.c ****     { 0x00, 0xE0, 0x01, 0x7B, 0x27, 0x77, 0x7F, 0x3F,
 894:C:/Users/dtjld/workspace/AIoT/src/LiteOS_Lab/iot_link/network/dtls/mbedtls/mbedtls-2.16.2/library\camellia.c ****       0x4A, 0x17, 0x86, 0xF0, 0x00, 0x00, 0x00, 0x01 }
 895:C:/Users/dtjld/workspace/AIoT/src/LiteOS_Lab/iot_link/network/dtls/mbedtls/mbedtls-2.16.2/library\camellia.c **** };
 896:C:/Users/dtjld/workspace/AIoT/src/LiteOS_Lab/iot_link/network/dtls/mbedtls/mbedtls-2.16.2/library\camellia.c **** 
 897:C:/Users/dtjld/workspace/AIoT/src/LiteOS_Lab/iot_link/network/dtls/mbedtls/mbedtls-2.16.2/library\camellia.c **** static const unsigned char camellia_test_ctr_pt[3][48] =
 898:C:/Users/dtjld/workspace/AIoT/src/LiteOS_Lab/iot_link/network/dtls/mbedtls/mbedtls-2.16.2/library\camellia.c **** {
 899:C:/Users/dtjld/workspace/AIoT/src/LiteOS_Lab/iot_link/network/dtls/mbedtls/mbedtls-2.16.2/library\camellia.c ****     { 0x53, 0x69, 0x6E, 0x67, 0x6C, 0x65, 0x20, 0x62,
 900:C:/Users/dtjld/workspace/AIoT/src/LiteOS_Lab/iot_link/network/dtls/mbedtls/mbedtls-2.16.2/library\camellia.c ****       0x6C, 0x6F, 0x63, 0x6B, 0x20, 0x6D, 0x73, 0x67 },
 901:C:/Users/dtjld/workspace/AIoT/src/LiteOS_Lab/iot_link/network/dtls/mbedtls/mbedtls-2.16.2/library\camellia.c **** 
 902:C:/Users/dtjld/workspace/AIoT/src/LiteOS_Lab/iot_link/network/dtls/mbedtls/mbedtls-2.16.2/library\camellia.c ****     { 0x00, 0x01, 0x02, 0x03, 0x04, 0x05, 0x06, 0x07,
 903:C:/Users/dtjld/workspace/AIoT/src/LiteOS_Lab/iot_link/network/dtls/mbedtls/mbedtls-2.16.2/library\camellia.c ****       0x08, 0x09, 0x0A, 0x0B, 0x0C, 0x0D, 0x0E, 0x0F,
 904:C:/Users/dtjld/workspace/AIoT/src/LiteOS_Lab/iot_link/network/dtls/mbedtls/mbedtls-2.16.2/library\camellia.c ****       0x10, 0x11, 0x12, 0x13, 0x14, 0x15, 0x16, 0x17,
 905:C:/Users/dtjld/workspace/AIoT/src/LiteOS_Lab/iot_link/network/dtls/mbedtls/mbedtls-2.16.2/library\camellia.c ****       0x18, 0x19, 0x1A, 0x1B, 0x1C, 0x1D, 0x1E, 0x1F },
 906:C:/Users/dtjld/workspace/AIoT/src/LiteOS_Lab/iot_link/network/dtls/mbedtls/mbedtls-2.16.2/library\camellia.c **** 
 907:C:/Users/dtjld/workspace/AIoT/src/LiteOS_Lab/iot_link/network/dtls/mbedtls/mbedtls-2.16.2/library\camellia.c ****     { 0x00, 0x01, 0x02, 0x03, 0x04, 0x05, 0x06, 0x07,
 908:C:/Users/dtjld/workspace/AIoT/src/LiteOS_Lab/iot_link/network/dtls/mbedtls/mbedtls-2.16.2/library\camellia.c ****       0x08, 0x09, 0x0A, 0x0B, 0x0C, 0x0D, 0x0E, 0x0F,
 909:C:/Users/dtjld/workspace/AIoT/src/LiteOS_Lab/iot_link/network/dtls/mbedtls/mbedtls-2.16.2/library\camellia.c ****       0x10, 0x11, 0x12, 0x13, 0x14, 0x15, 0x16, 0x17,
 910:C:/Users/dtjld/workspace/AIoT/src/LiteOS_Lab/iot_link/network/dtls/mbedtls/mbedtls-2.16.2/library\camellia.c ****       0x18, 0x19, 0x1A, 0x1B, 0x1C, 0x1D, 0x1E, 0x1F,
 911:C:/Users/dtjld/workspace/AIoT/src/LiteOS_Lab/iot_link/network/dtls/mbedtls/mbedtls-2.16.2/library\camellia.c ****       0x20, 0x21, 0x22, 0x23 }
 912:C:/Users/dtjld/workspace/AIoT/src/LiteOS_Lab/iot_link/network/dtls/mbedtls/mbedtls-2.16.2/library\camellia.c **** };
ARM GAS  C:\Users\dtjld\AppData\Local\Temp\ccRGkA1L.s 			page 104


 913:C:/Users/dtjld/workspace/AIoT/src/LiteOS_Lab/iot_link/network/dtls/mbedtls/mbedtls-2.16.2/library\camellia.c **** 
 914:C:/Users/dtjld/workspace/AIoT/src/LiteOS_Lab/iot_link/network/dtls/mbedtls/mbedtls-2.16.2/library\camellia.c **** static const unsigned char camellia_test_ctr_ct[3][48] =
 915:C:/Users/dtjld/workspace/AIoT/src/LiteOS_Lab/iot_link/network/dtls/mbedtls/mbedtls-2.16.2/library\camellia.c **** {
 916:C:/Users/dtjld/workspace/AIoT/src/LiteOS_Lab/iot_link/network/dtls/mbedtls/mbedtls-2.16.2/library\camellia.c ****     { 0xD0, 0x9D, 0xC2, 0x9A, 0x82, 0x14, 0x61, 0x9A,
 917:C:/Users/dtjld/workspace/AIoT/src/LiteOS_Lab/iot_link/network/dtls/mbedtls/mbedtls-2.16.2/library\camellia.c ****       0x20, 0x87, 0x7C, 0x76, 0xDB, 0x1F, 0x0B, 0x3F },
 918:C:/Users/dtjld/workspace/AIoT/src/LiteOS_Lab/iot_link/network/dtls/mbedtls/mbedtls-2.16.2/library\camellia.c ****     { 0xDB, 0xF3, 0xC7, 0x8D, 0xC0, 0x83, 0x96, 0xD4,
 919:C:/Users/dtjld/workspace/AIoT/src/LiteOS_Lab/iot_link/network/dtls/mbedtls/mbedtls-2.16.2/library\camellia.c ****       0xDA, 0x7C, 0x90, 0x77, 0x65, 0xBB, 0xCB, 0x44,
 920:C:/Users/dtjld/workspace/AIoT/src/LiteOS_Lab/iot_link/network/dtls/mbedtls/mbedtls-2.16.2/library\camellia.c ****       0x2B, 0x8E, 0x8E, 0x0F, 0x31, 0xF0, 0xDC, 0xA7,
 921:C:/Users/dtjld/workspace/AIoT/src/LiteOS_Lab/iot_link/network/dtls/mbedtls/mbedtls-2.16.2/library\camellia.c ****       0x2C, 0x74, 0x17, 0xE3, 0x53, 0x60, 0xE0, 0x48 },
 922:C:/Users/dtjld/workspace/AIoT/src/LiteOS_Lab/iot_link/network/dtls/mbedtls/mbedtls-2.16.2/library\camellia.c ****     { 0xB1, 0x9D, 0x1F, 0xCD, 0xCB, 0x75, 0xEB, 0x88,
 923:C:/Users/dtjld/workspace/AIoT/src/LiteOS_Lab/iot_link/network/dtls/mbedtls/mbedtls-2.16.2/library\camellia.c ****       0x2F, 0x84, 0x9C, 0xE2, 0x4D, 0x85, 0xCF, 0x73,
 924:C:/Users/dtjld/workspace/AIoT/src/LiteOS_Lab/iot_link/network/dtls/mbedtls/mbedtls-2.16.2/library\camellia.c ****       0x9C, 0xE6, 0x4B, 0x2B, 0x5C, 0x9D, 0x73, 0xF1,
 925:C:/Users/dtjld/workspace/AIoT/src/LiteOS_Lab/iot_link/network/dtls/mbedtls/mbedtls-2.16.2/library\camellia.c ****       0x4F, 0x2D, 0x5D, 0x9D, 0xCE, 0x98, 0x89, 0xCD,
 926:C:/Users/dtjld/workspace/AIoT/src/LiteOS_Lab/iot_link/network/dtls/mbedtls/mbedtls-2.16.2/library\camellia.c ****       0xDF, 0x50, 0x86, 0x96 }
 927:C:/Users/dtjld/workspace/AIoT/src/LiteOS_Lab/iot_link/network/dtls/mbedtls/mbedtls-2.16.2/library\camellia.c **** };
 928:C:/Users/dtjld/workspace/AIoT/src/LiteOS_Lab/iot_link/network/dtls/mbedtls/mbedtls-2.16.2/library\camellia.c **** 
 929:C:/Users/dtjld/workspace/AIoT/src/LiteOS_Lab/iot_link/network/dtls/mbedtls/mbedtls-2.16.2/library\camellia.c **** static const int camellia_test_ctr_len[3] =
 930:C:/Users/dtjld/workspace/AIoT/src/LiteOS_Lab/iot_link/network/dtls/mbedtls/mbedtls-2.16.2/library\camellia.c ****     { 16, 32, 36 };
 931:C:/Users/dtjld/workspace/AIoT/src/LiteOS_Lab/iot_link/network/dtls/mbedtls/mbedtls-2.16.2/library\camellia.c **** #endif /* MBEDTLS_CIPHER_MODE_CTR */
 932:C:/Users/dtjld/workspace/AIoT/src/LiteOS_Lab/iot_link/network/dtls/mbedtls/mbedtls-2.16.2/library\camellia.c **** 
 933:C:/Users/dtjld/workspace/AIoT/src/LiteOS_Lab/iot_link/network/dtls/mbedtls/mbedtls-2.16.2/library\camellia.c **** /*
 934:C:/Users/dtjld/workspace/AIoT/src/LiteOS_Lab/iot_link/network/dtls/mbedtls/mbedtls-2.16.2/library\camellia.c ****  * Checkup routine
 935:C:/Users/dtjld/workspace/AIoT/src/LiteOS_Lab/iot_link/network/dtls/mbedtls/mbedtls-2.16.2/library\camellia.c ****  */
 936:C:/Users/dtjld/workspace/AIoT/src/LiteOS_Lab/iot_link/network/dtls/mbedtls/mbedtls-2.16.2/library\camellia.c **** int mbedtls_camellia_self_test( int verbose )
 937:C:/Users/dtjld/workspace/AIoT/src/LiteOS_Lab/iot_link/network/dtls/mbedtls/mbedtls-2.16.2/library\camellia.c **** {
 4937              		.loc 1 937 0
 4938              		.cfi_startproc
 4939              		@ args = 0, pretend = 0, frame = 488
 4940              		@ frame_needed = 1, uses_anonymous_args = 0
 4941 0000 90B5     		push	{r4, r7, lr}
 4942              	.LCFI46:
 4943              		.cfi_def_cfa_offset 12
 4944              		.cfi_offset 4, -12
 4945              		.cfi_offset 7, -8
 4946              		.cfi_offset 14, -4
 4947 0002 FFB0     		sub	sp, sp, #508
 4948              	.LCFI47:
 4949              		.cfi_def_cfa_offset 520
 4950 0004 04AF     		add	r7, sp, #16
 4951              	.LCFI48:
 4952              		.cfi_def_cfa 7, 504
 4953 0006 3B1D     		adds	r3, r7, #4
 4954 0008 1860     		str	r0, [r3]
 938:C:/Users/dtjld/workspace/AIoT/src/LiteOS_Lab/iot_link/network/dtls/mbedtls/mbedtls-2.16.2/library\camellia.c ****     int i, j, u, v;
 939:C:/Users/dtjld/workspace/AIoT/src/LiteOS_Lab/iot_link/network/dtls/mbedtls/mbedtls-2.16.2/library\camellia.c ****     unsigned char key[32];
 940:C:/Users/dtjld/workspace/AIoT/src/LiteOS_Lab/iot_link/network/dtls/mbedtls/mbedtls-2.16.2/library\camellia.c ****     unsigned char buf[64];
 941:C:/Users/dtjld/workspace/AIoT/src/LiteOS_Lab/iot_link/network/dtls/mbedtls/mbedtls-2.16.2/library\camellia.c ****     unsigned char src[16];
 942:C:/Users/dtjld/workspace/AIoT/src/LiteOS_Lab/iot_link/network/dtls/mbedtls/mbedtls-2.16.2/library\camellia.c ****     unsigned char dst[16];
 943:C:/Users/dtjld/workspace/AIoT/src/LiteOS_Lab/iot_link/network/dtls/mbedtls/mbedtls-2.16.2/library\camellia.c **** #if defined(MBEDTLS_CIPHER_MODE_CBC)
 944:C:/Users/dtjld/workspace/AIoT/src/LiteOS_Lab/iot_link/network/dtls/mbedtls/mbedtls-2.16.2/library\camellia.c ****     unsigned char iv[16];
 945:C:/Users/dtjld/workspace/AIoT/src/LiteOS_Lab/iot_link/network/dtls/mbedtls/mbedtls-2.16.2/library\camellia.c **** #endif
 946:C:/Users/dtjld/workspace/AIoT/src/LiteOS_Lab/iot_link/network/dtls/mbedtls/mbedtls-2.16.2/library\camellia.c **** #if defined(MBEDTLS_CIPHER_MODE_CTR)
 947:C:/Users/dtjld/workspace/AIoT/src/LiteOS_Lab/iot_link/network/dtls/mbedtls/mbedtls-2.16.2/library\camellia.c ****     size_t offset, len;
 948:C:/Users/dtjld/workspace/AIoT/src/LiteOS_Lab/iot_link/network/dtls/mbedtls/mbedtls-2.16.2/library\camellia.c ****     unsigned char nonce_counter[16];
 949:C:/Users/dtjld/workspace/AIoT/src/LiteOS_Lab/iot_link/network/dtls/mbedtls/mbedtls-2.16.2/library\camellia.c ****     unsigned char stream_block[16];
 950:C:/Users/dtjld/workspace/AIoT/src/LiteOS_Lab/iot_link/network/dtls/mbedtls/mbedtls-2.16.2/library\camellia.c **** #endif
 951:C:/Users/dtjld/workspace/AIoT/src/LiteOS_Lab/iot_link/network/dtls/mbedtls/mbedtls-2.16.2/library\camellia.c **** 
ARM GAS  C:\Users\dtjld\AppData\Local\Temp\ccRGkA1L.s 			page 105


 952:C:/Users/dtjld/workspace/AIoT/src/LiteOS_Lab/iot_link/network/dtls/mbedtls/mbedtls-2.16.2/library\camellia.c ****     mbedtls_camellia_context ctx;
 953:C:/Users/dtjld/workspace/AIoT/src/LiteOS_Lab/iot_link/network/dtls/mbedtls/mbedtls-2.16.2/library\camellia.c **** 
 954:C:/Users/dtjld/workspace/AIoT/src/LiteOS_Lab/iot_link/network/dtls/mbedtls/mbedtls-2.16.2/library\camellia.c ****     memset( key, 0, 32 );
 4955              		.loc 1 954 0
 4956 000a 07F5DA73 		add	r3, r7, #436
 4957 000e 2022     		movs	r2, #32
 4958 0010 0021     		movs	r1, #0
 4959 0012 1846     		mov	r0, r3
 4960 0014 FFF7FEFF 		bl	memset
 955:C:/Users/dtjld/workspace/AIoT/src/LiteOS_Lab/iot_link/network/dtls/mbedtls/mbedtls-2.16.2/library\camellia.c **** 
 956:C:/Users/dtjld/workspace/AIoT/src/LiteOS_Lab/iot_link/network/dtls/mbedtls/mbedtls-2.16.2/library\camellia.c ****     for( j = 0; j < 6; j++ ) {
 4961              		.loc 1 956 0
 4962 0018 0023     		movs	r3, #0
 4963 001a C7F8E031 		str	r3, [r7, #480]
 4964 001e BFE0     		b	.L117
 4965              	.L129:
 957:C:/Users/dtjld/workspace/AIoT/src/LiteOS_Lab/iot_link/network/dtls/mbedtls/mbedtls-2.16.2/library\camellia.c ****         u = j >> 1;
 4966              		.loc 1 957 0
 4967 0020 D7F8E031 		ldr	r3, [r7, #480]
 4968 0024 5B10     		asrs	r3, r3, #1
 4969 0026 C7F8DC31 		str	r3, [r7, #476]
 958:C:/Users/dtjld/workspace/AIoT/src/LiteOS_Lab/iot_link/network/dtls/mbedtls/mbedtls-2.16.2/library\camellia.c ****     v = j & 1;
 4970              		.loc 1 958 0
 4971 002a D7F8E031 		ldr	r3, [r7, #480]
 4972 002e 03F00103 		and	r3, r3, #1
 4973 0032 C7F8D831 		str	r3, [r7, #472]
 959:C:/Users/dtjld/workspace/AIoT/src/LiteOS_Lab/iot_link/network/dtls/mbedtls/mbedtls-2.16.2/library\camellia.c **** 
 960:C:/Users/dtjld/workspace/AIoT/src/LiteOS_Lab/iot_link/network/dtls/mbedtls/mbedtls-2.16.2/library\camellia.c ****     if( verbose != 0 )
 4974              		.loc 1 960 0
 4975 0036 3B1D     		adds	r3, r7, #4
 4976 0038 1B68     		ldr	r3, [r3]
 4977 003a 002B     		cmp	r3, #0
 4978 003c 0ED0     		beq	.L118
 961:C:/Users/dtjld/workspace/AIoT/src/LiteOS_Lab/iot_link/network/dtls/mbedtls/mbedtls-2.16.2/library\camellia.c ****         mbedtls_printf( "  CAMELLIA-ECB-%3d (%s): ", 128 + u * 64,
 4979              		.loc 1 961 0
 4980 003e C84B     		ldr	r3, .L158
 4981 0040 1B68     		ldr	r3, [r3]
 4982 0042 D7F8DC21 		ldr	r2, [r7, #476]
 4983 0046 0232     		adds	r2, r2, #2
 4984 0048 9101     		lsls	r1, r2, #6
 4985 004a D7F8D821 		ldr	r2, [r7, #472]
 4986 004e 002A     		cmp	r2, #0
 4987 0050 01D1     		bne	.L119
 4988              		.loc 1 961 0 is_stmt 0 discriminator 1
 4989 0052 C44A     		ldr	r2, .L158+4
 4990 0054 00E0     		b	.L120
 4991              	.L119:
 4992              		.loc 1 961 0 discriminator 2
 4993 0056 C44A     		ldr	r2, .L158+8
 4994              	.L120:
 4995              		.loc 1 961 0 discriminator 4
 4996 0058 C448     		ldr	r0, .L158+12
 4997 005a 9847     		blx	r3
 4998              	.LVL0:
 4999              	.L118:
 962:C:/Users/dtjld/workspace/AIoT/src/LiteOS_Lab/iot_link/network/dtls/mbedtls/mbedtls-2.16.2/library\camellia.c ****                          (v == MBEDTLS_CAMELLIA_DECRYPT) ? "dec" : "enc");
 963:C:/Users/dtjld/workspace/AIoT/src/LiteOS_Lab/iot_link/network/dtls/mbedtls/mbedtls-2.16.2/library\camellia.c **** 
ARM GAS  C:\Users\dtjld\AppData\Local\Temp\ccRGkA1L.s 			page 106


 964:C:/Users/dtjld/workspace/AIoT/src/LiteOS_Lab/iot_link/network/dtls/mbedtls/mbedtls-2.16.2/library\camellia.c ****     for( i = 0; i < CAMELLIA_TESTS_ECB; i++ ) {
 5000              		.loc 1 964 0 is_stmt 1
 5001 005c 0023     		movs	r3, #0
 5002 005e C7F8E431 		str	r3, [r7, #484]
 5003 0062 8BE0     		b	.L121
 5004              	.L127:
 965:C:/Users/dtjld/workspace/AIoT/src/LiteOS_Lab/iot_link/network/dtls/mbedtls/mbedtls-2.16.2/library\camellia.c ****         memcpy( key, camellia_test_ecb_key[u][i], 16 + 8 * u );
 5005              		.loc 1 965 0
 5006 0064 D7F8DC31 		ldr	r3, [r7, #476]
 5007 0068 5A00     		lsls	r2, r3, #1
 5008 006a D7F8E431 		ldr	r3, [r7, #484]
 5009 006e 1344     		add	r3, r3, r2
 5010 0070 5B01     		lsls	r3, r3, #5
 5011 0072 BF4A     		ldr	r2, .L158+16
 5012 0074 9918     		adds	r1, r3, r2
 5013 0076 D7F8DC31 		ldr	r3, [r7, #476]
 5014 007a 0233     		adds	r3, r3, #2
 5015 007c DB00     		lsls	r3, r3, #3
 5016 007e 1A46     		mov	r2, r3
 5017 0080 07F5DA73 		add	r3, r7, #436
 5018 0084 1846     		mov	r0, r3
 5019 0086 FFF7FEFF 		bl	memcpy
 966:C:/Users/dtjld/workspace/AIoT/src/LiteOS_Lab/iot_link/network/dtls/mbedtls/mbedtls-2.16.2/library\camellia.c **** 
 967:C:/Users/dtjld/workspace/AIoT/src/LiteOS_Lab/iot_link/network/dtls/mbedtls/mbedtls-2.16.2/library\camellia.c ****         if( v == MBEDTLS_CAMELLIA_DECRYPT ) {
 5020              		.loc 1 967 0
 5021 008a D7F8D831 		ldr	r3, [r7, #472]
 5022 008e 002B     		cmp	r3, #0
 5023 0090 28D1     		bne	.L122
 968:C:/Users/dtjld/workspace/AIoT/src/LiteOS_Lab/iot_link/network/dtls/mbedtls/mbedtls-2.16.2/library\camellia.c ****             mbedtls_camellia_setkey_dec( &ctx, key, 128 + u * 64 );
 5024              		.loc 1 968 0
 5025 0092 D7F8DC31 		ldr	r3, [r7, #476]
 5026 0096 0233     		adds	r3, r3, #2
 5027 0098 9B01     		lsls	r3, r3, #6
 5028 009a 1A46     		mov	r2, r3
 5029 009c 07F5DA71 		add	r1, r7, #436
 5030 00a0 07F10C03 		add	r3, r7, #12
 5031 00a4 1846     		mov	r0, r3
 5032 00a6 FFF7FEFF 		bl	mbedtls_camellia_setkey_dec
 969:C:/Users/dtjld/workspace/AIoT/src/LiteOS_Lab/iot_link/network/dtls/mbedtls/mbedtls-2.16.2/library\camellia.c ****             memcpy( src, camellia_test_ecb_cipher[u][i], 16 );
 5033              		.loc 1 969 0
 5034 00aa D7F8DC31 		ldr	r3, [r7, #476]
 5035 00ae 5A00     		lsls	r2, r3, #1
 5036 00b0 D7F8E431 		ldr	r3, [r7, #484]
 5037 00b4 1344     		add	r3, r3, r2
 5038 00b6 1B01     		lsls	r3, r3, #4
 5039 00b8 AE4A     		ldr	r2, .L158+20
 5040 00ba 1344     		add	r3, r3, r2
 5041 00bc 07F5B274 		add	r4, r7, #356
 5042 00c0 1868     		ldr	r0, [r3]	@ unaligned
 5043 00c2 5968     		ldr	r1, [r3, #4]	@ unaligned
 5044 00c4 9A68     		ldr	r2, [r3, #8]	@ unaligned
 5045 00c6 DB68     		ldr	r3, [r3, #12]	@ unaligned
 5046 00c8 0FC4     		stmia	r4!, {r0, r1, r2, r3}
 970:C:/Users/dtjld/workspace/AIoT/src/LiteOS_Lab/iot_link/network/dtls/mbedtls/mbedtls-2.16.2/library\camellia.c ****             memcpy( dst, camellia_test_ecb_plain[i], 16 );
 5047              		.loc 1 970 0
 5048 00ca D7F8E431 		ldr	r3, [r7, #484]
 5049 00ce 1B01     		lsls	r3, r3, #4
ARM GAS  C:\Users\dtjld\AppData\Local\Temp\ccRGkA1L.s 			page 107


 5050 00d0 A94A     		ldr	r2, .L158+24
 5051 00d2 1344     		add	r3, r3, r2
 5052 00d4 07F5AA74 		add	r4, r7, #340
 5053 00d8 1868     		ldr	r0, [r3]	@ unaligned
 5054 00da 5968     		ldr	r1, [r3, #4]	@ unaligned
 5055 00dc 9A68     		ldr	r2, [r3, #8]	@ unaligned
 5056 00de DB68     		ldr	r3, [r3, #12]	@ unaligned
 5057 00e0 0FC4     		stmia	r4!, {r0, r1, r2, r3}
 5058 00e2 27E0     		b	.L123
 5059              	.L122:
 971:C:/Users/dtjld/workspace/AIoT/src/LiteOS_Lab/iot_link/network/dtls/mbedtls/mbedtls-2.16.2/library\camellia.c ****         } else { /* MBEDTLS_CAMELLIA_ENCRYPT */
 972:C:/Users/dtjld/workspace/AIoT/src/LiteOS_Lab/iot_link/network/dtls/mbedtls/mbedtls-2.16.2/library\camellia.c ****             mbedtls_camellia_setkey_enc( &ctx, key, 128 + u * 64 );
 5060              		.loc 1 972 0
 5061 00e4 D7F8DC31 		ldr	r3, [r7, #476]
 5062 00e8 0233     		adds	r3, r3, #2
 5063 00ea 9B01     		lsls	r3, r3, #6
 5064 00ec 1A46     		mov	r2, r3
 5065 00ee 07F5DA71 		add	r1, r7, #436
 5066 00f2 07F10C03 		add	r3, r7, #12
 5067 00f6 1846     		mov	r0, r3
 5068 00f8 FFF7FEFF 		bl	mbedtls_camellia_setkey_enc
 973:C:/Users/dtjld/workspace/AIoT/src/LiteOS_Lab/iot_link/network/dtls/mbedtls/mbedtls-2.16.2/library\camellia.c ****             memcpy( src, camellia_test_ecb_plain[i], 16 );
 5069              		.loc 1 973 0
 5070 00fc D7F8E431 		ldr	r3, [r7, #484]
 5071 0100 1B01     		lsls	r3, r3, #4
 5072 0102 9D4A     		ldr	r2, .L158+24
 5073 0104 1344     		add	r3, r3, r2
 5074 0106 07F5B274 		add	r4, r7, #356
 5075 010a 1868     		ldr	r0, [r3]	@ unaligned
 5076 010c 5968     		ldr	r1, [r3, #4]	@ unaligned
 5077 010e 9A68     		ldr	r2, [r3, #8]	@ unaligned
 5078 0110 DB68     		ldr	r3, [r3, #12]	@ unaligned
 5079 0112 0FC4     		stmia	r4!, {r0, r1, r2, r3}
 974:C:/Users/dtjld/workspace/AIoT/src/LiteOS_Lab/iot_link/network/dtls/mbedtls/mbedtls-2.16.2/library\camellia.c ****             memcpy( dst, camellia_test_ecb_cipher[u][i], 16 );
 5080              		.loc 1 974 0
 5081 0114 D7F8DC31 		ldr	r3, [r7, #476]
 5082 0118 5A00     		lsls	r2, r3, #1
 5083 011a D7F8E431 		ldr	r3, [r7, #484]
 5084 011e 1344     		add	r3, r3, r2
 5085 0120 1B01     		lsls	r3, r3, #4
 5086 0122 944A     		ldr	r2, .L158+20
 5087 0124 1344     		add	r3, r3, r2
 5088 0126 07F5AA74 		add	r4, r7, #340
 5089 012a 1868     		ldr	r0, [r3]	@ unaligned
 5090 012c 5968     		ldr	r1, [r3, #4]	@ unaligned
 5091 012e 9A68     		ldr	r2, [r3, #8]	@ unaligned
 5092 0130 DB68     		ldr	r3, [r3, #12]	@ unaligned
 5093 0132 0FC4     		stmia	r4!, {r0, r1, r2, r3}
 5094              	.L123:
 975:C:/Users/dtjld/workspace/AIoT/src/LiteOS_Lab/iot_link/network/dtls/mbedtls/mbedtls-2.16.2/library\camellia.c ****         }
 976:C:/Users/dtjld/workspace/AIoT/src/LiteOS_Lab/iot_link/network/dtls/mbedtls/mbedtls-2.16.2/library\camellia.c **** 
 977:C:/Users/dtjld/workspace/AIoT/src/LiteOS_Lab/iot_link/network/dtls/mbedtls/mbedtls-2.16.2/library\camellia.c ****         mbedtls_camellia_crypt_ecb( &ctx, v, src, buf );
 5095              		.loc 1 977 0
 5096 0134 07F5BA73 		add	r3, r7, #372
 5097 0138 07F5B272 		add	r2, r7, #356
 5098 013c 07F10C00 		add	r0, r7, #12
 5099 0140 D7F8D811 		ldr	r1, [r7, #472]
ARM GAS  C:\Users\dtjld\AppData\Local\Temp\ccRGkA1L.s 			page 108


 5100 0144 FFF7FEFF 		bl	mbedtls_camellia_crypt_ecb
 978:C:/Users/dtjld/workspace/AIoT/src/LiteOS_Lab/iot_link/network/dtls/mbedtls/mbedtls-2.16.2/library\camellia.c **** 
 979:C:/Users/dtjld/workspace/AIoT/src/LiteOS_Lab/iot_link/network/dtls/mbedtls/mbedtls-2.16.2/library\camellia.c ****         if( memcmp( buf, dst, 16 ) != 0 )
 5101              		.loc 1 979 0
 5102 0148 07F5AA71 		add	r1, r7, #340
 5103 014c 07F5BA73 		add	r3, r7, #372
 5104 0150 1022     		movs	r2, #16
 5105 0152 1846     		mov	r0, r3
 5106 0154 FFF7FEFF 		bl	memcmp
 5107 0158 0346     		mov	r3, r0
 5108 015a 002B     		cmp	r3, #0
 5109 015c 09D0     		beq	.L124
 980:C:/Users/dtjld/workspace/AIoT/src/LiteOS_Lab/iot_link/network/dtls/mbedtls/mbedtls-2.16.2/library\camellia.c ****         {
 981:C:/Users/dtjld/workspace/AIoT/src/LiteOS_Lab/iot_link/network/dtls/mbedtls/mbedtls-2.16.2/library\camellia.c ****             if( verbose != 0 )
 5110              		.loc 1 981 0
 5111 015e 3B1D     		adds	r3, r7, #4
 5112 0160 1B68     		ldr	r3, [r3]
 5113 0162 002B     		cmp	r3, #0
 5114 0164 03D0     		beq	.L125
 982:C:/Users/dtjld/workspace/AIoT/src/LiteOS_Lab/iot_link/network/dtls/mbedtls/mbedtls-2.16.2/library\camellia.c ****                 mbedtls_printf( "failed\n" );
 5115              		.loc 1 982 0
 5116 0166 7E4B     		ldr	r3, .L158
 5117 0168 1B68     		ldr	r3, [r3]
 5118 016a 8448     		ldr	r0, .L158+28
 5119 016c 9847     		blx	r3
 5120              	.LVL1:
 5121              	.L125:
 983:C:/Users/dtjld/workspace/AIoT/src/LiteOS_Lab/iot_link/network/dtls/mbedtls/mbedtls-2.16.2/library\camellia.c **** 
 984:C:/Users/dtjld/workspace/AIoT/src/LiteOS_Lab/iot_link/network/dtls/mbedtls/mbedtls-2.16.2/library\camellia.c ****             return( 1 );
 5122              		.loc 1 984 0
 5123 016e 0123     		movs	r3, #1
 5124 0170 24E2     		b	.L157
 5125              	.L124:
 964:C:/Users/dtjld/workspace/AIoT/src/LiteOS_Lab/iot_link/network/dtls/mbedtls/mbedtls-2.16.2/library\camellia.c ****         memcpy( key, camellia_test_ecb_key[u][i], 16 + 8 * u );
 5126              		.loc 1 964 0 discriminator 2
 5127 0172 D7F8E431 		ldr	r3, [r7, #484]
 5128 0176 0133     		adds	r3, r3, #1
 5129 0178 C7F8E431 		str	r3, [r7, #484]
 5130              	.L121:
 964:C:/Users/dtjld/workspace/AIoT/src/LiteOS_Lab/iot_link/network/dtls/mbedtls/mbedtls-2.16.2/library\camellia.c ****         memcpy( key, camellia_test_ecb_key[u][i], 16 + 8 * u );
 5131              		.loc 1 964 0 is_stmt 0 discriminator 1
 5132 017c D7F8E431 		ldr	r3, [r7, #484]
 5133 0180 012B     		cmp	r3, #1
 5134 0182 7FF76FAF 		ble	.L127
 985:C:/Users/dtjld/workspace/AIoT/src/LiteOS_Lab/iot_link/network/dtls/mbedtls/mbedtls-2.16.2/library\camellia.c ****         }
 986:C:/Users/dtjld/workspace/AIoT/src/LiteOS_Lab/iot_link/network/dtls/mbedtls/mbedtls-2.16.2/library\camellia.c ****     }
 987:C:/Users/dtjld/workspace/AIoT/src/LiteOS_Lab/iot_link/network/dtls/mbedtls/mbedtls-2.16.2/library\camellia.c **** 
 988:C:/Users/dtjld/workspace/AIoT/src/LiteOS_Lab/iot_link/network/dtls/mbedtls/mbedtls-2.16.2/library\camellia.c ****     if( verbose != 0 )
 5135              		.loc 1 988 0 is_stmt 1
 5136 0186 3B1D     		adds	r3, r7, #4
 5137 0188 1B68     		ldr	r3, [r3]
 5138 018a 002B     		cmp	r3, #0
 5139 018c 03D0     		beq	.L128
 989:C:/Users/dtjld/workspace/AIoT/src/LiteOS_Lab/iot_link/network/dtls/mbedtls/mbedtls-2.16.2/library\camellia.c ****         mbedtls_printf( "passed\n" );
 5140              		.loc 1 989 0
 5141 018e 744B     		ldr	r3, .L158
 5142 0190 1B68     		ldr	r3, [r3]
ARM GAS  C:\Users\dtjld\AppData\Local\Temp\ccRGkA1L.s 			page 109


 5143 0192 7B48     		ldr	r0, .L158+32
 5144 0194 9847     		blx	r3
 5145              	.LVL2:
 5146              	.L128:
 956:C:/Users/dtjld/workspace/AIoT/src/LiteOS_Lab/iot_link/network/dtls/mbedtls/mbedtls-2.16.2/library\camellia.c ****         u = j >> 1;
 5147              		.loc 1 956 0 discriminator 2
 5148 0196 D7F8E031 		ldr	r3, [r7, #480]
 5149 019a 0133     		adds	r3, r3, #1
 5150 019c C7F8E031 		str	r3, [r7, #480]
 5151              	.L117:
 956:C:/Users/dtjld/workspace/AIoT/src/LiteOS_Lab/iot_link/network/dtls/mbedtls/mbedtls-2.16.2/library\camellia.c ****         u = j >> 1;
 5152              		.loc 1 956 0 is_stmt 0 discriminator 1
 5153 01a0 D7F8E031 		ldr	r3, [r7, #480]
 5154 01a4 052B     		cmp	r3, #5
 5155 01a6 7FF73BAF 		ble	.L129
 990:C:/Users/dtjld/workspace/AIoT/src/LiteOS_Lab/iot_link/network/dtls/mbedtls/mbedtls-2.16.2/library\camellia.c ****     }
 991:C:/Users/dtjld/workspace/AIoT/src/LiteOS_Lab/iot_link/network/dtls/mbedtls/mbedtls-2.16.2/library\camellia.c **** 
 992:C:/Users/dtjld/workspace/AIoT/src/LiteOS_Lab/iot_link/network/dtls/mbedtls/mbedtls-2.16.2/library\camellia.c ****     if( verbose != 0 )
 5156              		.loc 1 992 0 is_stmt 1
 5157 01aa 3B1D     		adds	r3, r7, #4
 5158 01ac 1B68     		ldr	r3, [r3]
 5159 01ae 002B     		cmp	r3, #0
 5160 01b0 03D0     		beq	.L130
 993:C:/Users/dtjld/workspace/AIoT/src/LiteOS_Lab/iot_link/network/dtls/mbedtls/mbedtls-2.16.2/library\camellia.c ****         mbedtls_printf( "\n" );
 5161              		.loc 1 993 0
 5162 01b2 6B4B     		ldr	r3, .L158
 5163 01b4 1B68     		ldr	r3, [r3]
 5164 01b6 7348     		ldr	r0, .L158+36
 5165 01b8 9847     		blx	r3
 5166              	.LVL3:
 5167              	.L130:
 994:C:/Users/dtjld/workspace/AIoT/src/LiteOS_Lab/iot_link/network/dtls/mbedtls/mbedtls-2.16.2/library\camellia.c **** 
 995:C:/Users/dtjld/workspace/AIoT/src/LiteOS_Lab/iot_link/network/dtls/mbedtls/mbedtls-2.16.2/library\camellia.c **** #if defined(MBEDTLS_CIPHER_MODE_CBC)
 996:C:/Users/dtjld/workspace/AIoT/src/LiteOS_Lab/iot_link/network/dtls/mbedtls/mbedtls-2.16.2/library\camellia.c ****     /*
 997:C:/Users/dtjld/workspace/AIoT/src/LiteOS_Lab/iot_link/network/dtls/mbedtls/mbedtls-2.16.2/library\camellia.c ****      * CBC mode
 998:C:/Users/dtjld/workspace/AIoT/src/LiteOS_Lab/iot_link/network/dtls/mbedtls/mbedtls-2.16.2/library\camellia.c ****      */
 999:C:/Users/dtjld/workspace/AIoT/src/LiteOS_Lab/iot_link/network/dtls/mbedtls/mbedtls-2.16.2/library\camellia.c ****     for( j = 0; j < 6; j++ )
 5168              		.loc 1 999 0
 5169 01ba 0023     		movs	r3, #0
 5170 01bc C7F8E031 		str	r3, [r7, #480]
 5171 01c0 03E1     		b	.L131
 5172              	.L144:
1000:C:/Users/dtjld/workspace/AIoT/src/LiteOS_Lab/iot_link/network/dtls/mbedtls/mbedtls-2.16.2/library\camellia.c ****     {
1001:C:/Users/dtjld/workspace/AIoT/src/LiteOS_Lab/iot_link/network/dtls/mbedtls/mbedtls-2.16.2/library\camellia.c ****         u = j >> 1;
 5173              		.loc 1 1001 0
 5174 01c2 D7F8E031 		ldr	r3, [r7, #480]
 5175 01c6 5B10     		asrs	r3, r3, #1
 5176 01c8 C7F8DC31 		str	r3, [r7, #476]
1002:C:/Users/dtjld/workspace/AIoT/src/LiteOS_Lab/iot_link/network/dtls/mbedtls/mbedtls-2.16.2/library\camellia.c ****         v = j  & 1;
 5177              		.loc 1 1002 0
 5178 01cc D7F8E031 		ldr	r3, [r7, #480]
 5179 01d0 03F00103 		and	r3, r3, #1
 5180 01d4 C7F8D831 		str	r3, [r7, #472]
1003:C:/Users/dtjld/workspace/AIoT/src/LiteOS_Lab/iot_link/network/dtls/mbedtls/mbedtls-2.16.2/library\camellia.c **** 
1004:C:/Users/dtjld/workspace/AIoT/src/LiteOS_Lab/iot_link/network/dtls/mbedtls/mbedtls-2.16.2/library\camellia.c ****         if( verbose != 0 )
 5181              		.loc 1 1004 0
 5182 01d8 3B1D     		adds	r3, r7, #4
ARM GAS  C:\Users\dtjld\AppData\Local\Temp\ccRGkA1L.s 			page 110


 5183 01da 1B68     		ldr	r3, [r3]
 5184 01dc 002B     		cmp	r3, #0
 5185 01de 0ED0     		beq	.L132
1005:C:/Users/dtjld/workspace/AIoT/src/LiteOS_Lab/iot_link/network/dtls/mbedtls/mbedtls-2.16.2/library\camellia.c ****             mbedtls_printf( "  CAMELLIA-CBC-%3d (%s): ", 128 + u * 64,
 5186              		.loc 1 1005 0
 5187 01e0 5F4B     		ldr	r3, .L158
 5188 01e2 1B68     		ldr	r3, [r3]
 5189 01e4 D7F8DC21 		ldr	r2, [r7, #476]
 5190 01e8 0232     		adds	r2, r2, #2
 5191 01ea 9101     		lsls	r1, r2, #6
 5192 01ec D7F8D821 		ldr	r2, [r7, #472]
 5193 01f0 002A     		cmp	r2, #0
 5194 01f2 01D1     		bne	.L133
 5195              		.loc 1 1005 0 is_stmt 0 discriminator 1
 5196 01f4 5B4A     		ldr	r2, .L158+4
 5197 01f6 00E0     		b	.L134
 5198              	.L133:
 5199              		.loc 1 1005 0 discriminator 2
 5200 01f8 5B4A     		ldr	r2, .L158+8
 5201              	.L134:
 5202              		.loc 1 1005 0 discriminator 4
 5203 01fa 6348     		ldr	r0, .L158+40
 5204 01fc 9847     		blx	r3
 5205              	.LVL4:
 5206              	.L132:
1006:C:/Users/dtjld/workspace/AIoT/src/LiteOS_Lab/iot_link/network/dtls/mbedtls/mbedtls-2.16.2/library\camellia.c ****                              ( v == MBEDTLS_CAMELLIA_DECRYPT ) ? "dec" : "enc" );
1007:C:/Users/dtjld/workspace/AIoT/src/LiteOS_Lab/iot_link/network/dtls/mbedtls/mbedtls-2.16.2/library\camellia.c **** 
1008:C:/Users/dtjld/workspace/AIoT/src/LiteOS_Lab/iot_link/network/dtls/mbedtls/mbedtls-2.16.2/library\camellia.c ****         memcpy( src, camellia_test_cbc_iv, 16 );
 5207              		.loc 1 1008 0 is_stmt 1
 5208 01fe 634B     		ldr	r3, .L158+44
 5209 0200 07F5B274 		add	r4, r7, #356
 5210 0204 0FCB     		ldm	r3, {r0, r1, r2, r3}
 5211 0206 84E80F00 		stm	r4, {r0, r1, r2, r3}
1009:C:/Users/dtjld/workspace/AIoT/src/LiteOS_Lab/iot_link/network/dtls/mbedtls/mbedtls-2.16.2/library\camellia.c ****         memcpy( dst, camellia_test_cbc_iv, 16 );
 5212              		.loc 1 1009 0
 5213 020a 604B     		ldr	r3, .L158+44
 5214 020c 07F5AA74 		add	r4, r7, #340
 5215 0210 0FCB     		ldm	r3, {r0, r1, r2, r3}
 5216 0212 84E80F00 		stm	r4, {r0, r1, r2, r3}
1010:C:/Users/dtjld/workspace/AIoT/src/LiteOS_Lab/iot_link/network/dtls/mbedtls/mbedtls-2.16.2/library\camellia.c ****         memcpy( key, camellia_test_cbc_key[u], 16 + 8 * u );
 5217              		.loc 1 1010 0
 5218 0216 D7F8DC31 		ldr	r3, [r7, #476]
 5219 021a 5B01     		lsls	r3, r3, #5
 5220 021c 5C4A     		ldr	r2, .L158+48
 5221 021e 9918     		adds	r1, r3, r2
 5222 0220 D7F8DC31 		ldr	r3, [r7, #476]
 5223 0224 0233     		adds	r3, r3, #2
 5224 0226 DB00     		lsls	r3, r3, #3
 5225 0228 1A46     		mov	r2, r3
 5226 022a 07F5DA73 		add	r3, r7, #436
 5227 022e 1846     		mov	r0, r3
 5228 0230 FFF7FEFF 		bl	memcpy
1011:C:/Users/dtjld/workspace/AIoT/src/LiteOS_Lab/iot_link/network/dtls/mbedtls/mbedtls-2.16.2/library\camellia.c **** 
1012:C:/Users/dtjld/workspace/AIoT/src/LiteOS_Lab/iot_link/network/dtls/mbedtls/mbedtls-2.16.2/library\camellia.c ****         if( v == MBEDTLS_CAMELLIA_DECRYPT ) {
 5229              		.loc 1 1012 0
 5230 0234 D7F8D831 		ldr	r3, [r7, #472]
 5231 0238 002B     		cmp	r3, #0
ARM GAS  C:\Users\dtjld\AppData\Local\Temp\ccRGkA1L.s 			page 111


 5232 023a 0CD1     		bne	.L135
1013:C:/Users/dtjld/workspace/AIoT/src/LiteOS_Lab/iot_link/network/dtls/mbedtls/mbedtls-2.16.2/library\camellia.c ****             mbedtls_camellia_setkey_dec( &ctx, key, 128 + u * 64 );
 5233              		.loc 1 1013 0
 5234 023c D7F8DC31 		ldr	r3, [r7, #476]
 5235 0240 0233     		adds	r3, r3, #2
 5236 0242 9B01     		lsls	r3, r3, #6
 5237 0244 1A46     		mov	r2, r3
 5238 0246 07F5DA71 		add	r1, r7, #436
 5239 024a 07F10C03 		add	r3, r7, #12
 5240 024e 1846     		mov	r0, r3
 5241 0250 FFF7FEFF 		bl	mbedtls_camellia_setkey_dec
 5242 0254 0BE0     		b	.L136
 5243              	.L135:
1014:C:/Users/dtjld/workspace/AIoT/src/LiteOS_Lab/iot_link/network/dtls/mbedtls/mbedtls-2.16.2/library\camellia.c ****         } else {
1015:C:/Users/dtjld/workspace/AIoT/src/LiteOS_Lab/iot_link/network/dtls/mbedtls/mbedtls-2.16.2/library\camellia.c ****             mbedtls_camellia_setkey_enc( &ctx, key, 128 + u * 64 );
 5244              		.loc 1 1015 0
 5245 0256 D7F8DC31 		ldr	r3, [r7, #476]
 5246 025a 0233     		adds	r3, r3, #2
 5247 025c 9B01     		lsls	r3, r3, #6
 5248 025e 1A46     		mov	r2, r3
 5249 0260 07F5DA71 		add	r1, r7, #436
 5250 0264 07F10C03 		add	r3, r7, #12
 5251 0268 1846     		mov	r0, r3
 5252 026a FFF7FEFF 		bl	mbedtls_camellia_setkey_enc
 5253              	.L136:
1016:C:/Users/dtjld/workspace/AIoT/src/LiteOS_Lab/iot_link/network/dtls/mbedtls/mbedtls-2.16.2/library\camellia.c ****         }
1017:C:/Users/dtjld/workspace/AIoT/src/LiteOS_Lab/iot_link/network/dtls/mbedtls/mbedtls-2.16.2/library\camellia.c **** 
1018:C:/Users/dtjld/workspace/AIoT/src/LiteOS_Lab/iot_link/network/dtls/mbedtls/mbedtls-2.16.2/library\camellia.c ****         for( i = 0; i < CAMELLIA_TESTS_CBC; i++ ) {
 5254              		.loc 1 1018 0
 5255 026e 0023     		movs	r3, #0
 5256 0270 C7F8E431 		str	r3, [r7, #484]
 5257 0274 97E0     		b	.L137
 5258              	.L142:
1019:C:/Users/dtjld/workspace/AIoT/src/LiteOS_Lab/iot_link/network/dtls/mbedtls/mbedtls-2.16.2/library\camellia.c **** 
1020:C:/Users/dtjld/workspace/AIoT/src/LiteOS_Lab/iot_link/network/dtls/mbedtls/mbedtls-2.16.2/library\camellia.c ****             if( v == MBEDTLS_CAMELLIA_DECRYPT ) {
 5259              		.loc 1 1020 0
 5260 0276 D7F8D831 		ldr	r3, [r7, #472]
 5261 027a 002B     		cmp	r3, #0
 5262 027c 25D1     		bne	.L138
1021:C:/Users/dtjld/workspace/AIoT/src/LiteOS_Lab/iot_link/network/dtls/mbedtls/mbedtls-2.16.2/library\camellia.c ****                 memcpy( iv , src, 16 );
 5263              		.loc 1 1021 0
 5264 027e 07F5A274 		add	r4, r7, #324
 5265 0282 07F5B273 		add	r3, r7, #356
 5266 0286 0FCB     		ldm	r3, {r0, r1, r2, r3}
 5267 0288 84E80F00 		stm	r4, {r0, r1, r2, r3}
1022:C:/Users/dtjld/workspace/AIoT/src/LiteOS_Lab/iot_link/network/dtls/mbedtls/mbedtls-2.16.2/library\camellia.c ****                 memcpy( src, camellia_test_cbc_cipher[u][i], 16 );
 5268              		.loc 1 1022 0
 5269 028c D7F8DC21 		ldr	r2, [r7, #476]
 5270 0290 1346     		mov	r3, r2
 5271 0292 5B00     		lsls	r3, r3, #1
 5272 0294 1344     		add	r3, r3, r2
 5273 0296 D7F8E421 		ldr	r2, [r7, #484]
 5274 029a 1344     		add	r3, r3, r2
 5275 029c 1B01     		lsls	r3, r3, #4
 5276 029e 3D4A     		ldr	r2, .L158+52
 5277 02a0 1344     		add	r3, r3, r2
 5278 02a2 07F5B274 		add	r4, r7, #356
ARM GAS  C:\Users\dtjld\AppData\Local\Temp\ccRGkA1L.s 			page 112


 5279 02a6 1868     		ldr	r0, [r3]	@ unaligned
 5280 02a8 5968     		ldr	r1, [r3, #4]	@ unaligned
 5281 02aa 9A68     		ldr	r2, [r3, #8]	@ unaligned
 5282 02ac DB68     		ldr	r3, [r3, #12]	@ unaligned
 5283 02ae 0FC4     		stmia	r4!, {r0, r1, r2, r3}
1023:C:/Users/dtjld/workspace/AIoT/src/LiteOS_Lab/iot_link/network/dtls/mbedtls/mbedtls-2.16.2/library\camellia.c ****                 memcpy( dst, camellia_test_cbc_plain[i], 16 );
 5284              		.loc 1 1023 0
 5285 02b0 D7F8E431 		ldr	r3, [r7, #484]
 5286 02b4 1B01     		lsls	r3, r3, #4
 5287 02b6 384A     		ldr	r2, .L158+56
 5288 02b8 1344     		add	r3, r3, r2
 5289 02ba 07F5AA74 		add	r4, r7, #340
 5290 02be 1868     		ldr	r0, [r3]	@ unaligned
 5291 02c0 5968     		ldr	r1, [r3, #4]	@ unaligned
 5292 02c2 9A68     		ldr	r2, [r3, #8]	@ unaligned
 5293 02c4 DB68     		ldr	r3, [r3, #12]	@ unaligned
 5294 02c6 0FC4     		stmia	r4!, {r0, r1, r2, r3}
 5295 02c8 24E0     		b	.L139
 5296              	.L138:
1024:C:/Users/dtjld/workspace/AIoT/src/LiteOS_Lab/iot_link/network/dtls/mbedtls/mbedtls-2.16.2/library\camellia.c ****             } else { /* MBEDTLS_CAMELLIA_ENCRYPT */
1025:C:/Users/dtjld/workspace/AIoT/src/LiteOS_Lab/iot_link/network/dtls/mbedtls/mbedtls-2.16.2/library\camellia.c ****                 memcpy( iv , dst, 16 );
 5297              		.loc 1 1025 0
 5298 02ca 07F5A274 		add	r4, r7, #324
 5299 02ce 07F5AA73 		add	r3, r7, #340
 5300 02d2 0FCB     		ldm	r3, {r0, r1, r2, r3}
 5301 02d4 84E80F00 		stm	r4, {r0, r1, r2, r3}
1026:C:/Users/dtjld/workspace/AIoT/src/LiteOS_Lab/iot_link/network/dtls/mbedtls/mbedtls-2.16.2/library\camellia.c ****                 memcpy( src, camellia_test_cbc_plain[i], 16 );
 5302              		.loc 1 1026 0
 5303 02d8 D7F8E431 		ldr	r3, [r7, #484]
 5304 02dc 1B01     		lsls	r3, r3, #4
 5305 02de 2E4A     		ldr	r2, .L158+56
 5306 02e0 1344     		add	r3, r3, r2
 5307 02e2 07F5B274 		add	r4, r7, #356
 5308 02e6 1868     		ldr	r0, [r3]	@ unaligned
 5309 02e8 5968     		ldr	r1, [r3, #4]	@ unaligned
 5310 02ea 9A68     		ldr	r2, [r3, #8]	@ unaligned
 5311 02ec DB68     		ldr	r3, [r3, #12]	@ unaligned
 5312 02ee 0FC4     		stmia	r4!, {r0, r1, r2, r3}
1027:C:/Users/dtjld/workspace/AIoT/src/LiteOS_Lab/iot_link/network/dtls/mbedtls/mbedtls-2.16.2/library\camellia.c ****                 memcpy( dst, camellia_test_cbc_cipher[u][i], 16 );
 5313              		.loc 1 1027 0
 5314 02f0 D7F8DC21 		ldr	r2, [r7, #476]
 5315 02f4 1346     		mov	r3, r2
 5316 02f6 5B00     		lsls	r3, r3, #1
 5317 02f8 1344     		add	r3, r3, r2
 5318 02fa D7F8E421 		ldr	r2, [r7, #484]
 5319 02fe 1344     		add	r3, r3, r2
 5320 0300 1B01     		lsls	r3, r3, #4
 5321 0302 244A     		ldr	r2, .L158+52
 5322 0304 1344     		add	r3, r3, r2
 5323 0306 07F5AA74 		add	r4, r7, #340
 5324 030a 1868     		ldr	r0, [r3]	@ unaligned
 5325 030c 5968     		ldr	r1, [r3, #4]	@ unaligned
 5326 030e 9A68     		ldr	r2, [r3, #8]	@ unaligned
 5327 0310 DB68     		ldr	r3, [r3, #12]	@ unaligned
 5328 0312 0FC4     		stmia	r4!, {r0, r1, r2, r3}
 5329              	.L139:
1028:C:/Users/dtjld/workspace/AIoT/src/LiteOS_Lab/iot_link/network/dtls/mbedtls/mbedtls-2.16.2/library\camellia.c ****             }
ARM GAS  C:\Users\dtjld\AppData\Local\Temp\ccRGkA1L.s 			page 113


1029:C:/Users/dtjld/workspace/AIoT/src/LiteOS_Lab/iot_link/network/dtls/mbedtls/mbedtls-2.16.2/library\camellia.c **** 
1030:C:/Users/dtjld/workspace/AIoT/src/LiteOS_Lab/iot_link/network/dtls/mbedtls/mbedtls-2.16.2/library\camellia.c ****             mbedtls_camellia_crypt_cbc( &ctx, v, 16, iv, src, buf );
 5330              		.loc 1 1030 0
 5331 0314 07F5A272 		add	r2, r7, #324
 5332 0318 07F10C00 		add	r0, r7, #12
 5333 031c 07F5BA73 		add	r3, r7, #372
 5334 0320 0193     		str	r3, [sp, #4]
 5335 0322 07F5B273 		add	r3, r7, #356
 5336 0326 0093     		str	r3, [sp]
 5337 0328 1346     		mov	r3, r2
 5338 032a 1022     		movs	r2, #16
 5339 032c D7F8D811 		ldr	r1, [r7, #472]
 5340 0330 FFF7FEFF 		bl	mbedtls_camellia_crypt_cbc
1031:C:/Users/dtjld/workspace/AIoT/src/LiteOS_Lab/iot_link/network/dtls/mbedtls/mbedtls-2.16.2/library\camellia.c **** 
1032:C:/Users/dtjld/workspace/AIoT/src/LiteOS_Lab/iot_link/network/dtls/mbedtls/mbedtls-2.16.2/library\camellia.c ****             if( memcmp( buf, dst, 16 ) != 0 )
 5341              		.loc 1 1032 0
 5342 0334 07F5AA71 		add	r1, r7, #340
 5343 0338 07F5BA73 		add	r3, r7, #372
 5344 033c 1022     		movs	r2, #16
 5345 033e 1846     		mov	r0, r3
 5346 0340 FFF7FEFF 		bl	memcmp
 5347 0344 0346     		mov	r3, r0
 5348 0346 002B     		cmp	r3, #0
 5349 0348 28D0     		beq	.L140
1033:C:/Users/dtjld/workspace/AIoT/src/LiteOS_Lab/iot_link/network/dtls/mbedtls/mbedtls-2.16.2/library\camellia.c ****             {
1034:C:/Users/dtjld/workspace/AIoT/src/LiteOS_Lab/iot_link/network/dtls/mbedtls/mbedtls-2.16.2/library\camellia.c ****                 if( verbose != 0 )
 5350              		.loc 1 1034 0
 5351 034a 3B1D     		adds	r3, r7, #4
 5352 034c 1B68     		ldr	r3, [r3]
 5353 034e 002B     		cmp	r3, #0
 5354 0350 03D0     		beq	.L141
1035:C:/Users/dtjld/workspace/AIoT/src/LiteOS_Lab/iot_link/network/dtls/mbedtls/mbedtls-2.16.2/library\camellia.c ****                     mbedtls_printf( "failed\n" );
 5355              		.loc 1 1035 0
 5356 0352 034B     		ldr	r3, .L158
 5357 0354 1B68     		ldr	r3, [r3]
 5358 0356 0948     		ldr	r0, .L158+28
 5359 0358 9847     		blx	r3
 5360              	.LVL5:
 5361              	.L141:
1036:C:/Users/dtjld/workspace/AIoT/src/LiteOS_Lab/iot_link/network/dtls/mbedtls/mbedtls-2.16.2/library\camellia.c **** 
1037:C:/Users/dtjld/workspace/AIoT/src/LiteOS_Lab/iot_link/network/dtls/mbedtls/mbedtls-2.16.2/library\camellia.c ****                 return( 1 );
 5362              		.loc 1 1037 0
 5363 035a 0123     		movs	r3, #1
 5364 035c 2EE1     		b	.L157
 5365              	.L159:
 5366 035e 00BF     		.align	2
 5367              	.L158:
 5368 0360 00000000 		.word	mbedtls_printf
 5369 0364 00000000 		.word	.LC0
 5370 0368 04000000 		.word	.LC1
 5371 036c 08000000 		.word	.LC2
 5372 0370 00000000 		.word	camellia_test_ecb_key
 5373 0374 00000000 		.word	camellia_test_ecb_cipher
 5374 0378 00000000 		.word	camellia_test_ecb_plain
 5375 037c 24000000 		.word	.LC3
 5376 0380 2C000000 		.word	.LC4
 5377 0384 34000000 		.word	.LC5
ARM GAS  C:\Users\dtjld\AppData\Local\Temp\ccRGkA1L.s 			page 114


 5378 0388 38000000 		.word	.LC6
 5379 038c 00000000 		.word	camellia_test_cbc_iv
 5380 0390 00000000 		.word	camellia_test_cbc_key
 5381 0394 00000000 		.word	camellia_test_cbc_cipher
 5382 0398 00000000 		.word	camellia_test_cbc_plain
 5383              	.L140:
1018:C:/Users/dtjld/workspace/AIoT/src/LiteOS_Lab/iot_link/network/dtls/mbedtls/mbedtls-2.16.2/library\camellia.c **** 
 5384              		.loc 1 1018 0 discriminator 2
 5385 039c D7F8E431 		ldr	r3, [r7, #484]
 5386 03a0 0133     		adds	r3, r3, #1
 5387 03a2 C7F8E431 		str	r3, [r7, #484]
 5388              	.L137:
1018:C:/Users/dtjld/workspace/AIoT/src/LiteOS_Lab/iot_link/network/dtls/mbedtls/mbedtls-2.16.2/library\camellia.c **** 
 5389              		.loc 1 1018 0 is_stmt 0 discriminator 1
 5390 03a6 D7F8E431 		ldr	r3, [r7, #484]
 5391 03aa 022B     		cmp	r3, #2
 5392 03ac 7FF763AF 		ble	.L142
1038:C:/Users/dtjld/workspace/AIoT/src/LiteOS_Lab/iot_link/network/dtls/mbedtls/mbedtls-2.16.2/library\camellia.c ****             }
1039:C:/Users/dtjld/workspace/AIoT/src/LiteOS_Lab/iot_link/network/dtls/mbedtls/mbedtls-2.16.2/library\camellia.c ****         }
1040:C:/Users/dtjld/workspace/AIoT/src/LiteOS_Lab/iot_link/network/dtls/mbedtls/mbedtls-2.16.2/library\camellia.c **** 
1041:C:/Users/dtjld/workspace/AIoT/src/LiteOS_Lab/iot_link/network/dtls/mbedtls/mbedtls-2.16.2/library\camellia.c ****         if( verbose != 0 )
 5393              		.loc 1 1041 0 is_stmt 1
 5394 03b0 3B1D     		adds	r3, r7, #4
 5395 03b2 1B68     		ldr	r3, [r3]
 5396 03b4 002B     		cmp	r3, #0
 5397 03b6 03D0     		beq	.L143
1042:C:/Users/dtjld/workspace/AIoT/src/LiteOS_Lab/iot_link/network/dtls/mbedtls/mbedtls-2.16.2/library\camellia.c ****             mbedtls_printf( "passed\n" );
 5398              		.loc 1 1042 0
 5399 03b8 834B     		ldr	r3, .L160
 5400 03ba 1B68     		ldr	r3, [r3]
 5401 03bc 8348     		ldr	r0, .L160+4
 5402 03be 9847     		blx	r3
 5403              	.LVL6:
 5404              	.L143:
 999:C:/Users/dtjld/workspace/AIoT/src/LiteOS_Lab/iot_link/network/dtls/mbedtls/mbedtls-2.16.2/library\camellia.c ****     {
 5405              		.loc 1 999 0 discriminator 2
 5406 03c0 D7F8E031 		ldr	r3, [r7, #480]
 5407 03c4 0133     		adds	r3, r3, #1
 5408 03c6 C7F8E031 		str	r3, [r7, #480]
 5409              	.L131:
 999:C:/Users/dtjld/workspace/AIoT/src/LiteOS_Lab/iot_link/network/dtls/mbedtls/mbedtls-2.16.2/library\camellia.c ****     {
 5410              		.loc 1 999 0 is_stmt 0 discriminator 1
 5411 03ca D7F8E031 		ldr	r3, [r7, #480]
 5412 03ce 052B     		cmp	r3, #5
 5413 03d0 7FF7F7AE 		ble	.L144
1043:C:/Users/dtjld/workspace/AIoT/src/LiteOS_Lab/iot_link/network/dtls/mbedtls/mbedtls-2.16.2/library\camellia.c ****     }
1044:C:/Users/dtjld/workspace/AIoT/src/LiteOS_Lab/iot_link/network/dtls/mbedtls/mbedtls-2.16.2/library\camellia.c **** #endif /* MBEDTLS_CIPHER_MODE_CBC */
1045:C:/Users/dtjld/workspace/AIoT/src/LiteOS_Lab/iot_link/network/dtls/mbedtls/mbedtls-2.16.2/library\camellia.c **** 
1046:C:/Users/dtjld/workspace/AIoT/src/LiteOS_Lab/iot_link/network/dtls/mbedtls/mbedtls-2.16.2/library\camellia.c ****     if( verbose != 0 )
 5414              		.loc 1 1046 0 is_stmt 1
 5415 03d4 3B1D     		adds	r3, r7, #4
 5416 03d6 1B68     		ldr	r3, [r3]
 5417 03d8 002B     		cmp	r3, #0
 5418 03da 03D0     		beq	.L145
1047:C:/Users/dtjld/workspace/AIoT/src/LiteOS_Lab/iot_link/network/dtls/mbedtls/mbedtls-2.16.2/library\camellia.c ****         mbedtls_printf( "\n" );
 5419              		.loc 1 1047 0
 5420 03dc 7A4B     		ldr	r3, .L160
ARM GAS  C:\Users\dtjld\AppData\Local\Temp\ccRGkA1L.s 			page 115


 5421 03de 1B68     		ldr	r3, [r3]
 5422 03e0 7B48     		ldr	r0, .L160+8
 5423 03e2 9847     		blx	r3
 5424              	.LVL7:
 5425              	.L145:
1048:C:/Users/dtjld/workspace/AIoT/src/LiteOS_Lab/iot_link/network/dtls/mbedtls/mbedtls-2.16.2/library\camellia.c **** 
1049:C:/Users/dtjld/workspace/AIoT/src/LiteOS_Lab/iot_link/network/dtls/mbedtls/mbedtls-2.16.2/library\camellia.c **** #if defined(MBEDTLS_CIPHER_MODE_CTR)
1050:C:/Users/dtjld/workspace/AIoT/src/LiteOS_Lab/iot_link/network/dtls/mbedtls/mbedtls-2.16.2/library\camellia.c ****     /*
1051:C:/Users/dtjld/workspace/AIoT/src/LiteOS_Lab/iot_link/network/dtls/mbedtls/mbedtls-2.16.2/library\camellia.c ****      * CTR mode
1052:C:/Users/dtjld/workspace/AIoT/src/LiteOS_Lab/iot_link/network/dtls/mbedtls/mbedtls-2.16.2/library\camellia.c ****      */
1053:C:/Users/dtjld/workspace/AIoT/src/LiteOS_Lab/iot_link/network/dtls/mbedtls/mbedtls-2.16.2/library\camellia.c ****     for( i = 0; i < 6; i++ )
 5426              		.loc 1 1053 0
 5427 03e4 0023     		movs	r3, #0
 5428 03e6 C7F8E431 		str	r3, [r7, #484]
 5429 03ea D9E0     		b	.L146
 5430              	.L155:
1054:C:/Users/dtjld/workspace/AIoT/src/LiteOS_Lab/iot_link/network/dtls/mbedtls/mbedtls-2.16.2/library\camellia.c ****     {
1055:C:/Users/dtjld/workspace/AIoT/src/LiteOS_Lab/iot_link/network/dtls/mbedtls/mbedtls-2.16.2/library\camellia.c ****         u = i >> 1;
 5431              		.loc 1 1055 0
 5432 03ec D7F8E431 		ldr	r3, [r7, #484]
 5433 03f0 5B10     		asrs	r3, r3, #1
 5434 03f2 C7F8DC31 		str	r3, [r7, #476]
1056:C:/Users/dtjld/workspace/AIoT/src/LiteOS_Lab/iot_link/network/dtls/mbedtls/mbedtls-2.16.2/library\camellia.c ****         v = i  & 1;
 5435              		.loc 1 1056 0
 5436 03f6 D7F8E431 		ldr	r3, [r7, #484]
 5437 03fa 03F00103 		and	r3, r3, #1
 5438 03fe C7F8D831 		str	r3, [r7, #472]
1057:C:/Users/dtjld/workspace/AIoT/src/LiteOS_Lab/iot_link/network/dtls/mbedtls/mbedtls-2.16.2/library\camellia.c **** 
1058:C:/Users/dtjld/workspace/AIoT/src/LiteOS_Lab/iot_link/network/dtls/mbedtls/mbedtls-2.16.2/library\camellia.c ****         if( verbose != 0 )
 5439              		.loc 1 1058 0
 5440 0402 3B1D     		adds	r3, r7, #4
 5441 0404 1B68     		ldr	r3, [r3]
 5442 0406 002B     		cmp	r3, #0
 5443 0408 0BD0     		beq	.L147
1059:C:/Users/dtjld/workspace/AIoT/src/LiteOS_Lab/iot_link/network/dtls/mbedtls/mbedtls-2.16.2/library\camellia.c ****             mbedtls_printf( "  CAMELLIA-CTR-128 (%s): ",
 5444              		.loc 1 1059 0
 5445 040a 6F4B     		ldr	r3, .L160
 5446 040c 1B68     		ldr	r3, [r3]
 5447 040e D7F8D821 		ldr	r2, [r7, #472]
 5448 0412 002A     		cmp	r2, #0
 5449 0414 01D1     		bne	.L148
 5450              		.loc 1 1059 0 is_stmt 0 discriminator 1
 5451 0416 6F4A     		ldr	r2, .L160+12
 5452 0418 00E0     		b	.L149
 5453              	.L148:
 5454              		.loc 1 1059 0 discriminator 2
 5455 041a 6F4A     		ldr	r2, .L160+16
 5456              	.L149:
 5457              		.loc 1 1059 0 discriminator 4
 5458 041c 1146     		mov	r1, r2
 5459 041e 6F48     		ldr	r0, .L160+20
 5460 0420 9847     		blx	r3
 5461              	.LVL8:
 5462              	.L147:
1060:C:/Users/dtjld/workspace/AIoT/src/LiteOS_Lab/iot_link/network/dtls/mbedtls/mbedtls-2.16.2/library\camellia.c ****                              ( v == MBEDTLS_CAMELLIA_DECRYPT ) ? "dec" : "enc" );
1061:C:/Users/dtjld/workspace/AIoT/src/LiteOS_Lab/iot_link/network/dtls/mbedtls/mbedtls-2.16.2/library\camellia.c **** 
1062:C:/Users/dtjld/workspace/AIoT/src/LiteOS_Lab/iot_link/network/dtls/mbedtls/mbedtls-2.16.2/library\camellia.c ****         memcpy( nonce_counter, camellia_test_ctr_nonce_counter[u], 16 );
ARM GAS  C:\Users\dtjld\AppData\Local\Temp\ccRGkA1L.s 			page 116


 5463              		.loc 1 1062 0 is_stmt 1
 5464 0422 D7F8DC31 		ldr	r3, [r7, #476]
 5465 0426 1B01     		lsls	r3, r3, #4
 5466 0428 6D4A     		ldr	r2, .L160+24
 5467 042a 1344     		add	r3, r3, r2
 5468 042c 07F59874 		add	r4, r7, #304
 5469 0430 1868     		ldr	r0, [r3]	@ unaligned
 5470 0432 5968     		ldr	r1, [r3, #4]	@ unaligned
 5471 0434 9A68     		ldr	r2, [r3, #8]	@ unaligned
 5472 0436 DB68     		ldr	r3, [r3, #12]	@ unaligned
 5473 0438 0FC4     		stmia	r4!, {r0, r1, r2, r3}
1063:C:/Users/dtjld/workspace/AIoT/src/LiteOS_Lab/iot_link/network/dtls/mbedtls/mbedtls-2.16.2/library\camellia.c ****         memcpy( key, camellia_test_ctr_key[u], 16 );
 5474              		.loc 1 1063 0
 5475 043a D7F8DC31 		ldr	r3, [r7, #476]
 5476 043e 1B01     		lsls	r3, r3, #4
 5477 0440 684A     		ldr	r2, .L160+28
 5478 0442 9918     		adds	r1, r3, r2
 5479 0444 07F5DA73 		add	r3, r7, #436
 5480 0448 1022     		movs	r2, #16
 5481 044a 1846     		mov	r0, r3
 5482 044c FFF7FEFF 		bl	memcpy
1064:C:/Users/dtjld/workspace/AIoT/src/LiteOS_Lab/iot_link/network/dtls/mbedtls/mbedtls-2.16.2/library\camellia.c **** 
1065:C:/Users/dtjld/workspace/AIoT/src/LiteOS_Lab/iot_link/network/dtls/mbedtls/mbedtls-2.16.2/library\camellia.c ****         offset = 0;
 5483              		.loc 1 1065 0
 5484 0450 0023     		movs	r3, #0
 5485 0452 C7F84031 		str	r3, [r7, #320]
1066:C:/Users/dtjld/workspace/AIoT/src/LiteOS_Lab/iot_link/network/dtls/mbedtls/mbedtls-2.16.2/library\camellia.c ****         mbedtls_camellia_setkey_enc( &ctx, key, 128 );
 5486              		.loc 1 1066 0
 5487 0456 07F5DA71 		add	r1, r7, #436
 5488 045a 07F10C03 		add	r3, r7, #12
 5489 045e 8022     		movs	r2, #128
 5490 0460 1846     		mov	r0, r3
 5491 0462 FFF7FEFF 		bl	mbedtls_camellia_setkey_enc
1067:C:/Users/dtjld/workspace/AIoT/src/LiteOS_Lab/iot_link/network/dtls/mbedtls/mbedtls-2.16.2/library\camellia.c **** 
1068:C:/Users/dtjld/workspace/AIoT/src/LiteOS_Lab/iot_link/network/dtls/mbedtls/mbedtls-2.16.2/library\camellia.c ****         if( v == MBEDTLS_CAMELLIA_DECRYPT )
 5492              		.loc 1 1068 0
 5493 0466 D7F8D831 		ldr	r3, [r7, #472]
 5494 046a 002B     		cmp	r3, #0
 5495 046c 45D1     		bne	.L150
1069:C:/Users/dtjld/workspace/AIoT/src/LiteOS_Lab/iot_link/network/dtls/mbedtls/mbedtls-2.16.2/library\camellia.c ****         {
1070:C:/Users/dtjld/workspace/AIoT/src/LiteOS_Lab/iot_link/network/dtls/mbedtls/mbedtls-2.16.2/library\camellia.c ****             len = camellia_test_ctr_len[u];
 5496              		.loc 1 1070 0
 5497 046e 5E4A     		ldr	r2, .L160+32
 5498 0470 D7F8DC31 		ldr	r3, [r7, #476]
 5499 0474 52F82330 		ldr	r3, [r2, r3, lsl #2]
 5500 0478 C7F8D431 		str	r3, [r7, #468]
1071:C:/Users/dtjld/workspace/AIoT/src/LiteOS_Lab/iot_link/network/dtls/mbedtls/mbedtls-2.16.2/library\camellia.c ****             memcpy( buf, camellia_test_ctr_ct[u], len );
 5501              		.loc 1 1071 0
 5502 047c D7F8DC21 		ldr	r2, [r7, #476]
 5503 0480 1346     		mov	r3, r2
 5504 0482 5B00     		lsls	r3, r3, #1
 5505 0484 1344     		add	r3, r3, r2
 5506 0486 1B01     		lsls	r3, r3, #4
 5507 0488 584A     		ldr	r2, .L160+36
 5508 048a 9918     		adds	r1, r3, r2
 5509 048c 07F5BA73 		add	r3, r7, #372
 5510 0490 D7F8D421 		ldr	r2, [r7, #468]
ARM GAS  C:\Users\dtjld\AppData\Local\Temp\ccRGkA1L.s 			page 117


 5511 0494 1846     		mov	r0, r3
 5512 0496 FFF7FEFF 		bl	memcpy
1072:C:/Users/dtjld/workspace/AIoT/src/LiteOS_Lab/iot_link/network/dtls/mbedtls/mbedtls-2.16.2/library\camellia.c **** 
1073:C:/Users/dtjld/workspace/AIoT/src/LiteOS_Lab/iot_link/network/dtls/mbedtls/mbedtls-2.16.2/library\camellia.c ****             mbedtls_camellia_crypt_ctr( &ctx, len, &offset, nonce_counter, stream_block,
 5513              		.loc 1 1073 0
 5514 049a 07F59871 		add	r1, r7, #304
 5515 049e 07F5A072 		add	r2, r7, #320
 5516 04a2 07F10C00 		add	r0, r7, #12
 5517 04a6 07F5BA73 		add	r3, r7, #372
 5518 04aa 0293     		str	r3, [sp, #8]
 5519 04ac 07F5BA73 		add	r3, r7, #372
 5520 04b0 0193     		str	r3, [sp, #4]
 5521 04b2 07F59073 		add	r3, r7, #288
 5522 04b6 0093     		str	r3, [sp]
 5523 04b8 0B46     		mov	r3, r1
 5524 04ba D7F8D411 		ldr	r1, [r7, #468]
 5525 04be FFF7FEFF 		bl	mbedtls_camellia_crypt_ctr
1074:C:/Users/dtjld/workspace/AIoT/src/LiteOS_Lab/iot_link/network/dtls/mbedtls/mbedtls-2.16.2/library\camellia.c ****                                 buf, buf );
1075:C:/Users/dtjld/workspace/AIoT/src/LiteOS_Lab/iot_link/network/dtls/mbedtls/mbedtls-2.16.2/library\camellia.c **** 
1076:C:/Users/dtjld/workspace/AIoT/src/LiteOS_Lab/iot_link/network/dtls/mbedtls/mbedtls-2.16.2/library\camellia.c ****             if( memcmp( buf, camellia_test_ctr_pt[u], len ) != 0 )
 5526              		.loc 1 1076 0
 5527 04c2 D7F8DC21 		ldr	r2, [r7, #476]
 5528 04c6 1346     		mov	r3, r2
 5529 04c8 5B00     		lsls	r3, r3, #1
 5530 04ca 1344     		add	r3, r3, r2
 5531 04cc 1B01     		lsls	r3, r3, #4
 5532 04ce 484A     		ldr	r2, .L160+40
 5533 04d0 9918     		adds	r1, r3, r2
 5534 04d2 07F5BA73 		add	r3, r7, #372
 5535 04d6 D7F8D421 		ldr	r2, [r7, #468]
 5536 04da 1846     		mov	r0, r3
 5537 04dc FFF7FEFF 		bl	memcmp
 5538 04e0 0346     		mov	r3, r0
 5539 04e2 002B     		cmp	r3, #0
 5540 04e4 4FD0     		beq	.L151
1077:C:/Users/dtjld/workspace/AIoT/src/LiteOS_Lab/iot_link/network/dtls/mbedtls/mbedtls-2.16.2/library\camellia.c ****             {
1078:C:/Users/dtjld/workspace/AIoT/src/LiteOS_Lab/iot_link/network/dtls/mbedtls/mbedtls-2.16.2/library\camellia.c ****                 if( verbose != 0 )
 5541              		.loc 1 1078 0
 5542 04e6 3B1D     		adds	r3, r7, #4
 5543 04e8 1B68     		ldr	r3, [r3]
 5544 04ea 002B     		cmp	r3, #0
 5545 04ec 03D0     		beq	.L152
1079:C:/Users/dtjld/workspace/AIoT/src/LiteOS_Lab/iot_link/network/dtls/mbedtls/mbedtls-2.16.2/library\camellia.c ****                     mbedtls_printf( "failed\n" );
 5546              		.loc 1 1079 0
 5547 04ee 364B     		ldr	r3, .L160
 5548 04f0 1B68     		ldr	r3, [r3]
 5549 04f2 4048     		ldr	r0, .L160+44
 5550 04f4 9847     		blx	r3
 5551              	.LVL9:
 5552              	.L152:
1080:C:/Users/dtjld/workspace/AIoT/src/LiteOS_Lab/iot_link/network/dtls/mbedtls/mbedtls-2.16.2/library\camellia.c **** 
1081:C:/Users/dtjld/workspace/AIoT/src/LiteOS_Lab/iot_link/network/dtls/mbedtls/mbedtls-2.16.2/library\camellia.c ****                 return( 1 );
 5553              		.loc 1 1081 0
 5554 04f6 0123     		movs	r3, #1
 5555 04f8 60E0     		b	.L157
 5556              	.L150:
1082:C:/Users/dtjld/workspace/AIoT/src/LiteOS_Lab/iot_link/network/dtls/mbedtls/mbedtls-2.16.2/library\camellia.c ****             }
ARM GAS  C:\Users\dtjld\AppData\Local\Temp\ccRGkA1L.s 			page 118


1083:C:/Users/dtjld/workspace/AIoT/src/LiteOS_Lab/iot_link/network/dtls/mbedtls/mbedtls-2.16.2/library\camellia.c ****         }
1084:C:/Users/dtjld/workspace/AIoT/src/LiteOS_Lab/iot_link/network/dtls/mbedtls/mbedtls-2.16.2/library\camellia.c ****         else
1085:C:/Users/dtjld/workspace/AIoT/src/LiteOS_Lab/iot_link/network/dtls/mbedtls/mbedtls-2.16.2/library\camellia.c ****         {
1086:C:/Users/dtjld/workspace/AIoT/src/LiteOS_Lab/iot_link/network/dtls/mbedtls/mbedtls-2.16.2/library\camellia.c ****             len = camellia_test_ctr_len[u];
 5557              		.loc 1 1086 0
 5558 04fa 3B4A     		ldr	r2, .L160+32
 5559 04fc D7F8DC31 		ldr	r3, [r7, #476]
 5560 0500 52F82330 		ldr	r3, [r2, r3, lsl #2]
 5561 0504 C7F8D431 		str	r3, [r7, #468]
1087:C:/Users/dtjld/workspace/AIoT/src/LiteOS_Lab/iot_link/network/dtls/mbedtls/mbedtls-2.16.2/library\camellia.c ****             memcpy( buf, camellia_test_ctr_pt[u], len );
 5562              		.loc 1 1087 0
 5563 0508 D7F8DC21 		ldr	r2, [r7, #476]
 5564 050c 1346     		mov	r3, r2
 5565 050e 5B00     		lsls	r3, r3, #1
 5566 0510 1344     		add	r3, r3, r2
 5567 0512 1B01     		lsls	r3, r3, #4
 5568 0514 364A     		ldr	r2, .L160+40
 5569 0516 9918     		adds	r1, r3, r2
 5570 0518 07F5BA73 		add	r3, r7, #372
 5571 051c D7F8D421 		ldr	r2, [r7, #468]
 5572 0520 1846     		mov	r0, r3
 5573 0522 FFF7FEFF 		bl	memcpy
1088:C:/Users/dtjld/workspace/AIoT/src/LiteOS_Lab/iot_link/network/dtls/mbedtls/mbedtls-2.16.2/library\camellia.c **** 
1089:C:/Users/dtjld/workspace/AIoT/src/LiteOS_Lab/iot_link/network/dtls/mbedtls/mbedtls-2.16.2/library\camellia.c ****             mbedtls_camellia_crypt_ctr( &ctx, len, &offset, nonce_counter, stream_block,
 5574              		.loc 1 1089 0
 5575 0526 07F59871 		add	r1, r7, #304
 5576 052a 07F5A072 		add	r2, r7, #320
 5577 052e 07F10C00 		add	r0, r7, #12
 5578 0532 07F5BA73 		add	r3, r7, #372
 5579 0536 0293     		str	r3, [sp, #8]
 5580 0538 07F5BA73 		add	r3, r7, #372
 5581 053c 0193     		str	r3, [sp, #4]
 5582 053e 07F59073 		add	r3, r7, #288
 5583 0542 0093     		str	r3, [sp]
 5584 0544 0B46     		mov	r3, r1
 5585 0546 D7F8D411 		ldr	r1, [r7, #468]
 5586 054a FFF7FEFF 		bl	mbedtls_camellia_crypt_ctr
1090:C:/Users/dtjld/workspace/AIoT/src/LiteOS_Lab/iot_link/network/dtls/mbedtls/mbedtls-2.16.2/library\camellia.c ****                                 buf, buf );
1091:C:/Users/dtjld/workspace/AIoT/src/LiteOS_Lab/iot_link/network/dtls/mbedtls/mbedtls-2.16.2/library\camellia.c **** 
1092:C:/Users/dtjld/workspace/AIoT/src/LiteOS_Lab/iot_link/network/dtls/mbedtls/mbedtls-2.16.2/library\camellia.c ****             if( memcmp( buf, camellia_test_ctr_ct[u], len ) != 0 )
 5587              		.loc 1 1092 0
 5588 054e D7F8DC21 		ldr	r2, [r7, #476]
 5589 0552 1346     		mov	r3, r2
 5590 0554 5B00     		lsls	r3, r3, #1
 5591 0556 1344     		add	r3, r3, r2
 5592 0558 1B01     		lsls	r3, r3, #4
 5593 055a 244A     		ldr	r2, .L160+36
 5594 055c 9918     		adds	r1, r3, r2
 5595 055e 07F5BA73 		add	r3, r7, #372
 5596 0562 D7F8D421 		ldr	r2, [r7, #468]
 5597 0566 1846     		mov	r0, r3
 5598 0568 FFF7FEFF 		bl	memcmp
 5599 056c 0346     		mov	r3, r0
 5600 056e 002B     		cmp	r3, #0
 5601 0570 09D0     		beq	.L151
1093:C:/Users/dtjld/workspace/AIoT/src/LiteOS_Lab/iot_link/network/dtls/mbedtls/mbedtls-2.16.2/library\camellia.c ****             {
1094:C:/Users/dtjld/workspace/AIoT/src/LiteOS_Lab/iot_link/network/dtls/mbedtls/mbedtls-2.16.2/library\camellia.c ****                 if( verbose != 0 )
ARM GAS  C:\Users\dtjld\AppData\Local\Temp\ccRGkA1L.s 			page 119


 5602              		.loc 1 1094 0
 5603 0572 3B1D     		adds	r3, r7, #4
 5604 0574 1B68     		ldr	r3, [r3]
 5605 0576 002B     		cmp	r3, #0
 5606 0578 03D0     		beq	.L153
1095:C:/Users/dtjld/workspace/AIoT/src/LiteOS_Lab/iot_link/network/dtls/mbedtls/mbedtls-2.16.2/library\camellia.c ****                     mbedtls_printf( "failed\n" );
 5607              		.loc 1 1095 0
 5608 057a 134B     		ldr	r3, .L160
 5609 057c 1B68     		ldr	r3, [r3]
 5610 057e 1D48     		ldr	r0, .L160+44
 5611 0580 9847     		blx	r3
 5612              	.LVL10:
 5613              	.L153:
1096:C:/Users/dtjld/workspace/AIoT/src/LiteOS_Lab/iot_link/network/dtls/mbedtls/mbedtls-2.16.2/library\camellia.c **** 
1097:C:/Users/dtjld/workspace/AIoT/src/LiteOS_Lab/iot_link/network/dtls/mbedtls/mbedtls-2.16.2/library\camellia.c ****                 return( 1 );
 5614              		.loc 1 1097 0
 5615 0582 0123     		movs	r3, #1
 5616 0584 1AE0     		b	.L157
 5617              	.L151:
1098:C:/Users/dtjld/workspace/AIoT/src/LiteOS_Lab/iot_link/network/dtls/mbedtls/mbedtls-2.16.2/library\camellia.c ****             }
1099:C:/Users/dtjld/workspace/AIoT/src/LiteOS_Lab/iot_link/network/dtls/mbedtls/mbedtls-2.16.2/library\camellia.c ****         }
1100:C:/Users/dtjld/workspace/AIoT/src/LiteOS_Lab/iot_link/network/dtls/mbedtls/mbedtls-2.16.2/library\camellia.c **** 
1101:C:/Users/dtjld/workspace/AIoT/src/LiteOS_Lab/iot_link/network/dtls/mbedtls/mbedtls-2.16.2/library\camellia.c ****         if( verbose != 0 )
 5618              		.loc 1 1101 0
 5619 0586 3B1D     		adds	r3, r7, #4
 5620 0588 1B68     		ldr	r3, [r3]
 5621 058a 002B     		cmp	r3, #0
 5622 058c 03D0     		beq	.L154
1102:C:/Users/dtjld/workspace/AIoT/src/LiteOS_Lab/iot_link/network/dtls/mbedtls/mbedtls-2.16.2/library\camellia.c ****             mbedtls_printf( "passed\n" );
 5623              		.loc 1 1102 0
 5624 058e 0E4B     		ldr	r3, .L160
 5625 0590 1B68     		ldr	r3, [r3]
 5626 0592 0E48     		ldr	r0, .L160+4
 5627 0594 9847     		blx	r3
 5628              	.LVL11:
 5629              	.L154:
1053:C:/Users/dtjld/workspace/AIoT/src/LiteOS_Lab/iot_link/network/dtls/mbedtls/mbedtls-2.16.2/library\camellia.c ****     {
 5630              		.loc 1 1053 0 discriminator 2
 5631 0596 D7F8E431 		ldr	r3, [r7, #484]
 5632 059a 0133     		adds	r3, r3, #1
 5633 059c C7F8E431 		str	r3, [r7, #484]
 5634              	.L146:
1053:C:/Users/dtjld/workspace/AIoT/src/LiteOS_Lab/iot_link/network/dtls/mbedtls/mbedtls-2.16.2/library\camellia.c ****     {
 5635              		.loc 1 1053 0 is_stmt 0 discriminator 1
 5636 05a0 D7F8E431 		ldr	r3, [r7, #484]
 5637 05a4 052B     		cmp	r3, #5
 5638 05a6 7FF721AF 		ble	.L155
1103:C:/Users/dtjld/workspace/AIoT/src/LiteOS_Lab/iot_link/network/dtls/mbedtls/mbedtls-2.16.2/library\camellia.c ****     }
1104:C:/Users/dtjld/workspace/AIoT/src/LiteOS_Lab/iot_link/network/dtls/mbedtls/mbedtls-2.16.2/library\camellia.c **** 
1105:C:/Users/dtjld/workspace/AIoT/src/LiteOS_Lab/iot_link/network/dtls/mbedtls/mbedtls-2.16.2/library\camellia.c ****     if( verbose != 0 )
 5639              		.loc 1 1105 0 is_stmt 1
 5640 05aa 3B1D     		adds	r3, r7, #4
 5641 05ac 1B68     		ldr	r3, [r3]
 5642 05ae 002B     		cmp	r3, #0
 5643 05b0 03D0     		beq	.L156
1106:C:/Users/dtjld/workspace/AIoT/src/LiteOS_Lab/iot_link/network/dtls/mbedtls/mbedtls-2.16.2/library\camellia.c ****         mbedtls_printf( "\n" );
 5644              		.loc 1 1106 0
ARM GAS  C:\Users\dtjld\AppData\Local\Temp\ccRGkA1L.s 			page 120


 5645 05b2 054B     		ldr	r3, .L160
 5646 05b4 1B68     		ldr	r3, [r3]
 5647 05b6 0648     		ldr	r0, .L160+8
 5648 05b8 9847     		blx	r3
 5649              	.LVL12:
 5650              	.L156:
1107:C:/Users/dtjld/workspace/AIoT/src/LiteOS_Lab/iot_link/network/dtls/mbedtls/mbedtls-2.16.2/library\camellia.c **** #endif /* MBEDTLS_CIPHER_MODE_CTR */
1108:C:/Users/dtjld/workspace/AIoT/src/LiteOS_Lab/iot_link/network/dtls/mbedtls/mbedtls-2.16.2/library\camellia.c **** 
1109:C:/Users/dtjld/workspace/AIoT/src/LiteOS_Lab/iot_link/network/dtls/mbedtls/mbedtls-2.16.2/library\camellia.c ****     return( 0 );
 5651              		.loc 1 1109 0
 5652 05ba 0023     		movs	r3, #0
 5653              	.L157:
1110:C:/Users/dtjld/workspace/AIoT/src/LiteOS_Lab/iot_link/network/dtls/mbedtls/mbedtls-2.16.2/library\camellia.c **** }
 5654              		.loc 1 1110 0 discriminator 1
 5655 05bc 1846     		mov	r0, r3
 5656 05be 07F5F677 		add	r7, r7, #492
 5657              	.LCFI49:
 5658              		.cfi_def_cfa_offset 12
 5659 05c2 BD46     		mov	sp, r7
 5660              	.LCFI50:
 5661              		.cfi_def_cfa_register 13
 5662              		@ sp needed
 5663 05c4 90BD     		pop	{r4, r7, pc}
 5664              	.L161:
 5665 05c6 00BF     		.align	2
 5666              	.L160:
 5667 05c8 00000000 		.word	mbedtls_printf
 5668 05cc 2C000000 		.word	.LC4
 5669 05d0 34000000 		.word	.LC5
 5670 05d4 00000000 		.word	.LC0
 5671 05d8 04000000 		.word	.LC1
 5672 05dc 54000000 		.word	.LC7
 5673 05e0 00000000 		.word	camellia_test_ctr_nonce_counter
 5674 05e4 00000000 		.word	camellia_test_ctr_key
 5675 05e8 00000000 		.word	camellia_test_ctr_len
 5676 05ec 00000000 		.word	camellia_test_ctr_ct
 5677 05f0 00000000 		.word	camellia_test_ctr_pt
 5678 05f4 24000000 		.word	.LC3
 5679              		.cfi_endproc
 5680              	.LFE12:
 5682              		.text
 5683              	.Letext0:
 5684              		.file 2 "c:\\ac6\\systemworkbench\\plugins\\fr.ac6.mcu.externaltools.arm-none.win32_1.16.0.2018071
 5685              		.file 3 "c:\\ac6\\systemworkbench\\plugins\\fr.ac6.mcu.externaltools.arm-none.win32_1.16.0.2018071
 5686              		.file 4 "c:\\ac6\\systemworkbench\\plugins\\fr.ac6.mcu.externaltools.arm-none.win32_1.16.0.2018071
 5687              		.file 5 "C:/Users/dtjld/workspace/AIoT/src/LiteOS_Lab/iot_link/network/dtls/mbedtls/mbedtls-2.16.2
 5688              		.file 6 "c:\\ac6\\systemworkbench\\plugins\\fr.ac6.mcu.externaltools.arm-none.win32_1.16.0.2018071
 5689              		.file 7 "c:\\ac6\\systemworkbench\\plugins\\fr.ac6.mcu.externaltools.arm-none.win32_1.16.0.2018071
 5690              		.file 8 "c:\\ac6\\systemworkbench\\plugins\\fr.ac6.mcu.externaltools.arm-none.win32_1.16.0.2018071
 5691              		.file 9 "c:\\ac6\\systemworkbench\\plugins\\fr.ac6.mcu.externaltools.arm-none.win32_1.16.0.2018071
 5692              		.file 10 "c:\\ac6\\systemworkbench\\plugins\\fr.ac6.mcu.externaltools.arm-none.win32_1.16.0.201807
 5693              		.file 11 "C:/Users/dtjld/workspace/AIoT/src/LiteOS_Lab/iot_link/network/dtls/mbedtls/mbedtls-2.16.
ARM GAS  C:\Users\dtjld\AppData\Local\Temp\ccRGkA1L.s 			page 121


DEFINED SYMBOLS
                            *ABS*:00000000 camellia.c
C:\Users\dtjld\AppData\Local\Temp\ccRGkA1L.s:18     .rodata.SIGMA_CHARS:00000000 $d
C:\Users\dtjld\AppData\Local\Temp\ccRGkA1L.s:21     .rodata.SIGMA_CHARS:00000000 SIGMA_CHARS
C:\Users\dtjld\AppData\Local\Temp\ccRGkA1L.s:71     .rodata.FSb:00000000 $d
C:\Users\dtjld\AppData\Local\Temp\ccRGkA1L.s:74     .rodata.FSb:00000000 FSb
C:\Users\dtjld\AppData\Local\Temp\ccRGkA1L.s:332    .rodata.FSb2:00000000 $d
C:\Users\dtjld\AppData\Local\Temp\ccRGkA1L.s:335    .rodata.FSb2:00000000 FSb2
C:\Users\dtjld\AppData\Local\Temp\ccRGkA1L.s:593    .rodata.FSb3:00000000 $d
C:\Users\dtjld\AppData\Local\Temp\ccRGkA1L.s:596    .rodata.FSb3:00000000 FSb3
C:\Users\dtjld\AppData\Local\Temp\ccRGkA1L.s:854    .rodata.FSb4:00000000 $d
C:\Users\dtjld\AppData\Local\Temp\ccRGkA1L.s:857    .rodata.FSb4:00000000 FSb4
C:\Users\dtjld\AppData\Local\Temp\ccRGkA1L.s:1115   .rodata.shifts:00000000 $d
C:\Users\dtjld\AppData\Local\Temp\ccRGkA1L.s:1118   .rodata.shifts:00000000 shifts
C:\Users\dtjld\AppData\Local\Temp\ccRGkA1L.s:1152   .rodata.indexes:00000000 $d
C:\Users\dtjld\AppData\Local\Temp\ccRGkA1L.s:1155   .rodata.indexes:00000000 indexes
C:\Users\dtjld\AppData\Local\Temp\ccRGkA1L.s:1317   .rodata.transposes:00000000 $d
C:\Users\dtjld\AppData\Local\Temp\ccRGkA1L.s:1320   .rodata.transposes:00000000 transposes
C:\Users\dtjld\AppData\Local\Temp\ccRGkA1L.s:1362   .text.camellia_feistel:00000000 $t
C:\Users\dtjld\AppData\Local\Temp\ccRGkA1L.s:1368   .text.camellia_feistel:00000000 camellia_feistel
C:\Users\dtjld\AppData\Local\Temp\ccRGkA1L.s:1526   .text.camellia_feistel:000000e4 $d
C:\Users\dtjld\AppData\Local\Temp\ccRGkA1L.s:1534   .text.mbedtls_camellia_init:00000000 $t
C:\Users\dtjld\AppData\Local\Temp\ccRGkA1L.s:1541   .text.mbedtls_camellia_init:00000000 mbedtls_camellia_init
C:\Users\dtjld\AppData\Local\Temp\ccRGkA1L.s:1578   .text.mbedtls_camellia_free:00000000 $t
C:\Users\dtjld\AppData\Local\Temp\ccRGkA1L.s:1585   .text.mbedtls_camellia_free:00000000 mbedtls_camellia_free
C:\Users\dtjld\AppData\Local\Temp\ccRGkA1L.s:1629   .text.mbedtls_camellia_setkey_enc:00000000 $t
C:\Users\dtjld\AppData\Local\Temp\ccRGkA1L.s:1636   .text.mbedtls_camellia_setkey_enc:00000000 mbedtls_camellia_setkey_enc
C:\Users\dtjld\AppData\Local\Temp\ccRGkA1L.s:2076   .text.mbedtls_camellia_setkey_enc:000003e8 $d
C:\Users\dtjld\AppData\Local\Temp\ccRGkA1L.s:2079   .text.mbedtls_camellia_setkey_enc:000003ec $t
C:\Users\dtjld\AppData\Local\Temp\ccRGkA1L.s:2388   .text.mbedtls_camellia_setkey_enc:0000070c $d
C:\Users\dtjld\AppData\Local\Temp\ccRGkA1L.s:2392   .text.mbedtls_camellia_setkey_enc:00000714 $t
C:\Users\dtjld\AppData\Local\Temp\ccRGkA1L.s:2642   .text.mbedtls_camellia_setkey_enc:00000990 $d
C:\Users\dtjld\AppData\Local\Temp\ccRGkA1L.s:2646   .text.mbedtls_camellia_setkey_enc:00000998 $t
C:\Users\dtjld\AppData\Local\Temp\ccRGkA1L.s:2884   .text.mbedtls_camellia_setkey_enc:00000bd0 $d
C:\Users\dtjld\AppData\Local\Temp\ccRGkA1L.s:2891   .text.mbedtls_camellia_setkey_dec:00000000 $t
C:\Users\dtjld\AppData\Local\Temp\ccRGkA1L.s:2898   .text.mbedtls_camellia_setkey_dec:00000000 mbedtls_camellia_setkey_dec
C:\Users\dtjld\AppData\Local\Temp\ccRGkA1L.s:3106   .text.mbedtls_camellia_crypt_ecb:00000000 $t
C:\Users\dtjld\AppData\Local\Temp\ccRGkA1L.s:3113   .text.mbedtls_camellia_crypt_ecb:00000000 mbedtls_camellia_crypt_ecb
C:\Users\dtjld\AppData\Local\Temp\ccRGkA1L.s:3520   .text.mbedtls_camellia_crypt_cbc:00000000 $t
C:\Users\dtjld\AppData\Local\Temp\ccRGkA1L.s:3527   .text.mbedtls_camellia_crypt_cbc:00000000 mbedtls_camellia_crypt_cbc
C:\Users\dtjld\AppData\Local\Temp\ccRGkA1L.s:3712   .text.mbedtls_camellia_crypt_cfb128:00000000 $t
C:\Users\dtjld\AppData\Local\Temp\ccRGkA1L.s:3719   .text.mbedtls_camellia_crypt_cfb128:00000000 mbedtls_camellia_crypt_cfb128
C:\Users\dtjld\AppData\Local\Temp\ccRGkA1L.s:3877   .text.mbedtls_camellia_crypt_ctr:00000000 $t
C:\Users\dtjld\AppData\Local\Temp\ccRGkA1L.s:3884   .text.mbedtls_camellia_crypt_ctr:00000000 mbedtls_camellia_crypt_ctr
C:\Users\dtjld\AppData\Local\Temp\ccRGkA1L.s:4012   .rodata.camellia_test_ecb_key:00000000 $d
C:\Users\dtjld\AppData\Local\Temp\ccRGkA1L.s:4015   .rodata.camellia_test_ecb_key:00000000 camellia_test_ecb_key
C:\Users\dtjld\AppData\Local\Temp\ccRGkA1L.s:4165   .rodata.camellia_test_ecb_plain:00000000 $d
C:\Users\dtjld\AppData\Local\Temp\ccRGkA1L.s:4168   .rodata.camellia_test_ecb_plain:00000000 camellia_test_ecb_plain
C:\Users\dtjld\AppData\Local\Temp\ccRGkA1L.s:4202   .rodata.camellia_test_ecb_cipher:00000000 $d
C:\Users\dtjld\AppData\Local\Temp\ccRGkA1L.s:4205   .rodata.camellia_test_ecb_cipher:00000000 camellia_test_ecb_cipher
C:\Users\dtjld\AppData\Local\Temp\ccRGkA1L.s:4303   .rodata.camellia_test_cbc_key:00000000 $d
C:\Users\dtjld\AppData\Local\Temp\ccRGkA1L.s:4306   .rodata.camellia_test_cbc_key:00000000 camellia_test_cbc_key
C:\Users\dtjld\AppData\Local\Temp\ccRGkA1L.s:4382   .rodata.camellia_test_cbc_iv:00000000 $d
C:\Users\dtjld\AppData\Local\Temp\ccRGkA1L.s:4385   .rodata.camellia_test_cbc_iv:00000000 camellia_test_cbc_iv
C:\Users\dtjld\AppData\Local\Temp\ccRGkA1L.s:4403   .rodata.camellia_test_cbc_plain:00000000 $d
C:\Users\dtjld\AppData\Local\Temp\ccRGkA1L.s:4406   .rodata.camellia_test_cbc_plain:00000000 camellia_test_cbc_plain
C:\Users\dtjld\AppData\Local\Temp\ccRGkA1L.s:4456   .rodata.camellia_test_cbc_cipher:00000000 $d
ARM GAS  C:\Users\dtjld\AppData\Local\Temp\ccRGkA1L.s 			page 122


C:\Users\dtjld\AppData\Local\Temp\ccRGkA1L.s:4459   .rodata.camellia_test_cbc_cipher:00000000 camellia_test_cbc_cipher
C:\Users\dtjld\AppData\Local\Temp\ccRGkA1L.s:4605   .rodata.camellia_test_ctr_key:00000000 $d
C:\Users\dtjld\AppData\Local\Temp\ccRGkA1L.s:4608   .rodata.camellia_test_ctr_key:00000000 camellia_test_ctr_key
C:\Users\dtjld\AppData\Local\Temp\ccRGkA1L.s:4658   .rodata.camellia_test_ctr_nonce_counter:00000000 $d
C:\Users\dtjld\AppData\Local\Temp\ccRGkA1L.s:4661   .rodata.camellia_test_ctr_nonce_counter:00000000 camellia_test_ctr_nonce_counter
C:\Users\dtjld\AppData\Local\Temp\ccRGkA1L.s:4711   .rodata.camellia_test_ctr_pt:00000000 $d
C:\Users\dtjld\AppData\Local\Temp\ccRGkA1L.s:4714   .rodata.camellia_test_ctr_pt:00000000 camellia_test_ctr_pt
C:\Users\dtjld\AppData\Local\Temp\ccRGkA1L.s:4803   .rodata.camellia_test_ctr_ct:00000000 $d
C:\Users\dtjld\AppData\Local\Temp\ccRGkA1L.s:4806   .rodata.camellia_test_ctr_ct:00000000 camellia_test_ctr_ct
C:\Users\dtjld\AppData\Local\Temp\ccRGkA1L.s:4895   .rodata.camellia_test_ctr_len:00000000 $d
C:\Users\dtjld\AppData\Local\Temp\ccRGkA1L.s:4898   .rodata.camellia_test_ctr_len:00000000 camellia_test_ctr_len
C:\Users\dtjld\AppData\Local\Temp\ccRGkA1L.s:4903   .rodata:00000000 $d
C:\Users\dtjld\AppData\Local\Temp\ccRGkA1L.s:4928   .text.mbedtls_camellia_self_test:00000000 $t
C:\Users\dtjld\AppData\Local\Temp\ccRGkA1L.s:4935   .text.mbedtls_camellia_self_test:00000000 mbedtls_camellia_self_test
C:\Users\dtjld\AppData\Local\Temp\ccRGkA1L.s:5368   .text.mbedtls_camellia_self_test:00000360 $d
C:\Users\dtjld\AppData\Local\Temp\ccRGkA1L.s:5385   .text.mbedtls_camellia_self_test:0000039c $t
C:\Users\dtjld\AppData\Local\Temp\ccRGkA1L.s:5667   .text.mbedtls_camellia_self_test:000005c8 $d

UNDEFINED SYMBOLS
memset
mbedtls_platform_zeroize
memcpy
memcmp
mbedtls_printf
