ARM GAS  C:\Users\dtjld\AppData\Local\Temp\ccfiLUAQ.s 			page 1


   1              		.cpu cortex-m4
   2              		.eabi_attribute 27, 1
   3              		.eabi_attribute 28, 1
   4              		.eabi_attribute 20, 1
   5              		.eabi_attribute 21, 1
   6              		.eabi_attribute 23, 3
   7              		.eabi_attribute 24, 1
   8              		.eabi_attribute 25, 1
   9              		.eabi_attribute 26, 1
  10              		.eabi_attribute 30, 6
  11              		.eabi_attribute 34, 1
  12              		.eabi_attribute 18, 4
  13              		.file	"ctr_drbg.c"
  14              		.text
  15              	.Ltext0:
  16              		.cfi_sections	.debug_frame
  17              		.section	.text.mbedtls_ctr_drbg_init,"ax",%progbits
  18              		.align	1
  19              		.global	mbedtls_ctr_drbg_init
  20              		.syntax unified
  21              		.thumb
  22              		.thumb_func
  23              		.fpu fpv4-sp-d16
  25              	mbedtls_ctr_drbg_init:
  26              	.LFB3:
  27              		.file 1 "C:/Users/dtjld/workspace/AIoT/src/LiteOS_Lab/iot_link/network/dtls/mbedtls/mbedtls-2.16.2
   1:C:/Users/dtjld/workspace/AIoT/src/LiteOS_Lab/iot_link/network/dtls/mbedtls/mbedtls-2.16.2/library\ctr_drbg.c **** /*
   2:C:/Users/dtjld/workspace/AIoT/src/LiteOS_Lab/iot_link/network/dtls/mbedtls/mbedtls-2.16.2/library\ctr_drbg.c ****  *  CTR_DRBG implementation based on AES-256 (NIST SP 800-90)
   3:C:/Users/dtjld/workspace/AIoT/src/LiteOS_Lab/iot_link/network/dtls/mbedtls/mbedtls-2.16.2/library\ctr_drbg.c ****  *
   4:C:/Users/dtjld/workspace/AIoT/src/LiteOS_Lab/iot_link/network/dtls/mbedtls/mbedtls-2.16.2/library\ctr_drbg.c ****  *  Copyright (C) 2006-2015, ARM Limited, All Rights Reserved
   5:C:/Users/dtjld/workspace/AIoT/src/LiteOS_Lab/iot_link/network/dtls/mbedtls/mbedtls-2.16.2/library\ctr_drbg.c ****  *  SPDX-License-Identifier: Apache-2.0
   6:C:/Users/dtjld/workspace/AIoT/src/LiteOS_Lab/iot_link/network/dtls/mbedtls/mbedtls-2.16.2/library\ctr_drbg.c ****  *
   7:C:/Users/dtjld/workspace/AIoT/src/LiteOS_Lab/iot_link/network/dtls/mbedtls/mbedtls-2.16.2/library\ctr_drbg.c ****  *  Licensed under the Apache License, Version 2.0 (the "License"); you may
   8:C:/Users/dtjld/workspace/AIoT/src/LiteOS_Lab/iot_link/network/dtls/mbedtls/mbedtls-2.16.2/library\ctr_drbg.c ****  *  not use this file except in compliance with the License.
   9:C:/Users/dtjld/workspace/AIoT/src/LiteOS_Lab/iot_link/network/dtls/mbedtls/mbedtls-2.16.2/library\ctr_drbg.c ****  *  You may obtain a copy of the License at
  10:C:/Users/dtjld/workspace/AIoT/src/LiteOS_Lab/iot_link/network/dtls/mbedtls/mbedtls-2.16.2/library\ctr_drbg.c ****  *
  11:C:/Users/dtjld/workspace/AIoT/src/LiteOS_Lab/iot_link/network/dtls/mbedtls/mbedtls-2.16.2/library\ctr_drbg.c ****  *  http://www.apache.org/licenses/LICENSE-2.0
  12:C:/Users/dtjld/workspace/AIoT/src/LiteOS_Lab/iot_link/network/dtls/mbedtls/mbedtls-2.16.2/library\ctr_drbg.c ****  *
  13:C:/Users/dtjld/workspace/AIoT/src/LiteOS_Lab/iot_link/network/dtls/mbedtls/mbedtls-2.16.2/library\ctr_drbg.c ****  *  Unless required by applicable law or agreed to in writing, software
  14:C:/Users/dtjld/workspace/AIoT/src/LiteOS_Lab/iot_link/network/dtls/mbedtls/mbedtls-2.16.2/library\ctr_drbg.c ****  *  distributed under the License is distributed on an "AS IS" BASIS, WITHOUT
  15:C:/Users/dtjld/workspace/AIoT/src/LiteOS_Lab/iot_link/network/dtls/mbedtls/mbedtls-2.16.2/library\ctr_drbg.c ****  *  WARRANTIES OR CONDITIONS OF ANY KIND, either express or implied.
  16:C:/Users/dtjld/workspace/AIoT/src/LiteOS_Lab/iot_link/network/dtls/mbedtls/mbedtls-2.16.2/library\ctr_drbg.c ****  *  See the License for the specific language governing permissions and
  17:C:/Users/dtjld/workspace/AIoT/src/LiteOS_Lab/iot_link/network/dtls/mbedtls/mbedtls-2.16.2/library\ctr_drbg.c ****  *  limitations under the License.
  18:C:/Users/dtjld/workspace/AIoT/src/LiteOS_Lab/iot_link/network/dtls/mbedtls/mbedtls-2.16.2/library\ctr_drbg.c ****  *
  19:C:/Users/dtjld/workspace/AIoT/src/LiteOS_Lab/iot_link/network/dtls/mbedtls/mbedtls-2.16.2/library\ctr_drbg.c ****  *  This file is part of mbed TLS (https://tls.mbed.org)
  20:C:/Users/dtjld/workspace/AIoT/src/LiteOS_Lab/iot_link/network/dtls/mbedtls/mbedtls-2.16.2/library\ctr_drbg.c ****  */
  21:C:/Users/dtjld/workspace/AIoT/src/LiteOS_Lab/iot_link/network/dtls/mbedtls/mbedtls-2.16.2/library\ctr_drbg.c **** /*
  22:C:/Users/dtjld/workspace/AIoT/src/LiteOS_Lab/iot_link/network/dtls/mbedtls/mbedtls-2.16.2/library\ctr_drbg.c ****  *  The NIST SP 800-90 DRBGs are described in the following publication.
  23:C:/Users/dtjld/workspace/AIoT/src/LiteOS_Lab/iot_link/network/dtls/mbedtls/mbedtls-2.16.2/library\ctr_drbg.c ****  *
  24:C:/Users/dtjld/workspace/AIoT/src/LiteOS_Lab/iot_link/network/dtls/mbedtls/mbedtls-2.16.2/library\ctr_drbg.c ****  *  http://csrc.nist.gov/publications/nistpubs/800-90/SP800-90revised_March2007.pdf
  25:C:/Users/dtjld/workspace/AIoT/src/LiteOS_Lab/iot_link/network/dtls/mbedtls/mbedtls-2.16.2/library\ctr_drbg.c ****  */
  26:C:/Users/dtjld/workspace/AIoT/src/LiteOS_Lab/iot_link/network/dtls/mbedtls/mbedtls-2.16.2/library\ctr_drbg.c **** 
  27:C:/Users/dtjld/workspace/AIoT/src/LiteOS_Lab/iot_link/network/dtls/mbedtls/mbedtls-2.16.2/library\ctr_drbg.c **** #if !defined(MBEDTLS_CONFIG_FILE)
  28:C:/Users/dtjld/workspace/AIoT/src/LiteOS_Lab/iot_link/network/dtls/mbedtls/mbedtls-2.16.2/library\ctr_drbg.c **** #include "mbedtls/config.h"
  29:C:/Users/dtjld/workspace/AIoT/src/LiteOS_Lab/iot_link/network/dtls/mbedtls/mbedtls-2.16.2/library\ctr_drbg.c **** #else
  30:C:/Users/dtjld/workspace/AIoT/src/LiteOS_Lab/iot_link/network/dtls/mbedtls/mbedtls-2.16.2/library\ctr_drbg.c **** #include MBEDTLS_CONFIG_FILE
  31:C:/Users/dtjld/workspace/AIoT/src/LiteOS_Lab/iot_link/network/dtls/mbedtls/mbedtls-2.16.2/library\ctr_drbg.c **** #endif
ARM GAS  C:\Users\dtjld\AppData\Local\Temp\ccfiLUAQ.s 			page 2


  32:C:/Users/dtjld/workspace/AIoT/src/LiteOS_Lab/iot_link/network/dtls/mbedtls/mbedtls-2.16.2/library\ctr_drbg.c **** 
  33:C:/Users/dtjld/workspace/AIoT/src/LiteOS_Lab/iot_link/network/dtls/mbedtls/mbedtls-2.16.2/library\ctr_drbg.c **** #if defined(MBEDTLS_CTR_DRBG_C)
  34:C:/Users/dtjld/workspace/AIoT/src/LiteOS_Lab/iot_link/network/dtls/mbedtls/mbedtls-2.16.2/library\ctr_drbg.c **** 
  35:C:/Users/dtjld/workspace/AIoT/src/LiteOS_Lab/iot_link/network/dtls/mbedtls/mbedtls-2.16.2/library\ctr_drbg.c **** #include "mbedtls/ctr_drbg.h"
  36:C:/Users/dtjld/workspace/AIoT/src/LiteOS_Lab/iot_link/network/dtls/mbedtls/mbedtls-2.16.2/library\ctr_drbg.c **** #include "mbedtls/platform_util.h"
  37:C:/Users/dtjld/workspace/AIoT/src/LiteOS_Lab/iot_link/network/dtls/mbedtls/mbedtls-2.16.2/library\ctr_drbg.c **** 
  38:C:/Users/dtjld/workspace/AIoT/src/LiteOS_Lab/iot_link/network/dtls/mbedtls/mbedtls-2.16.2/library\ctr_drbg.c **** #include <string.h>
  39:C:/Users/dtjld/workspace/AIoT/src/LiteOS_Lab/iot_link/network/dtls/mbedtls/mbedtls-2.16.2/library\ctr_drbg.c **** 
  40:C:/Users/dtjld/workspace/AIoT/src/LiteOS_Lab/iot_link/network/dtls/mbedtls/mbedtls-2.16.2/library\ctr_drbg.c **** #if defined(MBEDTLS_FS_IO)
  41:C:/Users/dtjld/workspace/AIoT/src/LiteOS_Lab/iot_link/network/dtls/mbedtls/mbedtls-2.16.2/library\ctr_drbg.c **** #include <stdio.h>
  42:C:/Users/dtjld/workspace/AIoT/src/LiteOS_Lab/iot_link/network/dtls/mbedtls/mbedtls-2.16.2/library\ctr_drbg.c **** #endif
  43:C:/Users/dtjld/workspace/AIoT/src/LiteOS_Lab/iot_link/network/dtls/mbedtls/mbedtls-2.16.2/library\ctr_drbg.c **** 
  44:C:/Users/dtjld/workspace/AIoT/src/LiteOS_Lab/iot_link/network/dtls/mbedtls/mbedtls-2.16.2/library\ctr_drbg.c **** #if defined(MBEDTLS_SELF_TEST)
  45:C:/Users/dtjld/workspace/AIoT/src/LiteOS_Lab/iot_link/network/dtls/mbedtls/mbedtls-2.16.2/library\ctr_drbg.c **** #if defined(MBEDTLS_PLATFORM_C)
  46:C:/Users/dtjld/workspace/AIoT/src/LiteOS_Lab/iot_link/network/dtls/mbedtls/mbedtls-2.16.2/library\ctr_drbg.c **** #include "mbedtls/platform.h"
  47:C:/Users/dtjld/workspace/AIoT/src/LiteOS_Lab/iot_link/network/dtls/mbedtls/mbedtls-2.16.2/library\ctr_drbg.c **** #else
  48:C:/Users/dtjld/workspace/AIoT/src/LiteOS_Lab/iot_link/network/dtls/mbedtls/mbedtls-2.16.2/library\ctr_drbg.c **** #include <stdio.h>
  49:C:/Users/dtjld/workspace/AIoT/src/LiteOS_Lab/iot_link/network/dtls/mbedtls/mbedtls-2.16.2/library\ctr_drbg.c **** #define mbedtls_printf printf
  50:C:/Users/dtjld/workspace/AIoT/src/LiteOS_Lab/iot_link/network/dtls/mbedtls/mbedtls-2.16.2/library\ctr_drbg.c **** #endif /* MBEDTLS_PLATFORM_C */
  51:C:/Users/dtjld/workspace/AIoT/src/LiteOS_Lab/iot_link/network/dtls/mbedtls/mbedtls-2.16.2/library\ctr_drbg.c **** #endif /* MBEDTLS_SELF_TEST */
  52:C:/Users/dtjld/workspace/AIoT/src/LiteOS_Lab/iot_link/network/dtls/mbedtls/mbedtls-2.16.2/library\ctr_drbg.c **** 
  53:C:/Users/dtjld/workspace/AIoT/src/LiteOS_Lab/iot_link/network/dtls/mbedtls/mbedtls-2.16.2/library\ctr_drbg.c **** /*
  54:C:/Users/dtjld/workspace/AIoT/src/LiteOS_Lab/iot_link/network/dtls/mbedtls/mbedtls-2.16.2/library\ctr_drbg.c ****  * CTR_DRBG context initialization
  55:C:/Users/dtjld/workspace/AIoT/src/LiteOS_Lab/iot_link/network/dtls/mbedtls/mbedtls-2.16.2/library\ctr_drbg.c ****  */
  56:C:/Users/dtjld/workspace/AIoT/src/LiteOS_Lab/iot_link/network/dtls/mbedtls/mbedtls-2.16.2/library\ctr_drbg.c **** void mbedtls_ctr_drbg_init( mbedtls_ctr_drbg_context *ctx )
  57:C:/Users/dtjld/workspace/AIoT/src/LiteOS_Lab/iot_link/network/dtls/mbedtls/mbedtls-2.16.2/library\ctr_drbg.c **** {
  28              		.loc 1 57 0
  29              		.cfi_startproc
  30              		@ args = 0, pretend = 0, frame = 8
  31              		@ frame_needed = 1, uses_anonymous_args = 0
  32 0000 80B5     		push	{r7, lr}
  33              	.LCFI0:
  34              		.cfi_def_cfa_offset 8
  35              		.cfi_offset 7, -8
  36              		.cfi_offset 14, -4
  37 0002 82B0     		sub	sp, sp, #8
  38              	.LCFI1:
  39              		.cfi_def_cfa_offset 16
  40 0004 00AF     		add	r7, sp, #0
  41              	.LCFI2:
  42              		.cfi_def_cfa_register 7
  43 0006 7860     		str	r0, [r7, #4]
  58:C:/Users/dtjld/workspace/AIoT/src/LiteOS_Lab/iot_link/network/dtls/mbedtls/mbedtls-2.16.2/library\ctr_drbg.c ****     memset( ctx, 0, sizeof( mbedtls_ctr_drbg_context ) );
  44              		.loc 1 58 0
  45 0008 4FF4A072 		mov	r2, #320
  46 000c 0021     		movs	r1, #0
  47 000e 7868     		ldr	r0, [r7, #4]
  48 0010 FFF7FEFF 		bl	memset
  59:C:/Users/dtjld/workspace/AIoT/src/LiteOS_Lab/iot_link/network/dtls/mbedtls/mbedtls-2.16.2/library\ctr_drbg.c **** 
  60:C:/Users/dtjld/workspace/AIoT/src/LiteOS_Lab/iot_link/network/dtls/mbedtls/mbedtls-2.16.2/library\ctr_drbg.c **** #if defined(MBEDTLS_THREADING_C)
  61:C:/Users/dtjld/workspace/AIoT/src/LiteOS_Lab/iot_link/network/dtls/mbedtls/mbedtls-2.16.2/library\ctr_drbg.c ****     mbedtls_mutex_init( &ctx->mutex );
  62:C:/Users/dtjld/workspace/AIoT/src/LiteOS_Lab/iot_link/network/dtls/mbedtls/mbedtls-2.16.2/library\ctr_drbg.c **** #endif
  63:C:/Users/dtjld/workspace/AIoT/src/LiteOS_Lab/iot_link/network/dtls/mbedtls/mbedtls-2.16.2/library\ctr_drbg.c **** }
  49              		.loc 1 63 0
  50 0014 00BF     		nop
  51 0016 0837     		adds	r7, r7, #8
  52              	.LCFI3:
ARM GAS  C:\Users\dtjld\AppData\Local\Temp\ccfiLUAQ.s 			page 3


  53              		.cfi_def_cfa_offset 8
  54 0018 BD46     		mov	sp, r7
  55              	.LCFI4:
  56              		.cfi_def_cfa_register 13
  57              		@ sp needed
  58 001a 80BD     		pop	{r7, pc}
  59              		.cfi_endproc
  60              	.LFE3:
  62              		.section	.text.mbedtls_ctr_drbg_seed_entropy_len,"ax",%progbits
  63              		.align	1
  64              		.global	mbedtls_ctr_drbg_seed_entropy_len
  65              		.syntax unified
  66              		.thumb
  67              		.thumb_func
  68              		.fpu fpv4-sp-d16
  70              	mbedtls_ctr_drbg_seed_entropy_len:
  71              	.LFB4:
  64:C:/Users/dtjld/workspace/AIoT/src/LiteOS_Lab/iot_link/network/dtls/mbedtls/mbedtls-2.16.2/library\ctr_drbg.c **** 
  65:C:/Users/dtjld/workspace/AIoT/src/LiteOS_Lab/iot_link/network/dtls/mbedtls/mbedtls-2.16.2/library\ctr_drbg.c **** /*
  66:C:/Users/dtjld/workspace/AIoT/src/LiteOS_Lab/iot_link/network/dtls/mbedtls/mbedtls-2.16.2/library\ctr_drbg.c ****  * Non-public function wrapped by mbedtls_ctr_drbg_seed(). Necessary to allow
  67:C:/Users/dtjld/workspace/AIoT/src/LiteOS_Lab/iot_link/network/dtls/mbedtls/mbedtls-2.16.2/library\ctr_drbg.c ****  * NIST tests to succeed (which require known length fixed entropy)
  68:C:/Users/dtjld/workspace/AIoT/src/LiteOS_Lab/iot_link/network/dtls/mbedtls/mbedtls-2.16.2/library\ctr_drbg.c ****  */
  69:C:/Users/dtjld/workspace/AIoT/src/LiteOS_Lab/iot_link/network/dtls/mbedtls/mbedtls-2.16.2/library\ctr_drbg.c **** /* CTR_DRBG_Instantiate with derivation function (SP 800-90A &sect;10.2.1.3.2)
  70:C:/Users/dtjld/workspace/AIoT/src/LiteOS_Lab/iot_link/network/dtls/mbedtls/mbedtls-2.16.2/library\ctr_drbg.c ****  * mbedtls_ctr_drbg_seed_entropy_len(ctx, f_entropy, p_entropy,
  71:C:/Users/dtjld/workspace/AIoT/src/LiteOS_Lab/iot_link/network/dtls/mbedtls/mbedtls-2.16.2/library\ctr_drbg.c ****  *                                   custom, len, entropy_len)
  72:C:/Users/dtjld/workspace/AIoT/src/LiteOS_Lab/iot_link/network/dtls/mbedtls/mbedtls-2.16.2/library\ctr_drbg.c ****  * implements
  73:C:/Users/dtjld/workspace/AIoT/src/LiteOS_Lab/iot_link/network/dtls/mbedtls/mbedtls-2.16.2/library\ctr_drbg.c ****  * CTR_DRBG_Instantiate(entropy_input, nonce, personalization_string,
  74:C:/Users/dtjld/workspace/AIoT/src/LiteOS_Lab/iot_link/network/dtls/mbedtls/mbedtls-2.16.2/library\ctr_drbg.c ****  *                      security_strength) -> initial_working_state
  75:C:/Users/dtjld/workspace/AIoT/src/LiteOS_Lab/iot_link/network/dtls/mbedtls/mbedtls-2.16.2/library\ctr_drbg.c ****  * with inputs
  76:C:/Users/dtjld/workspace/AIoT/src/LiteOS_Lab/iot_link/network/dtls/mbedtls/mbedtls-2.16.2/library\ctr_drbg.c ****  *   custom[:len] = nonce || personalization_string
  77:C:/Users/dtjld/workspace/AIoT/src/LiteOS_Lab/iot_link/network/dtls/mbedtls/mbedtls-2.16.2/library\ctr_drbg.c ****  * where entropy_input comes from f_entropy for entropy_len bytes
  78:C:/Users/dtjld/workspace/AIoT/src/LiteOS_Lab/iot_link/network/dtls/mbedtls/mbedtls-2.16.2/library\ctr_drbg.c ****  * and with outputs
  79:C:/Users/dtjld/workspace/AIoT/src/LiteOS_Lab/iot_link/network/dtls/mbedtls/mbedtls-2.16.2/library\ctr_drbg.c ****  *   ctx = initial_working_state
  80:C:/Users/dtjld/workspace/AIoT/src/LiteOS_Lab/iot_link/network/dtls/mbedtls/mbedtls-2.16.2/library\ctr_drbg.c ****  */
  81:C:/Users/dtjld/workspace/AIoT/src/LiteOS_Lab/iot_link/network/dtls/mbedtls/mbedtls-2.16.2/library\ctr_drbg.c **** int mbedtls_ctr_drbg_seed_entropy_len(
  82:C:/Users/dtjld/workspace/AIoT/src/LiteOS_Lab/iot_link/network/dtls/mbedtls/mbedtls-2.16.2/library\ctr_drbg.c ****                    mbedtls_ctr_drbg_context *ctx,
  83:C:/Users/dtjld/workspace/AIoT/src/LiteOS_Lab/iot_link/network/dtls/mbedtls/mbedtls-2.16.2/library\ctr_drbg.c ****                    int (*f_entropy)(void *, unsigned char *, size_t),
  84:C:/Users/dtjld/workspace/AIoT/src/LiteOS_Lab/iot_link/network/dtls/mbedtls/mbedtls-2.16.2/library\ctr_drbg.c ****                    void *p_entropy,
  85:C:/Users/dtjld/workspace/AIoT/src/LiteOS_Lab/iot_link/network/dtls/mbedtls/mbedtls-2.16.2/library\ctr_drbg.c ****                    const unsigned char *custom,
  86:C:/Users/dtjld/workspace/AIoT/src/LiteOS_Lab/iot_link/network/dtls/mbedtls/mbedtls-2.16.2/library\ctr_drbg.c ****                    size_t len,
  87:C:/Users/dtjld/workspace/AIoT/src/LiteOS_Lab/iot_link/network/dtls/mbedtls/mbedtls-2.16.2/library\ctr_drbg.c ****                    size_t entropy_len )
  88:C:/Users/dtjld/workspace/AIoT/src/LiteOS_Lab/iot_link/network/dtls/mbedtls/mbedtls-2.16.2/library\ctr_drbg.c **** {
  72              		.loc 1 88 0
  73              		.cfi_startproc
  74              		@ args = 8, pretend = 0, frame = 56
  75              		@ frame_needed = 1, uses_anonymous_args = 0
  76 0000 80B5     		push	{r7, lr}
  77              	.LCFI5:
  78              		.cfi_def_cfa_offset 8
  79              		.cfi_offset 7, -8
  80              		.cfi_offset 14, -4
  81 0002 8EB0     		sub	sp, sp, #56
  82              	.LCFI6:
  83              		.cfi_def_cfa_offset 64
  84 0004 00AF     		add	r7, sp, #0
  85              	.LCFI7:
  86              		.cfi_def_cfa_register 7
ARM GAS  C:\Users\dtjld\AppData\Local\Temp\ccfiLUAQ.s 			page 4


  87 0006 F860     		str	r0, [r7, #12]
  88 0008 B960     		str	r1, [r7, #8]
  89 000a 7A60     		str	r2, [r7, #4]
  90 000c 3B60     		str	r3, [r7]
  89:C:/Users/dtjld/workspace/AIoT/src/LiteOS_Lab/iot_link/network/dtls/mbedtls/mbedtls-2.16.2/library\ctr_drbg.c ****     int ret;
  90:C:/Users/dtjld/workspace/AIoT/src/LiteOS_Lab/iot_link/network/dtls/mbedtls/mbedtls-2.16.2/library\ctr_drbg.c ****     unsigned char key[MBEDTLS_CTR_DRBG_KEYSIZE];
  91:C:/Users/dtjld/workspace/AIoT/src/LiteOS_Lab/iot_link/network/dtls/mbedtls/mbedtls-2.16.2/library\ctr_drbg.c **** 
  92:C:/Users/dtjld/workspace/AIoT/src/LiteOS_Lab/iot_link/network/dtls/mbedtls/mbedtls-2.16.2/library\ctr_drbg.c ****     memset( key, 0, MBEDTLS_CTR_DRBG_KEYSIZE );
  91              		.loc 1 92 0
  92 000e 07F11403 		add	r3, r7, #20
  93 0012 2022     		movs	r2, #32
  94 0014 0021     		movs	r1, #0
  95 0016 1846     		mov	r0, r3
  96 0018 FFF7FEFF 		bl	memset
  93:C:/Users/dtjld/workspace/AIoT/src/LiteOS_Lab/iot_link/network/dtls/mbedtls/mbedtls-2.16.2/library\ctr_drbg.c **** 
  94:C:/Users/dtjld/workspace/AIoT/src/LiteOS_Lab/iot_link/network/dtls/mbedtls/mbedtls-2.16.2/library\ctr_drbg.c ****     mbedtls_aes_init( &ctx->aes_ctx );
  97              		.loc 1 94 0
  98 001c FB68     		ldr	r3, [r7, #12]
  99 001e 2033     		adds	r3, r3, #32
 100 0020 1846     		mov	r0, r3
 101 0022 FFF7FEFF 		bl	mbedtls_aes_init
  95:C:/Users/dtjld/workspace/AIoT/src/LiteOS_Lab/iot_link/network/dtls/mbedtls/mbedtls-2.16.2/library\ctr_drbg.c **** 
  96:C:/Users/dtjld/workspace/AIoT/src/LiteOS_Lab/iot_link/network/dtls/mbedtls/mbedtls-2.16.2/library\ctr_drbg.c ****     ctx->f_entropy = f_entropy;
 102              		.loc 1 96 0
 103 0026 FB68     		ldr	r3, [r7, #12]
 104 0028 BA68     		ldr	r2, [r7, #8]
 105 002a C3F83821 		str	r2, [r3, #312]
  97:C:/Users/dtjld/workspace/AIoT/src/LiteOS_Lab/iot_link/network/dtls/mbedtls/mbedtls-2.16.2/library\ctr_drbg.c ****     ctx->p_entropy = p_entropy;
 106              		.loc 1 97 0
 107 002e FB68     		ldr	r3, [r7, #12]
 108 0030 7A68     		ldr	r2, [r7, #4]
 109 0032 C3F83C21 		str	r2, [r3, #316]
  98:C:/Users/dtjld/workspace/AIoT/src/LiteOS_Lab/iot_link/network/dtls/mbedtls/mbedtls-2.16.2/library\ctr_drbg.c **** 
  99:C:/Users/dtjld/workspace/AIoT/src/LiteOS_Lab/iot_link/network/dtls/mbedtls/mbedtls-2.16.2/library\ctr_drbg.c ****     ctx->entropy_len = entropy_len;
 110              		.loc 1 99 0
 111 0036 FB68     		ldr	r3, [r7, #12]
 112 0038 7A6C     		ldr	r2, [r7, #68]
 113 003a 9A61     		str	r2, [r3, #24]
 100:C:/Users/dtjld/workspace/AIoT/src/LiteOS_Lab/iot_link/network/dtls/mbedtls/mbedtls-2.16.2/library\ctr_drbg.c ****     ctx->reseed_interval = MBEDTLS_CTR_DRBG_RESEED_INTERVAL;
 114              		.loc 1 100 0
 115 003c FB68     		ldr	r3, [r7, #12]
 116 003e 42F21072 		movw	r2, #10000
 117 0042 DA61     		str	r2, [r3, #28]
 101:C:/Users/dtjld/workspace/AIoT/src/LiteOS_Lab/iot_link/network/dtls/mbedtls/mbedtls-2.16.2/library\ctr_drbg.c **** 
 102:C:/Users/dtjld/workspace/AIoT/src/LiteOS_Lab/iot_link/network/dtls/mbedtls/mbedtls-2.16.2/library\ctr_drbg.c ****     /*
 103:C:/Users/dtjld/workspace/AIoT/src/LiteOS_Lab/iot_link/network/dtls/mbedtls/mbedtls-2.16.2/library\ctr_drbg.c ****      * Initialize with an empty key
 104:C:/Users/dtjld/workspace/AIoT/src/LiteOS_Lab/iot_link/network/dtls/mbedtls/mbedtls-2.16.2/library\ctr_drbg.c ****      */
 105:C:/Users/dtjld/workspace/AIoT/src/LiteOS_Lab/iot_link/network/dtls/mbedtls/mbedtls-2.16.2/library\ctr_drbg.c ****     if( ( ret = mbedtls_aes_setkey_enc( &ctx->aes_ctx, key, MBEDTLS_CTR_DRBG_KEYBITS ) ) != 0 )
 118              		.loc 1 105 0
 119 0044 FB68     		ldr	r3, [r7, #12]
 120 0046 2033     		adds	r3, r3, #32
 121 0048 07F11401 		add	r1, r7, #20
 122 004c 4FF48072 		mov	r2, #256
 123 0050 1846     		mov	r0, r3
 124 0052 FFF7FEFF 		bl	mbedtls_aes_setkey_enc
 125 0056 7863     		str	r0, [r7, #52]
 126 0058 7B6B     		ldr	r3, [r7, #52]
ARM GAS  C:\Users\dtjld\AppData\Local\Temp\ccfiLUAQ.s 			page 5


 127 005a 002B     		cmp	r3, #0
 128 005c 01D0     		beq	.L3
 106:C:/Users/dtjld/workspace/AIoT/src/LiteOS_Lab/iot_link/network/dtls/mbedtls/mbedtls-2.16.2/library\ctr_drbg.c ****     {
 107:C:/Users/dtjld/workspace/AIoT/src/LiteOS_Lab/iot_link/network/dtls/mbedtls/mbedtls-2.16.2/library\ctr_drbg.c ****         return( ret );
 129              		.loc 1 107 0
 130 005e 7B6B     		ldr	r3, [r7, #52]
 131 0060 0BE0     		b	.L6
 132              	.L3:
 108:C:/Users/dtjld/workspace/AIoT/src/LiteOS_Lab/iot_link/network/dtls/mbedtls/mbedtls-2.16.2/library\ctr_drbg.c ****     }
 109:C:/Users/dtjld/workspace/AIoT/src/LiteOS_Lab/iot_link/network/dtls/mbedtls/mbedtls-2.16.2/library\ctr_drbg.c **** 
 110:C:/Users/dtjld/workspace/AIoT/src/LiteOS_Lab/iot_link/network/dtls/mbedtls/mbedtls-2.16.2/library\ctr_drbg.c ****     if( ( ret = mbedtls_ctr_drbg_reseed( ctx, custom, len ) ) != 0 )
 133              		.loc 1 110 0
 134 0062 3A6C     		ldr	r2, [r7, #64]
 135 0064 3968     		ldr	r1, [r7]
 136 0066 F868     		ldr	r0, [r7, #12]
 137 0068 FFF7FEFF 		bl	mbedtls_ctr_drbg_reseed
 138 006c 7863     		str	r0, [r7, #52]
 139 006e 7B6B     		ldr	r3, [r7, #52]
 140 0070 002B     		cmp	r3, #0
 141 0072 01D0     		beq	.L5
 111:C:/Users/dtjld/workspace/AIoT/src/LiteOS_Lab/iot_link/network/dtls/mbedtls/mbedtls-2.16.2/library\ctr_drbg.c ****     {
 112:C:/Users/dtjld/workspace/AIoT/src/LiteOS_Lab/iot_link/network/dtls/mbedtls/mbedtls-2.16.2/library\ctr_drbg.c ****         return( ret );
 142              		.loc 1 112 0
 143 0074 7B6B     		ldr	r3, [r7, #52]
 144 0076 00E0     		b	.L6
 145              	.L5:
 113:C:/Users/dtjld/workspace/AIoT/src/LiteOS_Lab/iot_link/network/dtls/mbedtls/mbedtls-2.16.2/library\ctr_drbg.c ****     }
 114:C:/Users/dtjld/workspace/AIoT/src/LiteOS_Lab/iot_link/network/dtls/mbedtls/mbedtls-2.16.2/library\ctr_drbg.c ****     return( 0 );
 146              		.loc 1 114 0
 147 0078 0023     		movs	r3, #0
 148              	.L6:
 115:C:/Users/dtjld/workspace/AIoT/src/LiteOS_Lab/iot_link/network/dtls/mbedtls/mbedtls-2.16.2/library\ctr_drbg.c **** }
 149              		.loc 1 115 0 discriminator 1
 150 007a 1846     		mov	r0, r3
 151 007c 3837     		adds	r7, r7, #56
 152              	.LCFI8:
 153              		.cfi_def_cfa_offset 8
 154 007e BD46     		mov	sp, r7
 155              	.LCFI9:
 156              		.cfi_def_cfa_register 13
 157              		@ sp needed
 158 0080 80BD     		pop	{r7, pc}
 159              		.cfi_endproc
 160              	.LFE4:
 162              		.section	.text.mbedtls_ctr_drbg_seed,"ax",%progbits
 163              		.align	1
 164              		.global	mbedtls_ctr_drbg_seed
 165              		.syntax unified
 166              		.thumb
 167              		.thumb_func
 168              		.fpu fpv4-sp-d16
 170              	mbedtls_ctr_drbg_seed:
 171              	.LFB5:
 116:C:/Users/dtjld/workspace/AIoT/src/LiteOS_Lab/iot_link/network/dtls/mbedtls/mbedtls-2.16.2/library\ctr_drbg.c **** 
 117:C:/Users/dtjld/workspace/AIoT/src/LiteOS_Lab/iot_link/network/dtls/mbedtls/mbedtls-2.16.2/library\ctr_drbg.c **** int mbedtls_ctr_drbg_seed( mbedtls_ctr_drbg_context *ctx,
 118:C:/Users/dtjld/workspace/AIoT/src/LiteOS_Lab/iot_link/network/dtls/mbedtls/mbedtls-2.16.2/library\ctr_drbg.c ****                    int (*f_entropy)(void *, unsigned char *, size_t),
 119:C:/Users/dtjld/workspace/AIoT/src/LiteOS_Lab/iot_link/network/dtls/mbedtls/mbedtls-2.16.2/library\ctr_drbg.c ****                    void *p_entropy,
ARM GAS  C:\Users\dtjld\AppData\Local\Temp\ccfiLUAQ.s 			page 6


 120:C:/Users/dtjld/workspace/AIoT/src/LiteOS_Lab/iot_link/network/dtls/mbedtls/mbedtls-2.16.2/library\ctr_drbg.c ****                    const unsigned char *custom,
 121:C:/Users/dtjld/workspace/AIoT/src/LiteOS_Lab/iot_link/network/dtls/mbedtls/mbedtls-2.16.2/library\ctr_drbg.c ****                    size_t len )
 122:C:/Users/dtjld/workspace/AIoT/src/LiteOS_Lab/iot_link/network/dtls/mbedtls/mbedtls-2.16.2/library\ctr_drbg.c **** {
 172              		.loc 1 122 0
 173              		.cfi_startproc
 174              		@ args = 4, pretend = 0, frame = 16
 175              		@ frame_needed = 1, uses_anonymous_args = 0
 176 0000 80B5     		push	{r7, lr}
 177              	.LCFI10:
 178              		.cfi_def_cfa_offset 8
 179              		.cfi_offset 7, -8
 180              		.cfi_offset 14, -4
 181 0002 86B0     		sub	sp, sp, #24
 182              	.LCFI11:
 183              		.cfi_def_cfa_offset 32
 184 0004 02AF     		add	r7, sp, #8
 185              	.LCFI12:
 186              		.cfi_def_cfa 7, 24
 187 0006 F860     		str	r0, [r7, #12]
 188 0008 B960     		str	r1, [r7, #8]
 189 000a 7A60     		str	r2, [r7, #4]
 190 000c 3B60     		str	r3, [r7]
 123:C:/Users/dtjld/workspace/AIoT/src/LiteOS_Lab/iot_link/network/dtls/mbedtls/mbedtls-2.16.2/library\ctr_drbg.c ****     return( mbedtls_ctr_drbg_seed_entropy_len( ctx, f_entropy, p_entropy, custom, len,
 191              		.loc 1 123 0
 192 000e 3023     		movs	r3, #48
 193 0010 0193     		str	r3, [sp, #4]
 194 0012 BB69     		ldr	r3, [r7, #24]
 195 0014 0093     		str	r3, [sp]
 196 0016 3B68     		ldr	r3, [r7]
 197 0018 7A68     		ldr	r2, [r7, #4]
 198 001a B968     		ldr	r1, [r7, #8]
 199 001c F868     		ldr	r0, [r7, #12]
 200 001e FFF7FEFF 		bl	mbedtls_ctr_drbg_seed_entropy_len
 201 0022 0346     		mov	r3, r0
 124:C:/Users/dtjld/workspace/AIoT/src/LiteOS_Lab/iot_link/network/dtls/mbedtls/mbedtls-2.16.2/library\ctr_drbg.c ****                                        MBEDTLS_CTR_DRBG_ENTROPY_LEN ) );
 125:C:/Users/dtjld/workspace/AIoT/src/LiteOS_Lab/iot_link/network/dtls/mbedtls/mbedtls-2.16.2/library\ctr_drbg.c **** }
 202              		.loc 1 125 0
 203 0024 1846     		mov	r0, r3
 204 0026 1037     		adds	r7, r7, #16
 205              	.LCFI13:
 206              		.cfi_def_cfa_offset 8
 207 0028 BD46     		mov	sp, r7
 208              	.LCFI14:
 209              		.cfi_def_cfa_register 13
 210              		@ sp needed
 211 002a 80BD     		pop	{r7, pc}
 212              		.cfi_endproc
 213              	.LFE5:
 215              		.section	.text.mbedtls_ctr_drbg_free,"ax",%progbits
 216              		.align	1
 217              		.global	mbedtls_ctr_drbg_free
 218              		.syntax unified
 219              		.thumb
 220              		.thumb_func
 221              		.fpu fpv4-sp-d16
 223              	mbedtls_ctr_drbg_free:
 224              	.LFB6:
ARM GAS  C:\Users\dtjld\AppData\Local\Temp\ccfiLUAQ.s 			page 7


 126:C:/Users/dtjld/workspace/AIoT/src/LiteOS_Lab/iot_link/network/dtls/mbedtls/mbedtls-2.16.2/library\ctr_drbg.c **** 
 127:C:/Users/dtjld/workspace/AIoT/src/LiteOS_Lab/iot_link/network/dtls/mbedtls/mbedtls-2.16.2/library\ctr_drbg.c **** void mbedtls_ctr_drbg_free( mbedtls_ctr_drbg_context *ctx )
 128:C:/Users/dtjld/workspace/AIoT/src/LiteOS_Lab/iot_link/network/dtls/mbedtls/mbedtls-2.16.2/library\ctr_drbg.c **** {
 225              		.loc 1 128 0
 226              		.cfi_startproc
 227              		@ args = 0, pretend = 0, frame = 8
 228              		@ frame_needed = 1, uses_anonymous_args = 0
 229 0000 80B5     		push	{r7, lr}
 230              	.LCFI15:
 231              		.cfi_def_cfa_offset 8
 232              		.cfi_offset 7, -8
 233              		.cfi_offset 14, -4
 234 0002 82B0     		sub	sp, sp, #8
 235              	.LCFI16:
 236              		.cfi_def_cfa_offset 16
 237 0004 00AF     		add	r7, sp, #0
 238              	.LCFI17:
 239              		.cfi_def_cfa_register 7
 240 0006 7860     		str	r0, [r7, #4]
 129:C:/Users/dtjld/workspace/AIoT/src/LiteOS_Lab/iot_link/network/dtls/mbedtls/mbedtls-2.16.2/library\ctr_drbg.c ****     if( ctx == NULL )
 241              		.loc 1 129 0
 242 0008 7B68     		ldr	r3, [r7, #4]
 243 000a 002B     		cmp	r3, #0
 244 000c 0AD0     		beq	.L12
 130:C:/Users/dtjld/workspace/AIoT/src/LiteOS_Lab/iot_link/network/dtls/mbedtls/mbedtls-2.16.2/library\ctr_drbg.c ****         return;
 131:C:/Users/dtjld/workspace/AIoT/src/LiteOS_Lab/iot_link/network/dtls/mbedtls/mbedtls-2.16.2/library\ctr_drbg.c **** 
 132:C:/Users/dtjld/workspace/AIoT/src/LiteOS_Lab/iot_link/network/dtls/mbedtls/mbedtls-2.16.2/library\ctr_drbg.c **** #if defined(MBEDTLS_THREADING_C)
 133:C:/Users/dtjld/workspace/AIoT/src/LiteOS_Lab/iot_link/network/dtls/mbedtls/mbedtls-2.16.2/library\ctr_drbg.c ****     mbedtls_mutex_free( &ctx->mutex );
 134:C:/Users/dtjld/workspace/AIoT/src/LiteOS_Lab/iot_link/network/dtls/mbedtls/mbedtls-2.16.2/library\ctr_drbg.c **** #endif
 135:C:/Users/dtjld/workspace/AIoT/src/LiteOS_Lab/iot_link/network/dtls/mbedtls/mbedtls-2.16.2/library\ctr_drbg.c ****     mbedtls_aes_free( &ctx->aes_ctx );
 245              		.loc 1 135 0
 246 000e 7B68     		ldr	r3, [r7, #4]
 247 0010 2033     		adds	r3, r3, #32
 248 0012 1846     		mov	r0, r3
 249 0014 FFF7FEFF 		bl	mbedtls_aes_free
 136:C:/Users/dtjld/workspace/AIoT/src/LiteOS_Lab/iot_link/network/dtls/mbedtls/mbedtls-2.16.2/library\ctr_drbg.c ****     mbedtls_platform_zeroize( ctx, sizeof( mbedtls_ctr_drbg_context ) );
 250              		.loc 1 136 0
 251 0018 4FF4A071 		mov	r1, #320
 252 001c 7868     		ldr	r0, [r7, #4]
 253 001e FFF7FEFF 		bl	mbedtls_platform_zeroize
 254 0022 00E0     		b	.L9
 255              	.L12:
 130:C:/Users/dtjld/workspace/AIoT/src/LiteOS_Lab/iot_link/network/dtls/mbedtls/mbedtls-2.16.2/library\ctr_drbg.c ****         return;
 256              		.loc 1 130 0
 257 0024 00BF     		nop
 258              	.L9:
 137:C:/Users/dtjld/workspace/AIoT/src/LiteOS_Lab/iot_link/network/dtls/mbedtls/mbedtls-2.16.2/library\ctr_drbg.c **** }
 259              		.loc 1 137 0
 260 0026 0837     		adds	r7, r7, #8
 261              	.LCFI18:
 262              		.cfi_def_cfa_offset 8
 263 0028 BD46     		mov	sp, r7
 264              	.LCFI19:
 265              		.cfi_def_cfa_register 13
 266              		@ sp needed
 267 002a 80BD     		pop	{r7, pc}
 268              		.cfi_endproc
ARM GAS  C:\Users\dtjld\AppData\Local\Temp\ccfiLUAQ.s 			page 8


 269              	.LFE6:
 271              		.section	.text.mbedtls_ctr_drbg_set_prediction_resistance,"ax",%progbits
 272              		.align	1
 273              		.global	mbedtls_ctr_drbg_set_prediction_resistance
 274              		.syntax unified
 275              		.thumb
 276              		.thumb_func
 277              		.fpu fpv4-sp-d16
 279              	mbedtls_ctr_drbg_set_prediction_resistance:
 280              	.LFB7:
 138:C:/Users/dtjld/workspace/AIoT/src/LiteOS_Lab/iot_link/network/dtls/mbedtls/mbedtls-2.16.2/library\ctr_drbg.c **** 
 139:C:/Users/dtjld/workspace/AIoT/src/LiteOS_Lab/iot_link/network/dtls/mbedtls/mbedtls-2.16.2/library\ctr_drbg.c **** void mbedtls_ctr_drbg_set_prediction_resistance( mbedtls_ctr_drbg_context *ctx, int resistance )
 140:C:/Users/dtjld/workspace/AIoT/src/LiteOS_Lab/iot_link/network/dtls/mbedtls/mbedtls-2.16.2/library\ctr_drbg.c **** {
 281              		.loc 1 140 0
 282              		.cfi_startproc
 283              		@ args = 0, pretend = 0, frame = 8
 284              		@ frame_needed = 1, uses_anonymous_args = 0
 285              		@ link register save eliminated.
 286 0000 80B4     		push	{r7}
 287              	.LCFI20:
 288              		.cfi_def_cfa_offset 4
 289              		.cfi_offset 7, -4
 290 0002 83B0     		sub	sp, sp, #12
 291              	.LCFI21:
 292              		.cfi_def_cfa_offset 16
 293 0004 00AF     		add	r7, sp, #0
 294              	.LCFI22:
 295              		.cfi_def_cfa_register 7
 296 0006 7860     		str	r0, [r7, #4]
 297 0008 3960     		str	r1, [r7]
 141:C:/Users/dtjld/workspace/AIoT/src/LiteOS_Lab/iot_link/network/dtls/mbedtls/mbedtls-2.16.2/library\ctr_drbg.c ****     ctx->prediction_resistance = resistance;
 298              		.loc 1 141 0
 299 000a 7B68     		ldr	r3, [r7, #4]
 300 000c 3A68     		ldr	r2, [r7]
 301 000e 5A61     		str	r2, [r3, #20]
 142:C:/Users/dtjld/workspace/AIoT/src/LiteOS_Lab/iot_link/network/dtls/mbedtls/mbedtls-2.16.2/library\ctr_drbg.c **** }
 302              		.loc 1 142 0
 303 0010 00BF     		nop
 304 0012 0C37     		adds	r7, r7, #12
 305              	.LCFI23:
 306              		.cfi_def_cfa_offset 4
 307 0014 BD46     		mov	sp, r7
 308              	.LCFI24:
 309              		.cfi_def_cfa_register 13
 310              		@ sp needed
 311 0016 5DF8047B 		ldr	r7, [sp], #4
 312              	.LCFI25:
 313              		.cfi_restore 7
 314              		.cfi_def_cfa_offset 0
 315 001a 7047     		bx	lr
 316              		.cfi_endproc
 317              	.LFE7:
 319              		.section	.text.mbedtls_ctr_drbg_set_entropy_len,"ax",%progbits
 320              		.align	1
 321              		.global	mbedtls_ctr_drbg_set_entropy_len
 322              		.syntax unified
 323              		.thumb
ARM GAS  C:\Users\dtjld\AppData\Local\Temp\ccfiLUAQ.s 			page 9


 324              		.thumb_func
 325              		.fpu fpv4-sp-d16
 327              	mbedtls_ctr_drbg_set_entropy_len:
 328              	.LFB8:
 143:C:/Users/dtjld/workspace/AIoT/src/LiteOS_Lab/iot_link/network/dtls/mbedtls/mbedtls-2.16.2/library\ctr_drbg.c **** 
 144:C:/Users/dtjld/workspace/AIoT/src/LiteOS_Lab/iot_link/network/dtls/mbedtls/mbedtls-2.16.2/library\ctr_drbg.c **** void mbedtls_ctr_drbg_set_entropy_len( mbedtls_ctr_drbg_context *ctx, size_t len )
 145:C:/Users/dtjld/workspace/AIoT/src/LiteOS_Lab/iot_link/network/dtls/mbedtls/mbedtls-2.16.2/library\ctr_drbg.c **** {
 329              		.loc 1 145 0
 330              		.cfi_startproc
 331              		@ args = 0, pretend = 0, frame = 8
 332              		@ frame_needed = 1, uses_anonymous_args = 0
 333              		@ link register save eliminated.
 334 0000 80B4     		push	{r7}
 335              	.LCFI26:
 336              		.cfi_def_cfa_offset 4
 337              		.cfi_offset 7, -4
 338 0002 83B0     		sub	sp, sp, #12
 339              	.LCFI27:
 340              		.cfi_def_cfa_offset 16
 341 0004 00AF     		add	r7, sp, #0
 342              	.LCFI28:
 343              		.cfi_def_cfa_register 7
 344 0006 7860     		str	r0, [r7, #4]
 345 0008 3960     		str	r1, [r7]
 146:C:/Users/dtjld/workspace/AIoT/src/LiteOS_Lab/iot_link/network/dtls/mbedtls/mbedtls-2.16.2/library\ctr_drbg.c ****     ctx->entropy_len = len;
 346              		.loc 1 146 0
 347 000a 7B68     		ldr	r3, [r7, #4]
 348 000c 3A68     		ldr	r2, [r7]
 349 000e 9A61     		str	r2, [r3, #24]
 147:C:/Users/dtjld/workspace/AIoT/src/LiteOS_Lab/iot_link/network/dtls/mbedtls/mbedtls-2.16.2/library\ctr_drbg.c **** }
 350              		.loc 1 147 0
 351 0010 00BF     		nop
 352 0012 0C37     		adds	r7, r7, #12
 353              	.LCFI29:
 354              		.cfi_def_cfa_offset 4
 355 0014 BD46     		mov	sp, r7
 356              	.LCFI30:
 357              		.cfi_def_cfa_register 13
 358              		@ sp needed
 359 0016 5DF8047B 		ldr	r7, [sp], #4
 360              	.LCFI31:
 361              		.cfi_restore 7
 362              		.cfi_def_cfa_offset 0
 363 001a 7047     		bx	lr
 364              		.cfi_endproc
 365              	.LFE8:
 367              		.section	.text.mbedtls_ctr_drbg_set_reseed_interval,"ax",%progbits
 368              		.align	1
 369              		.global	mbedtls_ctr_drbg_set_reseed_interval
 370              		.syntax unified
 371              		.thumb
 372              		.thumb_func
 373              		.fpu fpv4-sp-d16
 375              	mbedtls_ctr_drbg_set_reseed_interval:
 376              	.LFB9:
 148:C:/Users/dtjld/workspace/AIoT/src/LiteOS_Lab/iot_link/network/dtls/mbedtls/mbedtls-2.16.2/library\ctr_drbg.c **** 
 149:C:/Users/dtjld/workspace/AIoT/src/LiteOS_Lab/iot_link/network/dtls/mbedtls/mbedtls-2.16.2/library\ctr_drbg.c **** void mbedtls_ctr_drbg_set_reseed_interval( mbedtls_ctr_drbg_context *ctx, int interval )
ARM GAS  C:\Users\dtjld\AppData\Local\Temp\ccfiLUAQ.s 			page 10


 150:C:/Users/dtjld/workspace/AIoT/src/LiteOS_Lab/iot_link/network/dtls/mbedtls/mbedtls-2.16.2/library\ctr_drbg.c **** {
 377              		.loc 1 150 0
 378              		.cfi_startproc
 379              		@ args = 0, pretend = 0, frame = 8
 380              		@ frame_needed = 1, uses_anonymous_args = 0
 381              		@ link register save eliminated.
 382 0000 80B4     		push	{r7}
 383              	.LCFI32:
 384              		.cfi_def_cfa_offset 4
 385              		.cfi_offset 7, -4
 386 0002 83B0     		sub	sp, sp, #12
 387              	.LCFI33:
 388              		.cfi_def_cfa_offset 16
 389 0004 00AF     		add	r7, sp, #0
 390              	.LCFI34:
 391              		.cfi_def_cfa_register 7
 392 0006 7860     		str	r0, [r7, #4]
 393 0008 3960     		str	r1, [r7]
 151:C:/Users/dtjld/workspace/AIoT/src/LiteOS_Lab/iot_link/network/dtls/mbedtls/mbedtls-2.16.2/library\ctr_drbg.c ****     ctx->reseed_interval = interval;
 394              		.loc 1 151 0
 395 000a 7B68     		ldr	r3, [r7, #4]
 396 000c 3A68     		ldr	r2, [r7]
 397 000e DA61     		str	r2, [r3, #28]
 152:C:/Users/dtjld/workspace/AIoT/src/LiteOS_Lab/iot_link/network/dtls/mbedtls/mbedtls-2.16.2/library\ctr_drbg.c **** }
 398              		.loc 1 152 0
 399 0010 00BF     		nop
 400 0012 0C37     		adds	r7, r7, #12
 401              	.LCFI35:
 402              		.cfi_def_cfa_offset 4
 403 0014 BD46     		mov	sp, r7
 404              	.LCFI36:
 405              		.cfi_def_cfa_register 13
 406              		@ sp needed
 407 0016 5DF8047B 		ldr	r7, [sp], #4
 408              	.LCFI37:
 409              		.cfi_restore 7
 410              		.cfi_def_cfa_offset 0
 411 001a 7047     		bx	lr
 412              		.cfi_endproc
 413              	.LFE9:
 415              		.section	.text.block_cipher_df,"ax",%progbits
 416              		.align	1
 417              		.syntax unified
 418              		.thumb
 419              		.thumb_func
 420              		.fpu fpv4-sp-d16
 422              	block_cipher_df:
 423              	.LFB10:
 153:C:/Users/dtjld/workspace/AIoT/src/LiteOS_Lab/iot_link/network/dtls/mbedtls/mbedtls-2.16.2/library\ctr_drbg.c **** 
 154:C:/Users/dtjld/workspace/AIoT/src/LiteOS_Lab/iot_link/network/dtls/mbedtls/mbedtls-2.16.2/library\ctr_drbg.c **** static int block_cipher_df( unsigned char *output,
 155:C:/Users/dtjld/workspace/AIoT/src/LiteOS_Lab/iot_link/network/dtls/mbedtls/mbedtls-2.16.2/library\ctr_drbg.c ****                             const unsigned char *data, size_t data_len )
 156:C:/Users/dtjld/workspace/AIoT/src/LiteOS_Lab/iot_link/network/dtls/mbedtls/mbedtls-2.16.2/library\ctr_drbg.c **** {
 424              		.loc 1 156 0
 425              		.cfi_startproc
 426              		@ args = 0, pretend = 0, frame = 840
 427              		@ frame_needed = 1, uses_anonymous_args = 0
 428 0000 B0B5     		push	{r4, r5, r7, lr}
ARM GAS  C:\Users\dtjld\AppData\Local\Temp\ccfiLUAQ.s 			page 11


 429              	.LCFI38:
 430              		.cfi_def_cfa_offset 16
 431              		.cfi_offset 4, -16
 432              		.cfi_offset 5, -12
 433              		.cfi_offset 7, -8
 434              		.cfi_offset 14, -4
 435 0002 ADF5527D 		sub	sp, sp, #840
 436              	.LCFI39:
 437              		.cfi_def_cfa_offset 856
 438 0006 00AF     		add	r7, sp, #0
 439              	.LCFI40:
 440              		.cfi_def_cfa_register 7
 441 0008 07F10C03 		add	r3, r7, #12
 442 000c 1860     		str	r0, [r3]
 443 000e 07F10803 		add	r3, r7, #8
 444 0012 1960     		str	r1, [r3]
 445 0014 3B1D     		adds	r3, r7, #4
 446 0016 1A60     		str	r2, [r3]
 157:C:/Users/dtjld/workspace/AIoT/src/LiteOS_Lab/iot_link/network/dtls/mbedtls/mbedtls-2.16.2/library\ctr_drbg.c ****     unsigned char buf[MBEDTLS_CTR_DRBG_MAX_SEED_INPUT + MBEDTLS_CTR_DRBG_BLOCKSIZE + 16];
 158:C:/Users/dtjld/workspace/AIoT/src/LiteOS_Lab/iot_link/network/dtls/mbedtls/mbedtls-2.16.2/library\ctr_drbg.c ****     unsigned char tmp[MBEDTLS_CTR_DRBG_SEEDLEN];
 159:C:/Users/dtjld/workspace/AIoT/src/LiteOS_Lab/iot_link/network/dtls/mbedtls/mbedtls-2.16.2/library\ctr_drbg.c ****     unsigned char key[MBEDTLS_CTR_DRBG_KEYSIZE];
 160:C:/Users/dtjld/workspace/AIoT/src/LiteOS_Lab/iot_link/network/dtls/mbedtls/mbedtls-2.16.2/library\ctr_drbg.c ****     unsigned char chain[MBEDTLS_CTR_DRBG_BLOCKSIZE];
 161:C:/Users/dtjld/workspace/AIoT/src/LiteOS_Lab/iot_link/network/dtls/mbedtls/mbedtls-2.16.2/library\ctr_drbg.c ****     unsigned char *p, *iv;
 162:C:/Users/dtjld/workspace/AIoT/src/LiteOS_Lab/iot_link/network/dtls/mbedtls/mbedtls-2.16.2/library\ctr_drbg.c ****     mbedtls_aes_context aes_ctx;
 163:C:/Users/dtjld/workspace/AIoT/src/LiteOS_Lab/iot_link/network/dtls/mbedtls/mbedtls-2.16.2/library\ctr_drbg.c ****     int ret = 0;
 447              		.loc 1 163 0
 448 0018 0023     		movs	r3, #0
 449 001a C7F84033 		str	r3, [r7, #832]
 164:C:/Users/dtjld/workspace/AIoT/src/LiteOS_Lab/iot_link/network/dtls/mbedtls/mbedtls-2.16.2/library\ctr_drbg.c **** 
 165:C:/Users/dtjld/workspace/AIoT/src/LiteOS_Lab/iot_link/network/dtls/mbedtls/mbedtls-2.16.2/library\ctr_drbg.c ****     int i, j;
 166:C:/Users/dtjld/workspace/AIoT/src/LiteOS_Lab/iot_link/network/dtls/mbedtls/mbedtls-2.16.2/library\ctr_drbg.c ****     size_t buf_len, use_len;
 167:C:/Users/dtjld/workspace/AIoT/src/LiteOS_Lab/iot_link/network/dtls/mbedtls/mbedtls-2.16.2/library\ctr_drbg.c **** 
 168:C:/Users/dtjld/workspace/AIoT/src/LiteOS_Lab/iot_link/network/dtls/mbedtls/mbedtls-2.16.2/library\ctr_drbg.c ****     if( data_len > MBEDTLS_CTR_DRBG_MAX_SEED_INPUT )
 450              		.loc 1 168 0
 451 001e 3B1D     		adds	r3, r7, #4
 452 0020 1B68     		ldr	r3, [r3]
 453 0022 B3F5C07F 		cmp	r3, #384
 454 0026 02D9     		bls	.L17
 169:C:/Users/dtjld/workspace/AIoT/src/LiteOS_Lab/iot_link/network/dtls/mbedtls/mbedtls-2.16.2/library\ctr_drbg.c ****         return( MBEDTLS_ERR_CTR_DRBG_INPUT_TOO_BIG );
 455              		.loc 1 169 0
 456 0028 6FF03703 		mvn	r3, #55
 457 002c 6AE1     		b	.L34
 458              	.L17:
 170:C:/Users/dtjld/workspace/AIoT/src/LiteOS_Lab/iot_link/network/dtls/mbedtls/mbedtls-2.16.2/library\ctr_drbg.c **** 
 171:C:/Users/dtjld/workspace/AIoT/src/LiteOS_Lab/iot_link/network/dtls/mbedtls/mbedtls-2.16.2/library\ctr_drbg.c ****     memset( buf, 0, MBEDTLS_CTR_DRBG_MAX_SEED_INPUT + MBEDTLS_CTR_DRBG_BLOCKSIZE + 16 );
 459              		.loc 1 171 0
 460 002e 07F5C673 		add	r3, r7, #396
 461 0032 4FF4D072 		mov	r2, #416
 462 0036 0021     		movs	r1, #0
 463 0038 1846     		mov	r0, r3
 464 003a FFF7FEFF 		bl	memset
 172:C:/Users/dtjld/workspace/AIoT/src/LiteOS_Lab/iot_link/network/dtls/mbedtls/mbedtls-2.16.2/library\ctr_drbg.c ****     mbedtls_aes_init( &aes_ctx );
 465              		.loc 1 172 0
 466 003e 07F11403 		add	r3, r7, #20
 467 0042 1846     		mov	r0, r3
 468 0044 FFF7FEFF 		bl	mbedtls_aes_init
 173:C:/Users/dtjld/workspace/AIoT/src/LiteOS_Lab/iot_link/network/dtls/mbedtls/mbedtls-2.16.2/library\ctr_drbg.c **** 
ARM GAS  C:\Users\dtjld\AppData\Local\Temp\ccfiLUAQ.s 			page 12


 174:C:/Users/dtjld/workspace/AIoT/src/LiteOS_Lab/iot_link/network/dtls/mbedtls/mbedtls-2.16.2/library\ctr_drbg.c ****     /*
 175:C:/Users/dtjld/workspace/AIoT/src/LiteOS_Lab/iot_link/network/dtls/mbedtls/mbedtls-2.16.2/library\ctr_drbg.c ****      * Construct IV (16 bytes) and S in buffer
 176:C:/Users/dtjld/workspace/AIoT/src/LiteOS_Lab/iot_link/network/dtls/mbedtls/mbedtls-2.16.2/library\ctr_drbg.c ****      * IV = Counter (in 32-bits) padded to 16 with zeroes
 177:C:/Users/dtjld/workspace/AIoT/src/LiteOS_Lab/iot_link/network/dtls/mbedtls/mbedtls-2.16.2/library\ctr_drbg.c ****      * S = Length input string (in 32-bits) || Length of output (in 32-bits) ||
 178:C:/Users/dtjld/workspace/AIoT/src/LiteOS_Lab/iot_link/network/dtls/mbedtls/mbedtls-2.16.2/library\ctr_drbg.c ****      *     data || 0x80
 179:C:/Users/dtjld/workspace/AIoT/src/LiteOS_Lab/iot_link/network/dtls/mbedtls/mbedtls-2.16.2/library\ctr_drbg.c ****      *     (Total is padded to a multiple of 16-bytes with zeroes)
 180:C:/Users/dtjld/workspace/AIoT/src/LiteOS_Lab/iot_link/network/dtls/mbedtls/mbedtls-2.16.2/library\ctr_drbg.c ****      */
 181:C:/Users/dtjld/workspace/AIoT/src/LiteOS_Lab/iot_link/network/dtls/mbedtls/mbedtls-2.16.2/library\ctr_drbg.c ****     p = buf + MBEDTLS_CTR_DRBG_BLOCKSIZE;
 469              		.loc 1 181 0
 470 0048 07F5C673 		add	r3, r7, #396
 471 004c 1033     		adds	r3, r3, #16
 472 004e C7F84433 		str	r3, [r7, #836]
 182:C:/Users/dtjld/workspace/AIoT/src/LiteOS_Lab/iot_link/network/dtls/mbedtls/mbedtls-2.16.2/library\ctr_drbg.c ****     *p++ = ( data_len >> 24 ) & 0xff;
 473              		.loc 1 182 0
 474 0052 3B1D     		adds	r3, r7, #4
 475 0054 1B68     		ldr	r3, [r3]
 476 0056 190E     		lsrs	r1, r3, #24
 477 0058 D7F84433 		ldr	r3, [r7, #836]
 478 005c 5A1C     		adds	r2, r3, #1
 479 005e C7F84423 		str	r2, [r7, #836]
 480 0062 CAB2     		uxtb	r2, r1
 481 0064 1A70     		strb	r2, [r3]
 183:C:/Users/dtjld/workspace/AIoT/src/LiteOS_Lab/iot_link/network/dtls/mbedtls/mbedtls-2.16.2/library\ctr_drbg.c ****     *p++ = ( data_len >> 16 ) & 0xff;
 482              		.loc 1 183 0
 483 0066 3B1D     		adds	r3, r7, #4
 484 0068 1B68     		ldr	r3, [r3]
 485 006a 190C     		lsrs	r1, r3, #16
 486 006c D7F84433 		ldr	r3, [r7, #836]
 487 0070 5A1C     		adds	r2, r3, #1
 488 0072 C7F84423 		str	r2, [r7, #836]
 489 0076 CAB2     		uxtb	r2, r1
 490 0078 1A70     		strb	r2, [r3]
 184:C:/Users/dtjld/workspace/AIoT/src/LiteOS_Lab/iot_link/network/dtls/mbedtls/mbedtls-2.16.2/library\ctr_drbg.c ****     *p++ = ( data_len >> 8  ) & 0xff;
 491              		.loc 1 184 0
 492 007a 3B1D     		adds	r3, r7, #4
 493 007c 1B68     		ldr	r3, [r3]
 494 007e 190A     		lsrs	r1, r3, #8
 495 0080 D7F84433 		ldr	r3, [r7, #836]
 496 0084 5A1C     		adds	r2, r3, #1
 497 0086 C7F84423 		str	r2, [r7, #836]
 498 008a CAB2     		uxtb	r2, r1
 499 008c 1A70     		strb	r2, [r3]
 185:C:/Users/dtjld/workspace/AIoT/src/LiteOS_Lab/iot_link/network/dtls/mbedtls/mbedtls-2.16.2/library\ctr_drbg.c ****     *p++ = ( data_len       ) & 0xff;
 500              		.loc 1 185 0
 501 008e D7F84433 		ldr	r3, [r7, #836]
 502 0092 5A1C     		adds	r2, r3, #1
 503 0094 C7F84423 		str	r2, [r7, #836]
 504 0098 3A1D     		adds	r2, r7, #4
 505 009a 1268     		ldr	r2, [r2]
 506 009c D2B2     		uxtb	r2, r2
 507 009e 1A70     		strb	r2, [r3]
 186:C:/Users/dtjld/workspace/AIoT/src/LiteOS_Lab/iot_link/network/dtls/mbedtls/mbedtls-2.16.2/library\ctr_drbg.c ****     p += 3;
 508              		.loc 1 186 0
 509 00a0 D7F84433 		ldr	r3, [r7, #836]
 510 00a4 0333     		adds	r3, r3, #3
 511 00a6 C7F84433 		str	r3, [r7, #836]
 187:C:/Users/dtjld/workspace/AIoT/src/LiteOS_Lab/iot_link/network/dtls/mbedtls/mbedtls-2.16.2/library\ctr_drbg.c ****     *p++ = MBEDTLS_CTR_DRBG_SEEDLEN;
ARM GAS  C:\Users\dtjld\AppData\Local\Temp\ccfiLUAQ.s 			page 13


 512              		.loc 1 187 0
 513 00aa D7F84433 		ldr	r3, [r7, #836]
 514 00ae 5A1C     		adds	r2, r3, #1
 515 00b0 C7F84423 		str	r2, [r7, #836]
 516 00b4 3022     		movs	r2, #48
 517 00b6 1A70     		strb	r2, [r3]
 188:C:/Users/dtjld/workspace/AIoT/src/LiteOS_Lab/iot_link/network/dtls/mbedtls/mbedtls-2.16.2/library\ctr_drbg.c ****     memcpy( p, data, data_len );
 518              		.loc 1 188 0
 519 00b8 3A1D     		adds	r2, r7, #4
 520 00ba 07F10803 		add	r3, r7, #8
 521 00be 1268     		ldr	r2, [r2]
 522 00c0 1968     		ldr	r1, [r3]
 523 00c2 D7F84403 		ldr	r0, [r7, #836]
 524 00c6 FFF7FEFF 		bl	memcpy
 189:C:/Users/dtjld/workspace/AIoT/src/LiteOS_Lab/iot_link/network/dtls/mbedtls/mbedtls-2.16.2/library\ctr_drbg.c ****     p[data_len] = 0x80;
 525              		.loc 1 189 0
 526 00ca 3B1D     		adds	r3, r7, #4
 527 00cc D7F84423 		ldr	r2, [r7, #836]
 528 00d0 1B68     		ldr	r3, [r3]
 529 00d2 1344     		add	r3, r3, r2
 530 00d4 8022     		movs	r2, #128
 531 00d6 1A70     		strb	r2, [r3]
 190:C:/Users/dtjld/workspace/AIoT/src/LiteOS_Lab/iot_link/network/dtls/mbedtls/mbedtls-2.16.2/library\ctr_drbg.c **** 
 191:C:/Users/dtjld/workspace/AIoT/src/LiteOS_Lab/iot_link/network/dtls/mbedtls/mbedtls-2.16.2/library\ctr_drbg.c ****     buf_len = MBEDTLS_CTR_DRBG_BLOCKSIZE + 8 + data_len + 1;
 532              		.loc 1 191 0
 533 00d8 3B1D     		adds	r3, r7, #4
 534 00da 1B68     		ldr	r3, [r3]
 535 00dc 1933     		adds	r3, r3, #25
 536 00de C7F83033 		str	r3, [r7, #816]
 192:C:/Users/dtjld/workspace/AIoT/src/LiteOS_Lab/iot_link/network/dtls/mbedtls/mbedtls-2.16.2/library\ctr_drbg.c **** 
 193:C:/Users/dtjld/workspace/AIoT/src/LiteOS_Lab/iot_link/network/dtls/mbedtls/mbedtls-2.16.2/library\ctr_drbg.c ****     for( i = 0; i < MBEDTLS_CTR_DRBG_KEYSIZE; i++ )
 537              		.loc 1 193 0
 538 00e2 0023     		movs	r3, #0
 539 00e4 C7F83C33 		str	r3, [r7, #828]
 540 00e8 0EE0     		b	.L19
 541              	.L20:
 194:C:/Users/dtjld/workspace/AIoT/src/LiteOS_Lab/iot_link/network/dtls/mbedtls/mbedtls-2.16.2/library\ctr_drbg.c ****         key[i] = i;
 542              		.loc 1 194 0 discriminator 3
 543 00ea D7F83C33 		ldr	r3, [r7, #828]
 544 00ee D9B2     		uxtb	r1, r3
 545 00f0 07F59E72 		add	r2, r7, #316
 546 00f4 D7F83C33 		ldr	r3, [r7, #828]
 547 00f8 1344     		add	r3, r3, r2
 548 00fa 0A46     		mov	r2, r1
 549 00fc 1A70     		strb	r2, [r3]
 193:C:/Users/dtjld/workspace/AIoT/src/LiteOS_Lab/iot_link/network/dtls/mbedtls/mbedtls-2.16.2/library\ctr_drbg.c ****         key[i] = i;
 550              		.loc 1 193 0 discriminator 3
 551 00fe D7F83C33 		ldr	r3, [r7, #828]
 552 0102 0133     		adds	r3, r3, #1
 553 0104 C7F83C33 		str	r3, [r7, #828]
 554              	.L19:
 193:C:/Users/dtjld/workspace/AIoT/src/LiteOS_Lab/iot_link/network/dtls/mbedtls/mbedtls-2.16.2/library\ctr_drbg.c ****         key[i] = i;
 555              		.loc 1 193 0 is_stmt 0 discriminator 1
 556 0108 D7F83C33 		ldr	r3, [r7, #828]
 557 010c 1F2B     		cmp	r3, #31
 558 010e ECDD     		ble	.L20
 195:C:/Users/dtjld/workspace/AIoT/src/LiteOS_Lab/iot_link/network/dtls/mbedtls/mbedtls-2.16.2/library\ctr_drbg.c **** 
ARM GAS  C:\Users\dtjld\AppData\Local\Temp\ccfiLUAQ.s 			page 14


 196:C:/Users/dtjld/workspace/AIoT/src/LiteOS_Lab/iot_link/network/dtls/mbedtls/mbedtls-2.16.2/library\ctr_drbg.c ****     if( ( ret = mbedtls_aes_setkey_enc( &aes_ctx, key, MBEDTLS_CTR_DRBG_KEYBITS ) ) != 0 )
 559              		.loc 1 196 0 is_stmt 1
 560 0110 07F59E71 		add	r1, r7, #316
 561 0114 07F11403 		add	r3, r7, #20
 562 0118 4FF48072 		mov	r2, #256
 563 011c 1846     		mov	r0, r3
 564 011e FFF7FEFF 		bl	mbedtls_aes_setkey_enc
 565 0122 C7F84003 		str	r0, [r7, #832]
 566 0126 D7F84033 		ldr	r3, [r7, #832]
 567 012a 002B     		cmp	r3, #0
 568 012c 40F0B980 		bne	.L35
 197:C:/Users/dtjld/workspace/AIoT/src/LiteOS_Lab/iot_link/network/dtls/mbedtls/mbedtls-2.16.2/library\ctr_drbg.c ****     {
 198:C:/Users/dtjld/workspace/AIoT/src/LiteOS_Lab/iot_link/network/dtls/mbedtls/mbedtls-2.16.2/library\ctr_drbg.c ****         goto exit;
 199:C:/Users/dtjld/workspace/AIoT/src/LiteOS_Lab/iot_link/network/dtls/mbedtls/mbedtls-2.16.2/library\ctr_drbg.c ****     }
 200:C:/Users/dtjld/workspace/AIoT/src/LiteOS_Lab/iot_link/network/dtls/mbedtls/mbedtls-2.16.2/library\ctr_drbg.c **** 
 201:C:/Users/dtjld/workspace/AIoT/src/LiteOS_Lab/iot_link/network/dtls/mbedtls/mbedtls-2.16.2/library\ctr_drbg.c ****     /*
 202:C:/Users/dtjld/workspace/AIoT/src/LiteOS_Lab/iot_link/network/dtls/mbedtls/mbedtls-2.16.2/library\ctr_drbg.c ****      * Reduce data to MBEDTLS_CTR_DRBG_SEEDLEN bytes of data
 203:C:/Users/dtjld/workspace/AIoT/src/LiteOS_Lab/iot_link/network/dtls/mbedtls/mbedtls-2.16.2/library\ctr_drbg.c ****      */
 204:C:/Users/dtjld/workspace/AIoT/src/LiteOS_Lab/iot_link/network/dtls/mbedtls/mbedtls-2.16.2/library\ctr_drbg.c ****     for( j = 0; j < MBEDTLS_CTR_DRBG_SEEDLEN; j += MBEDTLS_CTR_DRBG_BLOCKSIZE )
 569              		.loc 1 204 0
 570 0130 0023     		movs	r3, #0
 571 0132 C7F83833 		str	r3, [r7, #824]
 572 0136 6EE0     		b	.L23
 573              	.L28:
 205:C:/Users/dtjld/workspace/AIoT/src/LiteOS_Lab/iot_link/network/dtls/mbedtls/mbedtls-2.16.2/library\ctr_drbg.c ****     {
 206:C:/Users/dtjld/workspace/AIoT/src/LiteOS_Lab/iot_link/network/dtls/mbedtls/mbedtls-2.16.2/library\ctr_drbg.c ****         p = buf;
 574              		.loc 1 206 0
 575 0138 07F5C673 		add	r3, r7, #396
 576 013c C7F84433 		str	r3, [r7, #836]
 207:C:/Users/dtjld/workspace/AIoT/src/LiteOS_Lab/iot_link/network/dtls/mbedtls/mbedtls-2.16.2/library\ctr_drbg.c ****         memset( chain, 0, MBEDTLS_CTR_DRBG_BLOCKSIZE );
 577              		.loc 1 207 0
 578 0140 07F59673 		add	r3, r7, #300
 579 0144 1022     		movs	r2, #16
 580 0146 0021     		movs	r1, #0
 581 0148 1846     		mov	r0, r3
 582 014a FFF7FEFF 		bl	memset
 208:C:/Users/dtjld/workspace/AIoT/src/LiteOS_Lab/iot_link/network/dtls/mbedtls/mbedtls-2.16.2/library\ctr_drbg.c ****         use_len = buf_len;
 583              		.loc 1 208 0
 584 014e D7F83033 		ldr	r3, [r7, #816]
 585 0152 C7F83433 		str	r3, [r7, #820]
 209:C:/Users/dtjld/workspace/AIoT/src/LiteOS_Lab/iot_link/network/dtls/mbedtls/mbedtls-2.16.2/library\ctr_drbg.c **** 
 210:C:/Users/dtjld/workspace/AIoT/src/LiteOS_Lab/iot_link/network/dtls/mbedtls/mbedtls-2.16.2/library\ctr_drbg.c ****         while( use_len > 0 )
 586              		.loc 1 210 0
 587 0156 3FE0     		b	.L24
 588              	.L27:
 211:C:/Users/dtjld/workspace/AIoT/src/LiteOS_Lab/iot_link/network/dtls/mbedtls/mbedtls-2.16.2/library\ctr_drbg.c ****         {
 212:C:/Users/dtjld/workspace/AIoT/src/LiteOS_Lab/iot_link/network/dtls/mbedtls/mbedtls-2.16.2/library\ctr_drbg.c ****             for( i = 0; i < MBEDTLS_CTR_DRBG_BLOCKSIZE; i++ )
 589              		.loc 1 212 0
 590 0158 0023     		movs	r3, #0
 591 015a C7F83C33 		str	r3, [r7, #828]
 592 015e 19E0     		b	.L25
 593              	.L26:
 213:C:/Users/dtjld/workspace/AIoT/src/LiteOS_Lab/iot_link/network/dtls/mbedtls/mbedtls-2.16.2/library\ctr_drbg.c ****                 chain[i] ^= p[i];
 594              		.loc 1 213 0 discriminator 3
 595 0160 07F59672 		add	r2, r7, #300
 596 0164 D7F83C33 		ldr	r3, [r7, #828]
 597 0168 1344     		add	r3, r3, r2
ARM GAS  C:\Users\dtjld\AppData\Local\Temp\ccfiLUAQ.s 			page 15


 598 016a 1A78     		ldrb	r2, [r3]	@ zero_extendqisi2
 599 016c D7F83C33 		ldr	r3, [r7, #828]
 600 0170 D7F84413 		ldr	r1, [r7, #836]
 601 0174 0B44     		add	r3, r3, r1
 602 0176 1B78     		ldrb	r3, [r3]	@ zero_extendqisi2
 603 0178 5340     		eors	r3, r3, r2
 604 017a D9B2     		uxtb	r1, r3
 605 017c 07F59672 		add	r2, r7, #300
 606 0180 D7F83C33 		ldr	r3, [r7, #828]
 607 0184 1344     		add	r3, r3, r2
 608 0186 0A46     		mov	r2, r1
 609 0188 1A70     		strb	r2, [r3]
 212:C:/Users/dtjld/workspace/AIoT/src/LiteOS_Lab/iot_link/network/dtls/mbedtls/mbedtls-2.16.2/library\ctr_drbg.c ****                 chain[i] ^= p[i];
 610              		.loc 1 212 0 discriminator 3
 611 018a D7F83C33 		ldr	r3, [r7, #828]
 612 018e 0133     		adds	r3, r3, #1
 613 0190 C7F83C33 		str	r3, [r7, #828]
 614              	.L25:
 212:C:/Users/dtjld/workspace/AIoT/src/LiteOS_Lab/iot_link/network/dtls/mbedtls/mbedtls-2.16.2/library\ctr_drbg.c ****                 chain[i] ^= p[i];
 615              		.loc 1 212 0 is_stmt 0 discriminator 1
 616 0194 D7F83C33 		ldr	r3, [r7, #828]
 617 0198 0F2B     		cmp	r3, #15
 618 019a E1DD     		ble	.L26
 214:C:/Users/dtjld/workspace/AIoT/src/LiteOS_Lab/iot_link/network/dtls/mbedtls/mbedtls-2.16.2/library\ctr_drbg.c ****             p += MBEDTLS_CTR_DRBG_BLOCKSIZE;
 619              		.loc 1 214 0 is_stmt 1
 620 019c D7F84433 		ldr	r3, [r7, #836]
 621 01a0 1033     		adds	r3, r3, #16
 622 01a2 C7F84433 		str	r3, [r7, #836]
 215:C:/Users/dtjld/workspace/AIoT/src/LiteOS_Lab/iot_link/network/dtls/mbedtls/mbedtls-2.16.2/library\ctr_drbg.c ****             use_len -= ( use_len >= MBEDTLS_CTR_DRBG_BLOCKSIZE ) ?
 216:C:/Users/dtjld/workspace/AIoT/src/LiteOS_Lab/iot_link/network/dtls/mbedtls/mbedtls-2.16.2/library\ctr_drbg.c ****                        MBEDTLS_CTR_DRBG_BLOCKSIZE : use_len;
 623              		.loc 1 216 0
 624 01a6 D7F83433 		ldr	r3, [r7, #820]
 625 01aa 102B     		cmp	r3, #16
 626 01ac 28BF     		it	cs
 627 01ae 1023     		movcs	r3, #16
 215:C:/Users/dtjld/workspace/AIoT/src/LiteOS_Lab/iot_link/network/dtls/mbedtls/mbedtls-2.16.2/library\ctr_drbg.c ****             use_len -= ( use_len >= MBEDTLS_CTR_DRBG_BLOCKSIZE ) ?
 628              		.loc 1 215 0
 629 01b0 D7F83423 		ldr	r2, [r7, #820]
 630 01b4 D31A     		subs	r3, r2, r3
 631 01b6 C7F83433 		str	r3, [r7, #820]
 217:C:/Users/dtjld/workspace/AIoT/src/LiteOS_Lab/iot_link/network/dtls/mbedtls/mbedtls-2.16.2/library\ctr_drbg.c **** 
 218:C:/Users/dtjld/workspace/AIoT/src/LiteOS_Lab/iot_link/network/dtls/mbedtls/mbedtls-2.16.2/library\ctr_drbg.c ****             if( ( ret = mbedtls_aes_crypt_ecb( &aes_ctx, MBEDTLS_AES_ENCRYPT, chain, chain ) ) != 0
 632              		.loc 1 218 0
 633 01ba 07F59673 		add	r3, r7, #300
 634 01be 07F59672 		add	r2, r7, #300
 635 01c2 07F11400 		add	r0, r7, #20
 636 01c6 0121     		movs	r1, #1
 637 01c8 FFF7FEFF 		bl	mbedtls_aes_crypt_ecb
 638 01cc C7F84003 		str	r0, [r7, #832]
 639 01d0 D7F84033 		ldr	r3, [r7, #832]
 640 01d4 002B     		cmp	r3, #0
 641 01d6 66D1     		bne	.L36
 642              	.L24:
 210:C:/Users/dtjld/workspace/AIoT/src/LiteOS_Lab/iot_link/network/dtls/mbedtls/mbedtls-2.16.2/library\ctr_drbg.c ****         {
 643              		.loc 1 210 0
 644 01d8 D7F83433 		ldr	r3, [r7, #820]
 645 01dc 002B     		cmp	r3, #0
ARM GAS  C:\Users\dtjld\AppData\Local\Temp\ccfiLUAQ.s 			page 16


 646 01de BBD1     		bne	.L27
 219:C:/Users/dtjld/workspace/AIoT/src/LiteOS_Lab/iot_link/network/dtls/mbedtls/mbedtls-2.16.2/library\ctr_drbg.c ****             {
 220:C:/Users/dtjld/workspace/AIoT/src/LiteOS_Lab/iot_link/network/dtls/mbedtls/mbedtls-2.16.2/library\ctr_drbg.c ****                 goto exit;
 221:C:/Users/dtjld/workspace/AIoT/src/LiteOS_Lab/iot_link/network/dtls/mbedtls/mbedtls-2.16.2/library\ctr_drbg.c ****             }
 222:C:/Users/dtjld/workspace/AIoT/src/LiteOS_Lab/iot_link/network/dtls/mbedtls/mbedtls-2.16.2/library\ctr_drbg.c ****         }
 223:C:/Users/dtjld/workspace/AIoT/src/LiteOS_Lab/iot_link/network/dtls/mbedtls/mbedtls-2.16.2/library\ctr_drbg.c **** 
 224:C:/Users/dtjld/workspace/AIoT/src/LiteOS_Lab/iot_link/network/dtls/mbedtls/mbedtls-2.16.2/library\ctr_drbg.c ****         memcpy( tmp + j, chain, MBEDTLS_CTR_DRBG_BLOCKSIZE );
 647              		.loc 1 224 0 discriminator 2
 648 01e0 D7F83833 		ldr	r3, [r7, #824]
 649 01e4 07F5AE72 		add	r2, r7, #348
 650 01e8 1A44     		add	r2, r2, r3
 651 01ea 07F59673 		add	r3, r7, #300
 652 01ee 1446     		mov	r4, r2
 653 01f0 1D46     		mov	r5, r3
 654 01f2 0FCD     		ldmia	r5!, {r0, r1, r2, r3}
 655 01f4 2060     		str	r0, [r4]	@ unaligned
 656 01f6 6160     		str	r1, [r4, #4]	@ unaligned
 657 01f8 A260     		str	r2, [r4, #8]	@ unaligned
 658 01fa E360     		str	r3, [r4, #12]	@ unaligned
 225:C:/Users/dtjld/workspace/AIoT/src/LiteOS_Lab/iot_link/network/dtls/mbedtls/mbedtls-2.16.2/library\ctr_drbg.c **** 
 226:C:/Users/dtjld/workspace/AIoT/src/LiteOS_Lab/iot_link/network/dtls/mbedtls/mbedtls-2.16.2/library\ctr_drbg.c ****         /*
 227:C:/Users/dtjld/workspace/AIoT/src/LiteOS_Lab/iot_link/network/dtls/mbedtls/mbedtls-2.16.2/library\ctr_drbg.c ****          * Update IV
 228:C:/Users/dtjld/workspace/AIoT/src/LiteOS_Lab/iot_link/network/dtls/mbedtls/mbedtls-2.16.2/library\ctr_drbg.c ****          */
 229:C:/Users/dtjld/workspace/AIoT/src/LiteOS_Lab/iot_link/network/dtls/mbedtls/mbedtls-2.16.2/library\ctr_drbg.c ****         buf[3]++;
 659              		.loc 1 229 0 discriminator 2
 660 01fc 07F5C673 		add	r3, r7, #396
 661 0200 DB78     		ldrb	r3, [r3, #3]	@ zero_extendqisi2
 662 0202 0133     		adds	r3, r3, #1
 663 0204 DAB2     		uxtb	r2, r3
 664 0206 07F5C673 		add	r3, r7, #396
 665 020a DA70     		strb	r2, [r3, #3]
 204:C:/Users/dtjld/workspace/AIoT/src/LiteOS_Lab/iot_link/network/dtls/mbedtls/mbedtls-2.16.2/library\ctr_drbg.c ****     {
 666              		.loc 1 204 0 discriminator 2
 667 020c D7F83833 		ldr	r3, [r7, #824]
 668 0210 1033     		adds	r3, r3, #16
 669 0212 C7F83833 		str	r3, [r7, #824]
 670              	.L23:
 204:C:/Users/dtjld/workspace/AIoT/src/LiteOS_Lab/iot_link/network/dtls/mbedtls/mbedtls-2.16.2/library\ctr_drbg.c ****     {
 671              		.loc 1 204 0 is_stmt 0 discriminator 1
 672 0216 D7F83833 		ldr	r3, [r7, #824]
 673 021a 2F2B     		cmp	r3, #47
 674 021c 8CDD     		ble	.L28
 230:C:/Users/dtjld/workspace/AIoT/src/LiteOS_Lab/iot_link/network/dtls/mbedtls/mbedtls-2.16.2/library\ctr_drbg.c ****     }
 231:C:/Users/dtjld/workspace/AIoT/src/LiteOS_Lab/iot_link/network/dtls/mbedtls/mbedtls-2.16.2/library\ctr_drbg.c **** 
 232:C:/Users/dtjld/workspace/AIoT/src/LiteOS_Lab/iot_link/network/dtls/mbedtls/mbedtls-2.16.2/library\ctr_drbg.c ****     /*
 233:C:/Users/dtjld/workspace/AIoT/src/LiteOS_Lab/iot_link/network/dtls/mbedtls/mbedtls-2.16.2/library\ctr_drbg.c ****      * Do final encryption with reduced data
 234:C:/Users/dtjld/workspace/AIoT/src/LiteOS_Lab/iot_link/network/dtls/mbedtls/mbedtls-2.16.2/library\ctr_drbg.c ****      */
 235:C:/Users/dtjld/workspace/AIoT/src/LiteOS_Lab/iot_link/network/dtls/mbedtls/mbedtls-2.16.2/library\ctr_drbg.c ****     if( ( ret = mbedtls_aes_setkey_enc( &aes_ctx, tmp, MBEDTLS_CTR_DRBG_KEYBITS ) ) != 0 )
 675              		.loc 1 235 0 is_stmt 1
 676 021e 07F5AE71 		add	r1, r7, #348
 677 0222 07F11403 		add	r3, r7, #20
 678 0226 4FF48072 		mov	r2, #256
 679 022a 1846     		mov	r0, r3
 680 022c FFF7FEFF 		bl	mbedtls_aes_setkey_enc
 681 0230 C7F84003 		str	r0, [r7, #832]
 682 0234 D7F84033 		ldr	r3, [r7, #832]
 683 0238 002B     		cmp	r3, #0
ARM GAS  C:\Users\dtjld\AppData\Local\Temp\ccfiLUAQ.s 			page 17


 684 023a 36D1     		bne	.L37
 236:C:/Users/dtjld/workspace/AIoT/src/LiteOS_Lab/iot_link/network/dtls/mbedtls/mbedtls-2.16.2/library\ctr_drbg.c ****     {
 237:C:/Users/dtjld/workspace/AIoT/src/LiteOS_Lab/iot_link/network/dtls/mbedtls/mbedtls-2.16.2/library\ctr_drbg.c ****         goto exit;
 238:C:/Users/dtjld/workspace/AIoT/src/LiteOS_Lab/iot_link/network/dtls/mbedtls/mbedtls-2.16.2/library\ctr_drbg.c ****     }
 239:C:/Users/dtjld/workspace/AIoT/src/LiteOS_Lab/iot_link/network/dtls/mbedtls/mbedtls-2.16.2/library\ctr_drbg.c ****     iv = tmp + MBEDTLS_CTR_DRBG_KEYSIZE;
 685              		.loc 1 239 0
 686 023c 07F5AE73 		add	r3, r7, #348
 687 0240 2033     		adds	r3, r3, #32
 688 0242 C7F82C33 		str	r3, [r7, #812]
 240:C:/Users/dtjld/workspace/AIoT/src/LiteOS_Lab/iot_link/network/dtls/mbedtls/mbedtls-2.16.2/library\ctr_drbg.c ****     p = output;
 689              		.loc 1 240 0
 690 0246 07F10C03 		add	r3, r7, #12
 691 024a 1B68     		ldr	r3, [r3]
 692 024c C7F84433 		str	r3, [r7, #836]
 241:C:/Users/dtjld/workspace/AIoT/src/LiteOS_Lab/iot_link/network/dtls/mbedtls/mbedtls-2.16.2/library\ctr_drbg.c **** 
 242:C:/Users/dtjld/workspace/AIoT/src/LiteOS_Lab/iot_link/network/dtls/mbedtls/mbedtls-2.16.2/library\ctr_drbg.c ****     for( j = 0; j < MBEDTLS_CTR_DRBG_SEEDLEN; j += MBEDTLS_CTR_DRBG_BLOCKSIZE )
 693              		.loc 1 242 0
 694 0250 0023     		movs	r3, #0
 695 0252 C7F83833 		str	r3, [r7, #824]
 696 0256 1FE0     		b	.L30
 697              	.L32:
 243:C:/Users/dtjld/workspace/AIoT/src/LiteOS_Lab/iot_link/network/dtls/mbedtls/mbedtls-2.16.2/library\ctr_drbg.c ****     {
 244:C:/Users/dtjld/workspace/AIoT/src/LiteOS_Lab/iot_link/network/dtls/mbedtls/mbedtls-2.16.2/library\ctr_drbg.c ****         if( ( ret = mbedtls_aes_crypt_ecb( &aes_ctx, MBEDTLS_AES_ENCRYPT, iv, iv ) ) != 0 )
 698              		.loc 1 244 0
 699 0258 07F11400 		add	r0, r7, #20
 700 025c D7F82C33 		ldr	r3, [r7, #812]
 701 0260 D7F82C23 		ldr	r2, [r7, #812]
 702 0264 0121     		movs	r1, #1
 703 0266 FFF7FEFF 		bl	mbedtls_aes_crypt_ecb
 704 026a C7F84003 		str	r0, [r7, #832]
 705 026e D7F84033 		ldr	r3, [r7, #832]
 706 0272 002B     		cmp	r3, #0
 707 0274 1BD1     		bne	.L38
 245:C:/Users/dtjld/workspace/AIoT/src/LiteOS_Lab/iot_link/network/dtls/mbedtls/mbedtls-2.16.2/library\ctr_drbg.c ****         {
 246:C:/Users/dtjld/workspace/AIoT/src/LiteOS_Lab/iot_link/network/dtls/mbedtls/mbedtls-2.16.2/library\ctr_drbg.c ****             goto exit;
 247:C:/Users/dtjld/workspace/AIoT/src/LiteOS_Lab/iot_link/network/dtls/mbedtls/mbedtls-2.16.2/library\ctr_drbg.c ****         }
 248:C:/Users/dtjld/workspace/AIoT/src/LiteOS_Lab/iot_link/network/dtls/mbedtls/mbedtls-2.16.2/library\ctr_drbg.c ****         memcpy( p, iv, MBEDTLS_CTR_DRBG_BLOCKSIZE );
 708              		.loc 1 248 0 discriminator 2
 709 0276 1022     		movs	r2, #16
 710 0278 D7F82C13 		ldr	r1, [r7, #812]
 711 027c D7F84403 		ldr	r0, [r7, #836]
 712 0280 FFF7FEFF 		bl	memcpy
 249:C:/Users/dtjld/workspace/AIoT/src/LiteOS_Lab/iot_link/network/dtls/mbedtls/mbedtls-2.16.2/library\ctr_drbg.c ****         p += MBEDTLS_CTR_DRBG_BLOCKSIZE;
 713              		.loc 1 249 0 discriminator 2
 714 0284 D7F84433 		ldr	r3, [r7, #836]
 715 0288 1033     		adds	r3, r3, #16
 716 028a C7F84433 		str	r3, [r7, #836]
 242:C:/Users/dtjld/workspace/AIoT/src/LiteOS_Lab/iot_link/network/dtls/mbedtls/mbedtls-2.16.2/library\ctr_drbg.c ****     {
 717              		.loc 1 242 0 discriminator 2
 718 028e D7F83833 		ldr	r3, [r7, #824]
 719 0292 1033     		adds	r3, r3, #16
 720 0294 C7F83833 		str	r3, [r7, #824]
 721              	.L30:
 242:C:/Users/dtjld/workspace/AIoT/src/LiteOS_Lab/iot_link/network/dtls/mbedtls/mbedtls-2.16.2/library\ctr_drbg.c ****     {
 722              		.loc 1 242 0 is_stmt 0 discriminator 1
 723 0298 D7F83833 		ldr	r3, [r7, #824]
 724 029c 2F2B     		cmp	r3, #47
ARM GAS  C:\Users\dtjld\AppData\Local\Temp\ccfiLUAQ.s 			page 18


 725 029e DBDD     		ble	.L32
 250:C:/Users/dtjld/workspace/AIoT/src/LiteOS_Lab/iot_link/network/dtls/mbedtls/mbedtls-2.16.2/library\ctr_drbg.c ****     }
 251:C:/Users/dtjld/workspace/AIoT/src/LiteOS_Lab/iot_link/network/dtls/mbedtls/mbedtls-2.16.2/library\ctr_drbg.c **** exit:
 726              		.loc 1 251 0 is_stmt 1
 727 02a0 06E0     		b	.L22
 728              	.L35:
 198:C:/Users/dtjld/workspace/AIoT/src/LiteOS_Lab/iot_link/network/dtls/mbedtls/mbedtls-2.16.2/library\ctr_drbg.c ****     }
 729              		.loc 1 198 0
 730 02a2 00BF     		nop
 731 02a4 04E0     		b	.L22
 732              	.L36:
 220:C:/Users/dtjld/workspace/AIoT/src/LiteOS_Lab/iot_link/network/dtls/mbedtls/mbedtls-2.16.2/library\ctr_drbg.c ****             }
 733              		.loc 1 220 0
 734 02a6 00BF     		nop
 735 02a8 02E0     		b	.L22
 736              	.L37:
 237:C:/Users/dtjld/workspace/AIoT/src/LiteOS_Lab/iot_link/network/dtls/mbedtls/mbedtls-2.16.2/library\ctr_drbg.c ****     }
 737              		.loc 1 237 0
 738 02aa 00BF     		nop
 739 02ac 00E0     		b	.L22
 740              	.L38:
 246:C:/Users/dtjld/workspace/AIoT/src/LiteOS_Lab/iot_link/network/dtls/mbedtls/mbedtls-2.16.2/library\ctr_drbg.c ****         }
 741              		.loc 1 246 0
 742 02ae 00BF     		nop
 743              	.L22:
 252:C:/Users/dtjld/workspace/AIoT/src/LiteOS_Lab/iot_link/network/dtls/mbedtls/mbedtls-2.16.2/library\ctr_drbg.c ****     mbedtls_aes_free( &aes_ctx );
 744              		.loc 1 252 0
 745 02b0 07F11403 		add	r3, r7, #20
 746 02b4 1846     		mov	r0, r3
 747 02b6 FFF7FEFF 		bl	mbedtls_aes_free
 253:C:/Users/dtjld/workspace/AIoT/src/LiteOS_Lab/iot_link/network/dtls/mbedtls/mbedtls-2.16.2/library\ctr_drbg.c ****     /*
 254:C:/Users/dtjld/workspace/AIoT/src/LiteOS_Lab/iot_link/network/dtls/mbedtls/mbedtls-2.16.2/library\ctr_drbg.c ****     * tidy up the stack
 255:C:/Users/dtjld/workspace/AIoT/src/LiteOS_Lab/iot_link/network/dtls/mbedtls/mbedtls-2.16.2/library\ctr_drbg.c ****     */
 256:C:/Users/dtjld/workspace/AIoT/src/LiteOS_Lab/iot_link/network/dtls/mbedtls/mbedtls-2.16.2/library\ctr_drbg.c ****     mbedtls_platform_zeroize( buf, sizeof( buf ) );
 748              		.loc 1 256 0
 749 02ba 07F5C673 		add	r3, r7, #396
 750 02be 4FF4D071 		mov	r1, #416
 751 02c2 1846     		mov	r0, r3
 752 02c4 FFF7FEFF 		bl	mbedtls_platform_zeroize
 257:C:/Users/dtjld/workspace/AIoT/src/LiteOS_Lab/iot_link/network/dtls/mbedtls/mbedtls-2.16.2/library\ctr_drbg.c ****     mbedtls_platform_zeroize( tmp, sizeof( tmp ) );
 753              		.loc 1 257 0
 754 02c8 07F5AE73 		add	r3, r7, #348
 755 02cc 3021     		movs	r1, #48
 756 02ce 1846     		mov	r0, r3
 757 02d0 FFF7FEFF 		bl	mbedtls_platform_zeroize
 258:C:/Users/dtjld/workspace/AIoT/src/LiteOS_Lab/iot_link/network/dtls/mbedtls/mbedtls-2.16.2/library\ctr_drbg.c ****     mbedtls_platform_zeroize( key, sizeof( key ) );
 758              		.loc 1 258 0
 759 02d4 07F59E73 		add	r3, r7, #316
 760 02d8 2021     		movs	r1, #32
 761 02da 1846     		mov	r0, r3
 762 02dc FFF7FEFF 		bl	mbedtls_platform_zeroize
 259:C:/Users/dtjld/workspace/AIoT/src/LiteOS_Lab/iot_link/network/dtls/mbedtls/mbedtls-2.16.2/library\ctr_drbg.c ****     mbedtls_platform_zeroize( chain, sizeof( chain ) );
 763              		.loc 1 259 0
 764 02e0 07F59673 		add	r3, r7, #300
 765 02e4 1021     		movs	r1, #16
 766 02e6 1846     		mov	r0, r3
 767 02e8 FFF7FEFF 		bl	mbedtls_platform_zeroize
ARM GAS  C:\Users\dtjld\AppData\Local\Temp\ccfiLUAQ.s 			page 19


 260:C:/Users/dtjld/workspace/AIoT/src/LiteOS_Lab/iot_link/network/dtls/mbedtls/mbedtls-2.16.2/library\ctr_drbg.c ****     if( 0 != ret )
 768              		.loc 1 260 0
 769 02ec D7F84033 		ldr	r3, [r7, #832]
 770 02f0 002B     		cmp	r3, #0
 771 02f2 05D0     		beq	.L33
 261:C:/Users/dtjld/workspace/AIoT/src/LiteOS_Lab/iot_link/network/dtls/mbedtls/mbedtls-2.16.2/library\ctr_drbg.c ****     {
 262:C:/Users/dtjld/workspace/AIoT/src/LiteOS_Lab/iot_link/network/dtls/mbedtls/mbedtls-2.16.2/library\ctr_drbg.c ****         /*
 263:C:/Users/dtjld/workspace/AIoT/src/LiteOS_Lab/iot_link/network/dtls/mbedtls/mbedtls-2.16.2/library\ctr_drbg.c ****         * wipe partial seed from memory
 264:C:/Users/dtjld/workspace/AIoT/src/LiteOS_Lab/iot_link/network/dtls/mbedtls/mbedtls-2.16.2/library\ctr_drbg.c ****         */
 265:C:/Users/dtjld/workspace/AIoT/src/LiteOS_Lab/iot_link/network/dtls/mbedtls/mbedtls-2.16.2/library\ctr_drbg.c ****         mbedtls_platform_zeroize( output, MBEDTLS_CTR_DRBG_SEEDLEN );
 772              		.loc 1 265 0
 773 02f4 07F10C03 		add	r3, r7, #12
 774 02f8 3021     		movs	r1, #48
 775 02fa 1868     		ldr	r0, [r3]
 776 02fc FFF7FEFF 		bl	mbedtls_platform_zeroize
 777              	.L33:
 266:C:/Users/dtjld/workspace/AIoT/src/LiteOS_Lab/iot_link/network/dtls/mbedtls/mbedtls-2.16.2/library\ctr_drbg.c ****     }
 267:C:/Users/dtjld/workspace/AIoT/src/LiteOS_Lab/iot_link/network/dtls/mbedtls/mbedtls-2.16.2/library\ctr_drbg.c **** 
 268:C:/Users/dtjld/workspace/AIoT/src/LiteOS_Lab/iot_link/network/dtls/mbedtls/mbedtls-2.16.2/library\ctr_drbg.c ****     return( ret );
 778              		.loc 1 268 0
 779 0300 D7F84033 		ldr	r3, [r7, #832]
 780              	.L34:
 269:C:/Users/dtjld/workspace/AIoT/src/LiteOS_Lab/iot_link/network/dtls/mbedtls/mbedtls-2.16.2/library\ctr_drbg.c **** }
 781              		.loc 1 269 0 discriminator 1
 782 0304 1846     		mov	r0, r3
 783 0306 07F55277 		add	r7, r7, #840
 784              	.LCFI41:
 785              		.cfi_def_cfa_offset 16
 786 030a BD46     		mov	sp, r7
 787              	.LCFI42:
 788              		.cfi_def_cfa_register 13
 789              		@ sp needed
 790 030c B0BD     		pop	{r4, r5, r7, pc}
 791              		.cfi_endproc
 792              	.LFE10:
 794              		.section	.text.ctr_drbg_update_internal,"ax",%progbits
 795              		.align	1
 796              		.syntax unified
 797              		.thumb
 798              		.thumb_func
 799              		.fpu fpv4-sp-d16
 801              	ctr_drbg_update_internal:
 802              	.LFB11:
 270:C:/Users/dtjld/workspace/AIoT/src/LiteOS_Lab/iot_link/network/dtls/mbedtls/mbedtls-2.16.2/library\ctr_drbg.c **** 
 271:C:/Users/dtjld/workspace/AIoT/src/LiteOS_Lab/iot_link/network/dtls/mbedtls/mbedtls-2.16.2/library\ctr_drbg.c **** /* CTR_DRBG_Update (SP 800-90A &sect;10.2.1.2)
 272:C:/Users/dtjld/workspace/AIoT/src/LiteOS_Lab/iot_link/network/dtls/mbedtls/mbedtls-2.16.2/library\ctr_drbg.c ****  * ctr_drbg_update_internal(ctx, provided_data)
 273:C:/Users/dtjld/workspace/AIoT/src/LiteOS_Lab/iot_link/network/dtls/mbedtls/mbedtls-2.16.2/library\ctr_drbg.c ****  * implements
 274:C:/Users/dtjld/workspace/AIoT/src/LiteOS_Lab/iot_link/network/dtls/mbedtls/mbedtls-2.16.2/library\ctr_drbg.c ****  * CTR_DRBG_Update(provided_data, Key, V)
 275:C:/Users/dtjld/workspace/AIoT/src/LiteOS_Lab/iot_link/network/dtls/mbedtls/mbedtls-2.16.2/library\ctr_drbg.c ****  * with inputs and outputs
 276:C:/Users/dtjld/workspace/AIoT/src/LiteOS_Lab/iot_link/network/dtls/mbedtls/mbedtls-2.16.2/library\ctr_drbg.c ****  *   ctx->aes_ctx = Key
 277:C:/Users/dtjld/workspace/AIoT/src/LiteOS_Lab/iot_link/network/dtls/mbedtls/mbedtls-2.16.2/library\ctr_drbg.c ****  *   ctx->counter = V
 278:C:/Users/dtjld/workspace/AIoT/src/LiteOS_Lab/iot_link/network/dtls/mbedtls/mbedtls-2.16.2/library\ctr_drbg.c ****  */
 279:C:/Users/dtjld/workspace/AIoT/src/LiteOS_Lab/iot_link/network/dtls/mbedtls/mbedtls-2.16.2/library\ctr_drbg.c **** static int ctr_drbg_update_internal( mbedtls_ctr_drbg_context *ctx,
 280:C:/Users/dtjld/workspace/AIoT/src/LiteOS_Lab/iot_link/network/dtls/mbedtls/mbedtls-2.16.2/library\ctr_drbg.c ****                               const unsigned char data[MBEDTLS_CTR_DRBG_SEEDLEN] )
 281:C:/Users/dtjld/workspace/AIoT/src/LiteOS_Lab/iot_link/network/dtls/mbedtls/mbedtls-2.16.2/library\ctr_drbg.c **** {
 803              		.loc 1 281 0
 804              		.cfi_startproc
ARM GAS  C:\Users\dtjld\AppData\Local\Temp\ccfiLUAQ.s 			page 20


 805              		@ args = 0, pretend = 0, frame = 72
 806              		@ frame_needed = 1, uses_anonymous_args = 0
 807 0000 80B5     		push	{r7, lr}
 808              	.LCFI43:
 809              		.cfi_def_cfa_offset 8
 810              		.cfi_offset 7, -8
 811              		.cfi_offset 14, -4
 812 0002 92B0     		sub	sp, sp, #72
 813              	.LCFI44:
 814              		.cfi_def_cfa_offset 80
 815 0004 00AF     		add	r7, sp, #0
 816              	.LCFI45:
 817              		.cfi_def_cfa_register 7
 818 0006 7860     		str	r0, [r7, #4]
 819 0008 3960     		str	r1, [r7]
 282:C:/Users/dtjld/workspace/AIoT/src/LiteOS_Lab/iot_link/network/dtls/mbedtls/mbedtls-2.16.2/library\ctr_drbg.c ****     unsigned char tmp[MBEDTLS_CTR_DRBG_SEEDLEN];
 283:C:/Users/dtjld/workspace/AIoT/src/LiteOS_Lab/iot_link/network/dtls/mbedtls/mbedtls-2.16.2/library\ctr_drbg.c ****     unsigned char *p = tmp;
 820              		.loc 1 283 0
 821 000a 07F10803 		add	r3, r7, #8
 822 000e 7B64     		str	r3, [r7, #68]
 284:C:/Users/dtjld/workspace/AIoT/src/LiteOS_Lab/iot_link/network/dtls/mbedtls/mbedtls-2.16.2/library\ctr_drbg.c ****     int i, j;
 285:C:/Users/dtjld/workspace/AIoT/src/LiteOS_Lab/iot_link/network/dtls/mbedtls/mbedtls-2.16.2/library\ctr_drbg.c ****     int ret = 0;
 823              		.loc 1 285 0
 824 0010 0023     		movs	r3, #0
 825 0012 BB63     		str	r3, [r7, #56]
 286:C:/Users/dtjld/workspace/AIoT/src/LiteOS_Lab/iot_link/network/dtls/mbedtls/mbedtls-2.16.2/library\ctr_drbg.c **** 
 287:C:/Users/dtjld/workspace/AIoT/src/LiteOS_Lab/iot_link/network/dtls/mbedtls/mbedtls-2.16.2/library\ctr_drbg.c ****     memset( tmp, 0, MBEDTLS_CTR_DRBG_SEEDLEN );
 826              		.loc 1 287 0
 827 0014 07F10803 		add	r3, r7, #8
 828 0018 3022     		movs	r2, #48
 829 001a 0021     		movs	r1, #0
 830 001c 1846     		mov	r0, r3
 831 001e FFF7FEFF 		bl	memset
 288:C:/Users/dtjld/workspace/AIoT/src/LiteOS_Lab/iot_link/network/dtls/mbedtls/mbedtls-2.16.2/library\ctr_drbg.c **** 
 289:C:/Users/dtjld/workspace/AIoT/src/LiteOS_Lab/iot_link/network/dtls/mbedtls/mbedtls-2.16.2/library\ctr_drbg.c ****     for( j = 0; j < MBEDTLS_CTR_DRBG_SEEDLEN; j += MBEDTLS_CTR_DRBG_BLOCKSIZE )
 832              		.loc 1 289 0
 833 0022 0023     		movs	r3, #0
 834 0024 FB63     		str	r3, [r7, #60]
 835 0026 28E0     		b	.L40
 836              	.L47:
 290:C:/Users/dtjld/workspace/AIoT/src/LiteOS_Lab/iot_link/network/dtls/mbedtls/mbedtls-2.16.2/library\ctr_drbg.c ****     {
 291:C:/Users/dtjld/workspace/AIoT/src/LiteOS_Lab/iot_link/network/dtls/mbedtls/mbedtls-2.16.2/library\ctr_drbg.c ****         /*
 292:C:/Users/dtjld/workspace/AIoT/src/LiteOS_Lab/iot_link/network/dtls/mbedtls/mbedtls-2.16.2/library\ctr_drbg.c ****          * Increase counter
 293:C:/Users/dtjld/workspace/AIoT/src/LiteOS_Lab/iot_link/network/dtls/mbedtls/mbedtls-2.16.2/library\ctr_drbg.c ****          */
 294:C:/Users/dtjld/workspace/AIoT/src/LiteOS_Lab/iot_link/network/dtls/mbedtls/mbedtls-2.16.2/library\ctr_drbg.c ****         for( i = MBEDTLS_CTR_DRBG_BLOCKSIZE; i > 0; i-- )
 837              		.loc 1 294 0
 838 0028 1023     		movs	r3, #16
 839 002a 3B64     		str	r3, [r7, #64]
 840 002c 0EE0     		b	.L41
 841              	.L44:
 295:C:/Users/dtjld/workspace/AIoT/src/LiteOS_Lab/iot_link/network/dtls/mbedtls/mbedtls-2.16.2/library\ctr_drbg.c ****             if( ++ctx->counter[i - 1] != 0 )
 842              		.loc 1 295 0
 843 002e 3B6C     		ldr	r3, [r7, #64]
 844 0030 013B     		subs	r3, r3, #1
 845 0032 7A68     		ldr	r2, [r7, #4]
 846 0034 D25C     		ldrb	r2, [r2, r3]	@ zero_extendqisi2
 847 0036 0132     		adds	r2, r2, #1
ARM GAS  C:\Users\dtjld\AppData\Local\Temp\ccfiLUAQ.s 			page 21


 848 0038 D1B2     		uxtb	r1, r2
 849 003a 7A68     		ldr	r2, [r7, #4]
 850 003c D154     		strb	r1, [r2, r3]
 851 003e 7A68     		ldr	r2, [r7, #4]
 852 0040 D35C     		ldrb	r3, [r2, r3]	@ zero_extendqisi2
 853 0042 002B     		cmp	r3, #0
 854 0044 06D1     		bne	.L52
 294:C:/Users/dtjld/workspace/AIoT/src/LiteOS_Lab/iot_link/network/dtls/mbedtls/mbedtls-2.16.2/library\ctr_drbg.c ****             if( ++ctx->counter[i - 1] != 0 )
 855              		.loc 1 294 0 discriminator 2
 856 0046 3B6C     		ldr	r3, [r7, #64]
 857 0048 013B     		subs	r3, r3, #1
 858 004a 3B64     		str	r3, [r7, #64]
 859              	.L41:
 294:C:/Users/dtjld/workspace/AIoT/src/LiteOS_Lab/iot_link/network/dtls/mbedtls/mbedtls-2.16.2/library\ctr_drbg.c ****             if( ++ctx->counter[i - 1] != 0 )
 860              		.loc 1 294 0 is_stmt 0 discriminator 1
 861 004c 3B6C     		ldr	r3, [r7, #64]
 862 004e 002B     		cmp	r3, #0
 863 0050 EDDC     		bgt	.L44
 864 0052 00E0     		b	.L43
 865              	.L52:
 296:C:/Users/dtjld/workspace/AIoT/src/LiteOS_Lab/iot_link/network/dtls/mbedtls/mbedtls-2.16.2/library\ctr_drbg.c ****                 break;
 866              		.loc 1 296 0 is_stmt 1
 867 0054 00BF     		nop
 868              	.L43:
 297:C:/Users/dtjld/workspace/AIoT/src/LiteOS_Lab/iot_link/network/dtls/mbedtls/mbedtls-2.16.2/library\ctr_drbg.c **** 
 298:C:/Users/dtjld/workspace/AIoT/src/LiteOS_Lab/iot_link/network/dtls/mbedtls/mbedtls-2.16.2/library\ctr_drbg.c ****         /*
 299:C:/Users/dtjld/workspace/AIoT/src/LiteOS_Lab/iot_link/network/dtls/mbedtls/mbedtls-2.16.2/library\ctr_drbg.c ****          * Crypt counter block
 300:C:/Users/dtjld/workspace/AIoT/src/LiteOS_Lab/iot_link/network/dtls/mbedtls/mbedtls-2.16.2/library\ctr_drbg.c ****          */
 301:C:/Users/dtjld/workspace/AIoT/src/LiteOS_Lab/iot_link/network/dtls/mbedtls/mbedtls-2.16.2/library\ctr_drbg.c ****         if( ( ret = mbedtls_aes_crypt_ecb( &ctx->aes_ctx, MBEDTLS_AES_ENCRYPT, ctx->counter, p ) ) 
 869              		.loc 1 301 0
 870 0056 7B68     		ldr	r3, [r7, #4]
 871 0058 03F12000 		add	r0, r3, #32
 872 005c 7A68     		ldr	r2, [r7, #4]
 873 005e 7B6C     		ldr	r3, [r7, #68]
 874 0060 0121     		movs	r1, #1
 875 0062 FFF7FEFF 		bl	mbedtls_aes_crypt_ecb
 876 0066 B863     		str	r0, [r7, #56]
 877 0068 BB6B     		ldr	r3, [r7, #56]
 878 006a 002B     		cmp	r3, #0
 879 006c 38D1     		bne	.L53
 302:C:/Users/dtjld/workspace/AIoT/src/LiteOS_Lab/iot_link/network/dtls/mbedtls/mbedtls-2.16.2/library\ctr_drbg.c ****             goto exit;
 303:C:/Users/dtjld/workspace/AIoT/src/LiteOS_Lab/iot_link/network/dtls/mbedtls/mbedtls-2.16.2/library\ctr_drbg.c **** 
 304:C:/Users/dtjld/workspace/AIoT/src/LiteOS_Lab/iot_link/network/dtls/mbedtls/mbedtls-2.16.2/library\ctr_drbg.c ****         p += MBEDTLS_CTR_DRBG_BLOCKSIZE;
 880              		.loc 1 304 0 discriminator 2
 881 006e 7B6C     		ldr	r3, [r7, #68]
 882 0070 1033     		adds	r3, r3, #16
 883 0072 7B64     		str	r3, [r7, #68]
 289:C:/Users/dtjld/workspace/AIoT/src/LiteOS_Lab/iot_link/network/dtls/mbedtls/mbedtls-2.16.2/library\ctr_drbg.c ****     {
 884              		.loc 1 289 0 discriminator 2
 885 0074 FB6B     		ldr	r3, [r7, #60]
 886 0076 1033     		adds	r3, r3, #16
 887 0078 FB63     		str	r3, [r7, #60]
 888              	.L40:
 289:C:/Users/dtjld/workspace/AIoT/src/LiteOS_Lab/iot_link/network/dtls/mbedtls/mbedtls-2.16.2/library\ctr_drbg.c ****     {
 889              		.loc 1 289 0 is_stmt 0 discriminator 1
 890 007a FB6B     		ldr	r3, [r7, #60]
 891 007c 2F2B     		cmp	r3, #47
ARM GAS  C:\Users\dtjld\AppData\Local\Temp\ccfiLUAQ.s 			page 22


 892 007e D3DD     		ble	.L47
 305:C:/Users/dtjld/workspace/AIoT/src/LiteOS_Lab/iot_link/network/dtls/mbedtls/mbedtls-2.16.2/library\ctr_drbg.c ****     }
 306:C:/Users/dtjld/workspace/AIoT/src/LiteOS_Lab/iot_link/network/dtls/mbedtls/mbedtls-2.16.2/library\ctr_drbg.c **** 
 307:C:/Users/dtjld/workspace/AIoT/src/LiteOS_Lab/iot_link/network/dtls/mbedtls/mbedtls-2.16.2/library\ctr_drbg.c ****     for( i = 0; i < MBEDTLS_CTR_DRBG_SEEDLEN; i++ )
 893              		.loc 1 307 0 is_stmt 1
 894 0080 0023     		movs	r3, #0
 895 0082 3B64     		str	r3, [r7, #64]
 896 0084 13E0     		b	.L48
 897              	.L49:
 308:C:/Users/dtjld/workspace/AIoT/src/LiteOS_Lab/iot_link/network/dtls/mbedtls/mbedtls-2.16.2/library\ctr_drbg.c ****         tmp[i] ^= data[i];
 898              		.loc 1 308 0 discriminator 3
 899 0086 07F10802 		add	r2, r7, #8
 900 008a 3B6C     		ldr	r3, [r7, #64]
 901 008c 1344     		add	r3, r3, r2
 902 008e 1A78     		ldrb	r2, [r3]	@ zero_extendqisi2
 903 0090 3B6C     		ldr	r3, [r7, #64]
 904 0092 3968     		ldr	r1, [r7]
 905 0094 0B44     		add	r3, r3, r1
 906 0096 1B78     		ldrb	r3, [r3]	@ zero_extendqisi2
 907 0098 5340     		eors	r3, r3, r2
 908 009a D9B2     		uxtb	r1, r3
 909 009c 07F10802 		add	r2, r7, #8
 910 00a0 3B6C     		ldr	r3, [r7, #64]
 911 00a2 1344     		add	r3, r3, r2
 912 00a4 0A46     		mov	r2, r1
 913 00a6 1A70     		strb	r2, [r3]
 307:C:/Users/dtjld/workspace/AIoT/src/LiteOS_Lab/iot_link/network/dtls/mbedtls/mbedtls-2.16.2/library\ctr_drbg.c ****         tmp[i] ^= data[i];
 914              		.loc 1 307 0 discriminator 3
 915 00a8 3B6C     		ldr	r3, [r7, #64]
 916 00aa 0133     		adds	r3, r3, #1
 917 00ac 3B64     		str	r3, [r7, #64]
 918              	.L48:
 307:C:/Users/dtjld/workspace/AIoT/src/LiteOS_Lab/iot_link/network/dtls/mbedtls/mbedtls-2.16.2/library\ctr_drbg.c ****         tmp[i] ^= data[i];
 919              		.loc 1 307 0 is_stmt 0 discriminator 1
 920 00ae 3B6C     		ldr	r3, [r7, #64]
 921 00b0 2F2B     		cmp	r3, #47
 922 00b2 E8DD     		ble	.L49
 309:C:/Users/dtjld/workspace/AIoT/src/LiteOS_Lab/iot_link/network/dtls/mbedtls/mbedtls-2.16.2/library\ctr_drbg.c **** 
 310:C:/Users/dtjld/workspace/AIoT/src/LiteOS_Lab/iot_link/network/dtls/mbedtls/mbedtls-2.16.2/library\ctr_drbg.c ****     /*
 311:C:/Users/dtjld/workspace/AIoT/src/LiteOS_Lab/iot_link/network/dtls/mbedtls/mbedtls-2.16.2/library\ctr_drbg.c ****      * Update key and counter
 312:C:/Users/dtjld/workspace/AIoT/src/LiteOS_Lab/iot_link/network/dtls/mbedtls/mbedtls-2.16.2/library\ctr_drbg.c ****      */
 313:C:/Users/dtjld/workspace/AIoT/src/LiteOS_Lab/iot_link/network/dtls/mbedtls/mbedtls-2.16.2/library\ctr_drbg.c ****     if( ( ret = mbedtls_aes_setkey_enc( &ctx->aes_ctx, tmp, MBEDTLS_CTR_DRBG_KEYBITS ) ) != 0 )
 923              		.loc 1 313 0 is_stmt 1
 924 00b4 7B68     		ldr	r3, [r7, #4]
 925 00b6 2033     		adds	r3, r3, #32
 926 00b8 07F10801 		add	r1, r7, #8
 927 00bc 4FF48072 		mov	r2, #256
 928 00c0 1846     		mov	r0, r3
 929 00c2 FFF7FEFF 		bl	mbedtls_aes_setkey_enc
 930 00c6 B863     		str	r0, [r7, #56]
 931 00c8 BB6B     		ldr	r3, [r7, #56]
 932 00ca 002B     		cmp	r3, #0
 933 00cc 0AD1     		bne	.L54
 314:C:/Users/dtjld/workspace/AIoT/src/LiteOS_Lab/iot_link/network/dtls/mbedtls/mbedtls-2.16.2/library\ctr_drbg.c ****         goto exit;
 315:C:/Users/dtjld/workspace/AIoT/src/LiteOS_Lab/iot_link/network/dtls/mbedtls/mbedtls-2.16.2/library\ctr_drbg.c ****     memcpy( ctx->counter, tmp + MBEDTLS_CTR_DRBG_KEYSIZE, MBEDTLS_CTR_DRBG_BLOCKSIZE );
 934              		.loc 1 315 0
 935 00ce 7868     		ldr	r0, [r7, #4]
ARM GAS  C:\Users\dtjld\AppData\Local\Temp\ccfiLUAQ.s 			page 23


 936 00d0 07F10803 		add	r3, r7, #8
 937 00d4 2033     		adds	r3, r3, #32
 938 00d6 1022     		movs	r2, #16
 939 00d8 1946     		mov	r1, r3
 940 00da FFF7FEFF 		bl	memcpy
 941 00de 02E0     		b	.L46
 942              	.L53:
 302:C:/Users/dtjld/workspace/AIoT/src/LiteOS_Lab/iot_link/network/dtls/mbedtls/mbedtls-2.16.2/library\ctr_drbg.c **** 
 943              		.loc 1 302 0
 944 00e0 00BF     		nop
 945 00e2 00E0     		b	.L46
 946              	.L54:
 314:C:/Users/dtjld/workspace/AIoT/src/LiteOS_Lab/iot_link/network/dtls/mbedtls/mbedtls-2.16.2/library\ctr_drbg.c ****         goto exit;
 947              		.loc 1 314 0
 948 00e4 00BF     		nop
 949              	.L46:
 316:C:/Users/dtjld/workspace/AIoT/src/LiteOS_Lab/iot_link/network/dtls/mbedtls/mbedtls-2.16.2/library\ctr_drbg.c **** 
 317:C:/Users/dtjld/workspace/AIoT/src/LiteOS_Lab/iot_link/network/dtls/mbedtls/mbedtls-2.16.2/library\ctr_drbg.c **** exit:
 318:C:/Users/dtjld/workspace/AIoT/src/LiteOS_Lab/iot_link/network/dtls/mbedtls/mbedtls-2.16.2/library\ctr_drbg.c ****     mbedtls_platform_zeroize( tmp, sizeof( tmp ) );
 950              		.loc 1 318 0
 951 00e6 07F10803 		add	r3, r7, #8
 952 00ea 3021     		movs	r1, #48
 953 00ec 1846     		mov	r0, r3
 954 00ee FFF7FEFF 		bl	mbedtls_platform_zeroize
 319:C:/Users/dtjld/workspace/AIoT/src/LiteOS_Lab/iot_link/network/dtls/mbedtls/mbedtls-2.16.2/library\ctr_drbg.c ****     return( ret );
 955              		.loc 1 319 0
 956 00f2 BB6B     		ldr	r3, [r7, #56]
 320:C:/Users/dtjld/workspace/AIoT/src/LiteOS_Lab/iot_link/network/dtls/mbedtls/mbedtls-2.16.2/library\ctr_drbg.c **** }
 957              		.loc 1 320 0
 958 00f4 1846     		mov	r0, r3
 959 00f6 4837     		adds	r7, r7, #72
 960              	.LCFI46:
 961              		.cfi_def_cfa_offset 8
 962 00f8 BD46     		mov	sp, r7
 963              	.LCFI47:
 964              		.cfi_def_cfa_register 13
 965              		@ sp needed
 966 00fa 80BD     		pop	{r7, pc}
 967              		.cfi_endproc
 968              	.LFE11:
 970              		.section	.text.mbedtls_ctr_drbg_update_ret,"ax",%progbits
 971              		.align	1
 972              		.global	mbedtls_ctr_drbg_update_ret
 973              		.syntax unified
 974              		.thumb
 975              		.thumb_func
 976              		.fpu fpv4-sp-d16
 978              	mbedtls_ctr_drbg_update_ret:
 979              	.LFB12:
 321:C:/Users/dtjld/workspace/AIoT/src/LiteOS_Lab/iot_link/network/dtls/mbedtls/mbedtls-2.16.2/library\ctr_drbg.c **** 
 322:C:/Users/dtjld/workspace/AIoT/src/LiteOS_Lab/iot_link/network/dtls/mbedtls/mbedtls-2.16.2/library\ctr_drbg.c **** /* CTR_DRBG_Instantiate with derivation function (SP 800-90A &sect;10.2.1.3.2)
 323:C:/Users/dtjld/workspace/AIoT/src/LiteOS_Lab/iot_link/network/dtls/mbedtls/mbedtls-2.16.2/library\ctr_drbg.c ****  * mbedtls_ctr_drbg_update(ctx, additional, add_len)
 324:C:/Users/dtjld/workspace/AIoT/src/LiteOS_Lab/iot_link/network/dtls/mbedtls/mbedtls-2.16.2/library\ctr_drbg.c ****  * implements
 325:C:/Users/dtjld/workspace/AIoT/src/LiteOS_Lab/iot_link/network/dtls/mbedtls/mbedtls-2.16.2/library\ctr_drbg.c ****  * CTR_DRBG_Instantiate(entropy_input, nonce, personalization_string,
 326:C:/Users/dtjld/workspace/AIoT/src/LiteOS_Lab/iot_link/network/dtls/mbedtls/mbedtls-2.16.2/library\ctr_drbg.c ****  *                      security_strength) -> initial_working_state
 327:C:/Users/dtjld/workspace/AIoT/src/LiteOS_Lab/iot_link/network/dtls/mbedtls/mbedtls-2.16.2/library\ctr_drbg.c ****  * with inputs
 328:C:/Users/dtjld/workspace/AIoT/src/LiteOS_Lab/iot_link/network/dtls/mbedtls/mbedtls-2.16.2/library\ctr_drbg.c ****  *   ctx->counter = all-bits-0
ARM GAS  C:\Users\dtjld\AppData\Local\Temp\ccfiLUAQ.s 			page 24


 329:C:/Users/dtjld/workspace/AIoT/src/LiteOS_Lab/iot_link/network/dtls/mbedtls/mbedtls-2.16.2/library\ctr_drbg.c ****  *   ctx->aes_ctx = context from all-bits-0 key
 330:C:/Users/dtjld/workspace/AIoT/src/LiteOS_Lab/iot_link/network/dtls/mbedtls/mbedtls-2.16.2/library\ctr_drbg.c ****  *   additional[:add_len] = entropy_input || nonce || personalization_string
 331:C:/Users/dtjld/workspace/AIoT/src/LiteOS_Lab/iot_link/network/dtls/mbedtls/mbedtls-2.16.2/library\ctr_drbg.c ****  * and with outputs
 332:C:/Users/dtjld/workspace/AIoT/src/LiteOS_Lab/iot_link/network/dtls/mbedtls/mbedtls-2.16.2/library\ctr_drbg.c ****  *   ctx = initial_working_state
 333:C:/Users/dtjld/workspace/AIoT/src/LiteOS_Lab/iot_link/network/dtls/mbedtls/mbedtls-2.16.2/library\ctr_drbg.c ****  */
 334:C:/Users/dtjld/workspace/AIoT/src/LiteOS_Lab/iot_link/network/dtls/mbedtls/mbedtls-2.16.2/library\ctr_drbg.c **** int mbedtls_ctr_drbg_update_ret( mbedtls_ctr_drbg_context *ctx,
 335:C:/Users/dtjld/workspace/AIoT/src/LiteOS_Lab/iot_link/network/dtls/mbedtls/mbedtls-2.16.2/library\ctr_drbg.c ****                                  const unsigned char *additional,
 336:C:/Users/dtjld/workspace/AIoT/src/LiteOS_Lab/iot_link/network/dtls/mbedtls/mbedtls-2.16.2/library\ctr_drbg.c ****                                  size_t add_len )
 337:C:/Users/dtjld/workspace/AIoT/src/LiteOS_Lab/iot_link/network/dtls/mbedtls/mbedtls-2.16.2/library\ctr_drbg.c **** {
 980              		.loc 1 337 0
 981              		.cfi_startproc
 982              		@ args = 0, pretend = 0, frame = 72
 983              		@ frame_needed = 1, uses_anonymous_args = 0
 984 0000 80B5     		push	{r7, lr}
 985              	.LCFI48:
 986              		.cfi_def_cfa_offset 8
 987              		.cfi_offset 7, -8
 988              		.cfi_offset 14, -4
 989 0002 92B0     		sub	sp, sp, #72
 990              	.LCFI49:
 991              		.cfi_def_cfa_offset 80
 992 0004 00AF     		add	r7, sp, #0
 993              	.LCFI50:
 994              		.cfi_def_cfa_register 7
 995 0006 F860     		str	r0, [r7, #12]
 996 0008 B960     		str	r1, [r7, #8]
 997 000a 7A60     		str	r2, [r7, #4]
 338:C:/Users/dtjld/workspace/AIoT/src/LiteOS_Lab/iot_link/network/dtls/mbedtls/mbedtls-2.16.2/library\ctr_drbg.c ****     unsigned char add_input[MBEDTLS_CTR_DRBG_SEEDLEN];
 339:C:/Users/dtjld/workspace/AIoT/src/LiteOS_Lab/iot_link/network/dtls/mbedtls/mbedtls-2.16.2/library\ctr_drbg.c ****     int ret;
 340:C:/Users/dtjld/workspace/AIoT/src/LiteOS_Lab/iot_link/network/dtls/mbedtls/mbedtls-2.16.2/library\ctr_drbg.c **** 
 341:C:/Users/dtjld/workspace/AIoT/src/LiteOS_Lab/iot_link/network/dtls/mbedtls/mbedtls-2.16.2/library\ctr_drbg.c ****     if( add_len == 0 )
 998              		.loc 1 341 0
 999 000c 7B68     		ldr	r3, [r7, #4]
 1000 000e 002B     		cmp	r3, #0
 1001 0010 01D1     		bne	.L56
 342:C:/Users/dtjld/workspace/AIoT/src/LiteOS_Lab/iot_link/network/dtls/mbedtls/mbedtls-2.16.2/library\ctr_drbg.c ****         return( 0 );
 1002              		.loc 1 342 0
 1003 0012 0023     		movs	r3, #0
 1004 0014 1CE0     		b	.L60
 1005              	.L56:
 343:C:/Users/dtjld/workspace/AIoT/src/LiteOS_Lab/iot_link/network/dtls/mbedtls/mbedtls-2.16.2/library\ctr_drbg.c **** 
 344:C:/Users/dtjld/workspace/AIoT/src/LiteOS_Lab/iot_link/network/dtls/mbedtls/mbedtls-2.16.2/library\ctr_drbg.c ****     if( ( ret = block_cipher_df( add_input, additional, add_len ) ) != 0 )
 1006              		.loc 1 344 0
 1007 0016 07F11403 		add	r3, r7, #20
 1008 001a 7A68     		ldr	r2, [r7, #4]
 1009 001c B968     		ldr	r1, [r7, #8]
 1010 001e 1846     		mov	r0, r3
 1011 0020 FFF7FEFF 		bl	block_cipher_df
 1012 0024 7864     		str	r0, [r7, #68]
 1013 0026 7B6C     		ldr	r3, [r7, #68]
 1014 0028 002B     		cmp	r3, #0
 1015 002a 09D1     		bne	.L61
 345:C:/Users/dtjld/workspace/AIoT/src/LiteOS_Lab/iot_link/network/dtls/mbedtls/mbedtls-2.16.2/library\ctr_drbg.c ****         goto exit;
 346:C:/Users/dtjld/workspace/AIoT/src/LiteOS_Lab/iot_link/network/dtls/mbedtls/mbedtls-2.16.2/library\ctr_drbg.c ****     if( ( ret = ctr_drbg_update_internal( ctx, add_input ) ) != 0 )
 1016              		.loc 1 346 0
 1017 002c 07F11403 		add	r3, r7, #20
 1018 0030 1946     		mov	r1, r3
ARM GAS  C:\Users\dtjld\AppData\Local\Temp\ccfiLUAQ.s 			page 25


 1019 0032 F868     		ldr	r0, [r7, #12]
 1020 0034 FFF7FEFF 		bl	ctr_drbg_update_internal
 1021 0038 7864     		str	r0, [r7, #68]
 1022 003a 7B6C     		ldr	r3, [r7, #68]
 1023 003c 002B     		cmp	r3, #0
 347:C:/Users/dtjld/workspace/AIoT/src/LiteOS_Lab/iot_link/network/dtls/mbedtls/mbedtls-2.16.2/library\ctr_drbg.c ****         goto exit;
 348:C:/Users/dtjld/workspace/AIoT/src/LiteOS_Lab/iot_link/network/dtls/mbedtls/mbedtls-2.16.2/library\ctr_drbg.c **** 
 349:C:/Users/dtjld/workspace/AIoT/src/LiteOS_Lab/iot_link/network/dtls/mbedtls/mbedtls-2.16.2/library\ctr_drbg.c **** exit:
 1024              		.loc 1 349 0
 1025 003e 00E0     		b	.L59
 1026              	.L61:
 345:C:/Users/dtjld/workspace/AIoT/src/LiteOS_Lab/iot_link/network/dtls/mbedtls/mbedtls-2.16.2/library\ctr_drbg.c ****         goto exit;
 1027              		.loc 1 345 0
 1028 0040 00BF     		nop
 1029              	.L59:
 350:C:/Users/dtjld/workspace/AIoT/src/LiteOS_Lab/iot_link/network/dtls/mbedtls/mbedtls-2.16.2/library\ctr_drbg.c ****     mbedtls_platform_zeroize( add_input, sizeof( add_input ) );
 1030              		.loc 1 350 0
 1031 0042 07F11403 		add	r3, r7, #20
 1032 0046 3021     		movs	r1, #48
 1033 0048 1846     		mov	r0, r3
 1034 004a FFF7FEFF 		bl	mbedtls_platform_zeroize
 351:C:/Users/dtjld/workspace/AIoT/src/LiteOS_Lab/iot_link/network/dtls/mbedtls/mbedtls-2.16.2/library\ctr_drbg.c ****     return( ret );
 1035              		.loc 1 351 0
 1036 004e 7B6C     		ldr	r3, [r7, #68]
 1037              	.L60:
 352:C:/Users/dtjld/workspace/AIoT/src/LiteOS_Lab/iot_link/network/dtls/mbedtls/mbedtls-2.16.2/library\ctr_drbg.c **** }
 1038              		.loc 1 352 0 discriminator 1
 1039 0050 1846     		mov	r0, r3
 1040 0052 4837     		adds	r7, r7, #72
 1041              	.LCFI51:
 1042              		.cfi_def_cfa_offset 8
 1043 0054 BD46     		mov	sp, r7
 1044              	.LCFI52:
 1045              		.cfi_def_cfa_register 13
 1046              		@ sp needed
 1047 0056 80BD     		pop	{r7, pc}
 1048              		.cfi_endproc
 1049              	.LFE12:
 1051              		.section	.text.mbedtls_ctr_drbg_update,"ax",%progbits
 1052              		.align	1
 1053              		.global	mbedtls_ctr_drbg_update
 1054              		.syntax unified
 1055              		.thumb
 1056              		.thumb_func
 1057              		.fpu fpv4-sp-d16
 1059              	mbedtls_ctr_drbg_update:
 1060              	.LFB13:
 353:C:/Users/dtjld/workspace/AIoT/src/LiteOS_Lab/iot_link/network/dtls/mbedtls/mbedtls-2.16.2/library\ctr_drbg.c **** 
 354:C:/Users/dtjld/workspace/AIoT/src/LiteOS_Lab/iot_link/network/dtls/mbedtls/mbedtls-2.16.2/library\ctr_drbg.c **** #if !defined(MBEDTLS_DEPRECATED_REMOVED)
 355:C:/Users/dtjld/workspace/AIoT/src/LiteOS_Lab/iot_link/network/dtls/mbedtls/mbedtls-2.16.2/library\ctr_drbg.c **** void mbedtls_ctr_drbg_update( mbedtls_ctr_drbg_context *ctx,
 356:C:/Users/dtjld/workspace/AIoT/src/LiteOS_Lab/iot_link/network/dtls/mbedtls/mbedtls-2.16.2/library\ctr_drbg.c ****                               const unsigned char *additional,
 357:C:/Users/dtjld/workspace/AIoT/src/LiteOS_Lab/iot_link/network/dtls/mbedtls/mbedtls-2.16.2/library\ctr_drbg.c ****                               size_t add_len )
 358:C:/Users/dtjld/workspace/AIoT/src/LiteOS_Lab/iot_link/network/dtls/mbedtls/mbedtls-2.16.2/library\ctr_drbg.c **** {
 1061              		.loc 1 358 0
 1062              		.cfi_startproc
 1063              		@ args = 0, pretend = 0, frame = 16
 1064              		@ frame_needed = 1, uses_anonymous_args = 0
ARM GAS  C:\Users\dtjld\AppData\Local\Temp\ccfiLUAQ.s 			page 26


 1065 0000 80B5     		push	{r7, lr}
 1066              	.LCFI53:
 1067              		.cfi_def_cfa_offset 8
 1068              		.cfi_offset 7, -8
 1069              		.cfi_offset 14, -4
 1070 0002 84B0     		sub	sp, sp, #16
 1071              	.LCFI54:
 1072              		.cfi_def_cfa_offset 24
 1073 0004 00AF     		add	r7, sp, #0
 1074              	.LCFI55:
 1075              		.cfi_def_cfa_register 7
 1076 0006 F860     		str	r0, [r7, #12]
 1077 0008 B960     		str	r1, [r7, #8]
 1078 000a 7A60     		str	r2, [r7, #4]
 359:C:/Users/dtjld/workspace/AIoT/src/LiteOS_Lab/iot_link/network/dtls/mbedtls/mbedtls-2.16.2/library\ctr_drbg.c ****     /* MAX_INPUT would be more logical here, but we have to match
 360:C:/Users/dtjld/workspace/AIoT/src/LiteOS_Lab/iot_link/network/dtls/mbedtls/mbedtls-2.16.2/library\ctr_drbg.c ****      * block_cipher_df()'s limits since we can't propagate errors */
 361:C:/Users/dtjld/workspace/AIoT/src/LiteOS_Lab/iot_link/network/dtls/mbedtls/mbedtls-2.16.2/library\ctr_drbg.c ****     if( add_len > MBEDTLS_CTR_DRBG_MAX_SEED_INPUT )
 1079              		.loc 1 361 0
 1080 000c 7B68     		ldr	r3, [r7, #4]
 1081 000e B3F5C07F 		cmp	r3, #384
 1082 0012 02D9     		bls	.L63
 362:C:/Users/dtjld/workspace/AIoT/src/LiteOS_Lab/iot_link/network/dtls/mbedtls/mbedtls-2.16.2/library\ctr_drbg.c ****         add_len = MBEDTLS_CTR_DRBG_MAX_SEED_INPUT;
 1083              		.loc 1 362 0
 1084 0014 4FF4C073 		mov	r3, #384
 1085 0018 7B60     		str	r3, [r7, #4]
 1086              	.L63:
 363:C:/Users/dtjld/workspace/AIoT/src/LiteOS_Lab/iot_link/network/dtls/mbedtls/mbedtls-2.16.2/library\ctr_drbg.c ****     (void) mbedtls_ctr_drbg_update_ret( ctx, additional, add_len );
 1087              		.loc 1 363 0
 1088 001a 7A68     		ldr	r2, [r7, #4]
 1089 001c B968     		ldr	r1, [r7, #8]
 1090 001e F868     		ldr	r0, [r7, #12]
 1091 0020 FFF7FEFF 		bl	mbedtls_ctr_drbg_update_ret
 364:C:/Users/dtjld/workspace/AIoT/src/LiteOS_Lab/iot_link/network/dtls/mbedtls/mbedtls-2.16.2/library\ctr_drbg.c **** }
 1092              		.loc 1 364 0
 1093 0024 00BF     		nop
 1094 0026 1037     		adds	r7, r7, #16
 1095              	.LCFI56:
 1096              		.cfi_def_cfa_offset 8
 1097 0028 BD46     		mov	sp, r7
 1098              	.LCFI57:
 1099              		.cfi_def_cfa_register 13
 1100              		@ sp needed
 1101 002a 80BD     		pop	{r7, pc}
 1102              		.cfi_endproc
 1103              	.LFE13:
 1105              		.section	.text.mbedtls_ctr_drbg_reseed,"ax",%progbits
 1106              		.align	1
 1107              		.global	mbedtls_ctr_drbg_reseed
 1108              		.syntax unified
 1109              		.thumb
 1110              		.thumb_func
 1111              		.fpu fpv4-sp-d16
 1113              	mbedtls_ctr_drbg_reseed:
 1114              	.LFB14:
 365:C:/Users/dtjld/workspace/AIoT/src/LiteOS_Lab/iot_link/network/dtls/mbedtls/mbedtls-2.16.2/library\ctr_drbg.c **** #endif /* MBEDTLS_DEPRECATED_REMOVED */
 366:C:/Users/dtjld/workspace/AIoT/src/LiteOS_Lab/iot_link/network/dtls/mbedtls/mbedtls-2.16.2/library\ctr_drbg.c **** 
 367:C:/Users/dtjld/workspace/AIoT/src/LiteOS_Lab/iot_link/network/dtls/mbedtls/mbedtls-2.16.2/library\ctr_drbg.c **** /* CTR_DRBG_Reseed with derivation function (SP 800-90A &sect;10.2.1.4.2)
ARM GAS  C:\Users\dtjld\AppData\Local\Temp\ccfiLUAQ.s 			page 27


 368:C:/Users/dtjld/workspace/AIoT/src/LiteOS_Lab/iot_link/network/dtls/mbedtls/mbedtls-2.16.2/library\ctr_drbg.c ****  * mbedtls_ctr_drbg_reseed(ctx, additional, len)
 369:C:/Users/dtjld/workspace/AIoT/src/LiteOS_Lab/iot_link/network/dtls/mbedtls/mbedtls-2.16.2/library\ctr_drbg.c ****  * implements
 370:C:/Users/dtjld/workspace/AIoT/src/LiteOS_Lab/iot_link/network/dtls/mbedtls/mbedtls-2.16.2/library\ctr_drbg.c ****  * CTR_DRBG_Reseed(working_state, entropy_input, additional_input)
 371:C:/Users/dtjld/workspace/AIoT/src/LiteOS_Lab/iot_link/network/dtls/mbedtls/mbedtls-2.16.2/library\ctr_drbg.c ****  *                -> new_working_state
 372:C:/Users/dtjld/workspace/AIoT/src/LiteOS_Lab/iot_link/network/dtls/mbedtls/mbedtls-2.16.2/library\ctr_drbg.c ****  * with inputs
 373:C:/Users/dtjld/workspace/AIoT/src/LiteOS_Lab/iot_link/network/dtls/mbedtls/mbedtls-2.16.2/library\ctr_drbg.c ****  *   ctx contains working_state
 374:C:/Users/dtjld/workspace/AIoT/src/LiteOS_Lab/iot_link/network/dtls/mbedtls/mbedtls-2.16.2/library\ctr_drbg.c ****  *   additional[:len] = additional_input
 375:C:/Users/dtjld/workspace/AIoT/src/LiteOS_Lab/iot_link/network/dtls/mbedtls/mbedtls-2.16.2/library\ctr_drbg.c ****  * and entropy_input comes from calling ctx->f_entropy
 376:C:/Users/dtjld/workspace/AIoT/src/LiteOS_Lab/iot_link/network/dtls/mbedtls/mbedtls-2.16.2/library\ctr_drbg.c ****  * and with output
 377:C:/Users/dtjld/workspace/AIoT/src/LiteOS_Lab/iot_link/network/dtls/mbedtls/mbedtls-2.16.2/library\ctr_drbg.c ****  *   ctx contains new_working_state
 378:C:/Users/dtjld/workspace/AIoT/src/LiteOS_Lab/iot_link/network/dtls/mbedtls/mbedtls-2.16.2/library\ctr_drbg.c ****  */
 379:C:/Users/dtjld/workspace/AIoT/src/LiteOS_Lab/iot_link/network/dtls/mbedtls/mbedtls-2.16.2/library\ctr_drbg.c **** int mbedtls_ctr_drbg_reseed( mbedtls_ctr_drbg_context *ctx,
 380:C:/Users/dtjld/workspace/AIoT/src/LiteOS_Lab/iot_link/network/dtls/mbedtls/mbedtls-2.16.2/library\ctr_drbg.c ****                      const unsigned char *additional, size_t len )
 381:C:/Users/dtjld/workspace/AIoT/src/LiteOS_Lab/iot_link/network/dtls/mbedtls/mbedtls-2.16.2/library\ctr_drbg.c **** {
 1115              		.loc 1 381 0
 1116              		.cfi_startproc
 1117              		@ args = 0, pretend = 0, frame = 408
 1118              		@ frame_needed = 1, uses_anonymous_args = 0
 1119 0000 80B5     		push	{r7, lr}
 1120              	.LCFI58:
 1121              		.cfi_def_cfa_offset 8
 1122              		.cfi_offset 7, -8
 1123              		.cfi_offset 14, -4
 1124 0002 E6B0     		sub	sp, sp, #408
 1125              	.LCFI59:
 1126              		.cfi_def_cfa_offset 416
 1127 0004 00AF     		add	r7, sp, #0
 1128              	.LCFI60:
 1129              		.cfi_def_cfa_register 7
 1130 0006 07F10C03 		add	r3, r7, #12
 1131 000a 1860     		str	r0, [r3]
 1132 000c 07F10803 		add	r3, r7, #8
 1133 0010 1960     		str	r1, [r3]
 1134 0012 3B1D     		adds	r3, r7, #4
 1135 0014 1A60     		str	r2, [r3]
 382:C:/Users/dtjld/workspace/AIoT/src/LiteOS_Lab/iot_link/network/dtls/mbedtls/mbedtls-2.16.2/library\ctr_drbg.c ****     unsigned char seed[MBEDTLS_CTR_DRBG_MAX_SEED_INPUT];
 383:C:/Users/dtjld/workspace/AIoT/src/LiteOS_Lab/iot_link/network/dtls/mbedtls/mbedtls-2.16.2/library\ctr_drbg.c ****     size_t seedlen = 0;
 1136              		.loc 1 383 0
 1137 0016 0023     		movs	r3, #0
 1138 0018 C7F89431 		str	r3, [r7, #404]
 384:C:/Users/dtjld/workspace/AIoT/src/LiteOS_Lab/iot_link/network/dtls/mbedtls/mbedtls-2.16.2/library\ctr_drbg.c ****     int ret;
 385:C:/Users/dtjld/workspace/AIoT/src/LiteOS_Lab/iot_link/network/dtls/mbedtls/mbedtls-2.16.2/library\ctr_drbg.c **** 
 386:C:/Users/dtjld/workspace/AIoT/src/LiteOS_Lab/iot_link/network/dtls/mbedtls/mbedtls-2.16.2/library\ctr_drbg.c ****     if( ctx->entropy_len > MBEDTLS_CTR_DRBG_MAX_SEED_INPUT ||
 1139              		.loc 1 386 0
 1140 001c 07F10C03 		add	r3, r7, #12
 1141 0020 1B68     		ldr	r3, [r3]
 1142 0022 9B69     		ldr	r3, [r3, #24]
 1143 0024 B3F5C07F 		cmp	r3, #384
 1144 0028 09D8     		bhi	.L65
 387:C:/Users/dtjld/workspace/AIoT/src/LiteOS_Lab/iot_link/network/dtls/mbedtls/mbedtls-2.16.2/library\ctr_drbg.c ****         len > MBEDTLS_CTR_DRBG_MAX_SEED_INPUT - ctx->entropy_len )
 1145              		.loc 1 387 0 discriminator 1
 1146 002a 07F10C03 		add	r3, r7, #12
 1147 002e 1B68     		ldr	r3, [r3]
 1148 0030 9B69     		ldr	r3, [r3, #24]
 1149 0032 C3F5C073 		rsb	r3, r3, #384
 386:C:/Users/dtjld/workspace/AIoT/src/LiteOS_Lab/iot_link/network/dtls/mbedtls/mbedtls-2.16.2/library\ctr_drbg.c ****         len > MBEDTLS_CTR_DRBG_MAX_SEED_INPUT - ctx->entropy_len )
 1150              		.loc 1 386 0 discriminator 1
ARM GAS  C:\Users\dtjld\AppData\Local\Temp\ccfiLUAQ.s 			page 28


 1151 0036 3A1D     		adds	r2, r7, #4
 1152 0038 1268     		ldr	r2, [r2]
 1153 003a 9A42     		cmp	r2, r3
 1154 003c 02D9     		bls	.L66
 1155              	.L65:
 388:C:/Users/dtjld/workspace/AIoT/src/LiteOS_Lab/iot_link/network/dtls/mbedtls/mbedtls-2.16.2/library\ctr_drbg.c ****         return( MBEDTLS_ERR_CTR_DRBG_INPUT_TOO_BIG );
 1156              		.loc 1 388 0
 1157 003e 6FF03703 		mvn	r3, #55
 1158 0042 72E0     		b	.L73
 1159              	.L66:
 389:C:/Users/dtjld/workspace/AIoT/src/LiteOS_Lab/iot_link/network/dtls/mbedtls/mbedtls-2.16.2/library\ctr_drbg.c **** 
 390:C:/Users/dtjld/workspace/AIoT/src/LiteOS_Lab/iot_link/network/dtls/mbedtls/mbedtls-2.16.2/library\ctr_drbg.c ****     memset( seed, 0, MBEDTLS_CTR_DRBG_MAX_SEED_INPUT );
 1160              		.loc 1 390 0
 1161 0044 07F11003 		add	r3, r7, #16
 1162 0048 4FF4C072 		mov	r2, #384
 1163 004c 0021     		movs	r1, #0
 1164 004e 1846     		mov	r0, r3
 1165 0050 FFF7FEFF 		bl	memset
 391:C:/Users/dtjld/workspace/AIoT/src/LiteOS_Lab/iot_link/network/dtls/mbedtls/mbedtls-2.16.2/library\ctr_drbg.c **** 
 392:C:/Users/dtjld/workspace/AIoT/src/LiteOS_Lab/iot_link/network/dtls/mbedtls/mbedtls-2.16.2/library\ctr_drbg.c ****     /*
 393:C:/Users/dtjld/workspace/AIoT/src/LiteOS_Lab/iot_link/network/dtls/mbedtls/mbedtls-2.16.2/library\ctr_drbg.c ****      * Gather entropy_len bytes of entropy to seed state
 394:C:/Users/dtjld/workspace/AIoT/src/LiteOS_Lab/iot_link/network/dtls/mbedtls/mbedtls-2.16.2/library\ctr_drbg.c ****      */
 395:C:/Users/dtjld/workspace/AIoT/src/LiteOS_Lab/iot_link/network/dtls/mbedtls/mbedtls-2.16.2/library\ctr_drbg.c ****     if( 0 != ctx->f_entropy( ctx->p_entropy, seed,
 1166              		.loc 1 395 0
 1167 0054 07F10C03 		add	r3, r7, #12
 1168 0058 1B68     		ldr	r3, [r3]
 1169 005a D3F83831 		ldr	r3, [r3, #312]
 1170 005e 07F10C02 		add	r2, r7, #12
 1171 0062 1268     		ldr	r2, [r2]
 1172 0064 D2F83C01 		ldr	r0, [r2, #316]
 1173 0068 07F10C02 		add	r2, r7, #12
 1174 006c 1268     		ldr	r2, [r2]
 1175 006e 9269     		ldr	r2, [r2, #24]
 1176 0070 07F11001 		add	r1, r7, #16
 1177 0074 9847     		blx	r3
 1178              	.LVL0:
 1179 0076 0346     		mov	r3, r0
 1180 0078 002B     		cmp	r3, #0
 1181 007a 02D0     		beq	.L68
 396:C:/Users/dtjld/workspace/AIoT/src/LiteOS_Lab/iot_link/network/dtls/mbedtls/mbedtls-2.16.2/library\ctr_drbg.c ****                              ctx->entropy_len ) )
 397:C:/Users/dtjld/workspace/AIoT/src/LiteOS_Lab/iot_link/network/dtls/mbedtls/mbedtls-2.16.2/library\ctr_drbg.c ****     {
 398:C:/Users/dtjld/workspace/AIoT/src/LiteOS_Lab/iot_link/network/dtls/mbedtls/mbedtls-2.16.2/library\ctr_drbg.c ****         return( MBEDTLS_ERR_CTR_DRBG_ENTROPY_SOURCE_FAILED );
 1182              		.loc 1 398 0
 1183 007c 6FF03303 		mvn	r3, #51
 1184 0080 53E0     		b	.L73
 1185              	.L68:
 399:C:/Users/dtjld/workspace/AIoT/src/LiteOS_Lab/iot_link/network/dtls/mbedtls/mbedtls-2.16.2/library\ctr_drbg.c ****     }
 400:C:/Users/dtjld/workspace/AIoT/src/LiteOS_Lab/iot_link/network/dtls/mbedtls/mbedtls-2.16.2/library\ctr_drbg.c **** 
 401:C:/Users/dtjld/workspace/AIoT/src/LiteOS_Lab/iot_link/network/dtls/mbedtls/mbedtls-2.16.2/library\ctr_drbg.c ****     seedlen += ctx->entropy_len;
 1186              		.loc 1 401 0
 1187 0082 07F10C03 		add	r3, r7, #12
 1188 0086 1B68     		ldr	r3, [r3]
 1189 0088 9B69     		ldr	r3, [r3, #24]
 1190 008a D7F89421 		ldr	r2, [r7, #404]
 1191 008e 1344     		add	r3, r3, r2
 1192 0090 C7F89431 		str	r3, [r7, #404]
 402:C:/Users/dtjld/workspace/AIoT/src/LiteOS_Lab/iot_link/network/dtls/mbedtls/mbedtls-2.16.2/library\ctr_drbg.c **** 
ARM GAS  C:\Users\dtjld\AppData\Local\Temp\ccfiLUAQ.s 			page 29


 403:C:/Users/dtjld/workspace/AIoT/src/LiteOS_Lab/iot_link/network/dtls/mbedtls/mbedtls-2.16.2/library\ctr_drbg.c ****     /*
 404:C:/Users/dtjld/workspace/AIoT/src/LiteOS_Lab/iot_link/network/dtls/mbedtls/mbedtls-2.16.2/library\ctr_drbg.c ****      * Add additional data
 405:C:/Users/dtjld/workspace/AIoT/src/LiteOS_Lab/iot_link/network/dtls/mbedtls/mbedtls-2.16.2/library\ctr_drbg.c ****      */
 406:C:/Users/dtjld/workspace/AIoT/src/LiteOS_Lab/iot_link/network/dtls/mbedtls/mbedtls-2.16.2/library\ctr_drbg.c ****     if( additional && len )
 1193              		.loc 1 406 0
 1194 0094 07F10803 		add	r3, r7, #8
 1195 0098 1B68     		ldr	r3, [r3]
 1196 009a 002B     		cmp	r3, #0
 1197 009c 16D0     		beq	.L69
 1198              		.loc 1 406 0 is_stmt 0 discriminator 1
 1199 009e 3B1D     		adds	r3, r7, #4
 1200 00a0 1B68     		ldr	r3, [r3]
 1201 00a2 002B     		cmp	r3, #0
 1202 00a4 12D0     		beq	.L69
 407:C:/Users/dtjld/workspace/AIoT/src/LiteOS_Lab/iot_link/network/dtls/mbedtls/mbedtls-2.16.2/library\ctr_drbg.c ****     {
 408:C:/Users/dtjld/workspace/AIoT/src/LiteOS_Lab/iot_link/network/dtls/mbedtls/mbedtls-2.16.2/library\ctr_drbg.c ****         memcpy( seed + seedlen, additional, len );
 1203              		.loc 1 408 0 is_stmt 1
 1204 00a6 07F11002 		add	r2, r7, #16
 1205 00aa D7F89431 		ldr	r3, [r7, #404]
 1206 00ae D018     		adds	r0, r2, r3
 1207 00b0 3A1D     		adds	r2, r7, #4
 1208 00b2 07F10803 		add	r3, r7, #8
 1209 00b6 1268     		ldr	r2, [r2]
 1210 00b8 1968     		ldr	r1, [r3]
 1211 00ba FFF7FEFF 		bl	memcpy
 409:C:/Users/dtjld/workspace/AIoT/src/LiteOS_Lab/iot_link/network/dtls/mbedtls/mbedtls-2.16.2/library\ctr_drbg.c ****         seedlen += len;
 1212              		.loc 1 409 0
 1213 00be 3B1D     		adds	r3, r7, #4
 1214 00c0 D7F89421 		ldr	r2, [r7, #404]
 1215 00c4 1B68     		ldr	r3, [r3]
 1216 00c6 1344     		add	r3, r3, r2
 1217 00c8 C7F89431 		str	r3, [r7, #404]
 1218              	.L69:
 410:C:/Users/dtjld/workspace/AIoT/src/LiteOS_Lab/iot_link/network/dtls/mbedtls/mbedtls-2.16.2/library\ctr_drbg.c ****     }
 411:C:/Users/dtjld/workspace/AIoT/src/LiteOS_Lab/iot_link/network/dtls/mbedtls/mbedtls-2.16.2/library\ctr_drbg.c **** 
 412:C:/Users/dtjld/workspace/AIoT/src/LiteOS_Lab/iot_link/network/dtls/mbedtls/mbedtls-2.16.2/library\ctr_drbg.c ****     /*
 413:C:/Users/dtjld/workspace/AIoT/src/LiteOS_Lab/iot_link/network/dtls/mbedtls/mbedtls-2.16.2/library\ctr_drbg.c ****      * Reduce to 384 bits
 414:C:/Users/dtjld/workspace/AIoT/src/LiteOS_Lab/iot_link/network/dtls/mbedtls/mbedtls-2.16.2/library\ctr_drbg.c ****      */
 415:C:/Users/dtjld/workspace/AIoT/src/LiteOS_Lab/iot_link/network/dtls/mbedtls/mbedtls-2.16.2/library\ctr_drbg.c ****     if( ( ret = block_cipher_df( seed, seed, seedlen ) ) != 0 )
 1219              		.loc 1 415 0
 1220 00cc 07F11001 		add	r1, r7, #16
 1221 00d0 07F11003 		add	r3, r7, #16
 1222 00d4 D7F89421 		ldr	r2, [r7, #404]
 1223 00d8 1846     		mov	r0, r3
 1224 00da FFF7FEFF 		bl	block_cipher_df
 1225 00de C7F89001 		str	r0, [r7, #400]
 1226 00e2 D7F89031 		ldr	r3, [r7, #400]
 1227 00e6 002B     		cmp	r3, #0
 1228 00e8 13D1     		bne	.L74
 416:C:/Users/dtjld/workspace/AIoT/src/LiteOS_Lab/iot_link/network/dtls/mbedtls/mbedtls-2.16.2/library\ctr_drbg.c ****         goto exit;
 417:C:/Users/dtjld/workspace/AIoT/src/LiteOS_Lab/iot_link/network/dtls/mbedtls/mbedtls-2.16.2/library\ctr_drbg.c **** 
 418:C:/Users/dtjld/workspace/AIoT/src/LiteOS_Lab/iot_link/network/dtls/mbedtls/mbedtls-2.16.2/library\ctr_drbg.c ****     /*
 419:C:/Users/dtjld/workspace/AIoT/src/LiteOS_Lab/iot_link/network/dtls/mbedtls/mbedtls-2.16.2/library\ctr_drbg.c ****      * Update state
 420:C:/Users/dtjld/workspace/AIoT/src/LiteOS_Lab/iot_link/network/dtls/mbedtls/mbedtls-2.16.2/library\ctr_drbg.c ****      */
 421:C:/Users/dtjld/workspace/AIoT/src/LiteOS_Lab/iot_link/network/dtls/mbedtls/mbedtls-2.16.2/library\ctr_drbg.c ****     if( ( ret = ctr_drbg_update_internal( ctx, seed ) ) != 0 )
 1229              		.loc 1 421 0
 1230 00ea 07F11002 		add	r2, r7, #16
ARM GAS  C:\Users\dtjld\AppData\Local\Temp\ccfiLUAQ.s 			page 30


 1231 00ee 07F10C03 		add	r3, r7, #12
 1232 00f2 1146     		mov	r1, r2
 1233 00f4 1868     		ldr	r0, [r3]
 1234 00f6 FFF7FEFF 		bl	ctr_drbg_update_internal
 1235 00fa C7F89001 		str	r0, [r7, #400]
 1236 00fe D7F89031 		ldr	r3, [r7, #400]
 1237 0102 002B     		cmp	r3, #0
 1238 0104 07D1     		bne	.L75
 422:C:/Users/dtjld/workspace/AIoT/src/LiteOS_Lab/iot_link/network/dtls/mbedtls/mbedtls-2.16.2/library\ctr_drbg.c ****         goto exit;
 423:C:/Users/dtjld/workspace/AIoT/src/LiteOS_Lab/iot_link/network/dtls/mbedtls/mbedtls-2.16.2/library\ctr_drbg.c ****     ctx->reseed_counter = 1;
 1239              		.loc 1 423 0
 1240 0106 07F10C03 		add	r3, r7, #12
 1241 010a 1B68     		ldr	r3, [r3]
 1242 010c 0122     		movs	r2, #1
 1243 010e 1A61     		str	r2, [r3, #16]
 1244 0110 02E0     		b	.L71
 1245              	.L74:
 416:C:/Users/dtjld/workspace/AIoT/src/LiteOS_Lab/iot_link/network/dtls/mbedtls/mbedtls-2.16.2/library\ctr_drbg.c ****         goto exit;
 1246              		.loc 1 416 0
 1247 0112 00BF     		nop
 1248 0114 00E0     		b	.L71
 1249              	.L75:
 422:C:/Users/dtjld/workspace/AIoT/src/LiteOS_Lab/iot_link/network/dtls/mbedtls/mbedtls-2.16.2/library\ctr_drbg.c ****         goto exit;
 1250              		.loc 1 422 0
 1251 0116 00BF     		nop
 1252              	.L71:
 424:C:/Users/dtjld/workspace/AIoT/src/LiteOS_Lab/iot_link/network/dtls/mbedtls/mbedtls-2.16.2/library\ctr_drbg.c **** 
 425:C:/Users/dtjld/workspace/AIoT/src/LiteOS_Lab/iot_link/network/dtls/mbedtls/mbedtls-2.16.2/library\ctr_drbg.c **** exit:
 426:C:/Users/dtjld/workspace/AIoT/src/LiteOS_Lab/iot_link/network/dtls/mbedtls/mbedtls-2.16.2/library\ctr_drbg.c ****     mbedtls_platform_zeroize( seed, sizeof( seed ) );
 1253              		.loc 1 426 0
 1254 0118 07F11003 		add	r3, r7, #16
 1255 011c 4FF4C071 		mov	r1, #384
 1256 0120 1846     		mov	r0, r3
 1257 0122 FFF7FEFF 		bl	mbedtls_platform_zeroize
 427:C:/Users/dtjld/workspace/AIoT/src/LiteOS_Lab/iot_link/network/dtls/mbedtls/mbedtls-2.16.2/library\ctr_drbg.c ****     return( ret );
 1258              		.loc 1 427 0
 1259 0126 D7F89031 		ldr	r3, [r7, #400]
 1260              	.L73:
 428:C:/Users/dtjld/workspace/AIoT/src/LiteOS_Lab/iot_link/network/dtls/mbedtls/mbedtls-2.16.2/library\ctr_drbg.c **** }
 1261              		.loc 1 428 0 discriminator 1
 1262 012a 1846     		mov	r0, r3
 1263 012c 07F5CC77 		add	r7, r7, #408
 1264              	.LCFI61:
 1265              		.cfi_def_cfa_offset 8
 1266 0130 BD46     		mov	sp, r7
 1267              	.LCFI62:
 1268              		.cfi_def_cfa_register 13
 1269              		@ sp needed
 1270 0132 80BD     		pop	{r7, pc}
 1271              		.cfi_endproc
 1272              	.LFE14:
 1274              		.section	.text.mbedtls_ctr_drbg_random_with_add,"ax",%progbits
 1275              		.align	1
 1276              		.global	mbedtls_ctr_drbg_random_with_add
 1277              		.syntax unified
 1278              		.thumb
 1279              		.thumb_func
ARM GAS  C:\Users\dtjld\AppData\Local\Temp\ccfiLUAQ.s 			page 31


 1280              		.fpu fpv4-sp-d16
 1282              	mbedtls_ctr_drbg_random_with_add:
 1283              	.LFB15:
 429:C:/Users/dtjld/workspace/AIoT/src/LiteOS_Lab/iot_link/network/dtls/mbedtls/mbedtls-2.16.2/library\ctr_drbg.c **** 
 430:C:/Users/dtjld/workspace/AIoT/src/LiteOS_Lab/iot_link/network/dtls/mbedtls/mbedtls-2.16.2/library\ctr_drbg.c **** /* CTR_DRBG_Generate with derivation function (SP 800-90A &sect;10.2.1.5.2)
 431:C:/Users/dtjld/workspace/AIoT/src/LiteOS_Lab/iot_link/network/dtls/mbedtls/mbedtls-2.16.2/library\ctr_drbg.c ****  * mbedtls_ctr_drbg_random_with_add(ctx, output, output_len, additional, add_len)
 432:C:/Users/dtjld/workspace/AIoT/src/LiteOS_Lab/iot_link/network/dtls/mbedtls/mbedtls-2.16.2/library\ctr_drbg.c ****  * implements
 433:C:/Users/dtjld/workspace/AIoT/src/LiteOS_Lab/iot_link/network/dtls/mbedtls/mbedtls-2.16.2/library\ctr_drbg.c ****  * CTR_DRBG_Reseed(working_state, entropy_input, additional[:add_len])
 434:C:/Users/dtjld/workspace/AIoT/src/LiteOS_Lab/iot_link/network/dtls/mbedtls/mbedtls-2.16.2/library\ctr_drbg.c ****  *                -> working_state_after_reseed
 435:C:/Users/dtjld/workspace/AIoT/src/LiteOS_Lab/iot_link/network/dtls/mbedtls/mbedtls-2.16.2/library\ctr_drbg.c ****  *                if required, then
 436:C:/Users/dtjld/workspace/AIoT/src/LiteOS_Lab/iot_link/network/dtls/mbedtls/mbedtls-2.16.2/library\ctr_drbg.c ****  * CTR_DRBG_Generate(working_state_after_reseed,
 437:C:/Users/dtjld/workspace/AIoT/src/LiteOS_Lab/iot_link/network/dtls/mbedtls/mbedtls-2.16.2/library\ctr_drbg.c ****  *                   requested_number_of_bits, additional_input)
 438:C:/Users/dtjld/workspace/AIoT/src/LiteOS_Lab/iot_link/network/dtls/mbedtls/mbedtls-2.16.2/library\ctr_drbg.c ****  *                -> status, returned_bits, new_working_state
 439:C:/Users/dtjld/workspace/AIoT/src/LiteOS_Lab/iot_link/network/dtls/mbedtls/mbedtls-2.16.2/library\ctr_drbg.c ****  * with inputs
 440:C:/Users/dtjld/workspace/AIoT/src/LiteOS_Lab/iot_link/network/dtls/mbedtls/mbedtls-2.16.2/library\ctr_drbg.c ****  *   ctx contains working_state
 441:C:/Users/dtjld/workspace/AIoT/src/LiteOS_Lab/iot_link/network/dtls/mbedtls/mbedtls-2.16.2/library\ctr_drbg.c ****  *   requested_number_of_bits = 8 * output_len
 442:C:/Users/dtjld/workspace/AIoT/src/LiteOS_Lab/iot_link/network/dtls/mbedtls/mbedtls-2.16.2/library\ctr_drbg.c ****  *   additional[:add_len] = additional_input
 443:C:/Users/dtjld/workspace/AIoT/src/LiteOS_Lab/iot_link/network/dtls/mbedtls/mbedtls-2.16.2/library\ctr_drbg.c ****  * and entropy_input comes from calling ctx->f_entropy
 444:C:/Users/dtjld/workspace/AIoT/src/LiteOS_Lab/iot_link/network/dtls/mbedtls/mbedtls-2.16.2/library\ctr_drbg.c ****  * and with outputs
 445:C:/Users/dtjld/workspace/AIoT/src/LiteOS_Lab/iot_link/network/dtls/mbedtls/mbedtls-2.16.2/library\ctr_drbg.c ****  *   status = SUCCESS (this function does the reseed internally)
 446:C:/Users/dtjld/workspace/AIoT/src/LiteOS_Lab/iot_link/network/dtls/mbedtls/mbedtls-2.16.2/library\ctr_drbg.c ****  *   returned_bits = output[:output_len]
 447:C:/Users/dtjld/workspace/AIoT/src/LiteOS_Lab/iot_link/network/dtls/mbedtls/mbedtls-2.16.2/library\ctr_drbg.c ****  *   ctx contains new_working_state
 448:C:/Users/dtjld/workspace/AIoT/src/LiteOS_Lab/iot_link/network/dtls/mbedtls/mbedtls-2.16.2/library\ctr_drbg.c ****  */
 449:C:/Users/dtjld/workspace/AIoT/src/LiteOS_Lab/iot_link/network/dtls/mbedtls/mbedtls-2.16.2/library\ctr_drbg.c **** int mbedtls_ctr_drbg_random_with_add( void *p_rng,
 450:C:/Users/dtjld/workspace/AIoT/src/LiteOS_Lab/iot_link/network/dtls/mbedtls/mbedtls-2.16.2/library\ctr_drbg.c ****                               unsigned char *output, size_t output_len,
 451:C:/Users/dtjld/workspace/AIoT/src/LiteOS_Lab/iot_link/network/dtls/mbedtls/mbedtls-2.16.2/library\ctr_drbg.c ****                               const unsigned char *additional, size_t add_len )
 452:C:/Users/dtjld/workspace/AIoT/src/LiteOS_Lab/iot_link/network/dtls/mbedtls/mbedtls-2.16.2/library\ctr_drbg.c **** {
 1284              		.loc 1 452 0
 1285              		.cfi_startproc
 1286              		@ args = 4, pretend = 0, frame = 104
 1287              		@ frame_needed = 1, uses_anonymous_args = 0
 1288 0000 80B5     		push	{r7, lr}
 1289              	.LCFI63:
 1290              		.cfi_def_cfa_offset 8
 1291              		.cfi_offset 7, -8
 1292              		.cfi_offset 14, -4
 1293 0002 9AB0     		sub	sp, sp, #104
 1294              	.LCFI64:
 1295              		.cfi_def_cfa_offset 112
 1296 0004 00AF     		add	r7, sp, #0
 1297              	.LCFI65:
 1298              		.cfi_def_cfa_register 7
 1299 0006 F860     		str	r0, [r7, #12]
 1300 0008 B960     		str	r1, [r7, #8]
 1301 000a 7A60     		str	r2, [r7, #4]
 1302 000c 3B60     		str	r3, [r7]
 453:C:/Users/dtjld/workspace/AIoT/src/LiteOS_Lab/iot_link/network/dtls/mbedtls/mbedtls-2.16.2/library\ctr_drbg.c ****     int ret = 0;
 1303              		.loc 1 453 0
 1304 000e 0023     		movs	r3, #0
 1305 0010 FB65     		str	r3, [r7, #92]
 454:C:/Users/dtjld/workspace/AIoT/src/LiteOS_Lab/iot_link/network/dtls/mbedtls/mbedtls-2.16.2/library\ctr_drbg.c ****     mbedtls_ctr_drbg_context *ctx = (mbedtls_ctr_drbg_context *) p_rng;
 1306              		.loc 1 454 0
 1307 0012 FB68     		ldr	r3, [r7, #12]
 1308 0014 BB65     		str	r3, [r7, #88]
 455:C:/Users/dtjld/workspace/AIoT/src/LiteOS_Lab/iot_link/network/dtls/mbedtls/mbedtls-2.16.2/library\ctr_drbg.c ****     unsigned char add_input[MBEDTLS_CTR_DRBG_SEEDLEN];
 456:C:/Users/dtjld/workspace/AIoT/src/LiteOS_Lab/iot_link/network/dtls/mbedtls/mbedtls-2.16.2/library\ctr_drbg.c ****     unsigned char *p = output;
 1309              		.loc 1 456 0
ARM GAS  C:\Users\dtjld\AppData\Local\Temp\ccfiLUAQ.s 			page 32


 1310 0016 BB68     		ldr	r3, [r7, #8]
 1311 0018 7B66     		str	r3, [r7, #100]
 457:C:/Users/dtjld/workspace/AIoT/src/LiteOS_Lab/iot_link/network/dtls/mbedtls/mbedtls-2.16.2/library\ctr_drbg.c ****     unsigned char tmp[MBEDTLS_CTR_DRBG_BLOCKSIZE];
 458:C:/Users/dtjld/workspace/AIoT/src/LiteOS_Lab/iot_link/network/dtls/mbedtls/mbedtls-2.16.2/library\ctr_drbg.c ****     int i;
 459:C:/Users/dtjld/workspace/AIoT/src/LiteOS_Lab/iot_link/network/dtls/mbedtls/mbedtls-2.16.2/library\ctr_drbg.c ****     size_t use_len;
 460:C:/Users/dtjld/workspace/AIoT/src/LiteOS_Lab/iot_link/network/dtls/mbedtls/mbedtls-2.16.2/library\ctr_drbg.c **** 
 461:C:/Users/dtjld/workspace/AIoT/src/LiteOS_Lab/iot_link/network/dtls/mbedtls/mbedtls-2.16.2/library\ctr_drbg.c ****     if( output_len > MBEDTLS_CTR_DRBG_MAX_REQUEST )
 1312              		.loc 1 461 0
 1313 001a 7B68     		ldr	r3, [r7, #4]
 1314 001c B3F5806F 		cmp	r3, #1024
 1315 0020 02D9     		bls	.L77
 462:C:/Users/dtjld/workspace/AIoT/src/LiteOS_Lab/iot_link/network/dtls/mbedtls/mbedtls-2.16.2/library\ctr_drbg.c ****         return( MBEDTLS_ERR_CTR_DRBG_REQUEST_TOO_BIG );
 1316              		.loc 1 462 0
 1317 0022 6FF03503 		mvn	r3, #53
 1318 0026 9CE0     		b	.L94
 1319              	.L77:
 463:C:/Users/dtjld/workspace/AIoT/src/LiteOS_Lab/iot_link/network/dtls/mbedtls/mbedtls-2.16.2/library\ctr_drbg.c **** 
 464:C:/Users/dtjld/workspace/AIoT/src/LiteOS_Lab/iot_link/network/dtls/mbedtls/mbedtls-2.16.2/library\ctr_drbg.c ****     if( add_len > MBEDTLS_CTR_DRBG_MAX_INPUT )
 1320              		.loc 1 464 0
 1321 0028 3B6F     		ldr	r3, [r7, #112]
 1322 002a B3F5807F 		cmp	r3, #256
 1323 002e 02D9     		bls	.L79
 465:C:/Users/dtjld/workspace/AIoT/src/LiteOS_Lab/iot_link/network/dtls/mbedtls/mbedtls-2.16.2/library\ctr_drbg.c ****         return( MBEDTLS_ERR_CTR_DRBG_INPUT_TOO_BIG );
 1324              		.loc 1 465 0
 1325 0030 6FF03703 		mvn	r3, #55
 1326 0034 95E0     		b	.L94
 1327              	.L79:
 466:C:/Users/dtjld/workspace/AIoT/src/LiteOS_Lab/iot_link/network/dtls/mbedtls/mbedtls-2.16.2/library\ctr_drbg.c **** 
 467:C:/Users/dtjld/workspace/AIoT/src/LiteOS_Lab/iot_link/network/dtls/mbedtls/mbedtls-2.16.2/library\ctr_drbg.c ****     memset( add_input, 0, MBEDTLS_CTR_DRBG_SEEDLEN );
 1328              		.loc 1 467 0
 1329 0036 07F12403 		add	r3, r7, #36
 1330 003a 3022     		movs	r2, #48
 1331 003c 0021     		movs	r1, #0
 1332 003e 1846     		mov	r0, r3
 1333 0040 FFF7FEFF 		bl	memset
 468:C:/Users/dtjld/workspace/AIoT/src/LiteOS_Lab/iot_link/network/dtls/mbedtls/mbedtls-2.16.2/library\ctr_drbg.c **** 
 469:C:/Users/dtjld/workspace/AIoT/src/LiteOS_Lab/iot_link/network/dtls/mbedtls/mbedtls-2.16.2/library\ctr_drbg.c ****     if( ctx->reseed_counter > ctx->reseed_interval ||
 1334              		.loc 1 469 0
 1335 0044 BB6D     		ldr	r3, [r7, #88]
 1336 0046 1A69     		ldr	r2, [r3, #16]
 1337 0048 BB6D     		ldr	r3, [r7, #88]
 1338 004a DB69     		ldr	r3, [r3, #28]
 1339 004c 9A42     		cmp	r2, r3
 1340 004e 03DC     		bgt	.L80
 470:C:/Users/dtjld/workspace/AIoT/src/LiteOS_Lab/iot_link/network/dtls/mbedtls/mbedtls-2.16.2/library\ctr_drbg.c ****         ctx->prediction_resistance )
 1341              		.loc 1 470 0 discriminator 1
 1342 0050 BB6D     		ldr	r3, [r7, #88]
 1343 0052 5B69     		ldr	r3, [r3, #20]
 469:C:/Users/dtjld/workspace/AIoT/src/LiteOS_Lab/iot_link/network/dtls/mbedtls/mbedtls-2.16.2/library\ctr_drbg.c ****         ctx->prediction_resistance )
 1344              		.loc 1 469 0 discriminator 1
 1345 0054 002B     		cmp	r3, #0
 1346 0056 0CD0     		beq	.L81
 1347              	.L80:
 471:C:/Users/dtjld/workspace/AIoT/src/LiteOS_Lab/iot_link/network/dtls/mbedtls/mbedtls-2.16.2/library\ctr_drbg.c ****     {
 472:C:/Users/dtjld/workspace/AIoT/src/LiteOS_Lab/iot_link/network/dtls/mbedtls/mbedtls-2.16.2/library\ctr_drbg.c ****         if( ( ret = mbedtls_ctr_drbg_reseed( ctx, additional, add_len ) ) != 0 )
 1348              		.loc 1 472 0
 1349 0058 3A6F     		ldr	r2, [r7, #112]
ARM GAS  C:\Users\dtjld\AppData\Local\Temp\ccfiLUAQ.s 			page 33


 1350 005a 3968     		ldr	r1, [r7]
 1351 005c B86D     		ldr	r0, [r7, #88]
 1352 005e FFF7FEFF 		bl	mbedtls_ctr_drbg_reseed
 1353 0062 F865     		str	r0, [r7, #92]
 1354 0064 FB6D     		ldr	r3, [r7, #92]
 1355 0066 002B     		cmp	r3, #0
 1356 0068 01D0     		beq	.L82
 473:C:/Users/dtjld/workspace/AIoT/src/LiteOS_Lab/iot_link/network/dtls/mbedtls/mbedtls-2.16.2/library\ctr_drbg.c ****         {
 474:C:/Users/dtjld/workspace/AIoT/src/LiteOS_Lab/iot_link/network/dtls/mbedtls/mbedtls-2.16.2/library\ctr_drbg.c ****             return( ret );
 1357              		.loc 1 474 0
 1358 006a FB6D     		ldr	r3, [r7, #92]
 1359 006c 79E0     		b	.L94
 1360              	.L82:
 475:C:/Users/dtjld/workspace/AIoT/src/LiteOS_Lab/iot_link/network/dtls/mbedtls/mbedtls-2.16.2/library\ctr_drbg.c ****         }
 476:C:/Users/dtjld/workspace/AIoT/src/LiteOS_Lab/iot_link/network/dtls/mbedtls/mbedtls-2.16.2/library\ctr_drbg.c ****         add_len = 0;
 1361              		.loc 1 476 0
 1362 006e 0023     		movs	r3, #0
 1363 0070 3B67     		str	r3, [r7, #112]
 1364              	.L81:
 477:C:/Users/dtjld/workspace/AIoT/src/LiteOS_Lab/iot_link/network/dtls/mbedtls/mbedtls-2.16.2/library\ctr_drbg.c ****     }
 478:C:/Users/dtjld/workspace/AIoT/src/LiteOS_Lab/iot_link/network/dtls/mbedtls/mbedtls-2.16.2/library\ctr_drbg.c **** 
 479:C:/Users/dtjld/workspace/AIoT/src/LiteOS_Lab/iot_link/network/dtls/mbedtls/mbedtls-2.16.2/library\ctr_drbg.c ****     if( add_len > 0 )
 1365              		.loc 1 479 0
 1366 0072 3B6F     		ldr	r3, [r7, #112]
 1367 0074 002B     		cmp	r3, #0
 1368 0076 4DD0     		beq	.L86
 480:C:/Users/dtjld/workspace/AIoT/src/LiteOS_Lab/iot_link/network/dtls/mbedtls/mbedtls-2.16.2/library\ctr_drbg.c ****     {
 481:C:/Users/dtjld/workspace/AIoT/src/LiteOS_Lab/iot_link/network/dtls/mbedtls/mbedtls-2.16.2/library\ctr_drbg.c ****         if( ( ret = block_cipher_df( add_input, additional, add_len ) ) != 0 )
 1369              		.loc 1 481 0
 1370 0078 07F12403 		add	r3, r7, #36
 1371 007c 3A6F     		ldr	r2, [r7, #112]
 1372 007e 3968     		ldr	r1, [r7]
 1373 0080 1846     		mov	r0, r3
 1374 0082 FFF7FEFF 		bl	block_cipher_df
 1375 0086 F865     		str	r0, [r7, #92]
 1376 0088 FB6D     		ldr	r3, [r7, #92]
 1377 008a 002B     		cmp	r3, #0
 1378 008c 55D1     		bne	.L95
 482:C:/Users/dtjld/workspace/AIoT/src/LiteOS_Lab/iot_link/network/dtls/mbedtls/mbedtls-2.16.2/library\ctr_drbg.c ****             goto exit;
 483:C:/Users/dtjld/workspace/AIoT/src/LiteOS_Lab/iot_link/network/dtls/mbedtls/mbedtls-2.16.2/library\ctr_drbg.c ****         if( ( ret = ctr_drbg_update_internal( ctx, add_input ) ) != 0 )
 1379              		.loc 1 483 0
 1380 008e 07F12403 		add	r3, r7, #36
 1381 0092 1946     		mov	r1, r3
 1382 0094 B86D     		ldr	r0, [r7, #88]
 1383 0096 FFF7FEFF 		bl	ctr_drbg_update_internal
 1384 009a F865     		str	r0, [r7, #92]
 1385 009c FB6D     		ldr	r3, [r7, #92]
 1386 009e 002B     		cmp	r3, #0
 1387 00a0 4DD1     		bne	.L96
 484:C:/Users/dtjld/workspace/AIoT/src/LiteOS_Lab/iot_link/network/dtls/mbedtls/mbedtls-2.16.2/library\ctr_drbg.c ****             goto exit;
 485:C:/Users/dtjld/workspace/AIoT/src/LiteOS_Lab/iot_link/network/dtls/mbedtls/mbedtls-2.16.2/library\ctr_drbg.c ****     }
 486:C:/Users/dtjld/workspace/AIoT/src/LiteOS_Lab/iot_link/network/dtls/mbedtls/mbedtls-2.16.2/library\ctr_drbg.c **** 
 487:C:/Users/dtjld/workspace/AIoT/src/LiteOS_Lab/iot_link/network/dtls/mbedtls/mbedtls-2.16.2/library\ctr_drbg.c ****     while( output_len > 0 )
 1388              		.loc 1 487 0
 1389 00a2 37E0     		b	.L86
 1390              	.L92:
 488:C:/Users/dtjld/workspace/AIoT/src/LiteOS_Lab/iot_link/network/dtls/mbedtls/mbedtls-2.16.2/library\ctr_drbg.c ****     {
ARM GAS  C:\Users\dtjld\AppData\Local\Temp\ccfiLUAQ.s 			page 34


 489:C:/Users/dtjld/workspace/AIoT/src/LiteOS_Lab/iot_link/network/dtls/mbedtls/mbedtls-2.16.2/library\ctr_drbg.c ****         /*
 490:C:/Users/dtjld/workspace/AIoT/src/LiteOS_Lab/iot_link/network/dtls/mbedtls/mbedtls-2.16.2/library\ctr_drbg.c ****          * Increase counter
 491:C:/Users/dtjld/workspace/AIoT/src/LiteOS_Lab/iot_link/network/dtls/mbedtls/mbedtls-2.16.2/library\ctr_drbg.c ****          */
 492:C:/Users/dtjld/workspace/AIoT/src/LiteOS_Lab/iot_link/network/dtls/mbedtls/mbedtls-2.16.2/library\ctr_drbg.c ****         for( i = MBEDTLS_CTR_DRBG_BLOCKSIZE; i > 0; i-- )
 1391              		.loc 1 492 0
 1392 00a4 1023     		movs	r3, #16
 1393 00a6 3B66     		str	r3, [r7, #96]
 1394 00a8 0EE0     		b	.L87
 1395              	.L90:
 493:C:/Users/dtjld/workspace/AIoT/src/LiteOS_Lab/iot_link/network/dtls/mbedtls/mbedtls-2.16.2/library\ctr_drbg.c ****             if( ++ctx->counter[i - 1] != 0 )
 1396              		.loc 1 493 0
 1397 00aa 3B6E     		ldr	r3, [r7, #96]
 1398 00ac 013B     		subs	r3, r3, #1
 1399 00ae BA6D     		ldr	r2, [r7, #88]
 1400 00b0 D25C     		ldrb	r2, [r2, r3]	@ zero_extendqisi2
 1401 00b2 0132     		adds	r2, r2, #1
 1402 00b4 D1B2     		uxtb	r1, r2
 1403 00b6 BA6D     		ldr	r2, [r7, #88]
 1404 00b8 D154     		strb	r1, [r2, r3]
 1405 00ba BA6D     		ldr	r2, [r7, #88]
 1406 00bc D35C     		ldrb	r3, [r2, r3]	@ zero_extendqisi2
 1407 00be 002B     		cmp	r3, #0
 1408 00c0 06D1     		bne	.L97
 492:C:/Users/dtjld/workspace/AIoT/src/LiteOS_Lab/iot_link/network/dtls/mbedtls/mbedtls-2.16.2/library\ctr_drbg.c ****             if( ++ctx->counter[i - 1] != 0 )
 1409              		.loc 1 492 0 discriminator 2
 1410 00c2 3B6E     		ldr	r3, [r7, #96]
 1411 00c4 013B     		subs	r3, r3, #1
 1412 00c6 3B66     		str	r3, [r7, #96]
 1413              	.L87:
 492:C:/Users/dtjld/workspace/AIoT/src/LiteOS_Lab/iot_link/network/dtls/mbedtls/mbedtls-2.16.2/library\ctr_drbg.c ****             if( ++ctx->counter[i - 1] != 0 )
 1414              		.loc 1 492 0 is_stmt 0 discriminator 1
 1415 00c8 3B6E     		ldr	r3, [r7, #96]
 1416 00ca 002B     		cmp	r3, #0
 1417 00cc EDDC     		bgt	.L90
 1418 00ce 00E0     		b	.L89
 1419              	.L97:
 494:C:/Users/dtjld/workspace/AIoT/src/LiteOS_Lab/iot_link/network/dtls/mbedtls/mbedtls-2.16.2/library\ctr_drbg.c ****                 break;
 1420              		.loc 1 494 0 is_stmt 1
 1421 00d0 00BF     		nop
 1422              	.L89:
 495:C:/Users/dtjld/workspace/AIoT/src/LiteOS_Lab/iot_link/network/dtls/mbedtls/mbedtls-2.16.2/library\ctr_drbg.c **** 
 496:C:/Users/dtjld/workspace/AIoT/src/LiteOS_Lab/iot_link/network/dtls/mbedtls/mbedtls-2.16.2/library\ctr_drbg.c ****         /*
 497:C:/Users/dtjld/workspace/AIoT/src/LiteOS_Lab/iot_link/network/dtls/mbedtls/mbedtls-2.16.2/library\ctr_drbg.c ****          * Crypt counter block
 498:C:/Users/dtjld/workspace/AIoT/src/LiteOS_Lab/iot_link/network/dtls/mbedtls/mbedtls-2.16.2/library\ctr_drbg.c ****          */
 499:C:/Users/dtjld/workspace/AIoT/src/LiteOS_Lab/iot_link/network/dtls/mbedtls/mbedtls-2.16.2/library\ctr_drbg.c ****         if( ( ret = mbedtls_aes_crypt_ecb( &ctx->aes_ctx, MBEDTLS_AES_ENCRYPT, ctx->counter, tmp ) 
 1423              		.loc 1 499 0
 1424 00d2 BB6D     		ldr	r3, [r7, #88]
 1425 00d4 03F12000 		add	r0, r3, #32
 1426 00d8 BA6D     		ldr	r2, [r7, #88]
 1427 00da 07F11403 		add	r3, r7, #20
 1428 00de 0121     		movs	r1, #1
 1429 00e0 FFF7FEFF 		bl	mbedtls_aes_crypt_ecb
 1430 00e4 F865     		str	r0, [r7, #92]
 1431 00e6 FB6D     		ldr	r3, [r7, #92]
 1432 00e8 002B     		cmp	r3, #0
 1433 00ea 2AD1     		bne	.L98
 500:C:/Users/dtjld/workspace/AIoT/src/LiteOS_Lab/iot_link/network/dtls/mbedtls/mbedtls-2.16.2/library\ctr_drbg.c ****             goto exit;
ARM GAS  C:\Users\dtjld\AppData\Local\Temp\ccfiLUAQ.s 			page 35


 501:C:/Users/dtjld/workspace/AIoT/src/LiteOS_Lab/iot_link/network/dtls/mbedtls/mbedtls-2.16.2/library\ctr_drbg.c **** 
 502:C:/Users/dtjld/workspace/AIoT/src/LiteOS_Lab/iot_link/network/dtls/mbedtls/mbedtls-2.16.2/library\ctr_drbg.c ****         use_len = ( output_len > MBEDTLS_CTR_DRBG_BLOCKSIZE ) ? MBEDTLS_CTR_DRBG_BLOCKSIZE :
 1434              		.loc 1 502 0
 1435 00ec 7B68     		ldr	r3, [r7, #4]
 1436 00ee 102B     		cmp	r3, #16
 1437 00f0 28BF     		it	cs
 1438 00f2 1023     		movcs	r3, #16
 1439 00f4 7B65     		str	r3, [r7, #84]
 503:C:/Users/dtjld/workspace/AIoT/src/LiteOS_Lab/iot_link/network/dtls/mbedtls/mbedtls-2.16.2/library\ctr_drbg.c ****                                                        output_len;
 504:C:/Users/dtjld/workspace/AIoT/src/LiteOS_Lab/iot_link/network/dtls/mbedtls/mbedtls-2.16.2/library\ctr_drbg.c ****         /*
 505:C:/Users/dtjld/workspace/AIoT/src/LiteOS_Lab/iot_link/network/dtls/mbedtls/mbedtls-2.16.2/library\ctr_drbg.c ****          * Copy random block to destination
 506:C:/Users/dtjld/workspace/AIoT/src/LiteOS_Lab/iot_link/network/dtls/mbedtls/mbedtls-2.16.2/library\ctr_drbg.c ****          */
 507:C:/Users/dtjld/workspace/AIoT/src/LiteOS_Lab/iot_link/network/dtls/mbedtls/mbedtls-2.16.2/library\ctr_drbg.c ****         memcpy( p, tmp, use_len );
 1440              		.loc 1 507 0
 1441 00f6 07F11403 		add	r3, r7, #20
 1442 00fa 7A6D     		ldr	r2, [r7, #84]
 1443 00fc 1946     		mov	r1, r3
 1444 00fe 786E     		ldr	r0, [r7, #100]
 1445 0100 FFF7FEFF 		bl	memcpy
 508:C:/Users/dtjld/workspace/AIoT/src/LiteOS_Lab/iot_link/network/dtls/mbedtls/mbedtls-2.16.2/library\ctr_drbg.c ****         p += use_len;
 1446              		.loc 1 508 0
 1447 0104 7A6E     		ldr	r2, [r7, #100]
 1448 0106 7B6D     		ldr	r3, [r7, #84]
 1449 0108 1344     		add	r3, r3, r2
 1450 010a 7B66     		str	r3, [r7, #100]
 509:C:/Users/dtjld/workspace/AIoT/src/LiteOS_Lab/iot_link/network/dtls/mbedtls/mbedtls-2.16.2/library\ctr_drbg.c ****         output_len -= use_len;
 1451              		.loc 1 509 0
 1452 010c 7A68     		ldr	r2, [r7, #4]
 1453 010e 7B6D     		ldr	r3, [r7, #84]
 1454 0110 D31A     		subs	r3, r2, r3
 1455 0112 7B60     		str	r3, [r7, #4]
 1456              	.L86:
 487:C:/Users/dtjld/workspace/AIoT/src/LiteOS_Lab/iot_link/network/dtls/mbedtls/mbedtls-2.16.2/library\ctr_drbg.c ****     {
 1457              		.loc 1 487 0
 1458 0114 7B68     		ldr	r3, [r7, #4]
 1459 0116 002B     		cmp	r3, #0
 1460 0118 C4D1     		bne	.L92
 510:C:/Users/dtjld/workspace/AIoT/src/LiteOS_Lab/iot_link/network/dtls/mbedtls/mbedtls-2.16.2/library\ctr_drbg.c ****     }
 511:C:/Users/dtjld/workspace/AIoT/src/LiteOS_Lab/iot_link/network/dtls/mbedtls/mbedtls-2.16.2/library\ctr_drbg.c **** 
 512:C:/Users/dtjld/workspace/AIoT/src/LiteOS_Lab/iot_link/network/dtls/mbedtls/mbedtls-2.16.2/library\ctr_drbg.c ****     if( ( ret = ctr_drbg_update_internal( ctx, add_input ) ) != 0 )
 1461              		.loc 1 512 0
 1462 011a 07F12403 		add	r3, r7, #36
 1463 011e 1946     		mov	r1, r3
 1464 0120 B86D     		ldr	r0, [r7, #88]
 1465 0122 FFF7FEFF 		bl	ctr_drbg_update_internal
 1466 0126 F865     		str	r0, [r7, #92]
 1467 0128 FB6D     		ldr	r3, [r7, #92]
 1468 012a 002B     		cmp	r3, #0
 1469 012c 0BD1     		bne	.L99
 513:C:/Users/dtjld/workspace/AIoT/src/LiteOS_Lab/iot_link/network/dtls/mbedtls/mbedtls-2.16.2/library\ctr_drbg.c ****         goto exit;
 514:C:/Users/dtjld/workspace/AIoT/src/LiteOS_Lab/iot_link/network/dtls/mbedtls/mbedtls-2.16.2/library\ctr_drbg.c **** 
 515:C:/Users/dtjld/workspace/AIoT/src/LiteOS_Lab/iot_link/network/dtls/mbedtls/mbedtls-2.16.2/library\ctr_drbg.c ****     ctx->reseed_counter++;
 1470              		.loc 1 515 0
 1471 012e BB6D     		ldr	r3, [r7, #88]
 1472 0130 1B69     		ldr	r3, [r3, #16]
 1473 0132 5A1C     		adds	r2, r3, #1
 1474 0134 BB6D     		ldr	r3, [r7, #88]
ARM GAS  C:\Users\dtjld\AppData\Local\Temp\ccfiLUAQ.s 			page 36


 1475 0136 1A61     		str	r2, [r3, #16]
 1476 0138 06E0     		b	.L85
 1477              	.L95:
 482:C:/Users/dtjld/workspace/AIoT/src/LiteOS_Lab/iot_link/network/dtls/mbedtls/mbedtls-2.16.2/library\ctr_drbg.c ****         if( ( ret = ctr_drbg_update_internal( ctx, add_input ) ) != 0 )
 1478              		.loc 1 482 0
 1479 013a 00BF     		nop
 1480 013c 04E0     		b	.L85
 1481              	.L96:
 484:C:/Users/dtjld/workspace/AIoT/src/LiteOS_Lab/iot_link/network/dtls/mbedtls/mbedtls-2.16.2/library\ctr_drbg.c ****     }
 1482              		.loc 1 484 0
 1483 013e 00BF     		nop
 1484 0140 02E0     		b	.L85
 1485              	.L98:
 500:C:/Users/dtjld/workspace/AIoT/src/LiteOS_Lab/iot_link/network/dtls/mbedtls/mbedtls-2.16.2/library\ctr_drbg.c **** 
 1486              		.loc 1 500 0
 1487 0142 00BF     		nop
 1488 0144 00E0     		b	.L85
 1489              	.L99:
 513:C:/Users/dtjld/workspace/AIoT/src/LiteOS_Lab/iot_link/network/dtls/mbedtls/mbedtls-2.16.2/library\ctr_drbg.c **** 
 1490              		.loc 1 513 0
 1491 0146 00BF     		nop
 1492              	.L85:
 516:C:/Users/dtjld/workspace/AIoT/src/LiteOS_Lab/iot_link/network/dtls/mbedtls/mbedtls-2.16.2/library\ctr_drbg.c **** 
 517:C:/Users/dtjld/workspace/AIoT/src/LiteOS_Lab/iot_link/network/dtls/mbedtls/mbedtls-2.16.2/library\ctr_drbg.c **** exit:
 518:C:/Users/dtjld/workspace/AIoT/src/LiteOS_Lab/iot_link/network/dtls/mbedtls/mbedtls-2.16.2/library\ctr_drbg.c ****     mbedtls_platform_zeroize( add_input, sizeof( add_input ) );
 1493              		.loc 1 518 0
 1494 0148 07F12403 		add	r3, r7, #36
 1495 014c 3021     		movs	r1, #48
 1496 014e 1846     		mov	r0, r3
 1497 0150 FFF7FEFF 		bl	mbedtls_platform_zeroize
 519:C:/Users/dtjld/workspace/AIoT/src/LiteOS_Lab/iot_link/network/dtls/mbedtls/mbedtls-2.16.2/library\ctr_drbg.c ****     mbedtls_platform_zeroize( tmp, sizeof( tmp ) );
 1498              		.loc 1 519 0
 1499 0154 07F11403 		add	r3, r7, #20
 1500 0158 1021     		movs	r1, #16
 1501 015a 1846     		mov	r0, r3
 1502 015c FFF7FEFF 		bl	mbedtls_platform_zeroize
 520:C:/Users/dtjld/workspace/AIoT/src/LiteOS_Lab/iot_link/network/dtls/mbedtls/mbedtls-2.16.2/library\ctr_drbg.c ****     return( 0 );
 1503              		.loc 1 520 0
 1504 0160 0023     		movs	r3, #0
 1505              	.L94:
 521:C:/Users/dtjld/workspace/AIoT/src/LiteOS_Lab/iot_link/network/dtls/mbedtls/mbedtls-2.16.2/library\ctr_drbg.c **** }
 1506              		.loc 1 521 0 discriminator 1
 1507 0162 1846     		mov	r0, r3
 1508 0164 6837     		adds	r7, r7, #104
 1509              	.LCFI66:
 1510              		.cfi_def_cfa_offset 8
 1511 0166 BD46     		mov	sp, r7
 1512              	.LCFI67:
 1513              		.cfi_def_cfa_register 13
 1514              		@ sp needed
 1515 0168 80BD     		pop	{r7, pc}
 1516              		.cfi_endproc
 1517              	.LFE15:
 1519              		.section	.text.mbedtls_ctr_drbg_random,"ax",%progbits
 1520              		.align	1
 1521              		.global	mbedtls_ctr_drbg_random
 1522              		.syntax unified
ARM GAS  C:\Users\dtjld\AppData\Local\Temp\ccfiLUAQ.s 			page 37


 1523              		.thumb
 1524              		.thumb_func
 1525              		.fpu fpv4-sp-d16
 1527              	mbedtls_ctr_drbg_random:
 1528              	.LFB16:
 522:C:/Users/dtjld/workspace/AIoT/src/LiteOS_Lab/iot_link/network/dtls/mbedtls/mbedtls-2.16.2/library\ctr_drbg.c **** 
 523:C:/Users/dtjld/workspace/AIoT/src/LiteOS_Lab/iot_link/network/dtls/mbedtls/mbedtls-2.16.2/library\ctr_drbg.c **** int mbedtls_ctr_drbg_random( void *p_rng, unsigned char *output, size_t output_len )
 524:C:/Users/dtjld/workspace/AIoT/src/LiteOS_Lab/iot_link/network/dtls/mbedtls/mbedtls-2.16.2/library\ctr_drbg.c **** {
 1529              		.loc 1 524 0
 1530              		.cfi_startproc
 1531              		@ args = 0, pretend = 0, frame = 24
 1532              		@ frame_needed = 1, uses_anonymous_args = 0
 1533 0000 80B5     		push	{r7, lr}
 1534              	.LCFI68:
 1535              		.cfi_def_cfa_offset 8
 1536              		.cfi_offset 7, -8
 1537              		.cfi_offset 14, -4
 1538 0002 88B0     		sub	sp, sp, #32
 1539              	.LCFI69:
 1540              		.cfi_def_cfa_offset 40
 1541 0004 02AF     		add	r7, sp, #8
 1542              	.LCFI70:
 1543              		.cfi_def_cfa 7, 32
 1544 0006 F860     		str	r0, [r7, #12]
 1545 0008 B960     		str	r1, [r7, #8]
 1546 000a 7A60     		str	r2, [r7, #4]
 525:C:/Users/dtjld/workspace/AIoT/src/LiteOS_Lab/iot_link/network/dtls/mbedtls/mbedtls-2.16.2/library\ctr_drbg.c ****     int ret;
 526:C:/Users/dtjld/workspace/AIoT/src/LiteOS_Lab/iot_link/network/dtls/mbedtls/mbedtls-2.16.2/library\ctr_drbg.c ****     mbedtls_ctr_drbg_context *ctx = (mbedtls_ctr_drbg_context *) p_rng;
 1547              		.loc 1 526 0
 1548 000c FB68     		ldr	r3, [r7, #12]
 1549 000e 7B61     		str	r3, [r7, #20]
 527:C:/Users/dtjld/workspace/AIoT/src/LiteOS_Lab/iot_link/network/dtls/mbedtls/mbedtls-2.16.2/library\ctr_drbg.c **** 
 528:C:/Users/dtjld/workspace/AIoT/src/LiteOS_Lab/iot_link/network/dtls/mbedtls/mbedtls-2.16.2/library\ctr_drbg.c **** #if defined(MBEDTLS_THREADING_C)
 529:C:/Users/dtjld/workspace/AIoT/src/LiteOS_Lab/iot_link/network/dtls/mbedtls/mbedtls-2.16.2/library\ctr_drbg.c ****     if( ( ret = mbedtls_mutex_lock( &ctx->mutex ) ) != 0 )
 530:C:/Users/dtjld/workspace/AIoT/src/LiteOS_Lab/iot_link/network/dtls/mbedtls/mbedtls-2.16.2/library\ctr_drbg.c ****         return( ret );
 531:C:/Users/dtjld/workspace/AIoT/src/LiteOS_Lab/iot_link/network/dtls/mbedtls/mbedtls-2.16.2/library\ctr_drbg.c **** #endif
 532:C:/Users/dtjld/workspace/AIoT/src/LiteOS_Lab/iot_link/network/dtls/mbedtls/mbedtls-2.16.2/library\ctr_drbg.c **** 
 533:C:/Users/dtjld/workspace/AIoT/src/LiteOS_Lab/iot_link/network/dtls/mbedtls/mbedtls-2.16.2/library\ctr_drbg.c ****     ret = mbedtls_ctr_drbg_random_with_add( ctx, output, output_len, NULL, 0 );
 1550              		.loc 1 533 0
 1551 0010 0023     		movs	r3, #0
 1552 0012 0093     		str	r3, [sp]
 1553 0014 0023     		movs	r3, #0
 1554 0016 7A68     		ldr	r2, [r7, #4]
 1555 0018 B968     		ldr	r1, [r7, #8]
 1556 001a 7869     		ldr	r0, [r7, #20]
 1557 001c FFF7FEFF 		bl	mbedtls_ctr_drbg_random_with_add
 1558 0020 3861     		str	r0, [r7, #16]
 534:C:/Users/dtjld/workspace/AIoT/src/LiteOS_Lab/iot_link/network/dtls/mbedtls/mbedtls-2.16.2/library\ctr_drbg.c **** 
 535:C:/Users/dtjld/workspace/AIoT/src/LiteOS_Lab/iot_link/network/dtls/mbedtls/mbedtls-2.16.2/library\ctr_drbg.c **** #if defined(MBEDTLS_THREADING_C)
 536:C:/Users/dtjld/workspace/AIoT/src/LiteOS_Lab/iot_link/network/dtls/mbedtls/mbedtls-2.16.2/library\ctr_drbg.c ****     if( mbedtls_mutex_unlock( &ctx->mutex ) != 0 )
 537:C:/Users/dtjld/workspace/AIoT/src/LiteOS_Lab/iot_link/network/dtls/mbedtls/mbedtls-2.16.2/library\ctr_drbg.c ****         return( MBEDTLS_ERR_THREADING_MUTEX_ERROR );
 538:C:/Users/dtjld/workspace/AIoT/src/LiteOS_Lab/iot_link/network/dtls/mbedtls/mbedtls-2.16.2/library\ctr_drbg.c **** #endif
 539:C:/Users/dtjld/workspace/AIoT/src/LiteOS_Lab/iot_link/network/dtls/mbedtls/mbedtls-2.16.2/library\ctr_drbg.c **** 
 540:C:/Users/dtjld/workspace/AIoT/src/LiteOS_Lab/iot_link/network/dtls/mbedtls/mbedtls-2.16.2/library\ctr_drbg.c ****     return( ret );
 1559              		.loc 1 540 0
 1560 0022 3B69     		ldr	r3, [r7, #16]
 541:C:/Users/dtjld/workspace/AIoT/src/LiteOS_Lab/iot_link/network/dtls/mbedtls/mbedtls-2.16.2/library\ctr_drbg.c **** }
ARM GAS  C:\Users\dtjld\AppData\Local\Temp\ccfiLUAQ.s 			page 38


 1561              		.loc 1 541 0
 1562 0024 1846     		mov	r0, r3
 1563 0026 1837     		adds	r7, r7, #24
 1564              	.LCFI71:
 1565              		.cfi_def_cfa_offset 8
 1566 0028 BD46     		mov	sp, r7
 1567              	.LCFI72:
 1568              		.cfi_def_cfa_register 13
 1569              		@ sp needed
 1570 002a 80BD     		pop	{r7, pc}
 1571              		.cfi_endproc
 1572              	.LFE16:
 1574              		.section	.rodata.entropy_source_pr,"a",%progbits
 1575              		.align	2
 1578              	entropy_source_pr:
 1579 0000 C1       		.byte	-63
 1580 0001 80       		.byte	-128
 1581 0002 81       		.byte	-127
 1582 0003 A6       		.byte	-90
 1583 0004 5D       		.byte	93
 1584 0005 44       		.byte	68
 1585 0006 02       		.byte	2
 1586 0007 16       		.byte	22
 1587 0008 19       		.byte	25
 1588 0009 B3       		.byte	-77
 1589 000a F1       		.byte	-15
 1590 000b 80       		.byte	-128
 1591 000c B1       		.byte	-79
 1592 000d C9       		.byte	-55
 1593 000e 20       		.byte	32
 1594 000f 02       		.byte	2
 1595 0010 6A       		.byte	106
 1596 0011 54       		.byte	84
 1597 0012 6F       		.byte	111
 1598 0013 0C       		.byte	12
 1599 0014 70       		.byte	112
 1600 0015 81       		.byte	-127
 1601 0016 49       		.byte	73
 1602 0017 8B       		.byte	-117
 1603 0018 6E       		.byte	110
 1604 0019 A6       		.byte	-90
 1605 001a 62       		.byte	98
 1606 001b 52       		.byte	82
 1607 001c 6D       		.byte	109
 1608 001d 51       		.byte	81
 1609 001e B1       		.byte	-79
 1610 001f CB       		.byte	-53
 1611 0020 58       		.byte	88
 1612 0021 3B       		.byte	59
 1613 0022 FA       		.byte	-6
 1614 0023 D5       		.byte	-43
 1615 0024 37       		.byte	55
 1616 0025 5F       		.byte	95
 1617 0026 FB       		.byte	-5
 1618 0027 C9       		.byte	-55
 1619 0028 FF       		.byte	-1
 1620 0029 46       		.byte	70
ARM GAS  C:\Users\dtjld\AppData\Local\Temp\ccfiLUAQ.s 			page 39


 1621 002a D2       		.byte	-46
 1622 002b 19       		.byte	25
 1623 002c C7       		.byte	-57
 1624 002d 22       		.byte	34
 1625 002e 3E       		.byte	62
 1626 002f 95       		.byte	-107
 1627 0030 45       		.byte	69
 1628 0031 9D       		.byte	-99
 1629 0032 82       		.byte	-126
 1630 0033 E1       		.byte	-31
 1631 0034 E7       		.byte	-25
 1632 0035 22       		.byte	34
 1633 0036 9F       		.byte	-97
 1634 0037 63       		.byte	99
 1635 0038 31       		.byte	49
 1636 0039 69       		.byte	105
 1637 003a D2       		.byte	-46
 1638 003b 6B       		.byte	107
 1639 003c 57       		.byte	87
 1640 003d 47       		.byte	71
 1641 003e 4F       		.byte	79
 1642 003f A3       		.byte	-93
 1643 0040 37       		.byte	55
 1644 0041 C9       		.byte	-55
 1645 0042 98       		.byte	-104
 1646 0043 1C       		.byte	28
 1647 0044 0B       		.byte	11
 1648 0045 FB       		.byte	-5
 1649 0046 91       		.byte	-111
 1650 0047 31       		.byte	49
 1651 0048 4D       		.byte	77
 1652 0049 55       		.byte	85
 1653 004a B9       		.byte	-71
 1654 004b E9       		.byte	-23
 1655 004c 1C       		.byte	28
 1656 004d 5A       		.byte	90
 1657 004e 5E       		.byte	94
 1658 004f E4       		.byte	-28
 1659 0050 93       		.byte	-109
 1660 0051 92       		.byte	-110
 1661 0052 CF       		.byte	-49
 1662 0053 C5       		.byte	-59
 1663 0054 23       		.byte	35
 1664 0055 12       		.byte	18
 1665 0056 D5       		.byte	-43
 1666 0057 56       		.byte	86
 1667 0058 2C       		.byte	44
 1668 0059 4A       		.byte	74
 1669 005a 6E       		.byte	110
 1670 005b FF       		.byte	-1
 1671 005c DC       		.byte	-36
 1672 005d 10       		.byte	16
 1673 005e D0       		.byte	-48
 1674 005f 68       		.byte	104
 1675              		.section	.rodata.entropy_source_nopr,"a",%progbits
 1676              		.align	2
 1679              	entropy_source_nopr:
ARM GAS  C:\Users\dtjld\AppData\Local\Temp\ccfiLUAQ.s 			page 40


 1680 0000 5A       		.byte	90
 1681 0001 19       		.byte	25
 1682 0002 4D       		.byte	77
 1683 0003 5E       		.byte	94
 1684 0004 2B       		.byte	43
 1685 0005 31       		.byte	49
 1686 0006 58       		.byte	88
 1687 0007 14       		.byte	20
 1688 0008 54       		.byte	84
 1689 0009 DE       		.byte	-34
 1690 000a F6       		.byte	-10
 1691 000b 75       		.byte	117
 1692 000c FB       		.byte	-5
 1693 000d 79       		.byte	121
 1694 000e 58       		.byte	88
 1695 000f FE       		.byte	-2
 1696 0010 C7       		.byte	-57
 1697 0011 DB       		.byte	-37
 1698 0012 87       		.byte	-121
 1699 0013 3E       		.byte	62
 1700 0014 56       		.byte	86
 1701 0015 89       		.byte	-119
 1702 0016 FC       		.byte	-4
 1703 0017 9D       		.byte	-99
 1704 0018 03       		.byte	3
 1705 0019 21       		.byte	33
 1706 001a 7C       		.byte	124
 1707 001b 68       		.byte	104
 1708 001c D8       		.byte	-40
 1709 001d 03       		.byte	3
 1710 001e 38       		.byte	56
 1711 001f 20       		.byte	32
 1712 0020 F9       		.byte	-7
 1713 0021 E6       		.byte	-26
 1714 0022 5E       		.byte	94
 1715 0023 04       		.byte	4
 1716 0024 D8       		.byte	-40
 1717 0025 56       		.byte	86
 1718 0026 F3       		.byte	-13
 1719 0027 A9       		.byte	-87
 1720 0028 C4       		.byte	-60
 1721 0029 4A       		.byte	74
 1722 002a 4C       		.byte	76
 1723 002b BD       		.byte	-67
 1724 002c C1       		.byte	-63
 1725 002d D0       		.byte	-48
 1726 002e 08       		.byte	8
 1727 002f 46       		.byte	70
 1728 0030 F5       		.byte	-11
 1729 0031 98       		.byte	-104
 1730 0032 3D       		.byte	61
 1731 0033 77       		.byte	119
 1732 0034 1C       		.byte	28
 1733 0035 1B       		.byte	27
 1734 0036 13       		.byte	19
 1735 0037 7E       		.byte	126
 1736 0038 4E       		.byte	78
ARM GAS  C:\Users\dtjld\AppData\Local\Temp\ccfiLUAQ.s 			page 41


 1737 0039 0F       		.byte	15
 1738 003a 9D       		.byte	-99
 1739 003b 8E       		.byte	-114
 1740 003c F4       		.byte	-12
 1741 003d 09       		.byte	9
 1742 003e F9       		.byte	-7
 1743 003f 2E       		.byte	46
 1744              		.section	.rodata.nonce_pers_pr,"a",%progbits
 1745              		.align	2
 1748              	nonce_pers_pr:
 1749 0000 D2       		.byte	-46
 1750 0001 54       		.byte	84
 1751 0002 FC       		.byte	-4
 1752 0003 FF       		.byte	-1
 1753 0004 02       		.byte	2
 1754 0005 1E       		.byte	30
 1755 0006 69       		.byte	105
 1756 0007 D2       		.byte	-46
 1757 0008 29       		.byte	41
 1758 0009 C9       		.byte	-55
 1759 000a CF       		.byte	-49
 1760 000b AD       		.byte	-83
 1761 000c 85       		.byte	-123
 1762 000d FA       		.byte	-6
 1763 000e 48       		.byte	72
 1764 000f 6C       		.byte	108
 1765              		.section	.rodata.nonce_pers_nopr,"a",%progbits
 1766              		.align	2
 1769              	nonce_pers_nopr:
 1770 0000 1B       		.byte	27
 1771 0001 54       		.byte	84
 1772 0002 B8       		.byte	-72
 1773 0003 FF       		.byte	-1
 1774 0004 06       		.byte	6
 1775 0005 42       		.byte	66
 1776 0006 BF       		.byte	-65
 1777 0007 F5       		.byte	-11
 1778 0008 21       		.byte	33
 1779 0009 F1       		.byte	-15
 1780 000a 5C       		.byte	92
 1781 000b 1C       		.byte	28
 1782 000c 0B       		.byte	11
 1783 000d 66       		.byte	102
 1784 000e 5F       		.byte	95
 1785 000f 3F       		.byte	63
 1786              		.section	.rodata.result_pr,"a",%progbits
 1787              		.align	2
 1790              	result_pr:
 1791 0000 34       		.byte	52
 1792 0001 01       		.byte	1
 1793 0002 16       		.byte	22
 1794 0003 56       		.byte	86
 1795 0004 B4       		.byte	-76
 1796 0005 29       		.byte	41
 1797 0006 00       		.byte	0
 1798 0007 8F       		.byte	-113
 1799 0008 35       		.byte	53
ARM GAS  C:\Users\dtjld\AppData\Local\Temp\ccfiLUAQ.s 			page 42


 1800 0009 63       		.byte	99
 1801 000a EC       		.byte	-20
 1802 000b B5       		.byte	-75
 1803 000c F2       		.byte	-14
 1804 000d 59       		.byte	89
 1805 000e 07       		.byte	7
 1806 000f 23       		.byte	35
 1807              		.section	.rodata.result_nopr,"a",%progbits
 1808              		.align	2
 1811              	result_nopr:
 1812 0000 A0       		.byte	-96
 1813 0001 54       		.byte	84
 1814 0002 30       		.byte	48
 1815 0003 3D       		.byte	61
 1816 0004 8A       		.byte	-118
 1817 0005 7E       		.byte	126
 1818 0006 A9       		.byte	-87
 1819 0007 88       		.byte	-120
 1820 0008 9D       		.byte	-99
 1821 0009 90       		.byte	-112
 1822 000a 3E       		.byte	62
 1823 000b 07       		.byte	7
 1824 000c 7C       		.byte	124
 1825 000d 6F       		.byte	111
 1826 000e 21       		.byte	33
 1827 000f 8F       		.byte	-113
 1828              		.section	.bss.test_offset,"aw",%nobits
 1829              		.align	2
 1832              	test_offset:
 1833 0000 00000000 		.space	4
 1834              		.section	.text.ctr_drbg_self_test_entropy,"ax",%progbits
 1835              		.align	1
 1836              		.syntax unified
 1837              		.thumb
 1838              		.thumb_func
 1839              		.fpu fpv4-sp-d16
 1841              	ctr_drbg_self_test_entropy:
 1842              	.LFB17:
 542:C:/Users/dtjld/workspace/AIoT/src/LiteOS_Lab/iot_link/network/dtls/mbedtls/mbedtls-2.16.2/library\ctr_drbg.c **** 
 543:C:/Users/dtjld/workspace/AIoT/src/LiteOS_Lab/iot_link/network/dtls/mbedtls/mbedtls-2.16.2/library\ctr_drbg.c **** #if defined(MBEDTLS_FS_IO)
 544:C:/Users/dtjld/workspace/AIoT/src/LiteOS_Lab/iot_link/network/dtls/mbedtls/mbedtls-2.16.2/library\ctr_drbg.c **** int mbedtls_ctr_drbg_write_seed_file( mbedtls_ctr_drbg_context *ctx, const char *path )
 545:C:/Users/dtjld/workspace/AIoT/src/LiteOS_Lab/iot_link/network/dtls/mbedtls/mbedtls-2.16.2/library\ctr_drbg.c **** {
 546:C:/Users/dtjld/workspace/AIoT/src/LiteOS_Lab/iot_link/network/dtls/mbedtls/mbedtls-2.16.2/library\ctr_drbg.c ****     int ret = MBEDTLS_ERR_CTR_DRBG_FILE_IO_ERROR;
 547:C:/Users/dtjld/workspace/AIoT/src/LiteOS_Lab/iot_link/network/dtls/mbedtls/mbedtls-2.16.2/library\ctr_drbg.c ****     FILE *f;
 548:C:/Users/dtjld/workspace/AIoT/src/LiteOS_Lab/iot_link/network/dtls/mbedtls/mbedtls-2.16.2/library\ctr_drbg.c ****     unsigned char buf[ MBEDTLS_CTR_DRBG_MAX_INPUT ];
 549:C:/Users/dtjld/workspace/AIoT/src/LiteOS_Lab/iot_link/network/dtls/mbedtls/mbedtls-2.16.2/library\ctr_drbg.c **** 
 550:C:/Users/dtjld/workspace/AIoT/src/LiteOS_Lab/iot_link/network/dtls/mbedtls/mbedtls-2.16.2/library\ctr_drbg.c ****     if( ( f = fopen( path, "wb" ) ) == NULL )
 551:C:/Users/dtjld/workspace/AIoT/src/LiteOS_Lab/iot_link/network/dtls/mbedtls/mbedtls-2.16.2/library\ctr_drbg.c ****         return( MBEDTLS_ERR_CTR_DRBG_FILE_IO_ERROR );
 552:C:/Users/dtjld/workspace/AIoT/src/LiteOS_Lab/iot_link/network/dtls/mbedtls/mbedtls-2.16.2/library\ctr_drbg.c **** 
 553:C:/Users/dtjld/workspace/AIoT/src/LiteOS_Lab/iot_link/network/dtls/mbedtls/mbedtls-2.16.2/library\ctr_drbg.c ****     if( ( ret = mbedtls_ctr_drbg_random( ctx, buf, MBEDTLS_CTR_DRBG_MAX_INPUT ) ) != 0 )
 554:C:/Users/dtjld/workspace/AIoT/src/LiteOS_Lab/iot_link/network/dtls/mbedtls/mbedtls-2.16.2/library\ctr_drbg.c ****         goto exit;
 555:C:/Users/dtjld/workspace/AIoT/src/LiteOS_Lab/iot_link/network/dtls/mbedtls/mbedtls-2.16.2/library\ctr_drbg.c **** 
 556:C:/Users/dtjld/workspace/AIoT/src/LiteOS_Lab/iot_link/network/dtls/mbedtls/mbedtls-2.16.2/library\ctr_drbg.c ****     if( fwrite( buf, 1, MBEDTLS_CTR_DRBG_MAX_INPUT, f ) != MBEDTLS_CTR_DRBG_MAX_INPUT )
 557:C:/Users/dtjld/workspace/AIoT/src/LiteOS_Lab/iot_link/network/dtls/mbedtls/mbedtls-2.16.2/library\ctr_drbg.c ****         ret = MBEDTLS_ERR_CTR_DRBG_FILE_IO_ERROR;
 558:C:/Users/dtjld/workspace/AIoT/src/LiteOS_Lab/iot_link/network/dtls/mbedtls/mbedtls-2.16.2/library\ctr_drbg.c ****     else
 559:C:/Users/dtjld/workspace/AIoT/src/LiteOS_Lab/iot_link/network/dtls/mbedtls/mbedtls-2.16.2/library\ctr_drbg.c ****         ret = 0;
 560:C:/Users/dtjld/workspace/AIoT/src/LiteOS_Lab/iot_link/network/dtls/mbedtls/mbedtls-2.16.2/library\ctr_drbg.c **** 
ARM GAS  C:\Users\dtjld\AppData\Local\Temp\ccfiLUAQ.s 			page 43


 561:C:/Users/dtjld/workspace/AIoT/src/LiteOS_Lab/iot_link/network/dtls/mbedtls/mbedtls-2.16.2/library\ctr_drbg.c **** exit:
 562:C:/Users/dtjld/workspace/AIoT/src/LiteOS_Lab/iot_link/network/dtls/mbedtls/mbedtls-2.16.2/library\ctr_drbg.c ****     mbedtls_platform_zeroize( buf, sizeof( buf ) );
 563:C:/Users/dtjld/workspace/AIoT/src/LiteOS_Lab/iot_link/network/dtls/mbedtls/mbedtls-2.16.2/library\ctr_drbg.c **** 
 564:C:/Users/dtjld/workspace/AIoT/src/LiteOS_Lab/iot_link/network/dtls/mbedtls/mbedtls-2.16.2/library\ctr_drbg.c ****     fclose( f );
 565:C:/Users/dtjld/workspace/AIoT/src/LiteOS_Lab/iot_link/network/dtls/mbedtls/mbedtls-2.16.2/library\ctr_drbg.c ****     return( ret );
 566:C:/Users/dtjld/workspace/AIoT/src/LiteOS_Lab/iot_link/network/dtls/mbedtls/mbedtls-2.16.2/library\ctr_drbg.c **** }
 567:C:/Users/dtjld/workspace/AIoT/src/LiteOS_Lab/iot_link/network/dtls/mbedtls/mbedtls-2.16.2/library\ctr_drbg.c **** 
 568:C:/Users/dtjld/workspace/AIoT/src/LiteOS_Lab/iot_link/network/dtls/mbedtls/mbedtls-2.16.2/library\ctr_drbg.c **** int mbedtls_ctr_drbg_update_seed_file( mbedtls_ctr_drbg_context *ctx, const char *path )
 569:C:/Users/dtjld/workspace/AIoT/src/LiteOS_Lab/iot_link/network/dtls/mbedtls/mbedtls-2.16.2/library\ctr_drbg.c **** {
 570:C:/Users/dtjld/workspace/AIoT/src/LiteOS_Lab/iot_link/network/dtls/mbedtls/mbedtls-2.16.2/library\ctr_drbg.c ****     int ret = 0;
 571:C:/Users/dtjld/workspace/AIoT/src/LiteOS_Lab/iot_link/network/dtls/mbedtls/mbedtls-2.16.2/library\ctr_drbg.c ****     FILE *f = NULL;
 572:C:/Users/dtjld/workspace/AIoT/src/LiteOS_Lab/iot_link/network/dtls/mbedtls/mbedtls-2.16.2/library\ctr_drbg.c ****     size_t n;
 573:C:/Users/dtjld/workspace/AIoT/src/LiteOS_Lab/iot_link/network/dtls/mbedtls/mbedtls-2.16.2/library\ctr_drbg.c ****     unsigned char buf[ MBEDTLS_CTR_DRBG_MAX_INPUT ];
 574:C:/Users/dtjld/workspace/AIoT/src/LiteOS_Lab/iot_link/network/dtls/mbedtls/mbedtls-2.16.2/library\ctr_drbg.c ****     unsigned char c;
 575:C:/Users/dtjld/workspace/AIoT/src/LiteOS_Lab/iot_link/network/dtls/mbedtls/mbedtls-2.16.2/library\ctr_drbg.c **** 
 576:C:/Users/dtjld/workspace/AIoT/src/LiteOS_Lab/iot_link/network/dtls/mbedtls/mbedtls-2.16.2/library\ctr_drbg.c ****     if( ( f = fopen( path, "rb" ) ) == NULL )
 577:C:/Users/dtjld/workspace/AIoT/src/LiteOS_Lab/iot_link/network/dtls/mbedtls/mbedtls-2.16.2/library\ctr_drbg.c ****         return( MBEDTLS_ERR_CTR_DRBG_FILE_IO_ERROR );
 578:C:/Users/dtjld/workspace/AIoT/src/LiteOS_Lab/iot_link/network/dtls/mbedtls/mbedtls-2.16.2/library\ctr_drbg.c **** 
 579:C:/Users/dtjld/workspace/AIoT/src/LiteOS_Lab/iot_link/network/dtls/mbedtls/mbedtls-2.16.2/library\ctr_drbg.c ****     n = fread( buf, 1, sizeof( buf ), f );
 580:C:/Users/dtjld/workspace/AIoT/src/LiteOS_Lab/iot_link/network/dtls/mbedtls/mbedtls-2.16.2/library\ctr_drbg.c ****     if( fread( &c, 1, 1, f ) != 0 )
 581:C:/Users/dtjld/workspace/AIoT/src/LiteOS_Lab/iot_link/network/dtls/mbedtls/mbedtls-2.16.2/library\ctr_drbg.c ****     {
 582:C:/Users/dtjld/workspace/AIoT/src/LiteOS_Lab/iot_link/network/dtls/mbedtls/mbedtls-2.16.2/library\ctr_drbg.c ****         ret = MBEDTLS_ERR_CTR_DRBG_INPUT_TOO_BIG;
 583:C:/Users/dtjld/workspace/AIoT/src/LiteOS_Lab/iot_link/network/dtls/mbedtls/mbedtls-2.16.2/library\ctr_drbg.c ****         goto exit;
 584:C:/Users/dtjld/workspace/AIoT/src/LiteOS_Lab/iot_link/network/dtls/mbedtls/mbedtls-2.16.2/library\ctr_drbg.c ****     }
 585:C:/Users/dtjld/workspace/AIoT/src/LiteOS_Lab/iot_link/network/dtls/mbedtls/mbedtls-2.16.2/library\ctr_drbg.c ****     if( n == 0 || ferror( f ) )
 586:C:/Users/dtjld/workspace/AIoT/src/LiteOS_Lab/iot_link/network/dtls/mbedtls/mbedtls-2.16.2/library\ctr_drbg.c ****     {
 587:C:/Users/dtjld/workspace/AIoT/src/LiteOS_Lab/iot_link/network/dtls/mbedtls/mbedtls-2.16.2/library\ctr_drbg.c ****         ret = MBEDTLS_ERR_CTR_DRBG_FILE_IO_ERROR;
 588:C:/Users/dtjld/workspace/AIoT/src/LiteOS_Lab/iot_link/network/dtls/mbedtls/mbedtls-2.16.2/library\ctr_drbg.c ****         goto exit;
 589:C:/Users/dtjld/workspace/AIoT/src/LiteOS_Lab/iot_link/network/dtls/mbedtls/mbedtls-2.16.2/library\ctr_drbg.c ****     }
 590:C:/Users/dtjld/workspace/AIoT/src/LiteOS_Lab/iot_link/network/dtls/mbedtls/mbedtls-2.16.2/library\ctr_drbg.c ****     fclose( f );
 591:C:/Users/dtjld/workspace/AIoT/src/LiteOS_Lab/iot_link/network/dtls/mbedtls/mbedtls-2.16.2/library\ctr_drbg.c ****     f = NULL;
 592:C:/Users/dtjld/workspace/AIoT/src/LiteOS_Lab/iot_link/network/dtls/mbedtls/mbedtls-2.16.2/library\ctr_drbg.c **** 
 593:C:/Users/dtjld/workspace/AIoT/src/LiteOS_Lab/iot_link/network/dtls/mbedtls/mbedtls-2.16.2/library\ctr_drbg.c ****     ret = mbedtls_ctr_drbg_update_ret( ctx, buf, n );
 594:C:/Users/dtjld/workspace/AIoT/src/LiteOS_Lab/iot_link/network/dtls/mbedtls/mbedtls-2.16.2/library\ctr_drbg.c **** 
 595:C:/Users/dtjld/workspace/AIoT/src/LiteOS_Lab/iot_link/network/dtls/mbedtls/mbedtls-2.16.2/library\ctr_drbg.c **** exit:
 596:C:/Users/dtjld/workspace/AIoT/src/LiteOS_Lab/iot_link/network/dtls/mbedtls/mbedtls-2.16.2/library\ctr_drbg.c ****     mbedtls_platform_zeroize( buf, sizeof( buf ) );
 597:C:/Users/dtjld/workspace/AIoT/src/LiteOS_Lab/iot_link/network/dtls/mbedtls/mbedtls-2.16.2/library\ctr_drbg.c ****     if( f != NULL )
 598:C:/Users/dtjld/workspace/AIoT/src/LiteOS_Lab/iot_link/network/dtls/mbedtls/mbedtls-2.16.2/library\ctr_drbg.c ****         fclose( f );
 599:C:/Users/dtjld/workspace/AIoT/src/LiteOS_Lab/iot_link/network/dtls/mbedtls/mbedtls-2.16.2/library\ctr_drbg.c ****     if( ret != 0 )
 600:C:/Users/dtjld/workspace/AIoT/src/LiteOS_Lab/iot_link/network/dtls/mbedtls/mbedtls-2.16.2/library\ctr_drbg.c ****         return( ret );
 601:C:/Users/dtjld/workspace/AIoT/src/LiteOS_Lab/iot_link/network/dtls/mbedtls/mbedtls-2.16.2/library\ctr_drbg.c ****     return( mbedtls_ctr_drbg_write_seed_file( ctx, path ) );
 602:C:/Users/dtjld/workspace/AIoT/src/LiteOS_Lab/iot_link/network/dtls/mbedtls/mbedtls-2.16.2/library\ctr_drbg.c **** }
 603:C:/Users/dtjld/workspace/AIoT/src/LiteOS_Lab/iot_link/network/dtls/mbedtls/mbedtls-2.16.2/library\ctr_drbg.c **** #endif /* MBEDTLS_FS_IO */
 604:C:/Users/dtjld/workspace/AIoT/src/LiteOS_Lab/iot_link/network/dtls/mbedtls/mbedtls-2.16.2/library\ctr_drbg.c **** 
 605:C:/Users/dtjld/workspace/AIoT/src/LiteOS_Lab/iot_link/network/dtls/mbedtls/mbedtls-2.16.2/library\ctr_drbg.c **** #if defined(MBEDTLS_SELF_TEST)
 606:C:/Users/dtjld/workspace/AIoT/src/LiteOS_Lab/iot_link/network/dtls/mbedtls/mbedtls-2.16.2/library\ctr_drbg.c **** 
 607:C:/Users/dtjld/workspace/AIoT/src/LiteOS_Lab/iot_link/network/dtls/mbedtls/mbedtls-2.16.2/library\ctr_drbg.c **** static const unsigned char entropy_source_pr[96] =
 608:C:/Users/dtjld/workspace/AIoT/src/LiteOS_Lab/iot_link/network/dtls/mbedtls/mbedtls-2.16.2/library\ctr_drbg.c ****     { 0xc1, 0x80, 0x81, 0xa6, 0x5d, 0x44, 0x02, 0x16,
 609:C:/Users/dtjld/workspace/AIoT/src/LiteOS_Lab/iot_link/network/dtls/mbedtls/mbedtls-2.16.2/library\ctr_drbg.c ****       0x19, 0xb3, 0xf1, 0x80, 0xb1, 0xc9, 0x20, 0x02,
 610:C:/Users/dtjld/workspace/AIoT/src/LiteOS_Lab/iot_link/network/dtls/mbedtls/mbedtls-2.16.2/library\ctr_drbg.c ****       0x6a, 0x54, 0x6f, 0x0c, 0x70, 0x81, 0x49, 0x8b,
 611:C:/Users/dtjld/workspace/AIoT/src/LiteOS_Lab/iot_link/network/dtls/mbedtls/mbedtls-2.16.2/library\ctr_drbg.c ****       0x6e, 0xa6, 0x62, 0x52, 0x6d, 0x51, 0xb1, 0xcb,
 612:C:/Users/dtjld/workspace/AIoT/src/LiteOS_Lab/iot_link/network/dtls/mbedtls/mbedtls-2.16.2/library\ctr_drbg.c ****       0x58, 0x3b, 0xfa, 0xd5, 0x37, 0x5f, 0xfb, 0xc9,
 613:C:/Users/dtjld/workspace/AIoT/src/LiteOS_Lab/iot_link/network/dtls/mbedtls/mbedtls-2.16.2/library\ctr_drbg.c ****       0xff, 0x46, 0xd2, 0x19, 0xc7, 0x22, 0x3e, 0x95,
 614:C:/Users/dtjld/workspace/AIoT/src/LiteOS_Lab/iot_link/network/dtls/mbedtls/mbedtls-2.16.2/library\ctr_drbg.c ****       0x45, 0x9d, 0x82, 0xe1, 0xe7, 0x22, 0x9f, 0x63,
 615:C:/Users/dtjld/workspace/AIoT/src/LiteOS_Lab/iot_link/network/dtls/mbedtls/mbedtls-2.16.2/library\ctr_drbg.c ****       0x31, 0x69, 0xd2, 0x6b, 0x57, 0x47, 0x4f, 0xa3,
 616:C:/Users/dtjld/workspace/AIoT/src/LiteOS_Lab/iot_link/network/dtls/mbedtls/mbedtls-2.16.2/library\ctr_drbg.c ****       0x37, 0xc9, 0x98, 0x1c, 0x0b, 0xfb, 0x91, 0x31,
 617:C:/Users/dtjld/workspace/AIoT/src/LiteOS_Lab/iot_link/network/dtls/mbedtls/mbedtls-2.16.2/library\ctr_drbg.c ****       0x4d, 0x55, 0xb9, 0xe9, 0x1c, 0x5a, 0x5e, 0xe4,
ARM GAS  C:\Users\dtjld\AppData\Local\Temp\ccfiLUAQ.s 			page 44


 618:C:/Users/dtjld/workspace/AIoT/src/LiteOS_Lab/iot_link/network/dtls/mbedtls/mbedtls-2.16.2/library\ctr_drbg.c ****       0x93, 0x92, 0xcf, 0xc5, 0x23, 0x12, 0xd5, 0x56,
 619:C:/Users/dtjld/workspace/AIoT/src/LiteOS_Lab/iot_link/network/dtls/mbedtls/mbedtls-2.16.2/library\ctr_drbg.c ****       0x2c, 0x4a, 0x6e, 0xff, 0xdc, 0x10, 0xd0, 0x68 };
 620:C:/Users/dtjld/workspace/AIoT/src/LiteOS_Lab/iot_link/network/dtls/mbedtls/mbedtls-2.16.2/library\ctr_drbg.c **** 
 621:C:/Users/dtjld/workspace/AIoT/src/LiteOS_Lab/iot_link/network/dtls/mbedtls/mbedtls-2.16.2/library\ctr_drbg.c **** static const unsigned char entropy_source_nopr[64] =
 622:C:/Users/dtjld/workspace/AIoT/src/LiteOS_Lab/iot_link/network/dtls/mbedtls/mbedtls-2.16.2/library\ctr_drbg.c ****     { 0x5a, 0x19, 0x4d, 0x5e, 0x2b, 0x31, 0x58, 0x14,
 623:C:/Users/dtjld/workspace/AIoT/src/LiteOS_Lab/iot_link/network/dtls/mbedtls/mbedtls-2.16.2/library\ctr_drbg.c ****       0x54, 0xde, 0xf6, 0x75, 0xfb, 0x79, 0x58, 0xfe,
 624:C:/Users/dtjld/workspace/AIoT/src/LiteOS_Lab/iot_link/network/dtls/mbedtls/mbedtls-2.16.2/library\ctr_drbg.c ****       0xc7, 0xdb, 0x87, 0x3e, 0x56, 0x89, 0xfc, 0x9d,
 625:C:/Users/dtjld/workspace/AIoT/src/LiteOS_Lab/iot_link/network/dtls/mbedtls/mbedtls-2.16.2/library\ctr_drbg.c ****       0x03, 0x21, 0x7c, 0x68, 0xd8, 0x03, 0x38, 0x20,
 626:C:/Users/dtjld/workspace/AIoT/src/LiteOS_Lab/iot_link/network/dtls/mbedtls/mbedtls-2.16.2/library\ctr_drbg.c ****       0xf9, 0xe6, 0x5e, 0x04, 0xd8, 0x56, 0xf3, 0xa9,
 627:C:/Users/dtjld/workspace/AIoT/src/LiteOS_Lab/iot_link/network/dtls/mbedtls/mbedtls-2.16.2/library\ctr_drbg.c ****       0xc4, 0x4a, 0x4c, 0xbd, 0xc1, 0xd0, 0x08, 0x46,
 628:C:/Users/dtjld/workspace/AIoT/src/LiteOS_Lab/iot_link/network/dtls/mbedtls/mbedtls-2.16.2/library\ctr_drbg.c ****       0xf5, 0x98, 0x3d, 0x77, 0x1c, 0x1b, 0x13, 0x7e,
 629:C:/Users/dtjld/workspace/AIoT/src/LiteOS_Lab/iot_link/network/dtls/mbedtls/mbedtls-2.16.2/library\ctr_drbg.c ****       0x4e, 0x0f, 0x9d, 0x8e, 0xf4, 0x09, 0xf9, 0x2e };
 630:C:/Users/dtjld/workspace/AIoT/src/LiteOS_Lab/iot_link/network/dtls/mbedtls/mbedtls-2.16.2/library\ctr_drbg.c **** 
 631:C:/Users/dtjld/workspace/AIoT/src/LiteOS_Lab/iot_link/network/dtls/mbedtls/mbedtls-2.16.2/library\ctr_drbg.c **** static const unsigned char nonce_pers_pr[16] =
 632:C:/Users/dtjld/workspace/AIoT/src/LiteOS_Lab/iot_link/network/dtls/mbedtls/mbedtls-2.16.2/library\ctr_drbg.c ****     { 0xd2, 0x54, 0xfc, 0xff, 0x02, 0x1e, 0x69, 0xd2,
 633:C:/Users/dtjld/workspace/AIoT/src/LiteOS_Lab/iot_link/network/dtls/mbedtls/mbedtls-2.16.2/library\ctr_drbg.c ****       0x29, 0xc9, 0xcf, 0xad, 0x85, 0xfa, 0x48, 0x6c };
 634:C:/Users/dtjld/workspace/AIoT/src/LiteOS_Lab/iot_link/network/dtls/mbedtls/mbedtls-2.16.2/library\ctr_drbg.c **** 
 635:C:/Users/dtjld/workspace/AIoT/src/LiteOS_Lab/iot_link/network/dtls/mbedtls/mbedtls-2.16.2/library\ctr_drbg.c **** static const unsigned char nonce_pers_nopr[16] =
 636:C:/Users/dtjld/workspace/AIoT/src/LiteOS_Lab/iot_link/network/dtls/mbedtls/mbedtls-2.16.2/library\ctr_drbg.c ****     { 0x1b, 0x54, 0xb8, 0xff, 0x06, 0x42, 0xbf, 0xf5,
 637:C:/Users/dtjld/workspace/AIoT/src/LiteOS_Lab/iot_link/network/dtls/mbedtls/mbedtls-2.16.2/library\ctr_drbg.c ****       0x21, 0xf1, 0x5c, 0x1c, 0x0b, 0x66, 0x5f, 0x3f };
 638:C:/Users/dtjld/workspace/AIoT/src/LiteOS_Lab/iot_link/network/dtls/mbedtls/mbedtls-2.16.2/library\ctr_drbg.c **** 
 639:C:/Users/dtjld/workspace/AIoT/src/LiteOS_Lab/iot_link/network/dtls/mbedtls/mbedtls-2.16.2/library\ctr_drbg.c **** static const unsigned char result_pr[16] =
 640:C:/Users/dtjld/workspace/AIoT/src/LiteOS_Lab/iot_link/network/dtls/mbedtls/mbedtls-2.16.2/library\ctr_drbg.c ****     { 0x34, 0x01, 0x16, 0x56, 0xb4, 0x29, 0x00, 0x8f,
 641:C:/Users/dtjld/workspace/AIoT/src/LiteOS_Lab/iot_link/network/dtls/mbedtls/mbedtls-2.16.2/library\ctr_drbg.c ****       0x35, 0x63, 0xec, 0xb5, 0xf2, 0x59, 0x07, 0x23 };
 642:C:/Users/dtjld/workspace/AIoT/src/LiteOS_Lab/iot_link/network/dtls/mbedtls/mbedtls-2.16.2/library\ctr_drbg.c **** 
 643:C:/Users/dtjld/workspace/AIoT/src/LiteOS_Lab/iot_link/network/dtls/mbedtls/mbedtls-2.16.2/library\ctr_drbg.c **** static const unsigned char result_nopr[16] =
 644:C:/Users/dtjld/workspace/AIoT/src/LiteOS_Lab/iot_link/network/dtls/mbedtls/mbedtls-2.16.2/library\ctr_drbg.c ****     { 0xa0, 0x54, 0x30, 0x3d, 0x8a, 0x7e, 0xa9, 0x88,
 645:C:/Users/dtjld/workspace/AIoT/src/LiteOS_Lab/iot_link/network/dtls/mbedtls/mbedtls-2.16.2/library\ctr_drbg.c ****       0x9d, 0x90, 0x3e, 0x07, 0x7c, 0x6f, 0x21, 0x8f };
 646:C:/Users/dtjld/workspace/AIoT/src/LiteOS_Lab/iot_link/network/dtls/mbedtls/mbedtls-2.16.2/library\ctr_drbg.c **** 
 647:C:/Users/dtjld/workspace/AIoT/src/LiteOS_Lab/iot_link/network/dtls/mbedtls/mbedtls-2.16.2/library\ctr_drbg.c **** static size_t test_offset;
 648:C:/Users/dtjld/workspace/AIoT/src/LiteOS_Lab/iot_link/network/dtls/mbedtls/mbedtls-2.16.2/library\ctr_drbg.c **** static int ctr_drbg_self_test_entropy( void *data, unsigned char *buf,
 649:C:/Users/dtjld/workspace/AIoT/src/LiteOS_Lab/iot_link/network/dtls/mbedtls/mbedtls-2.16.2/library\ctr_drbg.c ****                                        size_t len )
 650:C:/Users/dtjld/workspace/AIoT/src/LiteOS_Lab/iot_link/network/dtls/mbedtls/mbedtls-2.16.2/library\ctr_drbg.c **** {
 1843              		.loc 1 650 0
 1844              		.cfi_startproc
 1845              		@ args = 0, pretend = 0, frame = 24
 1846              		@ frame_needed = 1, uses_anonymous_args = 0
 1847 0000 80B5     		push	{r7, lr}
 1848              	.LCFI73:
 1849              		.cfi_def_cfa_offset 8
 1850              		.cfi_offset 7, -8
 1851              		.cfi_offset 14, -4
 1852 0002 86B0     		sub	sp, sp, #24
 1853              	.LCFI74:
 1854              		.cfi_def_cfa_offset 32
 1855 0004 00AF     		add	r7, sp, #0
 1856              	.LCFI75:
 1857              		.cfi_def_cfa_register 7
 1858 0006 F860     		str	r0, [r7, #12]
 1859 0008 B960     		str	r1, [r7, #8]
 1860 000a 7A60     		str	r2, [r7, #4]
 651:C:/Users/dtjld/workspace/AIoT/src/LiteOS_Lab/iot_link/network/dtls/mbedtls/mbedtls-2.16.2/library\ctr_drbg.c ****     const unsigned char *p = data;
 1861              		.loc 1 651 0
 1862 000c FB68     		ldr	r3, [r7, #12]
 1863 000e 7B61     		str	r3, [r7, #20]
 652:C:/Users/dtjld/workspace/AIoT/src/LiteOS_Lab/iot_link/network/dtls/mbedtls/mbedtls-2.16.2/library\ctr_drbg.c ****     memcpy( buf, p + test_offset, len );
 1864              		.loc 1 652 0
ARM GAS  C:\Users\dtjld\AppData\Local\Temp\ccfiLUAQ.s 			page 45


 1865 0010 094B     		ldr	r3, .L104
 1866 0012 1B68     		ldr	r3, [r3]
 1867 0014 7A69     		ldr	r2, [r7, #20]
 1868 0016 1344     		add	r3, r3, r2
 1869 0018 7A68     		ldr	r2, [r7, #4]
 1870 001a 1946     		mov	r1, r3
 1871 001c B868     		ldr	r0, [r7, #8]
 1872 001e FFF7FEFF 		bl	memcpy
 653:C:/Users/dtjld/workspace/AIoT/src/LiteOS_Lab/iot_link/network/dtls/mbedtls/mbedtls-2.16.2/library\ctr_drbg.c ****     test_offset += len;
 1873              		.loc 1 653 0
 1874 0022 054B     		ldr	r3, .L104
 1875 0024 1A68     		ldr	r2, [r3]
 1876 0026 7B68     		ldr	r3, [r7, #4]
 1877 0028 1344     		add	r3, r3, r2
 1878 002a 034A     		ldr	r2, .L104
 1879 002c 1360     		str	r3, [r2]
 654:C:/Users/dtjld/workspace/AIoT/src/LiteOS_Lab/iot_link/network/dtls/mbedtls/mbedtls-2.16.2/library\ctr_drbg.c ****     return( 0 );
 1880              		.loc 1 654 0
 1881 002e 0023     		movs	r3, #0
 655:C:/Users/dtjld/workspace/AIoT/src/LiteOS_Lab/iot_link/network/dtls/mbedtls/mbedtls-2.16.2/library\ctr_drbg.c **** }
 1882              		.loc 1 655 0
 1883 0030 1846     		mov	r0, r3
 1884 0032 1837     		adds	r7, r7, #24
 1885              	.LCFI76:
 1886              		.cfi_def_cfa_offset 8
 1887 0034 BD46     		mov	sp, r7
 1888              	.LCFI77:
 1889              		.cfi_def_cfa_register 13
 1890              		@ sp needed
 1891 0036 80BD     		pop	{r7, pc}
 1892              	.L105:
 1893              		.align	2
 1894              	.L104:
 1895 0038 00000000 		.word	test_offset
 1896              		.cfi_endproc
 1897              	.LFE17:
 1899              		.section	.rodata
 1900              		.align	2
 1901              	.LC0:
 1902 0000 20204354 		.ascii	"  CTR_DRBG (PR = TRUE) : \000"
 1902      525F4452 
 1902      42472028 
 1902      5052203D 
 1902      20545255 
 1903 001a 0000     		.align	2
 1904              	.LC1:
 1905 001c 6661696C 		.ascii	"failed\012\000"
 1905      65640A00 
 1906              		.align	2
 1907              	.LC2:
 1908 0024 70617373 		.ascii	"passed\012\000"
 1908      65640A00 
 1909              		.align	2
 1910              	.LC3:
 1911 002c 20204354 		.ascii	"  CTR_DRBG (PR = FALSE): \000"
 1911      525F4452 
 1911      42472028 
ARM GAS  C:\Users\dtjld\AppData\Local\Temp\ccfiLUAQ.s 			page 46


 1911      5052203D 
 1911      2046414C 
 1912 0046 0000     		.align	2
 1913              	.LC4:
 1914 0048 0A00     		.ascii	"\012\000"
 1915              		.section	.text.mbedtls_ctr_drbg_self_test,"ax",%progbits
 1916              		.align	1
 1917              		.global	mbedtls_ctr_drbg_self_test
 1918              		.syntax unified
 1919              		.thumb
 1920              		.thumb_func
 1921              		.fpu fpv4-sp-d16
 1923              	mbedtls_ctr_drbg_self_test:
 1924              	.LFB18:
 656:C:/Users/dtjld/workspace/AIoT/src/LiteOS_Lab/iot_link/network/dtls/mbedtls/mbedtls-2.16.2/library\ctr_drbg.c **** 
 657:C:/Users/dtjld/workspace/AIoT/src/LiteOS_Lab/iot_link/network/dtls/mbedtls/mbedtls-2.16.2/library\ctr_drbg.c **** #define CHK( c )    if( (c) != 0 )                          \
 658:C:/Users/dtjld/workspace/AIoT/src/LiteOS_Lab/iot_link/network/dtls/mbedtls/mbedtls-2.16.2/library\ctr_drbg.c ****                     {                                       \
 659:C:/Users/dtjld/workspace/AIoT/src/LiteOS_Lab/iot_link/network/dtls/mbedtls/mbedtls-2.16.2/library\ctr_drbg.c ****                         if( verbose != 0 )                  \
 660:C:/Users/dtjld/workspace/AIoT/src/LiteOS_Lab/iot_link/network/dtls/mbedtls/mbedtls-2.16.2/library\ctr_drbg.c ****                             mbedtls_printf( "failed\n" );  \
 661:C:/Users/dtjld/workspace/AIoT/src/LiteOS_Lab/iot_link/network/dtls/mbedtls/mbedtls-2.16.2/library\ctr_drbg.c ****                         return( 1 );                        \
 662:C:/Users/dtjld/workspace/AIoT/src/LiteOS_Lab/iot_link/network/dtls/mbedtls/mbedtls-2.16.2/library\ctr_drbg.c ****                     }
 663:C:/Users/dtjld/workspace/AIoT/src/LiteOS_Lab/iot_link/network/dtls/mbedtls/mbedtls-2.16.2/library\ctr_drbg.c **** 
 664:C:/Users/dtjld/workspace/AIoT/src/LiteOS_Lab/iot_link/network/dtls/mbedtls/mbedtls-2.16.2/library\ctr_drbg.c **** /*
 665:C:/Users/dtjld/workspace/AIoT/src/LiteOS_Lab/iot_link/network/dtls/mbedtls/mbedtls-2.16.2/library\ctr_drbg.c ****  * Checkup routine
 666:C:/Users/dtjld/workspace/AIoT/src/LiteOS_Lab/iot_link/network/dtls/mbedtls/mbedtls-2.16.2/library\ctr_drbg.c ****  */
 667:C:/Users/dtjld/workspace/AIoT/src/LiteOS_Lab/iot_link/network/dtls/mbedtls/mbedtls-2.16.2/library\ctr_drbg.c **** int mbedtls_ctr_drbg_self_test( int verbose )
 668:C:/Users/dtjld/workspace/AIoT/src/LiteOS_Lab/iot_link/network/dtls/mbedtls/mbedtls-2.16.2/library\ctr_drbg.c **** {
 1925              		.loc 1 668 0
 1926              		.cfi_startproc
 1927              		@ args = 0, pretend = 0, frame = 344
 1928              		@ frame_needed = 1, uses_anonymous_args = 0
 1929 0000 80B5     		push	{r7, lr}
 1930              	.LCFI78:
 1931              		.cfi_def_cfa_offset 8
 1932              		.cfi_offset 7, -8
 1933              		.cfi_offset 14, -4
 1934 0002 D8B0     		sub	sp, sp, #352
 1935              	.LCFI79:
 1936              		.cfi_def_cfa_offset 360
 1937 0004 02AF     		add	r7, sp, #8
 1938              	.LCFI80:
 1939              		.cfi_def_cfa 7, 352
 1940 0006 3B1D     		adds	r3, r7, #4
 1941 0008 1860     		str	r0, [r3]
 669:C:/Users/dtjld/workspace/AIoT/src/LiteOS_Lab/iot_link/network/dtls/mbedtls/mbedtls-2.16.2/library\ctr_drbg.c ****     mbedtls_ctr_drbg_context ctx;
 670:C:/Users/dtjld/workspace/AIoT/src/LiteOS_Lab/iot_link/network/dtls/mbedtls/mbedtls-2.16.2/library\ctr_drbg.c ****     unsigned char buf[16];
 671:C:/Users/dtjld/workspace/AIoT/src/LiteOS_Lab/iot_link/network/dtls/mbedtls/mbedtls-2.16.2/library\ctr_drbg.c **** 
 672:C:/Users/dtjld/workspace/AIoT/src/LiteOS_Lab/iot_link/network/dtls/mbedtls/mbedtls-2.16.2/library\ctr_drbg.c ****     mbedtls_ctr_drbg_init( &ctx );
 1942              		.loc 1 672 0
 1943 000a 07F11803 		add	r3, r7, #24
 1944 000e 1846     		mov	r0, r3
 1945 0010 FFF7FEFF 		bl	mbedtls_ctr_drbg_init
 673:C:/Users/dtjld/workspace/AIoT/src/LiteOS_Lab/iot_link/network/dtls/mbedtls/mbedtls-2.16.2/library\ctr_drbg.c **** 
 674:C:/Users/dtjld/workspace/AIoT/src/LiteOS_Lab/iot_link/network/dtls/mbedtls/mbedtls-2.16.2/library\ctr_drbg.c ****     /*
 675:C:/Users/dtjld/workspace/AIoT/src/LiteOS_Lab/iot_link/network/dtls/mbedtls/mbedtls-2.16.2/library\ctr_drbg.c ****      * Based on a NIST CTR_DRBG test vector (PR = True)
 676:C:/Users/dtjld/workspace/AIoT/src/LiteOS_Lab/iot_link/network/dtls/mbedtls/mbedtls-2.16.2/library\ctr_drbg.c ****      */
 677:C:/Users/dtjld/workspace/AIoT/src/LiteOS_Lab/iot_link/network/dtls/mbedtls/mbedtls-2.16.2/library\ctr_drbg.c ****     if( verbose != 0 )
ARM GAS  C:\Users\dtjld\AppData\Local\Temp\ccfiLUAQ.s 			page 47


 1946              		.loc 1 677 0
 1947 0014 3B1D     		adds	r3, r7, #4
 1948 0016 1B68     		ldr	r3, [r3]
 1949 0018 002B     		cmp	r3, #0
 1950 001a 03D0     		beq	.L107
 678:C:/Users/dtjld/workspace/AIoT/src/LiteOS_Lab/iot_link/network/dtls/mbedtls/mbedtls-2.16.2/library\ctr_drbg.c ****         mbedtls_printf( "  CTR_DRBG (PR = TRUE) : " );
 1951              		.loc 1 678 0
 1952 001c 824B     		ldr	r3, .L132
 1953 001e 1B68     		ldr	r3, [r3]
 1954 0020 8248     		ldr	r0, .L132+4
 1955 0022 9847     		blx	r3
 1956              	.LVL1:
 1957              	.L107:
 679:C:/Users/dtjld/workspace/AIoT/src/LiteOS_Lab/iot_link/network/dtls/mbedtls/mbedtls-2.16.2/library\ctr_drbg.c **** 
 680:C:/Users/dtjld/workspace/AIoT/src/LiteOS_Lab/iot_link/network/dtls/mbedtls/mbedtls-2.16.2/library\ctr_drbg.c ****     test_offset = 0;
 1958              		.loc 1 680 0
 1959 0024 824B     		ldr	r3, .L132+8
 1960 0026 0022     		movs	r2, #0
 1961 0028 1A60     		str	r2, [r3]
 681:C:/Users/dtjld/workspace/AIoT/src/LiteOS_Lab/iot_link/network/dtls/mbedtls/mbedtls-2.16.2/library\ctr_drbg.c ****     CHK( mbedtls_ctr_drbg_seed_entropy_len( &ctx, ctr_drbg_self_test_entropy,
 1962              		.loc 1 681 0
 1963 002a 07F11800 		add	r0, r7, #24
 1964 002e 2023     		movs	r3, #32
 1965 0030 0193     		str	r3, [sp, #4]
 1966 0032 1023     		movs	r3, #16
 1967 0034 0093     		str	r3, [sp]
 1968 0036 7F4B     		ldr	r3, .L132+12
 1969 0038 7F4A     		ldr	r2, .L132+16
 1970 003a 8049     		ldr	r1, .L132+20
 1971 003c FFF7FEFF 		bl	mbedtls_ctr_drbg_seed_entropy_len
 1972 0040 0346     		mov	r3, r0
 1973 0042 002B     		cmp	r3, #0
 1974 0044 09D0     		beq	.L108
 1975              		.loc 1 681 0 is_stmt 0 discriminator 1
 1976 0046 3B1D     		adds	r3, r7, #4
 1977 0048 1B68     		ldr	r3, [r3]
 1978 004a 002B     		cmp	r3, #0
 1979 004c 03D0     		beq	.L109
 1980              		.loc 1 681 0 discriminator 2
 1981 004e 764B     		ldr	r3, .L132
 1982 0050 1B68     		ldr	r3, [r3]
 1983 0052 7B48     		ldr	r0, .L132+24
 1984 0054 9847     		blx	r3
 1985              	.LVL2:
 1986              	.L109:
 1987              		.loc 1 681 0 discriminator 4
 1988 0056 0123     		movs	r3, #1
 1989 0058 E0E0     		b	.L131
 1990              	.L108:
 682:C:/Users/dtjld/workspace/AIoT/src/LiteOS_Lab/iot_link/network/dtls/mbedtls/mbedtls-2.16.2/library\ctr_drbg.c ****                                 (void *) entropy_source_pr, nonce_pers_pr, 16, 32 ) );
 683:C:/Users/dtjld/workspace/AIoT/src/LiteOS_Lab/iot_link/network/dtls/mbedtls/mbedtls-2.16.2/library\ctr_drbg.c ****     mbedtls_ctr_drbg_set_prediction_resistance( &ctx, MBEDTLS_CTR_DRBG_PR_ON );
 1991              		.loc 1 683 0 is_stmt 1
 1992 005a 07F11803 		add	r3, r7, #24
 1993 005e 0121     		movs	r1, #1
 1994 0060 1846     		mov	r0, r3
 1995 0062 FFF7FEFF 		bl	mbedtls_ctr_drbg_set_prediction_resistance
 684:C:/Users/dtjld/workspace/AIoT/src/LiteOS_Lab/iot_link/network/dtls/mbedtls/mbedtls-2.16.2/library\ctr_drbg.c ****     CHK( mbedtls_ctr_drbg_random( &ctx, buf, MBEDTLS_CTR_DRBG_BLOCKSIZE ) );
ARM GAS  C:\Users\dtjld\AppData\Local\Temp\ccfiLUAQ.s 			page 48


 1996              		.loc 1 684 0
 1997 0066 07F10801 		add	r1, r7, #8
 1998 006a 07F11803 		add	r3, r7, #24
 1999 006e 1022     		movs	r2, #16
 2000 0070 1846     		mov	r0, r3
 2001 0072 FFF7FEFF 		bl	mbedtls_ctr_drbg_random
 2002 0076 0346     		mov	r3, r0
 2003 0078 002B     		cmp	r3, #0
 2004 007a 09D0     		beq	.L111
 2005              		.loc 1 684 0 is_stmt 0 discriminator 1
 2006 007c 3B1D     		adds	r3, r7, #4
 2007 007e 1B68     		ldr	r3, [r3]
 2008 0080 002B     		cmp	r3, #0
 2009 0082 03D0     		beq	.L112
 2010              		.loc 1 684 0 discriminator 2
 2011 0084 684B     		ldr	r3, .L132
 2012 0086 1B68     		ldr	r3, [r3]
 2013 0088 6D48     		ldr	r0, .L132+24
 2014 008a 9847     		blx	r3
 2015              	.LVL3:
 2016              	.L112:
 2017              		.loc 1 684 0 discriminator 4
 2018 008c 0123     		movs	r3, #1
 2019 008e C5E0     		b	.L131
 2020              	.L111:
 685:C:/Users/dtjld/workspace/AIoT/src/LiteOS_Lab/iot_link/network/dtls/mbedtls/mbedtls-2.16.2/library\ctr_drbg.c ****     CHK( mbedtls_ctr_drbg_random( &ctx, buf, MBEDTLS_CTR_DRBG_BLOCKSIZE ) );
 2021              		.loc 1 685 0 is_stmt 1
 2022 0090 07F10801 		add	r1, r7, #8
 2023 0094 07F11803 		add	r3, r7, #24
 2024 0098 1022     		movs	r2, #16
 2025 009a 1846     		mov	r0, r3
 2026 009c FFF7FEFF 		bl	mbedtls_ctr_drbg_random
 2027 00a0 0346     		mov	r3, r0
 2028 00a2 002B     		cmp	r3, #0
 2029 00a4 09D0     		beq	.L113
 2030              		.loc 1 685 0 is_stmt 0 discriminator 1
 2031 00a6 3B1D     		adds	r3, r7, #4
 2032 00a8 1B68     		ldr	r3, [r3]
 2033 00aa 002B     		cmp	r3, #0
 2034 00ac 03D0     		beq	.L114
 2035              		.loc 1 685 0 discriminator 2
 2036 00ae 5E4B     		ldr	r3, .L132
 2037 00b0 1B68     		ldr	r3, [r3]
 2038 00b2 6348     		ldr	r0, .L132+24
 2039 00b4 9847     		blx	r3
 2040              	.LVL4:
 2041              	.L114:
 2042              		.loc 1 685 0 discriminator 4
 2043 00b6 0123     		movs	r3, #1
 2044 00b8 B0E0     		b	.L131
 2045              	.L113:
 686:C:/Users/dtjld/workspace/AIoT/src/LiteOS_Lab/iot_link/network/dtls/mbedtls/mbedtls-2.16.2/library\ctr_drbg.c ****     CHK( memcmp( buf, result_pr, MBEDTLS_CTR_DRBG_BLOCKSIZE ) );
 2046              		.loc 1 686 0 is_stmt 1
 2047 00ba 07F10803 		add	r3, r7, #8
 2048 00be 1022     		movs	r2, #16
 2049 00c0 6049     		ldr	r1, .L132+28
 2050 00c2 1846     		mov	r0, r3
ARM GAS  C:\Users\dtjld\AppData\Local\Temp\ccfiLUAQ.s 			page 49


 2051 00c4 FFF7FEFF 		bl	memcmp
 2052 00c8 0346     		mov	r3, r0
 2053 00ca 002B     		cmp	r3, #0
 2054 00cc 09D0     		beq	.L115
 2055              		.loc 1 686 0 is_stmt 0 discriminator 1
 2056 00ce 3B1D     		adds	r3, r7, #4
 2057 00d0 1B68     		ldr	r3, [r3]
 2058 00d2 002B     		cmp	r3, #0
 2059 00d4 03D0     		beq	.L116
 2060              		.loc 1 686 0 discriminator 2
 2061 00d6 544B     		ldr	r3, .L132
 2062 00d8 1B68     		ldr	r3, [r3]
 2063 00da 5948     		ldr	r0, .L132+24
 2064 00dc 9847     		blx	r3
 2065              	.LVL5:
 2066              	.L116:
 2067              		.loc 1 686 0 discriminator 4
 2068 00de 0123     		movs	r3, #1
 2069 00e0 9CE0     		b	.L131
 2070              	.L115:
 687:C:/Users/dtjld/workspace/AIoT/src/LiteOS_Lab/iot_link/network/dtls/mbedtls/mbedtls-2.16.2/library\ctr_drbg.c **** 
 688:C:/Users/dtjld/workspace/AIoT/src/LiteOS_Lab/iot_link/network/dtls/mbedtls/mbedtls-2.16.2/library\ctr_drbg.c ****     mbedtls_ctr_drbg_free( &ctx );
 2071              		.loc 1 688 0 is_stmt 1
 2072 00e2 07F11803 		add	r3, r7, #24
 2073 00e6 1846     		mov	r0, r3
 2074 00e8 FFF7FEFF 		bl	mbedtls_ctr_drbg_free
 689:C:/Users/dtjld/workspace/AIoT/src/LiteOS_Lab/iot_link/network/dtls/mbedtls/mbedtls-2.16.2/library\ctr_drbg.c **** 
 690:C:/Users/dtjld/workspace/AIoT/src/LiteOS_Lab/iot_link/network/dtls/mbedtls/mbedtls-2.16.2/library\ctr_drbg.c ****     if( verbose != 0 )
 2075              		.loc 1 690 0
 2076 00ec 3B1D     		adds	r3, r7, #4
 2077 00ee 1B68     		ldr	r3, [r3]
 2078 00f0 002B     		cmp	r3, #0
 2079 00f2 03D0     		beq	.L117
 691:C:/Users/dtjld/workspace/AIoT/src/LiteOS_Lab/iot_link/network/dtls/mbedtls/mbedtls-2.16.2/library\ctr_drbg.c ****         mbedtls_printf( "passed\n" );
 2080              		.loc 1 691 0
 2081 00f4 4C4B     		ldr	r3, .L132
 2082 00f6 1B68     		ldr	r3, [r3]
 2083 00f8 5348     		ldr	r0, .L132+32
 2084 00fa 9847     		blx	r3
 2085              	.LVL6:
 2086              	.L117:
 692:C:/Users/dtjld/workspace/AIoT/src/LiteOS_Lab/iot_link/network/dtls/mbedtls/mbedtls-2.16.2/library\ctr_drbg.c **** 
 693:C:/Users/dtjld/workspace/AIoT/src/LiteOS_Lab/iot_link/network/dtls/mbedtls/mbedtls-2.16.2/library\ctr_drbg.c ****     /*
 694:C:/Users/dtjld/workspace/AIoT/src/LiteOS_Lab/iot_link/network/dtls/mbedtls/mbedtls-2.16.2/library\ctr_drbg.c ****      * Based on a NIST CTR_DRBG test vector (PR = FALSE)
 695:C:/Users/dtjld/workspace/AIoT/src/LiteOS_Lab/iot_link/network/dtls/mbedtls/mbedtls-2.16.2/library\ctr_drbg.c ****      */
 696:C:/Users/dtjld/workspace/AIoT/src/LiteOS_Lab/iot_link/network/dtls/mbedtls/mbedtls-2.16.2/library\ctr_drbg.c ****     if( verbose != 0 )
 2087              		.loc 1 696 0
 2088 00fc 3B1D     		adds	r3, r7, #4
 2089 00fe 1B68     		ldr	r3, [r3]
 2090 0100 002B     		cmp	r3, #0
 2091 0102 03D0     		beq	.L118
 697:C:/Users/dtjld/workspace/AIoT/src/LiteOS_Lab/iot_link/network/dtls/mbedtls/mbedtls-2.16.2/library\ctr_drbg.c ****         mbedtls_printf( "  CTR_DRBG (PR = FALSE): " );
 2092              		.loc 1 697 0
 2093 0104 484B     		ldr	r3, .L132
 2094 0106 1B68     		ldr	r3, [r3]
 2095 0108 5048     		ldr	r0, .L132+36
 2096 010a 9847     		blx	r3
ARM GAS  C:\Users\dtjld\AppData\Local\Temp\ccfiLUAQ.s 			page 50


 2097              	.LVL7:
 2098              	.L118:
 698:C:/Users/dtjld/workspace/AIoT/src/LiteOS_Lab/iot_link/network/dtls/mbedtls/mbedtls-2.16.2/library\ctr_drbg.c **** 
 699:C:/Users/dtjld/workspace/AIoT/src/LiteOS_Lab/iot_link/network/dtls/mbedtls/mbedtls-2.16.2/library\ctr_drbg.c ****     mbedtls_ctr_drbg_init( &ctx );
 2099              		.loc 1 699 0
 2100 010c 07F11803 		add	r3, r7, #24
 2101 0110 1846     		mov	r0, r3
 2102 0112 FFF7FEFF 		bl	mbedtls_ctr_drbg_init
 700:C:/Users/dtjld/workspace/AIoT/src/LiteOS_Lab/iot_link/network/dtls/mbedtls/mbedtls-2.16.2/library\ctr_drbg.c **** 
 701:C:/Users/dtjld/workspace/AIoT/src/LiteOS_Lab/iot_link/network/dtls/mbedtls/mbedtls-2.16.2/library\ctr_drbg.c ****     test_offset = 0;
 2103              		.loc 1 701 0
 2104 0116 464B     		ldr	r3, .L132+8
 2105 0118 0022     		movs	r2, #0
 2106 011a 1A60     		str	r2, [r3]
 702:C:/Users/dtjld/workspace/AIoT/src/LiteOS_Lab/iot_link/network/dtls/mbedtls/mbedtls-2.16.2/library\ctr_drbg.c ****     CHK( mbedtls_ctr_drbg_seed_entropy_len( &ctx, ctr_drbg_self_test_entropy,
 2107              		.loc 1 702 0
 2108 011c 07F11800 		add	r0, r7, #24
 2109 0120 2023     		movs	r3, #32
 2110 0122 0193     		str	r3, [sp, #4]
 2111 0124 1023     		movs	r3, #16
 2112 0126 0093     		str	r3, [sp]
 2113 0128 494B     		ldr	r3, .L132+40
 2114 012a 4A4A     		ldr	r2, .L132+44
 2115 012c 4349     		ldr	r1, .L132+20
 2116 012e FFF7FEFF 		bl	mbedtls_ctr_drbg_seed_entropy_len
 2117 0132 0346     		mov	r3, r0
 2118 0134 002B     		cmp	r3, #0
 2119 0136 09D0     		beq	.L119
 2120              		.loc 1 702 0 is_stmt 0 discriminator 1
 2121 0138 3B1D     		adds	r3, r7, #4
 2122 013a 1B68     		ldr	r3, [r3]
 2123 013c 002B     		cmp	r3, #0
 2124 013e 03D0     		beq	.L120
 2125              		.loc 1 702 0 discriminator 2
 2126 0140 394B     		ldr	r3, .L132
 2127 0142 1B68     		ldr	r3, [r3]
 2128 0144 3E48     		ldr	r0, .L132+24
 2129 0146 9847     		blx	r3
 2130              	.LVL8:
 2131              	.L120:
 2132              		.loc 1 702 0 discriminator 4
 2133 0148 0123     		movs	r3, #1
 2134 014a 67E0     		b	.L131
 2135              	.L119:
 703:C:/Users/dtjld/workspace/AIoT/src/LiteOS_Lab/iot_link/network/dtls/mbedtls/mbedtls-2.16.2/library\ctr_drbg.c ****                             (void *) entropy_source_nopr, nonce_pers_nopr, 16, 32 ) );
 704:C:/Users/dtjld/workspace/AIoT/src/LiteOS_Lab/iot_link/network/dtls/mbedtls/mbedtls-2.16.2/library\ctr_drbg.c ****     CHK( mbedtls_ctr_drbg_random( &ctx, buf, 16 ) );
 2136              		.loc 1 704 0 is_stmt 1
 2137 014c 07F10801 		add	r1, r7, #8
 2138 0150 07F11803 		add	r3, r7, #24
 2139 0154 1022     		movs	r2, #16
 2140 0156 1846     		mov	r0, r3
 2141 0158 FFF7FEFF 		bl	mbedtls_ctr_drbg_random
 2142 015c 0346     		mov	r3, r0
 2143 015e 002B     		cmp	r3, #0
 2144 0160 09D0     		beq	.L121
 2145              		.loc 1 704 0 is_stmt 0 discriminator 1
 2146 0162 3B1D     		adds	r3, r7, #4
ARM GAS  C:\Users\dtjld\AppData\Local\Temp\ccfiLUAQ.s 			page 51


 2147 0164 1B68     		ldr	r3, [r3]
 2148 0166 002B     		cmp	r3, #0
 2149 0168 03D0     		beq	.L122
 2150              		.loc 1 704 0 discriminator 2
 2151 016a 2F4B     		ldr	r3, .L132
 2152 016c 1B68     		ldr	r3, [r3]
 2153 016e 3448     		ldr	r0, .L132+24
 2154 0170 9847     		blx	r3
 2155              	.LVL9:
 2156              	.L122:
 2157              		.loc 1 704 0 discriminator 4
 2158 0172 0123     		movs	r3, #1
 2159 0174 52E0     		b	.L131
 2160              	.L121:
 705:C:/Users/dtjld/workspace/AIoT/src/LiteOS_Lab/iot_link/network/dtls/mbedtls/mbedtls-2.16.2/library\ctr_drbg.c ****     CHK( mbedtls_ctr_drbg_reseed( &ctx, NULL, 0 ) );
 2161              		.loc 1 705 0 is_stmt 1
 2162 0176 07F11803 		add	r3, r7, #24
 2163 017a 0022     		movs	r2, #0
 2164 017c 0021     		movs	r1, #0
 2165 017e 1846     		mov	r0, r3
 2166 0180 FFF7FEFF 		bl	mbedtls_ctr_drbg_reseed
 2167 0184 0346     		mov	r3, r0
 2168 0186 002B     		cmp	r3, #0
 2169 0188 09D0     		beq	.L123
 2170              		.loc 1 705 0 is_stmt 0 discriminator 1
 2171 018a 3B1D     		adds	r3, r7, #4
 2172 018c 1B68     		ldr	r3, [r3]
 2173 018e 002B     		cmp	r3, #0
 2174 0190 03D0     		beq	.L124
 2175              		.loc 1 705 0 discriminator 2
 2176 0192 254B     		ldr	r3, .L132
 2177 0194 1B68     		ldr	r3, [r3]
 2178 0196 2A48     		ldr	r0, .L132+24
 2179 0198 9847     		blx	r3
 2180              	.LVL10:
 2181              	.L124:
 2182              		.loc 1 705 0 discriminator 4
 2183 019a 0123     		movs	r3, #1
 2184 019c 3EE0     		b	.L131
 2185              	.L123:
 706:C:/Users/dtjld/workspace/AIoT/src/LiteOS_Lab/iot_link/network/dtls/mbedtls/mbedtls-2.16.2/library\ctr_drbg.c ****     CHK( mbedtls_ctr_drbg_random( &ctx, buf, 16 ) );
 2186              		.loc 1 706 0 is_stmt 1
 2187 019e 07F10801 		add	r1, r7, #8
 2188 01a2 07F11803 		add	r3, r7, #24
 2189 01a6 1022     		movs	r2, #16
 2190 01a8 1846     		mov	r0, r3
 2191 01aa FFF7FEFF 		bl	mbedtls_ctr_drbg_random
 2192 01ae 0346     		mov	r3, r0
 2193 01b0 002B     		cmp	r3, #0
 2194 01b2 09D0     		beq	.L125
 2195              		.loc 1 706 0 is_stmt 0 discriminator 1
 2196 01b4 3B1D     		adds	r3, r7, #4
 2197 01b6 1B68     		ldr	r3, [r3]
 2198 01b8 002B     		cmp	r3, #0
 2199 01ba 03D0     		beq	.L126
 2200              		.loc 1 706 0 discriminator 2
 2201 01bc 1A4B     		ldr	r3, .L132
ARM GAS  C:\Users\dtjld\AppData\Local\Temp\ccfiLUAQ.s 			page 52


 2202 01be 1B68     		ldr	r3, [r3]
 2203 01c0 1F48     		ldr	r0, .L132+24
 2204 01c2 9847     		blx	r3
 2205              	.LVL11:
 2206              	.L126:
 2207              		.loc 1 706 0 discriminator 4
 2208 01c4 0123     		movs	r3, #1
 2209 01c6 29E0     		b	.L131
 2210              	.L125:
 707:C:/Users/dtjld/workspace/AIoT/src/LiteOS_Lab/iot_link/network/dtls/mbedtls/mbedtls-2.16.2/library\ctr_drbg.c ****     CHK( memcmp( buf, result_nopr, 16 ) );
 2211              		.loc 1 707 0 is_stmt 1
 2212 01c8 07F10803 		add	r3, r7, #8
 2213 01cc 1022     		movs	r2, #16
 2214 01ce 2249     		ldr	r1, .L132+48
 2215 01d0 1846     		mov	r0, r3
 2216 01d2 FFF7FEFF 		bl	memcmp
 2217 01d6 0346     		mov	r3, r0
 2218 01d8 002B     		cmp	r3, #0
 2219 01da 09D0     		beq	.L127
 2220              		.loc 1 707 0 is_stmt 0 discriminator 1
 2221 01dc 3B1D     		adds	r3, r7, #4
 2222 01de 1B68     		ldr	r3, [r3]
 2223 01e0 002B     		cmp	r3, #0
 2224 01e2 03D0     		beq	.L128
 2225              		.loc 1 707 0 discriminator 2
 2226 01e4 104B     		ldr	r3, .L132
 2227 01e6 1B68     		ldr	r3, [r3]
 2228 01e8 1548     		ldr	r0, .L132+24
 2229 01ea 9847     		blx	r3
 2230              	.LVL12:
 2231              	.L128:
 2232              		.loc 1 707 0 discriminator 4
 2233 01ec 0123     		movs	r3, #1
 2234 01ee 15E0     		b	.L131
 2235              	.L127:
 708:C:/Users/dtjld/workspace/AIoT/src/LiteOS_Lab/iot_link/network/dtls/mbedtls/mbedtls-2.16.2/library\ctr_drbg.c **** 
 709:C:/Users/dtjld/workspace/AIoT/src/LiteOS_Lab/iot_link/network/dtls/mbedtls/mbedtls-2.16.2/library\ctr_drbg.c ****     mbedtls_ctr_drbg_free( &ctx );
 2236              		.loc 1 709 0 is_stmt 1
 2237 01f0 07F11803 		add	r3, r7, #24
 2238 01f4 1846     		mov	r0, r3
 2239 01f6 FFF7FEFF 		bl	mbedtls_ctr_drbg_free
 710:C:/Users/dtjld/workspace/AIoT/src/LiteOS_Lab/iot_link/network/dtls/mbedtls/mbedtls-2.16.2/library\ctr_drbg.c **** 
 711:C:/Users/dtjld/workspace/AIoT/src/LiteOS_Lab/iot_link/network/dtls/mbedtls/mbedtls-2.16.2/library\ctr_drbg.c ****     if( verbose != 0 )
 2240              		.loc 1 711 0
 2241 01fa 3B1D     		adds	r3, r7, #4
 2242 01fc 1B68     		ldr	r3, [r3]
 2243 01fe 002B     		cmp	r3, #0
 2244 0200 03D0     		beq	.L129
 712:C:/Users/dtjld/workspace/AIoT/src/LiteOS_Lab/iot_link/network/dtls/mbedtls/mbedtls-2.16.2/library\ctr_drbg.c ****         mbedtls_printf( "passed\n" );
 2245              		.loc 1 712 0
 2246 0202 094B     		ldr	r3, .L132
 2247 0204 1B68     		ldr	r3, [r3]
 2248 0206 1048     		ldr	r0, .L132+32
 2249 0208 9847     		blx	r3
 2250              	.LVL13:
 2251              	.L129:
 713:C:/Users/dtjld/workspace/AIoT/src/LiteOS_Lab/iot_link/network/dtls/mbedtls/mbedtls-2.16.2/library\ctr_drbg.c **** 
ARM GAS  C:\Users\dtjld\AppData\Local\Temp\ccfiLUAQ.s 			page 53


 714:C:/Users/dtjld/workspace/AIoT/src/LiteOS_Lab/iot_link/network/dtls/mbedtls/mbedtls-2.16.2/library\ctr_drbg.c ****     if( verbose != 0 )
 2252              		.loc 1 714 0
 2253 020a 3B1D     		adds	r3, r7, #4
 2254 020c 1B68     		ldr	r3, [r3]
 2255 020e 002B     		cmp	r3, #0
 2256 0210 03D0     		beq	.L130
 715:C:/Users/dtjld/workspace/AIoT/src/LiteOS_Lab/iot_link/network/dtls/mbedtls/mbedtls-2.16.2/library\ctr_drbg.c ****             mbedtls_printf( "\n" );
 2257              		.loc 1 715 0
 2258 0212 054B     		ldr	r3, .L132
 2259 0214 1B68     		ldr	r3, [r3]
 2260 0216 1148     		ldr	r0, .L132+52
 2261 0218 9847     		blx	r3
 2262              	.LVL14:
 2263              	.L130:
 716:C:/Users/dtjld/workspace/AIoT/src/LiteOS_Lab/iot_link/network/dtls/mbedtls/mbedtls-2.16.2/library\ctr_drbg.c **** 
 717:C:/Users/dtjld/workspace/AIoT/src/LiteOS_Lab/iot_link/network/dtls/mbedtls/mbedtls-2.16.2/library\ctr_drbg.c ****     return( 0 );
 2264              		.loc 1 717 0
 2265 021a 0023     		movs	r3, #0
 2266              	.L131:
 718:C:/Users/dtjld/workspace/AIoT/src/LiteOS_Lab/iot_link/network/dtls/mbedtls/mbedtls-2.16.2/library\ctr_drbg.c **** }
 2267              		.loc 1 718 0 discriminator 1
 2268 021c 1846     		mov	r0, r3
 2269 021e 07F5AC77 		add	r7, r7, #344
 2270              	.LCFI81:
 2271              		.cfi_def_cfa_offset 8
 2272 0222 BD46     		mov	sp, r7
 2273              	.LCFI82:
 2274              		.cfi_def_cfa_register 13
 2275              		@ sp needed
 2276 0224 80BD     		pop	{r7, pc}
 2277              	.L133:
 2278 0226 00BF     		.align	2
 2279              	.L132:
 2280 0228 00000000 		.word	mbedtls_printf
 2281 022c 00000000 		.word	.LC0
 2282 0230 00000000 		.word	test_offset
 2283 0234 00000000 		.word	nonce_pers_pr
 2284 0238 00000000 		.word	entropy_source_pr
 2285 023c 00000000 		.word	ctr_drbg_self_test_entropy
 2286 0240 1C000000 		.word	.LC1
 2287 0244 00000000 		.word	result_pr
 2288 0248 24000000 		.word	.LC2
 2289 024c 2C000000 		.word	.LC3
 2290 0250 00000000 		.word	nonce_pers_nopr
 2291 0254 00000000 		.word	entropy_source_nopr
 2292 0258 00000000 		.word	result_nopr
 2293 025c 48000000 		.word	.LC4
 2294              		.cfi_endproc
 2295              	.LFE18:
 2297              		.text
 2298              	.Letext0:
 2299              		.file 2 "c:\\ac6\\systemworkbench\\plugins\\fr.ac6.mcu.externaltools.arm-none.win32_1.16.0.2018071
 2300              		.file 3 "c:\\ac6\\systemworkbench\\plugins\\fr.ac6.mcu.externaltools.arm-none.win32_1.16.0.2018071
 2301              		.file 4 "c:\\ac6\\systemworkbench\\plugins\\fr.ac6.mcu.externaltools.arm-none.win32_1.16.0.2018071
 2302              		.file 5 "C:/Users/dtjld/workspace/AIoT/src/LiteOS_Lab/iot_link/network/dtls/mbedtls/mbedtls-2.16.2
 2303              		.file 6 "C:/Users/dtjld/workspace/AIoT/src/LiteOS_Lab/iot_link/network/dtls/mbedtls/mbedtls-2.16.2
 2304              		.file 7 "c:\\ac6\\systemworkbench\\plugins\\fr.ac6.mcu.externaltools.arm-none.win32_1.16.0.2018071
ARM GAS  C:\Users\dtjld\AppData\Local\Temp\ccfiLUAQ.s 			page 54


 2305              		.file 8 "c:\\ac6\\systemworkbench\\plugins\\fr.ac6.mcu.externaltools.arm-none.win32_1.16.0.2018071
 2306              		.file 9 "c:\\ac6\\systemworkbench\\plugins\\fr.ac6.mcu.externaltools.arm-none.win32_1.16.0.2018071
 2307              		.file 10 "c:\\ac6\\systemworkbench\\plugins\\fr.ac6.mcu.externaltools.arm-none.win32_1.16.0.201807
 2308              		.file 11 "c:\\ac6\\systemworkbench\\plugins\\fr.ac6.mcu.externaltools.arm-none.win32_1.16.0.201807
 2309              		.file 12 "C:/Users/dtjld/workspace/AIoT/src/LiteOS_Lab/iot_link/network/dtls/mbedtls/mbedtls-2.16.
ARM GAS  C:\Users\dtjld\AppData\Local\Temp\ccfiLUAQ.s 			page 55

