ARM GAS  C:\Users\dtjld\AppData\Local\Temp\ccLN8Itk.s 			page 1


   1              		.cpu cortex-m4
   2              		.eabi_attribute 27, 1
   3              		.eabi_attribute 28, 1
   4              		.eabi_attribute 20, 1
   5              		.eabi_attribute 21, 1
   6              		.eabi_attribute 23, 3
   7              		.eabi_attribute 24, 1
   8              		.eabi_attribute 25, 1
   9              		.eabi_attribute 26, 1
  10              		.eabi_attribute 30, 6
  11              		.eabi_attribute 34, 1
  12              		.eabi_attribute 18, 4
  13              		.file	"data.c"
  14              		.text
  15              	.Ltext0:
  16              		.cfi_sections	.debug_frame
  17              		.section	.text.dm_isUriOpaqueHandle,"ax",%progbits
  18              		.align	1
  19              		.syntax unified
  20              		.thumb
  21              		.thumb_func
  22              		.fpu fpv4-sp-d16
  24              	dm_isUriOpaqueHandle:
  25              	.LFB3:
  26              		.file 1 "C:/Users/dtjld/Desktop/AIoT_software/LiteOS_Lab_overseas/LiteOS_Lab/iot_link/network/lwm2
   1:C:/Users/dtjld/Desktop/AIoT_software/LiteOS_Lab_overseas/LiteOS_Lab/iot_link/network/lwm2m/wakaama_lwm2m/core\internals.h **** /*----------------------------------------------------------------------------
   2:C:/Users/dtjld/Desktop/AIoT_software/LiteOS_Lab_overseas/LiteOS_Lab/iot_link/network/lwm2m/wakaama_lwm2m/core\internals.h ****  * Copyright (c) <2016-2018>, <Huawei Technologies Co., Ltd>
   3:C:/Users/dtjld/Desktop/AIoT_software/LiteOS_Lab_overseas/LiteOS_Lab/iot_link/network/lwm2m/wakaama_lwm2m/core\internals.h ****  * All rights reserved.
   4:C:/Users/dtjld/Desktop/AIoT_software/LiteOS_Lab_overseas/LiteOS_Lab/iot_link/network/lwm2m/wakaama_lwm2m/core\internals.h ****  * Redistribution and use in source and binary forms, with or without modification,
   5:C:/Users/dtjld/Desktop/AIoT_software/LiteOS_Lab_overseas/LiteOS_Lab/iot_link/network/lwm2m/wakaama_lwm2m/core\internals.h ****  * are permitted provided that the following conditions are met:
   6:C:/Users/dtjld/Desktop/AIoT_software/LiteOS_Lab_overseas/LiteOS_Lab/iot_link/network/lwm2m/wakaama_lwm2m/core\internals.h ****  * 1. Redistributions of source code must retain the above copyright notice, this list of
   7:C:/Users/dtjld/Desktop/AIoT_software/LiteOS_Lab_overseas/LiteOS_Lab/iot_link/network/lwm2m/wakaama_lwm2m/core\internals.h ****  * conditions and the following disclaimer.
   8:C:/Users/dtjld/Desktop/AIoT_software/LiteOS_Lab_overseas/LiteOS_Lab/iot_link/network/lwm2m/wakaama_lwm2m/core\internals.h ****  * 2. Redistributions in binary form must reproduce the above copyright notice, this list
   9:C:/Users/dtjld/Desktop/AIoT_software/LiteOS_Lab_overseas/LiteOS_Lab/iot_link/network/lwm2m/wakaama_lwm2m/core\internals.h ****  * of conditions and the following disclaimer in the documentation and/or other materials
  10:C:/Users/dtjld/Desktop/AIoT_software/LiteOS_Lab_overseas/LiteOS_Lab/iot_link/network/lwm2m/wakaama_lwm2m/core\internals.h ****  * provided with the distribution.
  11:C:/Users/dtjld/Desktop/AIoT_software/LiteOS_Lab_overseas/LiteOS_Lab/iot_link/network/lwm2m/wakaama_lwm2m/core\internals.h ****  * 3. Neither the name of the copyright holder nor the names of its contributors may be used
  12:C:/Users/dtjld/Desktop/AIoT_software/LiteOS_Lab_overseas/LiteOS_Lab/iot_link/network/lwm2m/wakaama_lwm2m/core\internals.h ****  * to endorse or promote products derived from this software without specific prior written
  13:C:/Users/dtjld/Desktop/AIoT_software/LiteOS_Lab_overseas/LiteOS_Lab/iot_link/network/lwm2m/wakaama_lwm2m/core\internals.h ****  * permission.
  14:C:/Users/dtjld/Desktop/AIoT_software/LiteOS_Lab_overseas/LiteOS_Lab/iot_link/network/lwm2m/wakaama_lwm2m/core\internals.h ****  * THIS SOFTWARE IS PROVIDED BY THE COPYRIGHT HOLDERS AND CONTRIBUTORS
  15:C:/Users/dtjld/Desktop/AIoT_software/LiteOS_Lab_overseas/LiteOS_Lab/iot_link/network/lwm2m/wakaama_lwm2m/core\internals.h ****  * "AS IS" AND ANY EXPRESS OR IMPLIED WARRANTIES, INCLUDING, BUT NOT LIMITED TO,
  16:C:/Users/dtjld/Desktop/AIoT_software/LiteOS_Lab_overseas/LiteOS_Lab/iot_link/network/lwm2m/wakaama_lwm2m/core\internals.h ****  * THE IMPLIED WARRANTIES OF MERCHANTABILITY AND FITNESS FOR A PARTICULAR
  17:C:/Users/dtjld/Desktop/AIoT_software/LiteOS_Lab_overseas/LiteOS_Lab/iot_link/network/lwm2m/wakaama_lwm2m/core\internals.h ****  * PURPOSE ARE DISCLAIMED. IN NO EVENT SHALL THE COPYRIGHT HOLDER OR
  18:C:/Users/dtjld/Desktop/AIoT_software/LiteOS_Lab_overseas/LiteOS_Lab/iot_link/network/lwm2m/wakaama_lwm2m/core\internals.h ****  * CONTRIBUTORS BE LIABLE FOR ANY DIRECT, INDIRECT, INCIDENTAL, SPECIAL,
  19:C:/Users/dtjld/Desktop/AIoT_software/LiteOS_Lab_overseas/LiteOS_Lab/iot_link/network/lwm2m/wakaama_lwm2m/core\internals.h ****  * EXEMPLARY, OR CONSEQUENTIAL DAMAGES (INCLUDING, BUT NOT LIMITED TO,
  20:C:/Users/dtjld/Desktop/AIoT_software/LiteOS_Lab_overseas/LiteOS_Lab/iot_link/network/lwm2m/wakaama_lwm2m/core\internals.h ****  * PROCUREMENT OF SUBSTITUTE GOODS OR SERVICES; LOSS OF USE, DATA, OR PROFITS;
  21:C:/Users/dtjld/Desktop/AIoT_software/LiteOS_Lab_overseas/LiteOS_Lab/iot_link/network/lwm2m/wakaama_lwm2m/core\internals.h ****  * OR BUSINESS INTERRUPTION) HOWEVER CAUSED AND ON ANY THEORY OF LIABILITY,
  22:C:/Users/dtjld/Desktop/AIoT_software/LiteOS_Lab_overseas/LiteOS_Lab/iot_link/network/lwm2m/wakaama_lwm2m/core\internals.h ****  * WHETHER IN CONTRACT, STRICT LIABILITY, OR TORT (INCLUDING NEGLIGENCE OR
  23:C:/Users/dtjld/Desktop/AIoT_software/LiteOS_Lab_overseas/LiteOS_Lab/iot_link/network/lwm2m/wakaama_lwm2m/core\internals.h ****  * OTHERWISE) ARISING IN ANY WAY OUT OF THE USE OF THIS SOFTWARE, EVEN IF
  24:C:/Users/dtjld/Desktop/AIoT_software/LiteOS_Lab_overseas/LiteOS_Lab/iot_link/network/lwm2m/wakaama_lwm2m/core\internals.h ****  * ADVISED OF THE POSSIBILITY OF SUCH DAMAGE.
  25:C:/Users/dtjld/Desktop/AIoT_software/LiteOS_Lab_overseas/LiteOS_Lab/iot_link/network/lwm2m/wakaama_lwm2m/core\internals.h ****  *---------------------------------------------------------------------------*/
  26:C:/Users/dtjld/Desktop/AIoT_software/LiteOS_Lab_overseas/LiteOS_Lab/iot_link/network/lwm2m/wakaama_lwm2m/core\internals.h **** /*----------------------------------------------------------------------------
  27:C:/Users/dtjld/Desktop/AIoT_software/LiteOS_Lab_overseas/LiteOS_Lab/iot_link/network/lwm2m/wakaama_lwm2m/core\internals.h ****  * Notice of Export Control Law
  28:C:/Users/dtjld/Desktop/AIoT_software/LiteOS_Lab_overseas/LiteOS_Lab/iot_link/network/lwm2m/wakaama_lwm2m/core\internals.h ****  * ===============================================
  29:C:/Users/dtjld/Desktop/AIoT_software/LiteOS_Lab_overseas/LiteOS_Lab/iot_link/network/lwm2m/wakaama_lwm2m/core\internals.h ****  * Huawei LiteOS may be subject to applicable export control laws and regulations, which might
  30:C:/Users/dtjld/Desktop/AIoT_software/LiteOS_Lab_overseas/LiteOS_Lab/iot_link/network/lwm2m/wakaama_lwm2m/core\internals.h ****  * include those applicable to Huawei LiteOS of U.S. and the country in which you are located.
  31:C:/Users/dtjld/Desktop/AIoT_software/LiteOS_Lab_overseas/LiteOS_Lab/iot_link/network/lwm2m/wakaama_lwm2m/core\internals.h ****  * Import, export and usage of Huawei LiteOS in any manner by you shall be in compliance with such
  32:C:/Users/dtjld/Desktop/AIoT_software/LiteOS_Lab_overseas/LiteOS_Lab/iot_link/network/lwm2m/wakaama_lwm2m/core\internals.h ****  * applicable export control laws and regulations.
ARM GAS  C:\Users\dtjld\AppData\Local\Temp\ccLN8Itk.s 			page 2


  33:C:/Users/dtjld/Desktop/AIoT_software/LiteOS_Lab_overseas/LiteOS_Lab/iot_link/network/lwm2m/wakaama_lwm2m/core\internals.h ****  *---------------------------------------------------------------------------*/
  34:C:/Users/dtjld/Desktop/AIoT_software/LiteOS_Lab_overseas/LiteOS_Lab/iot_link/network/lwm2m/wakaama_lwm2m/core\internals.h **** 
  35:C:/Users/dtjld/Desktop/AIoT_software/LiteOS_Lab_overseas/LiteOS_Lab/iot_link/network/lwm2m/wakaama_lwm2m/core\internals.h **** /*******************************************************************************
  36:C:/Users/dtjld/Desktop/AIoT_software/LiteOS_Lab_overseas/LiteOS_Lab/iot_link/network/lwm2m/wakaama_lwm2m/core\internals.h ****  *
  37:C:/Users/dtjld/Desktop/AIoT_software/LiteOS_Lab_overseas/LiteOS_Lab/iot_link/network/lwm2m/wakaama_lwm2m/core\internals.h ****  * Copyright (c) 2013, 2014 Intel Corporation and others.
  38:C:/Users/dtjld/Desktop/AIoT_software/LiteOS_Lab_overseas/LiteOS_Lab/iot_link/network/lwm2m/wakaama_lwm2m/core\internals.h ****  * All rights reserved. This program and the accompanying materials
  39:C:/Users/dtjld/Desktop/AIoT_software/LiteOS_Lab_overseas/LiteOS_Lab/iot_link/network/lwm2m/wakaama_lwm2m/core\internals.h ****  * are made available under the terms of the Eclipse Public License v1.0
  40:C:/Users/dtjld/Desktop/AIoT_software/LiteOS_Lab_overseas/LiteOS_Lab/iot_link/network/lwm2m/wakaama_lwm2m/core\internals.h ****  * and Eclipse Distribution License v1.0 which accompany this distribution.
  41:C:/Users/dtjld/Desktop/AIoT_software/LiteOS_Lab_overseas/LiteOS_Lab/iot_link/network/lwm2m/wakaama_lwm2m/core\internals.h ****  *
  42:C:/Users/dtjld/Desktop/AIoT_software/LiteOS_Lab_overseas/LiteOS_Lab/iot_link/network/lwm2m/wakaama_lwm2m/core\internals.h ****  * The Eclipse Public License is available at
  43:C:/Users/dtjld/Desktop/AIoT_software/LiteOS_Lab_overseas/LiteOS_Lab/iot_link/network/lwm2m/wakaama_lwm2m/core\internals.h ****  *    http://www.eclipse.org/legal/epl-v10.html
  44:C:/Users/dtjld/Desktop/AIoT_software/LiteOS_Lab_overseas/LiteOS_Lab/iot_link/network/lwm2m/wakaama_lwm2m/core\internals.h ****  * The Eclipse Distribution License is available at
  45:C:/Users/dtjld/Desktop/AIoT_software/LiteOS_Lab_overseas/LiteOS_Lab/iot_link/network/lwm2m/wakaama_lwm2m/core\internals.h ****  *    http://www.eclipse.org/org/documents/edl-v10.php.
  46:C:/Users/dtjld/Desktop/AIoT_software/LiteOS_Lab_overseas/LiteOS_Lab/iot_link/network/lwm2m/wakaama_lwm2m/core\internals.h ****  *
  47:C:/Users/dtjld/Desktop/AIoT_software/LiteOS_Lab_overseas/LiteOS_Lab/iot_link/network/lwm2m/wakaama_lwm2m/core\internals.h ****  * Contributors:
  48:C:/Users/dtjld/Desktop/AIoT_software/LiteOS_Lab_overseas/LiteOS_Lab/iot_link/network/lwm2m/wakaama_lwm2m/core\internals.h ****  *    David Navarro, Intel Corporation - initial API and implementation
  49:C:/Users/dtjld/Desktop/AIoT_software/LiteOS_Lab_overseas/LiteOS_Lab/iot_link/network/lwm2m/wakaama_lwm2m/core\internals.h ****  *    Fabien Fleutot - Please refer to git log
  50:C:/Users/dtjld/Desktop/AIoT_software/LiteOS_Lab_overseas/LiteOS_Lab/iot_link/network/lwm2m/wakaama_lwm2m/core\internals.h ****  *    Toby Jaffey - Please refer to git log
  51:C:/Users/dtjld/Desktop/AIoT_software/LiteOS_Lab_overseas/LiteOS_Lab/iot_link/network/lwm2m/wakaama_lwm2m/core\internals.h ****  *    Bosch Software Innovations GmbH - Please refer to git log
  52:C:/Users/dtjld/Desktop/AIoT_software/LiteOS_Lab_overseas/LiteOS_Lab/iot_link/network/lwm2m/wakaama_lwm2m/core\internals.h ****  *    Pascal Rieux - Please refer to git log
  53:C:/Users/dtjld/Desktop/AIoT_software/LiteOS_Lab_overseas/LiteOS_Lab/iot_link/network/lwm2m/wakaama_lwm2m/core\internals.h ****  *    Scott Bertin - Please refer to git log
  54:C:/Users/dtjld/Desktop/AIoT_software/LiteOS_Lab_overseas/LiteOS_Lab/iot_link/network/lwm2m/wakaama_lwm2m/core\internals.h ****  *
  55:C:/Users/dtjld/Desktop/AIoT_software/LiteOS_Lab_overseas/LiteOS_Lab/iot_link/network/lwm2m/wakaama_lwm2m/core\internals.h ****  *******************************************************************************/
  56:C:/Users/dtjld/Desktop/AIoT_software/LiteOS_Lab_overseas/LiteOS_Lab/iot_link/network/lwm2m/wakaama_lwm2m/core\internals.h **** /*
  57:C:/Users/dtjld/Desktop/AIoT_software/LiteOS_Lab_overseas/LiteOS_Lab/iot_link/network/lwm2m/wakaama_lwm2m/core\internals.h ****  Copyright (c) 2013, 2014 Intel Corporation
  58:C:/Users/dtjld/Desktop/AIoT_software/LiteOS_Lab_overseas/LiteOS_Lab/iot_link/network/lwm2m/wakaama_lwm2m/core\internals.h **** 
  59:C:/Users/dtjld/Desktop/AIoT_software/LiteOS_Lab_overseas/LiteOS_Lab/iot_link/network/lwm2m/wakaama_lwm2m/core\internals.h ****  Redistribution and use in source and binary forms, with or without modification,
  60:C:/Users/dtjld/Desktop/AIoT_software/LiteOS_Lab_overseas/LiteOS_Lab/iot_link/network/lwm2m/wakaama_lwm2m/core\internals.h ****  are permitted provided that the following conditions are met:
  61:C:/Users/dtjld/Desktop/AIoT_software/LiteOS_Lab_overseas/LiteOS_Lab/iot_link/network/lwm2m/wakaama_lwm2m/core\internals.h **** 
  62:C:/Users/dtjld/Desktop/AIoT_software/LiteOS_Lab_overseas/LiteOS_Lab/iot_link/network/lwm2m/wakaama_lwm2m/core\internals.h ****      * Redistributions of source code must retain the above copyright notice,
  63:C:/Users/dtjld/Desktop/AIoT_software/LiteOS_Lab_overseas/LiteOS_Lab/iot_link/network/lwm2m/wakaama_lwm2m/core\internals.h ****        this list of conditions and the following disclaimer.
  64:C:/Users/dtjld/Desktop/AIoT_software/LiteOS_Lab_overseas/LiteOS_Lab/iot_link/network/lwm2m/wakaama_lwm2m/core\internals.h ****      * Redistributions in binary form must reproduce the above copyright notice,
  65:C:/Users/dtjld/Desktop/AIoT_software/LiteOS_Lab_overseas/LiteOS_Lab/iot_link/network/lwm2m/wakaama_lwm2m/core\internals.h ****        this list of conditions and the following disclaimer in the documentation
  66:C:/Users/dtjld/Desktop/AIoT_software/LiteOS_Lab_overseas/LiteOS_Lab/iot_link/network/lwm2m/wakaama_lwm2m/core\internals.h ****        and/or other materials provided with the distribution.
  67:C:/Users/dtjld/Desktop/AIoT_software/LiteOS_Lab_overseas/LiteOS_Lab/iot_link/network/lwm2m/wakaama_lwm2m/core\internals.h ****      * Neither the name of Intel Corporation nor the names of its contributors
  68:C:/Users/dtjld/Desktop/AIoT_software/LiteOS_Lab_overseas/LiteOS_Lab/iot_link/network/lwm2m/wakaama_lwm2m/core\internals.h ****        may be used to endorse or promote products derived from this software
  69:C:/Users/dtjld/Desktop/AIoT_software/LiteOS_Lab_overseas/LiteOS_Lab/iot_link/network/lwm2m/wakaama_lwm2m/core\internals.h ****        without specific prior written permission.
  70:C:/Users/dtjld/Desktop/AIoT_software/LiteOS_Lab_overseas/LiteOS_Lab/iot_link/network/lwm2m/wakaama_lwm2m/core\internals.h **** 
  71:C:/Users/dtjld/Desktop/AIoT_software/LiteOS_Lab_overseas/LiteOS_Lab/iot_link/network/lwm2m/wakaama_lwm2m/core\internals.h ****  THIS SOFTWARE IS PROVIDED BY THE COPYRIGHT HOLDERS AND CONTRIBUTORS "AS IS" AND
  72:C:/Users/dtjld/Desktop/AIoT_software/LiteOS_Lab_overseas/LiteOS_Lab/iot_link/network/lwm2m/wakaama_lwm2m/core\internals.h ****  ANY EXPRESS OR IMPLIED WARRANTIES, INCLUDING, BUT NOT LIMITED TO, THE IMPLIED
  73:C:/Users/dtjld/Desktop/AIoT_software/LiteOS_Lab_overseas/LiteOS_Lab/iot_link/network/lwm2m/wakaama_lwm2m/core\internals.h ****  WARRANTIES OF MERCHANTABILITY AND FITNESS FOR A PARTICULAR PURPOSE ARE DISCLAIMED.
  74:C:/Users/dtjld/Desktop/AIoT_software/LiteOS_Lab_overseas/LiteOS_Lab/iot_link/network/lwm2m/wakaama_lwm2m/core\internals.h ****  IN NO EVENT SHALL THE COPYRIGHT OWNER OR CONTRIBUTORS BE LIABLE FOR ANY DIRECT,
  75:C:/Users/dtjld/Desktop/AIoT_software/LiteOS_Lab_overseas/LiteOS_Lab/iot_link/network/lwm2m/wakaama_lwm2m/core\internals.h ****  INDIRECT, INCIDENTAL, SPECIAL, EXEMPLARY, OR CONSEQUENTIAL DAMAGES (INCLUDING,
  76:C:/Users/dtjld/Desktop/AIoT_software/LiteOS_Lab_overseas/LiteOS_Lab/iot_link/network/lwm2m/wakaama_lwm2m/core\internals.h ****  BUT NOT LIMITED TO, PROCUREMENT OF SUBSTITUTE GOODS OR SERVICES; LOSS OF USE,
  77:C:/Users/dtjld/Desktop/AIoT_software/LiteOS_Lab_overseas/LiteOS_Lab/iot_link/network/lwm2m/wakaama_lwm2m/core\internals.h ****  DATA, OR PROFITS; OR BUSINESS INTERRUPTION) HOWEVER CAUSED AND ON ANY THEORY OF
  78:C:/Users/dtjld/Desktop/AIoT_software/LiteOS_Lab_overseas/LiteOS_Lab/iot_link/network/lwm2m/wakaama_lwm2m/core\internals.h ****  LIABILITY, WHETHER IN CONTRACT, STRICT LIABILITY, OR TORT (INCLUDING NEGLIGENCE OR
  79:C:/Users/dtjld/Desktop/AIoT_software/LiteOS_Lab_overseas/LiteOS_Lab/iot_link/network/lwm2m/wakaama_lwm2m/core\internals.h ****  OTHERWISE) ARISING IN ANY WAY OUT OF THE USE OF THIS SOFTWARE, EVEN IF ADVISED OF
  80:C:/Users/dtjld/Desktop/AIoT_software/LiteOS_Lab_overseas/LiteOS_Lab/iot_link/network/lwm2m/wakaama_lwm2m/core\internals.h ****  THE POSSIBILITY OF SUCH DAMAGE.
  81:C:/Users/dtjld/Desktop/AIoT_software/LiteOS_Lab_overseas/LiteOS_Lab/iot_link/network/lwm2m/wakaama_lwm2m/core\internals.h **** 
  82:C:/Users/dtjld/Desktop/AIoT_software/LiteOS_Lab_overseas/LiteOS_Lab/iot_link/network/lwm2m/wakaama_lwm2m/core\internals.h ****  David Navarro <david.navarro@intel.com>
  83:C:/Users/dtjld/Desktop/AIoT_software/LiteOS_Lab_overseas/LiteOS_Lab/iot_link/network/lwm2m/wakaama_lwm2m/core\internals.h **** 
  84:C:/Users/dtjld/Desktop/AIoT_software/LiteOS_Lab_overseas/LiteOS_Lab/iot_link/network/lwm2m/wakaama_lwm2m/core\internals.h **** */
  85:C:/Users/dtjld/Desktop/AIoT_software/LiteOS_Lab_overseas/LiteOS_Lab/iot_link/network/lwm2m/wakaama_lwm2m/core\internals.h **** 
  86:C:/Users/dtjld/Desktop/AIoT_software/LiteOS_Lab_overseas/LiteOS_Lab/iot_link/network/lwm2m/wakaama_lwm2m/core\internals.h **** #ifndef _LWM2M_INTERNALS_H_
  87:C:/Users/dtjld/Desktop/AIoT_software/LiteOS_Lab_overseas/LiteOS_Lab/iot_link/network/lwm2m/wakaama_lwm2m/core\internals.h **** #define _LWM2M_INTERNALS_H_
  88:C:/Users/dtjld/Desktop/AIoT_software/LiteOS_Lab_overseas/LiteOS_Lab/iot_link/network/lwm2m/wakaama_lwm2m/core\internals.h **** 
  89:C:/Users/dtjld/Desktop/AIoT_software/LiteOS_Lab_overseas/LiteOS_Lab/iot_link/network/lwm2m/wakaama_lwm2m/core\internals.h **** #include "liblwm2m.h"
ARM GAS  C:\Users\dtjld\AppData\Local\Temp\ccLN8Itk.s 			page 3


  90:C:/Users/dtjld/Desktop/AIoT_software/LiteOS_Lab_overseas/LiteOS_Lab/iot_link/network/lwm2m/wakaama_lwm2m/core\internals.h **** 
  91:C:/Users/dtjld/Desktop/AIoT_software/LiteOS_Lab_overseas/LiteOS_Lab/iot_link/network/lwm2m/wakaama_lwm2m/core\internals.h **** #include <stdlib.h>
  92:C:/Users/dtjld/Desktop/AIoT_software/LiteOS_Lab_overseas/LiteOS_Lab/iot_link/network/lwm2m/wakaama_lwm2m/core\internals.h **** #include <string.h>
  93:C:/Users/dtjld/Desktop/AIoT_software/LiteOS_Lab_overseas/LiteOS_Lab/iot_link/network/lwm2m/wakaama_lwm2m/core\internals.h **** #include <stdio.h>
  94:C:/Users/dtjld/Desktop/AIoT_software/LiteOS_Lab_overseas/LiteOS_Lab/iot_link/network/lwm2m/wakaama_lwm2m/core\internals.h **** #include <ctype.h>
  95:C:/Users/dtjld/Desktop/AIoT_software/LiteOS_Lab_overseas/LiteOS_Lab/iot_link/network/lwm2m/wakaama_lwm2m/core\internals.h **** #include <stdint.h>
  96:C:/Users/dtjld/Desktop/AIoT_software/LiteOS_Lab_overseas/LiteOS_Lab/iot_link/network/lwm2m/wakaama_lwm2m/core\internals.h **** #include <stddef.h>
  97:C:/Users/dtjld/Desktop/AIoT_software/LiteOS_Lab_overseas/LiteOS_Lab/iot_link/network/lwm2m/wakaama_lwm2m/core\internals.h **** #include <stdbool.h>
  98:C:/Users/dtjld/Desktop/AIoT_software/LiteOS_Lab_overseas/LiteOS_Lab/iot_link/network/lwm2m/wakaama_lwm2m/core\internals.h **** 
  99:C:/Users/dtjld/Desktop/AIoT_software/LiteOS_Lab_overseas/LiteOS_Lab/iot_link/network/lwm2m/wakaama_lwm2m/core\internals.h **** #include "er-coap-13/er-coap-13.h"
 100:C:/Users/dtjld/Desktop/AIoT_software/LiteOS_Lab_overseas/LiteOS_Lab/iot_link/network/lwm2m/wakaama_lwm2m/core\internals.h **** #include "connection.h"
 101:C:/Users/dtjld/Desktop/AIoT_software/LiteOS_Lab_overseas/LiteOS_Lab/iot_link/network/lwm2m/wakaama_lwm2m/core\internals.h **** 
 102:C:/Users/dtjld/Desktop/AIoT_software/LiteOS_Lab_overseas/LiteOS_Lab/iot_link/network/lwm2m/wakaama_lwm2m/core\internals.h **** 
 103:C:/Users/dtjld/Desktop/AIoT_software/LiteOS_Lab_overseas/LiteOS_Lab/iot_link/network/lwm2m/wakaama_lwm2m/core\internals.h **** #ifdef LWM2M_WITH_LOGS
 104:C:/Users/dtjld/Desktop/AIoT_software/LiteOS_Lab_overseas/LiteOS_Lab/iot_link/network/lwm2m/wakaama_lwm2m/core\internals.h **** #include <inttypes.h>
 105:C:/Users/dtjld/Desktop/AIoT_software/LiteOS_Lab_overseas/LiteOS_Lab/iot_link/network/lwm2m/wakaama_lwm2m/core\internals.h **** #define LOG(STR) (void)lwm2m_printf("[%d][%s:%d] " STR "\r\n", (uint32_t)lwm2m_gettime(), __func__ 
 106:C:/Users/dtjld/Desktop/AIoT_software/LiteOS_Lab_overseas/LiteOS_Lab/iot_link/network/lwm2m/wakaama_lwm2m/core\internals.h **** #define LOG_ARG(FMT, ...) (void)lwm2m_printf("[%d][%s:%d] " FMT "\r\n", (uint32_t)lwm2m_gettime(), 
 107:C:/Users/dtjld/Desktop/AIoT_software/LiteOS_Lab_overseas/LiteOS_Lab/iot_link/network/lwm2m/wakaama_lwm2m/core\internals.h **** #define LOG_URI(URI)                                                                \
 108:C:/Users/dtjld/Desktop/AIoT_software/LiteOS_Lab_overseas/LiteOS_Lab/iot_link/network/lwm2m/wakaama_lwm2m/core\internals.h **** {                                                                                   \
 109:C:/Users/dtjld/Desktop/AIoT_software/LiteOS_Lab_overseas/LiteOS_Lab/iot_link/network/lwm2m/wakaama_lwm2m/core\internals.h ****     if ((URI) == NULL) (void)lwm2m_printf("[%s:%d] NULL\r\n", __func__ , __LINE__);     \
 110:C:/Users/dtjld/Desktop/AIoT_software/LiteOS_Lab_overseas/LiteOS_Lab/iot_link/network/lwm2m/wakaama_lwm2m/core\internals.h ****     else                                                                            \
 111:C:/Users/dtjld/Desktop/AIoT_software/LiteOS_Lab_overseas/LiteOS_Lab/iot_link/network/lwm2m/wakaama_lwm2m/core\internals.h ****     {                                                                               \
 112:C:/Users/dtjld/Desktop/AIoT_software/LiteOS_Lab_overseas/LiteOS_Lab/iot_link/network/lwm2m/wakaama_lwm2m/core\internals.h ****         (void)lwm2m_printf("[%s:%d] /%d", __func__ , __LINE__ , (URI)->objectId);       \
 113:C:/Users/dtjld/Desktop/AIoT_software/LiteOS_Lab_overseas/LiteOS_Lab/iot_link/network/lwm2m/wakaama_lwm2m/core\internals.h ****         if (LWM2M_URI_IS_SET_INSTANCE(URI)) (void)lwm2m_printf("/%d", (URI)->instanceId); \
 114:C:/Users/dtjld/Desktop/AIoT_software/LiteOS_Lab_overseas/LiteOS_Lab/iot_link/network/lwm2m/wakaama_lwm2m/core\internals.h ****         if (LWM2M_URI_IS_SET_RESOURCE(URI)) (void)lwm2m_printf("/%d", (URI)->resourceId); \
 115:C:/Users/dtjld/Desktop/AIoT_software/LiteOS_Lab_overseas/LiteOS_Lab/iot_link/network/lwm2m/wakaama_lwm2m/core\internals.h ****         (void)lwm2m_printf("\r\n");                                                       \
 116:C:/Users/dtjld/Desktop/AIoT_software/LiteOS_Lab_overseas/LiteOS_Lab/iot_link/network/lwm2m/wakaama_lwm2m/core\internals.h ****     }                                                                               \
 117:C:/Users/dtjld/Desktop/AIoT_software/LiteOS_Lab_overseas/LiteOS_Lab/iot_link/network/lwm2m/wakaama_lwm2m/core\internals.h **** }
 118:C:/Users/dtjld/Desktop/AIoT_software/LiteOS_Lab_overseas/LiteOS_Lab/iot_link/network/lwm2m/wakaama_lwm2m/core\internals.h **** #define UNUSEX(x)
 119:C:/Users/dtjld/Desktop/AIoT_software/LiteOS_Lab_overseas/LiteOS_Lab/iot_link/network/lwm2m/wakaama_lwm2m/core\internals.h **** #define STR_STATUS(S)                                           \
 120:C:/Users/dtjld/Desktop/AIoT_software/LiteOS_Lab_overseas/LiteOS_Lab/iot_link/network/lwm2m/wakaama_lwm2m/core\internals.h **** ((S) == STATE_DEREGISTERED ? "STATE_DEREGISTERED" :             \
 121:C:/Users/dtjld/Desktop/AIoT_software/LiteOS_Lab_overseas/LiteOS_Lab/iot_link/network/lwm2m/wakaama_lwm2m/core\internals.h **** ((S) == STATE_REG_PENDING ? "STATE_REG_PENDING" :               \
 122:C:/Users/dtjld/Desktop/AIoT_software/LiteOS_Lab_overseas/LiteOS_Lab/iot_link/network/lwm2m/wakaama_lwm2m/core\internals.h **** ((S) == STATE_REGISTERED ? "STATE_REGISTERED" :                 \
 123:C:/Users/dtjld/Desktop/AIoT_software/LiteOS_Lab_overseas/LiteOS_Lab/iot_link/network/lwm2m/wakaama_lwm2m/core\internals.h **** ((S) == STATE_REG_FAILED ? "STATE_REG_FAILED" :                 \
 124:C:/Users/dtjld/Desktop/AIoT_software/LiteOS_Lab_overseas/LiteOS_Lab/iot_link/network/lwm2m/wakaama_lwm2m/core\internals.h **** ((S) == STATE_REG_UPDATE_PENDING ? "STATE_REG_UPDATE_PENDING" : \
 125:C:/Users/dtjld/Desktop/AIoT_software/LiteOS_Lab_overseas/LiteOS_Lab/iot_link/network/lwm2m/wakaama_lwm2m/core\internals.h **** ((S) == STATE_REG_UPDATE_NEEDED ? "STATE_REG_UPDATE_NEEDED" :   \
 126:C:/Users/dtjld/Desktop/AIoT_software/LiteOS_Lab_overseas/LiteOS_Lab/iot_link/network/lwm2m/wakaama_lwm2m/core\internals.h **** ((S) == STATE_REG_FULL_UPDATE_NEEDED ? "STATE_REG_FULL_UPDATE_NEEDED" :   \
 127:C:/Users/dtjld/Desktop/AIoT_software/LiteOS_Lab_overseas/LiteOS_Lab/iot_link/network/lwm2m/wakaama_lwm2m/core\internals.h **** ((S) == STATE_DEREG_PENDING ? "STATE_DEREG_PENDING" :           \
 128:C:/Users/dtjld/Desktop/AIoT_software/LiteOS_Lab_overseas/LiteOS_Lab/iot_link/network/lwm2m/wakaama_lwm2m/core\internals.h **** ((S) == STATE_BS_HOLD_OFF ? "STATE_BS_HOLD_OFF" :               \
 129:C:/Users/dtjld/Desktop/AIoT_software/LiteOS_Lab_overseas/LiteOS_Lab/iot_link/network/lwm2m/wakaama_lwm2m/core\internals.h **** ((S) == STATE_BS_INITIATED ? "STATE_BS_INITIATED" :             \
 130:C:/Users/dtjld/Desktop/AIoT_software/LiteOS_Lab_overseas/LiteOS_Lab/iot_link/network/lwm2m/wakaama_lwm2m/core\internals.h **** ((S) == STATE_BS_PENDING ? "STATE_BS_PENDING" :                 \
 131:C:/Users/dtjld/Desktop/AIoT_software/LiteOS_Lab_overseas/LiteOS_Lab/iot_link/network/lwm2m/wakaama_lwm2m/core\internals.h **** ((S) == STATE_BS_FINISHED ? "STATE_BS_FINISHED" :               \
 132:C:/Users/dtjld/Desktop/AIoT_software/LiteOS_Lab_overseas/LiteOS_Lab/iot_link/network/lwm2m/wakaama_lwm2m/core\internals.h **** ((S) == STATE_BS_FINISHING ? "STATE_BS_FINISHING" :             \
 133:C:/Users/dtjld/Desktop/AIoT_software/LiteOS_Lab_overseas/LiteOS_Lab/iot_link/network/lwm2m/wakaama_lwm2m/core\internals.h **** ((S) == STATE_BS_FAILING ? "STATE_BS_FAILING" :                 \
 134:C:/Users/dtjld/Desktop/AIoT_software/LiteOS_Lab_overseas/LiteOS_Lab/iot_link/network/lwm2m/wakaama_lwm2m/core\internals.h **** ((S) == STATE_BS_FAILED ? "STATE_BS_FAILED" :                   \
 135:C:/Users/dtjld/Desktop/AIoT_software/LiteOS_Lab_overseas/LiteOS_Lab/iot_link/network/lwm2m/wakaama_lwm2m/core\internals.h **** "Unknown")))))))))))))))
 136:C:/Users/dtjld/Desktop/AIoT_software/LiteOS_Lab_overseas/LiteOS_Lab/iot_link/network/lwm2m/wakaama_lwm2m/core\internals.h **** #define STR_MEDIA_TYPE(M)                                \
 137:C:/Users/dtjld/Desktop/AIoT_software/LiteOS_Lab_overseas/LiteOS_Lab/iot_link/network/lwm2m/wakaama_lwm2m/core\internals.h **** ((M) == LWM2M_CONTENT_TEXT ? "LWM2M_CONTENT_TEXT" :      \
 138:C:/Users/dtjld/Desktop/AIoT_software/LiteOS_Lab_overseas/LiteOS_Lab/iot_link/network/lwm2m/wakaama_lwm2m/core\internals.h **** ((M) == LWM2M_CONTENT_LINK ? "LWM2M_CONTENT_LINK" :      \
 139:C:/Users/dtjld/Desktop/AIoT_software/LiteOS_Lab_overseas/LiteOS_Lab/iot_link/network/lwm2m/wakaama_lwm2m/core\internals.h **** ((M) == LWM2M_CONTENT_OPAQUE ? "LWM2M_CONTENT_OPAQUE" :  \
 140:C:/Users/dtjld/Desktop/AIoT_software/LiteOS_Lab_overseas/LiteOS_Lab/iot_link/network/lwm2m/wakaama_lwm2m/core\internals.h **** ((M) == LWM2M_CONTENT_TLV ? "LWM2M_CONTENT_TLV" :        \
 141:C:/Users/dtjld/Desktop/AIoT_software/LiteOS_Lab_overseas/LiteOS_Lab/iot_link/network/lwm2m/wakaama_lwm2m/core\internals.h **** ((M) == LWM2M_CONTENT_JSON ? "LWM2M_CONTENT_JSON" :      \
 142:C:/Users/dtjld/Desktop/AIoT_software/LiteOS_Lab_overseas/LiteOS_Lab/iot_link/network/lwm2m/wakaama_lwm2m/core\internals.h **** "Unknown")))))
 143:C:/Users/dtjld/Desktop/AIoT_software/LiteOS_Lab_overseas/LiteOS_Lab/iot_link/network/lwm2m/wakaama_lwm2m/core\internals.h **** #define STR_STATE(S)                                \
 144:C:/Users/dtjld/Desktop/AIoT_software/LiteOS_Lab_overseas/LiteOS_Lab/iot_link/network/lwm2m/wakaama_lwm2m/core\internals.h **** ((S) == STATE_INITIAL ? "STATE_INITIAL" :      \
 145:C:/Users/dtjld/Desktop/AIoT_software/LiteOS_Lab_overseas/LiteOS_Lab/iot_link/network/lwm2m/wakaama_lwm2m/core\internals.h **** ((S) == STATE_BOOTSTRAP_REQUIRED ? "STATE_BOOTSTRAP_REQUIRED" :      \
 146:C:/Users/dtjld/Desktop/AIoT_software/LiteOS_Lab_overseas/LiteOS_Lab/iot_link/network/lwm2m/wakaama_lwm2m/core\internals.h **** ((S) == STATE_BOOTSTRAPPING ? "STATE_BOOTSTRAPPING" :  \
ARM GAS  C:\Users\dtjld\AppData\Local\Temp\ccLN8Itk.s 			page 4


 147:C:/Users/dtjld/Desktop/AIoT_software/LiteOS_Lab_overseas/LiteOS_Lab/iot_link/network/lwm2m/wakaama_lwm2m/core\internals.h **** ((S) == STATE_REGISTER_REQUIRED ? "STATE_REGISTER_REQUIRED" :        \
 148:C:/Users/dtjld/Desktop/AIoT_software/LiteOS_Lab_overseas/LiteOS_Lab/iot_link/network/lwm2m/wakaama_lwm2m/core\internals.h **** ((S) == STATE_REGISTERING ? "STATE_REGISTERING" :      \
 149:C:/Users/dtjld/Desktop/AIoT_software/LiteOS_Lab_overseas/LiteOS_Lab/iot_link/network/lwm2m/wakaama_lwm2m/core\internals.h **** ((S) == STATE_READY ? "STATE_READY" :      \
 150:C:/Users/dtjld/Desktop/AIoT_software/LiteOS_Lab_overseas/LiteOS_Lab/iot_link/network/lwm2m/wakaama_lwm2m/core\internals.h **** "Unknown"))))))
 151:C:/Users/dtjld/Desktop/AIoT_software/LiteOS_Lab_overseas/LiteOS_Lab/iot_link/network/lwm2m/wakaama_lwm2m/core\internals.h **** #else
 152:C:/Users/dtjld/Desktop/AIoT_software/LiteOS_Lab_overseas/LiteOS_Lab/iot_link/network/lwm2m/wakaama_lwm2m/core\internals.h **** #define UNUSEX(x) (x)=(x)
 153:C:/Users/dtjld/Desktop/AIoT_software/LiteOS_Lab_overseas/LiteOS_Lab/iot_link/network/lwm2m/wakaama_lwm2m/core\internals.h **** #define LOG_ARG(FMT, ...)
 154:C:/Users/dtjld/Desktop/AIoT_software/LiteOS_Lab_overseas/LiteOS_Lab/iot_link/network/lwm2m/wakaama_lwm2m/core\internals.h **** #define LOG(STR)
 155:C:/Users/dtjld/Desktop/AIoT_software/LiteOS_Lab_overseas/LiteOS_Lab/iot_link/network/lwm2m/wakaama_lwm2m/core\internals.h **** #define LOG_URI(URI)
 156:C:/Users/dtjld/Desktop/AIoT_software/LiteOS_Lab_overseas/LiteOS_Lab/iot_link/network/lwm2m/wakaama_lwm2m/core\internals.h **** #endif
 157:C:/Users/dtjld/Desktop/AIoT_software/LiteOS_Lab_overseas/LiteOS_Lab/iot_link/network/lwm2m/wakaama_lwm2m/core\internals.h **** 
 158:C:/Users/dtjld/Desktop/AIoT_software/LiteOS_Lab_overseas/LiteOS_Lab/iot_link/network/lwm2m/wakaama_lwm2m/core\internals.h **** #define LWM2M_DEFAULT_LIFETIME  86400
 159:C:/Users/dtjld/Desktop/AIoT_software/LiteOS_Lab_overseas/LiteOS_Lab/iot_link/network/lwm2m/wakaama_lwm2m/core\internals.h **** 
 160:C:/Users/dtjld/Desktop/AIoT_software/LiteOS_Lab_overseas/LiteOS_Lab/iot_link/network/lwm2m/wakaama_lwm2m/core\internals.h **** #ifdef LWM2M_SUPPORT_JSON
 161:C:/Users/dtjld/Desktop/AIoT_software/LiteOS_Lab_overseas/LiteOS_Lab/iot_link/network/lwm2m/wakaama_lwm2m/core\internals.h **** #define REG_LWM2M_RESOURCE_TYPE     ">;rt=\"oma.lwm2m\";ct=11543,"
 162:C:/Users/dtjld/Desktop/AIoT_software/LiteOS_Lab_overseas/LiteOS_Lab/iot_link/network/lwm2m/wakaama_lwm2m/core\internals.h **** #define REG_LWM2M_RESOURCE_TYPE_LEN 25
 163:C:/Users/dtjld/Desktop/AIoT_software/LiteOS_Lab_overseas/LiteOS_Lab/iot_link/network/lwm2m/wakaama_lwm2m/core\internals.h **** #else
 164:C:/Users/dtjld/Desktop/AIoT_software/LiteOS_Lab_overseas/LiteOS_Lab/iot_link/network/lwm2m/wakaama_lwm2m/core\internals.h **** #define REG_LWM2M_RESOURCE_TYPE     ">;rt=\"oma.lwm2m\","
 165:C:/Users/dtjld/Desktop/AIoT_software/LiteOS_Lab_overseas/LiteOS_Lab/iot_link/network/lwm2m/wakaama_lwm2m/core\internals.h **** #define REG_LWM2M_RESOURCE_TYPE_LEN 17
 166:C:/Users/dtjld/Desktop/AIoT_software/LiteOS_Lab_overseas/LiteOS_Lab/iot_link/network/lwm2m/wakaama_lwm2m/core\internals.h **** #endif
 167:C:/Users/dtjld/Desktop/AIoT_software/LiteOS_Lab_overseas/LiteOS_Lab/iot_link/network/lwm2m/wakaama_lwm2m/core\internals.h **** #define REG_START           "<"
 168:C:/Users/dtjld/Desktop/AIoT_software/LiteOS_Lab_overseas/LiteOS_Lab/iot_link/network/lwm2m/wakaama_lwm2m/core\internals.h **** #define REG_DEFAULT_PATH    "/"
 169:C:/Users/dtjld/Desktop/AIoT_software/LiteOS_Lab_overseas/LiteOS_Lab/iot_link/network/lwm2m/wakaama_lwm2m/core\internals.h **** 
 170:C:/Users/dtjld/Desktop/AIoT_software/LiteOS_Lab_overseas/LiteOS_Lab/iot_link/network/lwm2m/wakaama_lwm2m/core\internals.h **** #define REG_OBJECT_MIN_LEN  5   // "</n>,"
 171:C:/Users/dtjld/Desktop/AIoT_software/LiteOS_Lab_overseas/LiteOS_Lab/iot_link/network/lwm2m/wakaama_lwm2m/core\internals.h **** #define REG_PATH_END        ">,"
 172:C:/Users/dtjld/Desktop/AIoT_software/LiteOS_Lab_overseas/LiteOS_Lab/iot_link/network/lwm2m/wakaama_lwm2m/core\internals.h **** #define REG_PATH_SEPARATOR  "/"
 173:C:/Users/dtjld/Desktop/AIoT_software/LiteOS_Lab_overseas/LiteOS_Lab/iot_link/network/lwm2m/wakaama_lwm2m/core\internals.h **** 
 174:C:/Users/dtjld/Desktop/AIoT_software/LiteOS_Lab_overseas/LiteOS_Lab/iot_link/network/lwm2m/wakaama_lwm2m/core\internals.h **** #define REG_OBJECT_PATH             "<%s/%hu>,"
 175:C:/Users/dtjld/Desktop/AIoT_software/LiteOS_Lab_overseas/LiteOS_Lab/iot_link/network/lwm2m/wakaama_lwm2m/core\internals.h **** #define REG_OBJECT_INSTANCE_PATH    "<%s/%hu/%hu>,"
 176:C:/Users/dtjld/Desktop/AIoT_software/LiteOS_Lab_overseas/LiteOS_Lab/iot_link/network/lwm2m/wakaama_lwm2m/core\internals.h **** 
 177:C:/Users/dtjld/Desktop/AIoT_software/LiteOS_Lab_overseas/LiteOS_Lab/iot_link/network/lwm2m/wakaama_lwm2m/core\internals.h **** #define URI_REGISTRATION_SEGMENT        "rd"
 178:C:/Users/dtjld/Desktop/AIoT_software/LiteOS_Lab_overseas/LiteOS_Lab/iot_link/network/lwm2m/wakaama_lwm2m/core\internals.h **** #define URI_REGISTRATION_SEGMENT_LEN    2
 179:C:/Users/dtjld/Desktop/AIoT_software/LiteOS_Lab_overseas/LiteOS_Lab/iot_link/network/lwm2m/wakaama_lwm2m/core\internals.h **** #define URI_BOOTSTRAP_SEGMENT           "bs"
 180:C:/Users/dtjld/Desktop/AIoT_software/LiteOS_Lab_overseas/LiteOS_Lab/iot_link/network/lwm2m/wakaama_lwm2m/core\internals.h **** #define URI_BOOTSTRAP_SEGMENT_LEN       2
 181:C:/Users/dtjld/Desktop/AIoT_software/LiteOS_Lab_overseas/LiteOS_Lab/iot_link/network/lwm2m/wakaama_lwm2m/core\internals.h **** 
 182:C:/Users/dtjld/Desktop/AIoT_software/LiteOS_Lab_overseas/LiteOS_Lab/iot_link/network/lwm2m/wakaama_lwm2m/core\internals.h **** #define QUERY_STARTER       "?"
 183:C:/Users/dtjld/Desktop/AIoT_software/LiteOS_Lab_overseas/LiteOS_Lab/iot_link/network/lwm2m/wakaama_lwm2m/core\internals.h **** #define QUERY_NAME          "ep="
 184:C:/Users/dtjld/Desktop/AIoT_software/LiteOS_Lab_overseas/LiteOS_Lab/iot_link/network/lwm2m/wakaama_lwm2m/core\internals.h **** #define QUERY_NAME_LEN      3       // strlen("ep=")
 185:C:/Users/dtjld/Desktop/AIoT_software/LiteOS_Lab_overseas/LiteOS_Lab/iot_link/network/lwm2m/wakaama_lwm2m/core\internals.h **** #define QUERY_SMS           "sms="
 186:C:/Users/dtjld/Desktop/AIoT_software/LiteOS_Lab_overseas/LiteOS_Lab/iot_link/network/lwm2m/wakaama_lwm2m/core\internals.h **** #define QUERY_SMS_LEN       4
 187:C:/Users/dtjld/Desktop/AIoT_software/LiteOS_Lab_overseas/LiteOS_Lab/iot_link/network/lwm2m/wakaama_lwm2m/core\internals.h **** #define QUERY_LIFETIME      "lt="
 188:C:/Users/dtjld/Desktop/AIoT_software/LiteOS_Lab_overseas/LiteOS_Lab/iot_link/network/lwm2m/wakaama_lwm2m/core\internals.h **** #define QUERY_LIFETIME_LEN  3
 189:C:/Users/dtjld/Desktop/AIoT_software/LiteOS_Lab_overseas/LiteOS_Lab/iot_link/network/lwm2m/wakaama_lwm2m/core\internals.h **** #define QUERY_VERSION       "lwm2m="
 190:C:/Users/dtjld/Desktop/AIoT_software/LiteOS_Lab_overseas/LiteOS_Lab/iot_link/network/lwm2m/wakaama_lwm2m/core\internals.h **** #define QUERY_VERSION_LEN   6
 191:C:/Users/dtjld/Desktop/AIoT_software/LiteOS_Lab_overseas/LiteOS_Lab/iot_link/network/lwm2m/wakaama_lwm2m/core\internals.h **** #define QUERY_BINDING       "b="
 192:C:/Users/dtjld/Desktop/AIoT_software/LiteOS_Lab_overseas/LiteOS_Lab/iot_link/network/lwm2m/wakaama_lwm2m/core\internals.h **** #define QUERY_BINDING_LEN   2
 193:C:/Users/dtjld/Desktop/AIoT_software/LiteOS_Lab_overseas/LiteOS_Lab/iot_link/network/lwm2m/wakaama_lwm2m/core\internals.h **** #define QUERY_DELIMITER     "&"
 194:C:/Users/dtjld/Desktop/AIoT_software/LiteOS_Lab_overseas/LiteOS_Lab/iot_link/network/lwm2m/wakaama_lwm2m/core\internals.h **** 
 195:C:/Users/dtjld/Desktop/AIoT_software/LiteOS_Lab_overseas/LiteOS_Lab/iot_link/network/lwm2m/wakaama_lwm2m/core\internals.h **** #define LWM2M_VERSION      "1.0"
 196:C:/Users/dtjld/Desktop/AIoT_software/LiteOS_Lab_overseas/LiteOS_Lab/iot_link/network/lwm2m/wakaama_lwm2m/core\internals.h **** #define LWM2M_VERSION_LEN  3
 197:C:/Users/dtjld/Desktop/AIoT_software/LiteOS_Lab_overseas/LiteOS_Lab/iot_link/network/lwm2m/wakaama_lwm2m/core\internals.h **** 
 198:C:/Users/dtjld/Desktop/AIoT_software/LiteOS_Lab_overseas/LiteOS_Lab/iot_link/network/lwm2m/wakaama_lwm2m/core\internals.h **** #define QUERY_VERSION_FULL      QUERY_VERSION LWM2M_VERSION
 199:C:/Users/dtjld/Desktop/AIoT_software/LiteOS_Lab_overseas/LiteOS_Lab/iot_link/network/lwm2m/wakaama_lwm2m/core\internals.h **** #define QUERY_VERSION_FULL_LEN  QUERY_VERSION_LEN+LWM2M_VERSION_LEN
 200:C:/Users/dtjld/Desktop/AIoT_software/LiteOS_Lab_overseas/LiteOS_Lab/iot_link/network/lwm2m/wakaama_lwm2m/core\internals.h **** 
 201:C:/Users/dtjld/Desktop/AIoT_software/LiteOS_Lab_overseas/LiteOS_Lab/iot_link/network/lwm2m/wakaama_lwm2m/core\internals.h **** #define REG_URI_START       '<'
 202:C:/Users/dtjld/Desktop/AIoT_software/LiteOS_Lab_overseas/LiteOS_Lab/iot_link/network/lwm2m/wakaama_lwm2m/core\internals.h **** #define REG_URI_END         '>'
 203:C:/Users/dtjld/Desktop/AIoT_software/LiteOS_Lab_overseas/LiteOS_Lab/iot_link/network/lwm2m/wakaama_lwm2m/core\internals.h **** #define REG_DELIMITER       ','
ARM GAS  C:\Users\dtjld\AppData\Local\Temp\ccLN8Itk.s 			page 5


 204:C:/Users/dtjld/Desktop/AIoT_software/LiteOS_Lab_overseas/LiteOS_Lab/iot_link/network/lwm2m/wakaama_lwm2m/core\internals.h **** #define REG_ATTR_SEPARATOR  ';'
 205:C:/Users/dtjld/Desktop/AIoT_software/LiteOS_Lab_overseas/LiteOS_Lab/iot_link/network/lwm2m/wakaama_lwm2m/core\internals.h **** #define REG_ATTR_EQUALS     '='
 206:C:/Users/dtjld/Desktop/AIoT_software/LiteOS_Lab_overseas/LiteOS_Lab/iot_link/network/lwm2m/wakaama_lwm2m/core\internals.h **** #define REG_ATTR_TYPE_KEY           "rt"
 207:C:/Users/dtjld/Desktop/AIoT_software/LiteOS_Lab_overseas/LiteOS_Lab/iot_link/network/lwm2m/wakaama_lwm2m/core\internals.h **** #define REG_ATTR_TYPE_KEY_LEN       2
 208:C:/Users/dtjld/Desktop/AIoT_software/LiteOS_Lab_overseas/LiteOS_Lab/iot_link/network/lwm2m/wakaama_lwm2m/core\internals.h **** #define REG_ATTR_TYPE_VALUE         "\"oma.lwm2m\""
 209:C:/Users/dtjld/Desktop/AIoT_software/LiteOS_Lab_overseas/LiteOS_Lab/iot_link/network/lwm2m/wakaama_lwm2m/core\internals.h **** #define REG_ATTR_TYPE_VALUE_LEN     11
 210:C:/Users/dtjld/Desktop/AIoT_software/LiteOS_Lab_overseas/LiteOS_Lab/iot_link/network/lwm2m/wakaama_lwm2m/core\internals.h **** #define REG_ATTR_CONTENT_KEY        "ct"
 211:C:/Users/dtjld/Desktop/AIoT_software/LiteOS_Lab_overseas/LiteOS_Lab/iot_link/network/lwm2m/wakaama_lwm2m/core\internals.h **** #define REG_ATTR_CONTENT_KEY_LEN    2
 212:C:/Users/dtjld/Desktop/AIoT_software/LiteOS_Lab_overseas/LiteOS_Lab/iot_link/network/lwm2m/wakaama_lwm2m/core\internals.h **** #define REG_ATTR_CONTENT_JSON       "11543"   // Temporary value
 213:C:/Users/dtjld/Desktop/AIoT_software/LiteOS_Lab_overseas/LiteOS_Lab/iot_link/network/lwm2m/wakaama_lwm2m/core\internals.h **** #define REG_ATTR_CONTENT_JSON_LEN   5
 214:C:/Users/dtjld/Desktop/AIoT_software/LiteOS_Lab_overseas/LiteOS_Lab/iot_link/network/lwm2m/wakaama_lwm2m/core\internals.h **** 
 215:C:/Users/dtjld/Desktop/AIoT_software/LiteOS_Lab_overseas/LiteOS_Lab/iot_link/network/lwm2m/wakaama_lwm2m/core\internals.h **** #define ATTR_SERVER_ID_STR       "ep="
 216:C:/Users/dtjld/Desktop/AIoT_software/LiteOS_Lab_overseas/LiteOS_Lab/iot_link/network/lwm2m/wakaama_lwm2m/core\internals.h **** #define ATTR_SERVER_ID_LEN       3
 217:C:/Users/dtjld/Desktop/AIoT_software/LiteOS_Lab_overseas/LiteOS_Lab/iot_link/network/lwm2m/wakaama_lwm2m/core\internals.h **** #define ATTR_MIN_PERIOD_STR      "pmin="
 218:C:/Users/dtjld/Desktop/AIoT_software/LiteOS_Lab_overseas/LiteOS_Lab/iot_link/network/lwm2m/wakaama_lwm2m/core\internals.h **** #define ATTR_MIN_PERIOD_LEN      5
 219:C:/Users/dtjld/Desktop/AIoT_software/LiteOS_Lab_overseas/LiteOS_Lab/iot_link/network/lwm2m/wakaama_lwm2m/core\internals.h **** #define ATTR_MAX_PERIOD_STR      "pmax="
 220:C:/Users/dtjld/Desktop/AIoT_software/LiteOS_Lab_overseas/LiteOS_Lab/iot_link/network/lwm2m/wakaama_lwm2m/core\internals.h **** #define ATTR_MAX_PERIOD_LEN      5
 221:C:/Users/dtjld/Desktop/AIoT_software/LiteOS_Lab_overseas/LiteOS_Lab/iot_link/network/lwm2m/wakaama_lwm2m/core\internals.h **** #define ATTR_GREATER_THAN_STR    "gt="
 222:C:/Users/dtjld/Desktop/AIoT_software/LiteOS_Lab_overseas/LiteOS_Lab/iot_link/network/lwm2m/wakaama_lwm2m/core\internals.h **** #define ATTR_GREATER_THAN_LEN    3
 223:C:/Users/dtjld/Desktop/AIoT_software/LiteOS_Lab_overseas/LiteOS_Lab/iot_link/network/lwm2m/wakaama_lwm2m/core\internals.h **** #define ATTR_LESS_THAN_STR       "lt="
 224:C:/Users/dtjld/Desktop/AIoT_software/LiteOS_Lab_overseas/LiteOS_Lab/iot_link/network/lwm2m/wakaama_lwm2m/core\internals.h **** #define ATTR_LESS_THAN_LEN       3
 225:C:/Users/dtjld/Desktop/AIoT_software/LiteOS_Lab_overseas/LiteOS_Lab/iot_link/network/lwm2m/wakaama_lwm2m/core\internals.h **** #define ATTR_STEP_STR            "st="
 226:C:/Users/dtjld/Desktop/AIoT_software/LiteOS_Lab_overseas/LiteOS_Lab/iot_link/network/lwm2m/wakaama_lwm2m/core\internals.h **** #define ATTR_STEP_LEN            3
 227:C:/Users/dtjld/Desktop/AIoT_software/LiteOS_Lab_overseas/LiteOS_Lab/iot_link/network/lwm2m/wakaama_lwm2m/core\internals.h **** #define ATTR_DIMENSION_STR       "dim="
 228:C:/Users/dtjld/Desktop/AIoT_software/LiteOS_Lab_overseas/LiteOS_Lab/iot_link/network/lwm2m/wakaama_lwm2m/core\internals.h **** #define ATTR_DIMENSION_LEN       4
 229:C:/Users/dtjld/Desktop/AIoT_software/LiteOS_Lab_overseas/LiteOS_Lab/iot_link/network/lwm2m/wakaama_lwm2m/core\internals.h **** 
 230:C:/Users/dtjld/Desktop/AIoT_software/LiteOS_Lab_overseas/LiteOS_Lab/iot_link/network/lwm2m/wakaama_lwm2m/core\internals.h **** #define URI_MAX_STRING_LEN    18      // /65535/65535/65535
 231:C:/Users/dtjld/Desktop/AIoT_software/LiteOS_Lab_overseas/LiteOS_Lab/iot_link/network/lwm2m/wakaama_lwm2m/core\internals.h **** #define _PRV_64BIT_BUFFER_SIZE 8
 232:C:/Users/dtjld/Desktop/AIoT_software/LiteOS_Lab_overseas/LiteOS_Lab/iot_link/network/lwm2m/wakaama_lwm2m/core\internals.h **** 
 233:C:/Users/dtjld/Desktop/AIoT_software/LiteOS_Lab_overseas/LiteOS_Lab/iot_link/network/lwm2m/wakaama_lwm2m/core\internals.h **** #define LINK_ITEM_START             "<"
 234:C:/Users/dtjld/Desktop/AIoT_software/LiteOS_Lab_overseas/LiteOS_Lab/iot_link/network/lwm2m/wakaama_lwm2m/core\internals.h **** #define LINK_ITEM_START_SIZE        1
 235:C:/Users/dtjld/Desktop/AIoT_software/LiteOS_Lab_overseas/LiteOS_Lab/iot_link/network/lwm2m/wakaama_lwm2m/core\internals.h **** #define LINK_ITEM_END               ">,"
 236:C:/Users/dtjld/Desktop/AIoT_software/LiteOS_Lab_overseas/LiteOS_Lab/iot_link/network/lwm2m/wakaama_lwm2m/core\internals.h **** #define LINK_ITEM_END_SIZE          2
 237:C:/Users/dtjld/Desktop/AIoT_software/LiteOS_Lab_overseas/LiteOS_Lab/iot_link/network/lwm2m/wakaama_lwm2m/core\internals.h **** #define LINK_ITEM_DIM_START         ">;dim="
 238:C:/Users/dtjld/Desktop/AIoT_software/LiteOS_Lab_overseas/LiteOS_Lab/iot_link/network/lwm2m/wakaama_lwm2m/core\internals.h **** #define LINK_ITEM_DIM_START_SIZE    6
 239:C:/Users/dtjld/Desktop/AIoT_software/LiteOS_Lab_overseas/LiteOS_Lab/iot_link/network/lwm2m/wakaama_lwm2m/core\internals.h **** #define LINK_ITEM_ATTR_END          ","
 240:C:/Users/dtjld/Desktop/AIoT_software/LiteOS_Lab_overseas/LiteOS_Lab/iot_link/network/lwm2m/wakaama_lwm2m/core\internals.h **** #define LINK_ITEM_ATTR_END_SIZE     1
 241:C:/Users/dtjld/Desktop/AIoT_software/LiteOS_Lab_overseas/LiteOS_Lab/iot_link/network/lwm2m/wakaama_lwm2m/core\internals.h **** #define LINK_URI_SEPARATOR          "/"
 242:C:/Users/dtjld/Desktop/AIoT_software/LiteOS_Lab_overseas/LiteOS_Lab/iot_link/network/lwm2m/wakaama_lwm2m/core\internals.h **** #define LINK_URI_SEPARATOR_SIZE     1
 243:C:/Users/dtjld/Desktop/AIoT_software/LiteOS_Lab_overseas/LiteOS_Lab/iot_link/network/lwm2m/wakaama_lwm2m/core\internals.h **** #define LINK_ATTR_SEPARATOR         ";"
 244:C:/Users/dtjld/Desktop/AIoT_software/LiteOS_Lab_overseas/LiteOS_Lab/iot_link/network/lwm2m/wakaama_lwm2m/core\internals.h **** #define LINK_ATTR_SEPARATOR_SIZE    1
 245:C:/Users/dtjld/Desktop/AIoT_software/LiteOS_Lab_overseas/LiteOS_Lab/iot_link/network/lwm2m/wakaama_lwm2m/core\internals.h **** 
 246:C:/Users/dtjld/Desktop/AIoT_software/LiteOS_Lab_overseas/LiteOS_Lab/iot_link/network/lwm2m/wakaama_lwm2m/core\internals.h **** #define ATTR_FLAG_NUMERIC (uint8_t)(LWM2M_ATTR_FLAG_LESS_THAN | LWM2M_ATTR_FLAG_GREATER_THAN | LWM2
 247:C:/Users/dtjld/Desktop/AIoT_software/LiteOS_Lab_overseas/LiteOS_Lab/iot_link/network/lwm2m/wakaama_lwm2m/core\internals.h **** 
 248:C:/Users/dtjld/Desktop/AIoT_software/LiteOS_Lab_overseas/LiteOS_Lab/iot_link/network/lwm2m/wakaama_lwm2m/core\internals.h **** #define LWM2M_URI_FLAG_DM           (uint8_t)0x00
 249:C:/Users/dtjld/Desktop/AIoT_software/LiteOS_Lab_overseas/LiteOS_Lab/iot_link/network/lwm2m/wakaama_lwm2m/core\internals.h **** #define LWM2M_URI_FLAG_DELETE_ALL   (uint8_t)0x10
 250:C:/Users/dtjld/Desktop/AIoT_software/LiteOS_Lab_overseas/LiteOS_Lab/iot_link/network/lwm2m/wakaama_lwm2m/core\internals.h **** #define LWM2M_URI_FLAG_REGISTRATION (uint8_t)0x20
 251:C:/Users/dtjld/Desktop/AIoT_software/LiteOS_Lab_overseas/LiteOS_Lab/iot_link/network/lwm2m/wakaama_lwm2m/core\internals.h **** #define LWM2M_URI_FLAG_BOOTSTRAP    (uint8_t)0x40
 252:C:/Users/dtjld/Desktop/AIoT_software/LiteOS_Lab_overseas/LiteOS_Lab/iot_link/network/lwm2m/wakaama_lwm2m/core\internals.h **** 
 253:C:/Users/dtjld/Desktop/AIoT_software/LiteOS_Lab_overseas/LiteOS_Lab/iot_link/network/lwm2m/wakaama_lwm2m/core\internals.h **** #define LWM2M_URI_MASK_TYPE (uint8_t)0x70
 254:C:/Users/dtjld/Desktop/AIoT_software/LiteOS_Lab_overseas/LiteOS_Lab/iot_link/network/lwm2m/wakaama_lwm2m/core\internals.h **** #define LWM2M_URI_MASK_ID   (uint8_t)0x07
 255:C:/Users/dtjld/Desktop/AIoT_software/LiteOS_Lab_overseas/LiteOS_Lab/iot_link/network/lwm2m/wakaama_lwm2m/core\internals.h **** 
 256:C:/Users/dtjld/Desktop/AIoT_software/LiteOS_Lab_overseas/LiteOS_Lab/iot_link/network/lwm2m/wakaama_lwm2m/core\internals.h **** typedef struct
 257:C:/Users/dtjld/Desktop/AIoT_software/LiteOS_Lab_overseas/LiteOS_Lab/iot_link/network/lwm2m/wakaama_lwm2m/core\internals.h **** {
 258:C:/Users/dtjld/Desktop/AIoT_software/LiteOS_Lab_overseas/LiteOS_Lab/iot_link/network/lwm2m/wakaama_lwm2m/core\internals.h ****     uint16_t clientID;
 259:C:/Users/dtjld/Desktop/AIoT_software/LiteOS_Lab_overseas/LiteOS_Lab/iot_link/network/lwm2m/wakaama_lwm2m/core\internals.h ****     lwm2m_uri_t uri;
 260:C:/Users/dtjld/Desktop/AIoT_software/LiteOS_Lab_overseas/LiteOS_Lab/iot_link/network/lwm2m/wakaama_lwm2m/core\internals.h ****     lwm2m_result_callback_t callback;
ARM GAS  C:\Users\dtjld\AppData\Local\Temp\ccLN8Itk.s 			page 6


 261:C:/Users/dtjld/Desktop/AIoT_software/LiteOS_Lab_overseas/LiteOS_Lab/iot_link/network/lwm2m/wakaama_lwm2m/core\internals.h ****     void * userData;
 262:C:/Users/dtjld/Desktop/AIoT_software/LiteOS_Lab_overseas/LiteOS_Lab/iot_link/network/lwm2m/wakaama_lwm2m/core\internals.h **** } dm_data_t;
 263:C:/Users/dtjld/Desktop/AIoT_software/LiteOS_Lab_overseas/LiteOS_Lab/iot_link/network/lwm2m/wakaama_lwm2m/core\internals.h **** 
 264:C:/Users/dtjld/Desktop/AIoT_software/LiteOS_Lab_overseas/LiteOS_Lab/iot_link/network/lwm2m/wakaama_lwm2m/core\internals.h **** typedef enum
 265:C:/Users/dtjld/Desktop/AIoT_software/LiteOS_Lab_overseas/LiteOS_Lab/iot_link/network/lwm2m/wakaama_lwm2m/core\internals.h **** {
 266:C:/Users/dtjld/Desktop/AIoT_software/LiteOS_Lab_overseas/LiteOS_Lab/iot_link/network/lwm2m/wakaama_lwm2m/core\internals.h ****     URI_DEPTH_OBJECT,
 267:C:/Users/dtjld/Desktop/AIoT_software/LiteOS_Lab_overseas/LiteOS_Lab/iot_link/network/lwm2m/wakaama_lwm2m/core\internals.h ****     URI_DEPTH_OBJECT_INSTANCE,
 268:C:/Users/dtjld/Desktop/AIoT_software/LiteOS_Lab_overseas/LiteOS_Lab/iot_link/network/lwm2m/wakaama_lwm2m/core\internals.h ****     URI_DEPTH_RESOURCE,
 269:C:/Users/dtjld/Desktop/AIoT_software/LiteOS_Lab_overseas/LiteOS_Lab/iot_link/network/lwm2m/wakaama_lwm2m/core\internals.h ****     URI_DEPTH_RESOURCE_INSTANCE
 270:C:/Users/dtjld/Desktop/AIoT_software/LiteOS_Lab_overseas/LiteOS_Lab/iot_link/network/lwm2m/wakaama_lwm2m/core\internals.h **** } uri_depth_t;
 271:C:/Users/dtjld/Desktop/AIoT_software/LiteOS_Lab_overseas/LiteOS_Lab/iot_link/network/lwm2m/wakaama_lwm2m/core\internals.h **** 
 272:C:/Users/dtjld/Desktop/AIoT_software/LiteOS_Lab_overseas/LiteOS_Lab/iot_link/network/lwm2m/wakaama_lwm2m/core\internals.h **** #ifdef LWM2M_BOOTSTRAP_SERVER_MODE
 273:C:/Users/dtjld/Desktop/AIoT_software/LiteOS_Lab_overseas/LiteOS_Lab/iot_link/network/lwm2m/wakaama_lwm2m/core\internals.h **** typedef struct
 274:C:/Users/dtjld/Desktop/AIoT_software/LiteOS_Lab_overseas/LiteOS_Lab/iot_link/network/lwm2m/wakaama_lwm2m/core\internals.h **** {
 275:C:/Users/dtjld/Desktop/AIoT_software/LiteOS_Lab_overseas/LiteOS_Lab/iot_link/network/lwm2m/wakaama_lwm2m/core\internals.h ****     bool        isUri;
 276:C:/Users/dtjld/Desktop/AIoT_software/LiteOS_Lab_overseas/LiteOS_Lab/iot_link/network/lwm2m/wakaama_lwm2m/core\internals.h ****     lwm2m_uri_t uri;
 277:C:/Users/dtjld/Desktop/AIoT_software/LiteOS_Lab_overseas/LiteOS_Lab/iot_link/network/lwm2m/wakaama_lwm2m/core\internals.h ****     lwm2m_bootstrap_callback_t callback;
 278:C:/Users/dtjld/Desktop/AIoT_software/LiteOS_Lab_overseas/LiteOS_Lab/iot_link/network/lwm2m/wakaama_lwm2m/core\internals.h ****     void *      userData;
 279:C:/Users/dtjld/Desktop/AIoT_software/LiteOS_Lab_overseas/LiteOS_Lab/iot_link/network/lwm2m/wakaama_lwm2m/core\internals.h **** } bs_data_t;
 280:C:/Users/dtjld/Desktop/AIoT_software/LiteOS_Lab_overseas/LiteOS_Lab/iot_link/network/lwm2m/wakaama_lwm2m/core\internals.h **** #endif
 281:C:/Users/dtjld/Desktop/AIoT_software/LiteOS_Lab_overseas/LiteOS_Lab/iot_link/network/lwm2m/wakaama_lwm2m/core\internals.h **** 
 282:C:/Users/dtjld/Desktop/AIoT_software/LiteOS_Lab_overseas/LiteOS_Lab/iot_link/network/lwm2m/wakaama_lwm2m/core\internals.h **** // defined in uri.c
 283:C:/Users/dtjld/Desktop/AIoT_software/LiteOS_Lab_overseas/LiteOS_Lab/iot_link/network/lwm2m/wakaama_lwm2m/core\internals.h **** lwm2m_uri_t * uri_decode(char * altPath, multi_option_t *uriPath);
 284:C:/Users/dtjld/Desktop/AIoT_software/LiteOS_Lab_overseas/LiteOS_Lab/iot_link/network/lwm2m/wakaama_lwm2m/core\internals.h **** int uri_getNumber(uint8_t * uriString, size_t uriLength);
 285:C:/Users/dtjld/Desktop/AIoT_software/LiteOS_Lab_overseas/LiteOS_Lab/iot_link/network/lwm2m/wakaama_lwm2m/core\internals.h **** int uri_toString(lwm2m_uri_t * uriP, uint8_t * buffer, size_t bufferLen, uri_depth_t * depthP);
 286:C:/Users/dtjld/Desktop/AIoT_software/LiteOS_Lab_overseas/LiteOS_Lab/iot_link/network/lwm2m/wakaama_lwm2m/core\internals.h **** 
 287:C:/Users/dtjld/Desktop/AIoT_software/LiteOS_Lab_overseas/LiteOS_Lab/iot_link/network/lwm2m/wakaama_lwm2m/core\internals.h **** // defined in objects.c
 288:C:/Users/dtjld/Desktop/AIoT_software/LiteOS_Lab_overseas/LiteOS_Lab/iot_link/network/lwm2m/wakaama_lwm2m/core\internals.h **** uint8_t object_readData(lwm2m_context_t * contextP, lwm2m_uri_t * uriP, int * sizeP, lwm2m_data_t *
 289:C:/Users/dtjld/Desktop/AIoT_software/LiteOS_Lab_overseas/LiteOS_Lab/iot_link/network/lwm2m/wakaama_lwm2m/core\internals.h **** uint8_t object_read(lwm2m_context_t * contextP, lwm2m_uri_t * uriP, lwm2m_media_type_t * formatP, u
 290:C:/Users/dtjld/Desktop/AIoT_software/LiteOS_Lab_overseas/LiteOS_Lab/iot_link/network/lwm2m/wakaama_lwm2m/core\internals.h **** uint8_t object_write(lwm2m_context_t * contextP, lwm2m_uri_t * uriP, lwm2m_media_type_t format, uin
 291:C:/Users/dtjld/Desktop/AIoT_software/LiteOS_Lab_overseas/LiteOS_Lab/iot_link/network/lwm2m/wakaama_lwm2m/core\internals.h **** uint8_t object_create(lwm2m_context_t * contextP, lwm2m_uri_t * uriP, lwm2m_media_type_t format, ui
 292:C:/Users/dtjld/Desktop/AIoT_software/LiteOS_Lab_overseas/LiteOS_Lab/iot_link/network/lwm2m/wakaama_lwm2m/core\internals.h **** uint8_t object_execute(lwm2m_context_t * contextP, lwm2m_uri_t * uriP, uint8_t * buffer, size_t len
 293:C:/Users/dtjld/Desktop/AIoT_software/LiteOS_Lab_overseas/LiteOS_Lab/iot_link/network/lwm2m/wakaama_lwm2m/core\internals.h **** uint8_t object_delete(lwm2m_context_t * contextP, lwm2m_uri_t * uriP);
 294:C:/Users/dtjld/Desktop/AIoT_software/LiteOS_Lab_overseas/LiteOS_Lab/iot_link/network/lwm2m/wakaama_lwm2m/core\internals.h **** uint8_t object_discover(lwm2m_context_t * contextP, lwm2m_uri_t * uriP, lwm2m_server_t * serverP, u
 295:C:/Users/dtjld/Desktop/AIoT_software/LiteOS_Lab_overseas/LiteOS_Lab/iot_link/network/lwm2m/wakaama_lwm2m/core\internals.h **** uint8_t object_checkReadable(lwm2m_context_t * contextP, lwm2m_uri_t * uriP);
 296:C:/Users/dtjld/Desktop/AIoT_software/LiteOS_Lab_overseas/LiteOS_Lab/iot_link/network/lwm2m/wakaama_lwm2m/core\internals.h **** uint8_t object_checkNumeric(lwm2m_context_t * contextP, lwm2m_uri_t * uriP);
 297:C:/Users/dtjld/Desktop/AIoT_software/LiteOS_Lab_overseas/LiteOS_Lab/iot_link/network/lwm2m/wakaama_lwm2m/core\internals.h **** bool object_isInstanceNew(lwm2m_context_t * contextP, uint16_t objectId, uint16_t instanceId);
 298:C:/Users/dtjld/Desktop/AIoT_software/LiteOS_Lab_overseas/LiteOS_Lab/iot_link/network/lwm2m/wakaama_lwm2m/core\internals.h **** int object_getRegisterPayloadBufferLength(lwm2m_context_t * contextP);
 299:C:/Users/dtjld/Desktop/AIoT_software/LiteOS_Lab_overseas/LiteOS_Lab/iot_link/network/lwm2m/wakaama_lwm2m/core\internals.h **** int object_getRegisterPayload(lwm2m_context_t * contextP, uint8_t * buffer, size_t length);
 300:C:/Users/dtjld/Desktop/AIoT_software/LiteOS_Lab_overseas/LiteOS_Lab/iot_link/network/lwm2m/wakaama_lwm2m/core\internals.h **** int object_getServers(lwm2m_context_t * contextP, bool checkOnly);
 301:C:/Users/dtjld/Desktop/AIoT_software/LiteOS_Lab_overseas/LiteOS_Lab/iot_link/network/lwm2m/wakaama_lwm2m/core\internals.h **** uint8_t object_createInstance(lwm2m_context_t * contextP, lwm2m_uri_t * uriP, lwm2m_data_t * dataP)
 302:C:/Users/dtjld/Desktop/AIoT_software/LiteOS_Lab_overseas/LiteOS_Lab/iot_link/network/lwm2m/wakaama_lwm2m/core\internals.h **** uint8_t object_writeInstance(lwm2m_context_t * contextP, lwm2m_uri_t * uriP, lwm2m_data_t * dataP);
 303:C:/Users/dtjld/Desktop/AIoT_software/LiteOS_Lab_overseas/LiteOS_Lab/iot_link/network/lwm2m/wakaama_lwm2m/core\internals.h **** 
 304:C:/Users/dtjld/Desktop/AIoT_software/LiteOS_Lab_overseas/LiteOS_Lab/iot_link/network/lwm2m/wakaama_lwm2m/core\internals.h **** // defined in transaction.c
 305:C:/Users/dtjld/Desktop/AIoT_software/LiteOS_Lab_overseas/LiteOS_Lab/iot_link/network/lwm2m/wakaama_lwm2m/core\internals.h **** lwm2m_transaction_t * transaction_new(void * sessionH, unsigned char method, char * altPath, lwm2m_
 306:C:/Users/dtjld/Desktop/AIoT_software/LiteOS_Lab_overseas/LiteOS_Lab/iot_link/network/lwm2m/wakaama_lwm2m/core\internals.h **** int transaction_send(lwm2m_context_t * contextP, lwm2m_transaction_t * transacP);
 307:C:/Users/dtjld/Desktop/AIoT_software/LiteOS_Lab_overseas/LiteOS_Lab/iot_link/network/lwm2m/wakaama_lwm2m/core\internals.h **** void transaction_free(lwm2m_transaction_t * transacP);
 308:C:/Users/dtjld/Desktop/AIoT_software/LiteOS_Lab_overseas/LiteOS_Lab/iot_link/network/lwm2m/wakaama_lwm2m/core\internals.h **** void transaction_remove(lwm2m_context_t * contextP, lwm2m_transaction_t * transacP);
 309:C:/Users/dtjld/Desktop/AIoT_software/LiteOS_Lab_overseas/LiteOS_Lab/iot_link/network/lwm2m/wakaama_lwm2m/core\internals.h **** bool transaction_handleResponse(lwm2m_context_t * contextP, void * fromSessionH, coap_packet_t * me
 310:C:/Users/dtjld/Desktop/AIoT_software/LiteOS_Lab_overseas/LiteOS_Lab/iot_link/network/lwm2m/wakaama_lwm2m/core\internals.h **** void transaction_step(lwm2m_context_t * contextP, time_t currentTime, time_t * timeoutP);
 311:C:/Users/dtjld/Desktop/AIoT_software/LiteOS_Lab_overseas/LiteOS_Lab/iot_link/network/lwm2m/wakaama_lwm2m/core\internals.h **** 
 312:C:/Users/dtjld/Desktop/AIoT_software/LiteOS_Lab_overseas/LiteOS_Lab/iot_link/network/lwm2m/wakaama_lwm2m/core\internals.h **** // defined in management.c
 313:C:/Users/dtjld/Desktop/AIoT_software/LiteOS_Lab_overseas/LiteOS_Lab/iot_link/network/lwm2m/wakaama_lwm2m/core\internals.h **** uint8_t dm_handleRequest(lwm2m_context_t * contextP, lwm2m_uri_t * uriP, lwm2m_server_t * serverP, 
 314:C:/Users/dtjld/Desktop/AIoT_software/LiteOS_Lab_overseas/LiteOS_Lab/iot_link/network/lwm2m/wakaama_lwm2m/core\internals.h **** 
 315:C:/Users/dtjld/Desktop/AIoT_software/LiteOS_Lab_overseas/LiteOS_Lab/iot_link/network/lwm2m/wakaama_lwm2m/core\internals.h **** // defined in observe.c
 316:C:/Users/dtjld/Desktop/AIoT_software/LiteOS_Lab_overseas/LiteOS_Lab/iot_link/network/lwm2m/wakaama_lwm2m/core\internals.h **** uint8_t observe_handleRequest(lwm2m_context_t * contextP, lwm2m_uri_t * uriP, lwm2m_server_t * serv
 317:C:/Users/dtjld/Desktop/AIoT_software/LiteOS_Lab_overseas/LiteOS_Lab/iot_link/network/lwm2m/wakaama_lwm2m/core\internals.h **** void observe_cancel(lwm2m_context_t * contextP, uint16_t mid, void * fromSessionH);
ARM GAS  C:\Users\dtjld\AppData\Local\Temp\ccLN8Itk.s 			page 7


 318:C:/Users/dtjld/Desktop/AIoT_software/LiteOS_Lab_overseas/LiteOS_Lab/iot_link/network/lwm2m/wakaama_lwm2m/core\internals.h **** uint8_t observe_setParameters(lwm2m_context_t * contextP, lwm2m_uri_t * uriP, lwm2m_server_t * serv
 319:C:/Users/dtjld/Desktop/AIoT_software/LiteOS_Lab_overseas/LiteOS_Lab/iot_link/network/lwm2m/wakaama_lwm2m/core\internals.h **** void observe_step(lwm2m_context_t * contextP, time_t currentTime, time_t * timeoutP);
 320:C:/Users/dtjld/Desktop/AIoT_software/LiteOS_Lab_overseas/LiteOS_Lab/iot_link/network/lwm2m/wakaama_lwm2m/core\internals.h **** void observe_clear(lwm2m_context_t * contextP, lwm2m_uri_t * uriP);
 321:C:/Users/dtjld/Desktop/AIoT_software/LiteOS_Lab_overseas/LiteOS_Lab/iot_link/network/lwm2m/wakaama_lwm2m/core\internals.h **** //bool observe_handleNotify(lwm2m_context_t * contextP, void * fromSessionH, coap_packet_t * messag
 322:C:/Users/dtjld/Desktop/AIoT_software/LiteOS_Lab_overseas/LiteOS_Lab/iot_link/network/lwm2m/wakaama_lwm2m/core\internals.h **** void observe_remove(lwm2m_observation_t * observationP);
 323:C:/Users/dtjld/Desktop/AIoT_software/LiteOS_Lab_overseas/LiteOS_Lab/iot_link/network/lwm2m/wakaama_lwm2m/core\internals.h **** lwm2m_observed_t * observe_findByUri(lwm2m_context_t * contextP, lwm2m_uri_t * uriP);
 324:C:/Users/dtjld/Desktop/AIoT_software/LiteOS_Lab_overseas/LiteOS_Lab/iot_link/network/lwm2m/wakaama_lwm2m/core\internals.h **** 
 325:C:/Users/dtjld/Desktop/AIoT_software/LiteOS_Lab_overseas/LiteOS_Lab/iot_link/network/lwm2m/wakaama_lwm2m/core\internals.h **** // defined in registration.c
 326:C:/Users/dtjld/Desktop/AIoT_software/LiteOS_Lab_overseas/LiteOS_Lab/iot_link/network/lwm2m/wakaama_lwm2m/core\internals.h **** //uint8_t registration_handleRequest(lwm2m_context_t * contextP, lwm2m_uri_t * uriP, void * fromSes
 327:C:/Users/dtjld/Desktop/AIoT_software/LiteOS_Lab_overseas/LiteOS_Lab/iot_link/network/lwm2m/wakaama_lwm2m/core\internals.h **** void registration_deregister(lwm2m_context_t * contextP, lwm2m_server_t * serverP);
 328:C:/Users/dtjld/Desktop/AIoT_software/LiteOS_Lab_overseas/LiteOS_Lab/iot_link/network/lwm2m/wakaama_lwm2m/core\internals.h **** void registration_freeClient(lwm2m_client_t * clientP);
 329:C:/Users/dtjld/Desktop/AIoT_software/LiteOS_Lab_overseas/LiteOS_Lab/iot_link/network/lwm2m/wakaama_lwm2m/core\internals.h **** uint8_t registration_start(lwm2m_context_t * contextP);
 330:C:/Users/dtjld/Desktop/AIoT_software/LiteOS_Lab_overseas/LiteOS_Lab/iot_link/network/lwm2m/wakaama_lwm2m/core\internals.h **** void registration_step(lwm2m_context_t * contextP, time_t currentTime, time_t * timeoutP);
 331:C:/Users/dtjld/Desktop/AIoT_software/LiteOS_Lab_overseas/LiteOS_Lab/iot_link/network/lwm2m/wakaama_lwm2m/core\internals.h **** lwm2m_status_t registration_getStatus(lwm2m_context_t * contextP);
 332:C:/Users/dtjld/Desktop/AIoT_software/LiteOS_Lab_overseas/LiteOS_Lab/iot_link/network/lwm2m/wakaama_lwm2m/core\internals.h **** void registration_reset(lwm2m_context_t * contextP, lwm2m_server_t * serverP);
 333:C:/Users/dtjld/Desktop/AIoT_software/LiteOS_Lab_overseas/LiteOS_Lab/iot_link/network/lwm2m/wakaama_lwm2m/core\internals.h **** 
 334:C:/Users/dtjld/Desktop/AIoT_software/LiteOS_Lab_overseas/LiteOS_Lab/iot_link/network/lwm2m/wakaama_lwm2m/core\internals.h **** // defined in packet.c
 335:C:/Users/dtjld/Desktop/AIoT_software/LiteOS_Lab_overseas/LiteOS_Lab/iot_link/network/lwm2m/wakaama_lwm2m/core\internals.h **** uint8_t message_send(lwm2m_context_t * contextP, coap_packet_t * message, void * sessionH);
 336:C:/Users/dtjld/Desktop/AIoT_software/LiteOS_Lab_overseas/LiteOS_Lab/iot_link/network/lwm2m/wakaama_lwm2m/core\internals.h **** 
 337:C:/Users/dtjld/Desktop/AIoT_software/LiteOS_Lab_overseas/LiteOS_Lab/iot_link/network/lwm2m/wakaama_lwm2m/core\internals.h **** // defined in bootstrap.c
 338:C:/Users/dtjld/Desktop/AIoT_software/LiteOS_Lab_overseas/LiteOS_Lab/iot_link/network/lwm2m/wakaama_lwm2m/core\internals.h **** void bootstrap_step(lwm2m_context_t * contextP, uint32_t currentTime, time_t* timeoutP);
 339:C:/Users/dtjld/Desktop/AIoT_software/LiteOS_Lab_overseas/LiteOS_Lab/iot_link/network/lwm2m/wakaama_lwm2m/core\internals.h **** uint8_t bootstrap_handleCommand(lwm2m_context_t * contextP, lwm2m_uri_t * uriP, lwm2m_server_t * se
 340:C:/Users/dtjld/Desktop/AIoT_software/LiteOS_Lab_overseas/LiteOS_Lab/iot_link/network/lwm2m/wakaama_lwm2m/core\internals.h **** uint8_t bootstrap_handleDeleteAll(lwm2m_context_t * context, void * fromSessionH);
 341:C:/Users/dtjld/Desktop/AIoT_software/LiteOS_Lab_overseas/LiteOS_Lab/iot_link/network/lwm2m/wakaama_lwm2m/core\internals.h **** uint8_t bootstrap_handleFinish(lwm2m_context_t * context, void * fromSessionH);
 342:C:/Users/dtjld/Desktop/AIoT_software/LiteOS_Lab_overseas/LiteOS_Lab/iot_link/network/lwm2m/wakaama_lwm2m/core\internals.h **** uint8_t bootstrap_handleRequest(lwm2m_context_t * contextP, lwm2m_uri_t * uriP, void * fromSessionH
 343:C:/Users/dtjld/Desktop/AIoT_software/LiteOS_Lab_overseas/LiteOS_Lab/iot_link/network/lwm2m/wakaama_lwm2m/core\internals.h **** void bootstrap_start(lwm2m_context_t * contextP);
 344:C:/Users/dtjld/Desktop/AIoT_software/LiteOS_Lab_overseas/LiteOS_Lab/iot_link/network/lwm2m/wakaama_lwm2m/core\internals.h **** lwm2m_status_t bootstrap_getStatus(lwm2m_context_t * contextP);
 345:C:/Users/dtjld/Desktop/AIoT_software/LiteOS_Lab_overseas/LiteOS_Lab/iot_link/network/lwm2m/wakaama_lwm2m/core\internals.h **** bool bootstrap_isBsServerIpValid(const lwm2m_context_t *contextP);
 346:C:/Users/dtjld/Desktop/AIoT_software/LiteOS_Lab_overseas/LiteOS_Lab/iot_link/network/lwm2m/wakaama_lwm2m/core\internals.h **** 
 347:C:/Users/dtjld/Desktop/AIoT_software/LiteOS_Lab_overseas/LiteOS_Lab/iot_link/network/lwm2m/wakaama_lwm2m/core\internals.h **** 
 348:C:/Users/dtjld/Desktop/AIoT_software/LiteOS_Lab_overseas/LiteOS_Lab/iot_link/network/lwm2m/wakaama_lwm2m/core\internals.h **** // defined in tlv.c
 349:C:/Users/dtjld/Desktop/AIoT_software/LiteOS_Lab_overseas/LiteOS_Lab/iot_link/network/lwm2m/wakaama_lwm2m/core\internals.h **** int tlv_parse(uint8_t * buffer, size_t bufferLen, lwm2m_data_t ** dataP);
 350:C:/Users/dtjld/Desktop/AIoT_software/LiteOS_Lab_overseas/LiteOS_Lab/iot_link/network/lwm2m/wakaama_lwm2m/core\internals.h **** int tlv_serialize(bool isResourceInstance, int size, lwm2m_data_t * dataP, uint8_t ** bufferP);
 351:C:/Users/dtjld/Desktop/AIoT_software/LiteOS_Lab_overseas/LiteOS_Lab/iot_link/network/lwm2m/wakaama_lwm2m/core\internals.h **** 
 352:C:/Users/dtjld/Desktop/AIoT_software/LiteOS_Lab_overseas/LiteOS_Lab/iot_link/network/lwm2m/wakaama_lwm2m/core\internals.h **** // defined in json.c
 353:C:/Users/dtjld/Desktop/AIoT_software/LiteOS_Lab_overseas/LiteOS_Lab/iot_link/network/lwm2m/wakaama_lwm2m/core\internals.h **** #ifdef LWM2M_SUPPORT_JSON
 354:C:/Users/dtjld/Desktop/AIoT_software/LiteOS_Lab_overseas/LiteOS_Lab/iot_link/network/lwm2m/wakaama_lwm2m/core\internals.h **** int json_parse(lwm2m_uri_t * uriP, uint8_t * buffer, size_t bufferLen, lwm2m_data_t ** dataP);
 355:C:/Users/dtjld/Desktop/AIoT_software/LiteOS_Lab_overseas/LiteOS_Lab/iot_link/network/lwm2m/wakaama_lwm2m/core\internals.h **** int json_serialize(lwm2m_uri_t * uriP, int size, lwm2m_data_t * tlvP, uint8_t ** bufferP);
 356:C:/Users/dtjld/Desktop/AIoT_software/LiteOS_Lab_overseas/LiteOS_Lab/iot_link/network/lwm2m/wakaama_lwm2m/core\internals.h **** #endif
 357:C:/Users/dtjld/Desktop/AIoT_software/LiteOS_Lab_overseas/LiteOS_Lab/iot_link/network/lwm2m/wakaama_lwm2m/core\internals.h **** 
 358:C:/Users/dtjld/Desktop/AIoT_software/LiteOS_Lab_overseas/LiteOS_Lab/iot_link/network/lwm2m/wakaama_lwm2m/core\internals.h **** // defined in discover.c
 359:C:/Users/dtjld/Desktop/AIoT_software/LiteOS_Lab_overseas/LiteOS_Lab/iot_link/network/lwm2m/wakaama_lwm2m/core\internals.h **** int discover_serialize(lwm2m_context_t * contextP, lwm2m_uri_t * uriP, lwm2m_server_t * serverP, in
 360:C:/Users/dtjld/Desktop/AIoT_software/LiteOS_Lab_overseas/LiteOS_Lab/iot_link/network/lwm2m/wakaama_lwm2m/core\internals.h **** 
 361:C:/Users/dtjld/Desktop/AIoT_software/LiteOS_Lab_overseas/LiteOS_Lab/iot_link/network/lwm2m/wakaama_lwm2m/core\internals.h **** // defined in block1.c
 362:C:/Users/dtjld/Desktop/AIoT_software/LiteOS_Lab_overseas/LiteOS_Lab/iot_link/network/lwm2m/wakaama_lwm2m/core\internals.h **** uint8_t coap_block1_handler(lwm2m_block1_data_t ** block1Data, uint16_t mid, uint8_t * buffer, size
 363:C:/Users/dtjld/Desktop/AIoT_software/LiteOS_Lab_overseas/LiteOS_Lab/iot_link/network/lwm2m/wakaama_lwm2m/core\internals.h **** void free_block1_buffer(lwm2m_block1_data_t * block1Data);
 364:C:/Users/dtjld/Desktop/AIoT_software/LiteOS_Lab_overseas/LiteOS_Lab/iot_link/network/lwm2m/wakaama_lwm2m/core\internals.h **** 
 365:C:/Users/dtjld/Desktop/AIoT_software/LiteOS_Lab_overseas/LiteOS_Lab/iot_link/network/lwm2m/wakaama_lwm2m/core\internals.h **** // defined in utils.c
 366:C:/Users/dtjld/Desktop/AIoT_software/LiteOS_Lab_overseas/LiteOS_Lab/iot_link/network/lwm2m/wakaama_lwm2m/core\internals.h **** lwm2m_data_type_t utils_depthToDatatype(uri_depth_t depth);
 367:C:/Users/dtjld/Desktop/AIoT_software/LiteOS_Lab_overseas/LiteOS_Lab/iot_link/network/lwm2m/wakaama_lwm2m/core\internals.h **** lwm2m_binding_t utils_stringToBinding(uint8_t *buffer, size_t length);
 368:C:/Users/dtjld/Desktop/AIoT_software/LiteOS_Lab_overseas/LiteOS_Lab/iot_link/network/lwm2m/wakaama_lwm2m/core\internals.h **** lwm2m_media_type_t utils_convertMediaType(coap_content_type_t type);
 369:C:/Users/dtjld/Desktop/AIoT_software/LiteOS_Lab_overseas/LiteOS_Lab/iot_link/network/lwm2m/wakaama_lwm2m/core\internals.h **** int utils_isAltPathValid(const char * altPath);
 370:C:/Users/dtjld/Desktop/AIoT_software/LiteOS_Lab_overseas/LiteOS_Lab/iot_link/network/lwm2m/wakaama_lwm2m/core\internals.h **** int utils_stringCopy(char * buffer, size_t length, const char * str);
 371:C:/Users/dtjld/Desktop/AIoT_software/LiteOS_Lab_overseas/LiteOS_Lab/iot_link/network/lwm2m/wakaama_lwm2m/core\internals.h **** size_t utils_intToText(int64_t data, uint8_t * string, size_t length);
 372:C:/Users/dtjld/Desktop/AIoT_software/LiteOS_Lab_overseas/LiteOS_Lab/iot_link/network/lwm2m/wakaama_lwm2m/core\internals.h **** size_t utils_floatToText(double data, uint8_t * string, size_t length);
 373:C:/Users/dtjld/Desktop/AIoT_software/LiteOS_Lab_overseas/LiteOS_Lab/iot_link/network/lwm2m/wakaama_lwm2m/core\internals.h **** int utils_textToInt(uint8_t * buffer, int length, int64_t * dataP);
 374:C:/Users/dtjld/Desktop/AIoT_software/LiteOS_Lab_overseas/LiteOS_Lab/iot_link/network/lwm2m/wakaama_lwm2m/core\internals.h **** int utils_textToFloat(uint8_t * buffer, int length, double * dataP);
ARM GAS  C:\Users\dtjld\AppData\Local\Temp\ccLN8Itk.s 			page 8


 375:C:/Users/dtjld/Desktop/AIoT_software/LiteOS_Lab_overseas/LiteOS_Lab/iot_link/network/lwm2m/wakaama_lwm2m/core\internals.h **** void utils_copyValue(void * dst, const void * src, size_t len);
 376:C:/Users/dtjld/Desktop/AIoT_software/LiteOS_Lab_overseas/LiteOS_Lab/iot_link/network/lwm2m/wakaama_lwm2m/core\internals.h **** size_t utils_base64GetSize(size_t dataLen);
 377:C:/Users/dtjld/Desktop/AIoT_software/LiteOS_Lab_overseas/LiteOS_Lab/iot_link/network/lwm2m/wakaama_lwm2m/core\internals.h **** size_t utils_base64Encode(uint8_t * dataP, size_t dataLen, uint8_t * bufferP, size_t bufferLen);
 378:C:/Users/dtjld/Desktop/AIoT_software/LiteOS_Lab_overseas/LiteOS_Lab/iot_link/network/lwm2m/wakaama_lwm2m/core\internals.h **** #ifdef LWM2M_CLIENT_MODE
 379:C:/Users/dtjld/Desktop/AIoT_software/LiteOS_Lab_overseas/LiteOS_Lab/iot_link/network/lwm2m/wakaama_lwm2m/core\internals.h **** lwm2m_server_t * utils_findServer(lwm2m_context_t * contextP, void * fromSessionH);
 380:C:/Users/dtjld/Desktop/AIoT_software/LiteOS_Lab_overseas/LiteOS_Lab/iot_link/network/lwm2m/wakaama_lwm2m/core\internals.h **** lwm2m_server_t * utils_findBootstrapServer(lwm2m_context_t * contextP, void * fromSessionH);
 381:C:/Users/dtjld/Desktop/AIoT_software/LiteOS_Lab_overseas/LiteOS_Lab/iot_link/network/lwm2m/wakaama_lwm2m/core\internals.h **** #endif
 382:C:/Users/dtjld/Desktop/AIoT_software/LiteOS_Lab_overseas/LiteOS_Lab/iot_link/network/lwm2m/wakaama_lwm2m/core\internals.h **** static inline int dm_isUriOpaqueHandle(const lwm2m_uri_t * uriP)
 383:C:/Users/dtjld/Desktop/AIoT_software/LiteOS_Lab_overseas/LiteOS_Lab/iot_link/network/lwm2m/wakaama_lwm2m/core\internals.h **** {
  27              		.loc 1 383 0
  28              		.cfi_startproc
  29              		@ args = 0, pretend = 0, frame = 8
  30              		@ frame_needed = 1, uses_anonymous_args = 0
  31              		@ link register save eliminated.
  32 0000 80B4     		push	{r7}
  33              	.LCFI0:
  34              		.cfi_def_cfa_offset 4
  35              		.cfi_offset 7, -4
  36 0002 83B0     		sub	sp, sp, #12
  37              	.LCFI1:
  38              		.cfi_def_cfa_offset 16
  39 0004 00AF     		add	r7, sp, #0
  40              	.LCFI2:
  41              		.cfi_def_cfa_register 7
  42 0006 7860     		str	r0, [r7, #4]
 384:C:/Users/dtjld/Desktop/AIoT_software/LiteOS_Lab_overseas/LiteOS_Lab/iot_link/network/lwm2m/wakaama_lwm2m/core\internals.h ****     return (19 == uriP->objectId);
  43              		.loc 1 384 0
  44 0008 7B68     		ldr	r3, [r7, #4]
  45 000a 5B88     		ldrh	r3, [r3, #2]
  46 000c 132B     		cmp	r3, #19
  47 000e 0CBF     		ite	eq
  48 0010 0123     		moveq	r3, #1
  49 0012 0023     		movne	r3, #0
  50 0014 DBB2     		uxtb	r3, r3
 385:C:/Users/dtjld/Desktop/AIoT_software/LiteOS_Lab_overseas/LiteOS_Lab/iot_link/network/lwm2m/wakaama_lwm2m/core\internals.h **** }
  51              		.loc 1 385 0
  52 0016 1846     		mov	r0, r3
  53 0018 0C37     		adds	r7, r7, #12
  54              	.LCFI3:
  55              		.cfi_def_cfa_offset 4
  56 001a BD46     		mov	sp, r7
  57              	.LCFI4:
  58              		.cfi_def_cfa_register 13
  59              		@ sp needed
  60 001c 5DF8047B 		ldr	r7, [sp], #4
  61              	.LCFI5:
  62              		.cfi_restore 7
  63              		.cfi_def_cfa_offset 0
  64 0020 7047     		bx	lr
  65              		.cfi_endproc
  66              	.LFE3:
  68              		.section	.text.lwm2m_data_decode_opaque,"ax",%progbits
  69              		.align	1
  70              		.global	lwm2m_data_decode_opaque
  71              		.syntax unified
  72              		.thumb
  73              		.thumb_func
ARM GAS  C:\Users\dtjld\AppData\Local\Temp\ccLN8Itk.s 			page 9


  74              		.fpu fpv4-sp-d16
  76              	lwm2m_data_decode_opaque:
  77              	.LFB4:
  78              		.file 2 "C:/Users/dtjld/Desktop/AIoT_software/LiteOS_Lab_overseas/LiteOS_Lab/iot_link/network/lwm2
   1:C:/Users/dtjld/Desktop/AIoT_software/LiteOS_Lab_overseas/LiteOS_Lab/iot_link/network/lwm2m/wakaama_lwm2m/core\data.c **** /*----------------------------------------------------------------------------
   2:C:/Users/dtjld/Desktop/AIoT_software/LiteOS_Lab_overseas/LiteOS_Lab/iot_link/network/lwm2m/wakaama_lwm2m/core\data.c ****  * Copyright (c) <2016-2018>, <Huawei Technologies Co., Ltd>
   3:C:/Users/dtjld/Desktop/AIoT_software/LiteOS_Lab_overseas/LiteOS_Lab/iot_link/network/lwm2m/wakaama_lwm2m/core\data.c ****  * All rights reserved.
   4:C:/Users/dtjld/Desktop/AIoT_software/LiteOS_Lab_overseas/LiteOS_Lab/iot_link/network/lwm2m/wakaama_lwm2m/core\data.c ****  * Redistribution and use in source and binary forms, with or without modification,
   5:C:/Users/dtjld/Desktop/AIoT_software/LiteOS_Lab_overseas/LiteOS_Lab/iot_link/network/lwm2m/wakaama_lwm2m/core\data.c ****  * are permitted provided that the following conditions are met:
   6:C:/Users/dtjld/Desktop/AIoT_software/LiteOS_Lab_overseas/LiteOS_Lab/iot_link/network/lwm2m/wakaama_lwm2m/core\data.c ****  * 1. Redistributions of source code must retain the above copyright notice, this list of
   7:C:/Users/dtjld/Desktop/AIoT_software/LiteOS_Lab_overseas/LiteOS_Lab/iot_link/network/lwm2m/wakaama_lwm2m/core\data.c ****  * conditions and the following disclaimer.
   8:C:/Users/dtjld/Desktop/AIoT_software/LiteOS_Lab_overseas/LiteOS_Lab/iot_link/network/lwm2m/wakaama_lwm2m/core\data.c ****  * 2. Redistributions in binary form must reproduce the above copyright notice, this list
   9:C:/Users/dtjld/Desktop/AIoT_software/LiteOS_Lab_overseas/LiteOS_Lab/iot_link/network/lwm2m/wakaama_lwm2m/core\data.c ****  * of conditions and the following disclaimer in the documentation and/or other materials
  10:C:/Users/dtjld/Desktop/AIoT_software/LiteOS_Lab_overseas/LiteOS_Lab/iot_link/network/lwm2m/wakaama_lwm2m/core\data.c ****  * provided with the distribution.
  11:C:/Users/dtjld/Desktop/AIoT_software/LiteOS_Lab_overseas/LiteOS_Lab/iot_link/network/lwm2m/wakaama_lwm2m/core\data.c ****  * 3. Neither the name of the copyright holder nor the names of its contributors may be used
  12:C:/Users/dtjld/Desktop/AIoT_software/LiteOS_Lab_overseas/LiteOS_Lab/iot_link/network/lwm2m/wakaama_lwm2m/core\data.c ****  * to endorse or promote products derived from this software without specific prior written
  13:C:/Users/dtjld/Desktop/AIoT_software/LiteOS_Lab_overseas/LiteOS_Lab/iot_link/network/lwm2m/wakaama_lwm2m/core\data.c ****  * permission.
  14:C:/Users/dtjld/Desktop/AIoT_software/LiteOS_Lab_overseas/LiteOS_Lab/iot_link/network/lwm2m/wakaama_lwm2m/core\data.c ****  * THIS SOFTWARE IS PROVIDED BY THE COPYRIGHT HOLDERS AND CONTRIBUTORS
  15:C:/Users/dtjld/Desktop/AIoT_software/LiteOS_Lab_overseas/LiteOS_Lab/iot_link/network/lwm2m/wakaama_lwm2m/core\data.c ****  * "AS IS" AND ANY EXPRESS OR IMPLIED WARRANTIES, INCLUDING, BUT NOT LIMITED TO,
  16:C:/Users/dtjld/Desktop/AIoT_software/LiteOS_Lab_overseas/LiteOS_Lab/iot_link/network/lwm2m/wakaama_lwm2m/core\data.c ****  * THE IMPLIED WARRANTIES OF MERCHANTABILITY AND FITNESS FOR A PARTICULAR
  17:C:/Users/dtjld/Desktop/AIoT_software/LiteOS_Lab_overseas/LiteOS_Lab/iot_link/network/lwm2m/wakaama_lwm2m/core\data.c ****  * PURPOSE ARE DISCLAIMED. IN NO EVENT SHALL THE COPYRIGHT HOLDER OR
  18:C:/Users/dtjld/Desktop/AIoT_software/LiteOS_Lab_overseas/LiteOS_Lab/iot_link/network/lwm2m/wakaama_lwm2m/core\data.c ****  * CONTRIBUTORS BE LIABLE FOR ANY DIRECT, INDIRECT, INCIDENTAL, SPECIAL,
  19:C:/Users/dtjld/Desktop/AIoT_software/LiteOS_Lab_overseas/LiteOS_Lab/iot_link/network/lwm2m/wakaama_lwm2m/core\data.c ****  * EXEMPLARY, OR CONSEQUENTIAL DAMAGES (INCLUDING, BUT NOT LIMITED TO,
  20:C:/Users/dtjld/Desktop/AIoT_software/LiteOS_Lab_overseas/LiteOS_Lab/iot_link/network/lwm2m/wakaama_lwm2m/core\data.c ****  * PROCUREMENT OF SUBSTITUTE GOODS OR SERVICES; LOSS OF USE, DATA, OR PROFITS;
  21:C:/Users/dtjld/Desktop/AIoT_software/LiteOS_Lab_overseas/LiteOS_Lab/iot_link/network/lwm2m/wakaama_lwm2m/core\data.c ****  * OR BUSINESS INTERRUPTION) HOWEVER CAUSED AND ON ANY THEORY OF LIABILITY,
  22:C:/Users/dtjld/Desktop/AIoT_software/LiteOS_Lab_overseas/LiteOS_Lab/iot_link/network/lwm2m/wakaama_lwm2m/core\data.c ****  * WHETHER IN CONTRACT, STRICT LIABILITY, OR TORT (INCLUDING NEGLIGENCE OR
  23:C:/Users/dtjld/Desktop/AIoT_software/LiteOS_Lab_overseas/LiteOS_Lab/iot_link/network/lwm2m/wakaama_lwm2m/core\data.c ****  * OTHERWISE) ARISING IN ANY WAY OUT OF THE USE OF THIS SOFTWARE, EVEN IF
  24:C:/Users/dtjld/Desktop/AIoT_software/LiteOS_Lab_overseas/LiteOS_Lab/iot_link/network/lwm2m/wakaama_lwm2m/core\data.c ****  * ADVISED OF THE POSSIBILITY OF SUCH DAMAGE.
  25:C:/Users/dtjld/Desktop/AIoT_software/LiteOS_Lab_overseas/LiteOS_Lab/iot_link/network/lwm2m/wakaama_lwm2m/core\data.c ****  *---------------------------------------------------------------------------*/
  26:C:/Users/dtjld/Desktop/AIoT_software/LiteOS_Lab_overseas/LiteOS_Lab/iot_link/network/lwm2m/wakaama_lwm2m/core\data.c **** /*----------------------------------------------------------------------------
  27:C:/Users/dtjld/Desktop/AIoT_software/LiteOS_Lab_overseas/LiteOS_Lab/iot_link/network/lwm2m/wakaama_lwm2m/core\data.c ****  * Notice of Export Control Law
  28:C:/Users/dtjld/Desktop/AIoT_software/LiteOS_Lab_overseas/LiteOS_Lab/iot_link/network/lwm2m/wakaama_lwm2m/core\data.c ****  * ===============================================
  29:C:/Users/dtjld/Desktop/AIoT_software/LiteOS_Lab_overseas/LiteOS_Lab/iot_link/network/lwm2m/wakaama_lwm2m/core\data.c ****  * Huawei LiteOS may be subject to applicable export control laws and regulations, which might
  30:C:/Users/dtjld/Desktop/AIoT_software/LiteOS_Lab_overseas/LiteOS_Lab/iot_link/network/lwm2m/wakaama_lwm2m/core\data.c ****  * include those applicable to Huawei LiteOS of U.S. and the country in which you are located.
  31:C:/Users/dtjld/Desktop/AIoT_software/LiteOS_Lab_overseas/LiteOS_Lab/iot_link/network/lwm2m/wakaama_lwm2m/core\data.c ****  * Import, export and usage of Huawei LiteOS in any manner by you shall be in compliance with such
  32:C:/Users/dtjld/Desktop/AIoT_software/LiteOS_Lab_overseas/LiteOS_Lab/iot_link/network/lwm2m/wakaama_lwm2m/core\data.c ****  * applicable export control laws and regulations.
  33:C:/Users/dtjld/Desktop/AIoT_software/LiteOS_Lab_overseas/LiteOS_Lab/iot_link/network/lwm2m/wakaama_lwm2m/core\data.c ****  *---------------------------------------------------------------------------*/
  34:C:/Users/dtjld/Desktop/AIoT_software/LiteOS_Lab_overseas/LiteOS_Lab/iot_link/network/lwm2m/wakaama_lwm2m/core\data.c **** 
  35:C:/Users/dtjld/Desktop/AIoT_software/LiteOS_Lab_overseas/LiteOS_Lab/iot_link/network/lwm2m/wakaama_lwm2m/core\data.c **** /*******************************************************************************
  36:C:/Users/dtjld/Desktop/AIoT_software/LiteOS_Lab_overseas/LiteOS_Lab/iot_link/network/lwm2m/wakaama_lwm2m/core\data.c **** *
  37:C:/Users/dtjld/Desktop/AIoT_software/LiteOS_Lab_overseas/LiteOS_Lab/iot_link/network/lwm2m/wakaama_lwm2m/core\data.c **** * Copyright (c) 2013, 2014 Intel Corporation and others.
  38:C:/Users/dtjld/Desktop/AIoT_software/LiteOS_Lab_overseas/LiteOS_Lab/iot_link/network/lwm2m/wakaama_lwm2m/core\data.c **** * All rights reserved. This program and the accompanying materials
  39:C:/Users/dtjld/Desktop/AIoT_software/LiteOS_Lab_overseas/LiteOS_Lab/iot_link/network/lwm2m/wakaama_lwm2m/core\data.c **** * are made available under the terms of the Eclipse Public License v1.0
  40:C:/Users/dtjld/Desktop/AIoT_software/LiteOS_Lab_overseas/LiteOS_Lab/iot_link/network/lwm2m/wakaama_lwm2m/core\data.c **** * and Eclipse Distribution License v1.0 which accompany this distribution.
  41:C:/Users/dtjld/Desktop/AIoT_software/LiteOS_Lab_overseas/LiteOS_Lab/iot_link/network/lwm2m/wakaama_lwm2m/core\data.c **** *
  42:C:/Users/dtjld/Desktop/AIoT_software/LiteOS_Lab_overseas/LiteOS_Lab/iot_link/network/lwm2m/wakaama_lwm2m/core\data.c **** * The Eclipse Public License is available at
  43:C:/Users/dtjld/Desktop/AIoT_software/LiteOS_Lab_overseas/LiteOS_Lab/iot_link/network/lwm2m/wakaama_lwm2m/core\data.c **** *    http://www.eclipse.org/legal/epl-v10.html
  44:C:/Users/dtjld/Desktop/AIoT_software/LiteOS_Lab_overseas/LiteOS_Lab/iot_link/network/lwm2m/wakaama_lwm2m/core\data.c **** * The Eclipse Distribution License is available at
  45:C:/Users/dtjld/Desktop/AIoT_software/LiteOS_Lab_overseas/LiteOS_Lab/iot_link/network/lwm2m/wakaama_lwm2m/core\data.c **** *    http://www.eclipse.org/org/documents/edl-v10.php.
  46:C:/Users/dtjld/Desktop/AIoT_software/LiteOS_Lab_overseas/LiteOS_Lab/iot_link/network/lwm2m/wakaama_lwm2m/core\data.c **** *
  47:C:/Users/dtjld/Desktop/AIoT_software/LiteOS_Lab_overseas/LiteOS_Lab/iot_link/network/lwm2m/wakaama_lwm2m/core\data.c **** * Contributors:
  48:C:/Users/dtjld/Desktop/AIoT_software/LiteOS_Lab_overseas/LiteOS_Lab/iot_link/network/lwm2m/wakaama_lwm2m/core\data.c **** *    David Navarro, Intel Corporation - initial API and implementation
  49:C:/Users/dtjld/Desktop/AIoT_software/LiteOS_Lab_overseas/LiteOS_Lab/iot_link/network/lwm2m/wakaama_lwm2m/core\data.c **** *    Fabien Fleutot - Please refer to git log
  50:C:/Users/dtjld/Desktop/AIoT_software/LiteOS_Lab_overseas/LiteOS_Lab/iot_link/network/lwm2m/wakaama_lwm2m/core\data.c **** *    Bosch Software Innovations GmbH - Please refer to git log
  51:C:/Users/dtjld/Desktop/AIoT_software/LiteOS_Lab_overseas/LiteOS_Lab/iot_link/network/lwm2m/wakaama_lwm2m/core\data.c **** *
  52:C:/Users/dtjld/Desktop/AIoT_software/LiteOS_Lab_overseas/LiteOS_Lab/iot_link/network/lwm2m/wakaama_lwm2m/core\data.c **** *******************************************************************************/
  53:C:/Users/dtjld/Desktop/AIoT_software/LiteOS_Lab_overseas/LiteOS_Lab/iot_link/network/lwm2m/wakaama_lwm2m/core\data.c **** 
ARM GAS  C:\Users\dtjld\AppData\Local\Temp\ccLN8Itk.s 			page 10


  54:C:/Users/dtjld/Desktop/AIoT_software/LiteOS_Lab_overseas/LiteOS_Lab/iot_link/network/lwm2m/wakaama_lwm2m/core\data.c **** #include "internals.h"
  55:C:/Users/dtjld/Desktop/AIoT_software/LiteOS_Lab_overseas/LiteOS_Lab/iot_link/network/lwm2m/wakaama_lwm2m/core\data.c **** #include <float.h>
  56:C:/Users/dtjld/Desktop/AIoT_software/LiteOS_Lab_overseas/LiteOS_Lab/iot_link/network/lwm2m/wakaama_lwm2m/core\data.c **** 
  57:C:/Users/dtjld/Desktop/AIoT_software/LiteOS_Lab_overseas/LiteOS_Lab/iot_link/network/lwm2m/wakaama_lwm2m/core\data.c **** #define _PRV_STR_LENGTH 32
  58:C:/Users/dtjld/Desktop/AIoT_software/LiteOS_Lab_overseas/LiteOS_Lab/iot_link/network/lwm2m/wakaama_lwm2m/core\data.c **** 
  59:C:/Users/dtjld/Desktop/AIoT_software/LiteOS_Lab_overseas/LiteOS_Lab/iot_link/network/lwm2m/wakaama_lwm2m/core\data.c **** 
  60:C:/Users/dtjld/Desktop/AIoT_software/LiteOS_Lab_overseas/LiteOS_Lab/iot_link/network/lwm2m/wakaama_lwm2m/core\data.c **** void lwm2m_data_decode_opaque(const lwm2m_data_t *dataP,
  61:C:/Users/dtjld/Desktop/AIoT_software/LiteOS_Lab_overseas/LiteOS_Lab/iot_link/network/lwm2m/wakaama_lwm2m/core\data.c ****                               int8_t *valueP)
  62:C:/Users/dtjld/Desktop/AIoT_software/LiteOS_Lab_overseas/LiteOS_Lab/iot_link/network/lwm2m/wakaama_lwm2m/core\data.c **** {
  79              		.loc 2 62 0
  80              		.cfi_startproc
  81              		@ args = 0, pretend = 0, frame = 8
  82              		@ frame_needed = 1, uses_anonymous_args = 0
  83 0000 80B5     		push	{r7, lr}
  84              	.LCFI6:
  85              		.cfi_def_cfa_offset 8
  86              		.cfi_offset 7, -8
  87              		.cfi_offset 14, -4
  88 0002 82B0     		sub	sp, sp, #8
  89              	.LCFI7:
  90              		.cfi_def_cfa_offset 16
  91 0004 00AF     		add	r7, sp, #0
  92              	.LCFI8:
  93              		.cfi_def_cfa_register 7
  94 0006 7860     		str	r0, [r7, #4]
  95 0008 3960     		str	r1, [r7]
  63:C:/Users/dtjld/Desktop/AIoT_software/LiteOS_Lab_overseas/LiteOS_Lab/iot_link/network/lwm2m/wakaama_lwm2m/core\data.c ****     memcpy(valueP, dataP->value.asBuffer.buffer, dataP->value.asBuffer.length);
  96              		.loc 2 63 0
  97 000a 7B68     		ldr	r3, [r7, #4]
  98 000c D968     		ldr	r1, [r3, #12]
  99 000e 7B68     		ldr	r3, [r7, #4]
 100 0010 9B68     		ldr	r3, [r3, #8]
 101 0012 1A46     		mov	r2, r3
 102 0014 3868     		ldr	r0, [r7]
 103 0016 FFF7FEFF 		bl	memcpy
  64:C:/Users/dtjld/Desktop/AIoT_software/LiteOS_Lab_overseas/LiteOS_Lab/iot_link/network/lwm2m/wakaama_lwm2m/core\data.c **** }
 104              		.loc 2 64 0
 105 001a 00BF     		nop
 106 001c 0837     		adds	r7, r7, #8
 107              	.LCFI9:
 108              		.cfi_def_cfa_offset 8
 109 001e BD46     		mov	sp, r7
 110              	.LCFI10:
 111              		.cfi_def_cfa_register 13
 112              		@ sp needed
 113 0020 80BD     		pop	{r7, pc}
 114              		.cfi_endproc
 115              	.LFE4:
 117              		.section	.text.prv_textSerialize,"ax",%progbits
 118              		.align	1
 119              		.syntax unified
 120              		.thumb
 121              		.thumb_func
 122              		.fpu fpv4-sp-d16
 124              	prv_textSerialize:
 125              	.LFB5:
  65:C:/Users/dtjld/Desktop/AIoT_software/LiteOS_Lab_overseas/LiteOS_Lab/iot_link/network/lwm2m/wakaama_lwm2m/core\data.c **** 
ARM GAS  C:\Users\dtjld\AppData\Local\Temp\ccLN8Itk.s 			page 11


  66:C:/Users/dtjld/Desktop/AIoT_software/LiteOS_Lab_overseas/LiteOS_Lab/iot_link/network/lwm2m/wakaama_lwm2m/core\data.c **** // dataP array length is assumed to be 1.
  67:C:/Users/dtjld/Desktop/AIoT_software/LiteOS_Lab_overseas/LiteOS_Lab/iot_link/network/lwm2m/wakaama_lwm2m/core\data.c **** static int prv_textSerialize(lwm2m_data_t *dataP,
  68:C:/Users/dtjld/Desktop/AIoT_software/LiteOS_Lab_overseas/LiteOS_Lab/iot_link/network/lwm2m/wakaama_lwm2m/core\data.c ****                              uint8_t **bufferP)
  69:C:/Users/dtjld/Desktop/AIoT_software/LiteOS_Lab_overseas/LiteOS_Lab/iot_link/network/lwm2m/wakaama_lwm2m/core\data.c **** {
 126              		.loc 2 69 0
 127              		.cfi_startproc
 128              		@ args = 0, pretend = 0, frame = 96
 129              		@ frame_needed = 1, uses_anonymous_args = 0
 130 0000 80B5     		push	{r7, lr}
 131              	.LCFI11:
 132              		.cfi_def_cfa_offset 8
 133              		.cfi_offset 7, -8
 134              		.cfi_offset 14, -4
 135 0002 98B0     		sub	sp, sp, #96
 136              	.LCFI12:
 137              		.cfi_def_cfa_offset 104
 138 0004 00AF     		add	r7, sp, #0
 139              	.LCFI13:
 140              		.cfi_def_cfa_register 7
 141 0006 7860     		str	r0, [r7, #4]
 142 0008 3960     		str	r1, [r7]
  70:C:/Users/dtjld/Desktop/AIoT_software/LiteOS_Lab_overseas/LiteOS_Lab/iot_link/network/lwm2m/wakaama_lwm2m/core\data.c ****     size_t res;
  71:C:/Users/dtjld/Desktop/AIoT_software/LiteOS_Lab_overseas/LiteOS_Lab/iot_link/network/lwm2m/wakaama_lwm2m/core\data.c **** 
  72:C:/Users/dtjld/Desktop/AIoT_software/LiteOS_Lab_overseas/LiteOS_Lab/iot_link/network/lwm2m/wakaama_lwm2m/core\data.c ****     switch (dataP->type)
 143              		.loc 2 72 0
 144 000a 7B68     		ldr	r3, [r7, #4]
 145 000c 1B78     		ldrb	r3, [r3]	@ zero_extendqisi2
 146 000e 043B     		subs	r3, r3, #4
 147 0010 052B     		cmp	r3, #5
 148 0012 00F20381 		bhi	.L5
 149 0016 01A2     		adr	r2, .L7
 150 0018 52F823F0 		ldr	pc, [r2, r3, lsl #2]
 151              		.p2align 2
 152              	.L7:
 153 001c 35000000 		.word	.L6+1
 154 0020 C7010000 		.word	.L8+1
 155 0024 69000000 		.word	.L9+1
 156 0028 B5000000 		.word	.L10+1
 157 002c 0B010000 		.word	.L11+1
 158 0030 3D010000 		.word	.L12+1
 159              		.p2align 1
 160              	.L6:
  73:C:/Users/dtjld/Desktop/AIoT_software/LiteOS_Lab_overseas/LiteOS_Lab/iot_link/network/lwm2m/wakaama_lwm2m/core\data.c ****     {
  74:C:/Users/dtjld/Desktop/AIoT_software/LiteOS_Lab_overseas/LiteOS_Lab/iot_link/network/lwm2m/wakaama_lwm2m/core\data.c ****     case LWM2M_TYPE_STRING:
  75:C:/Users/dtjld/Desktop/AIoT_software/LiteOS_Lab_overseas/LiteOS_Lab/iot_link/network/lwm2m/wakaama_lwm2m/core\data.c ****         *bufferP = (uint8_t *)lwm2m_malloc(dataP->value.asBuffer.length);
 161              		.loc 2 75 0
 162 0034 7B68     		ldr	r3, [r7, #4]
 163 0036 9B68     		ldr	r3, [r3, #8]
 164 0038 1846     		mov	r0, r3
 165 003a FFF7FEFF 		bl	lwm2m_malloc
 166 003e 0246     		mov	r2, r0
 167 0040 3B68     		ldr	r3, [r7]
 168 0042 1A60     		str	r2, [r3]
  76:C:/Users/dtjld/Desktop/AIoT_software/LiteOS_Lab_overseas/LiteOS_Lab/iot_link/network/lwm2m/wakaama_lwm2m/core\data.c ****         if (*bufferP == NULL) return 0;
 169              		.loc 2 76 0
 170 0044 3B68     		ldr	r3, [r7]
 171 0046 1B68     		ldr	r3, [r3]
ARM GAS  C:\Users\dtjld\AppData\Local\Temp\ccLN8Itk.s 			page 12


 172 0048 002B     		cmp	r3, #0
 173 004a 01D1     		bne	.L13
 174              		.loc 2 76 0 is_stmt 0 discriminator 1
 175 004c 0023     		movs	r3, #0
 176 004e E7E0     		b	.L14
 177              	.L13:
  77:C:/Users/dtjld/Desktop/AIoT_software/LiteOS_Lab_overseas/LiteOS_Lab/iot_link/network/lwm2m/wakaama_lwm2m/core\data.c ****         memcpy(*bufferP, dataP->value.asBuffer.buffer, dataP->value.asBuffer.length);
 178              		.loc 2 77 0 is_stmt 1
 179 0050 3B68     		ldr	r3, [r7]
 180 0052 1868     		ldr	r0, [r3]
 181 0054 7B68     		ldr	r3, [r7, #4]
 182 0056 D968     		ldr	r1, [r3, #12]
 183 0058 7B68     		ldr	r3, [r7, #4]
 184 005a 9B68     		ldr	r3, [r3, #8]
 185 005c 1A46     		mov	r2, r3
 186 005e FFF7FEFF 		bl	memcpy
  78:C:/Users/dtjld/Desktop/AIoT_software/LiteOS_Lab_overseas/LiteOS_Lab/iot_link/network/lwm2m/wakaama_lwm2m/core\data.c ****         return (int)dataP->value.asBuffer.length;
 187              		.loc 2 78 0
 188 0062 7B68     		ldr	r3, [r7, #4]
 189 0064 9B68     		ldr	r3, [r3, #8]
 190 0066 DBE0     		b	.L14
 191              	.L9:
 192              	.LBB2:
  79:C:/Users/dtjld/Desktop/AIoT_software/LiteOS_Lab_overseas/LiteOS_Lab/iot_link/network/lwm2m/wakaama_lwm2m/core\data.c **** 
  80:C:/Users/dtjld/Desktop/AIoT_software/LiteOS_Lab_overseas/LiteOS_Lab/iot_link/network/lwm2m/wakaama_lwm2m/core\data.c ****     case LWM2M_TYPE_INTEGER:
  81:C:/Users/dtjld/Desktop/AIoT_software/LiteOS_Lab_overseas/LiteOS_Lab/iot_link/network/lwm2m/wakaama_lwm2m/core\data.c ****     {
  82:C:/Users/dtjld/Desktop/AIoT_software/LiteOS_Lab_overseas/LiteOS_Lab/iot_link/network/lwm2m/wakaama_lwm2m/core\data.c ****         uint8_t intString[_PRV_STR_LENGTH];
  83:C:/Users/dtjld/Desktop/AIoT_software/LiteOS_Lab_overseas/LiteOS_Lab/iot_link/network/lwm2m/wakaama_lwm2m/core\data.c **** 
  84:C:/Users/dtjld/Desktop/AIoT_software/LiteOS_Lab_overseas/LiteOS_Lab/iot_link/network/lwm2m/wakaama_lwm2m/core\data.c ****         res = utils_intToText(dataP->value.asInteger, intString, _PRV_STR_LENGTH);
 193              		.loc 2 84 0
 194 0068 7B68     		ldr	r3, [r7, #4]
 195 006a D3E90201 		ldrd	r0, [r3, #8]
 196 006e 07F10802 		add	r2, r7, #8
 197 0072 2023     		movs	r3, #32
 198 0074 FFF7FEFF 		bl	utils_intToText
 199 0078 B865     		str	r0, [r7, #88]
  85:C:/Users/dtjld/Desktop/AIoT_software/LiteOS_Lab_overseas/LiteOS_Lab/iot_link/network/lwm2m/wakaama_lwm2m/core\data.c ****         if (res == 0) return -1;
 200              		.loc 2 85 0
 201 007a BB6D     		ldr	r3, [r7, #88]
 202 007c 002B     		cmp	r3, #0
 203 007e 02D1     		bne	.L15
 204              		.loc 2 85 0 is_stmt 0 discriminator 1
 205 0080 4FF0FF33 		mov	r3, #-1
 206 0084 CCE0     		b	.L14
 207              	.L15:
  86:C:/Users/dtjld/Desktop/AIoT_software/LiteOS_Lab_overseas/LiteOS_Lab/iot_link/network/lwm2m/wakaama_lwm2m/core\data.c **** 
  87:C:/Users/dtjld/Desktop/AIoT_software/LiteOS_Lab_overseas/LiteOS_Lab/iot_link/network/lwm2m/wakaama_lwm2m/core\data.c ****         *bufferP = (uint8_t *)lwm2m_malloc(res);
 208              		.loc 2 87 0 is_stmt 1
 209 0086 B86D     		ldr	r0, [r7, #88]
 210 0088 FFF7FEFF 		bl	lwm2m_malloc
 211 008c 0246     		mov	r2, r0
 212 008e 3B68     		ldr	r3, [r7]
 213 0090 1A60     		str	r2, [r3]
  88:C:/Users/dtjld/Desktop/AIoT_software/LiteOS_Lab_overseas/LiteOS_Lab/iot_link/network/lwm2m/wakaama_lwm2m/core\data.c ****         if (NULL == *bufferP) return -1;
 214              		.loc 2 88 0
 215 0092 3B68     		ldr	r3, [r7]
 216 0094 1B68     		ldr	r3, [r3]
ARM GAS  C:\Users\dtjld\AppData\Local\Temp\ccLN8Itk.s 			page 13


 217 0096 002B     		cmp	r3, #0
 218 0098 02D1     		bne	.L17
 219              		.loc 2 88 0 is_stmt 0 discriminator 1
 220 009a 4FF0FF33 		mov	r3, #-1
 221 009e BFE0     		b	.L14
 222              	.L17:
  89:C:/Users/dtjld/Desktop/AIoT_software/LiteOS_Lab_overseas/LiteOS_Lab/iot_link/network/lwm2m/wakaama_lwm2m/core\data.c **** 
  90:C:/Users/dtjld/Desktop/AIoT_software/LiteOS_Lab_overseas/LiteOS_Lab/iot_link/network/lwm2m/wakaama_lwm2m/core\data.c ****         memcpy(*bufferP, intString, res);
 223              		.loc 2 90 0 is_stmt 1
 224 00a0 3B68     		ldr	r3, [r7]
 225 00a2 1B68     		ldr	r3, [r3]
 226 00a4 07F10801 		add	r1, r7, #8
 227 00a8 BA6D     		ldr	r2, [r7, #88]
 228 00aa 1846     		mov	r0, r3
 229 00ac FFF7FEFF 		bl	memcpy
  91:C:/Users/dtjld/Desktop/AIoT_software/LiteOS_Lab_overseas/LiteOS_Lab/iot_link/network/lwm2m/wakaama_lwm2m/core\data.c **** 
  92:C:/Users/dtjld/Desktop/AIoT_software/LiteOS_Lab_overseas/LiteOS_Lab/iot_link/network/lwm2m/wakaama_lwm2m/core\data.c ****         return (int)res;
 230              		.loc 2 92 0
 231 00b0 BB6D     		ldr	r3, [r7, #88]
 232 00b2 B5E0     		b	.L14
 233              	.L10:
 234              	.LBE2:
 235              	.LBB3:
  93:C:/Users/dtjld/Desktop/AIoT_software/LiteOS_Lab_overseas/LiteOS_Lab/iot_link/network/lwm2m/wakaama_lwm2m/core\data.c ****     }
  94:C:/Users/dtjld/Desktop/AIoT_software/LiteOS_Lab_overseas/LiteOS_Lab/iot_link/network/lwm2m/wakaama_lwm2m/core\data.c **** 
  95:C:/Users/dtjld/Desktop/AIoT_software/LiteOS_Lab_overseas/LiteOS_Lab/iot_link/network/lwm2m/wakaama_lwm2m/core\data.c ****     case LWM2M_TYPE_FLOAT:
  96:C:/Users/dtjld/Desktop/AIoT_software/LiteOS_Lab_overseas/LiteOS_Lab/iot_link/network/lwm2m/wakaama_lwm2m/core\data.c ****     {
  97:C:/Users/dtjld/Desktop/AIoT_software/LiteOS_Lab_overseas/LiteOS_Lab/iot_link/network/lwm2m/wakaama_lwm2m/core\data.c ****         uint8_t floatString[_PRV_STR_LENGTH * 2];
  98:C:/Users/dtjld/Desktop/AIoT_software/LiteOS_Lab_overseas/LiteOS_Lab/iot_link/network/lwm2m/wakaama_lwm2m/core\data.c **** 
  99:C:/Users/dtjld/Desktop/AIoT_software/LiteOS_Lab_overseas/LiteOS_Lab/iot_link/network/lwm2m/wakaama_lwm2m/core\data.c ****         res = utils_floatToText(dataP->value.asFloat, floatString, _PRV_STR_LENGTH * 2);
 236              		.loc 2 99 0
 237 00b4 7B68     		ldr	r3, [r7, #4]
 238 00b6 93ED027B 		vldr.64	d7, [r3, #8]
 239 00ba 07F10803 		add	r3, r7, #8
 240 00be 4021     		movs	r1, #64
 241 00c0 1846     		mov	r0, r3
 242 00c2 B0EE470A 		vmov.f32	s0, s14
 243 00c6 F0EE670A 		vmov.f32	s1, s15
 244 00ca FFF7FEFF 		bl	utils_floatToText
 245 00ce B865     		str	r0, [r7, #88]
 100:C:/Users/dtjld/Desktop/AIoT_software/LiteOS_Lab_overseas/LiteOS_Lab/iot_link/network/lwm2m/wakaama_lwm2m/core\data.c ****         if (res == 0) return -1;
 246              		.loc 2 100 0
 247 00d0 BB6D     		ldr	r3, [r7, #88]
 248 00d2 002B     		cmp	r3, #0
 249 00d4 02D1     		bne	.L18
 250              		.loc 2 100 0 is_stmt 0 discriminator 1
 251 00d6 4FF0FF33 		mov	r3, #-1
 252 00da A1E0     		b	.L14
 253              	.L18:
 101:C:/Users/dtjld/Desktop/AIoT_software/LiteOS_Lab_overseas/LiteOS_Lab/iot_link/network/lwm2m/wakaama_lwm2m/core\data.c **** 
 102:C:/Users/dtjld/Desktop/AIoT_software/LiteOS_Lab_overseas/LiteOS_Lab/iot_link/network/lwm2m/wakaama_lwm2m/core\data.c ****         *bufferP = (uint8_t *)lwm2m_malloc(res);
 254              		.loc 2 102 0 is_stmt 1
 255 00dc B86D     		ldr	r0, [r7, #88]
 256 00de FFF7FEFF 		bl	lwm2m_malloc
 257 00e2 0246     		mov	r2, r0
 258 00e4 3B68     		ldr	r3, [r7]
 259 00e6 1A60     		str	r2, [r3]
ARM GAS  C:\Users\dtjld\AppData\Local\Temp\ccLN8Itk.s 			page 14


 103:C:/Users/dtjld/Desktop/AIoT_software/LiteOS_Lab_overseas/LiteOS_Lab/iot_link/network/lwm2m/wakaama_lwm2m/core\data.c ****         if (NULL == *bufferP) return -1;
 260              		.loc 2 103 0
 261 00e8 3B68     		ldr	r3, [r7]
 262 00ea 1B68     		ldr	r3, [r3]
 263 00ec 002B     		cmp	r3, #0
 264 00ee 02D1     		bne	.L20
 265              		.loc 2 103 0 is_stmt 0 discriminator 1
 266 00f0 4FF0FF33 		mov	r3, #-1
 267 00f4 94E0     		b	.L14
 268              	.L20:
 104:C:/Users/dtjld/Desktop/AIoT_software/LiteOS_Lab_overseas/LiteOS_Lab/iot_link/network/lwm2m/wakaama_lwm2m/core\data.c **** 
 105:C:/Users/dtjld/Desktop/AIoT_software/LiteOS_Lab_overseas/LiteOS_Lab/iot_link/network/lwm2m/wakaama_lwm2m/core\data.c ****         memcpy(*bufferP, floatString, res);
 269              		.loc 2 105 0 is_stmt 1
 270 00f6 3B68     		ldr	r3, [r7]
 271 00f8 1B68     		ldr	r3, [r3]
 272 00fa 07F10801 		add	r1, r7, #8
 273 00fe BA6D     		ldr	r2, [r7, #88]
 274 0100 1846     		mov	r0, r3
 275 0102 FFF7FEFF 		bl	memcpy
 106:C:/Users/dtjld/Desktop/AIoT_software/LiteOS_Lab_overseas/LiteOS_Lab/iot_link/network/lwm2m/wakaama_lwm2m/core\data.c **** 
 107:C:/Users/dtjld/Desktop/AIoT_software/LiteOS_Lab_overseas/LiteOS_Lab/iot_link/network/lwm2m/wakaama_lwm2m/core\data.c ****         return (int)res;
 276              		.loc 2 107 0
 277 0106 BB6D     		ldr	r3, [r7, #88]
 278 0108 8AE0     		b	.L14
 279              	.L11:
 280              	.LBE3:
 108:C:/Users/dtjld/Desktop/AIoT_software/LiteOS_Lab_overseas/LiteOS_Lab/iot_link/network/lwm2m/wakaama_lwm2m/core\data.c ****     }
 109:C:/Users/dtjld/Desktop/AIoT_software/LiteOS_Lab_overseas/LiteOS_Lab/iot_link/network/lwm2m/wakaama_lwm2m/core\data.c **** 
 110:C:/Users/dtjld/Desktop/AIoT_software/LiteOS_Lab_overseas/LiteOS_Lab/iot_link/network/lwm2m/wakaama_lwm2m/core\data.c ****     case LWM2M_TYPE_BOOLEAN:
 111:C:/Users/dtjld/Desktop/AIoT_software/LiteOS_Lab_overseas/LiteOS_Lab/iot_link/network/lwm2m/wakaama_lwm2m/core\data.c ****         *bufferP = (uint8_t *)lwm2m_malloc(1);
 281              		.loc 2 111 0
 282 010a 0120     		movs	r0, #1
 283 010c FFF7FEFF 		bl	lwm2m_malloc
 284 0110 0246     		mov	r2, r0
 285 0112 3B68     		ldr	r3, [r7]
 286 0114 1A60     		str	r2, [r3]
 112:C:/Users/dtjld/Desktop/AIoT_software/LiteOS_Lab_overseas/LiteOS_Lab/iot_link/network/lwm2m/wakaama_lwm2m/core\data.c ****         if (NULL == *bufferP) return -1;
 287              		.loc 2 112 0
 288 0116 3B68     		ldr	r3, [r7]
 289 0118 1B68     		ldr	r3, [r3]
 290 011a 002B     		cmp	r3, #0
 291 011c 02D1     		bne	.L21
 292              		.loc 2 112 0 is_stmt 0 discriminator 1
 293 011e 4FF0FF33 		mov	r3, #-1
 294 0122 7DE0     		b	.L14
 295              	.L21:
 113:C:/Users/dtjld/Desktop/AIoT_software/LiteOS_Lab_overseas/LiteOS_Lab/iot_link/network/lwm2m/wakaama_lwm2m/core\data.c **** 
 114:C:/Users/dtjld/Desktop/AIoT_software/LiteOS_Lab_overseas/LiteOS_Lab/iot_link/network/lwm2m/wakaama_lwm2m/core\data.c ****         *bufferP[0] = dataP->value.asBoolean ? '1' : '0';
 296              		.loc 2 114 0 is_stmt 1
 297 0124 7B68     		ldr	r3, [r7, #4]
 298 0126 1B7A     		ldrb	r3, [r3, #8]	@ zero_extendqisi2
 299 0128 002B     		cmp	r3, #0
 300 012a 01D0     		beq	.L22
 301              		.loc 2 114 0 is_stmt 0 discriminator 1
 302 012c 3122     		movs	r2, #49
 303 012e 00E0     		b	.L23
 304              	.L22:
ARM GAS  C:\Users\dtjld\AppData\Local\Temp\ccLN8Itk.s 			page 15


 305              		.loc 2 114 0 discriminator 2
 306 0130 3022     		movs	r2, #48
 307              	.L23:
 308              		.loc 2 114 0 discriminator 4
 309 0132 3B68     		ldr	r3, [r7]
 310 0134 1B68     		ldr	r3, [r3]
 311 0136 1A70     		strb	r2, [r3]
 115:C:/Users/dtjld/Desktop/AIoT_software/LiteOS_Lab_overseas/LiteOS_Lab/iot_link/network/lwm2m/wakaama_lwm2m/core\data.c **** 
 116:C:/Users/dtjld/Desktop/AIoT_software/LiteOS_Lab_overseas/LiteOS_Lab/iot_link/network/lwm2m/wakaama_lwm2m/core\data.c ****         return 1;
 312              		.loc 2 116 0 is_stmt 1 discriminator 4
 313 0138 0123     		movs	r3, #1
 314 013a 71E0     		b	.L14
 315              	.L12:
 316              	.LBB4:
 117:C:/Users/dtjld/Desktop/AIoT_software/LiteOS_Lab_overseas/LiteOS_Lab/iot_link/network/lwm2m/wakaama_lwm2m/core\data.c **** 
 118:C:/Users/dtjld/Desktop/AIoT_software/LiteOS_Lab_overseas/LiteOS_Lab/iot_link/network/lwm2m/wakaama_lwm2m/core\data.c ****     case LWM2M_TYPE_OBJECT_LINK:
 119:C:/Users/dtjld/Desktop/AIoT_software/LiteOS_Lab_overseas/LiteOS_Lab/iot_link/network/lwm2m/wakaama_lwm2m/core\data.c ****     {
 120:C:/Users/dtjld/Desktop/AIoT_software/LiteOS_Lab_overseas/LiteOS_Lab/iot_link/network/lwm2m/wakaama_lwm2m/core\data.c ****         char stringBuffer[11];
 121:C:/Users/dtjld/Desktop/AIoT_software/LiteOS_Lab_overseas/LiteOS_Lab/iot_link/network/lwm2m/wakaama_lwm2m/core\data.c ****         size_t length;
 122:C:/Users/dtjld/Desktop/AIoT_software/LiteOS_Lab_overseas/LiteOS_Lab/iot_link/network/lwm2m/wakaama_lwm2m/core\data.c **** 
 123:C:/Users/dtjld/Desktop/AIoT_software/LiteOS_Lab_overseas/LiteOS_Lab/iot_link/network/lwm2m/wakaama_lwm2m/core\data.c ****         length = utils_intToText(dataP->value.asObjLink.objectId, (uint8_t *)stringBuffer, 5);
 317              		.loc 2 123 0
 318 013c 7B68     		ldr	r3, [r7, #4]
 319 013e 1B89     		ldrh	r3, [r3, #8]
 320 0140 98B2     		uxth	r0, r3
 321 0142 4FF00001 		mov	r1, #0
 322 0146 07F14802 		add	r2, r7, #72
 323 014a 0523     		movs	r3, #5
 324 014c FFF7FEFF 		bl	utils_intToText
 325 0150 F865     		str	r0, [r7, #92]
 124:C:/Users/dtjld/Desktop/AIoT_software/LiteOS_Lab_overseas/LiteOS_Lab/iot_link/network/lwm2m/wakaama_lwm2m/core\data.c ****         if (length == 0) return -1;
 326              		.loc 2 124 0
 327 0152 FB6D     		ldr	r3, [r7, #92]
 328 0154 002B     		cmp	r3, #0
 329 0156 02D1     		bne	.L24
 330              		.loc 2 124 0 is_stmt 0 discriminator 1
 331 0158 4FF0FF33 		mov	r3, #-1
 332 015c 60E0     		b	.L14
 333              	.L24:
 125:C:/Users/dtjld/Desktop/AIoT_software/LiteOS_Lab_overseas/LiteOS_Lab/iot_link/network/lwm2m/wakaama_lwm2m/core\data.c **** 
 126:C:/Users/dtjld/Desktop/AIoT_software/LiteOS_Lab_overseas/LiteOS_Lab/iot_link/network/lwm2m/wakaama_lwm2m/core\data.c ****         stringBuffer[5] = ':';
 334              		.loc 2 126 0 is_stmt 1
 335 015e 3A23     		movs	r3, #58
 336 0160 87F84D30 		strb	r3, [r7, #77]
 127:C:/Users/dtjld/Desktop/AIoT_software/LiteOS_Lab_overseas/LiteOS_Lab/iot_link/network/lwm2m/wakaama_lwm2m/core\data.c ****         res = length + 1;
 337              		.loc 2 127 0
 338 0164 FB6D     		ldr	r3, [r7, #92]
 339 0166 0133     		adds	r3, r3, #1
 340 0168 BB65     		str	r3, [r7, #88]
 128:C:/Users/dtjld/Desktop/AIoT_software/LiteOS_Lab_overseas/LiteOS_Lab/iot_link/network/lwm2m/wakaama_lwm2m/core\data.c **** 
 129:C:/Users/dtjld/Desktop/AIoT_software/LiteOS_Lab_overseas/LiteOS_Lab/iot_link/network/lwm2m/wakaama_lwm2m/core\data.c ****         length = utils_intToText(dataP->value.asObjLink.objectInstanceId, (uint8_t *)stringBuffer +
 341              		.loc 2 129 0
 342 016a 7B68     		ldr	r3, [r7, #4]
 343 016c 5B89     		ldrh	r3, [r3, #10]
 344 016e 98B2     		uxth	r0, r3
 345 0170 4FF00001 		mov	r1, #0
 346 0174 07F14802 		add	r2, r7, #72
ARM GAS  C:\Users\dtjld\AppData\Local\Temp\ccLN8Itk.s 			page 16


 347 0178 BB6D     		ldr	r3, [r7, #88]
 348 017a 1A44     		add	r2, r2, r3
 349 017c 0523     		movs	r3, #5
 350 017e FFF7FEFF 		bl	utils_intToText
 351 0182 F865     		str	r0, [r7, #92]
 130:C:/Users/dtjld/Desktop/AIoT_software/LiteOS_Lab_overseas/LiteOS_Lab/iot_link/network/lwm2m/wakaama_lwm2m/core\data.c ****         if (length == 0) return -1;
 352              		.loc 2 130 0
 353 0184 FB6D     		ldr	r3, [r7, #92]
 354 0186 002B     		cmp	r3, #0
 355 0188 02D1     		bne	.L26
 356              		.loc 2 130 0 is_stmt 0 discriminator 1
 357 018a 4FF0FF33 		mov	r3, #-1
 358 018e 47E0     		b	.L14
 359              	.L26:
 131:C:/Users/dtjld/Desktop/AIoT_software/LiteOS_Lab_overseas/LiteOS_Lab/iot_link/network/lwm2m/wakaama_lwm2m/core\data.c **** 
 132:C:/Users/dtjld/Desktop/AIoT_software/LiteOS_Lab_overseas/LiteOS_Lab/iot_link/network/lwm2m/wakaama_lwm2m/core\data.c ****         res += length;
 360              		.loc 2 132 0 is_stmt 1
 361 0190 BA6D     		ldr	r2, [r7, #88]
 362 0192 FB6D     		ldr	r3, [r7, #92]
 363 0194 1344     		add	r3, r3, r2
 364 0196 BB65     		str	r3, [r7, #88]
 133:C:/Users/dtjld/Desktop/AIoT_software/LiteOS_Lab_overseas/LiteOS_Lab/iot_link/network/lwm2m/wakaama_lwm2m/core\data.c **** 
 134:C:/Users/dtjld/Desktop/AIoT_software/LiteOS_Lab_overseas/LiteOS_Lab/iot_link/network/lwm2m/wakaama_lwm2m/core\data.c ****         *bufferP = (uint8_t *)lwm2m_malloc(res);
 365              		.loc 2 134 0
 366 0198 B86D     		ldr	r0, [r7, #88]
 367 019a FFF7FEFF 		bl	lwm2m_malloc
 368 019e 0246     		mov	r2, r0
 369 01a0 3B68     		ldr	r3, [r7]
 370 01a2 1A60     		str	r2, [r3]
 135:C:/Users/dtjld/Desktop/AIoT_software/LiteOS_Lab_overseas/LiteOS_Lab/iot_link/network/lwm2m/wakaama_lwm2m/core\data.c ****         if (*bufferP == NULL) return -1;
 371              		.loc 2 135 0
 372 01a4 3B68     		ldr	r3, [r7]
 373 01a6 1B68     		ldr	r3, [r3]
 374 01a8 002B     		cmp	r3, #0
 375 01aa 02D1     		bne	.L27
 376              		.loc 2 135 0 is_stmt 0 discriminator 1
 377 01ac 4FF0FF33 		mov	r3, #-1
 378 01b0 36E0     		b	.L14
 379              	.L27:
 136:C:/Users/dtjld/Desktop/AIoT_software/LiteOS_Lab_overseas/LiteOS_Lab/iot_link/network/lwm2m/wakaama_lwm2m/core\data.c **** 
 137:C:/Users/dtjld/Desktop/AIoT_software/LiteOS_Lab_overseas/LiteOS_Lab/iot_link/network/lwm2m/wakaama_lwm2m/core\data.c ****         memcpy(*bufferP, stringBuffer, res);
 380              		.loc 2 137 0 is_stmt 1
 381 01b2 3B68     		ldr	r3, [r7]
 382 01b4 1B68     		ldr	r3, [r3]
 383 01b6 07F14801 		add	r1, r7, #72
 384 01ba BA6D     		ldr	r2, [r7, #88]
 385 01bc 1846     		mov	r0, r3
 386 01be FFF7FEFF 		bl	memcpy
 138:C:/Users/dtjld/Desktop/AIoT_software/LiteOS_Lab_overseas/LiteOS_Lab/iot_link/network/lwm2m/wakaama_lwm2m/core\data.c **** 
 139:C:/Users/dtjld/Desktop/AIoT_software/LiteOS_Lab_overseas/LiteOS_Lab/iot_link/network/lwm2m/wakaama_lwm2m/core\data.c ****         return res;
 387              		.loc 2 139 0
 388 01c2 BB6D     		ldr	r3, [r7, #88]
 389 01c4 2CE0     		b	.L14
 390              	.L8:
 391              	.LBE4:
 392              	.LBB5:
 140:C:/Users/dtjld/Desktop/AIoT_software/LiteOS_Lab_overseas/LiteOS_Lab/iot_link/network/lwm2m/wakaama_lwm2m/core\data.c ****     }
ARM GAS  C:\Users\dtjld\AppData\Local\Temp\ccLN8Itk.s 			page 17


 141:C:/Users/dtjld/Desktop/AIoT_software/LiteOS_Lab_overseas/LiteOS_Lab/iot_link/network/lwm2m/wakaama_lwm2m/core\data.c **** 
 142:C:/Users/dtjld/Desktop/AIoT_software/LiteOS_Lab_overseas/LiteOS_Lab/iot_link/network/lwm2m/wakaama_lwm2m/core\data.c ****     case LWM2M_TYPE_OPAQUE:
 143:C:/Users/dtjld/Desktop/AIoT_software/LiteOS_Lab_overseas/LiteOS_Lab/iot_link/network/lwm2m/wakaama_lwm2m/core\data.c ****     {
 144:C:/Users/dtjld/Desktop/AIoT_software/LiteOS_Lab_overseas/LiteOS_Lab/iot_link/network/lwm2m/wakaama_lwm2m/core\data.c ****         size_t length;
 145:C:/Users/dtjld/Desktop/AIoT_software/LiteOS_Lab_overseas/LiteOS_Lab/iot_link/network/lwm2m/wakaama_lwm2m/core\data.c **** 
 146:C:/Users/dtjld/Desktop/AIoT_software/LiteOS_Lab_overseas/LiteOS_Lab/iot_link/network/lwm2m/wakaama_lwm2m/core\data.c ****         length = utils_base64GetSize(dataP->value.asBuffer.length);
 393              		.loc 2 146 0
 394 01c6 7B68     		ldr	r3, [r7, #4]
 395 01c8 9B68     		ldr	r3, [r3, #8]
 396 01ca 1846     		mov	r0, r3
 397 01cc FFF7FEFF 		bl	utils_base64GetSize
 398 01d0 7865     		str	r0, [r7, #84]
 147:C:/Users/dtjld/Desktop/AIoT_software/LiteOS_Lab_overseas/LiteOS_Lab/iot_link/network/lwm2m/wakaama_lwm2m/core\data.c ****         *bufferP = (uint8_t *)lwm2m_malloc(length);
 399              		.loc 2 147 0
 400 01d2 786D     		ldr	r0, [r7, #84]
 401 01d4 FFF7FEFF 		bl	lwm2m_malloc
 402 01d8 0246     		mov	r2, r0
 403 01da 3B68     		ldr	r3, [r7]
 404 01dc 1A60     		str	r2, [r3]
 148:C:/Users/dtjld/Desktop/AIoT_software/LiteOS_Lab_overseas/LiteOS_Lab/iot_link/network/lwm2m/wakaama_lwm2m/core\data.c ****         if (*bufferP == NULL) return 0;
 405              		.loc 2 148 0
 406 01de 3B68     		ldr	r3, [r7]
 407 01e0 1B68     		ldr	r3, [r3]
 408 01e2 002B     		cmp	r3, #0
 409 01e4 01D1     		bne	.L28
 410              		.loc 2 148 0 is_stmt 0 discriminator 1
 411 01e6 0023     		movs	r3, #0
 412 01e8 1AE0     		b	.L14
 413              	.L28:
 149:C:/Users/dtjld/Desktop/AIoT_software/LiteOS_Lab_overseas/LiteOS_Lab/iot_link/network/lwm2m/wakaama_lwm2m/core\data.c ****         length = utils_base64Encode(dataP->value.asBuffer.buffer, dataP->value.asBuffer.length, *bu
 414              		.loc 2 149 0 is_stmt 1
 415 01ea 7B68     		ldr	r3, [r7, #4]
 416 01ec D868     		ldr	r0, [r3, #12]
 417 01ee 7B68     		ldr	r3, [r7, #4]
 418 01f0 9968     		ldr	r1, [r3, #8]
 419 01f2 3B68     		ldr	r3, [r7]
 420 01f4 1A68     		ldr	r2, [r3]
 421 01f6 7B6D     		ldr	r3, [r7, #84]
 422 01f8 FFF7FEFF 		bl	utils_base64Encode
 423 01fc 7865     		str	r0, [r7, #84]
 150:C:/Users/dtjld/Desktop/AIoT_software/LiteOS_Lab_overseas/LiteOS_Lab/iot_link/network/lwm2m/wakaama_lwm2m/core\data.c ****         if (length == 0)
 424              		.loc 2 150 0
 425 01fe 7B6D     		ldr	r3, [r7, #84]
 426 0200 002B     		cmp	r3, #0
 427 0202 09D1     		bne	.L29
 151:C:/Users/dtjld/Desktop/AIoT_software/LiteOS_Lab_overseas/LiteOS_Lab/iot_link/network/lwm2m/wakaama_lwm2m/core\data.c ****         {
 152:C:/Users/dtjld/Desktop/AIoT_software/LiteOS_Lab_overseas/LiteOS_Lab/iot_link/network/lwm2m/wakaama_lwm2m/core\data.c ****             lwm2m_free(*bufferP);
 428              		.loc 2 152 0
 429 0204 3B68     		ldr	r3, [r7]
 430 0206 1B68     		ldr	r3, [r3]
 431 0208 1846     		mov	r0, r3
 432 020a FFF7FEFF 		bl	lwm2m_free
 153:C:/Users/dtjld/Desktop/AIoT_software/LiteOS_Lab_overseas/LiteOS_Lab/iot_link/network/lwm2m/wakaama_lwm2m/core\data.c ****             *bufferP = NULL;
 433              		.loc 2 153 0
 434 020e 3B68     		ldr	r3, [r7]
 435 0210 0022     		movs	r2, #0
 436 0212 1A60     		str	r2, [r3]
ARM GAS  C:\Users\dtjld\AppData\Local\Temp\ccLN8Itk.s 			page 18


 154:C:/Users/dtjld/Desktop/AIoT_software/LiteOS_Lab_overseas/LiteOS_Lab/iot_link/network/lwm2m/wakaama_lwm2m/core\data.c ****             return 0;
 437              		.loc 2 154 0
 438 0214 0023     		movs	r3, #0
 439 0216 03E0     		b	.L14
 440              	.L29:
 155:C:/Users/dtjld/Desktop/AIoT_software/LiteOS_Lab_overseas/LiteOS_Lab/iot_link/network/lwm2m/wakaama_lwm2m/core\data.c ****         }
 156:C:/Users/dtjld/Desktop/AIoT_software/LiteOS_Lab_overseas/LiteOS_Lab/iot_link/network/lwm2m/wakaama_lwm2m/core\data.c ****         return (int)length;
 441              		.loc 2 156 0
 442 0218 7B6D     		ldr	r3, [r7, #84]
 443 021a 01E0     		b	.L14
 444              	.L5:
 445              	.LBE5:
 157:C:/Users/dtjld/Desktop/AIoT_software/LiteOS_Lab_overseas/LiteOS_Lab/iot_link/network/lwm2m/wakaama_lwm2m/core\data.c ****     }
 158:C:/Users/dtjld/Desktop/AIoT_software/LiteOS_Lab_overseas/LiteOS_Lab/iot_link/network/lwm2m/wakaama_lwm2m/core\data.c **** 
 159:C:/Users/dtjld/Desktop/AIoT_software/LiteOS_Lab_overseas/LiteOS_Lab/iot_link/network/lwm2m/wakaama_lwm2m/core\data.c ****     case LWM2M_TYPE_UNDEFINED:
 160:C:/Users/dtjld/Desktop/AIoT_software/LiteOS_Lab_overseas/LiteOS_Lab/iot_link/network/lwm2m/wakaama_lwm2m/core\data.c ****     default:
 161:C:/Users/dtjld/Desktop/AIoT_software/LiteOS_Lab_overseas/LiteOS_Lab/iot_link/network/lwm2m/wakaama_lwm2m/core\data.c ****         return -1;
 446              		.loc 2 161 0
 447 021c 4FF0FF33 		mov	r3, #-1
 448              	.L14:
 162:C:/Users/dtjld/Desktop/AIoT_software/LiteOS_Lab_overseas/LiteOS_Lab/iot_link/network/lwm2m/wakaama_lwm2m/core\data.c ****     }
 163:C:/Users/dtjld/Desktop/AIoT_software/LiteOS_Lab_overseas/LiteOS_Lab/iot_link/network/lwm2m/wakaama_lwm2m/core\data.c **** }
 449              		.loc 2 163 0 discriminator 1
 450 0220 1846     		mov	r0, r3
 451 0222 6037     		adds	r7, r7, #96
 452              	.LCFI14:
 453              		.cfi_def_cfa_offset 8
 454 0224 BD46     		mov	sp, r7
 455              	.LCFI15:
 456              		.cfi_def_cfa_register 13
 457              		@ sp needed
 458 0226 80BD     		pop	{r7, pc}
 459              		.cfi_endproc
 460              	.LFE5:
 462              		.section	.text.prv_setBuffer,"ax",%progbits
 463              		.align	1
 464              		.syntax unified
 465              		.thumb
 466              		.thumb_func
 467              		.fpu fpv4-sp-d16
 469              	prv_setBuffer:
 470              	.LFB6:
 164:C:/Users/dtjld/Desktop/AIoT_software/LiteOS_Lab_overseas/LiteOS_Lab/iot_link/network/lwm2m/wakaama_lwm2m/core\data.c **** 
 165:C:/Users/dtjld/Desktop/AIoT_software/LiteOS_Lab_overseas/LiteOS_Lab/iot_link/network/lwm2m/wakaama_lwm2m/core\data.c **** static int prv_setBuffer(lwm2m_data_t *dataP,
 166:C:/Users/dtjld/Desktop/AIoT_software/LiteOS_Lab_overseas/LiteOS_Lab/iot_link/network/lwm2m/wakaama_lwm2m/core\data.c ****                          uint8_t *buffer,
 167:C:/Users/dtjld/Desktop/AIoT_software/LiteOS_Lab_overseas/LiteOS_Lab/iot_link/network/lwm2m/wakaama_lwm2m/core\data.c ****                          size_t bufferLen)
 168:C:/Users/dtjld/Desktop/AIoT_software/LiteOS_Lab_overseas/LiteOS_Lab/iot_link/network/lwm2m/wakaama_lwm2m/core\data.c **** {
 471              		.loc 2 168 0
 472              		.cfi_startproc
 473              		@ args = 0, pretend = 0, frame = 16
 474              		@ frame_needed = 1, uses_anonymous_args = 0
 475 0000 80B5     		push	{r7, lr}
 476              	.LCFI16:
 477              		.cfi_def_cfa_offset 8
 478              		.cfi_offset 7, -8
 479              		.cfi_offset 14, -4
 480 0002 84B0     		sub	sp, sp, #16
ARM GAS  C:\Users\dtjld\AppData\Local\Temp\ccLN8Itk.s 			page 19


 481              	.LCFI17:
 482              		.cfi_def_cfa_offset 24
 483 0004 00AF     		add	r7, sp, #0
 484              	.LCFI18:
 485              		.cfi_def_cfa_register 7
 486 0006 F860     		str	r0, [r7, #12]
 487 0008 B960     		str	r1, [r7, #8]
 488 000a 7A60     		str	r2, [r7, #4]
 169:C:/Users/dtjld/Desktop/AIoT_software/LiteOS_Lab_overseas/LiteOS_Lab/iot_link/network/lwm2m/wakaama_lwm2m/core\data.c ****     dataP->value.asBuffer.buffer = (uint8_t *)lwm2m_malloc(bufferLen);
 489              		.loc 2 169 0
 490 000c 7868     		ldr	r0, [r7, #4]
 491 000e FFF7FEFF 		bl	lwm2m_malloc
 492 0012 0246     		mov	r2, r0
 493 0014 FB68     		ldr	r3, [r7, #12]
 494 0016 DA60     		str	r2, [r3, #12]
 170:C:/Users/dtjld/Desktop/AIoT_software/LiteOS_Lab_overseas/LiteOS_Lab/iot_link/network/lwm2m/wakaama_lwm2m/core\data.c ****     if (dataP->value.asBuffer.buffer == NULL)
 495              		.loc 2 170 0
 496 0018 FB68     		ldr	r3, [r7, #12]
 497 001a DB68     		ldr	r3, [r3, #12]
 498 001c 002B     		cmp	r3, #0
 499 001e 01D1     		bne	.L31
 171:C:/Users/dtjld/Desktop/AIoT_software/LiteOS_Lab_overseas/LiteOS_Lab/iot_link/network/lwm2m/wakaama_lwm2m/core\data.c ****     {
 172:C:/Users/dtjld/Desktop/AIoT_software/LiteOS_Lab_overseas/LiteOS_Lab/iot_link/network/lwm2m/wakaama_lwm2m/core\data.c ****         return 0;
 500              		.loc 2 172 0
 501 0020 0023     		movs	r3, #0
 502 0022 0AE0     		b	.L32
 503              	.L31:
 173:C:/Users/dtjld/Desktop/AIoT_software/LiteOS_Lab_overseas/LiteOS_Lab/iot_link/network/lwm2m/wakaama_lwm2m/core\data.c ****     }
 174:C:/Users/dtjld/Desktop/AIoT_software/LiteOS_Lab_overseas/LiteOS_Lab/iot_link/network/lwm2m/wakaama_lwm2m/core\data.c ****     dataP->value.asBuffer.length = bufferLen;
 504              		.loc 2 174 0
 505 0024 FB68     		ldr	r3, [r7, #12]
 506 0026 7A68     		ldr	r2, [r7, #4]
 507 0028 9A60     		str	r2, [r3, #8]
 175:C:/Users/dtjld/Desktop/AIoT_software/LiteOS_Lab_overseas/LiteOS_Lab/iot_link/network/lwm2m/wakaama_lwm2m/core\data.c ****     memcpy(dataP->value.asBuffer.buffer, buffer, bufferLen);
 508              		.loc 2 175 0
 509 002a FB68     		ldr	r3, [r7, #12]
 510 002c DB68     		ldr	r3, [r3, #12]
 511 002e 7A68     		ldr	r2, [r7, #4]
 512 0030 B968     		ldr	r1, [r7, #8]
 513 0032 1846     		mov	r0, r3
 514 0034 FFF7FEFF 		bl	memcpy
 176:C:/Users/dtjld/Desktop/AIoT_software/LiteOS_Lab_overseas/LiteOS_Lab/iot_link/network/lwm2m/wakaama_lwm2m/core\data.c **** 
 177:C:/Users/dtjld/Desktop/AIoT_software/LiteOS_Lab_overseas/LiteOS_Lab/iot_link/network/lwm2m/wakaama_lwm2m/core\data.c ****     return 1;
 515              		.loc 2 177 0
 516 0038 0123     		movs	r3, #1
 517              	.L32:
 178:C:/Users/dtjld/Desktop/AIoT_software/LiteOS_Lab_overseas/LiteOS_Lab/iot_link/network/lwm2m/wakaama_lwm2m/core\data.c **** }
 518              		.loc 2 178 0
 519 003a 1846     		mov	r0, r3
 520 003c 1037     		adds	r7, r7, #16
 521              	.LCFI19:
 522              		.cfi_def_cfa_offset 8
 523 003e BD46     		mov	sp, r7
 524              	.LCFI20:
 525              		.cfi_def_cfa_register 13
 526              		@ sp needed
 527 0040 80BD     		pop	{r7, pc}
ARM GAS  C:\Users\dtjld\AppData\Local\Temp\ccLN8Itk.s 			page 20


 528              		.cfi_endproc
 529              	.LFE6:
 531              		.section	.rodata
 532              		.align	2
 533              	.LC0:
 534 0000 5B25645D 		.ascii	"[%d][%s:%d] size: %d\015\012\000"
 534      5B25733A 
 534      25645D20 
 534      73697A65 
 534      3A202564 
 535              		.section	.text.lwm2m_data_new,"ax",%progbits
 536              		.align	1
 537              		.global	lwm2m_data_new
 538              		.syntax unified
 539              		.thumb
 540              		.thumb_func
 541              		.fpu fpv4-sp-d16
 543              	lwm2m_data_new:
 544              	.LFB7:
 179:C:/Users/dtjld/Desktop/AIoT_software/LiteOS_Lab_overseas/LiteOS_Lab/iot_link/network/lwm2m/wakaama_lwm2m/core\data.c **** 
 180:C:/Users/dtjld/Desktop/AIoT_software/LiteOS_Lab_overseas/LiteOS_Lab/iot_link/network/lwm2m/wakaama_lwm2m/core\data.c **** lwm2m_data_t *lwm2m_data_new(int size)
 181:C:/Users/dtjld/Desktop/AIoT_software/LiteOS_Lab_overseas/LiteOS_Lab/iot_link/network/lwm2m/wakaama_lwm2m/core\data.c **** {
 545              		.loc 2 181 0
 546              		.cfi_startproc
 547              		@ args = 0, pretend = 0, frame = 16
 548              		@ frame_needed = 1, uses_anonymous_args = 0
 549 0000 90B5     		push	{r4, r7, lr}
 550              	.LCFI21:
 551              		.cfi_def_cfa_offset 12
 552              		.cfi_offset 4, -12
 553              		.cfi_offset 7, -8
 554              		.cfi_offset 14, -4
 555 0002 87B0     		sub	sp, sp, #28
 556              	.LCFI22:
 557              		.cfi_def_cfa_offset 40
 558 0004 02AF     		add	r7, sp, #8
 559              	.LCFI23:
 560              		.cfi_def_cfa 7, 32
 561 0006 7860     		str	r0, [r7, #4]
 182:C:/Users/dtjld/Desktop/AIoT_software/LiteOS_Lab_overseas/LiteOS_Lab/iot_link/network/lwm2m/wakaama_lwm2m/core\data.c ****     lwm2m_data_t *dataP;
 183:C:/Users/dtjld/Desktop/AIoT_software/LiteOS_Lab_overseas/LiteOS_Lab/iot_link/network/lwm2m/wakaama_lwm2m/core\data.c **** 
 184:C:/Users/dtjld/Desktop/AIoT_software/LiteOS_Lab_overseas/LiteOS_Lab/iot_link/network/lwm2m/wakaama_lwm2m/core\data.c ****     LOG_ARG("size: %d", size);
 562              		.loc 2 184 0
 563 0008 FFF7FEFF 		bl	lwm2m_gettime
 564 000c 0346     		mov	r3, r0
 565 000e 0C46     		mov	r4, r1
 566 0010 1946     		mov	r1, r3
 567 0012 7B68     		ldr	r3, [r7, #4]
 568 0014 0093     		str	r3, [sp]
 569 0016 B823     		movs	r3, #184
 570 0018 0E4A     		ldr	r2, .L37
 571 001a 0F48     		ldr	r0, .L37+4
 572 001c FFF7FEFF 		bl	atiny_printf
 185:C:/Users/dtjld/Desktop/AIoT_software/LiteOS_Lab_overseas/LiteOS_Lab/iot_link/network/lwm2m/wakaama_lwm2m/core\data.c ****     if (size <= 0) return NULL;
 573              		.loc 2 185 0
 574 0020 7B68     		ldr	r3, [r7, #4]
 575 0022 002B     		cmp	r3, #0
ARM GAS  C:\Users\dtjld\AppData\Local\Temp\ccLN8Itk.s 			page 21


 576 0024 01DC     		bgt	.L34
 577              		.loc 2 185 0 is_stmt 0 discriminator 1
 578 0026 0023     		movs	r3, #0
 579 0028 10E0     		b	.L35
 580              	.L34:
 186:C:/Users/dtjld/Desktop/AIoT_software/LiteOS_Lab_overseas/LiteOS_Lab/iot_link/network/lwm2m/wakaama_lwm2m/core\data.c **** 
 187:C:/Users/dtjld/Desktop/AIoT_software/LiteOS_Lab_overseas/LiteOS_Lab/iot_link/network/lwm2m/wakaama_lwm2m/core\data.c ****     dataP = (lwm2m_data_t *)lwm2m_malloc(size * sizeof(lwm2m_data_t));
 581              		.loc 2 187 0 is_stmt 1
 582 002a 7B68     		ldr	r3, [r7, #4]
 583 002c 1B01     		lsls	r3, r3, #4
 584 002e 1846     		mov	r0, r3
 585 0030 FFF7FEFF 		bl	lwm2m_malloc
 586 0034 F860     		str	r0, [r7, #12]
 188:C:/Users/dtjld/Desktop/AIoT_software/LiteOS_Lab_overseas/LiteOS_Lab/iot_link/network/lwm2m/wakaama_lwm2m/core\data.c **** 
 189:C:/Users/dtjld/Desktop/AIoT_software/LiteOS_Lab_overseas/LiteOS_Lab/iot_link/network/lwm2m/wakaama_lwm2m/core\data.c ****     if (dataP != NULL)
 587              		.loc 2 189 0
 588 0036 FB68     		ldr	r3, [r7, #12]
 589 0038 002B     		cmp	r3, #0
 590 003a 06D0     		beq	.L36
 190:C:/Users/dtjld/Desktop/AIoT_software/LiteOS_Lab_overseas/LiteOS_Lab/iot_link/network/lwm2m/wakaama_lwm2m/core\data.c ****     {
 191:C:/Users/dtjld/Desktop/AIoT_software/LiteOS_Lab_overseas/LiteOS_Lab/iot_link/network/lwm2m/wakaama_lwm2m/core\data.c ****         memset(dataP, 0, size * sizeof(lwm2m_data_t));
 591              		.loc 2 191 0
 592 003c 7B68     		ldr	r3, [r7, #4]
 593 003e 1B01     		lsls	r3, r3, #4
 594 0040 1A46     		mov	r2, r3
 595 0042 0021     		movs	r1, #0
 596 0044 F868     		ldr	r0, [r7, #12]
 597 0046 FFF7FEFF 		bl	memset
 598              	.L36:
 192:C:/Users/dtjld/Desktop/AIoT_software/LiteOS_Lab_overseas/LiteOS_Lab/iot_link/network/lwm2m/wakaama_lwm2m/core\data.c ****     }
 193:C:/Users/dtjld/Desktop/AIoT_software/LiteOS_Lab_overseas/LiteOS_Lab/iot_link/network/lwm2m/wakaama_lwm2m/core\data.c **** 
 194:C:/Users/dtjld/Desktop/AIoT_software/LiteOS_Lab_overseas/LiteOS_Lab/iot_link/network/lwm2m/wakaama_lwm2m/core\data.c ****     return dataP;
 599              		.loc 2 194 0
 600 004a FB68     		ldr	r3, [r7, #12]
 601              	.L35:
 195:C:/Users/dtjld/Desktop/AIoT_software/LiteOS_Lab_overseas/LiteOS_Lab/iot_link/network/lwm2m/wakaama_lwm2m/core\data.c **** }
 602              		.loc 2 195 0
 603 004c 1846     		mov	r0, r3
 604 004e 1437     		adds	r7, r7, #20
 605              	.LCFI24:
 606              		.cfi_def_cfa_offset 12
 607 0050 BD46     		mov	sp, r7
 608              	.LCFI25:
 609              		.cfi_def_cfa_register 13
 610              		@ sp needed
 611 0052 90BD     		pop	{r4, r7, pc}
 612              	.L38:
 613              		.align	2
 614              	.L37:
 615 0054 00000000 		.word	__func__.8534
 616 0058 00000000 		.word	.LC0
 617              		.cfi_endproc
 618              	.LFE7:
 620              		.section	.text.lwm2m_data_free,"ax",%progbits
 621              		.align	1
 622              		.global	lwm2m_data_free
 623              		.syntax unified
ARM GAS  C:\Users\dtjld\AppData\Local\Temp\ccLN8Itk.s 			page 22


 624              		.thumb
 625              		.thumb_func
 626              		.fpu fpv4-sp-d16
 628              	lwm2m_data_free:
 629              	.LFB8:
 196:C:/Users/dtjld/Desktop/AIoT_software/LiteOS_Lab_overseas/LiteOS_Lab/iot_link/network/lwm2m/wakaama_lwm2m/core\data.c **** 
 197:C:/Users/dtjld/Desktop/AIoT_software/LiteOS_Lab_overseas/LiteOS_Lab/iot_link/network/lwm2m/wakaama_lwm2m/core\data.c **** void lwm2m_data_free(int size,
 198:C:/Users/dtjld/Desktop/AIoT_software/LiteOS_Lab_overseas/LiteOS_Lab/iot_link/network/lwm2m/wakaama_lwm2m/core\data.c ****                      lwm2m_data_t *dataP)
 199:C:/Users/dtjld/Desktop/AIoT_software/LiteOS_Lab_overseas/LiteOS_Lab/iot_link/network/lwm2m/wakaama_lwm2m/core\data.c **** {
 630              		.loc 2 199 0
 631              		.cfi_startproc
 632              		@ args = 0, pretend = 0, frame = 16
 633              		@ frame_needed = 1, uses_anonymous_args = 0
 634 0000 90B5     		push	{r4, r7, lr}
 635              	.LCFI26:
 636              		.cfi_def_cfa_offset 12
 637              		.cfi_offset 4, -12
 638              		.cfi_offset 7, -8
 639              		.cfi_offset 14, -4
 640 0002 87B0     		sub	sp, sp, #28
 641              	.LCFI27:
 642              		.cfi_def_cfa_offset 40
 643 0004 02AF     		add	r7, sp, #8
 644              	.LCFI28:
 645              		.cfi_def_cfa 7, 32
 646 0006 7860     		str	r0, [r7, #4]
 647 0008 3960     		str	r1, [r7]
 200:C:/Users/dtjld/Desktop/AIoT_software/LiteOS_Lab_overseas/LiteOS_Lab/iot_link/network/lwm2m/wakaama_lwm2m/core\data.c ****     int i;
 201:C:/Users/dtjld/Desktop/AIoT_software/LiteOS_Lab_overseas/LiteOS_Lab/iot_link/network/lwm2m/wakaama_lwm2m/core\data.c **** 
 202:C:/Users/dtjld/Desktop/AIoT_software/LiteOS_Lab_overseas/LiteOS_Lab/iot_link/network/lwm2m/wakaama_lwm2m/core\data.c ****     LOG_ARG("size: %d", size);
 648              		.loc 2 202 0
 649 000a FFF7FEFF 		bl	lwm2m_gettime
 650 000e 0346     		mov	r3, r0
 651 0010 0C46     		mov	r4, r1
 652 0012 1946     		mov	r1, r3
 653 0014 7B68     		ldr	r3, [r7, #4]
 654 0016 0093     		str	r3, [sp]
 655 0018 CA23     		movs	r3, #202
 656 001a 284A     		ldr	r2, .L52
 657 001c 2848     		ldr	r0, .L52+4
 658 001e FFF7FEFF 		bl	atiny_printf
 203:C:/Users/dtjld/Desktop/AIoT_software/LiteOS_Lab_overseas/LiteOS_Lab/iot_link/network/lwm2m/wakaama_lwm2m/core\data.c ****     if (size == 0 || dataP == NULL) return;
 659              		.loc 2 203 0
 660 0022 7B68     		ldr	r3, [r7, #4]
 661 0024 002B     		cmp	r3, #0
 662 0026 45D0     		beq	.L50
 663              		.loc 2 203 0 is_stmt 0 discriminator 1
 664 0028 3B68     		ldr	r3, [r7]
 665 002a 002B     		cmp	r3, #0
 666 002c 42D0     		beq	.L50
 204:C:/Users/dtjld/Desktop/AIoT_software/LiteOS_Lab_overseas/LiteOS_Lab/iot_link/network/lwm2m/wakaama_lwm2m/core\data.c **** 
 205:C:/Users/dtjld/Desktop/AIoT_software/LiteOS_Lab_overseas/LiteOS_Lab/iot_link/network/lwm2m/wakaama_lwm2m/core\data.c ****     for (i = 0; i < size; i++)
 667              		.loc 2 205 0 is_stmt 1
 668 002e 0023     		movs	r3, #0
 669 0030 FB60     		str	r3, [r7, #12]
 670 0032 37E0     		b	.L43
 671              	.L49:
ARM GAS  C:\Users\dtjld\AppData\Local\Temp\ccLN8Itk.s 			page 23


 206:C:/Users/dtjld/Desktop/AIoT_software/LiteOS_Lab_overseas/LiteOS_Lab/iot_link/network/lwm2m/wakaama_lwm2m/core\data.c ****     {
 207:C:/Users/dtjld/Desktop/AIoT_software/LiteOS_Lab_overseas/LiteOS_Lab/iot_link/network/lwm2m/wakaama_lwm2m/core\data.c ****         switch (dataP[i].type)
 672              		.loc 2 207 0
 673 0034 FB68     		ldr	r3, [r7, #12]
 674 0036 1B01     		lsls	r3, r3, #4
 675 0038 3A68     		ldr	r2, [r7]
 676 003a 1344     		add	r3, r3, r2
 677 003c 1B78     		ldrb	r3, [r3]	@ zero_extendqisi2
 678 003e 013B     		subs	r3, r3, #1
 679 0040 042B     		cmp	r3, #4
 680 0042 2BD8     		bhi	.L51
 681 0044 01A2     		adr	r2, .L46
 682 0046 52F823F0 		ldr	pc, [r2, r3, lsl #2]
 683 004a 00BF     		.p2align 2
 684              	.L46:
 685 004c 61000000 		.word	.L45+1
 686 0050 61000000 		.word	.L45+1
 687 0054 61000000 		.word	.L45+1
 688 0058 7F000000 		.word	.L47+1
 689 005c 7F000000 		.word	.L47+1
 690              		.p2align 1
 691              	.L45:
 208:C:/Users/dtjld/Desktop/AIoT_software/LiteOS_Lab_overseas/LiteOS_Lab/iot_link/network/lwm2m/wakaama_lwm2m/core\data.c ****         {
 209:C:/Users/dtjld/Desktop/AIoT_software/LiteOS_Lab_overseas/LiteOS_Lab/iot_link/network/lwm2m/wakaama_lwm2m/core\data.c ****         case LWM2M_TYPE_MULTIPLE_RESOURCE:
 210:C:/Users/dtjld/Desktop/AIoT_software/LiteOS_Lab_overseas/LiteOS_Lab/iot_link/network/lwm2m/wakaama_lwm2m/core\data.c ****         case LWM2M_TYPE_OBJECT_INSTANCE:
 211:C:/Users/dtjld/Desktop/AIoT_software/LiteOS_Lab_overseas/LiteOS_Lab/iot_link/network/lwm2m/wakaama_lwm2m/core\data.c ****         case LWM2M_TYPE_OBJECT:
 212:C:/Users/dtjld/Desktop/AIoT_software/LiteOS_Lab_overseas/LiteOS_Lab/iot_link/network/lwm2m/wakaama_lwm2m/core\data.c ****             lwm2m_data_free(dataP[i].value.asChildren.count, dataP[i].value.asChildren.array);
 692              		.loc 2 212 0
 693 0060 FB68     		ldr	r3, [r7, #12]
 694 0062 1B01     		lsls	r3, r3, #4
 695 0064 3A68     		ldr	r2, [r7]
 696 0066 1344     		add	r3, r3, r2
 697 0068 9B68     		ldr	r3, [r3, #8]
 698 006a 1846     		mov	r0, r3
 699 006c FB68     		ldr	r3, [r7, #12]
 700 006e 1B01     		lsls	r3, r3, #4
 701 0070 3A68     		ldr	r2, [r7]
 702 0072 1344     		add	r3, r3, r2
 703 0074 DB68     		ldr	r3, [r3, #12]
 704 0076 1946     		mov	r1, r3
 705 0078 FFF7FEFF 		bl	lwm2m_data_free
 213:C:/Users/dtjld/Desktop/AIoT_software/LiteOS_Lab_overseas/LiteOS_Lab/iot_link/network/lwm2m/wakaama_lwm2m/core\data.c ****             break;
 706              		.loc 2 213 0
 707 007c 0FE0     		b	.L48
 708              	.L47:
 214:C:/Users/dtjld/Desktop/AIoT_software/LiteOS_Lab_overseas/LiteOS_Lab/iot_link/network/lwm2m/wakaama_lwm2m/core\data.c **** 
 215:C:/Users/dtjld/Desktop/AIoT_software/LiteOS_Lab_overseas/LiteOS_Lab/iot_link/network/lwm2m/wakaama_lwm2m/core\data.c ****         case LWM2M_TYPE_STRING:
 216:C:/Users/dtjld/Desktop/AIoT_software/LiteOS_Lab_overseas/LiteOS_Lab/iot_link/network/lwm2m/wakaama_lwm2m/core\data.c ****         case LWM2M_TYPE_OPAQUE:
 217:C:/Users/dtjld/Desktop/AIoT_software/LiteOS_Lab_overseas/LiteOS_Lab/iot_link/network/lwm2m/wakaama_lwm2m/core\data.c ****             if (dataP[i].value.asBuffer.buffer != NULL)
 709              		.loc 2 217 0
 710 007e FB68     		ldr	r3, [r7, #12]
 711 0080 1B01     		lsls	r3, r3, #4
 712 0082 3A68     		ldr	r2, [r7]
 713 0084 1344     		add	r3, r3, r2
 714 0086 DB68     		ldr	r3, [r3, #12]
 715 0088 002B     		cmp	r3, #0
 716 008a 07D0     		beq	.L51
ARM GAS  C:\Users\dtjld\AppData\Local\Temp\ccLN8Itk.s 			page 24


 218:C:/Users/dtjld/Desktop/AIoT_software/LiteOS_Lab_overseas/LiteOS_Lab/iot_link/network/lwm2m/wakaama_lwm2m/core\data.c ****             {
 219:C:/Users/dtjld/Desktop/AIoT_software/LiteOS_Lab_overseas/LiteOS_Lab/iot_link/network/lwm2m/wakaama_lwm2m/core\data.c ****                 lwm2m_free(dataP[i].value.asBuffer.buffer);
 717              		.loc 2 219 0
 718 008c FB68     		ldr	r3, [r7, #12]
 719 008e 1B01     		lsls	r3, r3, #4
 720 0090 3A68     		ldr	r2, [r7]
 721 0092 1344     		add	r3, r3, r2
 722 0094 DB68     		ldr	r3, [r3, #12]
 723 0096 1846     		mov	r0, r3
 724 0098 FFF7FEFF 		bl	lwm2m_free
 725              	.L51:
 220:C:/Users/dtjld/Desktop/AIoT_software/LiteOS_Lab_overseas/LiteOS_Lab/iot_link/network/lwm2m/wakaama_lwm2m/core\data.c ****             }
 221:C:/Users/dtjld/Desktop/AIoT_software/LiteOS_Lab_overseas/LiteOS_Lab/iot_link/network/lwm2m/wakaama_lwm2m/core\data.c **** 
 222:C:/Users/dtjld/Desktop/AIoT_software/LiteOS_Lab_overseas/LiteOS_Lab/iot_link/network/lwm2m/wakaama_lwm2m/core\data.c ****         default:
 223:C:/Users/dtjld/Desktop/AIoT_software/LiteOS_Lab_overseas/LiteOS_Lab/iot_link/network/lwm2m/wakaama_lwm2m/core\data.c ****             // do nothing
 224:C:/Users/dtjld/Desktop/AIoT_software/LiteOS_Lab_overseas/LiteOS_Lab/iot_link/network/lwm2m/wakaama_lwm2m/core\data.c ****             break;
 726              		.loc 2 224 0
 727 009c 00BF     		nop
 728              	.L48:
 205:C:/Users/dtjld/Desktop/AIoT_software/LiteOS_Lab_overseas/LiteOS_Lab/iot_link/network/lwm2m/wakaama_lwm2m/core\data.c ****     {
 729              		.loc 2 205 0 discriminator 2
 730 009e FB68     		ldr	r3, [r7, #12]
 731 00a0 0133     		adds	r3, r3, #1
 732 00a2 FB60     		str	r3, [r7, #12]
 733              	.L43:
 205:C:/Users/dtjld/Desktop/AIoT_software/LiteOS_Lab_overseas/LiteOS_Lab/iot_link/network/lwm2m/wakaama_lwm2m/core\data.c ****     {
 734              		.loc 2 205 0 is_stmt 0 discriminator 1
 735 00a4 FA68     		ldr	r2, [r7, #12]
 736 00a6 7B68     		ldr	r3, [r7, #4]
 737 00a8 9A42     		cmp	r2, r3
 738 00aa C3DB     		blt	.L49
 225:C:/Users/dtjld/Desktop/AIoT_software/LiteOS_Lab_overseas/LiteOS_Lab/iot_link/network/lwm2m/wakaama_lwm2m/core\data.c ****         }
 226:C:/Users/dtjld/Desktop/AIoT_software/LiteOS_Lab_overseas/LiteOS_Lab/iot_link/network/lwm2m/wakaama_lwm2m/core\data.c ****     }
 227:C:/Users/dtjld/Desktop/AIoT_software/LiteOS_Lab_overseas/LiteOS_Lab/iot_link/network/lwm2m/wakaama_lwm2m/core\data.c ****     lwm2m_free(dataP);
 739              		.loc 2 227 0 is_stmt 1
 740 00ac 3868     		ldr	r0, [r7]
 741 00ae FFF7FEFF 		bl	lwm2m_free
 742 00b2 00E0     		b	.L39
 743              	.L50:
 203:C:/Users/dtjld/Desktop/AIoT_software/LiteOS_Lab_overseas/LiteOS_Lab/iot_link/network/lwm2m/wakaama_lwm2m/core\data.c **** 
 744              		.loc 2 203 0
 745 00b4 00BF     		nop
 746              	.L39:
 228:C:/Users/dtjld/Desktop/AIoT_software/LiteOS_Lab_overseas/LiteOS_Lab/iot_link/network/lwm2m/wakaama_lwm2m/core\data.c **** }
 747              		.loc 2 228 0
 748 00b6 1437     		adds	r7, r7, #20
 749              	.LCFI29:
 750              		.cfi_def_cfa_offset 12
 751 00b8 BD46     		mov	sp, r7
 752              	.LCFI30:
 753              		.cfi_def_cfa_register 13
 754              		@ sp needed
 755 00ba 90BD     		pop	{r4, r7, pc}
 756              	.L53:
 757              		.align	2
 758              	.L52:
 759 00bc 00000000 		.word	__func__.8540
ARM GAS  C:\Users\dtjld\AppData\Local\Temp\ccLN8Itk.s 			page 25


 760 00c0 00000000 		.word	.LC0
 761              		.cfi_endproc
 762              	.LFE8:
 764              		.section	.rodata
 765 0017 00       		.align	2
 766              	.LC1:
 767 0018 5B25645D 		.ascii	"[%d][%s:%d] \"%s\"\015\012\000"
 767      5B25733A 
 767      25645D20 
 767      22257322 
 767      0D0A00
 768              		.section	.text.lwm2m_data_encode_string,"ax",%progbits
 769              		.align	1
 770              		.global	lwm2m_data_encode_string
 771              		.syntax unified
 772              		.thumb
 773              		.thumb_func
 774              		.fpu fpv4-sp-d16
 776              	lwm2m_data_encode_string:
 777              	.LFB9:
 229:C:/Users/dtjld/Desktop/AIoT_software/LiteOS_Lab_overseas/LiteOS_Lab/iot_link/network/lwm2m/wakaama_lwm2m/core\data.c **** 
 230:C:/Users/dtjld/Desktop/AIoT_software/LiteOS_Lab_overseas/LiteOS_Lab/iot_link/network/lwm2m/wakaama_lwm2m/core\data.c **** void lwm2m_data_encode_string(const char *string,
 231:C:/Users/dtjld/Desktop/AIoT_software/LiteOS_Lab_overseas/LiteOS_Lab/iot_link/network/lwm2m/wakaama_lwm2m/core\data.c ****                               lwm2m_data_t *dataP)
 232:C:/Users/dtjld/Desktop/AIoT_software/LiteOS_Lab_overseas/LiteOS_Lab/iot_link/network/lwm2m/wakaama_lwm2m/core\data.c **** {
 778              		.loc 2 232 0
 779              		.cfi_startproc
 780              		@ args = 0, pretend = 0, frame = 16
 781              		@ frame_needed = 1, uses_anonymous_args = 0
 782 0000 90B5     		push	{r4, r7, lr}
 783              	.LCFI31:
 784              		.cfi_def_cfa_offset 12
 785              		.cfi_offset 4, -12
 786              		.cfi_offset 7, -8
 787              		.cfi_offset 14, -4
 788 0002 87B0     		sub	sp, sp, #28
 789              	.LCFI32:
 790              		.cfi_def_cfa_offset 40
 791 0004 02AF     		add	r7, sp, #8
 792              	.LCFI33:
 793              		.cfi_def_cfa 7, 32
 794 0006 7860     		str	r0, [r7, #4]
 795 0008 3960     		str	r1, [r7]
 233:C:/Users/dtjld/Desktop/AIoT_software/LiteOS_Lab_overseas/LiteOS_Lab/iot_link/network/lwm2m/wakaama_lwm2m/core\data.c ****     size_t len;
 234:C:/Users/dtjld/Desktop/AIoT_software/LiteOS_Lab_overseas/LiteOS_Lab/iot_link/network/lwm2m/wakaama_lwm2m/core\data.c ****     int res;
 235:C:/Users/dtjld/Desktop/AIoT_software/LiteOS_Lab_overseas/LiteOS_Lab/iot_link/network/lwm2m/wakaama_lwm2m/core\data.c **** 
 236:C:/Users/dtjld/Desktop/AIoT_software/LiteOS_Lab_overseas/LiteOS_Lab/iot_link/network/lwm2m/wakaama_lwm2m/core\data.c ****     LOG_ARG("\"%s\"", string);
 796              		.loc 2 236 0
 797 000a FFF7FEFF 		bl	lwm2m_gettime
 798 000e 0346     		mov	r3, r0
 799 0010 0C46     		mov	r4, r1
 800 0012 1946     		mov	r1, r3
 801 0014 7B68     		ldr	r3, [r7, #4]
 802 0016 0093     		str	r3, [sp]
 803 0018 EC23     		movs	r3, #236
 804 001a 1B4A     		ldr	r2, .L64
 805 001c 1B48     		ldr	r0, .L64+4
 806 001e FFF7FEFF 		bl	atiny_printf
ARM GAS  C:\Users\dtjld\AppData\Local\Temp\ccLN8Itk.s 			page 26


 237:C:/Users/dtjld/Desktop/AIoT_software/LiteOS_Lab_overseas/LiteOS_Lab/iot_link/network/lwm2m/wakaama_lwm2m/core\data.c ****     if (string == NULL)
 807              		.loc 2 237 0
 808 0022 7B68     		ldr	r3, [r7, #4]
 809 0024 002B     		cmp	r3, #0
 810 0026 02D1     		bne	.L55
 238:C:/Users/dtjld/Desktop/AIoT_software/LiteOS_Lab_overseas/LiteOS_Lab/iot_link/network/lwm2m/wakaama_lwm2m/core\data.c ****     {
 239:C:/Users/dtjld/Desktop/AIoT_software/LiteOS_Lab_overseas/LiteOS_Lab/iot_link/network/lwm2m/wakaama_lwm2m/core\data.c ****         len = 0;
 811              		.loc 2 239 0
 812 0028 0023     		movs	r3, #0
 813 002a FB60     		str	r3, [r7, #12]
 814 002c 0BE0     		b	.L56
 815              	.L55:
 240:C:/Users/dtjld/Desktop/AIoT_software/LiteOS_Lab_overseas/LiteOS_Lab/iot_link/network/lwm2m/wakaama_lwm2m/core\data.c ****     }
 241:C:/Users/dtjld/Desktop/AIoT_software/LiteOS_Lab_overseas/LiteOS_Lab/iot_link/network/lwm2m/wakaama_lwm2m/core\data.c ****     else
 242:C:/Users/dtjld/Desktop/AIoT_software/LiteOS_Lab_overseas/LiteOS_Lab/iot_link/network/lwm2m/wakaama_lwm2m/core\data.c ****     {
 243:C:/Users/dtjld/Desktop/AIoT_software/LiteOS_Lab_overseas/LiteOS_Lab/iot_link/network/lwm2m/wakaama_lwm2m/core\data.c ****         for (len = 0; string[len] != 0; len++);
 816              		.loc 2 243 0
 817 002e 0023     		movs	r3, #0
 818 0030 FB60     		str	r3, [r7, #12]
 819 0032 02E0     		b	.L57
 820              	.L58:
 821              		.loc 2 243 0 is_stmt 0 discriminator 3
 822 0034 FB68     		ldr	r3, [r7, #12]
 823 0036 0133     		adds	r3, r3, #1
 824 0038 FB60     		str	r3, [r7, #12]
 825              	.L57:
 826              		.loc 2 243 0 discriminator 1
 827 003a 7A68     		ldr	r2, [r7, #4]
 828 003c FB68     		ldr	r3, [r7, #12]
 829 003e 1344     		add	r3, r3, r2
 830 0040 1B78     		ldrb	r3, [r3]	@ zero_extendqisi2
 831 0042 002B     		cmp	r3, #0
 832 0044 F6D1     		bne	.L58
 833              	.L56:
 244:C:/Users/dtjld/Desktop/AIoT_software/LiteOS_Lab_overseas/LiteOS_Lab/iot_link/network/lwm2m/wakaama_lwm2m/core\data.c ****     }
 245:C:/Users/dtjld/Desktop/AIoT_software/LiteOS_Lab_overseas/LiteOS_Lab/iot_link/network/lwm2m/wakaama_lwm2m/core\data.c **** 
 246:C:/Users/dtjld/Desktop/AIoT_software/LiteOS_Lab_overseas/LiteOS_Lab/iot_link/network/lwm2m/wakaama_lwm2m/core\data.c ****     if (len == 0)
 834              		.loc 2 246 0 is_stmt 1
 835 0046 FB68     		ldr	r3, [r7, #12]
 836 0048 002B     		cmp	r3, #0
 837 004a 08D1     		bne	.L59
 247:C:/Users/dtjld/Desktop/AIoT_software/LiteOS_Lab_overseas/LiteOS_Lab/iot_link/network/lwm2m/wakaama_lwm2m/core\data.c ****     {
 248:C:/Users/dtjld/Desktop/AIoT_software/LiteOS_Lab_overseas/LiteOS_Lab/iot_link/network/lwm2m/wakaama_lwm2m/core\data.c ****         dataP->value.asBuffer.length = 0;
 838              		.loc 2 248 0
 839 004c 3B68     		ldr	r3, [r7]
 840 004e 0022     		movs	r2, #0
 841 0050 9A60     		str	r2, [r3, #8]
 249:C:/Users/dtjld/Desktop/AIoT_software/LiteOS_Lab_overseas/LiteOS_Lab/iot_link/network/lwm2m/wakaama_lwm2m/core\data.c ****         dataP->value.asBuffer.buffer = NULL;
 842              		.loc 2 249 0
 843 0052 3B68     		ldr	r3, [r7]
 844 0054 0022     		movs	r2, #0
 845 0056 DA60     		str	r2, [r3, #12]
 250:C:/Users/dtjld/Desktop/AIoT_software/LiteOS_Lab_overseas/LiteOS_Lab/iot_link/network/lwm2m/wakaama_lwm2m/core\data.c ****         res = 1;
 846              		.loc 2 250 0
 847 0058 0123     		movs	r3, #1
 848 005a BB60     		str	r3, [r7, #8]
 849 005c 05E0     		b	.L60
ARM GAS  C:\Users\dtjld\AppData\Local\Temp\ccLN8Itk.s 			page 27


 850              	.L59:
 251:C:/Users/dtjld/Desktop/AIoT_software/LiteOS_Lab_overseas/LiteOS_Lab/iot_link/network/lwm2m/wakaama_lwm2m/core\data.c ****     }
 252:C:/Users/dtjld/Desktop/AIoT_software/LiteOS_Lab_overseas/LiteOS_Lab/iot_link/network/lwm2m/wakaama_lwm2m/core\data.c ****     else
 253:C:/Users/dtjld/Desktop/AIoT_software/LiteOS_Lab_overseas/LiteOS_Lab/iot_link/network/lwm2m/wakaama_lwm2m/core\data.c ****     {
 254:C:/Users/dtjld/Desktop/AIoT_software/LiteOS_Lab_overseas/LiteOS_Lab/iot_link/network/lwm2m/wakaama_lwm2m/core\data.c ****         res = prv_setBuffer(dataP, (uint8_t *)string, len);
 851              		.loc 2 254 0
 852 005e FA68     		ldr	r2, [r7, #12]
 853 0060 7968     		ldr	r1, [r7, #4]
 854 0062 3868     		ldr	r0, [r7]
 855 0064 FFF7FEFF 		bl	prv_setBuffer
 856 0068 B860     		str	r0, [r7, #8]
 857              	.L60:
 255:C:/Users/dtjld/Desktop/AIoT_software/LiteOS_Lab_overseas/LiteOS_Lab/iot_link/network/lwm2m/wakaama_lwm2m/core\data.c ****     }
 256:C:/Users/dtjld/Desktop/AIoT_software/LiteOS_Lab_overseas/LiteOS_Lab/iot_link/network/lwm2m/wakaama_lwm2m/core\data.c **** 
 257:C:/Users/dtjld/Desktop/AIoT_software/LiteOS_Lab_overseas/LiteOS_Lab/iot_link/network/lwm2m/wakaama_lwm2m/core\data.c ****     if (res == 1)
 858              		.loc 2 257 0
 859 006a BB68     		ldr	r3, [r7, #8]
 860 006c 012B     		cmp	r3, #1
 861 006e 03D1     		bne	.L61
 258:C:/Users/dtjld/Desktop/AIoT_software/LiteOS_Lab_overseas/LiteOS_Lab/iot_link/network/lwm2m/wakaama_lwm2m/core\data.c ****     {
 259:C:/Users/dtjld/Desktop/AIoT_software/LiteOS_Lab_overseas/LiteOS_Lab/iot_link/network/lwm2m/wakaama_lwm2m/core\data.c ****         dataP->type = LWM2M_TYPE_STRING;
 862              		.loc 2 259 0
 863 0070 3B68     		ldr	r3, [r7]
 864 0072 0422     		movs	r2, #4
 865 0074 1A70     		strb	r2, [r3]
 260:C:/Users/dtjld/Desktop/AIoT_software/LiteOS_Lab_overseas/LiteOS_Lab/iot_link/network/lwm2m/wakaama_lwm2m/core\data.c ****     }
 261:C:/Users/dtjld/Desktop/AIoT_software/LiteOS_Lab_overseas/LiteOS_Lab/iot_link/network/lwm2m/wakaama_lwm2m/core\data.c ****     else
 262:C:/Users/dtjld/Desktop/AIoT_software/LiteOS_Lab_overseas/LiteOS_Lab/iot_link/network/lwm2m/wakaama_lwm2m/core\data.c ****     {
 263:C:/Users/dtjld/Desktop/AIoT_software/LiteOS_Lab_overseas/LiteOS_Lab/iot_link/network/lwm2m/wakaama_lwm2m/core\data.c ****         dataP->type = LWM2M_TYPE_UNDEFINED;
 264:C:/Users/dtjld/Desktop/AIoT_software/LiteOS_Lab_overseas/LiteOS_Lab/iot_link/network/lwm2m/wakaama_lwm2m/core\data.c ****     }
 265:C:/Users/dtjld/Desktop/AIoT_software/LiteOS_Lab_overseas/LiteOS_Lab/iot_link/network/lwm2m/wakaama_lwm2m/core\data.c **** }
 866              		.loc 2 265 0
 867 0076 02E0     		b	.L63
 868              	.L61:
 263:C:/Users/dtjld/Desktop/AIoT_software/LiteOS_Lab_overseas/LiteOS_Lab/iot_link/network/lwm2m/wakaama_lwm2m/core\data.c ****     }
 869              		.loc 2 263 0
 870 0078 3B68     		ldr	r3, [r7]
 871 007a 0022     		movs	r2, #0
 872 007c 1A70     		strb	r2, [r3]
 873              	.L63:
 874              		.loc 2 265 0
 875 007e 00BF     		nop
 876 0080 1437     		adds	r7, r7, #20
 877              	.LCFI34:
 878              		.cfi_def_cfa_offset 12
 879 0082 BD46     		mov	sp, r7
 880              	.LCFI35:
 881              		.cfi_def_cfa_register 13
 882              		@ sp needed
 883 0084 90BD     		pop	{r4, r7, pc}
 884              	.L65:
 885 0086 00BF     		.align	2
 886              	.L64:
 887 0088 00000000 		.word	__func__.8557
 888 008c 18000000 		.word	.LC1
 889              		.cfi_endproc
 890              	.LFE9:
ARM GAS  C:\Users\dtjld\AppData\Local\Temp\ccLN8Itk.s 			page 28


 892              		.section	.rodata
 893 002b 00       		.align	2
 894              	.LC2:
 895 002c 5B25645D 		.ascii	"[%d][%s:%d] length: %d\015\012\000"
 895      5B25733A 
 895      25645D20 
 895      6C656E67 
 895      74683A20 
 896              		.section	.text.lwm2m_data_encode_opaque,"ax",%progbits
 897              		.align	1
 898              		.global	lwm2m_data_encode_opaque
 899              		.syntax unified
 900              		.thumb
 901              		.thumb_func
 902              		.fpu fpv4-sp-d16
 904              	lwm2m_data_encode_opaque:
 905              	.LFB10:
 266:C:/Users/dtjld/Desktop/AIoT_software/LiteOS_Lab_overseas/LiteOS_Lab/iot_link/network/lwm2m/wakaama_lwm2m/core\data.c **** 
 267:C:/Users/dtjld/Desktop/AIoT_software/LiteOS_Lab_overseas/LiteOS_Lab/iot_link/network/lwm2m/wakaama_lwm2m/core\data.c **** void lwm2m_data_encode_opaque(uint8_t *buffer,
 268:C:/Users/dtjld/Desktop/AIoT_software/LiteOS_Lab_overseas/LiteOS_Lab/iot_link/network/lwm2m/wakaama_lwm2m/core\data.c ****                               size_t length,
 269:C:/Users/dtjld/Desktop/AIoT_software/LiteOS_Lab_overseas/LiteOS_Lab/iot_link/network/lwm2m/wakaama_lwm2m/core\data.c ****                               lwm2m_data_t *dataP)
 270:C:/Users/dtjld/Desktop/AIoT_software/LiteOS_Lab_overseas/LiteOS_Lab/iot_link/network/lwm2m/wakaama_lwm2m/core\data.c **** {
 906              		.loc 2 270 0
 907              		.cfi_startproc
 908              		@ args = 0, pretend = 0, frame = 24
 909              		@ frame_needed = 1, uses_anonymous_args = 0
 910 0000 90B5     		push	{r4, r7, lr}
 911              	.LCFI36:
 912              		.cfi_def_cfa_offset 12
 913              		.cfi_offset 4, -12
 914              		.cfi_offset 7, -8
 915              		.cfi_offset 14, -4
 916 0002 89B0     		sub	sp, sp, #36
 917              	.LCFI37:
 918              		.cfi_def_cfa_offset 48
 919 0004 02AF     		add	r7, sp, #8
 920              	.LCFI38:
 921              		.cfi_def_cfa 7, 40
 922 0006 F860     		str	r0, [r7, #12]
 923 0008 B960     		str	r1, [r7, #8]
 924 000a 7A60     		str	r2, [r7, #4]
 271:C:/Users/dtjld/Desktop/AIoT_software/LiteOS_Lab_overseas/LiteOS_Lab/iot_link/network/lwm2m/wakaama_lwm2m/core\data.c ****     int res;
 272:C:/Users/dtjld/Desktop/AIoT_software/LiteOS_Lab_overseas/LiteOS_Lab/iot_link/network/lwm2m/wakaama_lwm2m/core\data.c **** 
 273:C:/Users/dtjld/Desktop/AIoT_software/LiteOS_Lab_overseas/LiteOS_Lab/iot_link/network/lwm2m/wakaama_lwm2m/core\data.c ****     LOG_ARG("length: %d", length);
 925              		.loc 2 273 0
 926 000c FFF7FEFF 		bl	lwm2m_gettime
 927 0010 0346     		mov	r3, r0
 928 0012 0C46     		mov	r4, r1
 929 0014 1946     		mov	r1, r3
 930 0016 BB68     		ldr	r3, [r7, #8]
 931 0018 0093     		str	r3, [sp]
 932 001a 40F21113 		movw	r3, #273
 933 001e 124A     		ldr	r2, .L72
 934 0020 1248     		ldr	r0, .L72+4
 935 0022 FFF7FEFF 		bl	atiny_printf
 274:C:/Users/dtjld/Desktop/AIoT_software/LiteOS_Lab_overseas/LiteOS_Lab/iot_link/network/lwm2m/wakaama_lwm2m/core\data.c ****     if (length == 0)
 936              		.loc 2 274 0
ARM GAS  C:\Users\dtjld\AppData\Local\Temp\ccLN8Itk.s 			page 29


 937 0026 BB68     		ldr	r3, [r7, #8]
 938 0028 002B     		cmp	r3, #0
 939 002a 08D1     		bne	.L67
 275:C:/Users/dtjld/Desktop/AIoT_software/LiteOS_Lab_overseas/LiteOS_Lab/iot_link/network/lwm2m/wakaama_lwm2m/core\data.c ****     {
 276:C:/Users/dtjld/Desktop/AIoT_software/LiteOS_Lab_overseas/LiteOS_Lab/iot_link/network/lwm2m/wakaama_lwm2m/core\data.c ****         dataP->value.asBuffer.length = 0;
 940              		.loc 2 276 0
 941 002c 7B68     		ldr	r3, [r7, #4]
 942 002e 0022     		movs	r2, #0
 943 0030 9A60     		str	r2, [r3, #8]
 277:C:/Users/dtjld/Desktop/AIoT_software/LiteOS_Lab_overseas/LiteOS_Lab/iot_link/network/lwm2m/wakaama_lwm2m/core\data.c ****         dataP->value.asBuffer.buffer = NULL;
 944              		.loc 2 277 0
 945 0032 7B68     		ldr	r3, [r7, #4]
 946 0034 0022     		movs	r2, #0
 947 0036 DA60     		str	r2, [r3, #12]
 278:C:/Users/dtjld/Desktop/AIoT_software/LiteOS_Lab_overseas/LiteOS_Lab/iot_link/network/lwm2m/wakaama_lwm2m/core\data.c ****         res = 1;
 948              		.loc 2 278 0
 949 0038 0123     		movs	r3, #1
 950 003a 7B61     		str	r3, [r7, #20]
 951 003c 05E0     		b	.L68
 952              	.L67:
 279:C:/Users/dtjld/Desktop/AIoT_software/LiteOS_Lab_overseas/LiteOS_Lab/iot_link/network/lwm2m/wakaama_lwm2m/core\data.c ****     }
 280:C:/Users/dtjld/Desktop/AIoT_software/LiteOS_Lab_overseas/LiteOS_Lab/iot_link/network/lwm2m/wakaama_lwm2m/core\data.c ****     else
 281:C:/Users/dtjld/Desktop/AIoT_software/LiteOS_Lab_overseas/LiteOS_Lab/iot_link/network/lwm2m/wakaama_lwm2m/core\data.c ****     {
 282:C:/Users/dtjld/Desktop/AIoT_software/LiteOS_Lab_overseas/LiteOS_Lab/iot_link/network/lwm2m/wakaama_lwm2m/core\data.c ****         res = prv_setBuffer(dataP, buffer, length);
 953              		.loc 2 282 0
 954 003e BA68     		ldr	r2, [r7, #8]
 955 0040 F968     		ldr	r1, [r7, #12]
 956 0042 7868     		ldr	r0, [r7, #4]
 957 0044 FFF7FEFF 		bl	prv_setBuffer
 958 0048 7861     		str	r0, [r7, #20]
 959              	.L68:
 283:C:/Users/dtjld/Desktop/AIoT_software/LiteOS_Lab_overseas/LiteOS_Lab/iot_link/network/lwm2m/wakaama_lwm2m/core\data.c ****     }
 284:C:/Users/dtjld/Desktop/AIoT_software/LiteOS_Lab_overseas/LiteOS_Lab/iot_link/network/lwm2m/wakaama_lwm2m/core\data.c **** 
 285:C:/Users/dtjld/Desktop/AIoT_software/LiteOS_Lab_overseas/LiteOS_Lab/iot_link/network/lwm2m/wakaama_lwm2m/core\data.c ****     if (res == 1)
 960              		.loc 2 285 0
 961 004a 7B69     		ldr	r3, [r7, #20]
 962 004c 012B     		cmp	r3, #1
 963 004e 03D1     		bne	.L69
 286:C:/Users/dtjld/Desktop/AIoT_software/LiteOS_Lab_overseas/LiteOS_Lab/iot_link/network/lwm2m/wakaama_lwm2m/core\data.c ****     {
 287:C:/Users/dtjld/Desktop/AIoT_software/LiteOS_Lab_overseas/LiteOS_Lab/iot_link/network/lwm2m/wakaama_lwm2m/core\data.c ****         dataP->type = LWM2M_TYPE_OPAQUE;
 964              		.loc 2 287 0
 965 0050 7B68     		ldr	r3, [r7, #4]
 966 0052 0522     		movs	r2, #5
 967 0054 1A70     		strb	r2, [r3]
 288:C:/Users/dtjld/Desktop/AIoT_software/LiteOS_Lab_overseas/LiteOS_Lab/iot_link/network/lwm2m/wakaama_lwm2m/core\data.c ****     }
 289:C:/Users/dtjld/Desktop/AIoT_software/LiteOS_Lab_overseas/LiteOS_Lab/iot_link/network/lwm2m/wakaama_lwm2m/core\data.c ****     else
 290:C:/Users/dtjld/Desktop/AIoT_software/LiteOS_Lab_overseas/LiteOS_Lab/iot_link/network/lwm2m/wakaama_lwm2m/core\data.c ****     {
 291:C:/Users/dtjld/Desktop/AIoT_software/LiteOS_Lab_overseas/LiteOS_Lab/iot_link/network/lwm2m/wakaama_lwm2m/core\data.c ****         dataP->type = LWM2M_TYPE_UNDEFINED;
 292:C:/Users/dtjld/Desktop/AIoT_software/LiteOS_Lab_overseas/LiteOS_Lab/iot_link/network/lwm2m/wakaama_lwm2m/core\data.c ****     }
 293:C:/Users/dtjld/Desktop/AIoT_software/LiteOS_Lab_overseas/LiteOS_Lab/iot_link/network/lwm2m/wakaama_lwm2m/core\data.c **** }
 968              		.loc 2 293 0
 969 0056 02E0     		b	.L71
 970              	.L69:
 291:C:/Users/dtjld/Desktop/AIoT_software/LiteOS_Lab_overseas/LiteOS_Lab/iot_link/network/lwm2m/wakaama_lwm2m/core\data.c ****     }
 971              		.loc 2 291 0
 972 0058 7B68     		ldr	r3, [r7, #4]
 973 005a 0022     		movs	r2, #0
ARM GAS  C:\Users\dtjld\AppData\Local\Temp\ccLN8Itk.s 			page 30


 974 005c 1A70     		strb	r2, [r3]
 975              	.L71:
 976              		.loc 2 293 0
 977 005e 00BF     		nop
 978 0060 1C37     		adds	r7, r7, #28
 979              	.LCFI39:
 980              		.cfi_def_cfa_offset 12
 981 0062 BD46     		mov	sp, r7
 982              	.LCFI40:
 983              		.cfi_def_cfa_register 13
 984              		@ sp needed
 985 0064 90BD     		pop	{r4, r7, pc}
 986              	.L73:
 987 0066 00BF     		.align	2
 988              	.L72:
 989 0068 00000000 		.word	__func__.8567
 990 006c 2C000000 		.word	.LC2
 991              		.cfi_endproc
 992              	.LFE10:
 994              		.section	.rodata
 995 0045 000000   		.align	2
 996              	.LC3:
 997 0048 5B25645D 		.ascii	"[%d][%s:%d] length: %d, string: \"%s\"\015\012\000"
 997      5B25733A 
 997      25645D20 
 997      6C656E67 
 997      74683A20 
 998              		.section	.text.lwm2m_data_encode_nstring,"ax",%progbits
 999              		.align	1
 1000              		.global	lwm2m_data_encode_nstring
 1001              		.syntax unified
 1002              		.thumb
 1003              		.thumb_func
 1004              		.fpu fpv4-sp-d16
 1006              	lwm2m_data_encode_nstring:
 1007              	.LFB11:
 294:C:/Users/dtjld/Desktop/AIoT_software/LiteOS_Lab_overseas/LiteOS_Lab/iot_link/network/lwm2m/wakaama_lwm2m/core\data.c **** 
 295:C:/Users/dtjld/Desktop/AIoT_software/LiteOS_Lab_overseas/LiteOS_Lab/iot_link/network/lwm2m/wakaama_lwm2m/core\data.c **** void lwm2m_data_encode_nstring(const char *string,
 296:C:/Users/dtjld/Desktop/AIoT_software/LiteOS_Lab_overseas/LiteOS_Lab/iot_link/network/lwm2m/wakaama_lwm2m/core\data.c ****                                size_t length,
 297:C:/Users/dtjld/Desktop/AIoT_software/LiteOS_Lab_overseas/LiteOS_Lab/iot_link/network/lwm2m/wakaama_lwm2m/core\data.c ****                                lwm2m_data_t *dataP)
 298:C:/Users/dtjld/Desktop/AIoT_software/LiteOS_Lab_overseas/LiteOS_Lab/iot_link/network/lwm2m/wakaama_lwm2m/core\data.c **** {
 1008              		.loc 2 298 0
 1009              		.cfi_startproc
 1010              		@ args = 0, pretend = 0, frame = 16
 1011              		@ frame_needed = 1, uses_anonymous_args = 0
 1012 0000 90B5     		push	{r4, r7, lr}
 1013              	.LCFI41:
 1014              		.cfi_def_cfa_offset 12
 1015              		.cfi_offset 4, -12
 1016              		.cfi_offset 7, -8
 1017              		.cfi_offset 14, -4
 1018 0002 87B0     		sub	sp, sp, #28
 1019              	.LCFI42:
 1020              		.cfi_def_cfa_offset 40
 1021 0004 02AF     		add	r7, sp, #8
 1022              	.LCFI43:
 1023              		.cfi_def_cfa 7, 32
ARM GAS  C:\Users\dtjld\AppData\Local\Temp\ccLN8Itk.s 			page 31


 1024 0006 F860     		str	r0, [r7, #12]
 1025 0008 B960     		str	r1, [r7, #8]
 1026 000a 7A60     		str	r2, [r7, #4]
 299:C:/Users/dtjld/Desktop/AIoT_software/LiteOS_Lab_overseas/LiteOS_Lab/iot_link/network/lwm2m/wakaama_lwm2m/core\data.c ****     LOG_ARG("length: %d, string: \"%s\"", length, string);
 1027              		.loc 2 299 0
 1028 000c FFF7FEFF 		bl	lwm2m_gettime
 1029 0010 0346     		mov	r3, r0
 1030 0012 0C46     		mov	r4, r1
 1031 0014 1946     		mov	r1, r3
 1032 0016 FB68     		ldr	r3, [r7, #12]
 1033 0018 0193     		str	r3, [sp, #4]
 1034 001a BB68     		ldr	r3, [r7, #8]
 1035 001c 0093     		str	r3, [sp]
 1036 001e 40F22B13 		movw	r3, #299
 1037 0022 0A4A     		ldr	r2, .L77
 1038 0024 0A48     		ldr	r0, .L77+4
 1039 0026 FFF7FEFF 		bl	atiny_printf
 300:C:/Users/dtjld/Desktop/AIoT_software/LiteOS_Lab_overseas/LiteOS_Lab/iot_link/network/lwm2m/wakaama_lwm2m/core\data.c ****     lwm2m_data_encode_opaque((uint8_t *)string, length, dataP);
 1040              		.loc 2 300 0
 1041 002a 7A68     		ldr	r2, [r7, #4]
 1042 002c B968     		ldr	r1, [r7, #8]
 1043 002e F868     		ldr	r0, [r7, #12]
 1044 0030 FFF7FEFF 		bl	lwm2m_data_encode_opaque
 301:C:/Users/dtjld/Desktop/AIoT_software/LiteOS_Lab_overseas/LiteOS_Lab/iot_link/network/lwm2m/wakaama_lwm2m/core\data.c **** 
 302:C:/Users/dtjld/Desktop/AIoT_software/LiteOS_Lab_overseas/LiteOS_Lab/iot_link/network/lwm2m/wakaama_lwm2m/core\data.c ****     if (dataP->type == LWM2M_TYPE_OPAQUE)
 1045              		.loc 2 302 0
 1046 0034 7B68     		ldr	r3, [r7, #4]
 1047 0036 1B78     		ldrb	r3, [r3]	@ zero_extendqisi2
 1048 0038 052B     		cmp	r3, #5
 1049 003a 02D1     		bne	.L76
 303:C:/Users/dtjld/Desktop/AIoT_software/LiteOS_Lab_overseas/LiteOS_Lab/iot_link/network/lwm2m/wakaama_lwm2m/core\data.c ****     {
 304:C:/Users/dtjld/Desktop/AIoT_software/LiteOS_Lab_overseas/LiteOS_Lab/iot_link/network/lwm2m/wakaama_lwm2m/core\data.c ****         dataP->type = LWM2M_TYPE_STRING;
 1050              		.loc 2 304 0
 1051 003c 7B68     		ldr	r3, [r7, #4]
 1052 003e 0422     		movs	r2, #4
 1053 0040 1A70     		strb	r2, [r3]
 1054              	.L76:
 305:C:/Users/dtjld/Desktop/AIoT_software/LiteOS_Lab_overseas/LiteOS_Lab/iot_link/network/lwm2m/wakaama_lwm2m/core\data.c ****     }
 306:C:/Users/dtjld/Desktop/AIoT_software/LiteOS_Lab_overseas/LiteOS_Lab/iot_link/network/lwm2m/wakaama_lwm2m/core\data.c **** }
 1055              		.loc 2 306 0
 1056 0042 00BF     		nop
 1057 0044 1437     		adds	r7, r7, #20
 1058              	.LCFI44:
 1059              		.cfi_def_cfa_offset 12
 1060 0046 BD46     		mov	sp, r7
 1061              	.LCFI45:
 1062              		.cfi_def_cfa_register 13
 1063              		@ sp needed
 1064 0048 90BD     		pop	{r4, r7, pc}
 1065              	.L78:
 1066 004a 00BF     		.align	2
 1067              	.L77:
 1068 004c 00000000 		.word	__func__.8573
 1069 0050 48000000 		.word	.LC3
 1070              		.cfi_endproc
 1071              	.LFE11:
 1073              		.section	.rodata
ARM GAS  C:\Users\dtjld\AppData\Local\Temp\ccLN8Itk.s 			page 32


 1074 006f 00       		.align	2
 1075              	.LC4:
 1076 0070 5B25645D 		.ascii	"[%d][%s:%d] value: %lld\015\012\000"
 1076      5B25733A 
 1076      25645D20 
 1076      76616C75 
 1076      653A2025 
 1077              		.section	.text.lwm2m_data_encode_int,"ax",%progbits
 1078              		.align	1
 1079              		.global	lwm2m_data_encode_int
 1080              		.syntax unified
 1081              		.thumb
 1082              		.thumb_func
 1083              		.fpu fpv4-sp-d16
 1085              	lwm2m_data_encode_int:
 1086              	.LFB12:
 307:C:/Users/dtjld/Desktop/AIoT_software/LiteOS_Lab_overseas/LiteOS_Lab/iot_link/network/lwm2m/wakaama_lwm2m/core\data.c **** 
 308:C:/Users/dtjld/Desktop/AIoT_software/LiteOS_Lab_overseas/LiteOS_Lab/iot_link/network/lwm2m/wakaama_lwm2m/core\data.c **** void lwm2m_data_encode_int(int64_t value,
 309:C:/Users/dtjld/Desktop/AIoT_software/LiteOS_Lab_overseas/LiteOS_Lab/iot_link/network/lwm2m/wakaama_lwm2m/core\data.c ****                            lwm2m_data_t *dataP)
 310:C:/Users/dtjld/Desktop/AIoT_software/LiteOS_Lab_overseas/LiteOS_Lab/iot_link/network/lwm2m/wakaama_lwm2m/core\data.c **** {
 1087              		.loc 2 310 0
 1088              		.cfi_startproc
 1089              		@ args = 0, pretend = 0, frame = 16
 1090              		@ frame_needed = 1, uses_anonymous_args = 0
 1091 0000 90B5     		push	{r4, r7, lr}
 1092              	.LCFI46:
 1093              		.cfi_def_cfa_offset 12
 1094              		.cfi_offset 4, -12
 1095              		.cfi_offset 7, -8
 1096              		.cfi_offset 14, -4
 1097 0002 87B0     		sub	sp, sp, #28
 1098              	.LCFI47:
 1099              		.cfi_def_cfa_offset 40
 1100 0004 02AF     		add	r7, sp, #8
 1101              	.LCFI48:
 1102              		.cfi_def_cfa 7, 32
 1103 0006 C7E90201 		strd	r0, [r7, #8]
 1104 000a 7A60     		str	r2, [r7, #4]
 311:C:/Users/dtjld/Desktop/AIoT_software/LiteOS_Lab_overseas/LiteOS_Lab/iot_link/network/lwm2m/wakaama_lwm2m/core\data.c ****     LOG_ARG("value: %" PRId64 "", value);
 1105              		.loc 2 311 0
 1106 000c FFF7FEFF 		bl	lwm2m_gettime
 1107 0010 0346     		mov	r3, r0
 1108 0012 0C46     		mov	r4, r1
 1109 0014 1946     		mov	r1, r3
 1110 0016 D7E90234 		ldrd	r3, [r7, #8]
 1111 001a CDE90034 		strd	r3, [sp]
 1112 001e 40F23713 		movw	r3, #311
 1113 0022 084A     		ldr	r2, .L80
 1114 0024 0848     		ldr	r0, .L80+4
 1115 0026 FFF7FEFF 		bl	atiny_printf
 312:C:/Users/dtjld/Desktop/AIoT_software/LiteOS_Lab_overseas/LiteOS_Lab/iot_link/network/lwm2m/wakaama_lwm2m/core\data.c ****     dataP->type = LWM2M_TYPE_INTEGER;
 1116              		.loc 2 312 0
 1117 002a 7B68     		ldr	r3, [r7, #4]
 1118 002c 0622     		movs	r2, #6
 1119 002e 1A70     		strb	r2, [r3]
 313:C:/Users/dtjld/Desktop/AIoT_software/LiteOS_Lab_overseas/LiteOS_Lab/iot_link/network/lwm2m/wakaama_lwm2m/core\data.c ****     dataP->value.asInteger = value;
 1120              		.loc 2 313 0
ARM GAS  C:\Users\dtjld\AppData\Local\Temp\ccLN8Itk.s 			page 33


 1121 0030 7A68     		ldr	r2, [r7, #4]
 1122 0032 D7E90234 		ldrd	r3, [r7, #8]
 1123 0036 C2E90234 		strd	r3, [r2, #8]
 314:C:/Users/dtjld/Desktop/AIoT_software/LiteOS_Lab_overseas/LiteOS_Lab/iot_link/network/lwm2m/wakaama_lwm2m/core\data.c **** }
 1124              		.loc 2 314 0
 1125 003a 00BF     		nop
 1126 003c 1437     		adds	r7, r7, #20
 1127              	.LCFI49:
 1128              		.cfi_def_cfa_offset 12
 1129 003e BD46     		mov	sp, r7
 1130              	.LCFI50:
 1131              		.cfi_def_cfa_register 13
 1132              		@ sp needed
 1133 0040 90BD     		pop	{r4, r7, pc}
 1134              	.L81:
 1135 0042 00BF     		.align	2
 1136              	.L80:
 1137 0044 00000000 		.word	__func__.8578
 1138 0048 70000000 		.word	.LC4
 1139              		.cfi_endproc
 1140              	.LFE12:
 1142              		.section	.rodata
 1143 008a 0000     		.align	2
 1144              	.LC5:
 1145 008c 5B25645D 		.ascii	"[%d][%s:%d] Entering\015\012\000"
 1145      5B25733A 
 1145      25645D20 
 1145      456E7465 
 1145      72696E67 
 1146 00a3 00       		.align	2
 1147              	.LC6:
 1148 00a4 5B25645D 		.ascii	"[%d][%s:%d] result: %d, value: %lld\015\012\000"
 1148      5B25733A 
 1148      25645D20 
 1148      72657375 
 1148      6C743A20 
 1149              		.section	.text.lwm2m_data_decode_int,"ax",%progbits
 1150              		.align	1
 1151              		.global	lwm2m_data_decode_int
 1152              		.syntax unified
 1153              		.thumb
 1154              		.thumb_func
 1155              		.fpu fpv4-sp-d16
 1157              	lwm2m_data_decode_int:
 1158              	.LFB13:
 315:C:/Users/dtjld/Desktop/AIoT_software/LiteOS_Lab_overseas/LiteOS_Lab/iot_link/network/lwm2m/wakaama_lwm2m/core\data.c **** 
 316:C:/Users/dtjld/Desktop/AIoT_software/LiteOS_Lab_overseas/LiteOS_Lab/iot_link/network/lwm2m/wakaama_lwm2m/core\data.c **** int lwm2m_data_decode_int(const lwm2m_data_t *dataP,
 317:C:/Users/dtjld/Desktop/AIoT_software/LiteOS_Lab_overseas/LiteOS_Lab/iot_link/network/lwm2m/wakaama_lwm2m/core\data.c ****                           int64_t *valueP)
 318:C:/Users/dtjld/Desktop/AIoT_software/LiteOS_Lab_overseas/LiteOS_Lab/iot_link/network/lwm2m/wakaama_lwm2m/core\data.c **** {
 1159              		.loc 2 318 0
 1160              		.cfi_startproc
 1161              		@ args = 0, pretend = 0, frame = 24
 1162              		@ frame_needed = 1, uses_anonymous_args = 0
 1163 0000 90B5     		push	{r4, r7, lr}
 1164              	.LCFI51:
 1165              		.cfi_def_cfa_offset 12
 1166              		.cfi_offset 4, -12
ARM GAS  C:\Users\dtjld\AppData\Local\Temp\ccLN8Itk.s 			page 34


 1167              		.cfi_offset 7, -8
 1168              		.cfi_offset 14, -4
 1169 0002 8BB0     		sub	sp, sp, #44
 1170              	.LCFI52:
 1171              		.cfi_def_cfa_offset 56
 1172 0004 04AF     		add	r7, sp, #16
 1173              	.LCFI53:
 1174              		.cfi_def_cfa 7, 40
 1175 0006 7860     		str	r0, [r7, #4]
 1176 0008 3960     		str	r1, [r7]
 319:C:/Users/dtjld/Desktop/AIoT_software/LiteOS_Lab_overseas/LiteOS_Lab/iot_link/network/lwm2m/wakaama_lwm2m/core\data.c ****     int result;
 320:C:/Users/dtjld/Desktop/AIoT_software/LiteOS_Lab_overseas/LiteOS_Lab/iot_link/network/lwm2m/wakaama_lwm2m/core\data.c **** 
 321:C:/Users/dtjld/Desktop/AIoT_software/LiteOS_Lab_overseas/LiteOS_Lab/iot_link/network/lwm2m/wakaama_lwm2m/core\data.c ****     LOG("Entering");
 1177              		.loc 2 321 0
 1178 000a FFF7FEFF 		bl	lwm2m_gettime
 1179 000e 0346     		mov	r3, r0
 1180 0010 0C46     		mov	r4, r1
 1181 0012 1946     		mov	r1, r3
 1182 0014 40F24113 		movw	r3, #321
 1183 0018 4A4A     		ldr	r2, .L97
 1184 001a 4B48     		ldr	r0, .L97+4
 1185 001c FFF7FEFF 		bl	atiny_printf
 322:C:/Users/dtjld/Desktop/AIoT_software/LiteOS_Lab_overseas/LiteOS_Lab/iot_link/network/lwm2m/wakaama_lwm2m/core\data.c ****     switch (dataP->type)
 1186              		.loc 2 322 0
 1187 0020 7B68     		ldr	r3, [r7, #4]
 1188 0022 1B78     		ldrb	r3, [r3]	@ zero_extendqisi2
 1189 0024 052B     		cmp	r3, #5
 1190 0026 17D0     		beq	.L84
 1191 0028 062B     		cmp	r3, #6
 1192 002a 02D0     		beq	.L85
 1193 002c 042B     		cmp	r3, #4
 1194 002e 09D0     		beq	.L86
 1195 0030 6EE0     		b	.L96
 1196              	.L85:
 323:C:/Users/dtjld/Desktop/AIoT_software/LiteOS_Lab_overseas/LiteOS_Lab/iot_link/network/lwm2m/wakaama_lwm2m/core\data.c ****     {
 324:C:/Users/dtjld/Desktop/AIoT_software/LiteOS_Lab_overseas/LiteOS_Lab/iot_link/network/lwm2m/wakaama_lwm2m/core\data.c ****     case LWM2M_TYPE_INTEGER:
 325:C:/Users/dtjld/Desktop/AIoT_software/LiteOS_Lab_overseas/LiteOS_Lab/iot_link/network/lwm2m/wakaama_lwm2m/core\data.c ****         *valueP = dataP->value.asInteger;
 1197              		.loc 2 325 0
 1198 0032 7B68     		ldr	r3, [r7, #4]
 1199 0034 D3E90234 		ldrd	r3, [r3, #8]
 1200 0038 3A68     		ldr	r2, [r7]
 1201 003a C2E90034 		strd	r3, [r2]
 326:C:/Users/dtjld/Desktop/AIoT_software/LiteOS_Lab_overseas/LiteOS_Lab/iot_link/network/lwm2m/wakaama_lwm2m/core\data.c ****         result = 1;
 1202              		.loc 2 326 0
 1203 003e 0123     		movs	r3, #1
 1204 0040 7B61     		str	r3, [r7, #20]
 327:C:/Users/dtjld/Desktop/AIoT_software/LiteOS_Lab_overseas/LiteOS_Lab/iot_link/network/lwm2m/wakaama_lwm2m/core\data.c ****         break;
 1205              		.loc 2 327 0
 1206 0042 67E0     		b	.L87
 1207              	.L86:
 328:C:/Users/dtjld/Desktop/AIoT_software/LiteOS_Lab_overseas/LiteOS_Lab/iot_link/network/lwm2m/wakaama_lwm2m/core\data.c **** 
 329:C:/Users/dtjld/Desktop/AIoT_software/LiteOS_Lab_overseas/LiteOS_Lab/iot_link/network/lwm2m/wakaama_lwm2m/core\data.c ****     case LWM2M_TYPE_STRING:
 330:C:/Users/dtjld/Desktop/AIoT_software/LiteOS_Lab_overseas/LiteOS_Lab/iot_link/network/lwm2m/wakaama_lwm2m/core\data.c ****         result = utils_textToInt(dataP->value.asBuffer.buffer, dataP->value.asBuffer.length, valueP
 1208              		.loc 2 330 0
 1209 0044 7B68     		ldr	r3, [r7, #4]
 1210 0046 D868     		ldr	r0, [r3, #12]
 1211 0048 7B68     		ldr	r3, [r7, #4]
ARM GAS  C:\Users\dtjld\AppData\Local\Temp\ccLN8Itk.s 			page 35


 1212 004a 9B68     		ldr	r3, [r3, #8]
 1213 004c 3A68     		ldr	r2, [r7]
 1214 004e 1946     		mov	r1, r3
 1215 0050 FFF7FEFF 		bl	utils_textToInt
 1216 0054 7861     		str	r0, [r7, #20]
 331:C:/Users/dtjld/Desktop/AIoT_software/LiteOS_Lab_overseas/LiteOS_Lab/iot_link/network/lwm2m/wakaama_lwm2m/core\data.c ****         break;
 1217              		.loc 2 331 0
 1218 0056 5DE0     		b	.L87
 1219              	.L84:
 332:C:/Users/dtjld/Desktop/AIoT_software/LiteOS_Lab_overseas/LiteOS_Lab/iot_link/network/lwm2m/wakaama_lwm2m/core\data.c **** 
 333:C:/Users/dtjld/Desktop/AIoT_software/LiteOS_Lab_overseas/LiteOS_Lab/iot_link/network/lwm2m/wakaama_lwm2m/core\data.c ****     case LWM2M_TYPE_OPAQUE:
 334:C:/Users/dtjld/Desktop/AIoT_software/LiteOS_Lab_overseas/LiteOS_Lab/iot_link/network/lwm2m/wakaama_lwm2m/core\data.c ****         switch (dataP->value.asBuffer.length)
 1220              		.loc 2 334 0
 1221 0058 7B68     		ldr	r3, [r7, #4]
 1222 005a 9B68     		ldr	r3, [r3, #8]
 1223 005c 013B     		subs	r3, r3, #1
 1224 005e 072B     		cmp	r3, #7
 1225 0060 52D8     		bhi	.L88
 1226 0062 01A2     		adr	r2, .L90
 1227 0064 52F823F0 		ldr	pc, [r2, r3, lsl #2]
 1228              		.p2align 2
 1229              	.L90:
 1230 0068 89000000 		.word	.L89+1
 1231 006c A3000000 		.word	.L91+1
 1232 0070 09010000 		.word	.L88+1
 1233 0074 CD000000 		.word	.L92+1
 1234 0078 09010000 		.word	.L88+1
 1235 007c 09010000 		.word	.L88+1
 1236 0080 09010000 		.word	.L88+1
 1237 0084 F3000000 		.word	.L93+1
 1238              		.p2align 1
 1239              	.L89:
 335:C:/Users/dtjld/Desktop/AIoT_software/LiteOS_Lab_overseas/LiteOS_Lab/iot_link/network/lwm2m/wakaama_lwm2m/core\data.c ****         {
 336:C:/Users/dtjld/Desktop/AIoT_software/LiteOS_Lab_overseas/LiteOS_Lab/iot_link/network/lwm2m/wakaama_lwm2m/core\data.c ****         case 1:
 337:C:/Users/dtjld/Desktop/AIoT_software/LiteOS_Lab_overseas/LiteOS_Lab/iot_link/network/lwm2m/wakaama_lwm2m/core\data.c ****             *valueP = (int8_t)dataP->value.asBuffer.buffer[0];
 1240              		.loc 2 337 0
 1241 0088 7B68     		ldr	r3, [r7, #4]
 1242 008a DB68     		ldr	r3, [r3, #12]
 1243 008c 1B78     		ldrb	r3, [r3]	@ zero_extendqisi2
 1244 008e 5BB2     		sxtb	r3, r3
 1245 0090 5BB2     		sxtb	r3, r3
 1246 0092 4FEAE374 		asr	r4, r3, #31
 1247 0096 3A68     		ldr	r2, [r7]
 1248 0098 C2E90034 		strd	r3, [r2]
 338:C:/Users/dtjld/Desktop/AIoT_software/LiteOS_Lab_overseas/LiteOS_Lab/iot_link/network/lwm2m/wakaama_lwm2m/core\data.c ****             result = 1;
 1249              		.loc 2 338 0
 1250 009c 0123     		movs	r3, #1
 1251 009e 7B61     		str	r3, [r7, #20]
 339:C:/Users/dtjld/Desktop/AIoT_software/LiteOS_Lab_overseas/LiteOS_Lab/iot_link/network/lwm2m/wakaama_lwm2m/core\data.c ****             break;
 1252              		.loc 2 339 0
 1253 00a0 35E0     		b	.L94
 1254              	.L91:
 1255              	.LBB6:
 340:C:/Users/dtjld/Desktop/AIoT_software/LiteOS_Lab_overseas/LiteOS_Lab/iot_link/network/lwm2m/wakaama_lwm2m/core\data.c **** 
 341:C:/Users/dtjld/Desktop/AIoT_software/LiteOS_Lab_overseas/LiteOS_Lab/iot_link/network/lwm2m/wakaama_lwm2m/core\data.c ****         case 2:
 342:C:/Users/dtjld/Desktop/AIoT_software/LiteOS_Lab_overseas/LiteOS_Lab/iot_link/network/lwm2m/wakaama_lwm2m/core\data.c ****         {
 343:C:/Users/dtjld/Desktop/AIoT_software/LiteOS_Lab_overseas/LiteOS_Lab/iot_link/network/lwm2m/wakaama_lwm2m/core\data.c ****             int16_t value;
ARM GAS  C:\Users\dtjld\AppData\Local\Temp\ccLN8Itk.s 			page 36


 344:C:/Users/dtjld/Desktop/AIoT_software/LiteOS_Lab_overseas/LiteOS_Lab/iot_link/network/lwm2m/wakaama_lwm2m/core\data.c **** 
 345:C:/Users/dtjld/Desktop/AIoT_software/LiteOS_Lab_overseas/LiteOS_Lab/iot_link/network/lwm2m/wakaama_lwm2m/core\data.c ****             utils_copyValue(&value, dataP->value.asBuffer.buffer, dataP->value.asBuffer.length);
 1256              		.loc 2 345 0
 1257 00a2 7B68     		ldr	r3, [r7, #4]
 1258 00a4 D968     		ldr	r1, [r3, #12]
 1259 00a6 7B68     		ldr	r3, [r7, #4]
 1260 00a8 9A68     		ldr	r2, [r3, #8]
 1261 00aa 07F11203 		add	r3, r7, #18
 1262 00ae 1846     		mov	r0, r3
 1263 00b0 FFF7FEFF 		bl	utils_copyValue
 346:C:/Users/dtjld/Desktop/AIoT_software/LiteOS_Lab_overseas/LiteOS_Lab/iot_link/network/lwm2m/wakaama_lwm2m/core\data.c **** 
 347:C:/Users/dtjld/Desktop/AIoT_software/LiteOS_Lab_overseas/LiteOS_Lab/iot_link/network/lwm2m/wakaama_lwm2m/core\data.c ****             *valueP = value;
 1264              		.loc 2 347 0
 1265 00b4 B7F91230 		ldrsh	r3, [r7, #18]
 1266 00b8 1BB2     		sxth	r3, r3
 1267 00ba 4FEAE374 		asr	r4, r3, #31
 1268 00be 3A68     		ldr	r2, [r7]
 1269 00c0 C2E90034 		strd	r3, [r2]
 348:C:/Users/dtjld/Desktop/AIoT_software/LiteOS_Lab_overseas/LiteOS_Lab/iot_link/network/lwm2m/wakaama_lwm2m/core\data.c ****             result = 1;
 1270              		.loc 2 348 0
 1271 00c4 0123     		movs	r3, #1
 1272 00c6 7B61     		str	r3, [r7, #20]
 349:C:/Users/dtjld/Desktop/AIoT_software/LiteOS_Lab_overseas/LiteOS_Lab/iot_link/network/lwm2m/wakaama_lwm2m/core\data.c ****             break;
 1273              		.loc 2 349 0
 1274 00c8 00BF     		nop
 1275 00ca 20E0     		b	.L94
 1276              	.L92:
 1277              	.LBE6:
 1278              	.LBB7:
 350:C:/Users/dtjld/Desktop/AIoT_software/LiteOS_Lab_overseas/LiteOS_Lab/iot_link/network/lwm2m/wakaama_lwm2m/core\data.c ****         }
 351:C:/Users/dtjld/Desktop/AIoT_software/LiteOS_Lab_overseas/LiteOS_Lab/iot_link/network/lwm2m/wakaama_lwm2m/core\data.c **** 
 352:C:/Users/dtjld/Desktop/AIoT_software/LiteOS_Lab_overseas/LiteOS_Lab/iot_link/network/lwm2m/wakaama_lwm2m/core\data.c ****         case 4:
 353:C:/Users/dtjld/Desktop/AIoT_software/LiteOS_Lab_overseas/LiteOS_Lab/iot_link/network/lwm2m/wakaama_lwm2m/core\data.c ****         {
 354:C:/Users/dtjld/Desktop/AIoT_software/LiteOS_Lab_overseas/LiteOS_Lab/iot_link/network/lwm2m/wakaama_lwm2m/core\data.c ****             int32_t value;
 355:C:/Users/dtjld/Desktop/AIoT_software/LiteOS_Lab_overseas/LiteOS_Lab/iot_link/network/lwm2m/wakaama_lwm2m/core\data.c **** 
 356:C:/Users/dtjld/Desktop/AIoT_software/LiteOS_Lab_overseas/LiteOS_Lab/iot_link/network/lwm2m/wakaama_lwm2m/core\data.c ****             utils_copyValue(&value, dataP->value.asBuffer.buffer, dataP->value.asBuffer.length);
 1279              		.loc 2 356 0
 1280 00cc 7B68     		ldr	r3, [r7, #4]
 1281 00ce D968     		ldr	r1, [r3, #12]
 1282 00d0 7B68     		ldr	r3, [r7, #4]
 1283 00d2 9A68     		ldr	r2, [r3, #8]
 1284 00d4 07F10C03 		add	r3, r7, #12
 1285 00d8 1846     		mov	r0, r3
 1286 00da FFF7FEFF 		bl	utils_copyValue
 357:C:/Users/dtjld/Desktop/AIoT_software/LiteOS_Lab_overseas/LiteOS_Lab/iot_link/network/lwm2m/wakaama_lwm2m/core\data.c **** 
 358:C:/Users/dtjld/Desktop/AIoT_software/LiteOS_Lab_overseas/LiteOS_Lab/iot_link/network/lwm2m/wakaama_lwm2m/core\data.c ****             *valueP = value;
 1287              		.loc 2 358 0
 1288 00de FB68     		ldr	r3, [r7, #12]
 1289 00e0 4FEAE374 		asr	r4, r3, #31
 1290 00e4 3A68     		ldr	r2, [r7]
 1291 00e6 C2E90034 		strd	r3, [r2]
 359:C:/Users/dtjld/Desktop/AIoT_software/LiteOS_Lab_overseas/LiteOS_Lab/iot_link/network/lwm2m/wakaama_lwm2m/core\data.c ****             result = 1;
 1292              		.loc 2 359 0
 1293 00ea 0123     		movs	r3, #1
 1294 00ec 7B61     		str	r3, [r7, #20]
 360:C:/Users/dtjld/Desktop/AIoT_software/LiteOS_Lab_overseas/LiteOS_Lab/iot_link/network/lwm2m/wakaama_lwm2m/core\data.c ****             break;
 1295              		.loc 2 360 0
ARM GAS  C:\Users\dtjld\AppData\Local\Temp\ccLN8Itk.s 			page 37


 1296 00ee 00BF     		nop
 1297 00f0 0DE0     		b	.L94
 1298              	.L93:
 1299              	.LBE7:
 361:C:/Users/dtjld/Desktop/AIoT_software/LiteOS_Lab_overseas/LiteOS_Lab/iot_link/network/lwm2m/wakaama_lwm2m/core\data.c ****         }
 362:C:/Users/dtjld/Desktop/AIoT_software/LiteOS_Lab_overseas/LiteOS_Lab/iot_link/network/lwm2m/wakaama_lwm2m/core\data.c **** 
 363:C:/Users/dtjld/Desktop/AIoT_software/LiteOS_Lab_overseas/LiteOS_Lab/iot_link/network/lwm2m/wakaama_lwm2m/core\data.c ****         case 8:
 364:C:/Users/dtjld/Desktop/AIoT_software/LiteOS_Lab_overseas/LiteOS_Lab/iot_link/network/lwm2m/wakaama_lwm2m/core\data.c ****             utils_copyValue(valueP, dataP->value.asBuffer.buffer, dataP->value.asBuffer.length);
 1300              		.loc 2 364 0
 1301 00f2 7B68     		ldr	r3, [r7, #4]
 1302 00f4 D968     		ldr	r1, [r3, #12]
 1303 00f6 7B68     		ldr	r3, [r7, #4]
 1304 00f8 9B68     		ldr	r3, [r3, #8]
 1305 00fa 1A46     		mov	r2, r3
 1306 00fc 3868     		ldr	r0, [r7]
 1307 00fe FFF7FEFF 		bl	utils_copyValue
 365:C:/Users/dtjld/Desktop/AIoT_software/LiteOS_Lab_overseas/LiteOS_Lab/iot_link/network/lwm2m/wakaama_lwm2m/core\data.c ****             result = 1;
 1308              		.loc 2 365 0
 1309 0102 0123     		movs	r3, #1
 1310 0104 7B61     		str	r3, [r7, #20]
 366:C:/Users/dtjld/Desktop/AIoT_software/LiteOS_Lab_overseas/LiteOS_Lab/iot_link/network/lwm2m/wakaama_lwm2m/core\data.c ****             break;
 1311              		.loc 2 366 0
 1312 0106 02E0     		b	.L94
 1313              	.L88:
 367:C:/Users/dtjld/Desktop/AIoT_software/LiteOS_Lab_overseas/LiteOS_Lab/iot_link/network/lwm2m/wakaama_lwm2m/core\data.c **** 
 368:C:/Users/dtjld/Desktop/AIoT_software/LiteOS_Lab_overseas/LiteOS_Lab/iot_link/network/lwm2m/wakaama_lwm2m/core\data.c ****         default:
 369:C:/Users/dtjld/Desktop/AIoT_software/LiteOS_Lab_overseas/LiteOS_Lab/iot_link/network/lwm2m/wakaama_lwm2m/core\data.c ****             result = 0;
 1314              		.loc 2 369 0
 1315 0108 0023     		movs	r3, #0
 1316 010a 7B61     		str	r3, [r7, #20]
 370:C:/Users/dtjld/Desktop/AIoT_software/LiteOS_Lab_overseas/LiteOS_Lab/iot_link/network/lwm2m/wakaama_lwm2m/core\data.c ****         }
 371:C:/Users/dtjld/Desktop/AIoT_software/LiteOS_Lab_overseas/LiteOS_Lab/iot_link/network/lwm2m/wakaama_lwm2m/core\data.c ****         break;
 1317              		.loc 2 371 0
 1318 010c 02E0     		b	.L87
 1319              	.L94:
 1320 010e 01E0     		b	.L87
 1321              	.L96:
 372:C:/Users/dtjld/Desktop/AIoT_software/LiteOS_Lab_overseas/LiteOS_Lab/iot_link/network/lwm2m/wakaama_lwm2m/core\data.c **** 
 373:C:/Users/dtjld/Desktop/AIoT_software/LiteOS_Lab_overseas/LiteOS_Lab/iot_link/network/lwm2m/wakaama_lwm2m/core\data.c ****     default:
 374:C:/Users/dtjld/Desktop/AIoT_software/LiteOS_Lab_overseas/LiteOS_Lab/iot_link/network/lwm2m/wakaama_lwm2m/core\data.c ****         return 0;
 1322              		.loc 2 374 0
 1323 0110 0023     		movs	r3, #0
 1324 0112 12E0     		b	.L95
 1325              	.L87:
 375:C:/Users/dtjld/Desktop/AIoT_software/LiteOS_Lab_overseas/LiteOS_Lab/iot_link/network/lwm2m/wakaama_lwm2m/core\data.c ****     }
 376:C:/Users/dtjld/Desktop/AIoT_software/LiteOS_Lab_overseas/LiteOS_Lab/iot_link/network/lwm2m/wakaama_lwm2m/core\data.c ****     LOG_ARG("result: %d, value: %" PRId64, result, *valueP);
 1326              		.loc 2 376 0
 1327 0114 FFF7FEFF 		bl	lwm2m_gettime
 1328 0118 0346     		mov	r3, r0
 1329 011a 0C46     		mov	r4, r1
 1330 011c 1946     		mov	r1, r3
 1331 011e 3B68     		ldr	r3, [r7]
 1332 0120 D3E90034 		ldrd	r3, [r3]
 1333 0124 CDE90234 		strd	r3, [sp, #8]
 1334 0128 7B69     		ldr	r3, [r7, #20]
 1335 012a 0093     		str	r3, [sp]
 1336 012c 4FF4BC73 		mov	r3, #376
ARM GAS  C:\Users\dtjld\AppData\Local\Temp\ccLN8Itk.s 			page 38


 1337 0130 044A     		ldr	r2, .L97
 1338 0132 0648     		ldr	r0, .L97+8
 1339 0134 FFF7FEFF 		bl	atiny_printf
 377:C:/Users/dtjld/Desktop/AIoT_software/LiteOS_Lab_overseas/LiteOS_Lab/iot_link/network/lwm2m/wakaama_lwm2m/core\data.c **** 
 378:C:/Users/dtjld/Desktop/AIoT_software/LiteOS_Lab_overseas/LiteOS_Lab/iot_link/network/lwm2m/wakaama_lwm2m/core\data.c ****     return result;
 1340              		.loc 2 378 0
 1341 0138 7B69     		ldr	r3, [r7, #20]
 1342              	.L95:
 379:C:/Users/dtjld/Desktop/AIoT_software/LiteOS_Lab_overseas/LiteOS_Lab/iot_link/network/lwm2m/wakaama_lwm2m/core\data.c **** }
 1343              		.loc 2 379 0
 1344 013a 1846     		mov	r0, r3
 1345 013c 1C37     		adds	r7, r7, #28
 1346              	.LCFI54:
 1347              		.cfi_def_cfa_offset 12
 1348 013e BD46     		mov	sp, r7
 1349              	.LCFI55:
 1350              		.cfi_def_cfa_register 13
 1351              		@ sp needed
 1352 0140 90BD     		pop	{r4, r7, pc}
 1353              	.L98:
 1354 0142 00BF     		.align	2
 1355              	.L97:
 1356 0144 00000000 		.word	__func__.8584
 1357 0148 8C000000 		.word	.LC5
 1358 014c A4000000 		.word	.LC6
 1359              		.cfi_endproc
 1360              	.LFE13:
 1362              		.section	.rodata
 1363 00ca 0000     		.align	2
 1364              	.LC7:
 1365 00cc 5B25645D 		.ascii	"[%d][%s:%d] value: %f\015\012\000"
 1365      5B25733A 
 1365      25645D20 
 1365      76616C75 
 1365      653A2025 
 1366              		.section	.text.lwm2m_data_encode_float,"ax",%progbits
 1367              		.align	1
 1368              		.global	lwm2m_data_encode_float
 1369              		.syntax unified
 1370              		.thumb
 1371              		.thumb_func
 1372              		.fpu fpv4-sp-d16
 1374              	lwm2m_data_encode_float:
 1375              	.LFB14:
 380:C:/Users/dtjld/Desktop/AIoT_software/LiteOS_Lab_overseas/LiteOS_Lab/iot_link/network/lwm2m/wakaama_lwm2m/core\data.c **** 
 381:C:/Users/dtjld/Desktop/AIoT_software/LiteOS_Lab_overseas/LiteOS_Lab/iot_link/network/lwm2m/wakaama_lwm2m/core\data.c **** void lwm2m_data_encode_float(double value,
 382:C:/Users/dtjld/Desktop/AIoT_software/LiteOS_Lab_overseas/LiteOS_Lab/iot_link/network/lwm2m/wakaama_lwm2m/core\data.c ****                              lwm2m_data_t *dataP)
 383:C:/Users/dtjld/Desktop/AIoT_software/LiteOS_Lab_overseas/LiteOS_Lab/iot_link/network/lwm2m/wakaama_lwm2m/core\data.c **** {
 1376              		.loc 2 383 0
 1377              		.cfi_startproc
 1378              		@ args = 0, pretend = 0, frame = 16
 1379              		@ frame_needed = 1, uses_anonymous_args = 0
 1380 0000 90B5     		push	{r4, r7, lr}
 1381              	.LCFI56:
 1382              		.cfi_def_cfa_offset 12
 1383              		.cfi_offset 4, -12
 1384              		.cfi_offset 7, -8
ARM GAS  C:\Users\dtjld\AppData\Local\Temp\ccLN8Itk.s 			page 39


 1385              		.cfi_offset 14, -4
 1386 0002 87B0     		sub	sp, sp, #28
 1387              	.LCFI57:
 1388              		.cfi_def_cfa_offset 40
 1389 0004 02AF     		add	r7, sp, #8
 1390              	.LCFI58:
 1391              		.cfi_def_cfa 7, 32
 1392 0006 87ED020B 		vstr.64	d0, [r7, #8]
 1393 000a 7860     		str	r0, [r7, #4]
 384:C:/Users/dtjld/Desktop/AIoT_software/LiteOS_Lab_overseas/LiteOS_Lab/iot_link/network/lwm2m/wakaama_lwm2m/core\data.c ****     LOG_ARG("value: %f", value);
 1394              		.loc 2 384 0
 1395 000c FFF7FEFF 		bl	lwm2m_gettime
 1396 0010 0346     		mov	r3, r0
 1397 0012 0C46     		mov	r4, r1
 1398 0014 1946     		mov	r1, r3
 1399 0016 D7E90234 		ldrd	r3, [r7, #8]
 1400 001a CDE90034 		strd	r3, [sp]
 1401 001e 4FF4C073 		mov	r3, #384
 1402 0022 084A     		ldr	r2, .L100
 1403 0024 0848     		ldr	r0, .L100+4
 1404 0026 FFF7FEFF 		bl	atiny_printf
 385:C:/Users/dtjld/Desktop/AIoT_software/LiteOS_Lab_overseas/LiteOS_Lab/iot_link/network/lwm2m/wakaama_lwm2m/core\data.c ****     dataP->type = LWM2M_TYPE_FLOAT;
 1405              		.loc 2 385 0
 1406 002a 7B68     		ldr	r3, [r7, #4]
 1407 002c 0722     		movs	r2, #7
 1408 002e 1A70     		strb	r2, [r3]
 386:C:/Users/dtjld/Desktop/AIoT_software/LiteOS_Lab_overseas/LiteOS_Lab/iot_link/network/lwm2m/wakaama_lwm2m/core\data.c ****     dataP->value.asFloat = value;
 1409              		.loc 2 386 0
 1410 0030 7A68     		ldr	r2, [r7, #4]
 1411 0032 D7E90234 		ldrd	r3, [r7, #8]
 1412 0036 C2E90234 		strd	r3, [r2, #8]
 387:C:/Users/dtjld/Desktop/AIoT_software/LiteOS_Lab_overseas/LiteOS_Lab/iot_link/network/lwm2m/wakaama_lwm2m/core\data.c **** }
 1413              		.loc 2 387 0
 1414 003a 00BF     		nop
 1415 003c 1437     		adds	r7, r7, #20
 1416              	.LCFI59:
 1417              		.cfi_def_cfa_offset 12
 1418 003e BD46     		mov	sp, r7
 1419              	.LCFI60:
 1420              		.cfi_def_cfa_register 13
 1421              		@ sp needed
 1422 0040 90BD     		pop	{r4, r7, pc}
 1423              	.L101:
 1424 0042 00BF     		.align	2
 1425              	.L100:
 1426 0044 00000000 		.word	__func__.8602
 1427 0048 CC000000 		.word	.LC7
 1428              		.cfi_endproc
 1429              	.LFE14:
 1431              		.global	__aeabi_l2d
 1432              		.global	__aeabi_f2d
 1433              		.section	.rodata
 1434              		.align	2
 1435              	.LC8:
 1436 00e4 5B25645D 		.ascii	"[%d][%s:%d] result: %d, value: %f\015\012\000"
 1436      5B25733A 
 1436      25645D20 
ARM GAS  C:\Users\dtjld\AppData\Local\Temp\ccLN8Itk.s 			page 40


 1436      72657375 
 1436      6C743A20 
 1437              		.section	.text.lwm2m_data_decode_float,"ax",%progbits
 1438              		.align	1
 1439              		.global	lwm2m_data_decode_float
 1440              		.syntax unified
 1441              		.thumb
 1442              		.thumb_func
 1443              		.fpu fpv4-sp-d16
 1445              	lwm2m_data_decode_float:
 1446              	.LFB15:
 388:C:/Users/dtjld/Desktop/AIoT_software/LiteOS_Lab_overseas/LiteOS_Lab/iot_link/network/lwm2m/wakaama_lwm2m/core\data.c **** 
 389:C:/Users/dtjld/Desktop/AIoT_software/LiteOS_Lab_overseas/LiteOS_Lab/iot_link/network/lwm2m/wakaama_lwm2m/core\data.c **** int lwm2m_data_decode_float(const lwm2m_data_t *dataP,
 390:C:/Users/dtjld/Desktop/AIoT_software/LiteOS_Lab_overseas/LiteOS_Lab/iot_link/network/lwm2m/wakaama_lwm2m/core\data.c ****                             double *valueP)
 391:C:/Users/dtjld/Desktop/AIoT_software/LiteOS_Lab_overseas/LiteOS_Lab/iot_link/network/lwm2m/wakaama_lwm2m/core\data.c **** {
 1447              		.loc 2 391 0
 1448              		.cfi_startproc
 1449              		@ args = 0, pretend = 0, frame = 16
 1450              		@ frame_needed = 1, uses_anonymous_args = 0
 1451 0000 90B5     		push	{r4, r7, lr}
 1452              	.LCFI61:
 1453              		.cfi_def_cfa_offset 12
 1454              		.cfi_offset 4, -12
 1455              		.cfi_offset 7, -8
 1456              		.cfi_offset 14, -4
 1457 0002 89B0     		sub	sp, sp, #36
 1458              	.LCFI62:
 1459              		.cfi_def_cfa_offset 48
 1460 0004 04AF     		add	r7, sp, #16
 1461              	.LCFI63:
 1462              		.cfi_def_cfa 7, 32
 1463 0006 7860     		str	r0, [r7, #4]
 1464 0008 3960     		str	r1, [r7]
 392:C:/Users/dtjld/Desktop/AIoT_software/LiteOS_Lab_overseas/LiteOS_Lab/iot_link/network/lwm2m/wakaama_lwm2m/core\data.c ****     int result;
 393:C:/Users/dtjld/Desktop/AIoT_software/LiteOS_Lab_overseas/LiteOS_Lab/iot_link/network/lwm2m/wakaama_lwm2m/core\data.c **** 
 394:C:/Users/dtjld/Desktop/AIoT_software/LiteOS_Lab_overseas/LiteOS_Lab/iot_link/network/lwm2m/wakaama_lwm2m/core\data.c ****     LOG("Entering");
 1465              		.loc 2 394 0
 1466 000a FFF7FEFF 		bl	lwm2m_gettime
 1467 000e 0346     		mov	r3, r0
 1468 0010 0C46     		mov	r4, r1
 1469 0012 1946     		mov	r1, r3
 1470 0014 4FF4C573 		mov	r3, #394
 1471 0018 3C4A     		ldr	r2, .L116
 1472 001a 3D48     		ldr	r0, .L116+4
 1473 001c FFF7FEFF 		bl	atiny_printf
 395:C:/Users/dtjld/Desktop/AIoT_software/LiteOS_Lab_overseas/LiteOS_Lab/iot_link/network/lwm2m/wakaama_lwm2m/core\data.c ****     switch (dataP->type)
 1474              		.loc 2 395 0
 1475 0020 7B68     		ldr	r3, [r7, #4]
 1476 0022 1B78     		ldrb	r3, [r3]	@ zero_extendqisi2
 1477 0024 043B     		subs	r3, r3, #4
 1478 0026 032B     		cmp	r3, #3
 1479 0028 57D8     		bhi	.L103
 1480 002a 01A2     		adr	r2, .L105
 1481 002c 52F823F0 		ldr	pc, [r2, r3, lsl #2]
 1482              		.p2align 2
 1483              	.L105:
 1484 0030 71000000 		.word	.L104+1
ARM GAS  C:\Users\dtjld\AppData\Local\Temp\ccLN8Itk.s 			page 41


 1485 0034 85000000 		.word	.L106+1
 1486 0038 53000000 		.word	.L107+1
 1487 003c 41000000 		.word	.L108+1
 1488              		.p2align 1
 1489              	.L108:
 396:C:/Users/dtjld/Desktop/AIoT_software/LiteOS_Lab_overseas/LiteOS_Lab/iot_link/network/lwm2m/wakaama_lwm2m/core\data.c ****     {
 397:C:/Users/dtjld/Desktop/AIoT_software/LiteOS_Lab_overseas/LiteOS_Lab/iot_link/network/lwm2m/wakaama_lwm2m/core\data.c ****     case LWM2M_TYPE_FLOAT:
 398:C:/Users/dtjld/Desktop/AIoT_software/LiteOS_Lab_overseas/LiteOS_Lab/iot_link/network/lwm2m/wakaama_lwm2m/core\data.c ****         *valueP = dataP->value.asFloat;
 1490              		.loc 2 398 0
 1491 0040 7B68     		ldr	r3, [r7, #4]
 1492 0042 D3E90234 		ldrd	r3, [r3, #8]
 1493 0046 3A68     		ldr	r2, [r7]
 1494 0048 C2E90034 		strd	r3, [r2]
 399:C:/Users/dtjld/Desktop/AIoT_software/LiteOS_Lab_overseas/LiteOS_Lab/iot_link/network/lwm2m/wakaama_lwm2m/core\data.c ****         result = 1;
 1495              		.loc 2 399 0
 1496 004c 0123     		movs	r3, #1
 1497 004e FB60     		str	r3, [r7, #12]
 400:C:/Users/dtjld/Desktop/AIoT_software/LiteOS_Lab_overseas/LiteOS_Lab/iot_link/network/lwm2m/wakaama_lwm2m/core\data.c ****         break;
 1498              		.loc 2 400 0
 1499 0050 45E0     		b	.L109
 1500              	.L107:
 401:C:/Users/dtjld/Desktop/AIoT_software/LiteOS_Lab_overseas/LiteOS_Lab/iot_link/network/lwm2m/wakaama_lwm2m/core\data.c **** 
 402:C:/Users/dtjld/Desktop/AIoT_software/LiteOS_Lab_overseas/LiteOS_Lab/iot_link/network/lwm2m/wakaama_lwm2m/core\data.c ****     case LWM2M_TYPE_INTEGER:
 403:C:/Users/dtjld/Desktop/AIoT_software/LiteOS_Lab_overseas/LiteOS_Lab/iot_link/network/lwm2m/wakaama_lwm2m/core\data.c ****         *valueP = (double)dataP->value.asInteger;
 1501              		.loc 2 403 0
 1502 0052 7B68     		ldr	r3, [r7, #4]
 1503 0054 D3E90234 		ldrd	r3, [r3, #8]
 1504 0058 1846     		mov	r0, r3
 1505 005a 2146     		mov	r1, r4
 1506 005c FFF7FEFF 		bl	__aeabi_l2d
 1507              	.LVL0:
 1508 0060 0346     		mov	r3, r0
 1509 0062 0C46     		mov	r4, r1
 1510 0064 3A68     		ldr	r2, [r7]
 1511 0066 C2E90034 		strd	r3, [r2]
 404:C:/Users/dtjld/Desktop/AIoT_software/LiteOS_Lab_overseas/LiteOS_Lab/iot_link/network/lwm2m/wakaama_lwm2m/core\data.c ****         result = 1;
 1512              		.loc 2 404 0
 1513 006a 0123     		movs	r3, #1
 1514 006c FB60     		str	r3, [r7, #12]
 405:C:/Users/dtjld/Desktop/AIoT_software/LiteOS_Lab_overseas/LiteOS_Lab/iot_link/network/lwm2m/wakaama_lwm2m/core\data.c ****         break;
 1515              		.loc 2 405 0
 1516 006e 36E0     		b	.L109
 1517              	.L104:
 406:C:/Users/dtjld/Desktop/AIoT_software/LiteOS_Lab_overseas/LiteOS_Lab/iot_link/network/lwm2m/wakaama_lwm2m/core\data.c **** 
 407:C:/Users/dtjld/Desktop/AIoT_software/LiteOS_Lab_overseas/LiteOS_Lab/iot_link/network/lwm2m/wakaama_lwm2m/core\data.c ****     case LWM2M_TYPE_STRING:
 408:C:/Users/dtjld/Desktop/AIoT_software/LiteOS_Lab_overseas/LiteOS_Lab/iot_link/network/lwm2m/wakaama_lwm2m/core\data.c ****         result = utils_textToFloat(dataP->value.asBuffer.buffer, dataP->value.asBuffer.length, valu
 1518              		.loc 2 408 0
 1519 0070 7B68     		ldr	r3, [r7, #4]
 1520 0072 D868     		ldr	r0, [r3, #12]
 1521 0074 7B68     		ldr	r3, [r7, #4]
 1522 0076 9B68     		ldr	r3, [r3, #8]
 1523 0078 3A68     		ldr	r2, [r7]
 1524 007a 1946     		mov	r1, r3
 1525 007c FFF7FEFF 		bl	utils_textToFloat
 1526 0080 F860     		str	r0, [r7, #12]
 409:C:/Users/dtjld/Desktop/AIoT_software/LiteOS_Lab_overseas/LiteOS_Lab/iot_link/network/lwm2m/wakaama_lwm2m/core\data.c ****         break;
 1527              		.loc 2 409 0
ARM GAS  C:\Users\dtjld\AppData\Local\Temp\ccLN8Itk.s 			page 42


 1528 0082 2CE0     		b	.L109
 1529              	.L106:
 410:C:/Users/dtjld/Desktop/AIoT_software/LiteOS_Lab_overseas/LiteOS_Lab/iot_link/network/lwm2m/wakaama_lwm2m/core\data.c **** 
 411:C:/Users/dtjld/Desktop/AIoT_software/LiteOS_Lab_overseas/LiteOS_Lab/iot_link/network/lwm2m/wakaama_lwm2m/core\data.c ****     case LWM2M_TYPE_OPAQUE:
 412:C:/Users/dtjld/Desktop/AIoT_software/LiteOS_Lab_overseas/LiteOS_Lab/iot_link/network/lwm2m/wakaama_lwm2m/core\data.c ****         switch (dataP->value.asBuffer.length)
 1530              		.loc 2 412 0
 1531 0084 7B68     		ldr	r3, [r7, #4]
 1532 0086 9B68     		ldr	r3, [r3, #8]
 1533 0088 042B     		cmp	r3, #4
 1534 008a 02D0     		beq	.L111
 1535 008c 082B     		cmp	r3, #8
 1536 008e 15D0     		beq	.L112
 1537 0090 1FE0     		b	.L115
 1538              	.L111:
 1539              	.LBB8:
 413:C:/Users/dtjld/Desktop/AIoT_software/LiteOS_Lab_overseas/LiteOS_Lab/iot_link/network/lwm2m/wakaama_lwm2m/core\data.c ****         {
 414:C:/Users/dtjld/Desktop/AIoT_software/LiteOS_Lab_overseas/LiteOS_Lab/iot_link/network/lwm2m/wakaama_lwm2m/core\data.c ****         case 4:
 415:C:/Users/dtjld/Desktop/AIoT_software/LiteOS_Lab_overseas/LiteOS_Lab/iot_link/network/lwm2m/wakaama_lwm2m/core\data.c ****         {
 416:C:/Users/dtjld/Desktop/AIoT_software/LiteOS_Lab_overseas/LiteOS_Lab/iot_link/network/lwm2m/wakaama_lwm2m/core\data.c ****             float temp;
 417:C:/Users/dtjld/Desktop/AIoT_software/LiteOS_Lab_overseas/LiteOS_Lab/iot_link/network/lwm2m/wakaama_lwm2m/core\data.c **** 
 418:C:/Users/dtjld/Desktop/AIoT_software/LiteOS_Lab_overseas/LiteOS_Lab/iot_link/network/lwm2m/wakaama_lwm2m/core\data.c ****             utils_copyValue(&temp, dataP->value.asBuffer.buffer, dataP->value.asBuffer.length);
 1540              		.loc 2 418 0
 1541 0092 7B68     		ldr	r3, [r7, #4]
 1542 0094 D968     		ldr	r1, [r3, #12]
 1543 0096 7B68     		ldr	r3, [r7, #4]
 1544 0098 9A68     		ldr	r2, [r3, #8]
 1545 009a 07F10803 		add	r3, r7, #8
 1546 009e 1846     		mov	r0, r3
 1547 00a0 FFF7FEFF 		bl	utils_copyValue
 419:C:/Users/dtjld/Desktop/AIoT_software/LiteOS_Lab_overseas/LiteOS_Lab/iot_link/network/lwm2m/wakaama_lwm2m/core\data.c **** 
 420:C:/Users/dtjld/Desktop/AIoT_software/LiteOS_Lab_overseas/LiteOS_Lab/iot_link/network/lwm2m/wakaama_lwm2m/core\data.c ****             *valueP = temp;
 1548              		.loc 2 420 0
 1549 00a4 BB68     		ldr	r3, [r7, #8]	@ float
 1550 00a6 1846     		mov	r0, r3	@ float
 1551 00a8 FFF7FEFF 		bl	__aeabi_f2d
 1552              	.LVL1:
 1553 00ac 0346     		mov	r3, r0
 1554 00ae 0C46     		mov	r4, r1
 1555 00b0 3A68     		ldr	r2, [r7]
 1556 00b2 C2E90034 		strd	r3, [r2]
 421:C:/Users/dtjld/Desktop/AIoT_software/LiteOS_Lab_overseas/LiteOS_Lab/iot_link/network/lwm2m/wakaama_lwm2m/core\data.c ****             result = 1;
 1557              		.loc 2 421 0
 1558 00b6 0123     		movs	r3, #1
 1559 00b8 FB60     		str	r3, [r7, #12]
 1560              	.LBE8:
 422:C:/Users/dtjld/Desktop/AIoT_software/LiteOS_Lab_overseas/LiteOS_Lab/iot_link/network/lwm2m/wakaama_lwm2m/core\data.c ****         }
 423:C:/Users/dtjld/Desktop/AIoT_software/LiteOS_Lab_overseas/LiteOS_Lab/iot_link/network/lwm2m/wakaama_lwm2m/core\data.c ****         break;
 1561              		.loc 2 423 0
 1562 00ba 0DE0     		b	.L113
 1563              	.L112:
 424:C:/Users/dtjld/Desktop/AIoT_software/LiteOS_Lab_overseas/LiteOS_Lab/iot_link/network/lwm2m/wakaama_lwm2m/core\data.c **** 
 425:C:/Users/dtjld/Desktop/AIoT_software/LiteOS_Lab_overseas/LiteOS_Lab/iot_link/network/lwm2m/wakaama_lwm2m/core\data.c ****         case 8:
 426:C:/Users/dtjld/Desktop/AIoT_software/LiteOS_Lab_overseas/LiteOS_Lab/iot_link/network/lwm2m/wakaama_lwm2m/core\data.c ****             utils_copyValue(valueP, dataP->value.asBuffer.buffer, dataP->value.asBuffer.length);
 1564              		.loc 2 426 0
 1565 00bc 7B68     		ldr	r3, [r7, #4]
 1566 00be D968     		ldr	r1, [r3, #12]
 1567 00c0 7B68     		ldr	r3, [r7, #4]
ARM GAS  C:\Users\dtjld\AppData\Local\Temp\ccLN8Itk.s 			page 43


 1568 00c2 9B68     		ldr	r3, [r3, #8]
 1569 00c4 1A46     		mov	r2, r3
 1570 00c6 3868     		ldr	r0, [r7]
 1571 00c8 FFF7FEFF 		bl	utils_copyValue
 427:C:/Users/dtjld/Desktop/AIoT_software/LiteOS_Lab_overseas/LiteOS_Lab/iot_link/network/lwm2m/wakaama_lwm2m/core\data.c ****             result = 1;
 1572              		.loc 2 427 0
 1573 00cc 0123     		movs	r3, #1
 1574 00ce FB60     		str	r3, [r7, #12]
 428:C:/Users/dtjld/Desktop/AIoT_software/LiteOS_Lab_overseas/LiteOS_Lab/iot_link/network/lwm2m/wakaama_lwm2m/core\data.c ****             break;
 1575              		.loc 2 428 0
 1576 00d0 02E0     		b	.L113
 1577              	.L115:
 429:C:/Users/dtjld/Desktop/AIoT_software/LiteOS_Lab_overseas/LiteOS_Lab/iot_link/network/lwm2m/wakaama_lwm2m/core\data.c **** 
 430:C:/Users/dtjld/Desktop/AIoT_software/LiteOS_Lab_overseas/LiteOS_Lab/iot_link/network/lwm2m/wakaama_lwm2m/core\data.c ****         default:
 431:C:/Users/dtjld/Desktop/AIoT_software/LiteOS_Lab_overseas/LiteOS_Lab/iot_link/network/lwm2m/wakaama_lwm2m/core\data.c ****             result = 0;
 1578              		.loc 2 431 0
 1579 00d2 0023     		movs	r3, #0
 1580 00d4 FB60     		str	r3, [r7, #12]
 432:C:/Users/dtjld/Desktop/AIoT_software/LiteOS_Lab_overseas/LiteOS_Lab/iot_link/network/lwm2m/wakaama_lwm2m/core\data.c ****         }
 433:C:/Users/dtjld/Desktop/AIoT_software/LiteOS_Lab_overseas/LiteOS_Lab/iot_link/network/lwm2m/wakaama_lwm2m/core\data.c ****         break;
 1581              		.loc 2 433 0
 1582 00d6 02E0     		b	.L109
 1583              	.L113:
 1584 00d8 01E0     		b	.L109
 1585              	.L103:
 434:C:/Users/dtjld/Desktop/AIoT_software/LiteOS_Lab_overseas/LiteOS_Lab/iot_link/network/lwm2m/wakaama_lwm2m/core\data.c **** 
 435:C:/Users/dtjld/Desktop/AIoT_software/LiteOS_Lab_overseas/LiteOS_Lab/iot_link/network/lwm2m/wakaama_lwm2m/core\data.c ****     default:
 436:C:/Users/dtjld/Desktop/AIoT_software/LiteOS_Lab_overseas/LiteOS_Lab/iot_link/network/lwm2m/wakaama_lwm2m/core\data.c ****         result = 0;
 1586              		.loc 2 436 0
 1587 00da 0023     		movs	r3, #0
 1588 00dc FB60     		str	r3, [r7, #12]
 1589              	.L109:
 437:C:/Users/dtjld/Desktop/AIoT_software/LiteOS_Lab_overseas/LiteOS_Lab/iot_link/network/lwm2m/wakaama_lwm2m/core\data.c ****     }
 438:C:/Users/dtjld/Desktop/AIoT_software/LiteOS_Lab_overseas/LiteOS_Lab/iot_link/network/lwm2m/wakaama_lwm2m/core\data.c **** 
 439:C:/Users/dtjld/Desktop/AIoT_software/LiteOS_Lab_overseas/LiteOS_Lab/iot_link/network/lwm2m/wakaama_lwm2m/core\data.c ****     LOG_ARG("result: %d, value: %f", result, *valueP);
 1590              		.loc 2 439 0
 1591 00de FFF7FEFF 		bl	lwm2m_gettime
 1592 00e2 0346     		mov	r3, r0
 1593 00e4 0C46     		mov	r4, r1
 1594 00e6 1946     		mov	r1, r3
 1595 00e8 3B68     		ldr	r3, [r7]
 1596 00ea D3E90034 		ldrd	r3, [r3]
 1597 00ee CDE90234 		strd	r3, [sp, #8]
 1598 00f2 FB68     		ldr	r3, [r7, #12]
 1599 00f4 0093     		str	r3, [sp]
 1600 00f6 40F2B713 		movw	r3, #439
 1601 00fa 044A     		ldr	r2, .L116
 1602 00fc 0548     		ldr	r0, .L116+8
 1603 00fe FFF7FEFF 		bl	atiny_printf
 440:C:/Users/dtjld/Desktop/AIoT_software/LiteOS_Lab_overseas/LiteOS_Lab/iot_link/network/lwm2m/wakaama_lwm2m/core\data.c **** 
 441:C:/Users/dtjld/Desktop/AIoT_software/LiteOS_Lab_overseas/LiteOS_Lab/iot_link/network/lwm2m/wakaama_lwm2m/core\data.c ****     return result;
 1604              		.loc 2 441 0
 1605 0102 FB68     		ldr	r3, [r7, #12]
 442:C:/Users/dtjld/Desktop/AIoT_software/LiteOS_Lab_overseas/LiteOS_Lab/iot_link/network/lwm2m/wakaama_lwm2m/core\data.c **** }
 1606              		.loc 2 442 0
 1607 0104 1846     		mov	r0, r3
 1608 0106 1437     		adds	r7, r7, #20
ARM GAS  C:\Users\dtjld\AppData\Local\Temp\ccLN8Itk.s 			page 44


 1609              	.LCFI64:
 1610              		.cfi_def_cfa_offset 12
 1611 0108 BD46     		mov	sp, r7
 1612              	.LCFI65:
 1613              		.cfi_def_cfa_register 13
 1614              		@ sp needed
 1615 010a 90BD     		pop	{r4, r7, pc}
 1616              	.L117:
 1617              		.align	2
 1618              	.L116:
 1619 010c 00000000 		.word	__func__.8608
 1620 0110 8C000000 		.word	.LC5
 1621 0114 E4000000 		.word	.LC8
 1622              		.cfi_endproc
 1623              	.LFE15:
 1625              		.section	.rodata
 1626              		.align	2
 1627              	.LC9:
 1628 0108 74727565 		.ascii	"true\000"
 1628      00
 1629 010d 000000   		.align	2
 1630              	.LC10:
 1631 0110 66616C73 		.ascii	"false\000"
 1631      6500
 1632 0116 0000     		.align	2
 1633              	.LC11:
 1634 0118 5B25645D 		.ascii	"[%d][%s:%d] value: %s\015\012\000"
 1634      5B25733A 
 1634      25645D20 
 1634      76616C75 
 1634      653A2025 
 1635              		.section	.text.lwm2m_data_encode_bool,"ax",%progbits
 1636              		.align	1
 1637              		.global	lwm2m_data_encode_bool
 1638              		.syntax unified
 1639              		.thumb
 1640              		.thumb_func
 1641              		.fpu fpv4-sp-d16
 1643              	lwm2m_data_encode_bool:
 1644              	.LFB16:
 443:C:/Users/dtjld/Desktop/AIoT_software/LiteOS_Lab_overseas/LiteOS_Lab/iot_link/network/lwm2m/wakaama_lwm2m/core\data.c **** 
 444:C:/Users/dtjld/Desktop/AIoT_software/LiteOS_Lab_overseas/LiteOS_Lab/iot_link/network/lwm2m/wakaama_lwm2m/core\data.c **** void lwm2m_data_encode_bool(bool value,
 445:C:/Users/dtjld/Desktop/AIoT_software/LiteOS_Lab_overseas/LiteOS_Lab/iot_link/network/lwm2m/wakaama_lwm2m/core\data.c ****                             lwm2m_data_t *dataP)
 446:C:/Users/dtjld/Desktop/AIoT_software/LiteOS_Lab_overseas/LiteOS_Lab/iot_link/network/lwm2m/wakaama_lwm2m/core\data.c **** {
 1645              		.loc 2 446 0
 1646              		.cfi_startproc
 1647              		@ args = 0, pretend = 0, frame = 8
 1648              		@ frame_needed = 1, uses_anonymous_args = 0
 1649 0000 90B5     		push	{r4, r7, lr}
 1650              	.LCFI66:
 1651              		.cfi_def_cfa_offset 12
 1652              		.cfi_offset 4, -12
 1653              		.cfi_offset 7, -8
 1654              		.cfi_offset 14, -4
 1655 0002 85B0     		sub	sp, sp, #20
 1656              	.LCFI67:
 1657              		.cfi_def_cfa_offset 32
ARM GAS  C:\Users\dtjld\AppData\Local\Temp\ccLN8Itk.s 			page 45


 1658 0004 02AF     		add	r7, sp, #8
 1659              	.LCFI68:
 1660              		.cfi_def_cfa 7, 24
 1661 0006 0346     		mov	r3, r0
 1662 0008 3960     		str	r1, [r7]
 1663 000a FB71     		strb	r3, [r7, #7]
 447:C:/Users/dtjld/Desktop/AIoT_software/LiteOS_Lab_overseas/LiteOS_Lab/iot_link/network/lwm2m/wakaama_lwm2m/core\data.c ****     LOG_ARG("value: %s", value ? "true" : "false");
 1664              		.loc 2 447 0
 1665 000c FFF7FEFF 		bl	lwm2m_gettime
 1666 0010 0346     		mov	r3, r0
 1667 0012 0C46     		mov	r4, r1
 1668 0014 1946     		mov	r1, r3
 1669 0016 FB79     		ldrb	r3, [r7, #7]	@ zero_extendqisi2
 1670 0018 002B     		cmp	r3, #0
 1671 001a 01D0     		beq	.L119
 1672              		.loc 2 447 0 is_stmt 0 discriminator 1
 1673 001c 094B     		ldr	r3, .L121
 1674 001e 00E0     		b	.L120
 1675              	.L119:
 1676              		.loc 2 447 0 discriminator 2
 1677 0020 094B     		ldr	r3, .L121+4
 1678              	.L120:
 1679              		.loc 2 447 0 discriminator 4
 1680 0022 0093     		str	r3, [sp]
 1681 0024 40F2BF13 		movw	r3, #447
 1682 0028 084A     		ldr	r2, .L121+8
 1683 002a 0948     		ldr	r0, .L121+12
 1684 002c FFF7FEFF 		bl	atiny_printf
 448:C:/Users/dtjld/Desktop/AIoT_software/LiteOS_Lab_overseas/LiteOS_Lab/iot_link/network/lwm2m/wakaama_lwm2m/core\data.c ****     dataP->type = LWM2M_TYPE_BOOLEAN;
 1685              		.loc 2 448 0 is_stmt 1 discriminator 4
 1686 0030 3B68     		ldr	r3, [r7]
 1687 0032 0822     		movs	r2, #8
 1688 0034 1A70     		strb	r2, [r3]
 449:C:/Users/dtjld/Desktop/AIoT_software/LiteOS_Lab_overseas/LiteOS_Lab/iot_link/network/lwm2m/wakaama_lwm2m/core\data.c ****     dataP->value.asBoolean = value;
 1689              		.loc 2 449 0 discriminator 4
 1690 0036 3B68     		ldr	r3, [r7]
 1691 0038 FA79     		ldrb	r2, [r7, #7]
 1692 003a 1A72     		strb	r2, [r3, #8]
 450:C:/Users/dtjld/Desktop/AIoT_software/LiteOS_Lab_overseas/LiteOS_Lab/iot_link/network/lwm2m/wakaama_lwm2m/core\data.c **** }
 1693              		.loc 2 450 0 discriminator 4
 1694 003c 00BF     		nop
 1695 003e 0C37     		adds	r7, r7, #12
 1696              	.LCFI69:
 1697              		.cfi_def_cfa_offset 12
 1698 0040 BD46     		mov	sp, r7
 1699              	.LCFI70:
 1700              		.cfi_def_cfa_register 13
 1701              		@ sp needed
 1702 0042 90BD     		pop	{r4, r7, pc}
 1703              	.L122:
 1704              		.align	2
 1705              	.L121:
 1706 0044 08010000 		.word	.LC9
 1707 0048 10010000 		.word	.LC10
 1708 004c 00000000 		.word	__func__.8624
 1709 0050 18010000 		.word	.LC11
 1710              		.cfi_endproc
ARM GAS  C:\Users\dtjld\AppData\Local\Temp\ccLN8Itk.s 			page 46


 1711              	.LFE16:
 1713              		.section	.rodata
 1714              		.align	2
 1715              	.LC12:
 1716 0130 5B25645D 		.ascii	"[%d][%s:%d] result: %d, value: %s\015\012\000"
 1716      5B25733A 
 1716      25645D20 
 1716      72657375 
 1716      6C743A20 
 1717              		.section	.text.lwm2m_data_decode_bool,"ax",%progbits
 1718              		.align	1
 1719              		.global	lwm2m_data_decode_bool
 1720              		.syntax unified
 1721              		.thumb
 1722              		.thumb_func
 1723              		.fpu fpv4-sp-d16
 1725              	lwm2m_data_decode_bool:
 1726              	.LFB17:
 451:C:/Users/dtjld/Desktop/AIoT_software/LiteOS_Lab_overseas/LiteOS_Lab/iot_link/network/lwm2m/wakaama_lwm2m/core\data.c **** 
 452:C:/Users/dtjld/Desktop/AIoT_software/LiteOS_Lab_overseas/LiteOS_Lab/iot_link/network/lwm2m/wakaama_lwm2m/core\data.c **** int lwm2m_data_decode_bool(const lwm2m_data_t *dataP,
 453:C:/Users/dtjld/Desktop/AIoT_software/LiteOS_Lab_overseas/LiteOS_Lab/iot_link/network/lwm2m/wakaama_lwm2m/core\data.c ****                            bool *valueP)
 454:C:/Users/dtjld/Desktop/AIoT_software/LiteOS_Lab_overseas/LiteOS_Lab/iot_link/network/lwm2m/wakaama_lwm2m/core\data.c **** {
 1727              		.loc 2 454 0
 1728              		.cfi_startproc
 1729              		@ args = 0, pretend = 0, frame = 16
 1730              		@ frame_needed = 1, uses_anonymous_args = 0
 1731 0000 90B5     		push	{r4, r7, lr}
 1732              	.LCFI71:
 1733              		.cfi_def_cfa_offset 12
 1734              		.cfi_offset 4, -12
 1735              		.cfi_offset 7, -8
 1736              		.cfi_offset 14, -4
 1737 0002 87B0     		sub	sp, sp, #28
 1738              	.LCFI72:
 1739              		.cfi_def_cfa_offset 40
 1740 0004 02AF     		add	r7, sp, #8
 1741              	.LCFI73:
 1742              		.cfi_def_cfa 7, 32
 1743 0006 7860     		str	r0, [r7, #4]
 1744 0008 3960     		str	r1, [r7]
 455:C:/Users/dtjld/Desktop/AIoT_software/LiteOS_Lab_overseas/LiteOS_Lab/iot_link/network/lwm2m/wakaama_lwm2m/core\data.c ****     int result;
 456:C:/Users/dtjld/Desktop/AIoT_software/LiteOS_Lab_overseas/LiteOS_Lab/iot_link/network/lwm2m/wakaama_lwm2m/core\data.c **** 
 457:C:/Users/dtjld/Desktop/AIoT_software/LiteOS_Lab_overseas/LiteOS_Lab/iot_link/network/lwm2m/wakaama_lwm2m/core\data.c ****     LOG("Entering");
 1745              		.loc 2 457 0
 1746 000a FFF7FEFF 		bl	lwm2m_gettime
 1747 000e 0346     		mov	r3, r0
 1748 0010 0C46     		mov	r4, r1
 1749 0012 1946     		mov	r1, r3
 1750 0014 40F2C913 		movw	r3, #457
 1751 0018 364A     		ldr	r2, .L145
 1752 001a 3748     		ldr	r0, .L145+4
 1753 001c FFF7FEFF 		bl	atiny_printf
 458:C:/Users/dtjld/Desktop/AIoT_software/LiteOS_Lab_overseas/LiteOS_Lab/iot_link/network/lwm2m/wakaama_lwm2m/core\data.c ****     switch (dataP->type)
 1754              		.loc 2 458 0
 1755 0020 7B68     		ldr	r3, [r7, #4]
 1756 0022 1B78     		ldrb	r3, [r3]	@ zero_extendqisi2
 1757 0024 052B     		cmp	r3, #5
ARM GAS  C:\Users\dtjld\AppData\Local\Temp\ccLN8Itk.s 			page 47


 1758 0026 29D0     		beq	.L125
 1759 0028 082B     		cmp	r3, #8
 1760 002a 02D0     		beq	.L126
 1761 002c 042B     		cmp	r3, #4
 1762 002e 07D0     		beq	.L127
 1763 0030 42E0     		b	.L142
 1764              	.L126:
 459:C:/Users/dtjld/Desktop/AIoT_software/LiteOS_Lab_overseas/LiteOS_Lab/iot_link/network/lwm2m/wakaama_lwm2m/core\data.c ****     {
 460:C:/Users/dtjld/Desktop/AIoT_software/LiteOS_Lab_overseas/LiteOS_Lab/iot_link/network/lwm2m/wakaama_lwm2m/core\data.c ****     case LWM2M_TYPE_BOOLEAN:
 461:C:/Users/dtjld/Desktop/AIoT_software/LiteOS_Lab_overseas/LiteOS_Lab/iot_link/network/lwm2m/wakaama_lwm2m/core\data.c ****         *valueP = dataP->value.asBoolean;
 1765              		.loc 2 461 0
 1766 0032 7B68     		ldr	r3, [r7, #4]
 1767 0034 1A7A     		ldrb	r2, [r3, #8]	@ zero_extendqisi2
 1768 0036 3B68     		ldr	r3, [r7]
 1769 0038 1A70     		strb	r2, [r3]
 462:C:/Users/dtjld/Desktop/AIoT_software/LiteOS_Lab_overseas/LiteOS_Lab/iot_link/network/lwm2m/wakaama_lwm2m/core\data.c ****         result = 1;
 1770              		.loc 2 462 0
 1771 003a 0123     		movs	r3, #1
 1772 003c FB60     		str	r3, [r7, #12]
 463:C:/Users/dtjld/Desktop/AIoT_software/LiteOS_Lab_overseas/LiteOS_Lab/iot_link/network/lwm2m/wakaama_lwm2m/core\data.c ****         break;
 1773              		.loc 2 463 0
 1774 003e 3EE0     		b	.L128
 1775              	.L127:
 464:C:/Users/dtjld/Desktop/AIoT_software/LiteOS_Lab_overseas/LiteOS_Lab/iot_link/network/lwm2m/wakaama_lwm2m/core\data.c **** 
 465:C:/Users/dtjld/Desktop/AIoT_software/LiteOS_Lab_overseas/LiteOS_Lab/iot_link/network/lwm2m/wakaama_lwm2m/core\data.c ****     case LWM2M_TYPE_STRING:
 466:C:/Users/dtjld/Desktop/AIoT_software/LiteOS_Lab_overseas/LiteOS_Lab/iot_link/network/lwm2m/wakaama_lwm2m/core\data.c ****         if (dataP->value.asBuffer.length != 1) return 0;
 1776              		.loc 2 466 0
 1777 0040 7B68     		ldr	r3, [r7, #4]
 1778 0042 9B68     		ldr	r3, [r3, #8]
 1779 0044 012B     		cmp	r3, #1
 1780 0046 01D0     		beq	.L129
 1781              		.loc 2 466 0 is_stmt 0 discriminator 1
 1782 0048 0023     		movs	r3, #0
 1783 004a 4EE0     		b	.L130
 1784              	.L129:
 467:C:/Users/dtjld/Desktop/AIoT_software/LiteOS_Lab_overseas/LiteOS_Lab/iot_link/network/lwm2m/wakaama_lwm2m/core\data.c **** 
 468:C:/Users/dtjld/Desktop/AIoT_software/LiteOS_Lab_overseas/LiteOS_Lab/iot_link/network/lwm2m/wakaama_lwm2m/core\data.c ****         switch (dataP->value.asBuffer.buffer[0])
 1785              		.loc 2 468 0 is_stmt 1
 1786 004c 7B68     		ldr	r3, [r7, #4]
 1787 004e DB68     		ldr	r3, [r3, #12]
 1788 0050 1B78     		ldrb	r3, [r3]	@ zero_extendqisi2
 1789 0052 302B     		cmp	r3, #48
 1790 0054 02D0     		beq	.L132
 1791 0056 312B     		cmp	r3, #49
 1792 0058 06D0     		beq	.L133
 1793 005a 0BE0     		b	.L143
 1794              	.L132:
 469:C:/Users/dtjld/Desktop/AIoT_software/LiteOS_Lab_overseas/LiteOS_Lab/iot_link/network/lwm2m/wakaama_lwm2m/core\data.c ****         {
 470:C:/Users/dtjld/Desktop/AIoT_software/LiteOS_Lab_overseas/LiteOS_Lab/iot_link/network/lwm2m/wakaama_lwm2m/core\data.c ****         case '0':
 471:C:/Users/dtjld/Desktop/AIoT_software/LiteOS_Lab_overseas/LiteOS_Lab/iot_link/network/lwm2m/wakaama_lwm2m/core\data.c ****             *valueP = false;
 1795              		.loc 2 471 0
 1796 005c 3B68     		ldr	r3, [r7]
 1797 005e 0022     		movs	r2, #0
 1798 0060 1A70     		strb	r2, [r3]
 472:C:/Users/dtjld/Desktop/AIoT_software/LiteOS_Lab_overseas/LiteOS_Lab/iot_link/network/lwm2m/wakaama_lwm2m/core\data.c ****             result = 1;
 1799              		.loc 2 472 0
 1800 0062 0123     		movs	r3, #1
ARM GAS  C:\Users\dtjld\AppData\Local\Temp\ccLN8Itk.s 			page 48


 1801 0064 FB60     		str	r3, [r7, #12]
 473:C:/Users/dtjld/Desktop/AIoT_software/LiteOS_Lab_overseas/LiteOS_Lab/iot_link/network/lwm2m/wakaama_lwm2m/core\data.c ****             break;
 1802              		.loc 2 473 0
 1803 0066 08E0     		b	.L134
 1804              	.L133:
 474:C:/Users/dtjld/Desktop/AIoT_software/LiteOS_Lab_overseas/LiteOS_Lab/iot_link/network/lwm2m/wakaama_lwm2m/core\data.c ****         case '1':
 475:C:/Users/dtjld/Desktop/AIoT_software/LiteOS_Lab_overseas/LiteOS_Lab/iot_link/network/lwm2m/wakaama_lwm2m/core\data.c ****             *valueP = true;
 1805              		.loc 2 475 0
 1806 0068 3B68     		ldr	r3, [r7]
 1807 006a 0122     		movs	r2, #1
 1808 006c 1A70     		strb	r2, [r3]
 476:C:/Users/dtjld/Desktop/AIoT_software/LiteOS_Lab_overseas/LiteOS_Lab/iot_link/network/lwm2m/wakaama_lwm2m/core\data.c ****             result = 1;
 1809              		.loc 2 476 0
 1810 006e 0123     		movs	r3, #1
 1811 0070 FB60     		str	r3, [r7, #12]
 477:C:/Users/dtjld/Desktop/AIoT_software/LiteOS_Lab_overseas/LiteOS_Lab/iot_link/network/lwm2m/wakaama_lwm2m/core\data.c ****             break;
 1812              		.loc 2 477 0
 1813 0072 02E0     		b	.L134
 1814              	.L143:
 478:C:/Users/dtjld/Desktop/AIoT_software/LiteOS_Lab_overseas/LiteOS_Lab/iot_link/network/lwm2m/wakaama_lwm2m/core\data.c ****         default:
 479:C:/Users/dtjld/Desktop/AIoT_software/LiteOS_Lab_overseas/LiteOS_Lab/iot_link/network/lwm2m/wakaama_lwm2m/core\data.c ****             result = 0;
 1815              		.loc 2 479 0
 1816 0074 0023     		movs	r3, #0
 1817 0076 FB60     		str	r3, [r7, #12]
 480:C:/Users/dtjld/Desktop/AIoT_software/LiteOS_Lab_overseas/LiteOS_Lab/iot_link/network/lwm2m/wakaama_lwm2m/core\data.c ****             break;
 1818              		.loc 2 480 0
 1819 0078 00BF     		nop
 1820              	.L134:
 481:C:/Users/dtjld/Desktop/AIoT_software/LiteOS_Lab_overseas/LiteOS_Lab/iot_link/network/lwm2m/wakaama_lwm2m/core\data.c ****         }
 482:C:/Users/dtjld/Desktop/AIoT_software/LiteOS_Lab_overseas/LiteOS_Lab/iot_link/network/lwm2m/wakaama_lwm2m/core\data.c ****         break;
 1821              		.loc 2 482 0
 1822 007a 20E0     		b	.L128
 1823              	.L125:
 483:C:/Users/dtjld/Desktop/AIoT_software/LiteOS_Lab_overseas/LiteOS_Lab/iot_link/network/lwm2m/wakaama_lwm2m/core\data.c **** 
 484:C:/Users/dtjld/Desktop/AIoT_software/LiteOS_Lab_overseas/LiteOS_Lab/iot_link/network/lwm2m/wakaama_lwm2m/core\data.c ****     case LWM2M_TYPE_OPAQUE:
 485:C:/Users/dtjld/Desktop/AIoT_software/LiteOS_Lab_overseas/LiteOS_Lab/iot_link/network/lwm2m/wakaama_lwm2m/core\data.c ****         if (dataP->value.asBuffer.length != 1) return 0;
 1824              		.loc 2 485 0
 1825 007c 7B68     		ldr	r3, [r7, #4]
 1826 007e 9B68     		ldr	r3, [r3, #8]
 1827 0080 012B     		cmp	r3, #1
 1828 0082 01D0     		beq	.L135
 1829              		.loc 2 485 0 is_stmt 0 discriminator 1
 1830 0084 0023     		movs	r3, #0
 1831 0086 30E0     		b	.L130
 1832              	.L135:
 486:C:/Users/dtjld/Desktop/AIoT_software/LiteOS_Lab_overseas/LiteOS_Lab/iot_link/network/lwm2m/wakaama_lwm2m/core\data.c **** 
 487:C:/Users/dtjld/Desktop/AIoT_software/LiteOS_Lab_overseas/LiteOS_Lab/iot_link/network/lwm2m/wakaama_lwm2m/core\data.c ****         switch (dataP->value.asBuffer.buffer[0])
 1833              		.loc 2 487 0 is_stmt 1
 1834 0088 7B68     		ldr	r3, [r7, #4]
 1835 008a DB68     		ldr	r3, [r3, #12]
 1836 008c 1B78     		ldrb	r3, [r3]	@ zero_extendqisi2
 1837 008e 002B     		cmp	r3, #0
 1838 0090 02D0     		beq	.L137
 1839 0092 012B     		cmp	r3, #1
 1840 0094 06D0     		beq	.L138
 1841 0096 0BE0     		b	.L144
 1842              	.L137:
ARM GAS  C:\Users\dtjld\AppData\Local\Temp\ccLN8Itk.s 			page 49


 488:C:/Users/dtjld/Desktop/AIoT_software/LiteOS_Lab_overseas/LiteOS_Lab/iot_link/network/lwm2m/wakaama_lwm2m/core\data.c ****         {
 489:C:/Users/dtjld/Desktop/AIoT_software/LiteOS_Lab_overseas/LiteOS_Lab/iot_link/network/lwm2m/wakaama_lwm2m/core\data.c ****         case 0:
 490:C:/Users/dtjld/Desktop/AIoT_software/LiteOS_Lab_overseas/LiteOS_Lab/iot_link/network/lwm2m/wakaama_lwm2m/core\data.c ****             *valueP = false;
 1843              		.loc 2 490 0
 1844 0098 3B68     		ldr	r3, [r7]
 1845 009a 0022     		movs	r2, #0
 1846 009c 1A70     		strb	r2, [r3]
 491:C:/Users/dtjld/Desktop/AIoT_software/LiteOS_Lab_overseas/LiteOS_Lab/iot_link/network/lwm2m/wakaama_lwm2m/core\data.c ****             result = 1;
 1847              		.loc 2 491 0
 1848 009e 0123     		movs	r3, #1
 1849 00a0 FB60     		str	r3, [r7, #12]
 492:C:/Users/dtjld/Desktop/AIoT_software/LiteOS_Lab_overseas/LiteOS_Lab/iot_link/network/lwm2m/wakaama_lwm2m/core\data.c ****             break;
 1850              		.loc 2 492 0
 1851 00a2 08E0     		b	.L139
 1852              	.L138:
 493:C:/Users/dtjld/Desktop/AIoT_software/LiteOS_Lab_overseas/LiteOS_Lab/iot_link/network/lwm2m/wakaama_lwm2m/core\data.c ****         case 1:
 494:C:/Users/dtjld/Desktop/AIoT_software/LiteOS_Lab_overseas/LiteOS_Lab/iot_link/network/lwm2m/wakaama_lwm2m/core\data.c ****             *valueP = true;
 1853              		.loc 2 494 0
 1854 00a4 3B68     		ldr	r3, [r7]
 1855 00a6 0122     		movs	r2, #1
 1856 00a8 1A70     		strb	r2, [r3]
 495:C:/Users/dtjld/Desktop/AIoT_software/LiteOS_Lab_overseas/LiteOS_Lab/iot_link/network/lwm2m/wakaama_lwm2m/core\data.c ****             result = 1;
 1857              		.loc 2 495 0
 1858 00aa 0123     		movs	r3, #1
 1859 00ac FB60     		str	r3, [r7, #12]
 496:C:/Users/dtjld/Desktop/AIoT_software/LiteOS_Lab_overseas/LiteOS_Lab/iot_link/network/lwm2m/wakaama_lwm2m/core\data.c ****             break;
 1860              		.loc 2 496 0
 1861 00ae 02E0     		b	.L139
 1862              	.L144:
 497:C:/Users/dtjld/Desktop/AIoT_software/LiteOS_Lab_overseas/LiteOS_Lab/iot_link/network/lwm2m/wakaama_lwm2m/core\data.c ****         default:
 498:C:/Users/dtjld/Desktop/AIoT_software/LiteOS_Lab_overseas/LiteOS_Lab/iot_link/network/lwm2m/wakaama_lwm2m/core\data.c ****             result = 0;
 1863              		.loc 2 498 0
 1864 00b0 0023     		movs	r3, #0
 1865 00b2 FB60     		str	r3, [r7, #12]
 499:C:/Users/dtjld/Desktop/AIoT_software/LiteOS_Lab_overseas/LiteOS_Lab/iot_link/network/lwm2m/wakaama_lwm2m/core\data.c ****             break;
 1866              		.loc 2 499 0
 1867 00b4 00BF     		nop
 1868              	.L139:
 500:C:/Users/dtjld/Desktop/AIoT_software/LiteOS_Lab_overseas/LiteOS_Lab/iot_link/network/lwm2m/wakaama_lwm2m/core\data.c ****         }
 501:C:/Users/dtjld/Desktop/AIoT_software/LiteOS_Lab_overseas/LiteOS_Lab/iot_link/network/lwm2m/wakaama_lwm2m/core\data.c ****         break;
 1869              		.loc 2 501 0
 1870 00b6 02E0     		b	.L128
 1871              	.L142:
 502:C:/Users/dtjld/Desktop/AIoT_software/LiteOS_Lab_overseas/LiteOS_Lab/iot_link/network/lwm2m/wakaama_lwm2m/core\data.c **** 
 503:C:/Users/dtjld/Desktop/AIoT_software/LiteOS_Lab_overseas/LiteOS_Lab/iot_link/network/lwm2m/wakaama_lwm2m/core\data.c ****     default:
 504:C:/Users/dtjld/Desktop/AIoT_software/LiteOS_Lab_overseas/LiteOS_Lab/iot_link/network/lwm2m/wakaama_lwm2m/core\data.c ****         result = 0;
 1872              		.loc 2 504 0
 1873 00b8 0023     		movs	r3, #0
 1874 00ba FB60     		str	r3, [r7, #12]
 505:C:/Users/dtjld/Desktop/AIoT_software/LiteOS_Lab_overseas/LiteOS_Lab/iot_link/network/lwm2m/wakaama_lwm2m/core\data.c ****         break;
 1875              		.loc 2 505 0
 1876 00bc 00BF     		nop
 1877              	.L128:
 506:C:/Users/dtjld/Desktop/AIoT_software/LiteOS_Lab_overseas/LiteOS_Lab/iot_link/network/lwm2m/wakaama_lwm2m/core\data.c ****     }
 507:C:/Users/dtjld/Desktop/AIoT_software/LiteOS_Lab_overseas/LiteOS_Lab/iot_link/network/lwm2m/wakaama_lwm2m/core\data.c **** 
 508:C:/Users/dtjld/Desktop/AIoT_software/LiteOS_Lab_overseas/LiteOS_Lab/iot_link/network/lwm2m/wakaama_lwm2m/core\data.c ****     LOG_ARG("result: %d, value: %s", result, *valueP ? "true" : "false");
 1878              		.loc 2 508 0
ARM GAS  C:\Users\dtjld\AppData\Local\Temp\ccLN8Itk.s 			page 50


 1879 00be FFF7FEFF 		bl	lwm2m_gettime
 1880 00c2 0346     		mov	r3, r0
 1881 00c4 0C46     		mov	r4, r1
 1882 00c6 1946     		mov	r1, r3
 1883 00c8 3B68     		ldr	r3, [r7]
 1884 00ca 1B78     		ldrb	r3, [r3]	@ zero_extendqisi2
 1885 00cc 002B     		cmp	r3, #0
 1886 00ce 01D0     		beq	.L140
 1887              		.loc 2 508 0 is_stmt 0 discriminator 1
 1888 00d0 0A4B     		ldr	r3, .L145+8
 1889 00d2 00E0     		b	.L141
 1890              	.L140:
 1891              		.loc 2 508 0 discriminator 2
 1892 00d4 0A4B     		ldr	r3, .L145+12
 1893              	.L141:
 1894              		.loc 2 508 0 discriminator 4
 1895 00d6 0193     		str	r3, [sp, #4]
 1896 00d8 FB68     		ldr	r3, [r7, #12]
 1897 00da 0093     		str	r3, [sp]
 1898 00dc 4FF4FE73 		mov	r3, #508
 1899 00e0 044A     		ldr	r2, .L145
 1900 00e2 0848     		ldr	r0, .L145+16
 1901 00e4 FFF7FEFF 		bl	atiny_printf
 509:C:/Users/dtjld/Desktop/AIoT_software/LiteOS_Lab_overseas/LiteOS_Lab/iot_link/network/lwm2m/wakaama_lwm2m/core\data.c **** 
 510:C:/Users/dtjld/Desktop/AIoT_software/LiteOS_Lab_overseas/LiteOS_Lab/iot_link/network/lwm2m/wakaama_lwm2m/core\data.c ****     return result;
 1902              		.loc 2 510 0 is_stmt 1 discriminator 4
 1903 00e8 FB68     		ldr	r3, [r7, #12]
 1904              	.L130:
 511:C:/Users/dtjld/Desktop/AIoT_software/LiteOS_Lab_overseas/LiteOS_Lab/iot_link/network/lwm2m/wakaama_lwm2m/core\data.c **** }
 1905              		.loc 2 511 0
 1906 00ea 1846     		mov	r0, r3
 1907 00ec 1437     		adds	r7, r7, #20
 1908              	.LCFI74:
 1909              		.cfi_def_cfa_offset 12
 1910 00ee BD46     		mov	sp, r7
 1911              	.LCFI75:
 1912              		.cfi_def_cfa_register 13
 1913              		@ sp needed
 1914 00f0 90BD     		pop	{r4, r7, pc}
 1915              	.L146:
 1916 00f2 00BF     		.align	2
 1917              	.L145:
 1918 00f4 00000000 		.word	__func__.8630
 1919 00f8 8C000000 		.word	.LC5
 1920 00fc 08010000 		.word	.LC9
 1921 0100 10010000 		.word	.LC10
 1922 0104 30010000 		.word	.LC12
 1923              		.cfi_endproc
 1924              	.LFE17:
 1926              		.section	.rodata
 1927              		.align	2
 1928              	.LC13:
 1929 0154 5B25645D 		.ascii	"[%d][%s:%d] value: %d/%d\015\012\000"
 1929      5B25733A 
 1929      25645D20 
 1929      76616C75 
 1929      653A2025 
ARM GAS  C:\Users\dtjld\AppData\Local\Temp\ccLN8Itk.s 			page 51


 1930              		.section	.text.lwm2m_data_encode_objlink,"ax",%progbits
 1931              		.align	1
 1932              		.global	lwm2m_data_encode_objlink
 1933              		.syntax unified
 1934              		.thumb
 1935              		.thumb_func
 1936              		.fpu fpv4-sp-d16
 1938              	lwm2m_data_encode_objlink:
 1939              	.LFB18:
 512:C:/Users/dtjld/Desktop/AIoT_software/LiteOS_Lab_overseas/LiteOS_Lab/iot_link/network/lwm2m/wakaama_lwm2m/core\data.c **** 
 513:C:/Users/dtjld/Desktop/AIoT_software/LiteOS_Lab_overseas/LiteOS_Lab/iot_link/network/lwm2m/wakaama_lwm2m/core\data.c **** void lwm2m_data_encode_objlink(uint16_t objectId,
 514:C:/Users/dtjld/Desktop/AIoT_software/LiteOS_Lab_overseas/LiteOS_Lab/iot_link/network/lwm2m/wakaama_lwm2m/core\data.c ****                                uint16_t objectInstanceId,
 515:C:/Users/dtjld/Desktop/AIoT_software/LiteOS_Lab_overseas/LiteOS_Lab/iot_link/network/lwm2m/wakaama_lwm2m/core\data.c ****                                lwm2m_data_t *dataP)
 516:C:/Users/dtjld/Desktop/AIoT_software/LiteOS_Lab_overseas/LiteOS_Lab/iot_link/network/lwm2m/wakaama_lwm2m/core\data.c **** {
 1940              		.loc 2 516 0
 1941              		.cfi_startproc
 1942              		@ args = 0, pretend = 0, frame = 8
 1943              		@ frame_needed = 1, uses_anonymous_args = 0
 1944 0000 90B5     		push	{r4, r7, lr}
 1945              	.LCFI76:
 1946              		.cfi_def_cfa_offset 12
 1947              		.cfi_offset 4, -12
 1948              		.cfi_offset 7, -8
 1949              		.cfi_offset 14, -4
 1950 0002 85B0     		sub	sp, sp, #20
 1951              	.LCFI77:
 1952              		.cfi_def_cfa_offset 32
 1953 0004 02AF     		add	r7, sp, #8
 1954              	.LCFI78:
 1955              		.cfi_def_cfa 7, 24
 1956 0006 0346     		mov	r3, r0
 1957 0008 3A60     		str	r2, [r7]
 1958 000a FB80     		strh	r3, [r7, #6]	@ movhi
 1959 000c 0B46     		mov	r3, r1	@ movhi
 1960 000e BB80     		strh	r3, [r7, #4]	@ movhi
 517:C:/Users/dtjld/Desktop/AIoT_software/LiteOS_Lab_overseas/LiteOS_Lab/iot_link/network/lwm2m/wakaama_lwm2m/core\data.c ****     LOG_ARG("value: %d/%d", objectId, objectInstanceId);
 1961              		.loc 2 517 0
 1962 0010 FFF7FEFF 		bl	lwm2m_gettime
 1963 0014 0346     		mov	r3, r0
 1964 0016 0C46     		mov	r4, r1
 1965 0018 1946     		mov	r1, r3
 1966 001a FB88     		ldrh	r3, [r7, #6]
 1967 001c BA88     		ldrh	r2, [r7, #4]
 1968 001e 0192     		str	r2, [sp, #4]
 1969 0020 0093     		str	r3, [sp]
 1970 0022 40F20523 		movw	r3, #517
 1971 0026 084A     		ldr	r2, .L148
 1972 0028 0848     		ldr	r0, .L148+4
 1973 002a FFF7FEFF 		bl	atiny_printf
 518:C:/Users/dtjld/Desktop/AIoT_software/LiteOS_Lab_overseas/LiteOS_Lab/iot_link/network/lwm2m/wakaama_lwm2m/core\data.c ****     dataP->type = LWM2M_TYPE_OBJECT_LINK;
 1974              		.loc 2 518 0
 1975 002e 3B68     		ldr	r3, [r7]
 1976 0030 0922     		movs	r2, #9
 1977 0032 1A70     		strb	r2, [r3]
 519:C:/Users/dtjld/Desktop/AIoT_software/LiteOS_Lab_overseas/LiteOS_Lab/iot_link/network/lwm2m/wakaama_lwm2m/core\data.c ****     dataP->value.asObjLink.objectId = objectId;
 1978              		.loc 2 519 0
 1979 0034 3B68     		ldr	r3, [r7]
ARM GAS  C:\Users\dtjld\AppData\Local\Temp\ccLN8Itk.s 			page 52


 1980 0036 FA88     		ldrh	r2, [r7, #6]	@ movhi
 1981 0038 1A81     		strh	r2, [r3, #8]	@ movhi
 520:C:/Users/dtjld/Desktop/AIoT_software/LiteOS_Lab_overseas/LiteOS_Lab/iot_link/network/lwm2m/wakaama_lwm2m/core\data.c ****     dataP->value.asObjLink.objectInstanceId = objectInstanceId;
 1982              		.loc 2 520 0
 1983 003a 3B68     		ldr	r3, [r7]
 1984 003c BA88     		ldrh	r2, [r7, #4]	@ movhi
 1985 003e 5A81     		strh	r2, [r3, #10]	@ movhi
 521:C:/Users/dtjld/Desktop/AIoT_software/LiteOS_Lab_overseas/LiteOS_Lab/iot_link/network/lwm2m/wakaama_lwm2m/core\data.c **** }
 1986              		.loc 2 521 0
 1987 0040 00BF     		nop
 1988 0042 0C37     		adds	r7, r7, #12
 1989              	.LCFI79:
 1990              		.cfi_def_cfa_offset 12
 1991 0044 BD46     		mov	sp, r7
 1992              	.LCFI80:
 1993              		.cfi_def_cfa_register 13
 1994              		@ sp needed
 1995 0046 90BD     		pop	{r4, r7, pc}
 1996              	.L149:
 1997              		.align	2
 1998              	.L148:
 1999 0048 00000000 		.word	__func__.8649
 2000 004c 54010000 		.word	.LC13
 2001              		.cfi_endproc
 2002              	.LFE18:
 2004              		.section	.rodata
 2005 016f 00       		.align	2
 2006              	.LC14:
 2007 0170 5B25645D 		.ascii	"[%d][%s:%d] count: %d\015\012\000"
 2007      5B25733A 
 2007      25645D20 
 2007      636F756E 
 2007      743A2025 
 2008              		.section	.text.lwm2m_data_include,"ax",%progbits
 2009              		.align	1
 2010              		.global	lwm2m_data_include
 2011              		.syntax unified
 2012              		.thumb
 2013              		.thumb_func
 2014              		.fpu fpv4-sp-d16
 2016              	lwm2m_data_include:
 2017              	.LFB19:
 522:C:/Users/dtjld/Desktop/AIoT_software/LiteOS_Lab_overseas/LiteOS_Lab/iot_link/network/lwm2m/wakaama_lwm2m/core\data.c **** 
 523:C:/Users/dtjld/Desktop/AIoT_software/LiteOS_Lab_overseas/LiteOS_Lab/iot_link/network/lwm2m/wakaama_lwm2m/core\data.c **** void lwm2m_data_include(lwm2m_data_t *subDataP,
 524:C:/Users/dtjld/Desktop/AIoT_software/LiteOS_Lab_overseas/LiteOS_Lab/iot_link/network/lwm2m/wakaama_lwm2m/core\data.c ****                         size_t count,
 525:C:/Users/dtjld/Desktop/AIoT_software/LiteOS_Lab_overseas/LiteOS_Lab/iot_link/network/lwm2m/wakaama_lwm2m/core\data.c ****                         lwm2m_data_t *dataP)
 526:C:/Users/dtjld/Desktop/AIoT_software/LiteOS_Lab_overseas/LiteOS_Lab/iot_link/network/lwm2m/wakaama_lwm2m/core\data.c **** {
 2018              		.loc 2 526 0
 2019              		.cfi_startproc
 2020              		@ args = 0, pretend = 0, frame = 16
 2021              		@ frame_needed = 1, uses_anonymous_args = 0
 2022 0000 90B5     		push	{r4, r7, lr}
 2023              	.LCFI81:
 2024              		.cfi_def_cfa_offset 12
 2025              		.cfi_offset 4, -12
 2026              		.cfi_offset 7, -8
 2027              		.cfi_offset 14, -4
ARM GAS  C:\Users\dtjld\AppData\Local\Temp\ccLN8Itk.s 			page 53


 2028 0002 87B0     		sub	sp, sp, #28
 2029              	.LCFI82:
 2030              		.cfi_def_cfa_offset 40
 2031 0004 02AF     		add	r7, sp, #8
 2032              	.LCFI83:
 2033              		.cfi_def_cfa 7, 32
 2034 0006 F860     		str	r0, [r7, #12]
 2035 0008 B960     		str	r1, [r7, #8]
 2036 000a 7A60     		str	r2, [r7, #4]
 527:C:/Users/dtjld/Desktop/AIoT_software/LiteOS_Lab_overseas/LiteOS_Lab/iot_link/network/lwm2m/wakaama_lwm2m/core\data.c ****     LOG_ARG("count: %d", count);
 2037              		.loc 2 527 0
 2038 000c FFF7FEFF 		bl	lwm2m_gettime
 2039 0010 0346     		mov	r3, r0
 2040 0012 0C46     		mov	r4, r1
 2041 0014 1946     		mov	r1, r3
 2042 0016 BB68     		ldr	r3, [r7, #8]
 2043 0018 0093     		str	r3, [sp]
 2044 001a 40F20F23 		movw	r3, #527
 2045 001e 134A     		ldr	r2, .L160
 2046 0020 1348     		ldr	r0, .L160+4
 2047 0022 FFF7FEFF 		bl	atiny_printf
 528:C:/Users/dtjld/Desktop/AIoT_software/LiteOS_Lab_overseas/LiteOS_Lab/iot_link/network/lwm2m/wakaama_lwm2m/core\data.c ****     if (subDataP == NULL || count == 0) return;
 2048              		.loc 2 528 0
 2049 0026 FB68     		ldr	r3, [r7, #12]
 2050 0028 002B     		cmp	r3, #0
 2051 002a 19D0     		beq	.L158
 2052              		.loc 2 528 0 is_stmt 0 discriminator 1
 2053 002c BB68     		ldr	r3, [r7, #8]
 2054 002e 002B     		cmp	r3, #0
 2055 0030 16D0     		beq	.L158
 529:C:/Users/dtjld/Desktop/AIoT_software/LiteOS_Lab_overseas/LiteOS_Lab/iot_link/network/lwm2m/wakaama_lwm2m/core\data.c **** 
 530:C:/Users/dtjld/Desktop/AIoT_software/LiteOS_Lab_overseas/LiteOS_Lab/iot_link/network/lwm2m/wakaama_lwm2m/core\data.c ****     switch (subDataP[0].type)
 2056              		.loc 2 530 0 is_stmt 1
 2057 0032 FB68     		ldr	r3, [r7, #12]
 2058 0034 1B78     		ldrb	r3, [r3]	@ zero_extendqisi2
 2059 0036 022B     		cmp	r3, #2
 2060 0038 07D0     		beq	.L155
 2061 003a 022B     		cmp	r3, #2
 2062 003c 12DB     		blt	.L159
 2063 003e 092B     		cmp	r3, #9
 2064 0040 10DC     		bgt	.L159
 531:C:/Users/dtjld/Desktop/AIoT_software/LiteOS_Lab_overseas/LiteOS_Lab/iot_link/network/lwm2m/wakaama_lwm2m/core\data.c ****     {
 532:C:/Users/dtjld/Desktop/AIoT_software/LiteOS_Lab_overseas/LiteOS_Lab/iot_link/network/lwm2m/wakaama_lwm2m/core\data.c ****     case LWM2M_TYPE_STRING:
 533:C:/Users/dtjld/Desktop/AIoT_software/LiteOS_Lab_overseas/LiteOS_Lab/iot_link/network/lwm2m/wakaama_lwm2m/core\data.c ****     case LWM2M_TYPE_OPAQUE:
 534:C:/Users/dtjld/Desktop/AIoT_software/LiteOS_Lab_overseas/LiteOS_Lab/iot_link/network/lwm2m/wakaama_lwm2m/core\data.c ****     case LWM2M_TYPE_INTEGER:
 535:C:/Users/dtjld/Desktop/AIoT_software/LiteOS_Lab_overseas/LiteOS_Lab/iot_link/network/lwm2m/wakaama_lwm2m/core\data.c ****     case LWM2M_TYPE_FLOAT:
 536:C:/Users/dtjld/Desktop/AIoT_software/LiteOS_Lab_overseas/LiteOS_Lab/iot_link/network/lwm2m/wakaama_lwm2m/core\data.c ****     case LWM2M_TYPE_BOOLEAN:
 537:C:/Users/dtjld/Desktop/AIoT_software/LiteOS_Lab_overseas/LiteOS_Lab/iot_link/network/lwm2m/wakaama_lwm2m/core\data.c ****     case LWM2M_TYPE_OBJECT_LINK:
 538:C:/Users/dtjld/Desktop/AIoT_software/LiteOS_Lab_overseas/LiteOS_Lab/iot_link/network/lwm2m/wakaama_lwm2m/core\data.c ****     case LWM2M_TYPE_MULTIPLE_RESOURCE:
 539:C:/Users/dtjld/Desktop/AIoT_software/LiteOS_Lab_overseas/LiteOS_Lab/iot_link/network/lwm2m/wakaama_lwm2m/core\data.c ****         dataP->type = LWM2M_TYPE_OBJECT_INSTANCE;
 2065              		.loc 2 539 0
 2066 0042 7B68     		ldr	r3, [r7, #4]
 2067 0044 0222     		movs	r2, #2
 2068 0046 1A70     		strb	r2, [r3]
 540:C:/Users/dtjld/Desktop/AIoT_software/LiteOS_Lab_overseas/LiteOS_Lab/iot_link/network/lwm2m/wakaama_lwm2m/core\data.c ****         break;
 2069              		.loc 2 540 0
 2070 0048 03E0     		b	.L157
ARM GAS  C:\Users\dtjld\AppData\Local\Temp\ccLN8Itk.s 			page 54


 2071              	.L155:
 541:C:/Users/dtjld/Desktop/AIoT_software/LiteOS_Lab_overseas/LiteOS_Lab/iot_link/network/lwm2m/wakaama_lwm2m/core\data.c ****     case LWM2M_TYPE_OBJECT_INSTANCE:
 542:C:/Users/dtjld/Desktop/AIoT_software/LiteOS_Lab_overseas/LiteOS_Lab/iot_link/network/lwm2m/wakaama_lwm2m/core\data.c ****         dataP->type = LWM2M_TYPE_OBJECT;
 2072              		.loc 2 542 0
 2073 004a 7B68     		ldr	r3, [r7, #4]
 2074 004c 0122     		movs	r2, #1
 2075 004e 1A70     		strb	r2, [r3]
 543:C:/Users/dtjld/Desktop/AIoT_software/LiteOS_Lab_overseas/LiteOS_Lab/iot_link/network/lwm2m/wakaama_lwm2m/core\data.c ****         break;
 2076              		.loc 2 543 0
 2077 0050 00BF     		nop
 2078              	.L157:
 544:C:/Users/dtjld/Desktop/AIoT_software/LiteOS_Lab_overseas/LiteOS_Lab/iot_link/network/lwm2m/wakaama_lwm2m/core\data.c ****     default:
 545:C:/Users/dtjld/Desktop/AIoT_software/LiteOS_Lab_overseas/LiteOS_Lab/iot_link/network/lwm2m/wakaama_lwm2m/core\data.c ****         return;
 546:C:/Users/dtjld/Desktop/AIoT_software/LiteOS_Lab_overseas/LiteOS_Lab/iot_link/network/lwm2m/wakaama_lwm2m/core\data.c ****     }
 547:C:/Users/dtjld/Desktop/AIoT_software/LiteOS_Lab_overseas/LiteOS_Lab/iot_link/network/lwm2m/wakaama_lwm2m/core\data.c ****     dataP->value.asChildren.count = count;
 2079              		.loc 2 547 0
 2080 0052 7B68     		ldr	r3, [r7, #4]
 2081 0054 BA68     		ldr	r2, [r7, #8]
 2082 0056 9A60     		str	r2, [r3, #8]
 548:C:/Users/dtjld/Desktop/AIoT_software/LiteOS_Lab_overseas/LiteOS_Lab/iot_link/network/lwm2m/wakaama_lwm2m/core\data.c ****     dataP->value.asChildren.array = subDataP;
 2083              		.loc 2 548 0
 2084 0058 7B68     		ldr	r3, [r7, #4]
 2085 005a FA68     		ldr	r2, [r7, #12]
 2086 005c DA60     		str	r2, [r3, #12]
 2087 005e 02E0     		b	.L150
 2088              	.L158:
 528:C:/Users/dtjld/Desktop/AIoT_software/LiteOS_Lab_overseas/LiteOS_Lab/iot_link/network/lwm2m/wakaama_lwm2m/core\data.c **** 
 2089              		.loc 2 528 0
 2090 0060 00BF     		nop
 2091 0062 00E0     		b	.L150
 2092              	.L159:
 545:C:/Users/dtjld/Desktop/AIoT_software/LiteOS_Lab_overseas/LiteOS_Lab/iot_link/network/lwm2m/wakaama_lwm2m/core\data.c ****     }
 2093              		.loc 2 545 0
 2094 0064 00BF     		nop
 2095              	.L150:
 549:C:/Users/dtjld/Desktop/AIoT_software/LiteOS_Lab_overseas/LiteOS_Lab/iot_link/network/lwm2m/wakaama_lwm2m/core\data.c **** }
 2096              		.loc 2 549 0
 2097 0066 1437     		adds	r7, r7, #20
 2098              	.LCFI84:
 2099              		.cfi_def_cfa_offset 12
 2100 0068 BD46     		mov	sp, r7
 2101              	.LCFI85:
 2102              		.cfi_def_cfa_register 13
 2103              		@ sp needed
 2104 006a 90BD     		pop	{r4, r7, pc}
 2105              	.L161:
 2106              		.align	2
 2107              	.L160:
 2108 006c 00000000 		.word	__func__.8655
 2109 0070 70010000 		.word	.LC14
 2110              		.cfi_endproc
 2111              	.LFE19:
 2113              		.section	.text.lwm2m_data_encode_instances,"ax",%progbits
 2114              		.align	1
 2115              		.global	lwm2m_data_encode_instances
 2116              		.syntax unified
 2117              		.thumb
ARM GAS  C:\Users\dtjld\AppData\Local\Temp\ccLN8Itk.s 			page 55


 2118              		.thumb_func
 2119              		.fpu fpv4-sp-d16
 2121              	lwm2m_data_encode_instances:
 2122              	.LFB20:
 550:C:/Users/dtjld/Desktop/AIoT_software/LiteOS_Lab_overseas/LiteOS_Lab/iot_link/network/lwm2m/wakaama_lwm2m/core\data.c **** 
 551:C:/Users/dtjld/Desktop/AIoT_software/LiteOS_Lab_overseas/LiteOS_Lab/iot_link/network/lwm2m/wakaama_lwm2m/core\data.c **** void lwm2m_data_encode_instances(lwm2m_data_t *subDataP,
 552:C:/Users/dtjld/Desktop/AIoT_software/LiteOS_Lab_overseas/LiteOS_Lab/iot_link/network/lwm2m/wakaama_lwm2m/core\data.c ****                                  size_t count,
 553:C:/Users/dtjld/Desktop/AIoT_software/LiteOS_Lab_overseas/LiteOS_Lab/iot_link/network/lwm2m/wakaama_lwm2m/core\data.c ****                                  lwm2m_data_t *dataP)
 554:C:/Users/dtjld/Desktop/AIoT_software/LiteOS_Lab_overseas/LiteOS_Lab/iot_link/network/lwm2m/wakaama_lwm2m/core\data.c **** {
 2123              		.loc 2 554 0
 2124              		.cfi_startproc
 2125              		@ args = 0, pretend = 0, frame = 16
 2126              		@ frame_needed = 1, uses_anonymous_args = 0
 2127 0000 90B5     		push	{r4, r7, lr}
 2128              	.LCFI86:
 2129              		.cfi_def_cfa_offset 12
 2130              		.cfi_offset 4, -12
 2131              		.cfi_offset 7, -8
 2132              		.cfi_offset 14, -4
 2133 0002 87B0     		sub	sp, sp, #28
 2134              	.LCFI87:
 2135              		.cfi_def_cfa_offset 40
 2136 0004 02AF     		add	r7, sp, #8
 2137              	.LCFI88:
 2138              		.cfi_def_cfa 7, 32
 2139 0006 F860     		str	r0, [r7, #12]
 2140 0008 B960     		str	r1, [r7, #8]
 2141 000a 7A60     		str	r2, [r7, #4]
 555:C:/Users/dtjld/Desktop/AIoT_software/LiteOS_Lab_overseas/LiteOS_Lab/iot_link/network/lwm2m/wakaama_lwm2m/core\data.c ****     LOG_ARG("count: %d", count);
 2142              		.loc 2 555 0
 2143 000c FFF7FEFF 		bl	lwm2m_gettime
 2144 0010 0346     		mov	r3, r0
 2145 0012 0C46     		mov	r4, r1
 2146 0014 1946     		mov	r1, r3
 2147 0016 BB68     		ldr	r3, [r7, #8]
 2148 0018 0093     		str	r3, [sp]
 2149 001a 40F22B23 		movw	r3, #555
 2150 001e 084A     		ldr	r2, .L163
 2151 0020 0848     		ldr	r0, .L163+4
 2152 0022 FFF7FEFF 		bl	atiny_printf
 556:C:/Users/dtjld/Desktop/AIoT_software/LiteOS_Lab_overseas/LiteOS_Lab/iot_link/network/lwm2m/wakaama_lwm2m/core\data.c ****     lwm2m_data_include(subDataP, count, dataP);
 2153              		.loc 2 556 0
 2154 0026 7A68     		ldr	r2, [r7, #4]
 2155 0028 B968     		ldr	r1, [r7, #8]
 2156 002a F868     		ldr	r0, [r7, #12]
 2157 002c FFF7FEFF 		bl	lwm2m_data_include
 557:C:/Users/dtjld/Desktop/AIoT_software/LiteOS_Lab_overseas/LiteOS_Lab/iot_link/network/lwm2m/wakaama_lwm2m/core\data.c ****     dataP->type = LWM2M_TYPE_MULTIPLE_RESOURCE;
 2158              		.loc 2 557 0
 2159 0030 7B68     		ldr	r3, [r7, #4]
 2160 0032 0322     		movs	r2, #3
 2161 0034 1A70     		strb	r2, [r3]
 558:C:/Users/dtjld/Desktop/AIoT_software/LiteOS_Lab_overseas/LiteOS_Lab/iot_link/network/lwm2m/wakaama_lwm2m/core\data.c **** }
 2162              		.loc 2 558 0
 2163 0036 00BF     		nop
 2164 0038 1437     		adds	r7, r7, #20
 2165              	.LCFI89:
 2166              		.cfi_def_cfa_offset 12
ARM GAS  C:\Users\dtjld\AppData\Local\Temp\ccLN8Itk.s 			page 56


 2167 003a BD46     		mov	sp, r7
 2168              	.LCFI90:
 2169              		.cfi_def_cfa_register 13
 2170              		@ sp needed
 2171 003c 90BD     		pop	{r4, r7, pc}
 2172              	.L164:
 2173 003e 00BF     		.align	2
 2174              	.L163:
 2175 0040 00000000 		.word	__func__.8671
 2176 0044 70010000 		.word	.LC14
 2177              		.cfi_endproc
 2178              	.LFE20:
 2180              		.section	.rodata
 2181              		.align	2
 2182              	.LC15:
 2183 0188 4C574D32 		.ascii	"LWM2M_CONTENT_JSON\000"
 2183      4D5F434F 
 2183      4E54454E 
 2183      545F4A53 
 2183      4F4E00
 2184 019b 00       		.align	2
 2185              	.LC16:
 2186 019c 556E6B6E 		.ascii	"Unknown\000"
 2186      6F776E00 
 2187              		.align	2
 2188              	.LC17:
 2189 01a4 4C574D32 		.ascii	"LWM2M_CONTENT_TLV\000"
 2189      4D5F434F 
 2189      4E54454E 
 2189      545F544C 
 2189      5600
 2190 01b6 0000     		.align	2
 2191              	.LC18:
 2192 01b8 4C574D32 		.ascii	"LWM2M_CONTENT_OPAQUE\000"
 2192      4D5F434F 
 2192      4E54454E 
 2192      545F4F50 
 2192      41515545 
 2193 01cd 000000   		.align	2
 2194              	.LC19:
 2195 01d0 4C574D32 		.ascii	"LWM2M_CONTENT_LINK\000"
 2195      4D5F434F 
 2195      4E54454E 
 2195      545F4C49 
 2195      4E4B00
 2196 01e3 00       		.align	2
 2197              	.LC20:
 2198 01e4 4C574D32 		.ascii	"LWM2M_CONTENT_TEXT\000"
 2198      4D5F434F 
 2198      4E54454E 
 2198      545F5445 
 2198      585400
 2199 01f7 00       		.align	2
 2200              	.LC21:
 2201 01f8 5B25645D 		.ascii	"[%d][%s:%d] format: %s, bufferLen: %d\015\012\000"
 2201      5B25733A 
 2201      25645D20 
ARM GAS  C:\Users\dtjld\AppData\Local\Temp\ccLN8Itk.s 			page 57


 2201      666F726D 
 2201      61743A20 
 2202              		.align	2
 2203              	.LC22:
 2204 0220 5B25733A 		.ascii	"[%s:%d] NULL\015\012\000"
 2204      25645D20 
 2204      4E554C4C 
 2204      0D0A00
 2205 022f 00       		.align	2
 2206              	.LC23:
 2207 0230 5B25733A 		.ascii	"[%s:%d] /%d\000"
 2207      25645D20 
 2207      2F256400 
 2208              		.align	2
 2209              	.LC24:
 2210 023c 2F256400 		.ascii	"/%d\000"
 2211              		.align	2
 2212              	.LC25:
 2213 0240 0D0A00   		.ascii	"\015\012\000"
 2214              		.section	.text.lwm2m_data_parse,"ax",%progbits
 2215              		.align	1
 2216              		.global	lwm2m_data_parse
 2217              		.syntax unified
 2218              		.thumb
 2219              		.thumb_func
 2220              		.fpu fpv4-sp-d16
 2222              	lwm2m_data_parse:
 2223              	.LFB21:
 559:C:/Users/dtjld/Desktop/AIoT_software/LiteOS_Lab_overseas/LiteOS_Lab/iot_link/network/lwm2m/wakaama_lwm2m/core\data.c **** 
 560:C:/Users/dtjld/Desktop/AIoT_software/LiteOS_Lab_overseas/LiteOS_Lab/iot_link/network/lwm2m/wakaama_lwm2m/core\data.c **** int lwm2m_data_parse(lwm2m_uri_t *uriP,
 561:C:/Users/dtjld/Desktop/AIoT_software/LiteOS_Lab_overseas/LiteOS_Lab/iot_link/network/lwm2m/wakaama_lwm2m/core\data.c ****                      uint8_t *buffer,
 562:C:/Users/dtjld/Desktop/AIoT_software/LiteOS_Lab_overseas/LiteOS_Lab/iot_link/network/lwm2m/wakaama_lwm2m/core\data.c ****                      size_t bufferLen,
 563:C:/Users/dtjld/Desktop/AIoT_software/LiteOS_Lab_overseas/LiteOS_Lab/iot_link/network/lwm2m/wakaama_lwm2m/core\data.c ****                      lwm2m_media_type_t format,
 564:C:/Users/dtjld/Desktop/AIoT_software/LiteOS_Lab_overseas/LiteOS_Lab/iot_link/network/lwm2m/wakaama_lwm2m/core\data.c ****                      lwm2m_data_t **dataP)
 565:C:/Users/dtjld/Desktop/AIoT_software/LiteOS_Lab_overseas/LiteOS_Lab/iot_link/network/lwm2m/wakaama_lwm2m/core\data.c **** {
 2224              		.loc 2 565 0
 2225              		.cfi_startproc
 2226              		@ args = 4, pretend = 0, frame = 24
 2227              		@ frame_needed = 1, uses_anonymous_args = 0
 2228 0000 90B5     		push	{r4, r7, lr}
 2229              	.LCFI91:
 2230              		.cfi_def_cfa_offset 12
 2231              		.cfi_offset 4, -12
 2232              		.cfi_offset 7, -8
 2233              		.cfi_offset 14, -4
 2234 0002 89B0     		sub	sp, sp, #36
 2235              	.LCFI92:
 2236              		.cfi_def_cfa_offset 48
 2237 0004 02AF     		add	r7, sp, #8
 2238              	.LCFI93:
 2239              		.cfi_def_cfa 7, 40
 2240 0006 F860     		str	r0, [r7, #12]
 2241 0008 B960     		str	r1, [r7, #8]
 2242 000a 7A60     		str	r2, [r7, #4]
 2243 000c 7B80     		strh	r3, [r7, #2]	@ movhi
 566:C:/Users/dtjld/Desktop/AIoT_software/LiteOS_Lab_overseas/LiteOS_Lab/iot_link/network/lwm2m/wakaama_lwm2m/core\data.c ****     int res;
 567:C:/Users/dtjld/Desktop/AIoT_software/LiteOS_Lab_overseas/LiteOS_Lab/iot_link/network/lwm2m/wakaama_lwm2m/core\data.c **** 
ARM GAS  C:\Users\dtjld\AppData\Local\Temp\ccLN8Itk.s 			page 58


 568:C:/Users/dtjld/Desktop/AIoT_software/LiteOS_Lab_overseas/LiteOS_Lab/iot_link/network/lwm2m/wakaama_lwm2m/core\data.c ****     LOG_ARG("format: %s, bufferLen: %d", STR_MEDIA_TYPE(format), bufferLen);
 2244              		.loc 2 568 0
 2245 000e FFF7FEFF 		bl	lwm2m_gettime
 2246 0012 0346     		mov	r3, r0
 2247 0014 0C46     		mov	r4, r1
 2248 0016 1946     		mov	r1, r3
 2249 0018 7B88     		ldrh	r3, [r7, #2]
 2250 001a 002B     		cmp	r3, #0
 2251 001c 19D0     		beq	.L166
 2252              		.loc 2 568 0 is_stmt 0 discriminator 1
 2253 001e 7B88     		ldrh	r3, [r7, #2]
 2254 0020 282B     		cmp	r3, #40
 2255 0022 14D0     		beq	.L167
 2256              		.loc 2 568 0 discriminator 3
 2257 0024 7B88     		ldrh	r3, [r7, #2]
 2258 0026 2A2B     		cmp	r3, #42
 2259 0028 0FD0     		beq	.L168
 2260              		.loc 2 568 0 discriminator 5
 2261 002a 7B88     		ldrh	r3, [r7, #2]
 2262 002c 42F61652 		movw	r2, #11542
 2263 0030 9342     		cmp	r3, r2
 2264 0032 08D0     		beq	.L169
 2265              		.loc 2 568 0 discriminator 7
 2266 0034 7B88     		ldrh	r3, [r7, #2]
 2267 0036 42F61752 		movw	r2, #11543
 2268 003a 9342     		cmp	r3, r2
 2269 003c 01D1     		bne	.L170
 2270              		.loc 2 568 0 discriminator 9
 2271 003e 5E4B     		ldr	r3, .L192
 2272 0040 08E0     		b	.L175
 2273              	.L170:
 2274              		.loc 2 568 0 discriminator 10
 2275 0042 5E4B     		ldr	r3, .L192+4
 2276 0044 06E0     		b	.L175
 2277              	.L169:
 2278              		.loc 2 568 0 discriminator 8
 2279 0046 5E4B     		ldr	r3, .L192+8
 2280 0048 04E0     		b	.L175
 2281              	.L168:
 2282              		.loc 2 568 0 discriminator 6
 2283 004a 5E4B     		ldr	r3, .L192+12
 2284 004c 02E0     		b	.L175
 2285              	.L167:
 2286              		.loc 2 568 0 discriminator 4
 2287 004e 5E4B     		ldr	r3, .L192+16
 2288 0050 00E0     		b	.L175
 2289              	.L166:
 2290              		.loc 2 568 0 discriminator 2
 2291 0052 5E4B     		ldr	r3, .L192+20
 2292              	.L175:
 2293              		.loc 2 568 0 discriminator 20
 2294 0054 7A68     		ldr	r2, [r7, #4]
 2295 0056 0192     		str	r2, [sp, #4]
 2296 0058 0093     		str	r3, [sp]
 2297 005a 4FF40E73 		mov	r3, #568
 2298 005e 5C4A     		ldr	r2, .L192+24
 2299 0060 5C48     		ldr	r0, .L192+28
ARM GAS  C:\Users\dtjld\AppData\Local\Temp\ccLN8Itk.s 			page 59


 2300 0062 FFF7FEFF 		bl	atiny_printf
 569:C:/Users/dtjld/Desktop/AIoT_software/LiteOS_Lab_overseas/LiteOS_Lab/iot_link/network/lwm2m/wakaama_lwm2m/core\data.c ****     LOG_URI(uriP);
 2301              		.loc 2 569 0 is_stmt 1 discriminator 20
 2302 0066 FB68     		ldr	r3, [r7, #12]
 2303 0068 002B     		cmp	r3, #0
 2304 006a 06D1     		bne	.L176
 2305              		.loc 2 569 0 is_stmt 0 discriminator 1
 2306 006c 40F23922 		movw	r2, #569
 2307 0070 5749     		ldr	r1, .L192+24
 2308 0072 5948     		ldr	r0, .L192+32
 2309 0074 FFF7FEFF 		bl	atiny_printf
 2310 0078 22E0     		b	.L177
 2311              	.L176:
 2312              		.loc 2 569 0 discriminator 2
 2313 007a FB68     		ldr	r3, [r7, #12]
 2314 007c 5B88     		ldrh	r3, [r3, #2]
 2315 007e 40F23922 		movw	r2, #569
 2316 0082 5349     		ldr	r1, .L192+24
 2317 0084 5548     		ldr	r0, .L192+36
 2318 0086 FFF7FEFF 		bl	atiny_printf
 2319 008a FB68     		ldr	r3, [r7, #12]
 2320 008c 1B78     		ldrb	r3, [r3]	@ zero_extendqisi2
 2321 008e 03F00203 		and	r3, r3, #2
 2322 0092 002B     		cmp	r3, #0
 2323 0094 05D0     		beq	.L178
 2324              		.loc 2 569 0 discriminator 3
 2325 0096 FB68     		ldr	r3, [r7, #12]
 2326 0098 9B88     		ldrh	r3, [r3, #4]
 2327 009a 1946     		mov	r1, r3
 2328 009c 5048     		ldr	r0, .L192+40
 2329 009e FFF7FEFF 		bl	atiny_printf
 2330              	.L178:
 2331              		.loc 2 569 0 discriminator 5
 2332 00a2 FB68     		ldr	r3, [r7, #12]
 2333 00a4 1B78     		ldrb	r3, [r3]	@ zero_extendqisi2
 2334 00a6 03F00103 		and	r3, r3, #1
 2335 00aa 002B     		cmp	r3, #0
 2336 00ac 05D0     		beq	.L179
 2337              		.loc 2 569 0 discriminator 6
 2338 00ae FB68     		ldr	r3, [r7, #12]
 2339 00b0 DB88     		ldrh	r3, [r3, #6]
 2340 00b2 1946     		mov	r1, r3
 2341 00b4 4A48     		ldr	r0, .L192+40
 2342 00b6 FFF7FEFF 		bl	atiny_printf
 2343              	.L179:
 2344              		.loc 2 569 0 discriminator 8
 2345 00ba 4A48     		ldr	r0, .L192+44
 2346 00bc FFF7FEFF 		bl	atiny_printf
 2347              	.L177:
 570:C:/Users/dtjld/Desktop/AIoT_software/LiteOS_Lab_overseas/LiteOS_Lab/iot_link/network/lwm2m/wakaama_lwm2m/core\data.c ****     switch (format)
 2348              		.loc 2 570 0 is_stmt 1
 2349 00c0 7B88     		ldrh	r3, [r7, #2]
 2350 00c2 2A2B     		cmp	r3, #42
 2351 00c4 38D0     		beq	.L181
 2352 00c6 42F61652 		movw	r2, #11542
 2353 00ca 9342     		cmp	r3, r2
 2354 00cc 67D0     		beq	.L182
ARM GAS  C:\Users\dtjld\AppData\Local\Temp\ccLN8Itk.s 			page 60


 2355 00ce 002B     		cmp	r3, #0
 2356 00d0 6CD1     		bne	.L191
 571:C:/Users/dtjld/Desktop/AIoT_software/LiteOS_Lab_overseas/LiteOS_Lab/iot_link/network/lwm2m/wakaama_lwm2m/core\data.c ****     {
 572:C:/Users/dtjld/Desktop/AIoT_software/LiteOS_Lab_overseas/LiteOS_Lab/iot_link/network/lwm2m/wakaama_lwm2m/core\data.c ****     case LWM2M_CONTENT_TEXT:
 573:C:/Users/dtjld/Desktop/AIoT_software/LiteOS_Lab_overseas/LiteOS_Lab/iot_link/network/lwm2m/wakaama_lwm2m/core\data.c ****         if (!LWM2M_URI_IS_SET_RESOURCE(uriP)) return 0;
 2357              		.loc 2 573 0
 2358 00d2 FB68     		ldr	r3, [r7, #12]
 2359 00d4 1B78     		ldrb	r3, [r3]	@ zero_extendqisi2
 2360 00d6 03F00103 		and	r3, r3, #1
 2361 00da 002B     		cmp	r3, #0
 2362 00dc 01D1     		bne	.L184
 2363              		.loc 2 573 0 is_stmt 0 discriminator 1
 2364 00de 0023     		movs	r3, #0
 2365 00e0 65E0     		b	.L185
 2366              	.L184:
 574:C:/Users/dtjld/Desktop/AIoT_software/LiteOS_Lab_overseas/LiteOS_Lab/iot_link/network/lwm2m/wakaama_lwm2m/core\data.c ****         *dataP = lwm2m_data_new(1);
 2367              		.loc 2 574 0 is_stmt 1
 2368 00e2 0120     		movs	r0, #1
 2369 00e4 FFF7FEFF 		bl	lwm2m_data_new
 2370 00e8 0246     		mov	r2, r0
 2371 00ea BB6A     		ldr	r3, [r7, #40]
 2372 00ec 1A60     		str	r2, [r3]
 575:C:/Users/dtjld/Desktop/AIoT_software/LiteOS_Lab_overseas/LiteOS_Lab/iot_link/network/lwm2m/wakaama_lwm2m/core\data.c ****         if (*dataP == NULL) return 0;
 2373              		.loc 2 575 0
 2374 00ee BB6A     		ldr	r3, [r7, #40]
 2375 00f0 1B68     		ldr	r3, [r3]
 2376 00f2 002B     		cmp	r3, #0
 2377 00f4 01D1     		bne	.L186
 2378              		.loc 2 575 0 is_stmt 0 discriminator 1
 2379 00f6 0023     		movs	r3, #0
 2380 00f8 59E0     		b	.L185
 2381              	.L186:
 576:C:/Users/dtjld/Desktop/AIoT_software/LiteOS_Lab_overseas/LiteOS_Lab/iot_link/network/lwm2m/wakaama_lwm2m/core\data.c ****         (*dataP)->id = uriP->resourceId;
 2382              		.loc 2 576 0 is_stmt 1
 2383 00fa BB6A     		ldr	r3, [r7, #40]
 2384 00fc 1B68     		ldr	r3, [r3]
 2385 00fe FA68     		ldr	r2, [r7, #12]
 2386 0100 D288     		ldrh	r2, [r2, #6]
 2387 0102 5A80     		strh	r2, [r3, #2]	@ movhi
 577:C:/Users/dtjld/Desktop/AIoT_software/LiteOS_Lab_overseas/LiteOS_Lab/iot_link/network/lwm2m/wakaama_lwm2m/core\data.c ****         (*dataP)->type = LWM2M_TYPE_STRING;
 2388              		.loc 2 577 0
