ARM GAS  C:\Users\dtjld\AppData\Local\Temp\ccFRmaX0.s 			page 1


   1              		.cpu cortex-m4
   2              		.eabi_attribute 27, 1
   3              		.eabi_attribute 28, 1
   4              		.eabi_attribute 20, 1
   5              		.eabi_attribute 21, 1
   6              		.eabi_attribute 23, 3
   7              		.eabi_attribute 24, 1
   8              		.eabi_attribute 25, 1
   9              		.eabi_attribute 26, 1
  10              		.eabi_attribute 30, 6
  11              		.eabi_attribute 34, 1
  12              		.eabi_attribute 18, 4
  13              		.file	"ecdsa.c"
  14              		.text
  15              	.Ltext0:
  16              		.cfi_sections	.debug_frame
  17              		.section	.text.derive_mpi,"ax",%progbits
  18              		.align	1
  19              		.syntax unified
  20              		.thumb
  21              		.thumb_func
  22              		.fpu fpv4-sp-d16
  24              	derive_mpi:
  25              	.LFB3:
  26              		.file 1 "C:/Users/dtjld/workspace/AIoT/src/LiteOS_Lab/iot_link/network/dtls/mbedtls/mbedtls-2.16.2
   1:C:/Users/dtjld/workspace/AIoT/src/LiteOS_Lab/iot_link/network/dtls/mbedtls/mbedtls-2.16.2/library\ecdsa.c **** /*
   2:C:/Users/dtjld/workspace/AIoT/src/LiteOS_Lab/iot_link/network/dtls/mbedtls/mbedtls-2.16.2/library\ecdsa.c ****  *  Elliptic curve DSA
   3:C:/Users/dtjld/workspace/AIoT/src/LiteOS_Lab/iot_link/network/dtls/mbedtls/mbedtls-2.16.2/library\ecdsa.c ****  *
   4:C:/Users/dtjld/workspace/AIoT/src/LiteOS_Lab/iot_link/network/dtls/mbedtls/mbedtls-2.16.2/library\ecdsa.c ****  *  Copyright (C) 2006-2015, ARM Limited, All Rights Reserved
   5:C:/Users/dtjld/workspace/AIoT/src/LiteOS_Lab/iot_link/network/dtls/mbedtls/mbedtls-2.16.2/library\ecdsa.c ****  *  SPDX-License-Identifier: Apache-2.0
   6:C:/Users/dtjld/workspace/AIoT/src/LiteOS_Lab/iot_link/network/dtls/mbedtls/mbedtls-2.16.2/library\ecdsa.c ****  *
   7:C:/Users/dtjld/workspace/AIoT/src/LiteOS_Lab/iot_link/network/dtls/mbedtls/mbedtls-2.16.2/library\ecdsa.c ****  *  Licensed under the Apache License, Version 2.0 (the "License"); you may
   8:C:/Users/dtjld/workspace/AIoT/src/LiteOS_Lab/iot_link/network/dtls/mbedtls/mbedtls-2.16.2/library\ecdsa.c ****  *  not use this file except in compliance with the License.
   9:C:/Users/dtjld/workspace/AIoT/src/LiteOS_Lab/iot_link/network/dtls/mbedtls/mbedtls-2.16.2/library\ecdsa.c ****  *  You may obtain a copy of the License at
  10:C:/Users/dtjld/workspace/AIoT/src/LiteOS_Lab/iot_link/network/dtls/mbedtls/mbedtls-2.16.2/library\ecdsa.c ****  *
  11:C:/Users/dtjld/workspace/AIoT/src/LiteOS_Lab/iot_link/network/dtls/mbedtls/mbedtls-2.16.2/library\ecdsa.c ****  *  http://www.apache.org/licenses/LICENSE-2.0
  12:C:/Users/dtjld/workspace/AIoT/src/LiteOS_Lab/iot_link/network/dtls/mbedtls/mbedtls-2.16.2/library\ecdsa.c ****  *
  13:C:/Users/dtjld/workspace/AIoT/src/LiteOS_Lab/iot_link/network/dtls/mbedtls/mbedtls-2.16.2/library\ecdsa.c ****  *  Unless required by applicable law or agreed to in writing, software
  14:C:/Users/dtjld/workspace/AIoT/src/LiteOS_Lab/iot_link/network/dtls/mbedtls/mbedtls-2.16.2/library\ecdsa.c ****  *  distributed under the License is distributed on an "AS IS" BASIS, WITHOUT
  15:C:/Users/dtjld/workspace/AIoT/src/LiteOS_Lab/iot_link/network/dtls/mbedtls/mbedtls-2.16.2/library\ecdsa.c ****  *  WARRANTIES OR CONDITIONS OF ANY KIND, either express or implied.
  16:C:/Users/dtjld/workspace/AIoT/src/LiteOS_Lab/iot_link/network/dtls/mbedtls/mbedtls-2.16.2/library\ecdsa.c ****  *  See the License for the specific language governing permissions and
  17:C:/Users/dtjld/workspace/AIoT/src/LiteOS_Lab/iot_link/network/dtls/mbedtls/mbedtls-2.16.2/library\ecdsa.c ****  *  limitations under the License.
  18:C:/Users/dtjld/workspace/AIoT/src/LiteOS_Lab/iot_link/network/dtls/mbedtls/mbedtls-2.16.2/library\ecdsa.c ****  *
  19:C:/Users/dtjld/workspace/AIoT/src/LiteOS_Lab/iot_link/network/dtls/mbedtls/mbedtls-2.16.2/library\ecdsa.c ****  *  This file is part of mbed TLS (https://tls.mbed.org)
  20:C:/Users/dtjld/workspace/AIoT/src/LiteOS_Lab/iot_link/network/dtls/mbedtls/mbedtls-2.16.2/library\ecdsa.c ****  */
  21:C:/Users/dtjld/workspace/AIoT/src/LiteOS_Lab/iot_link/network/dtls/mbedtls/mbedtls-2.16.2/library\ecdsa.c **** 
  22:C:/Users/dtjld/workspace/AIoT/src/LiteOS_Lab/iot_link/network/dtls/mbedtls/mbedtls-2.16.2/library\ecdsa.c **** /*
  23:C:/Users/dtjld/workspace/AIoT/src/LiteOS_Lab/iot_link/network/dtls/mbedtls/mbedtls-2.16.2/library\ecdsa.c ****  * References:
  24:C:/Users/dtjld/workspace/AIoT/src/LiteOS_Lab/iot_link/network/dtls/mbedtls/mbedtls-2.16.2/library\ecdsa.c ****  *
  25:C:/Users/dtjld/workspace/AIoT/src/LiteOS_Lab/iot_link/network/dtls/mbedtls/mbedtls-2.16.2/library\ecdsa.c ****  * SEC1 http://www.secg.org/index.php?action=secg,docs_secg
  26:C:/Users/dtjld/workspace/AIoT/src/LiteOS_Lab/iot_link/network/dtls/mbedtls/mbedtls-2.16.2/library\ecdsa.c ****  */
  27:C:/Users/dtjld/workspace/AIoT/src/LiteOS_Lab/iot_link/network/dtls/mbedtls/mbedtls-2.16.2/library\ecdsa.c **** 
  28:C:/Users/dtjld/workspace/AIoT/src/LiteOS_Lab/iot_link/network/dtls/mbedtls/mbedtls-2.16.2/library\ecdsa.c **** #if !defined(MBEDTLS_CONFIG_FILE)
  29:C:/Users/dtjld/workspace/AIoT/src/LiteOS_Lab/iot_link/network/dtls/mbedtls/mbedtls-2.16.2/library\ecdsa.c **** #include "mbedtls/config.h"
  30:C:/Users/dtjld/workspace/AIoT/src/LiteOS_Lab/iot_link/network/dtls/mbedtls/mbedtls-2.16.2/library\ecdsa.c **** #else
  31:C:/Users/dtjld/workspace/AIoT/src/LiteOS_Lab/iot_link/network/dtls/mbedtls/mbedtls-2.16.2/library\ecdsa.c **** #include MBEDTLS_CONFIG_FILE
  32:C:/Users/dtjld/workspace/AIoT/src/LiteOS_Lab/iot_link/network/dtls/mbedtls/mbedtls-2.16.2/library\ecdsa.c **** #endif
ARM GAS  C:\Users\dtjld\AppData\Local\Temp\ccFRmaX0.s 			page 2


  33:C:/Users/dtjld/workspace/AIoT/src/LiteOS_Lab/iot_link/network/dtls/mbedtls/mbedtls-2.16.2/library\ecdsa.c **** 
  34:C:/Users/dtjld/workspace/AIoT/src/LiteOS_Lab/iot_link/network/dtls/mbedtls/mbedtls-2.16.2/library\ecdsa.c **** #if defined(MBEDTLS_ECDSA_C)
  35:C:/Users/dtjld/workspace/AIoT/src/LiteOS_Lab/iot_link/network/dtls/mbedtls/mbedtls-2.16.2/library\ecdsa.c **** 
  36:C:/Users/dtjld/workspace/AIoT/src/LiteOS_Lab/iot_link/network/dtls/mbedtls/mbedtls-2.16.2/library\ecdsa.c **** #include "mbedtls/ecdsa.h"
  37:C:/Users/dtjld/workspace/AIoT/src/LiteOS_Lab/iot_link/network/dtls/mbedtls/mbedtls-2.16.2/library\ecdsa.c **** #include "mbedtls/asn1write.h"
  38:C:/Users/dtjld/workspace/AIoT/src/LiteOS_Lab/iot_link/network/dtls/mbedtls/mbedtls-2.16.2/library\ecdsa.c **** 
  39:C:/Users/dtjld/workspace/AIoT/src/LiteOS_Lab/iot_link/network/dtls/mbedtls/mbedtls-2.16.2/library\ecdsa.c **** #include <string.h>
  40:C:/Users/dtjld/workspace/AIoT/src/LiteOS_Lab/iot_link/network/dtls/mbedtls/mbedtls-2.16.2/library\ecdsa.c **** 
  41:C:/Users/dtjld/workspace/AIoT/src/LiteOS_Lab/iot_link/network/dtls/mbedtls/mbedtls-2.16.2/library\ecdsa.c **** #if defined(MBEDTLS_ECDSA_DETERMINISTIC)
  42:C:/Users/dtjld/workspace/AIoT/src/LiteOS_Lab/iot_link/network/dtls/mbedtls/mbedtls-2.16.2/library\ecdsa.c **** #include "mbedtls/hmac_drbg.h"
  43:C:/Users/dtjld/workspace/AIoT/src/LiteOS_Lab/iot_link/network/dtls/mbedtls/mbedtls-2.16.2/library\ecdsa.c **** #endif
  44:C:/Users/dtjld/workspace/AIoT/src/LiteOS_Lab/iot_link/network/dtls/mbedtls/mbedtls-2.16.2/library\ecdsa.c **** 
  45:C:/Users/dtjld/workspace/AIoT/src/LiteOS_Lab/iot_link/network/dtls/mbedtls/mbedtls-2.16.2/library\ecdsa.c **** #if defined(MBEDTLS_PLATFORM_C)
  46:C:/Users/dtjld/workspace/AIoT/src/LiteOS_Lab/iot_link/network/dtls/mbedtls/mbedtls-2.16.2/library\ecdsa.c **** #include "mbedtls/platform.h"
  47:C:/Users/dtjld/workspace/AIoT/src/LiteOS_Lab/iot_link/network/dtls/mbedtls/mbedtls-2.16.2/library\ecdsa.c **** #else
  48:C:/Users/dtjld/workspace/AIoT/src/LiteOS_Lab/iot_link/network/dtls/mbedtls/mbedtls-2.16.2/library\ecdsa.c **** #include <stdlib.h>
  49:C:/Users/dtjld/workspace/AIoT/src/LiteOS_Lab/iot_link/network/dtls/mbedtls/mbedtls-2.16.2/library\ecdsa.c **** #define mbedtls_calloc    calloc
  50:C:/Users/dtjld/workspace/AIoT/src/LiteOS_Lab/iot_link/network/dtls/mbedtls/mbedtls-2.16.2/library\ecdsa.c **** #define mbedtls_free       free
  51:C:/Users/dtjld/workspace/AIoT/src/LiteOS_Lab/iot_link/network/dtls/mbedtls/mbedtls-2.16.2/library\ecdsa.c **** #endif
  52:C:/Users/dtjld/workspace/AIoT/src/LiteOS_Lab/iot_link/network/dtls/mbedtls/mbedtls-2.16.2/library\ecdsa.c **** 
  53:C:/Users/dtjld/workspace/AIoT/src/LiteOS_Lab/iot_link/network/dtls/mbedtls/mbedtls-2.16.2/library\ecdsa.c **** #include "mbedtls/platform_util.h"
  54:C:/Users/dtjld/workspace/AIoT/src/LiteOS_Lab/iot_link/network/dtls/mbedtls/mbedtls-2.16.2/library\ecdsa.c **** 
  55:C:/Users/dtjld/workspace/AIoT/src/LiteOS_Lab/iot_link/network/dtls/mbedtls/mbedtls-2.16.2/library\ecdsa.c **** /* Parameter validation macros based on platform_util.h */
  56:C:/Users/dtjld/workspace/AIoT/src/LiteOS_Lab/iot_link/network/dtls/mbedtls/mbedtls-2.16.2/library\ecdsa.c **** #define ECDSA_VALIDATE_RET( cond )    \
  57:C:/Users/dtjld/workspace/AIoT/src/LiteOS_Lab/iot_link/network/dtls/mbedtls/mbedtls-2.16.2/library\ecdsa.c ****     MBEDTLS_INTERNAL_VALIDATE_RET( cond, MBEDTLS_ERR_ECP_BAD_INPUT_DATA )
  58:C:/Users/dtjld/workspace/AIoT/src/LiteOS_Lab/iot_link/network/dtls/mbedtls/mbedtls-2.16.2/library\ecdsa.c **** #define ECDSA_VALIDATE( cond )        \
  59:C:/Users/dtjld/workspace/AIoT/src/LiteOS_Lab/iot_link/network/dtls/mbedtls/mbedtls-2.16.2/library\ecdsa.c ****     MBEDTLS_INTERNAL_VALIDATE( cond )
  60:C:/Users/dtjld/workspace/AIoT/src/LiteOS_Lab/iot_link/network/dtls/mbedtls/mbedtls-2.16.2/library\ecdsa.c **** 
  61:C:/Users/dtjld/workspace/AIoT/src/LiteOS_Lab/iot_link/network/dtls/mbedtls/mbedtls-2.16.2/library\ecdsa.c **** #if defined(MBEDTLS_ECP_RESTARTABLE)
  62:C:/Users/dtjld/workspace/AIoT/src/LiteOS_Lab/iot_link/network/dtls/mbedtls/mbedtls-2.16.2/library\ecdsa.c **** 
  63:C:/Users/dtjld/workspace/AIoT/src/LiteOS_Lab/iot_link/network/dtls/mbedtls/mbedtls-2.16.2/library\ecdsa.c **** /*
  64:C:/Users/dtjld/workspace/AIoT/src/LiteOS_Lab/iot_link/network/dtls/mbedtls/mbedtls-2.16.2/library\ecdsa.c ****  * Sub-context for ecdsa_verify()
  65:C:/Users/dtjld/workspace/AIoT/src/LiteOS_Lab/iot_link/network/dtls/mbedtls/mbedtls-2.16.2/library\ecdsa.c ****  */
  66:C:/Users/dtjld/workspace/AIoT/src/LiteOS_Lab/iot_link/network/dtls/mbedtls/mbedtls-2.16.2/library\ecdsa.c **** struct mbedtls_ecdsa_restart_ver
  67:C:/Users/dtjld/workspace/AIoT/src/LiteOS_Lab/iot_link/network/dtls/mbedtls/mbedtls-2.16.2/library\ecdsa.c **** {
  68:C:/Users/dtjld/workspace/AIoT/src/LiteOS_Lab/iot_link/network/dtls/mbedtls/mbedtls-2.16.2/library\ecdsa.c ****     mbedtls_mpi u1, u2;     /* intermediate values  */
  69:C:/Users/dtjld/workspace/AIoT/src/LiteOS_Lab/iot_link/network/dtls/mbedtls/mbedtls-2.16.2/library\ecdsa.c ****     enum {                  /* what to do next?     */
  70:C:/Users/dtjld/workspace/AIoT/src/LiteOS_Lab/iot_link/network/dtls/mbedtls/mbedtls-2.16.2/library\ecdsa.c ****         ecdsa_ver_init = 0, /* getting started      */
  71:C:/Users/dtjld/workspace/AIoT/src/LiteOS_Lab/iot_link/network/dtls/mbedtls/mbedtls-2.16.2/library\ecdsa.c ****         ecdsa_ver_muladd,   /* muladd step          */
  72:C:/Users/dtjld/workspace/AIoT/src/LiteOS_Lab/iot_link/network/dtls/mbedtls/mbedtls-2.16.2/library\ecdsa.c ****     } state;
  73:C:/Users/dtjld/workspace/AIoT/src/LiteOS_Lab/iot_link/network/dtls/mbedtls/mbedtls-2.16.2/library\ecdsa.c **** };
  74:C:/Users/dtjld/workspace/AIoT/src/LiteOS_Lab/iot_link/network/dtls/mbedtls/mbedtls-2.16.2/library\ecdsa.c **** 
  75:C:/Users/dtjld/workspace/AIoT/src/LiteOS_Lab/iot_link/network/dtls/mbedtls/mbedtls-2.16.2/library\ecdsa.c **** /*
  76:C:/Users/dtjld/workspace/AIoT/src/LiteOS_Lab/iot_link/network/dtls/mbedtls/mbedtls-2.16.2/library\ecdsa.c ****  * Init verify restart sub-context
  77:C:/Users/dtjld/workspace/AIoT/src/LiteOS_Lab/iot_link/network/dtls/mbedtls/mbedtls-2.16.2/library\ecdsa.c ****  */
  78:C:/Users/dtjld/workspace/AIoT/src/LiteOS_Lab/iot_link/network/dtls/mbedtls/mbedtls-2.16.2/library\ecdsa.c **** static void ecdsa_restart_ver_init( mbedtls_ecdsa_restart_ver_ctx *ctx )
  79:C:/Users/dtjld/workspace/AIoT/src/LiteOS_Lab/iot_link/network/dtls/mbedtls/mbedtls-2.16.2/library\ecdsa.c **** {
  80:C:/Users/dtjld/workspace/AIoT/src/LiteOS_Lab/iot_link/network/dtls/mbedtls/mbedtls-2.16.2/library\ecdsa.c ****     mbedtls_mpi_init( &ctx->u1 );
  81:C:/Users/dtjld/workspace/AIoT/src/LiteOS_Lab/iot_link/network/dtls/mbedtls/mbedtls-2.16.2/library\ecdsa.c ****     mbedtls_mpi_init( &ctx->u2 );
  82:C:/Users/dtjld/workspace/AIoT/src/LiteOS_Lab/iot_link/network/dtls/mbedtls/mbedtls-2.16.2/library\ecdsa.c ****     ctx->state = ecdsa_ver_init;
  83:C:/Users/dtjld/workspace/AIoT/src/LiteOS_Lab/iot_link/network/dtls/mbedtls/mbedtls-2.16.2/library\ecdsa.c **** }
  84:C:/Users/dtjld/workspace/AIoT/src/LiteOS_Lab/iot_link/network/dtls/mbedtls/mbedtls-2.16.2/library\ecdsa.c **** 
  85:C:/Users/dtjld/workspace/AIoT/src/LiteOS_Lab/iot_link/network/dtls/mbedtls/mbedtls-2.16.2/library\ecdsa.c **** /*
  86:C:/Users/dtjld/workspace/AIoT/src/LiteOS_Lab/iot_link/network/dtls/mbedtls/mbedtls-2.16.2/library\ecdsa.c ****  * Free the components of a verify restart sub-context
  87:C:/Users/dtjld/workspace/AIoT/src/LiteOS_Lab/iot_link/network/dtls/mbedtls/mbedtls-2.16.2/library\ecdsa.c ****  */
  88:C:/Users/dtjld/workspace/AIoT/src/LiteOS_Lab/iot_link/network/dtls/mbedtls/mbedtls-2.16.2/library\ecdsa.c **** static void ecdsa_restart_ver_free( mbedtls_ecdsa_restart_ver_ctx *ctx )
  89:C:/Users/dtjld/workspace/AIoT/src/LiteOS_Lab/iot_link/network/dtls/mbedtls/mbedtls-2.16.2/library\ecdsa.c **** {
ARM GAS  C:\Users\dtjld\AppData\Local\Temp\ccFRmaX0.s 			page 3


  90:C:/Users/dtjld/workspace/AIoT/src/LiteOS_Lab/iot_link/network/dtls/mbedtls/mbedtls-2.16.2/library\ecdsa.c ****     if( ctx == NULL )
  91:C:/Users/dtjld/workspace/AIoT/src/LiteOS_Lab/iot_link/network/dtls/mbedtls/mbedtls-2.16.2/library\ecdsa.c ****         return;
  92:C:/Users/dtjld/workspace/AIoT/src/LiteOS_Lab/iot_link/network/dtls/mbedtls/mbedtls-2.16.2/library\ecdsa.c **** 
  93:C:/Users/dtjld/workspace/AIoT/src/LiteOS_Lab/iot_link/network/dtls/mbedtls/mbedtls-2.16.2/library\ecdsa.c ****     mbedtls_mpi_free( &ctx->u1 );
  94:C:/Users/dtjld/workspace/AIoT/src/LiteOS_Lab/iot_link/network/dtls/mbedtls/mbedtls-2.16.2/library\ecdsa.c ****     mbedtls_mpi_free( &ctx->u2 );
  95:C:/Users/dtjld/workspace/AIoT/src/LiteOS_Lab/iot_link/network/dtls/mbedtls/mbedtls-2.16.2/library\ecdsa.c **** 
  96:C:/Users/dtjld/workspace/AIoT/src/LiteOS_Lab/iot_link/network/dtls/mbedtls/mbedtls-2.16.2/library\ecdsa.c ****     ecdsa_restart_ver_init( ctx );
  97:C:/Users/dtjld/workspace/AIoT/src/LiteOS_Lab/iot_link/network/dtls/mbedtls/mbedtls-2.16.2/library\ecdsa.c **** }
  98:C:/Users/dtjld/workspace/AIoT/src/LiteOS_Lab/iot_link/network/dtls/mbedtls/mbedtls-2.16.2/library\ecdsa.c **** 
  99:C:/Users/dtjld/workspace/AIoT/src/LiteOS_Lab/iot_link/network/dtls/mbedtls/mbedtls-2.16.2/library\ecdsa.c **** /*
 100:C:/Users/dtjld/workspace/AIoT/src/LiteOS_Lab/iot_link/network/dtls/mbedtls/mbedtls-2.16.2/library\ecdsa.c ****  * Sub-context for ecdsa_sign()
 101:C:/Users/dtjld/workspace/AIoT/src/LiteOS_Lab/iot_link/network/dtls/mbedtls/mbedtls-2.16.2/library\ecdsa.c ****  */
 102:C:/Users/dtjld/workspace/AIoT/src/LiteOS_Lab/iot_link/network/dtls/mbedtls/mbedtls-2.16.2/library\ecdsa.c **** struct mbedtls_ecdsa_restart_sig
 103:C:/Users/dtjld/workspace/AIoT/src/LiteOS_Lab/iot_link/network/dtls/mbedtls/mbedtls-2.16.2/library\ecdsa.c **** {
 104:C:/Users/dtjld/workspace/AIoT/src/LiteOS_Lab/iot_link/network/dtls/mbedtls/mbedtls-2.16.2/library\ecdsa.c ****     int sign_tries;
 105:C:/Users/dtjld/workspace/AIoT/src/LiteOS_Lab/iot_link/network/dtls/mbedtls/mbedtls-2.16.2/library\ecdsa.c ****     int key_tries;
 106:C:/Users/dtjld/workspace/AIoT/src/LiteOS_Lab/iot_link/network/dtls/mbedtls/mbedtls-2.16.2/library\ecdsa.c ****     mbedtls_mpi k;          /* per-signature random */
 107:C:/Users/dtjld/workspace/AIoT/src/LiteOS_Lab/iot_link/network/dtls/mbedtls/mbedtls-2.16.2/library\ecdsa.c ****     mbedtls_mpi r;          /* r value              */
 108:C:/Users/dtjld/workspace/AIoT/src/LiteOS_Lab/iot_link/network/dtls/mbedtls/mbedtls-2.16.2/library\ecdsa.c ****     enum {                  /* what to do next?     */
 109:C:/Users/dtjld/workspace/AIoT/src/LiteOS_Lab/iot_link/network/dtls/mbedtls/mbedtls-2.16.2/library\ecdsa.c ****         ecdsa_sig_init = 0, /* getting started      */
 110:C:/Users/dtjld/workspace/AIoT/src/LiteOS_Lab/iot_link/network/dtls/mbedtls/mbedtls-2.16.2/library\ecdsa.c ****         ecdsa_sig_mul,      /* doing ecp_mul()      */
 111:C:/Users/dtjld/workspace/AIoT/src/LiteOS_Lab/iot_link/network/dtls/mbedtls/mbedtls-2.16.2/library\ecdsa.c ****         ecdsa_sig_modn,     /* mod N computations   */
 112:C:/Users/dtjld/workspace/AIoT/src/LiteOS_Lab/iot_link/network/dtls/mbedtls/mbedtls-2.16.2/library\ecdsa.c ****     } state;
 113:C:/Users/dtjld/workspace/AIoT/src/LiteOS_Lab/iot_link/network/dtls/mbedtls/mbedtls-2.16.2/library\ecdsa.c **** };
 114:C:/Users/dtjld/workspace/AIoT/src/LiteOS_Lab/iot_link/network/dtls/mbedtls/mbedtls-2.16.2/library\ecdsa.c **** 
 115:C:/Users/dtjld/workspace/AIoT/src/LiteOS_Lab/iot_link/network/dtls/mbedtls/mbedtls-2.16.2/library\ecdsa.c **** /*
 116:C:/Users/dtjld/workspace/AIoT/src/LiteOS_Lab/iot_link/network/dtls/mbedtls/mbedtls-2.16.2/library\ecdsa.c ****  * Init verify sign sub-context
 117:C:/Users/dtjld/workspace/AIoT/src/LiteOS_Lab/iot_link/network/dtls/mbedtls/mbedtls-2.16.2/library\ecdsa.c ****  */
 118:C:/Users/dtjld/workspace/AIoT/src/LiteOS_Lab/iot_link/network/dtls/mbedtls/mbedtls-2.16.2/library\ecdsa.c **** static void ecdsa_restart_sig_init( mbedtls_ecdsa_restart_sig_ctx *ctx )
 119:C:/Users/dtjld/workspace/AIoT/src/LiteOS_Lab/iot_link/network/dtls/mbedtls/mbedtls-2.16.2/library\ecdsa.c **** {
 120:C:/Users/dtjld/workspace/AIoT/src/LiteOS_Lab/iot_link/network/dtls/mbedtls/mbedtls-2.16.2/library\ecdsa.c ****     ctx->sign_tries = 0;
 121:C:/Users/dtjld/workspace/AIoT/src/LiteOS_Lab/iot_link/network/dtls/mbedtls/mbedtls-2.16.2/library\ecdsa.c ****     ctx->key_tries = 0;
 122:C:/Users/dtjld/workspace/AIoT/src/LiteOS_Lab/iot_link/network/dtls/mbedtls/mbedtls-2.16.2/library\ecdsa.c ****     mbedtls_mpi_init( &ctx->k );
 123:C:/Users/dtjld/workspace/AIoT/src/LiteOS_Lab/iot_link/network/dtls/mbedtls/mbedtls-2.16.2/library\ecdsa.c ****     mbedtls_mpi_init( &ctx->r );
 124:C:/Users/dtjld/workspace/AIoT/src/LiteOS_Lab/iot_link/network/dtls/mbedtls/mbedtls-2.16.2/library\ecdsa.c ****     ctx->state = ecdsa_sig_init;
 125:C:/Users/dtjld/workspace/AIoT/src/LiteOS_Lab/iot_link/network/dtls/mbedtls/mbedtls-2.16.2/library\ecdsa.c **** }
 126:C:/Users/dtjld/workspace/AIoT/src/LiteOS_Lab/iot_link/network/dtls/mbedtls/mbedtls-2.16.2/library\ecdsa.c **** 
 127:C:/Users/dtjld/workspace/AIoT/src/LiteOS_Lab/iot_link/network/dtls/mbedtls/mbedtls-2.16.2/library\ecdsa.c **** /*
 128:C:/Users/dtjld/workspace/AIoT/src/LiteOS_Lab/iot_link/network/dtls/mbedtls/mbedtls-2.16.2/library\ecdsa.c ****  * Free the components of a sign restart sub-context
 129:C:/Users/dtjld/workspace/AIoT/src/LiteOS_Lab/iot_link/network/dtls/mbedtls/mbedtls-2.16.2/library\ecdsa.c ****  */
 130:C:/Users/dtjld/workspace/AIoT/src/LiteOS_Lab/iot_link/network/dtls/mbedtls/mbedtls-2.16.2/library\ecdsa.c **** static void ecdsa_restart_sig_free( mbedtls_ecdsa_restart_sig_ctx *ctx )
 131:C:/Users/dtjld/workspace/AIoT/src/LiteOS_Lab/iot_link/network/dtls/mbedtls/mbedtls-2.16.2/library\ecdsa.c **** {
 132:C:/Users/dtjld/workspace/AIoT/src/LiteOS_Lab/iot_link/network/dtls/mbedtls/mbedtls-2.16.2/library\ecdsa.c ****     if( ctx == NULL )
 133:C:/Users/dtjld/workspace/AIoT/src/LiteOS_Lab/iot_link/network/dtls/mbedtls/mbedtls-2.16.2/library\ecdsa.c ****         return;
 134:C:/Users/dtjld/workspace/AIoT/src/LiteOS_Lab/iot_link/network/dtls/mbedtls/mbedtls-2.16.2/library\ecdsa.c **** 
 135:C:/Users/dtjld/workspace/AIoT/src/LiteOS_Lab/iot_link/network/dtls/mbedtls/mbedtls-2.16.2/library\ecdsa.c ****     mbedtls_mpi_free( &ctx->k );
 136:C:/Users/dtjld/workspace/AIoT/src/LiteOS_Lab/iot_link/network/dtls/mbedtls/mbedtls-2.16.2/library\ecdsa.c ****     mbedtls_mpi_free( &ctx->r );
 137:C:/Users/dtjld/workspace/AIoT/src/LiteOS_Lab/iot_link/network/dtls/mbedtls/mbedtls-2.16.2/library\ecdsa.c **** }
 138:C:/Users/dtjld/workspace/AIoT/src/LiteOS_Lab/iot_link/network/dtls/mbedtls/mbedtls-2.16.2/library\ecdsa.c **** 
 139:C:/Users/dtjld/workspace/AIoT/src/LiteOS_Lab/iot_link/network/dtls/mbedtls/mbedtls-2.16.2/library\ecdsa.c **** #if defined(MBEDTLS_ECDSA_DETERMINISTIC)
 140:C:/Users/dtjld/workspace/AIoT/src/LiteOS_Lab/iot_link/network/dtls/mbedtls/mbedtls-2.16.2/library\ecdsa.c **** /*
 141:C:/Users/dtjld/workspace/AIoT/src/LiteOS_Lab/iot_link/network/dtls/mbedtls/mbedtls-2.16.2/library\ecdsa.c ****  * Sub-context for ecdsa_sign_det()
 142:C:/Users/dtjld/workspace/AIoT/src/LiteOS_Lab/iot_link/network/dtls/mbedtls/mbedtls-2.16.2/library\ecdsa.c ****  */
 143:C:/Users/dtjld/workspace/AIoT/src/LiteOS_Lab/iot_link/network/dtls/mbedtls/mbedtls-2.16.2/library\ecdsa.c **** struct mbedtls_ecdsa_restart_det
 144:C:/Users/dtjld/workspace/AIoT/src/LiteOS_Lab/iot_link/network/dtls/mbedtls/mbedtls-2.16.2/library\ecdsa.c **** {
 145:C:/Users/dtjld/workspace/AIoT/src/LiteOS_Lab/iot_link/network/dtls/mbedtls/mbedtls-2.16.2/library\ecdsa.c ****     mbedtls_hmac_drbg_context rng_ctx;  /* DRBG state   */
 146:C:/Users/dtjld/workspace/AIoT/src/LiteOS_Lab/iot_link/network/dtls/mbedtls/mbedtls-2.16.2/library\ecdsa.c ****     enum {                      /* what to do next?     */
ARM GAS  C:\Users\dtjld\AppData\Local\Temp\ccFRmaX0.s 			page 4


 147:C:/Users/dtjld/workspace/AIoT/src/LiteOS_Lab/iot_link/network/dtls/mbedtls/mbedtls-2.16.2/library\ecdsa.c ****         ecdsa_det_init = 0,     /* getting started      */
 148:C:/Users/dtjld/workspace/AIoT/src/LiteOS_Lab/iot_link/network/dtls/mbedtls/mbedtls-2.16.2/library\ecdsa.c ****         ecdsa_det_sign,         /* make signature       */
 149:C:/Users/dtjld/workspace/AIoT/src/LiteOS_Lab/iot_link/network/dtls/mbedtls/mbedtls-2.16.2/library\ecdsa.c ****     } state;
 150:C:/Users/dtjld/workspace/AIoT/src/LiteOS_Lab/iot_link/network/dtls/mbedtls/mbedtls-2.16.2/library\ecdsa.c **** };
 151:C:/Users/dtjld/workspace/AIoT/src/LiteOS_Lab/iot_link/network/dtls/mbedtls/mbedtls-2.16.2/library\ecdsa.c **** 
 152:C:/Users/dtjld/workspace/AIoT/src/LiteOS_Lab/iot_link/network/dtls/mbedtls/mbedtls-2.16.2/library\ecdsa.c **** /*
 153:C:/Users/dtjld/workspace/AIoT/src/LiteOS_Lab/iot_link/network/dtls/mbedtls/mbedtls-2.16.2/library\ecdsa.c ****  * Init verify sign_det sub-context
 154:C:/Users/dtjld/workspace/AIoT/src/LiteOS_Lab/iot_link/network/dtls/mbedtls/mbedtls-2.16.2/library\ecdsa.c ****  */
 155:C:/Users/dtjld/workspace/AIoT/src/LiteOS_Lab/iot_link/network/dtls/mbedtls/mbedtls-2.16.2/library\ecdsa.c **** static void ecdsa_restart_det_init( mbedtls_ecdsa_restart_det_ctx *ctx )
 156:C:/Users/dtjld/workspace/AIoT/src/LiteOS_Lab/iot_link/network/dtls/mbedtls/mbedtls-2.16.2/library\ecdsa.c **** {
 157:C:/Users/dtjld/workspace/AIoT/src/LiteOS_Lab/iot_link/network/dtls/mbedtls/mbedtls-2.16.2/library\ecdsa.c ****     mbedtls_hmac_drbg_init( &ctx->rng_ctx );
 158:C:/Users/dtjld/workspace/AIoT/src/LiteOS_Lab/iot_link/network/dtls/mbedtls/mbedtls-2.16.2/library\ecdsa.c ****     ctx->state = ecdsa_det_init;
 159:C:/Users/dtjld/workspace/AIoT/src/LiteOS_Lab/iot_link/network/dtls/mbedtls/mbedtls-2.16.2/library\ecdsa.c **** }
 160:C:/Users/dtjld/workspace/AIoT/src/LiteOS_Lab/iot_link/network/dtls/mbedtls/mbedtls-2.16.2/library\ecdsa.c **** 
 161:C:/Users/dtjld/workspace/AIoT/src/LiteOS_Lab/iot_link/network/dtls/mbedtls/mbedtls-2.16.2/library\ecdsa.c **** /*
 162:C:/Users/dtjld/workspace/AIoT/src/LiteOS_Lab/iot_link/network/dtls/mbedtls/mbedtls-2.16.2/library\ecdsa.c ****  * Free the components of a sign_det restart sub-context
 163:C:/Users/dtjld/workspace/AIoT/src/LiteOS_Lab/iot_link/network/dtls/mbedtls/mbedtls-2.16.2/library\ecdsa.c ****  */
 164:C:/Users/dtjld/workspace/AIoT/src/LiteOS_Lab/iot_link/network/dtls/mbedtls/mbedtls-2.16.2/library\ecdsa.c **** static void ecdsa_restart_det_free( mbedtls_ecdsa_restart_det_ctx *ctx )
 165:C:/Users/dtjld/workspace/AIoT/src/LiteOS_Lab/iot_link/network/dtls/mbedtls/mbedtls-2.16.2/library\ecdsa.c **** {
 166:C:/Users/dtjld/workspace/AIoT/src/LiteOS_Lab/iot_link/network/dtls/mbedtls/mbedtls-2.16.2/library\ecdsa.c ****     if( ctx == NULL )
 167:C:/Users/dtjld/workspace/AIoT/src/LiteOS_Lab/iot_link/network/dtls/mbedtls/mbedtls-2.16.2/library\ecdsa.c ****         return;
 168:C:/Users/dtjld/workspace/AIoT/src/LiteOS_Lab/iot_link/network/dtls/mbedtls/mbedtls-2.16.2/library\ecdsa.c **** 
 169:C:/Users/dtjld/workspace/AIoT/src/LiteOS_Lab/iot_link/network/dtls/mbedtls/mbedtls-2.16.2/library\ecdsa.c ****     mbedtls_hmac_drbg_free( &ctx->rng_ctx );
 170:C:/Users/dtjld/workspace/AIoT/src/LiteOS_Lab/iot_link/network/dtls/mbedtls/mbedtls-2.16.2/library\ecdsa.c **** 
 171:C:/Users/dtjld/workspace/AIoT/src/LiteOS_Lab/iot_link/network/dtls/mbedtls/mbedtls-2.16.2/library\ecdsa.c ****     ecdsa_restart_det_init( ctx );
 172:C:/Users/dtjld/workspace/AIoT/src/LiteOS_Lab/iot_link/network/dtls/mbedtls/mbedtls-2.16.2/library\ecdsa.c **** }
 173:C:/Users/dtjld/workspace/AIoT/src/LiteOS_Lab/iot_link/network/dtls/mbedtls/mbedtls-2.16.2/library\ecdsa.c **** #endif /* MBEDTLS_ECDSA_DETERMINISTIC */
 174:C:/Users/dtjld/workspace/AIoT/src/LiteOS_Lab/iot_link/network/dtls/mbedtls/mbedtls-2.16.2/library\ecdsa.c **** 
 175:C:/Users/dtjld/workspace/AIoT/src/LiteOS_Lab/iot_link/network/dtls/mbedtls/mbedtls-2.16.2/library\ecdsa.c **** #define ECDSA_RS_ECP    &rs_ctx->ecp
 176:C:/Users/dtjld/workspace/AIoT/src/LiteOS_Lab/iot_link/network/dtls/mbedtls/mbedtls-2.16.2/library\ecdsa.c **** 
 177:C:/Users/dtjld/workspace/AIoT/src/LiteOS_Lab/iot_link/network/dtls/mbedtls/mbedtls-2.16.2/library\ecdsa.c **** /* Utility macro for checking and updating ops budget */
 178:C:/Users/dtjld/workspace/AIoT/src/LiteOS_Lab/iot_link/network/dtls/mbedtls/mbedtls-2.16.2/library\ecdsa.c **** #define ECDSA_BUDGET( ops )   \
 179:C:/Users/dtjld/workspace/AIoT/src/LiteOS_Lab/iot_link/network/dtls/mbedtls/mbedtls-2.16.2/library\ecdsa.c ****     MBEDTLS_MPI_CHK( mbedtls_ecp_check_budget( grp, &rs_ctx->ecp, ops ) );
 180:C:/Users/dtjld/workspace/AIoT/src/LiteOS_Lab/iot_link/network/dtls/mbedtls/mbedtls-2.16.2/library\ecdsa.c **** 
 181:C:/Users/dtjld/workspace/AIoT/src/LiteOS_Lab/iot_link/network/dtls/mbedtls/mbedtls-2.16.2/library\ecdsa.c **** /* Call this when entering a function that needs its own sub-context */
 182:C:/Users/dtjld/workspace/AIoT/src/LiteOS_Lab/iot_link/network/dtls/mbedtls/mbedtls-2.16.2/library\ecdsa.c **** #define ECDSA_RS_ENTER( SUB )   do {                                 \
 183:C:/Users/dtjld/workspace/AIoT/src/LiteOS_Lab/iot_link/network/dtls/mbedtls/mbedtls-2.16.2/library\ecdsa.c ****     /* reset ops count for this call if top-level */                 \
 184:C:/Users/dtjld/workspace/AIoT/src/LiteOS_Lab/iot_link/network/dtls/mbedtls/mbedtls-2.16.2/library\ecdsa.c ****     if( rs_ctx != NULL && rs_ctx->ecp.depth++ == 0 )                 \
 185:C:/Users/dtjld/workspace/AIoT/src/LiteOS_Lab/iot_link/network/dtls/mbedtls/mbedtls-2.16.2/library\ecdsa.c ****         rs_ctx->ecp.ops_done = 0;                                    \
 186:C:/Users/dtjld/workspace/AIoT/src/LiteOS_Lab/iot_link/network/dtls/mbedtls/mbedtls-2.16.2/library\ecdsa.c ****                                                                      \
 187:C:/Users/dtjld/workspace/AIoT/src/LiteOS_Lab/iot_link/network/dtls/mbedtls/mbedtls-2.16.2/library\ecdsa.c ****     /* set up our own sub-context if needed */                       \
 188:C:/Users/dtjld/workspace/AIoT/src/LiteOS_Lab/iot_link/network/dtls/mbedtls/mbedtls-2.16.2/library\ecdsa.c ****     if( mbedtls_ecp_restart_is_enabled() &&                          \
 189:C:/Users/dtjld/workspace/AIoT/src/LiteOS_Lab/iot_link/network/dtls/mbedtls/mbedtls-2.16.2/library\ecdsa.c ****         rs_ctx != NULL && rs_ctx->SUB == NULL )                      \
 190:C:/Users/dtjld/workspace/AIoT/src/LiteOS_Lab/iot_link/network/dtls/mbedtls/mbedtls-2.16.2/library\ecdsa.c ****     {                                                                \
 191:C:/Users/dtjld/workspace/AIoT/src/LiteOS_Lab/iot_link/network/dtls/mbedtls/mbedtls-2.16.2/library\ecdsa.c ****         rs_ctx->SUB = mbedtls_calloc( 1, sizeof( *rs_ctx->SUB ) );   \
 192:C:/Users/dtjld/workspace/AIoT/src/LiteOS_Lab/iot_link/network/dtls/mbedtls/mbedtls-2.16.2/library\ecdsa.c ****         if( rs_ctx->SUB == NULL )                                    \
 193:C:/Users/dtjld/workspace/AIoT/src/LiteOS_Lab/iot_link/network/dtls/mbedtls/mbedtls-2.16.2/library\ecdsa.c ****             return( MBEDTLS_ERR_ECP_ALLOC_FAILED );                  \
 194:C:/Users/dtjld/workspace/AIoT/src/LiteOS_Lab/iot_link/network/dtls/mbedtls/mbedtls-2.16.2/library\ecdsa.c ****                                                                      \
 195:C:/Users/dtjld/workspace/AIoT/src/LiteOS_Lab/iot_link/network/dtls/mbedtls/mbedtls-2.16.2/library\ecdsa.c ****         ecdsa_restart_## SUB ##_init( rs_ctx->SUB );                 \
 196:C:/Users/dtjld/workspace/AIoT/src/LiteOS_Lab/iot_link/network/dtls/mbedtls/mbedtls-2.16.2/library\ecdsa.c ****     }                                                                \
 197:C:/Users/dtjld/workspace/AIoT/src/LiteOS_Lab/iot_link/network/dtls/mbedtls/mbedtls-2.16.2/library\ecdsa.c **** } while( 0 )
 198:C:/Users/dtjld/workspace/AIoT/src/LiteOS_Lab/iot_link/network/dtls/mbedtls/mbedtls-2.16.2/library\ecdsa.c **** 
 199:C:/Users/dtjld/workspace/AIoT/src/LiteOS_Lab/iot_link/network/dtls/mbedtls/mbedtls-2.16.2/library\ecdsa.c **** /* Call this when leaving a function that needs its own sub-context */
 200:C:/Users/dtjld/workspace/AIoT/src/LiteOS_Lab/iot_link/network/dtls/mbedtls/mbedtls-2.16.2/library\ecdsa.c **** #define ECDSA_RS_LEAVE( SUB )   do {                                 \
 201:C:/Users/dtjld/workspace/AIoT/src/LiteOS_Lab/iot_link/network/dtls/mbedtls/mbedtls-2.16.2/library\ecdsa.c ****     /* clear our sub-context when not in progress (done or error) */ \
 202:C:/Users/dtjld/workspace/AIoT/src/LiteOS_Lab/iot_link/network/dtls/mbedtls/mbedtls-2.16.2/library\ecdsa.c ****     if( rs_ctx != NULL && rs_ctx->SUB != NULL &&                     \
 203:C:/Users/dtjld/workspace/AIoT/src/LiteOS_Lab/iot_link/network/dtls/mbedtls/mbedtls-2.16.2/library\ecdsa.c ****         ret != MBEDTLS_ERR_ECP_IN_PROGRESS )                         \
ARM GAS  C:\Users\dtjld\AppData\Local\Temp\ccFRmaX0.s 			page 5


 204:C:/Users/dtjld/workspace/AIoT/src/LiteOS_Lab/iot_link/network/dtls/mbedtls/mbedtls-2.16.2/library\ecdsa.c ****     {                                                                \
 205:C:/Users/dtjld/workspace/AIoT/src/LiteOS_Lab/iot_link/network/dtls/mbedtls/mbedtls-2.16.2/library\ecdsa.c ****         ecdsa_restart_## SUB ##_free( rs_ctx->SUB );                 \
 206:C:/Users/dtjld/workspace/AIoT/src/LiteOS_Lab/iot_link/network/dtls/mbedtls/mbedtls-2.16.2/library\ecdsa.c ****         mbedtls_free( rs_ctx->SUB );                                 \
 207:C:/Users/dtjld/workspace/AIoT/src/LiteOS_Lab/iot_link/network/dtls/mbedtls/mbedtls-2.16.2/library\ecdsa.c ****         rs_ctx->SUB = NULL;                                          \
 208:C:/Users/dtjld/workspace/AIoT/src/LiteOS_Lab/iot_link/network/dtls/mbedtls/mbedtls-2.16.2/library\ecdsa.c ****     }                                                                \
 209:C:/Users/dtjld/workspace/AIoT/src/LiteOS_Lab/iot_link/network/dtls/mbedtls/mbedtls-2.16.2/library\ecdsa.c ****                                                                      \
 210:C:/Users/dtjld/workspace/AIoT/src/LiteOS_Lab/iot_link/network/dtls/mbedtls/mbedtls-2.16.2/library\ecdsa.c ****     if( rs_ctx != NULL )                                             \
 211:C:/Users/dtjld/workspace/AIoT/src/LiteOS_Lab/iot_link/network/dtls/mbedtls/mbedtls-2.16.2/library\ecdsa.c ****         rs_ctx->ecp.depth--;                                         \
 212:C:/Users/dtjld/workspace/AIoT/src/LiteOS_Lab/iot_link/network/dtls/mbedtls/mbedtls-2.16.2/library\ecdsa.c **** } while( 0 )
 213:C:/Users/dtjld/workspace/AIoT/src/LiteOS_Lab/iot_link/network/dtls/mbedtls/mbedtls-2.16.2/library\ecdsa.c **** 
 214:C:/Users/dtjld/workspace/AIoT/src/LiteOS_Lab/iot_link/network/dtls/mbedtls/mbedtls-2.16.2/library\ecdsa.c **** #else /* MBEDTLS_ECP_RESTARTABLE */
 215:C:/Users/dtjld/workspace/AIoT/src/LiteOS_Lab/iot_link/network/dtls/mbedtls/mbedtls-2.16.2/library\ecdsa.c **** 
 216:C:/Users/dtjld/workspace/AIoT/src/LiteOS_Lab/iot_link/network/dtls/mbedtls/mbedtls-2.16.2/library\ecdsa.c **** #define ECDSA_RS_ECP    NULL
 217:C:/Users/dtjld/workspace/AIoT/src/LiteOS_Lab/iot_link/network/dtls/mbedtls/mbedtls-2.16.2/library\ecdsa.c **** 
 218:C:/Users/dtjld/workspace/AIoT/src/LiteOS_Lab/iot_link/network/dtls/mbedtls/mbedtls-2.16.2/library\ecdsa.c **** #define ECDSA_BUDGET( ops )   /* no-op; for compatibility */
 219:C:/Users/dtjld/workspace/AIoT/src/LiteOS_Lab/iot_link/network/dtls/mbedtls/mbedtls-2.16.2/library\ecdsa.c **** 
 220:C:/Users/dtjld/workspace/AIoT/src/LiteOS_Lab/iot_link/network/dtls/mbedtls/mbedtls-2.16.2/library\ecdsa.c **** #define ECDSA_RS_ENTER( SUB )   (void) rs_ctx
 221:C:/Users/dtjld/workspace/AIoT/src/LiteOS_Lab/iot_link/network/dtls/mbedtls/mbedtls-2.16.2/library\ecdsa.c **** #define ECDSA_RS_LEAVE( SUB )   (void) rs_ctx
 222:C:/Users/dtjld/workspace/AIoT/src/LiteOS_Lab/iot_link/network/dtls/mbedtls/mbedtls-2.16.2/library\ecdsa.c **** 
 223:C:/Users/dtjld/workspace/AIoT/src/LiteOS_Lab/iot_link/network/dtls/mbedtls/mbedtls-2.16.2/library\ecdsa.c **** #endif /* MBEDTLS_ECP_RESTARTABLE */
 224:C:/Users/dtjld/workspace/AIoT/src/LiteOS_Lab/iot_link/network/dtls/mbedtls/mbedtls-2.16.2/library\ecdsa.c **** 
 225:C:/Users/dtjld/workspace/AIoT/src/LiteOS_Lab/iot_link/network/dtls/mbedtls/mbedtls-2.16.2/library\ecdsa.c **** /*
 226:C:/Users/dtjld/workspace/AIoT/src/LiteOS_Lab/iot_link/network/dtls/mbedtls/mbedtls-2.16.2/library\ecdsa.c ****  * Derive a suitable integer for group grp from a buffer of length len
 227:C:/Users/dtjld/workspace/AIoT/src/LiteOS_Lab/iot_link/network/dtls/mbedtls/mbedtls-2.16.2/library\ecdsa.c ****  * SEC1 4.1.3 step 5 aka SEC1 4.1.4 step 3
 228:C:/Users/dtjld/workspace/AIoT/src/LiteOS_Lab/iot_link/network/dtls/mbedtls/mbedtls-2.16.2/library\ecdsa.c ****  */
 229:C:/Users/dtjld/workspace/AIoT/src/LiteOS_Lab/iot_link/network/dtls/mbedtls/mbedtls-2.16.2/library\ecdsa.c **** static int derive_mpi( const mbedtls_ecp_group *grp, mbedtls_mpi *x,
 230:C:/Users/dtjld/workspace/AIoT/src/LiteOS_Lab/iot_link/network/dtls/mbedtls/mbedtls-2.16.2/library\ecdsa.c ****                        const unsigned char *buf, size_t blen )
 231:C:/Users/dtjld/workspace/AIoT/src/LiteOS_Lab/iot_link/network/dtls/mbedtls/mbedtls-2.16.2/library\ecdsa.c **** {
  27              		.loc 1 231 0
  28              		.cfi_startproc
  29              		@ args = 0, pretend = 0, frame = 32
  30              		@ frame_needed = 1, uses_anonymous_args = 0
  31 0000 80B5     		push	{r7, lr}
  32              	.LCFI0:
  33              		.cfi_def_cfa_offset 8
  34              		.cfi_offset 7, -8
  35              		.cfi_offset 14, -4
  36 0002 88B0     		sub	sp, sp, #32
  37              	.LCFI1:
  38              		.cfi_def_cfa_offset 40
  39 0004 00AF     		add	r7, sp, #0
  40              	.LCFI2:
  41              		.cfi_def_cfa_register 7
  42 0006 F860     		str	r0, [r7, #12]
  43 0008 B960     		str	r1, [r7, #8]
  44 000a 7A60     		str	r2, [r7, #4]
  45 000c 3B60     		str	r3, [r7]
 232:C:/Users/dtjld/workspace/AIoT/src/LiteOS_Lab/iot_link/network/dtls/mbedtls/mbedtls-2.16.2/library\ecdsa.c ****     int ret;
 233:C:/Users/dtjld/workspace/AIoT/src/LiteOS_Lab/iot_link/network/dtls/mbedtls/mbedtls-2.16.2/library\ecdsa.c ****     size_t n_size = ( grp->nbits + 7 ) / 8;
  46              		.loc 1 233 0
  47 000e FB68     		ldr	r3, [r7, #12]
  48 0010 DB6D     		ldr	r3, [r3, #92]
  49 0012 0733     		adds	r3, r3, #7
  50 0014 DB08     		lsrs	r3, r3, #3
  51 0016 BB61     		str	r3, [r7, #24]
 234:C:/Users/dtjld/workspace/AIoT/src/LiteOS_Lab/iot_link/network/dtls/mbedtls/mbedtls-2.16.2/library\ecdsa.c ****     size_t use_size = blen > n_size ? n_size : blen;
  52              		.loc 1 234 0
ARM GAS  C:\Users\dtjld\AppData\Local\Temp\ccFRmaX0.s 			page 6


  53 0018 3A68     		ldr	r2, [r7]
  54 001a BB69     		ldr	r3, [r7, #24]
  55 001c 9342     		cmp	r3, r2
  56 001e 28BF     		it	cs
  57 0020 1346     		movcs	r3, r2
  58 0022 7B61     		str	r3, [r7, #20]
 235:C:/Users/dtjld/workspace/AIoT/src/LiteOS_Lab/iot_link/network/dtls/mbedtls/mbedtls-2.16.2/library\ecdsa.c **** 
 236:C:/Users/dtjld/workspace/AIoT/src/LiteOS_Lab/iot_link/network/dtls/mbedtls/mbedtls-2.16.2/library\ecdsa.c ****     MBEDTLS_MPI_CHK( mbedtls_mpi_read_binary( x, buf, use_size ) );
  59              		.loc 1 236 0
  60 0024 7A69     		ldr	r2, [r7, #20]
  61 0026 7968     		ldr	r1, [r7, #4]
  62 0028 B868     		ldr	r0, [r7, #8]
  63 002a FFF7FEFF 		bl	mbedtls_mpi_read_binary
  64 002e F861     		str	r0, [r7, #28]
  65 0030 FB69     		ldr	r3, [r7, #28]
  66 0032 002B     		cmp	r3, #0
  67 0034 26D1     		bne	.L6
 237:C:/Users/dtjld/workspace/AIoT/src/LiteOS_Lab/iot_link/network/dtls/mbedtls/mbedtls-2.16.2/library\ecdsa.c ****     if( use_size * 8 > grp->nbits )
  68              		.loc 1 237 0
  69 0036 7B69     		ldr	r3, [r7, #20]
  70 0038 DA00     		lsls	r2, r3, #3
  71 003a FB68     		ldr	r3, [r7, #12]
  72 003c DB6D     		ldr	r3, [r3, #92]
  73 003e 9A42     		cmp	r2, r3
  74 0040 0CD9     		bls	.L4
 238:C:/Users/dtjld/workspace/AIoT/src/LiteOS_Lab/iot_link/network/dtls/mbedtls/mbedtls-2.16.2/library\ecdsa.c ****         MBEDTLS_MPI_CHK( mbedtls_mpi_shift_r( x, use_size * 8 - grp->nbits ) );
  75              		.loc 1 238 0
  76 0042 7B69     		ldr	r3, [r7, #20]
  77 0044 DA00     		lsls	r2, r3, #3
  78 0046 FB68     		ldr	r3, [r7, #12]
  79 0048 DB6D     		ldr	r3, [r3, #92]
  80 004a D31A     		subs	r3, r2, r3
  81 004c 1946     		mov	r1, r3
  82 004e B868     		ldr	r0, [r7, #8]
  83 0050 FFF7FEFF 		bl	mbedtls_mpi_shift_r
  84 0054 F861     		str	r0, [r7, #28]
  85 0056 FB69     		ldr	r3, [r7, #28]
  86 0058 002B     		cmp	r3, #0
  87 005a 15D1     		bne	.L7
  88              	.L4:
 239:C:/Users/dtjld/workspace/AIoT/src/LiteOS_Lab/iot_link/network/dtls/mbedtls/mbedtls-2.16.2/library\ecdsa.c **** 
 240:C:/Users/dtjld/workspace/AIoT/src/LiteOS_Lab/iot_link/network/dtls/mbedtls/mbedtls-2.16.2/library\ecdsa.c ****     /* While at it, reduce modulo N */
 241:C:/Users/dtjld/workspace/AIoT/src/LiteOS_Lab/iot_link/network/dtls/mbedtls/mbedtls-2.16.2/library\ecdsa.c ****     if( mbedtls_mpi_cmp_mpi( x, &grp->N ) >= 0 )
  89              		.loc 1 241 0
  90 005c FB68     		ldr	r3, [r7, #12]
  91 005e 4C33     		adds	r3, r3, #76
  92 0060 1946     		mov	r1, r3
  93 0062 B868     		ldr	r0, [r7, #8]
  94 0064 FFF7FEFF 		bl	mbedtls_mpi_cmp_mpi
  95 0068 0346     		mov	r3, r0
  96 006a 002B     		cmp	r3, #0
  97 006c 0EDB     		blt	.L8
 242:C:/Users/dtjld/workspace/AIoT/src/LiteOS_Lab/iot_link/network/dtls/mbedtls/mbedtls-2.16.2/library\ecdsa.c ****         MBEDTLS_MPI_CHK( mbedtls_mpi_sub_mpi( x, x, &grp->N ) );
  98              		.loc 1 242 0
  99 006e FB68     		ldr	r3, [r7, #12]
 100 0070 4C33     		adds	r3, r3, #76
 101 0072 1A46     		mov	r2, r3
ARM GAS  C:\Users\dtjld\AppData\Local\Temp\ccFRmaX0.s 			page 7


 102 0074 B968     		ldr	r1, [r7, #8]
 103 0076 B868     		ldr	r0, [r7, #8]
 104 0078 FFF7FEFF 		bl	mbedtls_mpi_sub_mpi
 105 007c F861     		str	r0, [r7, #28]
 106 007e FB69     		ldr	r3, [r7, #28]
 107 0080 002B     		cmp	r3, #0
 243:C:/Users/dtjld/workspace/AIoT/src/LiteOS_Lab/iot_link/network/dtls/mbedtls/mbedtls-2.16.2/library\ecdsa.c **** 
 244:C:/Users/dtjld/workspace/AIoT/src/LiteOS_Lab/iot_link/network/dtls/mbedtls/mbedtls-2.16.2/library\ecdsa.c **** cleanup:
 108              		.loc 1 244 0
 109 0082 03E0     		b	.L8
 110              	.L6:
 236:C:/Users/dtjld/workspace/AIoT/src/LiteOS_Lab/iot_link/network/dtls/mbedtls/mbedtls-2.16.2/library\ecdsa.c ****     if( use_size * 8 > grp->nbits )
 111              		.loc 1 236 0
 112 0084 00BF     		nop
 113 0086 02E0     		b	.L3
 114              	.L7:
 238:C:/Users/dtjld/workspace/AIoT/src/LiteOS_Lab/iot_link/network/dtls/mbedtls/mbedtls-2.16.2/library\ecdsa.c **** 
 115              		.loc 1 238 0
 116 0088 00BF     		nop
 117 008a 00E0     		b	.L3
 118              	.L8:
 119              		.loc 1 244 0
 120 008c 00BF     		nop
 121              	.L3:
 245:C:/Users/dtjld/workspace/AIoT/src/LiteOS_Lab/iot_link/network/dtls/mbedtls/mbedtls-2.16.2/library\ecdsa.c ****     return( ret );
 122              		.loc 1 245 0
 123 008e FB69     		ldr	r3, [r7, #28]
 246:C:/Users/dtjld/workspace/AIoT/src/LiteOS_Lab/iot_link/network/dtls/mbedtls/mbedtls-2.16.2/library\ecdsa.c **** }
 124              		.loc 1 246 0
 125 0090 1846     		mov	r0, r3
 126 0092 2037     		adds	r7, r7, #32
 127              	.LCFI3:
 128              		.cfi_def_cfa_offset 8
 129 0094 BD46     		mov	sp, r7
 130              	.LCFI4:
 131              		.cfi_def_cfa_register 13
 132              		@ sp needed
 133 0096 80BD     		pop	{r7, pc}
 134              		.cfi_endproc
 135              	.LFE3:
 137              		.section	.text.ecdsa_sign_restartable,"ax",%progbits
 138              		.align	1
 139              		.syntax unified
 140              		.thumb
 141              		.thumb_func
 142              		.fpu fpv4-sp-d16
 144              	ecdsa_sign_restartable:
 145              	.LFB4:
 247:C:/Users/dtjld/workspace/AIoT/src/LiteOS_Lab/iot_link/network/dtls/mbedtls/mbedtls-2.16.2/library\ecdsa.c **** 
 248:C:/Users/dtjld/workspace/AIoT/src/LiteOS_Lab/iot_link/network/dtls/mbedtls/mbedtls-2.16.2/library\ecdsa.c **** #if !defined(MBEDTLS_ECDSA_SIGN_ALT)
 249:C:/Users/dtjld/workspace/AIoT/src/LiteOS_Lab/iot_link/network/dtls/mbedtls/mbedtls-2.16.2/library\ecdsa.c **** /*
 250:C:/Users/dtjld/workspace/AIoT/src/LiteOS_Lab/iot_link/network/dtls/mbedtls/mbedtls-2.16.2/library\ecdsa.c ****  * Compute ECDSA signature of a hashed message (SEC1 4.1.3)
 251:C:/Users/dtjld/workspace/AIoT/src/LiteOS_Lab/iot_link/network/dtls/mbedtls/mbedtls-2.16.2/library\ecdsa.c ****  * Obviously, compared to SEC1 4.1.3, we skip step 4 (hash message)
 252:C:/Users/dtjld/workspace/AIoT/src/LiteOS_Lab/iot_link/network/dtls/mbedtls/mbedtls-2.16.2/library\ecdsa.c ****  */
 253:C:/Users/dtjld/workspace/AIoT/src/LiteOS_Lab/iot_link/network/dtls/mbedtls/mbedtls-2.16.2/library\ecdsa.c **** static int ecdsa_sign_restartable( mbedtls_ecp_group *grp,
 254:C:/Users/dtjld/workspace/AIoT/src/LiteOS_Lab/iot_link/network/dtls/mbedtls/mbedtls-2.16.2/library\ecdsa.c ****                 mbedtls_mpi *r, mbedtls_mpi *s,
 255:C:/Users/dtjld/workspace/AIoT/src/LiteOS_Lab/iot_link/network/dtls/mbedtls/mbedtls-2.16.2/library\ecdsa.c ****                 const mbedtls_mpi *d, const unsigned char *buf, size_t blen,
ARM GAS  C:\Users\dtjld\AppData\Local\Temp\ccFRmaX0.s 			page 8


 256:C:/Users/dtjld/workspace/AIoT/src/LiteOS_Lab/iot_link/network/dtls/mbedtls/mbedtls-2.16.2/library\ecdsa.c ****                 int (*f_rng)(void *, unsigned char *, size_t), void *p_rng,
 257:C:/Users/dtjld/workspace/AIoT/src/LiteOS_Lab/iot_link/network/dtls/mbedtls/mbedtls-2.16.2/library\ecdsa.c ****                 mbedtls_ecdsa_restart_ctx *rs_ctx )
 258:C:/Users/dtjld/workspace/AIoT/src/LiteOS_Lab/iot_link/network/dtls/mbedtls/mbedtls-2.16.2/library\ecdsa.c **** {
 146              		.loc 1 258 0
 147              		.cfi_startproc
 148              		@ args = 20, pretend = 0, frame = 120
 149              		@ frame_needed = 1, uses_anonymous_args = 0
 150 0000 80B5     		push	{r7, lr}
 151              	.LCFI5:
 152              		.cfi_def_cfa_offset 8
 153              		.cfi_offset 7, -8
 154              		.cfi_offset 14, -4
 155 0002 A2B0     		sub	sp, sp, #136
 156              	.LCFI6:
 157              		.cfi_def_cfa_offset 144
 158 0004 04AF     		add	r7, sp, #16
 159              	.LCFI7:
 160              		.cfi_def_cfa 7, 128
 161 0006 F860     		str	r0, [r7, #12]
 162 0008 B960     		str	r1, [r7, #8]
 163 000a 7A60     		str	r2, [r7, #4]
 164 000c 3B60     		str	r3, [r7]
 259:C:/Users/dtjld/workspace/AIoT/src/LiteOS_Lab/iot_link/network/dtls/mbedtls/mbedtls-2.16.2/library\ecdsa.c ****     int ret, key_tries, sign_tries;
 260:C:/Users/dtjld/workspace/AIoT/src/LiteOS_Lab/iot_link/network/dtls/mbedtls/mbedtls-2.16.2/library\ecdsa.c ****     int *p_sign_tries = &sign_tries, *p_key_tries = &key_tries;
 165              		.loc 1 260 0
 166 000e 07F15C03 		add	r3, r7, #92
 167 0012 3B67     		str	r3, [r7, #112]
 168 0014 07F16003 		add	r3, r7, #96
 169 0018 FB66     		str	r3, [r7, #108]
 261:C:/Users/dtjld/workspace/AIoT/src/LiteOS_Lab/iot_link/network/dtls/mbedtls/mbedtls-2.16.2/library\ecdsa.c ****     mbedtls_ecp_point R;
 262:C:/Users/dtjld/workspace/AIoT/src/LiteOS_Lab/iot_link/network/dtls/mbedtls/mbedtls-2.16.2/library\ecdsa.c ****     mbedtls_mpi k, e, t;
 263:C:/Users/dtjld/workspace/AIoT/src/LiteOS_Lab/iot_link/network/dtls/mbedtls/mbedtls-2.16.2/library\ecdsa.c ****     mbedtls_mpi *pk = &k, *pr = r;
 170              		.loc 1 263 0
 171 001a 07F12C03 		add	r3, r7, #44
 172 001e BB66     		str	r3, [r7, #104]
 173 0020 BB68     		ldr	r3, [r7, #8]
 174 0022 7B66     		str	r3, [r7, #100]
 264:C:/Users/dtjld/workspace/AIoT/src/LiteOS_Lab/iot_link/network/dtls/mbedtls/mbedtls-2.16.2/library\ecdsa.c **** 
 265:C:/Users/dtjld/workspace/AIoT/src/LiteOS_Lab/iot_link/network/dtls/mbedtls/mbedtls-2.16.2/library\ecdsa.c ****     /* Fail cleanly on curves such as Curve25519 that can't be used for ECDSA */
 266:C:/Users/dtjld/workspace/AIoT/src/LiteOS_Lab/iot_link/network/dtls/mbedtls/mbedtls-2.16.2/library\ecdsa.c ****     if( grp->N.p == NULL )
 175              		.loc 1 266 0
 176 0024 FB68     		ldr	r3, [r7, #12]
 177 0026 5B6D     		ldr	r3, [r3, #84]
 178 0028 002B     		cmp	r3, #0
 179 002a 01D1     		bne	.L10
 267:C:/Users/dtjld/workspace/AIoT/src/LiteOS_Lab/iot_link/network/dtls/mbedtls/mbedtls-2.16.2/library\ecdsa.c ****         return( MBEDTLS_ERR_ECP_BAD_INPUT_DATA );
 180              		.loc 1 267 0
 181 002c 8C4B     		ldr	r3, .L44
 182 002e 12E1     		b	.L31
 183              	.L10:
 268:C:/Users/dtjld/workspace/AIoT/src/LiteOS_Lab/iot_link/network/dtls/mbedtls/mbedtls-2.16.2/library\ecdsa.c **** 
 269:C:/Users/dtjld/workspace/AIoT/src/LiteOS_Lab/iot_link/network/dtls/mbedtls/mbedtls-2.16.2/library\ecdsa.c ****     /* Make sure d is in range 1..n-1 */
 270:C:/Users/dtjld/workspace/AIoT/src/LiteOS_Lab/iot_link/network/dtls/mbedtls/mbedtls-2.16.2/library\ecdsa.c ****     if( mbedtls_mpi_cmp_int( d, 1 ) < 0 || mbedtls_mpi_cmp_mpi( d, &grp->N ) >= 0 )
 184              		.loc 1 270 0
 185 0030 0121     		movs	r1, #1
 186 0032 3868     		ldr	r0, [r7]
 187 0034 FFF7FEFF 		bl	mbedtls_mpi_cmp_int
ARM GAS  C:\Users\dtjld\AppData\Local\Temp\ccFRmaX0.s 			page 9


 188 0038 0346     		mov	r3, r0
 189 003a 002B     		cmp	r3, #0
 190 003c 08DB     		blt	.L12
 191              		.loc 1 270 0 is_stmt 0 discriminator 1
 192 003e FB68     		ldr	r3, [r7, #12]
 193 0040 4C33     		adds	r3, r3, #76
 194 0042 1946     		mov	r1, r3
 195 0044 3868     		ldr	r0, [r7]
 196 0046 FFF7FEFF 		bl	mbedtls_mpi_cmp_mpi
 197 004a 0346     		mov	r3, r0
 198 004c 002B     		cmp	r3, #0
 199 004e 01DB     		blt	.L13
 200              	.L12:
 271:C:/Users/dtjld/workspace/AIoT/src/LiteOS_Lab/iot_link/network/dtls/mbedtls/mbedtls-2.16.2/library\ecdsa.c ****         return( MBEDTLS_ERR_ECP_INVALID_KEY );
 201              		.loc 1 271 0 is_stmt 1
 202 0050 844B     		ldr	r3, .L44+4
 203 0052 00E1     		b	.L31
 204              	.L13:
 272:C:/Users/dtjld/workspace/AIoT/src/LiteOS_Lab/iot_link/network/dtls/mbedtls/mbedtls-2.16.2/library\ecdsa.c **** 
 273:C:/Users/dtjld/workspace/AIoT/src/LiteOS_Lab/iot_link/network/dtls/mbedtls/mbedtls-2.16.2/library\ecdsa.c ****     mbedtls_ecp_point_init( &R );
 205              		.loc 1 273 0
 206 0054 07F13803 		add	r3, r7, #56
 207 0058 1846     		mov	r0, r3
 208 005a FFF7FEFF 		bl	mbedtls_ecp_point_init
 274:C:/Users/dtjld/workspace/AIoT/src/LiteOS_Lab/iot_link/network/dtls/mbedtls/mbedtls-2.16.2/library\ecdsa.c ****     mbedtls_mpi_init( &k ); mbedtls_mpi_init( &e ); mbedtls_mpi_init( &t );
 209              		.loc 1 274 0
 210 005e 07F12C03 		add	r3, r7, #44
 211 0062 1846     		mov	r0, r3
 212 0064 FFF7FEFF 		bl	mbedtls_mpi_init
 213 0068 07F12003 		add	r3, r7, #32
 214 006c 1846     		mov	r0, r3
 215 006e FFF7FEFF 		bl	mbedtls_mpi_init
 216 0072 07F11403 		add	r3, r7, #20
 217 0076 1846     		mov	r0, r3
 218 0078 FFF7FEFF 		bl	mbedtls_mpi_init
 275:C:/Users/dtjld/workspace/AIoT/src/LiteOS_Lab/iot_link/network/dtls/mbedtls/mbedtls-2.16.2/library\ecdsa.c **** 
 276:C:/Users/dtjld/workspace/AIoT/src/LiteOS_Lab/iot_link/network/dtls/mbedtls/mbedtls-2.16.2/library\ecdsa.c ****     ECDSA_RS_ENTER( sig );
 277:C:/Users/dtjld/workspace/AIoT/src/LiteOS_Lab/iot_link/network/dtls/mbedtls/mbedtls-2.16.2/library\ecdsa.c **** 
 278:C:/Users/dtjld/workspace/AIoT/src/LiteOS_Lab/iot_link/network/dtls/mbedtls/mbedtls-2.16.2/library\ecdsa.c **** #if defined(MBEDTLS_ECP_RESTARTABLE)
 279:C:/Users/dtjld/workspace/AIoT/src/LiteOS_Lab/iot_link/network/dtls/mbedtls/mbedtls-2.16.2/library\ecdsa.c ****     if( rs_ctx != NULL && rs_ctx->sig != NULL )
 280:C:/Users/dtjld/workspace/AIoT/src/LiteOS_Lab/iot_link/network/dtls/mbedtls/mbedtls-2.16.2/library\ecdsa.c ****     {
 281:C:/Users/dtjld/workspace/AIoT/src/LiteOS_Lab/iot_link/network/dtls/mbedtls/mbedtls-2.16.2/library\ecdsa.c ****         /* redirect to our context */
 282:C:/Users/dtjld/workspace/AIoT/src/LiteOS_Lab/iot_link/network/dtls/mbedtls/mbedtls-2.16.2/library\ecdsa.c ****         p_sign_tries = &rs_ctx->sig->sign_tries;
 283:C:/Users/dtjld/workspace/AIoT/src/LiteOS_Lab/iot_link/network/dtls/mbedtls/mbedtls-2.16.2/library\ecdsa.c ****         p_key_tries = &rs_ctx->sig->key_tries;
 284:C:/Users/dtjld/workspace/AIoT/src/LiteOS_Lab/iot_link/network/dtls/mbedtls/mbedtls-2.16.2/library\ecdsa.c ****         pk = &rs_ctx->sig->k;
 285:C:/Users/dtjld/workspace/AIoT/src/LiteOS_Lab/iot_link/network/dtls/mbedtls/mbedtls-2.16.2/library\ecdsa.c ****         pr = &rs_ctx->sig->r;
 286:C:/Users/dtjld/workspace/AIoT/src/LiteOS_Lab/iot_link/network/dtls/mbedtls/mbedtls-2.16.2/library\ecdsa.c **** 
 287:C:/Users/dtjld/workspace/AIoT/src/LiteOS_Lab/iot_link/network/dtls/mbedtls/mbedtls-2.16.2/library\ecdsa.c ****         /* jump to current step */
 288:C:/Users/dtjld/workspace/AIoT/src/LiteOS_Lab/iot_link/network/dtls/mbedtls/mbedtls-2.16.2/library\ecdsa.c ****         if( rs_ctx->sig->state == ecdsa_sig_mul )
 289:C:/Users/dtjld/workspace/AIoT/src/LiteOS_Lab/iot_link/network/dtls/mbedtls/mbedtls-2.16.2/library\ecdsa.c ****             goto mul;
 290:C:/Users/dtjld/workspace/AIoT/src/LiteOS_Lab/iot_link/network/dtls/mbedtls/mbedtls-2.16.2/library\ecdsa.c ****         if( rs_ctx->sig->state == ecdsa_sig_modn )
 291:C:/Users/dtjld/workspace/AIoT/src/LiteOS_Lab/iot_link/network/dtls/mbedtls/mbedtls-2.16.2/library\ecdsa.c ****             goto modn;
 292:C:/Users/dtjld/workspace/AIoT/src/LiteOS_Lab/iot_link/network/dtls/mbedtls/mbedtls-2.16.2/library\ecdsa.c ****     }
 293:C:/Users/dtjld/workspace/AIoT/src/LiteOS_Lab/iot_link/network/dtls/mbedtls/mbedtls-2.16.2/library\ecdsa.c **** #endif /* MBEDTLS_ECP_RESTARTABLE */
 294:C:/Users/dtjld/workspace/AIoT/src/LiteOS_Lab/iot_link/network/dtls/mbedtls/mbedtls-2.16.2/library\ecdsa.c **** 
 295:C:/Users/dtjld/workspace/AIoT/src/LiteOS_Lab/iot_link/network/dtls/mbedtls/mbedtls-2.16.2/library\ecdsa.c ****     *p_sign_tries = 0;
 219              		.loc 1 295 0
ARM GAS  C:\Users\dtjld\AppData\Local\Temp\ccFRmaX0.s 			page 10


 220 007c 3B6F     		ldr	r3, [r7, #112]
 221 007e 0022     		movs	r2, #0
 222 0080 1A60     		str	r2, [r3]
 223              	.L30:
 296:C:/Users/dtjld/workspace/AIoT/src/LiteOS_Lab/iot_link/network/dtls/mbedtls/mbedtls-2.16.2/library\ecdsa.c ****     do
 297:C:/Users/dtjld/workspace/AIoT/src/LiteOS_Lab/iot_link/network/dtls/mbedtls/mbedtls-2.16.2/library\ecdsa.c ****     {
 298:C:/Users/dtjld/workspace/AIoT/src/LiteOS_Lab/iot_link/network/dtls/mbedtls/mbedtls-2.16.2/library\ecdsa.c ****         if( *p_sign_tries++ > 10 )
 224              		.loc 1 298 0
 225 0082 3B6F     		ldr	r3, [r7, #112]
 226 0084 1A1D     		adds	r2, r3, #4
 227 0086 3A67     		str	r2, [r7, #112]
 228 0088 1B68     		ldr	r3, [r3]
 229 008a 0A2B     		cmp	r3, #10
 230 008c 02DD     		ble	.L14
 299:C:/Users/dtjld/workspace/AIoT/src/LiteOS_Lab/iot_link/network/dtls/mbedtls/mbedtls-2.16.2/library\ecdsa.c ****         {
 300:C:/Users/dtjld/workspace/AIoT/src/LiteOS_Lab/iot_link/network/dtls/mbedtls/mbedtls-2.16.2/library\ecdsa.c ****             ret = MBEDTLS_ERR_ECP_RANDOM_FAILED;
 231              		.loc 1 300 0
 232 008e 764B     		ldr	r3, .L44+8
 233 0090 7B67     		str	r3, [r7, #116]
 301:C:/Users/dtjld/workspace/AIoT/src/LiteOS_Lab/iot_link/network/dtls/mbedtls/mbedtls-2.16.2/library\ecdsa.c ****             goto cleanup;
 234              		.loc 1 301 0
 235 0092 CBE0     		b	.L15
 236              	.L14:
 302:C:/Users/dtjld/workspace/AIoT/src/LiteOS_Lab/iot_link/network/dtls/mbedtls/mbedtls-2.16.2/library\ecdsa.c ****         }
 303:C:/Users/dtjld/workspace/AIoT/src/LiteOS_Lab/iot_link/network/dtls/mbedtls/mbedtls-2.16.2/library\ecdsa.c **** 
 304:C:/Users/dtjld/workspace/AIoT/src/LiteOS_Lab/iot_link/network/dtls/mbedtls/mbedtls-2.16.2/library\ecdsa.c ****         /*
 305:C:/Users/dtjld/workspace/AIoT/src/LiteOS_Lab/iot_link/network/dtls/mbedtls/mbedtls-2.16.2/library\ecdsa.c ****          * Steps 1-3: generate a suitable ephemeral keypair
 306:C:/Users/dtjld/workspace/AIoT/src/LiteOS_Lab/iot_link/network/dtls/mbedtls/mbedtls-2.16.2/library\ecdsa.c ****          * and set r = xR mod n
 307:C:/Users/dtjld/workspace/AIoT/src/LiteOS_Lab/iot_link/network/dtls/mbedtls/mbedtls-2.16.2/library\ecdsa.c ****          */
 308:C:/Users/dtjld/workspace/AIoT/src/LiteOS_Lab/iot_link/network/dtls/mbedtls/mbedtls-2.16.2/library\ecdsa.c ****         *p_key_tries = 0;
 237              		.loc 1 308 0
 238 0094 FB6E     		ldr	r3, [r7, #108]
 239 0096 0022     		movs	r2, #0
 240 0098 1A60     		str	r2, [r3]
 241              	.L20:
 309:C:/Users/dtjld/workspace/AIoT/src/LiteOS_Lab/iot_link/network/dtls/mbedtls/mbedtls-2.16.2/library\ecdsa.c ****         do
 310:C:/Users/dtjld/workspace/AIoT/src/LiteOS_Lab/iot_link/network/dtls/mbedtls/mbedtls-2.16.2/library\ecdsa.c ****         {
 311:C:/Users/dtjld/workspace/AIoT/src/LiteOS_Lab/iot_link/network/dtls/mbedtls/mbedtls-2.16.2/library\ecdsa.c ****             if( *p_key_tries++ > 10 )
 242              		.loc 1 311 0
 243 009a FB6E     		ldr	r3, [r7, #108]
 244 009c 1A1D     		adds	r2, r3, #4
 245 009e FA66     		str	r2, [r7, #108]
 246 00a0 1B68     		ldr	r3, [r3]
 247 00a2 0A2B     		cmp	r3, #10
 248 00a4 02DD     		ble	.L16
 312:C:/Users/dtjld/workspace/AIoT/src/LiteOS_Lab/iot_link/network/dtls/mbedtls/mbedtls-2.16.2/library\ecdsa.c ****             {
 313:C:/Users/dtjld/workspace/AIoT/src/LiteOS_Lab/iot_link/network/dtls/mbedtls/mbedtls-2.16.2/library\ecdsa.c ****                 ret = MBEDTLS_ERR_ECP_RANDOM_FAILED;
 249              		.loc 1 313 0
 250 00a6 704B     		ldr	r3, .L44+8
 251 00a8 7B67     		str	r3, [r7, #116]
 314:C:/Users/dtjld/workspace/AIoT/src/LiteOS_Lab/iot_link/network/dtls/mbedtls/mbedtls-2.16.2/library\ecdsa.c ****                 goto cleanup;
 252              		.loc 1 314 0
 253 00aa BFE0     		b	.L15
 254              	.L16:
 315:C:/Users/dtjld/workspace/AIoT/src/LiteOS_Lab/iot_link/network/dtls/mbedtls/mbedtls-2.16.2/library\ecdsa.c ****             }
 316:C:/Users/dtjld/workspace/AIoT/src/LiteOS_Lab/iot_link/network/dtls/mbedtls/mbedtls-2.16.2/library\ecdsa.c **** 
 317:C:/Users/dtjld/workspace/AIoT/src/LiteOS_Lab/iot_link/network/dtls/mbedtls/mbedtls-2.16.2/library\ecdsa.c ****             MBEDTLS_MPI_CHK( mbedtls_ecp_gen_privkey( grp, pk, f_rng, p_rng ) );
ARM GAS  C:\Users\dtjld\AppData\Local\Temp\ccFRmaX0.s 			page 11


 255              		.loc 1 317 0
 256 00ac D7F88C30 		ldr	r3, [r7, #140]
 257 00b0 D7F88820 		ldr	r2, [r7, #136]
 258 00b4 B96E     		ldr	r1, [r7, #104]
 259 00b6 F868     		ldr	r0, [r7, #12]
 260 00b8 FFF7FEFF 		bl	mbedtls_ecp_gen_privkey
 261 00bc 7867     		str	r0, [r7, #116]
 262 00be 7B6F     		ldr	r3, [r7, #116]
 263 00c0 002B     		cmp	r3, #0
 264 00c2 40F09C80 		bne	.L32
 318:C:/Users/dtjld/workspace/AIoT/src/LiteOS_Lab/iot_link/network/dtls/mbedtls/mbedtls-2.16.2/library\ecdsa.c **** 
 319:C:/Users/dtjld/workspace/AIoT/src/LiteOS_Lab/iot_link/network/dtls/mbedtls/mbedtls-2.16.2/library\ecdsa.c **** #if defined(MBEDTLS_ECP_RESTARTABLE)
 320:C:/Users/dtjld/workspace/AIoT/src/LiteOS_Lab/iot_link/network/dtls/mbedtls/mbedtls-2.16.2/library\ecdsa.c ****             if( rs_ctx != NULL && rs_ctx->sig != NULL )
 321:C:/Users/dtjld/workspace/AIoT/src/LiteOS_Lab/iot_link/network/dtls/mbedtls/mbedtls-2.16.2/library\ecdsa.c ****                 rs_ctx->sig->state = ecdsa_sig_mul;
 322:C:/Users/dtjld/workspace/AIoT/src/LiteOS_Lab/iot_link/network/dtls/mbedtls/mbedtls-2.16.2/library\ecdsa.c **** 
 323:C:/Users/dtjld/workspace/AIoT/src/LiteOS_Lab/iot_link/network/dtls/mbedtls/mbedtls-2.16.2/library\ecdsa.c **** mul:
 324:C:/Users/dtjld/workspace/AIoT/src/LiteOS_Lab/iot_link/network/dtls/mbedtls/mbedtls-2.16.2/library\ecdsa.c **** #endif
 325:C:/Users/dtjld/workspace/AIoT/src/LiteOS_Lab/iot_link/network/dtls/mbedtls/mbedtls-2.16.2/library\ecdsa.c ****             MBEDTLS_MPI_CHK( mbedtls_ecp_mul_restartable( grp, &R, pk, &grp->G,
 265              		.loc 1 325 0
 266 00c6 FB68     		ldr	r3, [r7, #12]
 267 00c8 03F12802 		add	r2, r3, #40
 268 00cc 07F13801 		add	r1, r7, #56
 269 00d0 0023     		movs	r3, #0
 270 00d2 0293     		str	r3, [sp, #8]
 271 00d4 D7F88C30 		ldr	r3, [r7, #140]
 272 00d8 0193     		str	r3, [sp, #4]
 273 00da D7F88830 		ldr	r3, [r7, #136]
 274 00de 0093     		str	r3, [sp]
 275 00e0 1346     		mov	r3, r2
 276 00e2 BA6E     		ldr	r2, [r7, #104]
 277 00e4 F868     		ldr	r0, [r7, #12]
 278 00e6 FFF7FEFF 		bl	mbedtls_ecp_mul_restartable
 279 00ea 7867     		str	r0, [r7, #116]
 280 00ec 7B6F     		ldr	r3, [r7, #116]
 281 00ee 002B     		cmp	r3, #0
 282 00f0 40F08780 		bne	.L33
 326:C:/Users/dtjld/workspace/AIoT/src/LiteOS_Lab/iot_link/network/dtls/mbedtls/mbedtls-2.16.2/library\ecdsa.c ****                                                   f_rng, p_rng, ECDSA_RS_ECP ) );
 327:C:/Users/dtjld/workspace/AIoT/src/LiteOS_Lab/iot_link/network/dtls/mbedtls/mbedtls-2.16.2/library\ecdsa.c ****             MBEDTLS_MPI_CHK( mbedtls_mpi_mod_mpi( pr, &R.X, &grp->N ) );
 283              		.loc 1 327 0
 284 00f4 FB68     		ldr	r3, [r7, #12]
 285 00f6 03F14C02 		add	r2, r3, #76
 286 00fa 07F13803 		add	r3, r7, #56
 287 00fe 1946     		mov	r1, r3
 288 0100 786E     		ldr	r0, [r7, #100]
 289 0102 FFF7FEFF 		bl	mbedtls_mpi_mod_mpi
 290 0106 7867     		str	r0, [r7, #116]
 291 0108 7B6F     		ldr	r3, [r7, #116]
 292 010a 002B     		cmp	r3, #0
 293 010c 7BD1     		bne	.L34
 328:C:/Users/dtjld/workspace/AIoT/src/LiteOS_Lab/iot_link/network/dtls/mbedtls/mbedtls-2.16.2/library\ecdsa.c ****         }
 329:C:/Users/dtjld/workspace/AIoT/src/LiteOS_Lab/iot_link/network/dtls/mbedtls/mbedtls-2.16.2/library\ecdsa.c ****         while( mbedtls_mpi_cmp_int( pr, 0 ) == 0 );
 294              		.loc 1 329 0
 295 010e 0021     		movs	r1, #0
 296 0110 786E     		ldr	r0, [r7, #100]
 297 0112 FFF7FEFF 		bl	mbedtls_mpi_cmp_int
 298 0116 0346     		mov	r3, r0
 299 0118 002B     		cmp	r3, #0
ARM GAS  C:\Users\dtjld\AppData\Local\Temp\ccFRmaX0.s 			page 12


 300 011a BED0     		beq	.L20
 330:C:/Users/dtjld/workspace/AIoT/src/LiteOS_Lab/iot_link/network/dtls/mbedtls/mbedtls-2.16.2/library\ecdsa.c **** 
 331:C:/Users/dtjld/workspace/AIoT/src/LiteOS_Lab/iot_link/network/dtls/mbedtls/mbedtls-2.16.2/library\ecdsa.c **** #if defined(MBEDTLS_ECP_RESTARTABLE)
 332:C:/Users/dtjld/workspace/AIoT/src/LiteOS_Lab/iot_link/network/dtls/mbedtls/mbedtls-2.16.2/library\ecdsa.c ****         if( rs_ctx != NULL && rs_ctx->sig != NULL )
 333:C:/Users/dtjld/workspace/AIoT/src/LiteOS_Lab/iot_link/network/dtls/mbedtls/mbedtls-2.16.2/library\ecdsa.c ****             rs_ctx->sig->state = ecdsa_sig_modn;
 334:C:/Users/dtjld/workspace/AIoT/src/LiteOS_Lab/iot_link/network/dtls/mbedtls/mbedtls-2.16.2/library\ecdsa.c **** 
 335:C:/Users/dtjld/workspace/AIoT/src/LiteOS_Lab/iot_link/network/dtls/mbedtls/mbedtls-2.16.2/library\ecdsa.c **** modn:
 336:C:/Users/dtjld/workspace/AIoT/src/LiteOS_Lab/iot_link/network/dtls/mbedtls/mbedtls-2.16.2/library\ecdsa.c **** #endif
 337:C:/Users/dtjld/workspace/AIoT/src/LiteOS_Lab/iot_link/network/dtls/mbedtls/mbedtls-2.16.2/library\ecdsa.c ****         /*
 338:C:/Users/dtjld/workspace/AIoT/src/LiteOS_Lab/iot_link/network/dtls/mbedtls/mbedtls-2.16.2/library\ecdsa.c ****          * Accounting for everything up to the end of the loop
 339:C:/Users/dtjld/workspace/AIoT/src/LiteOS_Lab/iot_link/network/dtls/mbedtls/mbedtls-2.16.2/library\ecdsa.c ****          * (step 6, but checking now avoids saving e and t)
 340:C:/Users/dtjld/workspace/AIoT/src/LiteOS_Lab/iot_link/network/dtls/mbedtls/mbedtls-2.16.2/library\ecdsa.c ****          */
 341:C:/Users/dtjld/workspace/AIoT/src/LiteOS_Lab/iot_link/network/dtls/mbedtls/mbedtls-2.16.2/library\ecdsa.c ****         ECDSA_BUDGET( MBEDTLS_ECP_OPS_INV + 4 );
 342:C:/Users/dtjld/workspace/AIoT/src/LiteOS_Lab/iot_link/network/dtls/mbedtls/mbedtls-2.16.2/library\ecdsa.c **** 
 343:C:/Users/dtjld/workspace/AIoT/src/LiteOS_Lab/iot_link/network/dtls/mbedtls/mbedtls-2.16.2/library\ecdsa.c ****         /*
 344:C:/Users/dtjld/workspace/AIoT/src/LiteOS_Lab/iot_link/network/dtls/mbedtls/mbedtls-2.16.2/library\ecdsa.c ****          * Step 5: derive MPI from hashed message
 345:C:/Users/dtjld/workspace/AIoT/src/LiteOS_Lab/iot_link/network/dtls/mbedtls/mbedtls-2.16.2/library\ecdsa.c ****          */
 346:C:/Users/dtjld/workspace/AIoT/src/LiteOS_Lab/iot_link/network/dtls/mbedtls/mbedtls-2.16.2/library\ecdsa.c ****         MBEDTLS_MPI_CHK( derive_mpi( grp, &e, buf, blen ) );
 301              		.loc 1 346 0
 302 011c 07F12001 		add	r1, r7, #32
 303 0120 D7F88430 		ldr	r3, [r7, #132]
 304 0124 D7F88020 		ldr	r2, [r7, #128]
 305 0128 F868     		ldr	r0, [r7, #12]
 306 012a FFF7FEFF 		bl	derive_mpi
 307 012e 7867     		str	r0, [r7, #116]
 308 0130 7B6F     		ldr	r3, [r7, #116]
 309 0132 002B     		cmp	r3, #0
 310 0134 69D1     		bne	.L35
 347:C:/Users/dtjld/workspace/AIoT/src/LiteOS_Lab/iot_link/network/dtls/mbedtls/mbedtls-2.16.2/library\ecdsa.c **** 
 348:C:/Users/dtjld/workspace/AIoT/src/LiteOS_Lab/iot_link/network/dtls/mbedtls/mbedtls-2.16.2/library\ecdsa.c ****         /*
 349:C:/Users/dtjld/workspace/AIoT/src/LiteOS_Lab/iot_link/network/dtls/mbedtls/mbedtls-2.16.2/library\ecdsa.c ****          * Generate a random value to blind inv_mod in next step,
 350:C:/Users/dtjld/workspace/AIoT/src/LiteOS_Lab/iot_link/network/dtls/mbedtls/mbedtls-2.16.2/library\ecdsa.c ****          * avoiding a potential timing leak.
 351:C:/Users/dtjld/workspace/AIoT/src/LiteOS_Lab/iot_link/network/dtls/mbedtls/mbedtls-2.16.2/library\ecdsa.c ****          */
 352:C:/Users/dtjld/workspace/AIoT/src/LiteOS_Lab/iot_link/network/dtls/mbedtls/mbedtls-2.16.2/library\ecdsa.c ****         MBEDTLS_MPI_CHK( mbedtls_ecp_gen_privkey( grp, &t, f_rng, p_rng ) );
 311              		.loc 1 352 0
 312 0136 07F11401 		add	r1, r7, #20
 313 013a D7F88C30 		ldr	r3, [r7, #140]
 314 013e D7F88820 		ldr	r2, [r7, #136]
 315 0142 F868     		ldr	r0, [r7, #12]
 316 0144 FFF7FEFF 		bl	mbedtls_ecp_gen_privkey
 317 0148 7867     		str	r0, [r7, #116]
 318 014a 7B6F     		ldr	r3, [r7, #116]
 319 014c 002B     		cmp	r3, #0
 320 014e 5ED1     		bne	.L36
 353:C:/Users/dtjld/workspace/AIoT/src/LiteOS_Lab/iot_link/network/dtls/mbedtls/mbedtls-2.16.2/library\ecdsa.c **** 
 354:C:/Users/dtjld/workspace/AIoT/src/LiteOS_Lab/iot_link/network/dtls/mbedtls/mbedtls-2.16.2/library\ecdsa.c ****         /*
 355:C:/Users/dtjld/workspace/AIoT/src/LiteOS_Lab/iot_link/network/dtls/mbedtls/mbedtls-2.16.2/library\ecdsa.c ****          * Step 6: compute s = (e + r * d) / k = t (e + rd) / (kt) mod n
 356:C:/Users/dtjld/workspace/AIoT/src/LiteOS_Lab/iot_link/network/dtls/mbedtls/mbedtls-2.16.2/library\ecdsa.c ****          */
 357:C:/Users/dtjld/workspace/AIoT/src/LiteOS_Lab/iot_link/network/dtls/mbedtls/mbedtls-2.16.2/library\ecdsa.c ****         MBEDTLS_MPI_CHK( mbedtls_mpi_mul_mpi( s, pr, d ) );
 321              		.loc 1 357 0
 322 0150 3A68     		ldr	r2, [r7]
 323 0152 796E     		ldr	r1, [r7, #100]
 324 0154 7868     		ldr	r0, [r7, #4]
 325 0156 FFF7FEFF 		bl	mbedtls_mpi_mul_mpi
 326 015a 7867     		str	r0, [r7, #116]
 327 015c 7B6F     		ldr	r3, [r7, #116]
 328 015e 002B     		cmp	r3, #0
ARM GAS  C:\Users\dtjld\AppData\Local\Temp\ccFRmaX0.s 			page 13


 329 0160 57D1     		bne	.L37
 358:C:/Users/dtjld/workspace/AIoT/src/LiteOS_Lab/iot_link/network/dtls/mbedtls/mbedtls-2.16.2/library\ecdsa.c ****         MBEDTLS_MPI_CHK( mbedtls_mpi_add_mpi( &e, &e, s ) );
 330              		.loc 1 358 0
 331 0162 07F12001 		add	r1, r7, #32
 332 0166 07F12003 		add	r3, r7, #32
 333 016a 7A68     		ldr	r2, [r7, #4]
 334 016c 1846     		mov	r0, r3
 335 016e FFF7FEFF 		bl	mbedtls_mpi_add_mpi
 336 0172 7867     		str	r0, [r7, #116]
 337 0174 7B6F     		ldr	r3, [r7, #116]
 338 0176 002B     		cmp	r3, #0
 339 0178 4DD1     		bne	.L38
 359:C:/Users/dtjld/workspace/AIoT/src/LiteOS_Lab/iot_link/network/dtls/mbedtls/mbedtls-2.16.2/library\ecdsa.c ****         MBEDTLS_MPI_CHK( mbedtls_mpi_mul_mpi( &e, &e, &t ) );
 340              		.loc 1 359 0
 341 017a 07F11402 		add	r2, r7, #20
 342 017e 07F12001 		add	r1, r7, #32
 343 0182 07F12003 		add	r3, r7, #32
 344 0186 1846     		mov	r0, r3
 345 0188 FFF7FEFF 		bl	mbedtls_mpi_mul_mpi
 346 018c 7867     		str	r0, [r7, #116]
 347 018e 7B6F     		ldr	r3, [r7, #116]
 348 0190 002B     		cmp	r3, #0
 349 0192 42D1     		bne	.L39
 360:C:/Users/dtjld/workspace/AIoT/src/LiteOS_Lab/iot_link/network/dtls/mbedtls/mbedtls-2.16.2/library\ecdsa.c ****         MBEDTLS_MPI_CHK( mbedtls_mpi_mul_mpi( pk, pk, &t ) );
 350              		.loc 1 360 0
 351 0194 07F11403 		add	r3, r7, #20
 352 0198 1A46     		mov	r2, r3
 353 019a B96E     		ldr	r1, [r7, #104]
 354 019c B86E     		ldr	r0, [r7, #104]
 355 019e FFF7FEFF 		bl	mbedtls_mpi_mul_mpi
 356 01a2 7867     		str	r0, [r7, #116]
 357 01a4 7B6F     		ldr	r3, [r7, #116]
 358 01a6 002B     		cmp	r3, #0
 359 01a8 39D1     		bne	.L40
 361:C:/Users/dtjld/workspace/AIoT/src/LiteOS_Lab/iot_link/network/dtls/mbedtls/mbedtls-2.16.2/library\ecdsa.c ****         MBEDTLS_MPI_CHK( mbedtls_mpi_inv_mod( s, pk, &grp->N ) );
 360              		.loc 1 361 0
 361 01aa FB68     		ldr	r3, [r7, #12]
 362 01ac 4C33     		adds	r3, r3, #76
 363 01ae 1A46     		mov	r2, r3
 364 01b0 B96E     		ldr	r1, [r7, #104]
 365 01b2 7868     		ldr	r0, [r7, #4]
 366 01b4 FFF7FEFF 		bl	mbedtls_mpi_inv_mod
 367 01b8 7867     		str	r0, [r7, #116]
 368 01ba 7B6F     		ldr	r3, [r7, #116]
 369 01bc 002B     		cmp	r3, #0
 370 01be 30D1     		bne	.L41
 362:C:/Users/dtjld/workspace/AIoT/src/LiteOS_Lab/iot_link/network/dtls/mbedtls/mbedtls-2.16.2/library\ecdsa.c ****         MBEDTLS_MPI_CHK( mbedtls_mpi_mul_mpi( s, s, &e ) );
 371              		.loc 1 362 0
 372 01c0 07F12003 		add	r3, r7, #32
 373 01c4 1A46     		mov	r2, r3
 374 01c6 7968     		ldr	r1, [r7, #4]
 375 01c8 7868     		ldr	r0, [r7, #4]
 376 01ca FFF7FEFF 		bl	mbedtls_mpi_mul_mpi
 377 01ce 7867     		str	r0, [r7, #116]
 378 01d0 7B6F     		ldr	r3, [r7, #116]
 379 01d2 002B     		cmp	r3, #0
 380 01d4 27D1     		bne	.L42
ARM GAS  C:\Users\dtjld\AppData\Local\Temp\ccFRmaX0.s 			page 14


 363:C:/Users/dtjld/workspace/AIoT/src/LiteOS_Lab/iot_link/network/dtls/mbedtls/mbedtls-2.16.2/library\ecdsa.c ****         MBEDTLS_MPI_CHK( mbedtls_mpi_mod_mpi( s, s, &grp->N ) );
 381              		.loc 1 363 0
 382 01d6 FB68     		ldr	r3, [r7, #12]
 383 01d8 4C33     		adds	r3, r3, #76
 384 01da 1A46     		mov	r2, r3
 385 01dc 7968     		ldr	r1, [r7, #4]
 386 01de 7868     		ldr	r0, [r7, #4]
 387 01e0 FFF7FEFF 		bl	mbedtls_mpi_mod_mpi
 388 01e4 7867     		str	r0, [r7, #116]
 389 01e6 7B6F     		ldr	r3, [r7, #116]
 390 01e8 002B     		cmp	r3, #0
 391 01ea 1ED1     		bne	.L43
 364:C:/Users/dtjld/workspace/AIoT/src/LiteOS_Lab/iot_link/network/dtls/mbedtls/mbedtls-2.16.2/library\ecdsa.c ****     }
 365:C:/Users/dtjld/workspace/AIoT/src/LiteOS_Lab/iot_link/network/dtls/mbedtls/mbedtls-2.16.2/library\ecdsa.c ****     while( mbedtls_mpi_cmp_int( s, 0 ) == 0 );
 392              		.loc 1 365 0
 393 01ec 0021     		movs	r1, #0
 394 01ee 7868     		ldr	r0, [r7, #4]
 395 01f0 FFF7FEFF 		bl	mbedtls_mpi_cmp_int
 396 01f4 0346     		mov	r3, r0
 397 01f6 002B     		cmp	r3, #0
 398 01f8 3FF443AF 		beq	.L30
 366:C:/Users/dtjld/workspace/AIoT/src/LiteOS_Lab/iot_link/network/dtls/mbedtls/mbedtls-2.16.2/library\ecdsa.c **** 
 367:C:/Users/dtjld/workspace/AIoT/src/LiteOS_Lab/iot_link/network/dtls/mbedtls/mbedtls-2.16.2/library\ecdsa.c **** #if defined(MBEDTLS_ECP_RESTARTABLE)
 368:C:/Users/dtjld/workspace/AIoT/src/LiteOS_Lab/iot_link/network/dtls/mbedtls/mbedtls-2.16.2/library\ecdsa.c ****     if( rs_ctx != NULL && rs_ctx->sig != NULL )
 369:C:/Users/dtjld/workspace/AIoT/src/LiteOS_Lab/iot_link/network/dtls/mbedtls/mbedtls-2.16.2/library\ecdsa.c ****         mbedtls_mpi_copy( r, pr );
 370:C:/Users/dtjld/workspace/AIoT/src/LiteOS_Lab/iot_link/network/dtls/mbedtls/mbedtls-2.16.2/library\ecdsa.c **** #endif
 371:C:/Users/dtjld/workspace/AIoT/src/LiteOS_Lab/iot_link/network/dtls/mbedtls/mbedtls-2.16.2/library\ecdsa.c **** 
 372:C:/Users/dtjld/workspace/AIoT/src/LiteOS_Lab/iot_link/network/dtls/mbedtls/mbedtls-2.16.2/library\ecdsa.c **** cleanup:
 399              		.loc 1 372 0
 400 01fc 16E0     		b	.L15
 401              	.L32:
 317:C:/Users/dtjld/workspace/AIoT/src/LiteOS_Lab/iot_link/network/dtls/mbedtls/mbedtls-2.16.2/library\ecdsa.c **** 
 402              		.loc 1 317 0
 403 01fe 00BF     		nop
 404 0200 14E0     		b	.L15
 405              	.L33:
 325:C:/Users/dtjld/workspace/AIoT/src/LiteOS_Lab/iot_link/network/dtls/mbedtls/mbedtls-2.16.2/library\ecdsa.c ****                                                   f_rng, p_rng, ECDSA_RS_ECP ) );
 406              		.loc 1 325 0
 407 0202 00BF     		nop
 408 0204 12E0     		b	.L15
 409              	.L34:
 327:C:/Users/dtjld/workspace/AIoT/src/LiteOS_Lab/iot_link/network/dtls/mbedtls/mbedtls-2.16.2/library\ecdsa.c ****         }
 410              		.loc 1 327 0
 411 0206 00BF     		nop
 412 0208 10E0     		b	.L15
 413              	.L35:
 346:C:/Users/dtjld/workspace/AIoT/src/LiteOS_Lab/iot_link/network/dtls/mbedtls/mbedtls-2.16.2/library\ecdsa.c **** 
 414              		.loc 1 346 0
 415 020a 00BF     		nop
 416 020c 0EE0     		b	.L15
 417              	.L36:
 352:C:/Users/dtjld/workspace/AIoT/src/LiteOS_Lab/iot_link/network/dtls/mbedtls/mbedtls-2.16.2/library\ecdsa.c **** 
 418              		.loc 1 352 0
 419 020e 00BF     		nop
 420 0210 0CE0     		b	.L15
 421              	.L37:
 357:C:/Users/dtjld/workspace/AIoT/src/LiteOS_Lab/iot_link/network/dtls/mbedtls/mbedtls-2.16.2/library\ecdsa.c ****         MBEDTLS_MPI_CHK( mbedtls_mpi_add_mpi( &e, &e, s ) );
ARM GAS  C:\Users\dtjld\AppData\Local\Temp\ccFRmaX0.s 			page 15


 422              		.loc 1 357 0
 423 0212 00BF     		nop
 424 0214 0AE0     		b	.L15
 425              	.L38:
 358:C:/Users/dtjld/workspace/AIoT/src/LiteOS_Lab/iot_link/network/dtls/mbedtls/mbedtls-2.16.2/library\ecdsa.c ****         MBEDTLS_MPI_CHK( mbedtls_mpi_mul_mpi( &e, &e, &t ) );
 426              		.loc 1 358 0
 427 0216 00BF     		nop
 428 0218 08E0     		b	.L15
 429              	.L39:
 359:C:/Users/dtjld/workspace/AIoT/src/LiteOS_Lab/iot_link/network/dtls/mbedtls/mbedtls-2.16.2/library\ecdsa.c ****         MBEDTLS_MPI_CHK( mbedtls_mpi_mul_mpi( pk, pk, &t ) );
 430              		.loc 1 359 0
 431 021a 00BF     		nop
 432 021c 06E0     		b	.L15
 433              	.L40:
 360:C:/Users/dtjld/workspace/AIoT/src/LiteOS_Lab/iot_link/network/dtls/mbedtls/mbedtls-2.16.2/library\ecdsa.c ****         MBEDTLS_MPI_CHK( mbedtls_mpi_inv_mod( s, pk, &grp->N ) );
 434              		.loc 1 360 0
 435 021e 00BF     		nop
 436 0220 04E0     		b	.L15
 437              	.L41:
 361:C:/Users/dtjld/workspace/AIoT/src/LiteOS_Lab/iot_link/network/dtls/mbedtls/mbedtls-2.16.2/library\ecdsa.c ****         MBEDTLS_MPI_CHK( mbedtls_mpi_mul_mpi( s, s, &e ) );
 438              		.loc 1 361 0
 439 0222 00BF     		nop
 440 0224 02E0     		b	.L15
 441              	.L42:
 362:C:/Users/dtjld/workspace/AIoT/src/LiteOS_Lab/iot_link/network/dtls/mbedtls/mbedtls-2.16.2/library\ecdsa.c ****         MBEDTLS_MPI_CHK( mbedtls_mpi_mod_mpi( s, s, &grp->N ) );
 442              		.loc 1 362 0
 443 0226 00BF     		nop
 444 0228 00E0     		b	.L15
 445              	.L43:
 363:C:/Users/dtjld/workspace/AIoT/src/LiteOS_Lab/iot_link/network/dtls/mbedtls/mbedtls-2.16.2/library\ecdsa.c ****     }
 446              		.loc 1 363 0
 447 022a 00BF     		nop
 448              	.L15:
 373:C:/Users/dtjld/workspace/AIoT/src/LiteOS_Lab/iot_link/network/dtls/mbedtls/mbedtls-2.16.2/library\ecdsa.c ****     mbedtls_ecp_point_free( &R );
 449              		.loc 1 373 0
 450 022c 07F13803 		add	r3, r7, #56
 451 0230 1846     		mov	r0, r3
 452 0232 FFF7FEFF 		bl	mbedtls_ecp_point_free
 374:C:/Users/dtjld/workspace/AIoT/src/LiteOS_Lab/iot_link/network/dtls/mbedtls/mbedtls-2.16.2/library\ecdsa.c ****     mbedtls_mpi_free( &k ); mbedtls_mpi_free( &e ); mbedtls_mpi_free( &t );
 453              		.loc 1 374 0
 454 0236 07F12C03 		add	r3, r7, #44
 455 023a 1846     		mov	r0, r3
 456 023c FFF7FEFF 		bl	mbedtls_mpi_free
 457 0240 07F12003 		add	r3, r7, #32
 458 0244 1846     		mov	r0, r3
 459 0246 FFF7FEFF 		bl	mbedtls_mpi_free
 460 024a 07F11403 		add	r3, r7, #20
 461 024e 1846     		mov	r0, r3
 462 0250 FFF7FEFF 		bl	mbedtls_mpi_free
 375:C:/Users/dtjld/workspace/AIoT/src/LiteOS_Lab/iot_link/network/dtls/mbedtls/mbedtls-2.16.2/library\ecdsa.c **** 
 376:C:/Users/dtjld/workspace/AIoT/src/LiteOS_Lab/iot_link/network/dtls/mbedtls/mbedtls-2.16.2/library\ecdsa.c ****     ECDSA_RS_LEAVE( sig );
 377:C:/Users/dtjld/workspace/AIoT/src/LiteOS_Lab/iot_link/network/dtls/mbedtls/mbedtls-2.16.2/library\ecdsa.c **** 
 378:C:/Users/dtjld/workspace/AIoT/src/LiteOS_Lab/iot_link/network/dtls/mbedtls/mbedtls-2.16.2/library\ecdsa.c ****     return( ret );
 463              		.loc 1 378 0
 464 0254 7B6F     		ldr	r3, [r7, #116]
 465              	.L31:
 379:C:/Users/dtjld/workspace/AIoT/src/LiteOS_Lab/iot_link/network/dtls/mbedtls/mbedtls-2.16.2/library\ecdsa.c **** }
ARM GAS  C:\Users\dtjld\AppData\Local\Temp\ccFRmaX0.s 			page 16


 466              		.loc 1 379 0 discriminator 1
 467 0256 1846     		mov	r0, r3
 468 0258 7837     		adds	r7, r7, #120
 469              	.LCFI8:
 470              		.cfi_def_cfa_offset 8
 471 025a BD46     		mov	sp, r7
 472              	.LCFI9:
 473              		.cfi_def_cfa_register 13
 474              		@ sp needed
 475 025c 80BD     		pop	{r7, pc}
 476              	.L45:
 477 025e 00BF     		.align	2
 478              	.L44:
 479 0260 80B0FFFF 		.word	-20352
 480 0264 80B3FFFF 		.word	-19584
 481 0268 00B3FFFF 		.word	-19712
 482              		.cfi_endproc
 483              	.LFE4:
 485              		.section	.text.mbedtls_ecdsa_sign,"ax",%progbits
 486              		.align	1
 487              		.global	mbedtls_ecdsa_sign
 488              		.syntax unified
 489              		.thumb
 490              		.thumb_func
 491              		.fpu fpv4-sp-d16
 493              	mbedtls_ecdsa_sign:
 494              	.LFB5:
 380:C:/Users/dtjld/workspace/AIoT/src/LiteOS_Lab/iot_link/network/dtls/mbedtls/mbedtls-2.16.2/library\ecdsa.c **** 
 381:C:/Users/dtjld/workspace/AIoT/src/LiteOS_Lab/iot_link/network/dtls/mbedtls/mbedtls-2.16.2/library\ecdsa.c **** /*
 382:C:/Users/dtjld/workspace/AIoT/src/LiteOS_Lab/iot_link/network/dtls/mbedtls/mbedtls-2.16.2/library\ecdsa.c ****  * Compute ECDSA signature of a hashed message
 383:C:/Users/dtjld/workspace/AIoT/src/LiteOS_Lab/iot_link/network/dtls/mbedtls/mbedtls-2.16.2/library\ecdsa.c ****  */
 384:C:/Users/dtjld/workspace/AIoT/src/LiteOS_Lab/iot_link/network/dtls/mbedtls/mbedtls-2.16.2/library\ecdsa.c **** int mbedtls_ecdsa_sign( mbedtls_ecp_group *grp, mbedtls_mpi *r, mbedtls_mpi *s,
 385:C:/Users/dtjld/workspace/AIoT/src/LiteOS_Lab/iot_link/network/dtls/mbedtls/mbedtls-2.16.2/library\ecdsa.c ****                 const mbedtls_mpi *d, const unsigned char *buf, size_t blen,
 386:C:/Users/dtjld/workspace/AIoT/src/LiteOS_Lab/iot_link/network/dtls/mbedtls/mbedtls-2.16.2/library\ecdsa.c ****                 int (*f_rng)(void *, unsigned char *, size_t), void *p_rng )
 387:C:/Users/dtjld/workspace/AIoT/src/LiteOS_Lab/iot_link/network/dtls/mbedtls/mbedtls-2.16.2/library\ecdsa.c **** {
 495              		.loc 1 387 0
 496              		.cfi_startproc
 497              		@ args = 16, pretend = 0, frame = 16
 498              		@ frame_needed = 1, uses_anonymous_args = 0
 499 0000 80B5     		push	{r7, lr}
 500              	.LCFI10:
 501              		.cfi_def_cfa_offset 8
 502              		.cfi_offset 7, -8
 503              		.cfi_offset 14, -4
 504 0002 8AB0     		sub	sp, sp, #40
 505              	.LCFI11:
 506              		.cfi_def_cfa_offset 48
 507 0004 06AF     		add	r7, sp, #24
 508              	.LCFI12:
 509              		.cfi_def_cfa 7, 24
 510 0006 F860     		str	r0, [r7, #12]
 511 0008 B960     		str	r1, [r7, #8]
 512 000a 7A60     		str	r2, [r7, #4]
 513 000c 3B60     		str	r3, [r7]
 388:C:/Users/dtjld/workspace/AIoT/src/LiteOS_Lab/iot_link/network/dtls/mbedtls/mbedtls-2.16.2/library\ecdsa.c ****     ECDSA_VALIDATE_RET( grp   != NULL );
 389:C:/Users/dtjld/workspace/AIoT/src/LiteOS_Lab/iot_link/network/dtls/mbedtls/mbedtls-2.16.2/library\ecdsa.c ****     ECDSA_VALIDATE_RET( r     != NULL );
 390:C:/Users/dtjld/workspace/AIoT/src/LiteOS_Lab/iot_link/network/dtls/mbedtls/mbedtls-2.16.2/library\ecdsa.c ****     ECDSA_VALIDATE_RET( s     != NULL );
ARM GAS  C:\Users\dtjld\AppData\Local\Temp\ccFRmaX0.s 			page 17


 391:C:/Users/dtjld/workspace/AIoT/src/LiteOS_Lab/iot_link/network/dtls/mbedtls/mbedtls-2.16.2/library\ecdsa.c ****     ECDSA_VALIDATE_RET( d     != NULL );
 392:C:/Users/dtjld/workspace/AIoT/src/LiteOS_Lab/iot_link/network/dtls/mbedtls/mbedtls-2.16.2/library\ecdsa.c ****     ECDSA_VALIDATE_RET( f_rng != NULL );
 393:C:/Users/dtjld/workspace/AIoT/src/LiteOS_Lab/iot_link/network/dtls/mbedtls/mbedtls-2.16.2/library\ecdsa.c ****     ECDSA_VALIDATE_RET( buf   != NULL || blen == 0 );
 394:C:/Users/dtjld/workspace/AIoT/src/LiteOS_Lab/iot_link/network/dtls/mbedtls/mbedtls-2.16.2/library\ecdsa.c **** 
 395:C:/Users/dtjld/workspace/AIoT/src/LiteOS_Lab/iot_link/network/dtls/mbedtls/mbedtls-2.16.2/library\ecdsa.c ****     return( ecdsa_sign_restartable( grp, r, s, d, buf, blen,
 514              		.loc 1 395 0
 515 000e 0023     		movs	r3, #0
 516 0010 0493     		str	r3, [sp, #16]
 517 0012 7B6A     		ldr	r3, [r7, #36]
 518 0014 0393     		str	r3, [sp, #12]
 519 0016 3B6A     		ldr	r3, [r7, #32]
 520 0018 0293     		str	r3, [sp, #8]
 521 001a FB69     		ldr	r3, [r7, #28]
 522 001c 0193     		str	r3, [sp, #4]
 523 001e BB69     		ldr	r3, [r7, #24]
 524 0020 0093     		str	r3, [sp]
 525 0022 3B68     		ldr	r3, [r7]
 526 0024 7A68     		ldr	r2, [r7, #4]
 527 0026 B968     		ldr	r1, [r7, #8]
 528 0028 F868     		ldr	r0, [r7, #12]
 529 002a FFF7FEFF 		bl	ecdsa_sign_restartable
 530 002e 0346     		mov	r3, r0
 396:C:/Users/dtjld/workspace/AIoT/src/LiteOS_Lab/iot_link/network/dtls/mbedtls/mbedtls-2.16.2/library\ecdsa.c ****                                     f_rng, p_rng, NULL ) );
 397:C:/Users/dtjld/workspace/AIoT/src/LiteOS_Lab/iot_link/network/dtls/mbedtls/mbedtls-2.16.2/library\ecdsa.c **** }
 531              		.loc 1 397 0
 532 0030 1846     		mov	r0, r3
 533 0032 1037     		adds	r7, r7, #16
 534              	.LCFI13:
 535              		.cfi_def_cfa_offset 8
 536 0034 BD46     		mov	sp, r7
 537              	.LCFI14:
 538              		.cfi_def_cfa_register 13
 539              		@ sp needed
 540 0036 80BD     		pop	{r7, pc}
 541              		.cfi_endproc
 542              	.LFE5:
 544              		.section	.text.ecdsa_sign_det_restartable,"ax",%progbits
 545              		.align	1
 546              		.syntax unified
 547              		.thumb
 548              		.thumb_func
 549              		.fpu fpv4-sp-d16
 551              	ecdsa_sign_det_restartable:
 552              	.LFB6:
 398:C:/Users/dtjld/workspace/AIoT/src/LiteOS_Lab/iot_link/network/dtls/mbedtls/mbedtls-2.16.2/library\ecdsa.c **** #endif /* !MBEDTLS_ECDSA_SIGN_ALT */
 399:C:/Users/dtjld/workspace/AIoT/src/LiteOS_Lab/iot_link/network/dtls/mbedtls/mbedtls-2.16.2/library\ecdsa.c **** 
 400:C:/Users/dtjld/workspace/AIoT/src/LiteOS_Lab/iot_link/network/dtls/mbedtls/mbedtls-2.16.2/library\ecdsa.c **** #if defined(MBEDTLS_ECDSA_DETERMINISTIC)
 401:C:/Users/dtjld/workspace/AIoT/src/LiteOS_Lab/iot_link/network/dtls/mbedtls/mbedtls-2.16.2/library\ecdsa.c **** /*
 402:C:/Users/dtjld/workspace/AIoT/src/LiteOS_Lab/iot_link/network/dtls/mbedtls/mbedtls-2.16.2/library\ecdsa.c ****  * Deterministic signature wrapper
 403:C:/Users/dtjld/workspace/AIoT/src/LiteOS_Lab/iot_link/network/dtls/mbedtls/mbedtls-2.16.2/library\ecdsa.c ****  */
 404:C:/Users/dtjld/workspace/AIoT/src/LiteOS_Lab/iot_link/network/dtls/mbedtls/mbedtls-2.16.2/library\ecdsa.c **** static int ecdsa_sign_det_restartable( mbedtls_ecp_group *grp,
 405:C:/Users/dtjld/workspace/AIoT/src/LiteOS_Lab/iot_link/network/dtls/mbedtls/mbedtls-2.16.2/library\ecdsa.c ****                     mbedtls_mpi *r, mbedtls_mpi *s,
 406:C:/Users/dtjld/workspace/AIoT/src/LiteOS_Lab/iot_link/network/dtls/mbedtls/mbedtls-2.16.2/library\ecdsa.c ****                     const mbedtls_mpi *d, const unsigned char *buf, size_t blen,
 407:C:/Users/dtjld/workspace/AIoT/src/LiteOS_Lab/iot_link/network/dtls/mbedtls/mbedtls-2.16.2/library\ecdsa.c ****                     mbedtls_md_type_t md_alg,
 408:C:/Users/dtjld/workspace/AIoT/src/LiteOS_Lab/iot_link/network/dtls/mbedtls/mbedtls-2.16.2/library\ecdsa.c ****                     mbedtls_ecdsa_restart_ctx *rs_ctx )
 409:C:/Users/dtjld/workspace/AIoT/src/LiteOS_Lab/iot_link/network/dtls/mbedtls/mbedtls-2.16.2/library\ecdsa.c **** {
 553              		.loc 1 409 0
ARM GAS  C:\Users\dtjld\AppData\Local\Temp\ccFRmaX0.s 			page 18


 554              		.cfi_startproc
 555              		@ args = 16, pretend = 0, frame = 280
 556              		@ frame_needed = 1, uses_anonymous_args = 0
 557 0000 90B5     		push	{r4, r7, lr}
 558              	.LCFI15:
 559              		.cfi_def_cfa_offset 12
 560              		.cfi_offset 4, -12
 561              		.cfi_offset 7, -8
 562              		.cfi_offset 14, -4
 563 0002 CDB0     		sub	sp, sp, #308
 564              	.LCFI16:
 565              		.cfi_def_cfa_offset 320
 566 0004 06AF     		add	r7, sp, #24
 567              	.LCFI17:
 568              		.cfi_def_cfa 7, 296
 569 0006 07F10C04 		add	r4, r7, #12
 570 000a 2060     		str	r0, [r4]
 571 000c 07F10800 		add	r0, r7, #8
 572 0010 0160     		str	r1, [r0]
 573 0012 391D     		adds	r1, r7, #4
 574 0014 0A60     		str	r2, [r1]
 575 0016 3A46     		mov	r2, r7
 576 0018 1360     		str	r3, [r2]
 410:C:/Users/dtjld/workspace/AIoT/src/LiteOS_Lab/iot_link/network/dtls/mbedtls/mbedtls-2.16.2/library\ecdsa.c ****     int ret;
 411:C:/Users/dtjld/workspace/AIoT/src/LiteOS_Lab/iot_link/network/dtls/mbedtls/mbedtls-2.16.2/library\ecdsa.c ****     mbedtls_hmac_drbg_context rng_ctx;
 412:C:/Users/dtjld/workspace/AIoT/src/LiteOS_Lab/iot_link/network/dtls/mbedtls/mbedtls-2.16.2/library\ecdsa.c ****     mbedtls_hmac_drbg_context *p_rng = &rng_ctx;
 577              		.loc 1 412 0
 578 001a 07F1A403 		add	r3, r7, #164
 579 001e C7F81031 		str	r3, [r7, #272]
 413:C:/Users/dtjld/workspace/AIoT/src/LiteOS_Lab/iot_link/network/dtls/mbedtls/mbedtls-2.16.2/library\ecdsa.c ****     unsigned char data[2 * MBEDTLS_ECP_MAX_BYTES];
 414:C:/Users/dtjld/workspace/AIoT/src/LiteOS_Lab/iot_link/network/dtls/mbedtls/mbedtls-2.16.2/library\ecdsa.c ****     size_t grp_len = ( grp->nbits + 7 ) / 8;
 580              		.loc 1 414 0
 581 0022 07F10C03 		add	r3, r7, #12
 582 0026 1B68     		ldr	r3, [r3]
 583 0028 DB6D     		ldr	r3, [r3, #92]
 584 002a 0733     		adds	r3, r3, #7
 585 002c DB08     		lsrs	r3, r3, #3
 586 002e C7F80C31 		str	r3, [r7, #268]
 415:C:/Users/dtjld/workspace/AIoT/src/LiteOS_Lab/iot_link/network/dtls/mbedtls/mbedtls-2.16.2/library\ecdsa.c ****     const mbedtls_md_info_t *md_info;
 416:C:/Users/dtjld/workspace/AIoT/src/LiteOS_Lab/iot_link/network/dtls/mbedtls/mbedtls-2.16.2/library\ecdsa.c ****     mbedtls_mpi h;
 417:C:/Users/dtjld/workspace/AIoT/src/LiteOS_Lab/iot_link/network/dtls/mbedtls/mbedtls-2.16.2/library\ecdsa.c **** 
 418:C:/Users/dtjld/workspace/AIoT/src/LiteOS_Lab/iot_link/network/dtls/mbedtls/mbedtls-2.16.2/library\ecdsa.c ****     if( ( md_info = mbedtls_md_info_from_type( md_alg ) ) == NULL )
 587              		.loc 1 418 0
 588 0032 97F83031 		ldrb	r3, [r7, #304]	@ zero_extendqisi2
 589 0036 1846     		mov	r0, r3
 590 0038 FFF7FEFF 		bl	mbedtls_md_info_from_type
 591 003c C7F80801 		str	r0, [r7, #264]
 592 0040 D7F80831 		ldr	r3, [r7, #264]
 593 0044 002B     		cmp	r3, #0
 594 0046 01D1     		bne	.L49
 419:C:/Users/dtjld/workspace/AIoT/src/LiteOS_Lab/iot_link/network/dtls/mbedtls/mbedtls-2.16.2/library\ecdsa.c ****         return( MBEDTLS_ERR_ECP_BAD_INPUT_DATA );
 595              		.loc 1 419 0
 596 0048 3D4B     		ldr	r3, .L59
 597 004a 73E0     		b	.L55
 598              	.L49:
 420:C:/Users/dtjld/workspace/AIoT/src/LiteOS_Lab/iot_link/network/dtls/mbedtls/mbedtls-2.16.2/library\ecdsa.c **** 
 421:C:/Users/dtjld/workspace/AIoT/src/LiteOS_Lab/iot_link/network/dtls/mbedtls/mbedtls-2.16.2/library\ecdsa.c ****     mbedtls_mpi_init( &h );
ARM GAS  C:\Users\dtjld\AppData\Local\Temp\ccFRmaX0.s 			page 19


 599              		.loc 1 421 0
 600 004c 07F11403 		add	r3, r7, #20
 601 0050 1846     		mov	r0, r3
 602 0052 FFF7FEFF 		bl	mbedtls_mpi_init
 422:C:/Users/dtjld/workspace/AIoT/src/LiteOS_Lab/iot_link/network/dtls/mbedtls/mbedtls-2.16.2/library\ecdsa.c ****     mbedtls_hmac_drbg_init( &rng_ctx );
 603              		.loc 1 422 0
 604 0056 07F1A403 		add	r3, r7, #164
 605 005a 1846     		mov	r0, r3
 606 005c FFF7FEFF 		bl	mbedtls_hmac_drbg_init
 423:C:/Users/dtjld/workspace/AIoT/src/LiteOS_Lab/iot_link/network/dtls/mbedtls/mbedtls-2.16.2/library\ecdsa.c **** 
 424:C:/Users/dtjld/workspace/AIoT/src/LiteOS_Lab/iot_link/network/dtls/mbedtls/mbedtls-2.16.2/library\ecdsa.c ****     ECDSA_RS_ENTER( det );
 425:C:/Users/dtjld/workspace/AIoT/src/LiteOS_Lab/iot_link/network/dtls/mbedtls/mbedtls-2.16.2/library\ecdsa.c **** 
 426:C:/Users/dtjld/workspace/AIoT/src/LiteOS_Lab/iot_link/network/dtls/mbedtls/mbedtls-2.16.2/library\ecdsa.c **** #if defined(MBEDTLS_ECP_RESTARTABLE)
 427:C:/Users/dtjld/workspace/AIoT/src/LiteOS_Lab/iot_link/network/dtls/mbedtls/mbedtls-2.16.2/library\ecdsa.c ****     if( rs_ctx != NULL && rs_ctx->det != NULL )
 428:C:/Users/dtjld/workspace/AIoT/src/LiteOS_Lab/iot_link/network/dtls/mbedtls/mbedtls-2.16.2/library\ecdsa.c ****     {
 429:C:/Users/dtjld/workspace/AIoT/src/LiteOS_Lab/iot_link/network/dtls/mbedtls/mbedtls-2.16.2/library\ecdsa.c ****         /* redirect to our context */
 430:C:/Users/dtjld/workspace/AIoT/src/LiteOS_Lab/iot_link/network/dtls/mbedtls/mbedtls-2.16.2/library\ecdsa.c ****         p_rng = &rs_ctx->det->rng_ctx;
 431:C:/Users/dtjld/workspace/AIoT/src/LiteOS_Lab/iot_link/network/dtls/mbedtls/mbedtls-2.16.2/library\ecdsa.c **** 
 432:C:/Users/dtjld/workspace/AIoT/src/LiteOS_Lab/iot_link/network/dtls/mbedtls/mbedtls-2.16.2/library\ecdsa.c ****         /* jump to current step */
 433:C:/Users/dtjld/workspace/AIoT/src/LiteOS_Lab/iot_link/network/dtls/mbedtls/mbedtls-2.16.2/library\ecdsa.c ****         if( rs_ctx->det->state == ecdsa_det_sign )
 434:C:/Users/dtjld/workspace/AIoT/src/LiteOS_Lab/iot_link/network/dtls/mbedtls/mbedtls-2.16.2/library\ecdsa.c ****             goto sign;
 435:C:/Users/dtjld/workspace/AIoT/src/LiteOS_Lab/iot_link/network/dtls/mbedtls/mbedtls-2.16.2/library\ecdsa.c ****     }
 436:C:/Users/dtjld/workspace/AIoT/src/LiteOS_Lab/iot_link/network/dtls/mbedtls/mbedtls-2.16.2/library\ecdsa.c **** #endif /* MBEDTLS_ECP_RESTARTABLE */
 437:C:/Users/dtjld/workspace/AIoT/src/LiteOS_Lab/iot_link/network/dtls/mbedtls/mbedtls-2.16.2/library\ecdsa.c **** 
 438:C:/Users/dtjld/workspace/AIoT/src/LiteOS_Lab/iot_link/network/dtls/mbedtls/mbedtls-2.16.2/library\ecdsa.c ****     /* Use private key and message hash (reduced) to initialize HMAC_DRBG */
 439:C:/Users/dtjld/workspace/AIoT/src/LiteOS_Lab/iot_link/network/dtls/mbedtls/mbedtls-2.16.2/library\ecdsa.c ****     MBEDTLS_MPI_CHK( mbedtls_mpi_write_binary( d, data, grp_len ) );
 607              		.loc 1 439 0
 608 0060 07F12001 		add	r1, r7, #32
 609 0064 3B46     		mov	r3, r7
 610 0066 D7F80C21 		ldr	r2, [r7, #268]
 611 006a 1868     		ldr	r0, [r3]
 612 006c FFF7FEFF 		bl	mbedtls_mpi_write_binary
 613 0070 C7F81401 		str	r0, [r7, #276]
 614 0074 D7F81431 		ldr	r3, [r7, #276]
 615 0078 002B     		cmp	r3, #0
 616 007a 4AD1     		bne	.L56
 440:C:/Users/dtjld/workspace/AIoT/src/LiteOS_Lab/iot_link/network/dtls/mbedtls/mbedtls-2.16.2/library\ecdsa.c ****     MBEDTLS_MPI_CHK( derive_mpi( grp, &h, buf, blen ) );
 617              		.loc 1 440 0
 618 007c 07F11401 		add	r1, r7, #20
 619 0080 07F10C00 		add	r0, r7, #12
 620 0084 D7F82C31 		ldr	r3, [r7, #300]
 621 0088 D7F82821 		ldr	r2, [r7, #296]
 622 008c 0068     		ldr	r0, [r0]
 623 008e FFF7FEFF 		bl	derive_mpi
 624 0092 C7F81401 		str	r0, [r7, #276]
 625 0096 D7F81431 		ldr	r3, [r7, #276]
 626 009a 002B     		cmp	r3, #0
 627 009c 3BD1     		bne	.L57
 441:C:/Users/dtjld/workspace/AIoT/src/LiteOS_Lab/iot_link/network/dtls/mbedtls/mbedtls-2.16.2/library\ecdsa.c ****     MBEDTLS_MPI_CHK( mbedtls_mpi_write_binary( &h, data + grp_len, grp_len ) );
 628              		.loc 1 441 0
 629 009e 07F12002 		add	r2, r7, #32
 630 00a2 D7F80C31 		ldr	r3, [r7, #268]
 631 00a6 D118     		adds	r1, r2, r3
 632 00a8 07F11403 		add	r3, r7, #20
 633 00ac D7F80C21 		ldr	r2, [r7, #268]
 634 00b0 1846     		mov	r0, r3
 635 00b2 FFF7FEFF 		bl	mbedtls_mpi_write_binary
ARM GAS  C:\Users\dtjld\AppData\Local\Temp\ccFRmaX0.s 			page 20


 636 00b6 C7F81401 		str	r0, [r7, #276]
 637 00ba D7F81431 		ldr	r3, [r7, #276]
 638 00be 002B     		cmp	r3, #0
 639 00c0 2BD1     		bne	.L58
 442:C:/Users/dtjld/workspace/AIoT/src/LiteOS_Lab/iot_link/network/dtls/mbedtls/mbedtls-2.16.2/library\ecdsa.c ****     mbedtls_hmac_drbg_seed_buf( p_rng, md_info, data, 2 * grp_len );
 640              		.loc 1 442 0
 641 00c2 D7F80C31 		ldr	r3, [r7, #268]
 642 00c6 5B00     		lsls	r3, r3, #1
 643 00c8 07F12002 		add	r2, r7, #32
 644 00cc D7F80811 		ldr	r1, [r7, #264]
 645 00d0 D7F81001 		ldr	r0, [r7, #272]
 646 00d4 FFF7FEFF 		bl	mbedtls_hmac_drbg_seed_buf
 443:C:/Users/dtjld/workspace/AIoT/src/LiteOS_Lab/iot_link/network/dtls/mbedtls/mbedtls-2.16.2/library\ecdsa.c **** 
 444:C:/Users/dtjld/workspace/AIoT/src/LiteOS_Lab/iot_link/network/dtls/mbedtls/mbedtls-2.16.2/library\ecdsa.c **** #if defined(MBEDTLS_ECP_RESTARTABLE)
 445:C:/Users/dtjld/workspace/AIoT/src/LiteOS_Lab/iot_link/network/dtls/mbedtls/mbedtls-2.16.2/library\ecdsa.c ****     if( rs_ctx != NULL && rs_ctx->det != NULL )
 446:C:/Users/dtjld/workspace/AIoT/src/LiteOS_Lab/iot_link/network/dtls/mbedtls/mbedtls-2.16.2/library\ecdsa.c ****         rs_ctx->det->state = ecdsa_det_sign;
 447:C:/Users/dtjld/workspace/AIoT/src/LiteOS_Lab/iot_link/network/dtls/mbedtls/mbedtls-2.16.2/library\ecdsa.c **** 
 448:C:/Users/dtjld/workspace/AIoT/src/LiteOS_Lab/iot_link/network/dtls/mbedtls/mbedtls-2.16.2/library\ecdsa.c **** sign:
 449:C:/Users/dtjld/workspace/AIoT/src/LiteOS_Lab/iot_link/network/dtls/mbedtls/mbedtls-2.16.2/library\ecdsa.c **** #endif
 450:C:/Users/dtjld/workspace/AIoT/src/LiteOS_Lab/iot_link/network/dtls/mbedtls/mbedtls-2.16.2/library\ecdsa.c **** #if defined(MBEDTLS_ECDSA_SIGN_ALT)
 451:C:/Users/dtjld/workspace/AIoT/src/LiteOS_Lab/iot_link/network/dtls/mbedtls/mbedtls-2.16.2/library\ecdsa.c ****     ret = mbedtls_ecdsa_sign( grp, r, s, d, buf, blen,
 452:C:/Users/dtjld/workspace/AIoT/src/LiteOS_Lab/iot_link/network/dtls/mbedtls/mbedtls-2.16.2/library\ecdsa.c ****                               mbedtls_hmac_drbg_random, p_rng );
 453:C:/Users/dtjld/workspace/AIoT/src/LiteOS_Lab/iot_link/network/dtls/mbedtls/mbedtls-2.16.2/library\ecdsa.c **** #else
 454:C:/Users/dtjld/workspace/AIoT/src/LiteOS_Lab/iot_link/network/dtls/mbedtls/mbedtls-2.16.2/library\ecdsa.c ****     ret = ecdsa_sign_restartable( grp, r, s, d, buf, blen,
 647              		.loc 1 454 0
 648 00d8 3B46     		mov	r3, r7
 649 00da 3A1D     		adds	r2, r7, #4
 650 00dc 07F10801 		add	r1, r7, #8
 651 00e0 07F10C00 		add	r0, r7, #12
 652 00e4 D7F83441 		ldr	r4, [r7, #308]
 653 00e8 0494     		str	r4, [sp, #16]
 654 00ea D7F81041 		ldr	r4, [r7, #272]
 655 00ee 0394     		str	r4, [sp, #12]
 656 00f0 144C     		ldr	r4, .L59+4
 657 00f2 0294     		str	r4, [sp, #8]
 658 00f4 D7F82C41 		ldr	r4, [r7, #300]
 659 00f8 0194     		str	r4, [sp, #4]
 660 00fa D7F82841 		ldr	r4, [r7, #296]
 661 00fe 0094     		str	r4, [sp]
 662 0100 1B68     		ldr	r3, [r3]
 663 0102 1268     		ldr	r2, [r2]
 664 0104 0968     		ldr	r1, [r1]
 665 0106 0068     		ldr	r0, [r0]
 666 0108 FFF7FEFF 		bl	ecdsa_sign_restartable
 667 010c C7F81401 		str	r0, [r7, #276]
 668 0110 04E0     		b	.L52
 669              	.L56:
 439:C:/Users/dtjld/workspace/AIoT/src/LiteOS_Lab/iot_link/network/dtls/mbedtls/mbedtls-2.16.2/library\ecdsa.c ****     MBEDTLS_MPI_CHK( derive_mpi( grp, &h, buf, blen ) );
 670              		.loc 1 439 0
 671 0112 00BF     		nop
 672 0114 02E0     		b	.L52
 673              	.L57:
 440:C:/Users/dtjld/workspace/AIoT/src/LiteOS_Lab/iot_link/network/dtls/mbedtls/mbedtls-2.16.2/library\ecdsa.c ****     MBEDTLS_MPI_CHK( mbedtls_mpi_write_binary( &h, data + grp_len, grp_len ) );
 674              		.loc 1 440 0
 675 0116 00BF     		nop
 676 0118 00E0     		b	.L52
 677              	.L58:
ARM GAS  C:\Users\dtjld\AppData\Local\Temp\ccFRmaX0.s 			page 21


 441:C:/Users/dtjld/workspace/AIoT/src/LiteOS_Lab/iot_link/network/dtls/mbedtls/mbedtls-2.16.2/library\ecdsa.c ****     mbedtls_hmac_drbg_seed_buf( p_rng, md_info, data, 2 * grp_len );
 678              		.loc 1 441 0
 679 011a 00BF     		nop
 680              	.L52:
 455:C:/Users/dtjld/workspace/AIoT/src/LiteOS_Lab/iot_link/network/dtls/mbedtls/mbedtls-2.16.2/library\ecdsa.c ****                       mbedtls_hmac_drbg_random, p_rng, rs_ctx );
 456:C:/Users/dtjld/workspace/AIoT/src/LiteOS_Lab/iot_link/network/dtls/mbedtls/mbedtls-2.16.2/library\ecdsa.c **** #endif /* MBEDTLS_ECDSA_SIGN_ALT */
 457:C:/Users/dtjld/workspace/AIoT/src/LiteOS_Lab/iot_link/network/dtls/mbedtls/mbedtls-2.16.2/library\ecdsa.c **** 
 458:C:/Users/dtjld/workspace/AIoT/src/LiteOS_Lab/iot_link/network/dtls/mbedtls/mbedtls-2.16.2/library\ecdsa.c **** cleanup:
 459:C:/Users/dtjld/workspace/AIoT/src/LiteOS_Lab/iot_link/network/dtls/mbedtls/mbedtls-2.16.2/library\ecdsa.c ****     mbedtls_hmac_drbg_free( &rng_ctx );
 681              		.loc 1 459 0
 682 011c 07F1A403 		add	r3, r7, #164
 683 0120 1846     		mov	r0, r3
 684 0122 FFF7FEFF 		bl	mbedtls_hmac_drbg_free
 460:C:/Users/dtjld/workspace/AIoT/src/LiteOS_Lab/iot_link/network/dtls/mbedtls/mbedtls-2.16.2/library\ecdsa.c ****     mbedtls_mpi_free( &h );
 685              		.loc 1 460 0
 686 0126 07F11403 		add	r3, r7, #20
 687 012a 1846     		mov	r0, r3
 688 012c FFF7FEFF 		bl	mbedtls_mpi_free
 461:C:/Users/dtjld/workspace/AIoT/src/LiteOS_Lab/iot_link/network/dtls/mbedtls/mbedtls-2.16.2/library\ecdsa.c **** 
 462:C:/Users/dtjld/workspace/AIoT/src/LiteOS_Lab/iot_link/network/dtls/mbedtls/mbedtls-2.16.2/library\ecdsa.c ****     ECDSA_RS_LEAVE( det );
 463:C:/Users/dtjld/workspace/AIoT/src/LiteOS_Lab/iot_link/network/dtls/mbedtls/mbedtls-2.16.2/library\ecdsa.c **** 
 464:C:/Users/dtjld/workspace/AIoT/src/LiteOS_Lab/iot_link/network/dtls/mbedtls/mbedtls-2.16.2/library\ecdsa.c ****     return( ret );
 689              		.loc 1 464 0
 690 0130 D7F81431 		ldr	r3, [r7, #276]
 691              	.L55:
 465:C:/Users/dtjld/workspace/AIoT/src/LiteOS_Lab/iot_link/network/dtls/mbedtls/mbedtls-2.16.2/library\ecdsa.c **** }
 692              		.loc 1 465 0 discriminator 1
 693 0134 1846     		mov	r0, r3
 694 0136 07F58E77 		add	r7, r7, #284
 695              	.LCFI18:
 696              		.cfi_def_cfa_offset 12
 697 013a BD46     		mov	sp, r7
 698              	.LCFI19:
 699              		.cfi_def_cfa_register 13
 700              		@ sp needed
 701 013c 90BD     		pop	{r4, r7, pc}
 702              	.L60:
 703 013e 00BF     		.align	2
 704              	.L59:
 705 0140 80B0FFFF 		.word	-20352
 706 0144 00000000 		.word	mbedtls_hmac_drbg_random
 707              		.cfi_endproc
 708              	.LFE6:
 710              		.section	.text.mbedtls_ecdsa_sign_det,"ax",%progbits
 711              		.align	1
 712              		.global	mbedtls_ecdsa_sign_det
 713              		.syntax unified
 714              		.thumb
 715              		.thumb_func
 716              		.fpu fpv4-sp-d16
 718              	mbedtls_ecdsa_sign_det:
 719              	.LFB7:
 466:C:/Users/dtjld/workspace/AIoT/src/LiteOS_Lab/iot_link/network/dtls/mbedtls/mbedtls-2.16.2/library\ecdsa.c **** 
 467:C:/Users/dtjld/workspace/AIoT/src/LiteOS_Lab/iot_link/network/dtls/mbedtls/mbedtls-2.16.2/library\ecdsa.c **** /*
 468:C:/Users/dtjld/workspace/AIoT/src/LiteOS_Lab/iot_link/network/dtls/mbedtls/mbedtls-2.16.2/library\ecdsa.c ****  * Deterministic signature wrapper
 469:C:/Users/dtjld/workspace/AIoT/src/LiteOS_Lab/iot_link/network/dtls/mbedtls/mbedtls-2.16.2/library\ecdsa.c ****  */
 470:C:/Users/dtjld/workspace/AIoT/src/LiteOS_Lab/iot_link/network/dtls/mbedtls/mbedtls-2.16.2/library\ecdsa.c **** int mbedtls_ecdsa_sign_det( mbedtls_ecp_group *grp, mbedtls_mpi *r, mbedtls_mpi *s,
ARM GAS  C:\Users\dtjld\AppData\Local\Temp\ccFRmaX0.s 			page 22


 471:C:/Users/dtjld/workspace/AIoT/src/LiteOS_Lab/iot_link/network/dtls/mbedtls/mbedtls-2.16.2/library\ecdsa.c ****                     const mbedtls_mpi *d, const unsigned char *buf, size_t blen,
 472:C:/Users/dtjld/workspace/AIoT/src/LiteOS_Lab/iot_link/network/dtls/mbedtls/mbedtls-2.16.2/library\ecdsa.c ****                     mbedtls_md_type_t md_alg )
 473:C:/Users/dtjld/workspace/AIoT/src/LiteOS_Lab/iot_link/network/dtls/mbedtls/mbedtls-2.16.2/library\ecdsa.c **** {
 720              		.loc 1 473 0
 721              		.cfi_startproc
 722              		@ args = 12, pretend = 0, frame = 16
 723              		@ frame_needed = 1, uses_anonymous_args = 0
 724 0000 80B5     		push	{r7, lr}
 725              	.LCFI20:
 726              		.cfi_def_cfa_offset 8
 727              		.cfi_offset 7, -8
 728              		.cfi_offset 14, -4
 729 0002 88B0     		sub	sp, sp, #32
 730              	.LCFI21:
 731              		.cfi_def_cfa_offset 40
 732 0004 04AF     		add	r7, sp, #16
 733              	.LCFI22:
 734              		.cfi_def_cfa 7, 24
 735 0006 F860     		str	r0, [r7, #12]
 736 0008 B960     		str	r1, [r7, #8]
 737 000a 7A60     		str	r2, [r7, #4]
 738 000c 3B60     		str	r3, [r7]
 474:C:/Users/dtjld/workspace/AIoT/src/LiteOS_Lab/iot_link/network/dtls/mbedtls/mbedtls-2.16.2/library\ecdsa.c ****     ECDSA_VALIDATE_RET( grp   != NULL );
 475:C:/Users/dtjld/workspace/AIoT/src/LiteOS_Lab/iot_link/network/dtls/mbedtls/mbedtls-2.16.2/library\ecdsa.c ****     ECDSA_VALIDATE_RET( r     != NULL );
 476:C:/Users/dtjld/workspace/AIoT/src/LiteOS_Lab/iot_link/network/dtls/mbedtls/mbedtls-2.16.2/library\ecdsa.c ****     ECDSA_VALIDATE_RET( s     != NULL );
 477:C:/Users/dtjld/workspace/AIoT/src/LiteOS_Lab/iot_link/network/dtls/mbedtls/mbedtls-2.16.2/library\ecdsa.c ****     ECDSA_VALIDATE_RET( d     != NULL );
 478:C:/Users/dtjld/workspace/AIoT/src/LiteOS_Lab/iot_link/network/dtls/mbedtls/mbedtls-2.16.2/library\ecdsa.c ****     ECDSA_VALIDATE_RET( buf   != NULL || blen == 0 );
 479:C:/Users/dtjld/workspace/AIoT/src/LiteOS_Lab/iot_link/network/dtls/mbedtls/mbedtls-2.16.2/library\ecdsa.c **** 
 480:C:/Users/dtjld/workspace/AIoT/src/LiteOS_Lab/iot_link/network/dtls/mbedtls/mbedtls-2.16.2/library\ecdsa.c ****     return( ecdsa_sign_det_restartable( grp, r, s, d, buf, blen, md_alg, NULL ) );
 739              		.loc 1 480 0
 740 000e 0023     		movs	r3, #0
 741 0010 0393     		str	r3, [sp, #12]
 742 0012 97F82030 		ldrb	r3, [r7, #32]	@ zero_extendqisi2
 743 0016 0293     		str	r3, [sp, #8]
 744 0018 FB69     		ldr	r3, [r7, #28]
 745 001a 0193     		str	r3, [sp, #4]
 746 001c BB69     		ldr	r3, [r7, #24]
 747 001e 0093     		str	r3, [sp]
 748 0020 3B68     		ldr	r3, [r7]
 749 0022 7A68     		ldr	r2, [r7, #4]
 750 0024 B968     		ldr	r1, [r7, #8]
 751 0026 F868     		ldr	r0, [r7, #12]
 752 0028 FFF7FEFF 		bl	ecdsa_sign_det_restartable
 753 002c 0346     		mov	r3, r0
 481:C:/Users/dtjld/workspace/AIoT/src/LiteOS_Lab/iot_link/network/dtls/mbedtls/mbedtls-2.16.2/library\ecdsa.c **** }
 754              		.loc 1 481 0
 755 002e 1846     		mov	r0, r3
 756 0030 1037     		adds	r7, r7, #16
 757              	.LCFI23:
 758              		.cfi_def_cfa_offset 8
 759 0032 BD46     		mov	sp, r7
 760              	.LCFI24:
 761              		.cfi_def_cfa_register 13
 762              		@ sp needed
 763 0034 80BD     		pop	{r7, pc}
 764              		.cfi_endproc
 765              	.LFE7:
ARM GAS  C:\Users\dtjld\AppData\Local\Temp\ccFRmaX0.s 			page 23


 767              		.section	.text.ecdsa_verify_restartable,"ax",%progbits
 768              		.align	1
 769              		.syntax unified
 770              		.thumb
 771              		.thumb_func
 772              		.fpu fpv4-sp-d16
 774              	ecdsa_verify_restartable:
 775              	.LFB8:
 482:C:/Users/dtjld/workspace/AIoT/src/LiteOS_Lab/iot_link/network/dtls/mbedtls/mbedtls-2.16.2/library\ecdsa.c **** #endif /* MBEDTLS_ECDSA_DETERMINISTIC */
 483:C:/Users/dtjld/workspace/AIoT/src/LiteOS_Lab/iot_link/network/dtls/mbedtls/mbedtls-2.16.2/library\ecdsa.c **** 
 484:C:/Users/dtjld/workspace/AIoT/src/LiteOS_Lab/iot_link/network/dtls/mbedtls/mbedtls-2.16.2/library\ecdsa.c **** #if !defined(MBEDTLS_ECDSA_VERIFY_ALT)
 485:C:/Users/dtjld/workspace/AIoT/src/LiteOS_Lab/iot_link/network/dtls/mbedtls/mbedtls-2.16.2/library\ecdsa.c **** /*
 486:C:/Users/dtjld/workspace/AIoT/src/LiteOS_Lab/iot_link/network/dtls/mbedtls/mbedtls-2.16.2/library\ecdsa.c ****  * Verify ECDSA signature of hashed message (SEC1 4.1.4)
 487:C:/Users/dtjld/workspace/AIoT/src/LiteOS_Lab/iot_link/network/dtls/mbedtls/mbedtls-2.16.2/library\ecdsa.c ****  * Obviously, compared to SEC1 4.1.3, we skip step 2 (hash message)
 488:C:/Users/dtjld/workspace/AIoT/src/LiteOS_Lab/iot_link/network/dtls/mbedtls/mbedtls-2.16.2/library\ecdsa.c ****  */
 489:C:/Users/dtjld/workspace/AIoT/src/LiteOS_Lab/iot_link/network/dtls/mbedtls/mbedtls-2.16.2/library\ecdsa.c **** static int ecdsa_verify_restartable( mbedtls_ecp_group *grp,
 490:C:/Users/dtjld/workspace/AIoT/src/LiteOS_Lab/iot_link/network/dtls/mbedtls/mbedtls-2.16.2/library\ecdsa.c ****                                      const unsigned char *buf, size_t blen,
 491:C:/Users/dtjld/workspace/AIoT/src/LiteOS_Lab/iot_link/network/dtls/mbedtls/mbedtls-2.16.2/library\ecdsa.c ****                                      const mbedtls_ecp_point *Q,
 492:C:/Users/dtjld/workspace/AIoT/src/LiteOS_Lab/iot_link/network/dtls/mbedtls/mbedtls-2.16.2/library\ecdsa.c ****                                      const mbedtls_mpi *r, const mbedtls_mpi *s,
 493:C:/Users/dtjld/workspace/AIoT/src/LiteOS_Lab/iot_link/network/dtls/mbedtls/mbedtls-2.16.2/library\ecdsa.c ****                                      mbedtls_ecdsa_restart_ctx *rs_ctx )
 494:C:/Users/dtjld/workspace/AIoT/src/LiteOS_Lab/iot_link/network/dtls/mbedtls/mbedtls-2.16.2/library\ecdsa.c **** {
 776              		.loc 1 494 0
 777              		.cfi_startproc
 778              		@ args = 12, pretend = 0, frame = 112
 779              		@ frame_needed = 1, uses_anonymous_args = 0
 780 0000 80B5     		push	{r7, lr}
 781              	.LCFI25:
 782              		.cfi_def_cfa_offset 8
 783              		.cfi_offset 7, -8
 784              		.cfi_offset 14, -4
 785 0002 A0B0     		sub	sp, sp, #128
 786              	.LCFI26:
 787              		.cfi_def_cfa_offset 136
 788 0004 04AF     		add	r7, sp, #16
 789              	.LCFI27:
 790              		.cfi_def_cfa 7, 120
 791 0006 F860     		str	r0, [r7, #12]
 792 0008 B960     		str	r1, [r7, #8]
 793 000a 7A60     		str	r2, [r7, #4]
 794 000c 3B60     		str	r3, [r7]
 495:C:/Users/dtjld/workspace/AIoT/src/LiteOS_Lab/iot_link/network/dtls/mbedtls/mbedtls-2.16.2/library\ecdsa.c ****     int ret;
 496:C:/Users/dtjld/workspace/AIoT/src/LiteOS_Lab/iot_link/network/dtls/mbedtls/mbedtls-2.16.2/library\ecdsa.c ****     mbedtls_mpi e, s_inv, u1, u2;
 497:C:/Users/dtjld/workspace/AIoT/src/LiteOS_Lab/iot_link/network/dtls/mbedtls/mbedtls-2.16.2/library\ecdsa.c ****     mbedtls_ecp_point R;
 498:C:/Users/dtjld/workspace/AIoT/src/LiteOS_Lab/iot_link/network/dtls/mbedtls/mbedtls-2.16.2/library\ecdsa.c ****     mbedtls_mpi *pu1 = &u1, *pu2 = &u2;
 795              		.loc 1 498 0
 796 000e 07F14003 		add	r3, r7, #64
 797 0012 BB66     		str	r3, [r7, #104]
 798 0014 07F13403 		add	r3, r7, #52
 799 0018 7B66     		str	r3, [r7, #100]
 499:C:/Users/dtjld/workspace/AIoT/src/LiteOS_Lab/iot_link/network/dtls/mbedtls/mbedtls-2.16.2/library\ecdsa.c **** 
 500:C:/Users/dtjld/workspace/AIoT/src/LiteOS_Lab/iot_link/network/dtls/mbedtls/mbedtls-2.16.2/library\ecdsa.c ****     mbedtls_ecp_point_init( &R );
 800              		.loc 1 500 0
 801 001a 07F11003 		add	r3, r7, #16
 802 001e 1846     		mov	r0, r3
 803 0020 FFF7FEFF 		bl	mbedtls_ecp_point_init
 501:C:/Users/dtjld/workspace/AIoT/src/LiteOS_Lab/iot_link/network/dtls/mbedtls/mbedtls-2.16.2/library\ecdsa.c ****     mbedtls_mpi_init( &e ); mbedtls_mpi_init( &s_inv );
 804              		.loc 1 501 0
ARM GAS  C:\Users\dtjld\AppData\Local\Temp\ccFRmaX0.s 			page 24


 805 0024 07F15803 		add	r3, r7, #88
 806 0028 1846     		mov	r0, r3
 807 002a FFF7FEFF 		bl	mbedtls_mpi_init
 808 002e 07F14C03 		add	r3, r7, #76
 809 0032 1846     		mov	r0, r3
 810 0034 FFF7FEFF 		bl	mbedtls_mpi_init
 502:C:/Users/dtjld/workspace/AIoT/src/LiteOS_Lab/iot_link/network/dtls/mbedtls/mbedtls-2.16.2/library\ecdsa.c ****     mbedtls_mpi_init( &u1 ); mbedtls_mpi_init( &u2 );
 811              		.loc 1 502 0
 812 0038 07F14003 		add	r3, r7, #64
 813 003c 1846     		mov	r0, r3
 814 003e FFF7FEFF 		bl	mbedtls_mpi_init
 815 0042 07F13403 		add	r3, r7, #52
 816 0046 1846     		mov	r0, r3
 817 0048 FFF7FEFF 		bl	mbedtls_mpi_init
 503:C:/Users/dtjld/workspace/AIoT/src/LiteOS_Lab/iot_link/network/dtls/mbedtls/mbedtls-2.16.2/library\ecdsa.c **** 
 504:C:/Users/dtjld/workspace/AIoT/src/LiteOS_Lab/iot_link/network/dtls/mbedtls/mbedtls-2.16.2/library\ecdsa.c ****     /* Fail cleanly on curves such as Curve25519 that can't be used for ECDSA */
 505:C:/Users/dtjld/workspace/AIoT/src/LiteOS_Lab/iot_link/network/dtls/mbedtls/mbedtls-2.16.2/library\ecdsa.c ****     if( grp->N.p == NULL )
 818              		.loc 1 505 0
 819 004c FB68     		ldr	r3, [r7, #12]
 820 004e 5B6D     		ldr	r3, [r3, #84]
 821 0050 002B     		cmp	r3, #0
 822 0052 01D1     		bne	.L64
 506:C:/Users/dtjld/workspace/AIoT/src/LiteOS_Lab/iot_link/network/dtls/mbedtls/mbedtls-2.16.2/library\ecdsa.c ****         return( MBEDTLS_ERR_ECP_BAD_INPUT_DATA );
 823              		.loc 1 506 0
 824 0054 684B     		ldr	r3, .L88
 825 0056 CBE0     		b	.L78
 826              	.L64:
 507:C:/Users/dtjld/workspace/AIoT/src/LiteOS_Lab/iot_link/network/dtls/mbedtls/mbedtls-2.16.2/library\ecdsa.c **** 
 508:C:/Users/dtjld/workspace/AIoT/src/LiteOS_Lab/iot_link/network/dtls/mbedtls/mbedtls-2.16.2/library\ecdsa.c ****     ECDSA_RS_ENTER( ver );
 509:C:/Users/dtjld/workspace/AIoT/src/LiteOS_Lab/iot_link/network/dtls/mbedtls/mbedtls-2.16.2/library\ecdsa.c **** 
 510:C:/Users/dtjld/workspace/AIoT/src/LiteOS_Lab/iot_link/network/dtls/mbedtls/mbedtls-2.16.2/library\ecdsa.c **** #if defined(MBEDTLS_ECP_RESTARTABLE)
 511:C:/Users/dtjld/workspace/AIoT/src/LiteOS_Lab/iot_link/network/dtls/mbedtls/mbedtls-2.16.2/library\ecdsa.c ****     if( rs_ctx != NULL && rs_ctx->ver != NULL )
 512:C:/Users/dtjld/workspace/AIoT/src/LiteOS_Lab/iot_link/network/dtls/mbedtls/mbedtls-2.16.2/library\ecdsa.c ****     {
 513:C:/Users/dtjld/workspace/AIoT/src/LiteOS_Lab/iot_link/network/dtls/mbedtls/mbedtls-2.16.2/library\ecdsa.c ****         /* redirect to our context */
 514:C:/Users/dtjld/workspace/AIoT/src/LiteOS_Lab/iot_link/network/dtls/mbedtls/mbedtls-2.16.2/library\ecdsa.c ****         pu1 = &rs_ctx->ver->u1;
 515:C:/Users/dtjld/workspace/AIoT/src/LiteOS_Lab/iot_link/network/dtls/mbedtls/mbedtls-2.16.2/library\ecdsa.c ****         pu2 = &rs_ctx->ver->u2;
 516:C:/Users/dtjld/workspace/AIoT/src/LiteOS_Lab/iot_link/network/dtls/mbedtls/mbedtls-2.16.2/library\ecdsa.c **** 
 517:C:/Users/dtjld/workspace/AIoT/src/LiteOS_Lab/iot_link/network/dtls/mbedtls/mbedtls-2.16.2/library\ecdsa.c ****         /* jump to current step */
 518:C:/Users/dtjld/workspace/AIoT/src/LiteOS_Lab/iot_link/network/dtls/mbedtls/mbedtls-2.16.2/library\ecdsa.c ****         if( rs_ctx->ver->state == ecdsa_ver_muladd )
 519:C:/Users/dtjld/workspace/AIoT/src/LiteOS_Lab/iot_link/network/dtls/mbedtls/mbedtls-2.16.2/library\ecdsa.c ****             goto muladd;
 520:C:/Users/dtjld/workspace/AIoT/src/LiteOS_Lab/iot_link/network/dtls/mbedtls/mbedtls-2.16.2/library\ecdsa.c ****     }
 521:C:/Users/dtjld/workspace/AIoT/src/LiteOS_Lab/iot_link/network/dtls/mbedtls/mbedtls-2.16.2/library\ecdsa.c **** #endif /* MBEDTLS_ECP_RESTARTABLE */
 522:C:/Users/dtjld/workspace/AIoT/src/LiteOS_Lab/iot_link/network/dtls/mbedtls/mbedtls-2.16.2/library\ecdsa.c **** 
 523:C:/Users/dtjld/workspace/AIoT/src/LiteOS_Lab/iot_link/network/dtls/mbedtls/mbedtls-2.16.2/library\ecdsa.c ****     /*
 524:C:/Users/dtjld/workspace/AIoT/src/LiteOS_Lab/iot_link/network/dtls/mbedtls/mbedtls-2.16.2/library\ecdsa.c ****      * Step 1: make sure r and s are in range 1..n-1
 525:C:/Users/dtjld/workspace/AIoT/src/LiteOS_Lab/iot_link/network/dtls/mbedtls/mbedtls-2.16.2/library\ecdsa.c ****      */
 526:C:/Users/dtjld/workspace/AIoT/src/LiteOS_Lab/iot_link/network/dtls/mbedtls/mbedtls-2.16.2/library\ecdsa.c ****     if( mbedtls_mpi_cmp_int( r, 1 ) < 0 || mbedtls_mpi_cmp_mpi( r, &grp->N ) >= 0 ||
 827              		.loc 1 526 0
 828 0058 0121     		movs	r1, #1
 829 005a B86F     		ldr	r0, [r7, #120]
 830 005c FFF7FEFF 		bl	mbedtls_mpi_cmp_int
 831 0060 0346     		mov	r3, r0
 832 0062 002B     		cmp	r3, #0
 833 0064 18DB     		blt	.L66
 834              		.loc 1 526 0 is_stmt 0 discriminator 1
 835 0066 FB68     		ldr	r3, [r7, #12]
 836 0068 4C33     		adds	r3, r3, #76
ARM GAS  C:\Users\dtjld\AppData\Local\Temp\ccFRmaX0.s 			page 25


 837 006a 1946     		mov	r1, r3
 838 006c B86F     		ldr	r0, [r7, #120]
 839 006e FFF7FEFF 		bl	mbedtls_mpi_cmp_mpi
 840 0072 0346     		mov	r3, r0
 841 0074 002B     		cmp	r3, #0
 842 0076 0FDA     		bge	.L66
 527:C:/Users/dtjld/workspace/AIoT/src/LiteOS_Lab/iot_link/network/dtls/mbedtls/mbedtls-2.16.2/library\ecdsa.c ****         mbedtls_mpi_cmp_int( s, 1 ) < 0 || mbedtls_mpi_cmp_mpi( s, &grp->N ) >= 0 )
 843              		.loc 1 527 0 is_stmt 1 discriminator 2
 844 0078 0121     		movs	r1, #1
 845 007a F86F     		ldr	r0, [r7, #124]
 846 007c FFF7FEFF 		bl	mbedtls_mpi_cmp_int
 847 0080 0346     		mov	r3, r0
 526:C:/Users/dtjld/workspace/AIoT/src/LiteOS_Lab/iot_link/network/dtls/mbedtls/mbedtls-2.16.2/library\ecdsa.c ****         mbedtls_mpi_cmp_int( s, 1 ) < 0 || mbedtls_mpi_cmp_mpi( s, &grp->N ) >= 0 )
 848              		.loc 1 526 0 discriminator 2
 849 0082 002B     		cmp	r3, #0
 850 0084 08DB     		blt	.L66
 851              		.loc 1 527 0
 852 0086 FB68     		ldr	r3, [r7, #12]
 853 0088 4C33     		adds	r3, r3, #76
 854 008a 1946     		mov	r1, r3
 855 008c F86F     		ldr	r0, [r7, #124]
 856 008e FFF7FEFF 		bl	mbedtls_mpi_cmp_mpi
 857 0092 0346     		mov	r3, r0
 858 0094 002B     		cmp	r3, #0
 859 0096 02DB     		blt	.L67
 860              	.L66:
 528:C:/Users/dtjld/workspace/AIoT/src/LiteOS_Lab/iot_link/network/dtls/mbedtls/mbedtls-2.16.2/library\ecdsa.c ****     {
 529:C:/Users/dtjld/workspace/AIoT/src/LiteOS_Lab/iot_link/network/dtls/mbedtls/mbedtls-2.16.2/library\ecdsa.c ****         ret = MBEDTLS_ERR_ECP_VERIFY_FAILED;
 861              		.loc 1 529 0
 862 0098 584B     		ldr	r3, .L88+4
 863 009a FB66     		str	r3, [r7, #108]
 530:C:/Users/dtjld/workspace/AIoT/src/LiteOS_Lab/iot_link/network/dtls/mbedtls/mbedtls-2.16.2/library\ecdsa.c ****         goto cleanup;
 864              		.loc 1 530 0
 865 009c 8EE0     		b	.L68
 866              	.L67:
 531:C:/Users/dtjld/workspace/AIoT/src/LiteOS_Lab/iot_link/network/dtls/mbedtls/mbedtls-2.16.2/library\ecdsa.c ****     }
 532:C:/Users/dtjld/workspace/AIoT/src/LiteOS_Lab/iot_link/network/dtls/mbedtls/mbedtls-2.16.2/library\ecdsa.c **** 
 533:C:/Users/dtjld/workspace/AIoT/src/LiteOS_Lab/iot_link/network/dtls/mbedtls/mbedtls-2.16.2/library\ecdsa.c ****     /*
 534:C:/Users/dtjld/workspace/AIoT/src/LiteOS_Lab/iot_link/network/dtls/mbedtls/mbedtls-2.16.2/library\ecdsa.c ****      * Step 3: derive MPI from hashed message
 535:C:/Users/dtjld/workspace/AIoT/src/LiteOS_Lab/iot_link/network/dtls/mbedtls/mbedtls-2.16.2/library\ecdsa.c ****      */
 536:C:/Users/dtjld/workspace/AIoT/src/LiteOS_Lab/iot_link/network/dtls/mbedtls/mbedtls-2.16.2/library\ecdsa.c ****     MBEDTLS_MPI_CHK( derive_mpi( grp, &e, buf, blen ) );
 867              		.loc 1 536 0
 868 009e 07F15801 		add	r1, r7, #88
 869 00a2 7B68     		ldr	r3, [r7, #4]
 870 00a4 BA68     		ldr	r2, [r7, #8]
 871 00a6 F868     		ldr	r0, [r7, #12]
 872 00a8 FFF7FEFF 		bl	derive_mpi
 873 00ac F866     		str	r0, [r7, #108]
 874 00ae FB6E     		ldr	r3, [r7, #108]
 875 00b0 002B     		cmp	r3, #0
 876 00b2 72D1     		bne	.L79
 537:C:/Users/dtjld/workspace/AIoT/src/LiteOS_Lab/iot_link/network/dtls/mbedtls/mbedtls-2.16.2/library\ecdsa.c **** 
 538:C:/Users/dtjld/workspace/AIoT/src/LiteOS_Lab/iot_link/network/dtls/mbedtls/mbedtls-2.16.2/library\ecdsa.c ****     /*
 539:C:/Users/dtjld/workspace/AIoT/src/LiteOS_Lab/iot_link/network/dtls/mbedtls/mbedtls-2.16.2/library\ecdsa.c ****      * Step 4: u1 = e / s mod n, u2 = r / s mod n
 540:C:/Users/dtjld/workspace/AIoT/src/LiteOS_Lab/iot_link/network/dtls/mbedtls/mbedtls-2.16.2/library\ecdsa.c ****      */
 541:C:/Users/dtjld/workspace/AIoT/src/LiteOS_Lab/iot_link/network/dtls/mbedtls/mbedtls-2.16.2/library\ecdsa.c ****     ECDSA_BUDGET( MBEDTLS_ECP_OPS_CHK + MBEDTLS_ECP_OPS_INV + 2 );
 542:C:/Users/dtjld/workspace/AIoT/src/LiteOS_Lab/iot_link/network/dtls/mbedtls/mbedtls-2.16.2/library\ecdsa.c **** 
ARM GAS  C:\Users\dtjld\AppData\Local\Temp\ccFRmaX0.s 			page 26


 543:C:/Users/dtjld/workspace/AIoT/src/LiteOS_Lab/iot_link/network/dtls/mbedtls/mbedtls-2.16.2/library\ecdsa.c ****     MBEDTLS_MPI_CHK( mbedtls_mpi_inv_mod( &s_inv, s, &grp->N ) );
 877              		.loc 1 543 0
 878 00b4 FB68     		ldr	r3, [r7, #12]
 879 00b6 03F14C02 		add	r2, r3, #76
 880 00ba 07F14C03 		add	r3, r7, #76
 881 00be F96F     		ldr	r1, [r7, #124]
 882 00c0 1846     		mov	r0, r3
 883 00c2 FFF7FEFF 		bl	mbedtls_mpi_inv_mod
 884 00c6 F866     		str	r0, [r7, #108]
 885 00c8 FB6E     		ldr	r3, [r7, #108]
 886 00ca 002B     		cmp	r3, #0
 887 00cc 67D1     		bne	.L80
 544:C:/Users/dtjld/workspace/AIoT/src/LiteOS_Lab/iot_link/network/dtls/mbedtls/mbedtls-2.16.2/library\ecdsa.c **** 
 545:C:/Users/dtjld/workspace/AIoT/src/LiteOS_Lab/iot_link/network/dtls/mbedtls/mbedtls-2.16.2/library\ecdsa.c ****     MBEDTLS_MPI_CHK( mbedtls_mpi_mul_mpi( pu1, &e, &s_inv ) );
 888              		.loc 1 545 0
 889 00ce 07F14C02 		add	r2, r7, #76
 890 00d2 07F15803 		add	r3, r7, #88
 891 00d6 1946     		mov	r1, r3
 892 00d8 B86E     		ldr	r0, [r7, #104]
 893 00da FFF7FEFF 		bl	mbedtls_mpi_mul_mpi
 894 00de F866     		str	r0, [r7, #108]
 895 00e0 FB6E     		ldr	r3, [r7, #108]
 896 00e2 002B     		cmp	r3, #0
 897 00e4 5DD1     		bne	.L81
 546:C:/Users/dtjld/workspace/AIoT/src/LiteOS_Lab/iot_link/network/dtls/mbedtls/mbedtls-2.16.2/library\ecdsa.c ****     MBEDTLS_MPI_CHK( mbedtls_mpi_mod_mpi( pu1, pu1, &grp->N ) );
 898              		.loc 1 546 0
 899 00e6 FB68     		ldr	r3, [r7, #12]
 900 00e8 4C33     		adds	r3, r3, #76
 901 00ea 1A46     		mov	r2, r3
 902 00ec B96E     		ldr	r1, [r7, #104]
 903 00ee B86E     		ldr	r0, [r7, #104]
 904 00f0 FFF7FEFF 		bl	mbedtls_mpi_mod_mpi
 905 00f4 F866     		str	r0, [r7, #108]
 906 00f6 FB6E     		ldr	r3, [r7, #108]
 907 00f8 002B     		cmp	r3, #0
 908 00fa 54D1     		bne	.L82
 547:C:/Users/dtjld/workspace/AIoT/src/LiteOS_Lab/iot_link/network/dtls/mbedtls/mbedtls-2.16.2/library\ecdsa.c **** 
 548:C:/Users/dtjld/workspace/AIoT/src/LiteOS_Lab/iot_link/network/dtls/mbedtls/mbedtls-2.16.2/library\ecdsa.c ****     MBEDTLS_MPI_CHK( mbedtls_mpi_mul_mpi( pu2, r, &s_inv ) );
 909              		.loc 1 548 0
 910 00fc 07F14C03 		add	r3, r7, #76
 911 0100 1A46     		mov	r2, r3
 912 0102 B96F     		ldr	r1, [r7, #120]
 913 0104 786E     		ldr	r0, [r7, #100]
 914 0106 FFF7FEFF 		bl	mbedtls_mpi_mul_mpi
 915 010a F866     		str	r0, [r7, #108]
 916 010c FB6E     		ldr	r3, [r7, #108]
 917 010e 002B     		cmp	r3, #0
 918 0110 4BD1     		bne	.L83
 549:C:/Users/dtjld/workspace/AIoT/src/LiteOS_Lab/iot_link/network/dtls/mbedtls/mbedtls-2.16.2/library\ecdsa.c ****     MBEDTLS_MPI_CHK( mbedtls_mpi_mod_mpi( pu2, pu2, &grp->N ) );
 919              		.loc 1 549 0
 920 0112 FB68     		ldr	r3, [r7, #12]
 921 0114 4C33     		adds	r3, r3, #76
 922 0116 1A46     		mov	r2, r3
 923 0118 796E     		ldr	r1, [r7, #100]
 924 011a 786E     		ldr	r0, [r7, #100]
 925 011c FFF7FEFF 		bl	mbedtls_mpi_mod_mpi
 926 0120 F866     		str	r0, [r7, #108]
ARM GAS  C:\Users\dtjld\AppData\Local\Temp\ccFRmaX0.s 			page 27


 927 0122 FB6E     		ldr	r3, [r7, #108]
 928 0124 002B     		cmp	r3, #0
 929 0126 42D1     		bne	.L84
 550:C:/Users/dtjld/workspace/AIoT/src/LiteOS_Lab/iot_link/network/dtls/mbedtls/mbedtls-2.16.2/library\ecdsa.c **** 
 551:C:/Users/dtjld/workspace/AIoT/src/LiteOS_Lab/iot_link/network/dtls/mbedtls/mbedtls-2.16.2/library\ecdsa.c **** #if defined(MBEDTLS_ECP_RESTARTABLE)
 552:C:/Users/dtjld/workspace/AIoT/src/LiteOS_Lab/iot_link/network/dtls/mbedtls/mbedtls-2.16.2/library\ecdsa.c ****     if( rs_ctx != NULL && rs_ctx->ver != NULL )
 553:C:/Users/dtjld/workspace/AIoT/src/LiteOS_Lab/iot_link/network/dtls/mbedtls/mbedtls-2.16.2/library\ecdsa.c ****         rs_ctx->ver->state = ecdsa_ver_muladd;
 554:C:/Users/dtjld/workspace/AIoT/src/LiteOS_Lab/iot_link/network/dtls/mbedtls/mbedtls-2.16.2/library\ecdsa.c **** 
 555:C:/Users/dtjld/workspace/AIoT/src/LiteOS_Lab/iot_link/network/dtls/mbedtls/mbedtls-2.16.2/library\ecdsa.c **** muladd:
 556:C:/Users/dtjld/workspace/AIoT/src/LiteOS_Lab/iot_link/network/dtls/mbedtls/mbedtls-2.16.2/library\ecdsa.c **** #endif
 557:C:/Users/dtjld/workspace/AIoT/src/LiteOS_Lab/iot_link/network/dtls/mbedtls/mbedtls-2.16.2/library\ecdsa.c ****     /*
 558:C:/Users/dtjld/workspace/AIoT/src/LiteOS_Lab/iot_link/network/dtls/mbedtls/mbedtls-2.16.2/library\ecdsa.c ****      * Step 5: R = u1 G + u2 Q
 559:C:/Users/dtjld/workspace/AIoT/src/LiteOS_Lab/iot_link/network/dtls/mbedtls/mbedtls-2.16.2/library\ecdsa.c ****      */
 560:C:/Users/dtjld/workspace/AIoT/src/LiteOS_Lab/iot_link/network/dtls/mbedtls/mbedtls-2.16.2/library\ecdsa.c ****     MBEDTLS_MPI_CHK( mbedtls_ecp_muladd_restartable( grp,
 930              		.loc 1 560 0
 931 0128 FB68     		ldr	r3, [r7, #12]
 932 012a 03F12802 		add	r2, r3, #40
 933 012e 07F11001 		add	r1, r7, #16
 934 0132 0023     		movs	r3, #0
 935 0134 0293     		str	r3, [sp, #8]
 936 0136 3B68     		ldr	r3, [r7]
 937 0138 0193     		str	r3, [sp, #4]
 938 013a 7B6E     		ldr	r3, [r7, #100]
 939 013c 0093     		str	r3, [sp]
 940 013e 1346     		mov	r3, r2
 941 0140 BA6E     		ldr	r2, [r7, #104]
 942 0142 F868     		ldr	r0, [r7, #12]
 943 0144 FFF7FEFF 		bl	mbedtls_ecp_muladd_restartable
 944 0148 F866     		str	r0, [r7, #108]
 945 014a FB6E     		ldr	r3, [r7, #108]
 946 014c 002B     		cmp	r3, #0
 947 014e 30D1     		bne	.L85
 561:C:/Users/dtjld/workspace/AIoT/src/LiteOS_Lab/iot_link/network/dtls/mbedtls/mbedtls-2.16.2/library\ecdsa.c ****                      &R, pu1, &grp->G, pu2, Q, ECDSA_RS_ECP ) );
 562:C:/Users/dtjld/workspace/AIoT/src/LiteOS_Lab/iot_link/network/dtls/mbedtls/mbedtls-2.16.2/library\ecdsa.c **** 
 563:C:/Users/dtjld/workspace/AIoT/src/LiteOS_Lab/iot_link/network/dtls/mbedtls/mbedtls-2.16.2/library\ecdsa.c ****     if( mbedtls_ecp_is_zero( &R ) )
 948              		.loc 1 563 0
 949 0150 07F11003 		add	r3, r7, #16
 950 0154 1846     		mov	r0, r3
 951 0156 FFF7FEFF 		bl	mbedtls_ecp_is_zero
 952 015a 0346     		mov	r3, r0
 953 015c 002B     		cmp	r3, #0
 954 015e 02D0     		beq	.L76
 564:C:/Users/dtjld/workspace/AIoT/src/LiteOS_Lab/iot_link/network/dtls/mbedtls/mbedtls-2.16.2/library\ecdsa.c ****     {
 565:C:/Users/dtjld/workspace/AIoT/src/LiteOS_Lab/iot_link/network/dtls/mbedtls/mbedtls-2.16.2/library\ecdsa.c ****         ret = MBEDTLS_ERR_ECP_VERIFY_FAILED;
 955              		.loc 1 565 0
 956 0160 264B     		ldr	r3, .L88+4
 957 0162 FB66     		str	r3, [r7, #108]
 566:C:/Users/dtjld/workspace/AIoT/src/LiteOS_Lab/iot_link/network/dtls/mbedtls/mbedtls-2.16.2/library\ecdsa.c ****         goto cleanup;
 958              		.loc 1 566 0
 959 0164 2AE0     		b	.L68
 960              	.L76:
 567:C:/Users/dtjld/workspace/AIoT/src/LiteOS_Lab/iot_link/network/dtls/mbedtls/mbedtls-2.16.2/library\ecdsa.c ****     }
 568:C:/Users/dtjld/workspace/AIoT/src/LiteOS_Lab/iot_link/network/dtls/mbedtls/mbedtls-2.16.2/library\ecdsa.c **** 
 569:C:/Users/dtjld/workspace/AIoT/src/LiteOS_Lab/iot_link/network/dtls/mbedtls/mbedtls-2.16.2/library\ecdsa.c ****     /*
 570:C:/Users/dtjld/workspace/AIoT/src/LiteOS_Lab/iot_link/network/dtls/mbedtls/mbedtls-2.16.2/library\ecdsa.c ****      * Step 6: convert xR to an integer (no-op)
 571:C:/Users/dtjld/workspace/AIoT/src/LiteOS_Lab/iot_link/network/dtls/mbedtls/mbedtls-2.16.2/library\ecdsa.c ****      * Step 7: reduce xR mod n (gives v)
 572:C:/Users/dtjld/workspace/AIoT/src/LiteOS_Lab/iot_link/network/dtls/mbedtls/mbedtls-2.16.2/library\ecdsa.c ****      */
ARM GAS  C:\Users\dtjld\AppData\Local\Temp\ccFRmaX0.s 			page 28


 573:C:/Users/dtjld/workspace/AIoT/src/LiteOS_Lab/iot_link/network/dtls/mbedtls/mbedtls-2.16.2/library\ecdsa.c ****     MBEDTLS_MPI_CHK( mbedtls_mpi_mod_mpi( &R.X, &R.X, &grp->N ) );
 961              		.loc 1 573 0
 962 0166 FB68     		ldr	r3, [r7, #12]
 963 0168 03F14C02 		add	r2, r3, #76
 964 016c 07F11001 		add	r1, r7, #16
 965 0170 07F11003 		add	r3, r7, #16
 966 0174 1846     		mov	r0, r3
 967 0176 FFF7FEFF 		bl	mbedtls_mpi_mod_mpi
 968 017a F866     		str	r0, [r7, #108]
 969 017c FB6E     		ldr	r3, [r7, #108]
 970 017e 002B     		cmp	r3, #0
 971 0180 19D1     		bne	.L86
 574:C:/Users/dtjld/workspace/AIoT/src/LiteOS_Lab/iot_link/network/dtls/mbedtls/mbedtls-2.16.2/library\ecdsa.c **** 
 575:C:/Users/dtjld/workspace/AIoT/src/LiteOS_Lab/iot_link/network/dtls/mbedtls/mbedtls-2.16.2/library\ecdsa.c ****     /*
 576:C:/Users/dtjld/workspace/AIoT/src/LiteOS_Lab/iot_link/network/dtls/mbedtls/mbedtls-2.16.2/library\ecdsa.c ****      * Step 8: check if v (that is, R.X) is equal to r
 577:C:/Users/dtjld/workspace/AIoT/src/LiteOS_Lab/iot_link/network/dtls/mbedtls/mbedtls-2.16.2/library\ecdsa.c ****      */
 578:C:/Users/dtjld/workspace/AIoT/src/LiteOS_Lab/iot_link/network/dtls/mbedtls/mbedtls-2.16.2/library\ecdsa.c ****     if( mbedtls_mpi_cmp_mpi( &R.X, r ) != 0 )
 972              		.loc 1 578 0
 973 0182 07F11003 		add	r3, r7, #16
 974 0186 B96F     		ldr	r1, [r7, #120]
 975 0188 1846     		mov	r0, r3
 976 018a FFF7FEFF 		bl	mbedtls_mpi_cmp_mpi
 977 018e 0346     		mov	r3, r0
 978 0190 002B     		cmp	r3, #0
 979 0192 12D0     		beq	.L87
 579:C:/Users/dtjld/workspace/AIoT/src/LiteOS_Lab/iot_link/network/dtls/mbedtls/mbedtls-2.16.2/library\ecdsa.c ****     {
 580:C:/Users/dtjld/workspace/AIoT/src/LiteOS_Lab/iot_link/network/dtls/mbedtls/mbedtls-2.16.2/library\ecdsa.c ****         ret = MBEDTLS_ERR_ECP_VERIFY_FAILED;
 980              		.loc 1 580 0
 981 0194 194B     		ldr	r3, .L88+4
 982 0196 FB66     		str	r3, [r7, #108]
 581:C:/Users/dtjld/workspace/AIoT/src/LiteOS_Lab/iot_link/network/dtls/mbedtls/mbedtls-2.16.2/library\ecdsa.c ****         goto cleanup;
 983              		.loc 1 581 0
 984 0198 10E0     		b	.L68
 985              	.L79:
 536:C:/Users/dtjld/workspace/AIoT/src/LiteOS_Lab/iot_link/network/dtls/mbedtls/mbedtls-2.16.2/library\ecdsa.c **** 
 986              		.loc 1 536 0
 987 019a 00BF     		nop
 988 019c 0EE0     		b	.L68
 989              	.L80:
 543:C:/Users/dtjld/workspace/AIoT/src/LiteOS_Lab/iot_link/network/dtls/mbedtls/mbedtls-2.16.2/library\ecdsa.c **** 
 990              		.loc 1 543 0
 991 019e 00BF     		nop
 992 01a0 0CE0     		b	.L68
 993              	.L81:
 545:C:/Users/dtjld/workspace/AIoT/src/LiteOS_Lab/iot_link/network/dtls/mbedtls/mbedtls-2.16.2/library\ecdsa.c ****     MBEDTLS_MPI_CHK( mbedtls_mpi_mod_mpi( pu1, pu1, &grp->N ) );
 994              		.loc 1 545 0
 995 01a2 00BF     		nop
 996 01a4 0AE0     		b	.L68
 997              	.L82:
 546:C:/Users/dtjld/workspace/AIoT/src/LiteOS_Lab/iot_link/network/dtls/mbedtls/mbedtls-2.16.2/library\ecdsa.c **** 
 998              		.loc 1 546 0
 999 01a6 00BF     		nop
 1000 01a8 08E0     		b	.L68
 1001              	.L83:
 548:C:/Users/dtjld/workspace/AIoT/src/LiteOS_Lab/iot_link/network/dtls/mbedtls/mbedtls-2.16.2/library\ecdsa.c ****     MBEDTLS_MPI_CHK( mbedtls_mpi_mod_mpi( pu2, pu2, &grp->N ) );
 1002              		.loc 1 548 0
 1003 01aa 00BF     		nop
ARM GAS  C:\Users\dtjld\AppData\Local\Temp\ccFRmaX0.s 			page 29


 1004 01ac 06E0     		b	.L68
 1005              	.L84:
 549:C:/Users/dtjld/workspace/AIoT/src/LiteOS_Lab/iot_link/network/dtls/mbedtls/mbedtls-2.16.2/library\ecdsa.c **** 
 1006              		.loc 1 549 0
 1007 01ae 00BF     		nop
 1008 01b0 04E0     		b	.L68
 1009              	.L85:
 560:C:/Users/dtjld/workspace/AIoT/src/LiteOS_Lab/iot_link/network/dtls/mbedtls/mbedtls-2.16.2/library\ecdsa.c ****                      &R, pu1, &grp->G, pu2, Q, ECDSA_RS_ECP ) );
 1010              		.loc 1 560 0
 1011 01b2 00BF     		nop
 1012 01b4 02E0     		b	.L68
 1013              	.L86:
 573:C:/Users/dtjld/workspace/AIoT/src/LiteOS_Lab/iot_link/network/dtls/mbedtls/mbedtls-2.16.2/library\ecdsa.c **** 
 1014              		.loc 1 573 0
 1015 01b6 00BF     		nop
 1016 01b8 00E0     		b	.L68
 1017              	.L87:
 582:C:/Users/dtjld/workspace/AIoT/src/LiteOS_Lab/iot_link/network/dtls/mbedtls/mbedtls-2.16.2/library\ecdsa.c ****     }
 583:C:/Users/dtjld/workspace/AIoT/src/LiteOS_Lab/iot_link/network/dtls/mbedtls/mbedtls-2.16.2/library\ecdsa.c **** 
 584:C:/Users/dtjld/workspace/AIoT/src/LiteOS_Lab/iot_link/network/dtls/mbedtls/mbedtls-2.16.2/library\ecdsa.c **** cleanup:
 1018              		.loc 1 584 0
 1019 01ba 00BF     		nop
 1020              	.L68:
 585:C:/Users/dtjld/workspace/AIoT/src/LiteOS_Lab/iot_link/network/dtls/mbedtls/mbedtls-2.16.2/library\ecdsa.c ****     mbedtls_ecp_point_free( &R );
 1021              		.loc 1 585 0
 1022 01bc 07F11003 		add	r3, r7, #16
 1023 01c0 1846     		mov	r0, r3
 1024 01c2 FFF7FEFF 		bl	mbedtls_ecp_point_free
 586:C:/Users/dtjld/workspace/AIoT/src/LiteOS_Lab/iot_link/network/dtls/mbedtls/mbedtls-2.16.2/library\ecdsa.c ****     mbedtls_mpi_free( &e ); mbedtls_mpi_free( &s_inv );
 1025              		.loc 1 586 0
 1026 01c6 07F15803 		add	r3, r7, #88
 1027 01ca 1846     		mov	r0, r3
 1028 01cc FFF7FEFF 		bl	mbedtls_mpi_free
 1029 01d0 07F14C03 		add	r3, r7, #76
 1030 01d4 1846     		mov	r0, r3
 1031 01d6 FFF7FEFF 		bl	mbedtls_mpi_free
 587:C:/Users/dtjld/workspace/AIoT/src/LiteOS_Lab/iot_link/network/dtls/mbedtls/mbedtls-2.16.2/library\ecdsa.c ****     mbedtls_mpi_free( &u1 ); mbedtls_mpi_free( &u2 );
 1032              		.loc 1 587 0
 1033 01da 07F14003 		add	r3, r7, #64
 1034 01de 1846     		mov	r0, r3
 1035 01e0 FFF7FEFF 		bl	mbedtls_mpi_free
 1036 01e4 07F13403 		add	r3, r7, #52
 1037 01e8 1846     		mov	r0, r3
 1038 01ea FFF7FEFF 		bl	mbedtls_mpi_free
 588:C:/Users/dtjld/workspace/AIoT/src/LiteOS_Lab/iot_link/network/dtls/mbedtls/mbedtls-2.16.2/library\ecdsa.c **** 
 589:C:/Users/dtjld/workspace/AIoT/src/LiteOS_Lab/iot_link/network/dtls/mbedtls/mbedtls-2.16.2/library\ecdsa.c ****     ECDSA_RS_LEAVE( ver );
 590:C:/Users/dtjld/workspace/AIoT/src/LiteOS_Lab/iot_link/network/dtls/mbedtls/mbedtls-2.16.2/library\ecdsa.c **** 
 591:C:/Users/dtjld/workspace/AIoT/src/LiteOS_Lab/iot_link/network/dtls/mbedtls/mbedtls-2.16.2/library\ecdsa.c ****     return( ret );
 1039              		.loc 1 591 0
 1040 01ee FB6E     		ldr	r3, [r7, #108]
 1041              	.L78:
 592:C:/Users/dtjld/workspace/AIoT/src/LiteOS_Lab/iot_link/network/dtls/mbedtls/mbedtls-2.16.2/library\ecdsa.c **** }
 1042              		.loc 1 592 0 discriminator 1
 1043 01f0 1846     		mov	r0, r3
 1044 01f2 7037     		adds	r7, r7, #112
 1045              	.LCFI28:
 1046              		.cfi_def_cfa_offset 8
ARM GAS  C:\Users\dtjld\AppData\Local\Temp\ccFRmaX0.s 			page 30


 1047 01f4 BD46     		mov	sp, r7
 1048              	.LCFI29:
 1049              		.cfi_def_cfa_register 13
 1050              		@ sp needed
 1051 01f6 80BD     		pop	{r7, pc}
 1052              	.L89:
 1053              		.align	2
 1054              	.L88:
 1055 01f8 80B0FFFF 		.word	-20352
 1056 01fc 00B2FFFF 		.word	-19968
 1057              		.cfi_endproc
 1058              	.LFE8:
 1060              		.section	.text.mbedtls_ecdsa_verify,"ax",%progbits
 1061              		.align	1
 1062              		.global	mbedtls_ecdsa_verify
 1063              		.syntax unified
 1064              		.thumb
 1065              		.thumb_func
 1066              		.fpu fpv4-sp-d16
 1068              	mbedtls_ecdsa_verify:
 1069              	.LFB9:
 593:C:/Users/dtjld/workspace/AIoT/src/LiteOS_Lab/iot_link/network/dtls/mbedtls/mbedtls-2.16.2/library\ecdsa.c **** 
 594:C:/Users/dtjld/workspace/AIoT/src/LiteOS_Lab/iot_link/network/dtls/mbedtls/mbedtls-2.16.2/library\ecdsa.c **** /*
 595:C:/Users/dtjld/workspace/AIoT/src/LiteOS_Lab/iot_link/network/dtls/mbedtls/mbedtls-2.16.2/library\ecdsa.c ****  * Verify ECDSA signature of hashed message
 596:C:/Users/dtjld/workspace/AIoT/src/LiteOS_Lab/iot_link/network/dtls/mbedtls/mbedtls-2.16.2/library\ecdsa.c ****  */
 597:C:/Users/dtjld/workspace/AIoT/src/LiteOS_Lab/iot_link/network/dtls/mbedtls/mbedtls-2.16.2/library\ecdsa.c **** int mbedtls_ecdsa_verify( mbedtls_ecp_group *grp,
 598:C:/Users/dtjld/workspace/AIoT/src/LiteOS_Lab/iot_link/network/dtls/mbedtls/mbedtls-2.16.2/library\ecdsa.c ****                           const unsigned char *buf, size_t blen,
 599:C:/Users/dtjld/workspace/AIoT/src/LiteOS_Lab/iot_link/network/dtls/mbedtls/mbedtls-2.16.2/library\ecdsa.c ****                           const mbedtls_ecp_point *Q,
 600:C:/Users/dtjld/workspace/AIoT/src/LiteOS_Lab/iot_link/network/dtls/mbedtls/mbedtls-2.16.2/library\ecdsa.c ****                           const mbedtls_mpi *r,
 601:C:/Users/dtjld/workspace/AIoT/src/LiteOS_Lab/iot_link/network/dtls/mbedtls/mbedtls-2.16.2/library\ecdsa.c ****                           const mbedtls_mpi *s)
 602:C:/Users/dtjld/workspace/AIoT/src/LiteOS_Lab/iot_link/network/dtls/mbedtls/mbedtls-2.16.2/library\ecdsa.c **** {
 1070              		.loc 1 602 0
 1071              		.cfi_startproc
 1072              		@ args = 8, pretend = 0, frame = 16
 1073              		@ frame_needed = 1, uses_anonymous_args = 0
 1074 0000 80B5     		push	{r7, lr}
 1075              	.LCFI30:
 1076              		.cfi_def_cfa_offset 8
 1077              		.cfi_offset 7, -8
 1078              		.cfi_offset 14, -4
 1079 0002 88B0     		sub	sp, sp, #32
 1080              	.LCFI31:
 1081              		.cfi_def_cfa_offset 40
 1082 0004 04AF     		add	r7, sp, #16
 1083              	.LCFI32:
 1084              		.cfi_def_cfa 7, 24
 1085 0006 F860     		str	r0, [r7, #12]
 1086 0008 B960     		str	r1, [r7, #8]
 1087 000a 7A60     		str	r2, [r7, #4]
 1088 000c 3B60     		str	r3, [r7]
 603:C:/Users/dtjld/workspace/AIoT/src/LiteOS_Lab/iot_link/network/dtls/mbedtls/mbedtls-2.16.2/library\ecdsa.c ****     ECDSA_VALIDATE_RET( grp != NULL );
 604:C:/Users/dtjld/workspace/AIoT/src/LiteOS_Lab/iot_link/network/dtls/mbedtls/mbedtls-2.16.2/library\ecdsa.c ****     ECDSA_VALIDATE_RET( Q   != NULL );
 605:C:/Users/dtjld/workspace/AIoT/src/LiteOS_Lab/iot_link/network/dtls/mbedtls/mbedtls-2.16.2/library\ecdsa.c ****     ECDSA_VALIDATE_RET( r   != NULL );
 606:C:/Users/dtjld/workspace/AIoT/src/LiteOS_Lab/iot_link/network/dtls/mbedtls/mbedtls-2.16.2/library\ecdsa.c ****     ECDSA_VALIDATE_RET( s   != NULL );
 607:C:/Users/dtjld/workspace/AIoT/src/LiteOS_Lab/iot_link/network/dtls/mbedtls/mbedtls-2.16.2/library\ecdsa.c ****     ECDSA_VALIDATE_RET( buf != NULL || blen == 0 );
 608:C:/Users/dtjld/workspace/AIoT/src/LiteOS_Lab/iot_link/network/dtls/mbedtls/mbedtls-2.16.2/library\ecdsa.c **** 
 609:C:/Users/dtjld/workspace/AIoT/src/LiteOS_Lab/iot_link/network/dtls/mbedtls/mbedtls-2.16.2/library\ecdsa.c ****     return( ecdsa_verify_restartable( grp, buf, blen, Q, r, s, NULL ) );
ARM GAS  C:\Users\dtjld\AppData\Local\Temp\ccFRmaX0.s 			page 31


 1089              		.loc 1 609 0
 1090 000e 0023     		movs	r3, #0
 1091 0010 0293     		str	r3, [sp, #8]
 1092 0012 FB69     		ldr	r3, [r7, #28]
 1093 0014 0193     		str	r3, [sp, #4]
 1094 0016 BB69     		ldr	r3, [r7, #24]
 1095 0018 0093     		str	r3, [sp]
 1096 001a 3B68     		ldr	r3, [r7]
 1097 001c 7A68     		ldr	r2, [r7, #4]
 1098 001e B968     		ldr	r1, [r7, #8]
 1099 0020 F868     		ldr	r0, [r7, #12]
 1100 0022 FFF7FEFF 		bl	ecdsa_verify_restartable
 1101 0026 0346     		mov	r3, r0
 610:C:/Users/dtjld/workspace/AIoT/src/LiteOS_Lab/iot_link/network/dtls/mbedtls/mbedtls-2.16.2/library\ecdsa.c **** }
 1102              		.loc 1 610 0
 1103 0028 1846     		mov	r0, r3
 1104 002a 1037     		adds	r7, r7, #16
 1105              	.LCFI33:
 1106              		.cfi_def_cfa_offset 8
 1107 002c BD46     		mov	sp, r7
 1108              	.LCFI34:
 1109              		.cfi_def_cfa_register 13
 1110              		@ sp needed
 1111 002e 80BD     		pop	{r7, pc}
 1112              		.cfi_endproc
 1113              	.LFE9:
 1115              		.section	.text.ecdsa_signature_to_asn1,"ax",%progbits
 1116              		.align	1
 1117              		.syntax unified
 1118              		.thumb
 1119              		.thumb_func
 1120              		.fpu fpv4-sp-d16
 1122              	ecdsa_signature_to_asn1:
 1123              	.LFB10:
 611:C:/Users/dtjld/workspace/AIoT/src/LiteOS_Lab/iot_link/network/dtls/mbedtls/mbedtls-2.16.2/library\ecdsa.c **** #endif /* !MBEDTLS_ECDSA_VERIFY_ALT */
 612:C:/Users/dtjld/workspace/AIoT/src/LiteOS_Lab/iot_link/network/dtls/mbedtls/mbedtls-2.16.2/library\ecdsa.c **** 
 613:C:/Users/dtjld/workspace/AIoT/src/LiteOS_Lab/iot_link/network/dtls/mbedtls/mbedtls-2.16.2/library\ecdsa.c **** /*
 614:C:/Users/dtjld/workspace/AIoT/src/LiteOS_Lab/iot_link/network/dtls/mbedtls/mbedtls-2.16.2/library\ecdsa.c ****  * Convert a signature (given by context) to ASN.1
 615:C:/Users/dtjld/workspace/AIoT/src/LiteOS_Lab/iot_link/network/dtls/mbedtls/mbedtls-2.16.2/library\ecdsa.c ****  */
 616:C:/Users/dtjld/workspace/AIoT/src/LiteOS_Lab/iot_link/network/dtls/mbedtls/mbedtls-2.16.2/library\ecdsa.c **** static int ecdsa_signature_to_asn1( const mbedtls_mpi *r, const mbedtls_mpi *s,
 617:C:/Users/dtjld/workspace/AIoT/src/LiteOS_Lab/iot_link/network/dtls/mbedtls/mbedtls-2.16.2/library\ecdsa.c ****                                     unsigned char *sig, size_t *slen )
 618:C:/Users/dtjld/workspace/AIoT/src/LiteOS_Lab/iot_link/network/dtls/mbedtls/mbedtls-2.16.2/library\ecdsa.c **** {
 1124              		.loc 1 618 0
 1125              		.cfi_startproc
 1126              		@ args = 0, pretend = 0, frame = 176
 1127              		@ frame_needed = 1, uses_anonymous_args = 0
 1128 0000 80B5     		push	{r7, lr}
 1129              	.LCFI35:
 1130              		.cfi_def_cfa_offset 8
 1131              		.cfi_offset 7, -8
 1132              		.cfi_offset 14, -4
 1133 0002 ACB0     		sub	sp, sp, #176
 1134              	.LCFI36:
 1135              		.cfi_def_cfa_offset 184
 1136 0004 00AF     		add	r7, sp, #0
 1137              	.LCFI37:
 1138              		.cfi_def_cfa_register 7
ARM GAS  C:\Users\dtjld\AppData\Local\Temp\ccFRmaX0.s 			page 32


 1139 0006 F860     		str	r0, [r7, #12]
 1140 0008 B960     		str	r1, [r7, #8]
 1141 000a 7A60     		str	r2, [r7, #4]
 1142 000c 3B60     		str	r3, [r7]
 619:C:/Users/dtjld/workspace/AIoT/src/LiteOS_Lab/iot_link/network/dtls/mbedtls/mbedtls-2.16.2/library\ecdsa.c ****     int ret;
 620:C:/Users/dtjld/workspace/AIoT/src/LiteOS_Lab/iot_link/network/dtls/mbedtls/mbedtls-2.16.2/library\ecdsa.c ****     unsigned char buf[MBEDTLS_ECDSA_MAX_LEN];
 621:C:/Users/dtjld/workspace/AIoT/src/LiteOS_Lab/iot_link/network/dtls/mbedtls/mbedtls-2.16.2/library\ecdsa.c ****     unsigned char *p = buf + sizeof( buf );
 1143              		.loc 1 621 0
 1144 000e 07F11803 		add	r3, r7, #24
 1145 0012 8D33     		adds	r3, r3, #141
 1146 0014 7B61     		str	r3, [r7, #20]
 622:C:/Users/dtjld/workspace/AIoT/src/LiteOS_Lab/iot_link/network/dtls/mbedtls/mbedtls-2.16.2/library\ecdsa.c ****     size_t len = 0;
 1147              		.loc 1 622 0
 1148 0016 0023     		movs	r3, #0
 1149 0018 C7F8AC30 		str	r3, [r7, #172]
 623:C:/Users/dtjld/workspace/AIoT/src/LiteOS_Lab/iot_link/network/dtls/mbedtls/mbedtls-2.16.2/library\ecdsa.c **** 
 624:C:/Users/dtjld/workspace/AIoT/src/LiteOS_Lab/iot_link/network/dtls/mbedtls/mbedtls-2.16.2/library\ecdsa.c ****     MBEDTLS_ASN1_CHK_ADD( len, mbedtls_asn1_write_mpi( &p, buf, s ) );
 1150              		.loc 1 624 0
 1151 001c 07F11801 		add	r1, r7, #24
 1152 0020 07F11403 		add	r3, r7, #20
 1153 0024 BA68     		ldr	r2, [r7, #8]
 1154 0026 1846     		mov	r0, r3
 1155 0028 FFF7FEFF 		bl	mbedtls_asn1_write_mpi
 1156 002c C7F8A800 		str	r0, [r7, #168]
 1157 0030 D7F8A830 		ldr	r3, [r7, #168]
 1158 0034 002B     		cmp	r3, #0
 1159 0036 02DA     		bge	.L93
 1160              		.loc 1 624 0 is_stmt 0 discriminator 1
 1161 0038 D7F8A830 		ldr	r3, [r7, #168]
 1162 003c 5BE0     		b	.L98
 1163              	.L93:
 1164              		.loc 1 624 0 discriminator 2
 1165 003e D7F8A830 		ldr	r3, [r7, #168]
 1166 0042 D7F8AC20 		ldr	r2, [r7, #172]
 1167 0046 1344     		add	r3, r3, r2
 1168 0048 C7F8AC30 		str	r3, [r7, #172]
 625:C:/Users/dtjld/workspace/AIoT/src/LiteOS_Lab/iot_link/network/dtls/mbedtls/mbedtls-2.16.2/library\ecdsa.c ****     MBEDTLS_ASN1_CHK_ADD( len, mbedtls_asn1_write_mpi( &p, buf, r ) );
 1169              		.loc 1 625 0 is_stmt 1 discriminator 2
 1170 004c 07F11801 		add	r1, r7, #24
 1171 0050 07F11403 		add	r3, r7, #20
 1172 0054 FA68     		ldr	r2, [r7, #12]
 1173 0056 1846     		mov	r0, r3
 1174 0058 FFF7FEFF 		bl	mbedtls_asn1_write_mpi
 1175 005c C7F8A800 		str	r0, [r7, #168]
 1176 0060 D7F8A830 		ldr	r3, [r7, #168]
 1177 0064 002B     		cmp	r3, #0
 1178 0066 02DA     		bge	.L95
 1179              		.loc 1 625 0 is_stmt 0 discriminator 1
 1180 0068 D7F8A830 		ldr	r3, [r7, #168]
 1181 006c 43E0     		b	.L98
 1182              	.L95:
 1183              		.loc 1 625 0 discriminator 2
 1184 006e D7F8A830 		ldr	r3, [r7, #168]
 1185 0072 D7F8AC20 		ldr	r2, [r7, #172]
 1186 0076 1344     		add	r3, r3, r2
 1187 0078 C7F8AC30 		str	r3, [r7, #172]
 626:C:/Users/dtjld/workspace/AIoT/src/LiteOS_Lab/iot_link/network/dtls/mbedtls/mbedtls-2.16.2/library\ecdsa.c **** 
ARM GAS  C:\Users\dtjld\AppData\Local\Temp\ccFRmaX0.s 			page 33


 627:C:/Users/dtjld/workspace/AIoT/src/LiteOS_Lab/iot_link/network/dtls/mbedtls/mbedtls-2.16.2/library\ecdsa.c ****     MBEDTLS_ASN1_CHK_ADD( len, mbedtls_asn1_write_len( &p, buf, len ) );
 1188              		.loc 1 627 0 is_stmt 1 discriminator 2
 1189 007c 07F11801 		add	r1, r7, #24
 1190 0080 07F11403 		add	r3, r7, #20
 1191 0084 D7F8AC20 		ldr	r2, [r7, #172]
 1192 0088 1846     		mov	r0, r3
 1193 008a FFF7FEFF 		bl	mbedtls_asn1_write_len
 1194 008e C7F8A800 		str	r0, [r7, #168]
 1195 0092 D7F8A830 		ldr	r3, [r7, #168]
 1196 0096 002B     		cmp	r3, #0
 1197 0098 02DA     		bge	.L96
 1198              		.loc 1 627 0 is_stmt 0 discriminator 1
 1199 009a D7F8A830 		ldr	r3, [r7, #168]
 1200 009e 2AE0     		b	.L98
 1201              	.L96:
 1202              		.loc 1 627 0 discriminator 2
 1203 00a0 D7F8A830 		ldr	r3, [r7, #168]
 1204 00a4 D7F8AC20 		ldr	r2, [r7, #172]
 1205 00a8 1344     		add	r3, r3, r2
 1206 00aa C7F8AC30 		str	r3, [r7, #172]
 628:C:/Users/dtjld/workspace/AIoT/src/LiteOS_Lab/iot_link/network/dtls/mbedtls/mbedtls-2.16.2/library\ecdsa.c ****     MBEDTLS_ASN1_CHK_ADD( len, mbedtls_asn1_write_tag( &p, buf,
 1207              		.loc 1 628 0 is_stmt 1 discriminator 2
 1208 00ae 07F11801 		add	r1, r7, #24
 1209 00b2 07F11403 		add	r3, r7, #20
 1210 00b6 3022     		movs	r2, #48
 1211 00b8 1846     		mov	r0, r3
 1212 00ba FFF7FEFF 		bl	mbedtls_asn1_write_tag
 1213 00be C7F8A800 		str	r0, [r7, #168]
 1214 00c2 D7F8A830 		ldr	r3, [r7, #168]
 1215 00c6 002B     		cmp	r3, #0
 1216 00c8 02DA     		bge	.L97
 1217              		.loc 1 628 0 is_stmt 0 discriminator 1
 1218 00ca D7F8A830 		ldr	r3, [r7, #168]
 1219 00ce 12E0     		b	.L98
 1220              	.L97:
 1221              		.loc 1 628 0 discriminator 2
 1222 00d0 D7F8A830 		ldr	r3, [r7, #168]
 1223 00d4 D7F8AC20 		ldr	r2, [r7, #172]
 1224 00d8 1344     		add	r3, r3, r2
 1225 00da C7F8AC30 		str	r3, [r7, #172]
 629:C:/Users/dtjld/workspace/AIoT/src/LiteOS_Lab/iot_link/network/dtls/mbedtls/mbedtls-2.16.2/library\ecdsa.c ****                                        MBEDTLS_ASN1_CONSTRUCTED | MBEDTLS_ASN1_SEQUENCE ) );
 630:C:/Users/dtjld/workspace/AIoT/src/LiteOS_Lab/iot_link/network/dtls/mbedtls/mbedtls-2.16.2/library\ecdsa.c **** 
 631:C:/Users/dtjld/workspace/AIoT/src/LiteOS_Lab/iot_link/network/dtls/mbedtls/mbedtls-2.16.2/library\ecdsa.c ****     memcpy( sig, p, len );
 1226              		.loc 1 631 0 is_stmt 1 discriminator 2
 1227 00de 7B69     		ldr	r3, [r7, #20]
 1228 00e0 D7F8AC20 		ldr	r2, [r7, #172]
 1229 00e4 1946     		mov	r1, r3
 1230 00e6 7868     		ldr	r0, [r7, #4]
 1231 00e8 FFF7FEFF 		bl	memcpy
 632:C:/Users/dtjld/workspace/AIoT/src/LiteOS_Lab/iot_link/network/dtls/mbedtls/mbedtls-2.16.2/library\ecdsa.c ****     *slen = len;
 1232              		.loc 1 632 0 discriminator 2
 1233 00ec 3B68     		ldr	r3, [r7]
 1234 00ee D7F8AC20 		ldr	r2, [r7, #172]
 1235 00f2 1A60     		str	r2, [r3]
 633:C:/Users/dtjld/workspace/AIoT/src/LiteOS_Lab/iot_link/network/dtls/mbedtls/mbedtls-2.16.2/library\ecdsa.c **** 
 634:C:/Users/dtjld/workspace/AIoT/src/LiteOS_Lab/iot_link/network/dtls/mbedtls/mbedtls-2.16.2/library\ecdsa.c ****     return( 0 );
 1236              		.loc 1 634 0 discriminator 2
ARM GAS  C:\Users\dtjld\AppData\Local\Temp\ccFRmaX0.s 			page 34


 1237 00f4 0023     		movs	r3, #0
 1238              	.L98:
 635:C:/Users/dtjld/workspace/AIoT/src/LiteOS_Lab/iot_link/network/dtls/mbedtls/mbedtls-2.16.2/library\ecdsa.c **** }
 1239              		.loc 1 635 0 discriminator 1
 1240 00f6 1846     		mov	r0, r3
 1241 00f8 B037     		adds	r7, r7, #176
 1242              	.LCFI38:
 1243              		.cfi_def_cfa_offset 8
 1244 00fa BD46     		mov	sp, r7
 1245              	.LCFI39:
 1246              		.cfi_def_cfa_register 13
 1247              		@ sp needed
 1248 00fc 80BD     		pop	{r7, pc}
 1249              		.cfi_endproc
 1250              	.LFE10:
 1252              		.section	.text.mbedtls_ecdsa_write_signature_restartable,"ax",%progbits
 1253              		.align	1
 1254              		.global	mbedtls_ecdsa_write_signature_restartable
 1255              		.syntax unified
 1256              		.thumb
 1257              		.thumb_func
 1258              		.fpu fpv4-sp-d16
 1260              	mbedtls_ecdsa_write_signature_restartable:
 1261              	.LFB11:
 636:C:/Users/dtjld/workspace/AIoT/src/LiteOS_Lab/iot_link/network/dtls/mbedtls/mbedtls-2.16.2/library\ecdsa.c **** 
 637:C:/Users/dtjld/workspace/AIoT/src/LiteOS_Lab/iot_link/network/dtls/mbedtls/mbedtls-2.16.2/library\ecdsa.c **** /*
 638:C:/Users/dtjld/workspace/AIoT/src/LiteOS_Lab/iot_link/network/dtls/mbedtls/mbedtls-2.16.2/library\ecdsa.c ****  * Compute and write signature
 639:C:/Users/dtjld/workspace/AIoT/src/LiteOS_Lab/iot_link/network/dtls/mbedtls/mbedtls-2.16.2/library\ecdsa.c ****  */
 640:C:/Users/dtjld/workspace/AIoT/src/LiteOS_Lab/iot_link/network/dtls/mbedtls/mbedtls-2.16.2/library\ecdsa.c **** int mbedtls_ecdsa_write_signature_restartable( mbedtls_ecdsa_context *ctx,
 641:C:/Users/dtjld/workspace/AIoT/src/LiteOS_Lab/iot_link/network/dtls/mbedtls/mbedtls-2.16.2/library\ecdsa.c ****                            mbedtls_md_type_t md_alg,
 642:C:/Users/dtjld/workspace/AIoT/src/LiteOS_Lab/iot_link/network/dtls/mbedtls/mbedtls-2.16.2/library\ecdsa.c ****                            const unsigned char *hash, size_t hlen,
 643:C:/Users/dtjld/workspace/AIoT/src/LiteOS_Lab/iot_link/network/dtls/mbedtls/mbedtls-2.16.2/library\ecdsa.c ****                            unsigned char *sig, size_t *slen,
 644:C:/Users/dtjld/workspace/AIoT/src/LiteOS_Lab/iot_link/network/dtls/mbedtls/mbedtls-2.16.2/library\ecdsa.c ****                            int (*f_rng)(void *, unsigned char *, size_t),
 645:C:/Users/dtjld/workspace/AIoT/src/LiteOS_Lab/iot_link/network/dtls/mbedtls/mbedtls-2.16.2/library\ecdsa.c ****                            void *p_rng,
 646:C:/Users/dtjld/workspace/AIoT/src/LiteOS_Lab/iot_link/network/dtls/mbedtls/mbedtls-2.16.2/library\ecdsa.c ****                            mbedtls_ecdsa_restart_ctx *rs_ctx )
 647:C:/Users/dtjld/workspace/AIoT/src/LiteOS_Lab/iot_link/network/dtls/mbedtls/mbedtls-2.16.2/library\ecdsa.c **** {
 1262              		.loc 1 647 0
 1263              		.cfi_startproc
 1264              		@ args = 20, pretend = 0, frame = 48
 1265              		@ frame_needed = 1, uses_anonymous_args = 0
 1266 0000 90B5     		push	{r4, r7, lr}
 1267              	.LCFI40:
 1268              		.cfi_def_cfa_offset 12
 1269              		.cfi_offset 4, -12
 1270              		.cfi_offset 7, -8
 1271              		.cfi_offset 14, -4
 1272 0002 91B0     		sub	sp, sp, #68
 1273              	.LCFI41:
 1274              		.cfi_def_cfa_offset 80
 1275 0004 04AF     		add	r7, sp, #16
 1276              	.LCFI42:
 1277              		.cfi_def_cfa 7, 64
 1278 0006 F860     		str	r0, [r7, #12]
 1279 0008 7A60     		str	r2, [r7, #4]
 1280 000a 3B60     		str	r3, [r7]
 1281 000c 0B46     		mov	r3, r1
 1282 000e FB72     		strb	r3, [r7, #11]
ARM GAS  C:\Users\dtjld\AppData\Local\Temp\ccFRmaX0.s 			page 35


 648:C:/Users/dtjld/workspace/AIoT/src/LiteOS_Lab/iot_link/network/dtls/mbedtls/mbedtls-2.16.2/library\ecdsa.c ****     int ret;
 649:C:/Users/dtjld/workspace/AIoT/src/LiteOS_Lab/iot_link/network/dtls/mbedtls/mbedtls-2.16.2/library\ecdsa.c ****     mbedtls_mpi r, s;
 650:C:/Users/dtjld/workspace/AIoT/src/LiteOS_Lab/iot_link/network/dtls/mbedtls/mbedtls-2.16.2/library\ecdsa.c ****     ECDSA_VALIDATE_RET( ctx  != NULL );
 651:C:/Users/dtjld/workspace/AIoT/src/LiteOS_Lab/iot_link/network/dtls/mbedtls/mbedtls-2.16.2/library\ecdsa.c ****     ECDSA_VALIDATE_RET( hash != NULL );
 652:C:/Users/dtjld/workspace/AIoT/src/LiteOS_Lab/iot_link/network/dtls/mbedtls/mbedtls-2.16.2/library\ecdsa.c ****     ECDSA_VALIDATE_RET( sig  != NULL );
 653:C:/Users/dtjld/workspace/AIoT/src/LiteOS_Lab/iot_link/network/dtls/mbedtls/mbedtls-2.16.2/library\ecdsa.c ****     ECDSA_VALIDATE_RET( slen != NULL );
 654:C:/Users/dtjld/workspace/AIoT/src/LiteOS_Lab/iot_link/network/dtls/mbedtls/mbedtls-2.16.2/library\ecdsa.c **** 
 655:C:/Users/dtjld/workspace/AIoT/src/LiteOS_Lab/iot_link/network/dtls/mbedtls/mbedtls-2.16.2/library\ecdsa.c ****     mbedtls_mpi_init( &r );
 1283              		.loc 1 655 0
 1284 0010 07F12003 		add	r3, r7, #32
 1285 0014 1846     		mov	r0, r3
 1286 0016 FFF7FEFF 		bl	mbedtls_mpi_init
 656:C:/Users/dtjld/workspace/AIoT/src/LiteOS_Lab/iot_link/network/dtls/mbedtls/mbedtls-2.16.2/library\ecdsa.c ****     mbedtls_mpi_init( &s );
 1287              		.loc 1 656 0
 1288 001a 07F11403 		add	r3, r7, #20
 1289 001e 1846     		mov	r0, r3
 1290 0020 FFF7FEFF 		bl	mbedtls_mpi_init
 657:C:/Users/dtjld/workspace/AIoT/src/LiteOS_Lab/iot_link/network/dtls/mbedtls/mbedtls-2.16.2/library\ecdsa.c **** 
 658:C:/Users/dtjld/workspace/AIoT/src/LiteOS_Lab/iot_link/network/dtls/mbedtls/mbedtls-2.16.2/library\ecdsa.c **** #if defined(MBEDTLS_ECDSA_DETERMINISTIC)
 659:C:/Users/dtjld/workspace/AIoT/src/LiteOS_Lab/iot_link/network/dtls/mbedtls/mbedtls-2.16.2/library\ecdsa.c ****     (void) f_rng;
 660:C:/Users/dtjld/workspace/AIoT/src/LiteOS_Lab/iot_link/network/dtls/mbedtls/mbedtls-2.16.2/library\ecdsa.c ****     (void) p_rng;
 661:C:/Users/dtjld/workspace/AIoT/src/LiteOS_Lab/iot_link/network/dtls/mbedtls/mbedtls-2.16.2/library\ecdsa.c **** 
 662:C:/Users/dtjld/workspace/AIoT/src/LiteOS_Lab/iot_link/network/dtls/mbedtls/mbedtls-2.16.2/library\ecdsa.c ****     MBEDTLS_MPI_CHK( ecdsa_sign_det_restartable( &ctx->grp, &r, &s, &ctx->d,
 1291              		.loc 1 662 0
 1292 0024 F868     		ldr	r0, [r7, #12]
 1293 0026 FB68     		ldr	r3, [r7, #12]
 1294 0028 03F17C04 		add	r4, r3, #124
 1295 002c 07F11402 		add	r2, r7, #20
 1296 0030 07F12001 		add	r1, r7, #32
 1297 0034 3B6D     		ldr	r3, [r7, #80]
 1298 0036 0393     		str	r3, [sp, #12]
 1299 0038 FB7A     		ldrb	r3, [r7, #11]	@ zero_extendqisi2
 1300 003a 0293     		str	r3, [sp, #8]
 1301 003c 3B68     		ldr	r3, [r7]
 1302 003e 0193     		str	r3, [sp, #4]
 1303 0040 7B68     		ldr	r3, [r7, #4]
 1304 0042 0093     		str	r3, [sp]
 1305 0044 2346     		mov	r3, r4
 1306 0046 FFF7FEFF 		bl	ecdsa_sign_det_restartable
 1307 004a F862     		str	r0, [r7, #44]
 1308 004c FB6A     		ldr	r3, [r7, #44]
 1309 004e 002B     		cmp	r3, #0
 1310 0050 0BD1     		bne	.L103
 663:C:/Users/dtjld/workspace/AIoT/src/LiteOS_Lab/iot_link/network/dtls/mbedtls/mbedtls-2.16.2/library\ecdsa.c ****                              hash, hlen, md_alg, rs_ctx ) );
 664:C:/Users/dtjld/workspace/AIoT/src/LiteOS_Lab/iot_link/network/dtls/mbedtls/mbedtls-2.16.2/library\ecdsa.c **** #else
 665:C:/Users/dtjld/workspace/AIoT/src/LiteOS_Lab/iot_link/network/dtls/mbedtls/mbedtls-2.16.2/library\ecdsa.c ****     (void) md_alg;
 666:C:/Users/dtjld/workspace/AIoT/src/LiteOS_Lab/iot_link/network/dtls/mbedtls/mbedtls-2.16.2/library\ecdsa.c **** 
 667:C:/Users/dtjld/workspace/AIoT/src/LiteOS_Lab/iot_link/network/dtls/mbedtls/mbedtls-2.16.2/library\ecdsa.c **** #if defined(MBEDTLS_ECDSA_SIGN_ALT)
 668:C:/Users/dtjld/workspace/AIoT/src/LiteOS_Lab/iot_link/network/dtls/mbedtls/mbedtls-2.16.2/library\ecdsa.c ****     MBEDTLS_MPI_CHK( mbedtls_ecdsa_sign( &ctx->grp, &r, &s, &ctx->d,
 669:C:/Users/dtjld/workspace/AIoT/src/LiteOS_Lab/iot_link/network/dtls/mbedtls/mbedtls-2.16.2/library\ecdsa.c ****                          hash, hlen, f_rng, p_rng ) );
 670:C:/Users/dtjld/workspace/AIoT/src/LiteOS_Lab/iot_link/network/dtls/mbedtls/mbedtls-2.16.2/library\ecdsa.c **** #else
 671:C:/Users/dtjld/workspace/AIoT/src/LiteOS_Lab/iot_link/network/dtls/mbedtls/mbedtls-2.16.2/library\ecdsa.c ****     MBEDTLS_MPI_CHK( ecdsa_sign_restartable( &ctx->grp, &r, &s, &ctx->d,
 672:C:/Users/dtjld/workspace/AIoT/src/LiteOS_Lab/iot_link/network/dtls/mbedtls/mbedtls-2.16.2/library\ecdsa.c ****                          hash, hlen, f_rng, p_rng, rs_ctx ) );
 673:C:/Users/dtjld/workspace/AIoT/src/LiteOS_Lab/iot_link/network/dtls/mbedtls/mbedtls-2.16.2/library\ecdsa.c **** #endif /* MBEDTLS_ECDSA_SIGN_ALT */
 674:C:/Users/dtjld/workspace/AIoT/src/LiteOS_Lab/iot_link/network/dtls/mbedtls/mbedtls-2.16.2/library\ecdsa.c **** #endif /* MBEDTLS_ECDSA_DETERMINISTIC */
 675:C:/Users/dtjld/workspace/AIoT/src/LiteOS_Lab/iot_link/network/dtls/mbedtls/mbedtls-2.16.2/library\ecdsa.c **** 
 676:C:/Users/dtjld/workspace/AIoT/src/LiteOS_Lab/iot_link/network/dtls/mbedtls/mbedtls-2.16.2/library\ecdsa.c ****     MBEDTLS_MPI_CHK( ecdsa_signature_to_asn1( &r, &s, sig, slen ) );
ARM GAS  C:\Users\dtjld\AppData\Local\Temp\ccFRmaX0.s 			page 36


 1311              		.loc 1 676 0
 1312 0052 07F11401 		add	r1, r7, #20
 1313 0056 07F12000 		add	r0, r7, #32
 1314 005a 7B6C     		ldr	r3, [r7, #68]
 1315 005c 3A6C     		ldr	r2, [r7, #64]
 1316 005e FFF7FEFF 		bl	ecdsa_signature_to_asn1
 1317 0062 F862     		str	r0, [r7, #44]
 1318 0064 FB6A     		ldr	r3, [r7, #44]
 1319 0066 002B     		cmp	r3, #0
 677:C:/Users/dtjld/workspace/AIoT/src/LiteOS_Lab/iot_link/network/dtls/mbedtls/mbedtls-2.16.2/library\ecdsa.c **** 
 678:C:/Users/dtjld/workspace/AIoT/src/LiteOS_Lab/iot_link/network/dtls/mbedtls/mbedtls-2.16.2/library\ecdsa.c **** cleanup:
 1320              		.loc 1 678 0
 1321 0068 00E0     		b	.L101
 1322              	.L103:
 662:C:/Users/dtjld/workspace/AIoT/src/LiteOS_Lab/iot_link/network/dtls/mbedtls/mbedtls-2.16.2/library\ecdsa.c ****                              hash, hlen, md_alg, rs_ctx ) );
 1323              		.loc 1 662 0
 1324 006a 00BF     		nop
 1325              	.L101:
 679:C:/Users/dtjld/workspace/AIoT/src/LiteOS_Lab/iot_link/network/dtls/mbedtls/mbedtls-2.16.2/library\ecdsa.c ****     mbedtls_mpi_free( &r );
 1326              		.loc 1 679 0
 1327 006c 07F12003 		add	r3, r7, #32
 1328 0070 1846     		mov	r0, r3
 1329 0072 FFF7FEFF 		bl	mbedtls_mpi_free
 680:C:/Users/dtjld/workspace/AIoT/src/LiteOS_Lab/iot_link/network/dtls/mbedtls/mbedtls-2.16.2/library\ecdsa.c ****     mbedtls_mpi_free( &s );
 1330              		.loc 1 680 0
 1331 0076 07F11403 		add	r3, r7, #20
 1332 007a 1846     		mov	r0, r3
 1333 007c FFF7FEFF 		bl	mbedtls_mpi_free
 681:C:/Users/dtjld/workspace/AIoT/src/LiteOS_Lab/iot_link/network/dtls/mbedtls/mbedtls-2.16.2/library\ecdsa.c **** 
 682:C:/Users/dtjld/workspace/AIoT/src/LiteOS_Lab/iot_link/network/dtls/mbedtls/mbedtls-2.16.2/library\ecdsa.c ****     return( ret );
 1334              		.loc 1 682 0
 1335 0080 FB6A     		ldr	r3, [r7, #44]
 683:C:/Users/dtjld/workspace/AIoT/src/LiteOS_Lab/iot_link/network/dtls/mbedtls/mbedtls-2.16.2/library\ecdsa.c **** }
 1336              		.loc 1 683 0
 1337 0082 1846     		mov	r0, r3
 1338 0084 3437     		adds	r7, r7, #52
 1339              	.LCFI43:
 1340              		.cfi_def_cfa_offset 12
 1341 0086 BD46     		mov	sp, r7
 1342              	.LCFI44:
 1343              		.cfi_def_cfa_register 13
 1344              		@ sp needed
 1345 0088 90BD     		pop	{r4, r7, pc}
 1346              		.cfi_endproc
 1347              	.LFE11:
 1349              		.section	.text.mbedtls_ecdsa_write_signature,"ax",%progbits
 1350              		.align	1
 1351              		.global	mbedtls_ecdsa_write_signature
 1352              		.syntax unified
 1353              		.thumb
 1354              		.thumb_func
 1355              		.fpu fpv4-sp-d16
 1357              	mbedtls_ecdsa_write_signature:
 1358              	.LFB12:
 684:C:/Users/dtjld/workspace/AIoT/src/LiteOS_Lab/iot_link/network/dtls/mbedtls/mbedtls-2.16.2/library\ecdsa.c **** 
 685:C:/Users/dtjld/workspace/AIoT/src/LiteOS_Lab/iot_link/network/dtls/mbedtls/mbedtls-2.16.2/library\ecdsa.c **** /*
 686:C:/Users/dtjld/workspace/AIoT/src/LiteOS_Lab/iot_link/network/dtls/mbedtls/mbedtls-2.16.2/library\ecdsa.c ****  * Compute and write signature
ARM GAS  C:\Users\dtjld\AppData\Local\Temp\ccFRmaX0.s 			page 37


 687:C:/Users/dtjld/workspace/AIoT/src/LiteOS_Lab/iot_link/network/dtls/mbedtls/mbedtls-2.16.2/library\ecdsa.c ****  */
 688:C:/Users/dtjld/workspace/AIoT/src/LiteOS_Lab/iot_link/network/dtls/mbedtls/mbedtls-2.16.2/library\ecdsa.c **** int mbedtls_ecdsa_write_signature( mbedtls_ecdsa_context *ctx,
 689:C:/Users/dtjld/workspace/AIoT/src/LiteOS_Lab/iot_link/network/dtls/mbedtls/mbedtls-2.16.2/library\ecdsa.c ****                                  mbedtls_md_type_t md_alg,
 690:C:/Users/dtjld/workspace/AIoT/src/LiteOS_Lab/iot_link/network/dtls/mbedtls/mbedtls-2.16.2/library\ecdsa.c ****                                  const unsigned char *hash, size_t hlen,
 691:C:/Users/dtjld/workspace/AIoT/src/LiteOS_Lab/iot_link/network/dtls/mbedtls/mbedtls-2.16.2/library\ecdsa.c ****                                  unsigned char *sig, size_t *slen,
 692:C:/Users/dtjld/workspace/AIoT/src/LiteOS_Lab/iot_link/network/dtls/mbedtls/mbedtls-2.16.2/library\ecdsa.c ****                                  int (*f_rng)(void *, unsigned char *, size_t),
 693:C:/Users/dtjld/workspace/AIoT/src/LiteOS_Lab/iot_link/network/dtls/mbedtls/mbedtls-2.16.2/library\ecdsa.c ****                                  void *p_rng )
 694:C:/Users/dtjld/workspace/AIoT/src/LiteOS_Lab/iot_link/network/dtls/mbedtls/mbedtls-2.16.2/library\ecdsa.c **** {
 1359              		.loc 1 694 0
 1360              		.cfi_startproc
 1361              		@ args = 16, pretend = 0, frame = 16
 1362              		@ frame_needed = 1, uses_anonymous_args = 0
 1363 0000 80B5     		push	{r7, lr}
 1364              	.LCFI45:
 1365              		.cfi_def_cfa_offset 8
 1366              		.cfi_offset 7, -8
 1367              		.cfi_offset 14, -4
 1368 0002 8AB0     		sub	sp, sp, #40
 1369              	.LCFI46:
 1370              		.cfi_def_cfa_offset 48
 1371 0004 06AF     		add	r7, sp, #24
 1372              	.LCFI47:
 1373              		.cfi_def_cfa 7, 24
 1374 0006 F860     		str	r0, [r7, #12]
 1375 0008 7A60     		str	r2, [r7, #4]
 1376 000a 3B60     		str	r3, [r7]
 1377 000c 0B46     		mov	r3, r1
 1378 000e FB72     		strb	r3, [r7, #11]
 695:C:/Users/dtjld/workspace/AIoT/src/LiteOS_Lab/iot_link/network/dtls/mbedtls/mbedtls-2.16.2/library\ecdsa.c ****     ECDSA_VALIDATE_RET( ctx  != NULL );
 696:C:/Users/dtjld/workspace/AIoT/src/LiteOS_Lab/iot_link/network/dtls/mbedtls/mbedtls-2.16.2/library\ecdsa.c ****     ECDSA_VALIDATE_RET( hash != NULL );
 697:C:/Users/dtjld/workspace/AIoT/src/LiteOS_Lab/iot_link/network/dtls/mbedtls/mbedtls-2.16.2/library\ecdsa.c ****     ECDSA_VALIDATE_RET( sig  != NULL );
 698:C:/Users/dtjld/workspace/AIoT/src/LiteOS_Lab/iot_link/network/dtls/mbedtls/mbedtls-2.16.2/library\ecdsa.c ****     ECDSA_VALIDATE_RET( slen != NULL );
 699:C:/Users/dtjld/workspace/AIoT/src/LiteOS_Lab/iot_link/network/dtls/mbedtls/mbedtls-2.16.2/library\ecdsa.c ****     return( mbedtls_ecdsa_write_signature_restartable(
 1379              		.loc 1 699 0
 1380 0010 F97A     		ldrb	r1, [r7, #11]	@ zero_extendqisi2
 1381 0012 0023     		movs	r3, #0
 1382 0014 0493     		str	r3, [sp, #16]
 1383 0016 7B6A     		ldr	r3, [r7, #36]
 1384 0018 0393     		str	r3, [sp, #12]
 1385 001a 3B6A     		ldr	r3, [r7, #32]
 1386 001c 0293     		str	r3, [sp, #8]
 1387 001e FB69     		ldr	r3, [r7, #28]
 1388 0020 0193     		str	r3, [sp, #4]
 1389 0022 BB69     		ldr	r3, [r7, #24]
 1390 0024 0093     		str	r3, [sp]
 1391 0026 3B68     		ldr	r3, [r7]
 1392 0028 7A68     		ldr	r2, [r7, #4]
 1393 002a F868     		ldr	r0, [r7, #12]
 1394 002c FFF7FEFF 		bl	mbedtls_ecdsa_write_signature_restartable
 1395 0030 0346     		mov	r3, r0
 700:C:/Users/dtjld/workspace/AIoT/src/LiteOS_Lab/iot_link/network/dtls/mbedtls/mbedtls-2.16.2/library\ecdsa.c ****                 ctx, md_alg, hash, hlen, sig, slen, f_rng, p_rng, NULL ) );
 701:C:/Users/dtjld/workspace/AIoT/src/LiteOS_Lab/iot_link/network/dtls/mbedtls/mbedtls-2.16.2/library\ecdsa.c **** }
 1396              		.loc 1 701 0
 1397 0032 1846     		mov	r0, r3
 1398 0034 1037     		adds	r7, r7, #16
 1399              	.LCFI48:
 1400              		.cfi_def_cfa_offset 8
ARM GAS  C:\Users\dtjld\AppData\Local\Temp\ccFRmaX0.s 			page 38


 1401 0036 BD46     		mov	sp, r7
 1402              	.LCFI49:
 1403              		.cfi_def_cfa_register 13
 1404              		@ sp needed
 1405 0038 80BD     		pop	{r7, pc}
 1406              		.cfi_endproc
 1407              	.LFE12:
 1409              		.section	.text.mbedtls_ecdsa_write_signature_det,"ax",%progbits
 1410              		.align	1
 1411              		.global	mbedtls_ecdsa_write_signature_det
 1412              		.syntax unified
 1413              		.thumb
 1414              		.thumb_func
 1415              		.fpu fpv4-sp-d16
 1417              	mbedtls_ecdsa_write_signature_det:
 1418              	.LFB13:
 702:C:/Users/dtjld/workspace/AIoT/src/LiteOS_Lab/iot_link/network/dtls/mbedtls/mbedtls-2.16.2/library\ecdsa.c **** 
 703:C:/Users/dtjld/workspace/AIoT/src/LiteOS_Lab/iot_link/network/dtls/mbedtls/mbedtls-2.16.2/library\ecdsa.c **** #if !defined(MBEDTLS_DEPRECATED_REMOVED) && \
 704:C:/Users/dtjld/workspace/AIoT/src/LiteOS_Lab/iot_link/network/dtls/mbedtls/mbedtls-2.16.2/library\ecdsa.c ****     defined(MBEDTLS_ECDSA_DETERMINISTIC)
 705:C:/Users/dtjld/workspace/AIoT/src/LiteOS_Lab/iot_link/network/dtls/mbedtls/mbedtls-2.16.2/library\ecdsa.c **** int mbedtls_ecdsa_write_signature_det( mbedtls_ecdsa_context *ctx,
 706:C:/Users/dtjld/workspace/AIoT/src/LiteOS_Lab/iot_link/network/dtls/mbedtls/mbedtls-2.16.2/library\ecdsa.c ****                                const unsigned char *hash, size_t hlen,
 707:C:/Users/dtjld/workspace/AIoT/src/LiteOS_Lab/iot_link/network/dtls/mbedtls/mbedtls-2.16.2/library\ecdsa.c ****                                unsigned char *sig, size_t *slen,
 708:C:/Users/dtjld/workspace/AIoT/src/LiteOS_Lab/iot_link/network/dtls/mbedtls/mbedtls-2.16.2/library\ecdsa.c ****                                mbedtls_md_type_t md_alg )
 709:C:/Users/dtjld/workspace/AIoT/src/LiteOS_Lab/iot_link/network/dtls/mbedtls/mbedtls-2.16.2/library\ecdsa.c **** {
 1419              		.loc 1 709 0
 1420              		.cfi_startproc
 1421              		@ args = 8, pretend = 0, frame = 16
 1422              		@ frame_needed = 1, uses_anonymous_args = 0
 1423 0000 80B5     		push	{r7, lr}
 1424              	.LCFI50:
 1425              		.cfi_def_cfa_offset 8
 1426              		.cfi_offset 7, -8
 1427              		.cfi_offset 14, -4
 1428 0002 88B0     		sub	sp, sp, #32
 1429              	.LCFI51:
 1430              		.cfi_def_cfa_offset 40
 1431 0004 04AF     		add	r7, sp, #16
 1432              	.LCFI52:
 1433              		.cfi_def_cfa 7, 24
 1434 0006 F860     		str	r0, [r7, #12]
 1435 0008 B960     		str	r1, [r7, #8]
 1436 000a 7A60     		str	r2, [r7, #4]
 1437 000c 3B60     		str	r3, [r7]
 710:C:/Users/dtjld/workspace/AIoT/src/LiteOS_Lab/iot_link/network/dtls/mbedtls/mbedtls-2.16.2/library\ecdsa.c ****     ECDSA_VALIDATE_RET( ctx  != NULL );
 711:C:/Users/dtjld/workspace/AIoT/src/LiteOS_Lab/iot_link/network/dtls/mbedtls/mbedtls-2.16.2/library\ecdsa.c ****     ECDSA_VALIDATE_RET( hash != NULL );
 712:C:/Users/dtjld/workspace/AIoT/src/LiteOS_Lab/iot_link/network/dtls/mbedtls/mbedtls-2.16.2/library\ecdsa.c ****     ECDSA_VALIDATE_RET( sig  != NULL );
 713:C:/Users/dtjld/workspace/AIoT/src/LiteOS_Lab/iot_link/network/dtls/mbedtls/mbedtls-2.16.2/library\ecdsa.c ****     ECDSA_VALIDATE_RET( slen != NULL );
 714:C:/Users/dtjld/workspace/AIoT/src/LiteOS_Lab/iot_link/network/dtls/mbedtls/mbedtls-2.16.2/library\ecdsa.c ****     return( mbedtls_ecdsa_write_signature( ctx, md_alg, hash, hlen, sig, slen,
 1438              		.loc 1 714 0
 1439 000e 397F     		ldrb	r1, [r7, #28]	@ zero_extendqisi2
 1440 0010 0023     		movs	r3, #0
 1441 0012 0393     		str	r3, [sp, #12]
 1442 0014 0023     		movs	r3, #0
 1443 0016 0293     		str	r3, [sp, #8]
 1444 0018 BB69     		ldr	r3, [r7, #24]
 1445 001a 0193     		str	r3, [sp, #4]
 1446 001c 3B68     		ldr	r3, [r7]
ARM GAS  C:\Users\dtjld\AppData\Local\Temp\ccFRmaX0.s 			page 39


 1447 001e 0093     		str	r3, [sp]
 1448 0020 7B68     		ldr	r3, [r7, #4]
 1449 0022 BA68     		ldr	r2, [r7, #8]
 1450 0024 F868     		ldr	r0, [r7, #12]
 1451 0026 FFF7FEFF 		bl	mbedtls_ecdsa_write_signature
 1452 002a 0346     		mov	r3, r0
 715:C:/Users/dtjld/workspace/AIoT/src/LiteOS_Lab/iot_link/network/dtls/mbedtls/mbedtls-2.16.2/library\ecdsa.c ****                                    NULL, NULL ) );
 716:C:/Users/dtjld/workspace/AIoT/src/LiteOS_Lab/iot_link/network/dtls/mbedtls/mbedtls-2.16.2/library\ecdsa.c **** }
 1453              		.loc 1 716 0
 1454 002c 1846     		mov	r0, r3
 1455 002e 1037     		adds	r7, r7, #16
 1456              	.LCFI53:
 1457              		.cfi_def_cfa_offset 8
 1458 0030 BD46     		mov	sp, r7
 1459              	.LCFI54:
 1460              		.cfi_def_cfa_register 13
 1461              		@ sp needed
 1462 0032 80BD     		pop	{r7, pc}
 1463              		.cfi_endproc
 1464              	.LFE13:
 1466              		.section	.text.mbedtls_ecdsa_read_signature,"ax",%progbits
 1467              		.align	1
 1468              		.global	mbedtls_ecdsa_read_signature
 1469              		.syntax unified
 1470              		.thumb
 1471              		.thumb_func
 1472              		.fpu fpv4-sp-d16
 1474              	mbedtls_ecdsa_read_signature:
 1475              	.LFB14:
 717:C:/Users/dtjld/workspace/AIoT/src/LiteOS_Lab/iot_link/network/dtls/mbedtls/mbedtls-2.16.2/library\ecdsa.c **** #endif
 718:C:/Users/dtjld/workspace/AIoT/src/LiteOS_Lab/iot_link/network/dtls/mbedtls/mbedtls-2.16.2/library\ecdsa.c **** 
 719:C:/Users/dtjld/workspace/AIoT/src/LiteOS_Lab/iot_link/network/dtls/mbedtls/mbedtls-2.16.2/library\ecdsa.c **** /*
 720:C:/Users/dtjld/workspace/AIoT/src/LiteOS_Lab/iot_link/network/dtls/mbedtls/mbedtls-2.16.2/library\ecdsa.c ****  * Read and check signature
 721:C:/Users/dtjld/workspace/AIoT/src/LiteOS_Lab/iot_link/network/dtls/mbedtls/mbedtls-2.16.2/library\ecdsa.c ****  */
 722:C:/Users/dtjld/workspace/AIoT/src/LiteOS_Lab/iot_link/network/dtls/mbedtls/mbedtls-2.16.2/library\ecdsa.c **** int mbedtls_ecdsa_read_signature( mbedtls_ecdsa_context *ctx,
 723:C:/Users/dtjld/workspace/AIoT/src/LiteOS_Lab/iot_link/network/dtls/mbedtls/mbedtls-2.16.2/library\ecdsa.c ****                           const unsigned char *hash, size_t hlen,
 724:C:/Users/dtjld/workspace/AIoT/src/LiteOS_Lab/iot_link/network/dtls/mbedtls/mbedtls-2.16.2/library\ecdsa.c ****                           const unsigned char *sig, size_t slen )
 725:C:/Users/dtjld/workspace/AIoT/src/LiteOS_Lab/iot_link/network/dtls/mbedtls/mbedtls-2.16.2/library\ecdsa.c **** {
 1476              		.loc 1 725 0
 1477              		.cfi_startproc
 1478              		@ args = 4, pretend = 0, frame = 16
 1479              		@ frame_needed = 1, uses_anonymous_args = 0
 1480 0000 80B5     		push	{r7, lr}
 1481              	.LCFI55:
 1482              		.cfi_def_cfa_offset 8
 1483              		.cfi_offset 7, -8
 1484              		.cfi_offset 14, -4
 1485 0002 86B0     		sub	sp, sp, #24
 1486              	.LCFI56:
 1487              		.cfi_def_cfa_offset 32
 1488 0004 02AF     		add	r7, sp, #8
 1489              	.LCFI57:
 1490              		.cfi_def_cfa 7, 24
 1491 0006 F860     		str	r0, [r7, #12]
 1492 0008 B960     		str	r1, [r7, #8]
 1493 000a 7A60     		str	r2, [r7, #4]
 1494 000c 3B60     		str	r3, [r7]
ARM GAS  C:\Users\dtjld\AppData\Local\Temp\ccFRmaX0.s 			page 40


 726:C:/Users/dtjld/workspace/AIoT/src/LiteOS_Lab/iot_link/network/dtls/mbedtls/mbedtls-2.16.2/library\ecdsa.c ****     ECDSA_VALIDATE_RET( ctx  != NULL );
 727:C:/Users/dtjld/workspace/AIoT/src/LiteOS_Lab/iot_link/network/dtls/mbedtls/mbedtls-2.16.2/library\ecdsa.c ****     ECDSA_VALIDATE_RET( hash != NULL );
 728:C:/Users/dtjld/workspace/AIoT/src/LiteOS_Lab/iot_link/network/dtls/mbedtls/mbedtls-2.16.2/library\ecdsa.c ****     ECDSA_VALIDATE_RET( sig  != NULL );
 729:C:/Users/dtjld/workspace/AIoT/src/LiteOS_Lab/iot_link/network/dtls/mbedtls/mbedtls-2.16.2/library\ecdsa.c ****     return( mbedtls_ecdsa_read_signature_restartable(
 1495              		.loc 1 729 0
 1496 000e 0023     		movs	r3, #0
 1497 0010 0193     		str	r3, [sp, #4]
 1498 0012 BB69     		ldr	r3, [r7, #24]
 1499 0014 0093     		str	r3, [sp]
 1500 0016 3B68     		ldr	r3, [r7]
 1501 0018 7A68     		ldr	r2, [r7, #4]
 1502 001a B968     		ldr	r1, [r7, #8]
 1503 001c F868     		ldr	r0, [r7, #12]
 1504 001e FFF7FEFF 		bl	mbedtls_ecdsa_read_signature_restartable
 1505 0022 0346     		mov	r3, r0
 730:C:/Users/dtjld/workspace/AIoT/src/LiteOS_Lab/iot_link/network/dtls/mbedtls/mbedtls-2.16.2/library\ecdsa.c ****                 ctx, hash, hlen, sig, slen, NULL ) );
 731:C:/Users/dtjld/workspace/AIoT/src/LiteOS_Lab/iot_link/network/dtls/mbedtls/mbedtls-2.16.2/library\ecdsa.c **** }
 1506              		.loc 1 731 0
 1507 0024 1846     		mov	r0, r3
 1508 0026 1037     		adds	r7, r7, #16
 1509              	.LCFI58:
 1510              		.cfi_def_cfa_offset 8
 1511 0028 BD46     		mov	sp, r7
 1512              	.LCFI59:
 1513              		.cfi_def_cfa_register 13
 1514              		@ sp needed
 1515 002a 80BD     		pop	{r7, pc}
 1516              		.cfi_endproc
 1517              	.LFE14:
 1519              		.section	.text.mbedtls_ecdsa_read_signature_restartable,"ax",%progbits
 1520              		.align	1
 1521              		.global	mbedtls_ecdsa_read_signature_restartable
 1522              		.syntax unified
 1523              		.thumb
 1524              		.thumb_func
 1525              		.fpu fpv4-sp-d16
 1527              	mbedtls_ecdsa_read_signature_restartable:
 1528              	.LFB15:
 732:C:/Users/dtjld/workspace/AIoT/src/LiteOS_Lab/iot_link/network/dtls/mbedtls/mbedtls-2.16.2/library\ecdsa.c **** 
 733:C:/Users/dtjld/workspace/AIoT/src/LiteOS_Lab/iot_link/network/dtls/mbedtls/mbedtls-2.16.2/library\ecdsa.c **** /*
 734:C:/Users/dtjld/workspace/AIoT/src/LiteOS_Lab/iot_link/network/dtls/mbedtls/mbedtls-2.16.2/library\ecdsa.c ****  * Restartable read and check signature
 735:C:/Users/dtjld/workspace/AIoT/src/LiteOS_Lab/iot_link/network/dtls/mbedtls/mbedtls-2.16.2/library\ecdsa.c ****  */
 736:C:/Users/dtjld/workspace/AIoT/src/LiteOS_Lab/iot_link/network/dtls/mbedtls/mbedtls-2.16.2/library\ecdsa.c **** int mbedtls_ecdsa_read_signature_restartable( mbedtls_ecdsa_context *ctx,
 737:C:/Users/dtjld/workspace/AIoT/src/LiteOS_Lab/iot_link/network/dtls/mbedtls/mbedtls-2.16.2/library\ecdsa.c ****                           const unsigned char *hash, size_t hlen,
 738:C:/Users/dtjld/workspace/AIoT/src/LiteOS_Lab/iot_link/network/dtls/mbedtls/mbedtls-2.16.2/library\ecdsa.c ****                           const unsigned char *sig, size_t slen,
 739:C:/Users/dtjld/workspace/AIoT/src/LiteOS_Lab/iot_link/network/dtls/mbedtls/mbedtls-2.16.2/library\ecdsa.c ****                           mbedtls_ecdsa_restart_ctx *rs_ctx )
 740:C:/Users/dtjld/workspace/AIoT/src/LiteOS_Lab/iot_link/network/dtls/mbedtls/mbedtls-2.16.2/library\ecdsa.c **** {
 1529              		.loc 1 740 0
 1530              		.cfi_startproc
 1531              		@ args = 8, pretend = 0, frame = 56
 1532              		@ frame_needed = 1, uses_anonymous_args = 0
 1533 0000 80B5     		push	{r7, lr}
 1534              	.LCFI60:
 1535              		.cfi_def_cfa_offset 8
 1536              		.cfi_offset 7, -8
 1537              		.cfi_offset 14, -4
 1538 0002 92B0     		sub	sp, sp, #72
ARM GAS  C:\Users\dtjld\AppData\Local\Temp\ccFRmaX0.s 			page 41


 1539              	.LCFI61:
 1540              		.cfi_def_cfa_offset 80
 1541 0004 04AF     		add	r7, sp, #16
 1542              	.LCFI62:
 1543              		.cfi_def_cfa 7, 64
 1544 0006 F860     		str	r0, [r7, #12]
 1545 0008 B960     		str	r1, [r7, #8]
 1546 000a 7A60     		str	r2, [r7, #4]
 1547 000c 3B60     		str	r3, [r7]
 741:C:/Users/dtjld/workspace/AIoT/src/LiteOS_Lab/iot_link/network/dtls/mbedtls/mbedtls-2.16.2/library\ecdsa.c ****     int ret;
 742:C:/Users/dtjld/workspace/AIoT/src/LiteOS_Lab/iot_link/network/dtls/mbedtls/mbedtls-2.16.2/library\ecdsa.c ****     unsigned char *p = (unsigned char *) sig;
 1548              		.loc 1 742 0
 1549 000e 3B68     		ldr	r3, [r7]
 1550 0010 FB62     		str	r3, [r7, #44]
 743:C:/Users/dtjld/workspace/AIoT/src/LiteOS_Lab/iot_link/network/dtls/mbedtls/mbedtls-2.16.2/library\ecdsa.c ****     const unsigned char *end = sig + slen;
 1551              		.loc 1 743 0
 1552 0012 3A68     		ldr	r2, [r7]
 1553 0014 3B6C     		ldr	r3, [r7, #64]
 1554 0016 1344     		add	r3, r3, r2
 1555 0018 3B63     		str	r3, [r7, #48]
 744:C:/Users/dtjld/workspace/AIoT/src/LiteOS_Lab/iot_link/network/dtls/mbedtls/mbedtls-2.16.2/library\ecdsa.c ****     size_t len;
 745:C:/Users/dtjld/workspace/AIoT/src/LiteOS_Lab/iot_link/network/dtls/mbedtls/mbedtls-2.16.2/library\ecdsa.c ****     mbedtls_mpi r, s;
 746:C:/Users/dtjld/workspace/AIoT/src/LiteOS_Lab/iot_link/network/dtls/mbedtls/mbedtls-2.16.2/library\ecdsa.c ****     ECDSA_VALIDATE_RET( ctx  != NULL );
 747:C:/Users/dtjld/workspace/AIoT/src/LiteOS_Lab/iot_link/network/dtls/mbedtls/mbedtls-2.16.2/library\ecdsa.c ****     ECDSA_VALIDATE_RET( hash != NULL );
 748:C:/Users/dtjld/workspace/AIoT/src/LiteOS_Lab/iot_link/network/dtls/mbedtls/mbedtls-2.16.2/library\ecdsa.c ****     ECDSA_VALIDATE_RET( sig  != NULL );
 749:C:/Users/dtjld/workspace/AIoT/src/LiteOS_Lab/iot_link/network/dtls/mbedtls/mbedtls-2.16.2/library\ecdsa.c **** 
 750:C:/Users/dtjld/workspace/AIoT/src/LiteOS_Lab/iot_link/network/dtls/mbedtls/mbedtls-2.16.2/library\ecdsa.c ****     mbedtls_mpi_init( &r );
 1556              		.loc 1 750 0
 1557 001a 07F11C03 		add	r3, r7, #28
 1558 001e 1846     		mov	r0, r3
 1559 0020 FFF7FEFF 		bl	mbedtls_mpi_init
 751:C:/Users/dtjld/workspace/AIoT/src/LiteOS_Lab/iot_link/network/dtls/mbedtls/mbedtls-2.16.2/library\ecdsa.c ****     mbedtls_mpi_init( &s );
 1560              		.loc 1 751 0
 1561 0024 07F11003 		add	r3, r7, #16
 1562 0028 1846     		mov	r0, r3
 1563 002a FFF7FEFF 		bl	mbedtls_mpi_init
 752:C:/Users/dtjld/workspace/AIoT/src/LiteOS_Lab/iot_link/network/dtls/mbedtls/mbedtls-2.16.2/library\ecdsa.c **** 
 753:C:/Users/dtjld/workspace/AIoT/src/LiteOS_Lab/iot_link/network/dtls/mbedtls/mbedtls-2.16.2/library\ecdsa.c ****     if( ( ret = mbedtls_asn1_get_tag( &p, end, &len,
 1564              		.loc 1 753 0
 1565 002e 07F12802 		add	r2, r7, #40
 1566 0032 07F12C00 		add	r0, r7, #44
 1567 0036 3023     		movs	r3, #48
 1568 0038 396B     		ldr	r1, [r7, #48]
 1569 003a FFF7FEFF 		bl	mbedtls_asn1_get_tag
 1570 003e 7863     		str	r0, [r7, #52]
 1571 0040 7B6B     		ldr	r3, [r7, #52]
 1572 0042 002B     		cmp	r3, #0
 1573 0044 04D0     		beq	.L111
 754:C:/Users/dtjld/workspace/AIoT/src/LiteOS_Lab/iot_link/network/dtls/mbedtls/mbedtls-2.16.2/library\ecdsa.c ****                     MBEDTLS_ASN1_CONSTRUCTED | MBEDTLS_ASN1_SEQUENCE ) ) != 0 )
 755:C:/Users/dtjld/workspace/AIoT/src/LiteOS_Lab/iot_link/network/dtls/mbedtls/mbedtls-2.16.2/library\ecdsa.c ****     {
 756:C:/Users/dtjld/workspace/AIoT/src/LiteOS_Lab/iot_link/network/dtls/mbedtls/mbedtls-2.16.2/library\ecdsa.c ****         ret += MBEDTLS_ERR_ECP_BAD_INPUT_DATA;
 1574              		.loc 1 756 0
 1575 0046 7B6B     		ldr	r3, [r7, #52]
 1576 0048 A3F59F43 		sub	r3, r3, #20352
 1577 004c 7B63     		str	r3, [r7, #52]
 757:C:/Users/dtjld/workspace/AIoT/src/LiteOS_Lab/iot_link/network/dtls/mbedtls/mbedtls-2.16.2/library\ecdsa.c ****         goto cleanup;
 1578              		.loc 1 757 0
ARM GAS  C:\Users\dtjld\AppData\Local\Temp\ccFRmaX0.s 			page 42


 1579 004e 44E0     		b	.L112
 1580              	.L111:
 758:C:/Users/dtjld/workspace/AIoT/src/LiteOS_Lab/iot_link/network/dtls/mbedtls/mbedtls-2.16.2/library\ecdsa.c ****     }
 759:C:/Users/dtjld/workspace/AIoT/src/LiteOS_Lab/iot_link/network/dtls/mbedtls/mbedtls-2.16.2/library\ecdsa.c **** 
 760:C:/Users/dtjld/workspace/AIoT/src/LiteOS_Lab/iot_link/network/dtls/mbedtls/mbedtls-2.16.2/library\ecdsa.c ****     if( p + len != end )
 1581              		.loc 1 760 0
 1582 0050 FA6A     		ldr	r2, [r7, #44]
 1583 0052 BB6A     		ldr	r3, [r7, #40]
 1584 0054 1344     		add	r3, r3, r2
 1585 0056 3A6B     		ldr	r2, [r7, #48]
 1586 0058 9A42     		cmp	r2, r3
 1587 005a 02D0     		beq	.L113
 761:C:/Users/dtjld/workspace/AIoT/src/LiteOS_Lab/iot_link/network/dtls/mbedtls/mbedtls-2.16.2/library\ecdsa.c ****     {
 762:C:/Users/dtjld/workspace/AIoT/src/LiteOS_Lab/iot_link/network/dtls/mbedtls/mbedtls-2.16.2/library\ecdsa.c ****         ret = MBEDTLS_ERR_ECP_BAD_INPUT_DATA +
 1588              		.loc 1 762 0
 1589 005c 264B     		ldr	r3, .L120
 1590 005e 7B63     		str	r3, [r7, #52]
 763:C:/Users/dtjld/workspace/AIoT/src/LiteOS_Lab/iot_link/network/dtls/mbedtls/mbedtls-2.16.2/library\ecdsa.c ****               MBEDTLS_ERR_ASN1_LENGTH_MISMATCH;
 764:C:/Users/dtjld/workspace/AIoT/src/LiteOS_Lab/iot_link/network/dtls/mbedtls/mbedtls-2.16.2/library\ecdsa.c ****         goto cleanup;
 1591              		.loc 1 764 0
 1592 0060 3BE0     		b	.L112
 1593              	.L113:
 765:C:/Users/dtjld/workspace/AIoT/src/LiteOS_Lab/iot_link/network/dtls/mbedtls/mbedtls-2.16.2/library\ecdsa.c ****     }
 766:C:/Users/dtjld/workspace/AIoT/src/LiteOS_Lab/iot_link/network/dtls/mbedtls/mbedtls-2.16.2/library\ecdsa.c **** 
 767:C:/Users/dtjld/workspace/AIoT/src/LiteOS_Lab/iot_link/network/dtls/mbedtls/mbedtls-2.16.2/library\ecdsa.c ****     if( ( ret = mbedtls_asn1_get_mpi( &p, end, &r ) ) != 0 ||
 1594              		.loc 1 767 0
 1595 0062 07F11C02 		add	r2, r7, #28
 1596 0066 07F12C03 		add	r3, r7, #44
 1597 006a 396B     		ldr	r1, [r7, #48]
 1598 006c 1846     		mov	r0, r3
 1599 006e FFF7FEFF 		bl	mbedtls_asn1_get_mpi
 1600 0072 7863     		str	r0, [r7, #52]
 1601 0074 7B6B     		ldr	r3, [r7, #52]
 1602 0076 002B     		cmp	r3, #0
 1603 0078 0BD1     		bne	.L114
 1604              		.loc 1 767 0 is_stmt 0 discriminator 1
 1605 007a 07F11002 		add	r2, r7, #16
 1606 007e 07F12C03 		add	r3, r7, #44
 1607 0082 396B     		ldr	r1, [r7, #48]
 1608 0084 1846     		mov	r0, r3
 1609 0086 FFF7FEFF 		bl	mbedtls_asn1_get_mpi
 1610 008a 7863     		str	r0, [r7, #52]
 1611 008c 7B6B     		ldr	r3, [r7, #52]
 1612 008e 002B     		cmp	r3, #0
 1613 0090 04D0     		beq	.L115
 1614              	.L114:
 768:C:/Users/dtjld/workspace/AIoT/src/LiteOS_Lab/iot_link/network/dtls/mbedtls/mbedtls-2.16.2/library\ecdsa.c ****         ( ret = mbedtls_asn1_get_mpi( &p, end, &s ) ) != 0 )
 769:C:/Users/dtjld/workspace/AIoT/src/LiteOS_Lab/iot_link/network/dtls/mbedtls/mbedtls-2.16.2/library\ecdsa.c ****     {
 770:C:/Users/dtjld/workspace/AIoT/src/LiteOS_Lab/iot_link/network/dtls/mbedtls/mbedtls-2.16.2/library\ecdsa.c ****         ret += MBEDTLS_ERR_ECP_BAD_INPUT_DATA;
 1615              		.loc 1 770 0 is_stmt 1
 1616 0092 7B6B     		ldr	r3, [r7, #52]
 1617 0094 A3F59F43 		sub	r3, r3, #20352
 1618 0098 7B63     		str	r3, [r7, #52]
 771:C:/Users/dtjld/workspace/AIoT/src/LiteOS_Lab/iot_link/network/dtls/mbedtls/mbedtls-2.16.2/library\ecdsa.c ****         goto cleanup;
 1619              		.loc 1 771 0
 1620 009a 1EE0     		b	.L112
 1621              	.L115:
ARM GAS  C:\Users\dtjld\AppData\Local\Temp\ccFRmaX0.s 			page 43


 772:C:/Users/dtjld/workspace/AIoT/src/LiteOS_Lab/iot_link/network/dtls/mbedtls/mbedtls-2.16.2/library\ecdsa.c ****     }
 773:C:/Users/dtjld/workspace/AIoT/src/LiteOS_Lab/iot_link/network/dtls/mbedtls/mbedtls-2.16.2/library\ecdsa.c **** #if defined(MBEDTLS_ECDSA_VERIFY_ALT)
 774:C:/Users/dtjld/workspace/AIoT/src/LiteOS_Lab/iot_link/network/dtls/mbedtls/mbedtls-2.16.2/library\ecdsa.c ****     if( ( ret = mbedtls_ecdsa_verify( &ctx->grp, hash, hlen,
 775:C:/Users/dtjld/workspace/AIoT/src/LiteOS_Lab/iot_link/network/dtls/mbedtls/mbedtls-2.16.2/library\ecdsa.c ****                                       &ctx->Q, &r, &s ) ) != 0 )
 776:C:/Users/dtjld/workspace/AIoT/src/LiteOS_Lab/iot_link/network/dtls/mbedtls/mbedtls-2.16.2/library\ecdsa.c ****         goto cleanup;
 777:C:/Users/dtjld/workspace/AIoT/src/LiteOS_Lab/iot_link/network/dtls/mbedtls/mbedtls-2.16.2/library\ecdsa.c **** #else
 778:C:/Users/dtjld/workspace/AIoT/src/LiteOS_Lab/iot_link/network/dtls/mbedtls/mbedtls-2.16.2/library\ecdsa.c ****     if( ( ret = ecdsa_verify_restartable( &ctx->grp, hash, hlen,
 1622              		.loc 1 778 0
 1623 009c F868     		ldr	r0, [r7, #12]
 779:C:/Users/dtjld/workspace/AIoT/src/LiteOS_Lab/iot_link/network/dtls/mbedtls/mbedtls-2.16.2/library\ecdsa.c ****                               &ctx->Q, &r, &s, rs_ctx ) ) != 0 )
 1624              		.loc 1 779 0
 1625 009e FB68     		ldr	r3, [r7, #12]
 1626 00a0 03F18802 		add	r2, r3, #136
 778:C:/Users/dtjld/workspace/AIoT/src/LiteOS_Lab/iot_link/network/dtls/mbedtls/mbedtls-2.16.2/library\ecdsa.c ****                               &ctx->Q, &r, &s, rs_ctx ) ) != 0 )
 1627              		.loc 1 778 0
 1628 00a4 7B6C     		ldr	r3, [r7, #68]
 1629 00a6 0293     		str	r3, [sp, #8]
 1630 00a8 07F11003 		add	r3, r7, #16
 1631 00ac 0193     		str	r3, [sp, #4]
 1632 00ae 07F11C03 		add	r3, r7, #28
 1633 00b2 0093     		str	r3, [sp]
 1634 00b4 1346     		mov	r3, r2
 1635 00b6 7A68     		ldr	r2, [r7, #4]
 1636 00b8 B968     		ldr	r1, [r7, #8]
 1637 00ba FFF7FEFF 		bl	ecdsa_verify_restartable
 1638 00be 7863     		str	r0, [r7, #52]
 1639 00c0 7B6B     		ldr	r3, [r7, #52]
 1640 00c2 002B     		cmp	r3, #0
 1641 00c4 06D1     		bne	.L118
 780:C:/Users/dtjld/workspace/AIoT/src/LiteOS_Lab/iot_link/network/dtls/mbedtls/mbedtls-2.16.2/library\ecdsa.c ****         goto cleanup;
 781:C:/Users/dtjld/workspace/AIoT/src/LiteOS_Lab/iot_link/network/dtls/mbedtls/mbedtls-2.16.2/library\ecdsa.c **** #endif /* MBEDTLS_ECDSA_VERIFY_ALT */
 782:C:/Users/dtjld/workspace/AIoT/src/LiteOS_Lab/iot_link/network/dtls/mbedtls/mbedtls-2.16.2/library\ecdsa.c **** 
 783:C:/Users/dtjld/workspace/AIoT/src/LiteOS_Lab/iot_link/network/dtls/mbedtls/mbedtls-2.16.2/library\ecdsa.c ****     /* At this point we know that the buffer starts with a valid signature.
 784:C:/Users/dtjld/workspace/AIoT/src/LiteOS_Lab/iot_link/network/dtls/mbedtls/mbedtls-2.16.2/library\ecdsa.c ****      * Return 0 if the buffer just contains the signature, and a specific
 785:C:/Users/dtjld/workspace/AIoT/src/LiteOS_Lab/iot_link/network/dtls/mbedtls/mbedtls-2.16.2/library\ecdsa.c ****      * error code if the valid signature is followed by more data. */
 786:C:/Users/dtjld/workspace/AIoT/src/LiteOS_Lab/iot_link/network/dtls/mbedtls/mbedtls-2.16.2/library\ecdsa.c ****     if( p != end )
 1642              		.loc 1 786 0
 1643 00c6 FB6A     		ldr	r3, [r7, #44]
 1644 00c8 3A6B     		ldr	r2, [r7, #48]
 1645 00ca 9A42     		cmp	r2, r3
 1646 00cc 04D0     		beq	.L119
 787:C:/Users/dtjld/workspace/AIoT/src/LiteOS_Lab/iot_link/network/dtls/mbedtls/mbedtls-2.16.2/library\ecdsa.c ****         ret = MBEDTLS_ERR_ECP_SIG_LEN_MISMATCH;
 1647              		.loc 1 787 0
 1648 00ce 0B4B     		ldr	r3, .L120+4
 1649 00d0 7B63     		str	r3, [r7, #52]
 1650 00d2 02E0     		b	.L112
 1651              	.L118:
 780:C:/Users/dtjld/workspace/AIoT/src/LiteOS_Lab/iot_link/network/dtls/mbedtls/mbedtls-2.16.2/library\ecdsa.c ****         goto cleanup;
 1652              		.loc 1 780 0
 1653 00d4 00BF     		nop
 1654 00d6 00E0     		b	.L112
 1655              	.L119:
 788:C:/Users/dtjld/workspace/AIoT/src/LiteOS_Lab/iot_link/network/dtls/mbedtls/mbedtls-2.16.2/library\ecdsa.c **** 
 789:C:/Users/dtjld/workspace/AIoT/src/LiteOS_Lab/iot_link/network/dtls/mbedtls/mbedtls-2.16.2/library\ecdsa.c **** cleanup:
 1656              		.loc 1 789 0
 1657 00d8 00BF     		nop
 1658              	.L112:
ARM GAS  C:\Users\dtjld\AppData\Local\Temp\ccFRmaX0.s 			page 44


 790:C:/Users/dtjld/workspace/AIoT/src/LiteOS_Lab/iot_link/network/dtls/mbedtls/mbedtls-2.16.2/library\ecdsa.c ****     mbedtls_mpi_free( &r );
 1659              		.loc 1 790 0
 1660 00da 07F11C03 		add	r3, r7, #28
 1661 00de 1846     		mov	r0, r3
 1662 00e0 FFF7FEFF 		bl	mbedtls_mpi_free
 791:C:/Users/dtjld/workspace/AIoT/src/LiteOS_Lab/iot_link/network/dtls/mbedtls/mbedtls-2.16.2/library\ecdsa.c ****     mbedtls_mpi_free( &s );
 1663              		.loc 1 791 0
 1664 00e4 07F11003 		add	r3, r7, #16
 1665 00e8 1846     		mov	r0, r3
 1666 00ea FFF7FEFF 		bl	mbedtls_mpi_free
 792:C:/Users/dtjld/workspace/AIoT/src/LiteOS_Lab/iot_link/network/dtls/mbedtls/mbedtls-2.16.2/library\ecdsa.c **** 
 793:C:/Users/dtjld/workspace/AIoT/src/LiteOS_Lab/iot_link/network/dtls/mbedtls/mbedtls-2.16.2/library\ecdsa.c ****     return( ret );
 1667              		.loc 1 793 0
 1668 00ee 7B6B     		ldr	r3, [r7, #52]
 794:C:/Users/dtjld/workspace/AIoT/src/LiteOS_Lab/iot_link/network/dtls/mbedtls/mbedtls-2.16.2/library\ecdsa.c **** }
 1669              		.loc 1 794 0
 1670 00f0 1846     		mov	r0, r3
 1671 00f2 3837     		adds	r7, r7, #56
 1672              	.LCFI63:
 1673              		.cfi_def_cfa_offset 8
 1674 00f4 BD46     		mov	sp, r7
 1675              	.LCFI64:
 1676              		.cfi_def_cfa_register 13
 1677              		@ sp needed
 1678 00f6 80BD     		pop	{r7, pc}
 1679              	.L121:
 1680              		.align	2
 1681              	.L120:
 1682 00f8 1AB0FFFF 		.word	-20454
 1683 00fc 00B4FFFF 		.word	-19456
 1684              		.cfi_endproc
 1685              	.LFE15:
 1687              		.section	.text.mbedtls_ecdsa_genkey,"ax",%progbits
 1688              		.align	1
 1689              		.global	mbedtls_ecdsa_genkey
 1690              		.syntax unified
 1691              		.thumb
 1692              		.thumb_func
 1693              		.fpu fpv4-sp-d16
 1695              	mbedtls_ecdsa_genkey:
 1696              	.LFB16:
 795:C:/Users/dtjld/workspace/AIoT/src/LiteOS_Lab/iot_link/network/dtls/mbedtls/mbedtls-2.16.2/library\ecdsa.c **** 
 796:C:/Users/dtjld/workspace/AIoT/src/LiteOS_Lab/iot_link/network/dtls/mbedtls/mbedtls-2.16.2/library\ecdsa.c **** #if !defined(MBEDTLS_ECDSA_GENKEY_ALT)
 797:C:/Users/dtjld/workspace/AIoT/src/LiteOS_Lab/iot_link/network/dtls/mbedtls/mbedtls-2.16.2/library\ecdsa.c **** /*
 798:C:/Users/dtjld/workspace/AIoT/src/LiteOS_Lab/iot_link/network/dtls/mbedtls/mbedtls-2.16.2/library\ecdsa.c ****  * Generate key pair
 799:C:/Users/dtjld/workspace/AIoT/src/LiteOS_Lab/iot_link/network/dtls/mbedtls/mbedtls-2.16.2/library\ecdsa.c ****  */
 800:C:/Users/dtjld/workspace/AIoT/src/LiteOS_Lab/iot_link/network/dtls/mbedtls/mbedtls-2.16.2/library\ecdsa.c **** int mbedtls_ecdsa_genkey( mbedtls_ecdsa_context *ctx, mbedtls_ecp_group_id gid,
 801:C:/Users/dtjld/workspace/AIoT/src/LiteOS_Lab/iot_link/network/dtls/mbedtls/mbedtls-2.16.2/library\ecdsa.c ****                   int (*f_rng)(void *, unsigned char *, size_t), void *p_rng )
 802:C:/Users/dtjld/workspace/AIoT/src/LiteOS_Lab/iot_link/network/dtls/mbedtls/mbedtls-2.16.2/library\ecdsa.c **** {
 1697              		.loc 1 802 0
 1698              		.cfi_startproc
 1699              		@ args = 0, pretend = 0, frame = 24
 1700              		@ frame_needed = 1, uses_anonymous_args = 0
 1701 0000 80B5     		push	{r7, lr}
 1702              	.LCFI65:
 1703              		.cfi_def_cfa_offset 8
 1704              		.cfi_offset 7, -8
ARM GAS  C:\Users\dtjld\AppData\Local\Temp\ccFRmaX0.s 			page 45


 1705              		.cfi_offset 14, -4
 1706 0002 88B0     		sub	sp, sp, #32
 1707              	.LCFI66:
 1708              		.cfi_def_cfa_offset 40
 1709 0004 02AF     		add	r7, sp, #8
 1710              	.LCFI67:
 1711              		.cfi_def_cfa 7, 32
 1712 0006 F860     		str	r0, [r7, #12]
 1713 0008 7A60     		str	r2, [r7, #4]
 1714 000a 3B60     		str	r3, [r7]
 1715 000c 0B46     		mov	r3, r1
 1716 000e FB72     		strb	r3, [r7, #11]
 803:C:/Users/dtjld/workspace/AIoT/src/LiteOS_Lab/iot_link/network/dtls/mbedtls/mbedtls-2.16.2/library\ecdsa.c ****     int ret = 0;
 1717              		.loc 1 803 0
 1718 0010 0023     		movs	r3, #0
 1719 0012 7B61     		str	r3, [r7, #20]
 804:C:/Users/dtjld/workspace/AIoT/src/LiteOS_Lab/iot_link/network/dtls/mbedtls/mbedtls-2.16.2/library\ecdsa.c ****     ECDSA_VALIDATE_RET( ctx   != NULL );
 805:C:/Users/dtjld/workspace/AIoT/src/LiteOS_Lab/iot_link/network/dtls/mbedtls/mbedtls-2.16.2/library\ecdsa.c ****     ECDSA_VALIDATE_RET( f_rng != NULL );
 806:C:/Users/dtjld/workspace/AIoT/src/LiteOS_Lab/iot_link/network/dtls/mbedtls/mbedtls-2.16.2/library\ecdsa.c **** 
 807:C:/Users/dtjld/workspace/AIoT/src/LiteOS_Lab/iot_link/network/dtls/mbedtls/mbedtls-2.16.2/library\ecdsa.c ****     ret = mbedtls_ecp_group_load( &ctx->grp, gid );
 1720              		.loc 1 807 0
 1721 0014 FB68     		ldr	r3, [r7, #12]
 1722 0016 FA7A     		ldrb	r2, [r7, #11]	@ zero_extendqisi2
 1723 0018 1146     		mov	r1, r2
 1724 001a 1846     		mov	r0, r3
 1725 001c FFF7FEFF 		bl	mbedtls_ecp_group_load
 1726 0020 7861     		str	r0, [r7, #20]
 808:C:/Users/dtjld/workspace/AIoT/src/LiteOS_Lab/iot_link/network/dtls/mbedtls/mbedtls-2.16.2/library\ecdsa.c ****     if( ret != 0 )
 1727              		.loc 1 808 0
 1728 0022 7B69     		ldr	r3, [r7, #20]
 1729 0024 002B     		cmp	r3, #0
 1730 0026 01D0     		beq	.L123
 809:C:/Users/dtjld/workspace/AIoT/src/LiteOS_Lab/iot_link/network/dtls/mbedtls/mbedtls-2.16.2/library\ecdsa.c ****         return( ret );
 1731              		.loc 1 809 0
 1732 0028 7B69     		ldr	r3, [r7, #20]
 1733 002a 0CE0     		b	.L124
 1734              	.L123:
 810:C:/Users/dtjld/workspace/AIoT/src/LiteOS_Lab/iot_link/network/dtls/mbedtls/mbedtls-2.16.2/library\ecdsa.c **** 
 811:C:/Users/dtjld/workspace/AIoT/src/LiteOS_Lab/iot_link/network/dtls/mbedtls/mbedtls-2.16.2/library\ecdsa.c ****    return( mbedtls_ecp_gen_keypair( &ctx->grp, &ctx->d,
 1735              		.loc 1 811 0
 1736 002c F868     		ldr	r0, [r7, #12]
 1737 002e FB68     		ldr	r3, [r7, #12]
 1738 0030 03F17C01 		add	r1, r3, #124
 1739 0034 FB68     		ldr	r3, [r7, #12]
 1740 0036 03F18802 		add	r2, r3, #136
 1741 003a 3B68     		ldr	r3, [r7]
 1742 003c 0093     		str	r3, [sp]
 1743 003e 7B68     		ldr	r3, [r7, #4]
 1744 0040 FFF7FEFF 		bl	mbedtls_ecp_gen_keypair
 1745 0044 0346     		mov	r3, r0
 1746              	.L124:
 812:C:/Users/dtjld/workspace/AIoT/src/LiteOS_Lab/iot_link/network/dtls/mbedtls/mbedtls-2.16.2/library\ecdsa.c ****                                     &ctx->Q, f_rng, p_rng ) );
 813:C:/Users/dtjld/workspace/AIoT/src/LiteOS_Lab/iot_link/network/dtls/mbedtls/mbedtls-2.16.2/library\ecdsa.c **** }
 1747              		.loc 1 813 0
 1748 0046 1846     		mov	r0, r3
 1749 0048 1837     		adds	r7, r7, #24
 1750              	.LCFI68:
ARM GAS  C:\Users\dtjld\AppData\Local\Temp\ccFRmaX0.s 			page 46


 1751              		.cfi_def_cfa_offset 8
 1752 004a BD46     		mov	sp, r7
 1753              	.LCFI69:
 1754              		.cfi_def_cfa_register 13
 1755              		@ sp needed
 1756 004c 80BD     		pop	{r7, pc}
 1757              		.cfi_endproc
 1758              	.LFE16:
 1760              		.section	.text.mbedtls_ecdsa_from_keypair,"ax",%progbits
 1761              		.align	1
 1762              		.global	mbedtls_ecdsa_from_keypair
 1763              		.syntax unified
 1764              		.thumb
 1765              		.thumb_func
 1766              		.fpu fpv4-sp-d16
 1768              	mbedtls_ecdsa_from_keypair:
 1769              	.LFB17:
 814:C:/Users/dtjld/workspace/AIoT/src/LiteOS_Lab/iot_link/network/dtls/mbedtls/mbedtls-2.16.2/library\ecdsa.c **** #endif /* !MBEDTLS_ECDSA_GENKEY_ALT */
 815:C:/Users/dtjld/workspace/AIoT/src/LiteOS_Lab/iot_link/network/dtls/mbedtls/mbedtls-2.16.2/library\ecdsa.c **** 
 816:C:/Users/dtjld/workspace/AIoT/src/LiteOS_Lab/iot_link/network/dtls/mbedtls/mbedtls-2.16.2/library\ecdsa.c **** /*
 817:C:/Users/dtjld/workspace/AIoT/src/LiteOS_Lab/iot_link/network/dtls/mbedtls/mbedtls-2.16.2/library\ecdsa.c ****  * Set context from an mbedtls_ecp_keypair
 818:C:/Users/dtjld/workspace/AIoT/src/LiteOS_Lab/iot_link/network/dtls/mbedtls/mbedtls-2.16.2/library\ecdsa.c ****  */
 819:C:/Users/dtjld/workspace/AIoT/src/LiteOS_Lab/iot_link/network/dtls/mbedtls/mbedtls-2.16.2/library\ecdsa.c **** int mbedtls_ecdsa_from_keypair( mbedtls_ecdsa_context *ctx, const mbedtls_ecp_keypair *key )
 820:C:/Users/dtjld/workspace/AIoT/src/LiteOS_Lab/iot_link/network/dtls/mbedtls/mbedtls-2.16.2/library\ecdsa.c **** {
 1770              		.loc 1 820 0
 1771              		.cfi_startproc
 1772              		@ args = 0, pretend = 0, frame = 16
 1773              		@ frame_needed = 1, uses_anonymous_args = 0
 1774 0000 80B5     		push	{r7, lr}
 1775              	.LCFI70:
 1776              		.cfi_def_cfa_offset 8
 1777              		.cfi_offset 7, -8
 1778              		.cfi_offset 14, -4
 1779 0002 84B0     		sub	sp, sp, #16
 1780              	.LCFI71:
 1781              		.cfi_def_cfa_offset 24
 1782 0004 00AF     		add	r7, sp, #0
 1783              	.LCFI72:
 1784              		.cfi_def_cfa_register 7
 1785 0006 7860     		str	r0, [r7, #4]
 1786 0008 3960     		str	r1, [r7]
 821:C:/Users/dtjld/workspace/AIoT/src/LiteOS_Lab/iot_link/network/dtls/mbedtls/mbedtls-2.16.2/library\ecdsa.c ****     int ret;
 822:C:/Users/dtjld/workspace/AIoT/src/LiteOS_Lab/iot_link/network/dtls/mbedtls/mbedtls-2.16.2/library\ecdsa.c ****     ECDSA_VALIDATE_RET( ctx != NULL );
 823:C:/Users/dtjld/workspace/AIoT/src/LiteOS_Lab/iot_link/network/dtls/mbedtls/mbedtls-2.16.2/library\ecdsa.c ****     ECDSA_VALIDATE_RET( key != NULL );
 824:C:/Users/dtjld/workspace/AIoT/src/LiteOS_Lab/iot_link/network/dtls/mbedtls/mbedtls-2.16.2/library\ecdsa.c **** 
 825:C:/Users/dtjld/workspace/AIoT/src/LiteOS_Lab/iot_link/network/dtls/mbedtls/mbedtls-2.16.2/library\ecdsa.c ****     if( ( ret = mbedtls_ecp_group_copy( &ctx->grp, &key->grp ) ) != 0 ||
 1787              		.loc 1 825 0
 1788 000a 7B68     		ldr	r3, [r7, #4]
 1789 000c 3A68     		ldr	r2, [r7]
 1790 000e 1146     		mov	r1, r2
 1791 0010 1846     		mov	r0, r3
 1792 0012 FFF7FEFF 		bl	mbedtls_ecp_group_copy
 1793 0016 F860     		str	r0, [r7, #12]
 1794 0018 FB68     		ldr	r3, [r7, #12]
 1795 001a 002B     		cmp	r3, #0
 1796 001c 19D1     		bne	.L126
 826:C:/Users/dtjld/workspace/AIoT/src/LiteOS_Lab/iot_link/network/dtls/mbedtls/mbedtls-2.16.2/library\ecdsa.c ****         ( ret = mbedtls_mpi_copy( &ctx->d, &key->d ) ) != 0 ||
ARM GAS  C:\Users\dtjld\AppData\Local\Temp\ccFRmaX0.s 			page 47


 1797              		.loc 1 826 0 discriminator 1
 1798 001e 7B68     		ldr	r3, [r7, #4]
 1799 0020 03F17C02 		add	r2, r3, #124
 1800 0024 3B68     		ldr	r3, [r7]
 1801 0026 7C33     		adds	r3, r3, #124
 825:C:/Users/dtjld/workspace/AIoT/src/LiteOS_Lab/iot_link/network/dtls/mbedtls/mbedtls-2.16.2/library\ecdsa.c ****         ( ret = mbedtls_mpi_copy( &ctx->d, &key->d ) ) != 0 ||
 1802              		.loc 1 825 0 discriminator 1
 1803 0028 1946     		mov	r1, r3
 1804 002a 1046     		mov	r0, r2
 1805 002c FFF7FEFF 		bl	mbedtls_mpi_copy
 1806 0030 F860     		str	r0, [r7, #12]
 1807 0032 FB68     		ldr	r3, [r7, #12]
 1808 0034 002B     		cmp	r3, #0
 1809 0036 0CD1     		bne	.L126
 827:C:/Users/dtjld/workspace/AIoT/src/LiteOS_Lab/iot_link/network/dtls/mbedtls/mbedtls-2.16.2/library\ecdsa.c ****         ( ret = mbedtls_ecp_copy( &ctx->Q, &key->Q ) ) != 0 )
 1810              		.loc 1 827 0
 1811 0038 7B68     		ldr	r3, [r7, #4]
 1812 003a 03F18802 		add	r2, r3, #136
 1813 003e 3B68     		ldr	r3, [r7]
 1814 0040 8833     		adds	r3, r3, #136
 826:C:/Users/dtjld/workspace/AIoT/src/LiteOS_Lab/iot_link/network/dtls/mbedtls/mbedtls-2.16.2/library\ecdsa.c ****         ( ret = mbedtls_mpi_copy( &ctx->d, &key->d ) ) != 0 ||
 1815              		.loc 1 826 0
 1816 0042 1946     		mov	r1, r3
 1817 0044 1046     		mov	r0, r2
 1818 0046 FFF7FEFF 		bl	mbedtls_ecp_copy
 1819 004a F860     		str	r0, [r7, #12]
 1820 004c FB68     		ldr	r3, [r7, #12]
 1821 004e 002B     		cmp	r3, #0
 1822 0050 02D0     		beq	.L127
 1823              	.L126:
 828:C:/Users/dtjld/workspace/AIoT/src/LiteOS_Lab/iot_link/network/dtls/mbedtls/mbedtls-2.16.2/library\ecdsa.c ****     {
 829:C:/Users/dtjld/workspace/AIoT/src/LiteOS_Lab/iot_link/network/dtls/mbedtls/mbedtls-2.16.2/library\ecdsa.c ****         mbedtls_ecdsa_free( ctx );
 1824              		.loc 1 829 0
 1825 0052 7868     		ldr	r0, [r7, #4]
 1826 0054 FFF7FEFF 		bl	mbedtls_ecdsa_free
 1827              	.L127:
 830:C:/Users/dtjld/workspace/AIoT/src/LiteOS_Lab/iot_link/network/dtls/mbedtls/mbedtls-2.16.2/library\ecdsa.c ****     }
 831:C:/Users/dtjld/workspace/AIoT/src/LiteOS_Lab/iot_link/network/dtls/mbedtls/mbedtls-2.16.2/library\ecdsa.c **** 
 832:C:/Users/dtjld/workspace/AIoT/src/LiteOS_Lab/iot_link/network/dtls/mbedtls/mbedtls-2.16.2/library\ecdsa.c ****     return( ret );
 1828              		.loc 1 832 0
 1829 0058 FB68     		ldr	r3, [r7, #12]
 833:C:/Users/dtjld/workspace/AIoT/src/LiteOS_Lab/iot_link/network/dtls/mbedtls/mbedtls-2.16.2/library\ecdsa.c **** }
 1830              		.loc 1 833 0
 1831 005a 1846     		mov	r0, r3
 1832 005c 1037     		adds	r7, r7, #16
 1833              	.LCFI73:
 1834              		.cfi_def_cfa_offset 8
 1835 005e BD46     		mov	sp, r7
 1836              	.LCFI74:
 1837              		.cfi_def_cfa_register 13
 1838              		@ sp needed
 1839 0060 80BD     		pop	{r7, pc}
 1840              		.cfi_endproc
 1841              	.LFE17:
 1843              		.section	.text.mbedtls_ecdsa_init,"ax",%progbits
 1844              		.align	1
 1845              		.global	mbedtls_ecdsa_init
ARM GAS  C:\Users\dtjld\AppData\Local\Temp\ccFRmaX0.s 			page 48


 1846              		.syntax unified
 1847              		.thumb
 1848              		.thumb_func
 1849              		.fpu fpv4-sp-d16
 1851              	mbedtls_ecdsa_init:
 1852              	.LFB18:
 834:C:/Users/dtjld/workspace/AIoT/src/LiteOS_Lab/iot_link/network/dtls/mbedtls/mbedtls-2.16.2/library\ecdsa.c **** 
 835:C:/Users/dtjld/workspace/AIoT/src/LiteOS_Lab/iot_link/network/dtls/mbedtls/mbedtls-2.16.2/library\ecdsa.c **** /*
 836:C:/Users/dtjld/workspace/AIoT/src/LiteOS_Lab/iot_link/network/dtls/mbedtls/mbedtls-2.16.2/library\ecdsa.c ****  * Initialize context
 837:C:/Users/dtjld/workspace/AIoT/src/LiteOS_Lab/iot_link/network/dtls/mbedtls/mbedtls-2.16.2/library\ecdsa.c ****  */
 838:C:/Users/dtjld/workspace/AIoT/src/LiteOS_Lab/iot_link/network/dtls/mbedtls/mbedtls-2.16.2/library\ecdsa.c **** void mbedtls_ecdsa_init( mbedtls_ecdsa_context *ctx )
 839:C:/Users/dtjld/workspace/AIoT/src/LiteOS_Lab/iot_link/network/dtls/mbedtls/mbedtls-2.16.2/library\ecdsa.c **** {
 1853              		.loc 1 839 0
 1854              		.cfi_startproc
 1855              		@ args = 0, pretend = 0, frame = 8
 1856              		@ frame_needed = 1, uses_anonymous_args = 0
 1857 0000 80B5     		push	{r7, lr}
 1858              	.LCFI75:
 1859              		.cfi_def_cfa_offset 8
 1860              		.cfi_offset 7, -8
 1861              		.cfi_offset 14, -4
 1862 0002 82B0     		sub	sp, sp, #8
 1863              	.LCFI76:
 1864              		.cfi_def_cfa_offset 16
 1865 0004 00AF     		add	r7, sp, #0
 1866              	.LCFI77:
 1867              		.cfi_def_cfa_register 7
 1868 0006 7860     		str	r0, [r7, #4]
 840:C:/Users/dtjld/workspace/AIoT/src/LiteOS_Lab/iot_link/network/dtls/mbedtls/mbedtls-2.16.2/library\ecdsa.c ****     ECDSA_VALIDATE( ctx != NULL );
 841:C:/Users/dtjld/workspace/AIoT/src/LiteOS_Lab/iot_link/network/dtls/mbedtls/mbedtls-2.16.2/library\ecdsa.c **** 
 842:C:/Users/dtjld/workspace/AIoT/src/LiteOS_Lab/iot_link/network/dtls/mbedtls/mbedtls-2.16.2/library\ecdsa.c ****     mbedtls_ecp_keypair_init( ctx );
 1869              		.loc 1 842 0
 1870 0008 7868     		ldr	r0, [r7, #4]
 1871 000a FFF7FEFF 		bl	mbedtls_ecp_keypair_init
 843:C:/Users/dtjld/workspace/AIoT/src/LiteOS_Lab/iot_link/network/dtls/mbedtls/mbedtls-2.16.2/library\ecdsa.c **** }
 1872              		.loc 1 843 0
 1873 000e 00BF     		nop
 1874 0010 0837     		adds	r7, r7, #8
 1875              	.LCFI78:
 1876              		.cfi_def_cfa_offset 8
 1877 0012 BD46     		mov	sp, r7
 1878              	.LCFI79:
 1879              		.cfi_def_cfa_register 13
 1880              		@ sp needed
 1881 0014 80BD     		pop	{r7, pc}
 1882              		.cfi_endproc
 1883              	.LFE18:
 1885              		.section	.text.mbedtls_ecdsa_free,"ax",%progbits
 1886              		.align	1
 1887              		.global	mbedtls_ecdsa_free
 1888              		.syntax unified
 1889              		.thumb
 1890              		.thumb_func
 1891              		.fpu fpv4-sp-d16
 1893              	mbedtls_ecdsa_free:
 1894              	.LFB19:
 844:C:/Users/dtjld/workspace/AIoT/src/LiteOS_Lab/iot_link/network/dtls/mbedtls/mbedtls-2.16.2/library\ecdsa.c **** 
ARM GAS  C:\Users\dtjld\AppData\Local\Temp\ccFRmaX0.s 			page 49


 845:C:/Users/dtjld/workspace/AIoT/src/LiteOS_Lab/iot_link/network/dtls/mbedtls/mbedtls-2.16.2/library\ecdsa.c **** /*
 846:C:/Users/dtjld/workspace/AIoT/src/LiteOS_Lab/iot_link/network/dtls/mbedtls/mbedtls-2.16.2/library\ecdsa.c ****  * Free context
 847:C:/Users/dtjld/workspace/AIoT/src/LiteOS_Lab/iot_link/network/dtls/mbedtls/mbedtls-2.16.2/library\ecdsa.c ****  */
 848:C:/Users/dtjld/workspace/AIoT/src/LiteOS_Lab/iot_link/network/dtls/mbedtls/mbedtls-2.16.2/library\ecdsa.c **** void mbedtls_ecdsa_free( mbedtls_ecdsa_context *ctx )
 849:C:/Users/dtjld/workspace/AIoT/src/LiteOS_Lab/iot_link/network/dtls/mbedtls/mbedtls-2.16.2/library\ecdsa.c **** {
 1895              		.loc 1 849 0
 1896              		.cfi_startproc
 1897              		@ args = 0, pretend = 0, frame = 8
 1898              		@ frame_needed = 1, uses_anonymous_args = 0
 1899 0000 80B5     		push	{r7, lr}
 1900              	.LCFI80:
 1901              		.cfi_def_cfa_offset 8
 1902              		.cfi_offset 7, -8
 1903              		.cfi_offset 14, -4
 1904 0002 82B0     		sub	sp, sp, #8
 1905              	.LCFI81:
 1906              		.cfi_def_cfa_offset 16
 1907 0004 00AF     		add	r7, sp, #0
 1908              	.LCFI82:
 1909              		.cfi_def_cfa_register 7
 1910 0006 7860     		str	r0, [r7, #4]
 850:C:/Users/dtjld/workspace/AIoT/src/LiteOS_Lab/iot_link/network/dtls/mbedtls/mbedtls-2.16.2/library\ecdsa.c ****     if( ctx == NULL )
 1911              		.loc 1 850 0
 1912 0008 7B68     		ldr	r3, [r7, #4]
 1913 000a 002B     		cmp	r3, #0
 1914 000c 03D0     		beq	.L133
 851:C:/Users/dtjld/workspace/AIoT/src/LiteOS_Lab/iot_link/network/dtls/mbedtls/mbedtls-2.16.2/library\ecdsa.c ****         return;
 852:C:/Users/dtjld/workspace/AIoT/src/LiteOS_Lab/iot_link/network/dtls/mbedtls/mbedtls-2.16.2/library\ecdsa.c **** 
 853:C:/Users/dtjld/workspace/AIoT/src/LiteOS_Lab/iot_link/network/dtls/mbedtls/mbedtls-2.16.2/library\ecdsa.c ****     mbedtls_ecp_keypair_free( ctx );
 1915              		.loc 1 853 0
 1916 000e 7868     		ldr	r0, [r7, #4]
 1917 0010 FFF7FEFF 		bl	mbedtls_ecp_keypair_free
 1918 0014 00E0     		b	.L130
 1919              	.L133:
 851:C:/Users/dtjld/workspace/AIoT/src/LiteOS_Lab/iot_link/network/dtls/mbedtls/mbedtls-2.16.2/library\ecdsa.c ****         return;
 1920              		.loc 1 851 0
 1921 0016 00BF     		nop
 1922              	.L130:
 854:C:/Users/dtjld/workspace/AIoT/src/LiteOS_Lab/iot_link/network/dtls/mbedtls/mbedtls-2.16.2/library\ecdsa.c **** }
 1923              		.loc 1 854 0
 1924 0018 0837     		adds	r7, r7, #8
 1925              	.LCFI83:
 1926              		.cfi_def_cfa_offset 8
 1927 001a BD46     		mov	sp, r7
 1928              	.LCFI84:
 1929              		.cfi_def_cfa_register 13
 1930              		@ sp needed
 1931 001c 80BD     		pop	{r7, pc}
 1932              		.cfi_endproc
 1933              	.LFE19:
 1935              		.text
 1936              	.Letext0:
 1937              		.file 2 "c:\\ac6\\systemworkbench\\plugins\\fr.ac6.mcu.externaltools.arm-none.win32_1.16.0.2018071
 1938              		.file 3 "c:\\ac6\\systemworkbench\\plugins\\fr.ac6.mcu.externaltools.arm-none.win32_1.16.0.2018071
 1939              		.file 4 "c:\\ac6\\systemworkbench\\plugins\\fr.ac6.mcu.externaltools.arm-none.win32_1.16.0.2018071
 1940              		.file 5 "C:/Users/dtjld/workspace/AIoT/src/LiteOS_Lab/iot_link/network/dtls/mbedtls/mbedtls-2.16.2
 1941              		.file 6 "C:/Users/dtjld/workspace/AIoT/src/LiteOS_Lab/iot_link/network/dtls/mbedtls/mbedtls-2.16.2
ARM GAS  C:\Users\dtjld\AppData\Local\Temp\ccFRmaX0.s 			page 50


 1942              		.file 7 "C:/Users/dtjld/workspace/AIoT/src/LiteOS_Lab/iot_link/network/dtls/mbedtls/mbedtls-2.16.2
 1943              		.file 8 "C:/Users/dtjld/workspace/AIoT/src/LiteOS_Lab/iot_link/network/dtls/mbedtls/mbedtls-2.16.2
 1944              		.file 9 "c:\\ac6\\systemworkbench\\plugins\\fr.ac6.mcu.externaltools.arm-none.win32_1.16.0.2018071
 1945              		.file 10 "c:\\ac6\\systemworkbench\\plugins\\fr.ac6.mcu.externaltools.arm-none.win32_1.16.0.201807
 1946              		.file 11 "c:\\ac6\\systemworkbench\\plugins\\fr.ac6.mcu.externaltools.arm-none.win32_1.16.0.201807
 1947              		.file 12 "C:/Users/dtjld/workspace/AIoT/src/LiteOS_Lab/iot_link/network/dtls/mbedtls/mbedtls-2.16.
 1948              		.file 13 "c:\\ac6\\systemworkbench\\plugins\\fr.ac6.mcu.externaltools.arm-none.win32_1.16.0.201807
 1949              		.file 14 "c:\\ac6\\systemworkbench\\plugins\\fr.ac6.mcu.externaltools.arm-none.win32_1.16.0.201807
 1950              		.file 15 "C:/Users/dtjld/workspace/AIoT/src/LiteOS_Lab/iot_link/network/dtls/mbedtls/mbedtls-2.16.
ARM GAS  C:\Users\dtjld\AppData\Local\Temp\ccFRmaX0.s 			page 51

