ARM GAS  C:\Users\dtjld\AppData\Local\Temp\ccEzFpLd.s 			page 1


   1              		.cpu cortex-m4
   2              		.eabi_attribute 27, 1
   3              		.eabi_attribute 28, 1
   4              		.eabi_attribute 20, 1
   5              		.eabi_attribute 21, 1
   6              		.eabi_attribute 23, 3
   7              		.eabi_attribute 24, 1
   8              		.eabi_attribute 25, 1
   9              		.eabi_attribute 26, 1
  10              		.eabi_attribute 30, 6
  11              		.eabi_attribute 34, 1
  12              		.eabi_attribute 18, 4
  13              		.file	"ecp_curves.c"
  14              		.text
  15              	.Ltext0:
  16              		.cfi_sections	.debug_frame
  17              		.section	.rodata.secp192r1_p,"a",%progbits
  18              		.align	2
  21              	secp192r1_p:
  22 0000 FFFFFFFF 		.word	-1
  23 0004 FFFFFFFF 		.word	-1
  24 0008 FEFFFFFF 		.word	-2
  25 000c FFFFFFFF 		.word	-1
  26 0010 FFFFFFFF 		.word	-1
  27 0014 FFFFFFFF 		.word	-1
  28              		.section	.rodata.secp192r1_b,"a",%progbits
  29              		.align	2
  32              	secp192r1_b:
  33 0000 B1B946C1 		.word	-1052329551
  34 0004 ECDEB8FE 		.word	-21438740
  35 0008 49302472 		.word	1914974281
  36 000c ABE9A70F 		.word	262662571
  37 0010 E7809CE5 		.word	-442728217
  38 0014 19052164 		.word	1679885593
  39              		.section	.rodata.secp192r1_gx,"a",%progbits
  40              		.align	2
  43              	secp192r1_gx:
  44 0000 1210FF82 		.word	-2097213422
  45 0004 FD0AFFF4 		.word	-184612099
  46 0008 0088A143 		.word	1134659584
  47 000c EB20BF7C 		.word	2092900587
  48 0010 F69030B0 		.word	-1338994442
  49 0014 0EA88D18 		.word	411936782
  50              		.section	.rodata.secp192r1_gy,"a",%progbits
  51              		.align	2
  54              	secp192r1_gy:
  55 0000 1148791E 		.word	511264785
  56 0004 A177F973 		.word	1945728929
  57 0008 D5CD246B 		.word	1797574101
  58 000c ED111063 		.word	1661997549
  59 0010 78DAC8FF 		.word	-3614088
  60 0014 952B1907 		.word	119090069
  61              		.section	.rodata.secp192r1_n,"a",%progbits
  62              		.align	2
  65              	secp192r1_n:
  66 0000 3128D2B4 		.word	-1261295567
  67 0004 B1C96B14 		.word	342608305
ARM GAS  C:\Users\dtjld\AppData\Local\Temp\ccEzFpLd.s 			page 2


  68 0008 36F8DE99 		.word	-1713440714
  69 000c FFFFFFFF 		.word	-1
  70 0010 FFFFFFFF 		.word	-1
  71 0014 FFFFFFFF 		.word	-1
  72              		.section	.rodata.secp224r1_p,"a",%progbits
  73              		.align	2
  76              	secp224r1_p:
  77 0000 01000000 		.word	1
  78 0004 00000000 		.word	0
  79 0008 00000000 		.word	0
  80 000c FFFFFFFF 		.word	-1
  81 0010 FFFFFFFF 		.word	-1
  82 0014 FFFFFFFF 		.word	-1
  83 0018 FFFFFFFF 		.word	-1
  84 001c 00000000 		.word	0
  85              		.section	.rodata.secp224r1_b,"a",%progbits
  86              		.align	2
  89              	secp224r1_b:
  90 0000 B4FF5523 		.word	592838580
  91 0004 43390B27 		.word	655046979
  92 0008 BAD8BFD7 		.word	-675292998
  93 000c B7B04450 		.word	1346678967
  94 0010 563241F5 		.word	-180276650
  95 0014 ABB3040C 		.word	201634731
  96 0018 850A05B4 		.word	-1274738043
  97              		.section	.rodata.secp224r1_gx,"a",%progbits
  98              		.align	2
 101              	secp224r1_gx:
 102 0000 211D5C11 		.word	291249441
 103 0004 D6803234 		.word	875725014
 104 0008 2211C256 		.word	1455558946
 105 000c D3C1034A 		.word	1241760211
 106 0010 B9901332 		.word	840143033
 107 0014 7FBFB46B 		.word	1807007615
 108 0018 BD0C0EB7 		.word	-1223816003
 109              		.section	.rodata.secp224r1_gy,"a",%progbits
 110              		.align	2
 113              	secp224r1_gy:
 114 0000 347E0085 		.word	-2063565260
 115 0004 9981D544 		.word	1154843033
 116 0008 6447075A 		.word	1510426468
 117 000c A07543CD 		.word	-851216992
 118 0010 E6DF224C 		.word	1277353958
 119 0014 FB23F7B5 		.word	-1242094597
 120 0018 886337BD 		.word	-1120443512
 121              		.section	.rodata.secp224r1_n,"a",%progbits
 122              		.align	2
 125              	secp224r1_n:
 126 0000 3D2A5C5C 		.word	1549543997
 127 0004 4529DD13 		.word	333261125
 128 0008 3EF0B8E0 		.word	-524750786
 129 000c A216FFFF 		.word	-59742
 130 0010 FFFFFFFF 		.word	-1
 131 0014 FFFFFFFF 		.word	-1
 132 0018 FFFFFFFF 		.word	-1
 133              		.section	.rodata.secp256r1_p,"a",%progbits
 134              		.align	2
ARM GAS  C:\Users\dtjld\AppData\Local\Temp\ccEzFpLd.s 			page 3


 137              	secp256r1_p:
 138 0000 FFFFFFFF 		.word	-1
 139 0004 FFFFFFFF 		.word	-1
 140 0008 FFFFFFFF 		.word	-1
 141 000c 00000000 		.word	0
 142 0010 00000000 		.word	0
 143 0014 00000000 		.word	0
 144 0018 01000000 		.word	1
 145 001c FFFFFFFF 		.word	-1
 146              		.section	.rodata.secp256r1_b,"a",%progbits
 147              		.align	2
 150              	secp256r1_b:
 151 0000 4B60D227 		.word	668098635
 152 0004 3E3CCE3B 		.word	1003371582
 153 0008 F6B053CC 		.word	-866930442
 154 000c B0061D65 		.word	1696401072
 155 0010 BC869876 		.word	1989707452
 156 0014 55BDEBB3 		.word	-1276396203
 157 0018 E7933AAA 		.word	-1439001625
 158 001c D835C65A 		.word	1522939352
 159              		.section	.rodata.secp256r1_gx,"a",%progbits
 160              		.align	2
 163              	secp256r1_gx:
 164 0000 96C298D8 		.word	-661077354
 165 0004 4539A1F4 		.word	-190760635
 166 0008 A033EB2D 		.word	770388896
 167 000c 817D0377 		.word	1996717441
 168 0010 F240A463 		.word	1671708914
 169 0014 E5E6BCF8 		.word	-121837851
 170 0018 47422CE1 		.word	-517193145
 171 001c F2D1176B 		.word	1796723186
 172              		.section	.rodata.secp256r1_gy,"a",%progbits
 173              		.align	2
 176              	secp256r1_gy:
 177 0000 F551BF37 		.word	935285237
 178 0004 6840B6CB 		.word	-877248408
 179 0008 CE5E316B 		.word	1798397646
 180 000c 5733CE2B 		.word	734933847
 181 0010 169E0F7C 		.word	2081398294
 182 0014 4AEBE78E 		.word	-1897403574
 183 0018 9B7F1AFE 		.word	-31817829
 184 001c E242E34F 		.word	1340293858
 185              		.section	.rodata.secp256r1_n,"a",%progbits
 186              		.align	2
 189              	secp256r1_n:
 190 0000 512563FC 		.word	-60611247
 191 0004 C2CAB9F3 		.word	-205927742
 192 0008 849E17A7 		.word	-1491624316
 193 000c ADFAE6BC 		.word	-1125713235
 194 0010 FFFFFFFF 		.word	-1
 195 0014 FFFFFFFF 		.word	-1
 196 0018 00000000 		.word	0
 197 001c FFFFFFFF 		.word	-1
 198              		.section	.rodata.secp384r1_p,"a",%progbits
 199              		.align	2
 202              	secp384r1_p:
 203 0000 FFFFFFFF 		.word	-1
ARM GAS  C:\Users\dtjld\AppData\Local\Temp\ccEzFpLd.s 			page 4


 204 0004 00000000 		.word	0
 205 0008 00000000 		.word	0
 206 000c FFFFFFFF 		.word	-1
 207 0010 FEFFFFFF 		.word	-2
 208 0014 FFFFFFFF 		.word	-1
 209 0018 FFFFFFFF 		.word	-1
 210 001c FFFFFFFF 		.word	-1
 211 0020 FFFFFFFF 		.word	-1
 212 0024 FFFFFFFF 		.word	-1
 213 0028 FFFFFFFF 		.word	-1
 214 002c FFFFFFFF 		.word	-1
 215              		.section	.rodata.secp384r1_b,"a",%progbits
 216              		.align	2
 219              	secp384r1_b:
 220 0000 EF2AECD3 		.word	-739497233
 221 0004 EDC8852A 		.word	713410797
 222 0008 9DD12E8A 		.word	-1976643171
 223 000c 8D3956C6 		.word	-967427699
 224 0010 5A871350 		.word	1343457114
 225 0014 8F081403 		.word	51644559
 226 0018 124181FE 		.word	-25083630
 227 001c 6E9C1D18 		.word	404593774
 228 0020 192DF8E3 		.word	-470274791
 229 0024 6B058E98 		.word	-1735522965
 230 0028 E4E73EE2 		.word	-499193884
 231 002c A72F31B3 		.word	-1288622169
 232              		.section	.rodata.secp384r1_gx,"a",%progbits
 233              		.align	2
 236              	secp384r1_gx:
 237 0000 B70A7672 		.word	1920338615
 238 0004 385E543A 		.word	978607672
 239 0008 6C2955BF 		.word	-1084937876
 240 000c 5DF20255 		.word	1426256477
 241 0010 382A5482 		.word	-2108413384
 242 0014 E041F759 		.word	1509376480
 243 0018 989BA78B 		.word	-1951949928
 244 001c 623B1D6E 		.word	1847409506
 245 0020 74AD20F3 		.word	-215962252
 246 0024 1EC7B18E 		.word	-1900951778
 247 0028 37058BBE 		.word	-1098185417
 248 002c 22CA87AA 		.word	-1433941470
 249              		.section	.rodata.secp384r1_gy,"a",%progbits
 250              		.align	2
 253              	secp384r1_gy:
 254 0000 5F0EEA90 		.word	-1863709089
 255 0004 7C1D437A 		.word	2051218812
 256 0008 9D817E1D 		.word	494829981
 257 000c CEB1600A 		.word	174109134
 258 0010 C0B8F0B5 		.word	-1242515264
 259 0014 1331DAE9 		.word	-371576557
 260 0018 7C149A28 		.word	681186428
 261 001c BD1DF4F8 		.word	-118219331
 262 0020 29DC9292 		.word	-1835869143
 263 0024 BF989E5D 		.word	1570674879
 264 0028 6F2C2696 		.word	-1775883153
 265 002c 4ADE1736 		.word	907533898
 266              		.section	.rodata.secp384r1_n,"a",%progbits
ARM GAS  C:\Users\dtjld\AppData\Local\Temp\ccEzFpLd.s 			page 5


 267              		.align	2
 270              	secp384r1_n:
 271 0000 7329C5CC 		.word	-859494029
 272 0004 6A19ECEC 		.word	-320071318
 273 0008 7AA7B048 		.word	1219536762
 274 000c B20D1A58 		.word	1478102450
 275 0010 DF2D37F4 		.word	-197710369
 276 0014 814D63C7 		.word	-949793407
 277 0018 FFFFFFFF 		.word	-1
 278 001c FFFFFFFF 		.word	-1
 279 0020 FFFFFFFF 		.word	-1
 280 0024 FFFFFFFF 		.word	-1
 281 0028 FFFFFFFF 		.word	-1
 282 002c FFFFFFFF 		.word	-1
 283              		.section	.rodata.secp521r1_p,"a",%progbits
 284              		.align	2
 287              	secp521r1_p:
 288 0000 FFFFFFFF 		.word	-1
 289 0004 FFFFFFFF 		.word	-1
 290 0008 FFFFFFFF 		.word	-1
 291 000c FFFFFFFF 		.word	-1
 292 0010 FFFFFFFF 		.word	-1
 293 0014 FFFFFFFF 		.word	-1
 294 0018 FFFFFFFF 		.word	-1
 295 001c FFFFFFFF 		.word	-1
 296 0020 FFFFFFFF 		.word	-1
 297 0024 FFFFFFFF 		.word	-1
 298 0028 FFFFFFFF 		.word	-1
 299 002c FFFFFFFF 		.word	-1
 300 0030 FFFFFFFF 		.word	-1
 301 0034 FFFFFFFF 		.word	-1
 302 0038 FFFFFFFF 		.word	-1
 303 003c FFFFFFFF 		.word	-1
 304 0040 FF010000 		.word	511
 305              		.section	.rodata.secp521r1_b,"a",%progbits
 306              		.align	2
 309              	secp521r1_b:
 310 0000 003F506B 		.word	1800421120
 311 0004 D41F45EF 		.word	-280682540
 312 0008 F1342C3D 		.word	1026307313
 313 000c 88DF7335 		.word	896786312
 314 0010 07BFB13B 		.word	1001504519
 315 0014 BDC05216 		.word	374522045
 316 0018 7B937EEC 		.word	-327249029
 317 001c 51391956 		.word	1444493649
 318 0020 E109F18E 		.word	-1896805919
 319 0024 9189B4B8 		.word	-1196127855
 320 0028 F315B399 		.word	-1716316685
 321 002c 5B72DAA2 		.word	-1562742181
 322 0030 EE4085B6 		.word	-1232781074
 323 0034 A0219A92 		.word	-1835392608
 324 0038 1F9A1C8E 		.word	-1910728161
 325 003c 61B93E95 		.word	-1791051423
 326 0040 51000000 		.word	81
 327              		.section	.rodata.secp521r1_gx,"a",%progbits
 328              		.align	2
 331              	secp521r1_gx:
ARM GAS  C:\Users\dtjld\AppData\Local\Temp\ccEzFpLd.s 			page 6


 332 0000 66BDE5C2 		.word	-1025131162
 333 0004 317E7EF9 		.word	-109150671
 334 0008 9B426A85 		.word	-2056633701
 335 000c C1B34833 		.word	860402625
 336 0010 DEA8FFA2 		.word	-1560303394
 337 0014 27C11DFE 		.word	-31604441
 338 0018 2859E7EF 		.word	-270051032
 339 001c 775E4BA1 		.word	-1588896137
 340 0020 BA3D4D6B 		.word	1800224186
 341 0024 60AF28F8 		.word	-131551392
 342 0028 21B53F05 		.word	88061217
 343 002c 3981649C 		.word	-1671134919
 344 0030 42B49523 		.word	597013570
 345 0034 66CB3E9E 		.word	-1640051866
 346 0038 CDE90404 		.word	67430861
 347 003c B7068E85 		.word	-2054289737
 348 0040 C6000000 		.word	198
 349              		.section	.rodata.secp521r1_gy,"a",%progbits
 350              		.align	2
 353              	secp521r1_gy:
 354 0000 5066D19F 		.word	-1613666736
 355 0004 7694BE88 		.word	-2000776074
 356 0008 40C272A2 		.word	-1569537472
 357 000c 86703C35 		.word	893153414
 358 0010 6107AD3F 		.word	1068304225
 359 0014 01B950C5 		.word	-984565503
 360 0018 4026F45E 		.word	1593058880
 361 001c 9972EE97 		.word	-1745980775
 362 0020 2C663E27 		.word	658400812
 363 0024 17BDAF17 		.word	397393175
 364 0028 68449B57 		.word	1469793384
 365 002c 4944F598 		.word	-1728756663
 366 0030 D91B7D2C 		.word	746396633
 367 0034 B45F8A5C 		.word	1552572340
 368 0038 04C03B9A 		.word	-1707360252
 369 003c 786A2939 		.word	959015544
 370 0040 18010000 		.word	280
 371              		.section	.rodata.secp521r1_n,"a",%progbits
 372              		.align	2
 375              	secp521r1_n:
 376 0000 09643891 		.word	-1858575351
 377 0004 1EB76FBB 		.word	-1150306530
 378 0008 AE479C89 		.word	-1986246738
 379 000c B8C9B53B 		.word	1001769400
 380 0010 D0A509F7 		.word	-150362672
 381 0014 4801CC7F 		.word	2144076104
 382 0018 6B962FBF 		.word	-1087400341
 383 001c 83878651 		.word	1367771011
 384 0020 FAFFFFFF 		.word	-6
 385 0024 FFFFFFFF 		.word	-1
 386 0028 FFFFFFFF 		.word	-1
 387 002c FFFFFFFF 		.word	-1
 388 0030 FFFFFFFF 		.word	-1
 389 0034 FFFFFFFF 		.word	-1
 390 0038 FFFFFFFF 		.word	-1
 391 003c FFFFFFFF 		.word	-1
 392 0040 FF010000 		.word	511
ARM GAS  C:\Users\dtjld\AppData\Local\Temp\ccEzFpLd.s 			page 7


 393              		.section	.rodata.secp192k1_p,"a",%progbits
 394              		.align	2
 397              	secp192k1_p:
 398 0000 37EEFFFF 		.word	-4553
 399 0004 FEFFFFFF 		.word	-2
 400 0008 FFFFFFFF 		.word	-1
 401 000c FFFFFFFF 		.word	-1
 402 0010 FFFFFFFF 		.word	-1
 403 0014 FFFFFFFF 		.word	-1
 404              		.section	.rodata.secp192k1_a,"a",%progbits
 405              		.align	2
 408              	secp192k1_a:
 409 0000 00000000 		.space	4
 410              		.section	.rodata.secp192k1_b,"a",%progbits
 411              		.align	2
 414              	secp192k1_b:
 415 0000 03000000 		.word	3
 416              		.section	.rodata.secp192k1_gx,"a",%progbits
 417              		.align	2
 420              	secp192k1_gx:
 421 0000 7D6CE0EA 		.word	-354390915
 422 0004 B1D1A51D 		.word	497406385
 423 0008 34F4B780 		.word	-2135428044
 424 000c 027DB026 		.word	649100546
 425 0010 AEE957C0 		.word	-1067980370
 426 0014 0EF14FDB 		.word	-615517938
 427              		.section	.rodata.secp192k1_gy,"a",%progbits
 428              		.align	2
 431              	secp192k1_gy:
 432 0000 9D2F5ED9 		.word	-648138851
 433 0004 88AA8240 		.word	1082305160
 434 0008 3486BE15 		.word	364807732
 435 000c D0634184 		.word	-2076089392
 436 0010 A728569C 		.word	-1672075097
 437 0014 6D2F2F9B 		.word	-1691406483
 438              		.section	.rodata.secp192k1_n,"a",%progbits
 439              		.align	2
 442              	secp192k1_n:
 443 0000 8DFDDE74 		.word	1960770957
 444 0004 6A46690F 		.word	258557546
 445 0008 17FCF226 		.word	653458455
 446 000c FEFFFFFF 		.word	-2
 447 0010 FFFFFFFF 		.word	-1
 448 0014 FFFFFFFF 		.word	-1
 449              		.section	.rodata.secp224k1_p,"a",%progbits
 450              		.align	2
 453              	secp224k1_p:
 454 0000 6DE5FFFF 		.word	-6803
 455 0004 FEFFFFFF 		.word	-2
 456 0008 FFFFFFFF 		.word	-1
 457 000c FFFFFFFF 		.word	-1
 458 0010 FFFFFFFF 		.word	-1
 459 0014 FFFFFFFF 		.word	-1
 460 0018 FFFFFFFF 		.word	-1
 461              		.section	.rodata.secp224k1_a,"a",%progbits
 462              		.align	2
 465              	secp224k1_a:
ARM GAS  C:\Users\dtjld\AppData\Local\Temp\ccEzFpLd.s 			page 8


 466 0000 00000000 		.space	4
 467              		.section	.rodata.secp224k1_b,"a",%progbits
 468              		.align	2
 471              	secp224k1_b:
 472 0000 05000000 		.word	5
 473              		.section	.rodata.secp224k1_gx,"a",%progbits
 474              		.align	2
 477              	secp224k1_gx:
 478 0000 5CA4B7B6 		.word	-1229478820
 479 0004 0E657E0F 		.word	259941646
 480 0008 A97570E4 		.word	-462391895
 481 000c E967A469 		.word	1772382185
 482 0010 A128FC30 		.word	821831841
 483 0014 DF99F04D 		.word	1307613663
 484 0018 335B45A1 		.word	-1589290189
 485              		.section	.rodata.secp224k1_gy,"a",%progbits
 486              		.align	2
 489              	secp224k1_gy:
 490 0000 A5616D55 		.word	1433231781
 491 0004 DB4BCAE2 		.word	-490058789
 492 0008 59BDB0C0 		.word	-1062159015
 493 000c F719E3F7 		.word	-136111625
 494 0010 D6FBCA82 		.word	-2100626474
 495 0014 4234BA7F 		.word	2142909506
 496 0018 ED9F087E 		.word	2114494445
 497              		.section	.rodata.secp224k1_n,"a",%progbits
 498              		.align	2
 501              	secp224k1_n:
 502 0000 F7B19F76 		.word	1990177271
 503 0004 71A9F0CA 		.word	-890197647
 504 0008 8461ECD2 		.word	-756260476
 505 000c E8DC0100 		.word	122088
 506 0010 00000000 		.word	0
 507 0014 00000000 		.word	0
 508 0018 00000000 		.word	0
 509 001c 01000000 		.word	1
 510              		.section	.rodata.secp256k1_p,"a",%progbits
 511              		.align	2
 514              	secp256k1_p:
 515 0000 2FFCFFFF 		.word	-977
 516 0004 FEFFFFFF 		.word	-2
 517 0008 FFFFFFFF 		.word	-1
 518 000c FFFFFFFF 		.word	-1
 519 0010 FFFFFFFF 		.word	-1
 520 0014 FFFFFFFF 		.word	-1
 521 0018 FFFFFFFF 		.word	-1
 522 001c FFFFFFFF 		.word	-1
 523              		.section	.rodata.secp256k1_a,"a",%progbits
 524              		.align	2
 527              	secp256k1_a:
 528 0000 00000000 		.space	4
 529              		.section	.rodata.secp256k1_b,"a",%progbits
 530              		.align	2
 533              	secp256k1_b:
 534 0000 07000000 		.word	7
 535              		.section	.rodata.secp256k1_gx,"a",%progbits
 536              		.align	2
ARM GAS  C:\Users\dtjld\AppData\Local\Temp\ccEzFpLd.s 			page 9


 539              	secp256k1_gx:
 540 0000 9817F816 		.word	385357720
 541 0004 5B81F259 		.word	1509065051
 542 0008 D928CE2D 		.word	768485593
 543 000c DBFC9B02 		.word	43777243
 544 0010 070B87CE 		.word	-830010617
 545 0014 9562A055 		.word	1436574357
 546 0018 ACBBDCF9 		.word	-102974548
 547 001c 7E66BE79 		.word	2042521214
 548              		.section	.rodata.secp256k1_gy,"a",%progbits
 549              		.align	2
 552              	secp256k1_gy:
 553 0000 B8D410FB 		.word	-82783048
 554 0004 8FD0479C 		.word	-1673015153
 555 0008 195485A6 		.word	-1501211623
 556 000c 48B417FD 		.word	-48778168
 557 0010 A808110E 		.word	235997352
 558 0014 FCFBA45D 		.word	1571093500
 559 0018 65C4A326 		.word	648266853
 560 001c 77DA3A48 		.word	1211816567
 561              		.section	.rodata.secp256k1_n,"a",%progbits
 562              		.align	2
 565              	secp256k1_n:
 566 0000 414136D0 		.word	-801750719
 567 0004 8C5ED2BF 		.word	-1076732276
 568 0008 3BA048AF 		.word	-1354194885
 569 000c E6DCAEBA 		.word	-1162945306
 570 0010 FEFFFFFF 		.word	-2
 571 0014 FFFFFFFF 		.word	-1
 572 0018 FFFFFFFF 		.word	-1
 573 001c FFFFFFFF 		.word	-1
 574              		.section	.rodata.brainpoolP256r1_p,"a",%progbits
 575              		.align	2
 578              	brainpoolP256r1_p:
 579 0000 77536E1F 		.word	527324023
 580 0004 1D481320 		.word	538134557
 581 0008 282026D5 		.word	-718921688
 582 000c 23F63B6E 		.word	1849423395
 583 0010 728D839D 		.word	-1652322958
 584 0014 900A663E 		.word	1046874768
 585 0018 BCA9EEA1 		.word	-1578194500
 586 001c DB57FBA9 		.word	-1443145765
 587              		.section	.rodata.brainpoolP256r1_a,"a",%progbits
 588              		.align	2
 591              	brainpoolP256r1_a:
 592 0000 D9B530F3 		.word	-214911527
 593 0004 444B4AE9 		.word	-381007036
 594 0008 6C5CDC26 		.word	651975788
 595 000c C15580FB 		.word	-75475519
 596 0010 E7FF7A41 		.word	1098579943
 597 0014 3075F6EE 		.word	-285838032
 598 0018 57302CFC 		.word	-64212905
 599 001c 75095A7D 		.word	2103052661
 600              		.section	.rodata.brainpoolP256r1_b,"a",%progbits
 601              		.align	2
 604              	brainpoolP256r1_b:
 605 0000 B6078CFF 		.word	-7600202
ARM GAS  C:\Users\dtjld\AppData\Local\Temp\ccEzFpLd.s 			page 10


 606 0004 18DCCC6B 		.word	1808587800
 607 0008 CEE1F75C 		.word	1559749070
 608 000c 29168495 		.word	-1786505687
 609 0010 BF7CD7BB 		.word	-1143505729
 610 0014 D9B530F3 		.word	-214911527
 611 0018 444B4AE9 		.word	-381007036
 612 001c 6C5CDC26 		.word	651975788
 613              		.section	.rodata.brainpoolP256r1_gx,"a",%progbits
 614              		.align	2
 617              	brainpoolP256r1_gx:
 618 0000 6232CE9A 		.word	-1697762718
 619 0004 BD53443A 		.word	977556413
 620 0008 C223BDE3 		.word	-474143806
 621 000c E127DEB9 		.word	-1176623135
 622 0010 AFB781FC 		.word	-58607697
 623 0014 2F484B2C 		.word	743131183
 624 0018 CB577ECB 		.word	-880912437
 625 001c B9AED28B 		.word	-1949126983
 626              		.section	.rodata.brainpoolP256r1_gy,"a",%progbits
 627              		.align	2
 630              	brainpoolP256r1_gy:
 631 0000 9769042F 		.word	788818327
 632 0004 C7541D5C 		.word	1545426119
 633 0008 548EED2D 		.word	770543188
 634 000c 134577C2 		.word	-1032370925
 635 0010 C91D6114 		.word	341908937
 636 0014 1A46F897 		.word	-1745336806
 637 0018 FDC4DAC3 		.word	-1009072899
 638 001c 35F87E54 		.word	1417607221
 639              		.section	.rodata.brainpoolP256r1_n,"a",%progbits
 640              		.align	2
 643              	brainpoolP256r1_n:
 644 0000 A7564897 		.word	-1756866905
 645 0004 820E1E90 		.word	-1877078398
 646 0008 F7A661B5 		.word	-1251891465
 647 000c A37A398C 		.word	-1942390109
 648 0010 718D839D 		.word	-1652322959
 649 0014 900A663E 		.word	1046874768
 650 0018 BCA9EEA1 		.word	-1578194500
 651 001c DB57FBA9 		.word	-1443145765
 652              		.section	.rodata.brainpoolP384r1_p,"a",%progbits
 653              		.align	2
 656              	brainpoolP384r1_p:
 657 0000 53EC0731 		.word	822602835
 658 0004 13004787 		.word	-2025390061
 659 0008 711A1D90 		.word	-1877140879
 660 000c 29A7D3AC 		.word	-1395415255
 661 0010 2311B77F 		.word	2142703907
 662 0014 19DAB112 		.word	313645593
 663 0018 B45654ED 		.word	-313239884
 664 001c 09712F15 		.word	355430665
 665 0020 DF41E650 		.word	1357267423
 666 0024 7E6F5D0F 		.word	257781630
 667 0028 286D38A3 		.word	-1556583128
 668 002c 821EB98C 		.word	-1934025086
 669              		.section	.rodata.brainpoolP384r1_a,"a",%progbits
 670              		.align	2
ARM GAS  C:\Users\dtjld\AppData\Local\Temp\ccEzFpLd.s 			page 11


 673              	brainpoolP384r1_a:
 674 0000 2628CE22 		.word	583936038
 675 0004 DDC7A804 		.word	78170077
 676 0008 EBD43A50 		.word	1346032875
 677 000c 4A81A58A 		.word	-1968864950
 678 0010 0FF991BA 		.word	-1164838641
 679 0014 EF659113 		.word	328295919
 680 0018 8727B24F 		.word	1337075591
 681 001c 8EA2BEC2 		.word	-1027693938
 682 0020 A0AF05CE 		.word	-838488160
 683 0024 0A08723C 		.word	1014106122
 684 0028 0C158C3D 		.word	1032590604
 685 002c C682C37B 		.word	2076410566
 686              		.section	.rodata.brainpoolP384r1_b,"a",%progbits
 687              		.align	2
 690              	brainpoolP384r1_b:
 691 0000 114C50FA 		.word	-95400943
 692 0004 9686B73A 		.word	985106070
 693 0008 94C9DB95 		.word	-1780758124
 694 000c 0239B47C 		.word	2092185858
 695 0010 D562EB3E 		.word	1055613653
 696 0014 A50E882E 		.word	780668581
 697 0018 A6D2DC07 		.word	131912358
 698 001c E17DB72F 		.word	800554465
 699 0020 7C44F016 		.word	384844924
 700 0024 54B5398B 		.word	-1959152300
 701 0028 2628CE22 		.word	583936038
 702 002c DDC7A804 		.word	78170077
 703              		.section	.rodata.brainpoolP384r1_gx,"a",%progbits
 704              		.align	2
 707              	brainpoolP384r1_gx:
 708 0000 1EAFD447 		.word	1205120798
 709 0004 E2B287EF 		.word	-276319518
 710 0008 AA46D636 		.word	920012458
 711 000c 34E026E8 		.word	-400105420
 712 0010 E810BD0C 		.word	213717224
 713 0014 FECA7FDB 		.word	-612381954
 714 0018 E34FF17E 		.word	2129743843
 715 001c E7A34788 		.word	-2008570905
 716 0020 6B3FC1B7 		.word	-1212072085
 717 0024 813AA6A2 		.word	-1566164351
 718 0028 FF45CF68 		.word	1758414335
 719 002c F0641C1D 		.word	488400112
 720              		.section	.rodata.brainpoolP384r1_gy,"a",%progbits
 721              		.align	2
 724              	brainpoolP384r1_gy:
 725 0000 15533C26 		.word	641487637
 726 0004 41038242 		.word	1115816769
 727 0008 11819177 		.word	2006024465
 728 000c 2146460E 		.word	239486497
 729 0010 282991F9 		.word	-107927256
 730 0014 4F059CE1 		.word	-509868721
 731 0018 6458ECFE 		.word	-18065308
 732 001c 290BB762 		.word	1656163113
 733 0020 52D5CF95 		.word	-1781541550
 734 0024 8EEBB15C 		.word	1555164046
 735 0028 A4C2F920 		.word	553239204
ARM GAS  C:\Users\dtjld\AppData\Local\Temp\ccEzFpLd.s 			page 12


 736 002c 751DBE8A 		.word	-1967252107
 737              		.section	.rodata.brainpoolP384r1_n,"a",%progbits
 738              		.align	2
 741              	brainpoolP384r1_n:
 742 0000 656504E9 		.word	-385587867
 743 0004 0232883B 		.word	998781442
 744 0008 10C37F6B 		.word	1803535120
 745 000c AFB63ACF 		.word	-818235729
 746 0010 A72504AC 		.word	-1409014361
 747 0014 6C6E161F 		.word	521563756
 748 0018 B35654ED 		.word	-313239885
 749 001c 09712F15 		.word	355430665
 750 0020 DF41E650 		.word	1357267423
 751 0024 7E6F5D0F 		.word	257781630
 752 0028 286D38A3 		.word	-1556583128
 753 002c 821EB98C 		.word	-1934025086
 754              		.section	.rodata.brainpoolP512r1_p,"a",%progbits
 755              		.align	2
 758              	brainpoolP512r1_p:
 759 0000 F3483A58 		.word	1480214771
 760 0004 5660AA28 		.word	682254422
 761 0008 85C6822D 		.word	763545221
 762 000c 2FFF8128 		.word	679608111
 763 0010 E680A3E6 		.word	-425492250
 764 0014 2AA1CDAE 		.word	-1362255574
 765 0018 4268C69B 		.word	-1681495998
 766 001c 009B4D7D 		.word	2102237952
 767 0020 71083370 		.word	1882392689
 768 0024 CA9C63D6 		.word	-698114870
 769 0028 0ED2C9B3 		.word	-1278619122
 770 002c B38D30CB 		.word	-886010445
 771 0030 07FCC933 		.word	868875271
 772 0034 AEE6D43F 		.word	1070917294
 773 0038 8BC4E9DB 		.word	-605436789
 774 003c B89DDDAA 		.word	-1428316744
 775              		.section	.rodata.brainpoolP512r1_a,"a",%progbits
 776              		.align	2
 779              	brainpoolP512r1_a:
 780 0000 CA94FC77 		.word	2013041866
 781 0004 4DACC1E7 		.word	-406737843
 782 0008 B9C7F22B 		.word	737331129
 783 000c A717117F 		.word	2131826599
 784 0010 B5C89A8B 		.word	-1952790347
 785 0014 C9F12E0A 		.word	170848713
 786 0018 A13A25A8 		.word	-1473955167
 787 001c 5A5DED2D 		.word	770530650
 788 0020 BC6398EA 		.word	-359111748
 789 0024 CA4134A8 		.word	-1472970294
 790 0028 1016F93D 		.word	1039734288
 791 002c 8DDDCB94 		.word	-1798578803
 792 0030 C54C23AC 		.word	-1406972731
 793 0034 457132E2 		.word	-500010683
 794 0038 893B608B 		.word	-1956627575
 795 003c 31A33078 		.word	2016453425
 796              		.section	.rodata.brainpoolP512r1_b,"a",%progbits
 797              		.align	2
 800              	brainpoolP512r1_b:
ARM GAS  C:\Users\dtjld\AppData\Local\Temp\ccEzFpLd.s 			page 13


 801 0000 23F71680 		.word	-2145978589
 802 0004 63BD0928 		.word	671726947
 803 0008 DDE5BA5E 		.word	1589306845
 804 000c B7504098 		.word	-1740615497
 805 0010 673E08DC 		.word	-603439513
 806 0014 CA94FC77 		.word	2013041866
 807 0018 4DACC1E7 		.word	-406737843
 808 001c B9C7F22B 		.word	737331129
 809 0020 A717117F 		.word	2131826599
 810 0024 B5C89A8B 		.word	-1952790347
 811 0028 C9F12E0A 		.word	170848713
 812 002c A13A25A8 		.word	-1473955167
 813 0030 5A5DED2D 		.word	770530650
 814 0034 BC6398EA 		.word	-359111748
 815 0038 CA4134A8 		.word	-1472970294
 816 003c 1016F93D 		.word	1039734288
 817              		.section	.rodata.brainpoolP512r1_gx,"a",%progbits
 818              		.align	2
 821              	brainpoolP512r1_gx:
 822 0000 22F8B9BC 		.word	-1128663006
 823 0004 0922358B 		.word	-1959452151
 824 0008 685E6A40 		.word	1080712808
 825 000c 47506D7C 		.word	2087538759
 826 0010 5F7DB993 		.word	-1816560289
 827 0014 7B68D150 		.word	1355901051
 828 0018 8DD4D0E2 		.word	-489630579
 829 001c 781F3BFF 		.word	-12902536
 830 0020 8E09D0F4 		.word	-187692658
 831 0024 EE623BB4 		.word	-1271176466
 832 0028 C116D9B5 		.word	-1244064063
 833 002c 709FED85 		.word	-2048024720
 834 0030 936A4C9C 		.word	-1672713581
 835 0034 2E32215A 		.word	1512124974
 836 0038 64D92ED8 		.word	-668018332
 837 003c BDE4AE81 		.word	-2119244611
 838              		.section	.rodata.brainpoolP512r1_gy,"a",%progbits
 839              		.align	2
 842              	brainpoolP512r1_gy:
 843 0000 9208D83A 		.word	987236498
 844 0004 0F1ECD78 		.word	2026708495
 845 0008 0654F0A8 		.word	-1460644858
 846 000c 2F2BCAD1 		.word	-775279825
 847 0010 AE63278A 		.word	-1977130066
 848 0014 D84BCA5B 		.word	1539984344
 849 0018 5E485F4A 		.word	1247758430
 850 001c 49DEDCB2 		.word	-1294148023
 851 0020 11811F88 		.word	-2011201263
 852 0024 5BC500A0 		.word	-1610562213
 853 0028 1A7BA524 		.word	614824730
 854 002c 00F709F2 		.word	-234227968
 855 0030 FD2278CF 		.word	-814210307
 856 0034 A9BFEAC0 		.word	-1058357335
 857 0038 EC326356 		.word	1449341676
 858 003c 5D38DE7D 		.word	2111715421
 859              		.section	.rodata.brainpoolP512r1_n,"a",%progbits
 860              		.align	2
 863              	brainpoolP512r1_n:
ARM GAS  C:\Users\dtjld\AppData\Local\Temp\ccEzFpLd.s 			page 14


 864 0000 6900A99C 		.word	-1666645911
 865 0004 829687B5 		.word	-1249405310
 866 0008 DDDA5D08 		.word	140368605
 867 000c 81D3B11D 		.word	498193281
 868 0010 4710AC7F 		.word	2141982791
 869 0014 19618641 		.word	1099325721
 870 0018 1926A94C 		.word	1286153753
 871 001c 415C3E55 		.word	1430150209
 872 0020 70083370 		.word	1882392688
 873 0024 CA9C63D6 		.word	-698114870
 874 0028 0ED2C9B3 		.word	-1278619122
 875 002c B38D30CB 		.word	-886010445
 876 0030 07FCC933 		.word	868875271
 877 0034 AEE6D43F 		.word	1070917294
 878 0038 8BC4E9DB 		.word	-605436789
 879 003c B89DDDAA 		.word	-1428316744
 880              		.section	.text.ecp_mpi_load,"ax",%progbits
 881              		.align	1
 882              		.syntax unified
 883              		.thumb
 884              		.thumb_func
 885              		.fpu fpv4-sp-d16
 887              	ecp_mpi_load:
 888              	.LFB0:
 889              		.file 1 "C:/Users/dtjld/workspace/AIoT/src/LiteOS_Lab/iot_link/network/dtls/mbedtls/mbedtls-2.16.2
   1:C:/Users/dtjld/workspace/AIoT/src/LiteOS_Lab/iot_link/network/dtls/mbedtls/mbedtls-2.16.2/library\ecp_curves.c **** /*
   2:C:/Users/dtjld/workspace/AIoT/src/LiteOS_Lab/iot_link/network/dtls/mbedtls/mbedtls-2.16.2/library\ecp_curves.c ****  *  Elliptic curves over GF(p): curve-specific data and functions
   3:C:/Users/dtjld/workspace/AIoT/src/LiteOS_Lab/iot_link/network/dtls/mbedtls/mbedtls-2.16.2/library\ecp_curves.c ****  *
   4:C:/Users/dtjld/workspace/AIoT/src/LiteOS_Lab/iot_link/network/dtls/mbedtls/mbedtls-2.16.2/library\ecp_curves.c ****  *  Copyright (C) 2006-2015, ARM Limited, All Rights Reserved
   5:C:/Users/dtjld/workspace/AIoT/src/LiteOS_Lab/iot_link/network/dtls/mbedtls/mbedtls-2.16.2/library\ecp_curves.c ****  *  SPDX-License-Identifier: Apache-2.0
   6:C:/Users/dtjld/workspace/AIoT/src/LiteOS_Lab/iot_link/network/dtls/mbedtls/mbedtls-2.16.2/library\ecp_curves.c ****  *
   7:C:/Users/dtjld/workspace/AIoT/src/LiteOS_Lab/iot_link/network/dtls/mbedtls/mbedtls-2.16.2/library\ecp_curves.c ****  *  Licensed under the Apache License, Version 2.0 (the "License"); you may
   8:C:/Users/dtjld/workspace/AIoT/src/LiteOS_Lab/iot_link/network/dtls/mbedtls/mbedtls-2.16.2/library\ecp_curves.c ****  *  not use this file except in compliance with the License.
   9:C:/Users/dtjld/workspace/AIoT/src/LiteOS_Lab/iot_link/network/dtls/mbedtls/mbedtls-2.16.2/library\ecp_curves.c ****  *  You may obtain a copy of the License at
  10:C:/Users/dtjld/workspace/AIoT/src/LiteOS_Lab/iot_link/network/dtls/mbedtls/mbedtls-2.16.2/library\ecp_curves.c ****  *
  11:C:/Users/dtjld/workspace/AIoT/src/LiteOS_Lab/iot_link/network/dtls/mbedtls/mbedtls-2.16.2/library\ecp_curves.c ****  *  http://www.apache.org/licenses/LICENSE-2.0
  12:C:/Users/dtjld/workspace/AIoT/src/LiteOS_Lab/iot_link/network/dtls/mbedtls/mbedtls-2.16.2/library\ecp_curves.c ****  *
  13:C:/Users/dtjld/workspace/AIoT/src/LiteOS_Lab/iot_link/network/dtls/mbedtls/mbedtls-2.16.2/library\ecp_curves.c ****  *  Unless required by applicable law or agreed to in writing, software
  14:C:/Users/dtjld/workspace/AIoT/src/LiteOS_Lab/iot_link/network/dtls/mbedtls/mbedtls-2.16.2/library\ecp_curves.c ****  *  distributed under the License is distributed on an "AS IS" BASIS, WITHOUT
  15:C:/Users/dtjld/workspace/AIoT/src/LiteOS_Lab/iot_link/network/dtls/mbedtls/mbedtls-2.16.2/library\ecp_curves.c ****  *  WARRANTIES OR CONDITIONS OF ANY KIND, either express or implied.
  16:C:/Users/dtjld/workspace/AIoT/src/LiteOS_Lab/iot_link/network/dtls/mbedtls/mbedtls-2.16.2/library\ecp_curves.c ****  *  See the License for the specific language governing permissions and
  17:C:/Users/dtjld/workspace/AIoT/src/LiteOS_Lab/iot_link/network/dtls/mbedtls/mbedtls-2.16.2/library\ecp_curves.c ****  *  limitations under the License.
  18:C:/Users/dtjld/workspace/AIoT/src/LiteOS_Lab/iot_link/network/dtls/mbedtls/mbedtls-2.16.2/library\ecp_curves.c ****  *
  19:C:/Users/dtjld/workspace/AIoT/src/LiteOS_Lab/iot_link/network/dtls/mbedtls/mbedtls-2.16.2/library\ecp_curves.c ****  *  This file is part of mbed TLS (https://tls.mbed.org)
  20:C:/Users/dtjld/workspace/AIoT/src/LiteOS_Lab/iot_link/network/dtls/mbedtls/mbedtls-2.16.2/library\ecp_curves.c ****  */
  21:C:/Users/dtjld/workspace/AIoT/src/LiteOS_Lab/iot_link/network/dtls/mbedtls/mbedtls-2.16.2/library\ecp_curves.c **** 
  22:C:/Users/dtjld/workspace/AIoT/src/LiteOS_Lab/iot_link/network/dtls/mbedtls/mbedtls-2.16.2/library\ecp_curves.c **** #if !defined(MBEDTLS_CONFIG_FILE)
  23:C:/Users/dtjld/workspace/AIoT/src/LiteOS_Lab/iot_link/network/dtls/mbedtls/mbedtls-2.16.2/library\ecp_curves.c **** #include "mbedtls/config.h"
  24:C:/Users/dtjld/workspace/AIoT/src/LiteOS_Lab/iot_link/network/dtls/mbedtls/mbedtls-2.16.2/library\ecp_curves.c **** #else
  25:C:/Users/dtjld/workspace/AIoT/src/LiteOS_Lab/iot_link/network/dtls/mbedtls/mbedtls-2.16.2/library\ecp_curves.c **** #include MBEDTLS_CONFIG_FILE
  26:C:/Users/dtjld/workspace/AIoT/src/LiteOS_Lab/iot_link/network/dtls/mbedtls/mbedtls-2.16.2/library\ecp_curves.c **** #endif
  27:C:/Users/dtjld/workspace/AIoT/src/LiteOS_Lab/iot_link/network/dtls/mbedtls/mbedtls-2.16.2/library\ecp_curves.c **** 
  28:C:/Users/dtjld/workspace/AIoT/src/LiteOS_Lab/iot_link/network/dtls/mbedtls/mbedtls-2.16.2/library\ecp_curves.c **** #if defined(MBEDTLS_ECP_C)
  29:C:/Users/dtjld/workspace/AIoT/src/LiteOS_Lab/iot_link/network/dtls/mbedtls/mbedtls-2.16.2/library\ecp_curves.c **** 
  30:C:/Users/dtjld/workspace/AIoT/src/LiteOS_Lab/iot_link/network/dtls/mbedtls/mbedtls-2.16.2/library\ecp_curves.c **** #include "mbedtls/ecp.h"
  31:C:/Users/dtjld/workspace/AIoT/src/LiteOS_Lab/iot_link/network/dtls/mbedtls/mbedtls-2.16.2/library\ecp_curves.c **** #include "mbedtls/platform_util.h"
  32:C:/Users/dtjld/workspace/AIoT/src/LiteOS_Lab/iot_link/network/dtls/mbedtls/mbedtls-2.16.2/library\ecp_curves.c **** 
ARM GAS  C:\Users\dtjld\AppData\Local\Temp\ccEzFpLd.s 			page 15


  33:C:/Users/dtjld/workspace/AIoT/src/LiteOS_Lab/iot_link/network/dtls/mbedtls/mbedtls-2.16.2/library\ecp_curves.c **** #include <string.h>
  34:C:/Users/dtjld/workspace/AIoT/src/LiteOS_Lab/iot_link/network/dtls/mbedtls/mbedtls-2.16.2/library\ecp_curves.c **** 
  35:C:/Users/dtjld/workspace/AIoT/src/LiteOS_Lab/iot_link/network/dtls/mbedtls/mbedtls-2.16.2/library\ecp_curves.c **** #if !defined(MBEDTLS_ECP_ALT)
  36:C:/Users/dtjld/workspace/AIoT/src/LiteOS_Lab/iot_link/network/dtls/mbedtls/mbedtls-2.16.2/library\ecp_curves.c **** 
  37:C:/Users/dtjld/workspace/AIoT/src/LiteOS_Lab/iot_link/network/dtls/mbedtls/mbedtls-2.16.2/library\ecp_curves.c **** /* Parameter validation macros based on platform_util.h */
  38:C:/Users/dtjld/workspace/AIoT/src/LiteOS_Lab/iot_link/network/dtls/mbedtls/mbedtls-2.16.2/library\ecp_curves.c **** #define ECP_VALIDATE_RET( cond )    \
  39:C:/Users/dtjld/workspace/AIoT/src/LiteOS_Lab/iot_link/network/dtls/mbedtls/mbedtls-2.16.2/library\ecp_curves.c ****     MBEDTLS_INTERNAL_VALIDATE_RET( cond, MBEDTLS_ERR_ECP_BAD_INPUT_DATA )
  40:C:/Users/dtjld/workspace/AIoT/src/LiteOS_Lab/iot_link/network/dtls/mbedtls/mbedtls-2.16.2/library\ecp_curves.c **** #define ECP_VALIDATE( cond )        \
  41:C:/Users/dtjld/workspace/AIoT/src/LiteOS_Lab/iot_link/network/dtls/mbedtls/mbedtls-2.16.2/library\ecp_curves.c ****     MBEDTLS_INTERNAL_VALIDATE( cond )
  42:C:/Users/dtjld/workspace/AIoT/src/LiteOS_Lab/iot_link/network/dtls/mbedtls/mbedtls-2.16.2/library\ecp_curves.c **** 
  43:C:/Users/dtjld/workspace/AIoT/src/LiteOS_Lab/iot_link/network/dtls/mbedtls/mbedtls-2.16.2/library\ecp_curves.c **** #if ( defined(__ARMCC_VERSION) || defined(_MSC_VER) ) && \
  44:C:/Users/dtjld/workspace/AIoT/src/LiteOS_Lab/iot_link/network/dtls/mbedtls/mbedtls-2.16.2/library\ecp_curves.c ****     !defined(inline) && !defined(__cplusplus)
  45:C:/Users/dtjld/workspace/AIoT/src/LiteOS_Lab/iot_link/network/dtls/mbedtls/mbedtls-2.16.2/library\ecp_curves.c **** #define inline __inline
  46:C:/Users/dtjld/workspace/AIoT/src/LiteOS_Lab/iot_link/network/dtls/mbedtls/mbedtls-2.16.2/library\ecp_curves.c **** #endif
  47:C:/Users/dtjld/workspace/AIoT/src/LiteOS_Lab/iot_link/network/dtls/mbedtls/mbedtls-2.16.2/library\ecp_curves.c **** 
  48:C:/Users/dtjld/workspace/AIoT/src/LiteOS_Lab/iot_link/network/dtls/mbedtls/mbedtls-2.16.2/library\ecp_curves.c **** /*
  49:C:/Users/dtjld/workspace/AIoT/src/LiteOS_Lab/iot_link/network/dtls/mbedtls/mbedtls-2.16.2/library\ecp_curves.c ****  * Conversion macros for embedded constants:
  50:C:/Users/dtjld/workspace/AIoT/src/LiteOS_Lab/iot_link/network/dtls/mbedtls/mbedtls-2.16.2/library\ecp_curves.c ****  * build lists of mbedtls_mpi_uint's from lists of unsigned char's grouped by 8, 4 or 2
  51:C:/Users/dtjld/workspace/AIoT/src/LiteOS_Lab/iot_link/network/dtls/mbedtls/mbedtls-2.16.2/library\ecp_curves.c ****  */
  52:C:/Users/dtjld/workspace/AIoT/src/LiteOS_Lab/iot_link/network/dtls/mbedtls/mbedtls-2.16.2/library\ecp_curves.c **** #if defined(MBEDTLS_HAVE_INT32)
  53:C:/Users/dtjld/workspace/AIoT/src/LiteOS_Lab/iot_link/network/dtls/mbedtls/mbedtls-2.16.2/library\ecp_curves.c **** 
  54:C:/Users/dtjld/workspace/AIoT/src/LiteOS_Lab/iot_link/network/dtls/mbedtls/mbedtls-2.16.2/library\ecp_curves.c **** #define BYTES_TO_T_UINT_4( a, b, c, d )                       \
  55:C:/Users/dtjld/workspace/AIoT/src/LiteOS_Lab/iot_link/network/dtls/mbedtls/mbedtls-2.16.2/library\ecp_curves.c ****     ( (mbedtls_mpi_uint) (a) <<  0 ) |                        \
  56:C:/Users/dtjld/workspace/AIoT/src/LiteOS_Lab/iot_link/network/dtls/mbedtls/mbedtls-2.16.2/library\ecp_curves.c ****     ( (mbedtls_mpi_uint) (b) <<  8 ) |                        \
  57:C:/Users/dtjld/workspace/AIoT/src/LiteOS_Lab/iot_link/network/dtls/mbedtls/mbedtls-2.16.2/library\ecp_curves.c ****     ( (mbedtls_mpi_uint) (c) << 16 ) |                        \
  58:C:/Users/dtjld/workspace/AIoT/src/LiteOS_Lab/iot_link/network/dtls/mbedtls/mbedtls-2.16.2/library\ecp_curves.c ****     ( (mbedtls_mpi_uint) (d) << 24 )
  59:C:/Users/dtjld/workspace/AIoT/src/LiteOS_Lab/iot_link/network/dtls/mbedtls/mbedtls-2.16.2/library\ecp_curves.c **** 
  60:C:/Users/dtjld/workspace/AIoT/src/LiteOS_Lab/iot_link/network/dtls/mbedtls/mbedtls-2.16.2/library\ecp_curves.c **** #define BYTES_TO_T_UINT_2( a, b )                   \
  61:C:/Users/dtjld/workspace/AIoT/src/LiteOS_Lab/iot_link/network/dtls/mbedtls/mbedtls-2.16.2/library\ecp_curves.c ****     BYTES_TO_T_UINT_4( a, b, 0, 0 )
  62:C:/Users/dtjld/workspace/AIoT/src/LiteOS_Lab/iot_link/network/dtls/mbedtls/mbedtls-2.16.2/library\ecp_curves.c **** 
  63:C:/Users/dtjld/workspace/AIoT/src/LiteOS_Lab/iot_link/network/dtls/mbedtls/mbedtls-2.16.2/library\ecp_curves.c **** #define BYTES_TO_T_UINT_8( a, b, c, d, e, f, g, h ) \
  64:C:/Users/dtjld/workspace/AIoT/src/LiteOS_Lab/iot_link/network/dtls/mbedtls/mbedtls-2.16.2/library\ecp_curves.c ****     BYTES_TO_T_UINT_4( a, b, c, d ),                \
  65:C:/Users/dtjld/workspace/AIoT/src/LiteOS_Lab/iot_link/network/dtls/mbedtls/mbedtls-2.16.2/library\ecp_curves.c ****     BYTES_TO_T_UINT_4( e, f, g, h )
  66:C:/Users/dtjld/workspace/AIoT/src/LiteOS_Lab/iot_link/network/dtls/mbedtls/mbedtls-2.16.2/library\ecp_curves.c **** 
  67:C:/Users/dtjld/workspace/AIoT/src/LiteOS_Lab/iot_link/network/dtls/mbedtls/mbedtls-2.16.2/library\ecp_curves.c **** #else /* 64-bits */
  68:C:/Users/dtjld/workspace/AIoT/src/LiteOS_Lab/iot_link/network/dtls/mbedtls/mbedtls-2.16.2/library\ecp_curves.c **** 
  69:C:/Users/dtjld/workspace/AIoT/src/LiteOS_Lab/iot_link/network/dtls/mbedtls/mbedtls-2.16.2/library\ecp_curves.c **** #define BYTES_TO_T_UINT_8( a, b, c, d, e, f, g, h ) \
  70:C:/Users/dtjld/workspace/AIoT/src/LiteOS_Lab/iot_link/network/dtls/mbedtls/mbedtls-2.16.2/library\ecp_curves.c ****     ( (mbedtls_mpi_uint) (a) <<  0 ) |                        \
  71:C:/Users/dtjld/workspace/AIoT/src/LiteOS_Lab/iot_link/network/dtls/mbedtls/mbedtls-2.16.2/library\ecp_curves.c ****     ( (mbedtls_mpi_uint) (b) <<  8 ) |                        \
  72:C:/Users/dtjld/workspace/AIoT/src/LiteOS_Lab/iot_link/network/dtls/mbedtls/mbedtls-2.16.2/library\ecp_curves.c ****     ( (mbedtls_mpi_uint) (c) << 16 ) |                        \
  73:C:/Users/dtjld/workspace/AIoT/src/LiteOS_Lab/iot_link/network/dtls/mbedtls/mbedtls-2.16.2/library\ecp_curves.c ****     ( (mbedtls_mpi_uint) (d) << 24 ) |                        \
  74:C:/Users/dtjld/workspace/AIoT/src/LiteOS_Lab/iot_link/network/dtls/mbedtls/mbedtls-2.16.2/library\ecp_curves.c ****     ( (mbedtls_mpi_uint) (e) << 32 ) |                        \
  75:C:/Users/dtjld/workspace/AIoT/src/LiteOS_Lab/iot_link/network/dtls/mbedtls/mbedtls-2.16.2/library\ecp_curves.c ****     ( (mbedtls_mpi_uint) (f) << 40 ) |                        \
  76:C:/Users/dtjld/workspace/AIoT/src/LiteOS_Lab/iot_link/network/dtls/mbedtls/mbedtls-2.16.2/library\ecp_curves.c ****     ( (mbedtls_mpi_uint) (g) << 48 ) |                        \
  77:C:/Users/dtjld/workspace/AIoT/src/LiteOS_Lab/iot_link/network/dtls/mbedtls/mbedtls-2.16.2/library\ecp_curves.c ****     ( (mbedtls_mpi_uint) (h) << 56 )
  78:C:/Users/dtjld/workspace/AIoT/src/LiteOS_Lab/iot_link/network/dtls/mbedtls/mbedtls-2.16.2/library\ecp_curves.c **** 
  79:C:/Users/dtjld/workspace/AIoT/src/LiteOS_Lab/iot_link/network/dtls/mbedtls/mbedtls-2.16.2/library\ecp_curves.c **** #define BYTES_TO_T_UINT_4( a, b, c, d )             \
  80:C:/Users/dtjld/workspace/AIoT/src/LiteOS_Lab/iot_link/network/dtls/mbedtls/mbedtls-2.16.2/library\ecp_curves.c ****     BYTES_TO_T_UINT_8( a, b, c, d, 0, 0, 0, 0 )
  81:C:/Users/dtjld/workspace/AIoT/src/LiteOS_Lab/iot_link/network/dtls/mbedtls/mbedtls-2.16.2/library\ecp_curves.c **** 
  82:C:/Users/dtjld/workspace/AIoT/src/LiteOS_Lab/iot_link/network/dtls/mbedtls/mbedtls-2.16.2/library\ecp_curves.c **** #define BYTES_TO_T_UINT_2( a, b )                   \
  83:C:/Users/dtjld/workspace/AIoT/src/LiteOS_Lab/iot_link/network/dtls/mbedtls/mbedtls-2.16.2/library\ecp_curves.c ****     BYTES_TO_T_UINT_8( a, b, 0, 0, 0, 0, 0, 0 )
  84:C:/Users/dtjld/workspace/AIoT/src/LiteOS_Lab/iot_link/network/dtls/mbedtls/mbedtls-2.16.2/library\ecp_curves.c **** 
  85:C:/Users/dtjld/workspace/AIoT/src/LiteOS_Lab/iot_link/network/dtls/mbedtls/mbedtls-2.16.2/library\ecp_curves.c **** #endif /* bits in mbedtls_mpi_uint */
  86:C:/Users/dtjld/workspace/AIoT/src/LiteOS_Lab/iot_link/network/dtls/mbedtls/mbedtls-2.16.2/library\ecp_curves.c **** 
  87:C:/Users/dtjld/workspace/AIoT/src/LiteOS_Lab/iot_link/network/dtls/mbedtls/mbedtls-2.16.2/library\ecp_curves.c **** /*
  88:C:/Users/dtjld/workspace/AIoT/src/LiteOS_Lab/iot_link/network/dtls/mbedtls/mbedtls-2.16.2/library\ecp_curves.c ****  * Note: the constants are in little-endian order
  89:C:/Users/dtjld/workspace/AIoT/src/LiteOS_Lab/iot_link/network/dtls/mbedtls/mbedtls-2.16.2/library\ecp_curves.c ****  * to be directly usable in MPIs
ARM GAS  C:\Users\dtjld\AppData\Local\Temp\ccEzFpLd.s 			page 16


  90:C:/Users/dtjld/workspace/AIoT/src/LiteOS_Lab/iot_link/network/dtls/mbedtls/mbedtls-2.16.2/library\ecp_curves.c ****  */
  91:C:/Users/dtjld/workspace/AIoT/src/LiteOS_Lab/iot_link/network/dtls/mbedtls/mbedtls-2.16.2/library\ecp_curves.c **** 
  92:C:/Users/dtjld/workspace/AIoT/src/LiteOS_Lab/iot_link/network/dtls/mbedtls/mbedtls-2.16.2/library\ecp_curves.c **** /*
  93:C:/Users/dtjld/workspace/AIoT/src/LiteOS_Lab/iot_link/network/dtls/mbedtls/mbedtls-2.16.2/library\ecp_curves.c ****  * Domain parameters for secp192r1
  94:C:/Users/dtjld/workspace/AIoT/src/LiteOS_Lab/iot_link/network/dtls/mbedtls/mbedtls-2.16.2/library\ecp_curves.c ****  */
  95:C:/Users/dtjld/workspace/AIoT/src/LiteOS_Lab/iot_link/network/dtls/mbedtls/mbedtls-2.16.2/library\ecp_curves.c **** #if defined(MBEDTLS_ECP_DP_SECP192R1_ENABLED)
  96:C:/Users/dtjld/workspace/AIoT/src/LiteOS_Lab/iot_link/network/dtls/mbedtls/mbedtls-2.16.2/library\ecp_curves.c **** static const mbedtls_mpi_uint secp192r1_p[] = {
  97:C:/Users/dtjld/workspace/AIoT/src/LiteOS_Lab/iot_link/network/dtls/mbedtls/mbedtls-2.16.2/library\ecp_curves.c ****     BYTES_TO_T_UINT_8( 0xFF, 0xFF, 0xFF, 0xFF, 0xFF, 0xFF, 0xFF, 0xFF ),
  98:C:/Users/dtjld/workspace/AIoT/src/LiteOS_Lab/iot_link/network/dtls/mbedtls/mbedtls-2.16.2/library\ecp_curves.c ****     BYTES_TO_T_UINT_8( 0xFE, 0xFF, 0xFF, 0xFF, 0xFF, 0xFF, 0xFF, 0xFF ),
  99:C:/Users/dtjld/workspace/AIoT/src/LiteOS_Lab/iot_link/network/dtls/mbedtls/mbedtls-2.16.2/library\ecp_curves.c ****     BYTES_TO_T_UINT_8( 0xFF, 0xFF, 0xFF, 0xFF, 0xFF, 0xFF, 0xFF, 0xFF ),
 100:C:/Users/dtjld/workspace/AIoT/src/LiteOS_Lab/iot_link/network/dtls/mbedtls/mbedtls-2.16.2/library\ecp_curves.c **** };
 101:C:/Users/dtjld/workspace/AIoT/src/LiteOS_Lab/iot_link/network/dtls/mbedtls/mbedtls-2.16.2/library\ecp_curves.c **** static const mbedtls_mpi_uint secp192r1_b[] = {
 102:C:/Users/dtjld/workspace/AIoT/src/LiteOS_Lab/iot_link/network/dtls/mbedtls/mbedtls-2.16.2/library\ecp_curves.c ****     BYTES_TO_T_UINT_8( 0xB1, 0xB9, 0x46, 0xC1, 0xEC, 0xDE, 0xB8, 0xFE ),
 103:C:/Users/dtjld/workspace/AIoT/src/LiteOS_Lab/iot_link/network/dtls/mbedtls/mbedtls-2.16.2/library\ecp_curves.c ****     BYTES_TO_T_UINT_8( 0x49, 0x30, 0x24, 0x72, 0xAB, 0xE9, 0xA7, 0x0F ),
 104:C:/Users/dtjld/workspace/AIoT/src/LiteOS_Lab/iot_link/network/dtls/mbedtls/mbedtls-2.16.2/library\ecp_curves.c ****     BYTES_TO_T_UINT_8( 0xE7, 0x80, 0x9C, 0xE5, 0x19, 0x05, 0x21, 0x64 ),
 105:C:/Users/dtjld/workspace/AIoT/src/LiteOS_Lab/iot_link/network/dtls/mbedtls/mbedtls-2.16.2/library\ecp_curves.c **** };
 106:C:/Users/dtjld/workspace/AIoT/src/LiteOS_Lab/iot_link/network/dtls/mbedtls/mbedtls-2.16.2/library\ecp_curves.c **** static const mbedtls_mpi_uint secp192r1_gx[] = {
 107:C:/Users/dtjld/workspace/AIoT/src/LiteOS_Lab/iot_link/network/dtls/mbedtls/mbedtls-2.16.2/library\ecp_curves.c ****     BYTES_TO_T_UINT_8( 0x12, 0x10, 0xFF, 0x82, 0xFD, 0x0A, 0xFF, 0xF4 ),
 108:C:/Users/dtjld/workspace/AIoT/src/LiteOS_Lab/iot_link/network/dtls/mbedtls/mbedtls-2.16.2/library\ecp_curves.c ****     BYTES_TO_T_UINT_8( 0x00, 0x88, 0xA1, 0x43, 0xEB, 0x20, 0xBF, 0x7C ),
 109:C:/Users/dtjld/workspace/AIoT/src/LiteOS_Lab/iot_link/network/dtls/mbedtls/mbedtls-2.16.2/library\ecp_curves.c ****     BYTES_TO_T_UINT_8( 0xF6, 0x90, 0x30, 0xB0, 0x0E, 0xA8, 0x8D, 0x18 ),
 110:C:/Users/dtjld/workspace/AIoT/src/LiteOS_Lab/iot_link/network/dtls/mbedtls/mbedtls-2.16.2/library\ecp_curves.c **** };
 111:C:/Users/dtjld/workspace/AIoT/src/LiteOS_Lab/iot_link/network/dtls/mbedtls/mbedtls-2.16.2/library\ecp_curves.c **** static const mbedtls_mpi_uint secp192r1_gy[] = {
 112:C:/Users/dtjld/workspace/AIoT/src/LiteOS_Lab/iot_link/network/dtls/mbedtls/mbedtls-2.16.2/library\ecp_curves.c ****     BYTES_TO_T_UINT_8( 0x11, 0x48, 0x79, 0x1E, 0xA1, 0x77, 0xF9, 0x73 ),
 113:C:/Users/dtjld/workspace/AIoT/src/LiteOS_Lab/iot_link/network/dtls/mbedtls/mbedtls-2.16.2/library\ecp_curves.c ****     BYTES_TO_T_UINT_8( 0xD5, 0xCD, 0x24, 0x6B, 0xED, 0x11, 0x10, 0x63 ),
 114:C:/Users/dtjld/workspace/AIoT/src/LiteOS_Lab/iot_link/network/dtls/mbedtls/mbedtls-2.16.2/library\ecp_curves.c ****     BYTES_TO_T_UINT_8( 0x78, 0xDA, 0xC8, 0xFF, 0x95, 0x2B, 0x19, 0x07 ),
 115:C:/Users/dtjld/workspace/AIoT/src/LiteOS_Lab/iot_link/network/dtls/mbedtls/mbedtls-2.16.2/library\ecp_curves.c **** };
 116:C:/Users/dtjld/workspace/AIoT/src/LiteOS_Lab/iot_link/network/dtls/mbedtls/mbedtls-2.16.2/library\ecp_curves.c **** static const mbedtls_mpi_uint secp192r1_n[] = {
 117:C:/Users/dtjld/workspace/AIoT/src/LiteOS_Lab/iot_link/network/dtls/mbedtls/mbedtls-2.16.2/library\ecp_curves.c ****     BYTES_TO_T_UINT_8( 0x31, 0x28, 0xD2, 0xB4, 0xB1, 0xC9, 0x6B, 0x14 ),
 118:C:/Users/dtjld/workspace/AIoT/src/LiteOS_Lab/iot_link/network/dtls/mbedtls/mbedtls-2.16.2/library\ecp_curves.c ****     BYTES_TO_T_UINT_8( 0x36, 0xF8, 0xDE, 0x99, 0xFF, 0xFF, 0xFF, 0xFF ),
 119:C:/Users/dtjld/workspace/AIoT/src/LiteOS_Lab/iot_link/network/dtls/mbedtls/mbedtls-2.16.2/library\ecp_curves.c ****     BYTES_TO_T_UINT_8( 0xFF, 0xFF, 0xFF, 0xFF, 0xFF, 0xFF, 0xFF, 0xFF ),
 120:C:/Users/dtjld/workspace/AIoT/src/LiteOS_Lab/iot_link/network/dtls/mbedtls/mbedtls-2.16.2/library\ecp_curves.c **** };
 121:C:/Users/dtjld/workspace/AIoT/src/LiteOS_Lab/iot_link/network/dtls/mbedtls/mbedtls-2.16.2/library\ecp_curves.c **** #endif /* MBEDTLS_ECP_DP_SECP192R1_ENABLED */
 122:C:/Users/dtjld/workspace/AIoT/src/LiteOS_Lab/iot_link/network/dtls/mbedtls/mbedtls-2.16.2/library\ecp_curves.c **** 
 123:C:/Users/dtjld/workspace/AIoT/src/LiteOS_Lab/iot_link/network/dtls/mbedtls/mbedtls-2.16.2/library\ecp_curves.c **** /*
 124:C:/Users/dtjld/workspace/AIoT/src/LiteOS_Lab/iot_link/network/dtls/mbedtls/mbedtls-2.16.2/library\ecp_curves.c ****  * Domain parameters for secp224r1
 125:C:/Users/dtjld/workspace/AIoT/src/LiteOS_Lab/iot_link/network/dtls/mbedtls/mbedtls-2.16.2/library\ecp_curves.c ****  */
 126:C:/Users/dtjld/workspace/AIoT/src/LiteOS_Lab/iot_link/network/dtls/mbedtls/mbedtls-2.16.2/library\ecp_curves.c **** #if defined(MBEDTLS_ECP_DP_SECP224R1_ENABLED)
 127:C:/Users/dtjld/workspace/AIoT/src/LiteOS_Lab/iot_link/network/dtls/mbedtls/mbedtls-2.16.2/library\ecp_curves.c **** static const mbedtls_mpi_uint secp224r1_p[] = {
 128:C:/Users/dtjld/workspace/AIoT/src/LiteOS_Lab/iot_link/network/dtls/mbedtls/mbedtls-2.16.2/library\ecp_curves.c ****     BYTES_TO_T_UINT_8( 0x01, 0x00, 0x00, 0x00, 0x00, 0x00, 0x00, 0x00 ),
 129:C:/Users/dtjld/workspace/AIoT/src/LiteOS_Lab/iot_link/network/dtls/mbedtls/mbedtls-2.16.2/library\ecp_curves.c ****     BYTES_TO_T_UINT_8( 0x00, 0x00, 0x00, 0x00, 0xFF, 0xFF, 0xFF, 0xFF ),
 130:C:/Users/dtjld/workspace/AIoT/src/LiteOS_Lab/iot_link/network/dtls/mbedtls/mbedtls-2.16.2/library\ecp_curves.c ****     BYTES_TO_T_UINT_8( 0xFF, 0xFF, 0xFF, 0xFF, 0xFF, 0xFF, 0xFF, 0xFF ),
 131:C:/Users/dtjld/workspace/AIoT/src/LiteOS_Lab/iot_link/network/dtls/mbedtls/mbedtls-2.16.2/library\ecp_curves.c ****     BYTES_TO_T_UINT_8( 0xFF, 0xFF, 0xFF, 0xFF, 0x00, 0x00, 0x00, 0x00 ),
 132:C:/Users/dtjld/workspace/AIoT/src/LiteOS_Lab/iot_link/network/dtls/mbedtls/mbedtls-2.16.2/library\ecp_curves.c **** };
 133:C:/Users/dtjld/workspace/AIoT/src/LiteOS_Lab/iot_link/network/dtls/mbedtls/mbedtls-2.16.2/library\ecp_curves.c **** static const mbedtls_mpi_uint secp224r1_b[] = {
 134:C:/Users/dtjld/workspace/AIoT/src/LiteOS_Lab/iot_link/network/dtls/mbedtls/mbedtls-2.16.2/library\ecp_curves.c ****     BYTES_TO_T_UINT_8( 0xB4, 0xFF, 0x55, 0x23, 0x43, 0x39, 0x0B, 0x27 ),
 135:C:/Users/dtjld/workspace/AIoT/src/LiteOS_Lab/iot_link/network/dtls/mbedtls/mbedtls-2.16.2/library\ecp_curves.c ****     BYTES_TO_T_UINT_8( 0xBA, 0xD8, 0xBF, 0xD7, 0xB7, 0xB0, 0x44, 0x50 ),
 136:C:/Users/dtjld/workspace/AIoT/src/LiteOS_Lab/iot_link/network/dtls/mbedtls/mbedtls-2.16.2/library\ecp_curves.c ****     BYTES_TO_T_UINT_8( 0x56, 0x32, 0x41, 0xF5, 0xAB, 0xB3, 0x04, 0x0C ),
 137:C:/Users/dtjld/workspace/AIoT/src/LiteOS_Lab/iot_link/network/dtls/mbedtls/mbedtls-2.16.2/library\ecp_curves.c ****     BYTES_TO_T_UINT_4( 0x85, 0x0A, 0x05, 0xB4 ),
 138:C:/Users/dtjld/workspace/AIoT/src/LiteOS_Lab/iot_link/network/dtls/mbedtls/mbedtls-2.16.2/library\ecp_curves.c **** };
 139:C:/Users/dtjld/workspace/AIoT/src/LiteOS_Lab/iot_link/network/dtls/mbedtls/mbedtls-2.16.2/library\ecp_curves.c **** static const mbedtls_mpi_uint secp224r1_gx[] = {
 140:C:/Users/dtjld/workspace/AIoT/src/LiteOS_Lab/iot_link/network/dtls/mbedtls/mbedtls-2.16.2/library\ecp_curves.c ****     BYTES_TO_T_UINT_8( 0x21, 0x1D, 0x5C, 0x11, 0xD6, 0x80, 0x32, 0x34 ),
 141:C:/Users/dtjld/workspace/AIoT/src/LiteOS_Lab/iot_link/network/dtls/mbedtls/mbedtls-2.16.2/library\ecp_curves.c ****     BYTES_TO_T_UINT_8( 0x22, 0x11, 0xC2, 0x56, 0xD3, 0xC1, 0x03, 0x4A ),
 142:C:/Users/dtjld/workspace/AIoT/src/LiteOS_Lab/iot_link/network/dtls/mbedtls/mbedtls-2.16.2/library\ecp_curves.c ****     BYTES_TO_T_UINT_8( 0xB9, 0x90, 0x13, 0x32, 0x7F, 0xBF, 0xB4, 0x6B ),
 143:C:/Users/dtjld/workspace/AIoT/src/LiteOS_Lab/iot_link/network/dtls/mbedtls/mbedtls-2.16.2/library\ecp_curves.c ****     BYTES_TO_T_UINT_4( 0xBD, 0x0C, 0x0E, 0xB7 ),
 144:C:/Users/dtjld/workspace/AIoT/src/LiteOS_Lab/iot_link/network/dtls/mbedtls/mbedtls-2.16.2/library\ecp_curves.c **** };
 145:C:/Users/dtjld/workspace/AIoT/src/LiteOS_Lab/iot_link/network/dtls/mbedtls/mbedtls-2.16.2/library\ecp_curves.c **** static const mbedtls_mpi_uint secp224r1_gy[] = {
 146:C:/Users/dtjld/workspace/AIoT/src/LiteOS_Lab/iot_link/network/dtls/mbedtls/mbedtls-2.16.2/library\ecp_curves.c ****     BYTES_TO_T_UINT_8( 0x34, 0x7E, 0x00, 0x85, 0x99, 0x81, 0xD5, 0x44 ),
ARM GAS  C:\Users\dtjld\AppData\Local\Temp\ccEzFpLd.s 			page 17


 147:C:/Users/dtjld/workspace/AIoT/src/LiteOS_Lab/iot_link/network/dtls/mbedtls/mbedtls-2.16.2/library\ecp_curves.c ****     BYTES_TO_T_UINT_8( 0x64, 0x47, 0x07, 0x5A, 0xA0, 0x75, 0x43, 0xCD ),
 148:C:/Users/dtjld/workspace/AIoT/src/LiteOS_Lab/iot_link/network/dtls/mbedtls/mbedtls-2.16.2/library\ecp_curves.c ****     BYTES_TO_T_UINT_8( 0xE6, 0xDF, 0x22, 0x4C, 0xFB, 0x23, 0xF7, 0xB5 ),
 149:C:/Users/dtjld/workspace/AIoT/src/LiteOS_Lab/iot_link/network/dtls/mbedtls/mbedtls-2.16.2/library\ecp_curves.c ****     BYTES_TO_T_UINT_4( 0x88, 0x63, 0x37, 0xBD ),
 150:C:/Users/dtjld/workspace/AIoT/src/LiteOS_Lab/iot_link/network/dtls/mbedtls/mbedtls-2.16.2/library\ecp_curves.c **** };
 151:C:/Users/dtjld/workspace/AIoT/src/LiteOS_Lab/iot_link/network/dtls/mbedtls/mbedtls-2.16.2/library\ecp_curves.c **** static const mbedtls_mpi_uint secp224r1_n[] = {
 152:C:/Users/dtjld/workspace/AIoT/src/LiteOS_Lab/iot_link/network/dtls/mbedtls/mbedtls-2.16.2/library\ecp_curves.c ****     BYTES_TO_T_UINT_8( 0x3D, 0x2A, 0x5C, 0x5C, 0x45, 0x29, 0xDD, 0x13 ),
 153:C:/Users/dtjld/workspace/AIoT/src/LiteOS_Lab/iot_link/network/dtls/mbedtls/mbedtls-2.16.2/library\ecp_curves.c ****     BYTES_TO_T_UINT_8( 0x3E, 0xF0, 0xB8, 0xE0, 0xA2, 0x16, 0xFF, 0xFF ),
 154:C:/Users/dtjld/workspace/AIoT/src/LiteOS_Lab/iot_link/network/dtls/mbedtls/mbedtls-2.16.2/library\ecp_curves.c ****     BYTES_TO_T_UINT_8( 0xFF, 0xFF, 0xFF, 0xFF, 0xFF, 0xFF, 0xFF, 0xFF ),
 155:C:/Users/dtjld/workspace/AIoT/src/LiteOS_Lab/iot_link/network/dtls/mbedtls/mbedtls-2.16.2/library\ecp_curves.c ****     BYTES_TO_T_UINT_4( 0xFF, 0xFF, 0xFF, 0xFF ),
 156:C:/Users/dtjld/workspace/AIoT/src/LiteOS_Lab/iot_link/network/dtls/mbedtls/mbedtls-2.16.2/library\ecp_curves.c **** };
 157:C:/Users/dtjld/workspace/AIoT/src/LiteOS_Lab/iot_link/network/dtls/mbedtls/mbedtls-2.16.2/library\ecp_curves.c **** #endif /* MBEDTLS_ECP_DP_SECP224R1_ENABLED */
 158:C:/Users/dtjld/workspace/AIoT/src/LiteOS_Lab/iot_link/network/dtls/mbedtls/mbedtls-2.16.2/library\ecp_curves.c **** 
 159:C:/Users/dtjld/workspace/AIoT/src/LiteOS_Lab/iot_link/network/dtls/mbedtls/mbedtls-2.16.2/library\ecp_curves.c **** /*
 160:C:/Users/dtjld/workspace/AIoT/src/LiteOS_Lab/iot_link/network/dtls/mbedtls/mbedtls-2.16.2/library\ecp_curves.c ****  * Domain parameters for secp256r1
 161:C:/Users/dtjld/workspace/AIoT/src/LiteOS_Lab/iot_link/network/dtls/mbedtls/mbedtls-2.16.2/library\ecp_curves.c ****  */
 162:C:/Users/dtjld/workspace/AIoT/src/LiteOS_Lab/iot_link/network/dtls/mbedtls/mbedtls-2.16.2/library\ecp_curves.c **** #if defined(MBEDTLS_ECP_DP_SECP256R1_ENABLED)
 163:C:/Users/dtjld/workspace/AIoT/src/LiteOS_Lab/iot_link/network/dtls/mbedtls/mbedtls-2.16.2/library\ecp_curves.c **** static const mbedtls_mpi_uint secp256r1_p[] = {
 164:C:/Users/dtjld/workspace/AIoT/src/LiteOS_Lab/iot_link/network/dtls/mbedtls/mbedtls-2.16.2/library\ecp_curves.c ****     BYTES_TO_T_UINT_8( 0xFF, 0xFF, 0xFF, 0xFF, 0xFF, 0xFF, 0xFF, 0xFF ),
 165:C:/Users/dtjld/workspace/AIoT/src/LiteOS_Lab/iot_link/network/dtls/mbedtls/mbedtls-2.16.2/library\ecp_curves.c ****     BYTES_TO_T_UINT_8( 0xFF, 0xFF, 0xFF, 0xFF, 0x00, 0x00, 0x00, 0x00 ),
 166:C:/Users/dtjld/workspace/AIoT/src/LiteOS_Lab/iot_link/network/dtls/mbedtls/mbedtls-2.16.2/library\ecp_curves.c ****     BYTES_TO_T_UINT_8( 0x00, 0x00, 0x00, 0x00, 0x00, 0x00, 0x00, 0x00 ),
 167:C:/Users/dtjld/workspace/AIoT/src/LiteOS_Lab/iot_link/network/dtls/mbedtls/mbedtls-2.16.2/library\ecp_curves.c ****     BYTES_TO_T_UINT_8( 0x01, 0x00, 0x00, 0x00, 0xFF, 0xFF, 0xFF, 0xFF ),
 168:C:/Users/dtjld/workspace/AIoT/src/LiteOS_Lab/iot_link/network/dtls/mbedtls/mbedtls-2.16.2/library\ecp_curves.c **** };
 169:C:/Users/dtjld/workspace/AIoT/src/LiteOS_Lab/iot_link/network/dtls/mbedtls/mbedtls-2.16.2/library\ecp_curves.c **** static const mbedtls_mpi_uint secp256r1_b[] = {
 170:C:/Users/dtjld/workspace/AIoT/src/LiteOS_Lab/iot_link/network/dtls/mbedtls/mbedtls-2.16.2/library\ecp_curves.c ****     BYTES_TO_T_UINT_8( 0x4B, 0x60, 0xD2, 0x27, 0x3E, 0x3C, 0xCE, 0x3B ),
 171:C:/Users/dtjld/workspace/AIoT/src/LiteOS_Lab/iot_link/network/dtls/mbedtls/mbedtls-2.16.2/library\ecp_curves.c ****     BYTES_TO_T_UINT_8( 0xF6, 0xB0, 0x53, 0xCC, 0xB0, 0x06, 0x1D, 0x65 ),
 172:C:/Users/dtjld/workspace/AIoT/src/LiteOS_Lab/iot_link/network/dtls/mbedtls/mbedtls-2.16.2/library\ecp_curves.c ****     BYTES_TO_T_UINT_8( 0xBC, 0x86, 0x98, 0x76, 0x55, 0xBD, 0xEB, 0xB3 ),
 173:C:/Users/dtjld/workspace/AIoT/src/LiteOS_Lab/iot_link/network/dtls/mbedtls/mbedtls-2.16.2/library\ecp_curves.c ****     BYTES_TO_T_UINT_8( 0xE7, 0x93, 0x3A, 0xAA, 0xD8, 0x35, 0xC6, 0x5A ),
 174:C:/Users/dtjld/workspace/AIoT/src/LiteOS_Lab/iot_link/network/dtls/mbedtls/mbedtls-2.16.2/library\ecp_curves.c **** };
 175:C:/Users/dtjld/workspace/AIoT/src/LiteOS_Lab/iot_link/network/dtls/mbedtls/mbedtls-2.16.2/library\ecp_curves.c **** static const mbedtls_mpi_uint secp256r1_gx[] = {
 176:C:/Users/dtjld/workspace/AIoT/src/LiteOS_Lab/iot_link/network/dtls/mbedtls/mbedtls-2.16.2/library\ecp_curves.c ****     BYTES_TO_T_UINT_8( 0x96, 0xC2, 0x98, 0xD8, 0x45, 0x39, 0xA1, 0xF4 ),
 177:C:/Users/dtjld/workspace/AIoT/src/LiteOS_Lab/iot_link/network/dtls/mbedtls/mbedtls-2.16.2/library\ecp_curves.c ****     BYTES_TO_T_UINT_8( 0xA0, 0x33, 0xEB, 0x2D, 0x81, 0x7D, 0x03, 0x77 ),
 178:C:/Users/dtjld/workspace/AIoT/src/LiteOS_Lab/iot_link/network/dtls/mbedtls/mbedtls-2.16.2/library\ecp_curves.c ****     BYTES_TO_T_UINT_8( 0xF2, 0x40, 0xA4, 0x63, 0xE5, 0xE6, 0xBC, 0xF8 ),
 179:C:/Users/dtjld/workspace/AIoT/src/LiteOS_Lab/iot_link/network/dtls/mbedtls/mbedtls-2.16.2/library\ecp_curves.c ****     BYTES_TO_T_UINT_8( 0x47, 0x42, 0x2C, 0xE1, 0xF2, 0xD1, 0x17, 0x6B ),
 180:C:/Users/dtjld/workspace/AIoT/src/LiteOS_Lab/iot_link/network/dtls/mbedtls/mbedtls-2.16.2/library\ecp_curves.c **** };
 181:C:/Users/dtjld/workspace/AIoT/src/LiteOS_Lab/iot_link/network/dtls/mbedtls/mbedtls-2.16.2/library\ecp_curves.c **** static const mbedtls_mpi_uint secp256r1_gy[] = {
 182:C:/Users/dtjld/workspace/AIoT/src/LiteOS_Lab/iot_link/network/dtls/mbedtls/mbedtls-2.16.2/library\ecp_curves.c ****     BYTES_TO_T_UINT_8( 0xF5, 0x51, 0xBF, 0x37, 0x68, 0x40, 0xB6, 0xCB ),
 183:C:/Users/dtjld/workspace/AIoT/src/LiteOS_Lab/iot_link/network/dtls/mbedtls/mbedtls-2.16.2/library\ecp_curves.c ****     BYTES_TO_T_UINT_8( 0xCE, 0x5E, 0x31, 0x6B, 0x57, 0x33, 0xCE, 0x2B ),
 184:C:/Users/dtjld/workspace/AIoT/src/LiteOS_Lab/iot_link/network/dtls/mbedtls/mbedtls-2.16.2/library\ecp_curves.c ****     BYTES_TO_T_UINT_8( 0x16, 0x9E, 0x0F, 0x7C, 0x4A, 0xEB, 0xE7, 0x8E ),
 185:C:/Users/dtjld/workspace/AIoT/src/LiteOS_Lab/iot_link/network/dtls/mbedtls/mbedtls-2.16.2/library\ecp_curves.c ****     BYTES_TO_T_UINT_8( 0x9B, 0x7F, 0x1A, 0xFE, 0xE2, 0x42, 0xE3, 0x4F ),
 186:C:/Users/dtjld/workspace/AIoT/src/LiteOS_Lab/iot_link/network/dtls/mbedtls/mbedtls-2.16.2/library\ecp_curves.c **** };
 187:C:/Users/dtjld/workspace/AIoT/src/LiteOS_Lab/iot_link/network/dtls/mbedtls/mbedtls-2.16.2/library\ecp_curves.c **** static const mbedtls_mpi_uint secp256r1_n[] = {
 188:C:/Users/dtjld/workspace/AIoT/src/LiteOS_Lab/iot_link/network/dtls/mbedtls/mbedtls-2.16.2/library\ecp_curves.c ****     BYTES_TO_T_UINT_8( 0x51, 0x25, 0x63, 0xFC, 0xC2, 0xCA, 0xB9, 0xF3 ),
 189:C:/Users/dtjld/workspace/AIoT/src/LiteOS_Lab/iot_link/network/dtls/mbedtls/mbedtls-2.16.2/library\ecp_curves.c ****     BYTES_TO_T_UINT_8( 0x84, 0x9E, 0x17, 0xA7, 0xAD, 0xFA, 0xE6, 0xBC ),
 190:C:/Users/dtjld/workspace/AIoT/src/LiteOS_Lab/iot_link/network/dtls/mbedtls/mbedtls-2.16.2/library\ecp_curves.c ****     BYTES_TO_T_UINT_8( 0xFF, 0xFF, 0xFF, 0xFF, 0xFF, 0xFF, 0xFF, 0xFF ),
 191:C:/Users/dtjld/workspace/AIoT/src/LiteOS_Lab/iot_link/network/dtls/mbedtls/mbedtls-2.16.2/library\ecp_curves.c ****     BYTES_TO_T_UINT_8( 0x00, 0x00, 0x00, 0x00, 0xFF, 0xFF, 0xFF, 0xFF ),
 192:C:/Users/dtjld/workspace/AIoT/src/LiteOS_Lab/iot_link/network/dtls/mbedtls/mbedtls-2.16.2/library\ecp_curves.c **** };
 193:C:/Users/dtjld/workspace/AIoT/src/LiteOS_Lab/iot_link/network/dtls/mbedtls/mbedtls-2.16.2/library\ecp_curves.c **** #endif /* MBEDTLS_ECP_DP_SECP256R1_ENABLED */
 194:C:/Users/dtjld/workspace/AIoT/src/LiteOS_Lab/iot_link/network/dtls/mbedtls/mbedtls-2.16.2/library\ecp_curves.c **** 
 195:C:/Users/dtjld/workspace/AIoT/src/LiteOS_Lab/iot_link/network/dtls/mbedtls/mbedtls-2.16.2/library\ecp_curves.c **** /*
 196:C:/Users/dtjld/workspace/AIoT/src/LiteOS_Lab/iot_link/network/dtls/mbedtls/mbedtls-2.16.2/library\ecp_curves.c ****  * Domain parameters for secp384r1
 197:C:/Users/dtjld/workspace/AIoT/src/LiteOS_Lab/iot_link/network/dtls/mbedtls/mbedtls-2.16.2/library\ecp_curves.c ****  */
 198:C:/Users/dtjld/workspace/AIoT/src/LiteOS_Lab/iot_link/network/dtls/mbedtls/mbedtls-2.16.2/library\ecp_curves.c **** #if defined(MBEDTLS_ECP_DP_SECP384R1_ENABLED)
 199:C:/Users/dtjld/workspace/AIoT/src/LiteOS_Lab/iot_link/network/dtls/mbedtls/mbedtls-2.16.2/library\ecp_curves.c **** static const mbedtls_mpi_uint secp384r1_p[] = {
 200:C:/Users/dtjld/workspace/AIoT/src/LiteOS_Lab/iot_link/network/dtls/mbedtls/mbedtls-2.16.2/library\ecp_curves.c ****     BYTES_TO_T_UINT_8( 0xFF, 0xFF, 0xFF, 0xFF, 0x00, 0x00, 0x00, 0x00 ),
 201:C:/Users/dtjld/workspace/AIoT/src/LiteOS_Lab/iot_link/network/dtls/mbedtls/mbedtls-2.16.2/library\ecp_curves.c ****     BYTES_TO_T_UINT_8( 0x00, 0x00, 0x00, 0x00, 0xFF, 0xFF, 0xFF, 0xFF ),
 202:C:/Users/dtjld/workspace/AIoT/src/LiteOS_Lab/iot_link/network/dtls/mbedtls/mbedtls-2.16.2/library\ecp_curves.c ****     BYTES_TO_T_UINT_8( 0xFE, 0xFF, 0xFF, 0xFF, 0xFF, 0xFF, 0xFF, 0xFF ),
 203:C:/Users/dtjld/workspace/AIoT/src/LiteOS_Lab/iot_link/network/dtls/mbedtls/mbedtls-2.16.2/library\ecp_curves.c ****     BYTES_TO_T_UINT_8( 0xFF, 0xFF, 0xFF, 0xFF, 0xFF, 0xFF, 0xFF, 0xFF ),
ARM GAS  C:\Users\dtjld\AppData\Local\Temp\ccEzFpLd.s 			page 18


 204:C:/Users/dtjld/workspace/AIoT/src/LiteOS_Lab/iot_link/network/dtls/mbedtls/mbedtls-2.16.2/library\ecp_curves.c ****     BYTES_TO_T_UINT_8( 0xFF, 0xFF, 0xFF, 0xFF, 0xFF, 0xFF, 0xFF, 0xFF ),
 205:C:/Users/dtjld/workspace/AIoT/src/LiteOS_Lab/iot_link/network/dtls/mbedtls/mbedtls-2.16.2/library\ecp_curves.c ****     BYTES_TO_T_UINT_8( 0xFF, 0xFF, 0xFF, 0xFF, 0xFF, 0xFF, 0xFF, 0xFF ),
 206:C:/Users/dtjld/workspace/AIoT/src/LiteOS_Lab/iot_link/network/dtls/mbedtls/mbedtls-2.16.2/library\ecp_curves.c **** };
 207:C:/Users/dtjld/workspace/AIoT/src/LiteOS_Lab/iot_link/network/dtls/mbedtls/mbedtls-2.16.2/library\ecp_curves.c **** static const mbedtls_mpi_uint secp384r1_b[] = {
 208:C:/Users/dtjld/workspace/AIoT/src/LiteOS_Lab/iot_link/network/dtls/mbedtls/mbedtls-2.16.2/library\ecp_curves.c ****     BYTES_TO_T_UINT_8( 0xEF, 0x2A, 0xEC, 0xD3, 0xED, 0xC8, 0x85, 0x2A ),
 209:C:/Users/dtjld/workspace/AIoT/src/LiteOS_Lab/iot_link/network/dtls/mbedtls/mbedtls-2.16.2/library\ecp_curves.c ****     BYTES_TO_T_UINT_8( 0x9D, 0xD1, 0x2E, 0x8A, 0x8D, 0x39, 0x56, 0xC6 ),
 210:C:/Users/dtjld/workspace/AIoT/src/LiteOS_Lab/iot_link/network/dtls/mbedtls/mbedtls-2.16.2/library\ecp_curves.c ****     BYTES_TO_T_UINT_8( 0x5A, 0x87, 0x13, 0x50, 0x8F, 0x08, 0x14, 0x03 ),
 211:C:/Users/dtjld/workspace/AIoT/src/LiteOS_Lab/iot_link/network/dtls/mbedtls/mbedtls-2.16.2/library\ecp_curves.c ****     BYTES_TO_T_UINT_8( 0x12, 0x41, 0x81, 0xFE, 0x6E, 0x9C, 0x1D, 0x18 ),
 212:C:/Users/dtjld/workspace/AIoT/src/LiteOS_Lab/iot_link/network/dtls/mbedtls/mbedtls-2.16.2/library\ecp_curves.c ****     BYTES_TO_T_UINT_8( 0x19, 0x2D, 0xF8, 0xE3, 0x6B, 0x05, 0x8E, 0x98 ),
 213:C:/Users/dtjld/workspace/AIoT/src/LiteOS_Lab/iot_link/network/dtls/mbedtls/mbedtls-2.16.2/library\ecp_curves.c ****     BYTES_TO_T_UINT_8( 0xE4, 0xE7, 0x3E, 0xE2, 0xA7, 0x2F, 0x31, 0xB3 ),
 214:C:/Users/dtjld/workspace/AIoT/src/LiteOS_Lab/iot_link/network/dtls/mbedtls/mbedtls-2.16.2/library\ecp_curves.c **** };
 215:C:/Users/dtjld/workspace/AIoT/src/LiteOS_Lab/iot_link/network/dtls/mbedtls/mbedtls-2.16.2/library\ecp_curves.c **** static const mbedtls_mpi_uint secp384r1_gx[] = {
 216:C:/Users/dtjld/workspace/AIoT/src/LiteOS_Lab/iot_link/network/dtls/mbedtls/mbedtls-2.16.2/library\ecp_curves.c ****     BYTES_TO_T_UINT_8( 0xB7, 0x0A, 0x76, 0x72, 0x38, 0x5E, 0x54, 0x3A ),
 217:C:/Users/dtjld/workspace/AIoT/src/LiteOS_Lab/iot_link/network/dtls/mbedtls/mbedtls-2.16.2/library\ecp_curves.c ****     BYTES_TO_T_UINT_8( 0x6C, 0x29, 0x55, 0xBF, 0x5D, 0xF2, 0x02, 0x55 ),
 218:C:/Users/dtjld/workspace/AIoT/src/LiteOS_Lab/iot_link/network/dtls/mbedtls/mbedtls-2.16.2/library\ecp_curves.c ****     BYTES_TO_T_UINT_8( 0x38, 0x2A, 0x54, 0x82, 0xE0, 0x41, 0xF7, 0x59 ),
 219:C:/Users/dtjld/workspace/AIoT/src/LiteOS_Lab/iot_link/network/dtls/mbedtls/mbedtls-2.16.2/library\ecp_curves.c ****     BYTES_TO_T_UINT_8( 0x98, 0x9B, 0xA7, 0x8B, 0x62, 0x3B, 0x1D, 0x6E ),
 220:C:/Users/dtjld/workspace/AIoT/src/LiteOS_Lab/iot_link/network/dtls/mbedtls/mbedtls-2.16.2/library\ecp_curves.c ****     BYTES_TO_T_UINT_8( 0x74, 0xAD, 0x20, 0xF3, 0x1E, 0xC7, 0xB1, 0x8E ),
 221:C:/Users/dtjld/workspace/AIoT/src/LiteOS_Lab/iot_link/network/dtls/mbedtls/mbedtls-2.16.2/library\ecp_curves.c ****     BYTES_TO_T_UINT_8( 0x37, 0x05, 0x8B, 0xBE, 0x22, 0xCA, 0x87, 0xAA ),
 222:C:/Users/dtjld/workspace/AIoT/src/LiteOS_Lab/iot_link/network/dtls/mbedtls/mbedtls-2.16.2/library\ecp_curves.c **** };
 223:C:/Users/dtjld/workspace/AIoT/src/LiteOS_Lab/iot_link/network/dtls/mbedtls/mbedtls-2.16.2/library\ecp_curves.c **** static const mbedtls_mpi_uint secp384r1_gy[] = {
 224:C:/Users/dtjld/workspace/AIoT/src/LiteOS_Lab/iot_link/network/dtls/mbedtls/mbedtls-2.16.2/library\ecp_curves.c ****     BYTES_TO_T_UINT_8( 0x5F, 0x0E, 0xEA, 0x90, 0x7C, 0x1D, 0x43, 0x7A ),
 225:C:/Users/dtjld/workspace/AIoT/src/LiteOS_Lab/iot_link/network/dtls/mbedtls/mbedtls-2.16.2/library\ecp_curves.c ****     BYTES_TO_T_UINT_8( 0x9D, 0x81, 0x7E, 0x1D, 0xCE, 0xB1, 0x60, 0x0A ),
 226:C:/Users/dtjld/workspace/AIoT/src/LiteOS_Lab/iot_link/network/dtls/mbedtls/mbedtls-2.16.2/library\ecp_curves.c ****     BYTES_TO_T_UINT_8( 0xC0, 0xB8, 0xF0, 0xB5, 0x13, 0x31, 0xDA, 0xE9 ),
 227:C:/Users/dtjld/workspace/AIoT/src/LiteOS_Lab/iot_link/network/dtls/mbedtls/mbedtls-2.16.2/library\ecp_curves.c ****     BYTES_TO_T_UINT_8( 0x7C, 0x14, 0x9A, 0x28, 0xBD, 0x1D, 0xF4, 0xF8 ),
 228:C:/Users/dtjld/workspace/AIoT/src/LiteOS_Lab/iot_link/network/dtls/mbedtls/mbedtls-2.16.2/library\ecp_curves.c ****     BYTES_TO_T_UINT_8( 0x29, 0xDC, 0x92, 0x92, 0xBF, 0x98, 0x9E, 0x5D ),
 229:C:/Users/dtjld/workspace/AIoT/src/LiteOS_Lab/iot_link/network/dtls/mbedtls/mbedtls-2.16.2/library\ecp_curves.c ****     BYTES_TO_T_UINT_8( 0x6F, 0x2C, 0x26, 0x96, 0x4A, 0xDE, 0x17, 0x36 ),
 230:C:/Users/dtjld/workspace/AIoT/src/LiteOS_Lab/iot_link/network/dtls/mbedtls/mbedtls-2.16.2/library\ecp_curves.c **** };
 231:C:/Users/dtjld/workspace/AIoT/src/LiteOS_Lab/iot_link/network/dtls/mbedtls/mbedtls-2.16.2/library\ecp_curves.c **** static const mbedtls_mpi_uint secp384r1_n[] = {
 232:C:/Users/dtjld/workspace/AIoT/src/LiteOS_Lab/iot_link/network/dtls/mbedtls/mbedtls-2.16.2/library\ecp_curves.c ****     BYTES_TO_T_UINT_8( 0x73, 0x29, 0xC5, 0xCC, 0x6A, 0x19, 0xEC, 0xEC ),
 233:C:/Users/dtjld/workspace/AIoT/src/LiteOS_Lab/iot_link/network/dtls/mbedtls/mbedtls-2.16.2/library\ecp_curves.c ****     BYTES_TO_T_UINT_8( 0x7A, 0xA7, 0xB0, 0x48, 0xB2, 0x0D, 0x1A, 0x58 ),
 234:C:/Users/dtjld/workspace/AIoT/src/LiteOS_Lab/iot_link/network/dtls/mbedtls/mbedtls-2.16.2/library\ecp_curves.c ****     BYTES_TO_T_UINT_8( 0xDF, 0x2D, 0x37, 0xF4, 0x81, 0x4D, 0x63, 0xC7 ),
 235:C:/Users/dtjld/workspace/AIoT/src/LiteOS_Lab/iot_link/network/dtls/mbedtls/mbedtls-2.16.2/library\ecp_curves.c ****     BYTES_TO_T_UINT_8( 0xFF, 0xFF, 0xFF, 0xFF, 0xFF, 0xFF, 0xFF, 0xFF ),
 236:C:/Users/dtjld/workspace/AIoT/src/LiteOS_Lab/iot_link/network/dtls/mbedtls/mbedtls-2.16.2/library\ecp_curves.c ****     BYTES_TO_T_UINT_8( 0xFF, 0xFF, 0xFF, 0xFF, 0xFF, 0xFF, 0xFF, 0xFF ),
 237:C:/Users/dtjld/workspace/AIoT/src/LiteOS_Lab/iot_link/network/dtls/mbedtls/mbedtls-2.16.2/library\ecp_curves.c ****     BYTES_TO_T_UINT_8( 0xFF, 0xFF, 0xFF, 0xFF, 0xFF, 0xFF, 0xFF, 0xFF ),
 238:C:/Users/dtjld/workspace/AIoT/src/LiteOS_Lab/iot_link/network/dtls/mbedtls/mbedtls-2.16.2/library\ecp_curves.c **** };
 239:C:/Users/dtjld/workspace/AIoT/src/LiteOS_Lab/iot_link/network/dtls/mbedtls/mbedtls-2.16.2/library\ecp_curves.c **** #endif /* MBEDTLS_ECP_DP_SECP384R1_ENABLED */
 240:C:/Users/dtjld/workspace/AIoT/src/LiteOS_Lab/iot_link/network/dtls/mbedtls/mbedtls-2.16.2/library\ecp_curves.c **** 
 241:C:/Users/dtjld/workspace/AIoT/src/LiteOS_Lab/iot_link/network/dtls/mbedtls/mbedtls-2.16.2/library\ecp_curves.c **** /*
 242:C:/Users/dtjld/workspace/AIoT/src/LiteOS_Lab/iot_link/network/dtls/mbedtls/mbedtls-2.16.2/library\ecp_curves.c ****  * Domain parameters for secp521r1
 243:C:/Users/dtjld/workspace/AIoT/src/LiteOS_Lab/iot_link/network/dtls/mbedtls/mbedtls-2.16.2/library\ecp_curves.c ****  */
 244:C:/Users/dtjld/workspace/AIoT/src/LiteOS_Lab/iot_link/network/dtls/mbedtls/mbedtls-2.16.2/library\ecp_curves.c **** #if defined(MBEDTLS_ECP_DP_SECP521R1_ENABLED)
 245:C:/Users/dtjld/workspace/AIoT/src/LiteOS_Lab/iot_link/network/dtls/mbedtls/mbedtls-2.16.2/library\ecp_curves.c **** static const mbedtls_mpi_uint secp521r1_p[] = {
 246:C:/Users/dtjld/workspace/AIoT/src/LiteOS_Lab/iot_link/network/dtls/mbedtls/mbedtls-2.16.2/library\ecp_curves.c ****     BYTES_TO_T_UINT_8( 0xFF, 0xFF, 0xFF, 0xFF, 0xFF, 0xFF, 0xFF, 0xFF ),
 247:C:/Users/dtjld/workspace/AIoT/src/LiteOS_Lab/iot_link/network/dtls/mbedtls/mbedtls-2.16.2/library\ecp_curves.c ****     BYTES_TO_T_UINT_8( 0xFF, 0xFF, 0xFF, 0xFF, 0xFF, 0xFF, 0xFF, 0xFF ),
 248:C:/Users/dtjld/workspace/AIoT/src/LiteOS_Lab/iot_link/network/dtls/mbedtls/mbedtls-2.16.2/library\ecp_curves.c ****     BYTES_TO_T_UINT_8( 0xFF, 0xFF, 0xFF, 0xFF, 0xFF, 0xFF, 0xFF, 0xFF ),
 249:C:/Users/dtjld/workspace/AIoT/src/LiteOS_Lab/iot_link/network/dtls/mbedtls/mbedtls-2.16.2/library\ecp_curves.c ****     BYTES_TO_T_UINT_8( 0xFF, 0xFF, 0xFF, 0xFF, 0xFF, 0xFF, 0xFF, 0xFF ),
 250:C:/Users/dtjld/workspace/AIoT/src/LiteOS_Lab/iot_link/network/dtls/mbedtls/mbedtls-2.16.2/library\ecp_curves.c ****     BYTES_TO_T_UINT_8( 0xFF, 0xFF, 0xFF, 0xFF, 0xFF, 0xFF, 0xFF, 0xFF ),
 251:C:/Users/dtjld/workspace/AIoT/src/LiteOS_Lab/iot_link/network/dtls/mbedtls/mbedtls-2.16.2/library\ecp_curves.c ****     BYTES_TO_T_UINT_8( 0xFF, 0xFF, 0xFF, 0xFF, 0xFF, 0xFF, 0xFF, 0xFF ),
 252:C:/Users/dtjld/workspace/AIoT/src/LiteOS_Lab/iot_link/network/dtls/mbedtls/mbedtls-2.16.2/library\ecp_curves.c ****     BYTES_TO_T_UINT_8( 0xFF, 0xFF, 0xFF, 0xFF, 0xFF, 0xFF, 0xFF, 0xFF ),
 253:C:/Users/dtjld/workspace/AIoT/src/LiteOS_Lab/iot_link/network/dtls/mbedtls/mbedtls-2.16.2/library\ecp_curves.c ****     BYTES_TO_T_UINT_8( 0xFF, 0xFF, 0xFF, 0xFF, 0xFF, 0xFF, 0xFF, 0xFF ),
 254:C:/Users/dtjld/workspace/AIoT/src/LiteOS_Lab/iot_link/network/dtls/mbedtls/mbedtls-2.16.2/library\ecp_curves.c ****     BYTES_TO_T_UINT_2( 0xFF, 0x01 ),
 255:C:/Users/dtjld/workspace/AIoT/src/LiteOS_Lab/iot_link/network/dtls/mbedtls/mbedtls-2.16.2/library\ecp_curves.c **** };
 256:C:/Users/dtjld/workspace/AIoT/src/LiteOS_Lab/iot_link/network/dtls/mbedtls/mbedtls-2.16.2/library\ecp_curves.c **** static const mbedtls_mpi_uint secp521r1_b[] = {
 257:C:/Users/dtjld/workspace/AIoT/src/LiteOS_Lab/iot_link/network/dtls/mbedtls/mbedtls-2.16.2/library\ecp_curves.c ****     BYTES_TO_T_UINT_8( 0x00, 0x3F, 0x50, 0x6B, 0xD4, 0x1F, 0x45, 0xEF ),
 258:C:/Users/dtjld/workspace/AIoT/src/LiteOS_Lab/iot_link/network/dtls/mbedtls/mbedtls-2.16.2/library\ecp_curves.c ****     BYTES_TO_T_UINT_8( 0xF1, 0x34, 0x2C, 0x3D, 0x88, 0xDF, 0x73, 0x35 ),
 259:C:/Users/dtjld/workspace/AIoT/src/LiteOS_Lab/iot_link/network/dtls/mbedtls/mbedtls-2.16.2/library\ecp_curves.c ****     BYTES_TO_T_UINT_8( 0x07, 0xBF, 0xB1, 0x3B, 0xBD, 0xC0, 0x52, 0x16 ),
 260:C:/Users/dtjld/workspace/AIoT/src/LiteOS_Lab/iot_link/network/dtls/mbedtls/mbedtls-2.16.2/library\ecp_curves.c ****     BYTES_TO_T_UINT_8( 0x7B, 0x93, 0x7E, 0xEC, 0x51, 0x39, 0x19, 0x56 ),
ARM GAS  C:\Users\dtjld\AppData\Local\Temp\ccEzFpLd.s 			page 19


 261:C:/Users/dtjld/workspace/AIoT/src/LiteOS_Lab/iot_link/network/dtls/mbedtls/mbedtls-2.16.2/library\ecp_curves.c ****     BYTES_TO_T_UINT_8( 0xE1, 0x09, 0xF1, 0x8E, 0x91, 0x89, 0xB4, 0xB8 ),
 262:C:/Users/dtjld/workspace/AIoT/src/LiteOS_Lab/iot_link/network/dtls/mbedtls/mbedtls-2.16.2/library\ecp_curves.c ****     BYTES_TO_T_UINT_8( 0xF3, 0x15, 0xB3, 0x99, 0x5B, 0x72, 0xDA, 0xA2 ),
 263:C:/Users/dtjld/workspace/AIoT/src/LiteOS_Lab/iot_link/network/dtls/mbedtls/mbedtls-2.16.2/library\ecp_curves.c ****     BYTES_TO_T_UINT_8( 0xEE, 0x40, 0x85, 0xB6, 0xA0, 0x21, 0x9A, 0x92 ),
 264:C:/Users/dtjld/workspace/AIoT/src/LiteOS_Lab/iot_link/network/dtls/mbedtls/mbedtls-2.16.2/library\ecp_curves.c ****     BYTES_TO_T_UINT_8( 0x1F, 0x9A, 0x1C, 0x8E, 0x61, 0xB9, 0x3E, 0x95 ),
 265:C:/Users/dtjld/workspace/AIoT/src/LiteOS_Lab/iot_link/network/dtls/mbedtls/mbedtls-2.16.2/library\ecp_curves.c ****     BYTES_TO_T_UINT_2( 0x51, 0x00 ),
 266:C:/Users/dtjld/workspace/AIoT/src/LiteOS_Lab/iot_link/network/dtls/mbedtls/mbedtls-2.16.2/library\ecp_curves.c **** };
 267:C:/Users/dtjld/workspace/AIoT/src/LiteOS_Lab/iot_link/network/dtls/mbedtls/mbedtls-2.16.2/library\ecp_curves.c **** static const mbedtls_mpi_uint secp521r1_gx[] = {
 268:C:/Users/dtjld/workspace/AIoT/src/LiteOS_Lab/iot_link/network/dtls/mbedtls/mbedtls-2.16.2/library\ecp_curves.c ****     BYTES_TO_T_UINT_8( 0x66, 0xBD, 0xE5, 0xC2, 0x31, 0x7E, 0x7E, 0xF9 ),
 269:C:/Users/dtjld/workspace/AIoT/src/LiteOS_Lab/iot_link/network/dtls/mbedtls/mbedtls-2.16.2/library\ecp_curves.c ****     BYTES_TO_T_UINT_8( 0x9B, 0x42, 0x6A, 0x85, 0xC1, 0xB3, 0x48, 0x33 ),
 270:C:/Users/dtjld/workspace/AIoT/src/LiteOS_Lab/iot_link/network/dtls/mbedtls/mbedtls-2.16.2/library\ecp_curves.c ****     BYTES_TO_T_UINT_8( 0xDE, 0xA8, 0xFF, 0xA2, 0x27, 0xC1, 0x1D, 0xFE ),
 271:C:/Users/dtjld/workspace/AIoT/src/LiteOS_Lab/iot_link/network/dtls/mbedtls/mbedtls-2.16.2/library\ecp_curves.c ****     BYTES_TO_T_UINT_8( 0x28, 0x59, 0xE7, 0xEF, 0x77, 0x5E, 0x4B, 0xA1 ),
 272:C:/Users/dtjld/workspace/AIoT/src/LiteOS_Lab/iot_link/network/dtls/mbedtls/mbedtls-2.16.2/library\ecp_curves.c ****     BYTES_TO_T_UINT_8( 0xBA, 0x3D, 0x4D, 0x6B, 0x60, 0xAF, 0x28, 0xF8 ),
 273:C:/Users/dtjld/workspace/AIoT/src/LiteOS_Lab/iot_link/network/dtls/mbedtls/mbedtls-2.16.2/library\ecp_curves.c ****     BYTES_TO_T_UINT_8( 0x21, 0xB5, 0x3F, 0x05, 0x39, 0x81, 0x64, 0x9C ),
 274:C:/Users/dtjld/workspace/AIoT/src/LiteOS_Lab/iot_link/network/dtls/mbedtls/mbedtls-2.16.2/library\ecp_curves.c ****     BYTES_TO_T_UINT_8( 0x42, 0xB4, 0x95, 0x23, 0x66, 0xCB, 0x3E, 0x9E ),
 275:C:/Users/dtjld/workspace/AIoT/src/LiteOS_Lab/iot_link/network/dtls/mbedtls/mbedtls-2.16.2/library\ecp_curves.c ****     BYTES_TO_T_UINT_8( 0xCD, 0xE9, 0x04, 0x04, 0xB7, 0x06, 0x8E, 0x85 ),
 276:C:/Users/dtjld/workspace/AIoT/src/LiteOS_Lab/iot_link/network/dtls/mbedtls/mbedtls-2.16.2/library\ecp_curves.c ****     BYTES_TO_T_UINT_2( 0xC6, 0x00 ),
 277:C:/Users/dtjld/workspace/AIoT/src/LiteOS_Lab/iot_link/network/dtls/mbedtls/mbedtls-2.16.2/library\ecp_curves.c **** };
 278:C:/Users/dtjld/workspace/AIoT/src/LiteOS_Lab/iot_link/network/dtls/mbedtls/mbedtls-2.16.2/library\ecp_curves.c **** static const mbedtls_mpi_uint secp521r1_gy[] = {
 279:C:/Users/dtjld/workspace/AIoT/src/LiteOS_Lab/iot_link/network/dtls/mbedtls/mbedtls-2.16.2/library\ecp_curves.c ****     BYTES_TO_T_UINT_8( 0x50, 0x66, 0xD1, 0x9F, 0x76, 0x94, 0xBE, 0x88 ),
 280:C:/Users/dtjld/workspace/AIoT/src/LiteOS_Lab/iot_link/network/dtls/mbedtls/mbedtls-2.16.2/library\ecp_curves.c ****     BYTES_TO_T_UINT_8( 0x40, 0xC2, 0x72, 0xA2, 0x86, 0x70, 0x3C, 0x35 ),
 281:C:/Users/dtjld/workspace/AIoT/src/LiteOS_Lab/iot_link/network/dtls/mbedtls/mbedtls-2.16.2/library\ecp_curves.c ****     BYTES_TO_T_UINT_8( 0x61, 0x07, 0xAD, 0x3F, 0x01, 0xB9, 0x50, 0xC5 ),
 282:C:/Users/dtjld/workspace/AIoT/src/LiteOS_Lab/iot_link/network/dtls/mbedtls/mbedtls-2.16.2/library\ecp_curves.c ****     BYTES_TO_T_UINT_8( 0x40, 0x26, 0xF4, 0x5E, 0x99, 0x72, 0xEE, 0x97 ),
 283:C:/Users/dtjld/workspace/AIoT/src/LiteOS_Lab/iot_link/network/dtls/mbedtls/mbedtls-2.16.2/library\ecp_curves.c ****     BYTES_TO_T_UINT_8( 0x2C, 0x66, 0x3E, 0x27, 0x17, 0xBD, 0xAF, 0x17 ),
 284:C:/Users/dtjld/workspace/AIoT/src/LiteOS_Lab/iot_link/network/dtls/mbedtls/mbedtls-2.16.2/library\ecp_curves.c ****     BYTES_TO_T_UINT_8( 0x68, 0x44, 0x9B, 0x57, 0x49, 0x44, 0xF5, 0x98 ),
 285:C:/Users/dtjld/workspace/AIoT/src/LiteOS_Lab/iot_link/network/dtls/mbedtls/mbedtls-2.16.2/library\ecp_curves.c ****     BYTES_TO_T_UINT_8( 0xD9, 0x1B, 0x7D, 0x2C, 0xB4, 0x5F, 0x8A, 0x5C ),
 286:C:/Users/dtjld/workspace/AIoT/src/LiteOS_Lab/iot_link/network/dtls/mbedtls/mbedtls-2.16.2/library\ecp_curves.c ****     BYTES_TO_T_UINT_8( 0x04, 0xC0, 0x3B, 0x9A, 0x78, 0x6A, 0x29, 0x39 ),
 287:C:/Users/dtjld/workspace/AIoT/src/LiteOS_Lab/iot_link/network/dtls/mbedtls/mbedtls-2.16.2/library\ecp_curves.c ****     BYTES_TO_T_UINT_2( 0x18, 0x01 ),
 288:C:/Users/dtjld/workspace/AIoT/src/LiteOS_Lab/iot_link/network/dtls/mbedtls/mbedtls-2.16.2/library\ecp_curves.c **** };
 289:C:/Users/dtjld/workspace/AIoT/src/LiteOS_Lab/iot_link/network/dtls/mbedtls/mbedtls-2.16.2/library\ecp_curves.c **** static const mbedtls_mpi_uint secp521r1_n[] = {
 290:C:/Users/dtjld/workspace/AIoT/src/LiteOS_Lab/iot_link/network/dtls/mbedtls/mbedtls-2.16.2/library\ecp_curves.c ****     BYTES_TO_T_UINT_8( 0x09, 0x64, 0x38, 0x91, 0x1E, 0xB7, 0x6F, 0xBB ),
 291:C:/Users/dtjld/workspace/AIoT/src/LiteOS_Lab/iot_link/network/dtls/mbedtls/mbedtls-2.16.2/library\ecp_curves.c ****     BYTES_TO_T_UINT_8( 0xAE, 0x47, 0x9C, 0x89, 0xB8, 0xC9, 0xB5, 0x3B ),
 292:C:/Users/dtjld/workspace/AIoT/src/LiteOS_Lab/iot_link/network/dtls/mbedtls/mbedtls-2.16.2/library\ecp_curves.c ****     BYTES_TO_T_UINT_8( 0xD0, 0xA5, 0x09, 0xF7, 0x48, 0x01, 0xCC, 0x7F ),
 293:C:/Users/dtjld/workspace/AIoT/src/LiteOS_Lab/iot_link/network/dtls/mbedtls/mbedtls-2.16.2/library\ecp_curves.c ****     BYTES_TO_T_UINT_8( 0x6B, 0x96, 0x2F, 0xBF, 0x83, 0x87, 0x86, 0x51 ),
 294:C:/Users/dtjld/workspace/AIoT/src/LiteOS_Lab/iot_link/network/dtls/mbedtls/mbedtls-2.16.2/library\ecp_curves.c ****     BYTES_TO_T_UINT_8( 0xFA, 0xFF, 0xFF, 0xFF, 0xFF, 0xFF, 0xFF, 0xFF ),
 295:C:/Users/dtjld/workspace/AIoT/src/LiteOS_Lab/iot_link/network/dtls/mbedtls/mbedtls-2.16.2/library\ecp_curves.c ****     BYTES_TO_T_UINT_8( 0xFF, 0xFF, 0xFF, 0xFF, 0xFF, 0xFF, 0xFF, 0xFF ),
 296:C:/Users/dtjld/workspace/AIoT/src/LiteOS_Lab/iot_link/network/dtls/mbedtls/mbedtls-2.16.2/library\ecp_curves.c ****     BYTES_TO_T_UINT_8( 0xFF, 0xFF, 0xFF, 0xFF, 0xFF, 0xFF, 0xFF, 0xFF ),
 297:C:/Users/dtjld/workspace/AIoT/src/LiteOS_Lab/iot_link/network/dtls/mbedtls/mbedtls-2.16.2/library\ecp_curves.c ****     BYTES_TO_T_UINT_8( 0xFF, 0xFF, 0xFF, 0xFF, 0xFF, 0xFF, 0xFF, 0xFF ),
 298:C:/Users/dtjld/workspace/AIoT/src/LiteOS_Lab/iot_link/network/dtls/mbedtls/mbedtls-2.16.2/library\ecp_curves.c ****     BYTES_TO_T_UINT_2( 0xFF, 0x01 ),
 299:C:/Users/dtjld/workspace/AIoT/src/LiteOS_Lab/iot_link/network/dtls/mbedtls/mbedtls-2.16.2/library\ecp_curves.c **** };
 300:C:/Users/dtjld/workspace/AIoT/src/LiteOS_Lab/iot_link/network/dtls/mbedtls/mbedtls-2.16.2/library\ecp_curves.c **** #endif /* MBEDTLS_ECP_DP_SECP521R1_ENABLED */
 301:C:/Users/dtjld/workspace/AIoT/src/LiteOS_Lab/iot_link/network/dtls/mbedtls/mbedtls-2.16.2/library\ecp_curves.c **** 
 302:C:/Users/dtjld/workspace/AIoT/src/LiteOS_Lab/iot_link/network/dtls/mbedtls/mbedtls-2.16.2/library\ecp_curves.c **** #if defined(MBEDTLS_ECP_DP_SECP192K1_ENABLED)
 303:C:/Users/dtjld/workspace/AIoT/src/LiteOS_Lab/iot_link/network/dtls/mbedtls/mbedtls-2.16.2/library\ecp_curves.c **** static const mbedtls_mpi_uint secp192k1_p[] = {
 304:C:/Users/dtjld/workspace/AIoT/src/LiteOS_Lab/iot_link/network/dtls/mbedtls/mbedtls-2.16.2/library\ecp_curves.c ****     BYTES_TO_T_UINT_8( 0x37, 0xEE, 0xFF, 0xFF, 0xFE, 0xFF, 0xFF, 0xFF ),
 305:C:/Users/dtjld/workspace/AIoT/src/LiteOS_Lab/iot_link/network/dtls/mbedtls/mbedtls-2.16.2/library\ecp_curves.c ****     BYTES_TO_T_UINT_8( 0xFF, 0xFF, 0xFF, 0xFF, 0xFF, 0xFF, 0xFF, 0xFF ),
 306:C:/Users/dtjld/workspace/AIoT/src/LiteOS_Lab/iot_link/network/dtls/mbedtls/mbedtls-2.16.2/library\ecp_curves.c ****     BYTES_TO_T_UINT_8( 0xFF, 0xFF, 0xFF, 0xFF, 0xFF, 0xFF, 0xFF, 0xFF ),
 307:C:/Users/dtjld/workspace/AIoT/src/LiteOS_Lab/iot_link/network/dtls/mbedtls/mbedtls-2.16.2/library\ecp_curves.c **** };
 308:C:/Users/dtjld/workspace/AIoT/src/LiteOS_Lab/iot_link/network/dtls/mbedtls/mbedtls-2.16.2/library\ecp_curves.c **** static const mbedtls_mpi_uint secp192k1_a[] = {
 309:C:/Users/dtjld/workspace/AIoT/src/LiteOS_Lab/iot_link/network/dtls/mbedtls/mbedtls-2.16.2/library\ecp_curves.c ****     BYTES_TO_T_UINT_2( 0x00, 0x00 ),
 310:C:/Users/dtjld/workspace/AIoT/src/LiteOS_Lab/iot_link/network/dtls/mbedtls/mbedtls-2.16.2/library\ecp_curves.c **** };
 311:C:/Users/dtjld/workspace/AIoT/src/LiteOS_Lab/iot_link/network/dtls/mbedtls/mbedtls-2.16.2/library\ecp_curves.c **** static const mbedtls_mpi_uint secp192k1_b[] = {
 312:C:/Users/dtjld/workspace/AIoT/src/LiteOS_Lab/iot_link/network/dtls/mbedtls/mbedtls-2.16.2/library\ecp_curves.c ****     BYTES_TO_T_UINT_2( 0x03, 0x00 ),
 313:C:/Users/dtjld/workspace/AIoT/src/LiteOS_Lab/iot_link/network/dtls/mbedtls/mbedtls-2.16.2/library\ecp_curves.c **** };
 314:C:/Users/dtjld/workspace/AIoT/src/LiteOS_Lab/iot_link/network/dtls/mbedtls/mbedtls-2.16.2/library\ecp_curves.c **** static const mbedtls_mpi_uint secp192k1_gx[] = {
 315:C:/Users/dtjld/workspace/AIoT/src/LiteOS_Lab/iot_link/network/dtls/mbedtls/mbedtls-2.16.2/library\ecp_curves.c ****     BYTES_TO_T_UINT_8( 0x7D, 0x6C, 0xE0, 0xEA, 0xB1, 0xD1, 0xA5, 0x1D ),
 316:C:/Users/dtjld/workspace/AIoT/src/LiteOS_Lab/iot_link/network/dtls/mbedtls/mbedtls-2.16.2/library\ecp_curves.c ****     BYTES_TO_T_UINT_8( 0x34, 0xF4, 0xB7, 0x80, 0x02, 0x7D, 0xB0, 0x26 ),
 317:C:/Users/dtjld/workspace/AIoT/src/LiteOS_Lab/iot_link/network/dtls/mbedtls/mbedtls-2.16.2/library\ecp_curves.c ****     BYTES_TO_T_UINT_8( 0xAE, 0xE9, 0x57, 0xC0, 0x0E, 0xF1, 0x4F, 0xDB ),
ARM GAS  C:\Users\dtjld\AppData\Local\Temp\ccEzFpLd.s 			page 20


 318:C:/Users/dtjld/workspace/AIoT/src/LiteOS_Lab/iot_link/network/dtls/mbedtls/mbedtls-2.16.2/library\ecp_curves.c **** };
 319:C:/Users/dtjld/workspace/AIoT/src/LiteOS_Lab/iot_link/network/dtls/mbedtls/mbedtls-2.16.2/library\ecp_curves.c **** static const mbedtls_mpi_uint secp192k1_gy[] = {
 320:C:/Users/dtjld/workspace/AIoT/src/LiteOS_Lab/iot_link/network/dtls/mbedtls/mbedtls-2.16.2/library\ecp_curves.c ****     BYTES_TO_T_UINT_8( 0x9D, 0x2F, 0x5E, 0xD9, 0x88, 0xAA, 0x82, 0x40 ),
 321:C:/Users/dtjld/workspace/AIoT/src/LiteOS_Lab/iot_link/network/dtls/mbedtls/mbedtls-2.16.2/library\ecp_curves.c ****     BYTES_TO_T_UINT_8( 0x34, 0x86, 0xBE, 0x15, 0xD0, 0x63, 0x41, 0x84 ),
 322:C:/Users/dtjld/workspace/AIoT/src/LiteOS_Lab/iot_link/network/dtls/mbedtls/mbedtls-2.16.2/library\ecp_curves.c ****     BYTES_TO_T_UINT_8( 0xA7, 0x28, 0x56, 0x9C, 0x6D, 0x2F, 0x2F, 0x9B ),
 323:C:/Users/dtjld/workspace/AIoT/src/LiteOS_Lab/iot_link/network/dtls/mbedtls/mbedtls-2.16.2/library\ecp_curves.c **** };
 324:C:/Users/dtjld/workspace/AIoT/src/LiteOS_Lab/iot_link/network/dtls/mbedtls/mbedtls-2.16.2/library\ecp_curves.c **** static const mbedtls_mpi_uint secp192k1_n[] = {
 325:C:/Users/dtjld/workspace/AIoT/src/LiteOS_Lab/iot_link/network/dtls/mbedtls/mbedtls-2.16.2/library\ecp_curves.c ****     BYTES_TO_T_UINT_8( 0x8D, 0xFD, 0xDE, 0x74, 0x6A, 0x46, 0x69, 0x0F ),
 326:C:/Users/dtjld/workspace/AIoT/src/LiteOS_Lab/iot_link/network/dtls/mbedtls/mbedtls-2.16.2/library\ecp_curves.c ****     BYTES_TO_T_UINT_8( 0x17, 0xFC, 0xF2, 0x26, 0xFE, 0xFF, 0xFF, 0xFF ),
 327:C:/Users/dtjld/workspace/AIoT/src/LiteOS_Lab/iot_link/network/dtls/mbedtls/mbedtls-2.16.2/library\ecp_curves.c ****     BYTES_TO_T_UINT_8( 0xFF, 0xFF, 0xFF, 0xFF, 0xFF, 0xFF, 0xFF, 0xFF ),
 328:C:/Users/dtjld/workspace/AIoT/src/LiteOS_Lab/iot_link/network/dtls/mbedtls/mbedtls-2.16.2/library\ecp_curves.c **** };
 329:C:/Users/dtjld/workspace/AIoT/src/LiteOS_Lab/iot_link/network/dtls/mbedtls/mbedtls-2.16.2/library\ecp_curves.c **** #endif /* MBEDTLS_ECP_DP_SECP192K1_ENABLED */
 330:C:/Users/dtjld/workspace/AIoT/src/LiteOS_Lab/iot_link/network/dtls/mbedtls/mbedtls-2.16.2/library\ecp_curves.c **** 
 331:C:/Users/dtjld/workspace/AIoT/src/LiteOS_Lab/iot_link/network/dtls/mbedtls/mbedtls-2.16.2/library\ecp_curves.c **** #if defined(MBEDTLS_ECP_DP_SECP224K1_ENABLED)
 332:C:/Users/dtjld/workspace/AIoT/src/LiteOS_Lab/iot_link/network/dtls/mbedtls/mbedtls-2.16.2/library\ecp_curves.c **** static const mbedtls_mpi_uint secp224k1_p[] = {
 333:C:/Users/dtjld/workspace/AIoT/src/LiteOS_Lab/iot_link/network/dtls/mbedtls/mbedtls-2.16.2/library\ecp_curves.c ****     BYTES_TO_T_UINT_8( 0x6D, 0xE5, 0xFF, 0xFF, 0xFE, 0xFF, 0xFF, 0xFF ),
 334:C:/Users/dtjld/workspace/AIoT/src/LiteOS_Lab/iot_link/network/dtls/mbedtls/mbedtls-2.16.2/library\ecp_curves.c ****     BYTES_TO_T_UINT_8( 0xFF, 0xFF, 0xFF, 0xFF, 0xFF, 0xFF, 0xFF, 0xFF ),
 335:C:/Users/dtjld/workspace/AIoT/src/LiteOS_Lab/iot_link/network/dtls/mbedtls/mbedtls-2.16.2/library\ecp_curves.c ****     BYTES_TO_T_UINT_8( 0xFF, 0xFF, 0xFF, 0xFF, 0xFF, 0xFF, 0xFF, 0xFF ),
 336:C:/Users/dtjld/workspace/AIoT/src/LiteOS_Lab/iot_link/network/dtls/mbedtls/mbedtls-2.16.2/library\ecp_curves.c ****     BYTES_TO_T_UINT_4( 0xFF, 0xFF, 0xFF, 0xFF ),
 337:C:/Users/dtjld/workspace/AIoT/src/LiteOS_Lab/iot_link/network/dtls/mbedtls/mbedtls-2.16.2/library\ecp_curves.c **** };
 338:C:/Users/dtjld/workspace/AIoT/src/LiteOS_Lab/iot_link/network/dtls/mbedtls/mbedtls-2.16.2/library\ecp_curves.c **** static const mbedtls_mpi_uint secp224k1_a[] = {
 339:C:/Users/dtjld/workspace/AIoT/src/LiteOS_Lab/iot_link/network/dtls/mbedtls/mbedtls-2.16.2/library\ecp_curves.c ****     BYTES_TO_T_UINT_2( 0x00, 0x00 ),
 340:C:/Users/dtjld/workspace/AIoT/src/LiteOS_Lab/iot_link/network/dtls/mbedtls/mbedtls-2.16.2/library\ecp_curves.c **** };
 341:C:/Users/dtjld/workspace/AIoT/src/LiteOS_Lab/iot_link/network/dtls/mbedtls/mbedtls-2.16.2/library\ecp_curves.c **** static const mbedtls_mpi_uint secp224k1_b[] = {
 342:C:/Users/dtjld/workspace/AIoT/src/LiteOS_Lab/iot_link/network/dtls/mbedtls/mbedtls-2.16.2/library\ecp_curves.c ****     BYTES_TO_T_UINT_2( 0x05, 0x00 ),
 343:C:/Users/dtjld/workspace/AIoT/src/LiteOS_Lab/iot_link/network/dtls/mbedtls/mbedtls-2.16.2/library\ecp_curves.c **** };
 344:C:/Users/dtjld/workspace/AIoT/src/LiteOS_Lab/iot_link/network/dtls/mbedtls/mbedtls-2.16.2/library\ecp_curves.c **** static const mbedtls_mpi_uint secp224k1_gx[] = {
 345:C:/Users/dtjld/workspace/AIoT/src/LiteOS_Lab/iot_link/network/dtls/mbedtls/mbedtls-2.16.2/library\ecp_curves.c ****     BYTES_TO_T_UINT_8( 0x5C, 0xA4, 0xB7, 0xB6, 0x0E, 0x65, 0x7E, 0x0F ),
 346:C:/Users/dtjld/workspace/AIoT/src/LiteOS_Lab/iot_link/network/dtls/mbedtls/mbedtls-2.16.2/library\ecp_curves.c ****     BYTES_TO_T_UINT_8( 0xA9, 0x75, 0x70, 0xE4, 0xE9, 0x67, 0xA4, 0x69 ),
 347:C:/Users/dtjld/workspace/AIoT/src/LiteOS_Lab/iot_link/network/dtls/mbedtls/mbedtls-2.16.2/library\ecp_curves.c ****     BYTES_TO_T_UINT_8( 0xA1, 0x28, 0xFC, 0x30, 0xDF, 0x99, 0xF0, 0x4D ),
 348:C:/Users/dtjld/workspace/AIoT/src/LiteOS_Lab/iot_link/network/dtls/mbedtls/mbedtls-2.16.2/library\ecp_curves.c ****     BYTES_TO_T_UINT_4( 0x33, 0x5B, 0x45, 0xA1 ),
 349:C:/Users/dtjld/workspace/AIoT/src/LiteOS_Lab/iot_link/network/dtls/mbedtls/mbedtls-2.16.2/library\ecp_curves.c **** };
 350:C:/Users/dtjld/workspace/AIoT/src/LiteOS_Lab/iot_link/network/dtls/mbedtls/mbedtls-2.16.2/library\ecp_curves.c **** static const mbedtls_mpi_uint secp224k1_gy[] = {
 351:C:/Users/dtjld/workspace/AIoT/src/LiteOS_Lab/iot_link/network/dtls/mbedtls/mbedtls-2.16.2/library\ecp_curves.c ****     BYTES_TO_T_UINT_8( 0xA5, 0x61, 0x6D, 0x55, 0xDB, 0x4B, 0xCA, 0xE2 ),
 352:C:/Users/dtjld/workspace/AIoT/src/LiteOS_Lab/iot_link/network/dtls/mbedtls/mbedtls-2.16.2/library\ecp_curves.c ****     BYTES_TO_T_UINT_8( 0x59, 0xBD, 0xB0, 0xC0, 0xF7, 0x19, 0xE3, 0xF7 ),
 353:C:/Users/dtjld/workspace/AIoT/src/LiteOS_Lab/iot_link/network/dtls/mbedtls/mbedtls-2.16.2/library\ecp_curves.c ****     BYTES_TO_T_UINT_8( 0xD6, 0xFB, 0xCA, 0x82, 0x42, 0x34, 0xBA, 0x7F ),
 354:C:/Users/dtjld/workspace/AIoT/src/LiteOS_Lab/iot_link/network/dtls/mbedtls/mbedtls-2.16.2/library\ecp_curves.c ****     BYTES_TO_T_UINT_4( 0xED, 0x9F, 0x08, 0x7E ),
 355:C:/Users/dtjld/workspace/AIoT/src/LiteOS_Lab/iot_link/network/dtls/mbedtls/mbedtls-2.16.2/library\ecp_curves.c **** };
 356:C:/Users/dtjld/workspace/AIoT/src/LiteOS_Lab/iot_link/network/dtls/mbedtls/mbedtls-2.16.2/library\ecp_curves.c **** static const mbedtls_mpi_uint secp224k1_n[] = {
 357:C:/Users/dtjld/workspace/AIoT/src/LiteOS_Lab/iot_link/network/dtls/mbedtls/mbedtls-2.16.2/library\ecp_curves.c ****     BYTES_TO_T_UINT_8( 0xF7, 0xB1, 0x9F, 0x76, 0x71, 0xA9, 0xF0, 0xCA ),
 358:C:/Users/dtjld/workspace/AIoT/src/LiteOS_Lab/iot_link/network/dtls/mbedtls/mbedtls-2.16.2/library\ecp_curves.c ****     BYTES_TO_T_UINT_8( 0x84, 0x61, 0xEC, 0xD2, 0xE8, 0xDC, 0x01, 0x00 ),
 359:C:/Users/dtjld/workspace/AIoT/src/LiteOS_Lab/iot_link/network/dtls/mbedtls/mbedtls-2.16.2/library\ecp_curves.c ****     BYTES_TO_T_UINT_8( 0x00, 0x00, 0x00, 0x00, 0x00, 0x00, 0x00, 0x00 ),
 360:C:/Users/dtjld/workspace/AIoT/src/LiteOS_Lab/iot_link/network/dtls/mbedtls/mbedtls-2.16.2/library\ecp_curves.c ****     BYTES_TO_T_UINT_8( 0x00, 0x00, 0x00, 0x00, 0x01, 0x00, 0x00, 0x00 ),
 361:C:/Users/dtjld/workspace/AIoT/src/LiteOS_Lab/iot_link/network/dtls/mbedtls/mbedtls-2.16.2/library\ecp_curves.c **** };
 362:C:/Users/dtjld/workspace/AIoT/src/LiteOS_Lab/iot_link/network/dtls/mbedtls/mbedtls-2.16.2/library\ecp_curves.c **** #endif /* MBEDTLS_ECP_DP_SECP224K1_ENABLED */
 363:C:/Users/dtjld/workspace/AIoT/src/LiteOS_Lab/iot_link/network/dtls/mbedtls/mbedtls-2.16.2/library\ecp_curves.c **** 
 364:C:/Users/dtjld/workspace/AIoT/src/LiteOS_Lab/iot_link/network/dtls/mbedtls/mbedtls-2.16.2/library\ecp_curves.c **** #if defined(MBEDTLS_ECP_DP_SECP256K1_ENABLED)
 365:C:/Users/dtjld/workspace/AIoT/src/LiteOS_Lab/iot_link/network/dtls/mbedtls/mbedtls-2.16.2/library\ecp_curves.c **** static const mbedtls_mpi_uint secp256k1_p[] = {
 366:C:/Users/dtjld/workspace/AIoT/src/LiteOS_Lab/iot_link/network/dtls/mbedtls/mbedtls-2.16.2/library\ecp_curves.c ****     BYTES_TO_T_UINT_8( 0x2F, 0xFC, 0xFF, 0xFF, 0xFE, 0xFF, 0xFF, 0xFF ),
 367:C:/Users/dtjld/workspace/AIoT/src/LiteOS_Lab/iot_link/network/dtls/mbedtls/mbedtls-2.16.2/library\ecp_curves.c ****     BYTES_TO_T_UINT_8( 0xFF, 0xFF, 0xFF, 0xFF, 0xFF, 0xFF, 0xFF, 0xFF ),
 368:C:/Users/dtjld/workspace/AIoT/src/LiteOS_Lab/iot_link/network/dtls/mbedtls/mbedtls-2.16.2/library\ecp_curves.c ****     BYTES_TO_T_UINT_8( 0xFF, 0xFF, 0xFF, 0xFF, 0xFF, 0xFF, 0xFF, 0xFF ),
 369:C:/Users/dtjld/workspace/AIoT/src/LiteOS_Lab/iot_link/network/dtls/mbedtls/mbedtls-2.16.2/library\ecp_curves.c ****     BYTES_TO_T_UINT_8( 0xFF, 0xFF, 0xFF, 0xFF, 0xFF, 0xFF, 0xFF, 0xFF ),
 370:C:/Users/dtjld/workspace/AIoT/src/LiteOS_Lab/iot_link/network/dtls/mbedtls/mbedtls-2.16.2/library\ecp_curves.c **** };
 371:C:/Users/dtjld/workspace/AIoT/src/LiteOS_Lab/iot_link/network/dtls/mbedtls/mbedtls-2.16.2/library\ecp_curves.c **** static const mbedtls_mpi_uint secp256k1_a[] = {
 372:C:/Users/dtjld/workspace/AIoT/src/LiteOS_Lab/iot_link/network/dtls/mbedtls/mbedtls-2.16.2/library\ecp_curves.c ****     BYTES_TO_T_UINT_2( 0x00, 0x00 ),
 373:C:/Users/dtjld/workspace/AIoT/src/LiteOS_Lab/iot_link/network/dtls/mbedtls/mbedtls-2.16.2/library\ecp_curves.c **** };
 374:C:/Users/dtjld/workspace/AIoT/src/LiteOS_Lab/iot_link/network/dtls/mbedtls/mbedtls-2.16.2/library\ecp_curves.c **** static const mbedtls_mpi_uint secp256k1_b[] = {
ARM GAS  C:\Users\dtjld\AppData\Local\Temp\ccEzFpLd.s 			page 21


 375:C:/Users/dtjld/workspace/AIoT/src/LiteOS_Lab/iot_link/network/dtls/mbedtls/mbedtls-2.16.2/library\ecp_curves.c ****     BYTES_TO_T_UINT_2( 0x07, 0x00 ),
 376:C:/Users/dtjld/workspace/AIoT/src/LiteOS_Lab/iot_link/network/dtls/mbedtls/mbedtls-2.16.2/library\ecp_curves.c **** };
 377:C:/Users/dtjld/workspace/AIoT/src/LiteOS_Lab/iot_link/network/dtls/mbedtls/mbedtls-2.16.2/library\ecp_curves.c **** static const mbedtls_mpi_uint secp256k1_gx[] = {
 378:C:/Users/dtjld/workspace/AIoT/src/LiteOS_Lab/iot_link/network/dtls/mbedtls/mbedtls-2.16.2/library\ecp_curves.c ****     BYTES_TO_T_UINT_8( 0x98, 0x17, 0xF8, 0x16, 0x5B, 0x81, 0xF2, 0x59 ),
 379:C:/Users/dtjld/workspace/AIoT/src/LiteOS_Lab/iot_link/network/dtls/mbedtls/mbedtls-2.16.2/library\ecp_curves.c ****     BYTES_TO_T_UINT_8( 0xD9, 0x28, 0xCE, 0x2D, 0xDB, 0xFC, 0x9B, 0x02 ),
 380:C:/Users/dtjld/workspace/AIoT/src/LiteOS_Lab/iot_link/network/dtls/mbedtls/mbedtls-2.16.2/library\ecp_curves.c ****     BYTES_TO_T_UINT_8( 0x07, 0x0B, 0x87, 0xCE, 0x95, 0x62, 0xA0, 0x55 ),
 381:C:/Users/dtjld/workspace/AIoT/src/LiteOS_Lab/iot_link/network/dtls/mbedtls/mbedtls-2.16.2/library\ecp_curves.c ****     BYTES_TO_T_UINT_8( 0xAC, 0xBB, 0xDC, 0xF9, 0x7E, 0x66, 0xBE, 0x79 ),
 382:C:/Users/dtjld/workspace/AIoT/src/LiteOS_Lab/iot_link/network/dtls/mbedtls/mbedtls-2.16.2/library\ecp_curves.c **** };
 383:C:/Users/dtjld/workspace/AIoT/src/LiteOS_Lab/iot_link/network/dtls/mbedtls/mbedtls-2.16.2/library\ecp_curves.c **** static const mbedtls_mpi_uint secp256k1_gy[] = {
 384:C:/Users/dtjld/workspace/AIoT/src/LiteOS_Lab/iot_link/network/dtls/mbedtls/mbedtls-2.16.2/library\ecp_curves.c ****     BYTES_TO_T_UINT_8( 0xB8, 0xD4, 0x10, 0xFB, 0x8F, 0xD0, 0x47, 0x9C ),
 385:C:/Users/dtjld/workspace/AIoT/src/LiteOS_Lab/iot_link/network/dtls/mbedtls/mbedtls-2.16.2/library\ecp_curves.c ****     BYTES_TO_T_UINT_8( 0x19, 0x54, 0x85, 0xA6, 0x48, 0xB4, 0x17, 0xFD ),
 386:C:/Users/dtjld/workspace/AIoT/src/LiteOS_Lab/iot_link/network/dtls/mbedtls/mbedtls-2.16.2/library\ecp_curves.c ****     BYTES_TO_T_UINT_8( 0xA8, 0x08, 0x11, 0x0E, 0xFC, 0xFB, 0xA4, 0x5D ),
 387:C:/Users/dtjld/workspace/AIoT/src/LiteOS_Lab/iot_link/network/dtls/mbedtls/mbedtls-2.16.2/library\ecp_curves.c ****     BYTES_TO_T_UINT_8( 0x65, 0xC4, 0xA3, 0x26, 0x77, 0xDA, 0x3A, 0x48 ),
 388:C:/Users/dtjld/workspace/AIoT/src/LiteOS_Lab/iot_link/network/dtls/mbedtls/mbedtls-2.16.2/library\ecp_curves.c **** };
 389:C:/Users/dtjld/workspace/AIoT/src/LiteOS_Lab/iot_link/network/dtls/mbedtls/mbedtls-2.16.2/library\ecp_curves.c **** static const mbedtls_mpi_uint secp256k1_n[] = {
 390:C:/Users/dtjld/workspace/AIoT/src/LiteOS_Lab/iot_link/network/dtls/mbedtls/mbedtls-2.16.2/library\ecp_curves.c ****     BYTES_TO_T_UINT_8( 0x41, 0x41, 0x36, 0xD0, 0x8C, 0x5E, 0xD2, 0xBF ),
 391:C:/Users/dtjld/workspace/AIoT/src/LiteOS_Lab/iot_link/network/dtls/mbedtls/mbedtls-2.16.2/library\ecp_curves.c ****     BYTES_TO_T_UINT_8( 0x3B, 0xA0, 0x48, 0xAF, 0xE6, 0xDC, 0xAE, 0xBA ),
 392:C:/Users/dtjld/workspace/AIoT/src/LiteOS_Lab/iot_link/network/dtls/mbedtls/mbedtls-2.16.2/library\ecp_curves.c ****     BYTES_TO_T_UINT_8( 0xFE, 0xFF, 0xFF, 0xFF, 0xFF, 0xFF, 0xFF, 0xFF ),
 393:C:/Users/dtjld/workspace/AIoT/src/LiteOS_Lab/iot_link/network/dtls/mbedtls/mbedtls-2.16.2/library\ecp_curves.c ****     BYTES_TO_T_UINT_8( 0xFF, 0xFF, 0xFF, 0xFF, 0xFF, 0xFF, 0xFF, 0xFF ),
 394:C:/Users/dtjld/workspace/AIoT/src/LiteOS_Lab/iot_link/network/dtls/mbedtls/mbedtls-2.16.2/library\ecp_curves.c **** };
 395:C:/Users/dtjld/workspace/AIoT/src/LiteOS_Lab/iot_link/network/dtls/mbedtls/mbedtls-2.16.2/library\ecp_curves.c **** #endif /* MBEDTLS_ECP_DP_SECP256K1_ENABLED */
 396:C:/Users/dtjld/workspace/AIoT/src/LiteOS_Lab/iot_link/network/dtls/mbedtls/mbedtls-2.16.2/library\ecp_curves.c **** 
 397:C:/Users/dtjld/workspace/AIoT/src/LiteOS_Lab/iot_link/network/dtls/mbedtls/mbedtls-2.16.2/library\ecp_curves.c **** /*
 398:C:/Users/dtjld/workspace/AIoT/src/LiteOS_Lab/iot_link/network/dtls/mbedtls/mbedtls-2.16.2/library\ecp_curves.c ****  * Domain parameters for brainpoolP256r1 (RFC 5639 3.4)
 399:C:/Users/dtjld/workspace/AIoT/src/LiteOS_Lab/iot_link/network/dtls/mbedtls/mbedtls-2.16.2/library\ecp_curves.c ****  */
 400:C:/Users/dtjld/workspace/AIoT/src/LiteOS_Lab/iot_link/network/dtls/mbedtls/mbedtls-2.16.2/library\ecp_curves.c **** #if defined(MBEDTLS_ECP_DP_BP256R1_ENABLED)
 401:C:/Users/dtjld/workspace/AIoT/src/LiteOS_Lab/iot_link/network/dtls/mbedtls/mbedtls-2.16.2/library\ecp_curves.c **** static const mbedtls_mpi_uint brainpoolP256r1_p[] = {
 402:C:/Users/dtjld/workspace/AIoT/src/LiteOS_Lab/iot_link/network/dtls/mbedtls/mbedtls-2.16.2/library\ecp_curves.c ****     BYTES_TO_T_UINT_8( 0x77, 0x53, 0x6E, 0x1F, 0x1D, 0x48, 0x13, 0x20 ),
 403:C:/Users/dtjld/workspace/AIoT/src/LiteOS_Lab/iot_link/network/dtls/mbedtls/mbedtls-2.16.2/library\ecp_curves.c ****     BYTES_TO_T_UINT_8( 0x28, 0x20, 0x26, 0xD5, 0x23, 0xF6, 0x3B, 0x6E ),
 404:C:/Users/dtjld/workspace/AIoT/src/LiteOS_Lab/iot_link/network/dtls/mbedtls/mbedtls-2.16.2/library\ecp_curves.c ****     BYTES_TO_T_UINT_8( 0x72, 0x8D, 0x83, 0x9D, 0x90, 0x0A, 0x66, 0x3E ),
 405:C:/Users/dtjld/workspace/AIoT/src/LiteOS_Lab/iot_link/network/dtls/mbedtls/mbedtls-2.16.2/library\ecp_curves.c ****     BYTES_TO_T_UINT_8( 0xBC, 0xA9, 0xEE, 0xA1, 0xDB, 0x57, 0xFB, 0xA9 ),
 406:C:/Users/dtjld/workspace/AIoT/src/LiteOS_Lab/iot_link/network/dtls/mbedtls/mbedtls-2.16.2/library\ecp_curves.c **** };
 407:C:/Users/dtjld/workspace/AIoT/src/LiteOS_Lab/iot_link/network/dtls/mbedtls/mbedtls-2.16.2/library\ecp_curves.c **** static const mbedtls_mpi_uint brainpoolP256r1_a[] = {
 408:C:/Users/dtjld/workspace/AIoT/src/LiteOS_Lab/iot_link/network/dtls/mbedtls/mbedtls-2.16.2/library\ecp_curves.c ****     BYTES_TO_T_UINT_8( 0xD9, 0xB5, 0x30, 0xF3, 0x44, 0x4B, 0x4A, 0xE9 ),
 409:C:/Users/dtjld/workspace/AIoT/src/LiteOS_Lab/iot_link/network/dtls/mbedtls/mbedtls-2.16.2/library\ecp_curves.c ****     BYTES_TO_T_UINT_8( 0x6C, 0x5C, 0xDC, 0x26, 0xC1, 0x55, 0x80, 0xFB ),
 410:C:/Users/dtjld/workspace/AIoT/src/LiteOS_Lab/iot_link/network/dtls/mbedtls/mbedtls-2.16.2/library\ecp_curves.c ****     BYTES_TO_T_UINT_8( 0xE7, 0xFF, 0x7A, 0x41, 0x30, 0x75, 0xF6, 0xEE ),
 411:C:/Users/dtjld/workspace/AIoT/src/LiteOS_Lab/iot_link/network/dtls/mbedtls/mbedtls-2.16.2/library\ecp_curves.c ****     BYTES_TO_T_UINT_8( 0x57, 0x30, 0x2C, 0xFC, 0x75, 0x09, 0x5A, 0x7D ),
 412:C:/Users/dtjld/workspace/AIoT/src/LiteOS_Lab/iot_link/network/dtls/mbedtls/mbedtls-2.16.2/library\ecp_curves.c **** };
 413:C:/Users/dtjld/workspace/AIoT/src/LiteOS_Lab/iot_link/network/dtls/mbedtls/mbedtls-2.16.2/library\ecp_curves.c **** static const mbedtls_mpi_uint brainpoolP256r1_b[] = {
 414:C:/Users/dtjld/workspace/AIoT/src/LiteOS_Lab/iot_link/network/dtls/mbedtls/mbedtls-2.16.2/library\ecp_curves.c ****     BYTES_TO_T_UINT_8( 0xB6, 0x07, 0x8C, 0xFF, 0x18, 0xDC, 0xCC, 0x6B ),
 415:C:/Users/dtjld/workspace/AIoT/src/LiteOS_Lab/iot_link/network/dtls/mbedtls/mbedtls-2.16.2/library\ecp_curves.c ****     BYTES_TO_T_UINT_8( 0xCE, 0xE1, 0xF7, 0x5C, 0x29, 0x16, 0x84, 0x95 ),
 416:C:/Users/dtjld/workspace/AIoT/src/LiteOS_Lab/iot_link/network/dtls/mbedtls/mbedtls-2.16.2/library\ecp_curves.c ****     BYTES_TO_T_UINT_8( 0xBF, 0x7C, 0xD7, 0xBB, 0xD9, 0xB5, 0x30, 0xF3 ),
 417:C:/Users/dtjld/workspace/AIoT/src/LiteOS_Lab/iot_link/network/dtls/mbedtls/mbedtls-2.16.2/library\ecp_curves.c ****     BYTES_TO_T_UINT_8( 0x44, 0x4B, 0x4A, 0xE9, 0x6C, 0x5C, 0xDC, 0x26 ),
 418:C:/Users/dtjld/workspace/AIoT/src/LiteOS_Lab/iot_link/network/dtls/mbedtls/mbedtls-2.16.2/library\ecp_curves.c **** };
 419:C:/Users/dtjld/workspace/AIoT/src/LiteOS_Lab/iot_link/network/dtls/mbedtls/mbedtls-2.16.2/library\ecp_curves.c **** static const mbedtls_mpi_uint brainpoolP256r1_gx[] = {
 420:C:/Users/dtjld/workspace/AIoT/src/LiteOS_Lab/iot_link/network/dtls/mbedtls/mbedtls-2.16.2/library\ecp_curves.c ****     BYTES_TO_T_UINT_8( 0x62, 0x32, 0xCE, 0x9A, 0xBD, 0x53, 0x44, 0x3A ),
 421:C:/Users/dtjld/workspace/AIoT/src/LiteOS_Lab/iot_link/network/dtls/mbedtls/mbedtls-2.16.2/library\ecp_curves.c ****     BYTES_TO_T_UINT_8( 0xC2, 0x23, 0xBD, 0xE3, 0xE1, 0x27, 0xDE, 0xB9 ),
 422:C:/Users/dtjld/workspace/AIoT/src/LiteOS_Lab/iot_link/network/dtls/mbedtls/mbedtls-2.16.2/library\ecp_curves.c ****     BYTES_TO_T_UINT_8( 0xAF, 0xB7, 0x81, 0xFC, 0x2F, 0x48, 0x4B, 0x2C ),
 423:C:/Users/dtjld/workspace/AIoT/src/LiteOS_Lab/iot_link/network/dtls/mbedtls/mbedtls-2.16.2/library\ecp_curves.c ****     BYTES_TO_T_UINT_8( 0xCB, 0x57, 0x7E, 0xCB, 0xB9, 0xAE, 0xD2, 0x8B ),
 424:C:/Users/dtjld/workspace/AIoT/src/LiteOS_Lab/iot_link/network/dtls/mbedtls/mbedtls-2.16.2/library\ecp_curves.c **** };
 425:C:/Users/dtjld/workspace/AIoT/src/LiteOS_Lab/iot_link/network/dtls/mbedtls/mbedtls-2.16.2/library\ecp_curves.c **** static const mbedtls_mpi_uint brainpoolP256r1_gy[] = {
 426:C:/Users/dtjld/workspace/AIoT/src/LiteOS_Lab/iot_link/network/dtls/mbedtls/mbedtls-2.16.2/library\ecp_curves.c ****     BYTES_TO_T_UINT_8( 0x97, 0x69, 0x04, 0x2F, 0xC7, 0x54, 0x1D, 0x5C ),
 427:C:/Users/dtjld/workspace/AIoT/src/LiteOS_Lab/iot_link/network/dtls/mbedtls/mbedtls-2.16.2/library\ecp_curves.c ****     BYTES_TO_T_UINT_8( 0x54, 0x8E, 0xED, 0x2D, 0x13, 0x45, 0x77, 0xC2 ),
 428:C:/Users/dtjld/workspace/AIoT/src/LiteOS_Lab/iot_link/network/dtls/mbedtls/mbedtls-2.16.2/library\ecp_curves.c ****     BYTES_TO_T_UINT_8( 0xC9, 0x1D, 0x61, 0x14, 0x1A, 0x46, 0xF8, 0x97 ),
 429:C:/Users/dtjld/workspace/AIoT/src/LiteOS_Lab/iot_link/network/dtls/mbedtls/mbedtls-2.16.2/library\ecp_curves.c ****     BYTES_TO_T_UINT_8( 0xFD, 0xC4, 0xDA, 0xC3, 0x35, 0xF8, 0x7E, 0x54 ),
 430:C:/Users/dtjld/workspace/AIoT/src/LiteOS_Lab/iot_link/network/dtls/mbedtls/mbedtls-2.16.2/library\ecp_curves.c **** };
 431:C:/Users/dtjld/workspace/AIoT/src/LiteOS_Lab/iot_link/network/dtls/mbedtls/mbedtls-2.16.2/library\ecp_curves.c **** static const mbedtls_mpi_uint brainpoolP256r1_n[] = {
ARM GAS  C:\Users\dtjld\AppData\Local\Temp\ccEzFpLd.s 			page 22


 432:C:/Users/dtjld/workspace/AIoT/src/LiteOS_Lab/iot_link/network/dtls/mbedtls/mbedtls-2.16.2/library\ecp_curves.c ****     BYTES_TO_T_UINT_8( 0xA7, 0x56, 0x48, 0x97, 0x82, 0x0E, 0x1E, 0x90 ),
 433:C:/Users/dtjld/workspace/AIoT/src/LiteOS_Lab/iot_link/network/dtls/mbedtls/mbedtls-2.16.2/library\ecp_curves.c ****     BYTES_TO_T_UINT_8( 0xF7, 0xA6, 0x61, 0xB5, 0xA3, 0x7A, 0x39, 0x8C ),
 434:C:/Users/dtjld/workspace/AIoT/src/LiteOS_Lab/iot_link/network/dtls/mbedtls/mbedtls-2.16.2/library\ecp_curves.c ****     BYTES_TO_T_UINT_8( 0x71, 0x8D, 0x83, 0x9D, 0x90, 0x0A, 0x66, 0x3E ),
 435:C:/Users/dtjld/workspace/AIoT/src/LiteOS_Lab/iot_link/network/dtls/mbedtls/mbedtls-2.16.2/library\ecp_curves.c ****     BYTES_TO_T_UINT_8( 0xBC, 0xA9, 0xEE, 0xA1, 0xDB, 0x57, 0xFB, 0xA9 ),
 436:C:/Users/dtjld/workspace/AIoT/src/LiteOS_Lab/iot_link/network/dtls/mbedtls/mbedtls-2.16.2/library\ecp_curves.c **** };
 437:C:/Users/dtjld/workspace/AIoT/src/LiteOS_Lab/iot_link/network/dtls/mbedtls/mbedtls-2.16.2/library\ecp_curves.c **** #endif /* MBEDTLS_ECP_DP_BP256R1_ENABLED */
 438:C:/Users/dtjld/workspace/AIoT/src/LiteOS_Lab/iot_link/network/dtls/mbedtls/mbedtls-2.16.2/library\ecp_curves.c **** 
 439:C:/Users/dtjld/workspace/AIoT/src/LiteOS_Lab/iot_link/network/dtls/mbedtls/mbedtls-2.16.2/library\ecp_curves.c **** /*
 440:C:/Users/dtjld/workspace/AIoT/src/LiteOS_Lab/iot_link/network/dtls/mbedtls/mbedtls-2.16.2/library\ecp_curves.c ****  * Domain parameters for brainpoolP384r1 (RFC 5639 3.6)
 441:C:/Users/dtjld/workspace/AIoT/src/LiteOS_Lab/iot_link/network/dtls/mbedtls/mbedtls-2.16.2/library\ecp_curves.c ****  */
 442:C:/Users/dtjld/workspace/AIoT/src/LiteOS_Lab/iot_link/network/dtls/mbedtls/mbedtls-2.16.2/library\ecp_curves.c **** #if defined(MBEDTLS_ECP_DP_BP384R1_ENABLED)
 443:C:/Users/dtjld/workspace/AIoT/src/LiteOS_Lab/iot_link/network/dtls/mbedtls/mbedtls-2.16.2/library\ecp_curves.c **** static const mbedtls_mpi_uint brainpoolP384r1_p[] = {
 444:C:/Users/dtjld/workspace/AIoT/src/LiteOS_Lab/iot_link/network/dtls/mbedtls/mbedtls-2.16.2/library\ecp_curves.c ****     BYTES_TO_T_UINT_8( 0x53, 0xEC, 0x07, 0x31, 0x13, 0x00, 0x47, 0x87 ),
 445:C:/Users/dtjld/workspace/AIoT/src/LiteOS_Lab/iot_link/network/dtls/mbedtls/mbedtls-2.16.2/library\ecp_curves.c ****     BYTES_TO_T_UINT_8( 0x71, 0x1A, 0x1D, 0x90, 0x29, 0xA7, 0xD3, 0xAC ),
 446:C:/Users/dtjld/workspace/AIoT/src/LiteOS_Lab/iot_link/network/dtls/mbedtls/mbedtls-2.16.2/library\ecp_curves.c ****     BYTES_TO_T_UINT_8( 0x23, 0x11, 0xB7, 0x7F, 0x19, 0xDA, 0xB1, 0x12 ),
 447:C:/Users/dtjld/workspace/AIoT/src/LiteOS_Lab/iot_link/network/dtls/mbedtls/mbedtls-2.16.2/library\ecp_curves.c ****     BYTES_TO_T_UINT_8( 0xB4, 0x56, 0x54, 0xED, 0x09, 0x71, 0x2F, 0x15 ),
 448:C:/Users/dtjld/workspace/AIoT/src/LiteOS_Lab/iot_link/network/dtls/mbedtls/mbedtls-2.16.2/library\ecp_curves.c ****     BYTES_TO_T_UINT_8( 0xDF, 0x41, 0xE6, 0x50, 0x7E, 0x6F, 0x5D, 0x0F ),
 449:C:/Users/dtjld/workspace/AIoT/src/LiteOS_Lab/iot_link/network/dtls/mbedtls/mbedtls-2.16.2/library\ecp_curves.c ****     BYTES_TO_T_UINT_8( 0x28, 0x6D, 0x38, 0xA3, 0x82, 0x1E, 0xB9, 0x8C ),
 450:C:/Users/dtjld/workspace/AIoT/src/LiteOS_Lab/iot_link/network/dtls/mbedtls/mbedtls-2.16.2/library\ecp_curves.c **** };
 451:C:/Users/dtjld/workspace/AIoT/src/LiteOS_Lab/iot_link/network/dtls/mbedtls/mbedtls-2.16.2/library\ecp_curves.c **** static const mbedtls_mpi_uint brainpoolP384r1_a[] = {
 452:C:/Users/dtjld/workspace/AIoT/src/LiteOS_Lab/iot_link/network/dtls/mbedtls/mbedtls-2.16.2/library\ecp_curves.c ****     BYTES_TO_T_UINT_8( 0x26, 0x28, 0xCE, 0x22, 0xDD, 0xC7, 0xA8, 0x04 ),
 453:C:/Users/dtjld/workspace/AIoT/src/LiteOS_Lab/iot_link/network/dtls/mbedtls/mbedtls-2.16.2/library\ecp_curves.c ****     BYTES_TO_T_UINT_8( 0xEB, 0xD4, 0x3A, 0x50, 0x4A, 0x81, 0xA5, 0x8A ),
 454:C:/Users/dtjld/workspace/AIoT/src/LiteOS_Lab/iot_link/network/dtls/mbedtls/mbedtls-2.16.2/library\ecp_curves.c ****     BYTES_TO_T_UINT_8( 0x0F, 0xF9, 0x91, 0xBA, 0xEF, 0x65, 0x91, 0x13 ),
 455:C:/Users/dtjld/workspace/AIoT/src/LiteOS_Lab/iot_link/network/dtls/mbedtls/mbedtls-2.16.2/library\ecp_curves.c ****     BYTES_TO_T_UINT_8( 0x87, 0x27, 0xB2, 0x4F, 0x8E, 0xA2, 0xBE, 0xC2 ),
 456:C:/Users/dtjld/workspace/AIoT/src/LiteOS_Lab/iot_link/network/dtls/mbedtls/mbedtls-2.16.2/library\ecp_curves.c ****     BYTES_TO_T_UINT_8( 0xA0, 0xAF, 0x05, 0xCE, 0x0A, 0x08, 0x72, 0x3C ),
 457:C:/Users/dtjld/workspace/AIoT/src/LiteOS_Lab/iot_link/network/dtls/mbedtls/mbedtls-2.16.2/library\ecp_curves.c ****     BYTES_TO_T_UINT_8( 0x0C, 0x15, 0x8C, 0x3D, 0xC6, 0x82, 0xC3, 0x7B ),
 458:C:/Users/dtjld/workspace/AIoT/src/LiteOS_Lab/iot_link/network/dtls/mbedtls/mbedtls-2.16.2/library\ecp_curves.c **** };
 459:C:/Users/dtjld/workspace/AIoT/src/LiteOS_Lab/iot_link/network/dtls/mbedtls/mbedtls-2.16.2/library\ecp_curves.c **** static const mbedtls_mpi_uint brainpoolP384r1_b[] = {
 460:C:/Users/dtjld/workspace/AIoT/src/LiteOS_Lab/iot_link/network/dtls/mbedtls/mbedtls-2.16.2/library\ecp_curves.c ****     BYTES_TO_T_UINT_8( 0x11, 0x4C, 0x50, 0xFA, 0x96, 0x86, 0xB7, 0x3A ),
 461:C:/Users/dtjld/workspace/AIoT/src/LiteOS_Lab/iot_link/network/dtls/mbedtls/mbedtls-2.16.2/library\ecp_curves.c ****     BYTES_TO_T_UINT_8( 0x94, 0xC9, 0xDB, 0x95, 0x02, 0x39, 0xB4, 0x7C ),
 462:C:/Users/dtjld/workspace/AIoT/src/LiteOS_Lab/iot_link/network/dtls/mbedtls/mbedtls-2.16.2/library\ecp_curves.c ****     BYTES_TO_T_UINT_8( 0xD5, 0x62, 0xEB, 0x3E, 0xA5, 0x0E, 0x88, 0x2E ),
 463:C:/Users/dtjld/workspace/AIoT/src/LiteOS_Lab/iot_link/network/dtls/mbedtls/mbedtls-2.16.2/library\ecp_curves.c ****     BYTES_TO_T_UINT_8( 0xA6, 0xD2, 0xDC, 0x07, 0xE1, 0x7D, 0xB7, 0x2F ),
 464:C:/Users/dtjld/workspace/AIoT/src/LiteOS_Lab/iot_link/network/dtls/mbedtls/mbedtls-2.16.2/library\ecp_curves.c ****     BYTES_TO_T_UINT_8( 0x7C, 0x44, 0xF0, 0x16, 0x54, 0xB5, 0x39, 0x8B ),
 465:C:/Users/dtjld/workspace/AIoT/src/LiteOS_Lab/iot_link/network/dtls/mbedtls/mbedtls-2.16.2/library\ecp_curves.c ****     BYTES_TO_T_UINT_8( 0x26, 0x28, 0xCE, 0x22, 0xDD, 0xC7, 0xA8, 0x04 ),
 466:C:/Users/dtjld/workspace/AIoT/src/LiteOS_Lab/iot_link/network/dtls/mbedtls/mbedtls-2.16.2/library\ecp_curves.c **** };
 467:C:/Users/dtjld/workspace/AIoT/src/LiteOS_Lab/iot_link/network/dtls/mbedtls/mbedtls-2.16.2/library\ecp_curves.c **** static const mbedtls_mpi_uint brainpoolP384r1_gx[] = {
 468:C:/Users/dtjld/workspace/AIoT/src/LiteOS_Lab/iot_link/network/dtls/mbedtls/mbedtls-2.16.2/library\ecp_curves.c ****     BYTES_TO_T_UINT_8( 0x1E, 0xAF, 0xD4, 0x47, 0xE2, 0xB2, 0x87, 0xEF ),
 469:C:/Users/dtjld/workspace/AIoT/src/LiteOS_Lab/iot_link/network/dtls/mbedtls/mbedtls-2.16.2/library\ecp_curves.c ****     BYTES_TO_T_UINT_8( 0xAA, 0x46, 0xD6, 0x36, 0x34, 0xE0, 0x26, 0xE8 ),
 470:C:/Users/dtjld/workspace/AIoT/src/LiteOS_Lab/iot_link/network/dtls/mbedtls/mbedtls-2.16.2/library\ecp_curves.c ****     BYTES_TO_T_UINT_8( 0xE8, 0x10, 0xBD, 0x0C, 0xFE, 0xCA, 0x7F, 0xDB ),
 471:C:/Users/dtjld/workspace/AIoT/src/LiteOS_Lab/iot_link/network/dtls/mbedtls/mbedtls-2.16.2/library\ecp_curves.c ****     BYTES_TO_T_UINT_8( 0xE3, 0x4F, 0xF1, 0x7E, 0xE7, 0xA3, 0x47, 0x88 ),
 472:C:/Users/dtjld/workspace/AIoT/src/LiteOS_Lab/iot_link/network/dtls/mbedtls/mbedtls-2.16.2/library\ecp_curves.c ****     BYTES_TO_T_UINT_8( 0x6B, 0x3F, 0xC1, 0xB7, 0x81, 0x3A, 0xA6, 0xA2 ),
 473:C:/Users/dtjld/workspace/AIoT/src/LiteOS_Lab/iot_link/network/dtls/mbedtls/mbedtls-2.16.2/library\ecp_curves.c ****     BYTES_TO_T_UINT_8( 0xFF, 0x45, 0xCF, 0x68, 0xF0, 0x64, 0x1C, 0x1D ),
 474:C:/Users/dtjld/workspace/AIoT/src/LiteOS_Lab/iot_link/network/dtls/mbedtls/mbedtls-2.16.2/library\ecp_curves.c **** };
 475:C:/Users/dtjld/workspace/AIoT/src/LiteOS_Lab/iot_link/network/dtls/mbedtls/mbedtls-2.16.2/library\ecp_curves.c **** static const mbedtls_mpi_uint brainpoolP384r1_gy[] = {
 476:C:/Users/dtjld/workspace/AIoT/src/LiteOS_Lab/iot_link/network/dtls/mbedtls/mbedtls-2.16.2/library\ecp_curves.c ****     BYTES_TO_T_UINT_8( 0x15, 0x53, 0x3C, 0x26, 0x41, 0x03, 0x82, 0x42 ),
 477:C:/Users/dtjld/workspace/AIoT/src/LiteOS_Lab/iot_link/network/dtls/mbedtls/mbedtls-2.16.2/library\ecp_curves.c ****     BYTES_TO_T_UINT_8( 0x11, 0x81, 0x91, 0x77, 0x21, 0x46, 0x46, 0x0E ),
 478:C:/Users/dtjld/workspace/AIoT/src/LiteOS_Lab/iot_link/network/dtls/mbedtls/mbedtls-2.16.2/library\ecp_curves.c ****     BYTES_TO_T_UINT_8( 0x28, 0x29, 0x91, 0xF9, 0x4F, 0x05, 0x9C, 0xE1 ),
 479:C:/Users/dtjld/workspace/AIoT/src/LiteOS_Lab/iot_link/network/dtls/mbedtls/mbedtls-2.16.2/library\ecp_curves.c ****     BYTES_TO_T_UINT_8( 0x64, 0x58, 0xEC, 0xFE, 0x29, 0x0B, 0xB7, 0x62 ),
 480:C:/Users/dtjld/workspace/AIoT/src/LiteOS_Lab/iot_link/network/dtls/mbedtls/mbedtls-2.16.2/library\ecp_curves.c ****     BYTES_TO_T_UINT_8( 0x52, 0xD5, 0xCF, 0x95, 0x8E, 0xEB, 0xB1, 0x5C ),
 481:C:/Users/dtjld/workspace/AIoT/src/LiteOS_Lab/iot_link/network/dtls/mbedtls/mbedtls-2.16.2/library\ecp_curves.c ****     BYTES_TO_T_UINT_8( 0xA4, 0xC2, 0xF9, 0x20, 0x75, 0x1D, 0xBE, 0x8A ),
 482:C:/Users/dtjld/workspace/AIoT/src/LiteOS_Lab/iot_link/network/dtls/mbedtls/mbedtls-2.16.2/library\ecp_curves.c **** };
 483:C:/Users/dtjld/workspace/AIoT/src/LiteOS_Lab/iot_link/network/dtls/mbedtls/mbedtls-2.16.2/library\ecp_curves.c **** static const mbedtls_mpi_uint brainpoolP384r1_n[] = {
 484:C:/Users/dtjld/workspace/AIoT/src/LiteOS_Lab/iot_link/network/dtls/mbedtls/mbedtls-2.16.2/library\ecp_curves.c ****     BYTES_TO_T_UINT_8( 0x65, 0x65, 0x04, 0xE9, 0x02, 0x32, 0x88, 0x3B ),
 485:C:/Users/dtjld/workspace/AIoT/src/LiteOS_Lab/iot_link/network/dtls/mbedtls/mbedtls-2.16.2/library\ecp_curves.c ****     BYTES_TO_T_UINT_8( 0x10, 0xC3, 0x7F, 0x6B, 0xAF, 0xB6, 0x3A, 0xCF ),
 486:C:/Users/dtjld/workspace/AIoT/src/LiteOS_Lab/iot_link/network/dtls/mbedtls/mbedtls-2.16.2/library\ecp_curves.c ****     BYTES_TO_T_UINT_8( 0xA7, 0x25, 0x04, 0xAC, 0x6C, 0x6E, 0x16, 0x1F ),
 487:C:/Users/dtjld/workspace/AIoT/src/LiteOS_Lab/iot_link/network/dtls/mbedtls/mbedtls-2.16.2/library\ecp_curves.c ****     BYTES_TO_T_UINT_8( 0xB3, 0x56, 0x54, 0xED, 0x09, 0x71, 0x2F, 0x15 ),
 488:C:/Users/dtjld/workspace/AIoT/src/LiteOS_Lab/iot_link/network/dtls/mbedtls/mbedtls-2.16.2/library\ecp_curves.c ****     BYTES_TO_T_UINT_8( 0xDF, 0x41, 0xE6, 0x50, 0x7E, 0x6F, 0x5D, 0x0F ),
ARM GAS  C:\Users\dtjld\AppData\Local\Temp\ccEzFpLd.s 			page 23


 489:C:/Users/dtjld/workspace/AIoT/src/LiteOS_Lab/iot_link/network/dtls/mbedtls/mbedtls-2.16.2/library\ecp_curves.c ****     BYTES_TO_T_UINT_8( 0x28, 0x6D, 0x38, 0xA3, 0x82, 0x1E, 0xB9, 0x8C ),
 490:C:/Users/dtjld/workspace/AIoT/src/LiteOS_Lab/iot_link/network/dtls/mbedtls/mbedtls-2.16.2/library\ecp_curves.c **** };
 491:C:/Users/dtjld/workspace/AIoT/src/LiteOS_Lab/iot_link/network/dtls/mbedtls/mbedtls-2.16.2/library\ecp_curves.c **** #endif /* MBEDTLS_ECP_DP_BP384R1_ENABLED */
 492:C:/Users/dtjld/workspace/AIoT/src/LiteOS_Lab/iot_link/network/dtls/mbedtls/mbedtls-2.16.2/library\ecp_curves.c **** 
 493:C:/Users/dtjld/workspace/AIoT/src/LiteOS_Lab/iot_link/network/dtls/mbedtls/mbedtls-2.16.2/library\ecp_curves.c **** /*
 494:C:/Users/dtjld/workspace/AIoT/src/LiteOS_Lab/iot_link/network/dtls/mbedtls/mbedtls-2.16.2/library\ecp_curves.c ****  * Domain parameters for brainpoolP512r1 (RFC 5639 3.7)
 495:C:/Users/dtjld/workspace/AIoT/src/LiteOS_Lab/iot_link/network/dtls/mbedtls/mbedtls-2.16.2/library\ecp_curves.c ****  */
 496:C:/Users/dtjld/workspace/AIoT/src/LiteOS_Lab/iot_link/network/dtls/mbedtls/mbedtls-2.16.2/library\ecp_curves.c **** #if defined(MBEDTLS_ECP_DP_BP512R1_ENABLED)
 497:C:/Users/dtjld/workspace/AIoT/src/LiteOS_Lab/iot_link/network/dtls/mbedtls/mbedtls-2.16.2/library\ecp_curves.c **** static const mbedtls_mpi_uint brainpoolP512r1_p[] = {
 498:C:/Users/dtjld/workspace/AIoT/src/LiteOS_Lab/iot_link/network/dtls/mbedtls/mbedtls-2.16.2/library\ecp_curves.c ****     BYTES_TO_T_UINT_8( 0xF3, 0x48, 0x3A, 0x58, 0x56, 0x60, 0xAA, 0x28 ),
 499:C:/Users/dtjld/workspace/AIoT/src/LiteOS_Lab/iot_link/network/dtls/mbedtls/mbedtls-2.16.2/library\ecp_curves.c ****     BYTES_TO_T_UINT_8( 0x85, 0xC6, 0x82, 0x2D, 0x2F, 0xFF, 0x81, 0x28 ),
 500:C:/Users/dtjld/workspace/AIoT/src/LiteOS_Lab/iot_link/network/dtls/mbedtls/mbedtls-2.16.2/library\ecp_curves.c ****     BYTES_TO_T_UINT_8( 0xE6, 0x80, 0xA3, 0xE6, 0x2A, 0xA1, 0xCD, 0xAE ),
 501:C:/Users/dtjld/workspace/AIoT/src/LiteOS_Lab/iot_link/network/dtls/mbedtls/mbedtls-2.16.2/library\ecp_curves.c ****     BYTES_TO_T_UINT_8( 0x42, 0x68, 0xC6, 0x9B, 0x00, 0x9B, 0x4D, 0x7D ),
 502:C:/Users/dtjld/workspace/AIoT/src/LiteOS_Lab/iot_link/network/dtls/mbedtls/mbedtls-2.16.2/library\ecp_curves.c ****     BYTES_TO_T_UINT_8( 0x71, 0x08, 0x33, 0x70, 0xCA, 0x9C, 0x63, 0xD6 ),
 503:C:/Users/dtjld/workspace/AIoT/src/LiteOS_Lab/iot_link/network/dtls/mbedtls/mbedtls-2.16.2/library\ecp_curves.c ****     BYTES_TO_T_UINT_8( 0x0E, 0xD2, 0xC9, 0xB3, 0xB3, 0x8D, 0x30, 0xCB ),
 504:C:/Users/dtjld/workspace/AIoT/src/LiteOS_Lab/iot_link/network/dtls/mbedtls/mbedtls-2.16.2/library\ecp_curves.c ****     BYTES_TO_T_UINT_8( 0x07, 0xFC, 0xC9, 0x33, 0xAE, 0xE6, 0xD4, 0x3F ),
 505:C:/Users/dtjld/workspace/AIoT/src/LiteOS_Lab/iot_link/network/dtls/mbedtls/mbedtls-2.16.2/library\ecp_curves.c ****     BYTES_TO_T_UINT_8( 0x8B, 0xC4, 0xE9, 0xDB, 0xB8, 0x9D, 0xDD, 0xAA ),
 506:C:/Users/dtjld/workspace/AIoT/src/LiteOS_Lab/iot_link/network/dtls/mbedtls/mbedtls-2.16.2/library\ecp_curves.c **** };
 507:C:/Users/dtjld/workspace/AIoT/src/LiteOS_Lab/iot_link/network/dtls/mbedtls/mbedtls-2.16.2/library\ecp_curves.c **** static const mbedtls_mpi_uint brainpoolP512r1_a[] = {
 508:C:/Users/dtjld/workspace/AIoT/src/LiteOS_Lab/iot_link/network/dtls/mbedtls/mbedtls-2.16.2/library\ecp_curves.c ****     BYTES_TO_T_UINT_8( 0xCA, 0x94, 0xFC, 0x77, 0x4D, 0xAC, 0xC1, 0xE7 ),
 509:C:/Users/dtjld/workspace/AIoT/src/LiteOS_Lab/iot_link/network/dtls/mbedtls/mbedtls-2.16.2/library\ecp_curves.c ****     BYTES_TO_T_UINT_8( 0xB9, 0xC7, 0xF2, 0x2B, 0xA7, 0x17, 0x11, 0x7F ),
 510:C:/Users/dtjld/workspace/AIoT/src/LiteOS_Lab/iot_link/network/dtls/mbedtls/mbedtls-2.16.2/library\ecp_curves.c ****     BYTES_TO_T_UINT_8( 0xB5, 0xC8, 0x9A, 0x8B, 0xC9, 0xF1, 0x2E, 0x0A ),
 511:C:/Users/dtjld/workspace/AIoT/src/LiteOS_Lab/iot_link/network/dtls/mbedtls/mbedtls-2.16.2/library\ecp_curves.c ****     BYTES_TO_T_UINT_8( 0xA1, 0x3A, 0x25, 0xA8, 0x5A, 0x5D, 0xED, 0x2D ),
 512:C:/Users/dtjld/workspace/AIoT/src/LiteOS_Lab/iot_link/network/dtls/mbedtls/mbedtls-2.16.2/library\ecp_curves.c ****     BYTES_TO_T_UINT_8( 0xBC, 0x63, 0x98, 0xEA, 0xCA, 0x41, 0x34, 0xA8 ),
 513:C:/Users/dtjld/workspace/AIoT/src/LiteOS_Lab/iot_link/network/dtls/mbedtls/mbedtls-2.16.2/library\ecp_curves.c ****     BYTES_TO_T_UINT_8( 0x10, 0x16, 0xF9, 0x3D, 0x8D, 0xDD, 0xCB, 0x94 ),
 514:C:/Users/dtjld/workspace/AIoT/src/LiteOS_Lab/iot_link/network/dtls/mbedtls/mbedtls-2.16.2/library\ecp_curves.c ****     BYTES_TO_T_UINT_8( 0xC5, 0x4C, 0x23, 0xAC, 0x45, 0x71, 0x32, 0xE2 ),
 515:C:/Users/dtjld/workspace/AIoT/src/LiteOS_Lab/iot_link/network/dtls/mbedtls/mbedtls-2.16.2/library\ecp_curves.c ****     BYTES_TO_T_UINT_8( 0x89, 0x3B, 0x60, 0x8B, 0x31, 0xA3, 0x30, 0x78 ),
 516:C:/Users/dtjld/workspace/AIoT/src/LiteOS_Lab/iot_link/network/dtls/mbedtls/mbedtls-2.16.2/library\ecp_curves.c **** };
 517:C:/Users/dtjld/workspace/AIoT/src/LiteOS_Lab/iot_link/network/dtls/mbedtls/mbedtls-2.16.2/library\ecp_curves.c **** static const mbedtls_mpi_uint brainpoolP512r1_b[] = {
 518:C:/Users/dtjld/workspace/AIoT/src/LiteOS_Lab/iot_link/network/dtls/mbedtls/mbedtls-2.16.2/library\ecp_curves.c ****     BYTES_TO_T_UINT_8( 0x23, 0xF7, 0x16, 0x80, 0x63, 0xBD, 0x09, 0x28 ),
 519:C:/Users/dtjld/workspace/AIoT/src/LiteOS_Lab/iot_link/network/dtls/mbedtls/mbedtls-2.16.2/library\ecp_curves.c ****     BYTES_TO_T_UINT_8( 0xDD, 0xE5, 0xBA, 0x5E, 0xB7, 0x50, 0x40, 0x98 ),
 520:C:/Users/dtjld/workspace/AIoT/src/LiteOS_Lab/iot_link/network/dtls/mbedtls/mbedtls-2.16.2/library\ecp_curves.c ****     BYTES_TO_T_UINT_8( 0x67, 0x3E, 0x08, 0xDC, 0xCA, 0x94, 0xFC, 0x77 ),
 521:C:/Users/dtjld/workspace/AIoT/src/LiteOS_Lab/iot_link/network/dtls/mbedtls/mbedtls-2.16.2/library\ecp_curves.c ****     BYTES_TO_T_UINT_8( 0x4D, 0xAC, 0xC1, 0xE7, 0xB9, 0xC7, 0xF2, 0x2B ),
 522:C:/Users/dtjld/workspace/AIoT/src/LiteOS_Lab/iot_link/network/dtls/mbedtls/mbedtls-2.16.2/library\ecp_curves.c ****     BYTES_TO_T_UINT_8( 0xA7, 0x17, 0x11, 0x7F, 0xB5, 0xC8, 0x9A, 0x8B ),
 523:C:/Users/dtjld/workspace/AIoT/src/LiteOS_Lab/iot_link/network/dtls/mbedtls/mbedtls-2.16.2/library\ecp_curves.c ****     BYTES_TO_T_UINT_8( 0xC9, 0xF1, 0x2E, 0x0A, 0xA1, 0x3A, 0x25, 0xA8 ),
 524:C:/Users/dtjld/workspace/AIoT/src/LiteOS_Lab/iot_link/network/dtls/mbedtls/mbedtls-2.16.2/library\ecp_curves.c ****     BYTES_TO_T_UINT_8( 0x5A, 0x5D, 0xED, 0x2D, 0xBC, 0x63, 0x98, 0xEA ),
 525:C:/Users/dtjld/workspace/AIoT/src/LiteOS_Lab/iot_link/network/dtls/mbedtls/mbedtls-2.16.2/library\ecp_curves.c ****     BYTES_TO_T_UINT_8( 0xCA, 0x41, 0x34, 0xA8, 0x10, 0x16, 0xF9, 0x3D ),
 526:C:/Users/dtjld/workspace/AIoT/src/LiteOS_Lab/iot_link/network/dtls/mbedtls/mbedtls-2.16.2/library\ecp_curves.c **** };
 527:C:/Users/dtjld/workspace/AIoT/src/LiteOS_Lab/iot_link/network/dtls/mbedtls/mbedtls-2.16.2/library\ecp_curves.c **** static const mbedtls_mpi_uint brainpoolP512r1_gx[] = {
 528:C:/Users/dtjld/workspace/AIoT/src/LiteOS_Lab/iot_link/network/dtls/mbedtls/mbedtls-2.16.2/library\ecp_curves.c ****     BYTES_TO_T_UINT_8( 0x22, 0xF8, 0xB9, 0xBC, 0x09, 0x22, 0x35, 0x8B ),
 529:C:/Users/dtjld/workspace/AIoT/src/LiteOS_Lab/iot_link/network/dtls/mbedtls/mbedtls-2.16.2/library\ecp_curves.c ****     BYTES_TO_T_UINT_8( 0x68, 0x5E, 0x6A, 0x40, 0x47, 0x50, 0x6D, 0x7C ),
 530:C:/Users/dtjld/workspace/AIoT/src/LiteOS_Lab/iot_link/network/dtls/mbedtls/mbedtls-2.16.2/library\ecp_curves.c ****     BYTES_TO_T_UINT_8( 0x5F, 0x7D, 0xB9, 0x93, 0x7B, 0x68, 0xD1, 0x50 ),
 531:C:/Users/dtjld/workspace/AIoT/src/LiteOS_Lab/iot_link/network/dtls/mbedtls/mbedtls-2.16.2/library\ecp_curves.c ****     BYTES_TO_T_UINT_8( 0x8D, 0xD4, 0xD0, 0xE2, 0x78, 0x1F, 0x3B, 0xFF ),
 532:C:/Users/dtjld/workspace/AIoT/src/LiteOS_Lab/iot_link/network/dtls/mbedtls/mbedtls-2.16.2/library\ecp_curves.c ****     BYTES_TO_T_UINT_8( 0x8E, 0x09, 0xD0, 0xF4, 0xEE, 0x62, 0x3B, 0xB4 ),
 533:C:/Users/dtjld/workspace/AIoT/src/LiteOS_Lab/iot_link/network/dtls/mbedtls/mbedtls-2.16.2/library\ecp_curves.c ****     BYTES_TO_T_UINT_8( 0xC1, 0x16, 0xD9, 0xB5, 0x70, 0x9F, 0xED, 0x85 ),
 534:C:/Users/dtjld/workspace/AIoT/src/LiteOS_Lab/iot_link/network/dtls/mbedtls/mbedtls-2.16.2/library\ecp_curves.c ****     BYTES_TO_T_UINT_8( 0x93, 0x6A, 0x4C, 0x9C, 0x2E, 0x32, 0x21, 0x5A ),
 535:C:/Users/dtjld/workspace/AIoT/src/LiteOS_Lab/iot_link/network/dtls/mbedtls/mbedtls-2.16.2/library\ecp_curves.c ****     BYTES_TO_T_UINT_8( 0x64, 0xD9, 0x2E, 0xD8, 0xBD, 0xE4, 0xAE, 0x81 ),
 536:C:/Users/dtjld/workspace/AIoT/src/LiteOS_Lab/iot_link/network/dtls/mbedtls/mbedtls-2.16.2/library\ecp_curves.c **** };
 537:C:/Users/dtjld/workspace/AIoT/src/LiteOS_Lab/iot_link/network/dtls/mbedtls/mbedtls-2.16.2/library\ecp_curves.c **** static const mbedtls_mpi_uint brainpoolP512r1_gy[] = {
 538:C:/Users/dtjld/workspace/AIoT/src/LiteOS_Lab/iot_link/network/dtls/mbedtls/mbedtls-2.16.2/library\ecp_curves.c ****     BYTES_TO_T_UINT_8( 0x92, 0x08, 0xD8, 0x3A, 0x0F, 0x1E, 0xCD, 0x78 ),
 539:C:/Users/dtjld/workspace/AIoT/src/LiteOS_Lab/iot_link/network/dtls/mbedtls/mbedtls-2.16.2/library\ecp_curves.c ****     BYTES_TO_T_UINT_8( 0x06, 0x54, 0xF0, 0xA8, 0x2F, 0x2B, 0xCA, 0xD1 ),
 540:C:/Users/dtjld/workspace/AIoT/src/LiteOS_Lab/iot_link/network/dtls/mbedtls/mbedtls-2.16.2/library\ecp_curves.c ****     BYTES_TO_T_UINT_8( 0xAE, 0x63, 0x27, 0x8A, 0xD8, 0x4B, 0xCA, 0x5B ),
 541:C:/Users/dtjld/workspace/AIoT/src/LiteOS_Lab/iot_link/network/dtls/mbedtls/mbedtls-2.16.2/library\ecp_curves.c ****     BYTES_TO_T_UINT_8( 0x5E, 0x48, 0x5F, 0x4A, 0x49, 0xDE, 0xDC, 0xB2 ),
 542:C:/Users/dtjld/workspace/AIoT/src/LiteOS_Lab/iot_link/network/dtls/mbedtls/mbedtls-2.16.2/library\ecp_curves.c ****     BYTES_TO_T_UINT_8( 0x11, 0x81, 0x1F, 0x88, 0x5B, 0xC5, 0x00, 0xA0 ),
 543:C:/Users/dtjld/workspace/AIoT/src/LiteOS_Lab/iot_link/network/dtls/mbedtls/mbedtls-2.16.2/library\ecp_curves.c ****     BYTES_TO_T_UINT_8( 0x1A, 0x7B, 0xA5, 0x24, 0x00, 0xF7, 0x09, 0xF2 ),
 544:C:/Users/dtjld/workspace/AIoT/src/LiteOS_Lab/iot_link/network/dtls/mbedtls/mbedtls-2.16.2/library\ecp_curves.c ****     BYTES_TO_T_UINT_8( 0xFD, 0x22, 0x78, 0xCF, 0xA9, 0xBF, 0xEA, 0xC0 ),
 545:C:/Users/dtjld/workspace/AIoT/src/LiteOS_Lab/iot_link/network/dtls/mbedtls/mbedtls-2.16.2/library\ecp_curves.c ****     BYTES_TO_T_UINT_8( 0xEC, 0x32, 0x63, 0x56, 0x5D, 0x38, 0xDE, 0x7D ),
ARM GAS  C:\Users\dtjld\AppData\Local\Temp\ccEzFpLd.s 			page 24


 546:C:/Users/dtjld/workspace/AIoT/src/LiteOS_Lab/iot_link/network/dtls/mbedtls/mbedtls-2.16.2/library\ecp_curves.c **** };
 547:C:/Users/dtjld/workspace/AIoT/src/LiteOS_Lab/iot_link/network/dtls/mbedtls/mbedtls-2.16.2/library\ecp_curves.c **** static const mbedtls_mpi_uint brainpoolP512r1_n[] = {
 548:C:/Users/dtjld/workspace/AIoT/src/LiteOS_Lab/iot_link/network/dtls/mbedtls/mbedtls-2.16.2/library\ecp_curves.c ****     BYTES_TO_T_UINT_8( 0x69, 0x00, 0xA9, 0x9C, 0x82, 0x96, 0x87, 0xB5 ),
 549:C:/Users/dtjld/workspace/AIoT/src/LiteOS_Lab/iot_link/network/dtls/mbedtls/mbedtls-2.16.2/library\ecp_curves.c ****     BYTES_TO_T_UINT_8( 0xDD, 0xDA, 0x5D, 0x08, 0x81, 0xD3, 0xB1, 0x1D ),
 550:C:/Users/dtjld/workspace/AIoT/src/LiteOS_Lab/iot_link/network/dtls/mbedtls/mbedtls-2.16.2/library\ecp_curves.c ****     BYTES_TO_T_UINT_8( 0x47, 0x10, 0xAC, 0x7F, 0x19, 0x61, 0x86, 0x41 ),
 551:C:/Users/dtjld/workspace/AIoT/src/LiteOS_Lab/iot_link/network/dtls/mbedtls/mbedtls-2.16.2/library\ecp_curves.c ****     BYTES_TO_T_UINT_8( 0x19, 0x26, 0xA9, 0x4C, 0x41, 0x5C, 0x3E, 0x55 ),
 552:C:/Users/dtjld/workspace/AIoT/src/LiteOS_Lab/iot_link/network/dtls/mbedtls/mbedtls-2.16.2/library\ecp_curves.c ****     BYTES_TO_T_UINT_8( 0x70, 0x08, 0x33, 0x70, 0xCA, 0x9C, 0x63, 0xD6 ),
 553:C:/Users/dtjld/workspace/AIoT/src/LiteOS_Lab/iot_link/network/dtls/mbedtls/mbedtls-2.16.2/library\ecp_curves.c ****     BYTES_TO_T_UINT_8( 0x0E, 0xD2, 0xC9, 0xB3, 0xB3, 0x8D, 0x30, 0xCB ),
 554:C:/Users/dtjld/workspace/AIoT/src/LiteOS_Lab/iot_link/network/dtls/mbedtls/mbedtls-2.16.2/library\ecp_curves.c ****     BYTES_TO_T_UINT_8( 0x07, 0xFC, 0xC9, 0x33, 0xAE, 0xE6, 0xD4, 0x3F ),
 555:C:/Users/dtjld/workspace/AIoT/src/LiteOS_Lab/iot_link/network/dtls/mbedtls/mbedtls-2.16.2/library\ecp_curves.c ****     BYTES_TO_T_UINT_8( 0x8B, 0xC4, 0xE9, 0xDB, 0xB8, 0x9D, 0xDD, 0xAA ),
 556:C:/Users/dtjld/workspace/AIoT/src/LiteOS_Lab/iot_link/network/dtls/mbedtls/mbedtls-2.16.2/library\ecp_curves.c **** };
 557:C:/Users/dtjld/workspace/AIoT/src/LiteOS_Lab/iot_link/network/dtls/mbedtls/mbedtls-2.16.2/library\ecp_curves.c **** #endif /* MBEDTLS_ECP_DP_BP512R1_ENABLED */
 558:C:/Users/dtjld/workspace/AIoT/src/LiteOS_Lab/iot_link/network/dtls/mbedtls/mbedtls-2.16.2/library\ecp_curves.c **** 
 559:C:/Users/dtjld/workspace/AIoT/src/LiteOS_Lab/iot_link/network/dtls/mbedtls/mbedtls-2.16.2/library\ecp_curves.c **** /*
 560:C:/Users/dtjld/workspace/AIoT/src/LiteOS_Lab/iot_link/network/dtls/mbedtls/mbedtls-2.16.2/library\ecp_curves.c ****  * Create an MPI from embedded constants
 561:C:/Users/dtjld/workspace/AIoT/src/LiteOS_Lab/iot_link/network/dtls/mbedtls/mbedtls-2.16.2/library\ecp_curves.c ****  * (assumes len is an exact multiple of sizeof mbedtls_mpi_uint)
 562:C:/Users/dtjld/workspace/AIoT/src/LiteOS_Lab/iot_link/network/dtls/mbedtls/mbedtls-2.16.2/library\ecp_curves.c ****  */
 563:C:/Users/dtjld/workspace/AIoT/src/LiteOS_Lab/iot_link/network/dtls/mbedtls/mbedtls-2.16.2/library\ecp_curves.c **** static inline void ecp_mpi_load( mbedtls_mpi *X, const mbedtls_mpi_uint *p, size_t len )
 564:C:/Users/dtjld/workspace/AIoT/src/LiteOS_Lab/iot_link/network/dtls/mbedtls/mbedtls-2.16.2/library\ecp_curves.c **** {
 890              		.loc 1 564 0
 891              		.cfi_startproc
 892              		@ args = 0, pretend = 0, frame = 16
 893              		@ frame_needed = 1, uses_anonymous_args = 0
 894              		@ link register save eliminated.
 895 0000 80B4     		push	{r7}
 896              	.LCFI0:
 897              		.cfi_def_cfa_offset 4
 898              		.cfi_offset 7, -4
 899 0002 85B0     		sub	sp, sp, #20
 900              	.LCFI1:
 901              		.cfi_def_cfa_offset 24
 902 0004 00AF     		add	r7, sp, #0
 903              	.LCFI2:
 904              		.cfi_def_cfa_register 7
 905 0006 F860     		str	r0, [r7, #12]
 906 0008 B960     		str	r1, [r7, #8]
 907 000a 7A60     		str	r2, [r7, #4]
 565:C:/Users/dtjld/workspace/AIoT/src/LiteOS_Lab/iot_link/network/dtls/mbedtls/mbedtls-2.16.2/library\ecp_curves.c ****     X->s = 1;
 908              		.loc 1 565 0
 909 000c FB68     		ldr	r3, [r7, #12]
 910 000e 0122     		movs	r2, #1
 911 0010 1A60     		str	r2, [r3]
 566:C:/Users/dtjld/workspace/AIoT/src/LiteOS_Lab/iot_link/network/dtls/mbedtls/mbedtls-2.16.2/library\ecp_curves.c ****     X->n = len / sizeof( mbedtls_mpi_uint );
 912              		.loc 1 566 0
 913 0012 7B68     		ldr	r3, [r7, #4]
 914 0014 9A08     		lsrs	r2, r3, #2
 915 0016 FB68     		ldr	r3, [r7, #12]
 916 0018 5A60     		str	r2, [r3, #4]
 567:C:/Users/dtjld/workspace/AIoT/src/LiteOS_Lab/iot_link/network/dtls/mbedtls/mbedtls-2.16.2/library\ecp_curves.c ****     X->p = (mbedtls_mpi_uint *) p;
 917              		.loc 1 567 0
 918 001a FB68     		ldr	r3, [r7, #12]
 919 001c BA68     		ldr	r2, [r7, #8]
 920 001e 9A60     		str	r2, [r3, #8]
 568:C:/Users/dtjld/workspace/AIoT/src/LiteOS_Lab/iot_link/network/dtls/mbedtls/mbedtls-2.16.2/library\ecp_curves.c **** }
 921              		.loc 1 568 0
 922 0020 00BF     		nop
 923 0022 1437     		adds	r7, r7, #20
ARM GAS  C:\Users\dtjld\AppData\Local\Temp\ccEzFpLd.s 			page 25


 924              	.LCFI3:
 925              		.cfi_def_cfa_offset 4
 926 0024 BD46     		mov	sp, r7
 927              	.LCFI4:
 928              		.cfi_def_cfa_register 13
 929              		@ sp needed
 930 0026 5DF8047B 		ldr	r7, [sp], #4
 931              	.LCFI5:
 932              		.cfi_restore 7
 933              		.cfi_def_cfa_offset 0
 934 002a 7047     		bx	lr
 935              		.cfi_endproc
 936              	.LFE0:
 938              		.section	.text.ecp_mpi_set1,"ax",%progbits
 939              		.align	1
 940              		.syntax unified
 941              		.thumb
 942              		.thumb_func
 943              		.fpu fpv4-sp-d16
 945              	ecp_mpi_set1:
 946              	.LFB1:
 569:C:/Users/dtjld/workspace/AIoT/src/LiteOS_Lab/iot_link/network/dtls/mbedtls/mbedtls-2.16.2/library\ecp_curves.c **** 
 570:C:/Users/dtjld/workspace/AIoT/src/LiteOS_Lab/iot_link/network/dtls/mbedtls/mbedtls-2.16.2/library\ecp_curves.c **** /*
 571:C:/Users/dtjld/workspace/AIoT/src/LiteOS_Lab/iot_link/network/dtls/mbedtls/mbedtls-2.16.2/library\ecp_curves.c ****  * Set an MPI to static value 1
 572:C:/Users/dtjld/workspace/AIoT/src/LiteOS_Lab/iot_link/network/dtls/mbedtls/mbedtls-2.16.2/library\ecp_curves.c ****  */
 573:C:/Users/dtjld/workspace/AIoT/src/LiteOS_Lab/iot_link/network/dtls/mbedtls/mbedtls-2.16.2/library\ecp_curves.c **** static inline void ecp_mpi_set1( mbedtls_mpi *X )
 574:C:/Users/dtjld/workspace/AIoT/src/LiteOS_Lab/iot_link/network/dtls/mbedtls/mbedtls-2.16.2/library\ecp_curves.c **** {
 947              		.loc 1 574 0
 948              		.cfi_startproc
 949              		@ args = 0, pretend = 0, frame = 8
 950              		@ frame_needed = 1, uses_anonymous_args = 0
 951              		@ link register save eliminated.
 952 0000 80B4     		push	{r7}
 953              	.LCFI6:
 954              		.cfi_def_cfa_offset 4
 955              		.cfi_offset 7, -4
 956 0002 83B0     		sub	sp, sp, #12
 957              	.LCFI7:
 958              		.cfi_def_cfa_offset 16
 959 0004 00AF     		add	r7, sp, #0
 960              	.LCFI8:
 961              		.cfi_def_cfa_register 7
 962 0006 7860     		str	r0, [r7, #4]
 575:C:/Users/dtjld/workspace/AIoT/src/LiteOS_Lab/iot_link/network/dtls/mbedtls/mbedtls-2.16.2/library\ecp_curves.c ****     static mbedtls_mpi_uint one[] = { 1 };
 576:C:/Users/dtjld/workspace/AIoT/src/LiteOS_Lab/iot_link/network/dtls/mbedtls/mbedtls-2.16.2/library\ecp_curves.c ****     X->s = 1;
 963              		.loc 1 576 0
 964 0008 7B68     		ldr	r3, [r7, #4]
 965 000a 0122     		movs	r2, #1
 966 000c 1A60     		str	r2, [r3]
 577:C:/Users/dtjld/workspace/AIoT/src/LiteOS_Lab/iot_link/network/dtls/mbedtls/mbedtls-2.16.2/library\ecp_curves.c ****     X->n = 1;
 967              		.loc 1 577 0
 968 000e 7B68     		ldr	r3, [r7, #4]
 969 0010 0122     		movs	r2, #1
 970 0012 5A60     		str	r2, [r3, #4]
 578:C:/Users/dtjld/workspace/AIoT/src/LiteOS_Lab/iot_link/network/dtls/mbedtls/mbedtls-2.16.2/library\ecp_curves.c ****     X->p = one;
 971              		.loc 1 578 0
 972 0014 7B68     		ldr	r3, [r7, #4]
ARM GAS  C:\Users\dtjld\AppData\Local\Temp\ccEzFpLd.s 			page 26


 973 0016 044A     		ldr	r2, .L3
 974 0018 9A60     		str	r2, [r3, #8]
 579:C:/Users/dtjld/workspace/AIoT/src/LiteOS_Lab/iot_link/network/dtls/mbedtls/mbedtls-2.16.2/library\ecp_curves.c **** }
 975              		.loc 1 579 0
 976 001a 00BF     		nop
 977 001c 0C37     		adds	r7, r7, #12
 978              	.LCFI9:
 979              		.cfi_def_cfa_offset 4
 980 001e BD46     		mov	sp, r7
 981              	.LCFI10:
 982              		.cfi_def_cfa_register 13
 983              		@ sp needed
 984 0020 5DF8047B 		ldr	r7, [sp], #4
 985              	.LCFI11:
 986              		.cfi_restore 7
 987              		.cfi_def_cfa_offset 0
 988 0024 7047     		bx	lr
 989              	.L4:
 990 0026 00BF     		.align	2
 991              	.L3:
 992 0028 00000000 		.word	one.6302
 993              		.cfi_endproc
 994              	.LFE1:
 996              		.section	.text.ecp_group_load,"ax",%progbits
 997              		.align	1
 998              		.syntax unified
 999              		.thumb
 1000              		.thumb_func
 1001              		.fpu fpv4-sp-d16
 1003              	ecp_group_load:
 1004              	.LFB2:
 580:C:/Users/dtjld/workspace/AIoT/src/LiteOS_Lab/iot_link/network/dtls/mbedtls/mbedtls-2.16.2/library\ecp_curves.c **** 
 581:C:/Users/dtjld/workspace/AIoT/src/LiteOS_Lab/iot_link/network/dtls/mbedtls/mbedtls-2.16.2/library\ecp_curves.c **** /*
 582:C:/Users/dtjld/workspace/AIoT/src/LiteOS_Lab/iot_link/network/dtls/mbedtls/mbedtls-2.16.2/library\ecp_curves.c ****  * Make group available from embedded constants
 583:C:/Users/dtjld/workspace/AIoT/src/LiteOS_Lab/iot_link/network/dtls/mbedtls/mbedtls-2.16.2/library\ecp_curves.c ****  */
 584:C:/Users/dtjld/workspace/AIoT/src/LiteOS_Lab/iot_link/network/dtls/mbedtls/mbedtls-2.16.2/library\ecp_curves.c **** static int ecp_group_load( mbedtls_ecp_group *grp,
 585:C:/Users/dtjld/workspace/AIoT/src/LiteOS_Lab/iot_link/network/dtls/mbedtls/mbedtls-2.16.2/library\ecp_curves.c ****                            const mbedtls_mpi_uint *p,  size_t plen,
 586:C:/Users/dtjld/workspace/AIoT/src/LiteOS_Lab/iot_link/network/dtls/mbedtls/mbedtls-2.16.2/library\ecp_curves.c ****                            const mbedtls_mpi_uint *a,  size_t alen,
 587:C:/Users/dtjld/workspace/AIoT/src/LiteOS_Lab/iot_link/network/dtls/mbedtls/mbedtls-2.16.2/library\ecp_curves.c ****                            const mbedtls_mpi_uint *b,  size_t blen,
 588:C:/Users/dtjld/workspace/AIoT/src/LiteOS_Lab/iot_link/network/dtls/mbedtls/mbedtls-2.16.2/library\ecp_curves.c ****                            const mbedtls_mpi_uint *gx, size_t gxlen,
 589:C:/Users/dtjld/workspace/AIoT/src/LiteOS_Lab/iot_link/network/dtls/mbedtls/mbedtls-2.16.2/library\ecp_curves.c ****                            const mbedtls_mpi_uint *gy, size_t gylen,
 590:C:/Users/dtjld/workspace/AIoT/src/LiteOS_Lab/iot_link/network/dtls/mbedtls/mbedtls-2.16.2/library\ecp_curves.c ****                            const mbedtls_mpi_uint *n,  size_t nlen)
 591:C:/Users/dtjld/workspace/AIoT/src/LiteOS_Lab/iot_link/network/dtls/mbedtls/mbedtls-2.16.2/library\ecp_curves.c **** {
 1005              		.loc 1 591 0
 1006              		.cfi_startproc
 1007              		@ args = 36, pretend = 0, frame = 16
 1008              		@ frame_needed = 1, uses_anonymous_args = 0
 1009 0000 80B5     		push	{r7, lr}
 1010              	.LCFI12:
 1011              		.cfi_def_cfa_offset 8
 1012              		.cfi_offset 7, -8
 1013              		.cfi_offset 14, -4
 1014 0002 84B0     		sub	sp, sp, #16
 1015              	.LCFI13:
 1016              		.cfi_def_cfa_offset 24
 1017 0004 00AF     		add	r7, sp, #0
 1018              	.LCFI14:
ARM GAS  C:\Users\dtjld\AppData\Local\Temp\ccEzFpLd.s 			page 27


 1019              		.cfi_def_cfa_register 7
 1020 0006 F860     		str	r0, [r7, #12]
 1021 0008 B960     		str	r1, [r7, #8]
 1022 000a 7A60     		str	r2, [r7, #4]
 1023 000c 3B60     		str	r3, [r7]
 592:C:/Users/dtjld/workspace/AIoT/src/LiteOS_Lab/iot_link/network/dtls/mbedtls/mbedtls-2.16.2/library\ecp_curves.c ****     ecp_mpi_load( &grp->P, p, plen );
 1024              		.loc 1 592 0
 1025 000e FB68     		ldr	r3, [r7, #12]
 1026 0010 0433     		adds	r3, r3, #4
 1027 0012 7A68     		ldr	r2, [r7, #4]
 1028 0014 B968     		ldr	r1, [r7, #8]
 1029 0016 1846     		mov	r0, r3
 1030 0018 FFF7FEFF 		bl	ecp_mpi_load
 593:C:/Users/dtjld/workspace/AIoT/src/LiteOS_Lab/iot_link/network/dtls/mbedtls/mbedtls-2.16.2/library\ecp_curves.c ****     if( a != NULL )
 1031              		.loc 1 593 0
 1032 001c 3B68     		ldr	r3, [r7]
 1033 001e 002B     		cmp	r3, #0
 1034 0020 06D0     		beq	.L6
 594:C:/Users/dtjld/workspace/AIoT/src/LiteOS_Lab/iot_link/network/dtls/mbedtls/mbedtls-2.16.2/library\ecp_curves.c ****         ecp_mpi_load( &grp->A, a, alen );
 1035              		.loc 1 594 0
 1036 0022 FB68     		ldr	r3, [r7, #12]
 1037 0024 1033     		adds	r3, r3, #16
 1038 0026 BA69     		ldr	r2, [r7, #24]
 1039 0028 3968     		ldr	r1, [r7]
 1040 002a 1846     		mov	r0, r3
 1041 002c FFF7FEFF 		bl	ecp_mpi_load
 1042              	.L6:
 595:C:/Users/dtjld/workspace/AIoT/src/LiteOS_Lab/iot_link/network/dtls/mbedtls/mbedtls-2.16.2/library\ecp_curves.c ****     ecp_mpi_load( &grp->B, b, blen );
 1043              		.loc 1 595 0
 1044 0030 FB68     		ldr	r3, [r7, #12]
 1045 0032 1C33     		adds	r3, r3, #28
 1046 0034 3A6A     		ldr	r2, [r7, #32]
 1047 0036 F969     		ldr	r1, [r7, #28]
 1048 0038 1846     		mov	r0, r3
 1049 003a FFF7FEFF 		bl	ecp_mpi_load
 596:C:/Users/dtjld/workspace/AIoT/src/LiteOS_Lab/iot_link/network/dtls/mbedtls/mbedtls-2.16.2/library\ecp_curves.c ****     ecp_mpi_load( &grp->N, n, nlen );
 1050              		.loc 1 596 0
 1051 003e FB68     		ldr	r3, [r7, #12]
 1052 0040 4C33     		adds	r3, r3, #76
 1053 0042 BA6B     		ldr	r2, [r7, #56]
 1054 0044 796B     		ldr	r1, [r7, #52]
 1055 0046 1846     		mov	r0, r3
 1056 0048 FFF7FEFF 		bl	ecp_mpi_load
 597:C:/Users/dtjld/workspace/AIoT/src/LiteOS_Lab/iot_link/network/dtls/mbedtls/mbedtls-2.16.2/library\ecp_curves.c **** 
 598:C:/Users/dtjld/workspace/AIoT/src/LiteOS_Lab/iot_link/network/dtls/mbedtls/mbedtls-2.16.2/library\ecp_curves.c ****     ecp_mpi_load( &grp->G.X, gx, gxlen );
 1057              		.loc 1 598 0
 1058 004c FB68     		ldr	r3, [r7, #12]
 1059 004e 2833     		adds	r3, r3, #40
 1060 0050 BA6A     		ldr	r2, [r7, #40]
 1061 0052 796A     		ldr	r1, [r7, #36]
 1062 0054 1846     		mov	r0, r3
 1063 0056 FFF7FEFF 		bl	ecp_mpi_load
 599:C:/Users/dtjld/workspace/AIoT/src/LiteOS_Lab/iot_link/network/dtls/mbedtls/mbedtls-2.16.2/library\ecp_curves.c ****     ecp_mpi_load( &grp->G.Y, gy, gylen );
 1064              		.loc 1 599 0
 1065 005a FB68     		ldr	r3, [r7, #12]
 1066 005c 3433     		adds	r3, r3, #52
 1067 005e 3A6B     		ldr	r2, [r7, #48]
ARM GAS  C:\Users\dtjld\AppData\Local\Temp\ccEzFpLd.s 			page 28


 1068 0060 F96A     		ldr	r1, [r7, #44]
 1069 0062 1846     		mov	r0, r3
 1070 0064 FFF7FEFF 		bl	ecp_mpi_load
 600:C:/Users/dtjld/workspace/AIoT/src/LiteOS_Lab/iot_link/network/dtls/mbedtls/mbedtls-2.16.2/library\ecp_curves.c ****     ecp_mpi_set1( &grp->G.Z );
 1071              		.loc 1 600 0
 1072 0068 FB68     		ldr	r3, [r7, #12]
 1073 006a 4033     		adds	r3, r3, #64
 1074 006c 1846     		mov	r0, r3
 1075 006e FFF7FEFF 		bl	ecp_mpi_set1
 601:C:/Users/dtjld/workspace/AIoT/src/LiteOS_Lab/iot_link/network/dtls/mbedtls/mbedtls-2.16.2/library\ecp_curves.c **** 
 602:C:/Users/dtjld/workspace/AIoT/src/LiteOS_Lab/iot_link/network/dtls/mbedtls/mbedtls-2.16.2/library\ecp_curves.c ****     grp->pbits = mbedtls_mpi_bitlen( &grp->P );
 1076              		.loc 1 602 0
 1077 0072 FB68     		ldr	r3, [r7, #12]
 1078 0074 0433     		adds	r3, r3, #4
 1079 0076 1846     		mov	r0, r3
 1080 0078 FFF7FEFF 		bl	mbedtls_mpi_bitlen
 1081 007c 0246     		mov	r2, r0
 1082 007e FB68     		ldr	r3, [r7, #12]
 1083 0080 9A65     		str	r2, [r3, #88]
 603:C:/Users/dtjld/workspace/AIoT/src/LiteOS_Lab/iot_link/network/dtls/mbedtls/mbedtls-2.16.2/library\ecp_curves.c ****     grp->nbits = mbedtls_mpi_bitlen( &grp->N );
 1084              		.loc 1 603 0
 1085 0082 FB68     		ldr	r3, [r7, #12]
 1086 0084 4C33     		adds	r3, r3, #76
 1087 0086 1846     		mov	r0, r3
 1088 0088 FFF7FEFF 		bl	mbedtls_mpi_bitlen
 1089 008c 0246     		mov	r2, r0
 1090 008e FB68     		ldr	r3, [r7, #12]
 1091 0090 DA65     		str	r2, [r3, #92]
 604:C:/Users/dtjld/workspace/AIoT/src/LiteOS_Lab/iot_link/network/dtls/mbedtls/mbedtls-2.16.2/library\ecp_curves.c **** 
 605:C:/Users/dtjld/workspace/AIoT/src/LiteOS_Lab/iot_link/network/dtls/mbedtls/mbedtls-2.16.2/library\ecp_curves.c ****     grp->h = 1;
 1092              		.loc 1 605 0
 1093 0092 FB68     		ldr	r3, [r7, #12]
 1094 0094 0122     		movs	r2, #1
 1095 0096 1A66     		str	r2, [r3, #96]
 606:C:/Users/dtjld/workspace/AIoT/src/LiteOS_Lab/iot_link/network/dtls/mbedtls/mbedtls-2.16.2/library\ecp_curves.c **** 
 607:C:/Users/dtjld/workspace/AIoT/src/LiteOS_Lab/iot_link/network/dtls/mbedtls/mbedtls-2.16.2/library\ecp_curves.c ****     return( 0 );
 1096              		.loc 1 607 0
 1097 0098 0023     		movs	r3, #0
 608:C:/Users/dtjld/workspace/AIoT/src/LiteOS_Lab/iot_link/network/dtls/mbedtls/mbedtls-2.16.2/library\ecp_curves.c **** }
 1098              		.loc 1 608 0
 1099 009a 1846     		mov	r0, r3
 1100 009c 1037     		adds	r7, r7, #16
 1101              	.LCFI15:
 1102              		.cfi_def_cfa_offset 8
 1103 009e BD46     		mov	sp, r7
 1104              	.LCFI16:
 1105              		.cfi_def_cfa_register 13
 1106              		@ sp needed
 1107 00a0 80BD     		pop	{r7, pc}
 1108              		.cfi_endproc
 1109              	.LFE2:
 1111              		.section	.rodata
 1112              		.align	2
 1113              	.LC0:
 1114 0000 30314442 		.ascii	"01DB42\000"
 1114      343200
 1115 0007 00       		.align	2
ARM GAS  C:\Users\dtjld\AppData\Local\Temp\ccEzFpLd.s 			page 29


 1116              	.LC1:
 1117 0008 31344445 		.ascii	"14DEF9DEA2F79CD65812631A5CF5D3ED\000"
 1117      46394445 
 1117      41324637 
 1117      39434436 
 1117      35383132 
 1118              		.section	.text.ecp_use_curve25519,"ax",%progbits
 1119              		.align	1
 1120              		.syntax unified
 1121              		.thumb
 1122              		.thumb_func
 1123              		.fpu fpv4-sp-d16
 1125              	ecp_use_curve25519:
 1126              	.LFB3:
 609:C:/Users/dtjld/workspace/AIoT/src/LiteOS_Lab/iot_link/network/dtls/mbedtls/mbedtls-2.16.2/library\ecp_curves.c **** 
 610:C:/Users/dtjld/workspace/AIoT/src/LiteOS_Lab/iot_link/network/dtls/mbedtls/mbedtls-2.16.2/library\ecp_curves.c **** #if defined(MBEDTLS_ECP_NIST_OPTIM)
 611:C:/Users/dtjld/workspace/AIoT/src/LiteOS_Lab/iot_link/network/dtls/mbedtls/mbedtls-2.16.2/library\ecp_curves.c **** /* Forward declarations */
 612:C:/Users/dtjld/workspace/AIoT/src/LiteOS_Lab/iot_link/network/dtls/mbedtls/mbedtls-2.16.2/library\ecp_curves.c **** #if defined(MBEDTLS_ECP_DP_SECP192R1_ENABLED)
 613:C:/Users/dtjld/workspace/AIoT/src/LiteOS_Lab/iot_link/network/dtls/mbedtls/mbedtls-2.16.2/library\ecp_curves.c **** static int ecp_mod_p192( mbedtls_mpi * );
 614:C:/Users/dtjld/workspace/AIoT/src/LiteOS_Lab/iot_link/network/dtls/mbedtls/mbedtls-2.16.2/library\ecp_curves.c **** #endif
 615:C:/Users/dtjld/workspace/AIoT/src/LiteOS_Lab/iot_link/network/dtls/mbedtls/mbedtls-2.16.2/library\ecp_curves.c **** #if defined(MBEDTLS_ECP_DP_SECP224R1_ENABLED)
 616:C:/Users/dtjld/workspace/AIoT/src/LiteOS_Lab/iot_link/network/dtls/mbedtls/mbedtls-2.16.2/library\ecp_curves.c **** static int ecp_mod_p224( mbedtls_mpi * );
 617:C:/Users/dtjld/workspace/AIoT/src/LiteOS_Lab/iot_link/network/dtls/mbedtls/mbedtls-2.16.2/library\ecp_curves.c **** #endif
 618:C:/Users/dtjld/workspace/AIoT/src/LiteOS_Lab/iot_link/network/dtls/mbedtls/mbedtls-2.16.2/library\ecp_curves.c **** #if defined(MBEDTLS_ECP_DP_SECP256R1_ENABLED)
 619:C:/Users/dtjld/workspace/AIoT/src/LiteOS_Lab/iot_link/network/dtls/mbedtls/mbedtls-2.16.2/library\ecp_curves.c **** static int ecp_mod_p256( mbedtls_mpi * );
 620:C:/Users/dtjld/workspace/AIoT/src/LiteOS_Lab/iot_link/network/dtls/mbedtls/mbedtls-2.16.2/library\ecp_curves.c **** #endif
 621:C:/Users/dtjld/workspace/AIoT/src/LiteOS_Lab/iot_link/network/dtls/mbedtls/mbedtls-2.16.2/library\ecp_curves.c **** #if defined(MBEDTLS_ECP_DP_SECP384R1_ENABLED)
 622:C:/Users/dtjld/workspace/AIoT/src/LiteOS_Lab/iot_link/network/dtls/mbedtls/mbedtls-2.16.2/library\ecp_curves.c **** static int ecp_mod_p384( mbedtls_mpi * );
 623:C:/Users/dtjld/workspace/AIoT/src/LiteOS_Lab/iot_link/network/dtls/mbedtls/mbedtls-2.16.2/library\ecp_curves.c **** #endif
 624:C:/Users/dtjld/workspace/AIoT/src/LiteOS_Lab/iot_link/network/dtls/mbedtls/mbedtls-2.16.2/library\ecp_curves.c **** #if defined(MBEDTLS_ECP_DP_SECP521R1_ENABLED)
 625:C:/Users/dtjld/workspace/AIoT/src/LiteOS_Lab/iot_link/network/dtls/mbedtls/mbedtls-2.16.2/library\ecp_curves.c **** static int ecp_mod_p521( mbedtls_mpi * );
 626:C:/Users/dtjld/workspace/AIoT/src/LiteOS_Lab/iot_link/network/dtls/mbedtls/mbedtls-2.16.2/library\ecp_curves.c **** #endif
 627:C:/Users/dtjld/workspace/AIoT/src/LiteOS_Lab/iot_link/network/dtls/mbedtls/mbedtls-2.16.2/library\ecp_curves.c **** 
 628:C:/Users/dtjld/workspace/AIoT/src/LiteOS_Lab/iot_link/network/dtls/mbedtls/mbedtls-2.16.2/library\ecp_curves.c **** #define NIST_MODP( P )      grp->modp = ecp_mod_ ## P;
 629:C:/Users/dtjld/workspace/AIoT/src/LiteOS_Lab/iot_link/network/dtls/mbedtls/mbedtls-2.16.2/library\ecp_curves.c **** #else
 630:C:/Users/dtjld/workspace/AIoT/src/LiteOS_Lab/iot_link/network/dtls/mbedtls/mbedtls-2.16.2/library\ecp_curves.c **** #define NIST_MODP( P )
 631:C:/Users/dtjld/workspace/AIoT/src/LiteOS_Lab/iot_link/network/dtls/mbedtls/mbedtls-2.16.2/library\ecp_curves.c **** #endif /* MBEDTLS_ECP_NIST_OPTIM */
 632:C:/Users/dtjld/workspace/AIoT/src/LiteOS_Lab/iot_link/network/dtls/mbedtls/mbedtls-2.16.2/library\ecp_curves.c **** 
 633:C:/Users/dtjld/workspace/AIoT/src/LiteOS_Lab/iot_link/network/dtls/mbedtls/mbedtls-2.16.2/library\ecp_curves.c **** /* Additional forward declarations */
 634:C:/Users/dtjld/workspace/AIoT/src/LiteOS_Lab/iot_link/network/dtls/mbedtls/mbedtls-2.16.2/library\ecp_curves.c **** #if defined(MBEDTLS_ECP_DP_CURVE25519_ENABLED)
 635:C:/Users/dtjld/workspace/AIoT/src/LiteOS_Lab/iot_link/network/dtls/mbedtls/mbedtls-2.16.2/library\ecp_curves.c **** static int ecp_mod_p255( mbedtls_mpi * );
 636:C:/Users/dtjld/workspace/AIoT/src/LiteOS_Lab/iot_link/network/dtls/mbedtls/mbedtls-2.16.2/library\ecp_curves.c **** #endif
 637:C:/Users/dtjld/workspace/AIoT/src/LiteOS_Lab/iot_link/network/dtls/mbedtls/mbedtls-2.16.2/library\ecp_curves.c **** #if defined(MBEDTLS_ECP_DP_CURVE448_ENABLED)
 638:C:/Users/dtjld/workspace/AIoT/src/LiteOS_Lab/iot_link/network/dtls/mbedtls/mbedtls-2.16.2/library\ecp_curves.c **** static int ecp_mod_p448( mbedtls_mpi * );
 639:C:/Users/dtjld/workspace/AIoT/src/LiteOS_Lab/iot_link/network/dtls/mbedtls/mbedtls-2.16.2/library\ecp_curves.c **** #endif
 640:C:/Users/dtjld/workspace/AIoT/src/LiteOS_Lab/iot_link/network/dtls/mbedtls/mbedtls-2.16.2/library\ecp_curves.c **** #if defined(MBEDTLS_ECP_DP_SECP192K1_ENABLED)
 641:C:/Users/dtjld/workspace/AIoT/src/LiteOS_Lab/iot_link/network/dtls/mbedtls/mbedtls-2.16.2/library\ecp_curves.c **** static int ecp_mod_p192k1( mbedtls_mpi * );
 642:C:/Users/dtjld/workspace/AIoT/src/LiteOS_Lab/iot_link/network/dtls/mbedtls/mbedtls-2.16.2/library\ecp_curves.c **** #endif
 643:C:/Users/dtjld/workspace/AIoT/src/LiteOS_Lab/iot_link/network/dtls/mbedtls/mbedtls-2.16.2/library\ecp_curves.c **** #if defined(MBEDTLS_ECP_DP_SECP224K1_ENABLED)
 644:C:/Users/dtjld/workspace/AIoT/src/LiteOS_Lab/iot_link/network/dtls/mbedtls/mbedtls-2.16.2/library\ecp_curves.c **** static int ecp_mod_p224k1( mbedtls_mpi * );
 645:C:/Users/dtjld/workspace/AIoT/src/LiteOS_Lab/iot_link/network/dtls/mbedtls/mbedtls-2.16.2/library\ecp_curves.c **** #endif
 646:C:/Users/dtjld/workspace/AIoT/src/LiteOS_Lab/iot_link/network/dtls/mbedtls/mbedtls-2.16.2/library\ecp_curves.c **** #if defined(MBEDTLS_ECP_DP_SECP256K1_ENABLED)
 647:C:/Users/dtjld/workspace/AIoT/src/LiteOS_Lab/iot_link/network/dtls/mbedtls/mbedtls-2.16.2/library\ecp_curves.c **** static int ecp_mod_p256k1( mbedtls_mpi * );
 648:C:/Users/dtjld/workspace/AIoT/src/LiteOS_Lab/iot_link/network/dtls/mbedtls/mbedtls-2.16.2/library\ecp_curves.c **** #endif
 649:C:/Users/dtjld/workspace/AIoT/src/LiteOS_Lab/iot_link/network/dtls/mbedtls/mbedtls-2.16.2/library\ecp_curves.c **** 
 650:C:/Users/dtjld/workspace/AIoT/src/LiteOS_Lab/iot_link/network/dtls/mbedtls/mbedtls-2.16.2/library\ecp_curves.c **** #define LOAD_GROUP_A( G )   ecp_group_load( grp,            \
 651:C:/Users/dtjld/workspace/AIoT/src/LiteOS_Lab/iot_link/network/dtls/mbedtls/mbedtls-2.16.2/library\ecp_curves.c ****                             G ## _p,  sizeof( G ## _p  ),   \
ARM GAS  C:\Users\dtjld\AppData\Local\Temp\ccEzFpLd.s 			page 30


 652:C:/Users/dtjld/workspace/AIoT/src/LiteOS_Lab/iot_link/network/dtls/mbedtls/mbedtls-2.16.2/library\ecp_curves.c ****                             G ## _a,  sizeof( G ## _a  ),   \
 653:C:/Users/dtjld/workspace/AIoT/src/LiteOS_Lab/iot_link/network/dtls/mbedtls/mbedtls-2.16.2/library\ecp_curves.c ****                             G ## _b,  sizeof( G ## _b  ),   \
 654:C:/Users/dtjld/workspace/AIoT/src/LiteOS_Lab/iot_link/network/dtls/mbedtls/mbedtls-2.16.2/library\ecp_curves.c ****                             G ## _gx, sizeof( G ## _gx ),   \
 655:C:/Users/dtjld/workspace/AIoT/src/LiteOS_Lab/iot_link/network/dtls/mbedtls/mbedtls-2.16.2/library\ecp_curves.c ****                             G ## _gy, sizeof( G ## _gy ),   \
 656:C:/Users/dtjld/workspace/AIoT/src/LiteOS_Lab/iot_link/network/dtls/mbedtls/mbedtls-2.16.2/library\ecp_curves.c ****                             G ## _n,  sizeof( G ## _n  ) )
 657:C:/Users/dtjld/workspace/AIoT/src/LiteOS_Lab/iot_link/network/dtls/mbedtls/mbedtls-2.16.2/library\ecp_curves.c **** 
 658:C:/Users/dtjld/workspace/AIoT/src/LiteOS_Lab/iot_link/network/dtls/mbedtls/mbedtls-2.16.2/library\ecp_curves.c **** #define LOAD_GROUP( G )     ecp_group_load( grp,            \
 659:C:/Users/dtjld/workspace/AIoT/src/LiteOS_Lab/iot_link/network/dtls/mbedtls/mbedtls-2.16.2/library\ecp_curves.c ****                             G ## _p,  sizeof( G ## _p  ),   \
 660:C:/Users/dtjld/workspace/AIoT/src/LiteOS_Lab/iot_link/network/dtls/mbedtls/mbedtls-2.16.2/library\ecp_curves.c ****                             NULL,     0,                    \
 661:C:/Users/dtjld/workspace/AIoT/src/LiteOS_Lab/iot_link/network/dtls/mbedtls/mbedtls-2.16.2/library\ecp_curves.c ****                             G ## _b,  sizeof( G ## _b  ),   \
 662:C:/Users/dtjld/workspace/AIoT/src/LiteOS_Lab/iot_link/network/dtls/mbedtls/mbedtls-2.16.2/library\ecp_curves.c ****                             G ## _gx, sizeof( G ## _gx ),   \
 663:C:/Users/dtjld/workspace/AIoT/src/LiteOS_Lab/iot_link/network/dtls/mbedtls/mbedtls-2.16.2/library\ecp_curves.c ****                             G ## _gy, sizeof( G ## _gy ),   \
 664:C:/Users/dtjld/workspace/AIoT/src/LiteOS_Lab/iot_link/network/dtls/mbedtls/mbedtls-2.16.2/library\ecp_curves.c ****                             G ## _n,  sizeof( G ## _n  ) )
 665:C:/Users/dtjld/workspace/AIoT/src/LiteOS_Lab/iot_link/network/dtls/mbedtls/mbedtls-2.16.2/library\ecp_curves.c **** 
 666:C:/Users/dtjld/workspace/AIoT/src/LiteOS_Lab/iot_link/network/dtls/mbedtls/mbedtls-2.16.2/library\ecp_curves.c **** #if defined(MBEDTLS_ECP_DP_CURVE25519_ENABLED)
 667:C:/Users/dtjld/workspace/AIoT/src/LiteOS_Lab/iot_link/network/dtls/mbedtls/mbedtls-2.16.2/library\ecp_curves.c **** /*
 668:C:/Users/dtjld/workspace/AIoT/src/LiteOS_Lab/iot_link/network/dtls/mbedtls/mbedtls-2.16.2/library\ecp_curves.c ****  * Specialized function for creating the Curve25519 group
 669:C:/Users/dtjld/workspace/AIoT/src/LiteOS_Lab/iot_link/network/dtls/mbedtls/mbedtls-2.16.2/library\ecp_curves.c ****  */
 670:C:/Users/dtjld/workspace/AIoT/src/LiteOS_Lab/iot_link/network/dtls/mbedtls/mbedtls-2.16.2/library\ecp_curves.c **** static int ecp_use_curve25519( mbedtls_ecp_group *grp )
 671:C:/Users/dtjld/workspace/AIoT/src/LiteOS_Lab/iot_link/network/dtls/mbedtls/mbedtls-2.16.2/library\ecp_curves.c **** {
 1127              		.loc 1 671 0
 1128              		.cfi_startproc
 1129              		@ args = 0, pretend = 0, frame = 16
 1130              		@ frame_needed = 1, uses_anonymous_args = 0
 1131 0000 80B5     		push	{r7, lr}
 1132              	.LCFI17:
 1133              		.cfi_def_cfa_offset 8
 1134              		.cfi_offset 7, -8
 1135              		.cfi_offset 14, -4
 1136 0002 84B0     		sub	sp, sp, #16
 1137              	.LCFI18:
 1138              		.cfi_def_cfa_offset 24
 1139 0004 00AF     		add	r7, sp, #0
 1140              	.LCFI19:
 1141              		.cfi_def_cfa_register 7
 1142 0006 7860     		str	r0, [r7, #4]
 672:C:/Users/dtjld/workspace/AIoT/src/LiteOS_Lab/iot_link/network/dtls/mbedtls/mbedtls-2.16.2/library\ecp_curves.c ****     int ret;
 673:C:/Users/dtjld/workspace/AIoT/src/LiteOS_Lab/iot_link/network/dtls/mbedtls/mbedtls-2.16.2/library\ecp_curves.c **** 
 674:C:/Users/dtjld/workspace/AIoT/src/LiteOS_Lab/iot_link/network/dtls/mbedtls/mbedtls-2.16.2/library\ecp_curves.c ****     /* Actually ( A + 2 ) / 4 */
 675:C:/Users/dtjld/workspace/AIoT/src/LiteOS_Lab/iot_link/network/dtls/mbedtls/mbedtls-2.16.2/library\ecp_curves.c ****     MBEDTLS_MPI_CHK( mbedtls_mpi_read_string( &grp->A, 16, "01DB42" ) );
 1143              		.loc 1 675 0
 1144 0008 7B68     		ldr	r3, [r7, #4]
 1145 000a 1033     		adds	r3, r3, #16
 1146 000c 3E4A     		ldr	r2, .L28
 1147 000e 1021     		movs	r1, #16
 1148 0010 1846     		mov	r0, r3
 1149 0012 FFF7FEFF 		bl	mbedtls_mpi_read_string
 1150 0016 F860     		str	r0, [r7, #12]
 1151 0018 FB68     		ldr	r3, [r7, #12]
 1152 001a 002B     		cmp	r3, #0
 1153 001c 5AD1     		bne	.L20
 676:C:/Users/dtjld/workspace/AIoT/src/LiteOS_Lab/iot_link/network/dtls/mbedtls/mbedtls-2.16.2/library\ecp_curves.c **** 
 677:C:/Users/dtjld/workspace/AIoT/src/LiteOS_Lab/iot_link/network/dtls/mbedtls/mbedtls-2.16.2/library\ecp_curves.c ****     /* P = 2^255 - 19 */
 678:C:/Users/dtjld/workspace/AIoT/src/LiteOS_Lab/iot_link/network/dtls/mbedtls/mbedtls-2.16.2/library\ecp_curves.c ****     MBEDTLS_MPI_CHK( mbedtls_mpi_lset( &grp->P, 1 ) );
 1154              		.loc 1 678 0
 1155 001e 7B68     		ldr	r3, [r7, #4]
 1156 0020 0433     		adds	r3, r3, #4
ARM GAS  C:\Users\dtjld\AppData\Local\Temp\ccEzFpLd.s 			page 31


 1157 0022 0121     		movs	r1, #1
 1158 0024 1846     		mov	r0, r3
 1159 0026 FFF7FEFF 		bl	mbedtls_mpi_lset
 1160 002a F860     		str	r0, [r7, #12]
 1161 002c FB68     		ldr	r3, [r7, #12]
 1162 002e 002B     		cmp	r3, #0
 1163 0030 52D1     		bne	.L21
 679:C:/Users/dtjld/workspace/AIoT/src/LiteOS_Lab/iot_link/network/dtls/mbedtls/mbedtls-2.16.2/library\ecp_curves.c ****     MBEDTLS_MPI_CHK( mbedtls_mpi_shift_l( &grp->P, 255 ) );
 1164              		.loc 1 679 0
 1165 0032 7B68     		ldr	r3, [r7, #4]
 1166 0034 0433     		adds	r3, r3, #4
 1167 0036 FF21     		movs	r1, #255
 1168 0038 1846     		mov	r0, r3
 1169 003a FFF7FEFF 		bl	mbedtls_mpi_shift_l
 1170 003e F860     		str	r0, [r7, #12]
 1171 0040 FB68     		ldr	r3, [r7, #12]
 1172 0042 002B     		cmp	r3, #0
 1173 0044 4AD1     		bne	.L22
 680:C:/Users/dtjld/workspace/AIoT/src/LiteOS_Lab/iot_link/network/dtls/mbedtls/mbedtls-2.16.2/library\ecp_curves.c ****     MBEDTLS_MPI_CHK( mbedtls_mpi_sub_int( &grp->P, &grp->P, 19 ) );
 1174              		.loc 1 680 0
 1175 0046 7B68     		ldr	r3, [r7, #4]
 1176 0048 181D     		adds	r0, r3, #4
 1177 004a 7B68     		ldr	r3, [r7, #4]
 1178 004c 0433     		adds	r3, r3, #4
 1179 004e 1322     		movs	r2, #19
 1180 0050 1946     		mov	r1, r3
 1181 0052 FFF7FEFF 		bl	mbedtls_mpi_sub_int
 1182 0056 F860     		str	r0, [r7, #12]
 1183 0058 FB68     		ldr	r3, [r7, #12]
 1184 005a 002B     		cmp	r3, #0
 1185 005c 40D1     		bne	.L23
 681:C:/Users/dtjld/workspace/AIoT/src/LiteOS_Lab/iot_link/network/dtls/mbedtls/mbedtls-2.16.2/library\ecp_curves.c ****     grp->pbits = mbedtls_mpi_bitlen( &grp->P );
 1186              		.loc 1 681 0
 1187 005e 7B68     		ldr	r3, [r7, #4]
 1188 0060 0433     		adds	r3, r3, #4
 1189 0062 1846     		mov	r0, r3
 1190 0064 FFF7FEFF 		bl	mbedtls_mpi_bitlen
 1191 0068 0246     		mov	r2, r0
 1192 006a 7B68     		ldr	r3, [r7, #4]
 1193 006c 9A65     		str	r2, [r3, #88]
 682:C:/Users/dtjld/workspace/AIoT/src/LiteOS_Lab/iot_link/network/dtls/mbedtls/mbedtls-2.16.2/library\ecp_curves.c **** 
 683:C:/Users/dtjld/workspace/AIoT/src/LiteOS_Lab/iot_link/network/dtls/mbedtls/mbedtls-2.16.2/library\ecp_curves.c ****     /* N = 2^252 + 27742317777372353535851937790883648493 */
 684:C:/Users/dtjld/workspace/AIoT/src/LiteOS_Lab/iot_link/network/dtls/mbedtls/mbedtls-2.16.2/library\ecp_curves.c ****     MBEDTLS_MPI_CHK( mbedtls_mpi_read_string( &grp->N, 16,
 1194              		.loc 1 684 0
 1195 006e 7B68     		ldr	r3, [r7, #4]
 1196 0070 4C33     		adds	r3, r3, #76
 1197 0072 264A     		ldr	r2, .L28+4
 1198 0074 1021     		movs	r1, #16
 1199 0076 1846     		mov	r0, r3
 1200 0078 FFF7FEFF 		bl	mbedtls_mpi_read_string
 1201 007c F860     		str	r0, [r7, #12]
 1202 007e FB68     		ldr	r3, [r7, #12]
 1203 0080 002B     		cmp	r3, #0
 1204 0082 2FD1     		bne	.L24
 685:C:/Users/dtjld/workspace/AIoT/src/LiteOS_Lab/iot_link/network/dtls/mbedtls/mbedtls-2.16.2/library\ecp_curves.c ****                                               "14DEF9DEA2F79CD65812631A5CF5D3ED" ) );
 686:C:/Users/dtjld/workspace/AIoT/src/LiteOS_Lab/iot_link/network/dtls/mbedtls/mbedtls-2.16.2/library\ecp_curves.c ****     MBEDTLS_MPI_CHK( mbedtls_mpi_set_bit( &grp->N, 252, 1 ) );
 1205              		.loc 1 686 0
ARM GAS  C:\Users\dtjld\AppData\Local\Temp\ccEzFpLd.s 			page 32


 1206 0084 7B68     		ldr	r3, [r7, #4]
 1207 0086 4C33     		adds	r3, r3, #76
 1208 0088 0122     		movs	r2, #1
 1209 008a FC21     		movs	r1, #252
 1210 008c 1846     		mov	r0, r3
 1211 008e FFF7FEFF 		bl	mbedtls_mpi_set_bit
 1212 0092 F860     		str	r0, [r7, #12]
 1213 0094 FB68     		ldr	r3, [r7, #12]
 1214 0096 002B     		cmp	r3, #0
 1215 0098 26D1     		bne	.L25
 687:C:/Users/dtjld/workspace/AIoT/src/LiteOS_Lab/iot_link/network/dtls/mbedtls/mbedtls-2.16.2/library\ecp_curves.c **** 
 688:C:/Users/dtjld/workspace/AIoT/src/LiteOS_Lab/iot_link/network/dtls/mbedtls/mbedtls-2.16.2/library\ecp_curves.c ****     /* Y intentionally not set, since we use x/z coordinates.
 689:C:/Users/dtjld/workspace/AIoT/src/LiteOS_Lab/iot_link/network/dtls/mbedtls/mbedtls-2.16.2/library\ecp_curves.c ****      * This is used as a marker to identify Montgomery curves! */
 690:C:/Users/dtjld/workspace/AIoT/src/LiteOS_Lab/iot_link/network/dtls/mbedtls/mbedtls-2.16.2/library\ecp_curves.c ****     MBEDTLS_MPI_CHK( mbedtls_mpi_lset( &grp->G.X, 9 ) );
 1216              		.loc 1 690 0
 1217 009a 7B68     		ldr	r3, [r7, #4]
 1218 009c 2833     		adds	r3, r3, #40
 1219 009e 0921     		movs	r1, #9
 1220 00a0 1846     		mov	r0, r3
 1221 00a2 FFF7FEFF 		bl	mbedtls_mpi_lset
 1222 00a6 F860     		str	r0, [r7, #12]
 1223 00a8 FB68     		ldr	r3, [r7, #12]
 1224 00aa 002B     		cmp	r3, #0
 1225 00ac 1ED1     		bne	.L26
 691:C:/Users/dtjld/workspace/AIoT/src/LiteOS_Lab/iot_link/network/dtls/mbedtls/mbedtls-2.16.2/library\ecp_curves.c ****     MBEDTLS_MPI_CHK( mbedtls_mpi_lset( &grp->G.Z, 1 ) );
 1226              		.loc 1 691 0
 1227 00ae 7B68     		ldr	r3, [r7, #4]
 1228 00b0 4033     		adds	r3, r3, #64
 1229 00b2 0121     		movs	r1, #1
 1230 00b4 1846     		mov	r0, r3
 1231 00b6 FFF7FEFF 		bl	mbedtls_mpi_lset
 1232 00ba F860     		str	r0, [r7, #12]
 1233 00bc FB68     		ldr	r3, [r7, #12]
 1234 00be 002B     		cmp	r3, #0
 1235 00c0 16D1     		bne	.L27
 692:C:/Users/dtjld/workspace/AIoT/src/LiteOS_Lab/iot_link/network/dtls/mbedtls/mbedtls-2.16.2/library\ecp_curves.c ****     mbedtls_mpi_free( &grp->G.Y );
 1236              		.loc 1 692 0
 1237 00c2 7B68     		ldr	r3, [r7, #4]
 1238 00c4 3433     		adds	r3, r3, #52
 1239 00c6 1846     		mov	r0, r3
 1240 00c8 FFF7FEFF 		bl	mbedtls_mpi_free
 693:C:/Users/dtjld/workspace/AIoT/src/LiteOS_Lab/iot_link/network/dtls/mbedtls/mbedtls-2.16.2/library\ecp_curves.c **** 
 694:C:/Users/dtjld/workspace/AIoT/src/LiteOS_Lab/iot_link/network/dtls/mbedtls/mbedtls-2.16.2/library\ecp_curves.c ****     /* Actually, the required msb for private keys */
 695:C:/Users/dtjld/workspace/AIoT/src/LiteOS_Lab/iot_link/network/dtls/mbedtls/mbedtls-2.16.2/library\ecp_curves.c ****     grp->nbits = 254;
 1241              		.loc 1 695 0
 1242 00cc 7B68     		ldr	r3, [r7, #4]
 1243 00ce FE22     		movs	r2, #254
 1244 00d0 DA65     		str	r2, [r3, #92]
 1245 00d2 0EE0     		b	.L10
 1246              	.L20:
 675:C:/Users/dtjld/workspace/AIoT/src/LiteOS_Lab/iot_link/network/dtls/mbedtls/mbedtls-2.16.2/library\ecp_curves.c **** 
 1247              		.loc 1 675 0
 1248 00d4 00BF     		nop
 1249 00d6 0CE0     		b	.L10
 1250              	.L21:
 678:C:/Users/dtjld/workspace/AIoT/src/LiteOS_Lab/iot_link/network/dtls/mbedtls/mbedtls-2.16.2/library\ecp_curves.c ****     MBEDTLS_MPI_CHK( mbedtls_mpi_shift_l( &grp->P, 255 ) );
 1251              		.loc 1 678 0
ARM GAS  C:\Users\dtjld\AppData\Local\Temp\ccEzFpLd.s 			page 33


 1252 00d8 00BF     		nop
 1253 00da 0AE0     		b	.L10
 1254              	.L22:
 679:C:/Users/dtjld/workspace/AIoT/src/LiteOS_Lab/iot_link/network/dtls/mbedtls/mbedtls-2.16.2/library\ecp_curves.c ****     MBEDTLS_MPI_CHK( mbedtls_mpi_sub_int( &grp->P, &grp->P, 19 ) );
 1255              		.loc 1 679 0
 1256 00dc 00BF     		nop
 1257 00de 08E0     		b	.L10
 1258              	.L23:
 680:C:/Users/dtjld/workspace/AIoT/src/LiteOS_Lab/iot_link/network/dtls/mbedtls/mbedtls-2.16.2/library\ecp_curves.c ****     grp->pbits = mbedtls_mpi_bitlen( &grp->P );
 1259              		.loc 1 680 0
 1260 00e0 00BF     		nop
 1261 00e2 06E0     		b	.L10
 1262              	.L24:
 684:C:/Users/dtjld/workspace/AIoT/src/LiteOS_Lab/iot_link/network/dtls/mbedtls/mbedtls-2.16.2/library\ecp_curves.c ****                                               "14DEF9DEA2F79CD65812631A5CF5D3ED" ) );
 1263              		.loc 1 684 0
 1264 00e4 00BF     		nop
 1265 00e6 04E0     		b	.L10
 1266              	.L25:
 686:C:/Users/dtjld/workspace/AIoT/src/LiteOS_Lab/iot_link/network/dtls/mbedtls/mbedtls-2.16.2/library\ecp_curves.c **** 
 1267              		.loc 1 686 0
 1268 00e8 00BF     		nop
 1269 00ea 02E0     		b	.L10
 1270              	.L26:
 690:C:/Users/dtjld/workspace/AIoT/src/LiteOS_Lab/iot_link/network/dtls/mbedtls/mbedtls-2.16.2/library\ecp_curves.c ****     MBEDTLS_MPI_CHK( mbedtls_mpi_lset( &grp->G.Z, 1 ) );
 1271              		.loc 1 690 0
 1272 00ec 00BF     		nop
 1273 00ee 00E0     		b	.L10
 1274              	.L27:
 691:C:/Users/dtjld/workspace/AIoT/src/LiteOS_Lab/iot_link/network/dtls/mbedtls/mbedtls-2.16.2/library\ecp_curves.c ****     mbedtls_mpi_free( &grp->G.Y );
 1275              		.loc 1 691 0
 1276 00f0 00BF     		nop
 1277              	.L10:
 696:C:/Users/dtjld/workspace/AIoT/src/LiteOS_Lab/iot_link/network/dtls/mbedtls/mbedtls-2.16.2/library\ecp_curves.c **** 
 697:C:/Users/dtjld/workspace/AIoT/src/LiteOS_Lab/iot_link/network/dtls/mbedtls/mbedtls-2.16.2/library\ecp_curves.c **** cleanup:
 698:C:/Users/dtjld/workspace/AIoT/src/LiteOS_Lab/iot_link/network/dtls/mbedtls/mbedtls-2.16.2/library\ecp_curves.c ****     if( ret != 0 )
 1278              		.loc 1 698 0
 1279 00f2 FB68     		ldr	r3, [r7, #12]
 1280 00f4 002B     		cmp	r3, #0
 1281 00f6 02D0     		beq	.L18
 699:C:/Users/dtjld/workspace/AIoT/src/LiteOS_Lab/iot_link/network/dtls/mbedtls/mbedtls-2.16.2/library\ecp_curves.c ****         mbedtls_ecp_group_free( grp );
 1282              		.loc 1 699 0
 1283 00f8 7868     		ldr	r0, [r7, #4]
 1284 00fa FFF7FEFF 		bl	mbedtls_ecp_group_free
 1285              	.L18:
 700:C:/Users/dtjld/workspace/AIoT/src/LiteOS_Lab/iot_link/network/dtls/mbedtls/mbedtls-2.16.2/library\ecp_curves.c **** 
 701:C:/Users/dtjld/workspace/AIoT/src/LiteOS_Lab/iot_link/network/dtls/mbedtls/mbedtls-2.16.2/library\ecp_curves.c ****     return( ret );
 1286              		.loc 1 701 0
 1287 00fe FB68     		ldr	r3, [r7, #12]
 702:C:/Users/dtjld/workspace/AIoT/src/LiteOS_Lab/iot_link/network/dtls/mbedtls/mbedtls-2.16.2/library\ecp_curves.c **** }
 1288              		.loc 1 702 0
 1289 0100 1846     		mov	r0, r3
 1290 0102 1037     		adds	r7, r7, #16
 1291              	.LCFI20:
 1292              		.cfi_def_cfa_offset 8
 1293 0104 BD46     		mov	sp, r7
 1294              	.LCFI21:
 1295              		.cfi_def_cfa_register 13
ARM GAS  C:\Users\dtjld\AppData\Local\Temp\ccEzFpLd.s 			page 34


 1296              		@ sp needed
 1297 0106 80BD     		pop	{r7, pc}
 1298              	.L29:
 1299              		.align	2
 1300              	.L28:
 1301 0108 00000000 		.word	.LC0
 1302 010c 08000000 		.word	.LC1
 1303              		.cfi_endproc
 1304              	.LFE3:
 1306              		.section	.text.mbedtls_ecp_group_load,"ax",%progbits
 1307              		.align	1
 1308              		.global	mbedtls_ecp_group_load
 1309              		.syntax unified
 1310              		.thumb
 1311              		.thumb_func
 1312              		.fpu fpv4-sp-d16
 1314              	mbedtls_ecp_group_load:
 1315              	.LFB4:
 703:C:/Users/dtjld/workspace/AIoT/src/LiteOS_Lab/iot_link/network/dtls/mbedtls/mbedtls-2.16.2/library\ecp_curves.c **** #endif /* MBEDTLS_ECP_DP_CURVE25519_ENABLED */
 704:C:/Users/dtjld/workspace/AIoT/src/LiteOS_Lab/iot_link/network/dtls/mbedtls/mbedtls-2.16.2/library\ecp_curves.c **** 
 705:C:/Users/dtjld/workspace/AIoT/src/LiteOS_Lab/iot_link/network/dtls/mbedtls/mbedtls-2.16.2/library\ecp_curves.c **** #if defined(MBEDTLS_ECP_DP_CURVE448_ENABLED)
 706:C:/Users/dtjld/workspace/AIoT/src/LiteOS_Lab/iot_link/network/dtls/mbedtls/mbedtls-2.16.2/library\ecp_curves.c **** /*
 707:C:/Users/dtjld/workspace/AIoT/src/LiteOS_Lab/iot_link/network/dtls/mbedtls/mbedtls-2.16.2/library\ecp_curves.c ****  * Specialized function for creating the Curve448 group
 708:C:/Users/dtjld/workspace/AIoT/src/LiteOS_Lab/iot_link/network/dtls/mbedtls/mbedtls-2.16.2/library\ecp_curves.c ****  */
 709:C:/Users/dtjld/workspace/AIoT/src/LiteOS_Lab/iot_link/network/dtls/mbedtls/mbedtls-2.16.2/library\ecp_curves.c **** static int ecp_use_curve448( mbedtls_ecp_group *grp )
 710:C:/Users/dtjld/workspace/AIoT/src/LiteOS_Lab/iot_link/network/dtls/mbedtls/mbedtls-2.16.2/library\ecp_curves.c **** {
 711:C:/Users/dtjld/workspace/AIoT/src/LiteOS_Lab/iot_link/network/dtls/mbedtls/mbedtls-2.16.2/library\ecp_curves.c ****     mbedtls_mpi Ns;
 712:C:/Users/dtjld/workspace/AIoT/src/LiteOS_Lab/iot_link/network/dtls/mbedtls/mbedtls-2.16.2/library\ecp_curves.c ****     int ret;
 713:C:/Users/dtjld/workspace/AIoT/src/LiteOS_Lab/iot_link/network/dtls/mbedtls/mbedtls-2.16.2/library\ecp_curves.c **** 
 714:C:/Users/dtjld/workspace/AIoT/src/LiteOS_Lab/iot_link/network/dtls/mbedtls/mbedtls-2.16.2/library\ecp_curves.c ****     mbedtls_mpi_init( &Ns );
 715:C:/Users/dtjld/workspace/AIoT/src/LiteOS_Lab/iot_link/network/dtls/mbedtls/mbedtls-2.16.2/library\ecp_curves.c **** 
 716:C:/Users/dtjld/workspace/AIoT/src/LiteOS_Lab/iot_link/network/dtls/mbedtls/mbedtls-2.16.2/library\ecp_curves.c ****     /* Actually ( A + 2 ) / 4 */
 717:C:/Users/dtjld/workspace/AIoT/src/LiteOS_Lab/iot_link/network/dtls/mbedtls/mbedtls-2.16.2/library\ecp_curves.c ****     MBEDTLS_MPI_CHK( mbedtls_mpi_read_string( &grp->A, 16, "98AA" ) );
 718:C:/Users/dtjld/workspace/AIoT/src/LiteOS_Lab/iot_link/network/dtls/mbedtls/mbedtls-2.16.2/library\ecp_curves.c **** 
 719:C:/Users/dtjld/workspace/AIoT/src/LiteOS_Lab/iot_link/network/dtls/mbedtls/mbedtls-2.16.2/library\ecp_curves.c ****     /* P = 2^448 - 2^224 - 1 */
 720:C:/Users/dtjld/workspace/AIoT/src/LiteOS_Lab/iot_link/network/dtls/mbedtls/mbedtls-2.16.2/library\ecp_curves.c ****     MBEDTLS_MPI_CHK( mbedtls_mpi_lset( &grp->P, 1 ) );
 721:C:/Users/dtjld/workspace/AIoT/src/LiteOS_Lab/iot_link/network/dtls/mbedtls/mbedtls-2.16.2/library\ecp_curves.c ****     MBEDTLS_MPI_CHK( mbedtls_mpi_shift_l( &grp->P, 224 ) );
 722:C:/Users/dtjld/workspace/AIoT/src/LiteOS_Lab/iot_link/network/dtls/mbedtls/mbedtls-2.16.2/library\ecp_curves.c ****     MBEDTLS_MPI_CHK( mbedtls_mpi_sub_int( &grp->P, &grp->P, 1 ) );
 723:C:/Users/dtjld/workspace/AIoT/src/LiteOS_Lab/iot_link/network/dtls/mbedtls/mbedtls-2.16.2/library\ecp_curves.c ****     MBEDTLS_MPI_CHK( mbedtls_mpi_shift_l( &grp->P, 224 ) );
 724:C:/Users/dtjld/workspace/AIoT/src/LiteOS_Lab/iot_link/network/dtls/mbedtls/mbedtls-2.16.2/library\ecp_curves.c ****     MBEDTLS_MPI_CHK( mbedtls_mpi_sub_int( &grp->P, &grp->P, 1 ) );
 725:C:/Users/dtjld/workspace/AIoT/src/LiteOS_Lab/iot_link/network/dtls/mbedtls/mbedtls-2.16.2/library\ecp_curves.c ****     grp->pbits = mbedtls_mpi_bitlen( &grp->P );
 726:C:/Users/dtjld/workspace/AIoT/src/LiteOS_Lab/iot_link/network/dtls/mbedtls/mbedtls-2.16.2/library\ecp_curves.c **** 
 727:C:/Users/dtjld/workspace/AIoT/src/LiteOS_Lab/iot_link/network/dtls/mbedtls/mbedtls-2.16.2/library\ecp_curves.c ****     /* Y intentionally not set, since we use x/z coordinates.
 728:C:/Users/dtjld/workspace/AIoT/src/LiteOS_Lab/iot_link/network/dtls/mbedtls/mbedtls-2.16.2/library\ecp_curves.c ****      * This is used as a marker to identify Montgomery curves! */
 729:C:/Users/dtjld/workspace/AIoT/src/LiteOS_Lab/iot_link/network/dtls/mbedtls/mbedtls-2.16.2/library\ecp_curves.c ****     MBEDTLS_MPI_CHK( mbedtls_mpi_lset( &grp->G.X, 5 ) );
 730:C:/Users/dtjld/workspace/AIoT/src/LiteOS_Lab/iot_link/network/dtls/mbedtls/mbedtls-2.16.2/library\ecp_curves.c ****     MBEDTLS_MPI_CHK( mbedtls_mpi_lset( &grp->G.Z, 1 ) );
 731:C:/Users/dtjld/workspace/AIoT/src/LiteOS_Lab/iot_link/network/dtls/mbedtls/mbedtls-2.16.2/library\ecp_curves.c ****     mbedtls_mpi_free( &grp->G.Y );
 732:C:/Users/dtjld/workspace/AIoT/src/LiteOS_Lab/iot_link/network/dtls/mbedtls/mbedtls-2.16.2/library\ecp_curves.c **** 
 733:C:/Users/dtjld/workspace/AIoT/src/LiteOS_Lab/iot_link/network/dtls/mbedtls/mbedtls-2.16.2/library\ecp_curves.c ****     /* N = 2^446 - 13818066809895115352007386748515426880336692474882178609894547503885 */
 734:C:/Users/dtjld/workspace/AIoT/src/LiteOS_Lab/iot_link/network/dtls/mbedtls/mbedtls-2.16.2/library\ecp_curves.c ****     MBEDTLS_MPI_CHK( mbedtls_mpi_set_bit( &grp->N, 446, 1 ) );
 735:C:/Users/dtjld/workspace/AIoT/src/LiteOS_Lab/iot_link/network/dtls/mbedtls/mbedtls-2.16.2/library\ecp_curves.c ****     MBEDTLS_MPI_CHK( mbedtls_mpi_read_string( &Ns, 16,
 736:C:/Users/dtjld/workspace/AIoT/src/LiteOS_Lab/iot_link/network/dtls/mbedtls/mbedtls-2.16.2/library\ecp_curves.c ****                                               "8335DC163BB124B65129C96FDE933D8D723A70AADC873D6D54A7
 737:C:/Users/dtjld/workspace/AIoT/src/LiteOS_Lab/iot_link/network/dtls/mbedtls/mbedtls-2.16.2/library\ecp_curves.c ****     MBEDTLS_MPI_CHK( mbedtls_mpi_sub_mpi( &grp->N, &grp->N, &Ns ) );
 738:C:/Users/dtjld/workspace/AIoT/src/LiteOS_Lab/iot_link/network/dtls/mbedtls/mbedtls-2.16.2/library\ecp_curves.c **** 
 739:C:/Users/dtjld/workspace/AIoT/src/LiteOS_Lab/iot_link/network/dtls/mbedtls/mbedtls-2.16.2/library\ecp_curves.c ****     /* Actually, the required msb for private keys */
 740:C:/Users/dtjld/workspace/AIoT/src/LiteOS_Lab/iot_link/network/dtls/mbedtls/mbedtls-2.16.2/library\ecp_curves.c ****     grp->nbits = 447;
 741:C:/Users/dtjld/workspace/AIoT/src/LiteOS_Lab/iot_link/network/dtls/mbedtls/mbedtls-2.16.2/library\ecp_curves.c **** 
ARM GAS  C:\Users\dtjld\AppData\Local\Temp\ccEzFpLd.s 			page 35


 742:C:/Users/dtjld/workspace/AIoT/src/LiteOS_Lab/iot_link/network/dtls/mbedtls/mbedtls-2.16.2/library\ecp_curves.c **** cleanup:
 743:C:/Users/dtjld/workspace/AIoT/src/LiteOS_Lab/iot_link/network/dtls/mbedtls/mbedtls-2.16.2/library\ecp_curves.c ****     mbedtls_mpi_free( &Ns );
 744:C:/Users/dtjld/workspace/AIoT/src/LiteOS_Lab/iot_link/network/dtls/mbedtls/mbedtls-2.16.2/library\ecp_curves.c ****     if( ret != 0 )
 745:C:/Users/dtjld/workspace/AIoT/src/LiteOS_Lab/iot_link/network/dtls/mbedtls/mbedtls-2.16.2/library\ecp_curves.c ****         mbedtls_ecp_group_free( grp );
 746:C:/Users/dtjld/workspace/AIoT/src/LiteOS_Lab/iot_link/network/dtls/mbedtls/mbedtls-2.16.2/library\ecp_curves.c **** 
 747:C:/Users/dtjld/workspace/AIoT/src/LiteOS_Lab/iot_link/network/dtls/mbedtls/mbedtls-2.16.2/library\ecp_curves.c ****     return( ret );
 748:C:/Users/dtjld/workspace/AIoT/src/LiteOS_Lab/iot_link/network/dtls/mbedtls/mbedtls-2.16.2/library\ecp_curves.c **** }
 749:C:/Users/dtjld/workspace/AIoT/src/LiteOS_Lab/iot_link/network/dtls/mbedtls/mbedtls-2.16.2/library\ecp_curves.c **** #endif /* MBEDTLS_ECP_DP_CURVE448_ENABLED */
 750:C:/Users/dtjld/workspace/AIoT/src/LiteOS_Lab/iot_link/network/dtls/mbedtls/mbedtls-2.16.2/library\ecp_curves.c **** 
 751:C:/Users/dtjld/workspace/AIoT/src/LiteOS_Lab/iot_link/network/dtls/mbedtls/mbedtls-2.16.2/library\ecp_curves.c **** /*
 752:C:/Users/dtjld/workspace/AIoT/src/LiteOS_Lab/iot_link/network/dtls/mbedtls/mbedtls-2.16.2/library\ecp_curves.c ****  * Set a group using well-known domain parameters
 753:C:/Users/dtjld/workspace/AIoT/src/LiteOS_Lab/iot_link/network/dtls/mbedtls/mbedtls-2.16.2/library\ecp_curves.c ****  */
 754:C:/Users/dtjld/workspace/AIoT/src/LiteOS_Lab/iot_link/network/dtls/mbedtls/mbedtls-2.16.2/library\ecp_curves.c **** int mbedtls_ecp_group_load( mbedtls_ecp_group *grp, mbedtls_ecp_group_id id )
 755:C:/Users/dtjld/workspace/AIoT/src/LiteOS_Lab/iot_link/network/dtls/mbedtls/mbedtls-2.16.2/library\ecp_curves.c **** {
 1316              		.loc 1 755 0
 1317              		.cfi_startproc
 1318              		@ args = 0, pretend = 0, frame = 8
 1319              		@ frame_needed = 1, uses_anonymous_args = 0
 1320 0000 80B5     		push	{r7, lr}
 1321              	.LCFI22:
 1322              		.cfi_def_cfa_offset 8
 1323              		.cfi_offset 7, -8
 1324              		.cfi_offset 14, -4
 1325 0002 8CB0     		sub	sp, sp, #48
 1326              	.LCFI23:
 1327              		.cfi_def_cfa_offset 56
 1328 0004 0AAF     		add	r7, sp, #40
 1329              	.LCFI24:
 1330              		.cfi_def_cfa 7, 16
 1331 0006 7860     		str	r0, [r7, #4]
 1332 0008 0B46     		mov	r3, r1
 1333 000a FB70     		strb	r3, [r7, #3]
 756:C:/Users/dtjld/workspace/AIoT/src/LiteOS_Lab/iot_link/network/dtls/mbedtls/mbedtls-2.16.2/library\ecp_curves.c ****     ECP_VALIDATE_RET( grp != NULL );
 757:C:/Users/dtjld/workspace/AIoT/src/LiteOS_Lab/iot_link/network/dtls/mbedtls/mbedtls-2.16.2/library\ecp_curves.c ****     mbedtls_ecp_group_free( grp );
 1334              		.loc 1 757 0
 1335 000c 7868     		ldr	r0, [r7, #4]
 1336 000e FFF7FEFF 		bl	mbedtls_ecp_group_free
 758:C:/Users/dtjld/workspace/AIoT/src/LiteOS_Lab/iot_link/network/dtls/mbedtls/mbedtls-2.16.2/library\ecp_curves.c **** 
 759:C:/Users/dtjld/workspace/AIoT/src/LiteOS_Lab/iot_link/network/dtls/mbedtls/mbedtls-2.16.2/library\ecp_curves.c ****     grp->id = id;
 1337              		.loc 1 759 0
 1338 0012 7B68     		ldr	r3, [r7, #4]
 1339 0014 FA78     		ldrb	r2, [r7, #3]
 1340 0016 1A70     		strb	r2, [r3]
 760:C:/Users/dtjld/workspace/AIoT/src/LiteOS_Lab/iot_link/network/dtls/mbedtls/mbedtls-2.16.2/library\ecp_curves.c **** 
 761:C:/Users/dtjld/workspace/AIoT/src/LiteOS_Lab/iot_link/network/dtls/mbedtls/mbedtls-2.16.2/library\ecp_curves.c ****     switch( id )
 1341              		.loc 1 761 0
 1342 0018 FB78     		ldrb	r3, [r7, #3]	@ zero_extendqisi2
 1343 001a 013B     		subs	r3, r3, #1
 1344 001c 0B2B     		cmp	r3, #11
 1345 001e 00F2D781 		bhi	.L31
 1346 0022 01A2     		adr	r2, .L33
 1347 0024 52F823F0 		ldr	pc, [r2, r3, lsl #2]
 1348              		.p2align 2
 1349              	.L33:
 1350 0028 59000000 		.word	.L32+1
 1351 002c 93000000 		.word	.L34+1
 1352 0030 CD000000 		.word	.L35+1
ARM GAS  C:\Users\dtjld\AppData\Local\Temp\ccEzFpLd.s 			page 36


 1353 0034 07010000 		.word	.L36+1
 1354 0038 41010000 		.word	.L37+1
 1355 003c 29020000 		.word	.L38+1
 1356 0040 5D020000 		.word	.L39+1
 1357 0044 8D030000 		.word	.L40+1
 1358 0048 C1030000 		.word	.L41+1
 1359 004c 7B010000 		.word	.L42+1
 1360 0050 B5010000 		.word	.L43+1
 1361 0054 EF010000 		.word	.L44+1
 1362              		.p2align 1
 1363              	.L32:
 762:C:/Users/dtjld/workspace/AIoT/src/LiteOS_Lab/iot_link/network/dtls/mbedtls/mbedtls-2.16.2/library\ecp_curves.c ****     {
 763:C:/Users/dtjld/workspace/AIoT/src/LiteOS_Lab/iot_link/network/dtls/mbedtls/mbedtls-2.16.2/library\ecp_curves.c **** #if defined(MBEDTLS_ECP_DP_SECP192R1_ENABLED)
 764:C:/Users/dtjld/workspace/AIoT/src/LiteOS_Lab/iot_link/network/dtls/mbedtls/mbedtls-2.16.2/library\ecp_curves.c ****         case MBEDTLS_ECP_DP_SECP192R1:
 765:C:/Users/dtjld/workspace/AIoT/src/LiteOS_Lab/iot_link/network/dtls/mbedtls/mbedtls-2.16.2/library\ecp_curves.c ****             NIST_MODP( p192 );
 1364              		.loc 1 765 0
 1365 0058 7B68     		ldr	r3, [r7, #4]
 1366 005a 8D4A     		ldr	r2, .L46
 1367 005c 5A66     		str	r2, [r3, #100]
 766:C:/Users/dtjld/workspace/AIoT/src/LiteOS_Lab/iot_link/network/dtls/mbedtls/mbedtls-2.16.2/library\ecp_curves.c ****             return( LOAD_GROUP( secp192r1 ) );
 1368              		.loc 1 766 0
 1369 005e 1823     		movs	r3, #24
 1370 0060 0893     		str	r3, [sp, #32]
 1371 0062 8C4B     		ldr	r3, .L46+4
 1372 0064 0793     		str	r3, [sp, #28]
 1373 0066 1823     		movs	r3, #24
 1374 0068 0693     		str	r3, [sp, #24]
 1375 006a 8B4B     		ldr	r3, .L46+8
 1376 006c 0593     		str	r3, [sp, #20]
 1377 006e 1823     		movs	r3, #24
 1378 0070 0493     		str	r3, [sp, #16]
 1379 0072 8A4B     		ldr	r3, .L46+12
 1380 0074 0393     		str	r3, [sp, #12]
 1381 0076 1823     		movs	r3, #24
 1382 0078 0293     		str	r3, [sp, #8]
 1383 007a 894B     		ldr	r3, .L46+16
 1384 007c 0193     		str	r3, [sp, #4]
 1385 007e 0023     		movs	r3, #0
 1386 0080 0093     		str	r3, [sp]
 1387 0082 0023     		movs	r3, #0
 1388 0084 1822     		movs	r2, #24
 1389 0086 8749     		ldr	r1, .L46+20
 1390 0088 7868     		ldr	r0, [r7, #4]
 1391 008a FFF7FEFF 		bl	ecp_group_load
 1392 008e 0346     		mov	r3, r0
 1393 0090 A2E1     		b	.L45
 1394              	.L34:
 767:C:/Users/dtjld/workspace/AIoT/src/LiteOS_Lab/iot_link/network/dtls/mbedtls/mbedtls-2.16.2/library\ecp_curves.c **** #endif /* MBEDTLS_ECP_DP_SECP192R1_ENABLED */
 768:C:/Users/dtjld/workspace/AIoT/src/LiteOS_Lab/iot_link/network/dtls/mbedtls/mbedtls-2.16.2/library\ecp_curves.c **** 
 769:C:/Users/dtjld/workspace/AIoT/src/LiteOS_Lab/iot_link/network/dtls/mbedtls/mbedtls-2.16.2/library\ecp_curves.c **** #if defined(MBEDTLS_ECP_DP_SECP224R1_ENABLED)
 770:C:/Users/dtjld/workspace/AIoT/src/LiteOS_Lab/iot_link/network/dtls/mbedtls/mbedtls-2.16.2/library\ecp_curves.c ****         case MBEDTLS_ECP_DP_SECP224R1:
 771:C:/Users/dtjld/workspace/AIoT/src/LiteOS_Lab/iot_link/network/dtls/mbedtls/mbedtls-2.16.2/library\ecp_curves.c ****             NIST_MODP( p224 );
 1395              		.loc 1 771 0
 1396 0092 7B68     		ldr	r3, [r7, #4]
 1397 0094 844A     		ldr	r2, .L46+24
 1398 0096 5A66     		str	r2, [r3, #100]
 772:C:/Users/dtjld/workspace/AIoT/src/LiteOS_Lab/iot_link/network/dtls/mbedtls/mbedtls-2.16.2/library\ecp_curves.c ****             return( LOAD_GROUP( secp224r1 ) );
ARM GAS  C:\Users\dtjld\AppData\Local\Temp\ccEzFpLd.s 			page 37


 1399              		.loc 1 772 0
 1400 0098 1C23     		movs	r3, #28
 1401 009a 0893     		str	r3, [sp, #32]
 1402 009c 834B     		ldr	r3, .L46+28
 1403 009e 0793     		str	r3, [sp, #28]
 1404 00a0 1C23     		movs	r3, #28
 1405 00a2 0693     		str	r3, [sp, #24]
 1406 00a4 824B     		ldr	r3, .L46+32
 1407 00a6 0593     		str	r3, [sp, #20]
 1408 00a8 1C23     		movs	r3, #28
 1409 00aa 0493     		str	r3, [sp, #16]
 1410 00ac 814B     		ldr	r3, .L46+36
 1411 00ae 0393     		str	r3, [sp, #12]
 1412 00b0 1C23     		movs	r3, #28
 1413 00b2 0293     		str	r3, [sp, #8]
 1414 00b4 804B     		ldr	r3, .L46+40
 1415 00b6 0193     		str	r3, [sp, #4]
 1416 00b8 0023     		movs	r3, #0
 1417 00ba 0093     		str	r3, [sp]
 1418 00bc 0023     		movs	r3, #0
 1419 00be 2022     		movs	r2, #32
 1420 00c0 7E49     		ldr	r1, .L46+44
 1421 00c2 7868     		ldr	r0, [r7, #4]
 1422 00c4 FFF7FEFF 		bl	ecp_group_load
 1423 00c8 0346     		mov	r3, r0
 1424 00ca 85E1     		b	.L45
 1425              	.L35:
 773:C:/Users/dtjld/workspace/AIoT/src/LiteOS_Lab/iot_link/network/dtls/mbedtls/mbedtls-2.16.2/library\ecp_curves.c **** #endif /* MBEDTLS_ECP_DP_SECP224R1_ENABLED */
 774:C:/Users/dtjld/workspace/AIoT/src/LiteOS_Lab/iot_link/network/dtls/mbedtls/mbedtls-2.16.2/library\ecp_curves.c **** 
 775:C:/Users/dtjld/workspace/AIoT/src/LiteOS_Lab/iot_link/network/dtls/mbedtls/mbedtls-2.16.2/library\ecp_curves.c **** #if defined(MBEDTLS_ECP_DP_SECP256R1_ENABLED)
 776:C:/Users/dtjld/workspace/AIoT/src/LiteOS_Lab/iot_link/network/dtls/mbedtls/mbedtls-2.16.2/library\ecp_curves.c ****         case MBEDTLS_ECP_DP_SECP256R1:
 777:C:/Users/dtjld/workspace/AIoT/src/LiteOS_Lab/iot_link/network/dtls/mbedtls/mbedtls-2.16.2/library\ecp_curves.c ****             NIST_MODP( p256 );
 1426              		.loc 1 777 0
 1427 00cc 7B68     		ldr	r3, [r7, #4]
 1428 00ce 7C4A     		ldr	r2, .L46+48
 1429 00d0 5A66     		str	r2, [r3, #100]
 778:C:/Users/dtjld/workspace/AIoT/src/LiteOS_Lab/iot_link/network/dtls/mbedtls/mbedtls-2.16.2/library\ecp_curves.c ****             return( LOAD_GROUP( secp256r1 ) );
 1430              		.loc 1 778 0
 1431 00d2 2023     		movs	r3, #32
 1432 00d4 0893     		str	r3, [sp, #32]
 1433 00d6 7B4B     		ldr	r3, .L46+52
 1434 00d8 0793     		str	r3, [sp, #28]
 1435 00da 2023     		movs	r3, #32
 1436 00dc 0693     		str	r3, [sp, #24]
 1437 00de 7A4B     		ldr	r3, .L46+56
 1438 00e0 0593     		str	r3, [sp, #20]
 1439 00e2 2023     		movs	r3, #32
 1440 00e4 0493     		str	r3, [sp, #16]
 1441 00e6 794B     		ldr	r3, .L46+60
 1442 00e8 0393     		str	r3, [sp, #12]
 1443 00ea 2023     		movs	r3, #32
 1444 00ec 0293     		str	r3, [sp, #8]
 1445 00ee 784B     		ldr	r3, .L46+64
 1446 00f0 0193     		str	r3, [sp, #4]
 1447 00f2 0023     		movs	r3, #0
 1448 00f4 0093     		str	r3, [sp]
 1449 00f6 0023     		movs	r3, #0
ARM GAS  C:\Users\dtjld\AppData\Local\Temp\ccEzFpLd.s 			page 38


 1450 00f8 2022     		movs	r2, #32
 1451 00fa 7649     		ldr	r1, .L46+68
 1452 00fc 7868     		ldr	r0, [r7, #4]
 1453 00fe FFF7FEFF 		bl	ecp_group_load
 1454 0102 0346     		mov	r3, r0
 1455 0104 68E1     		b	.L45
 1456              	.L36:
 779:C:/Users/dtjld/workspace/AIoT/src/LiteOS_Lab/iot_link/network/dtls/mbedtls/mbedtls-2.16.2/library\ecp_curves.c **** #endif /* MBEDTLS_ECP_DP_SECP256R1_ENABLED */
 780:C:/Users/dtjld/workspace/AIoT/src/LiteOS_Lab/iot_link/network/dtls/mbedtls/mbedtls-2.16.2/library\ecp_curves.c **** 
 781:C:/Users/dtjld/workspace/AIoT/src/LiteOS_Lab/iot_link/network/dtls/mbedtls/mbedtls-2.16.2/library\ecp_curves.c **** #if defined(MBEDTLS_ECP_DP_SECP384R1_ENABLED)
 782:C:/Users/dtjld/workspace/AIoT/src/LiteOS_Lab/iot_link/network/dtls/mbedtls/mbedtls-2.16.2/library\ecp_curves.c ****         case MBEDTLS_ECP_DP_SECP384R1:
 783:C:/Users/dtjld/workspace/AIoT/src/LiteOS_Lab/iot_link/network/dtls/mbedtls/mbedtls-2.16.2/library\ecp_curves.c ****             NIST_MODP( p384 );
 1457              		.loc 1 783 0
 1458 0106 7B68     		ldr	r3, [r7, #4]
 1459 0108 734A     		ldr	r2, .L46+72
 1460 010a 5A66     		str	r2, [r3, #100]
 784:C:/Users/dtjld/workspace/AIoT/src/LiteOS_Lab/iot_link/network/dtls/mbedtls/mbedtls-2.16.2/library\ecp_curves.c ****             return( LOAD_GROUP( secp384r1 ) );
 1461              		.loc 1 784 0
 1462 010c 3023     		movs	r3, #48
 1463 010e 0893     		str	r3, [sp, #32]
 1464 0110 724B     		ldr	r3, .L46+76
 1465 0112 0793     		str	r3, [sp, #28]
 1466 0114 3023     		movs	r3, #48
 1467 0116 0693     		str	r3, [sp, #24]
 1468 0118 714B     		ldr	r3, .L46+80
 1469 011a 0593     		str	r3, [sp, #20]
 1470 011c 3023     		movs	r3, #48
 1471 011e 0493     		str	r3, [sp, #16]
 1472 0120 704B     		ldr	r3, .L46+84
 1473 0122 0393     		str	r3, [sp, #12]
 1474 0124 3023     		movs	r3, #48
 1475 0126 0293     		str	r3, [sp, #8]
 1476 0128 6F4B     		ldr	r3, .L46+88
 1477 012a 0193     		str	r3, [sp, #4]
 1478 012c 0023     		movs	r3, #0
 1479 012e 0093     		str	r3, [sp]
 1480 0130 0023     		movs	r3, #0
 1481 0132 3022     		movs	r2, #48
 1482 0134 6D49     		ldr	r1, .L46+92
 1483 0136 7868     		ldr	r0, [r7, #4]
 1484 0138 FFF7FEFF 		bl	ecp_group_load
 1485 013c 0346     		mov	r3, r0
 1486 013e 4BE1     		b	.L45
 1487              	.L37:
 785:C:/Users/dtjld/workspace/AIoT/src/LiteOS_Lab/iot_link/network/dtls/mbedtls/mbedtls-2.16.2/library\ecp_curves.c **** #endif /* MBEDTLS_ECP_DP_SECP384R1_ENABLED */
 786:C:/Users/dtjld/workspace/AIoT/src/LiteOS_Lab/iot_link/network/dtls/mbedtls/mbedtls-2.16.2/library\ecp_curves.c **** 
 787:C:/Users/dtjld/workspace/AIoT/src/LiteOS_Lab/iot_link/network/dtls/mbedtls/mbedtls-2.16.2/library\ecp_curves.c **** #if defined(MBEDTLS_ECP_DP_SECP521R1_ENABLED)
 788:C:/Users/dtjld/workspace/AIoT/src/LiteOS_Lab/iot_link/network/dtls/mbedtls/mbedtls-2.16.2/library\ecp_curves.c ****         case MBEDTLS_ECP_DP_SECP521R1:
 789:C:/Users/dtjld/workspace/AIoT/src/LiteOS_Lab/iot_link/network/dtls/mbedtls/mbedtls-2.16.2/library\ecp_curves.c ****             NIST_MODP( p521 );
 1488              		.loc 1 789 0
 1489 0140 7B68     		ldr	r3, [r7, #4]
 1490 0142 6B4A     		ldr	r2, .L46+96
 1491 0144 5A66     		str	r2, [r3, #100]
 790:C:/Users/dtjld/workspace/AIoT/src/LiteOS_Lab/iot_link/network/dtls/mbedtls/mbedtls-2.16.2/library\ecp_curves.c ****             return( LOAD_GROUP( secp521r1 ) );
 1492              		.loc 1 790 0
 1493 0146 4423     		movs	r3, #68
 1494 0148 0893     		str	r3, [sp, #32]
ARM GAS  C:\Users\dtjld\AppData\Local\Temp\ccEzFpLd.s 			page 39


 1495 014a 6A4B     		ldr	r3, .L46+100
 1496 014c 0793     		str	r3, [sp, #28]
 1497 014e 4423     		movs	r3, #68
 1498 0150 0693     		str	r3, [sp, #24]
 1499 0152 694B     		ldr	r3, .L46+104
 1500 0154 0593     		str	r3, [sp, #20]
 1501 0156 4423     		movs	r3, #68
 1502 0158 0493     		str	r3, [sp, #16]
 1503 015a 684B     		ldr	r3, .L46+108
 1504 015c 0393     		str	r3, [sp, #12]
 1505 015e 4423     		movs	r3, #68
 1506 0160 0293     		str	r3, [sp, #8]
 1507 0162 674B     		ldr	r3, .L46+112
 1508 0164 0193     		str	r3, [sp, #4]
 1509 0166 0023     		movs	r3, #0
 1510 0168 0093     		str	r3, [sp]
 1511 016a 0023     		movs	r3, #0
 1512 016c 4422     		movs	r2, #68
 1513 016e 6549     		ldr	r1, .L46+116
 1514 0170 7868     		ldr	r0, [r7, #4]
 1515 0172 FFF7FEFF 		bl	ecp_group_load
 1516 0176 0346     		mov	r3, r0
 1517 0178 2EE1     		b	.L45
 1518              	.L42:
 791:C:/Users/dtjld/workspace/AIoT/src/LiteOS_Lab/iot_link/network/dtls/mbedtls/mbedtls-2.16.2/library\ecp_curves.c **** #endif /* MBEDTLS_ECP_DP_SECP521R1_ENABLED */
 792:C:/Users/dtjld/workspace/AIoT/src/LiteOS_Lab/iot_link/network/dtls/mbedtls/mbedtls-2.16.2/library\ecp_curves.c **** 
 793:C:/Users/dtjld/workspace/AIoT/src/LiteOS_Lab/iot_link/network/dtls/mbedtls/mbedtls-2.16.2/library\ecp_curves.c **** #if defined(MBEDTLS_ECP_DP_SECP192K1_ENABLED)
 794:C:/Users/dtjld/workspace/AIoT/src/LiteOS_Lab/iot_link/network/dtls/mbedtls/mbedtls-2.16.2/library\ecp_curves.c ****         case MBEDTLS_ECP_DP_SECP192K1:
 795:C:/Users/dtjld/workspace/AIoT/src/LiteOS_Lab/iot_link/network/dtls/mbedtls/mbedtls-2.16.2/library\ecp_curves.c ****             grp->modp = ecp_mod_p192k1;
 1519              		.loc 1 795 0
 1520 017a 7B68     		ldr	r3, [r7, #4]
 1521 017c 624A     		ldr	r2, .L46+120
 1522 017e 5A66     		str	r2, [r3, #100]
 796:C:/Users/dtjld/workspace/AIoT/src/LiteOS_Lab/iot_link/network/dtls/mbedtls/mbedtls-2.16.2/library\ecp_curves.c ****             return( LOAD_GROUP_A( secp192k1 ) );
 1523              		.loc 1 796 0
 1524 0180 1823     		movs	r3, #24
 1525 0182 0893     		str	r3, [sp, #32]
 1526 0184 614B     		ldr	r3, .L46+124
 1527 0186 0793     		str	r3, [sp, #28]
 1528 0188 1823     		movs	r3, #24
 1529 018a 0693     		str	r3, [sp, #24]
 1530 018c 604B     		ldr	r3, .L46+128
 1531 018e 0593     		str	r3, [sp, #20]
 1532 0190 1823     		movs	r3, #24
 1533 0192 0493     		str	r3, [sp, #16]
 1534 0194 5F4B     		ldr	r3, .L46+132
 1535 0196 0393     		str	r3, [sp, #12]
 1536 0198 0423     		movs	r3, #4
 1537 019a 0293     		str	r3, [sp, #8]
 1538 019c 5E4B     		ldr	r3, .L46+136
 1539 019e 0193     		str	r3, [sp, #4]
 1540 01a0 0423     		movs	r3, #4
 1541 01a2 0093     		str	r3, [sp]
 1542 01a4 5D4B     		ldr	r3, .L46+140
 1543 01a6 1822     		movs	r2, #24
 1544 01a8 5D49     		ldr	r1, .L46+144
 1545 01aa 7868     		ldr	r0, [r7, #4]
ARM GAS  C:\Users\dtjld\AppData\Local\Temp\ccEzFpLd.s 			page 40


 1546 01ac FFF7FEFF 		bl	ecp_group_load
 1547 01b0 0346     		mov	r3, r0
 1548 01b2 11E1     		b	.L45
 1549              	.L43:
 797:C:/Users/dtjld/workspace/AIoT/src/LiteOS_Lab/iot_link/network/dtls/mbedtls/mbedtls-2.16.2/library\ecp_curves.c **** #endif /* MBEDTLS_ECP_DP_SECP192K1_ENABLED */
 798:C:/Users/dtjld/workspace/AIoT/src/LiteOS_Lab/iot_link/network/dtls/mbedtls/mbedtls-2.16.2/library\ecp_curves.c **** 
 799:C:/Users/dtjld/workspace/AIoT/src/LiteOS_Lab/iot_link/network/dtls/mbedtls/mbedtls-2.16.2/library\ecp_curves.c **** #if defined(MBEDTLS_ECP_DP_SECP224K1_ENABLED)
 800:C:/Users/dtjld/workspace/AIoT/src/LiteOS_Lab/iot_link/network/dtls/mbedtls/mbedtls-2.16.2/library\ecp_curves.c ****         case MBEDTLS_ECP_DP_SECP224K1:
 801:C:/Users/dtjld/workspace/AIoT/src/LiteOS_Lab/iot_link/network/dtls/mbedtls/mbedtls-2.16.2/library\ecp_curves.c ****             grp->modp = ecp_mod_p224k1;
 1550              		.loc 1 801 0
 1551 01b4 7B68     		ldr	r3, [r7, #4]
 1552 01b6 5B4A     		ldr	r2, .L46+148
 1553 01b8 5A66     		str	r2, [r3, #100]
 802:C:/Users/dtjld/workspace/AIoT/src/LiteOS_Lab/iot_link/network/dtls/mbedtls/mbedtls-2.16.2/library\ecp_curves.c ****             return( LOAD_GROUP_A( secp224k1 ) );
 1554              		.loc 1 802 0
 1555 01ba 2023     		movs	r3, #32
 1556 01bc 0893     		str	r3, [sp, #32]
 1557 01be 5A4B     		ldr	r3, .L46+152
 1558 01c0 0793     		str	r3, [sp, #28]
 1559 01c2 1C23     		movs	r3, #28
 1560 01c4 0693     		str	r3, [sp, #24]
 1561 01c6 594B     		ldr	r3, .L46+156
 1562 01c8 0593     		str	r3, [sp, #20]
 1563 01ca 1C23     		movs	r3, #28
 1564 01cc 0493     		str	r3, [sp, #16]
 1565 01ce 584B     		ldr	r3, .L46+160
 1566 01d0 0393     		str	r3, [sp, #12]
 1567 01d2 0423     		movs	r3, #4
 1568 01d4 0293     		str	r3, [sp, #8]
 1569 01d6 574B     		ldr	r3, .L46+164
 1570 01d8 0193     		str	r3, [sp, #4]
 1571 01da 0423     		movs	r3, #4
 1572 01dc 0093     		str	r3, [sp]
 1573 01de 564B     		ldr	r3, .L46+168
 1574 01e0 1C22     		movs	r2, #28
 1575 01e2 5649     		ldr	r1, .L46+172
 1576 01e4 7868     		ldr	r0, [r7, #4]
 1577 01e6 FFF7FEFF 		bl	ecp_group_load
 1578 01ea 0346     		mov	r3, r0
 1579 01ec F4E0     		b	.L45
 1580              	.L44:
 803:C:/Users/dtjld/workspace/AIoT/src/LiteOS_Lab/iot_link/network/dtls/mbedtls/mbedtls-2.16.2/library\ecp_curves.c **** #endif /* MBEDTLS_ECP_DP_SECP224K1_ENABLED */
 804:C:/Users/dtjld/workspace/AIoT/src/LiteOS_Lab/iot_link/network/dtls/mbedtls/mbedtls-2.16.2/library\ecp_curves.c **** 
 805:C:/Users/dtjld/workspace/AIoT/src/LiteOS_Lab/iot_link/network/dtls/mbedtls/mbedtls-2.16.2/library\ecp_curves.c **** #if defined(MBEDTLS_ECP_DP_SECP256K1_ENABLED)
 806:C:/Users/dtjld/workspace/AIoT/src/LiteOS_Lab/iot_link/network/dtls/mbedtls/mbedtls-2.16.2/library\ecp_curves.c ****         case MBEDTLS_ECP_DP_SECP256K1:
 807:C:/Users/dtjld/workspace/AIoT/src/LiteOS_Lab/iot_link/network/dtls/mbedtls/mbedtls-2.16.2/library\ecp_curves.c ****             grp->modp = ecp_mod_p256k1;
 1581              		.loc 1 807 0
 1582 01ee 7B68     		ldr	r3, [r7, #4]
 1583 01f0 534A     		ldr	r2, .L46+176
 1584 01f2 5A66     		str	r2, [r3, #100]
 808:C:/Users/dtjld/workspace/AIoT/src/LiteOS_Lab/iot_link/network/dtls/mbedtls/mbedtls-2.16.2/library\ecp_curves.c ****             return( LOAD_GROUP_A( secp256k1 ) );
 1585              		.loc 1 808 0
 1586 01f4 2023     		movs	r3, #32
 1587 01f6 0893     		str	r3, [sp, #32]
 1588 01f8 524B     		ldr	r3, .L46+180
 1589 01fa 0793     		str	r3, [sp, #28]
 1590 01fc 2023     		movs	r3, #32
ARM GAS  C:\Users\dtjld\AppData\Local\Temp\ccEzFpLd.s 			page 41


 1591 01fe 0693     		str	r3, [sp, #24]
 1592 0200 514B     		ldr	r3, .L46+184
 1593 0202 0593     		str	r3, [sp, #20]
 1594 0204 2023     		movs	r3, #32
 1595 0206 0493     		str	r3, [sp, #16]
 1596 0208 504B     		ldr	r3, .L46+188
 1597 020a 0393     		str	r3, [sp, #12]
 1598 020c 0423     		movs	r3, #4
 1599 020e 0293     		str	r3, [sp, #8]
 1600 0210 4F4B     		ldr	r3, .L46+192
 1601 0212 0193     		str	r3, [sp, #4]
 1602 0214 0423     		movs	r3, #4
 1603 0216 0093     		str	r3, [sp]
 1604 0218 4E4B     		ldr	r3, .L46+196
 1605 021a 2022     		movs	r2, #32
 1606 021c 4E49     		ldr	r1, .L46+200
 1607 021e 7868     		ldr	r0, [r7, #4]
 1608 0220 FFF7FEFF 		bl	ecp_group_load
 1609 0224 0346     		mov	r3, r0
 1610 0226 D7E0     		b	.L45
 1611              	.L38:
 809:C:/Users/dtjld/workspace/AIoT/src/LiteOS_Lab/iot_link/network/dtls/mbedtls/mbedtls-2.16.2/library\ecp_curves.c **** #endif /* MBEDTLS_ECP_DP_SECP256K1_ENABLED */
 810:C:/Users/dtjld/workspace/AIoT/src/LiteOS_Lab/iot_link/network/dtls/mbedtls/mbedtls-2.16.2/library\ecp_curves.c **** 
 811:C:/Users/dtjld/workspace/AIoT/src/LiteOS_Lab/iot_link/network/dtls/mbedtls/mbedtls-2.16.2/library\ecp_curves.c **** #if defined(MBEDTLS_ECP_DP_BP256R1_ENABLED)
 812:C:/Users/dtjld/workspace/AIoT/src/LiteOS_Lab/iot_link/network/dtls/mbedtls/mbedtls-2.16.2/library\ecp_curves.c ****         case MBEDTLS_ECP_DP_BP256R1:
 813:C:/Users/dtjld/workspace/AIoT/src/LiteOS_Lab/iot_link/network/dtls/mbedtls/mbedtls-2.16.2/library\ecp_curves.c ****             return( LOAD_GROUP_A( brainpoolP256r1 ) );
 1612              		.loc 1 813 0
 1613 0228 2023     		movs	r3, #32
 1614 022a 0893     		str	r3, [sp, #32]
 1615 022c 4B4B     		ldr	r3, .L46+204
 1616 022e 0793     		str	r3, [sp, #28]
 1617 0230 2023     		movs	r3, #32
 1618 0232 0693     		str	r3, [sp, #24]
 1619 0234 4A4B     		ldr	r3, .L46+208
 1620 0236 0593     		str	r3, [sp, #20]
 1621 0238 2023     		movs	r3, #32
 1622 023a 0493     		str	r3, [sp, #16]
 1623 023c 494B     		ldr	r3, .L46+212
 1624 023e 0393     		str	r3, [sp, #12]
 1625 0240 2023     		movs	r3, #32
 1626 0242 0293     		str	r3, [sp, #8]
 1627 0244 484B     		ldr	r3, .L46+216
 1628 0246 0193     		str	r3, [sp, #4]
 1629 0248 2023     		movs	r3, #32
 1630 024a 0093     		str	r3, [sp]
 1631 024c 474B     		ldr	r3, .L46+220
 1632 024e 2022     		movs	r2, #32
 1633 0250 4749     		ldr	r1, .L46+224
 1634 0252 7868     		ldr	r0, [r7, #4]
 1635 0254 FFF7FEFF 		bl	ecp_group_load
 1636 0258 0346     		mov	r3, r0
 1637 025a BDE0     		b	.L45
 1638              	.L39:
 814:C:/Users/dtjld/workspace/AIoT/src/LiteOS_Lab/iot_link/network/dtls/mbedtls/mbedtls-2.16.2/library\ecp_curves.c **** #endif /* MBEDTLS_ECP_DP_BP256R1_ENABLED */
 815:C:/Users/dtjld/workspace/AIoT/src/LiteOS_Lab/iot_link/network/dtls/mbedtls/mbedtls-2.16.2/library\ecp_curves.c **** 
 816:C:/Users/dtjld/workspace/AIoT/src/LiteOS_Lab/iot_link/network/dtls/mbedtls/mbedtls-2.16.2/library\ecp_curves.c **** #if defined(MBEDTLS_ECP_DP_BP384R1_ENABLED)
 817:C:/Users/dtjld/workspace/AIoT/src/LiteOS_Lab/iot_link/network/dtls/mbedtls/mbedtls-2.16.2/library\ecp_curves.c ****         case MBEDTLS_ECP_DP_BP384R1:
ARM GAS  C:\Users\dtjld\AppData\Local\Temp\ccEzFpLd.s 			page 42


 818:C:/Users/dtjld/workspace/AIoT/src/LiteOS_Lab/iot_link/network/dtls/mbedtls/mbedtls-2.16.2/library\ecp_curves.c ****             return( LOAD_GROUP_A( brainpoolP384r1 ) );
 1639              		.loc 1 818 0
 1640 025c 3023     		movs	r3, #48
 1641 025e 0893     		str	r3, [sp, #32]
 1642 0260 444B     		ldr	r3, .L46+228
 1643 0262 0793     		str	r3, [sp, #28]
 1644 0264 3023     		movs	r3, #48
 1645 0266 0693     		str	r3, [sp, #24]
 1646 0268 434B     		ldr	r3, .L46+232
 1647 026a 0593     		str	r3, [sp, #20]
 1648 026c 3023     		movs	r3, #48
 1649 026e 0493     		str	r3, [sp, #16]
 1650 0270 424B     		ldr	r3, .L46+236
 1651 0272 0393     		str	r3, [sp, #12]
 1652 0274 3023     		movs	r3, #48
 1653 0276 0293     		str	r3, [sp, #8]
 1654 0278 414B     		ldr	r3, .L46+240
 1655 027a 0193     		str	r3, [sp, #4]
 1656 027c 3023     		movs	r3, #48
 1657 027e 0093     		str	r3, [sp]
 1658 0280 404B     		ldr	r3, .L46+244
 1659 0282 3022     		movs	r2, #48
 1660 0284 4049     		ldr	r1, .L46+248
 1661 0286 7868     		ldr	r0, [r7, #4]
 1662 0288 FFF7FEFF 		bl	ecp_group_load
 1663 028c 0346     		mov	r3, r0
 1664 028e A3E0     		b	.L45
 1665              	.L47:
 1666              		.align	2
 1667              	.L46:
 1668 0290 00000000 		.word	ecp_mod_p192
 1669 0294 00000000 		.word	secp192r1_n
 1670 0298 00000000 		.word	secp192r1_gy
 1671 029c 00000000 		.word	secp192r1_gx
 1672 02a0 00000000 		.word	secp192r1_b
 1673 02a4 00000000 		.word	secp192r1_p
 1674 02a8 00000000 		.word	ecp_mod_p224
 1675 02ac 00000000 		.word	secp224r1_n
 1676 02b0 00000000 		.word	secp224r1_gy
 1677 02b4 00000000 		.word	secp224r1_gx
 1678 02b8 00000000 		.word	secp224r1_b
 1679 02bc 00000000 		.word	secp224r1_p
 1680 02c0 00000000 		.word	ecp_mod_p256
 1681 02c4 00000000 		.word	secp256r1_n
 1682 02c8 00000000 		.word	secp256r1_gy
 1683 02cc 00000000 		.word	secp256r1_gx
 1684 02d0 00000000 		.word	secp256r1_b
 1685 02d4 00000000 		.word	secp256r1_p
 1686 02d8 00000000 		.word	ecp_mod_p384
 1687 02dc 00000000 		.word	secp384r1_n
 1688 02e0 00000000 		.word	secp384r1_gy
 1689 02e4 00000000 		.word	secp384r1_gx
 1690 02e8 00000000 		.word	secp384r1_b
 1691 02ec 00000000 		.word	secp384r1_p
 1692 02f0 00000000 		.word	ecp_mod_p521
 1693 02f4 00000000 		.word	secp521r1_n
 1694 02f8 00000000 		.word	secp521r1_gy
ARM GAS  C:\Users\dtjld\AppData\Local\Temp\ccEzFpLd.s 			page 43


 1695 02fc 00000000 		.word	secp521r1_gx
 1696 0300 00000000 		.word	secp521r1_b
 1697 0304 00000000 		.word	secp521r1_p
 1698 0308 00000000 		.word	ecp_mod_p192k1
 1699 030c 00000000 		.word	secp192k1_n
 1700 0310 00000000 		.word	secp192k1_gy
 1701 0314 00000000 		.word	secp192k1_gx
 1702 0318 00000000 		.word	secp192k1_b
 1703 031c 00000000 		.word	secp192k1_a
 1704 0320 00000000 		.word	secp192k1_p
 1705 0324 00000000 		.word	ecp_mod_p224k1
 1706 0328 00000000 		.word	secp224k1_n
 1707 032c 00000000 		.word	secp224k1_gy
 1708 0330 00000000 		.word	secp224k1_gx
 1709 0334 00000000 		.word	secp224k1_b
 1710 0338 00000000 		.word	secp224k1_a
 1711 033c 00000000 		.word	secp224k1_p
 1712 0340 00000000 		.word	ecp_mod_p256k1
 1713 0344 00000000 		.word	secp256k1_n
 1714 0348 00000000 		.word	secp256k1_gy
 1715 034c 00000000 		.word	secp256k1_gx
 1716 0350 00000000 		.word	secp256k1_b
 1717 0354 00000000 		.word	secp256k1_a
 1718 0358 00000000 		.word	secp256k1_p
 1719 035c 00000000 		.word	brainpoolP256r1_n
 1720 0360 00000000 		.word	brainpoolP256r1_gy
 1721 0364 00000000 		.word	brainpoolP256r1_gx
 1722 0368 00000000 		.word	brainpoolP256r1_b
 1723 036c 00000000 		.word	brainpoolP256r1_a
 1724 0370 00000000 		.word	brainpoolP256r1_p
 1725 0374 00000000 		.word	brainpoolP384r1_n
 1726 0378 00000000 		.word	brainpoolP384r1_gy
 1727 037c 00000000 		.word	brainpoolP384r1_gx
 1728 0380 00000000 		.word	brainpoolP384r1_b
 1729 0384 00000000 		.word	brainpoolP384r1_a
 1730 0388 00000000 		.word	brainpoolP384r1_p
 1731              	.L40:
 819:C:/Users/dtjld/workspace/AIoT/src/LiteOS_Lab/iot_link/network/dtls/mbedtls/mbedtls-2.16.2/library\ecp_curves.c **** #endif /* MBEDTLS_ECP_DP_BP384R1_ENABLED */
 820:C:/Users/dtjld/workspace/AIoT/src/LiteOS_Lab/iot_link/network/dtls/mbedtls/mbedtls-2.16.2/library\ecp_curves.c **** 
 821:C:/Users/dtjld/workspace/AIoT/src/LiteOS_Lab/iot_link/network/dtls/mbedtls/mbedtls-2.16.2/library\ecp_curves.c **** #if defined(MBEDTLS_ECP_DP_BP512R1_ENABLED)
 822:C:/Users/dtjld/workspace/AIoT/src/LiteOS_Lab/iot_link/network/dtls/mbedtls/mbedtls-2.16.2/library\ecp_curves.c ****         case MBEDTLS_ECP_DP_BP512R1:
 823:C:/Users/dtjld/workspace/AIoT/src/LiteOS_Lab/iot_link/network/dtls/mbedtls/mbedtls-2.16.2/library\ecp_curves.c ****             return( LOAD_GROUP_A( brainpoolP512r1 ) );
 1732              		.loc 1 823 0
 1733 038c 4023     		movs	r3, #64
 1734 038e 0893     		str	r3, [sp, #32]
 1735 0390 134B     		ldr	r3, .L48
 1736 0392 0793     		str	r3, [sp, #28]
 1737 0394 4023     		movs	r3, #64
 1738 0396 0693     		str	r3, [sp, #24]
 1739 0398 124B     		ldr	r3, .L48+4
 1740 039a 0593     		str	r3, [sp, #20]
 1741 039c 4023     		movs	r3, #64
 1742 039e 0493     		str	r3, [sp, #16]
 1743 03a0 114B     		ldr	r3, .L48+8
 1744 03a2 0393     		str	r3, [sp, #12]
 1745 03a4 4023     		movs	r3, #64
 1746 03a6 0293     		str	r3, [sp, #8]
ARM GAS  C:\Users\dtjld\AppData\Local\Temp\ccEzFpLd.s 			page 44


 1747 03a8 104B     		ldr	r3, .L48+12
 1748 03aa 0193     		str	r3, [sp, #4]
 1749 03ac 4023     		movs	r3, #64
 1750 03ae 0093     		str	r3, [sp]
 1751 03b0 0F4B     		ldr	r3, .L48+16
 1752 03b2 4022     		movs	r2, #64
 1753 03b4 0F49     		ldr	r1, .L48+20
 1754 03b6 7868     		ldr	r0, [r7, #4]
 1755 03b8 FFF7FEFF 		bl	ecp_group_load
 1756 03bc 0346     		mov	r3, r0
 1757 03be 0BE0     		b	.L45
 1758              	.L41:
 824:C:/Users/dtjld/workspace/AIoT/src/LiteOS_Lab/iot_link/network/dtls/mbedtls/mbedtls-2.16.2/library\ecp_curves.c **** #endif /* MBEDTLS_ECP_DP_BP512R1_ENABLED */
 825:C:/Users/dtjld/workspace/AIoT/src/LiteOS_Lab/iot_link/network/dtls/mbedtls/mbedtls-2.16.2/library\ecp_curves.c **** 
 826:C:/Users/dtjld/workspace/AIoT/src/LiteOS_Lab/iot_link/network/dtls/mbedtls/mbedtls-2.16.2/library\ecp_curves.c **** #if defined(MBEDTLS_ECP_DP_CURVE25519_ENABLED)
 827:C:/Users/dtjld/workspace/AIoT/src/LiteOS_Lab/iot_link/network/dtls/mbedtls/mbedtls-2.16.2/library\ecp_curves.c ****         case MBEDTLS_ECP_DP_CURVE25519:
 828:C:/Users/dtjld/workspace/AIoT/src/LiteOS_Lab/iot_link/network/dtls/mbedtls/mbedtls-2.16.2/library\ecp_curves.c ****             grp->modp = ecp_mod_p255;
 1759              		.loc 1 828 0
 1760 03c0 7B68     		ldr	r3, [r7, #4]
 1761 03c2 0D4A     		ldr	r2, .L48+24
 1762 03c4 5A66     		str	r2, [r3, #100]
 829:C:/Users/dtjld/workspace/AIoT/src/LiteOS_Lab/iot_link/network/dtls/mbedtls/mbedtls-2.16.2/library\ecp_curves.c ****             return( ecp_use_curve25519( grp ) );
 1763              		.loc 1 829 0
 1764 03c6 7868     		ldr	r0, [r7, #4]
 1765 03c8 FFF7FEFF 		bl	ecp_use_curve25519
 1766 03cc 0346     		mov	r3, r0
 1767 03ce 03E0     		b	.L45
 1768              	.L31:
 830:C:/Users/dtjld/workspace/AIoT/src/LiteOS_Lab/iot_link/network/dtls/mbedtls/mbedtls-2.16.2/library\ecp_curves.c **** #endif /* MBEDTLS_ECP_DP_CURVE25519_ENABLED */
 831:C:/Users/dtjld/workspace/AIoT/src/LiteOS_Lab/iot_link/network/dtls/mbedtls/mbedtls-2.16.2/library\ecp_curves.c **** 
 832:C:/Users/dtjld/workspace/AIoT/src/LiteOS_Lab/iot_link/network/dtls/mbedtls/mbedtls-2.16.2/library\ecp_curves.c **** #if defined(MBEDTLS_ECP_DP_CURVE448_ENABLED)
 833:C:/Users/dtjld/workspace/AIoT/src/LiteOS_Lab/iot_link/network/dtls/mbedtls/mbedtls-2.16.2/library\ecp_curves.c ****         case MBEDTLS_ECP_DP_CURVE448:
 834:C:/Users/dtjld/workspace/AIoT/src/LiteOS_Lab/iot_link/network/dtls/mbedtls/mbedtls-2.16.2/library\ecp_curves.c ****             grp->modp = ecp_mod_p448;
 835:C:/Users/dtjld/workspace/AIoT/src/LiteOS_Lab/iot_link/network/dtls/mbedtls/mbedtls-2.16.2/library\ecp_curves.c ****             return( ecp_use_curve448( grp ) );
 836:C:/Users/dtjld/workspace/AIoT/src/LiteOS_Lab/iot_link/network/dtls/mbedtls/mbedtls-2.16.2/library\ecp_curves.c **** #endif /* MBEDTLS_ECP_DP_CURVE448_ENABLED */
 837:C:/Users/dtjld/workspace/AIoT/src/LiteOS_Lab/iot_link/network/dtls/mbedtls/mbedtls-2.16.2/library\ecp_curves.c **** 
 838:C:/Users/dtjld/workspace/AIoT/src/LiteOS_Lab/iot_link/network/dtls/mbedtls/mbedtls-2.16.2/library\ecp_curves.c ****         default:
 839:C:/Users/dtjld/workspace/AIoT/src/LiteOS_Lab/iot_link/network/dtls/mbedtls/mbedtls-2.16.2/library\ecp_curves.c ****             mbedtls_ecp_group_free( grp );
 1769              		.loc 1 839 0
 1770 03d0 7868     		ldr	r0, [r7, #4]
 1771 03d2 FFF7FEFF 		bl	mbedtls_ecp_group_free
 840:C:/Users/dtjld/workspace/AIoT/src/LiteOS_Lab/iot_link/network/dtls/mbedtls/mbedtls-2.16.2/library\ecp_curves.c ****             return( MBEDTLS_ERR_ECP_FEATURE_UNAVAILABLE );
 1772              		.loc 1 840 0
 1773 03d6 094B     		ldr	r3, .L48+28
 1774              	.L45:
 841:C:/Users/dtjld/workspace/AIoT/src/LiteOS_Lab/iot_link/network/dtls/mbedtls/mbedtls-2.16.2/library\ecp_curves.c ****     }
 842:C:/Users/dtjld/workspace/AIoT/src/LiteOS_Lab/iot_link/network/dtls/mbedtls/mbedtls-2.16.2/library\ecp_curves.c **** }
 1775              		.loc 1 842 0
 1776 03d8 1846     		mov	r0, r3
 1777 03da 0837     		adds	r7, r7, #8
 1778              	.LCFI25:
 1779              		.cfi_def_cfa_offset 8
 1780 03dc BD46     		mov	sp, r7
 1781              	.LCFI26:
 1782              		.cfi_def_cfa_register 13
 1783              		@ sp needed
 1784 03de 80BD     		pop	{r7, pc}
ARM GAS  C:\Users\dtjld\AppData\Local\Temp\ccEzFpLd.s 			page 45


 1785              	.L49:
 1786              		.align	2
 1787              	.L48:
 1788 03e0 00000000 		.word	brainpoolP512r1_n
 1789 03e4 00000000 		.word	brainpoolP512r1_gy
 1790 03e8 00000000 		.word	brainpoolP512r1_gx
 1791 03ec 00000000 		.word	brainpoolP512r1_b
 1792 03f0 00000000 		.word	brainpoolP512r1_a
 1793 03f4 00000000 		.word	brainpoolP512r1_p
 1794 03f8 00000000 		.word	ecp_mod_p255
 1795 03fc 80B1FFFF 		.word	-20096
 1796              		.cfi_endproc
 1797              	.LFE4:
 1799              		.section	.text.add64,"ax",%progbits
 1800              		.align	1
 1801              		.syntax unified
 1802              		.thumb
 1803              		.thumb_func
 1804              		.fpu fpv4-sp-d16
 1806              	add64:
 1807              	.LFB5:
 843:C:/Users/dtjld/workspace/AIoT/src/LiteOS_Lab/iot_link/network/dtls/mbedtls/mbedtls-2.16.2/library\ecp_curves.c **** 
 844:C:/Users/dtjld/workspace/AIoT/src/LiteOS_Lab/iot_link/network/dtls/mbedtls/mbedtls-2.16.2/library\ecp_curves.c **** #if defined(MBEDTLS_ECP_NIST_OPTIM)
 845:C:/Users/dtjld/workspace/AIoT/src/LiteOS_Lab/iot_link/network/dtls/mbedtls/mbedtls-2.16.2/library\ecp_curves.c **** /*
 846:C:/Users/dtjld/workspace/AIoT/src/LiteOS_Lab/iot_link/network/dtls/mbedtls/mbedtls-2.16.2/library\ecp_curves.c ****  * Fast reduction modulo the primes used by the NIST curves.
 847:C:/Users/dtjld/workspace/AIoT/src/LiteOS_Lab/iot_link/network/dtls/mbedtls/mbedtls-2.16.2/library\ecp_curves.c ****  *
 848:C:/Users/dtjld/workspace/AIoT/src/LiteOS_Lab/iot_link/network/dtls/mbedtls/mbedtls-2.16.2/library\ecp_curves.c ****  * These functions are critical for speed, but not needed for correct
 849:C:/Users/dtjld/workspace/AIoT/src/LiteOS_Lab/iot_link/network/dtls/mbedtls/mbedtls-2.16.2/library\ecp_curves.c ****  * operations. So, we make the choice to heavily rely on the internals of our
 850:C:/Users/dtjld/workspace/AIoT/src/LiteOS_Lab/iot_link/network/dtls/mbedtls/mbedtls-2.16.2/library\ecp_curves.c ****  * bignum library, which creates a tight coupling between these functions and
 851:C:/Users/dtjld/workspace/AIoT/src/LiteOS_Lab/iot_link/network/dtls/mbedtls/mbedtls-2.16.2/library\ecp_curves.c ****  * our MPI implementation.  However, the coupling between the ECP module and
 852:C:/Users/dtjld/workspace/AIoT/src/LiteOS_Lab/iot_link/network/dtls/mbedtls/mbedtls-2.16.2/library\ecp_curves.c ****  * MPI remains loose, since these functions can be deactivated at will.
 853:C:/Users/dtjld/workspace/AIoT/src/LiteOS_Lab/iot_link/network/dtls/mbedtls/mbedtls-2.16.2/library\ecp_curves.c ****  */
 854:C:/Users/dtjld/workspace/AIoT/src/LiteOS_Lab/iot_link/network/dtls/mbedtls/mbedtls-2.16.2/library\ecp_curves.c **** 
 855:C:/Users/dtjld/workspace/AIoT/src/LiteOS_Lab/iot_link/network/dtls/mbedtls/mbedtls-2.16.2/library\ecp_curves.c **** #if defined(MBEDTLS_ECP_DP_SECP192R1_ENABLED)
 856:C:/Users/dtjld/workspace/AIoT/src/LiteOS_Lab/iot_link/network/dtls/mbedtls/mbedtls-2.16.2/library\ecp_curves.c **** /*
 857:C:/Users/dtjld/workspace/AIoT/src/LiteOS_Lab/iot_link/network/dtls/mbedtls/mbedtls-2.16.2/library\ecp_curves.c ****  * Compared to the way things are presented in FIPS 186-3 D.2,
 858:C:/Users/dtjld/workspace/AIoT/src/LiteOS_Lab/iot_link/network/dtls/mbedtls/mbedtls-2.16.2/library\ecp_curves.c ****  * we proceed in columns, from right (least significant chunk) to left,
 859:C:/Users/dtjld/workspace/AIoT/src/LiteOS_Lab/iot_link/network/dtls/mbedtls/mbedtls-2.16.2/library\ecp_curves.c ****  * adding chunks to N in place, and keeping a carry for the next chunk.
 860:C:/Users/dtjld/workspace/AIoT/src/LiteOS_Lab/iot_link/network/dtls/mbedtls/mbedtls-2.16.2/library\ecp_curves.c ****  * This avoids moving things around in memory, and uselessly adding zeros,
 861:C:/Users/dtjld/workspace/AIoT/src/LiteOS_Lab/iot_link/network/dtls/mbedtls/mbedtls-2.16.2/library\ecp_curves.c ****  * compared to the more straightforward, line-oriented approach.
 862:C:/Users/dtjld/workspace/AIoT/src/LiteOS_Lab/iot_link/network/dtls/mbedtls/mbedtls-2.16.2/library\ecp_curves.c ****  *
 863:C:/Users/dtjld/workspace/AIoT/src/LiteOS_Lab/iot_link/network/dtls/mbedtls/mbedtls-2.16.2/library\ecp_curves.c ****  * For this prime we need to handle data in chunks of 64 bits.
 864:C:/Users/dtjld/workspace/AIoT/src/LiteOS_Lab/iot_link/network/dtls/mbedtls/mbedtls-2.16.2/library\ecp_curves.c ****  * Since this is always a multiple of our basic mbedtls_mpi_uint, we can
 865:C:/Users/dtjld/workspace/AIoT/src/LiteOS_Lab/iot_link/network/dtls/mbedtls/mbedtls-2.16.2/library\ecp_curves.c ****  * use a mbedtls_mpi_uint * to designate such a chunk, and small loops to handle it.
 866:C:/Users/dtjld/workspace/AIoT/src/LiteOS_Lab/iot_link/network/dtls/mbedtls/mbedtls-2.16.2/library\ecp_curves.c ****  */
 867:C:/Users/dtjld/workspace/AIoT/src/LiteOS_Lab/iot_link/network/dtls/mbedtls/mbedtls-2.16.2/library\ecp_curves.c **** 
 868:C:/Users/dtjld/workspace/AIoT/src/LiteOS_Lab/iot_link/network/dtls/mbedtls/mbedtls-2.16.2/library\ecp_curves.c **** /* Add 64-bit chunks (dst += src) and update carry */
 869:C:/Users/dtjld/workspace/AIoT/src/LiteOS_Lab/iot_link/network/dtls/mbedtls/mbedtls-2.16.2/library\ecp_curves.c **** static inline void add64( mbedtls_mpi_uint *dst, mbedtls_mpi_uint *src, mbedtls_mpi_uint *carry )
 870:C:/Users/dtjld/workspace/AIoT/src/LiteOS_Lab/iot_link/network/dtls/mbedtls/mbedtls-2.16.2/library\ecp_curves.c **** {
 1808              		.loc 1 870 0
 1809              		.cfi_startproc
 1810              		@ args = 0, pretend = 0, frame = 24
 1811              		@ frame_needed = 1, uses_anonymous_args = 0
 1812              		@ link register save eliminated.
 1813 0000 80B4     		push	{r7}
 1814              	.LCFI27:
 1815              		.cfi_def_cfa_offset 4
ARM GAS  C:\Users\dtjld\AppData\Local\Temp\ccEzFpLd.s 			page 46


 1816              		.cfi_offset 7, -4
 1817 0002 87B0     		sub	sp, sp, #28
 1818              	.LCFI28:
 1819              		.cfi_def_cfa_offset 32
 1820 0004 00AF     		add	r7, sp, #0
 1821              	.LCFI29:
 1822              		.cfi_def_cfa_register 7
 1823 0006 F860     		str	r0, [r7, #12]
 1824 0008 B960     		str	r1, [r7, #8]
 1825 000a 7A60     		str	r2, [r7, #4]
 871:C:/Users/dtjld/workspace/AIoT/src/LiteOS_Lab/iot_link/network/dtls/mbedtls/mbedtls-2.16.2/library\ecp_curves.c ****     unsigned char i;
 872:C:/Users/dtjld/workspace/AIoT/src/LiteOS_Lab/iot_link/network/dtls/mbedtls/mbedtls-2.16.2/library\ecp_curves.c ****     mbedtls_mpi_uint c = 0;
 1826              		.loc 1 872 0
 1827 000c 0023     		movs	r3, #0
 1828 000e 3B61     		str	r3, [r7, #16]
 873:C:/Users/dtjld/workspace/AIoT/src/LiteOS_Lab/iot_link/network/dtls/mbedtls/mbedtls-2.16.2/library\ecp_curves.c ****     for( i = 0; i < 8 / sizeof( mbedtls_mpi_uint ); i++, dst++, src++ )
 1829              		.loc 1 873 0
 1830 0010 0023     		movs	r3, #0
 1831 0012 FB75     		strb	r3, [r7, #23]
 1832 0014 2BE0     		b	.L51
 1833              	.L52:
 874:C:/Users/dtjld/workspace/AIoT/src/LiteOS_Lab/iot_link/network/dtls/mbedtls/mbedtls-2.16.2/library\ecp_curves.c ****     {
 875:C:/Users/dtjld/workspace/AIoT/src/LiteOS_Lab/iot_link/network/dtls/mbedtls/mbedtls-2.16.2/library\ecp_curves.c ****         *dst += c;      c  = ( *dst < c );
 1834              		.loc 1 875 0 discriminator 3
 1835 0016 FB68     		ldr	r3, [r7, #12]
 1836 0018 1A68     		ldr	r2, [r3]
 1837 001a 3B69     		ldr	r3, [r7, #16]
 1838 001c 1A44     		add	r2, r2, r3
 1839 001e FB68     		ldr	r3, [r7, #12]
 1840 0020 1A60     		str	r2, [r3]
 1841 0022 FB68     		ldr	r3, [r7, #12]
 1842 0024 1B68     		ldr	r3, [r3]
 1843 0026 3A69     		ldr	r2, [r7, #16]
 1844 0028 9A42     		cmp	r2, r3
 1845 002a 8CBF     		ite	hi
 1846 002c 0123     		movhi	r3, #1
 1847 002e 0023     		movls	r3, #0
 1848 0030 DBB2     		uxtb	r3, r3
 1849 0032 3B61     		str	r3, [r7, #16]
 876:C:/Users/dtjld/workspace/AIoT/src/LiteOS_Lab/iot_link/network/dtls/mbedtls/mbedtls-2.16.2/library\ecp_curves.c ****         *dst += *src;   c += ( *dst < *src );
 1850              		.loc 1 876 0 discriminator 3
 1851 0034 FB68     		ldr	r3, [r7, #12]
 1852 0036 1A68     		ldr	r2, [r3]
 1853 0038 BB68     		ldr	r3, [r7, #8]
 1854 003a 1B68     		ldr	r3, [r3]
 1855 003c 1A44     		add	r2, r2, r3
 1856 003e FB68     		ldr	r3, [r7, #12]
 1857 0040 1A60     		str	r2, [r3]
 1858 0042 FB68     		ldr	r3, [r7, #12]
 1859 0044 1A68     		ldr	r2, [r3]
 1860 0046 BB68     		ldr	r3, [r7, #8]
 1861 0048 1B68     		ldr	r3, [r3]
 1862 004a 9A42     		cmp	r2, r3
 1863 004c 34BF     		ite	cc
 1864 004e 0123     		movcc	r3, #1
 1865 0050 0023     		movcs	r3, #0
 1866 0052 DBB2     		uxtb	r3, r3
ARM GAS  C:\Users\dtjld\AppData\Local\Temp\ccEzFpLd.s 			page 47


 1867 0054 1A46     		mov	r2, r3
 1868 0056 3B69     		ldr	r3, [r7, #16]
 1869 0058 1344     		add	r3, r3, r2
 1870 005a 3B61     		str	r3, [r7, #16]
 873:C:/Users/dtjld/workspace/AIoT/src/LiteOS_Lab/iot_link/network/dtls/mbedtls/mbedtls-2.16.2/library\ecp_curves.c ****     for( i = 0; i < 8 / sizeof( mbedtls_mpi_uint ); i++, dst++, src++ )
 1871              		.loc 1 873 0 discriminator 3
 1872 005c FB7D     		ldrb	r3, [r7, #23]	@ zero_extendqisi2
 1873 005e 0133     		adds	r3, r3, #1
 1874 0060 FB75     		strb	r3, [r7, #23]
 1875 0062 FB68     		ldr	r3, [r7, #12]
 1876 0064 0433     		adds	r3, r3, #4
 1877 0066 FB60     		str	r3, [r7, #12]
 1878 0068 BB68     		ldr	r3, [r7, #8]
 1879 006a 0433     		adds	r3, r3, #4
 1880 006c BB60     		str	r3, [r7, #8]
 1881              	.L51:
 873:C:/Users/dtjld/workspace/AIoT/src/LiteOS_Lab/iot_link/network/dtls/mbedtls/mbedtls-2.16.2/library\ecp_curves.c ****     for( i = 0; i < 8 / sizeof( mbedtls_mpi_uint ); i++, dst++, src++ )
 1882              		.loc 1 873 0 is_stmt 0 discriminator 1
 1883 006e FB7D     		ldrb	r3, [r7, #23]	@ zero_extendqisi2
 1884 0070 012B     		cmp	r3, #1
 1885 0072 D0D9     		bls	.L52
 877:C:/Users/dtjld/workspace/AIoT/src/LiteOS_Lab/iot_link/network/dtls/mbedtls/mbedtls-2.16.2/library\ecp_curves.c ****     }
 878:C:/Users/dtjld/workspace/AIoT/src/LiteOS_Lab/iot_link/network/dtls/mbedtls/mbedtls-2.16.2/library\ecp_curves.c ****     *carry += c;
 1886              		.loc 1 878 0 is_stmt 1
 1887 0074 7B68     		ldr	r3, [r7, #4]
 1888 0076 1A68     		ldr	r2, [r3]
 1889 0078 3B69     		ldr	r3, [r7, #16]
 1890 007a 1A44     		add	r2, r2, r3
 1891 007c 7B68     		ldr	r3, [r7, #4]
 1892 007e 1A60     		str	r2, [r3]
 879:C:/Users/dtjld/workspace/AIoT/src/LiteOS_Lab/iot_link/network/dtls/mbedtls/mbedtls-2.16.2/library\ecp_curves.c **** }
 1893              		.loc 1 879 0
 1894 0080 00BF     		nop
 1895 0082 1C37     		adds	r7, r7, #28
 1896              	.LCFI30:
 1897              		.cfi_def_cfa_offset 4
 1898 0084 BD46     		mov	sp, r7
 1899              	.LCFI31:
 1900              		.cfi_def_cfa_register 13
 1901              		@ sp needed
 1902 0086 5DF8047B 		ldr	r7, [sp], #4
 1903              	.LCFI32:
 1904              		.cfi_restore 7
 1905              		.cfi_def_cfa_offset 0
 1906 008a 7047     		bx	lr
 1907              		.cfi_endproc
 1908              	.LFE5:
 1910              		.section	.text.carry64,"ax",%progbits
 1911              		.align	1
 1912              		.syntax unified
 1913              		.thumb
 1914              		.thumb_func
 1915              		.fpu fpv4-sp-d16
 1917              	carry64:
 1918              	.LFB6:
 880:C:/Users/dtjld/workspace/AIoT/src/LiteOS_Lab/iot_link/network/dtls/mbedtls/mbedtls-2.16.2/library\ecp_curves.c **** 
 881:C:/Users/dtjld/workspace/AIoT/src/LiteOS_Lab/iot_link/network/dtls/mbedtls/mbedtls-2.16.2/library\ecp_curves.c **** /* Add carry to a 64-bit chunk and update carry */
ARM GAS  C:\Users\dtjld\AppData\Local\Temp\ccEzFpLd.s 			page 48


 882:C:/Users/dtjld/workspace/AIoT/src/LiteOS_Lab/iot_link/network/dtls/mbedtls/mbedtls-2.16.2/library\ecp_curves.c **** static inline void carry64( mbedtls_mpi_uint *dst, mbedtls_mpi_uint *carry )
 883:C:/Users/dtjld/workspace/AIoT/src/LiteOS_Lab/iot_link/network/dtls/mbedtls/mbedtls-2.16.2/library\ecp_curves.c **** {
 1919              		.loc 1 883 0
 1920              		.cfi_startproc
 1921              		@ args = 0, pretend = 0, frame = 16
 1922              		@ frame_needed = 1, uses_anonymous_args = 0
 1923              		@ link register save eliminated.
 1924 0000 80B4     		push	{r7}
 1925              	.LCFI33:
 1926              		.cfi_def_cfa_offset 4
 1927              		.cfi_offset 7, -4
 1928 0002 85B0     		sub	sp, sp, #20
 1929              	.LCFI34:
 1930              		.cfi_def_cfa_offset 24
 1931 0004 00AF     		add	r7, sp, #0
 1932              	.LCFI35:
 1933              		.cfi_def_cfa_register 7
 1934 0006 7860     		str	r0, [r7, #4]
 1935 0008 3960     		str	r1, [r7]
 884:C:/Users/dtjld/workspace/AIoT/src/LiteOS_Lab/iot_link/network/dtls/mbedtls/mbedtls-2.16.2/library\ecp_curves.c ****     unsigned char i;
 885:C:/Users/dtjld/workspace/AIoT/src/LiteOS_Lab/iot_link/network/dtls/mbedtls/mbedtls-2.16.2/library\ecp_curves.c ****     for( i = 0; i < 8 / sizeof( mbedtls_mpi_uint ); i++, dst++ )
 1936              		.loc 1 885 0
 1937 000a 0023     		movs	r3, #0
 1938 000c FB73     		strb	r3, [r7, #15]
 1939 000e 18E0     		b	.L54
 1940              	.L55:
 886:C:/Users/dtjld/workspace/AIoT/src/LiteOS_Lab/iot_link/network/dtls/mbedtls/mbedtls-2.16.2/library\ecp_curves.c ****     {
 887:C:/Users/dtjld/workspace/AIoT/src/LiteOS_Lab/iot_link/network/dtls/mbedtls/mbedtls-2.16.2/library\ecp_curves.c ****         *dst += *carry;
 1941              		.loc 1 887 0 discriminator 3
 1942 0010 7B68     		ldr	r3, [r7, #4]
 1943 0012 1A68     		ldr	r2, [r3]
 1944 0014 3B68     		ldr	r3, [r7]
 1945 0016 1B68     		ldr	r3, [r3]
 1946 0018 1A44     		add	r2, r2, r3
 1947 001a 7B68     		ldr	r3, [r7, #4]
 1948 001c 1A60     		str	r2, [r3]
 888:C:/Users/dtjld/workspace/AIoT/src/LiteOS_Lab/iot_link/network/dtls/mbedtls/mbedtls-2.16.2/library\ecp_curves.c ****         *carry  = ( *dst < *carry );
 1949              		.loc 1 888 0 discriminator 3
 1950 001e 7B68     		ldr	r3, [r7, #4]
 1951 0020 1A68     		ldr	r2, [r3]
 1952 0022 3B68     		ldr	r3, [r7]
 1953 0024 1B68     		ldr	r3, [r3]
 1954 0026 9A42     		cmp	r2, r3
 1955 0028 34BF     		ite	cc
 1956 002a 0123     		movcc	r3, #1
 1957 002c 0023     		movcs	r3, #0
 1958 002e DBB2     		uxtb	r3, r3
 1959 0030 1A46     		mov	r2, r3
 1960 0032 3B68     		ldr	r3, [r7]
 1961 0034 1A60     		str	r2, [r3]
 885:C:/Users/dtjld/workspace/AIoT/src/LiteOS_Lab/iot_link/network/dtls/mbedtls/mbedtls-2.16.2/library\ecp_curves.c ****     {
 1962              		.loc 1 885 0 discriminator 3
 1963 0036 FB7B     		ldrb	r3, [r7, #15]	@ zero_extendqisi2
 1964 0038 0133     		adds	r3, r3, #1
 1965 003a FB73     		strb	r3, [r7, #15]
 1966 003c 7B68     		ldr	r3, [r7, #4]
 1967 003e 0433     		adds	r3, r3, #4
ARM GAS  C:\Users\dtjld\AppData\Local\Temp\ccEzFpLd.s 			page 49


 1968 0040 7B60     		str	r3, [r7, #4]
 1969              	.L54:
 885:C:/Users/dtjld/workspace/AIoT/src/LiteOS_Lab/iot_link/network/dtls/mbedtls/mbedtls-2.16.2/library\ecp_curves.c ****     {
 1970              		.loc 1 885 0 is_stmt 0 discriminator 1
 1971 0042 FB7B     		ldrb	r3, [r7, #15]	@ zero_extendqisi2
 1972 0044 012B     		cmp	r3, #1
 1973 0046 E3D9     		bls	.L55
 889:C:/Users/dtjld/workspace/AIoT/src/LiteOS_Lab/iot_link/network/dtls/mbedtls/mbedtls-2.16.2/library\ecp_curves.c ****     }
 890:C:/Users/dtjld/workspace/AIoT/src/LiteOS_Lab/iot_link/network/dtls/mbedtls/mbedtls-2.16.2/library\ecp_curves.c **** }
 1974              		.loc 1 890 0 is_stmt 1
 1975 0048 00BF     		nop
 1976 004a 1437     		adds	r7, r7, #20
 1977              	.LCFI36:
 1978              		.cfi_def_cfa_offset 4
 1979 004c BD46     		mov	sp, r7
 1980              	.LCFI37:
 1981              		.cfi_def_cfa_register 13
 1982              		@ sp needed
 1983 004e 5DF8047B 		ldr	r7, [sp], #4
 1984              	.LCFI38:
 1985              		.cfi_restore 7
 1986              		.cfi_def_cfa_offset 0
 1987 0052 7047     		bx	lr
 1988              		.cfi_endproc
 1989              	.LFE6:
 1991              		.section	.text.ecp_mod_p192,"ax",%progbits
 1992              		.align	1
 1993              		.syntax unified
 1994              		.thumb
 1995              		.thumb_func
 1996              		.fpu fpv4-sp-d16
 1998              	ecp_mod_p192:
 1999              	.LFB7:
 891:C:/Users/dtjld/workspace/AIoT/src/LiteOS_Lab/iot_link/network/dtls/mbedtls/mbedtls-2.16.2/library\ecp_curves.c **** 
 892:C:/Users/dtjld/workspace/AIoT/src/LiteOS_Lab/iot_link/network/dtls/mbedtls/mbedtls-2.16.2/library\ecp_curves.c **** #define WIDTH       8 / sizeof( mbedtls_mpi_uint )
 893:C:/Users/dtjld/workspace/AIoT/src/LiteOS_Lab/iot_link/network/dtls/mbedtls/mbedtls-2.16.2/library\ecp_curves.c **** #define A( i )      N->p + (i) * WIDTH
 894:C:/Users/dtjld/workspace/AIoT/src/LiteOS_Lab/iot_link/network/dtls/mbedtls/mbedtls-2.16.2/library\ecp_curves.c **** #define ADD( i )    add64( p, A( i ), &c )
 895:C:/Users/dtjld/workspace/AIoT/src/LiteOS_Lab/iot_link/network/dtls/mbedtls/mbedtls-2.16.2/library\ecp_curves.c **** #define NEXT        p += WIDTH; carry64( p, &c )
 896:C:/Users/dtjld/workspace/AIoT/src/LiteOS_Lab/iot_link/network/dtls/mbedtls/mbedtls-2.16.2/library\ecp_curves.c **** #define LAST        p += WIDTH; *p = c; while( ++p < end ) *p = 0
 897:C:/Users/dtjld/workspace/AIoT/src/LiteOS_Lab/iot_link/network/dtls/mbedtls/mbedtls-2.16.2/library\ecp_curves.c **** 
 898:C:/Users/dtjld/workspace/AIoT/src/LiteOS_Lab/iot_link/network/dtls/mbedtls/mbedtls-2.16.2/library\ecp_curves.c **** /*
 899:C:/Users/dtjld/workspace/AIoT/src/LiteOS_Lab/iot_link/network/dtls/mbedtls/mbedtls-2.16.2/library\ecp_curves.c ****  * Fast quasi-reduction modulo p192 (FIPS 186-3 D.2.1)
 900:C:/Users/dtjld/workspace/AIoT/src/LiteOS_Lab/iot_link/network/dtls/mbedtls/mbedtls-2.16.2/library\ecp_curves.c ****  */
 901:C:/Users/dtjld/workspace/AIoT/src/LiteOS_Lab/iot_link/network/dtls/mbedtls/mbedtls-2.16.2/library\ecp_curves.c **** static int ecp_mod_p192( mbedtls_mpi *N )
 902:C:/Users/dtjld/workspace/AIoT/src/LiteOS_Lab/iot_link/network/dtls/mbedtls/mbedtls-2.16.2/library\ecp_curves.c **** {
 2000              		.loc 1 902 0
 2001              		.cfi_startproc
 2002              		@ args = 0, pretend = 0, frame = 24
 2003              		@ frame_needed = 1, uses_anonymous_args = 0
 2004 0000 80B5     		push	{r7, lr}
 2005              	.LCFI39:
 2006              		.cfi_def_cfa_offset 8
 2007              		.cfi_offset 7, -8
 2008              		.cfi_offset 14, -4
 2009 0002 86B0     		sub	sp, sp, #24
 2010              	.LCFI40:
 2011              		.cfi_def_cfa_offset 32
ARM GAS  C:\Users\dtjld\AppData\Local\Temp\ccEzFpLd.s 			page 50


 2012 0004 00AF     		add	r7, sp, #0
 2013              	.LCFI41:
 2014              		.cfi_def_cfa_register 7
 2015 0006 7860     		str	r0, [r7, #4]
 903:C:/Users/dtjld/workspace/AIoT/src/LiteOS_Lab/iot_link/network/dtls/mbedtls/mbedtls-2.16.2/library\ecp_curves.c ****     int ret;
 904:C:/Users/dtjld/workspace/AIoT/src/LiteOS_Lab/iot_link/network/dtls/mbedtls/mbedtls-2.16.2/library\ecp_curves.c ****     mbedtls_mpi_uint c = 0;
 2016              		.loc 1 904 0
 2017 0008 0023     		movs	r3, #0
 2018 000a BB60     		str	r3, [r7, #8]
 905:C:/Users/dtjld/workspace/AIoT/src/LiteOS_Lab/iot_link/network/dtls/mbedtls/mbedtls-2.16.2/library\ecp_curves.c ****     mbedtls_mpi_uint *p, *end;
 906:C:/Users/dtjld/workspace/AIoT/src/LiteOS_Lab/iot_link/network/dtls/mbedtls/mbedtls-2.16.2/library\ecp_curves.c **** 
 907:C:/Users/dtjld/workspace/AIoT/src/LiteOS_Lab/iot_link/network/dtls/mbedtls/mbedtls-2.16.2/library\ecp_curves.c ****     /* Make sure we have enough blocks so that A(5) is legal */
 908:C:/Users/dtjld/workspace/AIoT/src/LiteOS_Lab/iot_link/network/dtls/mbedtls/mbedtls-2.16.2/library\ecp_curves.c ****     MBEDTLS_MPI_CHK( mbedtls_mpi_grow( N, 6 * WIDTH ) );
 2019              		.loc 1 908 0
 2020 000c 0C21     		movs	r1, #12
 2021 000e 7868     		ldr	r0, [r7, #4]
 2022 0010 FFF7FEFF 		bl	mbedtls_mpi_grow
 2023 0014 3861     		str	r0, [r7, #16]
 2024 0016 3B69     		ldr	r3, [r7, #16]
 2025 0018 002B     		cmp	r3, #0
 2026 001a 6BD1     		bne	.L62
 909:C:/Users/dtjld/workspace/AIoT/src/LiteOS_Lab/iot_link/network/dtls/mbedtls/mbedtls-2.16.2/library\ecp_curves.c **** 
 910:C:/Users/dtjld/workspace/AIoT/src/LiteOS_Lab/iot_link/network/dtls/mbedtls/mbedtls-2.16.2/library\ecp_curves.c ****     p = N->p;
 2027              		.loc 1 910 0
 2028 001c 7B68     		ldr	r3, [r7, #4]
 2029 001e 9B68     		ldr	r3, [r3, #8]
 2030 0020 7B61     		str	r3, [r7, #20]
 911:C:/Users/dtjld/workspace/AIoT/src/LiteOS_Lab/iot_link/network/dtls/mbedtls/mbedtls-2.16.2/library\ecp_curves.c ****     end = p + N->n;
 2031              		.loc 1 911 0
 2032 0022 7B68     		ldr	r3, [r7, #4]
 2033 0024 5B68     		ldr	r3, [r3, #4]
 2034 0026 9B00     		lsls	r3, r3, #2
 2035 0028 7A69     		ldr	r2, [r7, #20]
 2036 002a 1344     		add	r3, r3, r2
 2037 002c FB60     		str	r3, [r7, #12]
 912:C:/Users/dtjld/workspace/AIoT/src/LiteOS_Lab/iot_link/network/dtls/mbedtls/mbedtls-2.16.2/library\ecp_curves.c **** 
 913:C:/Users/dtjld/workspace/AIoT/src/LiteOS_Lab/iot_link/network/dtls/mbedtls/mbedtls-2.16.2/library\ecp_curves.c ****     ADD( 3 ); ADD( 5 );             NEXT; // A0 += A3 + A5
 2038              		.loc 1 913 0
 2039 002e 7B68     		ldr	r3, [r7, #4]
 2040 0030 9B68     		ldr	r3, [r3, #8]
 2041 0032 1833     		adds	r3, r3, #24
 2042 0034 07F10802 		add	r2, r7, #8
 2043 0038 1946     		mov	r1, r3
 2044 003a 7869     		ldr	r0, [r7, #20]
 2045 003c FFF7FEFF 		bl	add64
 2046 0040 7B68     		ldr	r3, [r7, #4]
 2047 0042 9B68     		ldr	r3, [r3, #8]
 2048 0044 2833     		adds	r3, r3, #40
 2049 0046 07F10802 		add	r2, r7, #8
 2050 004a 1946     		mov	r1, r3
 2051 004c 7869     		ldr	r0, [r7, #20]
 2052 004e FFF7FEFF 		bl	add64
 2053 0052 7B69     		ldr	r3, [r7, #20]
 2054 0054 0833     		adds	r3, r3, #8
 2055 0056 7B61     		str	r3, [r7, #20]
 2056 0058 07F10803 		add	r3, r7, #8
 2057 005c 1946     		mov	r1, r3
ARM GAS  C:\Users\dtjld\AppData\Local\Temp\ccEzFpLd.s 			page 51


 2058 005e 7869     		ldr	r0, [r7, #20]
 2059 0060 FFF7FEFF 		bl	carry64
 914:C:/Users/dtjld/workspace/AIoT/src/LiteOS_Lab/iot_link/network/dtls/mbedtls/mbedtls-2.16.2/library\ecp_curves.c ****     ADD( 3 ); ADD( 4 ); ADD( 5 );   NEXT; // A1 += A3 + A4 + A5
 2060              		.loc 1 914 0
 2061 0064 7B68     		ldr	r3, [r7, #4]
 2062 0066 9B68     		ldr	r3, [r3, #8]
 2063 0068 1833     		adds	r3, r3, #24
 2064 006a 07F10802 		add	r2, r7, #8
 2065 006e 1946     		mov	r1, r3
 2066 0070 7869     		ldr	r0, [r7, #20]
 2067 0072 FFF7FEFF 		bl	add64
 2068 0076 7B68     		ldr	r3, [r7, #4]
 2069 0078 9B68     		ldr	r3, [r3, #8]
 2070 007a 2033     		adds	r3, r3, #32
 2071 007c 07F10802 		add	r2, r7, #8
 2072 0080 1946     		mov	r1, r3
 2073 0082 7869     		ldr	r0, [r7, #20]
 2074 0084 FFF7FEFF 		bl	add64
 2075 0088 7B68     		ldr	r3, [r7, #4]
 2076 008a 9B68     		ldr	r3, [r3, #8]
 2077 008c 2833     		adds	r3, r3, #40
 2078 008e 07F10802 		add	r2, r7, #8
 2079 0092 1946     		mov	r1, r3
 2080 0094 7869     		ldr	r0, [r7, #20]
 2081 0096 FFF7FEFF 		bl	add64
 2082 009a 7B69     		ldr	r3, [r7, #20]
 2083 009c 0833     		adds	r3, r3, #8
 2084 009e 7B61     		str	r3, [r7, #20]
 2085 00a0 07F10803 		add	r3, r7, #8
 2086 00a4 1946     		mov	r1, r3
 2087 00a6 7869     		ldr	r0, [r7, #20]
 2088 00a8 FFF7FEFF 		bl	carry64
 915:C:/Users/dtjld/workspace/AIoT/src/LiteOS_Lab/iot_link/network/dtls/mbedtls/mbedtls-2.16.2/library\ecp_curves.c ****     ADD( 4 ); ADD( 5 );             LAST; // A2 += A4 + A5
 2089              		.loc 1 915 0
 2090 00ac 7B68     		ldr	r3, [r7, #4]
 2091 00ae 9B68     		ldr	r3, [r3, #8]
 2092 00b0 2033     		adds	r3, r3, #32
 2093 00b2 07F10802 		add	r2, r7, #8
 2094 00b6 1946     		mov	r1, r3
 2095 00b8 7869     		ldr	r0, [r7, #20]
 2096 00ba FFF7FEFF 		bl	add64
 2097 00be 7B68     		ldr	r3, [r7, #4]
 2098 00c0 9B68     		ldr	r3, [r3, #8]
 2099 00c2 2833     		adds	r3, r3, #40
 2100 00c4 07F10802 		add	r2, r7, #8
 2101 00c8 1946     		mov	r1, r3
 2102 00ca 7869     		ldr	r0, [r7, #20]
 2103 00cc FFF7FEFF 		bl	add64
 2104 00d0 7B69     		ldr	r3, [r7, #20]
 2105 00d2 0833     		adds	r3, r3, #8
 2106 00d4 7B61     		str	r3, [r7, #20]
 2107 00d6 BA68     		ldr	r2, [r7, #8]
 2108 00d8 7B69     		ldr	r3, [r7, #20]
 2109 00da 1A60     		str	r2, [r3]
 2110 00dc 02E0     		b	.L59
 2111              	.L60:
 2112              		.loc 1 915 0 is_stmt 0 discriminator 3
ARM GAS  C:\Users\dtjld\AppData\Local\Temp\ccEzFpLd.s 			page 52


 2113 00de 7B69     		ldr	r3, [r7, #20]
 2114 00e0 0022     		movs	r2, #0
 2115 00e2 1A60     		str	r2, [r3]
 2116              	.L59:
 2117              		.loc 1 915 0 discriminator 1
 2118 00e4 7B69     		ldr	r3, [r7, #20]
 2119 00e6 0433     		adds	r3, r3, #4
 2120 00e8 7B61     		str	r3, [r7, #20]
 2121 00ea 7A69     		ldr	r2, [r7, #20]
 2122 00ec FB68     		ldr	r3, [r7, #12]
 2123 00ee 9A42     		cmp	r2, r3
 2124 00f0 F5D3     		bcc	.L60
 916:C:/Users/dtjld/workspace/AIoT/src/LiteOS_Lab/iot_link/network/dtls/mbedtls/mbedtls-2.16.2/library\ecp_curves.c **** 
 917:C:/Users/dtjld/workspace/AIoT/src/LiteOS_Lab/iot_link/network/dtls/mbedtls/mbedtls-2.16.2/library\ecp_curves.c **** cleanup:
 2125              		.loc 1 917 0 is_stmt 1
 2126 00f2 00E0     		b	.L58
 2127              	.L62:
 908:C:/Users/dtjld/workspace/AIoT/src/LiteOS_Lab/iot_link/network/dtls/mbedtls/mbedtls-2.16.2/library\ecp_curves.c **** 
 2128              		.loc 1 908 0
 2129 00f4 00BF     		nop
 2130              	.L58:
 918:C:/Users/dtjld/workspace/AIoT/src/LiteOS_Lab/iot_link/network/dtls/mbedtls/mbedtls-2.16.2/library\ecp_curves.c ****     return( ret );
 2131              		.loc 1 918 0
 2132 00f6 3B69     		ldr	r3, [r7, #16]
 919:C:/Users/dtjld/workspace/AIoT/src/LiteOS_Lab/iot_link/network/dtls/mbedtls/mbedtls-2.16.2/library\ecp_curves.c **** }
 2133              		.loc 1 919 0
 2134 00f8 1846     		mov	r0, r3
 2135 00fa 1837     		adds	r7, r7, #24
 2136              	.LCFI42:
 2137              		.cfi_def_cfa_offset 8
 2138 00fc BD46     		mov	sp, r7
 2139              	.LCFI43:
 2140              		.cfi_def_cfa_register 13
 2141              		@ sp needed
 2142 00fe 80BD     		pop	{r7, pc}
 2143              		.cfi_endproc
 2144              	.LFE7:
 2146              		.section	.text.add32,"ax",%progbits
 2147              		.align	1
 2148              		.syntax unified
 2149              		.thumb
 2150              		.thumb_func
 2151              		.fpu fpv4-sp-d16
 2153              	add32:
 2154              	.LFB8:
 920:C:/Users/dtjld/workspace/AIoT/src/LiteOS_Lab/iot_link/network/dtls/mbedtls/mbedtls-2.16.2/library\ecp_curves.c **** 
 921:C:/Users/dtjld/workspace/AIoT/src/LiteOS_Lab/iot_link/network/dtls/mbedtls/mbedtls-2.16.2/library\ecp_curves.c **** #undef WIDTH
 922:C:/Users/dtjld/workspace/AIoT/src/LiteOS_Lab/iot_link/network/dtls/mbedtls/mbedtls-2.16.2/library\ecp_curves.c **** #undef A
 923:C:/Users/dtjld/workspace/AIoT/src/LiteOS_Lab/iot_link/network/dtls/mbedtls/mbedtls-2.16.2/library\ecp_curves.c **** #undef ADD
 924:C:/Users/dtjld/workspace/AIoT/src/LiteOS_Lab/iot_link/network/dtls/mbedtls/mbedtls-2.16.2/library\ecp_curves.c **** #undef NEXT
 925:C:/Users/dtjld/workspace/AIoT/src/LiteOS_Lab/iot_link/network/dtls/mbedtls/mbedtls-2.16.2/library\ecp_curves.c **** #undef LAST
 926:C:/Users/dtjld/workspace/AIoT/src/LiteOS_Lab/iot_link/network/dtls/mbedtls/mbedtls-2.16.2/library\ecp_curves.c **** #endif /* MBEDTLS_ECP_DP_SECP192R1_ENABLED */
 927:C:/Users/dtjld/workspace/AIoT/src/LiteOS_Lab/iot_link/network/dtls/mbedtls/mbedtls-2.16.2/library\ecp_curves.c **** 
 928:C:/Users/dtjld/workspace/AIoT/src/LiteOS_Lab/iot_link/network/dtls/mbedtls/mbedtls-2.16.2/library\ecp_curves.c **** #if defined(MBEDTLS_ECP_DP_SECP224R1_ENABLED) ||   \
 929:C:/Users/dtjld/workspace/AIoT/src/LiteOS_Lab/iot_link/network/dtls/mbedtls/mbedtls-2.16.2/library\ecp_curves.c ****     defined(MBEDTLS_ECP_DP_SECP256R1_ENABLED) ||   \
 930:C:/Users/dtjld/workspace/AIoT/src/LiteOS_Lab/iot_link/network/dtls/mbedtls/mbedtls-2.16.2/library\ecp_curves.c ****     defined(MBEDTLS_ECP_DP_SECP384R1_ENABLED)
 931:C:/Users/dtjld/workspace/AIoT/src/LiteOS_Lab/iot_link/network/dtls/mbedtls/mbedtls-2.16.2/library\ecp_curves.c **** /*
ARM GAS  C:\Users\dtjld\AppData\Local\Temp\ccEzFpLd.s 			page 53


 932:C:/Users/dtjld/workspace/AIoT/src/LiteOS_Lab/iot_link/network/dtls/mbedtls/mbedtls-2.16.2/library\ecp_curves.c ****  * The reader is advised to first understand ecp_mod_p192() since the same
 933:C:/Users/dtjld/workspace/AIoT/src/LiteOS_Lab/iot_link/network/dtls/mbedtls/mbedtls-2.16.2/library\ecp_curves.c ****  * general structure is used here, but with additional complications:
 934:C:/Users/dtjld/workspace/AIoT/src/LiteOS_Lab/iot_link/network/dtls/mbedtls/mbedtls-2.16.2/library\ecp_curves.c ****  * (1) chunks of 32 bits, and (2) subtractions.
 935:C:/Users/dtjld/workspace/AIoT/src/LiteOS_Lab/iot_link/network/dtls/mbedtls/mbedtls-2.16.2/library\ecp_curves.c ****  */
 936:C:/Users/dtjld/workspace/AIoT/src/LiteOS_Lab/iot_link/network/dtls/mbedtls/mbedtls-2.16.2/library\ecp_curves.c **** 
 937:C:/Users/dtjld/workspace/AIoT/src/LiteOS_Lab/iot_link/network/dtls/mbedtls/mbedtls-2.16.2/library\ecp_curves.c **** /*
 938:C:/Users/dtjld/workspace/AIoT/src/LiteOS_Lab/iot_link/network/dtls/mbedtls/mbedtls-2.16.2/library\ecp_curves.c ****  * For these primes, we need to handle data in chunks of 32 bits.
 939:C:/Users/dtjld/workspace/AIoT/src/LiteOS_Lab/iot_link/network/dtls/mbedtls/mbedtls-2.16.2/library\ecp_curves.c ****  * This makes it more complicated if we use 64 bits limbs in MPI,
 940:C:/Users/dtjld/workspace/AIoT/src/LiteOS_Lab/iot_link/network/dtls/mbedtls/mbedtls-2.16.2/library\ecp_curves.c ****  * which prevents us from using a uniform access method as for p192.
 941:C:/Users/dtjld/workspace/AIoT/src/LiteOS_Lab/iot_link/network/dtls/mbedtls/mbedtls-2.16.2/library\ecp_curves.c ****  *
 942:C:/Users/dtjld/workspace/AIoT/src/LiteOS_Lab/iot_link/network/dtls/mbedtls/mbedtls-2.16.2/library\ecp_curves.c ****  * So, we define a mini abstraction layer to access 32 bit chunks,
 943:C:/Users/dtjld/workspace/AIoT/src/LiteOS_Lab/iot_link/network/dtls/mbedtls/mbedtls-2.16.2/library\ecp_curves.c ****  * load them in 'cur' for work, and store them back from 'cur' when done.
 944:C:/Users/dtjld/workspace/AIoT/src/LiteOS_Lab/iot_link/network/dtls/mbedtls/mbedtls-2.16.2/library\ecp_curves.c ****  *
 945:C:/Users/dtjld/workspace/AIoT/src/LiteOS_Lab/iot_link/network/dtls/mbedtls/mbedtls-2.16.2/library\ecp_curves.c ****  * While at it, also define the size of N in terms of 32-bit chunks.
 946:C:/Users/dtjld/workspace/AIoT/src/LiteOS_Lab/iot_link/network/dtls/mbedtls/mbedtls-2.16.2/library\ecp_curves.c ****  */
 947:C:/Users/dtjld/workspace/AIoT/src/LiteOS_Lab/iot_link/network/dtls/mbedtls/mbedtls-2.16.2/library\ecp_curves.c **** #define LOAD32      cur = A( i );
 948:C:/Users/dtjld/workspace/AIoT/src/LiteOS_Lab/iot_link/network/dtls/mbedtls/mbedtls-2.16.2/library\ecp_curves.c **** 
 949:C:/Users/dtjld/workspace/AIoT/src/LiteOS_Lab/iot_link/network/dtls/mbedtls/mbedtls-2.16.2/library\ecp_curves.c **** #if defined(MBEDTLS_HAVE_INT32)  /* 32 bit */
 950:C:/Users/dtjld/workspace/AIoT/src/LiteOS_Lab/iot_link/network/dtls/mbedtls/mbedtls-2.16.2/library\ecp_curves.c **** 
 951:C:/Users/dtjld/workspace/AIoT/src/LiteOS_Lab/iot_link/network/dtls/mbedtls/mbedtls-2.16.2/library\ecp_curves.c **** #define MAX32       N->n
 952:C:/Users/dtjld/workspace/AIoT/src/LiteOS_Lab/iot_link/network/dtls/mbedtls/mbedtls-2.16.2/library\ecp_curves.c **** #define A( j )      N->p[j]
 953:C:/Users/dtjld/workspace/AIoT/src/LiteOS_Lab/iot_link/network/dtls/mbedtls/mbedtls-2.16.2/library\ecp_curves.c **** #define STORE32     N->p[i] = cur;
 954:C:/Users/dtjld/workspace/AIoT/src/LiteOS_Lab/iot_link/network/dtls/mbedtls/mbedtls-2.16.2/library\ecp_curves.c **** 
 955:C:/Users/dtjld/workspace/AIoT/src/LiteOS_Lab/iot_link/network/dtls/mbedtls/mbedtls-2.16.2/library\ecp_curves.c **** #else                               /* 64-bit */
 956:C:/Users/dtjld/workspace/AIoT/src/LiteOS_Lab/iot_link/network/dtls/mbedtls/mbedtls-2.16.2/library\ecp_curves.c **** 
 957:C:/Users/dtjld/workspace/AIoT/src/LiteOS_Lab/iot_link/network/dtls/mbedtls/mbedtls-2.16.2/library\ecp_curves.c **** #define MAX32       N->n * 2
 958:C:/Users/dtjld/workspace/AIoT/src/LiteOS_Lab/iot_link/network/dtls/mbedtls/mbedtls-2.16.2/library\ecp_curves.c **** #define A( j ) (j) % 2 ? (uint32_t)( N->p[(j)/2] >> 32 ) : \
 959:C:/Users/dtjld/workspace/AIoT/src/LiteOS_Lab/iot_link/network/dtls/mbedtls/mbedtls-2.16.2/library\ecp_curves.c ****                          (uint32_t)( N->p[(j)/2] )
 960:C:/Users/dtjld/workspace/AIoT/src/LiteOS_Lab/iot_link/network/dtls/mbedtls/mbedtls-2.16.2/library\ecp_curves.c **** #define STORE32                                   \
 961:C:/Users/dtjld/workspace/AIoT/src/LiteOS_Lab/iot_link/network/dtls/mbedtls/mbedtls-2.16.2/library\ecp_curves.c ****     if( i % 2 ) {                                 \
 962:C:/Users/dtjld/workspace/AIoT/src/LiteOS_Lab/iot_link/network/dtls/mbedtls/mbedtls-2.16.2/library\ecp_curves.c ****         N->p[i/2] &= 0x00000000FFFFFFFF;          \
 963:C:/Users/dtjld/workspace/AIoT/src/LiteOS_Lab/iot_link/network/dtls/mbedtls/mbedtls-2.16.2/library\ecp_curves.c ****         N->p[i/2] |= ((mbedtls_mpi_uint) cur) << 32;        \
 964:C:/Users/dtjld/workspace/AIoT/src/LiteOS_Lab/iot_link/network/dtls/mbedtls/mbedtls-2.16.2/library\ecp_curves.c ****     } else {                                      \
 965:C:/Users/dtjld/workspace/AIoT/src/LiteOS_Lab/iot_link/network/dtls/mbedtls/mbedtls-2.16.2/library\ecp_curves.c ****         N->p[i/2] &= 0xFFFFFFFF00000000;          \
 966:C:/Users/dtjld/workspace/AIoT/src/LiteOS_Lab/iot_link/network/dtls/mbedtls/mbedtls-2.16.2/library\ecp_curves.c ****         N->p[i/2] |= (mbedtls_mpi_uint) cur;                \
 967:C:/Users/dtjld/workspace/AIoT/src/LiteOS_Lab/iot_link/network/dtls/mbedtls/mbedtls-2.16.2/library\ecp_curves.c ****     }
 968:C:/Users/dtjld/workspace/AIoT/src/LiteOS_Lab/iot_link/network/dtls/mbedtls/mbedtls-2.16.2/library\ecp_curves.c **** 
 969:C:/Users/dtjld/workspace/AIoT/src/LiteOS_Lab/iot_link/network/dtls/mbedtls/mbedtls-2.16.2/library\ecp_curves.c **** #endif /* sizeof( mbedtls_mpi_uint ) */
 970:C:/Users/dtjld/workspace/AIoT/src/LiteOS_Lab/iot_link/network/dtls/mbedtls/mbedtls-2.16.2/library\ecp_curves.c **** 
 971:C:/Users/dtjld/workspace/AIoT/src/LiteOS_Lab/iot_link/network/dtls/mbedtls/mbedtls-2.16.2/library\ecp_curves.c **** /*
 972:C:/Users/dtjld/workspace/AIoT/src/LiteOS_Lab/iot_link/network/dtls/mbedtls/mbedtls-2.16.2/library\ecp_curves.c ****  * Helpers for addition and subtraction of chunks, with signed carry.
 973:C:/Users/dtjld/workspace/AIoT/src/LiteOS_Lab/iot_link/network/dtls/mbedtls/mbedtls-2.16.2/library\ecp_curves.c ****  */
 974:C:/Users/dtjld/workspace/AIoT/src/LiteOS_Lab/iot_link/network/dtls/mbedtls/mbedtls-2.16.2/library\ecp_curves.c **** static inline void add32( uint32_t *dst, uint32_t src, signed char *carry )
 975:C:/Users/dtjld/workspace/AIoT/src/LiteOS_Lab/iot_link/network/dtls/mbedtls/mbedtls-2.16.2/library\ecp_curves.c **** {
 2155              		.loc 1 975 0
 2156              		.cfi_startproc
 2157              		@ args = 0, pretend = 0, frame = 16
 2158              		@ frame_needed = 1, uses_anonymous_args = 0
 2159              		@ link register save eliminated.
 2160 0000 80B4     		push	{r7}
 2161              	.LCFI44:
 2162              		.cfi_def_cfa_offset 4
 2163              		.cfi_offset 7, -4
 2164 0002 85B0     		sub	sp, sp, #20
 2165              	.LCFI45:
 2166              		.cfi_def_cfa_offset 24
 2167 0004 00AF     		add	r7, sp, #0
ARM GAS  C:\Users\dtjld\AppData\Local\Temp\ccEzFpLd.s 			page 54


 2168              	.LCFI46:
 2169              		.cfi_def_cfa_register 7
 2170 0006 F860     		str	r0, [r7, #12]
 2171 0008 B960     		str	r1, [r7, #8]
 2172 000a 7A60     		str	r2, [r7, #4]
 976:C:/Users/dtjld/workspace/AIoT/src/LiteOS_Lab/iot_link/network/dtls/mbedtls/mbedtls-2.16.2/library\ecp_curves.c ****     *dst += src;
 2173              		.loc 1 976 0
 2174 000c FB68     		ldr	r3, [r7, #12]
 2175 000e 1A68     		ldr	r2, [r3]
 2176 0010 BB68     		ldr	r3, [r7, #8]
 2177 0012 1A44     		add	r2, r2, r3
 2178 0014 FB68     		ldr	r3, [r7, #12]
 2179 0016 1A60     		str	r2, [r3]
 977:C:/Users/dtjld/workspace/AIoT/src/LiteOS_Lab/iot_link/network/dtls/mbedtls/mbedtls-2.16.2/library\ecp_curves.c ****     *carry += ( *dst < src );
 2180              		.loc 1 977 0
 2181 0018 7B68     		ldr	r3, [r7, #4]
 2182 001a 93F90030 		ldrsb	r3, [r3]
 2183 001e DBB2     		uxtb	r3, r3
 2184 0020 FA68     		ldr	r2, [r7, #12]
 2185 0022 1268     		ldr	r2, [r2]
 2186 0024 B968     		ldr	r1, [r7, #8]
 2187 0026 9142     		cmp	r1, r2
 2188 0028 8CBF     		ite	hi
 2189 002a 0122     		movhi	r2, #1
 2190 002c 0022     		movls	r2, #0
 2191 002e D2B2     		uxtb	r2, r2
 2192 0030 1344     		add	r3, r3, r2
 2193 0032 DBB2     		uxtb	r3, r3
 2194 0034 5AB2     		sxtb	r2, r3
 2195 0036 7B68     		ldr	r3, [r7, #4]
 2196 0038 1A70     		strb	r2, [r3]
 978:C:/Users/dtjld/workspace/AIoT/src/LiteOS_Lab/iot_link/network/dtls/mbedtls/mbedtls-2.16.2/library\ecp_curves.c **** }
 2197              		.loc 1 978 0
 2198 003a 00BF     		nop
 2199 003c 1437     		adds	r7, r7, #20
 2200              	.LCFI47:
 2201              		.cfi_def_cfa_offset 4
 2202 003e BD46     		mov	sp, r7
 2203              	.LCFI48:
 2204              		.cfi_def_cfa_register 13
 2205              		@ sp needed
 2206 0040 5DF8047B 		ldr	r7, [sp], #4
 2207              	.LCFI49:
 2208              		.cfi_restore 7
 2209              		.cfi_def_cfa_offset 0
 2210 0044 7047     		bx	lr
 2211              		.cfi_endproc
 2212              	.LFE8:
 2214              		.section	.text.sub32,"ax",%progbits
 2215              		.align	1
 2216              		.syntax unified
 2217              		.thumb
 2218              		.thumb_func
 2219              		.fpu fpv4-sp-d16
 2221              	sub32:
 2222              	.LFB9:
 979:C:/Users/dtjld/workspace/AIoT/src/LiteOS_Lab/iot_link/network/dtls/mbedtls/mbedtls-2.16.2/library\ecp_curves.c **** 
ARM GAS  C:\Users\dtjld\AppData\Local\Temp\ccEzFpLd.s 			page 55


 980:C:/Users/dtjld/workspace/AIoT/src/LiteOS_Lab/iot_link/network/dtls/mbedtls/mbedtls-2.16.2/library\ecp_curves.c **** static inline void sub32( uint32_t *dst, uint32_t src, signed char *carry )
 981:C:/Users/dtjld/workspace/AIoT/src/LiteOS_Lab/iot_link/network/dtls/mbedtls/mbedtls-2.16.2/library\ecp_curves.c **** {
 2223              		.loc 1 981 0
 2224              		.cfi_startproc
 2225              		@ args = 0, pretend = 0, frame = 16
 2226              		@ frame_needed = 1, uses_anonymous_args = 0
 2227              		@ link register save eliminated.
 2228 0000 80B4     		push	{r7}
 2229              	.LCFI50:
 2230              		.cfi_def_cfa_offset 4
 2231              		.cfi_offset 7, -4
 2232 0002 85B0     		sub	sp, sp, #20
 2233              	.LCFI51:
 2234              		.cfi_def_cfa_offset 24
 2235 0004 00AF     		add	r7, sp, #0
 2236              	.LCFI52:
 2237              		.cfi_def_cfa_register 7
 2238 0006 F860     		str	r0, [r7, #12]
 2239 0008 B960     		str	r1, [r7, #8]
 2240 000a 7A60     		str	r2, [r7, #4]
 982:C:/Users/dtjld/workspace/AIoT/src/LiteOS_Lab/iot_link/network/dtls/mbedtls/mbedtls-2.16.2/library\ecp_curves.c ****     *carry -= ( *dst < src );
 2241              		.loc 1 982 0
 2242 000c 7B68     		ldr	r3, [r7, #4]
 2243 000e 93F90030 		ldrsb	r3, [r3]
 2244 0012 DBB2     		uxtb	r3, r3
 2245 0014 FA68     		ldr	r2, [r7, #12]
 2246 0016 1268     		ldr	r2, [r2]
 2247 0018 B968     		ldr	r1, [r7, #8]
 2248 001a 9142     		cmp	r1, r2
 2249 001c 8CBF     		ite	hi
 2250 001e 0122     		movhi	r2, #1
 2251 0020 0022     		movls	r2, #0
 2252 0022 D2B2     		uxtb	r2, r2
 2253 0024 9B1A     		subs	r3, r3, r2
 2254 0026 DBB2     		uxtb	r3, r3
 2255 0028 5AB2     		sxtb	r2, r3
 2256 002a 7B68     		ldr	r3, [r7, #4]
 2257 002c 1A70     		strb	r2, [r3]
 983:C:/Users/dtjld/workspace/AIoT/src/LiteOS_Lab/iot_link/network/dtls/mbedtls/mbedtls-2.16.2/library\ecp_curves.c ****     *dst -= src;
 2258              		.loc 1 983 0
 2259 002e FB68     		ldr	r3, [r7, #12]
 2260 0030 1A68     		ldr	r2, [r3]
 2261 0032 BB68     		ldr	r3, [r7, #8]
 2262 0034 D21A     		subs	r2, r2, r3
 2263 0036 FB68     		ldr	r3, [r7, #12]
 2264 0038 1A60     		str	r2, [r3]
 984:C:/Users/dtjld/workspace/AIoT/src/LiteOS_Lab/iot_link/network/dtls/mbedtls/mbedtls-2.16.2/library\ecp_curves.c **** }
 2265              		.loc 1 984 0
 2266 003a 00BF     		nop
 2267 003c 1437     		adds	r7, r7, #20
 2268              	.LCFI53:
 2269              		.cfi_def_cfa_offset 4
 2270 003e BD46     		mov	sp, r7
 2271              	.LCFI54:
 2272              		.cfi_def_cfa_register 13
 2273              		@ sp needed
 2274 0040 5DF8047B 		ldr	r7, [sp], #4
ARM GAS  C:\Users\dtjld\AppData\Local\Temp\ccEzFpLd.s 			page 56


 2275              	.LCFI55:
 2276              		.cfi_restore 7
 2277              		.cfi_def_cfa_offset 0
 2278 0044 7047     		bx	lr
 2279              		.cfi_endproc
 2280              	.LFE9:
 2282              		.section	.text.fix_negative,"ax",%progbits
 2283              		.align	1
 2284              		.syntax unified
 2285              		.thumb
 2286              		.thumb_func
 2287              		.fpu fpv4-sp-d16
 2289              	fix_negative:
 2290              	.LFB10:
 985:C:/Users/dtjld/workspace/AIoT/src/LiteOS_Lab/iot_link/network/dtls/mbedtls/mbedtls-2.16.2/library\ecp_curves.c **** 
 986:C:/Users/dtjld/workspace/AIoT/src/LiteOS_Lab/iot_link/network/dtls/mbedtls/mbedtls-2.16.2/library\ecp_curves.c **** #define ADD( j )    add32( &cur, A( j ), &c );
 987:C:/Users/dtjld/workspace/AIoT/src/LiteOS_Lab/iot_link/network/dtls/mbedtls/mbedtls-2.16.2/library\ecp_curves.c **** #define SUB( j )    sub32( &cur, A( j ), &c );
 988:C:/Users/dtjld/workspace/AIoT/src/LiteOS_Lab/iot_link/network/dtls/mbedtls/mbedtls-2.16.2/library\ecp_curves.c **** 
 989:C:/Users/dtjld/workspace/AIoT/src/LiteOS_Lab/iot_link/network/dtls/mbedtls/mbedtls-2.16.2/library\ecp_curves.c **** /*
 990:C:/Users/dtjld/workspace/AIoT/src/LiteOS_Lab/iot_link/network/dtls/mbedtls/mbedtls-2.16.2/library\ecp_curves.c ****  * Helpers for the main 'loop'
 991:C:/Users/dtjld/workspace/AIoT/src/LiteOS_Lab/iot_link/network/dtls/mbedtls/mbedtls-2.16.2/library\ecp_curves.c ****  * (see fix_negative for the motivation of C)
 992:C:/Users/dtjld/workspace/AIoT/src/LiteOS_Lab/iot_link/network/dtls/mbedtls/mbedtls-2.16.2/library\ecp_curves.c ****  */
 993:C:/Users/dtjld/workspace/AIoT/src/LiteOS_Lab/iot_link/network/dtls/mbedtls/mbedtls-2.16.2/library\ecp_curves.c **** #define INIT( b )                                                       \
 994:C:/Users/dtjld/workspace/AIoT/src/LiteOS_Lab/iot_link/network/dtls/mbedtls/mbedtls-2.16.2/library\ecp_curves.c ****     int ret;                                                            \
 995:C:/Users/dtjld/workspace/AIoT/src/LiteOS_Lab/iot_link/network/dtls/mbedtls/mbedtls-2.16.2/library\ecp_curves.c ****     signed char c = 0, cc;                                              \
 996:C:/Users/dtjld/workspace/AIoT/src/LiteOS_Lab/iot_link/network/dtls/mbedtls/mbedtls-2.16.2/library\ecp_curves.c ****     uint32_t cur;                                                       \
 997:C:/Users/dtjld/workspace/AIoT/src/LiteOS_Lab/iot_link/network/dtls/mbedtls/mbedtls-2.16.2/library\ecp_curves.c ****     size_t i = 0, bits = (b);                                           \
 998:C:/Users/dtjld/workspace/AIoT/src/LiteOS_Lab/iot_link/network/dtls/mbedtls/mbedtls-2.16.2/library\ecp_curves.c ****     mbedtls_mpi C;                                                      \
 999:C:/Users/dtjld/workspace/AIoT/src/LiteOS_Lab/iot_link/network/dtls/mbedtls/mbedtls-2.16.2/library\ecp_curves.c ****     mbedtls_mpi_uint Cp[ (b) / 8 / sizeof( mbedtls_mpi_uint) + 1 ];     \
1000:C:/Users/dtjld/workspace/AIoT/src/LiteOS_Lab/iot_link/network/dtls/mbedtls/mbedtls-2.16.2/library\ecp_curves.c ****                                                                         \
1001:C:/Users/dtjld/workspace/AIoT/src/LiteOS_Lab/iot_link/network/dtls/mbedtls/mbedtls-2.16.2/library\ecp_curves.c ****     C.s = 1;                                                            \
1002:C:/Users/dtjld/workspace/AIoT/src/LiteOS_Lab/iot_link/network/dtls/mbedtls/mbedtls-2.16.2/library\ecp_curves.c ****     C.n = (b) / 8 / sizeof( mbedtls_mpi_uint) + 1;                      \
1003:C:/Users/dtjld/workspace/AIoT/src/LiteOS_Lab/iot_link/network/dtls/mbedtls/mbedtls-2.16.2/library\ecp_curves.c ****     C.p = Cp;                                                           \
1004:C:/Users/dtjld/workspace/AIoT/src/LiteOS_Lab/iot_link/network/dtls/mbedtls/mbedtls-2.16.2/library\ecp_curves.c ****     memset( Cp, 0, C.n * sizeof( mbedtls_mpi_uint ) );                  \
1005:C:/Users/dtjld/workspace/AIoT/src/LiteOS_Lab/iot_link/network/dtls/mbedtls/mbedtls-2.16.2/library\ecp_curves.c ****                                                                         \
1006:C:/Users/dtjld/workspace/AIoT/src/LiteOS_Lab/iot_link/network/dtls/mbedtls/mbedtls-2.16.2/library\ecp_curves.c ****     MBEDTLS_MPI_CHK( mbedtls_mpi_grow( N, (b) * 2 / 8 /                 \
1007:C:/Users/dtjld/workspace/AIoT/src/LiteOS_Lab/iot_link/network/dtls/mbedtls/mbedtls-2.16.2/library\ecp_curves.c ****                                        sizeof( mbedtls_mpi_uint ) ) );  \
1008:C:/Users/dtjld/workspace/AIoT/src/LiteOS_Lab/iot_link/network/dtls/mbedtls/mbedtls-2.16.2/library\ecp_curves.c ****     LOAD32;
1009:C:/Users/dtjld/workspace/AIoT/src/LiteOS_Lab/iot_link/network/dtls/mbedtls/mbedtls-2.16.2/library\ecp_curves.c **** 
1010:C:/Users/dtjld/workspace/AIoT/src/LiteOS_Lab/iot_link/network/dtls/mbedtls/mbedtls-2.16.2/library\ecp_curves.c **** #define NEXT                    \
1011:C:/Users/dtjld/workspace/AIoT/src/LiteOS_Lab/iot_link/network/dtls/mbedtls/mbedtls-2.16.2/library\ecp_curves.c ****     STORE32; i++; LOAD32;       \
1012:C:/Users/dtjld/workspace/AIoT/src/LiteOS_Lab/iot_link/network/dtls/mbedtls/mbedtls-2.16.2/library\ecp_curves.c ****     cc = c; c = 0;              \
1013:C:/Users/dtjld/workspace/AIoT/src/LiteOS_Lab/iot_link/network/dtls/mbedtls/mbedtls-2.16.2/library\ecp_curves.c ****     if( cc < 0 )                \
1014:C:/Users/dtjld/workspace/AIoT/src/LiteOS_Lab/iot_link/network/dtls/mbedtls/mbedtls-2.16.2/library\ecp_curves.c ****         sub32( &cur, -cc, &c ); \
1015:C:/Users/dtjld/workspace/AIoT/src/LiteOS_Lab/iot_link/network/dtls/mbedtls/mbedtls-2.16.2/library\ecp_curves.c ****     else                        \
1016:C:/Users/dtjld/workspace/AIoT/src/LiteOS_Lab/iot_link/network/dtls/mbedtls/mbedtls-2.16.2/library\ecp_curves.c ****         add32( &cur, cc, &c );  \
1017:C:/Users/dtjld/workspace/AIoT/src/LiteOS_Lab/iot_link/network/dtls/mbedtls/mbedtls-2.16.2/library\ecp_curves.c **** 
1018:C:/Users/dtjld/workspace/AIoT/src/LiteOS_Lab/iot_link/network/dtls/mbedtls/mbedtls-2.16.2/library\ecp_curves.c **** #define LAST                                    \
1019:C:/Users/dtjld/workspace/AIoT/src/LiteOS_Lab/iot_link/network/dtls/mbedtls/mbedtls-2.16.2/library\ecp_curves.c ****     STORE32; i++;                               \
1020:C:/Users/dtjld/workspace/AIoT/src/LiteOS_Lab/iot_link/network/dtls/mbedtls/mbedtls-2.16.2/library\ecp_curves.c ****     cur = c > 0 ? c : 0; STORE32;               \
1021:C:/Users/dtjld/workspace/AIoT/src/LiteOS_Lab/iot_link/network/dtls/mbedtls/mbedtls-2.16.2/library\ecp_curves.c ****     cur = 0; while( ++i < MAX32 ) { STORE32; }  \
1022:C:/Users/dtjld/workspace/AIoT/src/LiteOS_Lab/iot_link/network/dtls/mbedtls/mbedtls-2.16.2/library\ecp_curves.c ****     if( c < 0 ) fix_negative( N, c, &C, bits );
1023:C:/Users/dtjld/workspace/AIoT/src/LiteOS_Lab/iot_link/network/dtls/mbedtls/mbedtls-2.16.2/library\ecp_curves.c **** 
1024:C:/Users/dtjld/workspace/AIoT/src/LiteOS_Lab/iot_link/network/dtls/mbedtls/mbedtls-2.16.2/library\ecp_curves.c **** /*
1025:C:/Users/dtjld/workspace/AIoT/src/LiteOS_Lab/iot_link/network/dtls/mbedtls/mbedtls-2.16.2/library\ecp_curves.c ****  * If the result is negative, we get it in the form
1026:C:/Users/dtjld/workspace/AIoT/src/LiteOS_Lab/iot_link/network/dtls/mbedtls/mbedtls-2.16.2/library\ecp_curves.c ****  * c * 2^(bits + 32) + N, with c negative and N positive shorter than 'bits'
1027:C:/Users/dtjld/workspace/AIoT/src/LiteOS_Lab/iot_link/network/dtls/mbedtls/mbedtls-2.16.2/library\ecp_curves.c ****  */
ARM GAS  C:\Users\dtjld\AppData\Local\Temp\ccEzFpLd.s 			page 57


1028:C:/Users/dtjld/workspace/AIoT/src/LiteOS_Lab/iot_link/network/dtls/mbedtls/mbedtls-2.16.2/library\ecp_curves.c **** static inline int fix_negative( mbedtls_mpi *N, signed char c, mbedtls_mpi *C, size_t bits )
1029:C:/Users/dtjld/workspace/AIoT/src/LiteOS_Lab/iot_link/network/dtls/mbedtls/mbedtls-2.16.2/library\ecp_curves.c **** {
 2291              		.loc 1 1029 0
 2292              		.cfi_startproc
 2293              		@ args = 0, pretend = 0, frame = 24
 2294              		@ frame_needed = 1, uses_anonymous_args = 0
 2295 0000 80B5     		push	{r7, lr}
 2296              	.LCFI56:
 2297              		.cfi_def_cfa_offset 8
 2298              		.cfi_offset 7, -8
 2299              		.cfi_offset 14, -4
 2300 0002 86B0     		sub	sp, sp, #24
 2301              	.LCFI57:
 2302              		.cfi_def_cfa_offset 32
 2303 0004 00AF     		add	r7, sp, #0
 2304              	.LCFI58:
 2305              		.cfi_def_cfa_register 7
 2306 0006 F860     		str	r0, [r7, #12]
 2307 0008 7A60     		str	r2, [r7, #4]
 2308 000a 3B60     		str	r3, [r7]
 2309 000c 0B46     		mov	r3, r1
 2310 000e FB72     		strb	r3, [r7, #11]
1030:C:/Users/dtjld/workspace/AIoT/src/LiteOS_Lab/iot_link/network/dtls/mbedtls/mbedtls-2.16.2/library\ecp_curves.c ****     int ret;
1031:C:/Users/dtjld/workspace/AIoT/src/LiteOS_Lab/iot_link/network/dtls/mbedtls/mbedtls-2.16.2/library\ecp_curves.c **** 
1032:C:/Users/dtjld/workspace/AIoT/src/LiteOS_Lab/iot_link/network/dtls/mbedtls/mbedtls-2.16.2/library\ecp_curves.c ****     /* C = - c * 2^(bits + 32) */
1033:C:/Users/dtjld/workspace/AIoT/src/LiteOS_Lab/iot_link/network/dtls/mbedtls/mbedtls-2.16.2/library\ecp_curves.c **** #if !defined(MBEDTLS_HAVE_INT64)
1034:C:/Users/dtjld/workspace/AIoT/src/LiteOS_Lab/iot_link/network/dtls/mbedtls/mbedtls-2.16.2/library\ecp_curves.c ****     ((void) bits);
1035:C:/Users/dtjld/workspace/AIoT/src/LiteOS_Lab/iot_link/network/dtls/mbedtls/mbedtls-2.16.2/library\ecp_curves.c **** #else
1036:C:/Users/dtjld/workspace/AIoT/src/LiteOS_Lab/iot_link/network/dtls/mbedtls/mbedtls-2.16.2/library\ecp_curves.c ****     if( bits == 224 )
1037:C:/Users/dtjld/workspace/AIoT/src/LiteOS_Lab/iot_link/network/dtls/mbedtls/mbedtls-2.16.2/library\ecp_curves.c ****         C->p[ C->n - 1 ] = ((mbedtls_mpi_uint) -c) << 32;
1038:C:/Users/dtjld/workspace/AIoT/src/LiteOS_Lab/iot_link/network/dtls/mbedtls/mbedtls-2.16.2/library\ecp_curves.c ****     else
1039:C:/Users/dtjld/workspace/AIoT/src/LiteOS_Lab/iot_link/network/dtls/mbedtls/mbedtls-2.16.2/library\ecp_curves.c **** #endif
1040:C:/Users/dtjld/workspace/AIoT/src/LiteOS_Lab/iot_link/network/dtls/mbedtls/mbedtls-2.16.2/library\ecp_curves.c ****         C->p[ C->n - 1 ] = (mbedtls_mpi_uint) -c;
 2311              		.loc 1 1040 0
 2312 0010 97F90B30 		ldrsb	r3, [r7, #11]
 2313 0014 5942     		negs	r1, r3
 2314 0016 7B68     		ldr	r3, [r7, #4]
 2315 0018 9A68     		ldr	r2, [r3, #8]
 2316 001a 7B68     		ldr	r3, [r7, #4]
 2317 001c 5B68     		ldr	r3, [r3, #4]
 2318 001e 03F18043 		add	r3, r3, #1073741824
 2319 0022 013B     		subs	r3, r3, #1
 2320 0024 9B00     		lsls	r3, r3, #2
 2321 0026 1344     		add	r3, r3, r2
 2322 0028 0A46     		mov	r2, r1
 2323 002a 1A60     		str	r2, [r3]
1041:C:/Users/dtjld/workspace/AIoT/src/LiteOS_Lab/iot_link/network/dtls/mbedtls/mbedtls-2.16.2/library\ecp_curves.c **** 
1042:C:/Users/dtjld/workspace/AIoT/src/LiteOS_Lab/iot_link/network/dtls/mbedtls/mbedtls-2.16.2/library\ecp_curves.c ****     /* N = - ( C - N ) */
1043:C:/Users/dtjld/workspace/AIoT/src/LiteOS_Lab/iot_link/network/dtls/mbedtls/mbedtls-2.16.2/library\ecp_curves.c ****     MBEDTLS_MPI_CHK( mbedtls_mpi_sub_abs( N, C, N ) );
 2324              		.loc 1 1043 0
 2325 002c FA68     		ldr	r2, [r7, #12]
 2326 002e 7968     		ldr	r1, [r7, #4]
 2327 0030 F868     		ldr	r0, [r7, #12]
 2328 0032 FFF7FEFF 		bl	mbedtls_mpi_sub_abs
 2329 0036 7861     		str	r0, [r7, #20]
 2330 0038 7B69     		ldr	r3, [r7, #20]
 2331 003a 002B     		cmp	r3, #0
ARM GAS  C:\Users\dtjld\AppData\Local\Temp\ccEzFpLd.s 			page 58


 2332 003c 04D1     		bne	.L69
1044:C:/Users/dtjld/workspace/AIoT/src/LiteOS_Lab/iot_link/network/dtls/mbedtls/mbedtls-2.16.2/library\ecp_curves.c ****     N->s = -1;
 2333              		.loc 1 1044 0
 2334 003e FB68     		ldr	r3, [r7, #12]
 2335 0040 4FF0FF32 		mov	r2, #-1
 2336 0044 1A60     		str	r2, [r3]
 2337 0046 00E0     		b	.L67
 2338              	.L69:
1043:C:/Users/dtjld/workspace/AIoT/src/LiteOS_Lab/iot_link/network/dtls/mbedtls/mbedtls-2.16.2/library\ecp_curves.c ****     N->s = -1;
 2339              		.loc 1 1043 0
 2340 0048 00BF     		nop
 2341              	.L67:
1045:C:/Users/dtjld/workspace/AIoT/src/LiteOS_Lab/iot_link/network/dtls/mbedtls/mbedtls-2.16.2/library\ecp_curves.c **** 
1046:C:/Users/dtjld/workspace/AIoT/src/LiteOS_Lab/iot_link/network/dtls/mbedtls/mbedtls-2.16.2/library\ecp_curves.c **** cleanup:
1047:C:/Users/dtjld/workspace/AIoT/src/LiteOS_Lab/iot_link/network/dtls/mbedtls/mbedtls-2.16.2/library\ecp_curves.c **** 
1048:C:/Users/dtjld/workspace/AIoT/src/LiteOS_Lab/iot_link/network/dtls/mbedtls/mbedtls-2.16.2/library\ecp_curves.c ****     return( ret );
 2342              		.loc 1 1048 0
 2343 004a 7B69     		ldr	r3, [r7, #20]
1049:C:/Users/dtjld/workspace/AIoT/src/LiteOS_Lab/iot_link/network/dtls/mbedtls/mbedtls-2.16.2/library\ecp_curves.c **** }
 2344              		.loc 1 1049 0
 2345 004c 1846     		mov	r0, r3
 2346 004e 1837     		adds	r7, r7, #24
 2347              	.LCFI59:
 2348              		.cfi_def_cfa_offset 8
 2349 0050 BD46     		mov	sp, r7
 2350              	.LCFI60:
 2351              		.cfi_def_cfa_register 13
 2352              		@ sp needed
 2353 0052 80BD     		pop	{r7, pc}
 2354              		.cfi_endproc
 2355              	.LFE10:
 2357              		.section	.text.ecp_mod_p224,"ax",%progbits
 2358              		.align	1
 2359              		.syntax unified
 2360              		.thumb
 2361              		.thumb_func
 2362              		.fpu fpv4-sp-d16
 2364              	ecp_mod_p224:
 2365              	.LFB11:
1050:C:/Users/dtjld/workspace/AIoT/src/LiteOS_Lab/iot_link/network/dtls/mbedtls/mbedtls-2.16.2/library\ecp_curves.c **** 
1051:C:/Users/dtjld/workspace/AIoT/src/LiteOS_Lab/iot_link/network/dtls/mbedtls/mbedtls-2.16.2/library\ecp_curves.c **** #if defined(MBEDTLS_ECP_DP_SECP224R1_ENABLED)
1052:C:/Users/dtjld/workspace/AIoT/src/LiteOS_Lab/iot_link/network/dtls/mbedtls/mbedtls-2.16.2/library\ecp_curves.c **** /*
1053:C:/Users/dtjld/workspace/AIoT/src/LiteOS_Lab/iot_link/network/dtls/mbedtls/mbedtls-2.16.2/library\ecp_curves.c ****  * Fast quasi-reduction modulo p224 (FIPS 186-3 D.2.2)
1054:C:/Users/dtjld/workspace/AIoT/src/LiteOS_Lab/iot_link/network/dtls/mbedtls/mbedtls-2.16.2/library\ecp_curves.c ****  */
1055:C:/Users/dtjld/workspace/AIoT/src/LiteOS_Lab/iot_link/network/dtls/mbedtls/mbedtls-2.16.2/library\ecp_curves.c **** static int ecp_mod_p224( mbedtls_mpi *N )
1056:C:/Users/dtjld/workspace/AIoT/src/LiteOS_Lab/iot_link/network/dtls/mbedtls/mbedtls-2.16.2/library\ecp_curves.c **** {
 2366              		.loc 1 1056 0
 2367              		.cfi_startproc
 2368              		@ args = 0, pretend = 0, frame = 72
 2369              		@ frame_needed = 1, uses_anonymous_args = 0
 2370 0000 80B5     		push	{r7, lr}
 2371              	.LCFI61:
 2372              		.cfi_def_cfa_offset 8
 2373              		.cfi_offset 7, -8
 2374              		.cfi_offset 14, -4
 2375 0002 92B0     		sub	sp, sp, #72
 2376              	.LCFI62:
ARM GAS  C:\Users\dtjld\AppData\Local\Temp\ccEzFpLd.s 			page 59


 2377              		.cfi_def_cfa_offset 80
 2378 0004 00AF     		add	r7, sp, #0
 2379              	.LCFI63:
 2380              		.cfi_def_cfa_register 7
 2381 0006 7860     		str	r0, [r7, #4]
1057:C:/Users/dtjld/workspace/AIoT/src/LiteOS_Lab/iot_link/network/dtls/mbedtls/mbedtls-2.16.2/library\ecp_curves.c ****     INIT( 224 );
 2382              		.loc 1 1057 0
 2383 0008 0023     		movs	r3, #0
 2384 000a 87F83A30 		strb	r3, [r7, #58]
 2385 000e 0023     		movs	r3, #0
 2386 0010 7B64     		str	r3, [r7, #68]
 2387 0012 E023     		movs	r3, #224
 2388 0014 3B64     		str	r3, [r7, #64]
 2389 0016 0123     		movs	r3, #1
 2390 0018 BB62     		str	r3, [r7, #40]
 2391 001a 0823     		movs	r3, #8
 2392 001c FB62     		str	r3, [r7, #44]
 2393 001e 07F10803 		add	r3, r7, #8
 2394 0022 3B63     		str	r3, [r7, #48]
 2395 0024 FB6A     		ldr	r3, [r7, #44]
 2396 0026 9A00     		lsls	r2, r3, #2
 2397 0028 07F10803 		add	r3, r7, #8
 2398 002c 0021     		movs	r1, #0
 2399 002e 1846     		mov	r0, r3
 2400 0030 FFF7FEFF 		bl	memset
 2401 0034 0E21     		movs	r1, #14
 2402 0036 7868     		ldr	r0, [r7, #4]
 2403 0038 FFF7FEFF 		bl	mbedtls_mpi_grow
 2404 003c F863     		str	r0, [r7, #60]
 2405 003e FB6B     		ldr	r3, [r7, #60]
 2406 0040 002B     		cmp	r3, #0
 2407 0042 40F01E82 		bne	.L88
 2408              		.loc 1 1057 0 is_stmt 0 discriminator 1
 2409 0046 7B68     		ldr	r3, [r7, #4]
 2410 0048 9A68     		ldr	r2, [r3, #8]
 2411 004a 7B6C     		ldr	r3, [r7, #68]
 2412 004c 9B00     		lsls	r3, r3, #2
 2413 004e 1344     		add	r3, r3, r2
 2414 0050 1B68     		ldr	r3, [r3]
 2415 0052 7B63     		str	r3, [r7, #52]
1058:C:/Users/dtjld/workspace/AIoT/src/LiteOS_Lab/iot_link/network/dtls/mbedtls/mbedtls-2.16.2/library\ecp_curves.c **** 
1059:C:/Users/dtjld/workspace/AIoT/src/LiteOS_Lab/iot_link/network/dtls/mbedtls/mbedtls-2.16.2/library\ecp_curves.c ****     SUB(  7 ); SUB( 11 );               NEXT; // A0 += -A7 - A11
 2416              		.loc 1 1059 0 is_stmt 1 discriminator 1
 2417 0054 7B68     		ldr	r3, [r7, #4]
 2418 0056 9B68     		ldr	r3, [r3, #8]
 2419 0058 1C33     		adds	r3, r3, #28
 2420 005a 1968     		ldr	r1, [r3]
 2421 005c 07F13A02 		add	r2, r7, #58
 2422 0060 07F13403 		add	r3, r7, #52
 2423 0064 1846     		mov	r0, r3
 2424 0066 FFF7FEFF 		bl	sub32
 2425 006a 7B68     		ldr	r3, [r7, #4]
 2426 006c 9B68     		ldr	r3, [r3, #8]
 2427 006e 2C33     		adds	r3, r3, #44
 2428 0070 1968     		ldr	r1, [r3]
 2429 0072 07F13A02 		add	r2, r7, #58
 2430 0076 07F13403 		add	r3, r7, #52
ARM GAS  C:\Users\dtjld\AppData\Local\Temp\ccEzFpLd.s 			page 60


 2431 007a 1846     		mov	r0, r3
 2432 007c FFF7FEFF 		bl	sub32
 2433 0080 7B68     		ldr	r3, [r7, #4]
 2434 0082 9A68     		ldr	r2, [r3, #8]
 2435 0084 7B6C     		ldr	r3, [r7, #68]
 2436 0086 9B00     		lsls	r3, r3, #2
 2437 0088 1344     		add	r3, r3, r2
 2438 008a 7A6B     		ldr	r2, [r7, #52]
 2439 008c 1A60     		str	r2, [r3]
 2440 008e 7B6C     		ldr	r3, [r7, #68]
 2441 0090 0133     		adds	r3, r3, #1
 2442 0092 7B64     		str	r3, [r7, #68]
 2443 0094 7B68     		ldr	r3, [r7, #4]
 2444 0096 9A68     		ldr	r2, [r3, #8]
 2445 0098 7B6C     		ldr	r3, [r7, #68]
 2446 009a 9B00     		lsls	r3, r3, #2
 2447 009c 1344     		add	r3, r3, r2
 2448 009e 1B68     		ldr	r3, [r3]
 2449 00a0 7B63     		str	r3, [r7, #52]
 2450 00a2 97F83A30 		ldrb	r3, [r7, #58]
 2451 00a6 87F83B30 		strb	r3, [r7, #59]
 2452 00aa 0023     		movs	r3, #0
 2453 00ac 87F83A30 		strb	r3, [r7, #58]
 2454 00b0 97F93B30 		ldrsb	r3, [r7, #59]
 2455 00b4 002B     		cmp	r3, #0
 2456 00b6 0BDA     		bge	.L73
 2457 00b8 97F93B30 		ldrsb	r3, [r7, #59]
 2458 00bc 5B42     		negs	r3, r3
 2459 00be 1946     		mov	r1, r3
 2460 00c0 07F13A02 		add	r2, r7, #58
 2461 00c4 07F13403 		add	r3, r7, #52
 2462 00c8 1846     		mov	r0, r3
 2463 00ca FFF7FEFF 		bl	sub32
 2464 00ce 08E0     		b	.L74
 2465              	.L73:
 2466              		.loc 1 1059 0 is_stmt 0 discriminator 2
 2467 00d0 97F93B10 		ldrsb	r1, [r7, #59]
 2468 00d4 07F13A02 		add	r2, r7, #58
 2469 00d8 07F13403 		add	r3, r7, #52
 2470 00dc 1846     		mov	r0, r3
 2471 00de FFF7FEFF 		bl	add32
 2472              	.L74:
1060:C:/Users/dtjld/workspace/AIoT/src/LiteOS_Lab/iot_link/network/dtls/mbedtls/mbedtls-2.16.2/library\ecp_curves.c ****     SUB(  8 ); SUB( 12 );               NEXT; // A1 += -A8 - A12
 2473              		.loc 1 1060 0 is_stmt 1
 2474 00e2 7B68     		ldr	r3, [r7, #4]
 2475 00e4 9B68     		ldr	r3, [r3, #8]
 2476 00e6 2033     		adds	r3, r3, #32
 2477 00e8 1968     		ldr	r1, [r3]
 2478 00ea 07F13A02 		add	r2, r7, #58
 2479 00ee 07F13403 		add	r3, r7, #52
 2480 00f2 1846     		mov	r0, r3
 2481 00f4 FFF7FEFF 		bl	sub32
 2482 00f8 7B68     		ldr	r3, [r7, #4]
 2483 00fa 9B68     		ldr	r3, [r3, #8]
 2484 00fc 3033     		adds	r3, r3, #48
 2485 00fe 1968     		ldr	r1, [r3]
 2486 0100 07F13A02 		add	r2, r7, #58
ARM GAS  C:\Users\dtjld\AppData\Local\Temp\ccEzFpLd.s 			page 61


 2487 0104 07F13403 		add	r3, r7, #52
 2488 0108 1846     		mov	r0, r3
 2489 010a FFF7FEFF 		bl	sub32
 2490 010e 7B68     		ldr	r3, [r7, #4]
 2491 0110 9A68     		ldr	r2, [r3, #8]
 2492 0112 7B6C     		ldr	r3, [r7, #68]
 2493 0114 9B00     		lsls	r3, r3, #2
 2494 0116 1344     		add	r3, r3, r2
 2495 0118 7A6B     		ldr	r2, [r7, #52]
 2496 011a 1A60     		str	r2, [r3]
 2497 011c 7B6C     		ldr	r3, [r7, #68]
 2498 011e 0133     		adds	r3, r3, #1
 2499 0120 7B64     		str	r3, [r7, #68]
 2500 0122 7B68     		ldr	r3, [r7, #4]
 2501 0124 9A68     		ldr	r2, [r3, #8]
 2502 0126 7B6C     		ldr	r3, [r7, #68]
 2503 0128 9B00     		lsls	r3, r3, #2
 2504 012a 1344     		add	r3, r3, r2
 2505 012c 1B68     		ldr	r3, [r3]
 2506 012e 7B63     		str	r3, [r7, #52]
 2507 0130 97F83A30 		ldrb	r3, [r7, #58]
 2508 0134 87F83B30 		strb	r3, [r7, #59]
 2509 0138 0023     		movs	r3, #0
 2510 013a 87F83A30 		strb	r3, [r7, #58]
 2511 013e 97F93B30 		ldrsb	r3, [r7, #59]
 2512 0142 002B     		cmp	r3, #0
 2513 0144 0BDA     		bge	.L75
 2514              		.loc 1 1060 0 is_stmt 0 discriminator 1
 2515 0146 97F93B30 		ldrsb	r3, [r7, #59]
 2516 014a 5B42     		negs	r3, r3
 2517 014c 1946     		mov	r1, r3
 2518 014e 07F13A02 		add	r2, r7, #58
 2519 0152 07F13403 		add	r3, r7, #52
 2520 0156 1846     		mov	r0, r3
 2521 0158 FFF7FEFF 		bl	sub32
 2522 015c 08E0     		b	.L76
 2523              	.L75:
 2524              		.loc 1 1060 0 discriminator 2
 2525 015e 97F93B10 		ldrsb	r1, [r7, #59]
 2526 0162 07F13A02 		add	r2, r7, #58
 2527 0166 07F13403 		add	r3, r7, #52
 2528 016a 1846     		mov	r0, r3
 2529 016c FFF7FEFF 		bl	add32
 2530              	.L76:
1061:C:/Users/dtjld/workspace/AIoT/src/LiteOS_Lab/iot_link/network/dtls/mbedtls/mbedtls-2.16.2/library\ecp_curves.c ****     SUB(  9 ); SUB( 13 );               NEXT; // A2 += -A9 - A13
 2531              		.loc 1 1061 0 is_stmt 1
 2532 0170 7B68     		ldr	r3, [r7, #4]
 2533 0172 9B68     		ldr	r3, [r3, #8]
 2534 0174 2433     		adds	r3, r3, #36
 2535 0176 1968     		ldr	r1, [r3]
 2536 0178 07F13A02 		add	r2, r7, #58
 2537 017c 07F13403 		add	r3, r7, #52
 2538 0180 1846     		mov	r0, r3
 2539 0182 FFF7FEFF 		bl	sub32
 2540 0186 7B68     		ldr	r3, [r7, #4]
 2541 0188 9B68     		ldr	r3, [r3, #8]
 2542 018a 3433     		adds	r3, r3, #52
ARM GAS  C:\Users\dtjld\AppData\Local\Temp\ccEzFpLd.s 			page 62


 2543 018c 1968     		ldr	r1, [r3]
 2544 018e 07F13A02 		add	r2, r7, #58
 2545 0192 07F13403 		add	r3, r7, #52
 2546 0196 1846     		mov	r0, r3
 2547 0198 FFF7FEFF 		bl	sub32
 2548 019c 7B68     		ldr	r3, [r7, #4]
 2549 019e 9A68     		ldr	r2, [r3, #8]
 2550 01a0 7B6C     		ldr	r3, [r7, #68]
 2551 01a2 9B00     		lsls	r3, r3, #2
 2552 01a4 1344     		add	r3, r3, r2
 2553 01a6 7A6B     		ldr	r2, [r7, #52]
 2554 01a8 1A60     		str	r2, [r3]
 2555 01aa 7B6C     		ldr	r3, [r7, #68]
 2556 01ac 0133     		adds	r3, r3, #1
 2557 01ae 7B64     		str	r3, [r7, #68]
 2558 01b0 7B68     		ldr	r3, [r7, #4]
 2559 01b2 9A68     		ldr	r2, [r3, #8]
 2560 01b4 7B6C     		ldr	r3, [r7, #68]
 2561 01b6 9B00     		lsls	r3, r3, #2
 2562 01b8 1344     		add	r3, r3, r2
 2563 01ba 1B68     		ldr	r3, [r3]
 2564 01bc 7B63     		str	r3, [r7, #52]
 2565 01be 97F83A30 		ldrb	r3, [r7, #58]
 2566 01c2 87F83B30 		strb	r3, [r7, #59]
 2567 01c6 0023     		movs	r3, #0
 2568 01c8 87F83A30 		strb	r3, [r7, #58]
 2569 01cc 97F93B30 		ldrsb	r3, [r7, #59]
 2570 01d0 002B     		cmp	r3, #0
 2571 01d2 0BDA     		bge	.L77
 2572              		.loc 1 1061 0 is_stmt 0 discriminator 1
 2573 01d4 97F93B30 		ldrsb	r3, [r7, #59]
 2574 01d8 5B42     		negs	r3, r3
 2575 01da 1946     		mov	r1, r3
 2576 01dc 07F13A02 		add	r2, r7, #58
 2577 01e0 07F13403 		add	r3, r7, #52
 2578 01e4 1846     		mov	r0, r3
 2579 01e6 FFF7FEFF 		bl	sub32
 2580 01ea 08E0     		b	.L78
 2581              	.L77:
 2582              		.loc 1 1061 0 discriminator 2
 2583 01ec 97F93B10 		ldrsb	r1, [r7, #59]
 2584 01f0 07F13A02 		add	r2, r7, #58
 2585 01f4 07F13403 		add	r3, r7, #52
 2586 01f8 1846     		mov	r0, r3
 2587 01fa FFF7FEFF 		bl	add32
 2588              	.L78:
1062:C:/Users/dtjld/workspace/AIoT/src/LiteOS_Lab/iot_link/network/dtls/mbedtls/mbedtls-2.16.2/library\ecp_curves.c ****     SUB( 10 ); ADD(  7 ); ADD( 11 );    NEXT; // A3 += -A10 + A7 + A11
 2589              		.loc 1 1062 0 is_stmt 1
 2590 01fe 7B68     		ldr	r3, [r7, #4]
 2591 0200 9B68     		ldr	r3, [r3, #8]
 2592 0202 2833     		adds	r3, r3, #40
 2593 0204 1968     		ldr	r1, [r3]
 2594 0206 07F13A02 		add	r2, r7, #58
 2595 020a 07F13403 		add	r3, r7, #52
 2596 020e 1846     		mov	r0, r3
 2597 0210 FFF7FEFF 		bl	sub32
 2598 0214 7B68     		ldr	r3, [r7, #4]
ARM GAS  C:\Users\dtjld\AppData\Local\Temp\ccEzFpLd.s 			page 63


 2599 0216 9B68     		ldr	r3, [r3, #8]
 2600 0218 1C33     		adds	r3, r3, #28
 2601 021a 1968     		ldr	r1, [r3]
 2602 021c 07F13A02 		add	r2, r7, #58
 2603 0220 07F13403 		add	r3, r7, #52
 2604 0224 1846     		mov	r0, r3
 2605 0226 FFF7FEFF 		bl	add32
 2606 022a 7B68     		ldr	r3, [r7, #4]
 2607 022c 9B68     		ldr	r3, [r3, #8]
 2608 022e 2C33     		adds	r3, r3, #44
 2609 0230 1968     		ldr	r1, [r3]
 2610 0232 07F13A02 		add	r2, r7, #58
 2611 0236 07F13403 		add	r3, r7, #52
 2612 023a 1846     		mov	r0, r3
 2613 023c FFF7FEFF 		bl	add32
 2614 0240 7B68     		ldr	r3, [r7, #4]
 2615 0242 9A68     		ldr	r2, [r3, #8]
 2616 0244 7B6C     		ldr	r3, [r7, #68]
 2617 0246 9B00     		lsls	r3, r3, #2
 2618 0248 1344     		add	r3, r3, r2
 2619 024a 7A6B     		ldr	r2, [r7, #52]
 2620 024c 1A60     		str	r2, [r3]
 2621 024e 7B6C     		ldr	r3, [r7, #68]
 2622 0250 0133     		adds	r3, r3, #1
 2623 0252 7B64     		str	r3, [r7, #68]
 2624 0254 7B68     		ldr	r3, [r7, #4]
 2625 0256 9A68     		ldr	r2, [r3, #8]
 2626 0258 7B6C     		ldr	r3, [r7, #68]
 2627 025a 9B00     		lsls	r3, r3, #2
 2628 025c 1344     		add	r3, r3, r2
 2629 025e 1B68     		ldr	r3, [r3]
 2630 0260 7B63     		str	r3, [r7, #52]
 2631 0262 97F83A30 		ldrb	r3, [r7, #58]
 2632 0266 87F83B30 		strb	r3, [r7, #59]
 2633 026a 0023     		movs	r3, #0
 2634 026c 87F83A30 		strb	r3, [r7, #58]
 2635 0270 97F93B30 		ldrsb	r3, [r7, #59]
 2636 0274 002B     		cmp	r3, #0
 2637 0276 0BDA     		bge	.L79
 2638              		.loc 1 1062 0 is_stmt 0 discriminator 1
 2639 0278 97F93B30 		ldrsb	r3, [r7, #59]
 2640 027c 5B42     		negs	r3, r3
 2641 027e 1946     		mov	r1, r3
 2642 0280 07F13A02 		add	r2, r7, #58
 2643 0284 07F13403 		add	r3, r7, #52
 2644 0288 1846     		mov	r0, r3
 2645 028a FFF7FEFF 		bl	sub32
 2646 028e 08E0     		b	.L80
 2647              	.L79:
 2648              		.loc 1 1062 0 discriminator 2
 2649 0290 97F93B10 		ldrsb	r1, [r7, #59]
 2650 0294 07F13A02 		add	r2, r7, #58
 2651 0298 07F13403 		add	r3, r7, #52
 2652 029c 1846     		mov	r0, r3
 2653 029e FFF7FEFF 		bl	add32
 2654              	.L80:
1063:C:/Users/dtjld/workspace/AIoT/src/LiteOS_Lab/iot_link/network/dtls/mbedtls/mbedtls-2.16.2/library\ecp_curves.c ****     SUB( 11 ); ADD(  8 ); ADD( 12 );    NEXT; // A4 += -A11 + A8 + A12
ARM GAS  C:\Users\dtjld\AppData\Local\Temp\ccEzFpLd.s 			page 64


 2655              		.loc 1 1063 0 is_stmt 1
 2656 02a2 7B68     		ldr	r3, [r7, #4]
 2657 02a4 9B68     		ldr	r3, [r3, #8]
 2658 02a6 2C33     		adds	r3, r3, #44
 2659 02a8 1968     		ldr	r1, [r3]
 2660 02aa 07F13A02 		add	r2, r7, #58
 2661 02ae 07F13403 		add	r3, r7, #52
 2662 02b2 1846     		mov	r0, r3
 2663 02b4 FFF7FEFF 		bl	sub32
 2664 02b8 7B68     		ldr	r3, [r7, #4]
 2665 02ba 9B68     		ldr	r3, [r3, #8]
 2666 02bc 2033     		adds	r3, r3, #32
 2667 02be 1968     		ldr	r1, [r3]
 2668 02c0 07F13A02 		add	r2, r7, #58
 2669 02c4 07F13403 		add	r3, r7, #52
 2670 02c8 1846     		mov	r0, r3
 2671 02ca FFF7FEFF 		bl	add32
 2672 02ce 7B68     		ldr	r3, [r7, #4]
 2673 02d0 9B68     		ldr	r3, [r3, #8]
 2674 02d2 3033     		adds	r3, r3, #48
 2675 02d4 1968     		ldr	r1, [r3]
 2676 02d6 07F13A02 		add	r2, r7, #58
 2677 02da 07F13403 		add	r3, r7, #52
 2678 02de 1846     		mov	r0, r3
 2679 02e0 FFF7FEFF 		bl	add32
 2680 02e4 7B68     		ldr	r3, [r7, #4]
 2681 02e6 9A68     		ldr	r2, [r3, #8]
 2682 02e8 7B6C     		ldr	r3, [r7, #68]
 2683 02ea 9B00     		lsls	r3, r3, #2
 2684 02ec 1344     		add	r3, r3, r2
 2685 02ee 7A6B     		ldr	r2, [r7, #52]
 2686 02f0 1A60     		str	r2, [r3]
 2687 02f2 7B6C     		ldr	r3, [r7, #68]
 2688 02f4 0133     		adds	r3, r3, #1
 2689 02f6 7B64     		str	r3, [r7, #68]
 2690 02f8 7B68     		ldr	r3, [r7, #4]
 2691 02fa 9A68     		ldr	r2, [r3, #8]
 2692 02fc 7B6C     		ldr	r3, [r7, #68]
 2693 02fe 9B00     		lsls	r3, r3, #2
 2694 0300 1344     		add	r3, r3, r2
 2695 0302 1B68     		ldr	r3, [r3]
 2696 0304 7B63     		str	r3, [r7, #52]
 2697 0306 97F83A30 		ldrb	r3, [r7, #58]
 2698 030a 87F83B30 		strb	r3, [r7, #59]
 2699 030e 0023     		movs	r3, #0
 2700 0310 87F83A30 		strb	r3, [r7, #58]
 2701 0314 97F93B30 		ldrsb	r3, [r7, #59]
 2702 0318 002B     		cmp	r3, #0
 2703 031a 0BDA     		bge	.L81
 2704              		.loc 1 1063 0 is_stmt 0 discriminator 1
 2705 031c 97F93B30 		ldrsb	r3, [r7, #59]
 2706 0320 5B42     		negs	r3, r3
 2707 0322 1946     		mov	r1, r3
 2708 0324 07F13A02 		add	r2, r7, #58
 2709 0328 07F13403 		add	r3, r7, #52
 2710 032c 1846     		mov	r0, r3
 2711 032e FFF7FEFF 		bl	sub32
ARM GAS  C:\Users\dtjld\AppData\Local\Temp\ccEzFpLd.s 			page 65


 2712 0332 08E0     		b	.L82
 2713              	.L81:
 2714              		.loc 1 1063 0 discriminator 2
 2715 0334 97F93B10 		ldrsb	r1, [r7, #59]
 2716 0338 07F13A02 		add	r2, r7, #58
 2717 033c 07F13403 		add	r3, r7, #52
 2718 0340 1846     		mov	r0, r3
 2719 0342 FFF7FEFF 		bl	add32
 2720              	.L82:
1064:C:/Users/dtjld/workspace/AIoT/src/LiteOS_Lab/iot_link/network/dtls/mbedtls/mbedtls-2.16.2/library\ecp_curves.c ****     SUB( 12 ); ADD(  9 ); ADD( 13 );    NEXT; // A5 += -A12 + A9 + A13
 2721              		.loc 1 1064 0 is_stmt 1
 2722 0346 7B68     		ldr	r3, [r7, #4]
 2723 0348 9B68     		ldr	r3, [r3, #8]
 2724 034a 3033     		adds	r3, r3, #48
 2725 034c 1968     		ldr	r1, [r3]
 2726 034e 07F13A02 		add	r2, r7, #58
 2727 0352 07F13403 		add	r3, r7, #52
 2728 0356 1846     		mov	r0, r3
 2729 0358 FFF7FEFF 		bl	sub32
 2730 035c 7B68     		ldr	r3, [r7, #4]
 2731 035e 9B68     		ldr	r3, [r3, #8]
 2732 0360 2433     		adds	r3, r3, #36
 2733 0362 1968     		ldr	r1, [r3]
 2734 0364 07F13A02 		add	r2, r7, #58
 2735 0368 07F13403 		add	r3, r7, #52
 2736 036c 1846     		mov	r0, r3
 2737 036e FFF7FEFF 		bl	add32
 2738 0372 7B68     		ldr	r3, [r7, #4]
 2739 0374 9B68     		ldr	r3, [r3, #8]
 2740 0376 3433     		adds	r3, r3, #52
 2741 0378 1968     		ldr	r1, [r3]
 2742 037a 07F13A02 		add	r2, r7, #58
 2743 037e 07F13403 		add	r3, r7, #52
 2744 0382 1846     		mov	r0, r3
 2745 0384 FFF7FEFF 		bl	add32
 2746 0388 7B68     		ldr	r3, [r7, #4]
 2747 038a 9A68     		ldr	r2, [r3, #8]
 2748 038c 7B6C     		ldr	r3, [r7, #68]
 2749 038e 9B00     		lsls	r3, r3, #2
 2750 0390 1344     		add	r3, r3, r2
 2751 0392 7A6B     		ldr	r2, [r7, #52]
 2752 0394 1A60     		str	r2, [r3]
 2753 0396 7B6C     		ldr	r3, [r7, #68]
 2754 0398 0133     		adds	r3, r3, #1
 2755 039a 7B64     		str	r3, [r7, #68]
 2756 039c 7B68     		ldr	r3, [r7, #4]
 2757 039e 9A68     		ldr	r2, [r3, #8]
 2758 03a0 7B6C     		ldr	r3, [r7, #68]
 2759 03a2 9B00     		lsls	r3, r3, #2
 2760 03a4 1344     		add	r3, r3, r2
 2761 03a6 1B68     		ldr	r3, [r3]
 2762 03a8 7B63     		str	r3, [r7, #52]
 2763 03aa 97F83A30 		ldrb	r3, [r7, #58]
 2764 03ae 87F83B30 		strb	r3, [r7, #59]
 2765 03b2 0023     		movs	r3, #0
 2766 03b4 87F83A30 		strb	r3, [r7, #58]
 2767 03b8 97F93B30 		ldrsb	r3, [r7, #59]
ARM GAS  C:\Users\dtjld\AppData\Local\Temp\ccEzFpLd.s 			page 66


 2768 03bc 002B     		cmp	r3, #0
 2769 03be 0BDA     		bge	.L83
 2770              		.loc 1 1064 0 is_stmt 0 discriminator 1
 2771 03c0 97F93B30 		ldrsb	r3, [r7, #59]
 2772 03c4 5B42     		negs	r3, r3
 2773 03c6 1946     		mov	r1, r3
 2774 03c8 07F13A02 		add	r2, r7, #58
 2775 03cc 07F13403 		add	r3, r7, #52
 2776 03d0 1846     		mov	r0, r3
 2777 03d2 FFF7FEFF 		bl	sub32
 2778 03d6 08E0     		b	.L84
 2779              	.L83:
 2780              		.loc 1 1064 0 discriminator 2
 2781 03d8 97F93B10 		ldrsb	r1, [r7, #59]
 2782 03dc 07F13A02 		add	r2, r7, #58
 2783 03e0 07F13403 		add	r3, r7, #52
 2784 03e4 1846     		mov	r0, r3
 2785 03e6 FFF7FEFF 		bl	add32
 2786              	.L84:
1065:C:/Users/dtjld/workspace/AIoT/src/LiteOS_Lab/iot_link/network/dtls/mbedtls/mbedtls-2.16.2/library\ecp_curves.c ****     SUB( 13 ); ADD( 10 );               LAST; // A6 += -A13 + A10
 2787              		.loc 1 1065 0 is_stmt 1
 2788 03ea 7B68     		ldr	r3, [r7, #4]
 2789 03ec 9B68     		ldr	r3, [r3, #8]
 2790 03ee 3433     		adds	r3, r3, #52
 2791 03f0 1968     		ldr	r1, [r3]
 2792 03f2 07F13A02 		add	r2, r7, #58
 2793 03f6 07F13403 		add	r3, r7, #52
 2794 03fa 1846     		mov	r0, r3
 2795 03fc FFF7FEFF 		bl	sub32
 2796 0400 7B68     		ldr	r3, [r7, #4]
 2797 0402 9B68     		ldr	r3, [r3, #8]
 2798 0404 2833     		adds	r3, r3, #40
 2799 0406 1968     		ldr	r1, [r3]
 2800 0408 07F13A02 		add	r2, r7, #58
 2801 040c 07F13403 		add	r3, r7, #52
 2802 0410 1846     		mov	r0, r3
 2803 0412 FFF7FEFF 		bl	add32
 2804 0416 7B68     		ldr	r3, [r7, #4]
 2805 0418 9A68     		ldr	r2, [r3, #8]
 2806 041a 7B6C     		ldr	r3, [r7, #68]
 2807 041c 9B00     		lsls	r3, r3, #2
 2808 041e 1344     		add	r3, r3, r2
 2809 0420 7A6B     		ldr	r2, [r7, #52]
 2810 0422 1A60     		str	r2, [r3]
 2811 0424 7B6C     		ldr	r3, [r7, #68]
 2812 0426 0133     		adds	r3, r3, #1
 2813 0428 7B64     		str	r3, [r7, #68]
 2814 042a 97F93A30 		ldrsb	r3, [r7, #58]
 2815 042e 23EAE373 		bic	r3, r3, r3, asr #31
 2816 0432 5BB2     		sxtb	r3, r3
 2817 0434 7B63     		str	r3, [r7, #52]
 2818 0436 7B68     		ldr	r3, [r7, #4]
 2819 0438 9A68     		ldr	r2, [r3, #8]
 2820 043a 7B6C     		ldr	r3, [r7, #68]
 2821 043c 9B00     		lsls	r3, r3, #2
 2822 043e 1344     		add	r3, r3, r2
 2823 0440 7A6B     		ldr	r2, [r7, #52]
ARM GAS  C:\Users\dtjld\AppData\Local\Temp\ccEzFpLd.s 			page 67


 2824 0442 1A60     		str	r2, [r3]
 2825 0444 0023     		movs	r3, #0
 2826 0446 7B63     		str	r3, [r7, #52]
 2827 0448 06E0     		b	.L85
 2828              	.L86:
 2829              		.loc 1 1065 0 is_stmt 0 discriminator 3
 2830 044a 7B68     		ldr	r3, [r7, #4]
 2831 044c 9A68     		ldr	r2, [r3, #8]
 2832 044e 7B6C     		ldr	r3, [r7, #68]
 2833 0450 9B00     		lsls	r3, r3, #2
 2834 0452 1344     		add	r3, r3, r2
 2835 0454 7A6B     		ldr	r2, [r7, #52]
 2836 0456 1A60     		str	r2, [r3]
 2837              	.L85:
 2838              		.loc 1 1065 0 discriminator 1
 2839 0458 7B6C     		ldr	r3, [r7, #68]
 2840 045a 0133     		adds	r3, r3, #1
 2841 045c 7B64     		str	r3, [r7, #68]
 2842 045e 7B68     		ldr	r3, [r7, #4]
 2843 0460 5B68     		ldr	r3, [r3, #4]
 2844 0462 7A6C     		ldr	r2, [r7, #68]
 2845 0464 9A42     		cmp	r2, r3
 2846 0466 F0D3     		bcc	.L86
 2847              		.loc 1 1065 0 discriminator 4
 2848 0468 97F93A30 		ldrsb	r3, [r7, #58]
 2849 046c 002B     		cmp	r3, #0
 2850 046e 0ADA     		bge	.L89
 2851              		.loc 1 1065 0 discriminator 5
 2852 0470 97F93A10 		ldrsb	r1, [r7, #58]
 2853 0474 07F12802 		add	r2, r7, #40
 2854 0478 3B6C     		ldr	r3, [r7, #64]
 2855 047a 7868     		ldr	r0, [r7, #4]
 2856 047c FFF7FEFF 		bl	fix_negative
 2857 0480 02E0     		b	.L72
 2858              	.L88:
1057:C:/Users/dtjld/workspace/AIoT/src/LiteOS_Lab/iot_link/network/dtls/mbedtls/mbedtls-2.16.2/library\ecp_curves.c **** 
 2859              		.loc 1 1057 0 is_stmt 1
 2860 0482 00BF     		nop
 2861 0484 00E0     		b	.L72
 2862              	.L89:
1066:C:/Users/dtjld/workspace/AIoT/src/LiteOS_Lab/iot_link/network/dtls/mbedtls/mbedtls-2.16.2/library\ecp_curves.c **** 
1067:C:/Users/dtjld/workspace/AIoT/src/LiteOS_Lab/iot_link/network/dtls/mbedtls/mbedtls-2.16.2/library\ecp_curves.c **** cleanup:
 2863              		.loc 1 1067 0
 2864 0486 00BF     		nop
 2865              	.L72:
1068:C:/Users/dtjld/workspace/AIoT/src/LiteOS_Lab/iot_link/network/dtls/mbedtls/mbedtls-2.16.2/library\ecp_curves.c ****     return( ret );
 2866              		.loc 1 1068 0
 2867 0488 FB6B     		ldr	r3, [r7, #60]
1069:C:/Users/dtjld/workspace/AIoT/src/LiteOS_Lab/iot_link/network/dtls/mbedtls/mbedtls-2.16.2/library\ecp_curves.c **** }
 2868              		.loc 1 1069 0
 2869 048a 1846     		mov	r0, r3
 2870 048c 4837     		adds	r7, r7, #72
 2871              	.LCFI64:
 2872              		.cfi_def_cfa_offset 8
 2873 048e BD46     		mov	sp, r7
 2874              	.LCFI65:
 2875              		.cfi_def_cfa_register 13
ARM GAS  C:\Users\dtjld\AppData\Local\Temp\ccEzFpLd.s 			page 68


 2876              		@ sp needed
 2877 0490 80BD     		pop	{r7, pc}
 2878              		.cfi_endproc
 2879              	.LFE11:
 2881              		.section	.text.ecp_mod_p256,"ax",%progbits
 2882              		.align	1
 2883              		.syntax unified
 2884              		.thumb
 2885              		.thumb_func
 2886              		.fpu fpv4-sp-d16
 2888              	ecp_mod_p256:
 2889              	.LFB12:
1070:C:/Users/dtjld/workspace/AIoT/src/LiteOS_Lab/iot_link/network/dtls/mbedtls/mbedtls-2.16.2/library\ecp_curves.c **** #endif /* MBEDTLS_ECP_DP_SECP224R1_ENABLED */
1071:C:/Users/dtjld/workspace/AIoT/src/LiteOS_Lab/iot_link/network/dtls/mbedtls/mbedtls-2.16.2/library\ecp_curves.c **** 
1072:C:/Users/dtjld/workspace/AIoT/src/LiteOS_Lab/iot_link/network/dtls/mbedtls/mbedtls-2.16.2/library\ecp_curves.c **** #if defined(MBEDTLS_ECP_DP_SECP256R1_ENABLED)
1073:C:/Users/dtjld/workspace/AIoT/src/LiteOS_Lab/iot_link/network/dtls/mbedtls/mbedtls-2.16.2/library\ecp_curves.c **** /*
1074:C:/Users/dtjld/workspace/AIoT/src/LiteOS_Lab/iot_link/network/dtls/mbedtls/mbedtls-2.16.2/library\ecp_curves.c ****  * Fast quasi-reduction modulo p256 (FIPS 186-3 D.2.3)
1075:C:/Users/dtjld/workspace/AIoT/src/LiteOS_Lab/iot_link/network/dtls/mbedtls/mbedtls-2.16.2/library\ecp_curves.c ****  */
1076:C:/Users/dtjld/workspace/AIoT/src/LiteOS_Lab/iot_link/network/dtls/mbedtls/mbedtls-2.16.2/library\ecp_curves.c **** static int ecp_mod_p256( mbedtls_mpi *N )
1077:C:/Users/dtjld/workspace/AIoT/src/LiteOS_Lab/iot_link/network/dtls/mbedtls/mbedtls-2.16.2/library\ecp_curves.c **** {
 2890              		.loc 1 1077 0
 2891              		.cfi_startproc
 2892              		@ args = 0, pretend = 0, frame = 80
 2893              		@ frame_needed = 1, uses_anonymous_args = 0
 2894 0000 80B5     		push	{r7, lr}
 2895              	.LCFI66:
 2896              		.cfi_def_cfa_offset 8
 2897              		.cfi_offset 7, -8
 2898              		.cfi_offset 14, -4
 2899 0002 94B0     		sub	sp, sp, #80
 2900              	.LCFI67:
 2901              		.cfi_def_cfa_offset 88
 2902 0004 00AF     		add	r7, sp, #0
 2903              	.LCFI68:
 2904              		.cfi_def_cfa_register 7
 2905 0006 7860     		str	r0, [r7, #4]
1078:C:/Users/dtjld/workspace/AIoT/src/LiteOS_Lab/iot_link/network/dtls/mbedtls/mbedtls-2.16.2/library\ecp_curves.c ****     INIT( 256 );
 2906              		.loc 1 1078 0
 2907 0008 0023     		movs	r3, #0
 2908 000a 87F84230 		strb	r3, [r7, #66]
 2909 000e 0023     		movs	r3, #0
 2910 0010 FB64     		str	r3, [r7, #76]
 2911 0012 4FF48073 		mov	r3, #256
 2912 0016 BB64     		str	r3, [r7, #72]
 2913 0018 0123     		movs	r3, #1
 2914 001a 3B63     		str	r3, [r7, #48]
 2915 001c 0923     		movs	r3, #9
 2916 001e 7B63     		str	r3, [r7, #52]
 2917 0020 07F10C03 		add	r3, r7, #12
 2918 0024 BB63     		str	r3, [r7, #56]
 2919 0026 7B6B     		ldr	r3, [r7, #52]
 2920 0028 9A00     		lsls	r2, r3, #2
 2921 002a 07F10C03 		add	r3, r7, #12
 2922 002e 0021     		movs	r1, #0
 2923 0030 1846     		mov	r0, r3
 2924 0032 FFF7FEFF 		bl	memset
 2925 0036 1021     		movs	r1, #16
ARM GAS  C:\Users\dtjld\AppData\Local\Temp\ccEzFpLd.s 			page 69


 2926 0038 7868     		ldr	r0, [r7, #4]
 2927 003a FFF7FEFF 		bl	mbedtls_mpi_grow
 2928 003e 7864     		str	r0, [r7, #68]
 2929 0040 7B6C     		ldr	r3, [r7, #68]
 2930 0042 002B     		cmp	r3, #0
 2931 0044 40F0F183 		bne	.L110
 2932              		.loc 1 1078 0 is_stmt 0 discriminator 1
 2933 0048 7B68     		ldr	r3, [r7, #4]
 2934 004a 9A68     		ldr	r2, [r3, #8]
 2935 004c FB6C     		ldr	r3, [r7, #76]
 2936 004e 9B00     		lsls	r3, r3, #2
 2937 0050 1344     		add	r3, r3, r2
 2938 0052 1B68     		ldr	r3, [r3]
 2939 0054 FB63     		str	r3, [r7, #60]
1079:C:/Users/dtjld/workspace/AIoT/src/LiteOS_Lab/iot_link/network/dtls/mbedtls/mbedtls-2.16.2/library\ecp_curves.c **** 
1080:C:/Users/dtjld/workspace/AIoT/src/LiteOS_Lab/iot_link/network/dtls/mbedtls/mbedtls-2.16.2/library\ecp_curves.c ****     ADD(  8 ); ADD(  9 );
 2940              		.loc 1 1080 0 is_stmt 1 discriminator 1
 2941 0056 7B68     		ldr	r3, [r7, #4]
 2942 0058 9B68     		ldr	r3, [r3, #8]
 2943 005a 2033     		adds	r3, r3, #32
 2944 005c 1968     		ldr	r1, [r3]
 2945 005e 07F14202 		add	r2, r7, #66
 2946 0062 07F13C03 		add	r3, r7, #60
 2947 0066 1846     		mov	r0, r3
 2948 0068 FFF7FEFF 		bl	add32
 2949 006c 7B68     		ldr	r3, [r7, #4]
 2950 006e 9B68     		ldr	r3, [r3, #8]
 2951 0070 2433     		adds	r3, r3, #36
 2952 0072 1968     		ldr	r1, [r3]
 2953 0074 07F14202 		add	r2, r7, #66
 2954 0078 07F13C03 		add	r3, r7, #60
 2955 007c 1846     		mov	r0, r3
 2956 007e FFF7FEFF 		bl	add32
1081:C:/Users/dtjld/workspace/AIoT/src/LiteOS_Lab/iot_link/network/dtls/mbedtls/mbedtls-2.16.2/library\ecp_curves.c ****     SUB( 11 ); SUB( 12 ); SUB( 13 ); SUB( 14 );             NEXT; // A0
 2957              		.loc 1 1081 0 discriminator 1
 2958 0082 7B68     		ldr	r3, [r7, #4]
 2959 0084 9B68     		ldr	r3, [r3, #8]
 2960 0086 2C33     		adds	r3, r3, #44
 2961 0088 1968     		ldr	r1, [r3]
 2962 008a 07F14202 		add	r2, r7, #66
 2963 008e 07F13C03 		add	r3, r7, #60
 2964 0092 1846     		mov	r0, r3
 2965 0094 FFF7FEFF 		bl	sub32
 2966 0098 7B68     		ldr	r3, [r7, #4]
 2967 009a 9B68     		ldr	r3, [r3, #8]
 2968 009c 3033     		adds	r3, r3, #48
 2969 009e 1968     		ldr	r1, [r3]
 2970 00a0 07F14202 		add	r2, r7, #66
 2971 00a4 07F13C03 		add	r3, r7, #60
 2972 00a8 1846     		mov	r0, r3
 2973 00aa FFF7FEFF 		bl	sub32
 2974 00ae 7B68     		ldr	r3, [r7, #4]
 2975 00b0 9B68     		ldr	r3, [r3, #8]
 2976 00b2 3433     		adds	r3, r3, #52
 2977 00b4 1968     		ldr	r1, [r3]
 2978 00b6 07F14202 		add	r2, r7, #66
 2979 00ba 07F13C03 		add	r3, r7, #60
ARM GAS  C:\Users\dtjld\AppData\Local\Temp\ccEzFpLd.s 			page 70


 2980 00be 1846     		mov	r0, r3
 2981 00c0 FFF7FEFF 		bl	sub32
 2982 00c4 7B68     		ldr	r3, [r7, #4]
 2983 00c6 9B68     		ldr	r3, [r3, #8]
 2984 00c8 3833     		adds	r3, r3, #56
 2985 00ca 1968     		ldr	r1, [r3]
 2986 00cc 07F14202 		add	r2, r7, #66
 2987 00d0 07F13C03 		add	r3, r7, #60
 2988 00d4 1846     		mov	r0, r3
 2989 00d6 FFF7FEFF 		bl	sub32
 2990 00da 7B68     		ldr	r3, [r7, #4]
 2991 00dc 9A68     		ldr	r2, [r3, #8]
 2992 00de FB6C     		ldr	r3, [r7, #76]
 2993 00e0 9B00     		lsls	r3, r3, #2
 2994 00e2 1344     		add	r3, r3, r2
 2995 00e4 FA6B     		ldr	r2, [r7, #60]
 2996 00e6 1A60     		str	r2, [r3]
 2997 00e8 FB6C     		ldr	r3, [r7, #76]
 2998 00ea 0133     		adds	r3, r3, #1
 2999 00ec FB64     		str	r3, [r7, #76]
 3000 00ee 7B68     		ldr	r3, [r7, #4]
 3001 00f0 9A68     		ldr	r2, [r3, #8]
 3002 00f2 FB6C     		ldr	r3, [r7, #76]
 3003 00f4 9B00     		lsls	r3, r3, #2
 3004 00f6 1344     		add	r3, r3, r2
 3005 00f8 1B68     		ldr	r3, [r3]
 3006 00fa FB63     		str	r3, [r7, #60]
 3007 00fc 97F84230 		ldrb	r3, [r7, #66]
 3008 0100 87F84330 		strb	r3, [r7, #67]
 3009 0104 0023     		movs	r3, #0
 3010 0106 87F84230 		strb	r3, [r7, #66]
 3011 010a 97F94330 		ldrsb	r3, [r7, #67]
 3012 010e 002B     		cmp	r3, #0
 3013 0110 0BDA     		bge	.L93
 3014 0112 97F94330 		ldrsb	r3, [r7, #67]
 3015 0116 5B42     		negs	r3, r3
 3016 0118 1946     		mov	r1, r3
 3017 011a 07F14202 		add	r2, r7, #66
 3018 011e 07F13C03 		add	r3, r7, #60
 3019 0122 1846     		mov	r0, r3
 3020 0124 FFF7FEFF 		bl	sub32
 3021 0128 08E0     		b	.L94
 3022              	.L93:
 3023              		.loc 1 1081 0 is_stmt 0 discriminator 2
 3024 012a 97F94310 		ldrsb	r1, [r7, #67]
 3025 012e 07F14202 		add	r2, r7, #66
 3026 0132 07F13C03 		add	r3, r7, #60
 3027 0136 1846     		mov	r0, r3
 3028 0138 FFF7FEFF 		bl	add32
 3029              	.L94:
1082:C:/Users/dtjld/workspace/AIoT/src/LiteOS_Lab/iot_link/network/dtls/mbedtls/mbedtls-2.16.2/library\ecp_curves.c **** 
1083:C:/Users/dtjld/workspace/AIoT/src/LiteOS_Lab/iot_link/network/dtls/mbedtls/mbedtls-2.16.2/library\ecp_curves.c ****     ADD(  9 ); ADD( 10 );
 3030              		.loc 1 1083 0 is_stmt 1
 3031 013c 7B68     		ldr	r3, [r7, #4]
 3032 013e 9B68     		ldr	r3, [r3, #8]
 3033 0140 2433     		adds	r3, r3, #36
 3034 0142 1968     		ldr	r1, [r3]
ARM GAS  C:\Users\dtjld\AppData\Local\Temp\ccEzFpLd.s 			page 71


 3035 0144 07F14202 		add	r2, r7, #66
 3036 0148 07F13C03 		add	r3, r7, #60
 3037 014c 1846     		mov	r0, r3
 3038 014e FFF7FEFF 		bl	add32
 3039 0152 7B68     		ldr	r3, [r7, #4]
 3040 0154 9B68     		ldr	r3, [r3, #8]
 3041 0156 2833     		adds	r3, r3, #40
 3042 0158 1968     		ldr	r1, [r3]
 3043 015a 07F14202 		add	r2, r7, #66
 3044 015e 07F13C03 		add	r3, r7, #60
 3045 0162 1846     		mov	r0, r3
 3046 0164 FFF7FEFF 		bl	add32
1084:C:/Users/dtjld/workspace/AIoT/src/LiteOS_Lab/iot_link/network/dtls/mbedtls/mbedtls-2.16.2/library\ecp_curves.c ****     SUB( 12 ); SUB( 13 ); SUB( 14 ); SUB( 15 );             NEXT; // A1
 3047              		.loc 1 1084 0
 3048 0168 7B68     		ldr	r3, [r7, #4]
 3049 016a 9B68     		ldr	r3, [r3, #8]
 3050 016c 3033     		adds	r3, r3, #48
 3051 016e 1968     		ldr	r1, [r3]
 3052 0170 07F14202 		add	r2, r7, #66
 3053 0174 07F13C03 		add	r3, r7, #60
 3054 0178 1846     		mov	r0, r3
 3055 017a FFF7FEFF 		bl	sub32
 3056 017e 7B68     		ldr	r3, [r7, #4]
 3057 0180 9B68     		ldr	r3, [r3, #8]
 3058 0182 3433     		adds	r3, r3, #52
 3059 0184 1968     		ldr	r1, [r3]
 3060 0186 07F14202 		add	r2, r7, #66
 3061 018a 07F13C03 		add	r3, r7, #60
 3062 018e 1846     		mov	r0, r3
 3063 0190 FFF7FEFF 		bl	sub32
 3064 0194 7B68     		ldr	r3, [r7, #4]
 3065 0196 9B68     		ldr	r3, [r3, #8]
 3066 0198 3833     		adds	r3, r3, #56
 3067 019a 1968     		ldr	r1, [r3]
 3068 019c 07F14202 		add	r2, r7, #66
 3069 01a0 07F13C03 		add	r3, r7, #60
 3070 01a4 1846     		mov	r0, r3
 3071 01a6 FFF7FEFF 		bl	sub32
 3072 01aa 7B68     		ldr	r3, [r7, #4]
 3073 01ac 9B68     		ldr	r3, [r3, #8]
 3074 01ae 3C33     		adds	r3, r3, #60
 3075 01b0 1968     		ldr	r1, [r3]
 3076 01b2 07F14202 		add	r2, r7, #66
 3077 01b6 07F13C03 		add	r3, r7, #60
 3078 01ba 1846     		mov	r0, r3
 3079 01bc FFF7FEFF 		bl	sub32
 3080 01c0 7B68     		ldr	r3, [r7, #4]
 3081 01c2 9A68     		ldr	r2, [r3, #8]
 3082 01c4 FB6C     		ldr	r3, [r7, #76]
 3083 01c6 9B00     		lsls	r3, r3, #2
 3084 01c8 1344     		add	r3, r3, r2
 3085 01ca FA6B     		ldr	r2, [r7, #60]
 3086 01cc 1A60     		str	r2, [r3]
 3087 01ce FB6C     		ldr	r3, [r7, #76]
 3088 01d0 0133     		adds	r3, r3, #1
 3089 01d2 FB64     		str	r3, [r7, #76]
 3090 01d4 7B68     		ldr	r3, [r7, #4]
ARM GAS  C:\Users\dtjld\AppData\Local\Temp\ccEzFpLd.s 			page 72


 3091 01d6 9A68     		ldr	r2, [r3, #8]
 3092 01d8 FB6C     		ldr	r3, [r7, #76]
 3093 01da 9B00     		lsls	r3, r3, #2
 3094 01dc 1344     		add	r3, r3, r2
 3095 01de 1B68     		ldr	r3, [r3]
 3096 01e0 FB63     		str	r3, [r7, #60]
 3097 01e2 97F84230 		ldrb	r3, [r7, #66]
 3098 01e6 87F84330 		strb	r3, [r7, #67]
 3099 01ea 0023     		movs	r3, #0
 3100 01ec 87F84230 		strb	r3, [r7, #66]
 3101 01f0 97F94330 		ldrsb	r3, [r7, #67]
 3102 01f4 002B     		cmp	r3, #0
 3103 01f6 0BDA     		bge	.L95
 3104              		.loc 1 1084 0 is_stmt 0 discriminator 1
 3105 01f8 97F94330 		ldrsb	r3, [r7, #67]
 3106 01fc 5B42     		negs	r3, r3
 3107 01fe 1946     		mov	r1, r3
 3108 0200 07F14202 		add	r2, r7, #66
 3109 0204 07F13C03 		add	r3, r7, #60
 3110 0208 1846     		mov	r0, r3
 3111 020a FFF7FEFF 		bl	sub32
 3112 020e 08E0     		b	.L96
 3113              	.L95:
 3114              		.loc 1 1084 0 discriminator 2
 3115 0210 97F94310 		ldrsb	r1, [r7, #67]
 3116 0214 07F14202 		add	r2, r7, #66
 3117 0218 07F13C03 		add	r3, r7, #60
 3118 021c 1846     		mov	r0, r3
 3119 021e FFF7FEFF 		bl	add32
 3120              	.L96:
1085:C:/Users/dtjld/workspace/AIoT/src/LiteOS_Lab/iot_link/network/dtls/mbedtls/mbedtls-2.16.2/library\ecp_curves.c **** 
1086:C:/Users/dtjld/workspace/AIoT/src/LiteOS_Lab/iot_link/network/dtls/mbedtls/mbedtls-2.16.2/library\ecp_curves.c ****     ADD( 10 ); ADD( 11 );
 3121              		.loc 1 1086 0 is_stmt 1
 3122 0222 7B68     		ldr	r3, [r7, #4]
 3123 0224 9B68     		ldr	r3, [r3, #8]
 3124 0226 2833     		adds	r3, r3, #40
 3125 0228 1968     		ldr	r1, [r3]
 3126 022a 07F14202 		add	r2, r7, #66
 3127 022e 07F13C03 		add	r3, r7, #60
 3128 0232 1846     		mov	r0, r3
 3129 0234 FFF7FEFF 		bl	add32
 3130 0238 7B68     		ldr	r3, [r7, #4]
 3131 023a 9B68     		ldr	r3, [r3, #8]
 3132 023c 2C33     		adds	r3, r3, #44
 3133 023e 1968     		ldr	r1, [r3]
 3134 0240 07F14202 		add	r2, r7, #66
 3135 0244 07F13C03 		add	r3, r7, #60
 3136 0248 1846     		mov	r0, r3
 3137 024a FFF7FEFF 		bl	add32
1087:C:/Users/dtjld/workspace/AIoT/src/LiteOS_Lab/iot_link/network/dtls/mbedtls/mbedtls-2.16.2/library\ecp_curves.c ****     SUB( 13 ); SUB( 14 ); SUB( 15 );                        NEXT; // A2
 3138              		.loc 1 1087 0
 3139 024e 7B68     		ldr	r3, [r7, #4]
 3140 0250 9B68     		ldr	r3, [r3, #8]
 3141 0252 3433     		adds	r3, r3, #52
 3142 0254 1968     		ldr	r1, [r3]
 3143 0256 07F14202 		add	r2, r7, #66
 3144 025a 07F13C03 		add	r3, r7, #60
ARM GAS  C:\Users\dtjld\AppData\Local\Temp\ccEzFpLd.s 			page 73


 3145 025e 1846     		mov	r0, r3
 3146 0260 FFF7FEFF 		bl	sub32
 3147 0264 7B68     		ldr	r3, [r7, #4]
 3148 0266 9B68     		ldr	r3, [r3, #8]
 3149 0268 3833     		adds	r3, r3, #56
 3150 026a 1968     		ldr	r1, [r3]
 3151 026c 07F14202 		add	r2, r7, #66
 3152 0270 07F13C03 		add	r3, r7, #60
 3153 0274 1846     		mov	r0, r3
 3154 0276 FFF7FEFF 		bl	sub32
 3155 027a 7B68     		ldr	r3, [r7, #4]
 3156 027c 9B68     		ldr	r3, [r3, #8]
 3157 027e 3C33     		adds	r3, r3, #60
 3158 0280 1968     		ldr	r1, [r3]
 3159 0282 07F14202 		add	r2, r7, #66
 3160 0286 07F13C03 		add	r3, r7, #60
 3161 028a 1846     		mov	r0, r3
 3162 028c FFF7FEFF 		bl	sub32
 3163 0290 7B68     		ldr	r3, [r7, #4]
 3164 0292 9A68     		ldr	r2, [r3, #8]
 3165 0294 FB6C     		ldr	r3, [r7, #76]
 3166 0296 9B00     		lsls	r3, r3, #2
 3167 0298 1344     		add	r3, r3, r2
 3168 029a FA6B     		ldr	r2, [r7, #60]
 3169 029c 1A60     		str	r2, [r3]
 3170 029e FB6C     		ldr	r3, [r7, #76]
 3171 02a0 0133     		adds	r3, r3, #1
 3172 02a2 FB64     		str	r3, [r7, #76]
 3173 02a4 7B68     		ldr	r3, [r7, #4]
 3174 02a6 9A68     		ldr	r2, [r3, #8]
 3175 02a8 FB6C     		ldr	r3, [r7, #76]
 3176 02aa 9B00     		lsls	r3, r3, #2
 3177 02ac 1344     		add	r3, r3, r2
 3178 02ae 1B68     		ldr	r3, [r3]
 3179 02b0 FB63     		str	r3, [r7, #60]
 3180 02b2 97F84230 		ldrb	r3, [r7, #66]
 3181 02b6 87F84330 		strb	r3, [r7, #67]
 3182 02ba 0023     		movs	r3, #0
 3183 02bc 87F84230 		strb	r3, [r7, #66]
 3184 02c0 97F94330 		ldrsb	r3, [r7, #67]
 3185 02c4 002B     		cmp	r3, #0
 3186 02c6 0BDA     		bge	.L97
 3187              		.loc 1 1087 0 is_stmt 0 discriminator 1
 3188 02c8 97F94330 		ldrsb	r3, [r7, #67]
 3189 02cc 5B42     		negs	r3, r3
 3190 02ce 1946     		mov	r1, r3
 3191 02d0 07F14202 		add	r2, r7, #66
 3192 02d4 07F13C03 		add	r3, r7, #60
 3193 02d8 1846     		mov	r0, r3
 3194 02da FFF7FEFF 		bl	sub32
 3195 02de 08E0     		b	.L98
 3196              	.L97:
 3197              		.loc 1 1087 0 discriminator 2
 3198 02e0 97F94310 		ldrsb	r1, [r7, #67]
 3199 02e4 07F14202 		add	r2, r7, #66
 3200 02e8 07F13C03 		add	r3, r7, #60
 3201 02ec 1846     		mov	r0, r3
ARM GAS  C:\Users\dtjld\AppData\Local\Temp\ccEzFpLd.s 			page 74


 3202 02ee FFF7FEFF 		bl	add32
 3203              	.L98:
1088:C:/Users/dtjld/workspace/AIoT/src/LiteOS_Lab/iot_link/network/dtls/mbedtls/mbedtls-2.16.2/library\ecp_curves.c **** 
1089:C:/Users/dtjld/workspace/AIoT/src/LiteOS_Lab/iot_link/network/dtls/mbedtls/mbedtls-2.16.2/library\ecp_curves.c ****     ADD( 11 ); ADD( 11 ); ADD( 12 ); ADD( 12 ); ADD( 13 );
 3204              		.loc 1 1089 0 is_stmt 1
 3205 02f2 7B68     		ldr	r3, [r7, #4]
 3206 02f4 9B68     		ldr	r3, [r3, #8]
 3207 02f6 2C33     		adds	r3, r3, #44
 3208 02f8 1968     		ldr	r1, [r3]
 3209 02fa 07F14202 		add	r2, r7, #66
 3210 02fe 07F13C03 		add	r3, r7, #60
 3211 0302 1846     		mov	r0, r3
 3212 0304 FFF7FEFF 		bl	add32
 3213 0308 7B68     		ldr	r3, [r7, #4]
 3214 030a 9B68     		ldr	r3, [r3, #8]
 3215 030c 2C33     		adds	r3, r3, #44
 3216 030e 1968     		ldr	r1, [r3]
 3217 0310 07F14202 		add	r2, r7, #66
 3218 0314 07F13C03 		add	r3, r7, #60
 3219 0318 1846     		mov	r0, r3
 3220 031a FFF7FEFF 		bl	add32
 3221 031e 7B68     		ldr	r3, [r7, #4]
 3222 0320 9B68     		ldr	r3, [r3, #8]
 3223 0322 3033     		adds	r3, r3, #48
 3224 0324 1968     		ldr	r1, [r3]
 3225 0326 07F14202 		add	r2, r7, #66
 3226 032a 07F13C03 		add	r3, r7, #60
 3227 032e 1846     		mov	r0, r3
 3228 0330 FFF7FEFF 		bl	add32
 3229 0334 7B68     		ldr	r3, [r7, #4]
 3230 0336 9B68     		ldr	r3, [r3, #8]
 3231 0338 3033     		adds	r3, r3, #48
 3232 033a 1968     		ldr	r1, [r3]
 3233 033c 07F14202 		add	r2, r7, #66
 3234 0340 07F13C03 		add	r3, r7, #60
 3235 0344 1846     		mov	r0, r3
 3236 0346 FFF7FEFF 		bl	add32
 3237 034a 7B68     		ldr	r3, [r7, #4]
 3238 034c 9B68     		ldr	r3, [r3, #8]
 3239 034e 3433     		adds	r3, r3, #52
 3240 0350 1968     		ldr	r1, [r3]
 3241 0352 07F14202 		add	r2, r7, #66
 3242 0356 07F13C03 		add	r3, r7, #60
 3243 035a 1846     		mov	r0, r3
 3244 035c FFF7FEFF 		bl	add32
1090:C:/Users/dtjld/workspace/AIoT/src/LiteOS_Lab/iot_link/network/dtls/mbedtls/mbedtls-2.16.2/library\ecp_curves.c ****     SUB( 15 ); SUB(  8 ); SUB(  9 );                        NEXT; // A3
 3245              		.loc 1 1090 0
 3246 0360 7B68     		ldr	r3, [r7, #4]
 3247 0362 9B68     		ldr	r3, [r3, #8]
 3248 0364 3C33     		adds	r3, r3, #60
 3249 0366 1968     		ldr	r1, [r3]
 3250 0368 07F14202 		add	r2, r7, #66
 3251 036c 07F13C03 		add	r3, r7, #60
 3252 0370 1846     		mov	r0, r3
 3253 0372 FFF7FEFF 		bl	sub32
 3254 0376 7B68     		ldr	r3, [r7, #4]
 3255 0378 9B68     		ldr	r3, [r3, #8]
ARM GAS  C:\Users\dtjld\AppData\Local\Temp\ccEzFpLd.s 			page 75


 3256 037a 2033     		adds	r3, r3, #32
 3257 037c 1968     		ldr	r1, [r3]
 3258 037e 07F14202 		add	r2, r7, #66
 3259 0382 07F13C03 		add	r3, r7, #60
 3260 0386 1846     		mov	r0, r3
 3261 0388 FFF7FEFF 		bl	sub32
 3262 038c 7B68     		ldr	r3, [r7, #4]
 3263 038e 9B68     		ldr	r3, [r3, #8]
 3264 0390 2433     		adds	r3, r3, #36
 3265 0392 1968     		ldr	r1, [r3]
 3266 0394 07F14202 		add	r2, r7, #66
 3267 0398 07F13C03 		add	r3, r7, #60
 3268 039c 1846     		mov	r0, r3
 3269 039e FFF7FEFF 		bl	sub32
 3270 03a2 7B68     		ldr	r3, [r7, #4]
 3271 03a4 9A68     		ldr	r2, [r3, #8]
 3272 03a6 FB6C     		ldr	r3, [r7, #76]
 3273 03a8 9B00     		lsls	r3, r3, #2
 3274 03aa 1344     		add	r3, r3, r2
 3275 03ac FA6B     		ldr	r2, [r7, #60]
 3276 03ae 1A60     		str	r2, [r3]
 3277 03b0 FB6C     		ldr	r3, [r7, #76]
 3278 03b2 0133     		adds	r3, r3, #1
 3279 03b4 FB64     		str	r3, [r7, #76]
 3280 03b6 7B68     		ldr	r3, [r7, #4]
 3281 03b8 9A68     		ldr	r2, [r3, #8]
 3282 03ba FB6C     		ldr	r3, [r7, #76]
 3283 03bc 9B00     		lsls	r3, r3, #2
 3284 03be 1344     		add	r3, r3, r2
 3285 03c0 1B68     		ldr	r3, [r3]
 3286 03c2 FB63     		str	r3, [r7, #60]
 3287 03c4 97F84230 		ldrb	r3, [r7, #66]
 3288 03c8 87F84330 		strb	r3, [r7, #67]
 3289 03cc 0023     		movs	r3, #0
 3290 03ce 87F84230 		strb	r3, [r7, #66]
 3291 03d2 97F94330 		ldrsb	r3, [r7, #67]
 3292 03d6 002B     		cmp	r3, #0
 3293 03d8 0BDA     		bge	.L99
 3294              		.loc 1 1090 0 is_stmt 0 discriminator 1
 3295 03da 97F94330 		ldrsb	r3, [r7, #67]
 3296 03de 5B42     		negs	r3, r3
 3297 03e0 1946     		mov	r1, r3
 3298 03e2 07F14202 		add	r2, r7, #66
 3299 03e6 07F13C03 		add	r3, r7, #60
 3300 03ea 1846     		mov	r0, r3
 3301 03ec FFF7FEFF 		bl	sub32
 3302 03f0 08E0     		b	.L100
 3303              	.L99:
 3304              		.loc 1 1090 0 discriminator 2
 3305 03f2 97F94310 		ldrsb	r1, [r7, #67]
 3306 03f6 07F14202 		add	r2, r7, #66
 3307 03fa 07F13C03 		add	r3, r7, #60
 3308 03fe 1846     		mov	r0, r3
 3309 0400 FFF7FEFF 		bl	add32
 3310              	.L100:
1091:C:/Users/dtjld/workspace/AIoT/src/LiteOS_Lab/iot_link/network/dtls/mbedtls/mbedtls-2.16.2/library\ecp_curves.c **** 
1092:C:/Users/dtjld/workspace/AIoT/src/LiteOS_Lab/iot_link/network/dtls/mbedtls/mbedtls-2.16.2/library\ecp_curves.c ****     ADD( 12 ); ADD( 12 ); ADD( 13 ); ADD( 13 ); ADD( 14 );
ARM GAS  C:\Users\dtjld\AppData\Local\Temp\ccEzFpLd.s 			page 76


 3311              		.loc 1 1092 0 is_stmt 1
 3312 0404 7B68     		ldr	r3, [r7, #4]
 3313 0406 9B68     		ldr	r3, [r3, #8]
 3314 0408 3033     		adds	r3, r3, #48
 3315 040a 1968     		ldr	r1, [r3]
 3316 040c 07F14202 		add	r2, r7, #66
 3317 0410 07F13C03 		add	r3, r7, #60
 3318 0414 1846     		mov	r0, r3
 3319 0416 FFF7FEFF 		bl	add32
 3320 041a 7B68     		ldr	r3, [r7, #4]
 3321 041c 9B68     		ldr	r3, [r3, #8]
 3322 041e 3033     		adds	r3, r3, #48
 3323 0420 1968     		ldr	r1, [r3]
 3324 0422 07F14202 		add	r2, r7, #66
 3325 0426 07F13C03 		add	r3, r7, #60
 3326 042a 1846     		mov	r0, r3
 3327 042c FFF7FEFF 		bl	add32
 3328 0430 7B68     		ldr	r3, [r7, #4]
 3329 0432 9B68     		ldr	r3, [r3, #8]
 3330 0434 3433     		adds	r3, r3, #52
 3331 0436 1968     		ldr	r1, [r3]
 3332 0438 07F14202 		add	r2, r7, #66
 3333 043c 07F13C03 		add	r3, r7, #60
 3334 0440 1846     		mov	r0, r3
 3335 0442 FFF7FEFF 		bl	add32
 3336 0446 7B68     		ldr	r3, [r7, #4]
 3337 0448 9B68     		ldr	r3, [r3, #8]
 3338 044a 3433     		adds	r3, r3, #52
 3339 044c 1968     		ldr	r1, [r3]
 3340 044e 07F14202 		add	r2, r7, #66
 3341 0452 07F13C03 		add	r3, r7, #60
 3342 0456 1846     		mov	r0, r3
 3343 0458 FFF7FEFF 		bl	add32
 3344 045c 7B68     		ldr	r3, [r7, #4]
 3345 045e 9B68     		ldr	r3, [r3, #8]
 3346 0460 3833     		adds	r3, r3, #56
 3347 0462 1968     		ldr	r1, [r3]
 3348 0464 07F14202 		add	r2, r7, #66
 3349 0468 07F13C03 		add	r3, r7, #60
 3350 046c 1846     		mov	r0, r3
 3351 046e FFF7FEFF 		bl	add32
1093:C:/Users/dtjld/workspace/AIoT/src/LiteOS_Lab/iot_link/network/dtls/mbedtls/mbedtls-2.16.2/library\ecp_curves.c ****     SUB(  9 ); SUB( 10 );                                   NEXT; // A4
 3352              		.loc 1 1093 0
 3353 0472 7B68     		ldr	r3, [r7, #4]
 3354 0474 9B68     		ldr	r3, [r3, #8]
 3355 0476 2433     		adds	r3, r3, #36
 3356 0478 1968     		ldr	r1, [r3]
 3357 047a 07F14202 		add	r2, r7, #66
 3358 047e 07F13C03 		add	r3, r7, #60
 3359 0482 1846     		mov	r0, r3
 3360 0484 FFF7FEFF 		bl	sub32
 3361 0488 7B68     		ldr	r3, [r7, #4]
 3362 048a 9B68     		ldr	r3, [r3, #8]
 3363 048c 2833     		adds	r3, r3, #40
 3364 048e 1968     		ldr	r1, [r3]
 3365 0490 07F14202 		add	r2, r7, #66
 3366 0494 07F13C03 		add	r3, r7, #60
ARM GAS  C:\Users\dtjld\AppData\Local\Temp\ccEzFpLd.s 			page 77


 3367 0498 1846     		mov	r0, r3
 3368 049a FFF7FEFF 		bl	sub32
 3369 049e 7B68     		ldr	r3, [r7, #4]
 3370 04a0 9A68     		ldr	r2, [r3, #8]
 3371 04a2 FB6C     		ldr	r3, [r7, #76]
 3372 04a4 9B00     		lsls	r3, r3, #2
 3373 04a6 1344     		add	r3, r3, r2
 3374 04a8 FA6B     		ldr	r2, [r7, #60]
 3375 04aa 1A60     		str	r2, [r3]
 3376 04ac FB6C     		ldr	r3, [r7, #76]
 3377 04ae 0133     		adds	r3, r3, #1
 3378 04b0 FB64     		str	r3, [r7, #76]
 3379 04b2 7B68     		ldr	r3, [r7, #4]
 3380 04b4 9A68     		ldr	r2, [r3, #8]
 3381 04b6 FB6C     		ldr	r3, [r7, #76]
 3382 04b8 9B00     		lsls	r3, r3, #2
 3383 04ba 1344     		add	r3, r3, r2
 3384 04bc 1B68     		ldr	r3, [r3]
 3385 04be FB63     		str	r3, [r7, #60]
 3386 04c0 97F84230 		ldrb	r3, [r7, #66]
 3387 04c4 87F84330 		strb	r3, [r7, #67]
 3388 04c8 0023     		movs	r3, #0
 3389 04ca 87F84230 		strb	r3, [r7, #66]
 3390 04ce 97F94330 		ldrsb	r3, [r7, #67]
 3391 04d2 002B     		cmp	r3, #0
 3392 04d4 0BDA     		bge	.L101
 3393              		.loc 1 1093 0 is_stmt 0 discriminator 1
 3394 04d6 97F94330 		ldrsb	r3, [r7, #67]
 3395 04da 5B42     		negs	r3, r3
 3396 04dc 1946     		mov	r1, r3
 3397 04de 07F14202 		add	r2, r7, #66
 3398 04e2 07F13C03 		add	r3, r7, #60
 3399 04e6 1846     		mov	r0, r3
 3400 04e8 FFF7FEFF 		bl	sub32
 3401 04ec 08E0     		b	.L102
 3402              	.L101:
 3403              		.loc 1 1093 0 discriminator 2
 3404 04ee 97F94310 		ldrsb	r1, [r7, #67]
 3405 04f2 07F14202 		add	r2, r7, #66
 3406 04f6 07F13C03 		add	r3, r7, #60
 3407 04fa 1846     		mov	r0, r3
 3408 04fc FFF7FEFF 		bl	add32
 3409              	.L102:
1094:C:/Users/dtjld/workspace/AIoT/src/LiteOS_Lab/iot_link/network/dtls/mbedtls/mbedtls-2.16.2/library\ecp_curves.c **** 
1095:C:/Users/dtjld/workspace/AIoT/src/LiteOS_Lab/iot_link/network/dtls/mbedtls/mbedtls-2.16.2/library\ecp_curves.c ****     ADD( 13 ); ADD( 13 ); ADD( 14 ); ADD( 14 ); ADD( 15 );
 3410              		.loc 1 1095 0 is_stmt 1
 3411 0500 7B68     		ldr	r3, [r7, #4]
 3412 0502 9B68     		ldr	r3, [r3, #8]
 3413 0504 3433     		adds	r3, r3, #52
 3414 0506 1968     		ldr	r1, [r3]
 3415 0508 07F14202 		add	r2, r7, #66
 3416 050c 07F13C03 		add	r3, r7, #60
 3417 0510 1846     		mov	r0, r3
 3418 0512 FFF7FEFF 		bl	add32
 3419 0516 7B68     		ldr	r3, [r7, #4]
 3420 0518 9B68     		ldr	r3, [r3, #8]
 3421 051a 3433     		adds	r3, r3, #52
ARM GAS  C:\Users\dtjld\AppData\Local\Temp\ccEzFpLd.s 			page 78


 3422 051c 1968     		ldr	r1, [r3]
 3423 051e 07F14202 		add	r2, r7, #66
 3424 0522 07F13C03 		add	r3, r7, #60
 3425 0526 1846     		mov	r0, r3
 3426 0528 FFF7FEFF 		bl	add32
 3427 052c 7B68     		ldr	r3, [r7, #4]
 3428 052e 9B68     		ldr	r3, [r3, #8]
 3429 0530 3833     		adds	r3, r3, #56
 3430 0532 1968     		ldr	r1, [r3]
 3431 0534 07F14202 		add	r2, r7, #66
 3432 0538 07F13C03 		add	r3, r7, #60
 3433 053c 1846     		mov	r0, r3
 3434 053e FFF7FEFF 		bl	add32
 3435 0542 7B68     		ldr	r3, [r7, #4]
 3436 0544 9B68     		ldr	r3, [r3, #8]
 3437 0546 3833     		adds	r3, r3, #56
 3438 0548 1968     		ldr	r1, [r3]
 3439 054a 07F14202 		add	r2, r7, #66
 3440 054e 07F13C03 		add	r3, r7, #60
 3441 0552 1846     		mov	r0, r3
 3442 0554 FFF7FEFF 		bl	add32
 3443 0558 7B68     		ldr	r3, [r7, #4]
 3444 055a 9B68     		ldr	r3, [r3, #8]
 3445 055c 3C33     		adds	r3, r3, #60
 3446 055e 1968     		ldr	r1, [r3]
 3447 0560 07F14202 		add	r2, r7, #66
 3448 0564 07F13C03 		add	r3, r7, #60
 3449 0568 1846     		mov	r0, r3
 3450 056a FFF7FEFF 		bl	add32
1096:C:/Users/dtjld/workspace/AIoT/src/LiteOS_Lab/iot_link/network/dtls/mbedtls/mbedtls-2.16.2/library\ecp_curves.c ****     SUB( 10 ); SUB( 11 );                                   NEXT; // A5
 3451              		.loc 1 1096 0
 3452 056e 7B68     		ldr	r3, [r7, #4]
 3453 0570 9B68     		ldr	r3, [r3, #8]
 3454 0572 2833     		adds	r3, r3, #40
 3455 0574 1968     		ldr	r1, [r3]
 3456 0576 07F14202 		add	r2, r7, #66
 3457 057a 07F13C03 		add	r3, r7, #60
 3458 057e 1846     		mov	r0, r3
 3459 0580 FFF7FEFF 		bl	sub32
 3460 0584 7B68     		ldr	r3, [r7, #4]
 3461 0586 9B68     		ldr	r3, [r3, #8]
 3462 0588 2C33     		adds	r3, r3, #44
 3463 058a 1968     		ldr	r1, [r3]
 3464 058c 07F14202 		add	r2, r7, #66
 3465 0590 07F13C03 		add	r3, r7, #60
 3466 0594 1846     		mov	r0, r3
 3467 0596 FFF7FEFF 		bl	sub32
 3468 059a 7B68     		ldr	r3, [r7, #4]
 3469 059c 9A68     		ldr	r2, [r3, #8]
 3470 059e FB6C     		ldr	r3, [r7, #76]
 3471 05a0 9B00     		lsls	r3, r3, #2
 3472 05a2 1344     		add	r3, r3, r2
 3473 05a4 FA6B     		ldr	r2, [r7, #60]
 3474 05a6 1A60     		str	r2, [r3]
 3475 05a8 FB6C     		ldr	r3, [r7, #76]
 3476 05aa 0133     		adds	r3, r3, #1
 3477 05ac FB64     		str	r3, [r7, #76]
ARM GAS  C:\Users\dtjld\AppData\Local\Temp\ccEzFpLd.s 			page 79


 3478 05ae 7B68     		ldr	r3, [r7, #4]
 3479 05b0 9A68     		ldr	r2, [r3, #8]
 3480 05b2 FB6C     		ldr	r3, [r7, #76]
 3481 05b4 9B00     		lsls	r3, r3, #2
 3482 05b6 1344     		add	r3, r3, r2
 3483 05b8 1B68     		ldr	r3, [r3]
 3484 05ba FB63     		str	r3, [r7, #60]
 3485 05bc 97F84230 		ldrb	r3, [r7, #66]
 3486 05c0 87F84330 		strb	r3, [r7, #67]
 3487 05c4 0023     		movs	r3, #0
 3488 05c6 87F84230 		strb	r3, [r7, #66]
 3489 05ca 97F94330 		ldrsb	r3, [r7, #67]
 3490 05ce 002B     		cmp	r3, #0
 3491 05d0 0BDA     		bge	.L103
 3492              		.loc 1 1096 0 is_stmt 0 discriminator 1
 3493 05d2 97F94330 		ldrsb	r3, [r7, #67]
 3494 05d6 5B42     		negs	r3, r3
 3495 05d8 1946     		mov	r1, r3
 3496 05da 07F14202 		add	r2, r7, #66
 3497 05de 07F13C03 		add	r3, r7, #60
 3498 05e2 1846     		mov	r0, r3
 3499 05e4 FFF7FEFF 		bl	sub32
 3500 05e8 08E0     		b	.L104
 3501              	.L103:
 3502              		.loc 1 1096 0 discriminator 2
 3503 05ea 97F94310 		ldrsb	r1, [r7, #67]
 3504 05ee 07F14202 		add	r2, r7, #66
 3505 05f2 07F13C03 		add	r3, r7, #60
 3506 05f6 1846     		mov	r0, r3
 3507 05f8 FFF7FEFF 		bl	add32
 3508              	.L104:
1097:C:/Users/dtjld/workspace/AIoT/src/LiteOS_Lab/iot_link/network/dtls/mbedtls/mbedtls-2.16.2/library\ecp_curves.c **** 
1098:C:/Users/dtjld/workspace/AIoT/src/LiteOS_Lab/iot_link/network/dtls/mbedtls/mbedtls-2.16.2/library\ecp_curves.c ****     ADD( 14 ); ADD( 14 ); ADD( 15 ); ADD( 15 ); ADD( 14 ); ADD( 13 );
 3509              		.loc 1 1098 0 is_stmt 1
 3510 05fc 7B68     		ldr	r3, [r7, #4]
 3511 05fe 9B68     		ldr	r3, [r3, #8]
 3512 0600 3833     		adds	r3, r3, #56
 3513 0602 1968     		ldr	r1, [r3]
 3514 0604 07F14202 		add	r2, r7, #66
 3515 0608 07F13C03 		add	r3, r7, #60
 3516 060c 1846     		mov	r0, r3
 3517 060e FFF7FEFF 		bl	add32
 3518 0612 7B68     		ldr	r3, [r7, #4]
 3519 0614 9B68     		ldr	r3, [r3, #8]
 3520 0616 3833     		adds	r3, r3, #56
 3521 0618 1968     		ldr	r1, [r3]
 3522 061a 07F14202 		add	r2, r7, #66
 3523 061e 07F13C03 		add	r3, r7, #60
 3524 0622 1846     		mov	r0, r3
 3525 0624 FFF7FEFF 		bl	add32
 3526 0628 7B68     		ldr	r3, [r7, #4]
 3527 062a 9B68     		ldr	r3, [r3, #8]
 3528 062c 3C33     		adds	r3, r3, #60
 3529 062e 1968     		ldr	r1, [r3]
 3530 0630 07F14202 		add	r2, r7, #66
 3531 0634 07F13C03 		add	r3, r7, #60
 3532 0638 1846     		mov	r0, r3
ARM GAS  C:\Users\dtjld\AppData\Local\Temp\ccEzFpLd.s 			page 80


 3533 063a FFF7FEFF 		bl	add32
 3534 063e 7B68     		ldr	r3, [r7, #4]
 3535 0640 9B68     		ldr	r3, [r3, #8]
 3536 0642 3C33     		adds	r3, r3, #60
 3537 0644 1968     		ldr	r1, [r3]
 3538 0646 07F14202 		add	r2, r7, #66
 3539 064a 07F13C03 		add	r3, r7, #60
 3540 064e 1846     		mov	r0, r3
 3541 0650 FFF7FEFF 		bl	add32
 3542 0654 7B68     		ldr	r3, [r7, #4]
 3543 0656 9B68     		ldr	r3, [r3, #8]
 3544 0658 3833     		adds	r3, r3, #56
 3545 065a 1968     		ldr	r1, [r3]
 3546 065c 07F14202 		add	r2, r7, #66
 3547 0660 07F13C03 		add	r3, r7, #60
 3548 0664 1846     		mov	r0, r3
 3549 0666 FFF7FEFF 		bl	add32
 3550 066a 7B68     		ldr	r3, [r7, #4]
 3551 066c 9B68     		ldr	r3, [r3, #8]
 3552 066e 3433     		adds	r3, r3, #52
 3553 0670 1968     		ldr	r1, [r3]
 3554 0672 07F14202 		add	r2, r7, #66
 3555 0676 07F13C03 		add	r3, r7, #60
 3556 067a 1846     		mov	r0, r3
 3557 067c FFF7FEFF 		bl	add32
1099:C:/Users/dtjld/workspace/AIoT/src/LiteOS_Lab/iot_link/network/dtls/mbedtls/mbedtls-2.16.2/library\ecp_curves.c ****     SUB(  8 ); SUB(  9 );                                   NEXT; // A6
 3558              		.loc 1 1099 0
 3559 0680 7B68     		ldr	r3, [r7, #4]
 3560 0682 9B68     		ldr	r3, [r3, #8]
 3561 0684 2033     		adds	r3, r3, #32
 3562 0686 1968     		ldr	r1, [r3]
 3563 0688 07F14202 		add	r2, r7, #66
 3564 068c 07F13C03 		add	r3, r7, #60
 3565 0690 1846     		mov	r0, r3
 3566 0692 FFF7FEFF 		bl	sub32
 3567 0696 7B68     		ldr	r3, [r7, #4]
 3568 0698 9B68     		ldr	r3, [r3, #8]
 3569 069a 2433     		adds	r3, r3, #36
 3570 069c 1968     		ldr	r1, [r3]
 3571 069e 07F14202 		add	r2, r7, #66
 3572 06a2 07F13C03 		add	r3, r7, #60
 3573 06a6 1846     		mov	r0, r3
 3574 06a8 FFF7FEFF 		bl	sub32
 3575 06ac 7B68     		ldr	r3, [r7, #4]
 3576 06ae 9A68     		ldr	r2, [r3, #8]
 3577 06b0 FB6C     		ldr	r3, [r7, #76]
 3578 06b2 9B00     		lsls	r3, r3, #2
 3579 06b4 1344     		add	r3, r3, r2
 3580 06b6 FA6B     		ldr	r2, [r7, #60]
 3581 06b8 1A60     		str	r2, [r3]
 3582 06ba FB6C     		ldr	r3, [r7, #76]
 3583 06bc 0133     		adds	r3, r3, #1
 3584 06be FB64     		str	r3, [r7, #76]
 3585 06c0 7B68     		ldr	r3, [r7, #4]
 3586 06c2 9A68     		ldr	r2, [r3, #8]
 3587 06c4 FB6C     		ldr	r3, [r7, #76]
 3588 06c6 9B00     		lsls	r3, r3, #2
ARM GAS  C:\Users\dtjld\AppData\Local\Temp\ccEzFpLd.s 			page 81


 3589 06c8 1344     		add	r3, r3, r2
 3590 06ca 1B68     		ldr	r3, [r3]
 3591 06cc FB63     		str	r3, [r7, #60]
 3592 06ce 97F84230 		ldrb	r3, [r7, #66]
 3593 06d2 87F84330 		strb	r3, [r7, #67]
 3594 06d6 0023     		movs	r3, #0
 3595 06d8 87F84230 		strb	r3, [r7, #66]
 3596 06dc 97F94330 		ldrsb	r3, [r7, #67]
 3597 06e0 002B     		cmp	r3, #0
 3598 06e2 0BDA     		bge	.L105
 3599              		.loc 1 1099 0 is_stmt 0 discriminator 1
 3600 06e4 97F94330 		ldrsb	r3, [r7, #67]
 3601 06e8 5B42     		negs	r3, r3
 3602 06ea 1946     		mov	r1, r3
 3603 06ec 07F14202 		add	r2, r7, #66
 3604 06f0 07F13C03 		add	r3, r7, #60
 3605 06f4 1846     		mov	r0, r3
 3606 06f6 FFF7FEFF 		bl	sub32
 3607 06fa 08E0     		b	.L106
 3608              	.L105:
 3609              		.loc 1 1099 0 discriminator 2
 3610 06fc 97F94310 		ldrsb	r1, [r7, #67]
 3611 0700 07F14202 		add	r2, r7, #66
 3612 0704 07F13C03 		add	r3, r7, #60
 3613 0708 1846     		mov	r0, r3
 3614 070a FFF7FEFF 		bl	add32
 3615              	.L106:
1100:C:/Users/dtjld/workspace/AIoT/src/LiteOS_Lab/iot_link/network/dtls/mbedtls/mbedtls-2.16.2/library\ecp_curves.c **** 
1101:C:/Users/dtjld/workspace/AIoT/src/LiteOS_Lab/iot_link/network/dtls/mbedtls/mbedtls-2.16.2/library\ecp_curves.c ****     ADD( 15 ); ADD( 15 ); ADD( 15 ); ADD( 8 );
 3616              		.loc 1 1101 0 is_stmt 1
 3617 070e 7B68     		ldr	r3, [r7, #4]
 3618 0710 9B68     		ldr	r3, [r3, #8]
 3619 0712 3C33     		adds	r3, r3, #60
 3620 0714 1968     		ldr	r1, [r3]
 3621 0716 07F14202 		add	r2, r7, #66
 3622 071a 07F13C03 		add	r3, r7, #60
 3623 071e 1846     		mov	r0, r3
 3624 0720 FFF7FEFF 		bl	add32
 3625 0724 7B68     		ldr	r3, [r7, #4]
 3626 0726 9B68     		ldr	r3, [r3, #8]
 3627 0728 3C33     		adds	r3, r3, #60
 3628 072a 1968     		ldr	r1, [r3]
 3629 072c 07F14202 		add	r2, r7, #66
 3630 0730 07F13C03 		add	r3, r7, #60
 3631 0734 1846     		mov	r0, r3
 3632 0736 FFF7FEFF 		bl	add32
 3633 073a 7B68     		ldr	r3, [r7, #4]
 3634 073c 9B68     		ldr	r3, [r3, #8]
 3635 073e 3C33     		adds	r3, r3, #60
 3636 0740 1968     		ldr	r1, [r3]
 3637 0742 07F14202 		add	r2, r7, #66
 3638 0746 07F13C03 		add	r3, r7, #60
 3639 074a 1846     		mov	r0, r3
 3640 074c FFF7FEFF 		bl	add32
 3641 0750 7B68     		ldr	r3, [r7, #4]
 3642 0752 9B68     		ldr	r3, [r3, #8]
 3643 0754 2033     		adds	r3, r3, #32
ARM GAS  C:\Users\dtjld\AppData\Local\Temp\ccEzFpLd.s 			page 82


 3644 0756 1968     		ldr	r1, [r3]
 3645 0758 07F14202 		add	r2, r7, #66
 3646 075c 07F13C03 		add	r3, r7, #60
 3647 0760 1846     		mov	r0, r3
 3648 0762 FFF7FEFF 		bl	add32
1102:C:/Users/dtjld/workspace/AIoT/src/LiteOS_Lab/iot_link/network/dtls/mbedtls/mbedtls-2.16.2/library\ecp_curves.c ****     SUB( 10 ); SUB( 11 ); SUB( 12 ); SUB( 13 );             LAST; // A7
 3649              		.loc 1 1102 0
 3650 0766 7B68     		ldr	r3, [r7, #4]
 3651 0768 9B68     		ldr	r3, [r3, #8]
 3652 076a 2833     		adds	r3, r3, #40
 3653 076c 1968     		ldr	r1, [r3]
 3654 076e 07F14202 		add	r2, r7, #66
 3655 0772 07F13C03 		add	r3, r7, #60
 3656 0776 1846     		mov	r0, r3
 3657 0778 FFF7FEFF 		bl	sub32
 3658 077c 7B68     		ldr	r3, [r7, #4]
 3659 077e 9B68     		ldr	r3, [r3, #8]
 3660 0780 2C33     		adds	r3, r3, #44
 3661 0782 1968     		ldr	r1, [r3]
 3662 0784 07F14202 		add	r2, r7, #66
 3663 0788 07F13C03 		add	r3, r7, #60
 3664 078c 1846     		mov	r0, r3
 3665 078e FFF7FEFF 		bl	sub32
 3666 0792 7B68     		ldr	r3, [r7, #4]
 3667 0794 9B68     		ldr	r3, [r3, #8]
 3668 0796 3033     		adds	r3, r3, #48
 3669 0798 1968     		ldr	r1, [r3]
 3670 079a 07F14202 		add	r2, r7, #66
 3671 079e 07F13C03 		add	r3, r7, #60
 3672 07a2 1846     		mov	r0, r3
 3673 07a4 FFF7FEFF 		bl	sub32
 3674 07a8 7B68     		ldr	r3, [r7, #4]
 3675 07aa 9B68     		ldr	r3, [r3, #8]
 3676 07ac 3433     		adds	r3, r3, #52
 3677 07ae 1968     		ldr	r1, [r3]
 3678 07b0 07F14202 		add	r2, r7, #66
 3679 07b4 07F13C03 		add	r3, r7, #60
 3680 07b8 1846     		mov	r0, r3
 3681 07ba FFF7FEFF 		bl	sub32
 3682 07be 7B68     		ldr	r3, [r7, #4]
 3683 07c0 9A68     		ldr	r2, [r3, #8]
 3684 07c2 FB6C     		ldr	r3, [r7, #76]
 3685 07c4 9B00     		lsls	r3, r3, #2
 3686 07c6 1344     		add	r3, r3, r2
 3687 07c8 FA6B     		ldr	r2, [r7, #60]
 3688 07ca 1A60     		str	r2, [r3]
 3689 07cc FB6C     		ldr	r3, [r7, #76]
 3690 07ce 0133     		adds	r3, r3, #1
 3691 07d0 FB64     		str	r3, [r7, #76]
 3692 07d2 97F94230 		ldrsb	r3, [r7, #66]
 3693 07d6 23EAE373 		bic	r3, r3, r3, asr #31
 3694 07da 5BB2     		sxtb	r3, r3
 3695 07dc FB63     		str	r3, [r7, #60]
 3696 07de 7B68     		ldr	r3, [r7, #4]
 3697 07e0 9A68     		ldr	r2, [r3, #8]
 3698 07e2 FB6C     		ldr	r3, [r7, #76]
 3699 07e4 9B00     		lsls	r3, r3, #2
ARM GAS  C:\Users\dtjld\AppData\Local\Temp\ccEzFpLd.s 			page 83


 3700 07e6 1344     		add	r3, r3, r2
 3701 07e8 FA6B     		ldr	r2, [r7, #60]
 3702 07ea 1A60     		str	r2, [r3]
 3703 07ec 0023     		movs	r3, #0
 3704 07ee FB63     		str	r3, [r7, #60]
 3705 07f0 06E0     		b	.L107
 3706              	.L108:
 3707              		.loc 1 1102 0 is_stmt 0 discriminator 3
 3708 07f2 7B68     		ldr	r3, [r7, #4]
 3709 07f4 9A68     		ldr	r2, [r3, #8]
 3710 07f6 FB6C     		ldr	r3, [r7, #76]
 3711 07f8 9B00     		lsls	r3, r3, #2
 3712 07fa 1344     		add	r3, r3, r2
 3713 07fc FA6B     		ldr	r2, [r7, #60]
 3714 07fe 1A60     		str	r2, [r3]
 3715              	.L107:
 3716              		.loc 1 1102 0 discriminator 1
 3717 0800 FB6C     		ldr	r3, [r7, #76]
 3718 0802 0133     		adds	r3, r3, #1
 3719 0804 FB64     		str	r3, [r7, #76]
 3720 0806 7B68     		ldr	r3, [r7, #4]
 3721 0808 5B68     		ldr	r3, [r3, #4]
 3722 080a FA6C     		ldr	r2, [r7, #76]
 3723 080c 9A42     		cmp	r2, r3
 3724 080e F0D3     		bcc	.L108
 3725              		.loc 1 1102 0 discriminator 4
 3726 0810 97F94230 		ldrsb	r3, [r7, #66]
 3727 0814 002B     		cmp	r3, #0
 3728 0816 0ADA     		bge	.L111
 3729              		.loc 1 1102 0 discriminator 5
 3730 0818 97F94210 		ldrsb	r1, [r7, #66]
 3731 081c 07F13002 		add	r2, r7, #48
 3732 0820 BB6C     		ldr	r3, [r7, #72]
 3733 0822 7868     		ldr	r0, [r7, #4]
 3734 0824 FFF7FEFF 		bl	fix_negative
 3735 0828 02E0     		b	.L92
 3736              	.L110:
1078:C:/Users/dtjld/workspace/AIoT/src/LiteOS_Lab/iot_link/network/dtls/mbedtls/mbedtls-2.16.2/library\ecp_curves.c **** 
 3737              		.loc 1 1078 0 is_stmt 1
 3738 082a 00BF     		nop
 3739 082c 00E0     		b	.L92
 3740              	.L111:
1103:C:/Users/dtjld/workspace/AIoT/src/LiteOS_Lab/iot_link/network/dtls/mbedtls/mbedtls-2.16.2/library\ecp_curves.c **** 
1104:C:/Users/dtjld/workspace/AIoT/src/LiteOS_Lab/iot_link/network/dtls/mbedtls/mbedtls-2.16.2/library\ecp_curves.c **** cleanup:
 3741              		.loc 1 1104 0
 3742 082e 00BF     		nop
 3743              	.L92:
1105:C:/Users/dtjld/workspace/AIoT/src/LiteOS_Lab/iot_link/network/dtls/mbedtls/mbedtls-2.16.2/library\ecp_curves.c ****     return( ret );
 3744              		.loc 1 1105 0
 3745 0830 7B6C     		ldr	r3, [r7, #68]
1106:C:/Users/dtjld/workspace/AIoT/src/LiteOS_Lab/iot_link/network/dtls/mbedtls/mbedtls-2.16.2/library\ecp_curves.c **** }
 3746              		.loc 1 1106 0
 3747 0832 1846     		mov	r0, r3
 3748 0834 5037     		adds	r7, r7, #80
 3749              	.LCFI69:
 3750              		.cfi_def_cfa_offset 8
 3751 0836 BD46     		mov	sp, r7
ARM GAS  C:\Users\dtjld\AppData\Local\Temp\ccEzFpLd.s 			page 84


 3752              	.LCFI70:
 3753              		.cfi_def_cfa_register 13
 3754              		@ sp needed
 3755 0838 80BD     		pop	{r7, pc}
 3756              		.cfi_endproc
 3757              	.LFE12:
 3759              		.section	.text.ecp_mod_p384,"ax",%progbits
 3760              		.align	1
 3761              		.syntax unified
 3762              		.thumb
 3763              		.thumb_func
 3764              		.fpu fpv4-sp-d16
 3766              	ecp_mod_p384:
 3767              	.LFB13:
1107:C:/Users/dtjld/workspace/AIoT/src/LiteOS_Lab/iot_link/network/dtls/mbedtls/mbedtls-2.16.2/library\ecp_curves.c **** #endif /* MBEDTLS_ECP_DP_SECP256R1_ENABLED */
1108:C:/Users/dtjld/workspace/AIoT/src/LiteOS_Lab/iot_link/network/dtls/mbedtls/mbedtls-2.16.2/library\ecp_curves.c **** 
1109:C:/Users/dtjld/workspace/AIoT/src/LiteOS_Lab/iot_link/network/dtls/mbedtls/mbedtls-2.16.2/library\ecp_curves.c **** #if defined(MBEDTLS_ECP_DP_SECP384R1_ENABLED)
1110:C:/Users/dtjld/workspace/AIoT/src/LiteOS_Lab/iot_link/network/dtls/mbedtls/mbedtls-2.16.2/library\ecp_curves.c **** /*
1111:C:/Users/dtjld/workspace/AIoT/src/LiteOS_Lab/iot_link/network/dtls/mbedtls/mbedtls-2.16.2/library\ecp_curves.c ****  * Fast quasi-reduction modulo p384 (FIPS 186-3 D.2.4)
1112:C:/Users/dtjld/workspace/AIoT/src/LiteOS_Lab/iot_link/network/dtls/mbedtls/mbedtls-2.16.2/library\ecp_curves.c ****  */
1113:C:/Users/dtjld/workspace/AIoT/src/LiteOS_Lab/iot_link/network/dtls/mbedtls/mbedtls-2.16.2/library\ecp_curves.c **** static int ecp_mod_p384( mbedtls_mpi *N )
1114:C:/Users/dtjld/workspace/AIoT/src/LiteOS_Lab/iot_link/network/dtls/mbedtls/mbedtls-2.16.2/library\ecp_curves.c **** {
 3768              		.loc 1 1114 0
 3769              		.cfi_startproc
 3770              		@ args = 0, pretend = 0, frame = 96
 3771              		@ frame_needed = 1, uses_anonymous_args = 0
 3772 0000 80B5     		push	{r7, lr}
 3773              	.LCFI71:
 3774              		.cfi_def_cfa_offset 8
 3775              		.cfi_offset 7, -8
 3776              		.cfi_offset 14, -4
 3777 0002 98B0     		sub	sp, sp, #96
 3778              	.LCFI72:
 3779              		.cfi_def_cfa_offset 104
 3780 0004 00AF     		add	r7, sp, #0
 3781              	.LCFI73:
 3782              		.cfi_def_cfa_register 7
 3783 0006 7860     		str	r0, [r7, #4]
1115:C:/Users/dtjld/workspace/AIoT/src/LiteOS_Lab/iot_link/network/dtls/mbedtls/mbedtls-2.16.2/library\ecp_curves.c ****     INIT( 384 );
 3784              		.loc 1 1115 0
 3785 0008 0023     		movs	r3, #0
 3786 000a 87F85230 		strb	r3, [r7, #82]
 3787 000e 0023     		movs	r3, #0
 3788 0010 FB65     		str	r3, [r7, #92]
 3789 0012 4FF4C073 		mov	r3, #384
 3790 0016 BB65     		str	r3, [r7, #88]
 3791 0018 0123     		movs	r3, #1
 3792 001a 3B64     		str	r3, [r7, #64]
 3793 001c 0D23     		movs	r3, #13
 3794 001e 7B64     		str	r3, [r7, #68]
 3795 0020 07F10C03 		add	r3, r7, #12
 3796 0024 BB64     		str	r3, [r7, #72]
 3797 0026 7B6C     		ldr	r3, [r7, #68]
 3798 0028 9A00     		lsls	r2, r3, #2
 3799 002a 07F10C03 		add	r3, r7, #12
 3800 002e 0021     		movs	r1, #0
 3801 0030 1846     		mov	r0, r3
ARM GAS  C:\Users\dtjld\AppData\Local\Temp\ccEzFpLd.s 			page 85


 3802 0032 FFF7FEFF 		bl	memset
 3803 0036 1821     		movs	r1, #24
 3804 0038 7868     		ldr	r0, [r7, #4]
 3805 003a FFF7FEFF 		bl	mbedtls_mpi_grow
 3806 003e 7865     		str	r0, [r7, #84]
 3807 0040 7B6D     		ldr	r3, [r7, #84]
 3808 0042 002B     		cmp	r3, #0
 3809 0044 40F02E85 		bne	.L140
 3810              		.loc 1 1115 0 is_stmt 0 discriminator 1
 3811 0048 7B68     		ldr	r3, [r7, #4]
 3812 004a 9A68     		ldr	r2, [r3, #8]
 3813 004c FB6D     		ldr	r3, [r7, #92]
 3814 004e 9B00     		lsls	r3, r3, #2
 3815 0050 1344     		add	r3, r3, r2
 3816 0052 1B68     		ldr	r3, [r3]
 3817 0054 FB64     		str	r3, [r7, #76]
1116:C:/Users/dtjld/workspace/AIoT/src/LiteOS_Lab/iot_link/network/dtls/mbedtls/mbedtls-2.16.2/library\ecp_curves.c **** 
1117:C:/Users/dtjld/workspace/AIoT/src/LiteOS_Lab/iot_link/network/dtls/mbedtls/mbedtls-2.16.2/library\ecp_curves.c ****     ADD( 12 ); ADD( 21 ); ADD( 20 );
 3818              		.loc 1 1117 0 is_stmt 1 discriminator 1
 3819 0056 7B68     		ldr	r3, [r7, #4]
 3820 0058 9B68     		ldr	r3, [r3, #8]
 3821 005a 3033     		adds	r3, r3, #48
 3822 005c 1968     		ldr	r1, [r3]
 3823 005e 07F15202 		add	r2, r7, #82
 3824 0062 07F14C03 		add	r3, r7, #76
 3825 0066 1846     		mov	r0, r3
 3826 0068 FFF7FEFF 		bl	add32
 3827 006c 7B68     		ldr	r3, [r7, #4]
 3828 006e 9B68     		ldr	r3, [r3, #8]
 3829 0070 5433     		adds	r3, r3, #84
 3830 0072 1968     		ldr	r1, [r3]
 3831 0074 07F15202 		add	r2, r7, #82
 3832 0078 07F14C03 		add	r3, r7, #76
 3833 007c 1846     		mov	r0, r3
 3834 007e FFF7FEFF 		bl	add32
 3835 0082 7B68     		ldr	r3, [r7, #4]
 3836 0084 9B68     		ldr	r3, [r3, #8]
 3837 0086 5033     		adds	r3, r3, #80
 3838 0088 1968     		ldr	r1, [r3]
 3839 008a 07F15202 		add	r2, r7, #82
 3840 008e 07F14C03 		add	r3, r7, #76
 3841 0092 1846     		mov	r0, r3
 3842 0094 FFF7FEFF 		bl	add32
1118:C:/Users/dtjld/workspace/AIoT/src/LiteOS_Lab/iot_link/network/dtls/mbedtls/mbedtls-2.16.2/library\ecp_curves.c ****     SUB( 23 );                                              NEXT; // A0
 3843              		.loc 1 1118 0 discriminator 1
 3844 0098 7B68     		ldr	r3, [r7, #4]
 3845 009a 9B68     		ldr	r3, [r3, #8]
 3846 009c 5C33     		adds	r3, r3, #92
 3847 009e 1968     		ldr	r1, [r3]
 3848 00a0 07F15202 		add	r2, r7, #82
 3849 00a4 07F14C03 		add	r3, r7, #76
 3850 00a8 1846     		mov	r0, r3
 3851 00aa FFF7FEFF 		bl	sub32
 3852 00ae 7B68     		ldr	r3, [r7, #4]
 3853 00b0 9A68     		ldr	r2, [r3, #8]
 3854 00b2 FB6D     		ldr	r3, [r7, #92]
 3855 00b4 9B00     		lsls	r3, r3, #2
ARM GAS  C:\Users\dtjld\AppData\Local\Temp\ccEzFpLd.s 			page 86


 3856 00b6 1344     		add	r3, r3, r2
 3857 00b8 FA6C     		ldr	r2, [r7, #76]
 3858 00ba 1A60     		str	r2, [r3]
 3859 00bc FB6D     		ldr	r3, [r7, #92]
 3860 00be 0133     		adds	r3, r3, #1
 3861 00c0 FB65     		str	r3, [r7, #92]
 3862 00c2 7B68     		ldr	r3, [r7, #4]
 3863 00c4 9A68     		ldr	r2, [r3, #8]
 3864 00c6 FB6D     		ldr	r3, [r7, #92]
 3865 00c8 9B00     		lsls	r3, r3, #2
 3866 00ca 1344     		add	r3, r3, r2
 3867 00cc 1B68     		ldr	r3, [r3]
 3868 00ce FB64     		str	r3, [r7, #76]
 3869 00d0 97F85230 		ldrb	r3, [r7, #82]
 3870 00d4 87F85330 		strb	r3, [r7, #83]
 3871 00d8 0023     		movs	r3, #0
 3872 00da 87F85230 		strb	r3, [r7, #82]
 3873 00de 97F95330 		ldrsb	r3, [r7, #83]
 3874 00e2 002B     		cmp	r3, #0
 3875 00e4 0BDA     		bge	.L115
 3876 00e6 97F95330 		ldrsb	r3, [r7, #83]
 3877 00ea 5B42     		negs	r3, r3
 3878 00ec 1946     		mov	r1, r3
 3879 00ee 07F15202 		add	r2, r7, #82
 3880 00f2 07F14C03 		add	r3, r7, #76
 3881 00f6 1846     		mov	r0, r3
 3882 00f8 FFF7FEFF 		bl	sub32
 3883 00fc 08E0     		b	.L116
 3884              	.L115:
 3885              		.loc 1 1118 0 is_stmt 0 discriminator 2
 3886 00fe 97F95310 		ldrsb	r1, [r7, #83]
 3887 0102 07F15202 		add	r2, r7, #82
 3888 0106 07F14C03 		add	r3, r7, #76
 3889 010a 1846     		mov	r0, r3
 3890 010c FFF7FEFF 		bl	add32
 3891              	.L116:
1119:C:/Users/dtjld/workspace/AIoT/src/LiteOS_Lab/iot_link/network/dtls/mbedtls/mbedtls-2.16.2/library\ecp_curves.c **** 
1120:C:/Users/dtjld/workspace/AIoT/src/LiteOS_Lab/iot_link/network/dtls/mbedtls/mbedtls-2.16.2/library\ecp_curves.c ****     ADD( 13 ); ADD( 22 ); ADD( 23 );
 3892              		.loc 1 1120 0 is_stmt 1
 3893 0110 7B68     		ldr	r3, [r7, #4]
 3894 0112 9B68     		ldr	r3, [r3, #8]
 3895 0114 3433     		adds	r3, r3, #52
 3896 0116 1968     		ldr	r1, [r3]
 3897 0118 07F15202 		add	r2, r7, #82
 3898 011c 07F14C03 		add	r3, r7, #76
 3899 0120 1846     		mov	r0, r3
 3900 0122 FFF7FEFF 		bl	add32
 3901 0126 7B68     		ldr	r3, [r7, #4]
 3902 0128 9B68     		ldr	r3, [r3, #8]
 3903 012a 5833     		adds	r3, r3, #88
 3904 012c 1968     		ldr	r1, [r3]
 3905 012e 07F15202 		add	r2, r7, #82
 3906 0132 07F14C03 		add	r3, r7, #76
 3907 0136 1846     		mov	r0, r3
 3908 0138 FFF7FEFF 		bl	add32
 3909 013c 7B68     		ldr	r3, [r7, #4]
 3910 013e 9B68     		ldr	r3, [r3, #8]
ARM GAS  C:\Users\dtjld\AppData\Local\Temp\ccEzFpLd.s 			page 87


 3911 0140 5C33     		adds	r3, r3, #92
 3912 0142 1968     		ldr	r1, [r3]
 3913 0144 07F15202 		add	r2, r7, #82
 3914 0148 07F14C03 		add	r3, r7, #76
 3915 014c 1846     		mov	r0, r3
 3916 014e FFF7FEFF 		bl	add32
1121:C:/Users/dtjld/workspace/AIoT/src/LiteOS_Lab/iot_link/network/dtls/mbedtls/mbedtls-2.16.2/library\ecp_curves.c ****     SUB( 12 ); SUB( 20 );                                   NEXT; // A2
 3917              		.loc 1 1121 0
 3918 0152 7B68     		ldr	r3, [r7, #4]
 3919 0154 9B68     		ldr	r3, [r3, #8]
 3920 0156 3033     		adds	r3, r3, #48
 3921 0158 1968     		ldr	r1, [r3]
 3922 015a 07F15202 		add	r2, r7, #82
 3923 015e 07F14C03 		add	r3, r7, #76
 3924 0162 1846     		mov	r0, r3
 3925 0164 FFF7FEFF 		bl	sub32
 3926 0168 7B68     		ldr	r3, [r7, #4]
 3927 016a 9B68     		ldr	r3, [r3, #8]
 3928 016c 5033     		adds	r3, r3, #80
 3929 016e 1968     		ldr	r1, [r3]
 3930 0170 07F15202 		add	r2, r7, #82
 3931 0174 07F14C03 		add	r3, r7, #76
 3932 0178 1846     		mov	r0, r3
 3933 017a FFF7FEFF 		bl	sub32
 3934 017e 7B68     		ldr	r3, [r7, #4]
 3935 0180 9A68     		ldr	r2, [r3, #8]
 3936 0182 FB6D     		ldr	r3, [r7, #92]
 3937 0184 9B00     		lsls	r3, r3, #2
 3938 0186 1344     		add	r3, r3, r2
 3939 0188 FA6C     		ldr	r2, [r7, #76]
 3940 018a 1A60     		str	r2, [r3]
 3941 018c FB6D     		ldr	r3, [r7, #92]
 3942 018e 0133     		adds	r3, r3, #1
 3943 0190 FB65     		str	r3, [r7, #92]
 3944 0192 7B68     		ldr	r3, [r7, #4]
 3945 0194 9A68     		ldr	r2, [r3, #8]
 3946 0196 FB6D     		ldr	r3, [r7, #92]
 3947 0198 9B00     		lsls	r3, r3, #2
 3948 019a 1344     		add	r3, r3, r2
 3949 019c 1B68     		ldr	r3, [r3]
 3950 019e FB64     		str	r3, [r7, #76]
 3951 01a0 97F85230 		ldrb	r3, [r7, #82]
 3952 01a4 87F85330 		strb	r3, [r7, #83]
 3953 01a8 0023     		movs	r3, #0
 3954 01aa 87F85230 		strb	r3, [r7, #82]
 3955 01ae 97F95330 		ldrsb	r3, [r7, #83]
 3956 01b2 002B     		cmp	r3, #0
 3957 01b4 0BDA     		bge	.L117
 3958              		.loc 1 1121 0 is_stmt 0 discriminator 1
 3959 01b6 97F95330 		ldrsb	r3, [r7, #83]
 3960 01ba 5B42     		negs	r3, r3
 3961 01bc 1946     		mov	r1, r3
 3962 01be 07F15202 		add	r2, r7, #82
 3963 01c2 07F14C03 		add	r3, r7, #76
 3964 01c6 1846     		mov	r0, r3
 3965 01c8 FFF7FEFF 		bl	sub32
 3966 01cc 08E0     		b	.L118
ARM GAS  C:\Users\dtjld\AppData\Local\Temp\ccEzFpLd.s 			page 88


 3967              	.L117:
 3968              		.loc 1 1121 0 discriminator 2
 3969 01ce 97F95310 		ldrsb	r1, [r7, #83]
 3970 01d2 07F15202 		add	r2, r7, #82
 3971 01d6 07F14C03 		add	r3, r7, #76
 3972 01da 1846     		mov	r0, r3
 3973 01dc FFF7FEFF 		bl	add32
 3974              	.L118:
1122:C:/Users/dtjld/workspace/AIoT/src/LiteOS_Lab/iot_link/network/dtls/mbedtls/mbedtls-2.16.2/library\ecp_curves.c **** 
1123:C:/Users/dtjld/workspace/AIoT/src/LiteOS_Lab/iot_link/network/dtls/mbedtls/mbedtls-2.16.2/library\ecp_curves.c ****     ADD( 14 ); ADD( 23 );
 3975              		.loc 1 1123 0 is_stmt 1
 3976 01e0 7B68     		ldr	r3, [r7, #4]
 3977 01e2 9B68     		ldr	r3, [r3, #8]
 3978 01e4 3833     		adds	r3, r3, #56
 3979 01e6 1968     		ldr	r1, [r3]
 3980 01e8 07F15202 		add	r2, r7, #82
 3981 01ec 07F14C03 		add	r3, r7, #76
 3982 01f0 1846     		mov	r0, r3
 3983 01f2 FFF7FEFF 		bl	add32
 3984 01f6 7B68     		ldr	r3, [r7, #4]
 3985 01f8 9B68     		ldr	r3, [r3, #8]
 3986 01fa 5C33     		adds	r3, r3, #92
 3987 01fc 1968     		ldr	r1, [r3]
 3988 01fe 07F15202 		add	r2, r7, #82
 3989 0202 07F14C03 		add	r3, r7, #76
 3990 0206 1846     		mov	r0, r3
 3991 0208 FFF7FEFF 		bl	add32
1124:C:/Users/dtjld/workspace/AIoT/src/LiteOS_Lab/iot_link/network/dtls/mbedtls/mbedtls-2.16.2/library\ecp_curves.c ****     SUB( 13 ); SUB( 21 );                                   NEXT; // A2
 3992              		.loc 1 1124 0
 3993 020c 7B68     		ldr	r3, [r7, #4]
 3994 020e 9B68     		ldr	r3, [r3, #8]
 3995 0210 3433     		adds	r3, r3, #52
 3996 0212 1968     		ldr	r1, [r3]
 3997 0214 07F15202 		add	r2, r7, #82
 3998 0218 07F14C03 		add	r3, r7, #76
 3999 021c 1846     		mov	r0, r3
 4000 021e FFF7FEFF 		bl	sub32
 4001 0222 7B68     		ldr	r3, [r7, #4]
 4002 0224 9B68     		ldr	r3, [r3, #8]
 4003 0226 5433     		adds	r3, r3, #84
 4004 0228 1968     		ldr	r1, [r3]
 4005 022a 07F15202 		add	r2, r7, #82
 4006 022e 07F14C03 		add	r3, r7, #76
 4007 0232 1846     		mov	r0, r3
 4008 0234 FFF7FEFF 		bl	sub32
 4009 0238 7B68     		ldr	r3, [r7, #4]
 4010 023a 9A68     		ldr	r2, [r3, #8]
 4011 023c FB6D     		ldr	r3, [r7, #92]
 4012 023e 9B00     		lsls	r3, r3, #2
 4013 0240 1344     		add	r3, r3, r2
 4014 0242 FA6C     		ldr	r2, [r7, #76]
 4015 0244 1A60     		str	r2, [r3]
 4016 0246 FB6D     		ldr	r3, [r7, #92]
 4017 0248 0133     		adds	r3, r3, #1
 4018 024a FB65     		str	r3, [r7, #92]
 4019 024c 7B68     		ldr	r3, [r7, #4]
 4020 024e 9A68     		ldr	r2, [r3, #8]
ARM GAS  C:\Users\dtjld\AppData\Local\Temp\ccEzFpLd.s 			page 89


 4021 0250 FB6D     		ldr	r3, [r7, #92]
 4022 0252 9B00     		lsls	r3, r3, #2
 4023 0254 1344     		add	r3, r3, r2
 4024 0256 1B68     		ldr	r3, [r3]
 4025 0258 FB64     		str	r3, [r7, #76]
 4026 025a 97F85230 		ldrb	r3, [r7, #82]
 4027 025e 87F85330 		strb	r3, [r7, #83]
 4028 0262 0023     		movs	r3, #0
 4029 0264 87F85230 		strb	r3, [r7, #82]
 4030 0268 97F95330 		ldrsb	r3, [r7, #83]
 4031 026c 002B     		cmp	r3, #0
 4032 026e 0BDA     		bge	.L119
 4033              		.loc 1 1124 0 is_stmt 0 discriminator 1
 4034 0270 97F95330 		ldrsb	r3, [r7, #83]
 4035 0274 5B42     		negs	r3, r3
 4036 0276 1946     		mov	r1, r3
 4037 0278 07F15202 		add	r2, r7, #82
 4038 027c 07F14C03 		add	r3, r7, #76
 4039 0280 1846     		mov	r0, r3
 4040 0282 FFF7FEFF 		bl	sub32
 4041 0286 08E0     		b	.L120
 4042              	.L119:
 4043              		.loc 1 1124 0 discriminator 2
 4044 0288 97F95310 		ldrsb	r1, [r7, #83]
 4045 028c 07F15202 		add	r2, r7, #82
 4046 0290 07F14C03 		add	r3, r7, #76
 4047 0294 1846     		mov	r0, r3
 4048 0296 FFF7FEFF 		bl	add32
 4049              	.L120:
1125:C:/Users/dtjld/workspace/AIoT/src/LiteOS_Lab/iot_link/network/dtls/mbedtls/mbedtls-2.16.2/library\ecp_curves.c **** 
1126:C:/Users/dtjld/workspace/AIoT/src/LiteOS_Lab/iot_link/network/dtls/mbedtls/mbedtls-2.16.2/library\ecp_curves.c ****     ADD( 15 ); ADD( 12 ); ADD( 20 ); ADD( 21 );
 4050              		.loc 1 1126 0 is_stmt 1
 4051 029a 7B68     		ldr	r3, [r7, #4]
 4052 029c 9B68     		ldr	r3, [r3, #8]
 4053 029e 3C33     		adds	r3, r3, #60
 4054 02a0 1968     		ldr	r1, [r3]
 4055 02a2 07F15202 		add	r2, r7, #82
 4056 02a6 07F14C03 		add	r3, r7, #76
 4057 02aa 1846     		mov	r0, r3
 4058 02ac FFF7FEFF 		bl	add32
 4059 02b0 7B68     		ldr	r3, [r7, #4]
 4060 02b2 9B68     		ldr	r3, [r3, #8]
 4061 02b4 3033     		adds	r3, r3, #48
 4062 02b6 1968     		ldr	r1, [r3]
 4063 02b8 07F15202 		add	r2, r7, #82
 4064 02bc 07F14C03 		add	r3, r7, #76
 4065 02c0 1846     		mov	r0, r3
 4066 02c2 FFF7FEFF 		bl	add32
 4067 02c6 7B68     		ldr	r3, [r7, #4]
 4068 02c8 9B68     		ldr	r3, [r3, #8]
 4069 02ca 5033     		adds	r3, r3, #80
 4070 02cc 1968     		ldr	r1, [r3]
 4071 02ce 07F15202 		add	r2, r7, #82
 4072 02d2 07F14C03 		add	r3, r7, #76
 4073 02d6 1846     		mov	r0, r3
 4074 02d8 FFF7FEFF 		bl	add32
 4075 02dc 7B68     		ldr	r3, [r7, #4]
ARM GAS  C:\Users\dtjld\AppData\Local\Temp\ccEzFpLd.s 			page 90


 4076 02de 9B68     		ldr	r3, [r3, #8]
 4077 02e0 5433     		adds	r3, r3, #84
 4078 02e2 1968     		ldr	r1, [r3]
 4079 02e4 07F15202 		add	r2, r7, #82
 4080 02e8 07F14C03 		add	r3, r7, #76
 4081 02ec 1846     		mov	r0, r3
 4082 02ee FFF7FEFF 		bl	add32
1127:C:/Users/dtjld/workspace/AIoT/src/LiteOS_Lab/iot_link/network/dtls/mbedtls/mbedtls-2.16.2/library\ecp_curves.c ****     SUB( 14 ); SUB( 22 ); SUB( 23 );                        NEXT; // A3
 4083              		.loc 1 1127 0
 4084 02f2 7B68     		ldr	r3, [r7, #4]
 4085 02f4 9B68     		ldr	r3, [r3, #8]
 4086 02f6 3833     		adds	r3, r3, #56
 4087 02f8 1968     		ldr	r1, [r3]
 4088 02fa 07F15202 		add	r2, r7, #82
 4089 02fe 07F14C03 		add	r3, r7, #76
 4090 0302 1846     		mov	r0, r3
 4091 0304 FFF7FEFF 		bl	sub32
 4092 0308 7B68     		ldr	r3, [r7, #4]
 4093 030a 9B68     		ldr	r3, [r3, #8]
 4094 030c 5833     		adds	r3, r3, #88
 4095 030e 1968     		ldr	r1, [r3]
 4096 0310 07F15202 		add	r2, r7, #82
 4097 0314 07F14C03 		add	r3, r7, #76
 4098 0318 1846     		mov	r0, r3
 4099 031a FFF7FEFF 		bl	sub32
 4100 031e 7B68     		ldr	r3, [r7, #4]
 4101 0320 9B68     		ldr	r3, [r3, #8]
 4102 0322 5C33     		adds	r3, r3, #92
 4103 0324 1968     		ldr	r1, [r3]
 4104 0326 07F15202 		add	r2, r7, #82
 4105 032a 07F14C03 		add	r3, r7, #76
 4106 032e 1846     		mov	r0, r3
 4107 0330 FFF7FEFF 		bl	sub32
 4108 0334 7B68     		ldr	r3, [r7, #4]
 4109 0336 9A68     		ldr	r2, [r3, #8]
 4110 0338 FB6D     		ldr	r3, [r7, #92]
 4111 033a 9B00     		lsls	r3, r3, #2
 4112 033c 1344     		add	r3, r3, r2
 4113 033e FA6C     		ldr	r2, [r7, #76]
 4114 0340 1A60     		str	r2, [r3]
 4115 0342 FB6D     		ldr	r3, [r7, #92]
 4116 0344 0133     		adds	r3, r3, #1
 4117 0346 FB65     		str	r3, [r7, #92]
 4118 0348 7B68     		ldr	r3, [r7, #4]
 4119 034a 9A68     		ldr	r2, [r3, #8]
 4120 034c FB6D     		ldr	r3, [r7, #92]
 4121 034e 9B00     		lsls	r3, r3, #2
 4122 0350 1344     		add	r3, r3, r2
 4123 0352 1B68     		ldr	r3, [r3]
 4124 0354 FB64     		str	r3, [r7, #76]
 4125 0356 97F85230 		ldrb	r3, [r7, #82]
 4126 035a 87F85330 		strb	r3, [r7, #83]
 4127 035e 0023     		movs	r3, #0
 4128 0360 87F85230 		strb	r3, [r7, #82]
 4129 0364 97F95330 		ldrsb	r3, [r7, #83]
 4130 0368 002B     		cmp	r3, #0
 4131 036a 0BDA     		bge	.L121
ARM GAS  C:\Users\dtjld\AppData\Local\Temp\ccEzFpLd.s 			page 91


 4132              		.loc 1 1127 0 is_stmt 0 discriminator 1
 4133 036c 97F95330 		ldrsb	r3, [r7, #83]
 4134 0370 5B42     		negs	r3, r3
 4135 0372 1946     		mov	r1, r3
 4136 0374 07F15202 		add	r2, r7, #82
 4137 0378 07F14C03 		add	r3, r7, #76
 4138 037c 1846     		mov	r0, r3
 4139 037e FFF7FEFF 		bl	sub32
 4140 0382 08E0     		b	.L122
 4141              	.L121:
 4142              		.loc 1 1127 0 discriminator 2
 4143 0384 97F95310 		ldrsb	r1, [r7, #83]
 4144 0388 07F15202 		add	r2, r7, #82
 4145 038c 07F14C03 		add	r3, r7, #76
 4146 0390 1846     		mov	r0, r3
 4147 0392 FFF7FEFF 		bl	add32
 4148              	.L122:
1128:C:/Users/dtjld/workspace/AIoT/src/LiteOS_Lab/iot_link/network/dtls/mbedtls/mbedtls-2.16.2/library\ecp_curves.c **** 
1129:C:/Users/dtjld/workspace/AIoT/src/LiteOS_Lab/iot_link/network/dtls/mbedtls/mbedtls-2.16.2/library\ecp_curves.c ****     ADD( 21 ); ADD( 21 ); ADD( 16 ); ADD( 13 ); ADD( 12 ); ADD( 20 ); ADD( 22 );
 4149              		.loc 1 1129 0 is_stmt 1
 4150 0396 7B68     		ldr	r3, [r7, #4]
 4151 0398 9B68     		ldr	r3, [r3, #8]
 4152 039a 5433     		adds	r3, r3, #84
 4153 039c 1968     		ldr	r1, [r3]
 4154 039e 07F15202 		add	r2, r7, #82
 4155 03a2 07F14C03 		add	r3, r7, #76
 4156 03a6 1846     		mov	r0, r3
 4157 03a8 FFF7FEFF 		bl	add32
 4158 03ac 7B68     		ldr	r3, [r7, #4]
 4159 03ae 9B68     		ldr	r3, [r3, #8]
 4160 03b0 5433     		adds	r3, r3, #84
 4161 03b2 1968     		ldr	r1, [r3]
 4162 03b4 07F15202 		add	r2, r7, #82
 4163 03b8 07F14C03 		add	r3, r7, #76
 4164 03bc 1846     		mov	r0, r3
 4165 03be FFF7FEFF 		bl	add32
 4166 03c2 7B68     		ldr	r3, [r7, #4]
 4167 03c4 9B68     		ldr	r3, [r3, #8]
 4168 03c6 4033     		adds	r3, r3, #64
 4169 03c8 1968     		ldr	r1, [r3]
 4170 03ca 07F15202 		add	r2, r7, #82
 4171 03ce 07F14C03 		add	r3, r7, #76
 4172 03d2 1846     		mov	r0, r3
 4173 03d4 FFF7FEFF 		bl	add32
 4174 03d8 7B68     		ldr	r3, [r7, #4]
 4175 03da 9B68     		ldr	r3, [r3, #8]
 4176 03dc 3433     		adds	r3, r3, #52
 4177 03de 1968     		ldr	r1, [r3]
 4178 03e0 07F15202 		add	r2, r7, #82
 4179 03e4 07F14C03 		add	r3, r7, #76
 4180 03e8 1846     		mov	r0, r3
 4181 03ea FFF7FEFF 		bl	add32
 4182 03ee 7B68     		ldr	r3, [r7, #4]
 4183 03f0 9B68     		ldr	r3, [r3, #8]
 4184 03f2 3033     		adds	r3, r3, #48
 4185 03f4 1968     		ldr	r1, [r3]
 4186 03f6 07F15202 		add	r2, r7, #82
ARM GAS  C:\Users\dtjld\AppData\Local\Temp\ccEzFpLd.s 			page 92


 4187 03fa 07F14C03 		add	r3, r7, #76
 4188 03fe 1846     		mov	r0, r3
 4189 0400 FFF7FEFF 		bl	add32
 4190 0404 7B68     		ldr	r3, [r7, #4]
 4191 0406 9B68     		ldr	r3, [r3, #8]
 4192 0408 5033     		adds	r3, r3, #80
 4193 040a 1968     		ldr	r1, [r3]
 4194 040c 07F15202 		add	r2, r7, #82
 4195 0410 07F14C03 		add	r3, r7, #76
 4196 0414 1846     		mov	r0, r3
 4197 0416 FFF7FEFF 		bl	add32
 4198 041a 7B68     		ldr	r3, [r7, #4]
 4199 041c 9B68     		ldr	r3, [r3, #8]
 4200 041e 5833     		adds	r3, r3, #88
 4201 0420 1968     		ldr	r1, [r3]
 4202 0422 07F15202 		add	r2, r7, #82
 4203 0426 07F14C03 		add	r3, r7, #76
 4204 042a 1846     		mov	r0, r3
 4205 042c FFF7FEFF 		bl	add32
1130:C:/Users/dtjld/workspace/AIoT/src/LiteOS_Lab/iot_link/network/dtls/mbedtls/mbedtls-2.16.2/library\ecp_curves.c ****     SUB( 15 ); SUB( 23 ); SUB( 23 );                        NEXT; // A4
 4206              		.loc 1 1130 0
 4207 0430 7B68     		ldr	r3, [r7, #4]
 4208 0432 9B68     		ldr	r3, [r3, #8]
 4209 0434 3C33     		adds	r3, r3, #60
 4210 0436 1968     		ldr	r1, [r3]
 4211 0438 07F15202 		add	r2, r7, #82
 4212 043c 07F14C03 		add	r3, r7, #76
 4213 0440 1846     		mov	r0, r3
 4214 0442 FFF7FEFF 		bl	sub32
 4215 0446 7B68     		ldr	r3, [r7, #4]
 4216 0448 9B68     		ldr	r3, [r3, #8]
 4217 044a 5C33     		adds	r3, r3, #92
 4218 044c 1968     		ldr	r1, [r3]
 4219 044e 07F15202 		add	r2, r7, #82
 4220 0452 07F14C03 		add	r3, r7, #76
 4221 0456 1846     		mov	r0, r3
 4222 0458 FFF7FEFF 		bl	sub32
 4223 045c 7B68     		ldr	r3, [r7, #4]
 4224 045e 9B68     		ldr	r3, [r3, #8]
 4225 0460 5C33     		adds	r3, r3, #92
 4226 0462 1968     		ldr	r1, [r3]
 4227 0464 07F15202 		add	r2, r7, #82
 4228 0468 07F14C03 		add	r3, r7, #76
 4229 046c 1846     		mov	r0, r3
 4230 046e FFF7FEFF 		bl	sub32
 4231 0472 7B68     		ldr	r3, [r7, #4]
 4232 0474 9A68     		ldr	r2, [r3, #8]
 4233 0476 FB6D     		ldr	r3, [r7, #92]
 4234 0478 9B00     		lsls	r3, r3, #2
 4235 047a 1344     		add	r3, r3, r2
 4236 047c FA6C     		ldr	r2, [r7, #76]
 4237 047e 1A60     		str	r2, [r3]
 4238 0480 FB6D     		ldr	r3, [r7, #92]
 4239 0482 0133     		adds	r3, r3, #1
 4240 0484 FB65     		str	r3, [r7, #92]
 4241 0486 7B68     		ldr	r3, [r7, #4]
 4242 0488 9A68     		ldr	r2, [r3, #8]
ARM GAS  C:\Users\dtjld\AppData\Local\Temp\ccEzFpLd.s 			page 93


 4243 048a FB6D     		ldr	r3, [r7, #92]
 4244 048c 9B00     		lsls	r3, r3, #2
 4245 048e 1344     		add	r3, r3, r2
 4246 0490 1B68     		ldr	r3, [r3]
 4247 0492 FB64     		str	r3, [r7, #76]
 4248 0494 97F85230 		ldrb	r3, [r7, #82]
 4249 0498 87F85330 		strb	r3, [r7, #83]
 4250 049c 0023     		movs	r3, #0
 4251 049e 87F85230 		strb	r3, [r7, #82]
 4252 04a2 97F95330 		ldrsb	r3, [r7, #83]
 4253 04a6 002B     		cmp	r3, #0
 4254 04a8 0BDA     		bge	.L123
 4255              		.loc 1 1130 0 is_stmt 0 discriminator 1
 4256 04aa 97F95330 		ldrsb	r3, [r7, #83]
 4257 04ae 5B42     		negs	r3, r3
 4258 04b0 1946     		mov	r1, r3
 4259 04b2 07F15202 		add	r2, r7, #82
 4260 04b6 07F14C03 		add	r3, r7, #76
 4261 04ba 1846     		mov	r0, r3
 4262 04bc FFF7FEFF 		bl	sub32
 4263 04c0 08E0     		b	.L124
 4264              	.L123:
 4265              		.loc 1 1130 0 discriminator 2
 4266 04c2 97F95310 		ldrsb	r1, [r7, #83]
 4267 04c6 07F15202 		add	r2, r7, #82
 4268 04ca 07F14C03 		add	r3, r7, #76
 4269 04ce 1846     		mov	r0, r3
 4270 04d0 FFF7FEFF 		bl	add32
 4271              	.L124:
1131:C:/Users/dtjld/workspace/AIoT/src/LiteOS_Lab/iot_link/network/dtls/mbedtls/mbedtls-2.16.2/library\ecp_curves.c **** 
1132:C:/Users/dtjld/workspace/AIoT/src/LiteOS_Lab/iot_link/network/dtls/mbedtls/mbedtls-2.16.2/library\ecp_curves.c ****     ADD( 22 ); ADD( 22 ); ADD( 17 ); ADD( 14 ); ADD( 13 ); ADD( 21 ); ADD( 23 );
 4272              		.loc 1 1132 0 is_stmt 1
 4273 04d4 7B68     		ldr	r3, [r7, #4]
 4274 04d6 9B68     		ldr	r3, [r3, #8]
 4275 04d8 5833     		adds	r3, r3, #88
 4276 04da 1968     		ldr	r1, [r3]
 4277 04dc 07F15202 		add	r2, r7, #82
 4278 04e0 07F14C03 		add	r3, r7, #76
 4279 04e4 1846     		mov	r0, r3
 4280 04e6 FFF7FEFF 		bl	add32
 4281 04ea 7B68     		ldr	r3, [r7, #4]
 4282 04ec 9B68     		ldr	r3, [r3, #8]
 4283 04ee 5833     		adds	r3, r3, #88
 4284 04f0 1968     		ldr	r1, [r3]
 4285 04f2 07F15202 		add	r2, r7, #82
 4286 04f6 07F14C03 		add	r3, r7, #76
 4287 04fa 1846     		mov	r0, r3
 4288 04fc FFF7FEFF 		bl	add32
 4289 0500 7B68     		ldr	r3, [r7, #4]
 4290 0502 9B68     		ldr	r3, [r3, #8]
 4291 0504 4433     		adds	r3, r3, #68
 4292 0506 1968     		ldr	r1, [r3]
 4293 0508 07F15202 		add	r2, r7, #82
 4294 050c 07F14C03 		add	r3, r7, #76
 4295 0510 1846     		mov	r0, r3
 4296 0512 FFF7FEFF 		bl	add32
 4297 0516 7B68     		ldr	r3, [r7, #4]
ARM GAS  C:\Users\dtjld\AppData\Local\Temp\ccEzFpLd.s 			page 94


 4298 0518 9B68     		ldr	r3, [r3, #8]
 4299 051a 3833     		adds	r3, r3, #56
 4300 051c 1968     		ldr	r1, [r3]
 4301 051e 07F15202 		add	r2, r7, #82
 4302 0522 07F14C03 		add	r3, r7, #76
 4303 0526 1846     		mov	r0, r3
 4304 0528 FFF7FEFF 		bl	add32
 4305 052c 7B68     		ldr	r3, [r7, #4]
 4306 052e 9B68     		ldr	r3, [r3, #8]
 4307 0530 3433     		adds	r3, r3, #52
 4308 0532 1968     		ldr	r1, [r3]
 4309 0534 07F15202 		add	r2, r7, #82
 4310 0538 07F14C03 		add	r3, r7, #76
 4311 053c 1846     		mov	r0, r3
 4312 053e FFF7FEFF 		bl	add32
 4313 0542 7B68     		ldr	r3, [r7, #4]
 4314 0544 9B68     		ldr	r3, [r3, #8]
 4315 0546 5433     		adds	r3, r3, #84
 4316 0548 1968     		ldr	r1, [r3]
 4317 054a 07F15202 		add	r2, r7, #82
 4318 054e 07F14C03 		add	r3, r7, #76
 4319 0552 1846     		mov	r0, r3
 4320 0554 FFF7FEFF 		bl	add32
 4321 0558 7B68     		ldr	r3, [r7, #4]
 4322 055a 9B68     		ldr	r3, [r3, #8]
 4323 055c 5C33     		adds	r3, r3, #92
 4324 055e 1968     		ldr	r1, [r3]
 4325 0560 07F15202 		add	r2, r7, #82
 4326 0564 07F14C03 		add	r3, r7, #76
 4327 0568 1846     		mov	r0, r3
 4328 056a FFF7FEFF 		bl	add32
1133:C:/Users/dtjld/workspace/AIoT/src/LiteOS_Lab/iot_link/network/dtls/mbedtls/mbedtls-2.16.2/library\ecp_curves.c ****     SUB( 16 );                                              NEXT; // A5
 4329              		.loc 1 1133 0
 4330 056e 7B68     		ldr	r3, [r7, #4]
 4331 0570 9B68     		ldr	r3, [r3, #8]
 4332 0572 4033     		adds	r3, r3, #64
 4333 0574 1968     		ldr	r1, [r3]
 4334 0576 07F15202 		add	r2, r7, #82
 4335 057a 07F14C03 		add	r3, r7, #76
 4336 057e 1846     		mov	r0, r3
 4337 0580 FFF7FEFF 		bl	sub32
 4338 0584 7B68     		ldr	r3, [r7, #4]
 4339 0586 9A68     		ldr	r2, [r3, #8]
 4340 0588 FB6D     		ldr	r3, [r7, #92]
 4341 058a 9B00     		lsls	r3, r3, #2
 4342 058c 1344     		add	r3, r3, r2
 4343 058e FA6C     		ldr	r2, [r7, #76]
 4344 0590 1A60     		str	r2, [r3]
 4345 0592 FB6D     		ldr	r3, [r7, #92]
 4346 0594 0133     		adds	r3, r3, #1
 4347 0596 FB65     		str	r3, [r7, #92]
 4348 0598 7B68     		ldr	r3, [r7, #4]
 4349 059a 9A68     		ldr	r2, [r3, #8]
 4350 059c FB6D     		ldr	r3, [r7, #92]
 4351 059e 9B00     		lsls	r3, r3, #2
 4352 05a0 1344     		add	r3, r3, r2
 4353 05a2 1B68     		ldr	r3, [r3]
ARM GAS  C:\Users\dtjld\AppData\Local\Temp\ccEzFpLd.s 			page 95


 4354 05a4 FB64     		str	r3, [r7, #76]
 4355 05a6 97F85230 		ldrb	r3, [r7, #82]
 4356 05aa 87F85330 		strb	r3, [r7, #83]
 4357 05ae 0023     		movs	r3, #0
 4358 05b0 87F85230 		strb	r3, [r7, #82]
 4359 05b4 97F95330 		ldrsb	r3, [r7, #83]
 4360 05b8 002B     		cmp	r3, #0
 4361 05ba 0BDA     		bge	.L125
 4362              		.loc 1 1133 0 is_stmt 0 discriminator 1
 4363 05bc 97F95330 		ldrsb	r3, [r7, #83]
 4364 05c0 5B42     		negs	r3, r3
 4365 05c2 1946     		mov	r1, r3
 4366 05c4 07F15202 		add	r2, r7, #82
 4367 05c8 07F14C03 		add	r3, r7, #76
 4368 05cc 1846     		mov	r0, r3
 4369 05ce FFF7FEFF 		bl	sub32
 4370 05d2 08E0     		b	.L126
 4371              	.L125:
 4372              		.loc 1 1133 0 discriminator 2
 4373 05d4 97F95310 		ldrsb	r1, [r7, #83]
 4374 05d8 07F15202 		add	r2, r7, #82
 4375 05dc 07F14C03 		add	r3, r7, #76
 4376 05e0 1846     		mov	r0, r3
 4377 05e2 FFF7FEFF 		bl	add32
 4378              	.L126:
1134:C:/Users/dtjld/workspace/AIoT/src/LiteOS_Lab/iot_link/network/dtls/mbedtls/mbedtls-2.16.2/library\ecp_curves.c **** 
1135:C:/Users/dtjld/workspace/AIoT/src/LiteOS_Lab/iot_link/network/dtls/mbedtls/mbedtls-2.16.2/library\ecp_curves.c ****     ADD( 23 ); ADD( 23 ); ADD( 18 ); ADD( 15 ); ADD( 14 ); ADD( 22 );
 4379              		.loc 1 1135 0 is_stmt 1
 4380 05e6 7B68     		ldr	r3, [r7, #4]
 4381 05e8 9B68     		ldr	r3, [r3, #8]
 4382 05ea 5C33     		adds	r3, r3, #92
 4383 05ec 1968     		ldr	r1, [r3]
 4384 05ee 07F15202 		add	r2, r7, #82
 4385 05f2 07F14C03 		add	r3, r7, #76
 4386 05f6 1846     		mov	r0, r3
 4387 05f8 FFF7FEFF 		bl	add32
 4388 05fc 7B68     		ldr	r3, [r7, #4]
 4389 05fe 9B68     		ldr	r3, [r3, #8]
 4390 0600 5C33     		adds	r3, r3, #92
 4391 0602 1968     		ldr	r1, [r3]
 4392 0604 07F15202 		add	r2, r7, #82
 4393 0608 07F14C03 		add	r3, r7, #76
 4394 060c 1846     		mov	r0, r3
 4395 060e FFF7FEFF 		bl	add32
 4396 0612 7B68     		ldr	r3, [r7, #4]
 4397 0614 9B68     		ldr	r3, [r3, #8]
 4398 0616 4833     		adds	r3, r3, #72
 4399 0618 1968     		ldr	r1, [r3]
 4400 061a 07F15202 		add	r2, r7, #82
 4401 061e 07F14C03 		add	r3, r7, #76
 4402 0622 1846     		mov	r0, r3
 4403 0624 FFF7FEFF 		bl	add32
 4404 0628 7B68     		ldr	r3, [r7, #4]
 4405 062a 9B68     		ldr	r3, [r3, #8]
 4406 062c 3C33     		adds	r3, r3, #60
 4407 062e 1968     		ldr	r1, [r3]
 4408 0630 07F15202 		add	r2, r7, #82
ARM GAS  C:\Users\dtjld\AppData\Local\Temp\ccEzFpLd.s 			page 96


 4409 0634 07F14C03 		add	r3, r7, #76
 4410 0638 1846     		mov	r0, r3
 4411 063a FFF7FEFF 		bl	add32
 4412 063e 7B68     		ldr	r3, [r7, #4]
 4413 0640 9B68     		ldr	r3, [r3, #8]
 4414 0642 3833     		adds	r3, r3, #56
 4415 0644 1968     		ldr	r1, [r3]
 4416 0646 07F15202 		add	r2, r7, #82
 4417 064a 07F14C03 		add	r3, r7, #76
 4418 064e 1846     		mov	r0, r3
 4419 0650 FFF7FEFF 		bl	add32
 4420 0654 7B68     		ldr	r3, [r7, #4]
 4421 0656 9B68     		ldr	r3, [r3, #8]
 4422 0658 5833     		adds	r3, r3, #88
 4423 065a 1968     		ldr	r1, [r3]
 4424 065c 07F15202 		add	r2, r7, #82
 4425 0660 07F14C03 		add	r3, r7, #76
 4426 0664 1846     		mov	r0, r3
 4427 0666 FFF7FEFF 		bl	add32
1136:C:/Users/dtjld/workspace/AIoT/src/LiteOS_Lab/iot_link/network/dtls/mbedtls/mbedtls-2.16.2/library\ecp_curves.c ****     SUB( 17 );                                              NEXT; // A6
 4428              		.loc 1 1136 0
 4429 066a 7B68     		ldr	r3, [r7, #4]
 4430 066c 9B68     		ldr	r3, [r3, #8]
 4431 066e 4433     		adds	r3, r3, #68
 4432 0670 1968     		ldr	r1, [r3]
 4433 0672 07F15202 		add	r2, r7, #82
 4434 0676 07F14C03 		add	r3, r7, #76
 4435 067a 1846     		mov	r0, r3
 4436 067c FFF7FEFF 		bl	sub32
 4437 0680 7B68     		ldr	r3, [r7, #4]
 4438 0682 9A68     		ldr	r2, [r3, #8]
 4439 0684 FB6D     		ldr	r3, [r7, #92]
 4440 0686 9B00     		lsls	r3, r3, #2
 4441 0688 1344     		add	r3, r3, r2
 4442 068a FA6C     		ldr	r2, [r7, #76]
 4443 068c 1A60     		str	r2, [r3]
 4444 068e FB6D     		ldr	r3, [r7, #92]
 4445 0690 0133     		adds	r3, r3, #1
 4446 0692 FB65     		str	r3, [r7, #92]
 4447 0694 7B68     		ldr	r3, [r7, #4]
 4448 0696 9A68     		ldr	r2, [r3, #8]
 4449 0698 FB6D     		ldr	r3, [r7, #92]
 4450 069a 9B00     		lsls	r3, r3, #2
 4451 069c 1344     		add	r3, r3, r2
 4452 069e 1B68     		ldr	r3, [r3]
 4453 06a0 FB64     		str	r3, [r7, #76]
 4454 06a2 97F85230 		ldrb	r3, [r7, #82]
 4455 06a6 87F85330 		strb	r3, [r7, #83]
 4456 06aa 0023     		movs	r3, #0
 4457 06ac 87F85230 		strb	r3, [r7, #82]
 4458 06b0 97F95330 		ldrsb	r3, [r7, #83]
 4459 06b4 002B     		cmp	r3, #0
 4460 06b6 0BDA     		bge	.L127
 4461              		.loc 1 1136 0 is_stmt 0 discriminator 1
 4462 06b8 97F95330 		ldrsb	r3, [r7, #83]
 4463 06bc 5B42     		negs	r3, r3
 4464 06be 1946     		mov	r1, r3
ARM GAS  C:\Users\dtjld\AppData\Local\Temp\ccEzFpLd.s 			page 97


 4465 06c0 07F15202 		add	r2, r7, #82
 4466 06c4 07F14C03 		add	r3, r7, #76
 4467 06c8 1846     		mov	r0, r3
 4468 06ca FFF7FEFF 		bl	sub32
 4469 06ce 08E0     		b	.L128
 4470              	.L127:
 4471              		.loc 1 1136 0 discriminator 2
 4472 06d0 97F95310 		ldrsb	r1, [r7, #83]
 4473 06d4 07F15202 		add	r2, r7, #82
 4474 06d8 07F14C03 		add	r3, r7, #76
 4475 06dc 1846     		mov	r0, r3
 4476 06de FFF7FEFF 		bl	add32
 4477              	.L128:
1137:C:/Users/dtjld/workspace/AIoT/src/LiteOS_Lab/iot_link/network/dtls/mbedtls/mbedtls-2.16.2/library\ecp_curves.c **** 
1138:C:/Users/dtjld/workspace/AIoT/src/LiteOS_Lab/iot_link/network/dtls/mbedtls/mbedtls-2.16.2/library\ecp_curves.c ****     ADD( 19 ); ADD( 16 ); ADD( 15 ); ADD( 23 );
 4478              		.loc 1 1138 0 is_stmt 1
 4479 06e2 7B68     		ldr	r3, [r7, #4]
 4480 06e4 9B68     		ldr	r3, [r3, #8]
 4481 06e6 4C33     		adds	r3, r3, #76
 4482 06e8 1968     		ldr	r1, [r3]
 4483 06ea 07F15202 		add	r2, r7, #82
 4484 06ee 07F14C03 		add	r3, r7, #76
 4485 06f2 1846     		mov	r0, r3
 4486 06f4 FFF7FEFF 		bl	add32
 4487 06f8 7B68     		ldr	r3, [r7, #4]
 4488 06fa 9B68     		ldr	r3, [r3, #8]
 4489 06fc 4033     		adds	r3, r3, #64
 4490 06fe 1968     		ldr	r1, [r3]
 4491 0700 07F15202 		add	r2, r7, #82
 4492 0704 07F14C03 		add	r3, r7, #76
 4493 0708 1846     		mov	r0, r3
 4494 070a FFF7FEFF 		bl	add32
 4495 070e 7B68     		ldr	r3, [r7, #4]
 4496 0710 9B68     		ldr	r3, [r3, #8]
 4497 0712 3C33     		adds	r3, r3, #60
 4498 0714 1968     		ldr	r1, [r3]
 4499 0716 07F15202 		add	r2, r7, #82
 4500 071a 07F14C03 		add	r3, r7, #76
 4501 071e 1846     		mov	r0, r3
 4502 0720 FFF7FEFF 		bl	add32
 4503 0724 7B68     		ldr	r3, [r7, #4]
 4504 0726 9B68     		ldr	r3, [r3, #8]
 4505 0728 5C33     		adds	r3, r3, #92
 4506 072a 1968     		ldr	r1, [r3]
 4507 072c 07F15202 		add	r2, r7, #82
 4508 0730 07F14C03 		add	r3, r7, #76
 4509 0734 1846     		mov	r0, r3
 4510 0736 FFF7FEFF 		bl	add32
1139:C:/Users/dtjld/workspace/AIoT/src/LiteOS_Lab/iot_link/network/dtls/mbedtls/mbedtls-2.16.2/library\ecp_curves.c ****     SUB( 18 );                                              NEXT; // A7
 4511              		.loc 1 1139 0
 4512 073a 7B68     		ldr	r3, [r7, #4]
 4513 073c 9B68     		ldr	r3, [r3, #8]
 4514 073e 4833     		adds	r3, r3, #72
 4515 0740 1968     		ldr	r1, [r3]
 4516 0742 07F15202 		add	r2, r7, #82
 4517 0746 07F14C03 		add	r3, r7, #76
 4518 074a 1846     		mov	r0, r3
ARM GAS  C:\Users\dtjld\AppData\Local\Temp\ccEzFpLd.s 			page 98


 4519 074c FFF7FEFF 		bl	sub32
 4520 0750 7B68     		ldr	r3, [r7, #4]
 4521 0752 9A68     		ldr	r2, [r3, #8]
 4522 0754 FB6D     		ldr	r3, [r7, #92]
 4523 0756 9B00     		lsls	r3, r3, #2
 4524 0758 1344     		add	r3, r3, r2
 4525 075a FA6C     		ldr	r2, [r7, #76]
 4526 075c 1A60     		str	r2, [r3]
 4527 075e FB6D     		ldr	r3, [r7, #92]
 4528 0760 0133     		adds	r3, r3, #1
 4529 0762 FB65     		str	r3, [r7, #92]
 4530 0764 7B68     		ldr	r3, [r7, #4]
 4531 0766 9A68     		ldr	r2, [r3, #8]
 4532 0768 FB6D     		ldr	r3, [r7, #92]
 4533 076a 9B00     		lsls	r3, r3, #2
 4534 076c 1344     		add	r3, r3, r2
 4535 076e 1B68     		ldr	r3, [r3]
 4536 0770 FB64     		str	r3, [r7, #76]
 4537 0772 97F85230 		ldrb	r3, [r7, #82]
 4538 0776 87F85330 		strb	r3, [r7, #83]
 4539 077a 0023     		movs	r3, #0
 4540 077c 87F85230 		strb	r3, [r7, #82]
 4541 0780 97F95330 		ldrsb	r3, [r7, #83]
 4542 0784 002B     		cmp	r3, #0
 4543 0786 0BDA     		bge	.L129
 4544              		.loc 1 1139 0 is_stmt 0 discriminator 1
 4545 0788 97F95330 		ldrsb	r3, [r7, #83]
 4546 078c 5B42     		negs	r3, r3
 4547 078e 1946     		mov	r1, r3
 4548 0790 07F15202 		add	r2, r7, #82
 4549 0794 07F14C03 		add	r3, r7, #76
 4550 0798 1846     		mov	r0, r3
 4551 079a FFF7FEFF 		bl	sub32
 4552 079e 08E0     		b	.L130
 4553              	.L129:
 4554              		.loc 1 1139 0 discriminator 2
 4555 07a0 97F95310 		ldrsb	r1, [r7, #83]
 4556 07a4 07F15202 		add	r2, r7, #82
 4557 07a8 07F14C03 		add	r3, r7, #76
 4558 07ac 1846     		mov	r0, r3
 4559 07ae FFF7FEFF 		bl	add32
 4560              	.L130:
1140:C:/Users/dtjld/workspace/AIoT/src/LiteOS_Lab/iot_link/network/dtls/mbedtls/mbedtls-2.16.2/library\ecp_curves.c **** 
1141:C:/Users/dtjld/workspace/AIoT/src/LiteOS_Lab/iot_link/network/dtls/mbedtls/mbedtls-2.16.2/library\ecp_curves.c ****     ADD( 20 ); ADD( 17 ); ADD( 16 );
 4561              		.loc 1 1141 0 is_stmt 1
 4562 07b2 7B68     		ldr	r3, [r7, #4]
 4563 07b4 9B68     		ldr	r3, [r3, #8]
 4564 07b6 5033     		adds	r3, r3, #80
 4565 07b8 1968     		ldr	r1, [r3]
 4566 07ba 07F15202 		add	r2, r7, #82
 4567 07be 07F14C03 		add	r3, r7, #76
 4568 07c2 1846     		mov	r0, r3
 4569 07c4 FFF7FEFF 		bl	add32
 4570 07c8 7B68     		ldr	r3, [r7, #4]
 4571 07ca 9B68     		ldr	r3, [r3, #8]
 4572 07cc 4433     		adds	r3, r3, #68
 4573 07ce 1968     		ldr	r1, [r3]
ARM GAS  C:\Users\dtjld\AppData\Local\Temp\ccEzFpLd.s 			page 99


 4574 07d0 07F15202 		add	r2, r7, #82
 4575 07d4 07F14C03 		add	r3, r7, #76
 4576 07d8 1846     		mov	r0, r3
 4577 07da FFF7FEFF 		bl	add32
 4578 07de 7B68     		ldr	r3, [r7, #4]
 4579 07e0 9B68     		ldr	r3, [r3, #8]
 4580 07e2 4033     		adds	r3, r3, #64
 4581 07e4 1968     		ldr	r1, [r3]
 4582 07e6 07F15202 		add	r2, r7, #82
 4583 07ea 07F14C03 		add	r3, r7, #76
 4584 07ee 1846     		mov	r0, r3
 4585 07f0 FFF7FEFF 		bl	add32
1142:C:/Users/dtjld/workspace/AIoT/src/LiteOS_Lab/iot_link/network/dtls/mbedtls/mbedtls-2.16.2/library\ecp_curves.c ****     SUB( 19 );                                              NEXT; // A8
 4586              		.loc 1 1142 0
 4587 07f4 7B68     		ldr	r3, [r7, #4]
 4588 07f6 9B68     		ldr	r3, [r3, #8]
 4589 07f8 4C33     		adds	r3, r3, #76
 4590 07fa 1968     		ldr	r1, [r3]
 4591 07fc 07F15202 		add	r2, r7, #82
 4592 0800 07F14C03 		add	r3, r7, #76
 4593 0804 1846     		mov	r0, r3
 4594 0806 FFF7FEFF 		bl	sub32
 4595 080a 7B68     		ldr	r3, [r7, #4]
 4596 080c 9A68     		ldr	r2, [r3, #8]
 4597 080e FB6D     		ldr	r3, [r7, #92]
 4598 0810 9B00     		lsls	r3, r3, #2
 4599 0812 1344     		add	r3, r3, r2
 4600 0814 FA6C     		ldr	r2, [r7, #76]
 4601 0816 1A60     		str	r2, [r3]
 4602 0818 FB6D     		ldr	r3, [r7, #92]
 4603 081a 0133     		adds	r3, r3, #1
 4604 081c FB65     		str	r3, [r7, #92]
 4605 081e 7B68     		ldr	r3, [r7, #4]
 4606 0820 9A68     		ldr	r2, [r3, #8]
 4607 0822 FB6D     		ldr	r3, [r7, #92]
 4608 0824 9B00     		lsls	r3, r3, #2
 4609 0826 1344     		add	r3, r3, r2
 4610 0828 1B68     		ldr	r3, [r3]
 4611 082a FB64     		str	r3, [r7, #76]
 4612 082c 97F85230 		ldrb	r3, [r7, #82]
 4613 0830 87F85330 		strb	r3, [r7, #83]
 4614 0834 0023     		movs	r3, #0
 4615 0836 87F85230 		strb	r3, [r7, #82]
 4616 083a 97F95330 		ldrsb	r3, [r7, #83]
 4617 083e 002B     		cmp	r3, #0
 4618 0840 0BDA     		bge	.L131
 4619              		.loc 1 1142 0 is_stmt 0 discriminator 1
 4620 0842 97F95330 		ldrsb	r3, [r7, #83]
 4621 0846 5B42     		negs	r3, r3
 4622 0848 1946     		mov	r1, r3
 4623 084a 07F15202 		add	r2, r7, #82
 4624 084e 07F14C03 		add	r3, r7, #76
 4625 0852 1846     		mov	r0, r3
 4626 0854 FFF7FEFF 		bl	sub32
 4627 0858 08E0     		b	.L132
 4628              	.L131:
 4629              		.loc 1 1142 0 discriminator 2
ARM GAS  C:\Users\dtjld\AppData\Local\Temp\ccEzFpLd.s 			page 100


 4630 085a 97F95310 		ldrsb	r1, [r7, #83]
 4631 085e 07F15202 		add	r2, r7, #82
 4632 0862 07F14C03 		add	r3, r7, #76
 4633 0866 1846     		mov	r0, r3
 4634 0868 FFF7FEFF 		bl	add32
 4635              	.L132:
1143:C:/Users/dtjld/workspace/AIoT/src/LiteOS_Lab/iot_link/network/dtls/mbedtls/mbedtls-2.16.2/library\ecp_curves.c **** 
1144:C:/Users/dtjld/workspace/AIoT/src/LiteOS_Lab/iot_link/network/dtls/mbedtls/mbedtls-2.16.2/library\ecp_curves.c ****     ADD( 21 ); ADD( 18 ); ADD( 17 );
 4636              		.loc 1 1144 0 is_stmt 1
 4637 086c 7B68     		ldr	r3, [r7, #4]
 4638 086e 9B68     		ldr	r3, [r3, #8]
 4639 0870 5433     		adds	r3, r3, #84
 4640 0872 1968     		ldr	r1, [r3]
 4641 0874 07F15202 		add	r2, r7, #82
 4642 0878 07F14C03 		add	r3, r7, #76
 4643 087c 1846     		mov	r0, r3
 4644 087e FFF7FEFF 		bl	add32
 4645 0882 7B68     		ldr	r3, [r7, #4]
 4646 0884 9B68     		ldr	r3, [r3, #8]
 4647 0886 4833     		adds	r3, r3, #72
 4648 0888 1968     		ldr	r1, [r3]
 4649 088a 07F15202 		add	r2, r7, #82
 4650 088e 07F14C03 		add	r3, r7, #76
 4651 0892 1846     		mov	r0, r3
 4652 0894 FFF7FEFF 		bl	add32
 4653 0898 7B68     		ldr	r3, [r7, #4]
 4654 089a 9B68     		ldr	r3, [r3, #8]
 4655 089c 4433     		adds	r3, r3, #68
 4656 089e 1968     		ldr	r1, [r3]
 4657 08a0 07F15202 		add	r2, r7, #82
 4658 08a4 07F14C03 		add	r3, r7, #76
 4659 08a8 1846     		mov	r0, r3
 4660 08aa FFF7FEFF 		bl	add32
1145:C:/Users/dtjld/workspace/AIoT/src/LiteOS_Lab/iot_link/network/dtls/mbedtls/mbedtls-2.16.2/library\ecp_curves.c ****     SUB( 20 );                                              NEXT; // A9
 4661              		.loc 1 1145 0
 4662 08ae 7B68     		ldr	r3, [r7, #4]
 4663 08b0 9B68     		ldr	r3, [r3, #8]
 4664 08b2 5033     		adds	r3, r3, #80
 4665 08b4 1968     		ldr	r1, [r3]
 4666 08b6 07F15202 		add	r2, r7, #82
 4667 08ba 07F14C03 		add	r3, r7, #76
 4668 08be 1846     		mov	r0, r3
 4669 08c0 FFF7FEFF 		bl	sub32
 4670 08c4 7B68     		ldr	r3, [r7, #4]
 4671 08c6 9A68     		ldr	r2, [r3, #8]
 4672 08c8 FB6D     		ldr	r3, [r7, #92]
 4673 08ca 9B00     		lsls	r3, r3, #2
 4674 08cc 1344     		add	r3, r3, r2
 4675 08ce FA6C     		ldr	r2, [r7, #76]
 4676 08d0 1A60     		str	r2, [r3]
 4677 08d2 FB6D     		ldr	r3, [r7, #92]
 4678 08d4 0133     		adds	r3, r3, #1
 4679 08d6 FB65     		str	r3, [r7, #92]
 4680 08d8 7B68     		ldr	r3, [r7, #4]
 4681 08da 9A68     		ldr	r2, [r3, #8]
 4682 08dc FB6D     		ldr	r3, [r7, #92]
 4683 08de 9B00     		lsls	r3, r3, #2
ARM GAS  C:\Users\dtjld\AppData\Local\Temp\ccEzFpLd.s 			page 101


 4684 08e0 1344     		add	r3, r3, r2
 4685 08e2 1B68     		ldr	r3, [r3]
 4686 08e4 FB64     		str	r3, [r7, #76]
 4687 08e6 97F85230 		ldrb	r3, [r7, #82]
 4688 08ea 87F85330 		strb	r3, [r7, #83]
 4689 08ee 0023     		movs	r3, #0
 4690 08f0 87F85230 		strb	r3, [r7, #82]
 4691 08f4 97F95330 		ldrsb	r3, [r7, #83]
 4692 08f8 002B     		cmp	r3, #0
 4693 08fa 0BDA     		bge	.L133
 4694              		.loc 1 1145 0 is_stmt 0 discriminator 1
 4695 08fc 97F95330 		ldrsb	r3, [r7, #83]
 4696 0900 5B42     		negs	r3, r3
 4697 0902 1946     		mov	r1, r3
 4698 0904 07F15202 		add	r2, r7, #82
 4699 0908 07F14C03 		add	r3, r7, #76
 4700 090c 1846     		mov	r0, r3
 4701 090e FFF7FEFF 		bl	sub32
 4702 0912 08E0     		b	.L134
 4703              	.L133:
 4704              		.loc 1 1145 0 discriminator 2
 4705 0914 97F95310 		ldrsb	r1, [r7, #83]
 4706 0918 07F15202 		add	r2, r7, #82
 4707 091c 07F14C03 		add	r3, r7, #76
 4708 0920 1846     		mov	r0, r3
 4709 0922 FFF7FEFF 		bl	add32
 4710              	.L134:
1146:C:/Users/dtjld/workspace/AIoT/src/LiteOS_Lab/iot_link/network/dtls/mbedtls/mbedtls-2.16.2/library\ecp_curves.c **** 
1147:C:/Users/dtjld/workspace/AIoT/src/LiteOS_Lab/iot_link/network/dtls/mbedtls/mbedtls-2.16.2/library\ecp_curves.c ****     ADD( 22 ); ADD( 19 ); ADD( 18 );
 4711              		.loc 1 1147 0 is_stmt 1
 4712 0926 7B68     		ldr	r3, [r7, #4]
 4713 0928 9B68     		ldr	r3, [r3, #8]
 4714 092a 5833     		adds	r3, r3, #88
 4715 092c 1968     		ldr	r1, [r3]
 4716 092e 07F15202 		add	r2, r7, #82
 4717 0932 07F14C03 		add	r3, r7, #76
 4718 0936 1846     		mov	r0, r3
 4719 0938 FFF7FEFF 		bl	add32
 4720 093c 7B68     		ldr	r3, [r7, #4]
 4721 093e 9B68     		ldr	r3, [r3, #8]
 4722 0940 4C33     		adds	r3, r3, #76
 4723 0942 1968     		ldr	r1, [r3]
 4724 0944 07F15202 		add	r2, r7, #82
 4725 0948 07F14C03 		add	r3, r7, #76
 4726 094c 1846     		mov	r0, r3
 4727 094e FFF7FEFF 		bl	add32
 4728 0952 7B68     		ldr	r3, [r7, #4]
 4729 0954 9B68     		ldr	r3, [r3, #8]
 4730 0956 4833     		adds	r3, r3, #72
 4731 0958 1968     		ldr	r1, [r3]
 4732 095a 07F15202 		add	r2, r7, #82
 4733 095e 07F14C03 		add	r3, r7, #76
 4734 0962 1846     		mov	r0, r3
 4735 0964 FFF7FEFF 		bl	add32
1148:C:/Users/dtjld/workspace/AIoT/src/LiteOS_Lab/iot_link/network/dtls/mbedtls/mbedtls-2.16.2/library\ecp_curves.c ****     SUB( 21 );                                              NEXT; // A10
 4736              		.loc 1 1148 0
 4737 0968 7B68     		ldr	r3, [r7, #4]
ARM GAS  C:\Users\dtjld\AppData\Local\Temp\ccEzFpLd.s 			page 102


 4738 096a 9B68     		ldr	r3, [r3, #8]
 4739 096c 5433     		adds	r3, r3, #84
 4740 096e 1968     		ldr	r1, [r3]
 4741 0970 07F15202 		add	r2, r7, #82
 4742 0974 07F14C03 		add	r3, r7, #76
 4743 0978 1846     		mov	r0, r3
 4744 097a FFF7FEFF 		bl	sub32
 4745 097e 7B68     		ldr	r3, [r7, #4]
 4746 0980 9A68     		ldr	r2, [r3, #8]
 4747 0982 FB6D     		ldr	r3, [r7, #92]
 4748 0984 9B00     		lsls	r3, r3, #2
 4749 0986 1344     		add	r3, r3, r2
 4750 0988 FA6C     		ldr	r2, [r7, #76]
 4751 098a 1A60     		str	r2, [r3]
 4752 098c FB6D     		ldr	r3, [r7, #92]
 4753 098e 0133     		adds	r3, r3, #1
 4754 0990 FB65     		str	r3, [r7, #92]
 4755 0992 7B68     		ldr	r3, [r7, #4]
 4756 0994 9A68     		ldr	r2, [r3, #8]
 4757 0996 FB6D     		ldr	r3, [r7, #92]
 4758 0998 9B00     		lsls	r3, r3, #2
 4759 099a 1344     		add	r3, r3, r2
 4760 099c 1B68     		ldr	r3, [r3]
 4761 099e FB64     		str	r3, [r7, #76]
 4762 09a0 97F85230 		ldrb	r3, [r7, #82]
 4763 09a4 87F85330 		strb	r3, [r7, #83]
 4764 09a8 0023     		movs	r3, #0
 4765 09aa 87F85230 		strb	r3, [r7, #82]
 4766 09ae 97F95330 		ldrsb	r3, [r7, #83]
 4767 09b2 002B     		cmp	r3, #0
 4768 09b4 0BDA     		bge	.L135
 4769              		.loc 1 1148 0 is_stmt 0 discriminator 1
 4770 09b6 97F95330 		ldrsb	r3, [r7, #83]
 4771 09ba 5B42     		negs	r3, r3
 4772 09bc 1946     		mov	r1, r3
 4773 09be 07F15202 		add	r2, r7, #82
 4774 09c2 07F14C03 		add	r3, r7, #76
 4775 09c6 1846     		mov	r0, r3
 4776 09c8 FFF7FEFF 		bl	sub32
 4777 09cc 08E0     		b	.L136
 4778              	.L135:
 4779              		.loc 1 1148 0 discriminator 2
 4780 09ce 97F95310 		ldrsb	r1, [r7, #83]
 4781 09d2 07F15202 		add	r2, r7, #82
 4782 09d6 07F14C03 		add	r3, r7, #76
 4783 09da 1846     		mov	r0, r3
 4784 09dc FFF7FEFF 		bl	add32
 4785              	.L136:
1149:C:/Users/dtjld/workspace/AIoT/src/LiteOS_Lab/iot_link/network/dtls/mbedtls/mbedtls-2.16.2/library\ecp_curves.c **** 
1150:C:/Users/dtjld/workspace/AIoT/src/LiteOS_Lab/iot_link/network/dtls/mbedtls/mbedtls-2.16.2/library\ecp_curves.c ****     ADD( 23 ); ADD( 20 ); ADD( 19 );
 4786              		.loc 1 1150 0 is_stmt 1
 4787 09e0 7B68     		ldr	r3, [r7, #4]
 4788 09e2 9B68     		ldr	r3, [r3, #8]
 4789 09e4 5C33     		adds	r3, r3, #92
 4790 09e6 1968     		ldr	r1, [r3]
 4791 09e8 07F15202 		add	r2, r7, #82
 4792 09ec 07F14C03 		add	r3, r7, #76
ARM GAS  C:\Users\dtjld\AppData\Local\Temp\ccEzFpLd.s 			page 103


 4793 09f0 1846     		mov	r0, r3
 4794 09f2 FFF7FEFF 		bl	add32
 4795 09f6 7B68     		ldr	r3, [r7, #4]
 4796 09f8 9B68     		ldr	r3, [r3, #8]
 4797 09fa 5033     		adds	r3, r3, #80
 4798 09fc 1968     		ldr	r1, [r3]
 4799 09fe 07F15202 		add	r2, r7, #82
 4800 0a02 07F14C03 		add	r3, r7, #76
 4801 0a06 1846     		mov	r0, r3
 4802 0a08 FFF7FEFF 		bl	add32
 4803 0a0c 7B68     		ldr	r3, [r7, #4]
 4804 0a0e 9B68     		ldr	r3, [r3, #8]
 4805 0a10 4C33     		adds	r3, r3, #76
 4806 0a12 1968     		ldr	r1, [r3]
 4807 0a14 07F15202 		add	r2, r7, #82
 4808 0a18 07F14C03 		add	r3, r7, #76
 4809 0a1c 1846     		mov	r0, r3
 4810 0a1e FFF7FEFF 		bl	add32
1151:C:/Users/dtjld/workspace/AIoT/src/LiteOS_Lab/iot_link/network/dtls/mbedtls/mbedtls-2.16.2/library\ecp_curves.c ****     SUB( 22 );                                              LAST; // A11
 4811              		.loc 1 1151 0
 4812 0a22 7B68     		ldr	r3, [r7, #4]
 4813 0a24 9B68     		ldr	r3, [r3, #8]
 4814 0a26 5833     		adds	r3, r3, #88
 4815 0a28 1968     		ldr	r1, [r3]
 4816 0a2a 07F15202 		add	r2, r7, #82
 4817 0a2e 07F14C03 		add	r3, r7, #76
 4818 0a32 1846     		mov	r0, r3
 4819 0a34 FFF7FEFF 		bl	sub32
 4820 0a38 7B68     		ldr	r3, [r7, #4]
 4821 0a3a 9A68     		ldr	r2, [r3, #8]
 4822 0a3c FB6D     		ldr	r3, [r7, #92]
 4823 0a3e 9B00     		lsls	r3, r3, #2
 4824 0a40 1344     		add	r3, r3, r2
 4825 0a42 FA6C     		ldr	r2, [r7, #76]
 4826 0a44 1A60     		str	r2, [r3]
 4827 0a46 FB6D     		ldr	r3, [r7, #92]
 4828 0a48 0133     		adds	r3, r3, #1
 4829 0a4a FB65     		str	r3, [r7, #92]
 4830 0a4c 97F95230 		ldrsb	r3, [r7, #82]
 4831 0a50 23EAE373 		bic	r3, r3, r3, asr #31
 4832 0a54 5BB2     		sxtb	r3, r3
 4833 0a56 FB64     		str	r3, [r7, #76]
 4834 0a58 7B68     		ldr	r3, [r7, #4]
 4835 0a5a 9A68     		ldr	r2, [r3, #8]
 4836 0a5c FB6D     		ldr	r3, [r7, #92]
 4837 0a5e 9B00     		lsls	r3, r3, #2
 4838 0a60 1344     		add	r3, r3, r2
 4839 0a62 FA6C     		ldr	r2, [r7, #76]
 4840 0a64 1A60     		str	r2, [r3]
 4841 0a66 0023     		movs	r3, #0
 4842 0a68 FB64     		str	r3, [r7, #76]
 4843 0a6a 06E0     		b	.L137
 4844              	.L138:
 4845              		.loc 1 1151 0 is_stmt 0 discriminator 3
 4846 0a6c 7B68     		ldr	r3, [r7, #4]
 4847 0a6e 9A68     		ldr	r2, [r3, #8]
 4848 0a70 FB6D     		ldr	r3, [r7, #92]
ARM GAS  C:\Users\dtjld\AppData\Local\Temp\ccEzFpLd.s 			page 104


 4849 0a72 9B00     		lsls	r3, r3, #2
 4850 0a74 1344     		add	r3, r3, r2
 4851 0a76 FA6C     		ldr	r2, [r7, #76]
 4852 0a78 1A60     		str	r2, [r3]
 4853              	.L137:
 4854              		.loc 1 1151 0 discriminator 1
 4855 0a7a FB6D     		ldr	r3, [r7, #92]
 4856 0a7c 0133     		adds	r3, r3, #1
 4857 0a7e FB65     		str	r3, [r7, #92]
 4858 0a80 7B68     		ldr	r3, [r7, #4]
 4859 0a82 5B68     		ldr	r3, [r3, #4]
 4860 0a84 FA6D     		ldr	r2, [r7, #92]
 4861 0a86 9A42     		cmp	r2, r3
 4862 0a88 F0D3     		bcc	.L138
 4863              		.loc 1 1151 0 discriminator 4
 4864 0a8a 97F95230 		ldrsb	r3, [r7, #82]
 4865 0a8e 002B     		cmp	r3, #0
 4866 0a90 0ADA     		bge	.L141
 4867              		.loc 1 1151 0 discriminator 5
 4868 0a92 97F95210 		ldrsb	r1, [r7, #82]
 4869 0a96 07F14002 		add	r2, r7, #64
 4870 0a9a BB6D     		ldr	r3, [r7, #88]
 4871 0a9c 7868     		ldr	r0, [r7, #4]
 4872 0a9e FFF7FEFF 		bl	fix_negative
 4873 0aa2 02E0     		b	.L114
 4874              	.L140:
1115:C:/Users/dtjld/workspace/AIoT/src/LiteOS_Lab/iot_link/network/dtls/mbedtls/mbedtls-2.16.2/library\ecp_curves.c **** 
 4875              		.loc 1 1115 0 is_stmt 1
 4876 0aa4 00BF     		nop
 4877 0aa6 00E0     		b	.L114
 4878              	.L141:
1152:C:/Users/dtjld/workspace/AIoT/src/LiteOS_Lab/iot_link/network/dtls/mbedtls/mbedtls-2.16.2/library\ecp_curves.c **** 
1153:C:/Users/dtjld/workspace/AIoT/src/LiteOS_Lab/iot_link/network/dtls/mbedtls/mbedtls-2.16.2/library\ecp_curves.c **** cleanup:
 4879              		.loc 1 1153 0
 4880 0aa8 00BF     		nop
 4881              	.L114:
1154:C:/Users/dtjld/workspace/AIoT/src/LiteOS_Lab/iot_link/network/dtls/mbedtls/mbedtls-2.16.2/library\ecp_curves.c ****     return( ret );
 4882              		.loc 1 1154 0
 4883 0aaa 7B6D     		ldr	r3, [r7, #84]
1155:C:/Users/dtjld/workspace/AIoT/src/LiteOS_Lab/iot_link/network/dtls/mbedtls/mbedtls-2.16.2/library\ecp_curves.c **** }
 4884              		.loc 1 1155 0
 4885 0aac 1846     		mov	r0, r3
 4886 0aae 6037     		adds	r7, r7, #96
 4887              	.LCFI74:
 4888              		.cfi_def_cfa_offset 8
 4889 0ab0 BD46     		mov	sp, r7
 4890              	.LCFI75:
 4891              		.cfi_def_cfa_register 13
 4892              		@ sp needed
 4893 0ab2 80BD     		pop	{r7, pc}
 4894              		.cfi_endproc
 4895              	.LFE13:
 4897              		.section	.text.ecp_mod_p521,"ax",%progbits
 4898              		.align	1
 4899              		.syntax unified
 4900              		.thumb
 4901              		.thumb_func
ARM GAS  C:\Users\dtjld\AppData\Local\Temp\ccEzFpLd.s 			page 105


 4902              		.fpu fpv4-sp-d16
 4904              	ecp_mod_p521:
 4905              	.LFB14:
1156:C:/Users/dtjld/workspace/AIoT/src/LiteOS_Lab/iot_link/network/dtls/mbedtls/mbedtls-2.16.2/library\ecp_curves.c **** #endif /* MBEDTLS_ECP_DP_SECP384R1_ENABLED */
1157:C:/Users/dtjld/workspace/AIoT/src/LiteOS_Lab/iot_link/network/dtls/mbedtls/mbedtls-2.16.2/library\ecp_curves.c **** 
1158:C:/Users/dtjld/workspace/AIoT/src/LiteOS_Lab/iot_link/network/dtls/mbedtls/mbedtls-2.16.2/library\ecp_curves.c **** #undef A
1159:C:/Users/dtjld/workspace/AIoT/src/LiteOS_Lab/iot_link/network/dtls/mbedtls/mbedtls-2.16.2/library\ecp_curves.c **** #undef LOAD32
1160:C:/Users/dtjld/workspace/AIoT/src/LiteOS_Lab/iot_link/network/dtls/mbedtls/mbedtls-2.16.2/library\ecp_curves.c **** #undef STORE32
1161:C:/Users/dtjld/workspace/AIoT/src/LiteOS_Lab/iot_link/network/dtls/mbedtls/mbedtls-2.16.2/library\ecp_curves.c **** #undef MAX32
1162:C:/Users/dtjld/workspace/AIoT/src/LiteOS_Lab/iot_link/network/dtls/mbedtls/mbedtls-2.16.2/library\ecp_curves.c **** #undef INIT
1163:C:/Users/dtjld/workspace/AIoT/src/LiteOS_Lab/iot_link/network/dtls/mbedtls/mbedtls-2.16.2/library\ecp_curves.c **** #undef NEXT
1164:C:/Users/dtjld/workspace/AIoT/src/LiteOS_Lab/iot_link/network/dtls/mbedtls/mbedtls-2.16.2/library\ecp_curves.c **** #undef LAST
1165:C:/Users/dtjld/workspace/AIoT/src/LiteOS_Lab/iot_link/network/dtls/mbedtls/mbedtls-2.16.2/library\ecp_curves.c **** 
1166:C:/Users/dtjld/workspace/AIoT/src/LiteOS_Lab/iot_link/network/dtls/mbedtls/mbedtls-2.16.2/library\ecp_curves.c **** #endif /* MBEDTLS_ECP_DP_SECP224R1_ENABLED ||
1167:C:/Users/dtjld/workspace/AIoT/src/LiteOS_Lab/iot_link/network/dtls/mbedtls/mbedtls-2.16.2/library\ecp_curves.c ****           MBEDTLS_ECP_DP_SECP256R1_ENABLED ||
1168:C:/Users/dtjld/workspace/AIoT/src/LiteOS_Lab/iot_link/network/dtls/mbedtls/mbedtls-2.16.2/library\ecp_curves.c ****           MBEDTLS_ECP_DP_SECP384R1_ENABLED */
1169:C:/Users/dtjld/workspace/AIoT/src/LiteOS_Lab/iot_link/network/dtls/mbedtls/mbedtls-2.16.2/library\ecp_curves.c **** 
1170:C:/Users/dtjld/workspace/AIoT/src/LiteOS_Lab/iot_link/network/dtls/mbedtls/mbedtls-2.16.2/library\ecp_curves.c **** #if defined(MBEDTLS_ECP_DP_SECP521R1_ENABLED)
1171:C:/Users/dtjld/workspace/AIoT/src/LiteOS_Lab/iot_link/network/dtls/mbedtls/mbedtls-2.16.2/library\ecp_curves.c **** /*
1172:C:/Users/dtjld/workspace/AIoT/src/LiteOS_Lab/iot_link/network/dtls/mbedtls/mbedtls-2.16.2/library\ecp_curves.c ****  * Here we have an actual Mersenne prime, so things are more straightforward.
1173:C:/Users/dtjld/workspace/AIoT/src/LiteOS_Lab/iot_link/network/dtls/mbedtls/mbedtls-2.16.2/library\ecp_curves.c ****  * However, chunks are aligned on a 'weird' boundary (521 bits).
1174:C:/Users/dtjld/workspace/AIoT/src/LiteOS_Lab/iot_link/network/dtls/mbedtls/mbedtls-2.16.2/library\ecp_curves.c ****  */
1175:C:/Users/dtjld/workspace/AIoT/src/LiteOS_Lab/iot_link/network/dtls/mbedtls/mbedtls-2.16.2/library\ecp_curves.c **** 
1176:C:/Users/dtjld/workspace/AIoT/src/LiteOS_Lab/iot_link/network/dtls/mbedtls/mbedtls-2.16.2/library\ecp_curves.c **** /* Size of p521 in terms of mbedtls_mpi_uint */
1177:C:/Users/dtjld/workspace/AIoT/src/LiteOS_Lab/iot_link/network/dtls/mbedtls/mbedtls-2.16.2/library\ecp_curves.c **** #define P521_WIDTH      ( 521 / 8 / sizeof( mbedtls_mpi_uint ) + 1 )
1178:C:/Users/dtjld/workspace/AIoT/src/LiteOS_Lab/iot_link/network/dtls/mbedtls/mbedtls-2.16.2/library\ecp_curves.c **** 
1179:C:/Users/dtjld/workspace/AIoT/src/LiteOS_Lab/iot_link/network/dtls/mbedtls/mbedtls-2.16.2/library\ecp_curves.c **** /* Bits to keep in the most significant mbedtls_mpi_uint */
1180:C:/Users/dtjld/workspace/AIoT/src/LiteOS_Lab/iot_link/network/dtls/mbedtls/mbedtls-2.16.2/library\ecp_curves.c **** #define P521_MASK       0x01FF
1181:C:/Users/dtjld/workspace/AIoT/src/LiteOS_Lab/iot_link/network/dtls/mbedtls/mbedtls-2.16.2/library\ecp_curves.c **** 
1182:C:/Users/dtjld/workspace/AIoT/src/LiteOS_Lab/iot_link/network/dtls/mbedtls/mbedtls-2.16.2/library\ecp_curves.c **** /*
1183:C:/Users/dtjld/workspace/AIoT/src/LiteOS_Lab/iot_link/network/dtls/mbedtls/mbedtls-2.16.2/library\ecp_curves.c ****  * Fast quasi-reduction modulo p521 (FIPS 186-3 D.2.5)
1184:C:/Users/dtjld/workspace/AIoT/src/LiteOS_Lab/iot_link/network/dtls/mbedtls/mbedtls-2.16.2/library\ecp_curves.c ****  * Write N as A1 + 2^521 A0, return A0 + A1
1185:C:/Users/dtjld/workspace/AIoT/src/LiteOS_Lab/iot_link/network/dtls/mbedtls/mbedtls-2.16.2/library\ecp_curves.c ****  */
1186:C:/Users/dtjld/workspace/AIoT/src/LiteOS_Lab/iot_link/network/dtls/mbedtls/mbedtls-2.16.2/library\ecp_curves.c **** static int ecp_mod_p521( mbedtls_mpi *N )
1187:C:/Users/dtjld/workspace/AIoT/src/LiteOS_Lab/iot_link/network/dtls/mbedtls/mbedtls-2.16.2/library\ecp_curves.c **** {
 4906              		.loc 1 1187 0
 4907              		.cfi_startproc
 4908              		@ args = 0, pretend = 0, frame = 104
 4909              		@ frame_needed = 1, uses_anonymous_args = 0
 4910 0000 80B5     		push	{r7, lr}
 4911              	.LCFI76:
 4912              		.cfi_def_cfa_offset 8
 4913              		.cfi_offset 7, -8
 4914              		.cfi_offset 14, -4
 4915 0002 9AB0     		sub	sp, sp, #104
 4916              	.LCFI77:
 4917              		.cfi_def_cfa_offset 112
 4918 0004 00AF     		add	r7, sp, #0
 4919              	.LCFI78:
 4920              		.cfi_def_cfa_register 7
 4921 0006 7860     		str	r0, [r7, #4]
1188:C:/Users/dtjld/workspace/AIoT/src/LiteOS_Lab/iot_link/network/dtls/mbedtls/mbedtls-2.16.2/library\ecp_curves.c ****     int ret;
1189:C:/Users/dtjld/workspace/AIoT/src/LiteOS_Lab/iot_link/network/dtls/mbedtls/mbedtls-2.16.2/library\ecp_curves.c ****     size_t i;
1190:C:/Users/dtjld/workspace/AIoT/src/LiteOS_Lab/iot_link/network/dtls/mbedtls/mbedtls-2.16.2/library\ecp_curves.c ****     mbedtls_mpi M;
1191:C:/Users/dtjld/workspace/AIoT/src/LiteOS_Lab/iot_link/network/dtls/mbedtls/mbedtls-2.16.2/library\ecp_curves.c ****     mbedtls_mpi_uint Mp[P521_WIDTH + 1];
1192:C:/Users/dtjld/workspace/AIoT/src/LiteOS_Lab/iot_link/network/dtls/mbedtls/mbedtls-2.16.2/library\ecp_curves.c ****     /* Worst case for the size of M is when mbedtls_mpi_uint is 16 bits:
1193:C:/Users/dtjld/workspace/AIoT/src/LiteOS_Lab/iot_link/network/dtls/mbedtls/mbedtls-2.16.2/library\ecp_curves.c ****      * we need to hold bits 513 to 1056, which is 34 limbs, that is
ARM GAS  C:\Users\dtjld\AppData\Local\Temp\ccEzFpLd.s 			page 106


1194:C:/Users/dtjld/workspace/AIoT/src/LiteOS_Lab/iot_link/network/dtls/mbedtls/mbedtls-2.16.2/library\ecp_curves.c ****      * P521_WIDTH + 1. Otherwise P521_WIDTH is enough. */
1195:C:/Users/dtjld/workspace/AIoT/src/LiteOS_Lab/iot_link/network/dtls/mbedtls/mbedtls-2.16.2/library\ecp_curves.c **** 
1196:C:/Users/dtjld/workspace/AIoT/src/LiteOS_Lab/iot_link/network/dtls/mbedtls/mbedtls-2.16.2/library\ecp_curves.c ****     if( N->n < P521_WIDTH )
 4922              		.loc 1 1196 0
 4923 0008 7B68     		ldr	r3, [r7, #4]
 4924 000a 5B68     		ldr	r3, [r3, #4]
 4925 000c 102B     		cmp	r3, #16
 4926 000e 01D8     		bhi	.L143
1197:C:/Users/dtjld/workspace/AIoT/src/LiteOS_Lab/iot_link/network/dtls/mbedtls/mbedtls-2.16.2/library\ecp_curves.c ****         return( 0 );
 4927              		.loc 1 1197 0
 4928 0010 0023     		movs	r3, #0
 4929 0012 4BE0     		b	.L150
 4930              	.L143:
1198:C:/Users/dtjld/workspace/AIoT/src/LiteOS_Lab/iot_link/network/dtls/mbedtls/mbedtls-2.16.2/library\ecp_curves.c **** 
1199:C:/Users/dtjld/workspace/AIoT/src/LiteOS_Lab/iot_link/network/dtls/mbedtls/mbedtls-2.16.2/library\ecp_curves.c ****     /* M = A1 */
1200:C:/Users/dtjld/workspace/AIoT/src/LiteOS_Lab/iot_link/network/dtls/mbedtls/mbedtls-2.16.2/library\ecp_curves.c ****     M.s = 1;
 4931              		.loc 1 1200 0
 4932 0014 0123     		movs	r3, #1
 4933 0016 7B65     		str	r3, [r7, #84]
1201:C:/Users/dtjld/workspace/AIoT/src/LiteOS_Lab/iot_link/network/dtls/mbedtls/mbedtls-2.16.2/library\ecp_curves.c ****     M.n = N->n - ( P521_WIDTH - 1 );
 4934              		.loc 1 1201 0
 4935 0018 7B68     		ldr	r3, [r7, #4]
 4936 001a 5B68     		ldr	r3, [r3, #4]
 4937 001c 103B     		subs	r3, r3, #16
 4938 001e BB65     		str	r3, [r7, #88]
1202:C:/Users/dtjld/workspace/AIoT/src/LiteOS_Lab/iot_link/network/dtls/mbedtls/mbedtls-2.16.2/library\ecp_curves.c ****     if( M.n > P521_WIDTH + 1 )
 4939              		.loc 1 1202 0
 4940 0020 BB6D     		ldr	r3, [r7, #88]
 4941 0022 122B     		cmp	r3, #18
 4942 0024 01D9     		bls	.L145
1203:C:/Users/dtjld/workspace/AIoT/src/LiteOS_Lab/iot_link/network/dtls/mbedtls/mbedtls-2.16.2/library\ecp_curves.c ****         M.n = P521_WIDTH + 1;
 4943              		.loc 1 1203 0
 4944 0026 1223     		movs	r3, #18
 4945 0028 BB65     		str	r3, [r7, #88]
 4946              	.L145:
1204:C:/Users/dtjld/workspace/AIoT/src/LiteOS_Lab/iot_link/network/dtls/mbedtls/mbedtls-2.16.2/library\ecp_curves.c ****     M.p = Mp;
 4947              		.loc 1 1204 0
 4948 002a 07F10C03 		add	r3, r7, #12
 4949 002e FB65     		str	r3, [r7, #92]
1205:C:/Users/dtjld/workspace/AIoT/src/LiteOS_Lab/iot_link/network/dtls/mbedtls/mbedtls-2.16.2/library\ecp_curves.c ****     memcpy( Mp, N->p + P521_WIDTH - 1, M.n * sizeof( mbedtls_mpi_uint ) );
 4950              		.loc 1 1205 0
 4951 0030 7B68     		ldr	r3, [r7, #4]
 4952 0032 9B68     		ldr	r3, [r3, #8]
 4953 0034 03F14001 		add	r1, r3, #64
 4954 0038 BB6D     		ldr	r3, [r7, #88]
 4955 003a 9A00     		lsls	r2, r3, #2
 4956 003c 07F10C03 		add	r3, r7, #12
 4957 0040 1846     		mov	r0, r3
 4958 0042 FFF7FEFF 		bl	memcpy
1206:C:/Users/dtjld/workspace/AIoT/src/LiteOS_Lab/iot_link/network/dtls/mbedtls/mbedtls-2.16.2/library\ecp_curves.c ****     MBEDTLS_MPI_CHK( mbedtls_mpi_shift_r( &M, 521 % ( 8 * sizeof( mbedtls_mpi_uint ) ) ) );
 4959              		.loc 1 1206 0
 4960 0046 07F15403 		add	r3, r7, #84
 4961 004a 0921     		movs	r1, #9
 4962 004c 1846     		mov	r0, r3
 4963 004e FFF7FEFF 		bl	mbedtls_mpi_shift_r
 4964 0052 7866     		str	r0, [r7, #100]
 4965 0054 7B6E     		ldr	r3, [r7, #100]
ARM GAS  C:\Users\dtjld\AppData\Local\Temp\ccEzFpLd.s 			page 107


 4966 0056 002B     		cmp	r3, #0
 4967 0058 26D1     		bne	.L151
1207:C:/Users/dtjld/workspace/AIoT/src/LiteOS_Lab/iot_link/network/dtls/mbedtls/mbedtls-2.16.2/library\ecp_curves.c **** 
1208:C:/Users/dtjld/workspace/AIoT/src/LiteOS_Lab/iot_link/network/dtls/mbedtls/mbedtls-2.16.2/library\ecp_curves.c ****     /* N = A0 */
1209:C:/Users/dtjld/workspace/AIoT/src/LiteOS_Lab/iot_link/network/dtls/mbedtls/mbedtls-2.16.2/library\ecp_curves.c ****     N->p[P521_WIDTH - 1] &= P521_MASK;
 4968              		.loc 1 1209 0
 4969 005a 7B68     		ldr	r3, [r7, #4]
 4970 005c 9B68     		ldr	r3, [r3, #8]
 4971 005e 4033     		adds	r3, r3, #64
 4972 0060 1A68     		ldr	r2, [r3]
 4973 0062 7B68     		ldr	r3, [r7, #4]
 4974 0064 9B68     		ldr	r3, [r3, #8]
 4975 0066 4033     		adds	r3, r3, #64
 4976 0068 C2F30802 		ubfx	r2, r2, #0, #9
 4977 006c 1A60     		str	r2, [r3]
1210:C:/Users/dtjld/workspace/AIoT/src/LiteOS_Lab/iot_link/network/dtls/mbedtls/mbedtls-2.16.2/library\ecp_curves.c ****     for( i = P521_WIDTH; i < N->n; i++ )
 4978              		.loc 1 1210 0
 4979 006e 1123     		movs	r3, #17
 4980 0070 3B66     		str	r3, [r7, #96]
 4981 0072 09E0     		b	.L148
 4982              	.L149:
1211:C:/Users/dtjld/workspace/AIoT/src/LiteOS_Lab/iot_link/network/dtls/mbedtls/mbedtls-2.16.2/library\ecp_curves.c ****         N->p[i] = 0;
 4983              		.loc 1 1211 0 discriminator 3
 4984 0074 7B68     		ldr	r3, [r7, #4]
 4985 0076 9A68     		ldr	r2, [r3, #8]
 4986 0078 3B6E     		ldr	r3, [r7, #96]
 4987 007a 9B00     		lsls	r3, r3, #2
 4988 007c 1344     		add	r3, r3, r2
 4989 007e 0022     		movs	r2, #0
 4990 0080 1A60     		str	r2, [r3]
1210:C:/Users/dtjld/workspace/AIoT/src/LiteOS_Lab/iot_link/network/dtls/mbedtls/mbedtls-2.16.2/library\ecp_curves.c ****     for( i = P521_WIDTH; i < N->n; i++ )
 4991              		.loc 1 1210 0 discriminator 3
 4992 0082 3B6E     		ldr	r3, [r7, #96]
 4993 0084 0133     		adds	r3, r3, #1
 4994 0086 3B66     		str	r3, [r7, #96]
 4995              	.L148:
1210:C:/Users/dtjld/workspace/AIoT/src/LiteOS_Lab/iot_link/network/dtls/mbedtls/mbedtls-2.16.2/library\ecp_curves.c ****     for( i = P521_WIDTH; i < N->n; i++ )
 4996              		.loc 1 1210 0 is_stmt 0 discriminator 1
 4997 0088 7B68     		ldr	r3, [r7, #4]
 4998 008a 5B68     		ldr	r3, [r3, #4]
 4999 008c 3A6E     		ldr	r2, [r7, #96]
 5000 008e 9A42     		cmp	r2, r3
 5001 0090 F0D3     		bcc	.L149
1212:C:/Users/dtjld/workspace/AIoT/src/LiteOS_Lab/iot_link/network/dtls/mbedtls/mbedtls-2.16.2/library\ecp_curves.c **** 
1213:C:/Users/dtjld/workspace/AIoT/src/LiteOS_Lab/iot_link/network/dtls/mbedtls/mbedtls-2.16.2/library\ecp_curves.c ****     /* N = A0 + A1 */
1214:C:/Users/dtjld/workspace/AIoT/src/LiteOS_Lab/iot_link/network/dtls/mbedtls/mbedtls-2.16.2/library\ecp_curves.c ****     MBEDTLS_MPI_CHK( mbedtls_mpi_add_abs( N, N, &M ) );
 5002              		.loc 1 1214 0 is_stmt 1
 5003 0092 07F15403 		add	r3, r7, #84
 5004 0096 1A46     		mov	r2, r3
 5005 0098 7968     		ldr	r1, [r7, #4]
 5006 009a 7868     		ldr	r0, [r7, #4]
 5007 009c FFF7FEFF 		bl	mbedtls_mpi_add_abs
 5008 00a0 7866     		str	r0, [r7, #100]
 5009 00a2 7B6E     		ldr	r3, [r7, #100]
 5010 00a4 002B     		cmp	r3, #0
1215:C:/Users/dtjld/workspace/AIoT/src/LiteOS_Lab/iot_link/network/dtls/mbedtls/mbedtls-2.16.2/library\ecp_curves.c **** 
1216:C:/Users/dtjld/workspace/AIoT/src/LiteOS_Lab/iot_link/network/dtls/mbedtls/mbedtls-2.16.2/library\ecp_curves.c **** cleanup:
ARM GAS  C:\Users\dtjld\AppData\Local\Temp\ccEzFpLd.s 			page 108


 5011              		.loc 1 1216 0
 5012 00a6 00E0     		b	.L147
 5013              	.L151:
1206:C:/Users/dtjld/workspace/AIoT/src/LiteOS_Lab/iot_link/network/dtls/mbedtls/mbedtls-2.16.2/library\ecp_curves.c **** 
 5014              		.loc 1 1206 0
 5015 00a8 00BF     		nop
 5016              	.L147:
1217:C:/Users/dtjld/workspace/AIoT/src/LiteOS_Lab/iot_link/network/dtls/mbedtls/mbedtls-2.16.2/library\ecp_curves.c ****     return( ret );
 5017              		.loc 1 1217 0
 5018 00aa 7B6E     		ldr	r3, [r7, #100]
 5019              	.L150:
1218:C:/Users/dtjld/workspace/AIoT/src/LiteOS_Lab/iot_link/network/dtls/mbedtls/mbedtls-2.16.2/library\ecp_curves.c **** }
 5020              		.loc 1 1218 0 discriminator 1
 5021 00ac 1846     		mov	r0, r3
 5022 00ae 6837     		adds	r7, r7, #104
 5023              	.LCFI79:
 5024              		.cfi_def_cfa_offset 8
 5025 00b0 BD46     		mov	sp, r7
 5026              	.LCFI80:
 5027              		.cfi_def_cfa_register 13
 5028              		@ sp needed
 5029 00b2 80BD     		pop	{r7, pc}
 5030              		.cfi_endproc
 5031              	.LFE14:
 5033              		.section	.text.ecp_mod_p255,"ax",%progbits
 5034              		.align	1
 5035              		.syntax unified
 5036              		.thumb
 5037              		.thumb_func
 5038              		.fpu fpv4-sp-d16
 5040              	ecp_mod_p255:
 5041              	.LFB15:
1219:C:/Users/dtjld/workspace/AIoT/src/LiteOS_Lab/iot_link/network/dtls/mbedtls/mbedtls-2.16.2/library\ecp_curves.c **** 
1220:C:/Users/dtjld/workspace/AIoT/src/LiteOS_Lab/iot_link/network/dtls/mbedtls/mbedtls-2.16.2/library\ecp_curves.c **** #undef P521_WIDTH
1221:C:/Users/dtjld/workspace/AIoT/src/LiteOS_Lab/iot_link/network/dtls/mbedtls/mbedtls-2.16.2/library\ecp_curves.c **** #undef P521_MASK
1222:C:/Users/dtjld/workspace/AIoT/src/LiteOS_Lab/iot_link/network/dtls/mbedtls/mbedtls-2.16.2/library\ecp_curves.c **** #endif /* MBEDTLS_ECP_DP_SECP521R1_ENABLED */
1223:C:/Users/dtjld/workspace/AIoT/src/LiteOS_Lab/iot_link/network/dtls/mbedtls/mbedtls-2.16.2/library\ecp_curves.c **** 
1224:C:/Users/dtjld/workspace/AIoT/src/LiteOS_Lab/iot_link/network/dtls/mbedtls/mbedtls-2.16.2/library\ecp_curves.c **** #endif /* MBEDTLS_ECP_NIST_OPTIM */
1225:C:/Users/dtjld/workspace/AIoT/src/LiteOS_Lab/iot_link/network/dtls/mbedtls/mbedtls-2.16.2/library\ecp_curves.c **** 
1226:C:/Users/dtjld/workspace/AIoT/src/LiteOS_Lab/iot_link/network/dtls/mbedtls/mbedtls-2.16.2/library\ecp_curves.c **** #if defined(MBEDTLS_ECP_DP_CURVE25519_ENABLED)
1227:C:/Users/dtjld/workspace/AIoT/src/LiteOS_Lab/iot_link/network/dtls/mbedtls/mbedtls-2.16.2/library\ecp_curves.c **** 
1228:C:/Users/dtjld/workspace/AIoT/src/LiteOS_Lab/iot_link/network/dtls/mbedtls/mbedtls-2.16.2/library\ecp_curves.c **** /* Size of p255 in terms of mbedtls_mpi_uint */
1229:C:/Users/dtjld/workspace/AIoT/src/LiteOS_Lab/iot_link/network/dtls/mbedtls/mbedtls-2.16.2/library\ecp_curves.c **** #define P255_WIDTH      ( 255 / 8 / sizeof( mbedtls_mpi_uint ) + 1 )
1230:C:/Users/dtjld/workspace/AIoT/src/LiteOS_Lab/iot_link/network/dtls/mbedtls/mbedtls-2.16.2/library\ecp_curves.c **** 
1231:C:/Users/dtjld/workspace/AIoT/src/LiteOS_Lab/iot_link/network/dtls/mbedtls/mbedtls-2.16.2/library\ecp_curves.c **** /*
1232:C:/Users/dtjld/workspace/AIoT/src/LiteOS_Lab/iot_link/network/dtls/mbedtls/mbedtls-2.16.2/library\ecp_curves.c ****  * Fast quasi-reduction modulo p255 = 2^255 - 19
1233:C:/Users/dtjld/workspace/AIoT/src/LiteOS_Lab/iot_link/network/dtls/mbedtls/mbedtls-2.16.2/library\ecp_curves.c ****  * Write N as A0 + 2^255 A1, return A0 + 19 * A1
1234:C:/Users/dtjld/workspace/AIoT/src/LiteOS_Lab/iot_link/network/dtls/mbedtls/mbedtls-2.16.2/library\ecp_curves.c ****  */
1235:C:/Users/dtjld/workspace/AIoT/src/LiteOS_Lab/iot_link/network/dtls/mbedtls/mbedtls-2.16.2/library\ecp_curves.c **** static int ecp_mod_p255( mbedtls_mpi *N )
1236:C:/Users/dtjld/workspace/AIoT/src/LiteOS_Lab/iot_link/network/dtls/mbedtls/mbedtls-2.16.2/library\ecp_curves.c **** {
 5042              		.loc 1 1236 0
 5043              		.cfi_startproc
 5044              		@ args = 0, pretend = 0, frame = 72
 5045              		@ frame_needed = 1, uses_anonymous_args = 0
 5046 0000 80B5     		push	{r7, lr}
 5047              	.LCFI81:
 5048              		.cfi_def_cfa_offset 8
ARM GAS  C:\Users\dtjld\AppData\Local\Temp\ccEzFpLd.s 			page 109


 5049              		.cfi_offset 7, -8
 5050              		.cfi_offset 14, -4
 5051 0002 92B0     		sub	sp, sp, #72
 5052              	.LCFI82:
 5053              		.cfi_def_cfa_offset 80
 5054 0004 00AF     		add	r7, sp, #0
 5055              	.LCFI83:
 5056              		.cfi_def_cfa_register 7
 5057 0006 7860     		str	r0, [r7, #4]
1237:C:/Users/dtjld/workspace/AIoT/src/LiteOS_Lab/iot_link/network/dtls/mbedtls/mbedtls-2.16.2/library\ecp_curves.c ****     int ret;
1238:C:/Users/dtjld/workspace/AIoT/src/LiteOS_Lab/iot_link/network/dtls/mbedtls/mbedtls-2.16.2/library\ecp_curves.c ****     size_t i;
1239:C:/Users/dtjld/workspace/AIoT/src/LiteOS_Lab/iot_link/network/dtls/mbedtls/mbedtls-2.16.2/library\ecp_curves.c ****     mbedtls_mpi M;
1240:C:/Users/dtjld/workspace/AIoT/src/LiteOS_Lab/iot_link/network/dtls/mbedtls/mbedtls-2.16.2/library\ecp_curves.c ****     mbedtls_mpi_uint Mp[P255_WIDTH + 2];
1241:C:/Users/dtjld/workspace/AIoT/src/LiteOS_Lab/iot_link/network/dtls/mbedtls/mbedtls-2.16.2/library\ecp_curves.c **** 
1242:C:/Users/dtjld/workspace/AIoT/src/LiteOS_Lab/iot_link/network/dtls/mbedtls/mbedtls-2.16.2/library\ecp_curves.c ****     if( N->n < P255_WIDTH )
 5058              		.loc 1 1242 0
 5059 0008 7B68     		ldr	r3, [r7, #4]
 5060 000a 5B68     		ldr	r3, [r3, #4]
 5061 000c 072B     		cmp	r3, #7
 5062 000e 01D8     		bhi	.L153
1243:C:/Users/dtjld/workspace/AIoT/src/LiteOS_Lab/iot_link/network/dtls/mbedtls/mbedtls-2.16.2/library\ecp_curves.c ****         return( 0 );
 5063              		.loc 1 1243 0
 5064 0010 0023     		movs	r3, #0
 5065 0012 64E0     		b	.L162
 5066              	.L153:
1244:C:/Users/dtjld/workspace/AIoT/src/LiteOS_Lab/iot_link/network/dtls/mbedtls/mbedtls-2.16.2/library\ecp_curves.c **** 
1245:C:/Users/dtjld/workspace/AIoT/src/LiteOS_Lab/iot_link/network/dtls/mbedtls/mbedtls-2.16.2/library\ecp_curves.c ****     /* M = A1 */
1246:C:/Users/dtjld/workspace/AIoT/src/LiteOS_Lab/iot_link/network/dtls/mbedtls/mbedtls-2.16.2/library\ecp_curves.c ****     M.s = 1;
 5067              		.loc 1 1246 0
 5068 0014 0123     		movs	r3, #1
 5069 0016 7B63     		str	r3, [r7, #52]
1247:C:/Users/dtjld/workspace/AIoT/src/LiteOS_Lab/iot_link/network/dtls/mbedtls/mbedtls-2.16.2/library\ecp_curves.c ****     M.n = N->n - ( P255_WIDTH - 1 );
 5070              		.loc 1 1247 0
 5071 0018 7B68     		ldr	r3, [r7, #4]
 5072 001a 5B68     		ldr	r3, [r3, #4]
 5073 001c 073B     		subs	r3, r3, #7
 5074 001e BB63     		str	r3, [r7, #56]
1248:C:/Users/dtjld/workspace/AIoT/src/LiteOS_Lab/iot_link/network/dtls/mbedtls/mbedtls-2.16.2/library\ecp_curves.c ****     if( M.n > P255_WIDTH + 1 )
 5075              		.loc 1 1248 0
 5076 0020 BB6B     		ldr	r3, [r7, #56]
 5077 0022 092B     		cmp	r3, #9
 5078 0024 01D9     		bls	.L155
1249:C:/Users/dtjld/workspace/AIoT/src/LiteOS_Lab/iot_link/network/dtls/mbedtls/mbedtls-2.16.2/library\ecp_curves.c ****         return( MBEDTLS_ERR_ECP_BAD_INPUT_DATA );
 5079              		.loc 1 1249 0
 5080 0026 304B     		ldr	r3, .L166
 5081 0028 59E0     		b	.L162
 5082              	.L155:
1250:C:/Users/dtjld/workspace/AIoT/src/LiteOS_Lab/iot_link/network/dtls/mbedtls/mbedtls-2.16.2/library\ecp_curves.c ****     M.p = Mp;
 5083              		.loc 1 1250 0
 5084 002a 07F10C03 		add	r3, r7, #12
 5085 002e FB63     		str	r3, [r7, #60]
1251:C:/Users/dtjld/workspace/AIoT/src/LiteOS_Lab/iot_link/network/dtls/mbedtls/mbedtls-2.16.2/library\ecp_curves.c ****     memset( Mp, 0, sizeof Mp );
 5086              		.loc 1 1251 0
 5087 0030 07F10C03 		add	r3, r7, #12
 5088 0034 2822     		movs	r2, #40
 5089 0036 0021     		movs	r1, #0
 5090 0038 1846     		mov	r0, r3
ARM GAS  C:\Users\dtjld\AppData\Local\Temp\ccEzFpLd.s 			page 110


 5091 003a FFF7FEFF 		bl	memset
1252:C:/Users/dtjld/workspace/AIoT/src/LiteOS_Lab/iot_link/network/dtls/mbedtls/mbedtls-2.16.2/library\ecp_curves.c ****     memcpy( Mp, N->p + P255_WIDTH - 1, M.n * sizeof( mbedtls_mpi_uint ) );
 5092              		.loc 1 1252 0
 5093 003e 7B68     		ldr	r3, [r7, #4]
 5094 0040 9B68     		ldr	r3, [r3, #8]
 5095 0042 03F11C01 		add	r1, r3, #28
 5096 0046 BB6B     		ldr	r3, [r7, #56]
 5097 0048 9A00     		lsls	r2, r3, #2
 5098 004a 07F10C03 		add	r3, r7, #12
 5099 004e 1846     		mov	r0, r3
 5100 0050 FFF7FEFF 		bl	memcpy
1253:C:/Users/dtjld/workspace/AIoT/src/LiteOS_Lab/iot_link/network/dtls/mbedtls/mbedtls-2.16.2/library\ecp_curves.c ****     MBEDTLS_MPI_CHK( mbedtls_mpi_shift_r( &M, 255 % ( 8 * sizeof( mbedtls_mpi_uint ) ) ) );
 5101              		.loc 1 1253 0
 5102 0054 07F13403 		add	r3, r7, #52
 5103 0058 1F21     		movs	r1, #31
 5104 005a 1846     		mov	r0, r3
 5105 005c FFF7FEFF 		bl	mbedtls_mpi_shift_r
 5106 0060 7864     		str	r0, [r7, #68]
 5107 0062 7B6C     		ldr	r3, [r7, #68]
 5108 0064 002B     		cmp	r3, #0
 5109 0066 34D1     		bne	.L163
1254:C:/Users/dtjld/workspace/AIoT/src/LiteOS_Lab/iot_link/network/dtls/mbedtls/mbedtls-2.16.2/library\ecp_curves.c ****     M.n++; /* Make room for multiplication by 19 */
 5110              		.loc 1 1254 0
 5111 0068 BB6B     		ldr	r3, [r7, #56]
 5112 006a 0133     		adds	r3, r3, #1
 5113 006c BB63     		str	r3, [r7, #56]
1255:C:/Users/dtjld/workspace/AIoT/src/LiteOS_Lab/iot_link/network/dtls/mbedtls/mbedtls-2.16.2/library\ecp_curves.c **** 
1256:C:/Users/dtjld/workspace/AIoT/src/LiteOS_Lab/iot_link/network/dtls/mbedtls/mbedtls-2.16.2/library\ecp_curves.c ****     /* N = A0 */
1257:C:/Users/dtjld/workspace/AIoT/src/LiteOS_Lab/iot_link/network/dtls/mbedtls/mbedtls-2.16.2/library\ecp_curves.c ****     MBEDTLS_MPI_CHK( mbedtls_mpi_set_bit( N, 255, 0 ) );
 5114              		.loc 1 1257 0
 5115 006e 0022     		movs	r2, #0
 5116 0070 FF21     		movs	r1, #255
 5117 0072 7868     		ldr	r0, [r7, #4]
 5118 0074 FFF7FEFF 		bl	mbedtls_mpi_set_bit
 5119 0078 7864     		str	r0, [r7, #68]
 5120 007a 7B6C     		ldr	r3, [r7, #68]
 5121 007c 002B     		cmp	r3, #0
 5122 007e 2AD1     		bne	.L164
1258:C:/Users/dtjld/workspace/AIoT/src/LiteOS_Lab/iot_link/network/dtls/mbedtls/mbedtls-2.16.2/library\ecp_curves.c ****     for( i = P255_WIDTH; i < N->n; i++ )
 5123              		.loc 1 1258 0
 5124 0080 0823     		movs	r3, #8
 5125 0082 3B64     		str	r3, [r7, #64]
 5126 0084 09E0     		b	.L159
 5127              	.L160:
1259:C:/Users/dtjld/workspace/AIoT/src/LiteOS_Lab/iot_link/network/dtls/mbedtls/mbedtls-2.16.2/library\ecp_curves.c ****         N->p[i] = 0;
 5128              		.loc 1 1259 0 discriminator 3
 5129 0086 7B68     		ldr	r3, [r7, #4]
 5130 0088 9A68     		ldr	r2, [r3, #8]
 5131 008a 3B6C     		ldr	r3, [r7, #64]
 5132 008c 9B00     		lsls	r3, r3, #2
 5133 008e 1344     		add	r3, r3, r2
 5134 0090 0022     		movs	r2, #0
 5135 0092 1A60     		str	r2, [r3]
1258:C:/Users/dtjld/workspace/AIoT/src/LiteOS_Lab/iot_link/network/dtls/mbedtls/mbedtls-2.16.2/library\ecp_curves.c ****     for( i = P255_WIDTH; i < N->n; i++ )
 5136              		.loc 1 1258 0 discriminator 3
 5137 0094 3B6C     		ldr	r3, [r7, #64]
 5138 0096 0133     		adds	r3, r3, #1
ARM GAS  C:\Users\dtjld\AppData\Local\Temp\ccEzFpLd.s 			page 111


 5139 0098 3B64     		str	r3, [r7, #64]
 5140              	.L159:
1258:C:/Users/dtjld/workspace/AIoT/src/LiteOS_Lab/iot_link/network/dtls/mbedtls/mbedtls-2.16.2/library\ecp_curves.c ****     for( i = P255_WIDTH; i < N->n; i++ )
 5141              		.loc 1 1258 0 is_stmt 0 discriminator 1
 5142 009a 7B68     		ldr	r3, [r7, #4]
 5143 009c 5B68     		ldr	r3, [r3, #4]
 5144 009e 3A6C     		ldr	r2, [r7, #64]
 5145 00a0 9A42     		cmp	r2, r3
 5146 00a2 F0D3     		bcc	.L160
1260:C:/Users/dtjld/workspace/AIoT/src/LiteOS_Lab/iot_link/network/dtls/mbedtls/mbedtls-2.16.2/library\ecp_curves.c **** 
1261:C:/Users/dtjld/workspace/AIoT/src/LiteOS_Lab/iot_link/network/dtls/mbedtls/mbedtls-2.16.2/library\ecp_curves.c ****     /* N = A0 + 19 * A1 */
1262:C:/Users/dtjld/workspace/AIoT/src/LiteOS_Lab/iot_link/network/dtls/mbedtls/mbedtls-2.16.2/library\ecp_curves.c ****     MBEDTLS_MPI_CHK( mbedtls_mpi_mul_int( &M, &M, 19 ) );
 5147              		.loc 1 1262 0 is_stmt 1
 5148 00a4 07F13401 		add	r1, r7, #52
 5149 00a8 07F13403 		add	r3, r7, #52
 5150 00ac 1322     		movs	r2, #19
 5151 00ae 1846     		mov	r0, r3
 5152 00b0 FFF7FEFF 		bl	mbedtls_mpi_mul_int
 5153 00b4 7864     		str	r0, [r7, #68]
 5154 00b6 7B6C     		ldr	r3, [r7, #68]
 5155 00b8 002B     		cmp	r3, #0
 5156 00ba 0ED1     		bne	.L165
1263:C:/Users/dtjld/workspace/AIoT/src/LiteOS_Lab/iot_link/network/dtls/mbedtls/mbedtls-2.16.2/library\ecp_curves.c ****     MBEDTLS_MPI_CHK( mbedtls_mpi_add_abs( N, N, &M ) );
 5157              		.loc 1 1263 0
 5158 00bc 07F13403 		add	r3, r7, #52
 5159 00c0 1A46     		mov	r2, r3
 5160 00c2 7968     		ldr	r1, [r7, #4]
 5161 00c4 7868     		ldr	r0, [r7, #4]
 5162 00c6 FFF7FEFF 		bl	mbedtls_mpi_add_abs
 5163 00ca 7864     		str	r0, [r7, #68]
 5164 00cc 7B6C     		ldr	r3, [r7, #68]
 5165 00ce 002B     		cmp	r3, #0
1264:C:/Users/dtjld/workspace/AIoT/src/LiteOS_Lab/iot_link/network/dtls/mbedtls/mbedtls-2.16.2/library\ecp_curves.c **** 
1265:C:/Users/dtjld/workspace/AIoT/src/LiteOS_Lab/iot_link/network/dtls/mbedtls/mbedtls-2.16.2/library\ecp_curves.c **** cleanup:
 5166              		.loc 1 1265 0
 5167 00d0 04E0     		b	.L157
 5168              	.L163:
1253:C:/Users/dtjld/workspace/AIoT/src/LiteOS_Lab/iot_link/network/dtls/mbedtls/mbedtls-2.16.2/library\ecp_curves.c ****     M.n++; /* Make room for multiplication by 19 */
 5169              		.loc 1 1253 0
 5170 00d2 00BF     		nop
 5171 00d4 02E0     		b	.L157
 5172              	.L164:
1257:C:/Users/dtjld/workspace/AIoT/src/LiteOS_Lab/iot_link/network/dtls/mbedtls/mbedtls-2.16.2/library\ecp_curves.c ****     for( i = P255_WIDTH; i < N->n; i++ )
 5173              		.loc 1 1257 0
 5174 00d6 00BF     		nop
 5175 00d8 00E0     		b	.L157
 5176              	.L165:
1262:C:/Users/dtjld/workspace/AIoT/src/LiteOS_Lab/iot_link/network/dtls/mbedtls/mbedtls-2.16.2/library\ecp_curves.c ****     MBEDTLS_MPI_CHK( mbedtls_mpi_add_abs( N, N, &M ) );
 5177              		.loc 1 1262 0
 5178 00da 00BF     		nop
 5179              	.L157:
1266:C:/Users/dtjld/workspace/AIoT/src/LiteOS_Lab/iot_link/network/dtls/mbedtls/mbedtls-2.16.2/library\ecp_curves.c ****     return( ret );
 5180              		.loc 1 1266 0
 5181 00dc 7B6C     		ldr	r3, [r7, #68]
 5182              	.L162:
1267:C:/Users/dtjld/workspace/AIoT/src/LiteOS_Lab/iot_link/network/dtls/mbedtls/mbedtls-2.16.2/library\ecp_curves.c **** }
 5183              		.loc 1 1267 0 discriminator 1
ARM GAS  C:\Users\dtjld\AppData\Local\Temp\ccEzFpLd.s 			page 112


 5184 00de 1846     		mov	r0, r3
 5185 00e0 4837     		adds	r7, r7, #72
 5186              	.LCFI84:
 5187              		.cfi_def_cfa_offset 8
 5188 00e2 BD46     		mov	sp, r7
 5189              	.LCFI85:
 5190              		.cfi_def_cfa_register 13
 5191              		@ sp needed
 5192 00e4 80BD     		pop	{r7, pc}
 5193              	.L167:
 5194 00e6 00BF     		.align	2
 5195              	.L166:
 5196 00e8 80B0FFFF 		.word	-20352
 5197              		.cfi_endproc
 5198              	.LFE15:
 5200              		.section	.text.ecp_mod_koblitz,"ax",%progbits
 5201              		.align	1
 5202              		.syntax unified
 5203              		.thumb
 5204              		.thumb_func
 5205              		.fpu fpv4-sp-d16
 5207              	ecp_mod_koblitz:
 5208              	.LFB16:
1268:C:/Users/dtjld/workspace/AIoT/src/LiteOS_Lab/iot_link/network/dtls/mbedtls/mbedtls-2.16.2/library\ecp_curves.c **** #endif /* MBEDTLS_ECP_DP_CURVE25519_ENABLED */
1269:C:/Users/dtjld/workspace/AIoT/src/LiteOS_Lab/iot_link/network/dtls/mbedtls/mbedtls-2.16.2/library\ecp_curves.c **** 
1270:C:/Users/dtjld/workspace/AIoT/src/LiteOS_Lab/iot_link/network/dtls/mbedtls/mbedtls-2.16.2/library\ecp_curves.c **** #if defined(MBEDTLS_ECP_DP_CURVE448_ENABLED)
1271:C:/Users/dtjld/workspace/AIoT/src/LiteOS_Lab/iot_link/network/dtls/mbedtls/mbedtls-2.16.2/library\ecp_curves.c **** 
1272:C:/Users/dtjld/workspace/AIoT/src/LiteOS_Lab/iot_link/network/dtls/mbedtls/mbedtls-2.16.2/library\ecp_curves.c **** /* Size of p448 in terms of mbedtls_mpi_uint */
1273:C:/Users/dtjld/workspace/AIoT/src/LiteOS_Lab/iot_link/network/dtls/mbedtls/mbedtls-2.16.2/library\ecp_curves.c **** #define P448_WIDTH      ( 448 / 8 / sizeof( mbedtls_mpi_uint ) )
1274:C:/Users/dtjld/workspace/AIoT/src/LiteOS_Lab/iot_link/network/dtls/mbedtls/mbedtls-2.16.2/library\ecp_curves.c **** 
1275:C:/Users/dtjld/workspace/AIoT/src/LiteOS_Lab/iot_link/network/dtls/mbedtls/mbedtls-2.16.2/library\ecp_curves.c **** /* Number of limbs fully occupied by 2^224 (max), and limbs used by it (min) */
1276:C:/Users/dtjld/workspace/AIoT/src/LiteOS_Lab/iot_link/network/dtls/mbedtls/mbedtls-2.16.2/library\ecp_curves.c **** #define DIV_ROUND_UP( X, Y ) ( ( ( X ) + ( Y ) - 1 ) / ( Y ) )
1277:C:/Users/dtjld/workspace/AIoT/src/LiteOS_Lab/iot_link/network/dtls/mbedtls/mbedtls-2.16.2/library\ecp_curves.c **** #define P224_WIDTH_MIN   ( 28 / sizeof( mbedtls_mpi_uint ) )
1278:C:/Users/dtjld/workspace/AIoT/src/LiteOS_Lab/iot_link/network/dtls/mbedtls/mbedtls-2.16.2/library\ecp_curves.c **** #define P224_WIDTH_MAX   DIV_ROUND_UP( 28, sizeof( mbedtls_mpi_uint ) )
1279:C:/Users/dtjld/workspace/AIoT/src/LiteOS_Lab/iot_link/network/dtls/mbedtls/mbedtls-2.16.2/library\ecp_curves.c **** #define P224_UNUSED_BITS ( ( P224_WIDTH_MAX * sizeof( mbedtls_mpi_uint ) * 8 ) - 224 )
1280:C:/Users/dtjld/workspace/AIoT/src/LiteOS_Lab/iot_link/network/dtls/mbedtls/mbedtls-2.16.2/library\ecp_curves.c **** 
1281:C:/Users/dtjld/workspace/AIoT/src/LiteOS_Lab/iot_link/network/dtls/mbedtls/mbedtls-2.16.2/library\ecp_curves.c **** /*
1282:C:/Users/dtjld/workspace/AIoT/src/LiteOS_Lab/iot_link/network/dtls/mbedtls/mbedtls-2.16.2/library\ecp_curves.c ****  * Fast quasi-reduction modulo p448 = 2^448 - 2^224 - 1
1283:C:/Users/dtjld/workspace/AIoT/src/LiteOS_Lab/iot_link/network/dtls/mbedtls/mbedtls-2.16.2/library\ecp_curves.c ****  * Write N as A0 + 2^448 A1 and A1 as B0 + 2^224 B1, and return
1284:C:/Users/dtjld/workspace/AIoT/src/LiteOS_Lab/iot_link/network/dtls/mbedtls/mbedtls-2.16.2/library\ecp_curves.c ****  * A0 + A1 + B1 + (B0 + B1) * 2^224.  This is different to the reference
1285:C:/Users/dtjld/workspace/AIoT/src/LiteOS_Lab/iot_link/network/dtls/mbedtls/mbedtls-2.16.2/library\ecp_curves.c ****  * implementation of Curve448, which uses its own special 56-bit limbs rather
1286:C:/Users/dtjld/workspace/AIoT/src/LiteOS_Lab/iot_link/network/dtls/mbedtls/mbedtls-2.16.2/library\ecp_curves.c ****  * than a generic bignum library.  We could squeeze some extra speed out on
1287:C:/Users/dtjld/workspace/AIoT/src/LiteOS_Lab/iot_link/network/dtls/mbedtls/mbedtls-2.16.2/library\ecp_curves.c ****  * 32-bit machines by splitting N up into 32-bit limbs and doing the
1288:C:/Users/dtjld/workspace/AIoT/src/LiteOS_Lab/iot_link/network/dtls/mbedtls/mbedtls-2.16.2/library\ecp_curves.c ****  * arithmetic using the limbs directly as we do for the NIST primes above,
1289:C:/Users/dtjld/workspace/AIoT/src/LiteOS_Lab/iot_link/network/dtls/mbedtls/mbedtls-2.16.2/library\ecp_curves.c ****  * but for 64-bit targets it should use half the number of operations if we do
1290:C:/Users/dtjld/workspace/AIoT/src/LiteOS_Lab/iot_link/network/dtls/mbedtls/mbedtls-2.16.2/library\ecp_curves.c ****  * the reduction with 224-bit limbs, since mpi_add_mpi will then use 64-bit adds.
1291:C:/Users/dtjld/workspace/AIoT/src/LiteOS_Lab/iot_link/network/dtls/mbedtls/mbedtls-2.16.2/library\ecp_curves.c ****  */
1292:C:/Users/dtjld/workspace/AIoT/src/LiteOS_Lab/iot_link/network/dtls/mbedtls/mbedtls-2.16.2/library\ecp_curves.c **** static int ecp_mod_p448( mbedtls_mpi *N )
1293:C:/Users/dtjld/workspace/AIoT/src/LiteOS_Lab/iot_link/network/dtls/mbedtls/mbedtls-2.16.2/library\ecp_curves.c **** {
1294:C:/Users/dtjld/workspace/AIoT/src/LiteOS_Lab/iot_link/network/dtls/mbedtls/mbedtls-2.16.2/library\ecp_curves.c ****     int ret;
1295:C:/Users/dtjld/workspace/AIoT/src/LiteOS_Lab/iot_link/network/dtls/mbedtls/mbedtls-2.16.2/library\ecp_curves.c ****     size_t i;
1296:C:/Users/dtjld/workspace/AIoT/src/LiteOS_Lab/iot_link/network/dtls/mbedtls/mbedtls-2.16.2/library\ecp_curves.c ****     mbedtls_mpi M, Q;
1297:C:/Users/dtjld/workspace/AIoT/src/LiteOS_Lab/iot_link/network/dtls/mbedtls/mbedtls-2.16.2/library\ecp_curves.c ****     mbedtls_mpi_uint Mp[P448_WIDTH + 1], Qp[P448_WIDTH];
1298:C:/Users/dtjld/workspace/AIoT/src/LiteOS_Lab/iot_link/network/dtls/mbedtls/mbedtls-2.16.2/library\ecp_curves.c **** 
1299:C:/Users/dtjld/workspace/AIoT/src/LiteOS_Lab/iot_link/network/dtls/mbedtls/mbedtls-2.16.2/library\ecp_curves.c ****     if( N->n <= P448_WIDTH )
1300:C:/Users/dtjld/workspace/AIoT/src/LiteOS_Lab/iot_link/network/dtls/mbedtls/mbedtls-2.16.2/library\ecp_curves.c ****         return( 0 );
1301:C:/Users/dtjld/workspace/AIoT/src/LiteOS_Lab/iot_link/network/dtls/mbedtls/mbedtls-2.16.2/library\ecp_curves.c **** 
ARM GAS  C:\Users\dtjld\AppData\Local\Temp\ccEzFpLd.s 			page 113


1302:C:/Users/dtjld/workspace/AIoT/src/LiteOS_Lab/iot_link/network/dtls/mbedtls/mbedtls-2.16.2/library\ecp_curves.c ****     /* M = A1 */
1303:C:/Users/dtjld/workspace/AIoT/src/LiteOS_Lab/iot_link/network/dtls/mbedtls/mbedtls-2.16.2/library\ecp_curves.c ****     M.s = 1;
1304:C:/Users/dtjld/workspace/AIoT/src/LiteOS_Lab/iot_link/network/dtls/mbedtls/mbedtls-2.16.2/library\ecp_curves.c ****     M.n = N->n - ( P448_WIDTH );
1305:C:/Users/dtjld/workspace/AIoT/src/LiteOS_Lab/iot_link/network/dtls/mbedtls/mbedtls-2.16.2/library\ecp_curves.c ****     if( M.n > P448_WIDTH )
1306:C:/Users/dtjld/workspace/AIoT/src/LiteOS_Lab/iot_link/network/dtls/mbedtls/mbedtls-2.16.2/library\ecp_curves.c ****         /* Shouldn't be called with N larger than 2^896! */
1307:C:/Users/dtjld/workspace/AIoT/src/LiteOS_Lab/iot_link/network/dtls/mbedtls/mbedtls-2.16.2/library\ecp_curves.c ****         return( MBEDTLS_ERR_ECP_BAD_INPUT_DATA );
1308:C:/Users/dtjld/workspace/AIoT/src/LiteOS_Lab/iot_link/network/dtls/mbedtls/mbedtls-2.16.2/library\ecp_curves.c ****     M.p = Mp;
1309:C:/Users/dtjld/workspace/AIoT/src/LiteOS_Lab/iot_link/network/dtls/mbedtls/mbedtls-2.16.2/library\ecp_curves.c ****     memset( Mp, 0, sizeof( Mp ) );
1310:C:/Users/dtjld/workspace/AIoT/src/LiteOS_Lab/iot_link/network/dtls/mbedtls/mbedtls-2.16.2/library\ecp_curves.c ****     memcpy( Mp, N->p + P448_WIDTH, M.n * sizeof( mbedtls_mpi_uint ) );
1311:C:/Users/dtjld/workspace/AIoT/src/LiteOS_Lab/iot_link/network/dtls/mbedtls/mbedtls-2.16.2/library\ecp_curves.c **** 
1312:C:/Users/dtjld/workspace/AIoT/src/LiteOS_Lab/iot_link/network/dtls/mbedtls/mbedtls-2.16.2/library\ecp_curves.c ****     /* N = A0 */
1313:C:/Users/dtjld/workspace/AIoT/src/LiteOS_Lab/iot_link/network/dtls/mbedtls/mbedtls-2.16.2/library\ecp_curves.c ****     for( i = P448_WIDTH; i < N->n; i++ )
1314:C:/Users/dtjld/workspace/AIoT/src/LiteOS_Lab/iot_link/network/dtls/mbedtls/mbedtls-2.16.2/library\ecp_curves.c ****         N->p[i] = 0;
1315:C:/Users/dtjld/workspace/AIoT/src/LiteOS_Lab/iot_link/network/dtls/mbedtls/mbedtls-2.16.2/library\ecp_curves.c **** 
1316:C:/Users/dtjld/workspace/AIoT/src/LiteOS_Lab/iot_link/network/dtls/mbedtls/mbedtls-2.16.2/library\ecp_curves.c ****     /* N += A1 */
1317:C:/Users/dtjld/workspace/AIoT/src/LiteOS_Lab/iot_link/network/dtls/mbedtls/mbedtls-2.16.2/library\ecp_curves.c ****     MBEDTLS_MPI_CHK( mbedtls_mpi_add_mpi( N, N, &M ) );
1318:C:/Users/dtjld/workspace/AIoT/src/LiteOS_Lab/iot_link/network/dtls/mbedtls/mbedtls-2.16.2/library\ecp_curves.c **** 
1319:C:/Users/dtjld/workspace/AIoT/src/LiteOS_Lab/iot_link/network/dtls/mbedtls/mbedtls-2.16.2/library\ecp_curves.c ****     /* Q = B1, N += B1 */
1320:C:/Users/dtjld/workspace/AIoT/src/LiteOS_Lab/iot_link/network/dtls/mbedtls/mbedtls-2.16.2/library\ecp_curves.c ****     Q = M;
1321:C:/Users/dtjld/workspace/AIoT/src/LiteOS_Lab/iot_link/network/dtls/mbedtls/mbedtls-2.16.2/library\ecp_curves.c ****     Q.p = Qp;
1322:C:/Users/dtjld/workspace/AIoT/src/LiteOS_Lab/iot_link/network/dtls/mbedtls/mbedtls-2.16.2/library\ecp_curves.c ****     memcpy( Qp, Mp, sizeof( Qp ) );
1323:C:/Users/dtjld/workspace/AIoT/src/LiteOS_Lab/iot_link/network/dtls/mbedtls/mbedtls-2.16.2/library\ecp_curves.c ****     MBEDTLS_MPI_CHK( mbedtls_mpi_shift_r( &Q, 224 ) );
1324:C:/Users/dtjld/workspace/AIoT/src/LiteOS_Lab/iot_link/network/dtls/mbedtls/mbedtls-2.16.2/library\ecp_curves.c ****     MBEDTLS_MPI_CHK( mbedtls_mpi_add_mpi( N, N, &Q ) );
1325:C:/Users/dtjld/workspace/AIoT/src/LiteOS_Lab/iot_link/network/dtls/mbedtls/mbedtls-2.16.2/library\ecp_curves.c **** 
1326:C:/Users/dtjld/workspace/AIoT/src/LiteOS_Lab/iot_link/network/dtls/mbedtls/mbedtls-2.16.2/library\ecp_curves.c ****     /* M = (B0 + B1) * 2^224, N += M */
1327:C:/Users/dtjld/workspace/AIoT/src/LiteOS_Lab/iot_link/network/dtls/mbedtls/mbedtls-2.16.2/library\ecp_curves.c ****     if( sizeof( mbedtls_mpi_uint ) > 4 )
1328:C:/Users/dtjld/workspace/AIoT/src/LiteOS_Lab/iot_link/network/dtls/mbedtls/mbedtls-2.16.2/library\ecp_curves.c ****         Mp[P224_WIDTH_MIN] &= ( (mbedtls_mpi_uint)-1 ) >> ( P224_UNUSED_BITS );
1329:C:/Users/dtjld/workspace/AIoT/src/LiteOS_Lab/iot_link/network/dtls/mbedtls/mbedtls-2.16.2/library\ecp_curves.c ****     for( i = P224_WIDTH_MAX; i < M.n; ++i )
1330:C:/Users/dtjld/workspace/AIoT/src/LiteOS_Lab/iot_link/network/dtls/mbedtls/mbedtls-2.16.2/library\ecp_curves.c ****         Mp[i] = 0;
1331:C:/Users/dtjld/workspace/AIoT/src/LiteOS_Lab/iot_link/network/dtls/mbedtls/mbedtls-2.16.2/library\ecp_curves.c ****     MBEDTLS_MPI_CHK( mbedtls_mpi_add_mpi( &M, &M, &Q ) );
1332:C:/Users/dtjld/workspace/AIoT/src/LiteOS_Lab/iot_link/network/dtls/mbedtls/mbedtls-2.16.2/library\ecp_curves.c ****     M.n = P448_WIDTH + 1; /* Make room for shifted carry bit from the addition */
1333:C:/Users/dtjld/workspace/AIoT/src/LiteOS_Lab/iot_link/network/dtls/mbedtls/mbedtls-2.16.2/library\ecp_curves.c ****     MBEDTLS_MPI_CHK( mbedtls_mpi_shift_l( &M, 224 ) );
1334:C:/Users/dtjld/workspace/AIoT/src/LiteOS_Lab/iot_link/network/dtls/mbedtls/mbedtls-2.16.2/library\ecp_curves.c ****     MBEDTLS_MPI_CHK( mbedtls_mpi_add_mpi( N, N, &M ) );
1335:C:/Users/dtjld/workspace/AIoT/src/LiteOS_Lab/iot_link/network/dtls/mbedtls/mbedtls-2.16.2/library\ecp_curves.c **** 
1336:C:/Users/dtjld/workspace/AIoT/src/LiteOS_Lab/iot_link/network/dtls/mbedtls/mbedtls-2.16.2/library\ecp_curves.c **** cleanup:
1337:C:/Users/dtjld/workspace/AIoT/src/LiteOS_Lab/iot_link/network/dtls/mbedtls/mbedtls-2.16.2/library\ecp_curves.c ****     return( ret );
1338:C:/Users/dtjld/workspace/AIoT/src/LiteOS_Lab/iot_link/network/dtls/mbedtls/mbedtls-2.16.2/library\ecp_curves.c **** }
1339:C:/Users/dtjld/workspace/AIoT/src/LiteOS_Lab/iot_link/network/dtls/mbedtls/mbedtls-2.16.2/library\ecp_curves.c **** #endif /* MBEDTLS_ECP_DP_CURVE448_ENABLED */
1340:C:/Users/dtjld/workspace/AIoT/src/LiteOS_Lab/iot_link/network/dtls/mbedtls/mbedtls-2.16.2/library\ecp_curves.c **** 
1341:C:/Users/dtjld/workspace/AIoT/src/LiteOS_Lab/iot_link/network/dtls/mbedtls/mbedtls-2.16.2/library\ecp_curves.c **** #if defined(MBEDTLS_ECP_DP_SECP192K1_ENABLED) ||   \
1342:C:/Users/dtjld/workspace/AIoT/src/LiteOS_Lab/iot_link/network/dtls/mbedtls/mbedtls-2.16.2/library\ecp_curves.c ****     defined(MBEDTLS_ECP_DP_SECP224K1_ENABLED) ||   \
1343:C:/Users/dtjld/workspace/AIoT/src/LiteOS_Lab/iot_link/network/dtls/mbedtls/mbedtls-2.16.2/library\ecp_curves.c ****     defined(MBEDTLS_ECP_DP_SECP256K1_ENABLED)
1344:C:/Users/dtjld/workspace/AIoT/src/LiteOS_Lab/iot_link/network/dtls/mbedtls/mbedtls-2.16.2/library\ecp_curves.c **** /*
1345:C:/Users/dtjld/workspace/AIoT/src/LiteOS_Lab/iot_link/network/dtls/mbedtls/mbedtls-2.16.2/library\ecp_curves.c ****  * Fast quasi-reduction modulo P = 2^s - R,
1346:C:/Users/dtjld/workspace/AIoT/src/LiteOS_Lab/iot_link/network/dtls/mbedtls/mbedtls-2.16.2/library\ecp_curves.c ****  * with R about 33 bits, used by the Koblitz curves.
1347:C:/Users/dtjld/workspace/AIoT/src/LiteOS_Lab/iot_link/network/dtls/mbedtls/mbedtls-2.16.2/library\ecp_curves.c ****  *
1348:C:/Users/dtjld/workspace/AIoT/src/LiteOS_Lab/iot_link/network/dtls/mbedtls/mbedtls-2.16.2/library\ecp_curves.c ****  * Write N as A0 + 2^224 A1, return A0 + R * A1.
1349:C:/Users/dtjld/workspace/AIoT/src/LiteOS_Lab/iot_link/network/dtls/mbedtls/mbedtls-2.16.2/library\ecp_curves.c ****  * Actually do two passes, since R is big.
1350:C:/Users/dtjld/workspace/AIoT/src/LiteOS_Lab/iot_link/network/dtls/mbedtls/mbedtls-2.16.2/library\ecp_curves.c ****  */
1351:C:/Users/dtjld/workspace/AIoT/src/LiteOS_Lab/iot_link/network/dtls/mbedtls/mbedtls-2.16.2/library\ecp_curves.c **** #define P_KOBLITZ_MAX   ( 256 / 8 / sizeof( mbedtls_mpi_uint ) )  // Max limbs in P
1352:C:/Users/dtjld/workspace/AIoT/src/LiteOS_Lab/iot_link/network/dtls/mbedtls/mbedtls-2.16.2/library\ecp_curves.c **** #define P_KOBLITZ_R     ( 8 / sizeof( mbedtls_mpi_uint ) )        // Limbs in R
1353:C:/Users/dtjld/workspace/AIoT/src/LiteOS_Lab/iot_link/network/dtls/mbedtls/mbedtls-2.16.2/library\ecp_curves.c **** static inline int ecp_mod_koblitz( mbedtls_mpi *N, mbedtls_mpi_uint *Rp, size_t p_limbs,
1354:C:/Users/dtjld/workspace/AIoT/src/LiteOS_Lab/iot_link/network/dtls/mbedtls/mbedtls-2.16.2/library\ecp_curves.c ****                                    size_t adjust, size_t shift, mbedtls_mpi_uint mask )
1355:C:/Users/dtjld/workspace/AIoT/src/LiteOS_Lab/iot_link/network/dtls/mbedtls/mbedtls-2.16.2/library\ecp_curves.c **** {
 5209              		.loc 1 1355 0
 5210              		.cfi_startproc
 5211              		@ args = 8, pretend = 0, frame = 96
ARM GAS  C:\Users\dtjld\AppData\Local\Temp\ccEzFpLd.s 			page 114


 5212              		@ frame_needed = 1, uses_anonymous_args = 0
 5213 0000 80B5     		push	{r7, lr}
 5214              	.LCFI86:
 5215              		.cfi_def_cfa_offset 8
 5216              		.cfi_offset 7, -8
 5217              		.cfi_offset 14, -4
 5218 0002 98B0     		sub	sp, sp, #96
 5219              	.LCFI87:
 5220              		.cfi_def_cfa_offset 104
 5221 0004 00AF     		add	r7, sp, #0
 5222              	.LCFI88:
 5223              		.cfi_def_cfa_register 7
 5224 0006 F860     		str	r0, [r7, #12]
 5225 0008 B960     		str	r1, [r7, #8]
 5226 000a 7A60     		str	r2, [r7, #4]
 5227 000c 3B60     		str	r3, [r7]
1356:C:/Users/dtjld/workspace/AIoT/src/LiteOS_Lab/iot_link/network/dtls/mbedtls/mbedtls-2.16.2/library\ecp_curves.c ****     int ret;
1357:C:/Users/dtjld/workspace/AIoT/src/LiteOS_Lab/iot_link/network/dtls/mbedtls/mbedtls-2.16.2/library\ecp_curves.c ****     size_t i;
1358:C:/Users/dtjld/workspace/AIoT/src/LiteOS_Lab/iot_link/network/dtls/mbedtls/mbedtls-2.16.2/library\ecp_curves.c ****     mbedtls_mpi M, R;
1359:C:/Users/dtjld/workspace/AIoT/src/LiteOS_Lab/iot_link/network/dtls/mbedtls/mbedtls-2.16.2/library\ecp_curves.c ****     mbedtls_mpi_uint Mp[P_KOBLITZ_MAX + P_KOBLITZ_R + 1];
1360:C:/Users/dtjld/workspace/AIoT/src/LiteOS_Lab/iot_link/network/dtls/mbedtls/mbedtls-2.16.2/library\ecp_curves.c **** 
1361:C:/Users/dtjld/workspace/AIoT/src/LiteOS_Lab/iot_link/network/dtls/mbedtls/mbedtls-2.16.2/library\ecp_curves.c ****     if( N->n < p_limbs )
 5228              		.loc 1 1361 0
 5229 000e FB68     		ldr	r3, [r7, #12]
 5230 0010 5B68     		ldr	r3, [r3, #4]
 5231 0012 7A68     		ldr	r2, [r7, #4]
 5232 0014 9A42     		cmp	r2, r3
 5233 0016 01D9     		bls	.L169
1362:C:/Users/dtjld/workspace/AIoT/src/LiteOS_Lab/iot_link/network/dtls/mbedtls/mbedtls-2.16.2/library\ecp_curves.c ****         return( 0 );
 5234              		.loc 1 1362 0
 5235 0018 0023     		movs	r3, #0
 5236 001a 06E1     		b	.L185
 5237              	.L169:
1363:C:/Users/dtjld/workspace/AIoT/src/LiteOS_Lab/iot_link/network/dtls/mbedtls/mbedtls-2.16.2/library\ecp_curves.c **** 
1364:C:/Users/dtjld/workspace/AIoT/src/LiteOS_Lab/iot_link/network/dtls/mbedtls/mbedtls-2.16.2/library\ecp_curves.c ****     /* Init R */
1365:C:/Users/dtjld/workspace/AIoT/src/LiteOS_Lab/iot_link/network/dtls/mbedtls/mbedtls-2.16.2/library\ecp_curves.c ****     R.s = 1;
 5238              		.loc 1 1365 0
 5239 001c 0123     		movs	r3, #1
 5240 001e 3B64     		str	r3, [r7, #64]
1366:C:/Users/dtjld/workspace/AIoT/src/LiteOS_Lab/iot_link/network/dtls/mbedtls/mbedtls-2.16.2/library\ecp_curves.c ****     R.p = Rp;
 5241              		.loc 1 1366 0
 5242 0020 BB68     		ldr	r3, [r7, #8]
 5243 0022 BB64     		str	r3, [r7, #72]
1367:C:/Users/dtjld/workspace/AIoT/src/LiteOS_Lab/iot_link/network/dtls/mbedtls/mbedtls-2.16.2/library\ecp_curves.c ****     R.n = P_KOBLITZ_R;
 5244              		.loc 1 1367 0
 5245 0024 0223     		movs	r3, #2
 5246 0026 7B64     		str	r3, [r7, #68]
1368:C:/Users/dtjld/workspace/AIoT/src/LiteOS_Lab/iot_link/network/dtls/mbedtls/mbedtls-2.16.2/library\ecp_curves.c **** 
1369:C:/Users/dtjld/workspace/AIoT/src/LiteOS_Lab/iot_link/network/dtls/mbedtls/mbedtls-2.16.2/library\ecp_curves.c ****     /* Common setup for M */
1370:C:/Users/dtjld/workspace/AIoT/src/LiteOS_Lab/iot_link/network/dtls/mbedtls/mbedtls-2.16.2/library\ecp_curves.c ****     M.s = 1;
 5247              		.loc 1 1370 0
 5248 0028 0123     		movs	r3, #1
 5249 002a FB64     		str	r3, [r7, #76]
1371:C:/Users/dtjld/workspace/AIoT/src/LiteOS_Lab/iot_link/network/dtls/mbedtls/mbedtls-2.16.2/library\ecp_curves.c ****     M.p = Mp;
 5250              		.loc 1 1371 0
 5251 002c 07F11403 		add	r3, r7, #20
 5252 0030 7B65     		str	r3, [r7, #84]
ARM GAS  C:\Users\dtjld\AppData\Local\Temp\ccEzFpLd.s 			page 115


1372:C:/Users/dtjld/workspace/AIoT/src/LiteOS_Lab/iot_link/network/dtls/mbedtls/mbedtls-2.16.2/library\ecp_curves.c **** 
1373:C:/Users/dtjld/workspace/AIoT/src/LiteOS_Lab/iot_link/network/dtls/mbedtls/mbedtls-2.16.2/library\ecp_curves.c ****     /* M = A1 */
1374:C:/Users/dtjld/workspace/AIoT/src/LiteOS_Lab/iot_link/network/dtls/mbedtls/mbedtls-2.16.2/library\ecp_curves.c ****     M.n = N->n - ( p_limbs - adjust );
 5253              		.loc 1 1374 0
 5254 0032 FB68     		ldr	r3, [r7, #12]
 5255 0034 5A68     		ldr	r2, [r3, #4]
 5256 0036 3968     		ldr	r1, [r7]
 5257 0038 7B68     		ldr	r3, [r7, #4]
 5258 003a CB1A     		subs	r3, r1, r3
 5259 003c 1344     		add	r3, r3, r2
 5260 003e 3B65     		str	r3, [r7, #80]
1375:C:/Users/dtjld/workspace/AIoT/src/LiteOS_Lab/iot_link/network/dtls/mbedtls/mbedtls-2.16.2/library\ecp_curves.c ****     if( M.n > p_limbs + adjust )
 5261              		.loc 1 1375 0
 5262 0040 3A6D     		ldr	r2, [r7, #80]
 5263 0042 7968     		ldr	r1, [r7, #4]
 5264 0044 3B68     		ldr	r3, [r7]
 5265 0046 0B44     		add	r3, r3, r1
 5266 0048 9A42     		cmp	r2, r3
 5267 004a 03D9     		bls	.L171
1376:C:/Users/dtjld/workspace/AIoT/src/LiteOS_Lab/iot_link/network/dtls/mbedtls/mbedtls-2.16.2/library\ecp_curves.c ****         M.n = p_limbs + adjust;
 5268              		.loc 1 1376 0
 5269 004c 7A68     		ldr	r2, [r7, #4]
 5270 004e 3B68     		ldr	r3, [r7]
 5271 0050 1344     		add	r3, r3, r2
 5272 0052 3B65     		str	r3, [r7, #80]
 5273              	.L171:
1377:C:/Users/dtjld/workspace/AIoT/src/LiteOS_Lab/iot_link/network/dtls/mbedtls/mbedtls-2.16.2/library\ecp_curves.c ****     memset( Mp, 0, sizeof Mp );
 5274              		.loc 1 1377 0
 5275 0054 07F11403 		add	r3, r7, #20
 5276 0058 2C22     		movs	r2, #44
 5277 005a 0021     		movs	r1, #0
 5278 005c 1846     		mov	r0, r3
 5279 005e FFF7FEFF 		bl	memset
1378:C:/Users/dtjld/workspace/AIoT/src/LiteOS_Lab/iot_link/network/dtls/mbedtls/mbedtls-2.16.2/library\ecp_curves.c ****     memcpy( Mp, N->p + p_limbs - adjust, M.n * sizeof( mbedtls_mpi_uint ) );
 5280              		.loc 1 1378 0
 5281 0062 FB68     		ldr	r3, [r7, #12]
 5282 0064 9A68     		ldr	r2, [r3, #8]
 5283 0066 7968     		ldr	r1, [r7, #4]
 5284 0068 3B68     		ldr	r3, [r7]
 5285 006a CB1A     		subs	r3, r1, r3
 5286 006c 9B00     		lsls	r3, r3, #2
 5287 006e D118     		adds	r1, r2, r3
 5288 0070 3B6D     		ldr	r3, [r7, #80]
 5289 0072 9A00     		lsls	r2, r3, #2
 5290 0074 07F11403 		add	r3, r7, #20
 5291 0078 1846     		mov	r0, r3
 5292 007a FFF7FEFF 		bl	memcpy
1379:C:/Users/dtjld/workspace/AIoT/src/LiteOS_Lab/iot_link/network/dtls/mbedtls/mbedtls-2.16.2/library\ecp_curves.c ****     if( shift != 0 )
 5293              		.loc 1 1379 0
 5294 007e BB6E     		ldr	r3, [r7, #104]
 5295 0080 002B     		cmp	r3, #0
 5296 0082 0AD0     		beq	.L172
1380:C:/Users/dtjld/workspace/AIoT/src/LiteOS_Lab/iot_link/network/dtls/mbedtls/mbedtls-2.16.2/library\ecp_curves.c ****         MBEDTLS_MPI_CHK( mbedtls_mpi_shift_r( &M, shift ) );
 5297              		.loc 1 1380 0
 5298 0084 07F14C03 		add	r3, r7, #76
 5299 0088 B96E     		ldr	r1, [r7, #104]
 5300 008a 1846     		mov	r0, r3
ARM GAS  C:\Users\dtjld\AppData\Local\Temp\ccEzFpLd.s 			page 116


 5301 008c FFF7FEFF 		bl	mbedtls_mpi_shift_r
 5302 0090 F865     		str	r0, [r7, #92]
 5303 0092 FB6D     		ldr	r3, [r7, #92]
 5304 0094 002B     		cmp	r3, #0
 5305 0096 40F0BE80 		bne	.L186
 5306              	.L172:
1381:C:/Users/dtjld/workspace/AIoT/src/LiteOS_Lab/iot_link/network/dtls/mbedtls/mbedtls-2.16.2/library\ecp_curves.c ****     M.n += R.n; /* Make room for multiplication by R */
 5307              		.loc 1 1381 0
 5308 009a 3A6D     		ldr	r2, [r7, #80]
 5309 009c 7B6C     		ldr	r3, [r7, #68]
 5310 009e 1344     		add	r3, r3, r2
 5311 00a0 3B65     		str	r3, [r7, #80]
1382:C:/Users/dtjld/workspace/AIoT/src/LiteOS_Lab/iot_link/network/dtls/mbedtls/mbedtls-2.16.2/library\ecp_curves.c **** 
1383:C:/Users/dtjld/workspace/AIoT/src/LiteOS_Lab/iot_link/network/dtls/mbedtls/mbedtls-2.16.2/library\ecp_curves.c ****     /* N = A0 */
1384:C:/Users/dtjld/workspace/AIoT/src/LiteOS_Lab/iot_link/network/dtls/mbedtls/mbedtls-2.16.2/library\ecp_curves.c ****     if( mask != 0 )
 5312              		.loc 1 1384 0
 5313 00a2 FB6E     		ldr	r3, [r7, #108]
 5314 00a4 002B     		cmp	r3, #0
 5315 00a6 13D0     		beq	.L174
1385:C:/Users/dtjld/workspace/AIoT/src/LiteOS_Lab/iot_link/network/dtls/mbedtls/mbedtls-2.16.2/library\ecp_curves.c ****         N->p[p_limbs - 1] &= mask;
 5316              		.loc 1 1385 0
 5317 00a8 FB68     		ldr	r3, [r7, #12]
 5318 00aa 9A68     		ldr	r2, [r3, #8]
 5319 00ac 7B68     		ldr	r3, [r7, #4]
 5320 00ae 03F18043 		add	r3, r3, #1073741824
 5321 00b2 013B     		subs	r3, r3, #1
 5322 00b4 9B00     		lsls	r3, r3, #2
 5323 00b6 1344     		add	r3, r3, r2
 5324 00b8 1968     		ldr	r1, [r3]
 5325 00ba FB68     		ldr	r3, [r7, #12]
 5326 00bc 9A68     		ldr	r2, [r3, #8]
 5327 00be 7B68     		ldr	r3, [r7, #4]
 5328 00c0 03F18043 		add	r3, r3, #1073741824
 5329 00c4 013B     		subs	r3, r3, #1
 5330 00c6 9B00     		lsls	r3, r3, #2
 5331 00c8 1344     		add	r3, r3, r2
 5332 00ca FA6E     		ldr	r2, [r7, #108]
 5333 00cc 0A40     		ands	r2, r2, r1
 5334 00ce 1A60     		str	r2, [r3]
 5335              	.L174:
1386:C:/Users/dtjld/workspace/AIoT/src/LiteOS_Lab/iot_link/network/dtls/mbedtls/mbedtls-2.16.2/library\ecp_curves.c ****     for( i = p_limbs; i < N->n; i++ )
 5336              		.loc 1 1386 0
 5337 00d0 7B68     		ldr	r3, [r7, #4]
 5338 00d2 BB65     		str	r3, [r7, #88]
 5339 00d4 09E0     		b	.L175
 5340              	.L176:
1387:C:/Users/dtjld/workspace/AIoT/src/LiteOS_Lab/iot_link/network/dtls/mbedtls/mbedtls-2.16.2/library\ecp_curves.c ****         N->p[i] = 0;
 5341              		.loc 1 1387 0 discriminator 3
 5342 00d6 FB68     		ldr	r3, [r7, #12]
 5343 00d8 9A68     		ldr	r2, [r3, #8]
 5344 00da BB6D     		ldr	r3, [r7, #88]
 5345 00dc 9B00     		lsls	r3, r3, #2
 5346 00de 1344     		add	r3, r3, r2
 5347 00e0 0022     		movs	r2, #0
 5348 00e2 1A60     		str	r2, [r3]
1386:C:/Users/dtjld/workspace/AIoT/src/LiteOS_Lab/iot_link/network/dtls/mbedtls/mbedtls-2.16.2/library\ecp_curves.c ****     for( i = p_limbs; i < N->n; i++ )
 5349              		.loc 1 1386 0 discriminator 3
ARM GAS  C:\Users\dtjld\AppData\Local\Temp\ccEzFpLd.s 			page 117


 5350 00e4 BB6D     		ldr	r3, [r7, #88]
 5351 00e6 0133     		adds	r3, r3, #1
 5352 00e8 BB65     		str	r3, [r7, #88]
 5353              	.L175:
1386:C:/Users/dtjld/workspace/AIoT/src/LiteOS_Lab/iot_link/network/dtls/mbedtls/mbedtls-2.16.2/library\ecp_curves.c ****     for( i = p_limbs; i < N->n; i++ )
 5354              		.loc 1 1386 0 is_stmt 0 discriminator 1
 5355 00ea FB68     		ldr	r3, [r7, #12]
 5356 00ec 5B68     		ldr	r3, [r3, #4]
 5357 00ee BA6D     		ldr	r2, [r7, #88]
 5358 00f0 9A42     		cmp	r2, r3
 5359 00f2 F0D3     		bcc	.L176
1388:C:/Users/dtjld/workspace/AIoT/src/LiteOS_Lab/iot_link/network/dtls/mbedtls/mbedtls-2.16.2/library\ecp_curves.c **** 
1389:C:/Users/dtjld/workspace/AIoT/src/LiteOS_Lab/iot_link/network/dtls/mbedtls/mbedtls-2.16.2/library\ecp_curves.c ****     /* N = A0 + R * A1 */
1390:C:/Users/dtjld/workspace/AIoT/src/LiteOS_Lab/iot_link/network/dtls/mbedtls/mbedtls-2.16.2/library\ecp_curves.c ****     MBEDTLS_MPI_CHK( mbedtls_mpi_mul_mpi( &M, &M, &R ) );
 5360              		.loc 1 1390 0 is_stmt 1
 5361 00f4 07F14002 		add	r2, r7, #64
 5362 00f8 07F14C01 		add	r1, r7, #76
 5363 00fc 07F14C03 		add	r3, r7, #76
 5364 0100 1846     		mov	r0, r3
 5365 0102 FFF7FEFF 		bl	mbedtls_mpi_mul_mpi
 5366 0106 F865     		str	r0, [r7, #92]
 5367 0108 FB6D     		ldr	r3, [r7, #92]
 5368 010a 002B     		cmp	r3, #0
 5369 010c 40F08580 		bne	.L187
1391:C:/Users/dtjld/workspace/AIoT/src/LiteOS_Lab/iot_link/network/dtls/mbedtls/mbedtls-2.16.2/library\ecp_curves.c ****     MBEDTLS_MPI_CHK( mbedtls_mpi_add_abs( N, N, &M ) );
 5370              		.loc 1 1391 0
 5371 0110 07F14C03 		add	r3, r7, #76
 5372 0114 1A46     		mov	r2, r3
 5373 0116 F968     		ldr	r1, [r7, #12]
 5374 0118 F868     		ldr	r0, [r7, #12]
 5375 011a FFF7FEFF 		bl	mbedtls_mpi_add_abs
 5376 011e F865     		str	r0, [r7, #92]
 5377 0120 FB6D     		ldr	r3, [r7, #92]
 5378 0122 002B     		cmp	r3, #0
 5379 0124 7BD1     		bne	.L188
1392:C:/Users/dtjld/workspace/AIoT/src/LiteOS_Lab/iot_link/network/dtls/mbedtls/mbedtls-2.16.2/library\ecp_curves.c **** 
1393:C:/Users/dtjld/workspace/AIoT/src/LiteOS_Lab/iot_link/network/dtls/mbedtls/mbedtls-2.16.2/library\ecp_curves.c ****     /* Second pass */
1394:C:/Users/dtjld/workspace/AIoT/src/LiteOS_Lab/iot_link/network/dtls/mbedtls/mbedtls-2.16.2/library\ecp_curves.c **** 
1395:C:/Users/dtjld/workspace/AIoT/src/LiteOS_Lab/iot_link/network/dtls/mbedtls/mbedtls-2.16.2/library\ecp_curves.c ****     /* M = A1 */
1396:C:/Users/dtjld/workspace/AIoT/src/LiteOS_Lab/iot_link/network/dtls/mbedtls/mbedtls-2.16.2/library\ecp_curves.c ****     M.n = N->n - ( p_limbs - adjust );
 5380              		.loc 1 1396 0
 5381 0126 FB68     		ldr	r3, [r7, #12]
 5382 0128 5A68     		ldr	r2, [r3, #4]
 5383 012a 3968     		ldr	r1, [r7]
 5384 012c 7B68     		ldr	r3, [r7, #4]
 5385 012e CB1A     		subs	r3, r1, r3
 5386 0130 1344     		add	r3, r3, r2
 5387 0132 3B65     		str	r3, [r7, #80]
1397:C:/Users/dtjld/workspace/AIoT/src/LiteOS_Lab/iot_link/network/dtls/mbedtls/mbedtls-2.16.2/library\ecp_curves.c ****     if( M.n > p_limbs + adjust )
 5388              		.loc 1 1397 0
 5389 0134 3A6D     		ldr	r2, [r7, #80]
 5390 0136 7968     		ldr	r1, [r7, #4]
 5391 0138 3B68     		ldr	r3, [r7]
 5392 013a 0B44     		add	r3, r3, r1
 5393 013c 9A42     		cmp	r2, r3
 5394 013e 03D9     		bls	.L179
1398:C:/Users/dtjld/workspace/AIoT/src/LiteOS_Lab/iot_link/network/dtls/mbedtls/mbedtls-2.16.2/library\ecp_curves.c ****         M.n = p_limbs + adjust;
ARM GAS  C:\Users\dtjld\AppData\Local\Temp\ccEzFpLd.s 			page 118


 5395              		.loc 1 1398 0
 5396 0140 7A68     		ldr	r2, [r7, #4]
 5397 0142 3B68     		ldr	r3, [r7]
 5398 0144 1344     		add	r3, r3, r2
 5399 0146 3B65     		str	r3, [r7, #80]
 5400              	.L179:
1399:C:/Users/dtjld/workspace/AIoT/src/LiteOS_Lab/iot_link/network/dtls/mbedtls/mbedtls-2.16.2/library\ecp_curves.c ****     memset( Mp, 0, sizeof Mp );
 5401              		.loc 1 1399 0
 5402 0148 07F11403 		add	r3, r7, #20
 5403 014c 2C22     		movs	r2, #44
 5404 014e 0021     		movs	r1, #0
 5405 0150 1846     		mov	r0, r3
 5406 0152 FFF7FEFF 		bl	memset
1400:C:/Users/dtjld/workspace/AIoT/src/LiteOS_Lab/iot_link/network/dtls/mbedtls/mbedtls-2.16.2/library\ecp_curves.c ****     memcpy( Mp, N->p + p_limbs - adjust, M.n * sizeof( mbedtls_mpi_uint ) );
 5407              		.loc 1 1400 0
 5408 0156 FB68     		ldr	r3, [r7, #12]
 5409 0158 9A68     		ldr	r2, [r3, #8]
 5410 015a 7968     		ldr	r1, [r7, #4]
 5411 015c 3B68     		ldr	r3, [r7]
 5412 015e CB1A     		subs	r3, r1, r3
 5413 0160 9B00     		lsls	r3, r3, #2
 5414 0162 D118     		adds	r1, r2, r3
 5415 0164 3B6D     		ldr	r3, [r7, #80]
 5416 0166 9A00     		lsls	r2, r3, #2
 5417 0168 07F11403 		add	r3, r7, #20
 5418 016c 1846     		mov	r0, r3
 5419 016e FFF7FEFF 		bl	memcpy
1401:C:/Users/dtjld/workspace/AIoT/src/LiteOS_Lab/iot_link/network/dtls/mbedtls/mbedtls-2.16.2/library\ecp_curves.c ****     if( shift != 0 )
 5420              		.loc 1 1401 0
 5421 0172 BB6E     		ldr	r3, [r7, #104]
 5422 0174 002B     		cmp	r3, #0
 5423 0176 09D0     		beq	.L180
1402:C:/Users/dtjld/workspace/AIoT/src/LiteOS_Lab/iot_link/network/dtls/mbedtls/mbedtls-2.16.2/library\ecp_curves.c ****         MBEDTLS_MPI_CHK( mbedtls_mpi_shift_r( &M, shift ) );
 5424              		.loc 1 1402 0
 5425 0178 07F14C03 		add	r3, r7, #76
 5426 017c B96E     		ldr	r1, [r7, #104]
 5427 017e 1846     		mov	r0, r3
 5428 0180 FFF7FEFF 		bl	mbedtls_mpi_shift_r
 5429 0184 F865     		str	r0, [r7, #92]
 5430 0186 FB6D     		ldr	r3, [r7, #92]
 5431 0188 002B     		cmp	r3, #0
 5432 018a 4AD1     		bne	.L189
 5433              	.L180:
1403:C:/Users/dtjld/workspace/AIoT/src/LiteOS_Lab/iot_link/network/dtls/mbedtls/mbedtls-2.16.2/library\ecp_curves.c ****     M.n += R.n; /* Make room for multiplication by R */
 5434              		.loc 1 1403 0
 5435 018c 3A6D     		ldr	r2, [r7, #80]
 5436 018e 7B6C     		ldr	r3, [r7, #68]
 5437 0190 1344     		add	r3, r3, r2
 5438 0192 3B65     		str	r3, [r7, #80]
1404:C:/Users/dtjld/workspace/AIoT/src/LiteOS_Lab/iot_link/network/dtls/mbedtls/mbedtls-2.16.2/library\ecp_curves.c **** 
1405:C:/Users/dtjld/workspace/AIoT/src/LiteOS_Lab/iot_link/network/dtls/mbedtls/mbedtls-2.16.2/library\ecp_curves.c ****     /* N = A0 */
1406:C:/Users/dtjld/workspace/AIoT/src/LiteOS_Lab/iot_link/network/dtls/mbedtls/mbedtls-2.16.2/library\ecp_curves.c ****     if( mask != 0 )
 5439              		.loc 1 1406 0
 5440 0194 FB6E     		ldr	r3, [r7, #108]
 5441 0196 002B     		cmp	r3, #0
 5442 0198 13D0     		beq	.L181
1407:C:/Users/dtjld/workspace/AIoT/src/LiteOS_Lab/iot_link/network/dtls/mbedtls/mbedtls-2.16.2/library\ecp_curves.c ****         N->p[p_limbs - 1] &= mask;
ARM GAS  C:\Users\dtjld\AppData\Local\Temp\ccEzFpLd.s 			page 119


 5443              		.loc 1 1407 0
 5444 019a FB68     		ldr	r3, [r7, #12]
 5445 019c 9A68     		ldr	r2, [r3, #8]
 5446 019e 7B68     		ldr	r3, [r7, #4]
 5447 01a0 03F18043 		add	r3, r3, #1073741824
 5448 01a4 013B     		subs	r3, r3, #1
 5449 01a6 9B00     		lsls	r3, r3, #2
 5450 01a8 1344     		add	r3, r3, r2
 5451 01aa 1968     		ldr	r1, [r3]
 5452 01ac FB68     		ldr	r3, [r7, #12]
 5453 01ae 9A68     		ldr	r2, [r3, #8]
 5454 01b0 7B68     		ldr	r3, [r7, #4]
 5455 01b2 03F18043 		add	r3, r3, #1073741824
 5456 01b6 013B     		subs	r3, r3, #1
 5457 01b8 9B00     		lsls	r3, r3, #2
 5458 01ba 1344     		add	r3, r3, r2
 5459 01bc FA6E     		ldr	r2, [r7, #108]
 5460 01be 0A40     		ands	r2, r2, r1
 5461 01c0 1A60     		str	r2, [r3]
 5462              	.L181:
1408:C:/Users/dtjld/workspace/AIoT/src/LiteOS_Lab/iot_link/network/dtls/mbedtls/mbedtls-2.16.2/library\ecp_curves.c ****     for( i = p_limbs; i < N->n; i++ )
 5463              		.loc 1 1408 0
 5464 01c2 7B68     		ldr	r3, [r7, #4]
 5465 01c4 BB65     		str	r3, [r7, #88]
 5466 01c6 09E0     		b	.L182
 5467              	.L183:
1409:C:/Users/dtjld/workspace/AIoT/src/LiteOS_Lab/iot_link/network/dtls/mbedtls/mbedtls-2.16.2/library\ecp_curves.c ****         N->p[i] = 0;
 5468              		.loc 1 1409 0 discriminator 3
 5469 01c8 FB68     		ldr	r3, [r7, #12]
 5470 01ca 9A68     		ldr	r2, [r3, #8]
 5471 01cc BB6D     		ldr	r3, [r7, #88]
 5472 01ce 9B00     		lsls	r3, r3, #2
 5473 01d0 1344     		add	r3, r3, r2
 5474 01d2 0022     		movs	r2, #0
 5475 01d4 1A60     		str	r2, [r3]
1408:C:/Users/dtjld/workspace/AIoT/src/LiteOS_Lab/iot_link/network/dtls/mbedtls/mbedtls-2.16.2/library\ecp_curves.c ****     for( i = p_limbs; i < N->n; i++ )
 5476              		.loc 1 1408 0 discriminator 3
 5477 01d6 BB6D     		ldr	r3, [r7, #88]
 5478 01d8 0133     		adds	r3, r3, #1
 5479 01da BB65     		str	r3, [r7, #88]
 5480              	.L182:
1408:C:/Users/dtjld/workspace/AIoT/src/LiteOS_Lab/iot_link/network/dtls/mbedtls/mbedtls-2.16.2/library\ecp_curves.c ****     for( i = p_limbs; i < N->n; i++ )
 5481              		.loc 1 1408 0 is_stmt 0 discriminator 1
 5482 01dc FB68     		ldr	r3, [r7, #12]
 5483 01de 5B68     		ldr	r3, [r3, #4]
 5484 01e0 BA6D     		ldr	r2, [r7, #88]
 5485 01e2 9A42     		cmp	r2, r3
 5486 01e4 F0D3     		bcc	.L183
1410:C:/Users/dtjld/workspace/AIoT/src/LiteOS_Lab/iot_link/network/dtls/mbedtls/mbedtls-2.16.2/library\ecp_curves.c **** 
1411:C:/Users/dtjld/workspace/AIoT/src/LiteOS_Lab/iot_link/network/dtls/mbedtls/mbedtls-2.16.2/library\ecp_curves.c ****     /* N = A0 + R * A1 */
1412:C:/Users/dtjld/workspace/AIoT/src/LiteOS_Lab/iot_link/network/dtls/mbedtls/mbedtls-2.16.2/library\ecp_curves.c ****     MBEDTLS_MPI_CHK( mbedtls_mpi_mul_mpi( &M, &M, &R ) );
 5487              		.loc 1 1412 0 is_stmt 1
 5488 01e6 07F14002 		add	r2, r7, #64
 5489 01ea 07F14C01 		add	r1, r7, #76
 5490 01ee 07F14C03 		add	r3, r7, #76
 5491 01f2 1846     		mov	r0, r3
 5492 01f4 FFF7FEFF 		bl	mbedtls_mpi_mul_mpi
ARM GAS  C:\Users\dtjld\AppData\Local\Temp\ccEzFpLd.s 			page 120


 5493 01f8 F865     		str	r0, [r7, #92]
 5494 01fa FB6D     		ldr	r3, [r7, #92]
 5495 01fc 002B     		cmp	r3, #0
 5496 01fe 12D1     		bne	.L190
1413:C:/Users/dtjld/workspace/AIoT/src/LiteOS_Lab/iot_link/network/dtls/mbedtls/mbedtls-2.16.2/library\ecp_curves.c ****     MBEDTLS_MPI_CHK( mbedtls_mpi_add_abs( N, N, &M ) );
 5497              		.loc 1 1413 0
 5498 0200 07F14C03 		add	r3, r7, #76
 5499 0204 1A46     		mov	r2, r3
 5500 0206 F968     		ldr	r1, [r7, #12]
 5501 0208 F868     		ldr	r0, [r7, #12]
 5502 020a FFF7FEFF 		bl	mbedtls_mpi_add_abs
 5503 020e F865     		str	r0, [r7, #92]
 5504 0210 FB6D     		ldr	r3, [r7, #92]
 5505 0212 002B     		cmp	r3, #0
1414:C:/Users/dtjld/workspace/AIoT/src/LiteOS_Lab/iot_link/network/dtls/mbedtls/mbedtls-2.16.2/library\ecp_curves.c **** 
1415:C:/Users/dtjld/workspace/AIoT/src/LiteOS_Lab/iot_link/network/dtls/mbedtls/mbedtls-2.16.2/library\ecp_curves.c **** cleanup:
 5506              		.loc 1 1415 0
 5507 0214 08E0     		b	.L173
 5508              	.L186:
1380:C:/Users/dtjld/workspace/AIoT/src/LiteOS_Lab/iot_link/network/dtls/mbedtls/mbedtls-2.16.2/library\ecp_curves.c ****     M.n += R.n; /* Make room for multiplication by R */
 5509              		.loc 1 1380 0
 5510 0216 00BF     		nop
 5511 0218 06E0     		b	.L173
 5512              	.L187:
1390:C:/Users/dtjld/workspace/AIoT/src/LiteOS_Lab/iot_link/network/dtls/mbedtls/mbedtls-2.16.2/library\ecp_curves.c ****     MBEDTLS_MPI_CHK( mbedtls_mpi_add_abs( N, N, &M ) );
 5513              		.loc 1 1390 0
 5514 021a 00BF     		nop
 5515 021c 04E0     		b	.L173
 5516              	.L188:
1391:C:/Users/dtjld/workspace/AIoT/src/LiteOS_Lab/iot_link/network/dtls/mbedtls/mbedtls-2.16.2/library\ecp_curves.c **** 
 5517              		.loc 1 1391 0
 5518 021e 00BF     		nop
 5519 0220 02E0     		b	.L173
 5520              	.L189:
1402:C:/Users/dtjld/workspace/AIoT/src/LiteOS_Lab/iot_link/network/dtls/mbedtls/mbedtls-2.16.2/library\ecp_curves.c ****     M.n += R.n; /* Make room for multiplication by R */
 5521              		.loc 1 1402 0
 5522 0222 00BF     		nop
 5523 0224 00E0     		b	.L173
 5524              	.L190:
1412:C:/Users/dtjld/workspace/AIoT/src/LiteOS_Lab/iot_link/network/dtls/mbedtls/mbedtls-2.16.2/library\ecp_curves.c ****     MBEDTLS_MPI_CHK( mbedtls_mpi_add_abs( N, N, &M ) );
 5525              		.loc 1 1412 0
 5526 0226 00BF     		nop
 5527              	.L173:
1416:C:/Users/dtjld/workspace/AIoT/src/LiteOS_Lab/iot_link/network/dtls/mbedtls/mbedtls-2.16.2/library\ecp_curves.c ****     return( ret );
 5528              		.loc 1 1416 0
 5529 0228 FB6D     		ldr	r3, [r7, #92]
 5530              	.L185:
1417:C:/Users/dtjld/workspace/AIoT/src/LiteOS_Lab/iot_link/network/dtls/mbedtls/mbedtls-2.16.2/library\ecp_curves.c **** }
 5531              		.loc 1 1417 0 discriminator 1
 5532 022a 1846     		mov	r0, r3
 5533 022c 6037     		adds	r7, r7, #96
 5534              	.LCFI89:
 5535              		.cfi_def_cfa_offset 8
 5536 022e BD46     		mov	sp, r7
 5537              	.LCFI90:
 5538              		.cfi_def_cfa_register 13
 5539              		@ sp needed
ARM GAS  C:\Users\dtjld\AppData\Local\Temp\ccEzFpLd.s 			page 121


 5540 0230 80BD     		pop	{r7, pc}
 5541              		.cfi_endproc
 5542              	.LFE16:
 5544              		.section	.text.ecp_mod_p192k1,"ax",%progbits
 5545              		.align	1
 5546              		.syntax unified
 5547              		.thumb
 5548              		.thumb_func
 5549              		.fpu fpv4-sp-d16
 5551              	ecp_mod_p192k1:
 5552              	.LFB17:
1418:C:/Users/dtjld/workspace/AIoT/src/LiteOS_Lab/iot_link/network/dtls/mbedtls/mbedtls-2.16.2/library\ecp_curves.c **** #endif /* MBEDTLS_ECP_DP_SECP192K1_ENABLED) ||
1419:C:/Users/dtjld/workspace/AIoT/src/LiteOS_Lab/iot_link/network/dtls/mbedtls/mbedtls-2.16.2/library\ecp_curves.c ****           MBEDTLS_ECP_DP_SECP224K1_ENABLED) ||
1420:C:/Users/dtjld/workspace/AIoT/src/LiteOS_Lab/iot_link/network/dtls/mbedtls/mbedtls-2.16.2/library\ecp_curves.c ****           MBEDTLS_ECP_DP_SECP256K1_ENABLED) */
1421:C:/Users/dtjld/workspace/AIoT/src/LiteOS_Lab/iot_link/network/dtls/mbedtls/mbedtls-2.16.2/library\ecp_curves.c **** 
1422:C:/Users/dtjld/workspace/AIoT/src/LiteOS_Lab/iot_link/network/dtls/mbedtls/mbedtls-2.16.2/library\ecp_curves.c **** #if defined(MBEDTLS_ECP_DP_SECP192K1_ENABLED)
1423:C:/Users/dtjld/workspace/AIoT/src/LiteOS_Lab/iot_link/network/dtls/mbedtls/mbedtls-2.16.2/library\ecp_curves.c **** /*
1424:C:/Users/dtjld/workspace/AIoT/src/LiteOS_Lab/iot_link/network/dtls/mbedtls/mbedtls-2.16.2/library\ecp_curves.c ****  * Fast quasi-reduction modulo p192k1 = 2^192 - R,
1425:C:/Users/dtjld/workspace/AIoT/src/LiteOS_Lab/iot_link/network/dtls/mbedtls/mbedtls-2.16.2/library\ecp_curves.c ****  * with R = 2^32 + 2^12 + 2^8 + 2^7 + 2^6 + 2^3 + 1 = 0x0100001119
1426:C:/Users/dtjld/workspace/AIoT/src/LiteOS_Lab/iot_link/network/dtls/mbedtls/mbedtls-2.16.2/library\ecp_curves.c ****  */
1427:C:/Users/dtjld/workspace/AIoT/src/LiteOS_Lab/iot_link/network/dtls/mbedtls/mbedtls-2.16.2/library\ecp_curves.c **** static int ecp_mod_p192k1( mbedtls_mpi *N )
1428:C:/Users/dtjld/workspace/AIoT/src/LiteOS_Lab/iot_link/network/dtls/mbedtls/mbedtls-2.16.2/library\ecp_curves.c **** {
 5553              		.loc 1 1428 0
 5554              		.cfi_startproc
 5555              		@ args = 0, pretend = 0, frame = 8
 5556              		@ frame_needed = 1, uses_anonymous_args = 0
 5557 0000 80B5     		push	{r7, lr}
 5558              	.LCFI91:
 5559              		.cfi_def_cfa_offset 8
 5560              		.cfi_offset 7, -8
 5561              		.cfi_offset 14, -4
 5562 0002 84B0     		sub	sp, sp, #16
 5563              	.LCFI92:
 5564              		.cfi_def_cfa_offset 24
 5565 0004 02AF     		add	r7, sp, #8
 5566              	.LCFI93:
 5567              		.cfi_def_cfa 7, 16
 5568 0006 7860     		str	r0, [r7, #4]
1429:C:/Users/dtjld/workspace/AIoT/src/LiteOS_Lab/iot_link/network/dtls/mbedtls/mbedtls-2.16.2/library\ecp_curves.c ****     static mbedtls_mpi_uint Rp[] = {
1430:C:/Users/dtjld/workspace/AIoT/src/LiteOS_Lab/iot_link/network/dtls/mbedtls/mbedtls-2.16.2/library\ecp_curves.c ****         BYTES_TO_T_UINT_8( 0xC9, 0x11, 0x00, 0x00, 0x01, 0x00, 0x00, 0x00 ) };
1431:C:/Users/dtjld/workspace/AIoT/src/LiteOS_Lab/iot_link/network/dtls/mbedtls/mbedtls-2.16.2/library\ecp_curves.c **** 
1432:C:/Users/dtjld/workspace/AIoT/src/LiteOS_Lab/iot_link/network/dtls/mbedtls/mbedtls-2.16.2/library\ecp_curves.c ****     return( ecp_mod_koblitz( N, Rp, 192 / 8 / sizeof( mbedtls_mpi_uint ), 0, 0, 0 ) );
 5569              		.loc 1 1432 0
 5570 0008 0023     		movs	r3, #0
 5571 000a 0193     		str	r3, [sp, #4]
 5572 000c 0023     		movs	r3, #0
 5573 000e 0093     		str	r3, [sp]
 5574 0010 0023     		movs	r3, #0
 5575 0012 0622     		movs	r2, #6
 5576 0014 0449     		ldr	r1, .L193
 5577 0016 7868     		ldr	r0, [r7, #4]
 5578 0018 FFF7FEFF 		bl	ecp_mod_koblitz
 5579 001c 0346     		mov	r3, r0
1433:C:/Users/dtjld/workspace/AIoT/src/LiteOS_Lab/iot_link/network/dtls/mbedtls/mbedtls-2.16.2/library\ecp_curves.c **** }
 5580              		.loc 1 1433 0
 5581 001e 1846     		mov	r0, r3
 5582 0020 0837     		adds	r7, r7, #8
ARM GAS  C:\Users\dtjld\AppData\Local\Temp\ccEzFpLd.s 			page 122


 5583              	.LCFI94:
 5584              		.cfi_def_cfa_offset 8
 5585 0022 BD46     		mov	sp, r7
 5586              	.LCFI95:
 5587              		.cfi_def_cfa_register 13
 5588              		@ sp needed
 5589 0024 80BD     		pop	{r7, pc}
 5590              	.L194:
 5591 0026 00BF     		.align	2
 5592              	.L193:
 5593 0028 00000000 		.word	Rp.6495
 5594              		.cfi_endproc
 5595              	.LFE17:
 5597              		.section	.text.ecp_mod_p224k1,"ax",%progbits
 5598              		.align	1
 5599              		.syntax unified
 5600              		.thumb
 5601              		.thumb_func
 5602              		.fpu fpv4-sp-d16
 5604              	ecp_mod_p224k1:
 5605              	.LFB18:
1434:C:/Users/dtjld/workspace/AIoT/src/LiteOS_Lab/iot_link/network/dtls/mbedtls/mbedtls-2.16.2/library\ecp_curves.c **** #endif /* MBEDTLS_ECP_DP_SECP192K1_ENABLED */
1435:C:/Users/dtjld/workspace/AIoT/src/LiteOS_Lab/iot_link/network/dtls/mbedtls/mbedtls-2.16.2/library\ecp_curves.c **** 
1436:C:/Users/dtjld/workspace/AIoT/src/LiteOS_Lab/iot_link/network/dtls/mbedtls/mbedtls-2.16.2/library\ecp_curves.c **** #if defined(MBEDTLS_ECP_DP_SECP224K1_ENABLED)
1437:C:/Users/dtjld/workspace/AIoT/src/LiteOS_Lab/iot_link/network/dtls/mbedtls/mbedtls-2.16.2/library\ecp_curves.c **** /*
1438:C:/Users/dtjld/workspace/AIoT/src/LiteOS_Lab/iot_link/network/dtls/mbedtls/mbedtls-2.16.2/library\ecp_curves.c ****  * Fast quasi-reduction modulo p224k1 = 2^224 - R,
1439:C:/Users/dtjld/workspace/AIoT/src/LiteOS_Lab/iot_link/network/dtls/mbedtls/mbedtls-2.16.2/library\ecp_curves.c ****  * with R = 2^32 + 2^12 + 2^11 + 2^9 + 2^7 + 2^4 + 2 + 1 = 0x0100001A93
1440:C:/Users/dtjld/workspace/AIoT/src/LiteOS_Lab/iot_link/network/dtls/mbedtls/mbedtls-2.16.2/library\ecp_curves.c ****  */
1441:C:/Users/dtjld/workspace/AIoT/src/LiteOS_Lab/iot_link/network/dtls/mbedtls/mbedtls-2.16.2/library\ecp_curves.c **** static int ecp_mod_p224k1( mbedtls_mpi *N )
1442:C:/Users/dtjld/workspace/AIoT/src/LiteOS_Lab/iot_link/network/dtls/mbedtls/mbedtls-2.16.2/library\ecp_curves.c **** {
 5606              		.loc 1 1442 0
 5607              		.cfi_startproc
 5608              		@ args = 0, pretend = 0, frame = 8
 5609              		@ frame_needed = 1, uses_anonymous_args = 0
 5610 0000 80B5     		push	{r7, lr}
 5611              	.LCFI96:
 5612              		.cfi_def_cfa_offset 8
 5613              		.cfi_offset 7, -8
 5614              		.cfi_offset 14, -4
 5615 0002 84B0     		sub	sp, sp, #16
 5616              	.LCFI97:
 5617              		.cfi_def_cfa_offset 24
 5618 0004 02AF     		add	r7, sp, #8
 5619              	.LCFI98:
 5620              		.cfi_def_cfa 7, 16
 5621 0006 7860     		str	r0, [r7, #4]
1443:C:/Users/dtjld/workspace/AIoT/src/LiteOS_Lab/iot_link/network/dtls/mbedtls/mbedtls-2.16.2/library\ecp_curves.c ****     static mbedtls_mpi_uint Rp[] = {
1444:C:/Users/dtjld/workspace/AIoT/src/LiteOS_Lab/iot_link/network/dtls/mbedtls/mbedtls-2.16.2/library\ecp_curves.c ****         BYTES_TO_T_UINT_8( 0x93, 0x1A, 0x00, 0x00, 0x01, 0x00, 0x00, 0x00 ) };
1445:C:/Users/dtjld/workspace/AIoT/src/LiteOS_Lab/iot_link/network/dtls/mbedtls/mbedtls-2.16.2/library\ecp_curves.c **** 
1446:C:/Users/dtjld/workspace/AIoT/src/LiteOS_Lab/iot_link/network/dtls/mbedtls/mbedtls-2.16.2/library\ecp_curves.c **** #if defined(MBEDTLS_HAVE_INT64)
1447:C:/Users/dtjld/workspace/AIoT/src/LiteOS_Lab/iot_link/network/dtls/mbedtls/mbedtls-2.16.2/library\ecp_curves.c ****     return( ecp_mod_koblitz( N, Rp, 4, 1, 32, 0xFFFFFFFF ) );
1448:C:/Users/dtjld/workspace/AIoT/src/LiteOS_Lab/iot_link/network/dtls/mbedtls/mbedtls-2.16.2/library\ecp_curves.c **** #else
1449:C:/Users/dtjld/workspace/AIoT/src/LiteOS_Lab/iot_link/network/dtls/mbedtls/mbedtls-2.16.2/library\ecp_curves.c ****     return( ecp_mod_koblitz( N, Rp, 224 / 8 / sizeof( mbedtls_mpi_uint ), 0, 0, 0 ) );
 5622              		.loc 1 1449 0
 5623 0008 0023     		movs	r3, #0
 5624 000a 0193     		str	r3, [sp, #4]
 5625 000c 0023     		movs	r3, #0
ARM GAS  C:\Users\dtjld\AppData\Local\Temp\ccEzFpLd.s 			page 123


 5626 000e 0093     		str	r3, [sp]
 5627 0010 0023     		movs	r3, #0
 5628 0012 0722     		movs	r2, #7
 5629 0014 0449     		ldr	r1, .L197
 5630 0016 7868     		ldr	r0, [r7, #4]
 5631 0018 FFF7FEFF 		bl	ecp_mod_koblitz
 5632 001c 0346     		mov	r3, r0
1450:C:/Users/dtjld/workspace/AIoT/src/LiteOS_Lab/iot_link/network/dtls/mbedtls/mbedtls-2.16.2/library\ecp_curves.c **** #endif
1451:C:/Users/dtjld/workspace/AIoT/src/LiteOS_Lab/iot_link/network/dtls/mbedtls/mbedtls-2.16.2/library\ecp_curves.c **** }
 5633              		.loc 1 1451 0
 5634 001e 1846     		mov	r0, r3
 5635 0020 0837     		adds	r7, r7, #8
 5636              	.LCFI99:
 5637              		.cfi_def_cfa_offset 8
 5638 0022 BD46     		mov	sp, r7
 5639              	.LCFI100:
 5640              		.cfi_def_cfa_register 13
 5641              		@ sp needed
 5642 0024 80BD     		pop	{r7, pc}
 5643              	.L198:
 5644 0026 00BF     		.align	2
 5645              	.L197:
 5646 0028 00000000 		.word	Rp.6499
 5647              		.cfi_endproc
 5648              	.LFE18:
 5650              		.section	.text.ecp_mod_p256k1,"ax",%progbits
 5651              		.align	1
 5652              		.syntax unified
 5653              		.thumb
 5654              		.thumb_func
 5655              		.fpu fpv4-sp-d16
 5657              	ecp_mod_p256k1:
 5658              	.LFB19:
1452:C:/Users/dtjld/workspace/AIoT/src/LiteOS_Lab/iot_link/network/dtls/mbedtls/mbedtls-2.16.2/library\ecp_curves.c **** 
1453:C:/Users/dtjld/workspace/AIoT/src/LiteOS_Lab/iot_link/network/dtls/mbedtls/mbedtls-2.16.2/library\ecp_curves.c **** #endif /* MBEDTLS_ECP_DP_SECP224K1_ENABLED */
1454:C:/Users/dtjld/workspace/AIoT/src/LiteOS_Lab/iot_link/network/dtls/mbedtls/mbedtls-2.16.2/library\ecp_curves.c **** 
1455:C:/Users/dtjld/workspace/AIoT/src/LiteOS_Lab/iot_link/network/dtls/mbedtls/mbedtls-2.16.2/library\ecp_curves.c **** #if defined(MBEDTLS_ECP_DP_SECP256K1_ENABLED)
1456:C:/Users/dtjld/workspace/AIoT/src/LiteOS_Lab/iot_link/network/dtls/mbedtls/mbedtls-2.16.2/library\ecp_curves.c **** /*
1457:C:/Users/dtjld/workspace/AIoT/src/LiteOS_Lab/iot_link/network/dtls/mbedtls/mbedtls-2.16.2/library\ecp_curves.c ****  * Fast quasi-reduction modulo p256k1 = 2^256 - R,
1458:C:/Users/dtjld/workspace/AIoT/src/LiteOS_Lab/iot_link/network/dtls/mbedtls/mbedtls-2.16.2/library\ecp_curves.c ****  * with R = 2^32 + 2^9 + 2^8 + 2^7 + 2^6 + 2^4 + 1 = 0x01000003D1
1459:C:/Users/dtjld/workspace/AIoT/src/LiteOS_Lab/iot_link/network/dtls/mbedtls/mbedtls-2.16.2/library\ecp_curves.c ****  */
1460:C:/Users/dtjld/workspace/AIoT/src/LiteOS_Lab/iot_link/network/dtls/mbedtls/mbedtls-2.16.2/library\ecp_curves.c **** static int ecp_mod_p256k1( mbedtls_mpi *N )
1461:C:/Users/dtjld/workspace/AIoT/src/LiteOS_Lab/iot_link/network/dtls/mbedtls/mbedtls-2.16.2/library\ecp_curves.c **** {
 5659              		.loc 1 1461 0
 5660              		.cfi_startproc
 5661              		@ args = 0, pretend = 0, frame = 8
 5662              		@ frame_needed = 1, uses_anonymous_args = 0
 5663 0000 80B5     		push	{r7, lr}
 5664              	.LCFI101:
 5665              		.cfi_def_cfa_offset 8
 5666              		.cfi_offset 7, -8
 5667              		.cfi_offset 14, -4
 5668 0002 84B0     		sub	sp, sp, #16
 5669              	.LCFI102:
 5670              		.cfi_def_cfa_offset 24
 5671 0004 02AF     		add	r7, sp, #8
 5672              	.LCFI103:
ARM GAS  C:\Users\dtjld\AppData\Local\Temp\ccEzFpLd.s 			page 124


 5673              		.cfi_def_cfa 7, 16
 5674 0006 7860     		str	r0, [r7, #4]
1462:C:/Users/dtjld/workspace/AIoT/src/LiteOS_Lab/iot_link/network/dtls/mbedtls/mbedtls-2.16.2/library\ecp_curves.c ****     static mbedtls_mpi_uint Rp[] = {
1463:C:/Users/dtjld/workspace/AIoT/src/LiteOS_Lab/iot_link/network/dtls/mbedtls/mbedtls-2.16.2/library\ecp_curves.c ****         BYTES_TO_T_UINT_8( 0xD1, 0x03, 0x00, 0x00, 0x01, 0x00, 0x00, 0x00 ) };
1464:C:/Users/dtjld/workspace/AIoT/src/LiteOS_Lab/iot_link/network/dtls/mbedtls/mbedtls-2.16.2/library\ecp_curves.c ****     return( ecp_mod_koblitz( N, Rp, 256 / 8 / sizeof( mbedtls_mpi_uint ), 0, 0, 0 ) );
 5675              		.loc 1 1464 0
 5676 0008 0023     		movs	r3, #0
 5677 000a 0193     		str	r3, [sp, #4]
 5678 000c 0023     		movs	r3, #0
 5679 000e 0093     		str	r3, [sp]
 5680 0010 0023     		movs	r3, #0
 5681 0012 0822     		movs	r2, #8
 5682 0014 0449     		ldr	r1, .L201
 5683 0016 7868     		ldr	r0, [r7, #4]
 5684 0018 FFF7FEFF 		bl	ecp_mod_koblitz
 5685 001c 0346     		mov	r3, r0
1465:C:/Users/dtjld/workspace/AIoT/src/LiteOS_Lab/iot_link/network/dtls/mbedtls/mbedtls-2.16.2/library\ecp_curves.c **** }
 5686              		.loc 1 1465 0
 5687 001e 1846     		mov	r0, r3
 5688 0020 0837     		adds	r7, r7, #8
 5689              	.LCFI104:
 5690              		.cfi_def_cfa_offset 8
 5691 0022 BD46     		mov	sp, r7
 5692              	.LCFI105:
 5693              		.cfi_def_cfa_register 13
 5694              		@ sp needed
 5695 0024 80BD     		pop	{r7, pc}
 5696              	.L202:
 5697 0026 00BF     		.align	2
 5698              	.L201:
 5699 0028 00000000 		.word	Rp.6503
 5700              		.cfi_endproc
 5701              	.LFE19:
 5703              		.section	.data.one.6302,"aw",%progbits
 5704              		.align	2
 5707              	one.6302:
 5708 0000 01000000 		.word	1
 5709              		.section	.data.Rp.6495,"aw",%progbits
 5710              		.align	2
 5713              	Rp.6495:
 5714 0000 C9110000 		.word	4553
 5715 0004 01000000 		.word	1
 5716              		.section	.data.Rp.6499,"aw",%progbits
 5717              		.align	2
 5720              	Rp.6499:
 5721 0000 931A0000 		.word	6803
 5722 0004 01000000 		.word	1
 5723              		.section	.data.Rp.6503,"aw",%progbits
 5724              		.align	2
 5727              	Rp.6503:
 5728 0000 D1030000 		.word	977
 5729 0004 01000000 		.word	1
 5730              		.text
 5731              	.Letext0:
 5732              		.file 2 "c:\\ac6\\systemworkbench\\plugins\\fr.ac6.mcu.externaltools.arm-none.win32_1.16.0.2018071
 5733              		.file 3 "c:\\ac6\\systemworkbench\\plugins\\fr.ac6.mcu.externaltools.arm-none.win32_1.16.0.2018071
 5734              		.file 4 "c:\\ac6\\systemworkbench\\plugins\\fr.ac6.mcu.externaltools.arm-none.win32_1.16.0.2018071
ARM GAS  C:\Users\dtjld\AppData\Local\Temp\ccEzFpLd.s 			page 125


 5735              		.file 5 "C:/Users/dtjld/workspace/AIoT/src/LiteOS_Lab/iot_link/network/dtls/mbedtls/mbedtls-2.16.2
 5736              		.file 6 "C:/Users/dtjld/workspace/AIoT/src/LiteOS_Lab/iot_link/network/dtls/mbedtls/mbedtls-2.16.2
 5737              		.file 7 "c:\\ac6\\systemworkbench\\plugins\\fr.ac6.mcu.externaltools.arm-none.win32_1.16.0.2018071
 5738              		.file 8 "c:\\ac6\\systemworkbench\\plugins\\fr.ac6.mcu.externaltools.arm-none.win32_1.16.0.2018071
 5739              		.file 9 "c:\\ac6\\systemworkbench\\plugins\\fr.ac6.mcu.externaltools.arm-none.win32_1.16.0.2018071
ARM GAS  C:\Users\dtjld\AppData\Local\Temp\ccEzFpLd.s 			page 126


DEFINED SYMBOLS
                            *ABS*:00000000 ecp_curves.c
C:\Users\dtjld\AppData\Local\Temp\ccEzFpLd.s:18     .rodata.secp192r1_p:00000000 $d
C:\Users\dtjld\AppData\Local\Temp\ccEzFpLd.s:21     .rodata.secp192r1_p:00000000 secp192r1_p
C:\Users\dtjld\AppData\Local\Temp\ccEzFpLd.s:29     .rodata.secp192r1_b:00000000 $d
C:\Users\dtjld\AppData\Local\Temp\ccEzFpLd.s:32     .rodata.secp192r1_b:00000000 secp192r1_b
C:\Users\dtjld\AppData\Local\Temp\ccEzFpLd.s:40     .rodata.secp192r1_gx:00000000 $d
C:\Users\dtjld\AppData\Local\Temp\ccEzFpLd.s:43     .rodata.secp192r1_gx:00000000 secp192r1_gx
C:\Users\dtjld\AppData\Local\Temp\ccEzFpLd.s:51     .rodata.secp192r1_gy:00000000 $d
C:\Users\dtjld\AppData\Local\Temp\ccEzFpLd.s:54     .rodata.secp192r1_gy:00000000 secp192r1_gy
C:\Users\dtjld\AppData\Local\Temp\ccEzFpLd.s:62     .rodata.secp192r1_n:00000000 $d
C:\Users\dtjld\AppData\Local\Temp\ccEzFpLd.s:65     .rodata.secp192r1_n:00000000 secp192r1_n
C:\Users\dtjld\AppData\Local\Temp\ccEzFpLd.s:73     .rodata.secp224r1_p:00000000 $d
C:\Users\dtjld\AppData\Local\Temp\ccEzFpLd.s:76     .rodata.secp224r1_p:00000000 secp224r1_p
C:\Users\dtjld\AppData\Local\Temp\ccEzFpLd.s:86     .rodata.secp224r1_b:00000000 $d
C:\Users\dtjld\AppData\Local\Temp\ccEzFpLd.s:89     .rodata.secp224r1_b:00000000 secp224r1_b
C:\Users\dtjld\AppData\Local\Temp\ccEzFpLd.s:98     .rodata.secp224r1_gx:00000000 $d
C:\Users\dtjld\AppData\Local\Temp\ccEzFpLd.s:101    .rodata.secp224r1_gx:00000000 secp224r1_gx
C:\Users\dtjld\AppData\Local\Temp\ccEzFpLd.s:110    .rodata.secp224r1_gy:00000000 $d
C:\Users\dtjld\AppData\Local\Temp\ccEzFpLd.s:113    .rodata.secp224r1_gy:00000000 secp224r1_gy
C:\Users\dtjld\AppData\Local\Temp\ccEzFpLd.s:122    .rodata.secp224r1_n:00000000 $d
C:\Users\dtjld\AppData\Local\Temp\ccEzFpLd.s:125    .rodata.secp224r1_n:00000000 secp224r1_n
C:\Users\dtjld\AppData\Local\Temp\ccEzFpLd.s:134    .rodata.secp256r1_p:00000000 $d
C:\Users\dtjld\AppData\Local\Temp\ccEzFpLd.s:137    .rodata.secp256r1_p:00000000 secp256r1_p
C:\Users\dtjld\AppData\Local\Temp\ccEzFpLd.s:147    .rodata.secp256r1_b:00000000 $d
C:\Users\dtjld\AppData\Local\Temp\ccEzFpLd.s:150    .rodata.secp256r1_b:00000000 secp256r1_b
C:\Users\dtjld\AppData\Local\Temp\ccEzFpLd.s:160    .rodata.secp256r1_gx:00000000 $d
C:\Users\dtjld\AppData\Local\Temp\ccEzFpLd.s:163    .rodata.secp256r1_gx:00000000 secp256r1_gx
C:\Users\dtjld\AppData\Local\Temp\ccEzFpLd.s:173    .rodata.secp256r1_gy:00000000 $d
C:\Users\dtjld\AppData\Local\Temp\ccEzFpLd.s:176    .rodata.secp256r1_gy:00000000 secp256r1_gy
C:\Users\dtjld\AppData\Local\Temp\ccEzFpLd.s:186    .rodata.secp256r1_n:00000000 $d
C:\Users\dtjld\AppData\Local\Temp\ccEzFpLd.s:189    .rodata.secp256r1_n:00000000 secp256r1_n
C:\Users\dtjld\AppData\Local\Temp\ccEzFpLd.s:199    .rodata.secp384r1_p:00000000 $d
C:\Users\dtjld\AppData\Local\Temp\ccEzFpLd.s:202    .rodata.secp384r1_p:00000000 secp384r1_p
C:\Users\dtjld\AppData\Local\Temp\ccEzFpLd.s:216    .rodata.secp384r1_b:00000000 $d
C:\Users\dtjld\AppData\Local\Temp\ccEzFpLd.s:219    .rodata.secp384r1_b:00000000 secp384r1_b
C:\Users\dtjld\AppData\Local\Temp\ccEzFpLd.s:233    .rodata.secp384r1_gx:00000000 $d
C:\Users\dtjld\AppData\Local\Temp\ccEzFpLd.s:236    .rodata.secp384r1_gx:00000000 secp384r1_gx
C:\Users\dtjld\AppData\Local\Temp\ccEzFpLd.s:250    .rodata.secp384r1_gy:00000000 $d
C:\Users\dtjld\AppData\Local\Temp\ccEzFpLd.s:253    .rodata.secp384r1_gy:00000000 secp384r1_gy
C:\Users\dtjld\AppData\Local\Temp\ccEzFpLd.s:267    .rodata.secp384r1_n:00000000 $d
C:\Users\dtjld\AppData\Local\Temp\ccEzFpLd.s:270    .rodata.secp384r1_n:00000000 secp384r1_n
C:\Users\dtjld\AppData\Local\Temp\ccEzFpLd.s:284    .rodata.secp521r1_p:00000000 $d
C:\Users\dtjld\AppData\Local\Temp\ccEzFpLd.s:287    .rodata.secp521r1_p:00000000 secp521r1_p
C:\Users\dtjld\AppData\Local\Temp\ccEzFpLd.s:306    .rodata.secp521r1_b:00000000 $d
C:\Users\dtjld\AppData\Local\Temp\ccEzFpLd.s:309    .rodata.secp521r1_b:00000000 secp521r1_b
C:\Users\dtjld\AppData\Local\Temp\ccEzFpLd.s:328    .rodata.secp521r1_gx:00000000 $d
C:\Users\dtjld\AppData\Local\Temp\ccEzFpLd.s:331    .rodata.secp521r1_gx:00000000 secp521r1_gx
C:\Users\dtjld\AppData\Local\Temp\ccEzFpLd.s:350    .rodata.secp521r1_gy:00000000 $d
C:\Users\dtjld\AppData\Local\Temp\ccEzFpLd.s:353    .rodata.secp521r1_gy:00000000 secp521r1_gy
C:\Users\dtjld\AppData\Local\Temp\ccEzFpLd.s:372    .rodata.secp521r1_n:00000000 $d
C:\Users\dtjld\AppData\Local\Temp\ccEzFpLd.s:375    .rodata.secp521r1_n:00000000 secp521r1_n
C:\Users\dtjld\AppData\Local\Temp\ccEzFpLd.s:394    .rodata.secp192k1_p:00000000 $d
C:\Users\dtjld\AppData\Local\Temp\ccEzFpLd.s:397    .rodata.secp192k1_p:00000000 secp192k1_p
C:\Users\dtjld\AppData\Local\Temp\ccEzFpLd.s:405    .rodata.secp192k1_a:00000000 $d
C:\Users\dtjld\AppData\Local\Temp\ccEzFpLd.s:408    .rodata.secp192k1_a:00000000 secp192k1_a
C:\Users\dtjld\AppData\Local\Temp\ccEzFpLd.s:411    .rodata.secp192k1_b:00000000 $d
ARM GAS  C:\Users\dtjld\AppData\Local\Temp\ccEzFpLd.s 			page 127


C:\Users\dtjld\AppData\Local\Temp\ccEzFpLd.s:414    .rodata.secp192k1_b:00000000 secp192k1_b
C:\Users\dtjld\AppData\Local\Temp\ccEzFpLd.s:417    .rodata.secp192k1_gx:00000000 $d
C:\Users\dtjld\AppData\Local\Temp\ccEzFpLd.s:420    .rodata.secp192k1_gx:00000000 secp192k1_gx
C:\Users\dtjld\AppData\Local\Temp\ccEzFpLd.s:428    .rodata.secp192k1_gy:00000000 $d
C:\Users\dtjld\AppData\Local\Temp\ccEzFpLd.s:431    .rodata.secp192k1_gy:00000000 secp192k1_gy
C:\Users\dtjld\AppData\Local\Temp\ccEzFpLd.s:439    .rodata.secp192k1_n:00000000 $d
C:\Users\dtjld\AppData\Local\Temp\ccEzFpLd.s:442    .rodata.secp192k1_n:00000000 secp192k1_n
C:\Users\dtjld\AppData\Local\Temp\ccEzFpLd.s:450    .rodata.secp224k1_p:00000000 $d
C:\Users\dtjld\AppData\Local\Temp\ccEzFpLd.s:453    .rodata.secp224k1_p:00000000 secp224k1_p
C:\Users\dtjld\AppData\Local\Temp\ccEzFpLd.s:462    .rodata.secp224k1_a:00000000 $d
C:\Users\dtjld\AppData\Local\Temp\ccEzFpLd.s:465    .rodata.secp224k1_a:00000000 secp224k1_a
C:\Users\dtjld\AppData\Local\Temp\ccEzFpLd.s:468    .rodata.secp224k1_b:00000000 $d
C:\Users\dtjld\AppData\Local\Temp\ccEzFpLd.s:471    .rodata.secp224k1_b:00000000 secp224k1_b
C:\Users\dtjld\AppData\Local\Temp\ccEzFpLd.s:474    .rodata.secp224k1_gx:00000000 $d
C:\Users\dtjld\AppData\Local\Temp\ccEzFpLd.s:477    .rodata.secp224k1_gx:00000000 secp224k1_gx
C:\Users\dtjld\AppData\Local\Temp\ccEzFpLd.s:486    .rodata.secp224k1_gy:00000000 $d
C:\Users\dtjld\AppData\Local\Temp\ccEzFpLd.s:489    .rodata.secp224k1_gy:00000000 secp224k1_gy
C:\Users\dtjld\AppData\Local\Temp\ccEzFpLd.s:498    .rodata.secp224k1_n:00000000 $d
C:\Users\dtjld\AppData\Local\Temp\ccEzFpLd.s:501    .rodata.secp224k1_n:00000000 secp224k1_n
C:\Users\dtjld\AppData\Local\Temp\ccEzFpLd.s:511    .rodata.secp256k1_p:00000000 $d
C:\Users\dtjld\AppData\Local\Temp\ccEzFpLd.s:514    .rodata.secp256k1_p:00000000 secp256k1_p
C:\Users\dtjld\AppData\Local\Temp\ccEzFpLd.s:524    .rodata.secp256k1_a:00000000 $d
C:\Users\dtjld\AppData\Local\Temp\ccEzFpLd.s:527    .rodata.secp256k1_a:00000000 secp256k1_a
C:\Users\dtjld\AppData\Local\Temp\ccEzFpLd.s:530    .rodata.secp256k1_b:00000000 $d
C:\Users\dtjld\AppData\Local\Temp\ccEzFpLd.s:533    .rodata.secp256k1_b:00000000 secp256k1_b
C:\Users\dtjld\AppData\Local\Temp\ccEzFpLd.s:536    .rodata.secp256k1_gx:00000000 $d
C:\Users\dtjld\AppData\Local\Temp\ccEzFpLd.s:539    .rodata.secp256k1_gx:00000000 secp256k1_gx
C:\Users\dtjld\AppData\Local\Temp\ccEzFpLd.s:549    .rodata.secp256k1_gy:00000000 $d
C:\Users\dtjld\AppData\Local\Temp\ccEzFpLd.s:552    .rodata.secp256k1_gy:00000000 secp256k1_gy
C:\Users\dtjld\AppData\Local\Temp\ccEzFpLd.s:562    .rodata.secp256k1_n:00000000 $d
C:\Users\dtjld\AppData\Local\Temp\ccEzFpLd.s:565    .rodata.secp256k1_n:00000000 secp256k1_n
C:\Users\dtjld\AppData\Local\Temp\ccEzFpLd.s:575    .rodata.brainpoolP256r1_p:00000000 $d
C:\Users\dtjld\AppData\Local\Temp\ccEzFpLd.s:578    .rodata.brainpoolP256r1_p:00000000 brainpoolP256r1_p
C:\Users\dtjld\AppData\Local\Temp\ccEzFpLd.s:588    .rodata.brainpoolP256r1_a:00000000 $d
C:\Users\dtjld\AppData\Local\Temp\ccEzFpLd.s:591    .rodata.brainpoolP256r1_a:00000000 brainpoolP256r1_a
C:\Users\dtjld\AppData\Local\Temp\ccEzFpLd.s:601    .rodata.brainpoolP256r1_b:00000000 $d
C:\Users\dtjld\AppData\Local\Temp\ccEzFpLd.s:604    .rodata.brainpoolP256r1_b:00000000 brainpoolP256r1_b
C:\Users\dtjld\AppData\Local\Temp\ccEzFpLd.s:614    .rodata.brainpoolP256r1_gx:00000000 $d
C:\Users\dtjld\AppData\Local\Temp\ccEzFpLd.s:617    .rodata.brainpoolP256r1_gx:00000000 brainpoolP256r1_gx
C:\Users\dtjld\AppData\Local\Temp\ccEzFpLd.s:627    .rodata.brainpoolP256r1_gy:00000000 $d
C:\Users\dtjld\AppData\Local\Temp\ccEzFpLd.s:630    .rodata.brainpoolP256r1_gy:00000000 brainpoolP256r1_gy
C:\Users\dtjld\AppData\Local\Temp\ccEzFpLd.s:640    .rodata.brainpoolP256r1_n:00000000 $d
C:\Users\dtjld\AppData\Local\Temp\ccEzFpLd.s:643    .rodata.brainpoolP256r1_n:00000000 brainpoolP256r1_n
C:\Users\dtjld\AppData\Local\Temp\ccEzFpLd.s:653    .rodata.brainpoolP384r1_p:00000000 $d
C:\Users\dtjld\AppData\Local\Temp\ccEzFpLd.s:656    .rodata.brainpoolP384r1_p:00000000 brainpoolP384r1_p
C:\Users\dtjld\AppData\Local\Temp\ccEzFpLd.s:670    .rodata.brainpoolP384r1_a:00000000 $d
C:\Users\dtjld\AppData\Local\Temp\ccEzFpLd.s:673    .rodata.brainpoolP384r1_a:00000000 brainpoolP384r1_a
C:\Users\dtjld\AppData\Local\Temp\ccEzFpLd.s:687    .rodata.brainpoolP384r1_b:00000000 $d
C:\Users\dtjld\AppData\Local\Temp\ccEzFpLd.s:690    .rodata.brainpoolP384r1_b:00000000 brainpoolP384r1_b
C:\Users\dtjld\AppData\Local\Temp\ccEzFpLd.s:704    .rodata.brainpoolP384r1_gx:00000000 $d
C:\Users\dtjld\AppData\Local\Temp\ccEzFpLd.s:707    .rodata.brainpoolP384r1_gx:00000000 brainpoolP384r1_gx
C:\Users\dtjld\AppData\Local\Temp\ccEzFpLd.s:721    .rodata.brainpoolP384r1_gy:00000000 $d
C:\Users\dtjld\AppData\Local\Temp\ccEzFpLd.s:724    .rodata.brainpoolP384r1_gy:00000000 brainpoolP384r1_gy
C:\Users\dtjld\AppData\Local\Temp\ccEzFpLd.s:738    .rodata.brainpoolP384r1_n:00000000 $d
C:\Users\dtjld\AppData\Local\Temp\ccEzFpLd.s:741    .rodata.brainpoolP384r1_n:00000000 brainpoolP384r1_n
C:\Users\dtjld\AppData\Local\Temp\ccEzFpLd.s:755    .rodata.brainpoolP512r1_p:00000000 $d
C:\Users\dtjld\AppData\Local\Temp\ccEzFpLd.s:758    .rodata.brainpoolP512r1_p:00000000 brainpoolP512r1_p
ARM GAS  C:\Users\dtjld\AppData\Local\Temp\ccEzFpLd.s 			page 128


C:\Users\dtjld\AppData\Local\Temp\ccEzFpLd.s:776    .rodata.brainpoolP512r1_a:00000000 $d
C:\Users\dtjld\AppData\Local\Temp\ccEzFpLd.s:779    .rodata.brainpoolP512r1_a:00000000 brainpoolP512r1_a
C:\Users\dtjld\AppData\Local\Temp\ccEzFpLd.s:797    .rodata.brainpoolP512r1_b:00000000 $d
C:\Users\dtjld\AppData\Local\Temp\ccEzFpLd.s:800    .rodata.brainpoolP512r1_b:00000000 brainpoolP512r1_b
C:\Users\dtjld\AppData\Local\Temp\ccEzFpLd.s:818    .rodata.brainpoolP512r1_gx:00000000 $d
C:\Users\dtjld\AppData\Local\Temp\ccEzFpLd.s:821    .rodata.brainpoolP512r1_gx:00000000 brainpoolP512r1_gx
C:\Users\dtjld\AppData\Local\Temp\ccEzFpLd.s:839    .rodata.brainpoolP512r1_gy:00000000 $d
C:\Users\dtjld\AppData\Local\Temp\ccEzFpLd.s:842    .rodata.brainpoolP512r1_gy:00000000 brainpoolP512r1_gy
C:\Users\dtjld\AppData\Local\Temp\ccEzFpLd.s:860    .rodata.brainpoolP512r1_n:00000000 $d
C:\Users\dtjld\AppData\Local\Temp\ccEzFpLd.s:863    .rodata.brainpoolP512r1_n:00000000 brainpoolP512r1_n
C:\Users\dtjld\AppData\Local\Temp\ccEzFpLd.s:881    .text.ecp_mpi_load:00000000 $t
C:\Users\dtjld\AppData\Local\Temp\ccEzFpLd.s:887    .text.ecp_mpi_load:00000000 ecp_mpi_load
C:\Users\dtjld\AppData\Local\Temp\ccEzFpLd.s:939    .text.ecp_mpi_set1:00000000 $t
C:\Users\dtjld\AppData\Local\Temp\ccEzFpLd.s:945    .text.ecp_mpi_set1:00000000 ecp_mpi_set1
C:\Users\dtjld\AppData\Local\Temp\ccEzFpLd.s:992    .text.ecp_mpi_set1:00000028 $d
C:\Users\dtjld\AppData\Local\Temp\ccEzFpLd.s:5707   .data.one.6302:00000000 one.6302
C:\Users\dtjld\AppData\Local\Temp\ccEzFpLd.s:997    .text.ecp_group_load:00000000 $t
C:\Users\dtjld\AppData\Local\Temp\ccEzFpLd.s:1003   .text.ecp_group_load:00000000 ecp_group_load
C:\Users\dtjld\AppData\Local\Temp\ccEzFpLd.s:1112   .rodata:00000000 $d
C:\Users\dtjld\AppData\Local\Temp\ccEzFpLd.s:1119   .text.ecp_use_curve25519:00000000 $t
C:\Users\dtjld\AppData\Local\Temp\ccEzFpLd.s:1125   .text.ecp_use_curve25519:00000000 ecp_use_curve25519
C:\Users\dtjld\AppData\Local\Temp\ccEzFpLd.s:1301   .text.ecp_use_curve25519:00000108 $d
C:\Users\dtjld\AppData\Local\Temp\ccEzFpLd.s:1307   .text.mbedtls_ecp_group_load:00000000 $t
C:\Users\dtjld\AppData\Local\Temp\ccEzFpLd.s:1314   .text.mbedtls_ecp_group_load:00000000 mbedtls_ecp_group_load
C:\Users\dtjld\AppData\Local\Temp\ccEzFpLd.s:1350   .text.mbedtls_ecp_group_load:00000028 $d
C:\Users\dtjld\AppData\Local\Temp\ccEzFpLd.s:1362   .text.mbedtls_ecp_group_load:00000058 $t
C:\Users\dtjld\AppData\Local\Temp\ccEzFpLd.s:1668   .text.mbedtls_ecp_group_load:00000290 $d
C:\Users\dtjld\AppData\Local\Temp\ccEzFpLd.s:1998   .text.ecp_mod_p192:00000000 ecp_mod_p192
C:\Users\dtjld\AppData\Local\Temp\ccEzFpLd.s:2364   .text.ecp_mod_p224:00000000 ecp_mod_p224
C:\Users\dtjld\AppData\Local\Temp\ccEzFpLd.s:2888   .text.ecp_mod_p256:00000000 ecp_mod_p256
C:\Users\dtjld\AppData\Local\Temp\ccEzFpLd.s:3766   .text.ecp_mod_p384:00000000 ecp_mod_p384
C:\Users\dtjld\AppData\Local\Temp\ccEzFpLd.s:4904   .text.ecp_mod_p521:00000000 ecp_mod_p521
C:\Users\dtjld\AppData\Local\Temp\ccEzFpLd.s:5551   .text.ecp_mod_p192k1:00000000 ecp_mod_p192k1
C:\Users\dtjld\AppData\Local\Temp\ccEzFpLd.s:5604   .text.ecp_mod_p224k1:00000000 ecp_mod_p224k1
C:\Users\dtjld\AppData\Local\Temp\ccEzFpLd.s:5657   .text.ecp_mod_p256k1:00000000 ecp_mod_p256k1
C:\Users\dtjld\AppData\Local\Temp\ccEzFpLd.s:1733   .text.mbedtls_ecp_group_load:0000038c $t
C:\Users\dtjld\AppData\Local\Temp\ccEzFpLd.s:1788   .text.mbedtls_ecp_group_load:000003e0 $d
C:\Users\dtjld\AppData\Local\Temp\ccEzFpLd.s:5040   .text.ecp_mod_p255:00000000 ecp_mod_p255
C:\Users\dtjld\AppData\Local\Temp\ccEzFpLd.s:1800   .text.add64:00000000 $t
C:\Users\dtjld\AppData\Local\Temp\ccEzFpLd.s:1806   .text.add64:00000000 add64
C:\Users\dtjld\AppData\Local\Temp\ccEzFpLd.s:1911   .text.carry64:00000000 $t
C:\Users\dtjld\AppData\Local\Temp\ccEzFpLd.s:1917   .text.carry64:00000000 carry64
C:\Users\dtjld\AppData\Local\Temp\ccEzFpLd.s:1992   .text.ecp_mod_p192:00000000 $t
C:\Users\dtjld\AppData\Local\Temp\ccEzFpLd.s:2147   .text.add32:00000000 $t
C:\Users\dtjld\AppData\Local\Temp\ccEzFpLd.s:2153   .text.add32:00000000 add32
C:\Users\dtjld\AppData\Local\Temp\ccEzFpLd.s:2215   .text.sub32:00000000 $t
C:\Users\dtjld\AppData\Local\Temp\ccEzFpLd.s:2221   .text.sub32:00000000 sub32
C:\Users\dtjld\AppData\Local\Temp\ccEzFpLd.s:2283   .text.fix_negative:00000000 $t
C:\Users\dtjld\AppData\Local\Temp\ccEzFpLd.s:2289   .text.fix_negative:00000000 fix_negative
C:\Users\dtjld\AppData\Local\Temp\ccEzFpLd.s:2358   .text.ecp_mod_p224:00000000 $t
C:\Users\dtjld\AppData\Local\Temp\ccEzFpLd.s:2882   .text.ecp_mod_p256:00000000 $t
C:\Users\dtjld\AppData\Local\Temp\ccEzFpLd.s:3760   .text.ecp_mod_p384:00000000 $t
C:\Users\dtjld\AppData\Local\Temp\ccEzFpLd.s:4898   .text.ecp_mod_p521:00000000 $t
C:\Users\dtjld\AppData\Local\Temp\ccEzFpLd.s:5034   .text.ecp_mod_p255:00000000 $t
C:\Users\dtjld\AppData\Local\Temp\ccEzFpLd.s:5196   .text.ecp_mod_p255:000000e8 $d
C:\Users\dtjld\AppData\Local\Temp\ccEzFpLd.s:5201   .text.ecp_mod_koblitz:00000000 $t
C:\Users\dtjld\AppData\Local\Temp\ccEzFpLd.s:5207   .text.ecp_mod_koblitz:00000000 ecp_mod_koblitz
ARM GAS  C:\Users\dtjld\AppData\Local\Temp\ccEzFpLd.s 			page 129


C:\Users\dtjld\AppData\Local\Temp\ccEzFpLd.s:5545   .text.ecp_mod_p192k1:00000000 $t
C:\Users\dtjld\AppData\Local\Temp\ccEzFpLd.s:5593   .text.ecp_mod_p192k1:00000028 $d
C:\Users\dtjld\AppData\Local\Temp\ccEzFpLd.s:5713   .data.Rp.6495:00000000 Rp.6495
C:\Users\dtjld\AppData\Local\Temp\ccEzFpLd.s:5598   .text.ecp_mod_p224k1:00000000 $t
C:\Users\dtjld\AppData\Local\Temp\ccEzFpLd.s:5646   .text.ecp_mod_p224k1:00000028 $d
C:\Users\dtjld\AppData\Local\Temp\ccEzFpLd.s:5720   .data.Rp.6499:00000000 Rp.6499
C:\Users\dtjld\AppData\Local\Temp\ccEzFpLd.s:5651   .text.ecp_mod_p256k1:00000000 $t
C:\Users\dtjld\AppData\Local\Temp\ccEzFpLd.s:5699   .text.ecp_mod_p256k1:00000028 $d
C:\Users\dtjld\AppData\Local\Temp\ccEzFpLd.s:5727   .data.Rp.6503:00000000 Rp.6503
C:\Users\dtjld\AppData\Local\Temp\ccEzFpLd.s:5704   .data.one.6302:00000000 $d
C:\Users\dtjld\AppData\Local\Temp\ccEzFpLd.s:5710   .data.Rp.6495:00000000 $d
C:\Users\dtjld\AppData\Local\Temp\ccEzFpLd.s:5717   .data.Rp.6499:00000000 $d
C:\Users\dtjld\AppData\Local\Temp\ccEzFpLd.s:5724   .data.Rp.6503:00000000 $d

UNDEFINED SYMBOLS
mbedtls_mpi_bitlen
mbedtls_mpi_read_string
mbedtls_mpi_lset
mbedtls_mpi_shift_l
mbedtls_mpi_sub_int
mbedtls_mpi_set_bit
mbedtls_mpi_free
mbedtls_ecp_group_free
mbedtls_mpi_grow
mbedtls_mpi_sub_abs
memset
memcpy
mbedtls_mpi_shift_r
mbedtls_mpi_add_abs
mbedtls_mpi_mul_int
mbedtls_mpi_mul_mpi
