ARM GAS  C:\Users\dtjld\AppData\Local\Temp\ccpI0fza.s 			page 1


   1              		.cpu cortex-m4
   2              		.eabi_attribute 27, 1
   3              		.eabi_attribute 28, 1
   4              		.eabi_attribute 20, 1
   5              		.eabi_attribute 21, 1
   6              		.eabi_attribute 23, 3
   7              		.eabi_attribute 24, 1
   8              		.eabi_attribute 25, 1
   9              		.eabi_attribute 26, 1
  10              		.eabi_attribute 30, 6
  11              		.eabi_attribute 34, 1
  12              		.eabi_attribute 18, 4
  13              		.file	"er-coap-13.c"
  14              		.text
  15              	.Ltext0:
  16              		.cfi_sections	.debug_frame
  17              		.section	.bss.current_mid,"aw",%nobits
  18              		.align	1
  21              	current_mid:
  22 0000 0000     		.space	2
  23              		.global	coap_error_code
  24              		.section	.bss.coap_error_code,"aw",%nobits
  27              	coap_error_code:
  28 0000 00       		.space	1
  29              		.global	coap_error_message
  30              		.section	.rodata
  31              		.align	2
  32              	.LC0:
  33 0000 00       		.ascii	"\000"
  34              		.section	.data.coap_error_message,"aw",%progbits
  35              		.align	2
  38              	coap_error_message:
  39 0000 00000000 		.word	.LC0
  40              		.section	.text.coap_log_2,"ax",%progbits
  41              		.align	1
  42              		.syntax unified
  43              		.thumb
  44              		.thumb_func
  45              		.fpu fpv4-sp-d16
  47              	coap_log_2:
  48              	.LFB4:
  49              		.file 1 "C:/Users/dtjld/Desktop/AIoT_software/LiteOS_Lab_overseas/LiteOS_Lab/iot_link/network/lwm2
   1:C:/Users/dtjld/Desktop/AIoT_software/LiteOS_Lab_overseas/LiteOS_Lab/iot_link/network/lwm2m/wakaama_lwm2m/core/er-coap-13\er-coap-13.c **** /*----------------------------------------------------------------------------
   2:C:/Users/dtjld/Desktop/AIoT_software/LiteOS_Lab_overseas/LiteOS_Lab/iot_link/network/lwm2m/wakaama_lwm2m/core/er-coap-13\er-coap-13.c ****  * Copyright (c) <2016-2018>, <Huawei Technologies Co., Ltd>
   3:C:/Users/dtjld/Desktop/AIoT_software/LiteOS_Lab_overseas/LiteOS_Lab/iot_link/network/lwm2m/wakaama_lwm2m/core/er-coap-13\er-coap-13.c ****  * All rights reserved.
   4:C:/Users/dtjld/Desktop/AIoT_software/LiteOS_Lab_overseas/LiteOS_Lab/iot_link/network/lwm2m/wakaama_lwm2m/core/er-coap-13\er-coap-13.c ****  * Redistribution and use in source and binary forms, with or without modification,
   5:C:/Users/dtjld/Desktop/AIoT_software/LiteOS_Lab_overseas/LiteOS_Lab/iot_link/network/lwm2m/wakaama_lwm2m/core/er-coap-13\er-coap-13.c ****  * are permitted provided that the following conditions are met:
   6:C:/Users/dtjld/Desktop/AIoT_software/LiteOS_Lab_overseas/LiteOS_Lab/iot_link/network/lwm2m/wakaama_lwm2m/core/er-coap-13\er-coap-13.c ****  * 1. Redistributions of source code must retain the above copyright notice, this list of
   7:C:/Users/dtjld/Desktop/AIoT_software/LiteOS_Lab_overseas/LiteOS_Lab/iot_link/network/lwm2m/wakaama_lwm2m/core/er-coap-13\er-coap-13.c ****  * conditions and the following disclaimer.
   8:C:/Users/dtjld/Desktop/AIoT_software/LiteOS_Lab_overseas/LiteOS_Lab/iot_link/network/lwm2m/wakaama_lwm2m/core/er-coap-13\er-coap-13.c ****  * 2. Redistributions in binary form must reproduce the above copyright notice, this list
   9:C:/Users/dtjld/Desktop/AIoT_software/LiteOS_Lab_overseas/LiteOS_Lab/iot_link/network/lwm2m/wakaama_lwm2m/core/er-coap-13\er-coap-13.c ****  * of conditions and the following disclaimer in the documentation and/or other materials
  10:C:/Users/dtjld/Desktop/AIoT_software/LiteOS_Lab_overseas/LiteOS_Lab/iot_link/network/lwm2m/wakaama_lwm2m/core/er-coap-13\er-coap-13.c ****  * provided with the distribution.
  11:C:/Users/dtjld/Desktop/AIoT_software/LiteOS_Lab_overseas/LiteOS_Lab/iot_link/network/lwm2m/wakaama_lwm2m/core/er-coap-13\er-coap-13.c ****  * 3. Neither the name of the copyright holder nor the names of its contributors may be used
  12:C:/Users/dtjld/Desktop/AIoT_software/LiteOS_Lab_overseas/LiteOS_Lab/iot_link/network/lwm2m/wakaama_lwm2m/core/er-coap-13\er-coap-13.c ****  * to endorse or promote products derived from this software without specific prior written
  13:C:/Users/dtjld/Desktop/AIoT_software/LiteOS_Lab_overseas/LiteOS_Lab/iot_link/network/lwm2m/wakaama_lwm2m/core/er-coap-13\er-coap-13.c ****  * permission.
  14:C:/Users/dtjld/Desktop/AIoT_software/LiteOS_Lab_overseas/LiteOS_Lab/iot_link/network/lwm2m/wakaama_lwm2m/core/er-coap-13\er-coap-13.c ****  * THIS SOFTWARE IS PROVIDED BY THE COPYRIGHT HOLDERS AND CONTRIBUTORS
  15:C:/Users/dtjld/Desktop/AIoT_software/LiteOS_Lab_overseas/LiteOS_Lab/iot_link/network/lwm2m/wakaama_lwm2m/core/er-coap-13\er-coap-13.c ****  * "AS IS" AND ANY EXPRESS OR IMPLIED WARRANTIES, INCLUDING, BUT NOT LIMITED TO,
ARM GAS  C:\Users\dtjld\AppData\Local\Temp\ccpI0fza.s 			page 2


  16:C:/Users/dtjld/Desktop/AIoT_software/LiteOS_Lab_overseas/LiteOS_Lab/iot_link/network/lwm2m/wakaama_lwm2m/core/er-coap-13\er-coap-13.c ****  * THE IMPLIED WARRANTIES OF MERCHANTABILITY AND FITNESS FOR A PARTICULAR
  17:C:/Users/dtjld/Desktop/AIoT_software/LiteOS_Lab_overseas/LiteOS_Lab/iot_link/network/lwm2m/wakaama_lwm2m/core/er-coap-13\er-coap-13.c ****  * PURPOSE ARE DISCLAIMED. IN NO EVENT SHALL THE COPYRIGHT HOLDER OR
  18:C:/Users/dtjld/Desktop/AIoT_software/LiteOS_Lab_overseas/LiteOS_Lab/iot_link/network/lwm2m/wakaama_lwm2m/core/er-coap-13\er-coap-13.c ****  * CONTRIBUTORS BE LIABLE FOR ANY DIRECT, INDIRECT, INCIDENTAL, SPECIAL,
  19:C:/Users/dtjld/Desktop/AIoT_software/LiteOS_Lab_overseas/LiteOS_Lab/iot_link/network/lwm2m/wakaama_lwm2m/core/er-coap-13\er-coap-13.c ****  * EXEMPLARY, OR CONSEQUENTIAL DAMAGES (INCLUDING, BUT NOT LIMITED TO,
  20:C:/Users/dtjld/Desktop/AIoT_software/LiteOS_Lab_overseas/LiteOS_Lab/iot_link/network/lwm2m/wakaama_lwm2m/core/er-coap-13\er-coap-13.c ****  * PROCUREMENT OF SUBSTITUTE GOODS OR SERVICES; LOSS OF USE, DATA, OR PROFITS;
  21:C:/Users/dtjld/Desktop/AIoT_software/LiteOS_Lab_overseas/LiteOS_Lab/iot_link/network/lwm2m/wakaama_lwm2m/core/er-coap-13\er-coap-13.c ****  * OR BUSINESS INTERRUPTION) HOWEVER CAUSED AND ON ANY THEORY OF LIABILITY,
  22:C:/Users/dtjld/Desktop/AIoT_software/LiteOS_Lab_overseas/LiteOS_Lab/iot_link/network/lwm2m/wakaama_lwm2m/core/er-coap-13\er-coap-13.c ****  * WHETHER IN CONTRACT, STRICT LIABILITY, OR TORT (INCLUDING NEGLIGENCE OR
  23:C:/Users/dtjld/Desktop/AIoT_software/LiteOS_Lab_overseas/LiteOS_Lab/iot_link/network/lwm2m/wakaama_lwm2m/core/er-coap-13\er-coap-13.c ****  * OTHERWISE) ARISING IN ANY WAY OUT OF THE USE OF THIS SOFTWARE, EVEN IF
  24:C:/Users/dtjld/Desktop/AIoT_software/LiteOS_Lab_overseas/LiteOS_Lab/iot_link/network/lwm2m/wakaama_lwm2m/core/er-coap-13\er-coap-13.c ****  * ADVISED OF THE POSSIBILITY OF SUCH DAMAGE.
  25:C:/Users/dtjld/Desktop/AIoT_software/LiteOS_Lab_overseas/LiteOS_Lab/iot_link/network/lwm2m/wakaama_lwm2m/core/er-coap-13\er-coap-13.c ****  *---------------------------------------------------------------------------*/
  26:C:/Users/dtjld/Desktop/AIoT_software/LiteOS_Lab_overseas/LiteOS_Lab/iot_link/network/lwm2m/wakaama_lwm2m/core/er-coap-13\er-coap-13.c **** /*----------------------------------------------------------------------------
  27:C:/Users/dtjld/Desktop/AIoT_software/LiteOS_Lab_overseas/LiteOS_Lab/iot_link/network/lwm2m/wakaama_lwm2m/core/er-coap-13\er-coap-13.c ****  * Notice of Export Control Law
  28:C:/Users/dtjld/Desktop/AIoT_software/LiteOS_Lab_overseas/LiteOS_Lab/iot_link/network/lwm2m/wakaama_lwm2m/core/er-coap-13\er-coap-13.c ****  * ===============================================
  29:C:/Users/dtjld/Desktop/AIoT_software/LiteOS_Lab_overseas/LiteOS_Lab/iot_link/network/lwm2m/wakaama_lwm2m/core/er-coap-13\er-coap-13.c ****  * Huawei LiteOS may be subject to applicable export control laws and regulations, which might
  30:C:/Users/dtjld/Desktop/AIoT_software/LiteOS_Lab_overseas/LiteOS_Lab/iot_link/network/lwm2m/wakaama_lwm2m/core/er-coap-13\er-coap-13.c ****  * include those applicable to Huawei LiteOS of U.S. and the country in which you are located.
  31:C:/Users/dtjld/Desktop/AIoT_software/LiteOS_Lab_overseas/LiteOS_Lab/iot_link/network/lwm2m/wakaama_lwm2m/core/er-coap-13\er-coap-13.c ****  * Import, export and usage of Huawei LiteOS in any manner by you shall be in compliance with such
  32:C:/Users/dtjld/Desktop/AIoT_software/LiteOS_Lab_overseas/LiteOS_Lab/iot_link/network/lwm2m/wakaama_lwm2m/core/er-coap-13\er-coap-13.c ****  * applicable export control laws and regulations.
  33:C:/Users/dtjld/Desktop/AIoT_software/LiteOS_Lab_overseas/LiteOS_Lab/iot_link/network/lwm2m/wakaama_lwm2m/core/er-coap-13\er-coap-13.c ****  *---------------------------------------------------------------------------*/
  34:C:/Users/dtjld/Desktop/AIoT_software/LiteOS_Lab_overseas/LiteOS_Lab/iot_link/network/lwm2m/wakaama_lwm2m/core/er-coap-13\er-coap-13.c **** 
  35:C:/Users/dtjld/Desktop/AIoT_software/LiteOS_Lab_overseas/LiteOS_Lab/iot_link/network/lwm2m/wakaama_lwm2m/core/er-coap-13\er-coap-13.c **** /*
  36:C:/Users/dtjld/Desktop/AIoT_software/LiteOS_Lab_overseas/LiteOS_Lab/iot_link/network/lwm2m/wakaama_lwm2m/core/er-coap-13\er-coap-13.c ****  * Copyright (c) 2013, Institute for Pervasive Computing, ETH Zurich
  37:C:/Users/dtjld/Desktop/AIoT_software/LiteOS_Lab_overseas/LiteOS_Lab/iot_link/network/lwm2m/wakaama_lwm2m/core/er-coap-13\er-coap-13.c ****  * All rights reserved.
  38:C:/Users/dtjld/Desktop/AIoT_software/LiteOS_Lab_overseas/LiteOS_Lab/iot_link/network/lwm2m/wakaama_lwm2m/core/er-coap-13\er-coap-13.c ****  *
  39:C:/Users/dtjld/Desktop/AIoT_software/LiteOS_Lab_overseas/LiteOS_Lab/iot_link/network/lwm2m/wakaama_lwm2m/core/er-coap-13\er-coap-13.c ****  * Redistribution and use in source and binary forms, with or without
  40:C:/Users/dtjld/Desktop/AIoT_software/LiteOS_Lab_overseas/LiteOS_Lab/iot_link/network/lwm2m/wakaama_lwm2m/core/er-coap-13\er-coap-13.c ****  * modification, are permitted provided that the following conditions
  41:C:/Users/dtjld/Desktop/AIoT_software/LiteOS_Lab_overseas/LiteOS_Lab/iot_link/network/lwm2m/wakaama_lwm2m/core/er-coap-13\er-coap-13.c ****  * are met:
  42:C:/Users/dtjld/Desktop/AIoT_software/LiteOS_Lab_overseas/LiteOS_Lab/iot_link/network/lwm2m/wakaama_lwm2m/core/er-coap-13\er-coap-13.c ****  * 1. Redistributions of source code must retain the above copyright
  43:C:/Users/dtjld/Desktop/AIoT_software/LiteOS_Lab_overseas/LiteOS_Lab/iot_link/network/lwm2m/wakaama_lwm2m/core/er-coap-13\er-coap-13.c ****  *    notice, this list of conditions and the following disclaimer.
  44:C:/Users/dtjld/Desktop/AIoT_software/LiteOS_Lab_overseas/LiteOS_Lab/iot_link/network/lwm2m/wakaama_lwm2m/core/er-coap-13\er-coap-13.c ****  * 2. Redistributions in binary form must reproduce the above copyright
  45:C:/Users/dtjld/Desktop/AIoT_software/LiteOS_Lab_overseas/LiteOS_Lab/iot_link/network/lwm2m/wakaama_lwm2m/core/er-coap-13\er-coap-13.c ****  *    notice, this list of conditions and the following disclaimer in the
  46:C:/Users/dtjld/Desktop/AIoT_software/LiteOS_Lab_overseas/LiteOS_Lab/iot_link/network/lwm2m/wakaama_lwm2m/core/er-coap-13\er-coap-13.c ****  *    documentation and/or other materials provided with the distribution.
  47:C:/Users/dtjld/Desktop/AIoT_software/LiteOS_Lab_overseas/LiteOS_Lab/iot_link/network/lwm2m/wakaama_lwm2m/core/er-coap-13\er-coap-13.c ****  * 3. Neither the name of the Institute nor the names of its contributors
  48:C:/Users/dtjld/Desktop/AIoT_software/LiteOS_Lab_overseas/LiteOS_Lab/iot_link/network/lwm2m/wakaama_lwm2m/core/er-coap-13\er-coap-13.c ****  *    may be used to endorse or promote products derived from this software
  49:C:/Users/dtjld/Desktop/AIoT_software/LiteOS_Lab_overseas/LiteOS_Lab/iot_link/network/lwm2m/wakaama_lwm2m/core/er-coap-13\er-coap-13.c ****  *    without specific prior written permission.
  50:C:/Users/dtjld/Desktop/AIoT_software/LiteOS_Lab_overseas/LiteOS_Lab/iot_link/network/lwm2m/wakaama_lwm2m/core/er-coap-13\er-coap-13.c ****  *
  51:C:/Users/dtjld/Desktop/AIoT_software/LiteOS_Lab_overseas/LiteOS_Lab/iot_link/network/lwm2m/wakaama_lwm2m/core/er-coap-13\er-coap-13.c ****  * THIS SOFTWARE IS PROVIDED BY THE INSTITUTE AND CONTRIBUTORS ``AS IS'' AND
  52:C:/Users/dtjld/Desktop/AIoT_software/LiteOS_Lab_overseas/LiteOS_Lab/iot_link/network/lwm2m/wakaama_lwm2m/core/er-coap-13\er-coap-13.c ****  * ANY EXPRESS OR IMPLIED WARRANTIES, INCLUDING, BUT NOT LIMITED TO, THE
  53:C:/Users/dtjld/Desktop/AIoT_software/LiteOS_Lab_overseas/LiteOS_Lab/iot_link/network/lwm2m/wakaama_lwm2m/core/er-coap-13\er-coap-13.c ****  * IMPLIED WARRANTIES OF MERCHANTABILITY AND FITNESS FOR A PARTICULAR PURPOSE
  54:C:/Users/dtjld/Desktop/AIoT_software/LiteOS_Lab_overseas/LiteOS_Lab/iot_link/network/lwm2m/wakaama_lwm2m/core/er-coap-13\er-coap-13.c ****  * ARE DISCLAIMED.  IN NO EVENT SHALL THE INSTITUTE OR CONTRIBUTORS BE LIABLE
  55:C:/Users/dtjld/Desktop/AIoT_software/LiteOS_Lab_overseas/LiteOS_Lab/iot_link/network/lwm2m/wakaama_lwm2m/core/er-coap-13\er-coap-13.c ****  * FOR ANY DIRECT, INDIRECT, INCIDENTAL, SPECIAL, EXEMPLARY, OR CONSEQUENTIAL
  56:C:/Users/dtjld/Desktop/AIoT_software/LiteOS_Lab_overseas/LiteOS_Lab/iot_link/network/lwm2m/wakaama_lwm2m/core/er-coap-13\er-coap-13.c ****  * DAMAGES (INCLUDING, BUT NOT LIMITED TO, PROCUREMENT OF SUBSTITUTE GOODS
  57:C:/Users/dtjld/Desktop/AIoT_software/LiteOS_Lab_overseas/LiteOS_Lab/iot_link/network/lwm2m/wakaama_lwm2m/core/er-coap-13\er-coap-13.c ****  * OR SERVICES; LOSS OF USE, DATA, OR PROFITS; OR BUSINESS INTERRUPTION)
  58:C:/Users/dtjld/Desktop/AIoT_software/LiteOS_Lab_overseas/LiteOS_Lab/iot_link/network/lwm2m/wakaama_lwm2m/core/er-coap-13\er-coap-13.c ****  * HOWEVER CAUSED AND ON ANY THEORY OF LIABILITY, WHETHER IN CONTRACT, STRICT
  59:C:/Users/dtjld/Desktop/AIoT_software/LiteOS_Lab_overseas/LiteOS_Lab/iot_link/network/lwm2m/wakaama_lwm2m/core/er-coap-13\er-coap-13.c ****  * LIABILITY, OR TORT (INCLUDING NEGLIGENCE OR OTHERWISE) ARISING IN ANY WAY
  60:C:/Users/dtjld/Desktop/AIoT_software/LiteOS_Lab_overseas/LiteOS_Lab/iot_link/network/lwm2m/wakaama_lwm2m/core/er-coap-13\er-coap-13.c ****  * OUT OF THE USE OF THIS SOFTWARE, EVEN IF ADVISED OF THE POSSIBILITY OF
  61:C:/Users/dtjld/Desktop/AIoT_software/LiteOS_Lab_overseas/LiteOS_Lab/iot_link/network/lwm2m/wakaama_lwm2m/core/er-coap-13\er-coap-13.c ****  * SUCH DAMAGE.
  62:C:/Users/dtjld/Desktop/AIoT_software/LiteOS_Lab_overseas/LiteOS_Lab/iot_link/network/lwm2m/wakaama_lwm2m/core/er-coap-13\er-coap-13.c ****  *
  63:C:/Users/dtjld/Desktop/AIoT_software/LiteOS_Lab_overseas/LiteOS_Lab/iot_link/network/lwm2m/wakaama_lwm2m/core/er-coap-13\er-coap-13.c ****  * This file is part of the Contiki operating system.
  64:C:/Users/dtjld/Desktop/AIoT_software/LiteOS_Lab_overseas/LiteOS_Lab/iot_link/network/lwm2m/wakaama_lwm2m/core/er-coap-13\er-coap-13.c ****  */
  65:C:/Users/dtjld/Desktop/AIoT_software/LiteOS_Lab_overseas/LiteOS_Lab/iot_link/network/lwm2m/wakaama_lwm2m/core/er-coap-13\er-coap-13.c **** 
  66:C:/Users/dtjld/Desktop/AIoT_software/LiteOS_Lab_overseas/LiteOS_Lab/iot_link/network/lwm2m/wakaama_lwm2m/core/er-coap-13\er-coap-13.c **** /**
  67:C:/Users/dtjld/Desktop/AIoT_software/LiteOS_Lab_overseas/LiteOS_Lab/iot_link/network/lwm2m/wakaama_lwm2m/core/er-coap-13\er-coap-13.c ****  * \file
  68:C:/Users/dtjld/Desktop/AIoT_software/LiteOS_Lab_overseas/LiteOS_Lab/iot_link/network/lwm2m/wakaama_lwm2m/core/er-coap-13\er-coap-13.c ****  *      An implementation of the Constrained Application Protocol (draft 12)
  69:C:/Users/dtjld/Desktop/AIoT_software/LiteOS_Lab_overseas/LiteOS_Lab/iot_link/network/lwm2m/wakaama_lwm2m/core/er-coap-13\er-coap-13.c ****  * \author
  70:C:/Users/dtjld/Desktop/AIoT_software/LiteOS_Lab_overseas/LiteOS_Lab/iot_link/network/lwm2m/wakaama_lwm2m/core/er-coap-13\er-coap-13.c ****  *      Matthias Kovatsch <kovatsch@inf.ethz.ch>
  71:C:/Users/dtjld/Desktop/AIoT_software/LiteOS_Lab_overseas/LiteOS_Lab/iot_link/network/lwm2m/wakaama_lwm2m/core/er-coap-13\er-coap-13.c ****  * \contributors
  72:C:/Users/dtjld/Desktop/AIoT_software/LiteOS_Lab_overseas/LiteOS_Lab/iot_link/network/lwm2m/wakaama_lwm2m/core/er-coap-13\er-coap-13.c ****  *    David Navarro, Intel Corporation - Adapt to usage in liblwm2m
ARM GAS  C:\Users\dtjld\AppData\Local\Temp\ccpI0fza.s 			page 3


  73:C:/Users/dtjld/Desktop/AIoT_software/LiteOS_Lab_overseas/LiteOS_Lab/iot_link/network/lwm2m/wakaama_lwm2m/core/er-coap-13\er-coap-13.c ****  */
  74:C:/Users/dtjld/Desktop/AIoT_software/LiteOS_Lab_overseas/LiteOS_Lab/iot_link/network/lwm2m/wakaama_lwm2m/core/er-coap-13\er-coap-13.c **** 
  75:C:/Users/dtjld/Desktop/AIoT_software/LiteOS_Lab_overseas/LiteOS_Lab/iot_link/network/lwm2m/wakaama_lwm2m/core/er-coap-13\er-coap-13.c **** 
  76:C:/Users/dtjld/Desktop/AIoT_software/LiteOS_Lab_overseas/LiteOS_Lab/iot_link/network/lwm2m/wakaama_lwm2m/core/er-coap-13\er-coap-13.c **** #include <stdlib.h>
  77:C:/Users/dtjld/Desktop/AIoT_software/LiteOS_Lab_overseas/LiteOS_Lab/iot_link/network/lwm2m/wakaama_lwm2m/core/er-coap-13\er-coap-13.c **** 
  78:C:/Users/dtjld/Desktop/AIoT_software/LiteOS_Lab_overseas/LiteOS_Lab/iot_link/network/lwm2m/wakaama_lwm2m/core/er-coap-13\er-coap-13.c **** #include <string.h>
  79:C:/Users/dtjld/Desktop/AIoT_software/LiteOS_Lab_overseas/LiteOS_Lab/iot_link/network/lwm2m/wakaama_lwm2m/core/er-coap-13\er-coap-13.c **** #include <stdio.h>
  80:C:/Users/dtjld/Desktop/AIoT_software/LiteOS_Lab_overseas/LiteOS_Lab/iot_link/network/lwm2m/wakaama_lwm2m/core/er-coap-13\er-coap-13.c **** 
  81:C:/Users/dtjld/Desktop/AIoT_software/LiteOS_Lab_overseas/LiteOS_Lab/iot_link/network/lwm2m/wakaama_lwm2m/core/er-coap-13\er-coap-13.c **** #include "er-coap-13.h"
  82:C:/Users/dtjld/Desktop/AIoT_software/LiteOS_Lab_overseas/LiteOS_Lab/iot_link/network/lwm2m/wakaama_lwm2m/core/er-coap-13\er-coap-13.c **** #include "internals.h"
  83:C:/Users/dtjld/Desktop/AIoT_software/LiteOS_Lab_overseas/LiteOS_Lab/iot_link/network/lwm2m/wakaama_lwm2m/core/er-coap-13\er-coap-13.c **** #include "liblwm2m.h" /* for lwm2m_malloc() and lwm2m_free() */
  84:C:/Users/dtjld/Desktop/AIoT_software/LiteOS_Lab_overseas/LiteOS_Lab/iot_link/network/lwm2m/wakaama_lwm2m/core/er-coap-13\er-coap-13.c **** 
  85:C:/Users/dtjld/Desktop/AIoT_software/LiteOS_Lab_overseas/LiteOS_Lab/iot_link/network/lwm2m/wakaama_lwm2m/core/er-coap-13\er-coap-13.c **** #define DEBUG 0
  86:C:/Users/dtjld/Desktop/AIoT_software/LiteOS_Lab_overseas/LiteOS_Lab/iot_link/network/lwm2m/wakaama_lwm2m/core/er-coap-13\er-coap-13.c **** #if DEBUG
  87:C:/Users/dtjld/Desktop/AIoT_software/LiteOS_Lab_overseas/LiteOS_Lab/iot_link/network/lwm2m/wakaama_lwm2m/core/er-coap-13\er-coap-13.c **** #include <stdio.h>
  88:C:/Users/dtjld/Desktop/AIoT_software/LiteOS_Lab_overseas/LiteOS_Lab/iot_link/network/lwm2m/wakaama_lwm2m/core/er-coap-13\er-coap-13.c **** #define PRINTF(...) printf(__VA_ARGS__)
  89:C:/Users/dtjld/Desktop/AIoT_software/LiteOS_Lab_overseas/LiteOS_Lab/iot_link/network/lwm2m/wakaama_lwm2m/core/er-coap-13\er-coap-13.c **** #define PRINT6ADDR(addr) PRINTF("[%02x%02x:%02x%02x:%02x%02x:%02x%02x:%02x%02x:%02x%02x:%02x%02x:%0
  90:C:/Users/dtjld/Desktop/AIoT_software/LiteOS_Lab_overseas/LiteOS_Lab/iot_link/network/lwm2m/wakaama_lwm2m/core/er-coap-13\er-coap-13.c **** #define PRINTLLADDR(lladdr) PRINTF("[%02x:%02x:%02x:%02x:%02x:%02x]",(lladdr)->addr[0], (lladdr)->a
  91:C:/Users/dtjld/Desktop/AIoT_software/LiteOS_Lab_overseas/LiteOS_Lab/iot_link/network/lwm2m/wakaama_lwm2m/core/er-coap-13\er-coap-13.c **** #else
  92:C:/Users/dtjld/Desktop/AIoT_software/LiteOS_Lab_overseas/LiteOS_Lab/iot_link/network/lwm2m/wakaama_lwm2m/core/er-coap-13\er-coap-13.c **** #define PRINTF(...)
  93:C:/Users/dtjld/Desktop/AIoT_software/LiteOS_Lab_overseas/LiteOS_Lab/iot_link/network/lwm2m/wakaama_lwm2m/core/er-coap-13\er-coap-13.c **** #define PRINT6ADDR(addr)
  94:C:/Users/dtjld/Desktop/AIoT_software/LiteOS_Lab_overseas/LiteOS_Lab/iot_link/network/lwm2m/wakaama_lwm2m/core/er-coap-13\er-coap-13.c **** #define PRINTLLADDR(addr)
  95:C:/Users/dtjld/Desktop/AIoT_software/LiteOS_Lab_overseas/LiteOS_Lab/iot_link/network/lwm2m/wakaama_lwm2m/core/er-coap-13\er-coap-13.c **** #endif
  96:C:/Users/dtjld/Desktop/AIoT_software/LiteOS_Lab_overseas/LiteOS_Lab/iot_link/network/lwm2m/wakaama_lwm2m/core/er-coap-13\er-coap-13.c **** 
  97:C:/Users/dtjld/Desktop/AIoT_software/LiteOS_Lab_overseas/LiteOS_Lab/iot_link/network/lwm2m/wakaama_lwm2m/core/er-coap-13\er-coap-13.c **** /*-----------------------------------------------------------------------------------*/
  98:C:/Users/dtjld/Desktop/AIoT_software/LiteOS_Lab_overseas/LiteOS_Lab/iot_link/network/lwm2m/wakaama_lwm2m/core/er-coap-13\er-coap-13.c **** /*- Variables -----------------------------------------------------------------------*/
  99:C:/Users/dtjld/Desktop/AIoT_software/LiteOS_Lab_overseas/LiteOS_Lab/iot_link/network/lwm2m/wakaama_lwm2m/core/er-coap-13\er-coap-13.c **** /*-----------------------------------------------------------------------------------*/
 100:C:/Users/dtjld/Desktop/AIoT_software/LiteOS_Lab_overseas/LiteOS_Lab/iot_link/network/lwm2m/wakaama_lwm2m/core/er-coap-13\er-coap-13.c **** static uint16_t current_mid = 0;
 101:C:/Users/dtjld/Desktop/AIoT_software/LiteOS_Lab_overseas/LiteOS_Lab/iot_link/network/lwm2m/wakaama_lwm2m/core/er-coap-13\er-coap-13.c **** 
 102:C:/Users/dtjld/Desktop/AIoT_software/LiteOS_Lab_overseas/LiteOS_Lab/iot_link/network/lwm2m/wakaama_lwm2m/core/er-coap-13\er-coap-13.c **** coap_status_t coap_error_code = NO_ERROR;
 103:C:/Users/dtjld/Desktop/AIoT_software/LiteOS_Lab_overseas/LiteOS_Lab/iot_link/network/lwm2m/wakaama_lwm2m/core/er-coap-13\er-coap-13.c **** const char *coap_error_message = "";
 104:C:/Users/dtjld/Desktop/AIoT_software/LiteOS_Lab_overseas/LiteOS_Lab/iot_link/network/lwm2m/wakaama_lwm2m/core/er-coap-13\er-coap-13.c **** /*-----------------------------------------------------------------------------------*/
 105:C:/Users/dtjld/Desktop/AIoT_software/LiteOS_Lab_overseas/LiteOS_Lab/iot_link/network/lwm2m/wakaama_lwm2m/core/er-coap-13\er-coap-13.c **** /*- LOCAL HELP FUNCTIONS ------------------------------------------------------------*/
 106:C:/Users/dtjld/Desktop/AIoT_software/LiteOS_Lab_overseas/LiteOS_Lab/iot_link/network/lwm2m/wakaama_lwm2m/core/er-coap-13\er-coap-13.c **** /*-----------------------------------------------------------------------------------*/
 107:C:/Users/dtjld/Desktop/AIoT_software/LiteOS_Lab_overseas/LiteOS_Lab/iot_link/network/lwm2m/wakaama_lwm2m/core/er-coap-13\er-coap-13.c **** static
 108:C:/Users/dtjld/Desktop/AIoT_software/LiteOS_Lab_overseas/LiteOS_Lab/iot_link/network/lwm2m/wakaama_lwm2m/core/er-coap-13\er-coap-13.c **** uint16_t
 109:C:/Users/dtjld/Desktop/AIoT_software/LiteOS_Lab_overseas/LiteOS_Lab/iot_link/network/lwm2m/wakaama_lwm2m/core/er-coap-13\er-coap-13.c **** coap_log_2(uint16_t value)
 110:C:/Users/dtjld/Desktop/AIoT_software/LiteOS_Lab_overseas/LiteOS_Lab/iot_link/network/lwm2m/wakaama_lwm2m/core/er-coap-13\er-coap-13.c **** {
  50              		.loc 1 110 0
  51              		.cfi_startproc
  52              		@ args = 0, pretend = 0, frame = 16
  53              		@ frame_needed = 1, uses_anonymous_args = 0
  54              		@ link register save eliminated.
  55 0000 80B4     		push	{r7}
  56              	.LCFI0:
  57              		.cfi_def_cfa_offset 4
  58              		.cfi_offset 7, -4
  59 0002 85B0     		sub	sp, sp, #20
  60              	.LCFI1:
  61              		.cfi_def_cfa_offset 24
  62 0004 00AF     		add	r7, sp, #0
  63              	.LCFI2:
  64              		.cfi_def_cfa_register 7
  65 0006 0346     		mov	r3, r0
  66 0008 FB80     		strh	r3, [r7, #6]	@ movhi
 111:C:/Users/dtjld/Desktop/AIoT_software/LiteOS_Lab_overseas/LiteOS_Lab/iot_link/network/lwm2m/wakaama_lwm2m/core/er-coap-13\er-coap-13.c ****     uint16_t result = 0;
  67              		.loc 1 111 0
ARM GAS  C:\Users\dtjld\AppData\Local\Temp\ccpI0fza.s 			page 4


  68 000a 0023     		movs	r3, #0
  69 000c FB81     		strh	r3, [r7, #14]	@ movhi
  70              	.L2:
 112:C:/Users/dtjld/Desktop/AIoT_software/LiteOS_Lab_overseas/LiteOS_Lab/iot_link/network/lwm2m/wakaama_lwm2m/core/er-coap-13\er-coap-13.c ****     do
 113:C:/Users/dtjld/Desktop/AIoT_software/LiteOS_Lab_overseas/LiteOS_Lab/iot_link/network/lwm2m/wakaama_lwm2m/core/er-coap-13\er-coap-13.c ****     {
 114:C:/Users/dtjld/Desktop/AIoT_software/LiteOS_Lab_overseas/LiteOS_Lab/iot_link/network/lwm2m/wakaama_lwm2m/core/er-coap-13\er-coap-13.c ****         value = value >> 1;
  71              		.loc 1 114 0 discriminator 1
  72 000e FB88     		ldrh	r3, [r7, #6]
  73 0010 5B08     		lsrs	r3, r3, #1
  74 0012 FB80     		strh	r3, [r7, #6]	@ movhi
 115:C:/Users/dtjld/Desktop/AIoT_software/LiteOS_Lab_overseas/LiteOS_Lab/iot_link/network/lwm2m/wakaama_lwm2m/core/er-coap-13\er-coap-13.c ****         result++;
  75              		.loc 1 115 0 discriminator 1
  76 0014 FB89     		ldrh	r3, [r7, #14]
  77 0016 0133     		adds	r3, r3, #1
  78 0018 FB81     		strh	r3, [r7, #14]	@ movhi
 116:C:/Users/dtjld/Desktop/AIoT_software/LiteOS_Lab_overseas/LiteOS_Lab/iot_link/network/lwm2m/wakaama_lwm2m/core/er-coap-13\er-coap-13.c ****     }
 117:C:/Users/dtjld/Desktop/AIoT_software/LiteOS_Lab_overseas/LiteOS_Lab/iot_link/network/lwm2m/wakaama_lwm2m/core/er-coap-13\er-coap-13.c ****     while (value);
  79              		.loc 1 117 0 discriminator 1
  80 001a FB88     		ldrh	r3, [r7, #6]
  81 001c 002B     		cmp	r3, #0
  82 001e F6D1     		bne	.L2
 118:C:/Users/dtjld/Desktop/AIoT_software/LiteOS_Lab_overseas/LiteOS_Lab/iot_link/network/lwm2m/wakaama_lwm2m/core/er-coap-13\er-coap-13.c **** 
 119:C:/Users/dtjld/Desktop/AIoT_software/LiteOS_Lab_overseas/LiteOS_Lab/iot_link/network/lwm2m/wakaama_lwm2m/core/er-coap-13\er-coap-13.c ****     return result ? result - 1 : result;
  83              		.loc 1 119 0
  84 0020 FB89     		ldrh	r3, [r7, #14]
  85 0022 002B     		cmp	r3, #0
  86 0024 03D0     		beq	.L3
  87              		.loc 1 119 0 is_stmt 0 discriminator 1
  88 0026 FB89     		ldrh	r3, [r7, #14]	@ movhi
  89 0028 013B     		subs	r3, r3, #1
  90 002a 9BB2     		uxth	r3, r3
  91 002c 00E0     		b	.L4
  92              	.L3:
  93              		.loc 1 119 0 discriminator 2
  94 002e FB89     		ldrh	r3, [r7, #14]
  95              	.L4:
 120:C:/Users/dtjld/Desktop/AIoT_software/LiteOS_Lab_overseas/LiteOS_Lab/iot_link/network/lwm2m/wakaama_lwm2m/core/er-coap-13\er-coap-13.c **** }
  96              		.loc 1 120 0 is_stmt 1 discriminator 4
  97 0030 1846     		mov	r0, r3
  98 0032 1437     		adds	r7, r7, #20
  99              	.LCFI3:
 100              		.cfi_def_cfa_offset 4
 101 0034 BD46     		mov	sp, r7
 102              	.LCFI4:
 103              		.cfi_def_cfa_register 13
 104              		@ sp needed
 105 0036 5DF8047B 		ldr	r7, [sp], #4
 106              	.LCFI5:
 107              		.cfi_restore 7
 108              		.cfi_def_cfa_offset 0
 109 003a 7047     		bx	lr
 110              		.cfi_endproc
 111              	.LFE4:
 113              		.section	.text.coap_parse_int_option,"ax",%progbits
 114              		.align	1
 115              		.syntax unified
 116              		.thumb
ARM GAS  C:\Users\dtjld\AppData\Local\Temp\ccpI0fza.s 			page 5


 117              		.thumb_func
 118              		.fpu fpv4-sp-d16
 120              	coap_parse_int_option:
 121              	.LFB5:
 121:C:/Users/dtjld/Desktop/AIoT_software/LiteOS_Lab_overseas/LiteOS_Lab/iot_link/network/lwm2m/wakaama_lwm2m/core/er-coap-13\er-coap-13.c **** /*-----------------------------------------------------------------------------------*/
 122:C:/Users/dtjld/Desktop/AIoT_software/LiteOS_Lab_overseas/LiteOS_Lab/iot_link/network/lwm2m/wakaama_lwm2m/core/er-coap-13\er-coap-13.c **** static
 123:C:/Users/dtjld/Desktop/AIoT_software/LiteOS_Lab_overseas/LiteOS_Lab/iot_link/network/lwm2m/wakaama_lwm2m/core/er-coap-13\er-coap-13.c **** uint32_t
 124:C:/Users/dtjld/Desktop/AIoT_software/LiteOS_Lab_overseas/LiteOS_Lab/iot_link/network/lwm2m/wakaama_lwm2m/core/er-coap-13\er-coap-13.c **** coap_parse_int_option(uint8_t *bytes, size_t length)
 125:C:/Users/dtjld/Desktop/AIoT_software/LiteOS_Lab_overseas/LiteOS_Lab/iot_link/network/lwm2m/wakaama_lwm2m/core/er-coap-13\er-coap-13.c **** {
 122              		.loc 1 125 0
 123              		.cfi_startproc
 124              		@ args = 0, pretend = 0, frame = 16
 125              		@ frame_needed = 1, uses_anonymous_args = 0
 126              		@ link register save eliminated.
 127 0000 80B4     		push	{r7}
 128              	.LCFI6:
 129              		.cfi_def_cfa_offset 4
 130              		.cfi_offset 7, -4
 131 0002 85B0     		sub	sp, sp, #20
 132              	.LCFI7:
 133              		.cfi_def_cfa_offset 24
 134 0004 00AF     		add	r7, sp, #0
 135              	.LCFI8:
 136              		.cfi_def_cfa_register 7
 137 0006 7860     		str	r0, [r7, #4]
 138 0008 3960     		str	r1, [r7]
 126:C:/Users/dtjld/Desktop/AIoT_software/LiteOS_Lab_overseas/LiteOS_Lab/iot_link/network/lwm2m/wakaama_lwm2m/core/er-coap-13\er-coap-13.c ****     uint32_t var = 0;
 139              		.loc 1 126 0
 140 000a 0023     		movs	r3, #0
 141 000c FB60     		str	r3, [r7, #12]
 127:C:/Users/dtjld/Desktop/AIoT_software/LiteOS_Lab_overseas/LiteOS_Lab/iot_link/network/lwm2m/wakaama_lwm2m/core/er-coap-13\er-coap-13.c ****     size_t i = 0;
 142              		.loc 1 127 0
 143 000e 0023     		movs	r3, #0
 144 0010 BB60     		str	r3, [r7, #8]
 128:C:/Users/dtjld/Desktop/AIoT_software/LiteOS_Lab_overseas/LiteOS_Lab/iot_link/network/lwm2m/wakaama_lwm2m/core/er-coap-13\er-coap-13.c ****     while (i < length)
 145              		.loc 1 128 0
 146 0012 0CE0     		b	.L7
 147              	.L8:
 129:C:/Users/dtjld/Desktop/AIoT_software/LiteOS_Lab_overseas/LiteOS_Lab/iot_link/network/lwm2m/wakaama_lwm2m/core/er-coap-13\er-coap-13.c ****     {
 130:C:/Users/dtjld/Desktop/AIoT_software/LiteOS_Lab_overseas/LiteOS_Lab/iot_link/network/lwm2m/wakaama_lwm2m/core/er-coap-13\er-coap-13.c ****         var <<= 8;
 148              		.loc 1 130 0
 149 0014 FB68     		ldr	r3, [r7, #12]
 150 0016 1B02     		lsls	r3, r3, #8
 151 0018 FB60     		str	r3, [r7, #12]
 131:C:/Users/dtjld/Desktop/AIoT_software/LiteOS_Lab_overseas/LiteOS_Lab/iot_link/network/lwm2m/wakaama_lwm2m/core/er-coap-13\er-coap-13.c ****         var |= bytes[i++];
 152              		.loc 1 131 0
 153 001a BB68     		ldr	r3, [r7, #8]
 154 001c 5A1C     		adds	r2, r3, #1
 155 001e BA60     		str	r2, [r7, #8]
 156 0020 7A68     		ldr	r2, [r7, #4]
 157 0022 1344     		add	r3, r3, r2
 158 0024 1B78     		ldrb	r3, [r3]	@ zero_extendqisi2
 159 0026 1A46     		mov	r2, r3
 160 0028 FB68     		ldr	r3, [r7, #12]
 161 002a 1343     		orrs	r3, r3, r2
 162 002c FB60     		str	r3, [r7, #12]
 163              	.L7:
ARM GAS  C:\Users\dtjld\AppData\Local\Temp\ccpI0fza.s 			page 6


 128:C:/Users/dtjld/Desktop/AIoT_software/LiteOS_Lab_overseas/LiteOS_Lab/iot_link/network/lwm2m/wakaama_lwm2m/core/er-coap-13\er-coap-13.c ****     while (i < length)
 164              		.loc 1 128 0
 165 002e BA68     		ldr	r2, [r7, #8]
 166 0030 3B68     		ldr	r3, [r7]
 167 0032 9A42     		cmp	r2, r3
 168 0034 EED3     		bcc	.L8
 132:C:/Users/dtjld/Desktop/AIoT_software/LiteOS_Lab_overseas/LiteOS_Lab/iot_link/network/lwm2m/wakaama_lwm2m/core/er-coap-13\er-coap-13.c ****     }
 133:C:/Users/dtjld/Desktop/AIoT_software/LiteOS_Lab_overseas/LiteOS_Lab/iot_link/network/lwm2m/wakaama_lwm2m/core/er-coap-13\er-coap-13.c ****     return var;
 169              		.loc 1 133 0
 170 0036 FB68     		ldr	r3, [r7, #12]
 134:C:/Users/dtjld/Desktop/AIoT_software/LiteOS_Lab_overseas/LiteOS_Lab/iot_link/network/lwm2m/wakaama_lwm2m/core/er-coap-13\er-coap-13.c **** }
 171              		.loc 1 134 0
 172 0038 1846     		mov	r0, r3
 173 003a 1437     		adds	r7, r7, #20
 174              	.LCFI9:
 175              		.cfi_def_cfa_offset 4
 176 003c BD46     		mov	sp, r7
 177              	.LCFI10:
 178              		.cfi_def_cfa_register 13
 179              		@ sp needed
 180 003e 5DF8047B 		ldr	r7, [sp], #4
 181              	.LCFI11:
 182              		.cfi_restore 7
 183              		.cfi_def_cfa_offset 0
 184 0042 7047     		bx	lr
 185              		.cfi_endproc
 186              	.LFE5:
 188              		.section	.text.coap_option_nibble,"ax",%progbits
 189              		.align	1
 190              		.syntax unified
 191              		.thumb
 192              		.thumb_func
 193              		.fpu fpv4-sp-d16
 195              	coap_option_nibble:
 196              	.LFB6:
 135:C:/Users/dtjld/Desktop/AIoT_software/LiteOS_Lab_overseas/LiteOS_Lab/iot_link/network/lwm2m/wakaama_lwm2m/core/er-coap-13\er-coap-13.c **** /*-----------------------------------------------------------------------------------*/
 136:C:/Users/dtjld/Desktop/AIoT_software/LiteOS_Lab_overseas/LiteOS_Lab/iot_link/network/lwm2m/wakaama_lwm2m/core/er-coap-13\er-coap-13.c **** static
 137:C:/Users/dtjld/Desktop/AIoT_software/LiteOS_Lab_overseas/LiteOS_Lab/iot_link/network/lwm2m/wakaama_lwm2m/core/er-coap-13\er-coap-13.c **** uint8_t
 138:C:/Users/dtjld/Desktop/AIoT_software/LiteOS_Lab_overseas/LiteOS_Lab/iot_link/network/lwm2m/wakaama_lwm2m/core/er-coap-13\er-coap-13.c **** coap_option_nibble(unsigned int value)
 139:C:/Users/dtjld/Desktop/AIoT_software/LiteOS_Lab_overseas/LiteOS_Lab/iot_link/network/lwm2m/wakaama_lwm2m/core/er-coap-13\er-coap-13.c **** {
 197              		.loc 1 139 0
 198              		.cfi_startproc
 199              		@ args = 0, pretend = 0, frame = 8
 200              		@ frame_needed = 1, uses_anonymous_args = 0
 201              		@ link register save eliminated.
 202 0000 80B4     		push	{r7}
 203              	.LCFI12:
 204              		.cfi_def_cfa_offset 4
 205              		.cfi_offset 7, -4
 206 0002 83B0     		sub	sp, sp, #12
 207              	.LCFI13:
 208              		.cfi_def_cfa_offset 16
 209 0004 00AF     		add	r7, sp, #0
 210              	.LCFI14:
 211              		.cfi_def_cfa_register 7
 212 0006 7860     		str	r0, [r7, #4]
 140:C:/Users/dtjld/Desktop/AIoT_software/LiteOS_Lab_overseas/LiteOS_Lab/iot_link/network/lwm2m/wakaama_lwm2m/core/er-coap-13\er-coap-13.c ****     if (value < 13)
ARM GAS  C:\Users\dtjld\AppData\Local\Temp\ccpI0fza.s 			page 7


 213              		.loc 1 140 0
 214 0008 7B68     		ldr	r3, [r7, #4]
 215 000a 0C2B     		cmp	r3, #12
 216 000c 02D8     		bhi	.L11
 141:C:/Users/dtjld/Desktop/AIoT_software/LiteOS_Lab_overseas/LiteOS_Lab/iot_link/network/lwm2m/wakaama_lwm2m/core/er-coap-13\er-coap-13.c ****     {
 142:C:/Users/dtjld/Desktop/AIoT_software/LiteOS_Lab_overseas/LiteOS_Lab/iot_link/network/lwm2m/wakaama_lwm2m/core/er-coap-13\er-coap-13.c ****         return value;
 217              		.loc 1 142 0
 218 000e 7B68     		ldr	r3, [r7, #4]
 219 0010 DBB2     		uxtb	r3, r3
 220 0012 06E0     		b	.L12
 221              	.L11:
 143:C:/Users/dtjld/Desktop/AIoT_software/LiteOS_Lab_overseas/LiteOS_Lab/iot_link/network/lwm2m/wakaama_lwm2m/core/er-coap-13\er-coap-13.c ****     }
 144:C:/Users/dtjld/Desktop/AIoT_software/LiteOS_Lab_overseas/LiteOS_Lab/iot_link/network/lwm2m/wakaama_lwm2m/core/er-coap-13\er-coap-13.c ****     else if (value <= 0xFF + 13)
 222              		.loc 1 144 0
 223 0014 7B68     		ldr	r3, [r7, #4]
 224 0016 B3F5867F 		cmp	r3, #268
 225 001a 01D8     		bhi	.L13
 145:C:/Users/dtjld/Desktop/AIoT_software/LiteOS_Lab_overseas/LiteOS_Lab/iot_link/network/lwm2m/wakaama_lwm2m/core/er-coap-13\er-coap-13.c ****     {
 146:C:/Users/dtjld/Desktop/AIoT_software/LiteOS_Lab_overseas/LiteOS_Lab/iot_link/network/lwm2m/wakaama_lwm2m/core/er-coap-13\er-coap-13.c ****         return 13;
 226              		.loc 1 146 0
 227 001c 0D23     		movs	r3, #13
 228 001e 00E0     		b	.L12
 229              	.L13:
 147:C:/Users/dtjld/Desktop/AIoT_software/LiteOS_Lab_overseas/LiteOS_Lab/iot_link/network/lwm2m/wakaama_lwm2m/core/er-coap-13\er-coap-13.c ****     }
 148:C:/Users/dtjld/Desktop/AIoT_software/LiteOS_Lab_overseas/LiteOS_Lab/iot_link/network/lwm2m/wakaama_lwm2m/core/er-coap-13\er-coap-13.c ****     else
 149:C:/Users/dtjld/Desktop/AIoT_software/LiteOS_Lab_overseas/LiteOS_Lab/iot_link/network/lwm2m/wakaama_lwm2m/core/er-coap-13\er-coap-13.c ****     {
 150:C:/Users/dtjld/Desktop/AIoT_software/LiteOS_Lab_overseas/LiteOS_Lab/iot_link/network/lwm2m/wakaama_lwm2m/core/er-coap-13\er-coap-13.c ****         return 14;
 230              		.loc 1 150 0
 231 0020 0E23     		movs	r3, #14
 232              	.L12:
 151:C:/Users/dtjld/Desktop/AIoT_software/LiteOS_Lab_overseas/LiteOS_Lab/iot_link/network/lwm2m/wakaama_lwm2m/core/er-coap-13\er-coap-13.c ****     }
 152:C:/Users/dtjld/Desktop/AIoT_software/LiteOS_Lab_overseas/LiteOS_Lab/iot_link/network/lwm2m/wakaama_lwm2m/core/er-coap-13\er-coap-13.c **** }
 233              		.loc 1 152 0
 234 0022 1846     		mov	r0, r3
 235 0024 0C37     		adds	r7, r7, #12
 236              	.LCFI15:
 237              		.cfi_def_cfa_offset 4
 238 0026 BD46     		mov	sp, r7
 239              	.LCFI16:
 240              		.cfi_def_cfa_register 13
 241              		@ sp needed
 242 0028 5DF8047B 		ldr	r7, [sp], #4
 243              	.LCFI17:
 244              		.cfi_restore 7
 245              		.cfi_def_cfa_offset 0
 246 002c 7047     		bx	lr
 247              		.cfi_endproc
 248              	.LFE6:
 250              		.section	.text.coap_set_option_header,"ax",%progbits
 251              		.align	1
 252              		.syntax unified
 253              		.thumb
 254              		.thumb_func
 255              		.fpu fpv4-sp-d16
 257              	coap_set_option_header:
 258              	.LFB7:
 153:C:/Users/dtjld/Desktop/AIoT_software/LiteOS_Lab_overseas/LiteOS_Lab/iot_link/network/lwm2m/wakaama_lwm2m/core/er-coap-13\er-coap-13.c **** /*-----------------------------------------------------------------------------------*/
ARM GAS  C:\Users\dtjld\AppData\Local\Temp\ccpI0fza.s 			page 8


 154:C:/Users/dtjld/Desktop/AIoT_software/LiteOS_Lab_overseas/LiteOS_Lab/iot_link/network/lwm2m/wakaama_lwm2m/core/er-coap-13\er-coap-13.c **** static
 155:C:/Users/dtjld/Desktop/AIoT_software/LiteOS_Lab_overseas/LiteOS_Lab/iot_link/network/lwm2m/wakaama_lwm2m/core/er-coap-13\er-coap-13.c **** size_t
 156:C:/Users/dtjld/Desktop/AIoT_software/LiteOS_Lab_overseas/LiteOS_Lab/iot_link/network/lwm2m/wakaama_lwm2m/core/er-coap-13\er-coap-13.c **** coap_set_option_header(unsigned int delta, size_t length, uint8_t *buffer)
 157:C:/Users/dtjld/Desktop/AIoT_software/LiteOS_Lab_overseas/LiteOS_Lab/iot_link/network/lwm2m/wakaama_lwm2m/core/er-coap-13\er-coap-13.c **** {
 259              		.loc 1 157 0
 260              		.cfi_startproc
 261              		@ args = 0, pretend = 0, frame = 24
 262              		@ frame_needed = 1, uses_anonymous_args = 0
 263 0000 90B5     		push	{r4, r7, lr}
 264              	.LCFI18:
 265              		.cfi_def_cfa_offset 12
 266              		.cfi_offset 4, -12
 267              		.cfi_offset 7, -8
 268              		.cfi_offset 14, -4
 269 0002 87B0     		sub	sp, sp, #28
 270              	.LCFI19:
 271              		.cfi_def_cfa_offset 40
 272 0004 00AF     		add	r7, sp, #0
 273              	.LCFI20:
 274              		.cfi_def_cfa_register 7
 275 0006 F860     		str	r0, [r7, #12]
 276 0008 B960     		str	r1, [r7, #8]
 277 000a 7A60     		str	r2, [r7, #4]
 158:C:/Users/dtjld/Desktop/AIoT_software/LiteOS_Lab_overseas/LiteOS_Lab/iot_link/network/lwm2m/wakaama_lwm2m/core/er-coap-13\er-coap-13.c ****     size_t written = 0;
 278              		.loc 1 158 0
 279 000c 0023     		movs	r3, #0
 280 000e 7B61     		str	r3, [r7, #20]
 159:C:/Users/dtjld/Desktop/AIoT_software/LiteOS_Lab_overseas/LiteOS_Lab/iot_link/network/lwm2m/wakaama_lwm2m/core/er-coap-13\er-coap-13.c ****     unsigned int *x = &delta;
 281              		.loc 1 159 0
 282 0010 07F10C03 		add	r3, r7, #12
 283 0014 3B61     		str	r3, [r7, #16]
 160:C:/Users/dtjld/Desktop/AIoT_software/LiteOS_Lab_overseas/LiteOS_Lab/iot_link/network/lwm2m/wakaama_lwm2m/core/er-coap-13\er-coap-13.c **** 
 161:C:/Users/dtjld/Desktop/AIoT_software/LiteOS_Lab_overseas/LiteOS_Lab/iot_link/network/lwm2m/wakaama_lwm2m/core/er-coap-13\er-coap-13.c ****     buffer[0] = coap_option_nibble(delta) << 4 | coap_option_nibble(length);
 284              		.loc 1 161 0
 285 0016 FB68     		ldr	r3, [r7, #12]
 286 0018 1846     		mov	r0, r3
 287 001a FFF7FEFF 		bl	coap_option_nibble
 288 001e 0346     		mov	r3, r0
 289 0020 1B01     		lsls	r3, r3, #4
 290 0022 5CB2     		sxtb	r4, r3
 291 0024 BB68     		ldr	r3, [r7, #8]
 292 0026 1846     		mov	r0, r3
 293 0028 FFF7FEFF 		bl	coap_option_nibble
 294 002c 0346     		mov	r3, r0
 295 002e 5BB2     		sxtb	r3, r3
 296 0030 2343     		orrs	r3, r3, r4
 297 0032 5BB2     		sxtb	r3, r3
 298 0034 DAB2     		uxtb	r2, r3
 299 0036 7B68     		ldr	r3, [r7, #4]
 300 0038 1A70     		strb	r2, [r3]
 301              	.L18:
 162:C:/Users/dtjld/Desktop/AIoT_software/LiteOS_Lab_overseas/LiteOS_Lab/iot_link/network/lwm2m/wakaama_lwm2m/core/er-coap-13\er-coap-13.c **** 
 163:C:/Users/dtjld/Desktop/AIoT_software/LiteOS_Lab_overseas/LiteOS_Lab/iot_link/network/lwm2m/wakaama_lwm2m/core/er-coap-13\er-coap-13.c ****     /* avoids code duplication without function overhead */
 164:C:/Users/dtjld/Desktop/AIoT_software/LiteOS_Lab_overseas/LiteOS_Lab/iot_link/network/lwm2m/wakaama_lwm2m/core/er-coap-13\er-coap-13.c ****     do
 165:C:/Users/dtjld/Desktop/AIoT_software/LiteOS_Lab_overseas/LiteOS_Lab/iot_link/network/lwm2m/wakaama_lwm2m/core/er-coap-13\er-coap-13.c ****     {
 166:C:/Users/dtjld/Desktop/AIoT_software/LiteOS_Lab_overseas/LiteOS_Lab/iot_link/network/lwm2m/wakaama_lwm2m/core/er-coap-13\er-coap-13.c ****         if (*x > 268)
 302              		.loc 1 166 0
ARM GAS  C:\Users\dtjld\AppData\Local\Temp\ccpI0fza.s 			page 9


 303 003a 3B69     		ldr	r3, [r7, #16]
 304 003c 1B68     		ldr	r3, [r3]
 305 003e B3F5867F 		cmp	r3, #268
 306 0042 19D9     		bls	.L15
 167:C:/Users/dtjld/Desktop/AIoT_software/LiteOS_Lab_overseas/LiteOS_Lab/iot_link/network/lwm2m/wakaama_lwm2m/core/er-coap-13\er-coap-13.c ****         {
 168:C:/Users/dtjld/Desktop/AIoT_software/LiteOS_Lab_overseas/LiteOS_Lab/iot_link/network/lwm2m/wakaama_lwm2m/core/er-coap-13\er-coap-13.c ****             buffer[++written] = (*x - 269) >> 8;
 307              		.loc 1 168 0
 308 0044 3B69     		ldr	r3, [r7, #16]
 309 0046 1B68     		ldr	r3, [r3]
 310 0048 A3F20D13 		subw	r3, r3, #269
 311 004c 190A     		lsrs	r1, r3, #8
 312 004e 7B69     		ldr	r3, [r7, #20]
 313 0050 0133     		adds	r3, r3, #1
 314 0052 7B61     		str	r3, [r7, #20]
 315 0054 7A68     		ldr	r2, [r7, #4]
 316 0056 7B69     		ldr	r3, [r7, #20]
 317 0058 1344     		add	r3, r3, r2
 318 005a CAB2     		uxtb	r2, r1
 319 005c 1A70     		strb	r2, [r3]
 169:C:/Users/dtjld/Desktop/AIoT_software/LiteOS_Lab_overseas/LiteOS_Lab/iot_link/network/lwm2m/wakaama_lwm2m/core/er-coap-13\er-coap-13.c ****             buffer[++written] = (*x - 269);
 320              		.loc 1 169 0
 321 005e 3B69     		ldr	r3, [r7, #16]
 322 0060 1B68     		ldr	r3, [r3]
 323 0062 DAB2     		uxtb	r2, r3
 324 0064 7B69     		ldr	r3, [r7, #20]
 325 0066 0133     		adds	r3, r3, #1
 326 0068 7B61     		str	r3, [r7, #20]
 327 006a 7968     		ldr	r1, [r7, #4]
 328 006c 7B69     		ldr	r3, [r7, #20]
 329 006e 0B44     		add	r3, r3, r1
 330 0070 0D3A     		subs	r2, r2, #13
 331 0072 D2B2     		uxtb	r2, r2
 332 0074 1A70     		strb	r2, [r3]
 333 0076 0FE0     		b	.L16
 334              	.L15:
 170:C:/Users/dtjld/Desktop/AIoT_software/LiteOS_Lab_overseas/LiteOS_Lab/iot_link/network/lwm2m/wakaama_lwm2m/core/er-coap-13\er-coap-13.c ****         }
 171:C:/Users/dtjld/Desktop/AIoT_software/LiteOS_Lab_overseas/LiteOS_Lab/iot_link/network/lwm2m/wakaama_lwm2m/core/er-coap-13\er-coap-13.c ****         else if (*x > 12)
 335              		.loc 1 171 0
 336 0078 3B69     		ldr	r3, [r7, #16]
 337 007a 1B68     		ldr	r3, [r3]
 338 007c 0C2B     		cmp	r3, #12
 339 007e 0BD9     		bls	.L16
 172:C:/Users/dtjld/Desktop/AIoT_software/LiteOS_Lab_overseas/LiteOS_Lab/iot_link/network/lwm2m/wakaama_lwm2m/core/er-coap-13\er-coap-13.c ****         {
 173:C:/Users/dtjld/Desktop/AIoT_software/LiteOS_Lab_overseas/LiteOS_Lab/iot_link/network/lwm2m/wakaama_lwm2m/core/er-coap-13\er-coap-13.c ****             buffer[++written] = (*x - 13);
 340              		.loc 1 173 0
 341 0080 3B69     		ldr	r3, [r7, #16]
 342 0082 1B68     		ldr	r3, [r3]
 343 0084 DAB2     		uxtb	r2, r3
 344 0086 7B69     		ldr	r3, [r7, #20]
 345 0088 0133     		adds	r3, r3, #1
 346 008a 7B61     		str	r3, [r7, #20]
 347 008c 7968     		ldr	r1, [r7, #4]
 348 008e 7B69     		ldr	r3, [r7, #20]
 349 0090 0B44     		add	r3, r3, r1
 350 0092 0D3A     		subs	r2, r2, #13
 351 0094 D2B2     		uxtb	r2, r2
 352 0096 1A70     		strb	r2, [r3]
ARM GAS  C:\Users\dtjld\AppData\Local\Temp\ccpI0fza.s 			page 10


 353              	.L16:
 174:C:/Users/dtjld/Desktop/AIoT_software/LiteOS_Lab_overseas/LiteOS_Lab/iot_link/network/lwm2m/wakaama_lwm2m/core/er-coap-13\er-coap-13.c ****         }
 175:C:/Users/dtjld/Desktop/AIoT_software/LiteOS_Lab_overseas/LiteOS_Lab/iot_link/network/lwm2m/wakaama_lwm2m/core/er-coap-13\er-coap-13.c ****     }
 176:C:/Users/dtjld/Desktop/AIoT_software/LiteOS_Lab_overseas/LiteOS_Lab/iot_link/network/lwm2m/wakaama_lwm2m/core/er-coap-13\er-coap-13.c ****     while (x != (unsigned int *)&length && NULL != (x = (unsigned int *)&length));
 354              		.loc 1 176 0
 355 0098 07F10803 		add	r3, r7, #8
 356 009c 3A69     		ldr	r2, [r7, #16]
 357 009e 9A42     		cmp	r2, r3
 358 00a0 03D0     		beq	.L17
 359              		.loc 1 176 0 is_stmt 0 discriminator 1
 360 00a2 07F10803 		add	r3, r7, #8
 361 00a6 3B61     		str	r3, [r7, #16]
 362 00a8 C7E7     		b	.L18
 363              	.L17:
 177:C:/Users/dtjld/Desktop/AIoT_software/LiteOS_Lab_overseas/LiteOS_Lab/iot_link/network/lwm2m/wakaama_lwm2m/core/er-coap-13\er-coap-13.c **** 
 178:C:/Users/dtjld/Desktop/AIoT_software/LiteOS_Lab_overseas/LiteOS_Lab/iot_link/network/lwm2m/wakaama_lwm2m/core/er-coap-13\er-coap-13.c ****     PRINTF("WRITTEN %u B opt header\n", written);
 179:C:/Users/dtjld/Desktop/AIoT_software/LiteOS_Lab_overseas/LiteOS_Lab/iot_link/network/lwm2m/wakaama_lwm2m/core/er-coap-13\er-coap-13.c **** 
 180:C:/Users/dtjld/Desktop/AIoT_software/LiteOS_Lab_overseas/LiteOS_Lab/iot_link/network/lwm2m/wakaama_lwm2m/core/er-coap-13\er-coap-13.c ****     return ++written;
 364              		.loc 1 180 0 is_stmt 1
 365 00aa 7B69     		ldr	r3, [r7, #20]
 366 00ac 0133     		adds	r3, r3, #1
 367 00ae 7B61     		str	r3, [r7, #20]
 368 00b0 7B69     		ldr	r3, [r7, #20]
 181:C:/Users/dtjld/Desktop/AIoT_software/LiteOS_Lab_overseas/LiteOS_Lab/iot_link/network/lwm2m/wakaama_lwm2m/core/er-coap-13\er-coap-13.c **** }
 369              		.loc 1 181 0
 370 00b2 1846     		mov	r0, r3
 371 00b4 1C37     		adds	r7, r7, #28
 372              	.LCFI21:
 373              		.cfi_def_cfa_offset 12
 374 00b6 BD46     		mov	sp, r7
 375              	.LCFI22:
 376              		.cfi_def_cfa_register 13
 377              		@ sp needed
 378 00b8 90BD     		pop	{r4, r7, pc}
 379              		.cfi_endproc
 380              	.LFE7:
 382              		.section	.text.coap_serialize_int_option,"ax",%progbits
 383              		.align	1
 384              		.syntax unified
 385              		.thumb
 386              		.thumb_func
 387              		.fpu fpv4-sp-d16
 389              	coap_serialize_int_option:
 390              	.LFB8:
 182:C:/Users/dtjld/Desktop/AIoT_software/LiteOS_Lab_overseas/LiteOS_Lab/iot_link/network/lwm2m/wakaama_lwm2m/core/er-coap-13\er-coap-13.c **** /*-----------------------------------------------------------------------------------*/
 183:C:/Users/dtjld/Desktop/AIoT_software/LiteOS_Lab_overseas/LiteOS_Lab/iot_link/network/lwm2m/wakaama_lwm2m/core/er-coap-13\er-coap-13.c **** static
 184:C:/Users/dtjld/Desktop/AIoT_software/LiteOS_Lab_overseas/LiteOS_Lab/iot_link/network/lwm2m/wakaama_lwm2m/core/er-coap-13\er-coap-13.c **** size_t
 185:C:/Users/dtjld/Desktop/AIoT_software/LiteOS_Lab_overseas/LiteOS_Lab/iot_link/network/lwm2m/wakaama_lwm2m/core/er-coap-13\er-coap-13.c **** coap_serialize_int_option(unsigned int number, unsigned int current_number, uint8_t *buffer, uint32
 186:C:/Users/dtjld/Desktop/AIoT_software/LiteOS_Lab_overseas/LiteOS_Lab/iot_link/network/lwm2m/wakaama_lwm2m/core/er-coap-13\er-coap-13.c **** {
 391              		.loc 1 186 0
 392              		.cfi_startproc
 393              		@ args = 0, pretend = 0, frame = 24
 394              		@ frame_needed = 1, uses_anonymous_args = 0
 395 0000 80B5     		push	{r7, lr}
 396              	.LCFI23:
 397              		.cfi_def_cfa_offset 8
 398              		.cfi_offset 7, -8
ARM GAS  C:\Users\dtjld\AppData\Local\Temp\ccpI0fza.s 			page 11


 399              		.cfi_offset 14, -4
 400 0002 86B0     		sub	sp, sp, #24
 401              	.LCFI24:
 402              		.cfi_def_cfa_offset 32
 403 0004 00AF     		add	r7, sp, #0
 404              	.LCFI25:
 405              		.cfi_def_cfa_register 7
 406 0006 F860     		str	r0, [r7, #12]
 407 0008 B960     		str	r1, [r7, #8]
 408 000a 7A60     		str	r2, [r7, #4]
 409 000c 3B60     		str	r3, [r7]
 187:C:/Users/dtjld/Desktop/AIoT_software/LiteOS_Lab_overseas/LiteOS_Lab/iot_link/network/lwm2m/wakaama_lwm2m/core/er-coap-13\er-coap-13.c ****     size_t i = 0;
 410              		.loc 1 187 0
 411 000e 0023     		movs	r3, #0
 412 0010 7B61     		str	r3, [r7, #20]
 188:C:/Users/dtjld/Desktop/AIoT_software/LiteOS_Lab_overseas/LiteOS_Lab/iot_link/network/lwm2m/wakaama_lwm2m/core/er-coap-13\er-coap-13.c **** 
 189:C:/Users/dtjld/Desktop/AIoT_software/LiteOS_Lab_overseas/LiteOS_Lab/iot_link/network/lwm2m/wakaama_lwm2m/core/er-coap-13\er-coap-13.c ****     if (0xFF000000 & value) ++i;
 413              		.loc 1 189 0
 414 0012 3B68     		ldr	r3, [r7]
 415 0014 03F07F43 		and	r3, r3, #-16777216
 416 0018 002B     		cmp	r3, #0
 417 001a 02D0     		beq	.L21
 418              		.loc 1 189 0 is_stmt 0 discriminator 1
 419 001c 7B69     		ldr	r3, [r7, #20]
 420 001e 0133     		adds	r3, r3, #1
 421 0020 7B61     		str	r3, [r7, #20]
 422              	.L21:
 190:C:/Users/dtjld/Desktop/AIoT_software/LiteOS_Lab_overseas/LiteOS_Lab/iot_link/network/lwm2m/wakaama_lwm2m/core/er-coap-13\er-coap-13.c ****     if (0xFFFF0000 & value) ++i;
 423              		.loc 1 190 0 is_stmt 1
 424 0022 3B68     		ldr	r3, [r7]
 425 0024 1B0C     		lsrs	r3, r3, #16
 426 0026 1B04     		lsls	r3, r3, #16
 427 0028 002B     		cmp	r3, #0
 428 002a 02D0     		beq	.L22
 429              		.loc 1 190 0 is_stmt 0 discriminator 1
 430 002c 7B69     		ldr	r3, [r7, #20]
 431 002e 0133     		adds	r3, r3, #1
 432 0030 7B61     		str	r3, [r7, #20]
 433              	.L22:
 191:C:/Users/dtjld/Desktop/AIoT_software/LiteOS_Lab_overseas/LiteOS_Lab/iot_link/network/lwm2m/wakaama_lwm2m/core/er-coap-13\er-coap-13.c ****     if (0xFFFFFF00 & value) ++i;
 434              		.loc 1 191 0 is_stmt 1
 435 0032 3B68     		ldr	r3, [r7]
 436 0034 23F0FF03 		bic	r3, r3, #255
 437 0038 002B     		cmp	r3, #0
 438 003a 02D0     		beq	.L23
 439              		.loc 1 191 0 is_stmt 0 discriminator 1
 440 003c 7B69     		ldr	r3, [r7, #20]
 441 003e 0133     		adds	r3, r3, #1
 442 0040 7B61     		str	r3, [r7, #20]
 443              	.L23:
 192:C:/Users/dtjld/Desktop/AIoT_software/LiteOS_Lab_overseas/LiteOS_Lab/iot_link/network/lwm2m/wakaama_lwm2m/core/er-coap-13\er-coap-13.c ****     if (0xFFFFFFFF & value) ++i;
 444              		.loc 1 192 0 is_stmt 1
 445 0042 3B68     		ldr	r3, [r7]
 446 0044 002B     		cmp	r3, #0
 447 0046 02D0     		beq	.L24
 448              		.loc 1 192 0 is_stmt 0 discriminator 1
 449 0048 7B69     		ldr	r3, [r7, #20]
ARM GAS  C:\Users\dtjld\AppData\Local\Temp\ccpI0fza.s 			page 12


 450 004a 0133     		adds	r3, r3, #1
 451 004c 7B61     		str	r3, [r7, #20]
 452              	.L24:
 193:C:/Users/dtjld/Desktop/AIoT_software/LiteOS_Lab_overseas/LiteOS_Lab/iot_link/network/lwm2m/wakaama_lwm2m/core/er-coap-13\er-coap-13.c **** 
 194:C:/Users/dtjld/Desktop/AIoT_software/LiteOS_Lab_overseas/LiteOS_Lab/iot_link/network/lwm2m/wakaama_lwm2m/core/er-coap-13\er-coap-13.c ****     PRINTF("OPTION %u (delta %u, len %u)\n", number, number - current_number, i);
 195:C:/Users/dtjld/Desktop/AIoT_software/LiteOS_Lab_overseas/LiteOS_Lab/iot_link/network/lwm2m/wakaama_lwm2m/core/er-coap-13\er-coap-13.c **** 
 196:C:/Users/dtjld/Desktop/AIoT_software/LiteOS_Lab_overseas/LiteOS_Lab/iot_link/network/lwm2m/wakaama_lwm2m/core/er-coap-13\er-coap-13.c ****     i = coap_set_option_header(number - current_number, i, buffer);
 453              		.loc 1 196 0 is_stmt 1
 454 004e FA68     		ldr	r2, [r7, #12]
 455 0050 BB68     		ldr	r3, [r7, #8]
 456 0052 D31A     		subs	r3, r2, r3
 457 0054 7A68     		ldr	r2, [r7, #4]
 458 0056 7969     		ldr	r1, [r7, #20]
 459 0058 1846     		mov	r0, r3
 460 005a FFF7FEFF 		bl	coap_set_option_header
 461 005e 7861     		str	r0, [r7, #20]
 197:C:/Users/dtjld/Desktop/AIoT_software/LiteOS_Lab_overseas/LiteOS_Lab/iot_link/network/lwm2m/wakaama_lwm2m/core/er-coap-13\er-coap-13.c **** 
 198:C:/Users/dtjld/Desktop/AIoT_software/LiteOS_Lab_overseas/LiteOS_Lab/iot_link/network/lwm2m/wakaama_lwm2m/core/er-coap-13\er-coap-13.c ****     if (0xFF000000 & value) buffer[i++] = (uint8_t) (value >> 24);
 462              		.loc 1 198 0
 463 0060 3B68     		ldr	r3, [r7]
 464 0062 03F07F43 		and	r3, r3, #-16777216
 465 0066 002B     		cmp	r3, #0
 466 0068 08D0     		beq	.L25
 467              		.loc 1 198 0 is_stmt 0 discriminator 1
 468 006a 3B68     		ldr	r3, [r7]
 469 006c 190E     		lsrs	r1, r3, #24
 470 006e 7B69     		ldr	r3, [r7, #20]
 471 0070 5A1C     		adds	r2, r3, #1
 472 0072 7A61     		str	r2, [r7, #20]
 473 0074 7A68     		ldr	r2, [r7, #4]
 474 0076 1344     		add	r3, r3, r2
 475 0078 CAB2     		uxtb	r2, r1
 476 007a 1A70     		strb	r2, [r3]
 477              	.L25:
 199:C:/Users/dtjld/Desktop/AIoT_software/LiteOS_Lab_overseas/LiteOS_Lab/iot_link/network/lwm2m/wakaama_lwm2m/core/er-coap-13\er-coap-13.c ****     if (0xFFFF0000 & value) buffer[i++] = (uint8_t) (value >> 16);
 478              		.loc 1 199 0 is_stmt 1
 479 007c 3B68     		ldr	r3, [r7]
 480 007e 1B0C     		lsrs	r3, r3, #16
 481 0080 1B04     		lsls	r3, r3, #16
 482 0082 002B     		cmp	r3, #0
 483 0084 08D0     		beq	.L26
 484              		.loc 1 199 0 is_stmt 0 discriminator 1
 485 0086 3B68     		ldr	r3, [r7]
 486 0088 190C     		lsrs	r1, r3, #16
 487 008a 7B69     		ldr	r3, [r7, #20]
 488 008c 5A1C     		adds	r2, r3, #1
 489 008e 7A61     		str	r2, [r7, #20]
 490 0090 7A68     		ldr	r2, [r7, #4]
 491 0092 1344     		add	r3, r3, r2
 492 0094 CAB2     		uxtb	r2, r1
 493 0096 1A70     		strb	r2, [r3]
 494              	.L26:
 200:C:/Users/dtjld/Desktop/AIoT_software/LiteOS_Lab_overseas/LiteOS_Lab/iot_link/network/lwm2m/wakaama_lwm2m/core/er-coap-13\er-coap-13.c ****     if (0xFFFFFF00 & value) buffer[i++] = (uint8_t) (value >> 8);
 495              		.loc 1 200 0 is_stmt 1
 496 0098 3B68     		ldr	r3, [r7]
 497 009a 23F0FF03 		bic	r3, r3, #255
 498 009e 002B     		cmp	r3, #0
ARM GAS  C:\Users\dtjld\AppData\Local\Temp\ccpI0fza.s 			page 13


 499 00a0 08D0     		beq	.L27
 500              		.loc 1 200 0 is_stmt 0 discriminator 1
 501 00a2 3B68     		ldr	r3, [r7]
 502 00a4 190A     		lsrs	r1, r3, #8
 503 00a6 7B69     		ldr	r3, [r7, #20]
 504 00a8 5A1C     		adds	r2, r3, #1
 505 00aa 7A61     		str	r2, [r7, #20]
 506 00ac 7A68     		ldr	r2, [r7, #4]
 507 00ae 1344     		add	r3, r3, r2
 508 00b0 CAB2     		uxtb	r2, r1
 509 00b2 1A70     		strb	r2, [r3]
 510              	.L27:
 201:C:/Users/dtjld/Desktop/AIoT_software/LiteOS_Lab_overseas/LiteOS_Lab/iot_link/network/lwm2m/wakaama_lwm2m/core/er-coap-13\er-coap-13.c ****     if (0xFFFFFFFF & value) buffer[i++] = (uint8_t) (value);
 511              		.loc 1 201 0 is_stmt 1
 512 00b4 3B68     		ldr	r3, [r7]
 513 00b6 002B     		cmp	r3, #0
 514 00b8 07D0     		beq	.L28
 515              		.loc 1 201 0 is_stmt 0 discriminator 1
 516 00ba 7B69     		ldr	r3, [r7, #20]
 517 00bc 5A1C     		adds	r2, r3, #1
 518 00be 7A61     		str	r2, [r7, #20]
 519 00c0 7A68     		ldr	r2, [r7, #4]
 520 00c2 1344     		add	r3, r3, r2
 521 00c4 3A68     		ldr	r2, [r7]
 522 00c6 D2B2     		uxtb	r2, r2
 523 00c8 1A70     		strb	r2, [r3]
 524              	.L28:
 202:C:/Users/dtjld/Desktop/AIoT_software/LiteOS_Lab_overseas/LiteOS_Lab/iot_link/network/lwm2m/wakaama_lwm2m/core/er-coap-13\er-coap-13.c **** 
 203:C:/Users/dtjld/Desktop/AIoT_software/LiteOS_Lab_overseas/LiteOS_Lab/iot_link/network/lwm2m/wakaama_lwm2m/core/er-coap-13\er-coap-13.c ****     return i;
 525              		.loc 1 203 0 is_stmt 1
 526 00ca 7B69     		ldr	r3, [r7, #20]
 204:C:/Users/dtjld/Desktop/AIoT_software/LiteOS_Lab_overseas/LiteOS_Lab/iot_link/network/lwm2m/wakaama_lwm2m/core/er-coap-13\er-coap-13.c **** }
 527              		.loc 1 204 0
 528 00cc 1846     		mov	r0, r3
 529 00ce 1837     		adds	r7, r7, #24
 530              	.LCFI26:
 531              		.cfi_def_cfa_offset 8
 532 00d0 BD46     		mov	sp, r7
 533              	.LCFI27:
 534              		.cfi_def_cfa_register 13
 535              		@ sp needed
 536 00d2 80BD     		pop	{r7, pc}
 537              		.cfi_endproc
 538              	.LFE8:
 540              		.section	.text.coap_serialize_array_option,"ax",%progbits
 541              		.align	1
 542              		.syntax unified
 543              		.thumb
 544              		.thumb_func
 545              		.fpu fpv4-sp-d16
 547              	coap_serialize_array_option:
 548              	.LFB9:
 205:C:/Users/dtjld/Desktop/AIoT_software/LiteOS_Lab_overseas/LiteOS_Lab/iot_link/network/lwm2m/wakaama_lwm2m/core/er-coap-13\er-coap-13.c **** /*-----------------------------------------------------------------------------------*/
 206:C:/Users/dtjld/Desktop/AIoT_software/LiteOS_Lab_overseas/LiteOS_Lab/iot_link/network/lwm2m/wakaama_lwm2m/core/er-coap-13\er-coap-13.c **** static
 207:C:/Users/dtjld/Desktop/AIoT_software/LiteOS_Lab_overseas/LiteOS_Lab/iot_link/network/lwm2m/wakaama_lwm2m/core/er-coap-13\er-coap-13.c **** size_t
 208:C:/Users/dtjld/Desktop/AIoT_software/LiteOS_Lab_overseas/LiteOS_Lab/iot_link/network/lwm2m/wakaama_lwm2m/core/er-coap-13\er-coap-13.c **** coap_serialize_array_option(unsigned int number, unsigned int current_number, uint8_t *buffer, uint
 209:C:/Users/dtjld/Desktop/AIoT_software/LiteOS_Lab_overseas/LiteOS_Lab/iot_link/network/lwm2m/wakaama_lwm2m/core/er-coap-13\er-coap-13.c **** {
ARM GAS  C:\Users\dtjld\AppData\Local\Temp\ccpI0fza.s 			page 14


 549              		.loc 1 209 0
 550              		.cfi_startproc
 551              		@ args = 8, pretend = 0, frame = 40
 552              		@ frame_needed = 1, uses_anonymous_args = 0
 553 0000 80B5     		push	{r7, lr}
 554              	.LCFI28:
 555              		.cfi_def_cfa_offset 8
 556              		.cfi_offset 7, -8
 557              		.cfi_offset 14, -4
 558 0002 8AB0     		sub	sp, sp, #40
 559              	.LCFI29:
 560              		.cfi_def_cfa_offset 48
 561 0004 00AF     		add	r7, sp, #0
 562              	.LCFI30:
 563              		.cfi_def_cfa_register 7
 564 0006 F860     		str	r0, [r7, #12]
 565 0008 B960     		str	r1, [r7, #8]
 566 000a 7A60     		str	r2, [r7, #4]
 567 000c 3B60     		str	r3, [r7]
 210:C:/Users/dtjld/Desktop/AIoT_software/LiteOS_Lab_overseas/LiteOS_Lab/iot_link/network/lwm2m/wakaama_lwm2m/core/er-coap-13\er-coap-13.c ****     size_t i = 0;
 568              		.loc 1 210 0
 569 000e 0023     		movs	r3, #0
 570 0010 7B62     		str	r3, [r7, #36]
 211:C:/Users/dtjld/Desktop/AIoT_software/LiteOS_Lab_overseas/LiteOS_Lab/iot_link/network/lwm2m/wakaama_lwm2m/core/er-coap-13\er-coap-13.c **** 
 212:C:/Users/dtjld/Desktop/AIoT_software/LiteOS_Lab_overseas/LiteOS_Lab/iot_link/network/lwm2m/wakaama_lwm2m/core/er-coap-13\er-coap-13.c ****     if (split_char != '\0')
 571              		.loc 1 212 0
 572 0012 97F83430 		ldrb	r3, [r7, #52]	@ zero_extendqisi2
 573 0016 002B     		cmp	r3, #0
 574 0018 45D0     		beq	.L31
 575              	.LBB2:
 213:C:/Users/dtjld/Desktop/AIoT_software/LiteOS_Lab_overseas/LiteOS_Lab/iot_link/network/lwm2m/wakaama_lwm2m/core/er-coap-13\er-coap-13.c ****     {
 214:C:/Users/dtjld/Desktop/AIoT_software/LiteOS_Lab_overseas/LiteOS_Lab/iot_link/network/lwm2m/wakaama_lwm2m/core/er-coap-13\er-coap-13.c ****         size_t j;
 215:C:/Users/dtjld/Desktop/AIoT_software/LiteOS_Lab_overseas/LiteOS_Lab/iot_link/network/lwm2m/wakaama_lwm2m/core/er-coap-13\er-coap-13.c ****         uint8_t *part_start = array;
 576              		.loc 1 215 0
 577 001a 3B68     		ldr	r3, [r7]
 578 001c FB61     		str	r3, [r7, #28]
 216:C:/Users/dtjld/Desktop/AIoT_software/LiteOS_Lab_overseas/LiteOS_Lab/iot_link/network/lwm2m/wakaama_lwm2m/core/er-coap-13\er-coap-13.c ****         uint8_t *part_end = NULL;
 579              		.loc 1 216 0
 580 001e 0023     		movs	r3, #0
 581 0020 BB61     		str	r3, [r7, #24]
 217:C:/Users/dtjld/Desktop/AIoT_software/LiteOS_Lab_overseas/LiteOS_Lab/iot_link/network/lwm2m/wakaama_lwm2m/core/er-coap-13\er-coap-13.c ****         size_t temp_length;
 218:C:/Users/dtjld/Desktop/AIoT_software/LiteOS_Lab_overseas/LiteOS_Lab/iot_link/network/lwm2m/wakaama_lwm2m/core/er-coap-13\er-coap-13.c **** 
 219:C:/Users/dtjld/Desktop/AIoT_software/LiteOS_Lab_overseas/LiteOS_Lab/iot_link/network/lwm2m/wakaama_lwm2m/core/er-coap-13\er-coap-13.c ****         for (j = 0; j <= length; ++j)
 582              		.loc 1 219 0
 583 0022 0023     		movs	r3, #0
 584 0024 3B62     		str	r3, [r7, #32]
 585 0026 39E0     		b	.L32
 586              	.L35:
 220:C:/Users/dtjld/Desktop/AIoT_software/LiteOS_Lab_overseas/LiteOS_Lab/iot_link/network/lwm2m/wakaama_lwm2m/core/er-coap-13\er-coap-13.c ****         {
 221:C:/Users/dtjld/Desktop/AIoT_software/LiteOS_Lab_overseas/LiteOS_Lab/iot_link/network/lwm2m/wakaama_lwm2m/core/er-coap-13\er-coap-13.c ****             if (array[j] == split_char || j == length)
 587              		.loc 1 221 0
 588 0028 3A68     		ldr	r2, [r7]
 589 002a 3B6A     		ldr	r3, [r7, #32]
 590 002c 1344     		add	r3, r3, r2
 591 002e 1B78     		ldrb	r3, [r3]	@ zero_extendqisi2
 592 0030 97F83420 		ldrb	r2, [r7, #52]	@ zero_extendqisi2
 593 0034 9A42     		cmp	r2, r3
ARM GAS  C:\Users\dtjld\AppData\Local\Temp\ccpI0fza.s 			page 15


 594 0036 03D0     		beq	.L33
 595              		.loc 1 221 0 is_stmt 0 discriminator 1
 596 0038 3A6A     		ldr	r2, [r7, #32]
 597 003a 3B6B     		ldr	r3, [r7, #48]
 598 003c 9A42     		cmp	r2, r3
 599 003e 2AD1     		bne	.L34
 600              	.L33:
 222:C:/Users/dtjld/Desktop/AIoT_software/LiteOS_Lab_overseas/LiteOS_Lab/iot_link/network/lwm2m/wakaama_lwm2m/core/er-coap-13\er-coap-13.c ****             {
 223:C:/Users/dtjld/Desktop/AIoT_software/LiteOS_Lab_overseas/LiteOS_Lab/iot_link/network/lwm2m/wakaama_lwm2m/core/er-coap-13\er-coap-13.c ****                 part_end = array + j;
 601              		.loc 1 223 0 is_stmt 1
 602 0040 3A68     		ldr	r2, [r7]
 603 0042 3B6A     		ldr	r3, [r7, #32]
 604 0044 1344     		add	r3, r3, r2
 605 0046 BB61     		str	r3, [r7, #24]
 224:C:/Users/dtjld/Desktop/AIoT_software/LiteOS_Lab_overseas/LiteOS_Lab/iot_link/network/lwm2m/wakaama_lwm2m/core/er-coap-13\er-coap-13.c ****                 temp_length = part_end - part_start;
 606              		.loc 1 224 0
 607 0048 BA69     		ldr	r2, [r7, #24]
 608 004a FB69     		ldr	r3, [r7, #28]
 609 004c D31A     		subs	r3, r2, r3
 610 004e 7B61     		str	r3, [r7, #20]
 225:C:/Users/dtjld/Desktop/AIoT_software/LiteOS_Lab_overseas/LiteOS_Lab/iot_link/network/lwm2m/wakaama_lwm2m/core/er-coap-13\er-coap-13.c **** 
 226:C:/Users/dtjld/Desktop/AIoT_software/LiteOS_Lab_overseas/LiteOS_Lab/iot_link/network/lwm2m/wakaama_lwm2m/core/er-coap-13\er-coap-13.c ****                 i += coap_set_option_header(number - current_number, temp_length, &buffer[i]);
 611              		.loc 1 226 0
 612 0050 FA68     		ldr	r2, [r7, #12]
 613 0052 BB68     		ldr	r3, [r7, #8]
 614 0054 D01A     		subs	r0, r2, r3
 615 0056 7A68     		ldr	r2, [r7, #4]
 616 0058 7B6A     		ldr	r3, [r7, #36]
 617 005a 1344     		add	r3, r3, r2
 618 005c 1A46     		mov	r2, r3
 619 005e 7969     		ldr	r1, [r7, #20]
 620 0060 FFF7FEFF 		bl	coap_set_option_header
 621 0064 0246     		mov	r2, r0
 622 0066 7B6A     		ldr	r3, [r7, #36]
 623 0068 1344     		add	r3, r3, r2
 624 006a 7B62     		str	r3, [r7, #36]
 227:C:/Users/dtjld/Desktop/AIoT_software/LiteOS_Lab_overseas/LiteOS_Lab/iot_link/network/lwm2m/wakaama_lwm2m/core/er-coap-13\er-coap-13.c ****                 memcpy(&buffer[i], part_start, temp_length);
 625              		.loc 1 227 0
 626 006c 7A68     		ldr	r2, [r7, #4]
 627 006e 7B6A     		ldr	r3, [r7, #36]
 628 0070 1344     		add	r3, r3, r2
 629 0072 7A69     		ldr	r2, [r7, #20]
 630 0074 F969     		ldr	r1, [r7, #28]
 631 0076 1846     		mov	r0, r3
 632 0078 FFF7FEFF 		bl	memcpy
 228:C:/Users/dtjld/Desktop/AIoT_software/LiteOS_Lab_overseas/LiteOS_Lab/iot_link/network/lwm2m/wakaama_lwm2m/core/er-coap-13\er-coap-13.c ****                 i += temp_length;
 633              		.loc 1 228 0
 634 007c 7A6A     		ldr	r2, [r7, #36]
 635 007e 7B69     		ldr	r3, [r7, #20]
 636 0080 1344     		add	r3, r3, r2
 637 0082 7B62     		str	r3, [r7, #36]
 229:C:/Users/dtjld/Desktop/AIoT_software/LiteOS_Lab_overseas/LiteOS_Lab/iot_link/network/lwm2m/wakaama_lwm2m/core/er-coap-13\er-coap-13.c **** 
 230:C:/Users/dtjld/Desktop/AIoT_software/LiteOS_Lab_overseas/LiteOS_Lab/iot_link/network/lwm2m/wakaama_lwm2m/core/er-coap-13\er-coap-13.c ****                 PRINTF("OPTION type %u, delta %u, len %u, part [%.*s]\n", number, number - current_
 231:C:/Users/dtjld/Desktop/AIoT_software/LiteOS_Lab_overseas/LiteOS_Lab/iot_link/network/lwm2m/wakaama_lwm2m/core/er-coap-13\er-coap-13.c **** 
 232:C:/Users/dtjld/Desktop/AIoT_software/LiteOS_Lab_overseas/LiteOS_Lab/iot_link/network/lwm2m/wakaama_lwm2m/core/er-coap-13\er-coap-13.c ****                 ++j; /* skip the splitter */
 638              		.loc 1 232 0
 639 0084 3B6A     		ldr	r3, [r7, #32]
ARM GAS  C:\Users\dtjld\AppData\Local\Temp\ccpI0fza.s 			page 16


 640 0086 0133     		adds	r3, r3, #1
 641 0088 3B62     		str	r3, [r7, #32]
 233:C:/Users/dtjld/Desktop/AIoT_software/LiteOS_Lab_overseas/LiteOS_Lab/iot_link/network/lwm2m/wakaama_lwm2m/core/er-coap-13\er-coap-13.c ****                 current_number = number;
 642              		.loc 1 233 0
 643 008a FB68     		ldr	r3, [r7, #12]
 644 008c BB60     		str	r3, [r7, #8]
 234:C:/Users/dtjld/Desktop/AIoT_software/LiteOS_Lab_overseas/LiteOS_Lab/iot_link/network/lwm2m/wakaama_lwm2m/core/er-coap-13\er-coap-13.c ****                 part_start = array + j;
 645              		.loc 1 234 0
 646 008e 3A68     		ldr	r2, [r7]
 647 0090 3B6A     		ldr	r3, [r7, #32]
 648 0092 1344     		add	r3, r3, r2
 649 0094 FB61     		str	r3, [r7, #28]
 650              	.L34:
 219:C:/Users/dtjld/Desktop/AIoT_software/LiteOS_Lab_overseas/LiteOS_Lab/iot_link/network/lwm2m/wakaama_lwm2m/core/er-coap-13\er-coap-13.c ****         {
 651              		.loc 1 219 0 discriminator 2
 652 0096 3B6A     		ldr	r3, [r7, #32]
 653 0098 0133     		adds	r3, r3, #1
 654 009a 3B62     		str	r3, [r7, #32]
 655              	.L32:
 219:C:/Users/dtjld/Desktop/AIoT_software/LiteOS_Lab_overseas/LiteOS_Lab/iot_link/network/lwm2m/wakaama_lwm2m/core/er-coap-13\er-coap-13.c ****         {
 656              		.loc 1 219 0 is_stmt 0 discriminator 1
 657 009c 3A6A     		ldr	r2, [r7, #32]
 658 009e 3B6B     		ldr	r3, [r7, #48]
 659 00a0 9A42     		cmp	r2, r3
 660 00a2 C1D9     		bls	.L35
 661 00a4 19E0     		b	.L36
 662              	.L31:
 663              	.LBE2:
 235:C:/Users/dtjld/Desktop/AIoT_software/LiteOS_Lab_overseas/LiteOS_Lab/iot_link/network/lwm2m/wakaama_lwm2m/core/er-coap-13\er-coap-13.c ****             }
 236:C:/Users/dtjld/Desktop/AIoT_software/LiteOS_Lab_overseas/LiteOS_Lab/iot_link/network/lwm2m/wakaama_lwm2m/core/er-coap-13\er-coap-13.c ****         } /* for */
 237:C:/Users/dtjld/Desktop/AIoT_software/LiteOS_Lab_overseas/LiteOS_Lab/iot_link/network/lwm2m/wakaama_lwm2m/core/er-coap-13\er-coap-13.c ****     }
 238:C:/Users/dtjld/Desktop/AIoT_software/LiteOS_Lab_overseas/LiteOS_Lab/iot_link/network/lwm2m/wakaama_lwm2m/core/er-coap-13\er-coap-13.c ****     else
 239:C:/Users/dtjld/Desktop/AIoT_software/LiteOS_Lab_overseas/LiteOS_Lab/iot_link/network/lwm2m/wakaama_lwm2m/core/er-coap-13\er-coap-13.c ****     {
 240:C:/Users/dtjld/Desktop/AIoT_software/LiteOS_Lab_overseas/LiteOS_Lab/iot_link/network/lwm2m/wakaama_lwm2m/core/er-coap-13\er-coap-13.c ****         i += coap_set_option_header(number - current_number, length, &buffer[i]);
 664              		.loc 1 240 0 is_stmt 1
 665 00a6 FA68     		ldr	r2, [r7, #12]
 666 00a8 BB68     		ldr	r3, [r7, #8]
 667 00aa D01A     		subs	r0, r2, r3
 668 00ac 7A68     		ldr	r2, [r7, #4]
 669 00ae 7B6A     		ldr	r3, [r7, #36]
 670 00b0 1344     		add	r3, r3, r2
 671 00b2 1A46     		mov	r2, r3
 672 00b4 396B     		ldr	r1, [r7, #48]
 673 00b6 FFF7FEFF 		bl	coap_set_option_header
 674 00ba 0246     		mov	r2, r0
 675 00bc 7B6A     		ldr	r3, [r7, #36]
 676 00be 1344     		add	r3, r3, r2
 677 00c0 7B62     		str	r3, [r7, #36]
 241:C:/Users/dtjld/Desktop/AIoT_software/LiteOS_Lab_overseas/LiteOS_Lab/iot_link/network/lwm2m/wakaama_lwm2m/core/er-coap-13\er-coap-13.c ****         memcpy(&buffer[i], array, length);
 678              		.loc 1 241 0
 679 00c2 7A68     		ldr	r2, [r7, #4]
 680 00c4 7B6A     		ldr	r3, [r7, #36]
 681 00c6 1344     		add	r3, r3, r2
 682 00c8 3A6B     		ldr	r2, [r7, #48]
 683 00ca 3968     		ldr	r1, [r7]
 684 00cc 1846     		mov	r0, r3
 685 00ce FFF7FEFF 		bl	memcpy
ARM GAS  C:\Users\dtjld\AppData\Local\Temp\ccpI0fza.s 			page 17


 242:C:/Users/dtjld/Desktop/AIoT_software/LiteOS_Lab_overseas/LiteOS_Lab/iot_link/network/lwm2m/wakaama_lwm2m/core/er-coap-13\er-coap-13.c ****         i += length;
 686              		.loc 1 242 0
 687 00d2 7A6A     		ldr	r2, [r7, #36]
 688 00d4 3B6B     		ldr	r3, [r7, #48]
 689 00d6 1344     		add	r3, r3, r2
 690 00d8 7B62     		str	r3, [r7, #36]
 691              	.L36:
 243:C:/Users/dtjld/Desktop/AIoT_software/LiteOS_Lab_overseas/LiteOS_Lab/iot_link/network/lwm2m/wakaama_lwm2m/core/er-coap-13\er-coap-13.c **** 
 244:C:/Users/dtjld/Desktop/AIoT_software/LiteOS_Lab_overseas/LiteOS_Lab/iot_link/network/lwm2m/wakaama_lwm2m/core/er-coap-13\er-coap-13.c ****         PRINTF("OPTION type %u, delta %u, len %u\n", number, number - current_number, length);
 245:C:/Users/dtjld/Desktop/AIoT_software/LiteOS_Lab_overseas/LiteOS_Lab/iot_link/network/lwm2m/wakaama_lwm2m/core/er-coap-13\er-coap-13.c ****     }
 246:C:/Users/dtjld/Desktop/AIoT_software/LiteOS_Lab_overseas/LiteOS_Lab/iot_link/network/lwm2m/wakaama_lwm2m/core/er-coap-13\er-coap-13.c **** 
 247:C:/Users/dtjld/Desktop/AIoT_software/LiteOS_Lab_overseas/LiteOS_Lab/iot_link/network/lwm2m/wakaama_lwm2m/core/er-coap-13\er-coap-13.c ****     return i;
 692              		.loc 1 247 0
 693 00da 7B6A     		ldr	r3, [r7, #36]
 248:C:/Users/dtjld/Desktop/AIoT_software/LiteOS_Lab_overseas/LiteOS_Lab/iot_link/network/lwm2m/wakaama_lwm2m/core/er-coap-13\er-coap-13.c **** }
 694              		.loc 1 248 0
 695 00dc 1846     		mov	r0, r3
 696 00de 2837     		adds	r7, r7, #40
 697              	.LCFI31:
 698              		.cfi_def_cfa_offset 8
 699 00e0 BD46     		mov	sp, r7
 700              	.LCFI32:
 701              		.cfi_def_cfa_register 13
 702              		@ sp needed
 703 00e2 80BD     		pop	{r7, pc}
 704              		.cfi_endproc
 705              	.LFE9:
 707              		.section	.text.coap_serialize_multi_option,"ax",%progbits
 708              		.align	1
 709              		.syntax unified
 710              		.thumb
 711              		.thumb_func
 712              		.fpu fpv4-sp-d16
 714              	coap_serialize_multi_option:
 715              	.LFB10:
 249:C:/Users/dtjld/Desktop/AIoT_software/LiteOS_Lab_overseas/LiteOS_Lab/iot_link/network/lwm2m/wakaama_lwm2m/core/er-coap-13\er-coap-13.c **** /*-----------------------------------------------------------------------------------*/
 250:C:/Users/dtjld/Desktop/AIoT_software/LiteOS_Lab_overseas/LiteOS_Lab/iot_link/network/lwm2m/wakaama_lwm2m/core/er-coap-13\er-coap-13.c **** static
 251:C:/Users/dtjld/Desktop/AIoT_software/LiteOS_Lab_overseas/LiteOS_Lab/iot_link/network/lwm2m/wakaama_lwm2m/core/er-coap-13\er-coap-13.c **** size_t
 252:C:/Users/dtjld/Desktop/AIoT_software/LiteOS_Lab_overseas/LiteOS_Lab/iot_link/network/lwm2m/wakaama_lwm2m/core/er-coap-13\er-coap-13.c **** coap_serialize_multi_option(unsigned int number, unsigned int current_number, uint8_t *buffer, mult
 253:C:/Users/dtjld/Desktop/AIoT_software/LiteOS_Lab_overseas/LiteOS_Lab/iot_link/network/lwm2m/wakaama_lwm2m/core/er-coap-13\er-coap-13.c **** {
 716              		.loc 1 253 0
 717              		.cfi_startproc
 718              		@ args = 0, pretend = 0, frame = 24
 719              		@ frame_needed = 1, uses_anonymous_args = 0
 720 0000 80B5     		push	{r7, lr}
 721              	.LCFI33:
 722              		.cfi_def_cfa_offset 8
 723              		.cfi_offset 7, -8
 724              		.cfi_offset 14, -4
 725 0002 86B0     		sub	sp, sp, #24
 726              	.LCFI34:
 727              		.cfi_def_cfa_offset 32
 728 0004 00AF     		add	r7, sp, #0
 729              	.LCFI35:
 730              		.cfi_def_cfa_register 7
 731 0006 F860     		str	r0, [r7, #12]
 732 0008 B960     		str	r1, [r7, #8]
ARM GAS  C:\Users\dtjld\AppData\Local\Temp\ccpI0fza.s 			page 18


 733 000a 7A60     		str	r2, [r7, #4]
 734 000c 3B60     		str	r3, [r7]
 254:C:/Users/dtjld/Desktop/AIoT_software/LiteOS_Lab_overseas/LiteOS_Lab/iot_link/network/lwm2m/wakaama_lwm2m/core/er-coap-13\er-coap-13.c ****     size_t i = 0;
 735              		.loc 1 254 0
 736 000e 0023     		movs	r3, #0
 737 0010 7B61     		str	r3, [r7, #20]
 255:C:/Users/dtjld/Desktop/AIoT_software/LiteOS_Lab_overseas/LiteOS_Lab/iot_link/network/lwm2m/wakaama_lwm2m/core/er-coap-13\er-coap-13.c ****     multi_option_t *j;
 256:C:/Users/dtjld/Desktop/AIoT_software/LiteOS_Lab_overseas/LiteOS_Lab/iot_link/network/lwm2m/wakaama_lwm2m/core/er-coap-13\er-coap-13.c **** 
 257:C:/Users/dtjld/Desktop/AIoT_software/LiteOS_Lab_overseas/LiteOS_Lab/iot_link/network/lwm2m/wakaama_lwm2m/core/er-coap-13\er-coap-13.c ****     for (j = array; j != NULL; j = j->next)
 738              		.loc 1 257 0
 739 0012 3B68     		ldr	r3, [r7]
 740 0014 3B61     		str	r3, [r7, #16]
 741 0016 24E0     		b	.L39
 742              	.L40:
 258:C:/Users/dtjld/Desktop/AIoT_software/LiteOS_Lab_overseas/LiteOS_Lab/iot_link/network/lwm2m/wakaama_lwm2m/core/er-coap-13\er-coap-13.c ****     {
 259:C:/Users/dtjld/Desktop/AIoT_software/LiteOS_Lab_overseas/LiteOS_Lab/iot_link/network/lwm2m/wakaama_lwm2m/core/er-coap-13\er-coap-13.c ****         i += coap_set_option_header(number - current_number, j->len, &buffer[i]);
 743              		.loc 1 259 0 discriminator 3
 744 0018 FA68     		ldr	r2, [r7, #12]
 745 001a BB68     		ldr	r3, [r7, #8]
 746 001c D01A     		subs	r0, r2, r3
 747 001e 3B69     		ldr	r3, [r7, #16]
 748 0020 5B79     		ldrb	r3, [r3, #5]	@ zero_extendqisi2
 749 0022 1946     		mov	r1, r3
 750 0024 7A68     		ldr	r2, [r7, #4]
 751 0026 7B69     		ldr	r3, [r7, #20]
 752 0028 1344     		add	r3, r3, r2
 753 002a 1A46     		mov	r2, r3
 754 002c FFF7FEFF 		bl	coap_set_option_header
 755 0030 0246     		mov	r2, r0
 756 0032 7B69     		ldr	r3, [r7, #20]
 757 0034 1344     		add	r3, r3, r2
 758 0036 7B61     		str	r3, [r7, #20]
 260:C:/Users/dtjld/Desktop/AIoT_software/LiteOS_Lab_overseas/LiteOS_Lab/iot_link/network/lwm2m/wakaama_lwm2m/core/er-coap-13\er-coap-13.c ****         current_number = number;
 759              		.loc 1 260 0 discriminator 3
 760 0038 FB68     		ldr	r3, [r7, #12]
 761 003a BB60     		str	r3, [r7, #8]
 261:C:/Users/dtjld/Desktop/AIoT_software/LiteOS_Lab_overseas/LiteOS_Lab/iot_link/network/lwm2m/wakaama_lwm2m/core/er-coap-13\er-coap-13.c ****         memcpy(&buffer[i], j->data, j->len);
 762              		.loc 1 261 0 discriminator 3
 763 003c 7A68     		ldr	r2, [r7, #4]
 764 003e 7B69     		ldr	r3, [r7, #20]
 765 0040 D018     		adds	r0, r2, r3
 766 0042 3B69     		ldr	r3, [r7, #16]
 767 0044 9968     		ldr	r1, [r3, #8]
 768 0046 3B69     		ldr	r3, [r7, #16]
 769 0048 5B79     		ldrb	r3, [r3, #5]	@ zero_extendqisi2
 770 004a 1A46     		mov	r2, r3
 771 004c FFF7FEFF 		bl	memcpy
 262:C:/Users/dtjld/Desktop/AIoT_software/LiteOS_Lab_overseas/LiteOS_Lab/iot_link/network/lwm2m/wakaama_lwm2m/core/er-coap-13\er-coap-13.c ****         i += j->len;
 772              		.loc 1 262 0 discriminator 3
 773 0050 3B69     		ldr	r3, [r7, #16]
 774 0052 5B79     		ldrb	r3, [r3, #5]	@ zero_extendqisi2
 775 0054 1A46     		mov	r2, r3
 776 0056 7B69     		ldr	r3, [r7, #20]
 777 0058 1344     		add	r3, r3, r2
 778 005a 7B61     		str	r3, [r7, #20]
 257:C:/Users/dtjld/Desktop/AIoT_software/LiteOS_Lab_overseas/LiteOS_Lab/iot_link/network/lwm2m/wakaama_lwm2m/core/er-coap-13\er-coap-13.c ****     {
 779              		.loc 1 257 0 discriminator 3
ARM GAS  C:\Users\dtjld\AppData\Local\Temp\ccpI0fza.s 			page 19


 780 005c 3B69     		ldr	r3, [r7, #16]
 781 005e 1B68     		ldr	r3, [r3]
 782 0060 3B61     		str	r3, [r7, #16]
 783              	.L39:
 257:C:/Users/dtjld/Desktop/AIoT_software/LiteOS_Lab_overseas/LiteOS_Lab/iot_link/network/lwm2m/wakaama_lwm2m/core/er-coap-13\er-coap-13.c ****     {
 784              		.loc 1 257 0 is_stmt 0 discriminator 1
 785 0062 3B69     		ldr	r3, [r7, #16]
 786 0064 002B     		cmp	r3, #0
 787 0066 D7D1     		bne	.L40
 263:C:/Users/dtjld/Desktop/AIoT_software/LiteOS_Lab_overseas/LiteOS_Lab/iot_link/network/lwm2m/wakaama_lwm2m/core/er-coap-13\er-coap-13.c ****     } /* for */
 264:C:/Users/dtjld/Desktop/AIoT_software/LiteOS_Lab_overseas/LiteOS_Lab/iot_link/network/lwm2m/wakaama_lwm2m/core/er-coap-13\er-coap-13.c **** 
 265:C:/Users/dtjld/Desktop/AIoT_software/LiteOS_Lab_overseas/LiteOS_Lab/iot_link/network/lwm2m/wakaama_lwm2m/core/er-coap-13\er-coap-13.c ****     return i;
 788              		.loc 1 265 0 is_stmt 1
 789 0068 7B69     		ldr	r3, [r7, #20]
 266:C:/Users/dtjld/Desktop/AIoT_software/LiteOS_Lab_overseas/LiteOS_Lab/iot_link/network/lwm2m/wakaama_lwm2m/core/er-coap-13\er-coap-13.c **** }
 790              		.loc 1 266 0
 791 006a 1846     		mov	r0, r3
 792 006c 1837     		adds	r7, r7, #24
 793              	.LCFI36:
 794              		.cfi_def_cfa_offset 8
 795 006e BD46     		mov	sp, r7
 796              	.LCFI37:
 797              		.cfi_def_cfa_register 13
 798              		@ sp needed
 799 0070 80BD     		pop	{r7, pc}
 800              		.cfi_endproc
 801              	.LFE10:
 803              		.section	.text.coap_merge_multi_option,"ax",%progbits
 804              		.align	1
 805              		.syntax unified
 806              		.thumb
 807              		.thumb_func
 808              		.fpu fpv4-sp-d16
 810              	coap_merge_multi_option:
 811              	.LFB11:
 267:C:/Users/dtjld/Desktop/AIoT_software/LiteOS_Lab_overseas/LiteOS_Lab/iot_link/network/lwm2m/wakaama_lwm2m/core/er-coap-13\er-coap-13.c **** /*-----------------------------------------------------------------------------------*/
 268:C:/Users/dtjld/Desktop/AIoT_software/LiteOS_Lab_overseas/LiteOS_Lab/iot_link/network/lwm2m/wakaama_lwm2m/core/er-coap-13\er-coap-13.c **** static
 269:C:/Users/dtjld/Desktop/AIoT_software/LiteOS_Lab_overseas/LiteOS_Lab/iot_link/network/lwm2m/wakaama_lwm2m/core/er-coap-13\er-coap-13.c **** void
 270:C:/Users/dtjld/Desktop/AIoT_software/LiteOS_Lab_overseas/LiteOS_Lab/iot_link/network/lwm2m/wakaama_lwm2m/core/er-coap-13\er-coap-13.c **** coap_merge_multi_option(uint8_t **dst, size_t *dst_len, uint8_t *option, size_t option_len, char se
 271:C:/Users/dtjld/Desktop/AIoT_software/LiteOS_Lab_overseas/LiteOS_Lab/iot_link/network/lwm2m/wakaama_lwm2m/core/er-coap-13\er-coap-13.c **** {
 812              		.loc 1 271 0
 813              		.cfi_startproc
 814              		@ args = 4, pretend = 0, frame = 16
 815              		@ frame_needed = 1, uses_anonymous_args = 0
 816 0000 80B5     		push	{r7, lr}
 817              	.LCFI38:
 818              		.cfi_def_cfa_offset 8
 819              		.cfi_offset 7, -8
 820              		.cfi_offset 14, -4
 821 0002 84B0     		sub	sp, sp, #16
 822              	.LCFI39:
 823              		.cfi_def_cfa_offset 24
 824 0004 00AF     		add	r7, sp, #0
 825              	.LCFI40:
 826              		.cfi_def_cfa_register 7
 827 0006 F860     		str	r0, [r7, #12]
 828 0008 B960     		str	r1, [r7, #8]
ARM GAS  C:\Users\dtjld\AppData\Local\Temp\ccpI0fza.s 			page 20


 829 000a 7A60     		str	r2, [r7, #4]
 830 000c 3B60     		str	r3, [r7]
 272:C:/Users/dtjld/Desktop/AIoT_software/LiteOS_Lab_overseas/LiteOS_Lab/iot_link/network/lwm2m/wakaama_lwm2m/core/er-coap-13\er-coap-13.c ****     /* Merge multiple options. */
 273:C:/Users/dtjld/Desktop/AIoT_software/LiteOS_Lab_overseas/LiteOS_Lab/iot_link/network/lwm2m/wakaama_lwm2m/core/er-coap-13\er-coap-13.c ****     if (*dst_len > 0)
 831              		.loc 1 273 0
 832 000e BB68     		ldr	r3, [r7, #8]
 833 0010 1B68     		ldr	r3, [r3]
 834 0012 002B     		cmp	r3, #0
 835 0014 1CD0     		beq	.L43
 274:C:/Users/dtjld/Desktop/AIoT_software/LiteOS_Lab_overseas/LiteOS_Lab/iot_link/network/lwm2m/wakaama_lwm2m/core/er-coap-13\er-coap-13.c ****     {
 275:C:/Users/dtjld/Desktop/AIoT_software/LiteOS_Lab_overseas/LiteOS_Lab/iot_link/network/lwm2m/wakaama_lwm2m/core/er-coap-13\er-coap-13.c ****         /* dst already contains an option: concatenate */
 276:C:/Users/dtjld/Desktop/AIoT_software/LiteOS_Lab_overseas/LiteOS_Lab/iot_link/network/lwm2m/wakaama_lwm2m/core/er-coap-13\er-coap-13.c ****         (*dst)[*dst_len] = separator;
 836              		.loc 1 276 0
 837 0016 FB68     		ldr	r3, [r7, #12]
 838 0018 1A68     		ldr	r2, [r3]
 839 001a BB68     		ldr	r3, [r7, #8]
 840 001c 1B68     		ldr	r3, [r3]
 841 001e 1344     		add	r3, r3, r2
 842 0020 3A7E     		ldrb	r2, [r7, #24]
 843 0022 1A70     		strb	r2, [r3]
 277:C:/Users/dtjld/Desktop/AIoT_software/LiteOS_Lab_overseas/LiteOS_Lab/iot_link/network/lwm2m/wakaama_lwm2m/core/er-coap-13\er-coap-13.c ****         *dst_len += 1;
 844              		.loc 1 277 0
 845 0024 BB68     		ldr	r3, [r7, #8]
 846 0026 1B68     		ldr	r3, [r3]
 847 0028 5A1C     		adds	r2, r3, #1
 848 002a BB68     		ldr	r3, [r7, #8]
 849 002c 1A60     		str	r2, [r3]
 278:C:/Users/dtjld/Desktop/AIoT_software/LiteOS_Lab_overseas/LiteOS_Lab/iot_link/network/lwm2m/wakaama_lwm2m/core/er-coap-13\er-coap-13.c **** 
 279:C:/Users/dtjld/Desktop/AIoT_software/LiteOS_Lab_overseas/LiteOS_Lab/iot_link/network/lwm2m/wakaama_lwm2m/core/er-coap-13\er-coap-13.c ****         /* memmove handles 2-byte option headers */
 280:C:/Users/dtjld/Desktop/AIoT_software/LiteOS_Lab_overseas/LiteOS_Lab/iot_link/network/lwm2m/wakaama_lwm2m/core/er-coap-13\er-coap-13.c ****         memmove((*dst) + (*dst_len), option, option_len);
 850              		.loc 1 280 0
 851 002e FB68     		ldr	r3, [r7, #12]
 852 0030 1A68     		ldr	r2, [r3]
 853 0032 BB68     		ldr	r3, [r7, #8]
 854 0034 1B68     		ldr	r3, [r3]
 855 0036 1344     		add	r3, r3, r2
 856 0038 3A68     		ldr	r2, [r7]
 857 003a 7968     		ldr	r1, [r7, #4]
 858 003c 1846     		mov	r0, r3
 859 003e FFF7FEFF 		bl	memmove
 281:C:/Users/dtjld/Desktop/AIoT_software/LiteOS_Lab_overseas/LiteOS_Lab/iot_link/network/lwm2m/wakaama_lwm2m/core/er-coap-13\er-coap-13.c **** 
 282:C:/Users/dtjld/Desktop/AIoT_software/LiteOS_Lab_overseas/LiteOS_Lab/iot_link/network/lwm2m/wakaama_lwm2m/core/er-coap-13\er-coap-13.c ****         *dst_len += option_len;
 860              		.loc 1 282 0
 861 0042 BB68     		ldr	r3, [r7, #8]
 862 0044 1A68     		ldr	r2, [r3]
 863 0046 3B68     		ldr	r3, [r7]
 864 0048 1A44     		add	r2, r2, r3
 865 004a BB68     		ldr	r3, [r7, #8]
 866 004c 1A60     		str	r2, [r3]
 283:C:/Users/dtjld/Desktop/AIoT_software/LiteOS_Lab_overseas/LiteOS_Lab/iot_link/network/lwm2m/wakaama_lwm2m/core/er-coap-13\er-coap-13.c ****     }
 284:C:/Users/dtjld/Desktop/AIoT_software/LiteOS_Lab_overseas/LiteOS_Lab/iot_link/network/lwm2m/wakaama_lwm2m/core/er-coap-13\er-coap-13.c ****     else
 285:C:/Users/dtjld/Desktop/AIoT_software/LiteOS_Lab_overseas/LiteOS_Lab/iot_link/network/lwm2m/wakaama_lwm2m/core/er-coap-13\er-coap-13.c ****     {
 286:C:/Users/dtjld/Desktop/AIoT_software/LiteOS_Lab_overseas/LiteOS_Lab/iot_link/network/lwm2m/wakaama_lwm2m/core/er-coap-13\er-coap-13.c ****         /* dst is empty: set to option */
 287:C:/Users/dtjld/Desktop/AIoT_software/LiteOS_Lab_overseas/LiteOS_Lab/iot_link/network/lwm2m/wakaama_lwm2m/core/er-coap-13\er-coap-13.c ****         *dst = option;
 288:C:/Users/dtjld/Desktop/AIoT_software/LiteOS_Lab_overseas/LiteOS_Lab/iot_link/network/lwm2m/wakaama_lwm2m/core/er-coap-13\er-coap-13.c ****         *dst_len = option_len;
 289:C:/Users/dtjld/Desktop/AIoT_software/LiteOS_Lab_overseas/LiteOS_Lab/iot_link/network/lwm2m/wakaama_lwm2m/core/er-coap-13\er-coap-13.c ****     }
 290:C:/Users/dtjld/Desktop/AIoT_software/LiteOS_Lab_overseas/LiteOS_Lab/iot_link/network/lwm2m/wakaama_lwm2m/core/er-coap-13\er-coap-13.c **** }
ARM GAS  C:\Users\dtjld\AppData\Local\Temp\ccpI0fza.s 			page 21


 867              		.loc 1 290 0
 868 004e 05E0     		b	.L45
 869              	.L43:
 287:C:/Users/dtjld/Desktop/AIoT_software/LiteOS_Lab_overseas/LiteOS_Lab/iot_link/network/lwm2m/wakaama_lwm2m/core/er-coap-13\er-coap-13.c ****         *dst_len = option_len;
 870              		.loc 1 287 0
 871 0050 FB68     		ldr	r3, [r7, #12]
 872 0052 7A68     		ldr	r2, [r7, #4]
 873 0054 1A60     		str	r2, [r3]
 288:C:/Users/dtjld/Desktop/AIoT_software/LiteOS_Lab_overseas/LiteOS_Lab/iot_link/network/lwm2m/wakaama_lwm2m/core/er-coap-13\er-coap-13.c ****     }
 874              		.loc 1 288 0
 875 0056 BB68     		ldr	r3, [r7, #8]
 876 0058 3A68     		ldr	r2, [r7]
 877 005a 1A60     		str	r2, [r3]
 878              	.L45:
 879              		.loc 1 290 0
 880 005c 00BF     		nop
 881 005e 1037     		adds	r7, r7, #16
 882              	.LCFI41:
 883              		.cfi_def_cfa_offset 8
 884 0060 BD46     		mov	sp, r7
 885              	.LCFI42:
 886              		.cfi_def_cfa_register 13
 887              		@ sp needed
 888 0062 80BD     		pop	{r7, pc}
 889              		.cfi_endproc
 890              	.LFE11:
 892              		.section	.text.coap_add_multi_option,"ax",%progbits
 893              		.align	1
 894              		.global	coap_add_multi_option
 895              		.syntax unified
 896              		.thumb
 897              		.thumb_func
 898              		.fpu fpv4-sp-d16
 900              	coap_add_multi_option:
 901              	.LFB12:
 291:C:/Users/dtjld/Desktop/AIoT_software/LiteOS_Lab_overseas/LiteOS_Lab/iot_link/network/lwm2m/wakaama_lwm2m/core/er-coap-13\er-coap-13.c **** 
 292:C:/Users/dtjld/Desktop/AIoT_software/LiteOS_Lab_overseas/LiteOS_Lab/iot_link/network/lwm2m/wakaama_lwm2m/core/er-coap-13\er-coap-13.c **** void
 293:C:/Users/dtjld/Desktop/AIoT_software/LiteOS_Lab_overseas/LiteOS_Lab/iot_link/network/lwm2m/wakaama_lwm2m/core/er-coap-13\er-coap-13.c **** coap_add_multi_option(multi_option_t **dst, uint8_t *option, size_t option_len, uint8_t is_static)
 294:C:/Users/dtjld/Desktop/AIoT_software/LiteOS_Lab_overseas/LiteOS_Lab/iot_link/network/lwm2m/wakaama_lwm2m/core/er-coap-13\er-coap-13.c **** {
 902              		.loc 1 294 0
 903              		.cfi_startproc
 904              		@ args = 0, pretend = 0, frame = 24
 905              		@ frame_needed = 1, uses_anonymous_args = 0
 906 0000 80B5     		push	{r7, lr}
 907              	.LCFI43:
 908              		.cfi_def_cfa_offset 8
 909              		.cfi_offset 7, -8
 910              		.cfi_offset 14, -4
 911 0002 86B0     		sub	sp, sp, #24
 912              	.LCFI44:
 913              		.cfi_def_cfa_offset 32
 914 0004 00AF     		add	r7, sp, #0
 915              	.LCFI45:
 916              		.cfi_def_cfa_register 7
 917 0006 F860     		str	r0, [r7, #12]
 918 0008 B960     		str	r1, [r7, #8]
 919 000a 7A60     		str	r2, [r7, #4]
ARM GAS  C:\Users\dtjld\AppData\Local\Temp\ccpI0fza.s 			page 22


 920 000c FB70     		strb	r3, [r7, #3]
 295:C:/Users/dtjld/Desktop/AIoT_software/LiteOS_Lab_overseas/LiteOS_Lab/iot_link/network/lwm2m/wakaama_lwm2m/core/er-coap-13\er-coap-13.c ****     multi_option_t *opt = (multi_option_t *)lwm2m_malloc(sizeof(multi_option_t));
 921              		.loc 1 295 0
 922 000e 0C20     		movs	r0, #12
 923 0010 FFF7FEFF 		bl	lwm2m_malloc
 924 0014 3861     		str	r0, [r7, #16]
 296:C:/Users/dtjld/Desktop/AIoT_software/LiteOS_Lab_overseas/LiteOS_Lab/iot_link/network/lwm2m/wakaama_lwm2m/core/er-coap-13\er-coap-13.c **** 
 297:C:/Users/dtjld/Desktop/AIoT_software/LiteOS_Lab_overseas/LiteOS_Lab/iot_link/network/lwm2m/wakaama_lwm2m/core/er-coap-13\er-coap-13.c ****     if (opt)
 925              		.loc 1 297 0
 926 0016 3B69     		ldr	r3, [r7, #16]
 927 0018 002B     		cmp	r3, #0
 928 001a 3ED0     		beq	.L46
 298:C:/Users/dtjld/Desktop/AIoT_software/LiteOS_Lab_overseas/LiteOS_Lab/iot_link/network/lwm2m/wakaama_lwm2m/core/er-coap-13\er-coap-13.c ****     {
 299:C:/Users/dtjld/Desktop/AIoT_software/LiteOS_Lab_overseas/LiteOS_Lab/iot_link/network/lwm2m/wakaama_lwm2m/core/er-coap-13\er-coap-13.c ****         opt->next = NULL;
 929              		.loc 1 299 0
 930 001c 3B69     		ldr	r3, [r7, #16]
 931 001e 0022     		movs	r2, #0
 932 0020 1A60     		str	r2, [r3]
 300:C:/Users/dtjld/Desktop/AIoT_software/LiteOS_Lab_overseas/LiteOS_Lab/iot_link/network/lwm2m/wakaama_lwm2m/core/er-coap-13\er-coap-13.c ****         opt->len = (uint8_t)option_len;
 933              		.loc 1 300 0
 934 0022 7B68     		ldr	r3, [r7, #4]
 935 0024 DAB2     		uxtb	r2, r3
 936 0026 3B69     		ldr	r3, [r7, #16]
 937 0028 5A71     		strb	r2, [r3, #5]
 301:C:/Users/dtjld/Desktop/AIoT_software/LiteOS_Lab_overseas/LiteOS_Lab/iot_link/network/lwm2m/wakaama_lwm2m/core/er-coap-13\er-coap-13.c ****         if (is_static)
 938              		.loc 1 301 0
 939 002a FB78     		ldrb	r3, [r7, #3]	@ zero_extendqisi2
 940 002c 002B     		cmp	r3, #0
 941 002e 06D0     		beq	.L48
 302:C:/Users/dtjld/Desktop/AIoT_software/LiteOS_Lab_overseas/LiteOS_Lab/iot_link/network/lwm2m/wakaama_lwm2m/core/er-coap-13\er-coap-13.c ****         {
 303:C:/Users/dtjld/Desktop/AIoT_software/LiteOS_Lab_overseas/LiteOS_Lab/iot_link/network/lwm2m/wakaama_lwm2m/core/er-coap-13\er-coap-13.c ****             opt->data = option;
 942              		.loc 1 303 0
 943 0030 3B69     		ldr	r3, [r7, #16]
 944 0032 BA68     		ldr	r2, [r7, #8]
 945 0034 9A60     		str	r2, [r3, #8]
 304:C:/Users/dtjld/Desktop/AIoT_software/LiteOS_Lab_overseas/LiteOS_Lab/iot_link/network/lwm2m/wakaama_lwm2m/core/er-coap-13\er-coap-13.c ****             opt->is_static = 1;
 946              		.loc 1 304 0
 947 0036 3B69     		ldr	r3, [r7, #16]
 948 0038 0122     		movs	r2, #1
 949 003a 1A71     		strb	r2, [r3, #4]
 950 003c 17E0     		b	.L49
 951              	.L48:
 305:C:/Users/dtjld/Desktop/AIoT_software/LiteOS_Lab_overseas/LiteOS_Lab/iot_link/network/lwm2m/wakaama_lwm2m/core/er-coap-13\er-coap-13.c ****         }
 306:C:/Users/dtjld/Desktop/AIoT_software/LiteOS_Lab_overseas/LiteOS_Lab/iot_link/network/lwm2m/wakaama_lwm2m/core/er-coap-13\er-coap-13.c ****         else
 307:C:/Users/dtjld/Desktop/AIoT_software/LiteOS_Lab_overseas/LiteOS_Lab/iot_link/network/lwm2m/wakaama_lwm2m/core/er-coap-13\er-coap-13.c ****         {
 308:C:/Users/dtjld/Desktop/AIoT_software/LiteOS_Lab_overseas/LiteOS_Lab/iot_link/network/lwm2m/wakaama_lwm2m/core/er-coap-13\er-coap-13.c ****             opt->is_static = 0;
 952              		.loc 1 308 0
 953 003e 3B69     		ldr	r3, [r7, #16]
 954 0040 0022     		movs	r2, #0
 955 0042 1A71     		strb	r2, [r3, #4]
 309:C:/Users/dtjld/Desktop/AIoT_software/LiteOS_Lab_overseas/LiteOS_Lab/iot_link/network/lwm2m/wakaama_lwm2m/core/er-coap-13\er-coap-13.c ****             opt->data = (uint8_t *)lwm2m_malloc(option_len);
 956              		.loc 1 309 0
 957 0044 7868     		ldr	r0, [r7, #4]
 958 0046 FFF7FEFF 		bl	lwm2m_malloc
 959 004a 0246     		mov	r2, r0
 960 004c 3B69     		ldr	r3, [r7, #16]
 961 004e 9A60     		str	r2, [r3, #8]
ARM GAS  C:\Users\dtjld\AppData\Local\Temp\ccpI0fza.s 			page 23


 310:C:/Users/dtjld/Desktop/AIoT_software/LiteOS_Lab_overseas/LiteOS_Lab/iot_link/network/lwm2m/wakaama_lwm2m/core/er-coap-13\er-coap-13.c ****             if (opt->data == NULL)
 962              		.loc 1 310 0
 963 0050 3B69     		ldr	r3, [r7, #16]
 964 0052 9B68     		ldr	r3, [r3, #8]
 965 0054 002B     		cmp	r3, #0
 966 0056 03D1     		bne	.L50
 311:C:/Users/dtjld/Desktop/AIoT_software/LiteOS_Lab_overseas/LiteOS_Lab/iot_link/network/lwm2m/wakaama_lwm2m/core/er-coap-13\er-coap-13.c ****             {
 312:C:/Users/dtjld/Desktop/AIoT_software/LiteOS_Lab_overseas/LiteOS_Lab/iot_link/network/lwm2m/wakaama_lwm2m/core/er-coap-13\er-coap-13.c ****                 lwm2m_free(opt);
 967              		.loc 1 312 0
 968 0058 3869     		ldr	r0, [r7, #16]
 969 005a FFF7FEFF 		bl	lwm2m_free
 313:C:/Users/dtjld/Desktop/AIoT_software/LiteOS_Lab_overseas/LiteOS_Lab/iot_link/network/lwm2m/wakaama_lwm2m/core/er-coap-13\er-coap-13.c ****                 return;
 970              		.loc 1 313 0
 971 005e 1CE0     		b	.L46
 972              	.L50:
 314:C:/Users/dtjld/Desktop/AIoT_software/LiteOS_Lab_overseas/LiteOS_Lab/iot_link/network/lwm2m/wakaama_lwm2m/core/er-coap-13\er-coap-13.c ****             }
 315:C:/Users/dtjld/Desktop/AIoT_software/LiteOS_Lab_overseas/LiteOS_Lab/iot_link/network/lwm2m/wakaama_lwm2m/core/er-coap-13\er-coap-13.c ****             memcpy(opt->data, option, option_len);
 973              		.loc 1 315 0
 974 0060 3B69     		ldr	r3, [r7, #16]
 975 0062 9B68     		ldr	r3, [r3, #8]
 976 0064 7A68     		ldr	r2, [r7, #4]
 977 0066 B968     		ldr	r1, [r7, #8]
 978 0068 1846     		mov	r0, r3
 979 006a FFF7FEFF 		bl	memcpy
 980              	.L49:
 316:C:/Users/dtjld/Desktop/AIoT_software/LiteOS_Lab_overseas/LiteOS_Lab/iot_link/network/lwm2m/wakaama_lwm2m/core/er-coap-13\er-coap-13.c ****         }
 317:C:/Users/dtjld/Desktop/AIoT_software/LiteOS_Lab_overseas/LiteOS_Lab/iot_link/network/lwm2m/wakaama_lwm2m/core/er-coap-13\er-coap-13.c **** 
 318:C:/Users/dtjld/Desktop/AIoT_software/LiteOS_Lab_overseas/LiteOS_Lab/iot_link/network/lwm2m/wakaama_lwm2m/core/er-coap-13\er-coap-13.c ****         if (*dst)
 981              		.loc 1 318 0
 982 006e FB68     		ldr	r3, [r7, #12]
 983 0070 1B68     		ldr	r3, [r3]
 984 0072 002B     		cmp	r3, #0
 985 0074 0ED0     		beq	.L51
 986              	.LBB3:
 319:C:/Users/dtjld/Desktop/AIoT_software/LiteOS_Lab_overseas/LiteOS_Lab/iot_link/network/lwm2m/wakaama_lwm2m/core/er-coap-13\er-coap-13.c ****         {
 320:C:/Users/dtjld/Desktop/AIoT_software/LiteOS_Lab_overseas/LiteOS_Lab/iot_link/network/lwm2m/wakaama_lwm2m/core/er-coap-13\er-coap-13.c ****             multi_option_t *i = *dst;
 987              		.loc 1 320 0
 988 0076 FB68     		ldr	r3, [r7, #12]
 989 0078 1B68     		ldr	r3, [r3]
 990 007a 7B61     		str	r3, [r7, #20]
 321:C:/Users/dtjld/Desktop/AIoT_software/LiteOS_Lab_overseas/LiteOS_Lab/iot_link/network/lwm2m/wakaama_lwm2m/core/er-coap-13\er-coap-13.c ****             while (i->next)
 991              		.loc 1 321 0
 992 007c 02E0     		b	.L52
 993              	.L53:
 322:C:/Users/dtjld/Desktop/AIoT_software/LiteOS_Lab_overseas/LiteOS_Lab/iot_link/network/lwm2m/wakaama_lwm2m/core/er-coap-13\er-coap-13.c ****             {
 323:C:/Users/dtjld/Desktop/AIoT_software/LiteOS_Lab_overseas/LiteOS_Lab/iot_link/network/lwm2m/wakaama_lwm2m/core/er-coap-13\er-coap-13.c ****                 i = i->next;
 994              		.loc 1 323 0
 995 007e 7B69     		ldr	r3, [r7, #20]
 996 0080 1B68     		ldr	r3, [r3]
 997 0082 7B61     		str	r3, [r7, #20]
 998              	.L52:
 321:C:/Users/dtjld/Desktop/AIoT_software/LiteOS_Lab_overseas/LiteOS_Lab/iot_link/network/lwm2m/wakaama_lwm2m/core/er-coap-13\er-coap-13.c ****             while (i->next)
 999              		.loc 1 321 0
 1000 0084 7B69     		ldr	r3, [r7, #20]
 1001 0086 1B68     		ldr	r3, [r3]
 1002 0088 002B     		cmp	r3, #0
 1003 008a F8D1     		bne	.L53
ARM GAS  C:\Users\dtjld\AppData\Local\Temp\ccpI0fza.s 			page 24


 324:C:/Users/dtjld/Desktop/AIoT_software/LiteOS_Lab_overseas/LiteOS_Lab/iot_link/network/lwm2m/wakaama_lwm2m/core/er-coap-13\er-coap-13.c ****             }
 325:C:/Users/dtjld/Desktop/AIoT_software/LiteOS_Lab_overseas/LiteOS_Lab/iot_link/network/lwm2m/wakaama_lwm2m/core/er-coap-13\er-coap-13.c ****             i->next = opt;
 1004              		.loc 1 325 0
 1005 008c 7B69     		ldr	r3, [r7, #20]
 1006 008e 3A69     		ldr	r2, [r7, #16]
 1007 0090 1A60     		str	r2, [r3]
 1008              	.LBE3:
 1009 0092 02E0     		b	.L46
 1010              	.L51:
 326:C:/Users/dtjld/Desktop/AIoT_software/LiteOS_Lab_overseas/LiteOS_Lab/iot_link/network/lwm2m/wakaama_lwm2m/core/er-coap-13\er-coap-13.c ****         }
 327:C:/Users/dtjld/Desktop/AIoT_software/LiteOS_Lab_overseas/LiteOS_Lab/iot_link/network/lwm2m/wakaama_lwm2m/core/er-coap-13\er-coap-13.c ****         else
 328:C:/Users/dtjld/Desktop/AIoT_software/LiteOS_Lab_overseas/LiteOS_Lab/iot_link/network/lwm2m/wakaama_lwm2m/core/er-coap-13\er-coap-13.c ****         {
 329:C:/Users/dtjld/Desktop/AIoT_software/LiteOS_Lab_overseas/LiteOS_Lab/iot_link/network/lwm2m/wakaama_lwm2m/core/er-coap-13\er-coap-13.c ****             *dst = opt;
 1011              		.loc 1 329 0
 1012 0094 FB68     		ldr	r3, [r7, #12]
 1013 0096 3A69     		ldr	r2, [r7, #16]
 1014 0098 1A60     		str	r2, [r3]
 1015              	.L46:
 330:C:/Users/dtjld/Desktop/AIoT_software/LiteOS_Lab_overseas/LiteOS_Lab/iot_link/network/lwm2m/wakaama_lwm2m/core/er-coap-13\er-coap-13.c ****         }
 331:C:/Users/dtjld/Desktop/AIoT_software/LiteOS_Lab_overseas/LiteOS_Lab/iot_link/network/lwm2m/wakaama_lwm2m/core/er-coap-13\er-coap-13.c ****     }
 332:C:/Users/dtjld/Desktop/AIoT_software/LiteOS_Lab_overseas/LiteOS_Lab/iot_link/network/lwm2m/wakaama_lwm2m/core/er-coap-13\er-coap-13.c **** }
 1016              		.loc 1 332 0
 1017 009a 1837     		adds	r7, r7, #24
 1018              	.LCFI46:
 1019              		.cfi_def_cfa_offset 8
 1020 009c BD46     		mov	sp, r7
 1021              	.LCFI47:
 1022              		.cfi_def_cfa_register 13
 1023              		@ sp needed
 1024 009e 80BD     		pop	{r7, pc}
 1025              		.cfi_endproc
 1026              	.LFE12:
 1028              		.section	.text.free_multi_option,"ax",%progbits
 1029              		.align	1
 1030              		.global	free_multi_option
 1031              		.syntax unified
 1032              		.thumb
 1033              		.thumb_func
 1034              		.fpu fpv4-sp-d16
 1036              	free_multi_option:
 1037              	.LFB13:
 333:C:/Users/dtjld/Desktop/AIoT_software/LiteOS_Lab_overseas/LiteOS_Lab/iot_link/network/lwm2m/wakaama_lwm2m/core/er-coap-13\er-coap-13.c **** 
 334:C:/Users/dtjld/Desktop/AIoT_software/LiteOS_Lab_overseas/LiteOS_Lab/iot_link/network/lwm2m/wakaama_lwm2m/core/er-coap-13\er-coap-13.c **** void
 335:C:/Users/dtjld/Desktop/AIoT_software/LiteOS_Lab_overseas/LiteOS_Lab/iot_link/network/lwm2m/wakaama_lwm2m/core/er-coap-13\er-coap-13.c **** free_multi_option(multi_option_t *dst)
 336:C:/Users/dtjld/Desktop/AIoT_software/LiteOS_Lab_overseas/LiteOS_Lab/iot_link/network/lwm2m/wakaama_lwm2m/core/er-coap-13\er-coap-13.c **** {
 1038              		.loc 1 336 0
 1039              		.cfi_startproc
 1040              		@ args = 0, pretend = 0, frame = 16
 1041              		@ frame_needed = 1, uses_anonymous_args = 0
 1042 0000 80B5     		push	{r7, lr}
 1043              	.LCFI48:
 1044              		.cfi_def_cfa_offset 8
 1045              		.cfi_offset 7, -8
 1046              		.cfi_offset 14, -4
 1047 0002 84B0     		sub	sp, sp, #16
 1048              	.LCFI49:
 1049              		.cfi_def_cfa_offset 24
ARM GAS  C:\Users\dtjld\AppData\Local\Temp\ccpI0fza.s 			page 25


 1050 0004 00AF     		add	r7, sp, #0
 1051              	.LCFI50:
 1052              		.cfi_def_cfa_register 7
 1053 0006 7860     		str	r0, [r7, #4]
 337:C:/Users/dtjld/Desktop/AIoT_software/LiteOS_Lab_overseas/LiteOS_Lab/iot_link/network/lwm2m/wakaama_lwm2m/core/er-coap-13\er-coap-13.c ****     if (dst)
 1054              		.loc 1 337 0
 1055 0008 7B68     		ldr	r3, [r7, #4]
 1056 000a 002B     		cmp	r3, #0
 1057 000c 14D0     		beq	.L57
 1058              	.LBB4:
 338:C:/Users/dtjld/Desktop/AIoT_software/LiteOS_Lab_overseas/LiteOS_Lab/iot_link/network/lwm2m/wakaama_lwm2m/core/er-coap-13\er-coap-13.c ****     {
 339:C:/Users/dtjld/Desktop/AIoT_software/LiteOS_Lab_overseas/LiteOS_Lab/iot_link/network/lwm2m/wakaama_lwm2m/core/er-coap-13\er-coap-13.c ****         multi_option_t *n = dst->next;
 1059              		.loc 1 339 0
 1060 000e 7B68     		ldr	r3, [r7, #4]
 1061 0010 1B68     		ldr	r3, [r3]
 1062 0012 FB60     		str	r3, [r7, #12]
 340:C:/Users/dtjld/Desktop/AIoT_software/LiteOS_Lab_overseas/LiteOS_Lab/iot_link/network/lwm2m/wakaama_lwm2m/core/er-coap-13\er-coap-13.c ****         dst->next = NULL;
 1063              		.loc 1 340 0
 1064 0014 7B68     		ldr	r3, [r7, #4]
 1065 0016 0022     		movs	r2, #0
 1066 0018 1A60     		str	r2, [r3]
 341:C:/Users/dtjld/Desktop/AIoT_software/LiteOS_Lab_overseas/LiteOS_Lab/iot_link/network/lwm2m/wakaama_lwm2m/core/er-coap-13\er-coap-13.c ****         if (dst->is_static == 0)
 1067              		.loc 1 341 0
 1068 001a 7B68     		ldr	r3, [r7, #4]
 1069 001c 1B79     		ldrb	r3, [r3, #4]	@ zero_extendqisi2
 1070 001e 002B     		cmp	r3, #0
 1071 0020 04D1     		bne	.L56
 342:C:/Users/dtjld/Desktop/AIoT_software/LiteOS_Lab_overseas/LiteOS_Lab/iot_link/network/lwm2m/wakaama_lwm2m/core/er-coap-13\er-coap-13.c ****         {
 343:C:/Users/dtjld/Desktop/AIoT_software/LiteOS_Lab_overseas/LiteOS_Lab/iot_link/network/lwm2m/wakaama_lwm2m/core/er-coap-13\er-coap-13.c ****             lwm2m_free(dst->data);
 1072              		.loc 1 343 0
 1073 0022 7B68     		ldr	r3, [r7, #4]
 1074 0024 9B68     		ldr	r3, [r3, #8]
 1075 0026 1846     		mov	r0, r3
 1076 0028 FFF7FEFF 		bl	lwm2m_free
 1077              	.L56:
 344:C:/Users/dtjld/Desktop/AIoT_software/LiteOS_Lab_overseas/LiteOS_Lab/iot_link/network/lwm2m/wakaama_lwm2m/core/er-coap-13\er-coap-13.c ****         }
 345:C:/Users/dtjld/Desktop/AIoT_software/LiteOS_Lab_overseas/LiteOS_Lab/iot_link/network/lwm2m/wakaama_lwm2m/core/er-coap-13\er-coap-13.c ****         lwm2m_free(dst);
 1078              		.loc 1 345 0
 1079 002c 7868     		ldr	r0, [r7, #4]
 1080 002e FFF7FEFF 		bl	lwm2m_free
 346:C:/Users/dtjld/Desktop/AIoT_software/LiteOS_Lab_overseas/LiteOS_Lab/iot_link/network/lwm2m/wakaama_lwm2m/core/er-coap-13\er-coap-13.c ****         free_multi_option(n);
 1081              		.loc 1 346 0
 1082 0032 F868     		ldr	r0, [r7, #12]
 1083 0034 FFF7FEFF 		bl	free_multi_option
 1084              	.L57:
 1085              	.LBE4:
 347:C:/Users/dtjld/Desktop/AIoT_software/LiteOS_Lab_overseas/LiteOS_Lab/iot_link/network/lwm2m/wakaama_lwm2m/core/er-coap-13\er-coap-13.c ****     }
 348:C:/Users/dtjld/Desktop/AIoT_software/LiteOS_Lab_overseas/LiteOS_Lab/iot_link/network/lwm2m/wakaama_lwm2m/core/er-coap-13\er-coap-13.c **** }
 1086              		.loc 1 348 0
 1087 0038 00BF     		nop
 1088 003a 1037     		adds	r7, r7, #16
 1089              	.LCFI51:
 1090              		.cfi_def_cfa_offset 8
 1091 003c BD46     		mov	sp, r7
 1092              	.LCFI52:
 1093              		.cfi_def_cfa_register 13
 1094              		@ sp needed
ARM GAS  C:\Users\dtjld\AppData\Local\Temp\ccpI0fza.s 			page 26


 1095 003e 80BD     		pop	{r7, pc}
 1096              		.cfi_endproc
 1097              	.LFE13:
 1099              		.section	.text.coap_get_multi_option_as_string,"ax",%progbits
 1100              		.align	1
 1101              		.global	coap_get_multi_option_as_string
 1102              		.syntax unified
 1103              		.thumb
 1104              		.thumb_func
 1105              		.fpu fpv4-sp-d16
 1107              	coap_get_multi_option_as_string:
 1108              	.LFB14:
 349:C:/Users/dtjld/Desktop/AIoT_software/LiteOS_Lab_overseas/LiteOS_Lab/iot_link/network/lwm2m/wakaama_lwm2m/core/er-coap-13\er-coap-13.c **** 
 350:C:/Users/dtjld/Desktop/AIoT_software/LiteOS_Lab_overseas/LiteOS_Lab/iot_link/network/lwm2m/wakaama_lwm2m/core/er-coap-13\er-coap-13.c **** char *coap_get_multi_option_as_string(multi_option_t *option)
 351:C:/Users/dtjld/Desktop/AIoT_software/LiteOS_Lab_overseas/LiteOS_Lab/iot_link/network/lwm2m/wakaama_lwm2m/core/er-coap-13\er-coap-13.c **** {
 1109              		.loc 1 351 0
 1110              		.cfi_startproc
 1111              		@ args = 0, pretend = 0, frame = 24
 1112              		@ frame_needed = 1, uses_anonymous_args = 0
 1113 0000 80B5     		push	{r7, lr}
 1114              	.LCFI53:
 1115              		.cfi_def_cfa_offset 8
 1116              		.cfi_offset 7, -8
 1117              		.cfi_offset 14, -4
 1118 0002 86B0     		sub	sp, sp, #24
 1119              	.LCFI54:
 1120              		.cfi_def_cfa_offset 32
 1121 0004 00AF     		add	r7, sp, #0
 1122              	.LCFI55:
 1123              		.cfi_def_cfa_register 7
 1124 0006 7860     		str	r0, [r7, #4]
 352:C:/Users/dtjld/Desktop/AIoT_software/LiteOS_Lab_overseas/LiteOS_Lab/iot_link/network/lwm2m/wakaama_lwm2m/core/er-coap-13\er-coap-13.c ****     size_t len = 0;
 1125              		.loc 1 352 0
 1126 0008 0023     		movs	r3, #0
 1127 000a 7B61     		str	r3, [r7, #20]
 353:C:/Users/dtjld/Desktop/AIoT_software/LiteOS_Lab_overseas/LiteOS_Lab/iot_link/network/lwm2m/wakaama_lwm2m/core/er-coap-13\er-coap-13.c ****     multi_option_t *opt;
 354:C:/Users/dtjld/Desktop/AIoT_software/LiteOS_Lab_overseas/LiteOS_Lab/iot_link/network/lwm2m/wakaama_lwm2m/core/er-coap-13\er-coap-13.c ****     char *output;
 355:C:/Users/dtjld/Desktop/AIoT_software/LiteOS_Lab_overseas/LiteOS_Lab/iot_link/network/lwm2m/wakaama_lwm2m/core/er-coap-13\er-coap-13.c **** 
 356:C:/Users/dtjld/Desktop/AIoT_software/LiteOS_Lab_overseas/LiteOS_Lab/iot_link/network/lwm2m/wakaama_lwm2m/core/er-coap-13\er-coap-13.c ****     for (opt = option; opt != NULL; opt = opt->next)
 1128              		.loc 1 356 0
 1129 000c 7B68     		ldr	r3, [r7, #4]
 1130 000e 3B61     		str	r3, [r7, #16]
 1131 0010 09E0     		b	.L59
 1132              	.L60:
 357:C:/Users/dtjld/Desktop/AIoT_software/LiteOS_Lab_overseas/LiteOS_Lab/iot_link/network/lwm2m/wakaama_lwm2m/core/er-coap-13\er-coap-13.c ****     {
 358:C:/Users/dtjld/Desktop/AIoT_software/LiteOS_Lab_overseas/LiteOS_Lab/iot_link/network/lwm2m/wakaama_lwm2m/core/er-coap-13\er-coap-13.c ****         len += opt->len + 1;     // for separator
 1133              		.loc 1 358 0 discriminator 3
 1134 0012 3B69     		ldr	r3, [r7, #16]
 1135 0014 5B79     		ldrb	r3, [r3, #5]	@ zero_extendqisi2
 1136 0016 1A46     		mov	r2, r3
 1137 0018 7B69     		ldr	r3, [r7, #20]
 1138 001a 1344     		add	r3, r3, r2
 1139 001c 0133     		adds	r3, r3, #1
 1140 001e 7B61     		str	r3, [r7, #20]
 356:C:/Users/dtjld/Desktop/AIoT_software/LiteOS_Lab_overseas/LiteOS_Lab/iot_link/network/lwm2m/wakaama_lwm2m/core/er-coap-13\er-coap-13.c ****     {
 1141              		.loc 1 356 0 discriminator 3
 1142 0020 3B69     		ldr	r3, [r7, #16]
ARM GAS  C:\Users\dtjld\AppData\Local\Temp\ccpI0fza.s 			page 27


 1143 0022 1B68     		ldr	r3, [r3]
 1144 0024 3B61     		str	r3, [r7, #16]
 1145              	.L59:
 356:C:/Users/dtjld/Desktop/AIoT_software/LiteOS_Lab_overseas/LiteOS_Lab/iot_link/network/lwm2m/wakaama_lwm2m/core/er-coap-13\er-coap-13.c ****     {
 1146              		.loc 1 356 0 is_stmt 0 discriminator 1
 1147 0026 3B69     		ldr	r3, [r7, #16]
 1148 0028 002B     		cmp	r3, #0
 1149 002a F2D1     		bne	.L60
 359:C:/Users/dtjld/Desktop/AIoT_software/LiteOS_Lab_overseas/LiteOS_Lab/iot_link/network/lwm2m/wakaama_lwm2m/core/er-coap-13\er-coap-13.c ****     }
 360:C:/Users/dtjld/Desktop/AIoT_software/LiteOS_Lab_overseas/LiteOS_Lab/iot_link/network/lwm2m/wakaama_lwm2m/core/er-coap-13\er-coap-13.c **** 
 361:C:/Users/dtjld/Desktop/AIoT_software/LiteOS_Lab_overseas/LiteOS_Lab/iot_link/network/lwm2m/wakaama_lwm2m/core/er-coap-13\er-coap-13.c ****     output = lwm2m_malloc(len + 1); // for String terminator
 1150              		.loc 1 361 0 is_stmt 1
 1151 002c 7B69     		ldr	r3, [r7, #20]
 1152 002e 0133     		adds	r3, r3, #1
 1153 0030 1846     		mov	r0, r3
 1154 0032 FFF7FEFF 		bl	lwm2m_malloc
 1155 0036 B860     		str	r0, [r7, #8]
 362:C:/Users/dtjld/Desktop/AIoT_software/LiteOS_Lab_overseas/LiteOS_Lab/iot_link/network/lwm2m/wakaama_lwm2m/core/er-coap-13\er-coap-13.c ****     if (output != NULL)
 1156              		.loc 1 362 0
 1157 0038 BB68     		ldr	r3, [r7, #8]
 1158 003a 002B     		cmp	r3, #0
 1159 003c 27D0     		beq	.L61
 1160              	.LBB5:
 363:C:/Users/dtjld/Desktop/AIoT_software/LiteOS_Lab_overseas/LiteOS_Lab/iot_link/network/lwm2m/wakaama_lwm2m/core/er-coap-13\er-coap-13.c ****     {
 364:C:/Users/dtjld/Desktop/AIoT_software/LiteOS_Lab_overseas/LiteOS_Lab/iot_link/network/lwm2m/wakaama_lwm2m/core/er-coap-13\er-coap-13.c ****         size_t i = 0;
 1161              		.loc 1 364 0
 1162 003e 0023     		movs	r3, #0
 1163 0040 FB60     		str	r3, [r7, #12]
 365:C:/Users/dtjld/Desktop/AIoT_software/LiteOS_Lab_overseas/LiteOS_Lab/iot_link/network/lwm2m/wakaama_lwm2m/core/er-coap-13\er-coap-13.c **** 
 366:C:/Users/dtjld/Desktop/AIoT_software/LiteOS_Lab_overseas/LiteOS_Lab/iot_link/network/lwm2m/wakaama_lwm2m/core/er-coap-13\er-coap-13.c ****         for (opt = option; opt != NULL; opt = opt->next)
 1164              		.loc 1 366 0
 1165 0042 7B68     		ldr	r3, [r7, #4]
 1166 0044 3B61     		str	r3, [r7, #16]
 1167 0046 1AE0     		b	.L62
 1168              	.L63:
 367:C:/Users/dtjld/Desktop/AIoT_software/LiteOS_Lab_overseas/LiteOS_Lab/iot_link/network/lwm2m/wakaama_lwm2m/core/er-coap-13\er-coap-13.c ****         {
 368:C:/Users/dtjld/Desktop/AIoT_software/LiteOS_Lab_overseas/LiteOS_Lab/iot_link/network/lwm2m/wakaama_lwm2m/core/er-coap-13\er-coap-13.c ****             output[i] = '/';
 1169              		.loc 1 368 0 discriminator 3
 1170 0048 BA68     		ldr	r2, [r7, #8]
 1171 004a FB68     		ldr	r3, [r7, #12]
 1172 004c 1344     		add	r3, r3, r2
 1173 004e 2F22     		movs	r2, #47
 1174 0050 1A70     		strb	r2, [r3]
 369:C:/Users/dtjld/Desktop/AIoT_software/LiteOS_Lab_overseas/LiteOS_Lab/iot_link/network/lwm2m/wakaama_lwm2m/core/er-coap-13\er-coap-13.c ****             i += 1;
 1175              		.loc 1 369 0 discriminator 3
 1176 0052 FB68     		ldr	r3, [r7, #12]
 1177 0054 0133     		adds	r3, r3, #1
 1178 0056 FB60     		str	r3, [r7, #12]
 370:C:/Users/dtjld/Desktop/AIoT_software/LiteOS_Lab_overseas/LiteOS_Lab/iot_link/network/lwm2m/wakaama_lwm2m/core/er-coap-13\er-coap-13.c **** 
 371:C:/Users/dtjld/Desktop/AIoT_software/LiteOS_Lab_overseas/LiteOS_Lab/iot_link/network/lwm2m/wakaama_lwm2m/core/er-coap-13\er-coap-13.c ****             memmove(output + i, opt->data, opt->len);
 1179              		.loc 1 371 0 discriminator 3
 1180 0058 BA68     		ldr	r2, [r7, #8]
 1181 005a FB68     		ldr	r3, [r7, #12]
 1182 005c D018     		adds	r0, r2, r3
 1183 005e 3B69     		ldr	r3, [r7, #16]
 1184 0060 9968     		ldr	r1, [r3, #8]
 1185 0062 3B69     		ldr	r3, [r7, #16]
ARM GAS  C:\Users\dtjld\AppData\Local\Temp\ccpI0fza.s 			page 28


 1186 0064 5B79     		ldrb	r3, [r3, #5]	@ zero_extendqisi2
 1187 0066 1A46     		mov	r2, r3
 1188 0068 FFF7FEFF 		bl	memmove
 372:C:/Users/dtjld/Desktop/AIoT_software/LiteOS_Lab_overseas/LiteOS_Lab/iot_link/network/lwm2m/wakaama_lwm2m/core/er-coap-13\er-coap-13.c ****             i += opt->len;
 1189              		.loc 1 372 0 discriminator 3
 1190 006c 3B69     		ldr	r3, [r7, #16]
 1191 006e 5B79     		ldrb	r3, [r3, #5]	@ zero_extendqisi2
 1192 0070 1A46     		mov	r2, r3
 1193 0072 FB68     		ldr	r3, [r7, #12]
 1194 0074 1344     		add	r3, r3, r2
 1195 0076 FB60     		str	r3, [r7, #12]
 366:C:/Users/dtjld/Desktop/AIoT_software/LiteOS_Lab_overseas/LiteOS_Lab/iot_link/network/lwm2m/wakaama_lwm2m/core/er-coap-13\er-coap-13.c ****         {
 1196              		.loc 1 366 0 discriminator 3
 1197 0078 3B69     		ldr	r3, [r7, #16]
 1198 007a 1B68     		ldr	r3, [r3]
 1199 007c 3B61     		str	r3, [r7, #16]
 1200              	.L62:
 366:C:/Users/dtjld/Desktop/AIoT_software/LiteOS_Lab_overseas/LiteOS_Lab/iot_link/network/lwm2m/wakaama_lwm2m/core/er-coap-13\er-coap-13.c ****         {
 1201              		.loc 1 366 0 is_stmt 0 discriminator 1
 1202 007e 3B69     		ldr	r3, [r7, #16]
 1203 0080 002B     		cmp	r3, #0
 1204 0082 E1D1     		bne	.L63
 373:C:/Users/dtjld/Desktop/AIoT_software/LiteOS_Lab_overseas/LiteOS_Lab/iot_link/network/lwm2m/wakaama_lwm2m/core/er-coap-13\er-coap-13.c ****         }
 374:C:/Users/dtjld/Desktop/AIoT_software/LiteOS_Lab_overseas/LiteOS_Lab/iot_link/network/lwm2m/wakaama_lwm2m/core/er-coap-13\er-coap-13.c ****         output[i] = 0;
 1205              		.loc 1 374 0 is_stmt 1
 1206 0084 BA68     		ldr	r2, [r7, #8]
 1207 0086 FB68     		ldr	r3, [r7, #12]
 1208 0088 1344     		add	r3, r3, r2
 1209 008a 0022     		movs	r2, #0
 1210 008c 1A70     		strb	r2, [r3]
 1211              	.L61:
 1212              	.LBE5:
 375:C:/Users/dtjld/Desktop/AIoT_software/LiteOS_Lab_overseas/LiteOS_Lab/iot_link/network/lwm2m/wakaama_lwm2m/core/er-coap-13\er-coap-13.c ****     }
 376:C:/Users/dtjld/Desktop/AIoT_software/LiteOS_Lab_overseas/LiteOS_Lab/iot_link/network/lwm2m/wakaama_lwm2m/core/er-coap-13\er-coap-13.c **** 
 377:C:/Users/dtjld/Desktop/AIoT_software/LiteOS_Lab_overseas/LiteOS_Lab/iot_link/network/lwm2m/wakaama_lwm2m/core/er-coap-13\er-coap-13.c ****     return output;
 1213              		.loc 1 377 0
 1214 008e BB68     		ldr	r3, [r7, #8]
 378:C:/Users/dtjld/Desktop/AIoT_software/LiteOS_Lab_overseas/LiteOS_Lab/iot_link/network/lwm2m/wakaama_lwm2m/core/er-coap-13\er-coap-13.c **** }
 1215              		.loc 1 378 0
 1216 0090 1846     		mov	r0, r3
 1217 0092 1837     		adds	r7, r7, #24
 1218              	.LCFI56:
 1219              		.cfi_def_cfa_offset 8
 1220 0094 BD46     		mov	sp, r7
 1221              	.LCFI57:
 1222              		.cfi_def_cfa_register 13
 1223              		@ sp needed
 1224 0096 80BD     		pop	{r7, pc}
 1225              		.cfi_endproc
 1226              	.LFE14:
 1228              		.section	.text.coap_get_variable,"ax",%progbits
 1229              		.align	1
 1230              		.syntax unified
 1231              		.thumb
 1232              		.thumb_func
 1233              		.fpu fpv4-sp-d16
 1235              	coap_get_variable:
ARM GAS  C:\Users\dtjld\AppData\Local\Temp\ccpI0fza.s 			page 29


 1236              	.LFB15:
 379:C:/Users/dtjld/Desktop/AIoT_software/LiteOS_Lab_overseas/LiteOS_Lab/iot_link/network/lwm2m/wakaama_lwm2m/core/er-coap-13\er-coap-13.c **** 
 380:C:/Users/dtjld/Desktop/AIoT_software/LiteOS_Lab_overseas/LiteOS_Lab/iot_link/network/lwm2m/wakaama_lwm2m/core/er-coap-13\er-coap-13.c **** /*-----------------------------------------------------------------------------------*/
 381:C:/Users/dtjld/Desktop/AIoT_software/LiteOS_Lab_overseas/LiteOS_Lab/iot_link/network/lwm2m/wakaama_lwm2m/core/er-coap-13\er-coap-13.c **** static
 382:C:/Users/dtjld/Desktop/AIoT_software/LiteOS_Lab_overseas/LiteOS_Lab/iot_link/network/lwm2m/wakaama_lwm2m/core/er-coap-13\er-coap-13.c **** int
 383:C:/Users/dtjld/Desktop/AIoT_software/LiteOS_Lab_overseas/LiteOS_Lab/iot_link/network/lwm2m/wakaama_lwm2m/core/er-coap-13\er-coap-13.c **** coap_get_variable(const uint8_t *buffer, size_t length, const char *name, const char **output)
 384:C:/Users/dtjld/Desktop/AIoT_software/LiteOS_Lab_overseas/LiteOS_Lab/iot_link/network/lwm2m/wakaama_lwm2m/core/er-coap-13\er-coap-13.c **** {
 1237              		.loc 1 384 0
 1238              		.cfi_startproc
 1239              		@ args = 0, pretend = 0, frame = 32
 1240              		@ frame_needed = 1, uses_anonymous_args = 0
 1241 0000 80B5     		push	{r7, lr}
 1242              	.LCFI58:
 1243              		.cfi_def_cfa_offset 8
 1244              		.cfi_offset 7, -8
 1245              		.cfi_offset 14, -4
 1246 0002 88B0     		sub	sp, sp, #32
 1247              	.LCFI59:
 1248              		.cfi_def_cfa_offset 40
 1249 0004 00AF     		add	r7, sp, #0
 1250              	.LCFI60:
 1251              		.cfi_def_cfa_register 7
 1252 0006 F860     		str	r0, [r7, #12]
 1253 0008 B960     		str	r1, [r7, #8]
 1254 000a 7A60     		str	r2, [r7, #4]
 1255 000c 3B60     		str	r3, [r7]
 385:C:/Users/dtjld/Desktop/AIoT_software/LiteOS_Lab_overseas/LiteOS_Lab/iot_link/network/lwm2m/wakaama_lwm2m/core/er-coap-13\er-coap-13.c ****     const uint8_t *start = NULL;
 1256              		.loc 1 385 0
 1257 000e 0023     		movs	r3, #0
 1258 0010 FB61     		str	r3, [r7, #28]
 386:C:/Users/dtjld/Desktop/AIoT_software/LiteOS_Lab_overseas/LiteOS_Lab/iot_link/network/lwm2m/wakaama_lwm2m/core/er-coap-13\er-coap-13.c ****     const uint8_t *end = NULL;
 1259              		.loc 1 386 0
 1260 0012 0023     		movs	r3, #0
 1261 0014 7B61     		str	r3, [r7, #20]
 387:C:/Users/dtjld/Desktop/AIoT_software/LiteOS_Lab_overseas/LiteOS_Lab/iot_link/network/lwm2m/wakaama_lwm2m/core/er-coap-13\er-coap-13.c ****     const uint8_t *value_end = NULL;
 1262              		.loc 1 387 0
 1263 0016 0023     		movs	r3, #0
 1264 0018 BB61     		str	r3, [r7, #24]
 388:C:/Users/dtjld/Desktop/AIoT_software/LiteOS_Lab_overseas/LiteOS_Lab/iot_link/network/lwm2m/wakaama_lwm2m/core/er-coap-13\er-coap-13.c ****     size_t name_len = 0;
 1265              		.loc 1 388 0
 1266 001a 0023     		movs	r3, #0
 1267 001c 3B61     		str	r3, [r7, #16]
 389:C:/Users/dtjld/Desktop/AIoT_software/LiteOS_Lab_overseas/LiteOS_Lab/iot_link/network/lwm2m/wakaama_lwm2m/core/er-coap-13\er-coap-13.c **** 
 390:C:/Users/dtjld/Desktop/AIoT_software/LiteOS_Lab_overseas/LiteOS_Lab/iot_link/network/lwm2m/wakaama_lwm2m/core/er-coap-13\er-coap-13.c ****     /*initialize the output buffer first*/
 391:C:/Users/dtjld/Desktop/AIoT_software/LiteOS_Lab_overseas/LiteOS_Lab/iot_link/network/lwm2m/wakaama_lwm2m/core/er-coap-13\er-coap-13.c ****     *output = 0;
 1268              		.loc 1 391 0
 1269 001e 3B68     		ldr	r3, [r7]
 1270 0020 0022     		movs	r2, #0
 1271 0022 1A60     		str	r2, [r3]
 392:C:/Users/dtjld/Desktop/AIoT_software/LiteOS_Lab_overseas/LiteOS_Lab/iot_link/network/lwm2m/wakaama_lwm2m/core/er-coap-13\er-coap-13.c **** 
 393:C:/Users/dtjld/Desktop/AIoT_software/LiteOS_Lab_overseas/LiteOS_Lab/iot_link/network/lwm2m/wakaama_lwm2m/core/er-coap-13\er-coap-13.c ****     name_len = strlen(name);
 1272              		.loc 1 393 0
 1273 0024 7868     		ldr	r0, [r7, #4]
 1274 0026 FFF7FEFF 		bl	strlen
 1275 002a 3861     		str	r0, [r7, #16]
 394:C:/Users/dtjld/Desktop/AIoT_software/LiteOS_Lab_overseas/LiteOS_Lab/iot_link/network/lwm2m/wakaama_lwm2m/core/er-coap-13\er-coap-13.c ****     end = buffer + length;
 1276              		.loc 1 394 0
ARM GAS  C:\Users\dtjld\AppData\Local\Temp\ccpI0fza.s 			page 30


 1277 002c FA68     		ldr	r2, [r7, #12]
 1278 002e BB68     		ldr	r3, [r7, #8]
 1279 0030 1344     		add	r3, r3, r2
 1280 0032 7B61     		str	r3, [r7, #20]
 395:C:/Users/dtjld/Desktop/AIoT_software/LiteOS_Lab_overseas/LiteOS_Lab/iot_link/network/lwm2m/wakaama_lwm2m/core/er-coap-13\er-coap-13.c **** 
 396:C:/Users/dtjld/Desktop/AIoT_software/LiteOS_Lab_overseas/LiteOS_Lab/iot_link/network/lwm2m/wakaama_lwm2m/core/er-coap-13\er-coap-13.c ****     for (start = buffer; start + name_len < end; ++start)
 1281              		.loc 1 396 0
 1282 0034 FB68     		ldr	r3, [r7, #12]
 1283 0036 FB61     		str	r3, [r7, #28]
 1284 0038 33E0     		b	.L66
 1285              	.L71:
 397:C:/Users/dtjld/Desktop/AIoT_software/LiteOS_Lab_overseas/LiteOS_Lab/iot_link/network/lwm2m/wakaama_lwm2m/core/er-coap-13\er-coap-13.c ****     {
 398:C:/Users/dtjld/Desktop/AIoT_software/LiteOS_Lab_overseas/LiteOS_Lab/iot_link/network/lwm2m/wakaama_lwm2m/core/er-coap-13\er-coap-13.c ****         if ((start == buffer || start[-1] == '&') && start[name_len] == '=' &&
 1286              		.loc 1 398 0
 1287 003a FA69     		ldr	r2, [r7, #28]
 1288 003c FB68     		ldr	r3, [r7, #12]
 1289 003e 9A42     		cmp	r2, r3
 1290 0040 04D0     		beq	.L67
 1291              		.loc 1 398 0 is_stmt 0 discriminator 2
 1292 0042 FB69     		ldr	r3, [r7, #28]
 1293 0044 013B     		subs	r3, r3, #1
 1294 0046 1B78     		ldrb	r3, [r3]	@ zero_extendqisi2
 1295 0048 262B     		cmp	r3, #38
 1296 004a 27D1     		bne	.L68
 1297              	.L67:
 1298              		.loc 1 398 0 discriminator 3
 1299 004c FA69     		ldr	r2, [r7, #28]
 1300 004e 3B69     		ldr	r3, [r7, #16]
 1301 0050 1344     		add	r3, r3, r2
 1302 0052 1B78     		ldrb	r3, [r3]	@ zero_extendqisi2
 1303 0054 3D2B     		cmp	r3, #61
 1304 0056 21D1     		bne	.L68
 399:C:/Users/dtjld/Desktop/AIoT_software/LiteOS_Lab_overseas/LiteOS_Lab/iot_link/network/lwm2m/wakaama_lwm2m/core/er-coap-13\er-coap-13.c ****                 strncmp(name, (char *)start, name_len) == 0)
 1305              		.loc 1 399 0 is_stmt 1 discriminator 4
 1306 0058 3A69     		ldr	r2, [r7, #16]
 1307 005a F969     		ldr	r1, [r7, #28]
 1308 005c 7868     		ldr	r0, [r7, #4]
 1309 005e FFF7FEFF 		bl	strncmp
 1310 0062 0346     		mov	r3, r0
 398:C:/Users/dtjld/Desktop/AIoT_software/LiteOS_Lab_overseas/LiteOS_Lab/iot_link/network/lwm2m/wakaama_lwm2m/core/er-coap-13\er-coap-13.c ****                 strncmp(name, (char *)start, name_len) == 0)
 1311              		.loc 1 398 0 discriminator 4
 1312 0064 002B     		cmp	r3, #0
 1313 0066 19D1     		bne	.L68
 400:C:/Users/dtjld/Desktop/AIoT_software/LiteOS_Lab_overseas/LiteOS_Lab/iot_link/network/lwm2m/wakaama_lwm2m/core/er-coap-13\er-coap-13.c ****         {
 401:C:/Users/dtjld/Desktop/AIoT_software/LiteOS_Lab_overseas/LiteOS_Lab/iot_link/network/lwm2m/wakaama_lwm2m/core/er-coap-13\er-coap-13.c **** 
 402:C:/Users/dtjld/Desktop/AIoT_software/LiteOS_Lab_overseas/LiteOS_Lab/iot_link/network/lwm2m/wakaama_lwm2m/core/er-coap-13\er-coap-13.c ****             /* Point start to variable value */
 403:C:/Users/dtjld/Desktop/AIoT_software/LiteOS_Lab_overseas/LiteOS_Lab/iot_link/network/lwm2m/wakaama_lwm2m/core/er-coap-13\er-coap-13.c ****             start += name_len + 1;
 1314              		.loc 1 403 0
 1315 0068 3B69     		ldr	r3, [r7, #16]
 1316 006a 0133     		adds	r3, r3, #1
 1317 006c FA69     		ldr	r2, [r7, #28]
 1318 006e 1344     		add	r3, r3, r2
 1319 0070 FB61     		str	r3, [r7, #28]
 404:C:/Users/dtjld/Desktop/AIoT_software/LiteOS_Lab_overseas/LiteOS_Lab/iot_link/network/lwm2m/wakaama_lwm2m/core/er-coap-13\er-coap-13.c **** 
 405:C:/Users/dtjld/Desktop/AIoT_software/LiteOS_Lab_overseas/LiteOS_Lab/iot_link/network/lwm2m/wakaama_lwm2m/core/er-coap-13\er-coap-13.c ****             /* Point end to the end of the value */
 406:C:/Users/dtjld/Desktop/AIoT_software/LiteOS_Lab_overseas/LiteOS_Lab/iot_link/network/lwm2m/wakaama_lwm2m/core/er-coap-13\er-coap-13.c ****             value_end = (const uint8_t *) memchr(start, '&', end - start);
 1320              		.loc 1 406 0
ARM GAS  C:\Users\dtjld\AppData\Local\Temp\ccpI0fza.s 			page 31


 1321 0072 7A69     		ldr	r2, [r7, #20]
 1322 0074 FB69     		ldr	r3, [r7, #28]
 1323 0076 D31A     		subs	r3, r2, r3
 1324 0078 1A46     		mov	r2, r3
 1325 007a 2621     		movs	r1, #38
 1326 007c F869     		ldr	r0, [r7, #28]
 1327 007e FFF7FEFF 		bl	memchr
 1328 0082 B861     		str	r0, [r7, #24]
 407:C:/Users/dtjld/Desktop/AIoT_software/LiteOS_Lab_overseas/LiteOS_Lab/iot_link/network/lwm2m/wakaama_lwm2m/core/er-coap-13\er-coap-13.c ****             if (value_end == NULL)
 1329              		.loc 1 407 0
 1330 0084 BB69     		ldr	r3, [r7, #24]
 1331 0086 002B     		cmp	r3, #0
 1332 0088 01D1     		bne	.L69
 408:C:/Users/dtjld/Desktop/AIoT_software/LiteOS_Lab_overseas/LiteOS_Lab/iot_link/network/lwm2m/wakaama_lwm2m/core/er-coap-13\er-coap-13.c ****             {
 409:C:/Users/dtjld/Desktop/AIoT_software/LiteOS_Lab_overseas/LiteOS_Lab/iot_link/network/lwm2m/wakaama_lwm2m/core/er-coap-13\er-coap-13.c ****                 value_end = end;
 1333              		.loc 1 409 0
 1334 008a 7B69     		ldr	r3, [r7, #20]
 1335 008c BB61     		str	r3, [r7, #24]
 1336              	.L69:
 410:C:/Users/dtjld/Desktop/AIoT_software/LiteOS_Lab_overseas/LiteOS_Lab/iot_link/network/lwm2m/wakaama_lwm2m/core/er-coap-13\er-coap-13.c ****             }
 411:C:/Users/dtjld/Desktop/AIoT_software/LiteOS_Lab_overseas/LiteOS_Lab/iot_link/network/lwm2m/wakaama_lwm2m/core/er-coap-13\er-coap-13.c **** 
 412:C:/Users/dtjld/Desktop/AIoT_software/LiteOS_Lab_overseas/LiteOS_Lab/iot_link/network/lwm2m/wakaama_lwm2m/core/er-coap-13\er-coap-13.c ****             *output = (char *)start;
 1337              		.loc 1 412 0
 1338 008e 3B68     		ldr	r3, [r7]
 1339 0090 FA69     		ldr	r2, [r7, #28]
 1340 0092 1A60     		str	r2, [r3]
 413:C:/Users/dtjld/Desktop/AIoT_software/LiteOS_Lab_overseas/LiteOS_Lab/iot_link/network/lwm2m/wakaama_lwm2m/core/er-coap-13\er-coap-13.c **** 
 414:C:/Users/dtjld/Desktop/AIoT_software/LiteOS_Lab_overseas/LiteOS_Lab/iot_link/network/lwm2m/wakaama_lwm2m/core/er-coap-13\er-coap-13.c ****             return (value_end - start);
 1341              		.loc 1 414 0
 1342 0094 BA69     		ldr	r2, [r7, #24]
 1343 0096 FB69     		ldr	r3, [r7, #28]
 1344 0098 D31A     		subs	r3, r2, r3
 1345 009a 09E0     		b	.L70
 1346              	.L68:
 396:C:/Users/dtjld/Desktop/AIoT_software/LiteOS_Lab_overseas/LiteOS_Lab/iot_link/network/lwm2m/wakaama_lwm2m/core/er-coap-13\er-coap-13.c ****     {
 1347              		.loc 1 396 0 discriminator 2
 1348 009c FB69     		ldr	r3, [r7, #28]
 1349 009e 0133     		adds	r3, r3, #1
 1350 00a0 FB61     		str	r3, [r7, #28]
 1351              	.L66:
 396:C:/Users/dtjld/Desktop/AIoT_software/LiteOS_Lab_overseas/LiteOS_Lab/iot_link/network/lwm2m/wakaama_lwm2m/core/er-coap-13\er-coap-13.c ****     {
 1352              		.loc 1 396 0 is_stmt 0 discriminator 1
 1353 00a2 FA69     		ldr	r2, [r7, #28]
 1354 00a4 3B69     		ldr	r3, [r7, #16]
 1355 00a6 1344     		add	r3, r3, r2
 1356 00a8 7A69     		ldr	r2, [r7, #20]
 1357 00aa 9A42     		cmp	r2, r3
 1358 00ac C5D8     		bhi	.L71
 415:C:/Users/dtjld/Desktop/AIoT_software/LiteOS_Lab_overseas/LiteOS_Lab/iot_link/network/lwm2m/wakaama_lwm2m/core/er-coap-13\er-coap-13.c ****         }
 416:C:/Users/dtjld/Desktop/AIoT_software/LiteOS_Lab_overseas/LiteOS_Lab/iot_link/network/lwm2m/wakaama_lwm2m/core/er-coap-13\er-coap-13.c ****     }
 417:C:/Users/dtjld/Desktop/AIoT_software/LiteOS_Lab_overseas/LiteOS_Lab/iot_link/network/lwm2m/wakaama_lwm2m/core/er-coap-13\er-coap-13.c **** 
 418:C:/Users/dtjld/Desktop/AIoT_software/LiteOS_Lab_overseas/LiteOS_Lab/iot_link/network/lwm2m/wakaama_lwm2m/core/er-coap-13\er-coap-13.c ****     return 0;
 1359              		.loc 1 418 0 is_stmt 1
 1360 00ae 0023     		movs	r3, #0
 1361              	.L70:
 419:C:/Users/dtjld/Desktop/AIoT_software/LiteOS_Lab_overseas/LiteOS_Lab/iot_link/network/lwm2m/wakaama_lwm2m/core/er-coap-13\er-coap-13.c **** }
 1362              		.loc 1 419 0
ARM GAS  C:\Users\dtjld\AppData\Local\Temp\ccpI0fza.s 			page 32


 1363 00b0 1846     		mov	r0, r3
 1364 00b2 2037     		adds	r7, r7, #32
 1365              	.LCFI61:
 1366              		.cfi_def_cfa_offset 8
 1367 00b4 BD46     		mov	sp, r7
 1368              	.LCFI62:
 1369              		.cfi_def_cfa_register 13
 1370              		@ sp needed
 1371 00b6 80BD     		pop	{r7, pc}
 1372              		.cfi_endproc
 1373              	.LFE15:
 1375              		.section	.text.coap_get_mid,"ax",%progbits
 1376              		.align	1
 1377              		.global	coap_get_mid
 1378              		.syntax unified
 1379              		.thumb
 1380              		.thumb_func
 1381              		.fpu fpv4-sp-d16
 1383              	coap_get_mid:
 1384              	.LFB16:
 420:C:/Users/dtjld/Desktop/AIoT_software/LiteOS_Lab_overseas/LiteOS_Lab/iot_link/network/lwm2m/wakaama_lwm2m/core/er-coap-13\er-coap-13.c **** 
 421:C:/Users/dtjld/Desktop/AIoT_software/LiteOS_Lab_overseas/LiteOS_Lab/iot_link/network/lwm2m/wakaama_lwm2m/core/er-coap-13\er-coap-13.c **** /*-----------------------------------------------------------------------------------*/
 422:C:/Users/dtjld/Desktop/AIoT_software/LiteOS_Lab_overseas/LiteOS_Lab/iot_link/network/lwm2m/wakaama_lwm2m/core/er-coap-13\er-coap-13.c **** uint16_t
 423:C:/Users/dtjld/Desktop/AIoT_software/LiteOS_Lab_overseas/LiteOS_Lab/iot_link/network/lwm2m/wakaama_lwm2m/core/er-coap-13\er-coap-13.c **** coap_get_mid()
 424:C:/Users/dtjld/Desktop/AIoT_software/LiteOS_Lab_overseas/LiteOS_Lab/iot_link/network/lwm2m/wakaama_lwm2m/core/er-coap-13\er-coap-13.c **** {
 1385              		.loc 1 424 0
 1386              		.cfi_startproc
 1387              		@ args = 0, pretend = 0, frame = 0
 1388              		@ frame_needed = 1, uses_anonymous_args = 0
 1389              		@ link register save eliminated.
 1390 0000 80B4     		push	{r7}
 1391              	.LCFI63:
 1392              		.cfi_def_cfa_offset 4
 1393              		.cfi_offset 7, -4
 1394 0002 00AF     		add	r7, sp, #0
 1395              	.LCFI64:
 1396              		.cfi_def_cfa_register 7
 425:C:/Users/dtjld/Desktop/AIoT_software/LiteOS_Lab_overseas/LiteOS_Lab/iot_link/network/lwm2m/wakaama_lwm2m/core/er-coap-13\er-coap-13.c ****     return ++current_mid;
 1397              		.loc 1 425 0
 1398 0004 064B     		ldr	r3, .L74
 1399 0006 1B88     		ldrh	r3, [r3]
 1400 0008 0133     		adds	r3, r3, #1
 1401 000a 9AB2     		uxth	r2, r3
 1402 000c 044B     		ldr	r3, .L74
 1403 000e 1A80     		strh	r2, [r3]	@ movhi
 1404 0010 034B     		ldr	r3, .L74
 1405 0012 1B88     		ldrh	r3, [r3]
 426:C:/Users/dtjld/Desktop/AIoT_software/LiteOS_Lab_overseas/LiteOS_Lab/iot_link/network/lwm2m/wakaama_lwm2m/core/er-coap-13\er-coap-13.c **** }
 1406              		.loc 1 426 0
 1407 0014 1846     		mov	r0, r3
 1408 0016 BD46     		mov	sp, r7
 1409              	.LCFI65:
 1410              		.cfi_def_cfa_register 13
 1411              		@ sp needed
 1412 0018 5DF8047B 		ldr	r7, [sp], #4
 1413              	.LCFI66:
 1414              		.cfi_restore 7
ARM GAS  C:\Users\dtjld\AppData\Local\Temp\ccpI0fza.s 			page 33


 1415              		.cfi_def_cfa_offset 0
 1416 001c 7047     		bx	lr
 1417              	.L75:
 1418 001e 00BF     		.align	2
 1419              	.L74:
 1420 0020 00000000 		.word	current_mid
 1421              		.cfi_endproc
 1422              	.LFE16:
 1424              		.section	.text.coap_init_message,"ax",%progbits
 1425              		.align	1
 1426              		.global	coap_init_message
 1427              		.syntax unified
 1428              		.thumb
 1429              		.thumb_func
 1430              		.fpu fpv4-sp-d16
 1432              	coap_init_message:
 1433              	.LFB17:
 427:C:/Users/dtjld/Desktop/AIoT_software/LiteOS_Lab_overseas/LiteOS_Lab/iot_link/network/lwm2m/wakaama_lwm2m/core/er-coap-13\er-coap-13.c **** /*-----------------------------------------------------------------------------------*/
 428:C:/Users/dtjld/Desktop/AIoT_software/LiteOS_Lab_overseas/LiteOS_Lab/iot_link/network/lwm2m/wakaama_lwm2m/core/er-coap-13\er-coap-13.c **** /*- MEASSAGE PROCESSING -------------------------------------------------------------*/
 429:C:/Users/dtjld/Desktop/AIoT_software/LiteOS_Lab_overseas/LiteOS_Lab/iot_link/network/lwm2m/wakaama_lwm2m/core/er-coap-13\er-coap-13.c **** /*-----------------------------------------------------------------------------------*/
 430:C:/Users/dtjld/Desktop/AIoT_software/LiteOS_Lab_overseas/LiteOS_Lab/iot_link/network/lwm2m/wakaama_lwm2m/core/er-coap-13\er-coap-13.c **** void
 431:C:/Users/dtjld/Desktop/AIoT_software/LiteOS_Lab_overseas/LiteOS_Lab/iot_link/network/lwm2m/wakaama_lwm2m/core/er-coap-13\er-coap-13.c **** coap_init_message(void *packet, coap_message_type_t type, uint8_t code, uint16_t mid)
 432:C:/Users/dtjld/Desktop/AIoT_software/LiteOS_Lab_overseas/LiteOS_Lab/iot_link/network/lwm2m/wakaama_lwm2m/core/er-coap-13\er-coap-13.c **** {
 1434              		.loc 1 432 0
 1435              		.cfi_startproc
 1436              		@ args = 0, pretend = 0, frame = 16
 1437              		@ frame_needed = 1, uses_anonymous_args = 0
 1438 0000 80B5     		push	{r7, lr}
 1439              	.LCFI67:
 1440              		.cfi_def_cfa_offset 8
 1441              		.cfi_offset 7, -8
 1442              		.cfi_offset 14, -4
 1443 0002 84B0     		sub	sp, sp, #16
 1444              	.LCFI68:
 1445              		.cfi_def_cfa_offset 24
 1446 0004 00AF     		add	r7, sp, #0
 1447              	.LCFI69:
 1448              		.cfi_def_cfa_register 7
 1449 0006 7860     		str	r0, [r7, #4]
 1450 0008 0846     		mov	r0, r1
 1451 000a 1146     		mov	r1, r2
 1452 000c 1A46     		mov	r2, r3
 1453 000e 0346     		mov	r3, r0
 1454 0010 FB70     		strb	r3, [r7, #3]
 1455 0012 0B46     		mov	r3, r1
 1456 0014 BB70     		strb	r3, [r7, #2]
 1457 0016 1346     		mov	r3, r2	@ movhi
 1458 0018 3B80     		strh	r3, [r7]	@ movhi
 433:C:/Users/dtjld/Desktop/AIoT_software/LiteOS_Lab_overseas/LiteOS_Lab/iot_link/network/lwm2m/wakaama_lwm2m/core/er-coap-13\er-coap-13.c ****     coap_packet_t *const coap_pkt = (coap_packet_t *) packet;
 1459              		.loc 1 433 0
 1460 001a 7B68     		ldr	r3, [r7, #4]
 1461 001c FB60     		str	r3, [r7, #12]
 434:C:/Users/dtjld/Desktop/AIoT_software/LiteOS_Lab_overseas/LiteOS_Lab/iot_link/network/lwm2m/wakaama_lwm2m/core/er-coap-13\er-coap-13.c **** 
 435:C:/Users/dtjld/Desktop/AIoT_software/LiteOS_Lab_overseas/LiteOS_Lab/iot_link/network/lwm2m/wakaama_lwm2m/core/er-coap-13\er-coap-13.c ****     /* Important thing */
 436:C:/Users/dtjld/Desktop/AIoT_software/LiteOS_Lab_overseas/LiteOS_Lab/iot_link/network/lwm2m/wakaama_lwm2m/core/er-coap-13\er-coap-13.c ****     memset(coap_pkt, 0, sizeof(coap_packet_t));
 1462              		.loc 1 436 0
 1463 001e 8C22     		movs	r2, #140
ARM GAS  C:\Users\dtjld\AppData\Local\Temp\ccpI0fza.s 			page 34


 1464 0020 0021     		movs	r1, #0
 1465 0022 F868     		ldr	r0, [r7, #12]
 1466 0024 FFF7FEFF 		bl	memset
 437:C:/Users/dtjld/Desktop/AIoT_software/LiteOS_Lab_overseas/LiteOS_Lab/iot_link/network/lwm2m/wakaama_lwm2m/core/er-coap-13\er-coap-13.c **** 
 438:C:/Users/dtjld/Desktop/AIoT_software/LiteOS_Lab_overseas/LiteOS_Lab/iot_link/network/lwm2m/wakaama_lwm2m/core/er-coap-13\er-coap-13.c ****     coap_pkt->type = type;
 1467              		.loc 1 438 0
 1468 0028 FB68     		ldr	r3, [r7, #12]
 1469 002a FA78     		ldrb	r2, [r7, #3]
 1470 002c 5A71     		strb	r2, [r3, #5]
 439:C:/Users/dtjld/Desktop/AIoT_software/LiteOS_Lab_overseas/LiteOS_Lab/iot_link/network/lwm2m/wakaama_lwm2m/core/er-coap-13\er-coap-13.c ****     coap_pkt->code = code;
 1471              		.loc 1 439 0
 1472 002e FB68     		ldr	r3, [r7, #12]
 1473 0030 BA78     		ldrb	r2, [r7, #2]
 1474 0032 9A71     		strb	r2, [r3, #6]
 440:C:/Users/dtjld/Desktop/AIoT_software/LiteOS_Lab_overseas/LiteOS_Lab/iot_link/network/lwm2m/wakaama_lwm2m/core/er-coap-13\er-coap-13.c ****     coap_pkt->mid = mid;
 1475              		.loc 1 440 0
 1476 0034 FB68     		ldr	r3, [r7, #12]
 1477 0036 3A88     		ldrh	r2, [r7]	@ movhi
 1478 0038 1A81     		strh	r2, [r3, #8]	@ movhi
 441:C:/Users/dtjld/Desktop/AIoT_software/LiteOS_Lab_overseas/LiteOS_Lab/iot_link/network/lwm2m/wakaama_lwm2m/core/er-coap-13\er-coap-13.c **** }
 1479              		.loc 1 441 0
 1480 003a 00BF     		nop
 1481 003c 1037     		adds	r7, r7, #16
 1482              	.LCFI70:
 1483              		.cfi_def_cfa_offset 8
 1484 003e BD46     		mov	sp, r7
 1485              	.LCFI71:
 1486              		.cfi_def_cfa_register 13
 1487              		@ sp needed
 1488 0040 80BD     		pop	{r7, pc}
 1489              		.cfi_endproc
 1490              	.LFE17:
 1492              		.section	.text.coap_free_header,"ax",%progbits
 1493              		.align	1
 1494              		.global	coap_free_header
 1495              		.syntax unified
 1496              		.thumb
 1497              		.thumb_func
 1498              		.fpu fpv4-sp-d16
 1500              	coap_free_header:
 1501              	.LFB18:
 442:C:/Users/dtjld/Desktop/AIoT_software/LiteOS_Lab_overseas/LiteOS_Lab/iot_link/network/lwm2m/wakaama_lwm2m/core/er-coap-13\er-coap-13.c **** 
 443:C:/Users/dtjld/Desktop/AIoT_software/LiteOS_Lab_overseas/LiteOS_Lab/iot_link/network/lwm2m/wakaama_lwm2m/core/er-coap-13\er-coap-13.c **** void
 444:C:/Users/dtjld/Desktop/AIoT_software/LiteOS_Lab_overseas/LiteOS_Lab/iot_link/network/lwm2m/wakaama_lwm2m/core/er-coap-13\er-coap-13.c **** coap_free_header(void *packet)
 445:C:/Users/dtjld/Desktop/AIoT_software/LiteOS_Lab_overseas/LiteOS_Lab/iot_link/network/lwm2m/wakaama_lwm2m/core/er-coap-13\er-coap-13.c **** {
 1502              		.loc 1 445 0
 1503              		.cfi_startproc
 1504              		@ args = 0, pretend = 0, frame = 16
 1505              		@ frame_needed = 1, uses_anonymous_args = 0
 1506 0000 80B5     		push	{r7, lr}
 1507              	.LCFI72:
 1508              		.cfi_def_cfa_offset 8
 1509              		.cfi_offset 7, -8
 1510              		.cfi_offset 14, -4
 1511 0002 84B0     		sub	sp, sp, #16
 1512              	.LCFI73:
 1513              		.cfi_def_cfa_offset 24
ARM GAS  C:\Users\dtjld\AppData\Local\Temp\ccpI0fza.s 			page 35


 1514 0004 00AF     		add	r7, sp, #0
 1515              	.LCFI74:
 1516              		.cfi_def_cfa_register 7
 1517 0006 7860     		str	r0, [r7, #4]
 446:C:/Users/dtjld/Desktop/AIoT_software/LiteOS_Lab_overseas/LiteOS_Lab/iot_link/network/lwm2m/wakaama_lwm2m/core/er-coap-13\er-coap-13.c ****     coap_packet_t *const coap_pkt = (coap_packet_t *) packet;
 1518              		.loc 1 446 0
 1519 0008 7B68     		ldr	r3, [r7, #4]
 1520 000a FB60     		str	r3, [r7, #12]
 447:C:/Users/dtjld/Desktop/AIoT_software/LiteOS_Lab_overseas/LiteOS_Lab/iot_link/network/lwm2m/wakaama_lwm2m/core/er-coap-13\er-coap-13.c **** 
 448:C:/Users/dtjld/Desktop/AIoT_software/LiteOS_Lab_overseas/LiteOS_Lab/iot_link/network/lwm2m/wakaama_lwm2m/core/er-coap-13\er-coap-13.c ****     free_multi_option(coap_pkt->uri_path);
 1521              		.loc 1 448 0
 1522 000c FB68     		ldr	r3, [r7, #12]
 1523 000e 5B6C     		ldr	r3, [r3, #68]
 1524 0010 1846     		mov	r0, r3
 1525 0012 FFF7FEFF 		bl	free_multi_option
 449:C:/Users/dtjld/Desktop/AIoT_software/LiteOS_Lab_overseas/LiteOS_Lab/iot_link/network/lwm2m/wakaama_lwm2m/core/er-coap-13\er-coap-13.c ****     free_multi_option(coap_pkt->uri_query);
 1526              		.loc 1 449 0
 1527 0016 FB68     		ldr	r3, [r7, #12]
 1528 0018 D3F88030 		ldr	r3, [r3, #128]
 1529 001c 1846     		mov	r0, r3
 1530 001e FFF7FEFF 		bl	free_multi_option
 450:C:/Users/dtjld/Desktop/AIoT_software/LiteOS_Lab_overseas/LiteOS_Lab/iot_link/network/lwm2m/wakaama_lwm2m/core/er-coap-13\er-coap-13.c ****     free_multi_option(coap_pkt->location_path);
 1531              		.loc 1 450 0
 1532 0022 FB68     		ldr	r3, [r7, #12]
 1533 0024 5B6B     		ldr	r3, [r3, #52]
 1534 0026 1846     		mov	r0, r3
 1535 0028 FFF7FEFF 		bl	free_multi_option
 451:C:/Users/dtjld/Desktop/AIoT_software/LiteOS_Lab_overseas/LiteOS_Lab/iot_link/network/lwm2m/wakaama_lwm2m/core/er-coap-13\er-coap-13.c ****     coap_pkt->uri_path = NULL;
 1536              		.loc 1 451 0
 1537 002c FB68     		ldr	r3, [r7, #12]
 1538 002e 0022     		movs	r2, #0
 1539 0030 5A64     		str	r2, [r3, #68]
 452:C:/Users/dtjld/Desktop/AIoT_software/LiteOS_Lab_overseas/LiteOS_Lab/iot_link/network/lwm2m/wakaama_lwm2m/core/er-coap-13\er-coap-13.c ****     coap_pkt->uri_query = NULL;
 1540              		.loc 1 452 0
 1541 0032 FB68     		ldr	r3, [r7, #12]
 1542 0034 0022     		movs	r2, #0
 1543 0036 C3F88020 		str	r2, [r3, #128]
 453:C:/Users/dtjld/Desktop/AIoT_software/LiteOS_Lab_overseas/LiteOS_Lab/iot_link/network/lwm2m/wakaama_lwm2m/core/er-coap-13\er-coap-13.c ****     coap_pkt->location_path = NULL;
 1544              		.loc 1 453 0
 1545 003a FB68     		ldr	r3, [r7, #12]
 1546 003c 0022     		movs	r2, #0
 1547 003e 5A63     		str	r2, [r3, #52]
 454:C:/Users/dtjld/Desktop/AIoT_software/LiteOS_Lab_overseas/LiteOS_Lab/iot_link/network/lwm2m/wakaama_lwm2m/core/er-coap-13\er-coap-13.c **** }
 1548              		.loc 1 454 0
 1549 0040 00BF     		nop
 1550 0042 1037     		adds	r7, r7, #16
 1551              	.LCFI75:
 1552              		.cfi_def_cfa_offset 8
 1553 0044 BD46     		mov	sp, r7
 1554              	.LCFI76:
 1555              		.cfi_def_cfa_register 13
 1556              		@ sp needed
 1557 0046 80BD     		pop	{r7, pc}
 1558              		.cfi_endproc
 1559              	.LFE18:
 1561              		.section	.text.coap_serialize_get_size,"ax",%progbits
 1562              		.align	1
ARM GAS  C:\Users\dtjld\AppData\Local\Temp\ccpI0fza.s 			page 36


 1563              		.global	coap_serialize_get_size
 1564              		.syntax unified
 1565              		.thumb
 1566              		.thumb_func
 1567              		.fpu fpv4-sp-d16
 1569              	coap_serialize_get_size:
 1570              	.LFB19:
 455:C:/Users/dtjld/Desktop/AIoT_software/LiteOS_Lab_overseas/LiteOS_Lab/iot_link/network/lwm2m/wakaama_lwm2m/core/er-coap-13\er-coap-13.c **** 
 456:C:/Users/dtjld/Desktop/AIoT_software/LiteOS_Lab_overseas/LiteOS_Lab/iot_link/network/lwm2m/wakaama_lwm2m/core/er-coap-13\er-coap-13.c **** /*-----------------------------------------------------------------------------------*/
 457:C:/Users/dtjld/Desktop/AIoT_software/LiteOS_Lab_overseas/LiteOS_Lab/iot_link/network/lwm2m/wakaama_lwm2m/core/er-coap-13\er-coap-13.c **** size_t coap_serialize_get_size(void *packet)
 458:C:/Users/dtjld/Desktop/AIoT_software/LiteOS_Lab_overseas/LiteOS_Lab/iot_link/network/lwm2m/wakaama_lwm2m/core/er-coap-13\er-coap-13.c **** {
 1571              		.loc 1 458 0
 1572              		.cfi_startproc
 1573              		@ args = 0, pretend = 0, frame = 32
 1574              		@ frame_needed = 1, uses_anonymous_args = 0
 1575              		@ link register save eliminated.
 1576 0000 80B4     		push	{r7}
 1577              	.LCFI77:
 1578              		.cfi_def_cfa_offset 4
 1579              		.cfi_offset 7, -4
 1580 0002 89B0     		sub	sp, sp, #36
 1581              	.LCFI78:
 1582              		.cfi_def_cfa_offset 40
 1583 0004 00AF     		add	r7, sp, #0
 1584              	.LCFI79:
 1585              		.cfi_def_cfa_register 7
 1586 0006 7860     		str	r0, [r7, #4]
 459:C:/Users/dtjld/Desktop/AIoT_software/LiteOS_Lab_overseas/LiteOS_Lab/iot_link/network/lwm2m/wakaama_lwm2m/core/er-coap-13\er-coap-13.c ****     coap_packet_t *const coap_pkt = (coap_packet_t *) packet;
 1587              		.loc 1 459 0
 1588 0008 7B68     		ldr	r3, [r7, #4]
 1589 000a FB60     		str	r3, [r7, #12]
 460:C:/Users/dtjld/Desktop/AIoT_software/LiteOS_Lab_overseas/LiteOS_Lab/iot_link/network/lwm2m/wakaama_lwm2m/core/er-coap-13\er-coap-13.c ****     size_t length = 0;
 1590              		.loc 1 460 0
 1591 000c 0023     		movs	r3, #0
 1592 000e FB61     		str	r3, [r7, #28]
 461:C:/Users/dtjld/Desktop/AIoT_software/LiteOS_Lab_overseas/LiteOS_Lab/iot_link/network/lwm2m/wakaama_lwm2m/core/er-coap-13\er-coap-13.c **** 
 462:C:/Users/dtjld/Desktop/AIoT_software/LiteOS_Lab_overseas/LiteOS_Lab/iot_link/network/lwm2m/wakaama_lwm2m/core/er-coap-13\er-coap-13.c ****     length = COAP_HEADER_LEN + coap_pkt->payload_len + coap_pkt->token_len;
 1593              		.loc 1 462 0
 1594 0010 FB68     		ldr	r3, [r7, #12]
 1595 0012 B3F88630 		ldrh	r3, [r3, #134]
 1596 0016 0433     		adds	r3, r3, #4
 1597 0018 FA68     		ldr	r2, [r7, #12]
 1598 001a 92F84C20 		ldrb	r2, [r2, #76]	@ zero_extendqisi2
 1599 001e 1344     		add	r3, r3, r2
 1600 0020 FB61     		str	r3, [r7, #28]
 463:C:/Users/dtjld/Desktop/AIoT_software/LiteOS_Lab_overseas/LiteOS_Lab/iot_link/network/lwm2m/wakaama_lwm2m/core/er-coap-13\er-coap-13.c **** 
 464:C:/Users/dtjld/Desktop/AIoT_software/LiteOS_Lab_overseas/LiteOS_Lab/iot_link/network/lwm2m/wakaama_lwm2m/core/er-coap-13\er-coap-13.c ****     if (IS_OPTION(coap_pkt, COAP_OPTION_IF_MATCH))
 1601              		.loc 1 464 0
 1602 0022 FB68     		ldr	r3, [r7, #12]
 1603 0024 9B7A     		ldrb	r3, [r3, #10]	@ zero_extendqisi2
 1604 0026 03F00203 		and	r3, r3, #2
 1605 002a 002B     		cmp	r3, #0
 1606 002c 07D0     		beq	.L79
 465:C:/Users/dtjld/Desktop/AIoT_software/LiteOS_Lab_overseas/LiteOS_Lab/iot_link/network/lwm2m/wakaama_lwm2m/core/er-coap-13\er-coap-13.c ****     {
 466:C:/Users/dtjld/Desktop/AIoT_software/LiteOS_Lab_overseas/LiteOS_Lab/iot_link/network/lwm2m/wakaama_lwm2m/core/er-coap-13\er-coap-13.c ****         length += COAP_MAX_OPTION_HEADER_LEN + coap_pkt->if_match_len;
 1607              		.loc 1 466 0
 1608 002e FB68     		ldr	r3, [r7, #12]
ARM GAS  C:\Users\dtjld\AppData\Local\Temp\ccpI0fza.s 			page 37


 1609 0030 93F85A30 		ldrb	r3, [r3, #90]	@ zero_extendqisi2
 1610 0034 1A46     		mov	r2, r3
 1611 0036 FB69     		ldr	r3, [r7, #28]
 1612 0038 1344     		add	r3, r3, r2
 1613 003a 0533     		adds	r3, r3, #5
 1614 003c FB61     		str	r3, [r7, #28]
 1615              	.L79:
 467:C:/Users/dtjld/Desktop/AIoT_software/LiteOS_Lab_overseas/LiteOS_Lab/iot_link/network/lwm2m/wakaama_lwm2m/core/er-coap-13\er-coap-13.c ****     }
 468:C:/Users/dtjld/Desktop/AIoT_software/LiteOS_Lab_overseas/LiteOS_Lab/iot_link/network/lwm2m/wakaama_lwm2m/core/er-coap-13\er-coap-13.c ****     if (IS_OPTION(coap_pkt, COAP_OPTION_URI_HOST))
 1616              		.loc 1 468 0
 1617 003e FB68     		ldr	r3, [r7, #12]
 1618 0040 9B7A     		ldrb	r3, [r3, #10]	@ zero_extendqisi2
 1619 0042 03F00803 		and	r3, r3, #8
 1620 0046 002B     		cmp	r3, #0
 1621 0048 05D0     		beq	.L80
 469:C:/Users/dtjld/Desktop/AIoT_software/LiteOS_Lab_overseas/LiteOS_Lab/iot_link/network/lwm2m/wakaama_lwm2m/core/er-coap-13\er-coap-13.c ****     {
 470:C:/Users/dtjld/Desktop/AIoT_software/LiteOS_Lab_overseas/LiteOS_Lab/iot_link/network/lwm2m/wakaama_lwm2m/core/er-coap-13\er-coap-13.c ****         length += COAP_MAX_OPTION_HEADER_LEN + coap_pkt->uri_host_len;
 1622              		.loc 1 470 0
 1623 004a FB68     		ldr	r3, [r7, #12]
 1624 004c DA6A     		ldr	r2, [r3, #44]
 1625 004e FB69     		ldr	r3, [r7, #28]
 1626 0050 1344     		add	r3, r3, r2
 1627 0052 0533     		adds	r3, r3, #5
 1628 0054 FB61     		str	r3, [r7, #28]
 1629              	.L80:
 471:C:/Users/dtjld/Desktop/AIoT_software/LiteOS_Lab_overseas/LiteOS_Lab/iot_link/network/lwm2m/wakaama_lwm2m/core/er-coap-13\er-coap-13.c ****     }
 472:C:/Users/dtjld/Desktop/AIoT_software/LiteOS_Lab_overseas/LiteOS_Lab/iot_link/network/lwm2m/wakaama_lwm2m/core/er-coap-13\er-coap-13.c ****     if (IS_OPTION(coap_pkt, COAP_OPTION_ETAG))
 1630              		.loc 1 472 0
 1631 0056 FB68     		ldr	r3, [r7, #12]
 1632 0058 9B7A     		ldrb	r3, [r3, #10]	@ zero_extendqisi2
 1633 005a 03F01003 		and	r3, r3, #16
 1634 005e 002B     		cmp	r3, #0
 1635 0060 07D0     		beq	.L81
 473:C:/Users/dtjld/Desktop/AIoT_software/LiteOS_Lab_overseas/LiteOS_Lab/iot_link/network/lwm2m/wakaama_lwm2m/core/er-coap-13\er-coap-13.c ****     {
 474:C:/Users/dtjld/Desktop/AIoT_software/LiteOS_Lab_overseas/LiteOS_Lab/iot_link/network/lwm2m/wakaama_lwm2m/core/er-coap-13\er-coap-13.c ****         length += COAP_MAX_OPTION_HEADER_LEN + coap_pkt->etag_len;
 1636              		.loc 1 474 0
 1637 0062 FB68     		ldr	r3, [r7, #12]
 1638 0064 93F82030 		ldrb	r3, [r3, #32]	@ zero_extendqisi2
 1639 0068 1A46     		mov	r2, r3
 1640 006a FB69     		ldr	r3, [r7, #28]
 1641 006c 1344     		add	r3, r3, r2
 1642 006e 0533     		adds	r3, r3, #5
 1643 0070 FB61     		str	r3, [r7, #28]
 1644              	.L81:
 475:C:/Users/dtjld/Desktop/AIoT_software/LiteOS_Lab_overseas/LiteOS_Lab/iot_link/network/lwm2m/wakaama_lwm2m/core/er-coap-13\er-coap-13.c ****     }
 476:C:/Users/dtjld/Desktop/AIoT_software/LiteOS_Lab_overseas/LiteOS_Lab/iot_link/network/lwm2m/wakaama_lwm2m/core/er-coap-13\er-coap-13.c ****     if (IS_OPTION(coap_pkt, COAP_OPTION_IF_NONE_MATCH))
 1645              		.loc 1 476 0
 1646 0072 FB68     		ldr	r3, [r7, #12]
 1647 0074 9B7A     		ldrb	r3, [r3, #10]	@ zero_extendqisi2
 1648 0076 03F02003 		and	r3, r3, #32
 1649 007a 002B     		cmp	r3, #0
 1650 007c 02D0     		beq	.L82
 477:C:/Users/dtjld/Desktop/AIoT_software/LiteOS_Lab_overseas/LiteOS_Lab/iot_link/network/lwm2m/wakaama_lwm2m/core/er-coap-13\er-coap-13.c ****     {
 478:C:/Users/dtjld/Desktop/AIoT_software/LiteOS_Lab_overseas/LiteOS_Lab/iot_link/network/lwm2m/wakaama_lwm2m/core/er-coap-13\er-coap-13.c ****         // can be stored in extended fields
 479:C:/Users/dtjld/Desktop/AIoT_software/LiteOS_Lab_overseas/LiteOS_Lab/iot_link/network/lwm2m/wakaama_lwm2m/core/er-coap-13\er-coap-13.c ****         length += COAP_MAX_OPTION_HEADER_LEN;
 1651              		.loc 1 479 0
 1652 007e FB69     		ldr	r3, [r7, #28]
ARM GAS  C:\Users\dtjld\AppData\Local\Temp\ccpI0fza.s 			page 38


 1653 0080 0533     		adds	r3, r3, #5
 1654 0082 FB61     		str	r3, [r7, #28]
 1655              	.L82:
 480:C:/Users/dtjld/Desktop/AIoT_software/LiteOS_Lab_overseas/LiteOS_Lab/iot_link/network/lwm2m/wakaama_lwm2m/core/er-coap-13\er-coap-13.c ****     }
 481:C:/Users/dtjld/Desktop/AIoT_software/LiteOS_Lab_overseas/LiteOS_Lab/iot_link/network/lwm2m/wakaama_lwm2m/core/er-coap-13\er-coap-13.c ****     if (IS_OPTION(coap_pkt, COAP_OPTION_OBSERVE))
 1656              		.loc 1 481 0
 1657 0084 FB68     		ldr	r3, [r7, #12]
 1658 0086 9B7A     		ldrb	r3, [r3, #10]	@ zero_extendqisi2
 1659 0088 03F04003 		and	r3, r3, #64
 1660 008c 002B     		cmp	r3, #0
 1661 008e 02D0     		beq	.L83
 482:C:/Users/dtjld/Desktop/AIoT_software/LiteOS_Lab_overseas/LiteOS_Lab/iot_link/network/lwm2m/wakaama_lwm2m/core/er-coap-13\er-coap-13.c ****     {
 483:C:/Users/dtjld/Desktop/AIoT_software/LiteOS_Lab_overseas/LiteOS_Lab/iot_link/network/lwm2m/wakaama_lwm2m/core/er-coap-13\er-coap-13.c ****         // can be stored in extended fields
 484:C:/Users/dtjld/Desktop/AIoT_software/LiteOS_Lab_overseas/LiteOS_Lab/iot_link/network/lwm2m/wakaama_lwm2m/core/er-coap-13\er-coap-13.c ****         length += COAP_MAX_OPTION_HEADER_LEN;
 1662              		.loc 1 484 0
 1663 0090 FB69     		ldr	r3, [r7, #28]
 1664 0092 0533     		adds	r3, r3, #5
 1665 0094 FB61     		str	r3, [r7, #28]
 1666              	.L83:
 485:C:/Users/dtjld/Desktop/AIoT_software/LiteOS_Lab_overseas/LiteOS_Lab/iot_link/network/lwm2m/wakaama_lwm2m/core/er-coap-13\er-coap-13.c ****     }
 486:C:/Users/dtjld/Desktop/AIoT_software/LiteOS_Lab_overseas/LiteOS_Lab/iot_link/network/lwm2m/wakaama_lwm2m/core/er-coap-13\er-coap-13.c ****     if (IS_OPTION(coap_pkt, COAP_OPTION_URI_PORT))
 1667              		.loc 1 486 0
 1668 0096 FB68     		ldr	r3, [r7, #12]
 1669 0098 9B7A     		ldrb	r3, [r3, #10]	@ zero_extendqisi2
 1670 009a 5BB2     		sxtb	r3, r3
 1671 009c 002B     		cmp	r3, #0
 1672 009e 02DA     		bge	.L84
 487:C:/Users/dtjld/Desktop/AIoT_software/LiteOS_Lab_overseas/LiteOS_Lab/iot_link/network/lwm2m/wakaama_lwm2m/core/er-coap-13\er-coap-13.c ****     {
 488:C:/Users/dtjld/Desktop/AIoT_software/LiteOS_Lab_overseas/LiteOS_Lab/iot_link/network/lwm2m/wakaama_lwm2m/core/er-coap-13\er-coap-13.c ****         // can be stored in extended fields
 489:C:/Users/dtjld/Desktop/AIoT_software/LiteOS_Lab_overseas/LiteOS_Lab/iot_link/network/lwm2m/wakaama_lwm2m/core/er-coap-13\er-coap-13.c ****         length += COAP_MAX_OPTION_HEADER_LEN;
 1673              		.loc 1 489 0
 1674 00a0 FB69     		ldr	r3, [r7, #28]
 1675 00a2 0533     		adds	r3, r3, #5
 1676 00a4 FB61     		str	r3, [r7, #28]
 1677              	.L84:
 490:C:/Users/dtjld/Desktop/AIoT_software/LiteOS_Lab_overseas/LiteOS_Lab/iot_link/network/lwm2m/wakaama_lwm2m/core/er-coap-13\er-coap-13.c ****     }
 491:C:/Users/dtjld/Desktop/AIoT_software/LiteOS_Lab_overseas/LiteOS_Lab/iot_link/network/lwm2m/wakaama_lwm2m/core/er-coap-13\er-coap-13.c ****     if (IS_OPTION(coap_pkt, COAP_OPTION_LOCATION_PATH))
 1678              		.loc 1 491 0
 1679 00a6 FB68     		ldr	r3, [r7, #12]
 1680 00a8 DB7A     		ldrb	r3, [r3, #11]	@ zero_extendqisi2
 1681 00aa 03F00103 		and	r3, r3, #1
 1682 00ae 002B     		cmp	r3, #0
 1683 00b0 10D0     		beq	.L85
 1684              	.LBB6:
 492:C:/Users/dtjld/Desktop/AIoT_software/LiteOS_Lab_overseas/LiteOS_Lab/iot_link/network/lwm2m/wakaama_lwm2m/core/er-coap-13\er-coap-13.c ****     {
 493:C:/Users/dtjld/Desktop/AIoT_software/LiteOS_Lab_overseas/LiteOS_Lab/iot_link/network/lwm2m/wakaama_lwm2m/core/er-coap-13\er-coap-13.c ****         multi_option_t *optP;
 494:C:/Users/dtjld/Desktop/AIoT_software/LiteOS_Lab_overseas/LiteOS_Lab/iot_link/network/lwm2m/wakaama_lwm2m/core/er-coap-13\er-coap-13.c **** 
 495:C:/Users/dtjld/Desktop/AIoT_software/LiteOS_Lab_overseas/LiteOS_Lab/iot_link/network/lwm2m/wakaama_lwm2m/core/er-coap-13\er-coap-13.c ****         for (optP = coap_pkt->location_path ; optP != NULL ; optP = optP->next)
 1685              		.loc 1 495 0
 1686 00b2 FB68     		ldr	r3, [r7, #12]
 1687 00b4 5B6B     		ldr	r3, [r3, #52]
 1688 00b6 BB61     		str	r3, [r7, #24]
 1689 00b8 09E0     		b	.L86
 1690              	.L87:
 496:C:/Users/dtjld/Desktop/AIoT_software/LiteOS_Lab_overseas/LiteOS_Lab/iot_link/network/lwm2m/wakaama_lwm2m/core/er-coap-13\er-coap-13.c ****         {
 497:C:/Users/dtjld/Desktop/AIoT_software/LiteOS_Lab_overseas/LiteOS_Lab/iot_link/network/lwm2m/wakaama_lwm2m/core/er-coap-13\er-coap-13.c ****             length += COAP_MAX_OPTION_HEADER_LEN + optP->len;
 1691              		.loc 1 497 0 discriminator 3
ARM GAS  C:\Users\dtjld\AppData\Local\Temp\ccpI0fza.s 			page 39


 1692 00ba BB69     		ldr	r3, [r7, #24]
 1693 00bc 5B79     		ldrb	r3, [r3, #5]	@ zero_extendqisi2
 1694 00be 1A46     		mov	r2, r3
 1695 00c0 FB69     		ldr	r3, [r7, #28]
 1696 00c2 1344     		add	r3, r3, r2
 1697 00c4 0533     		adds	r3, r3, #5
 1698 00c6 FB61     		str	r3, [r7, #28]
 495:C:/Users/dtjld/Desktop/AIoT_software/LiteOS_Lab_overseas/LiteOS_Lab/iot_link/network/lwm2m/wakaama_lwm2m/core/er-coap-13\er-coap-13.c ****         {
 1699              		.loc 1 495 0 discriminator 3
 1700 00c8 BB69     		ldr	r3, [r7, #24]
 1701 00ca 1B68     		ldr	r3, [r3]
 1702 00cc BB61     		str	r3, [r7, #24]
 1703              	.L86:
 495:C:/Users/dtjld/Desktop/AIoT_software/LiteOS_Lab_overseas/LiteOS_Lab/iot_link/network/lwm2m/wakaama_lwm2m/core/er-coap-13\er-coap-13.c ****         {
 1704              		.loc 1 495 0 is_stmt 0 discriminator 1
 1705 00ce BB69     		ldr	r3, [r7, #24]
 1706 00d0 002B     		cmp	r3, #0
 1707 00d2 F2D1     		bne	.L87
 1708              	.L85:
 1709              	.LBE6:
 498:C:/Users/dtjld/Desktop/AIoT_software/LiteOS_Lab_overseas/LiteOS_Lab/iot_link/network/lwm2m/wakaama_lwm2m/core/er-coap-13\er-coap-13.c ****         }
 499:C:/Users/dtjld/Desktop/AIoT_software/LiteOS_Lab_overseas/LiteOS_Lab/iot_link/network/lwm2m/wakaama_lwm2m/core/er-coap-13\er-coap-13.c ****     }
 500:C:/Users/dtjld/Desktop/AIoT_software/LiteOS_Lab_overseas/LiteOS_Lab/iot_link/network/lwm2m/wakaama_lwm2m/core/er-coap-13\er-coap-13.c ****     if (IS_OPTION(coap_pkt, COAP_OPTION_URI_PATH))
 1710              		.loc 1 500 0 is_stmt 1
 1711 00d4 FB68     		ldr	r3, [r7, #12]
 1712 00d6 DB7A     		ldrb	r3, [r3, #11]	@ zero_extendqisi2
 1713 00d8 03F00803 		and	r3, r3, #8
 1714 00dc 002B     		cmp	r3, #0
 1715 00de 10D0     		beq	.L88
 1716              	.LBB7:
 501:C:/Users/dtjld/Desktop/AIoT_software/LiteOS_Lab_overseas/LiteOS_Lab/iot_link/network/lwm2m/wakaama_lwm2m/core/er-coap-13\er-coap-13.c ****     {
 502:C:/Users/dtjld/Desktop/AIoT_software/LiteOS_Lab_overseas/LiteOS_Lab/iot_link/network/lwm2m/wakaama_lwm2m/core/er-coap-13\er-coap-13.c ****         multi_option_t *optP;
 503:C:/Users/dtjld/Desktop/AIoT_software/LiteOS_Lab_overseas/LiteOS_Lab/iot_link/network/lwm2m/wakaama_lwm2m/core/er-coap-13\er-coap-13.c **** 
 504:C:/Users/dtjld/Desktop/AIoT_software/LiteOS_Lab_overseas/LiteOS_Lab/iot_link/network/lwm2m/wakaama_lwm2m/core/er-coap-13\er-coap-13.c ****         for (optP = coap_pkt->uri_path ; optP != NULL ; optP = optP->next)
 1717              		.loc 1 504 0
 1718 00e0 FB68     		ldr	r3, [r7, #12]
 1719 00e2 5B6C     		ldr	r3, [r3, #68]
 1720 00e4 7B61     		str	r3, [r7, #20]
 1721 00e6 09E0     		b	.L89
 1722              	.L90:
 505:C:/Users/dtjld/Desktop/AIoT_software/LiteOS_Lab_overseas/LiteOS_Lab/iot_link/network/lwm2m/wakaama_lwm2m/core/er-coap-13\er-coap-13.c ****         {
 506:C:/Users/dtjld/Desktop/AIoT_software/LiteOS_Lab_overseas/LiteOS_Lab/iot_link/network/lwm2m/wakaama_lwm2m/core/er-coap-13\er-coap-13.c ****             length += COAP_MAX_OPTION_HEADER_LEN + optP->len;
 1723              		.loc 1 506 0 discriminator 3
 1724 00e8 7B69     		ldr	r3, [r7, #20]
 1725 00ea 5B79     		ldrb	r3, [r3, #5]	@ zero_extendqisi2
 1726 00ec 1A46     		mov	r2, r3
 1727 00ee FB69     		ldr	r3, [r7, #28]
 1728 00f0 1344     		add	r3, r3, r2
 1729 00f2 0533     		adds	r3, r3, #5
 1730 00f4 FB61     		str	r3, [r7, #28]
 504:C:/Users/dtjld/Desktop/AIoT_software/LiteOS_Lab_overseas/LiteOS_Lab/iot_link/network/lwm2m/wakaama_lwm2m/core/er-coap-13\er-coap-13.c ****         {
 1731              		.loc 1 504 0 discriminator 3
 1732 00f6 7B69     		ldr	r3, [r7, #20]
 1733 00f8 1B68     		ldr	r3, [r3]
 1734 00fa 7B61     		str	r3, [r7, #20]
 1735              	.L89:
 504:C:/Users/dtjld/Desktop/AIoT_software/LiteOS_Lab_overseas/LiteOS_Lab/iot_link/network/lwm2m/wakaama_lwm2m/core/er-coap-13\er-coap-13.c ****         {
ARM GAS  C:\Users\dtjld\AppData\Local\Temp\ccpI0fza.s 			page 40


 1736              		.loc 1 504 0 is_stmt 0 discriminator 1
 1737 00fc 7B69     		ldr	r3, [r7, #20]
 1738 00fe 002B     		cmp	r3, #0
 1739 0100 F2D1     		bne	.L90
 1740              	.L88:
 1741              	.LBE7:
 507:C:/Users/dtjld/Desktop/AIoT_software/LiteOS_Lab_overseas/LiteOS_Lab/iot_link/network/lwm2m/wakaama_lwm2m/core/er-coap-13\er-coap-13.c ****         }
 508:C:/Users/dtjld/Desktop/AIoT_software/LiteOS_Lab_overseas/LiteOS_Lab/iot_link/network/lwm2m/wakaama_lwm2m/core/er-coap-13\er-coap-13.c ****     }
 509:C:/Users/dtjld/Desktop/AIoT_software/LiteOS_Lab_overseas/LiteOS_Lab/iot_link/network/lwm2m/wakaama_lwm2m/core/er-coap-13\er-coap-13.c ****     if (IS_OPTION(coap_pkt, COAP_OPTION_CONTENT_TYPE))
 1742              		.loc 1 509 0 is_stmt 1
 1743 0102 FB68     		ldr	r3, [r7, #12]
 1744 0104 DB7A     		ldrb	r3, [r3, #11]	@ zero_extendqisi2
 1745 0106 03F01003 		and	r3, r3, #16
 1746 010a 002B     		cmp	r3, #0
 1747 010c 02D0     		beq	.L91
 510:C:/Users/dtjld/Desktop/AIoT_software/LiteOS_Lab_overseas/LiteOS_Lab/iot_link/network/lwm2m/wakaama_lwm2m/core/er-coap-13\er-coap-13.c ****     {
 511:C:/Users/dtjld/Desktop/AIoT_software/LiteOS_Lab_overseas/LiteOS_Lab/iot_link/network/lwm2m/wakaama_lwm2m/core/er-coap-13\er-coap-13.c ****         // can be stored in extended fields
 512:C:/Users/dtjld/Desktop/AIoT_software/LiteOS_Lab_overseas/LiteOS_Lab/iot_link/network/lwm2m/wakaama_lwm2m/core/er-coap-13\er-coap-13.c ****         length += COAP_MAX_OPTION_HEADER_LEN;
 1748              		.loc 1 512 0
 1749 010e FB69     		ldr	r3, [r7, #28]
 1750 0110 0533     		adds	r3, r3, #5
 1751 0112 FB61     		str	r3, [r7, #28]
 1752              	.L91:
 513:C:/Users/dtjld/Desktop/AIoT_software/LiteOS_Lab_overseas/LiteOS_Lab/iot_link/network/lwm2m/wakaama_lwm2m/core/er-coap-13\er-coap-13.c ****     }
 514:C:/Users/dtjld/Desktop/AIoT_software/LiteOS_Lab_overseas/LiteOS_Lab/iot_link/network/lwm2m/wakaama_lwm2m/core/er-coap-13\er-coap-13.c ****     if (IS_OPTION(coap_pkt, COAP_OPTION_MAX_AGE))
 1753              		.loc 1 514 0
 1754 0114 FB68     		ldr	r3, [r7, #12]
 1755 0116 DB7A     		ldrb	r3, [r3, #11]	@ zero_extendqisi2
 1756 0118 03F04003 		and	r3, r3, #64
 1757 011c 002B     		cmp	r3, #0
 1758 011e 02D0     		beq	.L92
 515:C:/Users/dtjld/Desktop/AIoT_software/LiteOS_Lab_overseas/LiteOS_Lab/iot_link/network/lwm2m/wakaama_lwm2m/core/er-coap-13\er-coap-13.c ****     {
 516:C:/Users/dtjld/Desktop/AIoT_software/LiteOS_Lab_overseas/LiteOS_Lab/iot_link/network/lwm2m/wakaama_lwm2m/core/er-coap-13\er-coap-13.c ****         // can be stored in extended fields
 517:C:/Users/dtjld/Desktop/AIoT_software/LiteOS_Lab_overseas/LiteOS_Lab/iot_link/network/lwm2m/wakaama_lwm2m/core/er-coap-13\er-coap-13.c ****         length += COAP_MAX_OPTION_HEADER_LEN;
 1759              		.loc 1 517 0
 1760 0120 FB69     		ldr	r3, [r7, #28]
 1761 0122 0533     		adds	r3, r3, #5
 1762 0124 FB61     		str	r3, [r7, #28]
 1763              	.L92:
 518:C:/Users/dtjld/Desktop/AIoT_software/LiteOS_Lab_overseas/LiteOS_Lab/iot_link/network/lwm2m/wakaama_lwm2m/core/er-coap-13\er-coap-13.c ****     }
 519:C:/Users/dtjld/Desktop/AIoT_software/LiteOS_Lab_overseas/LiteOS_Lab/iot_link/network/lwm2m/wakaama_lwm2m/core/er-coap-13\er-coap-13.c ****     if (IS_OPTION(coap_pkt, COAP_OPTION_URI_QUERY))
 1764              		.loc 1 519 0
 1765 0126 FB68     		ldr	r3, [r7, #12]
 1766 0128 DB7A     		ldrb	r3, [r3, #11]	@ zero_extendqisi2
 1767 012a 5BB2     		sxtb	r3, r3
 1768 012c 002B     		cmp	r3, #0
 1769 012e 11DA     		bge	.L93
 1770              	.LBB8:
 520:C:/Users/dtjld/Desktop/AIoT_software/LiteOS_Lab_overseas/LiteOS_Lab/iot_link/network/lwm2m/wakaama_lwm2m/core/er-coap-13\er-coap-13.c ****     {
 521:C:/Users/dtjld/Desktop/AIoT_software/LiteOS_Lab_overseas/LiteOS_Lab/iot_link/network/lwm2m/wakaama_lwm2m/core/er-coap-13\er-coap-13.c ****         multi_option_t *optP;
 522:C:/Users/dtjld/Desktop/AIoT_software/LiteOS_Lab_overseas/LiteOS_Lab/iot_link/network/lwm2m/wakaama_lwm2m/core/er-coap-13\er-coap-13.c **** 
 523:C:/Users/dtjld/Desktop/AIoT_software/LiteOS_Lab_overseas/LiteOS_Lab/iot_link/network/lwm2m/wakaama_lwm2m/core/er-coap-13\er-coap-13.c ****         for (optP = coap_pkt->uri_query ; optP != NULL ; optP = optP->next)
 1771              		.loc 1 523 0
 1772 0130 FB68     		ldr	r3, [r7, #12]
 1773 0132 D3F88030 		ldr	r3, [r3, #128]
 1774 0136 3B61     		str	r3, [r7, #16]
 1775 0138 09E0     		b	.L94
ARM GAS  C:\Users\dtjld\AppData\Local\Temp\ccpI0fza.s 			page 41


 1776              	.L95:
 524:C:/Users/dtjld/Desktop/AIoT_software/LiteOS_Lab_overseas/LiteOS_Lab/iot_link/network/lwm2m/wakaama_lwm2m/core/er-coap-13\er-coap-13.c ****         {
 525:C:/Users/dtjld/Desktop/AIoT_software/LiteOS_Lab_overseas/LiteOS_Lab/iot_link/network/lwm2m/wakaama_lwm2m/core/er-coap-13\er-coap-13.c ****             length += COAP_MAX_OPTION_HEADER_LEN + optP->len;
 1777              		.loc 1 525 0 discriminator 3
 1778 013a 3B69     		ldr	r3, [r7, #16]
 1779 013c 5B79     		ldrb	r3, [r3, #5]	@ zero_extendqisi2
 1780 013e 1A46     		mov	r2, r3
 1781 0140 FB69     		ldr	r3, [r7, #28]
 1782 0142 1344     		add	r3, r3, r2
 1783 0144 0533     		adds	r3, r3, #5
 1784 0146 FB61     		str	r3, [r7, #28]
 523:C:/Users/dtjld/Desktop/AIoT_software/LiteOS_Lab_overseas/LiteOS_Lab/iot_link/network/lwm2m/wakaama_lwm2m/core/er-coap-13\er-coap-13.c ****         {
 1785              		.loc 1 523 0 discriminator 3
 1786 0148 3B69     		ldr	r3, [r7, #16]
 1787 014a 1B68     		ldr	r3, [r3]
 1788 014c 3B61     		str	r3, [r7, #16]
 1789              	.L94:
 523:C:/Users/dtjld/Desktop/AIoT_software/LiteOS_Lab_overseas/LiteOS_Lab/iot_link/network/lwm2m/wakaama_lwm2m/core/er-coap-13\er-coap-13.c ****         {
 1790              		.loc 1 523 0 is_stmt 0 discriminator 1
 1791 014e 3B69     		ldr	r3, [r7, #16]
 1792 0150 002B     		cmp	r3, #0
 1793 0152 F2D1     		bne	.L95
 1794              	.L93:
 1795              	.LBE8:
 526:C:/Users/dtjld/Desktop/AIoT_software/LiteOS_Lab_overseas/LiteOS_Lab/iot_link/network/lwm2m/wakaama_lwm2m/core/er-coap-13\er-coap-13.c ****         }
 527:C:/Users/dtjld/Desktop/AIoT_software/LiteOS_Lab_overseas/LiteOS_Lab/iot_link/network/lwm2m/wakaama_lwm2m/core/er-coap-13\er-coap-13.c ****     }
 528:C:/Users/dtjld/Desktop/AIoT_software/LiteOS_Lab_overseas/LiteOS_Lab/iot_link/network/lwm2m/wakaama_lwm2m/core/er-coap-13\er-coap-13.c ****     if (IS_OPTION(coap_pkt, COAP_OPTION_ACCEPT))
 1796              		.loc 1 528 0 is_stmt 1
 1797 0154 FB68     		ldr	r3, [r7, #12]
 1798 0156 1B7B     		ldrb	r3, [r3, #12]	@ zero_extendqisi2
 1799 0158 03F00203 		and	r3, r3, #2
 1800 015c 002B     		cmp	r3, #0
 1801 015e 0AD0     		beq	.L96
 529:C:/Users/dtjld/Desktop/AIoT_software/LiteOS_Lab_overseas/LiteOS_Lab/iot_link/network/lwm2m/wakaama_lwm2m/core/er-coap-13\er-coap-13.c ****     {
 530:C:/Users/dtjld/Desktop/AIoT_software/LiteOS_Lab_overseas/LiteOS_Lab/iot_link/network/lwm2m/wakaama_lwm2m/core/er-coap-13\er-coap-13.c ****         length += coap_pkt->accept_num * COAP_MAX_OPTION_HEADER_LEN;
 1802              		.loc 1 530 0
 1803 0160 FB68     		ldr	r3, [r7, #12]
 1804 0162 93F85530 		ldrb	r3, [r3, #85]	@ zero_extendqisi2
 1805 0166 1A46     		mov	r2, r3
 1806 0168 1346     		mov	r3, r2
 1807 016a 9B00     		lsls	r3, r3, #2
 1808 016c 1344     		add	r3, r3, r2
 1809 016e 1A46     		mov	r2, r3
 1810 0170 FB69     		ldr	r3, [r7, #28]
 1811 0172 1344     		add	r3, r3, r2
 1812 0174 FB61     		str	r3, [r7, #28]
 1813              	.L96:
 531:C:/Users/dtjld/Desktop/AIoT_software/LiteOS_Lab_overseas/LiteOS_Lab/iot_link/network/lwm2m/wakaama_lwm2m/core/er-coap-13\er-coap-13.c ****     }
 532:C:/Users/dtjld/Desktop/AIoT_software/LiteOS_Lab_overseas/LiteOS_Lab/iot_link/network/lwm2m/wakaama_lwm2m/core/er-coap-13\er-coap-13.c ****     if (IS_OPTION(coap_pkt, COAP_OPTION_LOCATION_QUERY))
 1814              		.loc 1 532 0
 1815 0176 FB68     		ldr	r3, [r7, #12]
 1816 0178 1B7B     		ldrb	r3, [r3, #12]	@ zero_extendqisi2
 1817 017a 03F01003 		and	r3, r3, #16
 1818 017e 002B     		cmp	r3, #0
 1819 0180 05D0     		beq	.L97
 533:C:/Users/dtjld/Desktop/AIoT_software/LiteOS_Lab_overseas/LiteOS_Lab/iot_link/network/lwm2m/wakaama_lwm2m/core/er-coap-13\er-coap-13.c ****     {
 534:C:/Users/dtjld/Desktop/AIoT_software/LiteOS_Lab_overseas/LiteOS_Lab/iot_link/network/lwm2m/wakaama_lwm2m/core/er-coap-13\er-coap-13.c ****         length += COAP_MAX_OPTION_HEADER_LEN + coap_pkt->location_query_len;
ARM GAS  C:\Users\dtjld\AppData\Local\Temp\ccpI0fza.s 			page 42


 1820              		.loc 1 534 0
 1821 0182 FB68     		ldr	r3, [r7, #12]
 1822 0184 DA6B     		ldr	r2, [r3, #60]
 1823 0186 FB69     		ldr	r3, [r7, #28]
 1824 0188 1344     		add	r3, r3, r2
 1825 018a 0533     		adds	r3, r3, #5
 1826 018c FB61     		str	r3, [r7, #28]
 1827              	.L97:
 535:C:/Users/dtjld/Desktop/AIoT_software/LiteOS_Lab_overseas/LiteOS_Lab/iot_link/network/lwm2m/wakaama_lwm2m/core/er-coap-13\er-coap-13.c ****     }
 536:C:/Users/dtjld/Desktop/AIoT_software/LiteOS_Lab_overseas/LiteOS_Lab/iot_link/network/lwm2m/wakaama_lwm2m/core/er-coap-13\er-coap-13.c ****     if (IS_OPTION(coap_pkt, COAP_OPTION_BLOCK2))
 1828              		.loc 1 536 0
 1829 018e FB68     		ldr	r3, [r7, #12]
 1830 0190 1B7B     		ldrb	r3, [r3, #12]	@ zero_extendqisi2
 1831 0192 5BB2     		sxtb	r3, r3
 1832 0194 002B     		cmp	r3, #0
 1833 0196 02DA     		bge	.L98
 537:C:/Users/dtjld/Desktop/AIoT_software/LiteOS_Lab_overseas/LiteOS_Lab/iot_link/network/lwm2m/wakaama_lwm2m/core/er-coap-13\er-coap-13.c ****     {
 538:C:/Users/dtjld/Desktop/AIoT_software/LiteOS_Lab_overseas/LiteOS_Lab/iot_link/network/lwm2m/wakaama_lwm2m/core/er-coap-13\er-coap-13.c ****         // can be stored in extended fields
 539:C:/Users/dtjld/Desktop/AIoT_software/LiteOS_Lab_overseas/LiteOS_Lab/iot_link/network/lwm2m/wakaama_lwm2m/core/er-coap-13\er-coap-13.c ****         length += COAP_MAX_OPTION_HEADER_LEN;
 1834              		.loc 1 539 0
 1835 0198 FB69     		ldr	r3, [r7, #28]
 1836 019a 0533     		adds	r3, r3, #5
 1837 019c FB61     		str	r3, [r7, #28]
 1838              	.L98:
 540:C:/Users/dtjld/Desktop/AIoT_software/LiteOS_Lab_overseas/LiteOS_Lab/iot_link/network/lwm2m/wakaama_lwm2m/core/er-coap-13\er-coap-13.c ****     }
 541:C:/Users/dtjld/Desktop/AIoT_software/LiteOS_Lab_overseas/LiteOS_Lab/iot_link/network/lwm2m/wakaama_lwm2m/core/er-coap-13\er-coap-13.c ****     if (IS_OPTION(coap_pkt, COAP_OPTION_BLOCK1))
 1839              		.loc 1 541 0
 1840 019e FB68     		ldr	r3, [r7, #12]
 1841 01a0 5B7B     		ldrb	r3, [r3, #13]	@ zero_extendqisi2
 1842 01a2 03F00803 		and	r3, r3, #8
 1843 01a6 002B     		cmp	r3, #0
 1844 01a8 02D0     		beq	.L99
 542:C:/Users/dtjld/Desktop/AIoT_software/LiteOS_Lab_overseas/LiteOS_Lab/iot_link/network/lwm2m/wakaama_lwm2m/core/er-coap-13\er-coap-13.c ****     {
 543:C:/Users/dtjld/Desktop/AIoT_software/LiteOS_Lab_overseas/LiteOS_Lab/iot_link/network/lwm2m/wakaama_lwm2m/core/er-coap-13\er-coap-13.c ****         // can be stored in extended fields
 544:C:/Users/dtjld/Desktop/AIoT_software/LiteOS_Lab_overseas/LiteOS_Lab/iot_link/network/lwm2m/wakaama_lwm2m/core/er-coap-13\er-coap-13.c ****         length += COAP_MAX_OPTION_HEADER_LEN;
 1845              		.loc 1 544 0
 1846 01aa FB69     		ldr	r3, [r7, #28]
 1847 01ac 0533     		adds	r3, r3, #5
 1848 01ae FB61     		str	r3, [r7, #28]
 1849              	.L99:
 545:C:/Users/dtjld/Desktop/AIoT_software/LiteOS_Lab_overseas/LiteOS_Lab/iot_link/network/lwm2m/wakaama_lwm2m/core/er-coap-13\er-coap-13.c ****     }
 546:C:/Users/dtjld/Desktop/AIoT_software/LiteOS_Lab_overseas/LiteOS_Lab/iot_link/network/lwm2m/wakaama_lwm2m/core/er-coap-13\er-coap-13.c ****     if (IS_OPTION(coap_pkt, COAP_OPTION_SIZE))
 1850              		.loc 1 546 0
 1851 01b0 FB68     		ldr	r3, [r7, #12]
 1852 01b2 5B7B     		ldrb	r3, [r3, #13]	@ zero_extendqisi2
 1853 01b4 03F01003 		and	r3, r3, #16
 1854 01b8 002B     		cmp	r3, #0
 1855 01ba 02D0     		beq	.L100
 547:C:/Users/dtjld/Desktop/AIoT_software/LiteOS_Lab_overseas/LiteOS_Lab/iot_link/network/lwm2m/wakaama_lwm2m/core/er-coap-13\er-coap-13.c ****     {
 548:C:/Users/dtjld/Desktop/AIoT_software/LiteOS_Lab_overseas/LiteOS_Lab/iot_link/network/lwm2m/wakaama_lwm2m/core/er-coap-13\er-coap-13.c ****         // can be stored in extended fields
 549:C:/Users/dtjld/Desktop/AIoT_software/LiteOS_Lab_overseas/LiteOS_Lab/iot_link/network/lwm2m/wakaama_lwm2m/core/er-coap-13\er-coap-13.c ****         length += COAP_MAX_OPTION_HEADER_LEN;
 1856              		.loc 1 549 0
 1857 01bc FB69     		ldr	r3, [r7, #28]
 1858 01be 0533     		adds	r3, r3, #5
 1859 01c0 FB61     		str	r3, [r7, #28]
 1860              	.L100:
 550:C:/Users/dtjld/Desktop/AIoT_software/LiteOS_Lab_overseas/LiteOS_Lab/iot_link/network/lwm2m/wakaama_lwm2m/core/er-coap-13\er-coap-13.c ****     }
ARM GAS  C:\Users\dtjld\AppData\Local\Temp\ccpI0fza.s 			page 43


 551:C:/Users/dtjld/Desktop/AIoT_software/LiteOS_Lab_overseas/LiteOS_Lab/iot_link/network/lwm2m/wakaama_lwm2m/core/er-coap-13\er-coap-13.c ****     if (IS_OPTION(coap_pkt, COAP_OPTION_PROXY_URI))
 1861              		.loc 1 551 0
 1862 01c2 FB68     		ldr	r3, [r7, #12]
 1863 01c4 9B7B     		ldrb	r3, [r3, #14]	@ zero_extendqisi2
 1864 01c6 03F00803 		and	r3, r3, #8
 1865 01ca 002B     		cmp	r3, #0
 1866 01cc 05D0     		beq	.L101
 552:C:/Users/dtjld/Desktop/AIoT_software/LiteOS_Lab_overseas/LiteOS_Lab/iot_link/network/lwm2m/wakaama_lwm2m/core/er-coap-13\er-coap-13.c ****     {
 553:C:/Users/dtjld/Desktop/AIoT_software/LiteOS_Lab_overseas/LiteOS_Lab/iot_link/network/lwm2m/wakaama_lwm2m/core/er-coap-13\er-coap-13.c ****         length += COAP_MAX_OPTION_HEADER_LEN + coap_pkt->proxy_uri_len;
 1867              		.loc 1 553 0
 1868 01ce FB68     		ldr	r3, [r7, #12]
 1869 01d0 9A69     		ldr	r2, [r3, #24]
 1870 01d2 FB69     		ldr	r3, [r7, #28]
 1871 01d4 1344     		add	r3, r3, r2
 1872 01d6 0533     		adds	r3, r3, #5
 1873 01d8 FB61     		str	r3, [r7, #28]
 1874              	.L101:
 554:C:/Users/dtjld/Desktop/AIoT_software/LiteOS_Lab_overseas/LiteOS_Lab/iot_link/network/lwm2m/wakaama_lwm2m/core/er-coap-13\er-coap-13.c ****     }
 555:C:/Users/dtjld/Desktop/AIoT_software/LiteOS_Lab_overseas/LiteOS_Lab/iot_link/network/lwm2m/wakaama_lwm2m/core/er-coap-13\er-coap-13.c **** 
 556:C:/Users/dtjld/Desktop/AIoT_software/LiteOS_Lab_overseas/LiteOS_Lab/iot_link/network/lwm2m/wakaama_lwm2m/core/er-coap-13\er-coap-13.c ****     if (coap_pkt->payload_len)
 1875              		.loc 1 556 0
 1876 01da FB68     		ldr	r3, [r7, #12]
 1877 01dc B3F88630 		ldrh	r3, [r3, #134]
 1878 01e0 002B     		cmp	r3, #0
 1879 01e2 02D0     		beq	.L102
 557:C:/Users/dtjld/Desktop/AIoT_software/LiteOS_Lab_overseas/LiteOS_Lab/iot_link/network/lwm2m/wakaama_lwm2m/core/er-coap-13\er-coap-13.c ****     {
 558:C:/Users/dtjld/Desktop/AIoT_software/LiteOS_Lab_overseas/LiteOS_Lab/iot_link/network/lwm2m/wakaama_lwm2m/core/er-coap-13\er-coap-13.c ****         // Account for the payload marker.
 559:C:/Users/dtjld/Desktop/AIoT_software/LiteOS_Lab_overseas/LiteOS_Lab/iot_link/network/lwm2m/wakaama_lwm2m/core/er-coap-13\er-coap-13.c ****         length += 1;
 1880              		.loc 1 559 0
 1881 01e4 FB69     		ldr	r3, [r7, #28]
 1882 01e6 0133     		adds	r3, r3, #1
 1883 01e8 FB61     		str	r3, [r7, #28]
 1884              	.L102:
 560:C:/Users/dtjld/Desktop/AIoT_software/LiteOS_Lab_overseas/LiteOS_Lab/iot_link/network/lwm2m/wakaama_lwm2m/core/er-coap-13\er-coap-13.c ****     }
 561:C:/Users/dtjld/Desktop/AIoT_software/LiteOS_Lab_overseas/LiteOS_Lab/iot_link/network/lwm2m/wakaama_lwm2m/core/er-coap-13\er-coap-13.c **** 
 562:C:/Users/dtjld/Desktop/AIoT_software/LiteOS_Lab_overseas/LiteOS_Lab/iot_link/network/lwm2m/wakaama_lwm2m/core/er-coap-13\er-coap-13.c ****     return length;
 1885              		.loc 1 562 0
 1886 01ea FB69     		ldr	r3, [r7, #28]
 563:C:/Users/dtjld/Desktop/AIoT_software/LiteOS_Lab_overseas/LiteOS_Lab/iot_link/network/lwm2m/wakaama_lwm2m/core/er-coap-13\er-coap-13.c **** }
 1887              		.loc 1 563 0
 1888 01ec 1846     		mov	r0, r3
 1889 01ee 2437     		adds	r7, r7, #36
 1890              	.LCFI80:
 1891              		.cfi_def_cfa_offset 4
 1892 01f0 BD46     		mov	sp, r7
 1893              	.LCFI81:
 1894              		.cfi_def_cfa_register 13
 1895              		@ sp needed
 1896 01f2 5DF8047B 		ldr	r7, [sp], #4
 1897              	.LCFI82:
 1898              		.cfi_restore 7
 1899              		.cfi_def_cfa_offset 0
 1900 01f6 7047     		bx	lr
 1901              		.cfi_endproc
 1902              	.LFE19:
 1904              		.section	.text.coap_serialize_message,"ax",%progbits
 1905              		.align	1
ARM GAS  C:\Users\dtjld\AppData\Local\Temp\ccpI0fza.s 			page 44


 1906              		.global	coap_serialize_message
 1907              		.syntax unified
 1908              		.thumb
 1909              		.thumb_func
 1910              		.fpu fpv4-sp-d16
 1912              	coap_serialize_message:
 1913              	.LFB20:
 564:C:/Users/dtjld/Desktop/AIoT_software/LiteOS_Lab_overseas/LiteOS_Lab/iot_link/network/lwm2m/wakaama_lwm2m/core/er-coap-13\er-coap-13.c **** 
 565:C:/Users/dtjld/Desktop/AIoT_software/LiteOS_Lab_overseas/LiteOS_Lab/iot_link/network/lwm2m/wakaama_lwm2m/core/er-coap-13\er-coap-13.c **** /*-----------------------------------------------------------------------------------*/
 566:C:/Users/dtjld/Desktop/AIoT_software/LiteOS_Lab_overseas/LiteOS_Lab/iot_link/network/lwm2m/wakaama_lwm2m/core/er-coap-13\er-coap-13.c **** size_t
 567:C:/Users/dtjld/Desktop/AIoT_software/LiteOS_Lab_overseas/LiteOS_Lab/iot_link/network/lwm2m/wakaama_lwm2m/core/er-coap-13\er-coap-13.c **** coap_serialize_message(void *packet, uint8_t *buffer)
 568:C:/Users/dtjld/Desktop/AIoT_software/LiteOS_Lab_overseas/LiteOS_Lab/iot_link/network/lwm2m/wakaama_lwm2m/core/er-coap-13\er-coap-13.c **** {
 1914              		.loc 1 568 0
 1915              		.cfi_startproc
 1916              		@ args = 0, pretend = 0, frame = 32
 1917              		@ frame_needed = 1, uses_anonymous_args = 0
 1918 0000 80B5     		push	{r7, lr}
 1919              	.LCFI83:
 1920              		.cfi_def_cfa_offset 8
 1921              		.cfi_offset 7, -8
 1922              		.cfi_offset 14, -4
 1923 0002 8AB0     		sub	sp, sp, #40
 1924              	.LCFI84:
 1925              		.cfi_def_cfa_offset 48
 1926 0004 02AF     		add	r7, sp, #8
 1927              	.LCFI85:
 1928              		.cfi_def_cfa 7, 40
 1929 0006 7860     		str	r0, [r7, #4]
 1930 0008 3960     		str	r1, [r7]
 569:C:/Users/dtjld/Desktop/AIoT_software/LiteOS_Lab_overseas/LiteOS_Lab/iot_link/network/lwm2m/wakaama_lwm2m/core/er-coap-13\er-coap-13.c ****     coap_packet_t *const coap_pkt = (coap_packet_t *) packet;
 1931              		.loc 1 569 0
 1932 000a 7B68     		ldr	r3, [r7, #4]
 1933 000c BB60     		str	r3, [r7, #8]
 570:C:/Users/dtjld/Desktop/AIoT_software/LiteOS_Lab_overseas/LiteOS_Lab/iot_link/network/lwm2m/wakaama_lwm2m/core/er-coap-13\er-coap-13.c ****     uint8_t *option;
 571:C:/Users/dtjld/Desktop/AIoT_software/LiteOS_Lab_overseas/LiteOS_Lab/iot_link/network/lwm2m/wakaama_lwm2m/core/er-coap-13\er-coap-13.c ****     unsigned int current_number = 0;
 1934              		.loc 1 571 0
 1935 000e 0023     		movs	r3, #0
 1936 0010 BB61     		str	r3, [r7, #24]
 572:C:/Users/dtjld/Desktop/AIoT_software/LiteOS_Lab_overseas/LiteOS_Lab/iot_link/network/lwm2m/wakaama_lwm2m/core/er-coap-13\er-coap-13.c **** 
 573:C:/Users/dtjld/Desktop/AIoT_software/LiteOS_Lab_overseas/LiteOS_Lab/iot_link/network/lwm2m/wakaama_lwm2m/core/er-coap-13\er-coap-13.c ****     /* Initialize */
 574:C:/Users/dtjld/Desktop/AIoT_software/LiteOS_Lab_overseas/LiteOS_Lab/iot_link/network/lwm2m/wakaama_lwm2m/core/er-coap-13\er-coap-13.c ****     coap_pkt->buffer = buffer;
 1937              		.loc 1 574 0
 1938 0012 BB68     		ldr	r3, [r7, #8]
 1939 0014 3A68     		ldr	r2, [r7]
 1940 0016 1A60     		str	r2, [r3]
 575:C:/Users/dtjld/Desktop/AIoT_software/LiteOS_Lab_overseas/LiteOS_Lab/iot_link/network/lwm2m/wakaama_lwm2m/core/er-coap-13\er-coap-13.c ****     coap_pkt->version = 1;
 1941              		.loc 1 575 0
 1942 0018 BB68     		ldr	r3, [r7, #8]
 1943 001a 0122     		movs	r2, #1
 1944 001c 1A71     		strb	r2, [r3, #4]
 576:C:/Users/dtjld/Desktop/AIoT_software/LiteOS_Lab_overseas/LiteOS_Lab/iot_link/network/lwm2m/wakaama_lwm2m/core/er-coap-13\er-coap-13.c **** 
 577:C:/Users/dtjld/Desktop/AIoT_software/LiteOS_Lab_overseas/LiteOS_Lab/iot_link/network/lwm2m/wakaama_lwm2m/core/er-coap-13\er-coap-13.c ****     PRINTF("-Serializing MID %u to %p, ", coap_pkt->mid, coap_pkt->buffer);
 578:C:/Users/dtjld/Desktop/AIoT_software/LiteOS_Lab_overseas/LiteOS_Lab/iot_link/network/lwm2m/wakaama_lwm2m/core/er-coap-13\er-coap-13.c **** 
 579:C:/Users/dtjld/Desktop/AIoT_software/LiteOS_Lab_overseas/LiteOS_Lab/iot_link/network/lwm2m/wakaama_lwm2m/core/er-coap-13\er-coap-13.c ****     /* set header fields */
 580:C:/Users/dtjld/Desktop/AIoT_software/LiteOS_Lab_overseas/LiteOS_Lab/iot_link/network/lwm2m/wakaama_lwm2m/core/er-coap-13\er-coap-13.c ****     coap_pkt->buffer[0]  = 0x00;
 1945              		.loc 1 580 0
 1946 001e BB68     		ldr	r3, [r7, #8]
ARM GAS  C:\Users\dtjld\AppData\Local\Temp\ccpI0fza.s 			page 45


 1947 0020 1B68     		ldr	r3, [r3]
 1948 0022 0022     		movs	r2, #0
 1949 0024 1A70     		strb	r2, [r3]
 581:C:/Users/dtjld/Desktop/AIoT_software/LiteOS_Lab_overseas/LiteOS_Lab/iot_link/network/lwm2m/wakaama_lwm2m/core/er-coap-13\er-coap-13.c ****     coap_pkt->buffer[0] |= COAP_HEADER_VERSION_MASK & (coap_pkt->version) << COAP_HEADER_VERSION_PO
 1950              		.loc 1 581 0
 1951 0026 BB68     		ldr	r3, [r7, #8]
 1952 0028 1B68     		ldr	r3, [r3]
 1953 002a 1B78     		ldrb	r3, [r3]	@ zero_extendqisi2
 1954 002c 5AB2     		sxtb	r2, r3
 1955 002e BB68     		ldr	r3, [r7, #8]
 1956 0030 1B79     		ldrb	r3, [r3, #4]	@ zero_extendqisi2
 1957 0032 9B01     		lsls	r3, r3, #6
 1958 0034 5BB2     		sxtb	r3, r3
 1959 0036 1343     		orrs	r3, r3, r2
 1960 0038 5AB2     		sxtb	r2, r3
 1961 003a BB68     		ldr	r3, [r7, #8]
 1962 003c 1B68     		ldr	r3, [r3]
 1963 003e D2B2     		uxtb	r2, r2
 1964 0040 1A70     		strb	r2, [r3]
 582:C:/Users/dtjld/Desktop/AIoT_software/LiteOS_Lab_overseas/LiteOS_Lab/iot_link/network/lwm2m/wakaama_lwm2m/core/er-coap-13\er-coap-13.c ****     coap_pkt->buffer[0] |= COAP_HEADER_TYPE_MASK & (coap_pkt->type) << COAP_HEADER_TYPE_POSITION;
 1965              		.loc 1 582 0
 1966 0042 BB68     		ldr	r3, [r7, #8]
 1967 0044 1B68     		ldr	r3, [r3]
 1968 0046 1B78     		ldrb	r3, [r3]	@ zero_extendqisi2
 1969 0048 5AB2     		sxtb	r2, r3
 1970 004a BB68     		ldr	r3, [r7, #8]
 1971 004c 5B79     		ldrb	r3, [r3, #5]	@ zero_extendqisi2
 1972 004e 1B01     		lsls	r3, r3, #4
 1973 0050 5BB2     		sxtb	r3, r3
 1974 0052 03F03003 		and	r3, r3, #48
 1975 0056 5BB2     		sxtb	r3, r3
 1976 0058 1343     		orrs	r3, r3, r2
 1977 005a 5AB2     		sxtb	r2, r3
 1978 005c BB68     		ldr	r3, [r7, #8]
 1979 005e 1B68     		ldr	r3, [r3]
 1980 0060 D2B2     		uxtb	r2, r2
 1981 0062 1A70     		strb	r2, [r3]
 583:C:/Users/dtjld/Desktop/AIoT_software/LiteOS_Lab_overseas/LiteOS_Lab/iot_link/network/lwm2m/wakaama_lwm2m/core/er-coap-13\er-coap-13.c ****     coap_pkt->buffer[0] |= COAP_HEADER_TOKEN_LEN_MASK & (coap_pkt->token_len) << COAP_HEADER_TOKEN_
 1982              		.loc 1 583 0
 1983 0064 BB68     		ldr	r3, [r7, #8]
 1984 0066 1B68     		ldr	r3, [r3]
 1985 0068 1B78     		ldrb	r3, [r3]	@ zero_extendqisi2
 1986 006a 5AB2     		sxtb	r2, r3
 1987 006c BB68     		ldr	r3, [r7, #8]
 1988 006e 93F84C30 		ldrb	r3, [r3, #76]	@ zero_extendqisi2
 1989 0072 5BB2     		sxtb	r3, r3
 1990 0074 03F00F03 		and	r3, r3, #15
 1991 0078 5BB2     		sxtb	r3, r3
 1992 007a 1343     		orrs	r3, r3, r2
 1993 007c 5AB2     		sxtb	r2, r3
 1994 007e BB68     		ldr	r3, [r7, #8]
 1995 0080 1B68     		ldr	r3, [r3]
 1996 0082 D2B2     		uxtb	r2, r2
 1997 0084 1A70     		strb	r2, [r3]
 584:C:/Users/dtjld/Desktop/AIoT_software/LiteOS_Lab_overseas/LiteOS_Lab/iot_link/network/lwm2m/wakaama_lwm2m/core/er-coap-13\er-coap-13.c ****     coap_pkt->buffer[1] = coap_pkt->code;
 1998              		.loc 1 584 0
 1999 0086 BB68     		ldr	r3, [r7, #8]
ARM GAS  C:\Users\dtjld\AppData\Local\Temp\ccpI0fza.s 			page 46


 2000 0088 1B68     		ldr	r3, [r3]
 2001 008a 0133     		adds	r3, r3, #1
 2002 008c BA68     		ldr	r2, [r7, #8]
 2003 008e 9279     		ldrb	r2, [r2, #6]	@ zero_extendqisi2
 2004 0090 1A70     		strb	r2, [r3]
 585:C:/Users/dtjld/Desktop/AIoT_software/LiteOS_Lab_overseas/LiteOS_Lab/iot_link/network/lwm2m/wakaama_lwm2m/core/er-coap-13\er-coap-13.c ****     coap_pkt->buffer[2] = (uint8_t) ((coap_pkt->mid) >> 8);
 2005              		.loc 1 585 0
 2006 0092 BB68     		ldr	r3, [r7, #8]
 2007 0094 1B89     		ldrh	r3, [r3, #8]
 2008 0096 1B0A     		lsrs	r3, r3, #8
 2009 0098 9AB2     		uxth	r2, r3
 2010 009a BB68     		ldr	r3, [r7, #8]
 2011 009c 1B68     		ldr	r3, [r3]
 2012 009e 0233     		adds	r3, r3, #2
 2013 00a0 D2B2     		uxtb	r2, r2
 2014 00a2 1A70     		strb	r2, [r3]
 586:C:/Users/dtjld/Desktop/AIoT_software/LiteOS_Lab_overseas/LiteOS_Lab/iot_link/network/lwm2m/wakaama_lwm2m/core/er-coap-13\er-coap-13.c ****     coap_pkt->buffer[3] = (uint8_t) (coap_pkt->mid);
 2015              		.loc 1 586 0
 2016 00a4 BB68     		ldr	r3, [r7, #8]
 2017 00a6 1A89     		ldrh	r2, [r3, #8]
 2018 00a8 BB68     		ldr	r3, [r7, #8]
 2019 00aa 1B68     		ldr	r3, [r3]
 2020 00ac 0333     		adds	r3, r3, #3
 2021 00ae D2B2     		uxtb	r2, r2
 2022 00b0 1A70     		strb	r2, [r3]
 587:C:/Users/dtjld/Desktop/AIoT_software/LiteOS_Lab_overseas/LiteOS_Lab/iot_link/network/lwm2m/wakaama_lwm2m/core/er-coap-13\er-coap-13.c **** 
 588:C:/Users/dtjld/Desktop/AIoT_software/LiteOS_Lab_overseas/LiteOS_Lab/iot_link/network/lwm2m/wakaama_lwm2m/core/er-coap-13\er-coap-13.c ****     /* set Token */
 589:C:/Users/dtjld/Desktop/AIoT_software/LiteOS_Lab_overseas/LiteOS_Lab/iot_link/network/lwm2m/wakaama_lwm2m/core/er-coap-13\er-coap-13.c ****     PRINTF("Token (len %u)", coap_pkt->token_len);
 590:C:/Users/dtjld/Desktop/AIoT_software/LiteOS_Lab_overseas/LiteOS_Lab/iot_link/network/lwm2m/wakaama_lwm2m/core/er-coap-13\er-coap-13.c ****     option = coap_pkt->buffer + COAP_HEADER_LEN;
 2023              		.loc 1 590 0
 2024 00b2 BB68     		ldr	r3, [r7, #8]
 2025 00b4 1B68     		ldr	r3, [r3]
 2026 00b6 0433     		adds	r3, r3, #4
 2027 00b8 FB61     		str	r3, [r7, #28]
 591:C:/Users/dtjld/Desktop/AIoT_software/LiteOS_Lab_overseas/LiteOS_Lab/iot_link/network/lwm2m/wakaama_lwm2m/core/er-coap-13\er-coap-13.c ****     for (current_number = 0; current_number < coap_pkt->token_len; ++current_number)
 2028              		.loc 1 591 0
 2029 00ba 0023     		movs	r3, #0
 2030 00bc BB61     		str	r3, [r7, #24]
 2031 00be 0CE0     		b	.L105
 2032              	.L106:
 592:C:/Users/dtjld/Desktop/AIoT_software/LiteOS_Lab_overseas/LiteOS_Lab/iot_link/network/lwm2m/wakaama_lwm2m/core/er-coap-13\er-coap-13.c ****     {
 593:C:/Users/dtjld/Desktop/AIoT_software/LiteOS_Lab_overseas/LiteOS_Lab/iot_link/network/lwm2m/wakaama_lwm2m/core/er-coap-13\er-coap-13.c ****         PRINTF(" %02X", coap_pkt->token[current_number]);
 594:C:/Users/dtjld/Desktop/AIoT_software/LiteOS_Lab_overseas/LiteOS_Lab/iot_link/network/lwm2m/wakaama_lwm2m/core/er-coap-13\er-coap-13.c ****         *option = coap_pkt->token[current_number];
 2033              		.loc 1 594 0 discriminator 3
 2034 00c0 BA68     		ldr	r2, [r7, #8]
 2035 00c2 BB69     		ldr	r3, [r7, #24]
 2036 00c4 1344     		add	r3, r3, r2
 2037 00c6 4D33     		adds	r3, r3, #77
 2038 00c8 1A78     		ldrb	r2, [r3]	@ zero_extendqisi2
 2039 00ca FB69     		ldr	r3, [r7, #28]
 2040 00cc 1A70     		strb	r2, [r3]
 595:C:/Users/dtjld/Desktop/AIoT_software/LiteOS_Lab_overseas/LiteOS_Lab/iot_link/network/lwm2m/wakaama_lwm2m/core/er-coap-13\er-coap-13.c ****         ++option;
 2041              		.loc 1 595 0 discriminator 3
 2042 00ce FB69     		ldr	r3, [r7, #28]
 2043 00d0 0133     		adds	r3, r3, #1
 2044 00d2 FB61     		str	r3, [r7, #28]
 591:C:/Users/dtjld/Desktop/AIoT_software/LiteOS_Lab_overseas/LiteOS_Lab/iot_link/network/lwm2m/wakaama_lwm2m/core/er-coap-13\er-coap-13.c ****     for (current_number = 0; current_number < coap_pkt->token_len; ++current_number)
ARM GAS  C:\Users\dtjld\AppData\Local\Temp\ccpI0fza.s 			page 47


 2045              		.loc 1 591 0 discriminator 3
 2046 00d4 BB69     		ldr	r3, [r7, #24]
 2047 00d6 0133     		adds	r3, r3, #1
 2048 00d8 BB61     		str	r3, [r7, #24]
 2049              	.L105:
 591:C:/Users/dtjld/Desktop/AIoT_software/LiteOS_Lab_overseas/LiteOS_Lab/iot_link/network/lwm2m/wakaama_lwm2m/core/er-coap-13\er-coap-13.c ****     for (current_number = 0; current_number < coap_pkt->token_len; ++current_number)
 2050              		.loc 1 591 0 is_stmt 0 discriminator 1
 2051 00da BB68     		ldr	r3, [r7, #8]
 2052 00dc 93F84C30 		ldrb	r3, [r3, #76]	@ zero_extendqisi2
 2053 00e0 1A46     		mov	r2, r3
 2054 00e2 BB69     		ldr	r3, [r7, #24]
 2055 00e4 9342     		cmp	r3, r2
 2056 00e6 EBD3     		bcc	.L106
 596:C:/Users/dtjld/Desktop/AIoT_software/LiteOS_Lab_overseas/LiteOS_Lab/iot_link/network/lwm2m/wakaama_lwm2m/core/er-coap-13\er-coap-13.c ****     }
 597:C:/Users/dtjld/Desktop/AIoT_software/LiteOS_Lab_overseas/LiteOS_Lab/iot_link/network/lwm2m/wakaama_lwm2m/core/er-coap-13\er-coap-13.c ****     PRINTF("-\n");
 598:C:/Users/dtjld/Desktop/AIoT_software/LiteOS_Lab_overseas/LiteOS_Lab/iot_link/network/lwm2m/wakaama_lwm2m/core/er-coap-13\er-coap-13.c **** 
 599:C:/Users/dtjld/Desktop/AIoT_software/LiteOS_Lab_overseas/LiteOS_Lab/iot_link/network/lwm2m/wakaama_lwm2m/core/er-coap-13\er-coap-13.c ****     /* Serialize options */
 600:C:/Users/dtjld/Desktop/AIoT_software/LiteOS_Lab_overseas/LiteOS_Lab/iot_link/network/lwm2m/wakaama_lwm2m/core/er-coap-13\er-coap-13.c ****     current_number = 0;
 2057              		.loc 1 600 0 is_stmt 1
 2058 00e8 0023     		movs	r3, #0
 2059 00ea BB61     		str	r3, [r7, #24]
 601:C:/Users/dtjld/Desktop/AIoT_software/LiteOS_Lab_overseas/LiteOS_Lab/iot_link/network/lwm2m/wakaama_lwm2m/core/er-coap-13\er-coap-13.c **** 
 602:C:/Users/dtjld/Desktop/AIoT_software/LiteOS_Lab_overseas/LiteOS_Lab/iot_link/network/lwm2m/wakaama_lwm2m/core/er-coap-13\er-coap-13.c ****     PRINTF("-Serializing options at %p-\n", option);
 603:C:/Users/dtjld/Desktop/AIoT_software/LiteOS_Lab_overseas/LiteOS_Lab/iot_link/network/lwm2m/wakaama_lwm2m/core/er-coap-13\er-coap-13.c **** 
 604:C:/Users/dtjld/Desktop/AIoT_software/LiteOS_Lab_overseas/LiteOS_Lab/iot_link/network/lwm2m/wakaama_lwm2m/core/er-coap-13\er-coap-13.c ****     /* The options must be serialized in the order of their number */
 605:C:/Users/dtjld/Desktop/AIoT_software/LiteOS_Lab_overseas/LiteOS_Lab/iot_link/network/lwm2m/wakaama_lwm2m/core/er-coap-13\er-coap-13.c ****     COAP_SERIALIZE_BYTE_OPTION(   COAP_OPTION_IF_MATCH,       if_match, "If-Match")
 2060              		.loc 1 605 0
 2061 00ec BB68     		ldr	r3, [r7, #8]
 2062 00ee 9B7A     		ldrb	r3, [r3, #10]	@ zero_extendqisi2
 2063 00f0 03F00203 		and	r3, r3, #2
 2064 00f4 002B     		cmp	r3, #0
 2065 00f6 15D0     		beq	.L107
 2066              		.loc 1 605 0 is_stmt 0 discriminator 1
 2067 00f8 BB68     		ldr	r3, [r7, #8]
 2068 00fa 03F15B02 		add	r2, r3, #91
 2069 00fe BB68     		ldr	r3, [r7, #8]
 2070 0100 93F85A30 		ldrb	r3, [r3, #90]	@ zero_extendqisi2
 2071 0104 1946     		mov	r1, r3
 2072 0106 0023     		movs	r3, #0
 2073 0108 0193     		str	r3, [sp, #4]
 2074 010a 0091     		str	r1, [sp]
 2075 010c 1346     		mov	r3, r2
 2076 010e FA69     		ldr	r2, [r7, #28]
 2077 0110 B969     		ldr	r1, [r7, #24]
 2078 0112 0120     		movs	r0, #1
 2079 0114 FFF7FEFF 		bl	coap_serialize_array_option
 2080 0118 0246     		mov	r2, r0
 2081 011a FB69     		ldr	r3, [r7, #28]
 2082 011c 1344     		add	r3, r3, r2
 2083 011e FB61     		str	r3, [r7, #28]
 2084 0120 0123     		movs	r3, #1
 2085 0122 BB61     		str	r3, [r7, #24]
 2086              	.L107:
 606:C:/Users/dtjld/Desktop/AIoT_software/LiteOS_Lab_overseas/LiteOS_Lab/iot_link/network/lwm2m/wakaama_lwm2m/core/er-coap-13\er-coap-13.c ****     COAP_SERIALIZE_STRING_OPTION( COAP_OPTION_URI_HOST,       uri_host, '\0', "Uri-Host")
 2087              		.loc 1 606 0 is_stmt 1
 2088 0124 BB68     		ldr	r3, [r7, #8]
 2089 0126 9B7A     		ldrb	r3, [r3, #10]	@ zero_extendqisi2
ARM GAS  C:\Users\dtjld\AppData\Local\Temp\ccpI0fza.s 			page 48


 2090 0128 03F00803 		and	r3, r3, #8
 2091 012c 002B     		cmp	r3, #0
 2092 012e 12D0     		beq	.L108
 2093              		.loc 1 606 0 is_stmt 0 discriminator 1
 2094 0130 BB68     		ldr	r3, [r7, #8]
 2095 0132 196B     		ldr	r1, [r3, #48]
 2096 0134 BB68     		ldr	r3, [r7, #8]
 2097 0136 DB6A     		ldr	r3, [r3, #44]
 2098 0138 0022     		movs	r2, #0
 2099 013a 0192     		str	r2, [sp, #4]
 2100 013c 0093     		str	r3, [sp]
 2101 013e 0B46     		mov	r3, r1
 2102 0140 FA69     		ldr	r2, [r7, #28]
 2103 0142 B969     		ldr	r1, [r7, #24]
 2104 0144 0320     		movs	r0, #3
 2105 0146 FFF7FEFF 		bl	coap_serialize_array_option
 2106 014a 0246     		mov	r2, r0
 2107 014c FB69     		ldr	r3, [r7, #28]
 2108 014e 1344     		add	r3, r3, r2
 2109 0150 FB61     		str	r3, [r7, #28]
 2110 0152 0323     		movs	r3, #3
 2111 0154 BB61     		str	r3, [r7, #24]
 2112              	.L108:
 607:C:/Users/dtjld/Desktop/AIoT_software/LiteOS_Lab_overseas/LiteOS_Lab/iot_link/network/lwm2m/wakaama_lwm2m/core/er-coap-13\er-coap-13.c ****     COAP_SERIALIZE_BYTE_OPTION(   COAP_OPTION_ETAG,           etag, "ETag")
 2113              		.loc 1 607 0 is_stmt 1
 2114 0156 BB68     		ldr	r3, [r7, #8]
 2115 0158 9B7A     		ldrb	r3, [r3, #10]	@ zero_extendqisi2
 2116 015a 03F01003 		and	r3, r3, #16
 2117 015e 002B     		cmp	r3, #0
 2118 0160 15D0     		beq	.L109
 2119              		.loc 1 607 0 is_stmt 0 discriminator 1
 2120 0162 BB68     		ldr	r3, [r7, #8]
 2121 0164 03F12102 		add	r2, r3, #33
 2122 0168 BB68     		ldr	r3, [r7, #8]
 2123 016a 93F82030 		ldrb	r3, [r3, #32]	@ zero_extendqisi2
 2124 016e 1946     		mov	r1, r3
 2125 0170 0023     		movs	r3, #0
 2126 0172 0193     		str	r3, [sp, #4]
 2127 0174 0091     		str	r1, [sp]
 2128 0176 1346     		mov	r3, r2
 2129 0178 FA69     		ldr	r2, [r7, #28]
 2130 017a B969     		ldr	r1, [r7, #24]
 2131 017c 0420     		movs	r0, #4
 2132 017e FFF7FEFF 		bl	coap_serialize_array_option
 2133 0182 0246     		mov	r2, r0
 2134 0184 FB69     		ldr	r3, [r7, #28]
 2135 0186 1344     		add	r3, r3, r2
 2136 0188 FB61     		str	r3, [r7, #28]
 2137 018a 0423     		movs	r3, #4
 2138 018c BB61     		str	r3, [r7, #24]
 2139              	.L109:
 608:C:/Users/dtjld/Desktop/AIoT_software/LiteOS_Lab_overseas/LiteOS_Lab/iot_link/network/lwm2m/wakaama_lwm2m/core/er-coap-13\er-coap-13.c ****     COAP_SERIALIZE_INT_OPTION(    COAP_OPTION_IF_NONE_MATCH,  content_type - coap_pkt->content_type
 2140              		.loc 1 608 0 is_stmt 1
 2141 018e BB68     		ldr	r3, [r7, #8]
 2142 0190 9B7A     		ldrb	r3, [r3, #10]	@ zero_extendqisi2
 2143 0192 03F02003 		and	r3, r3, #32
 2144 0196 002B     		cmp	r3, #0
ARM GAS  C:\Users\dtjld\AppData\Local\Temp\ccpI0fza.s 			page 49


 2145 0198 0BD0     		beq	.L110
 2146              		.loc 1 608 0 is_stmt 0 discriminator 1
 2147 019a 0023     		movs	r3, #0
 2148 019c FA69     		ldr	r2, [r7, #28]
 2149 019e B969     		ldr	r1, [r7, #24]
 2150 01a0 0520     		movs	r0, #5
 2151 01a2 FFF7FEFF 		bl	coap_serialize_int_option
 2152 01a6 0246     		mov	r2, r0
 2153 01a8 FB69     		ldr	r3, [r7, #28]
 2154 01aa 1344     		add	r3, r3, r2
 2155 01ac FB61     		str	r3, [r7, #28]
 2156 01ae 0523     		movs	r3, #5
 2157 01b0 BB61     		str	r3, [r7, #24]
 2158              	.L110:
 609:C:/Users/dtjld/Desktop/AIoT_software/LiteOS_Lab_overseas/LiteOS_Lab/iot_link/network/lwm2m/wakaama_lwm2m/core/er-coap-13\er-coap-13.c ****     COAP_SERIALIZE_INT_OPTION(    COAP_OPTION_OBSERVE,        observe, "Observe")
 2159              		.loc 1 609 0 is_stmt 1
 2160 01b2 BB68     		ldr	r3, [r7, #8]
 2161 01b4 9B7A     		ldrb	r3, [r3, #10]	@ zero_extendqisi2
 2162 01b6 03F04003 		and	r3, r3, #64
 2163 01ba 002B     		cmp	r3, #0
 2164 01bc 0CD0     		beq	.L111
 2165              		.loc 1 609 0 is_stmt 0 discriminator 1
 2166 01be BB68     		ldr	r3, [r7, #8]
 2167 01c0 9B6C     		ldr	r3, [r3, #72]
 2168 01c2 FA69     		ldr	r2, [r7, #28]
 2169 01c4 B969     		ldr	r1, [r7, #24]
 2170 01c6 0620     		movs	r0, #6
 2171 01c8 FFF7FEFF 		bl	coap_serialize_int_option
 2172 01cc 0246     		mov	r2, r0
 2173 01ce FB69     		ldr	r3, [r7, #28]
 2174 01d0 1344     		add	r3, r3, r2
 2175 01d2 FB61     		str	r3, [r7, #28]
 2176 01d4 0623     		movs	r3, #6
 2177 01d6 BB61     		str	r3, [r7, #24]
 2178              	.L111:
 610:C:/Users/dtjld/Desktop/AIoT_software/LiteOS_Lab_overseas/LiteOS_Lab/iot_link/network/lwm2m/wakaama_lwm2m/core/er-coap-13\er-coap-13.c ****     COAP_SERIALIZE_INT_OPTION(    COAP_OPTION_URI_PORT,       uri_port, "Uri-Port")
 2179              		.loc 1 610 0 is_stmt 1
 2180 01d8 BB68     		ldr	r3, [r7, #8]
 2181 01da 9B7A     		ldrb	r3, [r3, #10]	@ zero_extendqisi2
 2182 01dc 5BB2     		sxtb	r3, r3
 2183 01de 002B     		cmp	r3, #0
 2184 01e0 0CDA     		bge	.L112
 2185              		.loc 1 610 0 is_stmt 0 discriminator 1
 2186 01e2 BB68     		ldr	r3, [r7, #8]
 2187 01e4 1B8F     		ldrh	r3, [r3, #56]
 2188 01e6 FA69     		ldr	r2, [r7, #28]
 2189 01e8 B969     		ldr	r1, [r7, #24]
 2190 01ea 0720     		movs	r0, #7
 2191 01ec FFF7FEFF 		bl	coap_serialize_int_option
 2192 01f0 0246     		mov	r2, r0
 2193 01f2 FB69     		ldr	r3, [r7, #28]
 2194 01f4 1344     		add	r3, r3, r2
 2195 01f6 FB61     		str	r3, [r7, #28]
 2196 01f8 0723     		movs	r3, #7
 2197 01fa BB61     		str	r3, [r7, #24]
 2198              	.L112:
 611:C:/Users/dtjld/Desktop/AIoT_software/LiteOS_Lab_overseas/LiteOS_Lab/iot_link/network/lwm2m/wakaama_lwm2m/core/er-coap-13\er-coap-13.c ****     COAP_SERIALIZE_MULTI_OPTION(  COAP_OPTION_LOCATION_PATH,  location_path, "Location-Path")
ARM GAS  C:\Users\dtjld\AppData\Local\Temp\ccpI0fza.s 			page 50


 2199              		.loc 1 611 0 is_stmt 1
 2200 01fc BB68     		ldr	r3, [r7, #8]
 2201 01fe DB7A     		ldrb	r3, [r3, #11]	@ zero_extendqisi2
 2202 0200 03F00103 		and	r3, r3, #1
 2203 0204 002B     		cmp	r3, #0
 2204 0206 0CD0     		beq	.L113
 2205              		.loc 1 611 0 is_stmt 0 discriminator 1
 2206 0208 BB68     		ldr	r3, [r7, #8]
 2207 020a 5B6B     		ldr	r3, [r3, #52]
 2208 020c FA69     		ldr	r2, [r7, #28]
 2209 020e B969     		ldr	r1, [r7, #24]
 2210 0210 0820     		movs	r0, #8
 2211 0212 FFF7FEFF 		bl	coap_serialize_multi_option
 2212 0216 0246     		mov	r2, r0
 2213 0218 FB69     		ldr	r3, [r7, #28]
 2214 021a 1344     		add	r3, r3, r2
 2215 021c FB61     		str	r3, [r7, #28]
 2216 021e 0823     		movs	r3, #8
 2217 0220 BB61     		str	r3, [r7, #24]
 2218              	.L113:
 612:C:/Users/dtjld/Desktop/AIoT_software/LiteOS_Lab_overseas/LiteOS_Lab/iot_link/network/lwm2m/wakaama_lwm2m/core/er-coap-13\er-coap-13.c ****     COAP_SERIALIZE_MULTI_OPTION(  COAP_OPTION_URI_PATH,       uri_path, "Uri-Path")
 2219              		.loc 1 612 0 is_stmt 1
 2220 0222 BB68     		ldr	r3, [r7, #8]
 2221 0224 DB7A     		ldrb	r3, [r3, #11]	@ zero_extendqisi2
 2222 0226 03F00803 		and	r3, r3, #8
 2223 022a 002B     		cmp	r3, #0
 2224 022c 0CD0     		beq	.L114
 2225              		.loc 1 612 0 is_stmt 0 discriminator 1
 2226 022e BB68     		ldr	r3, [r7, #8]
 2227 0230 5B6C     		ldr	r3, [r3, #68]
 2228 0232 FA69     		ldr	r2, [r7, #28]
 2229 0234 B969     		ldr	r1, [r7, #24]
 2230 0236 0B20     		movs	r0, #11
 2231 0238 FFF7FEFF 		bl	coap_serialize_multi_option
 2232 023c 0246     		mov	r2, r0
 2233 023e FB69     		ldr	r3, [r7, #28]
 2234 0240 1344     		add	r3, r3, r2
 2235 0242 FB61     		str	r3, [r7, #28]
 2236 0244 0B23     		movs	r3, #11
 2237 0246 BB61     		str	r3, [r7, #24]
 2238              	.L114:
 613:C:/Users/dtjld/Desktop/AIoT_software/LiteOS_Lab_overseas/LiteOS_Lab/iot_link/network/lwm2m/wakaama_lwm2m/core/er-coap-13\er-coap-13.c ****     COAP_SERIALIZE_INT_OPTION(    COAP_OPTION_CONTENT_TYPE,   content_type, "Content-Format")
 2239              		.loc 1 613 0 is_stmt 1
 2240 0248 BB68     		ldr	r3, [r7, #8]
 2241 024a DB7A     		ldrb	r3, [r3, #11]	@ zero_extendqisi2
 2242 024c 03F01003 		and	r3, r3, #16
 2243 0250 002B     		cmp	r3, #0
 2244 0252 0CD0     		beq	.L115
 2245              		.loc 1 613 0 is_stmt 0 discriminator 1
 2246 0254 BB68     		ldr	r3, [r7, #8]
 2247 0256 1B8A     		ldrh	r3, [r3, #16]
 2248 0258 FA69     		ldr	r2, [r7, #28]
 2249 025a B969     		ldr	r1, [r7, #24]
 2250 025c 0C20     		movs	r0, #12
 2251 025e FFF7FEFF 		bl	coap_serialize_int_option
 2252 0262 0246     		mov	r2, r0
 2253 0264 FB69     		ldr	r3, [r7, #28]
ARM GAS  C:\Users\dtjld\AppData\Local\Temp\ccpI0fza.s 			page 51


 2254 0266 1344     		add	r3, r3, r2
 2255 0268 FB61     		str	r3, [r7, #28]
 2256 026a 0C23     		movs	r3, #12
 2257 026c BB61     		str	r3, [r7, #24]
 2258              	.L115:
 614:C:/Users/dtjld/Desktop/AIoT_software/LiteOS_Lab_overseas/LiteOS_Lab/iot_link/network/lwm2m/wakaama_lwm2m/core/er-coap-13\er-coap-13.c ****     COAP_SERIALIZE_INT_OPTION(    COAP_OPTION_MAX_AGE,        max_age, "Max-Age")
 2259              		.loc 1 614 0 is_stmt 1
 2260 026e BB68     		ldr	r3, [r7, #8]
 2261 0270 DB7A     		ldrb	r3, [r3, #11]	@ zero_extendqisi2
 2262 0272 03F04003 		and	r3, r3, #64
 2263 0276 002B     		cmp	r3, #0
 2264 0278 0CD0     		beq	.L116
 2265              		.loc 1 614 0 is_stmt 0 discriminator 1
 2266 027a BB68     		ldr	r3, [r7, #8]
 2267 027c 5B69     		ldr	r3, [r3, #20]
 2268 027e FA69     		ldr	r2, [r7, #28]
 2269 0280 B969     		ldr	r1, [r7, #24]
 2270 0282 0E20     		movs	r0, #14
 2271 0284 FFF7FEFF 		bl	coap_serialize_int_option
 2272 0288 0246     		mov	r2, r0
 2273 028a FB69     		ldr	r3, [r7, #28]
 2274 028c 1344     		add	r3, r3, r2
 2275 028e FB61     		str	r3, [r7, #28]
 2276 0290 0E23     		movs	r3, #14
 2277 0292 BB61     		str	r3, [r7, #24]
 2278              	.L116:
 615:C:/Users/dtjld/Desktop/AIoT_software/LiteOS_Lab_overseas/LiteOS_Lab/iot_link/network/lwm2m/wakaama_lwm2m/core/er-coap-13\er-coap-13.c ****     COAP_SERIALIZE_MULTI_OPTION(  COAP_OPTION_URI_QUERY,      uri_query, "Uri-Query")
 2279              		.loc 1 615 0 is_stmt 1
 2280 0294 BB68     		ldr	r3, [r7, #8]
 2281 0296 DB7A     		ldrb	r3, [r3, #11]	@ zero_extendqisi2
 2282 0298 5BB2     		sxtb	r3, r3
 2283 029a 002B     		cmp	r3, #0
 2284 029c 0DDA     		bge	.L117
 2285              		.loc 1 615 0 is_stmt 0 discriminator 1
 2286 029e BB68     		ldr	r3, [r7, #8]
 2287 02a0 D3F88030 		ldr	r3, [r3, #128]
 2288 02a4 FA69     		ldr	r2, [r7, #28]
 2289 02a6 B969     		ldr	r1, [r7, #24]
 2290 02a8 0F20     		movs	r0, #15
 2291 02aa FFF7FEFF 		bl	coap_serialize_multi_option
 2292 02ae 0246     		mov	r2, r0
 2293 02b0 FB69     		ldr	r3, [r7, #28]
 2294 02b2 1344     		add	r3, r3, r2
 2295 02b4 FB61     		str	r3, [r7, #28]
 2296 02b6 0F23     		movs	r3, #15
 2297 02b8 BB61     		str	r3, [r7, #24]
 2298              	.L117:
 616:C:/Users/dtjld/Desktop/AIoT_software/LiteOS_Lab_overseas/LiteOS_Lab/iot_link/network/lwm2m/wakaama_lwm2m/core/er-coap-13\er-coap-13.c ****     COAP_SERIALIZE_ACCEPT_OPTION( COAP_OPTION_ACCEPT,         accept, "Accept")
 2299              		.loc 1 616 0 is_stmt 1
 2300 02ba BB68     		ldr	r3, [r7, #8]
 2301 02bc 1B7B     		ldrb	r3, [r3, #12]	@ zero_extendqisi2
 2302 02be 03F00203 		and	r3, r3, #2
 2303 02c2 002B     		cmp	r3, #0
 2304 02c4 1DD0     		beq	.L118
 2305              	.LBB9:
 2306              		.loc 1 616 0 is_stmt 0 discriminator 1
 2307 02c6 0023     		movs	r3, #0
ARM GAS  C:\Users\dtjld\AppData\Local\Temp\ccpI0fza.s 			page 52


 2308 02c8 7B61     		str	r3, [r7, #20]
 2309 02ca 13E0     		b	.L119
 2310              	.L120:
 2311              		.loc 1 616 0 discriminator 4
 2312 02cc BA68     		ldr	r2, [r7, #8]
 2313 02ce 7B69     		ldr	r3, [r7, #20]
 2314 02d0 2833     		adds	r3, r3, #40
 2315 02d2 5B00     		lsls	r3, r3, #1
 2316 02d4 1344     		add	r3, r3, r2
 2317 02d6 DB88     		ldrh	r3, [r3, #6]
 2318 02d8 FA69     		ldr	r2, [r7, #28]
 2319 02da B969     		ldr	r1, [r7, #24]
 2320 02dc 1120     		movs	r0, #17
 2321 02de FFF7FEFF 		bl	coap_serialize_int_option
 2322 02e2 0246     		mov	r2, r0
 2323 02e4 FB69     		ldr	r3, [r7, #28]
 2324 02e6 1344     		add	r3, r3, r2
 2325 02e8 FB61     		str	r3, [r7, #28]
 2326 02ea 1123     		movs	r3, #17
 2327 02ec BB61     		str	r3, [r7, #24]
 2328 02ee 7B69     		ldr	r3, [r7, #20]
 2329 02f0 0133     		adds	r3, r3, #1
 2330 02f2 7B61     		str	r3, [r7, #20]
 2331              	.L119:
 2332              		.loc 1 616 0 discriminator 2
 2333 02f4 BB68     		ldr	r3, [r7, #8]
 2334 02f6 93F85530 		ldrb	r3, [r3, #85]	@ zero_extendqisi2
 2335 02fa 1A46     		mov	r2, r3
 2336 02fc 7B69     		ldr	r3, [r7, #20]
 2337 02fe 9342     		cmp	r3, r2
 2338 0300 E4DB     		blt	.L120
 2339              	.L118:
 2340              	.LBE9:
 617:C:/Users/dtjld/Desktop/AIoT_software/LiteOS_Lab_overseas/LiteOS_Lab/iot_link/network/lwm2m/wakaama_lwm2m/core/er-coap-13\er-coap-13.c ****     COAP_SERIALIZE_STRING_OPTION( COAP_OPTION_LOCATION_QUERY, location_query, '&', "Location-Query"
 2341              		.loc 1 617 0 is_stmt 1
 2342 0302 BB68     		ldr	r3, [r7, #8]
 2343 0304 1B7B     		ldrb	r3, [r3, #12]	@ zero_extendqisi2
 2344 0306 03F01003 		and	r3, r3, #16
 2345 030a 002B     		cmp	r3, #0
 2346 030c 12D0     		beq	.L121
 2347              		.loc 1 617 0 is_stmt 0 discriminator 1
 2348 030e BB68     		ldr	r3, [r7, #8]
 2349 0310 196C     		ldr	r1, [r3, #64]
 2350 0312 BB68     		ldr	r3, [r7, #8]
 2351 0314 DB6B     		ldr	r3, [r3, #60]
 2352 0316 2622     		movs	r2, #38
 2353 0318 0192     		str	r2, [sp, #4]
 2354 031a 0093     		str	r3, [sp]
 2355 031c 0B46     		mov	r3, r1
 2356 031e FA69     		ldr	r2, [r7, #28]
 2357 0320 B969     		ldr	r1, [r7, #24]
 2358 0322 1420     		movs	r0, #20
 2359 0324 FFF7FEFF 		bl	coap_serialize_array_option
 2360 0328 0246     		mov	r2, r0
 2361 032a FB69     		ldr	r3, [r7, #28]
 2362 032c 1344     		add	r3, r3, r2
 2363 032e FB61     		str	r3, [r7, #28]
ARM GAS  C:\Users\dtjld\AppData\Local\Temp\ccpI0fza.s 			page 53


 2364 0330 1423     		movs	r3, #20
 2365 0332 BB61     		str	r3, [r7, #24]
 2366              	.L121:
 618:C:/Users/dtjld/Desktop/AIoT_software/LiteOS_Lab_overseas/LiteOS_Lab/iot_link/network/lwm2m/wakaama_lwm2m/core/er-coap-13\er-coap-13.c ****     COAP_SERIALIZE_BLOCK_OPTION(  COAP_OPTION_BLOCK2,         block2, "Block2")
 2367              		.loc 1 618 0 is_stmt 1
 2368 0334 BB68     		ldr	r3, [r7, #8]
 2369 0336 1B7B     		ldrb	r3, [r3, #12]	@ zero_extendqisi2
 2370 0338 5BB2     		sxtb	r3, r3
 2371 033a 002B     		cmp	r3, #0
 2372 033c 27DA     		bge	.L122
 2373              	.LBB10:
 2374              		.loc 1 618 0 is_stmt 0 discriminator 1
 2375 033e BB68     		ldr	r3, [r7, #8]
 2376 0340 5B6E     		ldr	r3, [r3, #100]
 2377 0342 1B01     		lsls	r3, r3, #4
 2378 0344 3B61     		str	r3, [r7, #16]
 2379 0346 BB68     		ldr	r3, [r7, #8]
 2380 0348 93F86830 		ldrb	r3, [r3, #104]	@ zero_extendqisi2
 2381 034c 002B     		cmp	r3, #0
 2382 034e 03D0     		beq	.L123
 2383              		.loc 1 618 0 discriminator 2
 2384 0350 3B69     		ldr	r3, [r7, #16]
 2385 0352 43F00803 		orr	r3, r3, #8
 2386 0356 3B61     		str	r3, [r7, #16]
 2387              	.L123:
 2388              		.loc 1 618 0 discriminator 4
 2389 0358 BB68     		ldr	r3, [r7, #8]
 2390 035a B3F86A30 		ldrh	r3, [r3, #106]
 2391 035e 1B09     		lsrs	r3, r3, #4
 2392 0360 9BB2     		uxth	r3, r3
 2393 0362 1846     		mov	r0, r3
 2394 0364 FFF7FEFF 		bl	coap_log_2
 2395 0368 0346     		mov	r3, r0
 2396 036a 03F00F03 		and	r3, r3, #15
 2397 036e 1A46     		mov	r2, r3
 2398 0370 3B69     		ldr	r3, [r7, #16]
 2399 0372 1343     		orrs	r3, r3, r2
 2400 0374 3B61     		str	r3, [r7, #16]
 2401 0376 3B69     		ldr	r3, [r7, #16]
 2402 0378 FA69     		ldr	r2, [r7, #28]
 2403 037a B969     		ldr	r1, [r7, #24]
 2404 037c 1720     		movs	r0, #23
 2405 037e FFF7FEFF 		bl	coap_serialize_int_option
 2406 0382 0246     		mov	r2, r0
 2407 0384 FB69     		ldr	r3, [r7, #28]
 2408 0386 1344     		add	r3, r3, r2
 2409 0388 FB61     		str	r3, [r7, #28]
 2410 038a 1723     		movs	r3, #23
 2411 038c BB61     		str	r3, [r7, #24]
 2412              	.L122:
 2413              	.LBE10:
 619:C:/Users/dtjld/Desktop/AIoT_software/LiteOS_Lab_overseas/LiteOS_Lab/iot_link/network/lwm2m/wakaama_lwm2m/core/er-coap-13\er-coap-13.c ****     COAP_SERIALIZE_BLOCK_OPTION(  COAP_OPTION_BLOCK1,         block1, "Block1")
 2414              		.loc 1 619 0 is_stmt 1
 2415 038e BB68     		ldr	r3, [r7, #8]
 2416 0390 5B7B     		ldrb	r3, [r3, #13]	@ zero_extendqisi2
 2417 0392 03F00803 		and	r3, r3, #8
 2418 0396 002B     		cmp	r3, #0
ARM GAS  C:\Users\dtjld\AppData\Local\Temp\ccpI0fza.s 			page 54


 2419 0398 27D0     		beq	.L124
 2420              	.LBB11:
 2421              		.loc 1 619 0 is_stmt 0 discriminator 1
 2422 039a BB68     		ldr	r3, [r7, #8]
 2423 039c 1B6F     		ldr	r3, [r3, #112]
 2424 039e 1B01     		lsls	r3, r3, #4
 2425 03a0 FB60     		str	r3, [r7, #12]
 2426 03a2 BB68     		ldr	r3, [r7, #8]
 2427 03a4 93F87430 		ldrb	r3, [r3, #116]	@ zero_extendqisi2
 2428 03a8 002B     		cmp	r3, #0
 2429 03aa 03D0     		beq	.L125
 2430              		.loc 1 619 0 discriminator 2
 2431 03ac FB68     		ldr	r3, [r7, #12]
 2432 03ae 43F00803 		orr	r3, r3, #8
 2433 03b2 FB60     		str	r3, [r7, #12]
 2434              	.L125:
 2435              		.loc 1 619 0 discriminator 4
 2436 03b4 BB68     		ldr	r3, [r7, #8]
 2437 03b6 B3F87630 		ldrh	r3, [r3, #118]
 2438 03ba 1B09     		lsrs	r3, r3, #4
 2439 03bc 9BB2     		uxth	r3, r3
 2440 03be 1846     		mov	r0, r3
 2441 03c0 FFF7FEFF 		bl	coap_log_2
 2442 03c4 0346     		mov	r3, r0
 2443 03c6 03F00F03 		and	r3, r3, #15
 2444 03ca 1A46     		mov	r2, r3
 2445 03cc FB68     		ldr	r3, [r7, #12]
 2446 03ce 1343     		orrs	r3, r3, r2
 2447 03d0 FB60     		str	r3, [r7, #12]
 2448 03d2 FB68     		ldr	r3, [r7, #12]
 2449 03d4 FA69     		ldr	r2, [r7, #28]
 2450 03d6 B969     		ldr	r1, [r7, #24]
 2451 03d8 1B20     		movs	r0, #27
 2452 03da FFF7FEFF 		bl	coap_serialize_int_option
 2453 03de 0246     		mov	r2, r0
 2454 03e0 FB69     		ldr	r3, [r7, #28]
 2455 03e2 1344     		add	r3, r3, r2
 2456 03e4 FB61     		str	r3, [r7, #28]
 2457 03e6 1B23     		movs	r3, #27
 2458 03e8 BB61     		str	r3, [r7, #24]
 2459              	.L124:
 2460              	.LBE11:
 620:C:/Users/dtjld/Desktop/AIoT_software/LiteOS_Lab_overseas/LiteOS_Lab/iot_link/network/lwm2m/wakaama_lwm2m/core/er-coap-13\er-coap-13.c ****     COAP_SERIALIZE_INT_OPTION(    COAP_OPTION_SIZE,           size, "Size")
 2461              		.loc 1 620 0 is_stmt 1
 2462 03ea BB68     		ldr	r3, [r7, #8]
 2463 03ec 5B7B     		ldrb	r3, [r3, #13]	@ zero_extendqisi2
 2464 03ee 03F01003 		and	r3, r3, #16
 2465 03f2 002B     		cmp	r3, #0
 2466 03f4 0CD0     		beq	.L126
 2467              		.loc 1 620 0 is_stmt 0 discriminator 1
 2468 03f6 BB68     		ldr	r3, [r7, #8]
 2469 03f8 DB6F     		ldr	r3, [r3, #124]
 2470 03fa FA69     		ldr	r2, [r7, #28]
 2471 03fc B969     		ldr	r1, [r7, #24]
 2472 03fe 1C20     		movs	r0, #28
 2473 0400 FFF7FEFF 		bl	coap_serialize_int_option
 2474 0404 0246     		mov	r2, r0
ARM GAS  C:\Users\dtjld\AppData\Local\Temp\ccpI0fza.s 			page 55


 2475 0406 FB69     		ldr	r3, [r7, #28]
 2476 0408 1344     		add	r3, r3, r2
 2477 040a FB61     		str	r3, [r7, #28]
 2478 040c 1C23     		movs	r3, #28
 2479 040e BB61     		str	r3, [r7, #24]
 2480              	.L126:
 621:C:/Users/dtjld/Desktop/AIoT_software/LiteOS_Lab_overseas/LiteOS_Lab/iot_link/network/lwm2m/wakaama_lwm2m/core/er-coap-13\er-coap-13.c ****     COAP_SERIALIZE_STRING_OPTION( COAP_OPTION_PROXY_URI,      proxy_uri, '\0', "Proxy-Uri")
 2481              		.loc 1 621 0 is_stmt 1
 2482 0410 BB68     		ldr	r3, [r7, #8]
 2483 0412 9B7B     		ldrb	r3, [r3, #14]	@ zero_extendqisi2
 2484 0414 03F00803 		and	r3, r3, #8
 2485 0418 002B     		cmp	r3, #0
 2486 041a 12D0     		beq	.L127
 2487              		.loc 1 621 0 is_stmt 0 discriminator 1
 2488 041c BB68     		ldr	r3, [r7, #8]
 2489 041e D969     		ldr	r1, [r3, #28]
 2490 0420 BB68     		ldr	r3, [r7, #8]
 2491 0422 9B69     		ldr	r3, [r3, #24]
 2492 0424 0022     		movs	r2, #0
 2493 0426 0192     		str	r2, [sp, #4]
 2494 0428 0093     		str	r3, [sp]
 2495 042a 0B46     		mov	r3, r1
 2496 042c FA69     		ldr	r2, [r7, #28]
 2497 042e B969     		ldr	r1, [r7, #24]
 2498 0430 2320     		movs	r0, #35
 2499 0432 FFF7FEFF 		bl	coap_serialize_array_option
 2500 0436 0246     		mov	r2, r0
 2501 0438 FB69     		ldr	r3, [r7, #28]
 2502 043a 1344     		add	r3, r3, r2
 2503 043c FB61     		str	r3, [r7, #28]
 2504 043e 2323     		movs	r3, #35
 2505 0440 BB61     		str	r3, [r7, #24]
 2506              	.L127:
 622:C:/Users/dtjld/Desktop/AIoT_software/LiteOS_Lab_overseas/LiteOS_Lab/iot_link/network/lwm2m/wakaama_lwm2m/core/er-coap-13\er-coap-13.c **** 
 623:C:/Users/dtjld/Desktop/AIoT_software/LiteOS_Lab_overseas/LiteOS_Lab/iot_link/network/lwm2m/wakaama_lwm2m/core/er-coap-13\er-coap-13.c ****     PRINTF("-Done serializing at %p----\n", option);
 624:C:/Users/dtjld/Desktop/AIoT_software/LiteOS_Lab_overseas/LiteOS_Lab/iot_link/network/lwm2m/wakaama_lwm2m/core/er-coap-13\er-coap-13.c **** 
 625:C:/Users/dtjld/Desktop/AIoT_software/LiteOS_Lab_overseas/LiteOS_Lab/iot_link/network/lwm2m/wakaama_lwm2m/core/er-coap-13\er-coap-13.c ****     /* Free allocated header fields */
 626:C:/Users/dtjld/Desktop/AIoT_software/LiteOS_Lab_overseas/LiteOS_Lab/iot_link/network/lwm2m/wakaama_lwm2m/core/er-coap-13\er-coap-13.c ****     coap_free_header(packet);
 2507              		.loc 1 626 0 is_stmt 1
 2508 0442 7868     		ldr	r0, [r7, #4]
 2509 0444 FFF7FEFF 		bl	coap_free_header
 627:C:/Users/dtjld/Desktop/AIoT_software/LiteOS_Lab_overseas/LiteOS_Lab/iot_link/network/lwm2m/wakaama_lwm2m/core/er-coap-13\er-coap-13.c **** 
 628:C:/Users/dtjld/Desktop/AIoT_software/LiteOS_Lab_overseas/LiteOS_Lab/iot_link/network/lwm2m/wakaama_lwm2m/core/er-coap-13\er-coap-13.c ****     /* Pack payload */
 629:C:/Users/dtjld/Desktop/AIoT_software/LiteOS_Lab_overseas/LiteOS_Lab/iot_link/network/lwm2m/wakaama_lwm2m/core/er-coap-13\er-coap-13.c ****     /* Payload marker */
 630:C:/Users/dtjld/Desktop/AIoT_software/LiteOS_Lab_overseas/LiteOS_Lab/iot_link/network/lwm2m/wakaama_lwm2m/core/er-coap-13\er-coap-13.c ****     if (coap_pkt->payload_len)
 2510              		.loc 1 630 0
 2511 0448 BB68     		ldr	r3, [r7, #8]
 2512 044a B3F88630 		ldrh	r3, [r3, #134]
 2513 044e 002B     		cmp	r3, #0
 2514 0450 05D0     		beq	.L128
 631:C:/Users/dtjld/Desktop/AIoT_software/LiteOS_Lab_overseas/LiteOS_Lab/iot_link/network/lwm2m/wakaama_lwm2m/core/er-coap-13\er-coap-13.c ****     {
 632:C:/Users/dtjld/Desktop/AIoT_software/LiteOS_Lab_overseas/LiteOS_Lab/iot_link/network/lwm2m/wakaama_lwm2m/core/er-coap-13\er-coap-13.c ****         *option = 0xFF;
 2515              		.loc 1 632 0
 2516 0452 FB69     		ldr	r3, [r7, #28]
 2517 0454 FF22     		movs	r2, #255
 2518 0456 1A70     		strb	r2, [r3]
 633:C:/Users/dtjld/Desktop/AIoT_software/LiteOS_Lab_overseas/LiteOS_Lab/iot_link/network/lwm2m/wakaama_lwm2m/core/er-coap-13\er-coap-13.c ****         ++option;
ARM GAS  C:\Users\dtjld\AppData\Local\Temp\ccpI0fza.s 			page 56


 2519              		.loc 1 633 0
 2520 0458 FB69     		ldr	r3, [r7, #28]
 2521 045a 0133     		adds	r3, r3, #1
 2522 045c FB61     		str	r3, [r7, #28]
 2523              	.L128:
 634:C:/Users/dtjld/Desktop/AIoT_software/LiteOS_Lab_overseas/LiteOS_Lab/iot_link/network/lwm2m/wakaama_lwm2m/core/er-coap-13\er-coap-13.c ****     }
 635:C:/Users/dtjld/Desktop/AIoT_software/LiteOS_Lab_overseas/LiteOS_Lab/iot_link/network/lwm2m/wakaama_lwm2m/core/er-coap-13\er-coap-13.c **** 
 636:C:/Users/dtjld/Desktop/AIoT_software/LiteOS_Lab_overseas/LiteOS_Lab/iot_link/network/lwm2m/wakaama_lwm2m/core/er-coap-13\er-coap-13.c ****     memmove(option, coap_pkt->payload, coap_pkt->payload_len);
 2524              		.loc 1 636 0
 2525 045e BB68     		ldr	r3, [r7, #8]
 2526 0460 D3F88810 		ldr	r1, [r3, #136]
 2527 0464 BB68     		ldr	r3, [r7, #8]
 2528 0466 B3F88630 		ldrh	r3, [r3, #134]
 2529 046a 1A46     		mov	r2, r3
 2530 046c F869     		ldr	r0, [r7, #28]
 2531 046e FFF7FEFF 		bl	memmove
 637:C:/Users/dtjld/Desktop/AIoT_software/LiteOS_Lab_overseas/LiteOS_Lab/iot_link/network/lwm2m/wakaama_lwm2m/core/er-coap-13\er-coap-13.c **** 
 638:C:/Users/dtjld/Desktop/AIoT_software/LiteOS_Lab_overseas/LiteOS_Lab/iot_link/network/lwm2m/wakaama_lwm2m/core/er-coap-13\er-coap-13.c ****     PRINTF("-Done %u B (header len %u, payload len %u)-\n", coap_pkt->payload_len + option - buffer
 639:C:/Users/dtjld/Desktop/AIoT_software/LiteOS_Lab_overseas/LiteOS_Lab/iot_link/network/lwm2m/wakaama_lwm2m/core/er-coap-13\er-coap-13.c **** 
 640:C:/Users/dtjld/Desktop/AIoT_software/LiteOS_Lab_overseas/LiteOS_Lab/iot_link/network/lwm2m/wakaama_lwm2m/core/er-coap-13\er-coap-13.c ****     PRINTF("Dump [0x%02X %02X %02X %02X  %02X %02X %02X %02X]\n",
 641:C:/Users/dtjld/Desktop/AIoT_software/LiteOS_Lab_overseas/LiteOS_Lab/iot_link/network/lwm2m/wakaama_lwm2m/core/er-coap-13\er-coap-13.c ****            coap_pkt->buffer[0],
 642:C:/Users/dtjld/Desktop/AIoT_software/LiteOS_Lab_overseas/LiteOS_Lab/iot_link/network/lwm2m/wakaama_lwm2m/core/er-coap-13\er-coap-13.c ****            coap_pkt->buffer[1],
 643:C:/Users/dtjld/Desktop/AIoT_software/LiteOS_Lab_overseas/LiteOS_Lab/iot_link/network/lwm2m/wakaama_lwm2m/core/er-coap-13\er-coap-13.c ****            coap_pkt->buffer[2],
 644:C:/Users/dtjld/Desktop/AIoT_software/LiteOS_Lab_overseas/LiteOS_Lab/iot_link/network/lwm2m/wakaama_lwm2m/core/er-coap-13\er-coap-13.c ****            coap_pkt->buffer[3],
 645:C:/Users/dtjld/Desktop/AIoT_software/LiteOS_Lab_overseas/LiteOS_Lab/iot_link/network/lwm2m/wakaama_lwm2m/core/er-coap-13\er-coap-13.c ****            coap_pkt->buffer[4],
 646:C:/Users/dtjld/Desktop/AIoT_software/LiteOS_Lab_overseas/LiteOS_Lab/iot_link/network/lwm2m/wakaama_lwm2m/core/er-coap-13\er-coap-13.c ****            coap_pkt->buffer[5],
 647:C:/Users/dtjld/Desktop/AIoT_software/LiteOS_Lab_overseas/LiteOS_Lab/iot_link/network/lwm2m/wakaama_lwm2m/core/er-coap-13\er-coap-13.c ****            coap_pkt->buffer[6],
 648:C:/Users/dtjld/Desktop/AIoT_software/LiteOS_Lab_overseas/LiteOS_Lab/iot_link/network/lwm2m/wakaama_lwm2m/core/er-coap-13\er-coap-13.c ****            coap_pkt->buffer[7]
 649:C:/Users/dtjld/Desktop/AIoT_software/LiteOS_Lab_overseas/LiteOS_Lab/iot_link/network/lwm2m/wakaama_lwm2m/core/er-coap-13\er-coap-13.c ****           );
 650:C:/Users/dtjld/Desktop/AIoT_software/LiteOS_Lab_overseas/LiteOS_Lab/iot_link/network/lwm2m/wakaama_lwm2m/core/er-coap-13\er-coap-13.c **** 
 651:C:/Users/dtjld/Desktop/AIoT_software/LiteOS_Lab_overseas/LiteOS_Lab/iot_link/network/lwm2m/wakaama_lwm2m/core/er-coap-13\er-coap-13.c ****     return (option - buffer) + coap_pkt->payload_len; /* packet length */
 2532              		.loc 1 651 0
 2533 0472 FA69     		ldr	r2, [r7, #28]
 2534 0474 3B68     		ldr	r3, [r7]
 2535 0476 D31A     		subs	r3, r2, r3
 2536 0478 BA68     		ldr	r2, [r7, #8]
 2537 047a B2F88620 		ldrh	r2, [r2, #134]
 2538 047e 1344     		add	r3, r3, r2
 652:C:/Users/dtjld/Desktop/AIoT_software/LiteOS_Lab_overseas/LiteOS_Lab/iot_link/network/lwm2m/wakaama_lwm2m/core/er-coap-13\er-coap-13.c **** }
 2539              		.loc 1 652 0
 2540 0480 1846     		mov	r0, r3
 2541 0482 2037     		adds	r7, r7, #32
 2542              	.LCFI86:
 2543              		.cfi_def_cfa_offset 8
 2544 0484 BD46     		mov	sp, r7
 2545              	.LCFI87:
 2546              		.cfi_def_cfa_register 13
 2547              		@ sp needed
 2548 0486 80BD     		pop	{r7, pc}
 2549              		.cfi_endproc
 2550              	.LFE20:
 2552              		.section	.rodata
 2553 0001 000000   		.align	2
 2554              	.LC1:
 2555 0004 436F4150 		.ascii	"CoAP version must be 1\000"
 2555      20766572 
 2555      73696F6E 
ARM GAS  C:\Users\dtjld\AppData\Local\Temp\ccpI0fza.s 			page 57


 2555      206D7573 
 2555      74206265 
 2556 001b 00       		.align	2
 2557              	.LC2:
 2558 001c 54686973 		.ascii	"This is a constrained server (Contiki)\000"
 2558      20697320 
 2558      6120636F 
 2558      6E737472 
 2558      61696E65 
 2559 0043 00       		.align	2
 2560              	.LC3:
 2561 0044 556E7375 		.ascii	"Unsupported critical option\000"
 2561      70706F72 
 2561      74656420 
 2561      63726974 
 2561      6963616C 
 2562              		.section	.text.coap_parse_message,"ax",%progbits
 2563              		.align	1
 2564              		.global	coap_parse_message
 2565              		.syntax unified
 2566              		.thumb
 2567              		.thumb_func
 2568              		.fpu fpv4-sp-d16
 2570              	coap_parse_message:
 2571              	.LFB21:
 653:C:/Users/dtjld/Desktop/AIoT_software/LiteOS_Lab_overseas/LiteOS_Lab/iot_link/network/lwm2m/wakaama_lwm2m/core/er-coap-13\er-coap-13.c **** /*-----------------------------------------------------------------------------------*/
 654:C:/Users/dtjld/Desktop/AIoT_software/LiteOS_Lab_overseas/LiteOS_Lab/iot_link/network/lwm2m/wakaama_lwm2m/core/er-coap-13\er-coap-13.c **** coap_status_t
 655:C:/Users/dtjld/Desktop/AIoT_software/LiteOS_Lab_overseas/LiteOS_Lab/iot_link/network/lwm2m/wakaama_lwm2m/core/er-coap-13\er-coap-13.c **** coap_parse_message(void *packet, uint8_t *data, uint16_t data_len)
 656:C:/Users/dtjld/Desktop/AIoT_software/LiteOS_Lab_overseas/LiteOS_Lab/iot_link/network/lwm2m/wakaama_lwm2m/core/er-coap-13\er-coap-13.c **** {
 2572              		.loc 1 656 0
 2573              		.cfi_startproc
 2574              		@ args = 0, pretend = 0, frame = 40
 2575              		@ frame_needed = 1, uses_anonymous_args = 0
 2576 0000 80B5     		push	{r7, lr}
 2577              	.LCFI88:
 2578              		.cfi_def_cfa_offset 8
 2579              		.cfi_offset 7, -8
 2580              		.cfi_offset 14, -4
 2581 0002 8CB0     		sub	sp, sp, #48
 2582              	.LCFI89:
 2583              		.cfi_def_cfa_offset 56
 2584 0004 02AF     		add	r7, sp, #8
 2585              	.LCFI90:
 2586              		.cfi_def_cfa 7, 48
 2587 0006 F860     		str	r0, [r7, #12]
 2588 0008 B960     		str	r1, [r7, #8]
 2589 000a 1346     		mov	r3, r2
 2590 000c FB80     		strh	r3, [r7, #6]	@ movhi
 657:C:/Users/dtjld/Desktop/AIoT_software/LiteOS_Lab_overseas/LiteOS_Lab/iot_link/network/lwm2m/wakaama_lwm2m/core/er-coap-13\er-coap-13.c ****     coap_packet_t *const coap_pkt = (coap_packet_t *) packet;
 2591              		.loc 1 657 0
 2592 000e FB68     		ldr	r3, [r7, #12]
 2593 0010 BB61     		str	r3, [r7, #24]
 658:C:/Users/dtjld/Desktop/AIoT_software/LiteOS_Lab_overseas/LiteOS_Lab/iot_link/network/lwm2m/wakaama_lwm2m/core/er-coap-13\er-coap-13.c ****     uint8_t *current_option;
 659:C:/Users/dtjld/Desktop/AIoT_software/LiteOS_Lab_overseas/LiteOS_Lab/iot_link/network/lwm2m/wakaama_lwm2m/core/er-coap-13\er-coap-13.c ****     unsigned int option_number = 0;
 2594              		.loc 1 659 0
 2595 0012 0023     		movs	r3, #0
 2596 0014 3B62     		str	r3, [r7, #32]
ARM GAS  C:\Users\dtjld\AppData\Local\Temp\ccpI0fza.s 			page 58


 660:C:/Users/dtjld/Desktop/AIoT_software/LiteOS_Lab_overseas/LiteOS_Lab/iot_link/network/lwm2m/wakaama_lwm2m/core/er-coap-13\er-coap-13.c ****     unsigned int option_delta = 0;
 2597              		.loc 1 660 0
 2598 0016 0023     		movs	r3, #0
 2599 0018 7B61     		str	r3, [r7, #20]
 661:C:/Users/dtjld/Desktop/AIoT_software/LiteOS_Lab_overseas/LiteOS_Lab/iot_link/network/lwm2m/wakaama_lwm2m/core/er-coap-13\er-coap-13.c ****     size_t option_length = 0;
 2600              		.loc 1 661 0
 2601 001a 0023     		movs	r3, #0
 2602 001c 3B61     		str	r3, [r7, #16]
 662:C:/Users/dtjld/Desktop/AIoT_software/LiteOS_Lab_overseas/LiteOS_Lab/iot_link/network/lwm2m/wakaama_lwm2m/core/er-coap-13\er-coap-13.c ****     unsigned int *x;
 663:C:/Users/dtjld/Desktop/AIoT_software/LiteOS_Lab_overseas/LiteOS_Lab/iot_link/network/lwm2m/wakaama_lwm2m/core/er-coap-13\er-coap-13.c **** 
 664:C:/Users/dtjld/Desktop/AIoT_software/LiteOS_Lab_overseas/LiteOS_Lab/iot_link/network/lwm2m/wakaama_lwm2m/core/er-coap-13\er-coap-13.c ****     /* Initialize packet */
 665:C:/Users/dtjld/Desktop/AIoT_software/LiteOS_Lab_overseas/LiteOS_Lab/iot_link/network/lwm2m/wakaama_lwm2m/core/er-coap-13\er-coap-13.c ****     memset(coap_pkt, 0, sizeof(coap_packet_t));
 2603              		.loc 1 665 0
 2604 001e 8C22     		movs	r2, #140
 2605 0020 0021     		movs	r1, #0
 2606 0022 B869     		ldr	r0, [r7, #24]
 2607 0024 FFF7FEFF 		bl	memset
 666:C:/Users/dtjld/Desktop/AIoT_software/LiteOS_Lab_overseas/LiteOS_Lab/iot_link/network/lwm2m/wakaama_lwm2m/core/er-coap-13\er-coap-13.c **** 
 667:C:/Users/dtjld/Desktop/AIoT_software/LiteOS_Lab_overseas/LiteOS_Lab/iot_link/network/lwm2m/wakaama_lwm2m/core/er-coap-13\er-coap-13.c ****     /* pointer to packet bytes */
 668:C:/Users/dtjld/Desktop/AIoT_software/LiteOS_Lab_overseas/LiteOS_Lab/iot_link/network/lwm2m/wakaama_lwm2m/core/er-coap-13\er-coap-13.c ****     coap_pkt->buffer = data;
 2608              		.loc 1 668 0
 2609 0028 BB69     		ldr	r3, [r7, #24]
 2610 002a BA68     		ldr	r2, [r7, #8]
 2611 002c 1A60     		str	r2, [r3]
 669:C:/Users/dtjld/Desktop/AIoT_software/LiteOS_Lab_overseas/LiteOS_Lab/iot_link/network/lwm2m/wakaama_lwm2m/core/er-coap-13\er-coap-13.c **** 
 670:C:/Users/dtjld/Desktop/AIoT_software/LiteOS_Lab_overseas/LiteOS_Lab/iot_link/network/lwm2m/wakaama_lwm2m/core/er-coap-13\er-coap-13.c ****     /* parse header fields */
 671:C:/Users/dtjld/Desktop/AIoT_software/LiteOS_Lab_overseas/LiteOS_Lab/iot_link/network/lwm2m/wakaama_lwm2m/core/er-coap-13\er-coap-13.c ****     coap_pkt->version = (COAP_HEADER_VERSION_MASK & coap_pkt->buffer[0]) >> COAP_HEADER_VERSION_POS
 2612              		.loc 1 671 0
 2613 002e BB69     		ldr	r3, [r7, #24]
 2614 0030 1B68     		ldr	r3, [r3]
 2615 0032 1B78     		ldrb	r3, [r3]	@ zero_extendqisi2
 2616 0034 9B09     		lsrs	r3, r3, #6
 2617 0036 DAB2     		uxtb	r2, r3
 2618 0038 BB69     		ldr	r3, [r7, #24]
 2619 003a 1A71     		strb	r2, [r3, #4]
 672:C:/Users/dtjld/Desktop/AIoT_software/LiteOS_Lab_overseas/LiteOS_Lab/iot_link/network/lwm2m/wakaama_lwm2m/core/er-coap-13\er-coap-13.c ****     coap_pkt->type = (coap_message_type_t)((COAP_HEADER_TYPE_MASK & coap_pkt->buffer[0]) >> COAP_HE
 2620              		.loc 1 672 0
 2621 003c BB69     		ldr	r3, [r7, #24]
 2622 003e 1B68     		ldr	r3, [r3]
 2623 0040 1B78     		ldrb	r3, [r3]	@ zero_extendqisi2
 2624 0042 1B09     		lsrs	r3, r3, #4
 2625 0044 DBB2     		uxtb	r3, r3
 2626 0046 03F00303 		and	r3, r3, #3
 2627 004a DAB2     		uxtb	r2, r3
 2628 004c BB69     		ldr	r3, [r7, #24]
 2629 004e 5A71     		strb	r2, [r3, #5]
 673:C:/Users/dtjld/Desktop/AIoT_software/LiteOS_Lab_overseas/LiteOS_Lab/iot_link/network/lwm2m/wakaama_lwm2m/core/er-coap-13\er-coap-13.c ****     coap_pkt->token_len = MIN(COAP_TOKEN_LEN, (COAP_HEADER_TOKEN_LEN_MASK & coap_pkt->buffer[0]) >>
 2630              		.loc 1 673 0
 2631 0050 BB69     		ldr	r3, [r7, #24]
 2632 0052 1B68     		ldr	r3, [r3]
 2633 0054 1B78     		ldrb	r3, [r3]	@ zero_extendqisi2
 2634 0056 03F00F03 		and	r3, r3, #15
 2635 005a 082B     		cmp	r3, #8
 2636 005c A8BF     		it	ge
 2637 005e 0823     		movge	r3, #8
 2638 0060 DAB2     		uxtb	r2, r3
 2639 0062 BB69     		ldr	r3, [r7, #24]
ARM GAS  C:\Users\dtjld\AppData\Local\Temp\ccpI0fza.s 			page 59


 2640 0064 83F84C20 		strb	r2, [r3, #76]
 674:C:/Users/dtjld/Desktop/AIoT_software/LiteOS_Lab_overseas/LiteOS_Lab/iot_link/network/lwm2m/wakaama_lwm2m/core/er-coap-13\er-coap-13.c ****     coap_pkt->code = coap_pkt->buffer[1];
 2641              		.loc 1 674 0
 2642 0068 BB69     		ldr	r3, [r7, #24]
 2643 006a 1B68     		ldr	r3, [r3]
 2644 006c 5A78     		ldrb	r2, [r3, #1]	@ zero_extendqisi2
 2645 006e BB69     		ldr	r3, [r7, #24]
 2646 0070 9A71     		strb	r2, [r3, #6]
 675:C:/Users/dtjld/Desktop/AIoT_software/LiteOS_Lab_overseas/LiteOS_Lab/iot_link/network/lwm2m/wakaama_lwm2m/core/er-coap-13\er-coap-13.c ****     coap_pkt->mid = coap_pkt->buffer[2] << 8 | coap_pkt->buffer[3];
 2647              		.loc 1 675 0
 2648 0072 BB69     		ldr	r3, [r7, #24]
 2649 0074 1B68     		ldr	r3, [r3]
 2650 0076 0233     		adds	r3, r3, #2
 2651 0078 1B78     		ldrb	r3, [r3]	@ zero_extendqisi2
 2652 007a 1B02     		lsls	r3, r3, #8
 2653 007c 1AB2     		sxth	r2, r3
 2654 007e BB69     		ldr	r3, [r7, #24]
 2655 0080 1B68     		ldr	r3, [r3]
 2656 0082 0333     		adds	r3, r3, #3
 2657 0084 1B78     		ldrb	r3, [r3]	@ zero_extendqisi2
 2658 0086 1BB2     		sxth	r3, r3
 2659 0088 1343     		orrs	r3, r3, r2
 2660 008a 1BB2     		sxth	r3, r3
 2661 008c 9AB2     		uxth	r2, r3
 2662 008e BB69     		ldr	r3, [r7, #24]
 2663 0090 1A81     		strh	r2, [r3, #8]	@ movhi
 676:C:/Users/dtjld/Desktop/AIoT_software/LiteOS_Lab_overseas/LiteOS_Lab/iot_link/network/lwm2m/wakaama_lwm2m/core/er-coap-13\er-coap-13.c **** 
 677:C:/Users/dtjld/Desktop/AIoT_software/LiteOS_Lab_overseas/LiteOS_Lab/iot_link/network/lwm2m/wakaama_lwm2m/core/er-coap-13\er-coap-13.c ****     if (coap_pkt->version != 1)
 2664              		.loc 1 677 0
 2665 0092 BB69     		ldr	r3, [r7, #24]
 2666 0094 1B79     		ldrb	r3, [r3, #4]	@ zero_extendqisi2
 2667 0096 012B     		cmp	r3, #1
 2668 0098 04D0     		beq	.L131
 678:C:/Users/dtjld/Desktop/AIoT_software/LiteOS_Lab_overseas/LiteOS_Lab/iot_link/network/lwm2m/wakaama_lwm2m/core/er-coap-13\er-coap-13.c ****     {
 679:C:/Users/dtjld/Desktop/AIoT_software/LiteOS_Lab_overseas/LiteOS_Lab/iot_link/network/lwm2m/wakaama_lwm2m/core/er-coap-13\er-coap-13.c ****         coap_error_message = "CoAP version must be 1";
 2669              		.loc 1 679 0
 2670 009a AE4B     		ldr	r3, .L171
 2671 009c AE4A     		ldr	r2, .L171+4
 2672 009e 1A60     		str	r2, [r3]
 680:C:/Users/dtjld/Desktop/AIoT_software/LiteOS_Lab_overseas/LiteOS_Lab/iot_link/network/lwm2m/wakaama_lwm2m/core/er-coap-13\er-coap-13.c ****         return BAD_REQUEST_4_00;
 2673              		.loc 1 680 0
 2674 00a0 8023     		movs	r3, #128
 2675 00a2 25E2     		b	.L169
 2676              	.L131:
 681:C:/Users/dtjld/Desktop/AIoT_software/LiteOS_Lab_overseas/LiteOS_Lab/iot_link/network/lwm2m/wakaama_lwm2m/core/er-coap-13\er-coap-13.c ****     }
 682:C:/Users/dtjld/Desktop/AIoT_software/LiteOS_Lab_overseas/LiteOS_Lab/iot_link/network/lwm2m/wakaama_lwm2m/core/er-coap-13\er-coap-13.c **** 
 683:C:/Users/dtjld/Desktop/AIoT_software/LiteOS_Lab_overseas/LiteOS_Lab/iot_link/network/lwm2m/wakaama_lwm2m/core/er-coap-13\er-coap-13.c ****     current_option = data + COAP_HEADER_LEN;
 2677              		.loc 1 683 0
 2678 00a4 BB68     		ldr	r3, [r7, #8]
 2679 00a6 0433     		adds	r3, r3, #4
 2680 00a8 7B62     		str	r3, [r7, #36]
 684:C:/Users/dtjld/Desktop/AIoT_software/LiteOS_Lab_overseas/LiteOS_Lab/iot_link/network/lwm2m/wakaama_lwm2m/core/er-coap-13\er-coap-13.c **** 
 685:C:/Users/dtjld/Desktop/AIoT_software/LiteOS_Lab_overseas/LiteOS_Lab/iot_link/network/lwm2m/wakaama_lwm2m/core/er-coap-13\er-coap-13.c ****     if (coap_pkt->token_len != 0)
 2681              		.loc 1 685 0
 2682 00aa BB69     		ldr	r3, [r7, #24]
 2683 00ac 93F84C30 		ldrb	r3, [r3, #76]	@ zero_extendqisi2
 2684 00b0 002B     		cmp	r3, #0
ARM GAS  C:\Users\dtjld\AppData\Local\Temp\ccpI0fza.s 			page 60


 2685 00b2 10D0     		beq	.L133
 686:C:/Users/dtjld/Desktop/AIoT_software/LiteOS_Lab_overseas/LiteOS_Lab/iot_link/network/lwm2m/wakaama_lwm2m/core/er-coap-13\er-coap-13.c ****     {
 687:C:/Users/dtjld/Desktop/AIoT_software/LiteOS_Lab_overseas/LiteOS_Lab/iot_link/network/lwm2m/wakaama_lwm2m/core/er-coap-13\er-coap-13.c ****         memcpy(coap_pkt->token, current_option, coap_pkt->token_len);
 2686              		.loc 1 687 0
 2687 00b4 BB69     		ldr	r3, [r7, #24]
 2688 00b6 03F14D00 		add	r0, r3, #77
 2689 00ba BB69     		ldr	r3, [r7, #24]
 2690 00bc 93F84C30 		ldrb	r3, [r3, #76]	@ zero_extendqisi2
 2691 00c0 1A46     		mov	r2, r3
 2692 00c2 796A     		ldr	r1, [r7, #36]
 2693 00c4 FFF7FEFF 		bl	memcpy
 688:C:/Users/dtjld/Desktop/AIoT_software/LiteOS_Lab_overseas/LiteOS_Lab/iot_link/network/lwm2m/wakaama_lwm2m/core/er-coap-13\er-coap-13.c ****         SET_OPTION(coap_pkt, COAP_OPTION_TOKEN);
 2694              		.loc 1 688 0
 2695 00c8 BB69     		ldr	r3, [r7, #24]
 2696 00ca 1B7B     		ldrb	r3, [r3, #12]	@ zero_extendqisi2
 2697 00cc 43F00803 		orr	r3, r3, #8
 2698 00d0 DAB2     		uxtb	r2, r3
 2699 00d2 BB69     		ldr	r3, [r7, #24]
 2700 00d4 1A73     		strb	r2, [r3, #12]
 2701              	.L133:
 689:C:/Users/dtjld/Desktop/AIoT_software/LiteOS_Lab_overseas/LiteOS_Lab/iot_link/network/lwm2m/wakaama_lwm2m/core/er-coap-13\er-coap-13.c **** 
 690:C:/Users/dtjld/Desktop/AIoT_software/LiteOS_Lab_overseas/LiteOS_Lab/iot_link/network/lwm2m/wakaama_lwm2m/core/er-coap-13\er-coap-13.c ****         PRINTF("Token (len %u) [0x%02X%02X%02X%02X%02X%02X%02X%02X]\n", coap_pkt->token_len,
 691:C:/Users/dtjld/Desktop/AIoT_software/LiteOS_Lab_overseas/LiteOS_Lab/iot_link/network/lwm2m/wakaama_lwm2m/core/er-coap-13\er-coap-13.c ****                coap_pkt->token[0],
 692:C:/Users/dtjld/Desktop/AIoT_software/LiteOS_Lab_overseas/LiteOS_Lab/iot_link/network/lwm2m/wakaama_lwm2m/core/er-coap-13\er-coap-13.c ****                coap_pkt->token[1],
 693:C:/Users/dtjld/Desktop/AIoT_software/LiteOS_Lab_overseas/LiteOS_Lab/iot_link/network/lwm2m/wakaama_lwm2m/core/er-coap-13\er-coap-13.c ****                coap_pkt->token[2],
 694:C:/Users/dtjld/Desktop/AIoT_software/LiteOS_Lab_overseas/LiteOS_Lab/iot_link/network/lwm2m/wakaama_lwm2m/core/er-coap-13\er-coap-13.c ****                coap_pkt->token[3],
 695:C:/Users/dtjld/Desktop/AIoT_software/LiteOS_Lab_overseas/LiteOS_Lab/iot_link/network/lwm2m/wakaama_lwm2m/core/er-coap-13\er-coap-13.c ****                coap_pkt->token[4],
 696:C:/Users/dtjld/Desktop/AIoT_software/LiteOS_Lab_overseas/LiteOS_Lab/iot_link/network/lwm2m/wakaama_lwm2m/core/er-coap-13\er-coap-13.c ****                coap_pkt->token[5],
 697:C:/Users/dtjld/Desktop/AIoT_software/LiteOS_Lab_overseas/LiteOS_Lab/iot_link/network/lwm2m/wakaama_lwm2m/core/er-coap-13\er-coap-13.c ****                coap_pkt->token[6],
 698:C:/Users/dtjld/Desktop/AIoT_software/LiteOS_Lab_overseas/LiteOS_Lab/iot_link/network/lwm2m/wakaama_lwm2m/core/er-coap-13\er-coap-13.c ****                coap_pkt->token[7]
 699:C:/Users/dtjld/Desktop/AIoT_software/LiteOS_Lab_overseas/LiteOS_Lab/iot_link/network/lwm2m/wakaama_lwm2m/core/er-coap-13\er-coap-13.c ****               ); /*FIXME always prints 8 bytes */
 700:C:/Users/dtjld/Desktop/AIoT_software/LiteOS_Lab_overseas/LiteOS_Lab/iot_link/network/lwm2m/wakaama_lwm2m/core/er-coap-13\er-coap-13.c ****     }
 701:C:/Users/dtjld/Desktop/AIoT_software/LiteOS_Lab_overseas/LiteOS_Lab/iot_link/network/lwm2m/wakaama_lwm2m/core/er-coap-13\er-coap-13.c **** 
 702:C:/Users/dtjld/Desktop/AIoT_software/LiteOS_Lab_overseas/LiteOS_Lab/iot_link/network/lwm2m/wakaama_lwm2m/core/er-coap-13\er-coap-13.c ****     /* parse options */
 703:C:/Users/dtjld/Desktop/AIoT_software/LiteOS_Lab_overseas/LiteOS_Lab/iot_link/network/lwm2m/wakaama_lwm2m/core/er-coap-13\er-coap-13.c ****     current_option += coap_pkt->token_len;
 2702              		.loc 1 703 0
 2703 00d6 BB69     		ldr	r3, [r7, #24]
 2704 00d8 93F84C30 		ldrb	r3, [r3, #76]	@ zero_extendqisi2
 2705 00dc 1A46     		mov	r2, r3
 2706 00de 7B6A     		ldr	r3, [r7, #36]
 2707 00e0 1344     		add	r3, r3, r2
 2708 00e2 7B62     		str	r3, [r7, #36]
 704:C:/Users/dtjld/Desktop/AIoT_software/LiteOS_Lab_overseas/LiteOS_Lab/iot_link/network/lwm2m/wakaama_lwm2m/core/er-coap-13\er-coap-13.c **** 
 705:C:/Users/dtjld/Desktop/AIoT_software/LiteOS_Lab_overseas/LiteOS_Lab/iot_link/network/lwm2m/wakaama_lwm2m/core/er-coap-13\er-coap-13.c ****     while (current_option < data + data_len)
 2709              		.loc 1 705 0
 2710 00e4 FCE1     		b	.L134
 2711              	.L168:
 706:C:/Users/dtjld/Desktop/AIoT_software/LiteOS_Lab_overseas/LiteOS_Lab/iot_link/network/lwm2m/wakaama_lwm2m/core/er-coap-13\er-coap-13.c ****     {
 707:C:/Users/dtjld/Desktop/AIoT_software/LiteOS_Lab_overseas/LiteOS_Lab/iot_link/network/lwm2m/wakaama_lwm2m/core/er-coap-13\er-coap-13.c ****         /* Payload marker 0xFF, currently only checking for 0xF* because rest is reserved */
 708:C:/Users/dtjld/Desktop/AIoT_software/LiteOS_Lab_overseas/LiteOS_Lab/iot_link/network/lwm2m/wakaama_lwm2m/core/er-coap-13\er-coap-13.c ****         if ((current_option[0] & 0xF0) == 0xF0)
 2712              		.loc 1 708 0
 2713 00e6 7B6A     		ldr	r3, [r7, #36]
 2714 00e8 1B78     		ldrb	r3, [r3]	@ zero_extendqisi2
 2715 00ea 03F0F003 		and	r3, r3, #240
 2716 00ee F02B     		cmp	r3, #240
 2717 00f0 14D1     		bne	.L135
 709:C:/Users/dtjld/Desktop/AIoT_software/LiteOS_Lab_overseas/LiteOS_Lab/iot_link/network/lwm2m/wakaama_lwm2m/core/er-coap-13\er-coap-13.c ****         {
ARM GAS  C:\Users\dtjld\AppData\Local\Temp\ccpI0fza.s 			page 61


 710:C:/Users/dtjld/Desktop/AIoT_software/LiteOS_Lab_overseas/LiteOS_Lab/iot_link/network/lwm2m/wakaama_lwm2m/core/er-coap-13\er-coap-13.c ****             coap_pkt->payload = ++current_option;
 2718              		.loc 1 710 0
 2719 00f2 7B6A     		ldr	r3, [r7, #36]
 2720 00f4 0133     		adds	r3, r3, #1
 2721 00f6 7B62     		str	r3, [r7, #36]
 2722 00f8 BB69     		ldr	r3, [r7, #24]
 2723 00fa 7A6A     		ldr	r2, [r7, #36]
 2724 00fc C3F88820 		str	r2, [r3, #136]
 711:C:/Users/dtjld/Desktop/AIoT_software/LiteOS_Lab_overseas/LiteOS_Lab/iot_link/network/lwm2m/wakaama_lwm2m/core/er-coap-13\er-coap-13.c ****             coap_pkt->payload_len = data_len - (coap_pkt->payload - data);
 2725              		.loc 1 711 0
 2726 0100 BB69     		ldr	r3, [r7, #24]
 2727 0102 D3F88830 		ldr	r3, [r3, #136]
 2728 0106 1A46     		mov	r2, r3
 2729 0108 BB68     		ldr	r3, [r7, #8]
 2730 010a D31A     		subs	r3, r2, r3
 2731 010c 9BB2     		uxth	r3, r3
 2732 010e FA88     		ldrh	r2, [r7, #6]	@ movhi
 2733 0110 D31A     		subs	r3, r2, r3
 2734 0112 9AB2     		uxth	r2, r3
 2735 0114 BB69     		ldr	r3, [r7, #24]
 2736 0116 A3F88620 		strh	r2, [r3, #134]	@ movhi
 712:C:/Users/dtjld/Desktop/AIoT_software/LiteOS_Lab_overseas/LiteOS_Lab/iot_link/network/lwm2m/wakaama_lwm2m/core/er-coap-13\er-coap-13.c **** 
 713:C:/Users/dtjld/Desktop/AIoT_software/LiteOS_Lab_overseas/LiteOS_Lab/iot_link/network/lwm2m/wakaama_lwm2m/core/er-coap-13\er-coap-13.c ****             break;
 2737              		.loc 1 713 0
 2738 011a E8E1     		b	.L136
 2739              	.L135:
 714:C:/Users/dtjld/Desktop/AIoT_software/LiteOS_Lab_overseas/LiteOS_Lab/iot_link/network/lwm2m/wakaama_lwm2m/core/er-coap-13\er-coap-13.c ****         }
 715:C:/Users/dtjld/Desktop/AIoT_software/LiteOS_Lab_overseas/LiteOS_Lab/iot_link/network/lwm2m/wakaama_lwm2m/core/er-coap-13\er-coap-13.c **** 
 716:C:/Users/dtjld/Desktop/AIoT_software/LiteOS_Lab_overseas/LiteOS_Lab/iot_link/network/lwm2m/wakaama_lwm2m/core/er-coap-13\er-coap-13.c ****         option_delta = current_option[0] >> 4;
 2740              		.loc 1 716 0
 2741 011c 7B6A     		ldr	r3, [r7, #36]
 2742 011e 1B78     		ldrb	r3, [r3]	@ zero_extendqisi2
 2743 0120 1B09     		lsrs	r3, r3, #4
 2744 0122 DBB2     		uxtb	r3, r3
 2745 0124 7B61     		str	r3, [r7, #20]
 717:C:/Users/dtjld/Desktop/AIoT_software/LiteOS_Lab_overseas/LiteOS_Lab/iot_link/network/lwm2m/wakaama_lwm2m/core/er-coap-13\er-coap-13.c ****         option_length = current_option[0] & 0x0F;
 2746              		.loc 1 717 0
 2747 0126 7B6A     		ldr	r3, [r7, #36]
 2748 0128 1B78     		ldrb	r3, [r3]	@ zero_extendqisi2
 2749 012a 03F00F03 		and	r3, r3, #15
 2750 012e 3B61     		str	r3, [r7, #16]
 718:C:/Users/dtjld/Desktop/AIoT_software/LiteOS_Lab_overseas/LiteOS_Lab/iot_link/network/lwm2m/wakaama_lwm2m/core/er-coap-13\er-coap-13.c ****         ++current_option;
 2751              		.loc 1 718 0
 2752 0130 7B6A     		ldr	r3, [r7, #36]
 2753 0132 0133     		adds	r3, r3, #1
 2754 0134 7B62     		str	r3, [r7, #36]
 719:C:/Users/dtjld/Desktop/AIoT_software/LiteOS_Lab_overseas/LiteOS_Lab/iot_link/network/lwm2m/wakaama_lwm2m/core/er-coap-13\er-coap-13.c **** 
 720:C:/Users/dtjld/Desktop/AIoT_software/LiteOS_Lab_overseas/LiteOS_Lab/iot_link/network/lwm2m/wakaama_lwm2m/core/er-coap-13\er-coap-13.c ****         /* avoids code duplication without function overhead */
 721:C:/Users/dtjld/Desktop/AIoT_software/LiteOS_Lab_overseas/LiteOS_Lab/iot_link/network/lwm2m/wakaama_lwm2m/core/er-coap-13\er-coap-13.c ****         x = &option_delta;
 2755              		.loc 1 721 0
 2756 0136 07F11403 		add	r3, r7, #20
 2757 013a FB61     		str	r3, [r7, #28]
 2758              	.L140:
 722:C:/Users/dtjld/Desktop/AIoT_software/LiteOS_Lab_overseas/LiteOS_Lab/iot_link/network/lwm2m/wakaama_lwm2m/core/er-coap-13\er-coap-13.c ****         do
 723:C:/Users/dtjld/Desktop/AIoT_software/LiteOS_Lab_overseas/LiteOS_Lab/iot_link/network/lwm2m/wakaama_lwm2m/core/er-coap-13\er-coap-13.c ****         {
 724:C:/Users/dtjld/Desktop/AIoT_software/LiteOS_Lab_overseas/LiteOS_Lab/iot_link/network/lwm2m/wakaama_lwm2m/core/er-coap-13\er-coap-13.c ****             if (*x == 13)
 2759              		.loc 1 724 0
ARM GAS  C:\Users\dtjld\AppData\Local\Temp\ccpI0fza.s 			page 62


 2760 013c FB69     		ldr	r3, [r7, #28]
 2761 013e 1B68     		ldr	r3, [r3]
 2762 0140 0D2B     		cmp	r3, #13
 2763 0142 0AD1     		bne	.L137
 725:C:/Users/dtjld/Desktop/AIoT_software/LiteOS_Lab_overseas/LiteOS_Lab/iot_link/network/lwm2m/wakaama_lwm2m/core/er-coap-13\er-coap-13.c ****             {
 726:C:/Users/dtjld/Desktop/AIoT_software/LiteOS_Lab_overseas/LiteOS_Lab/iot_link/network/lwm2m/wakaama_lwm2m/core/er-coap-13\er-coap-13.c ****                 *x += current_option[0];
 2764              		.loc 1 726 0
 2765 0144 FB69     		ldr	r3, [r7, #28]
 2766 0146 1B68     		ldr	r3, [r3]
 2767 0148 7A6A     		ldr	r2, [r7, #36]
 2768 014a 1278     		ldrb	r2, [r2]	@ zero_extendqisi2
 2769 014c 1A44     		add	r2, r2, r3
 2770 014e FB69     		ldr	r3, [r7, #28]
 2771 0150 1A60     		str	r2, [r3]
 727:C:/Users/dtjld/Desktop/AIoT_software/LiteOS_Lab_overseas/LiteOS_Lab/iot_link/network/lwm2m/wakaama_lwm2m/core/er-coap-13\er-coap-13.c ****                 ++current_option;
 2772              		.loc 1 727 0
 2773 0152 7B6A     		ldr	r3, [r7, #36]
 2774 0154 0133     		adds	r3, r3, #1
 2775 0156 7B62     		str	r3, [r7, #36]
 2776 0158 1EE0     		b	.L138
 2777              	.L137:
 728:C:/Users/dtjld/Desktop/AIoT_software/LiteOS_Lab_overseas/LiteOS_Lab/iot_link/network/lwm2m/wakaama_lwm2m/core/er-coap-13\er-coap-13.c ****             }
 729:C:/Users/dtjld/Desktop/AIoT_software/LiteOS_Lab_overseas/LiteOS_Lab/iot_link/network/lwm2m/wakaama_lwm2m/core/er-coap-13\er-coap-13.c ****             else if (*x == 14)
 2778              		.loc 1 729 0
 2779 015a FB69     		ldr	r3, [r7, #28]
 2780 015c 1B68     		ldr	r3, [r3]
 2781 015e 0E2B     		cmp	r3, #14
 2782 0160 1AD1     		bne	.L138
 730:C:/Users/dtjld/Desktop/AIoT_software/LiteOS_Lab_overseas/LiteOS_Lab/iot_link/network/lwm2m/wakaama_lwm2m/core/er-coap-13\er-coap-13.c ****             {
 731:C:/Users/dtjld/Desktop/AIoT_software/LiteOS_Lab_overseas/LiteOS_Lab/iot_link/network/lwm2m/wakaama_lwm2m/core/er-coap-13\er-coap-13.c ****                 *x += 255;
 2783              		.loc 1 731 0
 2784 0162 FB69     		ldr	r3, [r7, #28]
 2785 0164 1B68     		ldr	r3, [r3]
 2786 0166 03F1FF02 		add	r2, r3, #255
 2787 016a FB69     		ldr	r3, [r7, #28]
 2788 016c 1A60     		str	r2, [r3]
 732:C:/Users/dtjld/Desktop/AIoT_software/LiteOS_Lab_overseas/LiteOS_Lab/iot_link/network/lwm2m/wakaama_lwm2m/core/er-coap-13\er-coap-13.c ****                 *x += current_option[0] << 8;
 2789              		.loc 1 732 0
 2790 016e FB69     		ldr	r3, [r7, #28]
 2791 0170 1B68     		ldr	r3, [r3]
 2792 0172 7A6A     		ldr	r2, [r7, #36]
 2793 0174 1278     		ldrb	r2, [r2]	@ zero_extendqisi2
 2794 0176 1202     		lsls	r2, r2, #8
 2795 0178 1A44     		add	r2, r2, r3
 2796 017a FB69     		ldr	r3, [r7, #28]
 2797 017c 1A60     		str	r2, [r3]
 733:C:/Users/dtjld/Desktop/AIoT_software/LiteOS_Lab_overseas/LiteOS_Lab/iot_link/network/lwm2m/wakaama_lwm2m/core/er-coap-13\er-coap-13.c ****                 ++current_option;
 2798              		.loc 1 733 0
 2799 017e 7B6A     		ldr	r3, [r7, #36]
 2800 0180 0133     		adds	r3, r3, #1
 2801 0182 7B62     		str	r3, [r7, #36]
 734:C:/Users/dtjld/Desktop/AIoT_software/LiteOS_Lab_overseas/LiteOS_Lab/iot_link/network/lwm2m/wakaama_lwm2m/core/er-coap-13\er-coap-13.c ****                 *x += current_option[0];
 2802              		.loc 1 734 0
 2803 0184 FB69     		ldr	r3, [r7, #28]
 2804 0186 1B68     		ldr	r3, [r3]
 2805 0188 7A6A     		ldr	r2, [r7, #36]
 2806 018a 1278     		ldrb	r2, [r2]	@ zero_extendqisi2
ARM GAS  C:\Users\dtjld\AppData\Local\Temp\ccpI0fza.s 			page 63


 2807 018c 1A44     		add	r2, r2, r3
 2808 018e FB69     		ldr	r3, [r7, #28]
 2809 0190 1A60     		str	r2, [r3]
 735:C:/Users/dtjld/Desktop/AIoT_software/LiteOS_Lab_overseas/LiteOS_Lab/iot_link/network/lwm2m/wakaama_lwm2m/core/er-coap-13\er-coap-13.c ****                 ++current_option;
 2810              		.loc 1 735 0
 2811 0192 7B6A     		ldr	r3, [r7, #36]
 2812 0194 0133     		adds	r3, r3, #1
 2813 0196 7B62     		str	r3, [r7, #36]
 2814              	.L138:
 736:C:/Users/dtjld/Desktop/AIoT_software/LiteOS_Lab_overseas/LiteOS_Lab/iot_link/network/lwm2m/wakaama_lwm2m/core/er-coap-13\er-coap-13.c ****             }
 737:C:/Users/dtjld/Desktop/AIoT_software/LiteOS_Lab_overseas/LiteOS_Lab/iot_link/network/lwm2m/wakaama_lwm2m/core/er-coap-13\er-coap-13.c ****         }
 738:C:/Users/dtjld/Desktop/AIoT_software/LiteOS_Lab_overseas/LiteOS_Lab/iot_link/network/lwm2m/wakaama_lwm2m/core/er-coap-13\er-coap-13.c ****         while (x != (unsigned int *)&option_length && NULL != (x = (unsigned int *)&option_length))
 2815              		.loc 1 738 0
 2816 0198 07F11003 		add	r3, r7, #16
 2817 019c FA69     		ldr	r2, [r7, #28]
 2818 019e 9A42     		cmp	r2, r3
 2819 01a0 03D0     		beq	.L139
 2820              		.loc 1 738 0 is_stmt 0 discriminator 1
 2821 01a2 07F11003 		add	r3, r7, #16
 2822 01a6 FB61     		str	r3, [r7, #28]
 2823 01a8 C8E7     		b	.L140
 2824              	.L139:
 739:C:/Users/dtjld/Desktop/AIoT_software/LiteOS_Lab_overseas/LiteOS_Lab/iot_link/network/lwm2m/wakaama_lwm2m/core/er-coap-13\er-coap-13.c **** 
 740:C:/Users/dtjld/Desktop/AIoT_software/LiteOS_Lab_overseas/LiteOS_Lab/iot_link/network/lwm2m/wakaama_lwm2m/core/er-coap-13\er-coap-13.c ****         option_number += option_delta;
 2825              		.loc 1 740 0 is_stmt 1
 2826 01aa 7B69     		ldr	r3, [r7, #20]
 2827 01ac 3A6A     		ldr	r2, [r7, #32]
 2828 01ae 1344     		add	r3, r3, r2
 2829 01b0 3B62     		str	r3, [r7, #32]
 741:C:/Users/dtjld/Desktop/AIoT_software/LiteOS_Lab_overseas/LiteOS_Lab/iot_link/network/lwm2m/wakaama_lwm2m/core/er-coap-13\er-coap-13.c **** 
 742:C:/Users/dtjld/Desktop/AIoT_software/LiteOS_Lab_overseas/LiteOS_Lab/iot_link/network/lwm2m/wakaama_lwm2m/core/er-coap-13\er-coap-13.c ****         if (current_option + option_length > data + data_len)
 2830              		.loc 1 742 0
 2831 01b2 3B69     		ldr	r3, [r7, #16]
 2832 01b4 7A6A     		ldr	r2, [r7, #36]
 2833 01b6 1A44     		add	r2, r2, r3
 2834 01b8 FB88     		ldrh	r3, [r7, #6]
 2835 01ba B968     		ldr	r1, [r7, #8]
 2836 01bc 0B44     		add	r3, r3, r1
 2837 01be 9A42     		cmp	r2, r3
 2838 01c0 01D9     		bls	.L141
 743:C:/Users/dtjld/Desktop/AIoT_software/LiteOS_Lab_overseas/LiteOS_Lab/iot_link/network/lwm2m/wakaama_lwm2m/core/er-coap-13\er-coap-13.c ****         {
 744:C:/Users/dtjld/Desktop/AIoT_software/LiteOS_Lab_overseas/LiteOS_Lab/iot_link/network/lwm2m/wakaama_lwm2m/core/er-coap-13\er-coap-13.c ****             PRINTF("OPTION %u (delta %u, len %u) has invalid length.\n", option_number, option_delt
 745:C:/Users/dtjld/Desktop/AIoT_software/LiteOS_Lab_overseas/LiteOS_Lab/iot_link/network/lwm2m/wakaama_lwm2m/core/er-coap-13\er-coap-13.c ****             return BAD_REQUEST_4_00;
 2839              		.loc 1 745 0
 2840 01c2 8023     		movs	r3, #128
 2841 01c4 94E1     		b	.L169
 2842              	.L141:
 746:C:/Users/dtjld/Desktop/AIoT_software/LiteOS_Lab_overseas/LiteOS_Lab/iot_link/network/lwm2m/wakaama_lwm2m/core/er-coap-13\er-coap-13.c ****         }
 747:C:/Users/dtjld/Desktop/AIoT_software/LiteOS_Lab_overseas/LiteOS_Lab/iot_link/network/lwm2m/wakaama_lwm2m/core/er-coap-13\er-coap-13.c ****         else
 748:C:/Users/dtjld/Desktop/AIoT_software/LiteOS_Lab_overseas/LiteOS_Lab/iot_link/network/lwm2m/wakaama_lwm2m/core/er-coap-13\er-coap-13.c ****         {
 749:C:/Users/dtjld/Desktop/AIoT_software/LiteOS_Lab_overseas/LiteOS_Lab/iot_link/network/lwm2m/wakaama_lwm2m/core/er-coap-13\er-coap-13.c ****             PRINTF("OPTION %u (delta %u, len %u): ", option_number, option_delta, option_length);
 750:C:/Users/dtjld/Desktop/AIoT_software/LiteOS_Lab_overseas/LiteOS_Lab/iot_link/network/lwm2m/wakaama_lwm2m/core/er-coap-13\er-coap-13.c ****         }
 751:C:/Users/dtjld/Desktop/AIoT_software/LiteOS_Lab_overseas/LiteOS_Lab/iot_link/network/lwm2m/wakaama_lwm2m/core/er-coap-13\er-coap-13.c **** 
 752:C:/Users/dtjld/Desktop/AIoT_software/LiteOS_Lab_overseas/LiteOS_Lab/iot_link/network/lwm2m/wakaama_lwm2m/core/er-coap-13\er-coap-13.c ****         SET_OPTION(coap_pkt, option_number);
 2843              		.loc 1 752 0
 2844 01c6 3B6A     		ldr	r3, [r7, #32]
 2845 01c8 282B     		cmp	r3, #40
ARM GAS  C:\Users\dtjld\AppData\Local\Temp\ccpI0fza.s 			page 64


 2846 01ca 13D8     		bhi	.L142
 2847              		.loc 1 752 0 is_stmt 0 discriminator 1
 2848 01cc 3B6A     		ldr	r3, [r7, #32]
 2849 01ce DB08     		lsrs	r3, r3, #3
 2850 01d0 BA69     		ldr	r2, [r7, #24]
 2851 01d2 1A44     		add	r2, r2, r3
 2852 01d4 927A     		ldrb	r2, [r2, #10]	@ zero_extendqisi2
 2853 01d6 51B2     		sxtb	r1, r2
 2854 01d8 3A6A     		ldr	r2, [r7, #32]
 2855 01da 02F00702 		and	r2, r2, #7
 2856 01de 0120     		movs	r0, #1
 2857 01e0 00FA02F2 		lsl	r2, r0, r2
 2858 01e4 52B2     		sxtb	r2, r2
 2859 01e6 0A43     		orrs	r2, r2, r1
 2860 01e8 52B2     		sxtb	r2, r2
 2861 01ea D1B2     		uxtb	r1, r2
 2862 01ec BA69     		ldr	r2, [r7, #24]
 2863 01ee 1344     		add	r3, r3, r2
 2864 01f0 0A46     		mov	r2, r1
 2865 01f2 9A72     		strb	r2, [r3, #10]
 2866              	.L142:
 753:C:/Users/dtjld/Desktop/AIoT_software/LiteOS_Lab_overseas/LiteOS_Lab/iot_link/network/lwm2m/wakaama_lwm2m/core/er-coap-13\er-coap-13.c **** 
 754:C:/Users/dtjld/Desktop/AIoT_software/LiteOS_Lab_overseas/LiteOS_Lab/iot_link/network/lwm2m/wakaama_lwm2m/core/er-coap-13\er-coap-13.c ****         switch (option_number)
 2867              		.loc 1 754 0 is_stmt 1
 2868 01f4 3B6A     		ldr	r3, [r7, #32]
 2869 01f6 013B     		subs	r3, r3, #1
 2870 01f8 222B     		cmp	r3, #34
 2871 01fa 00F26281 		bhi	.L143
 2872 01fe 01A2     		adr	r2, .L145
 2873 0200 52F823F0 		ldr	pc, [r2, r3, lsl #2]
 2874              		.p2align 2
 2875              	.L145:
 2876 0204 1F030000 		.word	.L144+1
 2877 0208 C3040000 		.word	.L143+1
 2878 020c 5D030000 		.word	.L146+1
 2879 0210 B7020000 		.word	.L147+1
 2880 0214 49030000 		.word	.L148+1
 2881 0218 E7030000 		.word	.L149+1
 2882 021c 6B030000 		.word	.L150+1
 2883 0220 A3030000 		.word	.L151+1
 2884 0224 C3040000 		.word	.L143+1
 2885 0228 C3040000 		.word	.L143+1
 2886 022c 7F030000 		.word	.L152+1
 2887 0230 91020000 		.word	.L153+1
 2888 0234 C3040000 		.word	.L143+1
 2889 0238 A5020000 		.word	.L154+1
 2890 023c 91030000 		.word	.L155+1
 2891 0240 C3040000 		.word	.L143+1
 2892 0244 E1020000 		.word	.L156+1
 2893 0248 C3040000 		.word	.L143+1
 2894 024c C3040000 		.word	.L143+1
 2895 0250 B5030000 		.word	.L157+1
 2896 0254 C3040000 		.word	.L143+1
 2897 0258 C3040000 		.word	.L143+1
 2898 025c F9030000 		.word	.L158+1
 2899 0260 C3040000 		.word	.L143+1
 2900 0264 C3040000 		.word	.L143+1
ARM GAS  C:\Users\dtjld\AppData\Local\Temp\ccpI0fza.s 			page 65


 2901 0268 C3040000 		.word	.L143+1
 2902 026c 55040000 		.word	.L159+1
 2903 0270 B1040000 		.word	.L160+1
 2904 0274 C3040000 		.word	.L143+1
 2905 0278 C3040000 		.word	.L143+1
 2906 027c C3040000 		.word	.L143+1
 2907 0280 C3040000 		.word	.L143+1
 2908 0284 C3040000 		.word	.L143+1
 2909 0288 C3040000 		.word	.L143+1
 2910 028c D1030000 		.word	.L161+1
 2911              		.p2align 1
 2912              	.L153:
 755:C:/Users/dtjld/Desktop/AIoT_software/LiteOS_Lab_overseas/LiteOS_Lab/iot_link/network/lwm2m/wakaama_lwm2m/core/er-coap-13\er-coap-13.c ****         {
 756:C:/Users/dtjld/Desktop/AIoT_software/LiteOS_Lab_overseas/LiteOS_Lab/iot_link/network/lwm2m/wakaama_lwm2m/core/er-coap-13\er-coap-13.c ****         case COAP_OPTION_CONTENT_TYPE:
 757:C:/Users/dtjld/Desktop/AIoT_software/LiteOS_Lab_overseas/LiteOS_Lab/iot_link/network/lwm2m/wakaama_lwm2m/core/er-coap-13\er-coap-13.c ****             coap_pkt->content_type = (coap_content_type_t)coap_parse_int_option(current_option, opt
 2913              		.loc 1 757 0
 2914 0290 3B69     		ldr	r3, [r7, #16]
 2915 0292 1946     		mov	r1, r3
 2916 0294 786A     		ldr	r0, [r7, #36]
 2917 0296 FFF7FEFF 		bl	coap_parse_int_option
 2918 029a 0346     		mov	r3, r0
 2919 029c 9AB2     		uxth	r2, r3
 2920 029e BB69     		ldr	r3, [r7, #24]
 2921 02a0 1A82     		strh	r2, [r3, #16]	@ movhi
 758:C:/Users/dtjld/Desktop/AIoT_software/LiteOS_Lab_overseas/LiteOS_Lab/iot_link/network/lwm2m/wakaama_lwm2m/core/er-coap-13\er-coap-13.c ****             PRINTF("Content-Format [%u]\n", coap_pkt->content_type);
 759:C:/Users/dtjld/Desktop/AIoT_software/LiteOS_Lab_overseas/LiteOS_Lab/iot_link/network/lwm2m/wakaama_lwm2m/core/er-coap-13\er-coap-13.c ****             break;
 2922              		.loc 1 759 0
 2923 02a2 19E1     		b	.L162
 2924              	.L154:
 760:C:/Users/dtjld/Desktop/AIoT_software/LiteOS_Lab_overseas/LiteOS_Lab/iot_link/network/lwm2m/wakaama_lwm2m/core/er-coap-13\er-coap-13.c ****         case COAP_OPTION_MAX_AGE:
 761:C:/Users/dtjld/Desktop/AIoT_software/LiteOS_Lab_overseas/LiteOS_Lab/iot_link/network/lwm2m/wakaama_lwm2m/core/er-coap-13\er-coap-13.c ****             coap_pkt->max_age = coap_parse_int_option(current_option, option_length);
 2925              		.loc 1 761 0
 2926 02a4 3B69     		ldr	r3, [r7, #16]
 2927 02a6 1946     		mov	r1, r3
 2928 02a8 786A     		ldr	r0, [r7, #36]
 2929 02aa FFF7FEFF 		bl	coap_parse_int_option
 2930 02ae 0246     		mov	r2, r0
 2931 02b0 BB69     		ldr	r3, [r7, #24]
 2932 02b2 5A61     		str	r2, [r3, #20]
 762:C:/Users/dtjld/Desktop/AIoT_software/LiteOS_Lab_overseas/LiteOS_Lab/iot_link/network/lwm2m/wakaama_lwm2m/core/er-coap-13\er-coap-13.c ****             PRINTF("Max-Age [%lu]\n", coap_pkt->max_age);
 763:C:/Users/dtjld/Desktop/AIoT_software/LiteOS_Lab_overseas/LiteOS_Lab/iot_link/network/lwm2m/wakaama_lwm2m/core/er-coap-13\er-coap-13.c ****             break;
 2933              		.loc 1 763 0
 2934 02b4 10E1     		b	.L162
 2935              	.L147:
 764:C:/Users/dtjld/Desktop/AIoT_software/LiteOS_Lab_overseas/LiteOS_Lab/iot_link/network/lwm2m/wakaama_lwm2m/core/er-coap-13\er-coap-13.c ****         case COAP_OPTION_ETAG:
 765:C:/Users/dtjld/Desktop/AIoT_software/LiteOS_Lab_overseas/LiteOS_Lab/iot_link/network/lwm2m/wakaama_lwm2m/core/er-coap-13\er-coap-13.c ****             coap_pkt->etag_len = (uint8_t)(MIN(COAP_ETAG_LEN, option_length));
 2936              		.loc 1 765 0
 2937 02b6 3B69     		ldr	r3, [r7, #16]
 2938 02b8 082B     		cmp	r3, #8
 2939 02ba 02D8     		bhi	.L163
 2940              		.loc 1 765 0 is_stmt 0 discriminator 1
 2941 02bc 3B69     		ldr	r3, [r7, #16]
 2942 02be DAB2     		uxtb	r2, r3
 2943 02c0 00E0     		b	.L164
 2944              	.L163:
 2945              		.loc 1 765 0 discriminator 2
 2946 02c2 0822     		movs	r2, #8
ARM GAS  C:\Users\dtjld\AppData\Local\Temp\ccpI0fza.s 			page 66


 2947              	.L164:
 2948              		.loc 1 765 0 discriminator 4
 2949 02c4 BB69     		ldr	r3, [r7, #24]
 2950 02c6 83F82020 		strb	r2, [r3, #32]
 766:C:/Users/dtjld/Desktop/AIoT_software/LiteOS_Lab_overseas/LiteOS_Lab/iot_link/network/lwm2m/wakaama_lwm2m/core/er-coap-13\er-coap-13.c ****             memcpy(coap_pkt->etag, current_option, coap_pkt->etag_len);
 2951              		.loc 1 766 0 is_stmt 1 discriminator 4
 2952 02ca BB69     		ldr	r3, [r7, #24]
 2953 02cc 03F12100 		add	r0, r3, #33
 2954 02d0 BB69     		ldr	r3, [r7, #24]
 2955 02d2 93F82030 		ldrb	r3, [r3, #32]	@ zero_extendqisi2
 2956 02d6 1A46     		mov	r2, r3
 2957 02d8 796A     		ldr	r1, [r7, #36]
 2958 02da FFF7FEFF 		bl	memcpy
 767:C:/Users/dtjld/Desktop/AIoT_software/LiteOS_Lab_overseas/LiteOS_Lab/iot_link/network/lwm2m/wakaama_lwm2m/core/er-coap-13\er-coap-13.c ****             PRINTF("ETag %u [0x%02X%02X%02X%02X%02X%02X%02X%02X]\n", coap_pkt->etag_len,
 768:C:/Users/dtjld/Desktop/AIoT_software/LiteOS_Lab_overseas/LiteOS_Lab/iot_link/network/lwm2m/wakaama_lwm2m/core/er-coap-13\er-coap-13.c ****                    coap_pkt->etag[0],
 769:C:/Users/dtjld/Desktop/AIoT_software/LiteOS_Lab_overseas/LiteOS_Lab/iot_link/network/lwm2m/wakaama_lwm2m/core/er-coap-13\er-coap-13.c ****                    coap_pkt->etag[1],
 770:C:/Users/dtjld/Desktop/AIoT_software/LiteOS_Lab_overseas/LiteOS_Lab/iot_link/network/lwm2m/wakaama_lwm2m/core/er-coap-13\er-coap-13.c ****                    coap_pkt->etag[2],
 771:C:/Users/dtjld/Desktop/AIoT_software/LiteOS_Lab_overseas/LiteOS_Lab/iot_link/network/lwm2m/wakaama_lwm2m/core/er-coap-13\er-coap-13.c ****                    coap_pkt->etag[3],
 772:C:/Users/dtjld/Desktop/AIoT_software/LiteOS_Lab_overseas/LiteOS_Lab/iot_link/network/lwm2m/wakaama_lwm2m/core/er-coap-13\er-coap-13.c ****                    coap_pkt->etag[4],
 773:C:/Users/dtjld/Desktop/AIoT_software/LiteOS_Lab_overseas/LiteOS_Lab/iot_link/network/lwm2m/wakaama_lwm2m/core/er-coap-13\er-coap-13.c ****                    coap_pkt->etag[5],
 774:C:/Users/dtjld/Desktop/AIoT_software/LiteOS_Lab_overseas/LiteOS_Lab/iot_link/network/lwm2m/wakaama_lwm2m/core/er-coap-13\er-coap-13.c ****                    coap_pkt->etag[6],
 775:C:/Users/dtjld/Desktop/AIoT_software/LiteOS_Lab_overseas/LiteOS_Lab/iot_link/network/lwm2m/wakaama_lwm2m/core/er-coap-13\er-coap-13.c ****                    coap_pkt->etag[7]
 776:C:/Users/dtjld/Desktop/AIoT_software/LiteOS_Lab_overseas/LiteOS_Lab/iot_link/network/lwm2m/wakaama_lwm2m/core/er-coap-13\er-coap-13.c ****                   ); /*FIXME always prints 8 bytes */
 777:C:/Users/dtjld/Desktop/AIoT_software/LiteOS_Lab_overseas/LiteOS_Lab/iot_link/network/lwm2m/wakaama_lwm2m/core/er-coap-13\er-coap-13.c ****             break;
 2959              		.loc 1 777 0 discriminator 4
 2960 02de FBE0     		b	.L162
 2961              	.L156:
 778:C:/Users/dtjld/Desktop/AIoT_software/LiteOS_Lab_overseas/LiteOS_Lab/iot_link/network/lwm2m/wakaama_lwm2m/core/er-coap-13\er-coap-13.c ****         case COAP_OPTION_ACCEPT:
 779:C:/Users/dtjld/Desktop/AIoT_software/LiteOS_Lab_overseas/LiteOS_Lab/iot_link/network/lwm2m/wakaama_lwm2m/core/er-coap-13\er-coap-13.c ****             if (coap_pkt->accept_num < COAP_MAX_ACCEPT_NUM)
 2962              		.loc 1 779 0
 2963 02e0 BB69     		ldr	r3, [r7, #24]
 2964 02e2 93F85530 		ldrb	r3, [r3, #85]	@ zero_extendqisi2
 2965 02e6 012B     		cmp	r3, #1
 2966 02e8 00F2F580 		bhi	.L170
 780:C:/Users/dtjld/Desktop/AIoT_software/LiteOS_Lab_overseas/LiteOS_Lab/iot_link/network/lwm2m/wakaama_lwm2m/core/er-coap-13\er-coap-13.c ****             {
 781:C:/Users/dtjld/Desktop/AIoT_software/LiteOS_Lab_overseas/LiteOS_Lab/iot_link/network/lwm2m/wakaama_lwm2m/core/er-coap-13\er-coap-13.c ****                 coap_pkt->accept[coap_pkt->accept_num] = coap_parse_int_option(current_option, opti
 2967              		.loc 1 781 0
 2968 02ec 3B69     		ldr	r3, [r7, #16]
 2969 02ee 1946     		mov	r1, r3
 2970 02f0 786A     		ldr	r0, [r7, #36]
 2971 02f2 FFF7FEFF 		bl	coap_parse_int_option
 2972 02f6 0246     		mov	r2, r0
 2973 02f8 BB69     		ldr	r3, [r7, #24]
 2974 02fa 93F85530 		ldrb	r3, [r3, #85]	@ zero_extendqisi2
 2975 02fe 91B2     		uxth	r1, r2
 2976 0300 BA69     		ldr	r2, [r7, #24]
 2977 0302 2833     		adds	r3, r3, #40
 2978 0304 5B00     		lsls	r3, r3, #1
 2979 0306 1344     		add	r3, r3, r2
 2980 0308 0A46     		mov	r2, r1	@ movhi
 2981 030a DA80     		strh	r2, [r3, #6]	@ movhi
 782:C:/Users/dtjld/Desktop/AIoT_software/LiteOS_Lab_overseas/LiteOS_Lab/iot_link/network/lwm2m/wakaama_lwm2m/core/er-coap-13\er-coap-13.c ****                 coap_pkt->accept_num += 1;
 2982              		.loc 1 782 0
 2983 030c BB69     		ldr	r3, [r7, #24]
 2984 030e 93F85530 		ldrb	r3, [r3, #85]	@ zero_extendqisi2
 2985 0312 0133     		adds	r3, r3, #1
 2986 0314 DAB2     		uxtb	r2, r3
ARM GAS  C:\Users\dtjld\AppData\Local\Temp\ccpI0fza.s 			page 67


 2987 0316 BB69     		ldr	r3, [r7, #24]
 2988 0318 83F85520 		strb	r2, [r3, #85]
 783:C:/Users/dtjld/Desktop/AIoT_software/LiteOS_Lab_overseas/LiteOS_Lab/iot_link/network/lwm2m/wakaama_lwm2m/core/er-coap-13\er-coap-13.c ****                 PRINTF("Accept [%u]\n", coap_pkt->content_type);
 784:C:/Users/dtjld/Desktop/AIoT_software/LiteOS_Lab_overseas/LiteOS_Lab/iot_link/network/lwm2m/wakaama_lwm2m/core/er-coap-13\er-coap-13.c ****             }
 785:C:/Users/dtjld/Desktop/AIoT_software/LiteOS_Lab_overseas/LiteOS_Lab/iot_link/network/lwm2m/wakaama_lwm2m/core/er-coap-13\er-coap-13.c ****             break;
 2989              		.loc 1 785 0
 2990 031c DBE0     		b	.L170
 2991              	.L144:
 786:C:/Users/dtjld/Desktop/AIoT_software/LiteOS_Lab_overseas/LiteOS_Lab/iot_link/network/lwm2m/wakaama_lwm2m/core/er-coap-13\er-coap-13.c ****         case COAP_OPTION_IF_MATCH:
 787:C:/Users/dtjld/Desktop/AIoT_software/LiteOS_Lab_overseas/LiteOS_Lab/iot_link/network/lwm2m/wakaama_lwm2m/core/er-coap-13\er-coap-13.c ****             /*FIXME support multiple ETags */
 788:C:/Users/dtjld/Desktop/AIoT_software/LiteOS_Lab_overseas/LiteOS_Lab/iot_link/network/lwm2m/wakaama_lwm2m/core/er-coap-13\er-coap-13.c ****             coap_pkt->if_match_len = (uint8_t)(MIN(COAP_ETAG_LEN, option_length));
 2992              		.loc 1 788 0
 2993 031e 3B69     		ldr	r3, [r7, #16]
 2994 0320 082B     		cmp	r3, #8
 2995 0322 02D8     		bhi	.L166
 2996              		.loc 1 788 0 is_stmt 0 discriminator 1
 2997 0324 3B69     		ldr	r3, [r7, #16]
 2998 0326 DAB2     		uxtb	r2, r3
 2999 0328 00E0     		b	.L167
 3000              	.L166:
 3001              		.loc 1 788 0 discriminator 2
 3002 032a 0822     		movs	r2, #8
 3003              	.L167:
 3004              		.loc 1 788 0 discriminator 4
 3005 032c BB69     		ldr	r3, [r7, #24]
 3006 032e 83F85A20 		strb	r2, [r3, #90]
 789:C:/Users/dtjld/Desktop/AIoT_software/LiteOS_Lab_overseas/LiteOS_Lab/iot_link/network/lwm2m/wakaama_lwm2m/core/er-coap-13\er-coap-13.c ****             memcpy(coap_pkt->if_match, current_option, coap_pkt->if_match_len);
 3007              		.loc 1 789 0 is_stmt 1 discriminator 4
 3008 0332 BB69     		ldr	r3, [r7, #24]
 3009 0334 03F15B00 		add	r0, r3, #91
 3010 0338 BB69     		ldr	r3, [r7, #24]
 3011 033a 93F85A30 		ldrb	r3, [r3, #90]	@ zero_extendqisi2
 3012 033e 1A46     		mov	r2, r3
 3013 0340 796A     		ldr	r1, [r7, #36]
 3014 0342 FFF7FEFF 		bl	memcpy
 790:C:/Users/dtjld/Desktop/AIoT_software/LiteOS_Lab_overseas/LiteOS_Lab/iot_link/network/lwm2m/wakaama_lwm2m/core/er-coap-13\er-coap-13.c ****             PRINTF("If-Match %u [0x%02X%02X%02X%02X%02X%02X%02X%02X]\n", coap_pkt->if_match_len,
 791:C:/Users/dtjld/Desktop/AIoT_software/LiteOS_Lab_overseas/LiteOS_Lab/iot_link/network/lwm2m/wakaama_lwm2m/core/er-coap-13\er-coap-13.c ****                    coap_pkt->if_match[0],
 792:C:/Users/dtjld/Desktop/AIoT_software/LiteOS_Lab_overseas/LiteOS_Lab/iot_link/network/lwm2m/wakaama_lwm2m/core/er-coap-13\er-coap-13.c ****                    coap_pkt->if_match[1],
 793:C:/Users/dtjld/Desktop/AIoT_software/LiteOS_Lab_overseas/LiteOS_Lab/iot_link/network/lwm2m/wakaama_lwm2m/core/er-coap-13\er-coap-13.c ****                    coap_pkt->if_match[2],
 794:C:/Users/dtjld/Desktop/AIoT_software/LiteOS_Lab_overseas/LiteOS_Lab/iot_link/network/lwm2m/wakaama_lwm2m/core/er-coap-13\er-coap-13.c ****                    coap_pkt->if_match[3],
 795:C:/Users/dtjld/Desktop/AIoT_software/LiteOS_Lab_overseas/LiteOS_Lab/iot_link/network/lwm2m/wakaama_lwm2m/core/er-coap-13\er-coap-13.c ****                    coap_pkt->if_match[4],
 796:C:/Users/dtjld/Desktop/AIoT_software/LiteOS_Lab_overseas/LiteOS_Lab/iot_link/network/lwm2m/wakaama_lwm2m/core/er-coap-13\er-coap-13.c ****                    coap_pkt->if_match[5],
 797:C:/Users/dtjld/Desktop/AIoT_software/LiteOS_Lab_overseas/LiteOS_Lab/iot_link/network/lwm2m/wakaama_lwm2m/core/er-coap-13\er-coap-13.c ****                    coap_pkt->if_match[6],
 798:C:/Users/dtjld/Desktop/AIoT_software/LiteOS_Lab_overseas/LiteOS_Lab/iot_link/network/lwm2m/wakaama_lwm2m/core/er-coap-13\er-coap-13.c ****                    coap_pkt->if_match[7]
 799:C:/Users/dtjld/Desktop/AIoT_software/LiteOS_Lab_overseas/LiteOS_Lab/iot_link/network/lwm2m/wakaama_lwm2m/core/er-coap-13\er-coap-13.c ****                   ); /*FIXME always prints 8 bytes */
 800:C:/Users/dtjld/Desktop/AIoT_software/LiteOS_Lab_overseas/LiteOS_Lab/iot_link/network/lwm2m/wakaama_lwm2m/core/er-coap-13\er-coap-13.c ****             break;
 3015              		.loc 1 800 0 discriminator 4
 3016 0346 C7E0     		b	.L162
 3017              	.L148:
 801:C:/Users/dtjld/Desktop/AIoT_software/LiteOS_Lab_overseas/LiteOS_Lab/iot_link/network/lwm2m/wakaama_lwm2m/core/er-coap-13\er-coap-13.c ****         case COAP_OPTION_IF_NONE_MATCH:
 802:C:/Users/dtjld/Desktop/AIoT_software/LiteOS_Lab_overseas/LiteOS_Lab/iot_link/network/lwm2m/wakaama_lwm2m/core/er-coap-13\er-coap-13.c ****             coap_pkt->if_none_match = 1;
 3018              		.loc 1 802 0
 3019 0348 BB69     		ldr	r3, [r7, #24]
 3020 034a 0122     		movs	r2, #1
 3021 034c 83F88420 		strb	r2, [r3, #132]
 803:C:/Users/dtjld/Desktop/AIoT_software/LiteOS_Lab_overseas/LiteOS_Lab/iot_link/network/lwm2m/wakaama_lwm2m/core/er-coap-13\er-coap-13.c ****             PRINTF("If-None-Match\n");
 804:C:/Users/dtjld/Desktop/AIoT_software/LiteOS_Lab_overseas/LiteOS_Lab/iot_link/network/lwm2m/wakaama_lwm2m/core/er-coap-13\er-coap-13.c ****             break;
ARM GAS  C:\Users\dtjld\AppData\Local\Temp\ccpI0fza.s 			page 68


 3022              		.loc 1 804 0
 3023 0350 C2E0     		b	.L162
 3024              	.L172:
 3025 0352 00BF     		.align	2
 3026              	.L171:
 3027 0354 00000000 		.word	coap_error_message
 3028 0358 04000000 		.word	.LC1
 3029              	.L146:
 805:C:/Users/dtjld/Desktop/AIoT_software/LiteOS_Lab_overseas/LiteOS_Lab/iot_link/network/lwm2m/wakaama_lwm2m/core/er-coap-13\er-coap-13.c **** 
 806:C:/Users/dtjld/Desktop/AIoT_software/LiteOS_Lab_overseas/LiteOS_Lab/iot_link/network/lwm2m/wakaama_lwm2m/core/er-coap-13\er-coap-13.c ****         case COAP_OPTION_URI_HOST:
 807:C:/Users/dtjld/Desktop/AIoT_software/LiteOS_Lab_overseas/LiteOS_Lab/iot_link/network/lwm2m/wakaama_lwm2m/core/er-coap-13\er-coap-13.c ****             coap_pkt->uri_host = current_option;
 3030              		.loc 1 807 0
 3031 035c BB69     		ldr	r3, [r7, #24]
 3032 035e 7A6A     		ldr	r2, [r7, #36]
 3033 0360 1A63     		str	r2, [r3, #48]
 808:C:/Users/dtjld/Desktop/AIoT_software/LiteOS_Lab_overseas/LiteOS_Lab/iot_link/network/lwm2m/wakaama_lwm2m/core/er-coap-13\er-coap-13.c ****             coap_pkt->uri_host_len = option_length;
 3034              		.loc 1 808 0
 3035 0362 3A69     		ldr	r2, [r7, #16]
 3036 0364 BB69     		ldr	r3, [r7, #24]
 3037 0366 DA62     		str	r2, [r3, #44]
 809:C:/Users/dtjld/Desktop/AIoT_software/LiteOS_Lab_overseas/LiteOS_Lab/iot_link/network/lwm2m/wakaama_lwm2m/core/er-coap-13\er-coap-13.c ****             PRINTF("Uri-Host [%.*s]\n", coap_pkt->uri_host_len, coap_pkt->uri_host);
 810:C:/Users/dtjld/Desktop/AIoT_software/LiteOS_Lab_overseas/LiteOS_Lab/iot_link/network/lwm2m/wakaama_lwm2m/core/er-coap-13\er-coap-13.c ****             break;
 3038              		.loc 1 810 0
 3039 0368 B6E0     		b	.L162
 3040              	.L150:
 811:C:/Users/dtjld/Desktop/AIoT_software/LiteOS_Lab_overseas/LiteOS_Lab/iot_link/network/lwm2m/wakaama_lwm2m/core/er-coap-13\er-coap-13.c ****         case COAP_OPTION_URI_PORT:
 812:C:/Users/dtjld/Desktop/AIoT_software/LiteOS_Lab_overseas/LiteOS_Lab/iot_link/network/lwm2m/wakaama_lwm2m/core/er-coap-13\er-coap-13.c ****             coap_pkt->uri_port = coap_parse_int_option(current_option, option_length);
 3041              		.loc 1 812 0
 3042 036a 3B69     		ldr	r3, [r7, #16]
 3043 036c 1946     		mov	r1, r3
 3044 036e 786A     		ldr	r0, [r7, #36]
 3045 0370 FFF7FEFF 		bl	coap_parse_int_option
 3046 0374 0346     		mov	r3, r0
 3047 0376 9AB2     		uxth	r2, r3
 3048 0378 BB69     		ldr	r3, [r7, #24]
 3049 037a 1A87     		strh	r2, [r3, #56]	@ movhi
 813:C:/Users/dtjld/Desktop/AIoT_software/LiteOS_Lab_overseas/LiteOS_Lab/iot_link/network/lwm2m/wakaama_lwm2m/core/er-coap-13\er-coap-13.c ****             PRINTF("Uri-Port [%u]\n", coap_pkt->uri_port);
 814:C:/Users/dtjld/Desktop/AIoT_software/LiteOS_Lab_overseas/LiteOS_Lab/iot_link/network/lwm2m/wakaama_lwm2m/core/er-coap-13\er-coap-13.c ****             break;
 3050              		.loc 1 814 0
 3051 037c ACE0     		b	.L162
 3052              	.L152:
 815:C:/Users/dtjld/Desktop/AIoT_software/LiteOS_Lab_overseas/LiteOS_Lab/iot_link/network/lwm2m/wakaama_lwm2m/core/er-coap-13\er-coap-13.c ****         case COAP_OPTION_URI_PATH:
 816:C:/Users/dtjld/Desktop/AIoT_software/LiteOS_Lab_overseas/LiteOS_Lab/iot_link/network/lwm2m/wakaama_lwm2m/core/er-coap-13\er-coap-13.c ****             /* coap_merge_multi_option() operates in-place on the IPBUF, but final packet field sho
 817:C:/Users/dtjld/Desktop/AIoT_software/LiteOS_Lab_overseas/LiteOS_Lab/iot_link/network/lwm2m/wakaama_lwm2m/core/er-coap-13\er-coap-13.c ****             // coap_merge_multi_option( (char **) &(coap_pkt->uri_path), &(coap_pkt->uri_path_len),
 818:C:/Users/dtjld/Desktop/AIoT_software/LiteOS_Lab_overseas/LiteOS_Lab/iot_link/network/lwm2m/wakaama_lwm2m/core/er-coap-13\er-coap-13.c ****             coap_add_multi_option( &(coap_pkt->uri_path), current_option, option_length, 1);
 3053              		.loc 1 818 0
 3054 037e BB69     		ldr	r3, [r7, #24]
 3055 0380 03F14400 		add	r0, r3, #68
 3056 0384 3A69     		ldr	r2, [r7, #16]
 3057 0386 0123     		movs	r3, #1
 3058 0388 796A     		ldr	r1, [r7, #36]
 3059 038a FFF7FEFF 		bl	coap_add_multi_option
 819:C:/Users/dtjld/Desktop/AIoT_software/LiteOS_Lab_overseas/LiteOS_Lab/iot_link/network/lwm2m/wakaama_lwm2m/core/er-coap-13\er-coap-13.c ****             PRINTF("Uri-Path [%.*s]\n", option_length, current_option);
 820:C:/Users/dtjld/Desktop/AIoT_software/LiteOS_Lab_overseas/LiteOS_Lab/iot_link/network/lwm2m/wakaama_lwm2m/core/er-coap-13\er-coap-13.c ****             break;
 3060              		.loc 1 820 0
 3061 038e A3E0     		b	.L162
 3062              	.L155:
ARM GAS  C:\Users\dtjld\AppData\Local\Temp\ccpI0fza.s 			page 69


 821:C:/Users/dtjld/Desktop/AIoT_software/LiteOS_Lab_overseas/LiteOS_Lab/iot_link/network/lwm2m/wakaama_lwm2m/core/er-coap-13\er-coap-13.c ****         case COAP_OPTION_URI_QUERY:
 822:C:/Users/dtjld/Desktop/AIoT_software/LiteOS_Lab_overseas/LiteOS_Lab/iot_link/network/lwm2m/wakaama_lwm2m/core/er-coap-13\er-coap-13.c ****             /* coap_merge_multi_option() operates in-place on the IPBUF, but final packet field sho
 823:C:/Users/dtjld/Desktop/AIoT_software/LiteOS_Lab_overseas/LiteOS_Lab/iot_link/network/lwm2m/wakaama_lwm2m/core/er-coap-13\er-coap-13.c ****             // coap_merge_multi_option( (char **) &(coap_pkt->uri_query), &(coap_pkt->uri_query_len
 824:C:/Users/dtjld/Desktop/AIoT_software/LiteOS_Lab_overseas/LiteOS_Lab/iot_link/network/lwm2m/wakaama_lwm2m/core/er-coap-13\er-coap-13.c ****             coap_add_multi_option( &(coap_pkt->uri_query), current_option, option_length, 1);
 3063              		.loc 1 824 0
 3064 0390 BB69     		ldr	r3, [r7, #24]
 3065 0392 03F18000 		add	r0, r3, #128
 3066 0396 3A69     		ldr	r2, [r7, #16]
 3067 0398 0123     		movs	r3, #1
 3068 039a 796A     		ldr	r1, [r7, #36]
 3069 039c FFF7FEFF 		bl	coap_add_multi_option
 825:C:/Users/dtjld/Desktop/AIoT_software/LiteOS_Lab_overseas/LiteOS_Lab/iot_link/network/lwm2m/wakaama_lwm2m/core/er-coap-13\er-coap-13.c ****             PRINTF("Uri-Query [%.*s]\n", option_length, current_option);
 826:C:/Users/dtjld/Desktop/AIoT_software/LiteOS_Lab_overseas/LiteOS_Lab/iot_link/network/lwm2m/wakaama_lwm2m/core/er-coap-13\er-coap-13.c ****             break;
 3070              		.loc 1 826 0
 3071 03a0 9AE0     		b	.L162
 3072              	.L151:
 827:C:/Users/dtjld/Desktop/AIoT_software/LiteOS_Lab_overseas/LiteOS_Lab/iot_link/network/lwm2m/wakaama_lwm2m/core/er-coap-13\er-coap-13.c **** 
 828:C:/Users/dtjld/Desktop/AIoT_software/LiteOS_Lab_overseas/LiteOS_Lab/iot_link/network/lwm2m/wakaama_lwm2m/core/er-coap-13\er-coap-13.c ****         case COAP_OPTION_LOCATION_PATH:
 829:C:/Users/dtjld/Desktop/AIoT_software/LiteOS_Lab_overseas/LiteOS_Lab/iot_link/network/lwm2m/wakaama_lwm2m/core/er-coap-13\er-coap-13.c ****             coap_add_multi_option( &(coap_pkt->location_path), current_option, option_length, 1);
 3073              		.loc 1 829 0
 3074 03a2 BB69     		ldr	r3, [r7, #24]
 3075 03a4 03F13400 		add	r0, r3, #52
 3076 03a8 3A69     		ldr	r2, [r7, #16]
 3077 03aa 0123     		movs	r3, #1
 3078 03ac 796A     		ldr	r1, [r7, #36]
 3079 03ae FFF7FEFF 		bl	coap_add_multi_option
 830:C:/Users/dtjld/Desktop/AIoT_software/LiteOS_Lab_overseas/LiteOS_Lab/iot_link/network/lwm2m/wakaama_lwm2m/core/er-coap-13\er-coap-13.c ****             break;
 3080              		.loc 1 830 0
 3081 03b2 91E0     		b	.L162
 3082              	.L157:
 831:C:/Users/dtjld/Desktop/AIoT_software/LiteOS_Lab_overseas/LiteOS_Lab/iot_link/network/lwm2m/wakaama_lwm2m/core/er-coap-13\er-coap-13.c ****         case COAP_OPTION_LOCATION_QUERY:
 832:C:/Users/dtjld/Desktop/AIoT_software/LiteOS_Lab_overseas/LiteOS_Lab/iot_link/network/lwm2m/wakaama_lwm2m/core/er-coap-13\er-coap-13.c ****             /* coap_merge_multi_option() operates in-place on the IPBUF, but final packet field sho
 833:C:/Users/dtjld/Desktop/AIoT_software/LiteOS_Lab_overseas/LiteOS_Lab/iot_link/network/lwm2m/wakaama_lwm2m/core/er-coap-13\er-coap-13.c ****             coap_merge_multi_option( &(coap_pkt->location_query), &(coap_pkt->location_query_len), 
 3083              		.loc 1 833 0
 3084 03b4 BB69     		ldr	r3, [r7, #24]
 3085 03b6 03F14000 		add	r0, r3, #64
 3086 03ba BB69     		ldr	r3, [r7, #24]
 3087 03bc 03F13C01 		add	r1, r3, #60
 3088 03c0 3A69     		ldr	r2, [r7, #16]
 3089 03c2 2623     		movs	r3, #38
 3090 03c4 0093     		str	r3, [sp]
 3091 03c6 1346     		mov	r3, r2
 3092 03c8 7A6A     		ldr	r2, [r7, #36]
 3093 03ca FFF7FEFF 		bl	coap_merge_multi_option
 834:C:/Users/dtjld/Desktop/AIoT_software/LiteOS_Lab_overseas/LiteOS_Lab/iot_link/network/lwm2m/wakaama_lwm2m/core/er-coap-13\er-coap-13.c ****             PRINTF("Location-Query [%.*s]\n", option_length, current_option);
 835:C:/Users/dtjld/Desktop/AIoT_software/LiteOS_Lab_overseas/LiteOS_Lab/iot_link/network/lwm2m/wakaama_lwm2m/core/er-coap-13\er-coap-13.c ****             break;
 3094              		.loc 1 835 0
 3095 03ce 83E0     		b	.L162
 3096              	.L161:
 836:C:/Users/dtjld/Desktop/AIoT_software/LiteOS_Lab_overseas/LiteOS_Lab/iot_link/network/lwm2m/wakaama_lwm2m/core/er-coap-13\er-coap-13.c **** 
 837:C:/Users/dtjld/Desktop/AIoT_software/LiteOS_Lab_overseas/LiteOS_Lab/iot_link/network/lwm2m/wakaama_lwm2m/core/er-coap-13\er-coap-13.c ****         case COAP_OPTION_PROXY_URI:
 838:C:/Users/dtjld/Desktop/AIoT_software/LiteOS_Lab_overseas/LiteOS_Lab/iot_link/network/lwm2m/wakaama_lwm2m/core/er-coap-13\er-coap-13.c ****             /*FIXME check for own end-point */
 839:C:/Users/dtjld/Desktop/AIoT_software/LiteOS_Lab_overseas/LiteOS_Lab/iot_link/network/lwm2m/wakaama_lwm2m/core/er-coap-13\er-coap-13.c ****             coap_pkt->proxy_uri = current_option;
 3097              		.loc 1 839 0
 3098 03d0 BB69     		ldr	r3, [r7, #24]
 3099 03d2 7A6A     		ldr	r2, [r7, #36]
 3100 03d4 DA61     		str	r2, [r3, #28]
ARM GAS  C:\Users\dtjld\AppData\Local\Temp\ccpI0fza.s 			page 70


 840:C:/Users/dtjld/Desktop/AIoT_software/LiteOS_Lab_overseas/LiteOS_Lab/iot_link/network/lwm2m/wakaama_lwm2m/core/er-coap-13\er-coap-13.c ****             coap_pkt->proxy_uri_len = option_length;
 3101              		.loc 1 840 0
 3102 03d6 3A69     		ldr	r2, [r7, #16]
 3103 03d8 BB69     		ldr	r3, [r7, #24]
 3104 03da 9A61     		str	r2, [r3, #24]
 841:C:/Users/dtjld/Desktop/AIoT_software/LiteOS_Lab_overseas/LiteOS_Lab/iot_link/network/lwm2m/wakaama_lwm2m/core/er-coap-13\er-coap-13.c ****             /*TODO length > 270 not implemented (actually not required) */
 842:C:/Users/dtjld/Desktop/AIoT_software/LiteOS_Lab_overseas/LiteOS_Lab/iot_link/network/lwm2m/wakaama_lwm2m/core/er-coap-13\er-coap-13.c ****             PRINTF("Proxy-Uri NOT IMPLEMENTED [%.*s]\n", coap_pkt->proxy_uri_len, coap_pkt->proxy_u
 843:C:/Users/dtjld/Desktop/AIoT_software/LiteOS_Lab_overseas/LiteOS_Lab/iot_link/network/lwm2m/wakaama_lwm2m/core/er-coap-13\er-coap-13.c ****             coap_error_message = "This is a constrained server (Contiki)";
 3105              		.loc 1 843 0
 3106 03dc 464B     		ldr	r3, .L173
 3107 03de 474A     		ldr	r2, .L173+4
 3108 03e0 1A60     		str	r2, [r3]
 844:C:/Users/dtjld/Desktop/AIoT_software/LiteOS_Lab_overseas/LiteOS_Lab/iot_link/network/lwm2m/wakaama_lwm2m/core/er-coap-13\er-coap-13.c ****             return PROXYING_NOT_SUPPORTED_5_05;
 3109              		.loc 1 844 0
 3110 03e2 A523     		movs	r3, #165
 3111 03e4 84E0     		b	.L169
 3112              	.L149:
 845:C:/Users/dtjld/Desktop/AIoT_software/LiteOS_Lab_overseas/LiteOS_Lab/iot_link/network/lwm2m/wakaama_lwm2m/core/er-coap-13\er-coap-13.c ****         //        break;
 846:C:/Users/dtjld/Desktop/AIoT_software/LiteOS_Lab_overseas/LiteOS_Lab/iot_link/network/lwm2m/wakaama_lwm2m/core/er-coap-13\er-coap-13.c **** 
 847:C:/Users/dtjld/Desktop/AIoT_software/LiteOS_Lab_overseas/LiteOS_Lab/iot_link/network/lwm2m/wakaama_lwm2m/core/er-coap-13\er-coap-13.c ****         case COAP_OPTION_OBSERVE:
 848:C:/Users/dtjld/Desktop/AIoT_software/LiteOS_Lab_overseas/LiteOS_Lab/iot_link/network/lwm2m/wakaama_lwm2m/core/er-coap-13\er-coap-13.c ****             coap_pkt->observe = coap_parse_int_option(current_option, option_length);
 3113              		.loc 1 848 0
 3114 03e6 3B69     		ldr	r3, [r7, #16]
 3115 03e8 1946     		mov	r1, r3
 3116 03ea 786A     		ldr	r0, [r7, #36]
 3117 03ec FFF7FEFF 		bl	coap_parse_int_option
 3118 03f0 0246     		mov	r2, r0
 3119 03f2 BB69     		ldr	r3, [r7, #24]
 3120 03f4 9A64     		str	r2, [r3, #72]
 849:C:/Users/dtjld/Desktop/AIoT_software/LiteOS_Lab_overseas/LiteOS_Lab/iot_link/network/lwm2m/wakaama_lwm2m/core/er-coap-13\er-coap-13.c ****             PRINTF("Observe [%lu]\n", coap_pkt->observe);
 850:C:/Users/dtjld/Desktop/AIoT_software/LiteOS_Lab_overseas/LiteOS_Lab/iot_link/network/lwm2m/wakaama_lwm2m/core/er-coap-13\er-coap-13.c ****             break;
 3121              		.loc 1 850 0
 3122 03f6 6FE0     		b	.L162
 3123              	.L158:
 851:C:/Users/dtjld/Desktop/AIoT_software/LiteOS_Lab_overseas/LiteOS_Lab/iot_link/network/lwm2m/wakaama_lwm2m/core/er-coap-13\er-coap-13.c ****         case COAP_OPTION_BLOCK2:
 852:C:/Users/dtjld/Desktop/AIoT_software/LiteOS_Lab_overseas/LiteOS_Lab/iot_link/network/lwm2m/wakaama_lwm2m/core/er-coap-13\er-coap-13.c ****             coap_pkt->block2_num = coap_parse_int_option(current_option, option_length);
 3124              		.loc 1 852 0
 3125 03f8 3B69     		ldr	r3, [r7, #16]
 3126 03fa 1946     		mov	r1, r3
 3127 03fc 786A     		ldr	r0, [r7, #36]
 3128 03fe FFF7FEFF 		bl	coap_parse_int_option
 3129 0402 0246     		mov	r2, r0
 3130 0404 BB69     		ldr	r3, [r7, #24]
 3131 0406 5A66     		str	r2, [r3, #100]
 853:C:/Users/dtjld/Desktop/AIoT_software/LiteOS_Lab_overseas/LiteOS_Lab/iot_link/network/lwm2m/wakaama_lwm2m/core/er-coap-13\er-coap-13.c ****             coap_pkt->block2_more = (coap_pkt->block2_num & 0x08) >> 3;
 3132              		.loc 1 853 0
 3133 0408 BB69     		ldr	r3, [r7, #24]
 3134 040a 5B6E     		ldr	r3, [r3, #100]
 3135 040c DB08     		lsrs	r3, r3, #3
 3136 040e DBB2     		uxtb	r3, r3
 3137 0410 03F00103 		and	r3, r3, #1
 3138 0414 DAB2     		uxtb	r2, r3
 3139 0416 BB69     		ldr	r3, [r7, #24]
 3140 0418 83F86820 		strb	r2, [r3, #104]
 854:C:/Users/dtjld/Desktop/AIoT_software/LiteOS_Lab_overseas/LiteOS_Lab/iot_link/network/lwm2m/wakaama_lwm2m/core/er-coap-13\er-coap-13.c ****             coap_pkt->block2_size = 16 << (coap_pkt->block2_num & 0x07);
 3141              		.loc 1 854 0
 3142 041c BB69     		ldr	r3, [r7, #24]
ARM GAS  C:\Users\dtjld\AppData\Local\Temp\ccpI0fza.s 			page 71


 3143 041e 5B6E     		ldr	r3, [r3, #100]
 3144 0420 03F00703 		and	r3, r3, #7
 3145 0424 1022     		movs	r2, #16
 3146 0426 02FA03F3 		lsl	r3, r2, r3
 3147 042a 9AB2     		uxth	r2, r3
 3148 042c BB69     		ldr	r3, [r7, #24]
 3149 042e A3F86A20 		strh	r2, [r3, #106]	@ movhi
 855:C:/Users/dtjld/Desktop/AIoT_software/LiteOS_Lab_overseas/LiteOS_Lab/iot_link/network/lwm2m/wakaama_lwm2m/core/er-coap-13\er-coap-13.c ****             coap_pkt->block2_offset = (coap_pkt->block2_num & ~0x0000000F) << (coap_pkt->block2_num
 3150              		.loc 1 855 0
 3151 0432 BB69     		ldr	r3, [r7, #24]
 3152 0434 5B6E     		ldr	r3, [r3, #100]
 3153 0436 23F00F02 		bic	r2, r3, #15
 3154 043a BB69     		ldr	r3, [r7, #24]
 3155 043c 5B6E     		ldr	r3, [r3, #100]
 3156 043e 03F00703 		and	r3, r3, #7
 3157 0442 9A40     		lsls	r2, r2, r3
 3158 0444 BB69     		ldr	r3, [r7, #24]
 3159 0446 DA66     		str	r2, [r3, #108]
 856:C:/Users/dtjld/Desktop/AIoT_software/LiteOS_Lab_overseas/LiteOS_Lab/iot_link/network/lwm2m/wakaama_lwm2m/core/er-coap-13\er-coap-13.c ****             coap_pkt->block2_num >>= 4;
 3160              		.loc 1 856 0
 3161 0448 BB69     		ldr	r3, [r7, #24]
 3162 044a 5B6E     		ldr	r3, [r3, #100]
 3163 044c 1A09     		lsrs	r2, r3, #4
 3164 044e BB69     		ldr	r3, [r7, #24]
 3165 0450 5A66     		str	r2, [r3, #100]
 857:C:/Users/dtjld/Desktop/AIoT_software/LiteOS_Lab_overseas/LiteOS_Lab/iot_link/network/lwm2m/wakaama_lwm2m/core/er-coap-13\er-coap-13.c ****             PRINTF("Block2 [%lu%s (%u B/blk)]\n", coap_pkt->block2_num, coap_pkt->block2_more ? "+"
 858:C:/Users/dtjld/Desktop/AIoT_software/LiteOS_Lab_overseas/LiteOS_Lab/iot_link/network/lwm2m/wakaama_lwm2m/core/er-coap-13\er-coap-13.c ****             break;
 3166              		.loc 1 858 0
 3167 0452 41E0     		b	.L162
 3168              	.L159:
 859:C:/Users/dtjld/Desktop/AIoT_software/LiteOS_Lab_overseas/LiteOS_Lab/iot_link/network/lwm2m/wakaama_lwm2m/core/er-coap-13\er-coap-13.c ****         case COAP_OPTION_BLOCK1:
 860:C:/Users/dtjld/Desktop/AIoT_software/LiteOS_Lab_overseas/LiteOS_Lab/iot_link/network/lwm2m/wakaama_lwm2m/core/er-coap-13\er-coap-13.c ****             coap_pkt->block1_num = coap_parse_int_option(current_option, option_length);
 3169              		.loc 1 860 0
 3170 0454 3B69     		ldr	r3, [r7, #16]
 3171 0456 1946     		mov	r1, r3
 3172 0458 786A     		ldr	r0, [r7, #36]
 3173 045a FFF7FEFF 		bl	coap_parse_int_option
 3174 045e 0246     		mov	r2, r0
 3175 0460 BB69     		ldr	r3, [r7, #24]
 3176 0462 1A67     		str	r2, [r3, #112]
 861:C:/Users/dtjld/Desktop/AIoT_software/LiteOS_Lab_overseas/LiteOS_Lab/iot_link/network/lwm2m/wakaama_lwm2m/core/er-coap-13\er-coap-13.c ****             coap_pkt->block1_more = (coap_pkt->block1_num & 0x08) >> 3;
 3177              		.loc 1 861 0
 3178 0464 BB69     		ldr	r3, [r7, #24]
 3179 0466 1B6F     		ldr	r3, [r3, #112]
 3180 0468 DB08     		lsrs	r3, r3, #3
 3181 046a DBB2     		uxtb	r3, r3
 3182 046c 03F00103 		and	r3, r3, #1
 3183 0470 DAB2     		uxtb	r2, r3
 3184 0472 BB69     		ldr	r3, [r7, #24]
 3185 0474 83F87420 		strb	r2, [r3, #116]
 862:C:/Users/dtjld/Desktop/AIoT_software/LiteOS_Lab_overseas/LiteOS_Lab/iot_link/network/lwm2m/wakaama_lwm2m/core/er-coap-13\er-coap-13.c ****             coap_pkt->block1_size = 16 << (coap_pkt->block1_num & 0x07);
 3186              		.loc 1 862 0
 3187 0478 BB69     		ldr	r3, [r7, #24]
 3188 047a 1B6F     		ldr	r3, [r3, #112]
 3189 047c 03F00703 		and	r3, r3, #7
 3190 0480 1022     		movs	r2, #16
 3191 0482 02FA03F3 		lsl	r3, r2, r3
ARM GAS  C:\Users\dtjld\AppData\Local\Temp\ccpI0fza.s 			page 72


 3192 0486 9AB2     		uxth	r2, r3
 3193 0488 BB69     		ldr	r3, [r7, #24]
 3194 048a A3F87620 		strh	r2, [r3, #118]	@ movhi
 863:C:/Users/dtjld/Desktop/AIoT_software/LiteOS_Lab_overseas/LiteOS_Lab/iot_link/network/lwm2m/wakaama_lwm2m/core/er-coap-13\er-coap-13.c ****             coap_pkt->block1_offset = (coap_pkt->block1_num & ~0x0000000F) << (coap_pkt->block1_num
 3195              		.loc 1 863 0
 3196 048e BB69     		ldr	r3, [r7, #24]
 3197 0490 1B6F     		ldr	r3, [r3, #112]
 3198 0492 23F00F02 		bic	r2, r3, #15
 3199 0496 BB69     		ldr	r3, [r7, #24]
 3200 0498 1B6F     		ldr	r3, [r3, #112]
 3201 049a 03F00703 		and	r3, r3, #7
 3202 049e 9A40     		lsls	r2, r2, r3
 3203 04a0 BB69     		ldr	r3, [r7, #24]
 3204 04a2 9A67     		str	r2, [r3, #120]
 864:C:/Users/dtjld/Desktop/AIoT_software/LiteOS_Lab_overseas/LiteOS_Lab/iot_link/network/lwm2m/wakaama_lwm2m/core/er-coap-13\er-coap-13.c ****             coap_pkt->block1_num >>= 4;
 3205              		.loc 1 864 0
 3206 04a4 BB69     		ldr	r3, [r7, #24]
 3207 04a6 1B6F     		ldr	r3, [r3, #112]
 3208 04a8 1A09     		lsrs	r2, r3, #4
 3209 04aa BB69     		ldr	r3, [r7, #24]
 3210 04ac 1A67     		str	r2, [r3, #112]
 865:C:/Users/dtjld/Desktop/AIoT_software/LiteOS_Lab_overseas/LiteOS_Lab/iot_link/network/lwm2m/wakaama_lwm2m/core/er-coap-13\er-coap-13.c ****             PRINTF("Block1 [%lu%s (%u B/blk)]\n", coap_pkt->block1_num, coap_pkt->block1_more ? "+"
 866:C:/Users/dtjld/Desktop/AIoT_software/LiteOS_Lab_overseas/LiteOS_Lab/iot_link/network/lwm2m/wakaama_lwm2m/core/er-coap-13\er-coap-13.c ****             break;
 3211              		.loc 1 866 0
 3212 04ae 13E0     		b	.L162
 3213              	.L160:
 867:C:/Users/dtjld/Desktop/AIoT_software/LiteOS_Lab_overseas/LiteOS_Lab/iot_link/network/lwm2m/wakaama_lwm2m/core/er-coap-13\er-coap-13.c ****         case COAP_OPTION_SIZE:
 868:C:/Users/dtjld/Desktop/AIoT_software/LiteOS_Lab_overseas/LiteOS_Lab/iot_link/network/lwm2m/wakaama_lwm2m/core/er-coap-13\er-coap-13.c ****             coap_pkt->size = coap_parse_int_option(current_option, option_length);
 3214              		.loc 1 868 0
 3215 04b0 3B69     		ldr	r3, [r7, #16]
 3216 04b2 1946     		mov	r1, r3
 3217 04b4 786A     		ldr	r0, [r7, #36]
 3218 04b6 FFF7FEFF 		bl	coap_parse_int_option
 3219 04ba 0246     		mov	r2, r0
 3220 04bc BB69     		ldr	r3, [r7, #24]
 3221 04be DA67     		str	r2, [r3, #124]
 869:C:/Users/dtjld/Desktop/AIoT_software/LiteOS_Lab_overseas/LiteOS_Lab/iot_link/network/lwm2m/wakaama_lwm2m/core/er-coap-13\er-coap-13.c ****             PRINTF("Size [%lu]\n", coap_pkt->size);
 870:C:/Users/dtjld/Desktop/AIoT_software/LiteOS_Lab_overseas/LiteOS_Lab/iot_link/network/lwm2m/wakaama_lwm2m/core/er-coap-13\er-coap-13.c ****             break;
 3222              		.loc 1 870 0
 3223 04c0 0AE0     		b	.L162
 3224              	.L143:
 871:C:/Users/dtjld/Desktop/AIoT_software/LiteOS_Lab_overseas/LiteOS_Lab/iot_link/network/lwm2m/wakaama_lwm2m/core/er-coap-13\er-coap-13.c ****         default:
 872:C:/Users/dtjld/Desktop/AIoT_software/LiteOS_Lab_overseas/LiteOS_Lab/iot_link/network/lwm2m/wakaama_lwm2m/core/er-coap-13\er-coap-13.c ****             PRINTF("unknown (%u)\n", option_number);
 873:C:/Users/dtjld/Desktop/AIoT_software/LiteOS_Lab_overseas/LiteOS_Lab/iot_link/network/lwm2m/wakaama_lwm2m/core/er-coap-13\er-coap-13.c ****             /* Check if critical (odd) */
 874:C:/Users/dtjld/Desktop/AIoT_software/LiteOS_Lab_overseas/LiteOS_Lab/iot_link/network/lwm2m/wakaama_lwm2m/core/er-coap-13\er-coap-13.c ****             if (option_number & 1)
 3225              		.loc 1 874 0
 3226 04c2 3B6A     		ldr	r3, [r7, #32]
 3227 04c4 03F00103 		and	r3, r3, #1
 3228 04c8 002B     		cmp	r3, #0
 3229 04ca 05D0     		beq	.L162
 875:C:/Users/dtjld/Desktop/AIoT_software/LiteOS_Lab_overseas/LiteOS_Lab/iot_link/network/lwm2m/wakaama_lwm2m/core/er-coap-13\er-coap-13.c ****             {
 876:C:/Users/dtjld/Desktop/AIoT_software/LiteOS_Lab_overseas/LiteOS_Lab/iot_link/network/lwm2m/wakaama_lwm2m/core/er-coap-13\er-coap-13.c ****                 coap_error_message = "Unsupported critical option";
 3230              		.loc 1 876 0
 3231 04cc 0A4B     		ldr	r3, .L173
 3232 04ce 0C4A     		ldr	r2, .L173+8
 3233 04d0 1A60     		str	r2, [r3]
 877:C:/Users/dtjld/Desktop/AIoT_software/LiteOS_Lab_overseas/LiteOS_Lab/iot_link/network/lwm2m/wakaama_lwm2m/core/er-coap-13\er-coap-13.c ****                 return BAD_OPTION_4_02;
ARM GAS  C:\Users\dtjld\AppData\Local\Temp\ccpI0fza.s 			page 73


 3234              		.loc 1 877 0
 3235 04d2 8223     		movs	r3, #130
 3236 04d4 0CE0     		b	.L169
 3237              	.L170:
 785:C:/Users/dtjld/Desktop/AIoT_software/LiteOS_Lab_overseas/LiteOS_Lab/iot_link/network/lwm2m/wakaama_lwm2m/core/er-coap-13\er-coap-13.c ****         case COAP_OPTION_IF_MATCH:
 3238              		.loc 1 785 0
 3239 04d6 00BF     		nop
 3240              	.L162:
 878:C:/Users/dtjld/Desktop/AIoT_software/LiteOS_Lab_overseas/LiteOS_Lab/iot_link/network/lwm2m/wakaama_lwm2m/core/er-coap-13\er-coap-13.c ****             }
 879:C:/Users/dtjld/Desktop/AIoT_software/LiteOS_Lab_overseas/LiteOS_Lab/iot_link/network/lwm2m/wakaama_lwm2m/core/er-coap-13\er-coap-13.c ****         }
 880:C:/Users/dtjld/Desktop/AIoT_software/LiteOS_Lab_overseas/LiteOS_Lab/iot_link/network/lwm2m/wakaama_lwm2m/core/er-coap-13\er-coap-13.c **** 
 881:C:/Users/dtjld/Desktop/AIoT_software/LiteOS_Lab_overseas/LiteOS_Lab/iot_link/network/lwm2m/wakaama_lwm2m/core/er-coap-13\er-coap-13.c ****         current_option += option_length;
 3241              		.loc 1 881 0
 3242 04d8 3B69     		ldr	r3, [r7, #16]
 3243 04da 7A6A     		ldr	r2, [r7, #36]
 3244 04dc 1344     		add	r3, r3, r2
 3245 04de 7B62     		str	r3, [r7, #36]
 3246              	.L134:
 705:C:/Users/dtjld/Desktop/AIoT_software/LiteOS_Lab_overseas/LiteOS_Lab/iot_link/network/lwm2m/wakaama_lwm2m/core/er-coap-13\er-coap-13.c ****     {
 3247              		.loc 1 705 0
 3248 04e0 FB88     		ldrh	r3, [r7, #6]
 3249 04e2 BA68     		ldr	r2, [r7, #8]
 3250 04e4 1344     		add	r3, r3, r2
 3251 04e6 7A6A     		ldr	r2, [r7, #36]
 3252 04e8 9A42     		cmp	r2, r3
 3253 04ea FFF4FCAD 		bcc	.L168
 3254              	.L136:
 882:C:/Users/dtjld/Desktop/AIoT_software/LiteOS_Lab_overseas/LiteOS_Lab/iot_link/network/lwm2m/wakaama_lwm2m/core/er-coap-13\er-coap-13.c ****     } /* for */
 883:C:/Users/dtjld/Desktop/AIoT_software/LiteOS_Lab_overseas/LiteOS_Lab/iot_link/network/lwm2m/wakaama_lwm2m/core/er-coap-13\er-coap-13.c ****     PRINTF("-Done parsing-------\n");
 884:C:/Users/dtjld/Desktop/AIoT_software/LiteOS_Lab_overseas/LiteOS_Lab/iot_link/network/lwm2m/wakaama_lwm2m/core/er-coap-13\er-coap-13.c **** 
 885:C:/Users/dtjld/Desktop/AIoT_software/LiteOS_Lab_overseas/LiteOS_Lab/iot_link/network/lwm2m/wakaama_lwm2m/core/er-coap-13\er-coap-13.c **** 
 886:C:/Users/dtjld/Desktop/AIoT_software/LiteOS_Lab_overseas/LiteOS_Lab/iot_link/network/lwm2m/wakaama_lwm2m/core/er-coap-13\er-coap-13.c **** 
 887:C:/Users/dtjld/Desktop/AIoT_software/LiteOS_Lab_overseas/LiteOS_Lab/iot_link/network/lwm2m/wakaama_lwm2m/core/er-coap-13\er-coap-13.c ****     return NO_ERROR;
 3255              		.loc 1 887 0
 3256 04ee 0023     		movs	r3, #0
 3257              	.L169:
 888:C:/Users/dtjld/Desktop/AIoT_software/LiteOS_Lab_overseas/LiteOS_Lab/iot_link/network/lwm2m/wakaama_lwm2m/core/er-coap-13\er-coap-13.c **** }
 3258              		.loc 1 888 0 discriminator 1
 3259 04f0 1846     		mov	r0, r3
 3260 04f2 2837     		adds	r7, r7, #40
 3261              	.LCFI91:
 3262              		.cfi_def_cfa_offset 8
 3263 04f4 BD46     		mov	sp, r7
 3264              	.LCFI92:
 3265              		.cfi_def_cfa_register 13
 3266              		@ sp needed
 3267 04f6 80BD     		pop	{r7, pc}
 3268              	.L174:
 3269              		.align	2
 3270              	.L173:
 3271 04f8 00000000 		.word	coap_error_message
 3272 04fc 1C000000 		.word	.LC2
 3273 0500 44000000 		.word	.LC3
 3274              		.cfi_endproc
 3275              	.LFE21:
 3277              		.section	.text.coap_get_query_variable,"ax",%progbits
 3278              		.align	1
ARM GAS  C:\Users\dtjld\AppData\Local\Temp\ccpI0fza.s 			page 74


 3279              		.global	coap_get_query_variable
 3280              		.syntax unified
 3281              		.thumb
 3282              		.thumb_func
 3283              		.fpu fpv4-sp-d16
 3285              	coap_get_query_variable:
 3286              	.LFB22:
 889:C:/Users/dtjld/Desktop/AIoT_software/LiteOS_Lab_overseas/LiteOS_Lab/iot_link/network/lwm2m/wakaama_lwm2m/core/er-coap-13\er-coap-13.c **** /*-----------------------------------------------------------------------------------*/
 890:C:/Users/dtjld/Desktop/AIoT_software/LiteOS_Lab_overseas/LiteOS_Lab/iot_link/network/lwm2m/wakaama_lwm2m/core/er-coap-13\er-coap-13.c **** /*- REST FRAMEWORK FUNCTIONS --------------------------------------------------------*/
 891:C:/Users/dtjld/Desktop/AIoT_software/LiteOS_Lab_overseas/LiteOS_Lab/iot_link/network/lwm2m/wakaama_lwm2m/core/er-coap-13\er-coap-13.c **** /*-----------------------------------------------------------------------------------*/
 892:C:/Users/dtjld/Desktop/AIoT_software/LiteOS_Lab_overseas/LiteOS_Lab/iot_link/network/lwm2m/wakaama_lwm2m/core/er-coap-13\er-coap-13.c **** int
 893:C:/Users/dtjld/Desktop/AIoT_software/LiteOS_Lab_overseas/LiteOS_Lab/iot_link/network/lwm2m/wakaama_lwm2m/core/er-coap-13\er-coap-13.c **** coap_get_query_variable(void *packet, const char *name, const char **output)
 894:C:/Users/dtjld/Desktop/AIoT_software/LiteOS_Lab_overseas/LiteOS_Lab/iot_link/network/lwm2m/wakaama_lwm2m/core/er-coap-13\er-coap-13.c **** {
 3287              		.loc 1 894 0
 3288              		.cfi_startproc
 3289              		@ args = 0, pretend = 0, frame = 16
 3290              		@ frame_needed = 1, uses_anonymous_args = 0
 3291              		@ link register save eliminated.
 3292 0000 80B4     		push	{r7}
 3293              	.LCFI93:
 3294              		.cfi_def_cfa_offset 4
 3295              		.cfi_offset 7, -4
 3296 0002 85B0     		sub	sp, sp, #20
 3297              	.LCFI94:
 3298              		.cfi_def_cfa_offset 24
 3299 0004 00AF     		add	r7, sp, #0
 3300              	.LCFI95:
 3301              		.cfi_def_cfa_register 7
 3302 0006 F860     		str	r0, [r7, #12]
 3303 0008 B960     		str	r1, [r7, #8]
 3304 000a 7A60     		str	r2, [r7, #4]
 895:C:/Users/dtjld/Desktop/AIoT_software/LiteOS_Lab_overseas/LiteOS_Lab/iot_link/network/lwm2m/wakaama_lwm2m/core/er-coap-13\er-coap-13.c ****     /*
 896:C:/Users/dtjld/Desktop/AIoT_software/LiteOS_Lab_overseas/LiteOS_Lab/iot_link/network/lwm2m/wakaama_lwm2m/core/er-coap-13\er-coap-13.c ****       coap_packet_t *const coap_pkt = (coap_packet_t *) packet;
 897:C:/Users/dtjld/Desktop/AIoT_software/LiteOS_Lab_overseas/LiteOS_Lab/iot_link/network/lwm2m/wakaama_lwm2m/core/er-coap-13\er-coap-13.c **** 
 898:C:/Users/dtjld/Desktop/AIoT_software/LiteOS_Lab_overseas/LiteOS_Lab/iot_link/network/lwm2m/wakaama_lwm2m/core/er-coap-13\er-coap-13.c ****       if (IS_OPTION(coap_pkt, COAP_OPTION_URI_QUERY)) {
 899:C:/Users/dtjld/Desktop/AIoT_software/LiteOS_Lab_overseas/LiteOS_Lab/iot_link/network/lwm2m/wakaama_lwm2m/core/er-coap-13\er-coap-13.c ****         return coap_get_variable(coap_pkt->uri_query, coap_pkt->uri_query_len, name, output);
 900:C:/Users/dtjld/Desktop/AIoT_software/LiteOS_Lab_overseas/LiteOS_Lab/iot_link/network/lwm2m/wakaama_lwm2m/core/er-coap-13\er-coap-13.c ****       }
 901:C:/Users/dtjld/Desktop/AIoT_software/LiteOS_Lab_overseas/LiteOS_Lab/iot_link/network/lwm2m/wakaama_lwm2m/core/er-coap-13\er-coap-13.c ****     */
 902:C:/Users/dtjld/Desktop/AIoT_software/LiteOS_Lab_overseas/LiteOS_Lab/iot_link/network/lwm2m/wakaama_lwm2m/core/er-coap-13\er-coap-13.c ****     return 0;
 3305              		.loc 1 902 0
 3306 000c 0023     		movs	r3, #0
 903:C:/Users/dtjld/Desktop/AIoT_software/LiteOS_Lab_overseas/LiteOS_Lab/iot_link/network/lwm2m/wakaama_lwm2m/core/er-coap-13\er-coap-13.c **** }
 3307              		.loc 1 903 0
 3308 000e 1846     		mov	r0, r3
 3309 0010 1437     		adds	r7, r7, #20
 3310              	.LCFI96:
 3311              		.cfi_def_cfa_offset 4
 3312 0012 BD46     		mov	sp, r7
 3313              	.LCFI97:
 3314              		.cfi_def_cfa_register 13
 3315              		@ sp needed
 3316 0014 5DF8047B 		ldr	r7, [sp], #4
 3317              	.LCFI98:
 3318              		.cfi_restore 7
 3319              		.cfi_def_cfa_offset 0
 3320 0018 7047     		bx	lr
 3321              		.cfi_endproc
ARM GAS  C:\Users\dtjld\AppData\Local\Temp\ccpI0fza.s 			page 75


 3322              	.LFE22:
 3324              		.section	.text.coap_get_post_variable,"ax",%progbits
 3325              		.align	1
 3326              		.global	coap_get_post_variable
 3327              		.syntax unified
 3328              		.thumb
 3329              		.thumb_func
 3330              		.fpu fpv4-sp-d16
 3332              	coap_get_post_variable:
 3333              	.LFB23:
 904:C:/Users/dtjld/Desktop/AIoT_software/LiteOS_Lab_overseas/LiteOS_Lab/iot_link/network/lwm2m/wakaama_lwm2m/core/er-coap-13\er-coap-13.c **** 
 905:C:/Users/dtjld/Desktop/AIoT_software/LiteOS_Lab_overseas/LiteOS_Lab/iot_link/network/lwm2m/wakaama_lwm2m/core/er-coap-13\er-coap-13.c **** int
 906:C:/Users/dtjld/Desktop/AIoT_software/LiteOS_Lab_overseas/LiteOS_Lab/iot_link/network/lwm2m/wakaama_lwm2m/core/er-coap-13\er-coap-13.c **** coap_get_post_variable(void *packet, const char *name, const char **output)
 907:C:/Users/dtjld/Desktop/AIoT_software/LiteOS_Lab_overseas/LiteOS_Lab/iot_link/network/lwm2m/wakaama_lwm2m/core/er-coap-13\er-coap-13.c **** {
 3334              		.loc 1 907 0
 3335              		.cfi_startproc
 3336              		@ args = 0, pretend = 0, frame = 24
 3337              		@ frame_needed = 1, uses_anonymous_args = 0
 3338 0000 80B5     		push	{r7, lr}
 3339              	.LCFI99:
 3340              		.cfi_def_cfa_offset 8
 3341              		.cfi_offset 7, -8
 3342              		.cfi_offset 14, -4
 3343 0002 86B0     		sub	sp, sp, #24
 3344              	.LCFI100:
 3345              		.cfi_def_cfa_offset 32
 3346 0004 00AF     		add	r7, sp, #0
 3347              	.LCFI101:
 3348              		.cfi_def_cfa_register 7
 3349 0006 F860     		str	r0, [r7, #12]
 3350 0008 B960     		str	r1, [r7, #8]
 3351 000a 7A60     		str	r2, [r7, #4]
 908:C:/Users/dtjld/Desktop/AIoT_software/LiteOS_Lab_overseas/LiteOS_Lab/iot_link/network/lwm2m/wakaama_lwm2m/core/er-coap-13\er-coap-13.c ****     coap_packet_t *const coap_pkt = (coap_packet_t *) packet;
 3352              		.loc 1 908 0
 3353 000c FB68     		ldr	r3, [r7, #12]
 3354 000e 7B61     		str	r3, [r7, #20]
 909:C:/Users/dtjld/Desktop/AIoT_software/LiteOS_Lab_overseas/LiteOS_Lab/iot_link/network/lwm2m/wakaama_lwm2m/core/er-coap-13\er-coap-13.c **** 
 910:C:/Users/dtjld/Desktop/AIoT_software/LiteOS_Lab_overseas/LiteOS_Lab/iot_link/network/lwm2m/wakaama_lwm2m/core/er-coap-13\er-coap-13.c ****     if (coap_pkt->payload_len)
 3355              		.loc 1 910 0
 3356 0010 7B69     		ldr	r3, [r7, #20]
 3357 0012 B3F88630 		ldrh	r3, [r3, #134]
 3358 0016 002B     		cmp	r3, #0
 3359 0018 0CD0     		beq	.L178
 911:C:/Users/dtjld/Desktop/AIoT_software/LiteOS_Lab_overseas/LiteOS_Lab/iot_link/network/lwm2m/wakaama_lwm2m/core/er-coap-13\er-coap-13.c ****     {
 912:C:/Users/dtjld/Desktop/AIoT_software/LiteOS_Lab_overseas/LiteOS_Lab/iot_link/network/lwm2m/wakaama_lwm2m/core/er-coap-13\er-coap-13.c ****         return coap_get_variable(coap_pkt->payload, coap_pkt->payload_len, name, output);
 3360              		.loc 1 912 0
 3361 001a 7B69     		ldr	r3, [r7, #20]
 3362 001c D3F88800 		ldr	r0, [r3, #136]
 3363 0020 7B69     		ldr	r3, [r7, #20]
 3364 0022 B3F88630 		ldrh	r3, [r3, #134]
 3365 0026 1946     		mov	r1, r3
 3366 0028 7B68     		ldr	r3, [r7, #4]
 3367 002a BA68     		ldr	r2, [r7, #8]
 3368 002c FFF7FEFF 		bl	coap_get_variable
 3369 0030 0346     		mov	r3, r0
 3370 0032 00E0     		b	.L179
 3371              	.L178:
ARM GAS  C:\Users\dtjld\AppData\Local\Temp\ccpI0fza.s 			page 76


 913:C:/Users/dtjld/Desktop/AIoT_software/LiteOS_Lab_overseas/LiteOS_Lab/iot_link/network/lwm2m/wakaama_lwm2m/core/er-coap-13\er-coap-13.c ****     }
 914:C:/Users/dtjld/Desktop/AIoT_software/LiteOS_Lab_overseas/LiteOS_Lab/iot_link/network/lwm2m/wakaama_lwm2m/core/er-coap-13\er-coap-13.c ****     return 0;
 3372              		.loc 1 914 0
 3373 0034 0023     		movs	r3, #0
 3374              	.L179:
 915:C:/Users/dtjld/Desktop/AIoT_software/LiteOS_Lab_overseas/LiteOS_Lab/iot_link/network/lwm2m/wakaama_lwm2m/core/er-coap-13\er-coap-13.c **** }
 3375              		.loc 1 915 0
 3376 0036 1846     		mov	r0, r3
 3377 0038 1837     		adds	r7, r7, #24
 3378              	.LCFI102:
 3379              		.cfi_def_cfa_offset 8
 3380 003a BD46     		mov	sp, r7
 3381              	.LCFI103:
 3382              		.cfi_def_cfa_register 13
 3383              		@ sp needed
 3384 003c 80BD     		pop	{r7, pc}
 3385              		.cfi_endproc
 3386              	.LFE23:
 3388              		.section	.text.coap_set_status_code,"ax",%progbits
 3389              		.align	1
 3390              		.global	coap_set_status_code
 3391              		.syntax unified
 3392              		.thumb
 3393              		.thumb_func
 3394              		.fpu fpv4-sp-d16
 3396              	coap_set_status_code:
 3397              	.LFB24:
 916:C:/Users/dtjld/Desktop/AIoT_software/LiteOS_Lab_overseas/LiteOS_Lab/iot_link/network/lwm2m/wakaama_lwm2m/core/er-coap-13\er-coap-13.c **** /*-----------------------------------------------------------------------------------*/
 917:C:/Users/dtjld/Desktop/AIoT_software/LiteOS_Lab_overseas/LiteOS_Lab/iot_link/network/lwm2m/wakaama_lwm2m/core/er-coap-13\er-coap-13.c **** int
 918:C:/Users/dtjld/Desktop/AIoT_software/LiteOS_Lab_overseas/LiteOS_Lab/iot_link/network/lwm2m/wakaama_lwm2m/core/er-coap-13\er-coap-13.c **** coap_set_status_code(void *packet, unsigned int code)
 919:C:/Users/dtjld/Desktop/AIoT_software/LiteOS_Lab_overseas/LiteOS_Lab/iot_link/network/lwm2m/wakaama_lwm2m/core/er-coap-13\er-coap-13.c **** {
 3398              		.loc 1 919 0
 3399              		.cfi_startproc
 3400              		@ args = 0, pretend = 0, frame = 8
 3401              		@ frame_needed = 1, uses_anonymous_args = 0
 3402              		@ link register save eliminated.
 3403 0000 80B4     		push	{r7}
 3404              	.LCFI104:
 3405              		.cfi_def_cfa_offset 4
 3406              		.cfi_offset 7, -4
 3407 0002 83B0     		sub	sp, sp, #12
 3408              	.LCFI105:
 3409              		.cfi_def_cfa_offset 16
 3410 0004 00AF     		add	r7, sp, #0
 3411              	.LCFI106:
 3412              		.cfi_def_cfa_register 7
 3413 0006 7860     		str	r0, [r7, #4]
 3414 0008 3960     		str	r1, [r7]
 920:C:/Users/dtjld/Desktop/AIoT_software/LiteOS_Lab_overseas/LiteOS_Lab/iot_link/network/lwm2m/wakaama_lwm2m/core/er-coap-13\er-coap-13.c ****     if (code <= 0xFF)
 3415              		.loc 1 920 0
 3416 000a 3B68     		ldr	r3, [r7]
 3417 000c FF2B     		cmp	r3, #255
 3418 000e 05D8     		bhi	.L181
 921:C:/Users/dtjld/Desktop/AIoT_software/LiteOS_Lab_overseas/LiteOS_Lab/iot_link/network/lwm2m/wakaama_lwm2m/core/er-coap-13\er-coap-13.c ****     {
 922:C:/Users/dtjld/Desktop/AIoT_software/LiteOS_Lab_overseas/LiteOS_Lab/iot_link/network/lwm2m/wakaama_lwm2m/core/er-coap-13\er-coap-13.c ****         ((coap_packet_t *)packet)->code = (uint8_t) code;
 3419              		.loc 1 922 0
 3420 0010 3B68     		ldr	r3, [r7]
ARM GAS  C:\Users\dtjld\AppData\Local\Temp\ccpI0fza.s 			page 77


 3421 0012 DAB2     		uxtb	r2, r3
 3422 0014 7B68     		ldr	r3, [r7, #4]
 3423 0016 9A71     		strb	r2, [r3, #6]
 923:C:/Users/dtjld/Desktop/AIoT_software/LiteOS_Lab_overseas/LiteOS_Lab/iot_link/network/lwm2m/wakaama_lwm2m/core/er-coap-13\er-coap-13.c ****         return 1;
 3424              		.loc 1 923 0
 3425 0018 0123     		movs	r3, #1
 3426 001a 00E0     		b	.L182
 3427              	.L181:
 924:C:/Users/dtjld/Desktop/AIoT_software/LiteOS_Lab_overseas/LiteOS_Lab/iot_link/network/lwm2m/wakaama_lwm2m/core/er-coap-13\er-coap-13.c ****     }
 925:C:/Users/dtjld/Desktop/AIoT_software/LiteOS_Lab_overseas/LiteOS_Lab/iot_link/network/lwm2m/wakaama_lwm2m/core/er-coap-13\er-coap-13.c ****     else
 926:C:/Users/dtjld/Desktop/AIoT_software/LiteOS_Lab_overseas/LiteOS_Lab/iot_link/network/lwm2m/wakaama_lwm2m/core/er-coap-13\er-coap-13.c ****     {
 927:C:/Users/dtjld/Desktop/AIoT_software/LiteOS_Lab_overseas/LiteOS_Lab/iot_link/network/lwm2m/wakaama_lwm2m/core/er-coap-13\er-coap-13.c ****         return 0;
 3428              		.loc 1 927 0
 3429 001c 0023     		movs	r3, #0
 3430              	.L182:
 928:C:/Users/dtjld/Desktop/AIoT_software/LiteOS_Lab_overseas/LiteOS_Lab/iot_link/network/lwm2m/wakaama_lwm2m/core/er-coap-13\er-coap-13.c ****     }
 929:C:/Users/dtjld/Desktop/AIoT_software/LiteOS_Lab_overseas/LiteOS_Lab/iot_link/network/lwm2m/wakaama_lwm2m/core/er-coap-13\er-coap-13.c **** }
 3431              		.loc 1 929 0
 3432 001e 1846     		mov	r0, r3
 3433 0020 0C37     		adds	r7, r7, #12
 3434              	.LCFI107:
 3435              		.cfi_def_cfa_offset 4
 3436 0022 BD46     		mov	sp, r7
 3437              	.LCFI108:
 3438              		.cfi_def_cfa_register 13
 3439              		@ sp needed
 3440 0024 5DF8047B 		ldr	r7, [sp], #4
 3441              	.LCFI109:
 3442              		.cfi_restore 7
 3443              		.cfi_def_cfa_offset 0
 3444 0028 7047     		bx	lr
 3445              		.cfi_endproc
 3446              	.LFE24:
 3448              		.section	.text.coap_get_header_content_type,"ax",%progbits
 3449              		.align	1
 3450              		.global	coap_get_header_content_type
 3451              		.syntax unified
 3452              		.thumb
 3453              		.thumb_func
 3454              		.fpu fpv4-sp-d16
 3456              	coap_get_header_content_type:
 3457              	.LFB25:
 930:C:/Users/dtjld/Desktop/AIoT_software/LiteOS_Lab_overseas/LiteOS_Lab/iot_link/network/lwm2m/wakaama_lwm2m/core/er-coap-13\er-coap-13.c **** /*-----------------------------------------------------------------------------------*/
 931:C:/Users/dtjld/Desktop/AIoT_software/LiteOS_Lab_overseas/LiteOS_Lab/iot_link/network/lwm2m/wakaama_lwm2m/core/er-coap-13\er-coap-13.c **** /*- HEADER OPTION GETTERS AND SETTERS -----------------------------------------------*/
 932:C:/Users/dtjld/Desktop/AIoT_software/LiteOS_Lab_overseas/LiteOS_Lab/iot_link/network/lwm2m/wakaama_lwm2m/core/er-coap-13\er-coap-13.c **** /*-----------------------------------------------------------------------------------*/
 933:C:/Users/dtjld/Desktop/AIoT_software/LiteOS_Lab_overseas/LiteOS_Lab/iot_link/network/lwm2m/wakaama_lwm2m/core/er-coap-13\er-coap-13.c **** unsigned int
 934:C:/Users/dtjld/Desktop/AIoT_software/LiteOS_Lab_overseas/LiteOS_Lab/iot_link/network/lwm2m/wakaama_lwm2m/core/er-coap-13\er-coap-13.c **** coap_get_header_content_type(void *packet)
 935:C:/Users/dtjld/Desktop/AIoT_software/LiteOS_Lab_overseas/LiteOS_Lab/iot_link/network/lwm2m/wakaama_lwm2m/core/er-coap-13\er-coap-13.c **** {
 3458              		.loc 1 935 0
 3459              		.cfi_startproc
 3460              		@ args = 0, pretend = 0, frame = 16
 3461              		@ frame_needed = 1, uses_anonymous_args = 0
 3462              		@ link register save eliminated.
 3463 0000 80B4     		push	{r7}
 3464              	.LCFI110:
 3465              		.cfi_def_cfa_offset 4
 3466              		.cfi_offset 7, -4
ARM GAS  C:\Users\dtjld\AppData\Local\Temp\ccpI0fza.s 			page 78


 3467 0002 85B0     		sub	sp, sp, #20
 3468              	.LCFI111:
 3469              		.cfi_def_cfa_offset 24
 3470 0004 00AF     		add	r7, sp, #0
 3471              	.LCFI112:
 3472              		.cfi_def_cfa_register 7
 3473 0006 7860     		str	r0, [r7, #4]
 936:C:/Users/dtjld/Desktop/AIoT_software/LiteOS_Lab_overseas/LiteOS_Lab/iot_link/network/lwm2m/wakaama_lwm2m/core/er-coap-13\er-coap-13.c ****     coap_packet_t *const coap_pkt = (coap_packet_t *) packet;
 3474              		.loc 1 936 0
 3475 0008 7B68     		ldr	r3, [r7, #4]
 3476 000a FB60     		str	r3, [r7, #12]
 937:C:/Users/dtjld/Desktop/AIoT_software/LiteOS_Lab_overseas/LiteOS_Lab/iot_link/network/lwm2m/wakaama_lwm2m/core/er-coap-13\er-coap-13.c **** 
 938:C:/Users/dtjld/Desktop/AIoT_software/LiteOS_Lab_overseas/LiteOS_Lab/iot_link/network/lwm2m/wakaama_lwm2m/core/er-coap-13\er-coap-13.c ****     if (!IS_OPTION(coap_pkt, COAP_OPTION_CONTENT_TYPE)) return (unsigned int) - 1;
 3477              		.loc 1 938 0
 3478 000c FB68     		ldr	r3, [r7, #12]
 3479 000e DB7A     		ldrb	r3, [r3, #11]	@ zero_extendqisi2
 3480 0010 03F01003 		and	r3, r3, #16
 3481 0014 002B     		cmp	r3, #0
 3482 0016 02D1     		bne	.L184
 3483              		.loc 1 938 0 is_stmt 0 discriminator 1
 3484 0018 4FF0FF33 		mov	r3, #-1
 3485 001c 01E0     		b	.L185
 3486              	.L184:
 939:C:/Users/dtjld/Desktop/AIoT_software/LiteOS_Lab_overseas/LiteOS_Lab/iot_link/network/lwm2m/wakaama_lwm2m/core/er-coap-13\er-coap-13.c **** 
 940:C:/Users/dtjld/Desktop/AIoT_software/LiteOS_Lab_overseas/LiteOS_Lab/iot_link/network/lwm2m/wakaama_lwm2m/core/er-coap-13\er-coap-13.c ****     return coap_pkt->content_type;
 3487              		.loc 1 940 0 is_stmt 1
 3488 001e FB68     		ldr	r3, [r7, #12]
 3489 0020 1B8A     		ldrh	r3, [r3, #16]
 3490              	.L185:
 941:C:/Users/dtjld/Desktop/AIoT_software/LiteOS_Lab_overseas/LiteOS_Lab/iot_link/network/lwm2m/wakaama_lwm2m/core/er-coap-13\er-coap-13.c **** }
 3491              		.loc 1 941 0
 3492 0022 1846     		mov	r0, r3
 3493 0024 1437     		adds	r7, r7, #20
 3494              	.LCFI113:
 3495              		.cfi_def_cfa_offset 4
 3496 0026 BD46     		mov	sp, r7
 3497              	.LCFI114:
 3498              		.cfi_def_cfa_register 13
 3499              		@ sp needed
 3500 0028 5DF8047B 		ldr	r7, [sp], #4
 3501              	.LCFI115:
 3502              		.cfi_restore 7
 3503              		.cfi_def_cfa_offset 0
 3504 002c 7047     		bx	lr
 3505              		.cfi_endproc
 3506              	.LFE25:
 3508              		.section	.text.coap_set_header_content_type,"ax",%progbits
 3509              		.align	1
 3510              		.global	coap_set_header_content_type
 3511              		.syntax unified
 3512              		.thumb
 3513              		.thumb_func
 3514              		.fpu fpv4-sp-d16
 3516              	coap_set_header_content_type:
 3517              	.LFB26:
 942:C:/Users/dtjld/Desktop/AIoT_software/LiteOS_Lab_overseas/LiteOS_Lab/iot_link/network/lwm2m/wakaama_lwm2m/core/er-coap-13\er-coap-13.c **** 
 943:C:/Users/dtjld/Desktop/AIoT_software/LiteOS_Lab_overseas/LiteOS_Lab/iot_link/network/lwm2m/wakaama_lwm2m/core/er-coap-13\er-coap-13.c **** int
ARM GAS  C:\Users\dtjld\AppData\Local\Temp\ccpI0fza.s 			page 79


 944:C:/Users/dtjld/Desktop/AIoT_software/LiteOS_Lab_overseas/LiteOS_Lab/iot_link/network/lwm2m/wakaama_lwm2m/core/er-coap-13\er-coap-13.c **** coap_set_header_content_type(void *packet, unsigned int content_type)
 945:C:/Users/dtjld/Desktop/AIoT_software/LiteOS_Lab_overseas/LiteOS_Lab/iot_link/network/lwm2m/wakaama_lwm2m/core/er-coap-13\er-coap-13.c **** {
 3518              		.loc 1 945 0
 3519              		.cfi_startproc
 3520              		@ args = 0, pretend = 0, frame = 16
 3521              		@ frame_needed = 1, uses_anonymous_args = 0
 3522              		@ link register save eliminated.
 3523 0000 80B4     		push	{r7}
 3524              	.LCFI116:
 3525              		.cfi_def_cfa_offset 4
 3526              		.cfi_offset 7, -4
 3527 0002 85B0     		sub	sp, sp, #20
 3528              	.LCFI117:
 3529              		.cfi_def_cfa_offset 24
 3530 0004 00AF     		add	r7, sp, #0
 3531              	.LCFI118:
 3532              		.cfi_def_cfa_register 7
 3533 0006 7860     		str	r0, [r7, #4]
 3534 0008 3960     		str	r1, [r7]
 946:C:/Users/dtjld/Desktop/AIoT_software/LiteOS_Lab_overseas/LiteOS_Lab/iot_link/network/lwm2m/wakaama_lwm2m/core/er-coap-13\er-coap-13.c ****     coap_packet_t *const coap_pkt = (coap_packet_t *) packet;
 3535              		.loc 1 946 0
 3536 000a 7B68     		ldr	r3, [r7, #4]
 3537 000c FB60     		str	r3, [r7, #12]
 947:C:/Users/dtjld/Desktop/AIoT_software/LiteOS_Lab_overseas/LiteOS_Lab/iot_link/network/lwm2m/wakaama_lwm2m/core/er-coap-13\er-coap-13.c **** 
 948:C:/Users/dtjld/Desktop/AIoT_software/LiteOS_Lab_overseas/LiteOS_Lab/iot_link/network/lwm2m/wakaama_lwm2m/core/er-coap-13\er-coap-13.c ****     coap_pkt->content_type = (coap_content_type_t) content_type;
 3538              		.loc 1 948 0
 3539 000e 3B68     		ldr	r3, [r7]
 3540 0010 9AB2     		uxth	r2, r3
 3541 0012 FB68     		ldr	r3, [r7, #12]
 3542 0014 1A82     		strh	r2, [r3, #16]	@ movhi
 949:C:/Users/dtjld/Desktop/AIoT_software/LiteOS_Lab_overseas/LiteOS_Lab/iot_link/network/lwm2m/wakaama_lwm2m/core/er-coap-13\er-coap-13.c ****     SET_OPTION(coap_pkt, COAP_OPTION_CONTENT_TYPE);
 3543              		.loc 1 949 0
 3544 0016 FB68     		ldr	r3, [r7, #12]
 3545 0018 DB7A     		ldrb	r3, [r3, #11]	@ zero_extendqisi2
 3546 001a 43F01003 		orr	r3, r3, #16
 3547 001e DAB2     		uxtb	r2, r3
 3548 0020 FB68     		ldr	r3, [r7, #12]
 3549 0022 DA72     		strb	r2, [r3, #11]
 950:C:/Users/dtjld/Desktop/AIoT_software/LiteOS_Lab_overseas/LiteOS_Lab/iot_link/network/lwm2m/wakaama_lwm2m/core/er-coap-13\er-coap-13.c ****     return 1;
 3550              		.loc 1 950 0
 3551 0024 0123     		movs	r3, #1
 951:C:/Users/dtjld/Desktop/AIoT_software/LiteOS_Lab_overseas/LiteOS_Lab/iot_link/network/lwm2m/wakaama_lwm2m/core/er-coap-13\er-coap-13.c **** }
 3552              		.loc 1 951 0
 3553 0026 1846     		mov	r0, r3
 3554 0028 1437     		adds	r7, r7, #20
 3555              	.LCFI119:
 3556              		.cfi_def_cfa_offset 4
 3557 002a BD46     		mov	sp, r7
 3558              	.LCFI120:
 3559              		.cfi_def_cfa_register 13
 3560              		@ sp needed
 3561 002c 5DF8047B 		ldr	r7, [sp], #4
 3562              	.LCFI121:
 3563              		.cfi_restore 7
 3564              		.cfi_def_cfa_offset 0
 3565 0030 7047     		bx	lr
 3566              		.cfi_endproc
ARM GAS  C:\Users\dtjld\AppData\Local\Temp\ccpI0fza.s 			page 80


 3567              	.LFE26:
 3569              		.section	.text.coap_get_header_accept,"ax",%progbits
 3570              		.align	1
 3571              		.global	coap_get_header_accept
 3572              		.syntax unified
 3573              		.thumb
 3574              		.thumb_func
 3575              		.fpu fpv4-sp-d16
 3577              	coap_get_header_accept:
 3578              	.LFB27:
 952:C:/Users/dtjld/Desktop/AIoT_software/LiteOS_Lab_overseas/LiteOS_Lab/iot_link/network/lwm2m/wakaama_lwm2m/core/er-coap-13\er-coap-13.c **** /*-----------------------------------------------------------------------------------*/
 953:C:/Users/dtjld/Desktop/AIoT_software/LiteOS_Lab_overseas/LiteOS_Lab/iot_link/network/lwm2m/wakaama_lwm2m/core/er-coap-13\er-coap-13.c **** int
 954:C:/Users/dtjld/Desktop/AIoT_software/LiteOS_Lab_overseas/LiteOS_Lab/iot_link/network/lwm2m/wakaama_lwm2m/core/er-coap-13\er-coap-13.c **** coap_get_header_accept(void *packet, const uint16_t **accept)
 955:C:/Users/dtjld/Desktop/AIoT_software/LiteOS_Lab_overseas/LiteOS_Lab/iot_link/network/lwm2m/wakaama_lwm2m/core/er-coap-13\er-coap-13.c **** {
 3579              		.loc 1 955 0
 3580              		.cfi_startproc
 3581              		@ args = 0, pretend = 0, frame = 16
 3582              		@ frame_needed = 1, uses_anonymous_args = 0
 3583              		@ link register save eliminated.
 3584 0000 80B4     		push	{r7}
 3585              	.LCFI122:
 3586              		.cfi_def_cfa_offset 4
 3587              		.cfi_offset 7, -4
 3588 0002 85B0     		sub	sp, sp, #20
 3589              	.LCFI123:
 3590              		.cfi_def_cfa_offset 24
 3591 0004 00AF     		add	r7, sp, #0
 3592              	.LCFI124:
 3593              		.cfi_def_cfa_register 7
 3594 0006 7860     		str	r0, [r7, #4]
 3595 0008 3960     		str	r1, [r7]
 956:C:/Users/dtjld/Desktop/AIoT_software/LiteOS_Lab_overseas/LiteOS_Lab/iot_link/network/lwm2m/wakaama_lwm2m/core/er-coap-13\er-coap-13.c ****     coap_packet_t *const coap_pkt = (coap_packet_t *) packet;
 3596              		.loc 1 956 0
 3597 000a 7B68     		ldr	r3, [r7, #4]
 3598 000c FB60     		str	r3, [r7, #12]
 957:C:/Users/dtjld/Desktop/AIoT_software/LiteOS_Lab_overseas/LiteOS_Lab/iot_link/network/lwm2m/wakaama_lwm2m/core/er-coap-13\er-coap-13.c **** 
 958:C:/Users/dtjld/Desktop/AIoT_software/LiteOS_Lab_overseas/LiteOS_Lab/iot_link/network/lwm2m/wakaama_lwm2m/core/er-coap-13\er-coap-13.c ****     if (!IS_OPTION(coap_pkt, COAP_OPTION_ACCEPT)) return 0;
 3599              		.loc 1 958 0
 3600 000e FB68     		ldr	r3, [r7, #12]
 3601 0010 1B7B     		ldrb	r3, [r3, #12]	@ zero_extendqisi2
 3602 0012 03F00203 		and	r3, r3, #2
 3603 0016 002B     		cmp	r3, #0
 3604 0018 01D1     		bne	.L189
 3605              		.loc 1 958 0 is_stmt 0 discriminator 1
 3606 001a 0023     		movs	r3, #0
 3607 001c 07E0     		b	.L190
 3608              	.L189:
 959:C:/Users/dtjld/Desktop/AIoT_software/LiteOS_Lab_overseas/LiteOS_Lab/iot_link/network/lwm2m/wakaama_lwm2m/core/er-coap-13\er-coap-13.c **** 
 960:C:/Users/dtjld/Desktop/AIoT_software/LiteOS_Lab_overseas/LiteOS_Lab/iot_link/network/lwm2m/wakaama_lwm2m/core/er-coap-13\er-coap-13.c ****     *accept = coap_pkt->accept;
 3609              		.loc 1 960 0 is_stmt 1
 3610 001e FB68     		ldr	r3, [r7, #12]
 3611 0020 03F15602 		add	r2, r3, #86
 3612 0024 3B68     		ldr	r3, [r7]
 3613 0026 1A60     		str	r2, [r3]
 961:C:/Users/dtjld/Desktop/AIoT_software/LiteOS_Lab_overseas/LiteOS_Lab/iot_link/network/lwm2m/wakaama_lwm2m/core/er-coap-13\er-coap-13.c ****     return coap_pkt->accept_num;
 3614              		.loc 1 961 0
 3615 0028 FB68     		ldr	r3, [r7, #12]
ARM GAS  C:\Users\dtjld\AppData\Local\Temp\ccpI0fza.s 			page 81


 3616 002a 93F85530 		ldrb	r3, [r3, #85]	@ zero_extendqisi2
 3617              	.L190:
 962:C:/Users/dtjld/Desktop/AIoT_software/LiteOS_Lab_overseas/LiteOS_Lab/iot_link/network/lwm2m/wakaama_lwm2m/core/er-coap-13\er-coap-13.c **** }
 3618              		.loc 1 962 0
 3619 002e 1846     		mov	r0, r3
 3620 0030 1437     		adds	r7, r7, #20
 3621              	.LCFI125:
 3622              		.cfi_def_cfa_offset 4
 3623 0032 BD46     		mov	sp, r7
 3624              	.LCFI126:
 3625              		.cfi_def_cfa_register 13
 3626              		@ sp needed
 3627 0034 5DF8047B 		ldr	r7, [sp], #4
 3628              	.LCFI127:
 3629              		.cfi_restore 7
 3630              		.cfi_def_cfa_offset 0
 3631 0038 7047     		bx	lr
 3632              		.cfi_endproc
 3633              	.LFE27:
 3635              		.section	.text.coap_set_header_accept,"ax",%progbits
 3636              		.align	1
 3637              		.global	coap_set_header_accept
 3638              		.syntax unified
 3639              		.thumb
 3640              		.thumb_func
 3641              		.fpu fpv4-sp-d16
 3643              	coap_set_header_accept:
 3644              	.LFB28:
 963:C:/Users/dtjld/Desktop/AIoT_software/LiteOS_Lab_overseas/LiteOS_Lab/iot_link/network/lwm2m/wakaama_lwm2m/core/er-coap-13\er-coap-13.c **** 
 964:C:/Users/dtjld/Desktop/AIoT_software/LiteOS_Lab_overseas/LiteOS_Lab/iot_link/network/lwm2m/wakaama_lwm2m/core/er-coap-13\er-coap-13.c **** int
 965:C:/Users/dtjld/Desktop/AIoT_software/LiteOS_Lab_overseas/LiteOS_Lab/iot_link/network/lwm2m/wakaama_lwm2m/core/er-coap-13\er-coap-13.c **** coap_set_header_accept(void *packet, uint16_t accept)
 966:C:/Users/dtjld/Desktop/AIoT_software/LiteOS_Lab_overseas/LiteOS_Lab/iot_link/network/lwm2m/wakaama_lwm2m/core/er-coap-13\er-coap-13.c **** {
 3645              		.loc 1 966 0
 3646              		.cfi_startproc
 3647              		@ args = 0, pretend = 0, frame = 16
 3648              		@ frame_needed = 1, uses_anonymous_args = 0
 3649              		@ link register save eliminated.
 3650 0000 80B4     		push	{r7}
 3651              	.LCFI128:
 3652              		.cfi_def_cfa_offset 4
 3653              		.cfi_offset 7, -4
 3654 0002 85B0     		sub	sp, sp, #20
 3655              	.LCFI129:
 3656              		.cfi_def_cfa_offset 24
 3657 0004 00AF     		add	r7, sp, #0
 3658              	.LCFI130:
 3659              		.cfi_def_cfa_register 7
 3660 0006 7860     		str	r0, [r7, #4]
 3661 0008 0B46     		mov	r3, r1
 3662 000a 7B80     		strh	r3, [r7, #2]	@ movhi
 967:C:/Users/dtjld/Desktop/AIoT_software/LiteOS_Lab_overseas/LiteOS_Lab/iot_link/network/lwm2m/wakaama_lwm2m/core/er-coap-13\er-coap-13.c ****     coap_packet_t *const coap_pkt = (coap_packet_t *) packet;
 3663              		.loc 1 967 0
 3664 000c 7B68     		ldr	r3, [r7, #4]
 3665 000e FB60     		str	r3, [r7, #12]
 968:C:/Users/dtjld/Desktop/AIoT_software/LiteOS_Lab_overseas/LiteOS_Lab/iot_link/network/lwm2m/wakaama_lwm2m/core/er-coap-13\er-coap-13.c **** 
 969:C:/Users/dtjld/Desktop/AIoT_software/LiteOS_Lab_overseas/LiteOS_Lab/iot_link/network/lwm2m/wakaama_lwm2m/core/er-coap-13\er-coap-13.c ****     if (coap_pkt->accept_num < COAP_MAX_ACCEPT_NUM)
 3666              		.loc 1 969 0
ARM GAS  C:\Users\dtjld\AppData\Local\Temp\ccpI0fza.s 			page 82


 3667 0010 FB68     		ldr	r3, [r7, #12]
 3668 0012 93F85530 		ldrb	r3, [r3, #85]	@ zero_extendqisi2
 3669 0016 012B     		cmp	r3, #1
 3670 0018 17D8     		bhi	.L192
 970:C:/Users/dtjld/Desktop/AIoT_software/LiteOS_Lab_overseas/LiteOS_Lab/iot_link/network/lwm2m/wakaama_lwm2m/core/er-coap-13\er-coap-13.c ****     {
 971:C:/Users/dtjld/Desktop/AIoT_software/LiteOS_Lab_overseas/LiteOS_Lab/iot_link/network/lwm2m/wakaama_lwm2m/core/er-coap-13\er-coap-13.c ****         coap_pkt->accept[coap_pkt->accept_num] = accept;
 3671              		.loc 1 971 0
 3672 001a FB68     		ldr	r3, [r7, #12]
 3673 001c 93F85530 		ldrb	r3, [r3, #85]	@ zero_extendqisi2
 3674 0020 FA68     		ldr	r2, [r7, #12]
 3675 0022 2833     		adds	r3, r3, #40
 3676 0024 5B00     		lsls	r3, r3, #1
 3677 0026 1344     		add	r3, r3, r2
 3678 0028 7A88     		ldrh	r2, [r7, #2]	@ movhi
 3679 002a DA80     		strh	r2, [r3, #6]	@ movhi
 972:C:/Users/dtjld/Desktop/AIoT_software/LiteOS_Lab_overseas/LiteOS_Lab/iot_link/network/lwm2m/wakaama_lwm2m/core/er-coap-13\er-coap-13.c ****         coap_pkt->accept_num += 1;
 3680              		.loc 1 972 0
 3681 002c FB68     		ldr	r3, [r7, #12]
 3682 002e 93F85530 		ldrb	r3, [r3, #85]	@ zero_extendqisi2
 3683 0032 0133     		adds	r3, r3, #1
 3684 0034 DAB2     		uxtb	r2, r3
 3685 0036 FB68     		ldr	r3, [r7, #12]
 3686 0038 83F85520 		strb	r2, [r3, #85]
 973:C:/Users/dtjld/Desktop/AIoT_software/LiteOS_Lab_overseas/LiteOS_Lab/iot_link/network/lwm2m/wakaama_lwm2m/core/er-coap-13\er-coap-13.c **** 
 974:C:/Users/dtjld/Desktop/AIoT_software/LiteOS_Lab_overseas/LiteOS_Lab/iot_link/network/lwm2m/wakaama_lwm2m/core/er-coap-13\er-coap-13.c ****         SET_OPTION(coap_pkt, COAP_OPTION_ACCEPT);
 3687              		.loc 1 974 0
 3688 003c FB68     		ldr	r3, [r7, #12]
 3689 003e 1B7B     		ldrb	r3, [r3, #12]	@ zero_extendqisi2
 3690 0040 43F00203 		orr	r3, r3, #2
 3691 0044 DAB2     		uxtb	r2, r3
 3692 0046 FB68     		ldr	r3, [r7, #12]
 3693 0048 1A73     		strb	r2, [r3, #12]
 3694              	.L192:
 975:C:/Users/dtjld/Desktop/AIoT_software/LiteOS_Lab_overseas/LiteOS_Lab/iot_link/network/lwm2m/wakaama_lwm2m/core/er-coap-13\er-coap-13.c ****     }
 976:C:/Users/dtjld/Desktop/AIoT_software/LiteOS_Lab_overseas/LiteOS_Lab/iot_link/network/lwm2m/wakaama_lwm2m/core/er-coap-13\er-coap-13.c ****     return coap_pkt->accept_num;
 3695              		.loc 1 976 0
 3696 004a FB68     		ldr	r3, [r7, #12]
 3697 004c 93F85530 		ldrb	r3, [r3, #85]	@ zero_extendqisi2
 977:C:/Users/dtjld/Desktop/AIoT_software/LiteOS_Lab_overseas/LiteOS_Lab/iot_link/network/lwm2m/wakaama_lwm2m/core/er-coap-13\er-coap-13.c **** }
 3698              		.loc 1 977 0
 3699 0050 1846     		mov	r0, r3
 3700 0052 1437     		adds	r7, r7, #20
 3701              	.LCFI131:
 3702              		.cfi_def_cfa_offset 4
 3703 0054 BD46     		mov	sp, r7
 3704              	.LCFI132:
 3705              		.cfi_def_cfa_register 13
 3706              		@ sp needed
 3707 0056 5DF8047B 		ldr	r7, [sp], #4
 3708              	.LCFI133:
 3709              		.cfi_restore 7
 3710              		.cfi_def_cfa_offset 0
 3711 005a 7047     		bx	lr
 3712              		.cfi_endproc
 3713              	.LFE28:
 3715              		.section	.text.coap_get_header_max_age,"ax",%progbits
 3716              		.align	1
ARM GAS  C:\Users\dtjld\AppData\Local\Temp\ccpI0fza.s 			page 83


 3717              		.global	coap_get_header_max_age
 3718              		.syntax unified
 3719              		.thumb
 3720              		.thumb_func
 3721              		.fpu fpv4-sp-d16
 3723              	coap_get_header_max_age:
 3724              	.LFB29:
 978:C:/Users/dtjld/Desktop/AIoT_software/LiteOS_Lab_overseas/LiteOS_Lab/iot_link/network/lwm2m/wakaama_lwm2m/core/er-coap-13\er-coap-13.c **** /*-----------------------------------------------------------------------------------*/
 979:C:/Users/dtjld/Desktop/AIoT_software/LiteOS_Lab_overseas/LiteOS_Lab/iot_link/network/lwm2m/wakaama_lwm2m/core/er-coap-13\er-coap-13.c **** int
 980:C:/Users/dtjld/Desktop/AIoT_software/LiteOS_Lab_overseas/LiteOS_Lab/iot_link/network/lwm2m/wakaama_lwm2m/core/er-coap-13\er-coap-13.c **** coap_get_header_max_age(void *packet, uint32_t *age)
 981:C:/Users/dtjld/Desktop/AIoT_software/LiteOS_Lab_overseas/LiteOS_Lab/iot_link/network/lwm2m/wakaama_lwm2m/core/er-coap-13\er-coap-13.c **** {
 3725              		.loc 1 981 0
 3726              		.cfi_startproc
 3727              		@ args = 0, pretend = 0, frame = 16
 3728              		@ frame_needed = 1, uses_anonymous_args = 0
 3729              		@ link register save eliminated.
 3730 0000 80B4     		push	{r7}
 3731              	.LCFI134:
 3732              		.cfi_def_cfa_offset 4
 3733              		.cfi_offset 7, -4
 3734 0002 85B0     		sub	sp, sp, #20
 3735              	.LCFI135:
 3736              		.cfi_def_cfa_offset 24
 3737 0004 00AF     		add	r7, sp, #0
 3738              	.LCFI136:
 3739              		.cfi_def_cfa_register 7
 3740 0006 7860     		str	r0, [r7, #4]
 3741 0008 3960     		str	r1, [r7]
 982:C:/Users/dtjld/Desktop/AIoT_software/LiteOS_Lab_overseas/LiteOS_Lab/iot_link/network/lwm2m/wakaama_lwm2m/core/er-coap-13\er-coap-13.c ****     coap_packet_t *const coap_pkt = (coap_packet_t *) packet;
 3742              		.loc 1 982 0
 3743 000a 7B68     		ldr	r3, [r7, #4]
 3744 000c FB60     		str	r3, [r7, #12]
 983:C:/Users/dtjld/Desktop/AIoT_software/LiteOS_Lab_overseas/LiteOS_Lab/iot_link/network/lwm2m/wakaama_lwm2m/core/er-coap-13\er-coap-13.c **** 
 984:C:/Users/dtjld/Desktop/AIoT_software/LiteOS_Lab_overseas/LiteOS_Lab/iot_link/network/lwm2m/wakaama_lwm2m/core/er-coap-13\er-coap-13.c ****     if (!IS_OPTION(coap_pkt, COAP_OPTION_MAX_AGE))
 3745              		.loc 1 984 0
 3746 000e FB68     		ldr	r3, [r7, #12]
 3747 0010 DB7A     		ldrb	r3, [r3, #11]	@ zero_extendqisi2
 3748 0012 03F04003 		and	r3, r3, #64
 3749 0016 002B     		cmp	r3, #0
 3750 0018 03D1     		bne	.L195
 985:C:/Users/dtjld/Desktop/AIoT_software/LiteOS_Lab_overseas/LiteOS_Lab/iot_link/network/lwm2m/wakaama_lwm2m/core/er-coap-13\er-coap-13.c ****     {
 986:C:/Users/dtjld/Desktop/AIoT_software/LiteOS_Lab_overseas/LiteOS_Lab/iot_link/network/lwm2m/wakaama_lwm2m/core/er-coap-13\er-coap-13.c ****         *age = COAP_DEFAULT_MAX_AGE;
 3751              		.loc 1 986 0
 3752 001a 3B68     		ldr	r3, [r7]
 3753 001c 3C22     		movs	r2, #60
 3754 001e 1A60     		str	r2, [r3]
 3755 0020 03E0     		b	.L196
 3756              	.L195:
 987:C:/Users/dtjld/Desktop/AIoT_software/LiteOS_Lab_overseas/LiteOS_Lab/iot_link/network/lwm2m/wakaama_lwm2m/core/er-coap-13\er-coap-13.c ****     }
 988:C:/Users/dtjld/Desktop/AIoT_software/LiteOS_Lab_overseas/LiteOS_Lab/iot_link/network/lwm2m/wakaama_lwm2m/core/er-coap-13\er-coap-13.c ****     else
 989:C:/Users/dtjld/Desktop/AIoT_software/LiteOS_Lab_overseas/LiteOS_Lab/iot_link/network/lwm2m/wakaama_lwm2m/core/er-coap-13\er-coap-13.c ****     {
 990:C:/Users/dtjld/Desktop/AIoT_software/LiteOS_Lab_overseas/LiteOS_Lab/iot_link/network/lwm2m/wakaama_lwm2m/core/er-coap-13\er-coap-13.c ****         *age = coap_pkt->max_age;
 3757              		.loc 1 990 0
 3758 0022 FB68     		ldr	r3, [r7, #12]
 3759 0024 5A69     		ldr	r2, [r3, #20]
 3760 0026 3B68     		ldr	r3, [r7]
 3761 0028 1A60     		str	r2, [r3]
ARM GAS  C:\Users\dtjld\AppData\Local\Temp\ccpI0fza.s 			page 84


 3762              	.L196:
 991:C:/Users/dtjld/Desktop/AIoT_software/LiteOS_Lab_overseas/LiteOS_Lab/iot_link/network/lwm2m/wakaama_lwm2m/core/er-coap-13\er-coap-13.c ****     }
 992:C:/Users/dtjld/Desktop/AIoT_software/LiteOS_Lab_overseas/LiteOS_Lab/iot_link/network/lwm2m/wakaama_lwm2m/core/er-coap-13\er-coap-13.c ****     return 1;
 3763              		.loc 1 992 0
 3764 002a 0123     		movs	r3, #1
 993:C:/Users/dtjld/Desktop/AIoT_software/LiteOS_Lab_overseas/LiteOS_Lab/iot_link/network/lwm2m/wakaama_lwm2m/core/er-coap-13\er-coap-13.c **** }
 3765              		.loc 1 993 0
 3766 002c 1846     		mov	r0, r3
 3767 002e 1437     		adds	r7, r7, #20
 3768              	.LCFI137:
 3769              		.cfi_def_cfa_offset 4
 3770 0030 BD46     		mov	sp, r7
 3771              	.LCFI138:
 3772              		.cfi_def_cfa_register 13
 3773              		@ sp needed
 3774 0032 5DF8047B 		ldr	r7, [sp], #4
 3775              	.LCFI139:
 3776              		.cfi_restore 7
 3777              		.cfi_def_cfa_offset 0
 3778 0036 7047     		bx	lr
 3779              		.cfi_endproc
 3780              	.LFE29:
 3782              		.section	.text.coap_set_header_max_age,"ax",%progbits
 3783              		.align	1
 3784              		.global	coap_set_header_max_age
 3785              		.syntax unified
 3786              		.thumb
 3787              		.thumb_func
 3788              		.fpu fpv4-sp-d16
 3790              	coap_set_header_max_age:
 3791              	.LFB30:
 994:C:/Users/dtjld/Desktop/AIoT_software/LiteOS_Lab_overseas/LiteOS_Lab/iot_link/network/lwm2m/wakaama_lwm2m/core/er-coap-13\er-coap-13.c **** 
 995:C:/Users/dtjld/Desktop/AIoT_software/LiteOS_Lab_overseas/LiteOS_Lab/iot_link/network/lwm2m/wakaama_lwm2m/core/er-coap-13\er-coap-13.c **** int
 996:C:/Users/dtjld/Desktop/AIoT_software/LiteOS_Lab_overseas/LiteOS_Lab/iot_link/network/lwm2m/wakaama_lwm2m/core/er-coap-13\er-coap-13.c **** coap_set_header_max_age(void *packet, uint32_t age)
 997:C:/Users/dtjld/Desktop/AIoT_software/LiteOS_Lab_overseas/LiteOS_Lab/iot_link/network/lwm2m/wakaama_lwm2m/core/er-coap-13\er-coap-13.c **** {
 3792              		.loc 1 997 0
 3793              		.cfi_startproc
 3794              		@ args = 0, pretend = 0, frame = 16
 3795              		@ frame_needed = 1, uses_anonymous_args = 0
 3796              		@ link register save eliminated.
 3797 0000 80B4     		push	{r7}
 3798              	.LCFI140:
 3799              		.cfi_def_cfa_offset 4
 3800              		.cfi_offset 7, -4
 3801 0002 85B0     		sub	sp, sp, #20
 3802              	.LCFI141:
 3803              		.cfi_def_cfa_offset 24
 3804 0004 00AF     		add	r7, sp, #0
 3805              	.LCFI142:
 3806              		.cfi_def_cfa_register 7
 3807 0006 7860     		str	r0, [r7, #4]
 3808 0008 3960     		str	r1, [r7]
 998:C:/Users/dtjld/Desktop/AIoT_software/LiteOS_Lab_overseas/LiteOS_Lab/iot_link/network/lwm2m/wakaama_lwm2m/core/er-coap-13\er-coap-13.c ****     coap_packet_t *const coap_pkt = (coap_packet_t *) packet;
 3809              		.loc 1 998 0
 3810 000a 7B68     		ldr	r3, [r7, #4]
 3811 000c FB60     		str	r3, [r7, #12]
 999:C:/Users/dtjld/Desktop/AIoT_software/LiteOS_Lab_overseas/LiteOS_Lab/iot_link/network/lwm2m/wakaama_lwm2m/core/er-coap-13\er-coap-13.c **** 
ARM GAS  C:\Users\dtjld\AppData\Local\Temp\ccpI0fza.s 			page 85


1000:C:/Users/dtjld/Desktop/AIoT_software/LiteOS_Lab_overseas/LiteOS_Lab/iot_link/network/lwm2m/wakaama_lwm2m/core/er-coap-13\er-coap-13.c ****     coap_pkt->max_age = age;
 3812              		.loc 1 1000 0
 3813 000e FB68     		ldr	r3, [r7, #12]
 3814 0010 3A68     		ldr	r2, [r7]
 3815 0012 5A61     		str	r2, [r3, #20]
1001:C:/Users/dtjld/Desktop/AIoT_software/LiteOS_Lab_overseas/LiteOS_Lab/iot_link/network/lwm2m/wakaama_lwm2m/core/er-coap-13\er-coap-13.c ****     SET_OPTION(coap_pkt, COAP_OPTION_MAX_AGE);
 3816              		.loc 1 1001 0
 3817 0014 FB68     		ldr	r3, [r7, #12]
 3818 0016 DB7A     		ldrb	r3, [r3, #11]	@ zero_extendqisi2
 3819 0018 43F04003 		orr	r3, r3, #64
 3820 001c DAB2     		uxtb	r2, r3
 3821 001e FB68     		ldr	r3, [r7, #12]
 3822 0020 DA72     		strb	r2, [r3, #11]
1002:C:/Users/dtjld/Desktop/AIoT_software/LiteOS_Lab_overseas/LiteOS_Lab/iot_link/network/lwm2m/wakaama_lwm2m/core/er-coap-13\er-coap-13.c ****     return 1;
 3823              		.loc 1 1002 0
 3824 0022 0123     		movs	r3, #1
1003:C:/Users/dtjld/Desktop/AIoT_software/LiteOS_Lab_overseas/LiteOS_Lab/iot_link/network/lwm2m/wakaama_lwm2m/core/er-coap-13\er-coap-13.c **** }
 3825              		.loc 1 1003 0
 3826 0024 1846     		mov	r0, r3
 3827 0026 1437     		adds	r7, r7, #20
 3828              	.LCFI143:
 3829              		.cfi_def_cfa_offset 4
 3830 0028 BD46     		mov	sp, r7
 3831              	.LCFI144:
 3832              		.cfi_def_cfa_register 13
 3833              		@ sp needed
 3834 002a 5DF8047B 		ldr	r7, [sp], #4
 3835              	.LCFI145:
 3836              		.cfi_restore 7
 3837              		.cfi_def_cfa_offset 0
 3838 002e 7047     		bx	lr
 3839              		.cfi_endproc
 3840              	.LFE30:
 3842              		.section	.text.coap_get_header_etag,"ax",%progbits
 3843              		.align	1
 3844              		.global	coap_get_header_etag
 3845              		.syntax unified
 3846              		.thumb
 3847              		.thumb_func
 3848              		.fpu fpv4-sp-d16
 3850              	coap_get_header_etag:
 3851              	.LFB31:
1004:C:/Users/dtjld/Desktop/AIoT_software/LiteOS_Lab_overseas/LiteOS_Lab/iot_link/network/lwm2m/wakaama_lwm2m/core/er-coap-13\er-coap-13.c **** /*-----------------------------------------------------------------------------------*/
1005:C:/Users/dtjld/Desktop/AIoT_software/LiteOS_Lab_overseas/LiteOS_Lab/iot_link/network/lwm2m/wakaama_lwm2m/core/er-coap-13\er-coap-13.c **** int
1006:C:/Users/dtjld/Desktop/AIoT_software/LiteOS_Lab_overseas/LiteOS_Lab/iot_link/network/lwm2m/wakaama_lwm2m/core/er-coap-13\er-coap-13.c **** coap_get_header_etag(void *packet, const uint8_t **etag)
1007:C:/Users/dtjld/Desktop/AIoT_software/LiteOS_Lab_overseas/LiteOS_Lab/iot_link/network/lwm2m/wakaama_lwm2m/core/er-coap-13\er-coap-13.c **** {
 3852              		.loc 1 1007 0
 3853              		.cfi_startproc
 3854              		@ args = 0, pretend = 0, frame = 16
 3855              		@ frame_needed = 1, uses_anonymous_args = 0
 3856              		@ link register save eliminated.
 3857 0000 80B4     		push	{r7}
 3858              	.LCFI146:
 3859              		.cfi_def_cfa_offset 4
 3860              		.cfi_offset 7, -4
 3861 0002 85B0     		sub	sp, sp, #20
 3862              	.LCFI147:
ARM GAS  C:\Users\dtjld\AppData\Local\Temp\ccpI0fza.s 			page 86


 3863              		.cfi_def_cfa_offset 24
 3864 0004 00AF     		add	r7, sp, #0
 3865              	.LCFI148:
 3866              		.cfi_def_cfa_register 7
 3867 0006 7860     		str	r0, [r7, #4]
 3868 0008 3960     		str	r1, [r7]
1008:C:/Users/dtjld/Desktop/AIoT_software/LiteOS_Lab_overseas/LiteOS_Lab/iot_link/network/lwm2m/wakaama_lwm2m/core/er-coap-13\er-coap-13.c ****     coap_packet_t *const coap_pkt = (coap_packet_t *) packet;
 3869              		.loc 1 1008 0
 3870 000a 7B68     		ldr	r3, [r7, #4]
 3871 000c FB60     		str	r3, [r7, #12]
1009:C:/Users/dtjld/Desktop/AIoT_software/LiteOS_Lab_overseas/LiteOS_Lab/iot_link/network/lwm2m/wakaama_lwm2m/core/er-coap-13\er-coap-13.c **** 
1010:C:/Users/dtjld/Desktop/AIoT_software/LiteOS_Lab_overseas/LiteOS_Lab/iot_link/network/lwm2m/wakaama_lwm2m/core/er-coap-13\er-coap-13.c ****     if (!IS_OPTION(coap_pkt, COAP_OPTION_ETAG)) return 0;
 3872              		.loc 1 1010 0
 3873 000e FB68     		ldr	r3, [r7, #12]
 3874 0010 9B7A     		ldrb	r3, [r3, #10]	@ zero_extendqisi2
 3875 0012 03F01003 		and	r3, r3, #16
 3876 0016 002B     		cmp	r3, #0
 3877 0018 01D1     		bne	.L201
 3878              		.loc 1 1010 0 is_stmt 0 discriminator 1
 3879 001a 0023     		movs	r3, #0
 3880 001c 07E0     		b	.L202
 3881              	.L201:
1011:C:/Users/dtjld/Desktop/AIoT_software/LiteOS_Lab_overseas/LiteOS_Lab/iot_link/network/lwm2m/wakaama_lwm2m/core/er-coap-13\er-coap-13.c **** 
1012:C:/Users/dtjld/Desktop/AIoT_software/LiteOS_Lab_overseas/LiteOS_Lab/iot_link/network/lwm2m/wakaama_lwm2m/core/er-coap-13\er-coap-13.c ****     *etag = coap_pkt->etag;
 3882              		.loc 1 1012 0 is_stmt 1
 3883 001e FB68     		ldr	r3, [r7, #12]
 3884 0020 03F12102 		add	r2, r3, #33
 3885 0024 3B68     		ldr	r3, [r7]
 3886 0026 1A60     		str	r2, [r3]
1013:C:/Users/dtjld/Desktop/AIoT_software/LiteOS_Lab_overseas/LiteOS_Lab/iot_link/network/lwm2m/wakaama_lwm2m/core/er-coap-13\er-coap-13.c ****     return coap_pkt->etag_len;
 3887              		.loc 1 1013 0
 3888 0028 FB68     		ldr	r3, [r7, #12]
 3889 002a 93F82030 		ldrb	r3, [r3, #32]	@ zero_extendqisi2
 3890              	.L202:
1014:C:/Users/dtjld/Desktop/AIoT_software/LiteOS_Lab_overseas/LiteOS_Lab/iot_link/network/lwm2m/wakaama_lwm2m/core/er-coap-13\er-coap-13.c **** }
 3891              		.loc 1 1014 0
 3892 002e 1846     		mov	r0, r3
 3893 0030 1437     		adds	r7, r7, #20
 3894              	.LCFI149:
 3895              		.cfi_def_cfa_offset 4
 3896 0032 BD46     		mov	sp, r7
 3897              	.LCFI150:
 3898              		.cfi_def_cfa_register 13
 3899              		@ sp needed
 3900 0034 5DF8047B 		ldr	r7, [sp], #4
 3901              	.LCFI151:
 3902              		.cfi_restore 7
 3903              		.cfi_def_cfa_offset 0
 3904 0038 7047     		bx	lr
 3905              		.cfi_endproc
 3906              	.LFE31:
 3908              		.section	.text.coap_set_header_etag,"ax",%progbits
 3909              		.align	1
 3910              		.global	coap_set_header_etag
 3911              		.syntax unified
 3912              		.thumb
 3913              		.thumb_func
ARM GAS  C:\Users\dtjld\AppData\Local\Temp\ccpI0fza.s 			page 87


 3914              		.fpu fpv4-sp-d16
 3916              	coap_set_header_etag:
 3917              	.LFB32:
1015:C:/Users/dtjld/Desktop/AIoT_software/LiteOS_Lab_overseas/LiteOS_Lab/iot_link/network/lwm2m/wakaama_lwm2m/core/er-coap-13\er-coap-13.c **** 
1016:C:/Users/dtjld/Desktop/AIoT_software/LiteOS_Lab_overseas/LiteOS_Lab/iot_link/network/lwm2m/wakaama_lwm2m/core/er-coap-13\er-coap-13.c **** int
1017:C:/Users/dtjld/Desktop/AIoT_software/LiteOS_Lab_overseas/LiteOS_Lab/iot_link/network/lwm2m/wakaama_lwm2m/core/er-coap-13\er-coap-13.c **** coap_set_header_etag(void *packet, const uint8_t *etag, size_t etag_len)
1018:C:/Users/dtjld/Desktop/AIoT_software/LiteOS_Lab_overseas/LiteOS_Lab/iot_link/network/lwm2m/wakaama_lwm2m/core/er-coap-13\er-coap-13.c **** {
 3918              		.loc 1 1018 0
 3919              		.cfi_startproc
 3920              		@ args = 0, pretend = 0, frame = 24
 3921              		@ frame_needed = 1, uses_anonymous_args = 0
 3922 0000 80B5     		push	{r7, lr}
 3923              	.LCFI152:
 3924              		.cfi_def_cfa_offset 8
 3925              		.cfi_offset 7, -8
 3926              		.cfi_offset 14, -4
 3927 0002 86B0     		sub	sp, sp, #24
 3928              	.LCFI153:
 3929              		.cfi_def_cfa_offset 32
 3930 0004 00AF     		add	r7, sp, #0
 3931              	.LCFI154:
 3932              		.cfi_def_cfa_register 7
 3933 0006 F860     		str	r0, [r7, #12]
 3934 0008 B960     		str	r1, [r7, #8]
 3935 000a 7A60     		str	r2, [r7, #4]
1019:C:/Users/dtjld/Desktop/AIoT_software/LiteOS_Lab_overseas/LiteOS_Lab/iot_link/network/lwm2m/wakaama_lwm2m/core/er-coap-13\er-coap-13.c ****     coap_packet_t *const coap_pkt = (coap_packet_t *) packet;
 3936              		.loc 1 1019 0
 3937 000c FB68     		ldr	r3, [r7, #12]
 3938 000e 7B61     		str	r3, [r7, #20]
1020:C:/Users/dtjld/Desktop/AIoT_software/LiteOS_Lab_overseas/LiteOS_Lab/iot_link/network/lwm2m/wakaama_lwm2m/core/er-coap-13\er-coap-13.c **** 
1021:C:/Users/dtjld/Desktop/AIoT_software/LiteOS_Lab_overseas/LiteOS_Lab/iot_link/network/lwm2m/wakaama_lwm2m/core/er-coap-13\er-coap-13.c ****     coap_pkt->etag_len = (uint8_t)(MIN(COAP_ETAG_LEN, etag_len));
 3939              		.loc 1 1021 0
 3940 0010 7B68     		ldr	r3, [r7, #4]
 3941 0012 082B     		cmp	r3, #8
 3942 0014 02D8     		bhi	.L204
 3943              		.loc 1 1021 0 is_stmt 0 discriminator 1
 3944 0016 7B68     		ldr	r3, [r7, #4]
 3945 0018 DAB2     		uxtb	r2, r3
 3946 001a 00E0     		b	.L205
 3947              	.L204:
 3948              		.loc 1 1021 0 discriminator 2
 3949 001c 0822     		movs	r2, #8
 3950              	.L205:
 3951              		.loc 1 1021 0 discriminator 4
 3952 001e 7B69     		ldr	r3, [r7, #20]
 3953 0020 83F82020 		strb	r2, [r3, #32]
1022:C:/Users/dtjld/Desktop/AIoT_software/LiteOS_Lab_overseas/LiteOS_Lab/iot_link/network/lwm2m/wakaama_lwm2m/core/er-coap-13\er-coap-13.c ****     memcpy(coap_pkt->etag, etag, coap_pkt->etag_len);
 3954              		.loc 1 1022 0 is_stmt 1 discriminator 4
 3955 0024 7B69     		ldr	r3, [r7, #20]
 3956 0026 03F12100 		add	r0, r3, #33
 3957 002a 7B69     		ldr	r3, [r7, #20]
 3958 002c 93F82030 		ldrb	r3, [r3, #32]	@ zero_extendqisi2
 3959 0030 1A46     		mov	r2, r3
 3960 0032 B968     		ldr	r1, [r7, #8]
 3961 0034 FFF7FEFF 		bl	memcpy
1023:C:/Users/dtjld/Desktop/AIoT_software/LiteOS_Lab_overseas/LiteOS_Lab/iot_link/network/lwm2m/wakaama_lwm2m/core/er-coap-13\er-coap-13.c **** 
1024:C:/Users/dtjld/Desktop/AIoT_software/LiteOS_Lab_overseas/LiteOS_Lab/iot_link/network/lwm2m/wakaama_lwm2m/core/er-coap-13\er-coap-13.c ****     SET_OPTION(coap_pkt, COAP_OPTION_ETAG);
ARM GAS  C:\Users\dtjld\AppData\Local\Temp\ccpI0fza.s 			page 88


 3962              		.loc 1 1024 0 discriminator 4
 3963 0038 7B69     		ldr	r3, [r7, #20]
 3964 003a 9B7A     		ldrb	r3, [r3, #10]	@ zero_extendqisi2
 3965 003c 43F01003 		orr	r3, r3, #16
 3966 0040 DAB2     		uxtb	r2, r3
 3967 0042 7B69     		ldr	r3, [r7, #20]
 3968 0044 9A72     		strb	r2, [r3, #10]
1025:C:/Users/dtjld/Desktop/AIoT_software/LiteOS_Lab_overseas/LiteOS_Lab/iot_link/network/lwm2m/wakaama_lwm2m/core/er-coap-13\er-coap-13.c ****     return coap_pkt->etag_len;
 3969              		.loc 1 1025 0 discriminator 4
 3970 0046 7B69     		ldr	r3, [r7, #20]
 3971 0048 93F82030 		ldrb	r3, [r3, #32]	@ zero_extendqisi2
1026:C:/Users/dtjld/Desktop/AIoT_software/LiteOS_Lab_overseas/LiteOS_Lab/iot_link/network/lwm2m/wakaama_lwm2m/core/er-coap-13\er-coap-13.c **** }
 3972              		.loc 1 1026 0 discriminator 4
 3973 004c 1846     		mov	r0, r3
 3974 004e 1837     		adds	r7, r7, #24
 3975              	.LCFI155:
 3976              		.cfi_def_cfa_offset 8
 3977 0050 BD46     		mov	sp, r7
 3978              	.LCFI156:
 3979              		.cfi_def_cfa_register 13
 3980              		@ sp needed
 3981 0052 80BD     		pop	{r7, pc}
 3982              		.cfi_endproc
 3983              	.LFE32:
 3985              		.section	.text.coap_get_header_if_match,"ax",%progbits
 3986              		.align	1
 3987              		.global	coap_get_header_if_match
 3988              		.syntax unified
 3989              		.thumb
 3990              		.thumb_func
 3991              		.fpu fpv4-sp-d16
 3993              	coap_get_header_if_match:
 3994              	.LFB33:
1027:C:/Users/dtjld/Desktop/AIoT_software/LiteOS_Lab_overseas/LiteOS_Lab/iot_link/network/lwm2m/wakaama_lwm2m/core/er-coap-13\er-coap-13.c **** /*-----------------------------------------------------------------------------------*/
1028:C:/Users/dtjld/Desktop/AIoT_software/LiteOS_Lab_overseas/LiteOS_Lab/iot_link/network/lwm2m/wakaama_lwm2m/core/er-coap-13\er-coap-13.c **** /*FIXME support multiple ETags */
1029:C:/Users/dtjld/Desktop/AIoT_software/LiteOS_Lab_overseas/LiteOS_Lab/iot_link/network/lwm2m/wakaama_lwm2m/core/er-coap-13\er-coap-13.c **** int
1030:C:/Users/dtjld/Desktop/AIoT_software/LiteOS_Lab_overseas/LiteOS_Lab/iot_link/network/lwm2m/wakaama_lwm2m/core/er-coap-13\er-coap-13.c **** coap_get_header_if_match(void *packet, const uint8_t **etag)
1031:C:/Users/dtjld/Desktop/AIoT_software/LiteOS_Lab_overseas/LiteOS_Lab/iot_link/network/lwm2m/wakaama_lwm2m/core/er-coap-13\er-coap-13.c **** {
 3995              		.loc 1 1031 0
 3996              		.cfi_startproc
 3997              		@ args = 0, pretend = 0, frame = 16
 3998              		@ frame_needed = 1, uses_anonymous_args = 0
 3999              		@ link register save eliminated.
 4000 0000 80B4     		push	{r7}
 4001              	.LCFI157:
 4002              		.cfi_def_cfa_offset 4
 4003              		.cfi_offset 7, -4
 4004 0002 85B0     		sub	sp, sp, #20
 4005              	.LCFI158:
 4006              		.cfi_def_cfa_offset 24
 4007 0004 00AF     		add	r7, sp, #0
 4008              	.LCFI159:
 4009              		.cfi_def_cfa_register 7
 4010 0006 7860     		str	r0, [r7, #4]
 4011 0008 3960     		str	r1, [r7]
1032:C:/Users/dtjld/Desktop/AIoT_software/LiteOS_Lab_overseas/LiteOS_Lab/iot_link/network/lwm2m/wakaama_lwm2m/core/er-coap-13\er-coap-13.c ****     coap_packet_t *const coap_pkt = (coap_packet_t *) packet;
 4012              		.loc 1 1032 0
ARM GAS  C:\Users\dtjld\AppData\Local\Temp\ccpI0fza.s 			page 89


 4013 000a 7B68     		ldr	r3, [r7, #4]
 4014 000c FB60     		str	r3, [r7, #12]
1033:C:/Users/dtjld/Desktop/AIoT_software/LiteOS_Lab_overseas/LiteOS_Lab/iot_link/network/lwm2m/wakaama_lwm2m/core/er-coap-13\er-coap-13.c **** 
1034:C:/Users/dtjld/Desktop/AIoT_software/LiteOS_Lab_overseas/LiteOS_Lab/iot_link/network/lwm2m/wakaama_lwm2m/core/er-coap-13\er-coap-13.c ****     if (!IS_OPTION(coap_pkt, COAP_OPTION_IF_MATCH)) return 0;
 4015              		.loc 1 1034 0
 4016 000e FB68     		ldr	r3, [r7, #12]
 4017 0010 9B7A     		ldrb	r3, [r3, #10]	@ zero_extendqisi2
 4018 0012 03F00203 		and	r3, r3, #2
 4019 0016 002B     		cmp	r3, #0
 4020 0018 01D1     		bne	.L208
 4021              		.loc 1 1034 0 is_stmt 0 discriminator 1
 4022 001a 0023     		movs	r3, #0
 4023 001c 07E0     		b	.L209
 4024              	.L208:
1035:C:/Users/dtjld/Desktop/AIoT_software/LiteOS_Lab_overseas/LiteOS_Lab/iot_link/network/lwm2m/wakaama_lwm2m/core/er-coap-13\er-coap-13.c **** 
1036:C:/Users/dtjld/Desktop/AIoT_software/LiteOS_Lab_overseas/LiteOS_Lab/iot_link/network/lwm2m/wakaama_lwm2m/core/er-coap-13\er-coap-13.c ****     *etag = coap_pkt->if_match;
 4025              		.loc 1 1036 0 is_stmt 1
 4026 001e FB68     		ldr	r3, [r7, #12]
 4027 0020 03F15B02 		add	r2, r3, #91
 4028 0024 3B68     		ldr	r3, [r7]
 4029 0026 1A60     		str	r2, [r3]
1037:C:/Users/dtjld/Desktop/AIoT_software/LiteOS_Lab_overseas/LiteOS_Lab/iot_link/network/lwm2m/wakaama_lwm2m/core/er-coap-13\er-coap-13.c ****     return coap_pkt->if_match_len;
 4030              		.loc 1 1037 0
 4031 0028 FB68     		ldr	r3, [r7, #12]
 4032 002a 93F85A30 		ldrb	r3, [r3, #90]	@ zero_extendqisi2
 4033              	.L209:
1038:C:/Users/dtjld/Desktop/AIoT_software/LiteOS_Lab_overseas/LiteOS_Lab/iot_link/network/lwm2m/wakaama_lwm2m/core/er-coap-13\er-coap-13.c **** }
 4034              		.loc 1 1038 0
 4035 002e 1846     		mov	r0, r3
 4036 0030 1437     		adds	r7, r7, #20
 4037              	.LCFI160:
 4038              		.cfi_def_cfa_offset 4
 4039 0032 BD46     		mov	sp, r7
 4040              	.LCFI161:
 4041              		.cfi_def_cfa_register 13
 4042              		@ sp needed
 4043 0034 5DF8047B 		ldr	r7, [sp], #4
 4044              	.LCFI162:
 4045              		.cfi_restore 7
 4046              		.cfi_def_cfa_offset 0
 4047 0038 7047     		bx	lr
 4048              		.cfi_endproc
 4049              	.LFE33:
 4051              		.section	.text.coap_set_header_if_match,"ax",%progbits
 4052              		.align	1
 4053              		.global	coap_set_header_if_match
 4054              		.syntax unified
 4055              		.thumb
 4056              		.thumb_func
 4057              		.fpu fpv4-sp-d16
 4059              	coap_set_header_if_match:
 4060              	.LFB34:
1039:C:/Users/dtjld/Desktop/AIoT_software/LiteOS_Lab_overseas/LiteOS_Lab/iot_link/network/lwm2m/wakaama_lwm2m/core/er-coap-13\er-coap-13.c **** 
1040:C:/Users/dtjld/Desktop/AIoT_software/LiteOS_Lab_overseas/LiteOS_Lab/iot_link/network/lwm2m/wakaama_lwm2m/core/er-coap-13\er-coap-13.c **** int
1041:C:/Users/dtjld/Desktop/AIoT_software/LiteOS_Lab_overseas/LiteOS_Lab/iot_link/network/lwm2m/wakaama_lwm2m/core/er-coap-13\er-coap-13.c **** coap_set_header_if_match(void *packet, const uint8_t *etag, size_t etag_len)
1042:C:/Users/dtjld/Desktop/AIoT_software/LiteOS_Lab_overseas/LiteOS_Lab/iot_link/network/lwm2m/wakaama_lwm2m/core/er-coap-13\er-coap-13.c **** {
 4061              		.loc 1 1042 0
ARM GAS  C:\Users\dtjld\AppData\Local\Temp\ccpI0fza.s 			page 90


 4062              		.cfi_startproc
 4063              		@ args = 0, pretend = 0, frame = 24
 4064              		@ frame_needed = 1, uses_anonymous_args = 0
 4065 0000 80B5     		push	{r7, lr}
 4066              	.LCFI163:
 4067              		.cfi_def_cfa_offset 8
 4068              		.cfi_offset 7, -8
 4069              		.cfi_offset 14, -4
 4070 0002 86B0     		sub	sp, sp, #24
 4071              	.LCFI164:
 4072              		.cfi_def_cfa_offset 32
 4073 0004 00AF     		add	r7, sp, #0
 4074              	.LCFI165:
 4075              		.cfi_def_cfa_register 7
 4076 0006 F860     		str	r0, [r7, #12]
 4077 0008 B960     		str	r1, [r7, #8]
 4078 000a 7A60     		str	r2, [r7, #4]
1043:C:/Users/dtjld/Desktop/AIoT_software/LiteOS_Lab_overseas/LiteOS_Lab/iot_link/network/lwm2m/wakaama_lwm2m/core/er-coap-13\er-coap-13.c ****     coap_packet_t *const coap_pkt = (coap_packet_t *) packet;
 4079              		.loc 1 1043 0
 4080 000c FB68     		ldr	r3, [r7, #12]
 4081 000e 7B61     		str	r3, [r7, #20]
1044:C:/Users/dtjld/Desktop/AIoT_software/LiteOS_Lab_overseas/LiteOS_Lab/iot_link/network/lwm2m/wakaama_lwm2m/core/er-coap-13\er-coap-13.c **** 
1045:C:/Users/dtjld/Desktop/AIoT_software/LiteOS_Lab_overseas/LiteOS_Lab/iot_link/network/lwm2m/wakaama_lwm2m/core/er-coap-13\er-coap-13.c ****     coap_pkt->if_match_len = (uint8_t)(MIN(COAP_ETAG_LEN, etag_len));
 4082              		.loc 1 1045 0
 4083 0010 7B68     		ldr	r3, [r7, #4]
 4084 0012 082B     		cmp	r3, #8
 4085 0014 02D8     		bhi	.L211
 4086              		.loc 1 1045 0 is_stmt 0 discriminator 1
 4087 0016 7B68     		ldr	r3, [r7, #4]
 4088 0018 DAB2     		uxtb	r2, r3
 4089 001a 00E0     		b	.L212
 4090              	.L211:
 4091              		.loc 1 1045 0 discriminator 2
 4092 001c 0822     		movs	r2, #8
 4093              	.L212:
 4094              		.loc 1 1045 0 discriminator 4
 4095 001e 7B69     		ldr	r3, [r7, #20]
 4096 0020 83F85A20 		strb	r2, [r3, #90]
1046:C:/Users/dtjld/Desktop/AIoT_software/LiteOS_Lab_overseas/LiteOS_Lab/iot_link/network/lwm2m/wakaama_lwm2m/core/er-coap-13\er-coap-13.c ****     memcpy(coap_pkt->if_match, etag, coap_pkt->if_match_len);
 4097              		.loc 1 1046 0 is_stmt 1 discriminator 4
 4098 0024 7B69     		ldr	r3, [r7, #20]
 4099 0026 03F15B00 		add	r0, r3, #91
 4100 002a 7B69     		ldr	r3, [r7, #20]
 4101 002c 93F85A30 		ldrb	r3, [r3, #90]	@ zero_extendqisi2
 4102 0030 1A46     		mov	r2, r3
 4103 0032 B968     		ldr	r1, [r7, #8]
 4104 0034 FFF7FEFF 		bl	memcpy
1047:C:/Users/dtjld/Desktop/AIoT_software/LiteOS_Lab_overseas/LiteOS_Lab/iot_link/network/lwm2m/wakaama_lwm2m/core/er-coap-13\er-coap-13.c **** 
1048:C:/Users/dtjld/Desktop/AIoT_software/LiteOS_Lab_overseas/LiteOS_Lab/iot_link/network/lwm2m/wakaama_lwm2m/core/er-coap-13\er-coap-13.c ****     SET_OPTION(coap_pkt, COAP_OPTION_IF_MATCH);
 4105              		.loc 1 1048 0 discriminator 4
 4106 0038 7B69     		ldr	r3, [r7, #20]
 4107 003a 9B7A     		ldrb	r3, [r3, #10]	@ zero_extendqisi2
 4108 003c 43F00203 		orr	r3, r3, #2
 4109 0040 DAB2     		uxtb	r2, r3
 4110 0042 7B69     		ldr	r3, [r7, #20]
 4111 0044 9A72     		strb	r2, [r3, #10]
1049:C:/Users/dtjld/Desktop/AIoT_software/LiteOS_Lab_overseas/LiteOS_Lab/iot_link/network/lwm2m/wakaama_lwm2m/core/er-coap-13\er-coap-13.c ****     return coap_pkt->if_match_len;
ARM GAS  C:\Users\dtjld\AppData\Local\Temp\ccpI0fza.s 			page 91


 4112              		.loc 1 1049 0 discriminator 4
 4113 0046 7B69     		ldr	r3, [r7, #20]
 4114 0048 93F85A30 		ldrb	r3, [r3, #90]	@ zero_extendqisi2
1050:C:/Users/dtjld/Desktop/AIoT_software/LiteOS_Lab_overseas/LiteOS_Lab/iot_link/network/lwm2m/wakaama_lwm2m/core/er-coap-13\er-coap-13.c **** }
 4115              		.loc 1 1050 0 discriminator 4
 4116 004c 1846     		mov	r0, r3
 4117 004e 1837     		adds	r7, r7, #24
 4118              	.LCFI166:
 4119              		.cfi_def_cfa_offset 8
 4120 0050 BD46     		mov	sp, r7
 4121              	.LCFI167:
 4122              		.cfi_def_cfa_register 13
 4123              		@ sp needed
 4124 0052 80BD     		pop	{r7, pc}
 4125              		.cfi_endproc
 4126              	.LFE34:
 4128              		.section	.text.coap_get_header_if_none_match,"ax",%progbits
 4129              		.align	1
 4130              		.global	coap_get_header_if_none_match
 4131              		.syntax unified
 4132              		.thumb
 4133              		.thumb_func
 4134              		.fpu fpv4-sp-d16
 4136              	coap_get_header_if_none_match:
 4137              	.LFB35:
1051:C:/Users/dtjld/Desktop/AIoT_software/LiteOS_Lab_overseas/LiteOS_Lab/iot_link/network/lwm2m/wakaama_lwm2m/core/er-coap-13\er-coap-13.c **** /*-----------------------------------------------------------------------------------*/
1052:C:/Users/dtjld/Desktop/AIoT_software/LiteOS_Lab_overseas/LiteOS_Lab/iot_link/network/lwm2m/wakaama_lwm2m/core/er-coap-13\er-coap-13.c **** int
1053:C:/Users/dtjld/Desktop/AIoT_software/LiteOS_Lab_overseas/LiteOS_Lab/iot_link/network/lwm2m/wakaama_lwm2m/core/er-coap-13\er-coap-13.c **** coap_get_header_if_none_match(void *packet)
1054:C:/Users/dtjld/Desktop/AIoT_software/LiteOS_Lab_overseas/LiteOS_Lab/iot_link/network/lwm2m/wakaama_lwm2m/core/er-coap-13\er-coap-13.c **** {
 4138              		.loc 1 1054 0
 4139              		.cfi_startproc
 4140              		@ args = 0, pretend = 0, frame = 8
 4141              		@ frame_needed = 1, uses_anonymous_args = 0
 4142              		@ link register save eliminated.
 4143 0000 80B4     		push	{r7}
 4144              	.LCFI168:
 4145              		.cfi_def_cfa_offset 4
 4146              		.cfi_offset 7, -4
 4147 0002 83B0     		sub	sp, sp, #12
 4148              	.LCFI169:
 4149              		.cfi_def_cfa_offset 16
 4150 0004 00AF     		add	r7, sp, #0
 4151              	.LCFI170:
 4152              		.cfi_def_cfa_register 7
 4153 0006 7860     		str	r0, [r7, #4]
1055:C:/Users/dtjld/Desktop/AIoT_software/LiteOS_Lab_overseas/LiteOS_Lab/iot_link/network/lwm2m/wakaama_lwm2m/core/er-coap-13\er-coap-13.c ****     return IS_OPTION((coap_packet_t *)packet, COAP_OPTION_IF_NONE_MATCH) ? 1 : 0;
 4154              		.loc 1 1055 0
 4155 0008 7B68     		ldr	r3, [r7, #4]
 4156 000a 9B7A     		ldrb	r3, [r3, #10]	@ zero_extendqisi2
 4157 000c 5B11     		asrs	r3, r3, #5
 4158 000e 03F00103 		and	r3, r3, #1
1056:C:/Users/dtjld/Desktop/AIoT_software/LiteOS_Lab_overseas/LiteOS_Lab/iot_link/network/lwm2m/wakaama_lwm2m/core/er-coap-13\er-coap-13.c **** }
 4159              		.loc 1 1056 0
 4160 0012 1846     		mov	r0, r3
 4161 0014 0C37     		adds	r7, r7, #12
 4162              	.LCFI171:
 4163              		.cfi_def_cfa_offset 4
ARM GAS  C:\Users\dtjld\AppData\Local\Temp\ccpI0fza.s 			page 92


 4164 0016 BD46     		mov	sp, r7
 4165              	.LCFI172:
 4166              		.cfi_def_cfa_register 13
 4167              		@ sp needed
 4168 0018 5DF8047B 		ldr	r7, [sp], #4
 4169              	.LCFI173:
 4170              		.cfi_restore 7
 4171              		.cfi_def_cfa_offset 0
 4172 001c 7047     		bx	lr
 4173              		.cfi_endproc
 4174              	.LFE35:
 4176              		.section	.text.coap_set_header_if_none_match,"ax",%progbits
 4177              		.align	1
 4178              		.global	coap_set_header_if_none_match
 4179              		.syntax unified
 4180              		.thumb
 4181              		.thumb_func
 4182              		.fpu fpv4-sp-d16
 4184              	coap_set_header_if_none_match:
 4185              	.LFB36:
1057:C:/Users/dtjld/Desktop/AIoT_software/LiteOS_Lab_overseas/LiteOS_Lab/iot_link/network/lwm2m/wakaama_lwm2m/core/er-coap-13\er-coap-13.c **** 
1058:C:/Users/dtjld/Desktop/AIoT_software/LiteOS_Lab_overseas/LiteOS_Lab/iot_link/network/lwm2m/wakaama_lwm2m/core/er-coap-13\er-coap-13.c **** int
1059:C:/Users/dtjld/Desktop/AIoT_software/LiteOS_Lab_overseas/LiteOS_Lab/iot_link/network/lwm2m/wakaama_lwm2m/core/er-coap-13\er-coap-13.c **** coap_set_header_if_none_match(void *packet)
1060:C:/Users/dtjld/Desktop/AIoT_software/LiteOS_Lab_overseas/LiteOS_Lab/iot_link/network/lwm2m/wakaama_lwm2m/core/er-coap-13\er-coap-13.c **** {
 4186              		.loc 1 1060 0
 4187              		.cfi_startproc
 4188              		@ args = 0, pretend = 0, frame = 8
 4189              		@ frame_needed = 1, uses_anonymous_args = 0
 4190              		@ link register save eliminated.
 4191 0000 80B4     		push	{r7}
 4192              	.LCFI174:
 4193              		.cfi_def_cfa_offset 4
 4194              		.cfi_offset 7, -4
 4195 0002 83B0     		sub	sp, sp, #12
 4196              	.LCFI175:
 4197              		.cfi_def_cfa_offset 16
 4198 0004 00AF     		add	r7, sp, #0
 4199              	.LCFI176:
 4200              		.cfi_def_cfa_register 7
 4201 0006 7860     		str	r0, [r7, #4]
1061:C:/Users/dtjld/Desktop/AIoT_software/LiteOS_Lab_overseas/LiteOS_Lab/iot_link/network/lwm2m/wakaama_lwm2m/core/er-coap-13\er-coap-13.c ****     SET_OPTION((coap_packet_t *)packet, COAP_OPTION_IF_NONE_MATCH);
 4202              		.loc 1 1061 0
 4203 0008 7B68     		ldr	r3, [r7, #4]
 4204 000a 9B7A     		ldrb	r3, [r3, #10]	@ zero_extendqisi2
 4205 000c 43F02003 		orr	r3, r3, #32
 4206 0010 DAB2     		uxtb	r2, r3
 4207 0012 7B68     		ldr	r3, [r7, #4]
 4208 0014 9A72     		strb	r2, [r3, #10]
1062:C:/Users/dtjld/Desktop/AIoT_software/LiteOS_Lab_overseas/LiteOS_Lab/iot_link/network/lwm2m/wakaama_lwm2m/core/er-coap-13\er-coap-13.c ****     return 1;
 4209              		.loc 1 1062 0
 4210 0016 0123     		movs	r3, #1
1063:C:/Users/dtjld/Desktop/AIoT_software/LiteOS_Lab_overseas/LiteOS_Lab/iot_link/network/lwm2m/wakaama_lwm2m/core/er-coap-13\er-coap-13.c **** }
 4211              		.loc 1 1063 0
 4212 0018 1846     		mov	r0, r3
 4213 001a 0C37     		adds	r7, r7, #12
 4214              	.LCFI177:
 4215              		.cfi_def_cfa_offset 4
ARM GAS  C:\Users\dtjld\AppData\Local\Temp\ccpI0fza.s 			page 93


 4216 001c BD46     		mov	sp, r7
 4217              	.LCFI178:
 4218              		.cfi_def_cfa_register 13
 4219              		@ sp needed
 4220 001e 5DF8047B 		ldr	r7, [sp], #4
 4221              	.LCFI179:
 4222              		.cfi_restore 7
 4223              		.cfi_def_cfa_offset 0
 4224 0022 7047     		bx	lr
 4225              		.cfi_endproc
 4226              	.LFE36:
 4228              		.section	.text.coap_get_header_token,"ax",%progbits
 4229              		.align	1
 4230              		.global	coap_get_header_token
 4231              		.syntax unified
 4232              		.thumb
 4233              		.thumb_func
 4234              		.fpu fpv4-sp-d16
 4236              	coap_get_header_token:
 4237              	.LFB37:
1064:C:/Users/dtjld/Desktop/AIoT_software/LiteOS_Lab_overseas/LiteOS_Lab/iot_link/network/lwm2m/wakaama_lwm2m/core/er-coap-13\er-coap-13.c **** /*-----------------------------------------------------------------------------------*/
1065:C:/Users/dtjld/Desktop/AIoT_software/LiteOS_Lab_overseas/LiteOS_Lab/iot_link/network/lwm2m/wakaama_lwm2m/core/er-coap-13\er-coap-13.c **** int
1066:C:/Users/dtjld/Desktop/AIoT_software/LiteOS_Lab_overseas/LiteOS_Lab/iot_link/network/lwm2m/wakaama_lwm2m/core/er-coap-13\er-coap-13.c **** coap_get_header_token(void *packet, const uint8_t **token)
1067:C:/Users/dtjld/Desktop/AIoT_software/LiteOS_Lab_overseas/LiteOS_Lab/iot_link/network/lwm2m/wakaama_lwm2m/core/er-coap-13\er-coap-13.c **** {
 4238              		.loc 1 1067 0
 4239              		.cfi_startproc
 4240              		@ args = 0, pretend = 0, frame = 16
 4241              		@ frame_needed = 1, uses_anonymous_args = 0
 4242              		@ link register save eliminated.
 4243 0000 80B4     		push	{r7}
 4244              	.LCFI180:
 4245              		.cfi_def_cfa_offset 4
 4246              		.cfi_offset 7, -4
 4247 0002 85B0     		sub	sp, sp, #20
 4248              	.LCFI181:
 4249              		.cfi_def_cfa_offset 24
 4250 0004 00AF     		add	r7, sp, #0
 4251              	.LCFI182:
 4252              		.cfi_def_cfa_register 7
 4253 0006 7860     		str	r0, [r7, #4]
 4254 0008 3960     		str	r1, [r7]
1068:C:/Users/dtjld/Desktop/AIoT_software/LiteOS_Lab_overseas/LiteOS_Lab/iot_link/network/lwm2m/wakaama_lwm2m/core/er-coap-13\er-coap-13.c ****     coap_packet_t *const coap_pkt = (coap_packet_t *) packet;
 4255              		.loc 1 1068 0
 4256 000a 7B68     		ldr	r3, [r7, #4]
 4257 000c FB60     		str	r3, [r7, #12]
1069:C:/Users/dtjld/Desktop/AIoT_software/LiteOS_Lab_overseas/LiteOS_Lab/iot_link/network/lwm2m/wakaama_lwm2m/core/er-coap-13\er-coap-13.c **** 
1070:C:/Users/dtjld/Desktop/AIoT_software/LiteOS_Lab_overseas/LiteOS_Lab/iot_link/network/lwm2m/wakaama_lwm2m/core/er-coap-13\er-coap-13.c ****     if (!IS_OPTION(coap_pkt, COAP_OPTION_TOKEN)) return 0;
 4258              		.loc 1 1070 0
 4259 000e FB68     		ldr	r3, [r7, #12]
 4260 0010 1B7B     		ldrb	r3, [r3, #12]	@ zero_extendqisi2
 4261 0012 03F00803 		and	r3, r3, #8
 4262 0016 002B     		cmp	r3, #0
 4263 0018 01D1     		bne	.L219
 4264              		.loc 1 1070 0 is_stmt 0 discriminator 1
 4265 001a 0023     		movs	r3, #0
 4266 001c 07E0     		b	.L220
 4267              	.L219:
ARM GAS  C:\Users\dtjld\AppData\Local\Temp\ccpI0fza.s 			page 94


1071:C:/Users/dtjld/Desktop/AIoT_software/LiteOS_Lab_overseas/LiteOS_Lab/iot_link/network/lwm2m/wakaama_lwm2m/core/er-coap-13\er-coap-13.c **** 
1072:C:/Users/dtjld/Desktop/AIoT_software/LiteOS_Lab_overseas/LiteOS_Lab/iot_link/network/lwm2m/wakaama_lwm2m/core/er-coap-13\er-coap-13.c ****     *token = coap_pkt->token;
 4268              		.loc 1 1072 0 is_stmt 1
 4269 001e FB68     		ldr	r3, [r7, #12]
 4270 0020 03F14D02 		add	r2, r3, #77
 4271 0024 3B68     		ldr	r3, [r7]
 4272 0026 1A60     		str	r2, [r3]
1073:C:/Users/dtjld/Desktop/AIoT_software/LiteOS_Lab_overseas/LiteOS_Lab/iot_link/network/lwm2m/wakaama_lwm2m/core/er-coap-13\er-coap-13.c ****     return coap_pkt->token_len;
 4273              		.loc 1 1073 0
 4274 0028 FB68     		ldr	r3, [r7, #12]
 4275 002a 93F84C30 		ldrb	r3, [r3, #76]	@ zero_extendqisi2
 4276              	.L220:
1074:C:/Users/dtjld/Desktop/AIoT_software/LiteOS_Lab_overseas/LiteOS_Lab/iot_link/network/lwm2m/wakaama_lwm2m/core/er-coap-13\er-coap-13.c **** }
 4277              		.loc 1 1074 0
 4278 002e 1846     		mov	r0, r3
 4279 0030 1437     		adds	r7, r7, #20
 4280              	.LCFI183:
 4281              		.cfi_def_cfa_offset 4
 4282 0032 BD46     		mov	sp, r7
 4283              	.LCFI184:
 4284              		.cfi_def_cfa_register 13
 4285              		@ sp needed
 4286 0034 5DF8047B 		ldr	r7, [sp], #4
 4287              	.LCFI185:
 4288              		.cfi_restore 7
 4289              		.cfi_def_cfa_offset 0
 4290 0038 7047     		bx	lr
 4291              		.cfi_endproc
 4292              	.LFE37:
 4294              		.section	.text.coap_set_header_token,"ax",%progbits
 4295              		.align	1
 4296              		.global	coap_set_header_token
 4297              		.syntax unified
 4298              		.thumb
 4299              		.thumb_func
 4300              		.fpu fpv4-sp-d16
 4302              	coap_set_header_token:
 4303              	.LFB38:
1075:C:/Users/dtjld/Desktop/AIoT_software/LiteOS_Lab_overseas/LiteOS_Lab/iot_link/network/lwm2m/wakaama_lwm2m/core/er-coap-13\er-coap-13.c **** 
1076:C:/Users/dtjld/Desktop/AIoT_software/LiteOS_Lab_overseas/LiteOS_Lab/iot_link/network/lwm2m/wakaama_lwm2m/core/er-coap-13\er-coap-13.c **** int
1077:C:/Users/dtjld/Desktop/AIoT_software/LiteOS_Lab_overseas/LiteOS_Lab/iot_link/network/lwm2m/wakaama_lwm2m/core/er-coap-13\er-coap-13.c **** coap_set_header_token(void *packet, const uint8_t *token, size_t token_len)
1078:C:/Users/dtjld/Desktop/AIoT_software/LiteOS_Lab_overseas/LiteOS_Lab/iot_link/network/lwm2m/wakaama_lwm2m/core/er-coap-13\er-coap-13.c **** {
 4304              		.loc 1 1078 0
 4305              		.cfi_startproc
 4306              		@ args = 0, pretend = 0, frame = 24
 4307              		@ frame_needed = 1, uses_anonymous_args = 0
 4308 0000 80B5     		push	{r7, lr}
 4309              	.LCFI186:
 4310              		.cfi_def_cfa_offset 8
 4311              		.cfi_offset 7, -8
 4312              		.cfi_offset 14, -4
 4313 0002 86B0     		sub	sp, sp, #24
 4314              	.LCFI187:
 4315              		.cfi_def_cfa_offset 32
 4316 0004 00AF     		add	r7, sp, #0
 4317              	.LCFI188:
 4318              		.cfi_def_cfa_register 7
ARM GAS  C:\Users\dtjld\AppData\Local\Temp\ccpI0fza.s 			page 95


 4319 0006 F860     		str	r0, [r7, #12]
 4320 0008 B960     		str	r1, [r7, #8]
 4321 000a 7A60     		str	r2, [r7, #4]
1079:C:/Users/dtjld/Desktop/AIoT_software/LiteOS_Lab_overseas/LiteOS_Lab/iot_link/network/lwm2m/wakaama_lwm2m/core/er-coap-13\er-coap-13.c ****     coap_packet_t *const coap_pkt = (coap_packet_t *) packet;
 4322              		.loc 1 1079 0
 4323 000c FB68     		ldr	r3, [r7, #12]
 4324 000e 7B61     		str	r3, [r7, #20]
1080:C:/Users/dtjld/Desktop/AIoT_software/LiteOS_Lab_overseas/LiteOS_Lab/iot_link/network/lwm2m/wakaama_lwm2m/core/er-coap-13\er-coap-13.c **** 
1081:C:/Users/dtjld/Desktop/AIoT_software/LiteOS_Lab_overseas/LiteOS_Lab/iot_link/network/lwm2m/wakaama_lwm2m/core/er-coap-13\er-coap-13.c ****     coap_pkt->token_len = (uint8_t)(MIN(COAP_TOKEN_LEN, token_len));
 4325              		.loc 1 1081 0
 4326 0010 7B68     		ldr	r3, [r7, #4]
 4327 0012 082B     		cmp	r3, #8
 4328 0014 02D8     		bhi	.L222
 4329              		.loc 1 1081 0 is_stmt 0 discriminator 1
 4330 0016 7B68     		ldr	r3, [r7, #4]
 4331 0018 DAB2     		uxtb	r2, r3
 4332 001a 00E0     		b	.L223
 4333              	.L222:
 4334              		.loc 1 1081 0 discriminator 2
 4335 001c 0822     		movs	r2, #8
 4336              	.L223:
 4337              		.loc 1 1081 0 discriminator 4
 4338 001e 7B69     		ldr	r3, [r7, #20]
 4339 0020 83F84C20 		strb	r2, [r3, #76]
1082:C:/Users/dtjld/Desktop/AIoT_software/LiteOS_Lab_overseas/LiteOS_Lab/iot_link/network/lwm2m/wakaama_lwm2m/core/er-coap-13\er-coap-13.c ****     memcpy(coap_pkt->token, token, coap_pkt->token_len);
 4340              		.loc 1 1082 0 is_stmt 1 discriminator 4
 4341 0024 7B69     		ldr	r3, [r7, #20]
 4342 0026 03F14D00 		add	r0, r3, #77
 4343 002a 7B69     		ldr	r3, [r7, #20]
 4344 002c 93F84C30 		ldrb	r3, [r3, #76]	@ zero_extendqisi2
 4345 0030 1A46     		mov	r2, r3
 4346 0032 B968     		ldr	r1, [r7, #8]
 4347 0034 FFF7FEFF 		bl	memcpy
1083:C:/Users/dtjld/Desktop/AIoT_software/LiteOS_Lab_overseas/LiteOS_Lab/iot_link/network/lwm2m/wakaama_lwm2m/core/er-coap-13\er-coap-13.c **** 
1084:C:/Users/dtjld/Desktop/AIoT_software/LiteOS_Lab_overseas/LiteOS_Lab/iot_link/network/lwm2m/wakaama_lwm2m/core/er-coap-13\er-coap-13.c ****     SET_OPTION(coap_pkt, COAP_OPTION_TOKEN);
 4348              		.loc 1 1084 0 discriminator 4
 4349 0038 7B69     		ldr	r3, [r7, #20]
 4350 003a 1B7B     		ldrb	r3, [r3, #12]	@ zero_extendqisi2
 4351 003c 43F00803 		orr	r3, r3, #8
 4352 0040 DAB2     		uxtb	r2, r3
 4353 0042 7B69     		ldr	r3, [r7, #20]
 4354 0044 1A73     		strb	r2, [r3, #12]
1085:C:/Users/dtjld/Desktop/AIoT_software/LiteOS_Lab_overseas/LiteOS_Lab/iot_link/network/lwm2m/wakaama_lwm2m/core/er-coap-13\er-coap-13.c ****     return coap_pkt->token_len;
 4355              		.loc 1 1085 0 discriminator 4
 4356 0046 7B69     		ldr	r3, [r7, #20]
 4357 0048 93F84C30 		ldrb	r3, [r3, #76]	@ zero_extendqisi2
1086:C:/Users/dtjld/Desktop/AIoT_software/LiteOS_Lab_overseas/LiteOS_Lab/iot_link/network/lwm2m/wakaama_lwm2m/core/er-coap-13\er-coap-13.c **** }
 4358              		.loc 1 1086 0 discriminator 4
 4359 004c 1846     		mov	r0, r3
 4360 004e 1837     		adds	r7, r7, #24
 4361              	.LCFI189:
 4362              		.cfi_def_cfa_offset 8
 4363 0050 BD46     		mov	sp, r7
 4364              	.LCFI190:
 4365              		.cfi_def_cfa_register 13
 4366              		@ sp needed
 4367 0052 80BD     		pop	{r7, pc}
ARM GAS  C:\Users\dtjld\AppData\Local\Temp\ccpI0fza.s 			page 96


 4368              		.cfi_endproc
 4369              	.LFE38:
 4371              		.section	.text.coap_get_header_proxy_uri,"ax",%progbits
 4372              		.align	1
 4373              		.global	coap_get_header_proxy_uri
 4374              		.syntax unified
 4375              		.thumb
 4376              		.thumb_func
 4377              		.fpu fpv4-sp-d16
 4379              	coap_get_header_proxy_uri:
 4380              	.LFB39:
1087:C:/Users/dtjld/Desktop/AIoT_software/LiteOS_Lab_overseas/LiteOS_Lab/iot_link/network/lwm2m/wakaama_lwm2m/core/er-coap-13\er-coap-13.c **** /*-----------------------------------------------------------------------------------*/
1088:C:/Users/dtjld/Desktop/AIoT_software/LiteOS_Lab_overseas/LiteOS_Lab/iot_link/network/lwm2m/wakaama_lwm2m/core/er-coap-13\er-coap-13.c **** int
1089:C:/Users/dtjld/Desktop/AIoT_software/LiteOS_Lab_overseas/LiteOS_Lab/iot_link/network/lwm2m/wakaama_lwm2m/core/er-coap-13\er-coap-13.c **** coap_get_header_proxy_uri(void *packet, const char **uri)
1090:C:/Users/dtjld/Desktop/AIoT_software/LiteOS_Lab_overseas/LiteOS_Lab/iot_link/network/lwm2m/wakaama_lwm2m/core/er-coap-13\er-coap-13.c **** {
 4381              		.loc 1 1090 0
 4382              		.cfi_startproc
 4383              		@ args = 0, pretend = 0, frame = 16
 4384              		@ frame_needed = 1, uses_anonymous_args = 0
 4385              		@ link register save eliminated.
 4386 0000 80B4     		push	{r7}
 4387              	.LCFI191:
 4388              		.cfi_def_cfa_offset 4
 4389              		.cfi_offset 7, -4
 4390 0002 85B0     		sub	sp, sp, #20
 4391              	.LCFI192:
 4392              		.cfi_def_cfa_offset 24
 4393 0004 00AF     		add	r7, sp, #0
 4394              	.LCFI193:
 4395              		.cfi_def_cfa_register 7
 4396 0006 7860     		str	r0, [r7, #4]
 4397 0008 3960     		str	r1, [r7]
1091:C:/Users/dtjld/Desktop/AIoT_software/LiteOS_Lab_overseas/LiteOS_Lab/iot_link/network/lwm2m/wakaama_lwm2m/core/er-coap-13\er-coap-13.c ****     coap_packet_t *const coap_pkt = (coap_packet_t *) packet;
 4398              		.loc 1 1091 0
 4399 000a 7B68     		ldr	r3, [r7, #4]
 4400 000c FB60     		str	r3, [r7, #12]
1092:C:/Users/dtjld/Desktop/AIoT_software/LiteOS_Lab_overseas/LiteOS_Lab/iot_link/network/lwm2m/wakaama_lwm2m/core/er-coap-13\er-coap-13.c **** 
1093:C:/Users/dtjld/Desktop/AIoT_software/LiteOS_Lab_overseas/LiteOS_Lab/iot_link/network/lwm2m/wakaama_lwm2m/core/er-coap-13\er-coap-13.c ****     if (!IS_OPTION(coap_pkt, COAP_OPTION_PROXY_URI)) return 0;
 4401              		.loc 1 1093 0
 4402 000e FB68     		ldr	r3, [r7, #12]
 4403 0010 9B7B     		ldrb	r3, [r3, #14]	@ zero_extendqisi2
 4404 0012 03F00803 		and	r3, r3, #8
 4405 0016 002B     		cmp	r3, #0
 4406 0018 01D1     		bne	.L226
 4407              		.loc 1 1093 0 is_stmt 0 discriminator 1
 4408 001a 0023     		movs	r3, #0
 4409 001c 05E0     		b	.L227
 4410              	.L226:
1094:C:/Users/dtjld/Desktop/AIoT_software/LiteOS_Lab_overseas/LiteOS_Lab/iot_link/network/lwm2m/wakaama_lwm2m/core/er-coap-13\er-coap-13.c **** 
1095:C:/Users/dtjld/Desktop/AIoT_software/LiteOS_Lab_overseas/LiteOS_Lab/iot_link/network/lwm2m/wakaama_lwm2m/core/er-coap-13\er-coap-13.c ****     *uri = (const char *)coap_pkt->proxy_uri;
 4411              		.loc 1 1095 0 is_stmt 1
 4412 001e FB68     		ldr	r3, [r7, #12]
 4413 0020 DA69     		ldr	r2, [r3, #28]
 4414 0022 3B68     		ldr	r3, [r7]
 4415 0024 1A60     		str	r2, [r3]
1096:C:/Users/dtjld/Desktop/AIoT_software/LiteOS_Lab_overseas/LiteOS_Lab/iot_link/network/lwm2m/wakaama_lwm2m/core/er-coap-13\er-coap-13.c ****     return coap_pkt->proxy_uri_len;
 4416              		.loc 1 1096 0
ARM GAS  C:\Users\dtjld\AppData\Local\Temp\ccpI0fza.s 			page 97


 4417 0026 FB68     		ldr	r3, [r7, #12]
 4418 0028 9B69     		ldr	r3, [r3, #24]
 4419              	.L227:
1097:C:/Users/dtjld/Desktop/AIoT_software/LiteOS_Lab_overseas/LiteOS_Lab/iot_link/network/lwm2m/wakaama_lwm2m/core/er-coap-13\er-coap-13.c **** }
 4420              		.loc 1 1097 0
 4421 002a 1846     		mov	r0, r3
 4422 002c 1437     		adds	r7, r7, #20
 4423              	.LCFI194:
 4424              		.cfi_def_cfa_offset 4
 4425 002e BD46     		mov	sp, r7
 4426              	.LCFI195:
 4427              		.cfi_def_cfa_register 13
 4428              		@ sp needed
 4429 0030 5DF8047B 		ldr	r7, [sp], #4
 4430              	.LCFI196:
 4431              		.cfi_restore 7
 4432              		.cfi_def_cfa_offset 0
 4433 0034 7047     		bx	lr
 4434              		.cfi_endproc
 4435              	.LFE39:
 4437              		.section	.text.coap_set_header_proxy_uri,"ax",%progbits
 4438              		.align	1
 4439              		.global	coap_set_header_proxy_uri
 4440              		.syntax unified
 4441              		.thumb
 4442              		.thumb_func
 4443              		.fpu fpv4-sp-d16
 4445              	coap_set_header_proxy_uri:
 4446              	.LFB40:
1098:C:/Users/dtjld/Desktop/AIoT_software/LiteOS_Lab_overseas/LiteOS_Lab/iot_link/network/lwm2m/wakaama_lwm2m/core/er-coap-13\er-coap-13.c **** 
1099:C:/Users/dtjld/Desktop/AIoT_software/LiteOS_Lab_overseas/LiteOS_Lab/iot_link/network/lwm2m/wakaama_lwm2m/core/er-coap-13\er-coap-13.c **** int
1100:C:/Users/dtjld/Desktop/AIoT_software/LiteOS_Lab_overseas/LiteOS_Lab/iot_link/network/lwm2m/wakaama_lwm2m/core/er-coap-13\er-coap-13.c **** coap_set_header_proxy_uri(void *packet, const char *uri)
1101:C:/Users/dtjld/Desktop/AIoT_software/LiteOS_Lab_overseas/LiteOS_Lab/iot_link/network/lwm2m/wakaama_lwm2m/core/er-coap-13\er-coap-13.c **** {
 4447              		.loc 1 1101 0
 4448              		.cfi_startproc
 4449              		@ args = 0, pretend = 0, frame = 16
 4450              		@ frame_needed = 1, uses_anonymous_args = 0
 4451 0000 80B5     		push	{r7, lr}
 4452              	.LCFI197:
 4453              		.cfi_def_cfa_offset 8
 4454              		.cfi_offset 7, -8
 4455              		.cfi_offset 14, -4
 4456 0002 84B0     		sub	sp, sp, #16
 4457              	.LCFI198:
 4458              		.cfi_def_cfa_offset 24
 4459 0004 00AF     		add	r7, sp, #0
 4460              	.LCFI199:
 4461              		.cfi_def_cfa_register 7
 4462 0006 7860     		str	r0, [r7, #4]
 4463 0008 3960     		str	r1, [r7]
1102:C:/Users/dtjld/Desktop/AIoT_software/LiteOS_Lab_overseas/LiteOS_Lab/iot_link/network/lwm2m/wakaama_lwm2m/core/er-coap-13\er-coap-13.c ****     coap_packet_t *const coap_pkt = (coap_packet_t *) packet;
 4464              		.loc 1 1102 0
 4465 000a 7B68     		ldr	r3, [r7, #4]
 4466 000c FB60     		str	r3, [r7, #12]
1103:C:/Users/dtjld/Desktop/AIoT_software/LiteOS_Lab_overseas/LiteOS_Lab/iot_link/network/lwm2m/wakaama_lwm2m/core/er-coap-13\er-coap-13.c **** 
1104:C:/Users/dtjld/Desktop/AIoT_software/LiteOS_Lab_overseas/LiteOS_Lab/iot_link/network/lwm2m/wakaama_lwm2m/core/er-coap-13\er-coap-13.c ****     coap_pkt->proxy_uri = (uint8_t *)uri;
 4467              		.loc 1 1104 0
ARM GAS  C:\Users\dtjld\AppData\Local\Temp\ccpI0fza.s 			page 98


 4468 000e FB68     		ldr	r3, [r7, #12]
 4469 0010 3A68     		ldr	r2, [r7]
 4470 0012 DA61     		str	r2, [r3, #28]
1105:C:/Users/dtjld/Desktop/AIoT_software/LiteOS_Lab_overseas/LiteOS_Lab/iot_link/network/lwm2m/wakaama_lwm2m/core/er-coap-13\er-coap-13.c ****     coap_pkt->proxy_uri_len = strlen(uri);
 4471              		.loc 1 1105 0
 4472 0014 3868     		ldr	r0, [r7]
 4473 0016 FFF7FEFF 		bl	strlen
 4474 001a 0246     		mov	r2, r0
 4475 001c FB68     		ldr	r3, [r7, #12]
 4476 001e 9A61     		str	r2, [r3, #24]
1106:C:/Users/dtjld/Desktop/AIoT_software/LiteOS_Lab_overseas/LiteOS_Lab/iot_link/network/lwm2m/wakaama_lwm2m/core/er-coap-13\er-coap-13.c **** 
1107:C:/Users/dtjld/Desktop/AIoT_software/LiteOS_Lab_overseas/LiteOS_Lab/iot_link/network/lwm2m/wakaama_lwm2m/core/er-coap-13\er-coap-13.c ****     SET_OPTION(coap_pkt, COAP_OPTION_PROXY_URI);
 4477              		.loc 1 1107 0
 4478 0020 FB68     		ldr	r3, [r7, #12]
 4479 0022 9B7B     		ldrb	r3, [r3, #14]	@ zero_extendqisi2
 4480 0024 43F00803 		orr	r3, r3, #8
 4481 0028 DAB2     		uxtb	r2, r3
 4482 002a FB68     		ldr	r3, [r7, #12]
 4483 002c 9A73     		strb	r2, [r3, #14]
1108:C:/Users/dtjld/Desktop/AIoT_software/LiteOS_Lab_overseas/LiteOS_Lab/iot_link/network/lwm2m/wakaama_lwm2m/core/er-coap-13\er-coap-13.c ****     return coap_pkt->proxy_uri_len;
 4484              		.loc 1 1108 0
 4485 002e FB68     		ldr	r3, [r7, #12]
 4486 0030 9B69     		ldr	r3, [r3, #24]
1109:C:/Users/dtjld/Desktop/AIoT_software/LiteOS_Lab_overseas/LiteOS_Lab/iot_link/network/lwm2m/wakaama_lwm2m/core/er-coap-13\er-coap-13.c **** }
 4487              		.loc 1 1109 0
 4488 0032 1846     		mov	r0, r3
 4489 0034 1037     		adds	r7, r7, #16
 4490              	.LCFI200:
 4491              		.cfi_def_cfa_offset 8
 4492 0036 BD46     		mov	sp, r7
 4493              	.LCFI201:
 4494              		.cfi_def_cfa_register 13
 4495              		@ sp needed
 4496 0038 80BD     		pop	{r7, pc}
 4497              		.cfi_endproc
 4498              	.LFE40:
 4500              		.section	.text.coap_get_header_uri_host,"ax",%progbits
 4501              		.align	1
 4502              		.global	coap_get_header_uri_host
 4503              		.syntax unified
 4504              		.thumb
 4505              		.thumb_func
 4506              		.fpu fpv4-sp-d16
 4508              	coap_get_header_uri_host:
 4509              	.LFB41:
1110:C:/Users/dtjld/Desktop/AIoT_software/LiteOS_Lab_overseas/LiteOS_Lab/iot_link/network/lwm2m/wakaama_lwm2m/core/er-coap-13\er-coap-13.c **** /*-----------------------------------------------------------------------------------*/
1111:C:/Users/dtjld/Desktop/AIoT_software/LiteOS_Lab_overseas/LiteOS_Lab/iot_link/network/lwm2m/wakaama_lwm2m/core/er-coap-13\er-coap-13.c **** int
1112:C:/Users/dtjld/Desktop/AIoT_software/LiteOS_Lab_overseas/LiteOS_Lab/iot_link/network/lwm2m/wakaama_lwm2m/core/er-coap-13\er-coap-13.c **** coap_get_header_uri_host(void *packet, const char **host)
1113:C:/Users/dtjld/Desktop/AIoT_software/LiteOS_Lab_overseas/LiteOS_Lab/iot_link/network/lwm2m/wakaama_lwm2m/core/er-coap-13\er-coap-13.c **** {
 4510              		.loc 1 1113 0
 4511              		.cfi_startproc
 4512              		@ args = 0, pretend = 0, frame = 16
 4513              		@ frame_needed = 1, uses_anonymous_args = 0
 4514              		@ link register save eliminated.
 4515 0000 80B4     		push	{r7}
 4516              	.LCFI202:
 4517              		.cfi_def_cfa_offset 4
ARM GAS  C:\Users\dtjld\AppData\Local\Temp\ccpI0fza.s 			page 99


 4518              		.cfi_offset 7, -4
 4519 0002 85B0     		sub	sp, sp, #20
 4520              	.LCFI203:
 4521              		.cfi_def_cfa_offset 24
 4522 0004 00AF     		add	r7, sp, #0
 4523              	.LCFI204:
 4524              		.cfi_def_cfa_register 7
 4525 0006 7860     		str	r0, [r7, #4]
 4526 0008 3960     		str	r1, [r7]
1114:C:/Users/dtjld/Desktop/AIoT_software/LiteOS_Lab_overseas/LiteOS_Lab/iot_link/network/lwm2m/wakaama_lwm2m/core/er-coap-13\er-coap-13.c ****     coap_packet_t *const coap_pkt = (coap_packet_t *) packet;
 4527              		.loc 1 1114 0
 4528 000a 7B68     		ldr	r3, [r7, #4]
 4529 000c FB60     		str	r3, [r7, #12]
1115:C:/Users/dtjld/Desktop/AIoT_software/LiteOS_Lab_overseas/LiteOS_Lab/iot_link/network/lwm2m/wakaama_lwm2m/core/er-coap-13\er-coap-13.c **** 
1116:C:/Users/dtjld/Desktop/AIoT_software/LiteOS_Lab_overseas/LiteOS_Lab/iot_link/network/lwm2m/wakaama_lwm2m/core/er-coap-13\er-coap-13.c ****     if (!IS_OPTION(coap_pkt, COAP_OPTION_URI_HOST)) return 0;
 4530              		.loc 1 1116 0
 4531 000e FB68     		ldr	r3, [r7, #12]
 4532 0010 9B7A     		ldrb	r3, [r3, #10]	@ zero_extendqisi2
 4533 0012 03F00803 		and	r3, r3, #8
 4534 0016 002B     		cmp	r3, #0
 4535 0018 01D1     		bne	.L231
 4536              		.loc 1 1116 0 is_stmt 0 discriminator 1
 4537 001a 0023     		movs	r3, #0
 4538 001c 05E0     		b	.L232
 4539              	.L231:
1117:C:/Users/dtjld/Desktop/AIoT_software/LiteOS_Lab_overseas/LiteOS_Lab/iot_link/network/lwm2m/wakaama_lwm2m/core/er-coap-13\er-coap-13.c **** 
1118:C:/Users/dtjld/Desktop/AIoT_software/LiteOS_Lab_overseas/LiteOS_Lab/iot_link/network/lwm2m/wakaama_lwm2m/core/er-coap-13\er-coap-13.c ****     *host = (char *)coap_pkt->uri_host;
 4540              		.loc 1 1118 0 is_stmt 1
 4541 001e FB68     		ldr	r3, [r7, #12]
 4542 0020 1A6B     		ldr	r2, [r3, #48]
 4543 0022 3B68     		ldr	r3, [r7]
 4544 0024 1A60     		str	r2, [r3]
1119:C:/Users/dtjld/Desktop/AIoT_software/LiteOS_Lab_overseas/LiteOS_Lab/iot_link/network/lwm2m/wakaama_lwm2m/core/er-coap-13\er-coap-13.c ****     return coap_pkt->uri_host_len;
 4545              		.loc 1 1119 0
 4546 0026 FB68     		ldr	r3, [r7, #12]
 4547 0028 DB6A     		ldr	r3, [r3, #44]
 4548              	.L232:
1120:C:/Users/dtjld/Desktop/AIoT_software/LiteOS_Lab_overseas/LiteOS_Lab/iot_link/network/lwm2m/wakaama_lwm2m/core/er-coap-13\er-coap-13.c **** }
 4549              		.loc 1 1120 0
 4550 002a 1846     		mov	r0, r3
 4551 002c 1437     		adds	r7, r7, #20
 4552              	.LCFI205:
 4553              		.cfi_def_cfa_offset 4
 4554 002e BD46     		mov	sp, r7
 4555              	.LCFI206:
 4556              		.cfi_def_cfa_register 13
 4557              		@ sp needed
 4558 0030 5DF8047B 		ldr	r7, [sp], #4
 4559              	.LCFI207:
 4560              		.cfi_restore 7
 4561              		.cfi_def_cfa_offset 0
 4562 0034 7047     		bx	lr
 4563              		.cfi_endproc
 4564              	.LFE41:
 4566              		.section	.text.coap_set_header_uri_host,"ax",%progbits
 4567              		.align	1
 4568              		.global	coap_set_header_uri_host
ARM GAS  C:\Users\dtjld\AppData\Local\Temp\ccpI0fza.s 			page 100


 4569              		.syntax unified
 4570              		.thumb
 4571              		.thumb_func
 4572              		.fpu fpv4-sp-d16
 4574              	coap_set_header_uri_host:
 4575              	.LFB42:
1121:C:/Users/dtjld/Desktop/AIoT_software/LiteOS_Lab_overseas/LiteOS_Lab/iot_link/network/lwm2m/wakaama_lwm2m/core/er-coap-13\er-coap-13.c **** 
1122:C:/Users/dtjld/Desktop/AIoT_software/LiteOS_Lab_overseas/LiteOS_Lab/iot_link/network/lwm2m/wakaama_lwm2m/core/er-coap-13\er-coap-13.c **** int
1123:C:/Users/dtjld/Desktop/AIoT_software/LiteOS_Lab_overseas/LiteOS_Lab/iot_link/network/lwm2m/wakaama_lwm2m/core/er-coap-13\er-coap-13.c **** coap_set_header_uri_host(void *packet, const char *host)
1124:C:/Users/dtjld/Desktop/AIoT_software/LiteOS_Lab_overseas/LiteOS_Lab/iot_link/network/lwm2m/wakaama_lwm2m/core/er-coap-13\er-coap-13.c **** {
 4576              		.loc 1 1124 0
 4577              		.cfi_startproc
 4578              		@ args = 0, pretend = 0, frame = 16
 4579              		@ frame_needed = 1, uses_anonymous_args = 0
 4580 0000 80B5     		push	{r7, lr}
 4581              	.LCFI208:
 4582              		.cfi_def_cfa_offset 8
 4583              		.cfi_offset 7, -8
 4584              		.cfi_offset 14, -4
 4585 0002 84B0     		sub	sp, sp, #16
 4586              	.LCFI209:
 4587              		.cfi_def_cfa_offset 24
 4588 0004 00AF     		add	r7, sp, #0
 4589              	.LCFI210:
 4590              		.cfi_def_cfa_register 7
 4591 0006 7860     		str	r0, [r7, #4]
 4592 0008 3960     		str	r1, [r7]
1125:C:/Users/dtjld/Desktop/AIoT_software/LiteOS_Lab_overseas/LiteOS_Lab/iot_link/network/lwm2m/wakaama_lwm2m/core/er-coap-13\er-coap-13.c ****     coap_packet_t *const coap_pkt = (coap_packet_t *) packet;
 4593              		.loc 1 1125 0
 4594 000a 7B68     		ldr	r3, [r7, #4]
 4595 000c FB60     		str	r3, [r7, #12]
1126:C:/Users/dtjld/Desktop/AIoT_software/LiteOS_Lab_overseas/LiteOS_Lab/iot_link/network/lwm2m/wakaama_lwm2m/core/er-coap-13\er-coap-13.c **** 
1127:C:/Users/dtjld/Desktop/AIoT_software/LiteOS_Lab_overseas/LiteOS_Lab/iot_link/network/lwm2m/wakaama_lwm2m/core/er-coap-13\er-coap-13.c ****     coap_pkt->uri_host = (uint8_t *)host;
 4596              		.loc 1 1127 0
 4597 000e FB68     		ldr	r3, [r7, #12]
 4598 0010 3A68     		ldr	r2, [r7]
 4599 0012 1A63     		str	r2, [r3, #48]
1128:C:/Users/dtjld/Desktop/AIoT_software/LiteOS_Lab_overseas/LiteOS_Lab/iot_link/network/lwm2m/wakaama_lwm2m/core/er-coap-13\er-coap-13.c ****     coap_pkt->uri_host_len = strlen(host);
 4600              		.loc 1 1128 0
 4601 0014 3868     		ldr	r0, [r7]
 4602 0016 FFF7FEFF 		bl	strlen
 4603 001a 0246     		mov	r2, r0
 4604 001c FB68     		ldr	r3, [r7, #12]
 4605 001e DA62     		str	r2, [r3, #44]
1129:C:/Users/dtjld/Desktop/AIoT_software/LiteOS_Lab_overseas/LiteOS_Lab/iot_link/network/lwm2m/wakaama_lwm2m/core/er-coap-13\er-coap-13.c **** 
1130:C:/Users/dtjld/Desktop/AIoT_software/LiteOS_Lab_overseas/LiteOS_Lab/iot_link/network/lwm2m/wakaama_lwm2m/core/er-coap-13\er-coap-13.c ****     SET_OPTION(coap_pkt, COAP_OPTION_URI_HOST);
 4606              		.loc 1 1130 0
 4607 0020 FB68     		ldr	r3, [r7, #12]
 4608 0022 9B7A     		ldrb	r3, [r3, #10]	@ zero_extendqisi2
 4609 0024 43F00803 		orr	r3, r3, #8
 4610 0028 DAB2     		uxtb	r2, r3
 4611 002a FB68     		ldr	r3, [r7, #12]
 4612 002c 9A72     		strb	r2, [r3, #10]
1131:C:/Users/dtjld/Desktop/AIoT_software/LiteOS_Lab_overseas/LiteOS_Lab/iot_link/network/lwm2m/wakaama_lwm2m/core/er-coap-13\er-coap-13.c ****     return coap_pkt->uri_host_len;
 4613              		.loc 1 1131 0
 4614 002e FB68     		ldr	r3, [r7, #12]
 4615 0030 DB6A     		ldr	r3, [r3, #44]
ARM GAS  C:\Users\dtjld\AppData\Local\Temp\ccpI0fza.s 			page 101


1132:C:/Users/dtjld/Desktop/AIoT_software/LiteOS_Lab_overseas/LiteOS_Lab/iot_link/network/lwm2m/wakaama_lwm2m/core/er-coap-13\er-coap-13.c **** }
 4616              		.loc 1 1132 0
 4617 0032 1846     		mov	r0, r3
 4618 0034 1037     		adds	r7, r7, #16
 4619              	.LCFI211:
 4620              		.cfi_def_cfa_offset 8
 4621 0036 BD46     		mov	sp, r7
 4622              	.LCFI212:
 4623              		.cfi_def_cfa_register 13
 4624              		@ sp needed
 4625 0038 80BD     		pop	{r7, pc}
 4626              		.cfi_endproc
 4627              	.LFE42:
 4629              		.section	.text.coap_get_header_uri_path,"ax",%progbits
 4630              		.align	1
 4631              		.global	coap_get_header_uri_path
 4632              		.syntax unified
 4633              		.thumb
 4634              		.thumb_func
 4635              		.fpu fpv4-sp-d16
 4637              	coap_get_header_uri_path:
 4638              	.LFB43:
1133:C:/Users/dtjld/Desktop/AIoT_software/LiteOS_Lab_overseas/LiteOS_Lab/iot_link/network/lwm2m/wakaama_lwm2m/core/er-coap-13\er-coap-13.c **** /*-----------------------------------------------------------------------------------*/
1134:C:/Users/dtjld/Desktop/AIoT_software/LiteOS_Lab_overseas/LiteOS_Lab/iot_link/network/lwm2m/wakaama_lwm2m/core/er-coap-13\er-coap-13.c **** int
1135:C:/Users/dtjld/Desktop/AIoT_software/LiteOS_Lab_overseas/LiteOS_Lab/iot_link/network/lwm2m/wakaama_lwm2m/core/er-coap-13\er-coap-13.c **** coap_get_header_uri_path(void *packet, const char **path)
1136:C:/Users/dtjld/Desktop/AIoT_software/LiteOS_Lab_overseas/LiteOS_Lab/iot_link/network/lwm2m/wakaama_lwm2m/core/er-coap-13\er-coap-13.c **** {
 4639              		.loc 1 1136 0
 4640              		.cfi_startproc
 4641              		@ args = 0, pretend = 0, frame = 16
 4642              		@ frame_needed = 1, uses_anonymous_args = 0
 4643              		@ link register save eliminated.
 4644 0000 80B4     		push	{r7}
 4645              	.LCFI213:
 4646              		.cfi_def_cfa_offset 4
 4647              		.cfi_offset 7, -4
 4648 0002 85B0     		sub	sp, sp, #20
 4649              	.LCFI214:
 4650              		.cfi_def_cfa_offset 24
 4651 0004 00AF     		add	r7, sp, #0
 4652              	.LCFI215:
 4653              		.cfi_def_cfa_register 7
 4654 0006 7860     		str	r0, [r7, #4]
 4655 0008 3960     		str	r1, [r7]
1137:C:/Users/dtjld/Desktop/AIoT_software/LiteOS_Lab_overseas/LiteOS_Lab/iot_link/network/lwm2m/wakaama_lwm2m/core/er-coap-13\er-coap-13.c ****     coap_packet_t *const coap_pkt = (coap_packet_t *) packet;
 4656              		.loc 1 1137 0
 4657 000a 7B68     		ldr	r3, [r7, #4]
 4658 000c FB60     		str	r3, [r7, #12]
1138:C:/Users/dtjld/Desktop/AIoT_software/LiteOS_Lab_overseas/LiteOS_Lab/iot_link/network/lwm2m/wakaama_lwm2m/core/er-coap-13\er-coap-13.c **** 
1139:C:/Users/dtjld/Desktop/AIoT_software/LiteOS_Lab_overseas/LiteOS_Lab/iot_link/network/lwm2m/wakaama_lwm2m/core/er-coap-13\er-coap-13.c ****     if (!IS_OPTION(coap_pkt, COAP_OPTION_URI_PATH)) return 0;
 4659              		.loc 1 1139 0
 4660 000e FB68     		ldr	r3, [r7, #12]
 4661 0010 DB7A     		ldrb	r3, [r3, #11]	@ zero_extendqisi2
 4662 0012 03F00803 		and	r3, r3, #8
 4663 0016 002B     		cmp	r3, #0
 4664 0018 01D1     		bne	.L236
 4665              		.loc 1 1139 0 is_stmt 0 discriminator 1
 4666 001a 0023     		movs	r3, #0
ARM GAS  C:\Users\dtjld\AppData\Local\Temp\ccpI0fza.s 			page 102


 4667 001c 03E0     		b	.L237
 4668              	.L236:
1140:C:/Users/dtjld/Desktop/AIoT_software/LiteOS_Lab_overseas/LiteOS_Lab/iot_link/network/lwm2m/wakaama_lwm2m/core/er-coap-13\er-coap-13.c **** 
1141:C:/Users/dtjld/Desktop/AIoT_software/LiteOS_Lab_overseas/LiteOS_Lab/iot_link/network/lwm2m/wakaama_lwm2m/core/er-coap-13\er-coap-13.c ****     *path = NULL; //coap_pkt->uri_path;
 4669              		.loc 1 1141 0 is_stmt 1
 4670 001e 3B68     		ldr	r3, [r7]
 4671 0020 0022     		movs	r2, #0
 4672 0022 1A60     		str	r2, [r3]
1142:C:/Users/dtjld/Desktop/AIoT_software/LiteOS_Lab_overseas/LiteOS_Lab/iot_link/network/lwm2m/wakaama_lwm2m/core/er-coap-13\er-coap-13.c ****     return 0; //coap_pkt->uri_path_len;
 4673              		.loc 1 1142 0
 4674 0024 0023     		movs	r3, #0
 4675              	.L237:
1143:C:/Users/dtjld/Desktop/AIoT_software/LiteOS_Lab_overseas/LiteOS_Lab/iot_link/network/lwm2m/wakaama_lwm2m/core/er-coap-13\er-coap-13.c **** }
 4676              		.loc 1 1143 0
 4677 0026 1846     		mov	r0, r3
 4678 0028 1437     		adds	r7, r7, #20
 4679              	.LCFI216:
 4680              		.cfi_def_cfa_offset 4
 4681 002a BD46     		mov	sp, r7
 4682              	.LCFI217:
 4683              		.cfi_def_cfa_register 13
 4684              		@ sp needed
 4685 002c 5DF8047B 		ldr	r7, [sp], #4
 4686              	.LCFI218:
 4687              		.cfi_restore 7
 4688              		.cfi_def_cfa_offset 0
 4689 0030 7047     		bx	lr
 4690              		.cfi_endproc
 4691              	.LFE43:
 4693              		.section	.text.coap_set_header_uri_path,"ax",%progbits
 4694              		.align	1
 4695              		.global	coap_set_header_uri_path
 4696              		.syntax unified
 4697              		.thumb
 4698              		.thumb_func
 4699              		.fpu fpv4-sp-d16
 4701              	coap_set_header_uri_path:
 4702              	.LFB44:
1144:C:/Users/dtjld/Desktop/AIoT_software/LiteOS_Lab_overseas/LiteOS_Lab/iot_link/network/lwm2m/wakaama_lwm2m/core/er-coap-13\er-coap-13.c **** 
1145:C:/Users/dtjld/Desktop/AIoT_software/LiteOS_Lab_overseas/LiteOS_Lab/iot_link/network/lwm2m/wakaama_lwm2m/core/er-coap-13\er-coap-13.c **** int
1146:C:/Users/dtjld/Desktop/AIoT_software/LiteOS_Lab_overseas/LiteOS_Lab/iot_link/network/lwm2m/wakaama_lwm2m/core/er-coap-13\er-coap-13.c **** coap_set_header_uri_path(void *packet, const char *path)
1147:C:/Users/dtjld/Desktop/AIoT_software/LiteOS_Lab_overseas/LiteOS_Lab/iot_link/network/lwm2m/wakaama_lwm2m/core/er-coap-13\er-coap-13.c **** {
 4703              		.loc 1 1147 0
 4704              		.cfi_startproc
 4705              		@ args = 0, pretend = 0, frame = 24
 4706              		@ frame_needed = 1, uses_anonymous_args = 0
 4707 0000 80B5     		push	{r7, lr}
 4708              	.LCFI219:
 4709              		.cfi_def_cfa_offset 8
 4710              		.cfi_offset 7, -8
 4711              		.cfi_offset 14, -4
 4712 0002 86B0     		sub	sp, sp, #24
 4713              	.LCFI220:
 4714              		.cfi_def_cfa_offset 32
 4715 0004 00AF     		add	r7, sp, #0
 4716              	.LCFI221:
 4717              		.cfi_def_cfa_register 7
ARM GAS  C:\Users\dtjld\AppData\Local\Temp\ccpI0fza.s 			page 103


 4718 0006 7860     		str	r0, [r7, #4]
 4719 0008 3960     		str	r1, [r7]
1148:C:/Users/dtjld/Desktop/AIoT_software/LiteOS_Lab_overseas/LiteOS_Lab/iot_link/network/lwm2m/wakaama_lwm2m/core/er-coap-13\er-coap-13.c ****     coap_packet_t *coap_pkt = (coap_packet_t *) packet;
 4720              		.loc 1 1148 0
 4721 000a 7B68     		ldr	r3, [r7, #4]
 4722 000c FB60     		str	r3, [r7, #12]
1149:C:/Users/dtjld/Desktop/AIoT_software/LiteOS_Lab_overseas/LiteOS_Lab/iot_link/network/lwm2m/wakaama_lwm2m/core/er-coap-13\er-coap-13.c ****     int length = 0;
 4723              		.loc 1 1149 0
 4724 000e 0023     		movs	r3, #0
 4725 0010 7B61     		str	r3, [r7, #20]
1150:C:/Users/dtjld/Desktop/AIoT_software/LiteOS_Lab_overseas/LiteOS_Lab/iot_link/network/lwm2m/wakaama_lwm2m/core/er-coap-13\er-coap-13.c **** 
1151:C:/Users/dtjld/Desktop/AIoT_software/LiteOS_Lab_overseas/LiteOS_Lab/iot_link/network/lwm2m/wakaama_lwm2m/core/er-coap-13\er-coap-13.c ****     free_multi_option(coap_pkt->uri_path);
 4726              		.loc 1 1151 0
 4727 0012 FB68     		ldr	r3, [r7, #12]
 4728 0014 5B6C     		ldr	r3, [r3, #68]
 4729 0016 1846     		mov	r0, r3
 4730 0018 FFF7FEFF 		bl	free_multi_option
1152:C:/Users/dtjld/Desktop/AIoT_software/LiteOS_Lab_overseas/LiteOS_Lab/iot_link/network/lwm2m/wakaama_lwm2m/core/er-coap-13\er-coap-13.c ****     coap_pkt->uri_path = NULL;
 4731              		.loc 1 1152 0
 4732 001c FB68     		ldr	r3, [r7, #12]
 4733 001e 0022     		movs	r2, #0
 4734 0020 5A64     		str	r2, [r3, #68]
1153:C:/Users/dtjld/Desktop/AIoT_software/LiteOS_Lab_overseas/LiteOS_Lab/iot_link/network/lwm2m/wakaama_lwm2m/core/er-coap-13\er-coap-13.c **** 
1154:C:/Users/dtjld/Desktop/AIoT_software/LiteOS_Lab_overseas/LiteOS_Lab/iot_link/network/lwm2m/wakaama_lwm2m/core/er-coap-13\er-coap-13.c ****     if (path[0] == '/') ++path;
 4735              		.loc 1 1154 0
 4736 0022 3B68     		ldr	r3, [r7]
 4737 0024 1B78     		ldrb	r3, [r3]	@ zero_extendqisi2
 4738 0026 2F2B     		cmp	r3, #47
 4739 0028 02D1     		bne	.L244
 4740              		.loc 1 1154 0 is_stmt 0 discriminator 1
 4741 002a 3B68     		ldr	r3, [r7]
 4742 002c 0133     		adds	r3, r3, #1
 4743 002e 3B60     		str	r3, [r7]
 4744              	.L244:
 4745              	.LBB12:
1155:C:/Users/dtjld/Desktop/AIoT_software/LiteOS_Lab_overseas/LiteOS_Lab/iot_link/network/lwm2m/wakaama_lwm2m/core/er-coap-13\er-coap-13.c **** 
1156:C:/Users/dtjld/Desktop/AIoT_software/LiteOS_Lab_overseas/LiteOS_Lab/iot_link/network/lwm2m/wakaama_lwm2m/core/er-coap-13\er-coap-13.c ****     do
1157:C:/Users/dtjld/Desktop/AIoT_software/LiteOS_Lab_overseas/LiteOS_Lab/iot_link/network/lwm2m/wakaama_lwm2m/core/er-coap-13\er-coap-13.c ****     {
1158:C:/Users/dtjld/Desktop/AIoT_software/LiteOS_Lab_overseas/LiteOS_Lab/iot_link/network/lwm2m/wakaama_lwm2m/core/er-coap-13\er-coap-13.c ****         int i = 0;
 4746              		.loc 1 1158 0 is_stmt 1
 4747 0030 0023     		movs	r3, #0
 4748 0032 3B61     		str	r3, [r7, #16]
1159:C:/Users/dtjld/Desktop/AIoT_software/LiteOS_Lab_overseas/LiteOS_Lab/iot_link/network/lwm2m/wakaama_lwm2m/core/er-coap-13\er-coap-13.c **** 
1160:C:/Users/dtjld/Desktop/AIoT_software/LiteOS_Lab_overseas/LiteOS_Lab/iot_link/network/lwm2m/wakaama_lwm2m/core/er-coap-13\er-coap-13.c ****         while (path[i] != 0 && path[i] != '/') i++;
 4749              		.loc 1 1160 0
 4750 0034 02E0     		b	.L240
 4751              	.L242:
 4752              		.loc 1 1160 0 is_stmt 0 discriminator 3
 4753 0036 3B69     		ldr	r3, [r7, #16]
 4754 0038 0133     		adds	r3, r3, #1
 4755 003a 3B61     		str	r3, [r7, #16]
 4756              	.L240:
 4757              		.loc 1 1160 0 discriminator 1
 4758 003c 3B69     		ldr	r3, [r7, #16]
 4759 003e 3A68     		ldr	r2, [r7]
 4760 0040 1344     		add	r3, r3, r2
 4761 0042 1B78     		ldrb	r3, [r3]	@ zero_extendqisi2
ARM GAS  C:\Users\dtjld\AppData\Local\Temp\ccpI0fza.s 			page 104


 4762 0044 002B     		cmp	r3, #0
 4763 0046 05D0     		beq	.L241
 4764              		.loc 1 1160 0 discriminator 2
 4765 0048 3B69     		ldr	r3, [r7, #16]
 4766 004a 3A68     		ldr	r2, [r7]
 4767 004c 1344     		add	r3, r3, r2
 4768 004e 1B78     		ldrb	r3, [r3]	@ zero_extendqisi2
 4769 0050 2F2B     		cmp	r3, #47
 4770 0052 F0D1     		bne	.L242
 4771              	.L241:
1161:C:/Users/dtjld/Desktop/AIoT_software/LiteOS_Lab_overseas/LiteOS_Lab/iot_link/network/lwm2m/wakaama_lwm2m/core/er-coap-13\er-coap-13.c ****         coap_add_multi_option(&(coap_pkt->uri_path), (uint8_t *)path, i, 0);
 4772              		.loc 1 1161 0 is_stmt 1
 4773 0054 FB68     		ldr	r3, [r7, #12]
 4774 0056 03F14400 		add	r0, r3, #68
 4775 005a 3A69     		ldr	r2, [r7, #16]
 4776 005c 0023     		movs	r3, #0
 4777 005e 3968     		ldr	r1, [r7]
 4778 0060 FFF7FEFF 		bl	coap_add_multi_option
1162:C:/Users/dtjld/Desktop/AIoT_software/LiteOS_Lab_overseas/LiteOS_Lab/iot_link/network/lwm2m/wakaama_lwm2m/core/er-coap-13\er-coap-13.c **** 
1163:C:/Users/dtjld/Desktop/AIoT_software/LiteOS_Lab_overseas/LiteOS_Lab/iot_link/network/lwm2m/wakaama_lwm2m/core/er-coap-13\er-coap-13.c ****         if (path[i] == '/') i++;
 4779              		.loc 1 1163 0
 4780 0064 3B69     		ldr	r3, [r7, #16]
 4781 0066 3A68     		ldr	r2, [r7]
 4782 0068 1344     		add	r3, r3, r2
 4783 006a 1B78     		ldrb	r3, [r3]	@ zero_extendqisi2
 4784 006c 2F2B     		cmp	r3, #47
 4785 006e 02D1     		bne	.L243
 4786              		.loc 1 1163 0 is_stmt 0 discriminator 1
 4787 0070 3B69     		ldr	r3, [r7, #16]
 4788 0072 0133     		adds	r3, r3, #1
 4789 0074 3B61     		str	r3, [r7, #16]
 4790              	.L243:
1164:C:/Users/dtjld/Desktop/AIoT_software/LiteOS_Lab_overseas/LiteOS_Lab/iot_link/network/lwm2m/wakaama_lwm2m/core/er-coap-13\er-coap-13.c ****         path += i;
 4791              		.loc 1 1164 0 is_stmt 1
 4792 0076 3B69     		ldr	r3, [r7, #16]
 4793 0078 3A68     		ldr	r2, [r7]
 4794 007a 1344     		add	r3, r3, r2
 4795 007c 3B60     		str	r3, [r7]
1165:C:/Users/dtjld/Desktop/AIoT_software/LiteOS_Lab_overseas/LiteOS_Lab/iot_link/network/lwm2m/wakaama_lwm2m/core/er-coap-13\er-coap-13.c ****         length += i;
 4796              		.loc 1 1165 0
 4797 007e 7A69     		ldr	r2, [r7, #20]
 4798 0080 3B69     		ldr	r3, [r7, #16]
 4799 0082 1344     		add	r3, r3, r2
 4800 0084 7B61     		str	r3, [r7, #20]
 4801              	.LBE12:
1166:C:/Users/dtjld/Desktop/AIoT_software/LiteOS_Lab_overseas/LiteOS_Lab/iot_link/network/lwm2m/wakaama_lwm2m/core/er-coap-13\er-coap-13.c ****     }
1167:C:/Users/dtjld/Desktop/AIoT_software/LiteOS_Lab_overseas/LiteOS_Lab/iot_link/network/lwm2m/wakaama_lwm2m/core/er-coap-13\er-coap-13.c ****     while (path[0] != 0);
 4802              		.loc 1 1167 0
 4803 0086 3B68     		ldr	r3, [r7]
 4804 0088 1B78     		ldrb	r3, [r3]	@ zero_extendqisi2
 4805 008a 002B     		cmp	r3, #0
 4806 008c D0D1     		bne	.L244
1168:C:/Users/dtjld/Desktop/AIoT_software/LiteOS_Lab_overseas/LiteOS_Lab/iot_link/network/lwm2m/wakaama_lwm2m/core/er-coap-13\er-coap-13.c **** 
1169:C:/Users/dtjld/Desktop/AIoT_software/LiteOS_Lab_overseas/LiteOS_Lab/iot_link/network/lwm2m/wakaama_lwm2m/core/er-coap-13\er-coap-13.c ****     SET_OPTION(coap_pkt, COAP_OPTION_URI_PATH);
 4807              		.loc 1 1169 0 discriminator 1
 4808 008e FB68     		ldr	r3, [r7, #12]
 4809 0090 DB7A     		ldrb	r3, [r3, #11]	@ zero_extendqisi2
ARM GAS  C:\Users\dtjld\AppData\Local\Temp\ccpI0fza.s 			page 105


 4810 0092 43F00803 		orr	r3, r3, #8
 4811 0096 DAB2     		uxtb	r2, r3
 4812 0098 FB68     		ldr	r3, [r7, #12]
 4813 009a DA72     		strb	r2, [r3, #11]
1170:C:/Users/dtjld/Desktop/AIoT_software/LiteOS_Lab_overseas/LiteOS_Lab/iot_link/network/lwm2m/wakaama_lwm2m/core/er-coap-13\er-coap-13.c ****     return length;
 4814              		.loc 1 1170 0 discriminator 1
 4815 009c 7B69     		ldr	r3, [r7, #20]
1171:C:/Users/dtjld/Desktop/AIoT_software/LiteOS_Lab_overseas/LiteOS_Lab/iot_link/network/lwm2m/wakaama_lwm2m/core/er-coap-13\er-coap-13.c **** }
 4816              		.loc 1 1171 0 discriminator 1
 4817 009e 1846     		mov	r0, r3
 4818 00a0 1837     		adds	r7, r7, #24
 4819              	.LCFI222:
 4820              		.cfi_def_cfa_offset 8
 4821 00a2 BD46     		mov	sp, r7
 4822              	.LCFI223:
 4823              		.cfi_def_cfa_register 13
 4824              		@ sp needed
 4825 00a4 80BD     		pop	{r7, pc}
 4826              		.cfi_endproc
 4827              	.LFE44:
 4829              		.section	.text.coap_set_header_uri_path_segment,"ax",%progbits
 4830              		.align	1
 4831              		.global	coap_set_header_uri_path_segment
 4832              		.syntax unified
 4833              		.thumb
 4834              		.thumb_func
 4835              		.fpu fpv4-sp-d16
 4837              	coap_set_header_uri_path_segment:
 4838              	.LFB45:
1172:C:/Users/dtjld/Desktop/AIoT_software/LiteOS_Lab_overseas/LiteOS_Lab/iot_link/network/lwm2m/wakaama_lwm2m/core/er-coap-13\er-coap-13.c **** 
1173:C:/Users/dtjld/Desktop/AIoT_software/LiteOS_Lab_overseas/LiteOS_Lab/iot_link/network/lwm2m/wakaama_lwm2m/core/er-coap-13\er-coap-13.c **** int
1174:C:/Users/dtjld/Desktop/AIoT_software/LiteOS_Lab_overseas/LiteOS_Lab/iot_link/network/lwm2m/wakaama_lwm2m/core/er-coap-13\er-coap-13.c **** coap_set_header_uri_path_segment(void *packet, const char *segment)
1175:C:/Users/dtjld/Desktop/AIoT_software/LiteOS_Lab_overseas/LiteOS_Lab/iot_link/network/lwm2m/wakaama_lwm2m/core/er-coap-13\er-coap-13.c **** {
 4839              		.loc 1 1175 0
 4840              		.cfi_startproc
 4841              		@ args = 0, pretend = 0, frame = 16
 4842              		@ frame_needed = 1, uses_anonymous_args = 0
 4843 0000 80B5     		push	{r7, lr}
 4844              	.LCFI224:
 4845              		.cfi_def_cfa_offset 8
 4846              		.cfi_offset 7, -8
 4847              		.cfi_offset 14, -4
 4848 0002 84B0     		sub	sp, sp, #16
 4849              	.LCFI225:
 4850              		.cfi_def_cfa_offset 24
 4851 0004 00AF     		add	r7, sp, #0
 4852              	.LCFI226:
 4853              		.cfi_def_cfa_register 7
 4854 0006 7860     		str	r0, [r7, #4]
 4855 0008 3960     		str	r1, [r7]
1176:C:/Users/dtjld/Desktop/AIoT_software/LiteOS_Lab_overseas/LiteOS_Lab/iot_link/network/lwm2m/wakaama_lwm2m/core/er-coap-13\er-coap-13.c ****     coap_packet_t *coap_pkt = (coap_packet_t *) packet;
 4856              		.loc 1 1176 0
 4857 000a 7B68     		ldr	r3, [r7, #4]
 4858 000c BB60     		str	r3, [r7, #8]
1177:C:/Users/dtjld/Desktop/AIoT_software/LiteOS_Lab_overseas/LiteOS_Lab/iot_link/network/lwm2m/wakaama_lwm2m/core/er-coap-13\er-coap-13.c ****     int length;
1178:C:/Users/dtjld/Desktop/AIoT_software/LiteOS_Lab_overseas/LiteOS_Lab/iot_link/network/lwm2m/wakaama_lwm2m/core/er-coap-13\er-coap-13.c **** 
1179:C:/Users/dtjld/Desktop/AIoT_software/LiteOS_Lab_overseas/LiteOS_Lab/iot_link/network/lwm2m/wakaama_lwm2m/core/er-coap-13\er-coap-13.c ****     if (segment == NULL || segment[0] == 0)
ARM GAS  C:\Users\dtjld\AppData\Local\Temp\ccpI0fza.s 			page 106


 4859              		.loc 1 1179 0
 4860 000e 3B68     		ldr	r3, [r7]
 4861 0010 002B     		cmp	r3, #0
 4862 0012 03D0     		beq	.L247
 4863              		.loc 1 1179 0 is_stmt 0 discriminator 1
 4864 0014 3B68     		ldr	r3, [r7]
 4865 0016 1B78     		ldrb	r3, [r3]	@ zero_extendqisi2
 4866 0018 002B     		cmp	r3, #0
 4867 001a 0AD1     		bne	.L248
 4868              	.L247:
1180:C:/Users/dtjld/Desktop/AIoT_software/LiteOS_Lab_overseas/LiteOS_Lab/iot_link/network/lwm2m/wakaama_lwm2m/core/er-coap-13\er-coap-13.c ****     {
1181:C:/Users/dtjld/Desktop/AIoT_software/LiteOS_Lab_overseas/LiteOS_Lab/iot_link/network/lwm2m/wakaama_lwm2m/core/er-coap-13\er-coap-13.c ****         coap_add_multi_option(&(coap_pkt->uri_path), NULL, 0, 1);
 4869              		.loc 1 1181 0 is_stmt 1
 4870 001c BB68     		ldr	r3, [r7, #8]
 4871 001e 03F14400 		add	r0, r3, #68
 4872 0022 0123     		movs	r3, #1
 4873 0024 0022     		movs	r2, #0
 4874 0026 0021     		movs	r1, #0
 4875 0028 FFF7FEFF 		bl	coap_add_multi_option
1182:C:/Users/dtjld/Desktop/AIoT_software/LiteOS_Lab_overseas/LiteOS_Lab/iot_link/network/lwm2m/wakaama_lwm2m/core/er-coap-13\er-coap-13.c ****         length = 0;
 4876              		.loc 1 1182 0
 4877 002c 0023     		movs	r3, #0
 4878 002e FB60     		str	r3, [r7, #12]
 4879 0030 0CE0     		b	.L251
 4880              	.L248:
1183:C:/Users/dtjld/Desktop/AIoT_software/LiteOS_Lab_overseas/LiteOS_Lab/iot_link/network/lwm2m/wakaama_lwm2m/core/er-coap-13\er-coap-13.c ****     }
1184:C:/Users/dtjld/Desktop/AIoT_software/LiteOS_Lab_overseas/LiteOS_Lab/iot_link/network/lwm2m/wakaama_lwm2m/core/er-coap-13\er-coap-13.c ****     else
1185:C:/Users/dtjld/Desktop/AIoT_software/LiteOS_Lab_overseas/LiteOS_Lab/iot_link/network/lwm2m/wakaama_lwm2m/core/er-coap-13\er-coap-13.c ****     {
1186:C:/Users/dtjld/Desktop/AIoT_software/LiteOS_Lab_overseas/LiteOS_Lab/iot_link/network/lwm2m/wakaama_lwm2m/core/er-coap-13\er-coap-13.c ****         length = strlen(segment);
 4881              		.loc 1 1186 0
 4882 0032 3868     		ldr	r0, [r7]
 4883 0034 FFF7FEFF 		bl	strlen
 4884 0038 0346     		mov	r3, r0
 4885 003a FB60     		str	r3, [r7, #12]
1187:C:/Users/dtjld/Desktop/AIoT_software/LiteOS_Lab_overseas/LiteOS_Lab/iot_link/network/lwm2m/wakaama_lwm2m/core/er-coap-13\er-coap-13.c ****         coap_add_multi_option(&(coap_pkt->uri_path), (uint8_t *)segment, length, 0);
 4886              		.loc 1 1187 0
 4887 003c BB68     		ldr	r3, [r7, #8]
 4888 003e 03F14400 		add	r0, r3, #68
 4889 0042 FA68     		ldr	r2, [r7, #12]
 4890 0044 0023     		movs	r3, #0
 4891 0046 3968     		ldr	r1, [r7]
 4892 0048 FFF7FEFF 		bl	coap_add_multi_option
 4893              	.L251:
1188:C:/Users/dtjld/Desktop/AIoT_software/LiteOS_Lab_overseas/LiteOS_Lab/iot_link/network/lwm2m/wakaama_lwm2m/core/er-coap-13\er-coap-13.c ****     }
1189:C:/Users/dtjld/Desktop/AIoT_software/LiteOS_Lab_overseas/LiteOS_Lab/iot_link/network/lwm2m/wakaama_lwm2m/core/er-coap-13\er-coap-13.c **** 
1190:C:/Users/dtjld/Desktop/AIoT_software/LiteOS_Lab_overseas/LiteOS_Lab/iot_link/network/lwm2m/wakaama_lwm2m/core/er-coap-13\er-coap-13.c ****     SET_OPTION(coap_pkt, COAP_OPTION_URI_PATH);
 4894              		.loc 1 1190 0 discriminator 1
 4895 004c BB68     		ldr	r3, [r7, #8]
 4896 004e DB7A     		ldrb	r3, [r3, #11]	@ zero_extendqisi2
 4897 0050 43F00803 		orr	r3, r3, #8
 4898 0054 DAB2     		uxtb	r2, r3
 4899 0056 BB68     		ldr	r3, [r7, #8]
 4900 0058 DA72     		strb	r2, [r3, #11]
1191:C:/Users/dtjld/Desktop/AIoT_software/LiteOS_Lab_overseas/LiteOS_Lab/iot_link/network/lwm2m/wakaama_lwm2m/core/er-coap-13\er-coap-13.c ****     return length;
 4901              		.loc 1 1191 0 discriminator 1
 4902 005a FB68     		ldr	r3, [r7, #12]
1192:C:/Users/dtjld/Desktop/AIoT_software/LiteOS_Lab_overseas/LiteOS_Lab/iot_link/network/lwm2m/wakaama_lwm2m/core/er-coap-13\er-coap-13.c **** }
ARM GAS  C:\Users\dtjld\AppData\Local\Temp\ccpI0fza.s 			page 107


 4903              		.loc 1 1192 0 discriminator 1
 4904 005c 1846     		mov	r0, r3
 4905 005e 1037     		adds	r7, r7, #16
 4906              	.LCFI227:
 4907              		.cfi_def_cfa_offset 8
 4908 0060 BD46     		mov	sp, r7
 4909              	.LCFI228:
 4910              		.cfi_def_cfa_register 13
 4911              		@ sp needed
 4912 0062 80BD     		pop	{r7, pc}
 4913              		.cfi_endproc
 4914              	.LFE45:
 4916              		.section	.text.coap_get_header_uri_query,"ax",%progbits
 4917              		.align	1
 4918              		.global	coap_get_header_uri_query
 4919              		.syntax unified
 4920              		.thumb
 4921              		.thumb_func
 4922              		.fpu fpv4-sp-d16
 4924              	coap_get_header_uri_query:
 4925              	.LFB46:
1193:C:/Users/dtjld/Desktop/AIoT_software/LiteOS_Lab_overseas/LiteOS_Lab/iot_link/network/lwm2m/wakaama_lwm2m/core/er-coap-13\er-coap-13.c **** /*-----------------------------------------------------------------------------------*/
1194:C:/Users/dtjld/Desktop/AIoT_software/LiteOS_Lab_overseas/LiteOS_Lab/iot_link/network/lwm2m/wakaama_lwm2m/core/er-coap-13\er-coap-13.c **** int
1195:C:/Users/dtjld/Desktop/AIoT_software/LiteOS_Lab_overseas/LiteOS_Lab/iot_link/network/lwm2m/wakaama_lwm2m/core/er-coap-13\er-coap-13.c **** coap_get_header_uri_query(void *packet, const char **query)
1196:C:/Users/dtjld/Desktop/AIoT_software/LiteOS_Lab_overseas/LiteOS_Lab/iot_link/network/lwm2m/wakaama_lwm2m/core/er-coap-13\er-coap-13.c **** {
 4926              		.loc 1 1196 0
 4927              		.cfi_startproc
 4928              		@ args = 0, pretend = 0, frame = 16
 4929              		@ frame_needed = 1, uses_anonymous_args = 0
 4930              		@ link register save eliminated.
 4931 0000 80B4     		push	{r7}
 4932              	.LCFI229:
 4933              		.cfi_def_cfa_offset 4
 4934              		.cfi_offset 7, -4
 4935 0002 85B0     		sub	sp, sp, #20
 4936              	.LCFI230:
 4937              		.cfi_def_cfa_offset 24
 4938 0004 00AF     		add	r7, sp, #0
 4939              	.LCFI231:
 4940              		.cfi_def_cfa_register 7
 4941 0006 7860     		str	r0, [r7, #4]
 4942 0008 3960     		str	r1, [r7]
1197:C:/Users/dtjld/Desktop/AIoT_software/LiteOS_Lab_overseas/LiteOS_Lab/iot_link/network/lwm2m/wakaama_lwm2m/core/er-coap-13\er-coap-13.c ****     coap_packet_t *const coap_pkt = (coap_packet_t *) packet;
 4943              		.loc 1 1197 0
 4944 000a 7B68     		ldr	r3, [r7, #4]
 4945 000c FB60     		str	r3, [r7, #12]
1198:C:/Users/dtjld/Desktop/AIoT_software/LiteOS_Lab_overseas/LiteOS_Lab/iot_link/network/lwm2m/wakaama_lwm2m/core/er-coap-13\er-coap-13.c **** 
1199:C:/Users/dtjld/Desktop/AIoT_software/LiteOS_Lab_overseas/LiteOS_Lab/iot_link/network/lwm2m/wakaama_lwm2m/core/er-coap-13\er-coap-13.c ****     if (!IS_OPTION(coap_pkt, COAP_OPTION_URI_QUERY)) return 0;
 4946              		.loc 1 1199 0
 4947 000e FB68     		ldr	r3, [r7, #12]
 4948 0010 DB7A     		ldrb	r3, [r3, #11]	@ zero_extendqisi2
 4949 0012 5BB2     		sxtb	r3, r3
 4950 0014 002B     		cmp	r3, #0
 4951 0016 01DB     		blt	.L253
 4952              		.loc 1 1199 0 is_stmt 0 discriminator 1
 4953 0018 0023     		movs	r3, #0
 4954 001a 03E0     		b	.L254
ARM GAS  C:\Users\dtjld\AppData\Local\Temp\ccpI0fza.s 			page 108


 4955              	.L253:
1200:C:/Users/dtjld/Desktop/AIoT_software/LiteOS_Lab_overseas/LiteOS_Lab/iot_link/network/lwm2m/wakaama_lwm2m/core/er-coap-13\er-coap-13.c **** 
1201:C:/Users/dtjld/Desktop/AIoT_software/LiteOS_Lab_overseas/LiteOS_Lab/iot_link/network/lwm2m/wakaama_lwm2m/core/er-coap-13\er-coap-13.c ****     *query = NULL; //coap_pkt->uri_query;
 4956              		.loc 1 1201 0 is_stmt 1
 4957 001c 3B68     		ldr	r3, [r7]
 4958 001e 0022     		movs	r2, #0
 4959 0020 1A60     		str	r2, [r3]
1202:C:/Users/dtjld/Desktop/AIoT_software/LiteOS_Lab_overseas/LiteOS_Lab/iot_link/network/lwm2m/wakaama_lwm2m/core/er-coap-13\er-coap-13.c ****     return 0; //coap_pkt->uri_query_len;
 4960              		.loc 1 1202 0
 4961 0022 0023     		movs	r3, #0
 4962              	.L254:
1203:C:/Users/dtjld/Desktop/AIoT_software/LiteOS_Lab_overseas/LiteOS_Lab/iot_link/network/lwm2m/wakaama_lwm2m/core/er-coap-13\er-coap-13.c **** }
 4963              		.loc 1 1203 0
 4964 0024 1846     		mov	r0, r3
 4965 0026 1437     		adds	r7, r7, #20
 4966              	.LCFI232:
 4967              		.cfi_def_cfa_offset 4
 4968 0028 BD46     		mov	sp, r7
 4969              	.LCFI233:
 4970              		.cfi_def_cfa_register 13
 4971              		@ sp needed
 4972 002a 5DF8047B 		ldr	r7, [sp], #4
 4973              	.LCFI234:
 4974              		.cfi_restore 7
 4975              		.cfi_def_cfa_offset 0
 4976 002e 7047     		bx	lr
 4977              		.cfi_endproc
 4978              	.LFE46:
 4980              		.section	.text.coap_set_header_uri_query,"ax",%progbits
 4981              		.align	1
 4982              		.global	coap_set_header_uri_query
 4983              		.syntax unified
 4984              		.thumb
 4985              		.thumb_func
 4986              		.fpu fpv4-sp-d16
 4988              	coap_set_header_uri_query:
 4989              	.LFB47:
1204:C:/Users/dtjld/Desktop/AIoT_software/LiteOS_Lab_overseas/LiteOS_Lab/iot_link/network/lwm2m/wakaama_lwm2m/core/er-coap-13\er-coap-13.c **** 
1205:C:/Users/dtjld/Desktop/AIoT_software/LiteOS_Lab_overseas/LiteOS_Lab/iot_link/network/lwm2m/wakaama_lwm2m/core/er-coap-13\er-coap-13.c **** int
1206:C:/Users/dtjld/Desktop/AIoT_software/LiteOS_Lab_overseas/LiteOS_Lab/iot_link/network/lwm2m/wakaama_lwm2m/core/er-coap-13\er-coap-13.c **** coap_set_header_uri_query(void *packet, const char *query)
1207:C:/Users/dtjld/Desktop/AIoT_software/LiteOS_Lab_overseas/LiteOS_Lab/iot_link/network/lwm2m/wakaama_lwm2m/core/er-coap-13\er-coap-13.c **** {
 4990              		.loc 1 1207 0
 4991              		.cfi_startproc
 4992              		@ args = 0, pretend = 0, frame = 24
 4993              		@ frame_needed = 1, uses_anonymous_args = 0
 4994 0000 80B5     		push	{r7, lr}
 4995              	.LCFI235:
 4996              		.cfi_def_cfa_offset 8
 4997              		.cfi_offset 7, -8
 4998              		.cfi_offset 14, -4
 4999 0002 86B0     		sub	sp, sp, #24
 5000              	.LCFI236:
 5001              		.cfi_def_cfa_offset 32
 5002 0004 00AF     		add	r7, sp, #0
 5003              	.LCFI237:
 5004              		.cfi_def_cfa_register 7
 5005 0006 7860     		str	r0, [r7, #4]
ARM GAS  C:\Users\dtjld\AppData\Local\Temp\ccpI0fza.s 			page 109


 5006 0008 3960     		str	r1, [r7]
1208:C:/Users/dtjld/Desktop/AIoT_software/LiteOS_Lab_overseas/LiteOS_Lab/iot_link/network/lwm2m/wakaama_lwm2m/core/er-coap-13\er-coap-13.c ****     int length = 0;
 5007              		.loc 1 1208 0
 5008 000a 0023     		movs	r3, #0
 5009 000c 7B61     		str	r3, [r7, #20]
1209:C:/Users/dtjld/Desktop/AIoT_software/LiteOS_Lab_overseas/LiteOS_Lab/iot_link/network/lwm2m/wakaama_lwm2m/core/er-coap-13\er-coap-13.c ****     coap_packet_t *const coap_pkt = (coap_packet_t *) packet;
 5010              		.loc 1 1209 0
 5011 000e 7B68     		ldr	r3, [r7, #4]
 5012 0010 FB60     		str	r3, [r7, #12]
1210:C:/Users/dtjld/Desktop/AIoT_software/LiteOS_Lab_overseas/LiteOS_Lab/iot_link/network/lwm2m/wakaama_lwm2m/core/er-coap-13\er-coap-13.c **** 
1211:C:/Users/dtjld/Desktop/AIoT_software/LiteOS_Lab_overseas/LiteOS_Lab/iot_link/network/lwm2m/wakaama_lwm2m/core/er-coap-13\er-coap-13.c ****     free_multi_option(coap_pkt->uri_query);
 5013              		.loc 1 1211 0
 5014 0012 FB68     		ldr	r3, [r7, #12]
 5015 0014 D3F88030 		ldr	r3, [r3, #128]
 5016 0018 1846     		mov	r0, r3
 5017 001a FFF7FEFF 		bl	free_multi_option
1212:C:/Users/dtjld/Desktop/AIoT_software/LiteOS_Lab_overseas/LiteOS_Lab/iot_link/network/lwm2m/wakaama_lwm2m/core/er-coap-13\er-coap-13.c ****     coap_pkt->uri_query = NULL;
 5018              		.loc 1 1212 0
 5019 001e FB68     		ldr	r3, [r7, #12]
 5020 0020 0022     		movs	r2, #0
 5021 0022 C3F88020 		str	r2, [r3, #128]
1213:C:/Users/dtjld/Desktop/AIoT_software/LiteOS_Lab_overseas/LiteOS_Lab/iot_link/network/lwm2m/wakaama_lwm2m/core/er-coap-13\er-coap-13.c **** 
1214:C:/Users/dtjld/Desktop/AIoT_software/LiteOS_Lab_overseas/LiteOS_Lab/iot_link/network/lwm2m/wakaama_lwm2m/core/er-coap-13\er-coap-13.c ****     if (query[0] == '?') ++query;
 5022              		.loc 1 1214 0
 5023 0026 3B68     		ldr	r3, [r7]
 5024 0028 1B78     		ldrb	r3, [r3]	@ zero_extendqisi2
 5025 002a 3F2B     		cmp	r3, #63
 5026 002c 02D1     		bne	.L261
 5027              		.loc 1 1214 0 is_stmt 0 discriminator 1
 5028 002e 3B68     		ldr	r3, [r7]
 5029 0030 0133     		adds	r3, r3, #1
 5030 0032 3B60     		str	r3, [r7]
 5031              	.L261:
 5032              	.LBB13:
1215:C:/Users/dtjld/Desktop/AIoT_software/LiteOS_Lab_overseas/LiteOS_Lab/iot_link/network/lwm2m/wakaama_lwm2m/core/er-coap-13\er-coap-13.c **** 
1216:C:/Users/dtjld/Desktop/AIoT_software/LiteOS_Lab_overseas/LiteOS_Lab/iot_link/network/lwm2m/wakaama_lwm2m/core/er-coap-13\er-coap-13.c ****     do
1217:C:/Users/dtjld/Desktop/AIoT_software/LiteOS_Lab_overseas/LiteOS_Lab/iot_link/network/lwm2m/wakaama_lwm2m/core/er-coap-13\er-coap-13.c ****     {
1218:C:/Users/dtjld/Desktop/AIoT_software/LiteOS_Lab_overseas/LiteOS_Lab/iot_link/network/lwm2m/wakaama_lwm2m/core/er-coap-13\er-coap-13.c ****         int i = 0;
 5033              		.loc 1 1218 0 is_stmt 1
 5034 0034 0023     		movs	r3, #0
 5035 0036 3B61     		str	r3, [r7, #16]
1219:C:/Users/dtjld/Desktop/AIoT_software/LiteOS_Lab_overseas/LiteOS_Lab/iot_link/network/lwm2m/wakaama_lwm2m/core/er-coap-13\er-coap-13.c **** 
1220:C:/Users/dtjld/Desktop/AIoT_software/LiteOS_Lab_overseas/LiteOS_Lab/iot_link/network/lwm2m/wakaama_lwm2m/core/er-coap-13\er-coap-13.c ****         while (query[i] != 0 && query[i] != '&') i++;
 5036              		.loc 1 1220 0
 5037 0038 02E0     		b	.L257
 5038              	.L259:
 5039              		.loc 1 1220 0 is_stmt 0 discriminator 3
 5040 003a 3B69     		ldr	r3, [r7, #16]
 5041 003c 0133     		adds	r3, r3, #1
 5042 003e 3B61     		str	r3, [r7, #16]
 5043              	.L257:
 5044              		.loc 1 1220 0 discriminator 1
 5045 0040 3B69     		ldr	r3, [r7, #16]
 5046 0042 3A68     		ldr	r2, [r7]
 5047 0044 1344     		add	r3, r3, r2
 5048 0046 1B78     		ldrb	r3, [r3]	@ zero_extendqisi2
 5049 0048 002B     		cmp	r3, #0
ARM GAS  C:\Users\dtjld\AppData\Local\Temp\ccpI0fza.s 			page 110


 5050 004a 05D0     		beq	.L258
 5051              		.loc 1 1220 0 discriminator 2
 5052 004c 3B69     		ldr	r3, [r7, #16]
 5053 004e 3A68     		ldr	r2, [r7]
 5054 0050 1344     		add	r3, r3, r2
 5055 0052 1B78     		ldrb	r3, [r3]	@ zero_extendqisi2
 5056 0054 262B     		cmp	r3, #38
 5057 0056 F0D1     		bne	.L259
 5058              	.L258:
1221:C:/Users/dtjld/Desktop/AIoT_software/LiteOS_Lab_overseas/LiteOS_Lab/iot_link/network/lwm2m/wakaama_lwm2m/core/er-coap-13\er-coap-13.c ****         coap_add_multi_option(&(coap_pkt->uri_query), (uint8_t *)query, i, 0);
 5059              		.loc 1 1221 0 is_stmt 1
 5060 0058 FB68     		ldr	r3, [r7, #12]
 5061 005a 03F18000 		add	r0, r3, #128
 5062 005e 3A69     		ldr	r2, [r7, #16]
 5063 0060 0023     		movs	r3, #0
 5064 0062 3968     		ldr	r1, [r7]
 5065 0064 FFF7FEFF 		bl	coap_add_multi_option
1222:C:/Users/dtjld/Desktop/AIoT_software/LiteOS_Lab_overseas/LiteOS_Lab/iot_link/network/lwm2m/wakaama_lwm2m/core/er-coap-13\er-coap-13.c **** 
1223:C:/Users/dtjld/Desktop/AIoT_software/LiteOS_Lab_overseas/LiteOS_Lab/iot_link/network/lwm2m/wakaama_lwm2m/core/er-coap-13\er-coap-13.c ****         if (query[i] == '&') i++;
 5066              		.loc 1 1223 0
 5067 0068 3B69     		ldr	r3, [r7, #16]
 5068 006a 3A68     		ldr	r2, [r7]
 5069 006c 1344     		add	r3, r3, r2
 5070 006e 1B78     		ldrb	r3, [r3]	@ zero_extendqisi2
 5071 0070 262B     		cmp	r3, #38
 5072 0072 02D1     		bne	.L260
 5073              		.loc 1 1223 0 is_stmt 0 discriminator 1
 5074 0074 3B69     		ldr	r3, [r7, #16]
 5075 0076 0133     		adds	r3, r3, #1
 5076 0078 3B61     		str	r3, [r7, #16]
 5077              	.L260:
1224:C:/Users/dtjld/Desktop/AIoT_software/LiteOS_Lab_overseas/LiteOS_Lab/iot_link/network/lwm2m/wakaama_lwm2m/core/er-coap-13\er-coap-13.c ****         query += i;
 5078              		.loc 1 1224 0 is_stmt 1
 5079 007a 3B69     		ldr	r3, [r7, #16]
 5080 007c 3A68     		ldr	r2, [r7]
 5081 007e 1344     		add	r3, r3, r2
 5082 0080 3B60     		str	r3, [r7]
1225:C:/Users/dtjld/Desktop/AIoT_software/LiteOS_Lab_overseas/LiteOS_Lab/iot_link/network/lwm2m/wakaama_lwm2m/core/er-coap-13\er-coap-13.c ****         length += i;
 5083              		.loc 1 1225 0
 5084 0082 7A69     		ldr	r2, [r7, #20]
 5085 0084 3B69     		ldr	r3, [r7, #16]
 5086 0086 1344     		add	r3, r3, r2
 5087 0088 7B61     		str	r3, [r7, #20]
 5088              	.LBE13:
1226:C:/Users/dtjld/Desktop/AIoT_software/LiteOS_Lab_overseas/LiteOS_Lab/iot_link/network/lwm2m/wakaama_lwm2m/core/er-coap-13\er-coap-13.c ****     }
1227:C:/Users/dtjld/Desktop/AIoT_software/LiteOS_Lab_overseas/LiteOS_Lab/iot_link/network/lwm2m/wakaama_lwm2m/core/er-coap-13\er-coap-13.c ****     while (query[0] != 0);
 5089              		.loc 1 1227 0
 5090 008a 3B68     		ldr	r3, [r7]
 5091 008c 1B78     		ldrb	r3, [r3]	@ zero_extendqisi2
 5092 008e 002B     		cmp	r3, #0
 5093 0090 D0D1     		bne	.L261
1228:C:/Users/dtjld/Desktop/AIoT_software/LiteOS_Lab_overseas/LiteOS_Lab/iot_link/network/lwm2m/wakaama_lwm2m/core/er-coap-13\er-coap-13.c **** 
1229:C:/Users/dtjld/Desktop/AIoT_software/LiteOS_Lab_overseas/LiteOS_Lab/iot_link/network/lwm2m/wakaama_lwm2m/core/er-coap-13\er-coap-13.c ****     SET_OPTION(coap_pkt, COAP_OPTION_URI_QUERY);
 5094              		.loc 1 1229 0 discriminator 1
 5095 0092 FB68     		ldr	r3, [r7, #12]
 5096 0094 DB7A     		ldrb	r3, [r3, #11]	@ zero_extendqisi2
 5097 0096 63F07F03 		orn	r3, r3, #127
ARM GAS  C:\Users\dtjld\AppData\Local\Temp\ccpI0fza.s 			page 111


 5098 009a DAB2     		uxtb	r2, r3
 5099 009c FB68     		ldr	r3, [r7, #12]
 5100 009e DA72     		strb	r2, [r3, #11]
1230:C:/Users/dtjld/Desktop/AIoT_software/LiteOS_Lab_overseas/LiteOS_Lab/iot_link/network/lwm2m/wakaama_lwm2m/core/er-coap-13\er-coap-13.c ****     return length;
 5101              		.loc 1 1230 0 discriminator 1
 5102 00a0 7B69     		ldr	r3, [r7, #20]
1231:C:/Users/dtjld/Desktop/AIoT_software/LiteOS_Lab_overseas/LiteOS_Lab/iot_link/network/lwm2m/wakaama_lwm2m/core/er-coap-13\er-coap-13.c **** }
 5103              		.loc 1 1231 0 discriminator 1
 5104 00a2 1846     		mov	r0, r3
 5105 00a4 1837     		adds	r7, r7, #24
 5106              	.LCFI238:
 5107              		.cfi_def_cfa_offset 8
 5108 00a6 BD46     		mov	sp, r7
 5109              	.LCFI239:
 5110              		.cfi_def_cfa_register 13
 5111              		@ sp needed
 5112 00a8 80BD     		pop	{r7, pc}
 5113              		.cfi_endproc
 5114              	.LFE47:
 5116              		.section	.text.coap_get_header_location_path,"ax",%progbits
 5117              		.align	1
 5118              		.global	coap_get_header_location_path
 5119              		.syntax unified
 5120              		.thumb
 5121              		.thumb_func
 5122              		.fpu fpv4-sp-d16
 5124              	coap_get_header_location_path:
 5125              	.LFB48:
1232:C:/Users/dtjld/Desktop/AIoT_software/LiteOS_Lab_overseas/LiteOS_Lab/iot_link/network/lwm2m/wakaama_lwm2m/core/er-coap-13\er-coap-13.c **** /*-----------------------------------------------------------------------------------*/
1233:C:/Users/dtjld/Desktop/AIoT_software/LiteOS_Lab_overseas/LiteOS_Lab/iot_link/network/lwm2m/wakaama_lwm2m/core/er-coap-13\er-coap-13.c **** int
1234:C:/Users/dtjld/Desktop/AIoT_software/LiteOS_Lab_overseas/LiteOS_Lab/iot_link/network/lwm2m/wakaama_lwm2m/core/er-coap-13\er-coap-13.c **** coap_get_header_location_path(void *packet, const char **path)
1235:C:/Users/dtjld/Desktop/AIoT_software/LiteOS_Lab_overseas/LiteOS_Lab/iot_link/network/lwm2m/wakaama_lwm2m/core/er-coap-13\er-coap-13.c **** {
 5126              		.loc 1 1235 0
 5127              		.cfi_startproc
 5128              		@ args = 0, pretend = 0, frame = 16
 5129              		@ frame_needed = 1, uses_anonymous_args = 0
 5130              		@ link register save eliminated.
 5131 0000 80B4     		push	{r7}
 5132              	.LCFI240:
 5133              		.cfi_def_cfa_offset 4
 5134              		.cfi_offset 7, -4
 5135 0002 85B0     		sub	sp, sp, #20
 5136              	.LCFI241:
 5137              		.cfi_def_cfa_offset 24
 5138 0004 00AF     		add	r7, sp, #0
 5139              	.LCFI242:
 5140              		.cfi_def_cfa_register 7
 5141 0006 7860     		str	r0, [r7, #4]
 5142 0008 3960     		str	r1, [r7]
1236:C:/Users/dtjld/Desktop/AIoT_software/LiteOS_Lab_overseas/LiteOS_Lab/iot_link/network/lwm2m/wakaama_lwm2m/core/er-coap-13\er-coap-13.c ****     coap_packet_t *const coap_pkt = (coap_packet_t *) packet;
 5143              		.loc 1 1236 0
 5144 000a 7B68     		ldr	r3, [r7, #4]
 5145 000c FB60     		str	r3, [r7, #12]
1237:C:/Users/dtjld/Desktop/AIoT_software/LiteOS_Lab_overseas/LiteOS_Lab/iot_link/network/lwm2m/wakaama_lwm2m/core/er-coap-13\er-coap-13.c **** 
1238:C:/Users/dtjld/Desktop/AIoT_software/LiteOS_Lab_overseas/LiteOS_Lab/iot_link/network/lwm2m/wakaama_lwm2m/core/er-coap-13\er-coap-13.c ****     if (!IS_OPTION(coap_pkt, COAP_OPTION_LOCATION_PATH)) return 0;
 5146              		.loc 1 1238 0
 5147 000e FB68     		ldr	r3, [r7, #12]
ARM GAS  C:\Users\dtjld\AppData\Local\Temp\ccpI0fza.s 			page 112


 5148 0010 DB7A     		ldrb	r3, [r3, #11]	@ zero_extendqisi2
 5149 0012 03F00103 		and	r3, r3, #1
 5150 0016 002B     		cmp	r3, #0
 5151 0018 01D1     		bne	.L264
 5152              		.loc 1 1238 0 is_stmt 0 discriminator 1
 5153 001a 0023     		movs	r3, #0
 5154 001c 03E0     		b	.L265
 5155              	.L264:
1239:C:/Users/dtjld/Desktop/AIoT_software/LiteOS_Lab_overseas/LiteOS_Lab/iot_link/network/lwm2m/wakaama_lwm2m/core/er-coap-13\er-coap-13.c **** 
1240:C:/Users/dtjld/Desktop/AIoT_software/LiteOS_Lab_overseas/LiteOS_Lab/iot_link/network/lwm2m/wakaama_lwm2m/core/er-coap-13\er-coap-13.c ****     *path = NULL; //coap_pkt->location_path;
 5156              		.loc 1 1240 0 is_stmt 1
 5157 001e 3B68     		ldr	r3, [r7]
 5158 0020 0022     		movs	r2, #0
 5159 0022 1A60     		str	r2, [r3]
1241:C:/Users/dtjld/Desktop/AIoT_software/LiteOS_Lab_overseas/LiteOS_Lab/iot_link/network/lwm2m/wakaama_lwm2m/core/er-coap-13\er-coap-13.c ****     return 0; //coap_pkt->location_path_len;
 5160              		.loc 1 1241 0
 5161 0024 0023     		movs	r3, #0
 5162              	.L265:
1242:C:/Users/dtjld/Desktop/AIoT_software/LiteOS_Lab_overseas/LiteOS_Lab/iot_link/network/lwm2m/wakaama_lwm2m/core/er-coap-13\er-coap-13.c **** }
 5163              		.loc 1 1242 0
 5164 0026 1846     		mov	r0, r3
 5165 0028 1437     		adds	r7, r7, #20
 5166              	.LCFI243:
 5167              		.cfi_def_cfa_offset 4
 5168 002a BD46     		mov	sp, r7
 5169              	.LCFI244:
 5170              		.cfi_def_cfa_register 13
 5171              		@ sp needed
 5172 002c 5DF8047B 		ldr	r7, [sp], #4
 5173              	.LCFI245:
 5174              		.cfi_restore 7
 5175              		.cfi_def_cfa_offset 0
 5176 0030 7047     		bx	lr
 5177              		.cfi_endproc
 5178              	.LFE48:
 5180              		.section	.text.coap_set_header_location_path,"ax",%progbits
 5181              		.align	1
 5182              		.global	coap_set_header_location_path
 5183              		.syntax unified
 5184              		.thumb
 5185              		.thumb_func
 5186              		.fpu fpv4-sp-d16
 5188              	coap_set_header_location_path:
 5189              	.LFB49:
1243:C:/Users/dtjld/Desktop/AIoT_software/LiteOS_Lab_overseas/LiteOS_Lab/iot_link/network/lwm2m/wakaama_lwm2m/core/er-coap-13\er-coap-13.c **** 
1244:C:/Users/dtjld/Desktop/AIoT_software/LiteOS_Lab_overseas/LiteOS_Lab/iot_link/network/lwm2m/wakaama_lwm2m/core/er-coap-13\er-coap-13.c **** int
1245:C:/Users/dtjld/Desktop/AIoT_software/LiteOS_Lab_overseas/LiteOS_Lab/iot_link/network/lwm2m/wakaama_lwm2m/core/er-coap-13\er-coap-13.c **** coap_set_header_location_path(void *packet, const char *path)
1246:C:/Users/dtjld/Desktop/AIoT_software/LiteOS_Lab_overseas/LiteOS_Lab/iot_link/network/lwm2m/wakaama_lwm2m/core/er-coap-13\er-coap-13.c **** {
 5190              		.loc 1 1246 0
 5191              		.cfi_startproc
 5192              		@ args = 0, pretend = 0, frame = 24
 5193              		@ frame_needed = 1, uses_anonymous_args = 0
 5194 0000 80B5     		push	{r7, lr}
 5195              	.LCFI246:
 5196              		.cfi_def_cfa_offset 8
 5197              		.cfi_offset 7, -8
 5198              		.cfi_offset 14, -4
ARM GAS  C:\Users\dtjld\AppData\Local\Temp\ccpI0fza.s 			page 113


 5199 0002 86B0     		sub	sp, sp, #24
 5200              	.LCFI247:
 5201              		.cfi_def_cfa_offset 32
 5202 0004 00AF     		add	r7, sp, #0
 5203              	.LCFI248:
 5204              		.cfi_def_cfa_register 7
 5205 0006 7860     		str	r0, [r7, #4]
 5206 0008 3960     		str	r1, [r7]
1247:C:/Users/dtjld/Desktop/AIoT_software/LiteOS_Lab_overseas/LiteOS_Lab/iot_link/network/lwm2m/wakaama_lwm2m/core/er-coap-13\er-coap-13.c ****     coap_packet_t *coap_pkt = (coap_packet_t *) packet;
 5207              		.loc 1 1247 0
 5208 000a 7B68     		ldr	r3, [r7, #4]
 5209 000c FB60     		str	r3, [r7, #12]
1248:C:/Users/dtjld/Desktop/AIoT_software/LiteOS_Lab_overseas/LiteOS_Lab/iot_link/network/lwm2m/wakaama_lwm2m/core/er-coap-13\er-coap-13.c ****     int length = 0;
 5210              		.loc 1 1248 0
 5211 000e 0023     		movs	r3, #0
 5212 0010 7B61     		str	r3, [r7, #20]
1249:C:/Users/dtjld/Desktop/AIoT_software/LiteOS_Lab_overseas/LiteOS_Lab/iot_link/network/lwm2m/wakaama_lwm2m/core/er-coap-13\er-coap-13.c **** 
1250:C:/Users/dtjld/Desktop/AIoT_software/LiteOS_Lab_overseas/LiteOS_Lab/iot_link/network/lwm2m/wakaama_lwm2m/core/er-coap-13\er-coap-13.c ****     free_multi_option(coap_pkt->location_path);
 5213              		.loc 1 1250 0
 5214 0012 FB68     		ldr	r3, [r7, #12]
 5215 0014 5B6B     		ldr	r3, [r3, #52]
 5216 0016 1846     		mov	r0, r3
 5217 0018 FFF7FEFF 		bl	free_multi_option
1251:C:/Users/dtjld/Desktop/AIoT_software/LiteOS_Lab_overseas/LiteOS_Lab/iot_link/network/lwm2m/wakaama_lwm2m/core/er-coap-13\er-coap-13.c ****     coap_pkt->location_path = NULL;
 5218              		.loc 1 1251 0
 5219 001c FB68     		ldr	r3, [r7, #12]
 5220 001e 0022     		movs	r2, #0
 5221 0020 5A63     		str	r2, [r3, #52]
1252:C:/Users/dtjld/Desktop/AIoT_software/LiteOS_Lab_overseas/LiteOS_Lab/iot_link/network/lwm2m/wakaama_lwm2m/core/er-coap-13\er-coap-13.c **** 
1253:C:/Users/dtjld/Desktop/AIoT_software/LiteOS_Lab_overseas/LiteOS_Lab/iot_link/network/lwm2m/wakaama_lwm2m/core/er-coap-13\er-coap-13.c ****     if (path[0] == '/') ++path;
 5222              		.loc 1 1253 0
 5223 0022 3B68     		ldr	r3, [r7]
 5224 0024 1B78     		ldrb	r3, [r3]	@ zero_extendqisi2
 5225 0026 2F2B     		cmp	r3, #47
 5226 0028 02D1     		bne	.L272
 5227              		.loc 1 1253 0 is_stmt 0 discriminator 1
 5228 002a 3B68     		ldr	r3, [r7]
 5229 002c 0133     		adds	r3, r3, #1
 5230 002e 3B60     		str	r3, [r7]
 5231              	.L272:
 5232              	.LBB14:
1254:C:/Users/dtjld/Desktop/AIoT_software/LiteOS_Lab_overseas/LiteOS_Lab/iot_link/network/lwm2m/wakaama_lwm2m/core/er-coap-13\er-coap-13.c **** 
1255:C:/Users/dtjld/Desktop/AIoT_software/LiteOS_Lab_overseas/LiteOS_Lab/iot_link/network/lwm2m/wakaama_lwm2m/core/er-coap-13\er-coap-13.c ****     do
1256:C:/Users/dtjld/Desktop/AIoT_software/LiteOS_Lab_overseas/LiteOS_Lab/iot_link/network/lwm2m/wakaama_lwm2m/core/er-coap-13\er-coap-13.c ****     {
1257:C:/Users/dtjld/Desktop/AIoT_software/LiteOS_Lab_overseas/LiteOS_Lab/iot_link/network/lwm2m/wakaama_lwm2m/core/er-coap-13\er-coap-13.c ****         int i = 0;
 5233              		.loc 1 1257 0 is_stmt 1
 5234 0030 0023     		movs	r3, #0
 5235 0032 3B61     		str	r3, [r7, #16]
1258:C:/Users/dtjld/Desktop/AIoT_software/LiteOS_Lab_overseas/LiteOS_Lab/iot_link/network/lwm2m/wakaama_lwm2m/core/er-coap-13\er-coap-13.c **** 
1259:C:/Users/dtjld/Desktop/AIoT_software/LiteOS_Lab_overseas/LiteOS_Lab/iot_link/network/lwm2m/wakaama_lwm2m/core/er-coap-13\er-coap-13.c ****         while (path[i] != 0 && path[i] != '/') i++;
 5236              		.loc 1 1259 0
 5237 0034 02E0     		b	.L268
 5238              	.L270:
 5239              		.loc 1 1259 0 is_stmt 0 discriminator 3
 5240 0036 3B69     		ldr	r3, [r7, #16]
 5241 0038 0133     		adds	r3, r3, #1
 5242 003a 3B61     		str	r3, [r7, #16]
ARM GAS  C:\Users\dtjld\AppData\Local\Temp\ccpI0fza.s 			page 114


 5243              	.L268:
 5244              		.loc 1 1259 0 discriminator 1
 5245 003c 3B69     		ldr	r3, [r7, #16]
 5246 003e 3A68     		ldr	r2, [r7]
 5247 0040 1344     		add	r3, r3, r2
 5248 0042 1B78     		ldrb	r3, [r3]	@ zero_extendqisi2
 5249 0044 002B     		cmp	r3, #0
 5250 0046 05D0     		beq	.L269
 5251              		.loc 1 1259 0 discriminator 2
 5252 0048 3B69     		ldr	r3, [r7, #16]
 5253 004a 3A68     		ldr	r2, [r7]
 5254 004c 1344     		add	r3, r3, r2
 5255 004e 1B78     		ldrb	r3, [r3]	@ zero_extendqisi2
 5256 0050 2F2B     		cmp	r3, #47
 5257 0052 F0D1     		bne	.L270
 5258              	.L269:
1260:C:/Users/dtjld/Desktop/AIoT_software/LiteOS_Lab_overseas/LiteOS_Lab/iot_link/network/lwm2m/wakaama_lwm2m/core/er-coap-13\er-coap-13.c ****         coap_add_multi_option(&(coap_pkt->location_path), (uint8_t *)path, i, 0);
 5259              		.loc 1 1260 0 is_stmt 1
 5260 0054 FB68     		ldr	r3, [r7, #12]
 5261 0056 03F13400 		add	r0, r3, #52
 5262 005a 3A69     		ldr	r2, [r7, #16]
 5263 005c 0023     		movs	r3, #0
 5264 005e 3968     		ldr	r1, [r7]
 5265 0060 FFF7FEFF 		bl	coap_add_multi_option
1261:C:/Users/dtjld/Desktop/AIoT_software/LiteOS_Lab_overseas/LiteOS_Lab/iot_link/network/lwm2m/wakaama_lwm2m/core/er-coap-13\er-coap-13.c **** 
1262:C:/Users/dtjld/Desktop/AIoT_software/LiteOS_Lab_overseas/LiteOS_Lab/iot_link/network/lwm2m/wakaama_lwm2m/core/er-coap-13\er-coap-13.c ****         if (path[i] == '/') i++;
 5266              		.loc 1 1262 0
 5267 0064 3B69     		ldr	r3, [r7, #16]
 5268 0066 3A68     		ldr	r2, [r7]
 5269 0068 1344     		add	r3, r3, r2
 5270 006a 1B78     		ldrb	r3, [r3]	@ zero_extendqisi2
 5271 006c 2F2B     		cmp	r3, #47
 5272 006e 02D1     		bne	.L271
 5273              		.loc 1 1262 0 is_stmt 0 discriminator 1
 5274 0070 3B69     		ldr	r3, [r7, #16]
 5275 0072 0133     		adds	r3, r3, #1
 5276 0074 3B61     		str	r3, [r7, #16]
 5277              	.L271:
1263:C:/Users/dtjld/Desktop/AIoT_software/LiteOS_Lab_overseas/LiteOS_Lab/iot_link/network/lwm2m/wakaama_lwm2m/core/er-coap-13\er-coap-13.c ****         path += i;
 5278              		.loc 1 1263 0 is_stmt 1
 5279 0076 3B69     		ldr	r3, [r7, #16]
 5280 0078 3A68     		ldr	r2, [r7]
 5281 007a 1344     		add	r3, r3, r2
 5282 007c 3B60     		str	r3, [r7]
1264:C:/Users/dtjld/Desktop/AIoT_software/LiteOS_Lab_overseas/LiteOS_Lab/iot_link/network/lwm2m/wakaama_lwm2m/core/er-coap-13\er-coap-13.c ****         length += i;
 5283              		.loc 1 1264 0
 5284 007e 7A69     		ldr	r2, [r7, #20]
 5285 0080 3B69     		ldr	r3, [r7, #16]
 5286 0082 1344     		add	r3, r3, r2
 5287 0084 7B61     		str	r3, [r7, #20]
 5288              	.LBE14:
1265:C:/Users/dtjld/Desktop/AIoT_software/LiteOS_Lab_overseas/LiteOS_Lab/iot_link/network/lwm2m/wakaama_lwm2m/core/er-coap-13\er-coap-13.c ****     }
1266:C:/Users/dtjld/Desktop/AIoT_software/LiteOS_Lab_overseas/LiteOS_Lab/iot_link/network/lwm2m/wakaama_lwm2m/core/er-coap-13\er-coap-13.c ****     while (path[0] != 0);
 5289              		.loc 1 1266 0
 5290 0086 3B68     		ldr	r3, [r7]
 5291 0088 1B78     		ldrb	r3, [r3]	@ zero_extendqisi2
 5292 008a 002B     		cmp	r3, #0
ARM GAS  C:\Users\dtjld\AppData\Local\Temp\ccpI0fza.s 			page 115


 5293 008c D0D1     		bne	.L272
1267:C:/Users/dtjld/Desktop/AIoT_software/LiteOS_Lab_overseas/LiteOS_Lab/iot_link/network/lwm2m/wakaama_lwm2m/core/er-coap-13\er-coap-13.c **** 
1268:C:/Users/dtjld/Desktop/AIoT_software/LiteOS_Lab_overseas/LiteOS_Lab/iot_link/network/lwm2m/wakaama_lwm2m/core/er-coap-13\er-coap-13.c ****     SET_OPTION(coap_pkt, COAP_OPTION_LOCATION_PATH);
 5294              		.loc 1 1268 0 discriminator 1
 5295 008e FB68     		ldr	r3, [r7, #12]
 5296 0090 DB7A     		ldrb	r3, [r3, #11]	@ zero_extendqisi2
 5297 0092 43F00103 		orr	r3, r3, #1
 5298 0096 DAB2     		uxtb	r2, r3
 5299 0098 FB68     		ldr	r3, [r7, #12]
 5300 009a DA72     		strb	r2, [r3, #11]
1269:C:/Users/dtjld/Desktop/AIoT_software/LiteOS_Lab_overseas/LiteOS_Lab/iot_link/network/lwm2m/wakaama_lwm2m/core/er-coap-13\er-coap-13.c ****     return length;
 5301              		.loc 1 1269 0 discriminator 1
 5302 009c 7B69     		ldr	r3, [r7, #20]
1270:C:/Users/dtjld/Desktop/AIoT_software/LiteOS_Lab_overseas/LiteOS_Lab/iot_link/network/lwm2m/wakaama_lwm2m/core/er-coap-13\er-coap-13.c **** }
 5303              		.loc 1 1270 0 discriminator 1
 5304 009e 1846     		mov	r0, r3
 5305 00a0 1837     		adds	r7, r7, #24
 5306              	.LCFI249:
 5307              		.cfi_def_cfa_offset 8
 5308 00a2 BD46     		mov	sp, r7
 5309              	.LCFI250:
 5310              		.cfi_def_cfa_register 13
 5311              		@ sp needed
 5312 00a4 80BD     		pop	{r7, pc}
 5313              		.cfi_endproc
 5314              	.LFE49:
 5316              		.section	.text.coap_get_header_location_query,"ax",%progbits
 5317              		.align	1
 5318              		.global	coap_get_header_location_query
 5319              		.syntax unified
 5320              		.thumb
 5321              		.thumb_func
 5322              		.fpu fpv4-sp-d16
 5324              	coap_get_header_location_query:
 5325              	.LFB50:
1271:C:/Users/dtjld/Desktop/AIoT_software/LiteOS_Lab_overseas/LiteOS_Lab/iot_link/network/lwm2m/wakaama_lwm2m/core/er-coap-13\er-coap-13.c **** /*-----------------------------------------------------------------------------------*/
1272:C:/Users/dtjld/Desktop/AIoT_software/LiteOS_Lab_overseas/LiteOS_Lab/iot_link/network/lwm2m/wakaama_lwm2m/core/er-coap-13\er-coap-13.c **** int
1273:C:/Users/dtjld/Desktop/AIoT_software/LiteOS_Lab_overseas/LiteOS_Lab/iot_link/network/lwm2m/wakaama_lwm2m/core/er-coap-13\er-coap-13.c **** coap_get_header_location_query(void *packet, const char **query)
1274:C:/Users/dtjld/Desktop/AIoT_software/LiteOS_Lab_overseas/LiteOS_Lab/iot_link/network/lwm2m/wakaama_lwm2m/core/er-coap-13\er-coap-13.c **** {
 5326              		.loc 1 1274 0
 5327              		.cfi_startproc
 5328              		@ args = 0, pretend = 0, frame = 16
 5329              		@ frame_needed = 1, uses_anonymous_args = 0
 5330              		@ link register save eliminated.
 5331 0000 80B4     		push	{r7}
 5332              	.LCFI251:
 5333              		.cfi_def_cfa_offset 4
 5334              		.cfi_offset 7, -4
 5335 0002 85B0     		sub	sp, sp, #20
 5336              	.LCFI252:
 5337              		.cfi_def_cfa_offset 24
 5338 0004 00AF     		add	r7, sp, #0
 5339              	.LCFI253:
 5340              		.cfi_def_cfa_register 7
 5341 0006 7860     		str	r0, [r7, #4]
 5342 0008 3960     		str	r1, [r7]
1275:C:/Users/dtjld/Desktop/AIoT_software/LiteOS_Lab_overseas/LiteOS_Lab/iot_link/network/lwm2m/wakaama_lwm2m/core/er-coap-13\er-coap-13.c ****     coap_packet_t *const coap_pkt = (coap_packet_t *) packet;
ARM GAS  C:\Users\dtjld\AppData\Local\Temp\ccpI0fza.s 			page 116


 5343              		.loc 1 1275 0
 5344 000a 7B68     		ldr	r3, [r7, #4]
 5345 000c FB60     		str	r3, [r7, #12]
1276:C:/Users/dtjld/Desktop/AIoT_software/LiteOS_Lab_overseas/LiteOS_Lab/iot_link/network/lwm2m/wakaama_lwm2m/core/er-coap-13\er-coap-13.c **** 
1277:C:/Users/dtjld/Desktop/AIoT_software/LiteOS_Lab_overseas/LiteOS_Lab/iot_link/network/lwm2m/wakaama_lwm2m/core/er-coap-13\er-coap-13.c ****     if (!IS_OPTION(coap_pkt, COAP_OPTION_LOCATION_QUERY)) return 0;
 5346              		.loc 1 1277 0
 5347 000e FB68     		ldr	r3, [r7, #12]
 5348 0010 1B7B     		ldrb	r3, [r3, #12]	@ zero_extendqisi2
 5349 0012 03F01003 		and	r3, r3, #16
 5350 0016 002B     		cmp	r3, #0
 5351 0018 01D1     		bne	.L275
 5352              		.loc 1 1277 0 is_stmt 0 discriminator 1
 5353 001a 0023     		movs	r3, #0
 5354 001c 05E0     		b	.L276
 5355              	.L275:
1278:C:/Users/dtjld/Desktop/AIoT_software/LiteOS_Lab_overseas/LiteOS_Lab/iot_link/network/lwm2m/wakaama_lwm2m/core/er-coap-13\er-coap-13.c **** 
1279:C:/Users/dtjld/Desktop/AIoT_software/LiteOS_Lab_overseas/LiteOS_Lab/iot_link/network/lwm2m/wakaama_lwm2m/core/er-coap-13\er-coap-13.c ****     *query = (const char *)coap_pkt->location_query;
 5356              		.loc 1 1279 0 is_stmt 1
 5357 001e FB68     		ldr	r3, [r7, #12]
 5358 0020 1A6C     		ldr	r2, [r3, #64]
 5359 0022 3B68     		ldr	r3, [r7]
 5360 0024 1A60     		str	r2, [r3]
1280:C:/Users/dtjld/Desktop/AIoT_software/LiteOS_Lab_overseas/LiteOS_Lab/iot_link/network/lwm2m/wakaama_lwm2m/core/er-coap-13\er-coap-13.c ****     return coap_pkt->location_query_len;
 5361              		.loc 1 1280 0
 5362 0026 FB68     		ldr	r3, [r7, #12]
 5363 0028 DB6B     		ldr	r3, [r3, #60]
 5364              	.L276:
1281:C:/Users/dtjld/Desktop/AIoT_software/LiteOS_Lab_overseas/LiteOS_Lab/iot_link/network/lwm2m/wakaama_lwm2m/core/er-coap-13\er-coap-13.c **** }
 5365              		.loc 1 1281 0
 5366 002a 1846     		mov	r0, r3
 5367 002c 1437     		adds	r7, r7, #20
 5368              	.LCFI254:
 5369              		.cfi_def_cfa_offset 4
 5370 002e BD46     		mov	sp, r7
 5371              	.LCFI255:
 5372              		.cfi_def_cfa_register 13
 5373              		@ sp needed
 5374 0030 5DF8047B 		ldr	r7, [sp], #4
 5375              	.LCFI256:
 5376              		.cfi_restore 7
 5377              		.cfi_def_cfa_offset 0
 5378 0034 7047     		bx	lr
 5379              		.cfi_endproc
 5380              	.LFE50:
 5382              		.section	.text.coap_set_header_location_query,"ax",%progbits
 5383              		.align	1
 5384              		.global	coap_set_header_location_query
 5385              		.syntax unified
 5386              		.thumb
 5387              		.thumb_func
 5388              		.fpu fpv4-sp-d16
 5390              	coap_set_header_location_query:
 5391              	.LFB51:
1282:C:/Users/dtjld/Desktop/AIoT_software/LiteOS_Lab_overseas/LiteOS_Lab/iot_link/network/lwm2m/wakaama_lwm2m/core/er-coap-13\er-coap-13.c **** 
1283:C:/Users/dtjld/Desktop/AIoT_software/LiteOS_Lab_overseas/LiteOS_Lab/iot_link/network/lwm2m/wakaama_lwm2m/core/er-coap-13\er-coap-13.c **** int
1284:C:/Users/dtjld/Desktop/AIoT_software/LiteOS_Lab_overseas/LiteOS_Lab/iot_link/network/lwm2m/wakaama_lwm2m/core/er-coap-13\er-coap-13.c **** coap_set_header_location_query(void *packet, char *query)
1285:C:/Users/dtjld/Desktop/AIoT_software/LiteOS_Lab_overseas/LiteOS_Lab/iot_link/network/lwm2m/wakaama_lwm2m/core/er-coap-13\er-coap-13.c **** {
ARM GAS  C:\Users\dtjld\AppData\Local\Temp\ccpI0fza.s 			page 117


 5392              		.loc 1 1285 0
 5393              		.cfi_startproc
 5394              		@ args = 0, pretend = 0, frame = 16
 5395              		@ frame_needed = 1, uses_anonymous_args = 0
 5396 0000 80B5     		push	{r7, lr}
 5397              	.LCFI257:
 5398              		.cfi_def_cfa_offset 8
 5399              		.cfi_offset 7, -8
 5400              		.cfi_offset 14, -4
 5401 0002 84B0     		sub	sp, sp, #16
 5402              	.LCFI258:
 5403              		.cfi_def_cfa_offset 24
 5404 0004 00AF     		add	r7, sp, #0
 5405              	.LCFI259:
 5406              		.cfi_def_cfa_register 7
 5407 0006 7860     		str	r0, [r7, #4]
 5408 0008 3960     		str	r1, [r7]
1286:C:/Users/dtjld/Desktop/AIoT_software/LiteOS_Lab_overseas/LiteOS_Lab/iot_link/network/lwm2m/wakaama_lwm2m/core/er-coap-13\er-coap-13.c ****     coap_packet_t *const coap_pkt = (coap_packet_t *) packet;
 5409              		.loc 1 1286 0
 5410 000a 7B68     		ldr	r3, [r7, #4]
 5411 000c FB60     		str	r3, [r7, #12]
1287:C:/Users/dtjld/Desktop/AIoT_software/LiteOS_Lab_overseas/LiteOS_Lab/iot_link/network/lwm2m/wakaama_lwm2m/core/er-coap-13\er-coap-13.c **** 
1288:C:/Users/dtjld/Desktop/AIoT_software/LiteOS_Lab_overseas/LiteOS_Lab/iot_link/network/lwm2m/wakaama_lwm2m/core/er-coap-13\er-coap-13.c ****     while (query[0] == '?') ++query;
 5412              		.loc 1 1288 0
 5413 000e 02E0     		b	.L278
 5414              	.L279:
 5415              		.loc 1 1288 0 is_stmt 0 discriminator 2
 5416 0010 3B68     		ldr	r3, [r7]
 5417 0012 0133     		adds	r3, r3, #1
 5418 0014 3B60     		str	r3, [r7]
 5419              	.L278:
 5420              		.loc 1 1288 0 discriminator 1
 5421 0016 3B68     		ldr	r3, [r7]
 5422 0018 1B78     		ldrb	r3, [r3]	@ zero_extendqisi2
 5423 001a 3F2B     		cmp	r3, #63
 5424 001c F8D0     		beq	.L279
1289:C:/Users/dtjld/Desktop/AIoT_software/LiteOS_Lab_overseas/LiteOS_Lab/iot_link/network/lwm2m/wakaama_lwm2m/core/er-coap-13\er-coap-13.c **** 
1290:C:/Users/dtjld/Desktop/AIoT_software/LiteOS_Lab_overseas/LiteOS_Lab/iot_link/network/lwm2m/wakaama_lwm2m/core/er-coap-13\er-coap-13.c ****     coap_pkt->location_query = (uint8_t *)query;
 5425              		.loc 1 1290 0 is_stmt 1
 5426 001e FB68     		ldr	r3, [r7, #12]
 5427 0020 3A68     		ldr	r2, [r7]
 5428 0022 1A64     		str	r2, [r3, #64]
1291:C:/Users/dtjld/Desktop/AIoT_software/LiteOS_Lab_overseas/LiteOS_Lab/iot_link/network/lwm2m/wakaama_lwm2m/core/er-coap-13\er-coap-13.c ****     coap_pkt->location_query_len = strlen(query);
 5429              		.loc 1 1291 0
 5430 0024 3868     		ldr	r0, [r7]
 5431 0026 FFF7FEFF 		bl	strlen
 5432 002a 0246     		mov	r2, r0
 5433 002c FB68     		ldr	r3, [r7, #12]
 5434 002e DA63     		str	r2, [r3, #60]
1292:C:/Users/dtjld/Desktop/AIoT_software/LiteOS_Lab_overseas/LiteOS_Lab/iot_link/network/lwm2m/wakaama_lwm2m/core/er-coap-13\er-coap-13.c **** 
1293:C:/Users/dtjld/Desktop/AIoT_software/LiteOS_Lab_overseas/LiteOS_Lab/iot_link/network/lwm2m/wakaama_lwm2m/core/er-coap-13\er-coap-13.c ****     SET_OPTION(coap_pkt, COAP_OPTION_LOCATION_QUERY);
 5435              		.loc 1 1293 0
 5436 0030 FB68     		ldr	r3, [r7, #12]
 5437 0032 1B7B     		ldrb	r3, [r3, #12]	@ zero_extendqisi2
 5438 0034 43F01003 		orr	r3, r3, #16
 5439 0038 DAB2     		uxtb	r2, r3
 5440 003a FB68     		ldr	r3, [r7, #12]
ARM GAS  C:\Users\dtjld\AppData\Local\Temp\ccpI0fza.s 			page 118


 5441 003c 1A73     		strb	r2, [r3, #12]
1294:C:/Users/dtjld/Desktop/AIoT_software/LiteOS_Lab_overseas/LiteOS_Lab/iot_link/network/lwm2m/wakaama_lwm2m/core/er-coap-13\er-coap-13.c ****     return coap_pkt->location_query_len;
 5442              		.loc 1 1294 0
 5443 003e FB68     		ldr	r3, [r7, #12]
 5444 0040 DB6B     		ldr	r3, [r3, #60]
1295:C:/Users/dtjld/Desktop/AIoT_software/LiteOS_Lab_overseas/LiteOS_Lab/iot_link/network/lwm2m/wakaama_lwm2m/core/er-coap-13\er-coap-13.c **** }
 5445              		.loc 1 1295 0
 5446 0042 1846     		mov	r0, r3
 5447 0044 1037     		adds	r7, r7, #16
 5448              	.LCFI260:
 5449              		.cfi_def_cfa_offset 8
 5450 0046 BD46     		mov	sp, r7
 5451              	.LCFI261:
 5452              		.cfi_def_cfa_register 13
 5453              		@ sp needed
 5454 0048 80BD     		pop	{r7, pc}
 5455              		.cfi_endproc
 5456              	.LFE51:
 5458              		.section	.text.coap_get_header_observe,"ax",%progbits
 5459              		.align	1
 5460              		.global	coap_get_header_observe
 5461              		.syntax unified
 5462              		.thumb
 5463              		.thumb_func
 5464              		.fpu fpv4-sp-d16
 5466              	coap_get_header_observe:
 5467              	.LFB52:
1296:C:/Users/dtjld/Desktop/AIoT_software/LiteOS_Lab_overseas/LiteOS_Lab/iot_link/network/lwm2m/wakaama_lwm2m/core/er-coap-13\er-coap-13.c **** /*-----------------------------------------------------------------------------------*/
1297:C:/Users/dtjld/Desktop/AIoT_software/LiteOS_Lab_overseas/LiteOS_Lab/iot_link/network/lwm2m/wakaama_lwm2m/core/er-coap-13\er-coap-13.c **** int
1298:C:/Users/dtjld/Desktop/AIoT_software/LiteOS_Lab_overseas/LiteOS_Lab/iot_link/network/lwm2m/wakaama_lwm2m/core/er-coap-13\er-coap-13.c **** coap_get_header_observe(void *packet, uint32_t *observe)
1299:C:/Users/dtjld/Desktop/AIoT_software/LiteOS_Lab_overseas/LiteOS_Lab/iot_link/network/lwm2m/wakaama_lwm2m/core/er-coap-13\er-coap-13.c **** {
 5468              		.loc 1 1299 0
 5469              		.cfi_startproc
 5470              		@ args = 0, pretend = 0, frame = 16
 5471              		@ frame_needed = 1, uses_anonymous_args = 0
 5472              		@ link register save eliminated.
 5473 0000 80B4     		push	{r7}
 5474              	.LCFI262:
 5475              		.cfi_def_cfa_offset 4
 5476              		.cfi_offset 7, -4
 5477 0002 85B0     		sub	sp, sp, #20
 5478              	.LCFI263:
 5479              		.cfi_def_cfa_offset 24
 5480 0004 00AF     		add	r7, sp, #0
 5481              	.LCFI264:
 5482              		.cfi_def_cfa_register 7
 5483 0006 7860     		str	r0, [r7, #4]
 5484 0008 3960     		str	r1, [r7]
1300:C:/Users/dtjld/Desktop/AIoT_software/LiteOS_Lab_overseas/LiteOS_Lab/iot_link/network/lwm2m/wakaama_lwm2m/core/er-coap-13\er-coap-13.c ****     coap_packet_t *const coap_pkt = (coap_packet_t *) packet;
 5485              		.loc 1 1300 0
 5486 000a 7B68     		ldr	r3, [r7, #4]
 5487 000c FB60     		str	r3, [r7, #12]
1301:C:/Users/dtjld/Desktop/AIoT_software/LiteOS_Lab_overseas/LiteOS_Lab/iot_link/network/lwm2m/wakaama_lwm2m/core/er-coap-13\er-coap-13.c **** 
1302:C:/Users/dtjld/Desktop/AIoT_software/LiteOS_Lab_overseas/LiteOS_Lab/iot_link/network/lwm2m/wakaama_lwm2m/core/er-coap-13\er-coap-13.c ****     if (!IS_OPTION(coap_pkt, COAP_OPTION_OBSERVE)) return 0;
 5488              		.loc 1 1302 0
 5489 000e FB68     		ldr	r3, [r7, #12]
 5490 0010 9B7A     		ldrb	r3, [r3, #10]	@ zero_extendqisi2
ARM GAS  C:\Users\dtjld\AppData\Local\Temp\ccpI0fza.s 			page 119


 5491 0012 03F04003 		and	r3, r3, #64
 5492 0016 002B     		cmp	r3, #0
 5493 0018 01D1     		bne	.L282
 5494              		.loc 1 1302 0 is_stmt 0 discriminator 1
 5495 001a 0023     		movs	r3, #0
 5496 001c 04E0     		b	.L283
 5497              	.L282:
1303:C:/Users/dtjld/Desktop/AIoT_software/LiteOS_Lab_overseas/LiteOS_Lab/iot_link/network/lwm2m/wakaama_lwm2m/core/er-coap-13\er-coap-13.c **** 
1304:C:/Users/dtjld/Desktop/AIoT_software/LiteOS_Lab_overseas/LiteOS_Lab/iot_link/network/lwm2m/wakaama_lwm2m/core/er-coap-13\er-coap-13.c ****     *observe = coap_pkt->observe;
 5498              		.loc 1 1304 0 is_stmt 1
 5499 001e FB68     		ldr	r3, [r7, #12]
 5500 0020 9A6C     		ldr	r2, [r3, #72]
 5501 0022 3B68     		ldr	r3, [r7]
 5502 0024 1A60     		str	r2, [r3]
1305:C:/Users/dtjld/Desktop/AIoT_software/LiteOS_Lab_overseas/LiteOS_Lab/iot_link/network/lwm2m/wakaama_lwm2m/core/er-coap-13\er-coap-13.c ****     return 1;
 5503              		.loc 1 1305 0
 5504 0026 0123     		movs	r3, #1
 5505              	.L283:
1306:C:/Users/dtjld/Desktop/AIoT_software/LiteOS_Lab_overseas/LiteOS_Lab/iot_link/network/lwm2m/wakaama_lwm2m/core/er-coap-13\er-coap-13.c **** }
 5506              		.loc 1 1306 0
 5507 0028 1846     		mov	r0, r3
 5508 002a 1437     		adds	r7, r7, #20
 5509              	.LCFI265:
 5510              		.cfi_def_cfa_offset 4
 5511 002c BD46     		mov	sp, r7
 5512              	.LCFI266:
 5513              		.cfi_def_cfa_register 13
 5514              		@ sp needed
 5515 002e 5DF8047B 		ldr	r7, [sp], #4
 5516              	.LCFI267:
 5517              		.cfi_restore 7
 5518              		.cfi_def_cfa_offset 0
 5519 0032 7047     		bx	lr
 5520              		.cfi_endproc
 5521              	.LFE52:
 5523              		.section	.text.coap_set_header_observe,"ax",%progbits
 5524              		.align	1
 5525              		.global	coap_set_header_observe
 5526              		.syntax unified
 5527              		.thumb
 5528              		.thumb_func
 5529              		.fpu fpv4-sp-d16
 5531              	coap_set_header_observe:
 5532              	.LFB53:
1307:C:/Users/dtjld/Desktop/AIoT_software/LiteOS_Lab_overseas/LiteOS_Lab/iot_link/network/lwm2m/wakaama_lwm2m/core/er-coap-13\er-coap-13.c **** 
1308:C:/Users/dtjld/Desktop/AIoT_software/LiteOS_Lab_overseas/LiteOS_Lab/iot_link/network/lwm2m/wakaama_lwm2m/core/er-coap-13\er-coap-13.c **** int
1309:C:/Users/dtjld/Desktop/AIoT_software/LiteOS_Lab_overseas/LiteOS_Lab/iot_link/network/lwm2m/wakaama_lwm2m/core/er-coap-13\er-coap-13.c **** coap_set_header_observe(void *packet, uint32_t observe)
1310:C:/Users/dtjld/Desktop/AIoT_software/LiteOS_Lab_overseas/LiteOS_Lab/iot_link/network/lwm2m/wakaama_lwm2m/core/er-coap-13\er-coap-13.c **** {
 5533              		.loc 1 1310 0
 5534              		.cfi_startproc
 5535              		@ args = 0, pretend = 0, frame = 16
 5536              		@ frame_needed = 1, uses_anonymous_args = 0
 5537              		@ link register save eliminated.
 5538 0000 80B4     		push	{r7}
 5539              	.LCFI268:
 5540              		.cfi_def_cfa_offset 4
 5541              		.cfi_offset 7, -4
ARM GAS  C:\Users\dtjld\AppData\Local\Temp\ccpI0fza.s 			page 120


 5542 0002 85B0     		sub	sp, sp, #20
 5543              	.LCFI269:
 5544              		.cfi_def_cfa_offset 24
 5545 0004 00AF     		add	r7, sp, #0
 5546              	.LCFI270:
 5547              		.cfi_def_cfa_register 7
 5548 0006 7860     		str	r0, [r7, #4]
 5549 0008 3960     		str	r1, [r7]
1311:C:/Users/dtjld/Desktop/AIoT_software/LiteOS_Lab_overseas/LiteOS_Lab/iot_link/network/lwm2m/wakaama_lwm2m/core/er-coap-13\er-coap-13.c ****     coap_packet_t *const coap_pkt = (coap_packet_t *) packet;
 5550              		.loc 1 1311 0
 5551 000a 7B68     		ldr	r3, [r7, #4]
 5552 000c FB60     		str	r3, [r7, #12]
1312:C:/Users/dtjld/Desktop/AIoT_software/LiteOS_Lab_overseas/LiteOS_Lab/iot_link/network/lwm2m/wakaama_lwm2m/core/er-coap-13\er-coap-13.c **** 
1313:C:/Users/dtjld/Desktop/AIoT_software/LiteOS_Lab_overseas/LiteOS_Lab/iot_link/network/lwm2m/wakaama_lwm2m/core/er-coap-13\er-coap-13.c ****     coap_pkt->observe = 0x00FFFFFF & observe;
 5553              		.loc 1 1313 0
 5554 000e 3B68     		ldr	r3, [r7]
 5555 0010 23F07F42 		bic	r2, r3, #-16777216
 5556 0014 FB68     		ldr	r3, [r7, #12]
 5557 0016 9A64     		str	r2, [r3, #72]
1314:C:/Users/dtjld/Desktop/AIoT_software/LiteOS_Lab_overseas/LiteOS_Lab/iot_link/network/lwm2m/wakaama_lwm2m/core/er-coap-13\er-coap-13.c ****     SET_OPTION(coap_pkt, COAP_OPTION_OBSERVE);
 5558              		.loc 1 1314 0
 5559 0018 FB68     		ldr	r3, [r7, #12]
 5560 001a 9B7A     		ldrb	r3, [r3, #10]	@ zero_extendqisi2
 5561 001c 43F04003 		orr	r3, r3, #64
 5562 0020 DAB2     		uxtb	r2, r3
 5563 0022 FB68     		ldr	r3, [r7, #12]
 5564 0024 9A72     		strb	r2, [r3, #10]
1315:C:/Users/dtjld/Desktop/AIoT_software/LiteOS_Lab_overseas/LiteOS_Lab/iot_link/network/lwm2m/wakaama_lwm2m/core/er-coap-13\er-coap-13.c ****     return 1;
 5565              		.loc 1 1315 0
 5566 0026 0123     		movs	r3, #1
1316:C:/Users/dtjld/Desktop/AIoT_software/LiteOS_Lab_overseas/LiteOS_Lab/iot_link/network/lwm2m/wakaama_lwm2m/core/er-coap-13\er-coap-13.c **** }
 5567              		.loc 1 1316 0
 5568 0028 1846     		mov	r0, r3
 5569 002a 1437     		adds	r7, r7, #20
 5570              	.LCFI271:
 5571              		.cfi_def_cfa_offset 4
 5572 002c BD46     		mov	sp, r7
 5573              	.LCFI272:
 5574              		.cfi_def_cfa_register 13
 5575              		@ sp needed
 5576 002e 5DF8047B 		ldr	r7, [sp], #4
 5577              	.LCFI273:
 5578              		.cfi_restore 7
 5579              		.cfi_def_cfa_offset 0
 5580 0032 7047     		bx	lr
 5581              		.cfi_endproc
 5582              	.LFE53:
 5584              		.section	.text.coap_get_header_block2,"ax",%progbits
 5585              		.align	1
 5586              		.global	coap_get_header_block2
 5587              		.syntax unified
 5588              		.thumb
 5589              		.thumb_func
 5590              		.fpu fpv4-sp-d16
 5592              	coap_get_header_block2:
 5593              	.LFB54:
1317:C:/Users/dtjld/Desktop/AIoT_software/LiteOS_Lab_overseas/LiteOS_Lab/iot_link/network/lwm2m/wakaama_lwm2m/core/er-coap-13\er-coap-13.c **** /*-----------------------------------------------------------------------------------*/
ARM GAS  C:\Users\dtjld\AppData\Local\Temp\ccpI0fza.s 			page 121


1318:C:/Users/dtjld/Desktop/AIoT_software/LiteOS_Lab_overseas/LiteOS_Lab/iot_link/network/lwm2m/wakaama_lwm2m/core/er-coap-13\er-coap-13.c **** int
1319:C:/Users/dtjld/Desktop/AIoT_software/LiteOS_Lab_overseas/LiteOS_Lab/iot_link/network/lwm2m/wakaama_lwm2m/core/er-coap-13\er-coap-13.c **** coap_get_header_block2(void *packet, uint32_t *num, uint8_t *more, uint16_t *size, uint32_t *offset
1320:C:/Users/dtjld/Desktop/AIoT_software/LiteOS_Lab_overseas/LiteOS_Lab/iot_link/network/lwm2m/wakaama_lwm2m/core/er-coap-13\er-coap-13.c **** {
 5594              		.loc 1 1320 0
 5595              		.cfi_startproc
 5596              		@ args = 4, pretend = 0, frame = 24
 5597              		@ frame_needed = 1, uses_anonymous_args = 0
 5598              		@ link register save eliminated.
 5599 0000 80B4     		push	{r7}
 5600              	.LCFI274:
 5601              		.cfi_def_cfa_offset 4
 5602              		.cfi_offset 7, -4
 5603 0002 87B0     		sub	sp, sp, #28
 5604              	.LCFI275:
 5605              		.cfi_def_cfa_offset 32
 5606 0004 00AF     		add	r7, sp, #0
 5607              	.LCFI276:
 5608              		.cfi_def_cfa_register 7
 5609 0006 F860     		str	r0, [r7, #12]
 5610 0008 B960     		str	r1, [r7, #8]
 5611 000a 7A60     		str	r2, [r7, #4]
 5612 000c 3B60     		str	r3, [r7]
1321:C:/Users/dtjld/Desktop/AIoT_software/LiteOS_Lab_overseas/LiteOS_Lab/iot_link/network/lwm2m/wakaama_lwm2m/core/er-coap-13\er-coap-13.c ****     coap_packet_t *const coap_pkt = (coap_packet_t *) packet;
 5613              		.loc 1 1321 0
 5614 000e FB68     		ldr	r3, [r7, #12]
 5615 0010 7B61     		str	r3, [r7, #20]
1322:C:/Users/dtjld/Desktop/AIoT_software/LiteOS_Lab_overseas/LiteOS_Lab/iot_link/network/lwm2m/wakaama_lwm2m/core/er-coap-13\er-coap-13.c **** 
1323:C:/Users/dtjld/Desktop/AIoT_software/LiteOS_Lab_overseas/LiteOS_Lab/iot_link/network/lwm2m/wakaama_lwm2m/core/er-coap-13\er-coap-13.c ****     if (!IS_OPTION(coap_pkt, COAP_OPTION_BLOCK2)) return 0;
 5616              		.loc 1 1323 0
 5617 0012 7B69     		ldr	r3, [r7, #20]
 5618 0014 1B7B     		ldrb	r3, [r3, #12]	@ zero_extendqisi2
 5619 0016 5BB2     		sxtb	r3, r3
 5620 0018 002B     		cmp	r3, #0
 5621 001a 01DB     		blt	.L287
 5622              		.loc 1 1323 0 is_stmt 0 discriminator 1
 5623 001c 0023     		movs	r3, #0
 5624 001e 1EE0     		b	.L288
 5625              	.L287:
1324:C:/Users/dtjld/Desktop/AIoT_software/LiteOS_Lab_overseas/LiteOS_Lab/iot_link/network/lwm2m/wakaama_lwm2m/core/er-coap-13\er-coap-13.c **** 
1325:C:/Users/dtjld/Desktop/AIoT_software/LiteOS_Lab_overseas/LiteOS_Lab/iot_link/network/lwm2m/wakaama_lwm2m/core/er-coap-13\er-coap-13.c ****     /* pointers may be NULL to get only specific block parameters */
1326:C:/Users/dtjld/Desktop/AIoT_software/LiteOS_Lab_overseas/LiteOS_Lab/iot_link/network/lwm2m/wakaama_lwm2m/core/er-coap-13\er-coap-13.c ****     if (num != NULL) *num = coap_pkt->block2_num;
 5626              		.loc 1 1326 0 is_stmt 1
 5627 0020 BB68     		ldr	r3, [r7, #8]
 5628 0022 002B     		cmp	r3, #0
 5629 0024 03D0     		beq	.L289
 5630              		.loc 1 1326 0 is_stmt 0 discriminator 1
 5631 0026 7B69     		ldr	r3, [r7, #20]
 5632 0028 5A6E     		ldr	r2, [r3, #100]
 5633 002a BB68     		ldr	r3, [r7, #8]
 5634 002c 1A60     		str	r2, [r3]
 5635              	.L289:
1327:C:/Users/dtjld/Desktop/AIoT_software/LiteOS_Lab_overseas/LiteOS_Lab/iot_link/network/lwm2m/wakaama_lwm2m/core/er-coap-13\er-coap-13.c ****     if (more != NULL) *more = coap_pkt->block2_more;
 5636              		.loc 1 1327 0 is_stmt 1
 5637 002e 7B68     		ldr	r3, [r7, #4]
 5638 0030 002B     		cmp	r3, #0
 5639 0032 04D0     		beq	.L290
 5640              		.loc 1 1327 0 is_stmt 0 discriminator 1
ARM GAS  C:\Users\dtjld\AppData\Local\Temp\ccpI0fza.s 			page 122


 5641 0034 7B69     		ldr	r3, [r7, #20]
 5642 0036 93F86820 		ldrb	r2, [r3, #104]	@ zero_extendqisi2
 5643 003a 7B68     		ldr	r3, [r7, #4]
 5644 003c 1A70     		strb	r2, [r3]
 5645              	.L290:
1328:C:/Users/dtjld/Desktop/AIoT_software/LiteOS_Lab_overseas/LiteOS_Lab/iot_link/network/lwm2m/wakaama_lwm2m/core/er-coap-13\er-coap-13.c ****     if (size != NULL) *size = coap_pkt->block2_size;
 5646              		.loc 1 1328 0 is_stmt 1
 5647 003e 3B68     		ldr	r3, [r7]
 5648 0040 002B     		cmp	r3, #0
 5649 0042 04D0     		beq	.L291
 5650              		.loc 1 1328 0 is_stmt 0 discriminator 1
 5651 0044 7B69     		ldr	r3, [r7, #20]
 5652 0046 B3F86A20 		ldrh	r2, [r3, #106]
 5653 004a 3B68     		ldr	r3, [r7]
 5654 004c 1A80     		strh	r2, [r3]	@ movhi
 5655              	.L291:
1329:C:/Users/dtjld/Desktop/AIoT_software/LiteOS_Lab_overseas/LiteOS_Lab/iot_link/network/lwm2m/wakaama_lwm2m/core/er-coap-13\er-coap-13.c ****     if (offset != NULL) *offset = coap_pkt->block2_offset;
 5656              		.loc 1 1329 0 is_stmt 1
 5657 004e 3B6A     		ldr	r3, [r7, #32]
 5658 0050 002B     		cmp	r3, #0
 5659 0052 03D0     		beq	.L292
 5660              		.loc 1 1329 0 is_stmt 0 discriminator 1
 5661 0054 7B69     		ldr	r3, [r7, #20]
 5662 0056 DA6E     		ldr	r2, [r3, #108]
 5663 0058 3B6A     		ldr	r3, [r7, #32]
 5664 005a 1A60     		str	r2, [r3]
 5665              	.L292:
1330:C:/Users/dtjld/Desktop/AIoT_software/LiteOS_Lab_overseas/LiteOS_Lab/iot_link/network/lwm2m/wakaama_lwm2m/core/er-coap-13\er-coap-13.c **** 
1331:C:/Users/dtjld/Desktop/AIoT_software/LiteOS_Lab_overseas/LiteOS_Lab/iot_link/network/lwm2m/wakaama_lwm2m/core/er-coap-13\er-coap-13.c ****     return 1;
 5666              		.loc 1 1331 0 is_stmt 1
 5667 005c 0123     		movs	r3, #1
 5668              	.L288:
1332:C:/Users/dtjld/Desktop/AIoT_software/LiteOS_Lab_overseas/LiteOS_Lab/iot_link/network/lwm2m/wakaama_lwm2m/core/er-coap-13\er-coap-13.c **** }
 5669              		.loc 1 1332 0
 5670 005e 1846     		mov	r0, r3
 5671 0060 1C37     		adds	r7, r7, #28
 5672              	.LCFI277:
 5673              		.cfi_def_cfa_offset 4
 5674 0062 BD46     		mov	sp, r7
 5675              	.LCFI278:
 5676              		.cfi_def_cfa_register 13
 5677              		@ sp needed
 5678 0064 5DF8047B 		ldr	r7, [sp], #4
 5679              	.LCFI279:
 5680              		.cfi_restore 7
 5681              		.cfi_def_cfa_offset 0
 5682 0068 7047     		bx	lr
 5683              		.cfi_endproc
 5684              	.LFE54:
 5686              		.section	.text.coap_set_header_block2,"ax",%progbits
 5687              		.align	1
 5688              		.global	coap_set_header_block2
 5689              		.syntax unified
 5690              		.thumb
 5691              		.thumb_func
 5692              		.fpu fpv4-sp-d16
 5694              	coap_set_header_block2:
ARM GAS  C:\Users\dtjld\AppData\Local\Temp\ccpI0fza.s 			page 123


 5695              	.LFB55:
1333:C:/Users/dtjld/Desktop/AIoT_software/LiteOS_Lab_overseas/LiteOS_Lab/iot_link/network/lwm2m/wakaama_lwm2m/core/er-coap-13\er-coap-13.c **** 
1334:C:/Users/dtjld/Desktop/AIoT_software/LiteOS_Lab_overseas/LiteOS_Lab/iot_link/network/lwm2m/wakaama_lwm2m/core/er-coap-13\er-coap-13.c **** int
1335:C:/Users/dtjld/Desktop/AIoT_software/LiteOS_Lab_overseas/LiteOS_Lab/iot_link/network/lwm2m/wakaama_lwm2m/core/er-coap-13\er-coap-13.c **** coap_set_header_block2(void *packet, uint32_t num, uint8_t more, uint16_t size)
1336:C:/Users/dtjld/Desktop/AIoT_software/LiteOS_Lab_overseas/LiteOS_Lab/iot_link/network/lwm2m/wakaama_lwm2m/core/er-coap-13\er-coap-13.c **** {
 5696              		.loc 1 1336 0
 5697              		.cfi_startproc
 5698              		@ args = 0, pretend = 0, frame = 24
 5699              		@ frame_needed = 1, uses_anonymous_args = 0
 5700              		@ link register save eliminated.
 5701 0000 80B4     		push	{r7}
 5702              	.LCFI280:
 5703              		.cfi_def_cfa_offset 4
 5704              		.cfi_offset 7, -4
 5705 0002 87B0     		sub	sp, sp, #28
 5706              	.LCFI281:
 5707              		.cfi_def_cfa_offset 32
 5708 0004 00AF     		add	r7, sp, #0
 5709              	.LCFI282:
 5710              		.cfi_def_cfa_register 7
 5711 0006 F860     		str	r0, [r7, #12]
 5712 0008 B960     		str	r1, [r7, #8]
 5713 000a 1146     		mov	r1, r2
 5714 000c 1A46     		mov	r2, r3
 5715 000e 0B46     		mov	r3, r1
 5716 0010 FB71     		strb	r3, [r7, #7]
 5717 0012 1346     		mov	r3, r2	@ movhi
 5718 0014 BB80     		strh	r3, [r7, #4]	@ movhi
1337:C:/Users/dtjld/Desktop/AIoT_software/LiteOS_Lab_overseas/LiteOS_Lab/iot_link/network/lwm2m/wakaama_lwm2m/core/er-coap-13\er-coap-13.c ****     coap_packet_t *const coap_pkt = (coap_packet_t *) packet;
 5719              		.loc 1 1337 0
 5720 0016 FB68     		ldr	r3, [r7, #12]
 5721 0018 7B61     		str	r3, [r7, #20]
1338:C:/Users/dtjld/Desktop/AIoT_software/LiteOS_Lab_overseas/LiteOS_Lab/iot_link/network/lwm2m/wakaama_lwm2m/core/er-coap-13\er-coap-13.c **** 
1339:C:/Users/dtjld/Desktop/AIoT_software/LiteOS_Lab_overseas/LiteOS_Lab/iot_link/network/lwm2m/wakaama_lwm2m/core/er-coap-13\er-coap-13.c ****     if (size < 16) return 0;
 5722              		.loc 1 1339 0
 5723 001a BB88     		ldrh	r3, [r7, #4]
 5724 001c 0F2B     		cmp	r3, #15
 5725 001e 01D8     		bhi	.L294
 5726              		.loc 1 1339 0 is_stmt 0 discriminator 1
 5727 0020 0023     		movs	r3, #0
 5728 0022 24E0     		b	.L295
 5729              	.L294:
1340:C:/Users/dtjld/Desktop/AIoT_software/LiteOS_Lab_overseas/LiteOS_Lab/iot_link/network/lwm2m/wakaama_lwm2m/core/er-coap-13\er-coap-13.c ****     if (size > 2048) return 0;
 5730              		.loc 1 1340 0 is_stmt 1
 5731 0024 BB88     		ldrh	r3, [r7, #4]
 5732 0026 B3F5006F 		cmp	r3, #2048
 5733 002a 01D9     		bls	.L296
 5734              		.loc 1 1340 0 is_stmt 0 discriminator 1
 5735 002c 0023     		movs	r3, #0
 5736 002e 1EE0     		b	.L295
 5737              	.L296:
1341:C:/Users/dtjld/Desktop/AIoT_software/LiteOS_Lab_overseas/LiteOS_Lab/iot_link/network/lwm2m/wakaama_lwm2m/core/er-coap-13\er-coap-13.c ****     if (num > 0x0FFFFF) return 0;
 5738              		.loc 1 1341 0 is_stmt 1
 5739 0030 BB68     		ldr	r3, [r7, #8]
 5740 0032 B3F5801F 		cmp	r3, #1048576
 5741 0036 01D3     		bcc	.L297
 5742              		.loc 1 1341 0 is_stmt 0 discriminator 1
ARM GAS  C:\Users\dtjld\AppData\Local\Temp\ccpI0fza.s 			page 124


 5743 0038 0023     		movs	r3, #0
 5744 003a 18E0     		b	.L295
 5745              	.L297:
1342:C:/Users/dtjld/Desktop/AIoT_software/LiteOS_Lab_overseas/LiteOS_Lab/iot_link/network/lwm2m/wakaama_lwm2m/core/er-coap-13\er-coap-13.c **** 
1343:C:/Users/dtjld/Desktop/AIoT_software/LiteOS_Lab_overseas/LiteOS_Lab/iot_link/network/lwm2m/wakaama_lwm2m/core/er-coap-13\er-coap-13.c ****     coap_pkt->block2_num = num;
 5746              		.loc 1 1343 0 is_stmt 1
 5747 003c 7B69     		ldr	r3, [r7, #20]
 5748 003e BA68     		ldr	r2, [r7, #8]
 5749 0040 5A66     		str	r2, [r3, #100]
1344:C:/Users/dtjld/Desktop/AIoT_software/LiteOS_Lab_overseas/LiteOS_Lab/iot_link/network/lwm2m/wakaama_lwm2m/core/er-coap-13\er-coap-13.c ****     coap_pkt->block2_more = more ? 1 : 0;
 5750              		.loc 1 1344 0
 5751 0042 FB79     		ldrb	r3, [r7, #7]	@ zero_extendqisi2
 5752 0044 002B     		cmp	r3, #0
 5753 0046 14BF     		ite	ne
 5754 0048 0123     		movne	r3, #1
 5755 004a 0023     		moveq	r3, #0
 5756 004c DBB2     		uxtb	r3, r3
 5757 004e 1A46     		mov	r2, r3
 5758 0050 7B69     		ldr	r3, [r7, #20]
 5759 0052 83F86820 		strb	r2, [r3, #104]
1345:C:/Users/dtjld/Desktop/AIoT_software/LiteOS_Lab_overseas/LiteOS_Lab/iot_link/network/lwm2m/wakaama_lwm2m/core/er-coap-13\er-coap-13.c ****     coap_pkt->block2_size = size;
 5760              		.loc 1 1345 0
 5761 0056 7B69     		ldr	r3, [r7, #20]
 5762 0058 BA88     		ldrh	r2, [r7, #4]	@ movhi
 5763 005a A3F86A20 		strh	r2, [r3, #106]	@ movhi
1346:C:/Users/dtjld/Desktop/AIoT_software/LiteOS_Lab_overseas/LiteOS_Lab/iot_link/network/lwm2m/wakaama_lwm2m/core/er-coap-13\er-coap-13.c **** 
1347:C:/Users/dtjld/Desktop/AIoT_software/LiteOS_Lab_overseas/LiteOS_Lab/iot_link/network/lwm2m/wakaama_lwm2m/core/er-coap-13\er-coap-13.c ****     SET_OPTION(coap_pkt, COAP_OPTION_BLOCK2);
 5764              		.loc 1 1347 0
 5765 005e 7B69     		ldr	r3, [r7, #20]
 5766 0060 1B7B     		ldrb	r3, [r3, #12]	@ zero_extendqisi2
 5767 0062 63F07F03 		orn	r3, r3, #127
 5768 0066 DAB2     		uxtb	r2, r3
 5769 0068 7B69     		ldr	r3, [r7, #20]
 5770 006a 1A73     		strb	r2, [r3, #12]
1348:C:/Users/dtjld/Desktop/AIoT_software/LiteOS_Lab_overseas/LiteOS_Lab/iot_link/network/lwm2m/wakaama_lwm2m/core/er-coap-13\er-coap-13.c ****     return 1;
 5771              		.loc 1 1348 0
 5772 006c 0123     		movs	r3, #1
 5773              	.L295:
1349:C:/Users/dtjld/Desktop/AIoT_software/LiteOS_Lab_overseas/LiteOS_Lab/iot_link/network/lwm2m/wakaama_lwm2m/core/er-coap-13\er-coap-13.c **** }
 5774              		.loc 1 1349 0
 5775 006e 1846     		mov	r0, r3
 5776 0070 1C37     		adds	r7, r7, #28
 5777              	.LCFI283:
 5778              		.cfi_def_cfa_offset 4
 5779 0072 BD46     		mov	sp, r7
 5780              	.LCFI284:
 5781              		.cfi_def_cfa_register 13
 5782              		@ sp needed
 5783 0074 5DF8047B 		ldr	r7, [sp], #4
 5784              	.LCFI285:
 5785              		.cfi_restore 7
 5786              		.cfi_def_cfa_offset 0
 5787 0078 7047     		bx	lr
 5788              		.cfi_endproc
 5789              	.LFE55:
 5791              		.section	.text.coap_get_header_block1,"ax",%progbits
 5792              		.align	1
ARM GAS  C:\Users\dtjld\AppData\Local\Temp\ccpI0fza.s 			page 125


 5793              		.global	coap_get_header_block1
 5794              		.syntax unified
 5795              		.thumb
 5796              		.thumb_func
 5797              		.fpu fpv4-sp-d16
 5799              	coap_get_header_block1:
 5800              	.LFB56:
1350:C:/Users/dtjld/Desktop/AIoT_software/LiteOS_Lab_overseas/LiteOS_Lab/iot_link/network/lwm2m/wakaama_lwm2m/core/er-coap-13\er-coap-13.c **** /*-----------------------------------------------------------------------------------*/
1351:C:/Users/dtjld/Desktop/AIoT_software/LiteOS_Lab_overseas/LiteOS_Lab/iot_link/network/lwm2m/wakaama_lwm2m/core/er-coap-13\er-coap-13.c **** int
1352:C:/Users/dtjld/Desktop/AIoT_software/LiteOS_Lab_overseas/LiteOS_Lab/iot_link/network/lwm2m/wakaama_lwm2m/core/er-coap-13\er-coap-13.c **** coap_get_header_block1(void *packet, uint32_t *num, uint8_t *more, uint16_t *size, uint32_t *offset
1353:C:/Users/dtjld/Desktop/AIoT_software/LiteOS_Lab_overseas/LiteOS_Lab/iot_link/network/lwm2m/wakaama_lwm2m/core/er-coap-13\er-coap-13.c **** {
 5801              		.loc 1 1353 0
 5802              		.cfi_startproc
 5803              		@ args = 4, pretend = 0, frame = 24
 5804              		@ frame_needed = 1, uses_anonymous_args = 0
 5805              		@ link register save eliminated.
 5806 0000 80B4     		push	{r7}
 5807              	.LCFI286:
 5808              		.cfi_def_cfa_offset 4
 5809              		.cfi_offset 7, -4
 5810 0002 87B0     		sub	sp, sp, #28
 5811              	.LCFI287:
 5812              		.cfi_def_cfa_offset 32
 5813 0004 00AF     		add	r7, sp, #0
 5814              	.LCFI288:
 5815              		.cfi_def_cfa_register 7
 5816 0006 F860     		str	r0, [r7, #12]
 5817 0008 B960     		str	r1, [r7, #8]
 5818 000a 7A60     		str	r2, [r7, #4]
 5819 000c 3B60     		str	r3, [r7]
1354:C:/Users/dtjld/Desktop/AIoT_software/LiteOS_Lab_overseas/LiteOS_Lab/iot_link/network/lwm2m/wakaama_lwm2m/core/er-coap-13\er-coap-13.c ****     coap_packet_t *const coap_pkt = (coap_packet_t *) packet;
 5820              		.loc 1 1354 0
 5821 000e FB68     		ldr	r3, [r7, #12]
 5822 0010 7B61     		str	r3, [r7, #20]
1355:C:/Users/dtjld/Desktop/AIoT_software/LiteOS_Lab_overseas/LiteOS_Lab/iot_link/network/lwm2m/wakaama_lwm2m/core/er-coap-13\er-coap-13.c **** 
1356:C:/Users/dtjld/Desktop/AIoT_software/LiteOS_Lab_overseas/LiteOS_Lab/iot_link/network/lwm2m/wakaama_lwm2m/core/er-coap-13\er-coap-13.c ****     if (!IS_OPTION(coap_pkt, COAP_OPTION_BLOCK1)) return 0;
 5823              		.loc 1 1356 0
 5824 0012 7B69     		ldr	r3, [r7, #20]
 5825 0014 5B7B     		ldrb	r3, [r3, #13]	@ zero_extendqisi2
 5826 0016 03F00803 		and	r3, r3, #8
 5827 001a 002B     		cmp	r3, #0
 5828 001c 01D1     		bne	.L299
 5829              		.loc 1 1356 0 is_stmt 0 discriminator 1
 5830 001e 0023     		movs	r3, #0
 5831 0020 1EE0     		b	.L300
 5832              	.L299:
1357:C:/Users/dtjld/Desktop/AIoT_software/LiteOS_Lab_overseas/LiteOS_Lab/iot_link/network/lwm2m/wakaama_lwm2m/core/er-coap-13\er-coap-13.c **** 
1358:C:/Users/dtjld/Desktop/AIoT_software/LiteOS_Lab_overseas/LiteOS_Lab/iot_link/network/lwm2m/wakaama_lwm2m/core/er-coap-13\er-coap-13.c ****     /* pointers may be NULL to get only specific block parameters */
1359:C:/Users/dtjld/Desktop/AIoT_software/LiteOS_Lab_overseas/LiteOS_Lab/iot_link/network/lwm2m/wakaama_lwm2m/core/er-coap-13\er-coap-13.c ****     if (num != NULL) *num = coap_pkt->block1_num;
 5833              		.loc 1 1359 0 is_stmt 1
 5834 0022 BB68     		ldr	r3, [r7, #8]
 5835 0024 002B     		cmp	r3, #0
 5836 0026 03D0     		beq	.L301
 5837              		.loc 1 1359 0 is_stmt 0 discriminator 1
 5838 0028 7B69     		ldr	r3, [r7, #20]
 5839 002a 1A6F     		ldr	r2, [r3, #112]
 5840 002c BB68     		ldr	r3, [r7, #8]
ARM GAS  C:\Users\dtjld\AppData\Local\Temp\ccpI0fza.s 			page 126


 5841 002e 1A60     		str	r2, [r3]
 5842              	.L301:
1360:C:/Users/dtjld/Desktop/AIoT_software/LiteOS_Lab_overseas/LiteOS_Lab/iot_link/network/lwm2m/wakaama_lwm2m/core/er-coap-13\er-coap-13.c ****     if (more != NULL) *more = coap_pkt->block1_more;
 5843              		.loc 1 1360 0 is_stmt 1
 5844 0030 7B68     		ldr	r3, [r7, #4]
 5845 0032 002B     		cmp	r3, #0
 5846 0034 04D0     		beq	.L302
 5847              		.loc 1 1360 0 is_stmt 0 discriminator 1
 5848 0036 7B69     		ldr	r3, [r7, #20]
 5849 0038 93F87420 		ldrb	r2, [r3, #116]	@ zero_extendqisi2
 5850 003c 7B68     		ldr	r3, [r7, #4]
 5851 003e 1A70     		strb	r2, [r3]
 5852              	.L302:
1361:C:/Users/dtjld/Desktop/AIoT_software/LiteOS_Lab_overseas/LiteOS_Lab/iot_link/network/lwm2m/wakaama_lwm2m/core/er-coap-13\er-coap-13.c ****     if (size != NULL) *size = coap_pkt->block1_size;
 5853              		.loc 1 1361 0 is_stmt 1
 5854 0040 3B68     		ldr	r3, [r7]
 5855 0042 002B     		cmp	r3, #0
 5856 0044 04D0     		beq	.L303
 5857              		.loc 1 1361 0 is_stmt 0 discriminator 1
 5858 0046 7B69     		ldr	r3, [r7, #20]
 5859 0048 B3F87620 		ldrh	r2, [r3, #118]
 5860 004c 3B68     		ldr	r3, [r7]
 5861 004e 1A80     		strh	r2, [r3]	@ movhi
 5862              	.L303:
1362:C:/Users/dtjld/Desktop/AIoT_software/LiteOS_Lab_overseas/LiteOS_Lab/iot_link/network/lwm2m/wakaama_lwm2m/core/er-coap-13\er-coap-13.c ****     if (offset != NULL) *offset = coap_pkt->block1_offset;
 5863              		.loc 1 1362 0 is_stmt 1
 5864 0050 3B6A     		ldr	r3, [r7, #32]
 5865 0052 002B     		cmp	r3, #0
 5866 0054 03D0     		beq	.L304
 5867              		.loc 1 1362 0 is_stmt 0 discriminator 1
 5868 0056 7B69     		ldr	r3, [r7, #20]
 5869 0058 9A6F     		ldr	r2, [r3, #120]
 5870 005a 3B6A     		ldr	r3, [r7, #32]
 5871 005c 1A60     		str	r2, [r3]
 5872              	.L304:
1363:C:/Users/dtjld/Desktop/AIoT_software/LiteOS_Lab_overseas/LiteOS_Lab/iot_link/network/lwm2m/wakaama_lwm2m/core/er-coap-13\er-coap-13.c **** 
1364:C:/Users/dtjld/Desktop/AIoT_software/LiteOS_Lab_overseas/LiteOS_Lab/iot_link/network/lwm2m/wakaama_lwm2m/core/er-coap-13\er-coap-13.c ****     return 1;
 5873              		.loc 1 1364 0 is_stmt 1
 5874 005e 0123     		movs	r3, #1
 5875              	.L300:
1365:C:/Users/dtjld/Desktop/AIoT_software/LiteOS_Lab_overseas/LiteOS_Lab/iot_link/network/lwm2m/wakaama_lwm2m/core/er-coap-13\er-coap-13.c **** }
 5876              		.loc 1 1365 0
 5877 0060 1846     		mov	r0, r3
 5878 0062 1C37     		adds	r7, r7, #28
 5879              	.LCFI289:
 5880              		.cfi_def_cfa_offset 4
 5881 0064 BD46     		mov	sp, r7
 5882              	.LCFI290:
 5883              		.cfi_def_cfa_register 13
 5884              		@ sp needed
 5885 0066 5DF8047B 		ldr	r7, [sp], #4
 5886              	.LCFI291:
 5887              		.cfi_restore 7
 5888              		.cfi_def_cfa_offset 0
 5889 006a 7047     		bx	lr
 5890              		.cfi_endproc
 5891              	.LFE56:
ARM GAS  C:\Users\dtjld\AppData\Local\Temp\ccpI0fza.s 			page 127


 5893              		.section	.text.coap_set_header_block1,"ax",%progbits
 5894              		.align	1
 5895              		.global	coap_set_header_block1
 5896              		.syntax unified
 5897              		.thumb
 5898              		.thumb_func
 5899              		.fpu fpv4-sp-d16
 5901              	coap_set_header_block1:
 5902              	.LFB57:
1366:C:/Users/dtjld/Desktop/AIoT_software/LiteOS_Lab_overseas/LiteOS_Lab/iot_link/network/lwm2m/wakaama_lwm2m/core/er-coap-13\er-coap-13.c **** 
1367:C:/Users/dtjld/Desktop/AIoT_software/LiteOS_Lab_overseas/LiteOS_Lab/iot_link/network/lwm2m/wakaama_lwm2m/core/er-coap-13\er-coap-13.c **** int
1368:C:/Users/dtjld/Desktop/AIoT_software/LiteOS_Lab_overseas/LiteOS_Lab/iot_link/network/lwm2m/wakaama_lwm2m/core/er-coap-13\er-coap-13.c **** coap_set_header_block1(void *packet, uint32_t num, uint8_t more, uint16_t size)
1369:C:/Users/dtjld/Desktop/AIoT_software/LiteOS_Lab_overseas/LiteOS_Lab/iot_link/network/lwm2m/wakaama_lwm2m/core/er-coap-13\er-coap-13.c **** {
 5903              		.loc 1 1369 0
 5904              		.cfi_startproc
 5905              		@ args = 0, pretend = 0, frame = 24
 5906              		@ frame_needed = 1, uses_anonymous_args = 0
 5907              		@ link register save eliminated.
 5908 0000 80B4     		push	{r7}
 5909              	.LCFI292:
 5910              		.cfi_def_cfa_offset 4
 5911              		.cfi_offset 7, -4
 5912 0002 87B0     		sub	sp, sp, #28
 5913              	.LCFI293:
 5914              		.cfi_def_cfa_offset 32
 5915 0004 00AF     		add	r7, sp, #0
 5916              	.LCFI294:
 5917              		.cfi_def_cfa_register 7
 5918 0006 F860     		str	r0, [r7, #12]
 5919 0008 B960     		str	r1, [r7, #8]
 5920 000a 1146     		mov	r1, r2
 5921 000c 1A46     		mov	r2, r3
 5922 000e 0B46     		mov	r3, r1
 5923 0010 FB71     		strb	r3, [r7, #7]
 5924 0012 1346     		mov	r3, r2	@ movhi
 5925 0014 BB80     		strh	r3, [r7, #4]	@ movhi
1370:C:/Users/dtjld/Desktop/AIoT_software/LiteOS_Lab_overseas/LiteOS_Lab/iot_link/network/lwm2m/wakaama_lwm2m/core/er-coap-13\er-coap-13.c ****     coap_packet_t *const coap_pkt = (coap_packet_t *) packet;
 5926              		.loc 1 1370 0
 5927 0016 FB68     		ldr	r3, [r7, #12]
 5928 0018 7B61     		str	r3, [r7, #20]
1371:C:/Users/dtjld/Desktop/AIoT_software/LiteOS_Lab_overseas/LiteOS_Lab/iot_link/network/lwm2m/wakaama_lwm2m/core/er-coap-13\er-coap-13.c **** 
1372:C:/Users/dtjld/Desktop/AIoT_software/LiteOS_Lab_overseas/LiteOS_Lab/iot_link/network/lwm2m/wakaama_lwm2m/core/er-coap-13\er-coap-13.c ****     if (size < 16) return 0;
 5929              		.loc 1 1372 0
 5930 001a BB88     		ldrh	r3, [r7, #4]
 5931 001c 0F2B     		cmp	r3, #15
 5932 001e 01D8     		bhi	.L306
 5933              		.loc 1 1372 0 is_stmt 0 discriminator 1
 5934 0020 0023     		movs	r3, #0
 5935 0022 1EE0     		b	.L307
 5936              	.L306:
1373:C:/Users/dtjld/Desktop/AIoT_software/LiteOS_Lab_overseas/LiteOS_Lab/iot_link/network/lwm2m/wakaama_lwm2m/core/er-coap-13\er-coap-13.c ****     if (size > 2048) return 0;
 5937              		.loc 1 1373 0 is_stmt 1
 5938 0024 BB88     		ldrh	r3, [r7, #4]
 5939 0026 B3F5006F 		cmp	r3, #2048
 5940 002a 01D9     		bls	.L308
 5941              		.loc 1 1373 0 is_stmt 0 discriminator 1
 5942 002c 0023     		movs	r3, #0
ARM GAS  C:\Users\dtjld\AppData\Local\Temp\ccpI0fza.s 			page 128


 5943 002e 18E0     		b	.L307
 5944              	.L308:
1374:C:/Users/dtjld/Desktop/AIoT_software/LiteOS_Lab_overseas/LiteOS_Lab/iot_link/network/lwm2m/wakaama_lwm2m/core/er-coap-13\er-coap-13.c ****     if (num > 0x0FFFFF) return 0;
 5945              		.loc 1 1374 0 is_stmt 1
 5946 0030 BB68     		ldr	r3, [r7, #8]
 5947 0032 B3F5801F 		cmp	r3, #1048576
 5948 0036 01D3     		bcc	.L309
 5949              		.loc 1 1374 0 is_stmt 0 discriminator 1
 5950 0038 0023     		movs	r3, #0
 5951 003a 12E0     		b	.L307
 5952              	.L309:
1375:C:/Users/dtjld/Desktop/AIoT_software/LiteOS_Lab_overseas/LiteOS_Lab/iot_link/network/lwm2m/wakaama_lwm2m/core/er-coap-13\er-coap-13.c **** 
1376:C:/Users/dtjld/Desktop/AIoT_software/LiteOS_Lab_overseas/LiteOS_Lab/iot_link/network/lwm2m/wakaama_lwm2m/core/er-coap-13\er-coap-13.c ****     coap_pkt->block1_num = num;
 5953              		.loc 1 1376 0 is_stmt 1
 5954 003c 7B69     		ldr	r3, [r7, #20]
 5955 003e BA68     		ldr	r2, [r7, #8]
 5956 0040 1A67     		str	r2, [r3, #112]
1377:C:/Users/dtjld/Desktop/AIoT_software/LiteOS_Lab_overseas/LiteOS_Lab/iot_link/network/lwm2m/wakaama_lwm2m/core/er-coap-13\er-coap-13.c ****     coap_pkt->block1_more = more;
 5957              		.loc 1 1377 0
 5958 0042 7B69     		ldr	r3, [r7, #20]
 5959 0044 FA79     		ldrb	r2, [r7, #7]
 5960 0046 83F87420 		strb	r2, [r3, #116]
1378:C:/Users/dtjld/Desktop/AIoT_software/LiteOS_Lab_overseas/LiteOS_Lab/iot_link/network/lwm2m/wakaama_lwm2m/core/er-coap-13\er-coap-13.c ****     coap_pkt->block1_size = size;
 5961              		.loc 1 1378 0
 5962 004a 7B69     		ldr	r3, [r7, #20]
 5963 004c BA88     		ldrh	r2, [r7, #4]	@ movhi
 5964 004e A3F87620 		strh	r2, [r3, #118]	@ movhi
1379:C:/Users/dtjld/Desktop/AIoT_software/LiteOS_Lab_overseas/LiteOS_Lab/iot_link/network/lwm2m/wakaama_lwm2m/core/er-coap-13\er-coap-13.c **** 
1380:C:/Users/dtjld/Desktop/AIoT_software/LiteOS_Lab_overseas/LiteOS_Lab/iot_link/network/lwm2m/wakaama_lwm2m/core/er-coap-13\er-coap-13.c ****     SET_OPTION(coap_pkt, COAP_OPTION_BLOCK1);
 5965              		.loc 1 1380 0
 5966 0052 7B69     		ldr	r3, [r7, #20]
 5967 0054 5B7B     		ldrb	r3, [r3, #13]	@ zero_extendqisi2
 5968 0056 43F00803 		orr	r3, r3, #8
 5969 005a DAB2     		uxtb	r2, r3
 5970 005c 7B69     		ldr	r3, [r7, #20]
 5971 005e 5A73     		strb	r2, [r3, #13]
1381:C:/Users/dtjld/Desktop/AIoT_software/LiteOS_Lab_overseas/LiteOS_Lab/iot_link/network/lwm2m/wakaama_lwm2m/core/er-coap-13\er-coap-13.c ****     return 1;
 5972              		.loc 1 1381 0
 5973 0060 0123     		movs	r3, #1
 5974              	.L307:
1382:C:/Users/dtjld/Desktop/AIoT_software/LiteOS_Lab_overseas/LiteOS_Lab/iot_link/network/lwm2m/wakaama_lwm2m/core/er-coap-13\er-coap-13.c **** }
 5975              		.loc 1 1382 0
 5976 0062 1846     		mov	r0, r3
 5977 0064 1C37     		adds	r7, r7, #28
 5978              	.LCFI295:
 5979              		.cfi_def_cfa_offset 4
 5980 0066 BD46     		mov	sp, r7
 5981              	.LCFI296:
 5982              		.cfi_def_cfa_register 13
 5983              		@ sp needed
 5984 0068 5DF8047B 		ldr	r7, [sp], #4
 5985              	.LCFI297:
 5986              		.cfi_restore 7
 5987              		.cfi_def_cfa_offset 0
 5988 006c 7047     		bx	lr
 5989              		.cfi_endproc
 5990              	.LFE57:
ARM GAS  C:\Users\dtjld\AppData\Local\Temp\ccpI0fza.s 			page 129


 5992              		.section	.text.coap_get_header_size,"ax",%progbits
 5993              		.align	1
 5994              		.global	coap_get_header_size
 5995              		.syntax unified
 5996              		.thumb
 5997              		.thumb_func
 5998              		.fpu fpv4-sp-d16
 6000              	coap_get_header_size:
 6001              	.LFB58:
1383:C:/Users/dtjld/Desktop/AIoT_software/LiteOS_Lab_overseas/LiteOS_Lab/iot_link/network/lwm2m/wakaama_lwm2m/core/er-coap-13\er-coap-13.c **** /*-----------------------------------------------------------------------------------*/
1384:C:/Users/dtjld/Desktop/AIoT_software/LiteOS_Lab_overseas/LiteOS_Lab/iot_link/network/lwm2m/wakaama_lwm2m/core/er-coap-13\er-coap-13.c **** int
1385:C:/Users/dtjld/Desktop/AIoT_software/LiteOS_Lab_overseas/LiteOS_Lab/iot_link/network/lwm2m/wakaama_lwm2m/core/er-coap-13\er-coap-13.c **** coap_get_header_size(void *packet, uint32_t *size)
1386:C:/Users/dtjld/Desktop/AIoT_software/LiteOS_Lab_overseas/LiteOS_Lab/iot_link/network/lwm2m/wakaama_lwm2m/core/er-coap-13\er-coap-13.c **** {
 6002              		.loc 1 1386 0
 6003              		.cfi_startproc
 6004              		@ args = 0, pretend = 0, frame = 16
 6005              		@ frame_needed = 1, uses_anonymous_args = 0
 6006              		@ link register save eliminated.
 6007 0000 80B4     		push	{r7}
 6008              	.LCFI298:
 6009              		.cfi_def_cfa_offset 4
 6010              		.cfi_offset 7, -4
 6011 0002 85B0     		sub	sp, sp, #20
 6012              	.LCFI299:
 6013              		.cfi_def_cfa_offset 24
 6014 0004 00AF     		add	r7, sp, #0
 6015              	.LCFI300:
 6016              		.cfi_def_cfa_register 7
 6017 0006 7860     		str	r0, [r7, #4]
 6018 0008 3960     		str	r1, [r7]
1387:C:/Users/dtjld/Desktop/AIoT_software/LiteOS_Lab_overseas/LiteOS_Lab/iot_link/network/lwm2m/wakaama_lwm2m/core/er-coap-13\er-coap-13.c ****     coap_packet_t *const coap_pkt = (coap_packet_t *) packet;
 6019              		.loc 1 1387 0
 6020 000a 7B68     		ldr	r3, [r7, #4]
 6021 000c FB60     		str	r3, [r7, #12]
1388:C:/Users/dtjld/Desktop/AIoT_software/LiteOS_Lab_overseas/LiteOS_Lab/iot_link/network/lwm2m/wakaama_lwm2m/core/er-coap-13\er-coap-13.c **** 
1389:C:/Users/dtjld/Desktop/AIoT_software/LiteOS_Lab_overseas/LiteOS_Lab/iot_link/network/lwm2m/wakaama_lwm2m/core/er-coap-13\er-coap-13.c ****     if (!IS_OPTION(coap_pkt, COAP_OPTION_SIZE)) return 0;
 6022              		.loc 1 1389 0
 6023 000e FB68     		ldr	r3, [r7, #12]
 6024 0010 5B7B     		ldrb	r3, [r3, #13]	@ zero_extendqisi2
 6025 0012 03F01003 		and	r3, r3, #16
 6026 0016 002B     		cmp	r3, #0
 6027 0018 01D1     		bne	.L311
 6028              		.loc 1 1389 0 is_stmt 0 discriminator 1
 6029 001a 0023     		movs	r3, #0
 6030 001c 04E0     		b	.L312
 6031              	.L311:
1390:C:/Users/dtjld/Desktop/AIoT_software/LiteOS_Lab_overseas/LiteOS_Lab/iot_link/network/lwm2m/wakaama_lwm2m/core/er-coap-13\er-coap-13.c **** 
1391:C:/Users/dtjld/Desktop/AIoT_software/LiteOS_Lab_overseas/LiteOS_Lab/iot_link/network/lwm2m/wakaama_lwm2m/core/er-coap-13\er-coap-13.c ****     *size = coap_pkt->size;
 6032              		.loc 1 1391 0 is_stmt 1
 6033 001e FB68     		ldr	r3, [r7, #12]
 6034 0020 DA6F     		ldr	r2, [r3, #124]
 6035 0022 3B68     		ldr	r3, [r7]
 6036 0024 1A60     		str	r2, [r3]
1392:C:/Users/dtjld/Desktop/AIoT_software/LiteOS_Lab_overseas/LiteOS_Lab/iot_link/network/lwm2m/wakaama_lwm2m/core/er-coap-13\er-coap-13.c ****     return 1;
 6037              		.loc 1 1392 0
 6038 0026 0123     		movs	r3, #1
 6039              	.L312:
ARM GAS  C:\Users\dtjld\AppData\Local\Temp\ccpI0fza.s 			page 130


1393:C:/Users/dtjld/Desktop/AIoT_software/LiteOS_Lab_overseas/LiteOS_Lab/iot_link/network/lwm2m/wakaama_lwm2m/core/er-coap-13\er-coap-13.c **** }
 6040              		.loc 1 1393 0
 6041 0028 1846     		mov	r0, r3
 6042 002a 1437     		adds	r7, r7, #20
 6043              	.LCFI301:
 6044              		.cfi_def_cfa_offset 4
 6045 002c BD46     		mov	sp, r7
 6046              	.LCFI302:
 6047              		.cfi_def_cfa_register 13
 6048              		@ sp needed
 6049 002e 5DF8047B 		ldr	r7, [sp], #4
 6050              	.LCFI303:
 6051              		.cfi_restore 7
 6052              		.cfi_def_cfa_offset 0
 6053 0032 7047     		bx	lr
 6054              		.cfi_endproc
 6055              	.LFE58:
 6057              		.section	.text.coap_set_header_size,"ax",%progbits
 6058              		.align	1
 6059              		.global	coap_set_header_size
 6060              		.syntax unified
 6061              		.thumb
 6062              		.thumb_func
 6063              		.fpu fpv4-sp-d16
 6065              	coap_set_header_size:
 6066              	.LFB59:
1394:C:/Users/dtjld/Desktop/AIoT_software/LiteOS_Lab_overseas/LiteOS_Lab/iot_link/network/lwm2m/wakaama_lwm2m/core/er-coap-13\er-coap-13.c **** 
1395:C:/Users/dtjld/Desktop/AIoT_software/LiteOS_Lab_overseas/LiteOS_Lab/iot_link/network/lwm2m/wakaama_lwm2m/core/er-coap-13\er-coap-13.c **** int
1396:C:/Users/dtjld/Desktop/AIoT_software/LiteOS_Lab_overseas/LiteOS_Lab/iot_link/network/lwm2m/wakaama_lwm2m/core/er-coap-13\er-coap-13.c **** coap_set_header_size(void *packet, uint32_t size)
1397:C:/Users/dtjld/Desktop/AIoT_software/LiteOS_Lab_overseas/LiteOS_Lab/iot_link/network/lwm2m/wakaama_lwm2m/core/er-coap-13\er-coap-13.c **** {
 6067              		.loc 1 1397 0
 6068              		.cfi_startproc
 6069              		@ args = 0, pretend = 0, frame = 16
 6070              		@ frame_needed = 1, uses_anonymous_args = 0
 6071              		@ link register save eliminated.
 6072 0000 80B4     		push	{r7}
 6073              	.LCFI304:
 6074              		.cfi_def_cfa_offset 4
 6075              		.cfi_offset 7, -4
 6076 0002 85B0     		sub	sp, sp, #20
 6077              	.LCFI305:
 6078              		.cfi_def_cfa_offset 24
 6079 0004 00AF     		add	r7, sp, #0
 6080              	.LCFI306:
 6081              		.cfi_def_cfa_register 7
 6082 0006 7860     		str	r0, [r7, #4]
 6083 0008 3960     		str	r1, [r7]
1398:C:/Users/dtjld/Desktop/AIoT_software/LiteOS_Lab_overseas/LiteOS_Lab/iot_link/network/lwm2m/wakaama_lwm2m/core/er-coap-13\er-coap-13.c ****     coap_packet_t *const coap_pkt = (coap_packet_t *) packet;
 6084              		.loc 1 1398 0
 6085 000a 7B68     		ldr	r3, [r7, #4]
 6086 000c FB60     		str	r3, [r7, #12]
1399:C:/Users/dtjld/Desktop/AIoT_software/LiteOS_Lab_overseas/LiteOS_Lab/iot_link/network/lwm2m/wakaama_lwm2m/core/er-coap-13\er-coap-13.c **** 
1400:C:/Users/dtjld/Desktop/AIoT_software/LiteOS_Lab_overseas/LiteOS_Lab/iot_link/network/lwm2m/wakaama_lwm2m/core/er-coap-13\er-coap-13.c ****     coap_pkt->size = size;
 6087              		.loc 1 1400 0
 6088 000e FB68     		ldr	r3, [r7, #12]
 6089 0010 3A68     		ldr	r2, [r7]
 6090 0012 DA67     		str	r2, [r3, #124]
ARM GAS  C:\Users\dtjld\AppData\Local\Temp\ccpI0fza.s 			page 131


1401:C:/Users/dtjld/Desktop/AIoT_software/LiteOS_Lab_overseas/LiteOS_Lab/iot_link/network/lwm2m/wakaama_lwm2m/core/er-coap-13\er-coap-13.c ****     SET_OPTION(coap_pkt, COAP_OPTION_SIZE);
 6091              		.loc 1 1401 0
 6092 0014 FB68     		ldr	r3, [r7, #12]
 6093 0016 5B7B     		ldrb	r3, [r3, #13]	@ zero_extendqisi2
 6094 0018 43F01003 		orr	r3, r3, #16
 6095 001c DAB2     		uxtb	r2, r3
 6096 001e FB68     		ldr	r3, [r7, #12]
 6097 0020 5A73     		strb	r2, [r3, #13]
1402:C:/Users/dtjld/Desktop/AIoT_software/LiteOS_Lab_overseas/LiteOS_Lab/iot_link/network/lwm2m/wakaama_lwm2m/core/er-coap-13\er-coap-13.c ****     return 1;
 6098              		.loc 1 1402 0
 6099 0022 0123     		movs	r3, #1
1403:C:/Users/dtjld/Desktop/AIoT_software/LiteOS_Lab_overseas/LiteOS_Lab/iot_link/network/lwm2m/wakaama_lwm2m/core/er-coap-13\er-coap-13.c **** }
 6100              		.loc 1 1403 0
 6101 0024 1846     		mov	r0, r3
 6102 0026 1437     		adds	r7, r7, #20
 6103              	.LCFI307:
 6104              		.cfi_def_cfa_offset 4
 6105 0028 BD46     		mov	sp, r7
 6106              	.LCFI308:
 6107              		.cfi_def_cfa_register 13
 6108              		@ sp needed
 6109 002a 5DF8047B 		ldr	r7, [sp], #4
 6110              	.LCFI309:
 6111              		.cfi_restore 7
 6112              		.cfi_def_cfa_offset 0
 6113 002e 7047     		bx	lr
 6114              		.cfi_endproc
 6115              	.LFE59:
 6117              		.section	.text.coap_get_payload,"ax",%progbits
 6118              		.align	1
 6119              		.global	coap_get_payload
 6120              		.syntax unified
 6121              		.thumb
 6122              		.thumb_func
 6123              		.fpu fpv4-sp-d16
 6125              	coap_get_payload:
 6126              	.LFB60:
1404:C:/Users/dtjld/Desktop/AIoT_software/LiteOS_Lab_overseas/LiteOS_Lab/iot_link/network/lwm2m/wakaama_lwm2m/core/er-coap-13\er-coap-13.c **** /*-----------------------------------------------------------------------------------*/
1405:C:/Users/dtjld/Desktop/AIoT_software/LiteOS_Lab_overseas/LiteOS_Lab/iot_link/network/lwm2m/wakaama_lwm2m/core/er-coap-13\er-coap-13.c **** /*- PAYLOAD -------------------------------------------------------------------------*/
1406:C:/Users/dtjld/Desktop/AIoT_software/LiteOS_Lab_overseas/LiteOS_Lab/iot_link/network/lwm2m/wakaama_lwm2m/core/er-coap-13\er-coap-13.c **** /*-----------------------------------------------------------------------------------*/
1407:C:/Users/dtjld/Desktop/AIoT_software/LiteOS_Lab_overseas/LiteOS_Lab/iot_link/network/lwm2m/wakaama_lwm2m/core/er-coap-13\er-coap-13.c **** int
1408:C:/Users/dtjld/Desktop/AIoT_software/LiteOS_Lab_overseas/LiteOS_Lab/iot_link/network/lwm2m/wakaama_lwm2m/core/er-coap-13\er-coap-13.c **** coap_get_payload(void *packet, const uint8_t **payload)
1409:C:/Users/dtjld/Desktop/AIoT_software/LiteOS_Lab_overseas/LiteOS_Lab/iot_link/network/lwm2m/wakaama_lwm2m/core/er-coap-13\er-coap-13.c **** {
 6127              		.loc 1 1409 0
 6128              		.cfi_startproc
 6129              		@ args = 0, pretend = 0, frame = 16
 6130              		@ frame_needed = 1, uses_anonymous_args = 0
 6131              		@ link register save eliminated.
 6132 0000 80B4     		push	{r7}
 6133              	.LCFI310:
 6134              		.cfi_def_cfa_offset 4
 6135              		.cfi_offset 7, -4
 6136 0002 85B0     		sub	sp, sp, #20
 6137              	.LCFI311:
 6138              		.cfi_def_cfa_offset 24
 6139 0004 00AF     		add	r7, sp, #0
 6140              	.LCFI312:
ARM GAS  C:\Users\dtjld\AppData\Local\Temp\ccpI0fza.s 			page 132


 6141              		.cfi_def_cfa_register 7
 6142 0006 7860     		str	r0, [r7, #4]
 6143 0008 3960     		str	r1, [r7]
1410:C:/Users/dtjld/Desktop/AIoT_software/LiteOS_Lab_overseas/LiteOS_Lab/iot_link/network/lwm2m/wakaama_lwm2m/core/er-coap-13\er-coap-13.c ****     coap_packet_t *const coap_pkt = (coap_packet_t *) packet;
 6144              		.loc 1 1410 0
 6145 000a 7B68     		ldr	r3, [r7, #4]
 6146 000c FB60     		str	r3, [r7, #12]
1411:C:/Users/dtjld/Desktop/AIoT_software/LiteOS_Lab_overseas/LiteOS_Lab/iot_link/network/lwm2m/wakaama_lwm2m/core/er-coap-13\er-coap-13.c **** 
1412:C:/Users/dtjld/Desktop/AIoT_software/LiteOS_Lab_overseas/LiteOS_Lab/iot_link/network/lwm2m/wakaama_lwm2m/core/er-coap-13\er-coap-13.c ****     if (coap_pkt->payload)
 6147              		.loc 1 1412 0
 6148 000e FB68     		ldr	r3, [r7, #12]
 6149 0010 D3F88830 		ldr	r3, [r3, #136]
 6150 0014 002B     		cmp	r3, #0
 6151 0016 08D0     		beq	.L316
1413:C:/Users/dtjld/Desktop/AIoT_software/LiteOS_Lab_overseas/LiteOS_Lab/iot_link/network/lwm2m/wakaama_lwm2m/core/er-coap-13\er-coap-13.c ****     {
1414:C:/Users/dtjld/Desktop/AIoT_software/LiteOS_Lab_overseas/LiteOS_Lab/iot_link/network/lwm2m/wakaama_lwm2m/core/er-coap-13\er-coap-13.c ****         *payload = coap_pkt->payload;
 6152              		.loc 1 1414 0
 6153 0018 FB68     		ldr	r3, [r7, #12]
 6154 001a D3F88820 		ldr	r2, [r3, #136]
 6155 001e 3B68     		ldr	r3, [r7]
 6156 0020 1A60     		str	r2, [r3]
1415:C:/Users/dtjld/Desktop/AIoT_software/LiteOS_Lab_overseas/LiteOS_Lab/iot_link/network/lwm2m/wakaama_lwm2m/core/er-coap-13\er-coap-13.c ****         return coap_pkt->payload_len;
 6157              		.loc 1 1415 0
 6158 0022 FB68     		ldr	r3, [r7, #12]
 6159 0024 B3F88630 		ldrh	r3, [r3, #134]
 6160 0028 03E0     		b	.L317
 6161              	.L316:
1416:C:/Users/dtjld/Desktop/AIoT_software/LiteOS_Lab_overseas/LiteOS_Lab/iot_link/network/lwm2m/wakaama_lwm2m/core/er-coap-13\er-coap-13.c ****     }
1417:C:/Users/dtjld/Desktop/AIoT_software/LiteOS_Lab_overseas/LiteOS_Lab/iot_link/network/lwm2m/wakaama_lwm2m/core/er-coap-13\er-coap-13.c ****     else
1418:C:/Users/dtjld/Desktop/AIoT_software/LiteOS_Lab_overseas/LiteOS_Lab/iot_link/network/lwm2m/wakaama_lwm2m/core/er-coap-13\er-coap-13.c ****     {
1419:C:/Users/dtjld/Desktop/AIoT_software/LiteOS_Lab_overseas/LiteOS_Lab/iot_link/network/lwm2m/wakaama_lwm2m/core/er-coap-13\er-coap-13.c ****         *payload = NULL;
 6162              		.loc 1 1419 0
 6163 002a 3B68     		ldr	r3, [r7]
 6164 002c 0022     		movs	r2, #0
 6165 002e 1A60     		str	r2, [r3]
1420:C:/Users/dtjld/Desktop/AIoT_software/LiteOS_Lab_overseas/LiteOS_Lab/iot_link/network/lwm2m/wakaama_lwm2m/core/er-coap-13\er-coap-13.c ****         return 0;
 6166              		.loc 1 1420 0
 6167 0030 0023     		movs	r3, #0
 6168              	.L317:
1421:C:/Users/dtjld/Desktop/AIoT_software/LiteOS_Lab_overseas/LiteOS_Lab/iot_link/network/lwm2m/wakaama_lwm2m/core/er-coap-13\er-coap-13.c ****     }
1422:C:/Users/dtjld/Desktop/AIoT_software/LiteOS_Lab_overseas/LiteOS_Lab/iot_link/network/lwm2m/wakaama_lwm2m/core/er-coap-13\er-coap-13.c **** }
 6169              		.loc 1 1422 0
 6170 0032 1846     		mov	r0, r3
 6171 0034 1437     		adds	r7, r7, #20
 6172              	.LCFI313:
 6173              		.cfi_def_cfa_offset 4
 6174 0036 BD46     		mov	sp, r7
 6175              	.LCFI314:
 6176              		.cfi_def_cfa_register 13
 6177              		@ sp needed
 6178 0038 5DF8047B 		ldr	r7, [sp], #4
 6179              	.LCFI315:
 6180              		.cfi_restore 7
 6181              		.cfi_def_cfa_offset 0
 6182 003c 7047     		bx	lr
 6183              		.cfi_endproc
 6184              	.LFE60:
ARM GAS  C:\Users\dtjld\AppData\Local\Temp\ccpI0fza.s 			page 133


 6186              		.section	.text.coap_set_payload,"ax",%progbits
 6187              		.align	1
 6188              		.global	coap_set_payload
 6189              		.syntax unified
 6190              		.thumb
 6191              		.thumb_func
 6192              		.fpu fpv4-sp-d16
 6194              	coap_set_payload:
 6195              	.LFB61:
1423:C:/Users/dtjld/Desktop/AIoT_software/LiteOS_Lab_overseas/LiteOS_Lab/iot_link/network/lwm2m/wakaama_lwm2m/core/er-coap-13\er-coap-13.c **** 
1424:C:/Users/dtjld/Desktop/AIoT_software/LiteOS_Lab_overseas/LiteOS_Lab/iot_link/network/lwm2m/wakaama_lwm2m/core/er-coap-13\er-coap-13.c **** int
1425:C:/Users/dtjld/Desktop/AIoT_software/LiteOS_Lab_overseas/LiteOS_Lab/iot_link/network/lwm2m/wakaama_lwm2m/core/er-coap-13\er-coap-13.c **** coap_set_payload(void *packet, const void *payload, size_t length)
1426:C:/Users/dtjld/Desktop/AIoT_software/LiteOS_Lab_overseas/LiteOS_Lab/iot_link/network/lwm2m/wakaama_lwm2m/core/er-coap-13\er-coap-13.c **** {
 6196              		.loc 1 1426 0
 6197              		.cfi_startproc
 6198              		@ args = 0, pretend = 0, frame = 24
 6199              		@ frame_needed = 1, uses_anonymous_args = 0
 6200              		@ link register save eliminated.
 6201 0000 80B4     		push	{r7}
 6202              	.LCFI316:
 6203              		.cfi_def_cfa_offset 4
 6204              		.cfi_offset 7, -4
 6205 0002 87B0     		sub	sp, sp, #28
 6206              	.LCFI317:
 6207              		.cfi_def_cfa_offset 32
 6208 0004 00AF     		add	r7, sp, #0
 6209              	.LCFI318:
 6210              		.cfi_def_cfa_register 7
 6211 0006 F860     		str	r0, [r7, #12]
 6212 0008 B960     		str	r1, [r7, #8]
 6213 000a 7A60     		str	r2, [r7, #4]
1427:C:/Users/dtjld/Desktop/AIoT_software/LiteOS_Lab_overseas/LiteOS_Lab/iot_link/network/lwm2m/wakaama_lwm2m/core/er-coap-13\er-coap-13.c ****     coap_packet_t *const coap_pkt = (coap_packet_t *) packet;
 6214              		.loc 1 1427 0
 6215 000c FB68     		ldr	r3, [r7, #12]
 6216 000e 7B61     		str	r3, [r7, #20]
1428:C:/Users/dtjld/Desktop/AIoT_software/LiteOS_Lab_overseas/LiteOS_Lab/iot_link/network/lwm2m/wakaama_lwm2m/core/er-coap-13\er-coap-13.c **** 
1429:C:/Users/dtjld/Desktop/AIoT_software/LiteOS_Lab_overseas/LiteOS_Lab/iot_link/network/lwm2m/wakaama_lwm2m/core/er-coap-13\er-coap-13.c ****     coap_pkt->payload = (uint8_t *) payload;
 6217              		.loc 1 1429 0
 6218 0010 7B69     		ldr	r3, [r7, #20]
 6219 0012 BA68     		ldr	r2, [r7, #8]
 6220 0014 C3F88820 		str	r2, [r3, #136]
1430:C:/Users/dtjld/Desktop/AIoT_software/LiteOS_Lab_overseas/LiteOS_Lab/iot_link/network/lwm2m/wakaama_lwm2m/core/er-coap-13\er-coap-13.c ****     coap_pkt->payload_len = (uint16_t)(length);
 6221              		.loc 1 1430 0
 6222 0018 7B68     		ldr	r3, [r7, #4]
 6223 001a 9AB2     		uxth	r2, r3
 6224 001c 7B69     		ldr	r3, [r7, #20]
 6225 001e A3F88620 		strh	r2, [r3, #134]	@ movhi
1431:C:/Users/dtjld/Desktop/AIoT_software/LiteOS_Lab_overseas/LiteOS_Lab/iot_link/network/lwm2m/wakaama_lwm2m/core/er-coap-13\er-coap-13.c **** 
1432:C:/Users/dtjld/Desktop/AIoT_software/LiteOS_Lab_overseas/LiteOS_Lab/iot_link/network/lwm2m/wakaama_lwm2m/core/er-coap-13\er-coap-13.c ****     return coap_pkt->payload_len;
 6226              		.loc 1 1432 0
 6227 0022 7B69     		ldr	r3, [r7, #20]
 6228 0024 B3F88630 		ldrh	r3, [r3, #134]
1433:C:/Users/dtjld/Desktop/AIoT_software/LiteOS_Lab_overseas/LiteOS_Lab/iot_link/network/lwm2m/wakaama_lwm2m/core/er-coap-13\er-coap-13.c **** }
 6229              		.loc 1 1433 0
 6230 0028 1846     		mov	r0, r3
 6231 002a 1C37     		adds	r7, r7, #28
 6232              	.LCFI319:
ARM GAS  C:\Users\dtjld\AppData\Local\Temp\ccpI0fza.s 			page 134


 6233              		.cfi_def_cfa_offset 4
 6234 002c BD46     		mov	sp, r7
 6235              	.LCFI320:
 6236              		.cfi_def_cfa_register 13
 6237              		@ sp needed
 6238 002e 5DF8047B 		ldr	r7, [sp], #4
 6239              	.LCFI321:
 6240              		.cfi_restore 7
 6241              		.cfi_def_cfa_offset 0
 6242 0032 7047     		bx	lr
 6243              		.cfi_endproc
 6244              	.LFE61:
 6246              		.text
 6247              	.Letext0:
 6248              		.file 2 "c:\\ac6\\systemworkbench\\plugins\\fr.ac6.mcu.externaltools.arm-none.win32_1.16.0.2018071
 6249              		.file 3 "c:\\ac6\\systemworkbench\\plugins\\fr.ac6.mcu.externaltools.arm-none.win32_1.16.0.2018071
 6250              		.file 4 "c:\\ac6\\systemworkbench\\plugins\\fr.ac6.mcu.externaltools.arm-none.win32_1.16.0.2018071
 6251              		.file 5 "c:\\ac6\\systemworkbench\\plugins\\fr.ac6.mcu.externaltools.arm-none.win32_1.16.0.2018071
 6252              		.file 6 "c:\\ac6\\systemworkbench\\plugins\\fr.ac6.mcu.externaltools.arm-none.win32_1.16.0.2018071
 6253              		.file 7 "c:\\ac6\\systemworkbench\\plugins\\fr.ac6.mcu.externaltools.arm-none.win32_1.16.0.2018071
 6254              		.file 8 "c:\\ac6\\systemworkbench\\plugins\\fr.ac6.mcu.externaltools.arm-none.win32_1.16.0.2018071
 6255              		.file 9 "C:/Users/dtjld/Desktop/AIoT_software/LiteOS_Lab_overseas/LiteOS_Lab/iot_link/network/lwm2
 6256              		.file 10 "c:\\ac6\\systemworkbench\\plugins\\fr.ac6.mcu.externaltools.arm-none.win32_1.16.0.201807
 6257              		.file 11 "c:\\ac6\\systemworkbench\\plugins\\fr.ac6.mcu.externaltools.arm-none.win32_1.16.0.201807
 6258              		.file 12 "C:/Users/dtjld/Desktop/AIoT_software/LiteOS_Lab_overseas/LiteOS_Lab/iot_link/oc/oc_lwm2m
ARM GAS  C:\Users\dtjld\AppData\Local\Temp\ccpI0fza.s 			page 135


DEFINED SYMBOLS
                            *ABS*:00000000 er-coap-13.c
C:\Users\dtjld\AppData\Local\Temp\ccpI0fza.s:18     .bss.current_mid:00000000 $d
C:\Users\dtjld\AppData\Local\Temp\ccpI0fza.s:21     .bss.current_mid:00000000 current_mid
C:\Users\dtjld\AppData\Local\Temp\ccpI0fza.s:27     .bss.coap_error_code:00000000 coap_error_code
C:\Users\dtjld\AppData\Local\Temp\ccpI0fza.s:28     .bss.coap_error_code:00000000 $d
C:\Users\dtjld\AppData\Local\Temp\ccpI0fza.s:38     .data.coap_error_message:00000000 coap_error_message
C:\Users\dtjld\AppData\Local\Temp\ccpI0fza.s:31     .rodata:00000000 $d
C:\Users\dtjld\AppData\Local\Temp\ccpI0fza.s:35     .data.coap_error_message:00000000 $d
C:\Users\dtjld\AppData\Local\Temp\ccpI0fza.s:41     .text.coap_log_2:00000000 $t
C:\Users\dtjld\AppData\Local\Temp\ccpI0fza.s:47     .text.coap_log_2:00000000 coap_log_2
C:\Users\dtjld\AppData\Local\Temp\ccpI0fza.s:114    .text.coap_parse_int_option:00000000 $t
C:\Users\dtjld\AppData\Local\Temp\ccpI0fza.s:120    .text.coap_parse_int_option:00000000 coap_parse_int_option
C:\Users\dtjld\AppData\Local\Temp\ccpI0fza.s:189    .text.coap_option_nibble:00000000 $t
C:\Users\dtjld\AppData\Local\Temp\ccpI0fza.s:195    .text.coap_option_nibble:00000000 coap_option_nibble
C:\Users\dtjld\AppData\Local\Temp\ccpI0fza.s:251    .text.coap_set_option_header:00000000 $t
C:\Users\dtjld\AppData\Local\Temp\ccpI0fza.s:257    .text.coap_set_option_header:00000000 coap_set_option_header
C:\Users\dtjld\AppData\Local\Temp\ccpI0fza.s:383    .text.coap_serialize_int_option:00000000 $t
C:\Users\dtjld\AppData\Local\Temp\ccpI0fza.s:389    .text.coap_serialize_int_option:00000000 coap_serialize_int_option
C:\Users\dtjld\AppData\Local\Temp\ccpI0fza.s:541    .text.coap_serialize_array_option:00000000 $t
C:\Users\dtjld\AppData\Local\Temp\ccpI0fza.s:547    .text.coap_serialize_array_option:00000000 coap_serialize_array_option
C:\Users\dtjld\AppData\Local\Temp\ccpI0fza.s:708    .text.coap_serialize_multi_option:00000000 $t
C:\Users\dtjld\AppData\Local\Temp\ccpI0fza.s:714    .text.coap_serialize_multi_option:00000000 coap_serialize_multi_option
C:\Users\dtjld\AppData\Local\Temp\ccpI0fza.s:804    .text.coap_merge_multi_option:00000000 $t
C:\Users\dtjld\AppData\Local\Temp\ccpI0fza.s:810    .text.coap_merge_multi_option:00000000 coap_merge_multi_option
C:\Users\dtjld\AppData\Local\Temp\ccpI0fza.s:893    .text.coap_add_multi_option:00000000 $t
C:\Users\dtjld\AppData\Local\Temp\ccpI0fza.s:900    .text.coap_add_multi_option:00000000 coap_add_multi_option
C:\Users\dtjld\AppData\Local\Temp\ccpI0fza.s:1029   .text.free_multi_option:00000000 $t
C:\Users\dtjld\AppData\Local\Temp\ccpI0fza.s:1036   .text.free_multi_option:00000000 free_multi_option
C:\Users\dtjld\AppData\Local\Temp\ccpI0fza.s:1100   .text.coap_get_multi_option_as_string:00000000 $t
C:\Users\dtjld\AppData\Local\Temp\ccpI0fza.s:1107   .text.coap_get_multi_option_as_string:00000000 coap_get_multi_option_as_string
C:\Users\dtjld\AppData\Local\Temp\ccpI0fza.s:1229   .text.coap_get_variable:00000000 $t
C:\Users\dtjld\AppData\Local\Temp\ccpI0fza.s:1235   .text.coap_get_variable:00000000 coap_get_variable
C:\Users\dtjld\AppData\Local\Temp\ccpI0fza.s:1376   .text.coap_get_mid:00000000 $t
C:\Users\dtjld\AppData\Local\Temp\ccpI0fza.s:1383   .text.coap_get_mid:00000000 coap_get_mid
C:\Users\dtjld\AppData\Local\Temp\ccpI0fza.s:1420   .text.coap_get_mid:00000020 $d
C:\Users\dtjld\AppData\Local\Temp\ccpI0fza.s:1425   .text.coap_init_message:00000000 $t
C:\Users\dtjld\AppData\Local\Temp\ccpI0fza.s:1432   .text.coap_init_message:00000000 coap_init_message
C:\Users\dtjld\AppData\Local\Temp\ccpI0fza.s:1493   .text.coap_free_header:00000000 $t
C:\Users\dtjld\AppData\Local\Temp\ccpI0fza.s:1500   .text.coap_free_header:00000000 coap_free_header
C:\Users\dtjld\AppData\Local\Temp\ccpI0fza.s:1562   .text.coap_serialize_get_size:00000000 $t
C:\Users\dtjld\AppData\Local\Temp\ccpI0fza.s:1569   .text.coap_serialize_get_size:00000000 coap_serialize_get_size
C:\Users\dtjld\AppData\Local\Temp\ccpI0fza.s:1905   .text.coap_serialize_message:00000000 $t
C:\Users\dtjld\AppData\Local\Temp\ccpI0fza.s:1912   .text.coap_serialize_message:00000000 coap_serialize_message
C:\Users\dtjld\AppData\Local\Temp\ccpI0fza.s:2563   .text.coap_parse_message:00000000 $t
C:\Users\dtjld\AppData\Local\Temp\ccpI0fza.s:2570   .text.coap_parse_message:00000000 coap_parse_message
C:\Users\dtjld\AppData\Local\Temp\ccpI0fza.s:2876   .text.coap_parse_message:00000204 $d
C:\Users\dtjld\AppData\Local\Temp\ccpI0fza.s:2911   .text.coap_parse_message:00000290 $t
C:\Users\dtjld\AppData\Local\Temp\ccpI0fza.s:3027   .text.coap_parse_message:00000354 $d
C:\Users\dtjld\AppData\Local\Temp\ccpI0fza.s:3031   .text.coap_parse_message:0000035c $t
C:\Users\dtjld\AppData\Local\Temp\ccpI0fza.s:3271   .text.coap_parse_message:000004f8 $d
C:\Users\dtjld\AppData\Local\Temp\ccpI0fza.s:3278   .text.coap_get_query_variable:00000000 $t
C:\Users\dtjld\AppData\Local\Temp\ccpI0fza.s:3285   .text.coap_get_query_variable:00000000 coap_get_query_variable
C:\Users\dtjld\AppData\Local\Temp\ccpI0fza.s:3325   .text.coap_get_post_variable:00000000 $t
C:\Users\dtjld\AppData\Local\Temp\ccpI0fza.s:3332   .text.coap_get_post_variable:00000000 coap_get_post_variable
C:\Users\dtjld\AppData\Local\Temp\ccpI0fza.s:3389   .text.coap_set_status_code:00000000 $t
C:\Users\dtjld\AppData\Local\Temp\ccpI0fza.s:3396   .text.coap_set_status_code:00000000 coap_set_status_code
ARM GAS  C:\Users\dtjld\AppData\Local\Temp\ccpI0fza.s 			page 136


C:\Users\dtjld\AppData\Local\Temp\ccpI0fza.s:3449   .text.coap_get_header_content_type:00000000 $t
C:\Users\dtjld\AppData\Local\Temp\ccpI0fza.s:3456   .text.coap_get_header_content_type:00000000 coap_get_header_content_type
C:\Users\dtjld\AppData\Local\Temp\ccpI0fza.s:3509   .text.coap_set_header_content_type:00000000 $t
C:\Users\dtjld\AppData\Local\Temp\ccpI0fza.s:3516   .text.coap_set_header_content_type:00000000 coap_set_header_content_type
C:\Users\dtjld\AppData\Local\Temp\ccpI0fza.s:3570   .text.coap_get_header_accept:00000000 $t
C:\Users\dtjld\AppData\Local\Temp\ccpI0fza.s:3577   .text.coap_get_header_accept:00000000 coap_get_header_accept
C:\Users\dtjld\AppData\Local\Temp\ccpI0fza.s:3636   .text.coap_set_header_accept:00000000 $t
C:\Users\dtjld\AppData\Local\Temp\ccpI0fza.s:3643   .text.coap_set_header_accept:00000000 coap_set_header_accept
C:\Users\dtjld\AppData\Local\Temp\ccpI0fza.s:3716   .text.coap_get_header_max_age:00000000 $t
C:\Users\dtjld\AppData\Local\Temp\ccpI0fza.s:3723   .text.coap_get_header_max_age:00000000 coap_get_header_max_age
C:\Users\dtjld\AppData\Local\Temp\ccpI0fza.s:3783   .text.coap_set_header_max_age:00000000 $t
C:\Users\dtjld\AppData\Local\Temp\ccpI0fza.s:3790   .text.coap_set_header_max_age:00000000 coap_set_header_max_age
C:\Users\dtjld\AppData\Local\Temp\ccpI0fza.s:3843   .text.coap_get_header_etag:00000000 $t
C:\Users\dtjld\AppData\Local\Temp\ccpI0fza.s:3850   .text.coap_get_header_etag:00000000 coap_get_header_etag
C:\Users\dtjld\AppData\Local\Temp\ccpI0fza.s:3909   .text.coap_set_header_etag:00000000 $t
C:\Users\dtjld\AppData\Local\Temp\ccpI0fza.s:3916   .text.coap_set_header_etag:00000000 coap_set_header_etag
C:\Users\dtjld\AppData\Local\Temp\ccpI0fza.s:3986   .text.coap_get_header_if_match:00000000 $t
C:\Users\dtjld\AppData\Local\Temp\ccpI0fza.s:3993   .text.coap_get_header_if_match:00000000 coap_get_header_if_match
C:\Users\dtjld\AppData\Local\Temp\ccpI0fza.s:4052   .text.coap_set_header_if_match:00000000 $t
C:\Users\dtjld\AppData\Local\Temp\ccpI0fza.s:4059   .text.coap_set_header_if_match:00000000 coap_set_header_if_match
C:\Users\dtjld\AppData\Local\Temp\ccpI0fza.s:4129   .text.coap_get_header_if_none_match:00000000 $t
C:\Users\dtjld\AppData\Local\Temp\ccpI0fza.s:4136   .text.coap_get_header_if_none_match:00000000 coap_get_header_if_none_match
C:\Users\dtjld\AppData\Local\Temp\ccpI0fza.s:4177   .text.coap_set_header_if_none_match:00000000 $t
C:\Users\dtjld\AppData\Local\Temp\ccpI0fza.s:4184   .text.coap_set_header_if_none_match:00000000 coap_set_header_if_none_match
C:\Users\dtjld\AppData\Local\Temp\ccpI0fza.s:4229   .text.coap_get_header_token:00000000 $t
C:\Users\dtjld\AppData\Local\Temp\ccpI0fza.s:4236   .text.coap_get_header_token:00000000 coap_get_header_token
C:\Users\dtjld\AppData\Local\Temp\ccpI0fza.s:4295   .text.coap_set_header_token:00000000 $t
C:\Users\dtjld\AppData\Local\Temp\ccpI0fza.s:4302   .text.coap_set_header_token:00000000 coap_set_header_token
C:\Users\dtjld\AppData\Local\Temp\ccpI0fza.s:4372   .text.coap_get_header_proxy_uri:00000000 $t
C:\Users\dtjld\AppData\Local\Temp\ccpI0fza.s:4379   .text.coap_get_header_proxy_uri:00000000 coap_get_header_proxy_uri
C:\Users\dtjld\AppData\Local\Temp\ccpI0fza.s:4438   .text.coap_set_header_proxy_uri:00000000 $t
C:\Users\dtjld\AppData\Local\Temp\ccpI0fza.s:4445   .text.coap_set_header_proxy_uri:00000000 coap_set_header_proxy_uri
C:\Users\dtjld\AppData\Local\Temp\ccpI0fza.s:4501   .text.coap_get_header_uri_host:00000000 $t
C:\Users\dtjld\AppData\Local\Temp\ccpI0fza.s:4508   .text.coap_get_header_uri_host:00000000 coap_get_header_uri_host
C:\Users\dtjld\AppData\Local\Temp\ccpI0fza.s:4567   .text.coap_set_header_uri_host:00000000 $t
C:\Users\dtjld\AppData\Local\Temp\ccpI0fza.s:4574   .text.coap_set_header_uri_host:00000000 coap_set_header_uri_host
C:\Users\dtjld\AppData\Local\Temp\ccpI0fza.s:4630   .text.coap_get_header_uri_path:00000000 $t
C:\Users\dtjld\AppData\Local\Temp\ccpI0fza.s:4637   .text.coap_get_header_uri_path:00000000 coap_get_header_uri_path
C:\Users\dtjld\AppData\Local\Temp\ccpI0fza.s:4694   .text.coap_set_header_uri_path:00000000 $t
C:\Users\dtjld\AppData\Local\Temp\ccpI0fza.s:4701   .text.coap_set_header_uri_path:00000000 coap_set_header_uri_path
C:\Users\dtjld\AppData\Local\Temp\ccpI0fza.s:4830   .text.coap_set_header_uri_path_segment:00000000 $t
C:\Users\dtjld\AppData\Local\Temp\ccpI0fza.s:4837   .text.coap_set_header_uri_path_segment:00000000 coap_set_header_uri_path_segment
C:\Users\dtjld\AppData\Local\Temp\ccpI0fza.s:4917   .text.coap_get_header_uri_query:00000000 $t
C:\Users\dtjld\AppData\Local\Temp\ccpI0fza.s:4924   .text.coap_get_header_uri_query:00000000 coap_get_header_uri_query
C:\Users\dtjld\AppData\Local\Temp\ccpI0fza.s:4981   .text.coap_set_header_uri_query:00000000 $t
C:\Users\dtjld\AppData\Local\Temp\ccpI0fza.s:4988   .text.coap_set_header_uri_query:00000000 coap_set_header_uri_query
C:\Users\dtjld\AppData\Local\Temp\ccpI0fza.s:5117   .text.coap_get_header_location_path:00000000 $t
C:\Users\dtjld\AppData\Local\Temp\ccpI0fza.s:5124   .text.coap_get_header_location_path:00000000 coap_get_header_location_path
C:\Users\dtjld\AppData\Local\Temp\ccpI0fza.s:5181   .text.coap_set_header_location_path:00000000 $t
C:\Users\dtjld\AppData\Local\Temp\ccpI0fza.s:5188   .text.coap_set_header_location_path:00000000 coap_set_header_location_path
C:\Users\dtjld\AppData\Local\Temp\ccpI0fza.s:5317   .text.coap_get_header_location_query:00000000 $t
C:\Users\dtjld\AppData\Local\Temp\ccpI0fza.s:5324   .text.coap_get_header_location_query:00000000 coap_get_header_location_query
C:\Users\dtjld\AppData\Local\Temp\ccpI0fza.s:5383   .text.coap_set_header_location_query:00000000 $t
C:\Users\dtjld\AppData\Local\Temp\ccpI0fza.s:5390   .text.coap_set_header_location_query:00000000 coap_set_header_location_query
C:\Users\dtjld\AppData\Local\Temp\ccpI0fza.s:5459   .text.coap_get_header_observe:00000000 $t
C:\Users\dtjld\AppData\Local\Temp\ccpI0fza.s:5466   .text.coap_get_header_observe:00000000 coap_get_header_observe
C:\Users\dtjld\AppData\Local\Temp\ccpI0fza.s:5524   .text.coap_set_header_observe:00000000 $t
ARM GAS  C:\Users\dtjld\AppData\Local\Temp\ccpI0fza.s 			page 137


C:\Users\dtjld\AppData\Local\Temp\ccpI0fza.s:5531   .text.coap_set_header_observe:00000000 coap_set_header_observe
C:\Users\dtjld\AppData\Local\Temp\ccpI0fza.s:5585   .text.coap_get_header_block2:00000000 $t
C:\Users\dtjld\AppData\Local\Temp\ccpI0fza.s:5592   .text.coap_get_header_block2:00000000 coap_get_header_block2
C:\Users\dtjld\AppData\Local\Temp\ccpI0fza.s:5687   .text.coap_set_header_block2:00000000 $t
C:\Users\dtjld\AppData\Local\Temp\ccpI0fza.s:5694   .text.coap_set_header_block2:00000000 coap_set_header_block2
C:\Users\dtjld\AppData\Local\Temp\ccpI0fza.s:5792   .text.coap_get_header_block1:00000000 $t
C:\Users\dtjld\AppData\Local\Temp\ccpI0fza.s:5799   .text.coap_get_header_block1:00000000 coap_get_header_block1
C:\Users\dtjld\AppData\Local\Temp\ccpI0fza.s:5894   .text.coap_set_header_block1:00000000 $t
C:\Users\dtjld\AppData\Local\Temp\ccpI0fza.s:5901   .text.coap_set_header_block1:00000000 coap_set_header_block1
C:\Users\dtjld\AppData\Local\Temp\ccpI0fza.s:5993   .text.coap_get_header_size:00000000 $t
C:\Users\dtjld\AppData\Local\Temp\ccpI0fza.s:6000   .text.coap_get_header_size:00000000 coap_get_header_size
C:\Users\dtjld\AppData\Local\Temp\ccpI0fza.s:6058   .text.coap_set_header_size:00000000 $t
C:\Users\dtjld\AppData\Local\Temp\ccpI0fza.s:6065   .text.coap_set_header_size:00000000 coap_set_header_size
C:\Users\dtjld\AppData\Local\Temp\ccpI0fza.s:6118   .text.coap_get_payload:00000000 $t
C:\Users\dtjld\AppData\Local\Temp\ccpI0fza.s:6125   .text.coap_get_payload:00000000 coap_get_payload
C:\Users\dtjld\AppData\Local\Temp\ccpI0fza.s:6187   .text.coap_set_payload:00000000 $t
C:\Users\dtjld\AppData\Local\Temp\ccpI0fza.s:6194   .text.coap_set_payload:00000000 coap_set_payload

UNDEFINED SYMBOLS
memcpy
memmove
lwm2m_malloc
lwm2m_free
strlen
strncmp
memchr
memset
