ARM GAS  C:\Users\dtjld\AppData\Local\Temp\ccpI0fza.s 			page 1


   1              		.cpu cortex-m4
   2              		.eabi_attribute 27, 1
   3              		.eabi_attribute 28, 1
   4              		.eabi_attribute 20, 1
   5              		.eabi_attribute 21, 1
   6              		.eabi_attribute 23, 3
   7              		.eabi_attribute 24, 1
   8              		.eabi_attribute 25, 1
   9              		.eabi_attribute 26, 1
  10              		.eabi_attribute 30, 6
  11              		.eabi_attribute 34, 1
  12              		.eabi_attribute 18, 4
  13              		.file	"er-coap-13.c"
  14              		.text
  15              	.Ltext0:
  16              		.cfi_sections	.debug_frame
  17              		.section	.bss.current_mid,"aw",%nobits
  18              		.align	1
  21              	current_mid:
  22 0000 0000     		.space	2
  23              		.global	coap_error_code
  24              		.section	.bss.coap_error_code,"aw",%nobits
  27              	coap_error_code:
  28 0000 00       		.space	1
  29              		.global	coap_error_message
  30              		.section	.rodata
  31              		.align	2
  32              	.LC0:
  33 0000 00       		.ascii	"\000"
  34              		.section	.data.coap_error_message,"aw",%progbits
  35              		.align	2
  38              	coap_error_message:
  39 0000 00000000 		.word	.LC0
  40              		.section	.text.coap_log_2,"ax",%progbits
  41              		.align	1
  42              		.syntax unified
  43              		.thumb
  44              		.thumb_func
  45              		.fpu fpv4-sp-d16
  47              	coap_log_2:
  48              	.LFB4:
  49              		.file 1 "C:/Users/dtjld/Desktop/AIoT_software/LiteOS_Lab_overseas/LiteOS_Lab/iot_link/network/lwm2
   1:C:/Users/dtjld/Desktop/AIoT_software/LiteOS_Lab_overseas/LiteOS_Lab/iot_link/network/lwm2m/wakaama_lwm2m/core/er-coap-13\er-coap-13.c **** /*----------------------------------------------------------------------------
   2:C:/Users/dtjld/Desktop/AIoT_software/LiteOS_Lab_overseas/LiteOS_Lab/iot_link/network/lwm2m/wakaama_lwm2m/core/er-coap-13\er-coap-13.c ****  * Copyright (c) <2016-2018>, <Huawei Technologies Co., Ltd>
   3:C:/Users/dtjld/Desktop/AIoT_software/LiteOS_Lab_overseas/LiteOS_Lab/iot_link/network/lwm2m/wakaama_lwm2m/core/er-coap-13\er-coap-13.c ****  * All rights reserved.
   4:C:/Users/dtjld/Desktop/AIoT_software/LiteOS_Lab_overseas/LiteOS_Lab/iot_link/network/lwm2m/wakaama_lwm2m/core/er-coap-13\er-coap-13.c ****  * Redistribution and use in source and binary forms, with or without modification,
   5:C:/Users/dtjld/Desktop/AIoT_software/LiteOS_Lab_overseas/LiteOS_Lab/iot_link/network/lwm2m/wakaama_lwm2m/core/er-coap-13\er-coap-13.c ****  * are permitted provided that the following conditions are met:
   6:C:/Users/dtjld/Desktop/AIoT_software/LiteOS_Lab_overseas/LiteOS_Lab/iot_link/network/lwm2m/wakaama_lwm2m/core/er-coap-13\er-coap-13.c ****  * 1. Redistributions of source code must retain the above copyright notice, this list of
   7:C:/Users/dtjld/Desktop/AIoT_software/LiteOS_Lab_overseas/LiteOS_Lab/iot_link/network/lwm2m/wakaama_lwm2m/core/er-coap-13\er-coap-13.c ****  * conditions and the following disclaimer.
   8:C:/Users/dtjld/Desktop/AIoT_software/LiteOS_Lab_overseas/LiteOS_Lab/iot_link/network/lwm2m/wakaama_lwm2m/core/er-coap-13\er-coap-13.c ****  * 2. Redistributions in binary form must reproduce the above copyright notice, this list
   9:C:/Users/dtjld/Desktop/AIoT_software/LiteOS_Lab_overseas/LiteOS_Lab/iot_link/network/lwm2m/wakaama_lwm2m/core/er-coap-13\er-coap-13.c ****  * of conditions and the following disclaimer in the documentation and/or other materials
  10:C:/Users/dtjld/Desktop/AIoT_software/LiteOS_Lab_overseas/LiteOS_Lab/iot_link/network/lwm2m/wakaama_lwm2m/core/er-coap-13\er-coap-13.c ****  * provided with the distribution.
  11:C:/Users/dtjld/Desktop/AIoT_software/LiteOS_Lab_overseas/LiteOS_Lab/iot_link/network/lwm2m/wakaama_lwm2m/core/er-coap-13\er-coap-13.c ****  * 3. Neither the name of the copyright holder nor the names of its contributors may be used
  12:C:/Users/dtjld/Desktop/AIoT_software/LiteOS_Lab_overseas/LiteOS_Lab/iot_link/network/lwm2m/wakaama_lwm2m/core/er-coap-13\er-coap-13.c ****  * to endorse or promote products derived from this software without specific prior written
  13:C:/Users/dtjld/Desktop/AIoT_software/LiteOS_Lab_overseas/LiteOS_Lab/iot_link/network/lwm2m/wakaama_lwm2m/core/er-coap-13\er-coap-13.c ****  * permission.
  14:C:/Users/dtjld/Desktop/AIoT_software/LiteOS_Lab_overseas/LiteOS_Lab/iot_link/network/lwm2m/wakaama_lwm2m/core/er-coap-13\er-coap-13.c ****  * THIS SOFTWARE IS PROVIDED BY THE COPYRIGHT HOLDERS AND CONTRIBUTORS
  15:C:/Users/dtjld/Desktop/AIoT_software/LiteOS_Lab_overseas/LiteOS_Lab/iot_link/network/lwm2m/wakaama_lwm2m/core/er-coap-13\er-coap-13.c ****  * "AS IS" AND ANY EXPRESS OR IMPLIED WARRANTIES, INCLUDING, BUT NOT LIMITED TO,
ARM GAS  C:\Users\dtjld\AppData\Local\Temp\ccpI0fza.s 			page 2


  16:C:/Users/dtjld/Desktop/AIoT_software/LiteOS_Lab_overseas/LiteOS_Lab/iot_link/network/lwm2m/wakaama_lwm2m/core/er-coap-13\er-coap-13.c ****  * THE IMPLIED WARRANTIES OF MERCHANTABILITY AND FITNESS FOR A PARTICULAR
  17:C:/Users/dtjld/Desktop/AIoT_software/LiteOS_Lab_overseas/LiteOS_Lab/iot_link/network/lwm2m/wakaama_lwm2m/core/er-coap-13\er-coap-13.c ****  * PURPOSE ARE DISCLAIMED. IN NO EVENT SHALL THE COPYRIGHT HOLDER OR
  18:C:/Users/dtjld/Desktop/AIoT_software/LiteOS_Lab_overseas/LiteOS_Lab/iot_link/network/lwm2m/wakaama_lwm2m/core/er-coap-13\er-coap-13.c ****  * CONTRIBUTORS BE LIABLE FOR ANY DIRECT, INDIRECT, INCIDENTAL, SPECIAL,
  19:C:/Users/dtjld/Desktop/AIoT_software/LiteOS_Lab_overseas/LiteOS_Lab/iot_link/network/lwm2m/wakaama_lwm2m/core/er-coap-13\er-coap-13.c ****  * EXEMPLARY, OR CONSEQUENTIAL DAMAGES (INCLUDING, BUT NOT LIMITED TO,
  20:C:/Users/dtjld/Desktop/AIoT_software/LiteOS_Lab_overseas/LiteOS_Lab/iot_link/network/lwm2m/wakaama_lwm2m/core/er-coap-13\er-coap-13.c ****  * PROCUREMENT OF SUBSTITUTE GOODS OR SERVICES; LOSS OF USE, DATA, OR PROFITS;
  21:C:/Users/dtjld/Desktop/AIoT_software/LiteOS_Lab_overseas/LiteOS_Lab/iot_link/network/lwm2m/wakaama_lwm2m/core/er-coap-13\er-coap-13.c ****  * OR BUSINESS INTERRUPTION) HOWEVER CAUSED AND ON ANY THEORY OF LIABILITY,
  22:C:/Users/dtjld/Desktop/AIoT_software/LiteOS_Lab_overseas/LiteOS_Lab/iot_link/network/lwm2m/wakaama_lwm2m/core/er-coap-13\er-coap-13.c ****  * WHETHER IN CONTRACT, STRICT LIABILITY, OR TORT (INCLUDING NEGLIGENCE OR
  23:C:/Users/dtjld/Desktop/AIoT_software/LiteOS_Lab_overseas/LiteOS_Lab/iot_link/network/lwm2m/wakaama_lwm2m/core/er-coap-13\er-coap-13.c ****  * OTHERWISE) ARISING IN ANY WAY OUT OF THE USE OF THIS SOFTWARE, EVEN IF
  24:C:/Users/dtjld/Desktop/AIoT_software/LiteOS_Lab_overseas/LiteOS_Lab/iot_link/network/lwm2m/wakaama_lwm2m/core/er-coap-13\er-coap-13.c ****  * ADVISED OF THE POSSIBILITY OF SUCH DAMAGE.
  25:C:/Users/dtjld/Desktop/AIoT_software/LiteOS_Lab_overseas/LiteOS_Lab/iot_link/network/lwm2m/wakaama_lwm2m/core/er-coap-13\er-coap-13.c ****  *---------------------------------------------------------------------------*/
  26:C:/Users/dtjld/Desktop/AIoT_software/LiteOS_Lab_overseas/LiteOS_Lab/iot_link/network/lwm2m/wakaama_lwm2m/core/er-coap-13\er-coap-13.c **** /*----------------------------------------------------------------------------
  27:C:/Users/dtjld/Desktop/AIoT_software/LiteOS_Lab_overseas/LiteOS_Lab/iot_link/network/lwm2m/wakaama_lwm2m/core/er-coap-13\er-coap-13.c ****  * Notice of Export Control Law
  28:C:/Users/dtjld/Desktop/AIoT_software/LiteOS_Lab_overseas/LiteOS_Lab/iot_link/network/lwm2m/wakaama_lwm2m/core/er-coap-13\er-coap-13.c ****  * ===============================================
  29:C:/Users/dtjld/Desktop/AIoT_software/LiteOS_Lab_overseas/LiteOS_Lab/iot_link/network/lwm2m/wakaama_lwm2m/core/er-coap-13\er-coap-13.c ****  * Huawei LiteOS may be subject to applicable export control laws and regulations, which might
  30:C:/Users/dtjld/Desktop/AIoT_software/LiteOS_Lab_overseas/LiteOS_Lab/iot_link/network/lwm2m/wakaama_lwm2m/core/er-coap-13\er-coap-13.c ****  * include those applicable to Huawei LiteOS of U.S. and the country in which you are located.
  31:C:/Users/dtjld/Desktop/AIoT_software/LiteOS_Lab_overseas/LiteOS_Lab/iot_link/network/lwm2m/wakaama_lwm2m/core/er-coap-13\er-coap-13.c ****  * Import, export and usage of Huawei LiteOS in any manner by you shall be in compliance with such
  32:C:/Users/dtjld/Desktop/AIoT_software/LiteOS_Lab_overseas/LiteOS_Lab/iot_link/network/lwm2m/wakaama_lwm2m/core/er-coap-13\er-coap-13.c ****  * applicable export control laws and regulations.
  33:C:/Users/dtjld/Desktop/AIoT_software/LiteOS_Lab_overseas/LiteOS_Lab/iot_link/network/lwm2m/wakaama_lwm2m/core/er-coap-13\er-coap-13.c ****  *---------------------------------------------------------------------------*/
  34:C:/Users/dtjld/Desktop/AIoT_software/LiteOS_Lab_overseas/LiteOS_Lab/iot_link/network/lwm2m/wakaama_lwm2m/core/er-coap-13\er-coap-13.c **** 
  35:C:/Users/dtjld/Desktop/AIoT_software/LiteOS_Lab_overseas/LiteOS_Lab/iot_link/network/lwm2m/wakaama_lwm2m/core/er-coap-13\er-coap-13.c **** /*
  36:C:/Users/dtjld/Desktop/AIoT_software/LiteOS_Lab_overseas/LiteOS_Lab/iot_link/network/lwm2m/wakaama_lwm2m/core/er-coap-13\er-coap-13.c ****  * Copyright (c) 2013, Institute for Pervasive Computing, ETH Zurich
  37:C:/Users/dtjld/Desktop/AIoT_software/LiteOS_Lab_overseas/LiteOS_Lab/iot_link/network/lwm2m/wakaama_lwm2m/core/er-coap-13\er-coap-13.c ****  * All rights reserved.
  38:C:/Users/dtjld/Desktop/AIoT_software/LiteOS_Lab_overseas/LiteOS_Lab/iot_link/network/lwm2m/wakaama_lwm2m/core/er-coap-13\er-coap-13.c ****  *
  39:C:/Users/dtjld/Desktop/AIoT_software/LiteOS_Lab_overseas/LiteOS_Lab/iot_link/network/lwm2m/wakaama_lwm2m/core/er-coap-13\er-coap-13.c ****  * Redistribution and use in source and binary forms, with or without
  40:C:/Users/dtjld/Desktop/AIoT_software/LiteOS_Lab_overseas/LiteOS_Lab/iot_link/network/lwm2m/wakaama_lwm2m/core/er-coap-13\er-coap-13.c ****  * modification, are permitted provided that the following conditions
  41:C:/Users/dtjld/Desktop/AIoT_software/LiteOS_Lab_overseas/LiteOS_Lab/iot_link/network/lwm2m/wakaama_lwm2m/core/er-coap-13\er-coap-13.c ****  * are met:
  42:C:/Users/dtjld/Desktop/AIoT_software/LiteOS_Lab_overseas/LiteOS_Lab/iot_link/network/lwm2m/wakaama_lwm2m/core/er-coap-13\er-coap-13.c ****  * 1. Redistributions of source code must retain the above copyright
  43:C:/Users/dtjld/Desktop/AIoT_software/LiteOS_Lab_overseas/LiteOS_Lab/iot_link/network/lwm2m/wakaama_lwm2m/core/er-coap-13\er-coap-13.c ****  *    notice, this list of conditions and the following disclaimer.
  44:C:/Users/dtjld/Desktop/AIoT_software/LiteOS_Lab_overseas/LiteOS_Lab/iot_link/network/lwm2m/wakaama_lwm2m/core/er-coap-13\er-coap-13.c ****  * 2. Redistributions in binary form must reproduce the above copyright
  45:C:/Users/dtjld/Desktop/AIoT_software/LiteOS_Lab_overseas/LiteOS_Lab/iot_link/network/lwm2m/wakaama_lwm2m/core/er-coap-13\er-coap-13.c ****  *    notice, this list of conditions and the following disclaimer in the
  46:C:/Users/dtjld/Desktop/AIoT_software/LiteOS_Lab_overseas/LiteOS_Lab/iot_link/network/lwm2m/wakaama_lwm2m/core/er-coap-13\er-coap-13.c ****  *    documentation and/or other materials provided with the distribution.
  47:C:/Users/dtjld/Desktop/AIoT_software/LiteOS_Lab_overseas/LiteOS_Lab/iot_link/network/lwm2m/wakaama_lwm2m/core/er-coap-13\er-coap-13.c ****  * 3. Neither the name of the Institute nor the names of its contributors
  48:C:/Users/dtjld/Desktop/AIoT_software/LiteOS_Lab_overseas/LiteOS_Lab/iot_link/network/lwm2m/wakaama_lwm2m/core/er-coap-13\er-coap-13.c ****  *    may be used to endorse or promote products derived from this software
  49:C:/Users/dtjld/Desktop/AIoT_software/LiteOS_Lab_overseas/LiteOS_Lab/iot_link/network/lwm2m/wakaama_lwm2m/core/er-coap-13\er-coap-13.c ****  *    without specific prior written permission.
  50:C:/Users/dtjld/Desktop/AIoT_software/LiteOS_Lab_overseas/LiteOS_Lab/iot_link/network/lwm2m/wakaama_lwm2m/core/er-coap-13\er-coap-13.c ****  *
  51:C:/Users/dtjld/Desktop/AIoT_software/LiteOS_Lab_overseas/LiteOS_Lab/iot_link/network/lwm2m/wakaama_lwm2m/core/er-coap-13\er-coap-13.c ****  * THIS SOFTWARE IS PROVIDED BY THE INSTITUTE AND CONTRIBUTORS ``AS IS'' AND
  52:C:/Users/dtjld/Desktop/AIoT_software/LiteOS_Lab_overseas/LiteOS_Lab/iot_link/network/lwm2m/wakaama_lwm2m/core/er-coap-13\er-coap-13.c ****  * ANY EXPRESS OR IMPLIED WARRANTIES, INCLUDING, BUT NOT LIMITED TO, THE
  53:C:/Users/dtjld/Desktop/AIoT_software/LiteOS_Lab_overseas/LiteOS_Lab/iot_link/network/lwm2m/wakaama_lwm2m/core/er-coap-13\er-coap-13.c ****  * IMPLIED WARRANTIES OF MERCHANTABILITY AND FITNESS FOR A PARTICULAR PURPOSE
  54:C:/Users/dtjld/Desktop/AIoT_software/LiteOS_Lab_overseas/LiteOS_Lab/iot_link/network/lwm2m/wakaama_lwm2m/core/er-coap-13\er-coap-13.c ****  * ARE DISCLAIMED.  IN NO EVENT SHALL THE INSTITUTE OR CONTRIBUTORS BE LIABLE
  55:C:/Users/dtjld/Desktop/AIoT_software/LiteOS_Lab_overseas/LiteOS_Lab/iot_link/network/lwm2m/wakaama_lwm2m/core/er-coap-13\er-coap-13.c ****  * FOR ANY DIRECT, INDIRECT, INCIDENTAL, SPECIAL, EXEMPLARY, OR CONSEQUENTIAL
  56:C:/Users/dtjld/Desktop/AIoT_software/LiteOS_Lab_overseas/LiteOS_Lab/iot_link/network/lwm2m/wakaama_lwm2m/core/er-coap-13\er-coap-13.c ****  * DAMAGES (INCLUDING, BUT NOT LIMITED TO, PROCUREMENT OF SUBSTITUTE GOODS
  57:C:/Users/dtjld/Desktop/AIoT_software/LiteOS_Lab_overseas/LiteOS_Lab/iot_link/network/lwm2m/wakaama_lwm2m/core/er-coap-13\er-coap-13.c ****  * OR SERVICES; LOSS OF USE, DATA, OR PROFITS; OR BUSINESS INTERRUPTION)
  58:C:/Users/dtjld/Desktop/AIoT_software/LiteOS_Lab_overseas/LiteOS_Lab/iot_link/network/lwm2m/wakaama_lwm2m/core/er-coap-13\er-coap-13.c ****  * HOWEVER CAUSED AND ON ANY THEORY OF LIABILITY, WHETHER IN CONTRACT, STRICT
  59:C:/Users/dtjld/Desktop/AIoT_software/LiteOS_Lab_overseas/LiteOS_Lab/iot_link/network/lwm2m/wakaama_lwm2m/core/er-coap-13\er-coap-13.c ****  * LIABILITY, OR TORT (INCLUDING NEGLIGENCE OR OTHERWISE) ARISING IN ANY WAY
  60:C:/Users/dtjld/Desktop/AIoT_software/LiteOS_Lab_overseas/LiteOS_Lab/iot_link/network/lwm2m/wakaama_lwm2m/core/er-coap-13\er-coap-13.c ****  * OUT OF THE USE OF THIS SOFTWARE, EVEN IF ADVISED OF THE POSSIBILITY OF
  61:C:/Users/dtjld/Desktop/AIoT_software/LiteOS_Lab_overseas/LiteOS_Lab/iot_link/network/lwm2m/wakaama_lwm2m/core/er-coap-13\er-coap-13.c ****  * SUCH DAMAGE.
  62:C:/Users/dtjld/Desktop/AIoT_software/LiteOS_Lab_overseas/LiteOS_Lab/iot_link/network/lwm2m/wakaama_lwm2m/core/er-coap-13\er-coap-13.c ****  *
  63:C:/Users/dtjld/Desktop/AIoT_software/LiteOS_Lab_overseas/LiteOS_Lab/iot_link/network/lwm2m/wakaama_lwm2m/core/er-coap-13\er-coap-13.c ****  * This file is part of the Contiki operating system.
  64:C:/Users/dtjld/Desktop/AIoT_software/LiteOS_Lab_overseas/LiteOS_Lab/iot_link/network/lwm2m/wakaama_lwm2m/core/er-coap-13\er-coap-13.c ****  */
  65:C:/Users/dtjld/Desktop/AIoT_software/LiteOS_Lab_overseas/LiteOS_Lab/iot_link/network/lwm2m/wakaama_lwm2m/core/er-coap-13\er-coap-13.c **** 
  66:C:/Users/dtjld/Desktop/AIoT_software/LiteOS_Lab_overseas/LiteOS_Lab/iot_link/network/lwm2m/wakaama_lwm2m/core/er-coap-13\er-coap-13.c **** /**
  67:C:/Users/dtjld/Desktop/AIoT_software/LiteOS_Lab_overseas/LiteOS_Lab/iot_link/network/lwm2m/wakaama_lwm2m/core/er-coap-13\er-coap-13.c ****  * \file
  68:C:/Users/dtjld/Desktop/AIoT_software/LiteOS_Lab_overseas/LiteOS_Lab/iot_link/network/lwm2m/wakaama_lwm2m/core/er-coap-13\er-coap-13.c ****  *      An implementation of the Constrained Application Protocol (draft 12)
  69:C:/Users/dtjld/Desktop/AIoT_software/LiteOS_Lab_overseas/LiteOS_Lab/iot_link/network/lwm2m/wakaama_lwm2m/core/er-coap-13\er-coap-13.c ****  * \author
  70:C:/Users/dtjld/Desktop/AIoT_software/LiteOS_Lab_overseas/LiteOS_Lab/iot_link/network/lwm2m/wakaama_lwm2m/core/er-coap-13\er-coap-13.c ****  *      Matthias Kovatsch <kovatsch@inf.ethz.ch>
  71:C:/Users/dtjld/Desktop/AIoT_software/LiteOS_Lab_overseas/LiteOS_Lab/iot_link/network/lwm2m/wakaama_lwm2m/core/er-coap-13\er-coap-13.c ****  * \contributors
  72:C:/Users/dtjld/Desktop/AIoT_software/LiteOS_Lab_overseas/LiteOS_Lab/iot_link/network/lwm2m/wakaama_lwm2m/core/er-coap-13\er-coap-13.c ****  *    David Navarro, Intel Corporation - Adapt to usage in liblwm2m
ARM GAS  C:\Users\dtjld\AppData\Local\Temp\ccpI0fza.s 			page 3


  73:C:/Users/dtjld/Desktop/AIoT_software/LiteOS_Lab_overseas/LiteOS_Lab/iot_link/network/lwm2m/wakaama_lwm2m/core/er-coap-13\er-coap-13.c ****  */
  74:C:/Users/dtjld/Desktop/AIoT_software/LiteOS_Lab_overseas/LiteOS_Lab/iot_link/network/lwm2m/wakaama_lwm2m/core/er-coap-13\er-coap-13.c **** 
  75:C:/Users/dtjld/Desktop/AIoT_software/LiteOS_Lab_overseas/LiteOS_Lab/iot_link/network/lwm2m/wakaama_lwm2m/core/er-coap-13\er-coap-13.c **** 
  76:C:/Users/dtjld/Desktop/AIoT_software/LiteOS_Lab_overseas/LiteOS_Lab/iot_link/network/lwm2m/wakaama_lwm2m/core/er-coap-13\er-coap-13.c **** #include <stdlib.h>
  77:C:/Users/dtjld/Desktop/AIoT_software/LiteOS_Lab_overseas/LiteOS_Lab/iot_link/network/lwm2m/wakaama_lwm2m/core/er-coap-13\er-coap-13.c **** 
  78:C:/Users/dtjld/Desktop/AIoT_software/LiteOS_Lab_overseas/LiteOS_Lab/iot_link/network/lwm2m/wakaama_lwm2m/core/er-coap-13\er-coap-13.c **** #include <string.h>
  79:C:/Users/dtjld/Desktop/AIoT_software/LiteOS_Lab_overseas/LiteOS_Lab/iot_link/network/lwm2m/wakaama_lwm2m/core/er-coap-13\er-coap-13.c **** #include <stdio.h>
  80:C:/Users/dtjld/Desktop/AIoT_software/LiteOS_Lab_overseas/LiteOS_Lab/iot_link/network/lwm2m/wakaama_lwm2m/core/er-coap-13\er-coap-13.c **** 
  81:C:/Users/dtjld/Desktop/AIoT_software/LiteOS_Lab_overseas/LiteOS_Lab/iot_link/network/lwm2m/wakaama_lwm2m/core/er-coap-13\er-coap-13.c **** #include "er-coap-13.h"
  82:C:/Users/dtjld/Desktop/AIoT_software/LiteOS_Lab_overseas/LiteOS_Lab/iot_link/network/lwm2m/wakaama_lwm2m/core/er-coap-13\er-coap-13.c **** #include "internals.h"
  83:C:/Users/dtjld/Desktop/AIoT_software/LiteOS_Lab_overseas/LiteOS_Lab/iot_link/network/lwm2m/wakaama_lwm2m/core/er-coap-13\er-coap-13.c **** #include "liblwm2m.h" /* for lwm2m_malloc() and lwm2m_free() */
  84:C:/Users/dtjld/Desktop/AIoT_software/LiteOS_Lab_overseas/LiteOS_Lab/iot_link/network/lwm2m/wakaama_lwm2m/core/er-coap-13\er-coap-13.c **** 
  85:C:/Users/dtjld/Desktop/AIoT_software/LiteOS_Lab_overseas/LiteOS_Lab/iot_link/network/lwm2m/wakaama_lwm2m/core/er-coap-13\er-coap-13.c **** #define DEBUG 0
  86:C:/Users/dtjld/Desktop/AIoT_software/LiteOS_Lab_overseas/LiteOS_Lab/iot_link/network/lwm2m/wakaama_lwm2m/core/er-coap-13\er-coap-13.c **** #if DEBUG
  87:C:/Users/dtjld/Desktop/AIoT_software/LiteOS_Lab_overseas/LiteOS_Lab/iot_link/network/lwm2m/wakaama_lwm2m/core/er-coap-13\er-coap-13.c **** #include <stdio.h>
  88:C:/Users/dtjld/Desktop/AIoT_software/LiteOS_Lab_overseas/LiteOS_Lab/iot_link/network/lwm2m/wakaama_lwm2m/core/er-coap-13\er-coap-13.c **** #define PRINTF(...) printf(__VA_ARGS__)
  89:C:/Users/dtjld/Desktop/AIoT_software/LiteOS_Lab_overseas/LiteOS_Lab/iot_link/network/lwm2m/wakaama_lwm2m/core/er-coap-13\er-coap-13.c **** #define PRINT6ADDR(addr) PRINTF("[%02x%02x:%02x%02x:%02x%02x:%02x%02x:%02x%02x:%02x%02x:%02x%02x:%0
  90:C:/Users/dtjld/Desktop/AIoT_software/LiteOS_Lab_overseas/LiteOS_Lab/iot_link/network/lwm2m/wakaama_lwm2m/core/er-coap-13\er-coap-13.c **** #define PRINTLLADDR(lladdr) PRINTF("[%02x:%02x:%02x:%02x:%02x:%02x]",(lladdr)->addr[0], (lladdr)->a
  91:C:/Users/dtjld/Desktop/AIoT_software/LiteOS_Lab_overseas/LiteOS_Lab/iot_link/network/lwm2m/wakaama_lwm2m/core/er-coap-13\er-coap-13.c **** #else
  92:C:/Users/dtjld/Desktop/AIoT_software/LiteOS_Lab_overseas/LiteOS_Lab/iot_link/network/lwm2m/wakaama_lwm2m/core/er-coap-13\er-coap-13.c **** #define PRINTF(...)
  93:C:/Users/dtjld/Desktop/AIoT_software/LiteOS_Lab_overseas/LiteOS_Lab/iot_link/network/lwm2m/wakaama_lwm2m/core/er-coap-13\er-coap-13.c **** #define PRINT6ADDR(addr)
  94:C:/Users/dtjld/Desktop/AIoT_software/LiteOS_Lab_overseas/LiteOS_Lab/iot_link/network/lwm2m/wakaama_lwm2m/core/er-coap-13\er-coap-13.c **** #define PRINTLLADDR(addr)
  95:C:/Users/dtjld/Desktop/AIoT_software/LiteOS_Lab_overseas/LiteOS_Lab/iot_link/network/lwm2m/wakaama_lwm2m/core/er-coap-13\er-coap-13.c **** #endif
  96:C:/Users/dtjld/Desktop/AIoT_software/LiteOS_Lab_overseas/LiteOS_Lab/iot_link/network/lwm2m/wakaama_lwm2m/core/er-coap-13\er-coap-13.c **** 
  97:C:/Users/dtjld/Desktop/AIoT_software/LiteOS_Lab_overseas/LiteOS_Lab/iot_link/network/lwm2m/wakaama_lwm2m/core/er-coap-13\er-coap-13.c **** /*-----------------------------------------------------------------------------------*/
  98:C:/Users/dtjld/Desktop/AIoT_software/LiteOS_Lab_overseas/LiteOS_Lab/iot_link/network/lwm2m/wakaama_lwm2m/core/er-coap-13\er-coap-13.c **** /*- Variables -----------------------------------------------------------------------*/
  99:C:/Users/dtjld/Desktop/AIoT_software/LiteOS_Lab_overseas/LiteOS_Lab/iot_link/network/lwm2m/wakaama_lwm2m/core/er-coap-13\er-coap-13.c **** /*-----------------------------------------------------------------------------------*/
 100:C:/Users/dtjld/Desktop/AIoT_software/LiteOS_Lab_overseas/LiteOS_Lab/iot_link/network/lwm2m/wakaama_lwm2m/core/er-coap-13\er-coap-13.c **** static uint16_t current_mid = 0;
 101:C:/Users/dtjld/Desktop/AIoT_software/LiteOS_Lab_overseas/LiteOS_Lab/iot_link/network/lwm2m/wakaama_lwm2m/core/er-coap-13\er-coap-13.c **** 
 102:C:/Users/dtjld/Desktop/AIoT_software/LiteOS_Lab_overseas/LiteOS_Lab/iot_link/network/lwm2m/wakaama_lwm2m/core/er-coap-13\er-coap-13.c **** coap_status_t coap_error_code = NO_ERROR;
 103:C:/Users/dtjld/Desktop/AIoT_software/LiteOS_Lab_overseas/LiteOS_Lab/iot_link/network/lwm2m/wakaama_lwm2m/core/er-coap-13\er-coap-13.c **** const char *coap_error_message = "";
 104:C:/Users/dtjld/Desktop/AIoT_software/LiteOS_Lab_overseas/LiteOS_Lab/iot_link/network/lwm2m/wakaama_lwm2m/core/er-coap-13\er-coap-13.c **** /*-----------------------------------------------------------------------------------*/
 105:C:/Users/dtjld/Desktop/AIoT_software/LiteOS_Lab_overseas/LiteOS_Lab/iot_link/network/lwm2m/wakaama_lwm2m/core/er-coap-13\er-coap-13.c **** /*- LOCAL HELP FUNCTIONS ------------------------------------------------------------*/
 106:C:/Users/dtjld/Desktop/AIoT_software/LiteOS_Lab_overseas/LiteOS_Lab/iot_link/network/lwm2m/wakaama_lwm2m/core/er-coap-13\er-coap-13.c **** /*-----------------------------------------------------------------------------------*/
 107:C:/Users/dtjld/Desktop/AIoT_software/LiteOS_Lab_overseas/LiteOS_Lab/iot_link/network/lwm2m/wakaama_lwm2m/core/er-coap-13\er-coap-13.c **** static
 108:C:/Users/dtjld/Desktop/AIoT_software/LiteOS_Lab_overseas/LiteOS_Lab/iot_link/network/lwm2m/wakaama_lwm2m/core/er-coap-13\er-coap-13.c **** uint16_t
 109:C:/Users/dtjld/Desktop/AIoT_software/LiteOS_Lab_overseas/LiteOS_Lab/iot_link/network/lwm2m/wakaama_lwm2m/core/er-coap-13\er-coap-13.c **** coap_log_2(uint16_t value)
 110:C:/Users/dtjld/Desktop/AIoT_software/LiteOS_Lab_overseas/LiteOS_Lab/iot_link/network/lwm2m/wakaama_lwm2m/core/er-coap-13\er-coap-13.c **** {
  50              		.loc 1 110 0
  51              		.cfi_startproc
  52              		@ args = 0, pretend = 0, frame = 16
  53              		@ frame_needed = 1, uses_anonymous_args = 0
  54              		@ link register save eliminated.
  55 0000 80B4     		push	{r7}
  56              	.LCFI0:
  57              		.cfi_def_cfa_offset 4
  58              		.cfi_offset 7, -4
  59 0002 85B0     		sub	sp, sp, #20
  60              	.LCFI1:
  61              		.cfi_def_cfa_offset 24
  62 0004 00AF     		add	r7, sp, #0
  63              	.LCFI2:
  64              		.cfi_def_cfa_register 7
  65 0006 0346     		mov	r3, r0
  66 0008 FB80     		strh	r3, [r7, #6]	@ movhi
 111:C:/Users/dtjld/Desktop/AIoT_software/LiteOS_Lab_overseas/LiteOS_Lab/iot_link/network/lwm2m/wakaama_lwm2m/core/er-coap-13\er-coap-13.c ****     uint16_t result = 0;
  67              		.loc 1 111 0
ARM GAS  C:\Users\dtjld\AppData\Local\Temp\ccpI0fza.s 			page 4


  68 000a 0023     		movs	r3, #0
  69 000c FB81     		strh	r3, [r7, #14]	@ movhi
  70              	.L2:
 112:C:/Users/dtjld/Desktop/AIoT_software/LiteOS_Lab_overseas/LiteOS_Lab/iot_link/network/lwm2m/wakaama_lwm2m/core/er-coap-13\er-coap-13.c ****     do
 113:C:/Users/dtjld/Desktop/AIoT_software/LiteOS_Lab_overseas/LiteOS_Lab/iot_link/network/lwm2m/wakaama_lwm2m/core/er-coap-13\er-coap-13.c ****     {
 114:C:/Users/dtjld/Desktop/AIoT_software/LiteOS_Lab_overseas/LiteOS_Lab/iot_link/network/lwm2m/wakaama_lwm2m/core/er-coap-13\er-coap-13.c ****         value = value >> 1;
  71              		.loc 1 114 0 discriminator 1
  72 000e FB88     		ldrh	r3, [r7, #6]
  73 0010 5B08     		lsrs	r3, r3, #1
  74 0012 FB80     		strh	r3, [r7, #6]	@ movhi
 115:C:/Users/dtjld/Desktop/AIoT_software/LiteOS_Lab_overseas/LiteOS_Lab/iot_link/network/lwm2m/wakaama_lwm2m/core/er-coap-13\er-coap-13.c ****         result++;
  75              		.loc 1 115 0 discriminator 1
  76 0014 FB89     		ldrh	r3, [r7, #14]
  77 0016 0133     		adds	r3, r3, #1
  78 0018 FB81     		strh	r3, [r7, #14]	@ movhi
 116:C:/Users/dtjld/Desktop/AIoT_software/LiteOS_Lab_overseas/LiteOS_Lab/iot_link/network/lwm2m/wakaama_lwm2m/core/er-coap-13\er-coap-13.c ****     }
 117:C:/Users/dtjld/Desktop/AIoT_software/LiteOS_Lab_overseas/LiteOS_Lab/iot_link/network/lwm2m/wakaama_lwm2m/core/er-coap-13\er-coap-13.c ****     while (value);
  79              		.loc 1 117 0 discriminator 1
  80 001a FB88     		ldrh	r3, [r7, #6]
  81 001c 002B     		cmp	r3, #0
  82 001e F6D1     		bne	.L2
 118:C:/Users/dtjld/Desktop/AIoT_software/LiteOS_Lab_overseas/LiteOS_Lab/iot_link/network/lwm2m/wakaama_lwm2m/core/er-coap-13\er-coap-13.c **** 
 119:C:/Users/dtjld/Desktop/AIoT_software/LiteOS_Lab_overseas/LiteOS_Lab/iot_link/network/lwm2m/wakaama_lwm2m/core/er-coap-13\er-coap-13.c ****     return result ? result - 1 : result;
  83              		.loc 1 119 0
  84 0020 FB89     		ldrh	r3, [r7, #14]
  85 0022 002B     		cmp	r3, #0
  86 0024 03D0     		beq	.L3
  87              		.loc 1 119 0 is_stmt 0 discriminator 1
  88 0026 FB89     		ldrh	r3, [r7, #14]	@ movhi
  89 0028 013B     		subs	r3, r3, #1
  90 002a 9BB2     		uxth	r3, r3
  91 002c 00E0     		b	.L4
  92              	.L3:
  93              		.loc 1 119 0 discriminator 2
  94 002e FB89     		ldrh	r3, [r7, #14]
  95              	.L4:
 120:C:/Users/dtjld/Desktop/AIoT_software/LiteOS_Lab_overseas/LiteOS_Lab/iot_link/network/lwm2m/wakaama_lwm2m/core/er-coap-13\er-coap-13.c **** }
  96              		.loc 1 120 0 is_stmt 1 discriminator 4
  97 0030 1846     		mov	r0, r3
  98 0032 1437     		adds	r7, r7, #20
  99              	.LCFI3:
 100              		.cfi_def_cfa_offset 4
 101 0034 BD46     		mov	sp, r7
 102              	.LCFI4:
 103              		.cfi_def_cfa_register 13
 104              		@ sp needed
 105 0036 5DF8047B 		ldr	r7, [sp], #4
 106              	.LCFI5:
 107              		.cfi_restore 7
 108              		.cfi_def_cfa_offset 0
 109 003a 7047     		bx	lr
 110              		.cfi_endproc
 111              	.LFE4:
 113              		.section	.text.coap_parse_int_option,"ax",%progbits
 114              		.align	1
 115              		.syntax unified
 116              		.thumb
ARM GAS  C:\Users\dtjld\AppData\Local\Temp\ccpI0fza.s 			page 5


 117              		.thumb_func
 118              		.fpu fpv4-sp-d16
 120              	coap_parse_int_option:
 121              	.LFB5:
 121:C:/Users/dtjld/Desktop/AIoT_software/LiteOS_Lab_overseas/LiteOS_Lab/iot_link/network/lwm2m/wakaama_lwm2m/core/er-coap-13\er-coap-13.c **** /*-----------------------------------------------------------------------------------*/
 122:C:/Users/dtjld/Desktop/AIoT_software/LiteOS_Lab_overseas/LiteOS_Lab/iot_link/network/lwm2m/wakaama_lwm2m/core/er-coap-13\er-coap-13.c **** static
 123:C:/Users/dtjld/Desktop/AIoT_software/LiteOS_Lab_overseas/LiteOS_Lab/iot_link/network/lwm2m/wakaama_lwm2m/core/er-coap-13\er-coap-13.c **** uint32_t
 124:C:/Users/dtjld/Desktop/AIoT_software/LiteOS_Lab_overseas/LiteOS_Lab/iot_link/network/lwm2m/wakaama_lwm2m/core/er-coap-13\er-coap-13.c **** coap_parse_int_option(uint8_t *bytes, size_t length)
 125:C:/Users/dtjld/Desktop/AIoT_software/LiteOS_Lab_overseas/LiteOS_Lab/iot_link/network/lwm2m/wakaama_lwm2m/core/er-coap-13\er-coap-13.c **** {
 122              		.loc 1 125 0
 123              		.cfi_startproc
 124              		@ args = 0, pretend = 0, frame = 16
 125              		@ frame_needed = 1, uses_anonymous_args = 0
 126              		@ link register save eliminated.
 127 0000 80B4     		push	{r7}
 128              	.LCFI6:
 129              		.cfi_def_cfa_offset 4
 130              		.cfi_offset 7, -4
 131 0002 85B0     		sub	sp, sp, #20
 132              	.LCFI7:
 133              		.cfi_def_cfa_offset 24
 134 0004 00AF     		add	r7, sp, #0
 135              	.LCFI8:
 136              		.cfi_def_cfa_register 7
 137 0006 7860     		str	r0, [r7, #4]
 138 0008 3960     		str	r1, [r7]
 126:C:/Users/dtjld/Desktop/AIoT_software/LiteOS_Lab_overseas/LiteOS_Lab/iot_link/network/lwm2m/wakaama_lwm2m/core/er-coap-13\er-coap-13.c ****     uint32_t var = 0;
 139              		.loc 1 126 0
 140 000a 0023     		movs	r3, #0
 141 000c FB60     		str	r3, [r7, #12]
 127:C:/Users/dtjld/Desktop/AIoT_software/LiteOS_Lab_overseas/LiteOS_Lab/iot_link/network/lwm2m/wakaama_lwm2m/core/er-coap-13\er-coap-13.c ****     size_t i = 0;
 142              		.loc 1 127 0
 143 000e 0023     		movs	r3, #0
 144 0010 BB60     		str	r3, [r7, #8]
 128:C:/Users/dtjld/Desktop/AIoT_software/LiteOS_Lab_overseas/LiteOS_Lab/iot_link/network/lwm2m/wakaama_lwm2m/core/er-coap-13\er-coap-13.c ****     while (i < length)
 145              		.loc 1 128 0
 146 0012 0CE0     		b	.L7
 147              	.L8:
 129:C:/Users/dtjld/Desktop/AIoT_software/LiteOS_Lab_overseas/LiteOS_Lab/iot_link/network/lwm2m/wakaama_lwm2m/core/er-coap-13\er-coap-13.c ****     {
 130:C:/Users/dtjld/Desktop/AIoT_software/LiteOS_Lab_overseas/LiteOS_Lab/iot_link/network/lwm2m/wakaama_lwm2m/core/er-coap-13\er-coap-13.c ****         var <<= 8;
 148              		.loc 1 130 0
 149 0014 FB68     		ldr	r3, [r7, #12]
 150 0016 1B02     		lsls	r3, r3, #8
 151 0018 FB60     		str	r3, [r7, #12]
 131:C:/Users/dtjld/Desktop/AIoT_software/LiteOS_Lab_overseas/LiteOS_Lab/iot_link/network/lwm2m/wakaama_lwm2m/core/er-coap-13\er-coap-13.c ****         var |= bytes[i++];
 152              		.loc 1 131 0
 153 001a BB68     		ldr	r3, [r7, #8]
 154 001c 5A1C     		adds	r2, r3, #1
 155 001e BA60     		str	r2, [r7, #8]
 156 0020 7A68     		ldr	r2, [r7, #4]
 157 0022 1344     		add	r3, r3, r2
 158 0024 1B78     		ldrb	r3, [r3]	@ zero_extendqisi2
 159 0026 1A46     		mov	r2, r3
 160 0028 FB68     		ldr	r3, [r7, #12]
 161 002a 1343     		orrs	r3, r3, r2
 162 002c FB60     		str	r3, [r7, #12]
 163              	.L7:
ARM GAS  C:\Users\dtjld\AppData\Local\Temp\ccpI0fza.s 			page 6


 128:C:/Users/dtjld/Desktop/AIoT_software/LiteOS_Lab_overseas/LiteOS_Lab/iot_link/network/lwm2m/wakaama_lwm2m/core/er-coap-13\er-coap-13.c ****     while (i < length)
 164              		.loc 1 128 0
 165 002e BA68     		ldr	r2, [r7, #8]
 166 0030 3B68     		ldr	r3, [r7]
 167 0032 9A42     		cmp	r2, r3
 168 0034 EED3     		bcc	.L8
 132:C:/Users/dtjld/Desktop/AIoT_software/LiteOS_Lab_overseas/LiteOS_Lab/iot_link/network/lwm2m/wakaama_lwm2m/core/er-coap-13\er-coap-13.c ****     }
 133:C:/Users/dtjld/Desktop/AIoT_software/LiteOS_Lab_overseas/LiteOS_Lab/iot_link/network/lwm2m/wakaama_lwm2m/core/er-coap-13\er-coap-13.c ****     return var;
 169              		.loc 1 133 0
 170 0036 FB68     		ldr	r3, [r7, #12]
 134:C:/Users/dtjld/Desktop/AIoT_software/LiteOS_Lab_overseas/LiteOS_Lab/iot_link/network/lwm2m/wakaama_lwm2m/core/er-coap-13\er-coap-13.c **** }
 171              		.loc 1 134 0
 172 0038 1846     		mov	r0, r3
 173 003a 1437     		adds	r7, r7, #20
 174              	.LCFI9:
 175              		.cfi_def_cfa_offset 4
 176 003c BD46     		mov	sp, r7
 177              	.LCFI10:
 178              		.cfi_def_cfa_register 13
 179              		@ sp needed
 180 003e 5DF8047B 		ldr	r7, [sp], #4
 181              	.LCFI11:
 182              		.cfi_restore 7
 183              		.cfi_def_cfa_offset 0
 184 0042 7047     		bx	lr
 185              		.cfi_endproc
 186              	.LFE5:
 188              		.section	.text.coap_option_nibble,"ax",%progbits
 189              		.align	1
 190              		.syntax unified
 191              		.thumb
 192              		.thumb_func
 193              		.fpu fpv4-sp-d16
 195              	coap_option_nibble:
 196              	.LFB6:
 135:C:/Users/dtjld/Desktop/AIoT_software/LiteOS_Lab_overseas/LiteOS_Lab/iot_link/network/lwm2m/wakaama_lwm2m/core/er-coap-13\er-coap-13.c **** /*-----------------------------------------------------------------------------------*/
 136:C:/Users/dtjld/Desktop/AIoT_software/LiteOS_Lab_overseas/LiteOS_Lab/iot_link/network/lwm2m/wakaama_lwm2m/core/er-coap-13\er-coap-13.c **** static
 137:C:/Users/dtjld/Desktop/AIoT_software/LiteOS_Lab_overseas/LiteOS_Lab/iot_link/network/lwm2m/wakaama_lwm2m/core/er-coap-13\er-coap-13.c **** uint8_t
 138:C:/Users/dtjld/Desktop/AIoT_software/LiteOS_Lab_overseas/LiteOS_Lab/iot_link/network/lwm2m/wakaama_lwm2m/core/er-coap-13\er-coap-13.c **** coap_option_nibble(unsigned int value)
 139:C:/Users/dtjld/Desktop/AIoT_software/LiteOS_Lab_overseas/LiteOS_Lab/iot_link/network/lwm2m/wakaama_lwm2m/core/er-coap-13\er-coap-13.c **** {
 197              		.loc 1 139 0
 198              		.cfi_startproc
 199              		@ args = 0, pretend = 0, frame = 8
 200              		@ frame_needed = 1, uses_anonymous_args = 0
 201              		@ link register save eliminated.
 202 0000 80B4     		push	{r7}
 203              	.LCFI12:
 204              		.cfi_def_cfa_offset 4
 205              		.cfi_offset 7, -4
 206 0002 83B0     		sub	sp, sp, #12
 207              	.LCFI13:
 208              		.cfi_def_cfa_offset 16
 209 0004 00AF     		add	r7, sp, #0
 210              	.LCFI14:
 211              		.cfi_def_cfa_register 7
 212 0006 7860     		str	r0, [r7, #4]
 140:C:/Users/dtjld/Desktop/AIoT_software/LiteOS_Lab_overseas/LiteOS_Lab/iot_link/network/lwm2m/wakaama_lwm2m/core/er-coap-13\er-coap-13.c ****     if (value < 13)
ARM GAS  C:\Users\dtjld\AppData\Local\Temp\ccpI0fza.s 			page 7


 213              		.loc 1 140 0
 214 0008 7B68     		ldr	r3, [r7, #4]
 215 000a 0C2B     		cmp	r3, #12
 216 000c 02D8     		bhi	.L11
 141:C:/Users/dtjld/Desktop/AIoT_software/LiteOS_Lab_overseas/LiteOS_Lab/iot_link/network/lwm2m/wakaama_lwm2m/core/er-coap-13\er-coap-13.c ****     {
 142:C:/Users/dtjld/Desktop/AIoT_software/LiteOS_Lab_overseas/LiteOS_Lab/iot_link/network/lwm2m/wakaama_lwm2m/core/er-coap-13\er-coap-13.c ****         return value;
 217              		.loc 1 142 0
 218 000e 7B68     		ldr	r3, [r7, #4]
 219 0010 DBB2     		uxtb	r3, r3
 220 0012 06E0     		b	.L12
 221              	.L11:
 143:C:/Users/dtjld/Desktop/AIoT_software/LiteOS_Lab_overseas/LiteOS_Lab/iot_link/network/lwm2m/wakaama_lwm2m/core/er-coap-13\er-coap-13.c ****     }
 144:C:/Users/dtjld/Desktop/AIoT_software/LiteOS_Lab_overseas/LiteOS_Lab/iot_link/network/lwm2m/wakaama_lwm2m/core/er-coap-13\er-coap-13.c ****     else if (value <= 0xFF + 13)
 222              		.loc 1 144 0
 223 0014 7B68     		ldr	r3, [r7, #4]
 224 0016 B3F5867F 		cmp	r3, #268
 225 001a 01D8     		bhi	.L13
 145:C:/Users/dtjld/Desktop/AIoT_software/LiteOS_Lab_overseas/LiteOS_Lab/iot_link/network/lwm2m/wakaama_lwm2m/core/er-coap-13\er-coap-13.c ****     {
 146:C:/Users/dtjld/Desktop/AIoT_software/LiteOS_Lab_overseas/LiteOS_Lab/iot_link/network/lwm2m/wakaama_lwm2m/core/er-coap-13\er-coap-13.c ****         return 13;
 226              		.loc 1 146 0
 227 001c 0D23     		movs	r3, #13
 228 001e 00E0     		b	.L12
 229              	.L13:
 147:C:/Users/dtjld/Desktop/AIoT_software/LiteOS_Lab_overseas/LiteOS_Lab/iot_link/network/lwm2m/wakaama_lwm2m/core/er-coap-13\er-coap-13.c ****     }
 148:C:/Users/dtjld/Desktop/AIoT_software/LiteOS_Lab_overseas/LiteOS_Lab/iot_link/network/lwm2m/wakaama_lwm2m/core/er-coap-13\er-coap-13.c ****     else
 149:C:/Users/dtjld/Desktop/AIoT_software/LiteOS_Lab_overseas/LiteOS_Lab/iot_link/network/lwm2m/wakaama_lwm2m/core/er-coap-13\er-coap-13.c ****     {
 150:C:/Users/dtjld/Desktop/AIoT_software/LiteOS_Lab_overseas/LiteOS_Lab/iot_link/network/lwm2m/wakaama_lwm2m/core/er-coap-13\er-coap-13.c ****         return 14;
 230              		.loc 1 150 0
 231 0020 0E23     		movs	r3, #14
 232              	.L12:
 151:C:/Users/dtjld/Desktop/AIoT_software/LiteOS_Lab_overseas/LiteOS_Lab/iot_link/network/lwm2m/wakaama_lwm2m/core/er-coap-13\er-coap-13.c ****     }
 152:C:/Users/dtjld/Desktop/AIoT_software/LiteOS_Lab_overseas/LiteOS_Lab/iot_link/network/lwm2m/wakaama_lwm2m/core/er-coap-13\er-coap-13.c **** }
 233              		.loc 1 152 0
 234 0022 1846     		mov	r0, r3
 235 0024 0C37     		adds	r7, r7, #12
 236              	.LCFI15:
 237              		.cfi_def_cfa_offset 4
 238 0026 BD46     		mov	sp, r7
 239              	.LCFI16:
 240              		.cfi_def_cfa_register 13
 241              		@ sp needed
 242 0028 5DF8047B 		ldr	r7, [sp], #4
 243              	.LCFI17:
 244              		.cfi_restore 7
 245              		.cfi_def_cfa_offset 0
 246 002c 7047     		bx	lr
 247              		.cfi_endproc
 248              	.LFE6:
 250              		.section	.text.coap_set_option_header,"ax",%progbits
 251              		.align	1
 252              		.syntax unified
 253              		.thumb
 254              		.thumb_func
 255              		.fpu fpv4-sp-d16
 257              	coap_set_option_header:
 258              	.LFB7:
 153:C:/Users/dtjld/Desktop/AIoT_software/LiteOS_Lab_overseas/LiteOS_Lab/iot_link/network/lwm2m/wakaama_lwm2m/core/er-coap-13\er-coap-13.c **** /*-----------------------------------------------------------------------------------*/
ARM GAS  C:\Users\dtjld\AppData\Local\Temp\ccpI0fza.s 			page 8


 154:C:/Users/dtjld/Desktop/AIoT_software/LiteOS_Lab_overseas/LiteOS_Lab/iot_link/network/lwm2m/wakaama_lwm2m/core/er-coap-13\er-coap-13.c **** static
 155:C:/Users/dtjld/Desktop/AIoT_software/LiteOS_Lab_overseas/LiteOS_Lab/iot_link/network/lwm2m/wakaama_lwm2m/core/er-coap-13\er-coap-13.c **** size_t
 156:C:/Users/dtjld/Desktop/AIoT_software/LiteOS_Lab_overseas/LiteOS_Lab/iot_link/network/lwm2m/wakaama_lwm2m/core/er-coap-13\er-coap-13.c **** coap_set_option_header(unsigned int delta, size_t length, uint8_t *buffer)
 157:C:/Users/dtjld/Desktop/AIoT_software/LiteOS_Lab_overseas/LiteOS_Lab/iot_link/network/lwm2m/wakaama_lwm2m/core/er-coap-13\er-coap-13.c **** {
 259              		.loc 1 157 0
 260              		.cfi_startproc
 261              		@ args = 0, pretend = 0, frame = 24
 262              		@ frame_needed = 1, uses_anonymous_args = 0
 263 0000 90B5     		push	{r4, r7, lr}
 264              	.LCFI18:
 265              		.cfi_def_cfa_offset 12
 266              		.cfi_offset 4, -12
 267              		.cfi_offset 7, -8
 268              		.cfi_offset 14, -4
 269 0002 87B0     		sub	sp, sp, #28
 270              	.LCFI19:
 271              		.cfi_def_cfa_offset 40
 272 0004 00AF     		add	r7, sp, #0
 273              	.LCFI20:
 274              		.cfi_def_cfa_register 7
 275 0006 F860     		str	r0, [r7, #12]
 276 0008 B960     		str	r1, [r7, #8]
 277 000a 7A60     		str	r2, [r7, #4]
 158:C:/Users/dtjld/Desktop/AIoT_software/LiteOS_Lab_overseas/LiteOS_Lab/iot_link/network/lwm2m/wakaama_lwm2m/core/er-coap-13\er-coap-13.c ****     size_t written = 0;
 278              		.loc 1 158 0
 279 000c 0023     		movs	r3, #0
 280 000e 7B61     		str	r3, [r7, #20]
 159:C:/Users/dtjld/Desktop/AIoT_software/LiteOS_Lab_overseas/LiteOS_Lab/iot_link/network/lwm2m/wakaama_lwm2m/core/er-coap-13\er-coap-13.c ****     unsigned int *x = &delta;
 281              		.loc 1 159 0
 282 0010 07F10C03 		add	r3, r7, #12
 283 0014 3B61     		str	r3, [r7, #16]
 160:C:/Users/dtjld/Desktop/AIoT_software/LiteOS_Lab_overseas/LiteOS_Lab/iot_link/network/lwm2m/wakaama_lwm2m/core/er-coap-13\er-coap-13.c **** 
 161:C:/Users/dtjld/Desktop/AIoT_software/LiteOS_Lab_overseas/LiteOS_Lab/iot_link/network/lwm2m/wakaama_lwm2m/core/er-coap-13\er-coap-13.c ****     buffer[0] = coap_option_nibble(delta) << 4 | coap_option_nibble(length);
 284              		.loc 1 161 0
 285 0016 FB68     		ldr	r3, [r7, #12]
 286 0018 1846     		mov	r0, r3
 287 001a FFF7FEFF 		bl	coap_option_nibble
 288 001e 0346     		mov	r3, r0
 289 0020 1B01     		lsls	r3, r3, #4
 290 0022 5CB2     		sxtb	r4, r3
 291 0024 BB68     		ldr	r3, [r7, #8]
 292 0026 1846     		mov	r0, r3
 293 0028 FFF7FEFF 		bl	coap_option_nibble
 294 002c 0346     		mov	r3, r0
 295 002e 5BB2     		sxtb	r3, r3
 296 0030 2343     		orrs	r3, r3, r4
 297 0032 5BB2     		sxtb	r3, r3
 298 0034 DAB2     		uxtb	r2, r3
 299 0036 7B68     		ldr	r3, [r7, #4]
 300 0038 1A70     		strb	r2, [r3]
 301              	.L18:
 162:C:/Users/dtjld/Desktop/AIoT_software/LiteOS_Lab_overseas/LiteOS_Lab/iot_link/network/lwm2m/wakaama_lwm2m/core/er-coap-13\er-coap-13.c **** 
 163:C:/Users/dtjld/Desktop/AIoT_software/LiteOS_Lab_overseas/LiteOS_Lab/iot_link/network/lwm2m/wakaama_lwm2m/core/er-coap-13\er-coap-13.c ****     /* avoids code duplication without function overhead */
 164:C:/Users/dtjld/Desktop/AIoT_software/LiteOS_Lab_overseas/LiteOS_Lab/iot_link/network/lwm2m/wakaama_lwm2m/core/er-coap-13\er-coap-13.c ****     do
 165:C:/Users/dtjld/Desktop/AIoT_software/LiteOS_Lab_overseas/LiteOS_Lab/iot_link/network/lwm2m/wakaama_lwm2m/core/er-coap-13\er-coap-13.c ****     {
 166:C:/Users/dtjld/Desktop/AIoT_software/LiteOS_Lab_overseas/LiteOS_Lab/iot_link/network/lwm2m/wakaama_lwm2m/core/er-coap-13\er-coap-13.c ****         if (*x > 268)
 302              		.loc 1 166 0
ARM GAS  C:\Users\dtjld\AppData\Local\Temp\ccpI0fza.s 			page 9


 303 003a 3B69     		ldr	r3, [r7, #16]
 304 003c 1B68     		ldr	r3, [r3]
 305 003e B3F5867F 		cmp	r3, #268
 306 0042 19D9     		bls	.L15
 167:C:/Users/dtjld/Desktop/AIoT_software/LiteOS_Lab_overseas/LiteOS_Lab/iot_link/network/lwm2m/wakaama_lwm2m/core/er-coap-13\er-coap-13.c ****         {
 168:C:/Users/dtjld/Desktop/AIoT_software/LiteOS_Lab_overseas/LiteOS_Lab/iot_link/network/lwm2m/wakaama_lwm2m/core/er-coap-13\er-coap-13.c ****             buffer[++written] = (*x - 269) >> 8;
 307              		.loc 1 168 0
 308 0044 3B69     		ldr	r3, [r7, #16]
 309 0046 1B68     		ldr	r3, [r3]
 310 0048 A3F20D13 		subw	r3, r3, #269
 311 004c 190A     		lsrs	r1, r3, #8
 312 004e 7B69     		ldr	r3, [r7, #20]
 313 0050 0133     		adds	r3, r3, #1
 314 0052 7B61     		str	r3, [r7, #20]
 315 0054 7A68     		ldr	r2, [r7, #4]
 316 0056 7B69     		ldr	r3, [r7, #20]
 317 0058 1344     		add	r3, r3, r2
 318 005a CAB2     		uxtb	r2, r1
 319 005c 1A70     		strb	r2, [r3]
 169:C:/Users/dtjld/Desktop/AIoT_software/LiteOS_Lab_overseas/LiteOS_Lab/iot_link/network/lwm2m/wakaama_lwm2m/core/er-coap-13\er-coap-13.c ****             buffer[++written] = (*x - 269);
 320              		.loc 1 169 0
 321 005e 3B69     		ldr	r3, [r7, #16]
 322 0060 1B68     		ldr	r3, [r3]
 323 0062 DAB2     		uxtb	r2, r3
 324 0064 7B69     		ldr	r3, [r7, #20]
 325 0066 0133     		adds	r3, r3, #1
 326 0068 7B61     		str	r3, [r7, #20]
 327 006a 7968     		ldr	r1, [r7, #4]
 328 006c 7B69     		ldr	r3, [r7, #20]
 329 006e 0B44     		add	r3, r3, r1
 330 0070 0D3A     		subs	r2, r2, #13
 331 0072 D2B2     		uxtb	r2, r2
 332 0074 1A70     		strb	r2, [r3]
 333 0076 0FE0     		b	.L16
 334              	.L15:
 170:C:/Users/dtjld/Desktop/AIoT_software/LiteOS_Lab_overseas/LiteOS_Lab/iot_link/network/lwm2m/wakaama_lwm2m/core/er-coap-13\er-coap-13.c ****         }
 171:C:/Users/dtjld/Desktop/AIoT_software/LiteOS_Lab_overseas/LiteOS_Lab/iot_link/network/lwm2m/wakaama_lwm2m/core/er-coap-13\er-coap-13.c ****         else if (*x > 12)
 335              		.loc 1 171 0
 336 0078 3B69     		ldr	r3, [r7, #16]
 337 007a 1B68     		ldr	r3, [r3]
 338 007c 0C2B     		cmp	r3, #12
 339 007e 0BD9     		bls	.L16
 172:C:/Users/dtjld/Desktop/AIoT_software/LiteOS_Lab_overseas/LiteOS_Lab/iot_link/network/lwm2m/wakaama_lwm2m/core/er-coap-13\er-coap-13.c ****         {
 173:C:/Users/dtjld/Desktop/AIoT_software/LiteOS_Lab_overseas/LiteOS_Lab/iot_link/network/lwm2m/wakaama_lwm2m/core/er-coap-13\er-coap-13.c ****             buffer[++written] = (*x - 13);
 340              		.loc 1 173 0
 341 0080 3B69     		ldr	r3, [r7, #16]
 342 0082 1B68     		ldr	r3, [r3]
 343 0084 DAB2     		uxtb	r2, r3
 344 0086 7B69     		ldr	r3, [r7, #20]
 345 0088 0133     		adds	r3, r3, #1
 346 008a 7B61     		str	r3, [r7, #20]
 347 008c 7968     		ldr	r1, [r7, #4]
 348 008e 7B69     		ldr	r3, [r7, #20]
 349 0090 0B44     		add	r3, r3, r1
 350 0092 0D3A     		subs	r2, r2, #13
 351 0094 D2B2     		uxtb	r2, r2
 352 0096 1A70     		strb	r2, [r3]
ARM GAS  C:\Users\dtjld\AppData\Local\Temp\ccpI0fza.s 			page 10


 353              	.L16:
 174:C:/Users/dtjld/Desktop/AIoT_software/LiteOS_Lab_overseas/LiteOS_Lab/iot_link/network/lwm2m/wakaama_lwm2m/core/er-coap-13\er-coap-13.c ****         }
 175:C:/Users/dtjld/Desktop/AIoT_software/LiteOS_Lab_overseas/LiteOS_Lab/iot_link/network/lwm2m/wakaama_lwm2m/core/er-coap-13\er-coap-13.c ****     }
 176:C:/Users/dtjld/Desktop/AIoT_software/LiteOS_Lab_overseas/LiteOS_Lab/iot_link/network/lwm2m/wakaama_lwm2m/core/er-coap-13\er-coap-13.c ****     while (x != (unsigned int *)&length && NULL != (x = (unsigned int *)&length));
 354              		.loc 1 176 0
 355 0098 07F10803 		add	r3, r7, #8
 356 009c 3A69     		ldr	r2, [r7, #16]
 357 009e 9A42     		cmp	r2, r3
 358 00a0 03D0     		beq	.L17
 359              		.loc 1 176 0 is_stmt 0 discriminator 1
 360 00a2 07F10803 		add	r3, r7, #8
 361 00a6 3B61     		str	r3, [r7, #16]
 362 00a8 C7E7     		b	.L18
 363              	.L17:
 177:C:/Users/dtjld/Desktop/AIoT_software/LiteOS_Lab_overseas/LiteOS_Lab/iot_link/network/lwm2m/wakaama_lwm2m/core/er-coap-13\er-coap-13.c **** 
 178:C:/Users/dtjld/Desktop/AIoT_software/LiteOS_Lab_overseas/LiteOS_Lab/iot_link/network/lwm2m/wakaama_lwm2m/core/er-coap-13\er-coap-13.c ****     PRINTF("WRITTEN %u B opt header\n", written);
 179:C:/Users/dtjld/Desktop/AIoT_software/LiteOS_Lab_overseas/LiteOS_Lab/iot_link/network/lwm2m/wakaama_lwm2m/core/er-coap-13\er-coap-13.c **** 
 180:C:/Users/dtjld/Desktop/AIoT_software/LiteOS_Lab_overseas/LiteOS_Lab/iot_link/network/lwm2m/wakaama_lwm2m/core/er-coap-13\er-coap-13.c ****     return ++written;
 364              		.loc 1 180 0 is_stmt 1
 365 00aa 7B69     		ldr	r3, [r7, #20]
 366 00ac 0133     		adds	r3, r3, #1
 367 00ae 7B61     		str	r3, [r7, #20]
 368 00b0 7B69     		ldr	r3, [r7, #20]
 181:C:/Users/dtjld/Desktop/AIoT_software/LiteOS_Lab_overseas/LiteOS_Lab/iot_link/network/lwm2m/wakaama_lwm2m/core/er-coap-13\er-coap-13.c **** }
 369              		.loc 1 181 0
 370 00b2 1846     		mov	r0, r3
 371 00b4 1C37     		adds	r7, r7, #28
 372              	.LCFI21:
 373              		.cfi_def_cfa_offset 12
 374 00b6 BD46     		mov	sp, r7
 375              	.LCFI22:
 376              		.cfi_def_cfa_register 13
 377              		@ sp needed
 378 00b8 90BD     		pop	{r4, r7, pc}
 379              		.cfi_endproc
 380              	.LFE7:
 382              		.section	.text.coap_serialize_int_option,"ax",%progbits
 383              		.align	1
 384              		.syntax unified
 385              		.thumb
 386              		.thumb_func
 387              		.fpu fpv4-sp-d16
 389              	coap_serialize_int_option:
 390              	.LFB8:
 182:C:/Users/dtjld/Desktop/AIoT_software/LiteOS_Lab_overseas/LiteOS_Lab/iot_link/network/lwm2m/wakaama_lwm2m/core/er-coap-13\er-coap-13.c **** /*-----------------------------------------------------------------------------------*/
 183:C:/Users/dtjld/Desktop/AIoT_software/LiteOS_Lab_overseas/LiteOS_Lab/iot_link/network/lwm2m/wakaama_lwm2m/core/er-coap-13\er-coap-13.c **** static
 184:C:/Users/dtjld/Desktop/AIoT_software/LiteOS_Lab_overseas/LiteOS_Lab/iot_link/network/lwm2m/wakaama_lwm2m/core/er-coap-13\er-coap-13.c **** size_t
 185:C:/Users/dtjld/Desktop/AIoT_software/LiteOS_Lab_overseas/LiteOS_Lab/iot_link/network/lwm2m/wakaama_lwm2m/core/er-coap-13\er-coap-13.c **** coap_serialize_int_option(unsigned int number, unsigned int current_number, uint8_t *buffer, uint32
 186:C:/Users/dtjld/Desktop/AIoT_software/LiteOS_Lab_overseas/LiteOS_Lab/iot_link/network/lwm2m/wakaama_lwm2m/core/er-coap-13\er-coap-13.c **** {
 391              		.loc 1 186 0
 392              		.cfi_startproc
 393              		@ args = 0, pretend = 0, frame = 24
 394              		@ frame_needed = 1, uses_anonymous_args = 0
 395 0000 80B5     		push	{r7, lr}
 396              	.LCFI23:
 397              		.cfi_def_cfa_offset 8
 398              		.cfi_offset 7, -8
ARM GAS  C:\Users\dtjld\AppData\Local\Temp\ccpI0fza.s 			page 11


 399              		.cfi_offset 14, -4
 400 0002 86B0     		sub	sp, sp, #24
 401              	.LCFI24:
 402              		.cfi_def_cfa_offset 32
 403 0004 00AF     		add	r7, sp, #0
 404              	.LCFI25:
 405              		.cfi_def_cfa_register 7
 406 0006 F860     		str	r0, [r7, #12]
 407 0008 B960     		str	r1, [r7, #8]
 408 000a 7A60     		str	r2, [r7, #4]
 409 000c 3B60     		str	r3, [r7]
 187:C:/Users/dtjld/Desktop/AIoT_software/LiteOS_Lab_overseas/LiteOS_Lab/iot_link/network/lwm2m/wakaama_lwm2m/core/er-coap-13\er-coap-13.c ****     size_t i = 0;
 410              		.loc 1 187 0
 411 000e 0023     		movs	r3, #0
 412 0010 7B61     		str	r3, [r7, #20]
 188:C:/Users/dtjld/Desktop/AIoT_software/LiteOS_Lab_overseas/LiteOS_Lab/iot_link/network/lwm2m/wakaama_lwm2m/core/er-coap-13\er-coap-13.c **** 
 189:C:/Users/dtjld/Desktop/AIoT_software/LiteOS_Lab_overseas/LiteOS_Lab/iot_link/network/lwm2m/wakaama_lwm2m/core/er-coap-13\er-coap-13.c ****     if (0xFF000000 & value) ++i;
 413              		.loc 1 189 0
 414 0012 3B68     		ldr	r3, [r7]
 415 0014 03F07F43 		and	r3, r3, #-16777216
 416 0018 002B     		cmp	r3, #0
 417 001a 02D0     		beq	.L21
 418              		.loc 1 189 0 is_stmt 0 discriminator 1
 419 001c 7B69     		ldr	r3, [r7, #20]
 420 001e 0133     		adds	r3, r3, #1
 421 0020 7B61     		str	r3, [r7, #20]
 422              	.L21:
 190:C:/Users/dtjld/Desktop/AIoT_software/LiteOS_Lab_overseas/LiteOS_Lab/iot_link/network/lwm2m/wakaama_lwm2m/core/er-coap-13\er-coap-13.c ****     if (0xFFFF0000 & value) ++i;
 423              		.loc 1 190 0 is_stmt 1
 424 0022 3B68     		ldr	r3, [r7]
 425 0024 1B0C     		lsrs	r3, r3, #16
 426 0026 1B04     		lsls	r3, r3, #16
 427 0028 002B     		cmp	r3, #0
 428 002a 02D0     		beq	.L22
 429              		.loc 1 190 0 is_stmt 0 discriminator 1
 430 002c 7B69     		ldr	r3, [r7, #20]
 431 002e 0133     		adds	r3, r3, #1
 432 0030 7B61     		str	r3, [r7, #20]
 433              	.L22:
 191:C:/Users/dtjld/Desktop/AIoT_software/LiteOS_Lab_overseas/LiteOS_Lab/iot_link/network/lwm2m/wakaama_lwm2m/core/er-coap-13\er-coap-13.c ****     if (0xFFFFFF00 & value) ++i;
 434              		.loc 1 191 0 is_stmt 1
 435 0032 3B68     		ldr	r3, [r7]
 436 0034 23F0FF03 		bic	r3, r3, #255
 437 0038 002B     		cmp	r3, #0
 438 003a 02D0     		beq	.L23
 439              		.loc 1 191 0 is_stmt 0 discriminator 1
 440 003c 7B69     		ldr	r3, [r7, #20]
 441 003e 0133     		adds	r3, r3, #1
 442 0040 7B61     		str	r3, [r7, #20]
 443              	.L23:
 192:C:/Users/dtjld/Desktop/AIoT_software/LiteOS_Lab_overseas/LiteOS_Lab/iot_link/network/lwm2m/wakaama_lwm2m/core/er-coap-13\er-coap-13.c ****     if (0xFFFFFFFF & value) ++i;
 444              		.loc 1 192 0 is_stmt 1
 445 0042 3B68     		ldr	r3, [r7]
 446 0044 002B     		cmp	r3, #0
 447 0046 02D0     		beq	.L24
 448              		.loc 1 192 0 is_stmt 0 discriminator 1
 449 0048 7B69     		ldr	r3, [r7, #20]
ARM GAS  C:\Users\dtjld\AppData\Local\Temp\ccpI0fza.s 			page 12


 450 004a 0133     		adds	r3, r3, #1
 451 004c 7B61     		str	r3, [r7, #20]
 452              	.L24:
 193:C:/Users/dtjld/Desktop/AIoT_software/LiteOS_Lab_overseas/LiteOS_Lab/iot_link/network/lwm2m/wakaama_lwm2m/core/er-coap-13\er-coap-13.c **** 
 194:C:/Users/dtjld/Desktop/AIoT_software/LiteOS_Lab_overseas/LiteOS_Lab/iot_link/network/lwm2m/wakaama_lwm2m/core/er-coap-13\er-coap-13.c ****     PRINTF("OPTION %u (delta %u, len %u)\n", number, number - current_number, i);
 195:C:/Users/dtjld/Desktop/AIoT_software/LiteOS_Lab_overseas/LiteOS_Lab/iot_link/network/lwm2m/wakaama_lwm2m/core/er-coap-13\er-coap-13.c **** 
 196:C:/Users/dtjld/Desktop/AIoT_software/LiteOS_Lab_overseas/LiteOS_Lab/iot_link/network/lwm2m/wakaama_lwm2m/core/er-coap-13\er-coap-13.c ****     i = coap_set_option_header(number - current_number, i, buffer);
 453              		.loc 1 196 0 is_stmt 1
 454 004e FA68     		ldr	r2, [r7, #12]
 455 0050 BB68     		ldr	r3, [r7, #8]
 456 0052 D31A     		subs	r3, r2, r3
 457 0054 7A68     		ldr	r2, [r7, #4]
 458 0056 7969     		ldr	r1, [r7, #20]
 459 0058 1846     		mov	r0, r3
 460 005a FFF7FEFF 		bl	coap_set_option_header
 461 005e 7861     		str	r0, [r7, #20]
 197:C:/Users/dtjld/Desktop/AIoT_software/LiteOS_Lab_overseas/LiteOS_Lab/iot_link/network/lwm2m/wakaama_lwm2m/core/er-coap-13\er-coap-13.c **** 
 198:C:/Users/dtjld/Desktop/AIoT_software/LiteOS_Lab_overseas/LiteOS_Lab/iot_link/network/lwm2m/wakaama_lwm2m/core/er-coap-13\er-coap-13.c ****     if (0xFF000000 & value) buffer[i++] = (uint8_t) (value >> 24);
 462              		.loc 1 198 0
 463 0060 3B68     		ldr	r3, [r7]
 464 0062 03F07F43 		and	r3, r3, #-16777216
 465 0066 002B     		cmp	r3, #0
 466 0068 08D0     		beq	.L25
 467              		.loc 1 198 0 is_stmt 0 discriminator 1
 468 006a 3B68     		ldr	r3, [r7]
 469 006c 190E     		lsrs	r1, r3, #24
 470 006e 7B69     		ldr	r3, [r7, #20]
 471 0070 5A1C     		adds	r2, r3, #1
 472 0072 7A61     		str	r2, [r7, #20]
 473 0074 7A68     		ldr	r2, [r7, #4]
 474 0076 1344     		add	r3, r3, r2
 475 0078 CAB2     		uxtb	r2, r1
 476 007a 1A70     		strb	r2, [r3]
 477              	.L25:
 199:C:/Users/dtjld/Desktop/AIoT_software/LiteOS_Lab_overseas/LiteOS_Lab/iot_link/network/lwm2m/wakaama_lwm2m/core/er-coap-13\er-coap-13.c ****     if (0xFFFF0000 & value) buffer[i++] = (uint8_t) (value >> 16);
 478              		.loc 1 199 0 is_stmt 1
 479 007c 3B68     		ldr	r3, [r7]
 480 007e 1B0C     		lsrs	r3, r3, #16
 481 0080 1B04     		lsls	r3, r3, #16
 482 0082 002B     		cmp	r3, #0
 483 0084 08D0     		beq	.L26
 484              		.loc 1 199 0 is_stmt 0 discriminator 1
 485 0086 3B68     		ldr	r3, [r7]
 486 0088 190C     		lsrs	r1, r3, #16
 487 008a 7B69     		ldr	r3, [r7, #20]
 488 008c 5A1C     		adds	r2, r3, #1
 489 008e 7A61     		str	r2, [r7, #20]
 490 0090 7A68     		ldr	r2, [r7, #4]
 491 0092 1344     		add	r3, r3, r2
 492 0094 CAB2     		uxtb	r2, r1
 493 0096 1A70     		strb	r2, [r3]
 494              	.L26:
 200:C:/Users/dtjld/Desktop/AIoT_software/LiteOS_Lab_overseas/LiteOS_Lab/iot_link/network/lwm2m/wakaama_lwm2m/core/er-coap-13\er-coap-13.c ****     if (0xFFFFFF00 & value) buffer[i++] = (uint8_t) (value >> 8);
 495              		.loc 1 200 0 is_stmt 1
 496 0098 3B68     		ldr	r3, [r7]
 497 009a 23F0FF03 		bic	r3, r3, #255
 498 009e 002B     		cmp	r3, #0
ARM GAS  C:\Users\dtjld\AppData\Local\Temp\ccpI0fza.s 			page 13


 499 00a0 08D0     		beq	.L27
 500              		.loc 1 200 0 is_stmt 0 discriminator 1
 501 00a2 3B68     		ldr	r3, [r7]
 502 00a4 190A     		lsrs	r1, r3, #8
 503 00a6 7B69     		ldr	r3, [r7, #20]
 504 00a8 5A1C     		adds	r2, r3, #1
 505 00aa 7A61     		str	r2, [r7, #20]
 506 00ac 7A68     		ldr	r2, [r7, #4]
 507 00ae 1344     		add	r3, r3, r2
 508 00b0 CAB2     		uxtb	r2, r1
 509 00b2 1A70     		strb	r2, [r3]
 510              	.L27:
 201:C:/Users/dtjld/Desktop/AIoT_software/LiteOS_Lab_overseas/LiteOS_Lab/iot_link/network/lwm2m/wakaama_lwm2m/core/er-coap-13\er-coap-13.c ****     if (0xFFFFFFFF & value) buffer[i++] = (uint8_t) (value);
 511              		.loc 1 201 0 is_stmt 1
 512 00b4 3B68     		ldr	r3, [r7]
 513 00b6 002B     		cmp	r3, #0
 514 00b8 07D0     		beq	.L28
 515              		.loc 1 201 0 is_stmt 0 discriminator 1
 516 00ba 7B69     		ldr	r3, [r7, #20]
 517 00bc 5A1C     		adds	r2, r3, #1
 518 00be 7A61     		str	r2, [r7, #20]
 519 00c0 7A68     		ldr	r2, [r7, #4]
 520 00c2 1344     		add	r3, r3, r2
 521 00c4 3A68     		ldr	r2, [r7]
 522 00c6 D2B2     		uxtb	r2, r2
 523 00c8 1A70     		strb	r2, [r3]
 524              	.L28:
 202:C:/Users/dtjld/Desktop/AIoT_software/LiteOS_Lab_overseas/LiteOS_Lab/iot_link/network/lwm2m/wakaama_lwm2m/core/er-coap-13\er-coap-13.c **** 
 203:C:/Users/dtjld/Desktop/AIoT_software/LiteOS_Lab_overseas/LiteOS_Lab/iot_link/network/lwm2m/wakaama_lwm2m/core/er-coap-13\er-coap-13.c ****     return i;
 525              		.loc 1 203 0 is_stmt 1
 526 00ca 7B69     		ldr	r3, [r7, #20]
 204:C:/Users/dtjld/Desktop/AIoT_software/LiteOS_Lab_overseas/LiteOS_Lab/iot_link/network/lwm2m/wakaama_lwm2m/core/er-coap-13\er-coap-13.c **** }
 527              		.loc 1 204 0
 528 00cc 1846     		mov	r0, r3
 529 00ce 1837     		adds	r7, r7, #24
 530              	.LCFI26:
 531              		.cfi_def_cfa_offset 8
 532 00d0 BD46     		mov	sp, r7
 533              	.LCFI27:
 534              		.cfi_def_cfa_register 13
 535              		@ sp needed
 536 00d2 80BD     		pop	{r7, pc}
 537              		.cfi_endproc
 538              	.LFE8:
 540              		.section	.text.coap_serialize_array_option,"ax",%progbits
 541              		.align	1
 542              		.syntax unified
 543              		.thumb
 544              		.thumb_func
 545              		.fpu fpv4-sp-d16
 547              	coap_serialize_array_option:
 548              	.LFB9:
 205:C:/Users/dtjld/Desktop/AIoT_software/LiteOS_Lab_overseas/LiteOS_Lab/iot_link/network/lwm2m/wakaama_lwm2m/core/er-coap-13\er-coap-13.c **** /*-----------------------------------------------------------------------------------*/
 206:C:/Users/dtjld/Desktop/AIoT_software/LiteOS_Lab_overseas/LiteOS_Lab/iot_link/network/lwm2m/wakaama_lwm2m/core/er-coap-13\er-coap-13.c **** static
 207:C:/Users/dtjld/Desktop/AIoT_software/LiteOS_Lab_overseas/LiteOS_Lab/iot_link/network/lwm2m/wakaama_lwm2m/core/er-coap-13\er-coap-13.c **** size_t
 208:C:/Users/dtjld/Desktop/AIoT_software/LiteOS_Lab_overseas/LiteOS_Lab/iot_link/network/lwm2m/wakaama_lwm2m/core/er-coap-13\er-coap-13.c **** coap_serialize_array_option(unsigned int number, unsigned int current_number, uint8_t *buffer, uint
 209:C:/Users/dtjld/Desktop/AIoT_software/LiteOS_Lab_overseas/LiteOS_Lab/iot_link/network/lwm2m/wakaama_lwm2m/core/er-coap-13\er-coap-13.c **** {
ARM GAS  C:\Users\dtjld\AppData\Local\Temp\ccpI0fza.s 			page 14


 549              		.loc 1 209 0
 550              		.cfi_startproc
 551              		@ args = 8, pretend = 0, frame = 40
 552              		@ frame_needed = 1, uses_anonymous_args = 0
 553 0000 80B5     		push	{r7, lr}
 554              	.LCFI28:
 555              		.cfi_def_cfa_offset 8
 556              		.cfi_offset 7, -8
 557              		.cfi_offset 14, -4
 558 0002 8AB0     		sub	sp, sp, #40
 559              	.LCFI29:
 560              		.cfi_def_cfa_offset 48
 561 0004 00AF     		add	r7, sp, #0
 562              	.LCFI30:
 563              		.cfi_def_cfa_register 7
 564 0006 F860     		str	r0, [r7, #12]
 565 0008 B960     		str	r1, [r7, #8]
 566 000a 7A60     		str	r2, [r7, #4]
 567 000c 3B60     		str	r3, [r7]
 210:C:/Users/dtjld/Desktop/AIoT_software/LiteOS_Lab_overseas/LiteOS_Lab/iot_link/network/lwm2m/wakaama_lwm2m/core/er-coap-13\er-coap-13.c ****     size_t i = 0;
 568              		.loc 1 210 0
 569 000e 0023     		movs	r3, #0
 570 0010 7B62     		str	r3, [r7, #36]
 211:C:/Users/dtjld/Desktop/AIoT_software/LiteOS_Lab_overseas/LiteOS_Lab/iot_link/network/lwm2m/wakaama_lwm2m/core/er-coap-13\er-coap-13.c **** 
 212:C:/Users/dtjld/Desktop/AIoT_software/LiteOS_Lab_overseas/LiteOS_Lab/iot_link/network/lwm2m/wakaama_lwm2m/core/er-coap-13\er-coap-13.c ****     if (split_char != '\0')
 571              		.loc 1 212 0
 572 0012 97F83430 		ldrb	r3, [r7, #52]	@ zero_extendqisi2
 573 0016 002B     		cmp	r3, #0
 574 0018 45D0     		beq	.L31
 575              	.LBB2:
 213:C:/Users/dtjld/Desktop/AIoT_software/LiteOS_Lab_overseas/LiteOS_Lab/iot_link/network/lwm2m/wakaama_lwm2m/core/er-coap-13\er-coap-13.c ****     {
 214:C:/Users/dtjld/Desktop/AIoT_software/LiteOS_Lab_overseas/LiteOS_Lab/iot_link/network/lwm2m/wakaama_lwm2m/core/er-coap-13\er-coap-13.c ****         size_t j;
 215:C:/Users/dtjld/Desktop/AIoT_software/LiteOS_Lab_overseas/LiteOS_Lab/iot_link/network/lwm2m/wakaama_lwm2m/core/er-coap-13\er-coap-13.c ****         uint8_t *part_start = array;
 576              		.loc 1 215 0
 577 001a 3B68     		ldr	r3, [r7]
 578 001c FB61     		str	r3, [r7, #28]
 216:C:/Users/dtjld/Desktop/AIoT_software/LiteOS_Lab_overseas/LiteOS_Lab/iot_link/network/lwm2m/wakaama_lwm2m/core/er-coap-13\er-coap-13.c ****         uint8_t *part_end = NULL;
 579              		.loc 1 216 0
 580 001e 0023     		movs	r3, #0
 581 0020 BB61     		str	r3, [r7, #24]
 217:C:/Users/dtjld/Desktop/AIoT_software/LiteOS_Lab_overseas/LiteOS_Lab/iot_link/network/lwm2m/wakaama_lwm2m/core/er-coap-13\er-coap-13.c ****         size_t temp_length;
 218:C:/Users/dtjld/Desktop/AIoT_software/LiteOS_Lab_overseas/LiteOS_Lab/iot_link/network/lwm2m/wakaama_lwm2m/core/er-coap-13\er-coap-13.c **** 
 219:C:/Users/dtjld/Desktop/AIoT_software/LiteOS_Lab_overseas/LiteOS_Lab/iot_link/network/lwm2m/wakaama_lwm2m/core/er-coap-13\er-coap-13.c ****         for (j = 0; j <= length; ++j)
 582              		.loc 1 219 0
 583 0022 0023     		movs	r3, #0
 584 0024 3B62     		str	r3, [r7, #32]
 585 0026 39E0     		b	.L32
 586              	.L35:
 220:C:/Users/dtjld/Desktop/AIoT_software/LiteOS_Lab_overseas/LiteOS_Lab/iot_link/network/lwm2m/wakaama_lwm2m/core/er-coap-13\er-coap-13.c ****         {
 221:C:/Users/dtjld/Desktop/AIoT_software/LiteOS_Lab_overseas/LiteOS_Lab/iot_link/network/lwm2m/wakaama_lwm2m/core/er-coap-13\er-coap-13.c ****             if (array[j] == split_char || j == length)
 587              		.loc 1 221 0
 588 0028 3A68     		ldr	r2, [r7]
 589 002a 3B6A     		ldr	r3, [r7, #32]
 590 002c 1344     		add	r3, r3, r2
 591 002e 1B78     		ldrb	r3, [r3]	@ zero_extendqisi2
 592 0030 97F83420 		ldrb	r2, [r7, #52]	@ zero_extendqisi2
 593 0034 9A42     		cmp	r2, r3
ARM GAS  C:\Users\dtjld\AppData\Local\Temp\ccpI0fza.s 			page 15


 594 0036 03D0     		beq	.L33
 595              		.loc 1 221 0 is_stmt 0 discriminator 1
 596 0038 3A6A     		ldr	r2, [r7, #32]
 597 003a 3B6B     		ldr	r3, [r7, #48]
 598 003c 9A42     		cmp	r2, r3
 599 003e 2AD1     		bne	.L34
 600              	.L33:
 222:C:/Users/dtjld/Desktop/AIoT_software/LiteOS_Lab_overseas/LiteOS_Lab/iot_link/network/lwm2m/wakaama_lwm2m/core/er-coap-13\er-coap-13.c ****             {
 223:C:/Users/dtjld/Desktop/AIoT_software/LiteOS_Lab_overseas/LiteOS_Lab/iot_link/network/lwm2m/wakaama_lwm2m/core/er-coap-13\er-coap-13.c ****                 part_end = array + j;
 601              		.loc 1 223 0 is_stmt 1
 602 0040 3A68     		ldr	r2, [r7]
 603 0042 3B6A     		ldr	r3, [r7, #32]
 604 0044 1344     		add	r3, r3, r2
 605 0046 BB61     		str	r3, [r7, #24]
 224:C:/Users/dtjld/Desktop/AIoT_software/LiteOS_Lab_overseas/LiteOS_Lab/iot_link/network/lwm2m/wakaama_lwm2m/core/er-coap-13\er-coap-13.c ****                 temp_length = part_end - part_start;
 606              		.loc 1 224 0
 607 0048 BA69     		ldr	r2, [r7, #24]
 608 004a FB69     		ldr	r3, [r7, #28]
 609 004c D31A     		subs	r3, r2, r3
 610 004e 7B61     		str	r3, [r7, #20]
 225:C:/Users/dtjld/Desktop/AIoT_software/LiteOS_Lab_overseas/LiteOS_Lab/iot_link/network/lwm2m/wakaama_lwm2m/core/er-coap-13\er-coap-13.c **** 
 226:C:/Users/dtjld/Desktop/AIoT_software/LiteOS_Lab_overseas/LiteOS_Lab/iot_link/network/lwm2m/wakaama_lwm2m/core/er-coap-13\er-coap-13.c ****                 i += coap_set_option_header(number - current_number, temp_length, &buffer[i]);
 611              		.loc 1 226 0
 612 0050 FA68     		ldr	r2, [r7, #12]
 613 0052 BB68     		ldr	r3, [r7, #8]
 614 0054 D01A     		subs	r0, r2, r3
 615 0056 7A68     		ldr	r2, [r7, #4]
 616 0058 7B6A     		ldr	r3, [r7, #36]
 617 005a 1344     		add	r3, r3, r2
 618 005c 1A46     		mov	r2, r3
 619 005e 7969     		ldr	r1, [r7, #20]
 620 0060 FFF7FEFF 		bl	coap_set_option_header
 621 0064 0246     		mov	r2, r0
 622 0066 7B6A     		ldr	r3, [r7, #36]
 623 0068 1344     		add	r3, r3, r2
 624 006a 7B62     		str	r3, [r7, #36]
 227:C:/Users/dtjld/Desktop/AIoT_software/LiteOS_Lab_overseas/LiteOS_Lab/iot_link/network/lwm2m/wakaama_lwm2m/core/er-coap-13\er-coap-13.c ****                 memcpy(&buffer[i], part_start, temp_length);
 625              		.loc 1 227 0
 626 006c 7A68     		ldr	r2, [r7, #4]
 627 006e 7B6A     		ldr	r3, [r7, #36]
 628 0070 1344     		add	r3, r3, r2
 629 0072 7A69     		ldr	r2, [r7, #20]
 630 0074 F969     		ldr	r1, [r7, #28]
 631 0076 1846     		mov	r0, r3
 632 0078 FFF7FEFF 		bl	memcpy
 228:C:/Users/dtjld/Desktop/AIoT_software/LiteOS_Lab_overseas/LiteOS_Lab/iot_link/network/lwm2m/wakaama_lwm2m/core/er-coap-13\er-coap-13.c ****                 i += temp_length;
 633              		.loc 1 228 0
 634 007c 7A6A     		ldr	r2, [r7, #36]
 635 007e 7B69     		ldr	r3, [r7, #20]
 636 0080 1344     		add	r3, r3, r2
 637 0082 7B62     		str	r3, [r7, #36]
 229:C:/Users/dtjld/Desktop/AIoT_software/LiteOS_Lab_overseas/LiteOS_Lab/iot_link/network/lwm2m/wakaama_lwm2m/core/er-coap-13\er-coap-13.c **** 
 230:C:/Users/dtjld/Desktop/AIoT_software/LiteOS_Lab_overseas/LiteOS_Lab/iot_link/network/lwm2m/wakaama_lwm2m/core/er-coap-13\er-coap-13.c ****                 PRINTF("OPTION type %u, delta %u, len %u, part [%.*s]\n", number, number - current_
 231:C:/Users/dtjld/Desktop/AIoT_software/LiteOS_Lab_overseas/LiteOS_Lab/iot_link/network/lwm2m/wakaama_lwm2m/core/er-coap-13\er-coap-13.c **** 
 232:C:/Users/dtjld/Desktop/AIoT_software/LiteOS_Lab_overseas/LiteOS_Lab/iot_link/network/lwm2m/wakaama_lwm2m/core/er-coap-13\er-coap-13.c ****                 ++j; /* skip the splitter */
 638              		.loc 1 232 0
 639 0084 3B6A     		ldr	r3, [r7, #32]
ARM GAS  C:\Users\dtjld\AppData\Local\Temp\ccpI0fza.s 			page 16


 640 0086 0133     		adds	r3, r3, #1
 641 0088 3B62     		str	r3, [r7, #32]
 233:C:/Users/dtjld/Desktop/AIoT_software/LiteOS_Lab_overseas/LiteOS_Lab/iot_link/network/lwm2m/wakaama_lwm2m/core/er-coap-13\er-coap-13.c ****                 current_number = number;
 642              		.loc 1 233 0
 643 008a FB68     		ldr	r3, [r7, #12]
 644 008c BB60     		str	r3, [r7, #8]
 234:C:/Users/dtjld/Desktop/AIoT_software/LiteOS_Lab_overseas/LiteOS_Lab/iot_link/network/lwm2m/wakaama_lwm2m/core/er-coap-13\er-coap-13.c ****                 part_start = array + j;
 645              		.loc 1 234 0
 646 008e 3A68     		ldr	r2, [r7]
 647 0090 3B6A     		ldr	r3, [r7, #32]
 648 0092 1344     		add	r3, r3, r2
 649 0094 FB61     		str	r3, [r7, #28]
 650              	.L34:
 219:C:/Users/dtjld/Desktop/AIoT_software/LiteOS_Lab_overseas/LiteOS_Lab/iot_link/network/lwm2m/wakaama_lwm2m/core/er-coap-13\er-coap-13.c ****         {
 651              		.loc 1 219 0 discriminator 2
 652 0096 3B6A     		ldr	r3, [r7, #32]
 653 0098 0133     		adds	r3, r3, #1
 654 009a 3B62     		str	r3, [r7, #32]
 655              	.L32:
 219:C:/Users/dtjld/Desktop/AIoT_software/LiteOS_Lab_overseas/LiteOS_Lab/iot_link/network/lwm2m/wakaama_lwm2m/core/er-coap-13\er-coap-13.c ****         {
 656              		.loc 1 219 0 is_stmt 0 discriminator 1
 657 009c 3A6A     		ldr	r2, [r7, #32]
 658 009e 3B6B     		ldr	r3, [r7, #48]
 659 00a0 9A42     		cmp	r2, r3
 660 00a2 C1D9     		bls	.L35
 661 00a4 19E0     		b	.L36
 662              	.L31:
 663              	.LBE2:
 235:C:/Users/dtjld/Desktop/AIoT_software/LiteOS_Lab_overseas/LiteOS_Lab/iot_link/network/lwm2m/wakaama_lwm2m/core/er-coap-13\er-coap-13.c ****             }
 236:C:/Users/dtjld/Desktop/AIoT_software/LiteOS_Lab_overseas/LiteOS_Lab/iot_link/network/lwm2m/wakaama_lwm2m/core/er-coap-13\er-coap-13.c ****         } /* for */
 237:C:/Users/dtjld/Desktop/AIoT_software/LiteOS_Lab_overseas/LiteOS_Lab/iot_link/network/lwm2m/wakaama_lwm2m/core/er-coap-13\er-coap-13.c ****     }
 238:C:/Users/dtjld/Desktop/AIoT_software/LiteOS_Lab_overseas/LiteOS_Lab/iot_link/network/lwm2m/wakaama_lwm2m/core/er-coap-13\er-coap-13.c ****     else
 239:C:/Users/dtjld/Desktop/AIoT_software/LiteOS_Lab_overseas/LiteOS_Lab/iot_link/network/lwm2m/wakaama_lwm2m/core/er-coap-13\er-coap-13.c ****     {
 240:C:/Users/dtjld/Desktop/AIoT_software/LiteOS_Lab_overseas/LiteOS_Lab/iot_link/network/lwm2m/wakaama_lwm2m/core/er-coap-13\er-coap-13.c ****         i += coap_set_option_header(number - current_number, length, &buffer[i]);
 664              		.loc 1 240 0 is_stmt 1
 665 00a6 FA68     		ldr	r2, [r7, #12]
 666 00a8 BB68     		ldr	r3, [r7, #8]
 667 00aa D01A     		subs	r0, r2, r3
 668 00ac 7A68     		ldr	r2, [r7, #4]
 669 00ae 7B6A     		ldr	r3, [r7, #36]
 670 00b0 1344     		add	r3, r3, r2
 671 00b2 1A46     		mov	r2, r3
 672 00b4 396B     		ldr	r1, [r7, #48]
 673 00b6 FFF7FEFF 		bl	coap_set_option_header
 674 00ba 0246     		mov	r2, r0
 675 00bc 7B6A     		ldr	r3, [r7, #36]
 676 00be 1344     		add	r3, r3, r2
 677 00c0 7B62     		str	r3, [r7, #36]
 241:C:/Users/dtjld/Desktop/AIoT_software/LiteOS_Lab_overseas/LiteOS_Lab/iot_link/network/lwm2m/wakaama_lwm2m/core/er-coap-13\er-coap-13.c ****         memcpy(&buffer[i], array, length);
 678              		.loc 1 241 0
 679 00c2 7A68     		ldr	r2, [r7, #4]
 680 00c4 7B6A     		ldr	r3, [r7, #36]
 681 00c6 1344     		add	r3, r3, r2
 682 00c8 3A6B     		ldr	r2, [r7, #48]
 683 00ca 3968     		ldr	r1, [r7]
 684 00cc 1846     		mov	r0, r3
 685 00ce FFF7FEFF 		bl	memcpy
ARM GAS  C:\Users\dtjld\AppData\Local\Temp\ccpI0fza.s 			page 17


 242:C:/Users/dtjld/Desktop/AIoT_software/LiteOS_Lab_overseas/LiteOS_Lab/iot_link/network/lwm2m/wakaama_lwm2m/core/er-coap-13\er-coap-13.c ****         i += length;
 686              		.loc 1 242 0
 687 00d2 7A6A     		ldr	r2, [r7, #36]
 688 00d4 3B6B     		ldr	r3, [r7, #48]
 689 00d6 1344     		add	r3, r3, r2
 690 00d8 7B62     		str	r3, [r7, #36]
 691              	.L36:
 243:C:/Users/dtjld/Desktop/AIoT_software/LiteOS_Lab_overseas/LiteOS_Lab/iot_link/network/lwm2m/wakaama_lwm2m/core/er-coap-13\er-coap-13.c **** 
 244:C:/Users/dtjld/Desktop/AIoT_software/LiteOS_Lab_overseas/LiteOS_Lab/iot_link/network/lwm2m/wakaama_lwm2m/core/er-coap-13\er-coap-13.c ****         PRINTF("OPTION type %u, delta %u, len %u\n", number, number - current_number, length);
 245:C:/Users/dtjld/Desktop/AIoT_software/LiteOS_Lab_overseas/LiteOS_Lab/iot_link/network/lwm2m/wakaama_lwm2m/core/er-coap-13\er-coap-13.c ****     }
 246:C:/Users/dtjld/Desktop/AIoT_software/LiteOS_Lab_overseas/LiteOS_Lab/iot_link/network/lwm2m/wakaama_lwm2m/core/er-coap-13\er-coap-13.c **** 
 247:C:/Users/dtjld/Desktop/AIoT_software/LiteOS_Lab_overseas/LiteOS_Lab/iot_link/network/lwm2m/wakaama_lwm2m/core/er-coap-13\er-coap-13.c ****     return i;
 692              		.loc 1 247 0
 693 00da 7B6A     		ldr	r3, [r7, #36]
 248:C:/Users/dtjld/Desktop/AIoT_software/LiteOS_Lab_overseas/LiteOS_Lab/iot_link/network/lwm2m/wakaama_lwm2m/core/er-coap-13\er-coap-13.c **** }
 694              		.loc 1 248 0
 695 00dc 1846     		mov	r0, r3
 696 00de 2837     		adds	r7, r7, #40
 697              	.LCFI31:
 698              		.cfi_def_cfa_offset 8
 699 00e0 BD46     		mov	sp, r7
 700              	.LCFI32:
 701              		.cfi_def_cfa_register 13
 702              		@ sp needed
 703 00e2 80BD     		pop	{r7, pc}
 704              		.cfi_endproc
 705              	.LFE9:
 707              		.section	.text.coap_serialize_multi_option,"ax",%progbits
 708              		.align	1
 709              		.syntax unified
 710              		.thumb
 711              		.thumb_func
 712              		.fpu fpv4-sp-d16
 714              	coap_serialize_multi_option:
 715              	.LFB10:
 249:C:/Users/dtjld/Desktop/AIoT_software/LiteOS_Lab_overseas/LiteOS_Lab/iot_link/network/lwm2m/wakaama_lwm2m/core/er-coap-13\er-coap-13.c **** /*-----------------------------------------------------------------------------------*/
 250:C:/Users/dtjld/Desktop/AIoT_software/LiteOS_Lab_overseas/LiteOS_Lab/iot_link/network/lwm2m/wakaama_lwm2m/core/er-coap-13\er-coap-13.c **** static
 251:C:/Users/dtjld/Desktop/AIoT_software/LiteOS_Lab_overseas/LiteOS_Lab/iot_link/network/lwm2m/wakaama_lwm2m/core/er-coap-13\er-coap-13.c **** size_t
 252:C:/Users/dtjld/Desktop/AIoT_software/LiteOS_Lab_overseas/LiteOS_Lab/iot_link/network/lwm2m/wakaama_lwm2m/core/er-coap-13\er-coap-13.c **** coap_serialize_multi_option(unsigned int number, unsigned int current_number, uint8_t *buffer, mult
 253:C:/Users/dtjld/Desktop/AIoT_software/LiteOS_Lab_overseas/LiteOS_Lab/iot_link/network/lwm2m/wakaama_lwm2m/core/er-coap-13\er-coap-13.c **** {
 716              		.loc 1 253 0
 717              		.cfi_startproc
 718              		@ args = 0, pretend = 0, frame = 24
 719              		@ frame_needed = 1, uses_anonymous_args = 0
 720 0000 80B5     		push	{r7, lr}
 721              	.LCFI33:
 722              		.cfi_def_cfa_offset 8
 723              		.cfi_offset 7, -8
 724              		.cfi_offset 14, -4
 725 0002 86B0     		sub	sp, sp, #24
 726              	.LCFI34:
 727              		.cfi_def_cfa_offset 32
 728 0004 00AF     		add	r7, sp, #0
 729              	.LCFI35:
 730              		.cfi_def_cfa_register 7
 731 0006 F860     		str	r0, [r7, #12]
 732 0008 B960     		str	r1, [r7, #8]
ARM GAS  C:\Users\dtjld\AppData\Local\Temp\ccpI0fza.s 			page 18


 733 000a 7A60     		str	r2, [r7, #4]
 734 000c 3B60     		str	r3, [r7]
 254:C:/Users/dtjld/Desktop/AIoT_software/LiteOS_Lab_overseas/LiteOS_Lab/iot_link/network/lwm2m/wakaama_lwm2m/core/er-coap-13\er-coap-13.c ****     size_t i = 0;
 735              		.loc 1 254 0
 736 000e 0023     		movs	r3, #0
 737 0010 7B61     		str	r3, [r7, #20]
 255:C:/Users/dtjld/Desktop/AIoT_software/LiteOS_Lab_overseas/LiteOS_Lab/iot_link/network/lwm2m/wakaama_lwm2m/core/er-coap-13\er-coap-13.c ****     multi_option_t *j;
 256:C:/Users/dtjld/Desktop/AIoT_software/LiteOS_Lab_overseas/LiteOS_Lab/iot_link/network/lwm2m/wakaama_lwm2m/core/er-coap-13\er-coap-13.c **** 
 257:C:/Users/dtjld/Desktop/AIoT_software/LiteOS_Lab_overseas/LiteOS_Lab/iot_link/network/lwm2m/wakaama_lwm2m/core/er-coap-13\er-coap-13.c ****     for (j = array; j != NULL; j = j->next)
 738              		.loc 1 257 0
 739 0012 3B68     		ldr	r3, [r7]
 740 0014 3B61     		str	r3, [r7, #16]
 741 0016 24E0     		b	.L39
 742              	.L40:
 258:C:/Users/dtjld/Desktop/AIoT_software/LiteOS_Lab_overseas/LiteOS_Lab/iot_link/network/lwm2m/wakaama_lwm2m/core/er-coap-13\er-coap-13.c ****     {
 259:C:/Users/dtjld/Desktop/AIoT_software/LiteOS_Lab_overseas/LiteOS_Lab/iot_link/network/lwm2m/wakaama_lwm2m/core/er-coap-13\er-coap-13.c ****         i += coap_set_option_header(number - current_number, j->len, &buffer[i]);
 743              		.loc 1 259 0 discriminator 3
 744 0018 FA68     		ldr	r2, [r7, #12]
 745 001a BB68     		ldr	r3, [r7, #8]
 746 001c D01A     		subs	r0, r2, r3
 747 001e 3B69     		ldr	r3, [r7, #16]
 748 0020 5B79     		ldrb	r3, [r3, #5]	@ zero_extendqisi2
 749 0022 1946     		mov	r1, r3
 750 0024 7A68     		ldr	r2, [r7, #4]
 751 0026 7B69     		ldr	r3, [r7, #20]
 752 0028 1344     		add	r3, r3, r2
 753 002a 1A46     		mov	r2, r3
 754 002c FFF7FEFF 		bl	coap_set_option_header
 755 0030 0246     		mov	r2, r0
 756 0032 7B69     		ldr	r3, [r7, #20]
 757 0034 1344     		add	r3, r3, r2
 758 0036 7B61     		str	r3, [r7, #20]
 260:C:/Users/dtjld/Desktop/AIoT_software/LiteOS_Lab_overseas/LiteOS_Lab/iot_link/network/lwm2m/wakaama_lwm2m/core/er-coap-13\er-coap-13.c ****         current_number = number;
 759              		.loc 1 260 0 discriminator 3
 760 0038 FB68     		ldr	r3, [r7, #12]
 761 003a BB60     		str	r3, [r7, #8]
 261:C:/Users/dtjld/Desktop/AIoT_software/LiteOS_Lab_overseas/LiteOS_Lab/iot_link/network/lwm2m/wakaama_lwm2m/core/er-coap-13\er-coap-13.c ****         memcpy(&buffer[i], j->data, j->len);
 762              		.loc 1 261 0 discriminator 3
 763 003c 7A68     		ldr	r2, [r7, #4]
 764 003e 7B69     		ldr	r3, [r7, #20]
 765 0040 D018     		adds	r0, r2, r3
 766 0042 3B69     		ldr	r3, [r7, #16]
 767 0044 9968     		ldr	r1, [r3, #8]
 768 0046 3B69     		ldr	r3, [r7, #16]
 769 0048 5B79     		ldrb	r3, [r3, #5]	@ zero_extendqisi2
 770 004a 1A46     		mov	r2, r3
 771 004c FFF7FEFF 		bl	memcpy
 262:C:/Users/dtjld/Desktop/AIoT_software/LiteOS_Lab_overseas/LiteOS_Lab/iot_link/network/lwm2m/wakaama_lwm2m/core/er-coap-13\er-coap-13.c ****         i += j->len;
 772              		.loc 1 262 0 discriminator 3
 773 0050 3B69     		ldr	r3, [r7, #16]
 774 0052 5B79     		ldrb	r3, [r3, #5]	@ zero_extendqisi2
 775 0054 1A46     		mov	r2, r3
 776 0056 7B69     		ldr	r3, [r7, #20]
 777 0058 1344     		add	r3, r3, r2
 778 005a 7B61     		str	r3, [r7, #20]
 257:C:/Users/dtjld/Desktop/AIoT_software/LiteOS_Lab_overseas/LiteOS_Lab/iot_link/network/lwm2m/wakaama_lwm2m/core/er-coap-13\er-coap-13.c ****     {
 779              		.loc 1 257 0 discriminator 3
ARM GAS  C:\Users\dtjld\AppData\Local\Temp\ccpI0fza.s 			page 19


 780 005c 3B69     		ldr	r3, [r7, #16]
 781 005e 1B68     		ldr	r3, [r3]
 782 0060 3B61     		str	r3, [r7, #16]
 783              	.L39:
 257:C:/Users/dtjld/Desktop/AIoT_software/LiteOS_Lab_overseas/LiteOS_Lab/iot_link/network/lwm2m/wakaama_lwm2m/core/er-coap-13\er-coap-13.c ****     {
 784              		.loc 1 257 0 is_stmt 0 discriminator 1
 785 0062 3B69     		ldr	r3, [r7, #16]
 786 0064 002B     		cmp	r3, #0
 787 0066 D7D1     		bne	.L40
 263:C:/Users/dtjld/Desktop/AIoT_software/LiteOS_Lab_overseas/LiteOS_Lab/iot_link/network/lwm2m/wakaama_lwm2m/core/er-coap-13\er-coap-13.c ****     } /* for */
 264:C:/Users/dtjld/Desktop/AIoT_software/LiteOS_Lab_overseas/LiteOS_Lab/iot_link/network/lwm2m/wakaama_lwm2m/core/er-coap-13\er-coap-13.c **** 
 265:C:/Users/dtjld/Desktop/AIoT_software/LiteOS_Lab_overseas/LiteOS_Lab/iot_link/network/lwm2m/wakaama_lwm2m/core/er-coap-13\er-coap-13.c ****     return i;
 788              		.loc 1 265 0 is_stmt 1
 789 0068 7B69     		ldr	r3, [r7, #20]
 266:C:/Users/dtjld/Desktop/AIoT_software/LiteOS_Lab_overseas/LiteOS_Lab/iot_link/network/lwm2m/wakaama_lwm2m/core/er-coap-13\er-coap-13.c **** }
 790              		.loc 1 266 0
 791 006a 1846     		mov	r0, r3
 792 006c 1837     		adds	r7, r7, #24
 793              	.LCFI36:
 794              		.cfi_def_cfa_offset 8
 795 006e BD46     		mov	sp, r7
 796              	.LCFI37:
 797              		.cfi_def_cfa_register 13
 798              		@ sp needed
 799 0070 80BD     		pop	{r7, pc}
 800              		.cfi_endproc
 801              	.LFE10:
 803              		.section	.text.coap_merge_multi_option,"ax",%progbits
 804              		.align	1
 805              		.syntax unified
 806              		.thumb
 807              		.thumb_func
 808              		.fpu fpv4-sp-d16
 810              	coap_merge_multi_option:
 811              	.LFB11:
 267:C:/Users/dtjld/Desktop/AIoT_software/LiteOS_Lab_overseas/LiteOS_Lab/iot_link/network/lwm2m/wakaama_lwm2m/core/er-coap-13\er-coap-13.c **** /*-----------------------------------------------------------------------------------*/
 268:C:/Users/dtjld/Desktop/AIoT_software/LiteOS_Lab_overseas/LiteOS_Lab/iot_link/network/lwm2m/wakaama_lwm2m/core/er-coap-13\er-coap-13.c **** static
 269:C:/Users/dtjld/Desktop/AIoT_software/LiteOS_Lab_overseas/LiteOS_Lab/iot_link/network/lwm2m/wakaama_lwm2m/core/er-coap-13\er-coap-13.c **** void
 270:C:/Users/dtjld/Desktop/AIoT_software/LiteOS_Lab_overseas/LiteOS_Lab/iot_link/network/lwm2m/wakaama_lwm2m/core/er-coap-13\er-coap-13.c **** coap_merge_multi_option(uint8_t **dst, size_t *dst_len, uint8_t *option, size_t option_len, char se
 271:C:/Users/dtjld/Desktop/AIoT_software/LiteOS_Lab_overseas/LiteOS_Lab/iot_link/network/lwm2m/wakaama_lwm2m/core/er-coap-13\er-coap-13.c **** {
 812              		.loc 1 271 0
 813              		.cfi_startproc
 814              		@ args = 4, pretend = 0, frame = 16
 815              		@ frame_needed = 1, uses_anonymous_args = 0
 816 0000 80B5     		push	{r7, lr}
 817              	.LCFI38:
 818              		.cfi_def_cfa_offset 8
 819              		.cfi_offset 7, -8
 820              		.cfi_offset 14, -4
 821 0002 84B0     		sub	sp, sp, #16
 822              	.LCFI39:
 823              		.cfi_def_cfa_offset 24
 824 0004 00AF     		add	r7, sp, #0
 825              	.LCFI40:
 826              		.cfi_def_cfa_register 7
 827 0006 F860     		str	r0, [r7, #12]
 828 0008 B960     		str	r1, [r7, #8]
ARM GAS  C:\Users\dtjld\AppData\Local\Temp\ccpI0fza.s 			page 20


 829 000a 7A60     		str	r2, [r7, #4]
 830 000c 3B60     		str	r3, [r7]
 272:C:/Users/dtjld/Desktop/AIoT_software/LiteOS_Lab_overseas/LiteOS_Lab/iot_link/network/lwm2m/wakaama_lwm2m/core/er-coap-13\er-coap-13.c ****     /* Merge multiple options. */
 273:C:/Users/dtjld/Desktop/AIoT_software/LiteOS_Lab_overseas/LiteOS_Lab/iot_link/network/lwm2m/wakaama_lwm2m/core/er-coap-13\er-coap-13.c ****     if (*dst_len > 0)
 831              		.loc 1 273 0
 832 000e BB68     		ldr	r3, [r7, #8]
 833 0010 1B68     		ldr	r3, [r3]
 834 0012 002B     		cmp	r3, #0
 835 0014 1CD0     		beq	.L43
 274:C:/Users/dtjld/Desktop/AIoT_software/LiteOS_Lab_overseas/LiteOS_Lab/iot_link/network/lwm2m/wakaama_lwm2m/core/er-coap-13\er-coap-13.c ****     {
 275:C:/Users/dtjld/Desktop/AIoT_software/LiteOS_Lab_overseas/LiteOS_Lab/iot_link/network/lwm2m/wakaama_lwm2m/core/er-coap-13\er-coap-13.c ****         /* dst already contains an option: concatenate */
 276:C:/Users/dtjld/Desktop/AIoT_software/LiteOS_Lab_overseas/LiteOS_Lab/iot_link/network/lwm2m/wakaama_lwm2m/core/er-coap-13\er-coap-13.c ****         (*dst)[*dst_len] = separator;
 836              		.loc 1 276 0
 837 0016 FB68     		ldr	r3, [r7, #12]
 838 0018 1A68     		ldr	r2, [r3]
 839 001a BB68     		ldr	r3, [r7, #8]
 840 001c 1B68     		ldr	r3, [r3]
 841 001e 1344     		add	r3, r3, r2
 842 0020 3A7E     		ldrb	r2, [r7, #24]
 843 0022 1A70     		strb	r2, [r3]
 277:C:/Users/dtjld/Desktop/AIoT_software/LiteOS_Lab_overseas/LiteOS_Lab/iot_link/network/lwm2m/wakaama_lwm2m/core/er-coap-13\er-coap-13.c ****         *dst_len += 1;
 844              		.loc 1 277 0
 845 0024 BB68     		ldr	r3, [r7, #8]
 846 0026 1B68     		ldr	r3, [r3]
 847 0028 5A1C     		adds	r2, r3, #1
 848 002a BB68     		ldr	r3, [r7, #8]
 849 002c 1A60     		str	r2, [r3]
 278:C:/Users/dtjld/Desktop/AIoT_software/LiteOS_Lab_overseas/LiteOS_Lab/iot_link/network/lwm2m/wakaama_lwm2m/core/er-coap-13\er-coap-13.c **** 
 279:C:/Users/dtjld/Desktop/AIoT_software/LiteOS_Lab_overseas/LiteOS_Lab/iot_link/network/lwm2m/wakaama_lwm2m/core/er-coap-13\er-coap-13.c ****         /* memmove handles 2-byte option headers */
 280:C:/Users/dtjld/Desktop/AIoT_software/LiteOS_Lab_overseas/LiteOS_Lab/iot_link/network/lwm2m/wakaama_lwm2m/core/er-coap-13\er-coap-13.c ****         memmove((*dst) + (*dst_len), option, option_len);
 850              		.loc 1 280 0
 851 002e FB68     		ldr	r3, [r7, #12]
 852 0030 1A68     		ldr	r2, [r3]
 853 0032 BB68     		ldr	r3, [r7, #8]
 854 0034 1B68     		ldr	r3, [r3]
 855 0036 1344     		add	r3, r3, r2
 856 0038 3A68     		ldr	r2, [r7]
 857 003a 7968     		ldr	r1, [r7, #4]
 858 003c 1846     		mov	r0, r3
 859 003e FFF7FEFF 		bl	memmove
 281:C:/Users/dtjld/Desktop/AIoT_software/LiteOS_Lab_overseas/LiteOS_Lab/iot_link/network/lwm2m/wakaama_lwm2m/core/er-coap-13\er-coap-13.c **** 
 282:C:/Users/dtjld/Desktop/AIoT_software/LiteOS_Lab_overseas/LiteOS_Lab/iot_link/network/lwm2m/wakaama_lwm2m/core/er-coap-13\er-coap-13.c ****         *dst_len += option_len;
 860              		.loc 1 282 0
 861 0042 BB68     		ldr	r3, [r7, #8]
 862 0044 1A68     		ldr	r2, [r3]
 863 0046 3B68     		ldr	r3, [r7]
 864 0048 1A44     		add	r2, r2, r3
 865 004a BB68     		ldr	r3, [r7, #8]
 866 004c 1A60     		str	r2, [r3]
 283:C:/Users/dtjld/Desktop/AIoT_software/LiteOS_Lab_overseas/LiteOS_Lab/iot_link/network/lwm2m/wakaama_lwm2m/core/er-coap-13\er-coap-13.c ****     }
 284:C:/Users/dtjld/Desktop/AIoT_software/LiteOS_Lab_overseas/LiteOS_Lab/iot_link/network/lwm2m/wakaama_lwm2m/core/er-coap-13\er-coap-13.c ****     else
 285:C:/Users/dtjld/Desktop/AIoT_software/LiteOS_Lab_overseas/LiteOS_Lab/iot_link/network/lwm2m/wakaama_lwm2m/core/er-coap-13\er-coap-13.c ****     {
 286:C:/Users/dtjld/Desktop/AIoT_software/LiteOS_Lab_overseas/LiteOS_Lab/iot_link/network/lwm2m/wakaama_lwm2m/core/er-coap-13\er-coap-13.c ****         /* dst is empty: set to option */
 287:C:/Users/dtjld/Desktop/AIoT_software/LiteOS_Lab_overseas/LiteOS_Lab/iot_link/network/lwm2m/wakaama_lwm2m/core/er-coap-13\er-coap-13.c ****         *dst = option;
 288:C:/Users/dtjld/Desktop/AIoT_software/LiteOS_Lab_overseas/LiteOS_Lab/iot_link/network/lwm2m/wakaama_lwm2m/core/er-coap-13\er-coap-13.c ****         *dst_len = option_len;
 289:C:/Users/dtjld/Desktop/AIoT_software/LiteOS_Lab_overseas/LiteOS_Lab/iot_link/network/lwm2m/wakaama_lwm2m/core/er-coap-13\er-coap-13.c ****     }
 290:C:/Users/dtjld/Desktop/AIoT_software/LiteOS_Lab_overseas/LiteOS_Lab/iot_link/network/lwm2m/wakaama_lwm2m/core/er-coap-13\er-coap-13.c **** }
ARM GAS  C:\Users\dtjld\AppData\Local\Temp\ccpI0fza.s 			page 21


 867              		.loc 1 290 0
 868 004e 05E0     		b	.L45
 869              	.L43:
 287:C:/Users/dtjld/Desktop/AIoT_software/LiteOS_Lab_overseas/LiteOS_Lab/iot_link/network/lwm2m/wakaama_lwm2m/core/er-coap-13\er-coap-13.c ****         *dst_len = option_len;
 870              		.loc 1 287 0
 871 0050 FB68     		ldr	r3, [r7, #12]
 872 0052 7A68     		ldr	r2, [r7, #4]
 873 0054 1A60     		str	r2, [r3]
 288:C:/Users/dtjld/Desktop/AIoT_software/LiteOS_Lab_overseas/LiteOS_Lab/iot_link/network/lwm2m/wakaama_lwm2m/core/er-coap-13\er-coap-13.c ****     }
 874              		.loc 1 288 0
 875 0056 BB68     		ldr	r3, [r7, #8]
 876 0058 3A68     		ldr	r2, [r7]
 877 005a 1A60     		str	r2, [r3]
 878              	.L45:
 879              		.loc 1 290 0
 880 005c 00BF     		nop
 881 005e 1037     		adds	r7, r7, #16
 882              	.LCFI41:
 883              		.cfi_def_cfa_offset 8
 884 0060 BD46     		mov	sp, r7
 885              	.LCFI42:
 886              		.cfi_def_cfa_register 13
 887              		@ sp needed
 888 0062 80BD     		pop	{r7, pc}
 889              		.cfi_endproc
 890              	.LFE11:
 892              		.section	.text.coap_add_multi_option,"ax",%progbits
 893              		.align	1
 894              		.global	coap_add_multi_option
 895              		.syntax unified
 896              		.thumb
 897              		.thumb_func
 898              		.fpu fpv4-sp-d16
 900              	coap_add_multi_option:
 901              	.LFB12:
 291:C:/Users/dtjld/Desktop/AIoT_software/LiteOS_Lab_overseas/LiteOS_Lab/iot_link/network/lwm2m/wakaama_lwm2m/core/er-coap-13\er-coap-13.c **** 
 292:C:/Users/dtjld/Desktop/AIoT_software/LiteOS_Lab_overseas/LiteOS_Lab/iot_link/network/lwm2m/wakaama_lwm2m/core/er-coap-13\er-coap-13.c **** void
 293:C:/Users/dtjld/Desktop/AIoT_software/LiteOS_Lab_overseas/LiteOS_Lab/iot_link/network/lwm2m/wakaama_lwm2m/core/er-coap-13\er-coap-13.c **** coap_add_multi_option(multi_option_t **dst, uint8_t *option, size_t option_len, uint8_t is_static)
 294:C:/Users/dtjld/Desktop/AIoT_software/LiteOS_Lab_overseas/LiteOS_Lab/iot_link/network/lwm2m/wakaama_lwm2m/core/er-coap-13\er-coap-13.c **** {
 902              		.loc 1 294 0
 903              		.cfi_startproc
 904              		@ args = 0, pretend = 0, frame = 24
 905              		@ frame_needed = 1, uses_anonymous_args = 0
 906 0000 80B5     		push	{r7, lr}
 907              	.LCFI43:
 908              		.cfi_def_cfa_offset 8
 909              		.cfi_offset 7, -8
 910              		.cfi_offset 14, -4
 911 0002 86B0     		sub	sp, sp, #24
 912              	.LCFI44:
 913              		.cfi_def_cfa_offset 32
 914 0004 00AF     		add	r7, sp, #0
 915              	.LCFI45:
 916              		.cfi_def_cfa_register 7
 917 0006 F860     		str	r0, [r7, #12]
 918 0008 B960     		str	r1, [r7, #8]
 919 000a 7A60     		str	r2, [r7, #4]
ARM GAS  C:\Users\dtjld\AppData\Local\Temp\ccpI0fza.s 			page 22


 920 000c FB70     		strb	r3, [r7, #3]
 295:C:/Users/dtjld/Desktop/AIoT_software/LiteOS_Lab_overseas/LiteOS_Lab/iot_link/network/lwm2m/wakaama_lwm2m/core/er-coap-13\er-coap-13.c ****     multi_option_t *opt = (multi_option_t *)lwm2m_malloc(sizeof(multi_option_t));
 921              		.loc 1 295 0
 922 000e 0C20     		movs	r0, #12
 923 0010 FFF7FEFF 		bl	lwm2m_malloc
 924 0014 3861     		str	r0, [r7, #16]
 296:C:/Users/dtjld/Desktop/AIoT_software/LiteOS_Lab_overseas/LiteOS_Lab/iot_link/network/lwm2m/wakaama_lwm2m/core/er-coap-13\er-coap-13.c **** 
 297:C:/Users/dtjld/Desktop/AIoT_software/LiteOS_Lab_overseas/LiteOS_Lab/iot_link/network/lwm2m/wakaama_lwm2m/core/er-coap-13\er-coap-13.c ****     if (opt)
 925              		.loc 1 297 0
 926 0016 3B69     		ldr	r3, [r7, #16]
 927 0018 002B     		cmp	r3, #0
 928 001a 3ED0     		beq	.L46
 298:C:/Users/dtjld/Desktop/AIoT_software/LiteOS_Lab_overseas/LiteOS_Lab/iot_link/network/lwm2m/wakaama_lwm2m/core/er-coap-13\er-coap-13.c ****     {
 299:C:/Users/dtjld/Desktop/AIoT_software/LiteOS_Lab_overseas/LiteOS_Lab/iot_link/network/lwm2m/wakaama_lwm2m/core/er-coap-13\er-coap-13.c ****         opt->next = NULL;
 929              		.loc 1 299 0
 930 001c 3B69     		ldr	r3, [r7, #16]
 931 001e 0022     		movs	r2, #0
 932 0020 1A60     		str	r2, [r3]
 300:C:/Users/dtjld/Desktop/AIoT_software/LiteOS_Lab_overseas/LiteOS_Lab/iot_link/network/lwm2m/wakaama_lwm2m/core/er-coap-13\er-coap-13.c ****         opt->len = (uint8_t)option_len;
 933              		.loc 1 300 0
 934 0022 7B68     		ldr	r3, [r7, #4]
 935 0024 DAB2     		uxtb	r2, r3
 936 0026 3B69     		ldr	r3, [r7, #16]
 937 0028 5A71     		strb	r2, [r3, #5]
 301:C:/Users/dtjld/Desktop/AIoT_software/LiteOS_Lab_overseas/LiteOS_Lab/iot_link/network/lwm2m/wakaama_lwm2m/core/er-coap-13\er-coap-13.c ****         if (is_static)
 938              		.loc 1 301 0
 939 002a FB78     		ldrb	r3, [r7, #3]	@ zero_extendqisi2
 940 002c 002B     		cmp	r3, #0
 941 002e 06D0     		beq	.L48
 302:C:/Users/dtjld/Desktop/AIoT_software/LiteOS_Lab_overseas/LiteOS_Lab/iot_link/network/lwm2m/wakaama_lwm2m/core/er-coap-13\er-coap-13.c ****         {
 303:C:/Users/dtjld/Desktop/AIoT_software/LiteOS_Lab_overseas/LiteOS_Lab/iot_link/network/lwm2m/wakaama_lwm2m/core/er-coap-13\er-coap-13.c ****             opt->data = option;
 942              		.loc 1 303 0
 943 0030 3B69     		ldr	r3, [r7, #16]
 944 0032 BA68     		ldr	r2, [r7, #8]
 945 0034 9A60     		str	r2, [r3, #8]
 304:C:/Users/dtjld/Desktop/AIoT_software/LiteOS_Lab_overseas/LiteOS_Lab/iot_link/network/lwm2m/wakaama_lwm2m/core/er-coap-13\er-coap-13.c ****             opt->is_static = 1;
 946              		.loc 1 304 0
 947 0036 3B69     		ldr	r3, [r7, #16]
 948 0038 0122     		movs	r2, #1
 949 003a 1A71     		strb	r2, [r3, #4]
 950 003c 17E0     		b	.L49
 951              	.L48:
 305:C:/Users/dtjld/Desktop/AIoT_software/LiteOS_Lab_overseas/LiteOS_Lab/iot_link/network/lwm2m/wakaama_lwm2m/core/er-coap-13\er-coap-13.c ****         }
 306:C:/Users/dtjld/Desktop/AIoT_software/LiteOS_Lab_overseas/LiteOS_Lab/iot_link/network/lwm2m/wakaama_lwm2m/core/er-coap-13\er-coap-13.c ****         else
 307:C:/Users/dtjld/Desktop/AIoT_software/LiteOS_Lab_overseas/LiteOS_Lab/iot_link/network/lwm2m/wakaama_lwm2m/core/er-coap-13\er-coap-13.c ****         {
 308:C:/Users/dtjld/Desktop/AIoT_software/LiteOS_Lab_overseas/LiteOS_Lab/iot_link/network/lwm2m/wakaama_lwm2m/core/er-coap-13\er-coap-13.c ****             opt->is_static = 0;
 952              		.loc 1 308 0
 953 003e 3B69     		ldr	r3, [r7, #16]
 954 0040 0022     		movs	r2, #0
 955 0042 1A71     		strb	r2, [r3, #4]
 309:C:/Users/dtjld/Desktop/AIoT_software/LiteOS_Lab_overseas/LiteOS_Lab/iot_link/network/lwm2m/wakaama_lwm2m/core/er-coap-13\er-coap-13.c ****             opt->data = (uint8_t *)lwm2m_malloc(option_len);
 956              		.loc 1 309 0
 957 0044 7868     		ldr	r0, [r7, #4]
 958 0046 FFF7FEFF 		bl	lwm2m_malloc
 959 004a 0246     		mov	r2, r0
 960 004c 3B69     		ldr	r3, [r7, #16]
 961 004e 9A60     		str	r2, [r3, #8]
ARM GAS  C:\Users\dtjld\AppData\Local\Temp\ccpI0fza.s 			page 23


 310:C:/Users/dtjld/Desktop/AIoT_software/LiteOS_Lab_overseas/LiteOS_Lab/iot_link/network/lwm2m/wakaama_lwm2m/core/er-coap-13\er-coap-13.c ****             if (opt->data == NULL)
 962              		.loc 1 310 0
 963 0050 3B69     		ldr	r3, [r7, #16]
 964 0052 9B68     		ldr	r3, [r3, #8]
 965 0054 002B     		cmp	r3, #0
 966 0056 03D1     		bne	.L50
 311:C:/Users/dtjld/Desktop/AIoT_software/LiteOS_Lab_overseas/LiteOS_Lab/iot_link/network/lwm2m/wakaama_lwm2m/core/er-coap-13\er-coap-13.c ****             {
 312:C:/Users/dtjld/Desktop/AIoT_software/LiteOS_Lab_overseas/LiteOS_Lab/iot_link/network/lwm2m/wakaama_lwm2m/core/er-coap-13\er-coap-13.c ****                 lwm2m_free(opt);
 967              		.loc 1 312 0
 968 0058 3869     		ldr	r0, [r7, #16]
 969 005a FFF7FEFF 		bl	lwm2m_free
 313:C:/Users/dtjld/Desktop/AIoT_software/LiteOS_Lab_overseas/LiteOS_Lab/iot_link/network/lwm2m/wakaama_lwm2m/core/er-coap-13\er-coap-13.c ****                 return;
 970              		.loc 1 313 0
 971 005e 1CE0     		b	.L46
 972              	.L50:
 314:C:/Users/dtjld/Desktop/AIoT_software/LiteOS_Lab_overseas/LiteOS_Lab/iot_link/network/lwm2m/wakaama_lwm2m/core/er-coap-13\er-coap-13.c ****             }
 315:C:/Users/dtjld/Desktop/AIoT_software/LiteOS_Lab_overseas/LiteOS_Lab/iot_link/network/lwm2m/wakaama_lwm2m/core/er-coap-13\er-coap-13.c ****             memcpy(opt->data, option, option_len);
 973              		.loc 1 315 0
 974 0060 3B69     		ldr	r3, [r7, #16]
 975 0062 9B68     		ldr	r3, [r3, #8]
 976 0064 7A68     		ldr	r2, [r7, #4]
 977 0066 B968     		ldr	r1, [r7, #8]
 978 0068 1846     		mov	r0, r3
 979 006a FFF7FEFF 		bl	memcpy
 980              	.L49:
 316:C:/Users/dtjld/Desktop/AIoT_software/LiteOS_Lab_overseas/LiteOS_Lab/iot_link/network/lwm2m/wakaama_lwm2m/core/er-coap-13\er-coap-13.c ****         }
 317:C:/Users/dtjld/Desktop/AIoT_software/LiteOS_Lab_overseas/LiteOS_Lab/iot_link/network/lwm2m/wakaama_lwm2m/core/er-coap-13\er-coap-13.c **** 
 318:C:/Users/dtjld/Desktop/AIoT_software/LiteOS_Lab_overseas/LiteOS_Lab/iot_link/network/lwm2m/wakaama_lwm2m/core/er-coap-13\er-coap-13.c ****         if (*dst)
 981              		.loc 1 318 0
 982 006e FB68     		ldr	r3, [r7, #12]
 983 0070 1B68     		ldr	r3, [r3]
 984 0072 002B     		cmp	r3, #0
 985 0074 0ED0     		beq	.L51
 986              	.LBB3:
 319:C:/Users/dtjld/Desktop/AIoT_software/LiteOS_Lab_overseas/LiteOS_Lab/iot_link/network/lwm2m/wakaama_lwm2m/core/er-coap-13\er-coap-13.c ****         {
 320:C:/Users/dtjld/Desktop/AIoT_software/LiteOS_Lab_overseas/LiteOS_Lab/iot_link/network/lwm2m/wakaama_lwm2m/core/er-coap-13\er-coap-13.c ****             multi_option_t *i = *dst;
 987              		.loc 1 320 0
 988 0076 FB68     		ldr	r3, [r7, #12]
 989 0078 1B68     		ldr	r3, [r3]
 990 007a 7B61     		str	r3, [r7, #20]
 321:C:/Users/dtjld/Desktop/AIoT_software/LiteOS_Lab_overseas/LiteOS_Lab/iot_link/network/lwm2m/wakaama_lwm2m/core/er-coap-13\er-coap-13.c ****             while (i->next)
 991              		.loc 1 321 0
 992 007c 02E0     		b	.L52
 993              	.L53:
 322:C:/Users/dtjld/Desktop/AIoT_software/LiteOS_Lab_overseas/LiteOS_Lab/iot_link/network/lwm2m/wakaama_lwm2m/core/er-coap-13\er-coap-13.c ****             {
 323:C:/Users/dtjld/Desktop/AIoT_software/LiteOS_Lab_overseas/LiteOS_Lab/iot_link/network/lwm2m/wakaama_lwm2m/core/er-coap-13\er-coap-13.c ****                 i = i->next;
 994              		.loc 1 323 0
 995 007e 7B69     		ldr	r3, [r7, #20]
 996 0080 1B68     		ldr	r3, [r3]
 997 0082 7B61     		str	r3, [r7, #20]
 998              	.L52:
 321:C:/Users/dtjld/Desktop/AIoT_software/LiteOS_Lab_overseas/LiteOS_Lab/iot_link/network/lwm2m/wakaama_lwm2m/core/er-coap-13\er-coap-13.c ****             while (i->next)
 999              		.loc 1 321 0
 1000 0084 7B69     		ldr	r3, [r7, #20]
 1001 0086 1B68     		ldr	r3, [r3]
 1002 0088 002B     		cmp	r3, #0
 1003 008a F8D1     		bne	.L53
ARM GAS  C:\Users\dtjld\AppData\Local\Temp\ccpI0fza.s 			page 24


 324:C:/Users/dtjld/Desktop/AIoT_software/LiteOS_Lab_overseas/LiteOS_Lab/iot_link/network/lwm2m/wakaama_lwm2m/core/er-coap-13\er-coap-13.c ****             }
 325:C:/Users/dtjld/Desktop/AIoT_software/LiteOS_Lab_overseas/LiteOS_Lab/iot_link/network/lwm2m/wakaama_lwm2m/core/er-coap-13\er-coap-13.c ****             i->next = opt;
 1004              		.loc 1 325 0
 1005 008c 7B69     		ldr	r3, [r7, #20]
 1006 008e 3A69     		ldr	r2, [r7, #16]
 1007 0090 1A60     		str	r2, [r3]
 1008              	.LBE3:
 1009 0092 02E0     		b	.L46
 1010              	.L51:
 326:C:/Users/dtjld/Desktop/AIoT_software/LiteOS_Lab_overseas/LiteOS_Lab/iot_link/network/lwm2m/wakaama_lwm2m/core/er-coap-13\er-coap-13.c ****         }
 327:C:/Users/dtjld/Desktop/AIoT_software/LiteOS_Lab_overseas/LiteOS_Lab/iot_link/network/lwm2m/wakaama_lwm2m/core/er-coap-13\er-coap-13.c ****         else
 328:C:/Users/dtjld/Desktop/AIoT_software/LiteOS_Lab_overseas/LiteOS_Lab/iot_link/network/lwm2m/wakaama_lwm2m/core/er-coap-13\er-coap-13.c ****         {
 329:C:/Users/dtjld/Desktop/AIoT_software/LiteOS_Lab_overseas/LiteOS_Lab/iot_link/network/lwm2m/wakaama_lwm2m/core/er-coap-13\er-coap-13.c ****             *dst = opt;
 1011              		.loc 1 329 0
 1012 0094 FB68     		ldr	r3, [r7, #12]
 1013 0096 3A69     		ldr	r2, [r7, #16]
 1014 0098 1A60     		str	r2, [r3]
 1015              	.L46:
 330:C:/Users/dtjld/Desktop/AIoT_software/LiteOS_Lab_overseas/LiteOS_Lab/iot_link/network/lwm2m/wakaama_lwm2m/core/er-coap-13\er-coap-13.c ****         }
 331:C:/Users/dtjld/Desktop/AIoT_software/LiteOS_Lab_overseas/LiteOS_Lab/iot_link/network/lwm2m/wakaama_lwm2m/core/er-coap-13\er-coap-13.c ****     }
 332:C:/Users/dtjld/Desktop/AIoT_software/LiteOS_Lab_overseas/LiteOS_Lab/iot_link/network/lwm2m/wakaama_lwm2m/core/er-coap-13\er-coap-13.c **** }
 1016              		.loc 1 332 0
 1017 009a 1837     		adds	r7, r7, #24
 1018              	.LCFI46:
 1019              		.cfi_def_cfa_offset 8
 1020 009c BD46     		mov	sp, r7
 1021              	.LCFI47:
 1022              		.cfi_def_cfa_register 13
 1023              		@ sp needed
 1024 009e 80BD     		pop	{r7, pc}
 1025              		.cfi_endproc
 1026              	.LFE12:
 1028              		.section	.text.free_multi_option,"ax",%progbits
 1029              		.align	1
 1030              		.global	free_multi_option
 1031              		.syntax unified
 1032              		.thumb
 1033              		.thumb_func
 1034              		.fpu fpv4-sp-d16
 1036              	free_multi_option:
 1037              	.LFB13:
 333:C:/Users/dtjld/Desktop/AIoT_software/LiteOS_Lab_overseas/LiteOS_Lab/iot_link/network/lwm2m/wakaama_lwm2m/core/er-coap-13\er-coap-13.c **** 
 334:C:/Users/dtjld/Desktop/AIoT_software/LiteOS_Lab_overseas/LiteOS_Lab/iot_link/network/lwm2m/wakaama_lwm2m/core/er-coap-13\er-coap-13.c **** void
 335:C:/Users/dtjld/Desktop/AIoT_software/LiteOS_Lab_overseas/LiteOS_Lab/iot_link/network/lwm2m/wakaama_lwm2m/core/er-coap-13\er-coap-13.c **** free_multi_option(multi_option_t *dst)
 336:C:/Users/dtjld/Desktop/AIoT_software/LiteOS_Lab_overseas/LiteOS_Lab/iot_link/network/lwm2m/wakaama_lwm2m/core/er-coap-13\er-coap-13.c **** {
 1038              		.loc 1 336 0
 1039              		.cfi_startproc
 1040              		@ args = 0, pretend = 0, frame = 16
 1041              		@ frame_needed = 1, uses_anonymous_args = 0
 1042 0000 80B5     		push	{r7, lr}
 1043              	.LCFI48:
 1044              		.cfi_def_cfa_offset 8
 1045              		.cfi_offset 7, -8
 1046              		.cfi_offset 14, -4
 1047 0002 84B0     		sub	sp, sp, #16
 1048              	.LCFI49:
 1049              		.cfi_def_cfa_offset 24
ARM GAS  C:\Users\dtjld\AppData\Local\Temp\ccpI0fza.s 			page 25


 1050 0004 00AF     		add	r7, sp, #0
 1051              	.LCFI50:
 1052              		.cfi_def_cfa_register 7
 1053 0006 7860     		str	r0, [r7, #4]
 337:C:/Users/dtjld/Desktop/AIoT_software/LiteOS_Lab_overseas/LiteOS_Lab/iot_link/network/lwm2m/wakaama_lwm2m/core/er-coap-13\er-coap-13.c ****     if (dst)
 1054              		.loc 1 337 0
 1055 0008 7B68     		ldr	r3, [r7, #4]
 1056 000a 002B     		cmp	r3, #0
 1057 000c 14D0     		beq	.L57
 1058              	.LBB4:
 338:C:/Users/dtjld/Desktop/AIoT_software/LiteOS_Lab_overseas/LiteOS_Lab/iot_link/network/lwm2m/wakaama_lwm2m/core/er-coap-13\er-coap-13.c ****     {
 339:C:/Users/dtjld/Desktop/AIoT_software/LiteOS_Lab_overseas/LiteOS_Lab/iot_link/network/lwm2m/wakaama_lwm2m/core/er-coap-13\er-coap-13.c ****         multi_option_t *n = dst->next;
 1059              		.loc 1 339 0
 1060 000e 7B68     		ldr	r3, [r7, #4]
 1061 0010 1B68     		ldr	r3, [r3]
 1062 0012 FB60     		str	r3, [r7, #12]
 340:C:/Users/dtjld/Desktop/AIoT_software/LiteOS_Lab_overseas/LiteOS_Lab/iot_link/network/lwm2m/wakaama_lwm2m/core/er-coap-13\er-coap-13.c ****         dst->next = NULL;
 1063              		.loc 1 340 0
 1064 0014 7B68     		ldr	r3, [r7, #4]
 1065 0016 0022     		movs	r2, #0
 1066 0018 1A60     		str	r2, [r3]
 341:C:/Users/dtjld/Desktop/AIoT_software/LiteOS_Lab_overseas/LiteOS_Lab/iot_link/network/lwm2m/wakaama_lwm2m/core/er-coap-13\er-coap-13.c ****         if (dst->is_static == 0)
 1067              		.loc 1 341 0
 1068 001a 7B68     		ldr	r3, [r7, #4]
 1069 001c 1B79     		ldrb	r3, [r3, #4]	@ zero_extendqisi2
 1070 001e 002B     		cmp	r3, #0
 1071 0020 04D1     		bne	.L56
 342:C:/Users/dtjld/Desktop/AIoT_software/LiteOS_Lab_overseas/LiteOS_Lab/iot_link/network/lwm2m/wakaama_lwm2m/core/er-coap-13\er-coap-13.c ****         {
 343:C:/Users/dtjld/Desktop/AIoT_software/LiteOS_Lab_overseas/LiteOS_Lab/iot_link/network/lwm2m/wakaama_lwm2m/core/er-coap-13\er-coap-13.c ****             lwm2m_free(dst->data);
 1072              		.loc 1 343 0
 1073 0022 7B68     		ldr	r3, [r7, #4]
 1074 0024 9B68     		ldr	r3, [r3, #8]
 1075 0026 1846     		mov	r0, r3
 1076 0028 FFF7FEFF 		bl	lwm2m_free
 1077              	.L56:
 344:C:/Users/dtjld/Desktop/AIoT_software/LiteOS_Lab_overseas/LiteOS_Lab/iot_link/network/lwm2m/wakaama_lwm2m/core/er-coap-13\er-coap-13.c ****         }
 345:C:/Users/dtjld/Desktop/AIoT_software/LiteOS_Lab_overseas/LiteOS_Lab/iot_link/network/lwm2m/wakaama_lwm2m/core/er-coap-13\er-coap-13.c ****         lwm2m_free(dst);
 1078              		.loc 1 345 0
 1079 002c 7868     		ldr	r0, [r7, #4]
 1080 002e FFF7FEFF 		bl	lwm2m_free
 346:C:/Users/dtjld/Desktop/AIoT_software/LiteOS_Lab_overseas/LiteOS_Lab/iot_link/network/lwm2m/wakaama_lwm2m/core/er-coap-13\er-coap-13.c ****         free_multi_option(n);
 1081              		.loc 1 346 0
 1082 0032 F868     		ldr	r0, [r7, #12]
 1083 0034 FFF7FEFF 		bl	free_multi_option
 1084              	.L57:
 1085              	.LBE4:
 347:C:/Users/dtjld/Desktop/AIoT_software/LiteOS_Lab_overseas/LiteOS_Lab/iot_link/network/lwm2m/wakaama_lwm2m/core/er-coap-13\er-coap-13.c ****     }
 348:C:/Users/dtjld/Desktop/AIoT_software/LiteOS_Lab_overseas/LiteOS_Lab/iot_link/network/lwm2m/wakaama_lwm2m/core/er-coap-13\er-coap-13.c **** }
 1086              		.loc 1 348 0
 1087 0038 00BF     		nop
 1088 003a 1037     		adds	r7, r7, #16
 1089              	.LCFI51:
 1090              		.cfi_def_cfa_offset 8
 1091 003c BD46     		mov	sp, r7
 1092              	.LCFI52:
 1093              		.cfi_def_cfa_register 13
 1094              		@ sp needed
ARM GAS  C:\Users\dtjld\AppData\Local\Temp\ccpI0fza.s 			page 26


 1095 003e 80BD     		pop	{r7, pc}
 1096              		.cfi_endproc
 1097              	.LFE13:
 1099              		.section	.text.coap_get_multi_option_as_string,"ax",%progbits
 1100              		.align	1
 1101              		.global	coap_get_multi_option_as_string
 1102              		.syntax unified
 1103              		.thumb
 1104              		.thumb_func
 1105              		.fpu fpv4-sp-d16
 1107              	coap_get_multi_option_as_string:
 1108              	.LFB14:
 349:C:/Users/dtjld/Desktop/AIoT_software/LiteOS_Lab_overseas/LiteOS_Lab/iot_link/network/lwm2m/wakaama_lwm2m/core/er-coap-13\er-coap-13.c **** 
 350:C:/Users/dtjld/Desktop/AIoT_software/LiteOS_Lab_overseas/LiteOS_Lab/iot_link/network/lwm2m/wakaama_lwm2m/core/er-coap-13\er-coap-13.c **** char *coap_get_multi_option_as_string(multi_option_t *option)
 351:C:/Users/dtjld/Desktop/AIoT_software/LiteOS_Lab_overseas/LiteOS_Lab/iot_link/network/lwm2m/wakaama_lwm2m/core/er-coap-13\er-coap-13.c **** {
 1109              		.loc 1 351 0
 1110              		.cfi_startproc
 1111              		@ args = 0, pretend = 0, frame = 24
 1112              		@ frame_needed = 1, uses_anonymous_args = 0
 1113 0000 80B5     		push	{r7, lr}
 1114              	.LCFI53:
 1115              		.cfi_def_cfa_offset 8
 1116              		.cfi_offset 7, -8
 1117              		.cfi_offset 14, -4
 1118 0002 86B0     		sub	sp, sp, #24
 1119              	.LCFI54:
 1120              		.cfi_def_cfa_offset 32
 1121 0004 00AF     		add	r7, sp, #0
 1122              	.LCFI55:
 1123              		.cfi_def_cfa_register 7
 1124 0006 7860     		str	r0, [r7, #4]
 352:C:/Users/dtjld/Desktop/AIoT_software/LiteOS_Lab_overseas/LiteOS_Lab/iot_link/network/lwm2m/wakaama_lwm2m/core/er-coap-13\er-coap-13.c ****     size_t len = 0;
 1125              		.loc 1 352 0
 1126 0008 0023     		movs	r3, #0
 1127 000a 7B61     		str	r3, [r7, #20]
 353:C:/Users/dtjld/Desktop/AIoT_software/LiteOS_Lab_overseas/LiteOS_Lab/iot_link/network/lwm2m/wakaama_lwm2m/core/er-coap-13\er-coap-13.c ****     multi_option_t *opt;
 354:C:/Users/dtjld/Desktop/AIoT_software/LiteOS_Lab_overseas/LiteOS_Lab/iot_link/network/lwm2m/wakaama_lwm2m/core/er-coap-13\er-coap-13.c ****     char *output;
 355:C:/Users/dtjld/Desktop/AIoT_software/LiteOS_Lab_overseas/LiteOS_Lab/iot_link/network/lwm2m/wakaama_lwm2m/core/er-coap-13\er-coap-13.c **** 
 356:C:/Users/dtjld/Desktop/AIoT_software/LiteOS_Lab_overseas/LiteOS_Lab/iot_link/network/lwm2m/wakaama_lwm2m/core/er-coap-13\er-coap-13.c ****     for (opt = option; opt != NULL; opt = opt->next)
 1128              		.loc 1 356 0
 1129 000c 7B68     		ldr	r3, [r7, #4]
 1130 000e 3B61     		str	r3, [r7, #16]
 1131 0010 09E0     		b	.L59
 1132              	.L60:
 357:C:/Users/dtjld/Desktop/AIoT_software/LiteOS_Lab_overseas/LiteOS_Lab/iot_link/network/lwm2m/wakaama_lwm2m/core/er-coap-13\er-coap-13.c ****     {
 358:C:/Users/dtjld/Desktop/AIoT_software/LiteOS_Lab_overseas/LiteOS_Lab/iot_link/network/lwm2m/wakaama_lwm2m/core/er-coap-13\er-coap-13.c ****         len += opt->len + 1;     // for separator
 1133              		.loc 1 358 0 discriminator 3
 1134 0012 3B69     		ldr	r3, [r7, #16]
 1135 0014 5B79     		ldrb	r3, [r3, #5]	@ zero_extendqisi2
 1136 0016 1A46     		mov	r2, r3
 1137 0018 7B69     		ldr	r3, [r7, #20]
 1138 001a 1344     		add	r3, r3, r2
 1139 001c 0133     		adds	r3, r3, #1
 1140 001e 7B61     		str	r3, [r7, #20]
 356:C:/Users/dtjld/Desktop/AIoT_software/LiteOS_Lab_overseas/LiteOS_Lab/iot_link/network/lwm2m/wakaama_lwm2m/core/er-coap-13\er-coap-13.c ****     {
 1141              		.loc 1 356 0 discriminator 3
 1142 0020 3B69     		ldr	r3, [r7, #16]
ARM GAS  C:\Users\dtjld\AppData\Local\Temp\ccpI0fza.s 			page 27


 1143 0022 1B68     		ldr	r3, [r3]
 1144 0024 3B61     		str	r3, [r7, #16]
 1145              	.L59:
 356:C:/Users/dtjld/Desktop/AIoT_software/LiteOS_Lab_overseas/LiteOS_Lab/iot_link/network/lwm2m/wakaama_lwm2m/core/er-coap-13\er-coap-13.c ****     {
 1146              		.loc 1 356 0 is_stmt 0 discriminator 1
 1147 0026 3B69     		ldr	r3, [r7, #16]
 1148 0028 002B     		cmp	r3, #0
 1149 002a F2D1     		bne	.L60
 359:C:/Users/dtjld/Desktop/AIoT_software/LiteOS_Lab_overseas/LiteOS_Lab/iot_link/network/lwm2m/wakaama_lwm2m/core/er-coap-13\er-coap-13.c ****     }
 360:C:/Users/dtjld/Desktop/AIoT_software/LiteOS_Lab_overseas/LiteOS_Lab/iot_link/network/lwm2m/wakaama_lwm2m/core/er-coap-13\er-coap-13.c **** 
 361:C:/Users/dtjld/Desktop/AIoT_software/LiteOS_Lab_overseas/LiteOS_Lab/iot_link/network/lwm2m/wakaama_lwm2m/core/er-coap-13\er-coap-13.c ****     output = lwm2m_malloc(len + 1); // for String terminator
 1150              		.loc 1 361 0 is_stmt 1
 1151 002c 7B69     		ldr	r3, [r7, #20]
 1152 002e 0133     		adds	r3, r3, #1
 1153 0030 1846     		mov	r0, r3
 1154 0032 FFF7FEFF 		bl	lwm2m_malloc
 1155 0036 B860     		str	r0, [r7, #8]
 362:C:/Users/dtjld/Desktop/AIoT_software/LiteOS_Lab_overseas/LiteOS_Lab/iot_link/network/lwm2m/wakaama_lwm2m/core/er-coap-13\er-coap-13.c ****     if (output != NULL)
 1156              		.loc 1 362 0
 1157 0038 BB68     		ldr	r3, [r7, #8]
 1158 003a 002B     		cmp	r3, #0
 1159 003c 27D0     		beq	.L61
 1160              	.LBB5:
 363:C:/Users/dtjld/Desktop/AIoT_software/LiteOS_Lab_overseas/LiteOS_Lab/iot_link/network/lwm2m/wakaama_lwm2m/core/er-coap-13\er-coap-13.c ****     {
 364:C:/Users/dtjld/Desktop/AIoT_software/LiteOS_Lab_overseas/LiteOS_Lab/iot_link/network/lwm2m/wakaama_lwm2m/core/er-coap-13\er-coap-13.c ****         size_t i = 0;
 1161              		.loc 1 364 0
 1162 003e 0023     		movs	r3, #0
 1163 0040 FB60     		str	r3, [r7, #12]
 365:C:/Users/dtjld/Desktop/AIoT_software/LiteOS_Lab_overseas/LiteOS_Lab/iot_link/network/lwm2m/wakaama_lwm2m/core/er-coap-13\er-coap-13.c **** 
 366:C:/Users/dtjld/Desktop/AIoT_software/LiteOS_Lab_overseas/LiteOS_Lab/iot_link/network/lwm2m/wakaama_lwm2m/core/er-coap-13\er-coap-13.c ****         for (opt = option; opt != NULL; opt = opt->next)
 1164              		.loc 1 366 0
 1165 0042 7B68     		ldr	r3, [r7, #4]
 1166 0044 3B61     		str	r3, [r7, #16]
 1167 0046 1AE0     		b	.L62
 1168              	.L63:
 367:C:/Users/dtjld/Desktop/AIoT_software/LiteOS_Lab_overseas/LiteOS_Lab/iot_link/network/lwm2m/wakaama_lwm2m/core/er-coap-13\er-coap-13.c ****         {
 368:C:/Users/dtjld/Desktop/AIoT_software/LiteOS_Lab_overseas/LiteOS_Lab/iot_link/network/lwm2m/wakaama_lwm2m/core/er-coap-13\er-coap-13.c ****             output[i] = '/';
 1169              		.loc 1 368 0 discriminator 3
 1170 0048 BA68     		ldr	r2, [r7, #8]
 1171 004a FB68     		ldr	r3, [r7, #12]
 1172 004c 1344     		add	r3, r3, r2
 1173 004e 2F22     		movs	r2, #47
 1174 0050 1A70     		strb	r2, [r3]
 369:C:/Users/dtjld/Desktop/AIoT_software/LiteOS_Lab_overseas/LiteOS_Lab/iot_link/network/lwm2m/wakaama_lwm2m/core/er-coap-13\er-coap-13.c ****             i += 1;
 1175              		.loc 1 369 0 discriminator 3
 1176 0052 FB68     		ldr	r3, [r7, #12]
 1177 0054 0133     		adds	r3, r3, #1
 1178 0056 FB60     		str	r3, [r7, #12]
 370:C:/Users/dtjld/Desktop/AIoT_software/LiteOS_Lab_overseas/LiteOS_Lab/iot_link/network/lwm2m/wakaama_lwm2m/core/er-coap-13\er-coap-13.c **** 
 371:C:/Users/dtjld/Desktop/AIoT_software/LiteOS_Lab_overseas/LiteOS_Lab/iot_link/network/lwm2m/wakaama_lwm2m/core/er-coap-13\er-coap-13.c ****             memmove(output + i, opt->data, opt->len);
 1179              		.loc 1 371 0 discriminator 3
 1180 0058 BA68     		ldr	r2, [r7, #8]
 1181 005a FB68     		ldr	r3, [r7, #12]
 1182 005c D018     		adds	r0, r2, r3
 1183 005e 3B69     		ldr	r3, [r7, #16]
 1184 0060 9968     		ldr	r1, [r3, #8]
 1185 0062 3B69     		ldr	r3, [r7, #16]
ARM GAS  C:\Users\dtjld\AppData\Local\Temp\ccpI0fza.s 			page 28


 1186 0064 5B79     		ldrb	r3, [r3, #5]	@ zero_extendqisi2
 1187 0066 1A46     		mov	r2, r3
 1188 0068 FFF7FEFF 		bl	memmove
 372:C:/Users/dtjld/Desktop/AIoT_software/LiteOS_Lab_overseas/LiteOS_Lab/iot_link/network/lwm2m/wakaama_lwm2m/core/er-coap-13\er-coap-13.c ****             i += opt->len;
 1189              		.loc 1 372 0 discriminator 3
 1190 006c 3B69     		ldr	r3, [r7, #16]
 1191 006e 5B79     		ldrb	r3, [r3, #5]	@ zero_extendqisi2
 1192 0070 1A46     		mov	r2, r3
 1193 0072 FB68     		ldr	r3, [r7, #12]
 1194 0074 1344     		add	r3, r3, r2
 1195 0076 FB60     		str	r3, [r7, #12]
 366:C:/Users/dtjld/Desktop/AIoT_software/LiteOS_Lab_overseas/LiteOS_Lab/iot_link/network/lwm2m/wakaama_lwm2m/core/er-coap-13\er-coap-13.c ****         {
 1196              		.loc 1 366 0 discriminator 3
 1197 0078 3B69     		ldr	r3, [r7, #16]
 1198 007a 1B68     		ldr	r3, [r3]
 1199 007c 3B61     		str	r3, [r7, #16]
 1200              	.L62:
 366:C:/Users/dtjld/Desktop/AIoT_software/LiteOS_Lab_overseas/LiteOS_Lab/iot_link/network/lwm2m/wakaama_lwm2m/core/er-coap-13\er-coap-13.c ****         {
 1201              		.loc 1 366 0 is_stmt 0 discriminator 1
 1202 007e 3B69     		ldr	r3, [r7, #16]
 1203 0080 002B     		cmp	r3, #0
 1204 0082 E1D1     		bne	.L63
 373:C:/Users/dtjld/Desktop/AIoT_software/LiteOS_Lab_overseas/LiteOS_Lab/iot_link/network/lwm2m/wakaama_lwm2m/core/er-coap-13\er-coap-13.c ****         }
 374:C:/Users/dtjld/Desktop/AIoT_software/LiteOS_Lab_overseas/LiteOS_Lab/iot_link/network/lwm2m/wakaama_lwm2m/core/er-coap-13\er-coap-13.c ****         output[i] = 0;
 1205              		.loc 1 374 0 is_stmt 1
 1206 0084 BA68     		ldr	r2, [r7, #8]
 1207 0086 FB68     		ldr	r3, [r7, #12]
 1208 0088 1344     		add	r3, r3, r2
 1209 008a 0022     		movs	r2, #0
 1210 008c 1A70     		strb	r2, [r3]
 1211              	.L61:
 1212              	.LBE5:
 375:C:/Users/dtjld/Desktop/AIoT_software/LiteOS_Lab_overseas/LiteOS_Lab/iot_link/network/lwm2m/wakaama_lwm2m/core/er-coap-13\er-coap-13.c ****     }
 376:C:/Users/dtjld/Desktop/AIoT_software/LiteOS_Lab_overseas/LiteOS_Lab/iot_link/network/lwm2m/wakaama_lwm2m/core/er-coap-13\er-coap-13.c **** 
 377:C:/Users/dtjld/Desktop/AIoT_software/LiteOS_Lab_overseas/LiteOS_Lab/iot_link/network/lwm2m/wakaama_lwm2m/core/er-coap-13\er-coap-13.c ****     return output;
 1213              		.loc 1 377 0
 1214 008e BB68     		ldr	r3, [r7, #8]
 378:C:/Users/dtjld/Desktop/AIoT_software/LiteOS_Lab_overseas/LiteOS_Lab/iot_link/network/lwm2m/wakaama_lwm2m/core/er-coap-13\er-coap-13.c **** }
 1215              		.loc 1 378 0
 1216 0090 1846     		mov	r0, r3
 1217 0092 1837     		adds	r7, r7, #24
 1218              	.LCFI56:
 1219              		.cfi_def_cfa_offset 8
 1220 0094 BD46     		mov	sp, r7
 1221              	.LCFI57:
 1222              		.cfi_def_cfa_register 13
 1223              		@ sp needed
 1224 0096 80BD     		pop	{r7, pc}
 1225              		.cfi_endproc
 1226              	.LFE14:
 1228              		.section	.text.coap_get_variable,"ax",%progbits
 1229              		.align	1
 1230              		.syntax unified
 1231              		.thumb
 1232              		.thumb_func
 1233              		.fpu fpv4-sp-d16
 1235              	coap_get_variable:
ARM GAS  C:\Users\dtjld\AppData\Local\Temp\ccpI0fza.s 			page 29


 1236              	.LFB15:
 379:C:/Users/dtjld/Desktop/AIoT_software/LiteOS_Lab_overseas/LiteOS_Lab/iot_link/network/lwm2m/wakaama_lwm2m/core/er-coap-13\er-coap-13.c **** 
 380:C:/Users/dtjld/Desktop/AIoT_software/LiteOS_Lab_overseas/LiteOS_Lab/iot_link/network/lwm2m/wakaama_lwm2m/core/er-coap-13\er-coap-13.c **** /*-----------------------------------------------------------------------------------*/
 381:C:/Users/dtjld/Desktop/AIoT_software/LiteOS_Lab_overseas/LiteOS_Lab/iot_link/network/lwm2m/wakaama_lwm2m/core/er-coap-13\er-coap-13.c **** static
 382:C:/Users/dtjld/Desktop/AIoT_software/LiteOS_Lab_overseas/LiteOS_Lab/iot_link/network/lwm2m/wakaama_lwm2m/core/er-coap-13\er-coap-13.c **** int
 383:C:/Users/dtjld/Desktop/AIoT_software/LiteOS_Lab_overseas/LiteOS_Lab/iot_link/network/lwm2m/wakaama_lwm2m/core/er-coap-13\er-coap-13.c **** coap_get_variable(const uint8_t *buffer, size_t length, const char *name, const char **output)
 384:C:/Users/dtjld/Desktop/AIoT_software/LiteOS_Lab_overseas/LiteOS_Lab/iot_link/network/lwm2m/wakaama_lwm2m/core/er-coap-13\er-coap-13.c **** {
 1237              		.loc 1 384 0
 1238              		.cfi_startproc
 1239              		@ args = 0, pretend = 0, frame = 32
 1240              		@ frame_needed = 1, uses_anonymous_args = 0
 1241 0000 80B5     		push	{r7, lr}
 1242              	.LCFI58:
 1243              		.cfi_def_cfa_offset 8
 1244              		.cfi_offset 7, -8
 1245              		.cfi_offset 14, -4
 1246 0002 88B0     		sub	sp, sp, #32
 1247              	.LCFI59:
 1248              		.cfi_def_cfa_offset 40
 1249 0004 00AF     		add	r7, sp, #0
 1250              	.LCFI60:
 1251              		.cfi_def_cfa_register 7
 1252 0006 F860     		str	r0, [r7, #12]
 1253 0008 B960     		str	r1, [r7, #8]
 1254 000a 7A60     		str	r2, [r7, #4]
 1255 000c 3B60     		str	r3, [r7]
 385:C:/Users/dtjld/Desktop/AIoT_software/LiteOS_Lab_overseas/LiteOS_Lab/iot_link/network/lwm2m/wakaama_lwm2m/core/er-coap-13\er-coap-13.c ****     const uint8_t *start = NULL;
 1256              		.loc 1 385 0
 1257 000e 0023     		movs	r3, #0
 1258 0010 FB61     		str	r3, [r7, #28]
 386:C:/Users/dtjld/Desktop/AIoT_software/LiteOS_Lab_overseas/LiteOS_Lab/iot_link/network/lwm2m/wakaama_lwm2m/core/er-coap-13\er-coap-13.c ****     const uint8_t *end = NULL;
 1259              		.loc 1 386 0
 1260 0012 0023     		movs	r3, #0
 1261 0014 7B61     		str	r3, [r7, #20]
 387:C:/Users/dtjld/Desktop/AIoT_software/LiteOS_Lab_overseas/LiteOS_Lab/iot_link/network/lwm2m/wakaama_lwm2m/core/er-coap-13\er-coap-13.c ****     const uint8_t *value_end = NULL;
 1262              		.loc 1 387 0
 1263 0016 0023     		movs	r3, #0
 1264 0018 BB61     		str	r3, [r7, #24]
 388:C:/Users/dtjld/Desktop/AIoT_software/LiteOS_Lab_overseas/LiteOS_Lab/iot_link/network/lwm2m/wakaama_lwm2m/core/er-coap-13\er-coap-13.c ****     size_t name_len = 0;
 1265              		.loc 1 388 0
 1266 001a 0023     		movs	r3, #0
 1267 001c 3B61     		str	r3, [r7, #16]
 389:C:/Users/dtjld/Desktop/AIoT_software/LiteOS_Lab_overseas/LiteOS_Lab/iot_link/network/lwm2m/wakaama_lwm2m/core/er-coap-13\er-coap-13.c **** 
 390:C:/Users/dtjld/Desktop/AIoT_software/LiteOS_Lab_overseas/LiteOS_Lab/iot_link/network/lwm2m/wakaama_lwm2m/core/er-coap-13\er-coap-13.c ****     /*initialize the output buffer first*/
 391:C:/Users/dtjld/Desktop/AIoT_software/LiteOS_Lab_overseas/LiteOS_Lab/iot_link/network/lwm2m/wakaama_lwm2m/core/er-coap-13\er-coap-13.c ****     *output = 0;
 1268              		.loc 1 391 0
 1269 001e 3B68     		ldr	r3, [r7]
 1270 0020 0022     		movs	r2, #0
 1271 0022 1A60     		str	r2, [r3]
 392:C:/Users/dtjld/Desktop/AIoT_software/LiteOS_Lab_overseas/LiteOS_Lab/iot_link/network/lwm2m/wakaama_lwm2m/core/er-coap-13\er-coap-13.c **** 
 393:C:/Users/dtjld/Desktop/AIoT_software/LiteOS_Lab_overseas/LiteOS_Lab/iot_link/network/lwm2m/wakaama_lwm2m/core/er-coap-13\er-coap-13.c ****     name_len = strlen(name);
 1272              		.loc 1 393 0
 1273 0024 7868     		ldr	r0, [r7, #4]
 1274 0026 FFF7FEFF 		bl	strlen
 1275 002a 3861     		str	r0, [r7, #16]
 394:C:/Users/dtjld/Desktop/AIoT_software/LiteOS_Lab_overseas/LiteOS_Lab/iot_link/network/lwm2m/wakaama_lwm2m/core/er-coap-13\er-coap-13.c ****     end = buffer + length;
 1276              		.loc 1 394 0
ARM GAS  C:\Users\dtjld\AppData\Local\Temp\ccpI0fza.s 			page 30


 1277 002c FA68     		ldr	r2, [r7, #12]
 1278 002e BB68     		ldr	r3, [r7, #8]
 1279 0030 1344     		add	r3, r3, r2
 1280 0032 7B61     		str	r3, [r7, #20]
 395:C:/Users/dtjld/Desktop/AIoT_software/LiteOS_Lab_overseas/LiteOS_Lab/iot_link/network/lwm2m/wakaama_lwm2m/core/er-coap-13\er-coap-13.c **** 
 396:C:/Users/dtjld/Desktop/AIoT_software/LiteOS_Lab_overseas/LiteOS_Lab/iot_link/network/lwm2m/wakaama_lwm2m/core/er-coap-13\er-coap-13.c ****     for (start = buffer; start + name_len < end; ++start)
 1281              		.loc 1 396 0
 1282 0034 FB68     		ldr	r3, [r7, #12]
 1283 0036 FB61     		str	r3, [r7, #28]
 1284 0038 33E0     		b	.L66
 1285              	.L71:
 397:C:/Users/dtjld/Desktop/AIoT_software/LiteOS_Lab_overseas/LiteOS_Lab/iot_link/network/lwm2m/wakaama_lwm2m/core/er-coap-13\er-coap-13.c ****     {
 398:C:/Users/dtjld/Desktop/AIoT_software/LiteOS_Lab_overseas/LiteOS_Lab/iot_link/network/lwm2m/wakaama_lwm2m/core/er-coap-13\er-coap-13.c ****         if ((start == buffer || start[-1] == '&') && start[name_len] == '=' &&
 1286              		.loc 1 398 0
 1287 003a FA69     		ldr	r2, [r7, #28]
 1288 003c FB68     		ldr	r3, [r7, #12]
 1289 003e 9A42     		cmp	r2, r3
 1290 0040 04D0     		beq	.L67
 1291              		.loc 1 398 0 is_stmt 0 discriminator 2
 1292 0042 FB69     		ldr	r3, [r7, #28]
 1293 0044 013B     		subs	r3, r3, #1
 1294 0046 1B78     		ldrb	r3, [r3]	@ zero_extendqisi2
 1295 0048 262B     		cmp	r3, #38
 1296 004a 27D1     		bne	.L68
 1297              	.L67:
 1298              		.loc 1 398 0 discriminator 3
 1299 004c FA69     		ldr	r2, [r7, #28]
 1300 004e 3B69     		ldr	r3, [r7, #16]
 1301 0050 1344     		add	r3, r3, r2
 1302 0052 1B78     		ldrb	r3, [r3]	@ zero_extendqisi2
 1303 0054 3D2B     		cmp	r3, #61
 1304 0056 21D1     		bne	.L68
 399:C:/Users/dtjld/Desktop/AIoT_software/LiteOS_Lab_overseas/LiteOS_Lab/iot_link/network/lwm2m/wakaama_lwm2m/core/er-coap-13\er-coap-13.c ****                 strncmp(name, (char *)start, name_len) == 0)
 1305              		.loc 1 399 0 is_stmt 1 discriminator 4
 1306 0058 3A69     		ldr	r2, [r7, #16]
 1307 005a F969     		ldr	r1, [r7, #28]
 1308 005c 7868     		ldr	r0, [r7, #4]
 1309 005e FFF7FEFF 		bl	strncmp
 1310 0062 0346     		mov	r3, r0
 398:C:/Users/dtjld/Desktop/AIoT_software/LiteOS_Lab_overseas/LiteOS_Lab/iot_link/network/lwm2m/wakaama_lwm2m/core/er-coap-13\er-coap-13.c ****                 strncmp(name, (char *)start, name_len) == 0)
 1311              		.loc 1 398 0 discriminator 4
 1312 0064 002B     		cmp	r3, #0
 1313 0066 19D1     		bne	.L68
 400:C:/Users/dtjld/Desktop/AIoT_software/LiteOS_Lab_overseas/LiteOS_Lab/iot_link/network/lwm2m/wakaama_lwm2m/core/er-coap-13\er-coap-13.c ****         {
 401:C:/Users/dtjld/Desktop/AIoT_software/LiteOS_Lab_overseas/LiteOS_Lab/iot_link/network/lwm2m/wakaama_lwm2m/core/er-coap-13\er-coap-13.c **** 
 402:C:/Users/dtjld/Desktop/AIoT_software/LiteOS_Lab_overseas/LiteOS_Lab/iot_link/network/lwm2m/wakaama_lwm2m/core/er-coap-13\er-coap-13.c ****             /* Point start to variable value */
 403:C:/Users/dtjld/Desktop/AIoT_software/LiteOS_Lab_overseas/LiteOS_Lab/iot_link/network/lwm2m/wakaama_lwm2m/core/er-coap-13\er-coap-13.c ****             start += name_len + 1;
 1314              		.loc 1 403 0
 1315 0068 3B69     		ldr	r3, [r7, #16]
 1316 006a 0133     		adds	r3, r3, #1
 1317 006c FA69     		ldr	r2, [r7, #28]
 1318 006e 1344     		add	r3, r3, r2
 1319 0070 FB61     		str	r3, [r7, #28]
 404:C:/Users/dtjld/Desktop/AIoT_software/LiteOS_Lab_overseas/LiteOS_Lab/iot_link/network/lwm2m/wakaama_lwm2m/core/er-coap-13\er-coap-13.c **** 
 405:C:/Users/dtjld/Desktop/AIoT_software/LiteOS_Lab_overseas/LiteOS_Lab/iot_link/network/lwm2m/wakaama_lwm2m/core/er-coap-13\er-coap-13.c ****             /* Point end to the end of the value */
 406:C:/Users/dtjld/Desktop/AIoT_software/LiteOS_Lab_overseas/LiteOS_Lab/iot_link/network/lwm2m/wakaama_lwm2m/core/er-coap-13\er-coap-13.c ****             value_end = (const uint8_t *) memchr(start, '&', end - start);
 1320              		.loc 1 406 0
ARM GAS  C:\Users\dtjld\AppData\Local\Temp\ccpI0fza.s 			page 31


 1321 0072 7A69     		ldr	r2, [r7, #20]
 1322 0074 FB69     		ldr	r3, [r7, #28]
 1323 0076 D31A     		subs	r3, r2, r3
 1324 0078 1A46     		mov	r2, r3
 1325 007a 2621     		movs	r1, #38
 1326 007c F869     		ldr	r0, [r7, #28]
 1327 007e FFF7FEFF 		bl	memchr
 1328 0082 B861     		str	r0, [r7, #24]
 407:C:/Users/dtjld/Desktop/AIoT_software/LiteOS_Lab_overseas/LiteOS_Lab/iot_link/network/lwm2m/wakaama_lwm2m/core/er-coap-13\er-coap-13.c ****             if (value_end == NULL)
 1329              		.loc 1 407 0
 1330 0084 BB69     		ldr	r3, [r7, #24]
 1331 0086 002B     		cmp	r3, #0
 1332 0088 01D1     		bne	.L69
 408:C:/Users/dtjld/Desktop/AIoT_software/LiteOS_Lab_overseas/LiteOS_Lab/iot_link/network/lwm2m/wakaama_lwm2m/core/er-coap-13\er-coap-13.c ****             {
 409:C:/Users/dtjld/Desktop/AIoT_software/LiteOS_Lab_overseas/LiteOS_Lab/iot_link/network/lwm2m/wakaama_lwm2m/core/er-coap-13\er-coap-13.c ****                 value_end = end;
 1333              		.loc 1 409 0
 1334 008a 7B69     		ldr	r3, [r7, #20]
 1335 008c BB61     		str	r3, [r7, #24]
 1336              	.L69:
 410:C:/Users/dtjld/Desktop/AIoT_software/LiteOS_Lab_overseas/LiteOS_Lab/iot_link/network/lwm2m/wakaama_lwm2m/core/er-coap-13\er-coap-13.c ****             }
 411:C:/Users/dtjld/Desktop/AIoT_software/LiteOS_Lab_overseas/LiteOS_Lab/iot_link/network/lwm2m/wakaama_lwm2m/core/er-coap-13\er-coap-13.c **** 
 412:C:/Users/dtjld/Desktop/AIoT_software/LiteOS_Lab_overseas/LiteOS_Lab/iot_link/network/lwm2m/wakaama_lwm2m/core/er-coap-13\er-coap-13.c ****             *output = (char *)start;
 1337              		.loc 1 412 0
 1338 008e 3B68     		ldr	r3, [r7]
 1339 0090 FA69     		ldr	r2, [r7, #28]
 1340 0092 1A60     		str	r2, [r3]
 413:C:/Users/dtjld/Desktop/AIoT_software/LiteOS_Lab_overseas/LiteOS_Lab/iot_link/network/lwm2m/wakaama_lwm2m/core/er-coap-13\er-coap-13.c **** 
 414:C:/Users/dtjld/Desktop/AIoT_software/LiteOS_Lab_overseas/LiteOS_Lab/iot_link/network/lwm2m/wakaama_lwm2m/core/er-coap-13\er-coap-13.c ****             return (value_end - start);
 1341              		.loc 1 414 0
 1342 0094 BA69     		ldr	r2, [r7, #24]
 1343 0096 FB69     		ldr	r3, [r7, #28]
 1344 0098 D31A     		subs	r3, r2, r3
 1345 009a 09E0     		b	.L70
 1346              	.L68:
 396:C:/Users/dtjld/Desktop/AIoT_software/LiteOS_Lab_overseas/LiteOS_Lab/iot_link/network/lwm2m/wakaama_lwm2m/core/er-coap-13\er-coap-13.c ****     {
 1347              		.loc 1 396 0 discriminator 2
 1348 009c FB69     		ldr	r3, [r7, #28]
 1349 009e 0133     		adds	r3, r3, #1
 1350 00a0 FB61     		str	r3, [r7, #28]
 1351              	.L66:
 396:C:/Users/dtjld/Desktop/AIoT_software/LiteOS_Lab_overseas/LiteOS_Lab/iot_link/network/lwm2m/wakaama_lwm2m/core/er-coap-13\er-coap-13.c ****     {
 1352              		.loc 1 396 0 is_stmt 0 discriminator 1
 1353 00a2 FA69     		ldr	r2, [r7, #28]
 1354 00a4 3B69     		ldr	r3, [r7, #16]
 1355 00a6 1344     		add	r3, r3, r2
 1356 00a8 7A69     		ldr	r2, [r7, #20]
 1357 00aa 9A42     		cmp	r2, r3
 1358 00ac C5D8     		bhi	.L71
 415:C:/Users/dtjld/Desktop/AIoT_software/LiteOS_Lab_overseas/LiteOS_Lab/iot_link/network/lwm2m/wakaama_lwm2m/core/er-coap-13\er-coap-13.c ****         }
 416:C:/Users/dtjld/Desktop/AIoT_software/LiteOS_Lab_overseas/LiteOS_Lab/iot_link/network/lwm2m/wakaama_lwm2m/core/er-coap-13\er-coap-13.c ****     }
 417:C:/Users/dtjld/Desktop/AIoT_software/LiteOS_Lab_overseas/LiteOS_Lab/iot_link/network/lwm2m/wakaama_lwm2m/core/er-coap-13\er-coap-13.c **** 
 418:C:/Users/dtjld/Desktop/AIoT_software/LiteOS_Lab_overseas/LiteOS_Lab/iot_link/network/lwm2m/wakaama_lwm2m/core/er-coap-13\er-coap-13.c ****     return 0;
 1359              		.loc 1 418 0 is_stmt 1
 1360 00ae 0023     		movs	r3, #0
 1361              	.L70:
 419:C:/Users/dtjld/Desktop/AIoT_software/LiteOS_Lab_overseas/LiteOS_Lab/iot_link/network/lwm2m/wakaama_lwm2m/core/er-coap-13\er-coap-13.c **** }
 1362              		.loc 1 419 0
ARM GAS  C:\Users\dtjld\AppData\Local\Temp\ccpI0fza.s 			page 32


 1363 00b0 1846     		mov	r0, r3
 1364 00b2 2037     		adds	r7, r7, #32
 1365              	.LCFI61:
 1366              		.cfi_def_cfa_offset 8
 1367 00b4 BD46     		mov	sp, r7
 1368              	.LCFI62:
 1369              		.cfi_def_cfa_register 13
 1370              		@ sp needed
 1371 00b6 80BD     		pop	{r7, pc}
 1372              		.cfi_endproc
 1373              	.LFE15:
 1375              		.section	.text.coap_get_mid,"ax",%progbits
 1376              		.align	1
 1377              		.global	coap_get_mid
 1378              		.syntax unified
 1379              		.thumb
 1380              		.thumb_func
 1381              		.fpu fpv4-sp-d16
 1383              	coap_get_mid:
 1384              	.LFB16:
 420:C:/Users/dtjld/Desktop/AIoT_software/LiteOS_Lab_overseas/LiteOS_Lab/iot_link/network/lwm2m/wakaama_lwm2m/core/er-coap-13\er-coap-13.c **** 
 421:C:/Users/dtjld/Desktop/AIoT_software/LiteOS_Lab_overseas/LiteOS_Lab/iot_link/network/lwm2m/wakaama_lwm2m/core/er-coap-13\er-coap-13.c **** /*-----------------------------------------------------------------------------------*/
 422:C:/Users/dtjld/Desktop/AIoT_software/LiteOS_Lab_overseas/LiteOS_Lab/iot_link/network/lwm2m/wakaama_lwm2m/core/er-coap-13\er-coap-13.c **** uint16_t
 423:C:/Users/dtjld/Desktop/AIoT_software/LiteOS_Lab_overseas/LiteOS_Lab/iot_link/network/lwm2m/wakaama_lwm2m/core/er-coap-13\er-coap-13.c **** coap_get_mid()
 424:C:/Users/dtjld/Desktop/AIoT_software/LiteOS_Lab_overseas/LiteOS_Lab/iot_link/network/lwm2m/wakaama_lwm2m/core/er-coap-13\er-coap-13.c **** {
 1385              		.loc 1 424 0
 1386              		.cfi_startproc
 1387              		@ args = 0, pretend = 0, frame = 0
 1388              		@ frame_needed = 1, uses_anonymous_args = 0
 1389              		@ link register save eliminated.
 1390 0000 80B4     		push	{r7}
 1391              	.LCFI63:
 1392              		.cfi_def_cfa_offset 4
 1393              		.cfi_offset 7, -4
 1394 0002 00AF     		add	r7, sp, #0
 1395              	.LCFI64:
 1396              		.cfi_def_cfa_register 7
 425:C:/Users/dtjld/Desktop/AIoT_software/LiteOS_Lab_overseas/LiteOS_Lab/iot_link/network/lwm2m/wakaama_lwm2m/core/er-coap-13\er-coap-13.c ****     return ++current_mid;
 1397              		.loc 1 425 0
 1398 0004 064B     		ldr	r3, .L74
 1399 0006 1B88     		ldrh	r3, [r3]
 1400 0008 0133     		adds	r3, r3, #1
 1401 000a 9AB2     		uxth	r2, r3
 1402 000c 044B     		ldr	r3, .L74
 1403 000e 1A80     		strh	r2, [r3]	@ movhi
 1404 0010 034B     		ldr	r3, .L74
 1405 0012 1B88     		ldrh	r3, [r3]
 426:C:/Users/dtjld/Desktop/AIoT_software/LiteOS_Lab_overseas/LiteOS_Lab/iot_link/network/lwm2m/wakaama_lwm2m/core/er-coap-13\er-coap-13.c **** }
 1406              		.loc 1 426 0
 1407 0014 1846     		mov	r0, r3
 1408 0016 BD46     		mov	sp, r7
 1409              	.LCFI65:
 1410              		.cfi_def_cfa_register 13
 1411              		@ sp needed
 1412 0018 5DF8047B 		ldr	r7, [sp], #4
 1413              	.LCFI66:
 1414              		.cfi_restore 7
ARM GAS  C:\Users\dtjld\AppData\Local\Temp\ccpI0fza.s 			page 33


 1415              		.cfi_def_cfa_offset 0
 1416 001c 7047     		bx	lr
 1417              	.L75:
 1418 001e 00BF     		.align	2
 1419              	.L74:
 1420 0020 00000000 		.word	current_mid
 1421              		.cfi_endproc
 1422              	.LFE16:
 1424              		.section	.text.coap_init_message,"ax",%progbits
 1425              		.align	1
 1426              		.global	coap_init_message
 1427              		.syntax unified
 1428              		.thumb
 1429              		.thumb_func
 1430              		.fpu fpv4-sp-d16
 1432              	coap_init_message:
 1433              	.LFB17:
 427:C:/Users/dtjld/Desktop/AIoT_software/LiteOS_Lab_overseas/LiteOS_Lab/iot_link/network/lwm2m/wakaama_lwm2m/core/er-coap-13\er-coap-13.c **** /*-----------------------------------------------------------------------------------*/
 428:C:/Users/dtjld/Desktop/AIoT_software/LiteOS_Lab_overseas/LiteOS_Lab/iot_link/network/lwm2m/wakaama_lwm2m/core/er-coap-13\er-coap-13.c **** /*- MEASSAGE PROCESSING -------------------------------------------------------------*/
 429:C:/Users/dtjld/Desktop/AIoT_software/LiteOS_Lab_overseas/LiteOS_Lab/iot_link/network/lwm2m/wakaama_lwm2m/core/er-coap-13\er-coap-13.c **** /*-----------------------------------------------------------------------------------*/
 430:C:/Users/dtjld/Desktop/AIoT_software/LiteOS_Lab_overseas/LiteOS_Lab/iot_link/network/lwm2m/wakaama_lwm2m/core/er-coap-13\er-coap-13.c **** void
 431:C:/Users/dtjld/Desktop/AIoT_software/LiteOS_Lab_overseas/LiteOS_Lab/iot_link/network/lwm2m/wakaama_lwm2m/core/er-coap-13\er-coap-13.c **** coap_init_message(void *packet, coap_message_type_t type, uint8_t code, uint16_t mid)
 432:C:/Users/dtjld/Desktop/AIoT_software/LiteOS_Lab_overseas/LiteOS_Lab/iot_link/network/lwm2m/wakaama_lwm2m/core/er-coap-13\er-coap-13.c **** {
 1434              		.loc 1 432 0
 1435              		.cfi_startproc
 1436              		@ args = 0, pretend = 0, frame = 16
 1437              		@ frame_needed = 1, uses_anonymous_args = 0
 1438 0000 80B5     		push	{r7, lr}
 1439              	.LCFI67:
 1440              		.cfi_def_cfa_offset 8
 1441              		.cfi_offset 7, -8
 1442              		.cfi_offset 14, -4
 1443 0002 84B0     		sub	sp, sp, #16
 1444              	.LCFI68:
 1445              		.cfi_def_cfa_offset 24
 1446 0004 00AF     		add	r7, sp, #0
 1447              	.LCFI69:
 1448              		.cfi_def_cfa_register 7
 1449 0006 7860     		str	r0, [r7, #4]
 1450 0008 0846     		mov	r0, r1
 1451 000a 1146     		mov	r1, r2
 1452 000c 1A46     		mov	r2, r3
 1453 000e 0346     		mov	r3, r0
 1454 0010 FB70     		strb	r3, [r7, #3]
 1455 0012 0B46     		mov	r3, r1
 1456 0014 BB70     		strb	r3, [r7, #2]
 1457 0016 1346     		mov	r3, r2	@ movhi
 1458 0018 3B80     		strh	r3, [r7]	@ movhi
 433:C:/Users/dtjld/Desktop/AIoT_software/LiteOS_Lab_overseas/LiteOS_Lab/iot_link/network/lwm2m/wakaama_lwm2m/core/er-coap-13\er-coap-13.c ****     coap_packet_t *const coap_pkt = (coap_packet_t *) packet;
 1459              		.loc 1 433 0
 1460 001a 7B68     		ldr	r3, [r7, #4]
 1461 001c FB60     		str	r3, [r7, #12]
 434:C:/Users/dtjld/Desktop/AIoT_software/LiteOS_Lab_overseas/LiteOS_Lab/iot_link/network/lwm2m/wakaama_lwm2m/core/er-coap-13\er-coap-13.c **** 
 435:C:/Users/dtjld/Desktop/AIoT_software/LiteOS_Lab_overseas/LiteOS_Lab/iot_link/network/lwm2m/wakaama_lwm2m/core/er-coap-13\er-coap-13.c ****     /* Important thing */
 436:C:/Users/dtjld/Desktop/AIoT_software/LiteOS_Lab_overseas/LiteOS_Lab/iot_link/network/lwm2m/wakaama_lwm2m/core/er-coap-13\er-coap-13.c ****     memset(coap_pkt, 0, sizeof(coap_packet_t));
 1462              		.loc 1 436 0
 1463 001e 8C22     		movs	r2, #140
ARM GAS  C:\Users\dtjld\AppData\Local\Temp\ccpI0fza.s 			page 34


 1464 0020 0021     		movs	r1, #0
 1465 0022 F868     		ldr	r0, [r7, #12]
 1466 0024 FFF7FEFF 		bl	memset
 437:C:/Users/dtjld/Desktop/AIoT_software/LiteOS_Lab_overseas/LiteOS_Lab/iot_link/network/lwm2m/wakaama_lwm2m/core/er-coap-13\er-coap-13.c **** 
 438:C:/Users/dtjld/Desktop/AIoT_software/LiteOS_Lab_overseas/LiteOS_Lab/iot_link/network/lwm2m/wakaama_lwm2m/core/er-coap-13\er-coap-13.c ****     coap_pkt->type = type;
 1467              		.loc 1 438 0
 1468 0028 FB68     		ldr	r3, [r7, #12]
 1469 002a FA78     		ldrb	r2, [r7, #3]
 1470 002c 5A71     		strb	r2, [r3, #5]
 439:C:/Users/dtjld/Desktop/AIoT_software/LiteOS_Lab_overseas/LiteOS_Lab/iot_link/network/lwm2m/wakaama_lwm2m/core/er-coap-13\er-coap-13.c ****     coap_pkt->code = code;
 1471              		.loc 1 439 0
 1472 002e FB68     		ldr	r3, [r7, #12]
 1473 0030 BA78     		ldrb	r2, [r7, #2]
 1474 0032 9A71     		strb	r2, [r3, #6]
 440:C:/Users/dtjld/Desktop/AIoT_software/LiteOS_Lab_overseas/LiteOS_Lab/iot_link/network/lwm2m/wakaama_lwm2m/core/er-coap-13\er-coap-13.c ****     coap_pkt->mid = mid;
 1475              		.loc 1 440 0
 1476 0034 FB68     		ldr	r3, [r7, #12]
 1477 0036 3A88     		ldrh	r2, [r7]	@ movhi
 1478 0038 1A81     		strh	r2, [r3, #8]	@ movhi
 441:C:/Users/dtjld/Desktop/AIoT_software/LiteOS_Lab_overseas/LiteOS_Lab/iot_link/network/lwm2m/wakaama_lwm2m/core/er-coap-13\er-coap-13.c **** }
 1479              		.loc 1 441 0
 1480 003a 00BF     		nop
 1481 003c 1037     		adds	r7, r7, #16
 1482              	.LCFI70:
 1483              		.cfi_def_cfa_offset 8
 1484 003e BD46     		mov	sp, r7
 1485              	.LCFI71:
 1486              		.cfi_def_cfa_register 13
 1487              		@ sp needed
 1488 0040 80BD     		pop	{r7, pc}
 1489              		.cfi_endproc
 1490              	.LFE17:
 1492              		.section	.text.coap_free_header,"ax",%progbits
 1493              		.align	1
 1494              		.global	coap_free_header
 1495              		.syntax unified
 1496              		.thumb
 1497              		.thumb_func
 1498              		.fpu fpv4-sp-d16
 1500              	coap_free_header:
 1501              	.LFB18:
 442:C:/Users/dtjld/Desktop/AIoT_software/LiteOS_Lab_overseas/LiteOS_Lab/iot_link/network/lwm2m/wakaama_lwm2m/core/er-coap-13\er-coap-13.c **** 
 443:C:/Users/dtjld/Desktop/AIoT_software/LiteOS_Lab_overseas/LiteOS_Lab/iot_link/network/lwm2m/wakaama_lwm2m/core/er-coap-13\er-coap-13.c **** void
 444:C:/Users/dtjld/Desktop/AIoT_software/LiteOS_Lab_overseas/LiteOS_Lab/iot_link/network/lwm2m/wakaama_lwm2m/core/er-coap-13\er-coap-13.c **** coap_free_header(void *packet)
 445:C:/Users/dtjld/Desktop/AIoT_software/LiteOS_Lab_overseas/LiteOS_Lab/iot_link/network/lwm2m/wakaama_lwm2m/core/er-coap-13\er-coap-13.c **** {
 1502              		.loc 1 445 0
 1503              		.cfi_startproc
 1504              		@ args = 0, pretend = 0, frame = 16
 1505              		@ frame_needed = 1, uses_anonymous_args = 0
 1506 0000 80B5     		push	{r7, lr}
 1507              	.LCFI72:
 1508              		.cfi_def_cfa_offset 8
 1509              		.cfi_offset 7, -8
 1510              		.cfi_offset 14, -4
 1511 0002 84B0     		sub	sp, sp, #16
 1512              	.LCFI73:
 1513              		.cfi_def_cfa_offset 24
ARM GAS  C:\Users\dtjld\AppData\Local\Temp\ccpI0fza.s 			page 35


 1514 0004 00AF     		add	r7, sp, #0
 1515              	.LCFI74:
 1516              		.cfi_def_cfa_register 7
 1517 0006 7860     		str	r0, [r7, #4]
 446:C:/Users/dtjld/Desktop/AIoT_software/LiteOS_Lab_overseas/LiteOS_Lab/iot_link/network/lwm2m/wakaama_lwm2m/core/er-coap-13\er-coap-13.c ****     coap_packet_t *const coap_pkt = (coap_packet_t *) packet;
 1518              		.loc 1 446 0
 1519 0008 7B68     		ldr	r3, [r7, #4]
 1520 000a FB60     		str	r3, [r7, #12]
 447:C:/Users/dtjld/Desktop/AIoT_software/LiteOS_Lab_overseas/LiteOS_Lab/iot_link/network/lwm2m/wakaama_lwm2m/core/er-coap-13\er-coap-13.c **** 
 448:C:/Users/dtjld/Desktop/AIoT_software/LiteOS_Lab_overseas/LiteOS_Lab/iot_link/network/lwm2m/wakaama_lwm2m/core/er-coap-13\er-coap-13.c ****     free_multi_option(coap_pkt->uri_path);
 1521              		.loc 1 448 0
 1522 000c FB68     		ldr	r3, [r7, #12]
 1523 000e 5B6C     		ldr	r3, [r3, #68]
 1524 0010 1846     		mov	r0, r3
 1525 0012 FFF7FEFF 		bl	free_multi_option
 449:C:/Users/dtjld/Desktop/AIoT_software/LiteOS_Lab_overseas/LiteOS_Lab/iot_link/network/lwm2m/wakaama_lwm2m/core/er-coap-13\er-coap-13.c ****     free_multi_option(coap_pkt->uri_query);
 1526              		.loc 1 449 0
 1527 0016 FB68     		ldr	r3, [r7, #12]
 1528 0018 D3F88030 		ldr	r3, [r3, #128]
 1529 001c 1846     		mov	r0, r3
 1530 001e FFF7FEFF 		bl	free_multi_option
 450:C:/Users/dtjld/Desktop/AIoT_software/LiteOS_Lab_overseas/LiteOS_Lab/iot_link/network/lwm2m/wakaama_lwm2m/core/er-coap-13\er-coap-13.c ****     free_multi_option(coap_pkt->location_path);
 1531              		.loc 1 450 0
 1532 0022 FB68     		ldr	r3, [r7, #12]
 1533 0024 5B6B     		ldr	r3, [r3, #52]
 1534 0026 1846     		mov	r0, r3
 1535 0028 FFF7FEFF 		bl	free_multi_option
 451:C:/Users/dtjld/Desktop/AIoT_software/LiteOS_Lab_overseas/LiteOS_Lab/iot_link/network/lwm2m/wakaama_lwm2m/core/er-coap-13\er-coap-13.c ****     coap_pkt->uri_path = NULL;
 1536              		.loc 1 451 0
 1537 002c FB68     		ldr	r3, [r7, #12]
 1538 002e 0022     		movs	r2, #0
 1539 0030 5A64     		str	r2, [r3, #68]
 452:C:/Users/dtjld/Desktop/AIoT_software/LiteOS_Lab_overseas/LiteOS_Lab/iot_link/network/lwm2m/wakaama_lwm2m/core/er-coap-13\er-coap-13.c ****     coap_pkt->uri_query = NULL;
 1540              		.loc 1 452 0
 1541 0032 FB68     		ldr	r3, [r7, #12]
 1542 0034 0022     		movs	r2, #0
 1543 0036 C3F88020 		str	r2, [r3, #128]
 453:C:/Users/dtjld/Desktop/AIoT_software/LiteOS_Lab_overseas/LiteOS_Lab/iot_link/network/lwm2m/wakaama_lwm2m/core/er-coap-13\er-coap-13.c ****     coap_pkt->location_path = NULL;
 1544              		.loc 1 453 0
 1545 003a FB68     		ldr	r3, [r7, #12]
 1546 003c 0022     		movs	r2, #0
 1547 003e 5A63     		str	r2, [r3, #52]
 454:C:/Users/dtjld/Desktop/AIoT_software/LiteOS_Lab_overseas/LiteOS_Lab/iot_link/network/lwm2m/wakaama_lwm2m/core/er-coap-13\er-coap-13.c **** }
 1548              		.loc 1 454 0
 1549 0040 00BF     		nop
 1550 0042 1037     		adds	r7, r7, #16
 1551              	.LCFI75:
 1552              		.cfi_def_cfa_offset 8
 1553 0044 BD46     		mov	sp, r7
 1554              	.LCFI76:
 1555              		.cfi_def_cfa_register 13
 1556              		@ sp needed
 1557 0046 80BD     		pop	{r7, pc}
 1558              		.cfi_endproc
 1559              	.LFE18:
 1561              		.section	.text.coap_serialize_get_size,"ax",%progbits
 1562              		.align	1
ARM GAS  C:\Users\dtjld\AppData\Local\Temp\ccpI0fza.s 			page 36


 1563              		.global	coap_serialize_get_size
 1564              		.syntax unified
 1565              		.thumb
 1566              		.thumb_func
 1567              		.fpu fpv4-sp-d16
 1569              	coap_serialize_get_size:
 1570              	.LFB19:
 455:C:/Users/dtjld/Desktop/AIoT_software/LiteOS_Lab_overseas/LiteOS_Lab/iot_link/network/lwm2m/wakaama_lwm2m/core/er-coap-13\er-coap-13.c **** 
 456:C:/Users/dtjld/Desktop/AIoT_software/LiteOS_Lab_overseas/LiteOS_Lab/iot_link/network/lwm2m/wakaama_lwm2m/core/er-coap-13\er-coap-13.c **** /*-----------------------------------------------------------------------------------*/
 457:C:/Users/dtjld/Desktop/AIoT_software/LiteOS_Lab_overseas/LiteOS_Lab/iot_link/network/lwm2m/wakaama_lwm2m/core/er-coap-13\er-coap-13.c **** size_t coap_serialize_get_size(void *packet)
 458:C:/Users/dtjld/Desktop/AIoT_software/LiteOS_Lab_overseas/LiteOS_Lab/iot_link/network/lwm2m/wakaama_lwm2m/core/er-coap-13\er-coap-13.c **** {
 1571              		.loc 1 458 0
 1572              		.cfi_startproc
 1573              		@ args = 0, pretend = 0, frame = 32
 1574              		@ frame_needed = 1, uses_anonymous_args = 0
 1575              		@ link register save eliminated.
 1576 0000 80B4     		push	{r7}
 1577              	.LCFI77:
 1578              		.cfi_def_cfa_offset 4
 1579              		.cfi_offset 7, -4
 1580 0002 89B0     		sub	sp, sp, #36
 1581              	.LCFI78:
 1582              		.cfi_def_cfa_offset 40
 1583 0004 00AF     		add	r7, sp, #0
 1584              	.LCFI79:
 1585              		.cfi_def_cfa_register 7
 1586 0006 7860     		str	r0, [r7, #4]
 459:C:/Users/dtjld/Desktop/AIoT_software/LiteOS_Lab_overseas/LiteOS_Lab/iot_link/network/lwm2m/wakaama_lwm2m/core/er-coap-13\er-coap-13.c ****     coap_packet_t *const coap_pkt = (coap_packet_t *) packet;
 1587              		.loc 1 459 0
 1588 0008 7B68     		ldr	r3, [r7, #4]
 1589 000a FB60     		str	r3, [r7, #12]
 460:C:/Users/dtjld/Desktop/AIoT_software/LiteOS_Lab_overseas/LiteOS_Lab/iot_link/network/lwm2m/wakaama_lwm2m/core/er-coap-13\er-coap-13.c ****     size_t length = 0;
 1590              		.loc 1 460 0
 1591 000c 0023     		movs	r3, #0
 1592 000e FB61     		str	r3, [r7, #28]
 461:C:/Users/dtjld/Desktop/AIoT_software/LiteOS_Lab_overseas/LiteOS_Lab/iot_link/network/lwm2m/wakaama_lwm2m/core/er-coap-13\er-coap-13.c **** 
 462:C:/Users/dtjld/Desktop/AIoT_software/LiteOS_Lab_overseas/LiteOS_Lab/iot_link/network/lwm2m/wakaama_lwm2m/core/er-coap-13\er-coap-13.c ****     length = COAP_HEADER_LEN + coap_pkt->payload_len + coap_pkt->token_len;
 1593              		.loc 1 462 0
 1594 0010 FB68     		ldr	r3, [r7, #12]
 1595 0012 B3F88630 		ldrh	r3, [r3, #134]
 1596 0016 0433     		adds	r3, r3, #4
 1597 0018 FA68     		ldr	r2, [r7, #12]
 1598 001a 92F84C20 		ldrb	r2, [r2, #76]	@ zero_extendqisi2
 1599 001e 1344     		add	r3, r3, r2
 1600 0020 FB61     		str	r3, [r7, #28]
 463:C:/Users/dtjld/Desktop/AIoT_software/LiteOS_Lab_overseas/LiteOS_Lab/iot_link/network/lwm2m/wakaama_lwm2m/core/er-coap-13\er-coap-13.c **** 
 464:C:/Users/dtjld/Desktop/AIoT_software/LiteOS_Lab_overseas/LiteOS_Lab/iot_link/network/lwm2m/wakaama_lwm2m/core/er-coap-13\er-coap-13.c ****     if (IS_OPTION(coap_pkt, COAP_OPTION_IF_MATCH))
 1601              		.loc 1 464 0
 1602 0022 FB68     		ldr	r3, [r7, #12]
 1603 0024 9B7A     		ldrb	r3, [r3, #10]	@ zero_extendqisi2
 1604 0026 03F00203 		and	r3, r3, #2
 1605 002a 002B     		cmp	r3, #0
 1606 002c 07D0     		beq	.L79
 465:C:/Users/dtjld/Desktop/AIoT_software/LiteOS_Lab_overseas/LiteOS_Lab/iot_link/network/lwm2m/wakaama_lwm2m/core/er-coap-13\er-coap-13.c ****     {
 466:C:/Users/dtjld/Desktop/AIoT_software/LiteOS_Lab_overseas/LiteOS_Lab/iot_link/network/lwm2m/wakaama_lwm2m/core/er-coap-13\er-coap-13.c ****         length += COAP_MAX_OPTION_HEADER_LEN + coap_pkt->if_match_len;
 1607              		.loc 1 466 0
 1608 002e FB68     		ldr	r3, [r7, #12]
ARM GAS  C:\Users\dtjld\AppData\Local\Temp\ccpI0fza.s 			page 37


 1609 0030 93F85A30 		ldrb	r3, [r3, #90]	@ zero_extendqisi2
 1610 0034 1A46     		mov	r2, r3
 1611 0036 FB69     		ldr	r3, [r7, #28]
 1612 0038 1344     		add	r3, r3, r2
 1613 003a 0533     		adds	r3, r3, #5
 1614 003c FB61     		str	r3, [r7, #28]
 1615              	.L79:
 467:C:/Users/dtjld/Desktop/AIoT_software/LiteOS_Lab_overseas/LiteOS_Lab/iot_link/network/lwm2m/wakaama_lwm2m/core/er-coap-13\er-coap-13.c ****     }
 468:C:/Users/dtjld/Desktop/AIoT_software/LiteOS_Lab_overseas/LiteOS_Lab/iot_link/network/lwm2m/wakaama_lwm2m/core/er-coap-13\er-coap-13.c ****     if (IS_OPTION(coap_pkt, COAP_OPTION_URI_HOST))
 1616              		.loc 1 468 0
 1617 003e FB68     		ldr	r3, [r7, #12]
 1618 0040 9B7A     		ldrb	r3, [r3, #10]	@ zero_extendqisi2
 1619 0042 03F00803 		and	r3, r3, #8
 1620 0046 002B     		cmp	r3, #0
 1621 0048 05D0     		beq	.L80
 469:C:/Users/dtjld/Desktop/AIoT_software/LiteOS_Lab_overseas/LiteOS_Lab/iot_link/network/lwm2m/wakaama_lwm2m/core/er-coap-13\er-coap-13.c ****     {
 470:C:/Users/dtjld/Desktop/AIoT_software/LiteOS_Lab_overseas/LiteOS_Lab/iot_link/network/lwm2m/wakaama_lwm2m/core/er-coap-13\er-coap-13.c ****         length += COAP_MAX_OPTION_HEADER_LEN + coap_pkt->uri_host_len;
 1622              		.loc 1 470 0
 1623 004a FB68     		ldr	r3, [r7, #12]
 1624 004c DA6A     		ldr	r2, [r3, #44]
 1625 004e FB69     		ldr	r3, [r7, #28]
 1626 0050 1344     		add	r3, r3, r2
 1627 0052 0533     		adds	r3, r3, #5
 1628 0054 FB61     		str	r3, [r7, #28]
 1629              	.L80:
 471:C:/Users/dtjld/Desktop/AIoT_software/LiteOS_Lab_overseas/LiteOS_Lab/iot_link/network/lwm2m/wakaama_lwm2m/core/er-coap-13\er-coap-13.c ****     }
 472:C:/Users/dtjld/Desktop/AIoT_software/LiteOS_Lab_overseas/LiteOS_Lab/iot_link/network/lwm2m/wakaama_lwm2m/core/er-coap-13\er-coap-13.c ****     if (IS_OPTION(coap_pkt, COAP_OPTION_ETAG))
 1630              		.loc 1 472 0
 1631 0056 FB68     		ldr	r3, [r7, #12]
 1632 0058 9B7A     		ldrb	r3, [r3, #10]	@ zero_extendqisi2
 1633 005a 03F01003 		and	r3, r3, #16
 1634 005e 002B     		cmp	r3, #0
 1635 0060 07D0     		beq	.L81
 473:C:/Users/dtjld/Desktop/AIoT_software/LiteOS_Lab_overseas/LiteOS_Lab/iot_link/network/lwm2m/wakaama_lwm2m/core/er-coap-13\er-coap-13.c ****     {
 474:C:/Users/dtjld/Desktop/AIoT_software/LiteOS_Lab_overseas/LiteOS_Lab/iot_link/network/lwm2m/wakaama_lwm2m/core/er-coap-13\er-coap-13.c ****         length += COAP_MAX_OPTION_HEADER_LEN + coap_pkt->etag_len;
 1636              		.loc 1 474 0
 1637 0062 FB68     		ldr	r3, [r7, #12]
 1638 0064 93F82030 		ldrb	r3, [r3, #32]	@ zero_extendqisi2
 1639 0068 1A46     		mov	r2, r3
 1640 006a FB69     		ldr	r3, [r7, #28]
 1641 006c 1344     		add	r3, r3, r2
 1642 006e 0533     		adds	r3, r3, #5
 1643 0070 FB61     		str	r3, [r7, #28]
 1644              	.L81:
 475:C:/Users/dtjld/Desktop/AIoT_software/LiteOS_Lab_overseas/LiteOS_Lab/iot_link/network/lwm2m/wakaama_lwm2m/core/er-coap-13\er-coap-13.c ****     }
 476:C:/Users/dtjld/Desktop/AIoT_software/LiteOS_Lab_overseas/LiteOS_Lab/iot_link/network/lwm2m/wakaama_lwm2m/core/er-coap-13\er-coap-13.c ****     if (IS_OPTION(coap_pkt, COAP_OPTION_IF_NONE_MATCH))
 1645              		.loc 1 476 0
 1646 0072 FB68     		ldr	r3, [r7, #12]
 1647 0074 9B7A     		ldrb	r3, [r3, #10]	@ zero_extendqisi2
 1648 0076 03F02003 		and	r3, r3, #32
 1649 007a 002B     		cmp	r3, #0
 1650 007c 02D0     		beq	.L82
 477:C:/Users/dtjld/Desktop/AIoT_software/LiteOS_Lab_overseas/LiteOS_Lab/iot_link/network/lwm2m/wakaama_lwm2m/core/er-coap-13\er-coap-13.c ****     {
 478:C:/Users/dtjld/Desktop/AIoT_software/LiteOS_Lab_overseas/LiteOS_Lab/iot_link/network/lwm2m/wakaama_lwm2m/core/er-coap-13\er-coap-13.c ****         // can be stored in extended fields
 479:C:/Users/dtjld/Desktop/AIoT_software/LiteOS_Lab_overseas/LiteOS_Lab/iot_link/network/lwm2m/wakaama_lwm2m/core/er-coap-13\er-coap-13.c ****         length += COAP_MAX_OPTION_HEADER_LEN;
 1651              		.loc 1 479 0
 1652 007e FB69     		ldr	r3, [r7, #28]
ARM GAS  C:\Users\dtjld\AppData\Local\Temp\ccpI0fza.s 			page 38


 1653 0080 0533     		adds	r3, r3, #5
 1654 0082 FB61     		str	r3, [r7, #28]
 1655              	.L82:
 480:C:/Users/dtjld/Desktop/AIoT_software/LiteOS_Lab_overseas/LiteOS_Lab/iot_link/network/lwm2m/wakaama_lwm2m/core/er-coap-13\er-coap-13.c ****     }
 481:C:/Users/dtjld/Desktop/AIoT_software/LiteOS_Lab_overseas/LiteOS_Lab/iot_link/network/lwm2m/wakaama_lwm2m/core/er-coap-13\er-coap-13.c ****     if (IS_OPTION(coap_pkt, COAP_OPTION_OBSERVE))
 1656              		.loc 1 481 0
 1657 0084 FB68     		ldr	r3, [r7, #12]
 1658 0086 9B7A     		ldrb	r3, [r3, #10]	@ zero_extendqisi2
 1659 0088 03F04003 		and	r3, r3, #64
 1660 008c 002B     		cmp	r3, #0
 1661 008e 02D0     		beq	.L83
 482:C:/Users/dtjld/Desktop/AIoT_software/LiteOS_Lab_overseas/LiteOS_Lab/iot_link/network/lwm2m/wakaama_lwm2m/core/er-coap-13\er-coap-13.c ****     {
 483:C:/Users/dtjld/Desktop/AIoT_software/LiteOS_Lab_overseas/LiteOS_Lab/iot_link/network/lwm2m/wakaama_lwm2m/core/er-coap-13\er-coap-13.c ****         // can be stored in extended fields
 484:C:/Users/dtjld/Desktop/AIoT_software/LiteOS_Lab_overseas/LiteOS_Lab/iot_link/network/lwm2m/wakaama_lwm2m/core/er-coap-13\er-coap-13.c ****         length += COAP_MAX_OPTION_HEADER_LEN;
 1662              		.loc 1 484 0
 1663 0090 FB69     		ldr	r3, [r7, #28]
 1664 0092 0533     		adds	r3, r3, #5
 1665 0094 FB61     		str	r3, [r7, #28]
 1666              	.L83:
 485:C:/Users/dtjld/Desktop/AIoT_software/LiteOS_Lab_overseas/LiteOS_Lab/iot_link/network/lwm2m/wakaama_lwm2m/core/er-coap-13\er-coap-13.c ****     }
 486:C:/Users/dtjld/Desktop/AIoT_software/LiteOS_Lab_overseas/LiteOS_Lab/iot_link/network/lwm2m/wakaama_lwm2m/core/er-coap-13\er-coap-13.c ****     if (IS_OPTION(coap_pkt, COAP_OPTION_URI_PORT))
 1667              		.loc 1 486 0
 1668 0096 FB68     		ldr	r3, [r7, #12]
 1669 0098 9B7A     		ldrb	r3, [r3, #10]	@ zero_extendqisi2
 1670 009a 5BB2     		sxtb	r3, r3
 1671 009c 002B     		cmp	r3, #0
 1672 009e 02DA     		bge	.L84
 487:C:/Users/dtjld/Desktop/AIoT_software/LiteOS_Lab_overseas/LiteOS_Lab/iot_link/network/lwm2m/wakaama_lwm2m/core/er-coap-13\er-coap-13.c ****     {
 488:C:/Users/dtjld/Desktop/AIoT_software/LiteOS_Lab_overseas/LiteOS_Lab/iot_link/network/lwm2m/wakaama_lwm2m/core/er-coap-13\er-coap-13.c ****         // can be stored in extended fields
 489:C:/Users/dtjld/Desktop/AIoT_software/LiteOS_Lab_overseas/LiteOS_Lab/iot_link/network/lwm2m/wakaama_lwm2m/core/er-coap-13\er-coap-13.c ****         length += COAP_MAX_OPTION_HEADER_LEN;
 1673              		.loc 1 489 0
 1674 00a0 FB69     		ldr	r3, [r7, #28]
 1675 00a2 0533     		adds	r3, r3, #5
 1676 00a4 FB61     		str	r3, [r7, #28]
 1677              	.L84:
 490:C:/Users/dtjld/Desktop/AIoT_software/LiteOS_Lab_overseas/LiteOS_Lab/iot_link/network/lwm2m/wakaama_lwm2m/core/er-coap-13\er-coap-13.c ****     }
 491:C:/Users/dtjld/Desktop/AIoT_software/LiteOS_Lab_overseas/LiteOS_Lab/iot_link/network/lwm2m/wakaama_lwm2m/core/er-coap-13\er-coap-13.c ****     if (IS_OPTION(coap_pkt, COAP_OPTION_LOCATION_PATH))
 1678              		.loc 1 491 0
 1679 00a6 FB68     		ldr	r3, [r7, #12]
 1680 00a8 DB7A     		ldrb	r3, [r3, #11]	@ zero_extendqisi2
 1681 00aa 03F00103 		and	r3, r3, #1
 1682 00ae 002B     		cmp	r3, #0
 1683 00b0 10D0     		beq	.L85
 1684              	.LBB6:
 492:C:/Users/dtjld/Desktop/AIoT_software/LiteOS_Lab_overseas/LiteOS_Lab/iot_link/network/lwm2m/wakaama_lwm2m/core/er-coap-13\er-coap-13.c ****     {
 493:C:/Users/dtjld/Desktop/AIoT_software/LiteOS_Lab_overseas/LiteOS_Lab/iot_link/network/lwm2m/wakaama_lwm2m/core/er-coap-13\er-coap-13.c ****         multi_option_t *optP;
 494:C:/Users/dtjld/Desktop/AIoT_software/LiteOS_Lab_overseas/LiteOS_Lab/iot_link/network/lwm2m/wakaama_lwm2m/core/er-coap-13\er-coap-13.c **** 
 495:C:/Users/dtjld/Desktop/AIoT_software/LiteOS_Lab_overseas/LiteOS_Lab/iot_link/network/lwm2m/wakaama_lwm2m/core/er-coap-13\er-coap-13.c ****         for (optP = coap_pkt->location_path ; optP != NULL ; optP = optP->next)
 1685              		.loc 1 495 0
 1686 00b2 FB68     		ldr	r3, [r7, #12]
 1687 00b4 5B6B     		ldr	r3, [r3, #52]
 1688 00b6 BB61     		str	r3, [r7, #24]
 1689 00b8 09E0     		b	.L86
 1690              	.L87:
 496:C:/Users/dtjld/Desktop/AIoT_software/LiteOS_Lab_overseas/LiteOS_Lab/iot_link/network/lwm2m/wakaama_lwm2m/core/er-coap-13\er-coap-13.c ****         {
 497:C:/Users/dtjld/Desktop/AIoT_software/LiteOS_Lab_overseas/LiteOS_Lab/iot_link/network/lwm2m/wakaama_lwm2m/core/er-coap-13\er-coap-13.c ****             length += COAP_MAX_OPTION_HEADER_LEN + optP->len;
 1691              		.loc 1 497 0 discriminator 3
ARM GAS  C:\Users\dtjld\AppData\Local\Temp\ccpI0fza.s 			page 39


 1692 00ba BB69     		ldr	r3, [r7, #24]
 1693 00bc 5B79     		ldrb	r3, [r3, #5]	@ zero_extendqisi2
 1694 00be 1A46     		mov	r2, r3
 1695 00c0 FB69     		ldr	r3, [r7, #28]
 1696 00c2 1344     		add	r3, r3, r2
 1697 00c4 0533     		adds	r3, r3, #5
 1698 00c6 FB61     		str	r3, [r7, #28]
 495:C:/Users/dtjld/Desktop/AIoT_software/LiteOS_Lab_overseas/LiteOS_Lab/iot_link/network/lwm2m/wakaama_lwm2m/core/er-coap-13\er-coap-13.c ****         {
 1699              		.loc 1 495 0 discriminator 3
 1700 00c8 BB69     		ldr	r3, [r7, #24]
 1701 00ca 1B68     		ldr	r3, [r3]
 1702 00cc BB61     		str	r3, [r7, #24]
 1703              	.L86:
 495:C:/Users/dtjld/Desktop/AIoT_software/LiteOS_Lab_overseas/LiteOS_Lab/iot_link/network/lwm2m/wakaama_lwm2m/core/er-coap-13\er-coap-13.c ****         {
 1704              		.loc 1 495 0 is_stmt 0 discriminator 1
 1705 00ce BB69     		ldr	r3, [r7, #24]
 1706 00d0 002B     		cmp	r3, #0
 1707 00d2 F2D1     		bne	.L87
 1708              	.L85:
 1709              	.LBE6:
 498:C:/Users/dtjld/Desktop/AIoT_software/LiteOS_Lab_overseas/LiteOS_Lab/iot_link/network/lwm2m/wakaama_lwm2m/core/er-coap-13\er-coap-13.c ****         }
 499:C:/Users/dtjld/Desktop/AIoT_software/LiteOS_Lab_overseas/LiteOS_Lab/iot_link/network/lwm2m/wakaama_lwm2m/core/er-coap-13\er-coap-13.c ****     }
 500:C:/Users/dtjld/Desktop/AIoT_software/LiteOS_Lab_overseas/LiteOS_Lab/iot_link/network/lwm2m/wakaama_lwm2m/core/er-coap-13\er-coap-13.c ****     if (IS_OPTION(coap_pkt, COAP_OPTION_URI_PATH))
 1710              		.loc 1 500 0 is_stmt 1
 1711 00d4 FB68     		ldr	r3, [r7, #12]
 1712 00d6 DB7A     		ldrb	r3, [r3, #11]	@ zero_extendqisi2
 1713 00d8 03F00803 		and	r3, r3, #8
 1714 00dc 002B     		cmp	r3, #0
 1715 00de 10D0     		beq	.L88
 1716              	.LBB7:
 501:C:/Users/dtjld/Desktop/AIoT_software/LiteOS_Lab_overseas/LiteOS_Lab/iot_link/network/lwm2m/wakaama_lwm2m/core/er-coap-13\er-coap-13.c ****     {
 502:C:/Users/dtjld/Desktop/AIoT_software/LiteOS_Lab_overseas/LiteOS_Lab/iot_link/network/lwm2m/wakaama_lwm2m/core/er-coap-13\er-coap-13.c ****         multi_option_t *optP;
 503:C:/Users/dtjld/Desktop/AIoT_software/LiteOS_Lab_overseas/LiteOS_Lab/iot_link/network/lwm2m/wakaama_lwm2m/core/er-coap-13\er-coap-13.c **** 
 504:C:/Users/dtjld/Desktop/AIoT_software/LiteOS_Lab_overseas/LiteOS_Lab/iot_link/network/lwm2m/wakaama_lwm2m/core/er-coap-13\er-coap-13.c ****         for (optP = coap_pkt->uri_path ; optP != NULL ; optP = optP->next)
 1717              		.loc 1 504 0
 1718 00e0 FB68     		ldr	r3, [r7, #12]
 1719 00e2 5B6C     		ldr	r3, [r3, #68]
 1720 00e4 7B61     		str	r3, [r7, #20]
 1721 00e6 09E0     		b	.L89
 1722              	.L90:
 505:C:/Users/dtjld/Desktop/AIoT_software/LiteOS_Lab_overseas/LiteOS_Lab/iot_link/network/lwm2m/wakaama_lwm2m/core/er-coap-13\er-coap-13.c ****         {
 506:C:/Users/dtjld/Desktop/AIoT_software/LiteOS_Lab_overseas/LiteOS_Lab/iot_link/network/lwm2m/wakaama_lwm2m/core/er-coap-13\er-coap-13.c ****             length += COAP_MAX_OPTION_HEADER_LEN + optP->len;
 1723              		.loc 1 506 0 discriminator 3
 1724 00e8 7B69     		ldr	r3, [r7, #20]
 1725 00ea 5B79     		ldrb	r3, [r3, #5]	@ zero_extendqisi2
 1726 00ec 1A46     		mov	r2, r3
 1727 00ee FB69     		ldr	r3, [r7, #28]
 1728 00f0 1344     		add	r3, r3, r2
 1729 00f2 0533     		adds	r3, r3, #5
 1730 00f4 FB61     		str	r3, [r7, #28]
 504:C:/Users/dtjld/Desktop/AIoT_software/LiteOS_Lab_overseas/LiteOS_Lab/iot_link/network/lwm2m/wakaama_lwm2m/core/er-coap-13\er-coap-13.c ****         {
 1731              		.loc 1 504 0 discriminator 3
 1732 00f6 7B69     		ldr	r3, [r7, #20]
 1733 00f8 1B68     		ldr	r3, [r3]
 1734 00fa 7B61     		str	r3, [r7, #20]
 1735              	.L89:
 504:C:/Users/dtjld/Desktop/AIoT_software/LiteOS_Lab_overseas/LiteOS_Lab/iot_link/network/lwm2m/wakaama_lwm2m/core/er-coap-13\er-coap-13.c ****         {
ARM GAS  C:\Users\dtjld\AppData\Local\Temp\ccpI0fza.s 			page 40


 1736              		.loc 1 504 0 is_stmt 0 discriminator 1
 1737 00fc 7B69     		ldr	r3, [r7, #20]
 1738 00fe 002B     		cmp	r3, #0
 1739 0100 F2D1     		bne	.L90
 1740              	.L88:
 1741              	.LBE7:
 507:C:/Users/dtjld/Desktop/AIoT_software/LiteOS_Lab_overseas/LiteOS_Lab/iot_link/network/lwm2m/wakaama_lwm2m/core/er-coap-13\er-coap-13.c ****         }
 508:C:/Users/dtjld/Desktop/AIoT_software/LiteOS_Lab_overseas/LiteOS_Lab/iot_link/network/lwm2m/wakaama_lwm2m/core/er-coap-13\er-coap-13.c ****     }
 509:C:/Users/dtjld/Desktop/AIoT_software/LiteOS_Lab_overseas/LiteOS_Lab/iot_link/network/lwm2m/wakaama_lwm2m/core/er-coap-13\er-coap-13.c ****     if (IS_OPTION(coap_pkt, COAP_OPTION_CONTENT_TYPE))
 1742              		.loc 1 509 0 is_stmt 1
 1743 0102 FB68     		ldr	r3, [r7, #12]
 1744 0104 DB7A     		ldrb	r3, [r3, #11]	@ zero_extendqisi2
 1745 0106 03F01003 		and	r3, r3, #16
 1746 010a 002B     		cmp	r3, #0
 1747 010c 02D0     		beq	.L91
 510:C:/Users/dtjld/Desktop/AIoT_software/LiteOS_Lab_overseas/LiteOS_Lab/iot_link/network/lwm2m/wakaama_lwm2m/core/er-coap-13\er-coap-13.c ****     {
 511:C:/Users/dtjld/Desktop/AIoT_software/LiteOS_Lab_overseas/LiteOS_Lab/iot_link/network/lwm2m/wakaama_lwm2m/core/er-coap-13\er-coap-13.c ****         // can be stored in extended fields
 512:C:/Users/dtjld/Desktop/AIoT_software/LiteOS_Lab_overseas/LiteOS_Lab/iot_link/network/lwm2m/wakaama_lwm2m/core/er-coap-13\er-coap-13.c ****         length += COAP_MAX_OPTION_HEADER_LEN;
 1748              		.loc 1 512 0
 1749 010e FB69     		ldr	r3, [r7, #28]
 1750 0110 0533     		adds	r3, r3, #5
 1751 0112 FB61     		str	r3, [r7, #28]
 1752              	.L91:
 513:C:/Users/dtjld/Desktop/AIoT_software/LiteOS_Lab_overseas/LiteOS_Lab/iot_link/network/lwm2m/wakaama_lwm2m/core/er-coap-13\er-coap-13.c ****     }
 514:C:/Users/dtjld/Desktop/AIoT_software/LiteOS_Lab_overseas/LiteOS_Lab/iot_link/network/lwm2m/wakaama_lwm2m/core/er-coap-13\er-coap-13.c ****     if (IS_OPTION(coap_pkt, COAP_OPTION_MAX_AGE))
 1753              		.loc 1 514 0
 1754 0114 FB68     		ldr	r3, [r7, #12]
 1755 0116 DB7A     		ldrb	r3, [r3, #11]	@ zero_extendqisi2
 1756 0118 03F04003 		and	r3, r3, #64
 1757 011c 002B     		cmp	r3, #0
 1758 011e 02D0     		beq	.L92
 515:C:/Users/dtjld/Desktop/AIoT_software/LiteOS_Lab_overseas/LiteOS_Lab/iot_link/network/lwm2m/wakaama_lwm2m/core/er-coap-13\er-coap-13.c ****     {
 516:C:/Users/dtjld/Desktop/AIoT_software/LiteOS_Lab_overseas/LiteOS_Lab/iot_link/network/lwm2m/wakaama_lwm2m/core/er-coap-13\er-coap-13.c ****         // can be stored in extended fields
 517:C:/Users/dtjld/Desktop/AIoT_software/LiteOS_Lab_overseas/LiteOS_Lab/iot_link/network/lwm2m/wakaama_lwm2m/core/er-coap-13\er-coap-13.c ****         length += COAP_MAX_OPTION_HEADER_LEN;
 1759              		.loc 1 517 0
 1760 0120 FB69     		ldr	r3, [r7, #28]
 1761 0122 0533     		adds	r3, r3, #5
 1762 0124 FB61     		str	r3, [r7, #28]
 1763              	.L92:
 518:C:/Users/dtjld/Desktop/AIoT_software/LiteOS_Lab_overseas/LiteOS_Lab/iot_link/network/lwm2m/wakaama_lwm2m/core/er-coap-13\er-coap-13.c ****     }
 519:C:/Users/dtjld/Desktop/AIoT_software/LiteOS_Lab_overseas/LiteOS_Lab/iot_link/network/lwm2m/wakaama_lwm2m/core/er-coap-13\er-coap-13.c ****     if (IS_OPTION(coap_pkt, COAP_OPTION_URI_QUERY))
 1764              		.loc 1 519 0
 1765 0126 FB68     		ldr	r3, [r7, #12]
 1766 0128 DB7A     		ldrb	r3, [r3, #11]	@ zero_extendqisi2
 1767 012a 5BB2     		sxtb	r3, r3
 1768 012c 002B     		cmp	r3, #0
 1769 012e 11DA     		bge	.L93
 1770              	.LBB8:
 520:C:/Users/dtjld/Desktop/AIoT_software/LiteOS_Lab_overseas/LiteOS_Lab/iot_link/network/lwm2m/wakaama_lwm2m/core/er-coap-13\er-coap-13.c ****     {
 521:C:/Users/dtjld/Desktop/AIoT_software/LiteOS_Lab_overseas/LiteOS_Lab/iot_link/network/lwm2m/wakaama_lwm2m/core/er-coap-13\er-coap-13.c ****         multi_option_t *optP;
 522:C:/Users/dtjld/Desktop/AIoT_software/LiteOS_Lab_overseas/LiteOS_Lab/iot_link/network/lwm2m/wakaama_lwm2m/core/er-coap-13\er-coap-13.c **** 
 523:C:/Users/dtjld/Desktop/AIoT_software/LiteOS_Lab_overseas/LiteOS_Lab/iot_link/network/lwm2m/wakaama_lwm2m/core/er-coap-13\er-coap-13.c ****         for (optP = coap_pkt->uri_query ; optP != NULL ; optP = optP->next)
 1771              		.loc 1 523 0
 1772 0130 FB68     		ldr	r3, [r7, #12]
 1773 0132 D3F88030 		ldr	r3, [r3, #128]
 1774 0136 3B61     		str	r3, [r7, #16]
 1775 0138 09E0     		b	.L94
ARM GAS  C:\Users\dtjld\AppData\Local\Temp\ccpI0fza.s 			page 41


 1776              	.L95:
 524:C:/Users/dtjld/Desktop/AIoT_software/LiteOS_Lab_overseas/LiteOS_Lab/iot_link/network/lwm2m/wakaama_lwm2m/core/er-coap-13\er-coap-13.c ****         {
 525:C:/Users/dtjld/Desktop/AIoT_software/LiteOS_Lab_overseas/LiteOS_Lab/iot_link/network/lwm2m/wakaama_lwm2m/core/er-coap-13\er-coap-13.c ****             length += COAP_MAX_OPTION_HEADER_LEN + optP->len;
 1777              		.loc 1 525 0 discriminator 3
 1778 013a 3B69     		ldr	r3, [r7, #16]
 1779 013c 5B79     		ldrb	r3, [r3, #5]	@ zero_extendqisi2
 1780 013e 1A46     		mov	r2, r3
 1781 0140 FB69     		ldr	r3, [r7, #28]
 1782 0142 1344     		add	r3, r3, r2
 1783 0144 0533     		adds	r3, r3, #5
 1784 0146 FB61     		str	r3, [r7, #28]
 523:C:/Users/dtjld/Desktop/AIoT_software/LiteOS_Lab_overseas/LiteOS_Lab/iot_link/network/lwm2m/wakaama_lwm2m/core/er-coap-13\er-coap-13.c ****         {
 1785              		.loc 1 523 0 discriminator 3
 1786 0148 3B69     		ldr	r3, [r7, #16]
 1787 014a 1B68     		ldr	r3, [r3]
 1788 014c 3B61     		str	r3, [r7, #16]
 1789              	.L94:
 523:C:/Users/dtjld/Desktop/AIoT_software/LiteOS_Lab_overseas/LiteOS_Lab/iot_link/network/lwm2m/wakaama_lwm2m/core/er-coap-13\er-coap-13.c ****         {
 1790              		.loc 1 523 0 is_stmt 0 discriminator 1
 1791 014e 3B69     		ldr	r3, [r7, #16]
 1792 0150 002B     		cmp	r3, #0
 1793 0152 F2D1     		bne	.L95
 1794              	.L93:
 1795              	.LBE8:
 526:C:/Users/dtjld/Desktop/AIoT_software/LiteOS_Lab_overseas/LiteOS_Lab/iot_link/network/lwm2m/wakaama_lwm2m/core/er-coap-13\er-coap-13.c ****         }
 527:C:/Users/dtjld/Desktop/AIoT_software/LiteOS_Lab_overseas/LiteOS_Lab/iot_link/network/lwm2m/wakaama_lwm2m/core/er-coap-13\er-coap-13.c ****     }
 528:C:/Users/dtjld/Desktop/AIoT_software/LiteOS_Lab_overseas/LiteOS_Lab/iot_link/network/lwm2m/wakaama_lwm2m/core/er-coap-13\er-coap-13.c ****     if (IS_OPTION(coap_pkt, COAP_OPTION_ACCEPT))
 1796              		.loc 1 528 0 is_stmt 1
 1797 0154 FB68     		ldr	r3, [r7, #12]
 1798 0156 1B7B     		ldrb	r3, [r3, #12]	@ zero_extendqisi2
 1799 0158 03F00203 		and	r3, r3, #2
 1800 015c 002B     		cmp	r3, #0
 1801 015e 0AD0     		beq	.L96
 529:C:/Users/dtjld/Desktop/AIoT_software/LiteOS_Lab_overseas/LiteOS_Lab/iot_link/network/lwm2m/wakaama_lwm2m/core/er-coap-13\er-coap-13.c ****     {
 530:C:/Users/dtjld/Desktop/AIoT_software/LiteOS_Lab_overseas/LiteOS_Lab/iot_link/network/lwm2m/wakaama_lwm2m/core/er-coap-13\er-coap-13.c ****         length += coap_pkt->accept_num * COAP_MAX_OPTION_HEADER_LEN;
 1802              		.loc 1 530 0
 1803 0160 FB68     		ldr	r3, [r7, #12]
 1804 0162 93F85530 		ldrb	r3, [r3, #85]	@ zero_extendqisi2
 1805 0166 1A46     		mov	r2, r3
 1806 0168 1346     		mov	r3, r2
 1807 016a 9B00     		lsls	r3, r3, #2
 1808 016c 1344     		add	r3, r3, r2
 1809 016e 1A46     		mov	r2, r3
 1810 0170 FB69     		ldr	r3, [r7, #28]
 1811 0172 1344     		add	r3, r3, r2
 1812 0174 FB61     		str	r3, [r7, #28]
 1813              	.L96:
 531:C:/Users/dtjld/Desktop/AIoT_software/LiteOS_Lab_overseas/LiteOS_Lab/iot_link/network/lwm2m/wakaama_lwm2m/core/er-coap-13\er-coap-13.c ****     }
 532:C:/Users/dtjld/Desktop/AIoT_software/LiteOS_Lab_overseas/LiteOS_Lab/iot_link/network/lwm2m/wakaama_lwm2m/core/er-coap-13\er-coap-13.c ****     if (IS_OPTION(coap_pkt, COAP_OPTION_LOCATION_QUERY))
 1814              		.loc 1 532 0
 1815 0176 FB68     		ldr	r3, [r7, #12]
 1816 0178 1B7B     		ldrb	r3, [r3, #12]	@ zero_extendqisi2
 1817 017a 03F01003 		and	r3, r3, #16
 1818 017e 002B     		cmp	r3, #0
 1819 0180 05D0     		beq	.L97
 533:C:/Users/dtjld/Desktop/AIoT_software/LiteOS_Lab_overseas/LiteOS_Lab/iot_link/network/lwm2m/wakaama_lwm2m/core/er-coap-13\er-coap-13.c ****     {
 534:C:/Users/dtjld/Desktop/AIoT_software/LiteOS_Lab_overseas/LiteOS_Lab/iot_link/network/lwm2m/wakaama_lwm2m/core/er-coap-13\er-coap-13.c ****         length += COAP_MAX_OPTION_HEADER_LEN + coap_pkt->location_query_len;
ARM GAS  C:\Users\dtjld\AppData\Local\Temp\ccpI0fza.s 			page 42


 1820              		.loc 1 534 0
 1821 0182 FB68     		ldr	r3, [r7, #12]
 1822 0184 DA6B     		ldr	r2, [r3, #60]
 1823 0186 FB69     		ldr	r3, [r7, #28]
 1824 0188 1344     		add	r3, r3, r2
 1825 018a 0533     		adds	r3, r3, #5
 1826 018c FB61     		str	r3, [r7, #28]
 1827              	.L97:
 535:C:/Users/dtjld/Desktop/AIoT_software/LiteOS_Lab_overseas/LiteOS_Lab/iot_link/network/lwm2m/wakaama_lwm2m/core/er-coap-13\er-coap-13.c ****     }
 536:C:/Users/dtjld/Desktop/AIoT_software/LiteOS_Lab_overseas/LiteOS_Lab/iot_link/network/lwm2m/wakaama_lwm2m/core/er-coap-13\er-coap-13.c ****     if (IS_OPTION(coap_pkt, COAP_OPTION_BLOCK2))
 1828              		.loc 1 536 0
 1829 018e FB68     		ldr	r3, [r7, #12]
 1830 0190 1B7B     		ldrb	r3, [r3, #12]	@ zero_extendqisi2
 1831 0192 5BB2     		sxtb	r3, r3
 1832 0194 002B     		cmp	r3, #0
 1833 0196 02DA     		bge	.L98
 537:C:/Users/dtjld/Desktop/AIoT_software/LiteOS_Lab_overseas/LiteOS_Lab/iot_link/network/lwm2m/wakaama_lwm2m/core/er-coap-13\er-coap-13.c ****     {
 538:C:/Users/dtjld/Desktop/AIoT_software/LiteOS_Lab_overseas/LiteOS_Lab/iot_link/network/lwm2m/wakaama_lwm2m/core/er-coap-13\er-coap-13.c ****         // can be stored in extended fields
 539:C:/Users/dtjld/Desktop/AIoT_software/LiteOS_Lab_overseas/LiteOS_Lab/iot_link/network/lwm2m/wakaama_lwm2m/core/er-coap-13\er-coap-13.c ****         length += COAP_MAX_OPTION_HEADER_LEN;
 1834              		.loc 1 539 0
 1835 0198 FB69     		ldr	r3, [r7, #28]
 1836 019a 0533     		adds	r3, r3, #5
 1837 019c FB61     		str	r3, [r7, #28]
 1838              	.L98:
 540:C:/Users/dtjld/Desktop/AIoT_software/LiteOS_Lab_overseas/LiteOS_Lab/iot_link/network/lwm2m/wakaama_lwm2m/core/er-coap-13\er-coap-13.c ****     }
 541:C:/Users/dtjld/Desktop/AIoT_software/LiteOS_Lab_overseas/LiteOS_Lab/iot_link/network/lwm2m/wakaama_lwm2m/core/er-coap-13\er-coap-13.c ****     if (IS_OPTION(coap_pkt, COAP_OPTION_BLOCK1))
 1839              		.loc 1 541 0
 1840 019e FB68     		ldr	r3, [r7, #12]
 1841 01a0 5B7B     		ldrb	r3, [r3, #13]	@ zero_extendqisi2
 1842 01a2 03F00803 		and	r3, r3, #8
 1843 01a6 002B     		cmp	r3, #0
 1844 01a8 02D0     		beq	.L99
 542:C:/Users/dtjld/Desktop/AIoT_software/LiteOS_Lab_overseas/LiteOS_Lab/iot_link/network/lwm2m/wakaama_lwm2m/core/er-coap-13\er-coap-13.c ****     {
 543:C:/Users/dtjld/Desktop/AIoT_software/LiteOS_Lab_overseas/LiteOS_Lab/iot_link/network/lwm2m/wakaama_lwm2m/core/er-coap-13\er-coap-13.c ****         // can be stored in extended fields
 544:C:/Users/dtjld/Desktop/AIoT_software/LiteOS_Lab_overseas/LiteOS_Lab/iot_link/network/lwm2m/wakaama_lwm2m/core/er-coap-13\er-coap-13.c ****         length += COAP_MAX_OPTION_HEADER_LEN;
 1845              		.loc 1 544 0
 1846 01aa FB69     		ldr	r3, [r7, #28]
 1847 01ac 0533     		adds	r3, r3, #5
 1848 01ae FB61     		str	r3, [r7, #28]
 1849              	.L99:
 545:C:/Users/dtjld/Desktop/AIoT_software/LiteOS_Lab_overseas/LiteOS_Lab/iot_link/network/lwm2m/wakaama_lwm2m/core/er-coap-13\er-coap-13.c ****     }
 546:C:/Users/dtjld/Desktop/AIoT_software/LiteOS_Lab_overseas/LiteOS_Lab/iot_link/network/lwm2m/wakaama_lwm2m/core/er-coap-13\er-coap-13.c ****     if (IS_OPTION(coap_pkt, COAP_OPTION_SIZE))
 1850              		.loc 1 546 0
 1851 01b0 FB68     		ldr	r3, [r7, #12]
 1852 01b2 5B7B     		ldrb	r3, [r3, #13]	@ zero_extendqisi2
 1853 01b4 03F01003 		and	r3, r3, #16
 1854 01b8 002B     		cmp	r3, #0
 1855 01ba 02D0     		beq	.L100
 547:C:/Users/dtjld/Desktop/AIoT_software/LiteOS_Lab_overseas/LiteOS_Lab/iot_link/network/lwm2m/wakaama_lwm2m/core/er-coap-13\er-coap-13.c ****     {
 548:C:/Users/dtjld/Desktop/AIoT_software/LiteOS_Lab_overseas/LiteOS_Lab/iot_link/network/lwm2m/wakaama_lwm2m/core/er-coap-13\er-coap-13.c ****         // can be stored in extended fields
 549:C:/Users/dtjld/Desktop/AIoT_software/LiteOS_Lab_overseas/LiteOS_Lab/iot_link/network/lwm2m/wakaama_lwm2m/core/er-coap-13\er-coap-13.c ****         length += COAP_MAX_OPTION_HEADER_LEN;
 1856              		.loc 1 549 0
 1857 01bc FB69     		ldr	r3, [r7, #28]
 1858 01be 0533     		adds	r3, r3, #5
 1859 01c0 FB61     		str	r3, [r7, #28]
 1860              	.L100:
 550:C:/Users/dtjld/Desktop/AIoT_software/LiteOS_Lab_overseas/LiteOS_Lab/iot_link/network/lwm2m/wakaama_lwm2m/core/er-coap-13\er-coap-13.c ****     }
ARM GAS  C:\Users\dtjld\AppData\Local\Temp\ccpI0fza.s 			page 43


 551:C:/Users/dtjld/Desktop/AIoT_software/LiteOS_Lab_overseas/LiteOS_Lab/iot_link/network/lwm2m/wakaama_lwm2m/core/er-coap-13\er-coap-13.c ****     if (IS_OPTION(coap_pkt, COAP_OPTION_PROXY_URI))
 1861              		.loc 1 551 0
 1862 01c2 FB68     		ldr	r3, [r7, #12]
 1863 01c4 9B7B     		ldrb	r3, [r3, #14]	@ zero_extendqisi2
 1864 01c6 03F00803 		and	r3, r3, #8
 1865 01ca 002B     		cmp	r3, #0
 1866 01cc 05D0     		beq	.L101
 552:C:/Users/dtjld/Desktop/AIoT_software/LiteOS_Lab_overseas/LiteOS_Lab/iot_link/network/lwm2m/wakaama_lwm2m/core/er-coap-13\er-coap-13.c ****     {
 553:C:/Users/dtjld/Desktop/AIoT_software/LiteOS_Lab_overseas/LiteOS_Lab/iot_link/network/lwm2m/wakaama_lwm2m/core/er-coap-13\er-coap-13.c ****         length += COAP_MAX_OPTION_HEADER_LEN + coap_pkt->proxy_uri_len;
 1867              		.loc 1 553 0
 1868 01ce FB68     		ldr	r3, [r7, #12]
 1869 01d0 9A69     		ldr	r2, [r3, #24]
 1870 01d2 FB69     		ldr	r3, [r7, #28]
 1871 01d4 1344     		add	r3, r3, r2
 1872 01d6 0533     		adds	r3, r3, #5
 1873 01d8 FB61     		str	r3, [r7, #28]
 1874              	.L101:
 554:C:/Users/dtjld/Desktop/AIoT_software/LiteOS_Lab_overseas/LiteOS_Lab/iot_link/network/lwm2m/wakaama_lwm2m/core/er-coap-13\er-coap-13.c ****     }
 555:C:/Users/dtjld/Desktop/AIoT_software/LiteOS_Lab_overseas/LiteOS_Lab/iot_link/network/lwm2m/wakaama_lwm2m/core/er-coap-13\er-coap-13.c **** 
 556:C:/Users/dtjld/Desktop/AIoT_software/LiteOS_Lab_overseas/LiteOS_Lab/iot_link/network/lwm2m/wakaama_lwm2m/core/er-coap-13\er-coap-13.c ****     if (coap_pkt->payload_len)
 1875              		.loc 1 556 0
 1876 01da FB68     		ldr	r3, [r7, #12]
 1877 01dc B3F88630 		ldrh	r3, [r3, #134]
 1878 01e0 002B     		cmp	r3, #0
 1879 01e2 02D0     		beq	.L102
 557:C:/Users/dtjld/Desktop/AIoT_software/LiteOS_Lab_overseas/LiteOS_Lab/iot_link/network/lwm2m/wakaama_lwm2m/core/er-coap-13\er-coap-13.c ****     {
 558:C:/Users/dtjld/Desktop/AIoT_software/LiteOS_Lab_overseas/LiteOS_Lab/iot_link/network/lwm2m/wakaama_lwm2m/core/er-coap-13\er-coap-13.c ****         // Account for the payload marker.
 559:C:/Users/dtjld/Desktop/AIoT_software/LiteOS_Lab_overseas/LiteOS_Lab/iot_link/network/lwm2m/wakaama_lwm2m/core/er-coap-13\er-coap-13.c ****         length += 1;
 1880              		.loc 1 559 0
 1881 01e4 FB69     		ldr	r3, [r7, #28]
 1882 01e6 0133     		adds	r3, r3, #1
 1883 01e8 FB61     		str	r3, [r7, #28]
 1884              	.L102:
 560:C:/Users/dtjld/Desktop/AIoT_software/LiteOS_Lab_overseas/LiteOS_Lab/iot_link/network/lwm2m/wakaama_lwm2m/core/er-coap-13\er-coap-13.c ****     }
 561:C:/Users/dtjld/Desktop/AIoT_software/LiteOS_Lab_overseas/LiteOS_Lab/iot_link/network/lwm2m/wakaama_lwm2m/core/er-coap-13\er-coap-13.c **** 
 562:C:/Users/dtjld/Desktop/AIoT_software/LiteOS_Lab_overseas/LiteOS_Lab/iot_link/network/lwm2m/wakaama_lwm2m/core/er-coap-13\er-coap-13.c ****     return length;
 1885              		.loc 1 562 0
 1886 01ea FB69     		ldr	r3, [r7, #28]
 563:C:/Users/dtjld/Desktop/AIoT_software/LiteOS_Lab_overseas/LiteOS_Lab/iot_link/network/lwm2m/wakaama_lwm2m/core/er-coap-13\er-coap-13.c **** }
 1887              		.loc 1 563 0
 1888 01ec 1846     		mov	r0, r3
 1889 01ee 2437     		adds	r7, r7, #36
 1890              	.LCFI80:
 1891              		.cfi_def_cfa_offset 4
 1892 01f0 BD46     		mov	sp, r7
 1893              	.LCFI81:
 1894              		.cfi_def_cfa_register 13
 1895              		@ sp needed
 1896 01f2 5DF8047B 		ldr	r7, [sp], #4
 1897              	.LCFI82:
 1898              		.cfi_restore 7
 1899              		.cfi_def_cfa_offset 0
 1900 01f6 7047     		bx	lr
 1901              		.cfi_endproc
 1902              	.LFE19:
 1904              		.section	.text.coap_serialize_message,"ax",%progbits
 1905              		.align	1
ARM GAS  C:\Users\dtjld\AppData\Local\Temp\ccpI0fza.s 			page 44


 1906              		.global	coap_serialize_message
 1907              		.syntax unified
 1908              		.thumb
 1909              		.thumb_func
 1910              		.fpu fpv4-sp-d16
 1912              	coap_serialize_message:
 1913              	.LFB20:
 564:C:/Users/dtjld/Desktop/AIoT_software/LiteOS_Lab_overseas/LiteOS_Lab/iot_link/network/lwm2m/wakaama_lwm2m/core/er-coap-13\er-coap-13.c **** 
 565:C:/Users/dtjld/Desktop/AIoT_software/LiteOS_Lab_overseas/LiteOS_Lab/iot_link/network/lwm2m/wakaama_lwm2m/core/er-coap-13\er-coap-13.c **** /*-----------------------------------------------------------------------------------*/
 566:C:/Users/dtjld/Desktop/AIoT_software/LiteOS_Lab_overseas/LiteOS_Lab/iot_link/network/lwm2m/wakaama_lwm2m/core/er-coap-13\er-coap-13.c **** size_t
 567:C:/Users/dtjld/Desktop/AIoT_software/LiteOS_Lab_overseas/LiteOS_Lab/iot_link/network/lwm2m/wakaama_lwm2m/core/er-coap-13\er-coap-13.c **** coap_serialize_message(void *packet, uint8_t *buffer)
 568:C:/Users/dtjld/Desktop/AIoT_software/LiteOS_Lab_overseas/LiteOS_Lab/iot_link/network/lwm2m/wakaama_lwm2m/core/er-coap-13\er-coap-13.c **** {
 1914              		.loc 1 568 0
 1915              		.cfi_startproc
 1916              		@ args = 0, pretend = 0, frame = 32
 1917              		@ frame_needed = 1, uses_anonymous_args = 0
 1918 0000 80B5     		push	{r7, lr}
 1919              	.LCFI83:
 1920              		.cfi_def_cfa_offset 8
 1921              		.cfi_offset 7, -8
 1922              		.cfi_offset 14, -4
 1923 0002 8AB0     		sub	sp, sp, #40
 1924              	.LCFI84:
 1925              		.cfi_def_cfa_offset 48
 1926 0004 02AF     		add	r7, sp, #8
 1927              	.LCFI85:
 1928              		.cfi_def_cfa 7, 40
 1929 0006 7860     		str	r0, [r7, #4]
 1930 0008 3960     		str	r1, [r7]
 569:C:/Users/dtjld/Desktop/AIoT_software/LiteOS_Lab_overseas/LiteOS_Lab/iot_link/network/lwm2m/wakaama_lwm2m/core/er-coap-13\er-coap-13.c ****     coap_packet_t *const coap_pkt = (coap_packet_t *) packet;
 1931              		.loc 1 569 0
 1932 000a 7B68     		ldr	r3, [r7, #4]
 1933 000c BB60     		str	r3, [r7, #8]
 570:C:/Users/dtjld/Desktop/AIoT_software/LiteOS_Lab_overseas/LiteOS_Lab/iot_link/network/lwm2m/wakaama_lwm2m/core/er-coap-13\er-coap-13.c ****     uint8_t *option;
 571:C:/Users/dtjld/Desktop/AIoT_software/LiteOS_Lab_overseas/LiteOS_Lab/iot_link/network/lwm2m/wakaama_lwm2m/core/er-coap-13\er-coap-13.c ****     unsigned int current_number = 0;
 1934              		.loc 1 571 0
 1935 000e 0023     		movs	r3, #0
 1936 0010 BB61     		str	r3, [r7, #24]
 572:C:/Users/dtjld/Desktop/AIoT_software/LiteOS_Lab_overseas/LiteOS_Lab/iot_link/network/lwm2m/wakaama_lwm2m/core/er-coap-13\er-coap-13.c **** 
 573:C:/Users/dtjld/Desktop/AIoT_software/LiteOS_Lab_overseas/LiteOS_Lab/iot_link/network/lwm2m/wakaama_lwm2m/core/er-coap-13\er-coap-13.c ****     /* Initialize */
 574:C:/Users/dtjld/Desktop/AIoT_software/LiteOS_Lab_overseas/LiteOS_Lab/iot_link/network/lwm2m/wakaama_lwm2m/core/er-coap-13\er-coap-13.c ****     coap_pkt->buffer = buffer;
 1937              		.loc 1 574 0
 1938 0012 BB68     		ldr	r3, [r7, #8]
 1939 0014 3A68     		ldr	r2, [r7]
 1940 0016 1A60     		str	r2, [r3]
 575:C:/Users/dtjld/Desktop/AIoT_software/LiteOS_Lab_overseas/LiteOS_Lab/iot_link/network/lwm2m/wakaama_lwm2m/core/er-coap-13\er-coap-13.c ****     coap_pkt->version = 1;
 1941              		.loc 1 575 0
 1942 0018 BB68     		ldr	r3, [r7, #8]
 1943 001a 0122     		movs	r2, #1
 1944 001c 1A71     		strb	r2, [r3, #4]
 576:C:/Users/dtjld/Desktop/AIoT_software/LiteOS_Lab_overseas/LiteOS_Lab/iot_link/network/lwm2m/wakaama_lwm2m/core/er-coap-13\er-coap-13.c **** 
 577:C:/Users/dtjld/Desktop/AIoT_software/LiteOS_Lab_overseas/LiteOS_Lab/iot_link/network/lwm2m/wakaama_lwm2m/core/er-coap-13\er-coap-13.c ****     PRINTF("-Serializing MID %u to %p, ", coap_pkt->mid, coap_pkt->buffer);
 578:C:/Users/dtjld/Desktop/AIoT_software/LiteOS_Lab_overseas/LiteOS_Lab/iot_link/network/lwm2m/wakaama_lwm2m/core/er-coap-13\er-coap-13.c **** 
 579:C:/Users/dtjld/Desktop/AIoT_software/LiteOS_Lab_overseas/LiteOS_Lab/iot_link/network/lwm2m/wakaama_lwm2m/core/er-coap-13\er-coap-13.c ****     /* set header fields */
 580:C:/Users/dtjld/Desktop/AIoT_software/LiteOS_Lab_overseas/LiteOS_Lab/iot_link/network/lwm2m/wakaama_lwm2m/core/er-coap-13\er-coap-13.c ****     coap_pkt->buffer[0]  = 0x00;
 1945              		.loc 1 580 0
 1946 001e BB68     		ldr	r3, [r7, #8]
ARM GAS  C:\Users\dtjld\AppData\Local\Temp\ccpI0fza.s 			page 45


 1947 0020 1B68     		ldr	r3, [r3]
 1948 0022 0022     		movs	r2, #0
 1949 0024 1A70     		strb	r2, [r3]
 581:C:/Users/dtjld/Desktop/AIoT_software/LiteOS_Lab_overseas/LiteOS_Lab/iot_link/network/lwm2m/wakaama_lwm2m/core/er-coap-13\er-coap-13.c ****     coap_pkt->buffer[0] |= COAP_HEADER_VERSION_MASK & (coap_pkt->version) << COAP_HEADER_VERSION_PO
 1950              		.loc 1 581 0
 1951 0026 BB68     		ldr	r3, [r7, #8]
 1952 0028 1B68     		ldr	r3, [r3]
 1953 002a 1B78     		ldrb	r3, [r3]	@ zero_extendqisi2
 1954 002c 5AB2     		sxtb	r2, r3
 1955 002e BB68     		ldr	r3, [r7, #8]
 1956 0030 1B79     		ldrb	r3, [r3, #4]	@ zero_extendqisi2
 1957 0032 9B01     		lsls	r3, r3, #6
 1958 0034 5BB2     		sxtb	r3, r3
 1959 0036 1343     		orrs	r3, r3, r2
 1960 0038 5AB2     		sxtb	r2, r3
 1961 003a BB68     		ldr	r3, [r7, #8]
 1962 003c 1B68     		ldr	r3, [r3]
 1963 003e D2B2     		uxtb	r2, r2
 1964 0040 1A70     		strb	r2, [r3]
 582:C:/Users/dtjld/Desktop/AIoT_software/LiteOS_Lab_overseas/LiteOS_Lab/iot_link/network/lwm2m/wakaama_lwm2m/core/er-coap-13\er-coap-13.c ****     coap_pkt->buffer[0] |= COAP_HEADER_TYPE_MASK & (coap_pkt->type) << COAP_HEADER_TYPE_POSITION;
 1965              		.loc 1 582 0
 1966 0042 BB68     		ldr	r3, [r7, #8]
 1967 0044 1B68     		ldr	r3, [r3]
 1968 0046 1B78     		ldrb	r3, [r3]	@ zero_extendqisi2
 1969 0048 5AB2     		sxtb	r2, r3
 1970 004a BB68     		ldr	r3, [r7, #8]
 1971 004c 5B79     		ldrb	r3, [r3, #5]	@ zero_extendqisi2
 1972 004e 1B01     		lsls	r3, r3, #4
 1973 0050 5BB2     		sxtb	r3, r3
 1974 0052 03F03003 		and	r3, r3, #48
 1975 0056 5BB2     		sxtb	r3, r3
 1976 0058 1343     		orrs	r3, r3, r2
 1977 005a 5AB2     		sxtb	r2, r3
 1978 005c BB68     		ldr	r3, [r7, #8]
 1979 005e 1B68     		ldr	r3, [r3]
 1980 0060 D2B2     		uxtb	r2, r2
 1981 0062 1A70     		strb	r2, [r3]
 583:C:/Users/dtjld/Desktop/AIoT_software/LiteOS_Lab_overseas/LiteOS_Lab/iot_link/network/lwm2m/wakaama_lwm2m/core/er-coap-13\er-coap-13.c ****     coap_pkt->buffer[0] |= COAP_HEADER_TOKEN_LEN_MASK & (coap_pkt->token_len) << COAP_HEADER_TOKEN_
 1982              		.loc 1 583 0
 1983 0064 BB68     		ldr	r3, [r7, #8]
 1984 0066 1B68     		ldr	r3, [r3]
 1985 0068 1B78     		ldrb	r3, [r3]	@ zero_extendqisi2
 1986 006a 5AB2     		sxtb	r2, r3
 1987 006c BB68     		ldr	r3, [r7, #8]
 1988 006e 93F84C30 		ldrb	r3, [r3, #76]	@ zero_extendqisi2
 1989 0072 5BB2     		sxtb	r3, r3
 1990 0074 03F00F03 		and	r3, r3, #15
 1991 0078 5BB2     		sxtb	r3, r3
 1992 007a 1343     		orrs	r3, r3, r2
 1993 007c 5AB2     		sxtb	r2, r3
 1994 007e BB68     		ldr	r3, [r7, #8]
 1995 0080 1B68     		ldr	r3, [r3]
 1996 0082 D2B2     		uxtb	r2, r2
 1997 0084 1A70     		strb	r2, [r3]
 584:C:/Users/dtjld/Desktop/AIoT_software/LiteOS_Lab_overseas/LiteOS_Lab/iot_link/network/lwm2m/wakaama_lwm2m/core/er-coap-13\er-coap-13.c ****     coap_pkt->buffer[1] = coap_pkt->code;
 1998              		.loc 1 584 0
 1999 0086 BB68     		ldr	r3, [r7, #8]
ARM GAS  C:\Users\dtjld\AppData\Local\Temp\ccpI0fza.s 			page 46


 2000 0088 1B68     		ldr	r3, [r3]
 2001 008a 0133     		adds	r3, r3, #1
 2002 008c BA68     		ldr	r2, [r7, #8]
 2003 008e 9279     		ldrb	r2, [r2, #6]	@ zero_extendqisi2
 2004 0090 1A70     		strb	r2, [r3]
 585:C:/Users/dtjld/Desktop/AIoT_software/LiteOS_Lab_overseas/LiteOS_Lab/iot_link/network/lwm2m/wakaama_lwm2m/core/er-coap-13\er-coap-13.c ****     coap_pkt->buffer[2] = (uint8_t) ((coap_pkt->mid) >> 8);
 2005              		.loc 1 585 0
 2006 0092 BB68     		ldr	r3, [r7, #8]
 2007 0094 1B89     		ldrh	r3, [r3, #8]
 2008 0096 1B0A     		lsrs	r3, r3, #8
 2009 0098 9AB2     		uxth	r2, r3
 2010 009a BB68     		ldr	r3, [r7, #8]
 2011 009c 1B68     		ldr	r3, [r3]
 2012 009e 0233     		adds	r3, r3, #2
 2013 00a0 D2B2     		uxtb	r2, r2
 2014 00a2 1A70     		strb	r2, [r3]
 586:C:/Users/dtjld/Desktop/AIoT_software/LiteOS_Lab_overseas/LiteOS_Lab/iot_link/network/lwm2m/wakaama_lwm2m/core/er-coap-13\er-coap-13.c ****     coap_pkt->buffer[3] = (uint8_t) (coap_pkt->mid);
 2015              		.loc 1 586 0
 2016 00a4 BB68     		ldr	r3, [r7, #8]
 2017 00a6 1A89     		ldrh	r2, [r3, #8]
 2018 00a8 BB68     		ldr	r3, [r7, #8]
 2019 00aa 1B68     		ldr	r3, [r3]
 2020 00ac 0333     		adds	r3, r3, #3
 2021 00ae D2B2     		uxtb	r2, r2
 2022 00b0 1A70     		strb	r2, [r3]
 587:C:/Users/dtjld/Desktop/AIoT_software/LiteOS_Lab_overseas/LiteOS_Lab/iot_link/network/lwm2m/wakaama_lwm2m/core/er-coap-13\er-coap-13.c **** 
 588:C:/Users/dtjld/Desktop/AIoT_software/LiteOS_Lab_overseas/LiteOS_Lab/iot_link/network/lwm2m/wakaama_lwm2m/core/er-coap-13\er-coap-13.c ****     /* set Token */
 589:C:/Users/dtjld/Desktop/AIoT_software/LiteOS_Lab_overseas/LiteOS_Lab/iot_link/network/lwm2m/wakaama_lwm2m/core/er-coap-13\er-coap-13.c ****     PRINTF("Token (len %u)", coap_pkt->token_len);
 590:C:/Users/dtjld/Desktop/AIoT_software/LiteOS_Lab_overseas/LiteOS_Lab/iot_link/network/lwm2m/wakaama_lwm2m/core/er-coap-13\er-coap-13.c ****     option = coap_pkt->buffer + COAP_HEADER_LEN;
 2023              		.loc 1 590 0
 2024 00b2 BB68     		ldr	r3, [r7, #8]
 2025 00b4 1B68     		ldr	r3, [r3]
 2026 00b6 0433     		adds	r3, r3, #4
 2027 00b8 FB61     		str	r3, [r7, #28]
 591:C:/Users/dtjld/Desktop/AIoT_software/LiteOS_Lab_overseas/LiteOS_Lab/iot_link/network/lwm2m/wakaama_lwm2m/core/er-coap-13\er-coap-13.c ****     for (current_number = 0; current_number < coap_pkt->token_len; ++current_number)
 2028              		.loc 1 591 0
 2029 00ba 0023     		movs	r3, #0
 2030 00bc BB61     		str	r3, [r7, #24]
 2031 00be 0CE0     		b	.L105
 2032              	.L106:
 592:C:/Users/dtjld/Desktop/AIoT_software/LiteOS_Lab_overseas/LiteOS_Lab/iot_link/network/lwm2m/wakaama_lwm2m/core/er-coap-13\er-coap-13.c ****     {
 593:C:/Users/dtjld/Desktop/AIoT_software/LiteOS_Lab_overseas/LiteOS_Lab/iot_link/network/lwm2m/wakaama_lwm2m/core/er-coap-13\er-coap-13.c ****         PRINTF(" %02X", coap_pkt->token[current_number]);
 594:C:/Users/dtjld/Desktop/AIoT_software/LiteOS_Lab_overseas/LiteOS_Lab/iot_link/network/lwm2m/wakaama_lwm2m/core/er-coap-13\er-coap-13.c ****         *option = coap_pkt->token[current_number];
 2033              		.loc 1 594 0 discriminator 3
 2034 00c0 BA68     		ldr	r2, [r7, #8]
 2035 00c2 BB69     		ldr	r3, [r7, #24]
 2036 00c4 1344     		add	r3, r3, r2
 2037 00c6 4D33     		adds	r3, r3, #77
 2038 00c8 1A78     		ldrb	r2, [r3]	@ zero_extendqisi2
 2039 00ca FB69     		ldr	r3, [r7, #28]
 2040 00cc 1A70     		strb	r2, [r3]
 595:C:/Users/dtjld/Desktop/AIoT_software/LiteOS_Lab_overseas/LiteOS_Lab/iot_link/network/lwm2m/wakaama_lwm2m/core/er-coap-13\er-coap-13.c ****         ++option;
 2041              		.loc 1 595 0 discriminator 3
 2042 00ce FB69     		ldr	r3, [r7, #28]
 2043 00d0 0133     		adds	r3, r3, #1
 2044 00d2 FB61     		str	r3, [r7, #28]
 591:C:/Users/dtjld/Desktop/AIoT_software/LiteOS_Lab_overseas/LiteOS_Lab/iot_link/network/lwm2m/wakaama_lwm2m/core/er-coap-13\er-coap-13.c ****     for (current_number = 0; current_number < coap_pkt->token_len; ++current_number)
ARM GAS  C:\Users\dtjld\AppData\Local\Temp\ccpI0fza.s 			page 47


 2045              		.loc 1 591 0 discriminator 3
 2046 00d4 BB69     		ldr	r3, [r7, #24]
 2047 00d6 0133     		adds	r3, r3, #1
 2048 00d8 BB61     		str	r3, [r7, #24]
 2049              	.L105:
 591:C:/Users/dtjld/Desktop/AIoT_software/LiteOS_Lab_overseas/LiteOS_Lab/iot_link/network/lwm2m/wakaama_lwm2m/core/er-coap-13\er-coap-13.c ****     for (current_number = 0; current_number < coap_pkt->token_len; ++current_number)
 2050              		.loc 1 591 0 is_stmt 0 discriminator 1
 2051 00da BB68     		ldr	r3, [r7, #8]
 2052 00dc 93F84C30 		ldrb	r3, [r3, #76]	@ zero_extendqisi2
 2053 00e0 1A46     		mov	r2, r3
 2054 00e2 BB69     		ldr	r3, [r7, #24]
 2055 00e4 9342     		cmp	r3, r2
 2056 00e6 EBD3     		bcc	.L106
 596:C:/Users/dtjld/Desktop/AIoT_software/LiteOS_Lab_overseas/LiteOS_Lab/iot_link/network/lwm2m/wakaama_lwm2m/core/er-coap-13\er-coap-13.c ****     }
 597:C:/Users/dtjld/Desktop/AIoT_software/LiteOS_Lab_overseas/LiteOS_Lab/iot_link/network/lwm2m/wakaama_lwm2m/core/er-coap-13\er-coap-13.c ****     PRINTF("-\n");
 598:C:/Users/dtjld/Desktop/AIoT_software/LiteOS_Lab_overseas/LiteOS_Lab/iot_link/network/lwm2m/wakaama_lwm2m/core/er-coap-13\er-coap-13.c **** 
 599:C:/Users/dtjld/Desktop/AIoT_software/LiteOS_Lab_overseas/LiteOS_Lab/iot_link/network/lwm2m/wakaama_lwm2m/core/er-coap-13\er-coap-13.c ****     /* Serialize options */
 600:C:/Users/dtjld/Desktop/AIoT_software/LiteOS_Lab_overseas/LiteOS_Lab/iot_link/network/lwm2m/wakaama_lwm2m/core/er-coap-13\er-coap-13.c ****     current_number = 0;
 2057              		.loc 1 600 0 is_stmt 1
 2058 00e8 0023     		movs	r3, #0
 2059 00ea BB61     		str	r3, [r7, #24]
 601:C:/Users/dtjld/Desktop/AIoT_software/LiteOS_Lab_overseas/LiteOS_Lab/iot_link/network/lwm2m/wakaama_lwm2m/core/er-coap-13\er-coap-13.c **** 
 602:C:/Users/dtjld/Desktop/AIoT_software/LiteOS_Lab_overseas/LiteOS_Lab/iot_link/network/lwm2m/wakaama_lwm2m/core/er-coap-13\er-coap-13.c ****     PRINTF("-Serializing options at %p-\n", option);
 603:C:/Users/dtjld/Desktop/AIoT_software/LiteOS_Lab_overseas/LiteOS_Lab/iot_link/network/lwm2m/wakaama_lwm2m/core/er-coap-13\er-coap-13.c **** 
 604:C:/Users/dtjld/Desktop/AIoT_software/LiteOS_Lab_overseas/LiteOS_Lab/iot_link/network/lwm2m/wakaama_lwm2m/core/er-coap-13\er-coap-13.c ****     /* The options must be serialized in the order of their number */
 605:C:/Users/dtjld/Desktop/AIoT_software/LiteOS_Lab_overseas/LiteOS_Lab/iot_link/network/lwm2m/wakaama_lwm2m/core/er-coap-13\er-coap-13.c ****     COAP_SERIALIZE_BYTE_OPTION(   COAP_OPTION_IF_MATCH,       if_match, "If-Match")
 2060              		.loc 1 605 0
 2061 00ec BB68     		ldr	r3, [r7, #8]
 2062 00ee 9B7A     		ldrb	r3, [r3, #10]	@ zero_extendqisi2
 2063 00f0 03F00203 		and	r3, r3, #2
 2064 00f4 002B     		cmp	r3, #0
 2065 00f6 15D0     		beq	.L107
 2066              		.loc 1 605 0 is_stmt 0 discriminator 1
 2067 00f8 BB68     		ldr	r3, [r7, #8]
 2068 00fa 03F15B02 		add	r2, r3, #91
 2069 00fe BB68     		ldr	r3, [r7, #8]
 2070 0100 93F85A30 		ldrb	r3, [r3, #90]	@ zero_extendqisi2
 2071 0104 1946     		mov	r1, r3
 2072 0106 0023     		movs	r3, #0
 2073 0108 0193     		str	r3, [sp, #4]
 2074 010a 0091     		str	r1, [sp]
 2075 010c 1346     		mov	r3, r2
 2076 010e FA69     		ldr	r2, [r7, #28]
 2077 0110 B969     		ldr	r1, [r7, #24]
 2078 0112 0120     		movs	r0, #1
 2079 0114 FFF7FEFF 		bl	coap_serialize_array_option
 2080 0118 0246     		mov	r2, r0
 2081 011a FB69     		ldr	r3, [r7, #28]
 2082 011c 1344     		add	r3, r3, r2
 2083 011e FB61     		str	r3, [r7, #28]
 2084 0120 0123     		movs	r3, #1
 2085 0122 BB61     		str	r3, [r7, #24]
 2086              	.L107:
 606:C:/Users/dtjld/Desktop/AIoT_software/LiteOS_Lab_overseas/LiteOS_Lab/iot_link/network/lwm2m/wakaama_lwm2m/core/er-coap-13\er-coap-13.c ****     COAP_SERIALIZE_STRING_OPTION( COAP_OPTION_URI_HOST,       uri_host, '\0', "Uri-Host")
 2087              		.loc 1 606 0 is_stmt 1
 2088 0124 BB68     		ldr	r3, [r7, #8]
 2089 0126 9B7A     		ldrb	r3, [r3, #10]	@ zero_extendqisi2
ARM GAS  C:\Users\dtjld\AppData\Local\Temp\ccpI0fza.s 			page 48


 2090 0128 03F00803 		and	r3, r3, #8
 2091 012c 002B     		cmp	r3, #0
 2092 012e 12D0     		beq	.L108
 2093              		.loc 1 606 0 is_stmt 0 discriminator 1
 2094 0130 BB68     		ldr	r3, [r7, #8]
 2095 0132 196B     		ldr	r1, [r3, #48]
 2096 0134 BB68     		ldr	r3, [r7, #8]
 2097 0136 DB6A     		ldr	r3, [r3, #44]
 2098 0138 0022     		movs	r2, #0
 2099 013a 0192     		str	r2, [sp, #4]
 2100 013c 0093     		str	r3, [sp]
 2101 013e 0B46     		mov	r3, r1
 2102 0140 FA69     		ldr	r2, [r7, #28]
 2103 0142 B969     		ldr	r1, [r7, #24]
 2104 0144 0320     		movs	r0, #3
 2105 0146 FFF7FEFF 		bl	coap_serialize_array_option
 2106 014a 0246     		mov	r2, r0
 2107 014c FB69     		ldr	r3, [r7, #28]
 2108 014e 1344     		add	r3, r3, r2
 2109 0150 FB61     		str	r3, [r7, #28]
 2110 0152 0323     		movs	r3, #3
 2111 0154 BB61     		str	r3, [r7, #24]
 2112              	.L108:
 607:C:/Users/dtjld/Desktop/AIoT_software/LiteOS_Lab_overseas/LiteOS_Lab/iot_link/network/lwm2m/wakaama_lwm2m/core/er-coap-13\er-coap-13.c ****     COAP_SERIALIZE_BYTE_OPTION(   COAP_OPTION_ETAG,           etag, "ETag")
 2113              		.loc 1 607 0 is_stmt 1
 2114 0156 BB68     		ldr	r3, [r7, #8]
 2115 0158 9B7A     		ldrb	r3, [r3, #10]	@ zero_extendqisi2
 2116 015a 03F01003 		and	r3, r3, #16
 2117 015e 002B     		cmp	r3, #0
 2118 0160 15D0     		beq	.L109
 2119              		.loc 1 607 0 is_stmt 0 discriminator 1
 2120 0162 BB68     		ldr	r3, [r7, #8]
 2121 0164 03F12102 		add	r2, r3, #33
 2122 0168 BB68     		ldr	r3, [r7, #8]
 2123 016a 93F82030 		ldrb	r3, [r3, #32]	@ zero_extendqisi2
 2124 016e 1946     		mov	r1, r3
 2125 0170 0023     		movs	r3, #0
 2126 0172 0193     		str	r3, [sp, #4]
 2127 0174 0091     		str	r1, [sp]
 2128 0176 1346     		mov	r3, r2
 2129 0178 FA69     		ldr	r2, [r7, #28]
 2130 017a B969     		ldr	r1, [r7, #24]
 2131 017c 0420     		movs	r0, #4
 2132 017e FFF7FEFF 		bl	coap_serialize_array_option
 2133 0182 0246     		mov	r2, r0
 2134 0184 FB69     		ldr	r3, [r7, #28]
 2135 0186 1344     		add	r3, r3, r2
 2136 0188 FB61     		str	r3, [r7, #28]
 2137 018a 0423     		movs	r3, #4
 2138 018c BB61     		str	r3, [r7, #24]
 2139              	.L109:
 608:C:/Users/dtjld/Desktop/AIoT_software/LiteOS_Lab_overseas/LiteOS_Lab/iot_link/network/lwm2m/wakaama_lwm2m/core/er-coap-13\er-coap-13.c ****     COAP_SERIALIZE_INT_OPTION(    COAP_OPTION_IF_NONE_MATCH,  content_type - coap_pkt->content_type
 2140              		.loc 1 608 0 is_stmt 1
 2141 018e BB68     		ldr	r3, [r7, #8]
 2142 0190 9B7A     		ldrb	r3, [r3, #10]	@ zero_extendqisi2
 2143 0192 03F02003 		and	r3, r3, #32
 2144 0196 002B     		cmp	r3, #0
ARM GAS  C:\Users\dtjld\AppData\Local\Temp\ccpI0fza.s 			page 49


 2145 0198 0BD0     		beq	.L110
 2146              		.loc 1 608 0 is_stmt 0 discriminator 1
 2147 019a 0023     		movs	r3, #0
 2148 019c FA69     		ldr	r2, [r7, #28]
 2149 019e B969     		ldr	r1, [r7, #24]
 2150 01a0 0520     		movs	r0, #5
 2151 01a2 FFF7FEFF 		bl	coap_serialize_int_option
 2152 01a6 0246     		mov	r2, r0
 2153 01a8 FB69     		ldr	r3, [r7, #28]
 2154 01aa 1344     		add	r3, r3, r2
 2155 01ac FB61     		str	r3, [r7, #28]
 2156 01ae 0523     		movs	r3, #5
 2157 01b0 BB61     		str	r3, [r7, #24]
 2158              	.L110:
 609:C:/Users/dtjld/Desktop/AIoT_software/LiteOS_Lab_overseas/LiteOS_Lab/iot_link/network/lwm2m/wakaama_lwm2m/core/er-coap-13\er-coap-13.c ****     COAP_SERIALIZE_INT_OPTION(    COAP_OPTION_OBSERVE,        observe, "Observe")
 2159              		.loc 1 609 0 is_stmt 1
 2160 01b2 BB68     		ldr	r3, [r7, #8]
 2161 01b4 9B7A     		ldrb	r3, [r3, #10]	@ zero_extendqisi2
 2162 01b6 03F04003 		and	r3, r3, #64
 2163 01ba 002B     		cmp	r3, #0
 2164 01bc 0CD0     		beq	.L111
 2165              		.loc 1 609 0 is_stmt 0 discriminator 1
 2166 01be BB68     		ldr	r3, [r7, #8]
 2167 01c0 9B6C     		ldr	r3, [r3, #72]
 2168 01c2 FA69     		ldr	r2, [r7, #28]
 2169 01c4 B969     		ldr	r1, [r7, #24]
 2170 01c6 0620     		movs	r0, #6
 2171 01c8 FFF7FEFF 		bl	coap_serialize_int_option
 2172 01cc 0246     		mov	r2, r0
 2173 01ce FB69     		ldr	r3, [r7, #28]
 2174 01d0 1344     		add	r3, r3, r2
 2175 01d2 FB61     		str	r3, [r7, #28]
 2176 01d4 0623     		movs	r3, #6
 2177 01d6 BB61     		str	r3, [r7, #24]
 2178              	.L111:
 610:C:/Users/dtjld/Desktop/AIoT_software/LiteOS_Lab_overseas/LiteOS_Lab/iot_link/network/lwm2m/wakaama_lwm2m/core/er-coap-13\er-coap-13.c ****     COAP_SERIALIZE_INT_OPTION(    COAP_OPTION_URI_PORT,       uri_port, "Uri-Port")
 2179              		.loc 1 610 0 is_stmt 1
 2180 01d8 BB68     		ldr	r3, [r7, #8]
 2181 01da 9B7A     		ldrb	r3, [r3, #10]	@ zero_extendqisi2
 2182 01dc 5BB2     		sxtb	r3, r3
 2183 01de 002B     		cmp	r3, #0
 2184 01e0 0CDA     		bge	.L112
 2185              		.loc 1 610 0 is_stmt 0 discriminator 1
 2186 01e2 BB68     		ldr	r3, [r7, #8]
 2187 01e4 1B8F     		ldrh	r3, [r3, #56]
 2188 01e6 FA69     		ldr	r2, [r7, #28]
 2189 01e8 B969     		ldr	r1, [r7, #24]
 2190 01ea 0720     		movs	r0, #7
 2191 01ec FFF7FEFF 		bl	coap_serialize_int_option
 2192 01f0 0246     		mov	r2, r0
 2193 01f2 FB69     		ldr	r3, [r7, #28]
 2194 01f4 1344     		add	r3, r3, r2
 2195 01f6 FB61     		str	r3, [r7, #28]
 2196 01f8 0723     		movs	r3, #7
 2197 01fa BB61     		str	r3, [r7, #24]
 2198              	.L112:
 611:C:/Users/dtjld/Desktop/AIoT_software/LiteOS_Lab_overseas/LiteOS_Lab/iot_link/network/lwm2m/wakaama_lwm2m/core/er-coap-13\er-coap-13.c ****     COAP_SERIALIZE_MULTI_OPTION(  COAP_OPTION_LOCATION_PATH,  location_path, "Location-Path")
ARM GAS  C:\Users\dtjld\AppData\Local\Temp\ccpI0fza.s 			page 50


 2199              		.loc 1 611 0 is_stmt 1
 2200 01fc BB68     		ldr	r3, [r7, #8]
 2201 01fe DB7A     		ldrb	r3, [r3, #11]	@ zero_extendqisi2
 2202 0200 03F00103 		and	r3, r3, #1
 2203 0204 002B     		cmp	r3, #0
 2204 0206 0CD0     		beq	.L113
 2205              		.loc 1 611 0 is_stmt 0 discriminator 1
 2206 0208 BB68     		ldr	r3, [r7, #8]
 2207 020a 5B6B     		ldr	r3, [r3, #52]
 2208 020c FA69     		ldr	r2, [r7, #28]
 2209 020e B969     		ldr	r1, [r7, #24]
 2210 0210 0820     		movs	r0, #8
 2211 0212 FFF7FEFF 		bl	coap_serialize_multi_option
 2212 0216 0246     		mov	r2, r0
 2213 0218 FB69     		ldr	r3, [r7, #28]
 2214 021a 1344     		add	r3, r3, r2
 2215 021c FB61     		str	r3, [r7, #28]
 2216 021e 0823     		movs	r3, #8
 2217 0220 BB61     		str	r3, [r7, #24]
 2218              	.L113:
 612:C:/Users/dtjld/Desktop/AIoT_software/LiteOS_Lab_overseas/LiteOS_Lab/iot_link/network/lwm2m/wakaama_lwm2m/core/er-coap-13\er-coap-13.c ****     COAP_SERIALIZE_MULTI_OPTION(  COAP_OPTION_URI_PATH,       uri_path, "Uri-Path")
 2219              		.loc 1 612 0 is_stmt 1
 2220 0222 BB68     		ldr	r3, [r7, #8]
 2221 0224 DB7A     		ldrb	r3, [r3, #11]	@ zero_extendqisi2
 2222 0226 03F00803 		and	r3, r3, #8
 2223 022a 002B     		cmp	r3, #0
 2224 022c 0CD0     		beq	.L114
 2225              		.loc 1 612 0 is_stmt 0 discriminator 1
 2226 022e BB68     		ldr	r3, [r7, #8]
 2227 0230 5B6C     		ldr	r3, [r3, #68]
 2228 0232 FA69     		ldr	r2, [r7, #28]
 2229 0234 B969     		ldr	r1, [r7, #24]
 2230 0236 0B20     		movs	r0, #11
 2231 0238 FFF7FEFF 		bl	coap_serialize_multi_option
 2232 023c 0246     		mov	r2, r0
 2233 023e FB69     		ldr	r3, [r7, #28]
 2234 0240 1344     		add	r3, r3, r2
 2235 0242 FB61     		str	r3, [r7, #28]
 2236 0244 0B23     		movs	r3, #11
 2237 0246 BB61     		str	r3, [r7, #24]
 2238              	.L114:
 613:C:/Users/dtjld/Desktop/AIoT_software/LiteOS_Lab_overseas/LiteOS_Lab/iot_link/network/lwm2m/wakaama_lwm2m/core/er-coap-13\er-coap-13.c ****     COAP_SERIALIZE_INT_OPTION(    COAP_OPTION_CONTENT_TYPE,   content_type, "Content-Format")
 2239              		.loc 1 613 0 is_stmt 1
 2240 0248 BB68     		ldr	r3, [r7, #8]
 2241 024a DB7A     		ldrb	r3, [r3, #11]	@ zero_extendqisi2
 2242 024c 03F01003 		and	r3, r3, #16
 2243 0250 002B     		cmp	r3, #0
 2244 0252 0CD0     		beq	.L115
 2245              		.loc 1 613 0 is_stmt 0 discriminator 1
 2246 0254 BB68     		ldr	r3, [r7, #8]
 2247 0256 1B8A     		ldrh	r3, [r3, #16]
 2248 0258 FA69     		ldr	r2, [r7, #28]
 2249 025a B969     		ldr	r1, [r7, #24]
 2250 025c 0C20     		movs	r0, #12
 2251 025e FFF7FEFF 		bl	coap_serialize_int_option
 2252 0262 0246     		mov	r2, r0
 2253 0264 FB69     		ldr	r3, [r7, #28]
ARM GAS  C:\Users\dtjld\AppData\Local\Temp\ccpI0fza.s 			page 51


 2254 0266 1344     		add	r3, r3, r2
 2255 0268 FB61     		str	r3, [r7, #28]
 2256 026a 0C23     		movs	r3, #12
 2257 026c BB61     		str	r3, [r7, #24]
 2258              	.L115:
 614:C:/Users/dtjld/Desktop/AIoT_software/LiteOS_Lab_overseas/LiteOS_Lab/iot_link/network/lwm2m/wakaama_lwm2m/core/er-coap-13\er-coap-13.c ****     COAP_SERIALIZE_INT_OPTION(    COAP_OPTION_MAX_AGE,        max_age, "Max-Age")
 2259              		.loc 1 614 0 is_stmt 1
 2260 026e BB68     		ldr	r3, [r7, #8]
 2261 0270 DB7A     		ldrb	r3, [r3, #11]	@ zero_extendqisi2
 2262 0272 03F04003 		and	r3, r3, #64
 2263 0276 002B     		cmp	r3, #0
 2264 0278 0CD0     		beq	.L116
 2265              		.loc 1 614 0 is_stmt 0 discriminator 1
 2266 027a BB68     		ldr	r3, [r7, #8]
 2267 027c 5B69     		ldr	r3, [r3, #20]
 2268 027e FA69     		ldr	r2, [r7, #28]
 2269 0280 B969     		ldr	r1, [r7, #24]
 2270 0282 0E20     		movs	r0, #14
 2271 0284 FFF7FEFF 		bl	coap_serialize_int_option
 2272 0288 0246     		mov	r2, r0
 2273 028a FB69     		ldr	r3, [r7, #28]
 2274 028c 1344     		add	r3, r3, r2
 2275 028e FB61     		str	r3, [r7, #28]
 2276 0290 0E23     		movs	r3, #14
 2277 0292 BB61     		str	r3, [r7, #24]
 2278              	.L116:
 615:C:/Users/dtjld/Desktop/AIoT_software/LiteOS_Lab_overseas/LiteOS_Lab/iot_link/network/lwm2m/wakaama_lwm2m/core/er-coap-13\er-coap-13.c ****     COAP_SERIALIZE_MULTI_OPTION(  COAP_OPTION_URI_QUERY,      uri_query, "Uri-Query")
 2279              		.loc 1 615 0 is_stmt 1
 2280 0294 BB68     		ldr	r3, [r7, #8]
 2281 0296 DB7A     		ldrb	r3, [r3, #11]	@ zero_extendqisi2
 2282 0298 5BB2     		sxtb	r3, r3
 2283 029a 002B     		cmp	r3, #0
 2284 029c 0DDA     		bge	.L117
 2285              		.loc 1 615 0 is_stmt 0 discriminator 1
 2286 029e BB68     		ldr	r3, [r7, #8]
 2287 02a0 D3F88030 		ldr	r3, [r3, #128]
 2288 02a4 FA69     		ldr	r2, [r7, #28]
 2289 02a6 B969     		ldr	r1, [r7, #24]
 2290 02a8 0F20     		movs	r0, #15
 2291 02aa FFF7FEFF 		bl	coap_serialize_multi_option
 2292 02ae 0246     		mov	r2, r0
 2293 02b0 FB69     		ldr	r3, [r7, #28]
 2294 02b2 1344     		add	r3, r3, r2
 2295 02b4 FB61     		str	r3, [r7, #28]
 2296 02b6 0F23     		movs	r3, #15
 2297 02b8 BB61     		str	r3, [r7, #24]
 2298              	.L117:
 616:C:/Users/dtjld/Desktop/AIoT_software/LiteOS_Lab_overseas/LiteOS_Lab/iot_link/network/lwm2m/wakaama_lwm2m/core/er-coap-13\er-coap-13.c ****     COAP_SERIALIZE_ACCEPT_OPTION( COAP_OPTION_ACCEPT,         accept, "Accept")
 2299              		.loc 1 616 0 is_stmt 1
 2300 02ba BB68     		ldr	r3, [r7, #8]
 2301 02bc 1B7B     		ldrb	r3, [r3, #12]	@ zero_extendqisi2
 2302 02be 03F00203 		and	r3, r3, #2
 2303 02c2 002B     		cmp	r3, #0
 2304 02c4 1DD0     		beq	.L118
 2305              	.LBB9:
 2306              		.loc 1 616 0 is_stmt 0 discriminator 1
 2307 02c6 0023     		movs	r3, #0
ARM GAS  C:\Users\dtjld\AppData\Local\Temp\ccpI0fza.s 			page 52


 2308 02c8 7B61     		str	r3, [r7, #20]
 2309 02ca 13E0     		b	.L119
 2310              	.L120:
 2311              		.loc 1 616 0 discriminator 4
 2312 02cc BA68     		ldr	r2, [r7, #8]
 2313 02ce 7B69     		ldr	r3, [r7, #20]
 2314 02d0 2833     		adds	r3, r3, #40
 2315 02d2 5B00     		lsls	r3, r3, #1
 2316 02d4 1344     		add	r3, r3, r2
 2317 02d6 DB88     		ldrh	r3, [r3, #6]
 2318 02d8 FA69     		ldr	r2, [r7, #28]
 2319 02da B969     		ldr	r1, [r7, #24]
 2320 02dc 1120     		movs	r0, #17
 2321 02de FFF7FEFF 		bl	coap_serialize_int_option
 2322 02e2 0246     		mov	r2, r0
 2323 02e4 FB69     		ldr	r3, [r7, #28]
 2324 02e6 1344     		add	r3, r3, r2
 2325 02e8 FB61     		str	r3, [r7, #28]
 2326 02ea 1123     		movs	r3, #17
 2327 02ec BB61     		str	r3, [r7, #24]
 2328 02ee 7B69     		ldr	r3, [r7, #20]
 2329 02f0 0133     		adds	r3, r3, #1
 2330 02f2 7B61     		str	r3, [r7, #20]
 2331              	.L119:
 2332              		.loc 1 616 0 discriminator 2
 2333 02f4 BB68     		ldr	r3, [r7, #8]
 2334 02f6 93F85530 		ldrb	r3, [r3, #85]	@ zero_extendqisi2
 2335 02fa 1A46     		mov	r2, r3
 2336 02fc 7B69     		ldr	r3, [r7, #20]
 2337 02fe 9342     		cmp	r3, r2
 2338 0300 E4DB     		blt	.L120
 2339              	.L118:
 2340              	.LBE9:
 617:C:/Users/dtjld/Desktop/AIoT_software/LiteOS_Lab_overseas/LiteOS_Lab/iot_link/network/lwm2m/wakaama_lwm2m/core/er-coap-13\er-coap-13.c ****     COAP_SERIALIZE_STRING_OPTION( COAP_OPTION_LOCATION_QUERY, location_query, '&', "Location-Query"
 2341              		.loc 1 617 0 is_stmt 1
 2342 0302 BB68     		ldr	r3, [r7, #8]
 2343 0304 1B7B     		ldrb	r3, [r3, #12]	@ zero_extendqisi2
 2344 0306 03F01003 		and	r3, r3, #16
 2345 030a 002B     		cmp	r3, #0
 2346 030c 12D0     		beq	.L121
 2347              		.loc 1 617 0 is_stmt 0 discriminator 1
 2348 030e BB68     		ldr	r3, [r7, #8]
 2349 0310 196C     		ldr	r1, [r3, #64]
 2350 0312 BB68     		ldr	r3, [r7, #8]
 2351 0314 DB6B     		ldr	r3, [r3, #60]
 2352 0316 2622     		movs	r2, #38
 2353 0318 0192     		str	r2, [sp, #4]
 2354 031a 0093     		str	r3, [sp]
 2355 031c 0B46     		mov	r3, r1
 2356 031e FA69     		ldr	r2, [r7, #28]
 2357 0320 B969     		ldr	r1, [r7, #24]
 2358 0322 1420     		movs	r0, #20
 2359 0324 FFF7FEFF 		bl	coap_serialize_array_option
 2360 0328 0246     		mov	r2, r0
 2361 032a FB69     		ldr	r3, [r7, #28]
 2362 032c 1344     		add	r3, r3, r2
 2363 032e FB61     		str	r3, [r7, #28]
ARM GAS  C:\Users\dtjld\AppData\Local\Temp\ccpI0fza.s 			page 53


 2364 0330 1423     		movs	r3, #20
 2365 0332 BB61     		str	r3, [r7, #24]
 2366              	.L121:
 618:C:/Users/dtjld/Desktop/AIoT_software/LiteOS_Lab_overseas/LiteOS_Lab/iot_link/network/lwm2m/wakaama_lwm2m/core/er-coap-13\er-coap-13.c ****     COAP_SERIALIZE_BLOCK_OPTION(  COAP_OPTION_BLOCK2,         block2, "Block2")
 2367              		.loc 1 618 0 is_stmt 1
 2368 0334 BB68     		ldr	r3, [r7, #8]
 2369 0336 1B7B     		ldrb	r3, [r3, #12]	@ zero_extendqisi2
 2370 0338 5BB2     		sxtb	r3, r3
 2371 033a 002B     		cmp	r3, #0
 2372 033c 27DA     		bge	.L122
 2373              	.LBB10:
 2374              		.loc 1 618 0 is_stmt 0 discriminator 1
 2375 033e BB68     		ldr	r3, [r7, #8]
 2376 0340 5B6E     		ldr	r3, [r3, #100]
 2377 0342 1B01     		lsls	r3, r3, #4
 2378 0344 3B61     		str	r3, [r7, #16]
 2379 0346 BB68     		ldr	r3, [r7, #8]
 2380 0348 93F86830 		ldrb	r3, [r3, #104]	@ zero_extendqisi2
 2381 034c 002B     		cmp	r3, #0
 2382 034e 03D0     		beq	.L123
 2383              		.loc 1 618 0 discriminator 2
 2384 0350 3B69     		ldr	r3, [r7, #16]
 2385 0352 43F00803 		orr	r3, r3, #8
 2386 0356 3B61     		str	r3, [r7, #16]
 2387              	.L123:
 2388              		.loc 1 618 0 discriminator 4
 2389 0358 BB68     		ldr	r3, [r7, #8]
 2390 035a B3F86A30 		ldrh	r3, [r3, #106]
 2391 035e 1B09     		lsrs	r3, r3, #4
 2392 0360 9BB2     		uxth	r3, r3
 2393 0362 1846     		mov	r0, r3
 2394 0364 FFF7FEFF 		bl	coap_log_2
 2395 0368 0346     		mov	r3, r0
 2396 036a 03F00F03 		and	r3, r3, #15
 2397 036e 1A46     		mov	r2, r3
 2398 0370 3B69     		ldr	r3, [r7, #16]
 2399 0372 1343     		orrs	r3, r3, r2
 2400 0374 3B61     		str	r3, [r7, #16]
 2401 0376 3B69     		ldr	r3, [r7, #16]
 2402 0378 FA69     		ldr	r2, [r7, #28]
 2403 037a B969     		ldr	r1, [r7, #24]
 2404 037c 1720     		movs	r0, #23
 2405 037e FFF7FEFF 		bl	coap_serialize_int_option
 2406 0382 0246     		mov	r2, r0
 2407 0384 FB69     		ldr	r3, [r7, #28]
 2408 0386 1344     		add	r3, r3, r2
 2409 0388 FB61     		str	r3, [r7, #28]
 2410 038a 1723     		movs	r3, #23
 2411 038c BB61     		str	r3, [r7, #24]
 2412              	.L122:
 2413              	.LBE10:
 619:C:/Users/dtjld/Desktop/AIoT_software/LiteOS_Lab_overseas/LiteOS_Lab/iot_link/network/lwm2m/wakaama_lwm2m/core/er-coap-13\er-coap-13.c ****     COAP_SERIALIZE_BLOCK_OPTION(  COAP_OPTION_BLOCK1,         block1, "Block1")
 2414              		.loc 1 619 0 is_stmt 1
 2415 038e BB68     		ldr	r3, [r7, #8]
 2416 0390 5B7B     		ldrb	r3, [r3, #13]	@ zero_extendqisi2
 2417 0392 03F00803 		and	r3, r3, #8
 2418 0396 002B     		cmp	r3, #0
ARM GAS  C:\Users\dtjld\AppData\Local\Temp\ccpI0fza.s 			page 54


 2419 0398 27D0     		beq	.L124
 2420              	.LBB11:
 2421              		.loc 1 619 0 is_stmt 0 discriminator 1
 2422 039a BB68     		ldr	r3, [r7, #8]
 2423 039c 1B6F     		ldr	r3, [r3, #112]
 2424 039e 1B01     		lsls	r3, r3, #4
 2425 03a0 FB60     		str	r3, [r7, #12]
 2426 03a2 BB68     		ldr	r3, [r7, #8]
 2427 03a4 93F87430 		ldrb	r3, [r3, #116]	@ zero_extendqisi2
 2428 03a8 002B     		cmp	r3, #0
 2429 03aa 03D0     		beq	.L125
 2430              		.loc 1 619 0 discriminator 2
 2431 03ac FB68     		ldr	r3, [r7, #12]
 2432 03ae 43F00803 		orr	r3, r3, #8
 2433 03b2 FB60     		str	r3, [r7, #12]
 2434              	.L125:
 2435              		.loc 1 619 0 discriminator 4
 2436 03b4 BB68     		ldr	r3, [r7, #8]
 2437 03b6 B3F87630 		ldrh	r3, [r3, #118]
 2438 03ba 1B09     		lsrs	r3, r3, #4
 2439 03bc 9BB2     		uxth	r3, r3
 2440 03be 1846     		mov	r0, r3
 2441 03c0 FFF7FEFF 		bl	coap_log_2
 2442 03c4 0346     		mov	r3, r0
 2443 03c6 03F00F03 		and	r3, r3, #15
 2444 03ca 1A46     		mov	r2, r3
 2445 03cc FB68     		ldr	r3, [r7, #12]
 2446 03ce 1343     		orrs	r3, r3, r2
 2447 03d0 FB60     		str	r3, [r7, #12]
 2448 03d2 FB68     		ldr	r3, [r7, #12]
 2449 03d4 FA69     		ldr	r2, [r7, #28]
 2450 03d6 B969     		ldr	r1, [r7, #24]
 2451 03d8 1B20     		movs	r0, #27
 2452 03da FFF7FEFF 		bl	coap_serialize_int_option
 2453 03de 0246     		mov	r2, r0
 2454 03e0 FB69     		ldr	r3, [r7, #28]
 2455 03e2 1344     		add	r3, r3, r2
 2456 03e4 FB61     		str	r3, [r7, #28]
 2457 03e6 1B23     		movs	r3, #27
 2458 03e8 BB61     		str	r3, [r7, #24]
 2459              	.L124:
 2460              	.LBE11:
 620:C:/Users/dtjld/Desktop/AIoT_software/LiteOS_Lab_overseas/LiteOS_Lab/iot_link/network/lwm2m/wakaama_lwm2m/core/er-coap-13\er-coap-13.c ****     COAP_SERIALIZE_INT_OPTION(    COAP_OPTION_SIZE,           size, "Size")
 2461              		.loc 1 620 0 is_stmt 1
 2462 03ea BB68     		ldr	r3, [r7, #8]
 2463 03ec 5B7B     		ldrb	r3, [r3, #13]	@ zero_extendqisi2
 2464 03ee 03F01003 		and	r3, r3, #16
 2465 03f2 002B     		cmp	r3, #0
 2466 03f4 0CD0     		beq	.L126
 2467              		.loc 1 620 0 is_stmt 0 discriminator 1
 2468 03f6 BB68     		ldr	r3, [r7, #8]
 2469 03f8 DB6F     		ldr	r3, [r3, #124]
 2470 03fa FA69     		ldr	r2, [r7, #28]
 2471 03fc B969     		ldr	r1, [r7, #24]
 2472 03fe 1C20     		movs	r0, #28
 2473 0400 FFF7FEFF 		bl	coap_serialize_int_option
 2474 0404 0246     		mov	r2, r0
ARM GAS  C:\Users\dtjld\AppData\Local\Temp\ccpI0fza.s 			page 55


 2475 0406 FB69     		ldr	r3, [r7, #28]
 2476 0408 1344     		add	r3, r3, r2
 2477 040a FB61     		str	r3, [r7, #28]
 2478 040c 1C23     		movs	r3, #28
 2479 040e BB61     		str	r3, [r7, #24]
 2480              	.L126:
 621:C:/Users/dtjld/Desktop/AIoT_software/LiteOS_Lab_overseas/LiteOS_Lab/iot_link/network/lwm2m/wakaama_lwm2m/core/er-coap-13\er-coap-13.c ****     COAP_SERIALIZE_STRING_OPTION( COAP_OPTION_PROXY_URI,      proxy_uri, '\0', "Proxy-Uri")
 2481              		.loc 1 621 0 is_stmt 1
 2482 0410 BB68     		ldr	r3, [r7, #8]
 2483 0412 9B7B     		ldrb	r3, [r3, #14]	@ zero_extendqisi2
 2484 0414 03F00803 		and	r3, r3, #8
 2485 0418 002B     		cmp	r3, #0
 2486 041a 12D0     		beq	.L127
 2487              		.loc 1 621 0 is_stmt 0 discriminator 1
 2488 041c BB68     		ldr	r3, [r7, #8]
 2489 041e D969     		ldr	r1, [r3, #28]
 2490 0420 BB68     		ldr	r3, [r7, #8]
 2491 0422 9B69     		ldr	r3, [r3, #24]
 2492 0424 0022     		movs	r2, #0
 2493 0426 0192     		str	r2, [sp, #4]
 2494 0428 0093     		str	r3, [sp]
 2495 042a 0B46     		mov	r3, r1
 2496 042c FA69     		ldr	r2, [r7, #28]
 2497 042e B969     		ldr	r1, [r7, #24]
 2498 0430 2320     		movs	r0, #35
 2499 0432 FFF7FEFF 		bl	coap_serialize_array_option
 2500 0436 0246     		mov	r2, r0
 2501 0438 FB69     		ldr	r3, [r7, #28]
 2502 043a 1344     		add	r3, r3, r2
 2503 043c FB61     		str	r3, [r7, #28]
 2504 043e 2323     		movs	r3, #35
 2505 0440 BB61     		str	r3, [r7, #24]
 2506              	.L127:
 622:C:/Users/dtjld/Desktop/AIoT_software/LiteOS_Lab_overseas/LiteOS_Lab/iot_link/network/lwm2m/wakaama_lwm2m/core/er-coap-13\er-coap-13.c **** 
 623:C:/Users/dtjld/Desktop/AIoT_software/LiteOS_Lab_overseas/LiteOS_Lab/iot_link/network/lwm2m/wakaama_lwm2m/core/er-coap-13\er-coap-13.c ****     PRINTF("-Done serializing at %p----\n", option);
 624:C:/Users/dtjld/Desktop/AIoT_software/LiteOS_Lab_overseas/LiteOS_Lab/iot_link/network/lwm2m/wakaama_lwm2m/core/er-coap-13\er-coap-13.c **** 
 625:C:/Users/dtjld/Desktop/AIoT_software/LiteOS_Lab_overseas/LiteOS_Lab/iot_link/network/lwm2m/wakaama_lwm2m/core/er-coap-13\er-coap-13.c ****     /* Free allocated header fields */
 626:C:/Users/dtjld/Desktop/AIoT_software/LiteOS_Lab_overseas/LiteOS_Lab/iot_link/network/lwm2m/wakaama_lwm2m/core/er-coap-13\er-coap-13.c ****     coap_free_header(packet);
 2507              		.loc 1 626 0 is_stmt 1
 2508 0442 7868     		ldr	r0, [r7, #4]
 2509 0444 FFF7FEFF 		bl	coap_free_header
 627:C:/Users/dtjld/Desktop/AIoT_software/LiteOS_Lab_overseas/LiteOS_Lab/iot_link/network/lwm2m/wakaama_lwm2m/core/er-coap-13\er-coap-13.c **** 
 628:C:/Users/dtjld/Desktop/AIoT_software/LiteOS_Lab_overseas/LiteOS_Lab/iot_link/network/lwm2m/wakaama_lwm2m/core/er-coap-13\er-coap-13.c ****     /* Pack payload */
 629:C:/Users/dtjld/Desktop/AIoT_software/LiteOS_Lab_overseas/LiteOS_Lab/iot_link/network/lwm2m/wakaama_lwm2m/core/er-coap-13\er-coap-13.c ****     /* Payload marker */
 630:C:/Users/dtjld/Desktop/AIoT_software/LiteOS_Lab_overseas/LiteOS_Lab/iot_link/network/lwm2m/wakaama_lwm2m/core/er-coap-13\er-coap-13.c ****     if (coap_pkt->payload_len)
 2510              		.loc 1 630 0
 2511 0448 BB68     		ldr	r3, [r7, #8]
 2512 044a B3F88630 		ldrh	r3, [r3, #134]
 2513 044e 002B     		cmp	r3, #0
 2514 0450 05D0     		beq	.L128
 631:C:/Users/dtjld/Desktop/AIoT_software/LiteOS_Lab_overseas/LiteOS_Lab/iot_link/network/lwm2m/wakaama_lwm2m/core/er-coap-13\er-coap-13.c ****     {
 632:C:/Users/dtjld/Desktop/AIoT_software/LiteOS_Lab_overseas/LiteOS_Lab/iot_link/network/lwm2m/wakaama_lwm2m/core/er-coap-13\er-coap-13.c ****         *option = 0xFF;
 2515              		.loc 1 632 0
 2516 0452 FB69     		ldr	r3, [r7, #28]
 2517 0454 FF22     		movs	r2, #255
 2518 0456 1A70     		strb	r2, [r3]
 633:C:/Users/dtjld/Desktop/AIoT_software/LiteOS_Lab_overseas/LiteOS_Lab/iot_link/network/lwm2m/wakaama_lwm2m/core/er-coap-13\er-coap-13.c ****         ++option;
ARM GAS  C:\Users\dtjld\AppData\Local\Temp\ccpI0fza.s 			page 56


 2519              		.loc 1 633 0
 2520 0458 FB69     		ldr	r3, [r7, #28]
 2521 045a 0133     		adds	r3, r3, #1
 2522 045c FB61     		str	r3, [r7, #28]
 2523              	.L128:
 634:C:/Users/dtjld/Desktop/AIoT_software/LiteOS_Lab_overseas/LiteOS_Lab/iot_link/network/lwm2m/wakaama_lwm2m/core/er-coap-13\er-coap-13.c ****     }
 635:C:/Users/dtjld/Desktop/AIoT_software/LiteOS_Lab_overseas/LiteOS_Lab/iot_link/network/lwm2m/wakaama_lwm2m/core/er-coap-13\er-coap-13.c **** 
 636:C:/Users/dtjld/Desktop/AIoT_software/LiteOS_Lab_overseas/LiteOS_Lab/iot_link/network/lwm2m/wakaama_lwm2m/core/er-coap-13\er-coap-13.c ****     memmove(option, coap_pkt->payload, coap_pkt->payload_len);
 2524              		.loc 1 636 0
 2525 045e BB68     		ldr	r3, [r7, #8]
 2526 0460 D3F88810 		ldr	r1, [r3, #136]
 2527 0464 BB68     		ldr	r3, [r7, #8]
 2528 0466 B3F88630 		ldrh	r3, [r3, #134]
 2529 046a 1A46     		mov	r2, r3
 2530 046c F869     		ldr	r0, [r7, #28]
 2531 046e FFF7FEFF 		bl	memmove
 637:C:/Users/dtjld/Desktop/AIoT_software/LiteOS_Lab_overseas/LiteOS_Lab/iot_link/network/lwm2m/wakaama_lwm2m/core/er-coap-13\er-coap-13.c **** 
 638:C:/Users/dtjld/Desktop/AIoT_software/LiteOS_Lab_overseas/LiteOS_Lab/iot_link/network/lwm2m/wakaama_lwm2m/core/er-coap-13\er-coap-13.c ****     PRINTF("-Done %u B (header len %u, payload len %u)-\n", coap_pkt->payload_len + option - buffer
 639:C:/Users/dtjld/Desktop/AIoT_software/LiteOS_Lab_overseas/LiteOS_Lab/iot_link/network/lwm2m/wakaama_lwm2m/core/er-coap-13\er-coap-13.c **** 
 640:C:/Users/dtjld/Desktop/AIoT_software/LiteOS_Lab_overseas/LiteOS_Lab/iot_link/network/lwm2m/wakaama_lwm2m/core/er-coap-13\er-coap-13.c ****     PRINTF("Dump [0x%02X %02X %02X %02X  %02X %02X %02X %02X]\n",
 641:C:/Users/dtjld/Desktop/AIoT_software/LiteOS_Lab_overseas/LiteOS_Lab/iot_link/network/lwm2m/wakaama_lwm2m/core/er-coap-13\er-coap-13.c ****            coap_pkt->buffer[0],
 642:C:/Users/dtjld/Desktop/AIoT_software/LiteOS_Lab_overseas/LiteOS_Lab/iot_link/network/lwm2m/wakaama_lwm2m/core/er-coap-13\er-coap-13.c ****            coap_pkt->buffer[1],
 643:C:/Users/dtjld/Desktop/AIoT_software/LiteOS_Lab_overseas/LiteOS_Lab/iot_link/network/lwm2m/wakaama_lwm2m/core/er-coap-13\er-coap-13.c ****            coap_pkt->buffer[2],
 644:C:/Users/dtjld/Desktop/AIoT_software/LiteOS_Lab_overseas/LiteOS_Lab/iot_link/network/lwm2m/wakaama_lwm2m/core/er-coap-13\er-coap-13.c ****            coap_pkt->buffer[3],
 645:C:/Users/dtjld/Desktop/AIoT_software/LiteOS_Lab_overseas/LiteOS_Lab/iot_link/network/lwm2m/wakaama_lwm2m/core/er-coap-13\er-coap-13.c ****            coap_pkt->buffer[4],
 646:C:/Users/dtjld/Desktop/AIoT_software/LiteOS_Lab_overseas/LiteOS_Lab/iot_link/network/lwm2m/wakaama_lwm2m/core/er-coap-13\er-coap-13.c ****            coap_pkt->buffer[5],
 647:C:/Users/dtjld/Desktop/AIoT_software/LiteOS_Lab_overseas/LiteOS_Lab/iot_link/network/lwm2m/wakaama_lwm2m/core/er-coap-13\er-coap-13.c ****            coap_pkt->buffer[6],
 648:C:/Users/dtjld/Desktop/AIoT_software/LiteOS_Lab_overseas/LiteOS_Lab/iot_link/network/lwm2m/wakaama_lwm2m/core/er-coap-13\er-coap-13.c ****            coap_pkt->buffer[7]
 649:C:/Users/dtjld/Desktop/AIoT_software/LiteOS_Lab_overseas/LiteOS_Lab/iot_link/network/lwm2m/wakaama_lwm2m/core/er-coap-13\er-coap-13.c ****           );
 650:C:/Users/dtjld/Desktop/AIoT_software/LiteOS_Lab_overseas/LiteOS_Lab/iot_link/network/lwm2m/wakaama_lwm2m/core/er-coap-13\er-coap-13.c **** 
 651:C:/Users/dtjld/Desktop/AIoT_software/LiteOS_Lab_overseas/LiteOS_Lab/iot_link/network/lwm2m/wakaama_lwm2m/core/er-coap-13\er-coap-13.c ****     return (option - buffer) + coap_pkt->payload_len; /* packet length */
 2532              		.loc 1 651 0
 2533 0472 FA69     		ldr	r2, [r7, #28]
 2534 0474 3B68     		ldr	r3, [r7]
 2535 0476 D31A     		subs	r3, r2, r3
 2536 0478 BA68     		ldr	r2, [r7, #8]
 2537 047a B2F88620 		ldrh	r2, [r2, #134]
 2538 047e 1344     		add	r3, r3, r2
 652:C:/Users/dtjld/Desktop/AIoT_software/LiteOS_Lab_overseas/LiteOS_Lab/iot_link/network/lwm2m/wakaama_lwm2m/core/er-coap-13\er-coap-13.c **** }
 2539              		.loc 1 652 0
 2540 0480 1846     		mov	r0, r3
 2541 0482 2037     		adds	r7, r7, #32
 2542              	.LCFI86:
 2543              		.cfi_def_cfa_offset 8
 2544 0484 BD46     		mov	sp, r7
 2545              	.LCFI87:
 2546              		.cfi_def_cfa_register 13
 2547              		@ sp needed
 2548 0486 80BD     		pop	{r7, pc}
 2549              		.cfi_endproc
 2550              	.LFE20:
 2552              		.section	.rodata
 2553 0001 000000   		.align	2
 2554              	.LC1:
 2555 0004 436F4150 		.ascii	"CoAP version must be 1\000"
 2555      20766572 
 2555      73696F6E 
ARM GAS  C:\Users\dtjld\AppData\Local\Temp\ccpI0fza.s 			page 57


 2555      206D7573 
 2555      74206265 
 2556 001b 00       		.align	2
 2557              	.LC2:
 2558 001c 54686973 		.ascii	"This is a constrained server (Contiki)\000"
 2558      20697320 
 2558      6120636F 
 2558      6E737472 
 2558      61696E65 
 2559 0043 00       		.align	2
 2560              	.LC3:
 2561 0044 556E7375 		.ascii	"Unsupported critical option\000"
 2561      70706F72 
 2561      74656420 
 2561      63726974 
 2561      6963616C 
 2562              		.section	.text.coap_parse_message,"ax",%progbits
 2563              		.align	1
 2564              		.global	coap_parse_message
 2565              		.syntax unified
 2566              		.thumb
 2567              		.thumb_func
 2568              		.fpu fpv4-sp-d16
 2570              	coap_parse_message:
 2571              	.LFB21:
 653:C:/Users/dtjld/Desktop/AIoT_software/LiteOS_Lab_overseas/LiteOS_Lab/iot_link/network/lwm2m/wakaama_lwm2m/core/er-coap-13\er-coap-13.c **** /*-----------------------------------------------------------------------------------*/
 654:C:/Users/dtjld/Desktop/AIoT_software/LiteOS_Lab_overseas/LiteOS_Lab/iot_link/network/lwm2m/wakaama_lwm2m/core/er-coap-13\er-coap-13.c **** coap_status_t
 655:C:/Users/dtjld/Desktop/AIoT_software/LiteOS_Lab_overseas/LiteOS_Lab/iot_link/network/lwm2m/wakaama_lwm2m/core/er-coap-13\er-coap-13.c **** coap_parse_message(void *packet, uint8_t *data, uint16_t data_len)
 656:C:/Users/dtjld/Desktop/AIoT_software/LiteOS_Lab_overseas/LiteOS_Lab/iot_link/network/lwm2m/wakaama_lwm2m/core/er-coap-13\er-coap-13.c **** {
 2572              		.loc 1 656 0
 2573              		.cfi_startproc
 2574              		@ args = 0, pretend = 0, frame = 40
 2575              		@ frame_needed = 1, uses_anonymous_args = 0
 2576 0000 80B5     		push	{r7, lr}
 2577              	.LCFI88:
 2578              		.cfi_def_cfa_offset 8
 2579              		.cfi_offset 7, -8
 2580              		.cfi_offset 14, -4
 2581 0002 8CB0     		sub	sp, sp, #48
 2582              	.LCFI89:
 2583              		.cfi_def_cfa_offset 56
 2584 0004 02AF     		add	r7, sp, #8
 2585              	.LCFI90:
 2586              		.cfi_def_cfa 7, 48
 2587 0006 F860     		str	r0, [r7, #12]
 2588 0008 B960     		str	r1, [r7, #8]
 2589 000a 1346     		mov	r3, r2
 2590 000c FB80     		strh	r3, [r7, #6]	@ movhi
 657:C:/Users/dtjld/Desktop/AIoT_software/LiteOS_Lab_overseas/LiteOS_Lab/iot_link/network/lwm2m/wakaama_lwm2m/core/er-coap-13\er-coap-13.c ****     coap_packet_t *const coap_pkt = (coap_packet_t *) packet;
 2591              		.loc 1 657 0
 2592 000e FB68     		ldr	r3, [r7, #12]
 2593 0010 BB61     		str	r3, [r7, #24]
 658:C:/Users/dtjld/Desktop/AIoT_software/LiteOS_Lab_overseas/LiteOS_Lab/iot_link/network/lwm2m/wakaama_lwm2m/core/er-coap-13\er-coap-13.c ****     uint8_t *current_option;
 659:C:/Users/dtjld/Desktop/AIoT_software/LiteOS_Lab_overseas/LiteOS_Lab/iot_link/network/lwm2m/wakaama_lwm2m/core/er-coap-13\er-coap-13.c ****     unsigned int option_number = 0;
 2594              		.loc 1 659 0
 2595 0012 0023     		movs	r3, #0
 2596 0014 3B62     		str	r3, [r7, #32]
ARM GAS  C:\Users\dtjld\AppData\Local\Temp\ccpI0fza.s 			page 58


 660:C:/Users/dtjld/Desktop/AIoT_software/LiteOS_Lab_overseas/LiteOS_Lab/iot_link/network/lwm2m/wakaama_lwm2m/core/er-coap-13\er-coap-13.c ****     unsigned int option_delta = 0;
 2597              		.loc 1 660 0
 2598 0016 0023     		movs	r3, #0
 2599 0018 7B61     		str	r3, [r7, #20]
 661:C:/Users/dtjld/Desktop/AIoT_software/LiteOS_Lab_overseas/LiteOS_Lab/iot_link/network/lwm2m/wakaama_lwm2m/core/er-coap-13\er-coap-13.c ****     size_t option_length = 0;
 2600              		.loc 1 661 0
 2601 001a 0023     		movs	r3, #0
 2602 001c 3B61     		str	r3, [r7, #16]
 662:C:/Users/dtjld/Desktop/AIoT_software/LiteOS_Lab_overseas/LiteOS_Lab/iot_link/network/lwm2m/wakaama_lwm2m/core/er-coap-13\er-coap-13.c ****     unsigned int *x;
 663:C:/Users/dtjld/Desktop/AIoT_software/LiteOS_Lab_overseas/LiteOS_Lab/iot_link/network/lwm2m/wakaama_lwm2m/core/er-coap-13\er-coap-13.c **** 
 664:C:/Users/dtjld/Desktop/AIoT_software/LiteOS_Lab_overseas/LiteOS_Lab/iot_link/network/lwm2m/wakaama_lwm2m/core/er-coap-13\er-coap-13.c ****     /* Initialize packet */
 665:C:/Users/dtjld/Desktop/AIoT_software/LiteOS_Lab_overseas/LiteOS_Lab/iot_link/network/lwm2m/wakaama_lwm2m/core/er-coap-13\er-coap-13.c ****     memset(coap_pkt, 0, sizeof(coap_packet_t));
 2603              		.loc 1 665 0
 2604 001e 8C22     		movs	r2, #140
 2605 0020 0021     		movs	r1, #0
 2606 0022 B869     		ldr	r0, [r7, #24]
 2607 0024 FFF7FEFF 		bl	memset
 666:C:/Users/dtjld/Desktop/AIoT_software/LiteOS_Lab_overseas/LiteOS_Lab/iot_link/network/lwm2m/wakaama_lwm2m/core/er-coap-13\er-coap-13.c **** 
 667:C:/Users/dtjld/Desktop/AIoT_software/LiteOS_Lab_overseas/LiteOS_Lab/iot_link/network/lwm2m/wakaama_lwm2m/core/er-coap-13\er-coap-13.c ****     /* pointer to packet bytes */
 668:C:/Users/dtjld/Desktop/AIoT_software/LiteOS_Lab_overseas/LiteOS_Lab/iot_link/network/lwm2m/wakaama_lwm2m/core/er-coap-13\er-coap-13.c ****     coap_pkt->buffer = data;
 2608              		.loc 1 668 0
 2609 0028 BB69     		ldr	r3, [r7, #24]
 2610 002a BA68     		ldr	r2, [r7, #8]
 2611 002c 1A60     		str	r2, [r3]
 669:C:/Users/dtjld/Desktop/AIoT_software/LiteOS_Lab_overseas/LiteOS_Lab/iot_link/network/lwm2m/wakaama_lwm2m/core/er-coap-13\er-coap-13.c **** 
 670:C:/Users/dtjld/Desktop/AIoT_software/LiteOS_Lab_overseas/LiteOS_Lab/iot_link/network/lwm2m/wakaama_lwm2m/core/er-coap-13\er-coap-13.c ****     /* parse header fields */
 671:C:/Users/dtjld/Desktop/AIoT_software/LiteOS_Lab_overseas/LiteOS_Lab/iot_link/network/lwm2m/wakaama_lwm2m/core/er-coap-13\er-coap-13.c ****     coap_pkt->version = (COAP_HEADER_VERSION_MASK & coap_pkt->buffer[0]) >> COAP_HEADER_VERSION_POS
 2612              		.loc 1 671 0
 2613 002e BB69     		ldr	r3, [r7, #24]
 2614 0030 1B68     		ldr	r3, [r3]
 2615 0032 1B78     		ldrb	r3, [r3]	@ zero_extendqisi2
 2616 0034 9B09     		lsrs	r3, r3, #6
 2617 0036 DAB2     		uxtb	r2, r3
 2618 0038 BB69     		ldr	r3, [r7, #24]
 2619 003a 1A71     		strb	r2, [r3, #4]
 672:C:/Users/dtjld/Desktop/AIoT_software/LiteOS_Lab_overseas/LiteOS_Lab/iot_link/network/lwm2m/wakaama_lwm2m/core/er-coap-13\er-coap-13.c ****     coap_pkt->type = (coap_message_type_t)((COAP_HEADER_TYPE_MASK & coap_pkt->buffer[0]) >> COAP_HE
 2620              		.loc 1 672 0
 2621 003c BB69     		ldr	r3, [r7, #24]
 2622 003e 1B68     		ldr	r3, [r3]
 2623 0040 1B78     		ldrb	r3, [r3]	@ zero_extendqisi2
 2624 0042 1B09     		lsrs	r3, r3, #4
 2625 0044 DBB2     		uxtb	r3, r3
 2626 0046 03F00303 		and	r3, r3, #3
 2627 004a DAB2     		uxtb	r2, r3
 2628 004c BB69     		ldr	r3, [r7, #24]
 2629 004e 5A71     		strb	r2, [r3, #5]
 673:C:/Users/dtjld/Desktop/AIoT_software/LiteOS_Lab_overseas/LiteOS_Lab/iot_link/network/lwm2m/wakaama_lwm2m/core/er-coap-13\er-coap-13.c ****     coap_pkt->token_len = MIN(COAP_TOKEN_LEN, (COAP_HEADER_TOKEN_LEN_MASK & coap_pkt->buffer[0]) >>
 2630              		.loc 1 673 0
 2631 0050 BB69     		ldr	r3, [r7, #24]
 2632 0052 1B68     		ldr	r3, [r3]
 2633 0054 1B78     		ldrb	r3, [r3]	@ zero_extendqisi2
 2634 0056 03F00F03 		and	r3, r3, #15
 2635 005a 082B     		cmp	r3, #8
 2636 005c A8BF     		it	ge
 2637 005e 0823     		movge	r3, #8
 2638 0060 DAB2     		uxtb	r2, r3
 2639 0062 BB69     		ldr	r3, [r7, #24]
ARM GAS  C:\Users\dtjld\AppData\Local\Temp\ccpI0fza.s 			page 59


 2640 0064 83F84C20 		strb	r2, [r3, #76]
 674:C:/Users/dtjld/Desktop/AIoT_software/LiteOS_Lab_overseas/LiteOS_Lab/iot_link/network/lwm2m/wakaama_lwm2m/core/er-coap-13\er-coap-13.c ****     coap_pkt->code = coap_pkt->buffer[1];
 2641              		.loc 1 674 0
 2642 0068 BB69     		ldr	r3, [r7, #24]
 2643 006a 1B68     		ldr	r3, [r3]
 2644 006c 5A78     		ldrb	r2, [r3, #1]	@ zero_extendqisi2
 2645 006e BB69     		ldr	r3, [r7, #24]
 2646 0070 9A71     		strb	r2, [r3, #6]
 675:C:/Users/dtjld/Desktop/AIoT_software/LiteOS_Lab_overseas/LiteOS_Lab/iot_link/network/lwm2m/wakaama_lwm2m/core/er-coap-13\er-coap-13.c ****     coap_pkt->mid = coap_pkt->buffer[2] << 8 | coap_pkt->buffer[3];
 2647              		.loc 1 675 0
 2648 0072 BB69     		ldr	r3, [r7, #24]
 2649 0074 1B68     		ldr	r3, [r3]
 2650 0076 0233     		adds	r3, r3, #2
 2651 0078 1B78     		ldrb	r3, [r3]	@ zero_extendqisi2
 2652 007a 1B02     		lsls	r3, r3, #8
 2653 007c 1AB2     		sxth	r2, r3
 2654 007e BB69     		ldr	r3, [r7, #24]
 2655 0080 1B68     		ldr	r3, [r3]
 2656 0082 0333     		adds	r3, r3, #3
 2657 0084 1B78     		ldrb	r3, [r3]	@ zero_extendqisi2
 2658 0086 1BB2     		sxth	r3, r3
 2659 0088 1343     		orrs	r3, r3, r2
 2660 008a 1BB2     		sxth	r3, r3
 2661 008c 9AB2     		uxth	r2, r3
 2662 008e BB69     		ldr	r3, [r7, #24]
 2663 0090 1A81     		strh	r2, [r3, #8]	@ movhi
 676:C:/Users/dtjld/Desktop/AIoT_software/LiteOS_Lab_overseas/LiteOS_Lab/iot_link/network/lwm2m/wakaama_lwm2m/core/er-coap-13\er-coap-13.c **** 
 677:C:/Users/dtjld/Desktop/AIoT_software/LiteOS_Lab_overseas/LiteOS_Lab/iot_link/network/lwm2m/wakaama_lwm2m/core/er-coap-13\er-coap-13.c ****     if (coap_pkt->version != 1)
 2664              		.loc 1 677 0
 2665 0092 BB69     		ldr	r3, [r7, #24]
 2666 0094 1B79     		ldrb	r3, [r3, #4]	@ zero_extendqisi2
 2667 0096 012B     		cmp	r3, #1
 2668 0098 04D0     		beq	.L131
 678:C:/Users/dtjld/Desktop/AIoT_software/LiteOS_Lab_overseas/LiteOS_Lab/iot_link/network/lwm2m/wakaama_lwm2m/core/er-coap-13\er-coap-13.c ****     {
 679:C:/Users/dtjld/Desktop/AIoT_software/LiteOS_Lab_overseas/LiteOS_Lab/iot_link/network/lwm2m/wakaama_lwm2m/core/er-coap-13\er-coap-13.c ****         coap_error_message = "CoAP version must be 1";
 2669              		.loc 1 679 0
 2670 009a AE4B     		ldr	r3, .L171
 2671 009c AE4A     		ldr	r2, .L171+4
 2672 009e 1A60     		str	r2, [r3]
 680:C:/Users/dtjld/Desktop/AIoT_software/LiteOS_Lab_overseas/LiteOS_Lab/iot_link/network/lwm2m/wakaama_lwm2m/core/er-coap-13\er-coap-13.c ****         return BAD_REQUEST_4_00;
 2673              		.loc 1 680 0
 2674 00a0 8023     		movs	r3, #128
 2675 00a2 25E2     		b	.L169
 2676              	.L131:
 681:C:/Users/dtjld/Desktop/AIoT_software/LiteOS_Lab_overseas/LiteOS_Lab/iot_link/network/lwm2m/wakaama_lwm2m/core/er-coap-13\er-coap-13.c ****     }
 682:C:/Users/dtjld/Desktop/AIoT_software/LiteOS_Lab_overseas/LiteOS_Lab/iot_link/network/lwm2m/wakaama_lwm2m/core/er-coap-13\er-coap-13.c **** 
 683:C:/Users/dtjld/Desktop/AIoT_software/LiteOS_Lab_overseas/LiteOS_Lab/iot_link/network/lwm2m/wakaama_lwm2m/core/er-coap-13\er-coap-13.c ****     current_option = data + COAP_HEADER_LEN;
 2677              		.loc 1 683 0
 2678 00a4 BB68     		ldr	r3, [r7, #8]
 2679 00a6 0433     		adds	r3, r3, #4
 2680 00a8 7B62     		str	r3, [r7, #36]
 684:C:/Users/dtjld/Desktop/AIoT_software/LiteOS_Lab_overseas/LiteOS_Lab/iot_link/network/lwm2m/wakaama_lwm2m/core/er-coap-13\er-coap-13.c **** 
 685:C:/Users/dtjld/Desktop/AIoT_software/LiteOS_Lab_overseas/LiteOS_Lab/iot_link/network/lwm2m/wakaama_lwm2m/core/er-coap-13\er-coap-13.c ****     if (coap_pkt->token_len != 0)
 2681              		.loc 1 685 0
 2682 00aa BB69     		ldr	r3, [r7, #24]
 2683 00ac 93F84C30 		ldrb	r3, [r3, #76]	@ zero_extendqisi2
 2684 00b0 002B     		cmp	r3, #0
ARM GAS  C:\Users\dtjld\AppData\Local\Temp\ccpI0fza.s 			page 60


 2685 00b2 10D0     		beq	.L133
 686:C:/Users/dtjld/Desktop/AIoT_software/LiteOS_Lab_overseas/LiteOS_Lab/iot_link/network/lwm2m/wakaama_lwm2m/core/er-coap-13\er-coap-13.c ****     {
 687:C:/Users/dtjld/Desktop/AIoT_software/LiteOS_Lab_overseas/LiteOS_Lab/iot_link/network/lwm2m/wakaama_lwm2m/core/er-coap-13\er-coap-13.c ****         memcpy(coap_pkt->token, current_option, coap_pkt->token_len);
 2686              		.loc 1 687 0
 2687 00b4 BB69     		ldr	r3, [r7, #24]
 2688 00b6 03F14D00 		add	r0, r3, #77
 2689 00ba BB69     		ldr	r3, [r7, #24]
 2690 00bc 93F84C30 		ldrb	r3, [r3, #76]	@ zero_extendqisi2
 2691 00c0 1A46     		mov	r2, r3
 2692 00c2 796A     		ldr	r1, [r7, #36]
 2693 00c4 FFF7FEFF 		bl	memcpy
 688:C:/Users/dtjld/Desktop/AIoT_software/LiteOS_Lab_overseas/LiteOS_Lab/iot_link/network/lwm2m/wakaama_lwm2m/core/er-coap-13\er-coap-13.c ****         SET_OPTION(coap_pkt, COAP_OPTION_TOKEN);
 2694              		.loc 1 688 0
 2695 00c8 BB69     		ldr	r3, [r7, #24]
 2696 00ca 1B7B     		ldrb	r3, [r3, #12]	@ zero_extendqisi2
 2697 00cc 43F00803 		orr	r3, r3, #8
 2698 00d0 DAB2     		uxtb	r2, r3
 2699 00d2 BB69     		ldr	r3, [r7, #24]
 2700 00d4 1A73     		strb	r2, [r3, #12]
 2701              	.L133:
 689:C:/Users/dtjld/Desktop/AIoT_software/LiteOS_Lab_overseas/LiteOS_Lab/iot_link/network/lwm2m/wakaama_lwm2m/core/er-coap-13\er-coap-13.c **** 
 690:C:/Users/dtjld/Desktop/AIoT_software/LiteOS_Lab_overseas/LiteOS_Lab/iot_link/network/lwm2m/wakaama_lwm2m/core/er-coap-13\er-coap-13.c ****         PRINTF("Token (len %u) [0x%02X%02X%02X%02X%02X%02X%02X%02X]\n", coap_pkt->token_len,
 691:C:/Users/dtjld/Desktop/AIoT_software/LiteOS_Lab_overseas/LiteOS_Lab/iot_link/network/lwm2m/wakaama_lwm2m/core/er-coap-13\er-coap-13.c ****                coap_pkt->token[0],
 692:C:/Users/dtjld/Desktop/AIoT_software/LiteOS_Lab_overseas/LiteOS_Lab/iot_link/network/lwm2m/wakaama_lwm2m/core/er-coap-13\er-coap-13.c ****                coap_pkt->token[1],
 693:C:/Users/dtjld/Desktop/AIoT_software/LiteOS_Lab_overseas/LiteOS_Lab/iot_link/network/lwm2m/wakaama_lwm2m/core/er-coap-13\er-coap-13.c ****                coap_pkt->token[2],
 694:C:/Users/dtjld/Desktop/AIoT_software/LiteOS_Lab_overseas/LiteOS_Lab/iot_link/network/lwm2m/wakaama_lwm2m/core/er-coap-13\er-coap-13.c ****                coap_pkt->token[3],
 695:C:/Users/dtjld/Desktop/AIoT_software/LiteOS_Lab_overseas/LiteOS_Lab/iot_link/network/lwm2m/wakaama_lwm2m/core/er-coap-13\er-coap-13.c ****                coap_pkt->token[4],
 696:C:/Users/dtjld/Desktop/AIoT_software/LiteOS_Lab_overseas/LiteOS_Lab/iot_link/network/lwm2m/wakaama_lwm2m/core/er-coap-13\er-coap-13.c ****                coap_pkt->token[5],
 697:C:/Users/dtjld/Desktop/AIoT_software/LiteOS_Lab_overseas/LiteOS_Lab/iot_link/network/lwm2m/wakaama_lwm2m/core/er-coap-13\er-coap-13.c ****                coap_pkt->token[6],
 698:C:/Users/dtjld/Desktop/AIoT_software/LiteOS_Lab_overseas/LiteOS_Lab/iot_link/network/lwm2m/wakaama_lwm2m/core/er-coap-13\er-coap-13.c ****                coap_pkt->token[7]
 699:C:/Users/dtjld/Desktop/AIoT_software/LiteOS_Lab_overseas/LiteOS_Lab/iot_link/network/lwm2m/wakaama_lwm2m/core/er-coap-13\er-coap-13.c ****               ); /*FIXME always prints 8 bytes */
 700:C:/Users/dtjld/Desktop/AIoT_software/LiteOS_Lab_overseas/LiteOS_Lab/iot_link/network/lwm2m/wakaama_lwm2m/core/er-coap-13\er-coap-13.c ****     }
 701:C:/Users/dtjld/Desktop/AIoT_software/LiteOS_Lab_overseas/LiteOS_Lab/iot_link/network/lwm2m/wakaama_lwm2m/core/er-coap-13\er-coap-13.c **** 
 702:C:/Users/dtjld/Desktop/AIoT_software/LiteOS_Lab_overseas/LiteOS_Lab/iot_link/network/lwm2m/wakaama_lwm2m/core/er-coap-13\er-coap-13.c ****     /* parse options */
 703:C:/Users/dtjld/Desktop/AIoT_software/LiteOS_Lab_overseas/LiteOS_Lab/iot_link/network/lwm2m/wakaama_lwm2m/core/er-coap-13\er-coap-13.c ****     current_option += coap_pkt->token_len;
 2702              		.loc 1 703 0
 2703 00d6 BB69     		ldr	r3, [r7, #24]
 2704 00d8 93F84C30 		ldrb	r3, [r3, #76]	@ zero_extendqisi2
 2705 00dc 1A46     		mov	r2, r3
 2706 00de 7B6A     		ldr	r3, [r7, #36]
 2707 00e0 1344     		add	r3, r3, r2
 2708 00e2 7B62     		str	r3, [r7, #36]
 704:C:/Users/dtjld/Desktop/AIoT_software/LiteOS_Lab_overseas/LiteOS_Lab/iot_link/network/lwm2m/wakaama_lwm2m/core/er-coap-13\er-coap-13.c **** 
 705:C:/Users/dtjld/Desktop/AIoT_software/LiteOS_Lab_overseas/LiteOS_Lab/iot_link/network/lwm2m/wakaama_lwm2m/core/er-coap-13\er-coap-13.c ****     while (current_option < data + data_len)
 2709              		.loc 1 705 0
 2710 00e4 FCE1     		b	.L134
 2711              	.L168:
 706:C:/Users/dtjld/Desktop/AIoT_software/LiteOS_Lab_overseas/LiteOS_Lab/iot_link/network/lwm2m/wakaama_lwm2m/core/er-coap-13\er-coap-13.c ****     {
 707:C:/Users/dtjld/Desktop/AIoT_software/LiteOS_Lab_overseas/LiteOS_Lab/iot_link/network/lwm2m/wakaama_lwm2m/core/er-coap-13\er-coap-13.c ****         /* Payload marker 0xFF, currently only checking for 0xF* because rest is reserved */
 708:C:/Users/dtjld/Desktop/AIoT_software/LiteOS_Lab_overseas/LiteOS_Lab/iot_link/network/lwm2m/wakaama_lwm2m/core/er-coap-13\er-coap-13.c ****         if ((current_option[0] & 0xF0) == 0xF0)
 2712              		.loc 1 708 0
 2713 00e6 7B6A     		ldr	r3, [r7, #36]
 2714 00e8 1B78     		ldrb	r3, [r3]	@ zero_extendqisi2
 2715 00ea 03F0F003 		and	r3, r3, #240
 2716 00ee F02B     		cmp	r3, #240
 2717 00f0 14D1     		bne	.L135
 709:C:/Users/dtjld/Desktop/AIoT_software/LiteOS_Lab_overseas/LiteOS_Lab/iot_link/network/lwm2m/wakaama_lwm2m/core/er-coap-13\er-coap-13.c ****         {
ARM GAS  C:\Users\dtjld\AppData\Local\Temp\ccpI0fza.s 			page 61


 710:C:/Users/dtjld/Desktop/AIoT_software/LiteOS_Lab_overseas/LiteOS_Lab/iot_link/network/lwm2m/wakaama_lwm2m/core/er-coap-13\er-coap-13.c ****             coap_pkt->payload = ++current_option;
 2718              		.loc 1 710 0
 2719 00f2 7B6A     		ldr	r3, [r7, #36]
 2720 00f4 0133     		adds	r3, r3, #1
 2721 00f6 7B62     		str	r3, [r7, #36]
 2722 00f8 BB69     		ldr	r3, [r7, #24]
 2723 00fa 7A6A     		ldr	r2, [r7, #36]
 2724 00fc C3F88820 		str	r2, [r3, #136]
 711:C:/Users/dtjld/Desktop/AIoT_software/LiteOS_Lab_overseas/LiteOS_Lab/iot_link/network/lwm2m/wakaama_lwm2m/core/er-coap-13\er-coap-13.c ****             coap_pkt->payload_len = data_len - (coap_pkt->payload - data);
 2725              		.loc 1 711 0
 2726 0100 BB69     		ldr	r3, [r7, #24]
 2727 0102 D3F88830 		ldr	r3, [r3, #136]
 2728 0106 1A46     		mov	r2, r3
 2729 0108 BB68     		ldr	r3, [r7, #8]
 2730 010a D31A     		subs	r3, r2, r3
 2731 010c 9BB2     		uxth	r3, r3
 2732 010e FA88     		ldrh	r2, [r7, #6]	@ movhi
 2733 0110 D31A     		subs	r3, r2, r3
 2734 0112 9AB2     		uxth	r2, r3
 2735 0114 BB69     		ldr	r3, [r7, #24]
 2736 0116 A3F88620 		strh	r2, [r3, #134]	@ movhi
 712:C:/Users/dtjld/Desktop/AIoT_software/LiteOS_Lab_overseas/LiteOS_Lab/iot_link/network/lwm2m/wakaama_lwm2m/core/er-coap-13\er-coap-13.c **** 
 713:C:/Users/dtjld/Desktop/AIoT_software/LiteOS_Lab_overseas/LiteOS_Lab/iot_link/network/lwm2m/wakaama_lwm2m/core/er-coap-13\er-coap-13.c ****             break;
 2737              		.loc 1 713 0
 2738 011a E8E1     		b	.L136
 2739              	.L135:
 714:C:/Users/dtjld/Desktop/AIoT_software/LiteOS_Lab_overseas/LiteOS_Lab/iot_link/network/lwm2m/wakaama_lwm2m/core/er-coap-13\er-coap-13.c ****         }
 715:C:/Users/dtjld/Desktop/AIoT_software/LiteOS_Lab_overseas/LiteOS_Lab/iot_link/network/lwm2m/wakaama_lwm2m/core/er-coap-13\er-coap-13.c **** 
 716:C:/Users/dtjld/Desktop/AIoT_software/LiteOS_Lab_overseas/LiteOS_Lab/iot_link/network/lwm2m/wakaama_lwm2m/core/er-coap-13\er-coap-13.c ****         option_delta = current_option[0] >> 4;
 2740              		.loc 1 716 0
 2741 011c 7B6A     		ldr	r3, [r7, #36]
 2742 011e 1B78     		ldrb	r3, [r3]	@ zero_extendqisi2
 2743 0120 1B09     		lsrs	r3, r3, #4
 2744 0122 DBB2     		uxtb	r3, r3
 2745 0124 7B61     		str	r3, [r7, #20]
 717:C:/Users/dtjld/Desktop/AIoT_software/LiteOS_Lab_overseas/LiteOS_Lab/iot_link/network/lwm2m/wakaama_lwm2m/core/er-coap-13\er-coap-13.c ****         option_length = current_option[0] & 0x0F;
 2746              		.loc 1 717 0
 2747 0126 7B6A     		ldr	r3, [r7, #36]
 2748 0128 1B78     		ldrb	r3, [r3]	@ zero_extendqisi2
 2749 012a 03F00F03 		and	r3, r3, #15
 2750 012e 3B61     		str	r3, [r7, #16]
 718:C:/Users/dtjld/Desktop/AIoT_software/LiteOS_Lab_overseas/LiteOS_Lab/iot_link/network/lwm2m/wakaama_lwm2m/core/er-coap-13\er-coap-13.c ****         ++current_option;
 2751              		.loc 1 718 0
 2752 0130 7B6A     		ldr	r3, [r7, #36]
 2753 0132 0133     		adds	r3, r3, #1
 2754 0134 7B62     		str	r3, [r7, #36]
 719:C:/Users/dtjld/Desktop/AIoT_software/LiteOS_Lab_overseas/LiteOS_Lab/iot_link/network/lwm2m/wakaama_lwm2m/core/er-coap-13\er-coap-13.c **** 
 720:C:/Users/dtjld/Desktop/AIoT_software/LiteOS_Lab_overseas/LiteOS_Lab/iot_link/network/lwm2m/wakaama_lwm2m/core/er-coap-13\er-coap-13.c ****         /* avoids code duplication without function overhead */
 721:C:/Users/dtjld/Desktop/AIoT_software/LiteOS_Lab_overseas/LiteOS_Lab/iot_link/network/lwm2m/wakaama_lwm2m/core/er-coap-13\er-coap-13.c ****         x = &option_delta;
 2755              		.loc 1 721 0
 2756 0136 07F11403 		add	r3, r7, #20
 2757 013a FB61     		str	r3, [r7, #28]
 2758              	.L140:
 722:C:/Users/dtjld/Desktop/AIoT_software/LiteOS_Lab_overseas/LiteOS_Lab/iot_link/network/lwm2m/wakaama_lwm2m/core/er-coap-13\er-coap-13.c ****         do
 723:C:/Users/dtjld/Desktop/AIoT_software/LiteOS_Lab_overseas/LiteOS_Lab/iot_link/network/lwm2m/wakaama_lwm2m/core/er-coap-13\er-coap-13.c ****         {
 724:C:/Users/dtjld/Desktop/AIoT_software/LiteOS_Lab_overseas/LiteOS_Lab/iot_link/network/lwm2m/wakaama_lwm2m/core/er-coap-13\er-coap-13.c ****             if (*x == 13)
 2759              		.loc 1 724 0
ARM GAS  C:\Users\dtjld\AppData\Local\Temp\ccpI0fza.s 			page 62


 2760 013c FB69     		ldr	r3, [r7, #28]
 2761 013e 1B68     		ldr	r3, [r3]
 2762 0140 0D2B     		cmp	r3, #13
 2763 0142 0AD1     		bne	.L137
 725:C:/Users/dtjld/Desktop/AIoT_software/LiteOS_Lab_overseas/LiteOS_Lab/iot_link/network/lwm2m/wakaama_lwm2m/core/er-coap-13\er-coap-13.c ****             {
 726:C:/Users/dtjld/Desktop/AIoT_software/LiteOS_Lab_overseas/LiteOS_Lab/iot_link/network/lwm2m/wakaama_lwm2m/core/er-coap-13\er-coap-13.c ****                 *x += current_option[0];
 2764              		.loc 1 726 0
 2765 0144 FB69     		ldr	r3, [r7, #28]
 2766 0146 1B68     		ldr	r3, [r3]
 2767 0148 7A6A     		ldr	r2, [r7, #36]
 2768 014a 1278     		ldrb	r2, [r2]	@ zero_extendqisi2
 2769 014c 1A44     		add	r2, r2, r3
 2770 014e FB69     		ldr	r3, [r7, #28]
 2771 0150 1A60     		str	r2, [r3]
 727:C:/Users/dtjld/Desktop/AIoT_software/LiteOS_Lab_overseas/LiteOS_Lab/iot_link/network/lwm2m/wakaama_lwm2m/core/er-coap-13\er-coap-13.c ****                 ++current_option;
 2772              		.loc 1 727 0
 2773 0152 7B6A     		ldr	r3, [r7, #36]
 2774 0154 0133     		adds	r3, r3, #1
 2775 0156 7B62     		str	r3, [r7, #36]
 2776 0158 1EE0     		b	.L138
 2777              	.L137:
 728:C:/Users/dtjld/Desktop/AIoT_software/LiteOS_Lab_overseas/LiteOS_Lab/iot_link/network/lwm2m/wakaama_lwm2m/core/er-coap-13\er-coap-13.c ****             }
 729:C:/Users/dtjld/Desktop/AIoT_software/LiteOS_Lab_overseas/LiteOS_Lab/iot_link/network/lwm2m/wakaama_lwm2m/core/er-coap-13\er-coap-13.c ****             else if (*x == 14)
 2778              		.loc 1 729 0
 2779 015a FB69     		ldr	r3, [r7, #28]
 2780 015c 1B68     		ldr	r3, [r3]
 2781 015e 0E2B     		cmp	r3, #14
 2782 0160 1AD1     		bne	.L138
 730:C:/Users/dtjld/Desktop/AIoT_software/LiteOS_Lab_overseas/LiteOS_Lab/iot_link/network/lwm2m/wakaama_lwm2m/core/er-coap-13\er-coap-13.c ****             {
 731:C:/Users/dtjld/Desktop/AIoT_software/LiteOS_Lab_overseas/LiteOS_Lab/iot_link/network/lwm2m/wakaama_lwm2m/core/er-coap-13\er-coap-13.c ****                 *x += 255;
 2783              		.loc 1 731 0
 2784 0162 FB69     		ldr	r3, [r7, #28]
 2785 0164 1B68     		ldr	r3, [r3]
 2786 0166 03F1FF02 		add	r2, r3, #255
 2787 016a FB69     		ldr	r3, [r7, #28]
 2788 016c 1A60     		str	r2, [r3]
 732:C:/Users/dtjld/Desktop/AIoT_software/LiteOS_Lab_overseas/LiteOS_Lab/iot_link/network/lwm2m/wakaama_lwm2m/core/er-coap-13\er-coap-13.c ****                 *x += current_option[0] << 8;
 2789              		.loc 1 732 0
 2790 016e FB69     		ldr	r3, [r7, #28]
 2791 0170 1B68     		ldr	r3, [r3]
 2792 0172 7A6A     		ldr	r2, [r7, #36]
 2793 0174 1278     		ldrb	r2, [r2]	@ zero_extendqisi2
 2794 0176 1202     		lsls	r2, r2, #8
 2795 0178 1A44     		add	r2, r2, r3
 2796 017a FB69     		ldr	r3, [r7, #28]
 2797 017c 1A60     		str	r2, [r3]
 733:C:/Users/dtjld/Desktop/AIoT_software/LiteOS_Lab_overseas/LiteOS_Lab/iot_link/network/lwm2m/wakaama_lwm2m/core/er-coap-13\er-coap-13.c ****                 ++current_option;
 2798              		.loc 1 733 0
 2799 017e 7B6A     		ldr	r3, [r7, #36]
 2800 0180 0133     		adds	r3, r3, #1
 2801 0182 7B62     		str	r3, [r7, #36]
 734:C:/Users/dtjld/Desktop/AIoT_software/LiteOS_Lab_overseas/LiteOS_Lab/iot_link/network/lwm2m/wakaama_lwm2m/core/er-coap-13\er-coap-13.c ****                 *x += current_option[0];
 2802              		.loc 1 734 0
 2803 0184 FB69     		ldr	r3, [r7, #28]
 2804 0186 1B68     		ldr	r3, [r3]
 2805 0188 7A6A     		ldr	r2, [r7, #36]
 2806 018a 1278     		ldrb	r2, [r2]	@ zero_extendqisi2
ARM GAS  C:\Users\dtjld\AppData\Local\Temp\ccpI0fza.s 			page 63


 2807 018c 1A44     		add	r2, r2, r3
 2808 018e FB69     		ldr	r3, [r7, #28]
 2809 0190 1A60     		str	r2, [r3]
 735:C:/Users/dtjld/Desktop/AIoT_software/LiteOS_Lab_overseas/LiteOS_Lab/iot_link/network/lwm2m/wakaama_lwm2m/core/er-coap-13\er-coap-13.c ****                 ++current_option;
 2810              		.loc 1 735 0
 2811 0192 7B6A     		ldr	r3, [r7, #36]
 2812 0194 0133     		adds	r3, r3, #1
 2813 0196 7B62     		str	r3, [r7, #36]
 2814              	.L138:
 736:C:/Users/dtjld/Desktop/AIoT_software/LiteOS_Lab_overseas/LiteOS_Lab/iot_link/network/lwm2m/wakaama_lwm2m/core/er-coap-13\er-coap-13.c ****             }
 737:C:/Users/dtjld/Desktop/AIoT_software/LiteOS_Lab_overseas/LiteOS_Lab/iot_link/network/lwm2m/wakaama_lwm2m/core/er-coap-13\er-coap-13.c ****         }
 738:C:/Users/dtjld/Desktop/AIoT_software/LiteOS_Lab_overseas/LiteOS_Lab/iot_link/network/lwm2m/wakaama_lwm2m/core/er-coap-13\er-coap-13.c ****         while (x != (unsigned int *)&option_length && NULL != (x = (unsigned int *)&option_length))
 2815              		.loc 1 738 0
 2816 0198 07F11003 		add	r3, r7, #16
 2817 019c FA69     		ldr	r2, [r7, #28]
 2818 019e 9A42     		cmp	r2, r3
 2819 01a0 03D0     		beq	.L139
 2820              		.loc 1 738 0 is_stmt 0 discriminator 1
 2821 01a2 07F11003 		add	r3, r7, #16
 2822 01a6 FB61     		str	r3, [r7, #28]
 2823 01a8 C8E7     		b	.L140
 2824              	.L139:
 739:C:/Users/dtjld/Desktop/AIoT_software/LiteOS_Lab_overseas/LiteOS_Lab/iot_link/network/lwm2m/wakaama_lwm2m/core/er-coap-13\er-coap-13.c **** 
 740:C:/Users/dtjld/Desktop/AIoT_software/LiteOS_Lab_overseas/LiteOS_Lab/iot_link/network/lwm2m/wakaama_lwm2m/core/er-coap-13\er-coap-13.c ****         option_number += option_delta;
 2825              		.loc 1 740 0 is_stmt 1
 2826 01aa 7B69     		ldr	r3, [r7, #20]
 2827 01ac 3A6A     		ldr	r2, [r7, #32]
 2828 01ae 1344     		add	r3, r3, r2
 2829 01b0 3B62     		str	r3, [r7, #32]
 741:C:/Users/dtjld/Desktop/AIoT_software/LiteOS_Lab_overseas/LiteOS_Lab/iot_link/network/lwm2m/wakaama_lwm2m/core/er-coap-13\er-coap-13.c **** 
 742:C:/Users/dtjld/Desktop/AIoT_software/LiteOS_Lab_overseas/LiteOS_Lab/iot_link/network/lwm2m/wakaama_lwm2m/core/er-coap-13\er-coap-13.c ****         if (current_option + option_length > data + data_len)
 2830              		.loc 1 742 0
 2831 01b2 3B69     		ldr	r3, [r7, #16]
 2832 01b4 7A6A     		ldr	r2, [r7, #36]
 2833 01b6 1A44     		add	r2, r2, r3
 2834 01b8 FB88     		ldrh	r3, [r7, #6]
 2835 01ba B968     		ldr	r1, [r7, #8]
 2836 01bc 0B44     		add	r3, r3, r1
 2837 01be 9A42     		cmp	r2, r3
 2838 01c0 01D9     		bls	.L141
 743:C:/Users/dtjld/Desktop/AIoT_software/LiteOS_Lab_overseas/LiteOS_Lab/iot_link/network/lwm2m/wakaama_lwm2m/core/er-coap-13\er-coap-13.c ****         {
 744:C:/Users/dtjld/Desktop/AIoT_software/LiteOS_Lab_overseas/LiteOS_Lab/iot_link/network/lwm2m/wakaama_lwm2m/core/er-coap-13\er-coap-13.c ****             PRINTF("OPTION %u (delta %u, len %u) has invalid length.\n", option_number, option_delt
 745:C:/Users/dtjld/Desktop/AIoT_software/LiteOS_Lab_overseas/LiteOS_Lab/iot_link/network/lwm2m/wakaama_lwm2m/core/er-coap-13\er-coap-13.c ****             return BAD_REQUEST_4_00;
 2839              		.loc 1 745 0
 2840 01c2 8023     		movs	r3, #128
 2841 01c4 94E1     		b	.L169
 2842              	.L141:
 746:C:/Users/dtjld/Desktop/AIoT_software/LiteOS_Lab_overseas/LiteOS_Lab/iot_link/network/lwm2m/wakaama_lwm2m/core/er-coap-13\er-coap-13.c ****         }
 747:C:/Users/dtjld/Desktop/AIoT_software/LiteOS_Lab_overseas/LiteOS_Lab/iot_link/network/lwm2m/wakaama_lwm2m/core/er-coap-13\er-coap-13.c ****         else
 748:C:/Users/dtjld/Desktop/AIoT_software/LiteOS_Lab_overseas/LiteOS_Lab/iot_link/network/lwm2m/wakaama_lwm2m/core/er-coap-13\er-coap-13.c ****         {
 749:C:/Users/dtjld/Desktop/AIoT_software/LiteOS_Lab_overseas/LiteOS_Lab/iot_link/network/lwm2m/wakaama_lwm2m/core/er-coap-13\er-coap-13.c ****             PRINTF("OPTION %u (delta %u, len %u): ", option_number, option_delta, option_length);
 750:C:/Users/dtjld/Desktop/AIoT_software/LiteOS_Lab_overseas/LiteOS_Lab/iot_link/network/lwm2m/wakaama_lwm2m/core/er-coap-13\er-coap-13.c ****         }
 751:C:/Users/dtjld/Desktop/AIoT_software/LiteOS_Lab_overseas/LiteOS_Lab/iot_link/network/lwm2m/wakaama_lwm2m/core/er-coap-13\er-coap-13.c **** 
 752:C:/Users/dtjld/Desktop/AIoT_software/LiteOS_Lab_overseas/LiteOS_Lab/iot_link/network/lwm2m/wakaama_lwm2m/core/er-coap-13\er-coap-13.c ****         SET_OPTION(coap_pkt, option_number);
 2843              		.loc 1 752 0
 2844 01c6 3B6A     		ldr	r3, [r7, #32]
 2845 01c8 282B     		cmp	r3, #40
ARM GAS  C:\Users\dtjld\AppData\Local\Temp\ccpI0fza.s 			page 64


 2846 01ca 13D8     		bhi	.L142
 2847              		.loc 1 752 0 is_stmt 0 discriminator 1
 2848 01cc 3B6A     		ldr	r3, [r7, #32]
 2849 01ce DB08     		lsrs	r3, r3, #3
 2850 01d0 BA69     		ldr	r2, [r7, #24]
 2851 01d2 1A44     		add	r2, r2, r3
 2852 01d4 927A     		ldrb	r2, [r2, #10]	@ zero_extendqisi2
 2853 01d6 51B2     		sxtb	r1, r2
 2854 01d8 3A6A     		ldr	r2, [r7, #32]
 2855 01da 02F00702 		and	r2, r2, #7
 2856 01de 0120     		movs	r0, #1
 2857 01e0 00FA02F2 		lsl	r2, r0, r2
 2858 01e4 52B2     		sxtb	r2, r2
 2859 01e6 0A43     		orrs	r2, r2, r1
 2860 01e8 52B2     		sxtb	r2, r2
 2861 01ea D1B2     		uxtb	r1, r2
 2862 01ec BA69     		ldr	r2, [r7, #24]
 2863 01ee 1344     		add	r3, r3, r2
 2864 01f0 0A46     		mov	r2, r1
 2865 01f2 9A72     		strb	r2, [r3, #10]
 2866              	.L142:
 753:C:/Users/dtjld/Desktop/AIoT_software/LiteOS_Lab_overseas/LiteOS_Lab/iot_link/network/lwm2m/wakaama_lwm2m/core/er-coap-13\er-coap-13.c **** 
 754:C:/Users/dtjld/Desktop/AIoT_software/LiteOS_Lab_overseas/LiteOS_Lab/iot_link/network/lwm2m/wakaama_lwm2m/core/er-coap-13\er-coap-13.c ****         switch (option_number)
 2867              		.loc 1 754 0 is_stmt 1
 2868 01f4 3B6A     		ldr	r3, [r7, #32]
 2869 01f6 013B     		subs	r3, r3, #1
 2870 01f8 222B     		cmp	r3, #34
 2871 01fa 00F26281 		bhi	.L143
 2872 01fe 01A2     		adr	r2, .L145
 2873 0200 52F823F0 		ldr	pc, [r2, r3, lsl #2]
 2874              		.p2align 2
 2875              	.L145:
 2876 0204 1F030000 		.word	.L144+1
 2877 0208 C3040000 		.word	.L143+1
 2878 020c 5D030000 		.word	.L146+1
 2879 0210 B7020000 		.word	.L147+1
 2880 0214 49030000 		.word	.L148+1
 2881 0218 E7030000 		.word	.L149+1
 2882 021c 6B030000 		.word	.L150+1
 2883 0220 A3030000 		.word	.L151+1
 2884 0224 C3040000 		.word	.L143+1
 2885 0228 C3040000 		.word	.L143+1
 2886 022c 7F030000 		.word	.L152+1
 2887 0230 91020000 		.word	.L153+1
 2888 0234 C3040000 		.word	.L143+1
 2889 0238 A5020000 		.word	.L154+1
 2890 023c 91030000 		.word	.L155+1
 2891 0240 C3040000 		.word	.L143+1
 2892 0244 E1020000 		.word	.L156+1
 2893 0248 C3040000 		.word	.L143+1
 2894 024c C3040000 		.word	.L143+1
 2895 0250 B5030000 		.word	.L157+1
 2896 0254 C3040000 		.word	.L143+1
 2897 0258 C3040000 		.word	.L143+1
 2898 025c F9030000 		.word	.L158+1
 2899 0260 C3040000 		.word	.L143+1
 2900 0264 C3040000 		.word	.L143+1
ARM GAS  C:\Users\dtjld\AppData\Local\Temp\ccpI0fza.s 			page 65


 2901 0268 C3040000 		.word	.L143+1
 2902 026c 55040000 		.word	.L159+1
 2903 0270 B1040000 		.word	.L160+1
 2904 0274 C3040000 		.word	.L143+1
 2905 0278 C3040000 		.word	.L143+1
 2906 027c C3040000 		.word	.L143+1
 2907 0280 C3040000 		.word	.L143+1
 2908 0284 C3040000 		.word	.L143+1
 2909 0288 C3040000 		.word	.L143+1
 2910 028c D1030000 		.word	.L161+1
 2911              		.p2align 1
 2912              	.L153:
 755:C:/Users/dtjld/Desktop/AIoT_software/LiteOS_Lab_overseas/LiteOS_Lab/iot_link/network/lwm2m/wakaama_lwm2m/core/er-coap-13\er-coap-13.c ****         {
