ARM GAS  C:\Users\dtjld\AppData\Local\Temp\ccjG0xZ1.s 			page 1


   1              		.cpu cortex-m4
   2              		.eabi_attribute 27, 1
   3              		.eabi_attribute 28, 1
   4              		.eabi_attribute 20, 1
   5              		.eabi_attribute 21, 1
   6              		.eabi_attribute 23, 3
   7              		.eabi_attribute 24, 1
   8              		.eabi_attribute 25, 1
   9              		.eabi_attribute 26, 1
  10              		.eabi_attribute 30, 6
  11              		.eabi_attribute 34, 1
  12              		.eabi_attribute 18, 4
  13              		.file	"error.c"
  14              		.text
  15              	.Ltext0:
  16              		.cfi_sections	.debug_frame
  17              		.section	.rodata
  18              		.align	2
  19              	.LC0:
  20 0000 43495048 		.ascii	"CIPHER - The selected feature is not available\000"
  20      4552202D 
  20      20546865 
  20      2073656C 
  20      65637465 
  21 002f 00       		.align	2
  22              	.LC1:
  23 0030 43495048 		.ascii	"CIPHER - Bad input parameters\000"
  23      4552202D 
  23      20426164 
  23      20696E70 
  23      75742070 
  24 004e 0000     		.align	2
  25              	.LC2:
  26 0050 43495048 		.ascii	"CIPHER - Failed to allocate memory\000"
  26      4552202D 
  26      20466169 
  26      6C656420 
  26      746F2061 
  27 0073 00       		.align	2
  28              	.LC3:
  29 0074 43495048 		.ascii	"CIPHER - Input data contains invalid padding and is"
  29      4552202D 
  29      20496E70 
  29      75742064 
  29      61746120 
  30 00a7 2072656A 		.ascii	" rejected\000"
  30      65637465 
  30      6400
  31 00b1 000000   		.align	2
  32              	.LC4:
  33 00b4 43495048 		.ascii	"CIPHER - Decryption of block requires a full block\000"
  33      4552202D 
  33      20446563 
  33      72797074 
  33      696F6E20 
  34 00e7 00       		.align	2
  35              	.LC5:
ARM GAS  C:\Users\dtjld\AppData\Local\Temp\ccjG0xZ1.s 			page 2


  36 00e8 43495048 		.ascii	"CIPHER - Authentication failed (for AEAD modes)\000"
  36      4552202D 
  36      20417574 
  36      68656E74 
  36      69636174 
  37              		.align	2
  38              	.LC6:
  39 0118 43495048 		.ascii	"CIPHER - The context is invalid. For example, becau"
  39      4552202D 
  39      20546865 
  39      20636F6E 
  39      74657874 
  40 014b 73652069 		.ascii	"se it was freed\000"
  40      74207761 
  40      73206672 
  40      65656400 
  41 015b 00       		.align	2
  42              	.LC7:
  43 015c 43495048 		.ascii	"CIPHER - Cipher hardware accelerator failed\000"
  43      4552202D 
  43      20436970 
  43      68657220 
  43      68617264 
  44              		.align	2
  45              	.LC8:
  46 0188 44484D20 		.ascii	"DHM - Bad input parameters\000"
  46      2D204261 
  46      6420696E 
  46      70757420 
  46      70617261 
  47 01a3 00       		.align	2
  48              	.LC9:
  49 01a4 44484D20 		.ascii	"DHM - Reading of the DHM parameters failed\000"
  49      2D205265 
  49      6164696E 
  49      67206F66 
  49      20746865 
  50 01cf 00       		.align	2
  51              	.LC10:
  52 01d0 44484D20 		.ascii	"DHM - Making of the DHM parameters failed\000"
  52      2D204D61 
  52      6B696E67 
  52      206F6620 
  52      74686520 
  53 01fa 0000     		.align	2
  54              	.LC11:
  55 01fc 44484D20 		.ascii	"DHM - Reading of the public values failed\000"
  55      2D205265 
  55      6164696E 
  55      67206F66 
  55      20746865 
  56 0226 0000     		.align	2
  57              	.LC12:
  58 0228 44484D20 		.ascii	"DHM - Making of the public value failed\000"
  58      2D204D61 
  58      6B696E67 
  58      206F6620 
ARM GAS  C:\Users\dtjld\AppData\Local\Temp\ccjG0xZ1.s 			page 3


  58      74686520 
  59              		.align	2
  60              	.LC13:
  61 0250 44484D20 		.ascii	"DHM - Calculation of the DHM secret failed\000"
  61      2D204361 
  61      6C63756C 
  61      6174696F 
  61      6E206F66 
  62 027b 00       		.align	2
  63              	.LC14:
  64 027c 44484D20 		.ascii	"DHM - The ASN.1 data is not formatted correctly\000"
  64      2D205468 
  64      65204153 
  64      4E2E3120 
  64      64617461 
  65              		.align	2
  66              	.LC15:
  67 02ac 44484D20 		.ascii	"DHM - Allocation of memory failed\000"
  67      2D20416C 
  67      6C6F6361 
  67      74696F6E 
  67      206F6620 
  68 02ce 0000     		.align	2
  69              	.LC16:
  70 02d0 44484D20 		.ascii	"DHM - Read or write of file failed\000"
  70      2D205265 
  70      6164206F 
  70      72207772 
  70      69746520 
  71 02f3 00       		.align	2
  72              	.LC17:
  73 02f4 44484D20 		.ascii	"DHM - DHM hardware accelerator failed\000"
  73      2D204448 
  73      4D206861 
  73      72647761 
  73      72652061 
  74 031a 0000     		.align	2
  75              	.LC18:
  76 031c 44484D20 		.ascii	"DHM - Setting the modulus and generator failed\000"
  76      2D205365 
  76      7474696E 
  76      67207468 
  76      65206D6F 
  77 034b 00       		.align	2
  78              	.LC19:
  79 034c 45435020 		.ascii	"ECP - Bad input parameters to function\000"
  79      2D204261 
  79      6420696E 
  79      70757420 
  79      70617261 
  80 0373 00       		.align	2
  81              	.LC20:
  82 0374 45435020 		.ascii	"ECP - The buffer is too small to write to\000"
  82      2D205468 
  82      65206275 
  82      66666572 
  82      20697320 
ARM GAS  C:\Users\dtjld\AppData\Local\Temp\ccjG0xZ1.s 			page 4


  83 039e 0000     		.align	2
  84              	.LC21:
  85 03a0 45435020 		.ascii	"ECP - The requested feature is not available, for e"
  85      2D205468 
  85      65207265 
  85      71756573 
  85      74656420 
  86 03d3 78616D70 		.ascii	"xample, the requested curve is not supported\000"
  86      6C652C20 
  86      74686520 
  86      72657175 
  86      65737465 
  87              		.align	2
  88              	.LC22:
  89 0400 45435020 		.ascii	"ECP - The signature is not valid\000"
  89      2D205468 
  89      65207369 
  89      676E6174 
  89      75726520 
  90 0421 000000   		.align	2
  91              	.LC23:
  92 0424 45435020 		.ascii	"ECP - Memory allocation failed\000"
  92      2D204D65 
  92      6D6F7279 
  92      20616C6C 
  92      6F636174 
  93 0443 00       		.align	2
  94              	.LC24:
  95 0444 45435020 		.ascii	"ECP - Generation of random value, such as ephemeral"
  95      2D204765 
  95      6E657261 
  95      74696F6E 
  95      206F6620 
  96 0477 206B6579 		.ascii	" key, failed\000"
  96      2C206661 
  96      696C6564 
  96      00
  97              		.align	2
  98              	.LC25:
  99 0484 45435020 		.ascii	"ECP - Invalid private or public key\000"
  99      2D20496E 
  99      76616C69 
  99      64207072 
  99      69766174 
 100              		.align	2
 101              	.LC26:
 102 04a8 45435020 		.ascii	"ECP - The buffer contains a valid signature followe"
 102      2D205468 
 102      65206275 
 102      66666572 
 102      20636F6E 
 103 04db 64206279 		.ascii	"d by more data\000"
 103      206D6F72 
 103      65206461 
 103      746100
 104 04ea 0000     		.align	2
 105              	.LC27:
ARM GAS  C:\Users\dtjld\AppData\Local\Temp\ccjG0xZ1.s 			page 5


 106 04ec 45435020 		.ascii	"ECP - The ECP hardware accelerator failed\000"
 106      2D205468 
 106      65204543 
 106      50206861 
 106      72647761 
 107 0516 0000     		.align	2
 108              	.LC28:
 109 0518 45435020 		.ascii	"ECP - Operation in progress, call again with the sa"
 109      2D204F70 
 109      65726174 
 109      696F6E20 
 109      696E2070 
 110 054b 6D652070 		.ascii	"me parameters to continue\000"
 110      6172616D 
 110      65746572 
 110      7320746F 
 110      20636F6E 
 111 0565 000000   		.align	2
 112              	.LC29:
 113 0568 4D44202D 		.ascii	"MD - The selected feature is not available\000"
 113      20546865 
 113      2073656C 
 113      65637465 
 113      64206665 
 114 0593 00       		.align	2
 115              	.LC30:
 116 0594 4D44202D 		.ascii	"MD - Bad input parameters to function\000"
 116      20426164 
 116      20696E70 
 116      75742070 
 116      6172616D 
 117 05ba 0000     		.align	2
 118              	.LC31:
 119 05bc 4D44202D 		.ascii	"MD - Failed to allocate memory\000"
 119      20466169 
 119      6C656420 
 119      746F2061 
 119      6C6C6F63 
 120 05db 00       		.align	2
 121              	.LC32:
 122 05dc 4D44202D 		.ascii	"MD - Opening or reading of file failed\000"
 122      204F7065 
 122      6E696E67 
 122      206F7220 
 122      72656164 
 123 0603 00       		.align	2
 124              	.LC33:
 125 0604 4D44202D 		.ascii	"MD - MD hardware accelerator failed\000"
 125      204D4420 
 125      68617264 
 125      77617265 
 125      20616363 
 126              		.align	2
 127              	.LC34:
 128 0628 50454D20 		.ascii	"PEM - No PEM header or footer found\000"
 128      2D204E6F 
 128      2050454D 
ARM GAS  C:\Users\dtjld\AppData\Local\Temp\ccjG0xZ1.s 			page 6


 128      20686561 
 128      64657220 
 129              		.align	2
 130              	.LC35:
 131 064c 50454D20 		.ascii	"PEM - PEM string is not as expected\000"
 131      2D205045 
 131      4D207374 
 131      72696E67 
 131      20697320 
 132              		.align	2
 133              	.LC36:
 134 0670 50454D20 		.ascii	"PEM - Failed to allocate memory\000"
 134      2D204661 
 134      696C6564 
 134      20746F20 
 134      616C6C6F 
 135              		.align	2
 136              	.LC37:
 137 0690 50454D20 		.ascii	"PEM - RSA IV is not in hex-format\000"
 137      2D205253 
 137      41204956 
 137      20697320 
 137      6E6F7420 
 138 06b2 0000     		.align	2
 139              	.LC38:
 140 06b4 50454D20 		.ascii	"PEM - Unsupported key encryption algorithm\000"
 140      2D20556E 
 140      73757070 
 140      6F727465 
 140      64206B65 
 141 06df 00       		.align	2
 142              	.LC39:
 143 06e0 50454D20 		.ascii	"PEM - Private key password can't be empty\000"
 143      2D205072 
 143      69766174 
 143      65206B65 
 143      79207061 
 144 070a 0000     		.align	2
 145              	.LC40:
 146 070c 50454D20 		.ascii	"PEM - Given private key password does not allow for"
 146      2D204769 
 146      76656E20 
 146      70726976 
 146      61746520 
 147 073f 20636F72 		.ascii	" correct decryption\000"
 147      72656374 
 147      20646563 
 147      72797074 
 147      696F6E00 
 148 0753 00       		.align	2
 149              	.LC41:
 150 0754 50454D20 		.ascii	"PEM - Unavailable feature, e.g. hashing/encryption "
 150      2D20556E 
 150      61766169 
 150      6C61626C 
 150      65206665 
 151 0787 636F6D62 		.ascii	"combination\000"
ARM GAS  C:\Users\dtjld\AppData\Local\Temp\ccjG0xZ1.s 			page 7


 151      696E6174 
 151      696F6E00 
 152 0793 00       		.align	2
 153              	.LC42:
 154 0794 50454D20 		.ascii	"PEM - Bad input parameters to function\000"
 154      2D204261 
 154      6420696E 
 154      70757420 
 154      70617261 
 155 07bb 00       		.align	2
 156              	.LC43:
 157 07bc 504B202D 		.ascii	"PK - Memory allocation failed\000"
 157      204D656D 
 157      6F727920 
 157      616C6C6F 
 157      63617469 
 158 07da 0000     		.align	2
 159              	.LC44:
 160 07dc 504B202D 		.ascii	"PK - Type mismatch, eg attempt to encrypt with an E"
 160      20547970 
 160      65206D69 
 160      736D6174 
 160      63682C20 
 161 080f 43445341 		.ascii	"CDSA key\000"
 161      206B6579 
 161      00
 162              		.align	2
 163              	.LC45:
 164 0818 504B202D 		.ascii	"PK - Bad input parameters to function\000"
 164      20426164 
 164      20696E70 
 164      75742070 
 164      6172616D 
 165 083e 0000     		.align	2
 166              	.LC46:
 167 0840 504B202D 		.ascii	"PK - Read/write of file failed\000"
 167      20526561 
 167      642F7772 
 167      69746520 
 167      6F662066 
 168 085f 00       		.align	2
 169              	.LC47:
 170 0860 504B202D 		.ascii	"PK - Unsupported key version\000"
 170      20556E73 
 170      7570706F 
 170      72746564 
 170      206B6579 
 171 087d 000000   		.align	2
 172              	.LC48:
 173 0880 504B202D 		.ascii	"PK - Invalid key tag or value\000"
 173      20496E76 
 173      616C6964 
 173      206B6579 
 173      20746167 
 174 089e 0000     		.align	2
 175              	.LC49:
 176 08a0 504B202D 		.ascii	"PK - Key algorithm is unsupported (only RSA and EC "
ARM GAS  C:\Users\dtjld\AppData\Local\Temp\ccjG0xZ1.s 			page 8


 176      204B6579 
 176      20616C67 
 176      6F726974 
 176      686D2069 
 177 08d3 61726520 		.ascii	"are supported)\000"
 177      73757070 
 177      6F727465 
 177      642900
 178 08e2 0000     		.align	2
 179              	.LC50:
 180 08e4 504B202D 		.ascii	"PK - Private key password can't be empty\000"
 180      20507269 
 180      76617465 
 180      206B6579 
 180      20706173 
 181 090d 000000   		.align	2
 182              	.LC51:
 183 0910 504B202D 		.ascii	"PK - Given private key password does not allow for "
 183      20476976 
 183      656E2070 
 183      72697661 
 183      7465206B 
 184 0943 636F7272 		.ascii	"correct decryption\000"
 184      65637420 
 184      64656372 
 184      79707469 
 184      6F6E00
 185 0956 0000     		.align	2
 186              	.LC52:
 187 0958 504B202D 		.ascii	"PK - The pubkey tag or value is invalid (only RSA a"
 187      20546865 
 187      20707562 
 187      6B657920 
 187      74616720 
 188 098b 6E642045 		.ascii	"nd EC are supported)\000"
 188      43206172 
 188      65207375 
 188      70706F72 
 188      74656429 
 189              		.align	2
 190              	.LC53:
 191 09a0 504B202D 		.ascii	"PK - The algorithm tag or value is invalid\000"
 191      20546865 
 191      20616C67 
 191      6F726974 
 191      686D2074 
 192 09cb 00       		.align	2
 193              	.LC54:
 194 09cc 504B202D 		.ascii	"PK - Elliptic curve is unsupported (only NIST curve"
 194      20456C6C 
 194      69707469 
 194      63206375 
 194      72766520 
 195 09ff 73206172 		.ascii	"s are supported)\000"
 195      65207375 
 195      70706F72 
 195      74656429 
ARM GAS  C:\Users\dtjld\AppData\Local\Temp\ccjG0xZ1.s 			page 9


 195      00
 196              		.align	2
 197              	.LC55:
 198 0a10 504B202D 		.ascii	"PK - Unavailable feature, e.g. RSA disabled for RSA"
 198      20556E61 
 198      7661696C 
 198      61626C65 
 198      20666561 
 199 0a43 206B6579 		.ascii	" key\000"
 199      00
 200              		.align	2
 201              	.LC56:
 202 0a48 504B202D 		.ascii	"PK - The buffer contains a valid signature followed"
 202      20546865 
 202      20627566 
 202      66657220 
 202      636F6E74 
 203 0a7b 20627920 		.ascii	" by more data\000"
 203      6D6F7265 
 203      20646174 
 203      6100
 204 0a89 000000   		.align	2
 205              	.LC57:
 206 0a8c 504B202D 		.ascii	"PK - PK hardware accelerator failed\000"
 206      20504B20 
 206      68617264 
 206      77617265 
 206      20616363 
 207              		.align	2
 208              	.LC58:
 209 0ab0 504B4353 		.ascii	"PKCS12 - Bad input parameters to function\000"
 209      3132202D 
 209      20426164 
 209      20696E70 
 209      75742070 
 210 0ada 0000     		.align	2
 211              	.LC59:
 212 0adc 504B4353 		.ascii	"PKCS12 - Feature not available, e.g. unsupported en"
 212      3132202D 
 212      20466561 
 212      74757265 
 212      206E6F74 
 213 0b0f 63727970 		.ascii	"cryption scheme\000"
 213      74696F6E 
 213      20736368 
 213      656D6500 
 214 0b1f 00       		.align	2
 215              	.LC60:
 216 0b20 504B4353 		.ascii	"PKCS12 - PBE ASN.1 data not as expected\000"
 216      3132202D 
 216      20504245 
 216      2041534E 
 216      2E312064 
 217              		.align	2
 218              	.LC61:
 219 0b48 504B4353 		.ascii	"PKCS12 - Given private key password does not allow "
 219      3132202D 
ARM GAS  C:\Users\dtjld\AppData\Local\Temp\ccjG0xZ1.s 			page 10


 219      20476976 
 219      656E2070 
 219      72697661 
 220 0b7b 666F7220 		.ascii	"for correct decryption\000"
 220      636F7272 
 220      65637420 
 220      64656372 
 220      79707469 
 221 0b92 0000     		.align	2
 222              	.LC62:
 223 0b94 504B4353 		.ascii	"PKCS5 - Bad input parameters to function\000"
 223      35202D20 
 223      42616420 
 223      696E7075 
 223      74207061 
 224 0bbd 000000   		.align	2
 225              	.LC63:
 226 0bc0 504B4353 		.ascii	"PKCS5 - Unexpected ASN.1 data\000"
 226      35202D20 
 226      556E6578 
 226      70656374 
 226      65642041 
 227 0bde 0000     		.align	2
 228              	.LC64:
 229 0be0 504B4353 		.ascii	"PKCS5 - Requested encryption or digest alg not avai"
 229      35202D20 
 229      52657175 
 229      65737465 
 229      6420656E 
 230 0c13 6C61626C 		.ascii	"lable\000"
 230      6500
 231 0c19 000000   		.align	2
 232              	.LC65:
 233 0c1c 504B4353 		.ascii	"PKCS5 - Given private key password does not allow f"
 233      35202D20 
 233      47697665 
 233      6E207072 
 233      69766174 
 234 0c4f 6F722063 		.ascii	"or correct decryption\000"
 234      6F727265 
 234      63742064 
 234      65637279 
 234      7074696F 
 235 0c65 000000   		.align	2
 236              	.LC66:
 237 0c68 52534120 		.ascii	"RSA - Bad input parameters to function\000"
 237      2D204261 
 237      6420696E 
 237      70757420 
 237      70617261 
 238 0c8f 00       		.align	2
 239              	.LC67:
 240 0c90 52534120 		.ascii	"RSA - Input data contains invalid padding and is re"
 240      2D20496E 
 240      70757420 
 240      64617461 
 240      20636F6E 
ARM GAS  C:\Users\dtjld\AppData\Local\Temp\ccjG0xZ1.s 			page 11


 241 0cc3 6A656374 		.ascii	"jected\000"
 241      656400
 242 0cca 0000     		.align	2
 243              	.LC68:
 244 0ccc 52534120 		.ascii	"RSA - Something failed during generation of a key\000"
 244      2D20536F 
 244      6D657468 
 244      696E6720 
 244      6661696C 
 245 0cfe 0000     		.align	2
 246              	.LC69:
 247 0d00 52534120 		.ascii	"RSA - Key failed to pass the validity check of the "
 247      2D204B65 
 247      79206661 
 247      696C6564 
 247      20746F20 
 248 0d33 6C696272 		.ascii	"library\000"
 248      61727900 
 249 0d3b 00       		.align	2
 250              	.LC70:
 251 0d3c 52534120 		.ascii	"RSA - The public key operation failed\000"
 251      2D205468 
 251      65207075 
 251      626C6963 
 251      206B6579 
 252 0d62 0000     		.align	2
 253              	.LC71:
 254 0d64 52534120 		.ascii	"RSA - The private key operation failed\000"
 254      2D205468 
 254      65207072 
 254      69766174 
 254      65206B65 
 255 0d8b 00       		.align	2
 256              	.LC72:
 257 0d8c 52534120 		.ascii	"RSA - The PKCS#1 verification failed\000"
 257      2D205468 
 257      6520504B 
 257      43532331 
 257      20766572 
 258 0db1 000000   		.align	2
 259              	.LC73:
 260 0db4 52534120 		.ascii	"RSA - The output buffer for decryption is not large"
 260      2D205468 
 260      65206F75 
 260      74707574 
 260      20627566 
 261 0de7 20656E6F 		.ascii	" enough\000"
 261      75676800 
 262 0def 00       		.align	2
 263              	.LC74:
 264 0df0 52534120 		.ascii	"RSA - The random generator failed to generate non-z"
 264      2D205468 
 264      65207261 
 264      6E646F6D 
 264      2067656E 
 265 0e23 65726F73 		.ascii	"eros\000"
 265      00
ARM GAS  C:\Users\dtjld\AppData\Local\Temp\ccjG0xZ1.s 			page 12


 266              		.align	2
 267              	.LC75:
 268 0e28 52534120 		.ascii	"RSA - The implementation does not offer the request"
 268      2D205468 
 268      6520696D 
 268      706C656D 
 268      656E7461 
 269 0e5b 6564206F 		.ascii	"ed operation, for example, because of security viol"
 269      70657261 
 269      74696F6E 
 269      2C20666F 
 269      72206578 
 270 0e8e 6174696F 		.ascii	"ations or lack of functionality\000"
 270      6E73206F 
 270      72206C61 
 270      636B206F 
 270      66206675 
 271 0eae 0000     		.align	2
 272              	.LC76:
 273 0eb0 52534120 		.ascii	"RSA - RSA hardware accelerator failed\000"
 273      2D205253 
 273      41206861 
 273      72647761 
 273      72652061 
 274 0ed6 0000     		.align	2
 275              	.LC77:
 276 0ed8 53534C20 		.ascii	"SSL - The requested feature is not available\000"
 276      2D205468 
 276      65207265 
 276      71756573 
 276      74656420 
 277 0f05 000000   		.align	2
 278              	.LC78:
 279 0f08 53534C20 		.ascii	"SSL - Bad input parameters to function\000"
 279      2D204261 
 279      6420696E 
 279      70757420 
 279      70617261 
 280 0f2f 00       		.align	2
 281              	.LC79:
 282 0f30 53534C20 		.ascii	"SSL - Verification of the message MAC failed\000"
 282      2D205665 
 282      72696669 
 282      63617469 
 282      6F6E206F 
 283 0f5d 000000   		.align	2
 284              	.LC80:
 285 0f60 53534C20 		.ascii	"SSL - An invalid SSL record was received\000"
 285      2D20416E 
 285      20696E76 
 285      616C6964 
 285      2053534C 
 286 0f89 000000   		.align	2
 287              	.LC81:
 288 0f8c 53534C20 		.ascii	"SSL - The connection indicated an EOF\000"
 288      2D205468 
 288      6520636F 
ARM GAS  C:\Users\dtjld\AppData\Local\Temp\ccjG0xZ1.s 			page 13


 288      6E6E6563 
 288      74696F6E 
 289 0fb2 0000     		.align	2
 290              	.LC82:
 291 0fb4 53534C20 		.ascii	"SSL - An unknown cipher was received\000"
 291      2D20416E 
 291      20756E6B 
 291      6E6F776E 
 291      20636970 
 292 0fd9 000000   		.align	2
 293              	.LC83:
 294 0fdc 53534C20 		.ascii	"SSL - The server has no ciphersuites in common with"
 294      2D205468 
 294      65207365 
 294      72766572 
 294      20686173 
 295 100f 20746865 		.ascii	" the client\000"
 295      20636C69 
 295      656E7400 
 296 101b 00       		.align	2
 297              	.LC84:
 298 101c 53534C20 		.ascii	"SSL - No RNG was provided to the SSL module\000"
 298      2D204E6F 
 298      20524E47 
 298      20776173 
 298      2070726F 
 299              		.align	2
 300              	.LC85:
 301 1048 53534C20 		.ascii	"SSL - No client certification received from the cli"
 301      2D204E6F 
 301      20636C69 
 301      656E7420 
 301      63657274 
 302 107b 656E742C 		.ascii	"ent, but required by the authentication mode\000"
 302      20627574 
 302      20726571 
 302      75697265 
 302      64206279 
 303              		.align	2
 304              	.LC86:
 305 10a8 53534C20 		.ascii	"SSL - Our own certificate(s) is/are too large to se"
 305      2D204F75 
 305      72206F77 
 305      6E206365 
 305      72746966 
 306 10db 6E642069 		.ascii	"nd in an SSL message\000"
 306      6E20616E 
 306      2053534C 
 306      206D6573 
 306      73616765 
 307              		.align	2
 308              	.LC87:
 309 10f0 53534C20 		.ascii	"SSL - The own certificate is not set, but needed by"
 309      2D205468 
 309      65206F77 
 309      6E206365 
 309      72746966 
ARM GAS  C:\Users\dtjld\AppData\Local\Temp\ccjG0xZ1.s 			page 14


 310 1123 20746865 		.ascii	" the server\000"
 310      20736572 
 310      76657200 
 311 112f 00       		.align	2
 312              	.LC88:
 313 1130 53534C20 		.ascii	"SSL - The own private key or pre-shared key is not "
 313      2D205468 
 313      65206F77 
 313      6E207072 
 313      69766174 
 314 1163 7365742C 		.ascii	"set, but needed\000"
 314      20627574 
 314      206E6565 
 314      64656400 
 315 1173 00       		.align	2
 316              	.LC89:
 317 1174 53534C20 		.ascii	"SSL - No CA Chain is set, but required to operate\000"
 317      2D204E6F 
 317      20434120 
 317      43686169 
 317      6E206973 
 318 11a6 0000     		.align	2
 319              	.LC90:
 320 11a8 53534C20 		.ascii	"SSL - An unexpected message was received from our p"
 320      2D20416E 
 320      20756E65 
 320      78706563 
 320      74656420 
 321 11db 65657200 		.ascii	"eer\000"
 322 11df 00       		.align	2
 323              	.LC91:
 324 11e0 53534C20 		.ascii	"SSL - A fatal alert message was received from our p"
 324      2D204120 
 324      66617461 
 324      6C20616C 
 324      65727420 
 325 1213 65657200 		.ascii	"eer\000"
 326 1217 00       		.align	2
 327              	.LC92:
 328 1218 53534C20 		.ascii	"SSL - Verification of our peer failed\000"
 328      2D205665 
 328      72696669 
 328      63617469 
 328      6F6E206F 
 329 123e 0000     		.align	2
 330              	.LC93:
 331 1240 53534C20 		.ascii	"SSL - The peer notified us that the connection is g"
 331      2D205468 
 331      65207065 
 331      6572206E 
 331      6F746966 
 332 1273 6F696E67 		.ascii	"oing to be closed\000"
 332      20746F20 
 332      62652063 
 332      6C6F7365 
 332      6400
 333 1285 000000   		.align	2
ARM GAS  C:\Users\dtjld\AppData\Local\Temp\ccjG0xZ1.s 			page 15


 334              	.LC94:
 335 1288 53534C20 		.ascii	"SSL - Processing of the ClientHello handshake messa"
 335      2D205072 
 335      6F636573 
 335      73696E67 
 335      206F6620 
 336 12bb 67652066 		.ascii	"ge failed\000"
 336      61696C65 
 336      6400
 337 12c5 000000   		.align	2
 338              	.LC95:
 339 12c8 53534C20 		.ascii	"SSL - Processing of the ServerHello handshake messa"
 339      2D205072 
 339      6F636573 
 339      73696E67 
 339      206F6620 
 340 12fb 67652066 		.ascii	"ge failed\000"
 340      61696C65 
 340      6400
 341 1305 000000   		.align	2
 342              	.LC96:
 343 1308 53534C20 		.ascii	"SSL - Processing of the Certificate handshake messa"
 343      2D205072 
 343      6F636573 
 343      73696E67 
 343      206F6620 
 344 133b 67652066 		.ascii	"ge failed\000"
 344      61696C65 
 344      6400
 345 1345 000000   		.align	2
 346              	.LC97:
 347 1348 53534C20 		.ascii	"SSL - Processing of the CertificateRequest handshak"
 347      2D205072 
 347      6F636573 
 347      73696E67 
 347      206F6620 
 348 137b 65206D65 		.ascii	"e message failed\000"
 348      73736167 
 348      65206661 
 348      696C6564 
 348      00
 349              		.align	2
 350              	.LC98:
 351 138c 53534C20 		.ascii	"SSL - Processing of the ServerKeyExchange handshake"
 351      2D205072 
 351      6F636573 
 351      73696E67 
 351      206F6620 
 352 13bf 206D6573 		.ascii	" message failed\000"
 352      73616765 
 352      20666169 
 352      6C656400 
 353 13cf 00       		.align	2
 354              	.LC99:
 355 13d0 53534C20 		.ascii	"SSL - Processing of the ServerHelloDone handshake m"
 355      2D205072 
 355      6F636573 
ARM GAS  C:\Users\dtjld\AppData\Local\Temp\ccjG0xZ1.s 			page 16


 355      73696E67 
 355      206F6620 
 356 1403 65737361 		.ascii	"essage failed\000"
 356      67652066 
 356      61696C65 
 356      6400
 357 1411 000000   		.align	2
 358              	.LC100:
 359 1414 53534C20 		.ascii	"SSL - Processing of the ClientKeyExchange handshake"
 359      2D205072 
 359      6F636573 
 359      73696E67 
 359      206F6620 
 360 1447 206D6573 		.ascii	" message failed\000"
 360      73616765 
 360      20666169 
 360      6C656400 
 361 1457 00       		.align	2
 362              	.LC101:
 363 1458 53534C20 		.ascii	"SSL - Processing of the ClientKeyExchange handshake"
 363      2D205072 
 363      6F636573 
 363      73696E67 
 363      206F6620 
 364 148b 206D6573 		.ascii	" message failed in DHM / ECDH Read Public\000"
 364      73616765 
 364      20666169 
 364      6C656420 
 364      696E2044 
 365 14b5 000000   		.align	2
 366              	.LC102:
 367 14b8 53534C20 		.ascii	"SSL - Processing of the ClientKeyExchange handshake"
 367      2D205072 
 367      6F636573 
 367      73696E67 
 367      206F6620 
 368 14eb 206D6573 		.ascii	" message failed in DHM / ECDH Calculate Secret\000"
 368      73616765 
 368      20666169 
 368      6C656420 
 368      696E2044 
 369 151a 0000     		.align	2
 370              	.LC103:
 371 151c 53534C20 		.ascii	"SSL - Processing of the CertificateVerify handshake"
 371      2D205072 
 371      6F636573 
 371      73696E67 
 371      206F6620 
 372 154f 206D6573 		.ascii	" message failed\000"
 372      73616765 
 372      20666169 
 372      6C656400 
 373 155f 00       		.align	2
 374              	.LC104:
 375 1560 53534C20 		.ascii	"SSL - Processing of the ChangeCipherSpec handshake "
 375      2D205072 
 375      6F636573 
ARM GAS  C:\Users\dtjld\AppData\Local\Temp\ccjG0xZ1.s 			page 17


 375      73696E67 
 375      206F6620 
 376 1593 6D657373 		.ascii	"message failed\000"
 376      61676520 
 376      6661696C 
 376      656400
 377 15a2 0000     		.align	2
 378              	.LC105:
 379 15a4 53534C20 		.ascii	"SSL - Processing of the Finished handshake message "
 379      2D205072 
 379      6F636573 
 379      73696E67 
 379      206F6620 
 380 15d7 6661696C 		.ascii	"failed\000"
 380      656400
 381 15de 0000     		.align	2
 382              	.LC106:
 383 15e0 53534C20 		.ascii	"SSL - Memory allocation failed\000"
 383      2D204D65 
 383      6D6F7279 
 383      20616C6C 
 383      6F636174 
 384 15ff 00       		.align	2
 385              	.LC107:
 386 1600 53534C20 		.ascii	"SSL - Hardware acceleration function returned with "
 386      2D204861 
 386      72647761 
 386      72652061 
 386      6363656C 
 387 1633 6572726F 		.ascii	"error\000"
 387      7200
 388 1639 000000   		.align	2
 389              	.LC108:
 390 163c 53534C20 		.ascii	"SSL - Hardware acceleration function skipped / left"
 390      2D204861 
 390      72647761 
 390      72652061 
 390      6363656C 
 391 166f 20616C6F 		.ascii	" alone data\000"
 391      6E652064 
 391      61746100 
 392 167b 00       		.align	2
 393              	.LC109:
 394 167c 53534C20 		.ascii	"SSL - Processing of the compression / decompression"
 394      2D205072 
 394      6F636573 
 394      73696E67 
 394      206F6620 
 395 16af 20666169 		.ascii	" failed\000"
 395      6C656400 
 396 16b7 00       		.align	2
 397              	.LC110:
 398 16b8 53534C20 		.ascii	"SSL - Handshake protocol not within min/max boundar"
 398      2D204861 
 398      6E647368 
 398      616B6520 
 398      70726F74 
ARM GAS  C:\Users\dtjld\AppData\Local\Temp\ccjG0xZ1.s 			page 18


 399 16eb 69657300 		.ascii	"ies\000"
 400 16ef 00       		.align	2
 401              	.LC111:
 402 16f0 53534C20 		.ascii	"SSL - Processing of the NewSessionTicket handshake "
 402      2D205072 
 402      6F636573 
 402      73696E67 
 402      206F6620 
 403 1723 6D657373 		.ascii	"message failed\000"
 403      61676520 
 403      6661696C 
 403      656400
 404 1732 0000     		.align	2
 405              	.LC112:
 406 1734 53534C20 		.ascii	"SSL - Session ticket has expired\000"
 406      2D205365 
 406      7373696F 
 406      6E207469 
 406      636B6574 
 407 1755 000000   		.align	2
 408              	.LC113:
 409 1758 53534C20 		.ascii	"SSL - Public key type mismatch (eg, asked for RSA k"
 409      2D205075 
 409      626C6963 
 409      206B6579 
 409      20747970 
 410 178b 65792065 		.ascii	"ey exchange and presented EC key)\000"
 410      78636861 
 410      6E676520 
 410      616E6420 
 410      70726573 
 411 17ad 000000   		.align	2
 412              	.LC114:
 413 17b0 53534C20 		.ascii	"SSL - Unknown identity received (eg, PSK identity)\000"
 413      2D20556E 
 413      6B6E6F77 
 413      6E206964 
 413      656E7469 
 414 17e3 00       		.align	2
 415              	.LC115:
 416 17e4 53534C20 		.ascii	"SSL - Internal error (eg, unexpected failure in low"
 416      2D20496E 
 416      7465726E 
 416      616C2065 
 416      72726F72 
 417 1817 65722D6C 		.ascii	"er-level module)\000"
 417      6576656C 
 417      206D6F64 
 417      756C6529 
 417      00
 418              		.align	2
 419              	.LC116:
 420 1828 53534C20 		.ascii	"SSL - A counter would wrap (eg, too many messages e"
 420      2D204120 
 420      636F756E 
 420      74657220 
 420      776F756C 
ARM GAS  C:\Users\dtjld\AppData\Local\Temp\ccjG0xZ1.s 			page 19


 421 185b 78636861 		.ascii	"xchanged)\000"
 421      6E676564 
 421      2900
 422 1865 000000   		.align	2
 423              	.LC117:
 424 1868 53534C20 		.ascii	"SSL - Unexpected message at ServerHello in renegoti"
 424      2D20556E 
 424      65787065 
 424      63746564 
 424      206D6573 
 425 189b 6174696F 		.ascii	"ation\000"
 425      6E00
 426 18a1 000000   		.align	2
 427              	.LC118:
 428 18a4 53534C20 		.ascii	"SSL - DTLS client must retry for hello verification"
 428      2D204454 
 428      4C532063 
 428      6C69656E 
 428      74206D75 
 429 18d7 00       		.ascii	"\000"
 430              		.align	2
 431              	.LC119:
 432 18d8 53534C20 		.ascii	"SSL - A buffer is too small to receive or write a m"
 432      2D204120 
 432      62756666 
 432      65722069 
 432      7320746F 
 433 190b 65737361 		.ascii	"essage\000"
 433      676500
 434 1912 0000     		.align	2
 435              	.LC120:
 436 1914 53534C20 		.ascii	"SSL - None of the common ciphersuites is usable (eg"
 436      2D204E6F 
 436      6E65206F 
 436      66207468 
 436      6520636F 
 437 1947 2C206E6F 		.ascii	", no suitable certificate, see debug messages)\000"
 437      20737569 
 437      7461626C 
 437      65206365 
 437      72746966 
 438 1976 0000     		.align	2
 439              	.LC121:
 440 1978 53534C20 		.ascii	"SSL - No data of requested type currently available"
 440      2D204E6F 
 440      20646174 
 440      61206F66 
 440      20726571 
 441 19ab 206F6E20 		.ascii	" on underlying transport\000"
 441      756E6465 
 441      726C7969 
 441      6E672074 
 441      72616E73 
 442              		.align	2
 443              	.LC122:
 444 19c4 53534C20 		.ascii	"SSL - Connection requires a write call\000"
 444      2D20436F 
ARM GAS  C:\Users\dtjld\AppData\Local\Temp\ccjG0xZ1.s 			page 20


 444      6E6E6563 
 444      74696F6E 
 444      20726571 
 445 19eb 00       		.align	2
 446              	.LC123:
 447 19ec 53534C20 		.ascii	"SSL - The operation timed out\000"
 447      2D205468 
 447      65206F70 
 447      65726174 
 447      696F6E20 
 448 1a0a 0000     		.align	2
 449              	.LC124:
 450 1a0c 53534C20 		.ascii	"SSL - The client initiated a reconnect from the sam"
 450      2D205468 
 450      6520636C 
 450      69656E74 
 450      20696E69 
 451 1a3f 6520706F 		.ascii	"e port\000"
 451      727400
 452 1a46 0000     		.align	2
 453              	.LC125:
 454 1a48 53534C20 		.ascii	"SSL - Record header looks valid but is not expected"
 454      2D205265 
 454      636F7264 
 454      20686561 
 454      64657220 
 455 1a7b 00       		.ascii	"\000"
 456              		.align	2
 457              	.LC126:
 458 1a7c 53534C20 		.ascii	"SSL - The alert message received indicates a non-fa"
 458      2D205468 
 458      6520616C 
 458      65727420 
 458      6D657373 
 459 1aaf 74616C20 		.ascii	"tal error\000"
 459      6572726F 
 459      7200
 460 1ab9 000000   		.align	2
 461              	.LC127:
 462 1abc 53534C20 		.ascii	"SSL - Couldn't set the hash for verifying Certifica"
 462      2D20436F 
 462      756C646E 
 462      27742073 
 462      65742074 
 463 1aef 74655665 		.ascii	"teVerify\000"
 463      72696679 
 463      00
 464              		.align	2
 465              	.LC128:
 466 1af8 53534C20 		.ascii	"SSL - Internal-only message signaling that further "
 466      2D20496E 
 466      7465726E 
 466      616C2D6F 
 466      6E6C7920 
 467 1b2b 6D657373 		.ascii	"message-processing should be done\000"
 467      6167652D 
 467      70726F63 
ARM GAS  C:\Users\dtjld\AppData\Local\Temp\ccjG0xZ1.s 			page 21


 467      65737369 
 467      6E672073 
 468 1b4d 000000   		.align	2
 469              	.LC129:
 470 1b50 53534C20 		.ascii	"SSL - The asynchronous operation is not completed y"
 470      2D205468 
 470      65206173 
 470      796E6368 
 470      726F6E6F 
 471 1b83 657400   		.ascii	"et\000"
 472 1b86 0000     		.align	2
 473              	.LC130:
 474 1b88 53534C20 		.ascii	"SSL - Internal-only message signaling that a messag"
 474      2D20496E 
 474      7465726E 
 474      616C2D6F 
 474      6E6C7920 
 475 1bbb 65206172 		.ascii	"e arrived early\000"
 475      72697665 
 475      64206561 
 475      726C7900 
 476 1bcb 00       		.align	2
 477              	.LC131:
 478 1bcc 53534C20 		.ascii	"SSL - A cryptographic operation is in progress. Try"
 478      2D204120 
 478      63727970 
 478      746F6772 
 478      61706869 
 479 1bff 20616761 		.ascii	" again later\000"
 479      696E206C 
 479      61746572 
 479      00
 480              		.align	2
 481              	.LC132:
 482 1c0c 58353039 		.ascii	"X509 - Unavailable feature, e.g. RSA hashing/encryp"
 482      202D2055 
 482      6E617661 
 482      696C6162 
 482      6C652066 
 483 1c3f 74696F6E 		.ascii	"tion combination\000"
 483      20636F6D 
 483      62696E61 
 483      74696F6E 
 483      00
 484              		.align	2
 485              	.LC133:
 486 1c50 58353039 		.ascii	"X509 - Requested OID is unknown\000"
 486      202D2052 
 486      65717565 
 486      73746564 
 486      204F4944 
 487              		.align	2
 488              	.LC134:
 489 1c70 58353039 		.ascii	"X509 - The CRT/CRL/CSR format is invalid, e.g. diff"
 489      202D2054 
 489      68652043 
 489      52542F43 
ARM GAS  C:\Users\dtjld\AppData\Local\Temp\ccjG0xZ1.s 			page 22


 489      524C2F43 
 490 1ca3 6572656E 		.ascii	"erent type expected\000"
 490      74207479 
 490      70652065 
 490      78706563 
 490      74656400 
 491 1cb7 00       		.align	2
 492              	.LC135:
 493 1cb8 58353039 		.ascii	"X509 - The CRT/CRL/CSR version element is invalid\000"
 493      202D2054 
 493      68652043 
 493      52542F43 
 493      524C2F43 
 494 1cea 0000     		.align	2
 495              	.LC136:
 496 1cec 58353039 		.ascii	"X509 - The serial tag or value is invalid\000"
 496      202D2054 
 496      68652073 
 496      65726961 
 496      6C207461 
 497 1d16 0000     		.align	2
 498              	.LC137:
 499 1d18 58353039 		.ascii	"X509 - The algorithm tag or value is invalid\000"
 499      202D2054 
 499      68652061 
 499      6C676F72 
 499      6974686D 
 500 1d45 000000   		.align	2
 501              	.LC138:
 502 1d48 58353039 		.ascii	"X509 - The name tag or value is invalid\000"
 502      202D2054 
 502      6865206E 
 502      616D6520 
 502      74616720 
 503              		.align	2
 504              	.LC139:
 505 1d70 58353039 		.ascii	"X509 - The date tag or value is invalid\000"
 505      202D2054 
 505      68652064 
 505      61746520 
 505      74616720 
 506              		.align	2
 507              	.LC140:
 508 1d98 58353039 		.ascii	"X509 - The signature tag or value invalid\000"
 508      202D2054 
 508      68652073 
 508      69676E61 
 508      74757265 
 509 1dc2 0000     		.align	2
 510              	.LC141:
 511 1dc4 58353039 		.ascii	"X509 - The extension tag or value is invalid\000"
 511      202D2054 
 511      68652065 
 511      7874656E 
 511      73696F6E 
 512 1df1 000000   		.align	2
 513              	.LC142:
ARM GAS  C:\Users\dtjld\AppData\Local\Temp\ccjG0xZ1.s 			page 23


 514 1df4 58353039 		.ascii	"X509 - CRT/CRL/CSR has an unsupported version numbe"
 514      202D2043 
 514      52542F43 
 514      524C2F43 
 514      53522068 
 515 1e27 7200     		.ascii	"r\000"
 516 1e29 000000   		.align	2
 517              	.LC143:
 518 1e2c 58353039 		.ascii	"X509 - Signature algorithm (oid) is unsupported\000"
 518      202D2053 
 518      69676E61 
 518      74757265 
 518      20616C67 
 519              		.align	2
 520              	.LC144:
 521 1e5c 58353039 		.ascii	"X509 - Signature algorithms do not match. (see \\c "
 521      202D2053 
 521      69676E61 
 521      74757265 
 521      20616C67 
 522 1e8e 3A3A6D62 		.ascii	"::mbedtls_x509_crt sig_oid)\000"
 522      6564746C 
 522      735F7835 
 522      30395F63 
 522      72742073 
 523 1eaa 0000     		.align	2
 524              	.LC145:
 525 1eac 58353039 		.ascii	"X509 - Certificate verification failed, e.g. CRL, C"
 525      202D2043 
 525      65727469 
 525      66696361 
 525      74652076 
 526 1edf 41206F72 		.ascii	"A or signature check failed\000"
 526      20736967 
 526      6E617475 
 526      72652063 
 526      6865636B 
 527 1efb 00       		.align	2
 528              	.LC146:
 529 1efc 58353039 		.ascii	"X509 - Format not recognized as DER or PEM\000"
 529      202D2046 
 529      6F726D61 
 529      74206E6F 
 529      74207265 
 530 1f27 00       		.align	2
 531              	.LC147:
 532 1f28 58353039 		.ascii	"X509 - Input invalid\000"
 532      202D2049 
 532      6E707574 
 532      20696E76 
 532      616C6964 
 533 1f3d 000000   		.align	2
 534              	.LC148:
 535 1f40 58353039 		.ascii	"X509 - Allocation of memory failed\000"
 535      202D2041 
 535      6C6C6F63 
 535      6174696F 
ARM GAS  C:\Users\dtjld\AppData\Local\Temp\ccjG0xZ1.s 			page 24


 535      6E206F66 
 536 1f63 00       		.align	2
 537              	.LC149:
 538 1f64 58353039 		.ascii	"X509 - Read/write of file failed\000"
 538      202D2052 
 538      6561642F 
 538      77726974 
 538      65206F66 
 539 1f85 000000   		.align	2
 540              	.LC150:
 541 1f88 58353039 		.ascii	"X509 - Destination buffer is too small\000"
 541      202D2044 
 541      65737469 
 541      6E617469 
 541      6F6E2062 
 542 1faf 00       		.align	2
 543              	.LC151:
 544 1fb0 58353039 		.ascii	"X509 - A fatal error occured, eg the chain is too l"
 544      202D2041 
 544      20666174 
 544      616C2065 
 544      72726F72 
 545 1fe3 6F6E6720 		.ascii	"ong or the vrfy callback failed\000"
 545      6F722074 
 545      68652076 
 545      72667920 
 545      63616C6C 
 546 2003 00       		.align	2
 547              	.LC152:
 548 2004 554E4B4E 		.ascii	"UNKNOWN ERROR CODE (%04X)\000"
 548      4F574E20 
 548      4552524F 
 548      5220434F 
 548      44452028 
 549 201e 0000     		.align	2
 550              	.LC153:
 551 2020 203A2000 		.ascii	" : \000"
 552              		.align	2
 553              	.LC154:
 554 2024 41455320 		.ascii	"AES - Invalid key length\000"
 554      2D20496E 
 554      76616C69 
 554      64206B65 
 554      79206C65 
 555 203d 000000   		.align	2
 556              	.LC155:
 557 2040 41455320 		.ascii	"AES - Invalid data input length\000"
 557      2D20496E 
 557      76616C69 
 557      64206461 
 557      74612069 
 558              		.align	2
 559              	.LC156:
 560 2060 41455320 		.ascii	"AES - Invalid input data\000"
 560      2D20496E 
 560      76616C69 
 560      6420696E 
ARM GAS  C:\Users\dtjld\AppData\Local\Temp\ccjG0xZ1.s 			page 25


 560      70757420 
 561 2079 000000   		.align	2
 562              	.LC157:
 563 207c 41455320 		.ascii	"AES - Feature not available. For example, an unsupp"
 563      2D204665 
 563      61747572 
 563      65206E6F 
 563      74206176 
 564 20af 6F727465 		.ascii	"orted AES key size\000"
 564      64204145 
 564      53206B65 
 564      79207369 
 564      7A6500
 565 20c2 0000     		.align	2
 566              	.LC158:
 567 20c4 41455320 		.ascii	"AES - AES hardware accelerator failed\000"
 567      2D204145 
 567      53206861 
 567      72647761 
 567      72652061 
 568 20ea 0000     		.align	2
 569              	.LC159:
 570 20ec 41524334 		.ascii	"ARC4 - ARC4 hardware accelerator failed\000"
 570      202D2041 
 570      52433420 
 570      68617264 
 570      77617265 
 571              		.align	2
 572              	.LC160:
 573 2114 41534E31 		.ascii	"ASN1 - Out of data when parsing an ASN1 data struct"
 573      202D204F 
 573      7574206F 
 573      66206461 
 573      74612077 
 574 2147 75726500 		.ascii	"ure\000"
 575 214b 00       		.align	2
 576              	.LC161:
 577 214c 41534E31 		.ascii	"ASN1 - ASN1 tag was of an unexpected value\000"
 577      202D2041 
 577      534E3120 
 577      74616720 
 577      77617320 
 578 2177 00       		.align	2
 579              	.LC162:
 580 2178 41534E31 		.ascii	"ASN1 - Error when trying to determine the length or"
 580      202D2045 
 580      72726F72 
 580      20776865 
 580      6E207472 
 581 21ab 20696E76 		.ascii	" invalid length\000"
 581      616C6964 
 581      206C656E 
 581      67746800 
 582 21bb 00       		.align	2
 583              	.LC163:
 584 21bc 41534E31 		.ascii	"ASN1 - Actual length differs from expected length\000"
 584      202D2041 
ARM GAS  C:\Users\dtjld\AppData\Local\Temp\ccjG0xZ1.s 			page 26


 584      63747561 
 584      6C206C65 
 584      6E677468 
 585 21ee 0000     		.align	2
 586              	.LC164:
 587 21f0 41534E31 		.ascii	"ASN1 - Data is invalid. (not used)\000"
 587      202D2044 
 587      61746120 
 587      69732069 
 587      6E76616C 
 588 2213 00       		.align	2
 589              	.LC165:
 590 2214 41534E31 		.ascii	"ASN1 - Memory allocation failed\000"
 590      202D204D 
 590      656D6F72 
 590      7920616C 
 590      6C6F6361 
 591              		.align	2
 592              	.LC166:
 593 2234 41534E31 		.ascii	"ASN1 - Buffer too small when writing ASN.1 data str"
 593      202D2042 
 593      75666665 
 593      7220746F 
 593      6F20736D 
 594 2267 75637475 		.ascii	"ucture\000"
 594      726500
 595 226e 0000     		.align	2
 596              	.LC167:
 597 2270 42415345 		.ascii	"BASE64 - Output buffer too small\000"
 597      3634202D 
 597      204F7574 
 597      70757420 
 597      62756666 
 598 2291 000000   		.align	2
 599              	.LC168:
 600 2294 42415345 		.ascii	"BASE64 - Invalid character in input\000"
 600      3634202D 
 600      20496E76 
 600      616C6964 
 600      20636861 
 601              		.align	2
 602              	.LC169:
 603 22b8 4249474E 		.ascii	"BIGNUM - An error occurred while reading from or wr"
 603      554D202D 
 603      20416E20 
 603      6572726F 
 603      72206F63 
 604 22eb 6974696E 		.ascii	"iting to a file\000"
 604      6720746F 
 604      20612066 
 604      696C6500 
 605 22fb 00       		.align	2
 606              	.LC170:
 607 22fc 4249474E 		.ascii	"BIGNUM - Bad input parameters to function\000"
 607      554D202D 
 607      20426164 
 607      20696E70 
ARM GAS  C:\Users\dtjld\AppData\Local\Temp\ccjG0xZ1.s 			page 27


 607      75742070 
 608 2326 0000     		.align	2
 609              	.LC171:
 610 2328 4249474E 		.ascii	"BIGNUM - There is an invalid character in the digit"
 610      554D202D 
 610      20546865 
 610      72652069 
 610      7320616E 
 611 235b 20737472 		.ascii	" string\000"
 611      696E6700 
 612 2363 00       		.align	2
 613              	.LC172:
 614 2364 4249474E 		.ascii	"BIGNUM - The buffer is too small to write to\000"
 614      554D202D 
 614      20546865 
 614      20627566 
 614      66657220 
 615 2391 000000   		.align	2
 616              	.LC173:
 617 2394 4249474E 		.ascii	"BIGNUM - The input arguments are negative or result"
 617      554D202D 
 617      20546865 
 617      20696E70 
 617      75742061 
 618 23c7 20696E20 		.ascii	" in illegal output\000"
 618      696C6C65 
 618      67616C20 
 618      6F757470 
 618      757400
 619 23da 0000     		.align	2
 620              	.LC174:
 621 23dc 4249474E 		.ascii	"BIGNUM - The input argument for division is zero, w"
 621      554D202D 
 621      20546865 
 621      20696E70 
 621      75742061 
 622 240f 68696368 		.ascii	"hich is not allowed\000"
 622      20697320 
 622      6E6F7420 
 622      616C6C6F 
 622      77656400 
 623 2423 00       		.align	2
 624              	.LC175:
 625 2424 4249474E 		.ascii	"BIGNUM - The input arguments are not acceptable\000"
 625      554D202D 
 625      20546865 
 625      20696E70 
 625      75742061 
 626              		.align	2
 627              	.LC176:
 628 2454 4249474E 		.ascii	"BIGNUM - Memory allocation failed\000"
 628      554D202D 
 628      204D656D 
 628      6F727920 
 628      616C6C6F 
 629 2476 0000     		.align	2
 630              	.LC177:
ARM GAS  C:\Users\dtjld\AppData\Local\Temp\ccjG0xZ1.s 			page 28


 631 2478 424C4F57 		.ascii	"BLOWFISH - Bad input data\000"
 631      46495348 
 631      202D2042 
 631      61642069 
 631      6E707574 
 632 2492 0000     		.align	2
 633              	.LC178:
 634 2494 424C4F57 		.ascii	"BLOWFISH - Invalid data input length\000"
 634      46495348 
 634      202D2049 
 634      6E76616C 
 634      69642064 
 635 24b9 000000   		.align	2
 636              	.LC179:
 637 24bc 424C4F57 		.ascii	"BLOWFISH - Blowfish hardware accelerator failed\000"
 637      46495348 
 637      202D2042 
 637      6C6F7766 
 637      69736820 
 638              		.align	2
 639              	.LC180:
 640 24ec 43414D45 		.ascii	"CAMELLIA - Bad input data\000"
 640      4C4C4941 
 640      202D2042 
 640      61642069 
 640      6E707574 
 641 2506 0000     		.align	2
 642              	.LC181:
 643 2508 43414D45 		.ascii	"CAMELLIA - Invalid data input length\000"
 643      4C4C4941 
 643      202D2049 
 643      6E76616C 
 643      69642064 
 644 252d 000000   		.align	2
 645              	.LC182:
 646 2530 43414D45 		.ascii	"CAMELLIA - Camellia hardware accelerator failed\000"
 646      4C4C4941 
 646      202D2043 
 646      616D656C 
 646      6C696120 
 647              		.align	2
 648              	.LC183:
 649 2560 43434D20 		.ascii	"CCM - Bad input parameters to the function\000"
 649      2D204261 
 649      6420696E 
 649      70757420 
 649      70617261 
 650 258b 00       		.align	2
 651              	.LC184:
 652 258c 43434D20 		.ascii	"CCM - Authenticated decryption failed\000"
 652      2D204175 
 652      7468656E 
 652      74696361 
 652      74656420 
 653 25b2 0000     		.align	2
 654              	.LC185:
 655 25b4 43434D20 		.ascii	"CCM - CCM hardware accelerator failed\000"
ARM GAS  C:\Users\dtjld\AppData\Local\Temp\ccjG0xZ1.s 			page 29


 655      2D204343 
 655      4D206861 
 655      72647761 
 655      72652061 
 656 25da 0000     		.align	2
 657              	.LC186:
 658 25dc 4354525F 		.ascii	"CTR_DRBG - The entropy source failed\000"
 658      44524247 
 658      202D2054 
 658      68652065 
 658      6E74726F 
 659 2601 000000   		.align	2
 660              	.LC187:
 661 2604 4354525F 		.ascii	"CTR_DRBG - The requested random buffer length is to"
 661      44524247 
 661      202D2054 
 661      68652072 
 661      65717565 
 662 2637 6F206269 		.ascii	"o big\000"
 662      6700
 663 263d 000000   		.align	2
 664              	.LC188:
 665 2640 4354525F 		.ascii	"CTR_DRBG - The input (entropy + additional data) is"
 665      44524247 
 665      202D2054 
 665      68652069 
 665      6E707574 
 666 2673 20746F6F 		.ascii	" too large\000"
 666      206C6172 
 666      676500
 667 267e 0000     		.align	2
 668              	.LC189:
 669 2680 4354525F 		.ascii	"CTR_DRBG - Read or write error in file\000"
 669      44524247 
 669      202D2052 
 669      65616420 
 669      6F722077 
 670 26a7 00       		.align	2
 671              	.LC190:
 672 26a8 44455320 		.ascii	"DES - The data input has an invalid length\000"
 672      2D205468 
 672      65206461 
 672      74612069 
 672      6E707574 
 673 26d3 00       		.align	2
 674              	.LC191:
 675 26d4 44455320 		.ascii	"DES - DES hardware accelerator failed\000"
 675      2D204445 
 675      53206861 
 675      72647761 
 675      72652061 
 676 26fa 0000     		.align	2
 677              	.LC192:
 678 26fc 454E5452 		.ascii	"ENTROPY - Critical entropy source failure\000"
 678      4F505920 
 678      2D204372 
 678      69746963 
ARM GAS  C:\Users\dtjld\AppData\Local\Temp\ccjG0xZ1.s 			page 30


 678      616C2065 
 679 2726 0000     		.align	2
 680              	.LC193:
 681 2728 454E5452 		.ascii	"ENTROPY - No more sources can be added\000"
 681      4F505920 
 681      2D204E6F 
 681      206D6F72 
 681      6520736F 
 682 274f 00       		.align	2
 683              	.LC194:
 684 2750 454E5452 		.ascii	"ENTROPY - No sources have been added to poll\000"
 684      4F505920 
 684      2D204E6F 
 684      20736F75 
 684      72636573 
 685 277d 000000   		.align	2
 686              	.LC195:
 687 2780 454E5452 		.ascii	"ENTROPY - No strong sources have been added to poll"
 687      4F505920 
 687      2D204E6F 
 687      20737472 
 687      6F6E6720 
 688 27b3 00       		.ascii	"\000"
 689              		.align	2
 690              	.LC196:
 691 27b4 454E5452 		.ascii	"ENTROPY - Read/write error in file\000"
 691      4F505920 
 691      2D205265 
 691      61642F77 
 691      72697465 
 692 27d7 00       		.align	2
 693              	.LC197:
 694 27d8 47434D20 		.ascii	"GCM - Authenticated decryption failed\000"
 694      2D204175 
 694      7468656E 
 694      74696361 
 694      74656420 
 695 27fe 0000     		.align	2
 696              	.LC198:
 697 2800 47434D20 		.ascii	"GCM - GCM hardware accelerator failed\000"
 697      2D204743 
 697      4D206861 
 697      72647761 
 697      72652061 
 698 2826 0000     		.align	2
 699              	.LC199:
 700 2828 47434D20 		.ascii	"GCM - Bad input parameters to function\000"
 700      2D204261 
 700      6420696E 
 700      70757420 
 700      70617261 
 701 284f 00       		.align	2
 702              	.LC200:
 703 2850 484D4143 		.ascii	"HMAC_DRBG - Too many random requested in single cal"
 703      5F445242 
 703      47202D20 
 703      546F6F20 
ARM GAS  C:\Users\dtjld\AppData\Local\Temp\ccjG0xZ1.s 			page 31


 703      6D616E79 
 704 2883 6C00     		.ascii	"l\000"
 705 2885 000000   		.align	2
 706              	.LC201:
 707 2888 484D4143 		.ascii	"HMAC_DRBG - Input too large (Entropy + additional)\000"
 707      5F445242 
 707      47202D20 
 707      496E7075 
 707      7420746F 
 708 28bb 00       		.align	2
 709              	.LC202:
 710 28bc 484D4143 		.ascii	"HMAC_DRBG - Read/write error in file\000"
 710      5F445242 
 710      47202D20 
 710      52656164 
 710      2F777269 
 711 28e1 000000   		.align	2
 712              	.LC203:
 713 28e4 484D4143 		.ascii	"HMAC_DRBG - The entropy source failed\000"
 713      5F445242 
 713      47202D20 
 713      54686520 
 713      656E7472 
 714 290a 0000     		.align	2
 715              	.LC204:
 716 290c 4D443520 		.ascii	"MD5 - MD5 hardware accelerator failed\000"
 716      2D204D44 
 716      35206861 
 716      72647761 
 716      72652061 
 717 2932 0000     		.align	2
 718              	.LC205:
 719 2934 4F494420 		.ascii	"OID - OID is not found\000"
 719      2D204F49 
 719      44206973 
 719      206E6F74 
 719      20666F75 
 720 294b 00       		.align	2
 721              	.LC206:
 722 294c 4F494420 		.ascii	"OID - output buffer is too small\000"
 722      2D206F75 
 722      74707574 
 722      20627566 
 722      66657220 
 723 296d 000000   		.align	2
 724              	.LC207:
 725 2970 504C4154 		.ascii	"PLATFORM - Hardware accelerator failed\000"
 725      464F524D 
 725      202D2048 
 725      61726477 
 725      61726520 
 726 2997 00       		.align	2
 727              	.LC208:
 728 2998 504C4154 		.ascii	"PLATFORM - The requested feature is not supported b"
 728      464F524D 
 728      202D2054 
 728      68652072 
ARM GAS  C:\Users\dtjld\AppData\Local\Temp\ccjG0xZ1.s 			page 32


 728      65717565 
 729 29cb 79207468 		.ascii	"y the platform\000"
 729      6520706C 
 729      6174666F 
 729      726D00
 730 29da 0000     		.align	2
 731              	.LC209:
 732 29dc 52495045 		.ascii	"RIPEMD160 - RIPEMD160 hardware accelerator failed\000"
 732      4D443136 
 732      30202D20 
 732      52495045 
 732      4D443136 
 733 2a0e 0000     		.align	2
 734              	.LC210:
 735 2a10 53484131 		.ascii	"SHA1 - SHA-1 hardware accelerator failed\000"
 735      202D2053 
 735      48412D31 
 735      20686172 
 735      64776172 
 736 2a39 000000   		.align	2
 737              	.LC211:
 738 2a3c 53484131 		.ascii	"SHA1 - SHA-1 input data was malformed\000"
 738      202D2053 
 738      48412D31 
 738      20696E70 
 738      75742064 
 739 2a62 0000     		.align	2
 740              	.LC212:
 741 2a64 53484132 		.ascii	"SHA256 - SHA-256 hardware accelerator failed\000"
 741      3536202D 
 741      20534841 
 741      2D323536 
 741      20686172 
 742 2a91 000000   		.align	2
 743              	.LC213:
 744 2a94 53484132 		.ascii	"SHA256 - SHA-256 input data was malformed\000"
 744      3536202D 
 744      20534841 
 744      2D323536 
 744      20696E70 
 745 2abe 0000     		.align	2
 746              	.LC214:
 747 2ac0 53484135 		.ascii	"SHA512 - SHA-512 hardware accelerator failed\000"
 747      3132202D 
 747      20534841 
 747      2D353132 
 747      20686172 
 748 2aed 000000   		.align	2
 749              	.LC215:
 750 2af0 53484135 		.ascii	"SHA512 - SHA-512 input data was malformed\000"
 750      3132202D 
 750      20534841 
 750      2D353132 
 750      20696E70 
 751 2b1a 0000     		.align	2
 752              	.LC216:
 753 2b1c 58544541 		.ascii	"XTEA - The data input has an invalid length\000"
ARM GAS  C:\Users\dtjld\AppData\Local\Temp\ccjG0xZ1.s 			page 33


 753      202D2054 
 753      68652064 
 753      61746120 
 753      696E7075 
 754              		.align	2
 755              	.LC217:
 756 2b48 58544541 		.ascii	"XTEA - XTEA hardware accelerator failed\000"
 756      202D2058 
 756      54454120 
 756      68617264 
 756      77617265 
 757              		.section	.text.mbedtls_strerror,"ax",%progbits
 758              		.align	1
 759              		.global	mbedtls_strerror
 760              		.syntax unified
 761              		.thumb
 762              		.thumb_func
 763              		.fpu fpv4-sp-d16
 765              	mbedtls_strerror:
 766              	.LFB20:
 767              		.file 1 "C:/Users/dtjld/workspace/AIoT/src/LiteOS_Lab/iot_link/network/dtls/mbedtls/mbedtls-2.16.2
   1:C:/Users/dtjld/workspace/AIoT/src/LiteOS_Lab/iot_link/network/dtls/mbedtls/mbedtls-2.16.2/library\error.c **** /*
   2:C:/Users/dtjld/workspace/AIoT/src/LiteOS_Lab/iot_link/network/dtls/mbedtls/mbedtls-2.16.2/library\error.c ****  *  Error message information
   3:C:/Users/dtjld/workspace/AIoT/src/LiteOS_Lab/iot_link/network/dtls/mbedtls/mbedtls-2.16.2/library\error.c ****  *
   4:C:/Users/dtjld/workspace/AIoT/src/LiteOS_Lab/iot_link/network/dtls/mbedtls/mbedtls-2.16.2/library\error.c ****  *  Copyright (C) 2006-2015, ARM Limited, All Rights Reserved
   5:C:/Users/dtjld/workspace/AIoT/src/LiteOS_Lab/iot_link/network/dtls/mbedtls/mbedtls-2.16.2/library\error.c ****  *  SPDX-License-Identifier: Apache-2.0
   6:C:/Users/dtjld/workspace/AIoT/src/LiteOS_Lab/iot_link/network/dtls/mbedtls/mbedtls-2.16.2/library\error.c ****  *
   7:C:/Users/dtjld/workspace/AIoT/src/LiteOS_Lab/iot_link/network/dtls/mbedtls/mbedtls-2.16.2/library\error.c ****  *  Licensed under the Apache License, Version 2.0 (the "License"); you may
   8:C:/Users/dtjld/workspace/AIoT/src/LiteOS_Lab/iot_link/network/dtls/mbedtls/mbedtls-2.16.2/library\error.c ****  *  not use this file except in compliance with the License.
   9:C:/Users/dtjld/workspace/AIoT/src/LiteOS_Lab/iot_link/network/dtls/mbedtls/mbedtls-2.16.2/library\error.c ****  *  You may obtain a copy of the License at
  10:C:/Users/dtjld/workspace/AIoT/src/LiteOS_Lab/iot_link/network/dtls/mbedtls/mbedtls-2.16.2/library\error.c ****  *
  11:C:/Users/dtjld/workspace/AIoT/src/LiteOS_Lab/iot_link/network/dtls/mbedtls/mbedtls-2.16.2/library\error.c ****  *  http://www.apache.org/licenses/LICENSE-2.0
  12:C:/Users/dtjld/workspace/AIoT/src/LiteOS_Lab/iot_link/network/dtls/mbedtls/mbedtls-2.16.2/library\error.c ****  *
  13:C:/Users/dtjld/workspace/AIoT/src/LiteOS_Lab/iot_link/network/dtls/mbedtls/mbedtls-2.16.2/library\error.c ****  *  Unless required by applicable law or agreed to in writing, software
  14:C:/Users/dtjld/workspace/AIoT/src/LiteOS_Lab/iot_link/network/dtls/mbedtls/mbedtls-2.16.2/library\error.c ****  *  distributed under the License is distributed on an "AS IS" BASIS, WITHOUT
  15:C:/Users/dtjld/workspace/AIoT/src/LiteOS_Lab/iot_link/network/dtls/mbedtls/mbedtls-2.16.2/library\error.c ****  *  WARRANTIES OR CONDITIONS OF ANY KIND, either express or implied.
  16:C:/Users/dtjld/workspace/AIoT/src/LiteOS_Lab/iot_link/network/dtls/mbedtls/mbedtls-2.16.2/library\error.c ****  *  See the License for the specific language governing permissions and
  17:C:/Users/dtjld/workspace/AIoT/src/LiteOS_Lab/iot_link/network/dtls/mbedtls/mbedtls-2.16.2/library\error.c ****  *  limitations under the License.
  18:C:/Users/dtjld/workspace/AIoT/src/LiteOS_Lab/iot_link/network/dtls/mbedtls/mbedtls-2.16.2/library\error.c ****  *
  19:C:/Users/dtjld/workspace/AIoT/src/LiteOS_Lab/iot_link/network/dtls/mbedtls/mbedtls-2.16.2/library\error.c ****  *  This file is part of mbed TLS (https://tls.mbed.org)
  20:C:/Users/dtjld/workspace/AIoT/src/LiteOS_Lab/iot_link/network/dtls/mbedtls/mbedtls-2.16.2/library\error.c ****  */
  21:C:/Users/dtjld/workspace/AIoT/src/LiteOS_Lab/iot_link/network/dtls/mbedtls/mbedtls-2.16.2/library\error.c **** 
  22:C:/Users/dtjld/workspace/AIoT/src/LiteOS_Lab/iot_link/network/dtls/mbedtls/mbedtls-2.16.2/library\error.c **** #if !defined(MBEDTLS_CONFIG_FILE)
  23:C:/Users/dtjld/workspace/AIoT/src/LiteOS_Lab/iot_link/network/dtls/mbedtls/mbedtls-2.16.2/library\error.c **** #include "mbedtls/config.h"
  24:C:/Users/dtjld/workspace/AIoT/src/LiteOS_Lab/iot_link/network/dtls/mbedtls/mbedtls-2.16.2/library\error.c **** #else
  25:C:/Users/dtjld/workspace/AIoT/src/LiteOS_Lab/iot_link/network/dtls/mbedtls/mbedtls-2.16.2/library\error.c **** #include MBEDTLS_CONFIG_FILE
  26:C:/Users/dtjld/workspace/AIoT/src/LiteOS_Lab/iot_link/network/dtls/mbedtls/mbedtls-2.16.2/library\error.c **** #endif
  27:C:/Users/dtjld/workspace/AIoT/src/LiteOS_Lab/iot_link/network/dtls/mbedtls/mbedtls-2.16.2/library\error.c **** 
  28:C:/Users/dtjld/workspace/AIoT/src/LiteOS_Lab/iot_link/network/dtls/mbedtls/mbedtls-2.16.2/library\error.c **** #if defined(MBEDTLS_ERROR_C) || defined(MBEDTLS_ERROR_STRERROR_DUMMY)
  29:C:/Users/dtjld/workspace/AIoT/src/LiteOS_Lab/iot_link/network/dtls/mbedtls/mbedtls-2.16.2/library\error.c **** #include "mbedtls/error.h"
  30:C:/Users/dtjld/workspace/AIoT/src/LiteOS_Lab/iot_link/network/dtls/mbedtls/mbedtls-2.16.2/library\error.c **** #include <string.h>
  31:C:/Users/dtjld/workspace/AIoT/src/LiteOS_Lab/iot_link/network/dtls/mbedtls/mbedtls-2.16.2/library\error.c **** #endif
  32:C:/Users/dtjld/workspace/AIoT/src/LiteOS_Lab/iot_link/network/dtls/mbedtls/mbedtls-2.16.2/library\error.c **** 
  33:C:/Users/dtjld/workspace/AIoT/src/LiteOS_Lab/iot_link/network/dtls/mbedtls/mbedtls-2.16.2/library\error.c **** #if defined(MBEDTLS_PLATFORM_C)
  34:C:/Users/dtjld/workspace/AIoT/src/LiteOS_Lab/iot_link/network/dtls/mbedtls/mbedtls-2.16.2/library\error.c **** #include "mbedtls/platform.h"
  35:C:/Users/dtjld/workspace/AIoT/src/LiteOS_Lab/iot_link/network/dtls/mbedtls/mbedtls-2.16.2/library\error.c **** #else
  36:C:/Users/dtjld/workspace/AIoT/src/LiteOS_Lab/iot_link/network/dtls/mbedtls/mbedtls-2.16.2/library\error.c **** #define mbedtls_snprintf snprintf
ARM GAS  C:\Users\dtjld\AppData\Local\Temp\ccjG0xZ1.s 			page 34


  37:C:/Users/dtjld/workspace/AIoT/src/LiteOS_Lab/iot_link/network/dtls/mbedtls/mbedtls-2.16.2/library\error.c **** #define mbedtls_time_t   time_t
  38:C:/Users/dtjld/workspace/AIoT/src/LiteOS_Lab/iot_link/network/dtls/mbedtls/mbedtls-2.16.2/library\error.c **** #endif
  39:C:/Users/dtjld/workspace/AIoT/src/LiteOS_Lab/iot_link/network/dtls/mbedtls/mbedtls-2.16.2/library\error.c **** 
  40:C:/Users/dtjld/workspace/AIoT/src/LiteOS_Lab/iot_link/network/dtls/mbedtls/mbedtls-2.16.2/library\error.c **** #if defined(MBEDTLS_ERROR_C)
  41:C:/Users/dtjld/workspace/AIoT/src/LiteOS_Lab/iot_link/network/dtls/mbedtls/mbedtls-2.16.2/library\error.c **** 
  42:C:/Users/dtjld/workspace/AIoT/src/LiteOS_Lab/iot_link/network/dtls/mbedtls/mbedtls-2.16.2/library\error.c **** #include <stdio.h>
  43:C:/Users/dtjld/workspace/AIoT/src/LiteOS_Lab/iot_link/network/dtls/mbedtls/mbedtls-2.16.2/library\error.c **** 
  44:C:/Users/dtjld/workspace/AIoT/src/LiteOS_Lab/iot_link/network/dtls/mbedtls/mbedtls-2.16.2/library\error.c **** #if defined(MBEDTLS_AES_C)
  45:C:/Users/dtjld/workspace/AIoT/src/LiteOS_Lab/iot_link/network/dtls/mbedtls/mbedtls-2.16.2/library\error.c **** #include "mbedtls/aes.h"
  46:C:/Users/dtjld/workspace/AIoT/src/LiteOS_Lab/iot_link/network/dtls/mbedtls/mbedtls-2.16.2/library\error.c **** #endif
  47:C:/Users/dtjld/workspace/AIoT/src/LiteOS_Lab/iot_link/network/dtls/mbedtls/mbedtls-2.16.2/library\error.c **** 
  48:C:/Users/dtjld/workspace/AIoT/src/LiteOS_Lab/iot_link/network/dtls/mbedtls/mbedtls-2.16.2/library\error.c **** #if defined(MBEDTLS_ARC4_C)
  49:C:/Users/dtjld/workspace/AIoT/src/LiteOS_Lab/iot_link/network/dtls/mbedtls/mbedtls-2.16.2/library\error.c **** #include "mbedtls/arc4.h"
  50:C:/Users/dtjld/workspace/AIoT/src/LiteOS_Lab/iot_link/network/dtls/mbedtls/mbedtls-2.16.2/library\error.c **** #endif
  51:C:/Users/dtjld/workspace/AIoT/src/LiteOS_Lab/iot_link/network/dtls/mbedtls/mbedtls-2.16.2/library\error.c **** 
  52:C:/Users/dtjld/workspace/AIoT/src/LiteOS_Lab/iot_link/network/dtls/mbedtls/mbedtls-2.16.2/library\error.c **** #if defined(MBEDTLS_ARIA_C)
  53:C:/Users/dtjld/workspace/AIoT/src/LiteOS_Lab/iot_link/network/dtls/mbedtls/mbedtls-2.16.2/library\error.c **** #include "mbedtls/aria.h"
  54:C:/Users/dtjld/workspace/AIoT/src/LiteOS_Lab/iot_link/network/dtls/mbedtls/mbedtls-2.16.2/library\error.c **** #endif
  55:C:/Users/dtjld/workspace/AIoT/src/LiteOS_Lab/iot_link/network/dtls/mbedtls/mbedtls-2.16.2/library\error.c **** 
  56:C:/Users/dtjld/workspace/AIoT/src/LiteOS_Lab/iot_link/network/dtls/mbedtls/mbedtls-2.16.2/library\error.c **** #if defined(MBEDTLS_BASE64_C)
  57:C:/Users/dtjld/workspace/AIoT/src/LiteOS_Lab/iot_link/network/dtls/mbedtls/mbedtls-2.16.2/library\error.c **** #include "mbedtls/base64.h"
  58:C:/Users/dtjld/workspace/AIoT/src/LiteOS_Lab/iot_link/network/dtls/mbedtls/mbedtls-2.16.2/library\error.c **** #endif
  59:C:/Users/dtjld/workspace/AIoT/src/LiteOS_Lab/iot_link/network/dtls/mbedtls/mbedtls-2.16.2/library\error.c **** 
  60:C:/Users/dtjld/workspace/AIoT/src/LiteOS_Lab/iot_link/network/dtls/mbedtls/mbedtls-2.16.2/library\error.c **** #if defined(MBEDTLS_BIGNUM_C)
  61:C:/Users/dtjld/workspace/AIoT/src/LiteOS_Lab/iot_link/network/dtls/mbedtls/mbedtls-2.16.2/library\error.c **** #include "mbedtls/bignum.h"
  62:C:/Users/dtjld/workspace/AIoT/src/LiteOS_Lab/iot_link/network/dtls/mbedtls/mbedtls-2.16.2/library\error.c **** #endif
  63:C:/Users/dtjld/workspace/AIoT/src/LiteOS_Lab/iot_link/network/dtls/mbedtls/mbedtls-2.16.2/library\error.c **** 
  64:C:/Users/dtjld/workspace/AIoT/src/LiteOS_Lab/iot_link/network/dtls/mbedtls/mbedtls-2.16.2/library\error.c **** #if defined(MBEDTLS_BLOWFISH_C)
  65:C:/Users/dtjld/workspace/AIoT/src/LiteOS_Lab/iot_link/network/dtls/mbedtls/mbedtls-2.16.2/library\error.c **** #include "mbedtls/blowfish.h"
  66:C:/Users/dtjld/workspace/AIoT/src/LiteOS_Lab/iot_link/network/dtls/mbedtls/mbedtls-2.16.2/library\error.c **** #endif
  67:C:/Users/dtjld/workspace/AIoT/src/LiteOS_Lab/iot_link/network/dtls/mbedtls/mbedtls-2.16.2/library\error.c **** 
  68:C:/Users/dtjld/workspace/AIoT/src/LiteOS_Lab/iot_link/network/dtls/mbedtls/mbedtls-2.16.2/library\error.c **** #if defined(MBEDTLS_CAMELLIA_C)
  69:C:/Users/dtjld/workspace/AIoT/src/LiteOS_Lab/iot_link/network/dtls/mbedtls/mbedtls-2.16.2/library\error.c **** #include "mbedtls/camellia.h"
  70:C:/Users/dtjld/workspace/AIoT/src/LiteOS_Lab/iot_link/network/dtls/mbedtls/mbedtls-2.16.2/library\error.c **** #endif
  71:C:/Users/dtjld/workspace/AIoT/src/LiteOS_Lab/iot_link/network/dtls/mbedtls/mbedtls-2.16.2/library\error.c **** 
  72:C:/Users/dtjld/workspace/AIoT/src/LiteOS_Lab/iot_link/network/dtls/mbedtls/mbedtls-2.16.2/library\error.c **** #if defined(MBEDTLS_CCM_C)
  73:C:/Users/dtjld/workspace/AIoT/src/LiteOS_Lab/iot_link/network/dtls/mbedtls/mbedtls-2.16.2/library\error.c **** #include "mbedtls/ccm.h"
  74:C:/Users/dtjld/workspace/AIoT/src/LiteOS_Lab/iot_link/network/dtls/mbedtls/mbedtls-2.16.2/library\error.c **** #endif
  75:C:/Users/dtjld/workspace/AIoT/src/LiteOS_Lab/iot_link/network/dtls/mbedtls/mbedtls-2.16.2/library\error.c **** 
  76:C:/Users/dtjld/workspace/AIoT/src/LiteOS_Lab/iot_link/network/dtls/mbedtls/mbedtls-2.16.2/library\error.c **** #if defined(MBEDTLS_CHACHA20_C)
  77:C:/Users/dtjld/workspace/AIoT/src/LiteOS_Lab/iot_link/network/dtls/mbedtls/mbedtls-2.16.2/library\error.c **** #include "mbedtls/chacha20.h"
  78:C:/Users/dtjld/workspace/AIoT/src/LiteOS_Lab/iot_link/network/dtls/mbedtls/mbedtls-2.16.2/library\error.c **** #endif
  79:C:/Users/dtjld/workspace/AIoT/src/LiteOS_Lab/iot_link/network/dtls/mbedtls/mbedtls-2.16.2/library\error.c **** 
  80:C:/Users/dtjld/workspace/AIoT/src/LiteOS_Lab/iot_link/network/dtls/mbedtls/mbedtls-2.16.2/library\error.c **** #if defined(MBEDTLS_CHACHAPOLY_C)
  81:C:/Users/dtjld/workspace/AIoT/src/LiteOS_Lab/iot_link/network/dtls/mbedtls/mbedtls-2.16.2/library\error.c **** #include "mbedtls/chachapoly.h"
  82:C:/Users/dtjld/workspace/AIoT/src/LiteOS_Lab/iot_link/network/dtls/mbedtls/mbedtls-2.16.2/library\error.c **** #endif
  83:C:/Users/dtjld/workspace/AIoT/src/LiteOS_Lab/iot_link/network/dtls/mbedtls/mbedtls-2.16.2/library\error.c **** 
  84:C:/Users/dtjld/workspace/AIoT/src/LiteOS_Lab/iot_link/network/dtls/mbedtls/mbedtls-2.16.2/library\error.c **** #if defined(MBEDTLS_CIPHER_C)
  85:C:/Users/dtjld/workspace/AIoT/src/LiteOS_Lab/iot_link/network/dtls/mbedtls/mbedtls-2.16.2/library\error.c **** #include "mbedtls/cipher.h"
  86:C:/Users/dtjld/workspace/AIoT/src/LiteOS_Lab/iot_link/network/dtls/mbedtls/mbedtls-2.16.2/library\error.c **** #endif
  87:C:/Users/dtjld/workspace/AIoT/src/LiteOS_Lab/iot_link/network/dtls/mbedtls/mbedtls-2.16.2/library\error.c **** 
  88:C:/Users/dtjld/workspace/AIoT/src/LiteOS_Lab/iot_link/network/dtls/mbedtls/mbedtls-2.16.2/library\error.c **** #if defined(MBEDTLS_CMAC_C)
  89:C:/Users/dtjld/workspace/AIoT/src/LiteOS_Lab/iot_link/network/dtls/mbedtls/mbedtls-2.16.2/library\error.c **** #include "mbedtls/cmac.h"
  90:C:/Users/dtjld/workspace/AIoT/src/LiteOS_Lab/iot_link/network/dtls/mbedtls/mbedtls-2.16.2/library\error.c **** #endif
  91:C:/Users/dtjld/workspace/AIoT/src/LiteOS_Lab/iot_link/network/dtls/mbedtls/mbedtls-2.16.2/library\error.c **** 
  92:C:/Users/dtjld/workspace/AIoT/src/LiteOS_Lab/iot_link/network/dtls/mbedtls/mbedtls-2.16.2/library\error.c **** #if defined(MBEDTLS_CTR_DRBG_C)
  93:C:/Users/dtjld/workspace/AIoT/src/LiteOS_Lab/iot_link/network/dtls/mbedtls/mbedtls-2.16.2/library\error.c **** #include "mbedtls/ctr_drbg.h"
ARM GAS  C:\Users\dtjld\AppData\Local\Temp\ccjG0xZ1.s 			page 35


  94:C:/Users/dtjld/workspace/AIoT/src/LiteOS_Lab/iot_link/network/dtls/mbedtls/mbedtls-2.16.2/library\error.c **** #endif
  95:C:/Users/dtjld/workspace/AIoT/src/LiteOS_Lab/iot_link/network/dtls/mbedtls/mbedtls-2.16.2/library\error.c **** 
  96:C:/Users/dtjld/workspace/AIoT/src/LiteOS_Lab/iot_link/network/dtls/mbedtls/mbedtls-2.16.2/library\error.c **** #if defined(MBEDTLS_DES_C)
  97:C:/Users/dtjld/workspace/AIoT/src/LiteOS_Lab/iot_link/network/dtls/mbedtls/mbedtls-2.16.2/library\error.c **** #include "mbedtls/des.h"
  98:C:/Users/dtjld/workspace/AIoT/src/LiteOS_Lab/iot_link/network/dtls/mbedtls/mbedtls-2.16.2/library\error.c **** #endif
  99:C:/Users/dtjld/workspace/AIoT/src/LiteOS_Lab/iot_link/network/dtls/mbedtls/mbedtls-2.16.2/library\error.c **** 
 100:C:/Users/dtjld/workspace/AIoT/src/LiteOS_Lab/iot_link/network/dtls/mbedtls/mbedtls-2.16.2/library\error.c **** #if defined(MBEDTLS_DHM_C)
 101:C:/Users/dtjld/workspace/AIoT/src/LiteOS_Lab/iot_link/network/dtls/mbedtls/mbedtls-2.16.2/library\error.c **** #include "mbedtls/dhm.h"
 102:C:/Users/dtjld/workspace/AIoT/src/LiteOS_Lab/iot_link/network/dtls/mbedtls/mbedtls-2.16.2/library\error.c **** #endif
 103:C:/Users/dtjld/workspace/AIoT/src/LiteOS_Lab/iot_link/network/dtls/mbedtls/mbedtls-2.16.2/library\error.c **** 
 104:C:/Users/dtjld/workspace/AIoT/src/LiteOS_Lab/iot_link/network/dtls/mbedtls/mbedtls-2.16.2/library\error.c **** #if defined(MBEDTLS_ECP_C)
 105:C:/Users/dtjld/workspace/AIoT/src/LiteOS_Lab/iot_link/network/dtls/mbedtls/mbedtls-2.16.2/library\error.c **** #include "mbedtls/ecp.h"
 106:C:/Users/dtjld/workspace/AIoT/src/LiteOS_Lab/iot_link/network/dtls/mbedtls/mbedtls-2.16.2/library\error.c **** #endif
 107:C:/Users/dtjld/workspace/AIoT/src/LiteOS_Lab/iot_link/network/dtls/mbedtls/mbedtls-2.16.2/library\error.c **** 
 108:C:/Users/dtjld/workspace/AIoT/src/LiteOS_Lab/iot_link/network/dtls/mbedtls/mbedtls-2.16.2/library\error.c **** #if defined(MBEDTLS_ENTROPY_C)
 109:C:/Users/dtjld/workspace/AIoT/src/LiteOS_Lab/iot_link/network/dtls/mbedtls/mbedtls-2.16.2/library\error.c **** #include "mbedtls/entropy.h"
 110:C:/Users/dtjld/workspace/AIoT/src/LiteOS_Lab/iot_link/network/dtls/mbedtls/mbedtls-2.16.2/library\error.c **** #endif
 111:C:/Users/dtjld/workspace/AIoT/src/LiteOS_Lab/iot_link/network/dtls/mbedtls/mbedtls-2.16.2/library\error.c **** 
 112:C:/Users/dtjld/workspace/AIoT/src/LiteOS_Lab/iot_link/network/dtls/mbedtls/mbedtls-2.16.2/library\error.c **** #if defined(MBEDTLS_GCM_C)
 113:C:/Users/dtjld/workspace/AIoT/src/LiteOS_Lab/iot_link/network/dtls/mbedtls/mbedtls-2.16.2/library\error.c **** #include "mbedtls/gcm.h"
 114:C:/Users/dtjld/workspace/AIoT/src/LiteOS_Lab/iot_link/network/dtls/mbedtls/mbedtls-2.16.2/library\error.c **** #endif
 115:C:/Users/dtjld/workspace/AIoT/src/LiteOS_Lab/iot_link/network/dtls/mbedtls/mbedtls-2.16.2/library\error.c **** 
 116:C:/Users/dtjld/workspace/AIoT/src/LiteOS_Lab/iot_link/network/dtls/mbedtls/mbedtls-2.16.2/library\error.c **** #if defined(MBEDTLS_HKDF_C)
 117:C:/Users/dtjld/workspace/AIoT/src/LiteOS_Lab/iot_link/network/dtls/mbedtls/mbedtls-2.16.2/library\error.c **** #include "mbedtls/hkdf.h"
 118:C:/Users/dtjld/workspace/AIoT/src/LiteOS_Lab/iot_link/network/dtls/mbedtls/mbedtls-2.16.2/library\error.c **** #endif
 119:C:/Users/dtjld/workspace/AIoT/src/LiteOS_Lab/iot_link/network/dtls/mbedtls/mbedtls-2.16.2/library\error.c **** 
 120:C:/Users/dtjld/workspace/AIoT/src/LiteOS_Lab/iot_link/network/dtls/mbedtls/mbedtls-2.16.2/library\error.c **** #if defined(MBEDTLS_HMAC_DRBG_C)
 121:C:/Users/dtjld/workspace/AIoT/src/LiteOS_Lab/iot_link/network/dtls/mbedtls/mbedtls-2.16.2/library\error.c **** #include "mbedtls/hmac_drbg.h"
 122:C:/Users/dtjld/workspace/AIoT/src/LiteOS_Lab/iot_link/network/dtls/mbedtls/mbedtls-2.16.2/library\error.c **** #endif
 123:C:/Users/dtjld/workspace/AIoT/src/LiteOS_Lab/iot_link/network/dtls/mbedtls/mbedtls-2.16.2/library\error.c **** 
 124:C:/Users/dtjld/workspace/AIoT/src/LiteOS_Lab/iot_link/network/dtls/mbedtls/mbedtls-2.16.2/library\error.c **** #if defined(MBEDTLS_MD_C)
 125:C:/Users/dtjld/workspace/AIoT/src/LiteOS_Lab/iot_link/network/dtls/mbedtls/mbedtls-2.16.2/library\error.c **** #include "mbedtls/md.h"
 126:C:/Users/dtjld/workspace/AIoT/src/LiteOS_Lab/iot_link/network/dtls/mbedtls/mbedtls-2.16.2/library\error.c **** #endif
 127:C:/Users/dtjld/workspace/AIoT/src/LiteOS_Lab/iot_link/network/dtls/mbedtls/mbedtls-2.16.2/library\error.c **** 
 128:C:/Users/dtjld/workspace/AIoT/src/LiteOS_Lab/iot_link/network/dtls/mbedtls/mbedtls-2.16.2/library\error.c **** #if defined(MBEDTLS_MD2_C)
 129:C:/Users/dtjld/workspace/AIoT/src/LiteOS_Lab/iot_link/network/dtls/mbedtls/mbedtls-2.16.2/library\error.c **** #include "mbedtls/md2.h"
 130:C:/Users/dtjld/workspace/AIoT/src/LiteOS_Lab/iot_link/network/dtls/mbedtls/mbedtls-2.16.2/library\error.c **** #endif
 131:C:/Users/dtjld/workspace/AIoT/src/LiteOS_Lab/iot_link/network/dtls/mbedtls/mbedtls-2.16.2/library\error.c **** 
 132:C:/Users/dtjld/workspace/AIoT/src/LiteOS_Lab/iot_link/network/dtls/mbedtls/mbedtls-2.16.2/library\error.c **** #if defined(MBEDTLS_MD4_C)
 133:C:/Users/dtjld/workspace/AIoT/src/LiteOS_Lab/iot_link/network/dtls/mbedtls/mbedtls-2.16.2/library\error.c **** #include "mbedtls/md4.h"
 134:C:/Users/dtjld/workspace/AIoT/src/LiteOS_Lab/iot_link/network/dtls/mbedtls/mbedtls-2.16.2/library\error.c **** #endif
 135:C:/Users/dtjld/workspace/AIoT/src/LiteOS_Lab/iot_link/network/dtls/mbedtls/mbedtls-2.16.2/library\error.c **** 
 136:C:/Users/dtjld/workspace/AIoT/src/LiteOS_Lab/iot_link/network/dtls/mbedtls/mbedtls-2.16.2/library\error.c **** #if defined(MBEDTLS_MD5_C)
 137:C:/Users/dtjld/workspace/AIoT/src/LiteOS_Lab/iot_link/network/dtls/mbedtls/mbedtls-2.16.2/library\error.c **** #include "mbedtls/md5.h"
 138:C:/Users/dtjld/workspace/AIoT/src/LiteOS_Lab/iot_link/network/dtls/mbedtls/mbedtls-2.16.2/library\error.c **** #endif
 139:C:/Users/dtjld/workspace/AIoT/src/LiteOS_Lab/iot_link/network/dtls/mbedtls/mbedtls-2.16.2/library\error.c **** 
 140:C:/Users/dtjld/workspace/AIoT/src/LiteOS_Lab/iot_link/network/dtls/mbedtls/mbedtls-2.16.2/library\error.c **** #if defined(MBEDTLS_NET_C)
 141:C:/Users/dtjld/workspace/AIoT/src/LiteOS_Lab/iot_link/network/dtls/mbedtls/mbedtls-2.16.2/library\error.c **** #include "mbedtls/net_sockets.h"
 142:C:/Users/dtjld/workspace/AIoT/src/LiteOS_Lab/iot_link/network/dtls/mbedtls/mbedtls-2.16.2/library\error.c **** #endif
 143:C:/Users/dtjld/workspace/AIoT/src/LiteOS_Lab/iot_link/network/dtls/mbedtls/mbedtls-2.16.2/library\error.c **** 
 144:C:/Users/dtjld/workspace/AIoT/src/LiteOS_Lab/iot_link/network/dtls/mbedtls/mbedtls-2.16.2/library\error.c **** #if defined(MBEDTLS_OID_C)
 145:C:/Users/dtjld/workspace/AIoT/src/LiteOS_Lab/iot_link/network/dtls/mbedtls/mbedtls-2.16.2/library\error.c **** #include "mbedtls/oid.h"
 146:C:/Users/dtjld/workspace/AIoT/src/LiteOS_Lab/iot_link/network/dtls/mbedtls/mbedtls-2.16.2/library\error.c **** #endif
 147:C:/Users/dtjld/workspace/AIoT/src/LiteOS_Lab/iot_link/network/dtls/mbedtls/mbedtls-2.16.2/library\error.c **** 
 148:C:/Users/dtjld/workspace/AIoT/src/LiteOS_Lab/iot_link/network/dtls/mbedtls/mbedtls-2.16.2/library\error.c **** #if defined(MBEDTLS_PADLOCK_C)
 149:C:/Users/dtjld/workspace/AIoT/src/LiteOS_Lab/iot_link/network/dtls/mbedtls/mbedtls-2.16.2/library\error.c **** #include "mbedtls/padlock.h"
 150:C:/Users/dtjld/workspace/AIoT/src/LiteOS_Lab/iot_link/network/dtls/mbedtls/mbedtls-2.16.2/library\error.c **** #endif
ARM GAS  C:\Users\dtjld\AppData\Local\Temp\ccjG0xZ1.s 			page 36


 151:C:/Users/dtjld/workspace/AIoT/src/LiteOS_Lab/iot_link/network/dtls/mbedtls/mbedtls-2.16.2/library\error.c **** 
 152:C:/Users/dtjld/workspace/AIoT/src/LiteOS_Lab/iot_link/network/dtls/mbedtls/mbedtls-2.16.2/library\error.c **** #if defined(MBEDTLS_PEM_PARSE_C) || defined(MBEDTLS_PEM_WRITE_C)
 153:C:/Users/dtjld/workspace/AIoT/src/LiteOS_Lab/iot_link/network/dtls/mbedtls/mbedtls-2.16.2/library\error.c **** #include "mbedtls/pem.h"
 154:C:/Users/dtjld/workspace/AIoT/src/LiteOS_Lab/iot_link/network/dtls/mbedtls/mbedtls-2.16.2/library\error.c **** #endif
 155:C:/Users/dtjld/workspace/AIoT/src/LiteOS_Lab/iot_link/network/dtls/mbedtls/mbedtls-2.16.2/library\error.c **** 
 156:C:/Users/dtjld/workspace/AIoT/src/LiteOS_Lab/iot_link/network/dtls/mbedtls/mbedtls-2.16.2/library\error.c **** #if defined(MBEDTLS_PK_C)
 157:C:/Users/dtjld/workspace/AIoT/src/LiteOS_Lab/iot_link/network/dtls/mbedtls/mbedtls-2.16.2/library\error.c **** #include "mbedtls/pk.h"
 158:C:/Users/dtjld/workspace/AIoT/src/LiteOS_Lab/iot_link/network/dtls/mbedtls/mbedtls-2.16.2/library\error.c **** #endif
 159:C:/Users/dtjld/workspace/AIoT/src/LiteOS_Lab/iot_link/network/dtls/mbedtls/mbedtls-2.16.2/library\error.c **** 
 160:C:/Users/dtjld/workspace/AIoT/src/LiteOS_Lab/iot_link/network/dtls/mbedtls/mbedtls-2.16.2/library\error.c **** #if defined(MBEDTLS_PKCS12_C)
 161:C:/Users/dtjld/workspace/AIoT/src/LiteOS_Lab/iot_link/network/dtls/mbedtls/mbedtls-2.16.2/library\error.c **** #include "mbedtls/pkcs12.h"
 162:C:/Users/dtjld/workspace/AIoT/src/LiteOS_Lab/iot_link/network/dtls/mbedtls/mbedtls-2.16.2/library\error.c **** #endif
 163:C:/Users/dtjld/workspace/AIoT/src/LiteOS_Lab/iot_link/network/dtls/mbedtls/mbedtls-2.16.2/library\error.c **** 
 164:C:/Users/dtjld/workspace/AIoT/src/LiteOS_Lab/iot_link/network/dtls/mbedtls/mbedtls-2.16.2/library\error.c **** #if defined(MBEDTLS_PKCS5_C)
 165:C:/Users/dtjld/workspace/AIoT/src/LiteOS_Lab/iot_link/network/dtls/mbedtls/mbedtls-2.16.2/library\error.c **** #include "mbedtls/pkcs5.h"
 166:C:/Users/dtjld/workspace/AIoT/src/LiteOS_Lab/iot_link/network/dtls/mbedtls/mbedtls-2.16.2/library\error.c **** #endif
 167:C:/Users/dtjld/workspace/AIoT/src/LiteOS_Lab/iot_link/network/dtls/mbedtls/mbedtls-2.16.2/library\error.c **** 
 168:C:/Users/dtjld/workspace/AIoT/src/LiteOS_Lab/iot_link/network/dtls/mbedtls/mbedtls-2.16.2/library\error.c **** #if defined(MBEDTLS_PLATFORM_C)
 169:C:/Users/dtjld/workspace/AIoT/src/LiteOS_Lab/iot_link/network/dtls/mbedtls/mbedtls-2.16.2/library\error.c **** #include "mbedtls/platform.h"
 170:C:/Users/dtjld/workspace/AIoT/src/LiteOS_Lab/iot_link/network/dtls/mbedtls/mbedtls-2.16.2/library\error.c **** #endif
 171:C:/Users/dtjld/workspace/AIoT/src/LiteOS_Lab/iot_link/network/dtls/mbedtls/mbedtls-2.16.2/library\error.c **** 
 172:C:/Users/dtjld/workspace/AIoT/src/LiteOS_Lab/iot_link/network/dtls/mbedtls/mbedtls-2.16.2/library\error.c **** #if defined(MBEDTLS_POLY1305_C)
 173:C:/Users/dtjld/workspace/AIoT/src/LiteOS_Lab/iot_link/network/dtls/mbedtls/mbedtls-2.16.2/library\error.c **** #include "mbedtls/poly1305.h"
 174:C:/Users/dtjld/workspace/AIoT/src/LiteOS_Lab/iot_link/network/dtls/mbedtls/mbedtls-2.16.2/library\error.c **** #endif
 175:C:/Users/dtjld/workspace/AIoT/src/LiteOS_Lab/iot_link/network/dtls/mbedtls/mbedtls-2.16.2/library\error.c **** 
 176:C:/Users/dtjld/workspace/AIoT/src/LiteOS_Lab/iot_link/network/dtls/mbedtls/mbedtls-2.16.2/library\error.c **** #if defined(MBEDTLS_RIPEMD160_C)
 177:C:/Users/dtjld/workspace/AIoT/src/LiteOS_Lab/iot_link/network/dtls/mbedtls/mbedtls-2.16.2/library\error.c **** #include "mbedtls/ripemd160.h"
 178:C:/Users/dtjld/workspace/AIoT/src/LiteOS_Lab/iot_link/network/dtls/mbedtls/mbedtls-2.16.2/library\error.c **** #endif
 179:C:/Users/dtjld/workspace/AIoT/src/LiteOS_Lab/iot_link/network/dtls/mbedtls/mbedtls-2.16.2/library\error.c **** 
 180:C:/Users/dtjld/workspace/AIoT/src/LiteOS_Lab/iot_link/network/dtls/mbedtls/mbedtls-2.16.2/library\error.c **** #if defined(MBEDTLS_RSA_C)
 181:C:/Users/dtjld/workspace/AIoT/src/LiteOS_Lab/iot_link/network/dtls/mbedtls/mbedtls-2.16.2/library\error.c **** #include "mbedtls/rsa.h"
 182:C:/Users/dtjld/workspace/AIoT/src/LiteOS_Lab/iot_link/network/dtls/mbedtls/mbedtls-2.16.2/library\error.c **** #endif
 183:C:/Users/dtjld/workspace/AIoT/src/LiteOS_Lab/iot_link/network/dtls/mbedtls/mbedtls-2.16.2/library\error.c **** 
 184:C:/Users/dtjld/workspace/AIoT/src/LiteOS_Lab/iot_link/network/dtls/mbedtls/mbedtls-2.16.2/library\error.c **** #if defined(MBEDTLS_SHA1_C)
 185:C:/Users/dtjld/workspace/AIoT/src/LiteOS_Lab/iot_link/network/dtls/mbedtls/mbedtls-2.16.2/library\error.c **** #include "mbedtls/sha1.h"
 186:C:/Users/dtjld/workspace/AIoT/src/LiteOS_Lab/iot_link/network/dtls/mbedtls/mbedtls-2.16.2/library\error.c **** #endif
 187:C:/Users/dtjld/workspace/AIoT/src/LiteOS_Lab/iot_link/network/dtls/mbedtls/mbedtls-2.16.2/library\error.c **** 
 188:C:/Users/dtjld/workspace/AIoT/src/LiteOS_Lab/iot_link/network/dtls/mbedtls/mbedtls-2.16.2/library\error.c **** #if defined(MBEDTLS_SHA256_C)
 189:C:/Users/dtjld/workspace/AIoT/src/LiteOS_Lab/iot_link/network/dtls/mbedtls/mbedtls-2.16.2/library\error.c **** #include "mbedtls/sha256.h"
 190:C:/Users/dtjld/workspace/AIoT/src/LiteOS_Lab/iot_link/network/dtls/mbedtls/mbedtls-2.16.2/library\error.c **** #endif
 191:C:/Users/dtjld/workspace/AIoT/src/LiteOS_Lab/iot_link/network/dtls/mbedtls/mbedtls-2.16.2/library\error.c **** 
 192:C:/Users/dtjld/workspace/AIoT/src/LiteOS_Lab/iot_link/network/dtls/mbedtls/mbedtls-2.16.2/library\error.c **** #if defined(MBEDTLS_SHA512_C)
 193:C:/Users/dtjld/workspace/AIoT/src/LiteOS_Lab/iot_link/network/dtls/mbedtls/mbedtls-2.16.2/library\error.c **** #include "mbedtls/sha512.h"
 194:C:/Users/dtjld/workspace/AIoT/src/LiteOS_Lab/iot_link/network/dtls/mbedtls/mbedtls-2.16.2/library\error.c **** #endif
 195:C:/Users/dtjld/workspace/AIoT/src/LiteOS_Lab/iot_link/network/dtls/mbedtls/mbedtls-2.16.2/library\error.c **** 
 196:C:/Users/dtjld/workspace/AIoT/src/LiteOS_Lab/iot_link/network/dtls/mbedtls/mbedtls-2.16.2/library\error.c **** #if defined(MBEDTLS_SSL_TLS_C)
 197:C:/Users/dtjld/workspace/AIoT/src/LiteOS_Lab/iot_link/network/dtls/mbedtls/mbedtls-2.16.2/library\error.c **** #include "mbedtls/ssl.h"
 198:C:/Users/dtjld/workspace/AIoT/src/LiteOS_Lab/iot_link/network/dtls/mbedtls/mbedtls-2.16.2/library\error.c **** #endif
 199:C:/Users/dtjld/workspace/AIoT/src/LiteOS_Lab/iot_link/network/dtls/mbedtls/mbedtls-2.16.2/library\error.c **** 
 200:C:/Users/dtjld/workspace/AIoT/src/LiteOS_Lab/iot_link/network/dtls/mbedtls/mbedtls-2.16.2/library\error.c **** #if defined(MBEDTLS_THREADING_C)
 201:C:/Users/dtjld/workspace/AIoT/src/LiteOS_Lab/iot_link/network/dtls/mbedtls/mbedtls-2.16.2/library\error.c **** #include "mbedtls/threading.h"
 202:C:/Users/dtjld/workspace/AIoT/src/LiteOS_Lab/iot_link/network/dtls/mbedtls/mbedtls-2.16.2/library\error.c **** #endif
 203:C:/Users/dtjld/workspace/AIoT/src/LiteOS_Lab/iot_link/network/dtls/mbedtls/mbedtls-2.16.2/library\error.c **** 
 204:C:/Users/dtjld/workspace/AIoT/src/LiteOS_Lab/iot_link/network/dtls/mbedtls/mbedtls-2.16.2/library\error.c **** #if defined(MBEDTLS_X509_USE_C) || defined(MBEDTLS_X509_CREATE_C)
 205:C:/Users/dtjld/workspace/AIoT/src/LiteOS_Lab/iot_link/network/dtls/mbedtls/mbedtls-2.16.2/library\error.c **** #include "mbedtls/x509.h"
 206:C:/Users/dtjld/workspace/AIoT/src/LiteOS_Lab/iot_link/network/dtls/mbedtls/mbedtls-2.16.2/library\error.c **** #endif
 207:C:/Users/dtjld/workspace/AIoT/src/LiteOS_Lab/iot_link/network/dtls/mbedtls/mbedtls-2.16.2/library\error.c **** 
ARM GAS  C:\Users\dtjld\AppData\Local\Temp\ccjG0xZ1.s 			page 37


 208:C:/Users/dtjld/workspace/AIoT/src/LiteOS_Lab/iot_link/network/dtls/mbedtls/mbedtls-2.16.2/library\error.c **** #if defined(MBEDTLS_XTEA_C)
 209:C:/Users/dtjld/workspace/AIoT/src/LiteOS_Lab/iot_link/network/dtls/mbedtls/mbedtls-2.16.2/library\error.c **** #include "mbedtls/xtea.h"
 210:C:/Users/dtjld/workspace/AIoT/src/LiteOS_Lab/iot_link/network/dtls/mbedtls/mbedtls-2.16.2/library\error.c **** #endif
 211:C:/Users/dtjld/workspace/AIoT/src/LiteOS_Lab/iot_link/network/dtls/mbedtls/mbedtls-2.16.2/library\error.c **** 
 212:C:/Users/dtjld/workspace/AIoT/src/LiteOS_Lab/iot_link/network/dtls/mbedtls/mbedtls-2.16.2/library\error.c **** 
 213:C:/Users/dtjld/workspace/AIoT/src/LiteOS_Lab/iot_link/network/dtls/mbedtls/mbedtls-2.16.2/library\error.c **** void mbedtls_strerror( int ret, char *buf, size_t buflen )
 214:C:/Users/dtjld/workspace/AIoT/src/LiteOS_Lab/iot_link/network/dtls/mbedtls/mbedtls-2.16.2/library\error.c **** {
 768              		.loc 1 214 0
 769              		.cfi_startproc
 770              		@ args = 0, pretend = 0, frame = 24
 771              		@ frame_needed = 1, uses_anonymous_args = 0
 772 0000 90B5     		push	{r4, r7, lr}
 773              	.LCFI0:
 774              		.cfi_def_cfa_offset 12
 775              		.cfi_offset 4, -12
 776              		.cfi_offset 7, -8
 777              		.cfi_offset 14, -4
 778 0002 87B0     		sub	sp, sp, #28
 779              	.LCFI1:
 780              		.cfi_def_cfa_offset 40
 781 0004 00AF     		add	r7, sp, #0
 782              	.LCFI2:
 783              		.cfi_def_cfa_register 7
 784 0006 F860     		str	r0, [r7, #12]
 785 0008 B960     		str	r1, [r7, #8]
 786 000a 7A60     		str	r2, [r7, #4]
 215:C:/Users/dtjld/workspace/AIoT/src/LiteOS_Lab/iot_link/network/dtls/mbedtls/mbedtls-2.16.2/library\error.c ****     size_t len;
 216:C:/Users/dtjld/workspace/AIoT/src/LiteOS_Lab/iot_link/network/dtls/mbedtls/mbedtls-2.16.2/library\error.c ****     int use_ret;
 217:C:/Users/dtjld/workspace/AIoT/src/LiteOS_Lab/iot_link/network/dtls/mbedtls/mbedtls-2.16.2/library\error.c **** 
 218:C:/Users/dtjld/workspace/AIoT/src/LiteOS_Lab/iot_link/network/dtls/mbedtls/mbedtls-2.16.2/library\error.c ****     if( buflen == 0 )
 787              		.loc 1 218 0
 788 000c 7B68     		ldr	r3, [r7, #4]
 789 000e 002B     		cmp	r3, #0
 790 0010 01F04282 		beq	.L226
 219:C:/Users/dtjld/workspace/AIoT/src/LiteOS_Lab/iot_link/network/dtls/mbedtls/mbedtls-2.16.2/library\error.c ****         return;
 220:C:/Users/dtjld/workspace/AIoT/src/LiteOS_Lab/iot_link/network/dtls/mbedtls/mbedtls-2.16.2/library\error.c **** 
 221:C:/Users/dtjld/workspace/AIoT/src/LiteOS_Lab/iot_link/network/dtls/mbedtls/mbedtls-2.16.2/library\error.c ****     memset( buf, 0x00, buflen );
 791              		.loc 1 221 0
 792 0014 7A68     		ldr	r2, [r7, #4]
 793 0016 0021     		movs	r1, #0
 794 0018 B868     		ldr	r0, [r7, #8]
 795 001a FFF7FEFF 		bl	memset
 222:C:/Users/dtjld/workspace/AIoT/src/LiteOS_Lab/iot_link/network/dtls/mbedtls/mbedtls-2.16.2/library\error.c **** 
 223:C:/Users/dtjld/workspace/AIoT/src/LiteOS_Lab/iot_link/network/dtls/mbedtls/mbedtls-2.16.2/library\error.c ****     if( ret < 0 )
 796              		.loc 1 223 0
 797 001e FB68     		ldr	r3, [r7, #12]
 798 0020 002B     		cmp	r3, #0
 799 0022 02DA     		bge	.L4
 224:C:/Users/dtjld/workspace/AIoT/src/LiteOS_Lab/iot_link/network/dtls/mbedtls/mbedtls-2.16.2/library\error.c ****         ret = -ret;
 800              		.loc 1 224 0
 801 0024 FB68     		ldr	r3, [r7, #12]
 802 0026 5B42     		negs	r3, r3
 803 0028 FB60     		str	r3, [r7, #12]
 804              	.L4:
 225:C:/Users/dtjld/workspace/AIoT/src/LiteOS_Lab/iot_link/network/dtls/mbedtls/mbedtls-2.16.2/library\error.c **** 
 226:C:/Users/dtjld/workspace/AIoT/src/LiteOS_Lab/iot_link/network/dtls/mbedtls/mbedtls-2.16.2/library\error.c ****     if( ret & 0xFF80 )
 805              		.loc 1 226 0
ARM GAS  C:\Users\dtjld\AppData\Local\Temp\ccjG0xZ1.s 			page 38


 806 002a FA68     		ldr	r2, [r7, #12]
 807 002c 4FF68073 		movw	r3, #65408
 808 0030 1340     		ands	r3, r3, r2
 809 0032 002B     		cmp	r3, #0
 810 0034 00F04187 		beq	.L5
 227:C:/Users/dtjld/workspace/AIoT/src/LiteOS_Lab/iot_link/network/dtls/mbedtls/mbedtls-2.16.2/library\error.c ****     {
 228:C:/Users/dtjld/workspace/AIoT/src/LiteOS_Lab/iot_link/network/dtls/mbedtls/mbedtls-2.16.2/library\error.c ****         use_ret = ret & 0xFF80;
 811              		.loc 1 228 0
 812 0038 FA68     		ldr	r2, [r7, #12]
 813 003a 4FF68073 		movw	r3, #65408
 814 003e 1340     		ands	r3, r3, r2
 815 0040 7B61     		str	r3, [r7, #20]
 229:C:/Users/dtjld/workspace/AIoT/src/LiteOS_Lab/iot_link/network/dtls/mbedtls/mbedtls-2.16.2/library\error.c **** 
 230:C:/Users/dtjld/workspace/AIoT/src/LiteOS_Lab/iot_link/network/dtls/mbedtls/mbedtls-2.16.2/library\error.c ****         // High level error codes
 231:C:/Users/dtjld/workspace/AIoT/src/LiteOS_Lab/iot_link/network/dtls/mbedtls/mbedtls-2.16.2/library\error.c ****         //
 232:C:/Users/dtjld/workspace/AIoT/src/LiteOS_Lab/iot_link/network/dtls/mbedtls/mbedtls-2.16.2/library\error.c ****         // BEGIN generated code
 233:C:/Users/dtjld/workspace/AIoT/src/LiteOS_Lab/iot_link/network/dtls/mbedtls/mbedtls-2.16.2/library\error.c **** #if defined(MBEDTLS_CIPHER_C)
 234:C:/Users/dtjld/workspace/AIoT/src/LiteOS_Lab/iot_link/network/dtls/mbedtls/mbedtls-2.16.2/library\error.c ****         if( use_ret == -(MBEDTLS_ERR_CIPHER_FEATURE_UNAVAILABLE) )
 816              		.loc 1 234 0
 817 0042 7B69     		ldr	r3, [r7, #20]
 818 0044 B3F5C14F 		cmp	r3, #24704
 819 0048 05D1     		bne	.L6
 235:C:/Users/dtjld/workspace/AIoT/src/LiteOS_Lab/iot_link/network/dtls/mbedtls/mbedtls-2.16.2/library\error.c ****             mbedtls_snprintf( buf, buflen, "CIPHER - The selected feature is not available" );
 820              		.loc 1 235 0
 821 004a 8D4B     		ldr	r3, .L230
 822 004c 1B68     		ldr	r3, [r3]
 823 004e 8D4A     		ldr	r2, .L230+4
 824 0050 7968     		ldr	r1, [r7, #4]
 825 0052 B868     		ldr	r0, [r7, #8]
 826 0054 9847     		blx	r3
 827              	.LVL0:
 828              	.L6:
 236:C:/Users/dtjld/workspace/AIoT/src/LiteOS_Lab/iot_link/network/dtls/mbedtls/mbedtls-2.16.2/library\error.c ****         if( use_ret == -(MBEDTLS_ERR_CIPHER_BAD_INPUT_DATA) )
 829              		.loc 1 236 0
 830 0056 7B69     		ldr	r3, [r7, #20]
 831 0058 B3F5C24F 		cmp	r3, #24832
 832 005c 05D1     		bne	.L7
 237:C:/Users/dtjld/workspace/AIoT/src/LiteOS_Lab/iot_link/network/dtls/mbedtls/mbedtls-2.16.2/library\error.c ****             mbedtls_snprintf( buf, buflen, "CIPHER - Bad input parameters" );
 833              		.loc 1 237 0
 834 005e 884B     		ldr	r3, .L230
 835 0060 1B68     		ldr	r3, [r3]
 836 0062 894A     		ldr	r2, .L230+8
 837 0064 7968     		ldr	r1, [r7, #4]
 838 0066 B868     		ldr	r0, [r7, #8]
 839 0068 9847     		blx	r3
 840              	.LVL1:
 841              	.L7:
 238:C:/Users/dtjld/workspace/AIoT/src/LiteOS_Lab/iot_link/network/dtls/mbedtls/mbedtls-2.16.2/library\error.c ****         if( use_ret == -(MBEDTLS_ERR_CIPHER_ALLOC_FAILED) )
 842              		.loc 1 238 0
 843 006a 7B69     		ldr	r3, [r7, #20]
 844 006c B3F5C34F 		cmp	r3, #24960
 845 0070 05D1     		bne	.L8
 239:C:/Users/dtjld/workspace/AIoT/src/LiteOS_Lab/iot_link/network/dtls/mbedtls/mbedtls-2.16.2/library\error.c ****             mbedtls_snprintf( buf, buflen, "CIPHER - Failed to allocate memory" );
 846              		.loc 1 239 0
 847 0072 834B     		ldr	r3, .L230
 848 0074 1B68     		ldr	r3, [r3]
 849 0076 854A     		ldr	r2, .L230+12
ARM GAS  C:\Users\dtjld\AppData\Local\Temp\ccjG0xZ1.s 			page 39


 850 0078 7968     		ldr	r1, [r7, #4]
 851 007a B868     		ldr	r0, [r7, #8]
 852 007c 9847     		blx	r3
 853              	.LVL2:
 854              	.L8:
 240:C:/Users/dtjld/workspace/AIoT/src/LiteOS_Lab/iot_link/network/dtls/mbedtls/mbedtls-2.16.2/library\error.c ****         if( use_ret == -(MBEDTLS_ERR_CIPHER_INVALID_PADDING) )
 855              		.loc 1 240 0
 856 007e 7B69     		ldr	r3, [r7, #20]
 857 0080 B3F5C44F 		cmp	r3, #25088
 858 0084 05D1     		bne	.L9
 241:C:/Users/dtjld/workspace/AIoT/src/LiteOS_Lab/iot_link/network/dtls/mbedtls/mbedtls-2.16.2/library\error.c ****             mbedtls_snprintf( buf, buflen, "CIPHER - Input data contains invalid padding and is rej
 859              		.loc 1 241 0
 860 0086 7E4B     		ldr	r3, .L230
 861 0088 1B68     		ldr	r3, [r3]
 862 008a 814A     		ldr	r2, .L230+16
 863 008c 7968     		ldr	r1, [r7, #4]
 864 008e B868     		ldr	r0, [r7, #8]
 865 0090 9847     		blx	r3
 866              	.LVL3:
 867              	.L9:
 242:C:/Users/dtjld/workspace/AIoT/src/LiteOS_Lab/iot_link/network/dtls/mbedtls/mbedtls-2.16.2/library\error.c ****         if( use_ret == -(MBEDTLS_ERR_CIPHER_FULL_BLOCK_EXPECTED) )
 868              		.loc 1 242 0
 869 0092 7B69     		ldr	r3, [r7, #20]
 870 0094 B3F5C54F 		cmp	r3, #25216
 871 0098 05D1     		bne	.L10
 243:C:/Users/dtjld/workspace/AIoT/src/LiteOS_Lab/iot_link/network/dtls/mbedtls/mbedtls-2.16.2/library\error.c ****             mbedtls_snprintf( buf, buflen, "CIPHER - Decryption of block requires a full block" );
 872              		.loc 1 243 0
 873 009a 794B     		ldr	r3, .L230
 874 009c 1B68     		ldr	r3, [r3]
 875 009e 7D4A     		ldr	r2, .L230+20
 876 00a0 7968     		ldr	r1, [r7, #4]
 877 00a2 B868     		ldr	r0, [r7, #8]
 878 00a4 9847     		blx	r3
 879              	.LVL4:
 880              	.L10:
 244:C:/Users/dtjld/workspace/AIoT/src/LiteOS_Lab/iot_link/network/dtls/mbedtls/mbedtls-2.16.2/library\error.c ****         if( use_ret == -(MBEDTLS_ERR_CIPHER_AUTH_FAILED) )
 881              		.loc 1 244 0
 882 00a6 7B69     		ldr	r3, [r7, #20]
 883 00a8 B3F5C64F 		cmp	r3, #25344
 884 00ac 05D1     		bne	.L11
 245:C:/Users/dtjld/workspace/AIoT/src/LiteOS_Lab/iot_link/network/dtls/mbedtls/mbedtls-2.16.2/library\error.c ****             mbedtls_snprintf( buf, buflen, "CIPHER - Authentication failed (for AEAD modes)" );
 885              		.loc 1 245 0
 886 00ae 744B     		ldr	r3, .L230
 887 00b0 1B68     		ldr	r3, [r3]
 888 00b2 794A     		ldr	r2, .L230+24
 889 00b4 7968     		ldr	r1, [r7, #4]
 890 00b6 B868     		ldr	r0, [r7, #8]
 891 00b8 9847     		blx	r3
 892              	.LVL5:
 893              	.L11:
 246:C:/Users/dtjld/workspace/AIoT/src/LiteOS_Lab/iot_link/network/dtls/mbedtls/mbedtls-2.16.2/library\error.c ****         if( use_ret == -(MBEDTLS_ERR_CIPHER_INVALID_CONTEXT) )
 894              		.loc 1 246 0
 895 00ba 7B69     		ldr	r3, [r7, #20]
 896 00bc B3F5C74F 		cmp	r3, #25472
 897 00c0 05D1     		bne	.L12
 247:C:/Users/dtjld/workspace/AIoT/src/LiteOS_Lab/iot_link/network/dtls/mbedtls/mbedtls-2.16.2/library\error.c ****             mbedtls_snprintf( buf, buflen, "CIPHER - The context is invalid. For example, because i
 898              		.loc 1 247 0
ARM GAS  C:\Users\dtjld\AppData\Local\Temp\ccjG0xZ1.s 			page 40


 899 00c2 6F4B     		ldr	r3, .L230
 900 00c4 1B68     		ldr	r3, [r3]
 901 00c6 754A     		ldr	r2, .L230+28
 902 00c8 7968     		ldr	r1, [r7, #4]
 903 00ca B868     		ldr	r0, [r7, #8]
 904 00cc 9847     		blx	r3
 905              	.LVL6:
 906              	.L12:
 248:C:/Users/dtjld/workspace/AIoT/src/LiteOS_Lab/iot_link/network/dtls/mbedtls/mbedtls-2.16.2/library\error.c ****         if( use_ret == -(MBEDTLS_ERR_CIPHER_HW_ACCEL_FAILED) )
 907              		.loc 1 248 0
 908 00ce 7B69     		ldr	r3, [r7, #20]
 909 00d0 B3F5C84F 		cmp	r3, #25600
 910 00d4 05D1     		bne	.L13
 249:C:/Users/dtjld/workspace/AIoT/src/LiteOS_Lab/iot_link/network/dtls/mbedtls/mbedtls-2.16.2/library\error.c ****             mbedtls_snprintf( buf, buflen, "CIPHER - Cipher hardware accelerator failed" );
 911              		.loc 1 249 0
 912 00d6 6A4B     		ldr	r3, .L230
 913 00d8 1B68     		ldr	r3, [r3]
 914 00da 714A     		ldr	r2, .L230+32
 915 00dc 7968     		ldr	r1, [r7, #4]
 916 00de B868     		ldr	r0, [r7, #8]
 917 00e0 9847     		blx	r3
 918              	.LVL7:
 919              	.L13:
 250:C:/Users/dtjld/workspace/AIoT/src/LiteOS_Lab/iot_link/network/dtls/mbedtls/mbedtls-2.16.2/library\error.c **** #endif /* MBEDTLS_CIPHER_C */
 251:C:/Users/dtjld/workspace/AIoT/src/LiteOS_Lab/iot_link/network/dtls/mbedtls/mbedtls-2.16.2/library\error.c **** 
 252:C:/Users/dtjld/workspace/AIoT/src/LiteOS_Lab/iot_link/network/dtls/mbedtls/mbedtls-2.16.2/library\error.c **** #if defined(MBEDTLS_DHM_C)
 253:C:/Users/dtjld/workspace/AIoT/src/LiteOS_Lab/iot_link/network/dtls/mbedtls/mbedtls-2.16.2/library\error.c ****         if( use_ret == -(MBEDTLS_ERR_DHM_BAD_INPUT_DATA) )
 920              		.loc 1 253 0
 921 00e2 7B69     		ldr	r3, [r7, #20]
 922 00e4 B3F5425F 		cmp	r3, #12416
 923 00e8 05D1     		bne	.L14
 254:C:/Users/dtjld/workspace/AIoT/src/LiteOS_Lab/iot_link/network/dtls/mbedtls/mbedtls-2.16.2/library\error.c ****             mbedtls_snprintf( buf, buflen, "DHM - Bad input parameters" );
 924              		.loc 1 254 0
 925 00ea 654B     		ldr	r3, .L230
 926 00ec 1B68     		ldr	r3, [r3]
 927 00ee 6D4A     		ldr	r2, .L230+36
 928 00f0 7968     		ldr	r1, [r7, #4]
 929 00f2 B868     		ldr	r0, [r7, #8]
 930 00f4 9847     		blx	r3
 931              	.LVL8:
 932              	.L14:
 255:C:/Users/dtjld/workspace/AIoT/src/LiteOS_Lab/iot_link/network/dtls/mbedtls/mbedtls-2.16.2/library\error.c ****         if( use_ret == -(MBEDTLS_ERR_DHM_READ_PARAMS_FAILED) )
 933              		.loc 1 255 0
 934 00f6 7B69     		ldr	r3, [r7, #20]
 935 00f8 B3F5445F 		cmp	r3, #12544
 936 00fc 05D1     		bne	.L15
 256:C:/Users/dtjld/workspace/AIoT/src/LiteOS_Lab/iot_link/network/dtls/mbedtls/mbedtls-2.16.2/library\error.c ****             mbedtls_snprintf( buf, buflen, "DHM - Reading of the DHM parameters failed" );
 937              		.loc 1 256 0
 938 00fe 604B     		ldr	r3, .L230
 939 0100 1B68     		ldr	r3, [r3]
 940 0102 694A     		ldr	r2, .L230+40
 941 0104 7968     		ldr	r1, [r7, #4]
 942 0106 B868     		ldr	r0, [r7, #8]
 943 0108 9847     		blx	r3
 944              	.LVL9:
 945              	.L15:
 257:C:/Users/dtjld/workspace/AIoT/src/LiteOS_Lab/iot_link/network/dtls/mbedtls/mbedtls-2.16.2/library\error.c ****         if( use_ret == -(MBEDTLS_ERR_DHM_MAKE_PARAMS_FAILED) )
ARM GAS  C:\Users\dtjld\AppData\Local\Temp\ccjG0xZ1.s 			page 41


 946              		.loc 1 257 0
 947 010a 7B69     		ldr	r3, [r7, #20]
 948 010c B3F5465F 		cmp	r3, #12672
 949 0110 05D1     		bne	.L16
 258:C:/Users/dtjld/workspace/AIoT/src/LiteOS_Lab/iot_link/network/dtls/mbedtls/mbedtls-2.16.2/library\error.c ****             mbedtls_snprintf( buf, buflen, "DHM - Making of the DHM parameters failed" );
 950              		.loc 1 258 0
 951 0112 5B4B     		ldr	r3, .L230
 952 0114 1B68     		ldr	r3, [r3]
 953 0116 654A     		ldr	r2, .L230+44
 954 0118 7968     		ldr	r1, [r7, #4]
 955 011a B868     		ldr	r0, [r7, #8]
 956 011c 9847     		blx	r3
 957              	.LVL10:
 958              	.L16:
 259:C:/Users/dtjld/workspace/AIoT/src/LiteOS_Lab/iot_link/network/dtls/mbedtls/mbedtls-2.16.2/library\error.c ****         if( use_ret == -(MBEDTLS_ERR_DHM_READ_PUBLIC_FAILED) )
 959              		.loc 1 259 0
 960 011e 7B69     		ldr	r3, [r7, #20]
 961 0120 B3F5485F 		cmp	r3, #12800
 962 0124 05D1     		bne	.L17
 260:C:/Users/dtjld/workspace/AIoT/src/LiteOS_Lab/iot_link/network/dtls/mbedtls/mbedtls-2.16.2/library\error.c ****             mbedtls_snprintf( buf, buflen, "DHM - Reading of the public values failed" );
 963              		.loc 1 260 0
 964 0126 564B     		ldr	r3, .L230
 965 0128 1B68     		ldr	r3, [r3]
 966 012a 614A     		ldr	r2, .L230+48
 967 012c 7968     		ldr	r1, [r7, #4]
 968 012e B868     		ldr	r0, [r7, #8]
 969 0130 9847     		blx	r3
 970              	.LVL11:
 971              	.L17:
 261:C:/Users/dtjld/workspace/AIoT/src/LiteOS_Lab/iot_link/network/dtls/mbedtls/mbedtls-2.16.2/library\error.c ****         if( use_ret == -(MBEDTLS_ERR_DHM_MAKE_PUBLIC_FAILED) )
 972              		.loc 1 261 0
 973 0132 7B69     		ldr	r3, [r7, #20]
 974 0134 B3F54A5F 		cmp	r3, #12928
 975 0138 05D1     		bne	.L18
 262:C:/Users/dtjld/workspace/AIoT/src/LiteOS_Lab/iot_link/network/dtls/mbedtls/mbedtls-2.16.2/library\error.c ****             mbedtls_snprintf( buf, buflen, "DHM - Making of the public value failed" );
 976              		.loc 1 262 0
 977 013a 514B     		ldr	r3, .L230
 978 013c 1B68     		ldr	r3, [r3]
 979 013e 5D4A     		ldr	r2, .L230+52
 980 0140 7968     		ldr	r1, [r7, #4]
 981 0142 B868     		ldr	r0, [r7, #8]
 982 0144 9847     		blx	r3
 983              	.LVL12:
 984              	.L18:
 263:C:/Users/dtjld/workspace/AIoT/src/LiteOS_Lab/iot_link/network/dtls/mbedtls/mbedtls-2.16.2/library\error.c ****         if( use_ret == -(MBEDTLS_ERR_DHM_CALC_SECRET_FAILED) )
 985              		.loc 1 263 0
 986 0146 7B69     		ldr	r3, [r7, #20]
 987 0148 B3F54C5F 		cmp	r3, #13056
 988 014c 05D1     		bne	.L19
 264:C:/Users/dtjld/workspace/AIoT/src/LiteOS_Lab/iot_link/network/dtls/mbedtls/mbedtls-2.16.2/library\error.c ****             mbedtls_snprintf( buf, buflen, "DHM - Calculation of the DHM secret failed" );
 989              		.loc 1 264 0
 990 014e 4C4B     		ldr	r3, .L230
 991 0150 1B68     		ldr	r3, [r3]
 992 0152 594A     		ldr	r2, .L230+56
 993 0154 7968     		ldr	r1, [r7, #4]
 994 0156 B868     		ldr	r0, [r7, #8]
 995 0158 9847     		blx	r3
ARM GAS  C:\Users\dtjld\AppData\Local\Temp\ccjG0xZ1.s 			page 42


 996              	.LVL13:
 997              	.L19:
 265:C:/Users/dtjld/workspace/AIoT/src/LiteOS_Lab/iot_link/network/dtls/mbedtls/mbedtls-2.16.2/library\error.c ****         if( use_ret == -(MBEDTLS_ERR_DHM_INVALID_FORMAT) )
 998              		.loc 1 265 0
 999 015a 7B69     		ldr	r3, [r7, #20]
 1000 015c B3F54E5F 		cmp	r3, #13184
 1001 0160 05D1     		bne	.L20
 266:C:/Users/dtjld/workspace/AIoT/src/LiteOS_Lab/iot_link/network/dtls/mbedtls/mbedtls-2.16.2/library\error.c ****             mbedtls_snprintf( buf, buflen, "DHM - The ASN.1 data is not formatted correctly" );
 1002              		.loc 1 266 0
 1003 0162 474B     		ldr	r3, .L230
 1004 0164 1B68     		ldr	r3, [r3]
 1005 0166 554A     		ldr	r2, .L230+60
 1006 0168 7968     		ldr	r1, [r7, #4]
 1007 016a B868     		ldr	r0, [r7, #8]
 1008 016c 9847     		blx	r3
 1009              	.LVL14:
 1010              	.L20:
 267:C:/Users/dtjld/workspace/AIoT/src/LiteOS_Lab/iot_link/network/dtls/mbedtls/mbedtls-2.16.2/library\error.c ****         if( use_ret == -(MBEDTLS_ERR_DHM_ALLOC_FAILED) )
 1011              		.loc 1 267 0
 1012 016e 7B69     		ldr	r3, [r7, #20]
 1013 0170 B3F5505F 		cmp	r3, #13312
 1014 0174 05D1     		bne	.L21
 268:C:/Users/dtjld/workspace/AIoT/src/LiteOS_Lab/iot_link/network/dtls/mbedtls/mbedtls-2.16.2/library\error.c ****             mbedtls_snprintf( buf, buflen, "DHM - Allocation of memory failed" );
 1015              		.loc 1 268 0
 1016 0176 424B     		ldr	r3, .L230
 1017 0178 1B68     		ldr	r3, [r3]
 1018 017a 514A     		ldr	r2, .L230+64
 1019 017c 7968     		ldr	r1, [r7, #4]
 1020 017e B868     		ldr	r0, [r7, #8]
 1021 0180 9847     		blx	r3
 1022              	.LVL15:
 1023              	.L21:
 269:C:/Users/dtjld/workspace/AIoT/src/LiteOS_Lab/iot_link/network/dtls/mbedtls/mbedtls-2.16.2/library\error.c ****         if( use_ret == -(MBEDTLS_ERR_DHM_FILE_IO_ERROR) )
 1024              		.loc 1 269 0
 1025 0182 7B69     		ldr	r3, [r7, #20]
 1026 0184 B3F5525F 		cmp	r3, #13440
 1027 0188 05D1     		bne	.L22
 270:C:/Users/dtjld/workspace/AIoT/src/LiteOS_Lab/iot_link/network/dtls/mbedtls/mbedtls-2.16.2/library\error.c ****             mbedtls_snprintf( buf, buflen, "DHM - Read or write of file failed" );
 1028              		.loc 1 270 0
 1029 018a 3D4B     		ldr	r3, .L230
 1030 018c 1B68     		ldr	r3, [r3]
 1031 018e 4D4A     		ldr	r2, .L230+68
 1032 0190 7968     		ldr	r1, [r7, #4]
 1033 0192 B868     		ldr	r0, [r7, #8]
 1034 0194 9847     		blx	r3
 1035              	.LVL16:
 1036              	.L22:
 271:C:/Users/dtjld/workspace/AIoT/src/LiteOS_Lab/iot_link/network/dtls/mbedtls/mbedtls-2.16.2/library\error.c ****         if( use_ret == -(MBEDTLS_ERR_DHM_HW_ACCEL_FAILED) )
 1037              		.loc 1 271 0
 1038 0196 7B69     		ldr	r3, [r7, #20]
 1039 0198 B3F5545F 		cmp	r3, #13568
 1040 019c 05D1     		bne	.L23
 272:C:/Users/dtjld/workspace/AIoT/src/LiteOS_Lab/iot_link/network/dtls/mbedtls/mbedtls-2.16.2/library\error.c ****             mbedtls_snprintf( buf, buflen, "DHM - DHM hardware accelerator failed" );
 1041              		.loc 1 272 0
 1042 019e 384B     		ldr	r3, .L230
 1043 01a0 1B68     		ldr	r3, [r3]
 1044 01a2 494A     		ldr	r2, .L230+72
ARM GAS  C:\Users\dtjld\AppData\Local\Temp\ccjG0xZ1.s 			page 43


 1045 01a4 7968     		ldr	r1, [r7, #4]
 1046 01a6 B868     		ldr	r0, [r7, #8]
 1047 01a8 9847     		blx	r3
 1048              	.LVL17:
 1049              	.L23:
 273:C:/Users/dtjld/workspace/AIoT/src/LiteOS_Lab/iot_link/network/dtls/mbedtls/mbedtls-2.16.2/library\error.c ****         if( use_ret == -(MBEDTLS_ERR_DHM_SET_GROUP_FAILED) )
 1050              		.loc 1 273 0
 1051 01aa 7B69     		ldr	r3, [r7, #20]
 1052 01ac B3F5565F 		cmp	r3, #13696
 1053 01b0 05D1     		bne	.L24
 274:C:/Users/dtjld/workspace/AIoT/src/LiteOS_Lab/iot_link/network/dtls/mbedtls/mbedtls-2.16.2/library\error.c ****             mbedtls_snprintf( buf, buflen, "DHM - Setting the modulus and generator failed" );
 1054              		.loc 1 274 0
 1055 01b2 334B     		ldr	r3, .L230
 1056 01b4 1B68     		ldr	r3, [r3]
 1057 01b6 454A     		ldr	r2, .L230+76
 1058 01b8 7968     		ldr	r1, [r7, #4]
 1059 01ba B868     		ldr	r0, [r7, #8]
 1060 01bc 9847     		blx	r3
 1061              	.LVL18:
 1062              	.L24:
 275:C:/Users/dtjld/workspace/AIoT/src/LiteOS_Lab/iot_link/network/dtls/mbedtls/mbedtls-2.16.2/library\error.c **** #endif /* MBEDTLS_DHM_C */
 276:C:/Users/dtjld/workspace/AIoT/src/LiteOS_Lab/iot_link/network/dtls/mbedtls/mbedtls-2.16.2/library\error.c **** 
 277:C:/Users/dtjld/workspace/AIoT/src/LiteOS_Lab/iot_link/network/dtls/mbedtls/mbedtls-2.16.2/library\error.c **** #if defined(MBEDTLS_ECP_C)
 278:C:/Users/dtjld/workspace/AIoT/src/LiteOS_Lab/iot_link/network/dtls/mbedtls/mbedtls-2.16.2/library\error.c ****         if( use_ret == -(MBEDTLS_ERR_ECP_BAD_INPUT_DATA) )
 1063              		.loc 1 278 0
 1064 01be 7B69     		ldr	r3, [r7, #20]
 1065 01c0 B3F59F4F 		cmp	r3, #20352
 1066 01c4 05D1     		bne	.L25
 279:C:/Users/dtjld/workspace/AIoT/src/LiteOS_Lab/iot_link/network/dtls/mbedtls/mbedtls-2.16.2/library\error.c ****             mbedtls_snprintf( buf, buflen, "ECP - Bad input parameters to function" );
 1067              		.loc 1 279 0
 1068 01c6 2E4B     		ldr	r3, .L230
 1069 01c8 1B68     		ldr	r3, [r3]
 1070 01ca 414A     		ldr	r2, .L230+80
 1071 01cc 7968     		ldr	r1, [r7, #4]
 1072 01ce B868     		ldr	r0, [r7, #8]
 1073 01d0 9847     		blx	r3
 1074              	.LVL19:
 1075              	.L25:
 280:C:/Users/dtjld/workspace/AIoT/src/LiteOS_Lab/iot_link/network/dtls/mbedtls/mbedtls-2.16.2/library\error.c ****         if( use_ret == -(MBEDTLS_ERR_ECP_BUFFER_TOO_SMALL) )
 1076              		.loc 1 280 0
 1077 01d2 7B69     		ldr	r3, [r7, #20]
 1078 01d4 B3F59E4F 		cmp	r3, #20224
 1079 01d8 05D1     		bne	.L26
 281:C:/Users/dtjld/workspace/AIoT/src/LiteOS_Lab/iot_link/network/dtls/mbedtls/mbedtls-2.16.2/library\error.c ****             mbedtls_snprintf( buf, buflen, "ECP - The buffer is too small to write to" );
 1080              		.loc 1 281 0
 1081 01da 294B     		ldr	r3, .L230
 1082 01dc 1B68     		ldr	r3, [r3]
 1083 01de 3D4A     		ldr	r2, .L230+84
 1084 01e0 7968     		ldr	r1, [r7, #4]
 1085 01e2 B868     		ldr	r0, [r7, #8]
 1086 01e4 9847     		blx	r3
 1087              	.LVL20:
 1088              	.L26:
 282:C:/Users/dtjld/workspace/AIoT/src/LiteOS_Lab/iot_link/network/dtls/mbedtls/mbedtls-2.16.2/library\error.c ****         if( use_ret == -(MBEDTLS_ERR_ECP_FEATURE_UNAVAILABLE) )
 1089              		.loc 1 282 0
 1090 01e6 7B69     		ldr	r3, [r7, #20]
 1091 01e8 B3F59D4F 		cmp	r3, #20096
ARM GAS  C:\Users\dtjld\AppData\Local\Temp\ccjG0xZ1.s 			page 44


 1092 01ec 05D1     		bne	.L27
 283:C:/Users/dtjld/workspace/AIoT/src/LiteOS_Lab/iot_link/network/dtls/mbedtls/mbedtls-2.16.2/library\error.c ****             mbedtls_snprintf( buf, buflen, "ECP - The requested feature is not available, for examp
 1093              		.loc 1 283 0
 1094 01ee 244B     		ldr	r3, .L230
 1095 01f0 1B68     		ldr	r3, [r3]
 1096 01f2 394A     		ldr	r2, .L230+88
 1097 01f4 7968     		ldr	r1, [r7, #4]
 1098 01f6 B868     		ldr	r0, [r7, #8]
 1099 01f8 9847     		blx	r3
 1100              	.LVL21:
 1101              	.L27:
 284:C:/Users/dtjld/workspace/AIoT/src/LiteOS_Lab/iot_link/network/dtls/mbedtls/mbedtls-2.16.2/library\error.c ****         if( use_ret == -(MBEDTLS_ERR_ECP_VERIFY_FAILED) )
 1102              		.loc 1 284 0
 1103 01fa 7B69     		ldr	r3, [r7, #20]
 1104 01fc B3F59C4F 		cmp	r3, #19968
 1105 0200 05D1     		bne	.L28
 285:C:/Users/dtjld/workspace/AIoT/src/LiteOS_Lab/iot_link/network/dtls/mbedtls/mbedtls-2.16.2/library\error.c ****             mbedtls_snprintf( buf, buflen, "ECP - The signature is not valid" );
 1106              		.loc 1 285 0
 1107 0202 1F4B     		ldr	r3, .L230
 1108 0204 1B68     		ldr	r3, [r3]
 1109 0206 354A     		ldr	r2, .L230+92
 1110 0208 7968     		ldr	r1, [r7, #4]
 1111 020a B868     		ldr	r0, [r7, #8]
 1112 020c 9847     		blx	r3
 1113              	.LVL22:
 1114              	.L28:
 286:C:/Users/dtjld/workspace/AIoT/src/LiteOS_Lab/iot_link/network/dtls/mbedtls/mbedtls-2.16.2/library\error.c ****         if( use_ret == -(MBEDTLS_ERR_ECP_ALLOC_FAILED) )
 1115              		.loc 1 286 0
 1116 020e 7B69     		ldr	r3, [r7, #20]
 1117 0210 B3F59B4F 		cmp	r3, #19840
 1118 0214 05D1     		bne	.L29
 287:C:/Users/dtjld/workspace/AIoT/src/LiteOS_Lab/iot_link/network/dtls/mbedtls/mbedtls-2.16.2/library\error.c ****             mbedtls_snprintf( buf, buflen, "ECP - Memory allocation failed" );
 1119              		.loc 1 287 0
 1120 0216 1A4B     		ldr	r3, .L230
 1121 0218 1B68     		ldr	r3, [r3]
 1122 021a 314A     		ldr	r2, .L230+96
 1123 021c 7968     		ldr	r1, [r7, #4]
 1124 021e B868     		ldr	r0, [r7, #8]
 1125 0220 9847     		blx	r3
 1126              	.LVL23:
 1127              	.L29:
 288:C:/Users/dtjld/workspace/AIoT/src/LiteOS_Lab/iot_link/network/dtls/mbedtls/mbedtls-2.16.2/library\error.c ****         if( use_ret == -(MBEDTLS_ERR_ECP_RANDOM_FAILED) )
 1128              		.loc 1 288 0
 1129 0222 7B69     		ldr	r3, [r7, #20]
 1130 0224 B3F59A4F 		cmp	r3, #19712
 1131 0228 05D1     		bne	.L30
 289:C:/Users/dtjld/workspace/AIoT/src/LiteOS_Lab/iot_link/network/dtls/mbedtls/mbedtls-2.16.2/library\error.c ****             mbedtls_snprintf( buf, buflen, "ECP - Generation of random value, such as ephemeral key
 1132              		.loc 1 289 0
 1133 022a 154B     		ldr	r3, .L230
 1134 022c 1B68     		ldr	r3, [r3]
 1135 022e 2D4A     		ldr	r2, .L230+100
 1136 0230 7968     		ldr	r1, [r7, #4]
 1137 0232 B868     		ldr	r0, [r7, #8]
 1138 0234 9847     		blx	r3
 1139              	.LVL24:
 1140              	.L30:
 290:C:/Users/dtjld/workspace/AIoT/src/LiteOS_Lab/iot_link/network/dtls/mbedtls/mbedtls-2.16.2/library\error.c ****         if( use_ret == -(MBEDTLS_ERR_ECP_INVALID_KEY) )
ARM GAS  C:\Users\dtjld\AppData\Local\Temp\ccjG0xZ1.s 			page 45


 1141              		.loc 1 290 0
 1142 0236 7B69     		ldr	r3, [r7, #20]
 1143 0238 B3F5994F 		cmp	r3, #19584
 1144 023c 05D1     		bne	.L31
 291:C:/Users/dtjld/workspace/AIoT/src/LiteOS_Lab/iot_link/network/dtls/mbedtls/mbedtls-2.16.2/library\error.c ****             mbedtls_snprintf( buf, buflen, "ECP - Invalid private or public key" );
 1145              		.loc 1 291 0
 1146 023e 104B     		ldr	r3, .L230
 1147 0240 1B68     		ldr	r3, [r3]
 1148 0242 294A     		ldr	r2, .L230+104
 1149 0244 7968     		ldr	r1, [r7, #4]
 1150 0246 B868     		ldr	r0, [r7, #8]
 1151 0248 9847     		blx	r3
 1152              	.LVL25:
 1153              	.L31:
 292:C:/Users/dtjld/workspace/AIoT/src/LiteOS_Lab/iot_link/network/dtls/mbedtls/mbedtls-2.16.2/library\error.c ****         if( use_ret == -(MBEDTLS_ERR_ECP_SIG_LEN_MISMATCH) )
 1154              		.loc 1 292 0
 1155 024a 7B69     		ldr	r3, [r7, #20]
 1156 024c B3F5984F 		cmp	r3, #19456
 1157 0250 05D1     		bne	.L32
 293:C:/Users/dtjld/workspace/AIoT/src/LiteOS_Lab/iot_link/network/dtls/mbedtls/mbedtls-2.16.2/library\error.c ****             mbedtls_snprintf( buf, buflen, "ECP - The buffer contains a valid signature followed by
 1158              		.loc 1 293 0
 1159 0252 0B4B     		ldr	r3, .L230
 1160 0254 1B68     		ldr	r3, [r3]
 1161 0256 254A     		ldr	r2, .L230+108
 1162 0258 7968     		ldr	r1, [r7, #4]
 1163 025a B868     		ldr	r0, [r7, #8]
 1164 025c 9847     		blx	r3
 1165              	.LVL26:
 1166              	.L32:
 294:C:/Users/dtjld/workspace/AIoT/src/LiteOS_Lab/iot_link/network/dtls/mbedtls/mbedtls-2.16.2/library\error.c ****         if( use_ret == -(MBEDTLS_ERR_ECP_HW_ACCEL_FAILED) )
 1167              		.loc 1 294 0
 1168 025e 7B69     		ldr	r3, [r7, #20]
 1169 0260 B3F5974F 		cmp	r3, #19328
 1170 0264 05D1     		bne	.L33
 295:C:/Users/dtjld/workspace/AIoT/src/LiteOS_Lab/iot_link/network/dtls/mbedtls/mbedtls-2.16.2/library\error.c ****             mbedtls_snprintf( buf, buflen, "ECP - The ECP hardware accelerator failed" );
 1171              		.loc 1 295 0
 1172 0266 064B     		ldr	r3, .L230
 1173 0268 1B68     		ldr	r3, [r3]
 1174 026a 214A     		ldr	r2, .L230+112
 1175 026c 7968     		ldr	r1, [r7, #4]
 1176 026e B868     		ldr	r0, [r7, #8]
 1177 0270 9847     		blx	r3
 1178              	.LVL27:
 1179              	.L33:
 296:C:/Users/dtjld/workspace/AIoT/src/LiteOS_Lab/iot_link/network/dtls/mbedtls/mbedtls-2.16.2/library\error.c ****         if( use_ret == -(MBEDTLS_ERR_ECP_IN_PROGRESS) )
 1180              		.loc 1 296 0
 1181 0272 7B69     		ldr	r3, [r7, #20]
 1182 0274 B3F5964F 		cmp	r3, #19200
 1183 0278 40D1     		bne	.L34
 297:C:/Users/dtjld/workspace/AIoT/src/LiteOS_Lab/iot_link/network/dtls/mbedtls/mbedtls-2.16.2/library\error.c ****             mbedtls_snprintf( buf, buflen, "ECP - Operation in progress, call again with the same p
 1184              		.loc 1 297 0
 1185 027a 014B     		ldr	r3, .L230
 1186 027c 1B68     		ldr	r3, [r3]
 1187 027e 39E0     		b	.L231
 1188              	.L232:
 1189              		.align	2
 1190              	.L230:
ARM GAS  C:\Users\dtjld\AppData\Local\Temp\ccjG0xZ1.s 			page 46


 1191 0280 00000000 		.word	mbedtls_snprintf
 1192 0284 00000000 		.word	.LC0
 1193 0288 30000000 		.word	.LC1
 1194 028c 50000000 		.word	.LC2
 1195 0290 74000000 		.word	.LC3
 1196 0294 B4000000 		.word	.LC4
 1197 0298 E8000000 		.word	.LC5
 1198 029c 18010000 		.word	.LC6
 1199 02a0 5C010000 		.word	.LC7
 1200 02a4 88010000 		.word	.LC8
 1201 02a8 A4010000 		.word	.LC9
 1202 02ac D0010000 		.word	.LC10
 1203 02b0 FC010000 		.word	.LC11
 1204 02b4 28020000 		.word	.LC12
 1205 02b8 50020000 		.word	.LC13
 1206 02bc 7C020000 		.word	.LC14
 1207 02c0 AC020000 		.word	.LC15
 1208 02c4 D0020000 		.word	.LC16
 1209 02c8 F4020000 		.word	.LC17
 1210 02cc 1C030000 		.word	.LC18
 1211 02d0 4C030000 		.word	.LC19
 1212 02d4 74030000 		.word	.LC20
 1213 02d8 A0030000 		.word	.LC21
 1214 02dc 00040000 		.word	.LC22
 1215 02e0 24040000 		.word	.LC23
 1216 02e4 44040000 		.word	.LC24
 1217 02e8 84040000 		.word	.LC25
 1218 02ec A8040000 		.word	.LC26
 1219 02f0 EC040000 		.word	.LC27
 1220              	.L231:
 1221 02f4 8D4A     		ldr	r2, .L233
 1222 02f6 7968     		ldr	r1, [r7, #4]
 1223 02f8 B868     		ldr	r0, [r7, #8]
 1224 02fa 9847     		blx	r3
 1225              	.LVL28:
 1226              	.L34:
 298:C:/Users/dtjld/workspace/AIoT/src/LiteOS_Lab/iot_link/network/dtls/mbedtls/mbedtls-2.16.2/library\error.c **** #endif /* MBEDTLS_ECP_C */
 299:C:/Users/dtjld/workspace/AIoT/src/LiteOS_Lab/iot_link/network/dtls/mbedtls/mbedtls-2.16.2/library\error.c **** 
 300:C:/Users/dtjld/workspace/AIoT/src/LiteOS_Lab/iot_link/network/dtls/mbedtls/mbedtls-2.16.2/library\error.c **** #if defined(MBEDTLS_MD_C)
 301:C:/Users/dtjld/workspace/AIoT/src/LiteOS_Lab/iot_link/network/dtls/mbedtls/mbedtls-2.16.2/library\error.c ****         if( use_ret == -(MBEDTLS_ERR_MD_FEATURE_UNAVAILABLE) )
 1227              		.loc 1 301 0
 1228 02fc 7B69     		ldr	r3, [r7, #20]
 1229 02fe B3F5A14F 		cmp	r3, #20608
 1230 0302 05D1     		bne	.L35
 302:C:/Users/dtjld/workspace/AIoT/src/LiteOS_Lab/iot_link/network/dtls/mbedtls/mbedtls-2.16.2/library\error.c ****             mbedtls_snprintf( buf, buflen, "MD - The selected feature is not available" );
 1231              		.loc 1 302 0
 1232 0304 8A4B     		ldr	r3, .L233+4
 1233 0306 1B68     		ldr	r3, [r3]
 1234 0308 8A4A     		ldr	r2, .L233+8
 1235 030a 7968     		ldr	r1, [r7, #4]
 1236 030c B868     		ldr	r0, [r7, #8]
 1237 030e 9847     		blx	r3
 1238              	.LVL29:
 1239              	.L35:
 303:C:/Users/dtjld/workspace/AIoT/src/LiteOS_Lab/iot_link/network/dtls/mbedtls/mbedtls-2.16.2/library\error.c ****         if( use_ret == -(MBEDTLS_ERR_MD_BAD_INPUT_DATA) )
 1240              		.loc 1 303 0
 1241 0310 7B69     		ldr	r3, [r7, #20]
ARM GAS  C:\Users\dtjld\AppData\Local\Temp\ccjG0xZ1.s 			page 47


 1242 0312 B3F5A24F 		cmp	r3, #20736
 1243 0316 05D1     		bne	.L36
 304:C:/Users/dtjld/workspace/AIoT/src/LiteOS_Lab/iot_link/network/dtls/mbedtls/mbedtls-2.16.2/library\error.c ****             mbedtls_snprintf( buf, buflen, "MD - Bad input parameters to function" );
 1244              		.loc 1 304 0
 1245 0318 854B     		ldr	r3, .L233+4
 1246 031a 1B68     		ldr	r3, [r3]
 1247 031c 864A     		ldr	r2, .L233+12
 1248 031e 7968     		ldr	r1, [r7, #4]
 1249 0320 B868     		ldr	r0, [r7, #8]
 1250 0322 9847     		blx	r3
 1251              	.LVL30:
 1252              	.L36:
 305:C:/Users/dtjld/workspace/AIoT/src/LiteOS_Lab/iot_link/network/dtls/mbedtls/mbedtls-2.16.2/library\error.c ****         if( use_ret == -(MBEDTLS_ERR_MD_ALLOC_FAILED) )
 1253              		.loc 1 305 0
 1254 0324 7B69     		ldr	r3, [r7, #20]
 1255 0326 B3F5A34F 		cmp	r3, #20864
 1256 032a 05D1     		bne	.L37
 306:C:/Users/dtjld/workspace/AIoT/src/LiteOS_Lab/iot_link/network/dtls/mbedtls/mbedtls-2.16.2/library\error.c ****             mbedtls_snprintf( buf, buflen, "MD - Failed to allocate memory" );
 1257              		.loc 1 306 0
 1258 032c 804B     		ldr	r3, .L233+4
 1259 032e 1B68     		ldr	r3, [r3]
 1260 0330 824A     		ldr	r2, .L233+16
 1261 0332 7968     		ldr	r1, [r7, #4]
 1262 0334 B868     		ldr	r0, [r7, #8]
 1263 0336 9847     		blx	r3
 1264              	.LVL31:
 1265              	.L37:
 307:C:/Users/dtjld/workspace/AIoT/src/LiteOS_Lab/iot_link/network/dtls/mbedtls/mbedtls-2.16.2/library\error.c ****         if( use_ret == -(MBEDTLS_ERR_MD_FILE_IO_ERROR) )
 1266              		.loc 1 307 0
 1267 0338 7B69     		ldr	r3, [r7, #20]
 1268 033a B3F5A44F 		cmp	r3, #20992
 1269 033e 05D1     		bne	.L38
 308:C:/Users/dtjld/workspace/AIoT/src/LiteOS_Lab/iot_link/network/dtls/mbedtls/mbedtls-2.16.2/library\error.c ****             mbedtls_snprintf( buf, buflen, "MD - Opening or reading of file failed" );
 1270              		.loc 1 308 0
 1271 0340 7B4B     		ldr	r3, .L233+4
 1272 0342 1B68     		ldr	r3, [r3]
 1273 0344 7E4A     		ldr	r2, .L233+20
 1274 0346 7968     		ldr	r1, [r7, #4]
 1275 0348 B868     		ldr	r0, [r7, #8]
 1276 034a 9847     		blx	r3
 1277              	.LVL32:
 1278              	.L38:
 309:C:/Users/dtjld/workspace/AIoT/src/LiteOS_Lab/iot_link/network/dtls/mbedtls/mbedtls-2.16.2/library\error.c ****         if( use_ret == -(MBEDTLS_ERR_MD_HW_ACCEL_FAILED) )
 1279              		.loc 1 309 0
 1280 034c 7B69     		ldr	r3, [r7, #20]
 1281 034e B3F5A54F 		cmp	r3, #21120
 1282 0352 05D1     		bne	.L39
 310:C:/Users/dtjld/workspace/AIoT/src/LiteOS_Lab/iot_link/network/dtls/mbedtls/mbedtls-2.16.2/library\error.c ****             mbedtls_snprintf( buf, buflen, "MD - MD hardware accelerator failed" );
 1283              		.loc 1 310 0
 1284 0354 764B     		ldr	r3, .L233+4
 1285 0356 1B68     		ldr	r3, [r3]
 1286 0358 7A4A     		ldr	r2, .L233+24
 1287 035a 7968     		ldr	r1, [r7, #4]
 1288 035c B868     		ldr	r0, [r7, #8]
 1289 035e 9847     		blx	r3
 1290              	.LVL33:
 1291              	.L39:
ARM GAS  C:\Users\dtjld\AppData\Local\Temp\ccjG0xZ1.s 			page 48


 311:C:/Users/dtjld/workspace/AIoT/src/LiteOS_Lab/iot_link/network/dtls/mbedtls/mbedtls-2.16.2/library\error.c **** #endif /* MBEDTLS_MD_C */
 312:C:/Users/dtjld/workspace/AIoT/src/LiteOS_Lab/iot_link/network/dtls/mbedtls/mbedtls-2.16.2/library\error.c **** 
 313:C:/Users/dtjld/workspace/AIoT/src/LiteOS_Lab/iot_link/network/dtls/mbedtls/mbedtls-2.16.2/library\error.c **** #if defined(MBEDTLS_PEM_PARSE_C) || defined(MBEDTLS_PEM_WRITE_C)
 314:C:/Users/dtjld/workspace/AIoT/src/LiteOS_Lab/iot_link/network/dtls/mbedtls/mbedtls-2.16.2/library\error.c ****         if( use_ret == -(MBEDTLS_ERR_PEM_NO_HEADER_FOOTER_PRESENT) )
 1292              		.loc 1 314 0
 1293 0360 7B69     		ldr	r3, [r7, #20]
 1294 0362 B3F5845F 		cmp	r3, #4224
 1295 0366 05D1     		bne	.L40
 315:C:/Users/dtjld/workspace/AIoT/src/LiteOS_Lab/iot_link/network/dtls/mbedtls/mbedtls-2.16.2/library\error.c ****             mbedtls_snprintf( buf, buflen, "PEM - No PEM header or footer found" );
 1296              		.loc 1 315 0
 1297 0368 714B     		ldr	r3, .L233+4
 1298 036a 1B68     		ldr	r3, [r3]
 1299 036c 764A     		ldr	r2, .L233+28
 1300 036e 7968     		ldr	r1, [r7, #4]
 1301 0370 B868     		ldr	r0, [r7, #8]
 1302 0372 9847     		blx	r3
 1303              	.LVL34:
 1304              	.L40:
 316:C:/Users/dtjld/workspace/AIoT/src/LiteOS_Lab/iot_link/network/dtls/mbedtls/mbedtls-2.16.2/library\error.c ****         if( use_ret == -(MBEDTLS_ERR_PEM_INVALID_DATA) )
 1305              		.loc 1 316 0
 1306 0374 7B69     		ldr	r3, [r7, #20]
 1307 0376 B3F5885F 		cmp	r3, #4352
 1308 037a 05D1     		bne	.L41
 317:C:/Users/dtjld/workspace/AIoT/src/LiteOS_Lab/iot_link/network/dtls/mbedtls/mbedtls-2.16.2/library\error.c ****             mbedtls_snprintf( buf, buflen, "PEM - PEM string is not as expected" );
 1309              		.loc 1 317 0
 1310 037c 6C4B     		ldr	r3, .L233+4
 1311 037e 1B68     		ldr	r3, [r3]
 1312 0380 724A     		ldr	r2, .L233+32
 1313 0382 7968     		ldr	r1, [r7, #4]
 1314 0384 B868     		ldr	r0, [r7, #8]
 1315 0386 9847     		blx	r3
 1316              	.LVL35:
 1317              	.L41:
 318:C:/Users/dtjld/workspace/AIoT/src/LiteOS_Lab/iot_link/network/dtls/mbedtls/mbedtls-2.16.2/library\error.c ****         if( use_ret == -(MBEDTLS_ERR_PEM_ALLOC_FAILED) )
 1318              		.loc 1 318 0
 1319 0388 7B69     		ldr	r3, [r7, #20]
 1320 038a B3F58C5F 		cmp	r3, #4480
 1321 038e 05D1     		bne	.L42
 319:C:/Users/dtjld/workspace/AIoT/src/LiteOS_Lab/iot_link/network/dtls/mbedtls/mbedtls-2.16.2/library\error.c ****             mbedtls_snprintf( buf, buflen, "PEM - Failed to allocate memory" );
 1322              		.loc 1 319 0
 1323 0390 674B     		ldr	r3, .L233+4
 1324 0392 1B68     		ldr	r3, [r3]
 1325 0394 6E4A     		ldr	r2, .L233+36
 1326 0396 7968     		ldr	r1, [r7, #4]
 1327 0398 B868     		ldr	r0, [r7, #8]
 1328 039a 9847     		blx	r3
 1329              	.LVL36:
 1330              	.L42:
 320:C:/Users/dtjld/workspace/AIoT/src/LiteOS_Lab/iot_link/network/dtls/mbedtls/mbedtls-2.16.2/library\error.c ****         if( use_ret == -(MBEDTLS_ERR_PEM_INVALID_ENC_IV) )
 1331              		.loc 1 320 0
 1332 039c 7B69     		ldr	r3, [r7, #20]
 1333 039e B3F5905F 		cmp	r3, #4608
 1334 03a2 05D1     		bne	.L43
 321:C:/Users/dtjld/workspace/AIoT/src/LiteOS_Lab/iot_link/network/dtls/mbedtls/mbedtls-2.16.2/library\error.c ****             mbedtls_snprintf( buf, buflen, "PEM - RSA IV is not in hex-format" );
 1335              		.loc 1 321 0
 1336 03a4 624B     		ldr	r3, .L233+4
 1337 03a6 1B68     		ldr	r3, [r3]
ARM GAS  C:\Users\dtjld\AppData\Local\Temp\ccjG0xZ1.s 			page 49


 1338 03a8 6A4A     		ldr	r2, .L233+40
 1339 03aa 7968     		ldr	r1, [r7, #4]
 1340 03ac B868     		ldr	r0, [r7, #8]
 1341 03ae 9847     		blx	r3
 1342              	.LVL37:
 1343              	.L43:
 322:C:/Users/dtjld/workspace/AIoT/src/LiteOS_Lab/iot_link/network/dtls/mbedtls/mbedtls-2.16.2/library\error.c ****         if( use_ret == -(MBEDTLS_ERR_PEM_UNKNOWN_ENC_ALG) )
 1344              		.loc 1 322 0
 1345 03b0 7B69     		ldr	r3, [r7, #20]
 1346 03b2 B3F5945F 		cmp	r3, #4736
 1347 03b6 05D1     		bne	.L44
 323:C:/Users/dtjld/workspace/AIoT/src/LiteOS_Lab/iot_link/network/dtls/mbedtls/mbedtls-2.16.2/library\error.c ****             mbedtls_snprintf( buf, buflen, "PEM - Unsupported key encryption algorithm" );
 1348              		.loc 1 323 0
 1349 03b8 5D4B     		ldr	r3, .L233+4
 1350 03ba 1B68     		ldr	r3, [r3]
 1351 03bc 664A     		ldr	r2, .L233+44
 1352 03be 7968     		ldr	r1, [r7, #4]
 1353 03c0 B868     		ldr	r0, [r7, #8]
 1354 03c2 9847     		blx	r3
 1355              	.LVL38:
 1356              	.L44:
 324:C:/Users/dtjld/workspace/AIoT/src/LiteOS_Lab/iot_link/network/dtls/mbedtls/mbedtls-2.16.2/library\error.c ****         if( use_ret == -(MBEDTLS_ERR_PEM_PASSWORD_REQUIRED) )
 1357              		.loc 1 324 0
 1358 03c4 7B69     		ldr	r3, [r7, #20]
 1359 03c6 B3F5985F 		cmp	r3, #4864
 1360 03ca 05D1     		bne	.L45
 325:C:/Users/dtjld/workspace/AIoT/src/LiteOS_Lab/iot_link/network/dtls/mbedtls/mbedtls-2.16.2/library\error.c ****             mbedtls_snprintf( buf, buflen, "PEM - Private key password can't be empty" );
 1361              		.loc 1 325 0
 1362 03cc 584B     		ldr	r3, .L233+4
 1363 03ce 1B68     		ldr	r3, [r3]
 1364 03d0 624A     		ldr	r2, .L233+48
 1365 03d2 7968     		ldr	r1, [r7, #4]
 1366 03d4 B868     		ldr	r0, [r7, #8]
 1367 03d6 9847     		blx	r3
 1368              	.LVL39:
 1369              	.L45:
 326:C:/Users/dtjld/workspace/AIoT/src/LiteOS_Lab/iot_link/network/dtls/mbedtls/mbedtls-2.16.2/library\error.c ****         if( use_ret == -(MBEDTLS_ERR_PEM_PASSWORD_MISMATCH) )
 1370              		.loc 1 326 0
 1371 03d8 7B69     		ldr	r3, [r7, #20]
 1372 03da B3F59C5F 		cmp	r3, #4992
 1373 03de 05D1     		bne	.L46
 327:C:/Users/dtjld/workspace/AIoT/src/LiteOS_Lab/iot_link/network/dtls/mbedtls/mbedtls-2.16.2/library\error.c ****             mbedtls_snprintf( buf, buflen, "PEM - Given private key password does not allow for cor
 1374              		.loc 1 327 0
 1375 03e0 534B     		ldr	r3, .L233+4
 1376 03e2 1B68     		ldr	r3, [r3]
 1377 03e4 5E4A     		ldr	r2, .L233+52
 1378 03e6 7968     		ldr	r1, [r7, #4]
 1379 03e8 B868     		ldr	r0, [r7, #8]
 1380 03ea 9847     		blx	r3
 1381              	.LVL40:
 1382              	.L46:
 328:C:/Users/dtjld/workspace/AIoT/src/LiteOS_Lab/iot_link/network/dtls/mbedtls/mbedtls-2.16.2/library\error.c ****         if( use_ret == -(MBEDTLS_ERR_PEM_FEATURE_UNAVAILABLE) )
 1383              		.loc 1 328 0
 1384 03ec 7B69     		ldr	r3, [r7, #20]
 1385 03ee B3F5A05F 		cmp	r3, #5120
 1386 03f2 05D1     		bne	.L47
 329:C:/Users/dtjld/workspace/AIoT/src/LiteOS_Lab/iot_link/network/dtls/mbedtls/mbedtls-2.16.2/library\error.c ****             mbedtls_snprintf( buf, buflen, "PEM - Unavailable feature, e.g. hashing/encryption comb
ARM GAS  C:\Users\dtjld\AppData\Local\Temp\ccjG0xZ1.s 			page 50


 1387              		.loc 1 329 0
 1388 03f4 4E4B     		ldr	r3, .L233+4
 1389 03f6 1B68     		ldr	r3, [r3]
 1390 03f8 5A4A     		ldr	r2, .L233+56
 1391 03fa 7968     		ldr	r1, [r7, #4]
 1392 03fc B868     		ldr	r0, [r7, #8]
 1393 03fe 9847     		blx	r3
 1394              	.LVL41:
 1395              	.L47:
 330:C:/Users/dtjld/workspace/AIoT/src/LiteOS_Lab/iot_link/network/dtls/mbedtls/mbedtls-2.16.2/library\error.c ****         if( use_ret == -(MBEDTLS_ERR_PEM_BAD_INPUT_DATA) )
 1396              		.loc 1 330 0
 1397 0400 7B69     		ldr	r3, [r7, #20]
 1398 0402 B3F5A45F 		cmp	r3, #5248
 1399 0406 05D1     		bne	.L48
 331:C:/Users/dtjld/workspace/AIoT/src/LiteOS_Lab/iot_link/network/dtls/mbedtls/mbedtls-2.16.2/library\error.c ****             mbedtls_snprintf( buf, buflen, "PEM - Bad input parameters to function" );
 1400              		.loc 1 331 0
 1401 0408 494B     		ldr	r3, .L233+4
 1402 040a 1B68     		ldr	r3, [r3]
 1403 040c 564A     		ldr	r2, .L233+60
 1404 040e 7968     		ldr	r1, [r7, #4]
 1405 0410 B868     		ldr	r0, [r7, #8]
 1406 0412 9847     		blx	r3
 1407              	.LVL42:
 1408              	.L48:
 332:C:/Users/dtjld/workspace/AIoT/src/LiteOS_Lab/iot_link/network/dtls/mbedtls/mbedtls-2.16.2/library\error.c **** #endif /* MBEDTLS_PEM_PARSE_C || MBEDTLS_PEM_WRITE_C */
 333:C:/Users/dtjld/workspace/AIoT/src/LiteOS_Lab/iot_link/network/dtls/mbedtls/mbedtls-2.16.2/library\error.c **** 
 334:C:/Users/dtjld/workspace/AIoT/src/LiteOS_Lab/iot_link/network/dtls/mbedtls/mbedtls-2.16.2/library\error.c **** #if defined(MBEDTLS_PK_C)
 335:C:/Users/dtjld/workspace/AIoT/src/LiteOS_Lab/iot_link/network/dtls/mbedtls/mbedtls-2.16.2/library\error.c ****         if( use_ret == -(MBEDTLS_ERR_PK_ALLOC_FAILED) )
 1409              		.loc 1 335 0
 1410 0414 7B69     		ldr	r3, [r7, #20]
 1411 0416 B3F57E5F 		cmp	r3, #16256
 1412 041a 05D1     		bne	.L49
 336:C:/Users/dtjld/workspace/AIoT/src/LiteOS_Lab/iot_link/network/dtls/mbedtls/mbedtls-2.16.2/library\error.c ****             mbedtls_snprintf( buf, buflen, "PK - Memory allocation failed" );
 1413              		.loc 1 336 0
 1414 041c 444B     		ldr	r3, .L233+4
 1415 041e 1B68     		ldr	r3, [r3]
 1416 0420 524A     		ldr	r2, .L233+64
 1417 0422 7968     		ldr	r1, [r7, #4]
 1418 0424 B868     		ldr	r0, [r7, #8]
 1419 0426 9847     		blx	r3
 1420              	.LVL43:
 1421              	.L49:
 337:C:/Users/dtjld/workspace/AIoT/src/LiteOS_Lab/iot_link/network/dtls/mbedtls/mbedtls-2.16.2/library\error.c ****         if( use_ret == -(MBEDTLS_ERR_PK_TYPE_MISMATCH) )
 1422              		.loc 1 337 0
 1423 0428 7B69     		ldr	r3, [r7, #20]
 1424 042a B3F57C5F 		cmp	r3, #16128
 1425 042e 05D1     		bne	.L50
 338:C:/Users/dtjld/workspace/AIoT/src/LiteOS_Lab/iot_link/network/dtls/mbedtls/mbedtls-2.16.2/library\error.c ****             mbedtls_snprintf( buf, buflen, "PK - Type mismatch, eg attempt to encrypt with an ECDSA
 1426              		.loc 1 338 0
 1427 0430 3F4B     		ldr	r3, .L233+4
 1428 0432 1B68     		ldr	r3, [r3]
 1429 0434 4E4A     		ldr	r2, .L233+68
 1430 0436 7968     		ldr	r1, [r7, #4]
 1431 0438 B868     		ldr	r0, [r7, #8]
 1432 043a 9847     		blx	r3
 1433              	.LVL44:
 1434              	.L50:
ARM GAS  C:\Users\dtjld\AppData\Local\Temp\ccjG0xZ1.s 			page 51


 339:C:/Users/dtjld/workspace/AIoT/src/LiteOS_Lab/iot_link/network/dtls/mbedtls/mbedtls-2.16.2/library\error.c ****         if( use_ret == -(MBEDTLS_ERR_PK_BAD_INPUT_DATA) )
 1435              		.loc 1 339 0
 1436 043c 7B69     		ldr	r3, [r7, #20]
 1437 043e B3F57A5F 		cmp	r3, #16000
 1438 0442 05D1     		bne	.L51
 340:C:/Users/dtjld/workspace/AIoT/src/LiteOS_Lab/iot_link/network/dtls/mbedtls/mbedtls-2.16.2/library\error.c ****             mbedtls_snprintf( buf, buflen, "PK - Bad input parameters to function" );
 1439              		.loc 1 340 0
 1440 0444 3A4B     		ldr	r3, .L233+4
 1441 0446 1B68     		ldr	r3, [r3]
 1442 0448 4A4A     		ldr	r2, .L233+72
 1443 044a 7968     		ldr	r1, [r7, #4]
 1444 044c B868     		ldr	r0, [r7, #8]
 1445 044e 9847     		blx	r3
 1446              	.LVL45:
 1447              	.L51:
 341:C:/Users/dtjld/workspace/AIoT/src/LiteOS_Lab/iot_link/network/dtls/mbedtls/mbedtls-2.16.2/library\error.c ****         if( use_ret == -(MBEDTLS_ERR_PK_FILE_IO_ERROR) )
 1448              		.loc 1 341 0
 1449 0450 7B69     		ldr	r3, [r7, #20]
 1450 0452 B3F5785F 		cmp	r3, #15872
 1451 0456 05D1     		bne	.L52
 342:C:/Users/dtjld/workspace/AIoT/src/LiteOS_Lab/iot_link/network/dtls/mbedtls/mbedtls-2.16.2/library\error.c ****             mbedtls_snprintf( buf, buflen, "PK - Read/write of file failed" );
 1452              		.loc 1 342 0
 1453 0458 354B     		ldr	r3, .L233+4
 1454 045a 1B68     		ldr	r3, [r3]
 1455 045c 464A     		ldr	r2, .L233+76
 1456 045e 7968     		ldr	r1, [r7, #4]
 1457 0460 B868     		ldr	r0, [r7, #8]
 1458 0462 9847     		blx	r3
 1459              	.LVL46:
 1460              	.L52:
 343:C:/Users/dtjld/workspace/AIoT/src/LiteOS_Lab/iot_link/network/dtls/mbedtls/mbedtls-2.16.2/library\error.c ****         if( use_ret == -(MBEDTLS_ERR_PK_KEY_INVALID_VERSION) )
 1461              		.loc 1 343 0
 1462 0464 7B69     		ldr	r3, [r7, #20]
 1463 0466 B3F5765F 		cmp	r3, #15744
 1464 046a 05D1     		bne	.L53
 344:C:/Users/dtjld/workspace/AIoT/src/LiteOS_Lab/iot_link/network/dtls/mbedtls/mbedtls-2.16.2/library\error.c ****             mbedtls_snprintf( buf, buflen, "PK - Unsupported key version" );
 1465              		.loc 1 344 0
 1466 046c 304B     		ldr	r3, .L233+4
 1467 046e 1B68     		ldr	r3, [r3]
 1468 0470 424A     		ldr	r2, .L233+80
 1469 0472 7968     		ldr	r1, [r7, #4]
 1470 0474 B868     		ldr	r0, [r7, #8]
 1471 0476 9847     		blx	r3
 1472              	.LVL47:
 1473              	.L53:
 345:C:/Users/dtjld/workspace/AIoT/src/LiteOS_Lab/iot_link/network/dtls/mbedtls/mbedtls-2.16.2/library\error.c ****         if( use_ret == -(MBEDTLS_ERR_PK_KEY_INVALID_FORMAT) )
 1474              		.loc 1 345 0
 1475 0478 7B69     		ldr	r3, [r7, #20]
 1476 047a B3F5745F 		cmp	r3, #15616
 1477 047e 05D1     		bne	.L54
 346:C:/Users/dtjld/workspace/AIoT/src/LiteOS_Lab/iot_link/network/dtls/mbedtls/mbedtls-2.16.2/library\error.c ****             mbedtls_snprintf( buf, buflen, "PK - Invalid key tag or value" );
 1478              		.loc 1 346 0
 1479 0480 2B4B     		ldr	r3, .L233+4
 1480 0482 1B68     		ldr	r3, [r3]
 1481 0484 3E4A     		ldr	r2, .L233+84
 1482 0486 7968     		ldr	r1, [r7, #4]
 1483 0488 B868     		ldr	r0, [r7, #8]
ARM GAS  C:\Users\dtjld\AppData\Local\Temp\ccjG0xZ1.s 			page 52


 1484 048a 9847     		blx	r3
 1485              	.LVL48:
 1486              	.L54:
 347:C:/Users/dtjld/workspace/AIoT/src/LiteOS_Lab/iot_link/network/dtls/mbedtls/mbedtls-2.16.2/library\error.c ****         if( use_ret == -(MBEDTLS_ERR_PK_UNKNOWN_PK_ALG) )
 1487              		.loc 1 347 0
 1488 048c 7B69     		ldr	r3, [r7, #20]
 1489 048e B3F5725F 		cmp	r3, #15488
 1490 0492 05D1     		bne	.L55
 348:C:/Users/dtjld/workspace/AIoT/src/LiteOS_Lab/iot_link/network/dtls/mbedtls/mbedtls-2.16.2/library\error.c ****             mbedtls_snprintf( buf, buflen, "PK - Key algorithm is unsupported (only RSA and EC are 
 1491              		.loc 1 348 0
 1492 0494 264B     		ldr	r3, .L233+4
 1493 0496 1B68     		ldr	r3, [r3]
 1494 0498 3A4A     		ldr	r2, .L233+88
 1495 049a 7968     		ldr	r1, [r7, #4]
 1496 049c B868     		ldr	r0, [r7, #8]
 1497 049e 9847     		blx	r3
 1498              	.LVL49:
 1499              	.L55:
 349:C:/Users/dtjld/workspace/AIoT/src/LiteOS_Lab/iot_link/network/dtls/mbedtls/mbedtls-2.16.2/library\error.c ****         if( use_ret == -(MBEDTLS_ERR_PK_PASSWORD_REQUIRED) )
 1500              		.loc 1 349 0
 1501 04a0 7B69     		ldr	r3, [r7, #20]
 1502 04a2 B3F5705F 		cmp	r3, #15360
 1503 04a6 05D1     		bne	.L56
 350:C:/Users/dtjld/workspace/AIoT/src/LiteOS_Lab/iot_link/network/dtls/mbedtls/mbedtls-2.16.2/library\error.c ****             mbedtls_snprintf( buf, buflen, "PK - Private key password can't be empty" );
 1504              		.loc 1 350 0
 1505 04a8 214B     		ldr	r3, .L233+4
 1506 04aa 1B68     		ldr	r3, [r3]
 1507 04ac 364A     		ldr	r2, .L233+92
 1508 04ae 7968     		ldr	r1, [r7, #4]
 1509 04b0 B868     		ldr	r0, [r7, #8]
 1510 04b2 9847     		blx	r3
 1511              	.LVL50:
 1512              	.L56:
 351:C:/Users/dtjld/workspace/AIoT/src/LiteOS_Lab/iot_link/network/dtls/mbedtls/mbedtls-2.16.2/library\error.c ****         if( use_ret == -(MBEDTLS_ERR_PK_PASSWORD_MISMATCH) )
 1513              		.loc 1 351 0
 1514 04b4 7B69     		ldr	r3, [r7, #20]
 1515 04b6 B3F56E5F 		cmp	r3, #15232
 1516 04ba 05D1     		bne	.L57
 352:C:/Users/dtjld/workspace/AIoT/src/LiteOS_Lab/iot_link/network/dtls/mbedtls/mbedtls-2.16.2/library\error.c ****             mbedtls_snprintf( buf, buflen, "PK - Given private key password does not allow for corr
 1517              		.loc 1 352 0
 1518 04bc 1C4B     		ldr	r3, .L233+4
 1519 04be 1B68     		ldr	r3, [r3]
 1520 04c0 324A     		ldr	r2, .L233+96
 1521 04c2 7968     		ldr	r1, [r7, #4]
 1522 04c4 B868     		ldr	r0, [r7, #8]
 1523 04c6 9847     		blx	r3
 1524              	.LVL51:
 1525              	.L57:
 353:C:/Users/dtjld/workspace/AIoT/src/LiteOS_Lab/iot_link/network/dtls/mbedtls/mbedtls-2.16.2/library\error.c ****         if( use_ret == -(MBEDTLS_ERR_PK_INVALID_PUBKEY) )
 1526              		.loc 1 353 0
 1527 04c8 7B69     		ldr	r3, [r7, #20]
 1528 04ca B3F56C5F 		cmp	r3, #15104
 1529 04ce 05D1     		bne	.L58
 354:C:/Users/dtjld/workspace/AIoT/src/LiteOS_Lab/iot_link/network/dtls/mbedtls/mbedtls-2.16.2/library\error.c ****             mbedtls_snprintf( buf, buflen, "PK - The pubkey tag or value is invalid (only RSA and E
 1530              		.loc 1 354 0
 1531 04d0 174B     		ldr	r3, .L233+4
 1532 04d2 1B68     		ldr	r3, [r3]
ARM GAS  C:\Users\dtjld\AppData\Local\Temp\ccjG0xZ1.s 			page 53


 1533 04d4 2E4A     		ldr	r2, .L233+100
 1534 04d6 7968     		ldr	r1, [r7, #4]
 1535 04d8 B868     		ldr	r0, [r7, #8]
 1536 04da 9847     		blx	r3
 1537              	.LVL52:
 1538              	.L58:
 355:C:/Users/dtjld/workspace/AIoT/src/LiteOS_Lab/iot_link/network/dtls/mbedtls/mbedtls-2.16.2/library\error.c ****         if( use_ret == -(MBEDTLS_ERR_PK_INVALID_ALG) )
 1539              		.loc 1 355 0
 1540 04dc 7B69     		ldr	r3, [r7, #20]
 1541 04de B3F56A5F 		cmp	r3, #14976
 1542 04e2 05D1     		bne	.L59
 356:C:/Users/dtjld/workspace/AIoT/src/LiteOS_Lab/iot_link/network/dtls/mbedtls/mbedtls-2.16.2/library\error.c ****             mbedtls_snprintf( buf, buflen, "PK - The algorithm tag or value is invalid" );
 1543              		.loc 1 356 0
 1544 04e4 124B     		ldr	r3, .L233+4
 1545 04e6 1B68     		ldr	r3, [r3]
 1546 04e8 2A4A     		ldr	r2, .L233+104
 1547 04ea 7968     		ldr	r1, [r7, #4]
 1548 04ec B868     		ldr	r0, [r7, #8]
 1549 04ee 9847     		blx	r3
 1550              	.LVL53:
 1551              	.L59:
 357:C:/Users/dtjld/workspace/AIoT/src/LiteOS_Lab/iot_link/network/dtls/mbedtls/mbedtls-2.16.2/library\error.c ****         if( use_ret == -(MBEDTLS_ERR_PK_UNKNOWN_NAMED_CURVE) )
 1552              		.loc 1 357 0
 1553 04f0 7B69     		ldr	r3, [r7, #20]
 1554 04f2 B3F5685F 		cmp	r3, #14848
 1555 04f6 05D1     		bne	.L60
 358:C:/Users/dtjld/workspace/AIoT/src/LiteOS_Lab/iot_link/network/dtls/mbedtls/mbedtls-2.16.2/library\error.c ****             mbedtls_snprintf( buf, buflen, "PK - Elliptic curve is unsupported (only NIST curves ar
 1556              		.loc 1 358 0
 1557 04f8 0D4B     		ldr	r3, .L233+4
 1558 04fa 1B68     		ldr	r3, [r3]
 1559 04fc 264A     		ldr	r2, .L233+108
 1560 04fe 7968     		ldr	r1, [r7, #4]
 1561 0500 B868     		ldr	r0, [r7, #8]
 1562 0502 9847     		blx	r3
 1563              	.LVL54:
 1564              	.L60:
 359:C:/Users/dtjld/workspace/AIoT/src/LiteOS_Lab/iot_link/network/dtls/mbedtls/mbedtls-2.16.2/library\error.c ****         if( use_ret == -(MBEDTLS_ERR_PK_FEATURE_UNAVAILABLE) )
 1565              		.loc 1 359 0
 1566 0504 7B69     		ldr	r3, [r7, #20]
 1567 0506 B3F5665F 		cmp	r3, #14720
 1568 050a 05D1     		bne	.L61
 360:C:/Users/dtjld/workspace/AIoT/src/LiteOS_Lab/iot_link/network/dtls/mbedtls/mbedtls-2.16.2/library\error.c ****             mbedtls_snprintf( buf, buflen, "PK - Unavailable feature, e.g. RSA disabled for RSA key
 1569              		.loc 1 360 0
 1570 050c 084B     		ldr	r3, .L233+4
 1571 050e 1B68     		ldr	r3, [r3]
 1572 0510 224A     		ldr	r2, .L233+112
 1573 0512 7968     		ldr	r1, [r7, #4]
 1574 0514 B868     		ldr	r0, [r7, #8]
 1575 0516 9847     		blx	r3
 1576              	.LVL55:
 1577              	.L61:
 361:C:/Users/dtjld/workspace/AIoT/src/LiteOS_Lab/iot_link/network/dtls/mbedtls/mbedtls-2.16.2/library\error.c ****         if( use_ret == -(MBEDTLS_ERR_PK_SIG_LEN_MISMATCH) )
 1578              		.loc 1 361 0
 1579 0518 7B69     		ldr	r3, [r7, #20]
 1580 051a B3F5645F 		cmp	r3, #14592
 1581 051e 43D1     		bne	.L62
 362:C:/Users/dtjld/workspace/AIoT/src/LiteOS_Lab/iot_link/network/dtls/mbedtls/mbedtls-2.16.2/library\error.c ****             mbedtls_snprintf( buf, buflen, "PK - The buffer contains a valid signature followed by 
ARM GAS  C:\Users\dtjld\AppData\Local\Temp\ccjG0xZ1.s 			page 54


 1582              		.loc 1 362 0
 1583 0520 034B     		ldr	r3, .L233+4
 1584 0522 1B68     		ldr	r3, [r3]
 1585 0524 1E4A     		ldr	r2, .L233+116
 1586 0526 7968     		ldr	r1, [r7, #4]
 1587 0528 3CE0     		b	.L234
 1588              	.L235:
 1589 052a 00BF     		.align	2
 1590              	.L233:
 1591 052c 18050000 		.word	.LC28
 1592 0530 00000000 		.word	mbedtls_snprintf
 1593 0534 68050000 		.word	.LC29
 1594 0538 94050000 		.word	.LC30
 1595 053c BC050000 		.word	.LC31
 1596 0540 DC050000 		.word	.LC32
 1597 0544 04060000 		.word	.LC33
 1598 0548 28060000 		.word	.LC34
 1599 054c 4C060000 		.word	.LC35
 1600 0550 70060000 		.word	.LC36
 1601 0554 90060000 		.word	.LC37
 1602 0558 B4060000 		.word	.LC38
 1603 055c E0060000 		.word	.LC39
 1604 0560 0C070000 		.word	.LC40
 1605 0564 54070000 		.word	.LC41
 1606 0568 94070000 		.word	.LC42
 1607 056c BC070000 		.word	.LC43
 1608 0570 DC070000 		.word	.LC44
 1609 0574 18080000 		.word	.LC45
 1610 0578 40080000 		.word	.LC46
 1611 057c 60080000 		.word	.LC47
 1612 0580 80080000 		.word	.LC48
 1613 0584 A0080000 		.word	.LC49
 1614 0588 E4080000 		.word	.LC50
 1615 058c 10090000 		.word	.LC51
 1616 0590 58090000 		.word	.LC52
 1617 0594 A0090000 		.word	.LC53
 1618 0598 CC090000 		.word	.LC54
 1619 059c 100A0000 		.word	.LC55
 1620 05a0 480A0000 		.word	.LC56
 1621              	.L234:
 1622 05a4 B868     		ldr	r0, [r7, #8]
 1623 05a6 9847     		blx	r3
 1624              	.LVL56:
 1625              	.L62:
 363:C:/Users/dtjld/workspace/AIoT/src/LiteOS_Lab/iot_link/network/dtls/mbedtls/mbedtls-2.16.2/library\error.c ****         if( use_ret == -(MBEDTLS_ERR_PK_HW_ACCEL_FAILED) )
 1626              		.loc 1 363 0
 1627 05a8 7B69     		ldr	r3, [r7, #20]
 1628 05aa B3F5625F 		cmp	r3, #14464
 1629 05ae 05D1     		bne	.L63
 364:C:/Users/dtjld/workspace/AIoT/src/LiteOS_Lab/iot_link/network/dtls/mbedtls/mbedtls-2.16.2/library\error.c ****             mbedtls_snprintf( buf, buflen, "PK - PK hardware accelerator failed" );
 1630              		.loc 1 364 0
 1631 05b0 8D4B     		ldr	r3, .L236
 1632 05b2 1B68     		ldr	r3, [r3]
 1633 05b4 8D4A     		ldr	r2, .L236+4
 1634 05b6 7968     		ldr	r1, [r7, #4]
 1635 05b8 B868     		ldr	r0, [r7, #8]
 1636 05ba 9847     		blx	r3
ARM GAS  C:\Users\dtjld\AppData\Local\Temp\ccjG0xZ1.s 			page 55


 1637              	.LVL57:
 1638              	.L63:
 365:C:/Users/dtjld/workspace/AIoT/src/LiteOS_Lab/iot_link/network/dtls/mbedtls/mbedtls-2.16.2/library\error.c **** #endif /* MBEDTLS_PK_C */
 366:C:/Users/dtjld/workspace/AIoT/src/LiteOS_Lab/iot_link/network/dtls/mbedtls/mbedtls-2.16.2/library\error.c **** 
 367:C:/Users/dtjld/workspace/AIoT/src/LiteOS_Lab/iot_link/network/dtls/mbedtls/mbedtls-2.16.2/library\error.c **** #if defined(MBEDTLS_PKCS12_C)
 368:C:/Users/dtjld/workspace/AIoT/src/LiteOS_Lab/iot_link/network/dtls/mbedtls/mbedtls-2.16.2/library\error.c ****         if( use_ret == -(MBEDTLS_ERR_PKCS12_BAD_INPUT_DATA) )
 1639              		.loc 1 368 0
 1640 05bc 7B69     		ldr	r3, [r7, #20]
 1641 05be B3F5FC5F 		cmp	r3, #8064
 1642 05c2 05D1     		bne	.L64
 369:C:/Users/dtjld/workspace/AIoT/src/LiteOS_Lab/iot_link/network/dtls/mbedtls/mbedtls-2.16.2/library\error.c ****             mbedtls_snprintf( buf, buflen, "PKCS12 - Bad input parameters to function" );
 1643              		.loc 1 369 0
 1644 05c4 884B     		ldr	r3, .L236
 1645 05c6 1B68     		ldr	r3, [r3]
 1646 05c8 894A     		ldr	r2, .L236+8
 1647 05ca 7968     		ldr	r1, [r7, #4]
 1648 05cc B868     		ldr	r0, [r7, #8]
 1649 05ce 9847     		blx	r3
 1650              	.LVL58:
 1651              	.L64:
 370:C:/Users/dtjld/workspace/AIoT/src/LiteOS_Lab/iot_link/network/dtls/mbedtls/mbedtls-2.16.2/library\error.c ****         if( use_ret == -(MBEDTLS_ERR_PKCS12_FEATURE_UNAVAILABLE) )
 1652              		.loc 1 370 0
 1653 05d0 7B69     		ldr	r3, [r7, #20]
 1654 05d2 B3F5F85F 		cmp	r3, #7936
 1655 05d6 05D1     		bne	.L65
 371:C:/Users/dtjld/workspace/AIoT/src/LiteOS_Lab/iot_link/network/dtls/mbedtls/mbedtls-2.16.2/library\error.c ****             mbedtls_snprintf( buf, buflen, "PKCS12 - Feature not available, e.g. unsupported encryp
 1656              		.loc 1 371 0
 1657 05d8 834B     		ldr	r3, .L236
 1658 05da 1B68     		ldr	r3, [r3]
 1659 05dc 854A     		ldr	r2, .L236+12
 1660 05de 7968     		ldr	r1, [r7, #4]
 1661 05e0 B868     		ldr	r0, [r7, #8]
 1662 05e2 9847     		blx	r3
 1663              	.LVL59:
 1664              	.L65:
 372:C:/Users/dtjld/workspace/AIoT/src/LiteOS_Lab/iot_link/network/dtls/mbedtls/mbedtls-2.16.2/library\error.c ****         if( use_ret == -(MBEDTLS_ERR_PKCS12_PBE_INVALID_FORMAT) )
 1665              		.loc 1 372 0
 1666 05e4 7B69     		ldr	r3, [r7, #20]
 1667 05e6 B3F5F45F 		cmp	r3, #7808
 1668 05ea 05D1     		bne	.L66
 373:C:/Users/dtjld/workspace/AIoT/src/LiteOS_Lab/iot_link/network/dtls/mbedtls/mbedtls-2.16.2/library\error.c ****             mbedtls_snprintf( buf, buflen, "PKCS12 - PBE ASN.1 data not as expected" );
 1669              		.loc 1 373 0
 1670 05ec 7E4B     		ldr	r3, .L236
 1671 05ee 1B68     		ldr	r3, [r3]
 1672 05f0 814A     		ldr	r2, .L236+16
 1673 05f2 7968     		ldr	r1, [r7, #4]
 1674 05f4 B868     		ldr	r0, [r7, #8]
 1675 05f6 9847     		blx	r3
 1676              	.LVL60:
 1677              	.L66:
 374:C:/Users/dtjld/workspace/AIoT/src/LiteOS_Lab/iot_link/network/dtls/mbedtls/mbedtls-2.16.2/library\error.c ****         if( use_ret == -(MBEDTLS_ERR_PKCS12_PASSWORD_MISMATCH) )
 1678              		.loc 1 374 0
 1679 05f8 7B69     		ldr	r3, [r7, #20]
 1680 05fa B3F5F05F 		cmp	r3, #7680
 1681 05fe 05D1     		bne	.L67
 375:C:/Users/dtjld/workspace/AIoT/src/LiteOS_Lab/iot_link/network/dtls/mbedtls/mbedtls-2.16.2/library\error.c ****             mbedtls_snprintf( buf, buflen, "PKCS12 - Given private key password does not allow for 
 1682              		.loc 1 375 0
ARM GAS  C:\Users\dtjld\AppData\Local\Temp\ccjG0xZ1.s 			page 56


 1683 0600 794B     		ldr	r3, .L236
 1684 0602 1B68     		ldr	r3, [r3]
 1685 0604 7D4A     		ldr	r2, .L236+20
 1686 0606 7968     		ldr	r1, [r7, #4]
 1687 0608 B868     		ldr	r0, [r7, #8]
 1688 060a 9847     		blx	r3
 1689              	.LVL61:
 1690              	.L67:
 376:C:/Users/dtjld/workspace/AIoT/src/LiteOS_Lab/iot_link/network/dtls/mbedtls/mbedtls-2.16.2/library\error.c **** #endif /* MBEDTLS_PKCS12_C */
 377:C:/Users/dtjld/workspace/AIoT/src/LiteOS_Lab/iot_link/network/dtls/mbedtls/mbedtls-2.16.2/library\error.c **** 
 378:C:/Users/dtjld/workspace/AIoT/src/LiteOS_Lab/iot_link/network/dtls/mbedtls/mbedtls-2.16.2/library\error.c **** #if defined(MBEDTLS_PKCS5_C)
 379:C:/Users/dtjld/workspace/AIoT/src/LiteOS_Lab/iot_link/network/dtls/mbedtls/mbedtls-2.16.2/library\error.c ****         if( use_ret == -(MBEDTLS_ERR_PKCS5_BAD_INPUT_DATA) )
 1691              		.loc 1 379 0
 1692 060c 7B69     		ldr	r3, [r7, #20]
 1693 060e B3F53E5F 		cmp	r3, #12160
 1694 0612 05D1     		bne	.L68
 380:C:/Users/dtjld/workspace/AIoT/src/LiteOS_Lab/iot_link/network/dtls/mbedtls/mbedtls-2.16.2/library\error.c ****             mbedtls_snprintf( buf, buflen, "PKCS5 - Bad input parameters to function" );
 1695              		.loc 1 380 0
 1696 0614 744B     		ldr	r3, .L236
 1697 0616 1B68     		ldr	r3, [r3]
 1698 0618 794A     		ldr	r2, .L236+24
 1699 061a 7968     		ldr	r1, [r7, #4]
 1700 061c B868     		ldr	r0, [r7, #8]
 1701 061e 9847     		blx	r3
 1702              	.LVL62:
 1703              	.L68:
 381:C:/Users/dtjld/workspace/AIoT/src/LiteOS_Lab/iot_link/network/dtls/mbedtls/mbedtls-2.16.2/library\error.c ****         if( use_ret == -(MBEDTLS_ERR_PKCS5_INVALID_FORMAT) )
 1704              		.loc 1 381 0
 1705 0620 7B69     		ldr	r3, [r7, #20]
 1706 0622 B3F53C5F 		cmp	r3, #12032
 1707 0626 05D1     		bne	.L69
 382:C:/Users/dtjld/workspace/AIoT/src/LiteOS_Lab/iot_link/network/dtls/mbedtls/mbedtls-2.16.2/library\error.c ****             mbedtls_snprintf( buf, buflen, "PKCS5 - Unexpected ASN.1 data" );
 1708              		.loc 1 382 0
 1709 0628 6F4B     		ldr	r3, .L236
 1710 062a 1B68     		ldr	r3, [r3]
 1711 062c 754A     		ldr	r2, .L236+28
 1712 062e 7968     		ldr	r1, [r7, #4]
 1713 0630 B868     		ldr	r0, [r7, #8]
 1714 0632 9847     		blx	r3
 1715              	.LVL63:
 1716              	.L69:
 383:C:/Users/dtjld/workspace/AIoT/src/LiteOS_Lab/iot_link/network/dtls/mbedtls/mbedtls-2.16.2/library\error.c ****         if( use_ret == -(MBEDTLS_ERR_PKCS5_FEATURE_UNAVAILABLE) )
 1717              		.loc 1 383 0
 1718 0634 7B69     		ldr	r3, [r7, #20]
 1719 0636 B3F53A5F 		cmp	r3, #11904
 1720 063a 05D1     		bne	.L70
 384:C:/Users/dtjld/workspace/AIoT/src/LiteOS_Lab/iot_link/network/dtls/mbedtls/mbedtls-2.16.2/library\error.c ****             mbedtls_snprintf( buf, buflen, "PKCS5 - Requested encryption or digest alg not availabl
 1721              		.loc 1 384 0
 1722 063c 6A4B     		ldr	r3, .L236
 1723 063e 1B68     		ldr	r3, [r3]
 1724 0640 714A     		ldr	r2, .L236+32
 1725 0642 7968     		ldr	r1, [r7, #4]
 1726 0644 B868     		ldr	r0, [r7, #8]
 1727 0646 9847     		blx	r3
 1728              	.LVL64:
 1729              	.L70:
 385:C:/Users/dtjld/workspace/AIoT/src/LiteOS_Lab/iot_link/network/dtls/mbedtls/mbedtls-2.16.2/library\error.c ****         if( use_ret == -(MBEDTLS_ERR_PKCS5_PASSWORD_MISMATCH) )
ARM GAS  C:\Users\dtjld\AppData\Local\Temp\ccjG0xZ1.s 			page 57


 1730              		.loc 1 385 0
 1731 0648 7B69     		ldr	r3, [r7, #20]
 1732 064a B3F5385F 		cmp	r3, #11776
 1733 064e 05D1     		bne	.L71
 386:C:/Users/dtjld/workspace/AIoT/src/LiteOS_Lab/iot_link/network/dtls/mbedtls/mbedtls-2.16.2/library\error.c ****             mbedtls_snprintf( buf, buflen, "PKCS5 - Given private key password does not allow for c
 1734              		.loc 1 386 0
 1735 0650 654B     		ldr	r3, .L236
 1736 0652 1B68     		ldr	r3, [r3]
 1737 0654 6D4A     		ldr	r2, .L236+36
 1738 0656 7968     		ldr	r1, [r7, #4]
 1739 0658 B868     		ldr	r0, [r7, #8]
 1740 065a 9847     		blx	r3
 1741              	.LVL65:
 1742              	.L71:
 387:C:/Users/dtjld/workspace/AIoT/src/LiteOS_Lab/iot_link/network/dtls/mbedtls/mbedtls-2.16.2/library\error.c **** #endif /* MBEDTLS_PKCS5_C */
 388:C:/Users/dtjld/workspace/AIoT/src/LiteOS_Lab/iot_link/network/dtls/mbedtls/mbedtls-2.16.2/library\error.c **** 
 389:C:/Users/dtjld/workspace/AIoT/src/LiteOS_Lab/iot_link/network/dtls/mbedtls/mbedtls-2.16.2/library\error.c **** #if defined(MBEDTLS_RSA_C)
 390:C:/Users/dtjld/workspace/AIoT/src/LiteOS_Lab/iot_link/network/dtls/mbedtls/mbedtls-2.16.2/library\error.c ****         if( use_ret == -(MBEDTLS_ERR_RSA_BAD_INPUT_DATA) )
 1743              		.loc 1 390 0
 1744 065c 7B69     		ldr	r3, [r7, #20]
 1745 065e B3F5814F 		cmp	r3, #16512
 1746 0662 05D1     		bne	.L72
 391:C:/Users/dtjld/workspace/AIoT/src/LiteOS_Lab/iot_link/network/dtls/mbedtls/mbedtls-2.16.2/library\error.c ****             mbedtls_snprintf( buf, buflen, "RSA - Bad input parameters to function" );
 1747              		.loc 1 391 0
 1748 0664 604B     		ldr	r3, .L236
 1749 0666 1B68     		ldr	r3, [r3]
 1750 0668 694A     		ldr	r2, .L236+40
 1751 066a 7968     		ldr	r1, [r7, #4]
 1752 066c B868     		ldr	r0, [r7, #8]
 1753 066e 9847     		blx	r3
 1754              	.LVL66:
 1755              	.L72:
 392:C:/Users/dtjld/workspace/AIoT/src/LiteOS_Lab/iot_link/network/dtls/mbedtls/mbedtls-2.16.2/library\error.c ****         if( use_ret == -(MBEDTLS_ERR_RSA_INVALID_PADDING) )
 1756              		.loc 1 392 0
 1757 0670 7B69     		ldr	r3, [r7, #20]
 1758 0672 B3F5824F 		cmp	r3, #16640
 1759 0676 05D1     		bne	.L73
 393:C:/Users/dtjld/workspace/AIoT/src/LiteOS_Lab/iot_link/network/dtls/mbedtls/mbedtls-2.16.2/library\error.c ****             mbedtls_snprintf( buf, buflen, "RSA - Input data contains invalid padding and is reject
 1760              		.loc 1 393 0
 1761 0678 5B4B     		ldr	r3, .L236
 1762 067a 1B68     		ldr	r3, [r3]
 1763 067c 654A     		ldr	r2, .L236+44
 1764 067e 7968     		ldr	r1, [r7, #4]
 1765 0680 B868     		ldr	r0, [r7, #8]
 1766 0682 9847     		blx	r3
 1767              	.LVL67:
 1768              	.L73:
 394:C:/Users/dtjld/workspace/AIoT/src/LiteOS_Lab/iot_link/network/dtls/mbedtls/mbedtls-2.16.2/library\error.c ****         if( use_ret == -(MBEDTLS_ERR_RSA_KEY_GEN_FAILED) )
 1769              		.loc 1 394 0
 1770 0684 7B69     		ldr	r3, [r7, #20]
 1771 0686 B3F5834F 		cmp	r3, #16768
 1772 068a 05D1     		bne	.L74
 395:C:/Users/dtjld/workspace/AIoT/src/LiteOS_Lab/iot_link/network/dtls/mbedtls/mbedtls-2.16.2/library\error.c ****             mbedtls_snprintf( buf, buflen, "RSA - Something failed during generation of a key" );
 1773              		.loc 1 395 0
 1774 068c 564B     		ldr	r3, .L236
 1775 068e 1B68     		ldr	r3, [r3]
 1776 0690 614A     		ldr	r2, .L236+48
ARM GAS  C:\Users\dtjld\AppData\Local\Temp\ccjG0xZ1.s 			page 58


 1777 0692 7968     		ldr	r1, [r7, #4]
 1778 0694 B868     		ldr	r0, [r7, #8]
 1779 0696 9847     		blx	r3
 1780              	.LVL68:
 1781              	.L74:
 396:C:/Users/dtjld/workspace/AIoT/src/LiteOS_Lab/iot_link/network/dtls/mbedtls/mbedtls-2.16.2/library\error.c ****         if( use_ret == -(MBEDTLS_ERR_RSA_KEY_CHECK_FAILED) )
 1782              		.loc 1 396 0
 1783 0698 7B69     		ldr	r3, [r7, #20]
 1784 069a B3F5844F 		cmp	r3, #16896
 1785 069e 05D1     		bne	.L75
 397:C:/Users/dtjld/workspace/AIoT/src/LiteOS_Lab/iot_link/network/dtls/mbedtls/mbedtls-2.16.2/library\error.c ****             mbedtls_snprintf( buf, buflen, "RSA - Key failed to pass the validity check of the libr
 1786              		.loc 1 397 0
 1787 06a0 514B     		ldr	r3, .L236
 1788 06a2 1B68     		ldr	r3, [r3]
 1789 06a4 5D4A     		ldr	r2, .L236+52
 1790 06a6 7968     		ldr	r1, [r7, #4]
 1791 06a8 B868     		ldr	r0, [r7, #8]
 1792 06aa 9847     		blx	r3
 1793              	.LVL69:
 1794              	.L75:
 398:C:/Users/dtjld/workspace/AIoT/src/LiteOS_Lab/iot_link/network/dtls/mbedtls/mbedtls-2.16.2/library\error.c ****         if( use_ret == -(MBEDTLS_ERR_RSA_PUBLIC_FAILED) )
 1795              		.loc 1 398 0
 1796 06ac 7B69     		ldr	r3, [r7, #20]
 1797 06ae B3F5854F 		cmp	r3, #17024
 1798 06b2 05D1     		bne	.L76
 399:C:/Users/dtjld/workspace/AIoT/src/LiteOS_Lab/iot_link/network/dtls/mbedtls/mbedtls-2.16.2/library\error.c ****             mbedtls_snprintf( buf, buflen, "RSA - The public key operation failed" );
 1799              		.loc 1 399 0
 1800 06b4 4C4B     		ldr	r3, .L236
 1801 06b6 1B68     		ldr	r3, [r3]
 1802 06b8 594A     		ldr	r2, .L236+56
 1803 06ba 7968     		ldr	r1, [r7, #4]
 1804 06bc B868     		ldr	r0, [r7, #8]
 1805 06be 9847     		blx	r3
 1806              	.LVL70:
 1807              	.L76:
 400:C:/Users/dtjld/workspace/AIoT/src/LiteOS_Lab/iot_link/network/dtls/mbedtls/mbedtls-2.16.2/library\error.c ****         if( use_ret == -(MBEDTLS_ERR_RSA_PRIVATE_FAILED) )
 1808              		.loc 1 400 0
 1809 06c0 7B69     		ldr	r3, [r7, #20]
 1810 06c2 B3F5864F 		cmp	r3, #17152
 1811 06c6 05D1     		bne	.L77
 401:C:/Users/dtjld/workspace/AIoT/src/LiteOS_Lab/iot_link/network/dtls/mbedtls/mbedtls-2.16.2/library\error.c ****             mbedtls_snprintf( buf, buflen, "RSA - The private key operation failed" );
 1812              		.loc 1 401 0
 1813 06c8 474B     		ldr	r3, .L236
 1814 06ca 1B68     		ldr	r3, [r3]
 1815 06cc 554A     		ldr	r2, .L236+60
 1816 06ce 7968     		ldr	r1, [r7, #4]
 1817 06d0 B868     		ldr	r0, [r7, #8]
 1818 06d2 9847     		blx	r3
 1819              	.LVL71:
 1820              	.L77:
 402:C:/Users/dtjld/workspace/AIoT/src/LiteOS_Lab/iot_link/network/dtls/mbedtls/mbedtls-2.16.2/library\error.c ****         if( use_ret == -(MBEDTLS_ERR_RSA_VERIFY_FAILED) )
 1821              		.loc 1 402 0
 1822 06d4 7B69     		ldr	r3, [r7, #20]
 1823 06d6 B3F5874F 		cmp	r3, #17280
 1824 06da 05D1     		bne	.L78
 403:C:/Users/dtjld/workspace/AIoT/src/LiteOS_Lab/iot_link/network/dtls/mbedtls/mbedtls-2.16.2/library\error.c ****             mbedtls_snprintf( buf, buflen, "RSA - The PKCS#1 verification failed" );
 1825              		.loc 1 403 0
ARM GAS  C:\Users\dtjld\AppData\Local\Temp\ccjG0xZ1.s 			page 59


 1826 06dc 424B     		ldr	r3, .L236
 1827 06de 1B68     		ldr	r3, [r3]
 1828 06e0 514A     		ldr	r2, .L236+64
 1829 06e2 7968     		ldr	r1, [r7, #4]
 1830 06e4 B868     		ldr	r0, [r7, #8]
 1831 06e6 9847     		blx	r3
 1832              	.LVL72:
 1833              	.L78:
 404:C:/Users/dtjld/workspace/AIoT/src/LiteOS_Lab/iot_link/network/dtls/mbedtls/mbedtls-2.16.2/library\error.c ****         if( use_ret == -(MBEDTLS_ERR_RSA_OUTPUT_TOO_LARGE) )
 1834              		.loc 1 404 0
 1835 06e8 7B69     		ldr	r3, [r7, #20]
 1836 06ea B3F5884F 		cmp	r3, #17408
 1837 06ee 05D1     		bne	.L79
 405:C:/Users/dtjld/workspace/AIoT/src/LiteOS_Lab/iot_link/network/dtls/mbedtls/mbedtls-2.16.2/library\error.c ****             mbedtls_snprintf( buf, buflen, "RSA - The output buffer for decryption is not large eno
 1838              		.loc 1 405 0
 1839 06f0 3D4B     		ldr	r3, .L236
 1840 06f2 1B68     		ldr	r3, [r3]
 1841 06f4 4D4A     		ldr	r2, .L236+68
 1842 06f6 7968     		ldr	r1, [r7, #4]
 1843 06f8 B868     		ldr	r0, [r7, #8]
 1844 06fa 9847     		blx	r3
 1845              	.LVL73:
 1846              	.L79:
 406:C:/Users/dtjld/workspace/AIoT/src/LiteOS_Lab/iot_link/network/dtls/mbedtls/mbedtls-2.16.2/library\error.c ****         if( use_ret == -(MBEDTLS_ERR_RSA_RNG_FAILED) )
 1847              		.loc 1 406 0
 1848 06fc 7B69     		ldr	r3, [r7, #20]
 1849 06fe B3F5894F 		cmp	r3, #17536
 1850 0702 05D1     		bne	.L80
 407:C:/Users/dtjld/workspace/AIoT/src/LiteOS_Lab/iot_link/network/dtls/mbedtls/mbedtls-2.16.2/library\error.c ****             mbedtls_snprintf( buf, buflen, "RSA - The random generator failed to generate non-zeros
 1851              		.loc 1 407 0
 1852 0704 384B     		ldr	r3, .L236
 1853 0706 1B68     		ldr	r3, [r3]
 1854 0708 494A     		ldr	r2, .L236+72
 1855 070a 7968     		ldr	r1, [r7, #4]
 1856 070c B868     		ldr	r0, [r7, #8]
 1857 070e 9847     		blx	r3
 1858              	.LVL74:
 1859              	.L80:
 408:C:/Users/dtjld/workspace/AIoT/src/LiteOS_Lab/iot_link/network/dtls/mbedtls/mbedtls-2.16.2/library\error.c ****         if( use_ret == -(MBEDTLS_ERR_RSA_UNSUPPORTED_OPERATION) )
 1860              		.loc 1 408 0
 1861 0710 7B69     		ldr	r3, [r7, #20]
 1862 0712 B3F58A4F 		cmp	r3, #17664
 1863 0716 05D1     		bne	.L81
 409:C:/Users/dtjld/workspace/AIoT/src/LiteOS_Lab/iot_link/network/dtls/mbedtls/mbedtls-2.16.2/library\error.c ****             mbedtls_snprintf( buf, buflen, "RSA - The implementation does not offer the requested o
 1864              		.loc 1 409 0
 1865 0718 334B     		ldr	r3, .L236
 1866 071a 1B68     		ldr	r3, [r3]
 1867 071c 454A     		ldr	r2, .L236+76
 1868 071e 7968     		ldr	r1, [r7, #4]
 1869 0720 B868     		ldr	r0, [r7, #8]
 1870 0722 9847     		blx	r3
 1871              	.LVL75:
 1872              	.L81:
 410:C:/Users/dtjld/workspace/AIoT/src/LiteOS_Lab/iot_link/network/dtls/mbedtls/mbedtls-2.16.2/library\error.c ****         if( use_ret == -(MBEDTLS_ERR_RSA_HW_ACCEL_FAILED) )
 1873              		.loc 1 410 0
 1874 0724 7B69     		ldr	r3, [r7, #20]
 1875 0726 B3F58B4F 		cmp	r3, #17792
ARM GAS  C:\Users\dtjld\AppData\Local\Temp\ccjG0xZ1.s 			page 60


 1876 072a 05D1     		bne	.L82
 411:C:/Users/dtjld/workspace/AIoT/src/LiteOS_Lab/iot_link/network/dtls/mbedtls/mbedtls-2.16.2/library\error.c ****             mbedtls_snprintf( buf, buflen, "RSA - RSA hardware accelerator failed" );
 1877              		.loc 1 411 0
 1878 072c 2E4B     		ldr	r3, .L236
 1879 072e 1B68     		ldr	r3, [r3]
 1880 0730 414A     		ldr	r2, .L236+80
 1881 0732 7968     		ldr	r1, [r7, #4]
 1882 0734 B868     		ldr	r0, [r7, #8]
 1883 0736 9847     		blx	r3
 1884              	.LVL76:
 1885              	.L82:
 412:C:/Users/dtjld/workspace/AIoT/src/LiteOS_Lab/iot_link/network/dtls/mbedtls/mbedtls-2.16.2/library\error.c **** #endif /* MBEDTLS_RSA_C */
 413:C:/Users/dtjld/workspace/AIoT/src/LiteOS_Lab/iot_link/network/dtls/mbedtls/mbedtls-2.16.2/library\error.c **** 
 414:C:/Users/dtjld/workspace/AIoT/src/LiteOS_Lab/iot_link/network/dtls/mbedtls/mbedtls-2.16.2/library\error.c **** #if defined(MBEDTLS_SSL_TLS_C)
 415:C:/Users/dtjld/workspace/AIoT/src/LiteOS_Lab/iot_link/network/dtls/mbedtls/mbedtls-2.16.2/library\error.c ****         if( use_ret == -(MBEDTLS_ERR_SSL_FEATURE_UNAVAILABLE) )
 1886              		.loc 1 415 0
 1887 0738 7B69     		ldr	r3, [r7, #20]
 1888 073a B3F5E14F 		cmp	r3, #28800
 1889 073e 05D1     		bne	.L83
 416:C:/Users/dtjld/workspace/AIoT/src/LiteOS_Lab/iot_link/network/dtls/mbedtls/mbedtls-2.16.2/library\error.c ****             mbedtls_snprintf( buf, buflen, "SSL - The requested feature is not available" );
 1890              		.loc 1 416 0
 1891 0740 294B     		ldr	r3, .L236
 1892 0742 1B68     		ldr	r3, [r3]
 1893 0744 3D4A     		ldr	r2, .L236+84
 1894 0746 7968     		ldr	r1, [r7, #4]
 1895 0748 B868     		ldr	r0, [r7, #8]
 1896 074a 9847     		blx	r3
 1897              	.LVL77:
 1898              	.L83:
 417:C:/Users/dtjld/workspace/AIoT/src/LiteOS_Lab/iot_link/network/dtls/mbedtls/mbedtls-2.16.2/library\error.c ****         if( use_ret == -(MBEDTLS_ERR_SSL_BAD_INPUT_DATA) )
 1899              		.loc 1 417 0
 1900 074c 7B69     		ldr	r3, [r7, #20]
 1901 074e B3F5E24F 		cmp	r3, #28928
 1902 0752 05D1     		bne	.L84
 418:C:/Users/dtjld/workspace/AIoT/src/LiteOS_Lab/iot_link/network/dtls/mbedtls/mbedtls-2.16.2/library\error.c ****             mbedtls_snprintf( buf, buflen, "SSL - Bad input parameters to function" );
 1903              		.loc 1 418 0
 1904 0754 244B     		ldr	r3, .L236
 1905 0756 1B68     		ldr	r3, [r3]
 1906 0758 394A     		ldr	r2, .L236+88
 1907 075a 7968     		ldr	r1, [r7, #4]
 1908 075c B868     		ldr	r0, [r7, #8]
 1909 075e 9847     		blx	r3
 1910              	.LVL78:
 1911              	.L84:
 419:C:/Users/dtjld/workspace/AIoT/src/LiteOS_Lab/iot_link/network/dtls/mbedtls/mbedtls-2.16.2/library\error.c ****         if( use_ret == -(MBEDTLS_ERR_SSL_INVALID_MAC) )
 1912              		.loc 1 419 0
 1913 0760 7B69     		ldr	r3, [r7, #20]
 1914 0762 B3F5E34F 		cmp	r3, #29056
 1915 0766 05D1     		bne	.L85
 420:C:/Users/dtjld/workspace/AIoT/src/LiteOS_Lab/iot_link/network/dtls/mbedtls/mbedtls-2.16.2/library\error.c ****             mbedtls_snprintf( buf, buflen, "SSL - Verification of the message MAC failed" );
 1916              		.loc 1 420 0
 1917 0768 1F4B     		ldr	r3, .L236
 1918 076a 1B68     		ldr	r3, [r3]
 1919 076c 354A     		ldr	r2, .L236+92
 1920 076e 7968     		ldr	r1, [r7, #4]
 1921 0770 B868     		ldr	r0, [r7, #8]
 1922 0772 9847     		blx	r3
ARM GAS  C:\Users\dtjld\AppData\Local\Temp\ccjG0xZ1.s 			page 61


 1923              	.LVL79:
 1924              	.L85:
 421:C:/Users/dtjld/workspace/AIoT/src/LiteOS_Lab/iot_link/network/dtls/mbedtls/mbedtls-2.16.2/library\error.c ****         if( use_ret == -(MBEDTLS_ERR_SSL_INVALID_RECORD) )
 1925              		.loc 1 421 0
 1926 0774 7B69     		ldr	r3, [r7, #20]
 1927 0776 B3F5E44F 		cmp	r3, #29184
 1928 077a 05D1     		bne	.L86
 422:C:/Users/dtjld/workspace/AIoT/src/LiteOS_Lab/iot_link/network/dtls/mbedtls/mbedtls-2.16.2/library\error.c ****             mbedtls_snprintf( buf, buflen, "SSL - An invalid SSL record was received" );
 1929              		.loc 1 422 0
 1930 077c 1A4B     		ldr	r3, .L236
 1931 077e 1B68     		ldr	r3, [r3]
 1932 0780 314A     		ldr	r2, .L236+96
 1933 0782 7968     		ldr	r1, [r7, #4]
 1934 0784 B868     		ldr	r0, [r7, #8]
 1935 0786 9847     		blx	r3
 1936              	.LVL80:
 1937              	.L86:
 423:C:/Users/dtjld/workspace/AIoT/src/LiteOS_Lab/iot_link/network/dtls/mbedtls/mbedtls-2.16.2/library\error.c ****         if( use_ret == -(MBEDTLS_ERR_SSL_CONN_EOF) )
 1938              		.loc 1 423 0
 1939 0788 7B69     		ldr	r3, [r7, #20]
 1940 078a B3F5E54F 		cmp	r3, #29312
 1941 078e 05D1     		bne	.L87
 424:C:/Users/dtjld/workspace/AIoT/src/LiteOS_Lab/iot_link/network/dtls/mbedtls/mbedtls-2.16.2/library\error.c ****             mbedtls_snprintf( buf, buflen, "SSL - The connection indicated an EOF" );
 1942              		.loc 1 424 0
 1943 0790 154B     		ldr	r3, .L236
 1944 0792 1B68     		ldr	r3, [r3]
 1945 0794 2D4A     		ldr	r2, .L236+100
 1946 0796 7968     		ldr	r1, [r7, #4]
 1947 0798 B868     		ldr	r0, [r7, #8]
 1948 079a 9847     		blx	r3
 1949              	.LVL81:
 1950              	.L87:
 425:C:/Users/dtjld/workspace/AIoT/src/LiteOS_Lab/iot_link/network/dtls/mbedtls/mbedtls-2.16.2/library\error.c ****         if( use_ret == -(MBEDTLS_ERR_SSL_UNKNOWN_CIPHER) )
 1951              		.loc 1 425 0
 1952 079c 7B69     		ldr	r3, [r7, #20]
 1953 079e B3F5E64F 		cmp	r3, #29440
 1954 07a2 05D1     		bne	.L88
 426:C:/Users/dtjld/workspace/AIoT/src/LiteOS_Lab/iot_link/network/dtls/mbedtls/mbedtls-2.16.2/library\error.c ****             mbedtls_snprintf( buf, buflen, "SSL - An unknown cipher was received" );
 1955              		.loc 1 426 0
 1956 07a4 104B     		ldr	r3, .L236
 1957 07a6 1B68     		ldr	r3, [r3]
 1958 07a8 294A     		ldr	r2, .L236+104
 1959 07aa 7968     		ldr	r1, [r7, #4]
 1960 07ac B868     		ldr	r0, [r7, #8]
 1961 07ae 9847     		blx	r3
 1962              	.LVL82:
 1963              	.L88:
 427:C:/Users/dtjld/workspace/AIoT/src/LiteOS_Lab/iot_link/network/dtls/mbedtls/mbedtls-2.16.2/library\error.c ****         if( use_ret == -(MBEDTLS_ERR_SSL_NO_CIPHER_CHOSEN) )
 1964              		.loc 1 427 0
 1965 07b0 7B69     		ldr	r3, [r7, #20]
 1966 07b2 B3F5E74F 		cmp	r3, #29568
 1967 07b6 05D1     		bne	.L89
 428:C:/Users/dtjld/workspace/AIoT/src/LiteOS_Lab/iot_link/network/dtls/mbedtls/mbedtls-2.16.2/library\error.c ****             mbedtls_snprintf( buf, buflen, "SSL - The server has no ciphersuites in common with the
 1968              		.loc 1 428 0
 1969 07b8 0B4B     		ldr	r3, .L236
 1970 07ba 1B68     		ldr	r3, [r3]
 1971 07bc 254A     		ldr	r2, .L236+108
ARM GAS  C:\Users\dtjld\AppData\Local\Temp\ccjG0xZ1.s 			page 62


 1972 07be 7968     		ldr	r1, [r7, #4]
 1973 07c0 B868     		ldr	r0, [r7, #8]
 1974 07c2 9847     		blx	r3
 1975              	.LVL83:
 1976              	.L89:
 429:C:/Users/dtjld/workspace/AIoT/src/LiteOS_Lab/iot_link/network/dtls/mbedtls/mbedtls-2.16.2/library\error.c ****         if( use_ret == -(MBEDTLS_ERR_SSL_NO_RNG) )
 1977              		.loc 1 429 0
 1978 07c4 7B69     		ldr	r3, [r7, #20]
 1979 07c6 B3F5E84F 		cmp	r3, #29696
 1980 07ca 05D1     		bne	.L90
 430:C:/Users/dtjld/workspace/AIoT/src/LiteOS_Lab/iot_link/network/dtls/mbedtls/mbedtls-2.16.2/library\error.c ****             mbedtls_snprintf( buf, buflen, "SSL - No RNG was provided to the SSL module" );
 1981              		.loc 1 430 0
 1982 07cc 064B     		ldr	r3, .L236
 1983 07ce 1B68     		ldr	r3, [r3]
 1984 07d0 214A     		ldr	r2, .L236+112
 1985 07d2 7968     		ldr	r1, [r7, #4]
 1986 07d4 B868     		ldr	r0, [r7, #8]
 1987 07d6 9847     		blx	r3
 1988              	.LVL84:
 1989              	.L90:
 431:C:/Users/dtjld/workspace/AIoT/src/LiteOS_Lab/iot_link/network/dtls/mbedtls/mbedtls-2.16.2/library\error.c ****         if( use_ret == -(MBEDTLS_ERR_SSL_NO_CLIENT_CERTIFICATE) )
 1990              		.loc 1 431 0
 1991 07d8 7B69     		ldr	r3, [r7, #20]
 1992 07da B3F5E94F 		cmp	r3, #29824
 1993 07de 41D1     		bne	.L91
 432:C:/Users/dtjld/workspace/AIoT/src/LiteOS_Lab/iot_link/network/dtls/mbedtls/mbedtls-2.16.2/library\error.c ****             mbedtls_snprintf( buf, buflen, "SSL - No client certification received from the client,
 1994              		.loc 1 432 0
 1995 07e0 014B     		ldr	r3, .L236
 1996 07e2 1B68     		ldr	r3, [r3]
 1997 07e4 3AE0     		b	.L237
 1998              	.L238:
 1999 07e6 00BF     		.align	2
 2000              	.L236:
 2001 07e8 00000000 		.word	mbedtls_snprintf
 2002 07ec 8C0A0000 		.word	.LC57
 2003 07f0 B00A0000 		.word	.LC58
 2004 07f4 DC0A0000 		.word	.LC59
 2005 07f8 200B0000 		.word	.LC60
 2006 07fc 480B0000 		.word	.LC61
 2007 0800 940B0000 		.word	.LC62
 2008 0804 C00B0000 		.word	.LC63
 2009 0808 E00B0000 		.word	.LC64
 2010 080c 1C0C0000 		.word	.LC65
 2011 0810 680C0000 		.word	.LC66
 2012 0814 900C0000 		.word	.LC67
 2013 0818 CC0C0000 		.word	.LC68
 2014 081c 000D0000 		.word	.LC69
 2015 0820 3C0D0000 		.word	.LC70
 2016 0824 640D0000 		.word	.LC71
 2017 0828 8C0D0000 		.word	.LC72
 2018 082c B40D0000 		.word	.LC73
 2019 0830 F00D0000 		.word	.LC74
 2020 0834 280E0000 		.word	.LC75
 2021 0838 B00E0000 		.word	.LC76
 2022 083c D80E0000 		.word	.LC77
 2023 0840 080F0000 		.word	.LC78
 2024 0844 300F0000 		.word	.LC79
ARM GAS  C:\Users\dtjld\AppData\Local\Temp\ccjG0xZ1.s 			page 63


 2025 0848 600F0000 		.word	.LC80
 2026 084c 8C0F0000 		.word	.LC81
 2027 0850 B40F0000 		.word	.LC82
 2028 0854 DC0F0000 		.word	.LC83
 2029 0858 1C100000 		.word	.LC84
 2030              	.L237:
 2031 085c 204A     		ldr	r2, .L239
 2032 085e 7968     		ldr	r1, [r7, #4]
 2033 0860 B868     		ldr	r0, [r7, #8]
 2034 0862 9847     		blx	r3
 2035              	.LVL85:
 2036              	.L91:
 433:C:/Users/dtjld/workspace/AIoT/src/LiteOS_Lab/iot_link/network/dtls/mbedtls/mbedtls-2.16.2/library\error.c ****         if( use_ret == -(MBEDTLS_ERR_SSL_CERTIFICATE_TOO_LARGE) )
 2037              		.loc 1 433 0
 2038 0864 7B69     		ldr	r3, [r7, #20]
 2039 0866 B3F5EA4F 		cmp	r3, #29952
 2040 086a 05D1     		bne	.L92
 434:C:/Users/dtjld/workspace/AIoT/src/LiteOS_Lab/iot_link/network/dtls/mbedtls/mbedtls-2.16.2/library\error.c ****             mbedtls_snprintf( buf, buflen, "SSL - Our own certificate(s) is/are too large to send i
 2041              		.loc 1 434 0
 2042 086c 1D4B     		ldr	r3, .L239+4
 2043 086e 1B68     		ldr	r3, [r3]
 2044 0870 1D4A     		ldr	r2, .L239+8
 2045 0872 7968     		ldr	r1, [r7, #4]
 2046 0874 B868     		ldr	r0, [r7, #8]
 2047 0876 9847     		blx	r3
 2048              	.LVL86:
 2049              	.L92:
 435:C:/Users/dtjld/workspace/AIoT/src/LiteOS_Lab/iot_link/network/dtls/mbedtls/mbedtls-2.16.2/library\error.c ****         if( use_ret == -(MBEDTLS_ERR_SSL_CERTIFICATE_REQUIRED) )
 2050              		.loc 1 435 0
 2051 0878 7B69     		ldr	r3, [r7, #20]
 2052 087a B3F5EB4F 		cmp	r3, #30080
 2053 087e 05D1     		bne	.L93
 436:C:/Users/dtjld/workspace/AIoT/src/LiteOS_Lab/iot_link/network/dtls/mbedtls/mbedtls-2.16.2/library\error.c ****             mbedtls_snprintf( buf, buflen, "SSL - The own certificate is not set, but needed by the
 2054              		.loc 1 436 0
 2055 0880 184B     		ldr	r3, .L239+4
 2056 0882 1B68     		ldr	r3, [r3]
 2057 0884 194A     		ldr	r2, .L239+12
 2058 0886 7968     		ldr	r1, [r7, #4]
 2059 0888 B868     		ldr	r0, [r7, #8]
 2060 088a 9847     		blx	r3
 2061              	.LVL87:
 2062              	.L93:
 437:C:/Users/dtjld/workspace/AIoT/src/LiteOS_Lab/iot_link/network/dtls/mbedtls/mbedtls-2.16.2/library\error.c ****         if( use_ret == -(MBEDTLS_ERR_SSL_PRIVATE_KEY_REQUIRED) )
 2063              		.loc 1 437 0
 2064 088c 7B69     		ldr	r3, [r7, #20]
 2065 088e B3F5EC4F 		cmp	r3, #30208
 2066 0892 05D1     		bne	.L94
 438:C:/Users/dtjld/workspace/AIoT/src/LiteOS_Lab/iot_link/network/dtls/mbedtls/mbedtls-2.16.2/library\error.c ****             mbedtls_snprintf( buf, buflen, "SSL - The own private key or pre-shared key is not set,
 2067              		.loc 1 438 0
 2068 0894 134B     		ldr	r3, .L239+4
 2069 0896 1B68     		ldr	r3, [r3]
 2070 0898 154A     		ldr	r2, .L239+16
 2071 089a 7968     		ldr	r1, [r7, #4]
 2072 089c B868     		ldr	r0, [r7, #8]
 2073 089e 9847     		blx	r3
 2074              	.LVL88:
 2075              	.L94:
ARM GAS  C:\Users\dtjld\AppData\Local\Temp\ccjG0xZ1.s 			page 64


 439:C:/Users/dtjld/workspace/AIoT/src/LiteOS_Lab/iot_link/network/dtls/mbedtls/mbedtls-2.16.2/library\error.c ****         if( use_ret == -(MBEDTLS_ERR_SSL_CA_CHAIN_REQUIRED) )
 2076              		.loc 1 439 0
 2077 08a0 7B69     		ldr	r3, [r7, #20]
 2078 08a2 B3F5ED4F 		cmp	r3, #30336
 2079 08a6 05D1     		bne	.L95
 440:C:/Users/dtjld/workspace/AIoT/src/LiteOS_Lab/iot_link/network/dtls/mbedtls/mbedtls-2.16.2/library\error.c ****             mbedtls_snprintf( buf, buflen, "SSL - No CA Chain is set, but required to operate" );
 2080              		.loc 1 440 0
 2081 08a8 0E4B     		ldr	r3, .L239+4
 2082 08aa 1B68     		ldr	r3, [r3]
 2083 08ac 114A     		ldr	r2, .L239+20
 2084 08ae 7968     		ldr	r1, [r7, #4]
 2085 08b0 B868     		ldr	r0, [r7, #8]
 2086 08b2 9847     		blx	r3
 2087              	.LVL89:
 2088              	.L95:
 441:C:/Users/dtjld/workspace/AIoT/src/LiteOS_Lab/iot_link/network/dtls/mbedtls/mbedtls-2.16.2/library\error.c ****         if( use_ret == -(MBEDTLS_ERR_SSL_UNEXPECTED_MESSAGE) )
 2089              		.loc 1 441 0
 2090 08b4 7B69     		ldr	r3, [r7, #20]
 2091 08b6 B3F5EE4F 		cmp	r3, #30464
 2092 08ba 05D1     		bne	.L96
 442:C:/Users/dtjld/workspace/AIoT/src/LiteOS_Lab/iot_link/network/dtls/mbedtls/mbedtls-2.16.2/library\error.c ****             mbedtls_snprintf( buf, buflen, "SSL - An unexpected message was received from our peer"
 2093              		.loc 1 442 0
 2094 08bc 094B     		ldr	r3, .L239+4
 2095 08be 1B68     		ldr	r3, [r3]
 2096 08c0 0D4A     		ldr	r2, .L239+24
 2097 08c2 7968     		ldr	r1, [r7, #4]
 2098 08c4 B868     		ldr	r0, [r7, #8]
 2099 08c6 9847     		blx	r3
 2100              	.LVL90:
 2101              	.L96:
 443:C:/Users/dtjld/workspace/AIoT/src/LiteOS_Lab/iot_link/network/dtls/mbedtls/mbedtls-2.16.2/library\error.c ****         if( use_ret == -(MBEDTLS_ERR_SSL_FATAL_ALERT_MESSAGE) )
 2102              		.loc 1 443 0
 2103 08c8 7B69     		ldr	r3, [r7, #20]
 2104 08ca B3F5EF4F 		cmp	r3, #30592
 2105 08ce 17D1     		bne	.L97
 444:C:/Users/dtjld/workspace/AIoT/src/LiteOS_Lab/iot_link/network/dtls/mbedtls/mbedtls-2.16.2/library\error.c ****         {
 445:C:/Users/dtjld/workspace/AIoT/src/LiteOS_Lab/iot_link/network/dtls/mbedtls/mbedtls-2.16.2/library\error.c ****             mbedtls_snprintf( buf, buflen, "SSL - A fatal alert message was received from our peer"
 2106              		.loc 1 445 0
 2107 08d0 044B     		ldr	r3, .L239+4
 2108 08d2 1B68     		ldr	r3, [r3]
 2109 08d4 094A     		ldr	r2, .L239+28
 2110 08d6 7968     		ldr	r1, [r7, #4]
 2111 08d8 B868     		ldr	r0, [r7, #8]
 2112 08da 9847     		blx	r3
 2113              	.LVL91:
 446:C:/Users/dtjld/workspace/AIoT/src/LiteOS_Lab/iot_link/network/dtls/mbedtls/mbedtls-2.16.2/library\error.c ****             return;
 2114              		.loc 1 446 0
 2115 08dc 00F0E3BD 		b	.L1
 2116              	.L240:
 2117              		.align	2
 2118              	.L239:
 2119 08e0 48100000 		.word	.LC85
 2120 08e4 00000000 		.word	mbedtls_snprintf
 2121 08e8 A8100000 		.word	.LC86
 2122 08ec F0100000 		.word	.LC87
 2123 08f0 30110000 		.word	.LC88
 2124 08f4 74110000 		.word	.LC89
ARM GAS  C:\Users\dtjld\AppData\Local\Temp\ccjG0xZ1.s 			page 65


 2125 08f8 A8110000 		.word	.LC90
 2126 08fc E0110000 		.word	.LC91
 2127              	.L97:
 447:C:/Users/dtjld/workspace/AIoT/src/LiteOS_Lab/iot_link/network/dtls/mbedtls/mbedtls-2.16.2/library\error.c ****         }
 448:C:/Users/dtjld/workspace/AIoT/src/LiteOS_Lab/iot_link/network/dtls/mbedtls/mbedtls-2.16.2/library\error.c ****         if( use_ret == -(MBEDTLS_ERR_SSL_PEER_VERIFY_FAILED) )
 2128              		.loc 1 448 0
 2129 0900 7B69     		ldr	r3, [r7, #20]
 2130 0902 B3F5F04F 		cmp	r3, #30720
 2131 0906 05D1     		bne	.L98
 449:C:/Users/dtjld/workspace/AIoT/src/LiteOS_Lab/iot_link/network/dtls/mbedtls/mbedtls-2.16.2/library\error.c ****             mbedtls_snprintf( buf, buflen, "SSL - Verification of our peer failed" );
 2132              		.loc 1 449 0
 2133 0908 8D4B     		ldr	r3, .L241
 2134 090a 1B68     		ldr	r3, [r3]
 2135 090c 8D4A     		ldr	r2, .L241+4
 2136 090e 7968     		ldr	r1, [r7, #4]
 2137 0910 B868     		ldr	r0, [r7, #8]
 2138 0912 9847     		blx	r3
 2139              	.LVL92:
 2140              	.L98:
 450:C:/Users/dtjld/workspace/AIoT/src/LiteOS_Lab/iot_link/network/dtls/mbedtls/mbedtls-2.16.2/library\error.c ****         if( use_ret == -(MBEDTLS_ERR_SSL_PEER_CLOSE_NOTIFY) )
 2141              		.loc 1 450 0
 2142 0914 7B69     		ldr	r3, [r7, #20]
 2143 0916 B3F5F14F 		cmp	r3, #30848
 2144 091a 05D1     		bne	.L99
 451:C:/Users/dtjld/workspace/AIoT/src/LiteOS_Lab/iot_link/network/dtls/mbedtls/mbedtls-2.16.2/library\error.c ****             mbedtls_snprintf( buf, buflen, "SSL - The peer notified us that the connection is going
 2145              		.loc 1 451 0
 2146 091c 884B     		ldr	r3, .L241
 2147 091e 1B68     		ldr	r3, [r3]
 2148 0920 894A     		ldr	r2, .L241+8
 2149 0922 7968     		ldr	r1, [r7, #4]
 2150 0924 B868     		ldr	r0, [r7, #8]
 2151 0926 9847     		blx	r3
 2152              	.LVL93:
 2153              	.L99:
 452:C:/Users/dtjld/workspace/AIoT/src/LiteOS_Lab/iot_link/network/dtls/mbedtls/mbedtls-2.16.2/library\error.c ****         if( use_ret == -(MBEDTLS_ERR_SSL_BAD_HS_CLIENT_HELLO) )
 2154              		.loc 1 452 0
 2155 0928 7B69     		ldr	r3, [r7, #20]
 2156 092a B3F5F24F 		cmp	r3, #30976
 2157 092e 05D1     		bne	.L100
 453:C:/Users/dtjld/workspace/AIoT/src/LiteOS_Lab/iot_link/network/dtls/mbedtls/mbedtls-2.16.2/library\error.c ****             mbedtls_snprintf( buf, buflen, "SSL - Processing of the ClientHello handshake message f
 2158              		.loc 1 453 0
 2159 0930 834B     		ldr	r3, .L241
 2160 0932 1B68     		ldr	r3, [r3]
 2161 0934 854A     		ldr	r2, .L241+12
 2162 0936 7968     		ldr	r1, [r7, #4]
 2163 0938 B868     		ldr	r0, [r7, #8]
 2164 093a 9847     		blx	r3
 2165              	.LVL94:
 2166              	.L100:
 454:C:/Users/dtjld/workspace/AIoT/src/LiteOS_Lab/iot_link/network/dtls/mbedtls/mbedtls-2.16.2/library\error.c ****         if( use_ret == -(MBEDTLS_ERR_SSL_BAD_HS_SERVER_HELLO) )
 2167              		.loc 1 454 0
 2168 093c 7B69     		ldr	r3, [r7, #20]
 2169 093e B3F5F34F 		cmp	r3, #31104
 2170 0942 05D1     		bne	.L101
 455:C:/Users/dtjld/workspace/AIoT/src/LiteOS_Lab/iot_link/network/dtls/mbedtls/mbedtls-2.16.2/library\error.c ****             mbedtls_snprintf( buf, buflen, "SSL - Processing of the ServerHello handshake message f
 2171              		.loc 1 455 0
 2172 0944 7E4B     		ldr	r3, .L241
ARM GAS  C:\Users\dtjld\AppData\Local\Temp\ccjG0xZ1.s 			page 66


 2173 0946 1B68     		ldr	r3, [r3]
 2174 0948 814A     		ldr	r2, .L241+16
 2175 094a 7968     		ldr	r1, [r7, #4]
 2176 094c B868     		ldr	r0, [r7, #8]
 2177 094e 9847     		blx	r3
 2178              	.LVL95:
 2179              	.L101:
 456:C:/Users/dtjld/workspace/AIoT/src/LiteOS_Lab/iot_link/network/dtls/mbedtls/mbedtls-2.16.2/library\error.c ****         if( use_ret == -(MBEDTLS_ERR_SSL_BAD_HS_CERTIFICATE) )
 2180              		.loc 1 456 0
 2181 0950 7B69     		ldr	r3, [r7, #20]
 2182 0952 B3F5F44F 		cmp	r3, #31232
 2183 0956 05D1     		bne	.L102
 457:C:/Users/dtjld/workspace/AIoT/src/LiteOS_Lab/iot_link/network/dtls/mbedtls/mbedtls-2.16.2/library\error.c ****             mbedtls_snprintf( buf, buflen, "SSL - Processing of the Certificate handshake message f
 2184              		.loc 1 457 0
 2185 0958 794B     		ldr	r3, .L241
 2186 095a 1B68     		ldr	r3, [r3]
 2187 095c 7D4A     		ldr	r2, .L241+20
 2188 095e 7968     		ldr	r1, [r7, #4]
 2189 0960 B868     		ldr	r0, [r7, #8]
 2190 0962 9847     		blx	r3
 2191              	.LVL96:
 2192              	.L102:
 458:C:/Users/dtjld/workspace/AIoT/src/LiteOS_Lab/iot_link/network/dtls/mbedtls/mbedtls-2.16.2/library\error.c ****         if( use_ret == -(MBEDTLS_ERR_SSL_BAD_HS_CERTIFICATE_REQUEST) )
 2193              		.loc 1 458 0
 2194 0964 7B69     		ldr	r3, [r7, #20]
 2195 0966 B3F5F54F 		cmp	r3, #31360
 2196 096a 05D1     		bne	.L103
 459:C:/Users/dtjld/workspace/AIoT/src/LiteOS_Lab/iot_link/network/dtls/mbedtls/mbedtls-2.16.2/library\error.c ****             mbedtls_snprintf( buf, buflen, "SSL - Processing of the CertificateRequest handshake me
 2197              		.loc 1 459 0
 2198 096c 744B     		ldr	r3, .L241
 2199 096e 1B68     		ldr	r3, [r3]
 2200 0970 794A     		ldr	r2, .L241+24
 2201 0972 7968     		ldr	r1, [r7, #4]
 2202 0974 B868     		ldr	r0, [r7, #8]
 2203 0976 9847     		blx	r3
 2204              	.LVL97:
 2205              	.L103:
 460:C:/Users/dtjld/workspace/AIoT/src/LiteOS_Lab/iot_link/network/dtls/mbedtls/mbedtls-2.16.2/library\error.c ****         if( use_ret == -(MBEDTLS_ERR_SSL_BAD_HS_SERVER_KEY_EXCHANGE) )
 2206              		.loc 1 460 0
 2207 0978 7B69     		ldr	r3, [r7, #20]
 2208 097a B3F5F64F 		cmp	r3, #31488
 2209 097e 05D1     		bne	.L104
 461:C:/Users/dtjld/workspace/AIoT/src/LiteOS_Lab/iot_link/network/dtls/mbedtls/mbedtls-2.16.2/library\error.c ****             mbedtls_snprintf( buf, buflen, "SSL - Processing of the ServerKeyExchange handshake mes
 2210              		.loc 1 461 0
 2211 0980 6F4B     		ldr	r3, .L241
 2212 0982 1B68     		ldr	r3, [r3]
 2213 0984 754A     		ldr	r2, .L241+28
 2214 0986 7968     		ldr	r1, [r7, #4]
 2215 0988 B868     		ldr	r0, [r7, #8]
 2216 098a 9847     		blx	r3
 2217              	.LVL98:
 2218              	.L104:
 462:C:/Users/dtjld/workspace/AIoT/src/LiteOS_Lab/iot_link/network/dtls/mbedtls/mbedtls-2.16.2/library\error.c ****         if( use_ret == -(MBEDTLS_ERR_SSL_BAD_HS_SERVER_HELLO_DONE) )
 2219              		.loc 1 462 0
 2220 098c 7B69     		ldr	r3, [r7, #20]
 2221 098e B3F5F74F 		cmp	r3, #31616
 2222 0992 05D1     		bne	.L105
ARM GAS  C:\Users\dtjld\AppData\Local\Temp\ccjG0xZ1.s 			page 67


 463:C:/Users/dtjld/workspace/AIoT/src/LiteOS_Lab/iot_link/network/dtls/mbedtls/mbedtls-2.16.2/library\error.c ****             mbedtls_snprintf( buf, buflen, "SSL - Processing of the ServerHelloDone handshake messa
 2223              		.loc 1 463 0
 2224 0994 6A4B     		ldr	r3, .L241
 2225 0996 1B68     		ldr	r3, [r3]
 2226 0998 714A     		ldr	r2, .L241+32
 2227 099a 7968     		ldr	r1, [r7, #4]
 2228 099c B868     		ldr	r0, [r7, #8]
 2229 099e 9847     		blx	r3
 2230              	.LVL99:
 2231              	.L105:
 464:C:/Users/dtjld/workspace/AIoT/src/LiteOS_Lab/iot_link/network/dtls/mbedtls/mbedtls-2.16.2/library\error.c ****         if( use_ret == -(MBEDTLS_ERR_SSL_BAD_HS_CLIENT_KEY_EXCHANGE) )
 2232              		.loc 1 464 0
 2233 09a0 7B69     		ldr	r3, [r7, #20]
 2234 09a2 B3F5F84F 		cmp	r3, #31744
 2235 09a6 05D1     		bne	.L106
 465:C:/Users/dtjld/workspace/AIoT/src/LiteOS_Lab/iot_link/network/dtls/mbedtls/mbedtls-2.16.2/library\error.c ****             mbedtls_snprintf( buf, buflen, "SSL - Processing of the ClientKeyExchange handshake mes
 2236              		.loc 1 465 0
 2237 09a8 654B     		ldr	r3, .L241
 2238 09aa 1B68     		ldr	r3, [r3]
 2239 09ac 6D4A     		ldr	r2, .L241+36
 2240 09ae 7968     		ldr	r1, [r7, #4]
 2241 09b0 B868     		ldr	r0, [r7, #8]
 2242 09b2 9847     		blx	r3
 2243              	.LVL100:
 2244              	.L106:
 466:C:/Users/dtjld/workspace/AIoT/src/LiteOS_Lab/iot_link/network/dtls/mbedtls/mbedtls-2.16.2/library\error.c ****         if( use_ret == -(MBEDTLS_ERR_SSL_BAD_HS_CLIENT_KEY_EXCHANGE_RP) )
 2245              		.loc 1 466 0
 2246 09b4 7B69     		ldr	r3, [r7, #20]
 2247 09b6 B3F5F94F 		cmp	r3, #31872
 2248 09ba 05D1     		bne	.L107
 467:C:/Users/dtjld/workspace/AIoT/src/LiteOS_Lab/iot_link/network/dtls/mbedtls/mbedtls-2.16.2/library\error.c ****             mbedtls_snprintf( buf, buflen, "SSL - Processing of the ClientKeyExchange handshake mes
 2249              		.loc 1 467 0
 2250 09bc 604B     		ldr	r3, .L241
 2251 09be 1B68     		ldr	r3, [r3]
 2252 09c0 694A     		ldr	r2, .L241+40
 2253 09c2 7968     		ldr	r1, [r7, #4]
 2254 09c4 B868     		ldr	r0, [r7, #8]
 2255 09c6 9847     		blx	r3
 2256              	.LVL101:
 2257              	.L107:
 468:C:/Users/dtjld/workspace/AIoT/src/LiteOS_Lab/iot_link/network/dtls/mbedtls/mbedtls-2.16.2/library\error.c ****         if( use_ret == -(MBEDTLS_ERR_SSL_BAD_HS_CLIENT_KEY_EXCHANGE_CS) )
 2258              		.loc 1 468 0
 2259 09c8 7B69     		ldr	r3, [r7, #20]
 2260 09ca B3F5FA4F 		cmp	r3, #32000
 2261 09ce 05D1     		bne	.L108
 469:C:/Users/dtjld/workspace/AIoT/src/LiteOS_Lab/iot_link/network/dtls/mbedtls/mbedtls-2.16.2/library\error.c ****             mbedtls_snprintf( buf, buflen, "SSL - Processing of the ClientKeyExchange handshake mes
 2262              		.loc 1 469 0
 2263 09d0 5B4B     		ldr	r3, .L241
 2264 09d2 1B68     		ldr	r3, [r3]
 2265 09d4 654A     		ldr	r2, .L241+44
 2266 09d6 7968     		ldr	r1, [r7, #4]
 2267 09d8 B868     		ldr	r0, [r7, #8]
 2268 09da 9847     		blx	r3
 2269              	.LVL102:
 2270              	.L108:
 470:C:/Users/dtjld/workspace/AIoT/src/LiteOS_Lab/iot_link/network/dtls/mbedtls/mbedtls-2.16.2/library\error.c ****         if( use_ret == -(MBEDTLS_ERR_SSL_BAD_HS_CERTIFICATE_VERIFY) )
 2271              		.loc 1 470 0
ARM GAS  C:\Users\dtjld\AppData\Local\Temp\ccjG0xZ1.s 			page 68


 2272 09dc 7B69     		ldr	r3, [r7, #20]
 2273 09de B3F5FB4F 		cmp	r3, #32128
 2274 09e2 05D1     		bne	.L109
 471:C:/Users/dtjld/workspace/AIoT/src/LiteOS_Lab/iot_link/network/dtls/mbedtls/mbedtls-2.16.2/library\error.c ****             mbedtls_snprintf( buf, buflen, "SSL - Processing of the CertificateVerify handshake mes
 2275              		.loc 1 471 0
 2276 09e4 564B     		ldr	r3, .L241
 2277 09e6 1B68     		ldr	r3, [r3]
 2278 09e8 614A     		ldr	r2, .L241+48
 2279 09ea 7968     		ldr	r1, [r7, #4]
 2280 09ec B868     		ldr	r0, [r7, #8]
 2281 09ee 9847     		blx	r3
 2282              	.LVL103:
 2283              	.L109:
 472:C:/Users/dtjld/workspace/AIoT/src/LiteOS_Lab/iot_link/network/dtls/mbedtls/mbedtls-2.16.2/library\error.c ****         if( use_ret == -(MBEDTLS_ERR_SSL_BAD_HS_CHANGE_CIPHER_SPEC) )
 2284              		.loc 1 472 0
 2285 09f0 7B69     		ldr	r3, [r7, #20]
 2286 09f2 B3F5FC4F 		cmp	r3, #32256
 2287 09f6 05D1     		bne	.L110
 473:C:/Users/dtjld/workspace/AIoT/src/LiteOS_Lab/iot_link/network/dtls/mbedtls/mbedtls-2.16.2/library\error.c ****             mbedtls_snprintf( buf, buflen, "SSL - Processing of the ChangeCipherSpec handshake mess
 2288              		.loc 1 473 0
 2289 09f8 514B     		ldr	r3, .L241
 2290 09fa 1B68     		ldr	r3, [r3]
 2291 09fc 5D4A     		ldr	r2, .L241+52
 2292 09fe 7968     		ldr	r1, [r7, #4]
 2293 0a00 B868     		ldr	r0, [r7, #8]
 2294 0a02 9847     		blx	r3
 2295              	.LVL104:
 2296              	.L110:
 474:C:/Users/dtjld/workspace/AIoT/src/LiteOS_Lab/iot_link/network/dtls/mbedtls/mbedtls-2.16.2/library\error.c ****         if( use_ret == -(MBEDTLS_ERR_SSL_BAD_HS_FINISHED) )
 2297              		.loc 1 474 0
 2298 0a04 7B69     		ldr	r3, [r7, #20]
 2299 0a06 B3F5FD4F 		cmp	r3, #32384
 2300 0a0a 05D1     		bne	.L111
 475:C:/Users/dtjld/workspace/AIoT/src/LiteOS_Lab/iot_link/network/dtls/mbedtls/mbedtls-2.16.2/library\error.c ****             mbedtls_snprintf( buf, buflen, "SSL - Processing of the Finished handshake message fail
 2301              		.loc 1 475 0
 2302 0a0c 4C4B     		ldr	r3, .L241
 2303 0a0e 1B68     		ldr	r3, [r3]
 2304 0a10 594A     		ldr	r2, .L241+56
 2305 0a12 7968     		ldr	r1, [r7, #4]
 2306 0a14 B868     		ldr	r0, [r7, #8]
 2307 0a16 9847     		blx	r3
 2308              	.LVL105:
 2309              	.L111:
 476:C:/Users/dtjld/workspace/AIoT/src/LiteOS_Lab/iot_link/network/dtls/mbedtls/mbedtls-2.16.2/library\error.c ****         if( use_ret == -(MBEDTLS_ERR_SSL_ALLOC_FAILED) )
 2310              		.loc 1 476 0
 2311 0a18 7B69     		ldr	r3, [r7, #20]
 2312 0a1a B3F5FE4F 		cmp	r3, #32512
 2313 0a1e 05D1     		bne	.L112
 477:C:/Users/dtjld/workspace/AIoT/src/LiteOS_Lab/iot_link/network/dtls/mbedtls/mbedtls-2.16.2/library\error.c ****             mbedtls_snprintf( buf, buflen, "SSL - Memory allocation failed" );
 2314              		.loc 1 477 0
 2315 0a20 474B     		ldr	r3, .L241
 2316 0a22 1B68     		ldr	r3, [r3]
 2317 0a24 554A     		ldr	r2, .L241+60
 2318 0a26 7968     		ldr	r1, [r7, #4]
 2319 0a28 B868     		ldr	r0, [r7, #8]
 2320 0a2a 9847     		blx	r3
 2321              	.LVL106:
ARM GAS  C:\Users\dtjld\AppData\Local\Temp\ccjG0xZ1.s 			page 69


 2322              	.L112:
 478:C:/Users/dtjld/workspace/AIoT/src/LiteOS_Lab/iot_link/network/dtls/mbedtls/mbedtls-2.16.2/library\error.c ****         if( use_ret == -(MBEDTLS_ERR_SSL_HW_ACCEL_FAILED) )
 2323              		.loc 1 478 0
 2324 0a2c 7B69     		ldr	r3, [r7, #20]
 2325 0a2e B3F5FF4F 		cmp	r3, #32640
 2326 0a32 05D1     		bne	.L113
 479:C:/Users/dtjld/workspace/AIoT/src/LiteOS_Lab/iot_link/network/dtls/mbedtls/mbedtls-2.16.2/library\error.c ****             mbedtls_snprintf( buf, buflen, "SSL - Hardware acceleration function returned with erro
 2327              		.loc 1 479 0
 2328 0a34 424B     		ldr	r3, .L241
 2329 0a36 1B68     		ldr	r3, [r3]
 2330 0a38 514A     		ldr	r2, .L241+64
 2331 0a3a 7968     		ldr	r1, [r7, #4]
 2332 0a3c B868     		ldr	r0, [r7, #8]
 2333 0a3e 9847     		blx	r3
 2334              	.LVL107:
 2335              	.L113:
 480:C:/Users/dtjld/workspace/AIoT/src/LiteOS_Lab/iot_link/network/dtls/mbedtls/mbedtls-2.16.2/library\error.c ****         if( use_ret == -(MBEDTLS_ERR_SSL_HW_ACCEL_FALLTHROUGH) )
 2336              		.loc 1 480 0
 2337 0a40 7B69     		ldr	r3, [r7, #20]
 2338 0a42 B3F5DF4F 		cmp	r3, #28544
 2339 0a46 05D1     		bne	.L114
 481:C:/Users/dtjld/workspace/AIoT/src/LiteOS_Lab/iot_link/network/dtls/mbedtls/mbedtls-2.16.2/library\error.c ****             mbedtls_snprintf( buf, buflen, "SSL - Hardware acceleration function skipped / left alo
 2340              		.loc 1 481 0
 2341 0a48 3D4B     		ldr	r3, .L241
 2342 0a4a 1B68     		ldr	r3, [r3]
 2343 0a4c 4D4A     		ldr	r2, .L241+68
 2344 0a4e 7968     		ldr	r1, [r7, #4]
 2345 0a50 B868     		ldr	r0, [r7, #8]
 2346 0a52 9847     		blx	r3
 2347              	.LVL108:
 2348              	.L114:
 482:C:/Users/dtjld/workspace/AIoT/src/LiteOS_Lab/iot_link/network/dtls/mbedtls/mbedtls-2.16.2/library\error.c ****         if( use_ret == -(MBEDTLS_ERR_SSL_COMPRESSION_FAILED) )
 2349              		.loc 1 482 0
 2350 0a54 7B69     		ldr	r3, [r7, #20]
 2351 0a56 B3F5DE4F 		cmp	r3, #28416
 2352 0a5a 05D1     		bne	.L115
 483:C:/Users/dtjld/workspace/AIoT/src/LiteOS_Lab/iot_link/network/dtls/mbedtls/mbedtls-2.16.2/library\error.c ****             mbedtls_snprintf( buf, buflen, "SSL - Processing of the compression / decompression fai
 2353              		.loc 1 483 0
 2354 0a5c 384B     		ldr	r3, .L241
 2355 0a5e 1B68     		ldr	r3, [r3]
 2356 0a60 494A     		ldr	r2, .L241+72
 2357 0a62 7968     		ldr	r1, [r7, #4]
 2358 0a64 B868     		ldr	r0, [r7, #8]
 2359 0a66 9847     		blx	r3
 2360              	.LVL109:
 2361              	.L115:
 484:C:/Users/dtjld/workspace/AIoT/src/LiteOS_Lab/iot_link/network/dtls/mbedtls/mbedtls-2.16.2/library\error.c ****         if( use_ret == -(MBEDTLS_ERR_SSL_BAD_HS_PROTOCOL_VERSION) )
 2362              		.loc 1 484 0
 2363 0a68 7B69     		ldr	r3, [r7, #20]
 2364 0a6a B3F5DD4F 		cmp	r3, #28288
 2365 0a6e 05D1     		bne	.L116
 485:C:/Users/dtjld/workspace/AIoT/src/LiteOS_Lab/iot_link/network/dtls/mbedtls/mbedtls-2.16.2/library\error.c ****             mbedtls_snprintf( buf, buflen, "SSL - Handshake protocol not within min/max boundaries"
 2366              		.loc 1 485 0
 2367 0a70 334B     		ldr	r3, .L241
 2368 0a72 1B68     		ldr	r3, [r3]
 2369 0a74 454A     		ldr	r2, .L241+76
 2370 0a76 7968     		ldr	r1, [r7, #4]
ARM GAS  C:\Users\dtjld\AppData\Local\Temp\ccjG0xZ1.s 			page 70


 2371 0a78 B868     		ldr	r0, [r7, #8]
 2372 0a7a 9847     		blx	r3
 2373              	.LVL110:
 2374              	.L116:
 486:C:/Users/dtjld/workspace/AIoT/src/LiteOS_Lab/iot_link/network/dtls/mbedtls/mbedtls-2.16.2/library\error.c ****         if( use_ret == -(MBEDTLS_ERR_SSL_BAD_HS_NEW_SESSION_TICKET) )
 2375              		.loc 1 486 0
 2376 0a7c 7B69     		ldr	r3, [r7, #20]
 2377 0a7e B3F5DC4F 		cmp	r3, #28160
 2378 0a82 05D1     		bne	.L117
 487:C:/Users/dtjld/workspace/AIoT/src/LiteOS_Lab/iot_link/network/dtls/mbedtls/mbedtls-2.16.2/library\error.c ****             mbedtls_snprintf( buf, buflen, "SSL - Processing of the NewSessionTicket handshake mess
 2379              		.loc 1 487 0
 2380 0a84 2E4B     		ldr	r3, .L241
 2381 0a86 1B68     		ldr	r3, [r3]
 2382 0a88 414A     		ldr	r2, .L241+80
 2383 0a8a 7968     		ldr	r1, [r7, #4]
 2384 0a8c B868     		ldr	r0, [r7, #8]
 2385 0a8e 9847     		blx	r3
 2386              	.LVL111:
 2387              	.L117:
 488:C:/Users/dtjld/workspace/AIoT/src/LiteOS_Lab/iot_link/network/dtls/mbedtls/mbedtls-2.16.2/library\error.c ****         if( use_ret == -(MBEDTLS_ERR_SSL_SESSION_TICKET_EXPIRED) )
 2388              		.loc 1 488 0
 2389 0a90 7B69     		ldr	r3, [r7, #20]
 2390 0a92 B3F5DB4F 		cmp	r3, #28032
 2391 0a96 05D1     		bne	.L118
 489:C:/Users/dtjld/workspace/AIoT/src/LiteOS_Lab/iot_link/network/dtls/mbedtls/mbedtls-2.16.2/library\error.c ****             mbedtls_snprintf( buf, buflen, "SSL - Session ticket has expired" );
 2392              		.loc 1 489 0
 2393 0a98 294B     		ldr	r3, .L241
 2394 0a9a 1B68     		ldr	r3, [r3]
 2395 0a9c 3D4A     		ldr	r2, .L241+84
 2396 0a9e 7968     		ldr	r1, [r7, #4]
 2397 0aa0 B868     		ldr	r0, [r7, #8]
 2398 0aa2 9847     		blx	r3
 2399              	.LVL112:
 2400              	.L118:
 490:C:/Users/dtjld/workspace/AIoT/src/LiteOS_Lab/iot_link/network/dtls/mbedtls/mbedtls-2.16.2/library\error.c ****         if( use_ret == -(MBEDTLS_ERR_SSL_PK_TYPE_MISMATCH) )
 2401              		.loc 1 490 0
 2402 0aa4 7B69     		ldr	r3, [r7, #20]
 2403 0aa6 B3F5DA4F 		cmp	r3, #27904
 2404 0aaa 05D1     		bne	.L119
 491:C:/Users/dtjld/workspace/AIoT/src/LiteOS_Lab/iot_link/network/dtls/mbedtls/mbedtls-2.16.2/library\error.c ****             mbedtls_snprintf( buf, buflen, "SSL - Public key type mismatch (eg, asked for RSA key e
 2405              		.loc 1 491 0
 2406 0aac 244B     		ldr	r3, .L241
 2407 0aae 1B68     		ldr	r3, [r3]
 2408 0ab0 394A     		ldr	r2, .L241+88
 2409 0ab2 7968     		ldr	r1, [r7, #4]
 2410 0ab4 B868     		ldr	r0, [r7, #8]
 2411 0ab6 9847     		blx	r3
 2412              	.LVL113:
 2413              	.L119:
 492:C:/Users/dtjld/workspace/AIoT/src/LiteOS_Lab/iot_link/network/dtls/mbedtls/mbedtls-2.16.2/library\error.c ****         if( use_ret == -(MBEDTLS_ERR_SSL_UNKNOWN_IDENTITY) )
 2414              		.loc 1 492 0
 2415 0ab8 7B69     		ldr	r3, [r7, #20]
 2416 0aba B3F5D94F 		cmp	r3, #27776
 2417 0abe 05D1     		bne	.L120
 493:C:/Users/dtjld/workspace/AIoT/src/LiteOS_Lab/iot_link/network/dtls/mbedtls/mbedtls-2.16.2/library\error.c ****             mbedtls_snprintf( buf, buflen, "SSL - Unknown identity received (eg, PSK identity)" );
 2418              		.loc 1 493 0
 2419 0ac0 1F4B     		ldr	r3, .L241
ARM GAS  C:\Users\dtjld\AppData\Local\Temp\ccjG0xZ1.s 			page 71


 2420 0ac2 1B68     		ldr	r3, [r3]
 2421 0ac4 354A     		ldr	r2, .L241+92
 2422 0ac6 7968     		ldr	r1, [r7, #4]
 2423 0ac8 B868     		ldr	r0, [r7, #8]
 2424 0aca 9847     		blx	r3
 2425              	.LVL114:
 2426              	.L120:
 494:C:/Users/dtjld/workspace/AIoT/src/LiteOS_Lab/iot_link/network/dtls/mbedtls/mbedtls-2.16.2/library\error.c ****         if( use_ret == -(MBEDTLS_ERR_SSL_INTERNAL_ERROR) )
 2427              		.loc 1 494 0
 2428 0acc 7B69     		ldr	r3, [r7, #20]
 2429 0ace B3F5D84F 		cmp	r3, #27648
 2430 0ad2 05D1     		bne	.L121
 495:C:/Users/dtjld/workspace/AIoT/src/LiteOS_Lab/iot_link/network/dtls/mbedtls/mbedtls-2.16.2/library\error.c ****             mbedtls_snprintf( buf, buflen, "SSL - Internal error (eg, unexpected failure in lower-l
 2431              		.loc 1 495 0
 2432 0ad4 1A4B     		ldr	r3, .L241
 2433 0ad6 1B68     		ldr	r3, [r3]
 2434 0ad8 314A     		ldr	r2, .L241+96
 2435 0ada 7968     		ldr	r1, [r7, #4]
 2436 0adc B868     		ldr	r0, [r7, #8]
 2437 0ade 9847     		blx	r3
 2438              	.LVL115:
 2439              	.L121:
 496:C:/Users/dtjld/workspace/AIoT/src/LiteOS_Lab/iot_link/network/dtls/mbedtls/mbedtls-2.16.2/library\error.c ****         if( use_ret == -(MBEDTLS_ERR_SSL_COUNTER_WRAPPING) )
 2440              		.loc 1 496 0
 2441 0ae0 7B69     		ldr	r3, [r7, #20]
 2442 0ae2 B3F5D74F 		cmp	r3, #27520
 2443 0ae6 05D1     		bne	.L122
 497:C:/Users/dtjld/workspace/AIoT/src/LiteOS_Lab/iot_link/network/dtls/mbedtls/mbedtls-2.16.2/library\error.c ****             mbedtls_snprintf( buf, buflen, "SSL - A counter would wrap (eg, too many messages excha
 2444              		.loc 1 497 0
 2445 0ae8 154B     		ldr	r3, .L241
 2446 0aea 1B68     		ldr	r3, [r3]
 2447 0aec 2D4A     		ldr	r2, .L241+100
 2448 0aee 7968     		ldr	r1, [r7, #4]
 2449 0af0 B868     		ldr	r0, [r7, #8]
 2450 0af2 9847     		blx	r3
 2451              	.LVL116:
 2452              	.L122:
 498:C:/Users/dtjld/workspace/AIoT/src/LiteOS_Lab/iot_link/network/dtls/mbedtls/mbedtls-2.16.2/library\error.c ****         if( use_ret == -(MBEDTLS_ERR_SSL_WAITING_SERVER_HELLO_RENEGO) )
 2453              		.loc 1 498 0
 2454 0af4 7B69     		ldr	r3, [r7, #20]
 2455 0af6 B3F5D64F 		cmp	r3, #27392
 2456 0afa 05D1     		bne	.L123
 499:C:/Users/dtjld/workspace/AIoT/src/LiteOS_Lab/iot_link/network/dtls/mbedtls/mbedtls-2.16.2/library\error.c ****             mbedtls_snprintf( buf, buflen, "SSL - Unexpected message at ServerHello in renegotiatio
 2457              		.loc 1 499 0
 2458 0afc 104B     		ldr	r3, .L241
 2459 0afe 1B68     		ldr	r3, [r3]
 2460 0b00 294A     		ldr	r2, .L241+104
 2461 0b02 7968     		ldr	r1, [r7, #4]
 2462 0b04 B868     		ldr	r0, [r7, #8]
 2463 0b06 9847     		blx	r3
 2464              	.LVL117:
 2465              	.L123:
 500:C:/Users/dtjld/workspace/AIoT/src/LiteOS_Lab/iot_link/network/dtls/mbedtls/mbedtls-2.16.2/library\error.c ****         if( use_ret == -(MBEDTLS_ERR_SSL_HELLO_VERIFY_REQUIRED) )
 2466              		.loc 1 500 0
 2467 0b08 7B69     		ldr	r3, [r7, #20]
 2468 0b0a B3F5D54F 		cmp	r3, #27264
 2469 0b0e 05D1     		bne	.L124
ARM GAS  C:\Users\dtjld\AppData\Local\Temp\ccjG0xZ1.s 			page 72


 501:C:/Users/dtjld/workspace/AIoT/src/LiteOS_Lab/iot_link/network/dtls/mbedtls/mbedtls-2.16.2/library\error.c ****             mbedtls_snprintf( buf, buflen, "SSL - DTLS client must retry for hello verification" );
 2470              		.loc 1 501 0
 2471 0b10 0B4B     		ldr	r3, .L241
 2472 0b12 1B68     		ldr	r3, [r3]
 2473 0b14 254A     		ldr	r2, .L241+108
 2474 0b16 7968     		ldr	r1, [r7, #4]
 2475 0b18 B868     		ldr	r0, [r7, #8]
 2476 0b1a 9847     		blx	r3
 2477              	.LVL118:
 2478              	.L124:
 502:C:/Users/dtjld/workspace/AIoT/src/LiteOS_Lab/iot_link/network/dtls/mbedtls/mbedtls-2.16.2/library\error.c ****         if( use_ret == -(MBEDTLS_ERR_SSL_BUFFER_TOO_SMALL) )
 2479              		.loc 1 502 0
 2480 0b1c 7B69     		ldr	r3, [r7, #20]
 2481 0b1e B3F5D44F 		cmp	r3, #27136
 2482 0b22 05D1     		bne	.L125
 503:C:/Users/dtjld/workspace/AIoT/src/LiteOS_Lab/iot_link/network/dtls/mbedtls/mbedtls-2.16.2/library\error.c ****             mbedtls_snprintf( buf, buflen, "SSL - A buffer is too small to receive or write a messa
 2483              		.loc 1 503 0
 2484 0b24 064B     		ldr	r3, .L241
 2485 0b26 1B68     		ldr	r3, [r3]
 2486 0b28 214A     		ldr	r2, .L241+112
 2487 0b2a 7968     		ldr	r1, [r7, #4]
 2488 0b2c B868     		ldr	r0, [r7, #8]
 2489 0b2e 9847     		blx	r3
 2490              	.LVL119:
 2491              	.L125:
 504:C:/Users/dtjld/workspace/AIoT/src/LiteOS_Lab/iot_link/network/dtls/mbedtls/mbedtls-2.16.2/library\error.c ****         if( use_ret == -(MBEDTLS_ERR_SSL_NO_USABLE_CIPHERSUITE) )
 2492              		.loc 1 504 0
 2493 0b30 7B69     		ldr	r3, [r7, #20]
 2494 0b32 B3F5D34F 		cmp	r3, #27008
 2495 0b36 41D1     		bne	.L126
 505:C:/Users/dtjld/workspace/AIoT/src/LiteOS_Lab/iot_link/network/dtls/mbedtls/mbedtls-2.16.2/library\error.c ****             mbedtls_snprintf( buf, buflen, "SSL - None of the common ciphersuites is usable (eg, no
 2496              		.loc 1 505 0
 2497 0b38 014B     		ldr	r3, .L241
 2498 0b3a 1B68     		ldr	r3, [r3]
 2499 0b3c 3AE0     		b	.L242
 2500              	.L243:
 2501 0b3e 00BF     		.align	2
 2502              	.L241:
 2503 0b40 00000000 		.word	mbedtls_snprintf
 2504 0b44 18120000 		.word	.LC92
 2505 0b48 40120000 		.word	.LC93
 2506 0b4c 88120000 		.word	.LC94
 2507 0b50 C8120000 		.word	.LC95
 2508 0b54 08130000 		.word	.LC96
 2509 0b58 48130000 		.word	.LC97
 2510 0b5c 8C130000 		.word	.LC98
 2511 0b60 D0130000 		.word	.LC99
 2512 0b64 14140000 		.word	.LC100
 2513 0b68 58140000 		.word	.LC101
 2514 0b6c B8140000 		.word	.LC102
 2515 0b70 1C150000 		.word	.LC103
 2516 0b74 60150000 		.word	.LC104
 2517 0b78 A4150000 		.word	.LC105
 2518 0b7c E0150000 		.word	.LC106
 2519 0b80 00160000 		.word	.LC107
 2520 0b84 3C160000 		.word	.LC108
 2521 0b88 7C160000 		.word	.LC109
ARM GAS  C:\Users\dtjld\AppData\Local\Temp\ccjG0xZ1.s 			page 73


 2522 0b8c B8160000 		.word	.LC110
 2523 0b90 F0160000 		.word	.LC111
 2524 0b94 34170000 		.word	.LC112
 2525 0b98 58170000 		.word	.LC113
 2526 0b9c B0170000 		.word	.LC114
 2527 0ba0 E4170000 		.word	.LC115
 2528 0ba4 28180000 		.word	.LC116
 2529 0ba8 68180000 		.word	.LC117
 2530 0bac A4180000 		.word	.LC118
 2531 0bb0 D8180000 		.word	.LC119
 2532              	.L242:
 2533 0bb4 8D4A     		ldr	r2, .L244
 2534 0bb6 7968     		ldr	r1, [r7, #4]
 2535 0bb8 B868     		ldr	r0, [r7, #8]
 2536 0bba 9847     		blx	r3
 2537              	.LVL120:
 2538              	.L126:
 506:C:/Users/dtjld/workspace/AIoT/src/LiteOS_Lab/iot_link/network/dtls/mbedtls/mbedtls-2.16.2/library\error.c ****         if( use_ret == -(MBEDTLS_ERR_SSL_WANT_READ) )
 2539              		.loc 1 506 0
 2540 0bbc 7B69     		ldr	r3, [r7, #20]
 2541 0bbe B3F5D24F 		cmp	r3, #26880
 2542 0bc2 05D1     		bne	.L127
 507:C:/Users/dtjld/workspace/AIoT/src/LiteOS_Lab/iot_link/network/dtls/mbedtls/mbedtls-2.16.2/library\error.c ****             mbedtls_snprintf( buf, buflen, "SSL - No data of requested type currently available on 
 2543              		.loc 1 507 0
 2544 0bc4 8A4B     		ldr	r3, .L244+4
 2545 0bc6 1B68     		ldr	r3, [r3]
 2546 0bc8 8A4A     		ldr	r2, .L244+8
 2547 0bca 7968     		ldr	r1, [r7, #4]
 2548 0bcc B868     		ldr	r0, [r7, #8]
 2549 0bce 9847     		blx	r3
 2550              	.LVL121:
 2551              	.L127:
 508:C:/Users/dtjld/workspace/AIoT/src/LiteOS_Lab/iot_link/network/dtls/mbedtls/mbedtls-2.16.2/library\error.c ****         if( use_ret == -(MBEDTLS_ERR_SSL_WANT_WRITE) )
 2552              		.loc 1 508 0
 2553 0bd0 7B69     		ldr	r3, [r7, #20]
 2554 0bd2 B3F5D14F 		cmp	r3, #26752
 2555 0bd6 05D1     		bne	.L128
 509:C:/Users/dtjld/workspace/AIoT/src/LiteOS_Lab/iot_link/network/dtls/mbedtls/mbedtls-2.16.2/library\error.c ****             mbedtls_snprintf( buf, buflen, "SSL - Connection requires a write call" );
 2556              		.loc 1 509 0
 2557 0bd8 854B     		ldr	r3, .L244+4
 2558 0bda 1B68     		ldr	r3, [r3]
 2559 0bdc 864A     		ldr	r2, .L244+12
 2560 0bde 7968     		ldr	r1, [r7, #4]
 2561 0be0 B868     		ldr	r0, [r7, #8]
 2562 0be2 9847     		blx	r3
 2563              	.LVL122:
 2564              	.L128:
 510:C:/Users/dtjld/workspace/AIoT/src/LiteOS_Lab/iot_link/network/dtls/mbedtls/mbedtls-2.16.2/library\error.c ****         if( use_ret == -(MBEDTLS_ERR_SSL_TIMEOUT) )
 2565              		.loc 1 510 0
 2566 0be4 7B69     		ldr	r3, [r7, #20]
 2567 0be6 B3F5D04F 		cmp	r3, #26624
 2568 0bea 05D1     		bne	.L129
 511:C:/Users/dtjld/workspace/AIoT/src/LiteOS_Lab/iot_link/network/dtls/mbedtls/mbedtls-2.16.2/library\error.c ****             mbedtls_snprintf( buf, buflen, "SSL - The operation timed out" );
 2569              		.loc 1 511 0
 2570 0bec 804B     		ldr	r3, .L244+4
 2571 0bee 1B68     		ldr	r3, [r3]
 2572 0bf0 824A     		ldr	r2, .L244+16
ARM GAS  C:\Users\dtjld\AppData\Local\Temp\ccjG0xZ1.s 			page 74


 2573 0bf2 7968     		ldr	r1, [r7, #4]
 2574 0bf4 B868     		ldr	r0, [r7, #8]
 2575 0bf6 9847     		blx	r3
 2576              	.LVL123:
 2577              	.L129:
 512:C:/Users/dtjld/workspace/AIoT/src/LiteOS_Lab/iot_link/network/dtls/mbedtls/mbedtls-2.16.2/library\error.c ****         if( use_ret == -(MBEDTLS_ERR_SSL_CLIENT_RECONNECT) )
 2578              		.loc 1 512 0
 2579 0bf8 7B69     		ldr	r3, [r7, #20]
 2580 0bfa B3F5CF4F 		cmp	r3, #26496
 2581 0bfe 05D1     		bne	.L130
 513:C:/Users/dtjld/workspace/AIoT/src/LiteOS_Lab/iot_link/network/dtls/mbedtls/mbedtls-2.16.2/library\error.c ****             mbedtls_snprintf( buf, buflen, "SSL - The client initiated a reconnect from the same po
 2582              		.loc 1 513 0
 2583 0c00 7B4B     		ldr	r3, .L244+4
 2584 0c02 1B68     		ldr	r3, [r3]
 2585 0c04 7E4A     		ldr	r2, .L244+20
 2586 0c06 7968     		ldr	r1, [r7, #4]
 2587 0c08 B868     		ldr	r0, [r7, #8]
 2588 0c0a 9847     		blx	r3
 2589              	.LVL124:
 2590              	.L130:
 514:C:/Users/dtjld/workspace/AIoT/src/LiteOS_Lab/iot_link/network/dtls/mbedtls/mbedtls-2.16.2/library\error.c ****         if( use_ret == -(MBEDTLS_ERR_SSL_UNEXPECTED_RECORD) )
 2591              		.loc 1 514 0
 2592 0c0c 7B69     		ldr	r3, [r7, #20]
 2593 0c0e B3F5CE4F 		cmp	r3, #26368
 2594 0c12 05D1     		bne	.L131
 515:C:/Users/dtjld/workspace/AIoT/src/LiteOS_Lab/iot_link/network/dtls/mbedtls/mbedtls-2.16.2/library\error.c ****             mbedtls_snprintf( buf, buflen, "SSL - Record header looks valid but is not expected" );
 2595              		.loc 1 515 0
 2596 0c14 764B     		ldr	r3, .L244+4
 2597 0c16 1B68     		ldr	r3, [r3]
 2598 0c18 7A4A     		ldr	r2, .L244+24
 2599 0c1a 7968     		ldr	r1, [r7, #4]
 2600 0c1c B868     		ldr	r0, [r7, #8]
 2601 0c1e 9847     		blx	r3
 2602              	.LVL125:
 2603              	.L131:
 516:C:/Users/dtjld/workspace/AIoT/src/LiteOS_Lab/iot_link/network/dtls/mbedtls/mbedtls-2.16.2/library\error.c ****         if( use_ret == -(MBEDTLS_ERR_SSL_NON_FATAL) )
 2604              		.loc 1 516 0
 2605 0c20 7B69     		ldr	r3, [r7, #20]
 2606 0c22 B3F5CD4F 		cmp	r3, #26240
 2607 0c26 05D1     		bne	.L132
 517:C:/Users/dtjld/workspace/AIoT/src/LiteOS_Lab/iot_link/network/dtls/mbedtls/mbedtls-2.16.2/library\error.c ****             mbedtls_snprintf( buf, buflen, "SSL - The alert message received indicates a non-fatal 
 2608              		.loc 1 517 0
 2609 0c28 714B     		ldr	r3, .L244+4
 2610 0c2a 1B68     		ldr	r3, [r3]
 2611 0c2c 764A     		ldr	r2, .L244+28
 2612 0c2e 7968     		ldr	r1, [r7, #4]
 2613 0c30 B868     		ldr	r0, [r7, #8]
 2614 0c32 9847     		blx	r3
 2615              	.LVL126:
 2616              	.L132:
 518:C:/Users/dtjld/workspace/AIoT/src/LiteOS_Lab/iot_link/network/dtls/mbedtls/mbedtls-2.16.2/library\error.c ****         if( use_ret == -(MBEDTLS_ERR_SSL_INVALID_VERIFY_HASH) )
 2617              		.loc 1 518 0
 2618 0c34 7B69     		ldr	r3, [r7, #20]
 2619 0c36 B3F5CC4F 		cmp	r3, #26112
 2620 0c3a 05D1     		bne	.L133
 519:C:/Users/dtjld/workspace/AIoT/src/LiteOS_Lab/iot_link/network/dtls/mbedtls/mbedtls-2.16.2/library\error.c ****             mbedtls_snprintf( buf, buflen, "SSL - Couldn't set the hash for verifying CertificateVe
 2621              		.loc 1 519 0
ARM GAS  C:\Users\dtjld\AppData\Local\Temp\ccjG0xZ1.s 			page 75


 2622 0c3c 6C4B     		ldr	r3, .L244+4
 2623 0c3e 1B68     		ldr	r3, [r3]
 2624 0c40 724A     		ldr	r2, .L244+32
 2625 0c42 7968     		ldr	r1, [r7, #4]
 2626 0c44 B868     		ldr	r0, [r7, #8]
 2627 0c46 9847     		blx	r3
 2628              	.LVL127:
 2629              	.L133:
 520:C:/Users/dtjld/workspace/AIoT/src/LiteOS_Lab/iot_link/network/dtls/mbedtls/mbedtls-2.16.2/library\error.c ****         if( use_ret == -(MBEDTLS_ERR_SSL_CONTINUE_PROCESSING) )
 2630              		.loc 1 520 0
 2631 0c48 7B69     		ldr	r3, [r7, #20]
 2632 0c4a B3F5CB4F 		cmp	r3, #25984
 2633 0c4e 05D1     		bne	.L134
 521:C:/Users/dtjld/workspace/AIoT/src/LiteOS_Lab/iot_link/network/dtls/mbedtls/mbedtls-2.16.2/library\error.c ****             mbedtls_snprintf( buf, buflen, "SSL - Internal-only message signaling that further mess
 2634              		.loc 1 521 0
 2635 0c50 674B     		ldr	r3, .L244+4
 2636 0c52 1B68     		ldr	r3, [r3]
 2637 0c54 6E4A     		ldr	r2, .L244+36
 2638 0c56 7968     		ldr	r1, [r7, #4]
 2639 0c58 B868     		ldr	r0, [r7, #8]
 2640 0c5a 9847     		blx	r3
 2641              	.LVL128:
 2642              	.L134:
 522:C:/Users/dtjld/workspace/AIoT/src/LiteOS_Lab/iot_link/network/dtls/mbedtls/mbedtls-2.16.2/library\error.c ****         if( use_ret == -(MBEDTLS_ERR_SSL_ASYNC_IN_PROGRESS) )
 2643              		.loc 1 522 0
 2644 0c5c 7B69     		ldr	r3, [r7, #20]
 2645 0c5e B3F5CA4F 		cmp	r3, #25856
 2646 0c62 05D1     		bne	.L135
 523:C:/Users/dtjld/workspace/AIoT/src/LiteOS_Lab/iot_link/network/dtls/mbedtls/mbedtls-2.16.2/library\error.c ****             mbedtls_snprintf( buf, buflen, "SSL - The asynchronous operation is not completed yet" 
 2647              		.loc 1 523 0
 2648 0c64 624B     		ldr	r3, .L244+4
 2649 0c66 1B68     		ldr	r3, [r3]
 2650 0c68 6A4A     		ldr	r2, .L244+40
 2651 0c6a 7968     		ldr	r1, [r7, #4]
 2652 0c6c B868     		ldr	r0, [r7, #8]
 2653 0c6e 9847     		blx	r3
 2654              	.LVL129:
 2655              	.L135:
 524:C:/Users/dtjld/workspace/AIoT/src/LiteOS_Lab/iot_link/network/dtls/mbedtls/mbedtls-2.16.2/library\error.c ****         if( use_ret == -(MBEDTLS_ERR_SSL_EARLY_MESSAGE) )
 2656              		.loc 1 524 0
 2657 0c70 7B69     		ldr	r3, [r7, #20]
 2658 0c72 B3F5C94F 		cmp	r3, #25728
 2659 0c76 05D1     		bne	.L136
 525:C:/Users/dtjld/workspace/AIoT/src/LiteOS_Lab/iot_link/network/dtls/mbedtls/mbedtls-2.16.2/library\error.c ****             mbedtls_snprintf( buf, buflen, "SSL - Internal-only message signaling that a message ar
 2660              		.loc 1 525 0
 2661 0c78 5D4B     		ldr	r3, .L244+4
 2662 0c7a 1B68     		ldr	r3, [r3]
 2663 0c7c 664A     		ldr	r2, .L244+44
 2664 0c7e 7968     		ldr	r1, [r7, #4]
 2665 0c80 B868     		ldr	r0, [r7, #8]
 2666 0c82 9847     		blx	r3
 2667              	.LVL130:
 2668              	.L136:
 526:C:/Users/dtjld/workspace/AIoT/src/LiteOS_Lab/iot_link/network/dtls/mbedtls/mbedtls-2.16.2/library\error.c ****         if( use_ret == -(MBEDTLS_ERR_SSL_CRYPTO_IN_PROGRESS) )
 2669              		.loc 1 526 0
 2670 0c84 7B69     		ldr	r3, [r7, #20]
 2671 0c86 B3F5E04F 		cmp	r3, #28672
ARM GAS  C:\Users\dtjld\AppData\Local\Temp\ccjG0xZ1.s 			page 76


 2672 0c8a 05D1     		bne	.L137
 527:C:/Users/dtjld/workspace/AIoT/src/LiteOS_Lab/iot_link/network/dtls/mbedtls/mbedtls-2.16.2/library\error.c ****             mbedtls_snprintf( buf, buflen, "SSL - A cryptographic operation is in progress. Try aga
 2673              		.loc 1 527 0
 2674 0c8c 584B     		ldr	r3, .L244+4
 2675 0c8e 1B68     		ldr	r3, [r3]
 2676 0c90 624A     		ldr	r2, .L244+48
 2677 0c92 7968     		ldr	r1, [r7, #4]
 2678 0c94 B868     		ldr	r0, [r7, #8]
 2679 0c96 9847     		blx	r3
 2680              	.LVL131:
 2681              	.L137:
 528:C:/Users/dtjld/workspace/AIoT/src/LiteOS_Lab/iot_link/network/dtls/mbedtls/mbedtls-2.16.2/library\error.c **** #endif /* MBEDTLS_SSL_TLS_C */
 529:C:/Users/dtjld/workspace/AIoT/src/LiteOS_Lab/iot_link/network/dtls/mbedtls/mbedtls-2.16.2/library\error.c **** 
 530:C:/Users/dtjld/workspace/AIoT/src/LiteOS_Lab/iot_link/network/dtls/mbedtls/mbedtls-2.16.2/library\error.c **** #if defined(MBEDTLS_X509_USE_C) || defined(MBEDTLS_X509_CREATE_C)
 531:C:/Users/dtjld/workspace/AIoT/src/LiteOS_Lab/iot_link/network/dtls/mbedtls/mbedtls-2.16.2/library\error.c ****         if( use_ret == -(MBEDTLS_ERR_X509_FEATURE_UNAVAILABLE) )
 2682              		.loc 1 531 0
 2683 0c98 7B69     		ldr	r3, [r7, #20]
 2684 0c9a B3F5025F 		cmp	r3, #8320
 2685 0c9e 05D1     		bne	.L138
 532:C:/Users/dtjld/workspace/AIoT/src/LiteOS_Lab/iot_link/network/dtls/mbedtls/mbedtls-2.16.2/library\error.c ****             mbedtls_snprintf( buf, buflen, "X509 - Unavailable feature, e.g. RSA hashing/encryption
 2686              		.loc 1 532 0
 2687 0ca0 534B     		ldr	r3, .L244+4
 2688 0ca2 1B68     		ldr	r3, [r3]
 2689 0ca4 5E4A     		ldr	r2, .L244+52
 2690 0ca6 7968     		ldr	r1, [r7, #4]
 2691 0ca8 B868     		ldr	r0, [r7, #8]
 2692 0caa 9847     		blx	r3
 2693              	.LVL132:
 2694              	.L138:
 533:C:/Users/dtjld/workspace/AIoT/src/LiteOS_Lab/iot_link/network/dtls/mbedtls/mbedtls-2.16.2/library\error.c ****         if( use_ret == -(MBEDTLS_ERR_X509_UNKNOWN_OID) )
 2695              		.loc 1 533 0
 2696 0cac 7B69     		ldr	r3, [r7, #20]
 2697 0cae B3F5045F 		cmp	r3, #8448
 2698 0cb2 05D1     		bne	.L139
 534:C:/Users/dtjld/workspace/AIoT/src/LiteOS_Lab/iot_link/network/dtls/mbedtls/mbedtls-2.16.2/library\error.c ****             mbedtls_snprintf( buf, buflen, "X509 - Requested OID is unknown" );
 2699              		.loc 1 534 0
 2700 0cb4 4E4B     		ldr	r3, .L244+4
 2701 0cb6 1B68     		ldr	r3, [r3]
 2702 0cb8 5A4A     		ldr	r2, .L244+56
 2703 0cba 7968     		ldr	r1, [r7, #4]
 2704 0cbc B868     		ldr	r0, [r7, #8]
 2705 0cbe 9847     		blx	r3
 2706              	.LVL133:
 2707              	.L139:
 535:C:/Users/dtjld/workspace/AIoT/src/LiteOS_Lab/iot_link/network/dtls/mbedtls/mbedtls-2.16.2/library\error.c ****         if( use_ret == -(MBEDTLS_ERR_X509_INVALID_FORMAT) )
 2708              		.loc 1 535 0
 2709 0cc0 7B69     		ldr	r3, [r7, #20]
 2710 0cc2 B3F5065F 		cmp	r3, #8576
 2711 0cc6 05D1     		bne	.L140
 536:C:/Users/dtjld/workspace/AIoT/src/LiteOS_Lab/iot_link/network/dtls/mbedtls/mbedtls-2.16.2/library\error.c ****             mbedtls_snprintf( buf, buflen, "X509 - The CRT/CRL/CSR format is invalid, e.g. differen
 2712              		.loc 1 536 0
 2713 0cc8 494B     		ldr	r3, .L244+4
 2714 0cca 1B68     		ldr	r3, [r3]
 2715 0ccc 564A     		ldr	r2, .L244+60
 2716 0cce 7968     		ldr	r1, [r7, #4]
 2717 0cd0 B868     		ldr	r0, [r7, #8]
 2718 0cd2 9847     		blx	r3
ARM GAS  C:\Users\dtjld\AppData\Local\Temp\ccjG0xZ1.s 			page 77


 2719              	.LVL134:
 2720              	.L140:
 537:C:/Users/dtjld/workspace/AIoT/src/LiteOS_Lab/iot_link/network/dtls/mbedtls/mbedtls-2.16.2/library\error.c ****         if( use_ret == -(MBEDTLS_ERR_X509_INVALID_VERSION) )
 2721              		.loc 1 537 0
 2722 0cd4 7B69     		ldr	r3, [r7, #20]
 2723 0cd6 B3F5085F 		cmp	r3, #8704
 2724 0cda 05D1     		bne	.L141
 538:C:/Users/dtjld/workspace/AIoT/src/LiteOS_Lab/iot_link/network/dtls/mbedtls/mbedtls-2.16.2/library\error.c ****             mbedtls_snprintf( buf, buflen, "X509 - The CRT/CRL/CSR version element is invalid" );
 2725              		.loc 1 538 0
 2726 0cdc 444B     		ldr	r3, .L244+4
 2727 0cde 1B68     		ldr	r3, [r3]
 2728 0ce0 524A     		ldr	r2, .L244+64
 2729 0ce2 7968     		ldr	r1, [r7, #4]
 2730 0ce4 B868     		ldr	r0, [r7, #8]
 2731 0ce6 9847     		blx	r3
 2732              	.LVL135:
 2733              	.L141:
 539:C:/Users/dtjld/workspace/AIoT/src/LiteOS_Lab/iot_link/network/dtls/mbedtls/mbedtls-2.16.2/library\error.c ****         if( use_ret == -(MBEDTLS_ERR_X509_INVALID_SERIAL) )
 2734              		.loc 1 539 0
 2735 0ce8 7B69     		ldr	r3, [r7, #20]
 2736 0cea B3F50A5F 		cmp	r3, #8832
 2737 0cee 05D1     		bne	.L142
 540:C:/Users/dtjld/workspace/AIoT/src/LiteOS_Lab/iot_link/network/dtls/mbedtls/mbedtls-2.16.2/library\error.c ****             mbedtls_snprintf( buf, buflen, "X509 - The serial tag or value is invalid" );
 2738              		.loc 1 540 0
 2739 0cf0 3F4B     		ldr	r3, .L244+4
 2740 0cf2 1B68     		ldr	r3, [r3]
 2741 0cf4 4E4A     		ldr	r2, .L244+68
 2742 0cf6 7968     		ldr	r1, [r7, #4]
 2743 0cf8 B868     		ldr	r0, [r7, #8]
 2744 0cfa 9847     		blx	r3
 2745              	.LVL136:
 2746              	.L142:
 541:C:/Users/dtjld/workspace/AIoT/src/LiteOS_Lab/iot_link/network/dtls/mbedtls/mbedtls-2.16.2/library\error.c ****         if( use_ret == -(MBEDTLS_ERR_X509_INVALID_ALG) )
 2747              		.loc 1 541 0
 2748 0cfc 7B69     		ldr	r3, [r7, #20]
 2749 0cfe B3F50C5F 		cmp	r3, #8960
 2750 0d02 05D1     		bne	.L143
 542:C:/Users/dtjld/workspace/AIoT/src/LiteOS_Lab/iot_link/network/dtls/mbedtls/mbedtls-2.16.2/library\error.c ****             mbedtls_snprintf( buf, buflen, "X509 - The algorithm tag or value is invalid" );
 2751              		.loc 1 542 0
 2752 0d04 3A4B     		ldr	r3, .L244+4
 2753 0d06 1B68     		ldr	r3, [r3]
 2754 0d08 4A4A     		ldr	r2, .L244+72
 2755 0d0a 7968     		ldr	r1, [r7, #4]
 2756 0d0c B868     		ldr	r0, [r7, #8]
 2757 0d0e 9847     		blx	r3
 2758              	.LVL137:
 2759              	.L143:
 543:C:/Users/dtjld/workspace/AIoT/src/LiteOS_Lab/iot_link/network/dtls/mbedtls/mbedtls-2.16.2/library\error.c ****         if( use_ret == -(MBEDTLS_ERR_X509_INVALID_NAME) )
 2760              		.loc 1 543 0
 2761 0d10 7B69     		ldr	r3, [r7, #20]
 2762 0d12 B3F50E5F 		cmp	r3, #9088
 2763 0d16 05D1     		bne	.L144
 544:C:/Users/dtjld/workspace/AIoT/src/LiteOS_Lab/iot_link/network/dtls/mbedtls/mbedtls-2.16.2/library\error.c ****             mbedtls_snprintf( buf, buflen, "X509 - The name tag or value is invalid" );
 2764              		.loc 1 544 0
 2765 0d18 354B     		ldr	r3, .L244+4
 2766 0d1a 1B68     		ldr	r3, [r3]
 2767 0d1c 464A     		ldr	r2, .L244+76
ARM GAS  C:\Users\dtjld\AppData\Local\Temp\ccjG0xZ1.s 			page 78


 2768 0d1e 7968     		ldr	r1, [r7, #4]
 2769 0d20 B868     		ldr	r0, [r7, #8]
 2770 0d22 9847     		blx	r3
 2771              	.LVL138:
 2772              	.L144:
 545:C:/Users/dtjld/workspace/AIoT/src/LiteOS_Lab/iot_link/network/dtls/mbedtls/mbedtls-2.16.2/library\error.c ****         if( use_ret == -(MBEDTLS_ERR_X509_INVALID_DATE) )
 2773              		.loc 1 545 0
 2774 0d24 7B69     		ldr	r3, [r7, #20]
 2775 0d26 B3F5105F 		cmp	r3, #9216
 2776 0d2a 05D1     		bne	.L145
 546:C:/Users/dtjld/workspace/AIoT/src/LiteOS_Lab/iot_link/network/dtls/mbedtls/mbedtls-2.16.2/library\error.c ****             mbedtls_snprintf( buf, buflen, "X509 - The date tag or value is invalid" );
 2777              		.loc 1 546 0
 2778 0d2c 304B     		ldr	r3, .L244+4
 2779 0d2e 1B68     		ldr	r3, [r3]
 2780 0d30 424A     		ldr	r2, .L244+80
 2781 0d32 7968     		ldr	r1, [r7, #4]
 2782 0d34 B868     		ldr	r0, [r7, #8]
 2783 0d36 9847     		blx	r3
 2784              	.LVL139:
 2785              	.L145:
 547:C:/Users/dtjld/workspace/AIoT/src/LiteOS_Lab/iot_link/network/dtls/mbedtls/mbedtls-2.16.2/library\error.c ****         if( use_ret == -(MBEDTLS_ERR_X509_INVALID_SIGNATURE) )
 2786              		.loc 1 547 0
 2787 0d38 7B69     		ldr	r3, [r7, #20]
 2788 0d3a B3F5125F 		cmp	r3, #9344
 2789 0d3e 05D1     		bne	.L146
 548:C:/Users/dtjld/workspace/AIoT/src/LiteOS_Lab/iot_link/network/dtls/mbedtls/mbedtls-2.16.2/library\error.c ****             mbedtls_snprintf( buf, buflen, "X509 - The signature tag or value invalid" );
 2790              		.loc 1 548 0
 2791 0d40 2B4B     		ldr	r3, .L244+4
 2792 0d42 1B68     		ldr	r3, [r3]
 2793 0d44 3E4A     		ldr	r2, .L244+84
 2794 0d46 7968     		ldr	r1, [r7, #4]
 2795 0d48 B868     		ldr	r0, [r7, #8]
 2796 0d4a 9847     		blx	r3
 2797              	.LVL140:
 2798              	.L146:
 549:C:/Users/dtjld/workspace/AIoT/src/LiteOS_Lab/iot_link/network/dtls/mbedtls/mbedtls-2.16.2/library\error.c ****         if( use_ret == -(MBEDTLS_ERR_X509_INVALID_EXTENSIONS) )
 2799              		.loc 1 549 0
 2800 0d4c 7B69     		ldr	r3, [r7, #20]
 2801 0d4e B3F5145F 		cmp	r3, #9472
 2802 0d52 05D1     		bne	.L147
 550:C:/Users/dtjld/workspace/AIoT/src/LiteOS_Lab/iot_link/network/dtls/mbedtls/mbedtls-2.16.2/library\error.c ****             mbedtls_snprintf( buf, buflen, "X509 - The extension tag or value is invalid" );
 2803              		.loc 1 550 0
 2804 0d54 264B     		ldr	r3, .L244+4
 2805 0d56 1B68     		ldr	r3, [r3]
 2806 0d58 3A4A     		ldr	r2, .L244+88
 2807 0d5a 7968     		ldr	r1, [r7, #4]
 2808 0d5c B868     		ldr	r0, [r7, #8]
 2809 0d5e 9847     		blx	r3
 2810              	.LVL141:
 2811              	.L147:
 551:C:/Users/dtjld/workspace/AIoT/src/LiteOS_Lab/iot_link/network/dtls/mbedtls/mbedtls-2.16.2/library\error.c ****         if( use_ret == -(MBEDTLS_ERR_X509_UNKNOWN_VERSION) )
 2812              		.loc 1 551 0
 2813 0d60 7B69     		ldr	r3, [r7, #20]
 2814 0d62 B3F5165F 		cmp	r3, #9600
 2815 0d66 05D1     		bne	.L148
 552:C:/Users/dtjld/workspace/AIoT/src/LiteOS_Lab/iot_link/network/dtls/mbedtls/mbedtls-2.16.2/library\error.c ****             mbedtls_snprintf( buf, buflen, "X509 - CRT/CRL/CSR has an unsupported version number" )
 2816              		.loc 1 552 0
ARM GAS  C:\Users\dtjld\AppData\Local\Temp\ccjG0xZ1.s 			page 79


 2817 0d68 214B     		ldr	r3, .L244+4
 2818 0d6a 1B68     		ldr	r3, [r3]
 2819 0d6c 364A     		ldr	r2, .L244+92
 2820 0d6e 7968     		ldr	r1, [r7, #4]
 2821 0d70 B868     		ldr	r0, [r7, #8]
 2822 0d72 9847     		blx	r3
 2823              	.LVL142:
 2824              	.L148:
 553:C:/Users/dtjld/workspace/AIoT/src/LiteOS_Lab/iot_link/network/dtls/mbedtls/mbedtls-2.16.2/library\error.c ****         if( use_ret == -(MBEDTLS_ERR_X509_UNKNOWN_SIG_ALG) )
 2825              		.loc 1 553 0
 2826 0d74 7B69     		ldr	r3, [r7, #20]
 2827 0d76 B3F5185F 		cmp	r3, #9728
 2828 0d7a 05D1     		bne	.L149
 554:C:/Users/dtjld/workspace/AIoT/src/LiteOS_Lab/iot_link/network/dtls/mbedtls/mbedtls-2.16.2/library\error.c ****             mbedtls_snprintf( buf, buflen, "X509 - Signature algorithm (oid) is unsupported" );
 2829              		.loc 1 554 0
 2830 0d7c 1C4B     		ldr	r3, .L244+4
 2831 0d7e 1B68     		ldr	r3, [r3]
 2832 0d80 324A     		ldr	r2, .L244+96
 2833 0d82 7968     		ldr	r1, [r7, #4]
 2834 0d84 B868     		ldr	r0, [r7, #8]
 2835 0d86 9847     		blx	r3
 2836              	.LVL143:
 2837              	.L149:
 555:C:/Users/dtjld/workspace/AIoT/src/LiteOS_Lab/iot_link/network/dtls/mbedtls/mbedtls-2.16.2/library\error.c ****         if( use_ret == -(MBEDTLS_ERR_X509_SIG_MISMATCH) )
 2838              		.loc 1 555 0
 2839 0d88 7B69     		ldr	r3, [r7, #20]
 2840 0d8a B3F51A5F 		cmp	r3, #9856
 2841 0d8e 05D1     		bne	.L150
 556:C:/Users/dtjld/workspace/AIoT/src/LiteOS_Lab/iot_link/network/dtls/mbedtls/mbedtls-2.16.2/library\error.c ****             mbedtls_snprintf( buf, buflen, "X509 - Signature algorithms do not match. (see \\c ::mb
 2842              		.loc 1 556 0
 2843 0d90 174B     		ldr	r3, .L244+4
 2844 0d92 1B68     		ldr	r3, [r3]
 2845 0d94 2E4A     		ldr	r2, .L244+100
 2846 0d96 7968     		ldr	r1, [r7, #4]
 2847 0d98 B868     		ldr	r0, [r7, #8]
 2848 0d9a 9847     		blx	r3
 2849              	.LVL144:
 2850              	.L150:
 557:C:/Users/dtjld/workspace/AIoT/src/LiteOS_Lab/iot_link/network/dtls/mbedtls/mbedtls-2.16.2/library\error.c ****         if( use_ret == -(MBEDTLS_ERR_X509_CERT_VERIFY_FAILED) )
 2851              		.loc 1 557 0
 2852 0d9c 7B69     		ldr	r3, [r7, #20]
 2853 0d9e B3F51C5F 		cmp	r3, #9984
 2854 0da2 05D1     		bne	.L151
 558:C:/Users/dtjld/workspace/AIoT/src/LiteOS_Lab/iot_link/network/dtls/mbedtls/mbedtls-2.16.2/library\error.c ****             mbedtls_snprintf( buf, buflen, "X509 - Certificate verification failed, e.g. CRL, CA or
 2855              		.loc 1 558 0
 2856 0da4 124B     		ldr	r3, .L244+4
 2857 0da6 1B68     		ldr	r3, [r3]
 2858 0da8 2A4A     		ldr	r2, .L244+104
 2859 0daa 7968     		ldr	r1, [r7, #4]
 2860 0dac B868     		ldr	r0, [r7, #8]
 2861 0dae 9847     		blx	r3
 2862              	.LVL145:
 2863              	.L151:
 559:C:/Users/dtjld/workspace/AIoT/src/LiteOS_Lab/iot_link/network/dtls/mbedtls/mbedtls-2.16.2/library\error.c ****         if( use_ret == -(MBEDTLS_ERR_X509_CERT_UNKNOWN_FORMAT) )
 2864              		.loc 1 559 0
 2865 0db0 7B69     		ldr	r3, [r7, #20]
 2866 0db2 B3F51E5F 		cmp	r3, #10112
ARM GAS  C:\Users\dtjld\AppData\Local\Temp\ccjG0xZ1.s 			page 80


 2867 0db6 05D1     		bne	.L152
 560:C:/Users/dtjld/workspace/AIoT/src/LiteOS_Lab/iot_link/network/dtls/mbedtls/mbedtls-2.16.2/library\error.c ****             mbedtls_snprintf( buf, buflen, "X509 - Format not recognized as DER or PEM" );
 2868              		.loc 1 560 0
 2869 0db8 0D4B     		ldr	r3, .L244+4
 2870 0dba 1B68     		ldr	r3, [r3]
 2871 0dbc 264A     		ldr	r2, .L244+108
 2872 0dbe 7968     		ldr	r1, [r7, #4]
 2873 0dc0 B868     		ldr	r0, [r7, #8]
 2874 0dc2 9847     		blx	r3
 2875              	.LVL146:
 2876              	.L152:
 561:C:/Users/dtjld/workspace/AIoT/src/LiteOS_Lab/iot_link/network/dtls/mbedtls/mbedtls-2.16.2/library\error.c ****         if( use_ret == -(MBEDTLS_ERR_X509_BAD_INPUT_DATA) )
 2877              		.loc 1 561 0
 2878 0dc4 7B69     		ldr	r3, [r7, #20]
 2879 0dc6 B3F5205F 		cmp	r3, #10240
 2880 0dca 05D1     		bne	.L153
 562:C:/Users/dtjld/workspace/AIoT/src/LiteOS_Lab/iot_link/network/dtls/mbedtls/mbedtls-2.16.2/library\error.c ****             mbedtls_snprintf( buf, buflen, "X509 - Input invalid" );
 2881              		.loc 1 562 0
 2882 0dcc 084B     		ldr	r3, .L244+4
 2883 0dce 1B68     		ldr	r3, [r3]
 2884 0dd0 224A     		ldr	r2, .L244+112
 2885 0dd2 7968     		ldr	r1, [r7, #4]
 2886 0dd4 B868     		ldr	r0, [r7, #8]
 2887 0dd6 9847     		blx	r3
 2888              	.LVL147:
 2889              	.L153:
 563:C:/Users/dtjld/workspace/AIoT/src/LiteOS_Lab/iot_link/network/dtls/mbedtls/mbedtls-2.16.2/library\error.c ****         if( use_ret == -(MBEDTLS_ERR_X509_ALLOC_FAILED) )
 2890              		.loc 1 563 0
 2891 0dd8 7B69     		ldr	r3, [r7, #20]
 2892 0dda B3F5225F 		cmp	r3, #10368
 2893 0dde 43D1     		bne	.L154
 564:C:/Users/dtjld/workspace/AIoT/src/LiteOS_Lab/iot_link/network/dtls/mbedtls/mbedtls-2.16.2/library\error.c ****             mbedtls_snprintf( buf, buflen, "X509 - Allocation of memory failed" );
 2894              		.loc 1 564 0
 2895 0de0 034B     		ldr	r3, .L244+4
 2896 0de2 1B68     		ldr	r3, [r3]
 2897 0de4 1E4A     		ldr	r2, .L244+116
 2898 0de6 7968     		ldr	r1, [r7, #4]
 2899 0de8 3CE0     		b	.L245
 2900              	.L246:
 2901 0dea 00BF     		.align	2
 2902              	.L244:
 2903 0dec 14190000 		.word	.LC120
 2904 0df0 00000000 		.word	mbedtls_snprintf
 2905 0df4 78190000 		.word	.LC121
 2906 0df8 C4190000 		.word	.LC122
 2907 0dfc EC190000 		.word	.LC123
 2908 0e00 0C1A0000 		.word	.LC124
 2909 0e04 481A0000 		.word	.LC125
 2910 0e08 7C1A0000 		.word	.LC126
 2911 0e0c BC1A0000 		.word	.LC127
 2912 0e10 F81A0000 		.word	.LC128
 2913 0e14 501B0000 		.word	.LC129
 2914 0e18 881B0000 		.word	.LC130
 2915 0e1c CC1B0000 		.word	.LC131
 2916 0e20 0C1C0000 		.word	.LC132
 2917 0e24 501C0000 		.word	.LC133
 2918 0e28 701C0000 		.word	.LC134
ARM GAS  C:\Users\dtjld\AppData\Local\Temp\ccjG0xZ1.s 			page 81


 2919 0e2c B81C0000 		.word	.LC135
 2920 0e30 EC1C0000 		.word	.LC136
 2921 0e34 181D0000 		.word	.LC137
 2922 0e38 481D0000 		.word	.LC138
 2923 0e3c 701D0000 		.word	.LC139
 2924 0e40 981D0000 		.word	.LC140
 2925 0e44 C41D0000 		.word	.LC141
 2926 0e48 F41D0000 		.word	.LC142
 2927 0e4c 2C1E0000 		.word	.LC143
 2928 0e50 5C1E0000 		.word	.LC144
 2929 0e54 AC1E0000 		.word	.LC145
 2930 0e58 FC1E0000 		.word	.LC146
 2931 0e5c 281F0000 		.word	.LC147
 2932 0e60 401F0000 		.word	.LC148
 2933              	.L245:
 2934 0e64 B868     		ldr	r0, [r7, #8]
 2935 0e66 9847     		blx	r3
 2936              	.LVL148:
 2937              	.L154:
 565:C:/Users/dtjld/workspace/AIoT/src/LiteOS_Lab/iot_link/network/dtls/mbedtls/mbedtls-2.16.2/library\error.c ****         if( use_ret == -(MBEDTLS_ERR_X509_FILE_IO_ERROR) )
 2938              		.loc 1 565 0
 2939 0e68 7B69     		ldr	r3, [r7, #20]
 2940 0e6a B3F5245F 		cmp	r3, #10496
 2941 0e6e 05D1     		bne	.L155
 566:C:/Users/dtjld/workspace/AIoT/src/LiteOS_Lab/iot_link/network/dtls/mbedtls/mbedtls-2.16.2/library\error.c ****             mbedtls_snprintf( buf, buflen, "X509 - Read/write of file failed" );
 2942              		.loc 1 566 0
 2943 0e70 8A4B     		ldr	r3, .L247
 2944 0e72 1B68     		ldr	r3, [r3]
 2945 0e74 8A4A     		ldr	r2, .L247+4
 2946 0e76 7968     		ldr	r1, [r7, #4]
 2947 0e78 B868     		ldr	r0, [r7, #8]
 2948 0e7a 9847     		blx	r3
 2949              	.LVL149:
 2950              	.L155:
 567:C:/Users/dtjld/workspace/AIoT/src/LiteOS_Lab/iot_link/network/dtls/mbedtls/mbedtls-2.16.2/library\error.c ****         if( use_ret == -(MBEDTLS_ERR_X509_BUFFER_TOO_SMALL) )
 2951              		.loc 1 567 0
 2952 0e7c 7B69     		ldr	r3, [r7, #20]
 2953 0e7e B3F5265F 		cmp	r3, #10624
 2954 0e82 05D1     		bne	.L156
 568:C:/Users/dtjld/workspace/AIoT/src/LiteOS_Lab/iot_link/network/dtls/mbedtls/mbedtls-2.16.2/library\error.c ****             mbedtls_snprintf( buf, buflen, "X509 - Destination buffer is too small" );
 2955              		.loc 1 568 0
 2956 0e84 854B     		ldr	r3, .L247
 2957 0e86 1B68     		ldr	r3, [r3]
 2958 0e88 864A     		ldr	r2, .L247+8
 2959 0e8a 7968     		ldr	r1, [r7, #4]
 2960 0e8c B868     		ldr	r0, [r7, #8]
 2961 0e8e 9847     		blx	r3
 2962              	.LVL150:
 2963              	.L156:
 569:C:/Users/dtjld/workspace/AIoT/src/LiteOS_Lab/iot_link/network/dtls/mbedtls/mbedtls-2.16.2/library\error.c ****         if( use_ret == -(MBEDTLS_ERR_X509_FATAL_ERROR) )
 2964              		.loc 1 569 0
 2965 0e90 7B69     		ldr	r3, [r7, #20]
 2966 0e92 B3F5405F 		cmp	r3, #12288
 2967 0e96 05D1     		bne	.L157
 570:C:/Users/dtjld/workspace/AIoT/src/LiteOS_Lab/iot_link/network/dtls/mbedtls/mbedtls-2.16.2/library\error.c ****             mbedtls_snprintf( buf, buflen, "X509 - A fatal error occured, eg the chain is too long 
 2968              		.loc 1 570 0
 2969 0e98 804B     		ldr	r3, .L247
ARM GAS  C:\Users\dtjld\AppData\Local\Temp\ccjG0xZ1.s 			page 82


 2970 0e9a 1B68     		ldr	r3, [r3]
 2971 0e9c 824A     		ldr	r2, .L247+12
 2972 0e9e 7968     		ldr	r1, [r7, #4]
 2973 0ea0 B868     		ldr	r0, [r7, #8]
 2974 0ea2 9847     		blx	r3
 2975              	.LVL151:
 2976              	.L157:
 571:C:/Users/dtjld/workspace/AIoT/src/LiteOS_Lab/iot_link/network/dtls/mbedtls/mbedtls-2.16.2/library\error.c **** #endif /* MBEDTLS_X509_USE_C || MBEDTLS_X509_CREATE_C */
 572:C:/Users/dtjld/workspace/AIoT/src/LiteOS_Lab/iot_link/network/dtls/mbedtls/mbedtls-2.16.2/library\error.c ****         // END generated code
 573:C:/Users/dtjld/workspace/AIoT/src/LiteOS_Lab/iot_link/network/dtls/mbedtls/mbedtls-2.16.2/library\error.c **** 
 574:C:/Users/dtjld/workspace/AIoT/src/LiteOS_Lab/iot_link/network/dtls/mbedtls/mbedtls-2.16.2/library\error.c ****         if( strlen( buf ) == 0 )
 2977              		.loc 1 574 0
 2978 0ea4 BB68     		ldr	r3, [r7, #8]
 2979 0ea6 1B78     		ldrb	r3, [r3]	@ zero_extendqisi2
 2980 0ea8 002B     		cmp	r3, #0
 2981 0eaa 06D1     		bne	.L5
 575:C:/Users/dtjld/workspace/AIoT/src/LiteOS_Lab/iot_link/network/dtls/mbedtls/mbedtls-2.16.2/library\error.c ****             mbedtls_snprintf( buf, buflen, "UNKNOWN ERROR CODE (%04X)", use_ret );
 2982              		.loc 1 575 0
 2983 0eac 7B4B     		ldr	r3, .L247
 2984 0eae 1C68     		ldr	r4, [r3]
 2985 0eb0 7B69     		ldr	r3, [r7, #20]
 2986 0eb2 7E4A     		ldr	r2, .L247+16
 2987 0eb4 7968     		ldr	r1, [r7, #4]
 2988 0eb6 B868     		ldr	r0, [r7, #8]
 2989 0eb8 A047     		blx	r4
 2990              	.LVL152:
 2991              	.L5:
 576:C:/Users/dtjld/workspace/AIoT/src/LiteOS_Lab/iot_link/network/dtls/mbedtls/mbedtls-2.16.2/library\error.c ****     }
 577:C:/Users/dtjld/workspace/AIoT/src/LiteOS_Lab/iot_link/network/dtls/mbedtls/mbedtls-2.16.2/library\error.c **** 
 578:C:/Users/dtjld/workspace/AIoT/src/LiteOS_Lab/iot_link/network/dtls/mbedtls/mbedtls-2.16.2/library\error.c ****     use_ret = ret & ~0xFF80;
 2992              		.loc 1 578 0
 2993 0eba FB68     		ldr	r3, [r7, #12]
 2994 0ebc 23F47F43 		bic	r3, r3, #65280
 2995 0ec0 23F08003 		bic	r3, r3, #128
 2996 0ec4 7B61     		str	r3, [r7, #20]
 579:C:/Users/dtjld/workspace/AIoT/src/LiteOS_Lab/iot_link/network/dtls/mbedtls/mbedtls-2.16.2/library\error.c **** 
 580:C:/Users/dtjld/workspace/AIoT/src/LiteOS_Lab/iot_link/network/dtls/mbedtls/mbedtls-2.16.2/library\error.c ****     if( use_ret == 0 )
 2997              		.loc 1 580 0
 2998 0ec6 7B69     		ldr	r3, [r7, #20]
 2999 0ec8 002B     		cmp	r3, #0
 3000 0eca 00F0E782 		beq	.L227
 581:C:/Users/dtjld/workspace/AIoT/src/LiteOS_Lab/iot_link/network/dtls/mbedtls/mbedtls-2.16.2/library\error.c ****         return;
 582:C:/Users/dtjld/workspace/AIoT/src/LiteOS_Lab/iot_link/network/dtls/mbedtls/mbedtls-2.16.2/library\error.c **** 
 583:C:/Users/dtjld/workspace/AIoT/src/LiteOS_Lab/iot_link/network/dtls/mbedtls/mbedtls-2.16.2/library\error.c ****     // If high level code is present, make a concatenation between both
 584:C:/Users/dtjld/workspace/AIoT/src/LiteOS_Lab/iot_link/network/dtls/mbedtls/mbedtls-2.16.2/library\error.c ****     // error strings.
 585:C:/Users/dtjld/workspace/AIoT/src/LiteOS_Lab/iot_link/network/dtls/mbedtls/mbedtls-2.16.2/library\error.c ****     //
 586:C:/Users/dtjld/workspace/AIoT/src/LiteOS_Lab/iot_link/network/dtls/mbedtls/mbedtls-2.16.2/library\error.c ****     len = strlen( buf );
 3001              		.loc 1 586 0
 3002 0ece B868     		ldr	r0, [r7, #8]
 3003 0ed0 FFF7FEFF 		bl	strlen
 3004 0ed4 3861     		str	r0, [r7, #16]
 587:C:/Users/dtjld/workspace/AIoT/src/LiteOS_Lab/iot_link/network/dtls/mbedtls/mbedtls-2.16.2/library\error.c **** 
 588:C:/Users/dtjld/workspace/AIoT/src/LiteOS_Lab/iot_link/network/dtls/mbedtls/mbedtls-2.16.2/library\error.c ****     if( len > 0 )
 3005              		.loc 1 588 0
 3006 0ed6 3B69     		ldr	r3, [r7, #16]
 3007 0ed8 002B     		cmp	r3, #0
 3008 0eda 19D0     		beq	.L159
ARM GAS  C:\Users\dtjld\AppData\Local\Temp\ccjG0xZ1.s 			page 83


 589:C:/Users/dtjld/workspace/AIoT/src/LiteOS_Lab/iot_link/network/dtls/mbedtls/mbedtls-2.16.2/library\error.c ****     {
 590:C:/Users/dtjld/workspace/AIoT/src/LiteOS_Lab/iot_link/network/dtls/mbedtls/mbedtls-2.16.2/library\error.c ****         if( buflen - len < 5 )
 3009              		.loc 1 590 0
 3010 0edc 7A68     		ldr	r2, [r7, #4]
 3011 0ede 3B69     		ldr	r3, [r7, #16]
 3012 0ee0 D31A     		subs	r3, r2, r3
 3013 0ee2 042B     		cmp	r3, #4
 3014 0ee4 40F2DC82 		bls	.L228
 591:C:/Users/dtjld/workspace/AIoT/src/LiteOS_Lab/iot_link/network/dtls/mbedtls/mbedtls-2.16.2/library\error.c ****             return;
 592:C:/Users/dtjld/workspace/AIoT/src/LiteOS_Lab/iot_link/network/dtls/mbedtls/mbedtls-2.16.2/library\error.c **** 
 593:C:/Users/dtjld/workspace/AIoT/src/LiteOS_Lab/iot_link/network/dtls/mbedtls/mbedtls-2.16.2/library\error.c ****         mbedtls_snprintf( buf + len, buflen - len, " : " );
 3015              		.loc 1 593 0
 3016 0ee8 6C4B     		ldr	r3, .L247
 3017 0eea 1B68     		ldr	r3, [r3]
 3018 0eec B968     		ldr	r1, [r7, #8]
 3019 0eee 3A69     		ldr	r2, [r7, #16]
 3020 0ef0 8818     		adds	r0, r1, r2
 3021 0ef2 7968     		ldr	r1, [r7, #4]
 3022 0ef4 3A69     		ldr	r2, [r7, #16]
 3023 0ef6 891A     		subs	r1, r1, r2
 3024 0ef8 6D4A     		ldr	r2, .L247+20
 3025 0efa 9847     		blx	r3
 3026              	.LVL153:
 594:C:/Users/dtjld/workspace/AIoT/src/LiteOS_Lab/iot_link/network/dtls/mbedtls/mbedtls-2.16.2/library\error.c **** 
 595:C:/Users/dtjld/workspace/AIoT/src/LiteOS_Lab/iot_link/network/dtls/mbedtls/mbedtls-2.16.2/library\error.c ****         buf += len + 3;
 3027              		.loc 1 595 0
 3028 0efc 3B69     		ldr	r3, [r7, #16]
 3029 0efe 0333     		adds	r3, r3, #3
 3030 0f00 BA68     		ldr	r2, [r7, #8]
 3031 0f02 1344     		add	r3, r3, r2
 3032 0f04 BB60     		str	r3, [r7, #8]
 596:C:/Users/dtjld/workspace/AIoT/src/LiteOS_Lab/iot_link/network/dtls/mbedtls/mbedtls-2.16.2/library\error.c ****         buflen -= len + 3;
 3033              		.loc 1 596 0
 3034 0f06 7A68     		ldr	r2, [r7, #4]
 3035 0f08 3B69     		ldr	r3, [r7, #16]
 3036 0f0a D31A     		subs	r3, r2, r3
 3037 0f0c 033B     		subs	r3, r3, #3
 3038 0f0e 7B60     		str	r3, [r7, #4]
 3039              	.L159:
 597:C:/Users/dtjld/workspace/AIoT/src/LiteOS_Lab/iot_link/network/dtls/mbedtls/mbedtls-2.16.2/library\error.c ****     }
 598:C:/Users/dtjld/workspace/AIoT/src/LiteOS_Lab/iot_link/network/dtls/mbedtls/mbedtls-2.16.2/library\error.c **** 
 599:C:/Users/dtjld/workspace/AIoT/src/LiteOS_Lab/iot_link/network/dtls/mbedtls/mbedtls-2.16.2/library\error.c ****     // Low level error codes
 600:C:/Users/dtjld/workspace/AIoT/src/LiteOS_Lab/iot_link/network/dtls/mbedtls/mbedtls-2.16.2/library\error.c ****     //
 601:C:/Users/dtjld/workspace/AIoT/src/LiteOS_Lab/iot_link/network/dtls/mbedtls/mbedtls-2.16.2/library\error.c ****     // BEGIN generated code
 602:C:/Users/dtjld/workspace/AIoT/src/LiteOS_Lab/iot_link/network/dtls/mbedtls/mbedtls-2.16.2/library\error.c **** #if defined(MBEDTLS_AES_C)
 603:C:/Users/dtjld/workspace/AIoT/src/LiteOS_Lab/iot_link/network/dtls/mbedtls/mbedtls-2.16.2/library\error.c ****     if( use_ret == -(MBEDTLS_ERR_AES_INVALID_KEY_LENGTH) )
 3040              		.loc 1 603 0
 3041 0f10 7B69     		ldr	r3, [r7, #20]
 3042 0f12 202B     		cmp	r3, #32
 3043 0f14 05D1     		bne	.L161
 604:C:/Users/dtjld/workspace/AIoT/src/LiteOS_Lab/iot_link/network/dtls/mbedtls/mbedtls-2.16.2/library\error.c ****         mbedtls_snprintf( buf, buflen, "AES - Invalid key length" );
 3044              		.loc 1 604 0
 3045 0f16 614B     		ldr	r3, .L247
 3046 0f18 1B68     		ldr	r3, [r3]
 3047 0f1a 664A     		ldr	r2, .L247+24
 3048 0f1c 7968     		ldr	r1, [r7, #4]
 3049 0f1e B868     		ldr	r0, [r7, #8]
ARM GAS  C:\Users\dtjld\AppData\Local\Temp\ccjG0xZ1.s 			page 84


 3050 0f20 9847     		blx	r3
 3051              	.LVL154:
 3052              	.L161:
 605:C:/Users/dtjld/workspace/AIoT/src/LiteOS_Lab/iot_link/network/dtls/mbedtls/mbedtls-2.16.2/library\error.c ****     if( use_ret == -(MBEDTLS_ERR_AES_INVALID_INPUT_LENGTH) )
 3053              		.loc 1 605 0
 3054 0f22 7B69     		ldr	r3, [r7, #20]
 3055 0f24 222B     		cmp	r3, #34
 3056 0f26 05D1     		bne	.L162
 606:C:/Users/dtjld/workspace/AIoT/src/LiteOS_Lab/iot_link/network/dtls/mbedtls/mbedtls-2.16.2/library\error.c ****         mbedtls_snprintf( buf, buflen, "AES - Invalid data input length" );
 3057              		.loc 1 606 0
 3058 0f28 5C4B     		ldr	r3, .L247
 3059 0f2a 1B68     		ldr	r3, [r3]
 3060 0f2c 624A     		ldr	r2, .L247+28
 3061 0f2e 7968     		ldr	r1, [r7, #4]
 3062 0f30 B868     		ldr	r0, [r7, #8]
 3063 0f32 9847     		blx	r3
 3064              	.LVL155:
 3065              	.L162:
 607:C:/Users/dtjld/workspace/AIoT/src/LiteOS_Lab/iot_link/network/dtls/mbedtls/mbedtls-2.16.2/library\error.c ****     if( use_ret == -(MBEDTLS_ERR_AES_BAD_INPUT_DATA) )
 3066              		.loc 1 607 0
 3067 0f34 7B69     		ldr	r3, [r7, #20]
 3068 0f36 212B     		cmp	r3, #33
 3069 0f38 05D1     		bne	.L163
 608:C:/Users/dtjld/workspace/AIoT/src/LiteOS_Lab/iot_link/network/dtls/mbedtls/mbedtls-2.16.2/library\error.c ****         mbedtls_snprintf( buf, buflen, "AES - Invalid input data" );
 3070              		.loc 1 608 0
 3071 0f3a 584B     		ldr	r3, .L247
 3072 0f3c 1B68     		ldr	r3, [r3]
 3073 0f3e 5F4A     		ldr	r2, .L247+32
 3074 0f40 7968     		ldr	r1, [r7, #4]
 3075 0f42 B868     		ldr	r0, [r7, #8]
 3076 0f44 9847     		blx	r3
 3077              	.LVL156:
 3078              	.L163:
 609:C:/Users/dtjld/workspace/AIoT/src/LiteOS_Lab/iot_link/network/dtls/mbedtls/mbedtls-2.16.2/library\error.c ****     if( use_ret == -(MBEDTLS_ERR_AES_FEATURE_UNAVAILABLE) )
 3079              		.loc 1 609 0
 3080 0f46 7B69     		ldr	r3, [r7, #20]
 3081 0f48 232B     		cmp	r3, #35
 3082 0f4a 05D1     		bne	.L164
 610:C:/Users/dtjld/workspace/AIoT/src/LiteOS_Lab/iot_link/network/dtls/mbedtls/mbedtls-2.16.2/library\error.c ****         mbedtls_snprintf( buf, buflen, "AES - Feature not available. For example, an unsupported AE
 3083              		.loc 1 610 0
 3084 0f4c 534B     		ldr	r3, .L247
 3085 0f4e 1B68     		ldr	r3, [r3]
 3086 0f50 5B4A     		ldr	r2, .L247+36
 3087 0f52 7968     		ldr	r1, [r7, #4]
 3088 0f54 B868     		ldr	r0, [r7, #8]
 3089 0f56 9847     		blx	r3
 3090              	.LVL157:
 3091              	.L164:
 611:C:/Users/dtjld/workspace/AIoT/src/LiteOS_Lab/iot_link/network/dtls/mbedtls/mbedtls-2.16.2/library\error.c ****     if( use_ret == -(MBEDTLS_ERR_AES_HW_ACCEL_FAILED) )
 3092              		.loc 1 611 0
 3093 0f58 7B69     		ldr	r3, [r7, #20]
 3094 0f5a 252B     		cmp	r3, #37
 3095 0f5c 05D1     		bne	.L165
 612:C:/Users/dtjld/workspace/AIoT/src/LiteOS_Lab/iot_link/network/dtls/mbedtls/mbedtls-2.16.2/library\error.c ****         mbedtls_snprintf( buf, buflen, "AES - AES hardware accelerator failed" );
 3096              		.loc 1 612 0
 3097 0f5e 4F4B     		ldr	r3, .L247
 3098 0f60 1B68     		ldr	r3, [r3]
ARM GAS  C:\Users\dtjld\AppData\Local\Temp\ccjG0xZ1.s 			page 85


 3099 0f62 584A     		ldr	r2, .L247+40
 3100 0f64 7968     		ldr	r1, [r7, #4]
 3101 0f66 B868     		ldr	r0, [r7, #8]
 3102 0f68 9847     		blx	r3
 3103              	.LVL158:
 3104              	.L165:
 613:C:/Users/dtjld/workspace/AIoT/src/LiteOS_Lab/iot_link/network/dtls/mbedtls/mbedtls-2.16.2/library\error.c **** #endif /* MBEDTLS_AES_C */
 614:C:/Users/dtjld/workspace/AIoT/src/LiteOS_Lab/iot_link/network/dtls/mbedtls/mbedtls-2.16.2/library\error.c **** 
 615:C:/Users/dtjld/workspace/AIoT/src/LiteOS_Lab/iot_link/network/dtls/mbedtls/mbedtls-2.16.2/library\error.c **** #if defined(MBEDTLS_ARC4_C)
 616:C:/Users/dtjld/workspace/AIoT/src/LiteOS_Lab/iot_link/network/dtls/mbedtls/mbedtls-2.16.2/library\error.c ****     if( use_ret == -(MBEDTLS_ERR_ARC4_HW_ACCEL_FAILED) )
 3105              		.loc 1 616 0
 3106 0f6a 7B69     		ldr	r3, [r7, #20]
 3107 0f6c 192B     		cmp	r3, #25
 3108 0f6e 05D1     		bne	.L166
 617:C:/Users/dtjld/workspace/AIoT/src/LiteOS_Lab/iot_link/network/dtls/mbedtls/mbedtls-2.16.2/library\error.c ****         mbedtls_snprintf( buf, buflen, "ARC4 - ARC4 hardware accelerator failed" );
 3109              		.loc 1 617 0
 3110 0f70 4A4B     		ldr	r3, .L247
 3111 0f72 1B68     		ldr	r3, [r3]
 3112 0f74 544A     		ldr	r2, .L247+44
 3113 0f76 7968     		ldr	r1, [r7, #4]
 3114 0f78 B868     		ldr	r0, [r7, #8]
 3115 0f7a 9847     		blx	r3
 3116              	.LVL159:
 3117              	.L166:
 618:C:/Users/dtjld/workspace/AIoT/src/LiteOS_Lab/iot_link/network/dtls/mbedtls/mbedtls-2.16.2/library\error.c **** #endif /* MBEDTLS_ARC4_C */
 619:C:/Users/dtjld/workspace/AIoT/src/LiteOS_Lab/iot_link/network/dtls/mbedtls/mbedtls-2.16.2/library\error.c **** 
 620:C:/Users/dtjld/workspace/AIoT/src/LiteOS_Lab/iot_link/network/dtls/mbedtls/mbedtls-2.16.2/library\error.c **** #if defined(MBEDTLS_ARIA_C)
 621:C:/Users/dtjld/workspace/AIoT/src/LiteOS_Lab/iot_link/network/dtls/mbedtls/mbedtls-2.16.2/library\error.c ****     if( use_ret == -(MBEDTLS_ERR_ARIA_BAD_INPUT_DATA) )
 622:C:/Users/dtjld/workspace/AIoT/src/LiteOS_Lab/iot_link/network/dtls/mbedtls/mbedtls-2.16.2/library\error.c ****         mbedtls_snprintf( buf, buflen, "ARIA - Bad input data" );
 623:C:/Users/dtjld/workspace/AIoT/src/LiteOS_Lab/iot_link/network/dtls/mbedtls/mbedtls-2.16.2/library\error.c ****     if( use_ret == -(MBEDTLS_ERR_ARIA_INVALID_INPUT_LENGTH) )
 624:C:/Users/dtjld/workspace/AIoT/src/LiteOS_Lab/iot_link/network/dtls/mbedtls/mbedtls-2.16.2/library\error.c ****         mbedtls_snprintf( buf, buflen, "ARIA - Invalid data input length" );
 625:C:/Users/dtjld/workspace/AIoT/src/LiteOS_Lab/iot_link/network/dtls/mbedtls/mbedtls-2.16.2/library\error.c ****     if( use_ret == -(MBEDTLS_ERR_ARIA_FEATURE_UNAVAILABLE) )
 626:C:/Users/dtjld/workspace/AIoT/src/LiteOS_Lab/iot_link/network/dtls/mbedtls/mbedtls-2.16.2/library\error.c ****         mbedtls_snprintf( buf, buflen, "ARIA - Feature not available. For example, an unsupported A
 627:C:/Users/dtjld/workspace/AIoT/src/LiteOS_Lab/iot_link/network/dtls/mbedtls/mbedtls-2.16.2/library\error.c ****     if( use_ret == -(MBEDTLS_ERR_ARIA_HW_ACCEL_FAILED) )
 628:C:/Users/dtjld/workspace/AIoT/src/LiteOS_Lab/iot_link/network/dtls/mbedtls/mbedtls-2.16.2/library\error.c ****         mbedtls_snprintf( buf, buflen, "ARIA - ARIA hardware accelerator failed" );
 629:C:/Users/dtjld/workspace/AIoT/src/LiteOS_Lab/iot_link/network/dtls/mbedtls/mbedtls-2.16.2/library\error.c **** #endif /* MBEDTLS_ARIA_C */
 630:C:/Users/dtjld/workspace/AIoT/src/LiteOS_Lab/iot_link/network/dtls/mbedtls/mbedtls-2.16.2/library\error.c **** 
 631:C:/Users/dtjld/workspace/AIoT/src/LiteOS_Lab/iot_link/network/dtls/mbedtls/mbedtls-2.16.2/library\error.c **** #if defined(MBEDTLS_ASN1_PARSE_C)
 632:C:/Users/dtjld/workspace/AIoT/src/LiteOS_Lab/iot_link/network/dtls/mbedtls/mbedtls-2.16.2/library\error.c ****     if( use_ret == -(MBEDTLS_ERR_ASN1_OUT_OF_DATA) )
 3118              		.loc 1 632 0
 3119 0f7c 7B69     		ldr	r3, [r7, #20]
 3120 0f7e 602B     		cmp	r3, #96
 3121 0f80 05D1     		bne	.L167
 633:C:/Users/dtjld/workspace/AIoT/src/LiteOS_Lab/iot_link/network/dtls/mbedtls/mbedtls-2.16.2/library\error.c ****         mbedtls_snprintf( buf, buflen, "ASN1 - Out of data when parsing an ASN1 data structure" );
 3122              		.loc 1 633 0
 3123 0f82 464B     		ldr	r3, .L247
 3124 0f84 1B68     		ldr	r3, [r3]
 3125 0f86 514A     		ldr	r2, .L247+48
 3126 0f88 7968     		ldr	r1, [r7, #4]
 3127 0f8a B868     		ldr	r0, [r7, #8]
 3128 0f8c 9847     		blx	r3
 3129              	.LVL160:
 3130              	.L167:
 634:C:/Users/dtjld/workspace/AIoT/src/LiteOS_Lab/iot_link/network/dtls/mbedtls/mbedtls-2.16.2/library\error.c ****     if( use_ret == -(MBEDTLS_ERR_ASN1_UNEXPECTED_TAG) )
 3131              		.loc 1 634 0
 3132 0f8e 7B69     		ldr	r3, [r7, #20]
 3133 0f90 622B     		cmp	r3, #98
ARM GAS  C:\Users\dtjld\AppData\Local\Temp\ccjG0xZ1.s 			page 86


 3134 0f92 05D1     		bne	.L168
 635:C:/Users/dtjld/workspace/AIoT/src/LiteOS_Lab/iot_link/network/dtls/mbedtls/mbedtls-2.16.2/library\error.c ****         mbedtls_snprintf( buf, buflen, "ASN1 - ASN1 tag was of an unexpected value" );
 3135              		.loc 1 635 0
 3136 0f94 414B     		ldr	r3, .L247
 3137 0f96 1B68     		ldr	r3, [r3]
 3138 0f98 4D4A     		ldr	r2, .L247+52
 3139 0f9a 7968     		ldr	r1, [r7, #4]
 3140 0f9c B868     		ldr	r0, [r7, #8]
 3141 0f9e 9847     		blx	r3
 3142              	.LVL161:
 3143              	.L168:
 636:C:/Users/dtjld/workspace/AIoT/src/LiteOS_Lab/iot_link/network/dtls/mbedtls/mbedtls-2.16.2/library\error.c ****     if( use_ret == -(MBEDTLS_ERR_ASN1_INVALID_LENGTH) )
 3144              		.loc 1 636 0
 3145 0fa0 7B69     		ldr	r3, [r7, #20]
 3146 0fa2 642B     		cmp	r3, #100
 3147 0fa4 05D1     		bne	.L169
 637:C:/Users/dtjld/workspace/AIoT/src/LiteOS_Lab/iot_link/network/dtls/mbedtls/mbedtls-2.16.2/library\error.c ****         mbedtls_snprintf( buf, buflen, "ASN1 - Error when trying to determine the length or invalid
 3148              		.loc 1 637 0
 3149 0fa6 3D4B     		ldr	r3, .L247
 3150 0fa8 1B68     		ldr	r3, [r3]
 3151 0faa 4A4A     		ldr	r2, .L247+56
 3152 0fac 7968     		ldr	r1, [r7, #4]
 3153 0fae B868     		ldr	r0, [r7, #8]
 3154 0fb0 9847     		blx	r3
 3155              	.LVL162:
 3156              	.L169:
 638:C:/Users/dtjld/workspace/AIoT/src/LiteOS_Lab/iot_link/network/dtls/mbedtls/mbedtls-2.16.2/library\error.c ****     if( use_ret == -(MBEDTLS_ERR_ASN1_LENGTH_MISMATCH) )
 3157              		.loc 1 638 0
 3158 0fb2 7B69     		ldr	r3, [r7, #20]
 3159 0fb4 662B     		cmp	r3, #102
 3160 0fb6 05D1     		bne	.L170
 639:C:/Users/dtjld/workspace/AIoT/src/LiteOS_Lab/iot_link/network/dtls/mbedtls/mbedtls-2.16.2/library\error.c ****         mbedtls_snprintf( buf, buflen, "ASN1 - Actual length differs from expected length" );
 3161              		.loc 1 639 0
 3162 0fb8 384B     		ldr	r3, .L247
 3163 0fba 1B68     		ldr	r3, [r3]
 3164 0fbc 464A     		ldr	r2, .L247+60
 3165 0fbe 7968     		ldr	r1, [r7, #4]
 3166 0fc0 B868     		ldr	r0, [r7, #8]
 3167 0fc2 9847     		blx	r3
 3168              	.LVL163:
 3169              	.L170:
 640:C:/Users/dtjld/workspace/AIoT/src/LiteOS_Lab/iot_link/network/dtls/mbedtls/mbedtls-2.16.2/library\error.c ****     if( use_ret == -(MBEDTLS_ERR_ASN1_INVALID_DATA) )
 3170              		.loc 1 640 0
 3171 0fc4 7B69     		ldr	r3, [r7, #20]
