ARM GAS  C:\Users\dtjld\AppData\Local\Temp\ccrYdj6j.s 			page 1


   1              		.cpu cortex-m4
   2              		.eabi_attribute 27, 1
   3              		.eabi_attribute 28, 1
   4              		.eabi_attribute 20, 1
   5              		.eabi_attribute 21, 1
   6              		.eabi_attribute 23, 3
   7              		.eabi_attribute 24, 1
   8              		.eabi_attribute 25, 1
   9              		.eabi_attribute 26, 1
  10              		.eabi_attribute 30, 6
  11              		.eabi_attribute 34, 1
  12              		.eabi_attribute 18, 4
  13              		.file	"gcm.c"
  14              		.text
  15              	.Ltext0:
  16              		.cfi_sections	.debug_frame
  17              		.section	.text.mbedtls_gcm_init,"ax",%progbits
  18              		.align	1
  19              		.global	mbedtls_gcm_init
  20              		.syntax unified
  21              		.thumb
  22              		.thumb_func
  23              		.fpu fpv4-sp-d16
  25              	mbedtls_gcm_init:
  26              	.LFB10:
  27              		.file 1 "C:/Users/dtjld/workspace/AIoT/src/LiteOS_Lab/iot_link/network/dtls/mbedtls/mbedtls-2.16.2
   1:C:/Users/dtjld/workspace/AIoT/src/LiteOS_Lab/iot_link/network/dtls/mbedtls/mbedtls-2.16.2/library\gcm.c **** /*
   2:C:/Users/dtjld/workspace/AIoT/src/LiteOS_Lab/iot_link/network/dtls/mbedtls/mbedtls-2.16.2/library\gcm.c ****  *  NIST SP800-38D compliant GCM implementation
   3:C:/Users/dtjld/workspace/AIoT/src/LiteOS_Lab/iot_link/network/dtls/mbedtls/mbedtls-2.16.2/library\gcm.c ****  *
   4:C:/Users/dtjld/workspace/AIoT/src/LiteOS_Lab/iot_link/network/dtls/mbedtls/mbedtls-2.16.2/library\gcm.c ****  *  Copyright (C) 2006-2015, ARM Limited, All Rights Reserved
   5:C:/Users/dtjld/workspace/AIoT/src/LiteOS_Lab/iot_link/network/dtls/mbedtls/mbedtls-2.16.2/library\gcm.c ****  *  SPDX-License-Identifier: Apache-2.0
   6:C:/Users/dtjld/workspace/AIoT/src/LiteOS_Lab/iot_link/network/dtls/mbedtls/mbedtls-2.16.2/library\gcm.c ****  *
   7:C:/Users/dtjld/workspace/AIoT/src/LiteOS_Lab/iot_link/network/dtls/mbedtls/mbedtls-2.16.2/library\gcm.c ****  *  Licensed under the Apache License, Version 2.0 (the "License"); you may
   8:C:/Users/dtjld/workspace/AIoT/src/LiteOS_Lab/iot_link/network/dtls/mbedtls/mbedtls-2.16.2/library\gcm.c ****  *  not use this file except in compliance with the License.
   9:C:/Users/dtjld/workspace/AIoT/src/LiteOS_Lab/iot_link/network/dtls/mbedtls/mbedtls-2.16.2/library\gcm.c ****  *  You may obtain a copy of the License at
  10:C:/Users/dtjld/workspace/AIoT/src/LiteOS_Lab/iot_link/network/dtls/mbedtls/mbedtls-2.16.2/library\gcm.c ****  *
  11:C:/Users/dtjld/workspace/AIoT/src/LiteOS_Lab/iot_link/network/dtls/mbedtls/mbedtls-2.16.2/library\gcm.c ****  *  http://www.apache.org/licenses/LICENSE-2.0
  12:C:/Users/dtjld/workspace/AIoT/src/LiteOS_Lab/iot_link/network/dtls/mbedtls/mbedtls-2.16.2/library\gcm.c ****  *
  13:C:/Users/dtjld/workspace/AIoT/src/LiteOS_Lab/iot_link/network/dtls/mbedtls/mbedtls-2.16.2/library\gcm.c ****  *  Unless required by applicable law or agreed to in writing, software
  14:C:/Users/dtjld/workspace/AIoT/src/LiteOS_Lab/iot_link/network/dtls/mbedtls/mbedtls-2.16.2/library\gcm.c ****  *  distributed under the License is distributed on an "AS IS" BASIS, WITHOUT
  15:C:/Users/dtjld/workspace/AIoT/src/LiteOS_Lab/iot_link/network/dtls/mbedtls/mbedtls-2.16.2/library\gcm.c ****  *  WARRANTIES OR CONDITIONS OF ANY KIND, either express or implied.
  16:C:/Users/dtjld/workspace/AIoT/src/LiteOS_Lab/iot_link/network/dtls/mbedtls/mbedtls-2.16.2/library\gcm.c ****  *  See the License for the specific language governing permissions and
  17:C:/Users/dtjld/workspace/AIoT/src/LiteOS_Lab/iot_link/network/dtls/mbedtls/mbedtls-2.16.2/library\gcm.c ****  *  limitations under the License.
  18:C:/Users/dtjld/workspace/AIoT/src/LiteOS_Lab/iot_link/network/dtls/mbedtls/mbedtls-2.16.2/library\gcm.c ****  *
  19:C:/Users/dtjld/workspace/AIoT/src/LiteOS_Lab/iot_link/network/dtls/mbedtls/mbedtls-2.16.2/library\gcm.c ****  *  This file is part of mbed TLS (https://tls.mbed.org)
  20:C:/Users/dtjld/workspace/AIoT/src/LiteOS_Lab/iot_link/network/dtls/mbedtls/mbedtls-2.16.2/library\gcm.c ****  */
  21:C:/Users/dtjld/workspace/AIoT/src/LiteOS_Lab/iot_link/network/dtls/mbedtls/mbedtls-2.16.2/library\gcm.c **** 
  22:C:/Users/dtjld/workspace/AIoT/src/LiteOS_Lab/iot_link/network/dtls/mbedtls/mbedtls-2.16.2/library\gcm.c **** /*
  23:C:/Users/dtjld/workspace/AIoT/src/LiteOS_Lab/iot_link/network/dtls/mbedtls/mbedtls-2.16.2/library\gcm.c ****  * http://csrc.nist.gov/publications/nistpubs/800-38D/SP-800-38D.pdf
  24:C:/Users/dtjld/workspace/AIoT/src/LiteOS_Lab/iot_link/network/dtls/mbedtls/mbedtls-2.16.2/library\gcm.c ****  *
  25:C:/Users/dtjld/workspace/AIoT/src/LiteOS_Lab/iot_link/network/dtls/mbedtls/mbedtls-2.16.2/library\gcm.c ****  * See also:
  26:C:/Users/dtjld/workspace/AIoT/src/LiteOS_Lab/iot_link/network/dtls/mbedtls/mbedtls-2.16.2/library\gcm.c ****  * [MGV] http://csrc.nist.gov/groups/ST/toolkit/BCM/documents/proposedmodes/gcm/gcm-revised-spec.pd
  27:C:/Users/dtjld/workspace/AIoT/src/LiteOS_Lab/iot_link/network/dtls/mbedtls/mbedtls-2.16.2/library\gcm.c ****  *
  28:C:/Users/dtjld/workspace/AIoT/src/LiteOS_Lab/iot_link/network/dtls/mbedtls/mbedtls-2.16.2/library\gcm.c ****  * We use the algorithm described as Shoup's method with 4-bit tables in
  29:C:/Users/dtjld/workspace/AIoT/src/LiteOS_Lab/iot_link/network/dtls/mbedtls/mbedtls-2.16.2/library\gcm.c ****  * [MGV] 4.1, pp. 12-13, to enhance speed without using too much memory.
  30:C:/Users/dtjld/workspace/AIoT/src/LiteOS_Lab/iot_link/network/dtls/mbedtls/mbedtls-2.16.2/library\gcm.c ****  */
  31:C:/Users/dtjld/workspace/AIoT/src/LiteOS_Lab/iot_link/network/dtls/mbedtls/mbedtls-2.16.2/library\gcm.c **** 
ARM GAS  C:\Users\dtjld\AppData\Local\Temp\ccrYdj6j.s 			page 2


  32:C:/Users/dtjld/workspace/AIoT/src/LiteOS_Lab/iot_link/network/dtls/mbedtls/mbedtls-2.16.2/library\gcm.c **** #if !defined(MBEDTLS_CONFIG_FILE)
  33:C:/Users/dtjld/workspace/AIoT/src/LiteOS_Lab/iot_link/network/dtls/mbedtls/mbedtls-2.16.2/library\gcm.c **** #include "mbedtls/config.h"
  34:C:/Users/dtjld/workspace/AIoT/src/LiteOS_Lab/iot_link/network/dtls/mbedtls/mbedtls-2.16.2/library\gcm.c **** #else
  35:C:/Users/dtjld/workspace/AIoT/src/LiteOS_Lab/iot_link/network/dtls/mbedtls/mbedtls-2.16.2/library\gcm.c **** #include MBEDTLS_CONFIG_FILE
  36:C:/Users/dtjld/workspace/AIoT/src/LiteOS_Lab/iot_link/network/dtls/mbedtls/mbedtls-2.16.2/library\gcm.c **** #endif
  37:C:/Users/dtjld/workspace/AIoT/src/LiteOS_Lab/iot_link/network/dtls/mbedtls/mbedtls-2.16.2/library\gcm.c **** 
  38:C:/Users/dtjld/workspace/AIoT/src/LiteOS_Lab/iot_link/network/dtls/mbedtls/mbedtls-2.16.2/library\gcm.c **** #if defined(MBEDTLS_GCM_C)
  39:C:/Users/dtjld/workspace/AIoT/src/LiteOS_Lab/iot_link/network/dtls/mbedtls/mbedtls-2.16.2/library\gcm.c **** 
  40:C:/Users/dtjld/workspace/AIoT/src/LiteOS_Lab/iot_link/network/dtls/mbedtls/mbedtls-2.16.2/library\gcm.c **** #include "mbedtls/gcm.h"
  41:C:/Users/dtjld/workspace/AIoT/src/LiteOS_Lab/iot_link/network/dtls/mbedtls/mbedtls-2.16.2/library\gcm.c **** #include "mbedtls/platform_util.h"
  42:C:/Users/dtjld/workspace/AIoT/src/LiteOS_Lab/iot_link/network/dtls/mbedtls/mbedtls-2.16.2/library\gcm.c **** 
  43:C:/Users/dtjld/workspace/AIoT/src/LiteOS_Lab/iot_link/network/dtls/mbedtls/mbedtls-2.16.2/library\gcm.c **** #include <string.h>
  44:C:/Users/dtjld/workspace/AIoT/src/LiteOS_Lab/iot_link/network/dtls/mbedtls/mbedtls-2.16.2/library\gcm.c **** 
  45:C:/Users/dtjld/workspace/AIoT/src/LiteOS_Lab/iot_link/network/dtls/mbedtls/mbedtls-2.16.2/library\gcm.c **** #if defined(MBEDTLS_AESNI_C)
  46:C:/Users/dtjld/workspace/AIoT/src/LiteOS_Lab/iot_link/network/dtls/mbedtls/mbedtls-2.16.2/library\gcm.c **** #include "mbedtls/aesni.h"
  47:C:/Users/dtjld/workspace/AIoT/src/LiteOS_Lab/iot_link/network/dtls/mbedtls/mbedtls-2.16.2/library\gcm.c **** #endif
  48:C:/Users/dtjld/workspace/AIoT/src/LiteOS_Lab/iot_link/network/dtls/mbedtls/mbedtls-2.16.2/library\gcm.c **** 
  49:C:/Users/dtjld/workspace/AIoT/src/LiteOS_Lab/iot_link/network/dtls/mbedtls/mbedtls-2.16.2/library\gcm.c **** #if defined(MBEDTLS_SELF_TEST) && defined(MBEDTLS_AES_C)
  50:C:/Users/dtjld/workspace/AIoT/src/LiteOS_Lab/iot_link/network/dtls/mbedtls/mbedtls-2.16.2/library\gcm.c **** #include "mbedtls/aes.h"
  51:C:/Users/dtjld/workspace/AIoT/src/LiteOS_Lab/iot_link/network/dtls/mbedtls/mbedtls-2.16.2/library\gcm.c **** #include "mbedtls/platform.h"
  52:C:/Users/dtjld/workspace/AIoT/src/LiteOS_Lab/iot_link/network/dtls/mbedtls/mbedtls-2.16.2/library\gcm.c **** #if !defined(MBEDTLS_PLATFORM_C)
  53:C:/Users/dtjld/workspace/AIoT/src/LiteOS_Lab/iot_link/network/dtls/mbedtls/mbedtls-2.16.2/library\gcm.c **** #include <stdio.h>
  54:C:/Users/dtjld/workspace/AIoT/src/LiteOS_Lab/iot_link/network/dtls/mbedtls/mbedtls-2.16.2/library\gcm.c **** #define mbedtls_printf printf
  55:C:/Users/dtjld/workspace/AIoT/src/LiteOS_Lab/iot_link/network/dtls/mbedtls/mbedtls-2.16.2/library\gcm.c **** #endif /* MBEDTLS_PLATFORM_C */
  56:C:/Users/dtjld/workspace/AIoT/src/LiteOS_Lab/iot_link/network/dtls/mbedtls/mbedtls-2.16.2/library\gcm.c **** #endif /* MBEDTLS_SELF_TEST && MBEDTLS_AES_C */
  57:C:/Users/dtjld/workspace/AIoT/src/LiteOS_Lab/iot_link/network/dtls/mbedtls/mbedtls-2.16.2/library\gcm.c **** 
  58:C:/Users/dtjld/workspace/AIoT/src/LiteOS_Lab/iot_link/network/dtls/mbedtls/mbedtls-2.16.2/library\gcm.c **** #if !defined(MBEDTLS_GCM_ALT)
  59:C:/Users/dtjld/workspace/AIoT/src/LiteOS_Lab/iot_link/network/dtls/mbedtls/mbedtls-2.16.2/library\gcm.c **** 
  60:C:/Users/dtjld/workspace/AIoT/src/LiteOS_Lab/iot_link/network/dtls/mbedtls/mbedtls-2.16.2/library\gcm.c **** /* Parameter validation macros */
  61:C:/Users/dtjld/workspace/AIoT/src/LiteOS_Lab/iot_link/network/dtls/mbedtls/mbedtls-2.16.2/library\gcm.c **** #define GCM_VALIDATE_RET( cond ) \
  62:C:/Users/dtjld/workspace/AIoT/src/LiteOS_Lab/iot_link/network/dtls/mbedtls/mbedtls-2.16.2/library\gcm.c ****     MBEDTLS_INTERNAL_VALIDATE_RET( cond, MBEDTLS_ERR_GCM_BAD_INPUT )
  63:C:/Users/dtjld/workspace/AIoT/src/LiteOS_Lab/iot_link/network/dtls/mbedtls/mbedtls-2.16.2/library\gcm.c **** #define GCM_VALIDATE( cond ) \
  64:C:/Users/dtjld/workspace/AIoT/src/LiteOS_Lab/iot_link/network/dtls/mbedtls/mbedtls-2.16.2/library\gcm.c ****     MBEDTLS_INTERNAL_VALIDATE( cond )
  65:C:/Users/dtjld/workspace/AIoT/src/LiteOS_Lab/iot_link/network/dtls/mbedtls/mbedtls-2.16.2/library\gcm.c **** 
  66:C:/Users/dtjld/workspace/AIoT/src/LiteOS_Lab/iot_link/network/dtls/mbedtls/mbedtls-2.16.2/library\gcm.c **** /*
  67:C:/Users/dtjld/workspace/AIoT/src/LiteOS_Lab/iot_link/network/dtls/mbedtls/mbedtls-2.16.2/library\gcm.c ****  * 32-bit integer manipulation macros (big endian)
  68:C:/Users/dtjld/workspace/AIoT/src/LiteOS_Lab/iot_link/network/dtls/mbedtls/mbedtls-2.16.2/library\gcm.c ****  */
  69:C:/Users/dtjld/workspace/AIoT/src/LiteOS_Lab/iot_link/network/dtls/mbedtls/mbedtls-2.16.2/library\gcm.c **** #ifndef GET_UINT32_BE
  70:C:/Users/dtjld/workspace/AIoT/src/LiteOS_Lab/iot_link/network/dtls/mbedtls/mbedtls-2.16.2/library\gcm.c **** #define GET_UINT32_BE(n,b,i)                            \
  71:C:/Users/dtjld/workspace/AIoT/src/LiteOS_Lab/iot_link/network/dtls/mbedtls/mbedtls-2.16.2/library\gcm.c **** {                                                       \
  72:C:/Users/dtjld/workspace/AIoT/src/LiteOS_Lab/iot_link/network/dtls/mbedtls/mbedtls-2.16.2/library\gcm.c ****     (n) = ( (uint32_t) (b)[(i)    ] << 24 )             \
  73:C:/Users/dtjld/workspace/AIoT/src/LiteOS_Lab/iot_link/network/dtls/mbedtls/mbedtls-2.16.2/library\gcm.c ****         | ( (uint32_t) (b)[(i) + 1] << 16 )             \
  74:C:/Users/dtjld/workspace/AIoT/src/LiteOS_Lab/iot_link/network/dtls/mbedtls/mbedtls-2.16.2/library\gcm.c ****         | ( (uint32_t) (b)[(i) + 2] <<  8 )             \
  75:C:/Users/dtjld/workspace/AIoT/src/LiteOS_Lab/iot_link/network/dtls/mbedtls/mbedtls-2.16.2/library\gcm.c ****         | ( (uint32_t) (b)[(i) + 3]       );            \
  76:C:/Users/dtjld/workspace/AIoT/src/LiteOS_Lab/iot_link/network/dtls/mbedtls/mbedtls-2.16.2/library\gcm.c **** }
  77:C:/Users/dtjld/workspace/AIoT/src/LiteOS_Lab/iot_link/network/dtls/mbedtls/mbedtls-2.16.2/library\gcm.c **** #endif
  78:C:/Users/dtjld/workspace/AIoT/src/LiteOS_Lab/iot_link/network/dtls/mbedtls/mbedtls-2.16.2/library\gcm.c **** 
  79:C:/Users/dtjld/workspace/AIoT/src/LiteOS_Lab/iot_link/network/dtls/mbedtls/mbedtls-2.16.2/library\gcm.c **** #ifndef PUT_UINT32_BE
  80:C:/Users/dtjld/workspace/AIoT/src/LiteOS_Lab/iot_link/network/dtls/mbedtls/mbedtls-2.16.2/library\gcm.c **** #define PUT_UINT32_BE(n,b,i)                            \
  81:C:/Users/dtjld/workspace/AIoT/src/LiteOS_Lab/iot_link/network/dtls/mbedtls/mbedtls-2.16.2/library\gcm.c **** {                                                       \
  82:C:/Users/dtjld/workspace/AIoT/src/LiteOS_Lab/iot_link/network/dtls/mbedtls/mbedtls-2.16.2/library\gcm.c ****     (b)[(i)    ] = (unsigned char) ( (n) >> 24 );       \
  83:C:/Users/dtjld/workspace/AIoT/src/LiteOS_Lab/iot_link/network/dtls/mbedtls/mbedtls-2.16.2/library\gcm.c ****     (b)[(i) + 1] = (unsigned char) ( (n) >> 16 );       \
  84:C:/Users/dtjld/workspace/AIoT/src/LiteOS_Lab/iot_link/network/dtls/mbedtls/mbedtls-2.16.2/library\gcm.c ****     (b)[(i) + 2] = (unsigned char) ( (n) >>  8 );       \
  85:C:/Users/dtjld/workspace/AIoT/src/LiteOS_Lab/iot_link/network/dtls/mbedtls/mbedtls-2.16.2/library\gcm.c ****     (b)[(i) + 3] = (unsigned char) ( (n)       );       \
  86:C:/Users/dtjld/workspace/AIoT/src/LiteOS_Lab/iot_link/network/dtls/mbedtls/mbedtls-2.16.2/library\gcm.c **** }
  87:C:/Users/dtjld/workspace/AIoT/src/LiteOS_Lab/iot_link/network/dtls/mbedtls/mbedtls-2.16.2/library\gcm.c **** #endif
  88:C:/Users/dtjld/workspace/AIoT/src/LiteOS_Lab/iot_link/network/dtls/mbedtls/mbedtls-2.16.2/library\gcm.c **** 
ARM GAS  C:\Users\dtjld\AppData\Local\Temp\ccrYdj6j.s 			page 3


  89:C:/Users/dtjld/workspace/AIoT/src/LiteOS_Lab/iot_link/network/dtls/mbedtls/mbedtls-2.16.2/library\gcm.c **** /*
  90:C:/Users/dtjld/workspace/AIoT/src/LiteOS_Lab/iot_link/network/dtls/mbedtls/mbedtls-2.16.2/library\gcm.c ****  * Initialize a context
  91:C:/Users/dtjld/workspace/AIoT/src/LiteOS_Lab/iot_link/network/dtls/mbedtls/mbedtls-2.16.2/library\gcm.c ****  */
  92:C:/Users/dtjld/workspace/AIoT/src/LiteOS_Lab/iot_link/network/dtls/mbedtls/mbedtls-2.16.2/library\gcm.c **** void mbedtls_gcm_init( mbedtls_gcm_context *ctx )
  93:C:/Users/dtjld/workspace/AIoT/src/LiteOS_Lab/iot_link/network/dtls/mbedtls/mbedtls-2.16.2/library\gcm.c **** {
  28              		.loc 1 93 0
  29              		.cfi_startproc
  30              		@ args = 0, pretend = 0, frame = 8
  31              		@ frame_needed = 1, uses_anonymous_args = 0
  32 0000 80B5     		push	{r7, lr}
  33              	.LCFI0:
  34              		.cfi_def_cfa_offset 8
  35              		.cfi_offset 7, -8
  36              		.cfi_offset 14, -4
  37 0002 82B0     		sub	sp, sp, #8
  38              	.LCFI1:
  39              		.cfi_def_cfa_offset 16
  40 0004 00AF     		add	r7, sp, #0
  41              	.LCFI2:
  42              		.cfi_def_cfa_register 7
  43 0006 7860     		str	r0, [r7, #4]
  94:C:/Users/dtjld/workspace/AIoT/src/LiteOS_Lab/iot_link/network/dtls/mbedtls/mbedtls-2.16.2/library\gcm.c ****     GCM_VALIDATE( ctx != NULL );
  95:C:/Users/dtjld/workspace/AIoT/src/LiteOS_Lab/iot_link/network/dtls/mbedtls/mbedtls-2.16.2/library\gcm.c ****     memset( ctx, 0, sizeof( mbedtls_gcm_context ) );
  44              		.loc 1 95 0
  45 0008 4FF4C472 		mov	r2, #392
  46 000c 0021     		movs	r1, #0
  47 000e 7868     		ldr	r0, [r7, #4]
  48 0010 FFF7FEFF 		bl	memset
  96:C:/Users/dtjld/workspace/AIoT/src/LiteOS_Lab/iot_link/network/dtls/mbedtls/mbedtls-2.16.2/library\gcm.c **** }
  49              		.loc 1 96 0
  50 0014 00BF     		nop
  51 0016 0837     		adds	r7, r7, #8
  52              	.LCFI3:
  53              		.cfi_def_cfa_offset 8
  54 0018 BD46     		mov	sp, r7
  55              	.LCFI4:
  56              		.cfi_def_cfa_register 13
  57              		@ sp needed
  58 001a 80BD     		pop	{r7, pc}
  59              		.cfi_endproc
  60              	.LFE10:
  62              		.section	.text.gcm_gen_table,"ax",%progbits
  63              		.align	1
  64              		.syntax unified
  65              		.thumb
  66              		.thumb_func
  67              		.fpu fpv4-sp-d16
  69              	gcm_gen_table:
  70              	.LFB11:
  97:C:/Users/dtjld/workspace/AIoT/src/LiteOS_Lab/iot_link/network/dtls/mbedtls/mbedtls-2.16.2/library\gcm.c **** 
  98:C:/Users/dtjld/workspace/AIoT/src/LiteOS_Lab/iot_link/network/dtls/mbedtls/mbedtls-2.16.2/library\gcm.c **** /*
  99:C:/Users/dtjld/workspace/AIoT/src/LiteOS_Lab/iot_link/network/dtls/mbedtls/mbedtls-2.16.2/library\gcm.c ****  * Precompute small multiples of H, that is set
 100:C:/Users/dtjld/workspace/AIoT/src/LiteOS_Lab/iot_link/network/dtls/mbedtls/mbedtls-2.16.2/library\gcm.c ****  *      HH[i] || HL[i] = H times i,
 101:C:/Users/dtjld/workspace/AIoT/src/LiteOS_Lab/iot_link/network/dtls/mbedtls/mbedtls-2.16.2/library\gcm.c ****  * where i is seen as a field element as in [MGV], ie high-order bits
 102:C:/Users/dtjld/workspace/AIoT/src/LiteOS_Lab/iot_link/network/dtls/mbedtls/mbedtls-2.16.2/library\gcm.c ****  * correspond to low powers of P. The result is stored in the same way, that
 103:C:/Users/dtjld/workspace/AIoT/src/LiteOS_Lab/iot_link/network/dtls/mbedtls/mbedtls-2.16.2/library\gcm.c ****  * is the high-order bit of HH corresponds to P^0 and the low-order bit of HL
 104:C:/Users/dtjld/workspace/AIoT/src/LiteOS_Lab/iot_link/network/dtls/mbedtls/mbedtls-2.16.2/library\gcm.c ****  * corresponds to P^127.
ARM GAS  C:\Users\dtjld\AppData\Local\Temp\ccrYdj6j.s 			page 4


 105:C:/Users/dtjld/workspace/AIoT/src/LiteOS_Lab/iot_link/network/dtls/mbedtls/mbedtls-2.16.2/library\gcm.c ****  */
 106:C:/Users/dtjld/workspace/AIoT/src/LiteOS_Lab/iot_link/network/dtls/mbedtls/mbedtls-2.16.2/library\gcm.c **** static int gcm_gen_table( mbedtls_gcm_context *ctx )
 107:C:/Users/dtjld/workspace/AIoT/src/LiteOS_Lab/iot_link/network/dtls/mbedtls/mbedtls-2.16.2/library\gcm.c **** {
  71              		.loc 1 107 0
  72              		.cfi_startproc
  73              		@ args = 0, pretend = 0, frame = 88
  74              		@ frame_needed = 1, uses_anonymous_args = 0
  75 0000 2DE9F048 		push	{r4, r5, r6, r7, fp, lr}
  76              	.LCFI5:
  77              		.cfi_def_cfa_offset 24
  78              		.cfi_offset 4, -24
  79              		.cfi_offset 5, -20
  80              		.cfi_offset 6, -16
  81              		.cfi_offset 7, -12
  82              		.cfi_offset 11, -8
  83              		.cfi_offset 14, -4
  84 0004 98B0     		sub	sp, sp, #96
  85              	.LCFI6:
  86              		.cfi_def_cfa_offset 120
  87 0006 02AF     		add	r7, sp, #8
  88              	.LCFI7:
  89              		.cfi_def_cfa 7, 112
  90 0008 7860     		str	r0, [r7, #4]
 108:C:/Users/dtjld/workspace/AIoT/src/LiteOS_Lab/iot_link/network/dtls/mbedtls/mbedtls-2.16.2/library\gcm.c ****     int ret, i, j;
 109:C:/Users/dtjld/workspace/AIoT/src/LiteOS_Lab/iot_link/network/dtls/mbedtls/mbedtls-2.16.2/library\gcm.c ****     uint64_t hi, lo;
 110:C:/Users/dtjld/workspace/AIoT/src/LiteOS_Lab/iot_link/network/dtls/mbedtls/mbedtls-2.16.2/library\gcm.c ****     uint64_t vl, vh;
 111:C:/Users/dtjld/workspace/AIoT/src/LiteOS_Lab/iot_link/network/dtls/mbedtls/mbedtls-2.16.2/library\gcm.c ****     unsigned char h[16];
 112:C:/Users/dtjld/workspace/AIoT/src/LiteOS_Lab/iot_link/network/dtls/mbedtls/mbedtls-2.16.2/library\gcm.c ****     size_t olen = 0;
  91              		.loc 1 112 0
  92 000a 0023     		movs	r3, #0
  93 000c BB60     		str	r3, [r7, #8]
 113:C:/Users/dtjld/workspace/AIoT/src/LiteOS_Lab/iot_link/network/dtls/mbedtls/mbedtls-2.16.2/library\gcm.c **** 
 114:C:/Users/dtjld/workspace/AIoT/src/LiteOS_Lab/iot_link/network/dtls/mbedtls/mbedtls-2.16.2/library\gcm.c ****     memset( h, 0, 16 );
  94              		.loc 1 114 0
  95 000e 07F10C03 		add	r3, r7, #12
  96 0012 1022     		movs	r2, #16
  97 0014 0021     		movs	r1, #0
  98 0016 1846     		mov	r0, r3
  99 0018 FFF7FEFF 		bl	memset
 115:C:/Users/dtjld/workspace/AIoT/src/LiteOS_Lab/iot_link/network/dtls/mbedtls/mbedtls-2.16.2/library\gcm.c ****     if( ( ret = mbedtls_cipher_update( &ctx->cipher_ctx, h, 16, h, &olen ) ) != 0 )
 100              		.loc 1 115 0
 101 001c 7868     		ldr	r0, [r7, #4]
 102 001e 07F10C02 		add	r2, r7, #12
 103 0022 07F10C01 		add	r1, r7, #12
 104 0026 07F10803 		add	r3, r7, #8
 105 002a 0093     		str	r3, [sp]
 106 002c 1346     		mov	r3, r2
 107 002e 1022     		movs	r2, #16
 108 0030 FFF7FEFF 		bl	mbedtls_cipher_update
 109 0034 F863     		str	r0, [r7, #60]
 110 0036 FB6B     		ldr	r3, [r7, #60]
 111 0038 002B     		cmp	r3, #0
 112 003a 01D0     		beq	.L3
 116:C:/Users/dtjld/workspace/AIoT/src/LiteOS_Lab/iot_link/network/dtls/mbedtls/mbedtls-2.16.2/library\gcm.c ****         return( ret );
 113              		.loc 1 116 0
 114 003c FB6B     		ldr	r3, [r7, #60]
 115 003e 0FE1     		b	.L11
ARM GAS  C:\Users\dtjld\AppData\Local\Temp\ccrYdj6j.s 			page 5


 116              	.L3:
 117:C:/Users/dtjld/workspace/AIoT/src/LiteOS_Lab/iot_link/network/dtls/mbedtls/mbedtls-2.16.2/library\gcm.c **** 
 118:C:/Users/dtjld/workspace/AIoT/src/LiteOS_Lab/iot_link/network/dtls/mbedtls/mbedtls-2.16.2/library\gcm.c ****     /* pack h as two 64-bits ints, big-endian */
 119:C:/Users/dtjld/workspace/AIoT/src/LiteOS_Lab/iot_link/network/dtls/mbedtls/mbedtls-2.16.2/library\gcm.c ****     GET_UINT32_BE( hi, h,  0  );
 117              		.loc 1 119 0
 118 0040 3B7B     		ldrb	r3, [r7, #12]	@ zero_extendqisi2
 119 0042 1A06     		lsls	r2, r3, #24
 120 0044 7B7B     		ldrb	r3, [r7, #13]	@ zero_extendqisi2
 121 0046 1B04     		lsls	r3, r3, #16
 122 0048 1A43     		orrs	r2, r2, r3
 123 004a BB7B     		ldrb	r3, [r7, #14]	@ zero_extendqisi2
 124 004c 1B02     		lsls	r3, r3, #8
 125 004e 1343     		orrs	r3, r3, r2
 126 0050 FA7B     		ldrb	r2, [r7, #15]	@ zero_extendqisi2
 127 0052 1343     		orrs	r3, r3, r2
 128 0054 4FF00004 		mov	r4, #0
 129 0058 C7E90C34 		strd	r3, [r7, #48]
 120:C:/Users/dtjld/workspace/AIoT/src/LiteOS_Lab/iot_link/network/dtls/mbedtls/mbedtls-2.16.2/library\gcm.c ****     GET_UINT32_BE( lo, h,  4  );
 130              		.loc 1 120 0
 131 005c 3B7C     		ldrb	r3, [r7, #16]	@ zero_extendqisi2
 132 005e 1A06     		lsls	r2, r3, #24
 133 0060 7B7C     		ldrb	r3, [r7, #17]	@ zero_extendqisi2
 134 0062 1B04     		lsls	r3, r3, #16
 135 0064 1A43     		orrs	r2, r2, r3
 136 0066 BB7C     		ldrb	r3, [r7, #18]	@ zero_extendqisi2
 137 0068 1B02     		lsls	r3, r3, #8
 138 006a 1343     		orrs	r3, r3, r2
 139 006c FA7C     		ldrb	r2, [r7, #19]	@ zero_extendqisi2
 140 006e 1343     		orrs	r3, r3, r2
 141 0070 4FF00004 		mov	r4, #0
 142 0074 C7E90A34 		strd	r3, [r7, #40]
 121:C:/Users/dtjld/workspace/AIoT/src/LiteOS_Lab/iot_link/network/dtls/mbedtls/mbedtls-2.16.2/library\gcm.c ****     vh = (uint64_t) hi << 32 | lo;
 143              		.loc 1 121 0
 144 0078 D7E90C12 		ldrd	r1, [r7, #48]
 145 007c 4FF00005 		mov	r5, #0
 146 0080 4FF00006 		mov	r6, #0
 147 0084 0E00     		movs	r6, r1
 148 0086 0025     		movs	r5, #0
 149 0088 D7E90A12 		ldrd	r1, [r7, #40]
 150 008c 45EA0103 		orr	r3, r5, r1
 151 0090 46EA0204 		orr	r4, r6, r2
 152 0094 C7E91034 		strd	r3, [r7, #64]
 122:C:/Users/dtjld/workspace/AIoT/src/LiteOS_Lab/iot_link/network/dtls/mbedtls/mbedtls-2.16.2/library\gcm.c **** 
 123:C:/Users/dtjld/workspace/AIoT/src/LiteOS_Lab/iot_link/network/dtls/mbedtls/mbedtls-2.16.2/library\gcm.c ****     GET_UINT32_BE( hi, h,  8  );
 153              		.loc 1 123 0
 154 0098 3B7D     		ldrb	r3, [r7, #20]	@ zero_extendqisi2
 155 009a 1A06     		lsls	r2, r3, #24
 156 009c 7B7D     		ldrb	r3, [r7, #21]	@ zero_extendqisi2
 157 009e 1B04     		lsls	r3, r3, #16
 158 00a0 1A43     		orrs	r2, r2, r3
 159 00a2 BB7D     		ldrb	r3, [r7, #22]	@ zero_extendqisi2
 160 00a4 1B02     		lsls	r3, r3, #8
 161 00a6 1343     		orrs	r3, r3, r2
 162 00a8 FA7D     		ldrb	r2, [r7, #23]	@ zero_extendqisi2
 163 00aa 1343     		orrs	r3, r3, r2
 164 00ac 4FF00004 		mov	r4, #0
 165 00b0 C7E90C34 		strd	r3, [r7, #48]
ARM GAS  C:\Users\dtjld\AppData\Local\Temp\ccrYdj6j.s 			page 6


 124:C:/Users/dtjld/workspace/AIoT/src/LiteOS_Lab/iot_link/network/dtls/mbedtls/mbedtls-2.16.2/library\gcm.c ****     GET_UINT32_BE( lo, h,  12 );
 166              		.loc 1 124 0
 167 00b4 3B7E     		ldrb	r3, [r7, #24]	@ zero_extendqisi2
 168 00b6 1A06     		lsls	r2, r3, #24
 169 00b8 7B7E     		ldrb	r3, [r7, #25]	@ zero_extendqisi2
 170 00ba 1B04     		lsls	r3, r3, #16
 171 00bc 1A43     		orrs	r2, r2, r3
 172 00be BB7E     		ldrb	r3, [r7, #26]	@ zero_extendqisi2
 173 00c0 1B02     		lsls	r3, r3, #8
 174 00c2 1343     		orrs	r3, r3, r2
 175 00c4 FA7E     		ldrb	r2, [r7, #27]	@ zero_extendqisi2
 176 00c6 1343     		orrs	r3, r3, r2
 177 00c8 4FF00004 		mov	r4, #0
 178 00cc C7E90A34 		strd	r3, [r7, #40]
 125:C:/Users/dtjld/workspace/AIoT/src/LiteOS_Lab/iot_link/network/dtls/mbedtls/mbedtls-2.16.2/library\gcm.c ****     vl = (uint64_t) hi << 32 | lo;
 179              		.loc 1 125 0
 180 00d0 D7E90C12 		ldrd	r1, [r7, #48]
 181 00d4 4FF00005 		mov	r5, #0
 182 00d8 4FF00006 		mov	r6, #0
 183 00dc 0E00     		movs	r6, r1
 184 00de 0025     		movs	r5, #0
 185 00e0 D7E90A12 		ldrd	r1, [r7, #40]
 186 00e4 45EA0103 		orr	r3, r5, r1
 187 00e8 46EA0204 		orr	r4, r6, r2
 188 00ec C7E91234 		strd	r3, [r7, #72]
 126:C:/Users/dtjld/workspace/AIoT/src/LiteOS_Lab/iot_link/network/dtls/mbedtls/mbedtls-2.16.2/library\gcm.c **** 
 127:C:/Users/dtjld/workspace/AIoT/src/LiteOS_Lab/iot_link/network/dtls/mbedtls/mbedtls-2.16.2/library\gcm.c ****     /* 8 = 1000 corresponds to 1 in GF(2^128) */
 128:C:/Users/dtjld/workspace/AIoT/src/LiteOS_Lab/iot_link/network/dtls/mbedtls/mbedtls-2.16.2/library\gcm.c ****     ctx->HL[8] = vl;
 189              		.loc 1 128 0
 190 00f0 7A68     		ldr	r2, [r7, #4]
 191 00f2 D7E91234 		ldrd	r3, [r7, #72]
 192 00f6 C2E92034 		strd	r3, [r2, #128]
 129:C:/Users/dtjld/workspace/AIoT/src/LiteOS_Lab/iot_link/network/dtls/mbedtls/mbedtls-2.16.2/library\gcm.c ****     ctx->HH[8] = vh;
 193              		.loc 1 129 0
 194 00fa 7B68     		ldr	r3, [r7, #4]
 195 00fc 03F58072 		add	r2, r3, #256
 196 0100 D7E91034 		ldrd	r3, [r7, #64]
 197 0104 C2E90034 		strd	r3, [r2]
 130:C:/Users/dtjld/workspace/AIoT/src/LiteOS_Lab/iot_link/network/dtls/mbedtls/mbedtls-2.16.2/library\gcm.c **** 
 131:C:/Users/dtjld/workspace/AIoT/src/LiteOS_Lab/iot_link/network/dtls/mbedtls/mbedtls-2.16.2/library\gcm.c **** #if defined(MBEDTLS_AESNI_C) && defined(MBEDTLS_HAVE_X86_64)
 132:C:/Users/dtjld/workspace/AIoT/src/LiteOS_Lab/iot_link/network/dtls/mbedtls/mbedtls-2.16.2/library\gcm.c ****     /* With CLMUL support, we need only h, not the rest of the table */
 133:C:/Users/dtjld/workspace/AIoT/src/LiteOS_Lab/iot_link/network/dtls/mbedtls/mbedtls-2.16.2/library\gcm.c ****     if( mbedtls_aesni_has_support( MBEDTLS_AESNI_CLMUL ) )
 134:C:/Users/dtjld/workspace/AIoT/src/LiteOS_Lab/iot_link/network/dtls/mbedtls/mbedtls-2.16.2/library\gcm.c ****         return( 0 );
 135:C:/Users/dtjld/workspace/AIoT/src/LiteOS_Lab/iot_link/network/dtls/mbedtls/mbedtls-2.16.2/library\gcm.c **** #endif
 136:C:/Users/dtjld/workspace/AIoT/src/LiteOS_Lab/iot_link/network/dtls/mbedtls/mbedtls-2.16.2/library\gcm.c **** 
 137:C:/Users/dtjld/workspace/AIoT/src/LiteOS_Lab/iot_link/network/dtls/mbedtls/mbedtls-2.16.2/library\gcm.c ****     /* 0 corresponds to 0 in GF(2^128) */
 138:C:/Users/dtjld/workspace/AIoT/src/LiteOS_Lab/iot_link/network/dtls/mbedtls/mbedtls-2.16.2/library\gcm.c ****     ctx->HH[0] = 0;
 198              		.loc 1 138 0
 199 0108 7A68     		ldr	r2, [r7, #4]
 200 010a 4FF00003 		mov	r3, #0
 201 010e 4FF00004 		mov	r4, #0
 202 0112 C2E93034 		strd	r3, [r2, #192]
 139:C:/Users/dtjld/workspace/AIoT/src/LiteOS_Lab/iot_link/network/dtls/mbedtls/mbedtls-2.16.2/library\gcm.c ****     ctx->HL[0] = 0;
 203              		.loc 1 139 0
 204 0116 7A68     		ldr	r2, [r7, #4]
 205 0118 4FF00003 		mov	r3, #0
 206 011c 4FF00004 		mov	r4, #0
ARM GAS  C:\Users\dtjld\AppData\Local\Temp\ccrYdj6j.s 			page 7


 207 0120 C2E91034 		strd	r3, [r2, #64]
 140:C:/Users/dtjld/workspace/AIoT/src/LiteOS_Lab/iot_link/network/dtls/mbedtls/mbedtls-2.16.2/library\gcm.c **** 
 141:C:/Users/dtjld/workspace/AIoT/src/LiteOS_Lab/iot_link/network/dtls/mbedtls/mbedtls-2.16.2/library\gcm.c ****     for( i = 4; i > 0; i >>= 1 )
 208              		.loc 1 141 0
 209 0124 0423     		movs	r3, #4
 210 0126 7B65     		str	r3, [r7, #84]
 211 0128 45E0     		b	.L5
 212              	.L6:
 213              	.LBB2:
 142:C:/Users/dtjld/workspace/AIoT/src/LiteOS_Lab/iot_link/network/dtls/mbedtls/mbedtls-2.16.2/library\gcm.c ****     {
 143:C:/Users/dtjld/workspace/AIoT/src/LiteOS_Lab/iot_link/network/dtls/mbedtls/mbedtls-2.16.2/library\gcm.c ****         uint32_t T = ( vl & 1 ) * 0xe1000000U;
 214              		.loc 1 143 0 discriminator 3
 215 012a BB6C     		ldr	r3, [r7, #72]
 216 012c 03F00102 		and	r2, r3, #1
 217 0130 1346     		mov	r3, r2
 218 0132 5201     		lsls	r2, r2, #5
 219 0134 9B1A     		subs	r3, r3, r2
 220 0136 1B06     		lsls	r3, r3, #24
 221 0138 FB61     		str	r3, [r7, #28]
 144:C:/Users/dtjld/workspace/AIoT/src/LiteOS_Lab/iot_link/network/dtls/mbedtls/mbedtls-2.16.2/library\gcm.c ****         vl  = ( vh << 63 ) | ( vl >> 1 );
 222              		.loc 1 144 0 discriminator 3
 223 013a D7E91012 		ldrd	r1, [r7, #64]
 224 013e 4FF00005 		mov	r5, #0
 225 0142 4FF00006 		mov	r6, #0
 226 0146 CE07     		lsls	r6, r1, #31
 227 0148 0025     		movs	r5, #0
 228 014a D7E91212 		ldrd	r1, [r7, #72]
 229 014e 5208     		movs	r2, r2, lsr #1
 230 0150 4FEA3101 		mov	r1, r1, rrx
 231 0154 45EA0103 		orr	r3, r5, r1
 232 0158 46EA0204 		orr	r4, r6, r2
 233 015c C7E91234 		strd	r3, [r7, #72]
 145:C:/Users/dtjld/workspace/AIoT/src/LiteOS_Lab/iot_link/network/dtls/mbedtls/mbedtls-2.16.2/library\gcm.c ****         vh  = ( vh >> 1 ) ^ ( (uint64_t) T << 32);
 234              		.loc 1 145 0 discriminator 3
 235 0160 D7E91034 		ldrd	r3, [r7, #64]
 236 0164 6208     		movs	r2, r4, lsr #1
 237 0166 4FEA3301 		mov	r1, r3, rrx
 238 016a FB69     		ldr	r3, [r7, #28]
 239 016c 1D46     		mov	r5, r3
 240 016e 4FF00006 		mov	r6, #0
 241 0172 4FF0000B 		mov	fp, #0
 242 0176 4FF0000C 		mov	ip, #0
 243 017a AC46     		mov	ip, r5
 244 017c 4FF0000B 		mov	fp, #0
 245 0180 8BEA0103 		eor	r3, fp, r1
 246 0184 8CEA0204 		eor	r4, ip, r2
 247 0188 C7E91034 		strd	r3, [r7, #64]
 146:C:/Users/dtjld/workspace/AIoT/src/LiteOS_Lab/iot_link/network/dtls/mbedtls/mbedtls-2.16.2/library\gcm.c **** 
 147:C:/Users/dtjld/workspace/AIoT/src/LiteOS_Lab/iot_link/network/dtls/mbedtls/mbedtls-2.16.2/library\gcm.c ****         ctx->HL[i] = vl;
 248              		.loc 1 147 0 discriminator 3
 249 018c 7A68     		ldr	r2, [r7, #4]
 250 018e 7B6D     		ldr	r3, [r7, #84]
 251 0190 0833     		adds	r3, r3, #8
 252 0192 DB00     		lsls	r3, r3, #3
 253 0194 1A44     		add	r2, r2, r3
 254 0196 D7E91234 		ldrd	r3, [r7, #72]
 255 019a C2E90034 		strd	r3, [r2]
ARM GAS  C:\Users\dtjld\AppData\Local\Temp\ccrYdj6j.s 			page 8


 148:C:/Users/dtjld/workspace/AIoT/src/LiteOS_Lab/iot_link/network/dtls/mbedtls/mbedtls-2.16.2/library\gcm.c ****         ctx->HH[i] = vh;
 256              		.loc 1 148 0 discriminator 3
 257 019e 7A68     		ldr	r2, [r7, #4]
 258 01a0 7B6D     		ldr	r3, [r7, #84]
 259 01a2 1833     		adds	r3, r3, #24
 260 01a4 DB00     		lsls	r3, r3, #3
 261 01a6 1A44     		add	r2, r2, r3
 262 01a8 D7E91034 		ldrd	r3, [r7, #64]
 263 01ac C2E90034 		strd	r3, [r2]
 264              	.LBE2:
 141:C:/Users/dtjld/workspace/AIoT/src/LiteOS_Lab/iot_link/network/dtls/mbedtls/mbedtls-2.16.2/library\gcm.c ****     {
 265              		.loc 1 141 0 discriminator 3
 266 01b0 7B6D     		ldr	r3, [r7, #84]
 267 01b2 5B10     		asrs	r3, r3, #1
 268 01b4 7B65     		str	r3, [r7, #84]
 269              	.L5:
 141:C:/Users/dtjld/workspace/AIoT/src/LiteOS_Lab/iot_link/network/dtls/mbedtls/mbedtls-2.16.2/library\gcm.c ****     {
 270              		.loc 1 141 0 is_stmt 0 discriminator 1
 271 01b6 7B6D     		ldr	r3, [r7, #84]
 272 01b8 002B     		cmp	r3, #0
 273 01ba B6DC     		bgt	.L6
 149:C:/Users/dtjld/workspace/AIoT/src/LiteOS_Lab/iot_link/network/dtls/mbedtls/mbedtls-2.16.2/library\gcm.c ****     }
 150:C:/Users/dtjld/workspace/AIoT/src/LiteOS_Lab/iot_link/network/dtls/mbedtls/mbedtls-2.16.2/library\gcm.c **** 
 151:C:/Users/dtjld/workspace/AIoT/src/LiteOS_Lab/iot_link/network/dtls/mbedtls/mbedtls-2.16.2/library\gcm.c ****     for( i = 2; i <= 8; i *= 2 )
 274              		.loc 1 151 0 is_stmt 1
 275 01bc 0223     		movs	r3, #2
 276 01be 7B65     		str	r3, [r7, #84]
 277 01c0 4AE0     		b	.L7
 278              	.L10:
 279              	.LBB3:
 152:C:/Users/dtjld/workspace/AIoT/src/LiteOS_Lab/iot_link/network/dtls/mbedtls/mbedtls-2.16.2/library\gcm.c ****     {
 153:C:/Users/dtjld/workspace/AIoT/src/LiteOS_Lab/iot_link/network/dtls/mbedtls/mbedtls-2.16.2/library\gcm.c ****         uint64_t *HiL = ctx->HL + i, *HiH = ctx->HH + i;
 280              		.loc 1 153 0
 281 01c2 7B68     		ldr	r3, [r7, #4]
 282 01c4 03F14002 		add	r2, r3, #64
 283 01c8 7B6D     		ldr	r3, [r7, #84]
 284 01ca DB00     		lsls	r3, r3, #3
 285 01cc 1344     		add	r3, r3, r2
 286 01ce 7B62     		str	r3, [r7, #36]
 287 01d0 7B68     		ldr	r3, [r7, #4]
 288 01d2 03F1C002 		add	r2, r3, #192
 289 01d6 7B6D     		ldr	r3, [r7, #84]
 290 01d8 DB00     		lsls	r3, r3, #3
 291 01da 1344     		add	r3, r3, r2
 292 01dc 3B62     		str	r3, [r7, #32]
 154:C:/Users/dtjld/workspace/AIoT/src/LiteOS_Lab/iot_link/network/dtls/mbedtls/mbedtls-2.16.2/library\gcm.c ****         vh = *HiH;
 293              		.loc 1 154 0
 294 01de 3B6A     		ldr	r3, [r7, #32]
 295 01e0 D3E90034 		ldrd	r3, [r3]
 296 01e4 C7E91034 		strd	r3, [r7, #64]
 155:C:/Users/dtjld/workspace/AIoT/src/LiteOS_Lab/iot_link/network/dtls/mbedtls/mbedtls-2.16.2/library\gcm.c ****         vl = *HiL;
 297              		.loc 1 155 0
 298 01e8 7B6A     		ldr	r3, [r7, #36]
 299 01ea D3E90034 		ldrd	r3, [r3]
 300 01ee C7E91234 		strd	r3, [r7, #72]
 156:C:/Users/dtjld/workspace/AIoT/src/LiteOS_Lab/iot_link/network/dtls/mbedtls/mbedtls-2.16.2/library\gcm.c ****         for( j = 1; j < i; j++ )
 301              		.loc 1 156 0
ARM GAS  C:\Users\dtjld\AppData\Local\Temp\ccrYdj6j.s 			page 9


 302 01f2 0123     		movs	r3, #1
 303 01f4 3B65     		str	r3, [r7, #80]
 304 01f6 28E0     		b	.L8
 305              	.L9:
 157:C:/Users/dtjld/workspace/AIoT/src/LiteOS_Lab/iot_link/network/dtls/mbedtls/mbedtls-2.16.2/library\gcm.c ****         {
 158:C:/Users/dtjld/workspace/AIoT/src/LiteOS_Lab/iot_link/network/dtls/mbedtls/mbedtls-2.16.2/library\gcm.c ****             HiH[j] = vh ^ ctx->HH[j];
 306              		.loc 1 158 0 discriminator 3
 307 01f8 7A68     		ldr	r2, [r7, #4]
 308 01fa 3B6D     		ldr	r3, [r7, #80]
 309 01fc 1833     		adds	r3, r3, #24
 310 01fe DB00     		lsls	r3, r3, #3
 311 0200 1344     		add	r3, r3, r2
 312 0202 D3E90012 		ldrd	r1, [r3]
 313 0206 3B6D     		ldr	r3, [r7, #80]
 314 0208 DB00     		lsls	r3, r3, #3
 315 020a 386A     		ldr	r0, [r7, #32]
 316 020c 1844     		add	r0, r0, r3
 317 020e D7E91034 		ldrd	r3, [r7, #64]
 318 0212 83EA0105 		eor	r5, r3, r1
 319 0216 84EA0206 		eor	r6, r4, r2
 320 021a C0E90056 		strd	r5, [r0]
 159:C:/Users/dtjld/workspace/AIoT/src/LiteOS_Lab/iot_link/network/dtls/mbedtls/mbedtls-2.16.2/library\gcm.c ****             HiL[j] = vl ^ ctx->HL[j];
 321              		.loc 1 159 0 discriminator 3
 322 021e 7A68     		ldr	r2, [r7, #4]
 323 0220 3B6D     		ldr	r3, [r7, #80]
 324 0222 0833     		adds	r3, r3, #8
 325 0224 DB00     		lsls	r3, r3, #3
 326 0226 1344     		add	r3, r3, r2
 327 0228 D3E90012 		ldrd	r1, [r3]
 328 022c 3B6D     		ldr	r3, [r7, #80]
 329 022e DB00     		lsls	r3, r3, #3
 330 0230 786A     		ldr	r0, [r7, #36]
 331 0232 1844     		add	r0, r0, r3
 332 0234 D7E91234 		ldrd	r3, [r7, #72]
 333 0238 83EA0105 		eor	r5, r3, r1
 334 023c 84EA0206 		eor	r6, r4, r2
 335 0240 C0E90056 		strd	r5, [r0]
 156:C:/Users/dtjld/workspace/AIoT/src/LiteOS_Lab/iot_link/network/dtls/mbedtls/mbedtls-2.16.2/library\gcm.c ****         for( j = 1; j < i; j++ )
 336              		.loc 1 156 0 discriminator 3
 337 0244 3B6D     		ldr	r3, [r7, #80]
 338 0246 0133     		adds	r3, r3, #1
 339 0248 3B65     		str	r3, [r7, #80]
 340              	.L8:
 156:C:/Users/dtjld/workspace/AIoT/src/LiteOS_Lab/iot_link/network/dtls/mbedtls/mbedtls-2.16.2/library\gcm.c ****         for( j = 1; j < i; j++ )
 341              		.loc 1 156 0 is_stmt 0 discriminator 1
 342 024a 3A6D     		ldr	r2, [r7, #80]
 343 024c 7B6D     		ldr	r3, [r7, #84]
 344 024e 9A42     		cmp	r2, r3
 345 0250 D2DB     		blt	.L9
 346              	.LBE3:
 151:C:/Users/dtjld/workspace/AIoT/src/LiteOS_Lab/iot_link/network/dtls/mbedtls/mbedtls-2.16.2/library\gcm.c ****     {
 347              		.loc 1 151 0 is_stmt 1 discriminator 2
 348 0252 7B6D     		ldr	r3, [r7, #84]
 349 0254 5B00     		lsls	r3, r3, #1
 350 0256 7B65     		str	r3, [r7, #84]
 351              	.L7:
 151:C:/Users/dtjld/workspace/AIoT/src/LiteOS_Lab/iot_link/network/dtls/mbedtls/mbedtls-2.16.2/library\gcm.c ****     {
ARM GAS  C:\Users\dtjld\AppData\Local\Temp\ccrYdj6j.s 			page 10


 352              		.loc 1 151 0 is_stmt 0 discriminator 1
 353 0258 7B6D     		ldr	r3, [r7, #84]
 354 025a 082B     		cmp	r3, #8
 355 025c B1DD     		ble	.L10
 160:C:/Users/dtjld/workspace/AIoT/src/LiteOS_Lab/iot_link/network/dtls/mbedtls/mbedtls-2.16.2/library\gcm.c ****         }
 161:C:/Users/dtjld/workspace/AIoT/src/LiteOS_Lab/iot_link/network/dtls/mbedtls/mbedtls-2.16.2/library\gcm.c ****     }
 162:C:/Users/dtjld/workspace/AIoT/src/LiteOS_Lab/iot_link/network/dtls/mbedtls/mbedtls-2.16.2/library\gcm.c **** 
 163:C:/Users/dtjld/workspace/AIoT/src/LiteOS_Lab/iot_link/network/dtls/mbedtls/mbedtls-2.16.2/library\gcm.c ****     return( 0 );
 356              		.loc 1 163 0 is_stmt 1
 357 025e 0023     		movs	r3, #0
 358              	.L11:
 164:C:/Users/dtjld/workspace/AIoT/src/LiteOS_Lab/iot_link/network/dtls/mbedtls/mbedtls-2.16.2/library\gcm.c **** }
 359              		.loc 1 164 0 discriminator 1
 360 0260 1846     		mov	r0, r3
 361 0262 5837     		adds	r7, r7, #88
 362              	.LCFI8:
 363              		.cfi_def_cfa_offset 24
 364 0264 BD46     		mov	sp, r7
 365              	.LCFI9:
 366              		.cfi_def_cfa_register 13
 367              		@ sp needed
 368 0266 BDE8F088 		pop	{r4, r5, r6, r7, fp, pc}
 369              		.cfi_endproc
 370              	.LFE11:
 372              		.section	.text.mbedtls_gcm_setkey,"ax",%progbits
 373              		.align	1
 374              		.global	mbedtls_gcm_setkey
 375              		.syntax unified
 376              		.thumb
 377              		.thumb_func
 378              		.fpu fpv4-sp-d16
 380              	mbedtls_gcm_setkey:
 381              	.LFB12:
 165:C:/Users/dtjld/workspace/AIoT/src/LiteOS_Lab/iot_link/network/dtls/mbedtls/mbedtls-2.16.2/library\gcm.c **** 
 166:C:/Users/dtjld/workspace/AIoT/src/LiteOS_Lab/iot_link/network/dtls/mbedtls/mbedtls-2.16.2/library\gcm.c **** int mbedtls_gcm_setkey( mbedtls_gcm_context *ctx,
 167:C:/Users/dtjld/workspace/AIoT/src/LiteOS_Lab/iot_link/network/dtls/mbedtls/mbedtls-2.16.2/library\gcm.c ****                         mbedtls_cipher_id_t cipher,
 168:C:/Users/dtjld/workspace/AIoT/src/LiteOS_Lab/iot_link/network/dtls/mbedtls/mbedtls-2.16.2/library\gcm.c ****                         const unsigned char *key,
 169:C:/Users/dtjld/workspace/AIoT/src/LiteOS_Lab/iot_link/network/dtls/mbedtls/mbedtls-2.16.2/library\gcm.c ****                         unsigned int keybits )
 170:C:/Users/dtjld/workspace/AIoT/src/LiteOS_Lab/iot_link/network/dtls/mbedtls/mbedtls-2.16.2/library\gcm.c **** {
 382              		.loc 1 170 0
 383              		.cfi_startproc
 384              		@ args = 0, pretend = 0, frame = 24
 385              		@ frame_needed = 1, uses_anonymous_args = 0
 386 0000 80B5     		push	{r7, lr}
 387              	.LCFI10:
 388              		.cfi_def_cfa_offset 8
 389              		.cfi_offset 7, -8
 390              		.cfi_offset 14, -4
 391 0002 86B0     		sub	sp, sp, #24
 392              	.LCFI11:
 393              		.cfi_def_cfa_offset 32
 394 0004 00AF     		add	r7, sp, #0
 395              	.LCFI12:
 396              		.cfi_def_cfa_register 7
 397 0006 F860     		str	r0, [r7, #12]
 398 0008 7A60     		str	r2, [r7, #4]
 399 000a 3B60     		str	r3, [r7]
ARM GAS  C:\Users\dtjld\AppData\Local\Temp\ccrYdj6j.s 			page 11


 400 000c 0B46     		mov	r3, r1
 401 000e FB72     		strb	r3, [r7, #11]
 171:C:/Users/dtjld/workspace/AIoT/src/LiteOS_Lab/iot_link/network/dtls/mbedtls/mbedtls-2.16.2/library\gcm.c ****     int ret;
 172:C:/Users/dtjld/workspace/AIoT/src/LiteOS_Lab/iot_link/network/dtls/mbedtls/mbedtls-2.16.2/library\gcm.c ****     const mbedtls_cipher_info_t *cipher_info;
 173:C:/Users/dtjld/workspace/AIoT/src/LiteOS_Lab/iot_link/network/dtls/mbedtls/mbedtls-2.16.2/library\gcm.c **** 
 174:C:/Users/dtjld/workspace/AIoT/src/LiteOS_Lab/iot_link/network/dtls/mbedtls/mbedtls-2.16.2/library\gcm.c ****     GCM_VALIDATE_RET( ctx != NULL );
 175:C:/Users/dtjld/workspace/AIoT/src/LiteOS_Lab/iot_link/network/dtls/mbedtls/mbedtls-2.16.2/library\gcm.c ****     GCM_VALIDATE_RET( key != NULL );
 176:C:/Users/dtjld/workspace/AIoT/src/LiteOS_Lab/iot_link/network/dtls/mbedtls/mbedtls-2.16.2/library\gcm.c ****     GCM_VALIDATE_RET( keybits == 128 || keybits == 192 || keybits == 256 );
 177:C:/Users/dtjld/workspace/AIoT/src/LiteOS_Lab/iot_link/network/dtls/mbedtls/mbedtls-2.16.2/library\gcm.c **** 
 178:C:/Users/dtjld/workspace/AIoT/src/LiteOS_Lab/iot_link/network/dtls/mbedtls/mbedtls-2.16.2/library\gcm.c ****     cipher_info = mbedtls_cipher_info_from_values( cipher, keybits, MBEDTLS_MODE_ECB );
 402              		.loc 1 178 0
 403 0010 3968     		ldr	r1, [r7]
 404 0012 FB7A     		ldrb	r3, [r7, #11]	@ zero_extendqisi2
 405 0014 0122     		movs	r2, #1
 406 0016 1846     		mov	r0, r3
 407 0018 FFF7FEFF 		bl	mbedtls_cipher_info_from_values
 408 001c 7861     		str	r0, [r7, #20]
 179:C:/Users/dtjld/workspace/AIoT/src/LiteOS_Lab/iot_link/network/dtls/mbedtls/mbedtls-2.16.2/library\gcm.c ****     if( cipher_info == NULL )
 409              		.loc 1 179 0
 410 001e 7B69     		ldr	r3, [r7, #20]
 411 0020 002B     		cmp	r3, #0
 412 0022 02D1     		bne	.L13
 180:C:/Users/dtjld/workspace/AIoT/src/LiteOS_Lab/iot_link/network/dtls/mbedtls/mbedtls-2.16.2/library\gcm.c ****         return( MBEDTLS_ERR_GCM_BAD_INPUT );
 413              		.loc 1 180 0
 414 0024 6FF01303 		mvn	r3, #19
 415 0028 2BE0     		b	.L14
 416              	.L13:
 181:C:/Users/dtjld/workspace/AIoT/src/LiteOS_Lab/iot_link/network/dtls/mbedtls/mbedtls-2.16.2/library\gcm.c **** 
 182:C:/Users/dtjld/workspace/AIoT/src/LiteOS_Lab/iot_link/network/dtls/mbedtls/mbedtls-2.16.2/library\gcm.c ****     if( cipher_info->block_size != 16 )
 417              		.loc 1 182 0
 418 002a 7B69     		ldr	r3, [r7, #20]
 419 002c 5B69     		ldr	r3, [r3, #20]
 420 002e 102B     		cmp	r3, #16
 421 0030 02D0     		beq	.L15
 183:C:/Users/dtjld/workspace/AIoT/src/LiteOS_Lab/iot_link/network/dtls/mbedtls/mbedtls-2.16.2/library\gcm.c ****         return( MBEDTLS_ERR_GCM_BAD_INPUT );
 422              		.loc 1 183 0
 423 0032 6FF01303 		mvn	r3, #19
 424 0036 24E0     		b	.L14
 425              	.L15:
 184:C:/Users/dtjld/workspace/AIoT/src/LiteOS_Lab/iot_link/network/dtls/mbedtls/mbedtls-2.16.2/library\gcm.c **** 
 185:C:/Users/dtjld/workspace/AIoT/src/LiteOS_Lab/iot_link/network/dtls/mbedtls/mbedtls-2.16.2/library\gcm.c ****     mbedtls_cipher_free( &ctx->cipher_ctx );
 426              		.loc 1 185 0
 427 0038 FB68     		ldr	r3, [r7, #12]
 428 003a 1846     		mov	r0, r3
 429 003c FFF7FEFF 		bl	mbedtls_cipher_free
 186:C:/Users/dtjld/workspace/AIoT/src/LiteOS_Lab/iot_link/network/dtls/mbedtls/mbedtls-2.16.2/library\gcm.c **** 
 187:C:/Users/dtjld/workspace/AIoT/src/LiteOS_Lab/iot_link/network/dtls/mbedtls/mbedtls-2.16.2/library\gcm.c ****     if( ( ret = mbedtls_cipher_setup( &ctx->cipher_ctx, cipher_info ) ) != 0 )
 430              		.loc 1 187 0
 431 0040 FB68     		ldr	r3, [r7, #12]
 432 0042 7969     		ldr	r1, [r7, #20]
 433 0044 1846     		mov	r0, r3
 434 0046 FFF7FEFF 		bl	mbedtls_cipher_setup
 435 004a 3861     		str	r0, [r7, #16]
 436 004c 3B69     		ldr	r3, [r7, #16]
 437 004e 002B     		cmp	r3, #0
 438 0050 01D0     		beq	.L16
 188:C:/Users/dtjld/workspace/AIoT/src/LiteOS_Lab/iot_link/network/dtls/mbedtls/mbedtls-2.16.2/library\gcm.c ****         return( ret );
ARM GAS  C:\Users\dtjld\AppData\Local\Temp\ccrYdj6j.s 			page 12


 439              		.loc 1 188 0
 440 0052 3B69     		ldr	r3, [r7, #16]
 441 0054 15E0     		b	.L14
 442              	.L16:
 189:C:/Users/dtjld/workspace/AIoT/src/LiteOS_Lab/iot_link/network/dtls/mbedtls/mbedtls-2.16.2/library\gcm.c **** 
 190:C:/Users/dtjld/workspace/AIoT/src/LiteOS_Lab/iot_link/network/dtls/mbedtls/mbedtls-2.16.2/library\gcm.c ****     if( ( ret = mbedtls_cipher_setkey( &ctx->cipher_ctx, key, keybits,
 443              		.loc 1 190 0
 444 0056 F868     		ldr	r0, [r7, #12]
 445 0058 3A68     		ldr	r2, [r7]
 446 005a 0123     		movs	r3, #1
 447 005c 7968     		ldr	r1, [r7, #4]
 448 005e FFF7FEFF 		bl	mbedtls_cipher_setkey
 449 0062 3861     		str	r0, [r7, #16]
 450 0064 3B69     		ldr	r3, [r7, #16]
 451 0066 002B     		cmp	r3, #0
 452 0068 01D0     		beq	.L17
 191:C:/Users/dtjld/workspace/AIoT/src/LiteOS_Lab/iot_link/network/dtls/mbedtls/mbedtls-2.16.2/library\gcm.c ****                                MBEDTLS_ENCRYPT ) ) != 0 )
 192:C:/Users/dtjld/workspace/AIoT/src/LiteOS_Lab/iot_link/network/dtls/mbedtls/mbedtls-2.16.2/library\gcm.c ****     {
 193:C:/Users/dtjld/workspace/AIoT/src/LiteOS_Lab/iot_link/network/dtls/mbedtls/mbedtls-2.16.2/library\gcm.c ****         return( ret );
 453              		.loc 1 193 0
 454 006a 3B69     		ldr	r3, [r7, #16]
 455 006c 09E0     		b	.L14
 456              	.L17:
 194:C:/Users/dtjld/workspace/AIoT/src/LiteOS_Lab/iot_link/network/dtls/mbedtls/mbedtls-2.16.2/library\gcm.c ****     }
 195:C:/Users/dtjld/workspace/AIoT/src/LiteOS_Lab/iot_link/network/dtls/mbedtls/mbedtls-2.16.2/library\gcm.c **** 
 196:C:/Users/dtjld/workspace/AIoT/src/LiteOS_Lab/iot_link/network/dtls/mbedtls/mbedtls-2.16.2/library\gcm.c ****     if( ( ret = gcm_gen_table( ctx ) ) != 0 )
 457              		.loc 1 196 0
 458 006e F868     		ldr	r0, [r7, #12]
 459 0070 FFF7FEFF 		bl	gcm_gen_table
 460 0074 3861     		str	r0, [r7, #16]
 461 0076 3B69     		ldr	r3, [r7, #16]
 462 0078 002B     		cmp	r3, #0
 463 007a 01D0     		beq	.L18
 197:C:/Users/dtjld/workspace/AIoT/src/LiteOS_Lab/iot_link/network/dtls/mbedtls/mbedtls-2.16.2/library\gcm.c ****         return( ret );
 464              		.loc 1 197 0
 465 007c 3B69     		ldr	r3, [r7, #16]
 466 007e 00E0     		b	.L14
 467              	.L18:
 198:C:/Users/dtjld/workspace/AIoT/src/LiteOS_Lab/iot_link/network/dtls/mbedtls/mbedtls-2.16.2/library\gcm.c **** 
 199:C:/Users/dtjld/workspace/AIoT/src/LiteOS_Lab/iot_link/network/dtls/mbedtls/mbedtls-2.16.2/library\gcm.c ****     return( 0 );
 468              		.loc 1 199 0
 469 0080 0023     		movs	r3, #0
 470              	.L14:
 200:C:/Users/dtjld/workspace/AIoT/src/LiteOS_Lab/iot_link/network/dtls/mbedtls/mbedtls-2.16.2/library\gcm.c **** }
 471              		.loc 1 200 0
 472 0082 1846     		mov	r0, r3
 473 0084 1837     		adds	r7, r7, #24
 474              	.LCFI13:
 475              		.cfi_def_cfa_offset 8
 476 0086 BD46     		mov	sp, r7
 477              	.LCFI14:
 478              		.cfi_def_cfa_register 13
 479              		@ sp needed
 480 0088 80BD     		pop	{r7, pc}
 481              		.cfi_endproc
 482              	.LFE12:
 484              		.section	.rodata.last4,"a",%progbits
ARM GAS  C:\Users\dtjld\AppData\Local\Temp\ccrYdj6j.s 			page 13


 485              		.align	3
 488              	last4:
 489 0000 00000000 		.word	0
 490 0004 00000000 		.word	0
 491 0008 201C0000 		.word	7200
 492 000c 00000000 		.word	0
 493 0010 40380000 		.word	14400
 494 0014 00000000 		.word	0
 495 0018 60240000 		.word	9312
 496 001c 00000000 		.word	0
 497 0020 80700000 		.word	28800
 498 0024 00000000 		.word	0
 499 0028 A06C0000 		.word	27808
 500 002c 00000000 		.word	0
 501 0030 C0480000 		.word	18624
 502 0034 00000000 		.word	0
 503 0038 E0540000 		.word	21728
 504 003c 00000000 		.word	0
 505 0040 00E10000 		.word	57600
 506 0044 00000000 		.word	0
 507 0048 20FD0000 		.word	64800
 508 004c 00000000 		.word	0
 509 0050 40D90000 		.word	55616
 510 0054 00000000 		.word	0
 511 0058 60C50000 		.word	50528
 512 005c 00000000 		.word	0
 513 0060 80910000 		.word	37248
 514 0064 00000000 		.word	0
 515 0068 A08D0000 		.word	36256
 516 006c 00000000 		.word	0
 517 0070 C0A90000 		.word	43456
 518 0074 00000000 		.word	0
 519 0078 E0B50000 		.word	46560
 520 007c 00000000 		.word	0
 521              		.section	.text.gcm_mult,"ax",%progbits
 522              		.align	1
 523              		.syntax unified
 524              		.thumb
 525              		.thumb_func
 526              		.fpu fpv4-sp-d16
 528              	gcm_mult:
 529              	.LFB13:
 201:C:/Users/dtjld/workspace/AIoT/src/LiteOS_Lab/iot_link/network/dtls/mbedtls/mbedtls-2.16.2/library\gcm.c **** 
 202:C:/Users/dtjld/workspace/AIoT/src/LiteOS_Lab/iot_link/network/dtls/mbedtls/mbedtls-2.16.2/library\gcm.c **** /*
 203:C:/Users/dtjld/workspace/AIoT/src/LiteOS_Lab/iot_link/network/dtls/mbedtls/mbedtls-2.16.2/library\gcm.c ****  * Shoup's method for multiplication use this table with
 204:C:/Users/dtjld/workspace/AIoT/src/LiteOS_Lab/iot_link/network/dtls/mbedtls/mbedtls-2.16.2/library\gcm.c ****  *      last4[x] = x times P^128
 205:C:/Users/dtjld/workspace/AIoT/src/LiteOS_Lab/iot_link/network/dtls/mbedtls/mbedtls-2.16.2/library\gcm.c ****  * where x and last4[x] are seen as elements of GF(2^128) as in [MGV]
 206:C:/Users/dtjld/workspace/AIoT/src/LiteOS_Lab/iot_link/network/dtls/mbedtls/mbedtls-2.16.2/library\gcm.c ****  */
 207:C:/Users/dtjld/workspace/AIoT/src/LiteOS_Lab/iot_link/network/dtls/mbedtls/mbedtls-2.16.2/library\gcm.c **** static const uint64_t last4[16] =
 208:C:/Users/dtjld/workspace/AIoT/src/LiteOS_Lab/iot_link/network/dtls/mbedtls/mbedtls-2.16.2/library\gcm.c **** {
 209:C:/Users/dtjld/workspace/AIoT/src/LiteOS_Lab/iot_link/network/dtls/mbedtls/mbedtls-2.16.2/library\gcm.c ****     0x0000, 0x1c20, 0x3840, 0x2460,
 210:C:/Users/dtjld/workspace/AIoT/src/LiteOS_Lab/iot_link/network/dtls/mbedtls/mbedtls-2.16.2/library\gcm.c ****     0x7080, 0x6ca0, 0x48c0, 0x54e0,
 211:C:/Users/dtjld/workspace/AIoT/src/LiteOS_Lab/iot_link/network/dtls/mbedtls/mbedtls-2.16.2/library\gcm.c ****     0xe100, 0xfd20, 0xd940, 0xc560,
 212:C:/Users/dtjld/workspace/AIoT/src/LiteOS_Lab/iot_link/network/dtls/mbedtls/mbedtls-2.16.2/library\gcm.c ****     0x9180, 0x8da0, 0xa9c0, 0xb5e0
 213:C:/Users/dtjld/workspace/AIoT/src/LiteOS_Lab/iot_link/network/dtls/mbedtls/mbedtls-2.16.2/library\gcm.c **** };
 214:C:/Users/dtjld/workspace/AIoT/src/LiteOS_Lab/iot_link/network/dtls/mbedtls/mbedtls-2.16.2/library\gcm.c **** 
 215:C:/Users/dtjld/workspace/AIoT/src/LiteOS_Lab/iot_link/network/dtls/mbedtls/mbedtls-2.16.2/library\gcm.c **** /*
ARM GAS  C:\Users\dtjld\AppData\Local\Temp\ccrYdj6j.s 			page 14


 216:C:/Users/dtjld/workspace/AIoT/src/LiteOS_Lab/iot_link/network/dtls/mbedtls/mbedtls-2.16.2/library\gcm.c ****  * Sets output to x times H using the precomputed tables.
 217:C:/Users/dtjld/workspace/AIoT/src/LiteOS_Lab/iot_link/network/dtls/mbedtls/mbedtls-2.16.2/library\gcm.c ****  * x and output are seen as elements of GF(2^128) as in [MGV].
 218:C:/Users/dtjld/workspace/AIoT/src/LiteOS_Lab/iot_link/network/dtls/mbedtls/mbedtls-2.16.2/library\gcm.c ****  */
 219:C:/Users/dtjld/workspace/AIoT/src/LiteOS_Lab/iot_link/network/dtls/mbedtls/mbedtls-2.16.2/library\gcm.c **** static void gcm_mult( mbedtls_gcm_context *ctx, const unsigned char x[16],
 220:C:/Users/dtjld/workspace/AIoT/src/LiteOS_Lab/iot_link/network/dtls/mbedtls/mbedtls-2.16.2/library\gcm.c ****                       unsigned char output[16] )
 221:C:/Users/dtjld/workspace/AIoT/src/LiteOS_Lab/iot_link/network/dtls/mbedtls/mbedtls-2.16.2/library\gcm.c **** {
 530              		.loc 1 221 0
 531              		.cfi_startproc
 532              		@ args = 0, pretend = 0, frame = 48
 533              		@ frame_needed = 1, uses_anonymous_args = 0
 534              		@ link register save eliminated.
 535 0000 2DE9F008 		push	{r4, r5, r6, r7, fp}
 536              	.LCFI15:
 537              		.cfi_def_cfa_offset 20
 538              		.cfi_offset 4, -20
 539              		.cfi_offset 5, -16
 540              		.cfi_offset 6, -12
 541              		.cfi_offset 7, -8
 542              		.cfi_offset 11, -4
 543 0004 8DB0     		sub	sp, sp, #52
 544              	.LCFI16:
 545              		.cfi_def_cfa_offset 72
 546 0006 00AF     		add	r7, sp, #0
 547              	.LCFI17:
 548              		.cfi_def_cfa_register 7
 549 0008 F860     		str	r0, [r7, #12]
 550 000a B960     		str	r1, [r7, #8]
 551 000c 7A60     		str	r2, [r7, #4]
 222:C:/Users/dtjld/workspace/AIoT/src/LiteOS_Lab/iot_link/network/dtls/mbedtls/mbedtls-2.16.2/library\gcm.c ****     int i = 0;
 552              		.loc 1 222 0
 553 000e 0023     		movs	r3, #0
 554 0010 FB62     		str	r3, [r7, #44]
 223:C:/Users/dtjld/workspace/AIoT/src/LiteOS_Lab/iot_link/network/dtls/mbedtls/mbedtls-2.16.2/library\gcm.c ****     unsigned char lo, hi, rem;
 224:C:/Users/dtjld/workspace/AIoT/src/LiteOS_Lab/iot_link/network/dtls/mbedtls/mbedtls-2.16.2/library\gcm.c ****     uint64_t zh, zl;
 225:C:/Users/dtjld/workspace/AIoT/src/LiteOS_Lab/iot_link/network/dtls/mbedtls/mbedtls-2.16.2/library\gcm.c **** 
 226:C:/Users/dtjld/workspace/AIoT/src/LiteOS_Lab/iot_link/network/dtls/mbedtls/mbedtls-2.16.2/library\gcm.c **** #if defined(MBEDTLS_AESNI_C) && defined(MBEDTLS_HAVE_X86_64)
 227:C:/Users/dtjld/workspace/AIoT/src/LiteOS_Lab/iot_link/network/dtls/mbedtls/mbedtls-2.16.2/library\gcm.c ****     if( mbedtls_aesni_has_support( MBEDTLS_AESNI_CLMUL ) ) {
 228:C:/Users/dtjld/workspace/AIoT/src/LiteOS_Lab/iot_link/network/dtls/mbedtls/mbedtls-2.16.2/library\gcm.c ****         unsigned char h[16];
 229:C:/Users/dtjld/workspace/AIoT/src/LiteOS_Lab/iot_link/network/dtls/mbedtls/mbedtls-2.16.2/library\gcm.c **** 
 230:C:/Users/dtjld/workspace/AIoT/src/LiteOS_Lab/iot_link/network/dtls/mbedtls/mbedtls-2.16.2/library\gcm.c ****         PUT_UINT32_BE( ctx->HH[8] >> 32, h,  0 );
 231:C:/Users/dtjld/workspace/AIoT/src/LiteOS_Lab/iot_link/network/dtls/mbedtls/mbedtls-2.16.2/library\gcm.c ****         PUT_UINT32_BE( ctx->HH[8],       h,  4 );
 232:C:/Users/dtjld/workspace/AIoT/src/LiteOS_Lab/iot_link/network/dtls/mbedtls/mbedtls-2.16.2/library\gcm.c ****         PUT_UINT32_BE( ctx->HL[8] >> 32, h,  8 );
 233:C:/Users/dtjld/workspace/AIoT/src/LiteOS_Lab/iot_link/network/dtls/mbedtls/mbedtls-2.16.2/library\gcm.c ****         PUT_UINT32_BE( ctx->HL[8],       h, 12 );
 234:C:/Users/dtjld/workspace/AIoT/src/LiteOS_Lab/iot_link/network/dtls/mbedtls/mbedtls-2.16.2/library\gcm.c **** 
 235:C:/Users/dtjld/workspace/AIoT/src/LiteOS_Lab/iot_link/network/dtls/mbedtls/mbedtls-2.16.2/library\gcm.c ****         mbedtls_aesni_gcm_mult( output, x, h );
 236:C:/Users/dtjld/workspace/AIoT/src/LiteOS_Lab/iot_link/network/dtls/mbedtls/mbedtls-2.16.2/library\gcm.c ****         return;
 237:C:/Users/dtjld/workspace/AIoT/src/LiteOS_Lab/iot_link/network/dtls/mbedtls/mbedtls-2.16.2/library\gcm.c ****     }
 238:C:/Users/dtjld/workspace/AIoT/src/LiteOS_Lab/iot_link/network/dtls/mbedtls/mbedtls-2.16.2/library\gcm.c **** #endif /* MBEDTLS_AESNI_C && MBEDTLS_HAVE_X86_64 */
 239:C:/Users/dtjld/workspace/AIoT/src/LiteOS_Lab/iot_link/network/dtls/mbedtls/mbedtls-2.16.2/library\gcm.c **** 
 240:C:/Users/dtjld/workspace/AIoT/src/LiteOS_Lab/iot_link/network/dtls/mbedtls/mbedtls-2.16.2/library\gcm.c ****     lo = x[15] & 0xf;
 555              		.loc 1 240 0
 556 0012 BB68     		ldr	r3, [r7, #8]
 557 0014 0F33     		adds	r3, r3, #15
 558 0016 1B78     		ldrb	r3, [r3]	@ zero_extendqisi2
 559 0018 03F00F03 		and	r3, r3, #15
 560 001c FB75     		strb	r3, [r7, #23]
 241:C:/Users/dtjld/workspace/AIoT/src/LiteOS_Lab/iot_link/network/dtls/mbedtls/mbedtls-2.16.2/library\gcm.c **** 
ARM GAS  C:\Users\dtjld\AppData\Local\Temp\ccrYdj6j.s 			page 15


 242:C:/Users/dtjld/workspace/AIoT/src/LiteOS_Lab/iot_link/network/dtls/mbedtls/mbedtls-2.16.2/library\gcm.c ****     zh = ctx->HH[lo];
 561              		.loc 1 242 0
 562 001e FB7D     		ldrb	r3, [r7, #23]	@ zero_extendqisi2
 563 0020 FA68     		ldr	r2, [r7, #12]
 564 0022 1833     		adds	r3, r3, #24
 565 0024 DB00     		lsls	r3, r3, #3
 566 0026 1344     		add	r3, r3, r2
 567 0028 D3E90034 		ldrd	r3, [r3]
 568 002c C7E90834 		strd	r3, [r7, #32]
 243:C:/Users/dtjld/workspace/AIoT/src/LiteOS_Lab/iot_link/network/dtls/mbedtls/mbedtls-2.16.2/library\gcm.c ****     zl = ctx->HL[lo];
 569              		.loc 1 243 0
 570 0030 FB7D     		ldrb	r3, [r7, #23]	@ zero_extendqisi2
 571 0032 FA68     		ldr	r2, [r7, #12]
 572 0034 0833     		adds	r3, r3, #8
 573 0036 DB00     		lsls	r3, r3, #3
 574 0038 1344     		add	r3, r3, r2
 575 003a D3E90034 		ldrd	r3, [r3]
 576 003e C7E90634 		strd	r3, [r7, #24]
 244:C:/Users/dtjld/workspace/AIoT/src/LiteOS_Lab/iot_link/network/dtls/mbedtls/mbedtls-2.16.2/library\gcm.c **** 
 245:C:/Users/dtjld/workspace/AIoT/src/LiteOS_Lab/iot_link/network/dtls/mbedtls/mbedtls-2.16.2/library\gcm.c ****     for( i = 15; i >= 0; i-- )
 577              		.loc 1 245 0
 578 0042 0F23     		movs	r3, #15
 579 0044 FB62     		str	r3, [r7, #44]
 580 0046 CAE0     		b	.L20
 581              	.L22:
 246:C:/Users/dtjld/workspace/AIoT/src/LiteOS_Lab/iot_link/network/dtls/mbedtls/mbedtls-2.16.2/library\gcm.c ****     {
 247:C:/Users/dtjld/workspace/AIoT/src/LiteOS_Lab/iot_link/network/dtls/mbedtls/mbedtls-2.16.2/library\gcm.c ****         lo = x[i] & 0xf;
 582              		.loc 1 247 0
 583 0048 FB6A     		ldr	r3, [r7, #44]
 584 004a BA68     		ldr	r2, [r7, #8]
 585 004c 1344     		add	r3, r3, r2
 586 004e 1B78     		ldrb	r3, [r3]	@ zero_extendqisi2
 587 0050 03F00F03 		and	r3, r3, #15
 588 0054 FB75     		strb	r3, [r7, #23]
 248:C:/Users/dtjld/workspace/AIoT/src/LiteOS_Lab/iot_link/network/dtls/mbedtls/mbedtls-2.16.2/library\gcm.c ****         hi = x[i] >> 4;
 589              		.loc 1 248 0
 590 0056 FB6A     		ldr	r3, [r7, #44]
 591 0058 BA68     		ldr	r2, [r7, #8]
 592 005a 1344     		add	r3, r3, r2
 593 005c 1B78     		ldrb	r3, [r3]	@ zero_extendqisi2
 594 005e 1B09     		lsrs	r3, r3, #4
 595 0060 BB75     		strb	r3, [r7, #22]
 249:C:/Users/dtjld/workspace/AIoT/src/LiteOS_Lab/iot_link/network/dtls/mbedtls/mbedtls-2.16.2/library\gcm.c **** 
 250:C:/Users/dtjld/workspace/AIoT/src/LiteOS_Lab/iot_link/network/dtls/mbedtls/mbedtls-2.16.2/library\gcm.c ****         if( i != 15 )
 596              		.loc 1 250 0
 597 0062 FB6A     		ldr	r3, [r7, #44]
 598 0064 0F2B     		cmp	r3, #15
 599 0066 5BD0     		beq	.L21
 251:C:/Users/dtjld/workspace/AIoT/src/LiteOS_Lab/iot_link/network/dtls/mbedtls/mbedtls-2.16.2/library\gcm.c ****         {
 252:C:/Users/dtjld/workspace/AIoT/src/LiteOS_Lab/iot_link/network/dtls/mbedtls/mbedtls-2.16.2/library\gcm.c ****             rem = (unsigned char) zl & 0xf;
 600              		.loc 1 252 0
 601 0068 3B7E     		ldrb	r3, [r7, #24]	@ zero_extendqisi2
 602 006a 03F00F03 		and	r3, r3, #15
 603 006e 7B75     		strb	r3, [r7, #21]
 253:C:/Users/dtjld/workspace/AIoT/src/LiteOS_Lab/iot_link/network/dtls/mbedtls/mbedtls-2.16.2/library\gcm.c ****             zl = ( zh << 60 ) | ( zl >> 4 );
 604              		.loc 1 253 0
 605 0070 D7E90834 		ldrd	r3, [r7, #32]
ARM GAS  C:\Users\dtjld\AppData\Local\Temp\ccrYdj6j.s 			page 16


 606 0074 4FF00005 		mov	r5, #0
 607 0078 4FF00006 		mov	r6, #0
 608 007c 1E07     		lsls	r6, r3, #28
 609 007e 0025     		movs	r5, #0
 610 0080 D7E90612 		ldrd	r1, [r7, #24]
 611 0084 4FF0000B 		mov	fp, #0
 612 0088 4FF0000C 		mov	ip, #0
 613 008c 4FEA111B 		lsr	fp, r1, #4
 614 0090 4BEA027B 		orr	fp, fp, r2, lsl #28
 615 0094 4FEA121C 		lsr	ip, r2, #4
 616 0098 4BEA0503 		orr	r3, fp, r5
 617 009c 4CEA0604 		orr	r4, ip, r6
 618 00a0 C7E90634 		strd	r3, [r7, #24]
 254:C:/Users/dtjld/workspace/AIoT/src/LiteOS_Lab/iot_link/network/dtls/mbedtls/mbedtls-2.16.2/library\gcm.c ****             zh = ( zh >> 4 );
 619              		.loc 1 254 0
 620 00a4 D7E90812 		ldrd	r1, [r7, #32]
 621 00a8 4FF00003 		mov	r3, #0
 622 00ac 4FF00004 		mov	r4, #0
 623 00b0 0B09     		lsrs	r3, r1, #4
 624 00b2 43EA0273 		orr	r3, r3, r2, lsl #28
 625 00b6 1409     		lsrs	r4, r2, #4
 626 00b8 C7E90834 		strd	r3, [r7, #32]
 255:C:/Users/dtjld/workspace/AIoT/src/LiteOS_Lab/iot_link/network/dtls/mbedtls/mbedtls-2.16.2/library\gcm.c ****             zh ^= (uint64_t) last4[rem] << 48;
 627              		.loc 1 255 0
 628 00bc 7B7D     		ldrb	r3, [r7, #21]	@ zero_extendqisi2
 629 00be AB4A     		ldr	r2, .L23
 630 00c0 DB00     		lsls	r3, r3, #3
 631 00c2 1344     		add	r3, r3, r2
 632 00c4 D3E90012 		ldrd	r1, [r3]
 633 00c8 4FF00005 		mov	r5, #0
 634 00cc 4FF00006 		mov	r6, #0
 635 00d0 0E04     		lsls	r6, r1, #16
 636 00d2 0025     		movs	r5, #0
 637 00d4 D7E90812 		ldrd	r1, [r7, #32]
 638 00d8 85EA0103 		eor	r3, r5, r1
 639 00dc 86EA0204 		eor	r4, r6, r2
 640 00e0 C7E90834 		strd	r3, [r7, #32]
 256:C:/Users/dtjld/workspace/AIoT/src/LiteOS_Lab/iot_link/network/dtls/mbedtls/mbedtls-2.16.2/library\gcm.c ****             zh ^= ctx->HH[lo];
 641              		.loc 1 256 0
 642 00e4 FB7D     		ldrb	r3, [r7, #23]	@ zero_extendqisi2
 643 00e6 FA68     		ldr	r2, [r7, #12]
 644 00e8 1833     		adds	r3, r3, #24
 645 00ea DB00     		lsls	r3, r3, #3
 646 00ec 1344     		add	r3, r3, r2
 647 00ee D3E90056 		ldrd	r5, [r3]
 648 00f2 D7E90812 		ldrd	r1, [r7, #32]
 649 00f6 85EA0103 		eor	r3, r5, r1
 650 00fa 86EA0204 		eor	r4, r6, r2
 651 00fe C7E90834 		strd	r3, [r7, #32]
 257:C:/Users/dtjld/workspace/AIoT/src/LiteOS_Lab/iot_link/network/dtls/mbedtls/mbedtls-2.16.2/library\gcm.c ****             zl ^= ctx->HL[lo];
 652              		.loc 1 257 0
 653 0102 FB7D     		ldrb	r3, [r7, #23]	@ zero_extendqisi2
 654 0104 FA68     		ldr	r2, [r7, #12]
 655 0106 0833     		adds	r3, r3, #8
 656 0108 DB00     		lsls	r3, r3, #3
 657 010a 1344     		add	r3, r3, r2
 658 010c D3E90056 		ldrd	r5, [r3]
ARM GAS  C:\Users\dtjld\AppData\Local\Temp\ccrYdj6j.s 			page 17


 659 0110 D7E90612 		ldrd	r1, [r7, #24]
 660 0114 85EA0103 		eor	r3, r5, r1
 661 0118 86EA0204 		eor	r4, r6, r2
 662 011c C7E90634 		strd	r3, [r7, #24]
 663              	.L21:
 258:C:/Users/dtjld/workspace/AIoT/src/LiteOS_Lab/iot_link/network/dtls/mbedtls/mbedtls-2.16.2/library\gcm.c **** 
 259:C:/Users/dtjld/workspace/AIoT/src/LiteOS_Lab/iot_link/network/dtls/mbedtls/mbedtls-2.16.2/library\gcm.c ****         }
 260:C:/Users/dtjld/workspace/AIoT/src/LiteOS_Lab/iot_link/network/dtls/mbedtls/mbedtls-2.16.2/library\gcm.c **** 
 261:C:/Users/dtjld/workspace/AIoT/src/LiteOS_Lab/iot_link/network/dtls/mbedtls/mbedtls-2.16.2/library\gcm.c ****         rem = (unsigned char) zl & 0xf;
 664              		.loc 1 261 0 discriminator 2
 665 0120 3B7E     		ldrb	r3, [r7, #24]	@ zero_extendqisi2
 666 0122 03F00F03 		and	r3, r3, #15
 667 0126 7B75     		strb	r3, [r7, #21]
 262:C:/Users/dtjld/workspace/AIoT/src/LiteOS_Lab/iot_link/network/dtls/mbedtls/mbedtls-2.16.2/library\gcm.c ****         zl = ( zh << 60 ) | ( zl >> 4 );
 668              		.loc 1 262 0 discriminator 2
 669 0128 D7E90834 		ldrd	r3, [r7, #32]
 670 012c 4FF00005 		mov	r5, #0
 671 0130 4FF00006 		mov	r6, #0
 672 0134 1E07     		lsls	r6, r3, #28
 673 0136 0025     		movs	r5, #0
 674 0138 D7E90612 		ldrd	r1, [r7, #24]
 675 013c 4FF0000B 		mov	fp, #0
 676 0140 4FF0000C 		mov	ip, #0
 677 0144 4FEA111B 		lsr	fp, r1, #4
 678 0148 4BEA027B 		orr	fp, fp, r2, lsl #28
 679 014c 4FEA121C 		lsr	ip, r2, #4
 680 0150 4BEA0503 		orr	r3, fp, r5
 681 0154 4CEA0604 		orr	r4, ip, r6
 682 0158 C7E90634 		strd	r3, [r7, #24]
 263:C:/Users/dtjld/workspace/AIoT/src/LiteOS_Lab/iot_link/network/dtls/mbedtls/mbedtls-2.16.2/library\gcm.c ****         zh = ( zh >> 4 );
 683              		.loc 1 263 0 discriminator 2
 684 015c D7E90812 		ldrd	r1, [r7, #32]
 685 0160 4FF00003 		mov	r3, #0
 686 0164 4FF00004 		mov	r4, #0
 687 0168 0B09     		lsrs	r3, r1, #4
 688 016a 43EA0273 		orr	r3, r3, r2, lsl #28
 689 016e 1409     		lsrs	r4, r2, #4
 690 0170 C7E90834 		strd	r3, [r7, #32]
 264:C:/Users/dtjld/workspace/AIoT/src/LiteOS_Lab/iot_link/network/dtls/mbedtls/mbedtls-2.16.2/library\gcm.c ****         zh ^= (uint64_t) last4[rem] << 48;
 691              		.loc 1 264 0 discriminator 2
 692 0174 7B7D     		ldrb	r3, [r7, #21]	@ zero_extendqisi2
 693 0176 7D4A     		ldr	r2, .L23
 694 0178 DB00     		lsls	r3, r3, #3
 695 017a 1344     		add	r3, r3, r2
 696 017c D3E90012 		ldrd	r1, [r3]
 697 0180 4FF00005 		mov	r5, #0
 698 0184 4FF00006 		mov	r6, #0
 699 0188 0E04     		lsls	r6, r1, #16
 700 018a 0025     		movs	r5, #0
 701 018c D7E90812 		ldrd	r1, [r7, #32]
 702 0190 85EA0103 		eor	r3, r5, r1
 703 0194 86EA0204 		eor	r4, r6, r2
 704 0198 C7E90834 		strd	r3, [r7, #32]
 265:C:/Users/dtjld/workspace/AIoT/src/LiteOS_Lab/iot_link/network/dtls/mbedtls/mbedtls-2.16.2/library\gcm.c ****         zh ^= ctx->HH[hi];
 705              		.loc 1 265 0 discriminator 2
 706 019c BB7D     		ldrb	r3, [r7, #22]	@ zero_extendqisi2
 707 019e FA68     		ldr	r2, [r7, #12]
ARM GAS  C:\Users\dtjld\AppData\Local\Temp\ccrYdj6j.s 			page 18


 708 01a0 1833     		adds	r3, r3, #24
 709 01a2 DB00     		lsls	r3, r3, #3
 710 01a4 1344     		add	r3, r3, r2
 711 01a6 D3E90056 		ldrd	r5, [r3]
 712 01aa D7E90812 		ldrd	r1, [r7, #32]
 713 01ae 85EA0103 		eor	r3, r5, r1
 714 01b2 86EA0204 		eor	r4, r6, r2
 715 01b6 C7E90834 		strd	r3, [r7, #32]
 266:C:/Users/dtjld/workspace/AIoT/src/LiteOS_Lab/iot_link/network/dtls/mbedtls/mbedtls-2.16.2/library\gcm.c ****         zl ^= ctx->HL[hi];
 716              		.loc 1 266 0 discriminator 2
 717 01ba BB7D     		ldrb	r3, [r7, #22]	@ zero_extendqisi2
 718 01bc FA68     		ldr	r2, [r7, #12]
 719 01be 0833     		adds	r3, r3, #8
 720 01c0 DB00     		lsls	r3, r3, #3
 721 01c2 1344     		add	r3, r3, r2
 722 01c4 D3E90056 		ldrd	r5, [r3]
 723 01c8 D7E90612 		ldrd	r1, [r7, #24]
 724 01cc 85EA0103 		eor	r3, r5, r1
 725 01d0 86EA0204 		eor	r4, r6, r2
 726 01d4 C7E90634 		strd	r3, [r7, #24]
 245:C:/Users/dtjld/workspace/AIoT/src/LiteOS_Lab/iot_link/network/dtls/mbedtls/mbedtls-2.16.2/library\gcm.c ****     {
 727              		.loc 1 245 0 discriminator 2
 728 01d8 FB6A     		ldr	r3, [r7, #44]
 729 01da 013B     		subs	r3, r3, #1
 730 01dc FB62     		str	r3, [r7, #44]
 731              	.L20:
 245:C:/Users/dtjld/workspace/AIoT/src/LiteOS_Lab/iot_link/network/dtls/mbedtls/mbedtls-2.16.2/library\gcm.c ****     {
 732              		.loc 1 245 0 is_stmt 0 discriminator 1
 733 01de FB6A     		ldr	r3, [r7, #44]
 734 01e0 002B     		cmp	r3, #0
 735 01e2 BFF631AF 		bge	.L22
 267:C:/Users/dtjld/workspace/AIoT/src/LiteOS_Lab/iot_link/network/dtls/mbedtls/mbedtls-2.16.2/library\gcm.c ****     }
 268:C:/Users/dtjld/workspace/AIoT/src/LiteOS_Lab/iot_link/network/dtls/mbedtls/mbedtls-2.16.2/library\gcm.c **** 
 269:C:/Users/dtjld/workspace/AIoT/src/LiteOS_Lab/iot_link/network/dtls/mbedtls/mbedtls-2.16.2/library\gcm.c ****     PUT_UINT32_BE( zh >> 32, output, 0 );
 736              		.loc 1 269 0 is_stmt 1
 737 01e6 D7E90812 		ldrd	r1, [r7, #32]
 738 01ea 4FF00003 		mov	r3, #0
 739 01ee 4FF00004 		mov	r4, #0
 740 01f2 130E     		lsrs	r3, r2, #24
 741 01f4 0024     		movs	r4, #0
 742 01f6 DAB2     		uxtb	r2, r3
 743 01f8 7B68     		ldr	r3, [r7, #4]
 744 01fa 1A70     		strb	r2, [r3]
 745 01fc D7E90812 		ldrd	r1, [r7, #32]
 746 0200 4FF00003 		mov	r3, #0
 747 0204 4FF00004 		mov	r4, #0
 748 0208 130C     		lsrs	r3, r2, #16
 749 020a 0024     		movs	r4, #0
 750 020c 7A68     		ldr	r2, [r7, #4]
 751 020e 0132     		adds	r2, r2, #1
 752 0210 DBB2     		uxtb	r3, r3
 753 0212 1370     		strb	r3, [r2]
 754 0214 D7E90812 		ldrd	r1, [r7, #32]
 755 0218 4FF00003 		mov	r3, #0
 756 021c 4FF00004 		mov	r4, #0
 757 0220 130A     		lsrs	r3, r2, #8
 758 0222 0024     		movs	r4, #0
ARM GAS  C:\Users\dtjld\AppData\Local\Temp\ccrYdj6j.s 			page 19


 759 0224 7A68     		ldr	r2, [r7, #4]
 760 0226 0232     		adds	r2, r2, #2
 761 0228 DBB2     		uxtb	r3, r3
 762 022a 1370     		strb	r3, [r2]
 763 022c D7E90812 		ldrd	r1, [r7, #32]
 764 0230 4FF00003 		mov	r3, #0
 765 0234 4FF00004 		mov	r4, #0
 766 0238 1300     		movs	r3, r2
 767 023a 0024     		movs	r4, #0
 768 023c 7A68     		ldr	r2, [r7, #4]
 769 023e 0332     		adds	r2, r2, #3
 770 0240 DBB2     		uxtb	r3, r3
 771 0242 1370     		strb	r3, [r2]
 270:C:/Users/dtjld/workspace/AIoT/src/LiteOS_Lab/iot_link/network/dtls/mbedtls/mbedtls-2.16.2/library\gcm.c ****     PUT_UINT32_BE( zh, output, 4 );
 772              		.loc 1 270 0
 773 0244 D7E90812 		ldrd	r1, [r7, #32]
 774 0248 4FF00003 		mov	r3, #0
 775 024c 4FF00004 		mov	r4, #0
 776 0250 0B0E     		lsrs	r3, r1, #24
 777 0252 43EA0223 		orr	r3, r3, r2, lsl #8
 778 0256 140E     		lsrs	r4, r2, #24
 779 0258 7A68     		ldr	r2, [r7, #4]
 780 025a 0432     		adds	r2, r2, #4
 781 025c DBB2     		uxtb	r3, r3
 782 025e 1370     		strb	r3, [r2]
 783 0260 D7E90812 		ldrd	r1, [r7, #32]
 784 0264 4FF00003 		mov	r3, #0
 785 0268 4FF00004 		mov	r4, #0
 786 026c 0B0C     		lsrs	r3, r1, #16
 787 026e 43EA0243 		orr	r3, r3, r2, lsl #16
 788 0272 140C     		lsrs	r4, r2, #16
 789 0274 7A68     		ldr	r2, [r7, #4]
 790 0276 0532     		adds	r2, r2, #5
 791 0278 DBB2     		uxtb	r3, r3
 792 027a 1370     		strb	r3, [r2]
 793 027c D7E90812 		ldrd	r1, [r7, #32]
 794 0280 4FF00003 		mov	r3, #0
 795 0284 4FF00004 		mov	r4, #0
 796 0288 0B0A     		lsrs	r3, r1, #8
 797 028a 43EA0263 		orr	r3, r3, r2, lsl #24
 798 028e 140A     		lsrs	r4, r2, #8
 799 0290 7A68     		ldr	r2, [r7, #4]
 800 0292 0632     		adds	r2, r2, #6
 801 0294 DBB2     		uxtb	r3, r3
 802 0296 1370     		strb	r3, [r2]
 803 0298 7B68     		ldr	r3, [r7, #4]
 804 029a 0733     		adds	r3, r3, #7
 805 029c 97F82020 		ldrb	r2, [r7, #32]	@ zero_extendqisi2
 806 02a0 1A70     		strb	r2, [r3]
 271:C:/Users/dtjld/workspace/AIoT/src/LiteOS_Lab/iot_link/network/dtls/mbedtls/mbedtls-2.16.2/library\gcm.c ****     PUT_UINT32_BE( zl >> 32, output, 8 );
 807              		.loc 1 271 0
 808 02a2 D7E90612 		ldrd	r1, [r7, #24]
 809 02a6 4FF00003 		mov	r3, #0
 810 02aa 4FF00004 		mov	r4, #0
 811 02ae 130E     		lsrs	r3, r2, #24
 812 02b0 0024     		movs	r4, #0
 813 02b2 7A68     		ldr	r2, [r7, #4]
ARM GAS  C:\Users\dtjld\AppData\Local\Temp\ccrYdj6j.s 			page 20


 814 02b4 0832     		adds	r2, r2, #8
 815 02b6 DBB2     		uxtb	r3, r3
 816 02b8 1370     		strb	r3, [r2]
 817 02ba D7E90612 		ldrd	r1, [r7, #24]
 818 02be 4FF00003 		mov	r3, #0
 819 02c2 4FF00004 		mov	r4, #0
 820 02c6 130C     		lsrs	r3, r2, #16
 821 02c8 0024     		movs	r4, #0
 822 02ca 7A68     		ldr	r2, [r7, #4]
 823 02cc 0932     		adds	r2, r2, #9
 824 02ce DBB2     		uxtb	r3, r3
 825 02d0 1370     		strb	r3, [r2]
 826 02d2 D7E90612 		ldrd	r1, [r7, #24]
 827 02d6 4FF00003 		mov	r3, #0
 828 02da 4FF00004 		mov	r4, #0
 829 02de 130A     		lsrs	r3, r2, #8
 830 02e0 0024     		movs	r4, #0
 831 02e2 7A68     		ldr	r2, [r7, #4]
 832 02e4 0A32     		adds	r2, r2, #10
 833 02e6 DBB2     		uxtb	r3, r3
 834 02e8 1370     		strb	r3, [r2]
 835 02ea D7E90612 		ldrd	r1, [r7, #24]
 836 02ee 4FF00003 		mov	r3, #0
 837 02f2 4FF00004 		mov	r4, #0
 838 02f6 1300     		movs	r3, r2
 839 02f8 0024     		movs	r4, #0
 840 02fa 7A68     		ldr	r2, [r7, #4]
 841 02fc 0B32     		adds	r2, r2, #11
 842 02fe DBB2     		uxtb	r3, r3
 843 0300 1370     		strb	r3, [r2]
 272:C:/Users/dtjld/workspace/AIoT/src/LiteOS_Lab/iot_link/network/dtls/mbedtls/mbedtls-2.16.2/library\gcm.c ****     PUT_UINT32_BE( zl, output, 12 );
 844              		.loc 1 272 0
 845 0302 D7E90612 		ldrd	r1, [r7, #24]
 846 0306 4FF00003 		mov	r3, #0
 847 030a 4FF00004 		mov	r4, #0
 848 030e 0B0E     		lsrs	r3, r1, #24
 849 0310 43EA0223 		orr	r3, r3, r2, lsl #8
 850 0314 140E     		lsrs	r4, r2, #24
 851 0316 7A68     		ldr	r2, [r7, #4]
 852 0318 0C32     		adds	r2, r2, #12
 853 031a DBB2     		uxtb	r3, r3
 854 031c 1370     		strb	r3, [r2]
 855 031e D7E90612 		ldrd	r1, [r7, #24]
 856 0322 4FF00003 		mov	r3, #0
 857 0326 4FF00004 		mov	r4, #0
 858 032a 0B0C     		lsrs	r3, r1, #16
 859 032c 43EA0243 		orr	r3, r3, r2, lsl #16
 860 0330 140C     		lsrs	r4, r2, #16
 861 0332 7A68     		ldr	r2, [r7, #4]
 862 0334 0D32     		adds	r2, r2, #13
 863 0336 DBB2     		uxtb	r3, r3
 864 0338 1370     		strb	r3, [r2]
 865 033a D7E90612 		ldrd	r1, [r7, #24]
 866 033e 4FF00003 		mov	r3, #0
 867 0342 4FF00004 		mov	r4, #0
 868 0346 0B0A     		lsrs	r3, r1, #8
 869 0348 43EA0263 		orr	r3, r3, r2, lsl #24
ARM GAS  C:\Users\dtjld\AppData\Local\Temp\ccrYdj6j.s 			page 21


 870 034c 140A     		lsrs	r4, r2, #8
 871 034e 7A68     		ldr	r2, [r7, #4]
 872 0350 0E32     		adds	r2, r2, #14
 873 0352 DBB2     		uxtb	r3, r3
 874 0354 1370     		strb	r3, [r2]
 875 0356 7B68     		ldr	r3, [r7, #4]
 876 0358 0F33     		adds	r3, r3, #15
 877 035a 3A7E     		ldrb	r2, [r7, #24]	@ zero_extendqisi2
 878 035c 1A70     		strb	r2, [r3]
 273:C:/Users/dtjld/workspace/AIoT/src/LiteOS_Lab/iot_link/network/dtls/mbedtls/mbedtls-2.16.2/library\gcm.c **** }
 879              		.loc 1 273 0
 880 035e 00BF     		nop
 881 0360 3437     		adds	r7, r7, #52
 882              	.LCFI18:
 883              		.cfi_def_cfa_offset 20
 884 0362 BD46     		mov	sp, r7
 885              	.LCFI19:
 886              		.cfi_def_cfa_register 13
 887              		@ sp needed
 888 0364 BDE8F008 		pop	{r4, r5, r6, r7, fp}
 889              	.LCFI20:
 890              		.cfi_restore 11
 891              		.cfi_restore 7
 892              		.cfi_restore 6
 893              		.cfi_restore 5
 894              		.cfi_restore 4
 895              		.cfi_def_cfa_offset 0
 896 0368 7047     		bx	lr
 897              	.L24:
 898 036a 00BF     		.align	2
 899              	.L23:
 900 036c 00000000 		.word	last4
 901              		.cfi_endproc
 902              	.LFE13:
 904              		.section	.text.mbedtls_gcm_starts,"ax",%progbits
 905              		.align	1
 906              		.global	mbedtls_gcm_starts
 907              		.syntax unified
 908              		.thumb
 909              		.thumb_func
 910              		.fpu fpv4-sp-d16
 912              	mbedtls_gcm_starts:
 913              	.LFB14:
 274:C:/Users/dtjld/workspace/AIoT/src/LiteOS_Lab/iot_link/network/dtls/mbedtls/mbedtls-2.16.2/library\gcm.c **** 
 275:C:/Users/dtjld/workspace/AIoT/src/LiteOS_Lab/iot_link/network/dtls/mbedtls/mbedtls-2.16.2/library\gcm.c **** int mbedtls_gcm_starts( mbedtls_gcm_context *ctx,
 276:C:/Users/dtjld/workspace/AIoT/src/LiteOS_Lab/iot_link/network/dtls/mbedtls/mbedtls-2.16.2/library\gcm.c ****                 int mode,
 277:C:/Users/dtjld/workspace/AIoT/src/LiteOS_Lab/iot_link/network/dtls/mbedtls/mbedtls-2.16.2/library\gcm.c ****                 const unsigned char *iv,
 278:C:/Users/dtjld/workspace/AIoT/src/LiteOS_Lab/iot_link/network/dtls/mbedtls/mbedtls-2.16.2/library\gcm.c ****                 size_t iv_len,
 279:C:/Users/dtjld/workspace/AIoT/src/LiteOS_Lab/iot_link/network/dtls/mbedtls/mbedtls-2.16.2/library\gcm.c ****                 const unsigned char *add,
 280:C:/Users/dtjld/workspace/AIoT/src/LiteOS_Lab/iot_link/network/dtls/mbedtls/mbedtls-2.16.2/library\gcm.c ****                 size_t add_len )
 281:C:/Users/dtjld/workspace/AIoT/src/LiteOS_Lab/iot_link/network/dtls/mbedtls/mbedtls-2.16.2/library\gcm.c **** {
 914              		.loc 1 281 0
 915              		.cfi_startproc
 916              		@ args = 8, pretend = 0, frame = 56
 917              		@ frame_needed = 1, uses_anonymous_args = 0
 918 0000 90B5     		push	{r4, r7, lr}
 919              	.LCFI21:
ARM GAS  C:\Users\dtjld\AppData\Local\Temp\ccrYdj6j.s 			page 22


 920              		.cfi_def_cfa_offset 12
 921              		.cfi_offset 4, -12
 922              		.cfi_offset 7, -8
 923              		.cfi_offset 14, -4
 924 0002 91B0     		sub	sp, sp, #68
 925              	.LCFI22:
 926              		.cfi_def_cfa_offset 80
 927 0004 02AF     		add	r7, sp, #8
 928              	.LCFI23:
 929              		.cfi_def_cfa 7, 72
 930 0006 F860     		str	r0, [r7, #12]
 931 0008 B960     		str	r1, [r7, #8]
 932 000a 7A60     		str	r2, [r7, #4]
 933 000c 3B60     		str	r3, [r7]
 282:C:/Users/dtjld/workspace/AIoT/src/LiteOS_Lab/iot_link/network/dtls/mbedtls/mbedtls-2.16.2/library\gcm.c ****     int ret;
 283:C:/Users/dtjld/workspace/AIoT/src/LiteOS_Lab/iot_link/network/dtls/mbedtls/mbedtls-2.16.2/library\gcm.c ****     unsigned char work_buf[16];
 284:C:/Users/dtjld/workspace/AIoT/src/LiteOS_Lab/iot_link/network/dtls/mbedtls/mbedtls-2.16.2/library\gcm.c ****     size_t i;
 285:C:/Users/dtjld/workspace/AIoT/src/LiteOS_Lab/iot_link/network/dtls/mbedtls/mbedtls-2.16.2/library\gcm.c ****     const unsigned char *p;
 286:C:/Users/dtjld/workspace/AIoT/src/LiteOS_Lab/iot_link/network/dtls/mbedtls/mbedtls-2.16.2/library\gcm.c ****     size_t use_len, olen = 0;
 934              		.loc 1 286 0
 935 000e 0023     		movs	r3, #0
 936 0010 7B61     		str	r3, [r7, #20]
 287:C:/Users/dtjld/workspace/AIoT/src/LiteOS_Lab/iot_link/network/dtls/mbedtls/mbedtls-2.16.2/library\gcm.c **** 
 288:C:/Users/dtjld/workspace/AIoT/src/LiteOS_Lab/iot_link/network/dtls/mbedtls/mbedtls-2.16.2/library\gcm.c ****     GCM_VALIDATE_RET( ctx != NULL );
 289:C:/Users/dtjld/workspace/AIoT/src/LiteOS_Lab/iot_link/network/dtls/mbedtls/mbedtls-2.16.2/library\gcm.c ****     GCM_VALIDATE_RET( iv != NULL );
 290:C:/Users/dtjld/workspace/AIoT/src/LiteOS_Lab/iot_link/network/dtls/mbedtls/mbedtls-2.16.2/library\gcm.c ****     GCM_VALIDATE_RET( add_len == 0 || add != NULL );
 291:C:/Users/dtjld/workspace/AIoT/src/LiteOS_Lab/iot_link/network/dtls/mbedtls/mbedtls-2.16.2/library\gcm.c **** 
 292:C:/Users/dtjld/workspace/AIoT/src/LiteOS_Lab/iot_link/network/dtls/mbedtls/mbedtls-2.16.2/library\gcm.c ****     /* IV and AD are limited to 2^64 bits, so 2^61 bytes */
 293:C:/Users/dtjld/workspace/AIoT/src/LiteOS_Lab/iot_link/network/dtls/mbedtls/mbedtls-2.16.2/library\gcm.c ****     /* IV is not allowed to be zero length */
 294:C:/Users/dtjld/workspace/AIoT/src/LiteOS_Lab/iot_link/network/dtls/mbedtls/mbedtls-2.16.2/library\gcm.c ****     if( iv_len == 0 ||
 937              		.loc 1 294 0
 938 0012 3B68     		ldr	r3, [r7]
 939 0014 002B     		cmp	r3, #0
 940 0016 17D0     		beq	.L26
 295:C:/Users/dtjld/workspace/AIoT/src/LiteOS_Lab/iot_link/network/dtls/mbedtls/mbedtls-2.16.2/library\gcm.c ****       ( (uint64_t) iv_len  ) >> 61 != 0 ||
 941              		.loc 1 295 0 discriminator 1
 942 0018 3B68     		ldr	r3, [r7]
 943 001a 1946     		mov	r1, r3
 944 001c 4FF00002 		mov	r2, #0
 945 0020 4FF00003 		mov	r3, #0
 946 0024 4FF00004 		mov	r4, #0
 947 0028 530F     		lsrs	r3, r2, #29
 948 002a 0024     		movs	r4, #0
 294:C:/Users/dtjld/workspace/AIoT/src/LiteOS_Lab/iot_link/network/dtls/mbedtls/mbedtls-2.16.2/library\gcm.c ****       ( (uint64_t) iv_len  ) >> 61 != 0 ||
 949              		.loc 1 294 0 discriminator 1
 950 002c 2343     		orrs	r3, r3, r4
 951 002e 0BD1     		bne	.L26
 296:C:/Users/dtjld/workspace/AIoT/src/LiteOS_Lab/iot_link/network/dtls/mbedtls/mbedtls-2.16.2/library\gcm.c ****       ( (uint64_t) add_len ) >> 61 != 0 )
 952              		.loc 1 296 0
 953 0030 FB6C     		ldr	r3, [r7, #76]
 954 0032 1946     		mov	r1, r3
 955 0034 4FF00002 		mov	r2, #0
 956 0038 4FF00003 		mov	r3, #0
 957 003c 4FF00004 		mov	r4, #0
 958 0040 530F     		lsrs	r3, r2, #29
 959 0042 0024     		movs	r4, #0
 295:C:/Users/dtjld/workspace/AIoT/src/LiteOS_Lab/iot_link/network/dtls/mbedtls/mbedtls-2.16.2/library\gcm.c ****       ( (uint64_t) iv_len  ) >> 61 != 0 ||
ARM GAS  C:\Users\dtjld\AppData\Local\Temp\ccrYdj6j.s 			page 23


 960              		.loc 1 295 0
 961 0044 2343     		orrs	r3, r3, r4
 962 0046 02D0     		beq	.L27
 963              	.L26:
 297:C:/Users/dtjld/workspace/AIoT/src/LiteOS_Lab/iot_link/network/dtls/mbedtls/mbedtls-2.16.2/library\gcm.c ****     {
 298:C:/Users/dtjld/workspace/AIoT/src/LiteOS_Lab/iot_link/network/dtls/mbedtls/mbedtls-2.16.2/library\gcm.c ****         return( MBEDTLS_ERR_GCM_BAD_INPUT );
 964              		.loc 1 298 0
 965 0048 6FF01303 		mvn	r3, #19
 966 004c 0CE1     		b	.L42
 967              	.L27:
 299:C:/Users/dtjld/workspace/AIoT/src/LiteOS_Lab/iot_link/network/dtls/mbedtls/mbedtls-2.16.2/library\gcm.c ****     }
 300:C:/Users/dtjld/workspace/AIoT/src/LiteOS_Lab/iot_link/network/dtls/mbedtls/mbedtls-2.16.2/library\gcm.c **** 
 301:C:/Users/dtjld/workspace/AIoT/src/LiteOS_Lab/iot_link/network/dtls/mbedtls/mbedtls-2.16.2/library\gcm.c ****     memset( ctx->y, 0x00, sizeof(ctx->y) );
 968              		.loc 1 301 0
 969 004e FB68     		ldr	r3, [r7, #12]
 970 0050 03F5B073 		add	r3, r3, #352
 971 0054 1022     		movs	r2, #16
 972 0056 0021     		movs	r1, #0
 973 0058 1846     		mov	r0, r3
 974 005a FFF7FEFF 		bl	memset
 302:C:/Users/dtjld/workspace/AIoT/src/LiteOS_Lab/iot_link/network/dtls/mbedtls/mbedtls-2.16.2/library\gcm.c ****     memset( ctx->buf, 0x00, sizeof(ctx->buf) );
 975              		.loc 1 302 0
 976 005e FB68     		ldr	r3, [r7, #12]
 977 0060 03F5B873 		add	r3, r3, #368
 978 0064 1022     		movs	r2, #16
 979 0066 0021     		movs	r1, #0
 980 0068 1846     		mov	r0, r3
 981 006a FFF7FEFF 		bl	memset
 303:C:/Users/dtjld/workspace/AIoT/src/LiteOS_Lab/iot_link/network/dtls/mbedtls/mbedtls-2.16.2/library\gcm.c **** 
 304:C:/Users/dtjld/workspace/AIoT/src/LiteOS_Lab/iot_link/network/dtls/mbedtls/mbedtls-2.16.2/library\gcm.c ****     ctx->mode = mode;
 982              		.loc 1 304 0
 983 006e FB68     		ldr	r3, [r7, #12]
 984 0070 BA68     		ldr	r2, [r7, #8]
 985 0072 C3F88021 		str	r2, [r3, #384]
 305:C:/Users/dtjld/workspace/AIoT/src/LiteOS_Lab/iot_link/network/dtls/mbedtls/mbedtls-2.16.2/library\gcm.c ****     ctx->len = 0;
 986              		.loc 1 305 0
 987 0076 FB68     		ldr	r3, [r7, #12]
 988 0078 03F5A072 		add	r2, r3, #320
 989 007c 4FF00003 		mov	r3, #0
 990 0080 4FF00004 		mov	r4, #0
 991 0084 C2E90034 		strd	r3, [r2]
 306:C:/Users/dtjld/workspace/AIoT/src/LiteOS_Lab/iot_link/network/dtls/mbedtls/mbedtls-2.16.2/library\gcm.c ****     ctx->add_len = 0;
 992              		.loc 1 306 0
 993 0088 FB68     		ldr	r3, [r7, #12]
 994 008a 03F5A472 		add	r2, r3, #328
 995 008e 4FF00003 		mov	r3, #0
 996 0092 4FF00004 		mov	r4, #0
 997 0096 C2E90034 		strd	r3, [r2]
 307:C:/Users/dtjld/workspace/AIoT/src/LiteOS_Lab/iot_link/network/dtls/mbedtls/mbedtls-2.16.2/library\gcm.c **** 
 308:C:/Users/dtjld/workspace/AIoT/src/LiteOS_Lab/iot_link/network/dtls/mbedtls/mbedtls-2.16.2/library\gcm.c ****     if( iv_len == 12 )
 998              		.loc 1 308 0
 999 009a 3B68     		ldr	r3, [r7]
 1000 009c 0C2B     		cmp	r3, #12
 1001 009e 0CD1     		bne	.L29
 309:C:/Users/dtjld/workspace/AIoT/src/LiteOS_Lab/iot_link/network/dtls/mbedtls/mbedtls-2.16.2/library\gcm.c ****     {
 310:C:/Users/dtjld/workspace/AIoT/src/LiteOS_Lab/iot_link/network/dtls/mbedtls/mbedtls-2.16.2/library\gcm.c ****         memcpy( ctx->y, iv, iv_len );
 1002              		.loc 1 310 0
ARM GAS  C:\Users\dtjld\AppData\Local\Temp\ccrYdj6j.s 			page 24


 1003 00a0 FB68     		ldr	r3, [r7, #12]
 1004 00a2 03F5B073 		add	r3, r3, #352
 1005 00a6 3A68     		ldr	r2, [r7]
 1006 00a8 7968     		ldr	r1, [r7, #4]
 1007 00aa 1846     		mov	r0, r3
 1008 00ac FFF7FEFF 		bl	memcpy
 311:C:/Users/dtjld/workspace/AIoT/src/LiteOS_Lab/iot_link/network/dtls/mbedtls/mbedtls-2.16.2/library\gcm.c ****         ctx->y[15] = 1;
 1009              		.loc 1 311 0
 1010 00b0 FB68     		ldr	r3, [r7, #12]
 1011 00b2 0122     		movs	r2, #1
 1012 00b4 83F86F21 		strb	r2, [r3, #367]
 1013 00b8 7FE0     		b	.L30
 1014              	.L29:
 312:C:/Users/dtjld/workspace/AIoT/src/LiteOS_Lab/iot_link/network/dtls/mbedtls/mbedtls-2.16.2/library\gcm.c ****     }
 313:C:/Users/dtjld/workspace/AIoT/src/LiteOS_Lab/iot_link/network/dtls/mbedtls/mbedtls-2.16.2/library\gcm.c ****     else
 314:C:/Users/dtjld/workspace/AIoT/src/LiteOS_Lab/iot_link/network/dtls/mbedtls/mbedtls-2.16.2/library\gcm.c ****     {
 315:C:/Users/dtjld/workspace/AIoT/src/LiteOS_Lab/iot_link/network/dtls/mbedtls/mbedtls-2.16.2/library\gcm.c ****         memset( work_buf, 0x00, 16 );
 1015              		.loc 1 315 0
 1016 00ba 07F11803 		add	r3, r7, #24
 1017 00be 1022     		movs	r2, #16
 1018 00c0 0021     		movs	r1, #0
 1019 00c2 1846     		mov	r0, r3
 1020 00c4 FFF7FEFF 		bl	memset
 316:C:/Users/dtjld/workspace/AIoT/src/LiteOS_Lab/iot_link/network/dtls/mbedtls/mbedtls-2.16.2/library\gcm.c ****         PUT_UINT32_BE( iv_len * 8, work_buf, 12 );
 1021              		.loc 1 316 0
 1022 00c8 3B68     		ldr	r3, [r7]
 1023 00ca DB00     		lsls	r3, r3, #3
 1024 00cc 1B0E     		lsrs	r3, r3, #24
 1025 00ce DBB2     		uxtb	r3, r3
 1026 00d0 87F82430 		strb	r3, [r7, #36]
 1027 00d4 3B68     		ldr	r3, [r7]
 1028 00d6 DB00     		lsls	r3, r3, #3
 1029 00d8 1B0C     		lsrs	r3, r3, #16
 1030 00da DBB2     		uxtb	r3, r3
 1031 00dc 87F82530 		strb	r3, [r7, #37]
 1032 00e0 3B68     		ldr	r3, [r7]
 1033 00e2 DB00     		lsls	r3, r3, #3
 1034 00e4 1B0A     		lsrs	r3, r3, #8
 1035 00e6 DBB2     		uxtb	r3, r3
 1036 00e8 87F82630 		strb	r3, [r7, #38]
 1037 00ec 3B68     		ldr	r3, [r7]
 1038 00ee DBB2     		uxtb	r3, r3
 1039 00f0 DB00     		lsls	r3, r3, #3
 1040 00f2 DBB2     		uxtb	r3, r3
 1041 00f4 87F82730 		strb	r3, [r7, #39]
 317:C:/Users/dtjld/workspace/AIoT/src/LiteOS_Lab/iot_link/network/dtls/mbedtls/mbedtls-2.16.2/library\gcm.c **** 
 318:C:/Users/dtjld/workspace/AIoT/src/LiteOS_Lab/iot_link/network/dtls/mbedtls/mbedtls-2.16.2/library\gcm.c ****         p = iv;
 1042              		.loc 1 318 0
 1043 00f8 7B68     		ldr	r3, [r7, #4]
 1044 00fa 3B63     		str	r3, [r7, #48]
 319:C:/Users/dtjld/workspace/AIoT/src/LiteOS_Lab/iot_link/network/dtls/mbedtls/mbedtls-2.16.2/library\gcm.c ****         while( iv_len > 0 )
 1045              		.loc 1 319 0
 1046 00fc 33E0     		b	.L31
 1047              	.L34:
 320:C:/Users/dtjld/workspace/AIoT/src/LiteOS_Lab/iot_link/network/dtls/mbedtls/mbedtls-2.16.2/library\gcm.c ****         {
 321:C:/Users/dtjld/workspace/AIoT/src/LiteOS_Lab/iot_link/network/dtls/mbedtls/mbedtls-2.16.2/library\gcm.c ****             use_len = ( iv_len < 16 ) ? iv_len : 16;
 1048              		.loc 1 321 0
ARM GAS  C:\Users\dtjld\AppData\Local\Temp\ccrYdj6j.s 			page 25


 1049 00fe 3B68     		ldr	r3, [r7]
 1050 0100 102B     		cmp	r3, #16
 1051 0102 28BF     		it	cs
 1052 0104 1023     		movcs	r3, #16
 1053 0106 FB62     		str	r3, [r7, #44]
 322:C:/Users/dtjld/workspace/AIoT/src/LiteOS_Lab/iot_link/network/dtls/mbedtls/mbedtls-2.16.2/library\gcm.c **** 
 323:C:/Users/dtjld/workspace/AIoT/src/LiteOS_Lab/iot_link/network/dtls/mbedtls/mbedtls-2.16.2/library\gcm.c ****             for( i = 0; i < use_len; i++ )
 1054              		.loc 1 323 0
 1055 0108 0023     		movs	r3, #0
 1056 010a 7B63     		str	r3, [r7, #52]
 1057 010c 15E0     		b	.L32
 1058              	.L33:
 324:C:/Users/dtjld/workspace/AIoT/src/LiteOS_Lab/iot_link/network/dtls/mbedtls/mbedtls-2.16.2/library\gcm.c ****                 ctx->y[i] ^= p[i];
 1059              		.loc 1 324 0 discriminator 3
 1060 010e FA68     		ldr	r2, [r7, #12]
 1061 0110 7B6B     		ldr	r3, [r7, #52]
 1062 0112 1344     		add	r3, r3, r2
 1063 0114 03F5B073 		add	r3, r3, #352
 1064 0118 1A78     		ldrb	r2, [r3]	@ zero_extendqisi2
 1065 011a 396B     		ldr	r1, [r7, #48]
 1066 011c 7B6B     		ldr	r3, [r7, #52]
 1067 011e 0B44     		add	r3, r3, r1
 1068 0120 1B78     		ldrb	r3, [r3]	@ zero_extendqisi2
 1069 0122 5340     		eors	r3, r3, r2
 1070 0124 D9B2     		uxtb	r1, r3
 1071 0126 FA68     		ldr	r2, [r7, #12]
 1072 0128 7B6B     		ldr	r3, [r7, #52]
 1073 012a 1344     		add	r3, r3, r2
 1074 012c 03F5B073 		add	r3, r3, #352
 1075 0130 0A46     		mov	r2, r1
 1076 0132 1A70     		strb	r2, [r3]
 323:C:/Users/dtjld/workspace/AIoT/src/LiteOS_Lab/iot_link/network/dtls/mbedtls/mbedtls-2.16.2/library\gcm.c ****                 ctx->y[i] ^= p[i];
 1077              		.loc 1 323 0 discriminator 3
 1078 0134 7B6B     		ldr	r3, [r7, #52]
 1079 0136 0133     		adds	r3, r3, #1
 1080 0138 7B63     		str	r3, [r7, #52]
 1081              	.L32:
 323:C:/Users/dtjld/workspace/AIoT/src/LiteOS_Lab/iot_link/network/dtls/mbedtls/mbedtls-2.16.2/library\gcm.c ****                 ctx->y[i] ^= p[i];
 1082              		.loc 1 323 0 is_stmt 0 discriminator 1
 1083 013a 7A6B     		ldr	r2, [r7, #52]
 1084 013c FB6A     		ldr	r3, [r7, #44]
 1085 013e 9A42     		cmp	r2, r3
 1086 0140 E5D3     		bcc	.L33
 325:C:/Users/dtjld/workspace/AIoT/src/LiteOS_Lab/iot_link/network/dtls/mbedtls/mbedtls-2.16.2/library\gcm.c **** 
 326:C:/Users/dtjld/workspace/AIoT/src/LiteOS_Lab/iot_link/network/dtls/mbedtls/mbedtls-2.16.2/library\gcm.c ****             gcm_mult( ctx, ctx->y, ctx->y );
 1087              		.loc 1 326 0 is_stmt 1
 1088 0142 FB68     		ldr	r3, [r7, #12]
 1089 0144 03F5B071 		add	r1, r3, #352
 1090 0148 FB68     		ldr	r3, [r7, #12]
 1091 014a 03F5B073 		add	r3, r3, #352
 1092 014e 1A46     		mov	r2, r3
 1093 0150 F868     		ldr	r0, [r7, #12]
 1094 0152 FFF7FEFF 		bl	gcm_mult
 327:C:/Users/dtjld/workspace/AIoT/src/LiteOS_Lab/iot_link/network/dtls/mbedtls/mbedtls-2.16.2/library\gcm.c **** 
 328:C:/Users/dtjld/workspace/AIoT/src/LiteOS_Lab/iot_link/network/dtls/mbedtls/mbedtls-2.16.2/library\gcm.c ****             iv_len -= use_len;
 1095              		.loc 1 328 0
 1096 0156 3A68     		ldr	r2, [r7]
ARM GAS  C:\Users\dtjld\AppData\Local\Temp\ccrYdj6j.s 			page 26


 1097 0158 FB6A     		ldr	r3, [r7, #44]
 1098 015a D31A     		subs	r3, r2, r3
 1099 015c 3B60     		str	r3, [r7]
 329:C:/Users/dtjld/workspace/AIoT/src/LiteOS_Lab/iot_link/network/dtls/mbedtls/mbedtls-2.16.2/library\gcm.c ****             p += use_len;
 1100              		.loc 1 329 0
 1101 015e 3A6B     		ldr	r2, [r7, #48]
 1102 0160 FB6A     		ldr	r3, [r7, #44]
 1103 0162 1344     		add	r3, r3, r2
 1104 0164 3B63     		str	r3, [r7, #48]
 1105              	.L31:
 319:C:/Users/dtjld/workspace/AIoT/src/LiteOS_Lab/iot_link/network/dtls/mbedtls/mbedtls-2.16.2/library\gcm.c ****         {
 1106              		.loc 1 319 0
 1107 0166 3B68     		ldr	r3, [r7]
 1108 0168 002B     		cmp	r3, #0
 1109 016a C8D1     		bne	.L34
 330:C:/Users/dtjld/workspace/AIoT/src/LiteOS_Lab/iot_link/network/dtls/mbedtls/mbedtls-2.16.2/library\gcm.c ****         }
 331:C:/Users/dtjld/workspace/AIoT/src/LiteOS_Lab/iot_link/network/dtls/mbedtls/mbedtls-2.16.2/library\gcm.c **** 
 332:C:/Users/dtjld/workspace/AIoT/src/LiteOS_Lab/iot_link/network/dtls/mbedtls/mbedtls-2.16.2/library\gcm.c ****         for( i = 0; i < 16; i++ )
 1110              		.loc 1 332 0
 1111 016c 0023     		movs	r3, #0
 1112 016e 7B63     		str	r3, [r7, #52]
 1113 0170 16E0     		b	.L35
 1114              	.L36:
 333:C:/Users/dtjld/workspace/AIoT/src/LiteOS_Lab/iot_link/network/dtls/mbedtls/mbedtls-2.16.2/library\gcm.c ****             ctx->y[i] ^= work_buf[i];
 1115              		.loc 1 333 0 discriminator 3
 1116 0172 FA68     		ldr	r2, [r7, #12]
 1117 0174 7B6B     		ldr	r3, [r7, #52]
 1118 0176 1344     		add	r3, r3, r2
 1119 0178 03F5B073 		add	r3, r3, #352
 1120 017c 1A78     		ldrb	r2, [r3]	@ zero_extendqisi2
 1121 017e 07F11801 		add	r1, r7, #24
 1122 0182 7B6B     		ldr	r3, [r7, #52]
 1123 0184 0B44     		add	r3, r3, r1
 1124 0186 1B78     		ldrb	r3, [r3]	@ zero_extendqisi2
 1125 0188 5340     		eors	r3, r3, r2
 1126 018a D9B2     		uxtb	r1, r3
 1127 018c FA68     		ldr	r2, [r7, #12]
 1128 018e 7B6B     		ldr	r3, [r7, #52]
 1129 0190 1344     		add	r3, r3, r2
 1130 0192 03F5B073 		add	r3, r3, #352
 1131 0196 0A46     		mov	r2, r1
 1132 0198 1A70     		strb	r2, [r3]
 332:C:/Users/dtjld/workspace/AIoT/src/LiteOS_Lab/iot_link/network/dtls/mbedtls/mbedtls-2.16.2/library\gcm.c ****             ctx->y[i] ^= work_buf[i];
 1133              		.loc 1 332 0 discriminator 3
 1134 019a 7B6B     		ldr	r3, [r7, #52]
 1135 019c 0133     		adds	r3, r3, #1
 1136 019e 7B63     		str	r3, [r7, #52]
 1137              	.L35:
 332:C:/Users/dtjld/workspace/AIoT/src/LiteOS_Lab/iot_link/network/dtls/mbedtls/mbedtls-2.16.2/library\gcm.c ****             ctx->y[i] ^= work_buf[i];
 1138              		.loc 1 332 0 is_stmt 0 discriminator 1
 1139 01a0 7B6B     		ldr	r3, [r7, #52]
 1140 01a2 0F2B     		cmp	r3, #15
 1141 01a4 E5D9     		bls	.L36
 334:C:/Users/dtjld/workspace/AIoT/src/LiteOS_Lab/iot_link/network/dtls/mbedtls/mbedtls-2.16.2/library\gcm.c **** 
 335:C:/Users/dtjld/workspace/AIoT/src/LiteOS_Lab/iot_link/network/dtls/mbedtls/mbedtls-2.16.2/library\gcm.c ****         gcm_mult( ctx, ctx->y, ctx->y );
 1142              		.loc 1 335 0 is_stmt 1
 1143 01a6 FB68     		ldr	r3, [r7, #12]
ARM GAS  C:\Users\dtjld\AppData\Local\Temp\ccrYdj6j.s 			page 27


 1144 01a8 03F5B071 		add	r1, r3, #352
 1145 01ac FB68     		ldr	r3, [r7, #12]
 1146 01ae 03F5B073 		add	r3, r3, #352
 1147 01b2 1A46     		mov	r2, r3
 1148 01b4 F868     		ldr	r0, [r7, #12]
 1149 01b6 FFF7FEFF 		bl	gcm_mult
 1150              	.L30:
 336:C:/Users/dtjld/workspace/AIoT/src/LiteOS_Lab/iot_link/network/dtls/mbedtls/mbedtls-2.16.2/library\gcm.c ****     }
 337:C:/Users/dtjld/workspace/AIoT/src/LiteOS_Lab/iot_link/network/dtls/mbedtls/mbedtls-2.16.2/library\gcm.c **** 
 338:C:/Users/dtjld/workspace/AIoT/src/LiteOS_Lab/iot_link/network/dtls/mbedtls/mbedtls-2.16.2/library\gcm.c ****     if( ( ret = mbedtls_cipher_update( &ctx->cipher_ctx, ctx->y, 16, ctx->base_ectr,
 1151              		.loc 1 338 0
 1152 01ba F868     		ldr	r0, [r7, #12]
 1153 01bc FB68     		ldr	r3, [r7, #12]
 1154 01be 03F5B071 		add	r1, r3, #352
 1155 01c2 FB68     		ldr	r3, [r7, #12]
 1156 01c4 03F5A872 		add	r2, r3, #336
 1157 01c8 07F11403 		add	r3, r7, #20
 1158 01cc 0093     		str	r3, [sp]
 1159 01ce 1346     		mov	r3, r2
 1160 01d0 1022     		movs	r2, #16
 1161 01d2 FFF7FEFF 		bl	mbedtls_cipher_update
 1162 01d6 B862     		str	r0, [r7, #40]
 1163 01d8 BB6A     		ldr	r3, [r7, #40]
 1164 01da 002B     		cmp	r3, #0
 1165 01dc 01D0     		beq	.L37
 339:C:/Users/dtjld/workspace/AIoT/src/LiteOS_Lab/iot_link/network/dtls/mbedtls/mbedtls-2.16.2/library\gcm.c ****                              &olen ) ) != 0 )
 340:C:/Users/dtjld/workspace/AIoT/src/LiteOS_Lab/iot_link/network/dtls/mbedtls/mbedtls-2.16.2/library\gcm.c ****     {
 341:C:/Users/dtjld/workspace/AIoT/src/LiteOS_Lab/iot_link/network/dtls/mbedtls/mbedtls-2.16.2/library\gcm.c ****         return( ret );
 1166              		.loc 1 341 0
 1167 01de BB6A     		ldr	r3, [r7, #40]
 1168 01e0 42E0     		b	.L42
 1169              	.L37:
 342:C:/Users/dtjld/workspace/AIoT/src/LiteOS_Lab/iot_link/network/dtls/mbedtls/mbedtls-2.16.2/library\gcm.c ****     }
 343:C:/Users/dtjld/workspace/AIoT/src/LiteOS_Lab/iot_link/network/dtls/mbedtls/mbedtls-2.16.2/library\gcm.c **** 
 344:C:/Users/dtjld/workspace/AIoT/src/LiteOS_Lab/iot_link/network/dtls/mbedtls/mbedtls-2.16.2/library\gcm.c ****     ctx->add_len = add_len;
 1170              		.loc 1 344 0
 1171 01e2 FB6C     		ldr	r3, [r7, #76]
 1172 01e4 4FF00004 		mov	r4, #0
 1173 01e8 FA68     		ldr	r2, [r7, #12]
 1174 01ea 02F5A472 		add	r2, r2, #328
 1175 01ee C2E90034 		strd	r3, [r2]
 345:C:/Users/dtjld/workspace/AIoT/src/LiteOS_Lab/iot_link/network/dtls/mbedtls/mbedtls-2.16.2/library\gcm.c ****     p = add;
 1176              		.loc 1 345 0
 1177 01f2 BB6C     		ldr	r3, [r7, #72]
 1178 01f4 3B63     		str	r3, [r7, #48]
 346:C:/Users/dtjld/workspace/AIoT/src/LiteOS_Lab/iot_link/network/dtls/mbedtls/mbedtls-2.16.2/library\gcm.c ****     while( add_len > 0 )
 1179              		.loc 1 346 0
 1180 01f6 33E0     		b	.L38
 1181              	.L41:
 347:C:/Users/dtjld/workspace/AIoT/src/LiteOS_Lab/iot_link/network/dtls/mbedtls/mbedtls-2.16.2/library\gcm.c ****     {
 348:C:/Users/dtjld/workspace/AIoT/src/LiteOS_Lab/iot_link/network/dtls/mbedtls/mbedtls-2.16.2/library\gcm.c ****         use_len = ( add_len < 16 ) ? add_len : 16;
 1182              		.loc 1 348 0
 1183 01f8 FB6C     		ldr	r3, [r7, #76]
 1184 01fa 102B     		cmp	r3, #16
 1185 01fc 28BF     		it	cs
 1186 01fe 1023     		movcs	r3, #16
 1187 0200 FB62     		str	r3, [r7, #44]
ARM GAS  C:\Users\dtjld\AppData\Local\Temp\ccrYdj6j.s 			page 28


 349:C:/Users/dtjld/workspace/AIoT/src/LiteOS_Lab/iot_link/network/dtls/mbedtls/mbedtls-2.16.2/library\gcm.c **** 
 350:C:/Users/dtjld/workspace/AIoT/src/LiteOS_Lab/iot_link/network/dtls/mbedtls/mbedtls-2.16.2/library\gcm.c ****         for( i = 0; i < use_len; i++ )
 1188              		.loc 1 350 0
 1189 0202 0023     		movs	r3, #0
 1190 0204 7B63     		str	r3, [r7, #52]
 1191 0206 15E0     		b	.L39
 1192              	.L40:
 351:C:/Users/dtjld/workspace/AIoT/src/LiteOS_Lab/iot_link/network/dtls/mbedtls/mbedtls-2.16.2/library\gcm.c ****             ctx->buf[i] ^= p[i];
 1193              		.loc 1 351 0 discriminator 3
 1194 0208 FA68     		ldr	r2, [r7, #12]
 1195 020a 7B6B     		ldr	r3, [r7, #52]
 1196 020c 1344     		add	r3, r3, r2
 1197 020e 03F5B873 		add	r3, r3, #368
 1198 0212 1A78     		ldrb	r2, [r3]	@ zero_extendqisi2
 1199 0214 396B     		ldr	r1, [r7, #48]
 1200 0216 7B6B     		ldr	r3, [r7, #52]
 1201 0218 0B44     		add	r3, r3, r1
 1202 021a 1B78     		ldrb	r3, [r3]	@ zero_extendqisi2
 1203 021c 5340     		eors	r3, r3, r2
 1204 021e D9B2     		uxtb	r1, r3
 1205 0220 FA68     		ldr	r2, [r7, #12]
 1206 0222 7B6B     		ldr	r3, [r7, #52]
 1207 0224 1344     		add	r3, r3, r2
 1208 0226 03F5B873 		add	r3, r3, #368
 1209 022a 0A46     		mov	r2, r1
 1210 022c 1A70     		strb	r2, [r3]
 350:C:/Users/dtjld/workspace/AIoT/src/LiteOS_Lab/iot_link/network/dtls/mbedtls/mbedtls-2.16.2/library\gcm.c ****             ctx->buf[i] ^= p[i];
 1211              		.loc 1 350 0 discriminator 3
 1212 022e 7B6B     		ldr	r3, [r7, #52]
 1213 0230 0133     		adds	r3, r3, #1
 1214 0232 7B63     		str	r3, [r7, #52]
 1215              	.L39:
 350:C:/Users/dtjld/workspace/AIoT/src/LiteOS_Lab/iot_link/network/dtls/mbedtls/mbedtls-2.16.2/library\gcm.c ****             ctx->buf[i] ^= p[i];
 1216              		.loc 1 350 0 is_stmt 0 discriminator 1
 1217 0234 7A6B     		ldr	r2, [r7, #52]
 1218 0236 FB6A     		ldr	r3, [r7, #44]
 1219 0238 9A42     		cmp	r2, r3
 1220 023a E5D3     		bcc	.L40
 352:C:/Users/dtjld/workspace/AIoT/src/LiteOS_Lab/iot_link/network/dtls/mbedtls/mbedtls-2.16.2/library\gcm.c **** 
 353:C:/Users/dtjld/workspace/AIoT/src/LiteOS_Lab/iot_link/network/dtls/mbedtls/mbedtls-2.16.2/library\gcm.c ****         gcm_mult( ctx, ctx->buf, ctx->buf );
 1221              		.loc 1 353 0 is_stmt 1
 1222 023c FB68     		ldr	r3, [r7, #12]
 1223 023e 03F5B871 		add	r1, r3, #368
 1224 0242 FB68     		ldr	r3, [r7, #12]
 1225 0244 03F5B873 		add	r3, r3, #368
 1226 0248 1A46     		mov	r2, r3
 1227 024a F868     		ldr	r0, [r7, #12]
 1228 024c FFF7FEFF 		bl	gcm_mult
 354:C:/Users/dtjld/workspace/AIoT/src/LiteOS_Lab/iot_link/network/dtls/mbedtls/mbedtls-2.16.2/library\gcm.c **** 
 355:C:/Users/dtjld/workspace/AIoT/src/LiteOS_Lab/iot_link/network/dtls/mbedtls/mbedtls-2.16.2/library\gcm.c ****         add_len -= use_len;
 1229              		.loc 1 355 0
 1230 0250 FA6C     		ldr	r2, [r7, #76]
 1231 0252 FB6A     		ldr	r3, [r7, #44]
 1232 0254 D31A     		subs	r3, r2, r3
 1233 0256 FB64     		str	r3, [r7, #76]
 356:C:/Users/dtjld/workspace/AIoT/src/LiteOS_Lab/iot_link/network/dtls/mbedtls/mbedtls-2.16.2/library\gcm.c ****         p += use_len;
 1234              		.loc 1 356 0
ARM GAS  C:\Users\dtjld\AppData\Local\Temp\ccrYdj6j.s 			page 29


 1235 0258 3A6B     		ldr	r2, [r7, #48]
 1236 025a FB6A     		ldr	r3, [r7, #44]
 1237 025c 1344     		add	r3, r3, r2
 1238 025e 3B63     		str	r3, [r7, #48]
 1239              	.L38:
 346:C:/Users/dtjld/workspace/AIoT/src/LiteOS_Lab/iot_link/network/dtls/mbedtls/mbedtls-2.16.2/library\gcm.c ****     {
 1240              		.loc 1 346 0
 1241 0260 FB6C     		ldr	r3, [r7, #76]
 1242 0262 002B     		cmp	r3, #0
 1243 0264 C8D1     		bne	.L41
 357:C:/Users/dtjld/workspace/AIoT/src/LiteOS_Lab/iot_link/network/dtls/mbedtls/mbedtls-2.16.2/library\gcm.c ****     }
 358:C:/Users/dtjld/workspace/AIoT/src/LiteOS_Lab/iot_link/network/dtls/mbedtls/mbedtls-2.16.2/library\gcm.c **** 
 359:C:/Users/dtjld/workspace/AIoT/src/LiteOS_Lab/iot_link/network/dtls/mbedtls/mbedtls-2.16.2/library\gcm.c ****     return( 0 );
 1244              		.loc 1 359 0
 1245 0266 0023     		movs	r3, #0
 1246              	.L42:
 360:C:/Users/dtjld/workspace/AIoT/src/LiteOS_Lab/iot_link/network/dtls/mbedtls/mbedtls-2.16.2/library\gcm.c **** }
 1247              		.loc 1 360 0 discriminator 1
 1248 0268 1846     		mov	r0, r3
 1249 026a 3C37     		adds	r7, r7, #60
 1250              	.LCFI24:
 1251              		.cfi_def_cfa_offset 12
 1252 026c BD46     		mov	sp, r7
 1253              	.LCFI25:
 1254              		.cfi_def_cfa_register 13
 1255              		@ sp needed
 1256 026e 90BD     		pop	{r4, r7, pc}
 1257              		.cfi_endproc
 1258              	.LFE14:
 1260              		.section	.text.mbedtls_gcm_update,"ax",%progbits
 1261              		.align	1
 1262              		.global	mbedtls_gcm_update
 1263              		.syntax unified
 1264              		.thumb
 1265              		.thumb_func
 1266              		.fpu fpv4-sp-d16
 1268              	mbedtls_gcm_update:
 1269              	.LFB15:
 361:C:/Users/dtjld/workspace/AIoT/src/LiteOS_Lab/iot_link/network/dtls/mbedtls/mbedtls-2.16.2/library\gcm.c **** 
 362:C:/Users/dtjld/workspace/AIoT/src/LiteOS_Lab/iot_link/network/dtls/mbedtls/mbedtls-2.16.2/library\gcm.c **** int mbedtls_gcm_update( mbedtls_gcm_context *ctx,
 363:C:/Users/dtjld/workspace/AIoT/src/LiteOS_Lab/iot_link/network/dtls/mbedtls/mbedtls-2.16.2/library\gcm.c ****                 size_t length,
 364:C:/Users/dtjld/workspace/AIoT/src/LiteOS_Lab/iot_link/network/dtls/mbedtls/mbedtls-2.16.2/library\gcm.c ****                 const unsigned char *input,
 365:C:/Users/dtjld/workspace/AIoT/src/LiteOS_Lab/iot_link/network/dtls/mbedtls/mbedtls-2.16.2/library\gcm.c ****                 unsigned char *output )
 366:C:/Users/dtjld/workspace/AIoT/src/LiteOS_Lab/iot_link/network/dtls/mbedtls/mbedtls-2.16.2/library\gcm.c **** {
 1270              		.loc 1 366 0
 1271              		.cfi_startproc
 1272              		@ args = 0, pretend = 0, frame = 56
 1273              		@ frame_needed = 1, uses_anonymous_args = 0
 1274 0000 2DE99048 		push	{r4, r7, fp, lr}
 1275              	.LCFI26:
 1276              		.cfi_def_cfa_offset 16
 1277              		.cfi_offset 4, -16
 1278              		.cfi_offset 7, -12
 1279              		.cfi_offset 11, -8
 1280              		.cfi_offset 14, -4
 1281 0004 90B0     		sub	sp, sp, #64
 1282              	.LCFI27:
ARM GAS  C:\Users\dtjld\AppData\Local\Temp\ccrYdj6j.s 			page 30


 1283              		.cfi_def_cfa_offset 80
 1284 0006 02AF     		add	r7, sp, #8
 1285              	.LCFI28:
 1286              		.cfi_def_cfa 7, 72
 1287 0008 F860     		str	r0, [r7, #12]
 1288 000a B960     		str	r1, [r7, #8]
 1289 000c 7A60     		str	r2, [r7, #4]
 1290 000e 3B60     		str	r3, [r7]
 367:C:/Users/dtjld/workspace/AIoT/src/LiteOS_Lab/iot_link/network/dtls/mbedtls/mbedtls-2.16.2/library\gcm.c ****     int ret;
 368:C:/Users/dtjld/workspace/AIoT/src/LiteOS_Lab/iot_link/network/dtls/mbedtls/mbedtls-2.16.2/library\gcm.c ****     unsigned char ectr[16];
 369:C:/Users/dtjld/workspace/AIoT/src/LiteOS_Lab/iot_link/network/dtls/mbedtls/mbedtls-2.16.2/library\gcm.c ****     size_t i;
 370:C:/Users/dtjld/workspace/AIoT/src/LiteOS_Lab/iot_link/network/dtls/mbedtls/mbedtls-2.16.2/library\gcm.c ****     const unsigned char *p;
 371:C:/Users/dtjld/workspace/AIoT/src/LiteOS_Lab/iot_link/network/dtls/mbedtls/mbedtls-2.16.2/library\gcm.c ****     unsigned char *out_p = output;
 1291              		.loc 1 371 0
 1292 0010 3B68     		ldr	r3, [r7]
 1293 0012 FB62     		str	r3, [r7, #44]
 372:C:/Users/dtjld/workspace/AIoT/src/LiteOS_Lab/iot_link/network/dtls/mbedtls/mbedtls-2.16.2/library\gcm.c ****     size_t use_len, olen = 0;
 1294              		.loc 1 372 0
 1295 0014 0023     		movs	r3, #0
 1296 0016 3B61     		str	r3, [r7, #16]
 373:C:/Users/dtjld/workspace/AIoT/src/LiteOS_Lab/iot_link/network/dtls/mbedtls/mbedtls-2.16.2/library\gcm.c **** 
 374:C:/Users/dtjld/workspace/AIoT/src/LiteOS_Lab/iot_link/network/dtls/mbedtls/mbedtls-2.16.2/library\gcm.c ****     GCM_VALIDATE_RET( ctx != NULL );
 375:C:/Users/dtjld/workspace/AIoT/src/LiteOS_Lab/iot_link/network/dtls/mbedtls/mbedtls-2.16.2/library\gcm.c ****     GCM_VALIDATE_RET( length == 0 || input != NULL );
 376:C:/Users/dtjld/workspace/AIoT/src/LiteOS_Lab/iot_link/network/dtls/mbedtls/mbedtls-2.16.2/library\gcm.c ****     GCM_VALIDATE_RET( length == 0 || output != NULL );
 377:C:/Users/dtjld/workspace/AIoT/src/LiteOS_Lab/iot_link/network/dtls/mbedtls/mbedtls-2.16.2/library\gcm.c **** 
 378:C:/Users/dtjld/workspace/AIoT/src/LiteOS_Lab/iot_link/network/dtls/mbedtls/mbedtls-2.16.2/library\gcm.c ****     if( output > input && (size_t) ( output - input ) < length )
 1297              		.loc 1 378 0
 1298 0018 3A68     		ldr	r2, [r7]
 1299 001a 7B68     		ldr	r3, [r7, #4]
 1300 001c 9A42     		cmp	r2, r3
 1301 001e 09D9     		bls	.L44
 1302              		.loc 1 378 0 is_stmt 0 discriminator 1
 1303 0020 3A68     		ldr	r2, [r7]
 1304 0022 7B68     		ldr	r3, [r7, #4]
 1305 0024 D31A     		subs	r3, r2, r3
 1306 0026 1A46     		mov	r2, r3
 1307 0028 BB68     		ldr	r3, [r7, #8]
 1308 002a 9342     		cmp	r3, r2
 1309 002c 02D9     		bls	.L44
 379:C:/Users/dtjld/workspace/AIoT/src/LiteOS_Lab/iot_link/network/dtls/mbedtls/mbedtls-2.16.2/library\gcm.c ****         return( MBEDTLS_ERR_GCM_BAD_INPUT );
 1310              		.loc 1 379 0 is_stmt 1
 1311 002e 6FF01303 		mvn	r3, #19
 1312 0032 DAE0     		b	.L59
 1313              	.L44:
 380:C:/Users/dtjld/workspace/AIoT/src/LiteOS_Lab/iot_link/network/dtls/mbedtls/mbedtls-2.16.2/library\gcm.c **** 
 381:C:/Users/dtjld/workspace/AIoT/src/LiteOS_Lab/iot_link/network/dtls/mbedtls/mbedtls-2.16.2/library\gcm.c ****     /* Total length is restricted to 2^39 - 256 bits, ie 2^36 - 2^5 bytes
 382:C:/Users/dtjld/workspace/AIoT/src/LiteOS_Lab/iot_link/network/dtls/mbedtls/mbedtls-2.16.2/library\gcm.c ****      * Also check for possible overflow */
 383:C:/Users/dtjld/workspace/AIoT/src/LiteOS_Lab/iot_link/network/dtls/mbedtls/mbedtls-2.16.2/library\gcm.c ****     if( ctx->len + length < ctx->len ||
 1314              		.loc 1 383 0
 1315 0034 FB68     		ldr	r3, [r7, #12]
 1316 0036 03F5A073 		add	r3, r3, #320
 1317 003a D3E900BC 		ldrd	fp, [r3]
 1318 003e BB68     		ldr	r3, [r7, #8]
 1319 0040 4FF00004 		mov	r4, #0
 1320 0044 1BEB0301 		adds	r1, fp, r3
 1321 0048 4CEB0402 		adc	r2, ip, r4
 1322 004c FB68     		ldr	r3, [r7, #12]
ARM GAS  C:\Users\dtjld\AppData\Local\Temp\ccrYdj6j.s 			page 31


 1323 004e 03F5A073 		add	r3, r3, #320
 1324 0052 D3E90034 		ldrd	r3, [r3]
 1325 0056 A242     		cmp	r2, r4
 1326 0058 08BF     		it	eq
 1327 005a 9942     		cmpeq	r1, r3
 1328 005c 14D3     		bcc	.L46
 384:C:/Users/dtjld/workspace/AIoT/src/LiteOS_Lab/iot_link/network/dtls/mbedtls/mbedtls-2.16.2/library\gcm.c ****         (uint64_t) ctx->len + length > 0xFFFFFFFE0ull )
 1329              		.loc 1 384 0 discriminator 1
 1330 005e FB68     		ldr	r3, [r7, #12]
 1331 0060 03F5A073 		add	r3, r3, #320
 1332 0064 D3E90012 		ldrd	r1, [r3]
 1333 0068 BB68     		ldr	r3, [r7, #8]
 1334 006a 9B46     		mov	fp, r3
 1335 006c 4FF0000C 		mov	ip, #0
 1336 0070 1BEB0103 		adds	r3, fp, r1
 1337 0074 4CEB0204 		adc	r4, ip, r2
 383:C:/Users/dtjld/workspace/AIoT/src/LiteOS_Lab/iot_link/network/dtls/mbedtls/mbedtls-2.16.2/library\gcm.c ****         (uint64_t) ctx->len + length > 0xFFFFFFFE0ull )
 1338              		.loc 1 383 0 discriminator 1
 1339 0078 6FF01F01 		mvn	r1, #31
 1340 007c 4FF00F02 		mov	r2, #15
 1341 0080 A242     		cmp	r2, r4
 1342 0082 08BF     		it	eq
 1343 0084 9942     		cmpeq	r1, r3
 1344 0086 02D2     		bcs	.L47
 1345              	.L46:
 385:C:/Users/dtjld/workspace/AIoT/src/LiteOS_Lab/iot_link/network/dtls/mbedtls/mbedtls-2.16.2/library\gcm.c ****     {
 386:C:/Users/dtjld/workspace/AIoT/src/LiteOS_Lab/iot_link/network/dtls/mbedtls/mbedtls-2.16.2/library\gcm.c ****         return( MBEDTLS_ERR_GCM_BAD_INPUT );
 1346              		.loc 1 386 0
 1347 0088 6FF01303 		mvn	r3, #19
 1348 008c ADE0     		b	.L59
 1349              	.L47:
 387:C:/Users/dtjld/workspace/AIoT/src/LiteOS_Lab/iot_link/network/dtls/mbedtls/mbedtls-2.16.2/library\gcm.c ****     }
 388:C:/Users/dtjld/workspace/AIoT/src/LiteOS_Lab/iot_link/network/dtls/mbedtls/mbedtls-2.16.2/library\gcm.c **** 
 389:C:/Users/dtjld/workspace/AIoT/src/LiteOS_Lab/iot_link/network/dtls/mbedtls/mbedtls-2.16.2/library\gcm.c ****     ctx->len += length;
 1350              		.loc 1 389 0
 1351 008e FB68     		ldr	r3, [r7, #12]
 1352 0090 03F5A073 		add	r3, r3, #320
 1353 0094 D3E90012 		ldrd	r1, [r3]
 1354 0098 BB68     		ldr	r3, [r7, #8]
 1355 009a 9B46     		mov	fp, r3
 1356 009c 4FF0000C 		mov	ip, #0
 1357 00a0 1BEB0103 		adds	r3, fp, r1
 1358 00a4 4CEB0204 		adc	r4, ip, r2
 1359 00a8 FA68     		ldr	r2, [r7, #12]
 1360 00aa 02F5A072 		add	r2, r2, #320
 1361 00ae C2E90034 		strd	r3, [r2]
 390:C:/Users/dtjld/workspace/AIoT/src/LiteOS_Lab/iot_link/network/dtls/mbedtls/mbedtls-2.16.2/library\gcm.c **** 
 391:C:/Users/dtjld/workspace/AIoT/src/LiteOS_Lab/iot_link/network/dtls/mbedtls/mbedtls-2.16.2/library\gcm.c ****     p = input;
 1362              		.loc 1 391 0
 1363 00b2 7B68     		ldr	r3, [r7, #4]
 1364 00b4 3B63     		str	r3, [r7, #48]
 392:C:/Users/dtjld/workspace/AIoT/src/LiteOS_Lab/iot_link/network/dtls/mbedtls/mbedtls-2.16.2/library\gcm.c ****     while( length > 0 )
 1365              		.loc 1 392 0
 1366 00b6 93E0     		b	.L48
 1367              	.L58:
 393:C:/Users/dtjld/workspace/AIoT/src/LiteOS_Lab/iot_link/network/dtls/mbedtls/mbedtls-2.16.2/library\gcm.c ****     {
 394:C:/Users/dtjld/workspace/AIoT/src/LiteOS_Lab/iot_link/network/dtls/mbedtls/mbedtls-2.16.2/library\gcm.c ****         use_len = ( length < 16 ) ? length : 16;
ARM GAS  C:\Users\dtjld\AppData\Local\Temp\ccrYdj6j.s 			page 32


 1368              		.loc 1 394 0
 1369 00b8 BB68     		ldr	r3, [r7, #8]
 1370 00ba 102B     		cmp	r3, #16
 1371 00bc 28BF     		it	cs
 1372 00be 1023     		movcs	r3, #16
 1373 00c0 BB62     		str	r3, [r7, #40]
 395:C:/Users/dtjld/workspace/AIoT/src/LiteOS_Lab/iot_link/network/dtls/mbedtls/mbedtls-2.16.2/library\gcm.c **** 
 396:C:/Users/dtjld/workspace/AIoT/src/LiteOS_Lab/iot_link/network/dtls/mbedtls/mbedtls-2.16.2/library\gcm.c ****         for( i = 16; i > 12; i-- )
 1374              		.loc 1 396 0
 1375 00c2 1023     		movs	r3, #16
 1376 00c4 7B63     		str	r3, [r7, #52]
 1377 00c6 14E0     		b	.L49
 1378              	.L52:
 397:C:/Users/dtjld/workspace/AIoT/src/LiteOS_Lab/iot_link/network/dtls/mbedtls/mbedtls-2.16.2/library\gcm.c ****             if( ++ctx->y[i - 1] != 0 )
 1379              		.loc 1 397 0
 1380 00c8 7B6B     		ldr	r3, [r7, #52]
 1381 00ca 013B     		subs	r3, r3, #1
 1382 00cc FA68     		ldr	r2, [r7, #12]
 1383 00ce 1A44     		add	r2, r2, r3
 1384 00d0 92F86021 		ldrb	r2, [r2, #352]	@ zero_extendqisi2
 1385 00d4 0132     		adds	r2, r2, #1
 1386 00d6 D1B2     		uxtb	r1, r2
 1387 00d8 FA68     		ldr	r2, [r7, #12]
 1388 00da 1A44     		add	r2, r2, r3
 1389 00dc 82F86011 		strb	r1, [r2, #352]
 1390 00e0 FA68     		ldr	r2, [r7, #12]
 1391 00e2 1344     		add	r3, r3, r2
 1392 00e4 93F86031 		ldrb	r3, [r3, #352]	@ zero_extendqisi2
 1393 00e8 002B     		cmp	r3, #0
 1394 00ea 06D1     		bne	.L60
 396:C:/Users/dtjld/workspace/AIoT/src/LiteOS_Lab/iot_link/network/dtls/mbedtls/mbedtls-2.16.2/library\gcm.c ****             if( ++ctx->y[i - 1] != 0 )
 1395              		.loc 1 396 0 discriminator 2
 1396 00ec 7B6B     		ldr	r3, [r7, #52]
 1397 00ee 013B     		subs	r3, r3, #1
 1398 00f0 7B63     		str	r3, [r7, #52]
 1399              	.L49:
 396:C:/Users/dtjld/workspace/AIoT/src/LiteOS_Lab/iot_link/network/dtls/mbedtls/mbedtls-2.16.2/library\gcm.c ****             if( ++ctx->y[i - 1] != 0 )
 1400              		.loc 1 396 0 is_stmt 0 discriminator 1
 1401 00f2 7B6B     		ldr	r3, [r7, #52]
 1402 00f4 0C2B     		cmp	r3, #12
 1403 00f6 E7D8     		bhi	.L52
 1404 00f8 00E0     		b	.L51
 1405              	.L60:
 398:C:/Users/dtjld/workspace/AIoT/src/LiteOS_Lab/iot_link/network/dtls/mbedtls/mbedtls-2.16.2/library\gcm.c ****                 break;
 1406              		.loc 1 398 0 is_stmt 1
 1407 00fa 00BF     		nop
 1408              	.L51:
 399:C:/Users/dtjld/workspace/AIoT/src/LiteOS_Lab/iot_link/network/dtls/mbedtls/mbedtls-2.16.2/library\gcm.c **** 
 400:C:/Users/dtjld/workspace/AIoT/src/LiteOS_Lab/iot_link/network/dtls/mbedtls/mbedtls-2.16.2/library\gcm.c ****         if( ( ret = mbedtls_cipher_update( &ctx->cipher_ctx, ctx->y, 16, ectr,
 1409              		.loc 1 400 0
 1410 00fc F868     		ldr	r0, [r7, #12]
 1411 00fe FB68     		ldr	r3, [r7, #12]
 1412 0100 03F5B071 		add	r1, r3, #352
 1413 0104 07F11402 		add	r2, r7, #20
 1414 0108 07F11003 		add	r3, r7, #16
 1415 010c 0093     		str	r3, [sp]
 1416 010e 1346     		mov	r3, r2
ARM GAS  C:\Users\dtjld\AppData\Local\Temp\ccrYdj6j.s 			page 33


 1417 0110 1022     		movs	r2, #16
 1418 0112 FFF7FEFF 		bl	mbedtls_cipher_update
 1419 0116 7862     		str	r0, [r7, #36]
 1420 0118 7B6A     		ldr	r3, [r7, #36]
 1421 011a 002B     		cmp	r3, #0
 1422 011c 01D0     		beq	.L53
 401:C:/Users/dtjld/workspace/AIoT/src/LiteOS_Lab/iot_link/network/dtls/mbedtls/mbedtls-2.16.2/library\gcm.c ****                                    &olen ) ) != 0 )
 402:C:/Users/dtjld/workspace/AIoT/src/LiteOS_Lab/iot_link/network/dtls/mbedtls/mbedtls-2.16.2/library\gcm.c ****         {
 403:C:/Users/dtjld/workspace/AIoT/src/LiteOS_Lab/iot_link/network/dtls/mbedtls/mbedtls-2.16.2/library\gcm.c ****             return( ret );
 1423              		.loc 1 403 0
 1424 011e 7B6A     		ldr	r3, [r7, #36]
 1425 0120 63E0     		b	.L59
 1426              	.L53:
 404:C:/Users/dtjld/workspace/AIoT/src/LiteOS_Lab/iot_link/network/dtls/mbedtls/mbedtls-2.16.2/library\gcm.c ****         }
 405:C:/Users/dtjld/workspace/AIoT/src/LiteOS_Lab/iot_link/network/dtls/mbedtls/mbedtls-2.16.2/library\gcm.c **** 
 406:C:/Users/dtjld/workspace/AIoT/src/LiteOS_Lab/iot_link/network/dtls/mbedtls/mbedtls-2.16.2/library\gcm.c ****         for( i = 0; i < use_len; i++ )
 1427              		.loc 1 406 0
 1428 0122 0023     		movs	r3, #0
 1429 0124 7B63     		str	r3, [r7, #52]
 1430 0126 41E0     		b	.L54
 1431              	.L57:
 407:C:/Users/dtjld/workspace/AIoT/src/LiteOS_Lab/iot_link/network/dtls/mbedtls/mbedtls-2.16.2/library\gcm.c ****         {
 408:C:/Users/dtjld/workspace/AIoT/src/LiteOS_Lab/iot_link/network/dtls/mbedtls/mbedtls-2.16.2/library\gcm.c ****             if( ctx->mode == MBEDTLS_GCM_DECRYPT )
 1432              		.loc 1 408 0
 1433 0128 FB68     		ldr	r3, [r7, #12]
 1434 012a D3F88031 		ldr	r3, [r3, #384]
 1435 012e 002B     		cmp	r3, #0
 1436 0130 12D1     		bne	.L55
 409:C:/Users/dtjld/workspace/AIoT/src/LiteOS_Lab/iot_link/network/dtls/mbedtls/mbedtls-2.16.2/library\gcm.c ****                 ctx->buf[i] ^= p[i];
 1437              		.loc 1 409 0
 1438 0132 FA68     		ldr	r2, [r7, #12]
 1439 0134 7B6B     		ldr	r3, [r7, #52]
 1440 0136 1344     		add	r3, r3, r2
 1441 0138 03F5B873 		add	r3, r3, #368
 1442 013c 1A78     		ldrb	r2, [r3]	@ zero_extendqisi2
 1443 013e 396B     		ldr	r1, [r7, #48]
 1444 0140 7B6B     		ldr	r3, [r7, #52]
 1445 0142 0B44     		add	r3, r3, r1
 1446 0144 1B78     		ldrb	r3, [r3]	@ zero_extendqisi2
 1447 0146 5340     		eors	r3, r3, r2
 1448 0148 D9B2     		uxtb	r1, r3
 1449 014a FA68     		ldr	r2, [r7, #12]
 1450 014c 7B6B     		ldr	r3, [r7, #52]
 1451 014e 1344     		add	r3, r3, r2
 1452 0150 03F5B873 		add	r3, r3, #368
 1453 0154 0A46     		mov	r2, r1
 1454 0156 1A70     		strb	r2, [r3]
 1455              	.L55:
 410:C:/Users/dtjld/workspace/AIoT/src/LiteOS_Lab/iot_link/network/dtls/mbedtls/mbedtls-2.16.2/library\gcm.c ****             out_p[i] = ectr[i] ^ p[i];
 1456              		.loc 1 410 0
 1457 0158 07F11402 		add	r2, r7, #20
 1458 015c 7B6B     		ldr	r3, [r7, #52]
 1459 015e 1344     		add	r3, r3, r2
 1460 0160 1978     		ldrb	r1, [r3]	@ zero_extendqisi2
 1461 0162 3A6B     		ldr	r2, [r7, #48]
 1462 0164 7B6B     		ldr	r3, [r7, #52]
 1463 0166 1344     		add	r3, r3, r2
ARM GAS  C:\Users\dtjld\AppData\Local\Temp\ccrYdj6j.s 			page 34


 1464 0168 1A78     		ldrb	r2, [r3]	@ zero_extendqisi2
 1465 016a F86A     		ldr	r0, [r7, #44]
 1466 016c 7B6B     		ldr	r3, [r7, #52]
 1467 016e 0344     		add	r3, r3, r0
 1468 0170 4A40     		eors	r2, r2, r1
 1469 0172 D2B2     		uxtb	r2, r2
 1470 0174 1A70     		strb	r2, [r3]
 411:C:/Users/dtjld/workspace/AIoT/src/LiteOS_Lab/iot_link/network/dtls/mbedtls/mbedtls-2.16.2/library\gcm.c ****             if( ctx->mode == MBEDTLS_GCM_ENCRYPT )
 1471              		.loc 1 411 0
 1472 0176 FB68     		ldr	r3, [r7, #12]
 1473 0178 D3F88031 		ldr	r3, [r3, #384]
 1474 017c 012B     		cmp	r3, #1
 1475 017e 12D1     		bne	.L56
 412:C:/Users/dtjld/workspace/AIoT/src/LiteOS_Lab/iot_link/network/dtls/mbedtls/mbedtls-2.16.2/library\gcm.c ****                 ctx->buf[i] ^= out_p[i];
 1476              		.loc 1 412 0
 1477 0180 FA68     		ldr	r2, [r7, #12]
 1478 0182 7B6B     		ldr	r3, [r7, #52]
 1479 0184 1344     		add	r3, r3, r2
 1480 0186 03F5B873 		add	r3, r3, #368
 1481 018a 1A78     		ldrb	r2, [r3]	@ zero_extendqisi2
 1482 018c F96A     		ldr	r1, [r7, #44]
 1483 018e 7B6B     		ldr	r3, [r7, #52]
 1484 0190 0B44     		add	r3, r3, r1
 1485 0192 1B78     		ldrb	r3, [r3]	@ zero_extendqisi2
 1486 0194 5340     		eors	r3, r3, r2
 1487 0196 D9B2     		uxtb	r1, r3
 1488 0198 FA68     		ldr	r2, [r7, #12]
 1489 019a 7B6B     		ldr	r3, [r7, #52]
 1490 019c 1344     		add	r3, r3, r2
 1491 019e 03F5B873 		add	r3, r3, #368
 1492 01a2 0A46     		mov	r2, r1
 1493 01a4 1A70     		strb	r2, [r3]
 1494              	.L56:
 406:C:/Users/dtjld/workspace/AIoT/src/LiteOS_Lab/iot_link/network/dtls/mbedtls/mbedtls-2.16.2/library\gcm.c ****         {
 1495              		.loc 1 406 0 discriminator 2
 1496 01a6 7B6B     		ldr	r3, [r7, #52]
 1497 01a8 0133     		adds	r3, r3, #1
 1498 01aa 7B63     		str	r3, [r7, #52]
 1499              	.L54:
 406:C:/Users/dtjld/workspace/AIoT/src/LiteOS_Lab/iot_link/network/dtls/mbedtls/mbedtls-2.16.2/library\gcm.c ****         {
 1500              		.loc 1 406 0 is_stmt 0 discriminator 1
 1501 01ac 7A6B     		ldr	r2, [r7, #52]
 1502 01ae BB6A     		ldr	r3, [r7, #40]
 1503 01b0 9A42     		cmp	r2, r3
 1504 01b2 B9D3     		bcc	.L57
 413:C:/Users/dtjld/workspace/AIoT/src/LiteOS_Lab/iot_link/network/dtls/mbedtls/mbedtls-2.16.2/library\gcm.c ****         }
 414:C:/Users/dtjld/workspace/AIoT/src/LiteOS_Lab/iot_link/network/dtls/mbedtls/mbedtls-2.16.2/library\gcm.c **** 
 415:C:/Users/dtjld/workspace/AIoT/src/LiteOS_Lab/iot_link/network/dtls/mbedtls/mbedtls-2.16.2/library\gcm.c ****         gcm_mult( ctx, ctx->buf, ctx->buf );
 1505              		.loc 1 415 0 is_stmt 1
 1506 01b4 FB68     		ldr	r3, [r7, #12]
 1507 01b6 03F5B871 		add	r1, r3, #368
 1508 01ba FB68     		ldr	r3, [r7, #12]
 1509 01bc 03F5B873 		add	r3, r3, #368
 1510 01c0 1A46     		mov	r2, r3
 1511 01c2 F868     		ldr	r0, [r7, #12]
 1512 01c4 FFF7FEFF 		bl	gcm_mult
 416:C:/Users/dtjld/workspace/AIoT/src/LiteOS_Lab/iot_link/network/dtls/mbedtls/mbedtls-2.16.2/library\gcm.c **** 
ARM GAS  C:\Users\dtjld\AppData\Local\Temp\ccrYdj6j.s 			page 35


 417:C:/Users/dtjld/workspace/AIoT/src/LiteOS_Lab/iot_link/network/dtls/mbedtls/mbedtls-2.16.2/library\gcm.c ****         length -= use_len;
 1513              		.loc 1 417 0
 1514 01c8 BA68     		ldr	r2, [r7, #8]
 1515 01ca BB6A     		ldr	r3, [r7, #40]
 1516 01cc D31A     		subs	r3, r2, r3
 1517 01ce BB60     		str	r3, [r7, #8]
 418:C:/Users/dtjld/workspace/AIoT/src/LiteOS_Lab/iot_link/network/dtls/mbedtls/mbedtls-2.16.2/library\gcm.c ****         p += use_len;
 1518              		.loc 1 418 0
 1519 01d0 3A6B     		ldr	r2, [r7, #48]
 1520 01d2 BB6A     		ldr	r3, [r7, #40]
 1521 01d4 1344     		add	r3, r3, r2
 1522 01d6 3B63     		str	r3, [r7, #48]
 419:C:/Users/dtjld/workspace/AIoT/src/LiteOS_Lab/iot_link/network/dtls/mbedtls/mbedtls-2.16.2/library\gcm.c ****         out_p += use_len;
 1523              		.loc 1 419 0
 1524 01d8 FA6A     		ldr	r2, [r7, #44]
 1525 01da BB6A     		ldr	r3, [r7, #40]
 1526 01dc 1344     		add	r3, r3, r2
 1527 01de FB62     		str	r3, [r7, #44]
 1528              	.L48:
 392:C:/Users/dtjld/workspace/AIoT/src/LiteOS_Lab/iot_link/network/dtls/mbedtls/mbedtls-2.16.2/library\gcm.c ****     {
 1529              		.loc 1 392 0
 1530 01e0 BB68     		ldr	r3, [r7, #8]
 1531 01e2 002B     		cmp	r3, #0
 1532 01e4 7FF468AF 		bne	.L58
 420:C:/Users/dtjld/workspace/AIoT/src/LiteOS_Lab/iot_link/network/dtls/mbedtls/mbedtls-2.16.2/library\gcm.c ****     }
 421:C:/Users/dtjld/workspace/AIoT/src/LiteOS_Lab/iot_link/network/dtls/mbedtls/mbedtls-2.16.2/library\gcm.c **** 
 422:C:/Users/dtjld/workspace/AIoT/src/LiteOS_Lab/iot_link/network/dtls/mbedtls/mbedtls-2.16.2/library\gcm.c ****     return( 0 );
 1533              		.loc 1 422 0
 1534 01e8 0023     		movs	r3, #0
 1535              	.L59:
 423:C:/Users/dtjld/workspace/AIoT/src/LiteOS_Lab/iot_link/network/dtls/mbedtls/mbedtls-2.16.2/library\gcm.c **** }
 1536              		.loc 1 423 0 discriminator 1
 1537 01ea 1846     		mov	r0, r3
 1538 01ec 3837     		adds	r7, r7, #56
 1539              	.LCFI29:
 1540              		.cfi_def_cfa_offset 16
 1541 01ee BD46     		mov	sp, r7
 1542              	.LCFI30:
 1543              		.cfi_def_cfa_register 13
 1544              		@ sp needed
 1545 01f0 BDE89088 		pop	{r4, r7, fp, pc}
 1546              		.cfi_endproc
 1547              	.LFE15:
 1549              		.section	.text.mbedtls_gcm_finish,"ax",%progbits
 1550              		.align	1
 1551              		.global	mbedtls_gcm_finish
 1552              		.syntax unified
 1553              		.thumb
 1554              		.thumb_func
 1555              		.fpu fpv4-sp-d16
 1557              	mbedtls_gcm_finish:
 1558              	.LFB16:
 424:C:/Users/dtjld/workspace/AIoT/src/LiteOS_Lab/iot_link/network/dtls/mbedtls/mbedtls-2.16.2/library\gcm.c **** 
 425:C:/Users/dtjld/workspace/AIoT/src/LiteOS_Lab/iot_link/network/dtls/mbedtls/mbedtls-2.16.2/library\gcm.c **** int mbedtls_gcm_finish( mbedtls_gcm_context *ctx,
 426:C:/Users/dtjld/workspace/AIoT/src/LiteOS_Lab/iot_link/network/dtls/mbedtls/mbedtls-2.16.2/library\gcm.c ****                 unsigned char *tag,
 427:C:/Users/dtjld/workspace/AIoT/src/LiteOS_Lab/iot_link/network/dtls/mbedtls/mbedtls-2.16.2/library\gcm.c ****                 size_t tag_len )
 428:C:/Users/dtjld/workspace/AIoT/src/LiteOS_Lab/iot_link/network/dtls/mbedtls/mbedtls-2.16.2/library\gcm.c **** {
ARM GAS  C:\Users\dtjld\AppData\Local\Temp\ccrYdj6j.s 			page 36


 1559              		.loc 1 428 0
 1560              		.cfi_startproc
 1561              		@ args = 0, pretend = 0, frame = 56
 1562              		@ frame_needed = 1, uses_anonymous_args = 0
 1563 0000 90B5     		push	{r4, r7, lr}
 1564              	.LCFI31:
 1565              		.cfi_def_cfa_offset 12
 1566              		.cfi_offset 4, -12
 1567              		.cfi_offset 7, -8
 1568              		.cfi_offset 14, -4
 1569 0002 8FB0     		sub	sp, sp, #60
 1570              	.LCFI32:
 1571              		.cfi_def_cfa_offset 72
 1572 0004 00AF     		add	r7, sp, #0
 1573              	.LCFI33:
 1574              		.cfi_def_cfa_register 7
 1575 0006 F860     		str	r0, [r7, #12]
 1576 0008 B960     		str	r1, [r7, #8]
 1577 000a 7A60     		str	r2, [r7, #4]
 429:C:/Users/dtjld/workspace/AIoT/src/LiteOS_Lab/iot_link/network/dtls/mbedtls/mbedtls-2.16.2/library\gcm.c ****     unsigned char work_buf[16];
 430:C:/Users/dtjld/workspace/AIoT/src/LiteOS_Lab/iot_link/network/dtls/mbedtls/mbedtls-2.16.2/library\gcm.c ****     size_t i;
 431:C:/Users/dtjld/workspace/AIoT/src/LiteOS_Lab/iot_link/network/dtls/mbedtls/mbedtls-2.16.2/library\gcm.c ****     uint64_t orig_len;
 432:C:/Users/dtjld/workspace/AIoT/src/LiteOS_Lab/iot_link/network/dtls/mbedtls/mbedtls-2.16.2/library\gcm.c ****     uint64_t orig_add_len;
 433:C:/Users/dtjld/workspace/AIoT/src/LiteOS_Lab/iot_link/network/dtls/mbedtls/mbedtls-2.16.2/library\gcm.c **** 
 434:C:/Users/dtjld/workspace/AIoT/src/LiteOS_Lab/iot_link/network/dtls/mbedtls/mbedtls-2.16.2/library\gcm.c ****     GCM_VALIDATE_RET( ctx != NULL );
 435:C:/Users/dtjld/workspace/AIoT/src/LiteOS_Lab/iot_link/network/dtls/mbedtls/mbedtls-2.16.2/library\gcm.c ****     GCM_VALIDATE_RET( tag != NULL );
 436:C:/Users/dtjld/workspace/AIoT/src/LiteOS_Lab/iot_link/network/dtls/mbedtls/mbedtls-2.16.2/library\gcm.c **** 
 437:C:/Users/dtjld/workspace/AIoT/src/LiteOS_Lab/iot_link/network/dtls/mbedtls/mbedtls-2.16.2/library\gcm.c ****     orig_len = ctx->len * 8;
 1578              		.loc 1 437 0
 1579 000c FB68     		ldr	r3, [r7, #12]
 1580 000e 03F5A073 		add	r3, r3, #320
 1581 0012 D3E90012 		ldrd	r1, [r3]
 1582 0016 4FF00003 		mov	r3, #0
 1583 001a 4FF00004 		mov	r4, #0
 1584 001e D400     		lsls	r4, r2, #3
 1585 0020 44EA5174 		orr	r4, r4, r1, lsr #29
 1586 0024 CB00     		lsls	r3, r1, #3
 1587 0026 C7E90A34 		strd	r3, [r7, #40]
 438:C:/Users/dtjld/workspace/AIoT/src/LiteOS_Lab/iot_link/network/dtls/mbedtls/mbedtls-2.16.2/library\gcm.c ****     orig_add_len = ctx->add_len * 8;
 1588              		.loc 1 438 0
 1589 002a FB68     		ldr	r3, [r7, #12]
 1590 002c 03F5A473 		add	r3, r3, #328
 1591 0030 D3E90012 		ldrd	r1, [r3]
 1592 0034 4FF00003 		mov	r3, #0
 1593 0038 4FF00004 		mov	r4, #0
 1594 003c D400     		lsls	r4, r2, #3
 1595 003e 44EA5174 		orr	r4, r4, r1, lsr #29
 1596 0042 CB00     		lsls	r3, r1, #3
 1597 0044 C7E90834 		strd	r3, [r7, #32]
 439:C:/Users/dtjld/workspace/AIoT/src/LiteOS_Lab/iot_link/network/dtls/mbedtls/mbedtls-2.16.2/library\gcm.c **** 
 440:C:/Users/dtjld/workspace/AIoT/src/LiteOS_Lab/iot_link/network/dtls/mbedtls/mbedtls-2.16.2/library\gcm.c ****     if( tag_len > 16 || tag_len < 4 )
 1598              		.loc 1 440 0
 1599 0048 7B68     		ldr	r3, [r7, #4]
 1600 004a 102B     		cmp	r3, #16
 1601 004c 02D8     		bhi	.L62
 1602              		.loc 1 440 0 is_stmt 0 discriminator 1
 1603 004e 7B68     		ldr	r3, [r7, #4]
ARM GAS  C:\Users\dtjld\AppData\Local\Temp\ccrYdj6j.s 			page 37


 1604 0050 032B     		cmp	r3, #3
 1605 0052 02D8     		bhi	.L63
 1606              	.L62:
 441:C:/Users/dtjld/workspace/AIoT/src/LiteOS_Lab/iot_link/network/dtls/mbedtls/mbedtls-2.16.2/library\gcm.c ****         return( MBEDTLS_ERR_GCM_BAD_INPUT );
 1607              		.loc 1 441 0 is_stmt 1
 1608 0054 6FF01303 		mvn	r3, #19
 1609 0058 F7E0     		b	.L71
 1610              	.L63:
 442:C:/Users/dtjld/workspace/AIoT/src/LiteOS_Lab/iot_link/network/dtls/mbedtls/mbedtls-2.16.2/library\gcm.c **** 
 443:C:/Users/dtjld/workspace/AIoT/src/LiteOS_Lab/iot_link/network/dtls/mbedtls/mbedtls-2.16.2/library\gcm.c ****     memcpy( tag, ctx->base_ectr, tag_len );
 1611              		.loc 1 443 0
 1612 005a FB68     		ldr	r3, [r7, #12]
 1613 005c 03F5A873 		add	r3, r3, #336
 1614 0060 7A68     		ldr	r2, [r7, #4]
 1615 0062 1946     		mov	r1, r3
 1616 0064 B868     		ldr	r0, [r7, #8]
 1617 0066 FFF7FEFF 		bl	memcpy
 444:C:/Users/dtjld/workspace/AIoT/src/LiteOS_Lab/iot_link/network/dtls/mbedtls/mbedtls-2.16.2/library\gcm.c **** 
 445:C:/Users/dtjld/workspace/AIoT/src/LiteOS_Lab/iot_link/network/dtls/mbedtls/mbedtls-2.16.2/library\gcm.c ****     if( orig_len || orig_add_len )
 1618              		.loc 1 445 0
 1619 006a D7E90A34 		ldrd	r3, [r7, #40]
 1620 006e 2343     		orrs	r3, r3, r4
 1621 0070 04D1     		bne	.L65
 1622              		.loc 1 445 0 is_stmt 0 discriminator 1
 1623 0072 D7E90834 		ldrd	r3, [r7, #32]
 1624 0076 2343     		orrs	r3, r3, r4
 1625 0078 00F0E680 		beq	.L66
 1626              	.L65:
 446:C:/Users/dtjld/workspace/AIoT/src/LiteOS_Lab/iot_link/network/dtls/mbedtls/mbedtls-2.16.2/library\gcm.c ****     {
 447:C:/Users/dtjld/workspace/AIoT/src/LiteOS_Lab/iot_link/network/dtls/mbedtls/mbedtls-2.16.2/library\gcm.c ****         memset( work_buf, 0x00, 16 );
 1627              		.loc 1 447 0 is_stmt 1
 1628 007c 07F11003 		add	r3, r7, #16
 1629 0080 1022     		movs	r2, #16
 1630 0082 0021     		movs	r1, #0
 1631 0084 1846     		mov	r0, r3
 1632 0086 FFF7FEFF 		bl	memset
 448:C:/Users/dtjld/workspace/AIoT/src/LiteOS_Lab/iot_link/network/dtls/mbedtls/mbedtls-2.16.2/library\gcm.c **** 
 449:C:/Users/dtjld/workspace/AIoT/src/LiteOS_Lab/iot_link/network/dtls/mbedtls/mbedtls-2.16.2/library\gcm.c ****         PUT_UINT32_BE( ( orig_add_len >> 32 ), work_buf, 0  );
 1633              		.loc 1 449 0
 1634 008a D7E90812 		ldrd	r1, [r7, #32]
 1635 008e 4FF00003 		mov	r3, #0
 1636 0092 4FF00004 		mov	r4, #0
 1637 0096 130E     		lsrs	r3, r2, #24
 1638 0098 0024     		movs	r4, #0
 1639 009a DBB2     		uxtb	r3, r3
 1640 009c 3B74     		strb	r3, [r7, #16]
 1641 009e D7E90812 		ldrd	r1, [r7, #32]
 1642 00a2 4FF00003 		mov	r3, #0
 1643 00a6 4FF00004 		mov	r4, #0
 1644 00aa 130C     		lsrs	r3, r2, #16
 1645 00ac 0024     		movs	r4, #0
 1646 00ae DBB2     		uxtb	r3, r3
 1647 00b0 7B74     		strb	r3, [r7, #17]
 1648 00b2 D7E90812 		ldrd	r1, [r7, #32]
 1649 00b6 4FF00003 		mov	r3, #0
 1650 00ba 4FF00004 		mov	r4, #0
 1651 00be 130A     		lsrs	r3, r2, #8
ARM GAS  C:\Users\dtjld\AppData\Local\Temp\ccrYdj6j.s 			page 38


 1652 00c0 0024     		movs	r4, #0
 1653 00c2 DBB2     		uxtb	r3, r3
 1654 00c4 BB74     		strb	r3, [r7, #18]
 1655 00c6 D7E90812 		ldrd	r1, [r7, #32]
 1656 00ca 4FF00003 		mov	r3, #0
 1657 00ce 4FF00004 		mov	r4, #0
 1658 00d2 1300     		movs	r3, r2
 1659 00d4 0024     		movs	r4, #0
 1660 00d6 DBB2     		uxtb	r3, r3
 1661 00d8 FB74     		strb	r3, [r7, #19]
 450:C:/Users/dtjld/workspace/AIoT/src/LiteOS_Lab/iot_link/network/dtls/mbedtls/mbedtls-2.16.2/library\gcm.c ****         PUT_UINT32_BE( ( orig_add_len       ), work_buf, 4  );
 1662              		.loc 1 450 0
 1663 00da D7E90812 		ldrd	r1, [r7, #32]
 1664 00de 4FF00003 		mov	r3, #0
 1665 00e2 4FF00004 		mov	r4, #0
 1666 00e6 0B0E     		lsrs	r3, r1, #24
 1667 00e8 43EA0223 		orr	r3, r3, r2, lsl #8
 1668 00ec 140E     		lsrs	r4, r2, #24
 1669 00ee DBB2     		uxtb	r3, r3
 1670 00f0 3B75     		strb	r3, [r7, #20]
 1671 00f2 D7E90812 		ldrd	r1, [r7, #32]
 1672 00f6 4FF00003 		mov	r3, #0
 1673 00fa 4FF00004 		mov	r4, #0
 1674 00fe 0B0C     		lsrs	r3, r1, #16
 1675 0100 43EA0243 		orr	r3, r3, r2, lsl #16
 1676 0104 140C     		lsrs	r4, r2, #16
 1677 0106 DBB2     		uxtb	r3, r3
 1678 0108 7B75     		strb	r3, [r7, #21]
 1679 010a D7E90812 		ldrd	r1, [r7, #32]
 1680 010e 4FF00003 		mov	r3, #0
 1681 0112 4FF00004 		mov	r4, #0
 1682 0116 0B0A     		lsrs	r3, r1, #8
 1683 0118 43EA0263 		orr	r3, r3, r2, lsl #24
 1684 011c 140A     		lsrs	r4, r2, #8
 1685 011e DBB2     		uxtb	r3, r3
 1686 0120 BB75     		strb	r3, [r7, #22]
 1687 0122 97F82030 		ldrb	r3, [r7, #32]	@ zero_extendqisi2
 1688 0126 FB75     		strb	r3, [r7, #23]
 451:C:/Users/dtjld/workspace/AIoT/src/LiteOS_Lab/iot_link/network/dtls/mbedtls/mbedtls-2.16.2/library\gcm.c ****         PUT_UINT32_BE( ( orig_len     >> 32 ), work_buf, 8  );
 1689              		.loc 1 451 0
 1690 0128 D7E90A12 		ldrd	r1, [r7, #40]
 1691 012c 4FF00003 		mov	r3, #0
 1692 0130 4FF00004 		mov	r4, #0
 1693 0134 130E     		lsrs	r3, r2, #24
 1694 0136 0024     		movs	r4, #0
 1695 0138 DBB2     		uxtb	r3, r3
 1696 013a 3B76     		strb	r3, [r7, #24]
 1697 013c D7E90A12 		ldrd	r1, [r7, #40]
 1698 0140 4FF00003 		mov	r3, #0
 1699 0144 4FF00004 		mov	r4, #0
 1700 0148 130C     		lsrs	r3, r2, #16
 1701 014a 0024     		movs	r4, #0
 1702 014c DBB2     		uxtb	r3, r3
 1703 014e 7B76     		strb	r3, [r7, #25]
 1704 0150 D7E90A12 		ldrd	r1, [r7, #40]
 1705 0154 4FF00003 		mov	r3, #0
 1706 0158 4FF00004 		mov	r4, #0
ARM GAS  C:\Users\dtjld\AppData\Local\Temp\ccrYdj6j.s 			page 39


 1707 015c 130A     		lsrs	r3, r2, #8
 1708 015e 0024     		movs	r4, #0
 1709 0160 DBB2     		uxtb	r3, r3
 1710 0162 BB76     		strb	r3, [r7, #26]
 1711 0164 D7E90A12 		ldrd	r1, [r7, #40]
 1712 0168 4FF00003 		mov	r3, #0
 1713 016c 4FF00004 		mov	r4, #0
 1714 0170 1300     		movs	r3, r2
 1715 0172 0024     		movs	r4, #0
 1716 0174 DBB2     		uxtb	r3, r3
 1717 0176 FB76     		strb	r3, [r7, #27]
 452:C:/Users/dtjld/workspace/AIoT/src/LiteOS_Lab/iot_link/network/dtls/mbedtls/mbedtls-2.16.2/library\gcm.c ****         PUT_UINT32_BE( ( orig_len           ), work_buf, 12 );
 1718              		.loc 1 452 0
 1719 0178 D7E90A12 		ldrd	r1, [r7, #40]
 1720 017c 4FF00003 		mov	r3, #0
 1721 0180 4FF00004 		mov	r4, #0
 1722 0184 0B0E     		lsrs	r3, r1, #24
 1723 0186 43EA0223 		orr	r3, r3, r2, lsl #8
 1724 018a 140E     		lsrs	r4, r2, #24
 1725 018c DBB2     		uxtb	r3, r3
 1726 018e 3B77     		strb	r3, [r7, #28]
 1727 0190 D7E90A12 		ldrd	r1, [r7, #40]
 1728 0194 4FF00003 		mov	r3, #0
 1729 0198 4FF00004 		mov	r4, #0
 1730 019c 0B0C     		lsrs	r3, r1, #16
 1731 019e 43EA0243 		orr	r3, r3, r2, lsl #16
 1732 01a2 140C     		lsrs	r4, r2, #16
 1733 01a4 DBB2     		uxtb	r3, r3
 1734 01a6 7B77     		strb	r3, [r7, #29]
 1735 01a8 D7E90A12 		ldrd	r1, [r7, #40]
 1736 01ac 4FF00003 		mov	r3, #0
 1737 01b0 4FF00004 		mov	r4, #0
 1738 01b4 0B0A     		lsrs	r3, r1, #8
 1739 01b6 43EA0263 		orr	r3, r3, r2, lsl #24
 1740 01ba 140A     		lsrs	r4, r2, #8
 1741 01bc DBB2     		uxtb	r3, r3
 1742 01be BB77     		strb	r3, [r7, #30]
 1743 01c0 97F82830 		ldrb	r3, [r7, #40]	@ zero_extendqisi2
 1744 01c4 FB77     		strb	r3, [r7, #31]
 453:C:/Users/dtjld/workspace/AIoT/src/LiteOS_Lab/iot_link/network/dtls/mbedtls/mbedtls-2.16.2/library\gcm.c **** 
 454:C:/Users/dtjld/workspace/AIoT/src/LiteOS_Lab/iot_link/network/dtls/mbedtls/mbedtls-2.16.2/library\gcm.c ****         for( i = 0; i < 16; i++ )
 1745              		.loc 1 454 0
 1746 01c6 0023     		movs	r3, #0
 1747 01c8 7B63     		str	r3, [r7, #52]
 1748 01ca 16E0     		b	.L67
 1749              	.L68:
 455:C:/Users/dtjld/workspace/AIoT/src/LiteOS_Lab/iot_link/network/dtls/mbedtls/mbedtls-2.16.2/library\gcm.c ****             ctx->buf[i] ^= work_buf[i];
 1750              		.loc 1 455 0 discriminator 3
 1751 01cc FA68     		ldr	r2, [r7, #12]
 1752 01ce 7B6B     		ldr	r3, [r7, #52]
 1753 01d0 1344     		add	r3, r3, r2
 1754 01d2 03F5B873 		add	r3, r3, #368
 1755 01d6 1A78     		ldrb	r2, [r3]	@ zero_extendqisi2
 1756 01d8 07F11001 		add	r1, r7, #16
 1757 01dc 7B6B     		ldr	r3, [r7, #52]
 1758 01de 0B44     		add	r3, r3, r1
 1759 01e0 1B78     		ldrb	r3, [r3]	@ zero_extendqisi2
ARM GAS  C:\Users\dtjld\AppData\Local\Temp\ccrYdj6j.s 			page 40


 1760 01e2 5340     		eors	r3, r3, r2
 1761 01e4 D9B2     		uxtb	r1, r3
 1762 01e6 FA68     		ldr	r2, [r7, #12]
 1763 01e8 7B6B     		ldr	r3, [r7, #52]
 1764 01ea 1344     		add	r3, r3, r2
 1765 01ec 03F5B873 		add	r3, r3, #368
 1766 01f0 0A46     		mov	r2, r1
 1767 01f2 1A70     		strb	r2, [r3]
 454:C:/Users/dtjld/workspace/AIoT/src/LiteOS_Lab/iot_link/network/dtls/mbedtls/mbedtls-2.16.2/library\gcm.c ****             ctx->buf[i] ^= work_buf[i];
 1768              		.loc 1 454 0 discriminator 3
 1769 01f4 7B6B     		ldr	r3, [r7, #52]
 1770 01f6 0133     		adds	r3, r3, #1
 1771 01f8 7B63     		str	r3, [r7, #52]
 1772              	.L67:
 454:C:/Users/dtjld/workspace/AIoT/src/LiteOS_Lab/iot_link/network/dtls/mbedtls/mbedtls-2.16.2/library\gcm.c ****             ctx->buf[i] ^= work_buf[i];
 1773              		.loc 1 454 0 is_stmt 0 discriminator 1
 1774 01fa 7B6B     		ldr	r3, [r7, #52]
 1775 01fc 0F2B     		cmp	r3, #15
 1776 01fe E5D9     		bls	.L68
 456:C:/Users/dtjld/workspace/AIoT/src/LiteOS_Lab/iot_link/network/dtls/mbedtls/mbedtls-2.16.2/library\gcm.c **** 
 457:C:/Users/dtjld/workspace/AIoT/src/LiteOS_Lab/iot_link/network/dtls/mbedtls/mbedtls-2.16.2/library\gcm.c ****         gcm_mult( ctx, ctx->buf, ctx->buf );
 1777              		.loc 1 457 0 is_stmt 1
 1778 0200 FB68     		ldr	r3, [r7, #12]
 1779 0202 03F5B871 		add	r1, r3, #368
 1780 0206 FB68     		ldr	r3, [r7, #12]
 1781 0208 03F5B873 		add	r3, r3, #368
 1782 020c 1A46     		mov	r2, r3
 1783 020e F868     		ldr	r0, [r7, #12]
 1784 0210 FFF7FEFF 		bl	gcm_mult
 458:C:/Users/dtjld/workspace/AIoT/src/LiteOS_Lab/iot_link/network/dtls/mbedtls/mbedtls-2.16.2/library\gcm.c **** 
 459:C:/Users/dtjld/workspace/AIoT/src/LiteOS_Lab/iot_link/network/dtls/mbedtls/mbedtls-2.16.2/library\gcm.c ****         for( i = 0; i < tag_len; i++ )
 1785              		.loc 1 459 0
 1786 0214 0023     		movs	r3, #0
 1787 0216 7B63     		str	r3, [r7, #52]
 1788 0218 12E0     		b	.L69
 1789              	.L70:
 460:C:/Users/dtjld/workspace/AIoT/src/LiteOS_Lab/iot_link/network/dtls/mbedtls/mbedtls-2.16.2/library\gcm.c ****             tag[i] ^= ctx->buf[i];
 1790              		.loc 1 460 0 discriminator 3
 1791 021a BA68     		ldr	r2, [r7, #8]
 1792 021c 7B6B     		ldr	r3, [r7, #52]
 1793 021e 1344     		add	r3, r3, r2
 1794 0220 1978     		ldrb	r1, [r3]	@ zero_extendqisi2
 1795 0222 FA68     		ldr	r2, [r7, #12]
 1796 0224 7B6B     		ldr	r3, [r7, #52]
 1797 0226 1344     		add	r3, r3, r2
 1798 0228 03F5B873 		add	r3, r3, #368
 1799 022c 1A78     		ldrb	r2, [r3]	@ zero_extendqisi2
 1800 022e B868     		ldr	r0, [r7, #8]
 1801 0230 7B6B     		ldr	r3, [r7, #52]
 1802 0232 0344     		add	r3, r3, r0
 1803 0234 4A40     		eors	r2, r2, r1
 1804 0236 D2B2     		uxtb	r2, r2
 1805 0238 1A70     		strb	r2, [r3]
 459:C:/Users/dtjld/workspace/AIoT/src/LiteOS_Lab/iot_link/network/dtls/mbedtls/mbedtls-2.16.2/library\gcm.c ****             tag[i] ^= ctx->buf[i];
 1806              		.loc 1 459 0 discriminator 3
 1807 023a 7B6B     		ldr	r3, [r7, #52]
 1808 023c 0133     		adds	r3, r3, #1
ARM GAS  C:\Users\dtjld\AppData\Local\Temp\ccrYdj6j.s 			page 41


 1809 023e 7B63     		str	r3, [r7, #52]
 1810              	.L69:
 459:C:/Users/dtjld/workspace/AIoT/src/LiteOS_Lab/iot_link/network/dtls/mbedtls/mbedtls-2.16.2/library\gcm.c ****             tag[i] ^= ctx->buf[i];
 1811              		.loc 1 459 0 is_stmt 0 discriminator 1
 1812 0240 7A6B     		ldr	r2, [r7, #52]
 1813 0242 7B68     		ldr	r3, [r7, #4]
 1814 0244 9A42     		cmp	r2, r3
 1815 0246 E8D3     		bcc	.L70
 1816              	.L66:
 461:C:/Users/dtjld/workspace/AIoT/src/LiteOS_Lab/iot_link/network/dtls/mbedtls/mbedtls-2.16.2/library\gcm.c ****     }
 462:C:/Users/dtjld/workspace/AIoT/src/LiteOS_Lab/iot_link/network/dtls/mbedtls/mbedtls-2.16.2/library\gcm.c **** 
 463:C:/Users/dtjld/workspace/AIoT/src/LiteOS_Lab/iot_link/network/dtls/mbedtls/mbedtls-2.16.2/library\gcm.c ****     return( 0 );
 1817              		.loc 1 463 0 is_stmt 1
 1818 0248 0023     		movs	r3, #0
 1819              	.L71:
 464:C:/Users/dtjld/workspace/AIoT/src/LiteOS_Lab/iot_link/network/dtls/mbedtls/mbedtls-2.16.2/library\gcm.c **** }
 1820              		.loc 1 464 0 discriminator 1
 1821 024a 1846     		mov	r0, r3
 1822 024c 3C37     		adds	r7, r7, #60
 1823              	.LCFI34:
 1824              		.cfi_def_cfa_offset 12
 1825 024e BD46     		mov	sp, r7
 1826              	.LCFI35:
 1827              		.cfi_def_cfa_register 13
 1828              		@ sp needed
 1829 0250 90BD     		pop	{r4, r7, pc}
 1830              		.cfi_endproc
 1831              	.LFE16:
 1833              		.section	.text.mbedtls_gcm_crypt_and_tag,"ax",%progbits
 1834              		.align	1
 1835              		.global	mbedtls_gcm_crypt_and_tag
 1836              		.syntax unified
 1837              		.thumb
 1838              		.thumb_func
 1839              		.fpu fpv4-sp-d16
 1841              	mbedtls_gcm_crypt_and_tag:
 1842              	.LFB17:
 465:C:/Users/dtjld/workspace/AIoT/src/LiteOS_Lab/iot_link/network/dtls/mbedtls/mbedtls-2.16.2/library\gcm.c **** 
 466:C:/Users/dtjld/workspace/AIoT/src/LiteOS_Lab/iot_link/network/dtls/mbedtls/mbedtls-2.16.2/library\gcm.c **** int mbedtls_gcm_crypt_and_tag( mbedtls_gcm_context *ctx,
 467:C:/Users/dtjld/workspace/AIoT/src/LiteOS_Lab/iot_link/network/dtls/mbedtls/mbedtls-2.16.2/library\gcm.c ****                        int mode,
 468:C:/Users/dtjld/workspace/AIoT/src/LiteOS_Lab/iot_link/network/dtls/mbedtls/mbedtls-2.16.2/library\gcm.c ****                        size_t length,
 469:C:/Users/dtjld/workspace/AIoT/src/LiteOS_Lab/iot_link/network/dtls/mbedtls/mbedtls-2.16.2/library\gcm.c ****                        const unsigned char *iv,
 470:C:/Users/dtjld/workspace/AIoT/src/LiteOS_Lab/iot_link/network/dtls/mbedtls/mbedtls-2.16.2/library\gcm.c ****                        size_t iv_len,
 471:C:/Users/dtjld/workspace/AIoT/src/LiteOS_Lab/iot_link/network/dtls/mbedtls/mbedtls-2.16.2/library\gcm.c ****                        const unsigned char *add,
 472:C:/Users/dtjld/workspace/AIoT/src/LiteOS_Lab/iot_link/network/dtls/mbedtls/mbedtls-2.16.2/library\gcm.c ****                        size_t add_len,
 473:C:/Users/dtjld/workspace/AIoT/src/LiteOS_Lab/iot_link/network/dtls/mbedtls/mbedtls-2.16.2/library\gcm.c ****                        const unsigned char *input,
 474:C:/Users/dtjld/workspace/AIoT/src/LiteOS_Lab/iot_link/network/dtls/mbedtls/mbedtls-2.16.2/library\gcm.c ****                        unsigned char *output,
 475:C:/Users/dtjld/workspace/AIoT/src/LiteOS_Lab/iot_link/network/dtls/mbedtls/mbedtls-2.16.2/library\gcm.c ****                        size_t tag_len,
 476:C:/Users/dtjld/workspace/AIoT/src/LiteOS_Lab/iot_link/network/dtls/mbedtls/mbedtls-2.16.2/library\gcm.c ****                        unsigned char *tag )
 477:C:/Users/dtjld/workspace/AIoT/src/LiteOS_Lab/iot_link/network/dtls/mbedtls/mbedtls-2.16.2/library\gcm.c **** {
 1843              		.loc 1 477 0
 1844              		.cfi_startproc
 1845              		@ args = 28, pretend = 0, frame = 24
 1846              		@ frame_needed = 1, uses_anonymous_args = 0
 1847 0000 80B5     		push	{r7, lr}
 1848              	.LCFI36:
 1849              		.cfi_def_cfa_offset 8
ARM GAS  C:\Users\dtjld\AppData\Local\Temp\ccrYdj6j.s 			page 42


 1850              		.cfi_offset 7, -8
 1851              		.cfi_offset 14, -4
 1852 0002 88B0     		sub	sp, sp, #32
 1853              	.LCFI37:
 1854              		.cfi_def_cfa_offset 40
 1855 0004 02AF     		add	r7, sp, #8
 1856              	.LCFI38:
 1857              		.cfi_def_cfa 7, 32
 1858 0006 F860     		str	r0, [r7, #12]
 1859 0008 B960     		str	r1, [r7, #8]
 1860 000a 7A60     		str	r2, [r7, #4]
 1861 000c 3B60     		str	r3, [r7]
 478:C:/Users/dtjld/workspace/AIoT/src/LiteOS_Lab/iot_link/network/dtls/mbedtls/mbedtls-2.16.2/library\gcm.c ****     int ret;
 479:C:/Users/dtjld/workspace/AIoT/src/LiteOS_Lab/iot_link/network/dtls/mbedtls/mbedtls-2.16.2/library\gcm.c **** 
 480:C:/Users/dtjld/workspace/AIoT/src/LiteOS_Lab/iot_link/network/dtls/mbedtls/mbedtls-2.16.2/library\gcm.c ****     GCM_VALIDATE_RET( ctx != NULL );
 481:C:/Users/dtjld/workspace/AIoT/src/LiteOS_Lab/iot_link/network/dtls/mbedtls/mbedtls-2.16.2/library\gcm.c ****     GCM_VALIDATE_RET( iv != NULL );
 482:C:/Users/dtjld/workspace/AIoT/src/LiteOS_Lab/iot_link/network/dtls/mbedtls/mbedtls-2.16.2/library\gcm.c ****     GCM_VALIDATE_RET( add_len == 0 || add != NULL );
 483:C:/Users/dtjld/workspace/AIoT/src/LiteOS_Lab/iot_link/network/dtls/mbedtls/mbedtls-2.16.2/library\gcm.c ****     GCM_VALIDATE_RET( length == 0 || input != NULL );
 484:C:/Users/dtjld/workspace/AIoT/src/LiteOS_Lab/iot_link/network/dtls/mbedtls/mbedtls-2.16.2/library\gcm.c ****     GCM_VALIDATE_RET( length == 0 || output != NULL );
 485:C:/Users/dtjld/workspace/AIoT/src/LiteOS_Lab/iot_link/network/dtls/mbedtls/mbedtls-2.16.2/library\gcm.c ****     GCM_VALIDATE_RET( tag != NULL );
 486:C:/Users/dtjld/workspace/AIoT/src/LiteOS_Lab/iot_link/network/dtls/mbedtls/mbedtls-2.16.2/library\gcm.c **** 
 487:C:/Users/dtjld/workspace/AIoT/src/LiteOS_Lab/iot_link/network/dtls/mbedtls/mbedtls-2.16.2/library\gcm.c ****     if( ( ret = mbedtls_gcm_starts( ctx, mode, iv, iv_len, add, add_len ) ) != 0 )
 1862              		.loc 1 487 0
 1863 000e BB6A     		ldr	r3, [r7, #40]
 1864 0010 0193     		str	r3, [sp, #4]
 1865 0012 7B6A     		ldr	r3, [r7, #36]
 1866 0014 0093     		str	r3, [sp]
 1867 0016 3B6A     		ldr	r3, [r7, #32]
 1868 0018 3A68     		ldr	r2, [r7]
 1869 001a B968     		ldr	r1, [r7, #8]
 1870 001c F868     		ldr	r0, [r7, #12]
 1871 001e FFF7FEFF 		bl	mbedtls_gcm_starts
 1872 0022 7861     		str	r0, [r7, #20]
 1873 0024 7B69     		ldr	r3, [r7, #20]
 1874 0026 002B     		cmp	r3, #0
 1875 0028 01D0     		beq	.L73
 488:C:/Users/dtjld/workspace/AIoT/src/LiteOS_Lab/iot_link/network/dtls/mbedtls/mbedtls-2.16.2/library\gcm.c ****         return( ret );
 1876              		.loc 1 488 0
 1877 002a 7B69     		ldr	r3, [r7, #20]
 1878 002c 17E0     		b	.L74
 1879              	.L73:
 489:C:/Users/dtjld/workspace/AIoT/src/LiteOS_Lab/iot_link/network/dtls/mbedtls/mbedtls-2.16.2/library\gcm.c **** 
 490:C:/Users/dtjld/workspace/AIoT/src/LiteOS_Lab/iot_link/network/dtls/mbedtls/mbedtls-2.16.2/library\gcm.c ****     if( ( ret = mbedtls_gcm_update( ctx, length, input, output ) ) != 0 )
 1880              		.loc 1 490 0
 1881 002e 3B6B     		ldr	r3, [r7, #48]
 1882 0030 FA6A     		ldr	r2, [r7, #44]
 1883 0032 7968     		ldr	r1, [r7, #4]
 1884 0034 F868     		ldr	r0, [r7, #12]
 1885 0036 FFF7FEFF 		bl	mbedtls_gcm_update
 1886 003a 7861     		str	r0, [r7, #20]
 1887 003c 7B69     		ldr	r3, [r7, #20]
 1888 003e 002B     		cmp	r3, #0
 1889 0040 01D0     		beq	.L75
 491:C:/Users/dtjld/workspace/AIoT/src/LiteOS_Lab/iot_link/network/dtls/mbedtls/mbedtls-2.16.2/library\gcm.c ****         return( ret );
 1890              		.loc 1 491 0
 1891 0042 7B69     		ldr	r3, [r7, #20]
 1892 0044 0BE0     		b	.L74
ARM GAS  C:\Users\dtjld\AppData\Local\Temp\ccrYdj6j.s 			page 43


 1893              	.L75:
 492:C:/Users/dtjld/workspace/AIoT/src/LiteOS_Lab/iot_link/network/dtls/mbedtls/mbedtls-2.16.2/library\gcm.c **** 
 493:C:/Users/dtjld/workspace/AIoT/src/LiteOS_Lab/iot_link/network/dtls/mbedtls/mbedtls-2.16.2/library\gcm.c ****     if( ( ret = mbedtls_gcm_finish( ctx, tag, tag_len ) ) != 0 )
 1894              		.loc 1 493 0
 1895 0046 7A6B     		ldr	r2, [r7, #52]
 1896 0048 B96B     		ldr	r1, [r7, #56]
 1897 004a F868     		ldr	r0, [r7, #12]
 1898 004c FFF7FEFF 		bl	mbedtls_gcm_finish
 1899 0050 7861     		str	r0, [r7, #20]
 1900 0052 7B69     		ldr	r3, [r7, #20]
 1901 0054 002B     		cmp	r3, #0
 1902 0056 01D0     		beq	.L76
 494:C:/Users/dtjld/workspace/AIoT/src/LiteOS_Lab/iot_link/network/dtls/mbedtls/mbedtls-2.16.2/library\gcm.c ****         return( ret );
 1903              		.loc 1 494 0
 1904 0058 7B69     		ldr	r3, [r7, #20]
 1905 005a 00E0     		b	.L74
 1906              	.L76:
 495:C:/Users/dtjld/workspace/AIoT/src/LiteOS_Lab/iot_link/network/dtls/mbedtls/mbedtls-2.16.2/library\gcm.c **** 
 496:C:/Users/dtjld/workspace/AIoT/src/LiteOS_Lab/iot_link/network/dtls/mbedtls/mbedtls-2.16.2/library\gcm.c ****     return( 0 );
 1907              		.loc 1 496 0
 1908 005c 0023     		movs	r3, #0
 1909              	.L74:
 497:C:/Users/dtjld/workspace/AIoT/src/LiteOS_Lab/iot_link/network/dtls/mbedtls/mbedtls-2.16.2/library\gcm.c **** }
 1910              		.loc 1 497 0
 1911 005e 1846     		mov	r0, r3
 1912 0060 1837     		adds	r7, r7, #24
 1913              	.LCFI39:
 1914              		.cfi_def_cfa_offset 8
 1915 0062 BD46     		mov	sp, r7
 1916              	.LCFI40:
 1917              		.cfi_def_cfa_register 13
 1918              		@ sp needed
 1919 0064 80BD     		pop	{r7, pc}
 1920              		.cfi_endproc
 1921              	.LFE17:
 1923              		.section	.text.mbedtls_gcm_auth_decrypt,"ax",%progbits
 1924              		.align	1
 1925              		.global	mbedtls_gcm_auth_decrypt
 1926              		.syntax unified
 1927              		.thumb
 1928              		.thumb_func
 1929              		.fpu fpv4-sp-d16
 1931              	mbedtls_gcm_auth_decrypt:
 1932              	.LFB18:
 498:C:/Users/dtjld/workspace/AIoT/src/LiteOS_Lab/iot_link/network/dtls/mbedtls/mbedtls-2.16.2/library\gcm.c **** 
 499:C:/Users/dtjld/workspace/AIoT/src/LiteOS_Lab/iot_link/network/dtls/mbedtls/mbedtls-2.16.2/library\gcm.c **** int mbedtls_gcm_auth_decrypt( mbedtls_gcm_context *ctx,
 500:C:/Users/dtjld/workspace/AIoT/src/LiteOS_Lab/iot_link/network/dtls/mbedtls/mbedtls-2.16.2/library\gcm.c ****                       size_t length,
 501:C:/Users/dtjld/workspace/AIoT/src/LiteOS_Lab/iot_link/network/dtls/mbedtls/mbedtls-2.16.2/library\gcm.c ****                       const unsigned char *iv,
 502:C:/Users/dtjld/workspace/AIoT/src/LiteOS_Lab/iot_link/network/dtls/mbedtls/mbedtls-2.16.2/library\gcm.c ****                       size_t iv_len,
 503:C:/Users/dtjld/workspace/AIoT/src/LiteOS_Lab/iot_link/network/dtls/mbedtls/mbedtls-2.16.2/library\gcm.c ****                       const unsigned char *add,
 504:C:/Users/dtjld/workspace/AIoT/src/LiteOS_Lab/iot_link/network/dtls/mbedtls/mbedtls-2.16.2/library\gcm.c ****                       size_t add_len,
 505:C:/Users/dtjld/workspace/AIoT/src/LiteOS_Lab/iot_link/network/dtls/mbedtls/mbedtls-2.16.2/library\gcm.c ****                       const unsigned char *tag,
 506:C:/Users/dtjld/workspace/AIoT/src/LiteOS_Lab/iot_link/network/dtls/mbedtls/mbedtls-2.16.2/library\gcm.c ****                       size_t tag_len,
 507:C:/Users/dtjld/workspace/AIoT/src/LiteOS_Lab/iot_link/network/dtls/mbedtls/mbedtls-2.16.2/library\gcm.c ****                       const unsigned char *input,
 508:C:/Users/dtjld/workspace/AIoT/src/LiteOS_Lab/iot_link/network/dtls/mbedtls/mbedtls-2.16.2/library\gcm.c ****                       unsigned char *output )
 509:C:/Users/dtjld/workspace/AIoT/src/LiteOS_Lab/iot_link/network/dtls/mbedtls/mbedtls-2.16.2/library\gcm.c **** {
 1933              		.loc 1 509 0
ARM GAS  C:\Users\dtjld\AppData\Local\Temp\ccrYdj6j.s 			page 44


 1934              		.cfi_startproc
 1935              		@ args = 24, pretend = 0, frame = 48
 1936              		@ frame_needed = 1, uses_anonymous_args = 0
 1937 0000 80B5     		push	{r7, lr}
 1938              	.LCFI41:
 1939              		.cfi_def_cfa_offset 8
 1940              		.cfi_offset 7, -8
 1941              		.cfi_offset 14, -4
 1942 0002 94B0     		sub	sp, sp, #80
 1943              	.LCFI42:
 1944              		.cfi_def_cfa_offset 88
 1945 0004 08AF     		add	r7, sp, #32
 1946              	.LCFI43:
 1947              		.cfi_def_cfa 7, 56
 1948 0006 F860     		str	r0, [r7, #12]
 1949 0008 B960     		str	r1, [r7, #8]
 1950 000a 7A60     		str	r2, [r7, #4]
 1951 000c 3B60     		str	r3, [r7]
 510:C:/Users/dtjld/workspace/AIoT/src/LiteOS_Lab/iot_link/network/dtls/mbedtls/mbedtls-2.16.2/library\gcm.c ****     int ret;
 511:C:/Users/dtjld/workspace/AIoT/src/LiteOS_Lab/iot_link/network/dtls/mbedtls/mbedtls-2.16.2/library\gcm.c ****     unsigned char check_tag[16];
 512:C:/Users/dtjld/workspace/AIoT/src/LiteOS_Lab/iot_link/network/dtls/mbedtls/mbedtls-2.16.2/library\gcm.c ****     size_t i;
 513:C:/Users/dtjld/workspace/AIoT/src/LiteOS_Lab/iot_link/network/dtls/mbedtls/mbedtls-2.16.2/library\gcm.c ****     int diff;
 514:C:/Users/dtjld/workspace/AIoT/src/LiteOS_Lab/iot_link/network/dtls/mbedtls/mbedtls-2.16.2/library\gcm.c **** 
 515:C:/Users/dtjld/workspace/AIoT/src/LiteOS_Lab/iot_link/network/dtls/mbedtls/mbedtls-2.16.2/library\gcm.c ****     GCM_VALIDATE_RET( ctx != NULL );
 516:C:/Users/dtjld/workspace/AIoT/src/LiteOS_Lab/iot_link/network/dtls/mbedtls/mbedtls-2.16.2/library\gcm.c ****     GCM_VALIDATE_RET( iv != NULL );
 517:C:/Users/dtjld/workspace/AIoT/src/LiteOS_Lab/iot_link/network/dtls/mbedtls/mbedtls-2.16.2/library\gcm.c ****     GCM_VALIDATE_RET( add_len == 0 || add != NULL );
 518:C:/Users/dtjld/workspace/AIoT/src/LiteOS_Lab/iot_link/network/dtls/mbedtls/mbedtls-2.16.2/library\gcm.c ****     GCM_VALIDATE_RET( tag != NULL );
 519:C:/Users/dtjld/workspace/AIoT/src/LiteOS_Lab/iot_link/network/dtls/mbedtls/mbedtls-2.16.2/library\gcm.c ****     GCM_VALIDATE_RET( length == 0 || input != NULL );
 520:C:/Users/dtjld/workspace/AIoT/src/LiteOS_Lab/iot_link/network/dtls/mbedtls/mbedtls-2.16.2/library\gcm.c ****     GCM_VALIDATE_RET( length == 0 || output != NULL );
 521:C:/Users/dtjld/workspace/AIoT/src/LiteOS_Lab/iot_link/network/dtls/mbedtls/mbedtls-2.16.2/library\gcm.c **** 
 522:C:/Users/dtjld/workspace/AIoT/src/LiteOS_Lab/iot_link/network/dtls/mbedtls/mbedtls-2.16.2/library\gcm.c ****     if( ( ret = mbedtls_gcm_crypt_and_tag( ctx, MBEDTLS_GCM_DECRYPT, length,
 1952              		.loc 1 522 0
 1953 000e 07F11403 		add	r3, r7, #20
 1954 0012 0693     		str	r3, [sp, #24]
 1955 0014 7B6C     		ldr	r3, [r7, #68]
 1956 0016 0593     		str	r3, [sp, #20]
 1957 0018 FB6C     		ldr	r3, [r7, #76]
 1958 001a 0493     		str	r3, [sp, #16]
 1959 001c BB6C     		ldr	r3, [r7, #72]
 1960 001e 0393     		str	r3, [sp, #12]
 1961 0020 FB6B     		ldr	r3, [r7, #60]
 1962 0022 0293     		str	r3, [sp, #8]
 1963 0024 BB6B     		ldr	r3, [r7, #56]
 1964 0026 0193     		str	r3, [sp, #4]
 1965 0028 3B68     		ldr	r3, [r7]
 1966 002a 0093     		str	r3, [sp]
 1967 002c 7B68     		ldr	r3, [r7, #4]
 1968 002e BA68     		ldr	r2, [r7, #8]
 1969 0030 0021     		movs	r1, #0
 1970 0032 F868     		ldr	r0, [r7, #12]
 1971 0034 FFF7FEFF 		bl	mbedtls_gcm_crypt_and_tag
 1972 0038 7862     		str	r0, [r7, #36]
 1973 003a 7B6A     		ldr	r3, [r7, #36]
 1974 003c 002B     		cmp	r3, #0
 1975 003e 01D0     		beq	.L78
 523:C:/Users/dtjld/workspace/AIoT/src/LiteOS_Lab/iot_link/network/dtls/mbedtls/mbedtls-2.16.2/library\gcm.c ****                                    iv, iv_len, add, add_len,
 524:C:/Users/dtjld/workspace/AIoT/src/LiteOS_Lab/iot_link/network/dtls/mbedtls/mbedtls-2.16.2/library\gcm.c ****                                    input, output, tag_len, check_tag ) ) != 0 )
ARM GAS  C:\Users\dtjld\AppData\Local\Temp\ccrYdj6j.s 			page 45


 525:C:/Users/dtjld/workspace/AIoT/src/LiteOS_Lab/iot_link/network/dtls/mbedtls/mbedtls-2.16.2/library\gcm.c ****     {
 526:C:/Users/dtjld/workspace/AIoT/src/LiteOS_Lab/iot_link/network/dtls/mbedtls/mbedtls-2.16.2/library\gcm.c ****         return( ret );
 1976              		.loc 1 526 0
 1977 0040 7B6A     		ldr	r3, [r7, #36]
 1978 0042 25E0     		b	.L83
 1979              	.L78:
 527:C:/Users/dtjld/workspace/AIoT/src/LiteOS_Lab/iot_link/network/dtls/mbedtls/mbedtls-2.16.2/library\gcm.c ****     }
 528:C:/Users/dtjld/workspace/AIoT/src/LiteOS_Lab/iot_link/network/dtls/mbedtls/mbedtls-2.16.2/library\gcm.c **** 
 529:C:/Users/dtjld/workspace/AIoT/src/LiteOS_Lab/iot_link/network/dtls/mbedtls/mbedtls-2.16.2/library\gcm.c ****     /* Check tag in "constant-time" */
 530:C:/Users/dtjld/workspace/AIoT/src/LiteOS_Lab/iot_link/network/dtls/mbedtls/mbedtls-2.16.2/library\gcm.c ****     for( diff = 0, i = 0; i < tag_len; i++ )
 1980              		.loc 1 530 0
 1981 0044 0023     		movs	r3, #0
 1982 0046 BB62     		str	r3, [r7, #40]
 1983 0048 0023     		movs	r3, #0
 1984 004a FB62     		str	r3, [r7, #44]
 1985 004c 11E0     		b	.L80
 1986              	.L81:
 531:C:/Users/dtjld/workspace/AIoT/src/LiteOS_Lab/iot_link/network/dtls/mbedtls/mbedtls-2.16.2/library\gcm.c ****         diff |= tag[i] ^ check_tag[i];
 1987              		.loc 1 531 0 discriminator 3
 1988 004e 3A6C     		ldr	r2, [r7, #64]
 1989 0050 FB6A     		ldr	r3, [r7, #44]
 1990 0052 1344     		add	r3, r3, r2
 1991 0054 1A78     		ldrb	r2, [r3]	@ zero_extendqisi2
 1992 0056 07F11401 		add	r1, r7, #20
 1993 005a FB6A     		ldr	r3, [r7, #44]
 1994 005c 0B44     		add	r3, r3, r1
 1995 005e 1B78     		ldrb	r3, [r3]	@ zero_extendqisi2
 1996 0060 5340     		eors	r3, r3, r2
 1997 0062 DBB2     		uxtb	r3, r3
 1998 0064 1A46     		mov	r2, r3
 1999 0066 BB6A     		ldr	r3, [r7, #40]
 2000 0068 1343     		orrs	r3, r3, r2
 2001 006a BB62     		str	r3, [r7, #40]
 530:C:/Users/dtjld/workspace/AIoT/src/LiteOS_Lab/iot_link/network/dtls/mbedtls/mbedtls-2.16.2/library\gcm.c ****         diff |= tag[i] ^ check_tag[i];
 2002              		.loc 1 530 0 discriminator 3
 2003 006c FB6A     		ldr	r3, [r7, #44]
 2004 006e 0133     		adds	r3, r3, #1
 2005 0070 FB62     		str	r3, [r7, #44]
 2006              	.L80:
 530:C:/Users/dtjld/workspace/AIoT/src/LiteOS_Lab/iot_link/network/dtls/mbedtls/mbedtls-2.16.2/library\gcm.c ****         diff |= tag[i] ^ check_tag[i];
 2007              		.loc 1 530 0 is_stmt 0 discriminator 1
 2008 0072 FA6A     		ldr	r2, [r7, #44]
 2009 0074 7B6C     		ldr	r3, [r7, #68]
 2010 0076 9A42     		cmp	r2, r3
 2011 0078 E9D3     		bcc	.L81
 532:C:/Users/dtjld/workspace/AIoT/src/LiteOS_Lab/iot_link/network/dtls/mbedtls/mbedtls-2.16.2/library\gcm.c **** 
 533:C:/Users/dtjld/workspace/AIoT/src/LiteOS_Lab/iot_link/network/dtls/mbedtls/mbedtls-2.16.2/library\gcm.c ****     if( diff != 0 )
 2012              		.loc 1 533 0 is_stmt 1
 2013 007a BB6A     		ldr	r3, [r7, #40]
 2014 007c 002B     		cmp	r3, #0
 2015 007e 06D0     		beq	.L82
 534:C:/Users/dtjld/workspace/AIoT/src/LiteOS_Lab/iot_link/network/dtls/mbedtls/mbedtls-2.16.2/library\gcm.c ****     {
 535:C:/Users/dtjld/workspace/AIoT/src/LiteOS_Lab/iot_link/network/dtls/mbedtls/mbedtls-2.16.2/library\gcm.c ****         mbedtls_platform_zeroize( output, length );
 2016              		.loc 1 535 0
 2017 0080 B968     		ldr	r1, [r7, #8]
 2018 0082 F86C     		ldr	r0, [r7, #76]
 2019 0084 FFF7FEFF 		bl	mbedtls_platform_zeroize
ARM GAS  C:\Users\dtjld\AppData\Local\Temp\ccrYdj6j.s 			page 46


 536:C:/Users/dtjld/workspace/AIoT/src/LiteOS_Lab/iot_link/network/dtls/mbedtls/mbedtls-2.16.2/library\gcm.c ****         return( MBEDTLS_ERR_GCM_AUTH_FAILED );
 2020              		.loc 1 536 0
 2021 0088 6FF01103 		mvn	r3, #17
 2022 008c 00E0     		b	.L83
 2023              	.L82:
 537:C:/Users/dtjld/workspace/AIoT/src/LiteOS_Lab/iot_link/network/dtls/mbedtls/mbedtls-2.16.2/library\gcm.c ****     }
 538:C:/Users/dtjld/workspace/AIoT/src/LiteOS_Lab/iot_link/network/dtls/mbedtls/mbedtls-2.16.2/library\gcm.c **** 
 539:C:/Users/dtjld/workspace/AIoT/src/LiteOS_Lab/iot_link/network/dtls/mbedtls/mbedtls-2.16.2/library\gcm.c ****     return( 0 );
 2024              		.loc 1 539 0
 2025 008e 0023     		movs	r3, #0
 2026              	.L83:
 540:C:/Users/dtjld/workspace/AIoT/src/LiteOS_Lab/iot_link/network/dtls/mbedtls/mbedtls-2.16.2/library\gcm.c **** }
 2027              		.loc 1 540 0 discriminator 1
 2028 0090 1846     		mov	r0, r3
 2029 0092 3037     		adds	r7, r7, #48
 2030              	.LCFI44:
 2031              		.cfi_def_cfa_offset 8
 2032 0094 BD46     		mov	sp, r7
 2033              	.LCFI45:
 2034              		.cfi_def_cfa_register 13
 2035              		@ sp needed
 2036 0096 80BD     		pop	{r7, pc}
 2037              		.cfi_endproc
 2038              	.LFE18:
 2040              		.section	.text.mbedtls_gcm_free,"ax",%progbits
 2041              		.align	1
 2042              		.global	mbedtls_gcm_free
 2043              		.syntax unified
 2044              		.thumb
 2045              		.thumb_func
 2046              		.fpu fpv4-sp-d16
 2048              	mbedtls_gcm_free:
 2049              	.LFB19:
 541:C:/Users/dtjld/workspace/AIoT/src/LiteOS_Lab/iot_link/network/dtls/mbedtls/mbedtls-2.16.2/library\gcm.c **** 
 542:C:/Users/dtjld/workspace/AIoT/src/LiteOS_Lab/iot_link/network/dtls/mbedtls/mbedtls-2.16.2/library\gcm.c **** void mbedtls_gcm_free( mbedtls_gcm_context *ctx )
 543:C:/Users/dtjld/workspace/AIoT/src/LiteOS_Lab/iot_link/network/dtls/mbedtls/mbedtls-2.16.2/library\gcm.c **** {
 2050              		.loc 1 543 0
 2051              		.cfi_startproc
 2052              		@ args = 0, pretend = 0, frame = 8
 2053              		@ frame_needed = 1, uses_anonymous_args = 0
 2054 0000 80B5     		push	{r7, lr}
 2055              	.LCFI46:
 2056              		.cfi_def_cfa_offset 8
 2057              		.cfi_offset 7, -8
 2058              		.cfi_offset 14, -4
 2059 0002 82B0     		sub	sp, sp, #8
 2060              	.LCFI47:
 2061              		.cfi_def_cfa_offset 16
 2062 0004 00AF     		add	r7, sp, #0
 2063              	.LCFI48:
 2064              		.cfi_def_cfa_register 7
 2065 0006 7860     		str	r0, [r7, #4]
 544:C:/Users/dtjld/workspace/AIoT/src/LiteOS_Lab/iot_link/network/dtls/mbedtls/mbedtls-2.16.2/library\gcm.c ****     if( ctx == NULL )
 2066              		.loc 1 544 0
 2067 0008 7B68     		ldr	r3, [r7, #4]
 2068 000a 002B     		cmp	r3, #0
 2069 000c 09D0     		beq	.L87
ARM GAS  C:\Users\dtjld\AppData\Local\Temp\ccrYdj6j.s 			page 47


 545:C:/Users/dtjld/workspace/AIoT/src/LiteOS_Lab/iot_link/network/dtls/mbedtls/mbedtls-2.16.2/library\gcm.c ****         return;
 546:C:/Users/dtjld/workspace/AIoT/src/LiteOS_Lab/iot_link/network/dtls/mbedtls/mbedtls-2.16.2/library\gcm.c ****     mbedtls_cipher_free( &ctx->cipher_ctx );
 2070              		.loc 1 546 0
 2071 000e 7B68     		ldr	r3, [r7, #4]
 2072 0010 1846     		mov	r0, r3
 2073 0012 FFF7FEFF 		bl	mbedtls_cipher_free
 547:C:/Users/dtjld/workspace/AIoT/src/LiteOS_Lab/iot_link/network/dtls/mbedtls/mbedtls-2.16.2/library\gcm.c ****     mbedtls_platform_zeroize( ctx, sizeof( mbedtls_gcm_context ) );
 2074              		.loc 1 547 0
 2075 0016 4FF4C471 		mov	r1, #392
 2076 001a 7868     		ldr	r0, [r7, #4]
 2077 001c FFF7FEFF 		bl	mbedtls_platform_zeroize
 2078 0020 00E0     		b	.L84
 2079              	.L87:
 545:C:/Users/dtjld/workspace/AIoT/src/LiteOS_Lab/iot_link/network/dtls/mbedtls/mbedtls-2.16.2/library\gcm.c ****         return;
 2080              		.loc 1 545 0
 2081 0022 00BF     		nop
 2082              	.L84:
 548:C:/Users/dtjld/workspace/AIoT/src/LiteOS_Lab/iot_link/network/dtls/mbedtls/mbedtls-2.16.2/library\gcm.c **** }
 2083              		.loc 1 548 0
 2084 0024 0837     		adds	r7, r7, #8
 2085              	.LCFI49:
 2086              		.cfi_def_cfa_offset 8
 2087 0026 BD46     		mov	sp, r7
 2088              	.LCFI50:
 2089              		.cfi_def_cfa_register 13
 2090              		@ sp needed
 2091 0028 80BD     		pop	{r7, pc}
 2092              		.cfi_endproc
 2093              	.LFE19:
 2095              		.section	.rodata.key_index,"a",%progbits
 2096              		.align	2
 2099              	key_index:
 2100 0000 00000000 		.word	0
 2101 0004 00000000 		.word	0
 2102 0008 01000000 		.word	1
 2103 000c 01000000 		.word	1
 2104 0010 01000000 		.word	1
 2105 0014 01000000 		.word	1
 2106              		.section	.rodata.key,"a",%progbits
 2107              		.align	2
 2110              	key:
 2111 0000 00       		.byte	0
 2112 0001 00       		.byte	0
 2113 0002 00       		.byte	0
 2114 0003 00       		.byte	0
 2115 0004 00       		.byte	0
 2116 0005 00       		.byte	0
 2117 0006 00       		.byte	0
 2118 0007 00       		.byte	0
 2119 0008 00       		.byte	0
 2120 0009 00       		.byte	0
 2121 000a 00       		.byte	0
 2122 000b 00       		.byte	0
 2123 000c 00       		.byte	0
 2124 000d 00       		.byte	0
 2125 000e 00       		.byte	0
 2126 000f 00       		.byte	0
ARM GAS  C:\Users\dtjld\AppData\Local\Temp\ccrYdj6j.s 			page 48


 2127 0010 00       		.byte	0
 2128 0011 00       		.byte	0
 2129 0012 00       		.byte	0
 2130 0013 00       		.byte	0
 2131 0014 00       		.byte	0
 2132 0015 00       		.byte	0
 2133 0016 00       		.byte	0
 2134 0017 00       		.byte	0
 2135 0018 00       		.byte	0
 2136 0019 00       		.byte	0
 2137 001a 00       		.byte	0
 2138 001b 00       		.byte	0
 2139 001c 00       		.byte	0
 2140 001d 00       		.byte	0
 2141 001e 00       		.byte	0
 2142 001f 00       		.byte	0
 2143 0020 FE       		.byte	-2
 2144 0021 FF       		.byte	-1
 2145 0022 E9       		.byte	-23
 2146 0023 92       		.byte	-110
 2147 0024 86       		.byte	-122
 2148 0025 65       		.byte	101
 2149 0026 73       		.byte	115
 2150 0027 1C       		.byte	28
 2151 0028 6D       		.byte	109
 2152 0029 6A       		.byte	106
 2153 002a 8F       		.byte	-113
 2154 002b 94       		.byte	-108
 2155 002c 67       		.byte	103
 2156 002d 30       		.byte	48
 2157 002e 83       		.byte	-125
 2158 002f 08       		.byte	8
 2159 0030 FE       		.byte	-2
 2160 0031 FF       		.byte	-1
 2161 0032 E9       		.byte	-23
 2162 0033 92       		.byte	-110
 2163 0034 86       		.byte	-122
 2164 0035 65       		.byte	101
 2165 0036 73       		.byte	115
 2166 0037 1C       		.byte	28
 2167 0038 6D       		.byte	109
 2168 0039 6A       		.byte	106
 2169 003a 8F       		.byte	-113
 2170 003b 94       		.byte	-108
 2171 003c 67       		.byte	103
 2172 003d 30       		.byte	48
 2173 003e 83       		.byte	-125
 2174 003f 08       		.byte	8
 2175 0040 00000000 		.space	128
 2175      00000000 
 2175      00000000 
 2175      00000000 
 2175      00000000 
 2176              		.section	.rodata.iv_len,"a",%progbits
 2177              		.align	2
 2180              	iv_len:
 2181 0000 0C000000 		.word	12
ARM GAS  C:\Users\dtjld\AppData\Local\Temp\ccrYdj6j.s 			page 49


 2182 0004 0C000000 		.word	12
 2183 0008 0C000000 		.word	12
 2184 000c 0C000000 		.word	12
 2185 0010 08000000 		.word	8
 2186 0014 3C000000 		.word	60
 2187              		.section	.rodata.iv_index,"a",%progbits
 2188              		.align	2
 2191              	iv_index:
 2192 0000 00000000 		.word	0
 2193 0004 00000000 		.word	0
 2194 0008 01000000 		.word	1
 2195 000c 01000000 		.word	1
 2196 0010 01000000 		.word	1
 2197 0014 02000000 		.word	2
 2198              		.section	.rodata.iv,"a",%progbits
 2199              		.align	2
 2202              	iv:
 2203 0000 00       		.byte	0
 2204 0001 00       		.byte	0
 2205 0002 00       		.byte	0
 2206 0003 00       		.byte	0
 2207 0004 00       		.byte	0
 2208 0005 00       		.byte	0
 2209 0006 00       		.byte	0
 2210 0007 00       		.byte	0
 2211 0008 00       		.byte	0
 2212 0009 00       		.byte	0
 2213 000a 00       		.byte	0
 2214 000b 00       		.byte	0
 2215 000c 00000000 		.space	52
 2215      00000000 
 2215      00000000 
 2215      00000000 
 2215      00000000 
 2216 0040 CA       		.byte	-54
 2217 0041 FE       		.byte	-2
 2218 0042 BA       		.byte	-70
 2219 0043 BE       		.byte	-66
 2220 0044 FA       		.byte	-6
 2221 0045 CE       		.byte	-50
 2222 0046 DB       		.byte	-37
 2223 0047 AD       		.byte	-83
 2224 0048 DE       		.byte	-34
 2225 0049 CA       		.byte	-54
 2226 004a F8       		.byte	-8
 2227 004b 88       		.byte	-120
 2228 004c 00000000 		.space	52
 2228      00000000 
 2228      00000000 
 2228      00000000 
 2228      00000000 
 2229 0080 93       		.byte	-109
 2230 0081 13       		.byte	19
 2231 0082 22       		.byte	34
 2232 0083 5D       		.byte	93
 2233 0084 F8       		.byte	-8
 2234 0085 84       		.byte	-124
ARM GAS  C:\Users\dtjld\AppData\Local\Temp\ccrYdj6j.s 			page 50


 2235 0086 06       		.byte	6
 2236 0087 E5       		.byte	-27
 2237 0088 55       		.byte	85
 2238 0089 90       		.byte	-112
 2239 008a 9C       		.byte	-100
 2240 008b 5A       		.byte	90
 2241 008c FF       		.byte	-1
 2242 008d 52       		.byte	82
 2243 008e 69       		.byte	105
 2244 008f AA       		.byte	-86
 2245 0090 6A       		.byte	106
 2246 0091 7A       		.byte	122
 2247 0092 95       		.byte	-107
 2248 0093 38       		.byte	56
 2249 0094 53       		.byte	83
 2250 0095 4F       		.byte	79
 2251 0096 7D       		.byte	125
 2252 0097 A1       		.byte	-95
 2253 0098 E4       		.byte	-28
 2254 0099 C3       		.byte	-61
 2255 009a 03       		.byte	3
 2256 009b D2       		.byte	-46
 2257 009c A3       		.byte	-93
 2258 009d 18       		.byte	24
 2259 009e A7       		.byte	-89
 2260 009f 28       		.byte	40
 2261 00a0 C3       		.byte	-61
 2262 00a1 C0       		.byte	-64
 2263 00a2 C9       		.byte	-55
 2264 00a3 51       		.byte	81
 2265 00a4 56       		.byte	86
 2266 00a5 80       		.byte	-128
 2267 00a6 95       		.byte	-107
 2268 00a7 39       		.byte	57
 2269 00a8 FC       		.byte	-4
 2270 00a9 F0       		.byte	-16
 2271 00aa E2       		.byte	-30
 2272 00ab 42       		.byte	66
 2273 00ac 9A       		.byte	-102
 2274 00ad 6B       		.byte	107
 2275 00ae 52       		.byte	82
 2276 00af 54       		.byte	84
 2277 00b0 16       		.byte	22
 2278 00b1 AE       		.byte	-82
 2279 00b2 DB       		.byte	-37
 2280 00b3 F5       		.byte	-11
 2281 00b4 A0       		.byte	-96
 2282 00b5 DE       		.byte	-34
 2283 00b6 6A       		.byte	106
 2284 00b7 57       		.byte	87
 2285 00b8 A6       		.byte	-90
 2286 00b9 37       		.byte	55
 2287 00ba B3       		.byte	-77
 2288 00bb 9B       		.byte	-101
 2289 00bc 00000000 		.space	4
 2290 00c0 00000000 		.space	192
 2290      00000000 
ARM GAS  C:\Users\dtjld\AppData\Local\Temp\ccrYdj6j.s 			page 51


 2290      00000000 
 2290      00000000 
 2290      00000000 
 2291              		.section	.rodata.add_len,"a",%progbits
 2292              		.align	2
 2295              	add_len:
 2296 0000 00000000 		.word	0
 2297 0004 00000000 		.word	0
 2298 0008 00000000 		.word	0
 2299 000c 14000000 		.word	20
 2300 0010 14000000 		.word	20
 2301 0014 14000000 		.word	20
 2302              		.section	.rodata.add_index,"a",%progbits
 2303              		.align	2
 2306              	add_index:
 2307 0000 00000000 		.word	0
 2308 0004 00000000 		.word	0
 2309 0008 00000000 		.word	0
 2310 000c 01000000 		.word	1
 2311 0010 01000000 		.word	1
 2312 0014 01000000 		.word	1
 2313              		.section	.rodata.additional,"a",%progbits
 2314              		.align	2
 2317              	additional:
 2318 0000 00       		.byte	0
 2319 0001 00000000 		.space	63
 2319      00000000 
 2319      00000000 
 2319      00000000 
 2319      00000000 
 2320 0040 FE       		.byte	-2
 2321 0041 ED       		.byte	-19
 2322 0042 FA       		.byte	-6
 2323 0043 CE       		.byte	-50
 2324 0044 DE       		.byte	-34
 2325 0045 AD       		.byte	-83
 2326 0046 BE       		.byte	-66
 2327 0047 EF       		.byte	-17
 2328 0048 FE       		.byte	-2
 2329 0049 ED       		.byte	-19
 2330 004a FA       		.byte	-6
 2331 004b CE       		.byte	-50
 2332 004c DE       		.byte	-34
 2333 004d AD       		.byte	-83
 2334 004e BE       		.byte	-66
 2335 004f EF       		.byte	-17
 2336 0050 AB       		.byte	-85
 2337 0051 AD       		.byte	-83
 2338 0052 DA       		.byte	-38
 2339 0053 D2       		.byte	-46
 2340 0054 00000000 		.space	44
 2340      00000000 
 2340      00000000 
 2340      00000000 
 2340      00000000 
 2341 0080 00000000 		.space	256
 2341      00000000 
ARM GAS  C:\Users\dtjld\AppData\Local\Temp\ccrYdj6j.s 			page 52


 2341      00000000 
 2341      00000000 
 2341      00000000 
 2342              		.section	.rodata.pt_len,"a",%progbits
 2343              		.align	2
 2346              	pt_len:
 2347 0000 00000000 		.word	0
 2348 0004 10000000 		.word	16
 2349 0008 40000000 		.word	64
 2350 000c 3C000000 		.word	60
 2351 0010 3C000000 		.word	60
 2352 0014 3C000000 		.word	60
 2353              		.section	.rodata.pt_index,"a",%progbits
 2354              		.align	2
 2357              	pt_index:
 2358 0000 00000000 		.word	0
 2359 0004 00000000 		.word	0
 2360 0008 01000000 		.word	1
 2361 000c 01000000 		.word	1
 2362 0010 01000000 		.word	1
 2363 0014 01000000 		.word	1
 2364              		.section	.rodata.pt,"a",%progbits
 2365              		.align	2
 2368              	pt:
 2369 0000 00       		.byte	0
 2370 0001 00       		.byte	0
 2371 0002 00       		.byte	0
 2372 0003 00       		.byte	0
 2373 0004 00       		.byte	0
 2374 0005 00       		.byte	0
 2375 0006 00       		.byte	0
 2376 0007 00       		.byte	0
 2377 0008 00       		.byte	0
 2378 0009 00       		.byte	0
 2379 000a 00       		.byte	0
 2380 000b 00       		.byte	0
 2381 000c 00       		.byte	0
 2382 000d 00       		.byte	0
 2383 000e 00       		.byte	0
 2384 000f 00       		.byte	0
 2385 0010 00000000 		.space	48
 2385      00000000 
 2385      00000000 
 2385      00000000 
 2385      00000000 
 2386 0040 D9       		.byte	-39
 2387 0041 31       		.byte	49
 2388 0042 32       		.byte	50
 2389 0043 25       		.byte	37
 2390 0044 F8       		.byte	-8
 2391 0045 84       		.byte	-124
 2392 0046 06       		.byte	6
 2393 0047 E5       		.byte	-27
 2394 0048 A5       		.byte	-91
 2395 0049 59       		.byte	89
 2396 004a 09       		.byte	9
 2397 004b C5       		.byte	-59
ARM GAS  C:\Users\dtjld\AppData\Local\Temp\ccrYdj6j.s 			page 53


 2398 004c AF       		.byte	-81
 2399 004d F5       		.byte	-11
 2400 004e 26       		.byte	38
 2401 004f 9A       		.byte	-102
 2402 0050 86       		.byte	-122
 2403 0051 A7       		.byte	-89
 2404 0052 A9       		.byte	-87
 2405 0053 53       		.byte	83
 2406 0054 15       		.byte	21
 2407 0055 34       		.byte	52
 2408 0056 F7       		.byte	-9
 2409 0057 DA       		.byte	-38
 2410 0058 2E       		.byte	46
 2411 0059 4C       		.byte	76
 2412 005a 30       		.byte	48
 2413 005b 3D       		.byte	61
 2414 005c 8A       		.byte	-118
 2415 005d 31       		.byte	49
 2416 005e 8A       		.byte	-118
 2417 005f 72       		.byte	114
 2418 0060 1C       		.byte	28
 2419 0061 3C       		.byte	60
 2420 0062 0C       		.byte	12
 2421 0063 95       		.byte	-107
 2422 0064 95       		.byte	-107
 2423 0065 68       		.byte	104
 2424 0066 09       		.byte	9
 2425 0067 53       		.byte	83
 2426 0068 2F       		.byte	47
 2427 0069 CF       		.byte	-49
 2428 006a 0E       		.byte	14
 2429 006b 24       		.byte	36
 2430 006c 49       		.byte	73
 2431 006d A6       		.byte	-90
 2432 006e B5       		.byte	-75
 2433 006f 25       		.byte	37
 2434 0070 B1       		.byte	-79
 2435 0071 6A       		.byte	106
 2436 0072 ED       		.byte	-19
 2437 0073 F5       		.byte	-11
 2438 0074 AA       		.byte	-86
 2439 0075 0D       		.byte	13
 2440 0076 E6       		.byte	-26
 2441 0077 57       		.byte	87
 2442 0078 BA       		.byte	-70
 2443 0079 63       		.byte	99
 2444 007a 7B       		.byte	123
 2445 007b 39       		.byte	57
 2446 007c 1A       		.byte	26
 2447 007d AF       		.byte	-81
 2448 007e D2       		.byte	-46
 2449 007f 55       		.byte	85
 2450 0080 00000000 		.space	256
 2450      00000000 
 2450      00000000 
 2450      00000000 
 2450      00000000 
ARM GAS  C:\Users\dtjld\AppData\Local\Temp\ccrYdj6j.s 			page 54


 2451              		.section	.rodata.ct,"a",%progbits
 2452              		.align	2
 2455              	ct:
 2456 0000 00       		.byte	0
 2457 0001 00000000 		.space	63
 2457      00000000 
 2457      00000000 
 2457      00000000 
 2457      00000000 
 2458 0040 03       		.byte	3
 2459 0041 88       		.byte	-120
 2460 0042 DA       		.byte	-38
 2461 0043 CE       		.byte	-50
 2462 0044 60       		.byte	96
 2463 0045 B6       		.byte	-74
 2464 0046 A3       		.byte	-93
 2465 0047 92       		.byte	-110
 2466 0048 F3       		.byte	-13
 2467 0049 28       		.byte	40
 2468 004a C2       		.byte	-62
 2469 004b B9       		.byte	-71
 2470 004c 71       		.byte	113
 2471 004d B2       		.byte	-78
 2472 004e FE       		.byte	-2
 2473 004f 78       		.byte	120
 2474 0050 00000000 		.space	48
 2474      00000000 
 2474      00000000 
 2474      00000000 
 2474      00000000 
 2475 0080 42       		.byte	66
 2476 0081 83       		.byte	-125
 2477 0082 1E       		.byte	30
 2478 0083 C2       		.byte	-62
 2479 0084 21       		.byte	33
 2480 0085 77       		.byte	119
 2481 0086 74       		.byte	116
 2482 0087 24       		.byte	36
 2483 0088 4B       		.byte	75
 2484 0089 72       		.byte	114
 2485 008a 21       		.byte	33
 2486 008b B7       		.byte	-73
 2487 008c 84       		.byte	-124
 2488 008d D0       		.byte	-48
 2489 008e D4       		.byte	-44
 2490 008f 9C       		.byte	-100
 2491 0090 E3       		.byte	-29
 2492 0091 AA       		.byte	-86
 2493 0092 21       		.byte	33
 2494 0093 2F       		.byte	47
 2495 0094 2C       		.byte	44
 2496 0095 02       		.byte	2
 2497 0096 A4       		.byte	-92
 2498 0097 E0       		.byte	-32
 2499 0098 35       		.byte	53
 2500 0099 C1       		.byte	-63
 2501 009a 7E       		.byte	126
ARM GAS  C:\Users\dtjld\AppData\Local\Temp\ccrYdj6j.s 			page 55


 2502 009b 23       		.byte	35
 2503 009c 29       		.byte	41
 2504 009d AC       		.byte	-84
 2505 009e A1       		.byte	-95
 2506 009f 2E       		.byte	46
 2507 00a0 21       		.byte	33
 2508 00a1 D5       		.byte	-43
 2509 00a2 14       		.byte	20
 2510 00a3 B2       		.byte	-78
 2511 00a4 54       		.byte	84
 2512 00a5 66       		.byte	102
 2513 00a6 93       		.byte	-109
 2514 00a7 1C       		.byte	28
 2515 00a8 7D       		.byte	125
 2516 00a9 8F       		.byte	-113
 2517 00aa 6A       		.byte	106
 2518 00ab 5A       		.byte	90
 2519 00ac AC       		.byte	-84
 2520 00ad 84       		.byte	-124
 2521 00ae AA       		.byte	-86
 2522 00af 05       		.byte	5
 2523 00b0 1B       		.byte	27
 2524 00b1 A3       		.byte	-93
 2525 00b2 0B       		.byte	11
 2526 00b3 39       		.byte	57
 2527 00b4 6A       		.byte	106
 2528 00b5 0A       		.byte	10
 2529 00b6 AC       		.byte	-84
 2530 00b7 97       		.byte	-105
 2531 00b8 3D       		.byte	61
 2532 00b9 58       		.byte	88
 2533 00ba E0       		.byte	-32
 2534 00bb 91       		.byte	-111
 2535 00bc 47       		.byte	71
 2536 00bd 3F       		.byte	63
 2537 00be 59       		.byte	89
 2538 00bf 85       		.byte	-123
 2539 00c0 42       		.byte	66
 2540 00c1 83       		.byte	-125
 2541 00c2 1E       		.byte	30
 2542 00c3 C2       		.byte	-62
 2543 00c4 21       		.byte	33
 2544 00c5 77       		.byte	119
 2545 00c6 74       		.byte	116
 2546 00c7 24       		.byte	36
 2547 00c8 4B       		.byte	75
 2548 00c9 72       		.byte	114
 2549 00ca 21       		.byte	33
 2550 00cb B7       		.byte	-73
 2551 00cc 84       		.byte	-124
 2552 00cd D0       		.byte	-48
 2553 00ce D4       		.byte	-44
 2554 00cf 9C       		.byte	-100
 2555 00d0 E3       		.byte	-29
 2556 00d1 AA       		.byte	-86
 2557 00d2 21       		.byte	33
 2558 00d3 2F       		.byte	47
ARM GAS  C:\Users\dtjld\AppData\Local\Temp\ccrYdj6j.s 			page 56


 2559 00d4 2C       		.byte	44
 2560 00d5 02       		.byte	2
 2561 00d6 A4       		.byte	-92
 2562 00d7 E0       		.byte	-32
 2563 00d8 35       		.byte	53
 2564 00d9 C1       		.byte	-63
 2565 00da 7E       		.byte	126
 2566 00db 23       		.byte	35
 2567 00dc 29       		.byte	41
 2568 00dd AC       		.byte	-84
 2569 00de A1       		.byte	-95
 2570 00df 2E       		.byte	46
 2571 00e0 21       		.byte	33
 2572 00e1 D5       		.byte	-43
 2573 00e2 14       		.byte	20
 2574 00e3 B2       		.byte	-78
 2575 00e4 54       		.byte	84
 2576 00e5 66       		.byte	102
 2577 00e6 93       		.byte	-109
 2578 00e7 1C       		.byte	28
 2579 00e8 7D       		.byte	125
 2580 00e9 8F       		.byte	-113
 2581 00ea 6A       		.byte	106
 2582 00eb 5A       		.byte	90
 2583 00ec AC       		.byte	-84
 2584 00ed 84       		.byte	-124
 2585 00ee AA       		.byte	-86
 2586 00ef 05       		.byte	5
 2587 00f0 1B       		.byte	27
 2588 00f1 A3       		.byte	-93
 2589 00f2 0B       		.byte	11
 2590 00f3 39       		.byte	57
 2591 00f4 6A       		.byte	106
 2592 00f5 0A       		.byte	10
 2593 00f6 AC       		.byte	-84
 2594 00f7 97       		.byte	-105
 2595 00f8 3D       		.byte	61
 2596 00f9 58       		.byte	88
 2597 00fa E0       		.byte	-32
 2598 00fb 91       		.byte	-111
 2599 00fc 00000000 		.space	4
 2600 0100 61       		.byte	97
 2601 0101 35       		.byte	53
 2602 0102 3B       		.byte	59
 2603 0103 4C       		.byte	76
 2604 0104 28       		.byte	40
 2605 0105 06       		.byte	6
 2606 0106 93       		.byte	-109
 2607 0107 4A       		.byte	74
 2608 0108 77       		.byte	119
 2609 0109 7F       		.byte	127
 2610 010a F5       		.byte	-11
 2611 010b 1F       		.byte	31
 2612 010c A2       		.byte	-94
 2613 010d 2A       		.byte	42
 2614 010e 47       		.byte	71
 2615 010f 55       		.byte	85
ARM GAS  C:\Users\dtjld\AppData\Local\Temp\ccrYdj6j.s 			page 57


 2616 0110 69       		.byte	105
 2617 0111 9B       		.byte	-101
 2618 0112 2A       		.byte	42
 2619 0113 71       		.byte	113
 2620 0114 4F       		.byte	79
 2621 0115 CD       		.byte	-51
 2622 0116 C6       		.byte	-58
 2623 0117 F8       		.byte	-8
 2624 0118 37       		.byte	55
 2625 0119 66       		.byte	102
 2626 011a E5       		.byte	-27
 2627 011b F9       		.byte	-7
 2628 011c 7B       		.byte	123
 2629 011d 6C       		.byte	108
 2630 011e 74       		.byte	116
 2631 011f 23       		.byte	35
 2632 0120 73       		.byte	115
 2633 0121 80       		.byte	-128
 2634 0122 69       		.byte	105
 2635 0123 00       		.byte	0
 2636 0124 E4       		.byte	-28
 2637 0125 9F       		.byte	-97
 2638 0126 24       		.byte	36
 2639 0127 B2       		.byte	-78
 2640 0128 2B       		.byte	43
 2641 0129 09       		.byte	9
 2642 012a 75       		.byte	117
 2643 012b 44       		.byte	68
 2644 012c D4       		.byte	-44
 2645 012d 89       		.byte	-119
 2646 012e 6B       		.byte	107
 2647 012f 42       		.byte	66
 2648 0130 49       		.byte	73
 2649 0131 89       		.byte	-119
 2650 0132 B5       		.byte	-75
 2651 0133 E1       		.byte	-31
 2652 0134 EB       		.byte	-21
 2653 0135 AC       		.byte	-84
 2654 0136 0F       		.byte	15
 2655 0137 07       		.byte	7
 2656 0138 C2       		.byte	-62
 2657 0139 3F       		.byte	63
 2658 013a 45       		.byte	69
 2659 013b 98       		.byte	-104
 2660 013c 00000000 		.space	4
 2661 0140 8C       		.byte	-116
 2662 0141 E2       		.byte	-30
 2663 0142 49       		.byte	73
 2664 0143 98       		.byte	-104
 2665 0144 62       		.byte	98
 2666 0145 56       		.byte	86
 2667 0146 15       		.byte	21
 2668 0147 B6       		.byte	-74
 2669 0148 03       		.byte	3
 2670 0149 A0       		.byte	-96
 2671 014a 33       		.byte	51
 2672 014b AC       		.byte	-84
ARM GAS  C:\Users\dtjld\AppData\Local\Temp\ccrYdj6j.s 			page 58


 2673 014c A1       		.byte	-95
 2674 014d 3F       		.byte	63
 2675 014e B8       		.byte	-72
 2676 014f 94       		.byte	-108
 2677 0150 BE       		.byte	-66
 2678 0151 91       		.byte	-111
 2679 0152 12       		.byte	18
 2680 0153 A5       		.byte	-91
 2681 0154 C3       		.byte	-61
 2682 0155 A2       		.byte	-94
 2683 0156 11       		.byte	17
 2684 0157 A8       		.byte	-88
 2685 0158 BA       		.byte	-70
 2686 0159 26       		.byte	38
 2687 015a 2A       		.byte	42
 2688 015b 3C       		.byte	60
 2689 015c CA       		.byte	-54
 2690 015d 7E       		.byte	126
 2691 015e 2C       		.byte	44
 2692 015f A7       		.byte	-89
 2693 0160 01       		.byte	1
 2694 0161 E4       		.byte	-28
 2695 0162 A9       		.byte	-87
 2696 0163 A4       		.byte	-92
 2697 0164 FB       		.byte	-5
 2698 0165 A4       		.byte	-92
 2699 0166 3C       		.byte	60
 2700 0167 90       		.byte	-112
 2701 0168 CC       		.byte	-52
 2702 0169 DC       		.byte	-36
 2703 016a B2       		.byte	-78
 2704 016b 81       		.byte	-127
 2705 016c D4       		.byte	-44
 2706 016d 8C       		.byte	-116
 2707 016e 7C       		.byte	124
 2708 016f 6F       		.byte	111
 2709 0170 D6       		.byte	-42
 2710 0171 28       		.byte	40
 2711 0172 75       		.byte	117
 2712 0173 D2       		.byte	-46
 2713 0174 AC       		.byte	-84
 2714 0175 A4       		.byte	-92
 2715 0176 17       		.byte	23
 2716 0177 03       		.byte	3
 2717 0178 4C       		.byte	76
 2718 0179 34       		.byte	52
 2719 017a AE       		.byte	-82
 2720 017b E5       		.byte	-27
 2721 017c 00000000 		.space	4
 2722 0180 00       		.byte	0
 2723 0181 00000000 		.space	63
 2723      00000000 
 2723      00000000 
 2723      00000000 
 2723      00000000 
 2724 01c0 98       		.byte	-104
 2725 01c1 E7       		.byte	-25
ARM GAS  C:\Users\dtjld\AppData\Local\Temp\ccrYdj6j.s 			page 59


 2726 01c2 24       		.byte	36
 2727 01c3 7C       		.byte	124
 2728 01c4 07       		.byte	7
 2729 01c5 F0       		.byte	-16
 2730 01c6 FE       		.byte	-2
 2731 01c7 41       		.byte	65
 2732 01c8 1C       		.byte	28
 2733 01c9 26       		.byte	38
 2734 01ca 7E       		.byte	126
 2735 01cb 43       		.byte	67
 2736 01cc 84       		.byte	-124
 2737 01cd B0       		.byte	-80
 2738 01ce F6       		.byte	-10
 2739 01cf 00       		.byte	0
 2740 01d0 00000000 		.space	48
 2740      00000000 
 2740      00000000 
 2740      00000000 
 2740      00000000 
 2741 0200 39       		.byte	57
 2742 0201 80       		.byte	-128
 2743 0202 CA       		.byte	-54
 2744 0203 0B       		.byte	11
 2745 0204 3C       		.byte	60
 2746 0205 00       		.byte	0
 2747 0206 E8       		.byte	-24
 2748 0207 41       		.byte	65
 2749 0208 EB       		.byte	-21
 2750 0209 06       		.byte	6
 2751 020a FA       		.byte	-6
 2752 020b C4       		.byte	-60
 2753 020c 87       		.byte	-121
 2754 020d 2A       		.byte	42
 2755 020e 27       		.byte	39
 2756 020f 57       		.byte	87
 2757 0210 85       		.byte	-123
 2758 0211 9E       		.byte	-98
 2759 0212 1C       		.byte	28
 2760 0213 EA       		.byte	-22
 2761 0214 A6       		.byte	-90
 2762 0215 EF       		.byte	-17
 2763 0216 D9       		.byte	-39
 2764 0217 84       		.byte	-124
 2765 0218 62       		.byte	98
 2766 0219 85       		.byte	-123
 2767 021a 93       		.byte	-109
 2768 021b B4       		.byte	-76
 2769 021c 0C       		.byte	12
 2770 021d A1       		.byte	-95
 2771 021e E1       		.byte	-31
 2772 021f 9C       		.byte	-100
 2773 0220 7D       		.byte	125
 2774 0221 77       		.byte	119
 2775 0222 3D       		.byte	61
 2776 0223 00       		.byte	0
 2777 0224 C1       		.byte	-63
 2778 0225 44       		.byte	68
ARM GAS  C:\Users\dtjld\AppData\Local\Temp\ccrYdj6j.s 			page 60


 2779 0226 C5       		.byte	-59
 2780 0227 25       		.byte	37
 2781 0228 AC       		.byte	-84
 2782 0229 61       		.byte	97
 2783 022a 9D       		.byte	-99
 2784 022b 18       		.byte	24
 2785 022c C8       		.byte	-56
 2786 022d 4A       		.byte	74
 2787 022e 3F       		.byte	63
 2788 022f 47       		.byte	71
 2789 0230 18       		.byte	24
 2790 0231 E2       		.byte	-30
 2791 0232 44       		.byte	68
 2792 0233 8B       		.byte	-117
 2793 0234 2F       		.byte	47
 2794 0235 E3       		.byte	-29
 2795 0236 24       		.byte	36
 2796 0237 D9       		.byte	-39
 2797 0238 CC       		.byte	-52
 2798 0239 DA       		.byte	-38
 2799 023a 27       		.byte	39
 2800 023b 10       		.byte	16
 2801 023c AC       		.byte	-84
 2802 023d AD       		.byte	-83
 2803 023e E2       		.byte	-30
 2804 023f 56       		.byte	86
 2805 0240 39       		.byte	57
 2806 0241 80       		.byte	-128
 2807 0242 CA       		.byte	-54
 2808 0243 0B       		.byte	11
 2809 0244 3C       		.byte	60
 2810 0245 00       		.byte	0
 2811 0246 E8       		.byte	-24
 2812 0247 41       		.byte	65
 2813 0248 EB       		.byte	-21
 2814 0249 06       		.byte	6
 2815 024a FA       		.byte	-6
 2816 024b C4       		.byte	-60
 2817 024c 87       		.byte	-121
 2818 024d 2A       		.byte	42
 2819 024e 27       		.byte	39
 2820 024f 57       		.byte	87
 2821 0250 85       		.byte	-123
 2822 0251 9E       		.byte	-98
 2823 0252 1C       		.byte	28
 2824 0253 EA       		.byte	-22
 2825 0254 A6       		.byte	-90
 2826 0255 EF       		.byte	-17
 2827 0256 D9       		.byte	-39
 2828 0257 84       		.byte	-124
 2829 0258 62       		.byte	98
 2830 0259 85       		.byte	-123
 2831 025a 93       		.byte	-109
 2832 025b B4       		.byte	-76
 2833 025c 0C       		.byte	12
 2834 025d A1       		.byte	-95
 2835 025e E1       		.byte	-31
ARM GAS  C:\Users\dtjld\AppData\Local\Temp\ccrYdj6j.s 			page 61


 2836 025f 9C       		.byte	-100
 2837 0260 7D       		.byte	125
 2838 0261 77       		.byte	119
 2839 0262 3D       		.byte	61
 2840 0263 00       		.byte	0
 2841 0264 C1       		.byte	-63
 2842 0265 44       		.byte	68
 2843 0266 C5       		.byte	-59
 2844 0267 25       		.byte	37
 2845 0268 AC       		.byte	-84
 2846 0269 61       		.byte	97
 2847 026a 9D       		.byte	-99
 2848 026b 18       		.byte	24
 2849 026c C8       		.byte	-56
 2850 026d 4A       		.byte	74
 2851 026e 3F       		.byte	63
 2852 026f 47       		.byte	71
 2853 0270 18       		.byte	24
 2854 0271 E2       		.byte	-30
 2855 0272 44       		.byte	68
 2856 0273 8B       		.byte	-117
 2857 0274 2F       		.byte	47
 2858 0275 E3       		.byte	-29
 2859 0276 24       		.byte	36
 2860 0277 D9       		.byte	-39
 2861 0278 CC       		.byte	-52
 2862 0279 DA       		.byte	-38
 2863 027a 27       		.byte	39
 2864 027b 10       		.byte	16
 2865 027c 00000000 		.space	4
 2866 0280 0F       		.byte	15
 2867 0281 10       		.byte	16
 2868 0282 F5       		.byte	-11
 2869 0283 99       		.byte	-103
 2870 0284 AE       		.byte	-82
 2871 0285 14       		.byte	20
 2872 0286 A1       		.byte	-95
 2873 0287 54       		.byte	84
 2874 0288 ED       		.byte	-19
 2875 0289 24       		.byte	36
 2876 028a B3       		.byte	-77
 2877 028b 6E       		.byte	110
 2878 028c 25       		.byte	37
 2879 028d 32       		.byte	50
 2880 028e 4D       		.byte	77
 2881 028f B8       		.byte	-72
 2882 0290 C5       		.byte	-59
 2883 0291 66       		.byte	102
 2884 0292 63       		.byte	99
 2885 0293 2E       		.byte	46
 2886 0294 F2       		.byte	-14
 2887 0295 BB       		.byte	-69
 2888 0296 B3       		.byte	-77
 2889 0297 4F       		.byte	79
 2890 0298 83       		.byte	-125
 2891 0299 47       		.byte	71
 2892 029a 28       		.byte	40
ARM GAS  C:\Users\dtjld\AppData\Local\Temp\ccrYdj6j.s 			page 62


 2893 029b 0F       		.byte	15
 2894 029c C4       		.byte	-60
 2895 029d 50       		.byte	80
 2896 029e 70       		.byte	112
 2897 029f 57       		.byte	87
 2898 02a0 FD       		.byte	-3
 2899 02a1 DC       		.byte	-36
 2900 02a2 29       		.byte	41
 2901 02a3 DF       		.byte	-33
 2902 02a4 9A       		.byte	-102
 2903 02a5 47       		.byte	71
 2904 02a6 1F       		.byte	31
 2905 02a7 75       		.byte	117
 2906 02a8 C6       		.byte	-58
 2907 02a9 65       		.byte	101
 2908 02aa 41       		.byte	65
 2909 02ab D4       		.byte	-44
 2910 02ac D4       		.byte	-44
 2911 02ad DA       		.byte	-38
 2912 02ae D1       		.byte	-47
 2913 02af C9       		.byte	-55
 2914 02b0 E9       		.byte	-23
 2915 02b1 3A       		.byte	58
 2916 02b2 19       		.byte	25
 2917 02b3 A5       		.byte	-91
 2918 02b4 8E       		.byte	-114
 2919 02b5 8B       		.byte	-117
 2920 02b6 47       		.byte	71
 2921 02b7 3F       		.byte	63
 2922 02b8 A0       		.byte	-96
 2923 02b9 F0       		.byte	-16
 2924 02ba 62       		.byte	98
 2925 02bb F7       		.byte	-9
 2926 02bc 00000000 		.space	4
 2927 02c0 D2       		.byte	-46
 2928 02c1 7E       		.byte	126
 2929 02c2 88       		.byte	-120
 2930 02c3 68       		.byte	104
 2931 02c4 1C       		.byte	28
 2932 02c5 E3       		.byte	-29
 2933 02c6 24       		.byte	36
 2934 02c7 3C       		.byte	60
 2935 02c8 48       		.byte	72
 2936 02c9 30       		.byte	48
 2937 02ca 16       		.byte	22
 2938 02cb 5A       		.byte	90
 2939 02cc 8F       		.byte	-113
 2940 02cd DC       		.byte	-36
 2941 02ce F9       		.byte	-7
 2942 02cf FF       		.byte	-1
 2943 02d0 1D       		.byte	29
 2944 02d1 E9       		.byte	-23
 2945 02d2 A1       		.byte	-95
 2946 02d3 D8       		.byte	-40
 2947 02d4 E6       		.byte	-26
 2948 02d5 B4       		.byte	-76
 2949 02d6 47       		.byte	71
ARM GAS  C:\Users\dtjld\AppData\Local\Temp\ccrYdj6j.s 			page 63


 2950 02d7 EF       		.byte	-17
 2951 02d8 6E       		.byte	110
 2952 02d9 F7       		.byte	-9
 2953 02da B7       		.byte	-73
 2954 02db 98       		.byte	-104
 2955 02dc 28       		.byte	40
 2956 02dd 66       		.byte	102
 2957 02de 6E       		.byte	110
 2958 02df 45       		.byte	69
 2959 02e0 81       		.byte	-127
 2960 02e1 E7       		.byte	-25
 2961 02e2 90       		.byte	-112
 2962 02e3 12       		.byte	18
 2963 02e4 AF       		.byte	-81
 2964 02e5 34       		.byte	52
 2965 02e6 DD       		.byte	-35
 2966 02e7 D9       		.byte	-39
 2967 02e8 E2       		.byte	-30
 2968 02e9 F0       		.byte	-16
 2969 02ea 37       		.byte	55
 2970 02eb 58       		.byte	88
 2971 02ec 9B       		.byte	-101
 2972 02ed 29       		.byte	41
 2973 02ee 2D       		.byte	45
 2974 02ef B3       		.byte	-77
 2975 02f0 E6       		.byte	-26
 2976 02f1 7C       		.byte	124
 2977 02f2 03       		.byte	3
 2978 02f3 67       		.byte	103
 2979 02f4 45       		.byte	69
 2980 02f5 FA       		.byte	-6
 2981 02f6 22       		.byte	34
 2982 02f7 E7       		.byte	-25
 2983 02f8 E9       		.byte	-23
 2984 02f9 B7       		.byte	-73
 2985 02fa 37       		.byte	55
 2986 02fb 3B       		.byte	59
 2987 02fc 00000000 		.space	4
 2988 0300 00       		.byte	0
 2989 0301 00000000 		.space	63
 2989      00000000 
 2989      00000000 
 2989      00000000 
 2989      00000000 
 2990 0340 CE       		.byte	-50
 2991 0341 A7       		.byte	-89
 2992 0342 40       		.byte	64
 2993 0343 3D       		.byte	61
 2994 0344 4D       		.byte	77
 2995 0345 60       		.byte	96
 2996 0346 6B       		.byte	107
 2997 0347 6E       		.byte	110
 2998 0348 07       		.byte	7
 2999 0349 4E       		.byte	78
 3000 034a C5       		.byte	-59
 3001 034b D3       		.byte	-45
 3002 034c BA       		.byte	-70
ARM GAS  C:\Users\dtjld\AppData\Local\Temp\ccrYdj6j.s 			page 64


 3003 034d F3       		.byte	-13
 3004 034e 9D       		.byte	-99
 3005 034f 18       		.byte	24
 3006 0350 00000000 		.space	48
 3006      00000000 
 3006      00000000 
 3006      00000000 
 3006      00000000 
 3007 0380 52       		.byte	82
 3008 0381 2D       		.byte	45
 3009 0382 C1       		.byte	-63
 3010 0383 F0       		.byte	-16
 3011 0384 99       		.byte	-103
 3012 0385 56       		.byte	86
 3013 0386 7D       		.byte	125
 3014 0387 07       		.byte	7
 3015 0388 F4       		.byte	-12
 3016 0389 7F       		.byte	127
 3017 038a 37       		.byte	55
 3018 038b A3       		.byte	-93
 3019 038c 2A       		.byte	42
 3020 038d 84       		.byte	-124
 3021 038e 42       		.byte	66
 3022 038f 7D       		.byte	125
 3023 0390 64       		.byte	100
 3024 0391 3A       		.byte	58
 3025 0392 8C       		.byte	-116
 3026 0393 DC       		.byte	-36
 3027 0394 BF       		.byte	-65
 3028 0395 E5       		.byte	-27
 3029 0396 C0       		.byte	-64
 3030 0397 C9       		.byte	-55
 3031 0398 75       		.byte	117
 3032 0399 98       		.byte	-104
 3033 039a A2       		.byte	-94
 3034 039b BD       		.byte	-67
 3035 039c 25       		.byte	37
 3036 039d 55       		.byte	85
 3037 039e D1       		.byte	-47
 3038 039f AA       		.byte	-86
 3039 03a0 8C       		.byte	-116
 3040 03a1 B0       		.byte	-80
 3041 03a2 8E       		.byte	-114
 3042 03a3 48       		.byte	72
 3043 03a4 59       		.byte	89
 3044 03a5 0D       		.byte	13
 3045 03a6 BB       		.byte	-69
 3046 03a7 3D       		.byte	61
 3047 03a8 A7       		.byte	-89
 3048 03a9 B0       		.byte	-80
 3049 03aa 8B       		.byte	-117
 3050 03ab 10       		.byte	16
 3051 03ac 56       		.byte	86
 3052 03ad 82       		.byte	-126
 3053 03ae 88       		.byte	-120
 3054 03af 38       		.byte	56
 3055 03b0 C5       		.byte	-59
ARM GAS  C:\Users\dtjld\AppData\Local\Temp\ccrYdj6j.s 			page 65


 3056 03b1 F6       		.byte	-10
 3057 03b2 1E       		.byte	30
 3058 03b3 63       		.byte	99
 3059 03b4 93       		.byte	-109
 3060 03b5 BA       		.byte	-70
 3061 03b6 7A       		.byte	122
 3062 03b7 0A       		.byte	10
 3063 03b8 BC       		.byte	-68
 3064 03b9 C9       		.byte	-55
 3065 03ba F6       		.byte	-10
 3066 03bb 62       		.byte	98
 3067 03bc 89       		.byte	-119
 3068 03bd 80       		.byte	-128
 3069 03be 15       		.byte	21
 3070 03bf AD       		.byte	-83
 3071 03c0 52       		.byte	82
 3072 03c1 2D       		.byte	45
 3073 03c2 C1       		.byte	-63
 3074 03c3 F0       		.byte	-16
 3075 03c4 99       		.byte	-103
 3076 03c5 56       		.byte	86
 3077 03c6 7D       		.byte	125
 3078 03c7 07       		.byte	7
 3079 03c8 F4       		.byte	-12
 3080 03c9 7F       		.byte	127
 3081 03ca 37       		.byte	55
 3082 03cb A3       		.byte	-93
 3083 03cc 2A       		.byte	42
 3084 03cd 84       		.byte	-124
 3085 03ce 42       		.byte	66
 3086 03cf 7D       		.byte	125
 3087 03d0 64       		.byte	100
 3088 03d1 3A       		.byte	58
 3089 03d2 8C       		.byte	-116
 3090 03d3 DC       		.byte	-36
 3091 03d4 BF       		.byte	-65
 3092 03d5 E5       		.byte	-27
 3093 03d6 C0       		.byte	-64
 3094 03d7 C9       		.byte	-55
 3095 03d8 75       		.byte	117
 3096 03d9 98       		.byte	-104
 3097 03da A2       		.byte	-94
 3098 03db BD       		.byte	-67
 3099 03dc 25       		.byte	37
 3100 03dd 55       		.byte	85
 3101 03de D1       		.byte	-47
 3102 03df AA       		.byte	-86
 3103 03e0 8C       		.byte	-116
 3104 03e1 B0       		.byte	-80
 3105 03e2 8E       		.byte	-114
 3106 03e3 48       		.byte	72
 3107 03e4 59       		.byte	89
 3108 03e5 0D       		.byte	13
 3109 03e6 BB       		.byte	-69
 3110 03e7 3D       		.byte	61
 3111 03e8 A7       		.byte	-89
 3112 03e9 B0       		.byte	-80
ARM GAS  C:\Users\dtjld\AppData\Local\Temp\ccrYdj6j.s 			page 66


 3113 03ea 8B       		.byte	-117
 3114 03eb 10       		.byte	16
 3115 03ec 56       		.byte	86
 3116 03ed 82       		.byte	-126
 3117 03ee 88       		.byte	-120
 3118 03ef 38       		.byte	56
 3119 03f0 C5       		.byte	-59
 3120 03f1 F6       		.byte	-10
 3121 03f2 1E       		.byte	30
 3122 03f3 63       		.byte	99
 3123 03f4 93       		.byte	-109
 3124 03f5 BA       		.byte	-70
 3125 03f6 7A       		.byte	122
 3126 03f7 0A       		.byte	10
 3127 03f8 BC       		.byte	-68
 3128 03f9 C9       		.byte	-55
 3129 03fa F6       		.byte	-10
 3130 03fb 62       		.byte	98
 3131 03fc 00000000 		.space	4
 3132 0400 C3       		.byte	-61
 3133 0401 76       		.byte	118
 3134 0402 2D       		.byte	45
 3135 0403 F1       		.byte	-15
 3136 0404 CA       		.byte	-54
 3137 0405 78       		.byte	120
 3138 0406 7D       		.byte	125
 3139 0407 32       		.byte	50
 3140 0408 AE       		.byte	-82
 3141 0409 47       		.byte	71
 3142 040a C1       		.byte	-63
 3143 040b 3B       		.byte	59
 3144 040c F1       		.byte	-15
 3145 040d 98       		.byte	-104
 3146 040e 44       		.byte	68
 3147 040f CB       		.byte	-53
 3148 0410 AF       		.byte	-81
 3149 0411 1A       		.byte	26
 3150 0412 E1       		.byte	-31
 3151 0413 4D       		.byte	77
 3152 0414 0B       		.byte	11
 3153 0415 97       		.byte	-105
 3154 0416 6A       		.byte	106
 3155 0417 FA       		.byte	-6
 3156 0418 C5       		.byte	-59
 3157 0419 2F       		.byte	47
 3158 041a F7       		.byte	-9
 3159 041b D7       		.byte	-41
 3160 041c 9B       		.byte	-101
 3161 041d BA       		.byte	-70
 3162 041e 9D       		.byte	-99
 3163 041f E0       		.byte	-32
 3164 0420 FE       		.byte	-2
 3165 0421 B5       		.byte	-75
 3166 0422 82       		.byte	-126
 3167 0423 D3       		.byte	-45
 3168 0424 39       		.byte	57
 3169 0425 34       		.byte	52
ARM GAS  C:\Users\dtjld\AppData\Local\Temp\ccrYdj6j.s 			page 67


 3170 0426 A4       		.byte	-92
 3171 0427 F0       		.byte	-16
 3172 0428 95       		.byte	-107
 3173 0429 4C       		.byte	76
 3174 042a C2       		.byte	-62
 3175 042b 36       		.byte	54
 3176 042c 3B       		.byte	59
 3177 042d C7       		.byte	-57
 3178 042e 3F       		.byte	63
 3179 042f 78       		.byte	120
 3180 0430 62       		.byte	98
 3181 0431 AC       		.byte	-84
 3182 0432 43       		.byte	67
 3183 0433 0E       		.byte	14
 3184 0434 64       		.byte	100
 3185 0435 AB       		.byte	-85
 3186 0436 E4       		.byte	-28
 3187 0437 99       		.byte	-103
 3188 0438 F4       		.byte	-12
 3189 0439 7C       		.byte	124
 3190 043a 9B       		.byte	-101
 3191 043b 1F       		.byte	31
 3192 043c 00000000 		.space	4
 3193 0440 5A       		.byte	90
 3194 0441 8D       		.byte	-115
 3195 0442 EF       		.byte	-17
 3196 0443 2F       		.byte	47
 3197 0444 0C       		.byte	12
 3198 0445 9E       		.byte	-98
 3199 0446 53       		.byte	83
 3200 0447 F1       		.byte	-15
 3201 0448 F7       		.byte	-9
 3202 0449 5D       		.byte	93
 3203 044a 78       		.byte	120
 3204 044b 53       		.byte	83
 3205 044c 65       		.byte	101
 3206 044d 9E       		.byte	-98
 3207 044e 2A       		.byte	42
 3208 044f 20       		.byte	32
 3209 0450 EE       		.byte	-18
 3210 0451 B2       		.byte	-78
 3211 0452 B2       		.byte	-78
 3212 0453 2A       		.byte	42
 3213 0454 AF       		.byte	-81
 3214 0455 DE       		.byte	-34
 3215 0456 64       		.byte	100
 3216 0457 19       		.byte	25
 3217 0458 A0       		.byte	-96
 3218 0459 58       		.byte	88
 3219 045a AB       		.byte	-85
 3220 045b 4F       		.byte	79
 3221 045c 6F       		.byte	111
 3222 045d 74       		.byte	116
 3223 045e 6B       		.byte	107
 3224 045f F4       		.byte	-12
 3225 0460 0F       		.byte	15
 3226 0461 C0       		.byte	-64
ARM GAS  C:\Users\dtjld\AppData\Local\Temp\ccrYdj6j.s 			page 68


 3227 0462 C3       		.byte	-61
 3228 0463 B7       		.byte	-73
 3229 0464 80       		.byte	-128
 3230 0465 F2       		.byte	-14
 3231 0466 44       		.byte	68
 3232 0467 45       		.byte	69
 3233 0468 2D       		.byte	45
 3234 0469 A3       		.byte	-93
 3235 046a EB       		.byte	-21
 3236 046b F1       		.byte	-15
 3237 046c C5       		.byte	-59
 3238 046d D8       		.byte	-40
 3239 046e 2C       		.byte	44
 3240 046f DE       		.byte	-34
 3241 0470 A2       		.byte	-94
 3242 0471 41       		.byte	65
 3243 0472 89       		.byte	-119
 3244 0473 97       		.byte	-105
 3245 0474 20       		.byte	32
 3246 0475 0E       		.byte	14
 3247 0476 F8       		.byte	-8
 3248 0477 2E       		.byte	46
 3249 0478 44       		.byte	68
 3250 0479 AE       		.byte	-82
 3251 047a 7E       		.byte	126
 3252 047b 3F       		.byte	63
 3253 047c 00000000 		.space	4
 3254              		.section	.rodata.tag,"a",%progbits
 3255              		.align	2
 3258              	tag:
 3259 0000 58       		.byte	88
 3260 0001 E2       		.byte	-30
 3261 0002 FC       		.byte	-4
 3262 0003 CE       		.byte	-50
 3263 0004 FA       		.byte	-6
 3264 0005 7E       		.byte	126
 3265 0006 30       		.byte	48
 3266 0007 61       		.byte	97
 3267 0008 36       		.byte	54
 3268 0009 7F       		.byte	127
 3269 000a 1D       		.byte	29
 3270 000b 57       		.byte	87
 3271 000c A4       		.byte	-92
 3272 000d E7       		.byte	-25
 3273 000e 45       		.byte	69
 3274 000f 5A       		.byte	90
 3275 0010 AB       		.byte	-85
 3276 0011 6E       		.byte	110
 3277 0012 47       		.byte	71
 3278 0013 D4       		.byte	-44
 3279 0014 2C       		.byte	44
 3280 0015 EC       		.byte	-20
 3281 0016 13       		.byte	19
 3282 0017 BD       		.byte	-67
 3283 0018 F5       		.byte	-11
 3284 0019 3A       		.byte	58
 3285 001a 67       		.byte	103
ARM GAS  C:\Users\dtjld\AppData\Local\Temp\ccrYdj6j.s 			page 69


 3286 001b B2       		.byte	-78
 3287 001c 12       		.byte	18
 3288 001d 57       		.byte	87
 3289 001e BD       		.byte	-67
 3290 001f DF       		.byte	-33
 3291 0020 4D       		.byte	77
 3292 0021 5C       		.byte	92
 3293 0022 2A       		.byte	42
 3294 0023 F3       		.byte	-13
 3295 0024 27       		.byte	39
 3296 0025 CD       		.byte	-51
 3297 0026 64       		.byte	100
 3298 0027 A6       		.byte	-90
 3299 0028 2C       		.byte	44
 3300 0029 F3       		.byte	-13
 3301 002a 5A       		.byte	90
 3302 002b BD       		.byte	-67
 3303 002c 2B       		.byte	43
 3304 002d A6       		.byte	-90
 3305 002e FA       		.byte	-6
 3306 002f B4       		.byte	-76
 3307 0030 5B       		.byte	91
 3308 0031 C9       		.byte	-55
 3309 0032 4F       		.byte	79
 3310 0033 BC       		.byte	-68
 3311 0034 32       		.byte	50
 3312 0035 21       		.byte	33
 3313 0036 A5       		.byte	-91
 3314 0037 DB       		.byte	-37
 3315 0038 94       		.byte	-108
 3316 0039 FA       		.byte	-6
 3317 003a E9       		.byte	-23
 3318 003b 5A       		.byte	90
 3319 003c E7       		.byte	-25
 3320 003d 12       		.byte	18
 3321 003e 1A       		.byte	26
 3322 003f 47       		.byte	71
 3323 0040 36       		.byte	54
 3324 0041 12       		.byte	18
 3325 0042 D2       		.byte	-46
 3326 0043 E7       		.byte	-25
 3327 0044 9E       		.byte	-98
 3328 0045 3B       		.byte	59
 3329 0046 07       		.byte	7
 3330 0047 85       		.byte	-123
 3331 0048 56       		.byte	86
 3332 0049 1B       		.byte	27
 3333 004a E1       		.byte	-31
 3334 004b 4A       		.byte	74
 3335 004c AC       		.byte	-84
 3336 004d A2       		.byte	-94
 3337 004e FC       		.byte	-4
 3338 004f CB       		.byte	-53
 3339 0050 61       		.byte	97
 3340 0051 9C       		.byte	-100
 3341 0052 C5       		.byte	-59
 3342 0053 AE       		.byte	-82
ARM GAS  C:\Users\dtjld\AppData\Local\Temp\ccrYdj6j.s 			page 70


 3343 0054 FF       		.byte	-1
 3344 0055 FE       		.byte	-2
 3345 0056 0B       		.byte	11
 3346 0057 FA       		.byte	-6
 3347 0058 46       		.byte	70
 3348 0059 2A       		.byte	42
 3349 005a F4       		.byte	-12
 3350 005b 3C       		.byte	60
 3351 005c 16       		.byte	22
 3352 005d 99       		.byte	-103
 3353 005e D0       		.byte	-48
 3354 005f 50       		.byte	80
 3355 0060 CD       		.byte	-51
 3356 0061 33       		.byte	51
 3357 0062 B2       		.byte	-78
 3358 0063 8A       		.byte	-118
 3359 0064 C7       		.byte	-57
 3360 0065 73       		.byte	115
 3361 0066 F7       		.byte	-9
 3362 0067 4B       		.byte	75
 3363 0068 A0       		.byte	-96
 3364 0069 0E       		.byte	14
 3365 006a D1       		.byte	-47
 3366 006b F3       		.byte	-13
 3367 006c 12       		.byte	18
 3368 006d 57       		.byte	87
 3369 006e 24       		.byte	36
 3370 006f 35       		.byte	53
 3371 0070 2F       		.byte	47
 3372 0071 F5       		.byte	-11
 3373 0072 8D       		.byte	-115
 3374 0073 80       		.byte	-128
 3375 0074 03       		.byte	3
 3376 0075 39       		.byte	57
 3377 0076 27       		.byte	39
 3378 0077 AB       		.byte	-85
 3379 0078 8E       		.byte	-114
 3380 0079 F4       		.byte	-12
 3381 007a D4       		.byte	-44
 3382 007b 58       		.byte	88
 3383 007c 75       		.byte	117
 3384 007d 14       		.byte	20
 3385 007e F0       		.byte	-16
 3386 007f FB       		.byte	-5
 3387 0080 99       		.byte	-103
 3388 0081 24       		.byte	36
 3389 0082 A7       		.byte	-89
 3390 0083 C8       		.byte	-56
 3391 0084 58       		.byte	88
 3392 0085 73       		.byte	115
 3393 0086 36       		.byte	54
 3394 0087 BF       		.byte	-65
 3395 0088 B1       		.byte	-79
 3396 0089 18       		.byte	24
 3397 008a 02       		.byte	2
 3398 008b 4D       		.byte	77
 3399 008c B8       		.byte	-72
ARM GAS  C:\Users\dtjld\AppData\Local\Temp\ccrYdj6j.s 			page 71


 3400 008d 67       		.byte	103
 3401 008e 4A       		.byte	74
 3402 008f 14       		.byte	20
 3403 0090 25       		.byte	37
 3404 0091 19       		.byte	25
 3405 0092 49       		.byte	73
 3406 0093 8E       		.byte	-114
 3407 0094 80       		.byte	-128
 3408 0095 F1       		.byte	-15
 3409 0096 47       		.byte	71
 3410 0097 8F       		.byte	-113
 3411 0098 37       		.byte	55
 3412 0099 BA       		.byte	-70
 3413 009a 55       		.byte	85
 3414 009b BD       		.byte	-67
 3415 009c 6D       		.byte	109
 3416 009d 27       		.byte	39
 3417 009e 61       		.byte	97
 3418 009f 8C       		.byte	-116
 3419 00a0 65       		.byte	101
 3420 00a1 DC       		.byte	-36
 3421 00a2 C5       		.byte	-59
 3422 00a3 7F       		.byte	127
 3423 00a4 CF       		.byte	-49
 3424 00a5 62       		.byte	98
 3425 00a6 3A       		.byte	58
 3426 00a7 24       		.byte	36
 3427 00a8 09       		.byte	9
 3428 00a9 4F       		.byte	79
 3429 00aa CC       		.byte	-52
 3430 00ab A4       		.byte	-92
 3431 00ac 0D       		.byte	13
 3432 00ad 35       		.byte	53
 3433 00ae 33       		.byte	51
 3434 00af F8       		.byte	-8
 3435 00b0 DC       		.byte	-36
 3436 00b1 F5       		.byte	-11
 3437 00b2 66       		.byte	102
 3438 00b3 FF       		.byte	-1
 3439 00b4 29       		.byte	41
 3440 00b5 1C       		.byte	28
 3441 00b6 25       		.byte	37
 3442 00b7 BB       		.byte	-69
 3443 00b8 B8       		.byte	-72
 3444 00b9 56       		.byte	86
 3445 00ba 8F       		.byte	-113
 3446 00bb C3       		.byte	-61
 3447 00bc D3       		.byte	-45
 3448 00bd 76       		.byte	118
 3449 00be A6       		.byte	-90
 3450 00bf D9       		.byte	-39
 3451 00c0 53       		.byte	83
 3452 00c1 0F       		.byte	15
 3453 00c2 8A       		.byte	-118
 3454 00c3 FB       		.byte	-5
 3455 00c4 C7       		.byte	-57
 3456 00c5 45       		.byte	69
ARM GAS  C:\Users\dtjld\AppData\Local\Temp\ccrYdj6j.s 			page 72


 3457 00c6 36       		.byte	54
 3458 00c7 B9       		.byte	-71
 3459 00c8 A9       		.byte	-87
 3460 00c9 63       		.byte	99
 3461 00ca B4       		.byte	-76
 3462 00cb F1       		.byte	-15
 3463 00cc C4       		.byte	-60
 3464 00cd CB       		.byte	-53
 3465 00ce 73       		.byte	115
 3466 00cf 8B       		.byte	-117
 3467 00d0 D0       		.byte	-48
 3468 00d1 D1       		.byte	-47
 3469 00d2 C8       		.byte	-56
 3470 00d3 A7       		.byte	-89
 3471 00d4 99       		.byte	-103
 3472 00d5 99       		.byte	-103
 3473 00d6 6B       		.byte	107
 3474 00d7 F0       		.byte	-16
 3475 00d8 26       		.byte	38
 3476 00d9 5B       		.byte	91
 3477 00da 98       		.byte	-104
 3478 00db B5       		.byte	-75
 3479 00dc D4       		.byte	-44
 3480 00dd 8A       		.byte	-118
 3481 00de B9       		.byte	-71
 3482 00df 19       		.byte	25
 3483 00e0 B0       		.byte	-80
 3484 00e1 94       		.byte	-108
 3485 00e2 DA       		.byte	-38
 3486 00e3 C5       		.byte	-59
 3487 00e4 D9       		.byte	-39
 3488 00e5 34       		.byte	52
 3489 00e6 71       		.byte	113
 3490 00e7 BD       		.byte	-67
 3491 00e8 EC       		.byte	-20
 3492 00e9 1A       		.byte	26
 3493 00ea 50       		.byte	80
 3494 00eb 22       		.byte	34
 3495 00ec 70       		.byte	112
 3496 00ed E3       		.byte	-29
 3497 00ee CC       		.byte	-52
 3498 00ef 6C       		.byte	108
 3499 00f0 76       		.byte	118
 3500 00f1 FC       		.byte	-4
 3501 00f2 6E       		.byte	110
 3502 00f3 CE       		.byte	-50
 3503 00f4 0F       		.byte	15
 3504 00f5 4E       		.byte	78
 3505 00f6 17       		.byte	23
 3506 00f7 68       		.byte	104
 3507 00f8 CD       		.byte	-51
 3508 00f9 DF       		.byte	-33
 3509 00fa 88       		.byte	-120
 3510 00fb 53       		.byte	83
 3511 00fc BB       		.byte	-69
 3512 00fd 2D       		.byte	45
 3513 00fe 55       		.byte	85
ARM GAS  C:\Users\dtjld\AppData\Local\Temp\ccrYdj6j.s 			page 73


 3514 00ff 1B       		.byte	27
 3515 0100 3A       		.byte	58
 3516 0101 33       		.byte	51
 3517 0102 7D       		.byte	125
 3518 0103 BF       		.byte	-65
 3519 0104 46       		.byte	70
 3520 0105 A7       		.byte	-89
 3521 0106 92       		.byte	-110
 3522 0107 C4       		.byte	-60
 3523 0108 5E       		.byte	94
 3524 0109 45       		.byte	69
 3525 010a 49       		.byte	73
 3526 010b 13       		.byte	19
 3527 010c FE       		.byte	-2
 3528 010d 2E       		.byte	46
 3529 010e A8       		.byte	-88
 3530 010f F2       		.byte	-14
 3531 0110 A4       		.byte	-92
 3532 0111 4A       		.byte	74
 3533 0112 82       		.byte	-126
 3534 0113 66       		.byte	102
 3535 0114 EE       		.byte	-18
 3536 0115 1C       		.byte	28
 3537 0116 8E       		.byte	-114
 3538 0117 B0       		.byte	-80
 3539 0118 C8       		.byte	-56
 3540 0119 B5       		.byte	-75
 3541 011a D4       		.byte	-44
 3542 011b CF       		.byte	-49
 3543 011c 5A       		.byte	90
 3544 011d E9       		.byte	-23
 3545 011e F1       		.byte	-15
 3546 011f 9A       		.byte	-102
 3547              		.section	.rodata
 3548              		.align	2
 3549              	.LC0:
 3550 0000 656E6300 		.ascii	"enc\000"
 3551              		.align	2
 3552              	.LC1:
 3553 0004 20204145 		.ascii	"  AES-GCM-%3d #%d (%s): \000"
 3553      532D4743 
 3553      4D2D2533 
 3553      64202325 
 3553      64202825 
 3554 001d 000000   		.align	2
 3555              	.LC2:
 3556 0020 736B6970 		.ascii	"skipped\012\000"
 3556      7065640A 
 3556      00
 3557 0029 000000   		.align	2
 3558              	.LC3:
 3559 002c 70617373 		.ascii	"passed\012\000"
 3559      65640A00 
 3560              		.align	2
 3561              	.LC4:
 3562 0034 64656300 		.ascii	"dec\000"
 3563              		.align	2
ARM GAS  C:\Users\dtjld\AppData\Local\Temp\ccrYdj6j.s 			page 74


 3564              	.LC5:
 3565 0038 20204145 		.ascii	"  AES-GCM-%3d #%d split (%s): \000"
 3565      532D4743 
 3565      4D2D2533 
 3565      64202325 
 3565      64207370 
 3566 0057 00       		.align	2
 3567              	.LC6:
 3568 0058 0A00     		.ascii	"\012\000"
 3569 005a 0000     		.align	2
 3570              	.LC7:
 3571 005c 6661696C 		.ascii	"failed\012\000"
 3571      65640A00 
 3572              		.section	.text.mbedtls_gcm_self_test,"ax",%progbits
 3573              		.align	1
 3574              		.global	mbedtls_gcm_self_test
 3575              		.syntax unified
 3576              		.thumb
 3577              		.thumb_func
 3578              		.fpu fpv4-sp-d16
 3580              	mbedtls_gcm_self_test:
 3581              	.LFB20:
 549:C:/Users/dtjld/workspace/AIoT/src/LiteOS_Lab/iot_link/network/dtls/mbedtls/mbedtls-2.16.2/library\gcm.c **** 
 550:C:/Users/dtjld/workspace/AIoT/src/LiteOS_Lab/iot_link/network/dtls/mbedtls/mbedtls-2.16.2/library\gcm.c **** #endif /* !MBEDTLS_GCM_ALT */
 551:C:/Users/dtjld/workspace/AIoT/src/LiteOS_Lab/iot_link/network/dtls/mbedtls/mbedtls-2.16.2/library\gcm.c **** 
 552:C:/Users/dtjld/workspace/AIoT/src/LiteOS_Lab/iot_link/network/dtls/mbedtls/mbedtls-2.16.2/library\gcm.c **** #if defined(MBEDTLS_SELF_TEST) && defined(MBEDTLS_AES_C)
 553:C:/Users/dtjld/workspace/AIoT/src/LiteOS_Lab/iot_link/network/dtls/mbedtls/mbedtls-2.16.2/library\gcm.c **** /*
 554:C:/Users/dtjld/workspace/AIoT/src/LiteOS_Lab/iot_link/network/dtls/mbedtls/mbedtls-2.16.2/library\gcm.c ****  * AES-GCM test vectors from:
 555:C:/Users/dtjld/workspace/AIoT/src/LiteOS_Lab/iot_link/network/dtls/mbedtls/mbedtls-2.16.2/library\gcm.c ****  *
 556:C:/Users/dtjld/workspace/AIoT/src/LiteOS_Lab/iot_link/network/dtls/mbedtls/mbedtls-2.16.2/library\gcm.c ****  * http://csrc.nist.gov/groups/STM/cavp/documents/mac/gcmtestvectors.zip
 557:C:/Users/dtjld/workspace/AIoT/src/LiteOS_Lab/iot_link/network/dtls/mbedtls/mbedtls-2.16.2/library\gcm.c ****  */
 558:C:/Users/dtjld/workspace/AIoT/src/LiteOS_Lab/iot_link/network/dtls/mbedtls/mbedtls-2.16.2/library\gcm.c **** #define MAX_TESTS   6
 559:C:/Users/dtjld/workspace/AIoT/src/LiteOS_Lab/iot_link/network/dtls/mbedtls/mbedtls-2.16.2/library\gcm.c **** 
 560:C:/Users/dtjld/workspace/AIoT/src/LiteOS_Lab/iot_link/network/dtls/mbedtls/mbedtls-2.16.2/library\gcm.c **** static const int key_index[MAX_TESTS] =
 561:C:/Users/dtjld/workspace/AIoT/src/LiteOS_Lab/iot_link/network/dtls/mbedtls/mbedtls-2.16.2/library\gcm.c ****     { 0, 0, 1, 1, 1, 1 };
 562:C:/Users/dtjld/workspace/AIoT/src/LiteOS_Lab/iot_link/network/dtls/mbedtls/mbedtls-2.16.2/library\gcm.c **** 
 563:C:/Users/dtjld/workspace/AIoT/src/LiteOS_Lab/iot_link/network/dtls/mbedtls/mbedtls-2.16.2/library\gcm.c **** static const unsigned char key[MAX_TESTS][32] =
 564:C:/Users/dtjld/workspace/AIoT/src/LiteOS_Lab/iot_link/network/dtls/mbedtls/mbedtls-2.16.2/library\gcm.c **** {
 565:C:/Users/dtjld/workspace/AIoT/src/LiteOS_Lab/iot_link/network/dtls/mbedtls/mbedtls-2.16.2/library\gcm.c ****     { 0x00, 0x00, 0x00, 0x00, 0x00, 0x00, 0x00, 0x00,
 566:C:/Users/dtjld/workspace/AIoT/src/LiteOS_Lab/iot_link/network/dtls/mbedtls/mbedtls-2.16.2/library\gcm.c ****       0x00, 0x00, 0x00, 0x00, 0x00, 0x00, 0x00, 0x00,
 567:C:/Users/dtjld/workspace/AIoT/src/LiteOS_Lab/iot_link/network/dtls/mbedtls/mbedtls-2.16.2/library\gcm.c ****       0x00, 0x00, 0x00, 0x00, 0x00, 0x00, 0x00, 0x00,
 568:C:/Users/dtjld/workspace/AIoT/src/LiteOS_Lab/iot_link/network/dtls/mbedtls/mbedtls-2.16.2/library\gcm.c ****       0x00, 0x00, 0x00, 0x00, 0x00, 0x00, 0x00, 0x00 },
 569:C:/Users/dtjld/workspace/AIoT/src/LiteOS_Lab/iot_link/network/dtls/mbedtls/mbedtls-2.16.2/library\gcm.c ****     { 0xfe, 0xff, 0xe9, 0x92, 0x86, 0x65, 0x73, 0x1c,
 570:C:/Users/dtjld/workspace/AIoT/src/LiteOS_Lab/iot_link/network/dtls/mbedtls/mbedtls-2.16.2/library\gcm.c ****       0x6d, 0x6a, 0x8f, 0x94, 0x67, 0x30, 0x83, 0x08,
 571:C:/Users/dtjld/workspace/AIoT/src/LiteOS_Lab/iot_link/network/dtls/mbedtls/mbedtls-2.16.2/library\gcm.c ****       0xfe, 0xff, 0xe9, 0x92, 0x86, 0x65, 0x73, 0x1c,
 572:C:/Users/dtjld/workspace/AIoT/src/LiteOS_Lab/iot_link/network/dtls/mbedtls/mbedtls-2.16.2/library\gcm.c ****       0x6d, 0x6a, 0x8f, 0x94, 0x67, 0x30, 0x83, 0x08 },
 573:C:/Users/dtjld/workspace/AIoT/src/LiteOS_Lab/iot_link/network/dtls/mbedtls/mbedtls-2.16.2/library\gcm.c **** };
 574:C:/Users/dtjld/workspace/AIoT/src/LiteOS_Lab/iot_link/network/dtls/mbedtls/mbedtls-2.16.2/library\gcm.c **** 
 575:C:/Users/dtjld/workspace/AIoT/src/LiteOS_Lab/iot_link/network/dtls/mbedtls/mbedtls-2.16.2/library\gcm.c **** static const size_t iv_len[MAX_TESTS] =
 576:C:/Users/dtjld/workspace/AIoT/src/LiteOS_Lab/iot_link/network/dtls/mbedtls/mbedtls-2.16.2/library\gcm.c ****     { 12, 12, 12, 12, 8, 60 };
 577:C:/Users/dtjld/workspace/AIoT/src/LiteOS_Lab/iot_link/network/dtls/mbedtls/mbedtls-2.16.2/library\gcm.c **** 
 578:C:/Users/dtjld/workspace/AIoT/src/LiteOS_Lab/iot_link/network/dtls/mbedtls/mbedtls-2.16.2/library\gcm.c **** static const int iv_index[MAX_TESTS] =
 579:C:/Users/dtjld/workspace/AIoT/src/LiteOS_Lab/iot_link/network/dtls/mbedtls/mbedtls-2.16.2/library\gcm.c ****     { 0, 0, 1, 1, 1, 2 };
 580:C:/Users/dtjld/workspace/AIoT/src/LiteOS_Lab/iot_link/network/dtls/mbedtls/mbedtls-2.16.2/library\gcm.c **** 
 581:C:/Users/dtjld/workspace/AIoT/src/LiteOS_Lab/iot_link/network/dtls/mbedtls/mbedtls-2.16.2/library\gcm.c **** static const unsigned char iv[MAX_TESTS][64] =
 582:C:/Users/dtjld/workspace/AIoT/src/LiteOS_Lab/iot_link/network/dtls/mbedtls/mbedtls-2.16.2/library\gcm.c **** {
 583:C:/Users/dtjld/workspace/AIoT/src/LiteOS_Lab/iot_link/network/dtls/mbedtls/mbedtls-2.16.2/library\gcm.c ****     { 0x00, 0x00, 0x00, 0x00, 0x00, 0x00, 0x00, 0x00,
ARM GAS  C:\Users\dtjld\AppData\Local\Temp\ccrYdj6j.s 			page 75


 584:C:/Users/dtjld/workspace/AIoT/src/LiteOS_Lab/iot_link/network/dtls/mbedtls/mbedtls-2.16.2/library\gcm.c ****       0x00, 0x00, 0x00, 0x00 },
 585:C:/Users/dtjld/workspace/AIoT/src/LiteOS_Lab/iot_link/network/dtls/mbedtls/mbedtls-2.16.2/library\gcm.c ****     { 0xca, 0xfe, 0xba, 0xbe, 0xfa, 0xce, 0xdb, 0xad,
 586:C:/Users/dtjld/workspace/AIoT/src/LiteOS_Lab/iot_link/network/dtls/mbedtls/mbedtls-2.16.2/library\gcm.c ****       0xde, 0xca, 0xf8, 0x88 },
 587:C:/Users/dtjld/workspace/AIoT/src/LiteOS_Lab/iot_link/network/dtls/mbedtls/mbedtls-2.16.2/library\gcm.c ****     { 0x93, 0x13, 0x22, 0x5d, 0xf8, 0x84, 0x06, 0xe5,
 588:C:/Users/dtjld/workspace/AIoT/src/LiteOS_Lab/iot_link/network/dtls/mbedtls/mbedtls-2.16.2/library\gcm.c ****       0x55, 0x90, 0x9c, 0x5a, 0xff, 0x52, 0x69, 0xaa,
 589:C:/Users/dtjld/workspace/AIoT/src/LiteOS_Lab/iot_link/network/dtls/mbedtls/mbedtls-2.16.2/library\gcm.c ****       0x6a, 0x7a, 0x95, 0x38, 0x53, 0x4f, 0x7d, 0xa1,
 590:C:/Users/dtjld/workspace/AIoT/src/LiteOS_Lab/iot_link/network/dtls/mbedtls/mbedtls-2.16.2/library\gcm.c ****       0xe4, 0xc3, 0x03, 0xd2, 0xa3, 0x18, 0xa7, 0x28,
 591:C:/Users/dtjld/workspace/AIoT/src/LiteOS_Lab/iot_link/network/dtls/mbedtls/mbedtls-2.16.2/library\gcm.c ****       0xc3, 0xc0, 0xc9, 0x51, 0x56, 0x80, 0x95, 0x39,
 592:C:/Users/dtjld/workspace/AIoT/src/LiteOS_Lab/iot_link/network/dtls/mbedtls/mbedtls-2.16.2/library\gcm.c ****       0xfc, 0xf0, 0xe2, 0x42, 0x9a, 0x6b, 0x52, 0x54,
 593:C:/Users/dtjld/workspace/AIoT/src/LiteOS_Lab/iot_link/network/dtls/mbedtls/mbedtls-2.16.2/library\gcm.c ****       0x16, 0xae, 0xdb, 0xf5, 0xa0, 0xde, 0x6a, 0x57,
 594:C:/Users/dtjld/workspace/AIoT/src/LiteOS_Lab/iot_link/network/dtls/mbedtls/mbedtls-2.16.2/library\gcm.c ****       0xa6, 0x37, 0xb3, 0x9b },
 595:C:/Users/dtjld/workspace/AIoT/src/LiteOS_Lab/iot_link/network/dtls/mbedtls/mbedtls-2.16.2/library\gcm.c **** };
 596:C:/Users/dtjld/workspace/AIoT/src/LiteOS_Lab/iot_link/network/dtls/mbedtls/mbedtls-2.16.2/library\gcm.c **** 
 597:C:/Users/dtjld/workspace/AIoT/src/LiteOS_Lab/iot_link/network/dtls/mbedtls/mbedtls-2.16.2/library\gcm.c **** static const size_t add_len[MAX_TESTS] =
 598:C:/Users/dtjld/workspace/AIoT/src/LiteOS_Lab/iot_link/network/dtls/mbedtls/mbedtls-2.16.2/library\gcm.c ****     { 0, 0, 0, 20, 20, 20 };
 599:C:/Users/dtjld/workspace/AIoT/src/LiteOS_Lab/iot_link/network/dtls/mbedtls/mbedtls-2.16.2/library\gcm.c **** 
 600:C:/Users/dtjld/workspace/AIoT/src/LiteOS_Lab/iot_link/network/dtls/mbedtls/mbedtls-2.16.2/library\gcm.c **** static const int add_index[MAX_TESTS] =
 601:C:/Users/dtjld/workspace/AIoT/src/LiteOS_Lab/iot_link/network/dtls/mbedtls/mbedtls-2.16.2/library\gcm.c ****     { 0, 0, 0, 1, 1, 1 };
 602:C:/Users/dtjld/workspace/AIoT/src/LiteOS_Lab/iot_link/network/dtls/mbedtls/mbedtls-2.16.2/library\gcm.c **** 
 603:C:/Users/dtjld/workspace/AIoT/src/LiteOS_Lab/iot_link/network/dtls/mbedtls/mbedtls-2.16.2/library\gcm.c **** static const unsigned char additional[MAX_TESTS][64] =
 604:C:/Users/dtjld/workspace/AIoT/src/LiteOS_Lab/iot_link/network/dtls/mbedtls/mbedtls-2.16.2/library\gcm.c **** {
 605:C:/Users/dtjld/workspace/AIoT/src/LiteOS_Lab/iot_link/network/dtls/mbedtls/mbedtls-2.16.2/library\gcm.c ****     { 0x00 },
 606:C:/Users/dtjld/workspace/AIoT/src/LiteOS_Lab/iot_link/network/dtls/mbedtls/mbedtls-2.16.2/library\gcm.c ****     { 0xfe, 0xed, 0xfa, 0xce, 0xde, 0xad, 0xbe, 0xef,
 607:C:/Users/dtjld/workspace/AIoT/src/LiteOS_Lab/iot_link/network/dtls/mbedtls/mbedtls-2.16.2/library\gcm.c ****       0xfe, 0xed, 0xfa, 0xce, 0xde, 0xad, 0xbe, 0xef,
 608:C:/Users/dtjld/workspace/AIoT/src/LiteOS_Lab/iot_link/network/dtls/mbedtls/mbedtls-2.16.2/library\gcm.c ****       0xab, 0xad, 0xda, 0xd2 },
 609:C:/Users/dtjld/workspace/AIoT/src/LiteOS_Lab/iot_link/network/dtls/mbedtls/mbedtls-2.16.2/library\gcm.c **** };
 610:C:/Users/dtjld/workspace/AIoT/src/LiteOS_Lab/iot_link/network/dtls/mbedtls/mbedtls-2.16.2/library\gcm.c **** 
 611:C:/Users/dtjld/workspace/AIoT/src/LiteOS_Lab/iot_link/network/dtls/mbedtls/mbedtls-2.16.2/library\gcm.c **** static const size_t pt_len[MAX_TESTS] =
 612:C:/Users/dtjld/workspace/AIoT/src/LiteOS_Lab/iot_link/network/dtls/mbedtls/mbedtls-2.16.2/library\gcm.c ****     { 0, 16, 64, 60, 60, 60 };
 613:C:/Users/dtjld/workspace/AIoT/src/LiteOS_Lab/iot_link/network/dtls/mbedtls/mbedtls-2.16.2/library\gcm.c **** 
 614:C:/Users/dtjld/workspace/AIoT/src/LiteOS_Lab/iot_link/network/dtls/mbedtls/mbedtls-2.16.2/library\gcm.c **** static const int pt_index[MAX_TESTS] =
 615:C:/Users/dtjld/workspace/AIoT/src/LiteOS_Lab/iot_link/network/dtls/mbedtls/mbedtls-2.16.2/library\gcm.c ****     { 0, 0, 1, 1, 1, 1 };
 616:C:/Users/dtjld/workspace/AIoT/src/LiteOS_Lab/iot_link/network/dtls/mbedtls/mbedtls-2.16.2/library\gcm.c **** 
 617:C:/Users/dtjld/workspace/AIoT/src/LiteOS_Lab/iot_link/network/dtls/mbedtls/mbedtls-2.16.2/library\gcm.c **** static const unsigned char pt[MAX_TESTS][64] =
 618:C:/Users/dtjld/workspace/AIoT/src/LiteOS_Lab/iot_link/network/dtls/mbedtls/mbedtls-2.16.2/library\gcm.c **** {
 619:C:/Users/dtjld/workspace/AIoT/src/LiteOS_Lab/iot_link/network/dtls/mbedtls/mbedtls-2.16.2/library\gcm.c ****     { 0x00, 0x00, 0x00, 0x00, 0x00, 0x00, 0x00, 0x00,
 620:C:/Users/dtjld/workspace/AIoT/src/LiteOS_Lab/iot_link/network/dtls/mbedtls/mbedtls-2.16.2/library\gcm.c ****       0x00, 0x00, 0x00, 0x00, 0x00, 0x00, 0x00, 0x00 },
 621:C:/Users/dtjld/workspace/AIoT/src/LiteOS_Lab/iot_link/network/dtls/mbedtls/mbedtls-2.16.2/library\gcm.c ****     { 0xd9, 0x31, 0x32, 0x25, 0xf8, 0x84, 0x06, 0xe5,
 622:C:/Users/dtjld/workspace/AIoT/src/LiteOS_Lab/iot_link/network/dtls/mbedtls/mbedtls-2.16.2/library\gcm.c ****       0xa5, 0x59, 0x09, 0xc5, 0xaf, 0xf5, 0x26, 0x9a,
 623:C:/Users/dtjld/workspace/AIoT/src/LiteOS_Lab/iot_link/network/dtls/mbedtls/mbedtls-2.16.2/library\gcm.c ****       0x86, 0xa7, 0xa9, 0x53, 0x15, 0x34, 0xf7, 0xda,
 624:C:/Users/dtjld/workspace/AIoT/src/LiteOS_Lab/iot_link/network/dtls/mbedtls/mbedtls-2.16.2/library\gcm.c ****       0x2e, 0x4c, 0x30, 0x3d, 0x8a, 0x31, 0x8a, 0x72,
 625:C:/Users/dtjld/workspace/AIoT/src/LiteOS_Lab/iot_link/network/dtls/mbedtls/mbedtls-2.16.2/library\gcm.c ****       0x1c, 0x3c, 0x0c, 0x95, 0x95, 0x68, 0x09, 0x53,
 626:C:/Users/dtjld/workspace/AIoT/src/LiteOS_Lab/iot_link/network/dtls/mbedtls/mbedtls-2.16.2/library\gcm.c ****       0x2f, 0xcf, 0x0e, 0x24, 0x49, 0xa6, 0xb5, 0x25,
 627:C:/Users/dtjld/workspace/AIoT/src/LiteOS_Lab/iot_link/network/dtls/mbedtls/mbedtls-2.16.2/library\gcm.c ****       0xb1, 0x6a, 0xed, 0xf5, 0xaa, 0x0d, 0xe6, 0x57,
 628:C:/Users/dtjld/workspace/AIoT/src/LiteOS_Lab/iot_link/network/dtls/mbedtls/mbedtls-2.16.2/library\gcm.c ****       0xba, 0x63, 0x7b, 0x39, 0x1a, 0xaf, 0xd2, 0x55 },
 629:C:/Users/dtjld/workspace/AIoT/src/LiteOS_Lab/iot_link/network/dtls/mbedtls/mbedtls-2.16.2/library\gcm.c **** };
 630:C:/Users/dtjld/workspace/AIoT/src/LiteOS_Lab/iot_link/network/dtls/mbedtls/mbedtls-2.16.2/library\gcm.c **** 
 631:C:/Users/dtjld/workspace/AIoT/src/LiteOS_Lab/iot_link/network/dtls/mbedtls/mbedtls-2.16.2/library\gcm.c **** static const unsigned char ct[MAX_TESTS * 3][64] =
 632:C:/Users/dtjld/workspace/AIoT/src/LiteOS_Lab/iot_link/network/dtls/mbedtls/mbedtls-2.16.2/library\gcm.c **** {
 633:C:/Users/dtjld/workspace/AIoT/src/LiteOS_Lab/iot_link/network/dtls/mbedtls/mbedtls-2.16.2/library\gcm.c ****     { 0x00 },
 634:C:/Users/dtjld/workspace/AIoT/src/LiteOS_Lab/iot_link/network/dtls/mbedtls/mbedtls-2.16.2/library\gcm.c ****     { 0x03, 0x88, 0xda, 0xce, 0x60, 0xb6, 0xa3, 0x92,
 635:C:/Users/dtjld/workspace/AIoT/src/LiteOS_Lab/iot_link/network/dtls/mbedtls/mbedtls-2.16.2/library\gcm.c ****       0xf3, 0x28, 0xc2, 0xb9, 0x71, 0xb2, 0xfe, 0x78 },
 636:C:/Users/dtjld/workspace/AIoT/src/LiteOS_Lab/iot_link/network/dtls/mbedtls/mbedtls-2.16.2/library\gcm.c ****     { 0x42, 0x83, 0x1e, 0xc2, 0x21, 0x77, 0x74, 0x24,
 637:C:/Users/dtjld/workspace/AIoT/src/LiteOS_Lab/iot_link/network/dtls/mbedtls/mbedtls-2.16.2/library\gcm.c ****       0x4b, 0x72, 0x21, 0xb7, 0x84, 0xd0, 0xd4, 0x9c,
 638:C:/Users/dtjld/workspace/AIoT/src/LiteOS_Lab/iot_link/network/dtls/mbedtls/mbedtls-2.16.2/library\gcm.c ****       0xe3, 0xaa, 0x21, 0x2f, 0x2c, 0x02, 0xa4, 0xe0,
 639:C:/Users/dtjld/workspace/AIoT/src/LiteOS_Lab/iot_link/network/dtls/mbedtls/mbedtls-2.16.2/library\gcm.c ****       0x35, 0xc1, 0x7e, 0x23, 0x29, 0xac, 0xa1, 0x2e,
 640:C:/Users/dtjld/workspace/AIoT/src/LiteOS_Lab/iot_link/network/dtls/mbedtls/mbedtls-2.16.2/library\gcm.c ****       0x21, 0xd5, 0x14, 0xb2, 0x54, 0x66, 0x93, 0x1c,
ARM GAS  C:\Users\dtjld\AppData\Local\Temp\ccrYdj6j.s 			page 76


 641:C:/Users/dtjld/workspace/AIoT/src/LiteOS_Lab/iot_link/network/dtls/mbedtls/mbedtls-2.16.2/library\gcm.c ****       0x7d, 0x8f, 0x6a, 0x5a, 0xac, 0x84, 0xaa, 0x05,
 642:C:/Users/dtjld/workspace/AIoT/src/LiteOS_Lab/iot_link/network/dtls/mbedtls/mbedtls-2.16.2/library\gcm.c ****       0x1b, 0xa3, 0x0b, 0x39, 0x6a, 0x0a, 0xac, 0x97,
 643:C:/Users/dtjld/workspace/AIoT/src/LiteOS_Lab/iot_link/network/dtls/mbedtls/mbedtls-2.16.2/library\gcm.c ****       0x3d, 0x58, 0xe0, 0x91, 0x47, 0x3f, 0x59, 0x85 },
 644:C:/Users/dtjld/workspace/AIoT/src/LiteOS_Lab/iot_link/network/dtls/mbedtls/mbedtls-2.16.2/library\gcm.c ****     { 0x42, 0x83, 0x1e, 0xc2, 0x21, 0x77, 0x74, 0x24,
 645:C:/Users/dtjld/workspace/AIoT/src/LiteOS_Lab/iot_link/network/dtls/mbedtls/mbedtls-2.16.2/library\gcm.c ****       0x4b, 0x72, 0x21, 0xb7, 0x84, 0xd0, 0xd4, 0x9c,
 646:C:/Users/dtjld/workspace/AIoT/src/LiteOS_Lab/iot_link/network/dtls/mbedtls/mbedtls-2.16.2/library\gcm.c ****       0xe3, 0xaa, 0x21, 0x2f, 0x2c, 0x02, 0xa4, 0xe0,
 647:C:/Users/dtjld/workspace/AIoT/src/LiteOS_Lab/iot_link/network/dtls/mbedtls/mbedtls-2.16.2/library\gcm.c ****       0x35, 0xc1, 0x7e, 0x23, 0x29, 0xac, 0xa1, 0x2e,
 648:C:/Users/dtjld/workspace/AIoT/src/LiteOS_Lab/iot_link/network/dtls/mbedtls/mbedtls-2.16.2/library\gcm.c ****       0x21, 0xd5, 0x14, 0xb2, 0x54, 0x66, 0x93, 0x1c,
 649:C:/Users/dtjld/workspace/AIoT/src/LiteOS_Lab/iot_link/network/dtls/mbedtls/mbedtls-2.16.2/library\gcm.c ****       0x7d, 0x8f, 0x6a, 0x5a, 0xac, 0x84, 0xaa, 0x05,
 650:C:/Users/dtjld/workspace/AIoT/src/LiteOS_Lab/iot_link/network/dtls/mbedtls/mbedtls-2.16.2/library\gcm.c ****       0x1b, 0xa3, 0x0b, 0x39, 0x6a, 0x0a, 0xac, 0x97,
 651:C:/Users/dtjld/workspace/AIoT/src/LiteOS_Lab/iot_link/network/dtls/mbedtls/mbedtls-2.16.2/library\gcm.c ****       0x3d, 0x58, 0xe0, 0x91 },
 652:C:/Users/dtjld/workspace/AIoT/src/LiteOS_Lab/iot_link/network/dtls/mbedtls/mbedtls-2.16.2/library\gcm.c ****     { 0x61, 0x35, 0x3b, 0x4c, 0x28, 0x06, 0x93, 0x4a,
 653:C:/Users/dtjld/workspace/AIoT/src/LiteOS_Lab/iot_link/network/dtls/mbedtls/mbedtls-2.16.2/library\gcm.c ****       0x77, 0x7f, 0xf5, 0x1f, 0xa2, 0x2a, 0x47, 0x55,
 654:C:/Users/dtjld/workspace/AIoT/src/LiteOS_Lab/iot_link/network/dtls/mbedtls/mbedtls-2.16.2/library\gcm.c ****       0x69, 0x9b, 0x2a, 0x71, 0x4f, 0xcd, 0xc6, 0xf8,
 655:C:/Users/dtjld/workspace/AIoT/src/LiteOS_Lab/iot_link/network/dtls/mbedtls/mbedtls-2.16.2/library\gcm.c ****       0x37, 0x66, 0xe5, 0xf9, 0x7b, 0x6c, 0x74, 0x23,
 656:C:/Users/dtjld/workspace/AIoT/src/LiteOS_Lab/iot_link/network/dtls/mbedtls/mbedtls-2.16.2/library\gcm.c ****       0x73, 0x80, 0x69, 0x00, 0xe4, 0x9f, 0x24, 0xb2,
 657:C:/Users/dtjld/workspace/AIoT/src/LiteOS_Lab/iot_link/network/dtls/mbedtls/mbedtls-2.16.2/library\gcm.c ****       0x2b, 0x09, 0x75, 0x44, 0xd4, 0x89, 0x6b, 0x42,
 658:C:/Users/dtjld/workspace/AIoT/src/LiteOS_Lab/iot_link/network/dtls/mbedtls/mbedtls-2.16.2/library\gcm.c ****       0x49, 0x89, 0xb5, 0xe1, 0xeb, 0xac, 0x0f, 0x07,
 659:C:/Users/dtjld/workspace/AIoT/src/LiteOS_Lab/iot_link/network/dtls/mbedtls/mbedtls-2.16.2/library\gcm.c ****       0xc2, 0x3f, 0x45, 0x98 },
 660:C:/Users/dtjld/workspace/AIoT/src/LiteOS_Lab/iot_link/network/dtls/mbedtls/mbedtls-2.16.2/library\gcm.c ****     { 0x8c, 0xe2, 0x49, 0x98, 0x62, 0x56, 0x15, 0xb6,
 661:C:/Users/dtjld/workspace/AIoT/src/LiteOS_Lab/iot_link/network/dtls/mbedtls/mbedtls-2.16.2/library\gcm.c ****       0x03, 0xa0, 0x33, 0xac, 0xa1, 0x3f, 0xb8, 0x94,
 662:C:/Users/dtjld/workspace/AIoT/src/LiteOS_Lab/iot_link/network/dtls/mbedtls/mbedtls-2.16.2/library\gcm.c ****       0xbe, 0x91, 0x12, 0xa5, 0xc3, 0xa2, 0x11, 0xa8,
 663:C:/Users/dtjld/workspace/AIoT/src/LiteOS_Lab/iot_link/network/dtls/mbedtls/mbedtls-2.16.2/library\gcm.c ****       0xba, 0x26, 0x2a, 0x3c, 0xca, 0x7e, 0x2c, 0xa7,
 664:C:/Users/dtjld/workspace/AIoT/src/LiteOS_Lab/iot_link/network/dtls/mbedtls/mbedtls-2.16.2/library\gcm.c ****       0x01, 0xe4, 0xa9, 0xa4, 0xfb, 0xa4, 0x3c, 0x90,
 665:C:/Users/dtjld/workspace/AIoT/src/LiteOS_Lab/iot_link/network/dtls/mbedtls/mbedtls-2.16.2/library\gcm.c ****       0xcc, 0xdc, 0xb2, 0x81, 0xd4, 0x8c, 0x7c, 0x6f,
 666:C:/Users/dtjld/workspace/AIoT/src/LiteOS_Lab/iot_link/network/dtls/mbedtls/mbedtls-2.16.2/library\gcm.c ****       0xd6, 0x28, 0x75, 0xd2, 0xac, 0xa4, 0x17, 0x03,
 667:C:/Users/dtjld/workspace/AIoT/src/LiteOS_Lab/iot_link/network/dtls/mbedtls/mbedtls-2.16.2/library\gcm.c ****       0x4c, 0x34, 0xae, 0xe5 },
 668:C:/Users/dtjld/workspace/AIoT/src/LiteOS_Lab/iot_link/network/dtls/mbedtls/mbedtls-2.16.2/library\gcm.c ****     { 0x00 },
 669:C:/Users/dtjld/workspace/AIoT/src/LiteOS_Lab/iot_link/network/dtls/mbedtls/mbedtls-2.16.2/library\gcm.c ****     { 0x98, 0xe7, 0x24, 0x7c, 0x07, 0xf0, 0xfe, 0x41,
 670:C:/Users/dtjld/workspace/AIoT/src/LiteOS_Lab/iot_link/network/dtls/mbedtls/mbedtls-2.16.2/library\gcm.c ****       0x1c, 0x26, 0x7e, 0x43, 0x84, 0xb0, 0xf6, 0x00 },
 671:C:/Users/dtjld/workspace/AIoT/src/LiteOS_Lab/iot_link/network/dtls/mbedtls/mbedtls-2.16.2/library\gcm.c ****     { 0x39, 0x80, 0xca, 0x0b, 0x3c, 0x00, 0xe8, 0x41,
 672:C:/Users/dtjld/workspace/AIoT/src/LiteOS_Lab/iot_link/network/dtls/mbedtls/mbedtls-2.16.2/library\gcm.c ****       0xeb, 0x06, 0xfa, 0xc4, 0x87, 0x2a, 0x27, 0x57,
 673:C:/Users/dtjld/workspace/AIoT/src/LiteOS_Lab/iot_link/network/dtls/mbedtls/mbedtls-2.16.2/library\gcm.c ****       0x85, 0x9e, 0x1c, 0xea, 0xa6, 0xef, 0xd9, 0x84,
 674:C:/Users/dtjld/workspace/AIoT/src/LiteOS_Lab/iot_link/network/dtls/mbedtls/mbedtls-2.16.2/library\gcm.c ****       0x62, 0x85, 0x93, 0xb4, 0x0c, 0xa1, 0xe1, 0x9c,
 675:C:/Users/dtjld/workspace/AIoT/src/LiteOS_Lab/iot_link/network/dtls/mbedtls/mbedtls-2.16.2/library\gcm.c ****       0x7d, 0x77, 0x3d, 0x00, 0xc1, 0x44, 0xc5, 0x25,
 676:C:/Users/dtjld/workspace/AIoT/src/LiteOS_Lab/iot_link/network/dtls/mbedtls/mbedtls-2.16.2/library\gcm.c ****       0xac, 0x61, 0x9d, 0x18, 0xc8, 0x4a, 0x3f, 0x47,
 677:C:/Users/dtjld/workspace/AIoT/src/LiteOS_Lab/iot_link/network/dtls/mbedtls/mbedtls-2.16.2/library\gcm.c ****       0x18, 0xe2, 0x44, 0x8b, 0x2f, 0xe3, 0x24, 0xd9,
 678:C:/Users/dtjld/workspace/AIoT/src/LiteOS_Lab/iot_link/network/dtls/mbedtls/mbedtls-2.16.2/library\gcm.c ****       0xcc, 0xda, 0x27, 0x10, 0xac, 0xad, 0xe2, 0x56 },
 679:C:/Users/dtjld/workspace/AIoT/src/LiteOS_Lab/iot_link/network/dtls/mbedtls/mbedtls-2.16.2/library\gcm.c ****     { 0x39, 0x80, 0xca, 0x0b, 0x3c, 0x00, 0xe8, 0x41,
 680:C:/Users/dtjld/workspace/AIoT/src/LiteOS_Lab/iot_link/network/dtls/mbedtls/mbedtls-2.16.2/library\gcm.c ****       0xeb, 0x06, 0xfa, 0xc4, 0x87, 0x2a, 0x27, 0x57,
 681:C:/Users/dtjld/workspace/AIoT/src/LiteOS_Lab/iot_link/network/dtls/mbedtls/mbedtls-2.16.2/library\gcm.c ****       0x85, 0x9e, 0x1c, 0xea, 0xa6, 0xef, 0xd9, 0x84,
 682:C:/Users/dtjld/workspace/AIoT/src/LiteOS_Lab/iot_link/network/dtls/mbedtls/mbedtls-2.16.2/library\gcm.c ****       0x62, 0x85, 0x93, 0xb4, 0x0c, 0xa1, 0xe1, 0x9c,
 683:C:/Users/dtjld/workspace/AIoT/src/LiteOS_Lab/iot_link/network/dtls/mbedtls/mbedtls-2.16.2/library\gcm.c ****       0x7d, 0x77, 0x3d, 0x00, 0xc1, 0x44, 0xc5, 0x25,
 684:C:/Users/dtjld/workspace/AIoT/src/LiteOS_Lab/iot_link/network/dtls/mbedtls/mbedtls-2.16.2/library\gcm.c ****       0xac, 0x61, 0x9d, 0x18, 0xc8, 0x4a, 0x3f, 0x47,
 685:C:/Users/dtjld/workspace/AIoT/src/LiteOS_Lab/iot_link/network/dtls/mbedtls/mbedtls-2.16.2/library\gcm.c ****       0x18, 0xe2, 0x44, 0x8b, 0x2f, 0xe3, 0x24, 0xd9,
 686:C:/Users/dtjld/workspace/AIoT/src/LiteOS_Lab/iot_link/network/dtls/mbedtls/mbedtls-2.16.2/library\gcm.c ****       0xcc, 0xda, 0x27, 0x10 },
 687:C:/Users/dtjld/workspace/AIoT/src/LiteOS_Lab/iot_link/network/dtls/mbedtls/mbedtls-2.16.2/library\gcm.c ****     { 0x0f, 0x10, 0xf5, 0x99, 0xae, 0x14, 0xa1, 0x54,
 688:C:/Users/dtjld/workspace/AIoT/src/LiteOS_Lab/iot_link/network/dtls/mbedtls/mbedtls-2.16.2/library\gcm.c ****       0xed, 0x24, 0xb3, 0x6e, 0x25, 0x32, 0x4d, 0xb8,
 689:C:/Users/dtjld/workspace/AIoT/src/LiteOS_Lab/iot_link/network/dtls/mbedtls/mbedtls-2.16.2/library\gcm.c ****       0xc5, 0x66, 0x63, 0x2e, 0xf2, 0xbb, 0xb3, 0x4f,
 690:C:/Users/dtjld/workspace/AIoT/src/LiteOS_Lab/iot_link/network/dtls/mbedtls/mbedtls-2.16.2/library\gcm.c ****       0x83, 0x47, 0x28, 0x0f, 0xc4, 0x50, 0x70, 0x57,
 691:C:/Users/dtjld/workspace/AIoT/src/LiteOS_Lab/iot_link/network/dtls/mbedtls/mbedtls-2.16.2/library\gcm.c ****       0xfd, 0xdc, 0x29, 0xdf, 0x9a, 0x47, 0x1f, 0x75,
 692:C:/Users/dtjld/workspace/AIoT/src/LiteOS_Lab/iot_link/network/dtls/mbedtls/mbedtls-2.16.2/library\gcm.c ****       0xc6, 0x65, 0x41, 0xd4, 0xd4, 0xda, 0xd1, 0xc9,
 693:C:/Users/dtjld/workspace/AIoT/src/LiteOS_Lab/iot_link/network/dtls/mbedtls/mbedtls-2.16.2/library\gcm.c ****       0xe9, 0x3a, 0x19, 0xa5, 0x8e, 0x8b, 0x47, 0x3f,
 694:C:/Users/dtjld/workspace/AIoT/src/LiteOS_Lab/iot_link/network/dtls/mbedtls/mbedtls-2.16.2/library\gcm.c ****       0xa0, 0xf0, 0x62, 0xf7 },
 695:C:/Users/dtjld/workspace/AIoT/src/LiteOS_Lab/iot_link/network/dtls/mbedtls/mbedtls-2.16.2/library\gcm.c ****     { 0xd2, 0x7e, 0x88, 0x68, 0x1c, 0xe3, 0x24, 0x3c,
 696:C:/Users/dtjld/workspace/AIoT/src/LiteOS_Lab/iot_link/network/dtls/mbedtls/mbedtls-2.16.2/library\gcm.c ****       0x48, 0x30, 0x16, 0x5a, 0x8f, 0xdc, 0xf9, 0xff,
 697:C:/Users/dtjld/workspace/AIoT/src/LiteOS_Lab/iot_link/network/dtls/mbedtls/mbedtls-2.16.2/library\gcm.c ****       0x1d, 0xe9, 0xa1, 0xd8, 0xe6, 0xb4, 0x47, 0xef,
ARM GAS  C:\Users\dtjld\AppData\Local\Temp\ccrYdj6j.s 			page 77


 698:C:/Users/dtjld/workspace/AIoT/src/LiteOS_Lab/iot_link/network/dtls/mbedtls/mbedtls-2.16.2/library\gcm.c ****       0x6e, 0xf7, 0xb7, 0x98, 0x28, 0x66, 0x6e, 0x45,
 699:C:/Users/dtjld/workspace/AIoT/src/LiteOS_Lab/iot_link/network/dtls/mbedtls/mbedtls-2.16.2/library\gcm.c ****       0x81, 0xe7, 0x90, 0x12, 0xaf, 0x34, 0xdd, 0xd9,
 700:C:/Users/dtjld/workspace/AIoT/src/LiteOS_Lab/iot_link/network/dtls/mbedtls/mbedtls-2.16.2/library\gcm.c ****       0xe2, 0xf0, 0x37, 0x58, 0x9b, 0x29, 0x2d, 0xb3,
 701:C:/Users/dtjld/workspace/AIoT/src/LiteOS_Lab/iot_link/network/dtls/mbedtls/mbedtls-2.16.2/library\gcm.c ****       0xe6, 0x7c, 0x03, 0x67, 0x45, 0xfa, 0x22, 0xe7,
 702:C:/Users/dtjld/workspace/AIoT/src/LiteOS_Lab/iot_link/network/dtls/mbedtls/mbedtls-2.16.2/library\gcm.c ****       0xe9, 0xb7, 0x37, 0x3b },
 703:C:/Users/dtjld/workspace/AIoT/src/LiteOS_Lab/iot_link/network/dtls/mbedtls/mbedtls-2.16.2/library\gcm.c ****     { 0x00 },
 704:C:/Users/dtjld/workspace/AIoT/src/LiteOS_Lab/iot_link/network/dtls/mbedtls/mbedtls-2.16.2/library\gcm.c ****     { 0xce, 0xa7, 0x40, 0x3d, 0x4d, 0x60, 0x6b, 0x6e,
 705:C:/Users/dtjld/workspace/AIoT/src/LiteOS_Lab/iot_link/network/dtls/mbedtls/mbedtls-2.16.2/library\gcm.c ****       0x07, 0x4e, 0xc5, 0xd3, 0xba, 0xf3, 0x9d, 0x18 },
 706:C:/Users/dtjld/workspace/AIoT/src/LiteOS_Lab/iot_link/network/dtls/mbedtls/mbedtls-2.16.2/library\gcm.c ****     { 0x52, 0x2d, 0xc1, 0xf0, 0x99, 0x56, 0x7d, 0x07,
 707:C:/Users/dtjld/workspace/AIoT/src/LiteOS_Lab/iot_link/network/dtls/mbedtls/mbedtls-2.16.2/library\gcm.c ****       0xf4, 0x7f, 0x37, 0xa3, 0x2a, 0x84, 0x42, 0x7d,
 708:C:/Users/dtjld/workspace/AIoT/src/LiteOS_Lab/iot_link/network/dtls/mbedtls/mbedtls-2.16.2/library\gcm.c ****       0x64, 0x3a, 0x8c, 0xdc, 0xbf, 0xe5, 0xc0, 0xc9,
 709:C:/Users/dtjld/workspace/AIoT/src/LiteOS_Lab/iot_link/network/dtls/mbedtls/mbedtls-2.16.2/library\gcm.c ****       0x75, 0x98, 0xa2, 0xbd, 0x25, 0x55, 0xd1, 0xaa,
 710:C:/Users/dtjld/workspace/AIoT/src/LiteOS_Lab/iot_link/network/dtls/mbedtls/mbedtls-2.16.2/library\gcm.c ****       0x8c, 0xb0, 0x8e, 0x48, 0x59, 0x0d, 0xbb, 0x3d,
 711:C:/Users/dtjld/workspace/AIoT/src/LiteOS_Lab/iot_link/network/dtls/mbedtls/mbedtls-2.16.2/library\gcm.c ****       0xa7, 0xb0, 0x8b, 0x10, 0x56, 0x82, 0x88, 0x38,
 712:C:/Users/dtjld/workspace/AIoT/src/LiteOS_Lab/iot_link/network/dtls/mbedtls/mbedtls-2.16.2/library\gcm.c ****       0xc5, 0xf6, 0x1e, 0x63, 0x93, 0xba, 0x7a, 0x0a,
 713:C:/Users/dtjld/workspace/AIoT/src/LiteOS_Lab/iot_link/network/dtls/mbedtls/mbedtls-2.16.2/library\gcm.c ****       0xbc, 0xc9, 0xf6, 0x62, 0x89, 0x80, 0x15, 0xad },
 714:C:/Users/dtjld/workspace/AIoT/src/LiteOS_Lab/iot_link/network/dtls/mbedtls/mbedtls-2.16.2/library\gcm.c ****     { 0x52, 0x2d, 0xc1, 0xf0, 0x99, 0x56, 0x7d, 0x07,
 715:C:/Users/dtjld/workspace/AIoT/src/LiteOS_Lab/iot_link/network/dtls/mbedtls/mbedtls-2.16.2/library\gcm.c ****       0xf4, 0x7f, 0x37, 0xa3, 0x2a, 0x84, 0x42, 0x7d,
 716:C:/Users/dtjld/workspace/AIoT/src/LiteOS_Lab/iot_link/network/dtls/mbedtls/mbedtls-2.16.2/library\gcm.c ****       0x64, 0x3a, 0x8c, 0xdc, 0xbf, 0xe5, 0xc0, 0xc9,
 717:C:/Users/dtjld/workspace/AIoT/src/LiteOS_Lab/iot_link/network/dtls/mbedtls/mbedtls-2.16.2/library\gcm.c ****       0x75, 0x98, 0xa2, 0xbd, 0x25, 0x55, 0xd1, 0xaa,
 718:C:/Users/dtjld/workspace/AIoT/src/LiteOS_Lab/iot_link/network/dtls/mbedtls/mbedtls-2.16.2/library\gcm.c ****       0x8c, 0xb0, 0x8e, 0x48, 0x59, 0x0d, 0xbb, 0x3d,
 719:C:/Users/dtjld/workspace/AIoT/src/LiteOS_Lab/iot_link/network/dtls/mbedtls/mbedtls-2.16.2/library\gcm.c ****       0xa7, 0xb0, 0x8b, 0x10, 0x56, 0x82, 0x88, 0x38,
 720:C:/Users/dtjld/workspace/AIoT/src/LiteOS_Lab/iot_link/network/dtls/mbedtls/mbedtls-2.16.2/library\gcm.c ****       0xc5, 0xf6, 0x1e, 0x63, 0x93, 0xba, 0x7a, 0x0a,
 721:C:/Users/dtjld/workspace/AIoT/src/LiteOS_Lab/iot_link/network/dtls/mbedtls/mbedtls-2.16.2/library\gcm.c ****       0xbc, 0xc9, 0xf6, 0x62 },
 722:C:/Users/dtjld/workspace/AIoT/src/LiteOS_Lab/iot_link/network/dtls/mbedtls/mbedtls-2.16.2/library\gcm.c ****     { 0xc3, 0x76, 0x2d, 0xf1, 0xca, 0x78, 0x7d, 0x32,
 723:C:/Users/dtjld/workspace/AIoT/src/LiteOS_Lab/iot_link/network/dtls/mbedtls/mbedtls-2.16.2/library\gcm.c ****       0xae, 0x47, 0xc1, 0x3b, 0xf1, 0x98, 0x44, 0xcb,
 724:C:/Users/dtjld/workspace/AIoT/src/LiteOS_Lab/iot_link/network/dtls/mbedtls/mbedtls-2.16.2/library\gcm.c ****       0xaf, 0x1a, 0xe1, 0x4d, 0x0b, 0x97, 0x6a, 0xfa,
 725:C:/Users/dtjld/workspace/AIoT/src/LiteOS_Lab/iot_link/network/dtls/mbedtls/mbedtls-2.16.2/library\gcm.c ****       0xc5, 0x2f, 0xf7, 0xd7, 0x9b, 0xba, 0x9d, 0xe0,
 726:C:/Users/dtjld/workspace/AIoT/src/LiteOS_Lab/iot_link/network/dtls/mbedtls/mbedtls-2.16.2/library\gcm.c ****       0xfe, 0xb5, 0x82, 0xd3, 0x39, 0x34, 0xa4, 0xf0,
 727:C:/Users/dtjld/workspace/AIoT/src/LiteOS_Lab/iot_link/network/dtls/mbedtls/mbedtls-2.16.2/library\gcm.c ****       0x95, 0x4c, 0xc2, 0x36, 0x3b, 0xc7, 0x3f, 0x78,
 728:C:/Users/dtjld/workspace/AIoT/src/LiteOS_Lab/iot_link/network/dtls/mbedtls/mbedtls-2.16.2/library\gcm.c ****       0x62, 0xac, 0x43, 0x0e, 0x64, 0xab, 0xe4, 0x99,
 729:C:/Users/dtjld/workspace/AIoT/src/LiteOS_Lab/iot_link/network/dtls/mbedtls/mbedtls-2.16.2/library\gcm.c ****       0xf4, 0x7c, 0x9b, 0x1f },
 730:C:/Users/dtjld/workspace/AIoT/src/LiteOS_Lab/iot_link/network/dtls/mbedtls/mbedtls-2.16.2/library\gcm.c ****     { 0x5a, 0x8d, 0xef, 0x2f, 0x0c, 0x9e, 0x53, 0xf1,
 731:C:/Users/dtjld/workspace/AIoT/src/LiteOS_Lab/iot_link/network/dtls/mbedtls/mbedtls-2.16.2/library\gcm.c ****       0xf7, 0x5d, 0x78, 0x53, 0x65, 0x9e, 0x2a, 0x20,
 732:C:/Users/dtjld/workspace/AIoT/src/LiteOS_Lab/iot_link/network/dtls/mbedtls/mbedtls-2.16.2/library\gcm.c ****       0xee, 0xb2, 0xb2, 0x2a, 0xaf, 0xde, 0x64, 0x19,
 733:C:/Users/dtjld/workspace/AIoT/src/LiteOS_Lab/iot_link/network/dtls/mbedtls/mbedtls-2.16.2/library\gcm.c ****       0xa0, 0x58, 0xab, 0x4f, 0x6f, 0x74, 0x6b, 0xf4,
 734:C:/Users/dtjld/workspace/AIoT/src/LiteOS_Lab/iot_link/network/dtls/mbedtls/mbedtls-2.16.2/library\gcm.c ****       0x0f, 0xc0, 0xc3, 0xb7, 0x80, 0xf2, 0x44, 0x45,
 735:C:/Users/dtjld/workspace/AIoT/src/LiteOS_Lab/iot_link/network/dtls/mbedtls/mbedtls-2.16.2/library\gcm.c ****       0x2d, 0xa3, 0xeb, 0xf1, 0xc5, 0xd8, 0x2c, 0xde,
 736:C:/Users/dtjld/workspace/AIoT/src/LiteOS_Lab/iot_link/network/dtls/mbedtls/mbedtls-2.16.2/library\gcm.c ****       0xa2, 0x41, 0x89, 0x97, 0x20, 0x0e, 0xf8, 0x2e,
 737:C:/Users/dtjld/workspace/AIoT/src/LiteOS_Lab/iot_link/network/dtls/mbedtls/mbedtls-2.16.2/library\gcm.c ****       0x44, 0xae, 0x7e, 0x3f },
 738:C:/Users/dtjld/workspace/AIoT/src/LiteOS_Lab/iot_link/network/dtls/mbedtls/mbedtls-2.16.2/library\gcm.c **** };
 739:C:/Users/dtjld/workspace/AIoT/src/LiteOS_Lab/iot_link/network/dtls/mbedtls/mbedtls-2.16.2/library\gcm.c **** 
 740:C:/Users/dtjld/workspace/AIoT/src/LiteOS_Lab/iot_link/network/dtls/mbedtls/mbedtls-2.16.2/library\gcm.c **** static const unsigned char tag[MAX_TESTS * 3][16] =
 741:C:/Users/dtjld/workspace/AIoT/src/LiteOS_Lab/iot_link/network/dtls/mbedtls/mbedtls-2.16.2/library\gcm.c **** {
 742:C:/Users/dtjld/workspace/AIoT/src/LiteOS_Lab/iot_link/network/dtls/mbedtls/mbedtls-2.16.2/library\gcm.c ****     { 0x58, 0xe2, 0xfc, 0xce, 0xfa, 0x7e, 0x30, 0x61,
 743:C:/Users/dtjld/workspace/AIoT/src/LiteOS_Lab/iot_link/network/dtls/mbedtls/mbedtls-2.16.2/library\gcm.c ****       0x36, 0x7f, 0x1d, 0x57, 0xa4, 0xe7, 0x45, 0x5a },
 744:C:/Users/dtjld/workspace/AIoT/src/LiteOS_Lab/iot_link/network/dtls/mbedtls/mbedtls-2.16.2/library\gcm.c ****     { 0xab, 0x6e, 0x47, 0xd4, 0x2c, 0xec, 0x13, 0xbd,
 745:C:/Users/dtjld/workspace/AIoT/src/LiteOS_Lab/iot_link/network/dtls/mbedtls/mbedtls-2.16.2/library\gcm.c ****       0xf5, 0x3a, 0x67, 0xb2, 0x12, 0x57, 0xbd, 0xdf },
 746:C:/Users/dtjld/workspace/AIoT/src/LiteOS_Lab/iot_link/network/dtls/mbedtls/mbedtls-2.16.2/library\gcm.c ****     { 0x4d, 0x5c, 0x2a, 0xf3, 0x27, 0xcd, 0x64, 0xa6,
 747:C:/Users/dtjld/workspace/AIoT/src/LiteOS_Lab/iot_link/network/dtls/mbedtls/mbedtls-2.16.2/library\gcm.c ****       0x2c, 0xf3, 0x5a, 0xbd, 0x2b, 0xa6, 0xfa, 0xb4 },
 748:C:/Users/dtjld/workspace/AIoT/src/LiteOS_Lab/iot_link/network/dtls/mbedtls/mbedtls-2.16.2/library\gcm.c ****     { 0x5b, 0xc9, 0x4f, 0xbc, 0x32, 0x21, 0xa5, 0xdb,
 749:C:/Users/dtjld/workspace/AIoT/src/LiteOS_Lab/iot_link/network/dtls/mbedtls/mbedtls-2.16.2/library\gcm.c ****       0x94, 0xfa, 0xe9, 0x5a, 0xe7, 0x12, 0x1a, 0x47 },
 750:C:/Users/dtjld/workspace/AIoT/src/LiteOS_Lab/iot_link/network/dtls/mbedtls/mbedtls-2.16.2/library\gcm.c ****     { 0x36, 0x12, 0xd2, 0xe7, 0x9e, 0x3b, 0x07, 0x85,
 751:C:/Users/dtjld/workspace/AIoT/src/LiteOS_Lab/iot_link/network/dtls/mbedtls/mbedtls-2.16.2/library\gcm.c ****       0x56, 0x1b, 0xe1, 0x4a, 0xac, 0xa2, 0xfc, 0xcb },
 752:C:/Users/dtjld/workspace/AIoT/src/LiteOS_Lab/iot_link/network/dtls/mbedtls/mbedtls-2.16.2/library\gcm.c ****     { 0x61, 0x9c, 0xc5, 0xae, 0xff, 0xfe, 0x0b, 0xfa,
 753:C:/Users/dtjld/workspace/AIoT/src/LiteOS_Lab/iot_link/network/dtls/mbedtls/mbedtls-2.16.2/library\gcm.c ****       0x46, 0x2a, 0xf4, 0x3c, 0x16, 0x99, 0xd0, 0x50 },
 754:C:/Users/dtjld/workspace/AIoT/src/LiteOS_Lab/iot_link/network/dtls/mbedtls/mbedtls-2.16.2/library\gcm.c ****     { 0xcd, 0x33, 0xb2, 0x8a, 0xc7, 0x73, 0xf7, 0x4b,
ARM GAS  C:\Users\dtjld\AppData\Local\Temp\ccrYdj6j.s 			page 78


 755:C:/Users/dtjld/workspace/AIoT/src/LiteOS_Lab/iot_link/network/dtls/mbedtls/mbedtls-2.16.2/library\gcm.c ****       0xa0, 0x0e, 0xd1, 0xf3, 0x12, 0x57, 0x24, 0x35 },
 756:C:/Users/dtjld/workspace/AIoT/src/LiteOS_Lab/iot_link/network/dtls/mbedtls/mbedtls-2.16.2/library\gcm.c ****     { 0x2f, 0xf5, 0x8d, 0x80, 0x03, 0x39, 0x27, 0xab,
 757:C:/Users/dtjld/workspace/AIoT/src/LiteOS_Lab/iot_link/network/dtls/mbedtls/mbedtls-2.16.2/library\gcm.c ****       0x8e, 0xf4, 0xd4, 0x58, 0x75, 0x14, 0xf0, 0xfb },
 758:C:/Users/dtjld/workspace/AIoT/src/LiteOS_Lab/iot_link/network/dtls/mbedtls/mbedtls-2.16.2/library\gcm.c ****     { 0x99, 0x24, 0xa7, 0xc8, 0x58, 0x73, 0x36, 0xbf,
 759:C:/Users/dtjld/workspace/AIoT/src/LiteOS_Lab/iot_link/network/dtls/mbedtls/mbedtls-2.16.2/library\gcm.c ****       0xb1, 0x18, 0x02, 0x4d, 0xb8, 0x67, 0x4a, 0x14 },
 760:C:/Users/dtjld/workspace/AIoT/src/LiteOS_Lab/iot_link/network/dtls/mbedtls/mbedtls-2.16.2/library\gcm.c ****     { 0x25, 0x19, 0x49, 0x8e, 0x80, 0xf1, 0x47, 0x8f,
 761:C:/Users/dtjld/workspace/AIoT/src/LiteOS_Lab/iot_link/network/dtls/mbedtls/mbedtls-2.16.2/library\gcm.c ****       0x37, 0xba, 0x55, 0xbd, 0x6d, 0x27, 0x61, 0x8c },
 762:C:/Users/dtjld/workspace/AIoT/src/LiteOS_Lab/iot_link/network/dtls/mbedtls/mbedtls-2.16.2/library\gcm.c ****     { 0x65, 0xdc, 0xc5, 0x7f, 0xcf, 0x62, 0x3a, 0x24,
 763:C:/Users/dtjld/workspace/AIoT/src/LiteOS_Lab/iot_link/network/dtls/mbedtls/mbedtls-2.16.2/library\gcm.c ****       0x09, 0x4f, 0xcc, 0xa4, 0x0d, 0x35, 0x33, 0xf8 },
 764:C:/Users/dtjld/workspace/AIoT/src/LiteOS_Lab/iot_link/network/dtls/mbedtls/mbedtls-2.16.2/library\gcm.c ****     { 0xdc, 0xf5, 0x66, 0xff, 0x29, 0x1c, 0x25, 0xbb,
 765:C:/Users/dtjld/workspace/AIoT/src/LiteOS_Lab/iot_link/network/dtls/mbedtls/mbedtls-2.16.2/library\gcm.c ****       0xb8, 0x56, 0x8f, 0xc3, 0xd3, 0x76, 0xa6, 0xd9 },
 766:C:/Users/dtjld/workspace/AIoT/src/LiteOS_Lab/iot_link/network/dtls/mbedtls/mbedtls-2.16.2/library\gcm.c ****     { 0x53, 0x0f, 0x8a, 0xfb, 0xc7, 0x45, 0x36, 0xb9,
 767:C:/Users/dtjld/workspace/AIoT/src/LiteOS_Lab/iot_link/network/dtls/mbedtls/mbedtls-2.16.2/library\gcm.c ****       0xa9, 0x63, 0xb4, 0xf1, 0xc4, 0xcb, 0x73, 0x8b },
 768:C:/Users/dtjld/workspace/AIoT/src/LiteOS_Lab/iot_link/network/dtls/mbedtls/mbedtls-2.16.2/library\gcm.c ****     { 0xd0, 0xd1, 0xc8, 0xa7, 0x99, 0x99, 0x6b, 0xf0,
 769:C:/Users/dtjld/workspace/AIoT/src/LiteOS_Lab/iot_link/network/dtls/mbedtls/mbedtls-2.16.2/library\gcm.c ****       0x26, 0x5b, 0x98, 0xb5, 0xd4, 0x8a, 0xb9, 0x19 },
 770:C:/Users/dtjld/workspace/AIoT/src/LiteOS_Lab/iot_link/network/dtls/mbedtls/mbedtls-2.16.2/library\gcm.c ****     { 0xb0, 0x94, 0xda, 0xc5, 0xd9, 0x34, 0x71, 0xbd,
 771:C:/Users/dtjld/workspace/AIoT/src/LiteOS_Lab/iot_link/network/dtls/mbedtls/mbedtls-2.16.2/library\gcm.c ****       0xec, 0x1a, 0x50, 0x22, 0x70, 0xe3, 0xcc, 0x6c },
 772:C:/Users/dtjld/workspace/AIoT/src/LiteOS_Lab/iot_link/network/dtls/mbedtls/mbedtls-2.16.2/library\gcm.c ****     { 0x76, 0xfc, 0x6e, 0xce, 0x0f, 0x4e, 0x17, 0x68,
 773:C:/Users/dtjld/workspace/AIoT/src/LiteOS_Lab/iot_link/network/dtls/mbedtls/mbedtls-2.16.2/library\gcm.c ****       0xcd, 0xdf, 0x88, 0x53, 0xbb, 0x2d, 0x55, 0x1b },
 774:C:/Users/dtjld/workspace/AIoT/src/LiteOS_Lab/iot_link/network/dtls/mbedtls/mbedtls-2.16.2/library\gcm.c ****     { 0x3a, 0x33, 0x7d, 0xbf, 0x46, 0xa7, 0x92, 0xc4,
 775:C:/Users/dtjld/workspace/AIoT/src/LiteOS_Lab/iot_link/network/dtls/mbedtls/mbedtls-2.16.2/library\gcm.c ****       0x5e, 0x45, 0x49, 0x13, 0xfe, 0x2e, 0xa8, 0xf2 },
 776:C:/Users/dtjld/workspace/AIoT/src/LiteOS_Lab/iot_link/network/dtls/mbedtls/mbedtls-2.16.2/library\gcm.c ****     { 0xa4, 0x4a, 0x82, 0x66, 0xee, 0x1c, 0x8e, 0xb0,
 777:C:/Users/dtjld/workspace/AIoT/src/LiteOS_Lab/iot_link/network/dtls/mbedtls/mbedtls-2.16.2/library\gcm.c ****       0xc8, 0xb5, 0xd4, 0xcf, 0x5a, 0xe9, 0xf1, 0x9a },
 778:C:/Users/dtjld/workspace/AIoT/src/LiteOS_Lab/iot_link/network/dtls/mbedtls/mbedtls-2.16.2/library\gcm.c **** };
 779:C:/Users/dtjld/workspace/AIoT/src/LiteOS_Lab/iot_link/network/dtls/mbedtls/mbedtls-2.16.2/library\gcm.c **** 
 780:C:/Users/dtjld/workspace/AIoT/src/LiteOS_Lab/iot_link/network/dtls/mbedtls/mbedtls-2.16.2/library\gcm.c **** int mbedtls_gcm_self_test( int verbose )
 781:C:/Users/dtjld/workspace/AIoT/src/LiteOS_Lab/iot_link/network/dtls/mbedtls/mbedtls-2.16.2/library\gcm.c **** {
 3582              		.loc 1 781 0
 3583              		.cfi_startproc
 3584              		@ args = 0, pretend = 0, frame = 512
 3585              		@ frame_needed = 1, uses_anonymous_args = 0
 3586 0000 F0B5     		push	{r4, r5, r6, r7, lr}
 3587              	.LCFI51:
 3588              		.cfi_def_cfa_offset 20
 3589              		.cfi_offset 4, -20
 3590              		.cfi_offset 5, -16
 3591              		.cfi_offset 6, -12
 3592              		.cfi_offset 7, -8
 3593              		.cfi_offset 14, -4
 3594 0002 ADF5097D 		sub	sp, sp, #548
 3595              	.LCFI52:
 3596              		.cfi_def_cfa_offset 568
 3597 0006 08AF     		add	r7, sp, #32
 3598              	.LCFI53:
 3599              		.cfi_def_cfa 7, 536
 3600 0008 3B1D     		adds	r3, r7, #4
 3601 000a 1860     		str	r0, [r3]
