ARM GAS  C:\Users\dtjld\AppData\Local\Temp\ccU8krAq.s 			page 1


   1              		.cpu cortex-m4
   2              		.eabi_attribute 27, 1
   3              		.eabi_attribute 28, 1
   4              		.eabi_attribute 20, 1
   5              		.eabi_attribute 21, 1
   6              		.eabi_attribute 23, 3
   7              		.eabi_attribute 24, 1
   8              		.eabi_attribute 25, 1
   9              		.eabi_attribute 26, 1
  10              		.eabi_attribute 30, 6
  11              		.eabi_attribute 34, 1
  12              		.eabi_attribute 18, 4
  13              		.file	"los_task.c"
  14              		.text
  15              	.Ltext0:
  16              		.cfi_sections	.debug_frame
  17              		.section	.text.LOS_ListInit,"ax",%progbits
  18              		.align	1
  19              		.syntax unified
  20              		.thumb
  21              		.thumb_func
  22              		.fpu fpv4-sp-d16
  24              	LOS_ListInit:
  25              	.LFB123:
  26              		.file 1 "C:/Users/dtjld/Desktop/AIoT_software/LiteOS_Lab_overseas/LiteOS_Lab/iot_link/os/liteos/in
   1:C:/Users/dtjld/Desktop/AIoT_software/LiteOS_Lab_overseas/LiteOS_Lab/iot_link/os/liteos/include\los_list.h **** /*----------------------------------------------------------------------------
   2:C:/Users/dtjld/Desktop/AIoT_software/LiteOS_Lab_overseas/LiteOS_Lab/iot_link/os/liteos/include\los_list.h ****  * Copyright (c) <2013-2015>, <Huawei Technologies Co., Ltd>
   3:C:/Users/dtjld/Desktop/AIoT_software/LiteOS_Lab_overseas/LiteOS_Lab/iot_link/os/liteos/include\los_list.h ****  * All rights reserved.
   4:C:/Users/dtjld/Desktop/AIoT_software/LiteOS_Lab_overseas/LiteOS_Lab/iot_link/os/liteos/include\los_list.h ****  * Redistribution and use in source and binary forms, with or without modification,
   5:C:/Users/dtjld/Desktop/AIoT_software/LiteOS_Lab_overseas/LiteOS_Lab/iot_link/os/liteos/include\los_list.h ****  * are permitted provided that the following conditions are met:
   6:C:/Users/dtjld/Desktop/AIoT_software/LiteOS_Lab_overseas/LiteOS_Lab/iot_link/os/liteos/include\los_list.h ****  * 1. Redistributions of source code must retain the above copyright notice, this list of
   7:C:/Users/dtjld/Desktop/AIoT_software/LiteOS_Lab_overseas/LiteOS_Lab/iot_link/os/liteos/include\los_list.h ****  * conditions and the following disclaimer.
   8:C:/Users/dtjld/Desktop/AIoT_software/LiteOS_Lab_overseas/LiteOS_Lab/iot_link/os/liteos/include\los_list.h ****  * 2. Redistributions in binary form must reproduce the above copyright notice, this list
   9:C:/Users/dtjld/Desktop/AIoT_software/LiteOS_Lab_overseas/LiteOS_Lab/iot_link/os/liteos/include\los_list.h ****  * of conditions and the following disclaimer in the documentation and/or other materials
  10:C:/Users/dtjld/Desktop/AIoT_software/LiteOS_Lab_overseas/LiteOS_Lab/iot_link/os/liteos/include\los_list.h ****  * provided with the distribution.
  11:C:/Users/dtjld/Desktop/AIoT_software/LiteOS_Lab_overseas/LiteOS_Lab/iot_link/os/liteos/include\los_list.h ****  * 3. Neither the name of the copyright holder nor the names of its contributors may be used
  12:C:/Users/dtjld/Desktop/AIoT_software/LiteOS_Lab_overseas/LiteOS_Lab/iot_link/os/liteos/include\los_list.h ****  * to endorse or promote products derived from this software without specific prior written
  13:C:/Users/dtjld/Desktop/AIoT_software/LiteOS_Lab_overseas/LiteOS_Lab/iot_link/os/liteos/include\los_list.h ****  * permission.
  14:C:/Users/dtjld/Desktop/AIoT_software/LiteOS_Lab_overseas/LiteOS_Lab/iot_link/os/liteos/include\los_list.h ****  * THIS SOFTWARE IS PROVIDED BY THE COPYRIGHT HOLDERS AND CONTRIBUTORS
  15:C:/Users/dtjld/Desktop/AIoT_software/LiteOS_Lab_overseas/LiteOS_Lab/iot_link/os/liteos/include\los_list.h ****  * "AS IS" AND ANY EXPRESS OR IMPLIED WARRANTIES, INCLUDING, BUT NOT LIMITED TO,
  16:C:/Users/dtjld/Desktop/AIoT_software/LiteOS_Lab_overseas/LiteOS_Lab/iot_link/os/liteos/include\los_list.h ****  * THE IMPLIED WARRANTIES OF MERCHANTABILITY AND FITNESS FOR A PARTICULAR
  17:C:/Users/dtjld/Desktop/AIoT_software/LiteOS_Lab_overseas/LiteOS_Lab/iot_link/os/liteos/include\los_list.h ****  * PURPOSE ARE DISCLAIMED. IN NO EVENT SHALL THE COPYRIGHT HOLDER OR
  18:C:/Users/dtjld/Desktop/AIoT_software/LiteOS_Lab_overseas/LiteOS_Lab/iot_link/os/liteos/include\los_list.h ****  * CONTRIBUTORS BE LIABLE FOR ANY DIRECT, INDIRECT, INCIDENTAL, SPECIAL,
  19:C:/Users/dtjld/Desktop/AIoT_software/LiteOS_Lab_overseas/LiteOS_Lab/iot_link/os/liteos/include\los_list.h ****  * EXEMPLARY, OR CONSEQUENTIAL DAMAGES (INCLUDING, BUT NOT LIMITED TO,
  20:C:/Users/dtjld/Desktop/AIoT_software/LiteOS_Lab_overseas/LiteOS_Lab/iot_link/os/liteos/include\los_list.h ****  * PROCUREMENT OF SUBSTITUTE GOODS OR SERVICES; LOSS OF USE, DATA, OR PROFITS;
  21:C:/Users/dtjld/Desktop/AIoT_software/LiteOS_Lab_overseas/LiteOS_Lab/iot_link/os/liteos/include\los_list.h ****  * OR BUSINESS INTERRUPTION) HOWEVER CAUSED AND ON ANY THEORY OF LIABILITY,
  22:C:/Users/dtjld/Desktop/AIoT_software/LiteOS_Lab_overseas/LiteOS_Lab/iot_link/os/liteos/include\los_list.h ****  * WHETHER IN CONTRACT, STRICT LIABILITY, OR TORT (INCLUDING NEGLIGENCE OR
  23:C:/Users/dtjld/Desktop/AIoT_software/LiteOS_Lab_overseas/LiteOS_Lab/iot_link/os/liteos/include\los_list.h ****  * OTHERWISE) ARISING IN ANY WAY OUT OF THE USE OF THIS SOFTWARE, EVEN IF
  24:C:/Users/dtjld/Desktop/AIoT_software/LiteOS_Lab_overseas/LiteOS_Lab/iot_link/os/liteos/include\los_list.h ****  * ADVISED OF THE POSSIBILITY OF SUCH DAMAGE.
  25:C:/Users/dtjld/Desktop/AIoT_software/LiteOS_Lab_overseas/LiteOS_Lab/iot_link/os/liteos/include\los_list.h ****  *---------------------------------------------------------------------------*/
  26:C:/Users/dtjld/Desktop/AIoT_software/LiteOS_Lab_overseas/LiteOS_Lab/iot_link/os/liteos/include\los_list.h **** /*----------------------------------------------------------------------------
  27:C:/Users/dtjld/Desktop/AIoT_software/LiteOS_Lab_overseas/LiteOS_Lab/iot_link/os/liteos/include\los_list.h ****  * Notice of Export Control Law
  28:C:/Users/dtjld/Desktop/AIoT_software/LiteOS_Lab_overseas/LiteOS_Lab/iot_link/os/liteos/include\los_list.h ****  * ===============================================
  29:C:/Users/dtjld/Desktop/AIoT_software/LiteOS_Lab_overseas/LiteOS_Lab/iot_link/os/liteos/include\los_list.h ****  * Huawei LiteOS may be subject to applicable export control laws and regulations, which might
  30:C:/Users/dtjld/Desktop/AIoT_software/LiteOS_Lab_overseas/LiteOS_Lab/iot_link/os/liteos/include\los_list.h ****  * include those applicable to Huawei LiteOS of U.S. and the country in which you are located.
  31:C:/Users/dtjld/Desktop/AIoT_software/LiteOS_Lab_overseas/LiteOS_Lab/iot_link/os/liteos/include\los_list.h ****  * Import, export and usage of Huawei LiteOS in any manner by you shall be in compliance with such
  32:C:/Users/dtjld/Desktop/AIoT_software/LiteOS_Lab_overseas/LiteOS_Lab/iot_link/os/liteos/include\los_list.h ****  * applicable export control laws and regulations.
ARM GAS  C:\Users\dtjld\AppData\Local\Temp\ccU8krAq.s 			page 2


  33:C:/Users/dtjld/Desktop/AIoT_software/LiteOS_Lab_overseas/LiteOS_Lab/iot_link/os/liteos/include\los_list.h ****  *---------------------------------------------------------------------------*/
  34:C:/Users/dtjld/Desktop/AIoT_software/LiteOS_Lab_overseas/LiteOS_Lab/iot_link/os/liteos/include\los_list.h **** 
  35:C:/Users/dtjld/Desktop/AIoT_software/LiteOS_Lab_overseas/LiteOS_Lab/iot_link/os/liteos/include\los_list.h ****  /** @defgroup los_list Doubly linked list
  36:C:/Users/dtjld/Desktop/AIoT_software/LiteOS_Lab_overseas/LiteOS_Lab/iot_link/os/liteos/include\los_list.h ****  * @ingroup kernel
  37:C:/Users/dtjld/Desktop/AIoT_software/LiteOS_Lab_overseas/LiteOS_Lab/iot_link/os/liteos/include\los_list.h ****  */
  38:C:/Users/dtjld/Desktop/AIoT_software/LiteOS_Lab_overseas/LiteOS_Lab/iot_link/os/liteos/include\los_list.h **** 
  39:C:/Users/dtjld/Desktop/AIoT_software/LiteOS_Lab_overseas/LiteOS_Lab/iot_link/os/liteos/include\los_list.h **** #ifndef _LOS_LIST_H
  40:C:/Users/dtjld/Desktop/AIoT_software/LiteOS_Lab_overseas/LiteOS_Lab/iot_link/os/liteos/include\los_list.h **** #define _LOS_LIST_H
  41:C:/Users/dtjld/Desktop/AIoT_software/LiteOS_Lab_overseas/LiteOS_Lab/iot_link/os/liteos/include\los_list.h **** 
  42:C:/Users/dtjld/Desktop/AIoT_software/LiteOS_Lab_overseas/LiteOS_Lab/iot_link/os/liteos/include\los_list.h **** #include "los_typedef.h"
  43:C:/Users/dtjld/Desktop/AIoT_software/LiteOS_Lab_overseas/LiteOS_Lab/iot_link/os/liteos/include\los_list.h **** 
  44:C:/Users/dtjld/Desktop/AIoT_software/LiteOS_Lab_overseas/LiteOS_Lab/iot_link/os/liteos/include\los_list.h **** #ifdef __cplusplus
  45:C:/Users/dtjld/Desktop/AIoT_software/LiteOS_Lab_overseas/LiteOS_Lab/iot_link/os/liteos/include\los_list.h **** #if __cplusplus
  46:C:/Users/dtjld/Desktop/AIoT_software/LiteOS_Lab_overseas/LiteOS_Lab/iot_link/os/liteos/include\los_list.h **** extern "C" {
  47:C:/Users/dtjld/Desktop/AIoT_software/LiteOS_Lab_overseas/LiteOS_Lab/iot_link/os/liteos/include\los_list.h **** #endif /* __cplusplus */
  48:C:/Users/dtjld/Desktop/AIoT_software/LiteOS_Lab_overseas/LiteOS_Lab/iot_link/os/liteos/include\los_list.h **** #endif /* __cplusplus */
  49:C:/Users/dtjld/Desktop/AIoT_software/LiteOS_Lab_overseas/LiteOS_Lab/iot_link/os/liteos/include\los_list.h **** 
  50:C:/Users/dtjld/Desktop/AIoT_software/LiteOS_Lab_overseas/LiteOS_Lab/iot_link/os/liteos/include\los_list.h **** 
  51:C:/Users/dtjld/Desktop/AIoT_software/LiteOS_Lab_overseas/LiteOS_Lab/iot_link/os/liteos/include\los_list.h **** /**
  52:C:/Users/dtjld/Desktop/AIoT_software/LiteOS_Lab_overseas/LiteOS_Lab/iot_link/os/liteos/include\los_list.h ****  *@ingroup los_list
  53:C:/Users/dtjld/Desktop/AIoT_software/LiteOS_Lab_overseas/LiteOS_Lab/iot_link/os/liteos/include\los_list.h ****  *Structure of a node in a doubly linked list.
  54:C:/Users/dtjld/Desktop/AIoT_software/LiteOS_Lab_overseas/LiteOS_Lab/iot_link/os/liteos/include\los_list.h ****  */
  55:C:/Users/dtjld/Desktop/AIoT_software/LiteOS_Lab_overseas/LiteOS_Lab/iot_link/os/liteos/include\los_list.h **** typedef struct LOS_DL_LIST
  56:C:/Users/dtjld/Desktop/AIoT_software/LiteOS_Lab_overseas/LiteOS_Lab/iot_link/os/liteos/include\los_list.h **** {
  57:C:/Users/dtjld/Desktop/AIoT_software/LiteOS_Lab_overseas/LiteOS_Lab/iot_link/os/liteos/include\los_list.h ****     struct LOS_DL_LIST *pstPrev;            /**< Current node's pointer to the previous node*/
  58:C:/Users/dtjld/Desktop/AIoT_software/LiteOS_Lab_overseas/LiteOS_Lab/iot_link/os/liteos/include\los_list.h ****     struct LOS_DL_LIST *pstNext;            /**< Current node's pointer to the next node*/
  59:C:/Users/dtjld/Desktop/AIoT_software/LiteOS_Lab_overseas/LiteOS_Lab/iot_link/os/liteos/include\los_list.h **** } LOS_DL_LIST;
  60:C:/Users/dtjld/Desktop/AIoT_software/LiteOS_Lab_overseas/LiteOS_Lab/iot_link/os/liteos/include\los_list.h **** 
  61:C:/Users/dtjld/Desktop/AIoT_software/LiteOS_Lab_overseas/LiteOS_Lab/iot_link/os/liteos/include\los_list.h **** /**
  62:C:/Users/dtjld/Desktop/AIoT_software/LiteOS_Lab_overseas/LiteOS_Lab/iot_link/os/liteos/include\los_list.h ****  *@ingroup los_list
  63:C:/Users/dtjld/Desktop/AIoT_software/LiteOS_Lab_overseas/LiteOS_Lab/iot_link/os/liteos/include\los_list.h ****  *@brief Initialize a doubly linked list.
  64:C:/Users/dtjld/Desktop/AIoT_software/LiteOS_Lab_overseas/LiteOS_Lab/iot_link/os/liteos/include\los_list.h ****  *
  65:C:/Users/dtjld/Desktop/AIoT_software/LiteOS_Lab_overseas/LiteOS_Lab/iot_link/os/liteos/include\los_list.h ****  *@par Description:
  66:C:/Users/dtjld/Desktop/AIoT_software/LiteOS_Lab_overseas/LiteOS_Lab/iot_link/os/liteos/include\los_list.h ****  *This API is used to initialize a doubly linked list.
  67:C:/Users/dtjld/Desktop/AIoT_software/LiteOS_Lab_overseas/LiteOS_Lab/iot_link/os/liteos/include\los_list.h ****  *@attention
  68:C:/Users/dtjld/Desktop/AIoT_software/LiteOS_Lab_overseas/LiteOS_Lab/iot_link/os/liteos/include\los_list.h ****  *<ul>
  69:C:/Users/dtjld/Desktop/AIoT_software/LiteOS_Lab_overseas/LiteOS_Lab/iot_link/os/liteos/include\los_list.h ****  *<li>The parameter passed in should be ensured to be a legal pointer.</li>
  70:C:/Users/dtjld/Desktop/AIoT_software/LiteOS_Lab_overseas/LiteOS_Lab/iot_link/os/liteos/include\los_list.h ****  *</ul>
  71:C:/Users/dtjld/Desktop/AIoT_software/LiteOS_Lab_overseas/LiteOS_Lab/iot_link/os/liteos/include\los_list.h ****  *
  72:C:/Users/dtjld/Desktop/AIoT_software/LiteOS_Lab_overseas/LiteOS_Lab/iot_link/os/liteos/include\los_list.h ****  *@param pstList    [IN] Node in a doubly linked list.
  73:C:/Users/dtjld/Desktop/AIoT_software/LiteOS_Lab_overseas/LiteOS_Lab/iot_link/os/liteos/include\los_list.h ****  *
  74:C:/Users/dtjld/Desktop/AIoT_software/LiteOS_Lab_overseas/LiteOS_Lab/iot_link/os/liteos/include\los_list.h ****  *@retval None.
  75:C:/Users/dtjld/Desktop/AIoT_software/LiteOS_Lab_overseas/LiteOS_Lab/iot_link/os/liteos/include\los_list.h ****  *@par Dependency:
  76:C:/Users/dtjld/Desktop/AIoT_software/LiteOS_Lab_overseas/LiteOS_Lab/iot_link/os/liteos/include\los_list.h ****  *<ul><li>los_list.h: the header file that contains the API declaration.</li></ul>
  77:C:/Users/dtjld/Desktop/AIoT_software/LiteOS_Lab_overseas/LiteOS_Lab/iot_link/os/liteos/include\los_list.h ****  *@see
  78:C:/Users/dtjld/Desktop/AIoT_software/LiteOS_Lab_overseas/LiteOS_Lab/iot_link/os/liteos/include\los_list.h ****  *@since Huawei LiteOS V100R001C00
  79:C:/Users/dtjld/Desktop/AIoT_software/LiteOS_Lab_overseas/LiteOS_Lab/iot_link/os/liteos/include\los_list.h ****  */
  80:C:/Users/dtjld/Desktop/AIoT_software/LiteOS_Lab_overseas/LiteOS_Lab/iot_link/os/liteos/include\los_list.h **** LITE_OS_SEC_ALW_INLINE STATIC_INLINE VOID LOS_ListInit(LOS_DL_LIST *pstList)
  81:C:/Users/dtjld/Desktop/AIoT_software/LiteOS_Lab_overseas/LiteOS_Lab/iot_link/os/liteos/include\los_list.h **** {
  27              		.loc 1 81 0
  28              		.cfi_startproc
  29              		@ args = 0, pretend = 0, frame = 8
  30              		@ frame_needed = 1, uses_anonymous_args = 0
  31              		@ link register save eliminated.
  32 0000 80B4     		push	{r7}
  33              	.LCFI0:
  34              		.cfi_def_cfa_offset 4
ARM GAS  C:\Users\dtjld\AppData\Local\Temp\ccU8krAq.s 			page 3


  35              		.cfi_offset 7, -4
  36 0002 83B0     		sub	sp, sp, #12
  37              	.LCFI1:
  38              		.cfi_def_cfa_offset 16
  39 0004 00AF     		add	r7, sp, #0
  40              	.LCFI2:
  41              		.cfi_def_cfa_register 7
  42 0006 7860     		str	r0, [r7, #4]
  82:C:/Users/dtjld/Desktop/AIoT_software/LiteOS_Lab_overseas/LiteOS_Lab/iot_link/os/liteos/include\los_list.h ****     pstList->pstNext = pstList;
  43              		.loc 1 82 0
  44 0008 7B68     		ldr	r3, [r7, #4]
  45 000a 7A68     		ldr	r2, [r7, #4]
  46 000c 5A60     		str	r2, [r3, #4]
  83:C:/Users/dtjld/Desktop/AIoT_software/LiteOS_Lab_overseas/LiteOS_Lab/iot_link/os/liteos/include\los_list.h ****     pstList->pstPrev = pstList;
  47              		.loc 1 83 0
  48 000e 7B68     		ldr	r3, [r7, #4]
  49 0010 7A68     		ldr	r2, [r7, #4]
  50 0012 1A60     		str	r2, [r3]
  84:C:/Users/dtjld/Desktop/AIoT_software/LiteOS_Lab_overseas/LiteOS_Lab/iot_link/os/liteos/include\los_list.h **** }
  51              		.loc 1 84 0
  52 0014 00BF     		nop
  53 0016 0C37     		adds	r7, r7, #12
  54              	.LCFI3:
  55              		.cfi_def_cfa_offset 4
  56 0018 BD46     		mov	sp, r7
  57              	.LCFI4:
  58              		.cfi_def_cfa_register 13
  59              		@ sp needed
  60 001a 5DF8047B 		ldr	r7, [sp], #4
  61              	.LCFI5:
  62              		.cfi_restore 7
  63              		.cfi_def_cfa_offset 0
  64 001e 7047     		bx	lr
  65              		.cfi_endproc
  66              	.LFE123:
  68              		.section	.text.LOS_ListAdd,"ax",%progbits
  69              		.align	1
  70              		.syntax unified
  71              		.thumb
  72              		.thumb_func
  73              		.fpu fpv4-sp-d16
  75              	LOS_ListAdd:
  76              	.LFB124:
  85:C:/Users/dtjld/Desktop/AIoT_software/LiteOS_Lab_overseas/LiteOS_Lab/iot_link/os/liteos/include\los_list.h **** 
  86:C:/Users/dtjld/Desktop/AIoT_software/LiteOS_Lab_overseas/LiteOS_Lab/iot_link/os/liteos/include\los_list.h **** /**
  87:C:/Users/dtjld/Desktop/AIoT_software/LiteOS_Lab_overseas/LiteOS_Lab/iot_link/os/liteos/include\los_list.h ****  *@ingroup los_list
  88:C:/Users/dtjld/Desktop/AIoT_software/LiteOS_Lab_overseas/LiteOS_Lab/iot_link/os/liteos/include\los_list.h ****  *@brief Point to the next node pointed to by the current node.
  89:C:/Users/dtjld/Desktop/AIoT_software/LiteOS_Lab_overseas/LiteOS_Lab/iot_link/os/liteos/include\los_list.h ****  *
  90:C:/Users/dtjld/Desktop/AIoT_software/LiteOS_Lab_overseas/LiteOS_Lab/iot_link/os/liteos/include\los_list.h ****  *@par Description:
  91:C:/Users/dtjld/Desktop/AIoT_software/LiteOS_Lab_overseas/LiteOS_Lab/iot_link/os/liteos/include\los_list.h ****  *<ul>
  92:C:/Users/dtjld/Desktop/AIoT_software/LiteOS_Lab_overseas/LiteOS_Lab/iot_link/os/liteos/include\los_list.h ****  *<li>This API is used to point to the next node pointed to by the current node.</li>
  93:C:/Users/dtjld/Desktop/AIoT_software/LiteOS_Lab_overseas/LiteOS_Lab/iot_link/os/liteos/include\los_list.h ****  *</ul>
  94:C:/Users/dtjld/Desktop/AIoT_software/LiteOS_Lab_overseas/LiteOS_Lab/iot_link/os/liteos/include\los_list.h ****  *@attention
  95:C:/Users/dtjld/Desktop/AIoT_software/LiteOS_Lab_overseas/LiteOS_Lab/iot_link/os/liteos/include\los_list.h ****  *<ul>
  96:C:/Users/dtjld/Desktop/AIoT_software/LiteOS_Lab_overseas/LiteOS_Lab/iot_link/os/liteos/include\los_list.h ****  *<li>None.</li>
  97:C:/Users/dtjld/Desktop/AIoT_software/LiteOS_Lab_overseas/LiteOS_Lab/iot_link/os/liteos/include\los_list.h ****  *</ul>
  98:C:/Users/dtjld/Desktop/AIoT_software/LiteOS_Lab_overseas/LiteOS_Lab/iot_link/os/liteos/include\los_list.h ****  *
ARM GAS  C:\Users\dtjld\AppData\Local\Temp\ccU8krAq.s 			page 4


  99:C:/Users/dtjld/Desktop/AIoT_software/LiteOS_Lab_overseas/LiteOS_Lab/iot_link/os/liteos/include\los_list.h ****  *@param pstObject  [IN] Node in the doubly linked list.
 100:C:/Users/dtjld/Desktop/AIoT_software/LiteOS_Lab_overseas/LiteOS_Lab/iot_link/os/liteos/include\los_list.h ****  *
 101:C:/Users/dtjld/Desktop/AIoT_software/LiteOS_Lab_overseas/LiteOS_Lab/iot_link/os/liteos/include\los_list.h ****  *@retval None.
 102:C:/Users/dtjld/Desktop/AIoT_software/LiteOS_Lab_overseas/LiteOS_Lab/iot_link/os/liteos/include\los_list.h ****  *@par Dependency:
 103:C:/Users/dtjld/Desktop/AIoT_software/LiteOS_Lab_overseas/LiteOS_Lab/iot_link/os/liteos/include\los_list.h ****  *<ul><li>los_list.h: the header file that contains the API declaration.</li></ul>
 104:C:/Users/dtjld/Desktop/AIoT_software/LiteOS_Lab_overseas/LiteOS_Lab/iot_link/os/liteos/include\los_list.h ****  *@see
 105:C:/Users/dtjld/Desktop/AIoT_software/LiteOS_Lab_overseas/LiteOS_Lab/iot_link/os/liteos/include\los_list.h ****  *@since Huawei LiteOS V100R001C00
 106:C:/Users/dtjld/Desktop/AIoT_software/LiteOS_Lab_overseas/LiteOS_Lab/iot_link/os/liteos/include\los_list.h ****  */
 107:C:/Users/dtjld/Desktop/AIoT_software/LiteOS_Lab_overseas/LiteOS_Lab/iot_link/os/liteos/include\los_list.h **** #define LOS_DL_LIST_FIRST(pstObject) ((pstObject)->pstNext)
 108:C:/Users/dtjld/Desktop/AIoT_software/LiteOS_Lab_overseas/LiteOS_Lab/iot_link/os/liteos/include\los_list.h **** 
 109:C:/Users/dtjld/Desktop/AIoT_software/LiteOS_Lab_overseas/LiteOS_Lab/iot_link/os/liteos/include\los_list.h **** /**
 110:C:/Users/dtjld/Desktop/AIoT_software/LiteOS_Lab_overseas/LiteOS_Lab/iot_link/os/liteos/include\los_list.h ****  *@ingroup los_list
 111:C:/Users/dtjld/Desktop/AIoT_software/LiteOS_Lab_overseas/LiteOS_Lab/iot_link/os/liteos/include\los_list.h ****  *@brief Insert a new node to a doubly linked list.
 112:C:/Users/dtjld/Desktop/AIoT_software/LiteOS_Lab_overseas/LiteOS_Lab/iot_link/os/liteos/include\los_list.h ****  *
 113:C:/Users/dtjld/Desktop/AIoT_software/LiteOS_Lab_overseas/LiteOS_Lab/iot_link/os/liteos/include\los_list.h ****  *@par Description:
 114:C:/Users/dtjld/Desktop/AIoT_software/LiteOS_Lab_overseas/LiteOS_Lab/iot_link/os/liteos/include\los_list.h ****  *This API is used to insert a new node to a doubly linked list.
 115:C:/Users/dtjld/Desktop/AIoT_software/LiteOS_Lab_overseas/LiteOS_Lab/iot_link/os/liteos/include\los_list.h ****  *@attention
 116:C:/Users/dtjld/Desktop/AIoT_software/LiteOS_Lab_overseas/LiteOS_Lab/iot_link/os/liteos/include\los_list.h ****  *<ul>
 117:C:/Users/dtjld/Desktop/AIoT_software/LiteOS_Lab_overseas/LiteOS_Lab/iot_link/os/liteos/include\los_list.h ****  *<li>The parameters passed in should be ensured to be legal pointers.</li>
 118:C:/Users/dtjld/Desktop/AIoT_software/LiteOS_Lab_overseas/LiteOS_Lab/iot_link/os/liteos/include\los_list.h ****  *</ul>
 119:C:/Users/dtjld/Desktop/AIoT_software/LiteOS_Lab_overseas/LiteOS_Lab/iot_link/os/liteos/include\los_list.h ****  *
 120:C:/Users/dtjld/Desktop/AIoT_software/LiteOS_Lab_overseas/LiteOS_Lab/iot_link/os/liteos/include\los_list.h ****  *@param pstList    [IN]   Doubly linked list where the new node is inserted.
 121:C:/Users/dtjld/Desktop/AIoT_software/LiteOS_Lab_overseas/LiteOS_Lab/iot_link/os/liteos/include\los_list.h ****  *@param pstNode    [IN]   New node to be inserted.
 122:C:/Users/dtjld/Desktop/AIoT_software/LiteOS_Lab_overseas/LiteOS_Lab/iot_link/os/liteos/include\los_list.h ****  *
 123:C:/Users/dtjld/Desktop/AIoT_software/LiteOS_Lab_overseas/LiteOS_Lab/iot_link/os/liteos/include\los_list.h ****  *@retval None
 124:C:/Users/dtjld/Desktop/AIoT_software/LiteOS_Lab_overseas/LiteOS_Lab/iot_link/os/liteos/include\los_list.h ****  *@par Dependency:
 125:C:/Users/dtjld/Desktop/AIoT_software/LiteOS_Lab_overseas/LiteOS_Lab/iot_link/os/liteos/include\los_list.h ****  *<ul><li>los_list.h: the header file that contains the API declaration.</li></ul>
 126:C:/Users/dtjld/Desktop/AIoT_software/LiteOS_Lab_overseas/LiteOS_Lab/iot_link/os/liteos/include\los_list.h ****  *@see LOS_ListDelete
 127:C:/Users/dtjld/Desktop/AIoT_software/LiteOS_Lab_overseas/LiteOS_Lab/iot_link/os/liteos/include\los_list.h ****  *@since Huawei LiteOS V100R001C00
 128:C:/Users/dtjld/Desktop/AIoT_software/LiteOS_Lab_overseas/LiteOS_Lab/iot_link/os/liteos/include\los_list.h ****  */
 129:C:/Users/dtjld/Desktop/AIoT_software/LiteOS_Lab_overseas/LiteOS_Lab/iot_link/os/liteos/include\los_list.h **** LITE_OS_SEC_ALW_INLINE STATIC_INLINE VOID LOS_ListAdd(LOS_DL_LIST *pstList, LOS_DL_LIST *pstNode)
 130:C:/Users/dtjld/Desktop/AIoT_software/LiteOS_Lab_overseas/LiteOS_Lab/iot_link/os/liteos/include\los_list.h **** {
  77              		.loc 1 130 0
  78              		.cfi_startproc
  79              		@ args = 0, pretend = 0, frame = 8
  80              		@ frame_needed = 1, uses_anonymous_args = 0
  81              		@ link register save eliminated.
  82 0000 80B4     		push	{r7}
  83              	.LCFI6:
  84              		.cfi_def_cfa_offset 4
  85              		.cfi_offset 7, -4
  86 0002 83B0     		sub	sp, sp, #12
  87              	.LCFI7:
  88              		.cfi_def_cfa_offset 16
  89 0004 00AF     		add	r7, sp, #0
  90              	.LCFI8:
  91              		.cfi_def_cfa_register 7
  92 0006 7860     		str	r0, [r7, #4]
  93 0008 3960     		str	r1, [r7]
 131:C:/Users/dtjld/Desktop/AIoT_software/LiteOS_Lab_overseas/LiteOS_Lab/iot_link/os/liteos/include\los_list.h ****     pstNode->pstNext = pstList->pstNext;
  94              		.loc 1 131 0
  95 000a 7B68     		ldr	r3, [r7, #4]
  96 000c 5A68     		ldr	r2, [r3, #4]
  97 000e 3B68     		ldr	r3, [r7]
  98 0010 5A60     		str	r2, [r3, #4]
 132:C:/Users/dtjld/Desktop/AIoT_software/LiteOS_Lab_overseas/LiteOS_Lab/iot_link/os/liteos/include\los_list.h ****     pstNode->pstPrev = pstList;
  99              		.loc 1 132 0
ARM GAS  C:\Users\dtjld\AppData\Local\Temp\ccU8krAq.s 			page 5


 100 0012 3B68     		ldr	r3, [r7]
 101 0014 7A68     		ldr	r2, [r7, #4]
 102 0016 1A60     		str	r2, [r3]
 133:C:/Users/dtjld/Desktop/AIoT_software/LiteOS_Lab_overseas/LiteOS_Lab/iot_link/os/liteos/include\los_list.h ****     pstList->pstNext->pstPrev = pstNode;
 103              		.loc 1 133 0
 104 0018 7B68     		ldr	r3, [r7, #4]
 105 001a 5B68     		ldr	r3, [r3, #4]
 106 001c 3A68     		ldr	r2, [r7]
 107 001e 1A60     		str	r2, [r3]
 134:C:/Users/dtjld/Desktop/AIoT_software/LiteOS_Lab_overseas/LiteOS_Lab/iot_link/os/liteos/include\los_list.h ****     pstList->pstNext = pstNode;
 108              		.loc 1 134 0
 109 0020 7B68     		ldr	r3, [r7, #4]
 110 0022 3A68     		ldr	r2, [r7]
 111 0024 5A60     		str	r2, [r3, #4]
 135:C:/Users/dtjld/Desktop/AIoT_software/LiteOS_Lab_overseas/LiteOS_Lab/iot_link/os/liteos/include\los_list.h **** }
 112              		.loc 1 135 0
 113 0026 00BF     		nop
 114 0028 0C37     		adds	r7, r7, #12
 115              	.LCFI9:
 116              		.cfi_def_cfa_offset 4
 117 002a BD46     		mov	sp, r7
 118              	.LCFI10:
 119              		.cfi_def_cfa_register 13
 120              		@ sp needed
 121 002c 5DF8047B 		ldr	r7, [sp], #4
 122              	.LCFI11:
 123              		.cfi_restore 7
 124              		.cfi_def_cfa_offset 0
 125 0030 7047     		bx	lr
 126              		.cfi_endproc
 127              	.LFE124:
 129              		.section	.text.LOS_ListTailInsert,"ax",%progbits
 130              		.align	1
 131              		.syntax unified
 132              		.thumb
 133              		.thumb_func
 134              		.fpu fpv4-sp-d16
 136              	LOS_ListTailInsert:
 137              	.LFB125:
 136:C:/Users/dtjld/Desktop/AIoT_software/LiteOS_Lab_overseas/LiteOS_Lab/iot_link/os/liteos/include\los_list.h **** 
 137:C:/Users/dtjld/Desktop/AIoT_software/LiteOS_Lab_overseas/LiteOS_Lab/iot_link/os/liteos/include\los_list.h **** /**
 138:C:/Users/dtjld/Desktop/AIoT_software/LiteOS_Lab_overseas/LiteOS_Lab/iot_link/os/liteos/include\los_list.h ****  *@ingroup los_list
 139:C:/Users/dtjld/Desktop/AIoT_software/LiteOS_Lab_overseas/LiteOS_Lab/iot_link/os/liteos/include\los_list.h ****  *@brief Insert a node to the tail of a doubly linked list.
 140:C:/Users/dtjld/Desktop/AIoT_software/LiteOS_Lab_overseas/LiteOS_Lab/iot_link/os/liteos/include\los_list.h ****  *
 141:C:/Users/dtjld/Desktop/AIoT_software/LiteOS_Lab_overseas/LiteOS_Lab/iot_link/os/liteos/include\los_list.h ****  *@par Description:
 142:C:/Users/dtjld/Desktop/AIoT_software/LiteOS_Lab_overseas/LiteOS_Lab/iot_link/os/liteos/include\los_list.h ****  *This API is used to insert a new node to the tail of a doubly linked list.
 143:C:/Users/dtjld/Desktop/AIoT_software/LiteOS_Lab_overseas/LiteOS_Lab/iot_link/os/liteos/include\los_list.h ****  *@attention
 144:C:/Users/dtjld/Desktop/AIoT_software/LiteOS_Lab_overseas/LiteOS_Lab/iot_link/os/liteos/include\los_list.h ****  *<ul>
 145:C:/Users/dtjld/Desktop/AIoT_software/LiteOS_Lab_overseas/LiteOS_Lab/iot_link/os/liteos/include\los_list.h ****  *<li>The parameters passed in should be ensured to be legal pointers.</li>
 146:C:/Users/dtjld/Desktop/AIoT_software/LiteOS_Lab_overseas/LiteOS_Lab/iot_link/os/liteos/include\los_list.h ****  *</ul>
 147:C:/Users/dtjld/Desktop/AIoT_software/LiteOS_Lab_overseas/LiteOS_Lab/iot_link/os/liteos/include\los_list.h ****  *
 148:C:/Users/dtjld/Desktop/AIoT_software/LiteOS_Lab_overseas/LiteOS_Lab/iot_link/os/liteos/include\los_list.h ****  *@param pstList     [IN] Doubly linked list where the new node is inserted.
 149:C:/Users/dtjld/Desktop/AIoT_software/LiteOS_Lab_overseas/LiteOS_Lab/iot_link/os/liteos/include\los_list.h ****  *@param pstNode     [IN] New node to be inserted.
 150:C:/Users/dtjld/Desktop/AIoT_software/LiteOS_Lab_overseas/LiteOS_Lab/iot_link/os/liteos/include\los_list.h ****  *
 151:C:/Users/dtjld/Desktop/AIoT_software/LiteOS_Lab_overseas/LiteOS_Lab/iot_link/os/liteos/include\los_list.h ****  *@retval None.
 152:C:/Users/dtjld/Desktop/AIoT_software/LiteOS_Lab_overseas/LiteOS_Lab/iot_link/os/liteos/include\los_list.h ****  *@par Dependency:
 153:C:/Users/dtjld/Desktop/AIoT_software/LiteOS_Lab_overseas/LiteOS_Lab/iot_link/os/liteos/include\los_list.h ****  *<ul><li>los_list.h: the header file that contains the API declaration.</li></ul>
ARM GAS  C:\Users\dtjld\AppData\Local\Temp\ccU8krAq.s 			page 6


 154:C:/Users/dtjld/Desktop/AIoT_software/LiteOS_Lab_overseas/LiteOS_Lab/iot_link/os/liteos/include\los_list.h ****  *@see LOS_ListAdd | LOS_ListHeadInsert
 155:C:/Users/dtjld/Desktop/AIoT_software/LiteOS_Lab_overseas/LiteOS_Lab/iot_link/os/liteos/include\los_list.h ****  *@since Huawei LiteOS V100R001C00
 156:C:/Users/dtjld/Desktop/AIoT_software/LiteOS_Lab_overseas/LiteOS_Lab/iot_link/os/liteos/include\los_list.h ****  */
 157:C:/Users/dtjld/Desktop/AIoT_software/LiteOS_Lab_overseas/LiteOS_Lab/iot_link/os/liteos/include\los_list.h **** LITE_OS_SEC_ALW_INLINE STATIC_INLINE VOID LOS_ListTailInsert(LOS_DL_LIST *pstList, LOS_DL_LIST *pst
 158:C:/Users/dtjld/Desktop/AIoT_software/LiteOS_Lab_overseas/LiteOS_Lab/iot_link/os/liteos/include\los_list.h **** {
 138              		.loc 1 158 0
 139              		.cfi_startproc
 140              		@ args = 0, pretend = 0, frame = 8
 141              		@ frame_needed = 1, uses_anonymous_args = 0
 142 0000 80B5     		push	{r7, lr}
 143              	.LCFI12:
 144              		.cfi_def_cfa_offset 8
 145              		.cfi_offset 7, -8
 146              		.cfi_offset 14, -4
 147 0002 82B0     		sub	sp, sp, #8
 148              	.LCFI13:
 149              		.cfi_def_cfa_offset 16
 150 0004 00AF     		add	r7, sp, #0
 151              	.LCFI14:
 152              		.cfi_def_cfa_register 7
 153 0006 7860     		str	r0, [r7, #4]
 154 0008 3960     		str	r1, [r7]
 159:C:/Users/dtjld/Desktop/AIoT_software/LiteOS_Lab_overseas/LiteOS_Lab/iot_link/os/liteos/include\los_list.h ****     LOS_ListAdd(pstList->pstPrev, pstNode);
 155              		.loc 1 159 0
 156 000a 7B68     		ldr	r3, [r7, #4]
 157 000c 1B68     		ldr	r3, [r3]
 158 000e 3968     		ldr	r1, [r7]
 159 0010 1846     		mov	r0, r3
 160 0012 FFF7FEFF 		bl	LOS_ListAdd
 160:C:/Users/dtjld/Desktop/AIoT_software/LiteOS_Lab_overseas/LiteOS_Lab/iot_link/os/liteos/include\los_list.h **** }
 161              		.loc 1 160 0
 162 0016 00BF     		nop
 163 0018 0837     		adds	r7, r7, #8
 164              	.LCFI15:
 165              		.cfi_def_cfa_offset 8
 166 001a BD46     		mov	sp, r7
 167              	.LCFI16:
 168              		.cfi_def_cfa_register 13
 169              		@ sp needed
 170 001c 80BD     		pop	{r7, pc}
 171              		.cfi_endproc
 172              	.LFE125:
 174              		.section	.text.LOS_ListDelete,"ax",%progbits
 175              		.align	1
 176              		.syntax unified
 177              		.thumb
 178              		.thumb_func
 179              		.fpu fpv4-sp-d16
 181              	LOS_ListDelete:
 182              	.LFB126:
 161:C:/Users/dtjld/Desktop/AIoT_software/LiteOS_Lab_overseas/LiteOS_Lab/iot_link/os/liteos/include\los_list.h **** 
 162:C:/Users/dtjld/Desktop/AIoT_software/LiteOS_Lab_overseas/LiteOS_Lab/iot_link/os/liteos/include\los_list.h **** /**
 163:C:/Users/dtjld/Desktop/AIoT_software/LiteOS_Lab_overseas/LiteOS_Lab/iot_link/os/liteos/include\los_list.h ****  *@ingroup los_list
 164:C:/Users/dtjld/Desktop/AIoT_software/LiteOS_Lab_overseas/LiteOS_Lab/iot_link/os/liteos/include\los_list.h ****  *@brief Delete a specified node from a doubly linked list.
 165:C:/Users/dtjld/Desktop/AIoT_software/LiteOS_Lab_overseas/LiteOS_Lab/iot_link/os/liteos/include\los_list.h ****  *
 166:C:/Users/dtjld/Desktop/AIoT_software/LiteOS_Lab_overseas/LiteOS_Lab/iot_link/os/liteos/include\los_list.h ****  *@par Description:
 167:C:/Users/dtjld/Desktop/AIoT_software/LiteOS_Lab_overseas/LiteOS_Lab/iot_link/os/liteos/include\los_list.h ****  *<ul>
ARM GAS  C:\Users\dtjld\AppData\Local\Temp\ccU8krAq.s 			page 7


 168:C:/Users/dtjld/Desktop/AIoT_software/LiteOS_Lab_overseas/LiteOS_Lab/iot_link/os/liteos/include\los_list.h ****  *<li>This API is used to delete a specified node from a doubly linked list.</li>
 169:C:/Users/dtjld/Desktop/AIoT_software/LiteOS_Lab_overseas/LiteOS_Lab/iot_link/os/liteos/include\los_list.h ****  *</ul>
 170:C:/Users/dtjld/Desktop/AIoT_software/LiteOS_Lab_overseas/LiteOS_Lab/iot_link/os/liteos/include\los_list.h ****  *@attention
 171:C:/Users/dtjld/Desktop/AIoT_software/LiteOS_Lab_overseas/LiteOS_Lab/iot_link/os/liteos/include\los_list.h ****  *<ul>
 172:C:/Users/dtjld/Desktop/AIoT_software/LiteOS_Lab_overseas/LiteOS_Lab/iot_link/os/liteos/include\los_list.h ****  *<li>The parameter passed in should be ensured to be a legal pointer.</li>
 173:C:/Users/dtjld/Desktop/AIoT_software/LiteOS_Lab_overseas/LiteOS_Lab/iot_link/os/liteos/include\los_list.h ****  *</ul>
 174:C:/Users/dtjld/Desktop/AIoT_software/LiteOS_Lab_overseas/LiteOS_Lab/iot_link/os/liteos/include\los_list.h ****  *
 175:C:/Users/dtjld/Desktop/AIoT_software/LiteOS_Lab_overseas/LiteOS_Lab/iot_link/os/liteos/include\los_list.h ****  *@param pstNode    [IN] Node to be deleted.
 176:C:/Users/dtjld/Desktop/AIoT_software/LiteOS_Lab_overseas/LiteOS_Lab/iot_link/os/liteos/include\los_list.h ****  *
 177:C:/Users/dtjld/Desktop/AIoT_software/LiteOS_Lab_overseas/LiteOS_Lab/iot_link/os/liteos/include\los_list.h ****  *@retval None.
 178:C:/Users/dtjld/Desktop/AIoT_software/LiteOS_Lab_overseas/LiteOS_Lab/iot_link/os/liteos/include\los_list.h ****  *@par Dependency:
 179:C:/Users/dtjld/Desktop/AIoT_software/LiteOS_Lab_overseas/LiteOS_Lab/iot_link/os/liteos/include\los_list.h ****  *<ul><li>los_list.h: the header file that contains the API declaration.</li></ul>
 180:C:/Users/dtjld/Desktop/AIoT_software/LiteOS_Lab_overseas/LiteOS_Lab/iot_link/os/liteos/include\los_list.h ****  *@see LOS_ListAdd
 181:C:/Users/dtjld/Desktop/AIoT_software/LiteOS_Lab_overseas/LiteOS_Lab/iot_link/os/liteos/include\los_list.h ****  *@since Huawei LiteOS V100R001C00
 182:C:/Users/dtjld/Desktop/AIoT_software/LiteOS_Lab_overseas/LiteOS_Lab/iot_link/os/liteos/include\los_list.h ****  */
 183:C:/Users/dtjld/Desktop/AIoT_software/LiteOS_Lab_overseas/LiteOS_Lab/iot_link/os/liteos/include\los_list.h **** LITE_OS_SEC_ALW_INLINE STATIC_INLINE VOID LOS_ListDelete(LOS_DL_LIST *pstNode)
 184:C:/Users/dtjld/Desktop/AIoT_software/LiteOS_Lab_overseas/LiteOS_Lab/iot_link/os/liteos/include\los_list.h **** {
 183              		.loc 1 184 0
 184              		.cfi_startproc
 185              		@ args = 0, pretend = 0, frame = 8
 186              		@ frame_needed = 1, uses_anonymous_args = 0
 187              		@ link register save eliminated.
 188 0000 80B4     		push	{r7}
 189              	.LCFI17:
 190              		.cfi_def_cfa_offset 4
 191              		.cfi_offset 7, -4
 192 0002 83B0     		sub	sp, sp, #12
 193              	.LCFI18:
 194              		.cfi_def_cfa_offset 16
 195 0004 00AF     		add	r7, sp, #0
 196              	.LCFI19:
 197              		.cfi_def_cfa_register 7
 198 0006 7860     		str	r0, [r7, #4]
 185:C:/Users/dtjld/Desktop/AIoT_software/LiteOS_Lab_overseas/LiteOS_Lab/iot_link/os/liteos/include\los_list.h ****     pstNode->pstNext->pstPrev = pstNode->pstPrev;
 199              		.loc 1 185 0
 200 0008 7B68     		ldr	r3, [r7, #4]
 201 000a 5B68     		ldr	r3, [r3, #4]
 202 000c 7A68     		ldr	r2, [r7, #4]
 203 000e 1268     		ldr	r2, [r2]
 204 0010 1A60     		str	r2, [r3]
 186:C:/Users/dtjld/Desktop/AIoT_software/LiteOS_Lab_overseas/LiteOS_Lab/iot_link/os/liteos/include\los_list.h ****     pstNode->pstPrev->pstNext = pstNode->pstNext;
 205              		.loc 1 186 0
 206 0012 7B68     		ldr	r3, [r7, #4]
 207 0014 1B68     		ldr	r3, [r3]
 208 0016 7A68     		ldr	r2, [r7, #4]
 209 0018 5268     		ldr	r2, [r2, #4]
 210 001a 5A60     		str	r2, [r3, #4]
 187:C:/Users/dtjld/Desktop/AIoT_software/LiteOS_Lab_overseas/LiteOS_Lab/iot_link/os/liteos/include\los_list.h ****     pstNode->pstNext = (LOS_DL_LIST *)NULL;
 211              		.loc 1 187 0
 212 001c 7B68     		ldr	r3, [r7, #4]
 213 001e 0022     		movs	r2, #0
 214 0020 5A60     		str	r2, [r3, #4]
 188:C:/Users/dtjld/Desktop/AIoT_software/LiteOS_Lab_overseas/LiteOS_Lab/iot_link/os/liteos/include\los_list.h ****     pstNode->pstPrev = (LOS_DL_LIST *)NULL;
 215              		.loc 1 188 0
 216 0022 7B68     		ldr	r3, [r7, #4]
 217 0024 0022     		movs	r2, #0
 218 0026 1A60     		str	r2, [r3]
ARM GAS  C:\Users\dtjld\AppData\Local\Temp\ccU8krAq.s 			page 8


 189:C:/Users/dtjld/Desktop/AIoT_software/LiteOS_Lab_overseas/LiteOS_Lab/iot_link/os/liteos/include\los_list.h **** }
 219              		.loc 1 189 0
 220 0028 00BF     		nop
 221 002a 0C37     		adds	r7, r7, #12
 222              	.LCFI20:
 223              		.cfi_def_cfa_offset 4
 224 002c BD46     		mov	sp, r7
 225              	.LCFI21:
 226              		.cfi_def_cfa_register 13
 227              		@ sp needed
 228 002e 5DF8047B 		ldr	r7, [sp], #4
 229              	.LCFI22:
 230              		.cfi_restore 7
 231              		.cfi_def_cfa_offset 0
 232 0032 7047     		bx	lr
 233              		.cfi_endproc
 234              	.LFE126:
 236              		.section	.text.LOS_ListEmpty,"ax",%progbits
 237              		.align	1
 238              		.syntax unified
 239              		.thumb
 240              		.thumb_func
 241              		.fpu fpv4-sp-d16
 243              	LOS_ListEmpty:
 244              	.LFB127:
 190:C:/Users/dtjld/Desktop/AIoT_software/LiteOS_Lab_overseas/LiteOS_Lab/iot_link/os/liteos/include\los_list.h **** 
 191:C:/Users/dtjld/Desktop/AIoT_software/LiteOS_Lab_overseas/LiteOS_Lab/iot_link/os/liteos/include\los_list.h **** /**
 192:C:/Users/dtjld/Desktop/AIoT_software/LiteOS_Lab_overseas/LiteOS_Lab/iot_link/os/liteos/include\los_list.h ****  *@ingroup los_list
 193:C:/Users/dtjld/Desktop/AIoT_software/LiteOS_Lab_overseas/LiteOS_Lab/iot_link/os/liteos/include\los_list.h ****  *@brief Identify whether a specified doubly linked list is empty.
 194:C:/Users/dtjld/Desktop/AIoT_software/LiteOS_Lab_overseas/LiteOS_Lab/iot_link/os/liteos/include\los_list.h ****  *
 195:C:/Users/dtjld/Desktop/AIoT_software/LiteOS_Lab_overseas/LiteOS_Lab/iot_link/os/liteos/include\los_list.h ****  *@par Description:
 196:C:/Users/dtjld/Desktop/AIoT_software/LiteOS_Lab_overseas/LiteOS_Lab/iot_link/os/liteos/include\los_list.h ****  *<ul>
 197:C:/Users/dtjld/Desktop/AIoT_software/LiteOS_Lab_overseas/LiteOS_Lab/iot_link/os/liteos/include\los_list.h ****  *<li>This API is used to return whether a doubly linked list is empty.</li>
 198:C:/Users/dtjld/Desktop/AIoT_software/LiteOS_Lab_overseas/LiteOS_Lab/iot_link/os/liteos/include\los_list.h ****  *</ul>
 199:C:/Users/dtjld/Desktop/AIoT_software/LiteOS_Lab_overseas/LiteOS_Lab/iot_link/os/liteos/include\los_list.h ****  *@attention
 200:C:/Users/dtjld/Desktop/AIoT_software/LiteOS_Lab_overseas/LiteOS_Lab/iot_link/os/liteos/include\los_list.h ****  *<ul>
 201:C:/Users/dtjld/Desktop/AIoT_software/LiteOS_Lab_overseas/LiteOS_Lab/iot_link/os/liteos/include\los_list.h ****  *<li>The parameter passed in should be ensured to be a legal pointer.</li>
 202:C:/Users/dtjld/Desktop/AIoT_software/LiteOS_Lab_overseas/LiteOS_Lab/iot_link/os/liteos/include\los_list.h ****  *</ul>
 203:C:/Users/dtjld/Desktop/AIoT_software/LiteOS_Lab_overseas/LiteOS_Lab/iot_link/os/liteos/include\los_list.h ****  *
 204:C:/Users/dtjld/Desktop/AIoT_software/LiteOS_Lab_overseas/LiteOS_Lab/iot_link/os/liteos/include\los_list.h ****  *@param pstList  [IN] Doubly linked list.
 205:C:/Users/dtjld/Desktop/AIoT_software/LiteOS_Lab_overseas/LiteOS_Lab/iot_link/os/liteos/include\los_list.h ****  *
 206:C:/Users/dtjld/Desktop/AIoT_software/LiteOS_Lab_overseas/LiteOS_Lab/iot_link/os/liteos/include\los_list.h ****  *@retval TRUE The doubly linked list is empty.
 207:C:/Users/dtjld/Desktop/AIoT_software/LiteOS_Lab_overseas/LiteOS_Lab/iot_link/os/liteos/include\los_list.h ****  *@retval FALSE The doubly linked list is not empty.
 208:C:/Users/dtjld/Desktop/AIoT_software/LiteOS_Lab_overseas/LiteOS_Lab/iot_link/os/liteos/include\los_list.h ****  *@par Dependency:
 209:C:/Users/dtjld/Desktop/AIoT_software/LiteOS_Lab_overseas/LiteOS_Lab/iot_link/os/liteos/include\los_list.h ****  *<ul><li>los_list.h: the header file that contains the API declaration.</li></ul>
 210:C:/Users/dtjld/Desktop/AIoT_software/LiteOS_Lab_overseas/LiteOS_Lab/iot_link/os/liteos/include\los_list.h ****  *@see
 211:C:/Users/dtjld/Desktop/AIoT_software/LiteOS_Lab_overseas/LiteOS_Lab/iot_link/os/liteos/include\los_list.h ****  *@since Huawei LiteOS V100R001C00
 212:C:/Users/dtjld/Desktop/AIoT_software/LiteOS_Lab_overseas/LiteOS_Lab/iot_link/os/liteos/include\los_list.h ****  */
 213:C:/Users/dtjld/Desktop/AIoT_software/LiteOS_Lab_overseas/LiteOS_Lab/iot_link/os/liteos/include\los_list.h **** LITE_OS_SEC_ALW_INLINE STATIC_INLINE BOOL LOS_ListEmpty(LOS_DL_LIST *pstNode)
 214:C:/Users/dtjld/Desktop/AIoT_software/LiteOS_Lab_overseas/LiteOS_Lab/iot_link/os/liteos/include\los_list.h **** {
 245              		.loc 1 214 0
 246              		.cfi_startproc
 247              		@ args = 0, pretend = 0, frame = 8
 248              		@ frame_needed = 1, uses_anonymous_args = 0
 249              		@ link register save eliminated.
 250 0000 80B4     		push	{r7}
 251              	.LCFI23:
ARM GAS  C:\Users\dtjld\AppData\Local\Temp\ccU8krAq.s 			page 9


 252              		.cfi_def_cfa_offset 4
 253              		.cfi_offset 7, -4
 254 0002 83B0     		sub	sp, sp, #12
 255              	.LCFI24:
 256              		.cfi_def_cfa_offset 16
 257 0004 00AF     		add	r7, sp, #0
 258              	.LCFI25:
 259              		.cfi_def_cfa_register 7
 260 0006 7860     		str	r0, [r7, #4]
 215:C:/Users/dtjld/Desktop/AIoT_software/LiteOS_Lab_overseas/LiteOS_Lab/iot_link/os/liteos/include\los_list.h ****     return (BOOL)(pstNode->pstNext == pstNode);
 261              		.loc 1 215 0
 262 0008 7B68     		ldr	r3, [r7, #4]
 263 000a 5B68     		ldr	r3, [r3, #4]
 264 000c 7A68     		ldr	r2, [r7, #4]
 265 000e 9A42     		cmp	r2, r3
 266 0010 0CBF     		ite	eq
 267 0012 0123     		moveq	r3, #1
 268 0014 0023     		movne	r3, #0
 269 0016 DBB2     		uxtb	r3, r3
 216:C:/Users/dtjld/Desktop/AIoT_software/LiteOS_Lab_overseas/LiteOS_Lab/iot_link/os/liteos/include\los_list.h **** }
 270              		.loc 1 216 0
 271 0018 1846     		mov	r0, r3
 272 001a 0C37     		adds	r7, r7, #12
 273              	.LCFI26:
 274              		.cfi_def_cfa_offset 4
 275 001c BD46     		mov	sp, r7
 276              	.LCFI27:
 277              		.cfi_def_cfa_register 13
 278              		@ sp needed
 279 001e 5DF8047B 		ldr	r7, [sp], #4
 280              	.LCFI28:
 281              		.cfi_restore 7
 282              		.cfi_def_cfa_offset 0
 283 0022 7047     		bx	lr
 284              		.cfi_endproc
 285              	.LFE127:
 287              		.comm	g_pstTaskCBArray,4,4
 288              		.comm	g_stLosFreeTask,8,4
 289              		.comm	g_stTskRecyleList,8,4
 290              		.comm	g_stLosTask,8,4
 291              		.comm	g_usLosTaskLock,2,2
 292              		.comm	g_uwTskMaxNum,4,4
 293              		.comm	g_uwIdleTaskID,4,4
 294              		.comm	g_uwSwtmrTaskID,4,4
 295              		.comm	g_stTaskTimerList,8,4
 296              		.comm	g_stTskSortLink,8,4
 297              		.comm	g_bTaskScheduled,4,4
 298              		.global	g_pfnTskSwitchHook
 299              		.section	.bss.g_pfnTskSwitchHook,"aw",%nobits
 300              		.align	2
 303              	g_pfnTskSwitchHook:
 304 0000 00000000 		.space	4
 305              		.global	g_pfnUsrTskSwitchHook
 306              		.section	.bss.g_pfnUsrTskSwitchHook,"aw",%nobits
 307              		.align	2
 310              	g_pfnUsrTskSwitchHook:
 311 0000 00000000 		.space	4
ARM GAS  C:\Users\dtjld\AppData\Local\Temp\ccU8krAq.s 			page 10


 312              		.comm	g_astTskSwitchInfo,342,4
 313              		.section	.text.osIdleTask,"ax",%progbits
 314              		.align	1
 315              		.weak	osIdleTask
 316              		.syntax unified
 317              		.thumb
 318              		.thumb_func
 319              		.fpu fpv4-sp-d16
 321              	osIdleTask:
 322              	.LFB130:
 323              		.file 2 "C:/Users/dtjld/Desktop/AIoT_software/LiteOS_Lab_overseas/LiteOS_Lab/iot_link/os/liteos/ba
   1:C:/Users/dtjld/Desktop/AIoT_software/LiteOS_Lab_overseas/LiteOS_Lab/iot_link/os/liteos/base/core\los_task.c **** /*----------------------------------------------------------------------------
   2:C:/Users/dtjld/Desktop/AIoT_software/LiteOS_Lab_overseas/LiteOS_Lab/iot_link/os/liteos/base/core\los_task.c ****  * Copyright (c) <2013-2015>, <Huawei Technologies Co., Ltd>
   3:C:/Users/dtjld/Desktop/AIoT_software/LiteOS_Lab_overseas/LiteOS_Lab/iot_link/os/liteos/base/core\los_task.c ****  * All rights reserved.
   4:C:/Users/dtjld/Desktop/AIoT_software/LiteOS_Lab_overseas/LiteOS_Lab/iot_link/os/liteos/base/core\los_task.c ****  * Redistribution and use in source and binary forms, with or without modification,
   5:C:/Users/dtjld/Desktop/AIoT_software/LiteOS_Lab_overseas/LiteOS_Lab/iot_link/os/liteos/base/core\los_task.c ****  * are permitted provided that the following conditions are met:
   6:C:/Users/dtjld/Desktop/AIoT_software/LiteOS_Lab_overseas/LiteOS_Lab/iot_link/os/liteos/base/core\los_task.c ****  * 1. Redistributions of source code must retain the above copyright notice, this list of
   7:C:/Users/dtjld/Desktop/AIoT_software/LiteOS_Lab_overseas/LiteOS_Lab/iot_link/os/liteos/base/core\los_task.c ****  * conditions and the following disclaimer.
   8:C:/Users/dtjld/Desktop/AIoT_software/LiteOS_Lab_overseas/LiteOS_Lab/iot_link/os/liteos/base/core\los_task.c ****  * 2. Redistributions in binary form must reproduce the above copyright notice, this list
   9:C:/Users/dtjld/Desktop/AIoT_software/LiteOS_Lab_overseas/LiteOS_Lab/iot_link/os/liteos/base/core\los_task.c ****  * of conditions and the following disclaimer in the documentation and/or other materials
  10:C:/Users/dtjld/Desktop/AIoT_software/LiteOS_Lab_overseas/LiteOS_Lab/iot_link/os/liteos/base/core\los_task.c ****  * provided with the distribution.
  11:C:/Users/dtjld/Desktop/AIoT_software/LiteOS_Lab_overseas/LiteOS_Lab/iot_link/os/liteos/base/core\los_task.c ****  * 3. Neither the name of the copyright holder nor the names of its contributors may be used
  12:C:/Users/dtjld/Desktop/AIoT_software/LiteOS_Lab_overseas/LiteOS_Lab/iot_link/os/liteos/base/core\los_task.c ****  * to endorse or promote products derived from this software without specific prior written
  13:C:/Users/dtjld/Desktop/AIoT_software/LiteOS_Lab_overseas/LiteOS_Lab/iot_link/os/liteos/base/core\los_task.c ****  * permission.
  14:C:/Users/dtjld/Desktop/AIoT_software/LiteOS_Lab_overseas/LiteOS_Lab/iot_link/os/liteos/base/core\los_task.c ****  * THIS SOFTWARE IS PROVIDED BY THE COPYRIGHT HOLDERS AND CONTRIBUTORS
  15:C:/Users/dtjld/Desktop/AIoT_software/LiteOS_Lab_overseas/LiteOS_Lab/iot_link/os/liteos/base/core\los_task.c ****  * "AS IS" AND ANY EXPRESS OR IMPLIED WARRANTIES, INCLUDING, BUT NOT LIMITED TO,
  16:C:/Users/dtjld/Desktop/AIoT_software/LiteOS_Lab_overseas/LiteOS_Lab/iot_link/os/liteos/base/core\los_task.c ****  * THE IMPLIED WARRANTIES OF MERCHANTABILITY AND FITNESS FOR A PARTICULAR
  17:C:/Users/dtjld/Desktop/AIoT_software/LiteOS_Lab_overseas/LiteOS_Lab/iot_link/os/liteos/base/core\los_task.c ****  * PURPOSE ARE DISCLAIMED. IN NO EVENT SHALL THE COPYRIGHT HOLDER OR
  18:C:/Users/dtjld/Desktop/AIoT_software/LiteOS_Lab_overseas/LiteOS_Lab/iot_link/os/liteos/base/core\los_task.c ****  * CONTRIBUTORS BE LIABLE FOR ANY DIRECT, INDIRECT, INCIDENTAL, SPECIAL,
  19:C:/Users/dtjld/Desktop/AIoT_software/LiteOS_Lab_overseas/LiteOS_Lab/iot_link/os/liteos/base/core\los_task.c ****  * EXEMPLARY, OR CONSEQUENTIAL DAMAGES (INCLUDING, BUT NOT LIMITED TO,
  20:C:/Users/dtjld/Desktop/AIoT_software/LiteOS_Lab_overseas/LiteOS_Lab/iot_link/os/liteos/base/core\los_task.c ****  * PROCUREMENT OF SUBSTITUTE GOODS OR SERVICES; LOSS OF USE, DATA, OR PROFITS;
  21:C:/Users/dtjld/Desktop/AIoT_software/LiteOS_Lab_overseas/LiteOS_Lab/iot_link/os/liteos/base/core\los_task.c ****  * OR BUSINESS INTERRUPTION) HOWEVER CAUSED AND ON ANY THEORY OF LIABILITY,
  22:C:/Users/dtjld/Desktop/AIoT_software/LiteOS_Lab_overseas/LiteOS_Lab/iot_link/os/liteos/base/core\los_task.c ****  * WHETHER IN CONTRACT, STRICT LIABILITY, OR TORT (INCLUDING NEGLIGENCE OR
  23:C:/Users/dtjld/Desktop/AIoT_software/LiteOS_Lab_overseas/LiteOS_Lab/iot_link/os/liteos/base/core\los_task.c ****  * OTHERWISE) ARISING IN ANY WAY OUT OF THE USE OF THIS SOFTWARE, EVEN IF
  24:C:/Users/dtjld/Desktop/AIoT_software/LiteOS_Lab_overseas/LiteOS_Lab/iot_link/os/liteos/base/core\los_task.c ****  * ADVISED OF THE POSSIBILITY OF SUCH DAMAGE.
  25:C:/Users/dtjld/Desktop/AIoT_software/LiteOS_Lab_overseas/LiteOS_Lab/iot_link/os/liteos/base/core\los_task.c ****  *---------------------------------------------------------------------------*/
  26:C:/Users/dtjld/Desktop/AIoT_software/LiteOS_Lab_overseas/LiteOS_Lab/iot_link/os/liteos/base/core\los_task.c **** /*----------------------------------------------------------------------------
  27:C:/Users/dtjld/Desktop/AIoT_software/LiteOS_Lab_overseas/LiteOS_Lab/iot_link/os/liteos/base/core\los_task.c ****  * Notice of Export Control Law
  28:C:/Users/dtjld/Desktop/AIoT_software/LiteOS_Lab_overseas/LiteOS_Lab/iot_link/os/liteos/base/core\los_task.c ****  * ===============================================
  29:C:/Users/dtjld/Desktop/AIoT_software/LiteOS_Lab_overseas/LiteOS_Lab/iot_link/os/liteos/base/core\los_task.c ****  * Huawei LiteOS may be subject to applicable export control laws and regulations, which might
  30:C:/Users/dtjld/Desktop/AIoT_software/LiteOS_Lab_overseas/LiteOS_Lab/iot_link/os/liteos/base/core\los_task.c ****  * include those applicable to Huawei LiteOS of U.S. and the country in which you are located.
  31:C:/Users/dtjld/Desktop/AIoT_software/LiteOS_Lab_overseas/LiteOS_Lab/iot_link/os/liteos/base/core\los_task.c ****  * Import, export and usage of Huawei LiteOS in any manner by you shall be in compliance with such
  32:C:/Users/dtjld/Desktop/AIoT_software/LiteOS_Lab_overseas/LiteOS_Lab/iot_link/os/liteos/base/core\los_task.c ****  * applicable export control laws and regulations.
  33:C:/Users/dtjld/Desktop/AIoT_software/LiteOS_Lab_overseas/LiteOS_Lab/iot_link/os/liteos/base/core\los_task.c ****  *---------------------------------------------------------------------------*/
  34:C:/Users/dtjld/Desktop/AIoT_software/LiteOS_Lab_overseas/LiteOS_Lab/iot_link/os/liteos/base/core\los_task.c **** #include "string.h"
  35:C:/Users/dtjld/Desktop/AIoT_software/LiteOS_Lab_overseas/LiteOS_Lab/iot_link/os/liteos/base/core\los_task.c **** #include "los_task.inc"
  36:C:/Users/dtjld/Desktop/AIoT_software/LiteOS_Lab_overseas/LiteOS_Lab/iot_link/os/liteos/base/core\los_task.c **** #include "los_base.ph"
  37:C:/Users/dtjld/Desktop/AIoT_software/LiteOS_Lab_overseas/LiteOS_Lab/iot_link/os/liteos/base/core\los_task.c **** #include "los_memory.ph"
  38:C:/Users/dtjld/Desktop/AIoT_software/LiteOS_Lab_overseas/LiteOS_Lab/iot_link/os/liteos/base/core\los_task.c **** #include "los_memstat.ph"
  39:C:/Users/dtjld/Desktop/AIoT_software/LiteOS_Lab_overseas/LiteOS_Lab/iot_link/os/liteos/base/core\los_task.c **** #include "los_priqueue.ph"
  40:C:/Users/dtjld/Desktop/AIoT_software/LiteOS_Lab_overseas/LiteOS_Lab/iot_link/os/liteos/base/core\los_task.c **** #include "los_sem.ph"
  41:C:/Users/dtjld/Desktop/AIoT_software/LiteOS_Lab_overseas/LiteOS_Lab/iot_link/os/liteos/base/core\los_task.c **** #include "los_mux.ph"
  42:C:/Users/dtjld/Desktop/AIoT_software/LiteOS_Lab_overseas/LiteOS_Lab/iot_link/os/liteos/base/core\los_task.c **** #if (LOSCFG_PLATFORM_EXC == YES)
  43:C:/Users/dtjld/Desktop/AIoT_software/LiteOS_Lab_overseas/LiteOS_Lab/iot_link/os/liteos/base/core\los_task.c **** #include "los_exc.ph"
  44:C:/Users/dtjld/Desktop/AIoT_software/LiteOS_Lab_overseas/LiteOS_Lab/iot_link/os/liteos/base/core\los_task.c **** #endif
  45:C:/Users/dtjld/Desktop/AIoT_software/LiteOS_Lab_overseas/LiteOS_Lab/iot_link/os/liteos/base/core\los_task.c **** #if (LOSCFG_KERNEL_TICKLESS == YES)
  46:C:/Users/dtjld/Desktop/AIoT_software/LiteOS_Lab_overseas/LiteOS_Lab/iot_link/os/liteos/base/core\los_task.c **** #include "los_tickless.ph"
ARM GAS  C:\Users\dtjld\AppData\Local\Temp\ccU8krAq.s 			page 11


  47:C:/Users/dtjld/Desktop/AIoT_software/LiteOS_Lab_overseas/LiteOS_Lab/iot_link/os/liteos/base/core\los_task.c **** #endif
  48:C:/Users/dtjld/Desktop/AIoT_software/LiteOS_Lab_overseas/LiteOS_Lab/iot_link/os/liteos/base/core\los_task.c **** #if (LOSCFG_BASE_CORE_CPUP == YES)
  49:C:/Users/dtjld/Desktop/AIoT_software/LiteOS_Lab_overseas/LiteOS_Lab/iot_link/os/liteos/base/core\los_task.c **** #include "los_cpup.ph"
  50:C:/Users/dtjld/Desktop/AIoT_software/LiteOS_Lab_overseas/LiteOS_Lab/iot_link/os/liteos/base/core\los_task.c **** #endif
  51:C:/Users/dtjld/Desktop/AIoT_software/LiteOS_Lab_overseas/LiteOS_Lab/iot_link/os/liteos/base/core\los_task.c **** #include "los_hw.h"
  52:C:/Users/dtjld/Desktop/AIoT_software/LiteOS_Lab_overseas/LiteOS_Lab/iot_link/os/liteos/base/core\los_task.c **** #if (LOSCFG_ENABLE_MPU == YES)
  53:C:/Users/dtjld/Desktop/AIoT_software/LiteOS_Lab_overseas/LiteOS_Lab/iot_link/os/liteos/base/core\los_task.c **** #include "los_mpu.h"
  54:C:/Users/dtjld/Desktop/AIoT_software/LiteOS_Lab_overseas/LiteOS_Lab/iot_link/os/liteos/base/core\los_task.c **** #endif
  55:C:/Users/dtjld/Desktop/AIoT_software/LiteOS_Lab_overseas/LiteOS_Lab/iot_link/os/liteos/base/core\los_task.c **** 
  56:C:/Users/dtjld/Desktop/AIoT_software/LiteOS_Lab_overseas/LiteOS_Lab/iot_link/os/liteos/base/core\los_task.c **** #ifdef __cplusplus
  57:C:/Users/dtjld/Desktop/AIoT_software/LiteOS_Lab_overseas/LiteOS_Lab/iot_link/os/liteos/base/core\los_task.c **** #if __cplusplus
  58:C:/Users/dtjld/Desktop/AIoT_software/LiteOS_Lab_overseas/LiteOS_Lab/iot_link/os/liteos/base/core\los_task.c **** extern "C" {
  59:C:/Users/dtjld/Desktop/AIoT_software/LiteOS_Lab_overseas/LiteOS_Lab/iot_link/os/liteos/base/core\los_task.c **** #endif /* __cplusplus */
  60:C:/Users/dtjld/Desktop/AIoT_software/LiteOS_Lab_overseas/LiteOS_Lab/iot_link/os/liteos/base/core\los_task.c **** #endif /* __cplusplus */
  61:C:/Users/dtjld/Desktop/AIoT_software/LiteOS_Lab_overseas/LiteOS_Lab/iot_link/os/liteos/base/core\los_task.c **** 
  62:C:/Users/dtjld/Desktop/AIoT_software/LiteOS_Lab_overseas/LiteOS_Lab/iot_link/os/liteos/base/core\los_task.c **** 
  63:C:/Users/dtjld/Desktop/AIoT_software/LiteOS_Lab_overseas/LiteOS_Lab/iot_link/os/liteos/base/core\los_task.c **** #if (LOSCFG_STATIC_TASK == YES)
  64:C:/Users/dtjld/Desktop/AIoT_software/LiteOS_Lab_overseas/LiteOS_Lab/iot_link/os/liteos/base/core\los_task.c **** LITE_OS_SEC_BSS LOS_TASK_CB                          *g_apstTaskCBArray[LOSCFG_BASE_CORE_TSK_LIMIT 
  65:C:/Users/dtjld/Desktop/AIoT_software/LiteOS_Lab_overseas/LiteOS_Lab/iot_link/os/liteos/base/core\los_task.c **** #else
  66:C:/Users/dtjld/Desktop/AIoT_software/LiteOS_Lab_overseas/LiteOS_Lab/iot_link/os/liteos/base/core\los_task.c **** LITE_OS_SEC_BSS  LOS_TASK_CB                         *g_pstTaskCBArray;
  67:C:/Users/dtjld/Desktop/AIoT_software/LiteOS_Lab_overseas/LiteOS_Lab/iot_link/os/liteos/base/core\los_task.c **** LITE_OS_SEC_BSS  LOS_DL_LIST                         g_stLosFreeTask;
  68:C:/Users/dtjld/Desktop/AIoT_software/LiteOS_Lab_overseas/LiteOS_Lab/iot_link/os/liteos/base/core\los_task.c **** LITE_OS_SEC_BSS  LOS_DL_LIST                         g_stTskRecyleList;
  69:C:/Users/dtjld/Desktop/AIoT_software/LiteOS_Lab_overseas/LiteOS_Lab/iot_link/os/liteos/base/core\los_task.c **** 
  70:C:/Users/dtjld/Desktop/AIoT_software/LiteOS_Lab_overseas/LiteOS_Lab/iot_link/os/liteos/base/core\los_task.c **** #endif
  71:C:/Users/dtjld/Desktop/AIoT_software/LiteOS_Lab_overseas/LiteOS_Lab/iot_link/os/liteos/base/core\los_task.c **** 
  72:C:/Users/dtjld/Desktop/AIoT_software/LiteOS_Lab_overseas/LiteOS_Lab/iot_link/os/liteos/base/core\los_task.c **** 
  73:C:/Users/dtjld/Desktop/AIoT_software/LiteOS_Lab_overseas/LiteOS_Lab/iot_link/os/liteos/base/core\los_task.c **** LITE_OS_SEC_BSS  ST_LOS_TASK                         g_stLosTask;
  74:C:/Users/dtjld/Desktop/AIoT_software/LiteOS_Lab_overseas/LiteOS_Lab/iot_link/os/liteos/base/core\los_task.c **** LITE_OS_SEC_BSS  UINT16                              g_usLosTaskLock;
  75:C:/Users/dtjld/Desktop/AIoT_software/LiteOS_Lab_overseas/LiteOS_Lab/iot_link/os/liteos/base/core\los_task.c **** 
  76:C:/Users/dtjld/Desktop/AIoT_software/LiteOS_Lab_overseas/LiteOS_Lab/iot_link/os/liteos/base/core\los_task.c **** 
  77:C:/Users/dtjld/Desktop/AIoT_software/LiteOS_Lab_overseas/LiteOS_Lab/iot_link/os/liteos/base/core\los_task.c **** LITE_OS_SEC_BSS  UINT32                              g_uwTskMaxNum;
  78:C:/Users/dtjld/Desktop/AIoT_software/LiteOS_Lab_overseas/LiteOS_Lab/iot_link/os/liteos/base/core\los_task.c **** LITE_OS_SEC_BSS  UINT32                              g_uwIdleTaskID;
  79:C:/Users/dtjld/Desktop/AIoT_software/LiteOS_Lab_overseas/LiteOS_Lab/iot_link/os/liteos/base/core\los_task.c **** LITE_OS_SEC_BSS  UINT32                              g_uwSwtmrTaskID;
  80:C:/Users/dtjld/Desktop/AIoT_software/LiteOS_Lab_overseas/LiteOS_Lab/iot_link/os/liteos/base/core\los_task.c **** LITE_OS_SEC_BSS  LOS_DL_LIST                         g_stTaskTimerList;
  81:C:/Users/dtjld/Desktop/AIoT_software/LiteOS_Lab_overseas/LiteOS_Lab/iot_link/os/liteos/base/core\los_task.c **** LITE_OS_SEC_BSS  TSK_SORTLINK_ATTRIBUTE_S            g_stTskSortLink;
  82:C:/Users/dtjld/Desktop/AIoT_software/LiteOS_Lab_overseas/LiteOS_Lab/iot_link/os/liteos/base/core\los_task.c **** LITE_OS_SEC_BSS  BOOL                                g_bTaskScheduled;
  83:C:/Users/dtjld/Desktop/AIoT_software/LiteOS_Lab_overseas/LiteOS_Lab/iot_link/os/liteos/base/core\los_task.c **** 
  84:C:/Users/dtjld/Desktop/AIoT_software/LiteOS_Lab_overseas/LiteOS_Lab/iot_link/os/liteos/base/core\los_task.c **** LITE_OS_SEC_DATA_INIT TSKSWITCHHOOK g_pfnTskSwitchHook = (TSKSWITCHHOOK)NULL; /*lint !e611*/
  85:C:/Users/dtjld/Desktop/AIoT_software/LiteOS_Lab_overseas/LiteOS_Lab/iot_link/os/liteos/base/core\los_task.c **** #if (LOSCFG_LIB_LIBC_NEWLIB_REENT == YES)
  86:C:/Users/dtjld/Desktop/AIoT_software/LiteOS_Lab_overseas/LiteOS_Lab/iot_link/os/liteos/base/core\los_task.c **** LITE_OS_SEC_DATA_INIT TSKSWITCHHOOK g_pfnTskSwitchImpurePtrHook = (TSKSWITCHHOOK)NULL; /*lint !e611
  87:C:/Users/dtjld/Desktop/AIoT_software/LiteOS_Lab_overseas/LiteOS_Lab/iot_link/os/liteos/base/core\los_task.c **** #endif
  88:C:/Users/dtjld/Desktop/AIoT_software/LiteOS_Lab_overseas/LiteOS_Lab/iot_link/os/liteos/base/core\los_task.c **** #if (LOSCFG_BASE_CORE_TSK_MONITOR == YES)
  89:C:/Users/dtjld/Desktop/AIoT_software/LiteOS_Lab_overseas/LiteOS_Lab/iot_link/os/liteos/base/core\los_task.c **** LITE_OS_SEC_DATA_INIT TSKSWITCHHOOK g_pfnUsrTskSwitchHook = (TSKSWITCHHOOK)NULL; /*lint !e611*/
  90:C:/Users/dtjld/Desktop/AIoT_software/LiteOS_Lab_overseas/LiteOS_Lab/iot_link/os/liteos/base/core\los_task.c **** #endif /* LOSCFG_BASE_CORE_TSK_MONITOR == YES */
  91:C:/Users/dtjld/Desktop/AIoT_software/LiteOS_Lab_overseas/LiteOS_Lab/iot_link/os/liteos/base/core\los_task.c **** 
  92:C:/Users/dtjld/Desktop/AIoT_software/LiteOS_Lab_overseas/LiteOS_Lab/iot_link/os/liteos/base/core\los_task.c **** #if (LOSCFG_BASE_CORE_EXC_TSK_SWITCH == YES)
  93:C:/Users/dtjld/Desktop/AIoT_software/LiteOS_Lab_overseas/LiteOS_Lab/iot_link/os/liteos/base/core\los_task.c **** LITE_OS_SEC_BSS OS_TASK_SWITCH_INFO g_astTskSwitchInfo;
  94:C:/Users/dtjld/Desktop/AIoT_software/LiteOS_Lab_overseas/LiteOS_Lab/iot_link/os/liteos/base/core\los_task.c **** #endif
  95:C:/Users/dtjld/Desktop/AIoT_software/LiteOS_Lab_overseas/LiteOS_Lab/iot_link/os/liteos/base/core\los_task.c **** 
  96:C:/Users/dtjld/Desktop/AIoT_software/LiteOS_Lab_overseas/LiteOS_Lab/iot_link/os/liteos/base/core\los_task.c **** #define CHECK_TASKID(uwTaskID)\
  97:C:/Users/dtjld/Desktop/AIoT_software/LiteOS_Lab_overseas/LiteOS_Lab/iot_link/os/liteos/base/core\los_task.c **** {\
  98:C:/Users/dtjld/Desktop/AIoT_software/LiteOS_Lab_overseas/LiteOS_Lab/iot_link/os/liteos/base/core\los_task.c ****    if (uwTaskID == g_uwIdleTaskID)\
  99:C:/Users/dtjld/Desktop/AIoT_software/LiteOS_Lab_overseas/LiteOS_Lab/iot_link/os/liteos/base/core\los_task.c ****    {\
 100:C:/Users/dtjld/Desktop/AIoT_software/LiteOS_Lab_overseas/LiteOS_Lab/iot_link/os/liteos/base/core\los_task.c ****        return LOS_ERRNO_TSK_OPERATE_IDLE;\
 101:C:/Users/dtjld/Desktop/AIoT_software/LiteOS_Lab_overseas/LiteOS_Lab/iot_link/os/liteos/base/core\los_task.c ****    }\
 102:C:/Users/dtjld/Desktop/AIoT_software/LiteOS_Lab_overseas/LiteOS_Lab/iot_link/os/liteos/base/core\los_task.c ****    else if (uwTaskID == g_uwSwtmrTaskID)\
 103:C:/Users/dtjld/Desktop/AIoT_software/LiteOS_Lab_overseas/LiteOS_Lab/iot_link/os/liteos/base/core\los_task.c ****    {\
ARM GAS  C:\Users\dtjld\AppData\Local\Temp\ccU8krAq.s 			page 12


 104:C:/Users/dtjld/Desktop/AIoT_software/LiteOS_Lab_overseas/LiteOS_Lab/iot_link/os/liteos/base/core\los_task.c ****        return LOS_ERRNO_TSK_SUSPEND_SWTMR_NOT_ALLOWED;\
 105:C:/Users/dtjld/Desktop/AIoT_software/LiteOS_Lab_overseas/LiteOS_Lab/iot_link/os/liteos/base/core\los_task.c ****    }\
 106:C:/Users/dtjld/Desktop/AIoT_software/LiteOS_Lab_overseas/LiteOS_Lab/iot_link/os/liteos/base/core\los_task.c ****    else if (OS_TSK_GET_INDEX(uwTaskID) >= g_uwTskMaxNum)\
 107:C:/Users/dtjld/Desktop/AIoT_software/LiteOS_Lab_overseas/LiteOS_Lab/iot_link/os/liteos/base/core\los_task.c ****    {\
 108:C:/Users/dtjld/Desktop/AIoT_software/LiteOS_Lab_overseas/LiteOS_Lab/iot_link/os/liteos/base/core\los_task.c ****        return LOS_ERRNO_TSK_ID_INVALID;\
 109:C:/Users/dtjld/Desktop/AIoT_software/LiteOS_Lab_overseas/LiteOS_Lab/iot_link/os/liteos/base/core\los_task.c ****    }\
 110:C:/Users/dtjld/Desktop/AIoT_software/LiteOS_Lab_overseas/LiteOS_Lab/iot_link/os/liteos/base/core\los_task.c **** }
 111:C:/Users/dtjld/Desktop/AIoT_software/LiteOS_Lab_overseas/LiteOS_Lab/iot_link/os/liteos/base/core\los_task.c **** 
 112:C:/Users/dtjld/Desktop/AIoT_software/LiteOS_Lab_overseas/LiteOS_Lab/iot_link/os/liteos/base/core\los_task.c **** #if (LOSCFG_KERNEL_TICKLESS == YES)
 113:C:/Users/dtjld/Desktop/AIoT_software/LiteOS_Lab_overseas/LiteOS_Lab/iot_link/os/liteos/base/core\los_task.c **** LITE_OS_SEC_TEXT_MINOR UINT32 osTaskNextSwitchTimeGet(VOID)
 114:C:/Users/dtjld/Desktop/AIoT_software/LiteOS_Lab_overseas/LiteOS_Lab/iot_link/os/liteos/base/core\los_task.c **** {
 115:C:/Users/dtjld/Desktop/AIoT_software/LiteOS_Lab_overseas/LiteOS_Lab/iot_link/os/liteos/base/core\los_task.c ****     LOS_TASK_CB *pstTaskCB;
 116:C:/Users/dtjld/Desktop/AIoT_software/LiteOS_Lab_overseas/LiteOS_Lab/iot_link/os/liteos/base/core\los_task.c ****     UINT32 uwTaskSortLinkTick = 0;
 117:C:/Users/dtjld/Desktop/AIoT_software/LiteOS_Lab_overseas/LiteOS_Lab/iot_link/os/liteos/base/core\los_task.c ****     LOS_DL_LIST *pstListObject;
 118:C:/Users/dtjld/Desktop/AIoT_software/LiteOS_Lab_overseas/LiteOS_Lab/iot_link/os/liteos/base/core\los_task.c ****     UINT32 uwTempTicks = 0;
 119:C:/Users/dtjld/Desktop/AIoT_software/LiteOS_Lab_overseas/LiteOS_Lab/iot_link/os/liteos/base/core\los_task.c ****     UINT32 uwIndex =0;
 120:C:/Users/dtjld/Desktop/AIoT_software/LiteOS_Lab_overseas/LiteOS_Lab/iot_link/os/liteos/base/core\los_task.c **** 
 121:C:/Users/dtjld/Desktop/AIoT_software/LiteOS_Lab_overseas/LiteOS_Lab/iot_link/os/liteos/base/core\los_task.c ****     for (uwIndex = 0; uwIndex < OS_TSK_SORTLINK_LEN; uwIndex++)
 122:C:/Users/dtjld/Desktop/AIoT_software/LiteOS_Lab_overseas/LiteOS_Lab/iot_link/os/liteos/base/core\los_task.c ****     {
 123:C:/Users/dtjld/Desktop/AIoT_software/LiteOS_Lab_overseas/LiteOS_Lab/iot_link/os/liteos/base/core\los_task.c ****         pstListObject = g_stTskSortLink.pstSortLink + (g_stTskSortLink.usCursor + uwIndex)%OS_TSK_S
 124:C:/Users/dtjld/Desktop/AIoT_software/LiteOS_Lab_overseas/LiteOS_Lab/iot_link/os/liteos/base/core\los_task.c ****         if (pstListObject->pstNext != pstListObject)
 125:C:/Users/dtjld/Desktop/AIoT_software/LiteOS_Lab_overseas/LiteOS_Lab/iot_link/os/liteos/base/core\los_task.c ****         {
 126:C:/Users/dtjld/Desktop/AIoT_software/LiteOS_Lab_overseas/LiteOS_Lab/iot_link/os/liteos/base/core\los_task.c ****             pstTaskCB = LOS_DL_LIST_ENTRY((pstListObject)->pstNext, LOS_TASK_CB, stTimerList);
 127:C:/Users/dtjld/Desktop/AIoT_software/LiteOS_Lab_overseas/LiteOS_Lab/iot_link/os/liteos/base/core\los_task.c ****             uwTempTicks = (uwIndex == 0) ? OS_TSK_SORTLINK_LEN : uwIndex;
 128:C:/Users/dtjld/Desktop/AIoT_software/LiteOS_Lab_overseas/LiteOS_Lab/iot_link/os/liteos/base/core\los_task.c ****             uwTempTicks += (UINT32)(UWROLLNUM(pstTaskCB->uwIdxRollNum) * OS_TSK_SORTLINK_LEN);
 129:C:/Users/dtjld/Desktop/AIoT_software/LiteOS_Lab_overseas/LiteOS_Lab/iot_link/os/liteos/base/core\los_task.c ****             if(uwTaskSortLinkTick == 0 || uwTaskSortLinkTick > uwTempTicks)
 130:C:/Users/dtjld/Desktop/AIoT_software/LiteOS_Lab_overseas/LiteOS_Lab/iot_link/os/liteos/base/core\los_task.c ****             {
 131:C:/Users/dtjld/Desktop/AIoT_software/LiteOS_Lab_overseas/LiteOS_Lab/iot_link/os/liteos/base/core\los_task.c ****                uwTaskSortLinkTick = uwTempTicks;
 132:C:/Users/dtjld/Desktop/AIoT_software/LiteOS_Lab_overseas/LiteOS_Lab/iot_link/os/liteos/base/core\los_task.c ****             }
 133:C:/Users/dtjld/Desktop/AIoT_software/LiteOS_Lab_overseas/LiteOS_Lab/iot_link/os/liteos/base/core\los_task.c ****         }
 134:C:/Users/dtjld/Desktop/AIoT_software/LiteOS_Lab_overseas/LiteOS_Lab/iot_link/os/liteos/base/core\los_task.c ****     }
 135:C:/Users/dtjld/Desktop/AIoT_software/LiteOS_Lab_overseas/LiteOS_Lab/iot_link/os/liteos/base/core\los_task.c **** 
 136:C:/Users/dtjld/Desktop/AIoT_software/LiteOS_Lab_overseas/LiteOS_Lab/iot_link/os/liteos/base/core\los_task.c ****     return uwTaskSortLinkTick;
 137:C:/Users/dtjld/Desktop/AIoT_software/LiteOS_Lab_overseas/LiteOS_Lab/iot_link/os/liteos/base/core\los_task.c **** }
 138:C:/Users/dtjld/Desktop/AIoT_software/LiteOS_Lab_overseas/LiteOS_Lab/iot_link/os/liteos/base/core\los_task.c **** #endif
 139:C:/Users/dtjld/Desktop/AIoT_software/LiteOS_Lab_overseas/LiteOS_Lab/iot_link/os/liteos/base/core\los_task.c **** 
 140:C:/Users/dtjld/Desktop/AIoT_software/LiteOS_Lab_overseas/LiteOS_Lab/iot_link/os/liteos/base/core\los_task.c **** /*****************************************************************************
 141:C:/Users/dtjld/Desktop/AIoT_software/LiteOS_Lab_overseas/LiteOS_Lab/iot_link/os/liteos/base/core\los_task.c ****  Function : osTskIdleBGD
 142:C:/Users/dtjld/Desktop/AIoT_software/LiteOS_Lab_overseas/LiteOS_Lab/iot_link/os/liteos/base/core\los_task.c ****  Description : Idle background.
 143:C:/Users/dtjld/Desktop/AIoT_software/LiteOS_Lab_overseas/LiteOS_Lab/iot_link/os/liteos/base/core\los_task.c ****  Input       : None
 144:C:/Users/dtjld/Desktop/AIoT_software/LiteOS_Lab_overseas/LiteOS_Lab/iot_link/os/liteos/base/core\los_task.c ****  Output      : None
 145:C:/Users/dtjld/Desktop/AIoT_software/LiteOS_Lab_overseas/LiteOS_Lab/iot_link/os/liteos/base/core\los_task.c ****  Return      : None
 146:C:/Users/dtjld/Desktop/AIoT_software/LiteOS_Lab_overseas/LiteOS_Lab/iot_link/os/liteos/base/core\los_task.c ****  *****************************************************************************/
 147:C:/Users/dtjld/Desktop/AIoT_software/LiteOS_Lab_overseas/LiteOS_Lab/iot_link/os/liteos/base/core\los_task.c **** LITE_OS_SEC_TEXT WEAK VOID osIdleTask(VOID)
 148:C:/Users/dtjld/Desktop/AIoT_software/LiteOS_Lab_overseas/LiteOS_Lab/iot_link/os/liteos/base/core\los_task.c **** {
 324              		.loc 2 148 0
 325              		.cfi_startproc
 326              		@ args = 0, pretend = 0, frame = 0
 327              		@ frame_needed = 1, uses_anonymous_args = 0
 328              		@ link register save eliminated.
 329 0000 80B4     		push	{r7}
 330              	.LCFI29:
 331              		.cfi_def_cfa_offset 4
 332              		.cfi_offset 7, -4
 333 0002 00AF     		add	r7, sp, #0
 334              	.LCFI30:
 335              		.cfi_def_cfa_register 7
ARM GAS  C:\Users\dtjld\AppData\Local\Temp\ccU8krAq.s 			page 13


 336              	.L8:
 149:C:/Users/dtjld/Desktop/AIoT_software/LiteOS_Lab_overseas/LiteOS_Lab/iot_link/os/liteos/base/core\los_task.c ****     while (1)
 337              		.loc 2 149 0 discriminator 1
 338 0004 FEE7     		b	.L8
 339              		.cfi_endproc
 340              	.LFE130:
 342              		.section	.text.osTaskPriModify,"ax",%progbits
 343              		.align	1
 344              		.global	osTaskPriModify
 345              		.syntax unified
 346              		.thumb
 347              		.thumb_func
 348              		.fpu fpv4-sp-d16
 350              	osTaskPriModify:
 351              	.LFB131:
 150:C:/Users/dtjld/Desktop/AIoT_software/LiteOS_Lab_overseas/LiteOS_Lab/iot_link/os/liteos/base/core\los_task.c ****     {
 151:C:/Users/dtjld/Desktop/AIoT_software/LiteOS_Lab_overseas/LiteOS_Lab/iot_link/os/liteos/base/core\los_task.c **** #if (LOSCFG_KERNEL_TICKLESS == YES)
 152:C:/Users/dtjld/Desktop/AIoT_software/LiteOS_Lab_overseas/LiteOS_Lab/iot_link/os/liteos/base/core\los_task.c ****         osTicklessHandler();
 153:C:/Users/dtjld/Desktop/AIoT_software/LiteOS_Lab_overseas/LiteOS_Lab/iot_link/os/liteos/base/core\los_task.c **** #else
 154:C:/Users/dtjld/Desktop/AIoT_software/LiteOS_Lab_overseas/LiteOS_Lab/iot_link/os/liteos/base/core\los_task.c ****     #if (LOSCFG_KERNEL_RUNSTOP == YES)
 155:C:/Users/dtjld/Desktop/AIoT_software/LiteOS_Lab_overseas/LiteOS_Lab/iot_link/os/liteos/base/core\los_task.c ****         osEnterSleep();
 156:C:/Users/dtjld/Desktop/AIoT_software/LiteOS_Lab_overseas/LiteOS_Lab/iot_link/os/liteos/base/core\los_task.c ****     #endif
 157:C:/Users/dtjld/Desktop/AIoT_software/LiteOS_Lab_overseas/LiteOS_Lab/iot_link/os/liteos/base/core\los_task.c **** #endif
 158:C:/Users/dtjld/Desktop/AIoT_software/LiteOS_Lab_overseas/LiteOS_Lab/iot_link/os/liteos/base/core\los_task.c ****     }
 159:C:/Users/dtjld/Desktop/AIoT_software/LiteOS_Lab_overseas/LiteOS_Lab/iot_link/os/liteos/base/core\los_task.c **** }
 160:C:/Users/dtjld/Desktop/AIoT_software/LiteOS_Lab_overseas/LiteOS_Lab/iot_link/os/liteos/base/core\los_task.c **** 
 161:C:/Users/dtjld/Desktop/AIoT_software/LiteOS_Lab_overseas/LiteOS_Lab/iot_link/os/liteos/base/core\los_task.c **** /*****************************************************************************
 162:C:/Users/dtjld/Desktop/AIoT_software/LiteOS_Lab_overseas/LiteOS_Lab/iot_link/os/liteos/base/core\los_task.c ****  Function : osTaskPriModify
 163:C:/Users/dtjld/Desktop/AIoT_software/LiteOS_Lab_overseas/LiteOS_Lab/iot_link/os/liteos/base/core\los_task.c ****  Description : Change task priority.
 164:C:/Users/dtjld/Desktop/AIoT_software/LiteOS_Lab_overseas/LiteOS_Lab/iot_link/os/liteos/base/core\los_task.c ****  Input       : pstTaskCB    --- task control block
 165:C:/Users/dtjld/Desktop/AIoT_software/LiteOS_Lab_overseas/LiteOS_Lab/iot_link/os/liteos/base/core\los_task.c ****                  usPriority      --- priority
 166:C:/Users/dtjld/Desktop/AIoT_software/LiteOS_Lab_overseas/LiteOS_Lab/iot_link/os/liteos/base/core\los_task.c ****  Output      : None
 167:C:/Users/dtjld/Desktop/AIoT_software/LiteOS_Lab_overseas/LiteOS_Lab/iot_link/os/liteos/base/core\los_task.c ****  Return      : None
 168:C:/Users/dtjld/Desktop/AIoT_software/LiteOS_Lab_overseas/LiteOS_Lab/iot_link/os/liteos/base/core\los_task.c ****  *****************************************************************************/
 169:C:/Users/dtjld/Desktop/AIoT_software/LiteOS_Lab_overseas/LiteOS_Lab/iot_link/os/liteos/base/core\los_task.c **** LITE_OS_SEC_TEXT_MINOR VOID osTaskPriModify(LOS_TASK_CB *pstTaskCB, UINT16 usPriority)
 170:C:/Users/dtjld/Desktop/AIoT_software/LiteOS_Lab_overseas/LiteOS_Lab/iot_link/os/liteos/base/core\los_task.c **** {
 352              		.loc 2 170 0
 353              		.cfi_startproc
 354              		@ args = 0, pretend = 0, frame = 8
 355              		@ frame_needed = 1, uses_anonymous_args = 0
 356 0000 80B5     		push	{r7, lr}
 357              	.LCFI31:
 358              		.cfi_def_cfa_offset 8
 359              		.cfi_offset 7, -8
 360              		.cfi_offset 14, -4
 361 0002 82B0     		sub	sp, sp, #8
 362              	.LCFI32:
 363              		.cfi_def_cfa_offset 16
 364 0004 00AF     		add	r7, sp, #0
 365              	.LCFI33:
 366              		.cfi_def_cfa_register 7
 367 0006 7860     		str	r0, [r7, #4]
 368 0008 0B46     		mov	r3, r1
 369 000a 7B80     		strh	r3, [r7, #2]	@ movhi
 171:C:/Users/dtjld/Desktop/AIoT_software/LiteOS_Lab_overseas/LiteOS_Lab/iot_link/os/liteos/base/core\los_task.c ****     if (pstTaskCB->usTaskStatus & OS_TASK_STATUS_READY)
 370              		.loc 2 171 0
 371 000c 7B68     		ldr	r3, [r7, #4]
ARM GAS  C:\Users\dtjld\AppData\Local\Temp\ccU8krAq.s 			page 14


 372 000e 9B88     		ldrh	r3, [r3, #4]
 373 0010 03F00403 		and	r3, r3, #4
 374 0014 002B     		cmp	r3, #0
 375 0016 1FD0     		beq	.L10
 172:C:/Users/dtjld/Desktop/AIoT_software/LiteOS_Lab_overseas/LiteOS_Lab/iot_link/os/liteos/base/core\los_task.c ****     {
 173:C:/Users/dtjld/Desktop/AIoT_software/LiteOS_Lab_overseas/LiteOS_Lab/iot_link/os/liteos/base/core\los_task.c ****         osPriqueueDequeue(&pstTaskCB->stPendList);
 376              		.loc 2 173 0
 377 0018 7B68     		ldr	r3, [r7, #4]
 378 001a 2833     		adds	r3, r3, #40
 379 001c 1846     		mov	r0, r3
 380 001e FFF7FEFF 		bl	osPriqueueDequeue
 174:C:/Users/dtjld/Desktop/AIoT_software/LiteOS_Lab_overseas/LiteOS_Lab/iot_link/os/liteos/base/core\los_task.c ****         pstTaskCB->usTaskStatus &= (~OS_TASK_STATUS_READY);
 381              		.loc 2 174 0
 382 0022 7B68     		ldr	r3, [r7, #4]
 383 0024 9B88     		ldrh	r3, [r3, #4]
 384 0026 23F00403 		bic	r3, r3, #4
 385 002a 9AB2     		uxth	r2, r3
 386 002c 7B68     		ldr	r3, [r7, #4]
 387 002e 9A80     		strh	r2, [r3, #4]	@ movhi
 175:C:/Users/dtjld/Desktop/AIoT_software/LiteOS_Lab_overseas/LiteOS_Lab/iot_link/os/liteos/base/core\los_task.c ****         pstTaskCB->usPriority = usPriority;
 388              		.loc 2 175 0
 389 0030 7B68     		ldr	r3, [r7, #4]
 390 0032 7A88     		ldrh	r2, [r7, #2]	@ movhi
 391 0034 DA80     		strh	r2, [r3, #6]	@ movhi
 176:C:/Users/dtjld/Desktop/AIoT_software/LiteOS_Lab_overseas/LiteOS_Lab/iot_link/os/liteos/base/core\los_task.c ****         pstTaskCB->usTaskStatus |= OS_TASK_STATUS_READY;
 392              		.loc 2 176 0
 393 0036 7B68     		ldr	r3, [r7, #4]
 394 0038 9B88     		ldrh	r3, [r3, #4]
 395 003a 43F00403 		orr	r3, r3, #4
 396 003e 9AB2     		uxth	r2, r3
 397 0040 7B68     		ldr	r3, [r7, #4]
 398 0042 9A80     		strh	r2, [r3, #4]	@ movhi
 177:C:/Users/dtjld/Desktop/AIoT_software/LiteOS_Lab_overseas/LiteOS_Lab/iot_link/os/liteos/base/core\los_task.c ****         osPriqueueEnqueue(&pstTaskCB->stPendList, pstTaskCB->usPriority);
 399              		.loc 2 177 0
 400 0044 7B68     		ldr	r3, [r7, #4]
 401 0046 03F12802 		add	r2, r3, #40
 402 004a 7B68     		ldr	r3, [r7, #4]
 403 004c DB88     		ldrh	r3, [r3, #6]
 404 004e 1946     		mov	r1, r3
 405 0050 1046     		mov	r0, r2
 406 0052 FFF7FEFF 		bl	osPriqueueEnqueue
 178:C:/Users/dtjld/Desktop/AIoT_software/LiteOS_Lab_overseas/LiteOS_Lab/iot_link/os/liteos/base/core\los_task.c ****     }
 179:C:/Users/dtjld/Desktop/AIoT_software/LiteOS_Lab_overseas/LiteOS_Lab/iot_link/os/liteos/base/core\los_task.c ****     else
 180:C:/Users/dtjld/Desktop/AIoT_software/LiteOS_Lab_overseas/LiteOS_Lab/iot_link/os/liteos/base/core\los_task.c ****     {
 181:C:/Users/dtjld/Desktop/AIoT_software/LiteOS_Lab_overseas/LiteOS_Lab/iot_link/os/liteos/base/core\los_task.c ****         pstTaskCB->usPriority = usPriority;
 182:C:/Users/dtjld/Desktop/AIoT_software/LiteOS_Lab_overseas/LiteOS_Lab/iot_link/os/liteos/base/core\los_task.c ****     }
 183:C:/Users/dtjld/Desktop/AIoT_software/LiteOS_Lab_overseas/LiteOS_Lab/iot_link/os/liteos/base/core\los_task.c **** }
 407              		.loc 2 183 0
 408 0056 02E0     		b	.L12
 409              	.L10:
 181:C:/Users/dtjld/Desktop/AIoT_software/LiteOS_Lab_overseas/LiteOS_Lab/iot_link/os/liteos/base/core\los_task.c ****     }
 410              		.loc 2 181 0
 411 0058 7B68     		ldr	r3, [r7, #4]
 412 005a 7A88     		ldrh	r2, [r7, #2]	@ movhi
 413 005c DA80     		strh	r2, [r3, #6]	@ movhi
 414              	.L12:
 415              		.loc 2 183 0
ARM GAS  C:\Users\dtjld\AppData\Local\Temp\ccU8krAq.s 			page 15


 416 005e 00BF     		nop
 417 0060 0837     		adds	r7, r7, #8
 418              	.LCFI34:
 419              		.cfi_def_cfa_offset 8
 420 0062 BD46     		mov	sp, r7
 421              	.LCFI35:
 422              		.cfi_def_cfa_register 13
 423              		@ sp needed
 424 0064 80BD     		pop	{r7, pc}
 425              		.cfi_endproc
 426              	.LFE131:
 428              		.section	.text.osTaskAdd2TimerList,"ax",%progbits
 429              		.align	1
 430              		.global	osTaskAdd2TimerList
 431              		.syntax unified
 432              		.thumb
 433              		.thumb_func
 434              		.fpu fpv4-sp-d16
 436              	osTaskAdd2TimerList:
 437              	.LFB132:
 184:C:/Users/dtjld/Desktop/AIoT_software/LiteOS_Lab_overseas/LiteOS_Lab/iot_link/os/liteos/base/core\los_task.c **** 
 185:C:/Users/dtjld/Desktop/AIoT_software/LiteOS_Lab_overseas/LiteOS_Lab/iot_link/os/liteos/base/core\los_task.c **** /*****************************************************************************
 186:C:/Users/dtjld/Desktop/AIoT_software/LiteOS_Lab_overseas/LiteOS_Lab/iot_link/os/liteos/base/core\los_task.c ****  Function : osTaskAdd2TimerList
 187:C:/Users/dtjld/Desktop/AIoT_software/LiteOS_Lab_overseas/LiteOS_Lab/iot_link/os/liteos/base/core\los_task.c ****  Description : Add task to sorted delay list.
 188:C:/Users/dtjld/Desktop/AIoT_software/LiteOS_Lab_overseas/LiteOS_Lab/iot_link/os/liteos/base/core\los_task.c ****  Input       : pstTaskCB    --- task control block
 189:C:/Users/dtjld/Desktop/AIoT_software/LiteOS_Lab_overseas/LiteOS_Lab/iot_link/os/liteos/base/core\los_task.c ****                uwTimeout    --- wait time, ticks
 190:C:/Users/dtjld/Desktop/AIoT_software/LiteOS_Lab_overseas/LiteOS_Lab/iot_link/os/liteos/base/core\los_task.c ****  Output      : None
 191:C:/Users/dtjld/Desktop/AIoT_software/LiteOS_Lab_overseas/LiteOS_Lab/iot_link/os/liteos/base/core\los_task.c ****  Return      : None
 192:C:/Users/dtjld/Desktop/AIoT_software/LiteOS_Lab_overseas/LiteOS_Lab/iot_link/os/liteos/base/core\los_task.c ****  *****************************************************************************/
 193:C:/Users/dtjld/Desktop/AIoT_software/LiteOS_Lab_overseas/LiteOS_Lab/iot_link/os/liteos/base/core\los_task.c **** LITE_OS_SEC_TEXT VOID osTaskAdd2TimerList(LOS_TASK_CB *pstTaskCB, UINT32 uwTimeout)
 194:C:/Users/dtjld/Desktop/AIoT_software/LiteOS_Lab_overseas/LiteOS_Lab/iot_link/os/liteos/base/core\los_task.c **** {
 438              		.loc 2 194 0
 439              		.cfi_startproc
 440              		@ args = 0, pretend = 0, frame = 24
 441              		@ frame_needed = 1, uses_anonymous_args = 0
 442 0000 80B5     		push	{r7, lr}
 443              	.LCFI36:
 444              		.cfi_def_cfa_offset 8
 445              		.cfi_offset 7, -8
 446              		.cfi_offset 14, -4
 447 0002 86B0     		sub	sp, sp, #24
 448              	.LCFI37:
 449              		.cfi_def_cfa_offset 32
 450 0004 00AF     		add	r7, sp, #0
 451              	.LCFI38:
 452              		.cfi_def_cfa_register 7
 453 0006 7860     		str	r0, [r7, #4]
 454 0008 3960     		str	r1, [r7]
 195:C:/Users/dtjld/Desktop/AIoT_software/LiteOS_Lab_overseas/LiteOS_Lab/iot_link/os/liteos/base/core\los_task.c ****     LOS_TASK_CB *pstTskDelay;
 196:C:/Users/dtjld/Desktop/AIoT_software/LiteOS_Lab_overseas/LiteOS_Lab/iot_link/os/liteos/base/core\los_task.c ****     LOS_DL_LIST *pstListObject;
 197:C:/Users/dtjld/Desktop/AIoT_software/LiteOS_Lab_overseas/LiteOS_Lab/iot_link/os/liteos/base/core\los_task.c ****     UINT32 uwSortIndex;
 198:C:/Users/dtjld/Desktop/AIoT_software/LiteOS_Lab_overseas/LiteOS_Lab/iot_link/os/liteos/base/core\los_task.c ****     UINT32 uwRollNum;
 199:C:/Users/dtjld/Desktop/AIoT_software/LiteOS_Lab_overseas/LiteOS_Lab/iot_link/os/liteos/base/core\los_task.c **** 
 200:C:/Users/dtjld/Desktop/AIoT_software/LiteOS_Lab_overseas/LiteOS_Lab/iot_link/os/liteos/base/core\los_task.c ****     uwSortIndex = uwTimeout & OS_TSK_SORTLINK_MASK;
 455              		.loc 2 200 0
 456 000a 3B68     		ldr	r3, [r7]
 457 000c 03F01F03 		and	r3, r3, #31
ARM GAS  C:\Users\dtjld\AppData\Local\Temp\ccU8krAq.s 			page 16


 458 0010 FB60     		str	r3, [r7, #12]
 201:C:/Users/dtjld/Desktop/AIoT_software/LiteOS_Lab_overseas/LiteOS_Lab/iot_link/os/liteos/base/core\los_task.c ****     uwRollNum = (uwTimeout >> OS_TSK_SORTLINK_LOGLEN);
 459              		.loc 2 201 0
 460 0012 3B68     		ldr	r3, [r7]
 461 0014 5B09     		lsrs	r3, r3, #5
 462 0016 3B61     		str	r3, [r7, #16]
 202:C:/Users/dtjld/Desktop/AIoT_software/LiteOS_Lab_overseas/LiteOS_Lab/iot_link/os/liteos/base/core\los_task.c ****     (uwSortIndex > 0) ? 0 : (uwRollNum--);
 463              		.loc 2 202 0
 464 0018 FB68     		ldr	r3, [r7, #12]
 465 001a 002B     		cmp	r3, #0
 466 001c 02D1     		bne	.L15
 467              		.loc 2 202 0 is_stmt 0 discriminator 1
 468 001e 3B69     		ldr	r3, [r7, #16]
 469 0020 013B     		subs	r3, r3, #1
 470 0022 3B61     		str	r3, [r7, #16]
 471              	.L15:
 203:C:/Users/dtjld/Desktop/AIoT_software/LiteOS_Lab_overseas/LiteOS_Lab/iot_link/os/liteos/base/core\los_task.c ****     EVALUATE_L(pstTaskCB->uwIdxRollNum, uwRollNum);
 472              		.loc 2 203 0 is_stmt 1
 473 0024 7B68     		ldr	r3, [r7, #4]
 474 0026 9B6B     		ldr	r3, [r3, #56]
 475 0028 03F07842 		and	r2, r3, #-134217728
 476 002c 3B69     		ldr	r3, [r7, #16]
 477 002e 1A43     		orrs	r2, r2, r3
 478 0030 7B68     		ldr	r3, [r7, #4]
 479 0032 9A63     		str	r2, [r3, #56]
 204:C:/Users/dtjld/Desktop/AIoT_software/LiteOS_Lab_overseas/LiteOS_Lab/iot_link/os/liteos/base/core\los_task.c ****     uwSortIndex = (uwSortIndex + g_stTskSortLink.usCursor);
 480              		.loc 2 204 0
 481 0034 354B     		ldr	r3, .L24
 482 0036 9B88     		ldrh	r3, [r3, #4]
 483 0038 1A46     		mov	r2, r3
 484 003a FB68     		ldr	r3, [r7, #12]
 485 003c 1344     		add	r3, r3, r2
 486 003e FB60     		str	r3, [r7, #12]
 205:C:/Users/dtjld/Desktop/AIoT_software/LiteOS_Lab_overseas/LiteOS_Lab/iot_link/os/liteos/base/core\los_task.c ****     uwSortIndex = uwSortIndex & OS_TSK_SORTLINK_MASK;
 487              		.loc 2 205 0
 488 0040 FB68     		ldr	r3, [r7, #12]
 489 0042 03F01F03 		and	r3, r3, #31
 490 0046 FB60     		str	r3, [r7, #12]
 206:C:/Users/dtjld/Desktop/AIoT_software/LiteOS_Lab_overseas/LiteOS_Lab/iot_link/os/liteos/base/core\los_task.c ****     EVALUATE_H(pstTaskCB->uwIdxRollNum, uwSortIndex);
 491              		.loc 2 206 0
 492 0048 7B68     		ldr	r3, [r7, #4]
 493 004a 9B6B     		ldr	r3, [r3, #56]
 494 004c 23F07842 		bic	r2, r3, #-134217728
 495 0050 FB68     		ldr	r3, [r7, #12]
 496 0052 DB06     		lsls	r3, r3, #27
 497 0054 1A43     		orrs	r2, r2, r3
 498 0056 7B68     		ldr	r3, [r7, #4]
 499 0058 9A63     		str	r2, [r3, #56]
 207:C:/Users/dtjld/Desktop/AIoT_software/LiteOS_Lab_overseas/LiteOS_Lab/iot_link/os/liteos/base/core\los_task.c ****     pstListObject = g_stTskSortLink.pstSortLink + uwSortIndex;
 500              		.loc 2 207 0
 501 005a 2C4B     		ldr	r3, .L24
 502 005c 1A68     		ldr	r2, [r3]
 503 005e FB68     		ldr	r3, [r7, #12]
 504 0060 DB00     		lsls	r3, r3, #3
 505 0062 1344     		add	r3, r3, r2
 506 0064 BB60     		str	r3, [r7, #8]
 208:C:/Users/dtjld/Desktop/AIoT_software/LiteOS_Lab_overseas/LiteOS_Lab/iot_link/os/liteos/base/core\los_task.c ****     if (pstListObject->pstNext == pstListObject)
ARM GAS  C:\Users\dtjld\AppData\Local\Temp\ccU8krAq.s 			page 17


 507              		.loc 2 208 0
 508 0066 BB68     		ldr	r3, [r7, #8]
 509 0068 5B68     		ldr	r3, [r3, #4]
 510 006a BA68     		ldr	r2, [r7, #8]
 511 006c 9A42     		cmp	r2, r3
 512 006e 06D1     		bne	.L16
 209:C:/Users/dtjld/Desktop/AIoT_software/LiteOS_Lab_overseas/LiteOS_Lab/iot_link/os/liteos/base/core\los_task.c ****     {
 210:C:/Users/dtjld/Desktop/AIoT_software/LiteOS_Lab_overseas/LiteOS_Lab/iot_link/os/liteos/base/core\los_task.c ****         LOS_ListTailInsert(pstListObject, &pstTaskCB->stTimerList);
 513              		.loc 2 210 0
 514 0070 7B68     		ldr	r3, [r7, #4]
 515 0072 3033     		adds	r3, r3, #48
 516 0074 1946     		mov	r1, r3
 517 0076 B868     		ldr	r0, [r7, #8]
 518 0078 FFF7FEFF 		bl	LOS_ListTailInsert
 211:C:/Users/dtjld/Desktop/AIoT_software/LiteOS_Lab_overseas/LiteOS_Lab/iot_link/os/liteos/base/core\los_task.c ****     }
 212:C:/Users/dtjld/Desktop/AIoT_software/LiteOS_Lab_overseas/LiteOS_Lab/iot_link/os/liteos/base/core\los_task.c ****     else
 213:C:/Users/dtjld/Desktop/AIoT_software/LiteOS_Lab_overseas/LiteOS_Lab/iot_link/os/liteos/base/core\los_task.c ****     {
 214:C:/Users/dtjld/Desktop/AIoT_software/LiteOS_Lab_overseas/LiteOS_Lab/iot_link/os/liteos/base/core\los_task.c ****         pstTskDelay = LOS_DL_LIST_ENTRY((pstListObject)->pstNext, LOS_TASK_CB, stTimerList); /*lint
 215:C:/Users/dtjld/Desktop/AIoT_software/LiteOS_Lab_overseas/LiteOS_Lab/iot_link/os/liteos/base/core\los_task.c ****         do
 216:C:/Users/dtjld/Desktop/AIoT_software/LiteOS_Lab_overseas/LiteOS_Lab/iot_link/os/liteos/base/core\los_task.c ****         {
 217:C:/Users/dtjld/Desktop/AIoT_software/LiteOS_Lab_overseas/LiteOS_Lab/iot_link/os/liteos/base/core\los_task.c ****             if (UWROLLNUM(pstTskDelay->uwIdxRollNum) <= UWROLLNUM(pstTaskCB->uwIdxRollNum))
 218:C:/Users/dtjld/Desktop/AIoT_software/LiteOS_Lab_overseas/LiteOS_Lab/iot_link/os/liteos/base/core\los_task.c ****             {
 219:C:/Users/dtjld/Desktop/AIoT_software/LiteOS_Lab_overseas/LiteOS_Lab/iot_link/os/liteos/base/core\los_task.c ****                 UWROLLNUMSUB(pstTaskCB->uwIdxRollNum, pstTskDelay->uwIdxRollNum);
 220:C:/Users/dtjld/Desktop/AIoT_software/LiteOS_Lab_overseas/LiteOS_Lab/iot_link/os/liteos/base/core\los_task.c ****             }
 221:C:/Users/dtjld/Desktop/AIoT_software/LiteOS_Lab_overseas/LiteOS_Lab/iot_link/os/liteos/base/core\los_task.c ****             else
 222:C:/Users/dtjld/Desktop/AIoT_software/LiteOS_Lab_overseas/LiteOS_Lab/iot_link/os/liteos/base/core\los_task.c ****             {
 223:C:/Users/dtjld/Desktop/AIoT_software/LiteOS_Lab_overseas/LiteOS_Lab/iot_link/os/liteos/base/core\los_task.c ****                 UWROLLNUMSUB(pstTskDelay->uwIdxRollNum, pstTaskCB->uwIdxRollNum);
 224:C:/Users/dtjld/Desktop/AIoT_software/LiteOS_Lab_overseas/LiteOS_Lab/iot_link/os/liteos/base/core\los_task.c ****                 break;
 225:C:/Users/dtjld/Desktop/AIoT_software/LiteOS_Lab_overseas/LiteOS_Lab/iot_link/os/liteos/base/core\los_task.c ****             }
 226:C:/Users/dtjld/Desktop/AIoT_software/LiteOS_Lab_overseas/LiteOS_Lab/iot_link/os/liteos/base/core\los_task.c **** 
 227:C:/Users/dtjld/Desktop/AIoT_software/LiteOS_Lab_overseas/LiteOS_Lab/iot_link/os/liteos/base/core\los_task.c ****             pstTskDelay = LOS_DL_LIST_ENTRY(pstTskDelay->stTimerList.pstNext, LOS_TASK_CB, stTimerL
 228:C:/Users/dtjld/Desktop/AIoT_software/LiteOS_Lab_overseas/LiteOS_Lab/iot_link/os/liteos/base/core\los_task.c ****         } while (&pstTskDelay->stTimerList != (pstListObject));
 229:C:/Users/dtjld/Desktop/AIoT_software/LiteOS_Lab_overseas/LiteOS_Lab/iot_link/os/liteos/base/core\los_task.c **** 
 230:C:/Users/dtjld/Desktop/AIoT_software/LiteOS_Lab_overseas/LiteOS_Lab/iot_link/os/liteos/base/core\los_task.c ****         LOS_ListTailInsert(&pstTskDelay->stTimerList, &pstTaskCB->stTimerList);
 231:C:/Users/dtjld/Desktop/AIoT_software/LiteOS_Lab_overseas/LiteOS_Lab/iot_link/os/liteos/base/core\los_task.c ****     }
 232:C:/Users/dtjld/Desktop/AIoT_software/LiteOS_Lab_overseas/LiteOS_Lab/iot_link/os/liteos/base/core\los_task.c **** }
 519              		.loc 2 232 0
 520 007c 41E0     		b	.L23
 521              	.L16:
 214:C:/Users/dtjld/Desktop/AIoT_software/LiteOS_Lab_overseas/LiteOS_Lab/iot_link/os/liteos/base/core\los_task.c ****         do
 522              		.loc 2 214 0
 523 007e BB68     		ldr	r3, [r7, #8]
 524 0080 5B68     		ldr	r3, [r3, #4]
 525 0082 303B     		subs	r3, r3, #48
 526 0084 7B61     		str	r3, [r7, #20]
 527              	.L21:
 217:C:/Users/dtjld/Desktop/AIoT_software/LiteOS_Lab_overseas/LiteOS_Lab/iot_link/os/liteos/base/core\los_task.c ****             {
 528              		.loc 2 217 0
 529 0086 7B69     		ldr	r3, [r7, #20]
 530 0088 9B6B     		ldr	r3, [r3, #56]
 531 008a 23F07842 		bic	r2, r3, #-134217728
 532 008e 7B68     		ldr	r3, [r7, #4]
 533 0090 9B6B     		ldr	r3, [r3, #56]
 534 0092 23F07843 		bic	r3, r3, #-134217728
 535 0096 9A42     		cmp	r2, r3
 536 0098 10D8     		bhi	.L18
 219:C:/Users/dtjld/Desktop/AIoT_software/LiteOS_Lab_overseas/LiteOS_Lab/iot_link/os/liteos/base/core\los_task.c ****             }
ARM GAS  C:\Users\dtjld\AppData\Local\Temp\ccU8krAq.s 			page 18


 537              		.loc 2 219 0
 538 009a 7B68     		ldr	r3, [r7, #4]
 539 009c 9B6B     		ldr	r3, [r3, #56]
 540 009e 03F07842 		and	r2, r3, #-134217728
 541 00a2 7B68     		ldr	r3, [r7, #4]
 542 00a4 9B6B     		ldr	r3, [r3, #56]
 543 00a6 23F07841 		bic	r1, r3, #-134217728
 544 00aa 7B69     		ldr	r3, [r7, #20]
 545 00ac 9B6B     		ldr	r3, [r3, #56]
 546 00ae 23F07843 		bic	r3, r3, #-134217728
 547 00b2 CB1A     		subs	r3, r1, r3
 548 00b4 1A43     		orrs	r2, r2, r3
 549 00b6 7B68     		ldr	r3, [r7, #4]
 550 00b8 9A63     		str	r2, [r3, #56]
 551 00ba 10E0     		b	.L22
 552              	.L18:
 223:C:/Users/dtjld/Desktop/AIoT_software/LiteOS_Lab_overseas/LiteOS_Lab/iot_link/os/liteos/base/core\los_task.c ****                 break;
 553              		.loc 2 223 0
 554 00bc 7B69     		ldr	r3, [r7, #20]
 555 00be 9B6B     		ldr	r3, [r3, #56]
 556 00c0 03F07842 		and	r2, r3, #-134217728
 557 00c4 7B69     		ldr	r3, [r7, #20]
 558 00c6 9B6B     		ldr	r3, [r3, #56]
 559 00c8 23F07841 		bic	r1, r3, #-134217728
 560 00cc 7B68     		ldr	r3, [r7, #4]
 561 00ce 9B6B     		ldr	r3, [r3, #56]
 562 00d0 23F07843 		bic	r3, r3, #-134217728
 563 00d4 CB1A     		subs	r3, r1, r3
 564 00d6 1A43     		orrs	r2, r2, r3
 565 00d8 7B69     		ldr	r3, [r7, #20]
 566 00da 9A63     		str	r2, [r3, #56]
 224:C:/Users/dtjld/Desktop/AIoT_software/LiteOS_Lab_overseas/LiteOS_Lab/iot_link/os/liteos/base/core\los_task.c ****             }
 567              		.loc 2 224 0
 568 00dc 08E0     		b	.L20
 569              	.L22:
 227:C:/Users/dtjld/Desktop/AIoT_software/LiteOS_Lab_overseas/LiteOS_Lab/iot_link/os/liteos/base/core\los_task.c ****         } while (&pstTskDelay->stTimerList != (pstListObject));
 570              		.loc 2 227 0
 571 00de 7B69     		ldr	r3, [r7, #20]
 572 00e0 5B6B     		ldr	r3, [r3, #52]
 573 00e2 303B     		subs	r3, r3, #48
 574 00e4 7B61     		str	r3, [r7, #20]
 228:C:/Users/dtjld/Desktop/AIoT_software/LiteOS_Lab_overseas/LiteOS_Lab/iot_link/os/liteos/base/core\los_task.c **** 
 575              		.loc 2 228 0
 576 00e6 7B69     		ldr	r3, [r7, #20]
 577 00e8 3033     		adds	r3, r3, #48
 578 00ea BA68     		ldr	r2, [r7, #8]
 579 00ec 9A42     		cmp	r2, r3
 580 00ee CAD1     		bne	.L21
 581              	.L20:
 230:C:/Users/dtjld/Desktop/AIoT_software/LiteOS_Lab_overseas/LiteOS_Lab/iot_link/os/liteos/base/core\los_task.c ****     }
 582              		.loc 2 230 0
 583 00f0 7B69     		ldr	r3, [r7, #20]
 584 00f2 03F13002 		add	r2, r3, #48
 585 00f6 7B68     		ldr	r3, [r7, #4]
 586 00f8 3033     		adds	r3, r3, #48
 587 00fa 1946     		mov	r1, r3
 588 00fc 1046     		mov	r0, r2
ARM GAS  C:\Users\dtjld\AppData\Local\Temp\ccU8krAq.s 			page 19


 589 00fe FFF7FEFF 		bl	LOS_ListTailInsert
 590              	.L23:
 591              		.loc 2 232 0
 592 0102 00BF     		nop
 593 0104 1837     		adds	r7, r7, #24
 594              	.LCFI39:
 595              		.cfi_def_cfa_offset 8
 596 0106 BD46     		mov	sp, r7
 597              	.LCFI40:
 598              		.cfi_def_cfa_register 13
 599              		@ sp needed
 600 0108 80BD     		pop	{r7, pc}
 601              	.L25:
 602 010a 00BF     		.align	2
 603              	.L24:
 604 010c 00000000 		.word	g_stTskSortLink
 605              		.cfi_endproc
 606              	.LFE132:
 608              		.section	.text.osTimerListDelete,"ax",%progbits
 609              		.align	1
 610              		.global	osTimerListDelete
 611              		.syntax unified
 612              		.thumb
 613              		.thumb_func
 614              		.fpu fpv4-sp-d16
 616              	osTimerListDelete:
 617              	.LFB133:
 233:C:/Users/dtjld/Desktop/AIoT_software/LiteOS_Lab_overseas/LiteOS_Lab/iot_link/os/liteos/base/core\los_task.c **** 
 234:C:/Users/dtjld/Desktop/AIoT_software/LiteOS_Lab_overseas/LiteOS_Lab/iot_link/os/liteos/base/core\los_task.c **** 
 235:C:/Users/dtjld/Desktop/AIoT_software/LiteOS_Lab_overseas/LiteOS_Lab/iot_link/os/liteos/base/core\los_task.c **** LITE_OS_SEC_TEXT VOID osTimerListDelete(LOS_TASK_CB *pstTaskCB)
 236:C:/Users/dtjld/Desktop/AIoT_software/LiteOS_Lab_overseas/LiteOS_Lab/iot_link/os/liteos/base/core\los_task.c **** {
 618              		.loc 2 236 0
 619              		.cfi_startproc
 620              		@ args = 0, pretend = 0, frame = 24
 621              		@ frame_needed = 1, uses_anonymous_args = 0
 622 0000 80B5     		push	{r7, lr}
 623              	.LCFI41:
 624              		.cfi_def_cfa_offset 8
 625              		.cfi_offset 7, -8
 626              		.cfi_offset 14, -4
 627 0002 86B0     		sub	sp, sp, #24
 628              	.LCFI42:
 629              		.cfi_def_cfa_offset 32
 630 0004 00AF     		add	r7, sp, #0
 631              	.LCFI43:
 632              		.cfi_def_cfa_register 7
 633 0006 7860     		str	r0, [r7, #4]
 237:C:/Users/dtjld/Desktop/AIoT_software/LiteOS_Lab_overseas/LiteOS_Lab/iot_link/os/liteos/base/core\los_task.c ****     LOS_DL_LIST  *pstListObject;
 238:C:/Users/dtjld/Desktop/AIoT_software/LiteOS_Lab_overseas/LiteOS_Lab/iot_link/os/liteos/base/core\los_task.c ****     LOS_TASK_CB  *pstNextTask;
 239:C:/Users/dtjld/Desktop/AIoT_software/LiteOS_Lab_overseas/LiteOS_Lab/iot_link/os/liteos/base/core\los_task.c ****     UINT32 uwSortIndex;
 240:C:/Users/dtjld/Desktop/AIoT_software/LiteOS_Lab_overseas/LiteOS_Lab/iot_link/os/liteos/base/core\los_task.c **** 
 241:C:/Users/dtjld/Desktop/AIoT_software/LiteOS_Lab_overseas/LiteOS_Lab/iot_link/os/liteos/base/core\los_task.c ****     uwSortIndex = UWSORTINDEX(pstTaskCB->uwIdxRollNum);
 634              		.loc 2 241 0
 635 0008 7B68     		ldr	r3, [r7, #4]
 636 000a 9B6B     		ldr	r3, [r3, #56]
 637 000c DB0E     		lsrs	r3, r3, #27
 638 000e 7B61     		str	r3, [r7, #20]
ARM GAS  C:\Users\dtjld\AppData\Local\Temp\ccU8krAq.s 			page 20


 242:C:/Users/dtjld/Desktop/AIoT_software/LiteOS_Lab_overseas/LiteOS_Lab/iot_link/os/liteos/base/core\los_task.c ****     pstListObject = g_stTskSortLink.pstSortLink + uwSortIndex;
 639              		.loc 2 242 0
 640 0010 134B     		ldr	r3, .L28
 641 0012 1A68     		ldr	r2, [r3]
 642 0014 7B69     		ldr	r3, [r7, #20]
 643 0016 DB00     		lsls	r3, r3, #3
 644 0018 1344     		add	r3, r3, r2
 645 001a 3B61     		str	r3, [r7, #16]
 243:C:/Users/dtjld/Desktop/AIoT_software/LiteOS_Lab_overseas/LiteOS_Lab/iot_link/os/liteos/base/core\los_task.c **** 
 244:C:/Users/dtjld/Desktop/AIoT_software/LiteOS_Lab_overseas/LiteOS_Lab/iot_link/os/liteos/base/core\los_task.c ****     if (pstListObject != pstTaskCB->stTimerList.pstNext)
 646              		.loc 2 244 0
 647 001c 7B68     		ldr	r3, [r7, #4]
 648 001e 5B6B     		ldr	r3, [r3, #52]
 649 0020 3A69     		ldr	r2, [r7, #16]
 650 0022 9A42     		cmp	r2, r3
 651 0024 13D0     		beq	.L27
 245:C:/Users/dtjld/Desktop/AIoT_software/LiteOS_Lab_overseas/LiteOS_Lab/iot_link/os/liteos/base/core\los_task.c ****     {
 246:C:/Users/dtjld/Desktop/AIoT_software/LiteOS_Lab_overseas/LiteOS_Lab/iot_link/os/liteos/base/core\los_task.c ****         pstNextTask = LOS_DL_LIST_ENTRY(pstTaskCB->stTimerList.pstNext, LOS_TASK_CB, stTimerList); 
 652              		.loc 2 246 0
 653 0026 7B68     		ldr	r3, [r7, #4]
 654 0028 5B6B     		ldr	r3, [r3, #52]
 655 002a 303B     		subs	r3, r3, #48
 656 002c FB60     		str	r3, [r7, #12]
 247:C:/Users/dtjld/Desktop/AIoT_software/LiteOS_Lab_overseas/LiteOS_Lab/iot_link/os/liteos/base/core\los_task.c ****         UWROLLNUMADD(pstNextTask->uwIdxRollNum, pstTaskCB->uwIdxRollNum);
 657              		.loc 2 247 0
 658 002e FB68     		ldr	r3, [r7, #12]
 659 0030 9B6B     		ldr	r3, [r3, #56]
 660 0032 03F07842 		and	r2, r3, #-134217728
 661 0036 FB68     		ldr	r3, [r7, #12]
 662 0038 9B6B     		ldr	r3, [r3, #56]
 663 003a 23F07841 		bic	r1, r3, #-134217728
 664 003e 7B68     		ldr	r3, [r7, #4]
 665 0040 9B6B     		ldr	r3, [r3, #56]
 666 0042 23F07843 		bic	r3, r3, #-134217728
 667 0046 0B44     		add	r3, r3, r1
 668 0048 1A43     		orrs	r2, r2, r3
 669 004a FB68     		ldr	r3, [r7, #12]
 670 004c 9A63     		str	r2, [r3, #56]
 671              	.L27:
 248:C:/Users/dtjld/Desktop/AIoT_software/LiteOS_Lab_overseas/LiteOS_Lab/iot_link/os/liteos/base/core\los_task.c ****     }
 249:C:/Users/dtjld/Desktop/AIoT_software/LiteOS_Lab_overseas/LiteOS_Lab/iot_link/os/liteos/base/core\los_task.c **** 
 250:C:/Users/dtjld/Desktop/AIoT_software/LiteOS_Lab_overseas/LiteOS_Lab/iot_link/os/liteos/base/core\los_task.c ****     LOS_ListDelete(&pstTaskCB->stTimerList);
 672              		.loc 2 250 0
 673 004e 7B68     		ldr	r3, [r7, #4]
 674 0050 3033     		adds	r3, r3, #48
 675 0052 1846     		mov	r0, r3
 676 0054 FFF7FEFF 		bl	LOS_ListDelete
 251:C:/Users/dtjld/Desktop/AIoT_software/LiteOS_Lab_overseas/LiteOS_Lab/iot_link/os/liteos/base/core\los_task.c **** }
 677              		.loc 2 251 0
 678 0058 00BF     		nop
 679 005a 1837     		adds	r7, r7, #24
 680              	.LCFI44:
 681              		.cfi_def_cfa_offset 8
 682 005c BD46     		mov	sp, r7
 683              	.LCFI45:
 684              		.cfi_def_cfa_register 13
 685              		@ sp needed
ARM GAS  C:\Users\dtjld\AppData\Local\Temp\ccU8krAq.s 			page 21


 686 005e 80BD     		pop	{r7, pc}
 687              	.L29:
 688              		.align	2
 689              	.L28:
 690 0060 00000000 		.word	g_stTskSortLink
 691              		.cfi_endproc
 692              	.LFE133:
 694              		.section	.text.osTaskScan,"ax",%progbits
 695              		.align	1
 696              		.global	osTaskScan
 697              		.syntax unified
 698              		.thumb
 699              		.thumb_func
 700              		.fpu fpv4-sp-d16
 702              	osTaskScan:
 703              	.LFB134:
 252:C:/Users/dtjld/Desktop/AIoT_software/LiteOS_Lab_overseas/LiteOS_Lab/iot_link/os/liteos/base/core\los_task.c **** 
 253:C:/Users/dtjld/Desktop/AIoT_software/LiteOS_Lab_overseas/LiteOS_Lab/iot_link/os/liteos/base/core\los_task.c **** LITE_OS_SEC_TEXT VOID osTaskScan(VOID)
 254:C:/Users/dtjld/Desktop/AIoT_software/LiteOS_Lab_overseas/LiteOS_Lab/iot_link/os/liteos/base/core\los_task.c **** {
 704              		.loc 2 254 0
 705              		.cfi_startproc
 706              		@ args = 0, pretend = 0, frame = 16
 707              		@ frame_needed = 1, uses_anonymous_args = 0
 708 0000 80B5     		push	{r7, lr}
 709              	.LCFI46:
 710              		.cfi_def_cfa_offset 8
 711              		.cfi_offset 7, -8
 712              		.cfi_offset 14, -4
 713 0002 84B0     		sub	sp, sp, #16
 714              	.LCFI47:
 715              		.cfi_def_cfa_offset 24
 716 0004 00AF     		add	r7, sp, #0
 717              	.LCFI48:
 718              		.cfi_def_cfa_register 7
 255:C:/Users/dtjld/Desktop/AIoT_software/LiteOS_Lab_overseas/LiteOS_Lab/iot_link/os/liteos/base/core\los_task.c ****     LOS_TASK_CB *pstTaskCB;
 256:C:/Users/dtjld/Desktop/AIoT_software/LiteOS_Lab_overseas/LiteOS_Lab/iot_link/os/liteos/base/core\los_task.c ****     BOOL bNeedSchedule = FALSE;
 719              		.loc 2 256 0
 720 0006 0023     		movs	r3, #0
 721 0008 BB60     		str	r3, [r7, #8]
 257:C:/Users/dtjld/Desktop/AIoT_software/LiteOS_Lab_overseas/LiteOS_Lab/iot_link/os/liteos/base/core\los_task.c ****     LOS_DL_LIST *pstListObject;
 258:C:/Users/dtjld/Desktop/AIoT_software/LiteOS_Lab_overseas/LiteOS_Lab/iot_link/os/liteos/base/core\los_task.c ****     UINT16 usTempStatus;
 259:C:/Users/dtjld/Desktop/AIoT_software/LiteOS_Lab_overseas/LiteOS_Lab/iot_link/os/liteos/base/core\los_task.c **** 
 260:C:/Users/dtjld/Desktop/AIoT_software/LiteOS_Lab_overseas/LiteOS_Lab/iot_link/os/liteos/base/core\los_task.c ****     g_stTskSortLink.usCursor = (g_stTskSortLink.usCursor + 1) % OS_TSK_SORTLINK_LEN;
 722              		.loc 2 260 0
 723 000a 4F4B     		ldr	r3, .L43
 724 000c 9B88     		ldrh	r3, [r3, #4]
 725 000e 0133     		adds	r3, r3, #1
 726 0010 5A42     		rsbs	r2, r3, #0
 727 0012 03F01F03 		and	r3, r3, #31
 728 0016 02F01F02 		and	r2, r2, #31
 729 001a 58BF     		it	pl
 730 001c 5342     		rsbpl	r3, r2, #0
 731 001e 9AB2     		uxth	r2, r3
 732 0020 494B     		ldr	r3, .L43
 733 0022 9A80     		strh	r2, [r3, #4]	@ movhi
 261:C:/Users/dtjld/Desktop/AIoT_software/LiteOS_Lab_overseas/LiteOS_Lab/iot_link/os/liteos/base/core\los_task.c ****     pstListObject = g_stTskSortLink.pstSortLink + g_stTskSortLink.usCursor;
 734              		.loc 2 261 0
ARM GAS  C:\Users\dtjld\AppData\Local\Temp\ccU8krAq.s 			page 22


 735 0024 484B     		ldr	r3, .L43
 736 0026 1A68     		ldr	r2, [r3]
 737 0028 474B     		ldr	r3, .L43
 738 002a 9B88     		ldrh	r3, [r3, #4]
 739 002c DB00     		lsls	r3, r3, #3
 740 002e 1344     		add	r3, r3, r2
 741 0030 7B60     		str	r3, [r7, #4]
 262:C:/Users/dtjld/Desktop/AIoT_software/LiteOS_Lab_overseas/LiteOS_Lab/iot_link/os/liteos/base/core\los_task.c ****     if (pstListObject->pstNext == pstListObject)
 742              		.loc 2 262 0
 743 0032 7B68     		ldr	r3, [r7, #4]
 744 0034 5B68     		ldr	r3, [r3, #4]
 745 0036 7A68     		ldr	r2, [r7, #4]
 746 0038 9A42     		cmp	r2, r3
 747 003a 00F08180 		beq	.L42
 263:C:/Users/dtjld/Desktop/AIoT_software/LiteOS_Lab_overseas/LiteOS_Lab/iot_link/os/liteos/base/core\los_task.c ****     {
 264:C:/Users/dtjld/Desktop/AIoT_software/LiteOS_Lab_overseas/LiteOS_Lab/iot_link/os/liteos/base/core\los_task.c ****         return;
 265:C:/Users/dtjld/Desktop/AIoT_software/LiteOS_Lab_overseas/LiteOS_Lab/iot_link/os/liteos/base/core\los_task.c ****     }
 266:C:/Users/dtjld/Desktop/AIoT_software/LiteOS_Lab_overseas/LiteOS_Lab/iot_link/os/liteos/base/core\los_task.c **** 
 267:C:/Users/dtjld/Desktop/AIoT_software/LiteOS_Lab_overseas/LiteOS_Lab/iot_link/os/liteos/base/core\los_task.c ****     for (pstTaskCB = LOS_DL_LIST_ENTRY((pstListObject)->pstNext, LOS_TASK_CB, stTimerList);&pstTask
 748              		.loc 2 267 0
 749 003e 7B68     		ldr	r3, [r7, #4]
 750 0040 5B68     		ldr	r3, [r3, #4]
 751 0042 303B     		subs	r3, r3, #48
 752 0044 FB60     		str	r3, [r7, #12]
 753 0046 70E0     		b	.L33
 754              	.L41:
 268:C:/Users/dtjld/Desktop/AIoT_software/LiteOS_Lab_overseas/LiteOS_Lab/iot_link/os/liteos/base/core\los_task.c ****     {
 269:C:/Users/dtjld/Desktop/AIoT_software/LiteOS_Lab_overseas/LiteOS_Lab/iot_link/os/liteos/base/core\los_task.c ****         usTempStatus = pstTaskCB->usTaskStatus;
 755              		.loc 2 269 0
 756 0048 FB68     		ldr	r3, [r7, #12]
 757 004a 9B88     		ldrh	r3, [r3, #4]	@ movhi
 758 004c 7B80     		strh	r3, [r7, #2]	@ movhi
 270:C:/Users/dtjld/Desktop/AIoT_software/LiteOS_Lab_overseas/LiteOS_Lab/iot_link/os/liteos/base/core\los_task.c ****         if (UWROLLNUM(pstTaskCB->uwIdxRollNum) > 0)
 759              		.loc 2 270 0
 760 004e FB68     		ldr	r3, [r7, #12]
 761 0050 9B6B     		ldr	r3, [r3, #56]
 762 0052 23F07843 		bic	r3, r3, #-134217728
 763 0056 002B     		cmp	r3, #0
 764 0058 05D0     		beq	.L34
 271:C:/Users/dtjld/Desktop/AIoT_software/LiteOS_Lab_overseas/LiteOS_Lab/iot_link/os/liteos/base/core\los_task.c ****         {
 272:C:/Users/dtjld/Desktop/AIoT_software/LiteOS_Lab_overseas/LiteOS_Lab/iot_link/os/liteos/base/core\los_task.c ****             UWROLLNUMDEC(pstTaskCB->uwIdxRollNum);
 765              		.loc 2 272 0
 766 005a FB68     		ldr	r3, [r7, #12]
 767 005c 9B6B     		ldr	r3, [r3, #56]
 768 005e 5A1E     		subs	r2, r3, #1
 769 0060 FB68     		ldr	r3, [r7, #12]
 770 0062 9A63     		str	r2, [r3, #56]
 273:C:/Users/dtjld/Desktop/AIoT_software/LiteOS_Lab_overseas/LiteOS_Lab/iot_link/os/liteos/base/core\los_task.c ****             break;
 771              		.loc 2 273 0
 772 0064 66E0     		b	.L35
 773              	.L34:
 274:C:/Users/dtjld/Desktop/AIoT_software/LiteOS_Lab_overseas/LiteOS_Lab/iot_link/os/liteos/base/core\los_task.c ****         }
 275:C:/Users/dtjld/Desktop/AIoT_software/LiteOS_Lab_overseas/LiteOS_Lab/iot_link/os/liteos/base/core\los_task.c **** 
 276:C:/Users/dtjld/Desktop/AIoT_software/LiteOS_Lab_overseas/LiteOS_Lab/iot_link/os/liteos/base/core\los_task.c ****         LOS_ListDelete(&pstTaskCB->stTimerList);
 774              		.loc 2 276 0
 775 0066 FB68     		ldr	r3, [r7, #12]
 776 0068 3033     		adds	r3, r3, #48
ARM GAS  C:\Users\dtjld\AppData\Local\Temp\ccU8krAq.s 			page 23


 777 006a 1846     		mov	r0, r3
 778 006c FFF7FEFF 		bl	LOS_ListDelete
 277:C:/Users/dtjld/Desktop/AIoT_software/LiteOS_Lab_overseas/LiteOS_Lab/iot_link/os/liteos/base/core\los_task.c ****         if (OS_TASK_STATUS_PEND & usTempStatus)
 779              		.loc 2 277 0
 780 0070 7B88     		ldrh	r3, [r7, #2]	@ movhi
 781 0072 03F00803 		and	r3, r3, #8
 782 0076 9BB2     		uxth	r3, r3
 783 0078 002B     		cmp	r3, #0
 784 007a 12D0     		beq	.L36
 278:C:/Users/dtjld/Desktop/AIoT_software/LiteOS_Lab_overseas/LiteOS_Lab/iot_link/os/liteos/base/core\los_task.c ****         {
 279:C:/Users/dtjld/Desktop/AIoT_software/LiteOS_Lab_overseas/LiteOS_Lab/iot_link/os/liteos/base/core\los_task.c ****             pstTaskCB->usTaskStatus &= ~(OS_TASK_STATUS_PEND);
 785              		.loc 2 279 0
 786 007c FB68     		ldr	r3, [r7, #12]
 787 007e 9B88     		ldrh	r3, [r3, #4]
 788 0080 23F00803 		bic	r3, r3, #8
 789 0084 9AB2     		uxth	r2, r3
 790 0086 FB68     		ldr	r3, [r7, #12]
 791 0088 9A80     		strh	r2, [r3, #4]	@ movhi
 280:C:/Users/dtjld/Desktop/AIoT_software/LiteOS_Lab_overseas/LiteOS_Lab/iot_link/os/liteos/base/core\los_task.c ****             LOS_ListDelete(&pstTaskCB->stPendList);
 792              		.loc 2 280 0
 793 008a FB68     		ldr	r3, [r7, #12]
 794 008c 2833     		adds	r3, r3, #40
 795 008e 1846     		mov	r0, r3
 796 0090 FFF7FEFF 		bl	LOS_ListDelete
 281:C:/Users/dtjld/Desktop/AIoT_software/LiteOS_Lab_overseas/LiteOS_Lab/iot_link/os/liteos/base/core\los_task.c ****             pstTaskCB->pTaskSem = NULL;
 797              		.loc 2 281 0
 798 0094 FB68     		ldr	r3, [r7, #12]
 799 0096 0022     		movs	r2, #0
 800 0098 9A61     		str	r2, [r3, #24]
 282:C:/Users/dtjld/Desktop/AIoT_software/LiteOS_Lab_overseas/LiteOS_Lab/iot_link/os/liteos/base/core\los_task.c ****             pstTaskCB->pTaskMux = NULL;
 801              		.loc 2 282 0
 802 009a FB68     		ldr	r3, [r7, #12]
 803 009c 0022     		movs	r2, #0
 804 009e DA61     		str	r2, [r3, #28]
 805 00a0 27E0     		b	.L37
 806              	.L36:
 283:C:/Users/dtjld/Desktop/AIoT_software/LiteOS_Lab_overseas/LiteOS_Lab/iot_link/os/liteos/base/core\los_task.c ****         }
 284:C:/Users/dtjld/Desktop/AIoT_software/LiteOS_Lab_overseas/LiteOS_Lab/iot_link/os/liteos/base/core\los_task.c ****         else if (OS_TASK_STATUS_EVENT & usTempStatus)
 807              		.loc 2 284 0
 808 00a2 7B88     		ldrh	r3, [r7, #2]	@ movhi
 809 00a4 03F48063 		and	r3, r3, #1024
 810 00a8 9BB2     		uxth	r3, r3
 811 00aa 002B     		cmp	r3, #0
 812 00ac 07D0     		beq	.L38
 285:C:/Users/dtjld/Desktop/AIoT_software/LiteOS_Lab_overseas/LiteOS_Lab/iot_link/os/liteos/base/core\los_task.c ****         {
 286:C:/Users/dtjld/Desktop/AIoT_software/LiteOS_Lab_overseas/LiteOS_Lab/iot_link/os/liteos/base/core\los_task.c ****             pstTaskCB->usTaskStatus &= ~(OS_TASK_STATUS_EVENT);
 813              		.loc 2 286 0
 814 00ae FB68     		ldr	r3, [r7, #12]
 815 00b0 9B88     		ldrh	r3, [r3, #4]
 816 00b2 23F48063 		bic	r3, r3, #1024
 817 00b6 9AB2     		uxth	r2, r3
 818 00b8 FB68     		ldr	r3, [r7, #12]
 819 00ba 9A80     		strh	r2, [r3, #4]	@ movhi
 820 00bc 19E0     		b	.L37
 821              	.L38:
 287:C:/Users/dtjld/Desktop/AIoT_software/LiteOS_Lab_overseas/LiteOS_Lab/iot_link/os/liteos/base/core\los_task.c ****         }
 288:C:/Users/dtjld/Desktop/AIoT_software/LiteOS_Lab_overseas/LiteOS_Lab/iot_link/os/liteos/base/core\los_task.c ****         else if (OS_TASK_STATUS_PEND_QUEUE & usTempStatus)
ARM GAS  C:\Users\dtjld\AppData\Local\Temp\ccU8krAq.s 			page 24


 822              		.loc 2 288 0
 823 00be 7B88     		ldrh	r3, [r7, #2]	@ movhi
 824 00c0 03F40053 		and	r3, r3, #8192
 825 00c4 9BB2     		uxth	r3, r3
 826 00c6 002B     		cmp	r3, #0
 827 00c8 0CD0     		beq	.L39
 289:C:/Users/dtjld/Desktop/AIoT_software/LiteOS_Lab_overseas/LiteOS_Lab/iot_link/os/liteos/base/core\los_task.c ****         {
 290:C:/Users/dtjld/Desktop/AIoT_software/LiteOS_Lab_overseas/LiteOS_Lab/iot_link/os/liteos/base/core\los_task.c ****             LOS_ListDelete(&pstTaskCB->stPendList);
 828              		.loc 2 290 0
 829 00ca FB68     		ldr	r3, [r7, #12]
 830 00cc 2833     		adds	r3, r3, #40
 831 00ce 1846     		mov	r0, r3
 832 00d0 FFF7FEFF 		bl	LOS_ListDelete
 291:C:/Users/dtjld/Desktop/AIoT_software/LiteOS_Lab_overseas/LiteOS_Lab/iot_link/os/liteos/base/core\los_task.c ****             pstTaskCB->usTaskStatus &= ~(OS_TASK_STATUS_PEND_QUEUE);
 833              		.loc 2 291 0
 834 00d4 FB68     		ldr	r3, [r7, #12]
 835 00d6 9B88     		ldrh	r3, [r3, #4]
 836 00d8 23F40053 		bic	r3, r3, #8192
 837 00dc 9AB2     		uxth	r2, r3
 838 00de FB68     		ldr	r3, [r7, #12]
 839 00e0 9A80     		strh	r2, [r3, #4]	@ movhi
 840 00e2 06E0     		b	.L37
 841              	.L39:
 292:C:/Users/dtjld/Desktop/AIoT_software/LiteOS_Lab_overseas/LiteOS_Lab/iot_link/os/liteos/base/core\los_task.c ****         }
 293:C:/Users/dtjld/Desktop/AIoT_software/LiteOS_Lab_overseas/LiteOS_Lab/iot_link/os/liteos/base/core\los_task.c ****         else
 294:C:/Users/dtjld/Desktop/AIoT_software/LiteOS_Lab_overseas/LiteOS_Lab/iot_link/os/liteos/base/core\los_task.c ****         {
 295:C:/Users/dtjld/Desktop/AIoT_software/LiteOS_Lab_overseas/LiteOS_Lab/iot_link/os/liteos/base/core\los_task.c ****             pstTaskCB->usTaskStatus &= ~(OS_TASK_STATUS_DELAY);
 842              		.loc 2 295 0
 843 00e4 FB68     		ldr	r3, [r7, #12]
 844 00e6 9B88     		ldrh	r3, [r3, #4]
 845 00e8 23F02003 		bic	r3, r3, #32
 846 00ec 9AB2     		uxth	r2, r3
 847 00ee FB68     		ldr	r3, [r7, #12]
 848 00f0 9A80     		strh	r2, [r3, #4]	@ movhi
 849              	.L37:
 296:C:/Users/dtjld/Desktop/AIoT_software/LiteOS_Lab_overseas/LiteOS_Lab/iot_link/os/liteos/base/core\los_task.c ****         }
 297:C:/Users/dtjld/Desktop/AIoT_software/LiteOS_Lab_overseas/LiteOS_Lab/iot_link/os/liteos/base/core\los_task.c **** 
 298:C:/Users/dtjld/Desktop/AIoT_software/LiteOS_Lab_overseas/LiteOS_Lab/iot_link/os/liteos/base/core\los_task.c ****         if (!((OS_TASK_STATUS_SUSPEND) & usTempStatus))
 850              		.loc 2 298 0
 851 00f2 7B88     		ldrh	r3, [r7, #2]	@ movhi
 852 00f4 03F00203 		and	r3, r3, #2
 853 00f8 9BB2     		uxth	r3, r3
 854 00fa 002B     		cmp	r3, #0
 855 00fc 11D1     		bne	.L40
 299:C:/Users/dtjld/Desktop/AIoT_software/LiteOS_Lab_overseas/LiteOS_Lab/iot_link/os/liteos/base/core\los_task.c ****         {
 300:C:/Users/dtjld/Desktop/AIoT_software/LiteOS_Lab_overseas/LiteOS_Lab/iot_link/os/liteos/base/core\los_task.c ****             pstTaskCB->usTaskStatus |= OS_TASK_STATUS_READY;
 856              		.loc 2 300 0
 857 00fe FB68     		ldr	r3, [r7, #12]
 858 0100 9B88     		ldrh	r3, [r3, #4]
 859 0102 43F00403 		orr	r3, r3, #4
 860 0106 9AB2     		uxth	r2, r3
 861 0108 FB68     		ldr	r3, [r7, #12]
 862 010a 9A80     		strh	r2, [r3, #4]	@ movhi
 301:C:/Users/dtjld/Desktop/AIoT_software/LiteOS_Lab_overseas/LiteOS_Lab/iot_link/os/liteos/base/core\los_task.c ****             osPriqueueEnqueue(&pstTaskCB->stPendList, pstTaskCB->usPriority);
 863              		.loc 2 301 0
 864 010c FB68     		ldr	r3, [r7, #12]
 865 010e 03F12802 		add	r2, r3, #40
ARM GAS  C:\Users\dtjld\AppData\Local\Temp\ccU8krAq.s 			page 25


 866 0112 FB68     		ldr	r3, [r7, #12]
 867 0114 DB88     		ldrh	r3, [r3, #6]
 868 0116 1946     		mov	r1, r3
 869 0118 1046     		mov	r0, r2
 870 011a FFF7FEFF 		bl	osPriqueueEnqueue
 302:C:/Users/dtjld/Desktop/AIoT_software/LiteOS_Lab_overseas/LiteOS_Lab/iot_link/os/liteos/base/core\los_task.c ****             bNeedSchedule = TRUE;
 871              		.loc 2 302 0
 872 011e 0123     		movs	r3, #1
 873 0120 BB60     		str	r3, [r7, #8]
 874              	.L40:
 303:C:/Users/dtjld/Desktop/AIoT_software/LiteOS_Lab_overseas/LiteOS_Lab/iot_link/os/liteos/base/core\los_task.c ****         }
 304:C:/Users/dtjld/Desktop/AIoT_software/LiteOS_Lab_overseas/LiteOS_Lab/iot_link/os/liteos/base/core\los_task.c **** 
 305:C:/Users/dtjld/Desktop/AIoT_software/LiteOS_Lab_overseas/LiteOS_Lab/iot_link/os/liteos/base/core\los_task.c ****         pstTaskCB = LOS_DL_LIST_ENTRY(pstListObject->pstNext, LOS_TASK_CB, stTimerList); /*lint !e4
 875              		.loc 2 305 0
 876 0122 7B68     		ldr	r3, [r7, #4]
 877 0124 5B68     		ldr	r3, [r3, #4]
 878 0126 303B     		subs	r3, r3, #48
 879 0128 FB60     		str	r3, [r7, #12]
 880              	.L33:
 267:C:/Users/dtjld/Desktop/AIoT_software/LiteOS_Lab_overseas/LiteOS_Lab/iot_link/os/liteos/base/core\los_task.c ****     {
 881              		.loc 2 267 0 discriminator 1
 882 012a FB68     		ldr	r3, [r7, #12]
 883 012c 3033     		adds	r3, r3, #48
 884 012e 7A68     		ldr	r2, [r7, #4]
 885 0130 9A42     		cmp	r2, r3
 886 0132 89D1     		bne	.L41
 887              	.L35:
 306:C:/Users/dtjld/Desktop/AIoT_software/LiteOS_Lab_overseas/LiteOS_Lab/iot_link/os/liteos/base/core\los_task.c ****     }
 307:C:/Users/dtjld/Desktop/AIoT_software/LiteOS_Lab_overseas/LiteOS_Lab/iot_link/os/liteos/base/core\los_task.c **** 
 308:C:/Users/dtjld/Desktop/AIoT_software/LiteOS_Lab_overseas/LiteOS_Lab/iot_link/os/liteos/base/core\los_task.c ****     if (bNeedSchedule)
 888              		.loc 2 308 0
 889 0134 BB68     		ldr	r3, [r7, #8]
 890 0136 002B     		cmp	r3, #0
 891 0138 03D0     		beq	.L30
 309:C:/Users/dtjld/Desktop/AIoT_software/LiteOS_Lab_overseas/LiteOS_Lab/iot_link/os/liteos/base/core\los_task.c ****     {
 310:C:/Users/dtjld/Desktop/AIoT_software/LiteOS_Lab_overseas/LiteOS_Lab/iot_link/os/liteos/base/core\los_task.c ****         LOS_Schedule();
 892              		.loc 2 310 0
 893 013a FFF7FEFF 		bl	LOS_Schedule
 894 013e 00E0     		b	.L30
 895              	.L42:
 264:C:/Users/dtjld/Desktop/AIoT_software/LiteOS_Lab_overseas/LiteOS_Lab/iot_link/os/liteos/base/core\los_task.c ****     }
 896              		.loc 2 264 0
 897 0140 00BF     		nop
 898              	.L30:
 311:C:/Users/dtjld/Desktop/AIoT_software/LiteOS_Lab_overseas/LiteOS_Lab/iot_link/os/liteos/base/core\los_task.c ****     }
 312:C:/Users/dtjld/Desktop/AIoT_software/LiteOS_Lab_overseas/LiteOS_Lab/iot_link/os/liteos/base/core\los_task.c **** }
 899              		.loc 2 312 0
 900 0142 1037     		adds	r7, r7, #16
 901              	.LCFI49:
 902              		.cfi_def_cfa_offset 8
 903 0144 BD46     		mov	sp, r7
 904              	.LCFI50:
 905              		.cfi_def_cfa_register 13
 906              		@ sp needed
 907 0146 80BD     		pop	{r7, pc}
 908              	.L44:
 909              		.align	2
ARM GAS  C:\Users\dtjld\AppData\Local\Temp\ccU8krAq.s 			page 26


 910              	.L43:
 911 0148 00000000 		.word	g_stTskSortLink
 912              		.cfi_endproc
 913              	.LFE134:
 915              		.section	.rodata
 916              		.align	2
 917              	.LC0:
 918 0000 52756E6E 		.ascii	"Running\000"
 918      696E6700 
 919              		.align	2
 920              	.LC1:
 921 0008 52656164 		.ascii	"Ready\000"
 921      7900
 922 000e 0000     		.align	2
 923              	.LC2:
 924 0010 44656C61 		.ascii	"Delay\000"
 924      7900
 925 0016 0000     		.align	2
 926              	.LC3:
 927 0018 50656E64 		.ascii	"PendTimeOut\000"
 927      54696D65 
 927      4F757400 
 928              		.align	2
 929              	.LC4:
 930 0024 50656E64 		.ascii	"Pend\000"
 930      00
 931 0029 000000   		.align	2
 932              	.LC5:
 933 002c 53757370 		.ascii	"Suspend\000"
 933      656E6400 
 934              		.align	2
 935              	.LC6:
 936 0034 51756575 		.ascii	"QueuePendTimeOut\000"
 936      6550656E 
 936      6454696D 
 936      654F7574 
 936      00
 937 0045 000000   		.align	2
 938              	.LC7:
 939 0048 51756575 		.ascii	"QueuePend\000"
 939      6550656E 
 939      6400
 940 0052 0000     		.align	2
 941              	.LC8:
 942 0054 496D706F 		.ascii	"Impossible\000"
 942      73736962 
 942      6C6500
 943              		.section	.text.osConvertTskStatus,"ax",%progbits
 944              		.align	1
 945              		.global	osConvertTskStatus
 946              		.syntax unified
 947              		.thumb
 948              		.thumb_func
 949              		.fpu fpv4-sp-d16
 951              	osConvertTskStatus:
 952              	.LFB135:
 313:C:/Users/dtjld/Desktop/AIoT_software/LiteOS_Lab_overseas/LiteOS_Lab/iot_link/os/liteos/base/core\los_task.c **** 
ARM GAS  C:\Users\dtjld\AppData\Local\Temp\ccU8krAq.s 			page 27


 314:C:/Users/dtjld/Desktop/AIoT_software/LiteOS_Lab_overseas/LiteOS_Lab/iot_link/os/liteos/base/core\los_task.c **** /*****************************************************************************
 315:C:/Users/dtjld/Desktop/AIoT_software/LiteOS_Lab_overseas/LiteOS_Lab/iot_link/os/liteos/base/core\los_task.c ****  Function : osConvertTskStatus
 316:C:/Users/dtjld/Desktop/AIoT_software/LiteOS_Lab_overseas/LiteOS_Lab/iot_link/os/liteos/base/core\los_task.c ****  Description : Convert task status to string.
 317:C:/Users/dtjld/Desktop/AIoT_software/LiteOS_Lab_overseas/LiteOS_Lab/iot_link/os/liteos/base/core\los_task.c ****  Input       : usTaskStatus    --- task status
 318:C:/Users/dtjld/Desktop/AIoT_software/LiteOS_Lab_overseas/LiteOS_Lab/iot_link/os/liteos/base/core\los_task.c ****  Output      : None
 319:C:/Users/dtjld/Desktop/AIoT_software/LiteOS_Lab_overseas/LiteOS_Lab/iot_link/os/liteos/base/core\los_task.c ****  Return      : string
 320:C:/Users/dtjld/Desktop/AIoT_software/LiteOS_Lab_overseas/LiteOS_Lab/iot_link/os/liteos/base/core\los_task.c ****  *****************************************************************************/
 321:C:/Users/dtjld/Desktop/AIoT_software/LiteOS_Lab_overseas/LiteOS_Lab/iot_link/os/liteos/base/core\los_task.c **** LITE_OS_SEC_TEXT_MINOR UINT8 *osConvertTskStatus(UINT16 usTaskStatus)
 322:C:/Users/dtjld/Desktop/AIoT_software/LiteOS_Lab_overseas/LiteOS_Lab/iot_link/os/liteos/base/core\los_task.c **** {
 953              		.loc 2 322 0
 954              		.cfi_startproc
 955              		@ args = 0, pretend = 0, frame = 8
 956              		@ frame_needed = 1, uses_anonymous_args = 0
 957              		@ link register save eliminated.
 958 0000 80B4     		push	{r7}
 959              	.LCFI51:
 960              		.cfi_def_cfa_offset 4
 961              		.cfi_offset 7, -4
 962 0002 83B0     		sub	sp, sp, #12
 963              	.LCFI52:
 964              		.cfi_def_cfa_offset 16
 965 0004 00AF     		add	r7, sp, #0
 966              	.LCFI53:
 967              		.cfi_def_cfa_register 7
 968 0006 0346     		mov	r3, r0
 969 0008 FB80     		strh	r3, [r7, #6]	@ movhi
 323:C:/Users/dtjld/Desktop/AIoT_software/LiteOS_Lab_overseas/LiteOS_Lab/iot_link/os/liteos/base/core\los_task.c ****     if (OS_TASK_STATUS_RUNNING & usTaskStatus)
 970              		.loc 2 323 0
 971 000a FB88     		ldrh	r3, [r7, #6]	@ movhi
 972 000c 03F01003 		and	r3, r3, #16
 973 0010 9BB2     		uxth	r3, r3
 974 0012 002B     		cmp	r3, #0
 975 0014 01D0     		beq	.L46
 324:C:/Users/dtjld/Desktop/AIoT_software/LiteOS_Lab_overseas/LiteOS_Lab/iot_link/os/liteos/base/core\los_task.c ****     {
 325:C:/Users/dtjld/Desktop/AIoT_software/LiteOS_Lab_overseas/LiteOS_Lab/iot_link/os/liteos/base/core\los_task.c ****         return (UINT8 *)"Running";
 976              		.loc 2 325 0
 977 0016 204B     		ldr	r3, .L55
 978 0018 38E0     		b	.L47
 979              	.L46:
 326:C:/Users/dtjld/Desktop/AIoT_software/LiteOS_Lab_overseas/LiteOS_Lab/iot_link/os/liteos/base/core\los_task.c ****     }
 327:C:/Users/dtjld/Desktop/AIoT_software/LiteOS_Lab_overseas/LiteOS_Lab/iot_link/os/liteos/base/core\los_task.c ****     else if (OS_TASK_STATUS_READY &  usTaskStatus)
 980              		.loc 2 327 0
 981 001a FB88     		ldrh	r3, [r7, #6]	@ movhi
 982 001c 03F00403 		and	r3, r3, #4
 983 0020 9BB2     		uxth	r3, r3
 984 0022 002B     		cmp	r3, #0
 985 0024 01D0     		beq	.L48
 328:C:/Users/dtjld/Desktop/AIoT_software/LiteOS_Lab_overseas/LiteOS_Lab/iot_link/os/liteos/base/core\los_task.c ****     {
 329:C:/Users/dtjld/Desktop/AIoT_software/LiteOS_Lab_overseas/LiteOS_Lab/iot_link/os/liteos/base/core\los_task.c ****         return (UINT8 *)"Ready";
 986              		.loc 2 329 0
 987 0026 1D4B     		ldr	r3, .L55+4
 988 0028 30E0     		b	.L47
 989              	.L48:
 330:C:/Users/dtjld/Desktop/AIoT_software/LiteOS_Lab_overseas/LiteOS_Lab/iot_link/os/liteos/base/core\los_task.c ****     }
 331:C:/Users/dtjld/Desktop/AIoT_software/LiteOS_Lab_overseas/LiteOS_Lab/iot_link/os/liteos/base/core\los_task.c ****     else if (OS_TASK_STATUS_DELAY &  usTaskStatus)
 990              		.loc 2 331 0
 991 002a FB88     		ldrh	r3, [r7, #6]	@ movhi
ARM GAS  C:\Users\dtjld\AppData\Local\Temp\ccU8krAq.s 			page 28


 992 002c 03F02003 		and	r3, r3, #32
 993 0030 9BB2     		uxth	r3, r3
 994 0032 002B     		cmp	r3, #0
 995 0034 01D0     		beq	.L49
 332:C:/Users/dtjld/Desktop/AIoT_software/LiteOS_Lab_overseas/LiteOS_Lab/iot_link/os/liteos/base/core\los_task.c ****     {
 333:C:/Users/dtjld/Desktop/AIoT_software/LiteOS_Lab_overseas/LiteOS_Lab/iot_link/os/liteos/base/core\los_task.c ****         return (UINT8 *)"Delay";
 996              		.loc 2 333 0
 997 0036 1A4B     		ldr	r3, .L55+8
 998 0038 28E0     		b	.L47
 999              	.L49:
 334:C:/Users/dtjld/Desktop/AIoT_software/LiteOS_Lab_overseas/LiteOS_Lab/iot_link/os/liteos/base/core\los_task.c ****     }
 335:C:/Users/dtjld/Desktop/AIoT_software/LiteOS_Lab_overseas/LiteOS_Lab/iot_link/os/liteos/base/core\los_task.c ****     else if (OS_TASK_STATUS_PEND & usTaskStatus)
 1000              		.loc 2 335 0
 1001 003a FB88     		ldrh	r3, [r7, #6]	@ movhi
 1002 003c 03F00803 		and	r3, r3, #8
 1003 0040 9BB2     		uxth	r3, r3
 1004 0042 002B     		cmp	r3, #0
 1005 0044 09D0     		beq	.L50
 336:C:/Users/dtjld/Desktop/AIoT_software/LiteOS_Lab_overseas/LiteOS_Lab/iot_link/os/liteos/base/core\los_task.c ****     {
 337:C:/Users/dtjld/Desktop/AIoT_software/LiteOS_Lab_overseas/LiteOS_Lab/iot_link/os/liteos/base/core\los_task.c ****         if (OS_TASK_STATUS_TIMEOUT & usTaskStatus)
 1006              		.loc 2 337 0
 1007 0046 FB88     		ldrh	r3, [r7, #6]	@ movhi
 1008 0048 03F04003 		and	r3, r3, #64
 1009 004c 9BB2     		uxth	r3, r3
 1010 004e 002B     		cmp	r3, #0
 1011 0050 01D0     		beq	.L51
 338:C:/Users/dtjld/Desktop/AIoT_software/LiteOS_Lab_overseas/LiteOS_Lab/iot_link/os/liteos/base/core\los_task.c ****         {
 339:C:/Users/dtjld/Desktop/AIoT_software/LiteOS_Lab_overseas/LiteOS_Lab/iot_link/os/liteos/base/core\los_task.c ****             return (UINT8 *)"PendTimeOut";
 1012              		.loc 2 339 0
 1013 0052 144B     		ldr	r3, .L55+12
 1014 0054 1AE0     		b	.L47
 1015              	.L51:
 340:C:/Users/dtjld/Desktop/AIoT_software/LiteOS_Lab_overseas/LiteOS_Lab/iot_link/os/liteos/base/core\los_task.c ****         }
 341:C:/Users/dtjld/Desktop/AIoT_software/LiteOS_Lab_overseas/LiteOS_Lab/iot_link/os/liteos/base/core\los_task.c **** 
 342:C:/Users/dtjld/Desktop/AIoT_software/LiteOS_Lab_overseas/LiteOS_Lab/iot_link/os/liteos/base/core\los_task.c ****         return (UINT8 *)"Pend";
 1016              		.loc 2 342 0
 1017 0056 144B     		ldr	r3, .L55+16
 1018 0058 18E0     		b	.L47
 1019              	.L50:
 343:C:/Users/dtjld/Desktop/AIoT_software/LiteOS_Lab_overseas/LiteOS_Lab/iot_link/os/liteos/base/core\los_task.c ****     }
 344:C:/Users/dtjld/Desktop/AIoT_software/LiteOS_Lab_overseas/LiteOS_Lab/iot_link/os/liteos/base/core\los_task.c ****     else if (OS_TASK_STATUS_SUSPEND & usTaskStatus)
 1020              		.loc 2 344 0
 1021 005a FB88     		ldrh	r3, [r7, #6]	@ movhi
 1022 005c 03F00203 		and	r3, r3, #2
 1023 0060 9BB2     		uxth	r3, r3
 1024 0062 002B     		cmp	r3, #0
 1025 0064 01D0     		beq	.L52
 345:C:/Users/dtjld/Desktop/AIoT_software/LiteOS_Lab_overseas/LiteOS_Lab/iot_link/os/liteos/base/core\los_task.c ****     {
 346:C:/Users/dtjld/Desktop/AIoT_software/LiteOS_Lab_overseas/LiteOS_Lab/iot_link/os/liteos/base/core\los_task.c ****         return (UINT8 *)"Suspend";
 1026              		.loc 2 346 0
 1027 0066 114B     		ldr	r3, .L55+20
 1028 0068 10E0     		b	.L47
 1029              	.L52:
 347:C:/Users/dtjld/Desktop/AIoT_software/LiteOS_Lab_overseas/LiteOS_Lab/iot_link/os/liteos/base/core\los_task.c ****     }
 348:C:/Users/dtjld/Desktop/AIoT_software/LiteOS_Lab_overseas/LiteOS_Lab/iot_link/os/liteos/base/core\los_task.c ****     else if (OS_TASK_STATUS_PEND_QUEUE& usTaskStatus)
 1030              		.loc 2 348 0
 1031 006a FB88     		ldrh	r3, [r7, #6]	@ movhi
ARM GAS  C:\Users\dtjld\AppData\Local\Temp\ccU8krAq.s 			page 29


 1032 006c 03F40053 		and	r3, r3, #8192
 1033 0070 9BB2     		uxth	r3, r3
 1034 0072 002B     		cmp	r3, #0
 1035 0074 09D0     		beq	.L53
 349:C:/Users/dtjld/Desktop/AIoT_software/LiteOS_Lab_overseas/LiteOS_Lab/iot_link/os/liteos/base/core\los_task.c ****     {
 350:C:/Users/dtjld/Desktop/AIoT_software/LiteOS_Lab_overseas/LiteOS_Lab/iot_link/os/liteos/base/core\los_task.c ****         if (OS_TASK_STATUS_TIMEOUT & usTaskStatus)
 1036              		.loc 2 350 0
 1037 0076 FB88     		ldrh	r3, [r7, #6]	@ movhi
 1038 0078 03F04003 		and	r3, r3, #64
 1039 007c 9BB2     		uxth	r3, r3
 1040 007e 002B     		cmp	r3, #0
 1041 0080 01D0     		beq	.L54
 351:C:/Users/dtjld/Desktop/AIoT_software/LiteOS_Lab_overseas/LiteOS_Lab/iot_link/os/liteos/base/core\los_task.c ****         {
 352:C:/Users/dtjld/Desktop/AIoT_software/LiteOS_Lab_overseas/LiteOS_Lab/iot_link/os/liteos/base/core\los_task.c ****             return (UINT8 *)"QueuePendTimeOut";
 1042              		.loc 2 352 0
 1043 0082 0B4B     		ldr	r3, .L55+24
 1044 0084 02E0     		b	.L47
 1045              	.L54:
 353:C:/Users/dtjld/Desktop/AIoT_software/LiteOS_Lab_overseas/LiteOS_Lab/iot_link/os/liteos/base/core\los_task.c ****         }
 354:C:/Users/dtjld/Desktop/AIoT_software/LiteOS_Lab_overseas/LiteOS_Lab/iot_link/os/liteos/base/core\los_task.c **** 
 355:C:/Users/dtjld/Desktop/AIoT_software/LiteOS_Lab_overseas/LiteOS_Lab/iot_link/os/liteos/base/core\los_task.c ****         return (UINT8 *)"QueuePend";
 1046              		.loc 2 355 0
 1047 0086 0B4B     		ldr	r3, .L55+28
 1048 0088 00E0     		b	.L47
 1049              	.L53:
 356:C:/Users/dtjld/Desktop/AIoT_software/LiteOS_Lab_overseas/LiteOS_Lab/iot_link/os/liteos/base/core\los_task.c ****     }
 357:C:/Users/dtjld/Desktop/AIoT_software/LiteOS_Lab_overseas/LiteOS_Lab/iot_link/os/liteos/base/core\los_task.c **** 
 358:C:/Users/dtjld/Desktop/AIoT_software/LiteOS_Lab_overseas/LiteOS_Lab/iot_link/os/liteos/base/core\los_task.c ****     return (UINT8 *)"Impossible";
 1050              		.loc 2 358 0
 1051 008a 0B4B     		ldr	r3, .L55+32
 1052              	.L47:
 359:C:/Users/dtjld/Desktop/AIoT_software/LiteOS_Lab_overseas/LiteOS_Lab/iot_link/os/liteos/base/core\los_task.c **** }
 1053              		.loc 2 359 0
 1054 008c 1846     		mov	r0, r3
 1055 008e 0C37     		adds	r7, r7, #12
 1056              	.LCFI54:
 1057              		.cfi_def_cfa_offset 4
 1058 0090 BD46     		mov	sp, r7
 1059              	.LCFI55:
 1060              		.cfi_def_cfa_register 13
 1061              		@ sp needed
 1062 0092 5DF8047B 		ldr	r7, [sp], #4
 1063              	.LCFI56:
 1064              		.cfi_restore 7
 1065              		.cfi_def_cfa_offset 0
 1066 0096 7047     		bx	lr
 1067              	.L56:
 1068              		.align	2
 1069              	.L55:
 1070 0098 00000000 		.word	.LC0
 1071 009c 08000000 		.word	.LC1
 1072 00a0 10000000 		.word	.LC2
 1073 00a4 18000000 		.word	.LC3
 1074 00a8 24000000 		.word	.LC4
 1075 00ac 2C000000 		.word	.LC5
 1076 00b0 34000000 		.word	.LC6
 1077 00b4 48000000 		.word	.LC7
ARM GAS  C:\Users\dtjld\AppData\Local\Temp\ccU8krAq.s 			page 30


 1078 00b8 54000000 		.word	.LC8
 1079              		.cfi_endproc
 1080              	.LFE135:
 1082              		.section	.rodata
 1083 005f 00       		.align	2
 1084              	.LC9:
 1085 0060 5B455252 		.ascii	"[ERR] \000"
 1085      5D2000
 1086 0067 00       		.align	2
 1087              	.LC10:
 1088 0068 43555252 		.ascii	"CURRENT task %s stack overflow!\012\000"
 1088      454E5420 
 1088      7461736B 
 1088      20257320 
 1088      73746163 
 1089              		.section	.text.osGetTaskWaterLine,"ax",%progbits
 1090              		.align	1
 1091              		.global	osGetTaskWaterLine
 1092              		.syntax unified
 1093              		.thumb
 1094              		.thumb_func
 1095              		.fpu fpv4-sp-d16
 1097              	osGetTaskWaterLine:
 1098              	.LFB136:
 360:C:/Users/dtjld/Desktop/AIoT_software/LiteOS_Lab_overseas/LiteOS_Lab/iot_link/os/liteos/base/core\los_task.c **** 
 361:C:/Users/dtjld/Desktop/AIoT_software/LiteOS_Lab_overseas/LiteOS_Lab/iot_link/os/liteos/base/core\los_task.c **** LITE_OS_SEC_TEXT_MINOR UINT32 osGetTaskWaterLine(UINT32 uwTaskID)
 362:C:/Users/dtjld/Desktop/AIoT_software/LiteOS_Lab_overseas/LiteOS_Lab/iot_link/os/liteos/base/core\los_task.c **** {
 1099              		.loc 2 362 0
 1100              		.cfi_startproc
 1101              		@ args = 0, pretend = 0, frame = 24
 1102              		@ frame_needed = 1, uses_anonymous_args = 0
 1103 0000 80B5     		push	{r7, lr}
 1104              	.LCFI57:
 1105              		.cfi_def_cfa_offset 8
 1106              		.cfi_offset 7, -8
 1107              		.cfi_offset 14, -4
 1108 0002 86B0     		sub	sp, sp, #24
 1109              	.LCFI58:
 1110              		.cfi_def_cfa_offset 32
 1111 0004 00AF     		add	r7, sp, #0
 1112              	.LCFI59:
 1113              		.cfi_def_cfa_register 7
 1114 0006 7860     		str	r0, [r7, #4]
 363:C:/Users/dtjld/Desktop/AIoT_software/LiteOS_Lab_overseas/LiteOS_Lab/iot_link/os/liteos/base/core\los_task.c ****     UINT32 *puwStack;
 364:C:/Users/dtjld/Desktop/AIoT_software/LiteOS_Lab_overseas/LiteOS_Lab/iot_link/os/liteos/base/core\los_task.c ****     UINT32 uwPeakUsed;
 365:C:/Users/dtjld/Desktop/AIoT_software/LiteOS_Lab_overseas/LiteOS_Lab/iot_link/os/liteos/base/core\los_task.c ****     LOS_TASK_CB * pstTaskCB = OS_TCB_FROM_TID(uwTaskID);
 1115              		.loc 2 365 0
 1116 0008 1C4B     		ldr	r3, .L64
 1117 000a 1A68     		ldr	r2, [r3]
 1118 000c 7B68     		ldr	r3, [r7, #4]
 1119 000e 5421     		movs	r1, #84
 1120 0010 01FB03F3 		mul	r3, r1, r3
 1121 0014 1344     		add	r3, r3, r2
 1122 0016 FB60     		str	r3, [r7, #12]
 366:C:/Users/dtjld/Desktop/AIoT_software/LiteOS_Lab_overseas/LiteOS_Lab/iot_link/os/liteos/base/core\los_task.c **** 
 367:C:/Users/dtjld/Desktop/AIoT_software/LiteOS_Lab_overseas/LiteOS_Lab/iot_link/os/liteos/base/core\los_task.c ****     if (OS_TASK_MAGIC_WORD == *(UINT32 *)pstTaskCB->uwTopOfStack)
 1123              		.loc 2 367 0
ARM GAS  C:\Users\dtjld\AppData\Local\Temp\ccU8krAq.s 			page 31


 1124 0018 FB68     		ldr	r3, [r7, #12]
 1125 001a DB68     		ldr	r3, [r3, #12]
 1126 001c 1B68     		ldr	r3, [r3]
 1127 001e B3F1CC3F 		cmp	r3, #-858993460
 1128 0022 1AD1     		bne	.L58
 368:C:/Users/dtjld/Desktop/AIoT_software/LiteOS_Lab_overseas/LiteOS_Lab/iot_link/os/liteos/base/core\los_task.c ****     {
 369:C:/Users/dtjld/Desktop/AIoT_software/LiteOS_Lab_overseas/LiteOS_Lab/iot_link/os/liteos/base/core\los_task.c ****         puwStack = (UINT32 *)(pstTaskCB->uwTopOfStack + 4);
 1129              		.loc 2 369 0
 1130 0024 FB68     		ldr	r3, [r7, #12]
 1131 0026 DB68     		ldr	r3, [r3, #12]
 1132 0028 0433     		adds	r3, r3, #4
 1133 002a 7B61     		str	r3, [r7, #20]
 370:C:/Users/dtjld/Desktop/AIoT_software/LiteOS_Lab_overseas/LiteOS_Lab/iot_link/os/liteos/base/core\los_task.c ****         while ((puwStack < (UINT32 *)pstTaskCB->pStackPointer) && (*puwStack == 0xCACACACA))
 1134              		.loc 2 370 0
 1135 002c 02E0     		b	.L59
 1136              	.L61:
 371:C:/Users/dtjld/Desktop/AIoT_software/LiteOS_Lab_overseas/LiteOS_Lab/iot_link/os/liteos/base/core\los_task.c ****         {
 372:C:/Users/dtjld/Desktop/AIoT_software/LiteOS_Lab_overseas/LiteOS_Lab/iot_link/os/liteos/base/core\los_task.c ****             puwStack += 1;
 1137              		.loc 2 372 0
 1138 002e 7B69     		ldr	r3, [r7, #20]
 1139 0030 0433     		adds	r3, r3, #4
 1140 0032 7B61     		str	r3, [r7, #20]
 1141              	.L59:
 370:C:/Users/dtjld/Desktop/AIoT_software/LiteOS_Lab_overseas/LiteOS_Lab/iot_link/os/liteos/base/core\los_task.c ****         while ((puwStack < (UINT32 *)pstTaskCB->pStackPointer) && (*puwStack == 0xCACACACA))
 1142              		.loc 2 370 0
 1143 0034 FB68     		ldr	r3, [r7, #12]
 1144 0036 1B68     		ldr	r3, [r3]
 1145 0038 7A69     		ldr	r2, [r7, #20]
 1146 003a 9A42     		cmp	r2, r3
 1147 003c 04D2     		bcs	.L60
 370:C:/Users/dtjld/Desktop/AIoT_software/LiteOS_Lab_overseas/LiteOS_Lab/iot_link/os/liteos/base/core\los_task.c ****         while ((puwStack < (UINT32 *)pstTaskCB->pStackPointer) && (*puwStack == 0xCACACACA))
 1148              		.loc 2 370 0 is_stmt 0 discriminator 1
 1149 003e 7B69     		ldr	r3, [r7, #20]
 1150 0040 1B68     		ldr	r3, [r3]
 1151 0042 B3F1CA3F 		cmp	r3, #-892679478
 1152 0046 F2D0     		beq	.L61
 1153              	.L60:
 373:C:/Users/dtjld/Desktop/AIoT_software/LiteOS_Lab_overseas/LiteOS_Lab/iot_link/os/liteos/base/core\los_task.c ****         }
 374:C:/Users/dtjld/Desktop/AIoT_software/LiteOS_Lab_overseas/LiteOS_Lab/iot_link/os/liteos/base/core\los_task.c ****         uwPeakUsed = (pstTaskCB->uwStackSize - ((UINT32)puwStack - pstTaskCB->uwTopOfStack));
 1154              		.loc 2 374 0 is_stmt 1
 1155 0048 FB68     		ldr	r3, [r7, #12]
 1156 004a 9A68     		ldr	r2, [r3, #8]
 1157 004c FB68     		ldr	r3, [r7, #12]
 1158 004e D968     		ldr	r1, [r3, #12]
 1159 0050 7B69     		ldr	r3, [r7, #20]
 1160 0052 CB1A     		subs	r3, r1, r3
 1161 0054 1344     		add	r3, r3, r2
 1162 0056 3B61     		str	r3, [r7, #16]
 1163 0058 0BE0     		b	.L62
 1164              	.L58:
 1165              	.LBB2:
 375:C:/Users/dtjld/Desktop/AIoT_software/LiteOS_Lab_overseas/LiteOS_Lab/iot_link/os/liteos/base/core\los_task.c ****     }
 376:C:/Users/dtjld/Desktop/AIoT_software/LiteOS_Lab_overseas/LiteOS_Lab/iot_link/os/liteos/base/core\los_task.c ****     else
 377:C:/Users/dtjld/Desktop/AIoT_software/LiteOS_Lab_overseas/LiteOS_Lab/iot_link/os/liteos/base/core\los_task.c ****     {
 378:C:/Users/dtjld/Desktop/AIoT_software/LiteOS_Lab_overseas/LiteOS_Lab/iot_link/os/liteos/base/core\los_task.c ****         PRINT_ERR("CURRENT task %s stack overflow!\n", pstTaskCB->pcTaskName);
 1166              		.loc 2 378 0
 1167 005a 0948     		ldr	r0, .L64+4
ARM GAS  C:\Users\dtjld\AppData\Local\Temp\ccU8krAq.s 			page 32


 1168 005c FFF7FEFF 		bl	printf
 1169 0060 FB68     		ldr	r3, [r7, #12]
 1170 0062 5B6A     		ldr	r3, [r3, #36]
 1171 0064 1946     		mov	r1, r3
 1172 0066 0748     		ldr	r0, .L64+8
 1173 0068 FFF7FEFF 		bl	printf
 1174              	.LBE2:
 379:C:/Users/dtjld/Desktop/AIoT_software/LiteOS_Lab_overseas/LiteOS_Lab/iot_link/os/liteos/base/core\los_task.c ****         uwPeakUsed = 0xFFFFFFFF;
 1175              		.loc 2 379 0
 1176 006c 4FF0FF33 		mov	r3, #-1
 1177 0070 3B61     		str	r3, [r7, #16]
 1178              	.L62:
 380:C:/Users/dtjld/Desktop/AIoT_software/LiteOS_Lab_overseas/LiteOS_Lab/iot_link/os/liteos/base/core\los_task.c ****     }
 381:C:/Users/dtjld/Desktop/AIoT_software/LiteOS_Lab_overseas/LiteOS_Lab/iot_link/os/liteos/base/core\los_task.c ****     return uwPeakUsed;
 1179              		.loc 2 381 0
 1180 0072 3B69     		ldr	r3, [r7, #16]
 382:C:/Users/dtjld/Desktop/AIoT_software/LiteOS_Lab_overseas/LiteOS_Lab/iot_link/os/liteos/base/core\los_task.c **** }
 1181              		.loc 2 382 0
 1182 0074 1846     		mov	r0, r3
 1183 0076 1837     		adds	r7, r7, #24
 1184              	.LCFI60:
 1185              		.cfi_def_cfa_offset 8
 1186 0078 BD46     		mov	sp, r7
 1187              	.LCFI61:
 1188              		.cfi_def_cfa_register 13
 1189              		@ sp needed
 1190 007a 80BD     		pop	{r7, pc}
 1191              	.L65:
 1192              		.align	2
 1193              	.L64:
 1194 007c 00000000 		.word	g_pstTaskCBArray
 1195 0080 60000000 		.word	.LC9
 1196 0084 68000000 		.word	.LC10
 1197              		.cfi_endproc
 1198              	.LFE136:
 1200              		.section	.rodata
 1201 0089 000000   		.align	2
 1202              	.LC11:
 1203 008c 0D0A4E61 		.ascii	"\015\012Name            TID    Priority   Status   "
 1203      6D652020 
 1203      20202020 
 1203      20202020 
 1203      20205449 
 1204 00b9 20202020 		.ascii	"    StackSize    WaterLine    StackPoint  TopOfStac"
 1204      53746163 
 1204      6B53697A 
 1204      65202020 
 1204      20576174 
 1205 00ec 6B202020 		.ascii	"k   EventMask  SemID\000"
 1205      4576656E 
 1205      744D6173 
 1205      6B202053 
 1205      656D4944 
 1206 0101 000000   		.align	2
 1207              	.LC12:
 1208 0104 0A0D00   		.ascii	"\012\015\000"
 1209 0107 00       		.align	2
ARM GAS  C:\Users\dtjld\AppData\Local\Temp\ccU8krAq.s 			page 33


 1210              	.LC13:
 1211 0108 2D2D2D2D 		.ascii	"----            ---    --------   --------     ----"
 1211      20202020 
 1211      20202020 
 1211      20202020 
 1211      2D2D2D20 
 1212 013b 2D2D2D2D 		.ascii	"-----    ----------   ----------  ----------   ----"
 1212      2D202020 
 1212      202D2D2D 
 1212      2D2D2D2D 
 1212      2D2D2D20 
 1213 016e 2D2D2D2D 		.ascii	"-----  -----\000"
 1213      2D20202D 
 1213      2D2D2D2D 
 1213      00
 1214 017b 00       		.align	2
 1215              	.LC14:
 1216 017c 252D3136 		.ascii	"%-16s0x%-5x%-11d%-13s0x%-11x0x%-11x0x%-10x0x%-11x0x"
 1216      73307825 
 1216      2D357825 
 1216      2D313164 
 1216      252D3133 
 1217 01af 252D3978 		.ascii	"%-9x\000"
 1217      00
 1218              		.align	2
 1219              	.LC15:
 1220 01b4 3078252D 		.ascii	"0x%-7x\000"
 1220      377800
 1221 01bb 00       		.align	2
 1222              	.LC16:
 1223 01bc 0D00     		.ascii	"\015\000"
 1224              		.section	.text.osGetAllTskInfo,"ax",%progbits
 1225              		.align	1
 1226              		.global	osGetAllTskInfo
 1227              		.syntax unified
 1228              		.thumb
 1229              		.thumb_func
 1230              		.fpu fpv4-sp-d16
 1232              	osGetAllTskInfo:
 1233              	.LFB137:
 383:C:/Users/dtjld/Desktop/AIoT_software/LiteOS_Lab_overseas/LiteOS_Lab/iot_link/os/liteos/base/core\los_task.c **** 
 384:C:/Users/dtjld/Desktop/AIoT_software/LiteOS_Lab_overseas/LiteOS_Lab/iot_link/os/liteos/base/core\los_task.c **** /*****************************************************************************
 385:C:/Users/dtjld/Desktop/AIoT_software/LiteOS_Lab_overseas/LiteOS_Lab/iot_link/os/liteos/base/core\los_task.c ****  Function : osGetAllTskInfo
 386:C:/Users/dtjld/Desktop/AIoT_software/LiteOS_Lab_overseas/LiteOS_Lab/iot_link/os/liteos/base/core\los_task.c ****  Description : Get all task info.
 387:C:/Users/dtjld/Desktop/AIoT_software/LiteOS_Lab_overseas/LiteOS_Lab/iot_link/os/liteos/base/core\los_task.c ****  Input       : None
 388:C:/Users/dtjld/Desktop/AIoT_software/LiteOS_Lab_overseas/LiteOS_Lab/iot_link/os/liteos/base/core\los_task.c ****  Output      : None
 389:C:/Users/dtjld/Desktop/AIoT_software/LiteOS_Lab_overseas/LiteOS_Lab/iot_link/os/liteos/base/core\los_task.c ****  Return      : None
 390:C:/Users/dtjld/Desktop/AIoT_software/LiteOS_Lab_overseas/LiteOS_Lab/iot_link/os/liteos/base/core\los_task.c ****  *****************************************************************************/
 391:C:/Users/dtjld/Desktop/AIoT_software/LiteOS_Lab_overseas/LiteOS_Lab/iot_link/os/liteos/base/core\los_task.c **** LITE_OS_SEC_TEXT_MINOR UINT32 osGetAllTskInfo(VOID)
 392:C:/Users/dtjld/Desktop/AIoT_software/LiteOS_Lab_overseas/LiteOS_Lab/iot_link/os/liteos/base/core\los_task.c **** {
 1234              		.loc 2 392 0
 1235              		.cfi_startproc
 1236              		@ args = 0, pretend = 0, frame = 16
 1237              		@ frame_needed = 1, uses_anonymous_args = 0
 1238 0000 2DE9F041 		push	{r4, r5, r6, r7, r8, lr}
 1239              	.LCFI62:
 1240              		.cfi_def_cfa_offset 24
ARM GAS  C:\Users\dtjld\AppData\Local\Temp\ccU8krAq.s 			page 34


 1241              		.cfi_offset 4, -24
 1242              		.cfi_offset 5, -20
 1243              		.cfi_offset 6, -16
 1244              		.cfi_offset 7, -12
 1245              		.cfi_offset 8, -8
 1246              		.cfi_offset 14, -4
 1247 0004 8AB0     		sub	sp, sp, #40
 1248              	.LCFI63:
 1249              		.cfi_def_cfa_offset 64
 1250 0006 06AF     		add	r7, sp, #24
 1251              	.LCFI64:
 1252              		.cfi_def_cfa 7, 40
 393:C:/Users/dtjld/Desktop/AIoT_software/LiteOS_Lab_overseas/LiteOS_Lab/iot_link/os/liteos/base/core\los_task.c ****     LOS_TASK_CB *pstTaskCB;
 394:C:/Users/dtjld/Desktop/AIoT_software/LiteOS_Lab_overseas/LiteOS_Lab/iot_link/os/liteos/base/core\los_task.c ****     UINT32       uwLoop;
 395:C:/Users/dtjld/Desktop/AIoT_software/LiteOS_Lab_overseas/LiteOS_Lab/iot_link/os/liteos/base/core\los_task.c **** #if (LOSCFG_BASE_CORE_CPUP == YES)
 396:C:/Users/dtjld/Desktop/AIoT_software/LiteOS_Lab_overseas/LiteOS_Lab/iot_link/os/liteos/base/core\los_task.c ****     CPUP_INFO_S *pstCpu = (CPUP_INFO_S *)NULL;
 397:C:/Users/dtjld/Desktop/AIoT_software/LiteOS_Lab_overseas/LiteOS_Lab/iot_link/os/liteos/base/core\los_task.c ****     CPUP_INFO_S *pstCpu10s = (CPUP_INFO_S *)NULL;
 398:C:/Users/dtjld/Desktop/AIoT_software/LiteOS_Lab_overseas/LiteOS_Lab/iot_link/os/liteos/base/core\los_task.c ****     CPUP_INFO_S *pstCpu1s = (CPUP_INFO_S *)NULL;
 399:C:/Users/dtjld/Desktop/AIoT_software/LiteOS_Lab_overseas/LiteOS_Lab/iot_link/os/liteos/base/core\los_task.c **** #endif
 400:C:/Users/dtjld/Desktop/AIoT_software/LiteOS_Lab_overseas/LiteOS_Lab/iot_link/os/liteos/base/core\los_task.c **** 
 401:C:/Users/dtjld/Desktop/AIoT_software/LiteOS_Lab_overseas/LiteOS_Lab/iot_link/os/liteos/base/core\los_task.c **** #if (LOSCFG_BASE_CORE_CPUP == YES)
 402:C:/Users/dtjld/Desktop/AIoT_software/LiteOS_Lab_overseas/LiteOS_Lab/iot_link/os/liteos/base/core\los_task.c ****     pstCpu = (CPUP_INFO_S *)LOS_MemAlloc((VOID *)OS_SYS_MEM_ADDR, sizeof(CPUP_INFO_S) * g_uwTskMaxN
 403:C:/Users/dtjld/Desktop/AIoT_software/LiteOS_Lab_overseas/LiteOS_Lab/iot_link/os/liteos/base/core\los_task.c ****     if (pstCpu == NULL)
 404:C:/Users/dtjld/Desktop/AIoT_software/LiteOS_Lab_overseas/LiteOS_Lab/iot_link/os/liteos/base/core\los_task.c ****     {
 405:C:/Users/dtjld/Desktop/AIoT_software/LiteOS_Lab_overseas/LiteOS_Lab/iot_link/os/liteos/base/core\los_task.c ****         PRINT_ERR("%s[%d] malloc failure!\n", __FUNCTION__, __LINE__);/*lint !e515*/
 406:C:/Users/dtjld/Desktop/AIoT_software/LiteOS_Lab_overseas/LiteOS_Lab/iot_link/os/liteos/base/core\los_task.c ****         return OS_ERROR;
 407:C:/Users/dtjld/Desktop/AIoT_software/LiteOS_Lab_overseas/LiteOS_Lab/iot_link/os/liteos/base/core\los_task.c ****     }
 408:C:/Users/dtjld/Desktop/AIoT_software/LiteOS_Lab_overseas/LiteOS_Lab/iot_link/os/liteos/base/core\los_task.c ****     (VOID)memset((VOID *)pstCpu, (int)0, sizeof(CPUP_INFO_S) * g_uwTskMaxNum);
 409:C:/Users/dtjld/Desktop/AIoT_software/LiteOS_Lab_overseas/LiteOS_Lab/iot_link/os/liteos/base/core\los_task.c **** 
 410:C:/Users/dtjld/Desktop/AIoT_software/LiteOS_Lab_overseas/LiteOS_Lab/iot_link/os/liteos/base/core\los_task.c ****     pstCpu10s = (CPUP_INFO_S *)LOS_MemAlloc((VOID *)OS_SYS_MEM_ADDR, sizeof(CPUP_INFO_S) * g_uwTskM
 411:C:/Users/dtjld/Desktop/AIoT_software/LiteOS_Lab_overseas/LiteOS_Lab/iot_link/os/liteos/base/core\los_task.c ****     if (pstCpu10s == NULL)
 412:C:/Users/dtjld/Desktop/AIoT_software/LiteOS_Lab_overseas/LiteOS_Lab/iot_link/os/liteos/base/core\los_task.c ****     {
 413:C:/Users/dtjld/Desktop/AIoT_software/LiteOS_Lab_overseas/LiteOS_Lab/iot_link/os/liteos/base/core\los_task.c ****         PRINT_ERR("%s[%d] malloc failure!\n", __FUNCTION__, __LINE__);/*lint !e515*/
 414:C:/Users/dtjld/Desktop/AIoT_software/LiteOS_Lab_overseas/LiteOS_Lab/iot_link/os/liteos/base/core\los_task.c ****         (VOID)LOS_MemFree((VOID *)OS_SYS_MEM_ADDR, pstCpu);
 415:C:/Users/dtjld/Desktop/AIoT_software/LiteOS_Lab_overseas/LiteOS_Lab/iot_link/os/liteos/base/core\los_task.c ****         return OS_ERROR;
 416:C:/Users/dtjld/Desktop/AIoT_software/LiteOS_Lab_overseas/LiteOS_Lab/iot_link/os/liteos/base/core\los_task.c ****     }
 417:C:/Users/dtjld/Desktop/AIoT_software/LiteOS_Lab_overseas/LiteOS_Lab/iot_link/os/liteos/base/core\los_task.c ****     (VOID)memset((VOID *)pstCpu10s, (int)0, sizeof(CPUP_INFO_S) * g_uwTskMaxNum);
 418:C:/Users/dtjld/Desktop/AIoT_software/LiteOS_Lab_overseas/LiteOS_Lab/iot_link/os/liteos/base/core\los_task.c **** 
 419:C:/Users/dtjld/Desktop/AIoT_software/LiteOS_Lab_overseas/LiteOS_Lab/iot_link/os/liteos/base/core\los_task.c ****     pstCpu1s = (CPUP_INFO_S *)LOS_MemAlloc((VOID *)OS_SYS_MEM_ADDR, sizeof(CPUP_INFO_S) * g_uwTskMa
 420:C:/Users/dtjld/Desktop/AIoT_software/LiteOS_Lab_overseas/LiteOS_Lab/iot_link/os/liteos/base/core\los_task.c ****     if (pstCpu1s == NULL)
 421:C:/Users/dtjld/Desktop/AIoT_software/LiteOS_Lab_overseas/LiteOS_Lab/iot_link/os/liteos/base/core\los_task.c ****     {
 422:C:/Users/dtjld/Desktop/AIoT_software/LiteOS_Lab_overseas/LiteOS_Lab/iot_link/os/liteos/base/core\los_task.c ****         PRINT_ERR("%s[%d] malloc failure!\n", __FUNCTION__, __LINE__);/*lint !e515*/
 423:C:/Users/dtjld/Desktop/AIoT_software/LiteOS_Lab_overseas/LiteOS_Lab/iot_link/os/liteos/base/core\los_task.c ****         (VOID)LOS_MemFree((VOID *)OS_SYS_MEM_ADDR, pstCpu);
 424:C:/Users/dtjld/Desktop/AIoT_software/LiteOS_Lab_overseas/LiteOS_Lab/iot_link/os/liteos/base/core\los_task.c ****         (VOID)LOS_MemFree((VOID *)OS_SYS_MEM_ADDR, pstCpu10s);
 425:C:/Users/dtjld/Desktop/AIoT_software/LiteOS_Lab_overseas/LiteOS_Lab/iot_link/os/liteos/base/core\los_task.c ****         return OS_ERROR;
 426:C:/Users/dtjld/Desktop/AIoT_software/LiteOS_Lab_overseas/LiteOS_Lab/iot_link/os/liteos/base/core\los_task.c ****     }
 427:C:/Users/dtjld/Desktop/AIoT_software/LiteOS_Lab_overseas/LiteOS_Lab/iot_link/os/liteos/base/core\los_task.c ****     (VOID)memset((VOID *)pstCpu1s, (int)0, sizeof(CPUP_INFO_S) * g_uwTskMaxNum);
 428:C:/Users/dtjld/Desktop/AIoT_software/LiteOS_Lab_overseas/LiteOS_Lab/iot_link/os/liteos/base/core\los_task.c **** 
 429:C:/Users/dtjld/Desktop/AIoT_software/LiteOS_Lab_overseas/LiteOS_Lab/iot_link/os/liteos/base/core\los_task.c ****     LOS_TaskLock();
 430:C:/Users/dtjld/Desktop/AIoT_software/LiteOS_Lab_overseas/LiteOS_Lab/iot_link/os/liteos/base/core\los_task.c ****     (VOID)LOS_AllTaskCpuUsage(g_uwTskMaxNum, pstCpu, 0xffff);
 431:C:/Users/dtjld/Desktop/AIoT_software/LiteOS_Lab_overseas/LiteOS_Lab/iot_link/os/liteos/base/core\los_task.c ****     (VOID)LOS_AllTaskCpuUsage(g_uwTskMaxNum, pstCpu10s, 0);
 432:C:/Users/dtjld/Desktop/AIoT_software/LiteOS_Lab_overseas/LiteOS_Lab/iot_link/os/liteos/base/core\los_task.c ****     (VOID)LOS_AllTaskCpuUsage(g_uwTskMaxNum, pstCpu1s, 1);
 433:C:/Users/dtjld/Desktop/AIoT_software/LiteOS_Lab_overseas/LiteOS_Lab/iot_link/os/liteos/base/core\los_task.c ****     LOS_TaskUnlock();
 434:C:/Users/dtjld/Desktop/AIoT_software/LiteOS_Lab_overseas/LiteOS_Lab/iot_link/os/liteos/base/core\los_task.c **** #endif
 435:C:/Users/dtjld/Desktop/AIoT_software/LiteOS_Lab_overseas/LiteOS_Lab/iot_link/os/liteos/base/core\los_task.c **** 
 436:C:/Users/dtjld/Desktop/AIoT_software/LiteOS_Lab_overseas/LiteOS_Lab/iot_link/os/liteos/base/core\los_task.c ****     PRINTK("\r\nName            TID    Priority   Status       StackSize    WaterLine    StackPoint
 1253              		.loc 2 436 0
ARM GAS  C:\Users\dtjld\AppData\Local\Temp\ccU8krAq.s 			page 35


 1254 0008 3448     		ldr	r0, .L75
 1255 000a FFF7FEFF 		bl	printf
 437:C:/Users/dtjld/Desktop/AIoT_software/LiteOS_Lab_overseas/LiteOS_Lab/iot_link/os/liteos/base/core\los_task.c **** #if (LOSCFG_BASE_CORE_CPUP == YES)
 438:C:/Users/dtjld/Desktop/AIoT_software/LiteOS_Lab_overseas/LiteOS_Lab/iot_link/os/liteos/base/core\los_task.c ****     PRINT_ERR(" CPUUSE   CPUUSE10s  CPUUSE1s  ");/*lint !e515*/
 439:C:/Users/dtjld/Desktop/AIoT_software/LiteOS_Lab_overseas/LiteOS_Lab/iot_link/os/liteos/base/core\los_task.c **** #endif /* LOSCFG_BASE_CORE_CPUP */
 440:C:/Users/dtjld/Desktop/AIoT_software/LiteOS_Lab_overseas/LiteOS_Lab/iot_link/os/liteos/base/core\los_task.c ****     PRINTK("\n\r");/*lint !e515*/
 1256              		.loc 2 440 0
 1257 000e 3448     		ldr	r0, .L75+4
 1258 0010 FFF7FEFF 		bl	printf
 441:C:/Users/dtjld/Desktop/AIoT_software/LiteOS_Lab_overseas/LiteOS_Lab/iot_link/os/liteos/base/core\los_task.c ****     PRINTK("----            ---    --------   --------     ---------    ----------   ----------  --
 1259              		.loc 2 441 0
 1260 0014 3348     		ldr	r0, .L75+8
 1261 0016 FFF7FEFF 		bl	printf
 442:C:/Users/dtjld/Desktop/AIoT_software/LiteOS_Lab_overseas/LiteOS_Lab/iot_link/os/liteos/base/core\los_task.c **** #if (LOSCFG_BASE_CORE_CPUP == YES)
 443:C:/Users/dtjld/Desktop/AIoT_software/LiteOS_Lab_overseas/LiteOS_Lab/iot_link/os/liteos/base/core\los_task.c ****     PRINT_ERR("  ------- ---------  ---------");/*lint !e515*/
 444:C:/Users/dtjld/Desktop/AIoT_software/LiteOS_Lab_overseas/LiteOS_Lab/iot_link/os/liteos/base/core\los_task.c **** #endif /* LOSCFG_BASE_CORE_CPUP */
 445:C:/Users/dtjld/Desktop/AIoT_software/LiteOS_Lab_overseas/LiteOS_Lab/iot_link/os/liteos/base/core\los_task.c ****     PRINTK("\n\r");/*lint !e515*/
 1262              		.loc 2 445 0
 1263 001a 3148     		ldr	r0, .L75+4
 1264 001c FFF7FEFF 		bl	printf
 446:C:/Users/dtjld/Desktop/AIoT_software/LiteOS_Lab_overseas/LiteOS_Lab/iot_link/os/liteos/base/core\los_task.c **** 
 447:C:/Users/dtjld/Desktop/AIoT_software/LiteOS_Lab_overseas/LiteOS_Lab/iot_link/os/liteos/base/core\los_task.c ****     for (uwLoop = 0; uwLoop < g_uwTskMaxNum; uwLoop++)
 1265              		.loc 2 447 0
 1266 0020 0023     		movs	r3, #0
 1267 0022 FB60     		str	r3, [r7, #12]
 1268 0024 4FE0     		b	.L67
 1269              	.L72:
 448:C:/Users/dtjld/Desktop/AIoT_software/LiteOS_Lab_overseas/LiteOS_Lab/iot_link/os/liteos/base/core\los_task.c ****     {
 449:C:/Users/dtjld/Desktop/AIoT_software/LiteOS_Lab_overseas/LiteOS_Lab/iot_link/os/liteos/base/core\los_task.c ****         //uvIntSave = LOS_IntLock();
 450:C:/Users/dtjld/Desktop/AIoT_software/LiteOS_Lab_overseas/LiteOS_Lab/iot_link/os/liteos/base/core\los_task.c ****         pstTaskCB = OS_TCB_FROM_TID(uwLoop);
 1270              		.loc 2 450 0
 1271 0026 304B     		ldr	r3, .L75+12
 1272 0028 1A68     		ldr	r2, [r3]
 1273 002a FB68     		ldr	r3, [r7, #12]
 1274 002c 5421     		movs	r1, #84
 1275 002e 01FB03F3 		mul	r3, r1, r3
 1276 0032 1344     		add	r3, r3, r2
 1277 0034 BB60     		str	r3, [r7, #8]
 451:C:/Users/dtjld/Desktop/AIoT_software/LiteOS_Lab_overseas/LiteOS_Lab/iot_link/os/liteos/base/core\los_task.c ****         if (pstTaskCB->usTaskStatus & OS_TASK_STATUS_UNUSED)
 1278              		.loc 2 451 0
 1279 0036 BB68     		ldr	r3, [r7, #8]
 1280 0038 9B88     		ldrh	r3, [r3, #4]
 1281 003a 03F00103 		and	r3, r3, #1
 1282 003e 002B     		cmp	r3, #0
 1283 0040 3DD1     		bne	.L74
 452:C:/Users/dtjld/Desktop/AIoT_software/LiteOS_Lab_overseas/LiteOS_Lab/iot_link/os/liteos/base/core\los_task.c ****         {
 453:C:/Users/dtjld/Desktop/AIoT_software/LiteOS_Lab_overseas/LiteOS_Lab/iot_link/os/liteos/base/core\los_task.c ****             //LOS_IntRestore(uvIntSave);
 454:C:/Users/dtjld/Desktop/AIoT_software/LiteOS_Lab_overseas/LiteOS_Lab/iot_link/os/liteos/base/core\los_task.c ****             continue;
 455:C:/Users/dtjld/Desktop/AIoT_software/LiteOS_Lab_overseas/LiteOS_Lab/iot_link/os/liteos/base/core\los_task.c ****         }
 456:C:/Users/dtjld/Desktop/AIoT_software/LiteOS_Lab_overseas/LiteOS_Lab/iot_link/os/liteos/base/core\los_task.c **** 
 457:C:/Users/dtjld/Desktop/AIoT_software/LiteOS_Lab_overseas/LiteOS_Lab/iot_link/os/liteos/base/core\los_task.c ****         PRINTK("%-16s0x%-5x%-11d%-13s0x%-11x0x%-11x0x%-10x0x%-11x0x%-9x",
 1284              		.loc 2 457 0
 1285 0042 BB68     		ldr	r3, [r7, #8]
 1286 0044 5D6A     		ldr	r5, [r3, #36]
 1287 0046 BB68     		ldr	r3, [r7, #8]
 1288 0048 1E69     		ldr	r6, [r3, #16]
 1289 004a BB68     		ldr	r3, [r7, #8]
ARM GAS  C:\Users\dtjld\AppData\Local\Temp\ccU8krAq.s 			page 36


 1290 004c DB88     		ldrh	r3, [r3, #6]
 1291 004e 9846     		mov	r8, r3
 1292 0050 BB68     		ldr	r3, [r7, #8]
 1293 0052 9B88     		ldrh	r3, [r3, #4]
 1294 0054 1846     		mov	r0, r3
 1295 0056 FFF7FEFF 		bl	osConvertTskStatus
 1296 005a 7860     		str	r0, [r7, #4]
 1297 005c BB68     		ldr	r3, [r7, #8]
 1298 005e 9C68     		ldr	r4, [r3, #8]
 1299 0060 BB68     		ldr	r3, [r7, #8]
 1300 0062 1B69     		ldr	r3, [r3, #16]
 1301 0064 1846     		mov	r0, r3
 1302 0066 FFF7FEFF 		bl	osGetTaskWaterLine
 1303 006a 0146     		mov	r1, r0
 1304 006c BB68     		ldr	r3, [r7, #8]
 1305 006e 1B68     		ldr	r3, [r3]
 1306 0070 1846     		mov	r0, r3
 1307 0072 BB68     		ldr	r3, [r7, #8]
 1308 0074 DB68     		ldr	r3, [r3, #12]
 1309 0076 BA68     		ldr	r2, [r7, #8]
 1310 0078 926C     		ldr	r2, [r2, #72]
 1311 007a 0592     		str	r2, [sp, #20]
 1312 007c 0493     		str	r3, [sp, #16]
 1313 007e 0390     		str	r0, [sp, #12]
 1314 0080 0291     		str	r1, [sp, #8]
 1315 0082 0194     		str	r4, [sp, #4]
 1316 0084 7B68     		ldr	r3, [r7, #4]
 1317 0086 0093     		str	r3, [sp]
 1318 0088 4346     		mov	r3, r8
 1319 008a 3246     		mov	r2, r6
 1320 008c 2946     		mov	r1, r5
 1321 008e 1748     		ldr	r0, .L75+16
 1322 0090 FFF7FEFF 		bl	printf
 458:C:/Users/dtjld/Desktop/AIoT_software/LiteOS_Lab_overseas/LiteOS_Lab/iot_link/os/liteos/base/core\los_task.c ****                           pstTaskCB->pcTaskName,
 459:C:/Users/dtjld/Desktop/AIoT_software/LiteOS_Lab_overseas/LiteOS_Lab/iot_link/os/liteos/base/core\los_task.c ****                           pstTaskCB->uwTaskID,
 460:C:/Users/dtjld/Desktop/AIoT_software/LiteOS_Lab_overseas/LiteOS_Lab/iot_link/os/liteos/base/core\los_task.c ****                           pstTaskCB->usPriority,
 461:C:/Users/dtjld/Desktop/AIoT_software/LiteOS_Lab_overseas/LiteOS_Lab/iot_link/os/liteos/base/core\los_task.c ****                           osConvertTskStatus(pstTaskCB->usTaskStatus),
 462:C:/Users/dtjld/Desktop/AIoT_software/LiteOS_Lab_overseas/LiteOS_Lab/iot_link/os/liteos/base/core\los_task.c ****                           pstTaskCB->uwStackSize,
 463:C:/Users/dtjld/Desktop/AIoT_software/LiteOS_Lab_overseas/LiteOS_Lab/iot_link/os/liteos/base/core\los_task.c ****                           osGetTaskWaterLine(pstTaskCB->uwTaskID),
 464:C:/Users/dtjld/Desktop/AIoT_software/LiteOS_Lab_overseas/LiteOS_Lab/iot_link/os/liteos/base/core\los_task.c ****                           (UINT32)pstTaskCB->pStackPointer,
 465:C:/Users/dtjld/Desktop/AIoT_software/LiteOS_Lab_overseas/LiteOS_Lab/iot_link/os/liteos/base/core\los_task.c ****                           pstTaskCB->uwTopOfStack,
 466:C:/Users/dtjld/Desktop/AIoT_software/LiteOS_Lab_overseas/LiteOS_Lab/iot_link/os/liteos/base/core\los_task.c ****                           pstTaskCB->uwEventMask);/*lint !e515*/
 467:C:/Users/dtjld/Desktop/AIoT_software/LiteOS_Lab_overseas/LiteOS_Lab/iot_link/os/liteos/base/core\los_task.c **** 
 468:C:/Users/dtjld/Desktop/AIoT_software/LiteOS_Lab_overseas/LiteOS_Lab/iot_link/os/liteos/base/core\los_task.c ****         if (pstTaskCB->pTaskSem != NULL)
 1323              		.loc 2 468 0
 1324 0094 BB68     		ldr	r3, [r7, #8]
 1325 0096 9B69     		ldr	r3, [r3, #24]
 1326 0098 002B     		cmp	r3, #0
 1327 009a 07D0     		beq	.L70
 469:C:/Users/dtjld/Desktop/AIoT_software/LiteOS_Lab_overseas/LiteOS_Lab/iot_link/os/liteos/base/core\los_task.c ****         {
 470:C:/Users/dtjld/Desktop/AIoT_software/LiteOS_Lab_overseas/LiteOS_Lab/iot_link/os/liteos/base/core\los_task.c ****             PRINTK("0x%-7x", ((SEM_CB_S *)pstTaskCB->pTaskSem)->usSemID);/*lint !e516*/
 1328              		.loc 2 470 0
 1329 009c BB68     		ldr	r3, [r7, #8]
 1330 009e 9B69     		ldr	r3, [r3, #24]
 1331 00a0 DB88     		ldrh	r3, [r3, #6]
 1332 00a2 1946     		mov	r1, r3
 1333 00a4 1248     		ldr	r0, .L75+20
ARM GAS  C:\Users\dtjld\AppData\Local\Temp\ccU8krAq.s 			page 37


 1334 00a6 FFF7FEFF 		bl	printf
 1335 00aa 04E0     		b	.L71
 1336              	.L70:
 471:C:/Users/dtjld/Desktop/AIoT_software/LiteOS_Lab_overseas/LiteOS_Lab/iot_link/os/liteos/base/core\los_task.c ****         }
 472:C:/Users/dtjld/Desktop/AIoT_software/LiteOS_Lab_overseas/LiteOS_Lab/iot_link/os/liteos/base/core\los_task.c ****         else
 473:C:/Users/dtjld/Desktop/AIoT_software/LiteOS_Lab_overseas/LiteOS_Lab/iot_link/os/liteos/base/core\los_task.c ****         {
 474:C:/Users/dtjld/Desktop/AIoT_software/LiteOS_Lab_overseas/LiteOS_Lab/iot_link/os/liteos/base/core\los_task.c ****             PRINTK("0x%-7x", 0xFFFF);
 1337              		.loc 2 474 0
 1338 00ac 4FF6FF71 		movw	r1, #65535
 1339 00b0 0F48     		ldr	r0, .L75+20
 1340 00b2 FFF7FEFF 		bl	printf
 1341              	.L71:
 475:C:/Users/dtjld/Desktop/AIoT_software/LiteOS_Lab_overseas/LiteOS_Lab/iot_link/os/liteos/base/core\los_task.c ****         }
 476:C:/Users/dtjld/Desktop/AIoT_software/LiteOS_Lab_overseas/LiteOS_Lab/iot_link/os/liteos/base/core\los_task.c **** 
 477:C:/Users/dtjld/Desktop/AIoT_software/LiteOS_Lab_overseas/LiteOS_Lab/iot_link/os/liteos/base/core\los_task.c **** #if (LOSCFG_BASE_CORE_CPUP == YES)
 478:C:/Users/dtjld/Desktop/AIoT_software/LiteOS_Lab_overseas/LiteOS_Lab/iot_link/os/liteos/base/core\los_task.c ****         PRINT_ERR("%2d.%-7d"
 479:C:/Users/dtjld/Desktop/AIoT_software/LiteOS_Lab_overseas/LiteOS_Lab/iot_link/os/liteos/base/core\los_task.c ****                           "%2d.%-9d"
 480:C:/Users/dtjld/Desktop/AIoT_software/LiteOS_Lab_overseas/LiteOS_Lab/iot_link/os/liteos/base/core\los_task.c ****                           "%2d.%-6d",
 481:C:/Users/dtjld/Desktop/AIoT_software/LiteOS_Lab_overseas/LiteOS_Lab/iot_link/os/liteos/base/core\los_task.c ****                           pstCpu[pstTaskCB->uwTaskID].uwUsage / LOS_CPUP_PRECISION_MULT,
 482:C:/Users/dtjld/Desktop/AIoT_software/LiteOS_Lab_overseas/LiteOS_Lab/iot_link/os/liteos/base/core\los_task.c ****                           pstCpu[pstTaskCB->uwTaskID].uwUsage % LOS_CPUP_PRECISION_MULT,
 483:C:/Users/dtjld/Desktop/AIoT_software/LiteOS_Lab_overseas/LiteOS_Lab/iot_link/os/liteos/base/core\los_task.c ****                           pstCpu10s[pstTaskCB->uwTaskID].uwUsage / LOS_CPUP_PRECISION_MULT,
 484:C:/Users/dtjld/Desktop/AIoT_software/LiteOS_Lab_overseas/LiteOS_Lab/iot_link/os/liteos/base/core\los_task.c ****                           pstCpu10s[pstTaskCB->uwTaskID].uwUsage % LOS_CPUP_PRECISION_MULT,
 485:C:/Users/dtjld/Desktop/AIoT_software/LiteOS_Lab_overseas/LiteOS_Lab/iot_link/os/liteos/base/core\los_task.c ****                           pstCpu1s[pstTaskCB->uwTaskID].uwUsage / LOS_CPUP_PRECISION_MULT,
 486:C:/Users/dtjld/Desktop/AIoT_software/LiteOS_Lab_overseas/LiteOS_Lab/iot_link/os/liteos/base/core\los_task.c ****                           pstCpu1s[pstTaskCB->uwTaskID].uwUsage % LOS_CPUP_PRECISION_MULT);/*lint !
 487:C:/Users/dtjld/Desktop/AIoT_software/LiteOS_Lab_overseas/LiteOS_Lab/iot_link/os/liteos/base/core\los_task.c **** #endif /* LOSCFG_BASE_CORE_CPUP */
 488:C:/Users/dtjld/Desktop/AIoT_software/LiteOS_Lab_overseas/LiteOS_Lab/iot_link/os/liteos/base/core\los_task.c ****         PRINTK("\r\n");/*lint !e515*/
 1342              		.loc 2 488 0
 1343 00b6 0F48     		ldr	r0, .L75+24
 1344 00b8 FFF7FEFF 		bl	puts
 1345 00bc 00E0     		b	.L69
 1346              	.L74:
 454:C:/Users/dtjld/Desktop/AIoT_software/LiteOS_Lab_overseas/LiteOS_Lab/iot_link/os/liteos/base/core\los_task.c ****         }
 1347              		.loc 2 454 0
 1348 00be 00BF     		nop
 1349              	.L69:
 447:C:/Users/dtjld/Desktop/AIoT_software/LiteOS_Lab_overseas/LiteOS_Lab/iot_link/os/liteos/base/core\los_task.c ****     {
 1350              		.loc 2 447 0 discriminator 2
 1351 00c0 FB68     		ldr	r3, [r7, #12]
 1352 00c2 0133     		adds	r3, r3, #1
 1353 00c4 FB60     		str	r3, [r7, #12]
 1354              	.L67:
 447:C:/Users/dtjld/Desktop/AIoT_software/LiteOS_Lab_overseas/LiteOS_Lab/iot_link/os/liteos/base/core\los_task.c ****     {
 1355              		.loc 2 447 0 is_stmt 0 discriminator 1
 1356 00c6 0C4B     		ldr	r3, .L75+28
 1357 00c8 1B68     		ldr	r3, [r3]
 1358 00ca FA68     		ldr	r2, [r7, #12]
 1359 00cc 9A42     		cmp	r2, r3
 1360 00ce AAD3     		bcc	.L72
 489:C:/Users/dtjld/Desktop/AIoT_software/LiteOS_Lab_overseas/LiteOS_Lab/iot_link/os/liteos/base/core\los_task.c ****     }
 490:C:/Users/dtjld/Desktop/AIoT_software/LiteOS_Lab_overseas/LiteOS_Lab/iot_link/os/liteos/base/core\los_task.c **** 
 491:C:/Users/dtjld/Desktop/AIoT_software/LiteOS_Lab_overseas/LiteOS_Lab/iot_link/os/liteos/base/core\los_task.c **** #if (LOSCFG_BASE_CORE_CPUP == YES)
 492:C:/Users/dtjld/Desktop/AIoT_software/LiteOS_Lab_overseas/LiteOS_Lab/iot_link/os/liteos/base/core\los_task.c ****     (VOID)LOS_MemFree((VOID *)OS_SYS_MEM_ADDR, pstCpu);
 493:C:/Users/dtjld/Desktop/AIoT_software/LiteOS_Lab_overseas/LiteOS_Lab/iot_link/os/liteos/base/core\los_task.c ****     (VOID)LOS_MemFree((VOID *)OS_SYS_MEM_ADDR, pstCpu10s);
 494:C:/Users/dtjld/Desktop/AIoT_software/LiteOS_Lab_overseas/LiteOS_Lab/iot_link/os/liteos/base/core\los_task.c ****     (VOID)LOS_MemFree((VOID *)OS_SYS_MEM_ADDR, pstCpu1s);
 495:C:/Users/dtjld/Desktop/AIoT_software/LiteOS_Lab_overseas/LiteOS_Lab/iot_link/os/liteos/base/core\los_task.c **** #endif
 496:C:/Users/dtjld/Desktop/AIoT_software/LiteOS_Lab_overseas/LiteOS_Lab/iot_link/os/liteos/base/core\los_task.c **** 
 497:C:/Users/dtjld/Desktop/AIoT_software/LiteOS_Lab_overseas/LiteOS_Lab/iot_link/os/liteos/base/core\los_task.c ****     return LOS_OK;
ARM GAS  C:\Users\dtjld\AppData\Local\Temp\ccU8krAq.s 			page 38


 1361              		.loc 2 497 0 is_stmt 1
 1362 00d0 0023     		movs	r3, #0
 498:C:/Users/dtjld/Desktop/AIoT_software/LiteOS_Lab_overseas/LiteOS_Lab/iot_link/os/liteos/base/core\los_task.c **** }
 1363              		.loc 2 498 0
 1364 00d2 1846     		mov	r0, r3
 1365 00d4 1037     		adds	r7, r7, #16
 1366              	.LCFI65:
 1367              		.cfi_def_cfa_offset 24
 1368 00d6 BD46     		mov	sp, r7
 1369              	.LCFI66:
 1370              		.cfi_def_cfa_register 13
 1371              		@ sp needed
 1372 00d8 BDE8F081 		pop	{r4, r5, r6, r7, r8, pc}
 1373              	.L76:
 1374              		.align	2
 1375              	.L75:
 1376 00dc 8C000000 		.word	.LC11
 1377 00e0 04010000 		.word	.LC12
 1378 00e4 08010000 		.word	.LC13
 1379 00e8 00000000 		.word	g_pstTaskCBArray
 1380 00ec 7C010000 		.word	.LC14
 1381 00f0 B4010000 		.word	.LC15
 1382 00f4 BC010000 		.word	.LC16
 1383 00f8 00000000 		.word	g_uwTskMaxNum
 1384              		.cfi_endproc
 1385              	.LFE137:
 1387              		.section	.text.osTaskInit,"ax",%progbits
 1388              		.align	1
 1389              		.global	osTaskInit
 1390              		.syntax unified
 1391              		.thumb
 1392              		.thumb_func
 1393              		.fpu fpv4-sp-d16
 1395              	osTaskInit:
 1396              	.LFB138:
 499:C:/Users/dtjld/Desktop/AIoT_software/LiteOS_Lab_overseas/LiteOS_Lab/iot_link/os/liteos/base/core\los_task.c **** 
 500:C:/Users/dtjld/Desktop/AIoT_software/LiteOS_Lab_overseas/LiteOS_Lab/iot_link/os/liteos/base/core\los_task.c **** /*****************************************************************************
 501:C:/Users/dtjld/Desktop/AIoT_software/LiteOS_Lab_overseas/LiteOS_Lab/iot_link/os/liteos/base/core\los_task.c ****  Function : osTaskInit
 502:C:/Users/dtjld/Desktop/AIoT_software/LiteOS_Lab_overseas/LiteOS_Lab/iot_link/os/liteos/base/core\los_task.c ****  Description : Task init function.
 503:C:/Users/dtjld/Desktop/AIoT_software/LiteOS_Lab_overseas/LiteOS_Lab/iot_link/os/liteos/base/core\los_task.c ****  Input       : None
 504:C:/Users/dtjld/Desktop/AIoT_software/LiteOS_Lab_overseas/LiteOS_Lab/iot_link/os/liteos/base/core\los_task.c ****  Output      : None
 505:C:/Users/dtjld/Desktop/AIoT_software/LiteOS_Lab_overseas/LiteOS_Lab/iot_link/os/liteos/base/core\los_task.c ****  Return      : LOS_OK on success or error code on failure
 506:C:/Users/dtjld/Desktop/AIoT_software/LiteOS_Lab_overseas/LiteOS_Lab/iot_link/os/liteos/base/core\los_task.c ****  *****************************************************************************/
 507:C:/Users/dtjld/Desktop/AIoT_software/LiteOS_Lab_overseas/LiteOS_Lab/iot_link/os/liteos/base/core\los_task.c **** LITE_OS_SEC_TEXT_INIT UINT32 osTaskInit(VOID)
 508:C:/Users/dtjld/Desktop/AIoT_software/LiteOS_Lab_overseas/LiteOS_Lab/iot_link/os/liteos/base/core\los_task.c **** {
 1397              		.loc 2 508 0
 1398              		.cfi_startproc
 1399              		@ args = 0, pretend = 0, frame = 16
 1400              		@ frame_needed = 1, uses_anonymous_args = 0
 1401 0000 80B5     		push	{r7, lr}
 1402              	.LCFI67:
 1403              		.cfi_def_cfa_offset 8
 1404              		.cfi_offset 7, -8
 1405              		.cfi_offset 14, -4
 1406 0002 84B0     		sub	sp, sp, #16
 1407              	.LCFI68:
 1408              		.cfi_def_cfa_offset 24
ARM GAS  C:\Users\dtjld\AppData\Local\Temp\ccU8krAq.s 			page 39


 1409 0004 00AF     		add	r7, sp, #0
 1410              	.LCFI69:
 1411              		.cfi_def_cfa_register 7
 509:C:/Users/dtjld/Desktop/AIoT_software/LiteOS_Lab_overseas/LiteOS_Lab/iot_link/os/liteos/base/core\los_task.c ****     UINT32 uwSize;
 510:C:/Users/dtjld/Desktop/AIoT_software/LiteOS_Lab_overseas/LiteOS_Lab/iot_link/os/liteos/base/core\los_task.c ****     UINT32 uwIndex;
 511:C:/Users/dtjld/Desktop/AIoT_software/LiteOS_Lab_overseas/LiteOS_Lab/iot_link/os/liteos/base/core\los_task.c ****     LOS_DL_LIST *pstListObject;
 512:C:/Users/dtjld/Desktop/AIoT_software/LiteOS_Lab_overseas/LiteOS_Lab/iot_link/os/liteos/base/core\los_task.c **** 
 513:C:/Users/dtjld/Desktop/AIoT_software/LiteOS_Lab_overseas/LiteOS_Lab/iot_link/os/liteos/base/core\los_task.c **** #if (LOSCFG_STATIC_TASK == NO)
 514:C:/Users/dtjld/Desktop/AIoT_software/LiteOS_Lab_overseas/LiteOS_Lab/iot_link/os/liteos/base/core\los_task.c **** 
 515:C:/Users/dtjld/Desktop/AIoT_software/LiteOS_Lab_overseas/LiteOS_Lab/iot_link/os/liteos/base/core\los_task.c ****     /*
 516:C:/Users/dtjld/Desktop/AIoT_software/LiteOS_Lab_overseas/LiteOS_Lab/iot_link/os/liteos/base/core\los_task.c ****      * allocate (g_uwTskMaxNum + 1) tcbs because, LOS_TaskDelete will use g_pstTaskCBArray [g_uwTsk
 517:C:/Users/dtjld/Desktop/AIoT_software/LiteOS_Lab_overseas/LiteOS_Lab/iot_link/os/liteos/base/core\los_task.c ****      */
 518:C:/Users/dtjld/Desktop/AIoT_software/LiteOS_Lab_overseas/LiteOS_Lab/iot_link/os/liteos/base/core\los_task.c **** 
 519:C:/Users/dtjld/Desktop/AIoT_software/LiteOS_Lab_overseas/LiteOS_Lab/iot_link/os/liteos/base/core\los_task.c ****     uwSize = (g_uwTskMaxNum + 1) * sizeof(LOS_TASK_CB);
 1412              		.loc 2 519 0
 1413 0006 414B     		ldr	r3, .L85
 1414 0008 1B68     		ldr	r3, [r3]
 1415 000a 0133     		adds	r3, r3, #1
 1416 000c 5422     		movs	r2, #84
 1417 000e 02FB03F3 		mul	r3, r2, r3
 1418 0012 7B60     		str	r3, [r7, #4]
 520:C:/Users/dtjld/Desktop/AIoT_software/LiteOS_Lab_overseas/LiteOS_Lab/iot_link/os/liteos/base/core\los_task.c ****     g_pstTaskCBArray = (LOS_TASK_CB *)LOS_MemAlloc(m_aucSysMem0, uwSize);
 1419              		.loc 2 520 0
 1420 0014 3E4B     		ldr	r3, .L85+4
 1421 0016 1B68     		ldr	r3, [r3]
 1422 0018 7968     		ldr	r1, [r7, #4]
 1423 001a 1846     		mov	r0, r3
 1424 001c FFF7FEFF 		bl	LOS_MemAlloc
 1425 0020 0246     		mov	r2, r0
 1426 0022 3C4B     		ldr	r3, .L85+8
 1427 0024 1A60     		str	r2, [r3]
 521:C:/Users/dtjld/Desktop/AIoT_software/LiteOS_Lab_overseas/LiteOS_Lab/iot_link/os/liteos/base/core\los_task.c ****     if (NULL == g_pstTaskCBArray)
 1428              		.loc 2 521 0
 1429 0026 3B4B     		ldr	r3, .L85+8
 1430 0028 1B68     		ldr	r3, [r3]
 1431 002a 002B     		cmp	r3, #0
 1432 002c 01D1     		bne	.L78
 522:C:/Users/dtjld/Desktop/AIoT_software/LiteOS_Lab_overseas/LiteOS_Lab/iot_link/os/liteos/base/core\los_task.c ****     {
 523:C:/Users/dtjld/Desktop/AIoT_software/LiteOS_Lab_overseas/LiteOS_Lab/iot_link/os/liteos/base/core\los_task.c ****         return LOS_ERRNO_TSK_NO_MEMORY;
 1433              		.loc 2 523 0
 1434 002e 3A4B     		ldr	r3, .L85+12
 1435 0030 67E0     		b	.L79
 1436              	.L78:
 524:C:/Users/dtjld/Desktop/AIoT_software/LiteOS_Lab_overseas/LiteOS_Lab/iot_link/os/liteos/base/core\los_task.c ****     }
 525:C:/Users/dtjld/Desktop/AIoT_software/LiteOS_Lab_overseas/LiteOS_Lab/iot_link/os/liteos/base/core\los_task.c **** 
 526:C:/Users/dtjld/Desktop/AIoT_software/LiteOS_Lab_overseas/LiteOS_Lab/iot_link/os/liteos/base/core\los_task.c ****     (VOID)memset(g_pstTaskCBArray, 0, uwSize);
 1437              		.loc 2 526 0
 1438 0032 384B     		ldr	r3, .L85+8
 1439 0034 1B68     		ldr	r3, [r3]
 1440 0036 7A68     		ldr	r2, [r7, #4]
 1441 0038 0021     		movs	r1, #0
 1442 003a 1846     		mov	r0, r3
 1443 003c FFF7FEFF 		bl	memset
 527:C:/Users/dtjld/Desktop/AIoT_software/LiteOS_Lab_overseas/LiteOS_Lab/iot_link/os/liteos/base/core\los_task.c ****     LOS_ListInit(&g_stTaskTimerList);
 1444              		.loc 2 527 0
 1445 0040 3648     		ldr	r0, .L85+16
 1446 0042 FFF7FEFF 		bl	LOS_ListInit
ARM GAS  C:\Users\dtjld\AppData\Local\Temp\ccU8krAq.s 			page 40


 528:C:/Users/dtjld/Desktop/AIoT_software/LiteOS_Lab_overseas/LiteOS_Lab/iot_link/os/liteos/base/core\los_task.c ****     LOS_ListInit(&g_stLosFreeTask);
 1447              		.loc 2 528 0
 1448 0046 3648     		ldr	r0, .L85+20
 1449 0048 FFF7FEFF 		bl	LOS_ListInit
 529:C:/Users/dtjld/Desktop/AIoT_software/LiteOS_Lab_overseas/LiteOS_Lab/iot_link/os/liteos/base/core\los_task.c ****     LOS_ListInit(&g_stTskRecyleList);
 1450              		.loc 2 529 0
 1451 004c 3548     		ldr	r0, .L85+24
 1452 004e FFF7FEFF 		bl	LOS_ListInit
 530:C:/Users/dtjld/Desktop/AIoT_software/LiteOS_Lab_overseas/LiteOS_Lab/iot_link/os/liteos/base/core\los_task.c ****     for (uwIndex = 0; uwIndex <= LOSCFG_BASE_CORE_TSK_LIMIT; uwIndex++)
 1453              		.loc 2 530 0
 1454 0052 0023     		movs	r3, #0
 1455 0054 FB60     		str	r3, [r7, #12]
 1456 0056 20E0     		b	.L80
 1457              	.L81:
 531:C:/Users/dtjld/Desktop/AIoT_software/LiteOS_Lab_overseas/LiteOS_Lab/iot_link/os/liteos/base/core\los_task.c ****     {
 532:C:/Users/dtjld/Desktop/AIoT_software/LiteOS_Lab_overseas/LiteOS_Lab/iot_link/os/liteos/base/core\los_task.c ****         g_pstTaskCBArray[uwIndex].usTaskStatus = OS_TASK_STATUS_UNUSED;
 1458              		.loc 2 532 0 discriminator 3
 1459 0058 2E4B     		ldr	r3, .L85+8
 1460 005a 1A68     		ldr	r2, [r3]
 1461 005c FB68     		ldr	r3, [r7, #12]
 1462 005e 5421     		movs	r1, #84
 1463 0060 01FB03F3 		mul	r3, r1, r3
 1464 0064 1344     		add	r3, r3, r2
 1465 0066 0122     		movs	r2, #1
 1466 0068 9A80     		strh	r2, [r3, #4]	@ movhi
 533:C:/Users/dtjld/Desktop/AIoT_software/LiteOS_Lab_overseas/LiteOS_Lab/iot_link/os/liteos/base/core\los_task.c ****         g_pstTaskCBArray[uwIndex].uwTaskID = uwIndex;
 1467              		.loc 2 533 0 discriminator 3
 1468 006a 2A4B     		ldr	r3, .L85+8
 1469 006c 1A68     		ldr	r2, [r3]
 1470 006e FB68     		ldr	r3, [r7, #12]
 1471 0070 5421     		movs	r1, #84
 1472 0072 01FB03F3 		mul	r3, r1, r3
 1473 0076 1344     		add	r3, r3, r2
 1474 0078 FA68     		ldr	r2, [r7, #12]
 1475 007a 1A61     		str	r2, [r3, #16]
 534:C:/Users/dtjld/Desktop/AIoT_software/LiteOS_Lab_overseas/LiteOS_Lab/iot_link/os/liteos/base/core\los_task.c ****         LOS_ListTailInsert(&g_stLosFreeTask, &g_pstTaskCBArray[uwIndex].stPendList);
 1476              		.loc 2 534 0 discriminator 3
 1477 007c 254B     		ldr	r3, .L85+8
 1478 007e 1A68     		ldr	r2, [r3]
 1479 0080 FB68     		ldr	r3, [r7, #12]
 1480 0082 5421     		movs	r1, #84
 1481 0084 01FB03F3 		mul	r3, r1, r3
 1482 0088 1344     		add	r3, r3, r2
 1483 008a 2833     		adds	r3, r3, #40
 1484 008c 1946     		mov	r1, r3
 1485 008e 2448     		ldr	r0, .L85+20
 1486 0090 FFF7FEFF 		bl	LOS_ListTailInsert
 530:C:/Users/dtjld/Desktop/AIoT_software/LiteOS_Lab_overseas/LiteOS_Lab/iot_link/os/liteos/base/core\los_task.c ****     {
 1487              		.loc 2 530 0 discriminator 3
 1488 0094 FB68     		ldr	r3, [r7, #12]
 1489 0096 0133     		adds	r3, r3, #1
 1490 0098 FB60     		str	r3, [r7, #12]
 1491              	.L80:
 530:C:/Users/dtjld/Desktop/AIoT_software/LiteOS_Lab_overseas/LiteOS_Lab/iot_link/os/liteos/base/core\los_task.c ****     {
 1492              		.loc 2 530 0 is_stmt 0 discriminator 1
 1493 009a FB68     		ldr	r3, [r7, #12]
 1494 009c 0F2B     		cmp	r3, #15
ARM GAS  C:\Users\dtjld\AppData\Local\Temp\ccU8krAq.s 			page 41


 1495 009e DBD9     		bls	.L81
 535:C:/Users/dtjld/Desktop/AIoT_software/LiteOS_Lab_overseas/LiteOS_Lab/iot_link/os/liteos/base/core\los_task.c ****     }
 536:C:/Users/dtjld/Desktop/AIoT_software/LiteOS_Lab_overseas/LiteOS_Lab/iot_link/os/liteos/base/core\los_task.c **** 
 537:C:/Users/dtjld/Desktop/AIoT_software/LiteOS_Lab_overseas/LiteOS_Lab/iot_link/os/liteos/base/core\los_task.c ****     (VOID)memset((VOID *)(&g_stLosTask), 0, sizeof(g_stLosTask));
 1496              		.loc 2 537 0 is_stmt 1
 1497 00a0 0822     		movs	r2, #8
 1498 00a2 0021     		movs	r1, #0
 1499 00a4 2048     		ldr	r0, .L85+28
 1500 00a6 FFF7FEFF 		bl	memset
 538:C:/Users/dtjld/Desktop/AIoT_software/LiteOS_Lab_overseas/LiteOS_Lab/iot_link/os/liteos/base/core\los_task.c **** 
 539:C:/Users/dtjld/Desktop/AIoT_software/LiteOS_Lab_overseas/LiteOS_Lab/iot_link/os/liteos/base/core\los_task.c ****     /*
 540:C:/Users/dtjld/Desktop/AIoT_software/LiteOS_Lab_overseas/LiteOS_Lab/iot_link/os/liteos/base/core\los_task.c ****      * g_stLosTask->pstRunTask will be overided by pstRunTask->pstNewTask
 541:C:/Users/dtjld/Desktop/AIoT_software/LiteOS_Lab_overseas/LiteOS_Lab/iot_link/os/liteos/base/core\los_task.c ****      * in LOS_StartToRun, needless give pstRunTask a initialize value
 542:C:/Users/dtjld/Desktop/AIoT_software/LiteOS_Lab_overseas/LiteOS_Lab/iot_link/os/liteos/base/core\los_task.c ****      */
 543:C:/Users/dtjld/Desktop/AIoT_software/LiteOS_Lab_overseas/LiteOS_Lab/iot_link/os/liteos/base/core\los_task.c **** #endif
 544:C:/Users/dtjld/Desktop/AIoT_software/LiteOS_Lab_overseas/LiteOS_Lab/iot_link/os/liteos/base/core\los_task.c **** 
 545:C:/Users/dtjld/Desktop/AIoT_software/LiteOS_Lab_overseas/LiteOS_Lab/iot_link/os/liteos/base/core\los_task.c ****     osPriqueueInit();
 1501              		.loc 2 545 0
 1502 00aa FFF7FEFF 		bl	osPriqueueInit
 546:C:/Users/dtjld/Desktop/AIoT_software/LiteOS_Lab_overseas/LiteOS_Lab/iot_link/os/liteos/base/core\los_task.c ****     uwSize = sizeof(LOS_DL_LIST) * OS_TSK_SORTLINK_LEN;
 1503              		.loc 2 546 0
 1504 00ae 4FF48073 		mov	r3, #256
 1505 00b2 7B60     		str	r3, [r7, #4]
 547:C:/Users/dtjld/Desktop/AIoT_software/LiteOS_Lab_overseas/LiteOS_Lab/iot_link/os/liteos/base/core\los_task.c ****     pstListObject = (LOS_DL_LIST *)LOS_MemAlloc(m_aucSysMem0, uwSize);
 1506              		.loc 2 547 0
 1507 00b4 164B     		ldr	r3, .L85+4
 1508 00b6 1B68     		ldr	r3, [r3]
 1509 00b8 7968     		ldr	r1, [r7, #4]
 1510 00ba 1846     		mov	r0, r3
 1511 00bc FFF7FEFF 		bl	LOS_MemAlloc
 1512 00c0 B860     		str	r0, [r7, #8]
 548:C:/Users/dtjld/Desktop/AIoT_software/LiteOS_Lab_overseas/LiteOS_Lab/iot_link/os/liteos/base/core\los_task.c ****     if (NULL == pstListObject)
 1513              		.loc 2 548 0
 1514 00c2 BB68     		ldr	r3, [r7, #8]
 1515 00c4 002B     		cmp	r3, #0
 1516 00c6 01D1     		bne	.L82
 549:C:/Users/dtjld/Desktop/AIoT_software/LiteOS_Lab_overseas/LiteOS_Lab/iot_link/os/liteos/base/core\los_task.c ****     {
 550:C:/Users/dtjld/Desktop/AIoT_software/LiteOS_Lab_overseas/LiteOS_Lab/iot_link/os/liteos/base/core\los_task.c ****         return LOS_ERRNO_TSK_NO_MEMORY;
 1517              		.loc 2 550 0
 1518 00c8 134B     		ldr	r3, .L85+12
 1519 00ca 1AE0     		b	.L79
 1520              	.L82:
 551:C:/Users/dtjld/Desktop/AIoT_software/LiteOS_Lab_overseas/LiteOS_Lab/iot_link/os/liteos/base/core\los_task.c ****     }
 552:C:/Users/dtjld/Desktop/AIoT_software/LiteOS_Lab_overseas/LiteOS_Lab/iot_link/os/liteos/base/core\los_task.c **** 
 553:C:/Users/dtjld/Desktop/AIoT_software/LiteOS_Lab_overseas/LiteOS_Lab/iot_link/os/liteos/base/core\los_task.c ****     (VOID)memset((VOID *)pstListObject, 0, uwSize);
 1521              		.loc 2 553 0
 1522 00cc 7A68     		ldr	r2, [r7, #4]
 1523 00ce 0021     		movs	r1, #0
 1524 00d0 B868     		ldr	r0, [r7, #8]
 1525 00d2 FFF7FEFF 		bl	memset
 554:C:/Users/dtjld/Desktop/AIoT_software/LiteOS_Lab_overseas/LiteOS_Lab/iot_link/os/liteos/base/core\los_task.c ****     g_stTskSortLink.pstSortLink = pstListObject;
 1526              		.loc 2 554 0
 1527 00d6 154A     		ldr	r2, .L85+32
 1528 00d8 BB68     		ldr	r3, [r7, #8]
 1529 00da 1360     		str	r3, [r2]
 555:C:/Users/dtjld/Desktop/AIoT_software/LiteOS_Lab_overseas/LiteOS_Lab/iot_link/os/liteos/base/core\los_task.c ****     g_stTskSortLink.usCursor = 0;
 1530              		.loc 2 555 0
ARM GAS  C:\Users\dtjld\AppData\Local\Temp\ccU8krAq.s 			page 42


 1531 00dc 134B     		ldr	r3, .L85+32
 1532 00de 0022     		movs	r2, #0
 1533 00e0 9A80     		strh	r2, [r3, #4]	@ movhi
 556:C:/Users/dtjld/Desktop/AIoT_software/LiteOS_Lab_overseas/LiteOS_Lab/iot_link/os/liteos/base/core\los_task.c ****     for (uwIndex = 0; uwIndex < OS_TSK_SORTLINK_LEN; uwIndex++, pstListObject++)
 1534              		.loc 2 556 0
 1535 00e2 0023     		movs	r3, #0
 1536 00e4 FB60     		str	r3, [r7, #12]
 1537 00e6 08E0     		b	.L83
 1538              	.L84:
 557:C:/Users/dtjld/Desktop/AIoT_software/LiteOS_Lab_overseas/LiteOS_Lab/iot_link/os/liteos/base/core\los_task.c ****     {
 558:C:/Users/dtjld/Desktop/AIoT_software/LiteOS_Lab_overseas/LiteOS_Lab/iot_link/os/liteos/base/core\los_task.c ****         LOS_ListInit(pstListObject);
 1539              		.loc 2 558 0 discriminator 3
 1540 00e8 B868     		ldr	r0, [r7, #8]
 1541 00ea FFF7FEFF 		bl	LOS_ListInit
 556:C:/Users/dtjld/Desktop/AIoT_software/LiteOS_Lab_overseas/LiteOS_Lab/iot_link/os/liteos/base/core\los_task.c ****     for (uwIndex = 0; uwIndex < OS_TSK_SORTLINK_LEN; uwIndex++, pstListObject++)
 1542              		.loc 2 556 0 discriminator 3
 1543 00ee FB68     		ldr	r3, [r7, #12]
 1544 00f0 0133     		adds	r3, r3, #1
 1545 00f2 FB60     		str	r3, [r7, #12]
 1546 00f4 BB68     		ldr	r3, [r7, #8]
 1547 00f6 0833     		adds	r3, r3, #8
 1548 00f8 BB60     		str	r3, [r7, #8]
 1549              	.L83:
 556:C:/Users/dtjld/Desktop/AIoT_software/LiteOS_Lab_overseas/LiteOS_Lab/iot_link/os/liteos/base/core\los_task.c ****     for (uwIndex = 0; uwIndex < OS_TSK_SORTLINK_LEN; uwIndex++, pstListObject++)
 1550              		.loc 2 556 0 is_stmt 0 discriminator 1
 1551 00fa FB68     		ldr	r3, [r7, #12]
 1552 00fc 1F2B     		cmp	r3, #31
 1553 00fe F3D9     		bls	.L84
 559:C:/Users/dtjld/Desktop/AIoT_software/LiteOS_Lab_overseas/LiteOS_Lab/iot_link/os/liteos/base/core\los_task.c ****     }
 560:C:/Users/dtjld/Desktop/AIoT_software/LiteOS_Lab_overseas/LiteOS_Lab/iot_link/os/liteos/base/core\los_task.c **** 
 561:C:/Users/dtjld/Desktop/AIoT_software/LiteOS_Lab_overseas/LiteOS_Lab/iot_link/os/liteos/base/core\los_task.c **** #if ((LOSCFG_PLATFORM_EXC == YES) && (LOSCFG_SAVE_EXC_INFO == YES))
 562:C:/Users/dtjld/Desktop/AIoT_software/LiteOS_Lab_overseas/LiteOS_Lab/iot_link/os/liteos/base/core\los_task.c ****     osExcRegister((EXC_INFO_TYPE)OS_EXC_TYPE_TSK, (EXC_INFO_SAVE_CALLBACK)LOS_TaskInfoGet, &g_uwTsk
 563:C:/Users/dtjld/Desktop/AIoT_software/LiteOS_Lab_overseas/LiteOS_Lab/iot_link/os/liteos/base/core\los_task.c **** #endif
 564:C:/Users/dtjld/Desktop/AIoT_software/LiteOS_Lab_overseas/LiteOS_Lab/iot_link/os/liteos/base/core\los_task.c **** 
 565:C:/Users/dtjld/Desktop/AIoT_software/LiteOS_Lab_overseas/LiteOS_Lab/iot_link/os/liteos/base/core\los_task.c **** #if (LOSCFG_LIB_LIBC_NEWLIB_REENT == YES)
 566:C:/Users/dtjld/Desktop/AIoT_software/LiteOS_Lab_overseas/LiteOS_Lab/iot_link/os/liteos/base/core\los_task.c ****     extern LITE_OS_SEC_TEXT VOID osTaskSwitchImpurePtr(VOID);
 567:C:/Users/dtjld/Desktop/AIoT_software/LiteOS_Lab_overseas/LiteOS_Lab/iot_link/os/liteos/base/core\los_task.c ****     g_pfnTskSwitchImpurePtrHook = osTaskSwitchImpurePtr;
 568:C:/Users/dtjld/Desktop/AIoT_software/LiteOS_Lab_overseas/LiteOS_Lab/iot_link/os/liteos/base/core\los_task.c **** #endif
 569:C:/Users/dtjld/Desktop/AIoT_software/LiteOS_Lab_overseas/LiteOS_Lab/iot_link/os/liteos/base/core\los_task.c ****     return LOS_OK;
 1554              		.loc 2 569 0 is_stmt 1
 1555 0100 0023     		movs	r3, #0
 1556              	.L79:
 570:C:/Users/dtjld/Desktop/AIoT_software/LiteOS_Lab_overseas/LiteOS_Lab/iot_link/os/liteos/base/core\los_task.c **** }
 1557              		.loc 2 570 0
 1558 0102 1846     		mov	r0, r3
 1559 0104 1037     		adds	r7, r7, #16
 1560              	.LCFI70:
 1561              		.cfi_def_cfa_offset 8
 1562 0106 BD46     		mov	sp, r7
 1563              	.LCFI71:
 1564              		.cfi_def_cfa_register 13
 1565              		@ sp needed
 1566 0108 80BD     		pop	{r7, pc}
 1567              	.L86:
 1568 010a 00BF     		.align	2
 1569              	.L85:
 1570 010c 00000000 		.word	g_uwTskMaxNum
ARM GAS  C:\Users\dtjld\AppData\Local\Temp\ccU8krAq.s 			page 43


 1571 0110 00000000 		.word	m_aucSysMem0
 1572 0114 00000000 		.word	g_pstTaskCBArray
 1573 0118 00020003 		.word	50332160
 1574 011c 00000000 		.word	g_stTaskTimerList
 1575 0120 00000000 		.word	g_stLosFreeTask
 1576 0124 00000000 		.word	g_stTskRecyleList
 1577 0128 00000000 		.word	g_stLosTask
 1578 012c 00000000 		.word	g_stTskSortLink
 1579              		.cfi_endproc
 1580              	.LFE138:
 1582              		.section	.rodata
 1583 01be 0000     		.align	2
 1584              	.LC17:
 1585 01c0 49646C65 		.ascii	"IdleCore000\000"
 1585      436F7265 
 1585      30303000 
 1586              		.section	.text.osIdleTaskCreate,"ax",%progbits
 1587              		.align	1
 1588              		.global	osIdleTaskCreate
 1589              		.syntax unified
 1590              		.thumb
 1591              		.thumb_func
 1592              		.fpu fpv4-sp-d16
 1594              	osIdleTaskCreate:
 1595              	.LFB139:
 571:C:/Users/dtjld/Desktop/AIoT_software/LiteOS_Lab_overseas/LiteOS_Lab/iot_link/os/liteos/base/core\los_task.c **** 
 572:C:/Users/dtjld/Desktop/AIoT_software/LiteOS_Lab_overseas/LiteOS_Lab/iot_link/os/liteos/base/core\los_task.c **** 
 573:C:/Users/dtjld/Desktop/AIoT_software/LiteOS_Lab_overseas/LiteOS_Lab/iot_link/os/liteos/base/core\los_task.c **** #if (LOSCFG_STATIC_TASK == YES)
 574:C:/Users/dtjld/Desktop/AIoT_software/LiteOS_Lab_overseas/LiteOS_Lab/iot_link/os/liteos/base/core\los_task.c **** LOS_TASK_DEF(idleTask, "IdleCore000", osIdleTask,
 575:C:/Users/dtjld/Desktop/AIoT_software/LiteOS_Lab_overseas/LiteOS_Lab/iot_link/os/liteos/base/core\los_task.c ****     OS_TASK_PRIORITY_LOWEST, 0, LOSCFG_BASE_CORE_TSK_IDLE_STACK_SIZE, 0, NULL);
 576:C:/Users/dtjld/Desktop/AIoT_software/LiteOS_Lab_overseas/LiteOS_Lab/iot_link/os/liteos/base/core\los_task.c **** #endif
 577:C:/Users/dtjld/Desktop/AIoT_software/LiteOS_Lab_overseas/LiteOS_Lab/iot_link/os/liteos/base/core\los_task.c **** 
 578:C:/Users/dtjld/Desktop/AIoT_software/LiteOS_Lab_overseas/LiteOS_Lab/iot_link/os/liteos/base/core\los_task.c **** 
 579:C:/Users/dtjld/Desktop/AIoT_software/LiteOS_Lab_overseas/LiteOS_Lab/iot_link/os/liteos/base/core\los_task.c **** /*****************************************************************************
 580:C:/Users/dtjld/Desktop/AIoT_software/LiteOS_Lab_overseas/LiteOS_Lab/iot_link/os/liteos/base/core\los_task.c ****  Function : osIdleTaskCreate
 581:C:/Users/dtjld/Desktop/AIoT_software/LiteOS_Lab_overseas/LiteOS_Lab/iot_link/os/liteos/base/core\los_task.c ****  Description : Create idle task.
 582:C:/Users/dtjld/Desktop/AIoT_software/LiteOS_Lab_overseas/LiteOS_Lab/iot_link/os/liteos/base/core\los_task.c ****  Input       : None
 583:C:/Users/dtjld/Desktop/AIoT_software/LiteOS_Lab_overseas/LiteOS_Lab/iot_link/os/liteos/base/core\los_task.c ****  Output      : None
 584:C:/Users/dtjld/Desktop/AIoT_software/LiteOS_Lab_overseas/LiteOS_Lab/iot_link/os/liteos/base/core\los_task.c ****  Return      : LOS_OK on success or error code on failure
 585:C:/Users/dtjld/Desktop/AIoT_software/LiteOS_Lab_overseas/LiteOS_Lab/iot_link/os/liteos/base/core\los_task.c ****  *****************************************************************************/
 586:C:/Users/dtjld/Desktop/AIoT_software/LiteOS_Lab_overseas/LiteOS_Lab/iot_link/os/liteos/base/core\los_task.c **** LITE_OS_SEC_TEXT_INIT UINT32 osIdleTaskCreate(VOID)
 587:C:/Users/dtjld/Desktop/AIoT_software/LiteOS_Lab_overseas/LiteOS_Lab/iot_link/os/liteos/base/core\los_task.c **** {
 1596              		.loc 2 587 0
 1597              		.cfi_startproc
 1598              		@ args = 0, pretend = 0, frame = 32
 1599              		@ frame_needed = 1, uses_anonymous_args = 0
 1600 0000 80B5     		push	{r7, lr}
 1601              	.LCFI72:
 1602              		.cfi_def_cfa_offset 8
 1603              		.cfi_offset 7, -8
 1604              		.cfi_offset 14, -4
 1605 0002 88B0     		sub	sp, sp, #32
 1606              	.LCFI73:
 1607              		.cfi_def_cfa_offset 40
 1608 0004 00AF     		add	r7, sp, #0
 1609              	.LCFI74:
 1610              		.cfi_def_cfa_register 7
ARM GAS  C:\Users\dtjld\AppData\Local\Temp\ccU8krAq.s 			page 44


 588:C:/Users/dtjld/Desktop/AIoT_software/LiteOS_Lab_overseas/LiteOS_Lab/iot_link/os/liteos/base/core\los_task.c **** #if (LOSCFG_STATIC_TASK == NO)
 589:C:/Users/dtjld/Desktop/AIoT_software/LiteOS_Lab_overseas/LiteOS_Lab/iot_link/os/liteos/base/core\los_task.c ****     UINT32 uwRet;
 590:C:/Users/dtjld/Desktop/AIoT_software/LiteOS_Lab_overseas/LiteOS_Lab/iot_link/os/liteos/base/core\los_task.c ****     TSK_INIT_PARAM_S stTaskInitParam;
 591:C:/Users/dtjld/Desktop/AIoT_software/LiteOS_Lab_overseas/LiteOS_Lab/iot_link/os/liteos/base/core\los_task.c **** 
 592:C:/Users/dtjld/Desktop/AIoT_software/LiteOS_Lab_overseas/LiteOS_Lab/iot_link/os/liteos/base/core\los_task.c ****     (VOID)memset((VOID *)(&stTaskInitParam), 0, sizeof(TSK_INIT_PARAM_S));
 1611              		.loc 2 592 0
 1612 0006 3B1D     		adds	r3, r7, #4
 1613 0008 1822     		movs	r2, #24
 1614 000a 0021     		movs	r1, #0
 1615 000c 1846     		mov	r0, r3
 1616 000e FFF7FEFF 		bl	memset
 593:C:/Users/dtjld/Desktop/AIoT_software/LiteOS_Lab_overseas/LiteOS_Lab/iot_link/os/liteos/base/core\los_task.c ****     stTaskInitParam.pfnTaskEntry = (TSK_ENTRY_FUNC)osIdleTask;
 1617              		.loc 2 593 0
 1618 0012 0C4B     		ldr	r3, .L91
 1619 0014 7B60     		str	r3, [r7, #4]
 594:C:/Users/dtjld/Desktop/AIoT_software/LiteOS_Lab_overseas/LiteOS_Lab/iot_link/os/liteos/base/core\los_task.c ****     stTaskInitParam.uwStackSize = LOSCFG_BASE_CORE_TSK_IDLE_STACK_SIZE;
 1620              		.loc 2 594 0
 1621 0016 4FF4A063 		mov	r3, #1280
 1622 001a 3B61     		str	r3, [r7, #16]
 595:C:/Users/dtjld/Desktop/AIoT_software/LiteOS_Lab_overseas/LiteOS_Lab/iot_link/os/liteos/base/core\los_task.c ****     stTaskInitParam.pcName = "IdleCore000";
 1623              		.loc 2 595 0
 1624 001c 0A4B     		ldr	r3, .L91+4
 1625 001e 7B61     		str	r3, [r7, #20]
 596:C:/Users/dtjld/Desktop/AIoT_software/LiteOS_Lab_overseas/LiteOS_Lab/iot_link/os/liteos/base/core\los_task.c ****     stTaskInitParam.usTaskPrio = OS_TASK_PRIORITY_LOWEST;
 1626              		.loc 2 596 0
 1627 0020 1F23     		movs	r3, #31
 1628 0022 3B81     		strh	r3, [r7, #8]	@ movhi
 597:C:/Users/dtjld/Desktop/AIoT_software/LiteOS_Lab_overseas/LiteOS_Lab/iot_link/os/liteos/base/core\los_task.c ****     uwRet = LOS_TaskCreate(&g_uwIdleTaskID, &stTaskInitParam);
 1629              		.loc 2 597 0
 1630 0024 3B1D     		adds	r3, r7, #4
 1631 0026 1946     		mov	r1, r3
 1632 0028 0848     		ldr	r0, .L91+8
 1633 002a FFF7FEFF 		bl	LOS_TaskCreate
 1634 002e F861     		str	r0, [r7, #28]
 598:C:/Users/dtjld/Desktop/AIoT_software/LiteOS_Lab_overseas/LiteOS_Lab/iot_link/os/liteos/base/core\los_task.c **** 
 599:C:/Users/dtjld/Desktop/AIoT_software/LiteOS_Lab_overseas/LiteOS_Lab/iot_link/os/liteos/base/core\los_task.c ****     if (uwRet != LOS_OK)
 1635              		.loc 2 599 0
 1636 0030 FB69     		ldr	r3, [r7, #28]
 1637 0032 002B     		cmp	r3, #0
 1638 0034 01D0     		beq	.L88
 600:C:/Users/dtjld/Desktop/AIoT_software/LiteOS_Lab_overseas/LiteOS_Lab/iot_link/os/liteos/base/core\los_task.c ****     {
 601:C:/Users/dtjld/Desktop/AIoT_software/LiteOS_Lab_overseas/LiteOS_Lab/iot_link/os/liteos/base/core\los_task.c ****         return uwRet;
 1639              		.loc 2 601 0
 1640 0036 FB69     		ldr	r3, [r7, #28]
 1641 0038 00E0     		b	.L90
 1642              	.L88:
 602:C:/Users/dtjld/Desktop/AIoT_software/LiteOS_Lab_overseas/LiteOS_Lab/iot_link/os/liteos/base/core\los_task.c ****     }
 603:C:/Users/dtjld/Desktop/AIoT_software/LiteOS_Lab_overseas/LiteOS_Lab/iot_link/os/liteos/base/core\los_task.c **** 
 604:C:/Users/dtjld/Desktop/AIoT_software/LiteOS_Lab_overseas/LiteOS_Lab/iot_link/os/liteos/base/core\los_task.c ****     return LOS_OK;
 1643              		.loc 2 604 0
 1644 003a 0023     		movs	r3, #0
 1645              	.L90:
 605:C:/Users/dtjld/Desktop/AIoT_software/LiteOS_Lab_overseas/LiteOS_Lab/iot_link/os/liteos/base/core\los_task.c **** #else
 606:C:/Users/dtjld/Desktop/AIoT_software/LiteOS_Lab_overseas/LiteOS_Lab/iot_link/os/liteos/base/core\los_task.c ****     return LOS_TASK_INIT(idleTask, &g_uwIdleTaskID);
 607:C:/Users/dtjld/Desktop/AIoT_software/LiteOS_Lab_overseas/LiteOS_Lab/iot_link/os/liteos/base/core\los_task.c **** #endif
 608:C:/Users/dtjld/Desktop/AIoT_software/LiteOS_Lab_overseas/LiteOS_Lab/iot_link/os/liteos/base/core\los_task.c **** }
 1646              		.loc 2 608 0 discriminator 1
ARM GAS  C:\Users\dtjld\AppData\Local\Temp\ccU8krAq.s 			page 45


 1647 003c 1846     		mov	r0, r3
 1648 003e 2037     		adds	r7, r7, #32
 1649              	.LCFI75:
 1650              		.cfi_def_cfa_offset 8
 1651 0040 BD46     		mov	sp, r7
 1652              	.LCFI76:
 1653              		.cfi_def_cfa_register 13
 1654              		@ sp needed
 1655 0042 80BD     		pop	{r7, pc}
 1656              	.L92:
 1657              		.align	2
 1658              	.L91:
 1659 0044 00000000 		.word	osIdleTask
 1660 0048 C0010000 		.word	.LC17
 1661 004c 00000000 		.word	g_uwIdleTaskID
 1662              		.cfi_endproc
 1663              	.LFE139:
 1665              		.section	.text.LOS_CurTaskIDGet,"ax",%progbits
 1666              		.align	1
 1667              		.global	LOS_CurTaskIDGet
 1668              		.syntax unified
 1669              		.thumb
 1670              		.thumb_func
 1671              		.fpu fpv4-sp-d16
 1673              	LOS_CurTaskIDGet:
 1674              	.LFB140:
 609:C:/Users/dtjld/Desktop/AIoT_software/LiteOS_Lab_overseas/LiteOS_Lab/iot_link/os/liteos/base/core\los_task.c **** 
 610:C:/Users/dtjld/Desktop/AIoT_software/LiteOS_Lab_overseas/LiteOS_Lab/iot_link/os/liteos/base/core\los_task.c **** /*****************************************************************************
 611:C:/Users/dtjld/Desktop/AIoT_software/LiteOS_Lab_overseas/LiteOS_Lab/iot_link/os/liteos/base/core\los_task.c ****  Function : LOS_CurTaskIDGet
 612:C:/Users/dtjld/Desktop/AIoT_software/LiteOS_Lab_overseas/LiteOS_Lab/iot_link/os/liteos/base/core\los_task.c ****  Description : get id of current running task.
 613:C:/Users/dtjld/Desktop/AIoT_software/LiteOS_Lab_overseas/LiteOS_Lab/iot_link/os/liteos/base/core\los_task.c ****  Input       : None
 614:C:/Users/dtjld/Desktop/AIoT_software/LiteOS_Lab_overseas/LiteOS_Lab/iot_link/os/liteos/base/core\los_task.c ****  Output      : None
 615:C:/Users/dtjld/Desktop/AIoT_software/LiteOS_Lab_overseas/LiteOS_Lab/iot_link/os/liteos/base/core\los_task.c ****  Return      : task id
 616:C:/Users/dtjld/Desktop/AIoT_software/LiteOS_Lab_overseas/LiteOS_Lab/iot_link/os/liteos/base/core\los_task.c ****  *****************************************************************************/
 617:C:/Users/dtjld/Desktop/AIoT_software/LiteOS_Lab_overseas/LiteOS_Lab/iot_link/os/liteos/base/core\los_task.c **** LITE_OS_SEC_TEXT UINT32 LOS_CurTaskIDGet(VOID)
 618:C:/Users/dtjld/Desktop/AIoT_software/LiteOS_Lab_overseas/LiteOS_Lab/iot_link/os/liteos/base/core\los_task.c **** {
 1675              		.loc 2 618 0
 1676              		.cfi_startproc
 1677              		@ args = 0, pretend = 0, frame = 0
 1678              		@ frame_needed = 1, uses_anonymous_args = 0
 1679              		@ link register save eliminated.
 1680 0000 80B4     		push	{r7}
 1681              	.LCFI77:
 1682              		.cfi_def_cfa_offset 4
 1683              		.cfi_offset 7, -4
 1684 0002 00AF     		add	r7, sp, #0
 1685              	.LCFI78:
 1686              		.cfi_def_cfa_register 7
 619:C:/Users/dtjld/Desktop/AIoT_software/LiteOS_Lab_overseas/LiteOS_Lab/iot_link/os/liteos/base/core\los_task.c ****     if (NULL == g_stLosTask.pstRunTask)
 1687              		.loc 2 619 0
 1688 0004 064B     		ldr	r3, .L96
 1689 0006 1B68     		ldr	r3, [r3]
 1690 0008 002B     		cmp	r3, #0
 1691 000a 01D1     		bne	.L94
 620:C:/Users/dtjld/Desktop/AIoT_software/LiteOS_Lab_overseas/LiteOS_Lab/iot_link/os/liteos/base/core\los_task.c ****     {
 621:C:/Users/dtjld/Desktop/AIoT_software/LiteOS_Lab_overseas/LiteOS_Lab/iot_link/os/liteos/base/core\los_task.c ****         return LOS_ERRNO_TSK_ID_INVALID;
 1692              		.loc 2 621 0
ARM GAS  C:\Users\dtjld\AppData\Local\Temp\ccU8krAq.s 			page 46


 1693 000c 054B     		ldr	r3, .L96+4
 1694 000e 02E0     		b	.L95
 1695              	.L94:
 622:C:/Users/dtjld/Desktop/AIoT_software/LiteOS_Lab_overseas/LiteOS_Lab/iot_link/os/liteos/base/core\los_task.c ****     }
 623:C:/Users/dtjld/Desktop/AIoT_software/LiteOS_Lab_overseas/LiteOS_Lab/iot_link/os/liteos/base/core\los_task.c ****     return g_stLosTask.pstRunTask->uwTaskID;
 1696              		.loc 2 623 0
 1697 0010 034B     		ldr	r3, .L96
 1698 0012 1B68     		ldr	r3, [r3]
 1699 0014 1B69     		ldr	r3, [r3, #16]
 1700              	.L95:
 624:C:/Users/dtjld/Desktop/AIoT_software/LiteOS_Lab_overseas/LiteOS_Lab/iot_link/os/liteos/base/core\los_task.c **** }
 1701              		.loc 2 624 0
 1702 0016 1846     		mov	r0, r3
 1703 0018 BD46     		mov	sp, r7
 1704              	.LCFI79:
 1705              		.cfi_def_cfa_register 13
 1706              		@ sp needed
 1707 001a 5DF8047B 		ldr	r7, [sp], #4
 1708              	.LCFI80:
 1709              		.cfi_restore 7
 1710              		.cfi_def_cfa_offset 0
 1711 001e 7047     		bx	lr
 1712              	.L97:
 1713              		.align	2
 1714              	.L96:
 1715 0020 00000000 		.word	g_stLosTask
 1716 0024 07020002 		.word	33554951
 1717              		.cfi_endproc
 1718              	.LFE140:
 1720              		.section	.text.LOS_NextTaskIDGet,"ax",%progbits
 1721              		.align	1
 1722              		.global	LOS_NextTaskIDGet
 1723              		.syntax unified
 1724              		.thumb
 1725              		.thumb_func
 1726              		.fpu fpv4-sp-d16
 1728              	LOS_NextTaskIDGet:
 1729              	.LFB141:
 625:C:/Users/dtjld/Desktop/AIoT_software/LiteOS_Lab_overseas/LiteOS_Lab/iot_link/os/liteos/base/core\los_task.c **** 
 626:C:/Users/dtjld/Desktop/AIoT_software/LiteOS_Lab_overseas/LiteOS_Lab/iot_link/os/liteos/base/core\los_task.c **** /*****************************************************************************
 627:C:/Users/dtjld/Desktop/AIoT_software/LiteOS_Lab_overseas/LiteOS_Lab/iot_link/os/liteos/base/core\los_task.c ****  Function : LOS_NextTaskIDGet
 628:C:/Users/dtjld/Desktop/AIoT_software/LiteOS_Lab_overseas/LiteOS_Lab/iot_link/os/liteos/base/core\los_task.c ****  Description : get id of next running task.
 629:C:/Users/dtjld/Desktop/AIoT_software/LiteOS_Lab_overseas/LiteOS_Lab/iot_link/os/liteos/base/core\los_task.c ****  Input       : None
 630:C:/Users/dtjld/Desktop/AIoT_software/LiteOS_Lab_overseas/LiteOS_Lab/iot_link/os/liteos/base/core\los_task.c ****  Output      : None
 631:C:/Users/dtjld/Desktop/AIoT_software/LiteOS_Lab_overseas/LiteOS_Lab/iot_link/os/liteos/base/core\los_task.c ****  Return      : task id
 632:C:/Users/dtjld/Desktop/AIoT_software/LiteOS_Lab_overseas/LiteOS_Lab/iot_link/os/liteos/base/core\los_task.c ****  *****************************************************************************/
 633:C:/Users/dtjld/Desktop/AIoT_software/LiteOS_Lab_overseas/LiteOS_Lab/iot_link/os/liteos/base/core\los_task.c **** LITE_OS_SEC_TEXT UINT32 LOS_NextTaskIDGet(VOID)
 634:C:/Users/dtjld/Desktop/AIoT_software/LiteOS_Lab_overseas/LiteOS_Lab/iot_link/os/liteos/base/core\los_task.c **** {
 1730              		.loc 2 634 0
 1731              		.cfi_startproc
 1732              		@ args = 0, pretend = 0, frame = 0
 1733              		@ frame_needed = 1, uses_anonymous_args = 0
 1734              		@ link register save eliminated.
 1735 0000 80B4     		push	{r7}
 1736              	.LCFI81:
 1737              		.cfi_def_cfa_offset 4
 1738              		.cfi_offset 7, -4
ARM GAS  C:\Users\dtjld\AppData\Local\Temp\ccU8krAq.s 			page 47


 1739 0002 00AF     		add	r7, sp, #0
 1740              	.LCFI82:
 1741              		.cfi_def_cfa_register 7
 635:C:/Users/dtjld/Desktop/AIoT_software/LiteOS_Lab_overseas/LiteOS_Lab/iot_link/os/liteos/base/core\los_task.c ****     if (NULL == g_stLosTask.pstNewTask)
 1742              		.loc 2 635 0
 1743 0004 064B     		ldr	r3, .L101
 1744 0006 5B68     		ldr	r3, [r3, #4]
 1745 0008 002B     		cmp	r3, #0
 1746 000a 01D1     		bne	.L99
 636:C:/Users/dtjld/Desktop/AIoT_software/LiteOS_Lab_overseas/LiteOS_Lab/iot_link/os/liteos/base/core\los_task.c ****     {
 637:C:/Users/dtjld/Desktop/AIoT_software/LiteOS_Lab_overseas/LiteOS_Lab/iot_link/os/liteos/base/core\los_task.c ****         return LOS_ERRNO_TSK_ID_INVALID;
 1747              		.loc 2 637 0
 1748 000c 054B     		ldr	r3, .L101+4
 1749 000e 02E0     		b	.L100
 1750              	.L99:
 638:C:/Users/dtjld/Desktop/AIoT_software/LiteOS_Lab_overseas/LiteOS_Lab/iot_link/os/liteos/base/core\los_task.c ****     }
 639:C:/Users/dtjld/Desktop/AIoT_software/LiteOS_Lab_overseas/LiteOS_Lab/iot_link/os/liteos/base/core\los_task.c ****     return g_stLosTask.pstNewTask->uwTaskID;
 1751              		.loc 2 639 0
 1752 0010 034B     		ldr	r3, .L101
 1753 0012 5B68     		ldr	r3, [r3, #4]
 1754 0014 1B69     		ldr	r3, [r3, #16]
 1755              	.L100:
 640:C:/Users/dtjld/Desktop/AIoT_software/LiteOS_Lab_overseas/LiteOS_Lab/iot_link/os/liteos/base/core\los_task.c **** }
 1756              		.loc 2 640 0
 1757 0016 1846     		mov	r0, r3
 1758 0018 BD46     		mov	sp, r7
 1759              	.LCFI83:
 1760              		.cfi_def_cfa_register 13
 1761              		@ sp needed
 1762 001a 5DF8047B 		ldr	r7, [sp], #4
 1763              	.LCFI84:
 1764              		.cfi_restore 7
 1765              		.cfi_def_cfa_offset 0
 1766 001e 7047     		bx	lr
 1767              	.L102:
 1768              		.align	2
 1769              	.L101:
 1770 0020 00000000 		.word	g_stLosTask
 1771 0024 07020002 		.word	33554951
 1772              		.cfi_endproc
 1773              	.LFE141:
 1775              		.section	.text.LOS_CurTaskNameGet,"ax",%progbits
 1776              		.align	1
 1777              		.global	LOS_CurTaskNameGet
 1778              		.syntax unified
 1779              		.thumb
 1780              		.thumb_func
 1781              		.fpu fpv4-sp-d16
 1783              	LOS_CurTaskNameGet:
 1784              	.LFB142:
 641:C:/Users/dtjld/Desktop/AIoT_software/LiteOS_Lab_overseas/LiteOS_Lab/iot_link/os/liteos/base/core\los_task.c **** 
 642:C:/Users/dtjld/Desktop/AIoT_software/LiteOS_Lab_overseas/LiteOS_Lab/iot_link/os/liteos/base/core\los_task.c **** /*****************************************************************************
 643:C:/Users/dtjld/Desktop/AIoT_software/LiteOS_Lab_overseas/LiteOS_Lab/iot_link/os/liteos/base/core\los_task.c ****  Function : LOS_CurTaskNameGet
 644:C:/Users/dtjld/Desktop/AIoT_software/LiteOS_Lab_overseas/LiteOS_Lab/iot_link/os/liteos/base/core\los_task.c ****  Description : get name of current running task.
 645:C:/Users/dtjld/Desktop/AIoT_software/LiteOS_Lab_overseas/LiteOS_Lab/iot_link/os/liteos/base/core\los_task.c ****  Input       : None
 646:C:/Users/dtjld/Desktop/AIoT_software/LiteOS_Lab_overseas/LiteOS_Lab/iot_link/os/liteos/base/core\los_task.c ****  Output      : None
 647:C:/Users/dtjld/Desktop/AIoT_software/LiteOS_Lab_overseas/LiteOS_Lab/iot_link/os/liteos/base/core\los_task.c ****  Return      : task name
ARM GAS  C:\Users\dtjld\AppData\Local\Temp\ccU8krAq.s 			page 48


 648:C:/Users/dtjld/Desktop/AIoT_software/LiteOS_Lab_overseas/LiteOS_Lab/iot_link/os/liteos/base/core\los_task.c ****  *****************************************************************************/
 649:C:/Users/dtjld/Desktop/AIoT_software/LiteOS_Lab_overseas/LiteOS_Lab/iot_link/os/liteos/base/core\los_task.c **** LITE_OS_SEC_TEXT CHAR *LOS_CurTaskNameGet(VOID)
 650:C:/Users/dtjld/Desktop/AIoT_software/LiteOS_Lab_overseas/LiteOS_Lab/iot_link/os/liteos/base/core\los_task.c **** {
 1785              		.loc 2 650 0
 1786              		.cfi_startproc
 1787              		@ args = 0, pretend = 0, frame = 8
 1788              		@ frame_needed = 1, uses_anonymous_args = 0
 1789              		@ link register save eliminated.
 1790 0000 80B4     		push	{r7}
 1791              	.LCFI85:
 1792              		.cfi_def_cfa_offset 4
 1793              		.cfi_offset 7, -4
 1794 0002 83B0     		sub	sp, sp, #12
 1795              	.LCFI86:
 1796              		.cfi_def_cfa_offset 16
 1797 0004 00AF     		add	r7, sp, #0
 1798              	.LCFI87:
 1799              		.cfi_def_cfa_register 7
 651:C:/Users/dtjld/Desktop/AIoT_software/LiteOS_Lab_overseas/LiteOS_Lab/iot_link/os/liteos/base/core\los_task.c ****     CHAR *pcTaskName = NULL;
 1800              		.loc 2 651 0
 1801 0006 0023     		movs	r3, #0
 1802 0008 7B60     		str	r3, [r7, #4]
 652:C:/Users/dtjld/Desktop/AIoT_software/LiteOS_Lab_overseas/LiteOS_Lab/iot_link/os/liteos/base/core\los_task.c **** 
 653:C:/Users/dtjld/Desktop/AIoT_software/LiteOS_Lab_overseas/LiteOS_Lab/iot_link/os/liteos/base/core\los_task.c ****     if (NULL != g_stLosTask.pstRunTask)
 1803              		.loc 2 653 0
 1804 000a 074B     		ldr	r3, .L106
 1805 000c 1B68     		ldr	r3, [r3]
 1806 000e 002B     		cmp	r3, #0
 1807 0010 03D0     		beq	.L104
 654:C:/Users/dtjld/Desktop/AIoT_software/LiteOS_Lab_overseas/LiteOS_Lab/iot_link/os/liteos/base/core\los_task.c ****     {
 655:C:/Users/dtjld/Desktop/AIoT_software/LiteOS_Lab_overseas/LiteOS_Lab/iot_link/os/liteos/base/core\los_task.c ****         pcTaskName = g_stLosTask.pstRunTask->pcTaskName;
 1808              		.loc 2 655 0
 1809 0012 054B     		ldr	r3, .L106
 1810 0014 1B68     		ldr	r3, [r3]
 1811 0016 5B6A     		ldr	r3, [r3, #36]
 1812 0018 7B60     		str	r3, [r7, #4]
 1813              	.L104:
 656:C:/Users/dtjld/Desktop/AIoT_software/LiteOS_Lab_overseas/LiteOS_Lab/iot_link/os/liteos/base/core\los_task.c ****     }
 657:C:/Users/dtjld/Desktop/AIoT_software/LiteOS_Lab_overseas/LiteOS_Lab/iot_link/os/liteos/base/core\los_task.c **** 
 658:C:/Users/dtjld/Desktop/AIoT_software/LiteOS_Lab_overseas/LiteOS_Lab/iot_link/os/liteos/base/core\los_task.c ****     return pcTaskName;
 1814              		.loc 2 658 0
 1815 001a 7B68     		ldr	r3, [r7, #4]
 659:C:/Users/dtjld/Desktop/AIoT_software/LiteOS_Lab_overseas/LiteOS_Lab/iot_link/os/liteos/base/core\los_task.c **** }
 1816              		.loc 2 659 0
 1817 001c 1846     		mov	r0, r3
 1818 001e 0C37     		adds	r7, r7, #12
 1819              	.LCFI88:
 1820              		.cfi_def_cfa_offset 4
 1821 0020 BD46     		mov	sp, r7
 1822              	.LCFI89:
 1823              		.cfi_def_cfa_register 13
 1824              		@ sp needed
 1825 0022 5DF8047B 		ldr	r7, [sp], #4
 1826              	.LCFI90:
 1827              		.cfi_restore 7
 1828              		.cfi_def_cfa_offset 0
 1829 0026 7047     		bx	lr
ARM GAS  C:\Users\dtjld\AppData\Local\Temp\ccU8krAq.s 			page 49


 1830              	.L107:
 1831              		.align	2
 1832              	.L106:
 1833 0028 00000000 		.word	g_stLosTask
 1834              		.cfi_endproc
 1835              	.LFE142:
 1837              		.section	.rodata
 1838              		.align	2
 1839              	.LC18:
 1840 01cc 43555252 		.ascii	"CURRENT task ID: %s:%d stack overflow!\012\000"
 1840      454E5420 
 1840      7461736B 
 1840      2049443A 
 1840      2025733A 
 1841              		.align	2
 1842              	.LC19:
 1843 01f4 48494748 		.ascii	"HIGHEST task ID: %s:%d SP error!\012\000"
 1843      45535420 
 1843      7461736B 
 1843      2049443A 
 1843      2025733A 
 1844 0216 0000     		.align	2
 1845              	.LC20:
 1846 0218 48494748 		.ascii	"HIGHEST task StackPointer: 0x%x TopOfStack: 0x%x\012"
 1846      45535420 
 1846      7461736B 
 1846      20537461 
 1846      636B506F 
 1847 0249 00       		.ascii	"\000"
 1848              		.section	.text.osTaskSwitchCheck,"ax",%progbits
 1849              		.align	1
 1850              		.global	osTaskSwitchCheck
 1851              		.syntax unified
 1852              		.thumb
 1853              		.thumb_func
 1854              		.fpu fpv4-sp-d16
 1856              	osTaskSwitchCheck:
 1857              	.LFB143:
 660:C:/Users/dtjld/Desktop/AIoT_software/LiteOS_Lab_overseas/LiteOS_Lab/iot_link/os/liteos/base/core\los_task.c **** 
 661:C:/Users/dtjld/Desktop/AIoT_software/LiteOS_Lab_overseas/LiteOS_Lab/iot_link/os/liteos/base/core\los_task.c **** /*****************************************************************************
 662:C:/Users/dtjld/Desktop/AIoT_software/LiteOS_Lab_overseas/LiteOS_Lab/iot_link/os/liteos/base/core\los_task.c ****  Function : osTaskSwitchCheck
 663:C:/Users/dtjld/Desktop/AIoT_software/LiteOS_Lab_overseas/LiteOS_Lab/iot_link/os/liteos/base/core\los_task.c ****  Description : Check task switch
 664:C:/Users/dtjld/Desktop/AIoT_software/LiteOS_Lab_overseas/LiteOS_Lab/iot_link/os/liteos/base/core\los_task.c ****  Input       : Node
 665:C:/Users/dtjld/Desktop/AIoT_software/LiteOS_Lab_overseas/LiteOS_Lab/iot_link/os/liteos/base/core\los_task.c ****  Output      : None
 666:C:/Users/dtjld/Desktop/AIoT_software/LiteOS_Lab_overseas/LiteOS_Lab/iot_link/os/liteos/base/core\los_task.c ****  Return      : None
 667:C:/Users/dtjld/Desktop/AIoT_software/LiteOS_Lab_overseas/LiteOS_Lab/iot_link/os/liteos/base/core\los_task.c ****  *****************************************************************************/
 668:C:/Users/dtjld/Desktop/AIoT_software/LiteOS_Lab_overseas/LiteOS_Lab/iot_link/os/liteos/base/core\los_task.c **** #if (LOSCFG_BASE_CORE_TSK_MONITOR == YES)
 669:C:/Users/dtjld/Desktop/AIoT_software/LiteOS_Lab_overseas/LiteOS_Lab/iot_link/os/liteos/base/core\los_task.c **** LITE_OS_SEC_TEXT VOID osTaskSwitchCheck(VOID)
 670:C:/Users/dtjld/Desktop/AIoT_software/LiteOS_Lab_overseas/LiteOS_Lab/iot_link/os/liteos/base/core\los_task.c **** {
 1858              		.loc 2 670 0
 1859              		.cfi_startproc
 1860              		@ args = 0, pretend = 0, frame = 0
 1861              		@ frame_needed = 1, uses_anonymous_args = 0
 1862 0000 80B5     		push	{r7, lr}
 1863              	.LCFI91:
 1864              		.cfi_def_cfa_offset 8
 1865              		.cfi_offset 7, -8
ARM GAS  C:\Users\dtjld\AppData\Local\Temp\ccU8krAq.s 			page 50


 1866              		.cfi_offset 14, -4
 1867 0002 00AF     		add	r7, sp, #0
 1868              	.LCFI92:
 1869              		.cfi_def_cfa_register 7
 671:C:/Users/dtjld/Desktop/AIoT_software/LiteOS_Lab_overseas/LiteOS_Lab/iot_link/os/liteos/base/core\los_task.c ****     if ((*(UINT32 *)(g_stLosTask.pstRunTask->uwTopOfStack)) != OS_TASK_MAGIC_WORD)
 1870              		.loc 2 671 0
 1871 0004 414B     		ldr	r3, .L115
 1872 0006 1B68     		ldr	r3, [r3]
 1873 0008 DB68     		ldr	r3, [r3, #12]
 1874 000a 1B68     		ldr	r3, [r3]
 1875 000c B3F1CC3F 		cmp	r3, #-858993460
 1876 0010 0CD0     		beq	.L109
 1877              	.LBB3:
 672:C:/Users/dtjld/Desktop/AIoT_software/LiteOS_Lab_overseas/LiteOS_Lab/iot_link/os/liteos/base/core\los_task.c ****     {
 673:C:/Users/dtjld/Desktop/AIoT_software/LiteOS_Lab_overseas/LiteOS_Lab/iot_link/os/liteos/base/core\los_task.c ****         PRINT_ERR("CURRENT task ID: %s:%d stack overflow!\n", g_stLosTask.pstRunTask->pcTaskName, g
 1878              		.loc 2 673 0
 1879 0012 3F48     		ldr	r0, .L115+4
 1880 0014 FFF7FEFF 		bl	printf
 1881 0018 3C4B     		ldr	r3, .L115
 1882 001a 1B68     		ldr	r3, [r3]
 1883 001c 596A     		ldr	r1, [r3, #36]
 1884 001e 3B4B     		ldr	r3, .L115
 1885 0020 1B68     		ldr	r3, [r3]
 1886 0022 1B69     		ldr	r3, [r3, #16]
 1887 0024 1A46     		mov	r2, r3
 1888 0026 3B48     		ldr	r0, .L115+8
 1889 0028 FFF7FEFF 		bl	printf
 1890              	.L109:
 1891              	.LBE3:
 674:C:/Users/dtjld/Desktop/AIoT_software/LiteOS_Lab_overseas/LiteOS_Lab/iot_link/os/liteos/base/core\los_task.c ****     }
 675:C:/Users/dtjld/Desktop/AIoT_software/LiteOS_Lab_overseas/LiteOS_Lab/iot_link/os/liteos/base/core\los_task.c ****     if (((UINT32)(g_stLosTask.pstNewTask->pStackPointer) <= g_stLosTask.pstNewTask->uwTopOfStack) |
 1892              		.loc 2 675 0
 1893 002c 374B     		ldr	r3, .L115
 1894 002e 5B68     		ldr	r3, [r3, #4]
 1895 0030 1B68     		ldr	r3, [r3]
 1896 0032 1A46     		mov	r2, r3
 1897 0034 354B     		ldr	r3, .L115
 1898 0036 5B68     		ldr	r3, [r3, #4]
 1899 0038 DB68     		ldr	r3, [r3, #12]
 1900 003a 9A42     		cmp	r2, r3
 1901 003c 0CD9     		bls	.L110
 676:C:/Users/dtjld/Desktop/AIoT_software/LiteOS_Lab_overseas/LiteOS_Lab/iot_link/os/liteos/base/core\los_task.c ****         ((UINT32)(g_stLosTask.pstNewTask->pStackPointer) > g_stLosTask.pstNewTask->uwTopOfStack + g
 1902              		.loc 2 676 0 discriminator 1
 1903 003e 334B     		ldr	r3, .L115
 1904 0040 5B68     		ldr	r3, [r3, #4]
 1905 0042 1B68     		ldr	r3, [r3]
 1906 0044 1946     		mov	r1, r3
 1907 0046 314B     		ldr	r3, .L115
 1908 0048 5B68     		ldr	r3, [r3, #4]
 1909 004a DA68     		ldr	r2, [r3, #12]
 1910 004c 2F4B     		ldr	r3, .L115
 1911 004e 5B68     		ldr	r3, [r3, #4]
 1912 0050 9B68     		ldr	r3, [r3, #8]
 1913 0052 1344     		add	r3, r3, r2
 675:C:/Users/dtjld/Desktop/AIoT_software/LiteOS_Lab_overseas/LiteOS_Lab/iot_link/os/liteos/base/core\los_task.c ****         ((UINT32)(g_stLosTask.pstNewTask->pStackPointer) > g_stLosTask.pstNewTask->uwTopOfStack + g
 1914              		.loc 2 675 0 discriminator 1
 1915 0054 9942     		cmp	r1, r3
ARM GAS  C:\Users\dtjld\AppData\Local\Temp\ccU8krAq.s 			page 51


 1916 0056 1AD9     		bls	.L111
 1917              	.L110:
 1918              	.LBB4:
 677:C:/Users/dtjld/Desktop/AIoT_software/LiteOS_Lab_overseas/LiteOS_Lab/iot_link/os/liteos/base/core\los_task.c ****     {
 678:C:/Users/dtjld/Desktop/AIoT_software/LiteOS_Lab_overseas/LiteOS_Lab/iot_link/os/liteos/base/core\los_task.c ****         PRINT_ERR("HIGHEST task ID: %s:%d SP error!\n", g_stLosTask.pstNewTask->pcTaskName, g_stLos
 1919              		.loc 2 678 0
 1920 0058 2D48     		ldr	r0, .L115+4
 1921 005a FFF7FEFF 		bl	printf
 1922 005e 2B4B     		ldr	r3, .L115
 1923 0060 5B68     		ldr	r3, [r3, #4]
 1924 0062 596A     		ldr	r1, [r3, #36]
 1925 0064 294B     		ldr	r3, .L115
 1926 0066 5B68     		ldr	r3, [r3, #4]
 1927 0068 1B69     		ldr	r3, [r3, #16]
 1928 006a 1A46     		mov	r2, r3
 1929 006c 2A48     		ldr	r0, .L115+12
 1930 006e FFF7FEFF 		bl	printf
 1931              	.LBE4:
 1932              	.LBB5:
 679:C:/Users/dtjld/Desktop/AIoT_software/LiteOS_Lab_overseas/LiteOS_Lab/iot_link/os/liteos/base/core\los_task.c ****         PRINT_ERR("HIGHEST task StackPointer: 0x%x TopOfStack: 0x%x\n", (UINT32)(g_stLosTask.pstNew
 1933              		.loc 2 679 0
 1934 0072 2748     		ldr	r0, .L115+4
 1935 0074 FFF7FEFF 		bl	printf
 1936 0078 244B     		ldr	r3, .L115
 1937 007a 5B68     		ldr	r3, [r3, #4]
 1938 007c 1B68     		ldr	r3, [r3]
 1939 007e 1946     		mov	r1, r3
 1940 0080 224B     		ldr	r3, .L115
 1941 0082 5B68     		ldr	r3, [r3, #4]
 1942 0084 DB68     		ldr	r3, [r3, #12]
 1943 0086 1A46     		mov	r2, r3
 1944 0088 2448     		ldr	r0, .L115+16
 1945 008a FFF7FEFF 		bl	printf
 1946              	.L111:
 1947              	.LBE5:
 680:C:/Users/dtjld/Desktop/AIoT_software/LiteOS_Lab_overseas/LiteOS_Lab/iot_link/os/liteos/base/core\los_task.c ****     }
 681:C:/Users/dtjld/Desktop/AIoT_software/LiteOS_Lab_overseas/LiteOS_Lab/iot_link/os/liteos/base/core\los_task.c **** 
 682:C:/Users/dtjld/Desktop/AIoT_software/LiteOS_Lab_overseas/LiteOS_Lab/iot_link/os/liteos/base/core\los_task.c **** #if (LOSCFG_BASE_CORE_EXC_TSK_SWITCH == YES)
 683:C:/Users/dtjld/Desktop/AIoT_software/LiteOS_Lab_overseas/LiteOS_Lab/iot_link/os/liteos/base/core\los_task.c ****     /* record task switch info */
 684:C:/Users/dtjld/Desktop/AIoT_software/LiteOS_Lab_overseas/LiteOS_Lab/iot_link/os/liteos/base/core\los_task.c ****     g_astTskSwitchInfo.auwPID[g_astTskSwitchInfo.ucIdx] = (UINT16)(g_stLosTask.pstNewTask->uwTaskID
 1948              		.loc 2 684 0
 1949 008e 1F4B     		ldr	r3, .L115
 1950 0090 5B68     		ldr	r3, [r3, #4]
 1951 0092 1A69     		ldr	r2, [r3, #16]
 1952 0094 224B     		ldr	r3, .L115+20
 1953 0096 1B78     		ldrb	r3, [r3]	@ zero_extendqisi2
 1954 0098 91B2     		uxth	r1, r2
 1955 009a 214A     		ldr	r2, .L115+20
 1956 009c 5B00     		lsls	r3, r3, #1
 1957 009e 1344     		add	r3, r3, r2
 1958 00a0 0A46     		mov	r2, r1	@ movhi
 1959 00a2 5A80     		strh	r2, [r3, #2]	@ movhi
 685:C:/Users/dtjld/Desktop/AIoT_software/LiteOS_Lab_overseas/LiteOS_Lab/iot_link/os/liteos/base/core\los_task.c ****     memcpy(g_astTskSwitchInfo.acName[g_astTskSwitchInfo.ucIdx], g_stLosTask.pstNewTask->pcTaskName,
 1960              		.loc 2 685 0
 1961 00a4 1E4B     		ldr	r3, .L115+20
 1962 00a6 1B78     		ldrb	r3, [r3]	@ zero_extendqisi2
 1963 00a8 5B01     		lsls	r3, r3, #5
ARM GAS  C:\Users\dtjld\AppData\Local\Temp\ccU8krAq.s 			page 52


 1964 00aa 1033     		adds	r3, r3, #16
 1965 00ac 1C4A     		ldr	r2, .L115+20
 1966 00ae 1344     		add	r3, r3, r2
 1967 00b0 981D     		adds	r0, r3, #6
 1968 00b2 164B     		ldr	r3, .L115
 1969 00b4 5B68     		ldr	r3, [r3, #4]
 1970 00b6 5B6A     		ldr	r3, [r3, #36]
 1971 00b8 2022     		movs	r2, #32
 1972 00ba 1946     		mov	r1, r3
 1973 00bc FFF7FEFF 		bl	memcpy
 686:C:/Users/dtjld/Desktop/AIoT_software/LiteOS_Lab_overseas/LiteOS_Lab/iot_link/os/liteos/base/core\los_task.c ****     g_astTskSwitchInfo.acName[g_astTskSwitchInfo.ucIdx][LOS_TASK_NAMELEN -1] = '\0';
 1974              		.loc 2 686 0
 1975 00c0 174B     		ldr	r3, .L115+20
 1976 00c2 1B78     		ldrb	r3, [r3]	@ zero_extendqisi2
 1977 00c4 164A     		ldr	r2, .L115+20
 1978 00c6 5B01     		lsls	r3, r3, #5
 1979 00c8 1344     		add	r3, r3, r2
 1980 00ca 3533     		adds	r3, r3, #53
 1981 00cc 0022     		movs	r2, #0
 1982 00ce 1A70     		strb	r2, [r3]
 687:C:/Users/dtjld/Desktop/AIoT_software/LiteOS_Lab_overseas/LiteOS_Lab/iot_link/os/liteos/base/core\los_task.c **** 
 688:C:/Users/dtjld/Desktop/AIoT_software/LiteOS_Lab_overseas/LiteOS_Lab/iot_link/os/liteos/base/core\los_task.c ****     if (++g_astTskSwitchInfo.ucIdx == OS_TASK_SWITCH_INFO_COUNT)
 1983              		.loc 2 688 0
 1984 00d0 134B     		ldr	r3, .L115+20
 1985 00d2 1B78     		ldrb	r3, [r3]	@ zero_extendqisi2
 1986 00d4 0133     		adds	r3, r3, #1
 1987 00d6 DAB2     		uxtb	r2, r3
 1988 00d8 114B     		ldr	r3, .L115+20
 1989 00da 1A70     		strb	r2, [r3]
 1990 00dc 104B     		ldr	r3, .L115+20
 1991 00de 1B78     		ldrb	r3, [r3]	@ zero_extendqisi2
 1992 00e0 0A2B     		cmp	r3, #10
 1993 00e2 09D1     		bne	.L112
 689:C:/Users/dtjld/Desktop/AIoT_software/LiteOS_Lab_overseas/LiteOS_Lab/iot_link/os/liteos/base/core\los_task.c ****     {
 690:C:/Users/dtjld/Desktop/AIoT_software/LiteOS_Lab_overseas/LiteOS_Lab/iot_link/os/liteos/base/core\los_task.c ****         g_astTskSwitchInfo.ucIdx = 0;
 1994              		.loc 2 690 0
 1995 00e4 0E4B     		ldr	r3, .L115+20
 1996 00e6 0022     		movs	r2, #0
 1997 00e8 1A70     		strb	r2, [r3]
 691:C:/Users/dtjld/Desktop/AIoT_software/LiteOS_Lab_overseas/LiteOS_Lab/iot_link/os/liteos/base/core\los_task.c ****         g_astTskSwitchInfo.ucIsFull |= 0x80;
 1998              		.loc 2 691 0
 1999 00ea 0D4B     		ldr	r3, .L115+20
 2000 00ec 5B78     		ldrb	r3, [r3, #1]	@ zero_extendqisi2
 2001 00ee 63F07F03 		orn	r3, r3, #127
 2002 00f2 DAB2     		uxtb	r2, r3
 2003 00f4 0A4B     		ldr	r3, .L115+20
 2004 00f6 5A70     		strb	r2, [r3, #1]
 2005              	.L112:
 692:C:/Users/dtjld/Desktop/AIoT_software/LiteOS_Lab_overseas/LiteOS_Lab/iot_link/os/liteos/base/core\los_task.c ****     }
 693:C:/Users/dtjld/Desktop/AIoT_software/LiteOS_Lab_overseas/LiteOS_Lab/iot_link/os/liteos/base/core\los_task.c **** #endif
 694:C:/Users/dtjld/Desktop/AIoT_software/LiteOS_Lab_overseas/LiteOS_Lab/iot_link/os/liteos/base/core\los_task.c **** 
 695:C:/Users/dtjld/Desktop/AIoT_software/LiteOS_Lab_overseas/LiteOS_Lab/iot_link/os/liteos/base/core\los_task.c ****     if (g_pfnUsrTskSwitchHook != NULL)
 2006              		.loc 2 695 0
 2007 00f8 0A4B     		ldr	r3, .L115+24
 2008 00fa 1B68     		ldr	r3, [r3]
 2009 00fc 002B     		cmp	r3, #0
 2010 00fe 02D0     		beq	.L114
ARM GAS  C:\Users\dtjld\AppData\Local\Temp\ccU8krAq.s 			page 53


 696:C:/Users/dtjld/Desktop/AIoT_software/LiteOS_Lab_overseas/LiteOS_Lab/iot_link/os/liteos/base/core\los_task.c ****     {
 697:C:/Users/dtjld/Desktop/AIoT_software/LiteOS_Lab_overseas/LiteOS_Lab/iot_link/os/liteos/base/core\los_task.c ****         g_pfnUsrTskSwitchHook();
 2011              		.loc 2 697 0
 2012 0100 084B     		ldr	r3, .L115+24
 2013 0102 1B68     		ldr	r3, [r3]
 2014 0104 9847     		blx	r3
 2015              	.LVL0:
 2016              	.L114:
 698:C:/Users/dtjld/Desktop/AIoT_software/LiteOS_Lab_overseas/LiteOS_Lab/iot_link/os/liteos/base/core\los_task.c ****     }
 699:C:/Users/dtjld/Desktop/AIoT_software/LiteOS_Lab_overseas/LiteOS_Lab/iot_link/os/liteos/base/core\los_task.c **** 
 700:C:/Users/dtjld/Desktop/AIoT_software/LiteOS_Lab_overseas/LiteOS_Lab/iot_link/os/liteos/base/core\los_task.c **** #if (LOSCFG_BASE_CORE_CPUP == YES)
 701:C:/Users/dtjld/Desktop/AIoT_software/LiteOS_Lab_overseas/LiteOS_Lab/iot_link/os/liteos/base/core\los_task.c ****     osTskCycleEndStart();
 702:C:/Users/dtjld/Desktop/AIoT_software/LiteOS_Lab_overseas/LiteOS_Lab/iot_link/os/liteos/base/core\los_task.c **** #endif /* LOSCFG_BASE_CORE_CPUP */
 703:C:/Users/dtjld/Desktop/AIoT_software/LiteOS_Lab_overseas/LiteOS_Lab/iot_link/os/liteos/base/core\los_task.c **** }
 2017              		.loc 2 703 0
 2018 0106 00BF     		nop
 2019 0108 80BD     		pop	{r7, pc}
 2020              	.L116:
 2021 010a 00BF     		.align	2
 2022              	.L115:
 2023 010c 00000000 		.word	g_stLosTask
 2024 0110 60000000 		.word	.LC9
 2025 0114 CC010000 		.word	.LC18
 2026 0118 F4010000 		.word	.LC19
 2027 011c 18020000 		.word	.LC20
 2028 0120 00000000 		.word	g_astTskSwitchInfo
 2029 0124 00000000 		.word	g_pfnUsrTskSwitchHook
 2030              		.cfi_endproc
 2031              	.LFE143:
 2033              		.section	.text.osTaskMonInit,"ax",%progbits
 2034              		.align	1
 2035              		.global	osTaskMonInit
 2036              		.syntax unified
 2037              		.thumb
 2038              		.thumb_func
 2039              		.fpu fpv4-sp-d16
 2041              	osTaskMonInit:
 2042              	.LFB144:
 704:C:/Users/dtjld/Desktop/AIoT_software/LiteOS_Lab_overseas/LiteOS_Lab/iot_link/os/liteos/base/core\los_task.c **** 
 705:C:/Users/dtjld/Desktop/AIoT_software/LiteOS_Lab_overseas/LiteOS_Lab/iot_link/os/liteos/base/core\los_task.c **** LITE_OS_SEC_TEXT_MINOR VOID osTaskMonInit(VOID)
 706:C:/Users/dtjld/Desktop/AIoT_software/LiteOS_Lab_overseas/LiteOS_Lab/iot_link/os/liteos/base/core\los_task.c **** {
 2043              		.loc 2 706 0
 2044              		.cfi_startproc
 2045              		@ args = 0, pretend = 0, frame = 0
 2046              		@ frame_needed = 1, uses_anonymous_args = 0
 2047 0000 80B5     		push	{r7, lr}
 2048              	.LCFI93:
 2049              		.cfi_def_cfa_offset 8
 2050              		.cfi_offset 7, -8
 2051              		.cfi_offset 14, -4
 2052 0002 00AF     		add	r7, sp, #0
 2053              	.LCFI94:
 2054              		.cfi_def_cfa_register 7
 707:C:/Users/dtjld/Desktop/AIoT_software/LiteOS_Lab_overseas/LiteOS_Lab/iot_link/os/liteos/base/core\los_task.c **** #if (LOSCFG_BASE_CORE_EXC_TSK_SWITCH == YES)
 708:C:/Users/dtjld/Desktop/AIoT_software/LiteOS_Lab_overseas/LiteOS_Lab/iot_link/os/liteos/base/core\los_task.c ****     (VOID)memset(&g_astTskSwitchInfo, 0, sizeof(OS_TASK_SWITCH_INFO));
 2055              		.loc 2 708 0
 2056 0004 4FF4AB72 		mov	r2, #342
ARM GAS  C:\Users\dtjld\AppData\Local\Temp\ccU8krAq.s 			page 54


 2057 0008 0021     		movs	r1, #0
 2058 000a 0748     		ldr	r0, .L119
 2059 000c FFF7FEFF 		bl	memset
 709:C:/Users/dtjld/Desktop/AIoT_software/LiteOS_Lab_overseas/LiteOS_Lab/iot_link/os/liteos/base/core\los_task.c ****     g_astTskSwitchInfo.ucIsFull = 0x7F & OS_TASK_SWITCH_INFO_COUNT;
 2060              		.loc 2 709 0
 2061 0010 054B     		ldr	r3, .L119
 2062 0012 0A22     		movs	r2, #10
 2063 0014 5A70     		strb	r2, [r3, #1]
 710:C:/Users/dtjld/Desktop/AIoT_software/LiteOS_Lab_overseas/LiteOS_Lab/iot_link/os/liteos/base/core\los_task.c **** #if ((LOSCFG_PLATFORM_EXC == YES) && (LOSCFG_SAVE_EXC_INFO == YES))
 711:C:/Users/dtjld/Desktop/AIoT_software/LiteOS_Lab_overseas/LiteOS_Lab/iot_link/os/liteos/base/core\los_task.c ****     osExcRegister((EXC_INFO_TYPE)OS_EXC_TYPE_TSK_SWITCH, (EXC_INFO_SAVE_CALLBACK)LOS_TaskSwitchInfo
 712:C:/Users/dtjld/Desktop/AIoT_software/LiteOS_Lab_overseas/LiteOS_Lab/iot_link/os/liteos/base/core\los_task.c **** #endif
 713:C:/Users/dtjld/Desktop/AIoT_software/LiteOS_Lab_overseas/LiteOS_Lab/iot_link/os/liteos/base/core\los_task.c **** #endif
 714:C:/Users/dtjld/Desktop/AIoT_software/LiteOS_Lab_overseas/LiteOS_Lab/iot_link/os/liteos/base/core\los_task.c ****     g_pfnTskSwitchHook = osTaskSwitchCheck;
 2064              		.loc 2 714 0
 2065 0016 054B     		ldr	r3, .L119+4
 2066 0018 054A     		ldr	r2, .L119+8
 2067 001a 1A60     		str	r2, [r3]
 715:C:/Users/dtjld/Desktop/AIoT_software/LiteOS_Lab_overseas/LiteOS_Lab/iot_link/os/liteos/base/core\los_task.c ****     g_pfnUsrTskSwitchHook = (TSKSWITCHHOOK)NULL; /*lint !e611*/
 2068              		.loc 2 715 0
 2069 001c 054B     		ldr	r3, .L119+12
 2070 001e 0022     		movs	r2, #0
 2071 0020 1A60     		str	r2, [r3]
 716:C:/Users/dtjld/Desktop/AIoT_software/LiteOS_Lab_overseas/LiteOS_Lab/iot_link/os/liteos/base/core\los_task.c ****     return ;
 2072              		.loc 2 716 0
 2073 0022 00BF     		nop
 717:C:/Users/dtjld/Desktop/AIoT_software/LiteOS_Lab_overseas/LiteOS_Lab/iot_link/os/liteos/base/core\los_task.c **** }
 2074              		.loc 2 717 0
 2075 0024 80BD     		pop	{r7, pc}
 2076              	.L120:
 2077 0026 00BF     		.align	2
 2078              	.L119:
 2079 0028 00000000 		.word	g_astTskSwitchInfo
 2080 002c 00000000 		.word	g_pfnTskSwitchHook
 2081 0030 00000000 		.word	osTaskSwitchCheck
 2082 0034 00000000 		.word	g_pfnUsrTskSwitchHook
 2083              		.cfi_endproc
 2084              	.LFE144:
 2086              		.section	.text.osTaskEntry,"ax",%progbits
 2087              		.align	1
 2088              		.global	osTaskEntry
 2089              		.syntax unified
 2090              		.thumb
 2091              		.thumb_func
 2092              		.fpu fpv4-sp-d16
 2094              	osTaskEntry:
 2095              	.LFB145:
 718:C:/Users/dtjld/Desktop/AIoT_software/LiteOS_Lab_overseas/LiteOS_Lab/iot_link/os/liteos/base/core\los_task.c **** #endif
 719:C:/Users/dtjld/Desktop/AIoT_software/LiteOS_Lab_overseas/LiteOS_Lab/iot_link/os/liteos/base/core\los_task.c **** 
 720:C:/Users/dtjld/Desktop/AIoT_software/LiteOS_Lab_overseas/LiteOS_Lab/iot_link/os/liteos/base/core\los_task.c **** /*****************************************************************************
 721:C:/Users/dtjld/Desktop/AIoT_software/LiteOS_Lab_overseas/LiteOS_Lab/iot_link/os/liteos/base/core\los_task.c ****  Function : osTaskEntry
 722:C:/Users/dtjld/Desktop/AIoT_software/LiteOS_Lab_overseas/LiteOS_Lab/iot_link/os/liteos/base/core\los_task.c ****  Description : All task entry
 723:C:/Users/dtjld/Desktop/AIoT_software/LiteOS_Lab_overseas/LiteOS_Lab/iot_link/os/liteos/base/core\los_task.c ****  Input       : uwTaskID     --- The ID of the task to be run
 724:C:/Users/dtjld/Desktop/AIoT_software/LiteOS_Lab_overseas/LiteOS_Lab/iot_link/os/liteos/base/core\los_task.c ****  Output      : None
 725:C:/Users/dtjld/Desktop/AIoT_software/LiteOS_Lab_overseas/LiteOS_Lab/iot_link/os/liteos/base/core\los_task.c ****  Return      : None
 726:C:/Users/dtjld/Desktop/AIoT_software/LiteOS_Lab_overseas/LiteOS_Lab/iot_link/os/liteos/base/core\los_task.c ****  *****************************************************************************/
 727:C:/Users/dtjld/Desktop/AIoT_software/LiteOS_Lab_overseas/LiteOS_Lab/iot_link/os/liteos/base/core\los_task.c **** LITE_OS_SEC_TEXT_INIT VOID osTaskEntry(UINT32 uwTaskID)
 728:C:/Users/dtjld/Desktop/AIoT_software/LiteOS_Lab_overseas/LiteOS_Lab/iot_link/os/liteos/base/core\los_task.c **** {
ARM GAS  C:\Users\dtjld\AppData\Local\Temp\ccU8krAq.s 			page 55


 2096              		.loc 2 728 0
 2097              		.cfi_startproc
 2098              		@ args = 0, pretend = 0, frame = 16
 2099              		@ frame_needed = 1, uses_anonymous_args = 0
 2100 0000 80B5     		push	{r7, lr}
 2101              	.LCFI95:
 2102              		.cfi_def_cfa_offset 8
 2103              		.cfi_offset 7, -8
 2104              		.cfi_offset 14, -4
 2105 0002 84B0     		sub	sp, sp, #16
 2106              	.LCFI96:
 2107              		.cfi_def_cfa_offset 24
 2108 0004 00AF     		add	r7, sp, #0
 2109              	.LCFI97:
 2110              		.cfi_def_cfa_register 7
 2111 0006 7860     		str	r0, [r7, #4]
 729:C:/Users/dtjld/Desktop/AIoT_software/LiteOS_Lab_overseas/LiteOS_Lab/iot_link/os/liteos/base/core\los_task.c ****     LOS_TASK_CB *pstTaskCB;
 730:C:/Users/dtjld/Desktop/AIoT_software/LiteOS_Lab_overseas/LiteOS_Lab/iot_link/os/liteos/base/core\los_task.c **** 
 731:C:/Users/dtjld/Desktop/AIoT_software/LiteOS_Lab_overseas/LiteOS_Lab/iot_link/os/liteos/base/core\los_task.c ****     OS_TASK_ID_CHECK(uwTaskID);
 732:C:/Users/dtjld/Desktop/AIoT_software/LiteOS_Lab_overseas/LiteOS_Lab/iot_link/os/liteos/base/core\los_task.c **** 
 733:C:/Users/dtjld/Desktop/AIoT_software/LiteOS_Lab_overseas/LiteOS_Lab/iot_link/os/liteos/base/core\los_task.c ****     pstTaskCB = OS_TCB_FROM_TID(uwTaskID);
 2112              		.loc 2 733 0
 2113 0008 0B4B     		ldr	r3, .L122
 2114 000a 1A68     		ldr	r2, [r3]
 2115 000c 7B68     		ldr	r3, [r7, #4]
 2116 000e 5421     		movs	r1, #84
 2117 0010 01FB03F3 		mul	r3, r1, r3
 2118 0014 1344     		add	r3, r3, r2
 2119 0016 FB60     		str	r3, [r7, #12]
 734:C:/Users/dtjld/Desktop/AIoT_software/LiteOS_Lab_overseas/LiteOS_Lab/iot_link/os/liteos/base/core\los_task.c **** 
 735:C:/Users/dtjld/Desktop/AIoT_software/LiteOS_Lab_overseas/LiteOS_Lab/iot_link/os/liteos/base/core\los_task.c ****     (VOID)pstTaskCB->pfnTaskEntry(pstTaskCB->uwArg);
 2120              		.loc 2 735 0
 2121 0018 FB68     		ldr	r3, [r7, #12]
 2122 001a 5B69     		ldr	r3, [r3, #20]
 2123 001c FA68     		ldr	r2, [r7, #12]
 2124 001e 126A     		ldr	r2, [r2, #32]
 2125 0020 1046     		mov	r0, r2
 2126 0022 9847     		blx	r3
 2127              	.LVL1:
 736:C:/Users/dtjld/Desktop/AIoT_software/LiteOS_Lab_overseas/LiteOS_Lab/iot_link/os/liteos/base/core\los_task.c **** 
 737:C:/Users/dtjld/Desktop/AIoT_software/LiteOS_Lab_overseas/LiteOS_Lab/iot_link/os/liteos/base/core\los_task.c ****     (VOID)LOS_TaskDelete(pstTaskCB->uwTaskID);
 2128              		.loc 2 737 0
 2129 0024 FB68     		ldr	r3, [r7, #12]
 2130 0026 1B69     		ldr	r3, [r3, #16]
 2131 0028 1846     		mov	r0, r3
 2132 002a FFF7FEFF 		bl	LOS_TaskDelete
 738:C:/Users/dtjld/Desktop/AIoT_software/LiteOS_Lab_overseas/LiteOS_Lab/iot_link/os/liteos/base/core\los_task.c **** }
 2133              		.loc 2 738 0
 2134 002e 00BF     		nop
 2135 0030 1037     		adds	r7, r7, #16
 2136              	.LCFI98:
 2137              		.cfi_def_cfa_offset 8
 2138 0032 BD46     		mov	sp, r7
 2139              	.LCFI99:
 2140              		.cfi_def_cfa_register 13
 2141              		@ sp needed
 2142 0034 80BD     		pop	{r7, pc}
ARM GAS  C:\Users\dtjld\AppData\Local\Temp\ccU8krAq.s 			page 56


 2143              	.L123:
 2144 0036 00BF     		.align	2
 2145              	.L122:
 2146 0038 00000000 		.word	g_pstTaskCBArray
 2147              		.cfi_endproc
 2148              	.LFE145:
 2150              		.section	.text.LOS_TaskCreateOnly,"ax",%progbits
 2151              		.align	1
 2152              		.global	LOS_TaskCreateOnly
 2153              		.syntax unified
 2154              		.thumb
 2155              		.thumb_func
 2156              		.fpu fpv4-sp-d16
 2158              	LOS_TaskCreateOnly:
 2159              	.LFB146:
 739:C:/Users/dtjld/Desktop/AIoT_software/LiteOS_Lab_overseas/LiteOS_Lab/iot_link/os/liteos/base/core\los_task.c **** 
 740:C:/Users/dtjld/Desktop/AIoT_software/LiteOS_Lab_overseas/LiteOS_Lab/iot_link/os/liteos/base/core\los_task.c **** #if (LOSCFG_STATIC_TASK == YES)
 741:C:/Users/dtjld/Desktop/AIoT_software/LiteOS_Lab_overseas/LiteOS_Lab/iot_link/os/liteos/base/core\los_task.c **** 
 742:C:/Users/dtjld/Desktop/AIoT_software/LiteOS_Lab_overseas/LiteOS_Lab/iot_link/os/liteos/base/core\los_task.c **** /*****************************************************************************
 743:C:/Users/dtjld/Desktop/AIoT_software/LiteOS_Lab_overseas/LiteOS_Lab/iot_link/os/liteos/base/core\los_task.c ****  Function    : LOS_StaticTaskInit
 744:C:/Users/dtjld/Desktop/AIoT_software/LiteOS_Lab_overseas/LiteOS_Lab/iot_link/os/liteos/base/core\los_task.c ****  Description : Initialize a task defined statically.
 745:C:/Users/dtjld/Desktop/AIoT_software/LiteOS_Lab_overseas/LiteOS_Lab/iot_link/os/liteos/base/core\los_task.c ****  Input       : pvTaskCB  --- task control block to be initialized
 746:C:/Users/dtjld/Desktop/AIoT_software/LiteOS_Lab_overseas/LiteOS_Lab/iot_link/os/liteos/base/core\los_task.c ****  Output      : puwTaskID --- task ID allocated for this task
 747:C:/Users/dtjld/Desktop/AIoT_software/LiteOS_Lab_overseas/LiteOS_Lab/iot_link/os/liteos/base/core\los_task.c ****  Return      : LOS_OK on success or error code on failure
 748:C:/Users/dtjld/Desktop/AIoT_software/LiteOS_Lab_overseas/LiteOS_Lab/iot_link/os/liteos/base/core\los_task.c ****  *****************************************************************************/
 749:C:/Users/dtjld/Desktop/AIoT_software/LiteOS_Lab_overseas/LiteOS_Lab/iot_link/os/liteos/base/core\los_task.c **** UINT32 LOS_StaticTaskInit(void *pvTaskCB, UINT32 *puwTaskID)
 750:C:/Users/dtjld/Desktop/AIoT_software/LiteOS_Lab_overseas/LiteOS_Lab/iot_link/os/liteos/base/core\los_task.c **** {
 751:C:/Users/dtjld/Desktop/AIoT_software/LiteOS_Lab_overseas/LiteOS_Lab/iot_link/os/liteos/base/core\los_task.c ****     static UINT32 uwTaskID = 0;
 752:C:/Users/dtjld/Desktop/AIoT_software/LiteOS_Lab_overseas/LiteOS_Lab/iot_link/os/liteos/base/core\los_task.c ****     UINTPTR uvIntSave;
 753:C:/Users/dtjld/Desktop/AIoT_software/LiteOS_Lab_overseas/LiteOS_Lab/iot_link/os/liteos/base/core\los_task.c ****     LOS_TASK_CB *pstTaskCB = (LOS_TASK_CB *)pvTaskCB;
 754:C:/Users/dtjld/Desktop/AIoT_software/LiteOS_Lab_overseas/LiteOS_Lab/iot_link/os/liteos/base/core\los_task.c **** 
 755:C:/Users/dtjld/Desktop/AIoT_software/LiteOS_Lab_overseas/LiteOS_Lab/iot_link/os/liteos/base/core\los_task.c ****     uvIntSave = LOS_IntLock();
 756:C:/Users/dtjld/Desktop/AIoT_software/LiteOS_Lab_overseas/LiteOS_Lab/iot_link/os/liteos/base/core\los_task.c **** 
 757:C:/Users/dtjld/Desktop/AIoT_software/LiteOS_Lab_overseas/LiteOS_Lab/iot_link/os/liteos/base/core\los_task.c ****     if (uwTaskID >= g_uwTskMaxNum)
 758:C:/Users/dtjld/Desktop/AIoT_software/LiteOS_Lab_overseas/LiteOS_Lab/iot_link/os/liteos/base/core\los_task.c ****         {
 759:C:/Users/dtjld/Desktop/AIoT_software/LiteOS_Lab_overseas/LiteOS_Lab/iot_link/os/liteos/base/core\los_task.c ****         LOS_IntRestore (uvIntSave);
 760:C:/Users/dtjld/Desktop/AIoT_software/LiteOS_Lab_overseas/LiteOS_Lab/iot_link/os/liteos/base/core\los_task.c ****         return LOS_ERRNO_TSK_NO_MEMORY;
 761:C:/Users/dtjld/Desktop/AIoT_software/LiteOS_Lab_overseas/LiteOS_Lab/iot_link/os/liteos/base/core\los_task.c ****         }
 762:C:/Users/dtjld/Desktop/AIoT_software/LiteOS_Lab_overseas/LiteOS_Lab/iot_link/os/liteos/base/core\los_task.c **** 
 763:C:/Users/dtjld/Desktop/AIoT_software/LiteOS_Lab_overseas/LiteOS_Lab/iot_link/os/liteos/base/core\los_task.c ****     pstTaskCB->uwTaskID = uwTaskID++;
 764:C:/Users/dtjld/Desktop/AIoT_software/LiteOS_Lab_overseas/LiteOS_Lab/iot_link/os/liteos/base/core\los_task.c ****     LOS_IntRestore (uvIntSave);
 765:C:/Users/dtjld/Desktop/AIoT_software/LiteOS_Lab_overseas/LiteOS_Lab/iot_link/os/liteos/base/core\los_task.c **** 
 766:C:/Users/dtjld/Desktop/AIoT_software/LiteOS_Lab_overseas/LiteOS_Lab/iot_link/os/liteos/base/core\los_task.c ****     g_apstTaskCBArray[pstTaskCB->uwTaskID] = pstTaskCB;
 767:C:/Users/dtjld/Desktop/AIoT_software/LiteOS_Lab_overseas/LiteOS_Lab/iot_link/os/liteos/base/core\los_task.c **** 
 768:C:/Users/dtjld/Desktop/AIoT_software/LiteOS_Lab_overseas/LiteOS_Lab/iot_link/os/liteos/base/core\los_task.c ****     pstTaskCB->usTaskStatus = OS_TASK_STATUS_READY;
 769:C:/Users/dtjld/Desktop/AIoT_software/LiteOS_Lab_overseas/LiteOS_Lab/iot_link/os/liteos/base/core\los_task.c **** 
 770:C:/Users/dtjld/Desktop/AIoT_software/LiteOS_Lab_overseas/LiteOS_Lab/iot_link/os/liteos/base/core\los_task.c ****     pstTaskCB->uwTopOfStack = (UINT32) pstTaskCB->pStackPointer;
 771:C:/Users/dtjld/Desktop/AIoT_software/LiteOS_Lab_overseas/LiteOS_Lab/iot_link/os/liteos/base/core\los_task.c **** 
 772:C:/Users/dtjld/Desktop/AIoT_software/LiteOS_Lab_overseas/LiteOS_Lab/iot_link/os/liteos/base/core\los_task.c ****     osTskStackInit(pstTaskCB, NULL);
 773:C:/Users/dtjld/Desktop/AIoT_software/LiteOS_Lab_overseas/LiteOS_Lab/iot_link/os/liteos/base/core\los_task.c **** 
 774:C:/Users/dtjld/Desktop/AIoT_software/LiteOS_Lab_overseas/LiteOS_Lab/iot_link/os/liteos/base/core\los_task.c ****     osPriqueueEnqueue(&pstTaskCB->stPendList, pstTaskCB->usPriority);
 775:C:/Users/dtjld/Desktop/AIoT_software/LiteOS_Lab_overseas/LiteOS_Lab/iot_link/os/liteos/base/core\los_task.c ****     g_stLosTask.pstNewTask = LOS_DL_LIST_ENTRY(osPriqueueTop(), LOS_TASK_CB, stPendList); /*lint !e
 776:C:/Users/dtjld/Desktop/AIoT_software/LiteOS_Lab_overseas/LiteOS_Lab/iot_link/os/liteos/base/core\los_task.c **** 
 777:C:/Users/dtjld/Desktop/AIoT_software/LiteOS_Lab_overseas/LiteOS_Lab/iot_link/os/liteos/base/core\los_task.c ****     *puwTaskID = pstTaskCB->uwTaskID;
 778:C:/Users/dtjld/Desktop/AIoT_software/LiteOS_Lab_overseas/LiteOS_Lab/iot_link/os/liteos/base/core\los_task.c **** 
 779:C:/Users/dtjld/Desktop/AIoT_software/LiteOS_Lab_overseas/LiteOS_Lab/iot_link/os/liteos/base/core\los_task.c ****     return LOS_OK;
 780:C:/Users/dtjld/Desktop/AIoT_software/LiteOS_Lab_overseas/LiteOS_Lab/iot_link/os/liteos/base/core\los_task.c **** }
ARM GAS  C:\Users\dtjld\AppData\Local\Temp\ccU8krAq.s 			page 57


 781:C:/Users/dtjld/Desktop/AIoT_software/LiteOS_Lab_overseas/LiteOS_Lab/iot_link/os/liteos/base/core\los_task.c **** 
 782:C:/Users/dtjld/Desktop/AIoT_software/LiteOS_Lab_overseas/LiteOS_Lab/iot_link/os/liteos/base/core\los_task.c **** #else
 783:C:/Users/dtjld/Desktop/AIoT_software/LiteOS_Lab_overseas/LiteOS_Lab/iot_link/os/liteos/base/core\los_task.c **** 
 784:C:/Users/dtjld/Desktop/AIoT_software/LiteOS_Lab_overseas/LiteOS_Lab/iot_link/os/liteos/base/core\los_task.c **** /*****************************************************************************
 785:C:/Users/dtjld/Desktop/AIoT_software/LiteOS_Lab_overseas/LiteOS_Lab/iot_link/os/liteos/base/core\los_task.c ****  Function : LOS_TaskCreateOnly
 786:C:/Users/dtjld/Desktop/AIoT_software/LiteOS_Lab_overseas/LiteOS_Lab/iot_link/os/liteos/base/core\los_task.c ****  Description : Create a task and suspend
 787:C:/Users/dtjld/Desktop/AIoT_software/LiteOS_Lab_overseas/LiteOS_Lab/iot_link/os/liteos/base/core\los_task.c ****  Input       : pstInitParam --- Task init parameters
 788:C:/Users/dtjld/Desktop/AIoT_software/LiteOS_Lab_overseas/LiteOS_Lab/iot_link/os/liteos/base/core\los_task.c ****  Output      : puwTaskID    --- Save task ID
 789:C:/Users/dtjld/Desktop/AIoT_software/LiteOS_Lab_overseas/LiteOS_Lab/iot_link/os/liteos/base/core\los_task.c ****  Return      : LOS_OK on success or error code on failure
 790:C:/Users/dtjld/Desktop/AIoT_software/LiteOS_Lab_overseas/LiteOS_Lab/iot_link/os/liteos/base/core\los_task.c ****  *****************************************************************************/
 791:C:/Users/dtjld/Desktop/AIoT_software/LiteOS_Lab_overseas/LiteOS_Lab/iot_link/os/liteos/base/core\los_task.c **** LITE_OS_SEC_TEXT_INIT UINT32 LOS_TaskCreateOnly(UINT32 *puwTaskID, TSK_INIT_PARAM_S *pstInitParam)
 792:C:/Users/dtjld/Desktop/AIoT_software/LiteOS_Lab_overseas/LiteOS_Lab/iot_link/os/liteos/base/core\los_task.c **** {
 2160              		.loc 2 792 0
 2161              		.cfi_startproc
 2162              		@ args = 0, pretend = 0, frame = 32
 2163              		@ frame_needed = 1, uses_anonymous_args = 0
 2164 0000 80B5     		push	{r7, lr}
 2165              	.LCFI100:
 2166              		.cfi_def_cfa_offset 8
 2167              		.cfi_offset 7, -8
 2168              		.cfi_offset 14, -4
 2169 0002 88B0     		sub	sp, sp, #32
 2170              	.LCFI101:
 2171              		.cfi_def_cfa_offset 40
 2172 0004 00AF     		add	r7, sp, #0
 2173              	.LCFI102:
 2174              		.cfi_def_cfa_register 7
 2175 0006 7860     		str	r0, [r7, #4]
 2176 0008 3960     		str	r1, [r7]
 793:C:/Users/dtjld/Desktop/AIoT_software/LiteOS_Lab_overseas/LiteOS_Lab/iot_link/os/liteos/base/core\los_task.c ****     UINT32 uwTaskID = 0;
 2177              		.loc 2 793 0
 2178 000a 0023     		movs	r3, #0
 2179 000c 7B61     		str	r3, [r7, #20]
 794:C:/Users/dtjld/Desktop/AIoT_software/LiteOS_Lab_overseas/LiteOS_Lab/iot_link/os/liteos/base/core\los_task.c ****     UINTPTR uvIntSave;
 795:C:/Users/dtjld/Desktop/AIoT_software/LiteOS_Lab_overseas/LiteOS_Lab/iot_link/os/liteos/base/core\los_task.c ****     VOID  *pTopStack;
 796:C:/Users/dtjld/Desktop/AIoT_software/LiteOS_Lab_overseas/LiteOS_Lab/iot_link/os/liteos/base/core\los_task.c ****     LOS_TASK_CB *pstTaskCB;
 797:C:/Users/dtjld/Desktop/AIoT_software/LiteOS_Lab_overseas/LiteOS_Lab/iot_link/os/liteos/base/core\los_task.c ****     UINT32 uwErrRet = OS_ERROR;
 2180              		.loc 2 797 0
 2181 000e 4FF0FF33 		mov	r3, #-1
 2182 0012 BB61     		str	r3, [r7, #24]
 798:C:/Users/dtjld/Desktop/AIoT_software/LiteOS_Lab_overseas/LiteOS_Lab/iot_link/os/liteos/base/core\los_task.c **** 
 799:C:/Users/dtjld/Desktop/AIoT_software/LiteOS_Lab_overseas/LiteOS_Lab/iot_link/os/liteos/base/core\los_task.c ****     if (NULL == puwTaskID)
 2183              		.loc 2 799 0
 2184 0014 7B68     		ldr	r3, [r7, #4]
 2185 0016 002B     		cmp	r3, #0
 2186 0018 01D1     		bne	.L125
 800:C:/Users/dtjld/Desktop/AIoT_software/LiteOS_Lab_overseas/LiteOS_Lab/iot_link/os/liteos/base/core\los_task.c ****     {
 801:C:/Users/dtjld/Desktop/AIoT_software/LiteOS_Lab_overseas/LiteOS_Lab/iot_link/os/liteos/base/core\los_task.c ****         return LOS_ERRNO_TSK_ID_INVALID;
 2187              		.loc 2 801 0
 2188 001a 634B     		ldr	r3, .L139
 2189 001c BFE0     		b	.L126
 2190              	.L125:
 802:C:/Users/dtjld/Desktop/AIoT_software/LiteOS_Lab_overseas/LiteOS_Lab/iot_link/os/liteos/base/core\los_task.c ****     }
 803:C:/Users/dtjld/Desktop/AIoT_software/LiteOS_Lab_overseas/LiteOS_Lab/iot_link/os/liteos/base/core\los_task.c **** 
 804:C:/Users/dtjld/Desktop/AIoT_software/LiteOS_Lab_overseas/LiteOS_Lab/iot_link/os/liteos/base/core\los_task.c ****     if (NULL == pstInitParam)
 2191              		.loc 2 804 0
 2192 001e 3B68     		ldr	r3, [r7]
ARM GAS  C:\Users\dtjld\AppData\Local\Temp\ccU8krAq.s 			page 58


 2193 0020 002B     		cmp	r3, #0
 2194 0022 01D1     		bne	.L127
 805:C:/Users/dtjld/Desktop/AIoT_software/LiteOS_Lab_overseas/LiteOS_Lab/iot_link/os/liteos/base/core\los_task.c ****     {
 806:C:/Users/dtjld/Desktop/AIoT_software/LiteOS_Lab_overseas/LiteOS_Lab/iot_link/os/liteos/base/core\los_task.c ****         return LOS_ERRNO_TSK_PTR_NULL;
 2195              		.loc 2 806 0
 2196 0024 614B     		ldr	r3, .L139+4
 2197 0026 BAE0     		b	.L126
 2198              	.L127:
 807:C:/Users/dtjld/Desktop/AIoT_software/LiteOS_Lab_overseas/LiteOS_Lab/iot_link/os/liteos/base/core\los_task.c ****     }
 808:C:/Users/dtjld/Desktop/AIoT_software/LiteOS_Lab_overseas/LiteOS_Lab/iot_link/os/liteos/base/core\los_task.c **** 
 809:C:/Users/dtjld/Desktop/AIoT_software/LiteOS_Lab_overseas/LiteOS_Lab/iot_link/os/liteos/base/core\los_task.c ****     if (NULL == pstInitParam->pcName)
 2199              		.loc 2 809 0
 2200 0028 3B68     		ldr	r3, [r7]
 2201 002a 1B69     		ldr	r3, [r3, #16]
 2202 002c 002B     		cmp	r3, #0
 2203 002e 01D1     		bne	.L128
 810:C:/Users/dtjld/Desktop/AIoT_software/LiteOS_Lab_overseas/LiteOS_Lab/iot_link/os/liteos/base/core\los_task.c ****     {
 811:C:/Users/dtjld/Desktop/AIoT_software/LiteOS_Lab_overseas/LiteOS_Lab/iot_link/os/liteos/base/core\los_task.c ****         return LOS_ERRNO_TSK_NAME_EMPTY;
 2204              		.loc 2 811 0
 2205 0030 5F4B     		ldr	r3, .L139+8
 2206 0032 B4E0     		b	.L126
 2207              	.L128:
 812:C:/Users/dtjld/Desktop/AIoT_software/LiteOS_Lab_overseas/LiteOS_Lab/iot_link/os/liteos/base/core\los_task.c ****     }
 813:C:/Users/dtjld/Desktop/AIoT_software/LiteOS_Lab_overseas/LiteOS_Lab/iot_link/os/liteos/base/core\los_task.c **** 
 814:C:/Users/dtjld/Desktop/AIoT_software/LiteOS_Lab_overseas/LiteOS_Lab/iot_link/os/liteos/base/core\los_task.c ****     if (NULL == pstInitParam->pfnTaskEntry)
 2208              		.loc 2 814 0
 2209 0034 3B68     		ldr	r3, [r7]
 2210 0036 1B68     		ldr	r3, [r3]
 2211 0038 002B     		cmp	r3, #0
 2212 003a 01D1     		bne	.L129
 815:C:/Users/dtjld/Desktop/AIoT_software/LiteOS_Lab_overseas/LiteOS_Lab/iot_link/os/liteos/base/core\los_task.c ****     {
 816:C:/Users/dtjld/Desktop/AIoT_software/LiteOS_Lab_overseas/LiteOS_Lab/iot_link/os/liteos/base/core\los_task.c ****         return LOS_ERRNO_TSK_ENTRY_NULL;
 2213              		.loc 2 816 0
 2214 003c 5D4B     		ldr	r3, .L139+12
 2215 003e AEE0     		b	.L126
 2216              	.L129:
 817:C:/Users/dtjld/Desktop/AIoT_software/LiteOS_Lab_overseas/LiteOS_Lab/iot_link/os/liteos/base/core\los_task.c ****     }
 818:C:/Users/dtjld/Desktop/AIoT_software/LiteOS_Lab_overseas/LiteOS_Lab/iot_link/os/liteos/base/core\los_task.c **** 
 819:C:/Users/dtjld/Desktop/AIoT_software/LiteOS_Lab_overseas/LiteOS_Lab/iot_link/os/liteos/base/core\los_task.c ****     if ((pstInitParam->usTaskPrio) > OS_TASK_PRIORITY_LOWEST)
 2217              		.loc 2 819 0
 2218 0040 3B68     		ldr	r3, [r7]
 2219 0042 9B88     		ldrh	r3, [r3, #4]
 2220 0044 1F2B     		cmp	r3, #31
 2221 0046 01D9     		bls	.L130
 820:C:/Users/dtjld/Desktop/AIoT_software/LiteOS_Lab_overseas/LiteOS_Lab/iot_link/os/liteos/base/core\los_task.c ****     {
 821:C:/Users/dtjld/Desktop/AIoT_software/LiteOS_Lab_overseas/LiteOS_Lab/iot_link/os/liteos/base/core\los_task.c ****         return LOS_ERRNO_TSK_PRIOR_ERROR;
 2222              		.loc 2 821 0
 2223 0048 5B4B     		ldr	r3, .L139+16
 2224 004a A8E0     		b	.L126
 2225              	.L130:
 822:C:/Users/dtjld/Desktop/AIoT_software/LiteOS_Lab_overseas/LiteOS_Lab/iot_link/os/liteos/base/core\los_task.c ****     }
 823:C:/Users/dtjld/Desktop/AIoT_software/LiteOS_Lab_overseas/LiteOS_Lab/iot_link/os/liteos/base/core\los_task.c **** 
 824:C:/Users/dtjld/Desktop/AIoT_software/LiteOS_Lab_overseas/LiteOS_Lab/iot_link/os/liteos/base/core\los_task.c ****     if (((pstInitParam->usTaskPrio) == OS_TASK_PRIORITY_LOWEST)
 2226              		.loc 2 824 0
 2227 004c 3B68     		ldr	r3, [r7]
 2228 004e 9B88     		ldrh	r3, [r3, #4]
 2229 0050 1F2B     		cmp	r3, #31
ARM GAS  C:\Users\dtjld\AppData\Local\Temp\ccU8krAq.s 			page 59


 2230 0052 06D1     		bne	.L131
 825:C:/Users/dtjld/Desktop/AIoT_software/LiteOS_Lab_overseas/LiteOS_Lab/iot_link/os/liteos/base/core\los_task.c ****         && (pstInitParam->pfnTaskEntry != OS_IDLE_TASK_ENTRY))
 2231              		.loc 2 825 0
 2232 0054 3B68     		ldr	r3, [r7]
 2233 0056 1B68     		ldr	r3, [r3]
 2234 0058 584A     		ldr	r2, .L139+20
 2235 005a 9342     		cmp	r3, r2
 2236 005c 01D0     		beq	.L131
 826:C:/Users/dtjld/Desktop/AIoT_software/LiteOS_Lab_overseas/LiteOS_Lab/iot_link/os/liteos/base/core\los_task.c ****     {
 827:C:/Users/dtjld/Desktop/AIoT_software/LiteOS_Lab_overseas/LiteOS_Lab/iot_link/os/liteos/base/core\los_task.c ****         return LOS_ERRNO_TSK_PRIOR_ERROR;
 2237              		.loc 2 827 0
 2238 005e 564B     		ldr	r3, .L139+16
 2239 0060 9DE0     		b	.L126
 2240              	.L131:
 828:C:/Users/dtjld/Desktop/AIoT_software/LiteOS_Lab_overseas/LiteOS_Lab/iot_link/os/liteos/base/core\los_task.c ****     }
 829:C:/Users/dtjld/Desktop/AIoT_software/LiteOS_Lab_overseas/LiteOS_Lab/iot_link/os/liteos/base/core\los_task.c **** 
 830:C:/Users/dtjld/Desktop/AIoT_software/LiteOS_Lab_overseas/LiteOS_Lab/iot_link/os/liteos/base/core\los_task.c ****     if (0 == pstInitParam->uwStackSize)
 2241              		.loc 2 830 0
 2242 0062 3B68     		ldr	r3, [r7]
 2243 0064 DB68     		ldr	r3, [r3, #12]
 2244 0066 002B     		cmp	r3, #0
 2245 0068 03D1     		bne	.L132
 831:C:/Users/dtjld/Desktop/AIoT_software/LiteOS_Lab_overseas/LiteOS_Lab/iot_link/os/liteos/base/core\los_task.c ****     {
 832:C:/Users/dtjld/Desktop/AIoT_software/LiteOS_Lab_overseas/LiteOS_Lab/iot_link/os/liteos/base/core\los_task.c ****         pstInitParam->uwStackSize = LOSCFG_BASE_CORE_TSK_DEFAULT_STACK_SIZE;
 2246              		.loc 2 832 0
 2247 006a 3B68     		ldr	r3, [r7]
 2248 006c 4FF43472 		mov	r2, #720
 2249 0070 DA60     		str	r2, [r3, #12]
 2250              	.L132:
 833:C:/Users/dtjld/Desktop/AIoT_software/LiteOS_Lab_overseas/LiteOS_Lab/iot_link/os/liteos/base/core\los_task.c ****     }
 834:C:/Users/dtjld/Desktop/AIoT_software/LiteOS_Lab_overseas/LiteOS_Lab/iot_link/os/liteos/base/core\los_task.c ****     pstInitParam->uwStackSize = ALIGN(pstInitParam->uwStackSize , LOSCFG_STACK_POINT_ALIGN_SIZE);
 2251              		.loc 2 834 0
 2252 0072 3B68     		ldr	r3, [r7]
 2253 0074 DB68     		ldr	r3, [r3, #12]
 2254 0076 0821     		movs	r1, #8
 2255 0078 1846     		mov	r0, r3
 2256 007a FFF7FEFF 		bl	LOS_Align
 2257 007e 0246     		mov	r2, r0
 2258 0080 3B68     		ldr	r3, [r7]
 2259 0082 DA60     		str	r2, [r3, #12]
 835:C:/Users/dtjld/Desktop/AIoT_software/LiteOS_Lab_overseas/LiteOS_Lab/iot_link/os/liteos/base/core\los_task.c **** 
 836:C:/Users/dtjld/Desktop/AIoT_software/LiteOS_Lab_overseas/LiteOS_Lab/iot_link/os/liteos/base/core\los_task.c ****     if (pstInitParam->uwStackSize < LOSCFG_BASE_CORE_TSK_MIN_STACK_SIZE)
 2260              		.loc 2 836 0
 2261 0084 3B68     		ldr	r3, [r7]
 2262 0086 DB68     		ldr	r3, [r3, #12]
 2263 0088 B3F5987F 		cmp	r3, #304
 2264 008c 01D2     		bcs	.L133
 837:C:/Users/dtjld/Desktop/AIoT_software/LiteOS_Lab_overseas/LiteOS_Lab/iot_link/os/liteos/base/core\los_task.c ****     {
 838:C:/Users/dtjld/Desktop/AIoT_software/LiteOS_Lab_overseas/LiteOS_Lab/iot_link/os/liteos/base/core\los_task.c ****         return LOS_ERRNO_TSK_STKSZ_TOO_SMALL;
 2265              		.loc 2 838 0
 2266 008e 4C4B     		ldr	r3, .L139+24
 2267 0090 85E0     		b	.L126
 2268              	.L133:
 839:C:/Users/dtjld/Desktop/AIoT_software/LiteOS_Lab_overseas/LiteOS_Lab/iot_link/os/liteos/base/core\los_task.c ****     }
 840:C:/Users/dtjld/Desktop/AIoT_software/LiteOS_Lab_overseas/LiteOS_Lab/iot_link/os/liteos/base/core\los_task.c **** 
 841:C:/Users/dtjld/Desktop/AIoT_software/LiteOS_Lab_overseas/LiteOS_Lab/iot_link/os/liteos/base/core\los_task.c ****     uvIntSave = LOS_IntLock();
 2269              		.loc 2 841 0
ARM GAS  C:\Users\dtjld\AppData\Local\Temp\ccU8krAq.s 			page 60


 2270 0092 FFF7FEFF 		bl	LOS_IntLock
