ARM GAS  C:\Users\dtjld\AppData\Local\Temp\ccU8krAq.s 			page 1


   1              		.cpu cortex-m4
   2              		.eabi_attribute 27, 1
   3              		.eabi_attribute 28, 1
   4              		.eabi_attribute 20, 1
   5              		.eabi_attribute 21, 1
   6              		.eabi_attribute 23, 3
   7              		.eabi_attribute 24, 1
   8              		.eabi_attribute 25, 1
   9              		.eabi_attribute 26, 1
  10              		.eabi_attribute 30, 6
  11              		.eabi_attribute 34, 1
  12              		.eabi_attribute 18, 4
  13              		.file	"los_task.c"
  14              		.text
  15              	.Ltext0:
  16              		.cfi_sections	.debug_frame
  17              		.section	.text.LOS_ListInit,"ax",%progbits
  18              		.align	1
  19              		.syntax unified
  20              		.thumb
  21              		.thumb_func
  22              		.fpu fpv4-sp-d16
  24              	LOS_ListInit:
  25              	.LFB123:
  26              		.file 1 "C:/Users/dtjld/Desktop/AIoT_software/LiteOS_Lab_overseas/LiteOS_Lab/iot_link/os/liteos/in
   1:C:/Users/dtjld/Desktop/AIoT_software/LiteOS_Lab_overseas/LiteOS_Lab/iot_link/os/liteos/include\los_list.h **** /*----------------------------------------------------------------------------
   2:C:/Users/dtjld/Desktop/AIoT_software/LiteOS_Lab_overseas/LiteOS_Lab/iot_link/os/liteos/include\los_list.h ****  * Copyright (c) <2013-2015>, <Huawei Technologies Co., Ltd>
   3:C:/Users/dtjld/Desktop/AIoT_software/LiteOS_Lab_overseas/LiteOS_Lab/iot_link/os/liteos/include\los_list.h ****  * All rights reserved.
   4:C:/Users/dtjld/Desktop/AIoT_software/LiteOS_Lab_overseas/LiteOS_Lab/iot_link/os/liteos/include\los_list.h ****  * Redistribution and use in source and binary forms, with or without modification,
   5:C:/Users/dtjld/Desktop/AIoT_software/LiteOS_Lab_overseas/LiteOS_Lab/iot_link/os/liteos/include\los_list.h ****  * are permitted provided that the following conditions are met:
   6:C:/Users/dtjld/Desktop/AIoT_software/LiteOS_Lab_overseas/LiteOS_Lab/iot_link/os/liteos/include\los_list.h ****  * 1. Redistributions of source code must retain the above copyright notice, this list of
   7:C:/Users/dtjld/Desktop/AIoT_software/LiteOS_Lab_overseas/LiteOS_Lab/iot_link/os/liteos/include\los_list.h ****  * conditions and the following disclaimer.
   8:C:/Users/dtjld/Desktop/AIoT_software/LiteOS_Lab_overseas/LiteOS_Lab/iot_link/os/liteos/include\los_list.h ****  * 2. Redistributions in binary form must reproduce the above copyright notice, this list
   9:C:/Users/dtjld/Desktop/AIoT_software/LiteOS_Lab_overseas/LiteOS_Lab/iot_link/os/liteos/include\los_list.h ****  * of conditions and the following disclaimer in the documentation and/or other materials
  10:C:/Users/dtjld/Desktop/AIoT_software/LiteOS_Lab_overseas/LiteOS_Lab/iot_link/os/liteos/include\los_list.h ****  * provided with the distribution.
  11:C:/Users/dtjld/Desktop/AIoT_software/LiteOS_Lab_overseas/LiteOS_Lab/iot_link/os/liteos/include\los_list.h ****  * 3. Neither the name of the copyright holder nor the names of its contributors may be used
  12:C:/Users/dtjld/Desktop/AIoT_software/LiteOS_Lab_overseas/LiteOS_Lab/iot_link/os/liteos/include\los_list.h ****  * to endorse or promote products derived from this software without specific prior written
  13:C:/Users/dtjld/Desktop/AIoT_software/LiteOS_Lab_overseas/LiteOS_Lab/iot_link/os/liteos/include\los_list.h ****  * permission.
  14:C:/Users/dtjld/Desktop/AIoT_software/LiteOS_Lab_overseas/LiteOS_Lab/iot_link/os/liteos/include\los_list.h ****  * THIS SOFTWARE IS PROVIDED BY THE COPYRIGHT HOLDERS AND CONTRIBUTORS
  15:C:/Users/dtjld/Desktop/AIoT_software/LiteOS_Lab_overseas/LiteOS_Lab/iot_link/os/liteos/include\los_list.h ****  * "AS IS" AND ANY EXPRESS OR IMPLIED WARRANTIES, INCLUDING, BUT NOT LIMITED TO,
  16:C:/Users/dtjld/Desktop/AIoT_software/LiteOS_Lab_overseas/LiteOS_Lab/iot_link/os/liteos/include\los_list.h ****  * THE IMPLIED WARRANTIES OF MERCHANTABILITY AND FITNESS FOR A PARTICULAR
  17:C:/Users/dtjld/Desktop/AIoT_software/LiteOS_Lab_overseas/LiteOS_Lab/iot_link/os/liteos/include\los_list.h ****  * PURPOSE ARE DISCLAIMED. IN NO EVENT SHALL THE COPYRIGHT HOLDER OR
  18:C:/Users/dtjld/Desktop/AIoT_software/LiteOS_Lab_overseas/LiteOS_Lab/iot_link/os/liteos/include\los_list.h ****  * CONTRIBUTORS BE LIABLE FOR ANY DIRECT, INDIRECT, INCIDENTAL, SPECIAL,
  19:C:/Users/dtjld/Desktop/AIoT_software/LiteOS_Lab_overseas/LiteOS_Lab/iot_link/os/liteos/include\los_list.h ****  * EXEMPLARY, OR CONSEQUENTIAL DAMAGES (INCLUDING, BUT NOT LIMITED TO,
  20:C:/Users/dtjld/Desktop/AIoT_software/LiteOS_Lab_overseas/LiteOS_Lab/iot_link/os/liteos/include\los_list.h ****  * PROCUREMENT OF SUBSTITUTE GOODS OR SERVICES; LOSS OF USE, DATA, OR PROFITS;
  21:C:/Users/dtjld/Desktop/AIoT_software/LiteOS_Lab_overseas/LiteOS_Lab/iot_link/os/liteos/include\los_list.h ****  * OR BUSINESS INTERRUPTION) HOWEVER CAUSED AND ON ANY THEORY OF LIABILITY,
  22:C:/Users/dtjld/Desktop/AIoT_software/LiteOS_Lab_overseas/LiteOS_Lab/iot_link/os/liteos/include\los_list.h ****  * WHETHER IN CONTRACT, STRICT LIABILITY, OR TORT (INCLUDING NEGLIGENCE OR
  23:C:/Users/dtjld/Desktop/AIoT_software/LiteOS_Lab_overseas/LiteOS_Lab/iot_link/os/liteos/include\los_list.h ****  * OTHERWISE) ARISING IN ANY WAY OUT OF THE USE OF THIS SOFTWARE, EVEN IF
  24:C:/Users/dtjld/Desktop/AIoT_software/LiteOS_Lab_overseas/LiteOS_Lab/iot_link/os/liteos/include\los_list.h ****  * ADVISED OF THE POSSIBILITY OF SUCH DAMAGE.
  25:C:/Users/dtjld/Desktop/AIoT_software/LiteOS_Lab_overseas/LiteOS_Lab/iot_link/os/liteos/include\los_list.h ****  *---------------------------------------------------------------------------*/
  26:C:/Users/dtjld/Desktop/AIoT_software/LiteOS_Lab_overseas/LiteOS_Lab/iot_link/os/liteos/include\los_list.h **** /*----------------------------------------------------------------------------
  27:C:/Users/dtjld/Desktop/AIoT_software/LiteOS_Lab_overseas/LiteOS_Lab/iot_link/os/liteos/include\los_list.h ****  * Notice of Export Control Law
  28:C:/Users/dtjld/Desktop/AIoT_software/LiteOS_Lab_overseas/LiteOS_Lab/iot_link/os/liteos/include\los_list.h ****  * ===============================================
  29:C:/Users/dtjld/Desktop/AIoT_software/LiteOS_Lab_overseas/LiteOS_Lab/iot_link/os/liteos/include\los_list.h ****  * Huawei LiteOS may be subject to applicable export control laws and regulations, which might
  30:C:/Users/dtjld/Desktop/AIoT_software/LiteOS_Lab_overseas/LiteOS_Lab/iot_link/os/liteos/include\los_list.h ****  * include those applicable to Huawei LiteOS of U.S. and the country in which you are located.
  31:C:/Users/dtjld/Desktop/AIoT_software/LiteOS_Lab_overseas/LiteOS_Lab/iot_link/os/liteos/include\los_list.h ****  * Import, export and usage of Huawei LiteOS in any manner by you shall be in compliance with such
  32:C:/Users/dtjld/Desktop/AIoT_software/LiteOS_Lab_overseas/LiteOS_Lab/iot_link/os/liteos/include\los_list.h ****  * applicable export control laws and regulations.
ARM GAS  C:\Users\dtjld\AppData\Local\Temp\ccU8krAq.s 			page 2


  33:C:/Users/dtjld/Desktop/AIoT_software/LiteOS_Lab_overseas/LiteOS_Lab/iot_link/os/liteos/include\los_list.h ****  *---------------------------------------------------------------------------*/
  34:C:/Users/dtjld/Desktop/AIoT_software/LiteOS_Lab_overseas/LiteOS_Lab/iot_link/os/liteos/include\los_list.h **** 
  35:C:/Users/dtjld/Desktop/AIoT_software/LiteOS_Lab_overseas/LiteOS_Lab/iot_link/os/liteos/include\los_list.h ****  /** @defgroup los_list Doubly linked list
  36:C:/Users/dtjld/Desktop/AIoT_software/LiteOS_Lab_overseas/LiteOS_Lab/iot_link/os/liteos/include\los_list.h ****  * @ingroup kernel
  37:C:/Users/dtjld/Desktop/AIoT_software/LiteOS_Lab_overseas/LiteOS_Lab/iot_link/os/liteos/include\los_list.h ****  */
  38:C:/Users/dtjld/Desktop/AIoT_software/LiteOS_Lab_overseas/LiteOS_Lab/iot_link/os/liteos/include\los_list.h **** 
  39:C:/Users/dtjld/Desktop/AIoT_software/LiteOS_Lab_overseas/LiteOS_Lab/iot_link/os/liteos/include\los_list.h **** #ifndef _LOS_LIST_H
  40:C:/Users/dtjld/Desktop/AIoT_software/LiteOS_Lab_overseas/LiteOS_Lab/iot_link/os/liteos/include\los_list.h **** #define _LOS_LIST_H
  41:C:/Users/dtjld/Desktop/AIoT_software/LiteOS_Lab_overseas/LiteOS_Lab/iot_link/os/liteos/include\los_list.h **** 
  42:C:/Users/dtjld/Desktop/AIoT_software/LiteOS_Lab_overseas/LiteOS_Lab/iot_link/os/liteos/include\los_list.h **** #include "los_typedef.h"
  43:C:/Users/dtjld/Desktop/AIoT_software/LiteOS_Lab_overseas/LiteOS_Lab/iot_link/os/liteos/include\los_list.h **** 
  44:C:/Users/dtjld/Desktop/AIoT_software/LiteOS_Lab_overseas/LiteOS_Lab/iot_link/os/liteos/include\los_list.h **** #ifdef __cplusplus
  45:C:/Users/dtjld/Desktop/AIoT_software/LiteOS_Lab_overseas/LiteOS_Lab/iot_link/os/liteos/include\los_list.h **** #if __cplusplus
  46:C:/Users/dtjld/Desktop/AIoT_software/LiteOS_Lab_overseas/LiteOS_Lab/iot_link/os/liteos/include\los_list.h **** extern "C" {
  47:C:/Users/dtjld/Desktop/AIoT_software/LiteOS_Lab_overseas/LiteOS_Lab/iot_link/os/liteos/include\los_list.h **** #endif /* __cplusplus */
  48:C:/Users/dtjld/Desktop/AIoT_software/LiteOS_Lab_overseas/LiteOS_Lab/iot_link/os/liteos/include\los_list.h **** #endif /* __cplusplus */
  49:C:/Users/dtjld/Desktop/AIoT_software/LiteOS_Lab_overseas/LiteOS_Lab/iot_link/os/liteos/include\los_list.h **** 
  50:C:/Users/dtjld/Desktop/AIoT_software/LiteOS_Lab_overseas/LiteOS_Lab/iot_link/os/liteos/include\los_list.h **** 
  51:C:/Users/dtjld/Desktop/AIoT_software/LiteOS_Lab_overseas/LiteOS_Lab/iot_link/os/liteos/include\los_list.h **** /**
  52:C:/Users/dtjld/Desktop/AIoT_software/LiteOS_Lab_overseas/LiteOS_Lab/iot_link/os/liteos/include\los_list.h ****  *@ingroup los_list
  53:C:/Users/dtjld/Desktop/AIoT_software/LiteOS_Lab_overseas/LiteOS_Lab/iot_link/os/liteos/include\los_list.h ****  *Structure of a node in a doubly linked list.
  54:C:/Users/dtjld/Desktop/AIoT_software/LiteOS_Lab_overseas/LiteOS_Lab/iot_link/os/liteos/include\los_list.h ****  */
  55:C:/Users/dtjld/Desktop/AIoT_software/LiteOS_Lab_overseas/LiteOS_Lab/iot_link/os/liteos/include\los_list.h **** typedef struct LOS_DL_LIST
  56:C:/Users/dtjld/Desktop/AIoT_software/LiteOS_Lab_overseas/LiteOS_Lab/iot_link/os/liteos/include\los_list.h **** {
  57:C:/Users/dtjld/Desktop/AIoT_software/LiteOS_Lab_overseas/LiteOS_Lab/iot_link/os/liteos/include\los_list.h ****     struct LOS_DL_LIST *pstPrev;            /**< Current node's pointer to the previous node*/
  58:C:/Users/dtjld/Desktop/AIoT_software/LiteOS_Lab_overseas/LiteOS_Lab/iot_link/os/liteos/include\los_list.h ****     struct LOS_DL_LIST *pstNext;            /**< Current node's pointer to the next node*/
  59:C:/Users/dtjld/Desktop/AIoT_software/LiteOS_Lab_overseas/LiteOS_Lab/iot_link/os/liteos/include\los_list.h **** } LOS_DL_LIST;
  60:C:/Users/dtjld/Desktop/AIoT_software/LiteOS_Lab_overseas/LiteOS_Lab/iot_link/os/liteos/include\los_list.h **** 
  61:C:/Users/dtjld/Desktop/AIoT_software/LiteOS_Lab_overseas/LiteOS_Lab/iot_link/os/liteos/include\los_list.h **** /**
  62:C:/Users/dtjld/Desktop/AIoT_software/LiteOS_Lab_overseas/LiteOS_Lab/iot_link/os/liteos/include\los_list.h ****  *@ingroup los_list
  63:C:/Users/dtjld/Desktop/AIoT_software/LiteOS_Lab_overseas/LiteOS_Lab/iot_link/os/liteos/include\los_list.h ****  *@brief Initialize a doubly linked list.
  64:C:/Users/dtjld/Desktop/AIoT_software/LiteOS_Lab_overseas/LiteOS_Lab/iot_link/os/liteos/include\los_list.h ****  *
  65:C:/Users/dtjld/Desktop/AIoT_software/LiteOS_Lab_overseas/LiteOS_Lab/iot_link/os/liteos/include\los_list.h ****  *@par Description:
  66:C:/Users/dtjld/Desktop/AIoT_software/LiteOS_Lab_overseas/LiteOS_Lab/iot_link/os/liteos/include\los_list.h ****  *This API is used to initialize a doubly linked list.
  67:C:/Users/dtjld/Desktop/AIoT_software/LiteOS_Lab_overseas/LiteOS_Lab/iot_link/os/liteos/include\los_list.h ****  *@attention
  68:C:/Users/dtjld/Desktop/AIoT_software/LiteOS_Lab_overseas/LiteOS_Lab/iot_link/os/liteos/include\los_list.h ****  *<ul>
  69:C:/Users/dtjld/Desktop/AIoT_software/LiteOS_Lab_overseas/LiteOS_Lab/iot_link/os/liteos/include\los_list.h ****  *<li>The parameter passed in should be ensured to be a legal pointer.</li>
  70:C:/Users/dtjld/Desktop/AIoT_software/LiteOS_Lab_overseas/LiteOS_Lab/iot_link/os/liteos/include\los_list.h ****  *</ul>
  71:C:/Users/dtjld/Desktop/AIoT_software/LiteOS_Lab_overseas/LiteOS_Lab/iot_link/os/liteos/include\los_list.h ****  *
  72:C:/Users/dtjld/Desktop/AIoT_software/LiteOS_Lab_overseas/LiteOS_Lab/iot_link/os/liteos/include\los_list.h ****  *@param pstList    [IN] Node in a doubly linked list.
  73:C:/Users/dtjld/Desktop/AIoT_software/LiteOS_Lab_overseas/LiteOS_Lab/iot_link/os/liteos/include\los_list.h ****  *
  74:C:/Users/dtjld/Desktop/AIoT_software/LiteOS_Lab_overseas/LiteOS_Lab/iot_link/os/liteos/include\los_list.h ****  *@retval None.
  75:C:/Users/dtjld/Desktop/AIoT_software/LiteOS_Lab_overseas/LiteOS_Lab/iot_link/os/liteos/include\los_list.h ****  *@par Dependency:
  76:C:/Users/dtjld/Desktop/AIoT_software/LiteOS_Lab_overseas/LiteOS_Lab/iot_link/os/liteos/include\los_list.h ****  *<ul><li>los_list.h: the header file that contains the API declaration.</li></ul>
  77:C:/Users/dtjld/Desktop/AIoT_software/LiteOS_Lab_overseas/LiteOS_Lab/iot_link/os/liteos/include\los_list.h ****  *@see
  78:C:/Users/dtjld/Desktop/AIoT_software/LiteOS_Lab_overseas/LiteOS_Lab/iot_link/os/liteos/include\los_list.h ****  *@since Huawei LiteOS V100R001C00
  79:C:/Users/dtjld/Desktop/AIoT_software/LiteOS_Lab_overseas/LiteOS_Lab/iot_link/os/liteos/include\los_list.h ****  */
  80:C:/Users/dtjld/Desktop/AIoT_software/LiteOS_Lab_overseas/LiteOS_Lab/iot_link/os/liteos/include\los_list.h **** LITE_OS_SEC_ALW_INLINE STATIC_INLINE VOID LOS_ListInit(LOS_DL_LIST *pstList)
  81:C:/Users/dtjld/Desktop/AIoT_software/LiteOS_Lab_overseas/LiteOS_Lab/iot_link/os/liteos/include\los_list.h **** {
  27              		.loc 1 81 0
  28              		.cfi_startproc
  29              		@ args = 0, pretend = 0, frame = 8
  30              		@ frame_needed = 1, uses_anonymous_args = 0
  31              		@ link register save eliminated.
  32 0000 80B4     		push	{r7}
  33              	.LCFI0:
  34              		.cfi_def_cfa_offset 4
ARM GAS  C:\Users\dtjld\AppData\Local\Temp\ccU8krAq.s 			page 3


  35              		.cfi_offset 7, -4
  36 0002 83B0     		sub	sp, sp, #12
  37              	.LCFI1:
  38              		.cfi_def_cfa_offset 16
  39 0004 00AF     		add	r7, sp, #0
  40              	.LCFI2:
  41              		.cfi_def_cfa_register 7
  42 0006 7860     		str	r0, [r7, #4]
  82:C:/Users/dtjld/Desktop/AIoT_software/LiteOS_Lab_overseas/LiteOS_Lab/iot_link/os/liteos/include\los_list.h ****     pstList->pstNext = pstList;
  43              		.loc 1 82 0
  44 0008 7B68     		ldr	r3, [r7, #4]
  45 000a 7A68     		ldr	r2, [r7, #4]
  46 000c 5A60     		str	r2, [r3, #4]
  83:C:/Users/dtjld/Desktop/AIoT_software/LiteOS_Lab_overseas/LiteOS_Lab/iot_link/os/liteos/include\los_list.h ****     pstList->pstPrev = pstList;
  47              		.loc 1 83 0
  48 000e 7B68     		ldr	r3, [r7, #4]
  49 0010 7A68     		ldr	r2, [r7, #4]
  50 0012 1A60     		str	r2, [r3]
  84:C:/Users/dtjld/Desktop/AIoT_software/LiteOS_Lab_overseas/LiteOS_Lab/iot_link/os/liteos/include\los_list.h **** }
  51              		.loc 1 84 0
  52 0014 00BF     		nop
  53 0016 0C37     		adds	r7, r7, #12
  54              	.LCFI3:
  55              		.cfi_def_cfa_offset 4
  56 0018 BD46     		mov	sp, r7
  57              	.LCFI4:
  58              		.cfi_def_cfa_register 13
  59              		@ sp needed
  60 001a 5DF8047B 		ldr	r7, [sp], #4
  61              	.LCFI5:
  62              		.cfi_restore 7
  63              		.cfi_def_cfa_offset 0
  64 001e 7047     		bx	lr
  65              		.cfi_endproc
  66              	.LFE123:
  68              		.section	.text.LOS_ListAdd,"ax",%progbits
  69              		.align	1
  70              		.syntax unified
  71              		.thumb
  72              		.thumb_func
  73              		.fpu fpv4-sp-d16
  75              	LOS_ListAdd:
  76              	.LFB124:
  85:C:/Users/dtjld/Desktop/AIoT_software/LiteOS_Lab_overseas/LiteOS_Lab/iot_link/os/liteos/include\los_list.h **** 
  86:C:/Users/dtjld/Desktop/AIoT_software/LiteOS_Lab_overseas/LiteOS_Lab/iot_link/os/liteos/include\los_list.h **** /**
  87:C:/Users/dtjld/Desktop/AIoT_software/LiteOS_Lab_overseas/LiteOS_Lab/iot_link/os/liteos/include\los_list.h ****  *@ingroup los_list
  88:C:/Users/dtjld/Desktop/AIoT_software/LiteOS_Lab_overseas/LiteOS_Lab/iot_link/os/liteos/include\los_list.h ****  *@brief Point to the next node pointed to by the current node.
  89:C:/Users/dtjld/Desktop/AIoT_software/LiteOS_Lab_overseas/LiteOS_Lab/iot_link/os/liteos/include\los_list.h ****  *
  90:C:/Users/dtjld/Desktop/AIoT_software/LiteOS_Lab_overseas/LiteOS_Lab/iot_link/os/liteos/include\los_list.h ****  *@par Description:
  91:C:/Users/dtjld/Desktop/AIoT_software/LiteOS_Lab_overseas/LiteOS_Lab/iot_link/os/liteos/include\los_list.h ****  *<ul>
  92:C:/Users/dtjld/Desktop/AIoT_software/LiteOS_Lab_overseas/LiteOS_Lab/iot_link/os/liteos/include\los_list.h ****  *<li>This API is used to point to the next node pointed to by the current node.</li>
  93:C:/Users/dtjld/Desktop/AIoT_software/LiteOS_Lab_overseas/LiteOS_Lab/iot_link/os/liteos/include\los_list.h ****  *</ul>
  94:C:/Users/dtjld/Desktop/AIoT_software/LiteOS_Lab_overseas/LiteOS_Lab/iot_link/os/liteos/include\los_list.h ****  *@attention
  95:C:/Users/dtjld/Desktop/AIoT_software/LiteOS_Lab_overseas/LiteOS_Lab/iot_link/os/liteos/include\los_list.h ****  *<ul>
  96:C:/Users/dtjld/Desktop/AIoT_software/LiteOS_Lab_overseas/LiteOS_Lab/iot_link/os/liteos/include\los_list.h ****  *<li>None.</li>
  97:C:/Users/dtjld/Desktop/AIoT_software/LiteOS_Lab_overseas/LiteOS_Lab/iot_link/os/liteos/include\los_list.h ****  *</ul>
  98:C:/Users/dtjld/Desktop/AIoT_software/LiteOS_Lab_overseas/LiteOS_Lab/iot_link/os/liteos/include\los_list.h ****  *
ARM GAS  C:\Users\dtjld\AppData\Local\Temp\ccU8krAq.s 			page 4


  99:C:/Users/dtjld/Desktop/AIoT_software/LiteOS_Lab_overseas/LiteOS_Lab/iot_link/os/liteos/include\los_list.h ****  *@param pstObject  [IN] Node in the doubly linked list.
 100:C:/Users/dtjld/Desktop/AIoT_software/LiteOS_Lab_overseas/LiteOS_Lab/iot_link/os/liteos/include\los_list.h ****  *
 101:C:/Users/dtjld/Desktop/AIoT_software/LiteOS_Lab_overseas/LiteOS_Lab/iot_link/os/liteos/include\los_list.h ****  *@retval None.
 102:C:/Users/dtjld/Desktop/AIoT_software/LiteOS_Lab_overseas/LiteOS_Lab/iot_link/os/liteos/include\los_list.h ****  *@par Dependency:
 103:C:/Users/dtjld/Desktop/AIoT_software/LiteOS_Lab_overseas/LiteOS_Lab/iot_link/os/liteos/include\los_list.h ****  *<ul><li>los_list.h: the header file that contains the API declaration.</li></ul>
 104:C:/Users/dtjld/Desktop/AIoT_software/LiteOS_Lab_overseas/LiteOS_Lab/iot_link/os/liteos/include\los_list.h ****  *@see
 105:C:/Users/dtjld/Desktop/AIoT_software/LiteOS_Lab_overseas/LiteOS_Lab/iot_link/os/liteos/include\los_list.h ****  *@since Huawei LiteOS V100R001C00
 106:C:/Users/dtjld/Desktop/AIoT_software/LiteOS_Lab_overseas/LiteOS_Lab/iot_link/os/liteos/include\los_list.h ****  */
 107:C:/Users/dtjld/Desktop/AIoT_software/LiteOS_Lab_overseas/LiteOS_Lab/iot_link/os/liteos/include\los_list.h **** #define LOS_DL_LIST_FIRST(pstObject) ((pstObject)->pstNext)
 108:C:/Users/dtjld/Desktop/AIoT_software/LiteOS_Lab_overseas/LiteOS_Lab/iot_link/os/liteos/include\los_list.h **** 
 109:C:/Users/dtjld/Desktop/AIoT_software/LiteOS_Lab_overseas/LiteOS_Lab/iot_link/os/liteos/include\los_list.h **** /**
 110:C:/Users/dtjld/Desktop/AIoT_software/LiteOS_Lab_overseas/LiteOS_Lab/iot_link/os/liteos/include\los_list.h ****  *@ingroup los_list
 111:C:/Users/dtjld/Desktop/AIoT_software/LiteOS_Lab_overseas/LiteOS_Lab/iot_link/os/liteos/include\los_list.h ****  *@brief Insert a new node to a doubly linked list.
 112:C:/Users/dtjld/Desktop/AIoT_software/LiteOS_Lab_overseas/LiteOS_Lab/iot_link/os/liteos/include\los_list.h ****  *
 113:C:/Users/dtjld/Desktop/AIoT_software/LiteOS_Lab_overseas/LiteOS_Lab/iot_link/os/liteos/include\los_list.h ****  *@par Description:
 114:C:/Users/dtjld/Desktop/AIoT_software/LiteOS_Lab_overseas/LiteOS_Lab/iot_link/os/liteos/include\los_list.h ****  *This API is used to insert a new node to a doubly linked list.
 115:C:/Users/dtjld/Desktop/AIoT_software/LiteOS_Lab_overseas/LiteOS_Lab/iot_link/os/liteos/include\los_list.h ****  *@attention
 116:C:/Users/dtjld/Desktop/AIoT_software/LiteOS_Lab_overseas/LiteOS_Lab/iot_link/os/liteos/include\los_list.h ****  *<ul>
 117:C:/Users/dtjld/Desktop/AIoT_software/LiteOS_Lab_overseas/LiteOS_Lab/iot_link/os/liteos/include\los_list.h ****  *<li>The parameters passed in should be ensured to be legal pointers.</li>
 118:C:/Users/dtjld/Desktop/AIoT_software/LiteOS_Lab_overseas/LiteOS_Lab/iot_link/os/liteos/include\los_list.h ****  *</ul>
 119:C:/Users/dtjld/Desktop/AIoT_software/LiteOS_Lab_overseas/LiteOS_Lab/iot_link/os/liteos/include\los_list.h ****  *
 120:C:/Users/dtjld/Desktop/AIoT_software/LiteOS_Lab_overseas/LiteOS_Lab/iot_link/os/liteos/include\los_list.h ****  *@param pstList    [IN]   Doubly linked list where the new node is inserted.
 121:C:/Users/dtjld/Desktop/AIoT_software/LiteOS_Lab_overseas/LiteOS_Lab/iot_link/os/liteos/include\los_list.h ****  *@param pstNode    [IN]   New node to be inserted.
 122:C:/Users/dtjld/Desktop/AIoT_software/LiteOS_Lab_overseas/LiteOS_Lab/iot_link/os/liteos/include\los_list.h ****  *
 123:C:/Users/dtjld/Desktop/AIoT_software/LiteOS_Lab_overseas/LiteOS_Lab/iot_link/os/liteos/include\los_list.h ****  *@retval None
 124:C:/Users/dtjld/Desktop/AIoT_software/LiteOS_Lab_overseas/LiteOS_Lab/iot_link/os/liteos/include\los_list.h ****  *@par Dependency:
 125:C:/Users/dtjld/Desktop/AIoT_software/LiteOS_Lab_overseas/LiteOS_Lab/iot_link/os/liteos/include\los_list.h ****  *<ul><li>los_list.h: the header file that contains the API declaration.</li></ul>
 126:C:/Users/dtjld/Desktop/AIoT_software/LiteOS_Lab_overseas/LiteOS_Lab/iot_link/os/liteos/include\los_list.h ****  *@see LOS_ListDelete
 127:C:/Users/dtjld/Desktop/AIoT_software/LiteOS_Lab_overseas/LiteOS_Lab/iot_link/os/liteos/include\los_list.h ****  *@since Huawei LiteOS V100R001C00
 128:C:/Users/dtjld/Desktop/AIoT_software/LiteOS_Lab_overseas/LiteOS_Lab/iot_link/os/liteos/include\los_list.h ****  */
 129:C:/Users/dtjld/Desktop/AIoT_software/LiteOS_Lab_overseas/LiteOS_Lab/iot_link/os/liteos/include\los_list.h **** LITE_OS_SEC_ALW_INLINE STATIC_INLINE VOID LOS_ListAdd(LOS_DL_LIST *pstList, LOS_DL_LIST *pstNode)
 130:C:/Users/dtjld/Desktop/AIoT_software/LiteOS_Lab_overseas/LiteOS_Lab/iot_link/os/liteos/include\los_list.h **** {
  77              		.loc 1 130 0
  78              		.cfi_startproc
  79              		@ args = 0, pretend = 0, frame = 8
  80              		@ frame_needed = 1, uses_anonymous_args = 0
  81              		@ link register save eliminated.
  82 0000 80B4     		push	{r7}
  83              	.LCFI6:
  84              		.cfi_def_cfa_offset 4
  85              		.cfi_offset 7, -4
  86 0002 83B0     		sub	sp, sp, #12
  87              	.LCFI7:
  88              		.cfi_def_cfa_offset 16
  89 0004 00AF     		add	r7, sp, #0
  90              	.LCFI8:
  91              		.cfi_def_cfa_register 7
  92 0006 7860     		str	r0, [r7, #4]
  93 0008 3960     		str	r1, [r7]
 131:C:/Users/dtjld/Desktop/AIoT_software/LiteOS_Lab_overseas/LiteOS_Lab/iot_link/os/liteos/include\los_list.h ****     pstNode->pstNext = pstList->pstNext;
  94              		.loc 1 131 0
  95 000a 7B68     		ldr	r3, [r7, #4]
  96 000c 5A68     		ldr	r2, [r3, #4]
  97 000e 3B68     		ldr	r3, [r7]
  98 0010 5A60     		str	r2, [r3, #4]
 132:C:/Users/dtjld/Desktop/AIoT_software/LiteOS_Lab_overseas/LiteOS_Lab/iot_link/os/liteos/include\los_list.h ****     pstNode->pstPrev = pstList;
  99              		.loc 1 132 0
ARM GAS  C:\Users\dtjld\AppData\Local\Temp\ccU8krAq.s 			page 5


 100 0012 3B68     		ldr	r3, [r7]
 101 0014 7A68     		ldr	r2, [r7, #4]
 102 0016 1A60     		str	r2, [r3]
 133:C:/Users/dtjld/Desktop/AIoT_software/LiteOS_Lab_overseas/LiteOS_Lab/iot_link/os/liteos/include\los_list.h ****     pstList->pstNext->pstPrev = pstNode;
 103              		.loc 1 133 0
 104 0018 7B68     		ldr	r3, [r7, #4]
 105 001a 5B68     		ldr	r3, [r3, #4]
 106 001c 3A68     		ldr	r2, [r7]
 107 001e 1A60     		str	r2, [r3]
 134:C:/Users/dtjld/Desktop/AIoT_software/LiteOS_Lab_overseas/LiteOS_Lab/iot_link/os/liteos/include\los_list.h ****     pstList->pstNext = pstNode;
 108              		.loc 1 134 0
 109 0020 7B68     		ldr	r3, [r7, #4]
 110 0022 3A68     		ldr	r2, [r7]
 111 0024 5A60     		str	r2, [r3, #4]
 135:C:/Users/dtjld/Desktop/AIoT_software/LiteOS_Lab_overseas/LiteOS_Lab/iot_link/os/liteos/include\los_list.h **** }
 112              		.loc 1 135 0
 113 0026 00BF     		nop
 114 0028 0C37     		adds	r7, r7, #12
 115              	.LCFI9:
 116              		.cfi_def_cfa_offset 4
 117 002a BD46     		mov	sp, r7
 118              	.LCFI10:
 119              		.cfi_def_cfa_register 13
 120              		@ sp needed
 121 002c 5DF8047B 		ldr	r7, [sp], #4
 122              	.LCFI11:
 123              		.cfi_restore 7
 124              		.cfi_def_cfa_offset 0
 125 0030 7047     		bx	lr
 126              		.cfi_endproc
 127              	.LFE124:
 129              		.section	.text.LOS_ListTailInsert,"ax",%progbits
 130              		.align	1
 131              		.syntax unified
 132              		.thumb
 133              		.thumb_func
 134              		.fpu fpv4-sp-d16
 136              	LOS_ListTailInsert:
 137              	.LFB125:
 136:C:/Users/dtjld/Desktop/AIoT_software/LiteOS_Lab_overseas/LiteOS_Lab/iot_link/os/liteos/include\los_list.h **** 
 137:C:/Users/dtjld/Desktop/AIoT_software/LiteOS_Lab_overseas/LiteOS_Lab/iot_link/os/liteos/include\los_list.h **** /**
 138:C:/Users/dtjld/Desktop/AIoT_software/LiteOS_Lab_overseas/LiteOS_Lab/iot_link/os/liteos/include\los_list.h ****  *@ingroup los_list
 139:C:/Users/dtjld/Desktop/AIoT_software/LiteOS_Lab_overseas/LiteOS_Lab/iot_link/os/liteos/include\los_list.h ****  *@brief Insert a node to the tail of a doubly linked list.
 140:C:/Users/dtjld/Desktop/AIoT_software/LiteOS_Lab_overseas/LiteOS_Lab/iot_link/os/liteos/include\los_list.h ****  *
 141:C:/Users/dtjld/Desktop/AIoT_software/LiteOS_Lab_overseas/LiteOS_Lab/iot_link/os/liteos/include\los_list.h ****  *@par Description:
 142:C:/Users/dtjld/Desktop/AIoT_software/LiteOS_Lab_overseas/LiteOS_Lab/iot_link/os/liteos/include\los_list.h ****  *This API is used to insert a new node to the tail of a doubly linked list.
 143:C:/Users/dtjld/Desktop/AIoT_software/LiteOS_Lab_overseas/LiteOS_Lab/iot_link/os/liteos/include\los_list.h ****  *@attention
 144:C:/Users/dtjld/Desktop/AIoT_software/LiteOS_Lab_overseas/LiteOS_Lab/iot_link/os/liteos/include\los_list.h ****  *<ul>
 145:C:/Users/dtjld/Desktop/AIoT_software/LiteOS_Lab_overseas/LiteOS_Lab/iot_link/os/liteos/include\los_list.h ****  *<li>The parameters passed in should be ensured to be legal pointers.</li>
 146:C:/Users/dtjld/Desktop/AIoT_software/LiteOS_Lab_overseas/LiteOS_Lab/iot_link/os/liteos/include\los_list.h ****  *</ul>
 147:C:/Users/dtjld/Desktop/AIoT_software/LiteOS_Lab_overseas/LiteOS_Lab/iot_link/os/liteos/include\los_list.h ****  *
 148:C:/Users/dtjld/Desktop/AIoT_software/LiteOS_Lab_overseas/LiteOS_Lab/iot_link/os/liteos/include\los_list.h ****  *@param pstList     [IN] Doubly linked list where the new node is inserted.
 149:C:/Users/dtjld/Desktop/AIoT_software/LiteOS_Lab_overseas/LiteOS_Lab/iot_link/os/liteos/include\los_list.h ****  *@param pstNode     [IN] New node to be inserted.
 150:C:/Users/dtjld/Desktop/AIoT_software/LiteOS_Lab_overseas/LiteOS_Lab/iot_link/os/liteos/include\los_list.h ****  *
 151:C:/Users/dtjld/Desktop/AIoT_software/LiteOS_Lab_overseas/LiteOS_Lab/iot_link/os/liteos/include\los_list.h ****  *@retval None.
 152:C:/Users/dtjld/Desktop/AIoT_software/LiteOS_Lab_overseas/LiteOS_Lab/iot_link/os/liteos/include\los_list.h ****  *@par Dependency:
 153:C:/Users/dtjld/Desktop/AIoT_software/LiteOS_Lab_overseas/LiteOS_Lab/iot_link/os/liteos/include\los_list.h ****  *<ul><li>los_list.h: the header file that contains the API declaration.</li></ul>
ARM GAS  C:\Users\dtjld\AppData\Local\Temp\ccU8krAq.s 			page 6


 154:C:/Users/dtjld/Desktop/AIoT_software/LiteOS_Lab_overseas/LiteOS_Lab/iot_link/os/liteos/include\los_list.h ****  *@see LOS_ListAdd | LOS_ListHeadInsert
 155:C:/Users/dtjld/Desktop/AIoT_software/LiteOS_Lab_overseas/LiteOS_Lab/iot_link/os/liteos/include\los_list.h ****  *@since Huawei LiteOS V100R001C00
 156:C:/Users/dtjld/Desktop/AIoT_software/LiteOS_Lab_overseas/LiteOS_Lab/iot_link/os/liteos/include\los_list.h ****  */
 157:C:/Users/dtjld/Desktop/AIoT_software/LiteOS_Lab_overseas/LiteOS_Lab/iot_link/os/liteos/include\los_list.h **** LITE_OS_SEC_ALW_INLINE STATIC_INLINE VOID LOS_ListTailInsert(LOS_DL_LIST *pstList, LOS_DL_LIST *pst
 158:C:/Users/dtjld/Desktop/AIoT_software/LiteOS_Lab_overseas/LiteOS_Lab/iot_link/os/liteos/include\los_list.h **** {
 138              		.loc 1 158 0
 139              		.cfi_startproc
 140              		@ args = 0, pretend = 0, frame = 8
 141              		@ frame_needed = 1, uses_anonymous_args = 0
 142 0000 80B5     		push	{r7, lr}
 143              	.LCFI12:
 144              		.cfi_def_cfa_offset 8
 145              		.cfi_offset 7, -8
 146              		.cfi_offset 14, -4
 147 0002 82B0     		sub	sp, sp, #8
 148              	.LCFI13:
 149              		.cfi_def_cfa_offset 16
 150 0004 00AF     		add	r7, sp, #0
 151              	.LCFI14:
 152              		.cfi_def_cfa_register 7
 153 0006 7860     		str	r0, [r7, #4]
 154 0008 3960     		str	r1, [r7]
 159:C:/Users/dtjld/Desktop/AIoT_software/LiteOS_Lab_overseas/LiteOS_Lab/iot_link/os/liteos/include\los_list.h ****     LOS_ListAdd(pstList->pstPrev, pstNode);
 155              		.loc 1 159 0
 156 000a 7B68     		ldr	r3, [r7, #4]
 157 000c 1B68     		ldr	r3, [r3]
 158 000e 3968     		ldr	r1, [r7]
 159 0010 1846     		mov	r0, r3
 160 0012 FFF7FEFF 		bl	LOS_ListAdd
 160:C:/Users/dtjld/Desktop/AIoT_software/LiteOS_Lab_overseas/LiteOS_Lab/iot_link/os/liteos/include\los_list.h **** }
 161              		.loc 1 160 0
 162 0016 00BF     		nop
 163 0018 0837     		adds	r7, r7, #8
 164              	.LCFI15:
 165              		.cfi_def_cfa_offset 8
 166 001a BD46     		mov	sp, r7
 167              	.LCFI16:
 168              		.cfi_def_cfa_register 13
 169              		@ sp needed
 170 001c 80BD     		pop	{r7, pc}
 171              		.cfi_endproc
 172              	.LFE125:
 174              		.section	.text.LOS_ListDelete,"ax",%progbits
 175              		.align	1
 176              		.syntax unified
 177              		.thumb
 178              		.thumb_func
 179              		.fpu fpv4-sp-d16
 181              	LOS_ListDelete:
 182              	.LFB126:
 161:C:/Users/dtjld/Desktop/AIoT_software/LiteOS_Lab_overseas/LiteOS_Lab/iot_link/os/liteos/include\los_list.h **** 
 162:C:/Users/dtjld/Desktop/AIoT_software/LiteOS_Lab_overseas/LiteOS_Lab/iot_link/os/liteos/include\los_list.h **** /**
 163:C:/Users/dtjld/Desktop/AIoT_software/LiteOS_Lab_overseas/LiteOS_Lab/iot_link/os/liteos/include\los_list.h ****  *@ingroup los_list
 164:C:/Users/dtjld/Desktop/AIoT_software/LiteOS_Lab_overseas/LiteOS_Lab/iot_link/os/liteos/include\los_list.h ****  *@brief Delete a specified node from a doubly linked list.
 165:C:/Users/dtjld/Desktop/AIoT_software/LiteOS_Lab_overseas/LiteOS_Lab/iot_link/os/liteos/include\los_list.h ****  *
 166:C:/Users/dtjld/Desktop/AIoT_software/LiteOS_Lab_overseas/LiteOS_Lab/iot_link/os/liteos/include\los_list.h ****  *@par Description:
 167:C:/Users/dtjld/Desktop/AIoT_software/LiteOS_Lab_overseas/LiteOS_Lab/iot_link/os/liteos/include\los_list.h ****  *<ul>
ARM GAS  C:\Users\dtjld\AppData\Local\Temp\ccU8krAq.s 			page 7


 168:C:/Users/dtjld/Desktop/AIoT_software/LiteOS_Lab_overseas/LiteOS_Lab/iot_link/os/liteos/include\los_list.h ****  *<li>This API is used to delete a specified node from a doubly linked list.</li>
 169:C:/Users/dtjld/Desktop/AIoT_software/LiteOS_Lab_overseas/LiteOS_Lab/iot_link/os/liteos/include\los_list.h ****  *</ul>
 170:C:/Users/dtjld/Desktop/AIoT_software/LiteOS_Lab_overseas/LiteOS_Lab/iot_link/os/liteos/include\los_list.h ****  *@attention
 171:C:/Users/dtjld/Desktop/AIoT_software/LiteOS_Lab_overseas/LiteOS_Lab/iot_link/os/liteos/include\los_list.h ****  *<ul>
 172:C:/Users/dtjld/Desktop/AIoT_software/LiteOS_Lab_overseas/LiteOS_Lab/iot_link/os/liteos/include\los_list.h ****  *<li>The parameter passed in should be ensured to be a legal pointer.</li>
 173:C:/Users/dtjld/Desktop/AIoT_software/LiteOS_Lab_overseas/LiteOS_Lab/iot_link/os/liteos/include\los_list.h ****  *</ul>
 174:C:/Users/dtjld/Desktop/AIoT_software/LiteOS_Lab_overseas/LiteOS_Lab/iot_link/os/liteos/include\los_list.h ****  *
 175:C:/Users/dtjld/Desktop/AIoT_software/LiteOS_Lab_overseas/LiteOS_Lab/iot_link/os/liteos/include\los_list.h ****  *@param pstNode    [IN] Node to be deleted.
 176:C:/Users/dtjld/Desktop/AIoT_software/LiteOS_Lab_overseas/LiteOS_Lab/iot_link/os/liteos/include\los_list.h ****  *
 177:C:/Users/dtjld/Desktop/AIoT_software/LiteOS_Lab_overseas/LiteOS_Lab/iot_link/os/liteos/include\los_list.h ****  *@retval None.
 178:C:/Users/dtjld/Desktop/AIoT_software/LiteOS_Lab_overseas/LiteOS_Lab/iot_link/os/liteos/include\los_list.h ****  *@par Dependency:
 179:C:/Users/dtjld/Desktop/AIoT_software/LiteOS_Lab_overseas/LiteOS_Lab/iot_link/os/liteos/include\los_list.h ****  *<ul><li>los_list.h: the header file that contains the API declaration.</li></ul>
 180:C:/Users/dtjld/Desktop/AIoT_software/LiteOS_Lab_overseas/LiteOS_Lab/iot_link/os/liteos/include\los_list.h ****  *@see LOS_ListAdd
 181:C:/Users/dtjld/Desktop/AIoT_software/LiteOS_Lab_overseas/LiteOS_Lab/iot_link/os/liteos/include\los_list.h ****  *@since Huawei LiteOS V100R001C00
 182:C:/Users/dtjld/Desktop/AIoT_software/LiteOS_Lab_overseas/LiteOS_Lab/iot_link/os/liteos/include\los_list.h ****  */
 183:C:/Users/dtjld/Desktop/AIoT_software/LiteOS_Lab_overseas/LiteOS_Lab/iot_link/os/liteos/include\los_list.h **** LITE_OS_SEC_ALW_INLINE STATIC_INLINE VOID LOS_ListDelete(LOS_DL_LIST *pstNode)
 184:C:/Users/dtjld/Desktop/AIoT_software/LiteOS_Lab_overseas/LiteOS_Lab/iot_link/os/liteos/include\los_list.h **** {
 183              		.loc 1 184 0
 184              		.cfi_startproc
 185              		@ args = 0, pretend = 0, frame = 8
 186              		@ frame_needed = 1, uses_anonymous_args = 0
 187              		@ link register save eliminated.
 188 0000 80B4     		push	{r7}
 189              	.LCFI17:
 190              		.cfi_def_cfa_offset 4
 191              		.cfi_offset 7, -4
 192 0002 83B0     		sub	sp, sp, #12
 193              	.LCFI18:
 194              		.cfi_def_cfa_offset 16
 195 0004 00AF     		add	r7, sp, #0
 196              	.LCFI19:
 197              		.cfi_def_cfa_register 7
 198 0006 7860     		str	r0, [r7, #4]
 185:C:/Users/dtjld/Desktop/AIoT_software/LiteOS_Lab_overseas/LiteOS_Lab/iot_link/os/liteos/include\los_list.h ****     pstNode->pstNext->pstPrev = pstNode->pstPrev;
 199              		.loc 1 185 0
 200 0008 7B68     		ldr	r3, [r7, #4]
 201 000a 5B68     		ldr	r3, [r3, #4]
 202 000c 7A68     		ldr	r2, [r7, #4]
 203 000e 1268     		ldr	r2, [r2]
 204 0010 1A60     		str	r2, [r3]
 186:C:/Users/dtjld/Desktop/AIoT_software/LiteOS_Lab_overseas/LiteOS_Lab/iot_link/os/liteos/include\los_list.h ****     pstNode->pstPrev->pstNext = pstNode->pstNext;
 205              		.loc 1 186 0
 206 0012 7B68     		ldr	r3, [r7, #4]
 207 0014 1B68     		ldr	r3, [r3]
 208 0016 7A68     		ldr	r2, [r7, #4]
 209 0018 5268     		ldr	r2, [r2, #4]
 210 001a 5A60     		str	r2, [r3, #4]
 187:C:/Users/dtjld/Desktop/AIoT_software/LiteOS_Lab_overseas/LiteOS_Lab/iot_link/os/liteos/include\los_list.h ****     pstNode->pstNext = (LOS_DL_LIST *)NULL;
 211              		.loc 1 187 0
 212 001c 7B68     		ldr	r3, [r7, #4]
 213 001e 0022     		movs	r2, #0
 214 0020 5A60     		str	r2, [r3, #4]
 188:C:/Users/dtjld/Desktop/AIoT_software/LiteOS_Lab_overseas/LiteOS_Lab/iot_link/os/liteos/include\los_list.h ****     pstNode->pstPrev = (LOS_DL_LIST *)NULL;
 215              		.loc 1 188 0
 216 0022 7B68     		ldr	r3, [r7, #4]
 217 0024 0022     		movs	r2, #0
 218 0026 1A60     		str	r2, [r3]
ARM GAS  C:\Users\dtjld\AppData\Local\Temp\ccU8krAq.s 			page 8


 189:C:/Users/dtjld/Desktop/AIoT_software/LiteOS_Lab_overseas/LiteOS_Lab/iot_link/os/liteos/include\los_list.h **** }
 219              		.loc 1 189 0
 220 0028 00BF     		nop
 221 002a 0C37     		adds	r7, r7, #12
 222              	.LCFI20:
 223              		.cfi_def_cfa_offset 4
 224 002c BD46     		mov	sp, r7
 225              	.LCFI21:
 226              		.cfi_def_cfa_register 13
 227              		@ sp needed
 228 002e 5DF8047B 		ldr	r7, [sp], #4
 229              	.LCFI22:
 230              		.cfi_restore 7
 231              		.cfi_def_cfa_offset 0
 232 0032 7047     		bx	lr
 233              		.cfi_endproc
 234              	.LFE126:
 236              		.section	.text.LOS_ListEmpty,"ax",%progbits
 237              		.align	1
 238              		.syntax unified
 239              		.thumb
 240              		.thumb_func
 241              		.fpu fpv4-sp-d16
 243              	LOS_ListEmpty:
 244              	.LFB127:
 190:C:/Users/dtjld/Desktop/AIoT_software/LiteOS_Lab_overseas/LiteOS_Lab/iot_link/os/liteos/include\los_list.h **** 
 191:C:/Users/dtjld/Desktop/AIoT_software/LiteOS_Lab_overseas/LiteOS_Lab/iot_link/os/liteos/include\los_list.h **** /**
 192:C:/Users/dtjld/Desktop/AIoT_software/LiteOS_Lab_overseas/LiteOS_Lab/iot_link/os/liteos/include\los_list.h ****  *@ingroup los_list
 193:C:/Users/dtjld/Desktop/AIoT_software/LiteOS_Lab_overseas/LiteOS_Lab/iot_link/os/liteos/include\los_list.h ****  *@brief Identify whether a specified doubly linked list is empty.
 194:C:/Users/dtjld/Desktop/AIoT_software/LiteOS_Lab_overseas/LiteOS_Lab/iot_link/os/liteos/include\los_list.h ****  *
 195:C:/Users/dtjld/Desktop/AIoT_software/LiteOS_Lab_overseas/LiteOS_Lab/iot_link/os/liteos/include\los_list.h ****  *@par Description:
 196:C:/Users/dtjld/Desktop/AIoT_software/LiteOS_Lab_overseas/LiteOS_Lab/iot_link/os/liteos/include\los_list.h ****  *<ul>
 197:C:/Users/dtjld/Desktop/AIoT_software/LiteOS_Lab_overseas/LiteOS_Lab/iot_link/os/liteos/include\los_list.h ****  *<li>This API is used to return whether a doubly linked list is empty.</li>
 198:C:/Users/dtjld/Desktop/AIoT_software/LiteOS_Lab_overseas/LiteOS_Lab/iot_link/os/liteos/include\los_list.h ****  *</ul>
 199:C:/Users/dtjld/Desktop/AIoT_software/LiteOS_Lab_overseas/LiteOS_Lab/iot_link/os/liteos/include\los_list.h ****  *@attention
 200:C:/Users/dtjld/Desktop/AIoT_software/LiteOS_Lab_overseas/LiteOS_Lab/iot_link/os/liteos/include\los_list.h ****  *<ul>
 201:C:/Users/dtjld/Desktop/AIoT_software/LiteOS_Lab_overseas/LiteOS_Lab/iot_link/os/liteos/include\los_list.h ****  *<li>The parameter passed in should be ensured to be a legal pointer.</li>
 202:C:/Users/dtjld/Desktop/AIoT_software/LiteOS_Lab_overseas/LiteOS_Lab/iot_link/os/liteos/include\los_list.h ****  *</ul>
 203:C:/Users/dtjld/Desktop/AIoT_software/LiteOS_Lab_overseas/LiteOS_Lab/iot_link/os/liteos/include\los_list.h ****  *
 204:C:/Users/dtjld/Desktop/AIoT_software/LiteOS_Lab_overseas/LiteOS_Lab/iot_link/os/liteos/include\los_list.h ****  *@param pstList  [IN] Doubly linked list.
 205:C:/Users/dtjld/Desktop/AIoT_software/LiteOS_Lab_overseas/LiteOS_Lab/iot_link/os/liteos/include\los_list.h ****  *
 206:C:/Users/dtjld/Desktop/AIoT_software/LiteOS_Lab_overseas/LiteOS_Lab/iot_link/os/liteos/include\los_list.h ****  *@retval TRUE The doubly linked list is empty.
 207:C:/Users/dtjld/Desktop/AIoT_software/LiteOS_Lab_overseas/LiteOS_Lab/iot_link/os/liteos/include\los_list.h ****  *@retval FALSE The doubly linked list is not empty.
 208:C:/Users/dtjld/Desktop/AIoT_software/LiteOS_Lab_overseas/LiteOS_Lab/iot_link/os/liteos/include\los_list.h ****  *@par Dependency:
 209:C:/Users/dtjld/Desktop/AIoT_software/LiteOS_Lab_overseas/LiteOS_Lab/iot_link/os/liteos/include\los_list.h ****  *<ul><li>los_list.h: the header file that contains the API declaration.</li></ul>
 210:C:/Users/dtjld/Desktop/AIoT_software/LiteOS_Lab_overseas/LiteOS_Lab/iot_link/os/liteos/include\los_list.h ****  *@see
 211:C:/Users/dtjld/Desktop/AIoT_software/LiteOS_Lab_overseas/LiteOS_Lab/iot_link/os/liteos/include\los_list.h ****  *@since Huawei LiteOS V100R001C00
 212:C:/Users/dtjld/Desktop/AIoT_software/LiteOS_Lab_overseas/LiteOS_Lab/iot_link/os/liteos/include\los_list.h ****  */
 213:C:/Users/dtjld/Desktop/AIoT_software/LiteOS_Lab_overseas/LiteOS_Lab/iot_link/os/liteos/include\los_list.h **** LITE_OS_SEC_ALW_INLINE STATIC_INLINE BOOL LOS_ListEmpty(LOS_DL_LIST *pstNode)
 214:C:/Users/dtjld/Desktop/AIoT_software/LiteOS_Lab_overseas/LiteOS_Lab/iot_link/os/liteos/include\los_list.h **** {
 245              		.loc 1 214 0
 246              		.cfi_startproc
 247              		@ args = 0, pretend = 0, frame = 8
 248              		@ frame_needed = 1, uses_anonymous_args = 0
 249              		@ link register save eliminated.
 250 0000 80B4     		push	{r7}
 251              	.LCFI23:
ARM GAS  C:\Users\dtjld\AppData\Local\Temp\ccU8krAq.s 			page 9


 252              		.cfi_def_cfa_offset 4
 253              		.cfi_offset 7, -4
 254 0002 83B0     		sub	sp, sp, #12
 255              	.LCFI24:
 256              		.cfi_def_cfa_offset 16
 257 0004 00AF     		add	r7, sp, #0
 258              	.LCFI25:
 259              		.cfi_def_cfa_register 7
 260 0006 7860     		str	r0, [r7, #4]
 215:C:/Users/dtjld/Desktop/AIoT_software/LiteOS_Lab_overseas/LiteOS_Lab/iot_link/os/liteos/include\los_list.h ****     return (BOOL)(pstNode->pstNext == pstNode);
 261              		.loc 1 215 0
 262 0008 7B68     		ldr	r3, [r7, #4]
 263 000a 5B68     		ldr	r3, [r3, #4]
 264 000c 7A68     		ldr	r2, [r7, #4]
 265 000e 9A42     		cmp	r2, r3
 266 0010 0CBF     		ite	eq
 267 0012 0123     		moveq	r3, #1
 268 0014 0023     		movne	r3, #0
 269 0016 DBB2     		uxtb	r3, r3
 216:C:/Users/dtjld/Desktop/AIoT_software/LiteOS_Lab_overseas/LiteOS_Lab/iot_link/os/liteos/include\los_list.h **** }
 270              		.loc 1 216 0
 271 0018 1846     		mov	r0, r3
 272 001a 0C37     		adds	r7, r7, #12
 273              	.LCFI26:
 274              		.cfi_def_cfa_offset 4
 275 001c BD46     		mov	sp, r7
 276              	.LCFI27:
 277              		.cfi_def_cfa_register 13
 278              		@ sp needed
 279 001e 5DF8047B 		ldr	r7, [sp], #4
 280              	.LCFI28:
 281              		.cfi_restore 7
 282              		.cfi_def_cfa_offset 0
 283 0022 7047     		bx	lr
 284              		.cfi_endproc
 285              	.LFE127:
 287              		.comm	g_pstTaskCBArray,4,4
 288              		.comm	g_stLosFreeTask,8,4
 289              		.comm	g_stTskRecyleList,8,4
 290              		.comm	g_stLosTask,8,4
 291              		.comm	g_usLosTaskLock,2,2
 292              		.comm	g_uwTskMaxNum,4,4
 293              		.comm	g_uwIdleTaskID,4,4
 294              		.comm	g_uwSwtmrTaskID,4,4
 295              		.comm	g_stTaskTimerList,8,4
 296              		.comm	g_stTskSortLink,8,4
 297              		.comm	g_bTaskScheduled,4,4
 298              		.global	g_pfnTskSwitchHook
 299              		.section	.bss.g_pfnTskSwitchHook,"aw",%nobits
 300              		.align	2
 303              	g_pfnTskSwitchHook:
 304 0000 00000000 		.space	4
 305              		.global	g_pfnUsrTskSwitchHook
 306              		.section	.bss.g_pfnUsrTskSwitchHook,"aw",%nobits
 307              		.align	2
 310              	g_pfnUsrTskSwitchHook:
 311 0000 00000000 		.space	4
ARM GAS  C:\Users\dtjld\AppData\Local\Temp\ccU8krAq.s 			page 10


 312              		.comm	g_astTskSwitchInfo,342,4
 313              		.section	.text.osIdleTask,"ax",%progbits
 314              		.align	1
 315              		.weak	osIdleTask
 316              		.syntax unified
 317              		.thumb
 318              		.thumb_func
 319              		.fpu fpv4-sp-d16
 321              	osIdleTask:
 322              	.LFB130:
 323              		.file 2 "C:/Users/dtjld/Desktop/AIoT_software/LiteOS_Lab_overseas/LiteOS_Lab/iot_link/os/liteos/ba
   1:C:/Users/dtjld/Desktop/AIoT_software/LiteOS_Lab_overseas/LiteOS_Lab/iot_link/os/liteos/base/core\los_task.c **** /*----------------------------------------------------------------------------
   2:C:/Users/dtjld/Desktop/AIoT_software/LiteOS_Lab_overseas/LiteOS_Lab/iot_link/os/liteos/base/core\los_task.c ****  * Copyright (c) <2013-2015>, <Huawei Technologies Co., Ltd>
   3:C:/Users/dtjld/Desktop/AIoT_software/LiteOS_Lab_overseas/LiteOS_Lab/iot_link/os/liteos/base/core\los_task.c ****  * All rights reserved.
   4:C:/Users/dtjld/Desktop/AIoT_software/LiteOS_Lab_overseas/LiteOS_Lab/iot_link/os/liteos/base/core\los_task.c ****  * Redistribution and use in source and binary forms, with or without modification,
   5:C:/Users/dtjld/Desktop/AIoT_software/LiteOS_Lab_overseas/LiteOS_Lab/iot_link/os/liteos/base/core\los_task.c ****  * are permitted provided that the following conditions are met:
   6:C:/Users/dtjld/Desktop/AIoT_software/LiteOS_Lab_overseas/LiteOS_Lab/iot_link/os/liteos/base/core\los_task.c ****  * 1. Redistributions of source code must retain the above copyright notice, this list of
   7:C:/Users/dtjld/Desktop/AIoT_software/LiteOS_Lab_overseas/LiteOS_Lab/iot_link/os/liteos/base/core\los_task.c ****  * conditions and the following disclaimer.
   8:C:/Users/dtjld/Desktop/AIoT_software/LiteOS_Lab_overseas/LiteOS_Lab/iot_link/os/liteos/base/core\los_task.c ****  * 2. Redistributions in binary form must reproduce the above copyright notice, this list
   9:C:/Users/dtjld/Desktop/AIoT_software/LiteOS_Lab_overseas/LiteOS_Lab/iot_link/os/liteos/base/core\los_task.c ****  * of conditions and the following disclaimer in the documentation and/or other materials
  10:C:/Users/dtjld/Desktop/AIoT_software/LiteOS_Lab_overseas/LiteOS_Lab/iot_link/os/liteos/base/core\los_task.c ****  * provided with the distribution.
  11:C:/Users/dtjld/Desktop/AIoT_software/LiteOS_Lab_overseas/LiteOS_Lab/iot_link/os/liteos/base/core\los_task.c ****  * 3. Neither the name of the copyright holder nor the names of its contributors may be used
  12:C:/Users/dtjld/Desktop/AIoT_software/LiteOS_Lab_overseas/LiteOS_Lab/iot_link/os/liteos/base/core\los_task.c ****  * to endorse or promote products derived from this software without specific prior written
  13:C:/Users/dtjld/Desktop/AIoT_software/LiteOS_Lab_overseas/LiteOS_Lab/iot_link/os/liteos/base/core\los_task.c ****  * permission.
  14:C:/Users/dtjld/Desktop/AIoT_software/LiteOS_Lab_overseas/LiteOS_Lab/iot_link/os/liteos/base/core\los_task.c ****  * THIS SOFTWARE IS PROVIDED BY THE COPYRIGHT HOLDERS AND CONTRIBUTORS
  15:C:/Users/dtjld/Desktop/AIoT_software/LiteOS_Lab_overseas/LiteOS_Lab/iot_link/os/liteos/base/core\los_task.c ****  * "AS IS" AND ANY EXPRESS OR IMPLIED WARRANTIES, INCLUDING, BUT NOT LIMITED TO,
  16:C:/Users/dtjld/Desktop/AIoT_software/LiteOS_Lab_overseas/LiteOS_Lab/iot_link/os/liteos/base/core\los_task.c ****  * THE IMPLIED WARRANTIES OF MERCHANTABILITY AND FITNESS FOR A PARTICULAR
  17:C:/Users/dtjld/Desktop/AIoT_software/LiteOS_Lab_overseas/LiteOS_Lab/iot_link/os/liteos/base/core\los_task.c ****  * PURPOSE ARE DISCLAIMED. IN NO EVENT SHALL THE COPYRIGHT HOLDER OR
  18:C:/Users/dtjld/Desktop/AIoT_software/LiteOS_Lab_overseas/LiteOS_Lab/iot_link/os/liteos/base/core\los_task.c ****  * CONTRIBUTORS BE LIABLE FOR ANY DIRECT, INDIRECT, INCIDENTAL, SPECIAL,
  19:C:/Users/dtjld/Desktop/AIoT_software/LiteOS_Lab_overseas/LiteOS_Lab/iot_link/os/liteos/base/core\los_task.c ****  * EXEMPLARY, OR CONSEQUENTIAL DAMAGES (INCLUDING, BUT NOT LIMITED TO,
  20:C:/Users/dtjld/Desktop/AIoT_software/LiteOS_Lab_overseas/LiteOS_Lab/iot_link/os/liteos/base/core\los_task.c ****  * PROCUREMENT OF SUBSTITUTE GOODS OR SERVICES; LOSS OF USE, DATA, OR PROFITS;
  21:C:/Users/dtjld/Desktop/AIoT_software/LiteOS_Lab_overseas/LiteOS_Lab/iot_link/os/liteos/base/core\los_task.c ****  * OR BUSINESS INTERRUPTION) HOWEVER CAUSED AND ON ANY THEORY OF LIABILITY,
  22:C:/Users/dtjld/Desktop/AIoT_software/LiteOS_Lab_overseas/LiteOS_Lab/iot_link/os/liteos/base/core\los_task.c ****  * WHETHER IN CONTRACT, STRICT LIABILITY, OR TORT (INCLUDING NEGLIGENCE OR
  23:C:/Users/dtjld/Desktop/AIoT_software/LiteOS_Lab_overseas/LiteOS_Lab/iot_link/os/liteos/base/core\los_task.c ****  * OTHERWISE) ARISING IN ANY WAY OUT OF THE USE OF THIS SOFTWARE, EVEN IF
  24:C:/Users/dtjld/Desktop/AIoT_software/LiteOS_Lab_overseas/LiteOS_Lab/iot_link/os/liteos/base/core\los_task.c ****  * ADVISED OF THE POSSIBILITY OF SUCH DAMAGE.
  25:C:/Users/dtjld/Desktop/AIoT_software/LiteOS_Lab_overseas/LiteOS_Lab/iot_link/os/liteos/base/core\los_task.c ****  *---------------------------------------------------------------------------*/
  26:C:/Users/dtjld/Desktop/AIoT_software/LiteOS_Lab_overseas/LiteOS_Lab/iot_link/os/liteos/base/core\los_task.c **** /*----------------------------------------------------------------------------
  27:C:/Users/dtjld/Desktop/AIoT_software/LiteOS_Lab_overseas/LiteOS_Lab/iot_link/os/liteos/base/core\los_task.c ****  * Notice of Export Control Law
  28:C:/Users/dtjld/Desktop/AIoT_software/LiteOS_Lab_overseas/LiteOS_Lab/iot_link/os/liteos/base/core\los_task.c ****  * ===============================================
  29:C:/Users/dtjld/Desktop/AIoT_software/LiteOS_Lab_overseas/LiteOS_Lab/iot_link/os/liteos/base/core\los_task.c ****  * Huawei LiteOS may be subject to applicable export control laws and regulations, which might
  30:C:/Users/dtjld/Desktop/AIoT_software/LiteOS_Lab_overseas/LiteOS_Lab/iot_link/os/liteos/base/core\los_task.c ****  * include those applicable to Huawei LiteOS of U.S. and the country in which you are located.
  31:C:/Users/dtjld/Desktop/AIoT_software/LiteOS_Lab_overseas/LiteOS_Lab/iot_link/os/liteos/base/core\los_task.c ****  * Import, export and usage of Huawei LiteOS in any manner by you shall be in compliance with such
  32:C:/Users/dtjld/Desktop/AIoT_software/LiteOS_Lab_overseas/LiteOS_Lab/iot_link/os/liteos/base/core\los_task.c ****  * applicable export control laws and regulations.
  33:C:/Users/dtjld/Desktop/AIoT_software/LiteOS_Lab_overseas/LiteOS_Lab/iot_link/os/liteos/base/core\los_task.c ****  *---------------------------------------------------------------------------*/
  34:C:/Users/dtjld/Desktop/AIoT_software/LiteOS_Lab_overseas/LiteOS_Lab/iot_link/os/liteos/base/core\los_task.c **** #include "string.h"
  35:C:/Users/dtjld/Desktop/AIoT_software/LiteOS_Lab_overseas/LiteOS_Lab/iot_link/os/liteos/base/core\los_task.c **** #include "los_task.inc"
  36:C:/Users/dtjld/Desktop/AIoT_software/LiteOS_Lab_overseas/LiteOS_Lab/iot_link/os/liteos/base/core\los_task.c **** #include "los_base.ph"
  37:C:/Users/dtjld/Desktop/AIoT_software/LiteOS_Lab_overseas/LiteOS_Lab/iot_link/os/liteos/base/core\los_task.c **** #include "los_memory.ph"
  38:C:/Users/dtjld/Desktop/AIoT_software/LiteOS_Lab_overseas/LiteOS_Lab/iot_link/os/liteos/base/core\los_task.c **** #include "los_memstat.ph"
  39:C:/Users/dtjld/Desktop/AIoT_software/LiteOS_Lab_overseas/LiteOS_Lab/iot_link/os/liteos/base/core\los_task.c **** #include "los_priqueue.ph"
  40:C:/Users/dtjld/Desktop/AIoT_software/LiteOS_Lab_overseas/LiteOS_Lab/iot_link/os/liteos/base/core\los_task.c **** #include "los_sem.ph"
  41:C:/Users/dtjld/Desktop/AIoT_software/LiteOS_Lab_overseas/LiteOS_Lab/iot_link/os/liteos/base/core\los_task.c **** #include "los_mux.ph"
  42:C:/Users/dtjld/Desktop/AIoT_software/LiteOS_Lab_overseas/LiteOS_Lab/iot_link/os/liteos/base/core\los_task.c **** #if (LOSCFG_PLATFORM_EXC == YES)
  43:C:/Users/dtjld/Desktop/AIoT_software/LiteOS_Lab_overseas/LiteOS_Lab/iot_link/os/liteos/base/core\los_task.c **** #include "los_exc.ph"
  44:C:/Users/dtjld/Desktop/AIoT_software/LiteOS_Lab_overseas/LiteOS_Lab/iot_link/os/liteos/base/core\los_task.c **** #endif
  45:C:/Users/dtjld/Desktop/AIoT_software/LiteOS_Lab_overseas/LiteOS_Lab/iot_link/os/liteos/base/core\los_task.c **** #if (LOSCFG_KERNEL_TICKLESS == YES)
  46:C:/Users/dtjld/Desktop/AIoT_software/LiteOS_Lab_overseas/LiteOS_Lab/iot_link/os/liteos/base/core\los_task.c **** #include "los_tickless.ph"
ARM GAS  C:\Users\dtjld\AppData\Local\Temp\ccU8krAq.s 			page 11


  47:C:/Users/dtjld/Desktop/AIoT_software/LiteOS_Lab_overseas/LiteOS_Lab/iot_link/os/liteos/base/core\los_task.c **** #endif
  48:C:/Users/dtjld/Desktop/AIoT_software/LiteOS_Lab_overseas/LiteOS_Lab/iot_link/os/liteos/base/core\los_task.c **** #if (LOSCFG_BASE_CORE_CPUP == YES)
  49:C:/Users/dtjld/Desktop/AIoT_software/LiteOS_Lab_overseas/LiteOS_Lab/iot_link/os/liteos/base/core\los_task.c **** #include "los_cpup.ph"
  50:C:/Users/dtjld/Desktop/AIoT_software/LiteOS_Lab_overseas/LiteOS_Lab/iot_link/os/liteos/base/core\los_task.c **** #endif
  51:C:/Users/dtjld/Desktop/AIoT_software/LiteOS_Lab_overseas/LiteOS_Lab/iot_link/os/liteos/base/core\los_task.c **** #include "los_hw.h"
  52:C:/Users/dtjld/Desktop/AIoT_software/LiteOS_Lab_overseas/LiteOS_Lab/iot_link/os/liteos/base/core\los_task.c **** #if (LOSCFG_ENABLE_MPU == YES)
  53:C:/Users/dtjld/Desktop/AIoT_software/LiteOS_Lab_overseas/LiteOS_Lab/iot_link/os/liteos/base/core\los_task.c **** #include "los_mpu.h"
  54:C:/Users/dtjld/Desktop/AIoT_software/LiteOS_Lab_overseas/LiteOS_Lab/iot_link/os/liteos/base/core\los_task.c **** #endif
  55:C:/Users/dtjld/Desktop/AIoT_software/LiteOS_Lab_overseas/LiteOS_Lab/iot_link/os/liteos/base/core\los_task.c **** 
  56:C:/Users/dtjld/Desktop/AIoT_software/LiteOS_Lab_overseas/LiteOS_Lab/iot_link/os/liteos/base/core\los_task.c **** #ifdef __cplusplus
  57:C:/Users/dtjld/Desktop/AIoT_software/LiteOS_Lab_overseas/LiteOS_Lab/iot_link/os/liteos/base/core\los_task.c **** #if __cplusplus
  58:C:/Users/dtjld/Desktop/AIoT_software/LiteOS_Lab_overseas/LiteOS_Lab/iot_link/os/liteos/base/core\los_task.c **** extern "C" {
  59:C:/Users/dtjld/Desktop/AIoT_software/LiteOS_Lab_overseas/LiteOS_Lab/iot_link/os/liteos/base/core\los_task.c **** #endif /* __cplusplus */
  60:C:/Users/dtjld/Desktop/AIoT_software/LiteOS_Lab_overseas/LiteOS_Lab/iot_link/os/liteos/base/core\los_task.c **** #endif /* __cplusplus */
  61:C:/Users/dtjld/Desktop/AIoT_software/LiteOS_Lab_overseas/LiteOS_Lab/iot_link/os/liteos/base/core\los_task.c **** 
  62:C:/Users/dtjld/Desktop/AIoT_software/LiteOS_Lab_overseas/LiteOS_Lab/iot_link/os/liteos/base/core\los_task.c **** 
  63:C:/Users/dtjld/Desktop/AIoT_software/LiteOS_Lab_overseas/LiteOS_Lab/iot_link/os/liteos/base/core\los_task.c **** #if (LOSCFG_STATIC_TASK == YES)
  64:C:/Users/dtjld/Desktop/AIoT_software/LiteOS_Lab_overseas/LiteOS_Lab/iot_link/os/liteos/base/core\los_task.c **** LITE_OS_SEC_BSS LOS_TASK_CB                          *g_apstTaskCBArray[LOSCFG_BASE_CORE_TSK_LIMIT 
  65:C:/Users/dtjld/Desktop/AIoT_software/LiteOS_Lab_overseas/LiteOS_Lab/iot_link/os/liteos/base/core\los_task.c **** #else
  66:C:/Users/dtjld/Desktop/AIoT_software/LiteOS_Lab_overseas/LiteOS_Lab/iot_link/os/liteos/base/core\los_task.c **** LITE_OS_SEC_BSS  LOS_TASK_CB                         *g_pstTaskCBArray;
  67:C:/Users/dtjld/Desktop/AIoT_software/LiteOS_Lab_overseas/LiteOS_Lab/iot_link/os/liteos/base/core\los_task.c **** LITE_OS_SEC_BSS  LOS_DL_LIST                         g_stLosFreeTask;
  68:C:/Users/dtjld/Desktop/AIoT_software/LiteOS_Lab_overseas/LiteOS_Lab/iot_link/os/liteos/base/core\los_task.c **** LITE_OS_SEC_BSS  LOS_DL_LIST                         g_stTskRecyleList;
  69:C:/Users/dtjld/Desktop/AIoT_software/LiteOS_Lab_overseas/LiteOS_Lab/iot_link/os/liteos/base/core\los_task.c **** 
  70:C:/Users/dtjld/Desktop/AIoT_software/LiteOS_Lab_overseas/LiteOS_Lab/iot_link/os/liteos/base/core\los_task.c **** #endif
  71:C:/Users/dtjld/Desktop/AIoT_software/LiteOS_Lab_overseas/LiteOS_Lab/iot_link/os/liteos/base/core\los_task.c **** 
  72:C:/Users/dtjld/Desktop/AIoT_software/LiteOS_Lab_overseas/LiteOS_Lab/iot_link/os/liteos/base/core\los_task.c **** 
  73:C:/Users/dtjld/Desktop/AIoT_software/LiteOS_Lab_overseas/LiteOS_Lab/iot_link/os/liteos/base/core\los_task.c **** LITE_OS_SEC_BSS  ST_LOS_TASK                         g_stLosTask;
  74:C:/Users/dtjld/Desktop/AIoT_software/LiteOS_Lab_overseas/LiteOS_Lab/iot_link/os/liteos/base/core\los_task.c **** LITE_OS_SEC_BSS  UINT16                              g_usLosTaskLock;
  75:C:/Users/dtjld/Desktop/AIoT_software/LiteOS_Lab_overseas/LiteOS_Lab/iot_link/os/liteos/base/core\los_task.c **** 
  76:C:/Users/dtjld/Desktop/AIoT_software/LiteOS_Lab_overseas/LiteOS_Lab/iot_link/os/liteos/base/core\los_task.c **** 
  77:C:/Users/dtjld/Desktop/AIoT_software/LiteOS_Lab_overseas/LiteOS_Lab/iot_link/os/liteos/base/core\los_task.c **** LITE_OS_SEC_BSS  UINT32                              g_uwTskMaxNum;
  78:C:/Users/dtjld/Desktop/AIoT_software/LiteOS_Lab_overseas/LiteOS_Lab/iot_link/os/liteos/base/core\los_task.c **** LITE_OS_SEC_BSS  UINT32                              g_uwIdleTaskID;
  79:C:/Users/dtjld/Desktop/AIoT_software/LiteOS_Lab_overseas/LiteOS_Lab/iot_link/os/liteos/base/core\los_task.c **** LITE_OS_SEC_BSS  UINT32                              g_uwSwtmrTaskID;
  80:C:/Users/dtjld/Desktop/AIoT_software/LiteOS_Lab_overseas/LiteOS_Lab/iot_link/os/liteos/base/core\los_task.c **** LITE_OS_SEC_BSS  LOS_DL_LIST                         g_stTaskTimerList;
  81:C:/Users/dtjld/Desktop/AIoT_software/LiteOS_Lab_overseas/LiteOS_Lab/iot_link/os/liteos/base/core\los_task.c **** LITE_OS_SEC_BSS  TSK_SORTLINK_ATTRIBUTE_S            g_stTskSortLink;
  82:C:/Users/dtjld/Desktop/AIoT_software/LiteOS_Lab_overseas/LiteOS_Lab/iot_link/os/liteos/base/core\los_task.c **** LITE_OS_SEC_BSS  BOOL                                g_bTaskScheduled;
  83:C:/Users/dtjld/Desktop/AIoT_software/LiteOS_Lab_overseas/LiteOS_Lab/iot_link/os/liteos/base/core\los_task.c **** 
  84:C:/Users/dtjld/Desktop/AIoT_software/LiteOS_Lab_overseas/LiteOS_Lab/iot_link/os/liteos/base/core\los_task.c **** LITE_OS_SEC_DATA_INIT TSKSWITCHHOOK g_pfnTskSwitchHook = (TSKSWITCHHOOK)NULL; /*lint !e611*/
  85:C:/Users/dtjld/Desktop/AIoT_software/LiteOS_Lab_overseas/LiteOS_Lab/iot_link/os/liteos/base/core\los_task.c **** #if (LOSCFG_LIB_LIBC_NEWLIB_REENT == YES)
  86:C:/Users/dtjld/Desktop/AIoT_software/LiteOS_Lab_overseas/LiteOS_Lab/iot_link/os/liteos/base/core\los_task.c **** LITE_OS_SEC_DATA_INIT TSKSWITCHHOOK g_pfnTskSwitchImpurePtrHook = (TSKSWITCHHOOK)NULL; /*lint !e611
  87:C:/Users/dtjld/Desktop/AIoT_software/LiteOS_Lab_overseas/LiteOS_Lab/iot_link/os/liteos/base/core\los_task.c **** #endif
  88:C:/Users/dtjld/Desktop/AIoT_software/LiteOS_Lab_overseas/LiteOS_Lab/iot_link/os/liteos/base/core\los_task.c **** #if (LOSCFG_BASE_CORE_TSK_MONITOR == YES)
  89:C:/Users/dtjld/Desktop/AIoT_software/LiteOS_Lab_overseas/LiteOS_Lab/iot_link/os/liteos/base/core\los_task.c **** LITE_OS_SEC_DATA_INIT TSKSWITCHHOOK g_pfnUsrTskSwitchHook = (TSKSWITCHHOOK)NULL; /*lint !e611*/
  90:C:/Users/dtjld/Desktop/AIoT_software/LiteOS_Lab_overseas/LiteOS_Lab/iot_link/os/liteos/base/core\los_task.c **** #endif /* LOSCFG_BASE_CORE_TSK_MONITOR == YES */
  91:C:/Users/dtjld/Desktop/AIoT_software/LiteOS_Lab_overseas/LiteOS_Lab/iot_link/os/liteos/base/core\los_task.c **** 
  92:C:/Users/dtjld/Desktop/AIoT_software/LiteOS_Lab_overseas/LiteOS_Lab/iot_link/os/liteos/base/core\los_task.c **** #if (LOSCFG_BASE_CORE_EXC_TSK_SWITCH == YES)
  93:C:/Users/dtjld/Desktop/AIoT_software/LiteOS_Lab_overseas/LiteOS_Lab/iot_link/os/liteos/base/core\los_task.c **** LITE_OS_SEC_BSS OS_TASK_SWITCH_INFO g_astTskSwitchInfo;
  94:C:/Users/dtjld/Desktop/AIoT_software/LiteOS_Lab_overseas/LiteOS_Lab/iot_link/os/liteos/base/core\los_task.c **** #endif
  95:C:/Users/dtjld/Desktop/AIoT_software/LiteOS_Lab_overseas/LiteOS_Lab/iot_link/os/liteos/base/core\los_task.c **** 
  96:C:/Users/dtjld/Desktop/AIoT_software/LiteOS_Lab_overseas/LiteOS_Lab/iot_link/os/liteos/base/core\los_task.c **** #define CHECK_TASKID(uwTaskID)\
  97:C:/Users/dtjld/Desktop/AIoT_software/LiteOS_Lab_overseas/LiteOS_Lab/iot_link/os/liteos/base/core\los_task.c **** {\
  98:C:/Users/dtjld/Desktop/AIoT_software/LiteOS_Lab_overseas/LiteOS_Lab/iot_link/os/liteos/base/core\los_task.c ****    if (uwTaskID == g_uwIdleTaskID)\
  99:C:/Users/dtjld/Desktop/AIoT_software/LiteOS_Lab_overseas/LiteOS_Lab/iot_link/os/liteos/base/core\los_task.c ****    {\
 100:C:/Users/dtjld/Desktop/AIoT_software/LiteOS_Lab_overseas/LiteOS_Lab/iot_link/os/liteos/base/core\los_task.c ****        return LOS_ERRNO_TSK_OPERATE_IDLE;\
 101:C:/Users/dtjld/Desktop/AIoT_software/LiteOS_Lab_overseas/LiteOS_Lab/iot_link/os/liteos/base/core\los_task.c ****    }\
 102:C:/Users/dtjld/Desktop/AIoT_software/LiteOS_Lab_overseas/LiteOS_Lab/iot_link/os/liteos/base/core\los_task.c ****    else if (uwTaskID == g_uwSwtmrTaskID)\
 103:C:/Users/dtjld/Desktop/AIoT_software/LiteOS_Lab_overseas/LiteOS_Lab/iot_link/os/liteos/base/core\los_task.c ****    {\
ARM GAS  C:\Users\dtjld\AppData\Local\Temp\ccU8krAq.s 			page 12


 104:C:/Users/dtjld/Desktop/AIoT_software/LiteOS_Lab_overseas/LiteOS_Lab/iot_link/os/liteos/base/core\los_task.c ****        return LOS_ERRNO_TSK_SUSPEND_SWTMR_NOT_ALLOWED;\
 105:C:/Users/dtjld/Desktop/AIoT_software/LiteOS_Lab_overseas/LiteOS_Lab/iot_link/os/liteos/base/core\los_task.c ****    }\
 106:C:/Users/dtjld/Desktop/AIoT_software/LiteOS_Lab_overseas/LiteOS_Lab/iot_link/os/liteos/base/core\los_task.c ****    else if (OS_TSK_GET_INDEX(uwTaskID) >= g_uwTskMaxNum)\
 107:C:/Users/dtjld/Desktop/AIoT_software/LiteOS_Lab_overseas/LiteOS_Lab/iot_link/os/liteos/base/core\los_task.c ****    {\
 108:C:/Users/dtjld/Desktop/AIoT_software/LiteOS_Lab_overseas/LiteOS_Lab/iot_link/os/liteos/base/core\los_task.c ****        return LOS_ERRNO_TSK_ID_INVALID;\
 109:C:/Users/dtjld/Desktop/AIoT_software/LiteOS_Lab_overseas/LiteOS_Lab/iot_link/os/liteos/base/core\los_task.c ****    }\
 110:C:/Users/dtjld/Desktop/AIoT_software/LiteOS_Lab_overseas/LiteOS_Lab/iot_link/os/liteos/base/core\los_task.c **** }
 111:C:/Users/dtjld/Desktop/AIoT_software/LiteOS_Lab_overseas/LiteOS_Lab/iot_link/os/liteos/base/core\los_task.c **** 
 112:C:/Users/dtjld/Desktop/AIoT_software/LiteOS_Lab_overseas/LiteOS_Lab/iot_link/os/liteos/base/core\los_task.c **** #if (LOSCFG_KERNEL_TICKLESS == YES)
 113:C:/Users/dtjld/Desktop/AIoT_software/LiteOS_Lab_overseas/LiteOS_Lab/iot_link/os/liteos/base/core\los_task.c **** LITE_OS_SEC_TEXT_MINOR UINT32 osTaskNextSwitchTimeGet(VOID)
 114:C:/Users/dtjld/Desktop/AIoT_software/LiteOS_Lab_overseas/LiteOS_Lab/iot_link/os/liteos/base/core\los_task.c **** {
 115:C:/Users/dtjld/Desktop/AIoT_software/LiteOS_Lab_overseas/LiteOS_Lab/iot_link/os/liteos/base/core\los_task.c ****     LOS_TASK_CB *pstTaskCB;
 116:C:/Users/dtjld/Desktop/AIoT_software/LiteOS_Lab_overseas/LiteOS_Lab/iot_link/os/liteos/base/core\los_task.c ****     UINT32 uwTaskSortLinkTick = 0;
 117:C:/Users/dtjld/Desktop/AIoT_software/LiteOS_Lab_overseas/LiteOS_Lab/iot_link/os/liteos/base/core\los_task.c ****     LOS_DL_LIST *pstListObject;
 118:C:/Users/dtjld/Desktop/AIoT_software/LiteOS_Lab_overseas/LiteOS_Lab/iot_link/os/liteos/base/core\los_task.c ****     UINT32 uwTempTicks = 0;
 119:C:/Users/dtjld/Desktop/AIoT_software/LiteOS_Lab_overseas/LiteOS_Lab/iot_link/os/liteos/base/core\los_task.c ****     UINT32 uwIndex =0;
 120:C:/Users/dtjld/Desktop/AIoT_software/LiteOS_Lab_overseas/LiteOS_Lab/iot_link/os/liteos/base/core\los_task.c **** 
 121:C:/Users/dtjld/Desktop/AIoT_software/LiteOS_Lab_overseas/LiteOS_Lab/iot_link/os/liteos/base/core\los_task.c ****     for (uwIndex = 0; uwIndex < OS_TSK_SORTLINK_LEN; uwIndex++)
 122:C:/Users/dtjld/Desktop/AIoT_software/LiteOS_Lab_overseas/LiteOS_Lab/iot_link/os/liteos/base/core\los_task.c ****     {
 123:C:/Users/dtjld/Desktop/AIoT_software/LiteOS_Lab_overseas/LiteOS_Lab/iot_link/os/liteos/base/core\los_task.c ****         pstListObject = g_stTskSortLink.pstSortLink + (g_stTskSortLink.usCursor + uwIndex)%OS_TSK_S
 124:C:/Users/dtjld/Desktop/AIoT_software/LiteOS_Lab_overseas/LiteOS_Lab/iot_link/os/liteos/base/core\los_task.c ****         if (pstListObject->pstNext != pstListObject)
 125:C:/Users/dtjld/Desktop/AIoT_software/LiteOS_Lab_overseas/LiteOS_Lab/iot_link/os/liteos/base/core\los_task.c ****         {
 126:C:/Users/dtjld/Desktop/AIoT_software/LiteOS_Lab_overseas/LiteOS_Lab/iot_link/os/liteos/base/core\los_task.c ****             pstTaskCB = LOS_DL_LIST_ENTRY((pstListObject)->pstNext, LOS_TASK_CB, stTimerList);
 127:C:/Users/dtjld/Desktop/AIoT_software/LiteOS_Lab_overseas/LiteOS_Lab/iot_link/os/liteos/base/core\los_task.c ****             uwTempTicks = (uwIndex == 0) ? OS_TSK_SORTLINK_LEN : uwIndex;
 128:C:/Users/dtjld/Desktop/AIoT_software/LiteOS_Lab_overseas/LiteOS_Lab/iot_link/os/liteos/base/core\los_task.c ****             uwTempTicks += (UINT32)(UWROLLNUM(pstTaskCB->uwIdxRollNum) * OS_TSK_SORTLINK_LEN);
 129:C:/Users/dtjld/Desktop/AIoT_software/LiteOS_Lab_overseas/LiteOS_Lab/iot_link/os/liteos/base/core\los_task.c ****             if(uwTaskSortLinkTick == 0 || uwTaskSortLinkTick > uwTempTicks)
 130:C:/Users/dtjld/Desktop/AIoT_software/LiteOS_Lab_overseas/LiteOS_Lab/iot_link/os/liteos/base/core\los_task.c ****             {
 131:C:/Users/dtjld/Desktop/AIoT_software/LiteOS_Lab_overseas/LiteOS_Lab/iot_link/os/liteos/base/core\los_task.c ****                uwTaskSortLinkTick = uwTempTicks;
 132:C:/Users/dtjld/Desktop/AIoT_software/LiteOS_Lab_overseas/LiteOS_Lab/iot_link/os/liteos/base/core\los_task.c ****             }
 133:C:/Users/dtjld/Desktop/AIoT_software/LiteOS_Lab_overseas/LiteOS_Lab/iot_link/os/liteos/base/core\los_task.c ****         }
 134:C:/Users/dtjld/Desktop/AIoT_software/LiteOS_Lab_overseas/LiteOS_Lab/iot_link/os/liteos/base/core\los_task.c ****     }
 135:C:/Users/dtjld/Desktop/AIoT_software/LiteOS_Lab_overseas/LiteOS_Lab/iot_link/os/liteos/base/core\los_task.c **** 
 136:C:/Users/dtjld/Desktop/AIoT_software/LiteOS_Lab_overseas/LiteOS_Lab/iot_link/os/liteos/base/core\los_task.c ****     return uwTaskSortLinkTick;
 137:C:/Users/dtjld/Desktop/AIoT_software/LiteOS_Lab_overseas/LiteOS_Lab/iot_link/os/liteos/base/core\los_task.c **** }
 138:C:/Users/dtjld/Desktop/AIoT_software/LiteOS_Lab_overseas/LiteOS_Lab/iot_link/os/liteos/base/core\los_task.c **** #endif
 139:C:/Users/dtjld/Desktop/AIoT_software/LiteOS_Lab_overseas/LiteOS_Lab/iot_link/os/liteos/base/core\los_task.c **** 
 140:C:/Users/dtjld/Desktop/AIoT_software/LiteOS_Lab_overseas/LiteOS_Lab/iot_link/os/liteos/base/core\los_task.c **** /*****************************************************************************
 141:C:/Users/dtjld/Desktop/AIoT_software/LiteOS_Lab_overseas/LiteOS_Lab/iot_link/os/liteos/base/core\los_task.c ****  Function : osTskIdleBGD
 142:C:/Users/dtjld/Desktop/AIoT_software/LiteOS_Lab_overseas/LiteOS_Lab/iot_link/os/liteos/base/core\los_task.c ****  Description : Idle background.
 143:C:/Users/dtjld/Desktop/AIoT_software/LiteOS_Lab_overseas/LiteOS_Lab/iot_link/os/liteos/base/core\los_task.c ****  Input       : None
 144:C:/Users/dtjld/Desktop/AIoT_software/LiteOS_Lab_overseas/LiteOS_Lab/iot_link/os/liteos/base/core\los_task.c ****  Output      : None
 145:C:/Users/dtjld/Desktop/AIoT_software/LiteOS_Lab_overseas/LiteOS_Lab/iot_link/os/liteos/base/core\los_task.c ****  Return      : None
 146:C:/Users/dtjld/Desktop/AIoT_software/LiteOS_Lab_overseas/LiteOS_Lab/iot_link/os/liteos/base/core\los_task.c ****  *****************************************************************************/
 147:C:/Users/dtjld/Desktop/AIoT_software/LiteOS_Lab_overseas/LiteOS_Lab/iot_link/os/liteos/base/core\los_task.c **** LITE_OS_SEC_TEXT WEAK VOID osIdleTask(VOID)
 148:C:/Users/dtjld/Desktop/AIoT_software/LiteOS_Lab_overseas/LiteOS_Lab/iot_link/os/liteos/base/core\los_task.c **** {
 324              		.loc 2 148 0
 325              		.cfi_startproc
 326              		@ args = 0, pretend = 0, frame = 0
 327              		@ frame_needed = 1, uses_anonymous_args = 0
 328              		@ link register save eliminated.
 329 0000 80B4     		push	{r7}
 330              	.LCFI29:
 331              		.cfi_def_cfa_offset 4
 332              		.cfi_offset 7, -4
 333 0002 00AF     		add	r7, sp, #0
 334              	.LCFI30:
 335              		.cfi_def_cfa_register 7
ARM GAS  C:\Users\dtjld\AppData\Local\Temp\ccU8krAq.s 			page 13


 336              	.L8:
 149:C:/Users/dtjld/Desktop/AIoT_software/LiteOS_Lab_overseas/LiteOS_Lab/iot_link/os/liteos/base/core\los_task.c ****     while (1)
 337              		.loc 2 149 0 discriminator 1
 338 0004 FEE7     		b	.L8
 339              		.cfi_endproc
 340              	.LFE130:
 342              		.section	.text.osTaskPriModify,"ax",%progbits
 343              		.align	1
 344              		.global	osTaskPriModify
 345              		.syntax unified
 346              		.thumb
 347              		.thumb_func
 348              		.fpu fpv4-sp-d16
 350              	osTaskPriModify:
 351              	.LFB131:
 150:C:/Users/dtjld/Desktop/AIoT_software/LiteOS_Lab_overseas/LiteOS_Lab/iot_link/os/liteos/base/core\los_task.c ****     {
 151:C:/Users/dtjld/Desktop/AIoT_software/LiteOS_Lab_overseas/LiteOS_Lab/iot_link/os/liteos/base/core\los_task.c **** #if (LOSCFG_KERNEL_TICKLESS == YES)
 152:C:/Users/dtjld/Desktop/AIoT_software/LiteOS_Lab_overseas/LiteOS_Lab/iot_link/os/liteos/base/core\los_task.c ****         osTicklessHandler();
 153:C:/Users/dtjld/Desktop/AIoT_software/LiteOS_Lab_overseas/LiteOS_Lab/iot_link/os/liteos/base/core\los_task.c **** #else
 154:C:/Users/dtjld/Desktop/AIoT_software/LiteOS_Lab_overseas/LiteOS_Lab/iot_link/os/liteos/base/core\los_task.c ****     #if (LOSCFG_KERNEL_RUNSTOP == YES)
 155:C:/Users/dtjld/Desktop/AIoT_software/LiteOS_Lab_overseas/LiteOS_Lab/iot_link/os/liteos/base/core\los_task.c ****         osEnterSleep();
 156:C:/Users/dtjld/Desktop/AIoT_software/LiteOS_Lab_overseas/LiteOS_Lab/iot_link/os/liteos/base/core\los_task.c ****     #endif
 157:C:/Users/dtjld/Desktop/AIoT_software/LiteOS_Lab_overseas/LiteOS_Lab/iot_link/os/liteos/base/core\los_task.c **** #endif
 158:C:/Users/dtjld/Desktop/AIoT_software/LiteOS_Lab_overseas/LiteOS_Lab/iot_link/os/liteos/base/core\los_task.c ****     }
 159:C:/Users/dtjld/Desktop/AIoT_software/LiteOS_Lab_overseas/LiteOS_Lab/iot_link/os/liteos/base/core\los_task.c **** }
 160:C:/Users/dtjld/Desktop/AIoT_software/LiteOS_Lab_overseas/LiteOS_Lab/iot_link/os/liteos/base/core\los_task.c **** 
 161:C:/Users/dtjld/Desktop/AIoT_software/LiteOS_Lab_overseas/LiteOS_Lab/iot_link/os/liteos/base/core\los_task.c **** /*****************************************************************************
 162:C:/Users/dtjld/Desktop/AIoT_software/LiteOS_Lab_overseas/LiteOS_Lab/iot_link/os/liteos/base/core\los_task.c ****  Function : osTaskPriModify
 163:C:/Users/dtjld/Desktop/AIoT_software/LiteOS_Lab_overseas/LiteOS_Lab/iot_link/os/liteos/base/core\los_task.c ****  Description : Change task priority.
 164:C:/Users/dtjld/Desktop/AIoT_software/LiteOS_Lab_overseas/LiteOS_Lab/iot_link/os/liteos/base/core\los_task.c ****  Input       : pstTaskCB    --- task control block
 165:C:/Users/dtjld/Desktop/AIoT_software/LiteOS_Lab_overseas/LiteOS_Lab/iot_link/os/liteos/base/core\los_task.c ****                  usPriority      --- priority
 166:C:/Users/dtjld/Desktop/AIoT_software/LiteOS_Lab_overseas/LiteOS_Lab/iot_link/os/liteos/base/core\los_task.c ****  Output      : None
 167:C:/Users/dtjld/Desktop/AIoT_software/LiteOS_Lab_overseas/LiteOS_Lab/iot_link/os/liteos/base/core\los_task.c ****  Return      : None
 168:C:/Users/dtjld/Desktop/AIoT_software/LiteOS_Lab_overseas/LiteOS_Lab/iot_link/os/liteos/base/core\los_task.c ****  *****************************************************************************/
 169:C:/Users/dtjld/Desktop/AIoT_software/LiteOS_Lab_overseas/LiteOS_Lab/iot_link/os/liteos/base/core\los_task.c **** LITE_OS_SEC_TEXT_MINOR VOID osTaskPriModify(LOS_TASK_CB *pstTaskCB, UINT16 usPriority)
 170:C:/Users/dtjld/Desktop/AIoT_software/LiteOS_Lab_overseas/LiteOS_Lab/iot_link/os/liteos/base/core\los_task.c **** {
 352              		.loc 2 170 0
 353              		.cfi_startproc
 354              		@ args = 0, pretend = 0, frame = 8
 355              		@ frame_needed = 1, uses_anonymous_args = 0
 356 0000 80B5     		push	{r7, lr}
 357              	.LCFI31:
 358              		.cfi_def_cfa_offset 8
 359              		.cfi_offset 7, -8
 360              		.cfi_offset 14, -4
 361 0002 82B0     		sub	sp, sp, #8
 362              	.LCFI32:
 363              		.cfi_def_cfa_offset 16
 364 0004 00AF     		add	r7, sp, #0
 365              	.LCFI33:
 366              		.cfi_def_cfa_register 7
 367 0006 7860     		str	r0, [r7, #4]
 368 0008 0B46     		mov	r3, r1
 369 000a 7B80     		strh	r3, [r7, #2]	@ movhi
 171:C:/Users/dtjld/Desktop/AIoT_software/LiteOS_Lab_overseas/LiteOS_Lab/iot_link/os/liteos/base/core\los_task.c ****     if (pstTaskCB->usTaskStatus & OS_TASK_STATUS_READY)
 370              		.loc 2 171 0
 371 000c 7B68     		ldr	r3, [r7, #4]
ARM GAS  C:\Users\dtjld\AppData\Local\Temp\ccU8krAq.s 			page 14


 372 000e 9B88     		ldrh	r3, [r3, #4]
 373 0010 03F00403 		and	r3, r3, #4
 374 0014 002B     		cmp	r3, #0
 375 0016 1FD0     		beq	.L10
 172:C:/Users/dtjld/Desktop/AIoT_software/LiteOS_Lab_overseas/LiteOS_Lab/iot_link/os/liteos/base/core\los_task.c ****     {
 173:C:/Users/dtjld/Desktop/AIoT_software/LiteOS_Lab_overseas/LiteOS_Lab/iot_link/os/liteos/base/core\los_task.c ****         osPriqueueDequeue(&pstTaskCB->stPendList);
 376              		.loc 2 173 0
 377 0018 7B68     		ldr	r3, [r7, #4]
 378 001a 2833     		adds	r3, r3, #40
 379 001c 1846     		mov	r0, r3
 380 001e FFF7FEFF 		bl	osPriqueueDequeue
 174:C:/Users/dtjld/Desktop/AIoT_software/LiteOS_Lab_overseas/LiteOS_Lab/iot_link/os/liteos/base/core\los_task.c ****         pstTaskCB->usTaskStatus &= (~OS_TASK_STATUS_READY);
 381              		.loc 2 174 0
 382 0022 7B68     		ldr	r3, [r7, #4]
 383 0024 9B88     		ldrh	r3, [r3, #4]
 384 0026 23F00403 		bic	r3, r3, #4
 385 002a 9AB2     		uxth	r2, r3
 386 002c 7B68     		ldr	r3, [r7, #4]
 387 002e 9A80     		strh	r2, [r3, #4]	@ movhi
 175:C:/Users/dtjld/Desktop/AIoT_software/LiteOS_Lab_overseas/LiteOS_Lab/iot_link/os/liteos/base/core\los_task.c ****         pstTaskCB->usPriority = usPriority;
 388              		.loc 2 175 0
 389 0030 7B68     		ldr	r3, [r7, #4]
 390 0032 7A88     		ldrh	r2, [r7, #2]	@ movhi
 391 0034 DA80     		strh	r2, [r3, #6]	@ movhi
 176:C:/Users/dtjld/Desktop/AIoT_software/LiteOS_Lab_overseas/LiteOS_Lab/iot_link/os/liteos/base/core\los_task.c ****         pstTaskCB->usTaskStatus |= OS_TASK_STATUS_READY;
 392              		.loc 2 176 0
 393 0036 7B68     		ldr	r3, [r7, #4]
 394 0038 9B88     		ldrh	r3, [r3, #4]
 395 003a 43F00403 		orr	r3, r3, #4
 396 003e 9AB2     		uxth	r2, r3
 397 0040 7B68     		ldr	r3, [r7, #4]
 398 0042 9A80     		strh	r2, [r3, #4]	@ movhi
 177:C:/Users/dtjld/Desktop/AIoT_software/LiteOS_Lab_overseas/LiteOS_Lab/iot_link/os/liteos/base/core\los_task.c ****         osPriqueueEnqueue(&pstTaskCB->stPendList, pstTaskCB->usPriority);
 399              		.loc 2 177 0
 400 0044 7B68     		ldr	r3, [r7, #4]
 401 0046 03F12802 		add	r2, r3, #40
 402 004a 7B68     		ldr	r3, [r7, #4]
 403 004c DB88     		ldrh	r3, [r3, #6]
 404 004e 1946     		mov	r1, r3
 405 0050 1046     		mov	r0, r2
 406 0052 FFF7FEFF 		bl	osPriqueueEnqueue
 178:C:/Users/dtjld/Desktop/AIoT_software/LiteOS_Lab_overseas/LiteOS_Lab/iot_link/os/liteos/base/core\los_task.c ****     }
 179:C:/Users/dtjld/Desktop/AIoT_software/LiteOS_Lab_overseas/LiteOS_Lab/iot_link/os/liteos/base/core\los_task.c ****     else
 180:C:/Users/dtjld/Desktop/AIoT_software/LiteOS_Lab_overseas/LiteOS_Lab/iot_link/os/liteos/base/core\los_task.c ****     {
 181:C:/Users/dtjld/Desktop/AIoT_software/LiteOS_Lab_overseas/LiteOS_Lab/iot_link/os/liteos/base/core\los_task.c ****         pstTaskCB->usPriority = usPriority;
 182:C:/Users/dtjld/Desktop/AIoT_software/LiteOS_Lab_overseas/LiteOS_Lab/iot_link/os/liteos/base/core\los_task.c ****     }
 183:C:/Users/dtjld/Desktop/AIoT_software/LiteOS_Lab_overseas/LiteOS_Lab/iot_link/os/liteos/base/core\los_task.c **** }
 407              		.loc 2 183 0
 408 0056 02E0     		b	.L12
 409              	.L10:
 181:C:/Users/dtjld/Desktop/AIoT_software/LiteOS_Lab_overseas/LiteOS_Lab/iot_link/os/liteos/base/core\los_task.c ****     }
 410              		.loc 2 181 0
 411 0058 7B68     		ldr	r3, [r7, #4]
 412 005a 7A88     		ldrh	r2, [r7, #2]	@ movhi
 413 005c DA80     		strh	r2, [r3, #6]	@ movhi
 414              	.L12:
 415              		.loc 2 183 0
ARM GAS  C:\Users\dtjld\AppData\Local\Temp\ccU8krAq.s 			page 15


 416 005e 00BF     		nop
 417 0060 0837     		adds	r7, r7, #8
 418              	.LCFI34:
 419              		.cfi_def_cfa_offset 8
 420 0062 BD46     		mov	sp, r7
 421              	.LCFI35:
 422              		.cfi_def_cfa_register 13
 423              		@ sp needed
 424 0064 80BD     		pop	{r7, pc}
 425              		.cfi_endproc
 426              	.LFE131:
 428              		.section	.text.osTaskAdd2TimerList,"ax",%progbits
 429              		.align	1
 430              		.global	osTaskAdd2TimerList
 431              		.syntax unified
 432              		.thumb
 433              		.thumb_func
 434              		.fpu fpv4-sp-d16
 436              	osTaskAdd2TimerList:
 437              	.LFB132:
 184:C:/Users/dtjld/Desktop/AIoT_software/LiteOS_Lab_overseas/LiteOS_Lab/iot_link/os/liteos/base/core\los_task.c **** 
 185:C:/Users/dtjld/Desktop/AIoT_software/LiteOS_Lab_overseas/LiteOS_Lab/iot_link/os/liteos/base/core\los_task.c **** /*****************************************************************************
 186:C:/Users/dtjld/Desktop/AIoT_software/LiteOS_Lab_overseas/LiteOS_Lab/iot_link/os/liteos/base/core\los_task.c ****  Function : osTaskAdd2TimerList
 187:C:/Users/dtjld/Desktop/AIoT_software/LiteOS_Lab_overseas/LiteOS_Lab/iot_link/os/liteos/base/core\los_task.c ****  Description : Add task to sorted delay list.
 188:C:/Users/dtjld/Desktop/AIoT_software/LiteOS_Lab_overseas/LiteOS_Lab/iot_link/os/liteos/base/core\los_task.c ****  Input       : pstTaskCB    --- task control block
 189:C:/Users/dtjld/Desktop/AIoT_software/LiteOS_Lab_overseas/LiteOS_Lab/iot_link/os/liteos/base/core\los_task.c ****                uwTimeout    --- wait time, ticks
 190:C:/Users/dtjld/Desktop/AIoT_software/LiteOS_Lab_overseas/LiteOS_Lab/iot_link/os/liteos/base/core\los_task.c ****  Output      : None
 191:C:/Users/dtjld/Desktop/AIoT_software/LiteOS_Lab_overseas/LiteOS_Lab/iot_link/os/liteos/base/core\los_task.c ****  Return      : None
 192:C:/Users/dtjld/Desktop/AIoT_software/LiteOS_Lab_overseas/LiteOS_Lab/iot_link/os/liteos/base/core\los_task.c ****  *****************************************************************************/
 193:C:/Users/dtjld/Desktop/AIoT_software/LiteOS_Lab_overseas/LiteOS_Lab/iot_link/os/liteos/base/core\los_task.c **** LITE_OS_SEC_TEXT VOID osTaskAdd2TimerList(LOS_TASK_CB *pstTaskCB, UINT32 uwTimeout)
 194:C:/Users/dtjld/Desktop/AIoT_software/LiteOS_Lab_overseas/LiteOS_Lab/iot_link/os/liteos/base/core\los_task.c **** {
 438              		.loc 2 194 0
 439              		.cfi_startproc
 440              		@ args = 0, pretend = 0, frame = 24
 441              		@ frame_needed = 1, uses_anonymous_args = 0
 442 0000 80B5     		push	{r7, lr}
 443              	.LCFI36:
 444              		.cfi_def_cfa_offset 8
 445              		.cfi_offset 7, -8
 446              		.cfi_offset 14, -4
 447 0002 86B0     		sub	sp, sp, #24
 448              	.LCFI37:
 449              		.cfi_def_cfa_offset 32
 450 0004 00AF     		add	r7, sp, #0
 451              	.LCFI38:
 452              		.cfi_def_cfa_register 7
 453 0006 7860     		str	r0, [r7, #4]
 454 0008 3960     		str	r1, [r7]
 195:C:/Users/dtjld/Desktop/AIoT_software/LiteOS_Lab_overseas/LiteOS_Lab/iot_link/os/liteos/base/core\los_task.c ****     LOS_TASK_CB *pstTskDelay;
 196:C:/Users/dtjld/Desktop/AIoT_software/LiteOS_Lab_overseas/LiteOS_Lab/iot_link/os/liteos/base/core\los_task.c ****     LOS_DL_LIST *pstListObject;
 197:C:/Users/dtjld/Desktop/AIoT_software/LiteOS_Lab_overseas/LiteOS_Lab/iot_link/os/liteos/base/core\los_task.c ****     UINT32 uwSortIndex;
 198:C:/Users/dtjld/Desktop/AIoT_software/LiteOS_Lab_overseas/LiteOS_Lab/iot_link/os/liteos/base/core\los_task.c ****     UINT32 uwRollNum;
 199:C:/Users/dtjld/Desktop/AIoT_software/LiteOS_Lab_overseas/LiteOS_Lab/iot_link/os/liteos/base/core\los_task.c **** 
 200:C:/Users/dtjld/Desktop/AIoT_software/LiteOS_Lab_overseas/LiteOS_Lab/iot_link/os/liteos/base/core\los_task.c ****     uwSortIndex = uwTimeout & OS_TSK_SORTLINK_MASK;
 455              		.loc 2 200 0
 456 000a 3B68     		ldr	r3, [r7]
 457 000c 03F01F03 		and	r3, r3, #31
ARM GAS  C:\Users\dtjld\AppData\Local\Temp\ccU8krAq.s 			page 16


 458 0010 FB60     		str	r3, [r7, #12]
 201:C:/Users/dtjld/Desktop/AIoT_software/LiteOS_Lab_overseas/LiteOS_Lab/iot_link/os/liteos/base/core\los_task.c ****     uwRollNum = (uwTimeout >> OS_TSK_SORTLINK_LOGLEN);
 459              		.loc 2 201 0
 460 0012 3B68     		ldr	r3, [r7]
 461 0014 5B09     		lsrs	r3, r3, #5
 462 0016 3B61     		str	r3, [r7, #16]
 202:C:/Users/dtjld/Desktop/AIoT_software/LiteOS_Lab_overseas/LiteOS_Lab/iot_link/os/liteos/base/core\los_task.c ****     (uwSortIndex > 0) ? 0 : (uwRollNum--);
 463              		.loc 2 202 0
 464 0018 FB68     		ldr	r3, [r7, #12]
 465 001a 002B     		cmp	r3, #0
 466 001c 02D1     		bne	.L15
 467              		.loc 2 202 0 is_stmt 0 discriminator 1
 468 001e 3B69     		ldr	r3, [r7, #16]
 469 0020 013B     		subs	r3, r3, #1
 470 0022 3B61     		str	r3, [r7, #16]
 471              	.L15:
 203:C:/Users/dtjld/Desktop/AIoT_software/LiteOS_Lab_overseas/LiteOS_Lab/iot_link/os/liteos/base/core\los_task.c ****     EVALUATE_L(pstTaskCB->uwIdxRollNum, uwRollNum);
 472              		.loc 2 203 0 is_stmt 1
 473 0024 7B68     		ldr	r3, [r7, #4]
 474 0026 9B6B     		ldr	r3, [r3, #56]
 475 0028 03F07842 		and	r2, r3, #-134217728
 476 002c 3B69     		ldr	r3, [r7, #16]
 477 002e 1A43     		orrs	r2, r2, r3
 478 0030 7B68     		ldr	r3, [r7, #4]
 479 0032 9A63     		str	r2, [r3, #56]
 204:C:/Users/dtjld/Desktop/AIoT_software/LiteOS_Lab_overseas/LiteOS_Lab/iot_link/os/liteos/base/core\los_task.c ****     uwSortIndex = (uwSortIndex + g_stTskSortLink.usCursor);
 480              		.loc 2 204 0
 481 0034 354B     		ldr	r3, .L24
 482 0036 9B88     		ldrh	r3, [r3, #4]
 483 0038 1A46     		mov	r2, r3
 484 003a FB68     		ldr	r3, [r7, #12]
 485 003c 1344     		add	r3, r3, r2
 486 003e FB60     		str	r3, [r7, #12]
 205:C:/Users/dtjld/Desktop/AIoT_software/LiteOS_Lab_overseas/LiteOS_Lab/iot_link/os/liteos/base/core\los_task.c ****     uwSortIndex = uwSortIndex & OS_TSK_SORTLINK_MASK;
 487              		.loc 2 205 0
 488 0040 FB68     		ldr	r3, [r7, #12]
 489 0042 03F01F03 		and	r3, r3, #31
 490 0046 FB60     		str	r3, [r7, #12]
 206:C:/Users/dtjld/Desktop/AIoT_software/LiteOS_Lab_overseas/LiteOS_Lab/iot_link/os/liteos/base/core\los_task.c ****     EVALUATE_H(pstTaskCB->uwIdxRollNum, uwSortIndex);
 491              		.loc 2 206 0
 492 0048 7B68     		ldr	r3, [r7, #4]
 493 004a 9B6B     		ldr	r3, [r3, #56]
 494 004c 23F07842 		bic	r2, r3, #-134217728
 495 0050 FB68     		ldr	r3, [r7, #12]
 496 0052 DB06     		lsls	r3, r3, #27
 497 0054 1A43     		orrs	r2, r2, r3
 498 0056 7B68     		ldr	r3, [r7, #4]
 499 0058 9A63     		str	r2, [r3, #56]
 207:C:/Users/dtjld/Desktop/AIoT_software/LiteOS_Lab_overseas/LiteOS_Lab/iot_link/os/liteos/base/core\los_task.c ****     pstListObject = g_stTskSortLink.pstSortLink + uwSortIndex;
 500              		.loc 2 207 0
 501 005a 2C4B     		ldr	r3, .L24
 502 005c 1A68     		ldr	r2, [r3]
 503 005e FB68     		ldr	r3, [r7, #12]
 504 0060 DB00     		lsls	r3, r3, #3
 505 0062 1344     		add	r3, r3, r2
 506 0064 BB60     		str	r3, [r7, #8]
 208:C:/Users/dtjld/Desktop/AIoT_software/LiteOS_Lab_overseas/LiteOS_Lab/iot_link/os/liteos/base/core\los_task.c ****     if (pstListObject->pstNext == pstListObject)
ARM GAS  C:\Users\dtjld\AppData\Local\Temp\ccU8krAq.s 			page 17


 507              		.loc 2 208 0
 508 0066 BB68     		ldr	r3, [r7, #8]
 509 0068 5B68     		ldr	r3, [r3, #4]
 510 006a BA68     		ldr	r2, [r7, #8]
 511 006c 9A42     		cmp	r2, r3
 512 006e 06D1     		bne	.L16
 209:C:/Users/dtjld/Desktop/AIoT_software/LiteOS_Lab_overseas/LiteOS_Lab/iot_link/os/liteos/base/core\los_task.c ****     {
 210:C:/Users/dtjld/Desktop/AIoT_software/LiteOS_Lab_overseas/LiteOS_Lab/iot_link/os/liteos/base/core\los_task.c ****         LOS_ListTailInsert(pstListObject, &pstTaskCB->stTimerList);
 513              		.loc 2 210 0
 514 0070 7B68     		ldr	r3, [r7, #4]
 515 0072 3033     		adds	r3, r3, #48
 516 0074 1946     		mov	r1, r3
 517 0076 B868     		ldr	r0, [r7, #8]
 518 0078 FFF7FEFF 		bl	LOS_ListTailInsert
 211:C:/Users/dtjld/Desktop/AIoT_software/LiteOS_Lab_overseas/LiteOS_Lab/iot_link/os/liteos/base/core\los_task.c ****     }
 212:C:/Users/dtjld/Desktop/AIoT_software/LiteOS_Lab_overseas/LiteOS_Lab/iot_link/os/liteos/base/core\los_task.c ****     else
 213:C:/Users/dtjld/Desktop/AIoT_software/LiteOS_Lab_overseas/LiteOS_Lab/iot_link/os/liteos/base/core\los_task.c ****     {
 214:C:/Users/dtjld/Desktop/AIoT_software/LiteOS_Lab_overseas/LiteOS_Lab/iot_link/os/liteos/base/core\los_task.c ****         pstTskDelay = LOS_DL_LIST_ENTRY((pstListObject)->pstNext, LOS_TASK_CB, stTimerList); /*lint
 215:C:/Users/dtjld/Desktop/AIoT_software/LiteOS_Lab_overseas/LiteOS_Lab/iot_link/os/liteos/base/core\los_task.c ****         do
 216:C:/Users/dtjld/Desktop/AIoT_software/LiteOS_Lab_overseas/LiteOS_Lab/iot_link/os/liteos/base/core\los_task.c ****         {
 217:C:/Users/dtjld/Desktop/AIoT_software/LiteOS_Lab_overseas/LiteOS_Lab/iot_link/os/liteos/base/core\los_task.c ****             if (UWROLLNUM(pstTskDelay->uwIdxRollNum) <= UWROLLNUM(pstTaskCB->uwIdxRollNum))
 218:C:/Users/dtjld/Desktop/AIoT_software/LiteOS_Lab_overseas/LiteOS_Lab/iot_link/os/liteos/base/core\los_task.c ****             {
 219:C:/Users/dtjld/Desktop/AIoT_software/LiteOS_Lab_overseas/LiteOS_Lab/iot_link/os/liteos/base/core\los_task.c ****                 UWROLLNUMSUB(pstTaskCB->uwIdxRollNum, pstTskDelay->uwIdxRollNum);
 220:C:/Users/dtjld/Desktop/AIoT_software/LiteOS_Lab_overseas/LiteOS_Lab/iot_link/os/liteos/base/core\los_task.c ****             }
 221:C:/Users/dtjld/Desktop/AIoT_software/LiteOS_Lab_overseas/LiteOS_Lab/iot_link/os/liteos/base/core\los_task.c ****             else
 222:C:/Users/dtjld/Desktop/AIoT_software/LiteOS_Lab_overseas/LiteOS_Lab/iot_link/os/liteos/base/core\los_task.c ****             {
 223:C:/Users/dtjld/Desktop/AIoT_software/LiteOS_Lab_overseas/LiteOS_Lab/iot_link/os/liteos/base/core\los_task.c ****                 UWROLLNUMSUB(pstTskDelay->uwIdxRollNum, pstTaskCB->uwIdxRollNum);
 224:C:/Users/dtjld/Desktop/AIoT_software/LiteOS_Lab_overseas/LiteOS_Lab/iot_link/os/liteos/base/core\los_task.c ****                 break;
 225:C:/Users/dtjld/Desktop/AIoT_software/LiteOS_Lab_overseas/LiteOS_Lab/iot_link/os/liteos/base/core\los_task.c ****             }
 226:C:/Users/dtjld/Desktop/AIoT_software/LiteOS_Lab_overseas/LiteOS_Lab/iot_link/os/liteos/base/core\los_task.c **** 
 227:C:/Users/dtjld/Desktop/AIoT_software/LiteOS_Lab_overseas/LiteOS_Lab/iot_link/os/liteos/base/core\los_task.c ****             pstTskDelay = LOS_DL_LIST_ENTRY(pstTskDelay->stTimerList.pstNext, LOS_TASK_CB, stTimerL
 228:C:/Users/dtjld/Desktop/AIoT_software/LiteOS_Lab_overseas/LiteOS_Lab/iot_link/os/liteos/base/core\los_task.c ****         } while (&pstTskDelay->stTimerList != (pstListObject));
 229:C:/Users/dtjld/Desktop/AIoT_software/LiteOS_Lab_overseas/LiteOS_Lab/iot_link/os/liteos/base/core\los_task.c **** 
 230:C:/Users/dtjld/Desktop/AIoT_software/LiteOS_Lab_overseas/LiteOS_Lab/iot_link/os/liteos/base/core\los_task.c ****         LOS_ListTailInsert(&pstTskDelay->stTimerList, &pstTaskCB->stTimerList);
 231:C:/Users/dtjld/Desktop/AIoT_software/LiteOS_Lab_overseas/LiteOS_Lab/iot_link/os/liteos/base/core\los_task.c ****     }
 232:C:/Users/dtjld/Desktop/AIoT_software/LiteOS_Lab_overseas/LiteOS_Lab/iot_link/os/liteos/base/core\los_task.c **** }
 519              		.loc 2 232 0
 520 007c 41E0     		b	.L23
 521              	.L16:
 214:C:/Users/dtjld/Desktop/AIoT_software/LiteOS_Lab_overseas/LiteOS_Lab/iot_link/os/liteos/base/core\los_task.c ****         do
 522              		.loc 2 214 0
 523 007e BB68     		ldr	r3, [r7, #8]
 524 0080 5B68     		ldr	r3, [r3, #4]
 525 0082 303B     		subs	r3, r3, #48
 526 0084 7B61     		str	r3, [r7, #20]
 527              	.L21:
 217:C:/Users/dtjld/Desktop/AIoT_software/LiteOS_Lab_overseas/LiteOS_Lab/iot_link/os/liteos/base/core\los_task.c ****             {
 528              		.loc 2 217 0
 529 0086 7B69     		ldr	r3, [r7, #20]
 530 0088 9B6B     		ldr	r3, [r3, #56]
 531 008a 23F07842 		bic	r2, r3, #-134217728
 532 008e 7B68     		ldr	r3, [r7, #4]
 533 0090 9B6B     		ldr	r3, [r3, #56]
 534 0092 23F07843 		bic	r3, r3, #-134217728
 535 0096 9A42     		cmp	r2, r3
 536 0098 10D8     		bhi	.L18
 219:C:/Users/dtjld/Desktop/AIoT_software/LiteOS_Lab_overseas/LiteOS_Lab/iot_link/os/liteos/base/core\los_task.c ****             }
ARM GAS  C:\Users\dtjld\AppData\Local\Temp\ccU8krAq.s 			page 18


 537              		.loc 2 219 0
 538 009a 7B68     		ldr	r3, [r7, #4]
 539 009c 9B6B     		ldr	r3, [r3, #56]
 540 009e 03F07842 		and	r2, r3, #-134217728
 541 00a2 7B68     		ldr	r3, [r7, #4]
 542 00a4 9B6B     		ldr	r3, [r3, #56]
 543 00a6 23F07841 		bic	r1, r3, #-134217728
 544 00aa 7B69     		ldr	r3, [r7, #20]
 545 00ac 9B6B     		ldr	r3, [r3, #56]
 546 00ae 23F07843 		bic	r3, r3, #-134217728
 547 00b2 CB1A     		subs	r3, r1, r3
 548 00b4 1A43     		orrs	r2, r2, r3
 549 00b6 7B68     		ldr	r3, [r7, #4]
 550 00b8 9A63     		str	r2, [r3, #56]
 551 00ba 10E0     		b	.L22
 552              	.L18:
 223:C:/Users/dtjld/Desktop/AIoT_software/LiteOS_Lab_overseas/LiteOS_Lab/iot_link/os/liteos/base/core\los_task.c ****                 break;
 553              		.loc 2 223 0
 554 00bc 7B69     		ldr	r3, [r7, #20]
 555 00be 9B6B     		ldr	r3, [r3, #56]
 556 00c0 03F07842 		and	r2, r3, #-134217728
 557 00c4 7B69     		ldr	r3, [r7, #20]
 558 00c6 9B6B     		ldr	r3, [r3, #56]
 559 00c8 23F07841 		bic	r1, r3, #-134217728
 560 00cc 7B68     		ldr	r3, [r7, #4]
 561 00ce 9B6B     		ldr	r3, [r3, #56]
 562 00d0 23F07843 		bic	r3, r3, #-134217728
 563 00d4 CB1A     		subs	r3, r1, r3
 564 00d6 1A43     		orrs	r2, r2, r3
 565 00d8 7B69     		ldr	r3, [r7, #20]
 566 00da 9A63     		str	r2, [r3, #56]
 224:C:/Users/dtjld/Desktop/AIoT_software/LiteOS_Lab_overseas/LiteOS_Lab/iot_link/os/liteos/base/core\los_task.c ****             }
 567              		.loc 2 224 0
 568 00dc 08E0     		b	.L20
 569              	.L22:
 227:C:/Users/dtjld/Desktop/AIoT_software/LiteOS_Lab_overseas/LiteOS_Lab/iot_link/os/liteos/base/core\los_task.c ****         } while (&pstTskDelay->stTimerList != (pstListObject));
 570              		.loc 2 227 0
 571 00de 7B69     		ldr	r3, [r7, #20]
 572 00e0 5B6B     		ldr	r3, [r3, #52]
 573 00e2 303B     		subs	r3, r3, #48
 574 00e4 7B61     		str	r3, [r7, #20]
 228:C:/Users/dtjld/Desktop/AIoT_software/LiteOS_Lab_overseas/LiteOS_Lab/iot_link/os/liteos/base/core\los_task.c **** 
 575              		.loc 2 228 0
 576 00e6 7B69     		ldr	r3, [r7, #20]
 577 00e8 3033     		adds	r3, r3, #48
 578 00ea BA68     		ldr	r2, [r7, #8]
 579 00ec 9A42     		cmp	r2, r3
 580 00ee CAD1     		bne	.L21
 581              	.L20:
 230:C:/Users/dtjld/Desktop/AIoT_software/LiteOS_Lab_overseas/LiteOS_Lab/iot_link/os/liteos/base/core\los_task.c ****     }
 582              		.loc 2 230 0
 583 00f0 7B69     		ldr	r3, [r7, #20]
 584 00f2 03F13002 		add	r2, r3, #48
 585 00f6 7B68     		ldr	r3, [r7, #4]
 586 00f8 3033     		adds	r3, r3, #48
 587 00fa 1946     		mov	r1, r3
 588 00fc 1046     		mov	r0, r2
ARM GAS  C:\Users\dtjld\AppData\Local\Temp\ccU8krAq.s 			page 19


 589 00fe FFF7FEFF 		bl	LOS_ListTailInsert
 590              	.L23:
 591              		.loc 2 232 0
 592 0102 00BF     		nop
 593 0104 1837     		adds	r7, r7, #24
 594              	.LCFI39:
 595              		.cfi_def_cfa_offset 8
 596 0106 BD46     		mov	sp, r7
 597              	.LCFI40:
 598              		.cfi_def_cfa_register 13
 599              		@ sp needed
 600 0108 80BD     		pop	{r7, pc}
 601              	.L25:
 602 010a 00BF     		.align	2
 603              	.L24:
 604 010c 00000000 		.word	g_stTskSortLink
 605              		.cfi_endproc
 606              	.LFE132:
 608              		.section	.text.osTimerListDelete,"ax",%progbits
 609              		.align	1
 610              		.global	osTimerListDelete
 611              		.syntax unified
 612              		.thumb
 613              		.thumb_func
 614              		.fpu fpv4-sp-d16
 616              	osTimerListDelete:
 617              	.LFB133:
 233:C:/Users/dtjld/Desktop/AIoT_software/LiteOS_Lab_overseas/LiteOS_Lab/iot_link/os/liteos/base/core\los_task.c **** 
 234:C:/Users/dtjld/Desktop/AIoT_software/LiteOS_Lab_overseas/LiteOS_Lab/iot_link/os/liteos/base/core\los_task.c **** 
 235:C:/Users/dtjld/Desktop/AIoT_software/LiteOS_Lab_overseas/LiteOS_Lab/iot_link/os/liteos/base/core\los_task.c **** LITE_OS_SEC_TEXT VOID osTimerListDelete(LOS_TASK_CB *pstTaskCB)
 236:C:/Users/dtjld/Desktop/AIoT_software/LiteOS_Lab_overseas/LiteOS_Lab/iot_link/os/liteos/base/core\los_task.c **** {
 618              		.loc 2 236 0
 619              		.cfi_startproc
 620              		@ args = 0, pretend = 0, frame = 24
 621              		@ frame_needed = 1, uses_anonymous_args = 0
 622 0000 80B5     		push	{r7, lr}
 623              	.LCFI41:
 624              		.cfi_def_cfa_offset 8
 625              		.cfi_offset 7, -8
 626              		.cfi_offset 14, -4
 627 0002 86B0     		sub	sp, sp, #24
 628              	.LCFI42:
 629              		.cfi_def_cfa_offset 32
 630 0004 00AF     		add	r7, sp, #0
 631              	.LCFI43:
 632              		.cfi_def_cfa_register 7
 633 0006 7860     		str	r0, [r7, #4]
 237:C:/Users/dtjld/Desktop/AIoT_software/LiteOS_Lab_overseas/LiteOS_Lab/iot_link/os/liteos/base/core\los_task.c ****     LOS_DL_LIST  *pstListObject;
 238:C:/Users/dtjld/Desktop/AIoT_software/LiteOS_Lab_overseas/LiteOS_Lab/iot_link/os/liteos/base/core\los_task.c ****     LOS_TASK_CB  *pstNextTask;
 239:C:/Users/dtjld/Desktop/AIoT_software/LiteOS_Lab_overseas/LiteOS_Lab/iot_link/os/liteos/base/core\los_task.c ****     UINT32 uwSortIndex;
 240:C:/Users/dtjld/Desktop/AIoT_software/LiteOS_Lab_overseas/LiteOS_Lab/iot_link/os/liteos/base/core\los_task.c **** 
 241:C:/Users/dtjld/Desktop/AIoT_software/LiteOS_Lab_overseas/LiteOS_Lab/iot_link/os/liteos/base/core\los_task.c ****     uwSortIndex = UWSORTINDEX(pstTaskCB->uwIdxRollNum);
 634              		.loc 2 241 0
 635 0008 7B68     		ldr	r3, [r7, #4]
 636 000a 9B6B     		ldr	r3, [r3, #56]
 637 000c DB0E     		lsrs	r3, r3, #27
 638 000e 7B61     		str	r3, [r7, #20]
ARM GAS  C:\Users\dtjld\AppData\Local\Temp\ccU8krAq.s 			page 20


 242:C:/Users/dtjld/Desktop/AIoT_software/LiteOS_Lab_overseas/LiteOS_Lab/iot_link/os/liteos/base/core\los_task.c ****     pstListObject = g_stTskSortLink.pstSortLink + uwSortIndex;
 639              		.loc 2 242 0
 640 0010 134B     		ldr	r3, .L28
 641 0012 1A68     		ldr	r2, [r3]
 642 0014 7B69     		ldr	r3, [r7, #20]
 643 0016 DB00     		lsls	r3, r3, #3
 644 0018 1344     		add	r3, r3, r2
 645 001a 3B61     		str	r3, [r7, #16]
 243:C:/Users/dtjld/Desktop/AIoT_software/LiteOS_Lab_overseas/LiteOS_Lab/iot_link/os/liteos/base/core\los_task.c **** 
 244:C:/Users/dtjld/Desktop/AIoT_software/LiteOS_Lab_overseas/LiteOS_Lab/iot_link/os/liteos/base/core\los_task.c ****     if (pstListObject != pstTaskCB->stTimerList.pstNext)
 646              		.loc 2 244 0
 647 001c 7B68     		ldr	r3, [r7, #4]
 648 001e 5B6B     		ldr	r3, [r3, #52]
 649 0020 3A69     		ldr	r2, [r7, #16]
 650 0022 9A42     		cmp	r2, r3
 651 0024 13D0     		beq	.L27
 245:C:/Users/dtjld/Desktop/AIoT_software/LiteOS_Lab_overseas/LiteOS_Lab/iot_link/os/liteos/base/core\los_task.c ****     {
 246:C:/Users/dtjld/Desktop/AIoT_software/LiteOS_Lab_overseas/LiteOS_Lab/iot_link/os/liteos/base/core\los_task.c ****         pstNextTask = LOS_DL_LIST_ENTRY(pstTaskCB->stTimerList.pstNext, LOS_TASK_CB, stTimerList); 
 652              		.loc 2 246 0
 653 0026 7B68     		ldr	r3, [r7, #4]
 654 0028 5B6B     		ldr	r3, [r3, #52]
 655 002a 303B     		subs	r3, r3, #48
 656 002c FB60     		str	r3, [r7, #12]
 247:C:/Users/dtjld/Desktop/AIoT_software/LiteOS_Lab_overseas/LiteOS_Lab/iot_link/os/liteos/base/core\los_task.c ****         UWROLLNUMADD(pstNextTask->uwIdxRollNum, pstTaskCB->uwIdxRollNum);
 657              		.loc 2 247 0
 658 002e FB68     		ldr	r3, [r7, #12]
 659 0030 9B6B     		ldr	r3, [r3, #56]
 660 0032 03F07842 		and	r2, r3, #-134217728
 661 0036 FB68     		ldr	r3, [r7, #12]
 662 0038 9B6B     		ldr	r3, [r3, #56]
 663 003a 23F07841 		bic	r1, r3, #-134217728
 664 003e 7B68     		ldr	r3, [r7, #4]
 665 0040 9B6B     		ldr	r3, [r3, #56]
 666 0042 23F07843 		bic	r3, r3, #-134217728
 667 0046 0B44     		add	r3, r3, r1
 668 0048 1A43     		orrs	r2, r2, r3
 669 004a FB68     		ldr	r3, [r7, #12]
 670 004c 9A63     		str	r2, [r3, #56]
 671              	.L27:
 248:C:/Users/dtjld/Desktop/AIoT_software/LiteOS_Lab_overseas/LiteOS_Lab/iot_link/os/liteos/base/core\los_task.c ****     }
 249:C:/Users/dtjld/Desktop/AIoT_software/LiteOS_Lab_overseas/LiteOS_Lab/iot_link/os/liteos/base/core\los_task.c **** 
 250:C:/Users/dtjld/Desktop/AIoT_software/LiteOS_Lab_overseas/LiteOS_Lab/iot_link/os/liteos/base/core\los_task.c ****     LOS_ListDelete(&pstTaskCB->stTimerList);
 672              		.loc 2 250 0
 673 004e 7B68     		ldr	r3, [r7, #4]
 674 0050 3033     		adds	r3, r3, #48
 675 0052 1846     		mov	r0, r3
 676 0054 FFF7FEFF 		bl	LOS_ListDelete
 251:C:/Users/dtjld/Desktop/AIoT_software/LiteOS_Lab_overseas/LiteOS_Lab/iot_link/os/liteos/base/core\los_task.c **** }
 677              		.loc 2 251 0
 678 0058 00BF     		nop
 679 005a 1837     		adds	r7, r7, #24
 680              	.LCFI44:
 681              		.cfi_def_cfa_offset 8
 682 005c BD46     		mov	sp, r7
 683              	.LCFI45:
 684              		.cfi_def_cfa_register 13
 685              		@ sp needed
ARM GAS  C:\Users\dtjld\AppData\Local\Temp\ccU8krAq.s 			page 21


 686 005e 80BD     		pop	{r7, pc}
 687              	.L29:
 688              		.align	2
 689              	.L28:
 690 0060 00000000 		.word	g_stTskSortLink
 691              		.cfi_endproc
 692              	.LFE133:
 694              		.section	.text.osTaskScan,"ax",%progbits
 695              		.align	1
 696              		.global	osTaskScan
 697              		.syntax unified
 698              		.thumb
 699              		.thumb_func
 700              		.fpu fpv4-sp-d16
 702              	osTaskScan:
 703              	.LFB134:
 252:C:/Users/dtjld/Desktop/AIoT_software/LiteOS_Lab_overseas/LiteOS_Lab/iot_link/os/liteos/base/core\los_task.c **** 
 253:C:/Users/dtjld/Desktop/AIoT_software/LiteOS_Lab_overseas/LiteOS_Lab/iot_link/os/liteos/base/core\los_task.c **** LITE_OS_SEC_TEXT VOID osTaskScan(VOID)
 254:C:/Users/dtjld/Desktop/AIoT_software/LiteOS_Lab_overseas/LiteOS_Lab/iot_link/os/liteos/base/core\los_task.c **** {
 704              		.loc 2 254 0
 705              		.cfi_startproc
 706              		@ args = 0, pretend = 0, frame = 16
 707              		@ frame_needed = 1, uses_anonymous_args = 0
 708 0000 80B5     		push	{r7, lr}
 709              	.LCFI46:
 710              		.cfi_def_cfa_offset 8
 711              		.cfi_offset 7, -8
 712              		.cfi_offset 14, -4
 713 0002 84B0     		sub	sp, sp, #16
 714              	.LCFI47:
 715              		.cfi_def_cfa_offset 24
 716 0004 00AF     		add	r7, sp, #0
 717              	.LCFI48:
 718              		.cfi_def_cfa_register 7
 255:C:/Users/dtjld/Desktop/AIoT_software/LiteOS_Lab_overseas/LiteOS_Lab/iot_link/os/liteos/base/core\los_task.c ****     LOS_TASK_CB *pstTaskCB;
 256:C:/Users/dtjld/Desktop/AIoT_software/LiteOS_Lab_overseas/LiteOS_Lab/iot_link/os/liteos/base/core\los_task.c ****     BOOL bNeedSchedule = FALSE;
 719              		.loc 2 256 0
 720 0006 0023     		movs	r3, #0
 721 0008 BB60     		str	r3, [r7, #8]
 257:C:/Users/dtjld/Desktop/AIoT_software/LiteOS_Lab_overseas/LiteOS_Lab/iot_link/os/liteos/base/core\los_task.c ****     LOS_DL_LIST *pstListObject;
 258:C:/Users/dtjld/Desktop/AIoT_software/LiteOS_Lab_overseas/LiteOS_Lab/iot_link/os/liteos/base/core\los_task.c ****     UINT16 usTempStatus;
 259:C:/Users/dtjld/Desktop/AIoT_software/LiteOS_Lab_overseas/LiteOS_Lab/iot_link/os/liteos/base/core\los_task.c **** 
 260:C:/Users/dtjld/Desktop/AIoT_software/LiteOS_Lab_overseas/LiteOS_Lab/iot_link/os/liteos/base/core\los_task.c ****     g_stTskSortLink.usCursor = (g_stTskSortLink.usCursor + 1) % OS_TSK_SORTLINK_LEN;
 722              		.loc 2 260 0
 723 000a 4F4B     		ldr	r3, .L43
 724 000c 9B88     		ldrh	r3, [r3, #4]
 725 000e 0133     		adds	r3, r3, #1
 726 0010 5A42     		rsbs	r2, r3, #0
 727 0012 03F01F03 		and	r3, r3, #31
 728 0016 02F01F02 		and	r2, r2, #31
 729 001a 58BF     		it	pl
 730 001c 5342     		rsbpl	r3, r2, #0
 731 001e 9AB2     		uxth	r2, r3
 732 0020 494B     		ldr	r3, .L43
 733 0022 9A80     		strh	r2, [r3, #4]	@ movhi
 261:C:/Users/dtjld/Desktop/AIoT_software/LiteOS_Lab_overseas/LiteOS_Lab/iot_link/os/liteos/base/core\los_task.c ****     pstListObject = g_stTskSortLink.pstSortLink + g_stTskSortLink.usCursor;
 734              		.loc 2 261 0
ARM GAS  C:\Users\dtjld\AppData\Local\Temp\ccU8krAq.s 			page 22


 735 0024 484B     		ldr	r3, .L43
 736 0026 1A68     		ldr	r2, [r3]
 737 0028 474B     		ldr	r3, .L43
 738 002a 9B88     		ldrh	r3, [r3, #4]
 739 002c DB00     		lsls	r3, r3, #3
 740 002e 1344     		add	r3, r3, r2
 741 0030 7B60     		str	r3, [r7, #4]
 262:C:/Users/dtjld/Desktop/AIoT_software/LiteOS_Lab_overseas/LiteOS_Lab/iot_link/os/liteos/base/core\los_task.c ****     if (pstListObject->pstNext == pstListObject)
 742              		.loc 2 262 0
 743 0032 7B68     		ldr	r3, [r7, #4]
 744 0034 5B68     		ldr	r3, [r3, #4]
 745 0036 7A68     		ldr	r2, [r7, #4]
 746 0038 9A42     		cmp	r2, r3
 747 003a 00F08180 		beq	.L42
 263:C:/Users/dtjld/Desktop/AIoT_software/LiteOS_Lab_overseas/LiteOS_Lab/iot_link/os/liteos/base/core\los_task.c ****     {
 264:C:/Users/dtjld/Desktop/AIoT_software/LiteOS_Lab_overseas/LiteOS_Lab/iot_link/os/liteos/base/core\los_task.c ****         return;
 265:C:/Users/dtjld/Desktop/AIoT_software/LiteOS_Lab_overseas/LiteOS_Lab/iot_link/os/liteos/base/core\los_task.c ****     }
 266:C:/Users/dtjld/Desktop/AIoT_software/LiteOS_Lab_overseas/LiteOS_Lab/iot_link/os/liteos/base/core\los_task.c **** 
 267:C:/Users/dtjld/Desktop/AIoT_software/LiteOS_Lab_overseas/LiteOS_Lab/iot_link/os/liteos/base/core\los_task.c ****     for (pstTaskCB = LOS_DL_LIST_ENTRY((pstListObject)->pstNext, LOS_TASK_CB, stTimerList);&pstTask
 748              		.loc 2 267 0
 749 003e 7B68     		ldr	r3, [r7, #4]
 750 0040 5B68     		ldr	r3, [r3, #4]
 751 0042 303B     		subs	r3, r3, #48
 752 0044 FB60     		str	r3, [r7, #12]
 753 0046 70E0     		b	.L33
 754              	.L41:
 268:C:/Users/dtjld/Desktop/AIoT_software/LiteOS_Lab_overseas/LiteOS_Lab/iot_link/os/liteos/base/core\los_task.c ****     {
 269:C:/Users/dtjld/Desktop/AIoT_software/LiteOS_Lab_overseas/LiteOS_Lab/iot_link/os/liteos/base/core\los_task.c ****         usTempStatus = pstTaskCB->usTaskStatus;
 755              		.loc 2 269 0
 756 0048 FB68     		ldr	r3, [r7, #12]
 757 004a 9B88     		ldrh	r3, [r3, #4]	@ movhi
 758 004c 7B80     		strh	r3, [r7, #2]	@ movhi
 270:C:/Users/dtjld/Desktop/AIoT_software/LiteOS_Lab_overseas/LiteOS_Lab/iot_link/os/liteos/base/core\los_task.c ****         if (UWROLLNUM(pstTaskCB->uwIdxRollNum) > 0)
 759              		.loc 2 270 0
 760 004e FB68     		ldr	r3, [r7, #12]
 761 0050 9B6B     		ldr	r3, [r3, #56]
 762 0052 23F07843 		bic	r3, r3, #-134217728
 763 0056 002B     		cmp	r3, #0
 764 0058 05D0     		beq	.L34
 271:C:/Users/dtjld/Desktop/AIoT_software/LiteOS_Lab_overseas/LiteOS_Lab/iot_link/os/liteos/base/core\los_task.c ****         {
 272:C:/Users/dtjld/Desktop/AIoT_software/LiteOS_Lab_overseas/LiteOS_Lab/iot_link/os/liteos/base/core\los_task.c ****             UWROLLNUMDEC(pstTaskCB->uwIdxRollNum);
 765              		.loc 2 272 0
 766 005a FB68     		ldr	r3, [r7, #12]
 767 005c 9B6B     		ldr	r3, [r3, #56]
 768 005e 5A1E     		subs	r2, r3, #1
 769 0060 FB68     		ldr	r3, [r7, #12]
 770 0062 9A63     		str	r2, [r3, #56]
 273:C:/Users/dtjld/Desktop/AIoT_software/LiteOS_Lab_overseas/LiteOS_Lab/iot_link/os/liteos/base/core\los_task.c ****             break;
 771              		.loc 2 273 0
 772 0064 66E0     		b	.L35
 773              	.L34:
 274:C:/Users/dtjld/Desktop/AIoT_software/LiteOS_Lab_overseas/LiteOS_Lab/iot_link/os/liteos/base/core\los_task.c ****         }
 275:C:/Users/dtjld/Desktop/AIoT_software/LiteOS_Lab_overseas/LiteOS_Lab/iot_link/os/liteos/base/core\los_task.c **** 
 276:C:/Users/dtjld/Desktop/AIoT_software/LiteOS_Lab_overseas/LiteOS_Lab/iot_link/os/liteos/base/core\los_task.c ****         LOS_ListDelete(&pstTaskCB->stTimerList);
 774              		.loc 2 276 0
 775 0066 FB68     		ldr	r3, [r7, #12]
 776 0068 3033     		adds	r3, r3, #48
ARM GAS  C:\Users\dtjld\AppData\Local\Temp\ccU8krAq.s 			page 23


 777 006a 1846     		mov	r0, r3
 778 006c FFF7FEFF 		bl	LOS_ListDelete
 277:C:/Users/dtjld/Desktop/AIoT_software/LiteOS_Lab_overseas/LiteOS_Lab/iot_link/os/liteos/base/core\los_task.c ****         if (OS_TASK_STATUS_PEND & usTempStatus)
 779              		.loc 2 277 0
 780 0070 7B88     		ldrh	r3, [r7, #2]	@ movhi
 781 0072 03F00803 		and	r3, r3, #8
 782 0076 9BB2     		uxth	r3, r3
 783 0078 002B     		cmp	r3, #0
 784 007a 12D0     		beq	.L36
 278:C:/Users/dtjld/Desktop/AIoT_software/LiteOS_Lab_overseas/LiteOS_Lab/iot_link/os/liteos/base/core\los_task.c ****         {
 279:C:/Users/dtjld/Desktop/AIoT_software/LiteOS_Lab_overseas/LiteOS_Lab/iot_link/os/liteos/base/core\los_task.c ****             pstTaskCB->usTaskStatus &= ~(OS_TASK_STATUS_PEND);
 785              		.loc 2 279 0
 786 007c FB68     		ldr	r3, [r7, #12]
 787 007e 9B88     		ldrh	r3, [r3, #4]
 788 0080 23F00803 		bic	r3, r3, #8
 789 0084 9AB2     		uxth	r2, r3
 790 0086 FB68     		ldr	r3, [r7, #12]
 791 0088 9A80     		strh	r2, [r3, #4]	@ movhi
 280:C:/Users/dtjld/Desktop/AIoT_software/LiteOS_Lab_overseas/LiteOS_Lab/iot_link/os/liteos/base/core\los_task.c ****             LOS_ListDelete(&pstTaskCB->stPendList);
 792              		.loc 2 280 0
 793 008a FB68     		ldr	r3, [r7, #12]
 794 008c 2833     		adds	r3, r3, #40
 795 008e 1846     		mov	r0, r3
 796 0090 FFF7FEFF 		bl	LOS_ListDelete
 281:C:/Users/dtjld/Desktop/AIoT_software/LiteOS_Lab_overseas/LiteOS_Lab/iot_link/os/liteos/base/core\los_task.c ****             pstTaskCB->pTaskSem = NULL;
 797              		.loc 2 281 0
 798 0094 FB68     		ldr	r3, [r7, #12]
 799 0096 0022     		movs	r2, #0
 800 0098 9A61     		str	r2, [r3, #24]
 282:C:/Users/dtjld/Desktop/AIoT_software/LiteOS_Lab_overseas/LiteOS_Lab/iot_link/os/liteos/base/core\los_task.c ****             pstTaskCB->pTaskMux = NULL;
 801              		.loc 2 282 0
 802 009a FB68     		ldr	r3, [r7, #12]
 803 009c 0022     		movs	r2, #0
 804 009e DA61     		str	r2, [r3, #28]
 805 00a0 27E0     		b	.L37
 806              	.L36:
 283:C:/Users/dtjld/Desktop/AIoT_software/LiteOS_Lab_overseas/LiteOS_Lab/iot_link/os/liteos/base/core\los_task.c ****         }
 284:C:/Users/dtjld/Desktop/AIoT_software/LiteOS_Lab_overseas/LiteOS_Lab/iot_link/os/liteos/base/core\los_task.c ****         else if (OS_TASK_STATUS_EVENT & usTempStatus)
 807              		.loc 2 284 0
 808 00a2 7B88     		ldrh	r3, [r7, #2]	@ movhi
 809 00a4 03F48063 		and	r3, r3, #1024
 810 00a8 9BB2     		uxth	r3, r3
 811 00aa 002B     		cmp	r3, #0
 812 00ac 07D0     		beq	.L38
 285:C:/Users/dtjld/Desktop/AIoT_software/LiteOS_Lab_overseas/LiteOS_Lab/iot_link/os/liteos/base/core\los_task.c ****         {
 286:C:/Users/dtjld/Desktop/AIoT_software/LiteOS_Lab_overseas/LiteOS_Lab/iot_link/os/liteos/base/core\los_task.c ****             pstTaskCB->usTaskStatus &= ~(OS_TASK_STATUS_EVENT);
 813              		.loc 2 286 0
 814 00ae FB68     		ldr	r3, [r7, #12]
 815 00b0 9B88     		ldrh	r3, [r3, #4]
 816 00b2 23F48063 		bic	r3, r3, #1024
 817 00b6 9AB2     		uxth	r2, r3
 818 00b8 FB68     		ldr	r3, [r7, #12]
 819 00ba 9A80     		strh	r2, [r3, #4]	@ movhi
 820 00bc 19E0     		b	.L37
 821              	.L38:
 287:C:/Users/dtjld/Desktop/AIoT_software/LiteOS_Lab_overseas/LiteOS_Lab/iot_link/os/liteos/base/core\los_task.c ****         }
 288:C:/Users/dtjld/Desktop/AIoT_software/LiteOS_Lab_overseas/LiteOS_Lab/iot_link/os/liteos/base/core\los_task.c ****         else if (OS_TASK_STATUS_PEND_QUEUE & usTempStatus)
ARM GAS  C:\Users\dtjld\AppData\Local\Temp\ccU8krAq.s 			page 24


 822              		.loc 2 288 0
 823 00be 7B88     		ldrh	r3, [r7, #2]	@ movhi
 824 00c0 03F40053 		and	r3, r3, #8192
 825 00c4 9BB2     		uxth	r3, r3
 826 00c6 002B     		cmp	r3, #0
 827 00c8 0CD0     		beq	.L39
 289:C:/Users/dtjld/Desktop/AIoT_software/LiteOS_Lab_overseas/LiteOS_Lab/iot_link/os/liteos/base/core\los_task.c ****         {
 290:C:/Users/dtjld/Desktop/AIoT_software/LiteOS_Lab_overseas/LiteOS_Lab/iot_link/os/liteos/base/core\los_task.c ****             LOS_ListDelete(&pstTaskCB->stPendList);
 828              		.loc 2 290 0
 829 00ca FB68     		ldr	r3, [r7, #12]
 830 00cc 2833     		adds	r3, r3, #40
 831 00ce 1846     		mov	r0, r3
 832 00d0 FFF7FEFF 		bl	LOS_ListDelete
 291:C:/Users/dtjld/Desktop/AIoT_software/LiteOS_Lab_overseas/LiteOS_Lab/iot_link/os/liteos/base/core\los_task.c ****             pstTaskCB->usTaskStatus &= ~(OS_TASK_STATUS_PEND_QUEUE);
 833              		.loc 2 291 0
 834 00d4 FB68     		ldr	r3, [r7, #12]
 835 00d6 9B88     		ldrh	r3, [r3, #4]
 836 00d8 23F40053 		bic	r3, r3, #8192
 837 00dc 9AB2     		uxth	r2, r3
 838 00de FB68     		ldr	r3, [r7, #12]
 839 00e0 9A80     		strh	r2, [r3, #4]	@ movhi
 840 00e2 06E0     		b	.L37
 841              	.L39:
 292:C:/Users/dtjld/Desktop/AIoT_software/LiteOS_Lab_overseas/LiteOS_Lab/iot_link/os/liteos/base/core\los_task.c ****         }
 293:C:/Users/dtjld/Desktop/AIoT_software/LiteOS_Lab_overseas/LiteOS_Lab/iot_link/os/liteos/base/core\los_task.c ****         else
 294:C:/Users/dtjld/Desktop/AIoT_software/LiteOS_Lab_overseas/LiteOS_Lab/iot_link/os/liteos/base/core\los_task.c ****         {
 295:C:/Users/dtjld/Desktop/AIoT_software/LiteOS_Lab_overseas/LiteOS_Lab/iot_link/os/liteos/base/core\los_task.c ****             pstTaskCB->usTaskStatus &= ~(OS_TASK_STATUS_DELAY);
 842              		.loc 2 295 0
 843 00e4 FB68     		ldr	r3, [r7, #12]
 844 00e6 9B88     		ldrh	r3, [r3, #4]
 845 00e8 23F02003 		bic	r3, r3, #32
 846 00ec 9AB2     		uxth	r2, r3
 847 00ee FB68     		ldr	r3, [r7, #12]
 848 00f0 9A80     		strh	r2, [r3, #4]	@ movhi
 849              	.L37:
 296:C:/Users/dtjld/Desktop/AIoT_software/LiteOS_Lab_overseas/LiteOS_Lab/iot_link/os/liteos/base/core\los_task.c ****         }
 297:C:/Users/dtjld/Desktop/AIoT_software/LiteOS_Lab_overseas/LiteOS_Lab/iot_link/os/liteos/base/core\los_task.c **** 
 298:C:/Users/dtjld/Desktop/AIoT_software/LiteOS_Lab_overseas/LiteOS_Lab/iot_link/os/liteos/base/core\los_task.c ****         if (!((OS_TASK_STATUS_SUSPEND) & usTempStatus))
 850              		.loc 2 298 0
 851 00f2 7B88     		ldrh	r3, [r7, #2]	@ movhi
 852 00f4 03F00203 		and	r3, r3, #2
 853 00f8 9BB2     		uxth	r3, r3
 854 00fa 002B     		cmp	r3, #0
 855 00fc 11D1     		bne	.L40
 299:C:/Users/dtjld/Desktop/AIoT_software/LiteOS_Lab_overseas/LiteOS_Lab/iot_link/os/liteos/base/core\los_task.c ****         {
 300:C:/Users/dtjld/Desktop/AIoT_software/LiteOS_Lab_overseas/LiteOS_Lab/iot_link/os/liteos/base/core\los_task.c ****             pstTaskCB->usTaskStatus |= OS_TASK_STATUS_READY;
 856              		.loc 2 300 0
 857 00fe FB68     		ldr	r3, [r7, #12]
 858 0100 9B88     		ldrh	r3, [r3, #4]
 859 0102 43F00403 		orr	r3, r3, #4
 860 0106 9AB2     		uxth	r2, r3
 861 0108 FB68     		ldr	r3, [r7, #12]
 862 010a 9A80     		strh	r2, [r3, #4]	@ movhi
 301:C:/Users/dtjld/Desktop/AIoT_software/LiteOS_Lab_overseas/LiteOS_Lab/iot_link/os/liteos/base/core\los_task.c ****             osPriqueueEnqueue(&pstTaskCB->stPendList, pstTaskCB->usPriority);
 863              		.loc 2 301 0
 864 010c FB68     		ldr	r3, [r7, #12]
 865 010e 03F12802 		add	r2, r3, #40
ARM GAS  C:\Users\dtjld\AppData\Local\Temp\ccU8krAq.s 			page 25


 866 0112 FB68     		ldr	r3, [r7, #12]
 867 0114 DB88     		ldrh	r3, [r3, #6]
 868 0116 1946     		mov	r1, r3
 869 0118 1046     		mov	r0, r2
 870 011a FFF7FEFF 		bl	osPriqueueEnqueue
 302:C:/Users/dtjld/Desktop/AIoT_software/LiteOS_Lab_overseas/LiteOS_Lab/iot_link/os/liteos/base/core\los_task.c ****             bNeedSchedule = TRUE;
 871              		.loc 2 302 0
 872 011e 0123     		movs	r3, #1
 873 0120 BB60     		str	r3, [r7, #8]
 874              	.L40:
 303:C:/Users/dtjld/Desktop/AIoT_software/LiteOS_Lab_overseas/LiteOS_Lab/iot_link/os/liteos/base/core\los_task.c ****         }
 304:C:/Users/dtjld/Desktop/AIoT_software/LiteOS_Lab_overseas/LiteOS_Lab/iot_link/os/liteos/base/core\los_task.c **** 
 305:C:/Users/dtjld/Desktop/AIoT_software/LiteOS_Lab_overseas/LiteOS_Lab/iot_link/os/liteos/base/core\los_task.c ****         pstTaskCB = LOS_DL_LIST_ENTRY(pstListObject->pstNext, LOS_TASK_CB, stTimerList); /*lint !e4
 875              		.loc 2 305 0
 876 0122 7B68     		ldr	r3, [r7, #4]
 877 0124 5B68     		ldr	r3, [r3, #4]
 878 0126 303B     		subs	r3, r3, #48
 879 0128 FB60     		str	r3, [r7, #12]
 880              	.L33:
 267:C:/Users/dtjld/Desktop/AIoT_software/LiteOS_Lab_overseas/LiteOS_Lab/iot_link/os/liteos/base/core\los_task.c ****     {
 881              		.loc 2 267 0 discriminator 1
 882 012a FB68     		ldr	r3, [r7, #12]
 883 012c 3033     		adds	r3, r3, #48
 884 012e 7A68     		ldr	r2, [r7, #4]
 885 0130 9A42     		cmp	r2, r3
 886 0132 89D1     		bne	.L41
 887              	.L35:
 306:C:/Users/dtjld/Desktop/AIoT_software/LiteOS_Lab_overseas/LiteOS_Lab/iot_link/os/liteos/base/core\los_task.c ****     }
 307:C:/Users/dtjld/Desktop/AIoT_software/LiteOS_Lab_overseas/LiteOS_Lab/iot_link/os/liteos/base/core\los_task.c **** 
 308:C:/Users/dtjld/Desktop/AIoT_software/LiteOS_Lab_overseas/LiteOS_Lab/iot_link/os/liteos/base/core\los_task.c ****     if (bNeedSchedule)
 888              		.loc 2 308 0
 889 0134 BB68     		ldr	r3, [r7, #8]
 890 0136 002B     		cmp	r3, #0
 891 0138 03D0     		beq	.L30
 309:C:/Users/dtjld/Desktop/AIoT_software/LiteOS_Lab_overseas/LiteOS_Lab/iot_link/os/liteos/base/core\los_task.c ****     {
 310:C:/Users/dtjld/Desktop/AIoT_software/LiteOS_Lab_overseas/LiteOS_Lab/iot_link/os/liteos/base/core\los_task.c ****         LOS_Schedule();
 892              		.loc 2 310 0
 893 013a FFF7FEFF 		bl	LOS_Schedule
 894 013e 00E0     		b	.L30
 895              	.L42:
 264:C:/Users/dtjld/Desktop/AIoT_software/LiteOS_Lab_overseas/LiteOS_Lab/iot_link/os/liteos/base/core\los_task.c ****     }
 896              		.loc 2 264 0
 897 0140 00BF     		nop
 898              	.L30:
 311:C:/Users/dtjld/Desktop/AIoT_software/LiteOS_Lab_overseas/LiteOS_Lab/iot_link/os/liteos/base/core\los_task.c ****     }
 312:C:/Users/dtjld/Desktop/AIoT_software/LiteOS_Lab_overseas/LiteOS_Lab/iot_link/os/liteos/base/core\los_task.c **** }
 899              		.loc 2 312 0
 900 0142 1037     		adds	r7, r7, #16
 901              	.LCFI49:
 902              		.cfi_def_cfa_offset 8
 903 0144 BD46     		mov	sp, r7
 904              	.LCFI50:
 905              		.cfi_def_cfa_register 13
 906              		@ sp needed
 907 0146 80BD     		pop	{r7, pc}
 908              	.L44:
 909              		.align	2
ARM GAS  C:\Users\dtjld\AppData\Local\Temp\ccU8krAq.s 			page 26


 910              	.L43:
 911 0148 00000000 		.word	g_stTskSortLink
 912              		.cfi_endproc
 913              	.LFE134:
 915              		.section	.rodata
 916              		.align	2
 917              	.LC0:
 918 0000 52756E6E 		.ascii	"Running\000"
 918      696E6700 
 919              		.align	2
 920              	.LC1:
 921 0008 52656164 		.ascii	"Ready\000"
 921      7900
 922 000e 0000     		.align	2
 923              	.LC2:
 924 0010 44656C61 		.ascii	"Delay\000"
 924      7900
 925 0016 0000     		.align	2
 926              	.LC3:
 927 0018 50656E64 		.ascii	"PendTimeOut\000"
 927      54696D65 
 927      4F757400 
 928              		.align	2
 929              	.LC4:
 930 0024 50656E64 		.ascii	"Pend\000"
 930      00
 931 0029 000000   		.align	2
 932              	.LC5:
 933 002c 53757370 		.ascii	"Suspend\000"
 933      656E6400 
 934              		.align	2
 935              	.LC6:
 936 0034 51756575 		.ascii	"QueuePendTimeOut\000"
 936      6550656E 
 936      6454696D 
 936      654F7574 
 936      00
 937 0045 000000   		.align	2
 938              	.LC7:
 939 0048 51756575 		.ascii	"QueuePend\000"
 939      6550656E 
 939      6400
 940 0052 0000     		.align	2
 941              	.LC8:
 942 0054 496D706F 		.ascii	"Impossible\000"
 942      73736962 
 942      6C6500
 943              		.section	.text.osConvertTskStatus,"ax",%progbits
 944              		.align	1
 945              		.global	osConvertTskStatus
 946              		.syntax unified
 947              		.thumb
 948              		.thumb_func
 949              		.fpu fpv4-sp-d16
 951              	osConvertTskStatus:
 952              	.LFB135:
 313:C:/Users/dtjld/Desktop/AIoT_software/LiteOS_Lab_overseas/LiteOS_Lab/iot_link/os/liteos/base/core\los_task.c **** 
ARM GAS  C:\Users\dtjld\AppData\Local\Temp\ccU8krAq.s 			page 27


 314:C:/Users/dtjld/Desktop/AIoT_software/LiteOS_Lab_overseas/LiteOS_Lab/iot_link/os/liteos/base/core\los_task.c **** /*****************************************************************************
 315:C:/Users/dtjld/Desktop/AIoT_software/LiteOS_Lab_overseas/LiteOS_Lab/iot_link/os/liteos/base/core\los_task.c ****  Function : osConvertTskStatus
 316:C:/Users/dtjld/Desktop/AIoT_software/LiteOS_Lab_overseas/LiteOS_Lab/iot_link/os/liteos/base/core\los_task.c ****  Description : Convert task status to string.
 317:C:/Users/dtjld/Desktop/AIoT_software/LiteOS_Lab_overseas/LiteOS_Lab/iot_link/os/liteos/base/core\los_task.c ****  Input       : usTaskStatus    --- task status
 318:C:/Users/dtjld/Desktop/AIoT_software/LiteOS_Lab_overseas/LiteOS_Lab/iot_link/os/liteos/base/core\los_task.c ****  Output      : None
 319:C:/Users/dtjld/Desktop/AIoT_software/LiteOS_Lab_overseas/LiteOS_Lab/iot_link/os/liteos/base/core\los_task.c ****  Return      : string
 320:C:/Users/dtjld/Desktop/AIoT_software/LiteOS_Lab_overseas/LiteOS_Lab/iot_link/os/liteos/base/core\los_task.c ****  *****************************************************************************/
 321:C:/Users/dtjld/Desktop/AIoT_software/LiteOS_Lab_overseas/LiteOS_Lab/iot_link/os/liteos/base/core\los_task.c **** LITE_OS_SEC_TEXT_MINOR UINT8 *osConvertTskStatus(UINT16 usTaskStatus)
 322:C:/Users/dtjld/Desktop/AIoT_software/LiteOS_Lab_overseas/LiteOS_Lab/iot_link/os/liteos/base/core\los_task.c **** {
 953              		.loc 2 322 0
 954              		.cfi_startproc
 955              		@ args = 0, pretend = 0, frame = 8
 956              		@ frame_needed = 1, uses_anonymous_args = 0
 957              		@ link register save eliminated.
 958 0000 80B4     		push	{r7}
 959              	.LCFI51:
 960              		.cfi_def_cfa_offset 4
 961              		.cfi_offset 7, -4
 962 0002 83B0     		sub	sp, sp, #12
 963              	.LCFI52:
 964              		.cfi_def_cfa_offset 16
 965 0004 00AF     		add	r7, sp, #0
 966              	.LCFI53:
 967              		.cfi_def_cfa_register 7
 968 0006 0346     		mov	r3, r0
 969 0008 FB80     		strh	r3, [r7, #6]	@ movhi
 323:C:/Users/dtjld/Desktop/AIoT_software/LiteOS_Lab_overseas/LiteOS_Lab/iot_link/os/liteos/base/core\los_task.c ****     if (OS_TASK_STATUS_RUNNING & usTaskStatus)
 970              		.loc 2 323 0
 971 000a FB88     		ldrh	r3, [r7, #6]	@ movhi
 972 000c 03F01003 		and	r3, r3, #16
 973 0010 9BB2     		uxth	r3, r3
 974 0012 002B     		cmp	r3, #0
 975 0014 01D0     		beq	.L46
 324:C:/Users/dtjld/Desktop/AIoT_software/LiteOS_Lab_overseas/LiteOS_Lab/iot_link/os/liteos/base/core\los_task.c ****     {
 325:C:/Users/dtjld/Desktop/AIoT_software/LiteOS_Lab_overseas/LiteOS_Lab/iot_link/os/liteos/base/core\los_task.c ****         return (UINT8 *)"Running";
 976              		.loc 2 325 0
 977 0016 204B     		ldr	r3, .L55
 978 0018 38E0     		b	.L47
 979              	.L46:
 326:C:/Users/dtjld/Desktop/AIoT_software/LiteOS_Lab_overseas/LiteOS_Lab/iot_link/os/liteos/base/core\los_task.c ****     }
 327:C:/Users/dtjld/Desktop/AIoT_software/LiteOS_Lab_overseas/LiteOS_Lab/iot_link/os/liteos/base/core\los_task.c ****     else if (OS_TASK_STATUS_READY &  usTaskStatus)
 980              		.loc 2 327 0
 981 001a FB88     		ldrh	r3, [r7, #6]	@ movhi
 982 001c 03F00403 		and	r3, r3, #4
 983 0020 9BB2     		uxth	r3, r3
 984 0022 002B     		cmp	r3, #0
 985 0024 01D0     		beq	.L48
 328:C:/Users/dtjld/Desktop/AIoT_software/LiteOS_Lab_overseas/LiteOS_Lab/iot_link/os/liteos/base/core\los_task.c ****     {
 329:C:/Users/dtjld/Desktop/AIoT_software/LiteOS_Lab_overseas/LiteOS_Lab/iot_link/os/liteos/base/core\los_task.c ****         return (UINT8 *)"Ready";
 986              		.loc 2 329 0
 987 0026 1D4B     		ldr	r3, .L55+4
 988 0028 30E0     		b	.L47
 989              	.L48:
 330:C:/Users/dtjld/Desktop/AIoT_software/LiteOS_Lab_overseas/LiteOS_Lab/iot_link/os/liteos/base/core\los_task.c ****     }
 331:C:/Users/dtjld/Desktop/AIoT_software/LiteOS_Lab_overseas/LiteOS_Lab/iot_link/os/liteos/base/core\los_task.c ****     else if (OS_TASK_STATUS_DELAY &  usTaskStatus)
 990              		.loc 2 331 0
 991 002a FB88     		ldrh	r3, [r7, #6]	@ movhi
ARM GAS  C:\Users\dtjld\AppData\Local\Temp\ccU8krAq.s 			page 28


 992 002c 03F02003 		and	r3, r3, #32
 993 0030 9BB2     		uxth	r3, r3
 994 0032 002B     		cmp	r3, #0
 995 0034 01D0     		beq	.L49
 332:C:/Users/dtjld/Desktop/AIoT_software/LiteOS_Lab_overseas/LiteOS_Lab/iot_link/os/liteos/base/core\los_task.c ****     {
 333:C:/Users/dtjld/Desktop/AIoT_software/LiteOS_Lab_overseas/LiteOS_Lab/iot_link/os/liteos/base/core\los_task.c ****         return (UINT8 *)"Delay";
 996              		.loc 2 333 0
 997 0036 1A4B     		ldr	r3, .L55+8
 998 0038 28E0     		b	.L47
 999              	.L49:
 334:C:/Users/dtjld/Desktop/AIoT_software/LiteOS_Lab_overseas/LiteOS_Lab/iot_link/os/liteos/base/core\los_task.c ****     }
 335:C:/Users/dtjld/Desktop/AIoT_software/LiteOS_Lab_overseas/LiteOS_Lab/iot_link/os/liteos/base/core\los_task.c ****     else if (OS_TASK_STATUS_PEND & usTaskStatus)
 1000              		.loc 2 335 0
 1001 003a FB88     		ldrh	r3, [r7, #6]	@ movhi
 1002 003c 03F00803 		and	r3, r3, #8
 1003 0040 9BB2     		uxth	r3, r3
 1004 0042 002B     		cmp	r3, #0
 1005 0044 09D0     		beq	.L50
 336:C:/Users/dtjld/Desktop/AIoT_software/LiteOS_Lab_overseas/LiteOS_Lab/iot_link/os/liteos/base/core\los_task.c ****     {
 337:C:/Users/dtjld/Desktop/AIoT_software/LiteOS_Lab_overseas/LiteOS_Lab/iot_link/os/liteos/base/core\los_task.c ****         if (OS_TASK_STATUS_TIMEOUT & usTaskStatus)
 1006              		.loc 2 337 0
 1007 0046 FB88     		ldrh	r3, [r7, #6]	@ movhi
 1008 0048 03F04003 		and	r3, r3, #64
 1009 004c 9BB2     		uxth	r3, r3
 1010 004e 002B     		cmp	r3, #0
 1011 0050 01D0     		beq	.L51
 338:C:/Users/dtjld/Desktop/AIoT_software/LiteOS_Lab_overseas/LiteOS_Lab/iot_link/os/liteos/base/core\los_task.c ****         {
 339:C:/Users/dtjld/Desktop/AIoT_software/LiteOS_Lab_overseas/LiteOS_Lab/iot_link/os/liteos/base/core\los_task.c ****             return (UINT8 *)"PendTimeOut";
 1012              		.loc 2 339 0
 1013 0052 144B     		ldr	r3, .L55+12
 1014 0054 1AE0     		b	.L47
 1015              	.L51:
 340:C:/Users/dtjld/Desktop/AIoT_software/LiteOS_Lab_overseas/LiteOS_Lab/iot_link/os/liteos/base/core\los_task.c ****         }
 341:C:/Users/dtjld/Desktop/AIoT_software/LiteOS_Lab_overseas/LiteOS_Lab/iot_link/os/liteos/base/core\los_task.c **** 
 342:C:/Users/dtjld/Desktop/AIoT_software/LiteOS_Lab_overseas/LiteOS_Lab/iot_link/os/liteos/base/core\los_task.c ****         return (UINT8 *)"Pend";
 1016              		.loc 2 342 0
 1017 0056 144B     		ldr	r3, .L55+16
 1018 0058 18E0     		b	.L47
 1019              	.L50:
 343:C:/Users/dtjld/Desktop/AIoT_software/LiteOS_Lab_overseas/LiteOS_Lab/iot_link/os/liteos/base/core\los_task.c ****     }
 344:C:/Users/dtjld/Desktop/AIoT_software/LiteOS_Lab_overseas/LiteOS_Lab/iot_link/os/liteos/base/core\los_task.c ****     else if (OS_TASK_STATUS_SUSPEND & usTaskStatus)
 1020              		.loc 2 344 0
 1021 005a FB88     		ldrh	r3, [r7, #6]	@ movhi
 1022 005c 03F00203 		and	r3, r3, #2
 1023 0060 9BB2     		uxth	r3, r3
 1024 0062 002B     		cmp	r3, #0
 1025 0064 01D0     		beq	.L52
 345:C:/Users/dtjld/Desktop/AIoT_software/LiteOS_Lab_overseas/LiteOS_Lab/iot_link/os/liteos/base/core\los_task.c ****     {
 346:C:/Users/dtjld/Desktop/AIoT_software/LiteOS_Lab_overseas/LiteOS_Lab/iot_link/os/liteos/base/core\los_task.c ****         return (UINT8 *)"Suspend";
 1026              		.loc 2 346 0
 1027 0066 114B     		ldr	r3, .L55+20
 1028 0068 10E0     		b	.L47
 1029              	.L52:
 347:C:/Users/dtjld/Desktop/AIoT_software/LiteOS_Lab_overseas/LiteOS_Lab/iot_link/os/liteos/base/core\los_task.c ****     }
 348:C:/Users/dtjld/Desktop/AIoT_software/LiteOS_Lab_overseas/LiteOS_Lab/iot_link/os/liteos/base/core\los_task.c ****     else if (OS_TASK_STATUS_PEND_QUEUE& usTaskStatus)
 1030              		.loc 2 348 0
 1031 006a FB88     		ldrh	r3, [r7, #6]	@ movhi
ARM GAS  C:\Users\dtjld\AppData\Local\Temp\ccU8krAq.s 			page 29


 1032 006c 03F40053 		and	r3, r3, #8192
 1033 0070 9BB2     		uxth	r3, r3
 1034 0072 002B     		cmp	r3, #0
 1035 0074 09D0     		beq	.L53
 349:C:/Users/dtjld/Desktop/AIoT_software/LiteOS_Lab_overseas/LiteOS_Lab/iot_link/os/liteos/base/core\los_task.c ****     {
 350:C:/Users/dtjld/Desktop/AIoT_software/LiteOS_Lab_overseas/LiteOS_Lab/iot_link/os/liteos/base/core\los_task.c ****         if (OS_TASK_STATUS_TIMEOUT & usTaskStatus)
 1036              		.loc 2 350 0
 1037 0076 FB88     		ldrh	r3, [r7, #6]	@ movhi
 1038 0078 03F04003 		and	r3, r3, #64
 1039 007c 9BB2     		uxth	r3, r3
 1040 007e 002B     		cmp	r3, #0
 1041 0080 01D0     		beq	.L54
 351:C:/Users/dtjld/Desktop/AIoT_software/LiteOS_Lab_overseas/LiteOS_Lab/iot_link/os/liteos/base/core\los_task.c ****         {
 352:C:/Users/dtjld/Desktop/AIoT_software/LiteOS_Lab_overseas/LiteOS_Lab/iot_link/os/liteos/base/core\los_task.c ****             return (UINT8 *)"QueuePendTimeOut";
 1042              		.loc 2 352 0
 1043 0082 0B4B     		ldr	r3, .L55+24
 1044 0084 02E0     		b	.L47
 1045              	.L54:
 353:C:/Users/dtjld/Desktop/AIoT_software/LiteOS_Lab_overseas/LiteOS_Lab/iot_link/os/liteos/base/core\los_task.c ****         }
 354:C:/Users/dtjld/Desktop/AIoT_software/LiteOS_Lab_overseas/LiteOS_Lab/iot_link/os/liteos/base/core\los_task.c **** 
 355:C:/Users/dtjld/Desktop/AIoT_software/LiteOS_Lab_overseas/LiteOS_Lab/iot_link/os/liteos/base/core\los_task.c ****         return (UINT8 *)"QueuePend";
 1046              		.loc 2 355 0
 1047 0086 0B4B     		ldr	r3, .L55+28
 1048 0088 00E0     		b	.L47
 1049              	.L53:
 356:C:/Users/dtjld/Desktop/AIoT_software/LiteOS_Lab_overseas/LiteOS_Lab/iot_link/os/liteos/base/core\los_task.c ****     }
 357:C:/Users/dtjld/Desktop/AIoT_software/LiteOS_Lab_overseas/LiteOS_Lab/iot_link/os/liteos/base/core\los_task.c **** 
 358:C:/Users/dtjld/Desktop/AIoT_software/LiteOS_Lab_overseas/LiteOS_Lab/iot_link/os/liteos/base/core\los_task.c ****     return (UINT8 *)"Impossible";
 1050              		.loc 2 358 0
 1051 008a 0B4B     		ldr	r3, .L55+32
 1052              	.L47:
 359:C:/Users/dtjld/Desktop/AIoT_software/LiteOS_Lab_overseas/LiteOS_Lab/iot_link/os/liteos/base/core\los_task.c **** }
 1053              		.loc 2 359 0
 1054 008c 1846     		mov	r0, r3
 1055 008e 0C37     		adds	r7, r7, #12
 1056              	.LCFI54:
 1057              		.cfi_def_cfa_offset 4
 1058 0090 BD46     		mov	sp, r7
 1059              	.LCFI55:
 1060              		.cfi_def_cfa_register 13
 1061              		@ sp needed
 1062 0092 5DF8047B 		ldr	r7, [sp], #4
 1063              	.LCFI56:
 1064              		.cfi_restore 7
 1065              		.cfi_def_cfa_offset 0
 1066 0096 7047     		bx	lr
 1067              	.L56:
 1068              		.align	2
 1069              	.L55:
 1070 0098 00000000 		.word	.LC0
 1071 009c 08000000 		.word	.LC1
 1072 00a0 10000000 		.word	.LC2
 1073 00a4 18000000 		.word	.LC3
 1074 00a8 24000000 		.word	.LC4
 1075 00ac 2C000000 		.word	.LC5
 1076 00b0 34000000 		.word	.LC6
 1077 00b4 48000000 		.word	.LC7
ARM GAS  C:\Users\dtjld\AppData\Local\Temp\ccU8krAq.s 			page 30


 1078 00b8 54000000 		.word	.LC8
 1079              		.cfi_endproc
 1080              	.LFE135:
 1082              		.section	.rodata
 1083 005f 00       		.align	2
 1084              	.LC9:
 1085 0060 5B455252 		.ascii	"[ERR] \000"
 1085      5D2000
 1086 0067 00       		.align	2
 1087              	.LC10:
 1088 0068 43555252 		.ascii	"CURRENT task %s stack overflow!\012\000"
 1088      454E5420 
 1088      7461736B 
 1088      20257320 
 1088      73746163 
 1089              		.section	.text.osGetTaskWaterLine,"ax",%progbits
 1090              		.align	1
 1091              		.global	osGetTaskWaterLine
 1092              		.syntax unified
 1093              		.thumb
 1094              		.thumb_func
 1095              		.fpu fpv4-sp-d16
 1097              	osGetTaskWaterLine:
 1098              	.LFB136:
 360:C:/Users/dtjld/Desktop/AIoT_software/LiteOS_Lab_overseas/LiteOS_Lab/iot_link/os/liteos/base/core\los_task.c **** 
 361:C:/Users/dtjld/Desktop/AIoT_software/LiteOS_Lab_overseas/LiteOS_Lab/iot_link/os/liteos/base/core\los_task.c **** LITE_OS_SEC_TEXT_MINOR UINT32 osGetTaskWaterLine(UINT32 uwTaskID)
 362:C:/Users/dtjld/Desktop/AIoT_software/LiteOS_Lab_overseas/LiteOS_Lab/iot_link/os/liteos/base/core\los_task.c **** {
 1099              		.loc 2 362 0
 1100              		.cfi_startproc
 1101              		@ args = 0, pretend = 0, frame = 24
 1102              		@ frame_needed = 1, uses_anonymous_args = 0
 1103 0000 80B5     		push	{r7, lr}
 1104              	.LCFI57:
 1105              		.cfi_def_cfa_offset 8
 1106              		.cfi_offset 7, -8
 1107              		.cfi_offset 14, -4
 1108 0002 86B0     		sub	sp, sp, #24
 1109              	.LCFI58:
 1110              		.cfi_def_cfa_offset 32
 1111 0004 00AF     		add	r7, sp, #0
 1112              	.LCFI59:
 1113              		.cfi_def_cfa_register 7
 1114 0006 7860     		str	r0, [r7, #4]
 363:C:/Users/dtjld/Desktop/AIoT_software/LiteOS_Lab_overseas/LiteOS_Lab/iot_link/os/liteos/base/core\los_task.c ****     UINT32 *puwStack;
 364:C:/Users/dtjld/Desktop/AIoT_software/LiteOS_Lab_overseas/LiteOS_Lab/iot_link/os/liteos/base/core\los_task.c ****     UINT32 uwPeakUsed;
 365:C:/Users/dtjld/Desktop/AIoT_software/LiteOS_Lab_overseas/LiteOS_Lab/iot_link/os/liteos/base/core\los_task.c ****     LOS_TASK_CB * pstTaskCB = OS_TCB_FROM_TID(uwTaskID);
 1115              		.loc 2 365 0
 1116 0008 1C4B     		ldr	r3, .L64
 1117 000a 1A68     		ldr	r2, [r3]
 1118 000c 7B68     		ldr	r3, [r7, #4]
 1119 000e 5421     		movs	r1, #84
 1120 0010 01FB03F3 		mul	r3, r1, r3
 1121 0014 1344     		add	r3, r3, r2
 1122 0016 FB60     		str	r3, [r7, #12]
 366:C:/Users/dtjld/Desktop/AIoT_software/LiteOS_Lab_overseas/LiteOS_Lab/iot_link/os/liteos/base/core\los_task.c **** 
 367:C:/Users/dtjld/Desktop/AIoT_software/LiteOS_Lab_overseas/LiteOS_Lab/iot_link/os/liteos/base/core\los_task.c ****     if (OS_TASK_MAGIC_WORD == *(UINT32 *)pstTaskCB->uwTopOfStack)
 1123              		.loc 2 367 0
ARM GAS  C:\Users\dtjld\AppData\Local\Temp\ccU8krAq.s 			page 31


 1124 0018 FB68     		ldr	r3, [r7, #12]
 1125 001a DB68     		ldr	r3, [r3, #12]
 1126 001c 1B68     		ldr	r3, [r3]
 1127 001e B3F1CC3F 		cmp	r3, #-858993460
 1128 0022 1AD1     		bne	.L58
 368:C:/Users/dtjld/Desktop/AIoT_software/LiteOS_Lab_overseas/LiteOS_Lab/iot_link/os/liteos/base/core\los_task.c ****     {
 369:C:/Users/dtjld/Desktop/AIoT_software/LiteOS_Lab_overseas/LiteOS_Lab/iot_link/os/liteos/base/core\los_task.c ****         puwStack = (UINT32 *)(pstTaskCB->uwTopOfStack + 4);
 1129              		.loc 2 369 0
 1130 0024 FB68     		ldr	r3, [r7, #12]
 1131 0026 DB68     		ldr	r3, [r3, #12]
 1132 0028 0433     		adds	r3, r3, #4
 1133 002a 7B61     		str	r3, [r7, #20]
 370:C:/Users/dtjld/Desktop/AIoT_software/LiteOS_Lab_overseas/LiteOS_Lab/iot_link/os/liteos/base/core\los_task.c ****         while ((puwStack < (UINT32 *)pstTaskCB->pStackPointer) && (*puwStack == 0xCACACACA))
 1134              		.loc 2 370 0
 1135 002c 02E0     		b	.L59
 1136              	.L61:
 371:C:/Users/dtjld/Desktop/AIoT_software/LiteOS_Lab_overseas/LiteOS_Lab/iot_link/os/liteos/base/core\los_task.c ****         {
 372:C:/Users/dtjld/Desktop/AIoT_software/LiteOS_Lab_overseas/LiteOS_Lab/iot_link/os/liteos/base/core\los_task.c ****             puwStack += 1;
 1137              		.loc 2 372 0
 1138 002e 7B69     		ldr	r3, [r7, #20]
 1139 0030 0433     		adds	r3, r3, #4
 1140 0032 7B61     		str	r3, [r7, #20]
 1141              	.L59:
 370:C:/Users/dtjld/Desktop/AIoT_software/LiteOS_Lab_overseas/LiteOS_Lab/iot_link/os/liteos/base/core\los_task.c ****         while ((puwStack < (UINT32 *)pstTaskCB->pStackPointer) && (*puwStack == 0xCACACACA))
 1142              		.loc 2 370 0
 1143 0034 FB68     		ldr	r3, [r7, #12]
 1144 0036 1B68     		ldr	r3, [r3]
 1145 0038 7A69     		ldr	r2, [r7, #20]
 1146 003a 9A42     		cmp	r2, r3
 1147 003c 04D2     		bcs	.L60
 370:C:/Users/dtjld/Desktop/AIoT_software/LiteOS_Lab_overseas/LiteOS_Lab/iot_link/os/liteos/base/core\los_task.c ****         while ((puwStack < (UINT32 *)pstTaskCB->pStackPointer) && (*puwStack == 0xCACACACA))
 1148              		.loc 2 370 0 is_stmt 0 discriminator 1
 1149 003e 7B69     		ldr	r3, [r7, #20]
 1150 0040 1B68     		ldr	r3, [r3]
 1151 0042 B3F1CA3F 		cmp	r3, #-892679478
 1152 0046 F2D0     		beq	.L61
 1153              	.L60:
 373:C:/Users/dtjld/Desktop/AIoT_software/LiteOS_Lab_overseas/LiteOS_Lab/iot_link/os/liteos/base/core\los_task.c ****         }
 374:C:/Users/dtjld/Desktop/AIoT_software/LiteOS_Lab_overseas/LiteOS_Lab/iot_link/os/liteos/base/core\los_task.c ****         uwPeakUsed = (pstTaskCB->uwStackSize - ((UINT32)puwStack - pstTaskCB->uwTopOfStack));
 1154              		.loc 2 374 0 is_stmt 1
 1155 0048 FB68     		ldr	r3, [r7, #12]
 1156 004a 9A68     		ldr	r2, [r3, #8]
 1157 004c FB68     		ldr	r3, [r7, #12]
 1158 004e D968     		ldr	r1, [r3, #12]
 1159 0050 7B69     		ldr	r3, [r7, #20]
 1160 0052 CB1A     		subs	r3, r1, r3
 1161 0054 1344     		add	r3, r3, r2
 1162 0056 3B61     		str	r3, [r7, #16]
 1163 0058 0BE0     		b	.L62
 1164              	.L58:
 1165              	.LBB2:
 375:C:/Users/dtjld/Desktop/AIoT_software/LiteOS_Lab_overseas/LiteOS_Lab/iot_link/os/liteos/base/core\los_task.c ****     }
 376:C:/Users/dtjld/Desktop/AIoT_software/LiteOS_Lab_overseas/LiteOS_Lab/iot_link/os/liteos/base/core\los_task.c ****     else
 377:C:/Users/dtjld/Desktop/AIoT_software/LiteOS_Lab_overseas/LiteOS_Lab/iot_link/os/liteos/base/core\los_task.c ****     {
 378:C:/Users/dtjld/Desktop/AIoT_software/LiteOS_Lab_overseas/LiteOS_Lab/iot_link/os/liteos/base/core\los_task.c ****         PRINT_ERR("CURRENT task %s stack overflow!\n", pstTaskCB->pcTaskName);
 1166              		.loc 2 378 0
 1167 005a 0948     		ldr	r0, .L64+4
ARM GAS  C:\Users\dtjld\AppData\Local\Temp\ccU8krAq.s 			page 32


 1168 005c FFF7FEFF 		bl	printf
 1169 0060 FB68     		ldr	r3, [r7, #12]
 1170 0062 5B6A     		ldr	r3, [r3, #36]
 1171 0064 1946     		mov	r1, r3
 1172 0066 0748     		ldr	r0, .L64+8
 1173 0068 FFF7FEFF 		bl	printf
 1174              	.LBE2:
 379:C:/Users/dtjld/Desktop/AIoT_software/LiteOS_Lab_overseas/LiteOS_Lab/iot_link/os/liteos/base/core\los_task.c ****         uwPeakUsed = 0xFFFFFFFF;
 1175              		.loc 2 379 0
 1176 006c 4FF0FF33 		mov	r3, #-1
 1177 0070 3B61     		str	r3, [r7, #16]
 1178              	.L62:
 380:C:/Users/dtjld/Desktop/AIoT_software/LiteOS_Lab_overseas/LiteOS_Lab/iot_link/os/liteos/base/core\los_task.c ****     }
 381:C:/Users/dtjld/Desktop/AIoT_software/LiteOS_Lab_overseas/LiteOS_Lab/iot_link/os/liteos/base/core\los_task.c ****     return uwPeakUsed;
 1179              		.loc 2 381 0
 1180 0072 3B69     		ldr	r3, [r7, #16]
 382:C:/Users/dtjld/Desktop/AIoT_software/LiteOS_Lab_overseas/LiteOS_Lab/iot_link/os/liteos/base/core\los_task.c **** }
 1181              		.loc 2 382 0
 1182 0074 1846     		mov	r0, r3
 1183 0076 1837     		adds	r7, r7, #24
 1184              	.LCFI60:
 1185              		.cfi_def_cfa_offset 8
 1186 0078 BD46     		mov	sp, r7
 1187              	.LCFI61:
 1188              		.cfi_def_cfa_register 13
 1189              		@ sp needed
 1190 007a 80BD     		pop	{r7, pc}
 1191              	.L65:
 1192              		.align	2
 1193              	.L64:
 1194 007c 00000000 		.word	g_pstTaskCBArray
 1195 0080 60000000 		.word	.LC9
 1196 0084 68000000 		.word	.LC10
 1197              		.cfi_endproc
 1198              	.LFE136:
 1200              		.section	.rodata
 1201 0089 000000   		.align	2
 1202              	.LC11:
 1203 008c 0D0A4E61 		.ascii	"\015\012Name            TID    Priority   Status   "
 1203      6D652020 
 1203      20202020 
 1203      20202020 
 1203      20205449 
 1204 00b9 20202020 		.ascii	"    StackSize    WaterLine    StackPoint  TopOfStac"
 1204      53746163 
 1204      6B53697A 
 1204      65202020 
 1204      20576174 
 1205 00ec 6B202020 		.ascii	"k   EventMask  SemID\000"
 1205      4576656E 
 1205      744D6173 
 1205      6B202053 
 1205      656D4944 
 1206 0101 000000   		.align	2
 1207              	.LC12:
 1208 0104 0A0D00   		.ascii	"\012\015\000"
 1209 0107 00       		.align	2
ARM GAS  C:\Users\dtjld\AppData\Local\Temp\ccU8krAq.s 			page 33


 1210              	.LC13:
 1211 0108 2D2D2D2D 		.ascii	"----            ---    --------   --------     ----"
 1211      20202020 
 1211      20202020 
 1211      20202020 
 1211      2D2D2D20 
 1212 013b 2D2D2D2D 		.ascii	"-----    ----------   ----------  ----------   ----"
 1212      2D202020 
 1212      202D2D2D 
 1212      2D2D2D2D 
 1212      2D2D2D20 
 1213 016e 2D2D2D2D 		.ascii	"-----  -----\000"
 1213      2D20202D 
 1213      2D2D2D2D 
 1213      00
 1214 017b 00       		.align	2
 1215              	.LC14:
 1216 017c 252D3136 		.ascii	"%-16s0x%-5x%-11d%-13s0x%-11x0x%-11x0x%-10x0x%-11x0x"
 1216      73307825 
 1216      2D357825 
 1216      2D313164 
 1216      252D3133 
 1217 01af 252D3978 		.ascii	"%-9x\000"
 1217      00
 1218              		.align	2
 1219              	.LC15:
 1220 01b4 3078252D 		.ascii	"0x%-7x\000"
 1220      377800
 1221 01bb 00       		.align	2
 1222              	.LC16:
 1223 01bc 0D00     		.ascii	"\015\000"
 1224              		.section	.text.osGetAllTskInfo,"ax",%progbits
 1225              		.align	1
 1226              		.global	osGetAllTskInfo
 1227              		.syntax unified
 1228              		.thumb
 1229              		.thumb_func
 1230              		.fpu fpv4-sp-d16
 1232              	osGetAllTskInfo:
 1233              	.LFB137:
 383:C:/Users/dtjld/Desktop/AIoT_software/LiteOS_Lab_overseas/LiteOS_Lab/iot_link/os/liteos/base/core\los_task.c **** 
 384:C:/Users/dtjld/Desktop/AIoT_software/LiteOS_Lab_overseas/LiteOS_Lab/iot_link/os/liteos/base/core\los_task.c **** /*****************************************************************************
 385:C:/Users/dtjld/Desktop/AIoT_software/LiteOS_Lab_overseas/LiteOS_Lab/iot_link/os/liteos/base/core\los_task.c ****  Function : osGetAllTskInfo
 386:C:/Users/dtjld/Desktop/AIoT_software/LiteOS_Lab_overseas/LiteOS_Lab/iot_link/os/liteos/base/core\los_task.c ****  Description : Get all task info.
 387:C:/Users/dtjld/Desktop/AIoT_software/LiteOS_Lab_overseas/LiteOS_Lab/iot_link/os/liteos/base/core\los_task.c ****  Input       : None
 388:C:/Users/dtjld/Desktop/AIoT_software/LiteOS_Lab_overseas/LiteOS_Lab/iot_link/os/liteos/base/core\los_task.c ****  Output      : None
 389:C:/Users/dtjld/Desktop/AIoT_software/LiteOS_Lab_overseas/LiteOS_Lab/iot_link/os/liteos/base/core\los_task.c ****  Return      : None
 390:C:/Users/dtjld/Desktop/AIoT_software/LiteOS_Lab_overseas/LiteOS_Lab/iot_link/os/liteos/base/core\los_task.c ****  *****************************************************************************/
 391:C:/Users/dtjld/Desktop/AIoT_software/LiteOS_Lab_overseas/LiteOS_Lab/iot_link/os/liteos/base/core\los_task.c **** LITE_OS_SEC_TEXT_MINOR UINT32 osGetAllTskInfo(VOID)
 392:C:/Users/dtjld/Desktop/AIoT_software/LiteOS_Lab_overseas/LiteOS_Lab/iot_link/os/liteos/base/core\los_task.c **** {
 1234              		.loc 2 392 0
 1235              		.cfi_startproc
 1236              		@ args = 0, pretend = 0, frame = 16
 1237              		@ frame_needed = 1, uses_anonymous_args = 0
 1238 0000 2DE9F041 		push	{r4, r5, r6, r7, r8, lr}
 1239              	.LCFI62:
 1240              		.cfi_def_cfa_offset 24
ARM GAS  C:\Users\dtjld\AppData\Local\Temp\ccU8krAq.s 			page 34


 1241              		.cfi_offset 4, -24
 1242              		.cfi_offset 5, -20
 1243              		.cfi_offset 6, -16
 1244              		.cfi_offset 7, -12
 1245              		.cfi_offset 8, -8
 1246              		.cfi_offset 14, -4
 1247 0004 8AB0     		sub	sp, sp, #40
 1248              	.LCFI63:
 1249              		.cfi_def_cfa_offset 64
 1250 0006 06AF     		add	r7, sp, #24
 1251              	.LCFI64:
 1252              		.cfi_def_cfa 7, 40
 393:C:/Users/dtjld/Desktop/AIoT_software/LiteOS_Lab_overseas/LiteOS_Lab/iot_link/os/liteos/base/core\los_task.c ****     LOS_TASK_CB *pstTaskCB;
 394:C:/Users/dtjld/Desktop/AIoT_software/LiteOS_Lab_overseas/LiteOS_Lab/iot_link/os/liteos/base/core\los_task.c ****     UINT32       uwLoop;
 395:C:/Users/dtjld/Desktop/AIoT_software/LiteOS_Lab_overseas/LiteOS_Lab/iot_link/os/liteos/base/core\los_task.c **** #if (LOSCFG_BASE_CORE_CPUP == YES)
 396:C:/Users/dtjld/Desktop/AIoT_software/LiteOS_Lab_overseas/LiteOS_Lab/iot_link/os/liteos/base/core\los_task.c ****     CPUP_INFO_S *pstCpu = (CPUP_INFO_S *)NULL;
 397:C:/Users/dtjld/Desktop/AIoT_software/LiteOS_Lab_overseas/LiteOS_Lab/iot_link/os/liteos/base/core\los_task.c ****     CPUP_INFO_S *pstCpu10s = (CPUP_INFO_S *)NULL;
 398:C:/Users/dtjld/Desktop/AIoT_software/LiteOS_Lab_overseas/LiteOS_Lab/iot_link/os/liteos/base/core\los_task.c ****     CPUP_INFO_S *pstCpu1s = (CPUP_INFO_S *)NULL;
 399:C:/Users/dtjld/Desktop/AIoT_software/LiteOS_Lab_overseas/LiteOS_Lab/iot_link/os/liteos/base/core\los_task.c **** #endif
 400:C:/Users/dtjld/Desktop/AIoT_software/LiteOS_Lab_overseas/LiteOS_Lab/iot_link/os/liteos/base/core\los_task.c **** 
 401:C:/Users/dtjld/Desktop/AIoT_software/LiteOS_Lab_overseas/LiteOS_Lab/iot_link/os/liteos/base/core\los_task.c **** #if (LOSCFG_BASE_CORE_CPUP == YES)
 402:C:/Users/dtjld/Desktop/AIoT_software/LiteOS_Lab_overseas/LiteOS_Lab/iot_link/os/liteos/base/core\los_task.c ****     pstCpu = (CPUP_INFO_S *)LOS_MemAlloc((VOID *)OS_SYS_MEM_ADDR, sizeof(CPUP_INFO_S) * g_uwTskMaxN
 403:C:/Users/dtjld/Desktop/AIoT_software/LiteOS_Lab_overseas/LiteOS_Lab/iot_link/os/liteos/base/core\los_task.c ****     if (pstCpu == NULL)
 404:C:/Users/dtjld/Desktop/AIoT_software/LiteOS_Lab_overseas/LiteOS_Lab/iot_link/os/liteos/base/core\los_task.c ****     {
 405:C:/Users/dtjld/Desktop/AIoT_software/LiteOS_Lab_overseas/LiteOS_Lab/iot_link/os/liteos/base/core\los_task.c ****         PRINT_ERR("%s[%d] malloc failure!\n", __FUNCTION__, __LINE__);/*lint !e515*/
 406:C:/Users/dtjld/Desktop/AIoT_software/LiteOS_Lab_overseas/LiteOS_Lab/iot_link/os/liteos/base/core\los_task.c ****         return OS_ERROR;
 407:C:/Users/dtjld/Desktop/AIoT_software/LiteOS_Lab_overseas/LiteOS_Lab/iot_link/os/liteos/base/core\los_task.c ****     }
 408:C:/Users/dtjld/Desktop/AIoT_software/LiteOS_Lab_overseas/LiteOS_Lab/iot_link/os/liteos/base/core\los_task.c ****     (VOID)memset((VOID *)pstCpu, (int)0, sizeof(CPUP_INFO_S) * g_uwTskMaxNum);
 409:C:/Users/dtjld/Desktop/AIoT_software/LiteOS_Lab_overseas/LiteOS_Lab/iot_link/os/liteos/base/core\los_task.c **** 
 410:C:/Users/dtjld/Desktop/AIoT_software/LiteOS_Lab_overseas/LiteOS_Lab/iot_link/os/liteos/base/core\los_task.c ****     pstCpu10s = (CPUP_INFO_S *)LOS_MemAlloc((VOID *)OS_SYS_MEM_ADDR, sizeof(CPUP_INFO_S) * g_uwTskM
 411:C:/Users/dtjld/Desktop/AIoT_software/LiteOS_Lab_overseas/LiteOS_Lab/iot_link/os/liteos/base/core\los_task.c ****     if (pstCpu10s == NULL)
 412:C:/Users/dtjld/Desktop/AIoT_software/LiteOS_Lab_overseas/LiteOS_Lab/iot_link/os/liteos/base/core\los_task.c ****     {
 413:C:/Users/dtjld/Desktop/AIoT_software/LiteOS_Lab_overseas/LiteOS_Lab/iot_link/os/liteos/base/core\los_task.c ****         PRINT_ERR("%s[%d] malloc failure!\n", __FUNCTION__, __LINE__);/*lint !e515*/
 414:C:/Users/dtjld/Desktop/AIoT_software/LiteOS_Lab_overseas/LiteOS_Lab/iot_link/os/liteos/base/core\los_task.c ****         (VOID)LOS_MemFree((VOID *)OS_SYS_MEM_ADDR, pstCpu);
 415:C:/Users/dtjld/Desktop/AIoT_software/LiteOS_Lab_overseas/LiteOS_Lab/iot_link/os/liteos/base/core\los_task.c ****         return OS_ERROR;
 416:C:/Users/dtjld/Desktop/AIoT_software/LiteOS_Lab_overseas/LiteOS_Lab/iot_link/os/liteos/base/core\los_task.c ****     }
 417:C:/Users/dtjld/Desktop/AIoT_software/LiteOS_Lab_overseas/LiteOS_Lab/iot_link/os/liteos/base/core\los_task.c ****     (VOID)memset((VOID *)pstCpu10s, (int)0, sizeof(CPUP_INFO_S) * g_uwTskMaxNum);
 418:C:/Users/dtjld/Desktop/AIoT_software/LiteOS_Lab_overseas/LiteOS_Lab/iot_link/os/liteos/base/core\los_task.c **** 
 419:C:/Users/dtjld/Desktop/AIoT_software/LiteOS_Lab_overseas/LiteOS_Lab/iot_link/os/liteos/base/core\los_task.c ****     pstCpu1s = (CPUP_INFO_S *)LOS_MemAlloc((VOID *)OS_SYS_MEM_ADDR, sizeof(CPUP_INFO_S) * g_uwTskMa
 420:C:/Users/dtjld/Desktop/AIoT_software/LiteOS_Lab_overseas/LiteOS_Lab/iot_link/os/liteos/base/core\los_task.c ****     if (pstCpu1s == NULL)
 421:C:/Users/dtjld/Desktop/AIoT_software/LiteOS_Lab_overseas/LiteOS_Lab/iot_link/os/liteos/base/core\los_task.c ****     {
 422:C:/Users/dtjld/Desktop/AIoT_software/LiteOS_Lab_overseas/LiteOS_Lab/iot_link/os/liteos/base/core\los_task.c ****         PRINT_ERR("%s[%d] malloc failure!\n", __FUNCTION__, __LINE__);/*lint !e515*/
 423:C:/Users/dtjld/Desktop/AIoT_software/LiteOS_Lab_overseas/LiteOS_Lab/iot_link/os/liteos/base/core\los_task.c ****         (VOID)LOS_MemFree((VOID *)OS_SYS_MEM_ADDR, pstCpu);
 424:C:/Users/dtjld/Desktop/AIoT_software/LiteOS_Lab_overseas/LiteOS_Lab/iot_link/os/liteos/base/core\los_task.c ****         (VOID)LOS_MemFree((VOID *)OS_SYS_MEM_ADDR, pstCpu10s);
 425:C:/Users/dtjld/Desktop/AIoT_software/LiteOS_Lab_overseas/LiteOS_Lab/iot_link/os/liteos/base/core\los_task.c ****         return OS_ERROR;
 426:C:/Users/dtjld/Desktop/AIoT_software/LiteOS_Lab_overseas/LiteOS_Lab/iot_link/os/liteos/base/core\los_task.c ****     }
 427:C:/Users/dtjld/Desktop/AIoT_software/LiteOS_Lab_overseas/LiteOS_Lab/iot_link/os/liteos/base/core\los_task.c ****     (VOID)memset((VOID *)pstCpu1s, (int)0, sizeof(CPUP_INFO_S) * g_uwTskMaxNum);
 428:C:/Users/dtjld/Desktop/AIoT_software/LiteOS_Lab_overseas/LiteOS_Lab/iot_link/os/liteos/base/core\los_task.c **** 
 429:C:/Users/dtjld/Desktop/AIoT_software/LiteOS_Lab_overseas/LiteOS_Lab/iot_link/os/liteos/base/core\los_task.c ****     LOS_TaskLock();
 430:C:/Users/dtjld/Desktop/AIoT_software/LiteOS_Lab_overseas/LiteOS_Lab/iot_link/os/liteos/base/core\los_task.c ****     (VOID)LOS_AllTaskCpuUsage(g_uwTskMaxNum, pstCpu, 0xffff);
 431:C:/Users/dtjld/Desktop/AIoT_software/LiteOS_Lab_overseas/LiteOS_Lab/iot_link/os/liteos/base/core\los_task.c ****     (VOID)LOS_AllTaskCpuUsage(g_uwTskMaxNum, pstCpu10s, 0);
 432:C:/Users/dtjld/Desktop/AIoT_software/LiteOS_Lab_overseas/LiteOS_Lab/iot_link/os/liteos/base/core\los_task.c ****     (VOID)LOS_AllTaskCpuUsage(g_uwTskMaxNum, pstCpu1s, 1);
 433:C:/Users/dtjld/Desktop/AIoT_software/LiteOS_Lab_overseas/LiteOS_Lab/iot_link/os/liteos/base/core\los_task.c ****     LOS_TaskUnlock();
 434:C:/Users/dtjld/Desktop/AIoT_software/LiteOS_Lab_overseas/LiteOS_Lab/iot_link/os/liteos/base/core\los_task.c **** #endif
 435:C:/Users/dtjld/Desktop/AIoT_software/LiteOS_Lab_overseas/LiteOS_Lab/iot_link/os/liteos/base/core\los_task.c **** 
 436:C:/Users/dtjld/Desktop/AIoT_software/LiteOS_Lab_overseas/LiteOS_Lab/iot_link/os/liteos/base/core\los_task.c ****     PRINTK("\r\nName            TID    Priority   Status       StackSize    WaterLine    StackPoint
 1253              		.loc 2 436 0
ARM GAS  C:\Users\dtjld\AppData\Local\Temp\ccU8krAq.s 			page 35


 1254 0008 3448     		ldr	r0, .L75
 1255 000a FFF7FEFF 		bl	printf
 437:C:/Users/dtjld/Desktop/AIoT_software/LiteOS_Lab_overseas/LiteOS_Lab/iot_link/os/liteos/base/core\los_task.c **** #if (LOSCFG_BASE_CORE_CPUP == YES)
 438:C:/Users/dtjld/Desktop/AIoT_software/LiteOS_Lab_overseas/LiteOS_Lab/iot_link/os/liteos/base/core\los_task.c ****     PRINT_ERR(" CPUUSE   CPUUSE10s  CPUUSE1s  ");/*lint !e515*/
 439:C:/Users/dtjld/Desktop/AIoT_software/LiteOS_Lab_overseas/LiteOS_Lab/iot_link/os/liteos/base/core\los_task.c **** #endif /* LOSCFG_BASE_CORE_CPUP */
 440:C:/Users/dtjld/Desktop/AIoT_software/LiteOS_Lab_overseas/LiteOS_Lab/iot_link/os/liteos/base/core\los_task.c ****     PRINTK("\n\r");/*lint !e515*/
 1256              		.loc 2 440 0
 1257 000e 3448     		ldr	r0, .L75+4
 1258 0010 FFF7FEFF 		bl	printf
 441:C:/Users/dtjld/Desktop/AIoT_software/LiteOS_Lab_overseas/LiteOS_Lab/iot_link/os/liteos/base/core\los_task.c ****     PRINTK("----            ---    --------   --------     ---------    ----------   ----------  --
 1259              		.loc 2 441 0
 1260 0014 3348     		ldr	r0, .L75+8
 1261 0016 FFF7FEFF 		bl	printf
 442:C:/Users/dtjld/Desktop/AIoT_software/LiteOS_Lab_overseas/LiteOS_Lab/iot_link/os/liteos/base/core\los_task.c **** #if (LOSCFG_BASE_CORE_CPUP == YES)
 443:C:/Users/dtjld/Desktop/AIoT_software/LiteOS_Lab_overseas/LiteOS_Lab/iot_link/os/liteos/base/core\los_task.c ****     PRINT_ERR("  ------- ---------  ---------");/*lint !e515*/
 444:C:/Users/dtjld/Desktop/AIoT_software/LiteOS_Lab_overseas/LiteOS_Lab/iot_link/os/liteos/base/core\los_task.c **** #endif /* LOSCFG_BASE_CORE_CPUP */
 445:C:/Users/dtjld/Desktop/AIoT_software/LiteOS_Lab_overseas/LiteOS_Lab/iot_link/os/liteos/base/core\los_task.c ****     PRINTK("\n\r");/*lint !e515*/
 1262              		.loc 2 445 0
 1263 001a 3148     		ldr	r0, .L75+4
 1264 001c FFF7FEFF 		bl	printf
 446:C:/Users/dtjld/Desktop/AIoT_software/LiteOS_Lab_overseas/LiteOS_Lab/iot_link/os/liteos/base/core\los_task.c **** 
 447:C:/Users/dtjld/Desktop/AIoT_software/LiteOS_Lab_overseas/LiteOS_Lab/iot_link/os/liteos/base/core\los_task.c ****     for (uwLoop = 0; uwLoop < g_uwTskMaxNum; uwLoop++)
 1265              		.loc 2 447 0
 1266 0020 0023     		movs	r3, #0
 1267 0022 FB60     		str	r3, [r7, #12]
 1268 0024 4FE0     		b	.L67
 1269              	.L72:
 448:C:/Users/dtjld/Desktop/AIoT_software/LiteOS_Lab_overseas/LiteOS_Lab/iot_link/os/liteos/base/core\los_task.c ****     {
 449:C:/Users/dtjld/Desktop/AIoT_software/LiteOS_Lab_overseas/LiteOS_Lab/iot_link/os/liteos/base/core\los_task.c ****         //uvIntSave = LOS_IntLock();
 450:C:/Users/dtjld/Desktop/AIoT_software/LiteOS_Lab_overseas/LiteOS_Lab/iot_link/os/liteos/base/core\los_task.c ****         pstTaskCB = OS_TCB_FROM_TID(uwLoop);
 1270              		.loc 2 450 0
 1271 0026 304B     		ldr	r3, .L75+12
 1272 0028 1A68     		ldr	r2, [r3]
 1273 002a FB68     		ldr	r3, [r7, #12]
 1274 002c 5421     		movs	r1, #84
 1275 002e 01FB03F3 		mul	r3, r1, r3
 1276 0032 1344     		add	r3, r3, r2
 1277 0034 BB60     		str	r3, [r7, #8]
 451:C:/Users/dtjld/Desktop/AIoT_software/LiteOS_Lab_overseas/LiteOS_Lab/iot_link/os/liteos/base/core\los_task.c ****         if (pstTaskCB->usTaskStatus & OS_TASK_STATUS_UNUSED)
 1278              		.loc 2 451 0
 1279 0036 BB68     		ldr	r3, [r7, #8]
 1280 0038 9B88     		ldrh	r3, [r3, #4]
 1281 003a 03F00103 		and	r3, r3, #1
 1282 003e 002B     		cmp	r3, #0
 1283 0040 3DD1     		bne	.L74
 452:C:/Users/dtjld/Desktop/AIoT_software/LiteOS_Lab_overseas/LiteOS_Lab/iot_link/os/liteos/base/core\los_task.c ****         {
 453:C:/Users/dtjld/Desktop/AIoT_software/LiteOS_Lab_overseas/LiteOS_Lab/iot_link/os/liteos/base/core\los_task.c ****             //LOS_IntRestore(uvIntSave);
 454:C:/Users/dtjld/Desktop/AIoT_software/LiteOS_Lab_overseas/LiteOS_Lab/iot_link/os/liteos/base/core\los_task.c ****             continue;
 455:C:/Users/dtjld/Desktop/AIoT_software/LiteOS_Lab_overseas/LiteOS_Lab/iot_link/os/liteos/base/core\los_task.c ****         }
 456:C:/Users/dtjld/Desktop/AIoT_software/LiteOS_Lab_overseas/LiteOS_Lab/iot_link/os/liteos/base/core\los_task.c **** 
 457:C:/Users/dtjld/Desktop/AIoT_software/LiteOS_Lab_overseas/LiteOS_Lab/iot_link/os/liteos/base/core\los_task.c ****         PRINTK("%-16s0x%-5x%-11d%-13s0x%-11x0x%-11x0x%-10x0x%-11x0x%-9x",
 1284              		.loc 2 457 0
 1285 0042 BB68     		ldr	r3, [r7, #8]
 1286 0044 5D6A     		ldr	r5, [r3, #36]
 1287 0046 BB68     		ldr	r3, [r7, #8]
 1288 0048 1E69     		ldr	r6, [r3, #16]
 1289 004a BB68     		ldr	r3, [r7, #8]
ARM GAS  C:\Users\dtjld\AppData\Local\Temp\ccU8krAq.s 			page 36


 1290 004c DB88     		ldrh	r3, [r3, #6]
 1291 004e 9846     		mov	r8, r3
 1292 0050 BB68     		ldr	r3, [r7, #8]
 1293 0052 9B88     		ldrh	r3, [r3, #4]
 1294 0054 1846     		mov	r0, r3
 1295 0056 FFF7FEFF 		bl	osConvertTskStatus
 1296 005a 7860     		str	r0, [r7, #4]
 1297 005c BB68     		ldr	r3, [r7, #8]
 1298 005e 9C68     		ldr	r4, [r3, #8]
 1299 0060 BB68     		ldr	r3, [r7, #8]
 1300 0062 1B69     		ldr	r3, [r3, #16]
 1301 0064 1846     		mov	r0, r3
 1302 0066 FFF7FEFF 		bl	osGetTaskWaterLine
 1303 006a 0146     		mov	r1, r0
 1304 006c BB68     		ldr	r3, [r7, #8]
 1305 006e 1B68     		ldr	r3, [r3]
 1306 0070 1846     		mov	r0, r3
 1307 0072 BB68     		ldr	r3, [r7, #8]
 1308 0074 DB68     		ldr	r3, [r3, #12]
 1309 0076 BA68     		ldr	r2, [r7, #8]
 1310 0078 926C     		ldr	r2, [r2, #72]
 1311 007a 0592     		str	r2, [sp, #20]
 1312 007c 0493     		str	r3, [sp, #16]
 1313 007e 0390     		str	r0, [sp, #12]
 1314 0080 0291     		str	r1, [sp, #8]
 1315 0082 0194     		str	r4, [sp, #4]
 1316 0084 7B68     		ldr	r3, [r7, #4]
 1317 0086 0093     		str	r3, [sp]
 1318 0088 4346     		mov	r3, r8
 1319 008a 3246     		mov	r2, r6
 1320 008c 2946     		mov	r1, r5
 1321 008e 1748     		ldr	r0, .L75+16
 1322 0090 FFF7FEFF 		bl	printf
 458:C:/Users/dtjld/Desktop/AIoT_software/LiteOS_Lab_overseas/LiteOS_Lab/iot_link/os/liteos/base/core\los_task.c ****                           pstTaskCB->pcTaskName,
 459:C:/Users/dtjld/Desktop/AIoT_software/LiteOS_Lab_overseas/LiteOS_Lab/iot_link/os/liteos/base/core\los_task.c ****                           pstTaskCB->uwTaskID,
 460:C:/Users/dtjld/Desktop/AIoT_software/LiteOS_Lab_overseas/LiteOS_Lab/iot_link/os/liteos/base/core\los_task.c ****                           pstTaskCB->usPriority,
 461:C:/Users/dtjld/Desktop/AIoT_software/LiteOS_Lab_overseas/LiteOS_Lab/iot_link/os/liteos/base/core\los_task.c ****                           osConvertTskStatus(pstTaskCB->usTaskStatus),
 462:C:/Users/dtjld/Desktop/AIoT_software/LiteOS_Lab_overseas/LiteOS_Lab/iot_link/os/liteos/base/core\los_task.c ****                           pstTaskCB->uwStackSize,
 463:C:/Users/dtjld/Desktop/AIoT_software/LiteOS_Lab_overseas/LiteOS_Lab/iot_link/os/liteos/base/core\los_task.c ****                           osGetTaskWaterLine(pstTaskCB->uwTaskID),
 464:C:/Users/dtjld/Desktop/AIoT_software/LiteOS_Lab_overseas/LiteOS_Lab/iot_link/os/liteos/base/core\los_task.c ****                           (UINT32)pstTaskCB->pStackPointer,
 465:C:/Users/dtjld/Desktop/AIoT_software/LiteOS_Lab_overseas/LiteOS_Lab/iot_link/os/liteos/base/core\los_task.c ****                           pstTaskCB->uwTopOfStack,
 466:C:/Users/dtjld/Desktop/AIoT_software/LiteOS_Lab_overseas/LiteOS_Lab/iot_link/os/liteos/base/core\los_task.c ****                           pstTaskCB->uwEventMask);/*lint !e515*/
 467:C:/Users/dtjld/Desktop/AIoT_software/LiteOS_Lab_overseas/LiteOS_Lab/iot_link/os/liteos/base/core\los_task.c **** 
 468:C:/Users/dtjld/Desktop/AIoT_software/LiteOS_Lab_overseas/LiteOS_Lab/iot_link/os/liteos/base/core\los_task.c ****         if (pstTaskCB->pTaskSem != NULL)
 1323              		.loc 2 468 0
 1324 0094 BB68     		ldr	r3, [r7, #8]
 1325 0096 9B69     		ldr	r3, [r3, #24]
 1326 0098 002B     		cmp	r3, #0
 1327 009a 07D0     		beq	.L70
 469:C:/Users/dtjld/Desktop/AIoT_software/LiteOS_Lab_overseas/LiteOS_Lab/iot_link/os/liteos/base/core\los_task.c ****         {
 470:C:/Users/dtjld/Desktop/AIoT_software/LiteOS_Lab_overseas/LiteOS_Lab/iot_link/os/liteos/base/core\los_task.c ****             PRINTK("0x%-7x", ((SEM_CB_S *)pstTaskCB->pTaskSem)->usSemID);/*lint !e516*/
 1328              		.loc 2 470 0
 1329 009c BB68     		ldr	r3, [r7, #8]
 1330 009e 9B69     		ldr	r3, [r3, #24]
 1331 00a0 DB88     		ldrh	r3, [r3, #6]
 1332 00a2 1946     		mov	r1, r3
 1333 00a4 1248     		ldr	r0, .L75+20
ARM GAS  C:\Users\dtjld\AppData\Local\Temp\ccU8krAq.s 			page 37


 1334 00a6 FFF7FEFF 		bl	printf
 1335 00aa 04E0     		b	.L71
 1336              	.L70:
 471:C:/Users/dtjld/Desktop/AIoT_software/LiteOS_Lab_overseas/LiteOS_Lab/iot_link/os/liteos/base/core\los_task.c ****         }
 472:C:/Users/dtjld/Desktop/AIoT_software/LiteOS_Lab_overseas/LiteOS_Lab/iot_link/os/liteos/base/core\los_task.c ****         else
 473:C:/Users/dtjld/Desktop/AIoT_software/LiteOS_Lab_overseas/LiteOS_Lab/iot_link/os/liteos/base/core\los_task.c ****         {
 474:C:/Users/dtjld/Desktop/AIoT_software/LiteOS_Lab_overseas/LiteOS_Lab/iot_link/os/liteos/base/core\los_task.c ****             PRINTK("0x%-7x", 0xFFFF);
 1337              		.loc 2 474 0
 1338 00ac 4FF6FF71 		movw	r1, #65535
 1339 00b0 0F48     		ldr	r0, .L75+20
 1340 00b2 FFF7FEFF 		bl	printf
 1341              	.L71:
 475:C:/Users/dtjld/Desktop/AIoT_software/LiteOS_Lab_overseas/LiteOS_Lab/iot_link/os/liteos/base/core\los_task.c ****         }
 476:C:/Users/dtjld/Desktop/AIoT_software/LiteOS_Lab_overseas/LiteOS_Lab/iot_link/os/liteos/base/core\los_task.c **** 
 477:C:/Users/dtjld/Desktop/AIoT_software/LiteOS_Lab_overseas/LiteOS_Lab/iot_link/os/liteos/base/core\los_task.c **** #if (LOSCFG_BASE_CORE_CPUP == YES)
 478:C:/Users/dtjld/Desktop/AIoT_software/LiteOS_Lab_overseas/LiteOS_Lab/iot_link/os/liteos/base/core\los_task.c ****         PRINT_ERR("%2d.%-7d"
 479:C:/Users/dtjld/Desktop/AIoT_software/LiteOS_Lab_overseas/LiteOS_Lab/iot_link/os/liteos/base/core\los_task.c ****                           "%2d.%-9d"
 480:C:/Users/dtjld/Desktop/AIoT_software/LiteOS_Lab_overseas/LiteOS_Lab/iot_link/os/liteos/base/core\los_task.c ****                           "%2d.%-6d",
 481:C:/Users/dtjld/Desktop/AIoT_software/LiteOS_Lab_overseas/LiteOS_Lab/iot_link/os/liteos/base/core\los_task.c ****                           pstCpu[pstTaskCB->uwTaskID].uwUsage / LOS_CPUP_PRECISION_MULT,
 482:C:/Users/dtjld/Desktop/AIoT_software/LiteOS_Lab_overseas/LiteOS_Lab/iot_link/os/liteos/base/core\los_task.c ****                           pstCpu[pstTaskCB->uwTaskID].uwUsage % LOS_CPUP_PRECISION_MULT,
 483:C:/Users/dtjld/Desktop/AIoT_software/LiteOS_Lab_overseas/LiteOS_Lab/iot_link/os/liteos/base/core\los_task.c ****                           pstCpu10s[pstTaskCB->uwTaskID].uwUsage / LOS_CPUP_PRECISION_MULT,
 484:C:/Users/dtjld/Desktop/AIoT_software/LiteOS_Lab_overseas/LiteOS_Lab/iot_link/os/liteos/base/core\los_task.c ****                           pstCpu10s[pstTaskCB->uwTaskID].uwUsage % LOS_CPUP_PRECISION_MULT,
 485:C:/Users/dtjld/Desktop/AIoT_software/LiteOS_Lab_overseas/LiteOS_Lab/iot_link/os/liteos/base/core\los_task.c ****                           pstCpu1s[pstTaskCB->uwTaskID].uwUsage / LOS_CPUP_PRECISION_MULT,
 486:C:/Users/dtjld/Desktop/AIoT_software/LiteOS_Lab_overseas/LiteOS_Lab/iot_link/os/liteos/base/core\los_task.c ****                           pstCpu1s[pstTaskCB->uwTaskID].uwUsage % LOS_CPUP_PRECISION_MULT);/*lint !
 487:C:/Users/dtjld/Desktop/AIoT_software/LiteOS_Lab_overseas/LiteOS_Lab/iot_link/os/liteos/base/core\los_task.c **** #endif /* LOSCFG_BASE_CORE_CPUP */
 488:C:/Users/dtjld/Desktop/AIoT_software/LiteOS_Lab_overseas/LiteOS_Lab/iot_link/os/liteos/base/core\los_task.c ****         PRINTK("\r\n");/*lint !e515*/
 1342              		.loc 2 488 0
 1343 00b6 0F48     		ldr	r0, .L75+24
 1344 00b8 FFF7FEFF 		bl	puts
 1345 00bc 00E0     		b	.L69
 1346              	.L74:
 454:C:/Users/dtjld/Desktop/AIoT_software/LiteOS_Lab_overseas/LiteOS_Lab/iot_link/os/liteos/base/core\los_task.c ****         }
 1347              		.loc 2 454 0
 1348 00be 00BF     		nop
 1349              	.L69:
 447:C:/Users/dtjld/Desktop/AIoT_software/LiteOS_Lab_overseas/LiteOS_Lab/iot_link/os/liteos/base/core\los_task.c ****     {
 1350              		.loc 2 447 0 discriminator 2
 1351 00c0 FB68     		ldr	r3, [r7, #12]
 1352 00c2 0133     		adds	r3, r3, #1
 1353 00c4 FB60     		str	r3, [r7, #12]
 1354              	.L67:
 447:C:/Users/dtjld/Desktop/AIoT_software/LiteOS_Lab_overseas/LiteOS_Lab/iot_link/os/liteos/base/core\los_task.c ****     {
 1355              		.loc 2 447 0 is_stmt 0 discriminator 1
 1356 00c6 0C4B     		ldr	r3, .L75+28
 1357 00c8 1B68     		ldr	r3, [r3]
 1358 00ca FA68     		ldr	r2, [r7, #12]
 1359 00cc 9A42     		cmp	r2, r3
 1360 00ce AAD3     		bcc	.L72
 489:C:/Users/dtjld/Desktop/AIoT_software/LiteOS_Lab_overseas/LiteOS_Lab/iot_link/os/liteos/base/core\los_task.c ****     }
 490:C:/Users/dtjld/Desktop/AIoT_software/LiteOS_Lab_overseas/LiteOS_Lab/iot_link/os/liteos/base/core\los_task.c **** 
 491:C:/Users/dtjld/Desktop/AIoT_software/LiteOS_Lab_overseas/LiteOS_Lab/iot_link/os/liteos/base/core\los_task.c **** #if (LOSCFG_BASE_CORE_CPUP == YES)
 492:C:/Users/dtjld/Desktop/AIoT_software/LiteOS_Lab_overseas/LiteOS_Lab/iot_link/os/liteos/base/core\los_task.c ****     (VOID)LOS_MemFree((VOID *)OS_SYS_MEM_ADDR, pstCpu);
 493:C:/Users/dtjld/Desktop/AIoT_software/LiteOS_Lab_overseas/LiteOS_Lab/iot_link/os/liteos/base/core\los_task.c ****     (VOID)LOS_MemFree((VOID *)OS_SYS_MEM_ADDR, pstCpu10s);
 494:C:/Users/dtjld/Desktop/AIoT_software/LiteOS_Lab_overseas/LiteOS_Lab/iot_link/os/liteos/base/core\los_task.c ****     (VOID)LOS_MemFree((VOID *)OS_SYS_MEM_ADDR, pstCpu1s);
 495:C:/Users/dtjld/Desktop/AIoT_software/LiteOS_Lab_overseas/LiteOS_Lab/iot_link/os/liteos/base/core\los_task.c **** #endif
 496:C:/Users/dtjld/Desktop/AIoT_software/LiteOS_Lab_overseas/LiteOS_Lab/iot_link/os/liteos/base/core\los_task.c **** 
 497:C:/Users/dtjld/Desktop/AIoT_software/LiteOS_Lab_overseas/LiteOS_Lab/iot_link/os/liteos/base/core\los_task.c ****     return LOS_OK;
ARM GAS  C:\Users\dtjld\AppData\Local\Temp\ccU8krAq.s 			page 38


 1361              		.loc 2 497 0 is_stmt 1
 1362 00d0 0023     		movs	r3, #0
 498:C:/Users/dtjld/Desktop/AIoT_software/LiteOS_Lab_overseas/LiteOS_Lab/iot_link/os/liteos/base/core\los_task.c **** }
 1363              		.loc 2 498 0
 1364 00d2 1846     		mov	r0, r3
 1365 00d4 1037     		adds	r7, r7, #16
 1366              	.LCFI65:
 1367              		.cfi_def_cfa_offset 24
 1368 00d6 BD46     		mov	sp, r7
 1369              	.LCFI66:
 1370              		.cfi_def_cfa_register 13
 1371              		@ sp needed
 1372 00d8 BDE8F081 		pop	{r4, r5, r6, r7, r8, pc}
 1373              	.L76:
 1374              		.align	2
 1375              	.L75:
 1376 00dc 8C000000 		.word	.LC11
 1377 00e0 04010000 		.word	.LC12
 1378 00e4 08010000 		.word	.LC13
 1379 00e8 00000000 		.word	g_pstTaskCBArray
 1380 00ec 7C010000 		.word	.LC14
 1381 00f0 B4010000 		.word	.LC15
 1382 00f4 BC010000 		.word	.LC16
 1383 00f8 00000000 		.word	g_uwTskMaxNum
 1384              		.cfi_endproc
 1385              	.LFE137:
 1387              		.section	.text.osTaskInit,"ax",%progbits
 1388              		.align	1
 1389              		.global	osTaskInit
 1390              		.syntax unified
 1391              		.thumb
 1392              		.thumb_func
 1393              		.fpu fpv4-sp-d16
 1395              	osTaskInit:
 1396              	.LFB138:
 499:C:/Users/dtjld/Desktop/AIoT_software/LiteOS_Lab_overseas/LiteOS_Lab/iot_link/os/liteos/base/core\los_task.c **** 
 500:C:/Users/dtjld/Desktop/AIoT_software/LiteOS_Lab_overseas/LiteOS_Lab/iot_link/os/liteos/base/core\los_task.c **** /*****************************************************************************
 501:C:/Users/dtjld/Desktop/AIoT_software/LiteOS_Lab_overseas/LiteOS_Lab/iot_link/os/liteos/base/core\los_task.c ****  Function : osTaskInit
 502:C:/Users/dtjld/Desktop/AIoT_software/LiteOS_Lab_overseas/LiteOS_Lab/iot_link/os/liteos/base/core\los_task.c ****  Description : Task init function.
 503:C:/Users/dtjld/Desktop/AIoT_software/LiteOS_Lab_overseas/LiteOS_Lab/iot_link/os/liteos/base/core\los_task.c ****  Input       : None
 504:C:/Users/dtjld/Desktop/AIoT_software/LiteOS_Lab_overseas/LiteOS_Lab/iot_link/os/liteos/base/core\los_task.c ****  Output      : None
 505:C:/Users/dtjld/Desktop/AIoT_software/LiteOS_Lab_overseas/LiteOS_Lab/iot_link/os/liteos/base/core\los_task.c ****  Return      : LOS_OK on success or error code on failure
 506:C:/Users/dtjld/Desktop/AIoT_software/LiteOS_Lab_overseas/LiteOS_Lab/iot_link/os/liteos/base/core\los_task.c ****  *****************************************************************************/
 507:C:/Users/dtjld/Desktop/AIoT_software/LiteOS_Lab_overseas/LiteOS_Lab/iot_link/os/liteos/base/core\los_task.c **** LITE_OS_SEC_TEXT_INIT UINT32 osTaskInit(VOID)
 508:C:/Users/dtjld/Desktop/AIoT_software/LiteOS_Lab_overseas/LiteOS_Lab/iot_link/os/liteos/base/core\los_task.c **** {
 1397              		.loc 2 508 0
 1398              		.cfi_startproc
 1399              		@ args = 0, pretend = 0, frame = 16
 1400              		@ frame_needed = 1, uses_anonymous_args = 0
 1401 0000 80B5     		push	{r7, lr}
 1402              	.LCFI67:
 1403              		.cfi_def_cfa_offset 8
 1404              		.cfi_offset 7, -8
 1405              		.cfi_offset 14, -4
 1406 0002 84B0     		sub	sp, sp, #16
 1407              	.LCFI68:
 1408              		.cfi_def_cfa_offset 24
ARM GAS  C:\Users\dtjld\AppData\Local\Temp\ccU8krAq.s 			page 39


 1409 0004 00AF     		add	r7, sp, #0
 1410              	.LCFI69:
 1411              		.cfi_def_cfa_register 7
 509:C:/Users/dtjld/Desktop/AIoT_software/LiteOS_Lab_overseas/LiteOS_Lab/iot_link/os/liteos/base/core\los_task.c ****     UINT32 uwSize;
 510:C:/Users/dtjld/Desktop/AIoT_software/LiteOS_Lab_overseas/LiteOS_Lab/iot_link/os/liteos/base/core\los_task.c ****     UINT32 uwIndex;
 511:C:/Users/dtjld/Desktop/AIoT_software/LiteOS_Lab_overseas/LiteOS_Lab/iot_link/os/liteos/base/core\los_task.c ****     LOS_DL_LIST *pstListObject;
 512:C:/Users/dtjld/Desktop/AIoT_software/LiteOS_Lab_overseas/LiteOS_Lab/iot_link/os/liteos/base/core\los_task.c **** 
 513:C:/Users/dtjld/Desktop/AIoT_software/LiteOS_Lab_overseas/LiteOS_Lab/iot_link/os/liteos/base/core\los_task.c **** #if (LOSCFG_STATIC_TASK == NO)
 514:C:/Users/dtjld/Desktop/AIoT_software/LiteOS_Lab_overseas/LiteOS_Lab/iot_link/os/liteos/base/core\los_task.c **** 
 515:C:/Users/dtjld/Desktop/AIoT_software/LiteOS_Lab_overseas/LiteOS_Lab/iot_link/os/liteos/base/core\los_task.c ****     /*
 516:C:/Users/dtjld/Desktop/AIoT_software/LiteOS_Lab_overseas/LiteOS_Lab/iot_link/os/liteos/base/core\los_task.c ****      * allocate (g_uwTskMaxNum + 1) tcbs because, LOS_TaskDelete will use g_pstTaskCBArray [g_uwTsk
 517:C:/Users/dtjld/Desktop/AIoT_software/LiteOS_Lab_overseas/LiteOS_Lab/iot_link/os/liteos/base/core\los_task.c ****      */
 518:C:/Users/dtjld/Desktop/AIoT_software/LiteOS_Lab_overseas/LiteOS_Lab/iot_link/os/liteos/base/core\los_task.c **** 
 519:C:/Users/dtjld/Desktop/AIoT_software/LiteOS_Lab_overseas/LiteOS_Lab/iot_link/os/liteos/base/core\los_task.c ****     uwSize = (g_uwTskMaxNum + 1) * sizeof(LOS_TASK_CB);
 1412              		.loc 2 519 0
 1413 0006 414B     		ldr	r3, .L85
 1414 0008 1B68     		ldr	r3, [r3]
 1415 000a 0133     		adds	r3, r3, #1
 1416 000c 5422     		movs	r2, #84
 1417 000e 02FB03F3 		mul	r3, r2, r3
 1418 0012 7B60     		str	r3, [r7, #4]
 520:C:/Users/dtjld/Desktop/AIoT_software/LiteOS_Lab_overseas/LiteOS_Lab/iot_link/os/liteos/base/core\los_task.c ****     g_pstTaskCBArray = (LOS_TASK_CB *)LOS_MemAlloc(m_aucSysMem0, uwSize);
 1419              		.loc 2 520 0
 1420 0014 3E4B     		ldr	r3, .L85+4
 1421 0016 1B68     		ldr	r3, [r3]
 1422 0018 7968     		ldr	r1, [r7, #4]
 1423 001a 1846     		mov	r0, r3
 1424 001c FFF7FEFF 		bl	LOS_MemAlloc
 1425 0020 0246     		mov	r2, r0
 1426 0022 3C4B     		ldr	r3, .L85+8
 1427 0024 1A60     		str	r2, [r3]
 521:C:/Users/dtjld/Desktop/AIoT_software/LiteOS_Lab_overseas/LiteOS_Lab/iot_link/os/liteos/base/core\los_task.c ****     if (NULL == g_pstTaskCBArray)
 1428              		.loc 2 521 0
 1429 0026 3B4B     		ldr	r3, .L85+8
 1430 0028 1B68     		ldr	r3, [r3]
 1431 002a 002B     		cmp	r3, #0
 1432 002c 01D1     		bne	.L78
 522:C:/Users/dtjld/Desktop/AIoT_software/LiteOS_Lab_overseas/LiteOS_Lab/iot_link/os/liteos/base/core\los_task.c ****     {
 523:C:/Users/dtjld/Desktop/AIoT_software/LiteOS_Lab_overseas/LiteOS_Lab/iot_link/os/liteos/base/core\los_task.c ****         return LOS_ERRNO_TSK_NO_MEMORY;
 1433              		.loc 2 523 0
 1434 002e 3A4B     		ldr	r3, .L85+12
 1435 0030 67E0     		b	.L79
 1436              	.L78:
 524:C:/Users/dtjld/Desktop/AIoT_software/LiteOS_Lab_overseas/LiteOS_Lab/iot_link/os/liteos/base/core\los_task.c ****     }
 525:C:/Users/dtjld/Desktop/AIoT_software/LiteOS_Lab_overseas/LiteOS_Lab/iot_link/os/liteos/base/core\los_task.c **** 
 526:C:/Users/dtjld/Desktop/AIoT_software/LiteOS_Lab_overseas/LiteOS_Lab/iot_link/os/liteos/base/core\los_task.c ****     (VOID)memset(g_pstTaskCBArray, 0, uwSize);
 1437              		.loc 2 526 0
 1438 0032 384B     		ldr	r3, .L85+8
 1439 0034 1B68     		ldr	r3, [r3]
 1440 0036 7A68     		ldr	r2, [r7, #4]
 1441 0038 0021     		movs	r1, #0
 1442 003a 1846     		mov	r0, r3
 1443 003c FFF7FEFF 		bl	memset
 527:C:/Users/dtjld/Desktop/AIoT_software/LiteOS_Lab_overseas/LiteOS_Lab/iot_link/os/liteos/base/core\los_task.c ****     LOS_ListInit(&g_stTaskTimerList);
 1444              		.loc 2 527 0
 1445 0040 3648     		ldr	r0, .L85+16
 1446 0042 FFF7FEFF 		bl	LOS_ListInit
ARM GAS  C:\Users\dtjld\AppData\Local\Temp\ccU8krAq.s 			page 40


 528:C:/Users/dtjld/Desktop/AIoT_software/LiteOS_Lab_overseas/LiteOS_Lab/iot_link/os/liteos/base/core\los_task.c ****     LOS_ListInit(&g_stLosFreeTask);
 1447              		.loc 2 528 0
 1448 0046 3648     		ldr	r0, .L85+20
 1449 0048 FFF7FEFF 		bl	LOS_ListInit
 529:C:/Users/dtjld/Desktop/AIoT_software/LiteOS_Lab_overseas/LiteOS_Lab/iot_link/os/liteos/base/core\los_task.c ****     LOS_ListInit(&g_stTskRecyleList);
 1450              		.loc 2 529 0
 1451 004c 3548     		ldr	r0, .L85+24
 1452 004e FFF7FEFF 		bl	LOS_ListInit
 530:C:/Users/dtjld/Desktop/AIoT_software/LiteOS_Lab_overseas/LiteOS_Lab/iot_link/os/liteos/base/core\los_task.c ****     for (uwIndex = 0; uwIndex <= LOSCFG_BASE_CORE_TSK_LIMIT; uwIndex++)
 1453              		.loc 2 530 0
 1454 0052 0023     		movs	r3, #0
 1455 0054 FB60     		str	r3, [r7, #12]
 1456 0056 20E0     		b	.L80
 1457              	.L81:
 531:C:/Users/dtjld/Desktop/AIoT_software/LiteOS_Lab_overseas/LiteOS_Lab/iot_link/os/liteos/base/core\los_task.c ****     {
 532:C:/Users/dtjld/Desktop/AIoT_software/LiteOS_Lab_overseas/LiteOS_Lab/iot_link/os/liteos/base/core\los_task.c ****         g_pstTaskCBArray[uwIndex].usTaskStatus = OS_TASK_STATUS_UNUSED;
 1458              		.loc 2 532 0 discriminator 3
 1459 0058 2E4B     		ldr	r3, .L85+8
 1460 005a 1A68     		ldr	r2, [r3]
 1461 005c FB68     		ldr	r3, [r7, #12]
 1462 005e 5421     		movs	r1, #84
 1463 0060 01FB03F3 		mul	r3, r1, r3
 1464 0064 1344     		add	r3, r3, r2
 1465 0066 0122     		movs	r2, #1
 1466 0068 9A80     		strh	r2, [r3, #4]	@ movhi
 533:C:/Users/dtjld/Desktop/AIoT_software/LiteOS_Lab_overseas/LiteOS_Lab/iot_link/os/liteos/base/core\los_task.c ****         g_pstTaskCBArray[uwIndex].uwTaskID = uwIndex;
 1467              		.loc 2 533 0 discriminator 3
 1468 006a 2A4B     		ldr	r3, .L85+8
 1469 006c 1A68     		ldr	r2, [r3]
 1470 006e FB68     		ldr	r3, [r7, #12]
 1471 0070 5421     		movs	r1, #84
 1472 0072 01FB03F3 		mul	r3, r1, r3
 1473 0076 1344     		add	r3, r3, r2
 1474 0078 FA68     		ldr	r2, [r7, #12]
 1475 007a 1A61     		str	r2, [r3, #16]
 534:C:/Users/dtjld/Desktop/AIoT_software/LiteOS_Lab_overseas/LiteOS_Lab/iot_link/os/liteos/base/core\los_task.c ****         LOS_ListTailInsert(&g_stLosFreeTask, &g_pstTaskCBArray[uwIndex].stPendList);
 1476              		.loc 2 534 0 discriminator 3
 1477 007c 254B     		ldr	r3, .L85+8
 1478 007e 1A68     		ldr	r2, [r3]
 1479 0080 FB68     		ldr	r3, [r7, #12]
 1480 0082 5421     		movs	r1, #84
 1481 0084 01FB03F3 		mul	r3, r1, r3
 1482 0088 1344     		add	r3, r3, r2
 1483 008a 2833     		adds	r3, r3, #40
 1484 008c 1946     		mov	r1, r3
 1485 008e 2448     		ldr	r0, .L85+20
 1486 0090 FFF7FEFF 		bl	LOS_ListTailInsert
 530:C:/Users/dtjld/Desktop/AIoT_software/LiteOS_Lab_overseas/LiteOS_Lab/iot_link/os/liteos/base/core\los_task.c ****     {
 1487              		.loc 2 530 0 discriminator 3
 1488 0094 FB68     		ldr	r3, [r7, #12]
 1489 0096 0133     		adds	r3, r3, #1
 1490 0098 FB60     		str	r3, [r7, #12]
 1491              	.L80:
 530:C:/Users/dtjld/Desktop/AIoT_software/LiteOS_Lab_overseas/LiteOS_Lab/iot_link/os/liteos/base/core\los_task.c ****     {
 1492              		.loc 2 530 0 is_stmt 0 discriminator 1
 1493 009a FB68     		ldr	r3, [r7, #12]
 1494 009c 0F2B     		cmp	r3, #15
ARM GAS  C:\Users\dtjld\AppData\Local\Temp\ccU8krAq.s 			page 41


 1495 009e DBD9     		bls	.L81
 535:C:/Users/dtjld/Desktop/AIoT_software/LiteOS_Lab_overseas/LiteOS_Lab/iot_link/os/liteos/base/core\los_task.c ****     }
 536:C:/Users/dtjld/Desktop/AIoT_software/LiteOS_Lab_overseas/LiteOS_Lab/iot_link/os/liteos/base/core\los_task.c **** 
 537:C:/Users/dtjld/Desktop/AIoT_software/LiteOS_Lab_overseas/LiteOS_Lab/iot_link/os/liteos/base/core\los_task.c ****     (VOID)memset((VOID *)(&g_stLosTask), 0, sizeof(g_stLosTask));
 1496              		.loc 2 537 0 is_stmt 1
 1497 00a0 0822     		movs	r2, #8
 1498 00a2 0021     		movs	r1, #0
 1499 00a4 2048     		ldr	r0, .L85+28
 1500 00a6 FFF7FEFF 		bl	memset
 538:C:/Users/dtjld/Desktop/AIoT_software/LiteOS_Lab_overseas/LiteOS_Lab/iot_link/os/liteos/base/core\los_task.c **** 
 539:C:/Users/dtjld/Desktop/AIoT_software/LiteOS_Lab_overseas/LiteOS_Lab/iot_link/os/liteos/base/core\los_task.c ****     /*
 540:C:/Users/dtjld/Desktop/AIoT_software/LiteOS_Lab_overseas/LiteOS_Lab/iot_link/os/liteos/base/core\los_task.c ****      * g_stLosTask->pstRunTask will be overided by pstRunTask->pstNewTask
 541:C:/Users/dtjld/Desktop/AIoT_software/LiteOS_Lab_overseas/LiteOS_Lab/iot_link/os/liteos/base/core\los_task.c ****      * in LOS_StartToRun, needless give pstRunTask a initialize value
 542:C:/Users/dtjld/Desktop/AIoT_software/LiteOS_Lab_overseas/LiteOS_Lab/iot_link/os/liteos/base/core\los_task.c ****      */
 543:C:/Users/dtjld/Desktop/AIoT_software/LiteOS_Lab_overseas/LiteOS_Lab/iot_link/os/liteos/base/core\los_task.c **** #endif
 544:C:/Users/dtjld/Desktop/AIoT_software/LiteOS_Lab_overseas/LiteOS_Lab/iot_link/os/liteos/base/core\los_task.c **** 
 545:C:/Users/dtjld/Desktop/AIoT_software/LiteOS_Lab_overseas/LiteOS_Lab/iot_link/os/liteos/base/core\los_task.c ****     osPriqueueInit();
 1501              		.loc 2 545 0
 1502 00aa FFF7FEFF 		bl	osPriqueueInit
 546:C:/Users/dtjld/Desktop/AIoT_software/LiteOS_Lab_overseas/LiteOS_Lab/iot_link/os/liteos/base/core\los_task.c ****     uwSize = sizeof(LOS_DL_LIST) * OS_TSK_SORTLINK_LEN;
 1503              		.loc 2 546 0
 1504 00ae 4FF48073 		mov	r3, #256
 1505 00b2 7B60     		str	r3, [r7, #4]
 547:C:/Users/dtjld/Desktop/AIoT_software/LiteOS_Lab_overseas/LiteOS_Lab/iot_link/os/liteos/base/core\los_task.c ****     pstListObject = (LOS_DL_LIST *)LOS_MemAlloc(m_aucSysMem0, uwSize);
 1506              		.loc 2 547 0
 1507 00b4 164B     		ldr	r3, .L85+4
 1508 00b6 1B68     		ldr	r3, [r3]
 1509 00b8 7968     		ldr	r1, [r7, #4]
 1510 00ba 1846     		mov	r0, r3
 1511 00bc FFF7FEFF 		bl	LOS_MemAlloc
 1512 00c0 B860     		str	r0, [r7, #8]
 548:C:/Users/dtjld/Desktop/AIoT_software/LiteOS_Lab_overseas/LiteOS_Lab/iot_link/os/liteos/base/core\los_task.c ****     if (NULL == pstListObject)
 1513              		.loc 2 548 0
 1514 00c2 BB68     		ldr	r3, [r7, #8]
 1515 00c4 002B     		cmp	r3, #0
 1516 00c6 01D1     		bne	.L82
 549:C:/Users/dtjld/Desktop/AIoT_software/LiteOS_Lab_overseas/LiteOS_Lab/iot_link/os/liteos/base/core\los_task.c ****     {
 550:C:/Users/dtjld/Desktop/AIoT_software/LiteOS_Lab_overseas/LiteOS_Lab/iot_link/os/liteos/base/core\los_task.c ****         return LOS_ERRNO_TSK_NO_MEMORY;
 1517              		.loc 2 550 0
 1518 00c8 134B     		ldr	r3, .L85+12
 1519 00ca 1AE0     		b	.L79
 1520              	.L82:
 551:C:/Users/dtjld/Desktop/AIoT_software/LiteOS_Lab_overseas/LiteOS_Lab/iot_link/os/liteos/base/core\los_task.c ****     }
 552:C:/Users/dtjld/Desktop/AIoT_software/LiteOS_Lab_overseas/LiteOS_Lab/iot_link/os/liteos/base/core\los_task.c **** 
 553:C:/Users/dtjld/Desktop/AIoT_software/LiteOS_Lab_overseas/LiteOS_Lab/iot_link/os/liteos/base/core\los_task.c ****     (VOID)memset((VOID *)pstListObject, 0, uwSize);
 1521              		.loc 2 553 0
 1522 00cc 7A68     		ldr	r2, [r7, #4]
 1523 00ce 0021     		movs	r1, #0
 1524 00d0 B868     		ldr	r0, [r7, #8]
 1525 00d2 FFF7FEFF 		bl	memset
 554:C:/Users/dtjld/Desktop/AIoT_software/LiteOS_Lab_overseas/LiteOS_Lab/iot_link/os/liteos/base/core\los_task.c ****     g_stTskSortLink.pstSortLink = pstListObject;
 1526              		.loc 2 554 0
 1527 00d6 154A     		ldr	r2, .L85+32
 1528 00d8 BB68     		ldr	r3, [r7, #8]
 1529 00da 1360     		str	r3, [r2]
 555:C:/Users/dtjld/Desktop/AIoT_software/LiteOS_Lab_overseas/LiteOS_Lab/iot_link/os/liteos/base/core\los_task.c ****     g_stTskSortLink.usCursor = 0;
 1530              		.loc 2 555 0
ARM GAS  C:\Users\dtjld\AppData\Local\Temp\ccU8krAq.s 			page 42


 1531 00dc 134B     		ldr	r3, .L85+32
 1532 00de 0022     		movs	r2, #0
 1533 00e0 9A80     		strh	r2, [r3, #4]	@ movhi
 556:C:/Users/dtjld/Desktop/AIoT_software/LiteOS_Lab_overseas/LiteOS_Lab/iot_link/os/liteos/base/core\los_task.c ****     for (uwIndex = 0; uwIndex < OS_TSK_SORTLINK_LEN; uwIndex++, pstListObject++)
 1534              		.loc 2 556 0
 1535 00e2 0023     		movs	r3, #0
 1536 00e4 FB60     		str	r3, [r7, #12]
 1537 00e6 08E0     		b	.L83
 1538              	.L84:
 557:C:/Users/dtjld/Desktop/AIoT_software/LiteOS_Lab_overseas/LiteOS_Lab/iot_link/os/liteos/base/core\los_task.c ****     {
 558:C:/Users/dtjld/Desktop/AIoT_software/LiteOS_Lab_overseas/LiteOS_Lab/iot_link/os/liteos/base/core\los_task.c ****         LOS_ListInit(pstListObject);
 1539              		.loc 2 558 0 discriminator 3
 1540 00e8 B868     		ldr	r0, [r7, #8]
 1541 00ea FFF7FEFF 		bl	LOS_ListInit
 556:C:/Users/dtjld/Desktop/AIoT_software/LiteOS_Lab_overseas/LiteOS_Lab/iot_link/os/liteos/base/core\los_task.c ****     for (uwIndex = 0; uwIndex < OS_TSK_SORTLINK_LEN; uwIndex++, pstListObject++)
 1542              		.loc 2 556 0 discriminator 3
 1543 00ee FB68     		ldr	r3, [r7, #12]
 1544 00f0 0133     		adds	r3, r3, #1
 1545 00f2 FB60     		str	r3, [r7, #12]
 1546 00f4 BB68     		ldr	r3, [r7, #8]
 1547 00f6 0833     		adds	r3, r3, #8
 1548 00f8 BB60     		str	r3, [r7, #8]
 1549              	.L83:
 556:C:/Users/dtjld/Desktop/AIoT_software/LiteOS_Lab_overseas/LiteOS_Lab/iot_link/os/liteos/base/core\los_task.c ****     for (uwIndex = 0; uwIndex < OS_TSK_SORTLINK_LEN; uwIndex++, pstListObject++)
 1550              		.loc 2 556 0 is_stmt 0 discriminator 1
 1551 00fa FB68     		ldr	r3, [r7, #12]
 1552 00fc 1F2B     		cmp	r3, #31
 1553 00fe F3D9     		bls	.L84
 559:C:/Users/dtjld/Desktop/AIoT_software/LiteOS_Lab_overseas/LiteOS_Lab/iot_link/os/liteos/base/core\los_task.c ****     }
 560:C:/Users/dtjld/Desktop/AIoT_software/LiteOS_Lab_overseas/LiteOS_Lab/iot_link/os/liteos/base/core\los_task.c **** 
 561:C:/Users/dtjld/Desktop/AIoT_software/LiteOS_Lab_overseas/LiteOS_Lab/iot_link/os/liteos/base/core\los_task.c **** #if ((LOSCFG_PLATFORM_EXC == YES) && (LOSCFG_SAVE_EXC_INFO == YES))
 562:C:/Users/dtjld/Desktop/AIoT_software/LiteOS_Lab_overseas/LiteOS_Lab/iot_link/os/liteos/base/core\los_task.c ****     osExcRegister((EXC_INFO_TYPE)OS_EXC_TYPE_TSK, (EXC_INFO_SAVE_CALLBACK)LOS_TaskInfoGet, &g_uwTsk
 563:C:/Users/dtjld/Desktop/AIoT_software/LiteOS_Lab_overseas/LiteOS_Lab/iot_link/os/liteos/base/core\los_task.c **** #endif
 564:C:/Users/dtjld/Desktop/AIoT_software/LiteOS_Lab_overseas/LiteOS_Lab/iot_link/os/liteos/base/core\los_task.c **** 
 565:C:/Users/dtjld/Desktop/AIoT_software/LiteOS_Lab_overseas/LiteOS_Lab/iot_link/os/liteos/base/core\los_task.c **** #if (LOSCFG_LIB_LIBC_NEWLIB_REENT == YES)
 566:C:/Users/dtjld/Desktop/AIoT_software/LiteOS_Lab_overseas/LiteOS_Lab/iot_link/os/liteos/base/core\los_task.c ****     extern LITE_OS_SEC_TEXT VOID osTaskSwitchImpurePtr(VOID);
 567:C:/Users/dtjld/Desktop/AIoT_software/LiteOS_Lab_overseas/LiteOS_Lab/iot_link/os/liteos/base/core\los_task.c ****     g_pfnTskSwitchImpurePtrHook = osTaskSwitchImpurePtr;
 568:C:/Users/dtjld/Desktop/AIoT_software/LiteOS_Lab_overseas/LiteOS_Lab/iot_link/os/liteos/base/core\los_task.c **** #endif
 569:C:/Users/dtjld/Desktop/AIoT_software/LiteOS_Lab_overseas/LiteOS_Lab/iot_link/os/liteos/base/core\los_task.c ****     return LOS_OK;
 1554              		.loc 2 569 0 is_stmt 1
 1555 0100 0023     		movs	r3, #0
 1556              	.L79:
 570:C:/Users/dtjld/Desktop/AIoT_software/LiteOS_Lab_overseas/LiteOS_Lab/iot_link/os/liteos/base/core\los_task.c **** }
 1557              		.loc 2 570 0
 1558 0102 1846     		mov	r0, r3
 1559 0104 1037     		adds	r7, r7, #16
 1560              	.LCFI70:
 1561              		.cfi_def_cfa_offset 8
 1562 0106 BD46     		mov	sp, r7
 1563              	.LCFI71:
 1564              		.cfi_def_cfa_register 13
 1565              		@ sp needed
 1566 0108 80BD     		pop	{r7, pc}
 1567              	.L86:
 1568 010a 00BF     		.align	2
 1569              	.L85:
 1570 010c 00000000 		.word	g_uwTskMaxNum
ARM GAS  C:\Users\dtjld\AppData\Local\Temp\ccU8krAq.s 			page 43


 1571 0110 00000000 		.word	m_aucSysMem0
 1572 0114 00000000 		.word	g_pstTaskCBArray
 1573 0118 00020003 		.word	50332160
 1574 011c 00000000 		.word	g_stTaskTimerList
 1575 0120 00000000 		.word	g_stLosFreeTask
 1576 0124 00000000 		.word	g_stTskRecyleList
 1577 0128 00000000 		.word	g_stLosTask
 1578 012c 00000000 		.word	g_stTskSortLink
 1579              		.cfi_endproc
 1580              	.LFE138:
 1582              		.section	.rodata
 1583 01be 0000     		.align	2
 1584              	.LC17:
 1585 01c0 49646C65 		.ascii	"IdleCore000\000"
 1585      436F7265 
 1585      30303000 
 1586              		.section	.text.osIdleTaskCreate,"ax",%progbits
 1587              		.align	1
 1588              		.global	osIdleTaskCreate
 1589              		.syntax unified
 1590              		.thumb
 1591              		.thumb_func
 1592              		.fpu fpv4-sp-d16
 1594              	osIdleTaskCreate:
 1595              	.LFB139:
 571:C:/Users/dtjld/Desktop/AIoT_software/LiteOS_Lab_overseas/LiteOS_Lab/iot_link/os/liteos/base/core\los_task.c **** 
 572:C:/Users/dtjld/Desktop/AIoT_software/LiteOS_Lab_overseas/LiteOS_Lab/iot_link/os/liteos/base/core\los_task.c **** 
 573:C:/Users/dtjld/Desktop/AIoT_software/LiteOS_Lab_overseas/LiteOS_Lab/iot_link/os/liteos/base/core\los_task.c **** #if (LOSCFG_STATIC_TASK == YES)
 574:C:/Users/dtjld/Desktop/AIoT_software/LiteOS_Lab_overseas/LiteOS_Lab/iot_link/os/liteos/base/core\los_task.c **** LOS_TASK_DEF(idleTask, "IdleCore000", osIdleTask,
 575:C:/Users/dtjld/Desktop/AIoT_software/LiteOS_Lab_overseas/LiteOS_Lab/iot_link/os/liteos/base/core\los_task.c ****     OS_TASK_PRIORITY_LOWEST, 0, LOSCFG_BASE_CORE_TSK_IDLE_STACK_SIZE, 0, NULL);
 576:C:/Users/dtjld/Desktop/AIoT_software/LiteOS_Lab_overseas/LiteOS_Lab/iot_link/os/liteos/base/core\los_task.c **** #endif
 577:C:/Users/dtjld/Desktop/AIoT_software/LiteOS_Lab_overseas/LiteOS_Lab/iot_link/os/liteos/base/core\los_task.c **** 
 578:C:/Users/dtjld/Desktop/AIoT_software/LiteOS_Lab_overseas/LiteOS_Lab/iot_link/os/liteos/base/core\los_task.c **** 
 579:C:/Users/dtjld/Desktop/AIoT_software/LiteOS_Lab_overseas/LiteOS_Lab/iot_link/os/liteos/base/core\los_task.c **** /*****************************************************************************
 580:C:/Users/dtjld/Desktop/AIoT_software/LiteOS_Lab_overseas/LiteOS_Lab/iot_link/os/liteos/base/core\los_task.c ****  Function : osIdleTaskCreate
 581:C:/Users/dtjld/Desktop/AIoT_software/LiteOS_Lab_overseas/LiteOS_Lab/iot_link/os/liteos/base/core\los_task.c ****  Description : Create idle task.
 582:C:/Users/dtjld/Desktop/AIoT_software/LiteOS_Lab_overseas/LiteOS_Lab/iot_link/os/liteos/base/core\los_task.c ****  Input       : None
 583:C:/Users/dtjld/Desktop/AIoT_software/LiteOS_Lab_overseas/LiteOS_Lab/iot_link/os/liteos/base/core\los_task.c ****  Output      : None
 584:C:/Users/dtjld/Desktop/AIoT_software/LiteOS_Lab_overseas/LiteOS_Lab/iot_link/os/liteos/base/core\los_task.c ****  Return      : LOS_OK on success or error code on failure
 585:C:/Users/dtjld/Desktop/AIoT_software/LiteOS_Lab_overseas/LiteOS_Lab/iot_link/os/liteos/base/core\los_task.c ****  *****************************************************************************/
 586:C:/Users/dtjld/Desktop/AIoT_software/LiteOS_Lab_overseas/LiteOS_Lab/iot_link/os/liteos/base/core\los_task.c **** LITE_OS_SEC_TEXT_INIT UINT32 osIdleTaskCreate(VOID)
 587:C:/Users/dtjld/Desktop/AIoT_software/LiteOS_Lab_overseas/LiteOS_Lab/iot_link/os/liteos/base/core\los_task.c **** {
 1596              		.loc 2 587 0
 1597              		.cfi_startproc
 1598              		@ args = 0, pretend = 0, frame = 32
 1599              		@ frame_needed = 1, uses_anonymous_args = 0
 1600 0000 80B5     		push	{r7, lr}
 1601              	.LCFI72:
 1602              		.cfi_def_cfa_offset 8
 1603              		.cfi_offset 7, -8
 1604              		.cfi_offset 14, -4
 1605 0002 88B0     		sub	sp, sp, #32
 1606              	.LCFI73:
 1607              		.cfi_def_cfa_offset 40
 1608 0004 00AF     		add	r7, sp, #0
 1609              	.LCFI74:
 1610              		.cfi_def_cfa_register 7
ARM GAS  C:\Users\dtjld\AppData\Local\Temp\ccU8krAq.s 			page 44


 588:C:/Users/dtjld/Desktop/AIoT_software/LiteOS_Lab_overseas/LiteOS_Lab/iot_link/os/liteos/base/core\los_task.c **** #if (LOSCFG_STATIC_TASK == NO)
 589:C:/Users/dtjld/Desktop/AIoT_software/LiteOS_Lab_overseas/LiteOS_Lab/iot_link/os/liteos/base/core\los_task.c ****     UINT32 uwRet;
 590:C:/Users/dtjld/Desktop/AIoT_software/LiteOS_Lab_overseas/LiteOS_Lab/iot_link/os/liteos/base/core\los_task.c ****     TSK_INIT_PARAM_S stTaskInitParam;
 591:C:/Users/dtjld/Desktop/AIoT_software/LiteOS_Lab_overseas/LiteOS_Lab/iot_link/os/liteos/base/core\los_task.c **** 
 592:C:/Users/dtjld/Desktop/AIoT_software/LiteOS_Lab_overseas/LiteOS_Lab/iot_link/os/liteos/base/core\los_task.c ****     (VOID)memset((VOID *)(&stTaskInitParam), 0, sizeof(TSK_INIT_PARAM_S));
 1611              		.loc 2 592 0
 1612 0006 3B1D     		adds	r3, r7, #4
 1613 0008 1822     		movs	r2, #24
 1614 000a 0021     		movs	r1, #0
 1615 000c 1846     		mov	r0, r3
 1616 000e FFF7FEFF 		bl	memset
 593:C:/Users/dtjld/Desktop/AIoT_software/LiteOS_Lab_overseas/LiteOS_Lab/iot_link/os/liteos/base/core\los_task.c ****     stTaskInitParam.pfnTaskEntry = (TSK_ENTRY_FUNC)osIdleTask;
 1617              		.loc 2 593 0
 1618 0012 0C4B     		ldr	r3, .L91
 1619 0014 7B60     		str	r3, [r7, #4]
 594:C:/Users/dtjld/Desktop/AIoT_software/LiteOS_Lab_overseas/LiteOS_Lab/iot_link/os/liteos/base/core\los_task.c ****     stTaskInitParam.uwStackSize = LOSCFG_BASE_CORE_TSK_IDLE_STACK_SIZE;
 1620              		.loc 2 594 0
 1621 0016 4FF4A063 		mov	r3, #1280
 1622 001a 3B61     		str	r3, [r7, #16]
 595:C:/Users/dtjld/Desktop/AIoT_software/LiteOS_Lab_overseas/LiteOS_Lab/iot_link/os/liteos/base/core\los_task.c ****     stTaskInitParam.pcName = "IdleCore000";
 1623              		.loc 2 595 0
 1624 001c 0A4B     		ldr	r3, .L91+4
 1625 001e 7B61     		str	r3, [r7, #20]
 596:C:/Users/dtjld/Desktop/AIoT_software/LiteOS_Lab_overseas/LiteOS_Lab/iot_link/os/liteos/base/core\los_task.c ****     stTaskInitParam.usTaskPrio = OS_TASK_PRIORITY_LOWEST;
 1626              		.loc 2 596 0
 1627 0020 1F23     		movs	r3, #31
 1628 0022 3B81     		strh	r3, [r7, #8]	@ movhi
 597:C:/Users/dtjld/Desktop/AIoT_software/LiteOS_Lab_overseas/LiteOS_Lab/iot_link/os/liteos/base/core\los_task.c ****     uwRet = LOS_TaskCreate(&g_uwIdleTaskID, &stTaskInitParam);
 1629              		.loc 2 597 0
 1630 0024 3B1D     		adds	r3, r7, #4
 1631 0026 1946     		mov	r1, r3
 1632 0028 0848     		ldr	r0, .L91+8
 1633 002a FFF7FEFF 		bl	LOS_TaskCreate
 1634 002e F861     		str	r0, [r7, #28]
 598:C:/Users/dtjld/Desktop/AIoT_software/LiteOS_Lab_overseas/LiteOS_Lab/iot_link/os/liteos/base/core\los_task.c **** 
 599:C:/Users/dtjld/Desktop/AIoT_software/LiteOS_Lab_overseas/LiteOS_Lab/iot_link/os/liteos/base/core\los_task.c ****     if (uwRet != LOS_OK)
 1635              		.loc 2 599 0
 1636 0030 FB69     		ldr	r3, [r7, #28]
 1637 0032 002B     		cmp	r3, #0
 1638 0034 01D0     		beq	.L88
 600:C:/Users/dtjld/Desktop/AIoT_software/LiteOS_Lab_overseas/LiteOS_Lab/iot_link/os/liteos/base/core\los_task.c ****     {
 601:C:/Users/dtjld/Desktop/AIoT_software/LiteOS_Lab_overseas/LiteOS_Lab/iot_link/os/liteos/base/core\los_task.c ****         return uwRet;
 1639              		.loc 2 601 0
 1640 0036 FB69     		ldr	r3, [r7, #28]
 1641 0038 00E0     		b	.L90
 1642              	.L88:
 602:C:/Users/dtjld/Desktop/AIoT_software/LiteOS_Lab_overseas/LiteOS_Lab/iot_link/os/liteos/base/core\los_task.c ****     }
 603:C:/Users/dtjld/Desktop/AIoT_software/LiteOS_Lab_overseas/LiteOS_Lab/iot_link/os/liteos/base/core\los_task.c **** 
 604:C:/Users/dtjld/Desktop/AIoT_software/LiteOS_Lab_overseas/LiteOS_Lab/iot_link/os/liteos/base/core\los_task.c ****     return LOS_OK;
 1643              		.loc 2 604 0
 1644 003a 0023     		movs	r3, #0
 1645              	.L90:
 605:C:/Users/dtjld/Desktop/AIoT_software/LiteOS_Lab_overseas/LiteOS_Lab/iot_link/os/liteos/base/core\los_task.c **** #else
 606:C:/Users/dtjld/Desktop/AIoT_software/LiteOS_Lab_overseas/LiteOS_Lab/iot_link/os/liteos/base/core\los_task.c ****     return LOS_TASK_INIT(idleTask, &g_uwIdleTaskID);
 607:C:/Users/dtjld/Desktop/AIoT_software/LiteOS_Lab_overseas/LiteOS_Lab/iot_link/os/liteos/base/core\los_task.c **** #endif
 608:C:/Users/dtjld/Desktop/AIoT_software/LiteOS_Lab_overseas/LiteOS_Lab/iot_link/os/liteos/base/core\los_task.c **** }
 1646              		.loc 2 608 0 discriminator 1
ARM GAS  C:\Users\dtjld\AppData\Local\Temp\ccU8krAq.s 			page 45


 1647 003c 1846     		mov	r0, r3
 1648 003e 2037     		adds	r7, r7, #32
 1649              	.LCFI75:
 1650              		.cfi_def_cfa_offset 8
 1651 0040 BD46     		mov	sp, r7
 1652              	.LCFI76:
 1653              		.cfi_def_cfa_register 13
 1654              		@ sp needed
 1655 0042 80BD     		pop	{r7, pc}
 1656              	.L92:
 1657              		.align	2
 1658              	.L91:
 1659 0044 00000000 		.word	osIdleTask
 1660 0048 C0010000 		.word	.LC17
 1661 004c 00000000 		.word	g_uwIdleTaskID
 1662              		.cfi_endproc
 1663              	.LFE139:
 1665              		.section	.text.LOS_CurTaskIDGet,"ax",%progbits
 1666              		.align	1
 1667              		.global	LOS_CurTaskIDGet
 1668              		.syntax unified
 1669              		.thumb
 1670              		.thumb_func
 1671              		.fpu fpv4-sp-d16
 1673              	LOS_CurTaskIDGet:
 1674              	.LFB140:
 609:C:/Users/dtjld/Desktop/AIoT_software/LiteOS_Lab_overseas/LiteOS_Lab/iot_link/os/liteos/base/core\los_task.c **** 
 610:C:/Users/dtjld/Desktop/AIoT_software/LiteOS_Lab_overseas/LiteOS_Lab/iot_link/os/liteos/base/core\los_task.c **** /*****************************************************************************
 611:C:/Users/dtjld/Desktop/AIoT_software/LiteOS_Lab_overseas/LiteOS_Lab/iot_link/os/liteos/base/core\los_task.c ****  Function : LOS_CurTaskIDGet
 612:C:/Users/dtjld/Desktop/AIoT_software/LiteOS_Lab_overseas/LiteOS_Lab/iot_link/os/liteos/base/core\los_task.c ****  Description : get id of current running task.
 613:C:/Users/dtjld/Desktop/AIoT_software/LiteOS_Lab_overseas/LiteOS_Lab/iot_link/os/liteos/base/core\los_task.c ****  Input       : None
 614:C:/Users/dtjld/Desktop/AIoT_software/LiteOS_Lab_overseas/LiteOS_Lab/iot_link/os/liteos/base/core\los_task.c ****  Output      : None
 615:C:/Users/dtjld/Desktop/AIoT_software/LiteOS_Lab_overseas/LiteOS_Lab/iot_link/os/liteos/base/core\los_task.c ****  Return      : task id
 616:C:/Users/dtjld/Desktop/AIoT_software/LiteOS_Lab_overseas/LiteOS_Lab/iot_link/os/liteos/base/core\los_task.c ****  *****************************************************************************/
 617:C:/Users/dtjld/Desktop/AIoT_software/LiteOS_Lab_overseas/LiteOS_Lab/iot_link/os/liteos/base/core\los_task.c **** LITE_OS_SEC_TEXT UINT32 LOS_CurTaskIDGet(VOID)
 618:C:/Users/dtjld/Desktop/AIoT_software/LiteOS_Lab_overseas/LiteOS_Lab/iot_link/os/liteos/base/core\los_task.c **** {
 1675              		.loc 2 618 0
 1676              		.cfi_startproc
 1677              		@ args = 0, pretend = 0, frame = 0
 1678              		@ frame_needed = 1, uses_anonymous_args = 0
 1679              		@ link register save eliminated.
 1680 0000 80B4     		push	{r7}
 1681              	.LCFI77:
 1682              		.cfi_def_cfa_offset 4
 1683              		.cfi_offset 7, -4
 1684 0002 00AF     		add	r7, sp, #0
 1685              	.LCFI78:
 1686              		.cfi_def_cfa_register 7
 619:C:/Users/dtjld/Desktop/AIoT_software/LiteOS_Lab_overseas/LiteOS_Lab/iot_link/os/liteos/base/core\los_task.c ****     if (NULL == g_stLosTask.pstRunTask)
 1687              		.loc 2 619 0
 1688 0004 064B     		ldr	r3, .L96
 1689 0006 1B68     		ldr	r3, [r3]
 1690 0008 002B     		cmp	r3, #0
 1691 000a 01D1     		bne	.L94
 620:C:/Users/dtjld/Desktop/AIoT_software/LiteOS_Lab_overseas/LiteOS_Lab/iot_link/os/liteos/base/core\los_task.c ****     {
 621:C:/Users/dtjld/Desktop/AIoT_software/LiteOS_Lab_overseas/LiteOS_Lab/iot_link/os/liteos/base/core\los_task.c ****         return LOS_ERRNO_TSK_ID_INVALID;
 1692              		.loc 2 621 0
ARM GAS  C:\Users\dtjld\AppData\Local\Temp\ccU8krAq.s 			page 46


 1693 000c 054B     		ldr	r3, .L96+4
 1694 000e 02E0     		b	.L95
 1695              	.L94:
 622:C:/Users/dtjld/Desktop/AIoT_software/LiteOS_Lab_overseas/LiteOS_Lab/iot_link/os/liteos/base/core\los_task.c ****     }
 623:C:/Users/dtjld/Desktop/AIoT_software/LiteOS_Lab_overseas/LiteOS_Lab/iot_link/os/liteos/base/core\los_task.c ****     return g_stLosTask.pstRunTask->uwTaskID;
 1696              		.loc 2 623 0
 1697 0010 034B     		ldr	r3, .L96
 1698 0012 1B68     		ldr	r3, [r3]
 1699 0014 1B69     		ldr	r3, [r3, #16]
 1700              	.L95:
 624:C:/Users/dtjld/Desktop/AIoT_software/LiteOS_Lab_overseas/LiteOS_Lab/iot_link/os/liteos/base/core\los_task.c **** }
 1701              		.loc 2 624 0
 1702 0016 1846     		mov	r0, r3
 1703 0018 BD46     		mov	sp, r7
 1704              	.LCFI79:
 1705              		.cfi_def_cfa_register 13
 1706              		@ sp needed
 1707 001a 5DF8047B 		ldr	r7, [sp], #4
 1708              	.LCFI80:
 1709              		.cfi_restore 7
 1710              		.cfi_def_cfa_offset 0
 1711 001e 7047     		bx	lr
 1712              	.L97:
 1713              		.align	2
 1714              	.L96:
 1715 0020 00000000 		.word	g_stLosTask
 1716 0024 07020002 		.word	33554951
 1717              		.cfi_endproc
 1718              	.LFE140:
 1720              		.section	.text.LOS_NextTaskIDGet,"ax",%progbits
 1721              		.align	1
 1722              		.global	LOS_NextTaskIDGet
 1723              		.syntax unified
 1724              		.thumb
 1725              		.thumb_func
 1726              		.fpu fpv4-sp-d16
 1728              	LOS_NextTaskIDGet:
 1729              	.LFB141:
 625:C:/Users/dtjld/Desktop/AIoT_software/LiteOS_Lab_overseas/LiteOS_Lab/iot_link/os/liteos/base/core\los_task.c **** 
 626:C:/Users/dtjld/Desktop/AIoT_software/LiteOS_Lab_overseas/LiteOS_Lab/iot_link/os/liteos/base/core\los_task.c **** /*****************************************************************************
 627:C:/Users/dtjld/Desktop/AIoT_software/LiteOS_Lab_overseas/LiteOS_Lab/iot_link/os/liteos/base/core\los_task.c ****  Function : LOS_NextTaskIDGet
 628:C:/Users/dtjld/Desktop/AIoT_software/LiteOS_Lab_overseas/LiteOS_Lab/iot_link/os/liteos/base/core\los_task.c ****  Description : get id of next running task.
 629:C:/Users/dtjld/Desktop/AIoT_software/LiteOS_Lab_overseas/LiteOS_Lab/iot_link/os/liteos/base/core\los_task.c ****  Input       : None
 630:C:/Users/dtjld/Desktop/AIoT_software/LiteOS_Lab_overseas/LiteOS_Lab/iot_link/os/liteos/base/core\los_task.c ****  Output      : None
 631:C:/Users/dtjld/Desktop/AIoT_software/LiteOS_Lab_overseas/LiteOS_Lab/iot_link/os/liteos/base/core\los_task.c ****  Return      : task id
 632:C:/Users/dtjld/Desktop/AIoT_software/LiteOS_Lab_overseas/LiteOS_Lab/iot_link/os/liteos/base/core\los_task.c ****  *****************************************************************************/
 633:C:/Users/dtjld/Desktop/AIoT_software/LiteOS_Lab_overseas/LiteOS_Lab/iot_link/os/liteos/base/core\los_task.c **** LITE_OS_SEC_TEXT UINT32 LOS_NextTaskIDGet(VOID)
 634:C:/Users/dtjld/Desktop/AIoT_software/LiteOS_Lab_overseas/LiteOS_Lab/iot_link/os/liteos/base/core\los_task.c **** {
 1730              		.loc 2 634 0
 1731              		.cfi_startproc
 1732              		@ args = 0, pretend = 0, frame = 0
 1733              		@ frame_needed = 1, uses_anonymous_args = 0
 1734              		@ link register save eliminated.
 1735 0000 80B4     		push	{r7}
 1736              	.LCFI81:
 1737              		.cfi_def_cfa_offset 4
 1738              		.cfi_offset 7, -4
ARM GAS  C:\Users\dtjld\AppData\Local\Temp\ccU8krAq.s 			page 47


 1739 0002 00AF     		add	r7, sp, #0
 1740              	.LCFI82:
 1741              		.cfi_def_cfa_register 7
 635:C:/Users/dtjld/Desktop/AIoT_software/LiteOS_Lab_overseas/LiteOS_Lab/iot_link/os/liteos/base/core\los_task.c ****     if (NULL == g_stLosTask.pstNewTask)
 1742              		.loc 2 635 0
 1743 0004 064B     		ldr	r3, .L101
 1744 0006 5B68     		ldr	r3, [r3, #4]
 1745 0008 002B     		cmp	r3, #0
 1746 000a 01D1     		bne	.L99
 636:C:/Users/dtjld/Desktop/AIoT_software/LiteOS_Lab_overseas/LiteOS_Lab/iot_link/os/liteos/base/core\los_task.c ****     {
 637:C:/Users/dtjld/Desktop/AIoT_software/LiteOS_Lab_overseas/LiteOS_Lab/iot_link/os/liteos/base/core\los_task.c ****         return LOS_ERRNO_TSK_ID_INVALID;
 1747              		.loc 2 637 0
 1748 000c 054B     		ldr	r3, .L101+4
 1749 000e 02E0     		b	.L100
 1750              	.L99:
 638:C:/Users/dtjld/Desktop/AIoT_software/LiteOS_Lab_overseas/LiteOS_Lab/iot_link/os/liteos/base/core\los_task.c ****     }
 639:C:/Users/dtjld/Desktop/AIoT_software/LiteOS_Lab_overseas/LiteOS_Lab/iot_link/os/liteos/base/core\los_task.c ****     return g_stLosTask.pstNewTask->uwTaskID;
 1751              		.loc 2 639 0
 1752 0010 034B     		ldr	r3, .L101
 1753 0012 5B68     		ldr	r3, [r3, #4]
 1754 0014 1B69     		ldr	r3, [r3, #16]
 1755              	.L100:
 640:C:/Users/dtjld/Desktop/AIoT_software/LiteOS_Lab_overseas/LiteOS_Lab/iot_link/os/liteos/base/core\los_task.c **** }
 1756              		.loc 2 640 0
 1757 0016 1846     		mov	r0, r3
 1758 0018 BD46     		mov	sp, r7
 1759              	.LCFI83:
 1760              		.cfi_def_cfa_register 13
 1761              		@ sp needed
 1762 001a 5DF8047B 		ldr	r7, [sp], #4
 1763              	.LCFI84:
 1764              		.cfi_restore 7
 1765              		.cfi_def_cfa_offset 0
 1766 001e 7047     		bx	lr
 1767              	.L102:
 1768              		.align	2
 1769              	.L101:
 1770 0020 00000000 		.word	g_stLosTask
 1771 0024 07020002 		.word	33554951
 1772              		.cfi_endproc
 1773              	.LFE141:
 1775              		.section	.text.LOS_CurTaskNameGet,"ax",%progbits
 1776              		.align	1
 1777              		.global	LOS_CurTaskNameGet
 1778              		.syntax unified
 1779              		.thumb
 1780              		.thumb_func
 1781              		.fpu fpv4-sp-d16
 1783              	LOS_CurTaskNameGet:
 1784              	.LFB142:
 641:C:/Users/dtjld/Desktop/AIoT_software/LiteOS_Lab_overseas/LiteOS_Lab/iot_link/os/liteos/base/core\los_task.c **** 
 642:C:/Users/dtjld/Desktop/AIoT_software/LiteOS_Lab_overseas/LiteOS_Lab/iot_link/os/liteos/base/core\los_task.c **** /*****************************************************************************
 643:C:/Users/dtjld/Desktop/AIoT_software/LiteOS_Lab_overseas/LiteOS_Lab/iot_link/os/liteos/base/core\los_task.c ****  Function : LOS_CurTaskNameGet
 644:C:/Users/dtjld/Desktop/AIoT_software/LiteOS_Lab_overseas/LiteOS_Lab/iot_link/os/liteos/base/core\los_task.c ****  Description : get name of current running task.
 645:C:/Users/dtjld/Desktop/AIoT_software/LiteOS_Lab_overseas/LiteOS_Lab/iot_link/os/liteos/base/core\los_task.c ****  Input       : None
 646:C:/Users/dtjld/Desktop/AIoT_software/LiteOS_Lab_overseas/LiteOS_Lab/iot_link/os/liteos/base/core\los_task.c ****  Output      : None
 647:C:/Users/dtjld/Desktop/AIoT_software/LiteOS_Lab_overseas/LiteOS_Lab/iot_link/os/liteos/base/core\los_task.c ****  Return      : task name
ARM GAS  C:\Users\dtjld\AppData\Local\Temp\ccU8krAq.s 			page 48


 648:C:/Users/dtjld/Desktop/AIoT_software/LiteOS_Lab_overseas/LiteOS_Lab/iot_link/os/liteos/base/core\los_task.c ****  *****************************************************************************/
 649:C:/Users/dtjld/Desktop/AIoT_software/LiteOS_Lab_overseas/LiteOS_Lab/iot_link/os/liteos/base/core\los_task.c **** LITE_OS_SEC_TEXT CHAR *LOS_CurTaskNameGet(VOID)
 650:C:/Users/dtjld/Desktop/AIoT_software/LiteOS_Lab_overseas/LiteOS_Lab/iot_link/os/liteos/base/core\los_task.c **** {
 1785              		.loc 2 650 0
 1786              		.cfi_startproc
 1787              		@ args = 0, pretend = 0, frame = 8
 1788              		@ frame_needed = 1, uses_anonymous_args = 0
 1789              		@ link register save eliminated.
 1790 0000 80B4     		push	{r7}
 1791              	.LCFI85:
 1792              		.cfi_def_cfa_offset 4
 1793              		.cfi_offset 7, -4
 1794 0002 83B0     		sub	sp, sp, #12
 1795              	.LCFI86:
 1796              		.cfi_def_cfa_offset 16
 1797 0004 00AF     		add	r7, sp, #0
 1798              	.LCFI87:
 1799              		.cfi_def_cfa_register 7
 651:C:/Users/dtjld/Desktop/AIoT_software/LiteOS_Lab_overseas/LiteOS_Lab/iot_link/os/liteos/base/core\los_task.c ****     CHAR *pcTaskName = NULL;
 1800              		.loc 2 651 0
 1801 0006 0023     		movs	r3, #0
 1802 0008 7B60     		str	r3, [r7, #4]
 652:C:/Users/dtjld/Desktop/AIoT_software/LiteOS_Lab_overseas/LiteOS_Lab/iot_link/os/liteos/base/core\los_task.c **** 
 653:C:/Users/dtjld/Desktop/AIoT_software/LiteOS_Lab_overseas/LiteOS_Lab/iot_link/os/liteos/base/core\los_task.c ****     if (NULL != g_stLosTask.pstRunTask)
 1803              		.loc 2 653 0
 1804 000a 074B     		ldr	r3, .L106
 1805 000c 1B68     		ldr	r3, [r3]
 1806 000e 002B     		cmp	r3, #0
 1807 0010 03D0     		beq	.L104
 654:C:/Users/dtjld/Desktop/AIoT_software/LiteOS_Lab_overseas/LiteOS_Lab/iot_link/os/liteos/base/core\los_task.c ****     {
 655:C:/Users/dtjld/Desktop/AIoT_software/LiteOS_Lab_overseas/LiteOS_Lab/iot_link/os/liteos/base/core\los_task.c ****         pcTaskName = g_stLosTask.pstRunTask->pcTaskName;
 1808              		.loc 2 655 0
 1809 0012 054B     		ldr	r3, .L106
 1810 0014 1B68     		ldr	r3, [r3]
 1811 0016 5B6A     		ldr	r3, [r3, #36]
 1812 0018 7B60     		str	r3, [r7, #4]
 1813              	.L104:
 656:C:/Users/dtjld/Desktop/AIoT_software/LiteOS_Lab_overseas/LiteOS_Lab/iot_link/os/liteos/base/core\los_task.c ****     }
 657:C:/Users/dtjld/Desktop/AIoT_software/LiteOS_Lab_overseas/LiteOS_Lab/iot_link/os/liteos/base/core\los_task.c **** 
 658:C:/Users/dtjld/Desktop/AIoT_software/LiteOS_Lab_overseas/LiteOS_Lab/iot_link/os/liteos/base/core\los_task.c ****     return pcTaskName;
 1814              		.loc 2 658 0
 1815 001a 7B68     		ldr	r3, [r7, #4]
 659:C:/Users/dtjld/Desktop/AIoT_software/LiteOS_Lab_overseas/LiteOS_Lab/iot_link/os/liteos/base/core\los_task.c **** }
 1816              		.loc 2 659 0
 1817 001c 1846     		mov	r0, r3
 1818 001e 0C37     		adds	r7, r7, #12
 1819              	.LCFI88:
 1820              		.cfi_def_cfa_offset 4
 1821 0020 BD46     		mov	sp, r7
 1822              	.LCFI89:
 1823              		.cfi_def_cfa_register 13
 1824              		@ sp needed
 1825 0022 5DF8047B 		ldr	r7, [sp], #4
 1826              	.LCFI90:
 1827              		.cfi_restore 7
 1828              		.cfi_def_cfa_offset 0
 1829 0026 7047     		bx	lr
ARM GAS  C:\Users\dtjld\AppData\Local\Temp\ccU8krAq.s 			page 49


 1830              	.L107:
 1831              		.align	2
 1832              	.L106:
 1833 0028 00000000 		.word	g_stLosTask
 1834              		.cfi_endproc
 1835              	.LFE142:
 1837              		.section	.rodata
 1838              		.align	2
 1839              	.LC18:
 1840 01cc 43555252 		.ascii	"CURRENT task ID: %s:%d stack overflow!\012\000"
 1840      454E5420 
 1840      7461736B 
 1840      2049443A 
 1840      2025733A 
 1841              		.align	2
 1842              	.LC19:
 1843 01f4 48494748 		.ascii	"HIGHEST task ID: %s:%d SP error!\012\000"
 1843      45535420 
 1843      7461736B 
 1843      2049443A 
 1843      2025733A 
 1844 0216 0000     		.align	2
 1845              	.LC20:
 1846 0218 48494748 		.ascii	"HIGHEST task StackPointer: 0x%x TopOfStack: 0x%x\012"
 1846      45535420 
 1846      7461736B 
 1846      20537461 
 1846      636B506F 
 1847 0249 00       		.ascii	"\000"
 1848              		.section	.text.osTaskSwitchCheck,"ax",%progbits
 1849              		.align	1
 1850              		.global	osTaskSwitchCheck
 1851              		.syntax unified
 1852              		.thumb
 1853              		.thumb_func
 1854              		.fpu fpv4-sp-d16
 1856              	osTaskSwitchCheck:
 1857              	.LFB143:
 660:C:/Users/dtjld/Desktop/AIoT_software/LiteOS_Lab_overseas/LiteOS_Lab/iot_link/os/liteos/base/core\los_task.c **** 
 661:C:/Users/dtjld/Desktop/AIoT_software/LiteOS_Lab_overseas/LiteOS_Lab/iot_link/os/liteos/base/core\los_task.c **** /*****************************************************************************
 662:C:/Users/dtjld/Desktop/AIoT_software/LiteOS_Lab_overseas/LiteOS_Lab/iot_link/os/liteos/base/core\los_task.c ****  Function : osTaskSwitchCheck
 663:C:/Users/dtjld/Desktop/AIoT_software/LiteOS_Lab_overseas/LiteOS_Lab/iot_link/os/liteos/base/core\los_task.c ****  Description : Check task switch
 664:C:/Users/dtjld/Desktop/AIoT_software/LiteOS_Lab_overseas/LiteOS_Lab/iot_link/os/liteos/base/core\los_task.c ****  Input       : Node
 665:C:/Users/dtjld/Desktop/AIoT_software/LiteOS_Lab_overseas/LiteOS_Lab/iot_link/os/liteos/base/core\los_task.c ****  Output      : None
 666:C:/Users/dtjld/Desktop/AIoT_software/LiteOS_Lab_overseas/LiteOS_Lab/iot_link/os/liteos/base/core\los_task.c ****  Return      : None
 667:C:/Users/dtjld/Desktop/AIoT_software/LiteOS_Lab_overseas/LiteOS_Lab/iot_link/os/liteos/base/core\los_task.c ****  *****************************************************************************/
 668:C:/Users/dtjld/Desktop/AIoT_software/LiteOS_Lab_overseas/LiteOS_Lab/iot_link/os/liteos/base/core\los_task.c **** #if (LOSCFG_BASE_CORE_TSK_MONITOR == YES)
 669:C:/Users/dtjld/Desktop/AIoT_software/LiteOS_Lab_overseas/LiteOS_Lab/iot_link/os/liteos/base/core\los_task.c **** LITE_OS_SEC_TEXT VOID osTaskSwitchCheck(VOID)
 670:C:/Users/dtjld/Desktop/AIoT_software/LiteOS_Lab_overseas/LiteOS_Lab/iot_link/os/liteos/base/core\los_task.c **** {
 1858              		.loc 2 670 0
 1859              		.cfi_startproc
 1860              		@ args = 0, pretend = 0, frame = 0
 1861              		@ frame_needed = 1, uses_anonymous_args = 0
 1862 0000 80B5     		push	{r7, lr}
 1863              	.LCFI91:
 1864              		.cfi_def_cfa_offset 8
 1865              		.cfi_offset 7, -8
ARM GAS  C:\Users\dtjld\AppData\Local\Temp\ccU8krAq.s 			page 50


 1866              		.cfi_offset 14, -4
 1867 0002 00AF     		add	r7, sp, #0
 1868              	.LCFI92:
 1869              		.cfi_def_cfa_register 7
 671:C:/Users/dtjld/Desktop/AIoT_software/LiteOS_Lab_overseas/LiteOS_Lab/iot_link/os/liteos/base/core\los_task.c ****     if ((*(UINT32 *)(g_stLosTask.pstRunTask->uwTopOfStack)) != OS_TASK_MAGIC_WORD)
 1870              		.loc 2 671 0
 1871 0004 414B     		ldr	r3, .L115
 1872 0006 1B68     		ldr	r3, [r3]
 1873 0008 DB68     		ldr	r3, [r3, #12]
 1874 000a 1B68     		ldr	r3, [r3]
 1875 000c B3F1CC3F 		cmp	r3, #-858993460
 1876 0010 0CD0     		beq	.L109
 1877              	.LBB3:
 672:C:/Users/dtjld/Desktop/AIoT_software/LiteOS_Lab_overseas/LiteOS_Lab/iot_link/os/liteos/base/core\los_task.c ****     {
 673:C:/Users/dtjld/Desktop/AIoT_software/LiteOS_Lab_overseas/LiteOS_Lab/iot_link/os/liteos/base/core\los_task.c ****         PRINT_ERR("CURRENT task ID: %s:%d stack overflow!\n", g_stLosTask.pstRunTask->pcTaskName, g
 1878              		.loc 2 673 0
 1879 0012 3F48     		ldr	r0, .L115+4
 1880 0014 FFF7FEFF 		bl	printf
 1881 0018 3C4B     		ldr	r3, .L115
 1882 001a 1B68     		ldr	r3, [r3]
 1883 001c 596A     		ldr	r1, [r3, #36]
 1884 001e 3B4B     		ldr	r3, .L115
 1885 0020 1B68     		ldr	r3, [r3]
 1886 0022 1B69     		ldr	r3, [r3, #16]
 1887 0024 1A46     		mov	r2, r3
 1888 0026 3B48     		ldr	r0, .L115+8
 1889 0028 FFF7FEFF 		bl	printf
 1890              	.L109:
 1891              	.LBE3:
 674:C:/Users/dtjld/Desktop/AIoT_software/LiteOS_Lab_overseas/LiteOS_Lab/iot_link/os/liteos/base/core\los_task.c ****     }
 675:C:/Users/dtjld/Desktop/AIoT_software/LiteOS_Lab_overseas/LiteOS_Lab/iot_link/os/liteos/base/core\los_task.c ****     if (((UINT32)(g_stLosTask.pstNewTask->pStackPointer) <= g_stLosTask.pstNewTask->uwTopOfStack) |
 1892              		.loc 2 675 0
 1893 002c 374B     		ldr	r3, .L115
 1894 002e 5B68     		ldr	r3, [r3, #4]
 1895 0030 1B68     		ldr	r3, [r3]
 1896 0032 1A46     		mov	r2, r3
 1897 0034 354B     		ldr	r3, .L115
 1898 0036 5B68     		ldr	r3, [r3, #4]
 1899 0038 DB68     		ldr	r3, [r3, #12]
 1900 003a 9A42     		cmp	r2, r3
 1901 003c 0CD9     		bls	.L110
 676:C:/Users/dtjld/Desktop/AIoT_software/LiteOS_Lab_overseas/LiteOS_Lab/iot_link/os/liteos/base/core\los_task.c ****         ((UINT32)(g_stLosTask.pstNewTask->pStackPointer) > g_stLosTask.pstNewTask->uwTopOfStack + g
 1902              		.loc 2 676 0 discriminator 1
 1903 003e 334B     		ldr	r3, .L115
 1904 0040 5B68     		ldr	r3, [r3, #4]
 1905 0042 1B68     		ldr	r3, [r3]
 1906 0044 1946     		mov	r1, r3
 1907 0046 314B     		ldr	r3, .L115
 1908 0048 5B68     		ldr	r3, [r3, #4]
 1909 004a DA68     		ldr	r2, [r3, #12]
 1910 004c 2F4B     		ldr	r3, .L115
 1911 004e 5B68     		ldr	r3, [r3, #4]
 1912 0050 9B68     		ldr	r3, [r3, #8]
 1913 0052 1344     		add	r3, r3, r2
 675:C:/Users/dtjld/Desktop/AIoT_software/LiteOS_Lab_overseas/LiteOS_Lab/iot_link/os/liteos/base/core\los_task.c ****         ((UINT32)(g_stLosTask.pstNewTask->pStackPointer) > g_stLosTask.pstNewTask->uwTopOfStack + g
 1914              		.loc 2 675 0 discriminator 1
 1915 0054 9942     		cmp	r1, r3
ARM GAS  C:\Users\dtjld\AppData\Local\Temp\ccU8krAq.s 			page 51


 1916 0056 1AD9     		bls	.L111
 1917              	.L110:
 1918              	.LBB4:
 677:C:/Users/dtjld/Desktop/AIoT_software/LiteOS_Lab_overseas/LiteOS_Lab/iot_link/os/liteos/base/core\los_task.c ****     {
 678:C:/Users/dtjld/Desktop/AIoT_software/LiteOS_Lab_overseas/LiteOS_Lab/iot_link/os/liteos/base/core\los_task.c ****         PRINT_ERR("HIGHEST task ID: %s:%d SP error!\n", g_stLosTask.pstNewTask->pcTaskName, g_stLos
 1919              		.loc 2 678 0
 1920 0058 2D48     		ldr	r0, .L115+4
 1921 005a FFF7FEFF 		bl	printf
 1922 005e 2B4B     		ldr	r3, .L115
 1923 0060 5B68     		ldr	r3, [r3, #4]
 1924 0062 596A     		ldr	r1, [r3, #36]
 1925 0064 294B     		ldr	r3, .L115
 1926 0066 5B68     		ldr	r3, [r3, #4]
 1927 0068 1B69     		ldr	r3, [r3, #16]
 1928 006a 1A46     		mov	r2, r3
 1929 006c 2A48     		ldr	r0, .L115+12
 1930 006e FFF7FEFF 		bl	printf
 1931              	.LBE4:
 1932              	.LBB5:
 679:C:/Users/dtjld/Desktop/AIoT_software/LiteOS_Lab_overseas/LiteOS_Lab/iot_link/os/liteos/base/core\los_task.c ****         PRINT_ERR("HIGHEST task StackPointer: 0x%x TopOfStack: 0x%x\n", (UINT32)(g_stLosTask.pstNew
 1933              		.loc 2 679 0
 1934 0072 2748     		ldr	r0, .L115+4
 1935 0074 FFF7FEFF 		bl	printf
 1936 0078 244B     		ldr	r3, .L115
 1937 007a 5B68     		ldr	r3, [r3, #4]
 1938 007c 1B68     		ldr	r3, [r3]
 1939 007e 1946     		mov	r1, r3
 1940 0080 224B     		ldr	r3, .L115
 1941 0082 5B68     		ldr	r3, [r3, #4]
 1942 0084 DB68     		ldr	r3, [r3, #12]
 1943 0086 1A46     		mov	r2, r3
 1944 0088 2448     		ldr	r0, .L115+16
 1945 008a FFF7FEFF 		bl	printf
 1946              	.L111:
 1947              	.LBE5:
 680:C:/Users/dtjld/Desktop/AIoT_software/LiteOS_Lab_overseas/LiteOS_Lab/iot_link/os/liteos/base/core\los_task.c ****     }
 681:C:/Users/dtjld/Desktop/AIoT_software/LiteOS_Lab_overseas/LiteOS_Lab/iot_link/os/liteos/base/core\los_task.c **** 
 682:C:/Users/dtjld/Desktop/AIoT_software/LiteOS_Lab_overseas/LiteOS_Lab/iot_link/os/liteos/base/core\los_task.c **** #if (LOSCFG_BASE_CORE_EXC_TSK_SWITCH == YES)
 683:C:/Users/dtjld/Desktop/AIoT_software/LiteOS_Lab_overseas/LiteOS_Lab/iot_link/os/liteos/base/core\los_task.c ****     /* record task switch info */
 684:C:/Users/dtjld/Desktop/AIoT_software/LiteOS_Lab_overseas/LiteOS_Lab/iot_link/os/liteos/base/core\los_task.c ****     g_astTskSwitchInfo.auwPID[g_astTskSwitchInfo.ucIdx] = (UINT16)(g_stLosTask.pstNewTask->uwTaskID
 1948              		.loc 2 684 0
 1949 008e 1F4B     		ldr	r3, .L115
 1950 0090 5B68     		ldr	r3, [r3, #4]
 1951 0092 1A69     		ldr	r2, [r3, #16]
 1952 0094 224B     		ldr	r3, .L115+20
 1953 0096 1B78     		ldrb	r3, [r3]	@ zero_extendqisi2
 1954 0098 91B2     		uxth	r1, r2
 1955 009a 214A     		ldr	r2, .L115+20
 1956 009c 5B00     		lsls	r3, r3, #1
 1957 009e 1344     		add	r3, r3, r2
 1958 00a0 0A46     		mov	r2, r1	@ movhi
 1959 00a2 5A80     		strh	r2, [r3, #2]	@ movhi
 685:C:/Users/dtjld/Desktop/AIoT_software/LiteOS_Lab_overseas/LiteOS_Lab/iot_link/os/liteos/base/core\los_task.c ****     memcpy(g_astTskSwitchInfo.acName[g_astTskSwitchInfo.ucIdx], g_stLosTask.pstNewTask->pcTaskName,
 1960              		.loc 2 685 0
 1961 00a4 1E4B     		ldr	r3, .L115+20
 1962 00a6 1B78     		ldrb	r3, [r3]	@ zero_extendqisi2
 1963 00a8 5B01     		lsls	r3, r3, #5
ARM GAS  C:\Users\dtjld\AppData\Local\Temp\ccU8krAq.s 			page 52


 1964 00aa 1033     		adds	r3, r3, #16
 1965 00ac 1C4A     		ldr	r2, .L115+20
 1966 00ae 1344     		add	r3, r3, r2
 1967 00b0 981D     		adds	r0, r3, #6
 1968 00b2 164B     		ldr	r3, .L115
 1969 00b4 5B68     		ldr	r3, [r3, #4]
 1970 00b6 5B6A     		ldr	r3, [r3, #36]
 1971 00b8 2022     		movs	r2, #32
 1972 00ba 1946     		mov	r1, r3
 1973 00bc FFF7FEFF 		bl	memcpy
 686:C:/Users/dtjld/Desktop/AIoT_software/LiteOS_Lab_overseas/LiteOS_Lab/iot_link/os/liteos/base/core\los_task.c ****     g_astTskSwitchInfo.acName[g_astTskSwitchInfo.ucIdx][LOS_TASK_NAMELEN -1] = '\0';
 1974              		.loc 2 686 0
 1975 00c0 174B     		ldr	r3, .L115+20
 1976 00c2 1B78     		ldrb	r3, [r3]	@ zero_extendqisi2
 1977 00c4 164A     		ldr	r2, .L115+20
 1978 00c6 5B01     		lsls	r3, r3, #5
 1979 00c8 1344     		add	r3, r3, r2
 1980 00ca 3533     		adds	r3, r3, #53
 1981 00cc 0022     		movs	r2, #0
 1982 00ce 1A70     		strb	r2, [r3]
 687:C:/Users/dtjld/Desktop/AIoT_software/LiteOS_Lab_overseas/LiteOS_Lab/iot_link/os/liteos/base/core\los_task.c **** 
 688:C:/Users/dtjld/Desktop/AIoT_software/LiteOS_Lab_overseas/LiteOS_Lab/iot_link/os/liteos/base/core\los_task.c ****     if (++g_astTskSwitchInfo.ucIdx == OS_TASK_SWITCH_INFO_COUNT)
 1983              		.loc 2 688 0
 1984 00d0 134B     		ldr	r3, .L115+20
 1985 00d2 1B78     		ldrb	r3, [r3]	@ zero_extendqisi2
 1986 00d4 0133     		adds	r3, r3, #1
 1987 00d6 DAB2     		uxtb	r2, r3
 1988 00d8 114B     		ldr	r3, .L115+20
 1989 00da 1A70     		strb	r2, [r3]
 1990 00dc 104B     		ldr	r3, .L115+20
 1991 00de 1B78     		ldrb	r3, [r3]	@ zero_extendqisi2
 1992 00e0 0A2B     		cmp	r3, #10
 1993 00e2 09D1     		bne	.L112
 689:C:/Users/dtjld/Desktop/AIoT_software/LiteOS_Lab_overseas/LiteOS_Lab/iot_link/os/liteos/base/core\los_task.c ****     {
 690:C:/Users/dtjld/Desktop/AIoT_software/LiteOS_Lab_overseas/LiteOS_Lab/iot_link/os/liteos/base/core\los_task.c ****         g_astTskSwitchInfo.ucIdx = 0;
 1994              		.loc 2 690 0
 1995 00e4 0E4B     		ldr	r3, .L115+20
 1996 00e6 0022     		movs	r2, #0
 1997 00e8 1A70     		strb	r2, [r3]
 691:C:/Users/dtjld/Desktop/AIoT_software/LiteOS_Lab_overseas/LiteOS_Lab/iot_link/os/liteos/base/core\los_task.c ****         g_astTskSwitchInfo.ucIsFull |= 0x80;
 1998              		.loc 2 691 0
 1999 00ea 0D4B     		ldr	r3, .L115+20
 2000 00ec 5B78     		ldrb	r3, [r3, #1]	@ zero_extendqisi2
 2001 00ee 63F07F03 		orn	r3, r3, #127
 2002 00f2 DAB2     		uxtb	r2, r3
 2003 00f4 0A4B     		ldr	r3, .L115+20
 2004 00f6 5A70     		strb	r2, [r3, #1]
 2005              	.L112:
 692:C:/Users/dtjld/Desktop/AIoT_software/LiteOS_Lab_overseas/LiteOS_Lab/iot_link/os/liteos/base/core\los_task.c ****     }
 693:C:/Users/dtjld/Desktop/AIoT_software/LiteOS_Lab_overseas/LiteOS_Lab/iot_link/os/liteos/base/core\los_task.c **** #endif
 694:C:/Users/dtjld/Desktop/AIoT_software/LiteOS_Lab_overseas/LiteOS_Lab/iot_link/os/liteos/base/core\los_task.c **** 
 695:C:/Users/dtjld/Desktop/AIoT_software/LiteOS_Lab_overseas/LiteOS_Lab/iot_link/os/liteos/base/core\los_task.c ****     if (g_pfnUsrTskSwitchHook != NULL)
 2006              		.loc 2 695 0
 2007 00f8 0A4B     		ldr	r3, .L115+24
 2008 00fa 1B68     		ldr	r3, [r3]
 2009 00fc 002B     		cmp	r3, #0
 2010 00fe 02D0     		beq	.L114
ARM GAS  C:\Users\dtjld\AppData\Local\Temp\ccU8krAq.s 			page 53


 696:C:/Users/dtjld/Desktop/AIoT_software/LiteOS_Lab_overseas/LiteOS_Lab/iot_link/os/liteos/base/core\los_task.c ****     {
 697:C:/Users/dtjld/Desktop/AIoT_software/LiteOS_Lab_overseas/LiteOS_Lab/iot_link/os/liteos/base/core\los_task.c ****         g_pfnUsrTskSwitchHook();
 2011              		.loc 2 697 0
 2012 0100 084B     		ldr	r3, .L115+24
 2013 0102 1B68     		ldr	r3, [r3]
 2014 0104 9847     		blx	r3
 2015              	.LVL0:
 2016              	.L114:
 698:C:/Users/dtjld/Desktop/AIoT_software/LiteOS_Lab_overseas/LiteOS_Lab/iot_link/os/liteos/base/core\los_task.c ****     }
 699:C:/Users/dtjld/Desktop/AIoT_software/LiteOS_Lab_overseas/LiteOS_Lab/iot_link/os/liteos/base/core\los_task.c **** 
 700:C:/Users/dtjld/Desktop/AIoT_software/LiteOS_Lab_overseas/LiteOS_Lab/iot_link/os/liteos/base/core\los_task.c **** #if (LOSCFG_BASE_CORE_CPUP == YES)
 701:C:/Users/dtjld/Desktop/AIoT_software/LiteOS_Lab_overseas/LiteOS_Lab/iot_link/os/liteos/base/core\los_task.c ****     osTskCycleEndStart();
 702:C:/Users/dtjld/Desktop/AIoT_software/LiteOS_Lab_overseas/LiteOS_Lab/iot_link/os/liteos/base/core\los_task.c **** #endif /* LOSCFG_BASE_CORE_CPUP */
 703:C:/Users/dtjld/Desktop/AIoT_software/LiteOS_Lab_overseas/LiteOS_Lab/iot_link/os/liteos/base/core\los_task.c **** }
 2017              		.loc 2 703 0
 2018 0106 00BF     		nop
 2019 0108 80BD     		pop	{r7, pc}
 2020              	.L116:
 2021 010a 00BF     		.align	2
 2022              	.L115:
 2023 010c 00000000 		.word	g_stLosTask
 2024 0110 60000000 		.word	.LC9
 2025 0114 CC010000 		.word	.LC18
 2026 0118 F4010000 		.word	.LC19
 2027 011c 18020000 		.word	.LC20
 2028 0120 00000000 		.word	g_astTskSwitchInfo
 2029 0124 00000000 		.word	g_pfnUsrTskSwitchHook
 2030              		.cfi_endproc
 2031              	.LFE143:
 2033              		.section	.text.osTaskMonInit,"ax",%progbits
 2034              		.align	1
 2035              		.global	osTaskMonInit
 2036              		.syntax unified
 2037              		.thumb
 2038              		.thumb_func
 2039              		.fpu fpv4-sp-d16
 2041              	osTaskMonInit:
 2042              	.LFB144:
 704:C:/Users/dtjld/Desktop/AIoT_software/LiteOS_Lab_overseas/LiteOS_Lab/iot_link/os/liteos/base/core\los_task.c **** 
 705:C:/Users/dtjld/Desktop/AIoT_software/LiteOS_Lab_overseas/LiteOS_Lab/iot_link/os/liteos/base/core\los_task.c **** LITE_OS_SEC_TEXT_MINOR VOID osTaskMonInit(VOID)
 706:C:/Users/dtjld/Desktop/AIoT_software/LiteOS_Lab_overseas/LiteOS_Lab/iot_link/os/liteos/base/core\los_task.c **** {
 2043              		.loc 2 706 0
 2044              		.cfi_startproc
 2045              		@ args = 0, pretend = 0, frame = 0
 2046              		@ frame_needed = 1, uses_anonymous_args = 0
 2047 0000 80B5     		push	{r7, lr}
 2048              	.LCFI93:
 2049              		.cfi_def_cfa_offset 8
 2050              		.cfi_offset 7, -8
 2051              		.cfi_offset 14, -4
 2052 0002 00AF     		add	r7, sp, #0
 2053              	.LCFI94:
 2054              		.cfi_def_cfa_register 7
 707:C:/Users/dtjld/Desktop/AIoT_software/LiteOS_Lab_overseas/LiteOS_Lab/iot_link/os/liteos/base/core\los_task.c **** #if (LOSCFG_BASE_CORE_EXC_TSK_SWITCH == YES)
 708:C:/Users/dtjld/Desktop/AIoT_software/LiteOS_Lab_overseas/LiteOS_Lab/iot_link/os/liteos/base/core\los_task.c ****     (VOID)memset(&g_astTskSwitchInfo, 0, sizeof(OS_TASK_SWITCH_INFO));
 2055              		.loc 2 708 0
 2056 0004 4FF4AB72 		mov	r2, #342
ARM GAS  C:\Users\dtjld\AppData\Local\Temp\ccU8krAq.s 			page 54


 2057 0008 0021     		movs	r1, #0
 2058 000a 0748     		ldr	r0, .L119
 2059 000c FFF7FEFF 		bl	memset
 709:C:/Users/dtjld/Desktop/AIoT_software/LiteOS_Lab_overseas/LiteOS_Lab/iot_link/os/liteos/base/core\los_task.c ****     g_astTskSwitchInfo.ucIsFull = 0x7F & OS_TASK_SWITCH_INFO_COUNT;
 2060              		.loc 2 709 0
 2061 0010 054B     		ldr	r3, .L119
 2062 0012 0A22     		movs	r2, #10
 2063 0014 5A70     		strb	r2, [r3, #1]
 710:C:/Users/dtjld/Desktop/AIoT_software/LiteOS_Lab_overseas/LiteOS_Lab/iot_link/os/liteos/base/core\los_task.c **** #if ((LOSCFG_PLATFORM_EXC == YES) && (LOSCFG_SAVE_EXC_INFO == YES))
 711:C:/Users/dtjld/Desktop/AIoT_software/LiteOS_Lab_overseas/LiteOS_Lab/iot_link/os/liteos/base/core\los_task.c ****     osExcRegister((EXC_INFO_TYPE)OS_EXC_TYPE_TSK_SWITCH, (EXC_INFO_SAVE_CALLBACK)LOS_TaskSwitchInfo
 712:C:/Users/dtjld/Desktop/AIoT_software/LiteOS_Lab_overseas/LiteOS_Lab/iot_link/os/liteos/base/core\los_task.c **** #endif
 713:C:/Users/dtjld/Desktop/AIoT_software/LiteOS_Lab_overseas/LiteOS_Lab/iot_link/os/liteos/base/core\los_task.c **** #endif
 714:C:/Users/dtjld/Desktop/AIoT_software/LiteOS_Lab_overseas/LiteOS_Lab/iot_link/os/liteos/base/core\los_task.c ****     g_pfnTskSwitchHook = osTaskSwitchCheck;
 2064              		.loc 2 714 0
 2065 0016 054B     		ldr	r3, .L119+4
 2066 0018 054A     		ldr	r2, .L119+8
 2067 001a 1A60     		str	r2, [r3]
 715:C:/Users/dtjld/Desktop/AIoT_software/LiteOS_Lab_overseas/LiteOS_Lab/iot_link/os/liteos/base/core\los_task.c ****     g_pfnUsrTskSwitchHook = (TSKSWITCHHOOK)NULL; /*lint !e611*/
 2068              		.loc 2 715 0
 2069 001c 054B     		ldr	r3, .L119+12
 2070 001e 0022     		movs	r2, #0
 2071 0020 1A60     		str	r2, [r3]
 716:C:/Users/dtjld/Desktop/AIoT_software/LiteOS_Lab_overseas/LiteOS_Lab/iot_link/os/liteos/base/core\los_task.c ****     return ;
 2072              		.loc 2 716 0
 2073 0022 00BF     		nop
 717:C:/Users/dtjld/Desktop/AIoT_software/LiteOS_Lab_overseas/LiteOS_Lab/iot_link/os/liteos/base/core\los_task.c **** }
 2074              		.loc 2 717 0
 2075 0024 80BD     		pop	{r7, pc}
 2076              	.L120:
 2077 0026 00BF     		.align	2
 2078              	.L119:
 2079 0028 00000000 		.word	g_astTskSwitchInfo
 2080 002c 00000000 		.word	g_pfnTskSwitchHook
 2081 0030 00000000 		.word	osTaskSwitchCheck
 2082 0034 00000000 		.word	g_pfnUsrTskSwitchHook
 2083              		.cfi_endproc
 2084              	.LFE144:
 2086              		.section	.text.osTaskEntry,"ax",%progbits
 2087              		.align	1
 2088              		.global	osTaskEntry
 2089              		.syntax unified
 2090              		.thumb
 2091              		.thumb_func
 2092              		.fpu fpv4-sp-d16
 2094              	osTaskEntry:
 2095              	.LFB145:
 718:C:/Users/dtjld/Desktop/AIoT_software/LiteOS_Lab_overseas/LiteOS_Lab/iot_link/os/liteos/base/core\los_task.c **** #endif
 719:C:/Users/dtjld/Desktop/AIoT_software/LiteOS_Lab_overseas/LiteOS_Lab/iot_link/os/liteos/base/core\los_task.c **** 
 720:C:/Users/dtjld/Desktop/AIoT_software/LiteOS_Lab_overseas/LiteOS_Lab/iot_link/os/liteos/base/core\los_task.c **** /*****************************************************************************
 721:C:/Users/dtjld/Desktop/AIoT_software/LiteOS_Lab_overseas/LiteOS_Lab/iot_link/os/liteos/base/core\los_task.c ****  Function : osTaskEntry
 722:C:/Users/dtjld/Desktop/AIoT_software/LiteOS_Lab_overseas/LiteOS_Lab/iot_link/os/liteos/base/core\los_task.c ****  Description : All task entry
 723:C:/Users/dtjld/Desktop/AIoT_software/LiteOS_Lab_overseas/LiteOS_Lab/iot_link/os/liteos/base/core\los_task.c ****  Input       : uwTaskID     --- The ID of the task to be run
 724:C:/Users/dtjld/Desktop/AIoT_software/LiteOS_Lab_overseas/LiteOS_Lab/iot_link/os/liteos/base/core\los_task.c ****  Output      : None
 725:C:/Users/dtjld/Desktop/AIoT_software/LiteOS_Lab_overseas/LiteOS_Lab/iot_link/os/liteos/base/core\los_task.c ****  Return      : None
 726:C:/Users/dtjld/Desktop/AIoT_software/LiteOS_Lab_overseas/LiteOS_Lab/iot_link/os/liteos/base/core\los_task.c ****  *****************************************************************************/
 727:C:/Users/dtjld/Desktop/AIoT_software/LiteOS_Lab_overseas/LiteOS_Lab/iot_link/os/liteos/base/core\los_task.c **** LITE_OS_SEC_TEXT_INIT VOID osTaskEntry(UINT32 uwTaskID)
 728:C:/Users/dtjld/Desktop/AIoT_software/LiteOS_Lab_overseas/LiteOS_Lab/iot_link/os/liteos/base/core\los_task.c **** {
ARM GAS  C:\Users\dtjld\AppData\Local\Temp\ccU8krAq.s 			page 55


 2096              		.loc 2 728 0
 2097              		.cfi_startproc
 2098              		@ args = 0, pretend = 0, frame = 16
 2099              		@ frame_needed = 1, uses_anonymous_args = 0
 2100 0000 80B5     		push	{r7, lr}
 2101              	.LCFI95:
 2102              		.cfi_def_cfa_offset 8
 2103              		.cfi_offset 7, -8
 2104              		.cfi_offset 14, -4
 2105 0002 84B0     		sub	sp, sp, #16
 2106              	.LCFI96:
 2107              		.cfi_def_cfa_offset 24
 2108 0004 00AF     		add	r7, sp, #0
 2109              	.LCFI97:
 2110              		.cfi_def_cfa_register 7
 2111 0006 7860     		str	r0, [r7, #4]
 729:C:/Users/dtjld/Desktop/AIoT_software/LiteOS_Lab_overseas/LiteOS_Lab/iot_link/os/liteos/base/core\los_task.c ****     LOS_TASK_CB *pstTaskCB;
 730:C:/Users/dtjld/Desktop/AIoT_software/LiteOS_Lab_overseas/LiteOS_Lab/iot_link/os/liteos/base/core\los_task.c **** 
 731:C:/Users/dtjld/Desktop/AIoT_software/LiteOS_Lab_overseas/LiteOS_Lab/iot_link/os/liteos/base/core\los_task.c ****     OS_TASK_ID_CHECK(uwTaskID);
 732:C:/Users/dtjld/Desktop/AIoT_software/LiteOS_Lab_overseas/LiteOS_Lab/iot_link/os/liteos/base/core\los_task.c **** 
 733:C:/Users/dtjld/Desktop/AIoT_software/LiteOS_Lab_overseas/LiteOS_Lab/iot_link/os/liteos/base/core\los_task.c ****     pstTaskCB = OS_TCB_FROM_TID(uwTaskID);
 2112              		.loc 2 733 0
 2113 0008 0B4B     		ldr	r3, .L122
 2114 000a 1A68     		ldr	r2, [r3]
 2115 000c 7B68     		ldr	r3, [r7, #4]
 2116 000e 5421     		movs	r1, #84
 2117 0010 01FB03F3 		mul	r3, r1, r3
 2118 0014 1344     		add	r3, r3, r2
 2119 0016 FB60     		str	r3, [r7, #12]
 734:C:/Users/dtjld/Desktop/AIoT_software/LiteOS_Lab_overseas/LiteOS_Lab/iot_link/os/liteos/base/core\los_task.c **** 
 735:C:/Users/dtjld/Desktop/AIoT_software/LiteOS_Lab_overseas/LiteOS_Lab/iot_link/os/liteos/base/core\los_task.c ****     (VOID)pstTaskCB->pfnTaskEntry(pstTaskCB->uwArg);
 2120              		.loc 2 735 0
 2121 0018 FB68     		ldr	r3, [r7, #12]
 2122 001a 5B69     		ldr	r3, [r3, #20]
 2123 001c FA68     		ldr	r2, [r7, #12]
 2124 001e 126A     		ldr	r2, [r2, #32]
 2125 0020 1046     		mov	r0, r2
 2126 0022 9847     		blx	r3
 2127              	.LVL1:
 736:C:/Users/dtjld/Desktop/AIoT_software/LiteOS_Lab_overseas/LiteOS_Lab/iot_link/os/liteos/base/core\los_task.c **** 
 737:C:/Users/dtjld/Desktop/AIoT_software/LiteOS_Lab_overseas/LiteOS_Lab/iot_link/os/liteos/base/core\los_task.c ****     (VOID)LOS_TaskDelete(pstTaskCB->uwTaskID);
 2128              		.loc 2 737 0
 2129 0024 FB68     		ldr	r3, [r7, #12]
 2130 0026 1B69     		ldr	r3, [r3, #16]
 2131 0028 1846     		mov	r0, r3
 2132 002a FFF7FEFF 		bl	LOS_TaskDelete
 738:C:/Users/dtjld/Desktop/AIoT_software/LiteOS_Lab_overseas/LiteOS_Lab/iot_link/os/liteos/base/core\los_task.c **** }
 2133              		.loc 2 738 0
 2134 002e 00BF     		nop
 2135 0030 1037     		adds	r7, r7, #16
 2136              	.LCFI98:
 2137              		.cfi_def_cfa_offset 8
 2138 0032 BD46     		mov	sp, r7
 2139              	.LCFI99:
 2140              		.cfi_def_cfa_register 13
 2141              		@ sp needed
 2142 0034 80BD     		pop	{r7, pc}
ARM GAS  C:\Users\dtjld\AppData\Local\Temp\ccU8krAq.s 			page 56


 2143              	.L123:
 2144 0036 00BF     		.align	2
 2145              	.L122:
 2146 0038 00000000 		.word	g_pstTaskCBArray
 2147              		.cfi_endproc
 2148              	.LFE145:
 2150              		.section	.text.LOS_TaskCreateOnly,"ax",%progbits
 2151              		.align	1
 2152              		.global	LOS_TaskCreateOnly
 2153              		.syntax unified
 2154              		.thumb
 2155              		.thumb_func
 2156              		.fpu fpv4-sp-d16
 2158              	LOS_TaskCreateOnly:
 2159              	.LFB146:
 739:C:/Users/dtjld/Desktop/AIoT_software/LiteOS_Lab_overseas/LiteOS_Lab/iot_link/os/liteos/base/core\los_task.c **** 
 740:C:/Users/dtjld/Desktop/AIoT_software/LiteOS_Lab_overseas/LiteOS_Lab/iot_link/os/liteos/base/core\los_task.c **** #if (LOSCFG_STATIC_TASK == YES)
 741:C:/Users/dtjld/Desktop/AIoT_software/LiteOS_Lab_overseas/LiteOS_Lab/iot_link/os/liteos/base/core\los_task.c **** 
 742:C:/Users/dtjld/Desktop/AIoT_software/LiteOS_Lab_overseas/LiteOS_Lab/iot_link/os/liteos/base/core\los_task.c **** /*****************************************************************************
 743:C:/Users/dtjld/Desktop/AIoT_software/LiteOS_Lab_overseas/LiteOS_Lab/iot_link/os/liteos/base/core\los_task.c ****  Function    : LOS_StaticTaskInit
 744:C:/Users/dtjld/Desktop/AIoT_software/LiteOS_Lab_overseas/LiteOS_Lab/iot_link/os/liteos/base/core\los_task.c ****  Description : Initialize a task defined statically.
 745:C:/Users/dtjld/Desktop/AIoT_software/LiteOS_Lab_overseas/LiteOS_Lab/iot_link/os/liteos/base/core\los_task.c ****  Input       : pvTaskCB  --- task control block to be initialized
 746:C:/Users/dtjld/Desktop/AIoT_software/LiteOS_Lab_overseas/LiteOS_Lab/iot_link/os/liteos/base/core\los_task.c ****  Output      : puwTaskID --- task ID allocated for this task
 747:C:/Users/dtjld/Desktop/AIoT_software/LiteOS_Lab_overseas/LiteOS_Lab/iot_link/os/liteos/base/core\los_task.c ****  Return      : LOS_OK on success or error code on failure
 748:C:/Users/dtjld/Desktop/AIoT_software/LiteOS_Lab_overseas/LiteOS_Lab/iot_link/os/liteos/base/core\los_task.c ****  *****************************************************************************/
 749:C:/Users/dtjld/Desktop/AIoT_software/LiteOS_Lab_overseas/LiteOS_Lab/iot_link/os/liteos/base/core\los_task.c **** UINT32 LOS_StaticTaskInit(void *pvTaskCB, UINT32 *puwTaskID)
 750:C:/Users/dtjld/Desktop/AIoT_software/LiteOS_Lab_overseas/LiteOS_Lab/iot_link/os/liteos/base/core\los_task.c **** {
 751:C:/Users/dtjld/Desktop/AIoT_software/LiteOS_Lab_overseas/LiteOS_Lab/iot_link/os/liteos/base/core\los_task.c ****     static UINT32 uwTaskID = 0;
 752:C:/Users/dtjld/Desktop/AIoT_software/LiteOS_Lab_overseas/LiteOS_Lab/iot_link/os/liteos/base/core\los_task.c ****     UINTPTR uvIntSave;
 753:C:/Users/dtjld/Desktop/AIoT_software/LiteOS_Lab_overseas/LiteOS_Lab/iot_link/os/liteos/base/core\los_task.c ****     LOS_TASK_CB *pstTaskCB = (LOS_TASK_CB *)pvTaskCB;
 754:C:/Users/dtjld/Desktop/AIoT_software/LiteOS_Lab_overseas/LiteOS_Lab/iot_link/os/liteos/base/core\los_task.c **** 
 755:C:/Users/dtjld/Desktop/AIoT_software/LiteOS_Lab_overseas/LiteOS_Lab/iot_link/os/liteos/base/core\los_task.c ****     uvIntSave = LOS_IntLock();
 756:C:/Users/dtjld/Desktop/AIoT_software/LiteOS_Lab_overseas/LiteOS_Lab/iot_link/os/liteos/base/core\los_task.c **** 
 757:C:/Users/dtjld/Desktop/AIoT_software/LiteOS_Lab_overseas/LiteOS_Lab/iot_link/os/liteos/base/core\los_task.c ****     if (uwTaskID >= g_uwTskMaxNum)
 758:C:/Users/dtjld/Desktop/AIoT_software/LiteOS_Lab_overseas/LiteOS_Lab/iot_link/os/liteos/base/core\los_task.c ****         {
 759:C:/Users/dtjld/Desktop/AIoT_software/LiteOS_Lab_overseas/LiteOS_Lab/iot_link/os/liteos/base/core\los_task.c ****         LOS_IntRestore (uvIntSave);
 760:C:/Users/dtjld/Desktop/AIoT_software/LiteOS_Lab_overseas/LiteOS_Lab/iot_link/os/liteos/base/core\los_task.c ****         return LOS_ERRNO_TSK_NO_MEMORY;
 761:C:/Users/dtjld/Desktop/AIoT_software/LiteOS_Lab_overseas/LiteOS_Lab/iot_link/os/liteos/base/core\los_task.c ****         }
 762:C:/Users/dtjld/Desktop/AIoT_software/LiteOS_Lab_overseas/LiteOS_Lab/iot_link/os/liteos/base/core\los_task.c **** 
 763:C:/Users/dtjld/Desktop/AIoT_software/LiteOS_Lab_overseas/LiteOS_Lab/iot_link/os/liteos/base/core\los_task.c ****     pstTaskCB->uwTaskID = uwTaskID++;
 764:C:/Users/dtjld/Desktop/AIoT_software/LiteOS_Lab_overseas/LiteOS_Lab/iot_link/os/liteos/base/core\los_task.c ****     LOS_IntRestore (uvIntSave);
 765:C:/Users/dtjld/Desktop/AIoT_software/LiteOS_Lab_overseas/LiteOS_Lab/iot_link/os/liteos/base/core\los_task.c **** 
 766:C:/Users/dtjld/Desktop/AIoT_software/LiteOS_Lab_overseas/LiteOS_Lab/iot_link/os/liteos/base/core\los_task.c ****     g_apstTaskCBArray[pstTaskCB->uwTaskID] = pstTaskCB;
 767:C:/Users/dtjld/Desktop/AIoT_software/LiteOS_Lab_overseas/LiteOS_Lab/iot_link/os/liteos/base/core\los_task.c **** 
 768:C:/Users/dtjld/Desktop/AIoT_software/LiteOS_Lab_overseas/LiteOS_Lab/iot_link/os/liteos/base/core\los_task.c ****     pstTaskCB->usTaskStatus = OS_TASK_STATUS_READY;
 769:C:/Users/dtjld/Desktop/AIoT_software/LiteOS_Lab_overseas/LiteOS_Lab/iot_link/os/liteos/base/core\los_task.c **** 
 770:C:/Users/dtjld/Desktop/AIoT_software/LiteOS_Lab_overseas/LiteOS_Lab/iot_link/os/liteos/base/core\los_task.c ****     pstTaskCB->uwTopOfStack = (UINT32) pstTaskCB->pStackPointer;
 771:C:/Users/dtjld/Desktop/AIoT_software/LiteOS_Lab_overseas/LiteOS_Lab/iot_link/os/liteos/base/core\los_task.c **** 
 772:C:/Users/dtjld/Desktop/AIoT_software/LiteOS_Lab_overseas/LiteOS_Lab/iot_link/os/liteos/base/core\los_task.c ****     osTskStackInit(pstTaskCB, NULL);
 773:C:/Users/dtjld/Desktop/AIoT_software/LiteOS_Lab_overseas/LiteOS_Lab/iot_link/os/liteos/base/core\los_task.c **** 
 774:C:/Users/dtjld/Desktop/AIoT_software/LiteOS_Lab_overseas/LiteOS_Lab/iot_link/os/liteos/base/core\los_task.c ****     osPriqueueEnqueue(&pstTaskCB->stPendList, pstTaskCB->usPriority);
 775:C:/Users/dtjld/Desktop/AIoT_software/LiteOS_Lab_overseas/LiteOS_Lab/iot_link/os/liteos/base/core\los_task.c ****     g_stLosTask.pstNewTask = LOS_DL_LIST_ENTRY(osPriqueueTop(), LOS_TASK_CB, stPendList); /*lint !e
 776:C:/Users/dtjld/Desktop/AIoT_software/LiteOS_Lab_overseas/LiteOS_Lab/iot_link/os/liteos/base/core\los_task.c **** 
 777:C:/Users/dtjld/Desktop/AIoT_software/LiteOS_Lab_overseas/LiteOS_Lab/iot_link/os/liteos/base/core\los_task.c ****     *puwTaskID = pstTaskCB->uwTaskID;
 778:C:/Users/dtjld/Desktop/AIoT_software/LiteOS_Lab_overseas/LiteOS_Lab/iot_link/os/liteos/base/core\los_task.c **** 
 779:C:/Users/dtjld/Desktop/AIoT_software/LiteOS_Lab_overseas/LiteOS_Lab/iot_link/os/liteos/base/core\los_task.c ****     return LOS_OK;
 780:C:/Users/dtjld/Desktop/AIoT_software/LiteOS_Lab_overseas/LiteOS_Lab/iot_link/os/liteos/base/core\los_task.c **** }
ARM GAS  C:\Users\dtjld\AppData\Local\Temp\ccU8krAq.s 			page 57


 781:C:/Users/dtjld/Desktop/AIoT_software/LiteOS_Lab_overseas/LiteOS_Lab/iot_link/os/liteos/base/core\los_task.c **** 
 782:C:/Users/dtjld/Desktop/AIoT_software/LiteOS_Lab_overseas/LiteOS_Lab/iot_link/os/liteos/base/core\los_task.c **** #else
 783:C:/Users/dtjld/Desktop/AIoT_software/LiteOS_Lab_overseas/LiteOS_Lab/iot_link/os/liteos/base/core\los_task.c **** 
 784:C:/Users/dtjld/Desktop/AIoT_software/LiteOS_Lab_overseas/LiteOS_Lab/iot_link/os/liteos/base/core\los_task.c **** /*****************************************************************************
 785:C:/Users/dtjld/Desktop/AIoT_software/LiteOS_Lab_overseas/LiteOS_Lab/iot_link/os/liteos/base/core\los_task.c ****  Function : LOS_TaskCreateOnly
 786:C:/Users/dtjld/Desktop/AIoT_software/LiteOS_Lab_overseas/LiteOS_Lab/iot_link/os/liteos/base/core\los_task.c ****  Description : Create a task and suspend
 787:C:/Users/dtjld/Desktop/AIoT_software/LiteOS_Lab_overseas/LiteOS_Lab/iot_link/os/liteos/base/core\los_task.c ****  Input       : pstInitParam --- Task init parameters
 788:C:/Users/dtjld/Desktop/AIoT_software/LiteOS_Lab_overseas/LiteOS_Lab/iot_link/os/liteos/base/core\los_task.c ****  Output      : puwTaskID    --- Save task ID
 789:C:/Users/dtjld/Desktop/AIoT_software/LiteOS_Lab_overseas/LiteOS_Lab/iot_link/os/liteos/base/core\los_task.c ****  Return      : LOS_OK on success or error code on failure
 790:C:/Users/dtjld/Desktop/AIoT_software/LiteOS_Lab_overseas/LiteOS_Lab/iot_link/os/liteos/base/core\los_task.c ****  *****************************************************************************/
 791:C:/Users/dtjld/Desktop/AIoT_software/LiteOS_Lab_overseas/LiteOS_Lab/iot_link/os/liteos/base/core\los_task.c **** LITE_OS_SEC_TEXT_INIT UINT32 LOS_TaskCreateOnly(UINT32 *puwTaskID, TSK_INIT_PARAM_S *pstInitParam)
 792:C:/Users/dtjld/Desktop/AIoT_software/LiteOS_Lab_overseas/LiteOS_Lab/iot_link/os/liteos/base/core\los_task.c **** {
 2160              		.loc 2 792 0
 2161              		.cfi_startproc
 2162              		@ args = 0, pretend = 0, frame = 32
 2163              		@ frame_needed = 1, uses_anonymous_args = 0
 2164 0000 80B5     		push	{r7, lr}
 2165              	.LCFI100:
 2166              		.cfi_def_cfa_offset 8
 2167              		.cfi_offset 7, -8
 2168              		.cfi_offset 14, -4
 2169 0002 88B0     		sub	sp, sp, #32
 2170              	.LCFI101:
 2171              		.cfi_def_cfa_offset 40
 2172 0004 00AF     		add	r7, sp, #0
 2173              	.LCFI102:
 2174              		.cfi_def_cfa_register 7
 2175 0006 7860     		str	r0, [r7, #4]
 2176 0008 3960     		str	r1, [r7]
 793:C:/Users/dtjld/Desktop/AIoT_software/LiteOS_Lab_overseas/LiteOS_Lab/iot_link/os/liteos/base/core\los_task.c ****     UINT32 uwTaskID = 0;
 2177              		.loc 2 793 0
 2178 000a 0023     		movs	r3, #0
 2179 000c 7B61     		str	r3, [r7, #20]
 794:C:/Users/dtjld/Desktop/AIoT_software/LiteOS_Lab_overseas/LiteOS_Lab/iot_link/os/liteos/base/core\los_task.c ****     UINTPTR uvIntSave;
 795:C:/Users/dtjld/Desktop/AIoT_software/LiteOS_Lab_overseas/LiteOS_Lab/iot_link/os/liteos/base/core\los_task.c ****     VOID  *pTopStack;
 796:C:/Users/dtjld/Desktop/AIoT_software/LiteOS_Lab_overseas/LiteOS_Lab/iot_link/os/liteos/base/core\los_task.c ****     LOS_TASK_CB *pstTaskCB;
 797:C:/Users/dtjld/Desktop/AIoT_software/LiteOS_Lab_overseas/LiteOS_Lab/iot_link/os/liteos/base/core\los_task.c ****     UINT32 uwErrRet = OS_ERROR;
 2180              		.loc 2 797 0
 2181 000e 4FF0FF33 		mov	r3, #-1
 2182 0012 BB61     		str	r3, [r7, #24]
 798:C:/Users/dtjld/Desktop/AIoT_software/LiteOS_Lab_overseas/LiteOS_Lab/iot_link/os/liteos/base/core\los_task.c **** 
 799:C:/Users/dtjld/Desktop/AIoT_software/LiteOS_Lab_overseas/LiteOS_Lab/iot_link/os/liteos/base/core\los_task.c ****     if (NULL == puwTaskID)
 2183              		.loc 2 799 0
 2184 0014 7B68     		ldr	r3, [r7, #4]
 2185 0016 002B     		cmp	r3, #0
 2186 0018 01D1     		bne	.L125
 800:C:/Users/dtjld/Desktop/AIoT_software/LiteOS_Lab_overseas/LiteOS_Lab/iot_link/os/liteos/base/core\los_task.c ****     {
 801:C:/Users/dtjld/Desktop/AIoT_software/LiteOS_Lab_overseas/LiteOS_Lab/iot_link/os/liteos/base/core\los_task.c ****         return LOS_ERRNO_TSK_ID_INVALID;
 2187              		.loc 2 801 0
 2188 001a 634B     		ldr	r3, .L139
 2189 001c BFE0     		b	.L126
 2190              	.L125:
 802:C:/Users/dtjld/Desktop/AIoT_software/LiteOS_Lab_overseas/LiteOS_Lab/iot_link/os/liteos/base/core\los_task.c ****     }
 803:C:/Users/dtjld/Desktop/AIoT_software/LiteOS_Lab_overseas/LiteOS_Lab/iot_link/os/liteos/base/core\los_task.c **** 
 804:C:/Users/dtjld/Desktop/AIoT_software/LiteOS_Lab_overseas/LiteOS_Lab/iot_link/os/liteos/base/core\los_task.c ****     if (NULL == pstInitParam)
 2191              		.loc 2 804 0
 2192 001e 3B68     		ldr	r3, [r7]
ARM GAS  C:\Users\dtjld\AppData\Local\Temp\ccU8krAq.s 			page 58


 2193 0020 002B     		cmp	r3, #0
 2194 0022 01D1     		bne	.L127
 805:C:/Users/dtjld/Desktop/AIoT_software/LiteOS_Lab_overseas/LiteOS_Lab/iot_link/os/liteos/base/core\los_task.c ****     {
 806:C:/Users/dtjld/Desktop/AIoT_software/LiteOS_Lab_overseas/LiteOS_Lab/iot_link/os/liteos/base/core\los_task.c ****         return LOS_ERRNO_TSK_PTR_NULL;
 2195              		.loc 2 806 0
 2196 0024 614B     		ldr	r3, .L139+4
 2197 0026 BAE0     		b	.L126
 2198              	.L127:
 807:C:/Users/dtjld/Desktop/AIoT_software/LiteOS_Lab_overseas/LiteOS_Lab/iot_link/os/liteos/base/core\los_task.c ****     }
 808:C:/Users/dtjld/Desktop/AIoT_software/LiteOS_Lab_overseas/LiteOS_Lab/iot_link/os/liteos/base/core\los_task.c **** 
 809:C:/Users/dtjld/Desktop/AIoT_software/LiteOS_Lab_overseas/LiteOS_Lab/iot_link/os/liteos/base/core\los_task.c ****     if (NULL == pstInitParam->pcName)
 2199              		.loc 2 809 0
 2200 0028 3B68     		ldr	r3, [r7]
 2201 002a 1B69     		ldr	r3, [r3, #16]
 2202 002c 002B     		cmp	r3, #0
 2203 002e 01D1     		bne	.L128
 810:C:/Users/dtjld/Desktop/AIoT_software/LiteOS_Lab_overseas/LiteOS_Lab/iot_link/os/liteos/base/core\los_task.c ****     {
 811:C:/Users/dtjld/Desktop/AIoT_software/LiteOS_Lab_overseas/LiteOS_Lab/iot_link/os/liteos/base/core\los_task.c ****         return LOS_ERRNO_TSK_NAME_EMPTY;
 2204              		.loc 2 811 0
 2205 0030 5F4B     		ldr	r3, .L139+8
 2206 0032 B4E0     		b	.L126
 2207              	.L128:
 812:C:/Users/dtjld/Desktop/AIoT_software/LiteOS_Lab_overseas/LiteOS_Lab/iot_link/os/liteos/base/core\los_task.c ****     }
 813:C:/Users/dtjld/Desktop/AIoT_software/LiteOS_Lab_overseas/LiteOS_Lab/iot_link/os/liteos/base/core\los_task.c **** 
 814:C:/Users/dtjld/Desktop/AIoT_software/LiteOS_Lab_overseas/LiteOS_Lab/iot_link/os/liteos/base/core\los_task.c ****     if (NULL == pstInitParam->pfnTaskEntry)
 2208              		.loc 2 814 0
 2209 0034 3B68     		ldr	r3, [r7]
 2210 0036 1B68     		ldr	r3, [r3]
 2211 0038 002B     		cmp	r3, #0
 2212 003a 01D1     		bne	.L129
 815:C:/Users/dtjld/Desktop/AIoT_software/LiteOS_Lab_overseas/LiteOS_Lab/iot_link/os/liteos/base/core\los_task.c ****     {
 816:C:/Users/dtjld/Desktop/AIoT_software/LiteOS_Lab_overseas/LiteOS_Lab/iot_link/os/liteos/base/core\los_task.c ****         return LOS_ERRNO_TSK_ENTRY_NULL;
 2213              		.loc 2 816 0
 2214 003c 5D4B     		ldr	r3, .L139+12
 2215 003e AEE0     		b	.L126
 2216              	.L129:
 817:C:/Users/dtjld/Desktop/AIoT_software/LiteOS_Lab_overseas/LiteOS_Lab/iot_link/os/liteos/base/core\los_task.c ****     }
 818:C:/Users/dtjld/Desktop/AIoT_software/LiteOS_Lab_overseas/LiteOS_Lab/iot_link/os/liteos/base/core\los_task.c **** 
 819:C:/Users/dtjld/Desktop/AIoT_software/LiteOS_Lab_overseas/LiteOS_Lab/iot_link/os/liteos/base/core\los_task.c ****     if ((pstInitParam->usTaskPrio) > OS_TASK_PRIORITY_LOWEST)
 2217              		.loc 2 819 0
 2218 0040 3B68     		ldr	r3, [r7]
 2219 0042 9B88     		ldrh	r3, [r3, #4]
 2220 0044 1F2B     		cmp	r3, #31
 2221 0046 01D9     		bls	.L130
 820:C:/Users/dtjld/Desktop/AIoT_software/LiteOS_Lab_overseas/LiteOS_Lab/iot_link/os/liteos/base/core\los_task.c ****     {
 821:C:/Users/dtjld/Desktop/AIoT_software/LiteOS_Lab_overseas/LiteOS_Lab/iot_link/os/liteos/base/core\los_task.c ****         return LOS_ERRNO_TSK_PRIOR_ERROR;
 2222              		.loc 2 821 0
 2223 0048 5B4B     		ldr	r3, .L139+16
 2224 004a A8E0     		b	.L126
 2225              	.L130:
 822:C:/Users/dtjld/Desktop/AIoT_software/LiteOS_Lab_overseas/LiteOS_Lab/iot_link/os/liteos/base/core\los_task.c ****     }
 823:C:/Users/dtjld/Desktop/AIoT_software/LiteOS_Lab_overseas/LiteOS_Lab/iot_link/os/liteos/base/core\los_task.c **** 
 824:C:/Users/dtjld/Desktop/AIoT_software/LiteOS_Lab_overseas/LiteOS_Lab/iot_link/os/liteos/base/core\los_task.c ****     if (((pstInitParam->usTaskPrio) == OS_TASK_PRIORITY_LOWEST)
 2226              		.loc 2 824 0
 2227 004c 3B68     		ldr	r3, [r7]
 2228 004e 9B88     		ldrh	r3, [r3, #4]
 2229 0050 1F2B     		cmp	r3, #31
ARM GAS  C:\Users\dtjld\AppData\Local\Temp\ccU8krAq.s 			page 59


 2230 0052 06D1     		bne	.L131
 825:C:/Users/dtjld/Desktop/AIoT_software/LiteOS_Lab_overseas/LiteOS_Lab/iot_link/os/liteos/base/core\los_task.c ****         && (pstInitParam->pfnTaskEntry != OS_IDLE_TASK_ENTRY))
 2231              		.loc 2 825 0
 2232 0054 3B68     		ldr	r3, [r7]
 2233 0056 1B68     		ldr	r3, [r3]
 2234 0058 584A     		ldr	r2, .L139+20
 2235 005a 9342     		cmp	r3, r2
 2236 005c 01D0     		beq	.L131
 826:C:/Users/dtjld/Desktop/AIoT_software/LiteOS_Lab_overseas/LiteOS_Lab/iot_link/os/liteos/base/core\los_task.c ****     {
 827:C:/Users/dtjld/Desktop/AIoT_software/LiteOS_Lab_overseas/LiteOS_Lab/iot_link/os/liteos/base/core\los_task.c ****         return LOS_ERRNO_TSK_PRIOR_ERROR;
 2237              		.loc 2 827 0
 2238 005e 564B     		ldr	r3, .L139+16
 2239 0060 9DE0     		b	.L126
 2240              	.L131:
 828:C:/Users/dtjld/Desktop/AIoT_software/LiteOS_Lab_overseas/LiteOS_Lab/iot_link/os/liteos/base/core\los_task.c ****     }
 829:C:/Users/dtjld/Desktop/AIoT_software/LiteOS_Lab_overseas/LiteOS_Lab/iot_link/os/liteos/base/core\los_task.c **** 
 830:C:/Users/dtjld/Desktop/AIoT_software/LiteOS_Lab_overseas/LiteOS_Lab/iot_link/os/liteos/base/core\los_task.c ****     if (0 == pstInitParam->uwStackSize)
 2241              		.loc 2 830 0
 2242 0062 3B68     		ldr	r3, [r7]
 2243 0064 DB68     		ldr	r3, [r3, #12]
 2244 0066 002B     		cmp	r3, #0
 2245 0068 03D1     		bne	.L132
 831:C:/Users/dtjld/Desktop/AIoT_software/LiteOS_Lab_overseas/LiteOS_Lab/iot_link/os/liteos/base/core\los_task.c ****     {
 832:C:/Users/dtjld/Desktop/AIoT_software/LiteOS_Lab_overseas/LiteOS_Lab/iot_link/os/liteos/base/core\los_task.c ****         pstInitParam->uwStackSize = LOSCFG_BASE_CORE_TSK_DEFAULT_STACK_SIZE;
 2246              		.loc 2 832 0
 2247 006a 3B68     		ldr	r3, [r7]
 2248 006c 4FF43472 		mov	r2, #720
 2249 0070 DA60     		str	r2, [r3, #12]
 2250              	.L132:
 833:C:/Users/dtjld/Desktop/AIoT_software/LiteOS_Lab_overseas/LiteOS_Lab/iot_link/os/liteos/base/core\los_task.c ****     }
 834:C:/Users/dtjld/Desktop/AIoT_software/LiteOS_Lab_overseas/LiteOS_Lab/iot_link/os/liteos/base/core\los_task.c ****     pstInitParam->uwStackSize = ALIGN(pstInitParam->uwStackSize , LOSCFG_STACK_POINT_ALIGN_SIZE);
 2251              		.loc 2 834 0
 2252 0072 3B68     		ldr	r3, [r7]
 2253 0074 DB68     		ldr	r3, [r3, #12]
 2254 0076 0821     		movs	r1, #8
 2255 0078 1846     		mov	r0, r3
 2256 007a FFF7FEFF 		bl	LOS_Align
 2257 007e 0246     		mov	r2, r0
 2258 0080 3B68     		ldr	r3, [r7]
 2259 0082 DA60     		str	r2, [r3, #12]
 835:C:/Users/dtjld/Desktop/AIoT_software/LiteOS_Lab_overseas/LiteOS_Lab/iot_link/os/liteos/base/core\los_task.c **** 
 836:C:/Users/dtjld/Desktop/AIoT_software/LiteOS_Lab_overseas/LiteOS_Lab/iot_link/os/liteos/base/core\los_task.c ****     if (pstInitParam->uwStackSize < LOSCFG_BASE_CORE_TSK_MIN_STACK_SIZE)
 2260              		.loc 2 836 0
 2261 0084 3B68     		ldr	r3, [r7]
 2262 0086 DB68     		ldr	r3, [r3, #12]
 2263 0088 B3F5987F 		cmp	r3, #304
 2264 008c 01D2     		bcs	.L133
 837:C:/Users/dtjld/Desktop/AIoT_software/LiteOS_Lab_overseas/LiteOS_Lab/iot_link/os/liteos/base/core\los_task.c ****     {
 838:C:/Users/dtjld/Desktop/AIoT_software/LiteOS_Lab_overseas/LiteOS_Lab/iot_link/os/liteos/base/core\los_task.c ****         return LOS_ERRNO_TSK_STKSZ_TOO_SMALL;
 2265              		.loc 2 838 0
 2266 008e 4C4B     		ldr	r3, .L139+24
 2267 0090 85E0     		b	.L126
 2268              	.L133:
 839:C:/Users/dtjld/Desktop/AIoT_software/LiteOS_Lab_overseas/LiteOS_Lab/iot_link/os/liteos/base/core\los_task.c ****     }
 840:C:/Users/dtjld/Desktop/AIoT_software/LiteOS_Lab_overseas/LiteOS_Lab/iot_link/os/liteos/base/core\los_task.c **** 
 841:C:/Users/dtjld/Desktop/AIoT_software/LiteOS_Lab_overseas/LiteOS_Lab/iot_link/os/liteos/base/core\los_task.c ****     uvIntSave = LOS_IntLock();
 2269              		.loc 2 841 0
ARM GAS  C:\Users\dtjld\AppData\Local\Temp\ccU8krAq.s 			page 60


 2270 0092 FFF7FEFF 		bl	LOS_IntLock
 2271 0096 F861     		str	r0, [r7, #28]
 842:C:/Users/dtjld/Desktop/AIoT_software/LiteOS_Lab_overseas/LiteOS_Lab/iot_link/os/liteos/base/core\los_task.c ****     while (!LOS_ListEmpty(&g_stTskRecyleList))
 2272              		.loc 2 842 0
 2273 0098 19E0     		b	.L134
 2274              	.L135:
 843:C:/Users/dtjld/Desktop/AIoT_software/LiteOS_Lab_overseas/LiteOS_Lab/iot_link/os/liteos/base/core\los_task.c ****     {
 844:C:/Users/dtjld/Desktop/AIoT_software/LiteOS_Lab_overseas/LiteOS_Lab/iot_link/os/liteos/base/core\los_task.c ****         pstTaskCB = OS_TCB_FROM_PENDLIST(LOS_DL_LIST_FIRST(&g_stTskRecyleList)); /*lint !e413*/
 2275              		.loc 2 844 0
 2276 009a 4A4B     		ldr	r3, .L139+28
 2277 009c 5B68     		ldr	r3, [r3, #4]
 2278 009e 283B     		subs	r3, r3, #40
 2279 00a0 3B61     		str	r3, [r7, #16]
 845:C:/Users/dtjld/Desktop/AIoT_software/LiteOS_Lab_overseas/LiteOS_Lab/iot_link/os/liteos/base/core\los_task.c ****         LOS_ListDelete(LOS_DL_LIST_FIRST(&g_stTskRecyleList));
 2280              		.loc 2 845 0
 2281 00a2 484B     		ldr	r3, .L139+28
 2282 00a4 5B68     		ldr	r3, [r3, #4]
 2283 00a6 1846     		mov	r0, r3
 2284 00a8 FFF7FEFF 		bl	LOS_ListDelete
 846:C:/Users/dtjld/Desktop/AIoT_software/LiteOS_Lab_overseas/LiteOS_Lab/iot_link/os/liteos/base/core\los_task.c ****         LOS_ListAdd(&g_stLosFreeTask, &pstTaskCB->stPendList);
 2285              		.loc 2 846 0
 2286 00ac 3B69     		ldr	r3, [r7, #16]
 2287 00ae 2833     		adds	r3, r3, #40
 2288 00b0 1946     		mov	r1, r3
 2289 00b2 4548     		ldr	r0, .L139+32
 2290 00b4 FFF7FEFF 		bl	LOS_ListAdd
 847:C:/Users/dtjld/Desktop/AIoT_software/LiteOS_Lab_overseas/LiteOS_Lab/iot_link/os/liteos/base/core\los_task.c ****         (VOID)LOS_MemFree(OS_TASK_STACK_ADDR, (VOID *)pstTaskCB->uwTopOfStack);
 2291              		.loc 2 847 0
 2292 00b8 444B     		ldr	r3, .L139+36
 2293 00ba 1A68     		ldr	r2, [r3]
 2294 00bc 3B69     		ldr	r3, [r7, #16]
 2295 00be DB68     		ldr	r3, [r3, #12]
 2296 00c0 1946     		mov	r1, r3
 2297 00c2 1046     		mov	r0, r2
 2298 00c4 FFF7FEFF 		bl	LOS_MemFree
 848:C:/Users/dtjld/Desktop/AIoT_software/LiteOS_Lab_overseas/LiteOS_Lab/iot_link/os/liteos/base/core\los_task.c ****         pstTaskCB->uwTopOfStack = (UINT32)NULL;
 2299              		.loc 2 848 0
 2300 00c8 3B69     		ldr	r3, [r7, #16]
 2301 00ca 0022     		movs	r2, #0
 2302 00cc DA60     		str	r2, [r3, #12]
 2303              	.L134:
 842:C:/Users/dtjld/Desktop/AIoT_software/LiteOS_Lab_overseas/LiteOS_Lab/iot_link/os/liteos/base/core\los_task.c ****     {
 2304              		.loc 2 842 0
 2305 00ce 3D48     		ldr	r0, .L139+28
 2306 00d0 FFF7FEFF 		bl	LOS_ListEmpty
 2307 00d4 0346     		mov	r3, r0
 2308 00d6 002B     		cmp	r3, #0
 2309 00d8 DFD0     		beq	.L135
 849:C:/Users/dtjld/Desktop/AIoT_software/LiteOS_Lab_overseas/LiteOS_Lab/iot_link/os/liteos/base/core\los_task.c ****     }
 850:C:/Users/dtjld/Desktop/AIoT_software/LiteOS_Lab_overseas/LiteOS_Lab/iot_link/os/liteos/base/core\los_task.c **** 
 851:C:/Users/dtjld/Desktop/AIoT_software/LiteOS_Lab_overseas/LiteOS_Lab/iot_link/os/liteos/base/core\los_task.c ****     if (LOS_ListEmpty(&g_stLosFreeTask))
 2310              		.loc 2 851 0
 2311 00da 3B48     		ldr	r0, .L139+32
 2312 00dc FFF7FEFF 		bl	LOS_ListEmpty
 2313 00e0 0346     		mov	r3, r0
 2314 00e2 002B     		cmp	r3, #0
 2315 00e4 02D0     		beq	.L136
ARM GAS  C:\Users\dtjld\AppData\Local\Temp\ccU8krAq.s 			page 61


 852:C:/Users/dtjld/Desktop/AIoT_software/LiteOS_Lab_overseas/LiteOS_Lab/iot_link/os/liteos/base/core\los_task.c ****     {
 853:C:/Users/dtjld/Desktop/AIoT_software/LiteOS_Lab_overseas/LiteOS_Lab/iot_link/os/liteos/base/core\los_task.c ****         uwErrRet = LOS_ERRNO_TSK_TCB_UNAVAILABLE;
 2316              		.loc 2 853 0
 2317 00e6 3A4B     		ldr	r3, .L139+40
 2318 00e8 BB61     		str	r3, [r7, #24]
 854:C:/Users/dtjld/Desktop/AIoT_software/LiteOS_Lab_overseas/LiteOS_Lab/iot_link/os/liteos/base/core\los_task.c ****         OS_GOTO_ERREND();
 2319              		.loc 2 854 0
 2320 00ea 54E0     		b	.L137
 2321              	.L136:
 855:C:/Users/dtjld/Desktop/AIoT_software/LiteOS_Lab_overseas/LiteOS_Lab/iot_link/os/liteos/base/core\los_task.c ****     }
 856:C:/Users/dtjld/Desktop/AIoT_software/LiteOS_Lab_overseas/LiteOS_Lab/iot_link/os/liteos/base/core\los_task.c **** 
 857:C:/Users/dtjld/Desktop/AIoT_software/LiteOS_Lab_overseas/LiteOS_Lab/iot_link/os/liteos/base/core\los_task.c ****     pstTaskCB = OS_TCB_FROM_PENDLIST(LOS_DL_LIST_FIRST(&g_stLosFreeTask)); /*lint !e413*/
 2322              		.loc 2 857 0
 2323 00ec 364B     		ldr	r3, .L139+32
 2324 00ee 5B68     		ldr	r3, [r3, #4]
 2325 00f0 283B     		subs	r3, r3, #40
 2326 00f2 3B61     		str	r3, [r7, #16]
 858:C:/Users/dtjld/Desktop/AIoT_software/LiteOS_Lab_overseas/LiteOS_Lab/iot_link/os/liteos/base/core\los_task.c ****     LOS_ListDelete(LOS_DL_LIST_FIRST(&g_stLosFreeTask));
 2327              		.loc 2 858 0
 2328 00f4 344B     		ldr	r3, .L139+32
 2329 00f6 5B68     		ldr	r3, [r3, #4]
 2330 00f8 1846     		mov	r0, r3
 2331 00fa FFF7FEFF 		bl	LOS_ListDelete
 859:C:/Users/dtjld/Desktop/AIoT_software/LiteOS_Lab_overseas/LiteOS_Lab/iot_link/os/liteos/base/core\los_task.c ****     (VOID)LOS_IntRestore(uvIntSave);
 2332              		.loc 2 859 0
 2333 00fe F869     		ldr	r0, [r7, #28]
 2334 0100 FFF7FEFF 		bl	LOS_IntRestore
 860:C:/Users/dtjld/Desktop/AIoT_software/LiteOS_Lab_overseas/LiteOS_Lab/iot_link/os/liteos/base/core\los_task.c ****     uwTaskID = pstTaskCB->uwTaskID;
 2335              		.loc 2 860 0
 2336 0104 3B69     		ldr	r3, [r7, #16]
 2337 0106 1B69     		ldr	r3, [r3, #16]
 2338 0108 7B61     		str	r3, [r7, #20]
 861:C:/Users/dtjld/Desktop/AIoT_software/LiteOS_Lab_overseas/LiteOS_Lab/iot_link/os/liteos/base/core\los_task.c **** 
 862:C:/Users/dtjld/Desktop/AIoT_software/LiteOS_Lab_overseas/LiteOS_Lab/iot_link/os/liteos/base/core\los_task.c ****     extern VOID *osTskStackAlloc (TSK_INIT_PARAM_S *pstInitParam);
 863:C:/Users/dtjld/Desktop/AIoT_software/LiteOS_Lab_overseas/LiteOS_Lab/iot_link/os/liteos/base/core\los_task.c ****     pTopStack = (VOID *)osTskStackAlloc(pstInitParam);
 2339              		.loc 2 863 0
 2340 010a 3868     		ldr	r0, [r7]
 2341 010c FFF7FEFF 		bl	osTskStackAlloc
 2342 0110 F860     		str	r0, [r7, #12]
 864:C:/Users/dtjld/Desktop/AIoT_software/LiteOS_Lab_overseas/LiteOS_Lab/iot_link/os/liteos/base/core\los_task.c **** 
 865:C:/Users/dtjld/Desktop/AIoT_software/LiteOS_Lab_overseas/LiteOS_Lab/iot_link/os/liteos/base/core\los_task.c ****     if (NULL == pTopStack)
 2343              		.loc 2 865 0
 2344 0112 FB68     		ldr	r3, [r7, #12]
 2345 0114 002B     		cmp	r3, #0
 2346 0116 0BD1     		bne	.L138
 866:C:/Users/dtjld/Desktop/AIoT_software/LiteOS_Lab_overseas/LiteOS_Lab/iot_link/os/liteos/base/core\los_task.c ****     {
 867:C:/Users/dtjld/Desktop/AIoT_software/LiteOS_Lab_overseas/LiteOS_Lab/iot_link/os/liteos/base/core\los_task.c ****         uvIntSave = LOS_IntLock();
 2347              		.loc 2 867 0
 2348 0118 FFF7FEFF 		bl	LOS_IntLock
 2349 011c F861     		str	r0, [r7, #28]
 868:C:/Users/dtjld/Desktop/AIoT_software/LiteOS_Lab_overseas/LiteOS_Lab/iot_link/os/liteos/base/core\los_task.c ****         LOS_ListAdd(&g_stLosFreeTask, &pstTaskCB->stPendList);
 2350              		.loc 2 868 0
 2351 011e 3B69     		ldr	r3, [r7, #16]
 2352 0120 2833     		adds	r3, r3, #40
 2353 0122 1946     		mov	r1, r3
 2354 0124 2848     		ldr	r0, .L139+32
 2355 0126 FFF7FEFF 		bl	LOS_ListAdd
ARM GAS  C:\Users\dtjld\AppData\Local\Temp\ccU8krAq.s 			page 62


 869:C:/Users/dtjld/Desktop/AIoT_software/LiteOS_Lab_overseas/LiteOS_Lab/iot_link/os/liteos/base/core\los_task.c ****         uwErrRet = LOS_ERRNO_TSK_NO_MEMORY;
 2356              		.loc 2 869 0
 2357 012a 2A4B     		ldr	r3, .L139+44
 2358 012c BB61     		str	r3, [r7, #24]
 870:C:/Users/dtjld/Desktop/AIoT_software/LiteOS_Lab_overseas/LiteOS_Lab/iot_link/os/liteos/base/core\los_task.c ****         OS_GOTO_ERREND();
 2359              		.loc 2 870 0
 2360 012e 32E0     		b	.L137
 2361              	.L138:
 871:C:/Users/dtjld/Desktop/AIoT_software/LiteOS_Lab_overseas/LiteOS_Lab/iot_link/os/liteos/base/core\los_task.c ****     }
 872:C:/Users/dtjld/Desktop/AIoT_software/LiteOS_Lab_overseas/LiteOS_Lab/iot_link/os/liteos/base/core\los_task.c **** 
 873:C:/Users/dtjld/Desktop/AIoT_software/LiteOS_Lab_overseas/LiteOS_Lab/iot_link/os/liteos/base/core\los_task.c ****     pstTaskCB->uwArg             = pstInitParam->uwArg;
 2362              		.loc 2 873 0
 2363 0130 3B68     		ldr	r3, [r7]
 2364 0132 9A68     		ldr	r2, [r3, #8]
 2365 0134 3B69     		ldr	r3, [r7, #16]
 2366 0136 1A62     		str	r2, [r3, #32]
 874:C:/Users/dtjld/Desktop/AIoT_software/LiteOS_Lab_overseas/LiteOS_Lab/iot_link/os/liteos/base/core\los_task.c ****     pstTaskCB->uwTopOfStack      = (UINT32)pTopStack;
 2367              		.loc 2 874 0
 2368 0138 FA68     		ldr	r2, [r7, #12]
 2369 013a 3B69     		ldr	r3, [r7, #16]
 2370 013c DA60     		str	r2, [r3, #12]
 875:C:/Users/dtjld/Desktop/AIoT_software/LiteOS_Lab_overseas/LiteOS_Lab/iot_link/os/liteos/base/core\los_task.c ****     pstTaskCB->uwStackSize       = pstInitParam->uwStackSize;
 2371              		.loc 2 875 0
 2372 013e 3B68     		ldr	r3, [r7]
 2373 0140 DA68     		ldr	r2, [r3, #12]
 2374 0142 3B69     		ldr	r3, [r7, #16]
 2375 0144 9A60     		str	r2, [r3, #8]
 876:C:/Users/dtjld/Desktop/AIoT_software/LiteOS_Lab_overseas/LiteOS_Lab/iot_link/os/liteos/base/core\los_task.c ****     pstTaskCB->pTaskSem          = NULL;
 2376              		.loc 2 876 0
 2377 0146 3B69     		ldr	r3, [r7, #16]
 2378 0148 0022     		movs	r2, #0
 2379 014a 9A61     		str	r2, [r3, #24]
 877:C:/Users/dtjld/Desktop/AIoT_software/LiteOS_Lab_overseas/LiteOS_Lab/iot_link/os/liteos/base/core\los_task.c ****     pstTaskCB->pTaskMux          = NULL;
 2380              		.loc 2 877 0
 2381 014c 3B69     		ldr	r3, [r7, #16]
 2382 014e 0022     		movs	r2, #0
 2383 0150 DA61     		str	r2, [r3, #28]
 878:C:/Users/dtjld/Desktop/AIoT_software/LiteOS_Lab_overseas/LiteOS_Lab/iot_link/os/liteos/base/core\los_task.c ****     pstTaskCB->usTaskStatus      = OS_TASK_STATUS_SUSPEND;
 2384              		.loc 2 878 0
 2385 0152 3B69     		ldr	r3, [r7, #16]
 2386 0154 0222     		movs	r2, #2
 2387 0156 9A80     		strh	r2, [r3, #4]	@ movhi
 879:C:/Users/dtjld/Desktop/AIoT_software/LiteOS_Lab_overseas/LiteOS_Lab/iot_link/os/liteos/base/core\los_task.c ****     pstTaskCB->usPriority        = pstInitParam->usTaskPrio;
 2388              		.loc 2 879 0
 2389 0158 3B68     		ldr	r3, [r7]
 2390 015a 9A88     		ldrh	r2, [r3, #4]
 2391 015c 3B69     		ldr	r3, [r7, #16]
 2392 015e DA80     		strh	r2, [r3, #6]	@ movhi
 880:C:/Users/dtjld/Desktop/AIoT_software/LiteOS_Lab_overseas/LiteOS_Lab/iot_link/os/liteos/base/core\los_task.c ****     pstTaskCB->pfnTaskEntry      = pstInitParam->pfnTaskEntry;
 2393              		.loc 2 880 0
 2394 0160 3B68     		ldr	r3, [r7]
 2395 0162 1A68     		ldr	r2, [r3]
 2396 0164 3B69     		ldr	r3, [r7, #16]
 2397 0166 5A61     		str	r2, [r3, #20]
 881:C:/Users/dtjld/Desktop/AIoT_software/LiteOS_Lab_overseas/LiteOS_Lab/iot_link/os/liteos/base/core\los_task.c ****     pstTaskCB->uwEvent.uwEventID = 0xFFFFFFFF;
 2398              		.loc 2 881 0
 2399 0168 3B69     		ldr	r3, [r7, #16]
ARM GAS  C:\Users\dtjld\AppData\Local\Temp\ccU8krAq.s 			page 63


 2400 016a 4FF0FF32 		mov	r2, #-1
 2401 016e DA63     		str	r2, [r3, #60]
 882:C:/Users/dtjld/Desktop/AIoT_software/LiteOS_Lab_overseas/LiteOS_Lab/iot_link/os/liteos/base/core\los_task.c ****     pstTaskCB->uwEventMask       = 0;
 2402              		.loc 2 882 0
 2403 0170 3B69     		ldr	r3, [r7, #16]
 2404 0172 0022     		movs	r2, #0
 2405 0174 9A64     		str	r2, [r3, #72]
 883:C:/Users/dtjld/Desktop/AIoT_software/LiteOS_Lab_overseas/LiteOS_Lab/iot_link/os/liteos/base/core\los_task.c ****     pstTaskCB->pcTaskName        = pstInitParam->pcName;
 2406              		.loc 2 883 0
 2407 0176 3B68     		ldr	r3, [r7]
 2408 0178 1A69     		ldr	r2, [r3, #16]
 2409 017a 3B69     		ldr	r3, [r7, #16]
 2410 017c 5A62     		str	r2, [r3, #36]
 884:C:/Users/dtjld/Desktop/AIoT_software/LiteOS_Lab_overseas/LiteOS_Lab/iot_link/os/liteos/base/core\los_task.c ****     pstTaskCB->puwMsg = NULL;
 2411              		.loc 2 884 0
 2412 017e 3B69     		ldr	r3, [r7, #16]
 2413 0180 0022     		movs	r2, #0
 2414 0182 1A65     		str	r2, [r3, #80]
 885:C:/Users/dtjld/Desktop/AIoT_software/LiteOS_Lab_overseas/LiteOS_Lab/iot_link/os/liteos/base/core\los_task.c **** 
 886:C:/Users/dtjld/Desktop/AIoT_software/LiteOS_Lab_overseas/LiteOS_Lab/iot_link/os/liteos/base/core\los_task.c ****     osTskStackInit(pstTaskCB, pstInitParam);
 2415              		.loc 2 886 0
 2416 0184 3968     		ldr	r1, [r7]
 2417 0186 3869     		ldr	r0, [r7, #16]
 2418 0188 FFF7FEFF 		bl	osTskStackInit
 887:C:/Users/dtjld/Desktop/AIoT_software/LiteOS_Lab_overseas/LiteOS_Lab/iot_link/os/liteos/base/core\los_task.c **** 
 888:C:/Users/dtjld/Desktop/AIoT_software/LiteOS_Lab_overseas/LiteOS_Lab/iot_link/os/liteos/base/core\los_task.c **** #if (LOSCFG_LIB_LIBC_NEWLIB_REENT == YES)
 889:C:/Users/dtjld/Desktop/AIoT_software/LiteOS_Lab_overseas/LiteOS_Lab/iot_link/os/liteos/base/core\los_task.c ****     /* Initialise this task's Newlib reent structure. */
 890:C:/Users/dtjld/Desktop/AIoT_software/LiteOS_Lab_overseas/LiteOS_Lab/iot_link/os/liteos/base/core\los_task.c ****     _REENT_INIT_PTR(&(pstTaskCB->stNewLibReent));
 891:C:/Users/dtjld/Desktop/AIoT_software/LiteOS_Lab_overseas/LiteOS_Lab/iot_link/os/liteos/base/core\los_task.c **** #endif
 892:C:/Users/dtjld/Desktop/AIoT_software/LiteOS_Lab_overseas/LiteOS_Lab/iot_link/os/liteos/base/core\los_task.c **** 
 893:C:/Users/dtjld/Desktop/AIoT_software/LiteOS_Lab_overseas/LiteOS_Lab/iot_link/os/liteos/base/core\los_task.c ****     *puwTaskID = uwTaskID;
 2419              		.loc 2 893 0
 2420 018c 7B68     		ldr	r3, [r7, #4]
 2421 018e 7A69     		ldr	r2, [r7, #20]
 2422 0190 1A60     		str	r2, [r3]
 894:C:/Users/dtjld/Desktop/AIoT_software/LiteOS_Lab_overseas/LiteOS_Lab/iot_link/os/liteos/base/core\los_task.c ****     return LOS_OK;
 2423              		.loc 2 894 0
 2424 0192 0023     		movs	r3, #0
 2425 0194 03E0     		b	.L126
 2426              	.L137:
 895:C:/Users/dtjld/Desktop/AIoT_software/LiteOS_Lab_overseas/LiteOS_Lab/iot_link/os/liteos/base/core\los_task.c **** 
 896:C:/Users/dtjld/Desktop/AIoT_software/LiteOS_Lab_overseas/LiteOS_Lab/iot_link/os/liteos/base/core\los_task.c **** LOS_ERREND:
 897:C:/Users/dtjld/Desktop/AIoT_software/LiteOS_Lab_overseas/LiteOS_Lab/iot_link/os/liteos/base/core\los_task.c ****     (VOID)LOS_IntRestore(uvIntSave);
 2427              		.loc 2 897 0
 2428 0196 F869     		ldr	r0, [r7, #28]
 2429 0198 FFF7FEFF 		bl	LOS_IntRestore
 898:C:/Users/dtjld/Desktop/AIoT_software/LiteOS_Lab_overseas/LiteOS_Lab/iot_link/os/liteos/base/core\los_task.c ****     return uwErrRet;
 2430              		.loc 2 898 0
 2431 019c BB69     		ldr	r3, [r7, #24]
 2432              	.L126:
 899:C:/Users/dtjld/Desktop/AIoT_software/LiteOS_Lab_overseas/LiteOS_Lab/iot_link/os/liteos/base/core\los_task.c **** }
 2433              		.loc 2 899 0
 2434 019e 1846     		mov	r0, r3
 2435 01a0 2037     		adds	r7, r7, #32
 2436              	.LCFI103:
 2437              		.cfi_def_cfa_offset 8
 2438 01a2 BD46     		mov	sp, r7
ARM GAS  C:\Users\dtjld\AppData\Local\Temp\ccU8krAq.s 			page 64


 2439              	.LCFI104:
 2440              		.cfi_def_cfa_register 13
 2441              		@ sp needed
 2442 01a4 80BD     		pop	{r7, pc}
 2443              	.L140:
 2444 01a6 00BF     		.align	2
 2445              	.L139:
 2446 01a8 07020002 		.word	33554951
 2447 01ac 01020002 		.word	33554945
 2448 01b0 05020002 		.word	33554949
 2449 01b4 04020002 		.word	33554948
 2450 01b8 03020002 		.word	33554947
 2451 01bc 00000000 		.word	osIdleTask
 2452 01c0 06020002 		.word	33554950
 2453 01c4 00000000 		.word	g_stTskRecyleList
 2454 01c8 00000000 		.word	g_stLosFreeTask
 2455 01cc 00000000 		.word	m_aucSysMem0
 2456 01d0 11020002 		.word	33554961
 2457 01d4 00020003 		.word	50332160
 2458              		.cfi_endproc
 2459              	.LFE146:
 2461              		.section	.text.LOS_TaskCreate,"ax",%progbits
 2462              		.align	1
 2463              		.global	LOS_TaskCreate
 2464              		.syntax unified
 2465              		.thumb
 2466              		.thumb_func
 2467              		.fpu fpv4-sp-d16
 2469              	LOS_TaskCreate:
 2470              	.LFB147:
 900:C:/Users/dtjld/Desktop/AIoT_software/LiteOS_Lab_overseas/LiteOS_Lab/iot_link/os/liteos/base/core\los_task.c **** 
 901:C:/Users/dtjld/Desktop/AIoT_software/LiteOS_Lab_overseas/LiteOS_Lab/iot_link/os/liteos/base/core\los_task.c **** 
 902:C:/Users/dtjld/Desktop/AIoT_software/LiteOS_Lab_overseas/LiteOS_Lab/iot_link/os/liteos/base/core\los_task.c **** /*****************************************************************************
 903:C:/Users/dtjld/Desktop/AIoT_software/LiteOS_Lab_overseas/LiteOS_Lab/iot_link/os/liteos/base/core\los_task.c ****  Function : LOS_TaskCreate
 904:C:/Users/dtjld/Desktop/AIoT_software/LiteOS_Lab_overseas/LiteOS_Lab/iot_link/os/liteos/base/core\los_task.c ****  Description : Create a task
 905:C:/Users/dtjld/Desktop/AIoT_software/LiteOS_Lab_overseas/LiteOS_Lab/iot_link/os/liteos/base/core\los_task.c ****  Input       : pstInitParam --- Task init parameters
 906:C:/Users/dtjld/Desktop/AIoT_software/LiteOS_Lab_overseas/LiteOS_Lab/iot_link/os/liteos/base/core\los_task.c ****  Output      : puwTaskID    --- Save task ID
 907:C:/Users/dtjld/Desktop/AIoT_software/LiteOS_Lab_overseas/LiteOS_Lab/iot_link/os/liteos/base/core\los_task.c ****  Return      : LOS_OK on success or error code on failure
 908:C:/Users/dtjld/Desktop/AIoT_software/LiteOS_Lab_overseas/LiteOS_Lab/iot_link/os/liteos/base/core\los_task.c ****  *****************************************************************************/
 909:C:/Users/dtjld/Desktop/AIoT_software/LiteOS_Lab_overseas/LiteOS_Lab/iot_link/os/liteos/base/core\los_task.c **** LITE_OS_SEC_TEXT_INIT UINT32 LOS_TaskCreate(UINT32 *puwTaskID, TSK_INIT_PARAM_S *pstInitParam)
 910:C:/Users/dtjld/Desktop/AIoT_software/LiteOS_Lab_overseas/LiteOS_Lab/iot_link/os/liteos/base/core\los_task.c **** {
 2471              		.loc 2 910 0
 2472              		.cfi_startproc
 2473              		@ args = 0, pretend = 0, frame = 48
 2474              		@ frame_needed = 1, uses_anonymous_args = 0
 2475 0000 B0B5     		push	{r4, r5, r7, lr}
 2476              	.LCFI105:
 2477              		.cfi_def_cfa_offset 16
 2478              		.cfi_offset 4, -16
 2479              		.cfi_offset 5, -12
 2480              		.cfi_offset 7, -8
 2481              		.cfi_offset 14, -4
 2482 0002 8CB0     		sub	sp, sp, #48
 2483              	.LCFI106:
 2484              		.cfi_def_cfa_offset 64
 2485 0004 00AF     		add	r7, sp, #0
 2486              	.LCFI107:
ARM GAS  C:\Users\dtjld\AppData\Local\Temp\ccU8krAq.s 			page 65


 2487              		.cfi_def_cfa_register 7
 2488 0006 7860     		str	r0, [r7, #4]
 2489 0008 3960     		str	r1, [r7]
 911:C:/Users/dtjld/Desktop/AIoT_software/LiteOS_Lab_overseas/LiteOS_Lab/iot_link/os/liteos/base/core\los_task.c ****     UINT32 uwRet = LOS_OK;
 2490              		.loc 2 911 0
 2491 000a 0023     		movs	r3, #0
 2492 000c FB62     		str	r3, [r7, #44]
 912:C:/Users/dtjld/Desktop/AIoT_software/LiteOS_Lab_overseas/LiteOS_Lab/iot_link/os/liteos/base/core\los_task.c ****     UINTPTR uvIntSave;
 913:C:/Users/dtjld/Desktop/AIoT_software/LiteOS_Lab_overseas/LiteOS_Lab/iot_link/os/liteos/base/core\los_task.c ****     LOS_TASK_CB *pstTaskCB;
 914:C:/Users/dtjld/Desktop/AIoT_software/LiteOS_Lab_overseas/LiteOS_Lab/iot_link/os/liteos/base/core\los_task.c ****     TSK_INIT_PARAM_S stInitParam;
 915:C:/Users/dtjld/Desktop/AIoT_software/LiteOS_Lab_overseas/LiteOS_Lab/iot_link/os/liteos/base/core\los_task.c **** 
 916:C:/Users/dtjld/Desktop/AIoT_software/LiteOS_Lab_overseas/LiteOS_Lab/iot_link/os/liteos/base/core\los_task.c ****     if (NULL == pstInitParam)
 2493              		.loc 2 916 0
 2494 000e 3B68     		ldr	r3, [r7]
 2495 0010 002B     		cmp	r3, #0
 2496 0012 01D1     		bne	.L142
 917:C:/Users/dtjld/Desktop/AIoT_software/LiteOS_Lab_overseas/LiteOS_Lab/iot_link/os/liteos/base/core\los_task.c ****     {
 918:C:/Users/dtjld/Desktop/AIoT_software/LiteOS_Lab_overseas/LiteOS_Lab/iot_link/os/liteos/base/core\los_task.c ****         return LOS_ERRNO_TSK_PTR_NULL;
 2497              		.loc 2 918 0
 2498 0014 304B     		ldr	r3, .L147
 2499 0016 5BE0     		b	.L146
 2500              	.L142:
 919:C:/Users/dtjld/Desktop/AIoT_software/LiteOS_Lab_overseas/LiteOS_Lab/iot_link/os/liteos/base/core\los_task.c ****     }
 920:C:/Users/dtjld/Desktop/AIoT_software/LiteOS_Lab_overseas/LiteOS_Lab/iot_link/os/liteos/base/core\los_task.c **** 
 921:C:/Users/dtjld/Desktop/AIoT_software/LiteOS_Lab_overseas/LiteOS_Lab/iot_link/os/liteos/base/core\los_task.c ****     stInitParam = *pstInitParam;
 2501              		.loc 2 921 0
 2502 0018 3B68     		ldr	r3, [r7]
 2503 001a 07F10C04 		add	r4, r7, #12
 2504 001e 1D46     		mov	r5, r3
 2505 0020 0FCD     		ldmia	r5!, {r0, r1, r2, r3}
 2506 0022 0FC4     		stmia	r4!, {r0, r1, r2, r3}
 2507 0024 95E80300 		ldm	r5, {r0, r1}
 2508 0028 84E80300 		stm	r4, {r0, r1}
 922:C:/Users/dtjld/Desktop/AIoT_software/LiteOS_Lab_overseas/LiteOS_Lab/iot_link/os/liteos/base/core\los_task.c **** 
 923:C:/Users/dtjld/Desktop/AIoT_software/LiteOS_Lab_overseas/LiteOS_Lab/iot_link/os/liteos/base/core\los_task.c ****     uwRet = LOS_TaskCreateOnly(puwTaskID, &stInitParam);
 2509              		.loc 2 923 0
 2510 002c 07F10C03 		add	r3, r7, #12
 2511 0030 1946     		mov	r1, r3
 2512 0032 7868     		ldr	r0, [r7, #4]
 2513 0034 FFF7FEFF 		bl	LOS_TaskCreateOnly
 2514 0038 F862     		str	r0, [r7, #44]
 924:C:/Users/dtjld/Desktop/AIoT_software/LiteOS_Lab_overseas/LiteOS_Lab/iot_link/os/liteos/base/core\los_task.c ****     if (LOS_OK != uwRet)
 2515              		.loc 2 924 0
 2516 003a FB6A     		ldr	r3, [r7, #44]
 2517 003c 002B     		cmp	r3, #0
 2518 003e 01D0     		beq	.L144
 925:C:/Users/dtjld/Desktop/AIoT_software/LiteOS_Lab_overseas/LiteOS_Lab/iot_link/os/liteos/base/core\los_task.c ****     {
 926:C:/Users/dtjld/Desktop/AIoT_software/LiteOS_Lab_overseas/LiteOS_Lab/iot_link/os/liteos/base/core\los_task.c ****         return uwRet;
 2519              		.loc 2 926 0
 2520 0040 FB6A     		ldr	r3, [r7, #44]
 2521 0042 45E0     		b	.L146
 2522              	.L144:
 927:C:/Users/dtjld/Desktop/AIoT_software/LiteOS_Lab_overseas/LiteOS_Lab/iot_link/os/liteos/base/core\los_task.c ****     }
 928:C:/Users/dtjld/Desktop/AIoT_software/LiteOS_Lab_overseas/LiteOS_Lab/iot_link/os/liteos/base/core\los_task.c ****     pstTaskCB = OS_TCB_FROM_TID(*puwTaskID);
 2523              		.loc 2 928 0
 2524 0044 254B     		ldr	r3, .L147+4
 2525 0046 1A68     		ldr	r2, [r3]
ARM GAS  C:\Users\dtjld\AppData\Local\Temp\ccU8krAq.s 			page 66


 2526 0048 7B68     		ldr	r3, [r7, #4]
 2527 004a 1B68     		ldr	r3, [r3]
 2528 004c 5421     		movs	r1, #84
 2529 004e 01FB03F3 		mul	r3, r1, r3
 2530 0052 1344     		add	r3, r3, r2
 2531 0054 BB62     		str	r3, [r7, #40]
 929:C:/Users/dtjld/Desktop/AIoT_software/LiteOS_Lab_overseas/LiteOS_Lab/iot_link/os/liteos/base/core\los_task.c **** 
 930:C:/Users/dtjld/Desktop/AIoT_software/LiteOS_Lab_overseas/LiteOS_Lab/iot_link/os/liteos/base/core\los_task.c ****     uvIntSave = LOS_IntLock();
 2532              		.loc 2 930 0
 2533 0056 FFF7FEFF 		bl	LOS_IntLock
 2534 005a 7862     		str	r0, [r7, #36]
 931:C:/Users/dtjld/Desktop/AIoT_software/LiteOS_Lab_overseas/LiteOS_Lab/iot_link/os/liteos/base/core\los_task.c ****     pstTaskCB->usTaskStatus &= (~OS_TASK_STATUS_SUSPEND);
 2535              		.loc 2 931 0
 2536 005c BB6A     		ldr	r3, [r7, #40]
 2537 005e 9B88     		ldrh	r3, [r3, #4]
 2538 0060 23F00203 		bic	r3, r3, #2
 2539 0064 9AB2     		uxth	r2, r3
 2540 0066 BB6A     		ldr	r3, [r7, #40]
 2541 0068 9A80     		strh	r2, [r3, #4]	@ movhi
 932:C:/Users/dtjld/Desktop/AIoT_software/LiteOS_Lab_overseas/LiteOS_Lab/iot_link/os/liteos/base/core\los_task.c ****     pstTaskCB->usTaskStatus |= OS_TASK_STATUS_READY;
 2542              		.loc 2 932 0
 2543 006a BB6A     		ldr	r3, [r7, #40]
 2544 006c 9B88     		ldrh	r3, [r3, #4]
 2545 006e 43F00403 		orr	r3, r3, #4
 2546 0072 9AB2     		uxth	r2, r3
 2547 0074 BB6A     		ldr	r3, [r7, #40]
 2548 0076 9A80     		strh	r2, [r3, #4]	@ movhi
 933:C:/Users/dtjld/Desktop/AIoT_software/LiteOS_Lab_overseas/LiteOS_Lab/iot_link/os/liteos/base/core\los_task.c **** 
 934:C:/Users/dtjld/Desktop/AIoT_software/LiteOS_Lab_overseas/LiteOS_Lab/iot_link/os/liteos/base/core\los_task.c **** #if (LOSCFG_BASE_CORE_CPUP == YES)
 935:C:/Users/dtjld/Desktop/AIoT_software/LiteOS_Lab_overseas/LiteOS_Lab/iot_link/os/liteos/base/core\los_task.c ****     g_pstCpup[pstTaskCB->uwTaskID].uwID = pstTaskCB->uwTaskID;
 936:C:/Users/dtjld/Desktop/AIoT_software/LiteOS_Lab_overseas/LiteOS_Lab/iot_link/os/liteos/base/core\los_task.c ****     g_pstCpup[pstTaskCB->uwTaskID].usStatus = pstTaskCB->usTaskStatus;
 937:C:/Users/dtjld/Desktop/AIoT_software/LiteOS_Lab_overseas/LiteOS_Lab/iot_link/os/liteos/base/core\los_task.c **** #endif
 938:C:/Users/dtjld/Desktop/AIoT_software/LiteOS_Lab_overseas/LiteOS_Lab/iot_link/os/liteos/base/core\los_task.c **** 
 939:C:/Users/dtjld/Desktop/AIoT_software/LiteOS_Lab_overseas/LiteOS_Lab/iot_link/os/liteos/base/core\los_task.c ****     osPriqueueEnqueue(&pstTaskCB->stPendList, pstTaskCB->usPriority);
 2549              		.loc 2 939 0
 2550 0078 BB6A     		ldr	r3, [r7, #40]
 2551 007a 03F12802 		add	r2, r3, #40
 2552 007e BB6A     		ldr	r3, [r7, #40]
 2553 0080 DB88     		ldrh	r3, [r3, #6]
 2554 0082 1946     		mov	r1, r3
 2555 0084 1046     		mov	r0, r2
 2556 0086 FFF7FEFF 		bl	osPriqueueEnqueue
 940:C:/Users/dtjld/Desktop/AIoT_software/LiteOS_Lab_overseas/LiteOS_Lab/iot_link/os/liteos/base/core\los_task.c ****     g_stLosTask.pstNewTask = LOS_DL_LIST_ENTRY(osPriqueueTop(), LOS_TASK_CB, stPendList); /*lint !e
 2557              		.loc 2 940 0
 2558 008a FFF7FEFF 		bl	osPriqueueTop
 2559 008e 0346     		mov	r3, r0
 2560 0090 283B     		subs	r3, r3, #40
 2561 0092 134A     		ldr	r2, .L147+8
 2562 0094 5360     		str	r3, [r2, #4]
 941:C:/Users/dtjld/Desktop/AIoT_software/LiteOS_Lab_overseas/LiteOS_Lab/iot_link/os/liteos/base/core\los_task.c **** 
 942:C:/Users/dtjld/Desktop/AIoT_software/LiteOS_Lab_overseas/LiteOS_Lab/iot_link/os/liteos/base/core\los_task.c ****     if ((g_bTaskScheduled) && (g_usLosTaskLock == 0))
 2563              		.loc 2 942 0
 2564 0096 134B     		ldr	r3, .L147+12
 2565 0098 1B68     		ldr	r3, [r3]
 2566 009a 002B     		cmp	r3, #0
 2567 009c 14D0     		beq	.L145
 2568              		.loc 2 942 0 is_stmt 0 discriminator 1
ARM GAS  C:\Users\dtjld\AppData\Local\Temp\ccU8krAq.s 			page 67


 2569 009e 124B     		ldr	r3, .L147+16
 2570 00a0 1B88     		ldrh	r3, [r3]
 2571 00a2 002B     		cmp	r3, #0
 2572 00a4 10D1     		bne	.L145
 943:C:/Users/dtjld/Desktop/AIoT_software/LiteOS_Lab_overseas/LiteOS_Lab/iot_link/os/liteos/base/core\los_task.c ****     {
 944:C:/Users/dtjld/Desktop/AIoT_software/LiteOS_Lab_overseas/LiteOS_Lab/iot_link/os/liteos/base/core\los_task.c ****         if (g_stLosTask.pstRunTask != g_stLosTask.pstNewTask)
 2573              		.loc 2 944 0 is_stmt 1
 2574 00a6 0E4B     		ldr	r3, .L147+8
 2575 00a8 1A68     		ldr	r2, [r3]
 2576 00aa 0D4B     		ldr	r3, .L147+8
 2577 00ac 5B68     		ldr	r3, [r3, #4]
 2578 00ae 9A42     		cmp	r2, r3
 2579 00b0 0AD0     		beq	.L145
 945:C:/Users/dtjld/Desktop/AIoT_software/LiteOS_Lab_overseas/LiteOS_Lab/iot_link/os/liteos/base/core\los_task.c ****         {
 946:C:/Users/dtjld/Desktop/AIoT_software/LiteOS_Lab_overseas/LiteOS_Lab/iot_link/os/liteos/base/core\los_task.c ****             if (LOS_CHECK_SCHEDULE)
 2580              		.loc 2 946 0
 2581 00b2 0D4B     		ldr	r3, .L147+16
 2582 00b4 1B88     		ldrh	r3, [r3]
 2583 00b6 002B     		cmp	r3, #0
 2584 00b8 06D1     		bne	.L145
 947:C:/Users/dtjld/Desktop/AIoT_software/LiteOS_Lab_overseas/LiteOS_Lab/iot_link/os/liteos/base/core\los_task.c ****             {
 948:C:/Users/dtjld/Desktop/AIoT_software/LiteOS_Lab_overseas/LiteOS_Lab/iot_link/os/liteos/base/core\los_task.c ****                 (VOID)LOS_IntRestore(uvIntSave);
 2585              		.loc 2 948 0
 2586 00ba 786A     		ldr	r0, [r7, #36]
 2587 00bc FFF7FEFF 		bl	LOS_IntRestore
 949:C:/Users/dtjld/Desktop/AIoT_software/LiteOS_Lab_overseas/LiteOS_Lab/iot_link/os/liteos/base/core\los_task.c ****                 osSchedule();
 2588              		.loc 2 949 0
 2589 00c0 FFF7FEFF 		bl	osSchedule
 950:C:/Users/dtjld/Desktop/AIoT_software/LiteOS_Lab_overseas/LiteOS_Lab/iot_link/os/liteos/base/core\los_task.c ****                 return LOS_OK;
 2590              		.loc 2 950 0
 2591 00c4 0023     		movs	r3, #0
 2592 00c6 03E0     		b	.L146
 2593              	.L145:
 951:C:/Users/dtjld/Desktop/AIoT_software/LiteOS_Lab_overseas/LiteOS_Lab/iot_link/os/liteos/base/core\los_task.c ****             }
 952:C:/Users/dtjld/Desktop/AIoT_software/LiteOS_Lab_overseas/LiteOS_Lab/iot_link/os/liteos/base/core\los_task.c ****         }
 953:C:/Users/dtjld/Desktop/AIoT_software/LiteOS_Lab_overseas/LiteOS_Lab/iot_link/os/liteos/base/core\los_task.c ****     }
 954:C:/Users/dtjld/Desktop/AIoT_software/LiteOS_Lab_overseas/LiteOS_Lab/iot_link/os/liteos/base/core\los_task.c **** 
 955:C:/Users/dtjld/Desktop/AIoT_software/LiteOS_Lab_overseas/LiteOS_Lab/iot_link/os/liteos/base/core\los_task.c ****     (VOID)LOS_IntRestore(uvIntSave);
 2594              		.loc 2 955 0
 2595 00c8 786A     		ldr	r0, [r7, #36]
 2596 00ca FFF7FEFF 		bl	LOS_IntRestore
 956:C:/Users/dtjld/Desktop/AIoT_software/LiteOS_Lab_overseas/LiteOS_Lab/iot_link/os/liteos/base/core\los_task.c ****     return LOS_OK;
 2597              		.loc 2 956 0
 2598 00ce 0023     		movs	r3, #0
 2599              	.L146:
 957:C:/Users/dtjld/Desktop/AIoT_software/LiteOS_Lab_overseas/LiteOS_Lab/iot_link/os/liteos/base/core\los_task.c **** }
 2600              		.loc 2 957 0 discriminator 1
 2601 00d0 1846     		mov	r0, r3
 2602 00d2 3037     		adds	r7, r7, #48
 2603              	.LCFI108:
 2604              		.cfi_def_cfa_offset 16
 2605 00d4 BD46     		mov	sp, r7
 2606              	.LCFI109:
 2607              		.cfi_def_cfa_register 13
 2608              		@ sp needed
 2609 00d6 B0BD     		pop	{r4, r5, r7, pc}
 2610              	.L148:
ARM GAS  C:\Users\dtjld\AppData\Local\Temp\ccU8krAq.s 			page 68


 2611              		.align	2
 2612              	.L147:
 2613 00d8 01020002 		.word	33554945
 2614 00dc 00000000 		.word	g_pstTaskCBArray
 2615 00e0 00000000 		.word	g_stLosTask
 2616 00e4 00000000 		.word	g_bTaskScheduled
 2617 00e8 00000000 		.word	g_usLosTaskLock
 2618              		.cfi_endproc
 2619              	.LFE147:
 2621              		.section	.text.LOS_TaskResume,"ax",%progbits
 2622              		.align	1
 2623              		.global	LOS_TaskResume
 2624              		.syntax unified
 2625              		.thumb
 2626              		.thumb_func
 2627              		.fpu fpv4-sp-d16
 2629              	LOS_TaskResume:
 2630              	.LFB148:
 958:C:/Users/dtjld/Desktop/AIoT_software/LiteOS_Lab_overseas/LiteOS_Lab/iot_link/os/liteos/base/core\los_task.c **** #endif
 959:C:/Users/dtjld/Desktop/AIoT_software/LiteOS_Lab_overseas/LiteOS_Lab/iot_link/os/liteos/base/core\los_task.c **** 
 960:C:/Users/dtjld/Desktop/AIoT_software/LiteOS_Lab_overseas/LiteOS_Lab/iot_link/os/liteos/base/core\los_task.c **** /*****************************************************************************
 961:C:/Users/dtjld/Desktop/AIoT_software/LiteOS_Lab_overseas/LiteOS_Lab/iot_link/os/liteos/base/core\los_task.c ****  Function : LOS_TaskResume
 962:C:/Users/dtjld/Desktop/AIoT_software/LiteOS_Lab_overseas/LiteOS_Lab/iot_link/os/liteos/base/core\los_task.c ****  Description : Resume suspend task
 963:C:/Users/dtjld/Desktop/AIoT_software/LiteOS_Lab_overseas/LiteOS_Lab/iot_link/os/liteos/base/core\los_task.c ****  Input       : uwTaskID --- Task ID
 964:C:/Users/dtjld/Desktop/AIoT_software/LiteOS_Lab_overseas/LiteOS_Lab/iot_link/os/liteos/base/core\los_task.c ****  Output      : None
 965:C:/Users/dtjld/Desktop/AIoT_software/LiteOS_Lab_overseas/LiteOS_Lab/iot_link/os/liteos/base/core\los_task.c ****  Return      : LOS_OK on success or error code on failure
 966:C:/Users/dtjld/Desktop/AIoT_software/LiteOS_Lab_overseas/LiteOS_Lab/iot_link/os/liteos/base/core\los_task.c ****  *****************************************************************************/
 967:C:/Users/dtjld/Desktop/AIoT_software/LiteOS_Lab_overseas/LiteOS_Lab/iot_link/os/liteos/base/core\los_task.c **** LITE_OS_SEC_TEXT_INIT UINT32 LOS_TaskResume(UINT32 uwTaskID)
 968:C:/Users/dtjld/Desktop/AIoT_software/LiteOS_Lab_overseas/LiteOS_Lab/iot_link/os/liteos/base/core\los_task.c **** {
 2631              		.loc 2 968 0
 2632              		.cfi_startproc
 2633              		@ args = 0, pretend = 0, frame = 24
 2634              		@ frame_needed = 1, uses_anonymous_args = 0
 2635 0000 80B5     		push	{r7, lr}
 2636              	.LCFI110:
 2637              		.cfi_def_cfa_offset 8
 2638              		.cfi_offset 7, -8
 2639              		.cfi_offset 14, -4
 2640 0002 86B0     		sub	sp, sp, #24
 2641              	.LCFI111:
 2642              		.cfi_def_cfa_offset 32
 2643 0004 00AF     		add	r7, sp, #0
 2644              	.LCFI112:
 2645              		.cfi_def_cfa_register 7
 2646 0006 7860     		str	r0, [r7, #4]
 969:C:/Users/dtjld/Desktop/AIoT_software/LiteOS_Lab_overseas/LiteOS_Lab/iot_link/os/liteos/base/core\los_task.c ****     UINTPTR uvIntSave;
 970:C:/Users/dtjld/Desktop/AIoT_software/LiteOS_Lab_overseas/LiteOS_Lab/iot_link/os/liteos/base/core\los_task.c ****     LOS_TASK_CB *pstTaskCB;
 971:C:/Users/dtjld/Desktop/AIoT_software/LiteOS_Lab_overseas/LiteOS_Lab/iot_link/os/liteos/base/core\los_task.c ****     UINT16 usTempStatus;
 972:C:/Users/dtjld/Desktop/AIoT_software/LiteOS_Lab_overseas/LiteOS_Lab/iot_link/os/liteos/base/core\los_task.c ****     UINT32 uwErrRet = OS_ERROR;
 2647              		.loc 2 972 0
 2648 0008 4FF0FF33 		mov	r3, #-1
 2649 000c 7B61     		str	r3, [r7, #20]
 973:C:/Users/dtjld/Desktop/AIoT_software/LiteOS_Lab_overseas/LiteOS_Lab/iot_link/os/liteos/base/core\los_task.c **** 
 974:C:/Users/dtjld/Desktop/AIoT_software/LiteOS_Lab_overseas/LiteOS_Lab/iot_link/os/liteos/base/core\los_task.c ****     if (uwTaskID > LOSCFG_BASE_CORE_TSK_LIMIT)
 2650              		.loc 2 974 0
 2651 000e 7B68     		ldr	r3, [r7, #4]
 2652 0010 0F2B     		cmp	r3, #15
ARM GAS  C:\Users\dtjld\AppData\Local\Temp\ccU8krAq.s 			page 69


 2653 0012 01D9     		bls	.L150
 975:C:/Users/dtjld/Desktop/AIoT_software/LiteOS_Lab_overseas/LiteOS_Lab/iot_link/os/liteos/base/core\los_task.c ****     {
 976:C:/Users/dtjld/Desktop/AIoT_software/LiteOS_Lab_overseas/LiteOS_Lab/iot_link/os/liteos/base/core\los_task.c ****         return LOS_ERRNO_TSK_ID_INVALID;
 2654              		.loc 2 976 0
 2655 0014 2F4B     		ldr	r3, .L157
 2656 0016 58E0     		b	.L151
 2657              	.L150:
 977:C:/Users/dtjld/Desktop/AIoT_software/LiteOS_Lab_overseas/LiteOS_Lab/iot_link/os/liteos/base/core\los_task.c ****     }
 978:C:/Users/dtjld/Desktop/AIoT_software/LiteOS_Lab_overseas/LiteOS_Lab/iot_link/os/liteos/base/core\los_task.c **** 
 979:C:/Users/dtjld/Desktop/AIoT_software/LiteOS_Lab_overseas/LiteOS_Lab/iot_link/os/liteos/base/core\los_task.c ****     pstTaskCB = OS_TCB_FROM_TID(uwTaskID);
 2658              		.loc 2 979 0
 2659 0018 2F4B     		ldr	r3, .L157+4
 2660 001a 1A68     		ldr	r2, [r3]
 2661 001c 7B68     		ldr	r3, [r7, #4]
 2662 001e 5421     		movs	r1, #84
 2663 0020 01FB03F3 		mul	r3, r1, r3
 2664 0024 1344     		add	r3, r3, r2
 2665 0026 3B61     		str	r3, [r7, #16]
 980:C:/Users/dtjld/Desktop/AIoT_software/LiteOS_Lab_overseas/LiteOS_Lab/iot_link/os/liteos/base/core\los_task.c ****     uvIntSave = LOS_IntLock();
 2666              		.loc 2 980 0
 2667 0028 FFF7FEFF 		bl	LOS_IntLock
 2668 002c F860     		str	r0, [r7, #12]
 981:C:/Users/dtjld/Desktop/AIoT_software/LiteOS_Lab_overseas/LiteOS_Lab/iot_link/os/liteos/base/core\los_task.c ****     usTempStatus = pstTaskCB->usTaskStatus;
 2669              		.loc 2 981 0
 2670 002e 3B69     		ldr	r3, [r7, #16]
 2671 0030 9B88     		ldrh	r3, [r3, #4]	@ movhi
 2672 0032 7B81     		strh	r3, [r7, #10]	@ movhi
 982:C:/Users/dtjld/Desktop/AIoT_software/LiteOS_Lab_overseas/LiteOS_Lab/iot_link/os/liteos/base/core\los_task.c **** 
 983:C:/Users/dtjld/Desktop/AIoT_software/LiteOS_Lab_overseas/LiteOS_Lab/iot_link/os/liteos/base/core\los_task.c ****     if (OS_TASK_STATUS_UNUSED & usTempStatus)
 2673              		.loc 2 983 0
 2674 0034 7B89     		ldrh	r3, [r7, #10]	@ movhi
 2675 0036 03F00103 		and	r3, r3, #1
 2676 003a 9BB2     		uxth	r3, r3
 2677 003c 002B     		cmp	r3, #0
 2678 003e 02D0     		beq	.L152
 984:C:/Users/dtjld/Desktop/AIoT_software/LiteOS_Lab_overseas/LiteOS_Lab/iot_link/os/liteos/base/core\los_task.c ****     {
 985:C:/Users/dtjld/Desktop/AIoT_software/LiteOS_Lab_overseas/LiteOS_Lab/iot_link/os/liteos/base/core\los_task.c ****         uwErrRet = LOS_ERRNO_TSK_NOT_CREATED;
 2679              		.loc 2 985 0
 2680 0040 264B     		ldr	r3, .L157+8
 2681 0042 7B61     		str	r3, [r7, #20]
 986:C:/Users/dtjld/Desktop/AIoT_software/LiteOS_Lab_overseas/LiteOS_Lab/iot_link/os/liteos/base/core\los_task.c ****         OS_GOTO_ERREND();
 2682              		.loc 2 986 0
 2683 0044 3DE0     		b	.L153
 2684              	.L152:
 987:C:/Users/dtjld/Desktop/AIoT_software/LiteOS_Lab_overseas/LiteOS_Lab/iot_link/os/liteos/base/core\los_task.c ****     }
 988:C:/Users/dtjld/Desktop/AIoT_software/LiteOS_Lab_overseas/LiteOS_Lab/iot_link/os/liteos/base/core\los_task.c ****     else if (!(OS_TASK_STATUS_SUSPEND & usTempStatus))
 2685              		.loc 2 988 0
 2686 0046 7B89     		ldrh	r3, [r7, #10]	@ movhi
 2687 0048 03F00203 		and	r3, r3, #2
 2688 004c 9BB2     		uxth	r3, r3
 2689 004e 002B     		cmp	r3, #0
 2690 0050 02D1     		bne	.L154
 989:C:/Users/dtjld/Desktop/AIoT_software/LiteOS_Lab_overseas/LiteOS_Lab/iot_link/os/liteos/base/core\los_task.c ****     {
 990:C:/Users/dtjld/Desktop/AIoT_software/LiteOS_Lab_overseas/LiteOS_Lab/iot_link/os/liteos/base/core\los_task.c ****         uwErrRet = LOS_ERRNO_TSK_NOT_SUSPENDED;
 2691              		.loc 2 990 0
 2692 0052 234B     		ldr	r3, .L157+12
 2693 0054 7B61     		str	r3, [r7, #20]
ARM GAS  C:\Users\dtjld\AppData\Local\Temp\ccU8krAq.s 			page 70


 991:C:/Users/dtjld/Desktop/AIoT_software/LiteOS_Lab_overseas/LiteOS_Lab/iot_link/os/liteos/base/core\los_task.c ****         OS_GOTO_ERREND();
 2694              		.loc 2 991 0
 2695 0056 34E0     		b	.L153
 2696              	.L154:
 992:C:/Users/dtjld/Desktop/AIoT_software/LiteOS_Lab_overseas/LiteOS_Lab/iot_link/os/liteos/base/core\los_task.c ****     }
 993:C:/Users/dtjld/Desktop/AIoT_software/LiteOS_Lab_overseas/LiteOS_Lab/iot_link/os/liteos/base/core\los_task.c **** 
 994:C:/Users/dtjld/Desktop/AIoT_software/LiteOS_Lab_overseas/LiteOS_Lab/iot_link/os/liteos/base/core\los_task.c ****     pstTaskCB->usTaskStatus &= (~OS_TASK_STATUS_SUSPEND);
 2697              		.loc 2 994 0
 2698 0058 3B69     		ldr	r3, [r7, #16]
 2699 005a 9B88     		ldrh	r3, [r3, #4]
 2700 005c 23F00203 		bic	r3, r3, #2
 2701 0060 9AB2     		uxth	r2, r3
 2702 0062 3B69     		ldr	r3, [r7, #16]
 2703 0064 9A80     		strh	r2, [r3, #4]	@ movhi
 995:C:/Users/dtjld/Desktop/AIoT_software/LiteOS_Lab_overseas/LiteOS_Lab/iot_link/os/liteos/base/core\los_task.c ****     if (!(OS_CHECK_TASK_BLOCK & pstTaskCB->usTaskStatus) )
 2704              		.loc 2 995 0
 2705 0066 3B69     		ldr	r3, [r7, #16]
 2706 0068 9A88     		ldrh	r2, [r3, #4]
 2707 006a 42F22A43 		movw	r3, #9258
 2708 006e 1340     		ands	r3, r3, r2
 2709 0070 9BB2     		uxth	r3, r3
 2710 0072 002B     		cmp	r3, #0
 2711 0074 20D1     		bne	.L155
 996:C:/Users/dtjld/Desktop/AIoT_software/LiteOS_Lab_overseas/LiteOS_Lab/iot_link/os/liteos/base/core\los_task.c ****     {
 997:C:/Users/dtjld/Desktop/AIoT_software/LiteOS_Lab_overseas/LiteOS_Lab/iot_link/os/liteos/base/core\los_task.c ****         pstTaskCB->usTaskStatus |= OS_TASK_STATUS_READY;
 2712              		.loc 2 997 0
 2713 0076 3B69     		ldr	r3, [r7, #16]
 2714 0078 9B88     		ldrh	r3, [r3, #4]
 2715 007a 43F00403 		orr	r3, r3, #4
 2716 007e 9AB2     		uxth	r2, r3
 2717 0080 3B69     		ldr	r3, [r7, #16]
 2718 0082 9A80     		strh	r2, [r3, #4]	@ movhi
 998:C:/Users/dtjld/Desktop/AIoT_software/LiteOS_Lab_overseas/LiteOS_Lab/iot_link/os/liteos/base/core\los_task.c ****         osPriqueueEnqueue(&pstTaskCB->stPendList, pstTaskCB->usPriority);
 2719              		.loc 2 998 0
 2720 0084 3B69     		ldr	r3, [r7, #16]
 2721 0086 03F12802 		add	r2, r3, #40
 2722 008a 3B69     		ldr	r3, [r7, #16]
 2723 008c DB88     		ldrh	r3, [r3, #6]
 2724 008e 1946     		mov	r1, r3
 2725 0090 1046     		mov	r0, r2
 2726 0092 FFF7FEFF 		bl	osPriqueueEnqueue
 999:C:/Users/dtjld/Desktop/AIoT_software/LiteOS_Lab_overseas/LiteOS_Lab/iot_link/os/liteos/base/core\los_task.c ****         if (g_bTaskScheduled)
 2727              		.loc 2 999 0
 2728 0096 134B     		ldr	r3, .L157+16
 2729 0098 1B68     		ldr	r3, [r3]
 2730 009a 002B     		cmp	r3, #0
 2731 009c 06D0     		beq	.L156
1000:C:/Users/dtjld/Desktop/AIoT_software/LiteOS_Lab_overseas/LiteOS_Lab/iot_link/os/liteos/base/core\los_task.c ****         {
1001:C:/Users/dtjld/Desktop/AIoT_software/LiteOS_Lab_overseas/LiteOS_Lab/iot_link/os/liteos/base/core\los_task.c ****             (VOID)LOS_IntRestore(uvIntSave);
 2732              		.loc 2 1001 0
 2733 009e F868     		ldr	r0, [r7, #12]
 2734 00a0 FFF7FEFF 		bl	LOS_IntRestore
1002:C:/Users/dtjld/Desktop/AIoT_software/LiteOS_Lab_overseas/LiteOS_Lab/iot_link/os/liteos/base/core\los_task.c ****             LOS_Schedule();
 2735              		.loc 2 1002 0
 2736 00a4 FFF7FEFF 		bl	LOS_Schedule
1003:C:/Users/dtjld/Desktop/AIoT_software/LiteOS_Lab_overseas/LiteOS_Lab/iot_link/os/liteos/base/core\los_task.c ****             return LOS_OK;
 2737              		.loc 2 1003 0
ARM GAS  C:\Users\dtjld\AppData\Local\Temp\ccU8krAq.s 			page 71


 2738 00a8 0023     		movs	r3, #0
 2739 00aa 0EE0     		b	.L151
 2740              	.L156:
1004:C:/Users/dtjld/Desktop/AIoT_software/LiteOS_Lab_overseas/LiteOS_Lab/iot_link/os/liteos/base/core\los_task.c ****         }
1005:C:/Users/dtjld/Desktop/AIoT_software/LiteOS_Lab_overseas/LiteOS_Lab/iot_link/os/liteos/base/core\los_task.c ****         g_stLosTask.pstNewTask = LOS_DL_LIST_ENTRY(osPriqueueTop(), LOS_TASK_CB, stPendList); /*lin
 2741              		.loc 2 1005 0
 2742 00ac FFF7FEFF 		bl	osPriqueueTop
 2743 00b0 0346     		mov	r3, r0
 2744 00b2 283B     		subs	r3, r3, #40
 2745 00b4 0C4A     		ldr	r2, .L157+20
 2746 00b6 5360     		str	r3, [r2, #4]
 2747              	.L155:
1006:C:/Users/dtjld/Desktop/AIoT_software/LiteOS_Lab_overseas/LiteOS_Lab/iot_link/os/liteos/base/core\los_task.c ****     }
1007:C:/Users/dtjld/Desktop/AIoT_software/LiteOS_Lab_overseas/LiteOS_Lab/iot_link/os/liteos/base/core\los_task.c **** 
1008:C:/Users/dtjld/Desktop/AIoT_software/LiteOS_Lab_overseas/LiteOS_Lab/iot_link/os/liteos/base/core\los_task.c ****     (VOID)LOS_IntRestore(uvIntSave);
 2748              		.loc 2 1008 0
 2749 00b8 F868     		ldr	r0, [r7, #12]
 2750 00ba FFF7FEFF 		bl	LOS_IntRestore
1009:C:/Users/dtjld/Desktop/AIoT_software/LiteOS_Lab_overseas/LiteOS_Lab/iot_link/os/liteos/base/core\los_task.c ****     return LOS_OK;
 2751              		.loc 2 1009 0
 2752 00be 0023     		movs	r3, #0
 2753 00c0 03E0     		b	.L151
 2754              	.L153:
1010:C:/Users/dtjld/Desktop/AIoT_software/LiteOS_Lab_overseas/LiteOS_Lab/iot_link/os/liteos/base/core\los_task.c **** 
1011:C:/Users/dtjld/Desktop/AIoT_software/LiteOS_Lab_overseas/LiteOS_Lab/iot_link/os/liteos/base/core\los_task.c **** LOS_ERREND:
1012:C:/Users/dtjld/Desktop/AIoT_software/LiteOS_Lab_overseas/LiteOS_Lab/iot_link/os/liteos/base/core\los_task.c ****     (VOID)LOS_IntRestore(uvIntSave);
 2755              		.loc 2 1012 0
 2756 00c2 F868     		ldr	r0, [r7, #12]
 2757 00c4 FFF7FEFF 		bl	LOS_IntRestore
1013:C:/Users/dtjld/Desktop/AIoT_software/LiteOS_Lab_overseas/LiteOS_Lab/iot_link/os/liteos/base/core\los_task.c ****     return uwErrRet;
 2758              		.loc 2 1013 0
 2759 00c8 7B69     		ldr	r3, [r7, #20]
 2760              	.L151:
1014:C:/Users/dtjld/Desktop/AIoT_software/LiteOS_Lab_overseas/LiteOS_Lab/iot_link/os/liteos/base/core\los_task.c **** }
 2761              		.loc 2 1014 0
 2762 00ca 1846     		mov	r0, r3
 2763 00cc 1837     		adds	r7, r7, #24
 2764              	.LCFI113:
 2765              		.cfi_def_cfa_offset 8
 2766 00ce BD46     		mov	sp, r7
 2767              	.LCFI114:
 2768              		.cfi_def_cfa_register 13
 2769              		@ sp needed
 2770 00d0 80BD     		pop	{r7, pc}
 2771              	.L158:
 2772 00d2 00BF     		.align	2
 2773              	.L157:
 2774 00d4 07020002 		.word	33554951
 2775 00d8 00000000 		.word	g_pstTaskCBArray
 2776 00dc 0A020002 		.word	33554954
 2777 00e0 09020002 		.word	33554953
 2778 00e4 00000000 		.word	g_bTaskScheduled
 2779 00e8 00000000 		.word	g_stLosTask
 2780              		.cfi_endproc
 2781              	.LFE148:
 2783              		.section	.text.LOS_TaskSuspend,"ax",%progbits
 2784              		.align	1
ARM GAS  C:\Users\dtjld\AppData\Local\Temp\ccU8krAq.s 			page 72


 2785              		.global	LOS_TaskSuspend
 2786              		.syntax unified
 2787              		.thumb
 2788              		.thumb_func
 2789              		.fpu fpv4-sp-d16
 2791              	LOS_TaskSuspend:
 2792              	.LFB149:
1015:C:/Users/dtjld/Desktop/AIoT_software/LiteOS_Lab_overseas/LiteOS_Lab/iot_link/os/liteos/base/core\los_task.c **** 
1016:C:/Users/dtjld/Desktop/AIoT_software/LiteOS_Lab_overseas/LiteOS_Lab/iot_link/os/liteos/base/core\los_task.c **** /*****************************************************************************
1017:C:/Users/dtjld/Desktop/AIoT_software/LiteOS_Lab_overseas/LiteOS_Lab/iot_link/os/liteos/base/core\los_task.c ****  Function : LOS_TaskSuspend
1018:C:/Users/dtjld/Desktop/AIoT_software/LiteOS_Lab_overseas/LiteOS_Lab/iot_link/os/liteos/base/core\los_task.c ****  Description : Suspend task
1019:C:/Users/dtjld/Desktop/AIoT_software/LiteOS_Lab_overseas/LiteOS_Lab/iot_link/os/liteos/base/core\los_task.c ****  Input       : uwTaskID --- Task ID
1020:C:/Users/dtjld/Desktop/AIoT_software/LiteOS_Lab_overseas/LiteOS_Lab/iot_link/os/liteos/base/core\los_task.c ****  Output      : None
1021:C:/Users/dtjld/Desktop/AIoT_software/LiteOS_Lab_overseas/LiteOS_Lab/iot_link/os/liteos/base/core\los_task.c ****  Return      : LOS_OK on success or error code on failure
1022:C:/Users/dtjld/Desktop/AIoT_software/LiteOS_Lab_overseas/LiteOS_Lab/iot_link/os/liteos/base/core\los_task.c ****  *****************************************************************************/
1023:C:/Users/dtjld/Desktop/AIoT_software/LiteOS_Lab_overseas/LiteOS_Lab/iot_link/os/liteos/base/core\los_task.c **** LITE_OS_SEC_TEXT_INIT UINT32 LOS_TaskSuspend(UINT32 uwTaskID)
1024:C:/Users/dtjld/Desktop/AIoT_software/LiteOS_Lab_overseas/LiteOS_Lab/iot_link/os/liteos/base/core\los_task.c **** {
 2793              		.loc 2 1024 0
 2794              		.cfi_startproc
 2795              		@ args = 0, pretend = 0, frame = 24
 2796              		@ frame_needed = 1, uses_anonymous_args = 0
 2797 0000 80B5     		push	{r7, lr}
 2798              	.LCFI115:
 2799              		.cfi_def_cfa_offset 8
 2800              		.cfi_offset 7, -8
 2801              		.cfi_offset 14, -4
 2802 0002 86B0     		sub	sp, sp, #24
 2803              	.LCFI116:
 2804              		.cfi_def_cfa_offset 32
 2805 0004 00AF     		add	r7, sp, #0
 2806              	.LCFI117:
 2807              		.cfi_def_cfa_register 7
 2808 0006 7860     		str	r0, [r7, #4]
1025:C:/Users/dtjld/Desktop/AIoT_software/LiteOS_Lab_overseas/LiteOS_Lab/iot_link/os/liteos/base/core\los_task.c ****     UINTPTR uvIntSave;
1026:C:/Users/dtjld/Desktop/AIoT_software/LiteOS_Lab_overseas/LiteOS_Lab/iot_link/os/liteos/base/core\los_task.c ****     LOS_TASK_CB *pstTaskCB;
1027:C:/Users/dtjld/Desktop/AIoT_software/LiteOS_Lab_overseas/LiteOS_Lab/iot_link/os/liteos/base/core\los_task.c ****     UINT16 usTempStatus;
1028:C:/Users/dtjld/Desktop/AIoT_software/LiteOS_Lab_overseas/LiteOS_Lab/iot_link/os/liteos/base/core\los_task.c ****     UINT32 uwErrRet = OS_ERROR;
 2809              		.loc 2 1028 0
 2810 0008 4FF0FF33 		mov	r3, #-1
 2811 000c 7B61     		str	r3, [r7, #20]
1029:C:/Users/dtjld/Desktop/AIoT_software/LiteOS_Lab_overseas/LiteOS_Lab/iot_link/os/liteos/base/core\los_task.c **** 
1030:C:/Users/dtjld/Desktop/AIoT_software/LiteOS_Lab_overseas/LiteOS_Lab/iot_link/os/liteos/base/core\los_task.c ****     CHECK_TASKID(uwTaskID);
 2812              		.loc 2 1030 0
 2813 000e 3A4B     		ldr	r3, .L170
 2814 0010 1B68     		ldr	r3, [r3]
 2815 0012 7A68     		ldr	r2, [r7, #4]
 2816 0014 9A42     		cmp	r2, r3
 2817 0016 01D1     		bne	.L160
 2818              		.loc 2 1030 0 is_stmt 0 discriminator 1
 2819 0018 384B     		ldr	r3, .L170+4
 2820 001a 69E0     		b	.L161
 2821              	.L160:
 2822              		.loc 2 1030 0 discriminator 2
 2823 001c 384B     		ldr	r3, .L170+8
 2824 001e 1B68     		ldr	r3, [r3]
 2825 0020 7A68     		ldr	r2, [r7, #4]
 2826 0022 9A42     		cmp	r2, r3
ARM GAS  C:\Users\dtjld\AppData\Local\Temp\ccU8krAq.s 			page 73


 2827 0024 01D1     		bne	.L162
 2828              		.loc 2 1030 0 discriminator 3
 2829 0026 374B     		ldr	r3, .L170+12
 2830 0028 62E0     		b	.L161
 2831              	.L162:
 2832              		.loc 2 1030 0 discriminator 4
 2833 002a 374B     		ldr	r3, .L170+16
 2834 002c 1B68     		ldr	r3, [r3]
 2835 002e 7A68     		ldr	r2, [r7, #4]
 2836 0030 9A42     		cmp	r2, r3
 2837 0032 01D3     		bcc	.L163
 2838              		.loc 2 1030 0 discriminator 5
 2839 0034 354B     		ldr	r3, .L170+20
 2840 0036 5BE0     		b	.L161
 2841              	.L163:
1031:C:/Users/dtjld/Desktop/AIoT_software/LiteOS_Lab_overseas/LiteOS_Lab/iot_link/os/liteos/base/core\los_task.c ****     pstTaskCB = OS_TCB_FROM_TID(uwTaskID);
 2842              		.loc 2 1031 0 is_stmt 1
 2843 0038 354B     		ldr	r3, .L170+24
 2844 003a 1A68     		ldr	r2, [r3]
 2845 003c 7B68     		ldr	r3, [r7, #4]
 2846 003e 5421     		movs	r1, #84
 2847 0040 01FB03F3 		mul	r3, r1, r3
 2848 0044 1344     		add	r3, r3, r2
 2849 0046 3B61     		str	r3, [r7, #16]
1032:C:/Users/dtjld/Desktop/AIoT_software/LiteOS_Lab_overseas/LiteOS_Lab/iot_link/os/liteos/base/core\los_task.c ****     uvIntSave = LOS_IntLock();
 2850              		.loc 2 1032 0
 2851 0048 FFF7FEFF 		bl	LOS_IntLock
 2852 004c F860     		str	r0, [r7, #12]
1033:C:/Users/dtjld/Desktop/AIoT_software/LiteOS_Lab_overseas/LiteOS_Lab/iot_link/os/liteos/base/core\los_task.c ****     usTempStatus = pstTaskCB->usTaskStatus;
 2853              		.loc 2 1033 0
 2854 004e 3B69     		ldr	r3, [r7, #16]
 2855 0050 9B88     		ldrh	r3, [r3, #4]	@ movhi
 2856 0052 7B81     		strh	r3, [r7, #10]	@ movhi
1034:C:/Users/dtjld/Desktop/AIoT_software/LiteOS_Lab_overseas/LiteOS_Lab/iot_link/os/liteos/base/core\los_task.c ****     if (OS_TASK_STATUS_UNUSED & usTempStatus)
 2857              		.loc 2 1034 0
 2858 0054 7B89     		ldrh	r3, [r7, #10]	@ movhi
 2859 0056 03F00103 		and	r3, r3, #1
 2860 005a 9BB2     		uxth	r3, r3
 2861 005c 002B     		cmp	r3, #0
 2862 005e 02D0     		beq	.L164
1035:C:/Users/dtjld/Desktop/AIoT_software/LiteOS_Lab_overseas/LiteOS_Lab/iot_link/os/liteos/base/core\los_task.c ****     {
1036:C:/Users/dtjld/Desktop/AIoT_software/LiteOS_Lab_overseas/LiteOS_Lab/iot_link/os/liteos/base/core\los_task.c ****         uwErrRet = LOS_ERRNO_TSK_NOT_CREATED;
 2863              		.loc 2 1036 0
 2864 0060 2C4B     		ldr	r3, .L170+28
 2865 0062 7B61     		str	r3, [r7, #20]
1037:C:/Users/dtjld/Desktop/AIoT_software/LiteOS_Lab_overseas/LiteOS_Lab/iot_link/os/liteos/base/core\los_task.c ****         OS_GOTO_ERREND();
 2866              		.loc 2 1037 0
 2867 0064 40E0     		b	.L165
 2868              	.L164:
1038:C:/Users/dtjld/Desktop/AIoT_software/LiteOS_Lab_overseas/LiteOS_Lab/iot_link/os/liteos/base/core\los_task.c ****     }
1039:C:/Users/dtjld/Desktop/AIoT_software/LiteOS_Lab_overseas/LiteOS_Lab/iot_link/os/liteos/base/core\los_task.c **** 
1040:C:/Users/dtjld/Desktop/AIoT_software/LiteOS_Lab_overseas/LiteOS_Lab/iot_link/os/liteos/base/core\los_task.c ****     if (OS_TASK_STATUS_SUSPEND & usTempStatus)
 2869              		.loc 2 1040 0
 2870 0066 7B89     		ldrh	r3, [r7, #10]	@ movhi
 2871 0068 03F00203 		and	r3, r3, #2
 2872 006c 9BB2     		uxth	r3, r3
 2873 006e 002B     		cmp	r3, #0
ARM GAS  C:\Users\dtjld\AppData\Local\Temp\ccU8krAq.s 			page 74


 2874 0070 02D0     		beq	.L166
1041:C:/Users/dtjld/Desktop/AIoT_software/LiteOS_Lab_overseas/LiteOS_Lab/iot_link/os/liteos/base/core\los_task.c ****     {
1042:C:/Users/dtjld/Desktop/AIoT_software/LiteOS_Lab_overseas/LiteOS_Lab/iot_link/os/liteos/base/core\los_task.c ****         uwErrRet = LOS_ERRNO_TSK_ALREADY_SUSPENDED;
 2875              		.loc 2 1042 0
 2876 0072 294B     		ldr	r3, .L170+32
 2877 0074 7B61     		str	r3, [r7, #20]
1043:C:/Users/dtjld/Desktop/AIoT_software/LiteOS_Lab_overseas/LiteOS_Lab/iot_link/os/liteos/base/core\los_task.c ****         OS_GOTO_ERREND();
 2878              		.loc 2 1043 0
 2879 0076 37E0     		b	.L165
 2880              	.L166:
1044:C:/Users/dtjld/Desktop/AIoT_software/LiteOS_Lab_overseas/LiteOS_Lab/iot_link/os/liteos/base/core\los_task.c ****     }
1045:C:/Users/dtjld/Desktop/AIoT_software/LiteOS_Lab_overseas/LiteOS_Lab/iot_link/os/liteos/base/core\los_task.c **** 
1046:C:/Users/dtjld/Desktop/AIoT_software/LiteOS_Lab_overseas/LiteOS_Lab/iot_link/os/liteos/base/core\los_task.c ****     if ((OS_TASK_STATUS_RUNNING & usTempStatus) && (g_usLosTaskLock != 0))
 2881              		.loc 2 1046 0
 2882 0078 7B89     		ldrh	r3, [r7, #10]	@ movhi
 2883 007a 03F01003 		and	r3, r3, #16
 2884 007e 9BB2     		uxth	r3, r3
 2885 0080 002B     		cmp	r3, #0
 2886 0082 06D0     		beq	.L167
 2887              		.loc 2 1046 0 is_stmt 0 discriminator 1
 2888 0084 254B     		ldr	r3, .L170+36
 2889 0086 1B88     		ldrh	r3, [r3]
 2890 0088 002B     		cmp	r3, #0
 2891 008a 02D0     		beq	.L167
1047:C:/Users/dtjld/Desktop/AIoT_software/LiteOS_Lab_overseas/LiteOS_Lab/iot_link/os/liteos/base/core\los_task.c ****     {
1048:C:/Users/dtjld/Desktop/AIoT_software/LiteOS_Lab_overseas/LiteOS_Lab/iot_link/os/liteos/base/core\los_task.c ****         uwErrRet = LOS_ERRNO_TSK_SUSPEND_LOCKED;
 2892              		.loc 2 1048 0 is_stmt 1
 2893 008c 244B     		ldr	r3, .L170+40
 2894 008e 7B61     		str	r3, [r7, #20]
1049:C:/Users/dtjld/Desktop/AIoT_software/LiteOS_Lab_overseas/LiteOS_Lab/iot_link/os/liteos/base/core\los_task.c ****         OS_GOTO_ERREND();
 2895              		.loc 2 1049 0
 2896 0090 2AE0     		b	.L165
 2897              	.L167:
1050:C:/Users/dtjld/Desktop/AIoT_software/LiteOS_Lab_overseas/LiteOS_Lab/iot_link/os/liteos/base/core\los_task.c ****     }
1051:C:/Users/dtjld/Desktop/AIoT_software/LiteOS_Lab_overseas/LiteOS_Lab/iot_link/os/liteos/base/core\los_task.c **** 
1052:C:/Users/dtjld/Desktop/AIoT_software/LiteOS_Lab_overseas/LiteOS_Lab/iot_link/os/liteos/base/core\los_task.c ****     if (OS_TASK_STATUS_READY & usTempStatus)
 2898              		.loc 2 1052 0
 2899 0092 7B89     		ldrh	r3, [r7, #10]	@ movhi
 2900 0094 03F00403 		and	r3, r3, #4
 2901 0098 9BB2     		uxth	r3, r3
 2902 009a 002B     		cmp	r3, #0
 2903 009c 0BD0     		beq	.L168
1053:C:/Users/dtjld/Desktop/AIoT_software/LiteOS_Lab_overseas/LiteOS_Lab/iot_link/os/liteos/base/core\los_task.c ****     {
1054:C:/Users/dtjld/Desktop/AIoT_software/LiteOS_Lab_overseas/LiteOS_Lab/iot_link/os/liteos/base/core\los_task.c ****         osPriqueueDequeue(&pstTaskCB->stPendList);
 2904              		.loc 2 1054 0
 2905 009e 3B69     		ldr	r3, [r7, #16]
 2906 00a0 2833     		adds	r3, r3, #40
 2907 00a2 1846     		mov	r0, r3
 2908 00a4 FFF7FEFF 		bl	osPriqueueDequeue
1055:C:/Users/dtjld/Desktop/AIoT_software/LiteOS_Lab_overseas/LiteOS_Lab/iot_link/os/liteos/base/core\los_task.c ****         pstTaskCB->usTaskStatus &= (~OS_TASK_STATUS_READY);
 2909              		.loc 2 1055 0
 2910 00a8 3B69     		ldr	r3, [r7, #16]
 2911 00aa 9B88     		ldrh	r3, [r3, #4]
 2912 00ac 23F00403 		bic	r3, r3, #4
 2913 00b0 9AB2     		uxth	r2, r3
 2914 00b2 3B69     		ldr	r3, [r7, #16]
 2915 00b4 9A80     		strh	r2, [r3, #4]	@ movhi
ARM GAS  C:\Users\dtjld\AppData\Local\Temp\ccU8krAq.s 			page 75


 2916              	.L168:
1056:C:/Users/dtjld/Desktop/AIoT_software/LiteOS_Lab_overseas/LiteOS_Lab/iot_link/os/liteos/base/core\los_task.c ****     }
1057:C:/Users/dtjld/Desktop/AIoT_software/LiteOS_Lab_overseas/LiteOS_Lab/iot_link/os/liteos/base/core\los_task.c **** 
1058:C:/Users/dtjld/Desktop/AIoT_software/LiteOS_Lab_overseas/LiteOS_Lab/iot_link/os/liteos/base/core\los_task.c ****     pstTaskCB->usTaskStatus |= OS_TASK_STATUS_SUSPEND;
 2917              		.loc 2 1058 0
 2918 00b6 3B69     		ldr	r3, [r7, #16]
 2919 00b8 9B88     		ldrh	r3, [r3, #4]
 2920 00ba 43F00203 		orr	r3, r3, #2
 2921 00be 9AB2     		uxth	r2, r3
 2922 00c0 3B69     		ldr	r3, [r7, #16]
 2923 00c2 9A80     		strh	r2, [r3, #4]	@ movhi
1059:C:/Users/dtjld/Desktop/AIoT_software/LiteOS_Lab_overseas/LiteOS_Lab/iot_link/os/liteos/base/core\los_task.c ****     if (uwTaskID == g_stLosTask.pstRunTask->uwTaskID)
 2924              		.loc 2 1059 0
 2925 00c4 174B     		ldr	r3, .L170+44
 2926 00c6 1B68     		ldr	r3, [r3]
 2927 00c8 1B69     		ldr	r3, [r3, #16]
 2928 00ca 7A68     		ldr	r2, [r7, #4]
 2929 00cc 9A42     		cmp	r2, r3
 2930 00ce 06D1     		bne	.L169
1060:C:/Users/dtjld/Desktop/AIoT_software/LiteOS_Lab_overseas/LiteOS_Lab/iot_link/os/liteos/base/core\los_task.c ****     {
1061:C:/Users/dtjld/Desktop/AIoT_software/LiteOS_Lab_overseas/LiteOS_Lab/iot_link/os/liteos/base/core\los_task.c ****         (VOID)LOS_IntRestore(uvIntSave);
 2931              		.loc 2 1061 0
 2932 00d0 F868     		ldr	r0, [r7, #12]
 2933 00d2 FFF7FEFF 		bl	LOS_IntRestore
1062:C:/Users/dtjld/Desktop/AIoT_software/LiteOS_Lab_overseas/LiteOS_Lab/iot_link/os/liteos/base/core\los_task.c ****         LOS_Schedule();
 2934              		.loc 2 1062 0
 2935 00d6 FFF7FEFF 		bl	LOS_Schedule
1063:C:/Users/dtjld/Desktop/AIoT_software/LiteOS_Lab_overseas/LiteOS_Lab/iot_link/os/liteos/base/core\los_task.c ****         return LOS_OK;
 2936              		.loc 2 1063 0
 2937 00da 0023     		movs	r3, #0
 2938 00dc 08E0     		b	.L161
 2939              	.L169:
1064:C:/Users/dtjld/Desktop/AIoT_software/LiteOS_Lab_overseas/LiteOS_Lab/iot_link/os/liteos/base/core\los_task.c ****     }
1065:C:/Users/dtjld/Desktop/AIoT_software/LiteOS_Lab_overseas/LiteOS_Lab/iot_link/os/liteos/base/core\los_task.c **** 
1066:C:/Users/dtjld/Desktop/AIoT_software/LiteOS_Lab_overseas/LiteOS_Lab/iot_link/os/liteos/base/core\los_task.c ****     (VOID)LOS_IntRestore(uvIntSave);
 2940              		.loc 2 1066 0
 2941 00de F868     		ldr	r0, [r7, #12]
 2942 00e0 FFF7FEFF 		bl	LOS_IntRestore
1067:C:/Users/dtjld/Desktop/AIoT_software/LiteOS_Lab_overseas/LiteOS_Lab/iot_link/os/liteos/base/core\los_task.c ****     return LOS_OK;
 2943              		.loc 2 1067 0
 2944 00e4 0023     		movs	r3, #0
 2945 00e6 03E0     		b	.L161
 2946              	.L165:
1068:C:/Users/dtjld/Desktop/AIoT_software/LiteOS_Lab_overseas/LiteOS_Lab/iot_link/os/liteos/base/core\los_task.c **** 
1069:C:/Users/dtjld/Desktop/AIoT_software/LiteOS_Lab_overseas/LiteOS_Lab/iot_link/os/liteos/base/core\los_task.c **** LOS_ERREND:
1070:C:/Users/dtjld/Desktop/AIoT_software/LiteOS_Lab_overseas/LiteOS_Lab/iot_link/os/liteos/base/core\los_task.c ****     (VOID)LOS_IntRestore(uvIntSave);
 2947              		.loc 2 1070 0
 2948 00e8 F868     		ldr	r0, [r7, #12]
 2949 00ea FFF7FEFF 		bl	LOS_IntRestore
1071:C:/Users/dtjld/Desktop/AIoT_software/LiteOS_Lab_overseas/LiteOS_Lab/iot_link/os/liteos/base/core\los_task.c ****     return uwErrRet;
 2950              		.loc 2 1071 0
 2951 00ee 7B69     		ldr	r3, [r7, #20]
 2952              	.L161:
1072:C:/Users/dtjld/Desktop/AIoT_software/LiteOS_Lab_overseas/LiteOS_Lab/iot_link/os/liteos/base/core\los_task.c **** }
 2953              		.loc 2 1072 0
 2954 00f0 1846     		mov	r0, r3
 2955 00f2 1837     		adds	r7, r7, #24
ARM GAS  C:\Users\dtjld\AppData\Local\Temp\ccU8krAq.s 			page 76


 2956              	.LCFI118:
 2957              		.cfi_def_cfa_offset 8
 2958 00f4 BD46     		mov	sp, r7
 2959              	.LCFI119:
 2960              		.cfi_def_cfa_register 13
 2961              		@ sp needed
 2962 00f6 80BD     		pop	{r7, pc}
 2963              	.L171:
 2964              		.align	2
 2965              	.L170:
 2966 00f8 00000000 		.word	g_uwIdleTaskID
 2967 00fc 14020002 		.word	33554964
 2968 0100 00000000 		.word	g_uwSwtmrTaskID
 2969 0104 21020002 		.word	33554977
 2970 0108 00000000 		.word	g_uwTskMaxNum
 2971 010c 07020002 		.word	33554951
 2972 0110 00000000 		.word	g_pstTaskCBArray
 2973 0114 0A020002 		.word	33554954
 2974 0118 08020002 		.word	33554952
 2975 011c 00000000 		.word	g_usLosTaskLock
 2976 0120 15020003 		.word	50332181
 2977 0124 00000000 		.word	g_stLosTask
 2978              		.cfi_endproc
 2979              	.LFE149:
 2981              		.section	.text.LOS_TaskDelete,"ax",%progbits
 2982              		.align	1
 2983              		.global	LOS_TaskDelete
 2984              		.syntax unified
 2985              		.thumb
 2986              		.thumb_func
 2987              		.fpu fpv4-sp-d16
 2989              	LOS_TaskDelete:
 2990              	.LFB150:
1073:C:/Users/dtjld/Desktop/AIoT_software/LiteOS_Lab_overseas/LiteOS_Lab/iot_link/os/liteos/base/core\los_task.c **** 
1074:C:/Users/dtjld/Desktop/AIoT_software/LiteOS_Lab_overseas/LiteOS_Lab/iot_link/os/liteos/base/core\los_task.c **** /*****************************************************************************
1075:C:/Users/dtjld/Desktop/AIoT_software/LiteOS_Lab_overseas/LiteOS_Lab/iot_link/os/liteos/base/core\los_task.c ****  Function : LOS_TaskDelete
1076:C:/Users/dtjld/Desktop/AIoT_software/LiteOS_Lab_overseas/LiteOS_Lab/iot_link/os/liteos/base/core\los_task.c ****  Description : Delete a task
1077:C:/Users/dtjld/Desktop/AIoT_software/LiteOS_Lab_overseas/LiteOS_Lab/iot_link/os/liteos/base/core\los_task.c ****  Input       : uwTaskID --- Task ID
1078:C:/Users/dtjld/Desktop/AIoT_software/LiteOS_Lab_overseas/LiteOS_Lab/iot_link/os/liteos/base/core\los_task.c ****  Output      : None
1079:C:/Users/dtjld/Desktop/AIoT_software/LiteOS_Lab_overseas/LiteOS_Lab/iot_link/os/liteos/base/core\los_task.c ****  Return      : LOS_OK on success or error code on failure
1080:C:/Users/dtjld/Desktop/AIoT_software/LiteOS_Lab_overseas/LiteOS_Lab/iot_link/os/liteos/base/core\los_task.c ****  *****************************************************************************/
1081:C:/Users/dtjld/Desktop/AIoT_software/LiteOS_Lab_overseas/LiteOS_Lab/iot_link/os/liteos/base/core\los_task.c **** LITE_OS_SEC_TEXT_INIT UINT32 LOS_TaskDelete(UINT32 uwTaskID)
1082:C:/Users/dtjld/Desktop/AIoT_software/LiteOS_Lab_overseas/LiteOS_Lab/iot_link/os/liteos/base/core\los_task.c **** {
 2991              		.loc 2 1082 0
 2992              		.cfi_startproc
 2993              		@ args = 0, pretend = 0, frame = 24
 2994              		@ frame_needed = 1, uses_anonymous_args = 0
 2995 0000 80B5     		push	{r7, lr}
 2996              	.LCFI120:
 2997              		.cfi_def_cfa_offset 8
 2998              		.cfi_offset 7, -8
 2999              		.cfi_offset 14, -4
 3000 0002 86B0     		sub	sp, sp, #24
 3001              	.LCFI121:
 3002              		.cfi_def_cfa_offset 32
 3003 0004 00AF     		add	r7, sp, #0
 3004              	.LCFI122:
ARM GAS  C:\Users\dtjld\AppData\Local\Temp\ccU8krAq.s 			page 77


 3005              		.cfi_def_cfa_register 7
 3006 0006 7860     		str	r0, [r7, #4]
1083:C:/Users/dtjld/Desktop/AIoT_software/LiteOS_Lab_overseas/LiteOS_Lab/iot_link/os/liteos/base/core\los_task.c **** #if (LOSCFG_STATIC_TASK == NO)
1084:C:/Users/dtjld/Desktop/AIoT_software/LiteOS_Lab_overseas/LiteOS_Lab/iot_link/os/liteos/base/core\los_task.c ****     UINTPTR uvIntSave;
1085:C:/Users/dtjld/Desktop/AIoT_software/LiteOS_Lab_overseas/LiteOS_Lab/iot_link/os/liteos/base/core\los_task.c ****     LOS_TASK_CB *pstTaskCB;
1086:C:/Users/dtjld/Desktop/AIoT_software/LiteOS_Lab_overseas/LiteOS_Lab/iot_link/os/liteos/base/core\los_task.c ****     UINT16 usTempStatus;
1087:C:/Users/dtjld/Desktop/AIoT_software/LiteOS_Lab_overseas/LiteOS_Lab/iot_link/os/liteos/base/core\los_task.c ****     UINT32 uwErrRet = OS_ERROR;
 3007              		.loc 2 1087 0
 3008 0008 4FF0FF33 		mov	r3, #-1
 3009 000c 7B61     		str	r3, [r7, #20]
1088:C:/Users/dtjld/Desktop/AIoT_software/LiteOS_Lab_overseas/LiteOS_Lab/iot_link/os/liteos/base/core\los_task.c **** 
1089:C:/Users/dtjld/Desktop/AIoT_software/LiteOS_Lab_overseas/LiteOS_Lab/iot_link/os/liteos/base/core\los_task.c ****     CHECK_TASKID(uwTaskID);
 3010              		.loc 2 1089 0
 3011 000e 6F4B     		ldr	r3, .L186
 3012 0010 1B68     		ldr	r3, [r3]
 3013 0012 7A68     		ldr	r2, [r7, #4]
 3014 0014 9A42     		cmp	r2, r3
 3015 0016 01D1     		bne	.L173
 3016              		.loc 2 1089 0 is_stmt 0 discriminator 1
 3017 0018 6D4B     		ldr	r3, .L186+4
 3018 001a D3E0     		b	.L174
 3019              	.L173:
 3020              		.loc 2 1089 0 discriminator 2
 3021 001c 6D4B     		ldr	r3, .L186+8
 3022 001e 1B68     		ldr	r3, [r3]
 3023 0020 7A68     		ldr	r2, [r7, #4]
 3024 0022 9A42     		cmp	r2, r3
 3025 0024 01D1     		bne	.L175
 3026              		.loc 2 1089 0 discriminator 3
 3027 0026 6C4B     		ldr	r3, .L186+12
 3028 0028 CCE0     		b	.L174
 3029              	.L175:
 3030              		.loc 2 1089 0 discriminator 4
 3031 002a 6C4B     		ldr	r3, .L186+16
 3032 002c 1B68     		ldr	r3, [r3]
 3033 002e 7A68     		ldr	r2, [r7, #4]
 3034 0030 9A42     		cmp	r2, r3
 3035 0032 01D3     		bcc	.L176
 3036              		.loc 2 1089 0 discriminator 5
 3037 0034 6A4B     		ldr	r3, .L186+20
 3038 0036 C5E0     		b	.L174
 3039              	.L176:
1090:C:/Users/dtjld/Desktop/AIoT_software/LiteOS_Lab_overseas/LiteOS_Lab/iot_link/os/liteos/base/core\los_task.c ****     uvIntSave = LOS_IntLock();
 3040              		.loc 2 1090 0 is_stmt 1
 3041 0038 FFF7FEFF 		bl	LOS_IntLock
 3042 003c 3861     		str	r0, [r7, #16]
1091:C:/Users/dtjld/Desktop/AIoT_software/LiteOS_Lab_overseas/LiteOS_Lab/iot_link/os/liteos/base/core\los_task.c **** 
1092:C:/Users/dtjld/Desktop/AIoT_software/LiteOS_Lab_overseas/LiteOS_Lab/iot_link/os/liteos/base/core\los_task.c ****     /* if self deleting, unlock the scheduler */
1093:C:/Users/dtjld/Desktop/AIoT_software/LiteOS_Lab_overseas/LiteOS_Lab/iot_link/os/liteos/base/core\los_task.c **** 
1094:C:/Users/dtjld/Desktop/AIoT_software/LiteOS_Lab_overseas/LiteOS_Lab/iot_link/os/liteos/base/core\los_task.c ****     if (uwTaskID == LOS_CurTaskIDGet())
 3043              		.loc 2 1094 0
 3044 003e FFF7FEFF 		bl	LOS_CurTaskIDGet
 3045 0042 0246     		mov	r2, r0
 3046 0044 7B68     		ldr	r3, [r7, #4]
 3047 0046 9342     		cmp	r3, r2
 3048 0048 02D1     		bne	.L177
1095:C:/Users/dtjld/Desktop/AIoT_software/LiteOS_Lab_overseas/LiteOS_Lab/iot_link/os/liteos/base/core\los_task.c ****     {
ARM GAS  C:\Users\dtjld\AppData\Local\Temp\ccU8krAq.s 			page 78


1096:C:/Users/dtjld/Desktop/AIoT_software/LiteOS_Lab_overseas/LiteOS_Lab/iot_link/os/liteos/base/core\los_task.c ****         g_usLosTaskLock = 0;
 3049              		.loc 2 1096 0
 3050 004a 664B     		ldr	r3, .L186+24
 3051 004c 0022     		movs	r2, #0
 3052 004e 1A80     		strh	r2, [r3]	@ movhi
 3053              	.L177:
1097:C:/Users/dtjld/Desktop/AIoT_software/LiteOS_Lab_overseas/LiteOS_Lab/iot_link/os/liteos/base/core\los_task.c ****     }
1098:C:/Users/dtjld/Desktop/AIoT_software/LiteOS_Lab_overseas/LiteOS_Lab/iot_link/os/liteos/base/core\los_task.c **** 
1099:C:/Users/dtjld/Desktop/AIoT_software/LiteOS_Lab_overseas/LiteOS_Lab/iot_link/os/liteos/base/core\los_task.c ****     pstTaskCB = OS_TCB_FROM_TID(uwTaskID);
 3054              		.loc 2 1099 0
 3055 0050 654B     		ldr	r3, .L186+28
 3056 0052 1A68     		ldr	r2, [r3]
 3057 0054 7B68     		ldr	r3, [r7, #4]
 3058 0056 5421     		movs	r1, #84
 3059 0058 01FB03F3 		mul	r3, r1, r3
 3060 005c 1344     		add	r3, r3, r2
 3061 005e FB60     		str	r3, [r7, #12]
1100:C:/Users/dtjld/Desktop/AIoT_software/LiteOS_Lab_overseas/LiteOS_Lab/iot_link/os/liteos/base/core\los_task.c **** 
1101:C:/Users/dtjld/Desktop/AIoT_software/LiteOS_Lab_overseas/LiteOS_Lab/iot_link/os/liteos/base/core\los_task.c ****     usTempStatus = pstTaskCB->usTaskStatus;
 3062              		.loc 2 1101 0
 3063 0060 FB68     		ldr	r3, [r7, #12]
 3064 0062 9B88     		ldrh	r3, [r3, #4]	@ movhi
 3065 0064 7B81     		strh	r3, [r7, #10]	@ movhi
1102:C:/Users/dtjld/Desktop/AIoT_software/LiteOS_Lab_overseas/LiteOS_Lab/iot_link/os/liteos/base/core\los_task.c **** 
1103:C:/Users/dtjld/Desktop/AIoT_software/LiteOS_Lab_overseas/LiteOS_Lab/iot_link/os/liteos/base/core\los_task.c ****     if (OS_TASK_STATUS_UNUSED & usTempStatus)
 3066              		.loc 2 1103 0
 3067 0066 7B89     		ldrh	r3, [r7, #10]	@ movhi
 3068 0068 03F00103 		and	r3, r3, #1
 3069 006c 9BB2     		uxth	r3, r3
 3070 006e 002B     		cmp	r3, #0
 3071 0070 07D0     		beq	.L178
1104:C:/Users/dtjld/Desktop/AIoT_software/LiteOS_Lab_overseas/LiteOS_Lab/iot_link/os/liteos/base/core\los_task.c ****     {
1105:C:/Users/dtjld/Desktop/AIoT_software/LiteOS_Lab_overseas/LiteOS_Lab/iot_link/os/liteos/base/core\los_task.c ****         uwErrRet = LOS_ERRNO_TSK_NOT_CREATED;
 3072              		.loc 2 1105 0
 3073 0072 5E4B     		ldr	r3, .L186+32
 3074 0074 7B61     		str	r3, [r7, #20]
1106:C:/Users/dtjld/Desktop/AIoT_software/LiteOS_Lab_overseas/LiteOS_Lab/iot_link/os/liteos/base/core\los_task.c ****         OS_GOTO_ERREND();
 3075              		.loc 2 1106 0
 3076 0076 00BF     		nop
 3077              	.L179:
1107:C:/Users/dtjld/Desktop/AIoT_software/LiteOS_Lab_overseas/LiteOS_Lab/iot_link/os/liteos/base/core\los_task.c ****     }
1108:C:/Users/dtjld/Desktop/AIoT_software/LiteOS_Lab_overseas/LiteOS_Lab/iot_link/os/liteos/base/core\los_task.c **** 
1109:C:/Users/dtjld/Desktop/AIoT_software/LiteOS_Lab_overseas/LiteOS_Lab/iot_link/os/liteos/base/core\los_task.c ****     /* If the task is running and scheduler is locked then you can not delete it */
1110:C:/Users/dtjld/Desktop/AIoT_software/LiteOS_Lab_overseas/LiteOS_Lab/iot_link/os/liteos/base/core\los_task.c ****     if ((OS_TASK_STATUS_RUNNING & usTempStatus) && (g_usLosTaskLock != 0))
1111:C:/Users/dtjld/Desktop/AIoT_software/LiteOS_Lab_overseas/LiteOS_Lab/iot_link/os/liteos/base/core\los_task.c ****     {
1112:C:/Users/dtjld/Desktop/AIoT_software/LiteOS_Lab_overseas/LiteOS_Lab/iot_link/os/liteos/base/core\los_task.c ****         PRINT_INFO("In case of task lock, task deletion is not recommended\n");
1113:C:/Users/dtjld/Desktop/AIoT_software/LiteOS_Lab_overseas/LiteOS_Lab/iot_link/os/liteos/base/core\los_task.c ****         g_usLosTaskLock = 0;
1114:C:/Users/dtjld/Desktop/AIoT_software/LiteOS_Lab_overseas/LiteOS_Lab/iot_link/os/liteos/base/core\los_task.c ****     }
1115:C:/Users/dtjld/Desktop/AIoT_software/LiteOS_Lab_overseas/LiteOS_Lab/iot_link/os/liteos/base/core\los_task.c **** 
1116:C:/Users/dtjld/Desktop/AIoT_software/LiteOS_Lab_overseas/LiteOS_Lab/iot_link/os/liteos/base/core\los_task.c ****     if (OS_TASK_STATUS_READY & usTempStatus)
1117:C:/Users/dtjld/Desktop/AIoT_software/LiteOS_Lab_overseas/LiteOS_Lab/iot_link/os/liteos/base/core\los_task.c ****     {
1118:C:/Users/dtjld/Desktop/AIoT_software/LiteOS_Lab_overseas/LiteOS_Lab/iot_link/os/liteos/base/core\los_task.c ****         osPriqueueDequeue(&pstTaskCB->stPendList);
1119:C:/Users/dtjld/Desktop/AIoT_software/LiteOS_Lab_overseas/LiteOS_Lab/iot_link/os/liteos/base/core\los_task.c ****         pstTaskCB->usTaskStatus &= (~OS_TASK_STATUS_READY);
1120:C:/Users/dtjld/Desktop/AIoT_software/LiteOS_Lab_overseas/LiteOS_Lab/iot_link/os/liteos/base/core\los_task.c ****     }
1121:C:/Users/dtjld/Desktop/AIoT_software/LiteOS_Lab_overseas/LiteOS_Lab/iot_link/os/liteos/base/core\los_task.c ****     else if ((OS_TASK_STATUS_PEND & usTempStatus) || (OS_TASK_STATUS_PEND_QUEUE & usTempStatus))
1122:C:/Users/dtjld/Desktop/AIoT_software/LiteOS_Lab_overseas/LiteOS_Lab/iot_link/os/liteos/base/core\los_task.c ****     {
1123:C:/Users/dtjld/Desktop/AIoT_software/LiteOS_Lab_overseas/LiteOS_Lab/iot_link/os/liteos/base/core\los_task.c ****         LOS_ListDelete(&pstTaskCB->stPendList);
ARM GAS  C:\Users\dtjld\AppData\Local\Temp\ccU8krAq.s 			page 79


1124:C:/Users/dtjld/Desktop/AIoT_software/LiteOS_Lab_overseas/LiteOS_Lab/iot_link/os/liteos/base/core\los_task.c ****     }
1125:C:/Users/dtjld/Desktop/AIoT_software/LiteOS_Lab_overseas/LiteOS_Lab/iot_link/os/liteos/base/core\los_task.c **** 
1126:C:/Users/dtjld/Desktop/AIoT_software/LiteOS_Lab_overseas/LiteOS_Lab/iot_link/os/liteos/base/core\los_task.c ****     if ((OS_TASK_STATUS_DELAY | OS_TASK_STATUS_TIMEOUT) & usTempStatus)
1127:C:/Users/dtjld/Desktop/AIoT_software/LiteOS_Lab_overseas/LiteOS_Lab/iot_link/os/liteos/base/core\los_task.c ****     {
1128:C:/Users/dtjld/Desktop/AIoT_software/LiteOS_Lab_overseas/LiteOS_Lab/iot_link/os/liteos/base/core\los_task.c ****         osTimerListDelete(pstTaskCB);
1129:C:/Users/dtjld/Desktop/AIoT_software/LiteOS_Lab_overseas/LiteOS_Lab/iot_link/os/liteos/base/core\los_task.c ****     }
1130:C:/Users/dtjld/Desktop/AIoT_software/LiteOS_Lab_overseas/LiteOS_Lab/iot_link/os/liteos/base/core\los_task.c **** 
1131:C:/Users/dtjld/Desktop/AIoT_software/LiteOS_Lab_overseas/LiteOS_Lab/iot_link/os/liteos/base/core\los_task.c ****     pstTaskCB->usTaskStatus &= (~(OS_TASK_STATUS_SUSPEND));
1132:C:/Users/dtjld/Desktop/AIoT_software/LiteOS_Lab_overseas/LiteOS_Lab/iot_link/os/liteos/base/core\los_task.c ****     pstTaskCB->usTaskStatus |= OS_TASK_STATUS_UNUSED;
1133:C:/Users/dtjld/Desktop/AIoT_software/LiteOS_Lab_overseas/LiteOS_Lab/iot_link/os/liteos/base/core\los_task.c ****     pstTaskCB->uwEvent.uwEventID = 0xFFFFFFFF;
1134:C:/Users/dtjld/Desktop/AIoT_software/LiteOS_Lab_overseas/LiteOS_Lab/iot_link/os/liteos/base/core\los_task.c ****     pstTaskCB->uwEventMask = 0;
1135:C:/Users/dtjld/Desktop/AIoT_software/LiteOS_Lab_overseas/LiteOS_Lab/iot_link/os/liteos/base/core\los_task.c **** #if (LOSCFG_BASE_CORE_CPUP == YES)
1136:C:/Users/dtjld/Desktop/AIoT_software/LiteOS_Lab_overseas/LiteOS_Lab/iot_link/os/liteos/base/core\los_task.c ****     (VOID)memset((VOID *)&g_pstCpup[pstTaskCB->uwTaskID], 0, sizeof(OS_CPUP_S));
1137:C:/Users/dtjld/Desktop/AIoT_software/LiteOS_Lab_overseas/LiteOS_Lab/iot_link/os/liteos/base/core\los_task.c **** #endif
1138:C:/Users/dtjld/Desktop/AIoT_software/LiteOS_Lab_overseas/LiteOS_Lab/iot_link/os/liteos/base/core\los_task.c ****     g_stLosTask.pstNewTask = LOS_DL_LIST_ENTRY(osPriqueueTop(), LOS_TASK_CB, stPendList); /*lint !e
1139:C:/Users/dtjld/Desktop/AIoT_software/LiteOS_Lab_overseas/LiteOS_Lab/iot_link/os/liteos/base/core\los_task.c ****     if (OS_TASK_STATUS_RUNNING & pstTaskCB->usTaskStatus)
1140:C:/Users/dtjld/Desktop/AIoT_software/LiteOS_Lab_overseas/LiteOS_Lab/iot_link/os/liteos/base/core\los_task.c ****     {
1141:C:/Users/dtjld/Desktop/AIoT_software/LiteOS_Lab_overseas/LiteOS_Lab/iot_link/os/liteos/base/core\los_task.c ****         LOS_ListTailInsert(&g_stTskRecyleList, &pstTaskCB->stPendList);
1142:C:/Users/dtjld/Desktop/AIoT_software/LiteOS_Lab_overseas/LiteOS_Lab/iot_link/os/liteos/base/core\los_task.c ****         g_stLosTask.pstRunTask = &g_pstTaskCBArray[g_uwTskMaxNum];
1143:C:/Users/dtjld/Desktop/AIoT_software/LiteOS_Lab_overseas/LiteOS_Lab/iot_link/os/liteos/base/core\los_task.c ****         g_stLosTask.pstRunTask->uwTaskID = uwTaskID;
1144:C:/Users/dtjld/Desktop/AIoT_software/LiteOS_Lab_overseas/LiteOS_Lab/iot_link/os/liteos/base/core\los_task.c ****         g_stLosTask.pstRunTask->usTaskStatus = pstTaskCB->usTaskStatus;
1145:C:/Users/dtjld/Desktop/AIoT_software/LiteOS_Lab_overseas/LiteOS_Lab/iot_link/os/liteos/base/core\los_task.c ****         g_stLosTask.pstRunTask->uwTopOfStack = pstTaskCB->uwTopOfStack;
1146:C:/Users/dtjld/Desktop/AIoT_software/LiteOS_Lab_overseas/LiteOS_Lab/iot_link/os/liteos/base/core\los_task.c ****         g_stLosTask.pstRunTask->pcTaskName = pstTaskCB->pcTaskName;
1147:C:/Users/dtjld/Desktop/AIoT_software/LiteOS_Lab_overseas/LiteOS_Lab/iot_link/os/liteos/base/core\los_task.c ****         pstTaskCB->usTaskStatus = OS_TASK_STATUS_UNUSED;
1148:C:/Users/dtjld/Desktop/AIoT_software/LiteOS_Lab_overseas/LiteOS_Lab/iot_link/os/liteos/base/core\los_task.c ****         (VOID)LOS_IntRestore(uvIntSave);
1149:C:/Users/dtjld/Desktop/AIoT_software/LiteOS_Lab_overseas/LiteOS_Lab/iot_link/os/liteos/base/core\los_task.c ****         osSchedule();
1150:C:/Users/dtjld/Desktop/AIoT_software/LiteOS_Lab_overseas/LiteOS_Lab/iot_link/os/liteos/base/core\los_task.c ****         return LOS_OK;
1151:C:/Users/dtjld/Desktop/AIoT_software/LiteOS_Lab_overseas/LiteOS_Lab/iot_link/os/liteos/base/core\los_task.c ****     }
1152:C:/Users/dtjld/Desktop/AIoT_software/LiteOS_Lab_overseas/LiteOS_Lab/iot_link/os/liteos/base/core\los_task.c ****     else
1153:C:/Users/dtjld/Desktop/AIoT_software/LiteOS_Lab_overseas/LiteOS_Lab/iot_link/os/liteos/base/core\los_task.c ****     {
1154:C:/Users/dtjld/Desktop/AIoT_software/LiteOS_Lab_overseas/LiteOS_Lab/iot_link/os/liteos/base/core\los_task.c ****         pstTaskCB->usTaskStatus = OS_TASK_STATUS_UNUSED;
1155:C:/Users/dtjld/Desktop/AIoT_software/LiteOS_Lab_overseas/LiteOS_Lab/iot_link/os/liteos/base/core\los_task.c ****         LOS_ListAdd(&g_stLosFreeTask, &pstTaskCB->stPendList);
1156:C:/Users/dtjld/Desktop/AIoT_software/LiteOS_Lab_overseas/LiteOS_Lab/iot_link/os/liteos/base/core\los_task.c ****         (VOID)LOS_MemFree(OS_TASK_STACK_ADDR, (VOID *)pstTaskCB->uwTopOfStack);
1157:C:/Users/dtjld/Desktop/AIoT_software/LiteOS_Lab_overseas/LiteOS_Lab/iot_link/os/liteos/base/core\los_task.c ****         pstTaskCB->uwTopOfStack = (UINT32)NULL;
1158:C:/Users/dtjld/Desktop/AIoT_software/LiteOS_Lab_overseas/LiteOS_Lab/iot_link/os/liteos/base/core\los_task.c ****     }
1159:C:/Users/dtjld/Desktop/AIoT_software/LiteOS_Lab_overseas/LiteOS_Lab/iot_link/os/liteos/base/core\los_task.c **** 
1160:C:/Users/dtjld/Desktop/AIoT_software/LiteOS_Lab_overseas/LiteOS_Lab/iot_link/os/liteos/base/core\los_task.c ****     (VOID)LOS_IntRestore(uvIntSave);
1161:C:/Users/dtjld/Desktop/AIoT_software/LiteOS_Lab_overseas/LiteOS_Lab/iot_link/os/liteos/base/core\los_task.c ****     return LOS_OK;
1162:C:/Users/dtjld/Desktop/AIoT_software/LiteOS_Lab_overseas/LiteOS_Lab/iot_link/os/liteos/base/core\los_task.c **** 
1163:C:/Users/dtjld/Desktop/AIoT_software/LiteOS_Lab_overseas/LiteOS_Lab/iot_link/os/liteos/base/core\los_task.c **** LOS_ERREND:
1164:C:/Users/dtjld/Desktop/AIoT_software/LiteOS_Lab_overseas/LiteOS_Lab/iot_link/os/liteos/base/core\los_task.c ****     (VOID)LOS_IntRestore(uvIntSave);
 3078              		.loc 2 1164 0
 3079 0078 3869     		ldr	r0, [r7, #16]
 3080 007a FFF7FEFF 		bl	LOS_IntRestore
1165:C:/Users/dtjld/Desktop/AIoT_software/LiteOS_Lab_overseas/LiteOS_Lab/iot_link/os/liteos/base/core\los_task.c ****     return uwErrRet;
 3081              		.loc 2 1165 0
 3082 007e 7B69     		ldr	r3, [r7, #20]
 3083 0080 A0E0     		b	.L174
 3084              	.L178:
1110:C:/Users/dtjld/Desktop/AIoT_software/LiteOS_Lab_overseas/LiteOS_Lab/iot_link/os/liteos/base/core\los_task.c ****     {
 3085              		.loc 2 1110 0
 3086 0082 7B89     		ldrh	r3, [r7, #10]	@ movhi
 3087 0084 03F01003 		and	r3, r3, #16
 3088 0088 9BB2     		uxth	r3, r3
 3089 008a 002B     		cmp	r3, #0
 3090 008c 06D0     		beq	.L180
1110:C:/Users/dtjld/Desktop/AIoT_software/LiteOS_Lab_overseas/LiteOS_Lab/iot_link/os/liteos/base/core\los_task.c ****     {
ARM GAS  C:\Users\dtjld\AppData\Local\Temp\ccU8krAq.s 			page 80


 3091              		.loc 2 1110 0 is_stmt 0 discriminator 1
 3092 008e 554B     		ldr	r3, .L186+24
 3093 0090 1B88     		ldrh	r3, [r3]
 3094 0092 002B     		cmp	r3, #0
 3095 0094 02D0     		beq	.L180
1113:C:/Users/dtjld/Desktop/AIoT_software/LiteOS_Lab_overseas/LiteOS_Lab/iot_link/os/liteos/base/core\los_task.c ****     }
 3096              		.loc 2 1113 0 is_stmt 1
 3097 0096 534B     		ldr	r3, .L186+24
 3098 0098 0022     		movs	r2, #0
 3099 009a 1A80     		strh	r2, [r3]	@ movhi
 3100              	.L180:
1116:C:/Users/dtjld/Desktop/AIoT_software/LiteOS_Lab_overseas/LiteOS_Lab/iot_link/os/liteos/base/core\los_task.c ****     {
 3101              		.loc 2 1116 0
 3102 009c 7B89     		ldrh	r3, [r7, #10]	@ movhi
 3103 009e 03F00403 		and	r3, r3, #4
 3104 00a2 9BB2     		uxth	r3, r3
 3105 00a4 002B     		cmp	r3, #0
 3106 00a6 0CD0     		beq	.L181
1118:C:/Users/dtjld/Desktop/AIoT_software/LiteOS_Lab_overseas/LiteOS_Lab/iot_link/os/liteos/base/core\los_task.c ****         pstTaskCB->usTaskStatus &= (~OS_TASK_STATUS_READY);
 3107              		.loc 2 1118 0
 3108 00a8 FB68     		ldr	r3, [r7, #12]
 3109 00aa 2833     		adds	r3, r3, #40
 3110 00ac 1846     		mov	r0, r3
 3111 00ae FFF7FEFF 		bl	osPriqueueDequeue
1119:C:/Users/dtjld/Desktop/AIoT_software/LiteOS_Lab_overseas/LiteOS_Lab/iot_link/os/liteos/base/core\los_task.c ****     }
 3112              		.loc 2 1119 0
 3113 00b2 FB68     		ldr	r3, [r7, #12]
 3114 00b4 9B88     		ldrh	r3, [r3, #4]
 3115 00b6 23F00403 		bic	r3, r3, #4
 3116 00ba 9AB2     		uxth	r2, r3
 3117 00bc FB68     		ldr	r3, [r7, #12]
 3118 00be 9A80     		strh	r2, [r3, #4]	@ movhi
 3119 00c0 10E0     		b	.L182
 3120              	.L181:
1121:C:/Users/dtjld/Desktop/AIoT_software/LiteOS_Lab_overseas/LiteOS_Lab/iot_link/os/liteos/base/core\los_task.c ****     {
 3121              		.loc 2 1121 0
 3122 00c2 7B89     		ldrh	r3, [r7, #10]	@ movhi
 3123 00c4 03F00803 		and	r3, r3, #8
 3124 00c8 9BB2     		uxth	r3, r3
 3125 00ca 002B     		cmp	r3, #0
 3126 00cc 05D1     		bne	.L183
1121:C:/Users/dtjld/Desktop/AIoT_software/LiteOS_Lab_overseas/LiteOS_Lab/iot_link/os/liteos/base/core\los_task.c ****     {
 3127              		.loc 2 1121 0 is_stmt 0 discriminator 1
 3128 00ce 7B89     		ldrh	r3, [r7, #10]	@ movhi
 3129 00d0 03F40053 		and	r3, r3, #8192
 3130 00d4 9BB2     		uxth	r3, r3
 3131 00d6 002B     		cmp	r3, #0
 3132 00d8 04D0     		beq	.L182
 3133              	.L183:
1123:C:/Users/dtjld/Desktop/AIoT_software/LiteOS_Lab_overseas/LiteOS_Lab/iot_link/os/liteos/base/core\los_task.c ****     }
 3134              		.loc 2 1123 0 is_stmt 1
 3135 00da FB68     		ldr	r3, [r7, #12]
 3136 00dc 2833     		adds	r3, r3, #40
 3137 00de 1846     		mov	r0, r3
 3138 00e0 FFF7FEFF 		bl	LOS_ListDelete
 3139              	.L182:
1126:C:/Users/dtjld/Desktop/AIoT_software/LiteOS_Lab_overseas/LiteOS_Lab/iot_link/os/liteos/base/core\los_task.c ****     {
ARM GAS  C:\Users\dtjld\AppData\Local\Temp\ccU8krAq.s 			page 81


 3140              		.loc 2 1126 0
 3141 00e4 7B89     		ldrh	r3, [r7, #10]	@ movhi
 3142 00e6 03F06003 		and	r3, r3, #96
 3143 00ea 9BB2     		uxth	r3, r3
 3144 00ec 002B     		cmp	r3, #0
 3145 00ee 02D0     		beq	.L184
1128:C:/Users/dtjld/Desktop/AIoT_software/LiteOS_Lab_overseas/LiteOS_Lab/iot_link/os/liteos/base/core\los_task.c ****     }
 3146              		.loc 2 1128 0
 3147 00f0 F868     		ldr	r0, [r7, #12]
 3148 00f2 FFF7FEFF 		bl	osTimerListDelete
 3149              	.L184:
1131:C:/Users/dtjld/Desktop/AIoT_software/LiteOS_Lab_overseas/LiteOS_Lab/iot_link/os/liteos/base/core\los_task.c ****     pstTaskCB->usTaskStatus |= OS_TASK_STATUS_UNUSED;
 3150              		.loc 2 1131 0
 3151 00f6 FB68     		ldr	r3, [r7, #12]
 3152 00f8 9B88     		ldrh	r3, [r3, #4]
 3153 00fa 23F00203 		bic	r3, r3, #2
 3154 00fe 9AB2     		uxth	r2, r3
 3155 0100 FB68     		ldr	r3, [r7, #12]
 3156 0102 9A80     		strh	r2, [r3, #4]	@ movhi
1132:C:/Users/dtjld/Desktop/AIoT_software/LiteOS_Lab_overseas/LiteOS_Lab/iot_link/os/liteos/base/core\los_task.c ****     pstTaskCB->uwEvent.uwEventID = 0xFFFFFFFF;
 3157              		.loc 2 1132 0
 3158 0104 FB68     		ldr	r3, [r7, #12]
 3159 0106 9B88     		ldrh	r3, [r3, #4]
 3160 0108 43F00103 		orr	r3, r3, #1
 3161 010c 9AB2     		uxth	r2, r3
 3162 010e FB68     		ldr	r3, [r7, #12]
 3163 0110 9A80     		strh	r2, [r3, #4]	@ movhi
1133:C:/Users/dtjld/Desktop/AIoT_software/LiteOS_Lab_overseas/LiteOS_Lab/iot_link/os/liteos/base/core\los_task.c ****     pstTaskCB->uwEventMask = 0;
 3164              		.loc 2 1133 0
 3165 0112 FB68     		ldr	r3, [r7, #12]
 3166 0114 4FF0FF32 		mov	r2, #-1
 3167 0118 DA63     		str	r2, [r3, #60]
1134:C:/Users/dtjld/Desktop/AIoT_software/LiteOS_Lab_overseas/LiteOS_Lab/iot_link/os/liteos/base/core\los_task.c **** #if (LOSCFG_BASE_CORE_CPUP == YES)
 3168              		.loc 2 1134 0
 3169 011a FB68     		ldr	r3, [r7, #12]
 3170 011c 0022     		movs	r2, #0
 3171 011e 9A64     		str	r2, [r3, #72]
1138:C:/Users/dtjld/Desktop/AIoT_software/LiteOS_Lab_overseas/LiteOS_Lab/iot_link/os/liteos/base/core\los_task.c ****     if (OS_TASK_STATUS_RUNNING & pstTaskCB->usTaskStatus)
 3172              		.loc 2 1138 0
 3173 0120 FFF7FEFF 		bl	osPriqueueTop
 3174 0124 0346     		mov	r3, r0
 3175 0126 283B     		subs	r3, r3, #40
 3176 0128 314A     		ldr	r2, .L186+36
 3177 012a 5360     		str	r3, [r2, #4]
1139:C:/Users/dtjld/Desktop/AIoT_software/LiteOS_Lab_overseas/LiteOS_Lab/iot_link/os/liteos/base/core\los_task.c ****     {
 3178              		.loc 2 1139 0
 3179 012c FB68     		ldr	r3, [r7, #12]
 3180 012e 9B88     		ldrh	r3, [r3, #4]
 3181 0130 03F01003 		and	r3, r3, #16
 3182 0134 9BB2     		uxth	r3, r3
 3183 0136 002B     		cmp	r3, #0
 3184 0138 2CD0     		beq	.L185
1141:C:/Users/dtjld/Desktop/AIoT_software/LiteOS_Lab_overseas/LiteOS_Lab/iot_link/os/liteos/base/core\los_task.c ****         g_stLosTask.pstRunTask = &g_pstTaskCBArray[g_uwTskMaxNum];
 3185              		.loc 2 1141 0
 3186 013a FB68     		ldr	r3, [r7, #12]
 3187 013c 2833     		adds	r3, r3, #40
 3188 013e 1946     		mov	r1, r3
ARM GAS  C:\Users\dtjld\AppData\Local\Temp\ccU8krAq.s 			page 82


 3189 0140 2C48     		ldr	r0, .L186+40
 3190 0142 FFF7FEFF 		bl	LOS_ListTailInsert
1142:C:/Users/dtjld/Desktop/AIoT_software/LiteOS_Lab_overseas/LiteOS_Lab/iot_link/os/liteos/base/core\los_task.c ****         g_stLosTask.pstRunTask->uwTaskID = uwTaskID;
 3191              		.loc 2 1142 0
 3192 0146 284B     		ldr	r3, .L186+28
 3193 0148 1A68     		ldr	r2, [r3]
 3194 014a 244B     		ldr	r3, .L186+16
 3195 014c 1B68     		ldr	r3, [r3]
 3196 014e 5421     		movs	r1, #84
 3197 0150 01FB03F3 		mul	r3, r1, r3
 3198 0154 1344     		add	r3, r3, r2
 3199 0156 264A     		ldr	r2, .L186+36
 3200 0158 1360     		str	r3, [r2]
1143:C:/Users/dtjld/Desktop/AIoT_software/LiteOS_Lab_overseas/LiteOS_Lab/iot_link/os/liteos/base/core\los_task.c ****         g_stLosTask.pstRunTask->usTaskStatus = pstTaskCB->usTaskStatus;
 3201              		.loc 2 1143 0
 3202 015a 254B     		ldr	r3, .L186+36
 3203 015c 1B68     		ldr	r3, [r3]
 3204 015e 7A68     		ldr	r2, [r7, #4]
 3205 0160 1A61     		str	r2, [r3, #16]
1144:C:/Users/dtjld/Desktop/AIoT_software/LiteOS_Lab_overseas/LiteOS_Lab/iot_link/os/liteos/base/core\los_task.c ****         g_stLosTask.pstRunTask->uwTopOfStack = pstTaskCB->uwTopOfStack;
 3206              		.loc 2 1144 0
 3207 0162 234B     		ldr	r3, .L186+36
 3208 0164 1B68     		ldr	r3, [r3]
 3209 0166 FA68     		ldr	r2, [r7, #12]
 3210 0168 9288     		ldrh	r2, [r2, #4]
 3211 016a 9A80     		strh	r2, [r3, #4]	@ movhi
1145:C:/Users/dtjld/Desktop/AIoT_software/LiteOS_Lab_overseas/LiteOS_Lab/iot_link/os/liteos/base/core\los_task.c ****         g_stLosTask.pstRunTask->pcTaskName = pstTaskCB->pcTaskName;
 3212              		.loc 2 1145 0
 3213 016c 204B     		ldr	r3, .L186+36
 3214 016e 1B68     		ldr	r3, [r3]
 3215 0170 FA68     		ldr	r2, [r7, #12]
 3216 0172 D268     		ldr	r2, [r2, #12]
 3217 0174 DA60     		str	r2, [r3, #12]
1146:C:/Users/dtjld/Desktop/AIoT_software/LiteOS_Lab_overseas/LiteOS_Lab/iot_link/os/liteos/base/core\los_task.c ****         pstTaskCB->usTaskStatus = OS_TASK_STATUS_UNUSED;
 3218              		.loc 2 1146 0
 3219 0176 1E4B     		ldr	r3, .L186+36
 3220 0178 1B68     		ldr	r3, [r3]
 3221 017a FA68     		ldr	r2, [r7, #12]
 3222 017c 526A     		ldr	r2, [r2, #36]
 3223 017e 5A62     		str	r2, [r3, #36]
1147:C:/Users/dtjld/Desktop/AIoT_software/LiteOS_Lab_overseas/LiteOS_Lab/iot_link/os/liteos/base/core\los_task.c ****         (VOID)LOS_IntRestore(uvIntSave);
 3224              		.loc 2 1147 0
 3225 0180 FB68     		ldr	r3, [r7, #12]
 3226 0182 0122     		movs	r2, #1
 3227 0184 9A80     		strh	r2, [r3, #4]	@ movhi
1148:C:/Users/dtjld/Desktop/AIoT_software/LiteOS_Lab_overseas/LiteOS_Lab/iot_link/os/liteos/base/core\los_task.c ****         osSchedule();
 3228              		.loc 2 1148 0
 3229 0186 3869     		ldr	r0, [r7, #16]
 3230 0188 FFF7FEFF 		bl	LOS_IntRestore
1149:C:/Users/dtjld/Desktop/AIoT_software/LiteOS_Lab_overseas/LiteOS_Lab/iot_link/os/liteos/base/core\los_task.c ****         return LOS_OK;
 3231              		.loc 2 1149 0
 3232 018c FFF7FEFF 		bl	osSchedule
1150:C:/Users/dtjld/Desktop/AIoT_software/LiteOS_Lab_overseas/LiteOS_Lab/iot_link/os/liteos/base/core\los_task.c ****     }
 3233              		.loc 2 1150 0
 3234 0190 0023     		movs	r3, #0
 3235 0192 17E0     		b	.L174
 3236              	.L185:
ARM GAS  C:\Users\dtjld\AppData\Local\Temp\ccU8krAq.s 			page 83


1154:C:/Users/dtjld/Desktop/AIoT_software/LiteOS_Lab_overseas/LiteOS_Lab/iot_link/os/liteos/base/core\los_task.c ****         LOS_ListAdd(&g_stLosFreeTask, &pstTaskCB->stPendList);
 3237              		.loc 2 1154 0
 3238 0194 FB68     		ldr	r3, [r7, #12]
 3239 0196 0122     		movs	r2, #1
 3240 0198 9A80     		strh	r2, [r3, #4]	@ movhi
1155:C:/Users/dtjld/Desktop/AIoT_software/LiteOS_Lab_overseas/LiteOS_Lab/iot_link/os/liteos/base/core\los_task.c ****         (VOID)LOS_MemFree(OS_TASK_STACK_ADDR, (VOID *)pstTaskCB->uwTopOfStack);
 3241              		.loc 2 1155 0
 3242 019a FB68     		ldr	r3, [r7, #12]
 3243 019c 2833     		adds	r3, r3, #40
 3244 019e 1946     		mov	r1, r3
 3245 01a0 1548     		ldr	r0, .L186+44
 3246 01a2 FFF7FEFF 		bl	LOS_ListAdd
1156:C:/Users/dtjld/Desktop/AIoT_software/LiteOS_Lab_overseas/LiteOS_Lab/iot_link/os/liteos/base/core\los_task.c ****         pstTaskCB->uwTopOfStack = (UINT32)NULL;
 3247              		.loc 2 1156 0
 3248 01a6 154B     		ldr	r3, .L186+48
 3249 01a8 1A68     		ldr	r2, [r3]
 3250 01aa FB68     		ldr	r3, [r7, #12]
 3251 01ac DB68     		ldr	r3, [r3, #12]
 3252 01ae 1946     		mov	r1, r3
 3253 01b0 1046     		mov	r0, r2
 3254 01b2 FFF7FEFF 		bl	LOS_MemFree
1157:C:/Users/dtjld/Desktop/AIoT_software/LiteOS_Lab_overseas/LiteOS_Lab/iot_link/os/liteos/base/core\los_task.c ****     }
 3255              		.loc 2 1157 0
 3256 01b6 FB68     		ldr	r3, [r7, #12]
 3257 01b8 0022     		movs	r2, #0
 3258 01ba DA60     		str	r2, [r3, #12]
1160:C:/Users/dtjld/Desktop/AIoT_software/LiteOS_Lab_overseas/LiteOS_Lab/iot_link/os/liteos/base/core\los_task.c ****     return LOS_OK;
 3259              		.loc 2 1160 0
 3260 01bc 3869     		ldr	r0, [r7, #16]
 3261 01be FFF7FEFF 		bl	LOS_IntRestore
1161:C:/Users/dtjld/Desktop/AIoT_software/LiteOS_Lab_overseas/LiteOS_Lab/iot_link/os/liteos/base/core\los_task.c **** 
 3262              		.loc 2 1161 0
 3263 01c2 0023     		movs	r3, #0
 3264              	.L174:
1166:C:/Users/dtjld/Desktop/AIoT_software/LiteOS_Lab_overseas/LiteOS_Lab/iot_link/os/liteos/base/core\los_task.c **** #else
1167:C:/Users/dtjld/Desktop/AIoT_software/LiteOS_Lab_overseas/LiteOS_Lab/iot_link/os/liteos/base/core\los_task.c ****     (VOID)LOS_TaskSuspend(uwTaskID);
1168:C:/Users/dtjld/Desktop/AIoT_software/LiteOS_Lab_overseas/LiteOS_Lab/iot_link/os/liteos/base/core\los_task.c ****     return LOS_NOK;
1169:C:/Users/dtjld/Desktop/AIoT_software/LiteOS_Lab_overseas/LiteOS_Lab/iot_link/os/liteos/base/core\los_task.c **** #endif
1170:C:/Users/dtjld/Desktop/AIoT_software/LiteOS_Lab_overseas/LiteOS_Lab/iot_link/os/liteos/base/core\los_task.c **** }
 3265              		.loc 2 1170 0
 3266 01c4 1846     		mov	r0, r3
 3267 01c6 1837     		adds	r7, r7, #24
 3268              	.LCFI123:
 3269              		.cfi_def_cfa_offset 8
 3270 01c8 BD46     		mov	sp, r7
 3271              	.LCFI124:
 3272              		.cfi_def_cfa_register 13
 3273              		@ sp needed
 3274 01ca 80BD     		pop	{r7, pc}
 3275              	.L187:
 3276              		.align	2
 3277              	.L186:
 3278 01cc 00000000 		.word	g_uwIdleTaskID
 3279 01d0 14020002 		.word	33554964
 3280 01d4 00000000 		.word	g_uwSwtmrTaskID
 3281 01d8 21020002 		.word	33554977
 3282 01dc 00000000 		.word	g_uwTskMaxNum
ARM GAS  C:\Users\dtjld\AppData\Local\Temp\ccU8krAq.s 			page 84


 3283 01e0 07020002 		.word	33554951
 3284 01e4 00000000 		.word	g_usLosTaskLock
 3285 01e8 00000000 		.word	g_pstTaskCBArray
 3286 01ec 0A020002 		.word	33554954
 3287 01f0 00000000 		.word	g_stLosTask
 3288 01f4 00000000 		.word	g_stTskRecyleList
 3289 01f8 00000000 		.word	g_stLosFreeTask
 3290 01fc 00000000 		.word	m_aucSysMem0
 3291              		.cfi_endproc
 3292              	.LFE150:
 3294              		.section	.text.LOS_TaskDelay,"ax",%progbits
 3295              		.align	1
 3296              		.global	LOS_TaskDelay
 3297              		.syntax unified
 3298              		.thumb
 3299              		.thumb_func
 3300              		.fpu fpv4-sp-d16
 3302              	LOS_TaskDelay:
 3303              	.LFB151:
1171:C:/Users/dtjld/Desktop/AIoT_software/LiteOS_Lab_overseas/LiteOS_Lab/iot_link/os/liteos/base/core\los_task.c **** 
1172:C:/Users/dtjld/Desktop/AIoT_software/LiteOS_Lab_overseas/LiteOS_Lab/iot_link/os/liteos/base/core\los_task.c **** /*****************************************************************************
1173:C:/Users/dtjld/Desktop/AIoT_software/LiteOS_Lab_overseas/LiteOS_Lab/iot_link/os/liteos/base/core\los_task.c ****  Function : LOS_TaskDelay
1174:C:/Users/dtjld/Desktop/AIoT_software/LiteOS_Lab_overseas/LiteOS_Lab/iot_link/os/liteos/base/core\los_task.c ****  Description : delay the current task
1175:C:/Users/dtjld/Desktop/AIoT_software/LiteOS_Lab_overseas/LiteOS_Lab/iot_link/os/liteos/base/core\los_task.c ****  Input       : uwTick    --- time
1176:C:/Users/dtjld/Desktop/AIoT_software/LiteOS_Lab_overseas/LiteOS_Lab/iot_link/os/liteos/base/core\los_task.c ****  Output      :None
1177:C:/Users/dtjld/Desktop/AIoT_software/LiteOS_Lab_overseas/LiteOS_Lab/iot_link/os/liteos/base/core\los_task.c ****  Return      : LOS_OK on success or error code on failure
1178:C:/Users/dtjld/Desktop/AIoT_software/LiteOS_Lab_overseas/LiteOS_Lab/iot_link/os/liteos/base/core\los_task.c ****  *****************************************************************************/
1179:C:/Users/dtjld/Desktop/AIoT_software/LiteOS_Lab_overseas/LiteOS_Lab/iot_link/os/liteos/base/core\los_task.c **** LITE_OS_SEC_TEXT UINT32 LOS_TaskDelay(UINT32 uwTick)
1180:C:/Users/dtjld/Desktop/AIoT_software/LiteOS_Lab_overseas/LiteOS_Lab/iot_link/os/liteos/base/core\los_task.c **** {
 3304              		.loc 2 1180 0
 3305              		.cfi_startproc
 3306              		@ args = 0, pretend = 0, frame = 16
 3307              		@ frame_needed = 1, uses_anonymous_args = 0
 3308 0000 80B5     		push	{r7, lr}
 3309              	.LCFI125:
 3310              		.cfi_def_cfa_offset 8
 3311              		.cfi_offset 7, -8
 3312              		.cfi_offset 14, -4
 3313 0002 84B0     		sub	sp, sp, #16
 3314              	.LCFI126:
 3315              		.cfi_def_cfa_offset 24
 3316 0004 00AF     		add	r7, sp, #0
 3317              	.LCFI127:
 3318              		.cfi_def_cfa_register 7
 3319 0006 7860     		str	r0, [r7, #4]
1181:C:/Users/dtjld/Desktop/AIoT_software/LiteOS_Lab_overseas/LiteOS_Lab/iot_link/os/liteos/base/core\los_task.c ****     UINTPTR uvIntSave;
1182:C:/Users/dtjld/Desktop/AIoT_software/LiteOS_Lab_overseas/LiteOS_Lab/iot_link/os/liteos/base/core\los_task.c **** 
1183:C:/Users/dtjld/Desktop/AIoT_software/LiteOS_Lab_overseas/LiteOS_Lab/iot_link/os/liteos/base/core\los_task.c ****     if (OS_INT_ACTIVE)
 3320              		.loc 2 1183 0
 3321 0008 1E4B     		ldr	r3, .L193
 3322 000a 1B68     		ldr	r3, [r3]
 3323 000c 002B     		cmp	r3, #0
 3324 000e 01D0     		beq	.L189
1184:C:/Users/dtjld/Desktop/AIoT_software/LiteOS_Lab_overseas/LiteOS_Lab/iot_link/os/liteos/base/core\los_task.c ****     {
1185:C:/Users/dtjld/Desktop/AIoT_software/LiteOS_Lab_overseas/LiteOS_Lab/iot_link/os/liteos/base/core\los_task.c ****         return LOS_ERRNO_TSK_DELAY_IN_INT;
 3325              		.loc 2 1185 0
 3326 0010 1D4B     		ldr	r3, .L193+4
ARM GAS  C:\Users\dtjld\AppData\Local\Temp\ccU8krAq.s 			page 85


 3327 0012 33E0     		b	.L190
 3328              	.L189:
1186:C:/Users/dtjld/Desktop/AIoT_software/LiteOS_Lab_overseas/LiteOS_Lab/iot_link/os/liteos/base/core\los_task.c ****     }
1187:C:/Users/dtjld/Desktop/AIoT_software/LiteOS_Lab_overseas/LiteOS_Lab/iot_link/os/liteos/base/core\los_task.c **** 
1188:C:/Users/dtjld/Desktop/AIoT_software/LiteOS_Lab_overseas/LiteOS_Lab/iot_link/os/liteos/base/core\los_task.c ****     if (g_usLosTaskLock != 0)
 3329              		.loc 2 1188 0
 3330 0014 1D4B     		ldr	r3, .L193+8
 3331 0016 1B88     		ldrh	r3, [r3]
 3332 0018 002B     		cmp	r3, #0
 3333 001a 01D0     		beq	.L191
1189:C:/Users/dtjld/Desktop/AIoT_software/LiteOS_Lab_overseas/LiteOS_Lab/iot_link/os/liteos/base/core\los_task.c ****     {
1190:C:/Users/dtjld/Desktop/AIoT_software/LiteOS_Lab_overseas/LiteOS_Lab/iot_link/os/liteos/base/core\los_task.c ****         return LOS_ERRNO_TSK_DELAY_IN_LOCK;
 3334              		.loc 2 1190 0
 3335 001c 1C4B     		ldr	r3, .L193+12
 3336 001e 2DE0     		b	.L190
 3337              	.L191:
1191:C:/Users/dtjld/Desktop/AIoT_software/LiteOS_Lab_overseas/LiteOS_Lab/iot_link/os/liteos/base/core\los_task.c ****     }
1192:C:/Users/dtjld/Desktop/AIoT_software/LiteOS_Lab_overseas/LiteOS_Lab/iot_link/os/liteos/base/core\los_task.c **** 
1193:C:/Users/dtjld/Desktop/AIoT_software/LiteOS_Lab_overseas/LiteOS_Lab/iot_link/os/liteos/base/core\los_task.c ****     if (uwTick == 0)
 3338              		.loc 2 1193 0
 3339 0020 7B68     		ldr	r3, [r7, #4]
 3340 0022 002B     		cmp	r3, #0
 3341 0024 03D1     		bne	.L192
1194:C:/Users/dtjld/Desktop/AIoT_software/LiteOS_Lab_overseas/LiteOS_Lab/iot_link/os/liteos/base/core\los_task.c ****     {
1195:C:/Users/dtjld/Desktop/AIoT_software/LiteOS_Lab_overseas/LiteOS_Lab/iot_link/os/liteos/base/core\los_task.c ****         return LOS_TaskYield();
 3342              		.loc 2 1195 0
 3343 0026 FFF7FEFF 		bl	LOS_TaskYield
 3344 002a 0346     		mov	r3, r0
 3345 002c 26E0     		b	.L190
 3346              	.L192:
1196:C:/Users/dtjld/Desktop/AIoT_software/LiteOS_Lab_overseas/LiteOS_Lab/iot_link/os/liteos/base/core\los_task.c ****     }
1197:C:/Users/dtjld/Desktop/AIoT_software/LiteOS_Lab_overseas/LiteOS_Lab/iot_link/os/liteos/base/core\los_task.c ****     else
1198:C:/Users/dtjld/Desktop/AIoT_software/LiteOS_Lab_overseas/LiteOS_Lab/iot_link/os/liteos/base/core\los_task.c ****     {
1199:C:/Users/dtjld/Desktop/AIoT_software/LiteOS_Lab_overseas/LiteOS_Lab/iot_link/os/liteos/base/core\los_task.c ****         uvIntSave = LOS_IntLock();
 3347              		.loc 2 1199 0
 3348 002e FFF7FEFF 		bl	LOS_IntLock
 3349 0032 F860     		str	r0, [r7, #12]
1200:C:/Users/dtjld/Desktop/AIoT_software/LiteOS_Lab_overseas/LiteOS_Lab/iot_link/os/liteos/base/core\los_task.c ****         osPriqueueDequeue(&(g_stLosTask.pstRunTask->stPendList));
 3350              		.loc 2 1200 0
 3351 0034 174B     		ldr	r3, .L193+16
 3352 0036 1B68     		ldr	r3, [r3]
 3353 0038 2833     		adds	r3, r3, #40
 3354 003a 1846     		mov	r0, r3
 3355 003c FFF7FEFF 		bl	osPriqueueDequeue
1201:C:/Users/dtjld/Desktop/AIoT_software/LiteOS_Lab_overseas/LiteOS_Lab/iot_link/os/liteos/base/core\los_task.c ****         g_stLosTask.pstRunTask->usTaskStatus &= (~OS_TASK_STATUS_READY);
 3356              		.loc 2 1201 0
 3357 0040 144B     		ldr	r3, .L193+16
 3358 0042 1B68     		ldr	r3, [r3]
 3359 0044 9A88     		ldrh	r2, [r3, #4]
 3360 0046 134B     		ldr	r3, .L193+16
 3361 0048 1B68     		ldr	r3, [r3]
 3362 004a 22F00402 		bic	r2, r2, #4
 3363 004e 92B2     		uxth	r2, r2
 3364 0050 9A80     		strh	r2, [r3, #4]	@ movhi
1202:C:/Users/dtjld/Desktop/AIoT_software/LiteOS_Lab_overseas/LiteOS_Lab/iot_link/os/liteos/base/core\los_task.c ****         osTaskAdd2TimerList((LOS_TASK_CB *)g_stLosTask.pstRunTask, uwTick);
 3365              		.loc 2 1202 0
 3366 0052 104B     		ldr	r3, .L193+16
ARM GAS  C:\Users\dtjld\AppData\Local\Temp\ccU8krAq.s 			page 86


 3367 0054 1B68     		ldr	r3, [r3]
 3368 0056 7968     		ldr	r1, [r7, #4]
 3369 0058 1846     		mov	r0, r3
 3370 005a FFF7FEFF 		bl	osTaskAdd2TimerList
1203:C:/Users/dtjld/Desktop/AIoT_software/LiteOS_Lab_overseas/LiteOS_Lab/iot_link/os/liteos/base/core\los_task.c ****         g_stLosTask.pstRunTask->usTaskStatus |= OS_TASK_STATUS_DELAY;
 3371              		.loc 2 1203 0
 3372 005e 0D4B     		ldr	r3, .L193+16
 3373 0060 1B68     		ldr	r3, [r3]
 3374 0062 9A88     		ldrh	r2, [r3, #4]
 3375 0064 0B4B     		ldr	r3, .L193+16
 3376 0066 1B68     		ldr	r3, [r3]
 3377 0068 42F02002 		orr	r2, r2, #32
 3378 006c 92B2     		uxth	r2, r2
 3379 006e 9A80     		strh	r2, [r3, #4]	@ movhi
1204:C:/Users/dtjld/Desktop/AIoT_software/LiteOS_Lab_overseas/LiteOS_Lab/iot_link/os/liteos/base/core\los_task.c ****         (VOID)LOS_IntRestore(uvIntSave);
 3380              		.loc 2 1204 0
 3381 0070 F868     		ldr	r0, [r7, #12]
 3382 0072 FFF7FEFF 		bl	LOS_IntRestore
1205:C:/Users/dtjld/Desktop/AIoT_software/LiteOS_Lab_overseas/LiteOS_Lab/iot_link/os/liteos/base/core\los_task.c ****         LOS_Schedule();
 3383              		.loc 2 1205 0
 3384 0076 FFF7FEFF 		bl	LOS_Schedule
1206:C:/Users/dtjld/Desktop/AIoT_software/LiteOS_Lab_overseas/LiteOS_Lab/iot_link/os/liteos/base/core\los_task.c ****     }
1207:C:/Users/dtjld/Desktop/AIoT_software/LiteOS_Lab_overseas/LiteOS_Lab/iot_link/os/liteos/base/core\los_task.c **** 
1208:C:/Users/dtjld/Desktop/AIoT_software/LiteOS_Lab_overseas/LiteOS_Lab/iot_link/os/liteos/base/core\los_task.c ****     return LOS_OK;
 3385              		.loc 2 1208 0
 3386 007a 0023     		movs	r3, #0
 3387              	.L190:
1209:C:/Users/dtjld/Desktop/AIoT_software/LiteOS_Lab_overseas/LiteOS_Lab/iot_link/os/liteos/base/core\los_task.c **** }
 3388              		.loc 2 1209 0
 3389 007c 1846     		mov	r0, r3
 3390 007e 1037     		adds	r7, r7, #16
 3391              	.LCFI128:
 3392              		.cfi_def_cfa_offset 8
 3393 0080 BD46     		mov	sp, r7
 3394              	.LCFI129:
 3395              		.cfi_def_cfa_register 13
 3396              		@ sp needed
 3397 0082 80BD     		pop	{r7, pc}
 3398              	.L194:
 3399              		.align	2
 3400              	.L193:
 3401 0084 00000000 		.word	g_vuwIntCount
 3402 0088 0D020003 		.word	50332173
 3403 008c 00000000 		.word	g_usLosTaskLock
 3404 0090 0E020002 		.word	33554958
 3405 0094 00000000 		.word	g_stLosTask
 3406              		.cfi_endproc
 3407              	.LFE151:
 3409              		.section	.text.LOS_TaskPriGet,"ax",%progbits
 3410              		.align	1
 3411              		.global	LOS_TaskPriGet
 3412              		.syntax unified
 3413              		.thumb
 3414              		.thumb_func
 3415              		.fpu fpv4-sp-d16
 3417              	LOS_TaskPriGet:
 3418              	.LFB152:
ARM GAS  C:\Users\dtjld\AppData\Local\Temp\ccU8krAq.s 			page 87


1210:C:/Users/dtjld/Desktop/AIoT_software/LiteOS_Lab_overseas/LiteOS_Lab/iot_link/os/liteos/base/core\los_task.c **** 
1211:C:/Users/dtjld/Desktop/AIoT_software/LiteOS_Lab_overseas/LiteOS_Lab/iot_link/os/liteos/base/core\los_task.c **** /*****************************************************************************
1212:C:/Users/dtjld/Desktop/AIoT_software/LiteOS_Lab_overseas/LiteOS_Lab/iot_link/os/liteos/base/core\los_task.c ****  Function : LOS_TaskPriGet
1213:C:/Users/dtjld/Desktop/AIoT_software/LiteOS_Lab_overseas/LiteOS_Lab/iot_link/os/liteos/base/core\los_task.c ****  Description : Get the priority of the task
1214:C:/Users/dtjld/Desktop/AIoT_software/LiteOS_Lab_overseas/LiteOS_Lab/iot_link/os/liteos/base/core\los_task.c ****  Input       : uwTaskID
1215:C:/Users/dtjld/Desktop/AIoT_software/LiteOS_Lab_overseas/LiteOS_Lab/iot_link/os/liteos/base/core\los_task.c ****  Output      : None
1216:C:/Users/dtjld/Desktop/AIoT_software/LiteOS_Lab_overseas/LiteOS_Lab/iot_link/os/liteos/base/core\los_task.c ****  Return      : TSK_PRIOR_T on success or OS_INVALID on failure
1217:C:/Users/dtjld/Desktop/AIoT_software/LiteOS_Lab_overseas/LiteOS_Lab/iot_link/os/liteos/base/core\los_task.c ****  *****************************************************************************/
1218:C:/Users/dtjld/Desktop/AIoT_software/LiteOS_Lab_overseas/LiteOS_Lab/iot_link/os/liteos/base/core\los_task.c **** LITE_OS_SEC_TEXT_MINOR UINT16 LOS_TaskPriGet(UINT32 uwTaskID)
1219:C:/Users/dtjld/Desktop/AIoT_software/LiteOS_Lab_overseas/LiteOS_Lab/iot_link/os/liteos/base/core\los_task.c **** {
 3419              		.loc 2 1219 0
 3420              		.cfi_startproc
 3421              		@ args = 0, pretend = 0, frame = 24
 3422              		@ frame_needed = 1, uses_anonymous_args = 0
 3423 0000 80B5     		push	{r7, lr}
 3424              	.LCFI130:
 3425              		.cfi_def_cfa_offset 8
 3426              		.cfi_offset 7, -8
 3427              		.cfi_offset 14, -4
 3428 0002 86B0     		sub	sp, sp, #24
 3429              	.LCFI131:
 3430              		.cfi_def_cfa_offset 32
 3431 0004 00AF     		add	r7, sp, #0
 3432              	.LCFI132:
 3433              		.cfi_def_cfa_register 7
 3434 0006 7860     		str	r0, [r7, #4]
1220:C:/Users/dtjld/Desktop/AIoT_software/LiteOS_Lab_overseas/LiteOS_Lab/iot_link/os/liteos/base/core\los_task.c ****     UINTPTR uvIntSave;
1221:C:/Users/dtjld/Desktop/AIoT_software/LiteOS_Lab_overseas/LiteOS_Lab/iot_link/os/liteos/base/core\los_task.c ****     LOS_TASK_CB *pstTaskCB;
1222:C:/Users/dtjld/Desktop/AIoT_software/LiteOS_Lab_overseas/LiteOS_Lab/iot_link/os/liteos/base/core\los_task.c ****     UINT16 usPriority;
1223:C:/Users/dtjld/Desktop/AIoT_software/LiteOS_Lab_overseas/LiteOS_Lab/iot_link/os/liteos/base/core\los_task.c **** 
1224:C:/Users/dtjld/Desktop/AIoT_software/LiteOS_Lab_overseas/LiteOS_Lab/iot_link/os/liteos/base/core\los_task.c ****     if (OS_CHECK_TSK_PID_NOIDLE(uwTaskID))
 3435              		.loc 2 1224 0
 3436 0008 154B     		ldr	r3, .L199
 3437 000a 1B68     		ldr	r3, [r3]
 3438 000c 7A68     		ldr	r2, [r7, #4]
 3439 000e 9A42     		cmp	r2, r3
 3440 0010 02D3     		bcc	.L196
1225:C:/Users/dtjld/Desktop/AIoT_software/LiteOS_Lab_overseas/LiteOS_Lab/iot_link/os/liteos/base/core\los_task.c ****     {
1226:C:/Users/dtjld/Desktop/AIoT_software/LiteOS_Lab_overseas/LiteOS_Lab/iot_link/os/liteos/base/core\los_task.c ****        return (UINT16)OS_INVALID;
 3441              		.loc 2 1226 0
 3442 0012 4FF6FF73 		movw	r3, #65535
 3443 0016 1EE0     		b	.L197
 3444              	.L196:
1227:C:/Users/dtjld/Desktop/AIoT_software/LiteOS_Lab_overseas/LiteOS_Lab/iot_link/os/liteos/base/core\los_task.c ****     }
1228:C:/Users/dtjld/Desktop/AIoT_software/LiteOS_Lab_overseas/LiteOS_Lab/iot_link/os/liteos/base/core\los_task.c **** 
1229:C:/Users/dtjld/Desktop/AIoT_software/LiteOS_Lab_overseas/LiteOS_Lab/iot_link/os/liteos/base/core\los_task.c ****     pstTaskCB = OS_TCB_FROM_TID(uwTaskID);
 3445              		.loc 2 1229 0
 3446 0018 124B     		ldr	r3, .L199+4
 3447 001a 1A68     		ldr	r2, [r3]
 3448 001c 7B68     		ldr	r3, [r7, #4]
 3449 001e 5421     		movs	r1, #84
 3450 0020 01FB03F3 		mul	r3, r1, r3
 3451 0024 1344     		add	r3, r3, r2
 3452 0026 7B61     		str	r3, [r7, #20]
1230:C:/Users/dtjld/Desktop/AIoT_software/LiteOS_Lab_overseas/LiteOS_Lab/iot_link/os/liteos/base/core\los_task.c **** 
1231:C:/Users/dtjld/Desktop/AIoT_software/LiteOS_Lab_overseas/LiteOS_Lab/iot_link/os/liteos/base/core\los_task.c ****     uvIntSave = LOS_IntLock();
 3453              		.loc 2 1231 0
ARM GAS  C:\Users\dtjld\AppData\Local\Temp\ccU8krAq.s 			page 88


 3454 0028 FFF7FEFF 		bl	LOS_IntLock
 3455 002c 3861     		str	r0, [r7, #16]
1232:C:/Users/dtjld/Desktop/AIoT_software/LiteOS_Lab_overseas/LiteOS_Lab/iot_link/os/liteos/base/core\los_task.c **** 
1233:C:/Users/dtjld/Desktop/AIoT_software/LiteOS_Lab_overseas/LiteOS_Lab/iot_link/os/liteos/base/core\los_task.c ****     if (OS_TASK_STATUS_UNUSED & pstTaskCB->usTaskStatus)
 3456              		.loc 2 1233 0
 3457 002e 7B69     		ldr	r3, [r7, #20]
 3458 0030 9B88     		ldrh	r3, [r3, #4]
 3459 0032 03F00103 		and	r3, r3, #1
 3460 0036 9BB2     		uxth	r3, r3
 3461 0038 002B     		cmp	r3, #0
 3462 003a 05D0     		beq	.L198
1234:C:/Users/dtjld/Desktop/AIoT_software/LiteOS_Lab_overseas/LiteOS_Lab/iot_link/os/liteos/base/core\los_task.c ****     {
1235:C:/Users/dtjld/Desktop/AIoT_software/LiteOS_Lab_overseas/LiteOS_Lab/iot_link/os/liteos/base/core\los_task.c ****         (VOID)LOS_IntRestore(uvIntSave);
 3463              		.loc 2 1235 0
 3464 003c 3869     		ldr	r0, [r7, #16]
 3465 003e FFF7FEFF 		bl	LOS_IntRestore
1236:C:/Users/dtjld/Desktop/AIoT_software/LiteOS_Lab_overseas/LiteOS_Lab/iot_link/os/liteos/base/core\los_task.c ****         return (UINT16)OS_INVALID;
 3466              		.loc 2 1236 0
 3467 0042 4FF6FF73 		movw	r3, #65535
 3468 0046 06E0     		b	.L197
 3469              	.L198:
1237:C:/Users/dtjld/Desktop/AIoT_software/LiteOS_Lab_overseas/LiteOS_Lab/iot_link/os/liteos/base/core\los_task.c ****     }
1238:C:/Users/dtjld/Desktop/AIoT_software/LiteOS_Lab_overseas/LiteOS_Lab/iot_link/os/liteos/base/core\los_task.c **** 
1239:C:/Users/dtjld/Desktop/AIoT_software/LiteOS_Lab_overseas/LiteOS_Lab/iot_link/os/liteos/base/core\los_task.c ****     usPriority = pstTaskCB->usPriority;
 3470              		.loc 2 1239 0
 3471 0048 7B69     		ldr	r3, [r7, #20]
 3472 004a DB88     		ldrh	r3, [r3, #6]	@ movhi
 3473 004c FB81     		strh	r3, [r7, #14]	@ movhi
1240:C:/Users/dtjld/Desktop/AIoT_software/LiteOS_Lab_overseas/LiteOS_Lab/iot_link/os/liteos/base/core\los_task.c ****     (VOID)LOS_IntRestore(uvIntSave);
 3474              		.loc 2 1240 0
 3475 004e 3869     		ldr	r0, [r7, #16]
 3476 0050 FFF7FEFF 		bl	LOS_IntRestore
1241:C:/Users/dtjld/Desktop/AIoT_software/LiteOS_Lab_overseas/LiteOS_Lab/iot_link/os/liteos/base/core\los_task.c ****     return usPriority;
 3477              		.loc 2 1241 0
 3478 0054 FB89     		ldrh	r3, [r7, #14]
 3479              	.L197:
1242:C:/Users/dtjld/Desktop/AIoT_software/LiteOS_Lab_overseas/LiteOS_Lab/iot_link/os/liteos/base/core\los_task.c **** }
 3480              		.loc 2 1242 0
 3481 0056 1846     		mov	r0, r3
 3482 0058 1837     		adds	r7, r7, #24
 3483              	.LCFI133:
 3484              		.cfi_def_cfa_offset 8
 3485 005a BD46     		mov	sp, r7
 3486              	.LCFI134:
 3487              		.cfi_def_cfa_register 13
 3488              		@ sp needed
 3489 005c 80BD     		pop	{r7, pc}
 3490              	.L200:
 3491 005e 00BF     		.align	2
 3492              	.L199:
 3493 0060 00000000 		.word	g_uwTskMaxNum
 3494 0064 00000000 		.word	g_pstTaskCBArray
 3495              		.cfi_endproc
 3496              	.LFE152:
 3498              		.section	.text.LOS_TaskPriSet,"ax",%progbits
 3499              		.align	1
 3500              		.global	LOS_TaskPriSet
ARM GAS  C:\Users\dtjld\AppData\Local\Temp\ccU8krAq.s 			page 89


 3501              		.syntax unified
 3502              		.thumb
 3503              		.thumb_func
 3504              		.fpu fpv4-sp-d16
 3506              	LOS_TaskPriSet:
 3507              	.LFB153:
1243:C:/Users/dtjld/Desktop/AIoT_software/LiteOS_Lab_overseas/LiteOS_Lab/iot_link/os/liteos/base/core\los_task.c **** 
1244:C:/Users/dtjld/Desktop/AIoT_software/LiteOS_Lab_overseas/LiteOS_Lab/iot_link/os/liteos/base/core\los_task.c **** /*****************************************************************************
1245:C:/Users/dtjld/Desktop/AIoT_software/LiteOS_Lab_overseas/LiteOS_Lab/iot_link/os/liteos/base/core\los_task.c ****  Function : LOS_TaskPriSet
1246:C:/Users/dtjld/Desktop/AIoT_software/LiteOS_Lab_overseas/LiteOS_Lab/iot_link/os/liteos/base/core\los_task.c ****  Description : Set the priority of the task
1247:C:/Users/dtjld/Desktop/AIoT_software/LiteOS_Lab_overseas/LiteOS_Lab/iot_link/os/liteos/base/core\los_task.c ****  Input       : uwTaskID
1248:C:/Users/dtjld/Desktop/AIoT_software/LiteOS_Lab_overseas/LiteOS_Lab/iot_link/os/liteos/base/core\los_task.c ****                usTaskPrio
1249:C:/Users/dtjld/Desktop/AIoT_software/LiteOS_Lab_overseas/LiteOS_Lab/iot_link/os/liteos/base/core\los_task.c ****  Output      : None
1250:C:/Users/dtjld/Desktop/AIoT_software/LiteOS_Lab_overseas/LiteOS_Lab/iot_link/os/liteos/base/core\los_task.c ****  Return      : None
1251:C:/Users/dtjld/Desktop/AIoT_software/LiteOS_Lab_overseas/LiteOS_Lab/iot_link/os/liteos/base/core\los_task.c ****  *****************************************************************************/
1252:C:/Users/dtjld/Desktop/AIoT_software/LiteOS_Lab_overseas/LiteOS_Lab/iot_link/os/liteos/base/core\los_task.c **** LITE_OS_SEC_TEXT_MINOR UINT32 LOS_TaskPriSet(UINT32 uwTaskID, UINT16 usTaskPrio)
1253:C:/Users/dtjld/Desktop/AIoT_software/LiteOS_Lab_overseas/LiteOS_Lab/iot_link/os/liteos/base/core\los_task.c **** {
 3508              		.loc 2 1253 0
 3509              		.cfi_startproc
 3510              		@ args = 0, pretend = 0, frame = 24
 3511              		@ frame_needed = 1, uses_anonymous_args = 0
 3512 0000 80B5     		push	{r7, lr}
 3513              	.LCFI135:
 3514              		.cfi_def_cfa_offset 8
 3515              		.cfi_offset 7, -8
 3516              		.cfi_offset 14, -4
 3517 0002 86B0     		sub	sp, sp, #24
 3518              	.LCFI136:
 3519              		.cfi_def_cfa_offset 32
 3520 0004 00AF     		add	r7, sp, #0
 3521              	.LCFI137:
 3522              		.cfi_def_cfa_register 7
 3523 0006 7860     		str	r0, [r7, #4]
 3524 0008 0B46     		mov	r3, r1
 3525 000a 7B80     		strh	r3, [r7, #2]	@ movhi
1254:C:/Users/dtjld/Desktop/AIoT_software/LiteOS_Lab_overseas/LiteOS_Lab/iot_link/os/liteos/base/core\los_task.c ****     BOOL   bIsReady;
1255:C:/Users/dtjld/Desktop/AIoT_software/LiteOS_Lab_overseas/LiteOS_Lab/iot_link/os/liteos/base/core\los_task.c ****     UINTPTR uvIntSave;
1256:C:/Users/dtjld/Desktop/AIoT_software/LiteOS_Lab_overseas/LiteOS_Lab/iot_link/os/liteos/base/core\los_task.c ****     LOS_TASK_CB *pstTaskCB;
1257:C:/Users/dtjld/Desktop/AIoT_software/LiteOS_Lab_overseas/LiteOS_Lab/iot_link/os/liteos/base/core\los_task.c ****     UINT16 usTempStatus;
1258:C:/Users/dtjld/Desktop/AIoT_software/LiteOS_Lab_overseas/LiteOS_Lab/iot_link/os/liteos/base/core\los_task.c **** 
1259:C:/Users/dtjld/Desktop/AIoT_software/LiteOS_Lab_overseas/LiteOS_Lab/iot_link/os/liteos/base/core\los_task.c ****     if (usTaskPrio > OS_TASK_PRIORITY_LOWEST)
 3526              		.loc 2 1259 0
 3527 000c 7B88     		ldrh	r3, [r7, #2]
 3528 000e 1F2B     		cmp	r3, #31
 3529 0010 01D9     		bls	.L202
1260:C:/Users/dtjld/Desktop/AIoT_software/LiteOS_Lab_overseas/LiteOS_Lab/iot_link/os/liteos/base/core\los_task.c ****     {
1261:C:/Users/dtjld/Desktop/AIoT_software/LiteOS_Lab_overseas/LiteOS_Lab/iot_link/os/liteos/base/core\los_task.c ****         return LOS_ERRNO_TSK_PRIOR_ERROR;
 3530              		.loc 2 1261 0
 3531 0012 334B     		ldr	r3, .L211
 3532 0014 60E0     		b	.L203
 3533              	.L202:
1262:C:/Users/dtjld/Desktop/AIoT_software/LiteOS_Lab_overseas/LiteOS_Lab/iot_link/os/liteos/base/core\los_task.c ****     }
1263:C:/Users/dtjld/Desktop/AIoT_software/LiteOS_Lab_overseas/LiteOS_Lab/iot_link/os/liteos/base/core\los_task.c **** 
1264:C:/Users/dtjld/Desktop/AIoT_software/LiteOS_Lab_overseas/LiteOS_Lab/iot_link/os/liteos/base/core\los_task.c ****     if (uwTaskID == g_uwIdleTaskID)
 3534              		.loc 2 1264 0
 3535 0016 334B     		ldr	r3, .L211+4
 3536 0018 1B68     		ldr	r3, [r3]
ARM GAS  C:\Users\dtjld\AppData\Local\Temp\ccU8krAq.s 			page 90


 3537 001a 7A68     		ldr	r2, [r7, #4]
 3538 001c 9A42     		cmp	r2, r3
 3539 001e 01D1     		bne	.L204
1265:C:/Users/dtjld/Desktop/AIoT_software/LiteOS_Lab_overseas/LiteOS_Lab/iot_link/os/liteos/base/core\los_task.c ****     {
1266:C:/Users/dtjld/Desktop/AIoT_software/LiteOS_Lab_overseas/LiteOS_Lab/iot_link/os/liteos/base/core\los_task.c ****         return LOS_ERRNO_TSK_OPERATE_IDLE;
 3540              		.loc 2 1266 0
 3541 0020 314B     		ldr	r3, .L211+8
 3542 0022 59E0     		b	.L203
 3543              	.L204:
1267:C:/Users/dtjld/Desktop/AIoT_software/LiteOS_Lab_overseas/LiteOS_Lab/iot_link/os/liteos/base/core\los_task.c ****     }
1268:C:/Users/dtjld/Desktop/AIoT_software/LiteOS_Lab_overseas/LiteOS_Lab/iot_link/os/liteos/base/core\los_task.c **** 
1269:C:/Users/dtjld/Desktop/AIoT_software/LiteOS_Lab_overseas/LiteOS_Lab/iot_link/os/liteos/base/core\los_task.c ****     if (uwTaskID == g_uwSwtmrTaskID)
 3544              		.loc 2 1269 0
 3545 0024 314B     		ldr	r3, .L211+12
 3546 0026 1B68     		ldr	r3, [r3]
 3547 0028 7A68     		ldr	r2, [r7, #4]
 3548 002a 9A42     		cmp	r2, r3
 3549 002c 01D1     		bne	.L205
1270:C:/Users/dtjld/Desktop/AIoT_software/LiteOS_Lab_overseas/LiteOS_Lab/iot_link/os/liteos/base/core\los_task.c ****     {
1271:C:/Users/dtjld/Desktop/AIoT_software/LiteOS_Lab_overseas/LiteOS_Lab/iot_link/os/liteos/base/core\los_task.c ****         return LOS_ERRNO_TSK_OPERATE_SWTMR;
 3550              		.loc 2 1271 0
 3551 002e 304B     		ldr	r3, .L211+16
 3552 0030 52E0     		b	.L203
 3553              	.L205:
1272:C:/Users/dtjld/Desktop/AIoT_software/LiteOS_Lab_overseas/LiteOS_Lab/iot_link/os/liteos/base/core\los_task.c ****     }
1273:C:/Users/dtjld/Desktop/AIoT_software/LiteOS_Lab_overseas/LiteOS_Lab/iot_link/os/liteos/base/core\los_task.c **** 
1274:C:/Users/dtjld/Desktop/AIoT_software/LiteOS_Lab_overseas/LiteOS_Lab/iot_link/os/liteos/base/core\los_task.c ****     if (OS_CHECK_TSK_PID_NOIDLE(uwTaskID))
 3554              		.loc 2 1274 0
 3555 0032 304B     		ldr	r3, .L211+20
 3556 0034 1B68     		ldr	r3, [r3]
 3557 0036 7A68     		ldr	r2, [r7, #4]
 3558 0038 9A42     		cmp	r2, r3
 3559 003a 01D3     		bcc	.L206
1275:C:/Users/dtjld/Desktop/AIoT_software/LiteOS_Lab_overseas/LiteOS_Lab/iot_link/os/liteos/base/core\los_task.c ****     {
1276:C:/Users/dtjld/Desktop/AIoT_software/LiteOS_Lab_overseas/LiteOS_Lab/iot_link/os/liteos/base/core\los_task.c ****         return LOS_ERRNO_TSK_ID_INVALID;
 3560              		.loc 2 1276 0
 3561 003c 2E4B     		ldr	r3, .L211+24
 3562 003e 4BE0     		b	.L203
 3563              	.L206:
1277:C:/Users/dtjld/Desktop/AIoT_software/LiteOS_Lab_overseas/LiteOS_Lab/iot_link/os/liteos/base/core\los_task.c ****     }
1278:C:/Users/dtjld/Desktop/AIoT_software/LiteOS_Lab_overseas/LiteOS_Lab/iot_link/os/liteos/base/core\los_task.c **** 
1279:C:/Users/dtjld/Desktop/AIoT_software/LiteOS_Lab_overseas/LiteOS_Lab/iot_link/os/liteos/base/core\los_task.c ****     pstTaskCB = OS_TCB_FROM_TID(uwTaskID);
 3564              		.loc 2 1279 0
 3565 0040 2E4B     		ldr	r3, .L211+28
 3566 0042 1A68     		ldr	r2, [r3]
 3567 0044 7B68     		ldr	r3, [r7, #4]
 3568 0046 5421     		movs	r1, #84
 3569 0048 01FB03F3 		mul	r3, r1, r3
 3570 004c 1344     		add	r3, r3, r2
 3571 004e 7B61     		str	r3, [r7, #20]
1280:C:/Users/dtjld/Desktop/AIoT_software/LiteOS_Lab_overseas/LiteOS_Lab/iot_link/os/liteos/base/core\los_task.c ****     uvIntSave = LOS_IntLock();
 3572              		.loc 2 1280 0
 3573 0050 FFF7FEFF 		bl	LOS_IntLock
 3574 0054 3861     		str	r0, [r7, #16]
1281:C:/Users/dtjld/Desktop/AIoT_software/LiteOS_Lab_overseas/LiteOS_Lab/iot_link/os/liteos/base/core\los_task.c ****     usTempStatus = pstTaskCB->usTaskStatus;
 3575              		.loc 2 1281 0
 3576 0056 7B69     		ldr	r3, [r7, #20]
ARM GAS  C:\Users\dtjld\AppData\Local\Temp\ccU8krAq.s 			page 91


 3577 0058 9B88     		ldrh	r3, [r3, #4]	@ movhi
 3578 005a FB81     		strh	r3, [r7, #14]	@ movhi
1282:C:/Users/dtjld/Desktop/AIoT_software/LiteOS_Lab_overseas/LiteOS_Lab/iot_link/os/liteos/base/core\los_task.c ****     if (OS_TASK_STATUS_UNUSED & usTempStatus)
 3579              		.loc 2 1282 0
 3580 005c FB89     		ldrh	r3, [r7, #14]	@ movhi
 3581 005e 03F00103 		and	r3, r3, #1
 3582 0062 9BB2     		uxth	r3, r3
 3583 0064 002B     		cmp	r3, #0
 3584 0066 04D0     		beq	.L207
1283:C:/Users/dtjld/Desktop/AIoT_software/LiteOS_Lab_overseas/LiteOS_Lab/iot_link/os/liteos/base/core\los_task.c ****     {
1284:C:/Users/dtjld/Desktop/AIoT_software/LiteOS_Lab_overseas/LiteOS_Lab/iot_link/os/liteos/base/core\los_task.c ****         (VOID)LOS_IntRestore(uvIntSave);
 3585              		.loc 2 1284 0
 3586 0068 3869     		ldr	r0, [r7, #16]
 3587 006a FFF7FEFF 		bl	LOS_IntRestore
1285:C:/Users/dtjld/Desktop/AIoT_software/LiteOS_Lab_overseas/LiteOS_Lab/iot_link/os/liteos/base/core\los_task.c ****         return LOS_ERRNO_TSK_NOT_CREATED;
 3588              		.loc 2 1285 0
 3589 006e 244B     		ldr	r3, .L211+32
 3590 0070 32E0     		b	.L203
 3591              	.L207:
1286:C:/Users/dtjld/Desktop/AIoT_software/LiteOS_Lab_overseas/LiteOS_Lab/iot_link/os/liteos/base/core\los_task.c ****     }
1287:C:/Users/dtjld/Desktop/AIoT_software/LiteOS_Lab_overseas/LiteOS_Lab/iot_link/os/liteos/base/core\los_task.c ****     /* delete the task and insert with right priority into ready queue */
1288:C:/Users/dtjld/Desktop/AIoT_software/LiteOS_Lab_overseas/LiteOS_Lab/iot_link/os/liteos/base/core\los_task.c ****     bIsReady = (OS_TASK_STATUS_READY & usTempStatus);
 3592              		.loc 2 1288 0
 3593 0072 FB89     		ldrh	r3, [r7, #14]
 3594 0074 03F00403 		and	r3, r3, #4
 3595 0078 BB60     		str	r3, [r7, #8]
1289:C:/Users/dtjld/Desktop/AIoT_software/LiteOS_Lab_overseas/LiteOS_Lab/iot_link/os/liteos/base/core\los_task.c ****     if (bIsReady)
 3596              		.loc 2 1289 0
 3597 007a BB68     		ldr	r3, [r7, #8]
 3598 007c 002B     		cmp	r3, #0
 3599 007e 1FD0     		beq	.L208
1290:C:/Users/dtjld/Desktop/AIoT_software/LiteOS_Lab_overseas/LiteOS_Lab/iot_link/os/liteos/base/core\los_task.c ****     {
1291:C:/Users/dtjld/Desktop/AIoT_software/LiteOS_Lab_overseas/LiteOS_Lab/iot_link/os/liteos/base/core\los_task.c ****         osPriqueueDequeue(&pstTaskCB->stPendList);
 3600              		.loc 2 1291 0
 3601 0080 7B69     		ldr	r3, [r7, #20]
 3602 0082 2833     		adds	r3, r3, #40
 3603 0084 1846     		mov	r0, r3
 3604 0086 FFF7FEFF 		bl	osPriqueueDequeue
1292:C:/Users/dtjld/Desktop/AIoT_software/LiteOS_Lab_overseas/LiteOS_Lab/iot_link/os/liteos/base/core\los_task.c ****         pstTaskCB->usTaskStatus &= (~OS_TASK_STATUS_READY);
 3605              		.loc 2 1292 0
 3606 008a 7B69     		ldr	r3, [r7, #20]
 3607 008c 9B88     		ldrh	r3, [r3, #4]
 3608 008e 23F00403 		bic	r3, r3, #4
 3609 0092 9AB2     		uxth	r2, r3
 3610 0094 7B69     		ldr	r3, [r7, #20]
 3611 0096 9A80     		strh	r2, [r3, #4]	@ movhi
1293:C:/Users/dtjld/Desktop/AIoT_software/LiteOS_Lab_overseas/LiteOS_Lab/iot_link/os/liteos/base/core\los_task.c ****         pstTaskCB->usPriority = usTaskPrio;
 3612              		.loc 2 1293 0
 3613 0098 7B69     		ldr	r3, [r7, #20]
 3614 009a 7A88     		ldrh	r2, [r7, #2]	@ movhi
 3615 009c DA80     		strh	r2, [r3, #6]	@ movhi
1294:C:/Users/dtjld/Desktop/AIoT_software/LiteOS_Lab_overseas/LiteOS_Lab/iot_link/os/liteos/base/core\los_task.c ****         pstTaskCB->usTaskStatus |= OS_TASK_STATUS_READY;
 3616              		.loc 2 1294 0
 3617 009e 7B69     		ldr	r3, [r7, #20]
 3618 00a0 9B88     		ldrh	r3, [r3, #4]
 3619 00a2 43F00403 		orr	r3, r3, #4
 3620 00a6 9AB2     		uxth	r2, r3
ARM GAS  C:\Users\dtjld\AppData\Local\Temp\ccU8krAq.s 			page 92


 3621 00a8 7B69     		ldr	r3, [r7, #20]
 3622 00aa 9A80     		strh	r2, [r3, #4]	@ movhi
1295:C:/Users/dtjld/Desktop/AIoT_software/LiteOS_Lab_overseas/LiteOS_Lab/iot_link/os/liteos/base/core\los_task.c ****         osPriqueueEnqueue(&pstTaskCB->stPendList, pstTaskCB->usPriority);
 3623              		.loc 2 1295 0
 3624 00ac 7B69     		ldr	r3, [r7, #20]
 3625 00ae 03F12802 		add	r2, r3, #40
 3626 00b2 7B69     		ldr	r3, [r7, #20]
 3627 00b4 DB88     		ldrh	r3, [r3, #6]
 3628 00b6 1946     		mov	r1, r3
 3629 00b8 1046     		mov	r0, r2
 3630 00ba FFF7FEFF 		bl	osPriqueueEnqueue
 3631 00be 02E0     		b	.L209
 3632              	.L208:
1296:C:/Users/dtjld/Desktop/AIoT_software/LiteOS_Lab_overseas/LiteOS_Lab/iot_link/os/liteos/base/core\los_task.c ****     }
1297:C:/Users/dtjld/Desktop/AIoT_software/LiteOS_Lab_overseas/LiteOS_Lab/iot_link/os/liteos/base/core\los_task.c ****     else
1298:C:/Users/dtjld/Desktop/AIoT_software/LiteOS_Lab_overseas/LiteOS_Lab/iot_link/os/liteos/base/core\los_task.c ****     {
1299:C:/Users/dtjld/Desktop/AIoT_software/LiteOS_Lab_overseas/LiteOS_Lab/iot_link/os/liteos/base/core\los_task.c ****         pstTaskCB->usPriority = usTaskPrio;
 3633              		.loc 2 1299 0
 3634 00c0 7B69     		ldr	r3, [r7, #20]
 3635 00c2 7A88     		ldrh	r2, [r7, #2]	@ movhi
 3636 00c4 DA80     		strh	r2, [r3, #6]	@ movhi
 3637              	.L209:
1300:C:/Users/dtjld/Desktop/AIoT_software/LiteOS_Lab_overseas/LiteOS_Lab/iot_link/os/liteos/base/core\los_task.c ****     }
1301:C:/Users/dtjld/Desktop/AIoT_software/LiteOS_Lab_overseas/LiteOS_Lab/iot_link/os/liteos/base/core\los_task.c **** 
1302:C:/Users/dtjld/Desktop/AIoT_software/LiteOS_Lab_overseas/LiteOS_Lab/iot_link/os/liteos/base/core\los_task.c ****     (VOID)LOS_IntRestore(uvIntSave);
 3638              		.loc 2 1302 0
 3639 00c6 3869     		ldr	r0, [r7, #16]
 3640 00c8 FFF7FEFF 		bl	LOS_IntRestore
1303:C:/Users/dtjld/Desktop/AIoT_software/LiteOS_Lab_overseas/LiteOS_Lab/iot_link/os/liteos/base/core\los_task.c ****     /* delete the task and insert with right priority into ready queue */
1304:C:/Users/dtjld/Desktop/AIoT_software/LiteOS_Lab_overseas/LiteOS_Lab/iot_link/os/liteos/base/core\los_task.c ****     if (bIsReady)
 3641              		.loc 2 1304 0
 3642 00cc BB68     		ldr	r3, [r7, #8]
 3643 00ce 002B     		cmp	r3, #0
 3644 00d0 01D0     		beq	.L210
1305:C:/Users/dtjld/Desktop/AIoT_software/LiteOS_Lab_overseas/LiteOS_Lab/iot_link/os/liteos/base/core\los_task.c ****     {
1306:C:/Users/dtjld/Desktop/AIoT_software/LiteOS_Lab_overseas/LiteOS_Lab/iot_link/os/liteos/base/core\los_task.c ****         LOS_Schedule();
 3645              		.loc 2 1306 0
 3646 00d2 FFF7FEFF 		bl	LOS_Schedule
 3647              	.L210:
1307:C:/Users/dtjld/Desktop/AIoT_software/LiteOS_Lab_overseas/LiteOS_Lab/iot_link/os/liteos/base/core\los_task.c ****     }
1308:C:/Users/dtjld/Desktop/AIoT_software/LiteOS_Lab_overseas/LiteOS_Lab/iot_link/os/liteos/base/core\los_task.c **** 
1309:C:/Users/dtjld/Desktop/AIoT_software/LiteOS_Lab_overseas/LiteOS_Lab/iot_link/os/liteos/base/core\los_task.c ****     return LOS_OK;
 3648              		.loc 2 1309 0
 3649 00d6 0023     		movs	r3, #0
 3650              	.L203:
1310:C:/Users/dtjld/Desktop/AIoT_software/LiteOS_Lab_overseas/LiteOS_Lab/iot_link/os/liteos/base/core\los_task.c **** }
 3651              		.loc 2 1310 0
 3652 00d8 1846     		mov	r0, r3
 3653 00da 1837     		adds	r7, r7, #24
 3654              	.LCFI138:
 3655              		.cfi_def_cfa_offset 8
 3656 00dc BD46     		mov	sp, r7
 3657              	.LCFI139:
 3658              		.cfi_def_cfa_register 13
 3659              		@ sp needed
 3660 00de 80BD     		pop	{r7, pc}
 3661              	.L212:
ARM GAS  C:\Users\dtjld\AppData\Local\Temp\ccU8krAq.s 			page 93


 3662              		.align	2
 3663              	.L211:
 3664 00e0 03020002 		.word	33554947
 3665 00e4 00000000 		.word	g_uwIdleTaskID
 3666 00e8 14020002 		.word	33554964
 3667 00ec 00000000 		.word	g_uwSwtmrTaskID
 3668 00f0 22020002 		.word	33554978
 3669 00f4 00000000 		.word	g_uwTskMaxNum
 3670 00f8 07020002 		.word	33554951
 3671 00fc 00000000 		.word	g_pstTaskCBArray
 3672 0100 0A020002 		.word	33554954
 3673              		.cfi_endproc
 3674              	.LFE153:
 3676              		.section	.text.LOS_CurTaskPriSet,"ax",%progbits
 3677              		.align	1
 3678              		.global	LOS_CurTaskPriSet
 3679              		.syntax unified
 3680              		.thumb
 3681              		.thumb_func
 3682              		.fpu fpv4-sp-d16
 3684              	LOS_CurTaskPriSet:
 3685              	.LFB154:
1311:C:/Users/dtjld/Desktop/AIoT_software/LiteOS_Lab_overseas/LiteOS_Lab/iot_link/os/liteos/base/core\los_task.c **** 
1312:C:/Users/dtjld/Desktop/AIoT_software/LiteOS_Lab_overseas/LiteOS_Lab/iot_link/os/liteos/base/core\los_task.c **** /*****************************************************************************
1313:C:/Users/dtjld/Desktop/AIoT_software/LiteOS_Lab_overseas/LiteOS_Lab/iot_link/os/liteos/base/core\los_task.c ****  Function : LOS_CurTaskPriSet
1314:C:/Users/dtjld/Desktop/AIoT_software/LiteOS_Lab_overseas/LiteOS_Lab/iot_link/os/liteos/base/core\los_task.c ****  Description : Set the priority of the current task
1315:C:/Users/dtjld/Desktop/AIoT_software/LiteOS_Lab_overseas/LiteOS_Lab/iot_link/os/liteos/base/core\los_task.c ****  Input       : usTaskPrio
1316:C:/Users/dtjld/Desktop/AIoT_software/LiteOS_Lab_overseas/LiteOS_Lab/iot_link/os/liteos/base/core\los_task.c ****  Output      : None
1317:C:/Users/dtjld/Desktop/AIoT_software/LiteOS_Lab_overseas/LiteOS_Lab/iot_link/os/liteos/base/core\los_task.c ****  Return      : None
1318:C:/Users/dtjld/Desktop/AIoT_software/LiteOS_Lab_overseas/LiteOS_Lab/iot_link/os/liteos/base/core\los_task.c ****  *****************************************************************************/
1319:C:/Users/dtjld/Desktop/AIoT_software/LiteOS_Lab_overseas/LiteOS_Lab/iot_link/os/liteos/base/core\los_task.c **** LITE_OS_SEC_TEXT_MINOR UINT32 LOS_CurTaskPriSet(UINT16 usTaskPrio)
1320:C:/Users/dtjld/Desktop/AIoT_software/LiteOS_Lab_overseas/LiteOS_Lab/iot_link/os/liteos/base/core\los_task.c **** {
 3686              		.loc 2 1320 0
 3687              		.cfi_startproc
 3688              		@ args = 0, pretend = 0, frame = 16
 3689              		@ frame_needed = 1, uses_anonymous_args = 0
 3690 0000 80B5     		push	{r7, lr}
 3691              	.LCFI140:
 3692              		.cfi_def_cfa_offset 8
 3693              		.cfi_offset 7, -8
 3694              		.cfi_offset 14, -4
 3695 0002 84B0     		sub	sp, sp, #16
 3696              	.LCFI141:
 3697              		.cfi_def_cfa_offset 24
 3698 0004 00AF     		add	r7, sp, #0
 3699              	.LCFI142:
 3700              		.cfi_def_cfa_register 7
 3701 0006 0346     		mov	r3, r0
 3702 0008 FB80     		strh	r3, [r7, #6]	@ movhi
1321:C:/Users/dtjld/Desktop/AIoT_software/LiteOS_Lab_overseas/LiteOS_Lab/iot_link/os/liteos/base/core\los_task.c ****     UINT32 uwRet;
1322:C:/Users/dtjld/Desktop/AIoT_software/LiteOS_Lab_overseas/LiteOS_Lab/iot_link/os/liteos/base/core\los_task.c ****     uwRet = LOS_TaskPriSet(g_stLosTask.pstRunTask->uwTaskID, usTaskPrio);
 3703              		.loc 2 1322 0
 3704 000a 074B     		ldr	r3, .L215
 3705 000c 1B68     		ldr	r3, [r3]
 3706 000e 1B69     		ldr	r3, [r3, #16]
 3707 0010 FA88     		ldrh	r2, [r7, #6]
 3708 0012 1146     		mov	r1, r2
ARM GAS  C:\Users\dtjld\AppData\Local\Temp\ccU8krAq.s 			page 94


 3709 0014 1846     		mov	r0, r3
 3710 0016 FFF7FEFF 		bl	LOS_TaskPriSet
 3711 001a F860     		str	r0, [r7, #12]
1323:C:/Users/dtjld/Desktop/AIoT_software/LiteOS_Lab_overseas/LiteOS_Lab/iot_link/os/liteos/base/core\los_task.c ****     return uwRet;
 3712              		.loc 2 1323 0
 3713 001c FB68     		ldr	r3, [r7, #12]
1324:C:/Users/dtjld/Desktop/AIoT_software/LiteOS_Lab_overseas/LiteOS_Lab/iot_link/os/liteos/base/core\los_task.c **** }
 3714              		.loc 2 1324 0
 3715 001e 1846     		mov	r0, r3
 3716 0020 1037     		adds	r7, r7, #16
 3717              	.LCFI143:
 3718              		.cfi_def_cfa_offset 8
 3719 0022 BD46     		mov	sp, r7
 3720              	.LCFI144:
 3721              		.cfi_def_cfa_register 13
 3722              		@ sp needed
 3723 0024 80BD     		pop	{r7, pc}
 3724              	.L216:
 3725 0026 00BF     		.align	2
 3726              	.L215:
 3727 0028 00000000 		.word	g_stLosTask
 3728              		.cfi_endproc
 3729              	.LFE154:
 3731              		.section	.text.osTaskWait,"ax",%progbits
 3732              		.align	1
 3733              		.global	osTaskWait
 3734              		.syntax unified
 3735              		.thumb
 3736              		.thumb_func
 3737              		.fpu fpv4-sp-d16
 3739              	osTaskWait:
 3740              	.LFB155:
1325:C:/Users/dtjld/Desktop/AIoT_software/LiteOS_Lab_overseas/LiteOS_Lab/iot_link/os/liteos/base/core\los_task.c **** 
1326:C:/Users/dtjld/Desktop/AIoT_software/LiteOS_Lab_overseas/LiteOS_Lab/iot_link/os/liteos/base/core\los_task.c **** /**************************************************************************
1327:C:/Users/dtjld/Desktop/AIoT_software/LiteOS_Lab_overseas/LiteOS_Lab/iot_link/os/liteos/base/core\los_task.c ****  Function    : osTaskWait
1328:C:/Users/dtjld/Desktop/AIoT_software/LiteOS_Lab_overseas/LiteOS_Lab/iot_link/os/liteos/base/core\los_task.c ****  Description : pend a task in pstList
1329:C:/Users/dtjld/Desktop/AIoT_software/LiteOS_Lab_overseas/LiteOS_Lab/iot_link/os/liteos/base/core\los_task.c ****  Input       : pstList
1330:C:/Users/dtjld/Desktop/AIoT_software/LiteOS_Lab_overseas/LiteOS_Lab/iot_link/os/liteos/base/core\los_task.c ****                uwTimeOut -- Expiry time
1331:C:/Users/dtjld/Desktop/AIoT_software/LiteOS_Lab_overseas/LiteOS_Lab/iot_link/os/liteos/base/core\los_task.c ****  Output      : none
1332:C:/Users/dtjld/Desktop/AIoT_software/LiteOS_Lab_overseas/LiteOS_Lab/iot_link/os/liteos/base/core\los_task.c ****  Return      : LOS_OK on success or LOS_NOK on failure
1333:C:/Users/dtjld/Desktop/AIoT_software/LiteOS_Lab_overseas/LiteOS_Lab/iot_link/os/liteos/base/core\los_task.c **** **************************************************************************/
1334:C:/Users/dtjld/Desktop/AIoT_software/LiteOS_Lab_overseas/LiteOS_Lab/iot_link/os/liteos/base/core\los_task.c **** LITE_OS_SEC_TEXT VOID osTaskWait(LOS_DL_LIST *pstList, UINT32 uwTaskStatus, UINT32 uwTimeOut)
1335:C:/Users/dtjld/Desktop/AIoT_software/LiteOS_Lab_overseas/LiteOS_Lab/iot_link/os/liteos/base/core\los_task.c **** {
 3741              		.loc 2 1335 0
 3742              		.cfi_startproc
 3743              		@ args = 0, pretend = 0, frame = 24
 3744              		@ frame_needed = 1, uses_anonymous_args = 0
 3745 0000 80B5     		push	{r7, lr}
 3746              	.LCFI145:
 3747              		.cfi_def_cfa_offset 8
 3748              		.cfi_offset 7, -8
 3749              		.cfi_offset 14, -4
 3750 0002 86B0     		sub	sp, sp, #24
 3751              	.LCFI146:
 3752              		.cfi_def_cfa_offset 32
 3753 0004 00AF     		add	r7, sp, #0
 3754              	.LCFI147:
ARM GAS  C:\Users\dtjld\AppData\Local\Temp\ccU8krAq.s 			page 95


 3755              		.cfi_def_cfa_register 7
 3756 0006 F860     		str	r0, [r7, #12]
 3757 0008 B960     		str	r1, [r7, #8]
 3758 000a 7A60     		str	r2, [r7, #4]
1336:C:/Users/dtjld/Desktop/AIoT_software/LiteOS_Lab_overseas/LiteOS_Lab/iot_link/os/liteos/base/core\los_task.c ****     LOS_TASK_CB *pstRunTsk;
1337:C:/Users/dtjld/Desktop/AIoT_software/LiteOS_Lab_overseas/LiteOS_Lab/iot_link/os/liteos/base/core\los_task.c ****     LOS_DL_LIST *pstPendObj;
1338:C:/Users/dtjld/Desktop/AIoT_software/LiteOS_Lab_overseas/LiteOS_Lab/iot_link/os/liteos/base/core\los_task.c **** 
1339:C:/Users/dtjld/Desktop/AIoT_software/LiteOS_Lab_overseas/LiteOS_Lab/iot_link/os/liteos/base/core\los_task.c ****     pstRunTsk = g_stLosTask.pstRunTask;
 3759              		.loc 2 1339 0
 3760 000c 184B     		ldr	r3, .L220
 3761 000e 1B68     		ldr	r3, [r3]
 3762 0010 7B61     		str	r3, [r7, #20]
1340:C:/Users/dtjld/Desktop/AIoT_software/LiteOS_Lab_overseas/LiteOS_Lab/iot_link/os/liteos/base/core\los_task.c ****     osPriqueueDequeue(&pstRunTsk->stPendList);
 3763              		.loc 2 1340 0
 3764 0012 7B69     		ldr	r3, [r7, #20]
 3765 0014 2833     		adds	r3, r3, #40
 3766 0016 1846     		mov	r0, r3
 3767 0018 FFF7FEFF 		bl	osPriqueueDequeue
1341:C:/Users/dtjld/Desktop/AIoT_software/LiteOS_Lab_overseas/LiteOS_Lab/iot_link/os/liteos/base/core\los_task.c ****     pstRunTsk->usTaskStatus &= (~OS_TASK_STATUS_READY);
 3768              		.loc 2 1341 0
 3769 001c 7B69     		ldr	r3, [r7, #20]
 3770 001e 9B88     		ldrh	r3, [r3, #4]
 3771 0020 23F00403 		bic	r3, r3, #4
 3772 0024 9AB2     		uxth	r2, r3
 3773 0026 7B69     		ldr	r3, [r7, #20]
 3774 0028 9A80     		strh	r2, [r3, #4]	@ movhi
1342:C:/Users/dtjld/Desktop/AIoT_software/LiteOS_Lab_overseas/LiteOS_Lab/iot_link/os/liteos/base/core\los_task.c ****     pstPendObj = &pstRunTsk->stPendList;
 3775              		.loc 2 1342 0
 3776 002a 7B69     		ldr	r3, [r7, #20]
 3777 002c 2833     		adds	r3, r3, #40
 3778 002e 3B61     		str	r3, [r7, #16]
1343:C:/Users/dtjld/Desktop/AIoT_software/LiteOS_Lab_overseas/LiteOS_Lab/iot_link/os/liteos/base/core\los_task.c ****     pstRunTsk->usTaskStatus |= uwTaskStatus;
 3779              		.loc 2 1343 0
 3780 0030 7B69     		ldr	r3, [r7, #20]
 3781 0032 9A88     		ldrh	r2, [r3, #4]
 3782 0034 BB68     		ldr	r3, [r7, #8]
 3783 0036 9BB2     		uxth	r3, r3
 3784 0038 1343     		orrs	r3, r3, r2
 3785 003a 9AB2     		uxth	r2, r3
 3786 003c 7B69     		ldr	r3, [r7, #20]
 3787 003e 9A80     		strh	r2, [r3, #4]	@ movhi
1344:C:/Users/dtjld/Desktop/AIoT_software/LiteOS_Lab_overseas/LiteOS_Lab/iot_link/os/liteos/base/core\los_task.c ****     LOS_ListTailInsert(pstList,pstPendObj);
 3788              		.loc 2 1344 0
 3789 0040 3969     		ldr	r1, [r7, #16]
 3790 0042 F868     		ldr	r0, [r7, #12]
 3791 0044 FFF7FEFF 		bl	LOS_ListTailInsert
1345:C:/Users/dtjld/Desktop/AIoT_software/LiteOS_Lab_overseas/LiteOS_Lab/iot_link/os/liteos/base/core\los_task.c ****     if (uwTimeOut != LOS_WAIT_FOREVER)
 3792              		.loc 2 1345 0
 3793 0048 7B68     		ldr	r3, [r7, #4]
 3794 004a B3F1FF3F 		cmp	r3, #-1
 3795 004e 0AD0     		beq	.L219
1346:C:/Users/dtjld/Desktop/AIoT_software/LiteOS_Lab_overseas/LiteOS_Lab/iot_link/os/liteos/base/core\los_task.c ****     {
1347:C:/Users/dtjld/Desktop/AIoT_software/LiteOS_Lab_overseas/LiteOS_Lab/iot_link/os/liteos/base/core\los_task.c ****         pstRunTsk->usTaskStatus |= OS_TASK_STATUS_TIMEOUT;
 3796              		.loc 2 1347 0
 3797 0050 7B69     		ldr	r3, [r7, #20]
 3798 0052 9B88     		ldrh	r3, [r3, #4]
 3799 0054 43F04003 		orr	r3, r3, #64
ARM GAS  C:\Users\dtjld\AppData\Local\Temp\ccU8krAq.s 			page 96


 3800 0058 9AB2     		uxth	r2, r3
 3801 005a 7B69     		ldr	r3, [r7, #20]
 3802 005c 9A80     		strh	r2, [r3, #4]	@ movhi
1348:C:/Users/dtjld/Desktop/AIoT_software/LiteOS_Lab_overseas/LiteOS_Lab/iot_link/os/liteos/base/core\los_task.c ****         osTaskAdd2TimerList((LOS_TASK_CB *)pstRunTsk, uwTimeOut);
 3803              		.loc 2 1348 0
 3804 005e 7968     		ldr	r1, [r7, #4]
 3805 0060 7869     		ldr	r0, [r7, #20]
 3806 0062 FFF7FEFF 		bl	osTaskAdd2TimerList
 3807              	.L219:
1349:C:/Users/dtjld/Desktop/AIoT_software/LiteOS_Lab_overseas/LiteOS_Lab/iot_link/os/liteos/base/core\los_task.c ****     }
1350:C:/Users/dtjld/Desktop/AIoT_software/LiteOS_Lab_overseas/LiteOS_Lab/iot_link/os/liteos/base/core\los_task.c **** }
 3808              		.loc 2 1350 0
 3809 0066 00BF     		nop
 3810 0068 1837     		adds	r7, r7, #24
 3811              	.LCFI148:
 3812              		.cfi_def_cfa_offset 8
 3813 006a BD46     		mov	sp, r7
 3814              	.LCFI149:
 3815              		.cfi_def_cfa_register 13
 3816              		@ sp needed
 3817 006c 80BD     		pop	{r7, pc}
 3818              	.L221:
 3819 006e 00BF     		.align	2
 3820              	.L220:
 3821 0070 00000000 		.word	g_stLosTask
 3822              		.cfi_endproc
 3823              	.LFE155:
 3825              		.section	.text.osTaskWake,"ax",%progbits
 3826              		.align	1
 3827              		.global	osTaskWake
 3828              		.syntax unified
 3829              		.thumb
 3830              		.thumb_func
 3831              		.fpu fpv4-sp-d16
 3833              	osTaskWake:
 3834              	.LFB156:
1351:C:/Users/dtjld/Desktop/AIoT_software/LiteOS_Lab_overseas/LiteOS_Lab/iot_link/os/liteos/base/core\los_task.c **** 
1352:C:/Users/dtjld/Desktop/AIoT_software/LiteOS_Lab_overseas/LiteOS_Lab/iot_link/os/liteos/base/core\los_task.c **** /**************************************************************************
1353:C:/Users/dtjld/Desktop/AIoT_software/LiteOS_Lab_overseas/LiteOS_Lab/iot_link/os/liteos/base/core\los_task.c ****  Function    : osTaskWake
1354:C:/Users/dtjld/Desktop/AIoT_software/LiteOS_Lab_overseas/LiteOS_Lab/iot_link/os/liteos/base/core\los_task.c ****  Description : delete the task from pendlist and also add to the priqueue
1355:C:/Users/dtjld/Desktop/AIoT_software/LiteOS_Lab_overseas/LiteOS_Lab/iot_link/os/liteos/base/core\los_task.c ****  Input       : pstResumedTask --> resumed task
1356:C:/Users/dtjld/Desktop/AIoT_software/LiteOS_Lab_overseas/LiteOS_Lab/iot_link/os/liteos/base/core\los_task.c ****  Output      : pstResumedTask
1357:C:/Users/dtjld/Desktop/AIoT_software/LiteOS_Lab_overseas/LiteOS_Lab/iot_link/os/liteos/base/core\los_task.c ****  Return      : none
1358:C:/Users/dtjld/Desktop/AIoT_software/LiteOS_Lab_overseas/LiteOS_Lab/iot_link/os/liteos/base/core\los_task.c **** **************************************************************************/
1359:C:/Users/dtjld/Desktop/AIoT_software/LiteOS_Lab_overseas/LiteOS_Lab/iot_link/os/liteos/base/core\los_task.c **** LITE_OS_SEC_TEXT VOID osTaskWake(LOS_TASK_CB *pstResumedTask, UINT32 uwTaskStatus)
1360:C:/Users/dtjld/Desktop/AIoT_software/LiteOS_Lab_overseas/LiteOS_Lab/iot_link/os/liteos/base/core\los_task.c **** {
 3835              		.loc 2 1360 0
 3836              		.cfi_startproc
 3837              		@ args = 0, pretend = 0, frame = 8
 3838              		@ frame_needed = 1, uses_anonymous_args = 0
 3839 0000 80B5     		push	{r7, lr}
 3840              	.LCFI150:
 3841              		.cfi_def_cfa_offset 8
 3842              		.cfi_offset 7, -8
 3843              		.cfi_offset 14, -4
 3844 0002 82B0     		sub	sp, sp, #8
 3845              	.LCFI151:
ARM GAS  C:\Users\dtjld\AppData\Local\Temp\ccU8krAq.s 			page 97


 3846              		.cfi_def_cfa_offset 16
 3847 0004 00AF     		add	r7, sp, #0
 3848              	.LCFI152:
 3849              		.cfi_def_cfa_register 7
 3850 0006 7860     		str	r0, [r7, #4]
 3851 0008 3960     		str	r1, [r7]
1361:C:/Users/dtjld/Desktop/AIoT_software/LiteOS_Lab_overseas/LiteOS_Lab/iot_link/os/liteos/base/core\los_task.c ****     LOS_ListDelete(&pstResumedTask->stPendList);
 3852              		.loc 2 1361 0
 3853 000a 7B68     		ldr	r3, [r7, #4]
 3854 000c 2833     		adds	r3, r3, #40
 3855 000e 1846     		mov	r0, r3
 3856 0010 FFF7FEFF 		bl	LOS_ListDelete
1362:C:/Users/dtjld/Desktop/AIoT_software/LiteOS_Lab_overseas/LiteOS_Lab/iot_link/os/liteos/base/core\los_task.c ****     pstResumedTask->usTaskStatus &= (~uwTaskStatus);
 3857              		.loc 2 1362 0
 3858 0014 7B68     		ldr	r3, [r7, #4]
 3859 0016 9A88     		ldrh	r2, [r3, #4]
 3860 0018 3B68     		ldr	r3, [r7]
 3861 001a 9BB2     		uxth	r3, r3
 3862 001c DB43     		mvns	r3, r3
 3863 001e 9BB2     		uxth	r3, r3
 3864 0020 1340     		ands	r3, r3, r2
 3865 0022 9AB2     		uxth	r2, r3
 3866 0024 7B68     		ldr	r3, [r7, #4]
 3867 0026 9A80     		strh	r2, [r3, #4]	@ movhi
1363:C:/Users/dtjld/Desktop/AIoT_software/LiteOS_Lab_overseas/LiteOS_Lab/iot_link/os/liteos/base/core\los_task.c ****     if (pstResumedTask->usTaskStatus & OS_TASK_STATUS_TIMEOUT)
 3868              		.loc 2 1363 0
 3869 0028 7B68     		ldr	r3, [r7, #4]
 3870 002a 9B88     		ldrh	r3, [r3, #4]
 3871 002c 03F04003 		and	r3, r3, #64
 3872 0030 002B     		cmp	r3, #0
 3873 0032 09D0     		beq	.L223
1364:C:/Users/dtjld/Desktop/AIoT_software/LiteOS_Lab_overseas/LiteOS_Lab/iot_link/os/liteos/base/core\los_task.c ****     {
1365:C:/Users/dtjld/Desktop/AIoT_software/LiteOS_Lab_overseas/LiteOS_Lab/iot_link/os/liteos/base/core\los_task.c ****         osTimerListDelete(pstResumedTask);
 3874              		.loc 2 1365 0
 3875 0034 7868     		ldr	r0, [r7, #4]
 3876 0036 FFF7FEFF 		bl	osTimerListDelete
1366:C:/Users/dtjld/Desktop/AIoT_software/LiteOS_Lab_overseas/LiteOS_Lab/iot_link/os/liteos/base/core\los_task.c ****         pstResumedTask->usTaskStatus &= (~OS_TASK_STATUS_TIMEOUT);
 3877              		.loc 2 1366 0
 3878 003a 7B68     		ldr	r3, [r7, #4]
 3879 003c 9B88     		ldrh	r3, [r3, #4]
 3880 003e 23F04003 		bic	r3, r3, #64
 3881 0042 9AB2     		uxth	r2, r3
 3882 0044 7B68     		ldr	r3, [r7, #4]
 3883 0046 9A80     		strh	r2, [r3, #4]	@ movhi
 3884              	.L223:
1367:C:/Users/dtjld/Desktop/AIoT_software/LiteOS_Lab_overseas/LiteOS_Lab/iot_link/os/liteos/base/core\los_task.c ****     }
1368:C:/Users/dtjld/Desktop/AIoT_software/LiteOS_Lab_overseas/LiteOS_Lab/iot_link/os/liteos/base/core\los_task.c ****     if (!(pstResumedTask->usTaskStatus & OS_TASK_STATUS_SUSPEND))
 3885              		.loc 2 1368 0
 3886 0048 7B68     		ldr	r3, [r7, #4]
 3887 004a 9B88     		ldrh	r3, [r3, #4]
 3888 004c 03F00203 		and	r3, r3, #2
 3889 0050 002B     		cmp	r3, #0
 3890 0052 0FD1     		bne	.L225
1369:C:/Users/dtjld/Desktop/AIoT_software/LiteOS_Lab_overseas/LiteOS_Lab/iot_link/os/liteos/base/core\los_task.c ****     {
1370:C:/Users/dtjld/Desktop/AIoT_software/LiteOS_Lab_overseas/LiteOS_Lab/iot_link/os/liteos/base/core\los_task.c ****         pstResumedTask->usTaskStatus |= OS_TASK_STATUS_READY;
 3891              		.loc 2 1370 0
 3892 0054 7B68     		ldr	r3, [r7, #4]
ARM GAS  C:\Users\dtjld\AppData\Local\Temp\ccU8krAq.s 			page 98


 3893 0056 9B88     		ldrh	r3, [r3, #4]
 3894 0058 43F00403 		orr	r3, r3, #4
 3895 005c 9AB2     		uxth	r2, r3
 3896 005e 7B68     		ldr	r3, [r7, #4]
 3897 0060 9A80     		strh	r2, [r3, #4]	@ movhi
1371:C:/Users/dtjld/Desktop/AIoT_software/LiteOS_Lab_overseas/LiteOS_Lab/iot_link/os/liteos/base/core\los_task.c ****         osPriqueueEnqueue(&pstResumedTask->stPendList, pstResumedTask->usPriority);
 3898              		.loc 2 1371 0
 3899 0062 7B68     		ldr	r3, [r7, #4]
 3900 0064 03F12802 		add	r2, r3, #40
 3901 0068 7B68     		ldr	r3, [r7, #4]
 3902 006a DB88     		ldrh	r3, [r3, #6]
 3903 006c 1946     		mov	r1, r3
 3904 006e 1046     		mov	r0, r2
 3905 0070 FFF7FEFF 		bl	osPriqueueEnqueue
 3906              	.L225:
1372:C:/Users/dtjld/Desktop/AIoT_software/LiteOS_Lab_overseas/LiteOS_Lab/iot_link/os/liteos/base/core\los_task.c ****     }
1373:C:/Users/dtjld/Desktop/AIoT_software/LiteOS_Lab_overseas/LiteOS_Lab/iot_link/os/liteos/base/core\los_task.c **** }
 3907              		.loc 2 1373 0
 3908 0074 00BF     		nop
 3909 0076 0837     		adds	r7, r7, #8
 3910              	.LCFI153:
 3911              		.cfi_def_cfa_offset 8
 3912 0078 BD46     		mov	sp, r7
 3913              	.LCFI154:
 3914              		.cfi_def_cfa_register 13
 3915              		@ sp needed
 3916 007a 80BD     		pop	{r7, pc}
 3917              		.cfi_endproc
 3918              	.LFE156:
 3920              		.section	.text.LOS_TaskYield,"ax",%progbits
 3921              		.align	1
 3922              		.global	LOS_TaskYield
 3923              		.syntax unified
 3924              		.thumb
 3925              		.thumb_func
 3926              		.fpu fpv4-sp-d16
 3928              	LOS_TaskYield:
 3929              	.LFB157:
1374:C:/Users/dtjld/Desktop/AIoT_software/LiteOS_Lab_overseas/LiteOS_Lab/iot_link/os/liteos/base/core\los_task.c **** 
1375:C:/Users/dtjld/Desktop/AIoT_software/LiteOS_Lab_overseas/LiteOS_Lab/iot_link/os/liteos/base/core\los_task.c **** /*****************************************************************************
1376:C:/Users/dtjld/Desktop/AIoT_software/LiteOS_Lab_overseas/LiteOS_Lab/iot_link/os/liteos/base/core\los_task.c ****  Function : LOS_TaskYield
1377:C:/Users/dtjld/Desktop/AIoT_software/LiteOS_Lab_overseas/LiteOS_Lab/iot_link/os/liteos/base/core\los_task.c ****  Description : Adjust the procedure order of specified task
1378:C:/Users/dtjld/Desktop/AIoT_software/LiteOS_Lab_overseas/LiteOS_Lab/iot_link/os/liteos/base/core\los_task.c ****  Input       : usTaskPrio
1379:C:/Users/dtjld/Desktop/AIoT_software/LiteOS_Lab_overseas/LiteOS_Lab/iot_link/os/liteos/base/core\los_task.c ****                uwNextTask
1380:C:/Users/dtjld/Desktop/AIoT_software/LiteOS_Lab_overseas/LiteOS_Lab/iot_link/os/liteos/base/core\los_task.c ****  Output      : None
1381:C:/Users/dtjld/Desktop/AIoT_software/LiteOS_Lab_overseas/LiteOS_Lab/iot_link/os/liteos/base/core\los_task.c ****  Return      : LOS_OK on success or error code on failure
1382:C:/Users/dtjld/Desktop/AIoT_software/LiteOS_Lab_overseas/LiteOS_Lab/iot_link/os/liteos/base/core\los_task.c ****  *****************************************************************************/
1383:C:/Users/dtjld/Desktop/AIoT_software/LiteOS_Lab_overseas/LiteOS_Lab/iot_link/os/liteos/base/core\los_task.c **** LITE_OS_SEC_TEXT_MINOR UINT32 LOS_TaskYield(VOID)
1384:C:/Users/dtjld/Desktop/AIoT_software/LiteOS_Lab_overseas/LiteOS_Lab/iot_link/os/liteos/base/core\los_task.c **** {
 3930              		.loc 2 1384 0
 3931              		.cfi_startproc
 3932              		@ args = 0, pretend = 0, frame = 8
 3933              		@ frame_needed = 1, uses_anonymous_args = 0
 3934 0000 80B5     		push	{r7, lr}
 3935              	.LCFI155:
 3936              		.cfi_def_cfa_offset 8
 3937              		.cfi_offset 7, -8
ARM GAS  C:\Users\dtjld\AppData\Local\Temp\ccU8krAq.s 			page 99


 3938              		.cfi_offset 14, -4
 3939 0002 82B0     		sub	sp, sp, #8
 3940              	.LCFI156:
 3941              		.cfi_def_cfa_offset 16
 3942 0004 00AF     		add	r7, sp, #0
 3943              	.LCFI157:
 3944              		.cfi_def_cfa_register 7
1385:C:/Users/dtjld/Desktop/AIoT_software/LiteOS_Lab_overseas/LiteOS_Lab/iot_link/os/liteos/base/core\los_task.c ****     UINT32 uwTskCount = 0;
 3945              		.loc 2 1385 0
 3946 0006 0023     		movs	r3, #0
 3947 0008 7B60     		str	r3, [r7, #4]
1386:C:/Users/dtjld/Desktop/AIoT_software/LiteOS_Lab_overseas/LiteOS_Lab/iot_link/os/liteos/base/core\los_task.c ****     UINTPTR uvIntSave;
1387:C:/Users/dtjld/Desktop/AIoT_software/LiteOS_Lab_overseas/LiteOS_Lab/iot_link/os/liteos/base/core\los_task.c **** 
1388:C:/Users/dtjld/Desktop/AIoT_software/LiteOS_Lab_overseas/LiteOS_Lab/iot_link/os/liteos/base/core\los_task.c ****     if(g_stLosTask.pstRunTask->uwTaskID >= g_uwTskMaxNum)
 3948              		.loc 2 1388 0
 3949 000a 244B     		ldr	r3, .L232
 3950 000c 1B68     		ldr	r3, [r3]
 3951 000e 1A69     		ldr	r2, [r3, #16]
 3952 0010 234B     		ldr	r3, .L232+4
 3953 0012 1B68     		ldr	r3, [r3]
 3954 0014 9A42     		cmp	r2, r3
 3955 0016 01D3     		bcc	.L227
1389:C:/Users/dtjld/Desktop/AIoT_software/LiteOS_Lab_overseas/LiteOS_Lab/iot_link/os/liteos/base/core\los_task.c ****     {
1390:C:/Users/dtjld/Desktop/AIoT_software/LiteOS_Lab_overseas/LiteOS_Lab/iot_link/os/liteos/base/core\los_task.c ****         return LOS_ERRNO_TSK_ID_INVALID;
 3956              		.loc 2 1390 0
 3957 0018 224B     		ldr	r3, .L232+8
 3958 001a 3AE0     		b	.L228
 3959              	.L227:
1391:C:/Users/dtjld/Desktop/AIoT_software/LiteOS_Lab_overseas/LiteOS_Lab/iot_link/os/liteos/base/core\los_task.c ****     }
1392:C:/Users/dtjld/Desktop/AIoT_software/LiteOS_Lab_overseas/LiteOS_Lab/iot_link/os/liteos/base/core\los_task.c ****     if(!(g_stLosTask.pstRunTask->usTaskStatus & OS_TASK_STATUS_READY))
 3960              		.loc 2 1392 0
 3961 001c 1F4B     		ldr	r3, .L232
 3962 001e 1B68     		ldr	r3, [r3]
 3963 0020 9B88     		ldrh	r3, [r3, #4]
 3964 0022 03F00403 		and	r3, r3, #4
 3965 0026 002B     		cmp	r3, #0
 3966 0028 01D1     		bne	.L229
1393:C:/Users/dtjld/Desktop/AIoT_software/LiteOS_Lab_overseas/LiteOS_Lab/iot_link/os/liteos/base/core\los_task.c ****     {
1394:C:/Users/dtjld/Desktop/AIoT_software/LiteOS_Lab_overseas/LiteOS_Lab/iot_link/os/liteos/base/core\los_task.c ****         return LOS_OK;
 3967              		.loc 2 1394 0
 3968 002a 0023     		movs	r3, #0
 3969 002c 31E0     		b	.L228
 3970              	.L229:
1395:C:/Users/dtjld/Desktop/AIoT_software/LiteOS_Lab_overseas/LiteOS_Lab/iot_link/os/liteos/base/core\los_task.c ****     }
1396:C:/Users/dtjld/Desktop/AIoT_software/LiteOS_Lab_overseas/LiteOS_Lab/iot_link/os/liteos/base/core\los_task.c ****     uvIntSave = LOS_IntLock();
 3971              		.loc 2 1396 0
 3972 002e FFF7FEFF 		bl	LOS_IntLock
 3973 0032 3860     		str	r0, [r7]
1397:C:/Users/dtjld/Desktop/AIoT_software/LiteOS_Lab_overseas/LiteOS_Lab/iot_link/os/liteos/base/core\los_task.c ****     uwTskCount = osPriqueueSize(g_stLosTask.pstRunTask->usPriority);
 3974              		.loc 2 1397 0
 3975 0034 194B     		ldr	r3, .L232
 3976 0036 1B68     		ldr	r3, [r3]
 3977 0038 DB88     		ldrh	r3, [r3, #6]
 3978 003a 1846     		mov	r0, r3
 3979 003c FFF7FEFF 		bl	osPriqueueSize
 3980 0040 7860     		str	r0, [r7, #4]
1398:C:/Users/dtjld/Desktop/AIoT_software/LiteOS_Lab_overseas/LiteOS_Lab/iot_link/os/liteos/base/core\los_task.c ****     if (uwTskCount > 1)
ARM GAS  C:\Users\dtjld\AppData\Local\Temp\ccU8krAq.s 			page 100


 3981              		.loc 2 1398 0
 3982 0042 7B68     		ldr	r3, [r7, #4]
 3983 0044 012B     		cmp	r3, #1
 3984 0046 20D9     		bls	.L230
1399:C:/Users/dtjld/Desktop/AIoT_software/LiteOS_Lab_overseas/LiteOS_Lab/iot_link/os/liteos/base/core\los_task.c ****     {
1400:C:/Users/dtjld/Desktop/AIoT_software/LiteOS_Lab_overseas/LiteOS_Lab/iot_link/os/liteos/base/core\los_task.c ****         LOS_ListDelete(&(g_stLosTask.pstRunTask->stPendList));
 3985              		.loc 2 1400 0
 3986 0048 144B     		ldr	r3, .L232
 3987 004a 1B68     		ldr	r3, [r3]
 3988 004c 2833     		adds	r3, r3, #40
 3989 004e 1846     		mov	r0, r3
 3990 0050 FFF7FEFF 		bl	LOS_ListDelete
1401:C:/Users/dtjld/Desktop/AIoT_software/LiteOS_Lab_overseas/LiteOS_Lab/iot_link/os/liteos/base/core\los_task.c ****         g_stLosTask.pstRunTask->usTaskStatus |= OS_TASK_STATUS_READY;
 3991              		.loc 2 1401 0
 3992 0054 114B     		ldr	r3, .L232
 3993 0056 1B68     		ldr	r3, [r3]
 3994 0058 9A88     		ldrh	r2, [r3, #4]
 3995 005a 104B     		ldr	r3, .L232
 3996 005c 1B68     		ldr	r3, [r3]
 3997 005e 42F00402 		orr	r2, r2, #4
 3998 0062 92B2     		uxth	r2, r2
 3999 0064 9A80     		strh	r2, [r3, #4]	@ movhi
1402:C:/Users/dtjld/Desktop/AIoT_software/LiteOS_Lab_overseas/LiteOS_Lab/iot_link/os/liteos/base/core\los_task.c ****         osPriqueueEnqueue(&(g_stLosTask.pstRunTask->stPendList), g_stLosTask.pstRunTask->usPriority
 4000              		.loc 2 1402 0
 4001 0066 0D4B     		ldr	r3, .L232
 4002 0068 1B68     		ldr	r3, [r3]
 4003 006a 03F12802 		add	r2, r3, #40
 4004 006e 0B4B     		ldr	r3, .L232
 4005 0070 1B68     		ldr	r3, [r3]
 4006 0072 DB88     		ldrh	r3, [r3, #6]
 4007 0074 1946     		mov	r1, r3
 4008 0076 1046     		mov	r0, r2
 4009 0078 FFF7FEFF 		bl	osPriqueueEnqueue
1403:C:/Users/dtjld/Desktop/AIoT_software/LiteOS_Lab_overseas/LiteOS_Lab/iot_link/os/liteos/base/core\los_task.c ****     }
1404:C:/Users/dtjld/Desktop/AIoT_software/LiteOS_Lab_overseas/LiteOS_Lab/iot_link/os/liteos/base/core\los_task.c ****     else
1405:C:/Users/dtjld/Desktop/AIoT_software/LiteOS_Lab_overseas/LiteOS_Lab/iot_link/os/liteos/base/core\los_task.c ****     {
1406:C:/Users/dtjld/Desktop/AIoT_software/LiteOS_Lab_overseas/LiteOS_Lab/iot_link/os/liteos/base/core\los_task.c ****         (VOID)LOS_IntRestore(uvIntSave);
1407:C:/Users/dtjld/Desktop/AIoT_software/LiteOS_Lab_overseas/LiteOS_Lab/iot_link/os/liteos/base/core\los_task.c ****         return LOS_ERRNO_TSK_YIELD_NOT_ENOUGH_TASK;
1408:C:/Users/dtjld/Desktop/AIoT_software/LiteOS_Lab_overseas/LiteOS_Lab/iot_link/os/liteos/base/core\los_task.c ****     }
1409:C:/Users/dtjld/Desktop/AIoT_software/LiteOS_Lab_overseas/LiteOS_Lab/iot_link/os/liteos/base/core\los_task.c **** 
1410:C:/Users/dtjld/Desktop/AIoT_software/LiteOS_Lab_overseas/LiteOS_Lab/iot_link/os/liteos/base/core\los_task.c ****     (VOID)LOS_IntRestore(uvIntSave);
 4010              		.loc 2 1410 0
 4011 007c 3868     		ldr	r0, [r7]
 4012 007e FFF7FEFF 		bl	LOS_IntRestore
1411:C:/Users/dtjld/Desktop/AIoT_software/LiteOS_Lab_overseas/LiteOS_Lab/iot_link/os/liteos/base/core\los_task.c ****     LOS_Schedule();
 4013              		.loc 2 1411 0
 4014 0082 FFF7FEFF 		bl	LOS_Schedule
1412:C:/Users/dtjld/Desktop/AIoT_software/LiteOS_Lab_overseas/LiteOS_Lab/iot_link/os/liteos/base/core\los_task.c ****     return LOS_OK;
 4015              		.loc 2 1412 0
 4016 0086 0023     		movs	r3, #0
 4017 0088 03E0     		b	.L228
 4018              	.L230:
1406:C:/Users/dtjld/Desktop/AIoT_software/LiteOS_Lab_overseas/LiteOS_Lab/iot_link/os/liteos/base/core\los_task.c ****         return LOS_ERRNO_TSK_YIELD_NOT_ENOUGH_TASK;
 4019              		.loc 2 1406 0
 4020 008a 3868     		ldr	r0, [r7]
 4021 008c FFF7FEFF 		bl	LOS_IntRestore
1407:C:/Users/dtjld/Desktop/AIoT_software/LiteOS_Lab_overseas/LiteOS_Lab/iot_link/os/liteos/base/core\los_task.c ****     }
ARM GAS  C:\Users\dtjld\AppData\Local\Temp\ccU8krAq.s 			page 101


 4022              		.loc 2 1407 0
 4023 0090 054B     		ldr	r3, .L232+12
 4024              	.L228:
1413:C:/Users/dtjld/Desktop/AIoT_software/LiteOS_Lab_overseas/LiteOS_Lab/iot_link/os/liteos/base/core\los_task.c **** }
 4025              		.loc 2 1413 0
 4026 0092 1846     		mov	r0, r3
 4027 0094 0837     		adds	r7, r7, #8
 4028              	.LCFI158:
 4029              		.cfi_def_cfa_offset 8
 4030 0096 BD46     		mov	sp, r7
 4031              	.LCFI159:
 4032              		.cfi_def_cfa_register 13
 4033              		@ sp needed
 4034 0098 80BD     		pop	{r7, pc}
 4035              	.L233:
 4036 009a 00BF     		.align	2
 4037              	.L232:
 4038 009c 00000000 		.word	g_stLosTask
 4039 00a0 00000000 		.word	g_uwTskMaxNum
 4040 00a4 07020002 		.word	33554951
 4041 00a8 10020002 		.word	33554960
 4042              		.cfi_endproc
 4043              	.LFE157:
 4045              		.section	.text.LOS_TaskLock,"ax",%progbits
 4046              		.align	1
 4047              		.global	LOS_TaskLock
 4048              		.syntax unified
 4049              		.thumb
 4050              		.thumb_func
 4051              		.fpu fpv4-sp-d16
 4053              	LOS_TaskLock:
 4054              	.LFB158:
1414:C:/Users/dtjld/Desktop/AIoT_software/LiteOS_Lab_overseas/LiteOS_Lab/iot_link/os/liteos/base/core\los_task.c **** 
1415:C:/Users/dtjld/Desktop/AIoT_software/LiteOS_Lab_overseas/LiteOS_Lab/iot_link/os/liteos/base/core\los_task.c **** /*****************************************************************************
1416:C:/Users/dtjld/Desktop/AIoT_software/LiteOS_Lab_overseas/LiteOS_Lab/iot_link/os/liteos/base/core\los_task.c ****  Function : LOS_TaskLock
1417:C:/Users/dtjld/Desktop/AIoT_software/LiteOS_Lab_overseas/LiteOS_Lab/iot_link/os/liteos/base/core\los_task.c ****  Description : Task lock
1418:C:/Users/dtjld/Desktop/AIoT_software/LiteOS_Lab_overseas/LiteOS_Lab/iot_link/os/liteos/base/core\los_task.c ****  Input       : None
1419:C:/Users/dtjld/Desktop/AIoT_software/LiteOS_Lab_overseas/LiteOS_Lab/iot_link/os/liteos/base/core\los_task.c ****  Output      : None
1420:C:/Users/dtjld/Desktop/AIoT_software/LiteOS_Lab_overseas/LiteOS_Lab/iot_link/os/liteos/base/core\los_task.c ****  Return      : None
1421:C:/Users/dtjld/Desktop/AIoT_software/LiteOS_Lab_overseas/LiteOS_Lab/iot_link/os/liteos/base/core\los_task.c ****  *****************************************************************************/
1422:C:/Users/dtjld/Desktop/AIoT_software/LiteOS_Lab_overseas/LiteOS_Lab/iot_link/os/liteos/base/core\los_task.c **** LITE_OS_SEC_TEXT_MINOR VOID LOS_TaskLock(VOID)
1423:C:/Users/dtjld/Desktop/AIoT_software/LiteOS_Lab_overseas/LiteOS_Lab/iot_link/os/liteos/base/core\los_task.c **** {
 4055              		.loc 2 1423 0
 4056              		.cfi_startproc
 4057              		@ args = 0, pretend = 0, frame = 8
 4058              		@ frame_needed = 1, uses_anonymous_args = 0
 4059 0000 80B5     		push	{r7, lr}
 4060              	.LCFI160:
 4061              		.cfi_def_cfa_offset 8
 4062              		.cfi_offset 7, -8
 4063              		.cfi_offset 14, -4
 4064 0002 82B0     		sub	sp, sp, #8
 4065              	.LCFI161:
 4066              		.cfi_def_cfa_offset 16
 4067 0004 00AF     		add	r7, sp, #0
 4068              	.LCFI162:
 4069              		.cfi_def_cfa_register 7
ARM GAS  C:\Users\dtjld\AppData\Local\Temp\ccU8krAq.s 			page 102


1424:C:/Users/dtjld/Desktop/AIoT_software/LiteOS_Lab_overseas/LiteOS_Lab/iot_link/os/liteos/base/core\los_task.c ****     UINTPTR uvIntSave;
1425:C:/Users/dtjld/Desktop/AIoT_software/LiteOS_Lab_overseas/LiteOS_Lab/iot_link/os/liteos/base/core\los_task.c **** 
1426:C:/Users/dtjld/Desktop/AIoT_software/LiteOS_Lab_overseas/LiteOS_Lab/iot_link/os/liteos/base/core\los_task.c ****     uvIntSave = LOS_IntLock();
 4070              		.loc 2 1426 0
 4071 0006 FFF7FEFF 		bl	LOS_IntLock
 4072 000a 7860     		str	r0, [r7, #4]
1427:C:/Users/dtjld/Desktop/AIoT_software/LiteOS_Lab_overseas/LiteOS_Lab/iot_link/os/liteos/base/core\los_task.c ****     g_usLosTaskLock++;
 4073              		.loc 2 1427 0
 4074 000c 064B     		ldr	r3, .L235
 4075 000e 1B88     		ldrh	r3, [r3]
 4076 0010 0133     		adds	r3, r3, #1
 4077 0012 9AB2     		uxth	r2, r3
 4078 0014 044B     		ldr	r3, .L235
 4079 0016 1A80     		strh	r2, [r3]	@ movhi
1428:C:/Users/dtjld/Desktop/AIoT_software/LiteOS_Lab_overseas/LiteOS_Lab/iot_link/os/liteos/base/core\los_task.c ****     (VOID)LOS_IntRestore(uvIntSave);
 4080              		.loc 2 1428 0
 4081 0018 7868     		ldr	r0, [r7, #4]
 4082 001a FFF7FEFF 		bl	LOS_IntRestore
1429:C:/Users/dtjld/Desktop/AIoT_software/LiteOS_Lab_overseas/LiteOS_Lab/iot_link/os/liteos/base/core\los_task.c **** }
 4083              		.loc 2 1429 0
 4084 001e 00BF     		nop
 4085 0020 0837     		adds	r7, r7, #8
 4086              	.LCFI163:
 4087              		.cfi_def_cfa_offset 8
 4088 0022 BD46     		mov	sp, r7
 4089              	.LCFI164:
 4090              		.cfi_def_cfa_register 13
 4091              		@ sp needed
 4092 0024 80BD     		pop	{r7, pc}
 4093              	.L236:
 4094 0026 00BF     		.align	2
 4095              	.L235:
 4096 0028 00000000 		.word	g_usLosTaskLock
 4097              		.cfi_endproc
 4098              	.LFE158:
 4100              		.section	.text.LOS_TaskUnlock,"ax",%progbits
 4101              		.align	1
 4102              		.global	LOS_TaskUnlock
 4103              		.syntax unified
 4104              		.thumb
 4105              		.thumb_func
 4106              		.fpu fpv4-sp-d16
 4108              	LOS_TaskUnlock:
 4109              	.LFB159:
1430:C:/Users/dtjld/Desktop/AIoT_software/LiteOS_Lab_overseas/LiteOS_Lab/iot_link/os/liteos/base/core\los_task.c **** 
1431:C:/Users/dtjld/Desktop/AIoT_software/LiteOS_Lab_overseas/LiteOS_Lab/iot_link/os/liteos/base/core\los_task.c **** /*****************************************************************************
1432:C:/Users/dtjld/Desktop/AIoT_software/LiteOS_Lab_overseas/LiteOS_Lab/iot_link/os/liteos/base/core\los_task.c ****  Function : LOS_TaskUnlock
1433:C:/Users/dtjld/Desktop/AIoT_software/LiteOS_Lab_overseas/LiteOS_Lab/iot_link/os/liteos/base/core\los_task.c ****  Description : Task unlock
1434:C:/Users/dtjld/Desktop/AIoT_software/LiteOS_Lab_overseas/LiteOS_Lab/iot_link/os/liteos/base/core\los_task.c ****  Input       : None
1435:C:/Users/dtjld/Desktop/AIoT_software/LiteOS_Lab_overseas/LiteOS_Lab/iot_link/os/liteos/base/core\los_task.c ****  Output      : None
1436:C:/Users/dtjld/Desktop/AIoT_software/LiteOS_Lab_overseas/LiteOS_Lab/iot_link/os/liteos/base/core\los_task.c ****  Return      : None
1437:C:/Users/dtjld/Desktop/AIoT_software/LiteOS_Lab_overseas/LiteOS_Lab/iot_link/os/liteos/base/core\los_task.c ****  *****************************************************************************/
1438:C:/Users/dtjld/Desktop/AIoT_software/LiteOS_Lab_overseas/LiteOS_Lab/iot_link/os/liteos/base/core\los_task.c **** LITE_OS_SEC_TEXT_MINOR VOID LOS_TaskUnlock(VOID)
1439:C:/Users/dtjld/Desktop/AIoT_software/LiteOS_Lab_overseas/LiteOS_Lab/iot_link/os/liteos/base/core\los_task.c **** {
 4110              		.loc 2 1439 0
 4111              		.cfi_startproc
 4112              		@ args = 0, pretend = 0, frame = 8
ARM GAS  C:\Users\dtjld\AppData\Local\Temp\ccU8krAq.s 			page 103


 4113              		@ frame_needed = 1, uses_anonymous_args = 0
 4114 0000 80B5     		push	{r7, lr}
 4115              	.LCFI165:
 4116              		.cfi_def_cfa_offset 8
 4117              		.cfi_offset 7, -8
 4118              		.cfi_offset 14, -4
 4119 0002 82B0     		sub	sp, sp, #8
 4120              	.LCFI166:
 4121              		.cfi_def_cfa_offset 16
 4122 0004 00AF     		add	r7, sp, #0
 4123              	.LCFI167:
 4124              		.cfi_def_cfa_register 7
1440:C:/Users/dtjld/Desktop/AIoT_software/LiteOS_Lab_overseas/LiteOS_Lab/iot_link/os/liteos/base/core\los_task.c ****     UINTPTR uvIntSave;
1441:C:/Users/dtjld/Desktop/AIoT_software/LiteOS_Lab_overseas/LiteOS_Lab/iot_link/os/liteos/base/core\los_task.c **** 
1442:C:/Users/dtjld/Desktop/AIoT_software/LiteOS_Lab_overseas/LiteOS_Lab/iot_link/os/liteos/base/core\los_task.c ****     uvIntSave = LOS_IntLock();
 4125              		.loc 2 1442 0
 4126 0006 FFF7FEFF 		bl	LOS_IntLock
 4127 000a 7860     		str	r0, [r7, #4]
1443:C:/Users/dtjld/Desktop/AIoT_software/LiteOS_Lab_overseas/LiteOS_Lab/iot_link/os/liteos/base/core\los_task.c ****     if (g_usLosTaskLock > 0)
 4128              		.loc 2 1443 0
 4129 000c 0C4B     		ldr	r3, .L240
 4130 000e 1B88     		ldrh	r3, [r3]
 4131 0010 002B     		cmp	r3, #0
 4132 0012 0FD0     		beq	.L238
1444:C:/Users/dtjld/Desktop/AIoT_software/LiteOS_Lab_overseas/LiteOS_Lab/iot_link/os/liteos/base/core\los_task.c ****     {
1445:C:/Users/dtjld/Desktop/AIoT_software/LiteOS_Lab_overseas/LiteOS_Lab/iot_link/os/liteos/base/core\los_task.c ****         g_usLosTaskLock--;
 4133              		.loc 2 1445 0
 4134 0014 0A4B     		ldr	r3, .L240
 4135 0016 1B88     		ldrh	r3, [r3]
 4136 0018 013B     		subs	r3, r3, #1
 4137 001a 9AB2     		uxth	r2, r3
 4138 001c 084B     		ldr	r3, .L240
 4139 001e 1A80     		strh	r2, [r3]	@ movhi
1446:C:/Users/dtjld/Desktop/AIoT_software/LiteOS_Lab_overseas/LiteOS_Lab/iot_link/os/liteos/base/core\los_task.c ****         if (0 == g_usLosTaskLock)
 4140              		.loc 2 1446 0
 4141 0020 074B     		ldr	r3, .L240
 4142 0022 1B88     		ldrh	r3, [r3]
 4143 0024 002B     		cmp	r3, #0
 4144 0026 05D1     		bne	.L238
1447:C:/Users/dtjld/Desktop/AIoT_software/LiteOS_Lab_overseas/LiteOS_Lab/iot_link/os/liteos/base/core\los_task.c ****         {
1448:C:/Users/dtjld/Desktop/AIoT_software/LiteOS_Lab_overseas/LiteOS_Lab/iot_link/os/liteos/base/core\los_task.c ****             (VOID)LOS_IntRestore(uvIntSave);
 4145              		.loc 2 1448 0
 4146 0028 7868     		ldr	r0, [r7, #4]
 4147 002a FFF7FEFF 		bl	LOS_IntRestore
1449:C:/Users/dtjld/Desktop/AIoT_software/LiteOS_Lab_overseas/LiteOS_Lab/iot_link/os/liteos/base/core\los_task.c ****             LOS_Schedule();
 4148              		.loc 2 1449 0
 4149 002e FFF7FEFF 		bl	LOS_Schedule
1450:C:/Users/dtjld/Desktop/AIoT_software/LiteOS_Lab_overseas/LiteOS_Lab/iot_link/os/liteos/base/core\los_task.c ****             return;
 4150              		.loc 2 1450 0
 4151 0032 02E0     		b	.L237
 4152              	.L238:
1451:C:/Users/dtjld/Desktop/AIoT_software/LiteOS_Lab_overseas/LiteOS_Lab/iot_link/os/liteos/base/core\los_task.c ****         }
1452:C:/Users/dtjld/Desktop/AIoT_software/LiteOS_Lab_overseas/LiteOS_Lab/iot_link/os/liteos/base/core\los_task.c ****     }
1453:C:/Users/dtjld/Desktop/AIoT_software/LiteOS_Lab_overseas/LiteOS_Lab/iot_link/os/liteos/base/core\los_task.c **** 
1454:C:/Users/dtjld/Desktop/AIoT_software/LiteOS_Lab_overseas/LiteOS_Lab/iot_link/os/liteos/base/core\los_task.c ****     (VOID)LOS_IntRestore(uvIntSave);
 4153              		.loc 2 1454 0
 4154 0034 7868     		ldr	r0, [r7, #4]
ARM GAS  C:\Users\dtjld\AppData\Local\Temp\ccU8krAq.s 			page 104


 4155 0036 FFF7FEFF 		bl	LOS_IntRestore
 4156              	.L237:
1455:C:/Users/dtjld/Desktop/AIoT_software/LiteOS_Lab_overseas/LiteOS_Lab/iot_link/os/liteos/base/core\los_task.c **** }
 4157              		.loc 2 1455 0
 4158 003a 0837     		adds	r7, r7, #8
 4159              	.LCFI168:
 4160              		.cfi_def_cfa_offset 8
 4161 003c BD46     		mov	sp, r7
 4162              	.LCFI169:
 4163              		.cfi_def_cfa_register 13
 4164              		@ sp needed
 4165 003e 80BD     		pop	{r7, pc}
 4166              	.L241:
 4167              		.align	2
 4168              	.L240:
 4169 0040 00000000 		.word	g_usLosTaskLock
 4170              		.cfi_endproc
 4171              	.LFE159:
 4173              		.section	.text.LOS_TaskInfoGet,"ax",%progbits
 4174              		.align	1
 4175              		.global	LOS_TaskInfoGet
 4176              		.syntax unified
 4177              		.thumb
 4178              		.thumb_func
 4179              		.fpu fpv4-sp-d16
 4181              	LOS_TaskInfoGet:
 4182              	.LFB160:
1456:C:/Users/dtjld/Desktop/AIoT_software/LiteOS_Lab_overseas/LiteOS_Lab/iot_link/os/liteos/base/core\los_task.c **** 
1457:C:/Users/dtjld/Desktop/AIoT_software/LiteOS_Lab_overseas/LiteOS_Lab/iot_link/os/liteos/base/core\los_task.c **** /*****************************************************************************
1458:C:/Users/dtjld/Desktop/AIoT_software/LiteOS_Lab_overseas/LiteOS_Lab/iot_link/os/liteos/base/core\los_task.c ****  Function : LOS_TaskInfoGet
1459:C:/Users/dtjld/Desktop/AIoT_software/LiteOS_Lab_overseas/LiteOS_Lab/iot_link/os/liteos/base/core\los_task.c ****  Description : Get the information of the task
1460:C:/Users/dtjld/Desktop/AIoT_software/LiteOS_Lab_overseas/LiteOS_Lab/iot_link/os/liteos/base/core\los_task.c ****  Input       : uwTaskID
1461:C:/Users/dtjld/Desktop/AIoT_software/LiteOS_Lab_overseas/LiteOS_Lab/iot_link/os/liteos/base/core\los_task.c ****  Output      : pstTaskInfo
1462:C:/Users/dtjld/Desktop/AIoT_software/LiteOS_Lab_overseas/LiteOS_Lab/iot_link/os/liteos/base/core\los_task.c ****  Return      : LOS_OK on success or error code on failure
1463:C:/Users/dtjld/Desktop/AIoT_software/LiteOS_Lab_overseas/LiteOS_Lab/iot_link/os/liteos/base/core\los_task.c ****  *****************************************************************************/
1464:C:/Users/dtjld/Desktop/AIoT_software/LiteOS_Lab_overseas/LiteOS_Lab/iot_link/os/liteos/base/core\los_task.c **** LITE_OS_SEC_TEXT_MINOR UINT32 LOS_TaskInfoGet(UINT32 uwTaskID, TSK_INFO_S *pstTaskInfo)
1465:C:/Users/dtjld/Desktop/AIoT_software/LiteOS_Lab_overseas/LiteOS_Lab/iot_link/os/liteos/base/core\los_task.c **** {
 4183              		.loc 2 1465 0
 4184              		.cfi_startproc
 4185              		@ args = 0, pretend = 0, frame = 24
 4186              		@ frame_needed = 1, uses_anonymous_args = 0
 4187 0000 80B5     		push	{r7, lr}
 4188              	.LCFI170:
 4189              		.cfi_def_cfa_offset 8
 4190              		.cfi_offset 7, -8
 4191              		.cfi_offset 14, -4
 4192 0002 86B0     		sub	sp, sp, #24
 4193              	.LCFI171:
 4194              		.cfi_def_cfa_offset 32
 4195 0004 00AF     		add	r7, sp, #0
 4196              	.LCFI172:
 4197              		.cfi_def_cfa_register 7
 4198 0006 7860     		str	r0, [r7, #4]
 4199 0008 3960     		str	r1, [r7]
1466:C:/Users/dtjld/Desktop/AIoT_software/LiteOS_Lab_overseas/LiteOS_Lab/iot_link/os/liteos/base/core\los_task.c ****     UINT32    uwIntSave;
1467:C:/Users/dtjld/Desktop/AIoT_software/LiteOS_Lab_overseas/LiteOS_Lab/iot_link/os/liteos/base/core\los_task.c ****     LOS_TASK_CB *pstTaskCB;
1468:C:/Users/dtjld/Desktop/AIoT_software/LiteOS_Lab_overseas/LiteOS_Lab/iot_link/os/liteos/base/core\los_task.c ****     UINT32 * puwStack;
ARM GAS  C:\Users\dtjld\AppData\Local\Temp\ccU8krAq.s 			page 105


1469:C:/Users/dtjld/Desktop/AIoT_software/LiteOS_Lab_overseas/LiteOS_Lab/iot_link/os/liteos/base/core\los_task.c **** 
1470:C:/Users/dtjld/Desktop/AIoT_software/LiteOS_Lab_overseas/LiteOS_Lab/iot_link/os/liteos/base/core\los_task.c ****     if (NULL == pstTaskInfo)
 4200              		.loc 2 1470 0
 4201 000a 3B68     		ldr	r3, [r7]
 4202 000c 002B     		cmp	r3, #0
 4203 000e 01D1     		bne	.L243
1471:C:/Users/dtjld/Desktop/AIoT_software/LiteOS_Lab_overseas/LiteOS_Lab/iot_link/os/liteos/base/core\los_task.c ****     {
1472:C:/Users/dtjld/Desktop/AIoT_software/LiteOS_Lab_overseas/LiteOS_Lab/iot_link/os/liteos/base/core\los_task.c ****         return LOS_ERRNO_TSK_PTR_NULL;
 4204              		.loc 2 1472 0
 4205 0010 584B     		ldr	r3, .L256
 4206 0012 AAE0     		b	.L244
 4207              	.L243:
1473:C:/Users/dtjld/Desktop/AIoT_software/LiteOS_Lab_overseas/LiteOS_Lab/iot_link/os/liteos/base/core\los_task.c ****     }
1474:C:/Users/dtjld/Desktop/AIoT_software/LiteOS_Lab_overseas/LiteOS_Lab/iot_link/os/liteos/base/core\los_task.c **** 
1475:C:/Users/dtjld/Desktop/AIoT_software/LiteOS_Lab_overseas/LiteOS_Lab/iot_link/os/liteos/base/core\los_task.c ****     if (OS_CHECK_TSK_PID_NOIDLE(uwTaskID))
 4208              		.loc 2 1475 0
 4209 0014 584B     		ldr	r3, .L256+4
 4210 0016 1B68     		ldr	r3, [r3]
 4211 0018 7A68     		ldr	r2, [r7, #4]
 4212 001a 9A42     		cmp	r2, r3
 4213 001c 01D3     		bcc	.L245
1476:C:/Users/dtjld/Desktop/AIoT_software/LiteOS_Lab_overseas/LiteOS_Lab/iot_link/os/liteos/base/core\los_task.c ****     {
1477:C:/Users/dtjld/Desktop/AIoT_software/LiteOS_Lab_overseas/LiteOS_Lab/iot_link/os/liteos/base/core\los_task.c ****         return LOS_ERRNO_TSK_ID_INVALID;
 4214              		.loc 2 1477 0
 4215 001e 574B     		ldr	r3, .L256+8
 4216 0020 A3E0     		b	.L244
 4217              	.L245:
1478:C:/Users/dtjld/Desktop/AIoT_software/LiteOS_Lab_overseas/LiteOS_Lab/iot_link/os/liteos/base/core\los_task.c ****     }
1479:C:/Users/dtjld/Desktop/AIoT_software/LiteOS_Lab_overseas/LiteOS_Lab/iot_link/os/liteos/base/core\los_task.c **** 
1480:C:/Users/dtjld/Desktop/AIoT_software/LiteOS_Lab_overseas/LiteOS_Lab/iot_link/os/liteos/base/core\los_task.c ****     pstTaskCB = OS_TCB_FROM_TID(uwTaskID);
 4218              		.loc 2 1480 0
 4219 0022 574B     		ldr	r3, .L256+12
 4220 0024 1A68     		ldr	r2, [r3]
 4221 0026 7B68     		ldr	r3, [r7, #4]
 4222 0028 5421     		movs	r1, #84
 4223 002a 01FB03F3 		mul	r3, r1, r3
 4224 002e 1344     		add	r3, r3, r2
 4225 0030 3B61     		str	r3, [r7, #16]
1481:C:/Users/dtjld/Desktop/AIoT_software/LiteOS_Lab_overseas/LiteOS_Lab/iot_link/os/liteos/base/core\los_task.c ****     uwIntSave = LOS_IntLock();
 4226              		.loc 2 1481 0
 4227 0032 FFF7FEFF 		bl	LOS_IntLock
 4228 0036 F860     		str	r0, [r7, #12]
1482:C:/Users/dtjld/Desktop/AIoT_software/LiteOS_Lab_overseas/LiteOS_Lab/iot_link/os/liteos/base/core\los_task.c **** 
1483:C:/Users/dtjld/Desktop/AIoT_software/LiteOS_Lab_overseas/LiteOS_Lab/iot_link/os/liteos/base/core\los_task.c ****     if (OS_TASK_STATUS_UNUSED & pstTaskCB->usTaskStatus)
 4229              		.loc 2 1483 0
 4230 0038 3B69     		ldr	r3, [r7, #16]
 4231 003a 9B88     		ldrh	r3, [r3, #4]
 4232 003c 03F00103 		and	r3, r3, #1
 4233 0040 9BB2     		uxth	r3, r3
 4234 0042 002B     		cmp	r3, #0
 4235 0044 04D0     		beq	.L246
1484:C:/Users/dtjld/Desktop/AIoT_software/LiteOS_Lab_overseas/LiteOS_Lab/iot_link/os/liteos/base/core\los_task.c ****     {
1485:C:/Users/dtjld/Desktop/AIoT_software/LiteOS_Lab_overseas/LiteOS_Lab/iot_link/os/liteos/base/core\los_task.c ****         (VOID)LOS_IntRestore(uwIntSave);
 4236              		.loc 2 1485 0
 4237 0046 F868     		ldr	r0, [r7, #12]
 4238 0048 FFF7FEFF 		bl	LOS_IntRestore
1486:C:/Users/dtjld/Desktop/AIoT_software/LiteOS_Lab_overseas/LiteOS_Lab/iot_link/os/liteos/base/core\los_task.c ****         return LOS_ERRNO_TSK_NOT_CREATED;
ARM GAS  C:\Users\dtjld\AppData\Local\Temp\ccU8krAq.s 			page 106


 4239              		.loc 2 1486 0
 4240 004c 4D4B     		ldr	r3, .L256+16
 4241 004e 8CE0     		b	.L244
 4242              	.L246:
1487:C:/Users/dtjld/Desktop/AIoT_software/LiteOS_Lab_overseas/LiteOS_Lab/iot_link/os/liteos/base/core\los_task.c ****     }
1488:C:/Users/dtjld/Desktop/AIoT_software/LiteOS_Lab_overseas/LiteOS_Lab/iot_link/os/liteos/base/core\los_task.c **** 
1489:C:/Users/dtjld/Desktop/AIoT_software/LiteOS_Lab_overseas/LiteOS_Lab/iot_link/os/liteos/base/core\los_task.c ****     pstTaskInfo->uwSP = (UINT32)pstTaskCB->pStackPointer;
 4243              		.loc 2 1489 0
 4244 0050 3B69     		ldr	r3, [r7, #16]
 4245 0052 1B68     		ldr	r3, [r3]
 4246 0054 1A46     		mov	r2, r3
 4247 0056 3B68     		ldr	r3, [r7]
 4248 0058 5A65     		str	r2, [r3, #84]
1490:C:/Users/dtjld/Desktop/AIoT_software/LiteOS_Lab_overseas/LiteOS_Lab/iot_link/os/liteos/base/core\los_task.c ****     pstTaskInfo->usTaskStatus = pstTaskCB->usTaskStatus;
 4249              		.loc 2 1490 0
 4250 005a 3B69     		ldr	r3, [r7, #16]
 4251 005c 9A88     		ldrh	r2, [r3, #4]
 4252 005e 3B68     		ldr	r3, [r7]
 4253 0060 9A84     		strh	r2, [r3, #36]	@ movhi
1491:C:/Users/dtjld/Desktop/AIoT_software/LiteOS_Lab_overseas/LiteOS_Lab/iot_link/os/liteos/base/core\los_task.c ****     pstTaskInfo->usTaskPrio = pstTaskCB->usPriority;
 4254              		.loc 2 1491 0
 4255 0062 3B69     		ldr	r3, [r7, #16]
 4256 0064 DA88     		ldrh	r2, [r3, #6]
 4257 0066 3B68     		ldr	r3, [r7]
 4258 0068 DA84     		strh	r2, [r3, #38]	@ movhi
1492:C:/Users/dtjld/Desktop/AIoT_software/LiteOS_Lab_overseas/LiteOS_Lab/iot_link/os/liteos/base/core\los_task.c ****     pstTaskInfo->uwStackSize  = pstTaskCB->uwStackSize;
 4259              		.loc 2 1492 0
 4260 006a 3B69     		ldr	r3, [r7, #16]
 4261 006c 9A68     		ldr	r2, [r3, #8]
 4262 006e 3B68     		ldr	r3, [r7]
 4263 0070 9A64     		str	r2, [r3, #72]
1493:C:/Users/dtjld/Desktop/AIoT_software/LiteOS_Lab_overseas/LiteOS_Lab/iot_link/os/liteos/base/core\los_task.c ****     pstTaskInfo->uwTopOfStack = pstTaskCB->uwTopOfStack;
 4264              		.loc 2 1493 0
 4265 0072 3B69     		ldr	r3, [r7, #16]
 4266 0074 DA68     		ldr	r2, [r3, #12]
 4267 0076 3B68     		ldr	r3, [r7]
 4268 0078 DA64     		str	r2, [r3, #76]
1494:C:/Users/dtjld/Desktop/AIoT_software/LiteOS_Lab_overseas/LiteOS_Lab/iot_link/os/liteos/base/core\los_task.c ****     pstTaskInfo->uwEvent = pstTaskCB->uwEvent;
 4269              		.loc 2 1494 0
 4270 007a 3B68     		ldr	r3, [r7]
 4271 007c 3A69     		ldr	r2, [r7, #16]
 4272 007e 3833     		adds	r3, r3, #56
 4273 0080 3C32     		adds	r2, r2, #60
 4274 0082 07CA     		ldm	r2, {r0, r1, r2}
 4275 0084 83E80700 		stm	r3, {r0, r1, r2}
1495:C:/Users/dtjld/Desktop/AIoT_software/LiteOS_Lab_overseas/LiteOS_Lab/iot_link/os/liteos/base/core\los_task.c ****     pstTaskInfo->uwEventMask = pstTaskCB->uwEventMask;
 4276              		.loc 2 1495 0
 4277 0088 3B69     		ldr	r3, [r7, #16]
 4278 008a 9A6C     		ldr	r2, [r3, #72]
 4279 008c 3B68     		ldr	r3, [r7]
 4280 008e 5A64     		str	r2, [r3, #68]
1496:C:/Users/dtjld/Desktop/AIoT_software/LiteOS_Lab_overseas/LiteOS_Lab/iot_link/os/liteos/base/core\los_task.c ****     pstTaskInfo->uwSemID = pstTaskCB->pTaskSem != NULL ? ((SEM_CB_S *)(pstTaskCB->pTaskSem))->usSem
 4281              		.loc 2 1496 0
 4282 0090 3B69     		ldr	r3, [r7, #16]
 4283 0092 9B69     		ldr	r3, [r3, #24]
 4284 0094 002B     		cmp	r3, #0
 4285 0096 04D0     		beq	.L247
ARM GAS  C:\Users\dtjld\AppData\Local\Temp\ccU8krAq.s 			page 107


 4286              		.loc 2 1496 0 is_stmt 0 discriminator 1
 4287 0098 3B69     		ldr	r3, [r7, #16]
 4288 009a 9B69     		ldr	r3, [r3, #24]
 4289 009c DB88     		ldrh	r3, [r3, #6]
 4290 009e 1A46     		mov	r2, r3
 4291 00a0 00E0     		b	.L248
 4292              	.L247:
 4293              		.loc 2 1496 0 discriminator 2
 4294 00a2 1422     		movs	r2, #20
 4295              	.L248:
 4296              		.loc 2 1496 0 discriminator 4
 4297 00a4 3B68     		ldr	r3, [r7]
 4298 00a6 1A63     		str	r2, [r3, #48]
1497:C:/Users/dtjld/Desktop/AIoT_software/LiteOS_Lab_overseas/LiteOS_Lab/iot_link/os/liteos/base/core\los_task.c ****     pstTaskInfo->uwMuxID = pstTaskCB->pTaskMux != NULL ? ((MUX_CB_S *)(pstTaskCB->pTaskMux))->ucMux
 4299              		.loc 2 1497 0 is_stmt 1 discriminator 4
 4300 00a8 3B69     		ldr	r3, [r7, #16]
 4301 00aa DB69     		ldr	r3, [r3, #28]
 4302 00ac 002B     		cmp	r3, #0
 4303 00ae 03D0     		beq	.L249
 4304              		.loc 2 1497 0 is_stmt 0 discriminator 1
 4305 00b0 3B69     		ldr	r3, [r7, #16]
 4306 00b2 DB69     		ldr	r3, [r3, #28]
 4307 00b4 5B68     		ldr	r3, [r3, #4]
 4308 00b6 00E0     		b	.L250
 4309              	.L249:
 4310              		.loc 2 1497 0 discriminator 2
 4311 00b8 1423     		movs	r3, #20
 4312              	.L250:
 4313              		.loc 2 1497 0 discriminator 4
 4314 00ba 3A68     		ldr	r2, [r7]
 4315 00bc 5363     		str	r3, [r2, #52]
1498:C:/Users/dtjld/Desktop/AIoT_software/LiteOS_Lab_overseas/LiteOS_Lab/iot_link/os/liteos/base/core\los_task.c ****     pstTaskInfo->pTaskSem = pstTaskCB->pTaskSem;
 4316              		.loc 2 1498 0 is_stmt 1 discriminator 4
 4317 00be 3B69     		ldr	r3, [r7, #16]
 4318 00c0 9A69     		ldr	r2, [r3, #24]
 4319 00c2 3B68     		ldr	r3, [r7]
 4320 00c4 9A62     		str	r2, [r3, #40]
1499:C:/Users/dtjld/Desktop/AIoT_software/LiteOS_Lab_overseas/LiteOS_Lab/iot_link/os/liteos/base/core\los_task.c ****     pstTaskInfo->pTaskMux = pstTaskCB->pTaskMux;
 4321              		.loc 2 1499 0 discriminator 4
 4322 00c6 3B69     		ldr	r3, [r7, #16]
 4323 00c8 DA69     		ldr	r2, [r3, #28]
 4324 00ca 3B68     		ldr	r3, [r7]
 4325 00cc DA62     		str	r2, [r3, #44]
1500:C:/Users/dtjld/Desktop/AIoT_software/LiteOS_Lab_overseas/LiteOS_Lab/iot_link/os/liteos/base/core\los_task.c ****     pstTaskInfo->uwTaskID = uwTaskID;
 4326              		.loc 2 1500 0 discriminator 4
 4327 00ce 3B68     		ldr	r3, [r7]
 4328 00d0 7A68     		ldr	r2, [r7, #4]
 4329 00d2 1A62     		str	r2, [r3, #32]
1501:C:/Users/dtjld/Desktop/AIoT_software/LiteOS_Lab_overseas/LiteOS_Lab/iot_link/os/liteos/base/core\los_task.c **** 
1502:C:/Users/dtjld/Desktop/AIoT_software/LiteOS_Lab_overseas/LiteOS_Lab/iot_link/os/liteos/base/core\los_task.c ****     (VOID)strncpy(pstTaskInfo->acName, pstTaskCB->pcTaskName, LOS_TASK_NAMELEN - 1);
 4330              		.loc 2 1502 0 discriminator 4
 4331 00d4 3868     		ldr	r0, [r7]
 4332 00d6 3B69     		ldr	r3, [r7, #16]
 4333 00d8 5B6A     		ldr	r3, [r3, #36]
 4334 00da 1F22     		movs	r2, #31
 4335 00dc 1946     		mov	r1, r3
 4336 00de FFF7FEFF 		bl	strncpy
ARM GAS  C:\Users\dtjld\AppData\Local\Temp\ccU8krAq.s 			page 108


1503:C:/Users/dtjld/Desktop/AIoT_software/LiteOS_Lab_overseas/LiteOS_Lab/iot_link/os/liteos/base/core\los_task.c ****     pstTaskInfo->acName[LOS_TASK_NAMELEN - 1] = '\0';
 4337              		.loc 2 1503 0 discriminator 4
 4338 00e2 3B68     		ldr	r3, [r7]
 4339 00e4 0022     		movs	r2, #0
 4340 00e6 DA77     		strb	r2, [r3, #31]
1504:C:/Users/dtjld/Desktop/AIoT_software/LiteOS_Lab_overseas/LiteOS_Lab/iot_link/os/liteos/base/core\los_task.c **** 
1505:C:/Users/dtjld/Desktop/AIoT_software/LiteOS_Lab_overseas/LiteOS_Lab/iot_link/os/liteos/base/core\los_task.c ****     pstTaskInfo->uwBottomOfStack = TRUNCATE(((UINT32)(pstTaskCB->uwTopOfStack) + (pstTaskCB->uwStac
 4341              		.loc 2 1505 0 discriminator 4
 4342 00e8 3B69     		ldr	r3, [r7, #16]
 4343 00ea DA68     		ldr	r2, [r3, #12]
 4344 00ec 3B69     		ldr	r3, [r7, #16]
 4345 00ee 9B68     		ldr	r3, [r3, #8]
 4346 00f0 1344     		add	r3, r3, r2
 4347 00f2 23F00702 		bic	r2, r3, #7
 4348 00f6 3B68     		ldr	r3, [r7]
 4349 00f8 1A65     		str	r2, [r3, #80]
1506:C:/Users/dtjld/Desktop/AIoT_software/LiteOS_Lab_overseas/LiteOS_Lab/iot_link/os/liteos/base/core\los_task.c ****     pstTaskInfo->uwCurrUsed = pstTaskInfo->uwBottomOfStack - pstTaskInfo->uwSP;
 4350              		.loc 2 1506 0 discriminator 4
 4351 00fa 3B68     		ldr	r3, [r7]
 4352 00fc 1A6D     		ldr	r2, [r3, #80]
 4353 00fe 3B68     		ldr	r3, [r7]
 4354 0100 5B6D     		ldr	r3, [r3, #84]
 4355 0102 D21A     		subs	r2, r2, r3
 4356 0104 3B68     		ldr	r3, [r7]
 4357 0106 9A65     		str	r2, [r3, #88]
1507:C:/Users/dtjld/Desktop/AIoT_software/LiteOS_Lab_overseas/LiteOS_Lab/iot_link/os/liteos/base/core\los_task.c **** 
1508:C:/Users/dtjld/Desktop/AIoT_software/LiteOS_Lab_overseas/LiteOS_Lab/iot_link/os/liteos/base/core\los_task.c ****     if (OS_TASK_MAGIC_WORD == *(UINT32 *)pstTaskInfo->uwTopOfStack)
 4358              		.loc 2 1508 0 discriminator 4
 4359 0108 3B68     		ldr	r3, [r7]
 4360 010a DB6C     		ldr	r3, [r3, #76]
 4361 010c 1B68     		ldr	r3, [r3]
 4362 010e B3F1CC3F 		cmp	r3, #-858993460
 4363 0112 1FD1     		bne	.L251
1509:C:/Users/dtjld/Desktop/AIoT_software/LiteOS_Lab_overseas/LiteOS_Lab/iot_link/os/liteos/base/core\los_task.c ****     {
1510:C:/Users/dtjld/Desktop/AIoT_software/LiteOS_Lab_overseas/LiteOS_Lab/iot_link/os/liteos/base/core\los_task.c ****         puwStack = (UINT32 *)(pstTaskInfo->uwTopOfStack + 4);
 4364              		.loc 2 1510 0
 4365 0114 3B68     		ldr	r3, [r7]
 4366 0116 DB6C     		ldr	r3, [r3, #76]
 4367 0118 0433     		adds	r3, r3, #4
 4368 011a 7B61     		str	r3, [r7, #20]
1511:C:/Users/dtjld/Desktop/AIoT_software/LiteOS_Lab_overseas/LiteOS_Lab/iot_link/os/liteos/base/core\los_task.c ****         while ((puwStack < (UINT32 *)pstTaskInfo->uwSP) && (*puwStack == 0xCACACACA))
 4369              		.loc 2 1511 0
 4370 011c 02E0     		b	.L252
 4371              	.L254:
1512:C:/Users/dtjld/Desktop/AIoT_software/LiteOS_Lab_overseas/LiteOS_Lab/iot_link/os/liteos/base/core\los_task.c ****         {
1513:C:/Users/dtjld/Desktop/AIoT_software/LiteOS_Lab_overseas/LiteOS_Lab/iot_link/os/liteos/base/core\los_task.c ****             puwStack += 1;
 4372              		.loc 2 1513 0
 4373 011e 7B69     		ldr	r3, [r7, #20]
 4374 0120 0433     		adds	r3, r3, #4
 4375 0122 7B61     		str	r3, [r7, #20]
 4376              	.L252:
1511:C:/Users/dtjld/Desktop/AIoT_software/LiteOS_Lab_overseas/LiteOS_Lab/iot_link/os/liteos/base/core\los_task.c ****         while ((puwStack < (UINT32 *)pstTaskInfo->uwSP) && (*puwStack == 0xCACACACA))
 4377              		.loc 2 1511 0
 4378 0124 3B68     		ldr	r3, [r7]
 4379 0126 5B6D     		ldr	r3, [r3, #84]
 4380 0128 1A46     		mov	r2, r3
 4381 012a 7B69     		ldr	r3, [r7, #20]
ARM GAS  C:\Users\dtjld\AppData\Local\Temp\ccU8krAq.s 			page 109


 4382 012c 9342     		cmp	r3, r2
 4383 012e 04D2     		bcs	.L253
1511:C:/Users/dtjld/Desktop/AIoT_software/LiteOS_Lab_overseas/LiteOS_Lab/iot_link/os/liteos/base/core\los_task.c ****         while ((puwStack < (UINT32 *)pstTaskInfo->uwSP) && (*puwStack == 0xCACACACA))
 4384              		.loc 2 1511 0 is_stmt 0 discriminator 1
 4385 0130 7B69     		ldr	r3, [r7, #20]
 4386 0132 1B68     		ldr	r3, [r3]
 4387 0134 B3F1CA3F 		cmp	r3, #-892679478
 4388 0138 F1D0     		beq	.L254
 4389              	.L253:
1514:C:/Users/dtjld/Desktop/AIoT_software/LiteOS_Lab_overseas/LiteOS_Lab/iot_link/os/liteos/base/core\los_task.c ****         }
1515:C:/Users/dtjld/Desktop/AIoT_software/LiteOS_Lab_overseas/LiteOS_Lab/iot_link/os/liteos/base/core\los_task.c **** 
1516:C:/Users/dtjld/Desktop/AIoT_software/LiteOS_Lab_overseas/LiteOS_Lab/iot_link/os/liteos/base/core\los_task.c ****         pstTaskInfo->uwPeakUsed = pstTaskCB->uwStackSize - ((UINT32)puwStack - pstTaskInfo->uwTopOf
 4390              		.loc 2 1516 0 is_stmt 1
 4391 013a 3B69     		ldr	r3, [r7, #16]
 4392 013c 9A68     		ldr	r2, [r3, #8]
 4393 013e 3B68     		ldr	r3, [r7]
 4394 0140 D96C     		ldr	r1, [r3, #76]
 4395 0142 7B69     		ldr	r3, [r7, #20]
 4396 0144 CB1A     		subs	r3, r1, r3
 4397 0146 1A44     		add	r2, r2, r3
 4398 0148 3B68     		ldr	r3, [r7]
 4399 014a DA65     		str	r2, [r3, #92]
1517:C:/Users/dtjld/Desktop/AIoT_software/LiteOS_Lab_overseas/LiteOS_Lab/iot_link/os/liteos/base/core\los_task.c ****         pstTaskInfo->bOvf = FALSE;
 4400              		.loc 2 1517 0
 4401 014c 3B68     		ldr	r3, [r7]
 4402 014e 0022     		movs	r2, #0
 4403 0150 1A66     		str	r2, [r3, #96]
 4404 0152 06E0     		b	.L255
 4405              	.L251:
1518:C:/Users/dtjld/Desktop/AIoT_software/LiteOS_Lab_overseas/LiteOS_Lab/iot_link/os/liteos/base/core\los_task.c ****     }
1519:C:/Users/dtjld/Desktop/AIoT_software/LiteOS_Lab_overseas/LiteOS_Lab/iot_link/os/liteos/base/core\los_task.c ****     else
1520:C:/Users/dtjld/Desktop/AIoT_software/LiteOS_Lab_overseas/LiteOS_Lab/iot_link/os/liteos/base/core\los_task.c ****     {
1521:C:/Users/dtjld/Desktop/AIoT_software/LiteOS_Lab_overseas/LiteOS_Lab/iot_link/os/liteos/base/core\los_task.c ****         pstTaskInfo->uwPeakUsed = 0xFFFFFFFF;
 4406              		.loc 2 1521 0
 4407 0154 3B68     		ldr	r3, [r7]
 4408 0156 4FF0FF32 		mov	r2, #-1
 4409 015a DA65     		str	r2, [r3, #92]
1522:C:/Users/dtjld/Desktop/AIoT_software/LiteOS_Lab_overseas/LiteOS_Lab/iot_link/os/liteos/base/core\los_task.c ****         pstTaskInfo->bOvf = TRUE;
 4410              		.loc 2 1522 0
 4411 015c 3B68     		ldr	r3, [r7]
 4412 015e 0122     		movs	r2, #1
 4413 0160 1A66     		str	r2, [r3, #96]
 4414              	.L255:
1523:C:/Users/dtjld/Desktop/AIoT_software/LiteOS_Lab_overseas/LiteOS_Lab/iot_link/os/liteos/base/core\los_task.c ****     }
1524:C:/Users/dtjld/Desktop/AIoT_software/LiteOS_Lab_overseas/LiteOS_Lab/iot_link/os/liteos/base/core\los_task.c **** 
1525:C:/Users/dtjld/Desktop/AIoT_software/LiteOS_Lab_overseas/LiteOS_Lab/iot_link/os/liteos/base/core\los_task.c ****     (VOID)LOS_IntRestore(uwIntSave);
 4415              		.loc 2 1525 0
 4416 0162 F868     		ldr	r0, [r7, #12]
 4417 0164 FFF7FEFF 		bl	LOS_IntRestore
1526:C:/Users/dtjld/Desktop/AIoT_software/LiteOS_Lab_overseas/LiteOS_Lab/iot_link/os/liteos/base/core\los_task.c **** 
1527:C:/Users/dtjld/Desktop/AIoT_software/LiteOS_Lab_overseas/LiteOS_Lab/iot_link/os/liteos/base/core\los_task.c ****     return LOS_OK;
 4418              		.loc 2 1527 0
 4419 0168 0023     		movs	r3, #0
 4420              	.L244:
1528:C:/Users/dtjld/Desktop/AIoT_software/LiteOS_Lab_overseas/LiteOS_Lab/iot_link/os/liteos/base/core\los_task.c **** }
 4421              		.loc 2 1528 0
 4422 016a 1846     		mov	r0, r3
ARM GAS  C:\Users\dtjld\AppData\Local\Temp\ccU8krAq.s 			page 110


 4423 016c 1837     		adds	r7, r7, #24
 4424              	.LCFI173:
 4425              		.cfi_def_cfa_offset 8
 4426 016e BD46     		mov	sp, r7
 4427              	.LCFI174:
 4428              		.cfi_def_cfa_register 13
 4429              		@ sp needed
 4430 0170 80BD     		pop	{r7, pc}
 4431              	.L257:
 4432 0172 00BF     		.align	2
 4433              	.L256:
 4434 0174 01020002 		.word	33554945
 4435 0178 00000000 		.word	g_uwTskMaxNum
 4436 017c 07020002 		.word	33554951
 4437 0180 00000000 		.word	g_pstTaskCBArray
 4438 0184 0A020002 		.word	33554954
 4439              		.cfi_endproc
 4440              	.LFE160:
 4442              		.section	.text.LOS_TaskStatusGet,"ax",%progbits
 4443              		.align	1
 4444              		.global	LOS_TaskStatusGet
 4445              		.syntax unified
 4446              		.thumb
 4447              		.thumb_func
 4448              		.fpu fpv4-sp-d16
 4450              	LOS_TaskStatusGet:
 4451              	.LFB161:
1529:C:/Users/dtjld/Desktop/AIoT_software/LiteOS_Lab_overseas/LiteOS_Lab/iot_link/os/liteos/base/core\los_task.c **** 
1530:C:/Users/dtjld/Desktop/AIoT_software/LiteOS_Lab_overseas/LiteOS_Lab/iot_link/os/liteos/base/core\los_task.c **** /*****************************************************************************
1531:C:/Users/dtjld/Desktop/AIoT_software/LiteOS_Lab_overseas/LiteOS_Lab/iot_link/os/liteos/base/core\los_task.c ****  Function : LOS_TaskStatusGet
1532:C:/Users/dtjld/Desktop/AIoT_software/LiteOS_Lab_overseas/LiteOS_Lab/iot_link/os/liteos/base/core\los_task.c ****  Description : Get status of the task
1533:C:/Users/dtjld/Desktop/AIoT_software/LiteOS_Lab_overseas/LiteOS_Lab/iot_link/os/liteos/base/core\los_task.c ****  Input       : uwTaskID
1534:C:/Users/dtjld/Desktop/AIoT_software/LiteOS_Lab_overseas/LiteOS_Lab/iot_link/os/liteos/base/core\los_task.c ****  Output      : puwTaskStatus
1535:C:/Users/dtjld/Desktop/AIoT_software/LiteOS_Lab_overseas/LiteOS_Lab/iot_link/os/liteos/base/core\los_task.c ****  Return      : LOS_OK on success or error code on failure
1536:C:/Users/dtjld/Desktop/AIoT_software/LiteOS_Lab_overseas/LiteOS_Lab/iot_link/os/liteos/base/core\los_task.c ****  *****************************************************************************/
1537:C:/Users/dtjld/Desktop/AIoT_software/LiteOS_Lab_overseas/LiteOS_Lab/iot_link/os/liteos/base/core\los_task.c **** LITE_OS_SEC_TEXT_MINOR UINT32 LOS_TaskStatusGet(UINT32 uwTaskID, UINT32 *puwTaskStatus)
1538:C:/Users/dtjld/Desktop/AIoT_software/LiteOS_Lab_overseas/LiteOS_Lab/iot_link/os/liteos/base/core\los_task.c **** {
 4452              		.loc 2 1538 0
 4453              		.cfi_startproc
 4454              		@ args = 0, pretend = 0, frame = 16
 4455              		@ frame_needed = 1, uses_anonymous_args = 0
 4456 0000 80B5     		push	{r7, lr}
 4457              	.LCFI175:
 4458              		.cfi_def_cfa_offset 8
 4459              		.cfi_offset 7, -8
 4460              		.cfi_offset 14, -4
 4461 0002 84B0     		sub	sp, sp, #16
 4462              	.LCFI176:
 4463              		.cfi_def_cfa_offset 24
 4464 0004 00AF     		add	r7, sp, #0
 4465              	.LCFI177:
 4466              		.cfi_def_cfa_register 7
 4467 0006 7860     		str	r0, [r7, #4]
 4468 0008 3960     		str	r1, [r7]
1539:C:/Users/dtjld/Desktop/AIoT_software/LiteOS_Lab_overseas/LiteOS_Lab/iot_link/os/liteos/base/core\los_task.c ****     UINT32    uwIntSave;
1540:C:/Users/dtjld/Desktop/AIoT_software/LiteOS_Lab_overseas/LiteOS_Lab/iot_link/os/liteos/base/core\los_task.c ****     LOS_TASK_CB *pstTaskCB;
1541:C:/Users/dtjld/Desktop/AIoT_software/LiteOS_Lab_overseas/LiteOS_Lab/iot_link/os/liteos/base/core\los_task.c **** 
ARM GAS  C:\Users\dtjld\AppData\Local\Temp\ccU8krAq.s 			page 111


1542:C:/Users/dtjld/Desktop/AIoT_software/LiteOS_Lab_overseas/LiteOS_Lab/iot_link/os/liteos/base/core\los_task.c ****     if (NULL == puwTaskStatus)
 4469              		.loc 2 1542 0
 4470 000a 3B68     		ldr	r3, [r7]
 4471 000c 002B     		cmp	r3, #0
 4472 000e 01D1     		bne	.L259
1543:C:/Users/dtjld/Desktop/AIoT_software/LiteOS_Lab_overseas/LiteOS_Lab/iot_link/os/liteos/base/core\los_task.c ****     {
1544:C:/Users/dtjld/Desktop/AIoT_software/LiteOS_Lab_overseas/LiteOS_Lab/iot_link/os/liteos/base/core\los_task.c ****         return LOS_ERRNO_TSK_PTR_NULL;
 4473              		.loc 2 1544 0
 4474 0010 164B     		ldr	r3, .L263
 4475 0012 26E0     		b	.L260
 4476              	.L259:
1545:C:/Users/dtjld/Desktop/AIoT_software/LiteOS_Lab_overseas/LiteOS_Lab/iot_link/os/liteos/base/core\los_task.c ****     }
1546:C:/Users/dtjld/Desktop/AIoT_software/LiteOS_Lab_overseas/LiteOS_Lab/iot_link/os/liteos/base/core\los_task.c **** 
1547:C:/Users/dtjld/Desktop/AIoT_software/LiteOS_Lab_overseas/LiteOS_Lab/iot_link/os/liteos/base/core\los_task.c ****     if (OS_CHECK_TSK_PID_NOIDLE(uwTaskID))
 4477              		.loc 2 1547 0
 4478 0014 164B     		ldr	r3, .L263+4
 4479 0016 1B68     		ldr	r3, [r3]
 4480 0018 7A68     		ldr	r2, [r7, #4]
 4481 001a 9A42     		cmp	r2, r3
 4482 001c 01D3     		bcc	.L261
1548:C:/Users/dtjld/Desktop/AIoT_software/LiteOS_Lab_overseas/LiteOS_Lab/iot_link/os/liteos/base/core\los_task.c ****     {
1549:C:/Users/dtjld/Desktop/AIoT_software/LiteOS_Lab_overseas/LiteOS_Lab/iot_link/os/liteos/base/core\los_task.c ****         return LOS_ERRNO_TSK_ID_INVALID;
 4483              		.loc 2 1549 0
 4484 001e 154B     		ldr	r3, .L263+8
 4485 0020 1FE0     		b	.L260
 4486              	.L261:
1550:C:/Users/dtjld/Desktop/AIoT_software/LiteOS_Lab_overseas/LiteOS_Lab/iot_link/os/liteos/base/core\los_task.c ****     }
1551:C:/Users/dtjld/Desktop/AIoT_software/LiteOS_Lab_overseas/LiteOS_Lab/iot_link/os/liteos/base/core\los_task.c **** 
1552:C:/Users/dtjld/Desktop/AIoT_software/LiteOS_Lab_overseas/LiteOS_Lab/iot_link/os/liteos/base/core\los_task.c ****     pstTaskCB = OS_TCB_FROM_TID(uwTaskID);
 4487              		.loc 2 1552 0
 4488 0022 154B     		ldr	r3, .L263+12
 4489 0024 1A68     		ldr	r2, [r3]
 4490 0026 7B68     		ldr	r3, [r7, #4]
 4491 0028 5421     		movs	r1, #84
 4492 002a 01FB03F3 		mul	r3, r1, r3
 4493 002e 1344     		add	r3, r3, r2
 4494 0030 FB60     		str	r3, [r7, #12]
1553:C:/Users/dtjld/Desktop/AIoT_software/LiteOS_Lab_overseas/LiteOS_Lab/iot_link/os/liteos/base/core\los_task.c ****     uwIntSave = LOS_IntLock();
 4495              		.loc 2 1553 0
 4496 0032 FFF7FEFF 		bl	LOS_IntLock
 4497 0036 B860     		str	r0, [r7, #8]
1554:C:/Users/dtjld/Desktop/AIoT_software/LiteOS_Lab_overseas/LiteOS_Lab/iot_link/os/liteos/base/core\los_task.c **** 
1555:C:/Users/dtjld/Desktop/AIoT_software/LiteOS_Lab_overseas/LiteOS_Lab/iot_link/os/liteos/base/core\los_task.c ****     if (OS_TASK_STATUS_UNUSED & pstTaskCB->usTaskStatus)
 4498              		.loc 2 1555 0
 4499 0038 FB68     		ldr	r3, [r7, #12]
 4500 003a 9B88     		ldrh	r3, [r3, #4]
 4501 003c 03F00103 		and	r3, r3, #1
 4502 0040 9BB2     		uxth	r3, r3
 4503 0042 002B     		cmp	r3, #0
 4504 0044 04D0     		beq	.L262
1556:C:/Users/dtjld/Desktop/AIoT_software/LiteOS_Lab_overseas/LiteOS_Lab/iot_link/os/liteos/base/core\los_task.c ****     {
1557:C:/Users/dtjld/Desktop/AIoT_software/LiteOS_Lab_overseas/LiteOS_Lab/iot_link/os/liteos/base/core\los_task.c ****         (VOID)LOS_IntRestore(uwIntSave);
 4505              		.loc 2 1557 0
 4506 0046 B868     		ldr	r0, [r7, #8]
 4507 0048 FFF7FEFF 		bl	LOS_IntRestore
1558:C:/Users/dtjld/Desktop/AIoT_software/LiteOS_Lab_overseas/LiteOS_Lab/iot_link/os/liteos/base/core\los_task.c ****         return LOS_ERRNO_TSK_NOT_CREATED;
 4508              		.loc 2 1558 0
ARM GAS  C:\Users\dtjld\AppData\Local\Temp\ccU8krAq.s 			page 112


 4509 004c 0B4B     		ldr	r3, .L263+16
 4510 004e 08E0     		b	.L260
 4511              	.L262:
1559:C:/Users/dtjld/Desktop/AIoT_software/LiteOS_Lab_overseas/LiteOS_Lab/iot_link/os/liteos/base/core\los_task.c ****     }
1560:C:/Users/dtjld/Desktop/AIoT_software/LiteOS_Lab_overseas/LiteOS_Lab/iot_link/os/liteos/base/core\los_task.c **** 
1561:C:/Users/dtjld/Desktop/AIoT_software/LiteOS_Lab_overseas/LiteOS_Lab/iot_link/os/liteos/base/core\los_task.c ****     *puwTaskStatus = pstTaskCB->usTaskStatus;
 4512              		.loc 2 1561 0
 4513 0050 FB68     		ldr	r3, [r7, #12]
 4514 0052 9B88     		ldrh	r3, [r3, #4]
 4515 0054 1A46     		mov	r2, r3
 4516 0056 3B68     		ldr	r3, [r7]
 4517 0058 1A60     		str	r2, [r3]
1562:C:/Users/dtjld/Desktop/AIoT_software/LiteOS_Lab_overseas/LiteOS_Lab/iot_link/os/liteos/base/core\los_task.c **** 
1563:C:/Users/dtjld/Desktop/AIoT_software/LiteOS_Lab_overseas/LiteOS_Lab/iot_link/os/liteos/base/core\los_task.c ****     (VOID)LOS_IntRestore(uwIntSave);
 4518              		.loc 2 1563 0
 4519 005a B868     		ldr	r0, [r7, #8]
 4520 005c FFF7FEFF 		bl	LOS_IntRestore
1564:C:/Users/dtjld/Desktop/AIoT_software/LiteOS_Lab_overseas/LiteOS_Lab/iot_link/os/liteos/base/core\los_task.c **** 
1565:C:/Users/dtjld/Desktop/AIoT_software/LiteOS_Lab_overseas/LiteOS_Lab/iot_link/os/liteos/base/core\los_task.c ****     return LOS_OK;
 4521              		.loc 2 1565 0
 4522 0060 0023     		movs	r3, #0
 4523              	.L260:
1566:C:/Users/dtjld/Desktop/AIoT_software/LiteOS_Lab_overseas/LiteOS_Lab/iot_link/os/liteos/base/core\los_task.c **** }
 4524              		.loc 2 1566 0
 4525 0062 1846     		mov	r0, r3
 4526 0064 1037     		adds	r7, r7, #16
 4527              	.LCFI178:
 4528              		.cfi_def_cfa_offset 8
 4529 0066 BD46     		mov	sp, r7
 4530              	.LCFI179:
 4531              		.cfi_def_cfa_register 13
 4532              		@ sp needed
 4533 0068 80BD     		pop	{r7, pc}
 4534              	.L264:
 4535 006a 00BF     		.align	2
 4536              	.L263:
 4537 006c 01020002 		.word	33554945
 4538 0070 00000000 		.word	g_uwTskMaxNum
 4539 0074 07020002 		.word	33554951
 4540 0078 00000000 		.word	g_pstTaskCBArray
 4541 007c 0A020002 		.word	33554954
 4542              		.cfi_endproc
 4543              	.LFE161:
 4545              		.section	.text.LOS_TaskSwitchInfoGet,"ax",%progbits
 4546              		.align	1
 4547              		.global	LOS_TaskSwitchInfoGet
 4548              		.syntax unified
 4549              		.thumb
 4550              		.thumb_func
 4551              		.fpu fpv4-sp-d16
 4553              	LOS_TaskSwitchInfoGet:
 4554              	.LFB162:
1567:C:/Users/dtjld/Desktop/AIoT_software/LiteOS_Lab_overseas/LiteOS_Lab/iot_link/os/liteos/base/core\los_task.c **** 
1568:C:/Users/dtjld/Desktop/AIoT_software/LiteOS_Lab_overseas/LiteOS_Lab/iot_link/os/liteos/base/core\los_task.c **** #if (LOSCFG_BASE_CORE_EXC_TSK_SWITCH == YES)
1569:C:/Users/dtjld/Desktop/AIoT_software/LiteOS_Lab_overseas/LiteOS_Lab/iot_link/os/liteos/base/core\los_task.c **** /*****************************************************************************
1570:C:/Users/dtjld/Desktop/AIoT_software/LiteOS_Lab_overseas/LiteOS_Lab/iot_link/os/liteos/base/core\los_task.c ****  Function : LOS_TaskSwitchInfoGet
1571:C:/Users/dtjld/Desktop/AIoT_software/LiteOS_Lab_overseas/LiteOS_Lab/iot_link/os/liteos/base/core\los_task.c ****  Description : save the information of the task switch
ARM GAS  C:\Users\dtjld\AppData\Local\Temp\ccU8krAq.s 			page 113


1572:C:/Users/dtjld/Desktop/AIoT_software/LiteOS_Lab_overseas/LiteOS_Lab/iot_link/os/liteos/base/core\los_task.c ****  Input       : uwIdx
1573:C:/Users/dtjld/Desktop/AIoT_software/LiteOS_Lab_overseas/LiteOS_Lab/iot_link/os/liteos/base/core\los_task.c ****  Output      : pTaskSwitchInfo
1574:C:/Users/dtjld/Desktop/AIoT_software/LiteOS_Lab_overseas/LiteOS_Lab/iot_link/os/liteos/base/core\los_task.c ****  Return      : LOS_OK on success or error code on failure
1575:C:/Users/dtjld/Desktop/AIoT_software/LiteOS_Lab_overseas/LiteOS_Lab/iot_link/os/liteos/base/core\los_task.c ****  *****************************************************************************/
1576:C:/Users/dtjld/Desktop/AIoT_software/LiteOS_Lab_overseas/LiteOS_Lab/iot_link/os/liteos/base/core\los_task.c **** LITE_OS_SEC_TEXT_MINOR UINT32 LOS_TaskSwitchInfoGet(UINT32 uwIdx, UINT32 *puwTaskSwitchInfo)
1577:C:/Users/dtjld/Desktop/AIoT_software/LiteOS_Lab_overseas/LiteOS_Lab/iot_link/os/liteos/base/core\los_task.c **** {
 4555              		.loc 2 1577 0
 4556              		.cfi_startproc
 4557              		@ args = 0, pretend = 0, frame = 16
 4558              		@ frame_needed = 1, uses_anonymous_args = 0
 4559 0000 80B5     		push	{r7, lr}
 4560              	.LCFI180:
 4561              		.cfi_def_cfa_offset 8
 4562              		.cfi_offset 7, -8
 4563              		.cfi_offset 14, -4
 4564 0002 84B0     		sub	sp, sp, #16
 4565              	.LCFI181:
 4566              		.cfi_def_cfa_offset 24
 4567 0004 00AF     		add	r7, sp, #0
 4568              	.LCFI182:
 4569              		.cfi_def_cfa_register 7
 4570 0006 7860     		str	r0, [r7, #4]
 4571 0008 3960     		str	r1, [r7]
1578:C:/Users/dtjld/Desktop/AIoT_software/LiteOS_Lab_overseas/LiteOS_Lab/iot_link/os/liteos/base/core\los_task.c ****     UINTPTR uvIntSave;
1579:C:/Users/dtjld/Desktop/AIoT_software/LiteOS_Lab_overseas/LiteOS_Lab/iot_link/os/liteos/base/core\los_task.c **** 
1580:C:/Users/dtjld/Desktop/AIoT_software/LiteOS_Lab_overseas/LiteOS_Lab/iot_link/os/liteos/base/core\los_task.c ****     if (uwIdx >= OS_TASK_SWITCH_INFO_COUNT)
 4572              		.loc 2 1580 0
 4573 000a 7B68     		ldr	r3, [r7, #4]
 4574 000c 092B     		cmp	r3, #9
 4575 000e 02D9     		bls	.L266
1581:C:/Users/dtjld/Desktop/AIoT_software/LiteOS_Lab_overseas/LiteOS_Lab/iot_link/os/liteos/base/core\los_task.c ****     {
1582:C:/Users/dtjld/Desktop/AIoT_software/LiteOS_Lab_overseas/LiteOS_Lab/iot_link/os/liteos/base/core\los_task.c ****         uwIdx -= OS_TASK_SWITCH_INFO_COUNT;
 4576              		.loc 2 1582 0
 4577 0010 7B68     		ldr	r3, [r7, #4]
 4578 0012 0A3B     		subs	r3, r3, #10
 4579 0014 7B60     		str	r3, [r7, #4]
 4580              	.L266:
1583:C:/Users/dtjld/Desktop/AIoT_software/LiteOS_Lab_overseas/LiteOS_Lab/iot_link/os/liteos/base/core\los_task.c ****     }
1584:C:/Users/dtjld/Desktop/AIoT_software/LiteOS_Lab_overseas/LiteOS_Lab/iot_link/os/liteos/base/core\los_task.c **** 
1585:C:/Users/dtjld/Desktop/AIoT_software/LiteOS_Lab_overseas/LiteOS_Lab/iot_link/os/liteos/base/core\los_task.c ****     if (NULL == puwTaskSwitchInfo)
 4581              		.loc 2 1585 0
 4582 0016 3B68     		ldr	r3, [r7]
 4583 0018 002B     		cmp	r3, #0
 4584 001a 01D1     		bne	.L267
1586:C:/Users/dtjld/Desktop/AIoT_software/LiteOS_Lab_overseas/LiteOS_Lab/iot_link/os/liteos/base/core\los_task.c ****     {
1587:C:/Users/dtjld/Desktop/AIoT_software/LiteOS_Lab_overseas/LiteOS_Lab/iot_link/os/liteos/base/core\los_task.c ****         return LOS_ERRNO_TSK_PTR_NULL;
 4585              		.loc 2 1587 0
 4586 001c 104B     		ldr	r3, .L269
 4587 001e 1AE0     		b	.L268
 4588              	.L267:
1588:C:/Users/dtjld/Desktop/AIoT_software/LiteOS_Lab_overseas/LiteOS_Lab/iot_link/os/liteos/base/core\los_task.c ****     }
1589:C:/Users/dtjld/Desktop/AIoT_software/LiteOS_Lab_overseas/LiteOS_Lab/iot_link/os/liteos/base/core\los_task.c **** 
1590:C:/Users/dtjld/Desktop/AIoT_software/LiteOS_Lab_overseas/LiteOS_Lab/iot_link/os/liteos/base/core\los_task.c ****     uvIntSave = LOS_IntLock();
 4589              		.loc 2 1590 0
 4590 0020 FFF7FEFF 		bl	LOS_IntLock
 4591 0024 F860     		str	r0, [r7, #12]
1591:C:/Users/dtjld/Desktop/AIoT_software/LiteOS_Lab_overseas/LiteOS_Lab/iot_link/os/liteos/base/core\los_task.c **** 
ARM GAS  C:\Users\dtjld\AppData\Local\Temp\ccU8krAq.s 			page 114


1592:C:/Users/dtjld/Desktop/AIoT_software/LiteOS_Lab_overseas/LiteOS_Lab/iot_link/os/liteos/base/core\los_task.c ****     (*puwTaskSwitchInfo) = g_astTskSwitchInfo.auwPID[uwIdx];
 4592              		.loc 2 1592 0
 4593 0026 0F4A     		ldr	r2, .L269+4
 4594 0028 7B68     		ldr	r3, [r7, #4]
 4595 002a 5B00     		lsls	r3, r3, #1
 4596 002c 1344     		add	r3, r3, r2
 4597 002e 5B88     		ldrh	r3, [r3, #2]
 4598 0030 1A46     		mov	r2, r3
 4599 0032 3B68     		ldr	r3, [r7]
 4600 0034 1A60     		str	r2, [r3]
1593:C:/Users/dtjld/Desktop/AIoT_software/LiteOS_Lab_overseas/LiteOS_Lab/iot_link/os/liteos/base/core\los_task.c ****     memcpy((VOID *)(puwTaskSwitchInfo + 1), g_astTskSwitchInfo.acName[uwIdx], LOS_TASK_NAMELEN);
 4601              		.loc 2 1593 0
 4602 0036 3B68     		ldr	r3, [r7]
 4603 0038 181D     		adds	r0, r3, #4
 4604 003a 7B68     		ldr	r3, [r7, #4]
 4605 003c 5B01     		lsls	r3, r3, #5
 4606 003e 1033     		adds	r3, r3, #16
 4607 0040 084A     		ldr	r2, .L269+4
 4608 0042 1344     		add	r3, r3, r2
 4609 0044 0633     		adds	r3, r3, #6
 4610 0046 2022     		movs	r2, #32
 4611 0048 1946     		mov	r1, r3
 4612 004a FFF7FEFF 		bl	memcpy
1594:C:/Users/dtjld/Desktop/AIoT_software/LiteOS_Lab_overseas/LiteOS_Lab/iot_link/os/liteos/base/core\los_task.c **** 
1595:C:/Users/dtjld/Desktop/AIoT_software/LiteOS_Lab_overseas/LiteOS_Lab/iot_link/os/liteos/base/core\los_task.c ****     (VOID)LOS_IntRestore(uvIntSave);
 4613              		.loc 2 1595 0
 4614 004e F868     		ldr	r0, [r7, #12]
 4615 0050 FFF7FEFF 		bl	LOS_IntRestore
1596:C:/Users/dtjld/Desktop/AIoT_software/LiteOS_Lab_overseas/LiteOS_Lab/iot_link/os/liteos/base/core\los_task.c ****     return LOS_OK;
 4616              		.loc 2 1596 0
 4617 0054 0023     		movs	r3, #0
 4618              	.L268:
1597:C:/Users/dtjld/Desktop/AIoT_software/LiteOS_Lab_overseas/LiteOS_Lab/iot_link/os/liteos/base/core\los_task.c **** }
 4619              		.loc 2 1597 0
 4620 0056 1846     		mov	r0, r3
 4621 0058 1037     		adds	r7, r7, #16
 4622              	.LCFI183:
 4623              		.cfi_def_cfa_offset 8
 4624 005a BD46     		mov	sp, r7
 4625              	.LCFI184:
 4626              		.cfi_def_cfa_register 13
 4627              		@ sp needed
 4628 005c 80BD     		pop	{r7, pc}
 4629              	.L270:
 4630 005e 00BF     		.align	2
 4631              	.L269:
 4632 0060 01020002 		.word	33554945
 4633 0064 00000000 		.word	g_astTskSwitchInfo
 4634              		.cfi_endproc
 4635              	.LFE162:
 4637              		.section	.text.LOS_TaskInfoMonitor,"ax",%progbits
 4638              		.align	1
 4639              		.global	LOS_TaskInfoMonitor
 4640              		.syntax unified
 4641              		.thumb
 4642              		.thumb_func
 4643              		.fpu fpv4-sp-d16
ARM GAS  C:\Users\dtjld\AppData\Local\Temp\ccU8krAq.s 			page 115


 4645              	LOS_TaskInfoMonitor:
 4646              	.LFB163:
1598:C:/Users/dtjld/Desktop/AIoT_software/LiteOS_Lab_overseas/LiteOS_Lab/iot_link/os/liteos/base/core\los_task.c **** #endif
1599:C:/Users/dtjld/Desktop/AIoT_software/LiteOS_Lab_overseas/LiteOS_Lab/iot_link/os/liteos/base/core\los_task.c **** 
1600:C:/Users/dtjld/Desktop/AIoT_software/LiteOS_Lab_overseas/LiteOS_Lab/iot_link/os/liteos/base/core\los_task.c **** /*****************************************************************************
1601:C:/Users/dtjld/Desktop/AIoT_software/LiteOS_Lab_overseas/LiteOS_Lab/iot_link/os/liteos/base/core\los_task.c **** Function   : LOS_TaskInfoMonitor
1602:C:/Users/dtjld/Desktop/AIoT_software/LiteOS_Lab_overseas/LiteOS_Lab/iot_link/os/liteos/base/core\los_task.c **** Description: Get all task info
1603:C:/Users/dtjld/Desktop/AIoT_software/LiteOS_Lab_overseas/LiteOS_Lab/iot_link/os/liteos/base/core\los_task.c **** Input      : None
1604:C:/Users/dtjld/Desktop/AIoT_software/LiteOS_Lab_overseas/LiteOS_Lab/iot_link/os/liteos/base/core\los_task.c **** Return     : LOS_OK on success ,or OS_ERROR on failure
1605:C:/Users/dtjld/Desktop/AIoT_software/LiteOS_Lab_overseas/LiteOS_Lab/iot_link/os/liteos/base/core\los_task.c **** *****************************************************************************/
1606:C:/Users/dtjld/Desktop/AIoT_software/LiteOS_Lab_overseas/LiteOS_Lab/iot_link/os/liteos/base/core\los_task.c **** LITE_OS_SEC_TEXT_MINOR UINT32 LOS_TaskInfoMonitor(VOID)
1607:C:/Users/dtjld/Desktop/AIoT_software/LiteOS_Lab_overseas/LiteOS_Lab/iot_link/os/liteos/base/core\los_task.c **** {
 4647              		.loc 2 1607 0
 4648              		.cfi_startproc
 4649              		@ args = 0, pretend = 0, frame = 8
 4650              		@ frame_needed = 1, uses_anonymous_args = 0
 4651 0000 80B5     		push	{r7, lr}
 4652              	.LCFI185:
 4653              		.cfi_def_cfa_offset 8
 4654              		.cfi_offset 7, -8
 4655              		.cfi_offset 14, -4
 4656 0002 82B0     		sub	sp, sp, #8
 4657              	.LCFI186:
 4658              		.cfi_def_cfa_offset 16
 4659 0004 00AF     		add	r7, sp, #0
 4660              	.LCFI187:
 4661              		.cfi_def_cfa_register 7
1608:C:/Users/dtjld/Desktop/AIoT_software/LiteOS_Lab_overseas/LiteOS_Lab/iot_link/os/liteos/base/core\los_task.c ****     UINT32 uwRet;
1609:C:/Users/dtjld/Desktop/AIoT_software/LiteOS_Lab_overseas/LiteOS_Lab/iot_link/os/liteos/base/core\los_task.c **** 
1610:C:/Users/dtjld/Desktop/AIoT_software/LiteOS_Lab_overseas/LiteOS_Lab/iot_link/os/liteos/base/core\los_task.c ****     uwRet = osGetAllTskInfo();
 4662              		.loc 2 1610 0
 4663 0006 FFF7FEFF 		bl	osGetAllTskInfo
 4664 000a 7860     		str	r0, [r7, #4]
1611:C:/Users/dtjld/Desktop/AIoT_software/LiteOS_Lab_overseas/LiteOS_Lab/iot_link/os/liteos/base/core\los_task.c **** 
1612:C:/Users/dtjld/Desktop/AIoT_software/LiteOS_Lab_overseas/LiteOS_Lab/iot_link/os/liteos/base/core\los_task.c ****     return uwRet;
 4665              		.loc 2 1612 0
 4666 000c 7B68     		ldr	r3, [r7, #4]
1613:C:/Users/dtjld/Desktop/AIoT_software/LiteOS_Lab_overseas/LiteOS_Lab/iot_link/os/liteos/base/core\los_task.c **** }
 4667              		.loc 2 1613 0
 4668 000e 1846     		mov	r0, r3
 4669 0010 0837     		adds	r7, r7, #8
 4670              	.LCFI188:
 4671              		.cfi_def_cfa_offset 8
 4672 0012 BD46     		mov	sp, r7
 4673              	.LCFI189:
 4674              		.cfi_def_cfa_register 13
 4675              		@ sp needed
 4676 0014 80BD     		pop	{r7, pc}
 4677              		.cfi_endproc
 4678              	.LFE163:
 4680              		.section	.text.LOS_TaskIsRunning,"ax",%progbits
 4681              		.align	1
 4682              		.global	LOS_TaskIsRunning
 4683              		.syntax unified
 4684              		.thumb
 4685              		.thumb_func
 4686              		.fpu fpv4-sp-d16
ARM GAS  C:\Users\dtjld\AppData\Local\Temp\ccU8krAq.s 			page 116


 4688              	LOS_TaskIsRunning:
 4689              	.LFB164:
1614:C:/Users/dtjld/Desktop/AIoT_software/LiteOS_Lab_overseas/LiteOS_Lab/iot_link/os/liteos/base/core\los_task.c **** 
1615:C:/Users/dtjld/Desktop/AIoT_software/LiteOS_Lab_overseas/LiteOS_Lab/iot_link/os/liteos/base/core\los_task.c **** /*****************************************************************************
1616:C:/Users/dtjld/Desktop/AIoT_software/LiteOS_Lab_overseas/LiteOS_Lab/iot_link/os/liteos/base/core\los_task.c ****  Function : LOS_TaskIsRunning
1617:C:/Users/dtjld/Desktop/AIoT_software/LiteOS_Lab_overseas/LiteOS_Lab/iot_link/os/liteos/base/core\los_task.c ****  Description : Check if LiteOS has been started.
1618:C:/Users/dtjld/Desktop/AIoT_software/LiteOS_Lab_overseas/LiteOS_Lab/iot_link/os/liteos/base/core\los_task.c ****  Input       : VOID
1619:C:/Users/dtjld/Desktop/AIoT_software/LiteOS_Lab_overseas/LiteOS_Lab/iot_link/os/liteos/base/core\los_task.c ****  Output      : VOID
1620:C:/Users/dtjld/Desktop/AIoT_software/LiteOS_Lab_overseas/LiteOS_Lab/iot_link/os/liteos/base/core\los_task.c ****  Return      : TRUE means LiteOS was started, FALSE means not.
1621:C:/Users/dtjld/Desktop/AIoT_software/LiteOS_Lab_overseas/LiteOS_Lab/iot_link/os/liteos/base/core\los_task.c ****  *****************************************************************************/
1622:C:/Users/dtjld/Desktop/AIoT_software/LiteOS_Lab_overseas/LiteOS_Lab/iot_link/os/liteos/base/core\los_task.c **** LITE_OS_SEC_TEXT_MINOR BOOL LOS_TaskIsRunning(VOID)
1623:C:/Users/dtjld/Desktop/AIoT_software/LiteOS_Lab_overseas/LiteOS_Lab/iot_link/os/liteos/base/core\los_task.c **** {
 4690              		.loc 2 1623 0
 4691              		.cfi_startproc
 4692              		@ args = 0, pretend = 0, frame = 0
 4693              		@ frame_needed = 1, uses_anonymous_args = 0
 4694              		@ link register save eliminated.
 4695 0000 80B4     		push	{r7}
 4696              	.LCFI190:
 4697              		.cfi_def_cfa_offset 4
 4698              		.cfi_offset 7, -4
 4699 0002 00AF     		add	r7, sp, #0
 4700              	.LCFI191:
 4701              		.cfi_def_cfa_register 7
1624:C:/Users/dtjld/Desktop/AIoT_software/LiteOS_Lab_overseas/LiteOS_Lab/iot_link/os/liteos/base/core\los_task.c ****     return g_bTaskScheduled;
 4702              		.loc 2 1624 0
 4703 0004 034B     		ldr	r3, .L275
 4704 0006 1B68     		ldr	r3, [r3]
1625:C:/Users/dtjld/Desktop/AIoT_software/LiteOS_Lab_overseas/LiteOS_Lab/iot_link/os/liteos/base/core\los_task.c **** }
 4705              		.loc 2 1625 0
 4706 0008 1846     		mov	r0, r3
 4707 000a BD46     		mov	sp, r7
 4708              	.LCFI192:
 4709              		.cfi_def_cfa_register 13
 4710              		@ sp needed
 4711 000c 5DF8047B 		ldr	r7, [sp], #4
 4712              	.LCFI193:
 4713              		.cfi_restore 7
 4714              		.cfi_def_cfa_offset 0
 4715 0010 7047     		bx	lr
 4716              	.L276:
 4717 0012 00BF     		.align	2
 4718              	.L275:
 4719 0014 00000000 		.word	g_bTaskScheduled
 4720              		.cfi_endproc
 4721              	.LFE164:
 4723              		.section	.text.LOS_NewTaskIDGet,"ax",%progbits
 4724              		.align	1
 4725              		.global	LOS_NewTaskIDGet
 4726              		.syntax unified
 4727              		.thumb
 4728              		.thumb_func
 4729              		.fpu fpv4-sp-d16
 4731              	LOS_NewTaskIDGet:
 4732              	.LFB165:
1626:C:/Users/dtjld/Desktop/AIoT_software/LiteOS_Lab_overseas/LiteOS_Lab/iot_link/os/liteos/base/core\los_task.c **** 
1627:C:/Users/dtjld/Desktop/AIoT_software/LiteOS_Lab_overseas/LiteOS_Lab/iot_link/os/liteos/base/core\los_task.c **** /*****************************************************************************
ARM GAS  C:\Users\dtjld\AppData\Local\Temp\ccU8krAq.s 			page 117


1628:C:/Users/dtjld/Desktop/AIoT_software/LiteOS_Lab_overseas/LiteOS_Lab/iot_link/os/liteos/base/core\los_task.c ****  Function : LOS_NewTaskIDGet
1629:C:/Users/dtjld/Desktop/AIoT_software/LiteOS_Lab_overseas/LiteOS_Lab/iot_link/os/liteos/base/core\los_task.c ****  Description : get id of current new task.
1630:C:/Users/dtjld/Desktop/AIoT_software/LiteOS_Lab_overseas/LiteOS_Lab/iot_link/os/liteos/base/core\los_task.c ****  Input       : None
1631:C:/Users/dtjld/Desktop/AIoT_software/LiteOS_Lab_overseas/LiteOS_Lab/iot_link/os/liteos/base/core\los_task.c ****  Output      : None
1632:C:/Users/dtjld/Desktop/AIoT_software/LiteOS_Lab_overseas/LiteOS_Lab/iot_link/os/liteos/base/core\los_task.c ****  Return      : task id
1633:C:/Users/dtjld/Desktop/AIoT_software/LiteOS_Lab_overseas/LiteOS_Lab/iot_link/os/liteos/base/core\los_task.c ****  *****************************************************************************/
1634:C:/Users/dtjld/Desktop/AIoT_software/LiteOS_Lab_overseas/LiteOS_Lab/iot_link/os/liteos/base/core\los_task.c **** LITE_OS_SEC_TEXT UINT32 LOS_NewTaskIDGet(VOID)
1635:C:/Users/dtjld/Desktop/AIoT_software/LiteOS_Lab_overseas/LiteOS_Lab/iot_link/os/liteos/base/core\los_task.c **** {
 4733              		.loc 2 1635 0
 4734              		.cfi_startproc
 4735              		@ args = 0, pretend = 0, frame = 0
 4736              		@ frame_needed = 1, uses_anonymous_args = 0
 4737              		@ link register save eliminated.
 4738 0000 80B4     		push	{r7}
 4739              	.LCFI194:
 4740              		.cfi_def_cfa_offset 4
 4741              		.cfi_offset 7, -4
 4742 0002 00AF     		add	r7, sp, #0
 4743              	.LCFI195:
 4744              		.cfi_def_cfa_register 7
1636:C:/Users/dtjld/Desktop/AIoT_software/LiteOS_Lab_overseas/LiteOS_Lab/iot_link/os/liteos/base/core\los_task.c ****     if (NULL == g_stLosTask.pstNewTask)
 4745              		.loc 2 1636 0
 4746 0004 064B     		ldr	r3, .L280
 4747 0006 5B68     		ldr	r3, [r3, #4]
 4748 0008 002B     		cmp	r3, #0
 4749 000a 01D1     		bne	.L278
1637:C:/Users/dtjld/Desktop/AIoT_software/LiteOS_Lab_overseas/LiteOS_Lab/iot_link/os/liteos/base/core\los_task.c ****     {
1638:C:/Users/dtjld/Desktop/AIoT_software/LiteOS_Lab_overseas/LiteOS_Lab/iot_link/os/liteos/base/core\los_task.c ****         return LOS_ERRNO_TSK_ID_INVALID;
 4750              		.loc 2 1638 0
 4751 000c 054B     		ldr	r3, .L280+4
 4752 000e 02E0     		b	.L279
 4753              	.L278:
1639:C:/Users/dtjld/Desktop/AIoT_software/LiteOS_Lab_overseas/LiteOS_Lab/iot_link/os/liteos/base/core\los_task.c ****     }
1640:C:/Users/dtjld/Desktop/AIoT_software/LiteOS_Lab_overseas/LiteOS_Lab/iot_link/os/liteos/base/core\los_task.c ****     return g_stLosTask.pstNewTask->uwTaskID;
 4754              		.loc 2 1640 0
 4755 0010 034B     		ldr	r3, .L280
 4756 0012 5B68     		ldr	r3, [r3, #4]
 4757 0014 1B69     		ldr	r3, [r3, #16]
 4758              	.L279:
1641:C:/Users/dtjld/Desktop/AIoT_software/LiteOS_Lab_overseas/LiteOS_Lab/iot_link/os/liteos/base/core\los_task.c **** }
 4759              		.loc 2 1641 0
 4760 0016 1846     		mov	r0, r3
 4761 0018 BD46     		mov	sp, r7
 4762              	.LCFI196:
 4763              		.cfi_def_cfa_register 13
 4764              		@ sp needed
 4765 001a 5DF8047B 		ldr	r7, [sp], #4
 4766              	.LCFI197:
 4767              		.cfi_restore 7
 4768              		.cfi_def_cfa_offset 0
 4769 001e 7047     		bx	lr
 4770              	.L281:
 4771              		.align	2
 4772              	.L280:
 4773 0020 00000000 		.word	g_stLosTask
 4774 0024 07020002 		.word	33554951
 4775              		.cfi_endproc
ARM GAS  C:\Users\dtjld\AppData\Local\Temp\ccU8krAq.s 			page 118


 4776              	.LFE165:
 4778              		.section	.text.LOS_TaskNameGet,"ax",%progbits
 4779              		.align	1
 4780              		.global	LOS_TaskNameGet
 4781              		.syntax unified
 4782              		.thumb
 4783              		.thumb_func
 4784              		.fpu fpv4-sp-d16
 4786              	LOS_TaskNameGet:
 4787              	.LFB166:
1642:C:/Users/dtjld/Desktop/AIoT_software/LiteOS_Lab_overseas/LiteOS_Lab/iot_link/os/liteos/base/core\los_task.c **** 
1643:C:/Users/dtjld/Desktop/AIoT_software/LiteOS_Lab_overseas/LiteOS_Lab/iot_link/os/liteos/base/core\los_task.c **** /*****************************************************************************
1644:C:/Users/dtjld/Desktop/AIoT_software/LiteOS_Lab_overseas/LiteOS_Lab/iot_link/os/liteos/base/core\los_task.c ****  Function : LOS_TaskNameGet
1645:C:/Users/dtjld/Desktop/AIoT_software/LiteOS_Lab_overseas/LiteOS_Lab/iot_link/os/liteos/base/core\los_task.c ****  Description : get Name of current new task.
1646:C:/Users/dtjld/Desktop/AIoT_software/LiteOS_Lab_overseas/LiteOS_Lab/iot_link/os/liteos/base/core\los_task.c ****  Input       : uwTaskID -----task id
1647:C:/Users/dtjld/Desktop/AIoT_software/LiteOS_Lab_overseas/LiteOS_Lab/iot_link/os/liteos/base/core\los_task.c ****  Output      : None
1648:C:/Users/dtjld/Desktop/AIoT_software/LiteOS_Lab_overseas/LiteOS_Lab/iot_link/os/liteos/base/core\los_task.c ****  Return      : task name
1649:C:/Users/dtjld/Desktop/AIoT_software/LiteOS_Lab_overseas/LiteOS_Lab/iot_link/os/liteos/base/core\los_task.c ****  *****************************************************************************/
1650:C:/Users/dtjld/Desktop/AIoT_software/LiteOS_Lab_overseas/LiteOS_Lab/iot_link/os/liteos/base/core\los_task.c **** LITE_OS_SEC_TEXT CHAR* LOS_TaskNameGet(UINT32 uwTaskID)
1651:C:/Users/dtjld/Desktop/AIoT_software/LiteOS_Lab_overseas/LiteOS_Lab/iot_link/os/liteos/base/core\los_task.c **** {
 4788              		.loc 2 1651 0
 4789              		.cfi_startproc
 4790              		@ args = 0, pretend = 0, frame = 16
 4791              		@ frame_needed = 1, uses_anonymous_args = 0
 4792 0000 80B5     		push	{r7, lr}
 4793              	.LCFI198:
 4794              		.cfi_def_cfa_offset 8
 4795              		.cfi_offset 7, -8
 4796              		.cfi_offset 14, -4
 4797 0002 84B0     		sub	sp, sp, #16
 4798              	.LCFI199:
 4799              		.cfi_def_cfa_offset 24
 4800 0004 00AF     		add	r7, sp, #0
 4801              	.LCFI200:
 4802              		.cfi_def_cfa_register 7
 4803 0006 7860     		str	r0, [r7, #4]
1652:C:/Users/dtjld/Desktop/AIoT_software/LiteOS_Lab_overseas/LiteOS_Lab/iot_link/os/liteos/base/core\los_task.c ****     UINT32    uwIntSave;
1653:C:/Users/dtjld/Desktop/AIoT_software/LiteOS_Lab_overseas/LiteOS_Lab/iot_link/os/liteos/base/core\los_task.c ****     LOS_TASK_CB *pstTaskCB;
1654:C:/Users/dtjld/Desktop/AIoT_software/LiteOS_Lab_overseas/LiteOS_Lab/iot_link/os/liteos/base/core\los_task.c **** 
1655:C:/Users/dtjld/Desktop/AIoT_software/LiteOS_Lab_overseas/LiteOS_Lab/iot_link/os/liteos/base/core\los_task.c ****     if (OS_CHECK_TSK_PID_NOIDLE(uwTaskID))
 4804              		.loc 2 1655 0
 4805 0008 134B     		ldr	r3, .L286
 4806 000a 1B68     		ldr	r3, [r3]
 4807 000c 7A68     		ldr	r2, [r7, #4]
 4808 000e 9A42     		cmp	r2, r3
 4809 0010 01D3     		bcc	.L283
1656:C:/Users/dtjld/Desktop/AIoT_software/LiteOS_Lab_overseas/LiteOS_Lab/iot_link/os/liteos/base/core\los_task.c ****     {
1657:C:/Users/dtjld/Desktop/AIoT_software/LiteOS_Lab_overseas/LiteOS_Lab/iot_link/os/liteos/base/core\los_task.c ****         return NULL;
 4810              		.loc 2 1657 0
 4811 0012 0023     		movs	r3, #0
 4812 0014 1BE0     		b	.L284
 4813              	.L283:
1658:C:/Users/dtjld/Desktop/AIoT_software/LiteOS_Lab_overseas/LiteOS_Lab/iot_link/os/liteos/base/core\los_task.c ****     }
1659:C:/Users/dtjld/Desktop/AIoT_software/LiteOS_Lab_overseas/LiteOS_Lab/iot_link/os/liteos/base/core\los_task.c **** 
1660:C:/Users/dtjld/Desktop/AIoT_software/LiteOS_Lab_overseas/LiteOS_Lab/iot_link/os/liteos/base/core\los_task.c ****     pstTaskCB = OS_TCB_FROM_TID(uwTaskID);
 4814              		.loc 2 1660 0
 4815 0016 114B     		ldr	r3, .L286+4
ARM GAS  C:\Users\dtjld\AppData\Local\Temp\ccU8krAq.s 			page 119


 4816 0018 1A68     		ldr	r2, [r3]
 4817 001a 7B68     		ldr	r3, [r7, #4]
 4818 001c 5421     		movs	r1, #84
 4819 001e 01FB03F3 		mul	r3, r1, r3
 4820 0022 1344     		add	r3, r3, r2
 4821 0024 FB60     		str	r3, [r7, #12]
1661:C:/Users/dtjld/Desktop/AIoT_software/LiteOS_Lab_overseas/LiteOS_Lab/iot_link/os/liteos/base/core\los_task.c **** 
1662:C:/Users/dtjld/Desktop/AIoT_software/LiteOS_Lab_overseas/LiteOS_Lab/iot_link/os/liteos/base/core\los_task.c ****     uwIntSave = LOS_IntLock();
 4822              		.loc 2 1662 0
 4823 0026 FFF7FEFF 		bl	LOS_IntLock
 4824 002a B860     		str	r0, [r7, #8]
1663:C:/Users/dtjld/Desktop/AIoT_software/LiteOS_Lab_overseas/LiteOS_Lab/iot_link/os/liteos/base/core\los_task.c ****     if (OS_TASK_STATUS_UNUSED & pstTaskCB->usTaskStatus)
 4825              		.loc 2 1663 0
 4826 002c FB68     		ldr	r3, [r7, #12]
 4827 002e 9B88     		ldrh	r3, [r3, #4]
 4828 0030 03F00103 		and	r3, r3, #1
 4829 0034 9BB2     		uxth	r3, r3
 4830 0036 002B     		cmp	r3, #0
 4831 0038 04D0     		beq	.L285
1664:C:/Users/dtjld/Desktop/AIoT_software/LiteOS_Lab_overseas/LiteOS_Lab/iot_link/os/liteos/base/core\los_task.c ****     {
1665:C:/Users/dtjld/Desktop/AIoT_software/LiteOS_Lab_overseas/LiteOS_Lab/iot_link/os/liteos/base/core\los_task.c ****         (VOID)LOS_IntRestore(uwIntSave);
 4832              		.loc 2 1665 0
 4833 003a B868     		ldr	r0, [r7, #8]
 4834 003c FFF7FEFF 		bl	LOS_IntRestore
1666:C:/Users/dtjld/Desktop/AIoT_software/LiteOS_Lab_overseas/LiteOS_Lab/iot_link/os/liteos/base/core\los_task.c ****         return NULL;
 4835              		.loc 2 1666 0
 4836 0040 0023     		movs	r3, #0
 4837 0042 04E0     		b	.L284
 4838              	.L285:
1667:C:/Users/dtjld/Desktop/AIoT_software/LiteOS_Lab_overseas/LiteOS_Lab/iot_link/os/liteos/base/core\los_task.c ****     }
1668:C:/Users/dtjld/Desktop/AIoT_software/LiteOS_Lab_overseas/LiteOS_Lab/iot_link/os/liteos/base/core\los_task.c ****     (VOID)LOS_IntRestore(uwIntSave);
 4839              		.loc 2 1668 0
 4840 0044 B868     		ldr	r0, [r7, #8]
 4841 0046 FFF7FEFF 		bl	LOS_IntRestore
1669:C:/Users/dtjld/Desktop/AIoT_software/LiteOS_Lab_overseas/LiteOS_Lab/iot_link/os/liteos/base/core\los_task.c **** 
1670:C:/Users/dtjld/Desktop/AIoT_software/LiteOS_Lab_overseas/LiteOS_Lab/iot_link/os/liteos/base/core\los_task.c ****     return pstTaskCB->pcTaskName;
 4842              		.loc 2 1670 0
 4843 004a FB68     		ldr	r3, [r7, #12]
 4844 004c 5B6A     		ldr	r3, [r3, #36]
 4845              	.L284:
1671:C:/Users/dtjld/Desktop/AIoT_software/LiteOS_Lab_overseas/LiteOS_Lab/iot_link/os/liteos/base/core\los_task.c **** }
 4846              		.loc 2 1671 0
 4847 004e 1846     		mov	r0, r3
 4848 0050 1037     		adds	r7, r7, #16
 4849              	.LCFI201:
 4850              		.cfi_def_cfa_offset 8
 4851 0052 BD46     		mov	sp, r7
 4852              	.LCFI202:
 4853              		.cfi_def_cfa_register 13
 4854              		@ sp needed
 4855 0054 80BD     		pop	{r7, pc}
 4856              	.L287:
 4857 0056 00BF     		.align	2
 4858              	.L286:
 4859 0058 00000000 		.word	g_uwTskMaxNum
 4860 005c 00000000 		.word	g_pstTaskCBArray
 4861              		.cfi_endproc
ARM GAS  C:\Users\dtjld\AppData\Local\Temp\ccU8krAq.s 			page 120


 4862              	.LFE166:
 4864              		.text
 4865              	.Letext0:
 4866              		.file 3 "c:\\ac6\\systemworkbench\\plugins\\fr.ac6.mcu.externaltools.arm-none.win32_1.16.0.2018071
 4867              		.file 4 "c:\\ac6\\systemworkbench\\plugins\\fr.ac6.mcu.externaltools.arm-none.win32_1.16.0.2018071
 4868              		.file 5 "c:\\ac6\\systemworkbench\\plugins\\fr.ac6.mcu.externaltools.arm-none.win32_1.16.0.2018071
 4869              		.file 6 "c:\\ac6\\systemworkbench\\plugins\\fr.ac6.mcu.externaltools.arm-none.win32_1.16.0.2018071
 4870              		.file 7 "c:\\ac6\\systemworkbench\\plugins\\fr.ac6.mcu.externaltools.arm-none.win32_1.16.0.2018071
 4871              		.file 8 "C:/Users/dtjld/Desktop/AIoT_software/LiteOS_Lab_overseas/LiteOS_Lab/iot_link/os/liteos/in
 4872              		.file 9 "c:\\ac6\\systemworkbench\\plugins\\fr.ac6.mcu.externaltools.arm-none.win32_1.16.0.2018071
 4873              		.file 10 "C:/Users/dtjld/Desktop/AIoT_software/LiteOS_Lab_overseas/LiteOS_Lab/iot_link/os/liteos/a
 4874              		.file 11 "C:/Users/dtjld/Desktop/AIoT_software/LiteOS_Lab_overseas/LiteOS_Lab/targets/GD32F303_Bea
 4875              		.file 12 "c:\\ac6\\systemworkbench\\plugins\\fr.ac6.mcu.externaltools.arm-none.win32_1.16.0.201807
 4876              		.file 13 "C:/Users/dtjld/Desktop/AIoT_software/LiteOS_Lab_overseas/LiteOS_Lab/iot_link/os/liteos/i
 4877              		.file 14 "C:/Users/dtjld/Desktop/AIoT_software/LiteOS_Lab_overseas/LiteOS_Lab/iot_link/os/liteos/i
 4878              		.file 15 "C:/Users/dtjld/Desktop/AIoT_software/LiteOS_Lab_overseas/LiteOS_Lab/drivers/third_party/
 4879              		.file 16 "C:/Users/dtjld/Desktop/AIoT_software/LiteOS_Lab_overseas/LiteOS_Lab/iot_link/os/liteos/a
 4880              		.file 17 "C:/Users/dtjld/Desktop/AIoT_software/LiteOS_Lab_overseas/LiteOS_Lab/iot_link/os/liteos/i
 4881              		.file 18 "C:/Users/dtjld/Desktop/AIoT_software/LiteOS_Lab_overseas/LiteOS_Lab/iot_link/os/liteos/i
 4882              		.file 19 "C:/Users/dtjld/Desktop/AIoT_software/LiteOS_Lab_overseas/LiteOS_Lab/iot_link/os/liteos/i
 4883              		.file 20 "C:/Users/dtjld/Desktop/AIoT_software/LiteOS_Lab_overseas/LiteOS_Lab/iot_link/os/liteos/b
 4884              		.file 21 "C:/Users/dtjld/Desktop/AIoT_software/LiteOS_Lab_overseas/LiteOS_Lab/iot_link/os/liteos/b
 4885              		.file 22 "C:/Users/dtjld/Desktop/AIoT_software/LiteOS_Lab_overseas/LiteOS_Lab/iot_link/os/liteos/i
 4886              		.file 23 "C:/Users/dtjld/Desktop/AIoT_software/LiteOS_Lab_overseas/LiteOS_Lab/iot_link/os/liteos/b
 4887              		.file 24 "C:/Users/dtjld/Desktop/AIoT_software/LiteOS_Lab_overseas/LiteOS_Lab/iot_link/os/liteos/b
 4888              		.file 25 "<built-in>"
ARM GAS  C:\Users\dtjld\AppData\Local\Temp\ccU8krAq.s 			page 121


DEFINED SYMBOLS
                            *ABS*:00000000 los_task.c
C:\Users\dtjld\AppData\Local\Temp\ccU8krAq.s:18     .text.LOS_ListInit:00000000 $t
C:\Users\dtjld\AppData\Local\Temp\ccU8krAq.s:24     .text.LOS_ListInit:00000000 LOS_ListInit
C:\Users\dtjld\AppData\Local\Temp\ccU8krAq.s:69     .text.LOS_ListAdd:00000000 $t
C:\Users\dtjld\AppData\Local\Temp\ccU8krAq.s:75     .text.LOS_ListAdd:00000000 LOS_ListAdd
C:\Users\dtjld\AppData\Local\Temp\ccU8krAq.s:130    .text.LOS_ListTailInsert:00000000 $t
C:\Users\dtjld\AppData\Local\Temp\ccU8krAq.s:136    .text.LOS_ListTailInsert:00000000 LOS_ListTailInsert
C:\Users\dtjld\AppData\Local\Temp\ccU8krAq.s:175    .text.LOS_ListDelete:00000000 $t
C:\Users\dtjld\AppData\Local\Temp\ccU8krAq.s:181    .text.LOS_ListDelete:00000000 LOS_ListDelete
C:\Users\dtjld\AppData\Local\Temp\ccU8krAq.s:237    .text.LOS_ListEmpty:00000000 $t
C:\Users\dtjld\AppData\Local\Temp\ccU8krAq.s:243    .text.LOS_ListEmpty:00000000 LOS_ListEmpty
                            *COM*:00000004 g_pstTaskCBArray
                            *COM*:00000008 g_stLosFreeTask
                            *COM*:00000008 g_stTskRecyleList
                            *COM*:00000008 g_stLosTask
                            *COM*:00000002 g_usLosTaskLock
                            *COM*:00000004 g_uwTskMaxNum
                            *COM*:00000004 g_uwIdleTaskID
                            *COM*:00000004 g_uwSwtmrTaskID
                            *COM*:00000008 g_stTaskTimerList
                            *COM*:00000008 g_stTskSortLink
                            *COM*:00000004 g_bTaskScheduled
C:\Users\dtjld\AppData\Local\Temp\ccU8krAq.s:303    .bss.g_pfnTskSwitchHook:00000000 g_pfnTskSwitchHook
C:\Users\dtjld\AppData\Local\Temp\ccU8krAq.s:300    .bss.g_pfnTskSwitchHook:00000000 $d
C:\Users\dtjld\AppData\Local\Temp\ccU8krAq.s:310    .bss.g_pfnUsrTskSwitchHook:00000000 g_pfnUsrTskSwitchHook
C:\Users\dtjld\AppData\Local\Temp\ccU8krAq.s:307    .bss.g_pfnUsrTskSwitchHook:00000000 $d
                            *COM*:00000156 g_astTskSwitchInfo
C:\Users\dtjld\AppData\Local\Temp\ccU8krAq.s:314    .text.osIdleTask:00000000 $t
C:\Users\dtjld\AppData\Local\Temp\ccU8krAq.s:321    .text.osIdleTask:00000000 osIdleTask
C:\Users\dtjld\AppData\Local\Temp\ccU8krAq.s:343    .text.osTaskPriModify:00000000 $t
C:\Users\dtjld\AppData\Local\Temp\ccU8krAq.s:350    .text.osTaskPriModify:00000000 osTaskPriModify
C:\Users\dtjld\AppData\Local\Temp\ccU8krAq.s:429    .text.osTaskAdd2TimerList:00000000 $t
C:\Users\dtjld\AppData\Local\Temp\ccU8krAq.s:436    .text.osTaskAdd2TimerList:00000000 osTaskAdd2TimerList
C:\Users\dtjld\AppData\Local\Temp\ccU8krAq.s:604    .text.osTaskAdd2TimerList:0000010c $d
C:\Users\dtjld\AppData\Local\Temp\ccU8krAq.s:609    .text.osTimerListDelete:00000000 $t
C:\Users\dtjld\AppData\Local\Temp\ccU8krAq.s:616    .text.osTimerListDelete:00000000 osTimerListDelete
C:\Users\dtjld\AppData\Local\Temp\ccU8krAq.s:690    .text.osTimerListDelete:00000060 $d
C:\Users\dtjld\AppData\Local\Temp\ccU8krAq.s:695    .text.osTaskScan:00000000 $t
C:\Users\dtjld\AppData\Local\Temp\ccU8krAq.s:702    .text.osTaskScan:00000000 osTaskScan
C:\Users\dtjld\AppData\Local\Temp\ccU8krAq.s:911    .text.osTaskScan:00000148 $d
C:\Users\dtjld\AppData\Local\Temp\ccU8krAq.s:916    .rodata:00000000 $d
C:\Users\dtjld\AppData\Local\Temp\ccU8krAq.s:944    .text.osConvertTskStatus:00000000 $t
C:\Users\dtjld\AppData\Local\Temp\ccU8krAq.s:951    .text.osConvertTskStatus:00000000 osConvertTskStatus
C:\Users\dtjld\AppData\Local\Temp\ccU8krAq.s:1070   .text.osConvertTskStatus:00000098 $d
C:\Users\dtjld\AppData\Local\Temp\ccU8krAq.s:1090   .text.osGetTaskWaterLine:00000000 $t
C:\Users\dtjld\AppData\Local\Temp\ccU8krAq.s:1097   .text.osGetTaskWaterLine:00000000 osGetTaskWaterLine
C:\Users\dtjld\AppData\Local\Temp\ccU8krAq.s:1194   .text.osGetTaskWaterLine:0000007c $d
C:\Users\dtjld\AppData\Local\Temp\ccU8krAq.s:1225   .text.osGetAllTskInfo:00000000 $t
C:\Users\dtjld\AppData\Local\Temp\ccU8krAq.s:1232   .text.osGetAllTskInfo:00000000 osGetAllTskInfo
C:\Users\dtjld\AppData\Local\Temp\ccU8krAq.s:1376   .text.osGetAllTskInfo:000000dc $d
C:\Users\dtjld\AppData\Local\Temp\ccU8krAq.s:1388   .text.osTaskInit:00000000 $t
C:\Users\dtjld\AppData\Local\Temp\ccU8krAq.s:1395   .text.osTaskInit:00000000 osTaskInit
C:\Users\dtjld\AppData\Local\Temp\ccU8krAq.s:1570   .text.osTaskInit:0000010c $d
C:\Users\dtjld\AppData\Local\Temp\ccU8krAq.s:1587   .text.osIdleTaskCreate:00000000 $t
C:\Users\dtjld\AppData\Local\Temp\ccU8krAq.s:1594   .text.osIdleTaskCreate:00000000 osIdleTaskCreate
C:\Users\dtjld\AppData\Local\Temp\ccU8krAq.s:2469   .text.LOS_TaskCreate:00000000 LOS_TaskCreate
ARM GAS  C:\Users\dtjld\AppData\Local\Temp\ccU8krAq.s 			page 122


C:\Users\dtjld\AppData\Local\Temp\ccU8krAq.s:1659   .text.osIdleTaskCreate:00000044 $d
C:\Users\dtjld\AppData\Local\Temp\ccU8krAq.s:1666   .text.LOS_CurTaskIDGet:00000000 $t
C:\Users\dtjld\AppData\Local\Temp\ccU8krAq.s:1673   .text.LOS_CurTaskIDGet:00000000 LOS_CurTaskIDGet
C:\Users\dtjld\AppData\Local\Temp\ccU8krAq.s:1715   .text.LOS_CurTaskIDGet:00000020 $d
C:\Users\dtjld\AppData\Local\Temp\ccU8krAq.s:1721   .text.LOS_NextTaskIDGet:00000000 $t
C:\Users\dtjld\AppData\Local\Temp\ccU8krAq.s:1728   .text.LOS_NextTaskIDGet:00000000 LOS_NextTaskIDGet
C:\Users\dtjld\AppData\Local\Temp\ccU8krAq.s:1770   .text.LOS_NextTaskIDGet:00000020 $d
C:\Users\dtjld\AppData\Local\Temp\ccU8krAq.s:1776   .text.LOS_CurTaskNameGet:00000000 $t
C:\Users\dtjld\AppData\Local\Temp\ccU8krAq.s:1783   .text.LOS_CurTaskNameGet:00000000 LOS_CurTaskNameGet
C:\Users\dtjld\AppData\Local\Temp\ccU8krAq.s:1833   .text.LOS_CurTaskNameGet:00000028 $d
C:\Users\dtjld\AppData\Local\Temp\ccU8krAq.s:1849   .text.osTaskSwitchCheck:00000000 $t
C:\Users\dtjld\AppData\Local\Temp\ccU8krAq.s:1856   .text.osTaskSwitchCheck:00000000 osTaskSwitchCheck
C:\Users\dtjld\AppData\Local\Temp\ccU8krAq.s:2023   .text.osTaskSwitchCheck:0000010c $d
C:\Users\dtjld\AppData\Local\Temp\ccU8krAq.s:2034   .text.osTaskMonInit:00000000 $t
C:\Users\dtjld\AppData\Local\Temp\ccU8krAq.s:2041   .text.osTaskMonInit:00000000 osTaskMonInit
C:\Users\dtjld\AppData\Local\Temp\ccU8krAq.s:2079   .text.osTaskMonInit:00000028 $d
C:\Users\dtjld\AppData\Local\Temp\ccU8krAq.s:2087   .text.osTaskEntry:00000000 $t
C:\Users\dtjld\AppData\Local\Temp\ccU8krAq.s:2094   .text.osTaskEntry:00000000 osTaskEntry
C:\Users\dtjld\AppData\Local\Temp\ccU8krAq.s:2989   .text.LOS_TaskDelete:00000000 LOS_TaskDelete
C:\Users\dtjld\AppData\Local\Temp\ccU8krAq.s:2146   .text.osTaskEntry:00000038 $d
C:\Users\dtjld\AppData\Local\Temp\ccU8krAq.s:2151   .text.LOS_TaskCreateOnly:00000000 $t
C:\Users\dtjld\AppData\Local\Temp\ccU8krAq.s:2158   .text.LOS_TaskCreateOnly:00000000 LOS_TaskCreateOnly
C:\Users\dtjld\AppData\Local\Temp\ccU8krAq.s:2446   .text.LOS_TaskCreateOnly:000001a8 $d
C:\Users\dtjld\AppData\Local\Temp\ccU8krAq.s:2462   .text.LOS_TaskCreate:00000000 $t
C:\Users\dtjld\AppData\Local\Temp\ccU8krAq.s:2613   .text.LOS_TaskCreate:000000d8 $d
C:\Users\dtjld\AppData\Local\Temp\ccU8krAq.s:2622   .text.LOS_TaskResume:00000000 $t
C:\Users\dtjld\AppData\Local\Temp\ccU8krAq.s:2629   .text.LOS_TaskResume:00000000 LOS_TaskResume
C:\Users\dtjld\AppData\Local\Temp\ccU8krAq.s:2774   .text.LOS_TaskResume:000000d4 $d
C:\Users\dtjld\AppData\Local\Temp\ccU8krAq.s:2784   .text.LOS_TaskSuspend:00000000 $t
C:\Users\dtjld\AppData\Local\Temp\ccU8krAq.s:2791   .text.LOS_TaskSuspend:00000000 LOS_TaskSuspend
C:\Users\dtjld\AppData\Local\Temp\ccU8krAq.s:2966   .text.LOS_TaskSuspend:000000f8 $d
C:\Users\dtjld\AppData\Local\Temp\ccU8krAq.s:2982   .text.LOS_TaskDelete:00000000 $t
C:\Users\dtjld\AppData\Local\Temp\ccU8krAq.s:3278   .text.LOS_TaskDelete:000001cc $d
C:\Users\dtjld\AppData\Local\Temp\ccU8krAq.s:3295   .text.LOS_TaskDelay:00000000 $t
C:\Users\dtjld\AppData\Local\Temp\ccU8krAq.s:3302   .text.LOS_TaskDelay:00000000 LOS_TaskDelay
C:\Users\dtjld\AppData\Local\Temp\ccU8krAq.s:3928   .text.LOS_TaskYield:00000000 LOS_TaskYield
C:\Users\dtjld\AppData\Local\Temp\ccU8krAq.s:3401   .text.LOS_TaskDelay:00000084 $d
C:\Users\dtjld\AppData\Local\Temp\ccU8krAq.s:3410   .text.LOS_TaskPriGet:00000000 $t
C:\Users\dtjld\AppData\Local\Temp\ccU8krAq.s:3417   .text.LOS_TaskPriGet:00000000 LOS_TaskPriGet
C:\Users\dtjld\AppData\Local\Temp\ccU8krAq.s:3493   .text.LOS_TaskPriGet:00000060 $d
C:\Users\dtjld\AppData\Local\Temp\ccU8krAq.s:3499   .text.LOS_TaskPriSet:00000000 $t
C:\Users\dtjld\AppData\Local\Temp\ccU8krAq.s:3506   .text.LOS_TaskPriSet:00000000 LOS_TaskPriSet
C:\Users\dtjld\AppData\Local\Temp\ccU8krAq.s:3664   .text.LOS_TaskPriSet:000000e0 $d
C:\Users\dtjld\AppData\Local\Temp\ccU8krAq.s:3677   .text.LOS_CurTaskPriSet:00000000 $t
C:\Users\dtjld\AppData\Local\Temp\ccU8krAq.s:3684   .text.LOS_CurTaskPriSet:00000000 LOS_CurTaskPriSet
C:\Users\dtjld\AppData\Local\Temp\ccU8krAq.s:3727   .text.LOS_CurTaskPriSet:00000028 $d
C:\Users\dtjld\AppData\Local\Temp\ccU8krAq.s:3732   .text.osTaskWait:00000000 $t
C:\Users\dtjld\AppData\Local\Temp\ccU8krAq.s:3739   .text.osTaskWait:00000000 osTaskWait
C:\Users\dtjld\AppData\Local\Temp\ccU8krAq.s:3821   .text.osTaskWait:00000070 $d
C:\Users\dtjld\AppData\Local\Temp\ccU8krAq.s:3826   .text.osTaskWake:00000000 $t
C:\Users\dtjld\AppData\Local\Temp\ccU8krAq.s:3833   .text.osTaskWake:00000000 osTaskWake
C:\Users\dtjld\AppData\Local\Temp\ccU8krAq.s:3921   .text.LOS_TaskYield:00000000 $t
C:\Users\dtjld\AppData\Local\Temp\ccU8krAq.s:4038   .text.LOS_TaskYield:0000009c $d
C:\Users\dtjld\AppData\Local\Temp\ccU8krAq.s:4046   .text.LOS_TaskLock:00000000 $t
C:\Users\dtjld\AppData\Local\Temp\ccU8krAq.s:4053   .text.LOS_TaskLock:00000000 LOS_TaskLock
C:\Users\dtjld\AppData\Local\Temp\ccU8krAq.s:4096   .text.LOS_TaskLock:00000028 $d
C:\Users\dtjld\AppData\Local\Temp\ccU8krAq.s:4101   .text.LOS_TaskUnlock:00000000 $t
ARM GAS  C:\Users\dtjld\AppData\Local\Temp\ccU8krAq.s 			page 123


C:\Users\dtjld\AppData\Local\Temp\ccU8krAq.s:4108   .text.LOS_TaskUnlock:00000000 LOS_TaskUnlock
C:\Users\dtjld\AppData\Local\Temp\ccU8krAq.s:4169   .text.LOS_TaskUnlock:00000040 $d
C:\Users\dtjld\AppData\Local\Temp\ccU8krAq.s:4174   .text.LOS_TaskInfoGet:00000000 $t
C:\Users\dtjld\AppData\Local\Temp\ccU8krAq.s:4181   .text.LOS_TaskInfoGet:00000000 LOS_TaskInfoGet
C:\Users\dtjld\AppData\Local\Temp\ccU8krAq.s:4434   .text.LOS_TaskInfoGet:00000174 $d
C:\Users\dtjld\AppData\Local\Temp\ccU8krAq.s:4443   .text.LOS_TaskStatusGet:00000000 $t
C:\Users\dtjld\AppData\Local\Temp\ccU8krAq.s:4450   .text.LOS_TaskStatusGet:00000000 LOS_TaskStatusGet
C:\Users\dtjld\AppData\Local\Temp\ccU8krAq.s:4537   .text.LOS_TaskStatusGet:0000006c $d
C:\Users\dtjld\AppData\Local\Temp\ccU8krAq.s:4546   .text.LOS_TaskSwitchInfoGet:00000000 $t
C:\Users\dtjld\AppData\Local\Temp\ccU8krAq.s:4553   .text.LOS_TaskSwitchInfoGet:00000000 LOS_TaskSwitchInfoGet
C:\Users\dtjld\AppData\Local\Temp\ccU8krAq.s:4632   .text.LOS_TaskSwitchInfoGet:00000060 $d
C:\Users\dtjld\AppData\Local\Temp\ccU8krAq.s:4638   .text.LOS_TaskInfoMonitor:00000000 $t
C:\Users\dtjld\AppData\Local\Temp\ccU8krAq.s:4645   .text.LOS_TaskInfoMonitor:00000000 LOS_TaskInfoMonitor
C:\Users\dtjld\AppData\Local\Temp\ccU8krAq.s:4681   .text.LOS_TaskIsRunning:00000000 $t
C:\Users\dtjld\AppData\Local\Temp\ccU8krAq.s:4688   .text.LOS_TaskIsRunning:00000000 LOS_TaskIsRunning
C:\Users\dtjld\AppData\Local\Temp\ccU8krAq.s:4719   .text.LOS_TaskIsRunning:00000014 $d
C:\Users\dtjld\AppData\Local\Temp\ccU8krAq.s:4724   .text.LOS_NewTaskIDGet:00000000 $t
C:\Users\dtjld\AppData\Local\Temp\ccU8krAq.s:4731   .text.LOS_NewTaskIDGet:00000000 LOS_NewTaskIDGet
C:\Users\dtjld\AppData\Local\Temp\ccU8krAq.s:4773   .text.LOS_NewTaskIDGet:00000020 $d
C:\Users\dtjld\AppData\Local\Temp\ccU8krAq.s:4779   .text.LOS_TaskNameGet:00000000 $t
C:\Users\dtjld\AppData\Local\Temp\ccU8krAq.s:4786   .text.LOS_TaskNameGet:00000000 LOS_TaskNameGet
C:\Users\dtjld\AppData\Local\Temp\ccU8krAq.s:4859   .text.LOS_TaskNameGet:00000058 $d

UNDEFINED SYMBOLS
osPriqueueDequeue
osPriqueueEnqueue
LOS_Schedule
printf
puts
LOS_MemAlloc
memset
osPriqueueInit
m_aucSysMem0
memcpy
LOS_Align
LOS_IntLock
LOS_MemFree
LOS_IntRestore
osTskStackAlloc
osTskStackInit
osPriqueueTop
osSchedule
g_vuwIntCount
osPriqueueSize
strncpy
