ARM GAS  C:\Users\dtjld\AppData\Local\Temp\ccGRo6oh.s 			page 1


   1              		.cpu cortex-m4
   2              		.eabi_attribute 27, 1
   3              		.eabi_attribute 28, 1
   4              		.eabi_attribute 20, 1
   5              		.eabi_attribute 21, 1
   6              		.eabi_attribute 23, 3
   7              		.eabi_attribute 24, 1
   8              		.eabi_attribute 25, 1
   9              		.eabi_attribute 26, 1
  10              		.eabi_attribute 30, 6
  11              		.eabi_attribute 34, 1
  12              		.eabi_attribute 18, 4
  13              		.file	"management.c"
  14              		.text
  15              	.Ltext0:
  16              		.cfi_sections	.debug_frame
  17              		.section	.text.dm_isUriOpaqueHandle,"ax",%progbits
  18              		.align	1
  19              		.syntax unified
  20              		.thumb
  21              		.thumb_func
  22              		.fpu fpv4-sp-d16
  24              	dm_isUriOpaqueHandle:
  25              	.LFB3:
  26              		.file 1 "C:/Users/dtjld/Desktop/AIoT_software/LiteOS_Lab_overseas/LiteOS_Lab/iot_link/network/lwm2
   1:C:/Users/dtjld/Desktop/AIoT_software/LiteOS_Lab_overseas/LiteOS_Lab/iot_link/network/lwm2m/wakaama_lwm2m/core\internals.h **** /*----------------------------------------------------------------------------
   2:C:/Users/dtjld/Desktop/AIoT_software/LiteOS_Lab_overseas/LiteOS_Lab/iot_link/network/lwm2m/wakaama_lwm2m/core\internals.h ****  * Copyright (c) <2016-2018>, <Huawei Technologies Co., Ltd>
   3:C:/Users/dtjld/Desktop/AIoT_software/LiteOS_Lab_overseas/LiteOS_Lab/iot_link/network/lwm2m/wakaama_lwm2m/core\internals.h ****  * All rights reserved.
   4:C:/Users/dtjld/Desktop/AIoT_software/LiteOS_Lab_overseas/LiteOS_Lab/iot_link/network/lwm2m/wakaama_lwm2m/core\internals.h ****  * Redistribution and use in source and binary forms, with or without modification,
   5:C:/Users/dtjld/Desktop/AIoT_software/LiteOS_Lab_overseas/LiteOS_Lab/iot_link/network/lwm2m/wakaama_lwm2m/core\internals.h ****  * are permitted provided that the following conditions are met:
   6:C:/Users/dtjld/Desktop/AIoT_software/LiteOS_Lab_overseas/LiteOS_Lab/iot_link/network/lwm2m/wakaama_lwm2m/core\internals.h ****  * 1. Redistributions of source code must retain the above copyright notice, this list of
   7:C:/Users/dtjld/Desktop/AIoT_software/LiteOS_Lab_overseas/LiteOS_Lab/iot_link/network/lwm2m/wakaama_lwm2m/core\internals.h ****  * conditions and the following disclaimer.
   8:C:/Users/dtjld/Desktop/AIoT_software/LiteOS_Lab_overseas/LiteOS_Lab/iot_link/network/lwm2m/wakaama_lwm2m/core\internals.h ****  * 2. Redistributions in binary form must reproduce the above copyright notice, this list
   9:C:/Users/dtjld/Desktop/AIoT_software/LiteOS_Lab_overseas/LiteOS_Lab/iot_link/network/lwm2m/wakaama_lwm2m/core\internals.h ****  * of conditions and the following disclaimer in the documentation and/or other materials
  10:C:/Users/dtjld/Desktop/AIoT_software/LiteOS_Lab_overseas/LiteOS_Lab/iot_link/network/lwm2m/wakaama_lwm2m/core\internals.h ****  * provided with the distribution.
  11:C:/Users/dtjld/Desktop/AIoT_software/LiteOS_Lab_overseas/LiteOS_Lab/iot_link/network/lwm2m/wakaama_lwm2m/core\internals.h ****  * 3. Neither the name of the copyright holder nor the names of its contributors may be used
  12:C:/Users/dtjld/Desktop/AIoT_software/LiteOS_Lab_overseas/LiteOS_Lab/iot_link/network/lwm2m/wakaama_lwm2m/core\internals.h ****  * to endorse or promote products derived from this software without specific prior written
  13:C:/Users/dtjld/Desktop/AIoT_software/LiteOS_Lab_overseas/LiteOS_Lab/iot_link/network/lwm2m/wakaama_lwm2m/core\internals.h ****  * permission.
  14:C:/Users/dtjld/Desktop/AIoT_software/LiteOS_Lab_overseas/LiteOS_Lab/iot_link/network/lwm2m/wakaama_lwm2m/core\internals.h ****  * THIS SOFTWARE IS PROVIDED BY THE COPYRIGHT HOLDERS AND CONTRIBUTORS
  15:C:/Users/dtjld/Desktop/AIoT_software/LiteOS_Lab_overseas/LiteOS_Lab/iot_link/network/lwm2m/wakaama_lwm2m/core\internals.h ****  * "AS IS" AND ANY EXPRESS OR IMPLIED WARRANTIES, INCLUDING, BUT NOT LIMITED TO,
  16:C:/Users/dtjld/Desktop/AIoT_software/LiteOS_Lab_overseas/LiteOS_Lab/iot_link/network/lwm2m/wakaama_lwm2m/core\internals.h ****  * THE IMPLIED WARRANTIES OF MERCHANTABILITY AND FITNESS FOR A PARTICULAR
  17:C:/Users/dtjld/Desktop/AIoT_software/LiteOS_Lab_overseas/LiteOS_Lab/iot_link/network/lwm2m/wakaama_lwm2m/core\internals.h ****  * PURPOSE ARE DISCLAIMED. IN NO EVENT SHALL THE COPYRIGHT HOLDER OR
  18:C:/Users/dtjld/Desktop/AIoT_software/LiteOS_Lab_overseas/LiteOS_Lab/iot_link/network/lwm2m/wakaama_lwm2m/core\internals.h ****  * CONTRIBUTORS BE LIABLE FOR ANY DIRECT, INDIRECT, INCIDENTAL, SPECIAL,
  19:C:/Users/dtjld/Desktop/AIoT_software/LiteOS_Lab_overseas/LiteOS_Lab/iot_link/network/lwm2m/wakaama_lwm2m/core\internals.h ****  * EXEMPLARY, OR CONSEQUENTIAL DAMAGES (INCLUDING, BUT NOT LIMITED TO,
  20:C:/Users/dtjld/Desktop/AIoT_software/LiteOS_Lab_overseas/LiteOS_Lab/iot_link/network/lwm2m/wakaama_lwm2m/core\internals.h ****  * PROCUREMENT OF SUBSTITUTE GOODS OR SERVICES; LOSS OF USE, DATA, OR PROFITS;
  21:C:/Users/dtjld/Desktop/AIoT_software/LiteOS_Lab_overseas/LiteOS_Lab/iot_link/network/lwm2m/wakaama_lwm2m/core\internals.h ****  * OR BUSINESS INTERRUPTION) HOWEVER CAUSED AND ON ANY THEORY OF LIABILITY,
  22:C:/Users/dtjld/Desktop/AIoT_software/LiteOS_Lab_overseas/LiteOS_Lab/iot_link/network/lwm2m/wakaama_lwm2m/core\internals.h ****  * WHETHER IN CONTRACT, STRICT LIABILITY, OR TORT (INCLUDING NEGLIGENCE OR
  23:C:/Users/dtjld/Desktop/AIoT_software/LiteOS_Lab_overseas/LiteOS_Lab/iot_link/network/lwm2m/wakaama_lwm2m/core\internals.h ****  * OTHERWISE) ARISING IN ANY WAY OUT OF THE USE OF THIS SOFTWARE, EVEN IF
  24:C:/Users/dtjld/Desktop/AIoT_software/LiteOS_Lab_overseas/LiteOS_Lab/iot_link/network/lwm2m/wakaama_lwm2m/core\internals.h ****  * ADVISED OF THE POSSIBILITY OF SUCH DAMAGE.
  25:C:/Users/dtjld/Desktop/AIoT_software/LiteOS_Lab_overseas/LiteOS_Lab/iot_link/network/lwm2m/wakaama_lwm2m/core\internals.h ****  *---------------------------------------------------------------------------*/
  26:C:/Users/dtjld/Desktop/AIoT_software/LiteOS_Lab_overseas/LiteOS_Lab/iot_link/network/lwm2m/wakaama_lwm2m/core\internals.h **** /*----------------------------------------------------------------------------
  27:C:/Users/dtjld/Desktop/AIoT_software/LiteOS_Lab_overseas/LiteOS_Lab/iot_link/network/lwm2m/wakaama_lwm2m/core\internals.h ****  * Notice of Export Control Law
  28:C:/Users/dtjld/Desktop/AIoT_software/LiteOS_Lab_overseas/LiteOS_Lab/iot_link/network/lwm2m/wakaama_lwm2m/core\internals.h ****  * ===============================================
  29:C:/Users/dtjld/Desktop/AIoT_software/LiteOS_Lab_overseas/LiteOS_Lab/iot_link/network/lwm2m/wakaama_lwm2m/core\internals.h ****  * Huawei LiteOS may be subject to applicable export control laws and regulations, which might
  30:C:/Users/dtjld/Desktop/AIoT_software/LiteOS_Lab_overseas/LiteOS_Lab/iot_link/network/lwm2m/wakaama_lwm2m/core\internals.h ****  * include those applicable to Huawei LiteOS of U.S. and the country in which you are located.
  31:C:/Users/dtjld/Desktop/AIoT_software/LiteOS_Lab_overseas/LiteOS_Lab/iot_link/network/lwm2m/wakaama_lwm2m/core\internals.h ****  * Import, export and usage of Huawei LiteOS in any manner by you shall be in compliance with such
  32:C:/Users/dtjld/Desktop/AIoT_software/LiteOS_Lab_overseas/LiteOS_Lab/iot_link/network/lwm2m/wakaama_lwm2m/core\internals.h ****  * applicable export control laws and regulations.
ARM GAS  C:\Users\dtjld\AppData\Local\Temp\ccGRo6oh.s 			page 2


  33:C:/Users/dtjld/Desktop/AIoT_software/LiteOS_Lab_overseas/LiteOS_Lab/iot_link/network/lwm2m/wakaama_lwm2m/core\internals.h ****  *---------------------------------------------------------------------------*/
  34:C:/Users/dtjld/Desktop/AIoT_software/LiteOS_Lab_overseas/LiteOS_Lab/iot_link/network/lwm2m/wakaama_lwm2m/core\internals.h **** 
  35:C:/Users/dtjld/Desktop/AIoT_software/LiteOS_Lab_overseas/LiteOS_Lab/iot_link/network/lwm2m/wakaama_lwm2m/core\internals.h **** /*******************************************************************************
  36:C:/Users/dtjld/Desktop/AIoT_software/LiteOS_Lab_overseas/LiteOS_Lab/iot_link/network/lwm2m/wakaama_lwm2m/core\internals.h ****  *
  37:C:/Users/dtjld/Desktop/AIoT_software/LiteOS_Lab_overseas/LiteOS_Lab/iot_link/network/lwm2m/wakaama_lwm2m/core\internals.h ****  * Copyright (c) 2013, 2014 Intel Corporation and others.
  38:C:/Users/dtjld/Desktop/AIoT_software/LiteOS_Lab_overseas/LiteOS_Lab/iot_link/network/lwm2m/wakaama_lwm2m/core\internals.h ****  * All rights reserved. This program and the accompanying materials
  39:C:/Users/dtjld/Desktop/AIoT_software/LiteOS_Lab_overseas/LiteOS_Lab/iot_link/network/lwm2m/wakaama_lwm2m/core\internals.h ****  * are made available under the terms of the Eclipse Public License v1.0
  40:C:/Users/dtjld/Desktop/AIoT_software/LiteOS_Lab_overseas/LiteOS_Lab/iot_link/network/lwm2m/wakaama_lwm2m/core\internals.h ****  * and Eclipse Distribution License v1.0 which accompany this distribution.
  41:C:/Users/dtjld/Desktop/AIoT_software/LiteOS_Lab_overseas/LiteOS_Lab/iot_link/network/lwm2m/wakaama_lwm2m/core\internals.h ****  *
  42:C:/Users/dtjld/Desktop/AIoT_software/LiteOS_Lab_overseas/LiteOS_Lab/iot_link/network/lwm2m/wakaama_lwm2m/core\internals.h ****  * The Eclipse Public License is available at
  43:C:/Users/dtjld/Desktop/AIoT_software/LiteOS_Lab_overseas/LiteOS_Lab/iot_link/network/lwm2m/wakaama_lwm2m/core\internals.h ****  *    http://www.eclipse.org/legal/epl-v10.html
  44:C:/Users/dtjld/Desktop/AIoT_software/LiteOS_Lab_overseas/LiteOS_Lab/iot_link/network/lwm2m/wakaama_lwm2m/core\internals.h ****  * The Eclipse Distribution License is available at
  45:C:/Users/dtjld/Desktop/AIoT_software/LiteOS_Lab_overseas/LiteOS_Lab/iot_link/network/lwm2m/wakaama_lwm2m/core\internals.h ****  *    http://www.eclipse.org/org/documents/edl-v10.php.
  46:C:/Users/dtjld/Desktop/AIoT_software/LiteOS_Lab_overseas/LiteOS_Lab/iot_link/network/lwm2m/wakaama_lwm2m/core\internals.h ****  *
  47:C:/Users/dtjld/Desktop/AIoT_software/LiteOS_Lab_overseas/LiteOS_Lab/iot_link/network/lwm2m/wakaama_lwm2m/core\internals.h ****  * Contributors:
  48:C:/Users/dtjld/Desktop/AIoT_software/LiteOS_Lab_overseas/LiteOS_Lab/iot_link/network/lwm2m/wakaama_lwm2m/core\internals.h ****  *    David Navarro, Intel Corporation - initial API and implementation
  49:C:/Users/dtjld/Desktop/AIoT_software/LiteOS_Lab_overseas/LiteOS_Lab/iot_link/network/lwm2m/wakaama_lwm2m/core\internals.h ****  *    Fabien Fleutot - Please refer to git log
  50:C:/Users/dtjld/Desktop/AIoT_software/LiteOS_Lab_overseas/LiteOS_Lab/iot_link/network/lwm2m/wakaama_lwm2m/core\internals.h ****  *    Toby Jaffey - Please refer to git log
  51:C:/Users/dtjld/Desktop/AIoT_software/LiteOS_Lab_overseas/LiteOS_Lab/iot_link/network/lwm2m/wakaama_lwm2m/core\internals.h ****  *    Bosch Software Innovations GmbH - Please refer to git log
  52:C:/Users/dtjld/Desktop/AIoT_software/LiteOS_Lab_overseas/LiteOS_Lab/iot_link/network/lwm2m/wakaama_lwm2m/core\internals.h ****  *    Pascal Rieux - Please refer to git log
  53:C:/Users/dtjld/Desktop/AIoT_software/LiteOS_Lab_overseas/LiteOS_Lab/iot_link/network/lwm2m/wakaama_lwm2m/core\internals.h ****  *    Scott Bertin - Please refer to git log
  54:C:/Users/dtjld/Desktop/AIoT_software/LiteOS_Lab_overseas/LiteOS_Lab/iot_link/network/lwm2m/wakaama_lwm2m/core\internals.h ****  *
  55:C:/Users/dtjld/Desktop/AIoT_software/LiteOS_Lab_overseas/LiteOS_Lab/iot_link/network/lwm2m/wakaama_lwm2m/core\internals.h ****  *******************************************************************************/
  56:C:/Users/dtjld/Desktop/AIoT_software/LiteOS_Lab_overseas/LiteOS_Lab/iot_link/network/lwm2m/wakaama_lwm2m/core\internals.h **** /*
  57:C:/Users/dtjld/Desktop/AIoT_software/LiteOS_Lab_overseas/LiteOS_Lab/iot_link/network/lwm2m/wakaama_lwm2m/core\internals.h ****  Copyright (c) 2013, 2014 Intel Corporation
  58:C:/Users/dtjld/Desktop/AIoT_software/LiteOS_Lab_overseas/LiteOS_Lab/iot_link/network/lwm2m/wakaama_lwm2m/core\internals.h **** 
  59:C:/Users/dtjld/Desktop/AIoT_software/LiteOS_Lab_overseas/LiteOS_Lab/iot_link/network/lwm2m/wakaama_lwm2m/core\internals.h ****  Redistribution and use in source and binary forms, with or without modification,
  60:C:/Users/dtjld/Desktop/AIoT_software/LiteOS_Lab_overseas/LiteOS_Lab/iot_link/network/lwm2m/wakaama_lwm2m/core\internals.h ****  are permitted provided that the following conditions are met:
  61:C:/Users/dtjld/Desktop/AIoT_software/LiteOS_Lab_overseas/LiteOS_Lab/iot_link/network/lwm2m/wakaama_lwm2m/core\internals.h **** 
  62:C:/Users/dtjld/Desktop/AIoT_software/LiteOS_Lab_overseas/LiteOS_Lab/iot_link/network/lwm2m/wakaama_lwm2m/core\internals.h ****      * Redistributions of source code must retain the above copyright notice,
  63:C:/Users/dtjld/Desktop/AIoT_software/LiteOS_Lab_overseas/LiteOS_Lab/iot_link/network/lwm2m/wakaama_lwm2m/core\internals.h ****        this list of conditions and the following disclaimer.
  64:C:/Users/dtjld/Desktop/AIoT_software/LiteOS_Lab_overseas/LiteOS_Lab/iot_link/network/lwm2m/wakaama_lwm2m/core\internals.h ****      * Redistributions in binary form must reproduce the above copyright notice,
  65:C:/Users/dtjld/Desktop/AIoT_software/LiteOS_Lab_overseas/LiteOS_Lab/iot_link/network/lwm2m/wakaama_lwm2m/core\internals.h ****        this list of conditions and the following disclaimer in the documentation
  66:C:/Users/dtjld/Desktop/AIoT_software/LiteOS_Lab_overseas/LiteOS_Lab/iot_link/network/lwm2m/wakaama_lwm2m/core\internals.h ****        and/or other materials provided with the distribution.
  67:C:/Users/dtjld/Desktop/AIoT_software/LiteOS_Lab_overseas/LiteOS_Lab/iot_link/network/lwm2m/wakaama_lwm2m/core\internals.h ****      * Neither the name of Intel Corporation nor the names of its contributors
  68:C:/Users/dtjld/Desktop/AIoT_software/LiteOS_Lab_overseas/LiteOS_Lab/iot_link/network/lwm2m/wakaama_lwm2m/core\internals.h ****        may be used to endorse or promote products derived from this software
  69:C:/Users/dtjld/Desktop/AIoT_software/LiteOS_Lab_overseas/LiteOS_Lab/iot_link/network/lwm2m/wakaama_lwm2m/core\internals.h ****        without specific prior written permission.
  70:C:/Users/dtjld/Desktop/AIoT_software/LiteOS_Lab_overseas/LiteOS_Lab/iot_link/network/lwm2m/wakaama_lwm2m/core\internals.h **** 
  71:C:/Users/dtjld/Desktop/AIoT_software/LiteOS_Lab_overseas/LiteOS_Lab/iot_link/network/lwm2m/wakaama_lwm2m/core\internals.h ****  THIS SOFTWARE IS PROVIDED BY THE COPYRIGHT HOLDERS AND CONTRIBUTORS "AS IS" AND
  72:C:/Users/dtjld/Desktop/AIoT_software/LiteOS_Lab_overseas/LiteOS_Lab/iot_link/network/lwm2m/wakaama_lwm2m/core\internals.h ****  ANY EXPRESS OR IMPLIED WARRANTIES, INCLUDING, BUT NOT LIMITED TO, THE IMPLIED
  73:C:/Users/dtjld/Desktop/AIoT_software/LiteOS_Lab_overseas/LiteOS_Lab/iot_link/network/lwm2m/wakaama_lwm2m/core\internals.h ****  WARRANTIES OF MERCHANTABILITY AND FITNESS FOR A PARTICULAR PURPOSE ARE DISCLAIMED.
  74:C:/Users/dtjld/Desktop/AIoT_software/LiteOS_Lab_overseas/LiteOS_Lab/iot_link/network/lwm2m/wakaama_lwm2m/core\internals.h ****  IN NO EVENT SHALL THE COPYRIGHT OWNER OR CONTRIBUTORS BE LIABLE FOR ANY DIRECT,
  75:C:/Users/dtjld/Desktop/AIoT_software/LiteOS_Lab_overseas/LiteOS_Lab/iot_link/network/lwm2m/wakaama_lwm2m/core\internals.h ****  INDIRECT, INCIDENTAL, SPECIAL, EXEMPLARY, OR CONSEQUENTIAL DAMAGES (INCLUDING,
  76:C:/Users/dtjld/Desktop/AIoT_software/LiteOS_Lab_overseas/LiteOS_Lab/iot_link/network/lwm2m/wakaama_lwm2m/core\internals.h ****  BUT NOT LIMITED TO, PROCUREMENT OF SUBSTITUTE GOODS OR SERVICES; LOSS OF USE,
  77:C:/Users/dtjld/Desktop/AIoT_software/LiteOS_Lab_overseas/LiteOS_Lab/iot_link/network/lwm2m/wakaama_lwm2m/core\internals.h ****  DATA, OR PROFITS; OR BUSINESS INTERRUPTION) HOWEVER CAUSED AND ON ANY THEORY OF
  78:C:/Users/dtjld/Desktop/AIoT_software/LiteOS_Lab_overseas/LiteOS_Lab/iot_link/network/lwm2m/wakaama_lwm2m/core\internals.h ****  LIABILITY, WHETHER IN CONTRACT, STRICT LIABILITY, OR TORT (INCLUDING NEGLIGENCE OR
  79:C:/Users/dtjld/Desktop/AIoT_software/LiteOS_Lab_overseas/LiteOS_Lab/iot_link/network/lwm2m/wakaama_lwm2m/core\internals.h ****  OTHERWISE) ARISING IN ANY WAY OUT OF THE USE OF THIS SOFTWARE, EVEN IF ADVISED OF
  80:C:/Users/dtjld/Desktop/AIoT_software/LiteOS_Lab_overseas/LiteOS_Lab/iot_link/network/lwm2m/wakaama_lwm2m/core\internals.h ****  THE POSSIBILITY OF SUCH DAMAGE.
  81:C:/Users/dtjld/Desktop/AIoT_software/LiteOS_Lab_overseas/LiteOS_Lab/iot_link/network/lwm2m/wakaama_lwm2m/core\internals.h **** 
  82:C:/Users/dtjld/Desktop/AIoT_software/LiteOS_Lab_overseas/LiteOS_Lab/iot_link/network/lwm2m/wakaama_lwm2m/core\internals.h ****  David Navarro <david.navarro@intel.com>
  83:C:/Users/dtjld/Desktop/AIoT_software/LiteOS_Lab_overseas/LiteOS_Lab/iot_link/network/lwm2m/wakaama_lwm2m/core\internals.h **** 
  84:C:/Users/dtjld/Desktop/AIoT_software/LiteOS_Lab_overseas/LiteOS_Lab/iot_link/network/lwm2m/wakaama_lwm2m/core\internals.h **** */
  85:C:/Users/dtjld/Desktop/AIoT_software/LiteOS_Lab_overseas/LiteOS_Lab/iot_link/network/lwm2m/wakaama_lwm2m/core\internals.h **** 
  86:C:/Users/dtjld/Desktop/AIoT_software/LiteOS_Lab_overseas/LiteOS_Lab/iot_link/network/lwm2m/wakaama_lwm2m/core\internals.h **** #ifndef _LWM2M_INTERNALS_H_
  87:C:/Users/dtjld/Desktop/AIoT_software/LiteOS_Lab_overseas/LiteOS_Lab/iot_link/network/lwm2m/wakaama_lwm2m/core\internals.h **** #define _LWM2M_INTERNALS_H_
  88:C:/Users/dtjld/Desktop/AIoT_software/LiteOS_Lab_overseas/LiteOS_Lab/iot_link/network/lwm2m/wakaama_lwm2m/core\internals.h **** 
  89:C:/Users/dtjld/Desktop/AIoT_software/LiteOS_Lab_overseas/LiteOS_Lab/iot_link/network/lwm2m/wakaama_lwm2m/core\internals.h **** #include "liblwm2m.h"
ARM GAS  C:\Users\dtjld\AppData\Local\Temp\ccGRo6oh.s 			page 3


  90:C:/Users/dtjld/Desktop/AIoT_software/LiteOS_Lab_overseas/LiteOS_Lab/iot_link/network/lwm2m/wakaama_lwm2m/core\internals.h **** 
  91:C:/Users/dtjld/Desktop/AIoT_software/LiteOS_Lab_overseas/LiteOS_Lab/iot_link/network/lwm2m/wakaama_lwm2m/core\internals.h **** #include <stdlib.h>
  92:C:/Users/dtjld/Desktop/AIoT_software/LiteOS_Lab_overseas/LiteOS_Lab/iot_link/network/lwm2m/wakaama_lwm2m/core\internals.h **** #include <string.h>
  93:C:/Users/dtjld/Desktop/AIoT_software/LiteOS_Lab_overseas/LiteOS_Lab/iot_link/network/lwm2m/wakaama_lwm2m/core\internals.h **** #include <stdio.h>
  94:C:/Users/dtjld/Desktop/AIoT_software/LiteOS_Lab_overseas/LiteOS_Lab/iot_link/network/lwm2m/wakaama_lwm2m/core\internals.h **** #include <ctype.h>
  95:C:/Users/dtjld/Desktop/AIoT_software/LiteOS_Lab_overseas/LiteOS_Lab/iot_link/network/lwm2m/wakaama_lwm2m/core\internals.h **** #include <stdint.h>
  96:C:/Users/dtjld/Desktop/AIoT_software/LiteOS_Lab_overseas/LiteOS_Lab/iot_link/network/lwm2m/wakaama_lwm2m/core\internals.h **** #include <stddef.h>
  97:C:/Users/dtjld/Desktop/AIoT_software/LiteOS_Lab_overseas/LiteOS_Lab/iot_link/network/lwm2m/wakaama_lwm2m/core\internals.h **** #include <stdbool.h>
  98:C:/Users/dtjld/Desktop/AIoT_software/LiteOS_Lab_overseas/LiteOS_Lab/iot_link/network/lwm2m/wakaama_lwm2m/core\internals.h **** 
  99:C:/Users/dtjld/Desktop/AIoT_software/LiteOS_Lab_overseas/LiteOS_Lab/iot_link/network/lwm2m/wakaama_lwm2m/core\internals.h **** #include "er-coap-13/er-coap-13.h"
 100:C:/Users/dtjld/Desktop/AIoT_software/LiteOS_Lab_overseas/LiteOS_Lab/iot_link/network/lwm2m/wakaama_lwm2m/core\internals.h **** #include "connection.h"
 101:C:/Users/dtjld/Desktop/AIoT_software/LiteOS_Lab_overseas/LiteOS_Lab/iot_link/network/lwm2m/wakaama_lwm2m/core\internals.h **** 
 102:C:/Users/dtjld/Desktop/AIoT_software/LiteOS_Lab_overseas/LiteOS_Lab/iot_link/network/lwm2m/wakaama_lwm2m/core\internals.h **** 
 103:C:/Users/dtjld/Desktop/AIoT_software/LiteOS_Lab_overseas/LiteOS_Lab/iot_link/network/lwm2m/wakaama_lwm2m/core\internals.h **** #ifdef LWM2M_WITH_LOGS
 104:C:/Users/dtjld/Desktop/AIoT_software/LiteOS_Lab_overseas/LiteOS_Lab/iot_link/network/lwm2m/wakaama_lwm2m/core\internals.h **** #include <inttypes.h>
 105:C:/Users/dtjld/Desktop/AIoT_software/LiteOS_Lab_overseas/LiteOS_Lab/iot_link/network/lwm2m/wakaama_lwm2m/core\internals.h **** #define LOG(STR) (void)lwm2m_printf("[%d][%s:%d] " STR "\r\n", (uint32_t)lwm2m_gettime(), __func__ 
 106:C:/Users/dtjld/Desktop/AIoT_software/LiteOS_Lab_overseas/LiteOS_Lab/iot_link/network/lwm2m/wakaama_lwm2m/core\internals.h **** #define LOG_ARG(FMT, ...) (void)lwm2m_printf("[%d][%s:%d] " FMT "\r\n", (uint32_t)lwm2m_gettime(), 
 107:C:/Users/dtjld/Desktop/AIoT_software/LiteOS_Lab_overseas/LiteOS_Lab/iot_link/network/lwm2m/wakaama_lwm2m/core\internals.h **** #define LOG_URI(URI)                                                                \
 108:C:/Users/dtjld/Desktop/AIoT_software/LiteOS_Lab_overseas/LiteOS_Lab/iot_link/network/lwm2m/wakaama_lwm2m/core\internals.h **** {                                                                                   \
 109:C:/Users/dtjld/Desktop/AIoT_software/LiteOS_Lab_overseas/LiteOS_Lab/iot_link/network/lwm2m/wakaama_lwm2m/core\internals.h ****     if ((URI) == NULL) (void)lwm2m_printf("[%s:%d] NULL\r\n", __func__ , __LINE__);     \
 110:C:/Users/dtjld/Desktop/AIoT_software/LiteOS_Lab_overseas/LiteOS_Lab/iot_link/network/lwm2m/wakaama_lwm2m/core\internals.h ****     else                                                                            \
 111:C:/Users/dtjld/Desktop/AIoT_software/LiteOS_Lab_overseas/LiteOS_Lab/iot_link/network/lwm2m/wakaama_lwm2m/core\internals.h ****     {                                                                               \
 112:C:/Users/dtjld/Desktop/AIoT_software/LiteOS_Lab_overseas/LiteOS_Lab/iot_link/network/lwm2m/wakaama_lwm2m/core\internals.h ****         (void)lwm2m_printf("[%s:%d] /%d", __func__ , __LINE__ , (URI)->objectId);       \
 113:C:/Users/dtjld/Desktop/AIoT_software/LiteOS_Lab_overseas/LiteOS_Lab/iot_link/network/lwm2m/wakaama_lwm2m/core\internals.h ****         if (LWM2M_URI_IS_SET_INSTANCE(URI)) (void)lwm2m_printf("/%d", (URI)->instanceId); \
 114:C:/Users/dtjld/Desktop/AIoT_software/LiteOS_Lab_overseas/LiteOS_Lab/iot_link/network/lwm2m/wakaama_lwm2m/core\internals.h ****         if (LWM2M_URI_IS_SET_RESOURCE(URI)) (void)lwm2m_printf("/%d", (URI)->resourceId); \
 115:C:/Users/dtjld/Desktop/AIoT_software/LiteOS_Lab_overseas/LiteOS_Lab/iot_link/network/lwm2m/wakaama_lwm2m/core\internals.h ****         (void)lwm2m_printf("\r\n");                                                       \
 116:C:/Users/dtjld/Desktop/AIoT_software/LiteOS_Lab_overseas/LiteOS_Lab/iot_link/network/lwm2m/wakaama_lwm2m/core\internals.h ****     }                                                                               \
 117:C:/Users/dtjld/Desktop/AIoT_software/LiteOS_Lab_overseas/LiteOS_Lab/iot_link/network/lwm2m/wakaama_lwm2m/core\internals.h **** }
 118:C:/Users/dtjld/Desktop/AIoT_software/LiteOS_Lab_overseas/LiteOS_Lab/iot_link/network/lwm2m/wakaama_lwm2m/core\internals.h **** #define UNUSEX(x)
 119:C:/Users/dtjld/Desktop/AIoT_software/LiteOS_Lab_overseas/LiteOS_Lab/iot_link/network/lwm2m/wakaama_lwm2m/core\internals.h **** #define STR_STATUS(S)                                           \
 120:C:/Users/dtjld/Desktop/AIoT_software/LiteOS_Lab_overseas/LiteOS_Lab/iot_link/network/lwm2m/wakaama_lwm2m/core\internals.h **** ((S) == STATE_DEREGISTERED ? "STATE_DEREGISTERED" :             \
 121:C:/Users/dtjld/Desktop/AIoT_software/LiteOS_Lab_overseas/LiteOS_Lab/iot_link/network/lwm2m/wakaama_lwm2m/core\internals.h **** ((S) == STATE_REG_PENDING ? "STATE_REG_PENDING" :               \
 122:C:/Users/dtjld/Desktop/AIoT_software/LiteOS_Lab_overseas/LiteOS_Lab/iot_link/network/lwm2m/wakaama_lwm2m/core\internals.h **** ((S) == STATE_REGISTERED ? "STATE_REGISTERED" :                 \
 123:C:/Users/dtjld/Desktop/AIoT_software/LiteOS_Lab_overseas/LiteOS_Lab/iot_link/network/lwm2m/wakaama_lwm2m/core\internals.h **** ((S) == STATE_REG_FAILED ? "STATE_REG_FAILED" :                 \
 124:C:/Users/dtjld/Desktop/AIoT_software/LiteOS_Lab_overseas/LiteOS_Lab/iot_link/network/lwm2m/wakaama_lwm2m/core\internals.h **** ((S) == STATE_REG_UPDATE_PENDING ? "STATE_REG_UPDATE_PENDING" : \
 125:C:/Users/dtjld/Desktop/AIoT_software/LiteOS_Lab_overseas/LiteOS_Lab/iot_link/network/lwm2m/wakaama_lwm2m/core\internals.h **** ((S) == STATE_REG_UPDATE_NEEDED ? "STATE_REG_UPDATE_NEEDED" :   \
 126:C:/Users/dtjld/Desktop/AIoT_software/LiteOS_Lab_overseas/LiteOS_Lab/iot_link/network/lwm2m/wakaama_lwm2m/core\internals.h **** ((S) == STATE_REG_FULL_UPDATE_NEEDED ? "STATE_REG_FULL_UPDATE_NEEDED" :   \
 127:C:/Users/dtjld/Desktop/AIoT_software/LiteOS_Lab_overseas/LiteOS_Lab/iot_link/network/lwm2m/wakaama_lwm2m/core\internals.h **** ((S) == STATE_DEREG_PENDING ? "STATE_DEREG_PENDING" :           \
 128:C:/Users/dtjld/Desktop/AIoT_software/LiteOS_Lab_overseas/LiteOS_Lab/iot_link/network/lwm2m/wakaama_lwm2m/core\internals.h **** ((S) == STATE_BS_HOLD_OFF ? "STATE_BS_HOLD_OFF" :               \
 129:C:/Users/dtjld/Desktop/AIoT_software/LiteOS_Lab_overseas/LiteOS_Lab/iot_link/network/lwm2m/wakaama_lwm2m/core\internals.h **** ((S) == STATE_BS_INITIATED ? "STATE_BS_INITIATED" :             \
 130:C:/Users/dtjld/Desktop/AIoT_software/LiteOS_Lab_overseas/LiteOS_Lab/iot_link/network/lwm2m/wakaama_lwm2m/core\internals.h **** ((S) == STATE_BS_PENDING ? "STATE_BS_PENDING" :                 \
 131:C:/Users/dtjld/Desktop/AIoT_software/LiteOS_Lab_overseas/LiteOS_Lab/iot_link/network/lwm2m/wakaama_lwm2m/core\internals.h **** ((S) == STATE_BS_FINISHED ? "STATE_BS_FINISHED" :               \
 132:C:/Users/dtjld/Desktop/AIoT_software/LiteOS_Lab_overseas/LiteOS_Lab/iot_link/network/lwm2m/wakaama_lwm2m/core\internals.h **** ((S) == STATE_BS_FINISHING ? "STATE_BS_FINISHING" :             \
 133:C:/Users/dtjld/Desktop/AIoT_software/LiteOS_Lab_overseas/LiteOS_Lab/iot_link/network/lwm2m/wakaama_lwm2m/core\internals.h **** ((S) == STATE_BS_FAILING ? "STATE_BS_FAILING" :                 \
 134:C:/Users/dtjld/Desktop/AIoT_software/LiteOS_Lab_overseas/LiteOS_Lab/iot_link/network/lwm2m/wakaama_lwm2m/core\internals.h **** ((S) == STATE_BS_FAILED ? "STATE_BS_FAILED" :                   \
 135:C:/Users/dtjld/Desktop/AIoT_software/LiteOS_Lab_overseas/LiteOS_Lab/iot_link/network/lwm2m/wakaama_lwm2m/core\internals.h **** "Unknown")))))))))))))))
 136:C:/Users/dtjld/Desktop/AIoT_software/LiteOS_Lab_overseas/LiteOS_Lab/iot_link/network/lwm2m/wakaama_lwm2m/core\internals.h **** #define STR_MEDIA_TYPE(M)                                \
 137:C:/Users/dtjld/Desktop/AIoT_software/LiteOS_Lab_overseas/LiteOS_Lab/iot_link/network/lwm2m/wakaama_lwm2m/core\internals.h **** ((M) == LWM2M_CONTENT_TEXT ? "LWM2M_CONTENT_TEXT" :      \
 138:C:/Users/dtjld/Desktop/AIoT_software/LiteOS_Lab_overseas/LiteOS_Lab/iot_link/network/lwm2m/wakaama_lwm2m/core\internals.h **** ((M) == LWM2M_CONTENT_LINK ? "LWM2M_CONTENT_LINK" :      \
 139:C:/Users/dtjld/Desktop/AIoT_software/LiteOS_Lab_overseas/LiteOS_Lab/iot_link/network/lwm2m/wakaama_lwm2m/core\internals.h **** ((M) == LWM2M_CONTENT_OPAQUE ? "LWM2M_CONTENT_OPAQUE" :  \
 140:C:/Users/dtjld/Desktop/AIoT_software/LiteOS_Lab_overseas/LiteOS_Lab/iot_link/network/lwm2m/wakaama_lwm2m/core\internals.h **** ((M) == LWM2M_CONTENT_TLV ? "LWM2M_CONTENT_TLV" :        \
 141:C:/Users/dtjld/Desktop/AIoT_software/LiteOS_Lab_overseas/LiteOS_Lab/iot_link/network/lwm2m/wakaama_lwm2m/core\internals.h **** ((M) == LWM2M_CONTENT_JSON ? "LWM2M_CONTENT_JSON" :      \
 142:C:/Users/dtjld/Desktop/AIoT_software/LiteOS_Lab_overseas/LiteOS_Lab/iot_link/network/lwm2m/wakaama_lwm2m/core\internals.h **** "Unknown")))))
 143:C:/Users/dtjld/Desktop/AIoT_software/LiteOS_Lab_overseas/LiteOS_Lab/iot_link/network/lwm2m/wakaama_lwm2m/core\internals.h **** #define STR_STATE(S)                                \
 144:C:/Users/dtjld/Desktop/AIoT_software/LiteOS_Lab_overseas/LiteOS_Lab/iot_link/network/lwm2m/wakaama_lwm2m/core\internals.h **** ((S) == STATE_INITIAL ? "STATE_INITIAL" :      \
 145:C:/Users/dtjld/Desktop/AIoT_software/LiteOS_Lab_overseas/LiteOS_Lab/iot_link/network/lwm2m/wakaama_lwm2m/core\internals.h **** ((S) == STATE_BOOTSTRAP_REQUIRED ? "STATE_BOOTSTRAP_REQUIRED" :      \
 146:C:/Users/dtjld/Desktop/AIoT_software/LiteOS_Lab_overseas/LiteOS_Lab/iot_link/network/lwm2m/wakaama_lwm2m/core\internals.h **** ((S) == STATE_BOOTSTRAPPING ? "STATE_BOOTSTRAPPING" :  \
ARM GAS  C:\Users\dtjld\AppData\Local\Temp\ccGRo6oh.s 			page 4


 147:C:/Users/dtjld/Desktop/AIoT_software/LiteOS_Lab_overseas/LiteOS_Lab/iot_link/network/lwm2m/wakaama_lwm2m/core\internals.h **** ((S) == STATE_REGISTER_REQUIRED ? "STATE_REGISTER_REQUIRED" :        \
 148:C:/Users/dtjld/Desktop/AIoT_software/LiteOS_Lab_overseas/LiteOS_Lab/iot_link/network/lwm2m/wakaama_lwm2m/core\internals.h **** ((S) == STATE_REGISTERING ? "STATE_REGISTERING" :      \
 149:C:/Users/dtjld/Desktop/AIoT_software/LiteOS_Lab_overseas/LiteOS_Lab/iot_link/network/lwm2m/wakaama_lwm2m/core\internals.h **** ((S) == STATE_READY ? "STATE_READY" :      \
 150:C:/Users/dtjld/Desktop/AIoT_software/LiteOS_Lab_overseas/LiteOS_Lab/iot_link/network/lwm2m/wakaama_lwm2m/core\internals.h **** "Unknown"))))))
 151:C:/Users/dtjld/Desktop/AIoT_software/LiteOS_Lab_overseas/LiteOS_Lab/iot_link/network/lwm2m/wakaama_lwm2m/core\internals.h **** #else
 152:C:/Users/dtjld/Desktop/AIoT_software/LiteOS_Lab_overseas/LiteOS_Lab/iot_link/network/lwm2m/wakaama_lwm2m/core\internals.h **** #define UNUSEX(x) (x)=(x)
 153:C:/Users/dtjld/Desktop/AIoT_software/LiteOS_Lab_overseas/LiteOS_Lab/iot_link/network/lwm2m/wakaama_lwm2m/core\internals.h **** #define LOG_ARG(FMT, ...)
 154:C:/Users/dtjld/Desktop/AIoT_software/LiteOS_Lab_overseas/LiteOS_Lab/iot_link/network/lwm2m/wakaama_lwm2m/core\internals.h **** #define LOG(STR)
 155:C:/Users/dtjld/Desktop/AIoT_software/LiteOS_Lab_overseas/LiteOS_Lab/iot_link/network/lwm2m/wakaama_lwm2m/core\internals.h **** #define LOG_URI(URI)
 156:C:/Users/dtjld/Desktop/AIoT_software/LiteOS_Lab_overseas/LiteOS_Lab/iot_link/network/lwm2m/wakaama_lwm2m/core\internals.h **** #endif
 157:C:/Users/dtjld/Desktop/AIoT_software/LiteOS_Lab_overseas/LiteOS_Lab/iot_link/network/lwm2m/wakaama_lwm2m/core\internals.h **** 
 158:C:/Users/dtjld/Desktop/AIoT_software/LiteOS_Lab_overseas/LiteOS_Lab/iot_link/network/lwm2m/wakaama_lwm2m/core\internals.h **** #define LWM2M_DEFAULT_LIFETIME  86400
 159:C:/Users/dtjld/Desktop/AIoT_software/LiteOS_Lab_overseas/LiteOS_Lab/iot_link/network/lwm2m/wakaama_lwm2m/core\internals.h **** 
 160:C:/Users/dtjld/Desktop/AIoT_software/LiteOS_Lab_overseas/LiteOS_Lab/iot_link/network/lwm2m/wakaama_lwm2m/core\internals.h **** #ifdef LWM2M_SUPPORT_JSON
 161:C:/Users/dtjld/Desktop/AIoT_software/LiteOS_Lab_overseas/LiteOS_Lab/iot_link/network/lwm2m/wakaama_lwm2m/core\internals.h **** #define REG_LWM2M_RESOURCE_TYPE     ">;rt=\"oma.lwm2m\";ct=11543,"
 162:C:/Users/dtjld/Desktop/AIoT_software/LiteOS_Lab_overseas/LiteOS_Lab/iot_link/network/lwm2m/wakaama_lwm2m/core\internals.h **** #define REG_LWM2M_RESOURCE_TYPE_LEN 25
 163:C:/Users/dtjld/Desktop/AIoT_software/LiteOS_Lab_overseas/LiteOS_Lab/iot_link/network/lwm2m/wakaama_lwm2m/core\internals.h **** #else
 164:C:/Users/dtjld/Desktop/AIoT_software/LiteOS_Lab_overseas/LiteOS_Lab/iot_link/network/lwm2m/wakaama_lwm2m/core\internals.h **** #define REG_LWM2M_RESOURCE_TYPE     ">;rt=\"oma.lwm2m\","
 165:C:/Users/dtjld/Desktop/AIoT_software/LiteOS_Lab_overseas/LiteOS_Lab/iot_link/network/lwm2m/wakaama_lwm2m/core\internals.h **** #define REG_LWM2M_RESOURCE_TYPE_LEN 17
 166:C:/Users/dtjld/Desktop/AIoT_software/LiteOS_Lab_overseas/LiteOS_Lab/iot_link/network/lwm2m/wakaama_lwm2m/core\internals.h **** #endif
 167:C:/Users/dtjld/Desktop/AIoT_software/LiteOS_Lab_overseas/LiteOS_Lab/iot_link/network/lwm2m/wakaama_lwm2m/core\internals.h **** #define REG_START           "<"
 168:C:/Users/dtjld/Desktop/AIoT_software/LiteOS_Lab_overseas/LiteOS_Lab/iot_link/network/lwm2m/wakaama_lwm2m/core\internals.h **** #define REG_DEFAULT_PATH    "/"
 169:C:/Users/dtjld/Desktop/AIoT_software/LiteOS_Lab_overseas/LiteOS_Lab/iot_link/network/lwm2m/wakaama_lwm2m/core\internals.h **** 
 170:C:/Users/dtjld/Desktop/AIoT_software/LiteOS_Lab_overseas/LiteOS_Lab/iot_link/network/lwm2m/wakaama_lwm2m/core\internals.h **** #define REG_OBJECT_MIN_LEN  5   // "</n>,"
 171:C:/Users/dtjld/Desktop/AIoT_software/LiteOS_Lab_overseas/LiteOS_Lab/iot_link/network/lwm2m/wakaama_lwm2m/core\internals.h **** #define REG_PATH_END        ">,"
 172:C:/Users/dtjld/Desktop/AIoT_software/LiteOS_Lab_overseas/LiteOS_Lab/iot_link/network/lwm2m/wakaama_lwm2m/core\internals.h **** #define REG_PATH_SEPARATOR  "/"
 173:C:/Users/dtjld/Desktop/AIoT_software/LiteOS_Lab_overseas/LiteOS_Lab/iot_link/network/lwm2m/wakaama_lwm2m/core\internals.h **** 
 174:C:/Users/dtjld/Desktop/AIoT_software/LiteOS_Lab_overseas/LiteOS_Lab/iot_link/network/lwm2m/wakaama_lwm2m/core\internals.h **** #define REG_OBJECT_PATH             "<%s/%hu>,"
 175:C:/Users/dtjld/Desktop/AIoT_software/LiteOS_Lab_overseas/LiteOS_Lab/iot_link/network/lwm2m/wakaama_lwm2m/core\internals.h **** #define REG_OBJECT_INSTANCE_PATH    "<%s/%hu/%hu>,"
 176:C:/Users/dtjld/Desktop/AIoT_software/LiteOS_Lab_overseas/LiteOS_Lab/iot_link/network/lwm2m/wakaama_lwm2m/core\internals.h **** 
 177:C:/Users/dtjld/Desktop/AIoT_software/LiteOS_Lab_overseas/LiteOS_Lab/iot_link/network/lwm2m/wakaama_lwm2m/core\internals.h **** #define URI_REGISTRATION_SEGMENT        "rd"
 178:C:/Users/dtjld/Desktop/AIoT_software/LiteOS_Lab_overseas/LiteOS_Lab/iot_link/network/lwm2m/wakaama_lwm2m/core\internals.h **** #define URI_REGISTRATION_SEGMENT_LEN    2
 179:C:/Users/dtjld/Desktop/AIoT_software/LiteOS_Lab_overseas/LiteOS_Lab/iot_link/network/lwm2m/wakaama_lwm2m/core\internals.h **** #define URI_BOOTSTRAP_SEGMENT           "bs"
 180:C:/Users/dtjld/Desktop/AIoT_software/LiteOS_Lab_overseas/LiteOS_Lab/iot_link/network/lwm2m/wakaama_lwm2m/core\internals.h **** #define URI_BOOTSTRAP_SEGMENT_LEN       2
 181:C:/Users/dtjld/Desktop/AIoT_software/LiteOS_Lab_overseas/LiteOS_Lab/iot_link/network/lwm2m/wakaama_lwm2m/core\internals.h **** 
 182:C:/Users/dtjld/Desktop/AIoT_software/LiteOS_Lab_overseas/LiteOS_Lab/iot_link/network/lwm2m/wakaama_lwm2m/core\internals.h **** #define QUERY_STARTER       "?"
 183:C:/Users/dtjld/Desktop/AIoT_software/LiteOS_Lab_overseas/LiteOS_Lab/iot_link/network/lwm2m/wakaama_lwm2m/core\internals.h **** #define QUERY_NAME          "ep="
 184:C:/Users/dtjld/Desktop/AIoT_software/LiteOS_Lab_overseas/LiteOS_Lab/iot_link/network/lwm2m/wakaama_lwm2m/core\internals.h **** #define QUERY_NAME_LEN      3       // strlen("ep=")
 185:C:/Users/dtjld/Desktop/AIoT_software/LiteOS_Lab_overseas/LiteOS_Lab/iot_link/network/lwm2m/wakaama_lwm2m/core\internals.h **** #define QUERY_SMS           "sms="
 186:C:/Users/dtjld/Desktop/AIoT_software/LiteOS_Lab_overseas/LiteOS_Lab/iot_link/network/lwm2m/wakaama_lwm2m/core\internals.h **** #define QUERY_SMS_LEN       4
 187:C:/Users/dtjld/Desktop/AIoT_software/LiteOS_Lab_overseas/LiteOS_Lab/iot_link/network/lwm2m/wakaama_lwm2m/core\internals.h **** #define QUERY_LIFETIME      "lt="
 188:C:/Users/dtjld/Desktop/AIoT_software/LiteOS_Lab_overseas/LiteOS_Lab/iot_link/network/lwm2m/wakaama_lwm2m/core\internals.h **** #define QUERY_LIFETIME_LEN  3
 189:C:/Users/dtjld/Desktop/AIoT_software/LiteOS_Lab_overseas/LiteOS_Lab/iot_link/network/lwm2m/wakaama_lwm2m/core\internals.h **** #define QUERY_VERSION       "lwm2m="
 190:C:/Users/dtjld/Desktop/AIoT_software/LiteOS_Lab_overseas/LiteOS_Lab/iot_link/network/lwm2m/wakaama_lwm2m/core\internals.h **** #define QUERY_VERSION_LEN   6
 191:C:/Users/dtjld/Desktop/AIoT_software/LiteOS_Lab_overseas/LiteOS_Lab/iot_link/network/lwm2m/wakaama_lwm2m/core\internals.h **** #define QUERY_BINDING       "b="
 192:C:/Users/dtjld/Desktop/AIoT_software/LiteOS_Lab_overseas/LiteOS_Lab/iot_link/network/lwm2m/wakaama_lwm2m/core\internals.h **** #define QUERY_BINDING_LEN   2
 193:C:/Users/dtjld/Desktop/AIoT_software/LiteOS_Lab_overseas/LiteOS_Lab/iot_link/network/lwm2m/wakaama_lwm2m/core\internals.h **** #define QUERY_DELIMITER     "&"
 194:C:/Users/dtjld/Desktop/AIoT_software/LiteOS_Lab_overseas/LiteOS_Lab/iot_link/network/lwm2m/wakaama_lwm2m/core\internals.h **** 
 195:C:/Users/dtjld/Desktop/AIoT_software/LiteOS_Lab_overseas/LiteOS_Lab/iot_link/network/lwm2m/wakaama_lwm2m/core\internals.h **** #define LWM2M_VERSION      "1.0"
 196:C:/Users/dtjld/Desktop/AIoT_software/LiteOS_Lab_overseas/LiteOS_Lab/iot_link/network/lwm2m/wakaama_lwm2m/core\internals.h **** #define LWM2M_VERSION_LEN  3
 197:C:/Users/dtjld/Desktop/AIoT_software/LiteOS_Lab_overseas/LiteOS_Lab/iot_link/network/lwm2m/wakaama_lwm2m/core\internals.h **** 
 198:C:/Users/dtjld/Desktop/AIoT_software/LiteOS_Lab_overseas/LiteOS_Lab/iot_link/network/lwm2m/wakaama_lwm2m/core\internals.h **** #define QUERY_VERSION_FULL      QUERY_VERSION LWM2M_VERSION
 199:C:/Users/dtjld/Desktop/AIoT_software/LiteOS_Lab_overseas/LiteOS_Lab/iot_link/network/lwm2m/wakaama_lwm2m/core\internals.h **** #define QUERY_VERSION_FULL_LEN  QUERY_VERSION_LEN+LWM2M_VERSION_LEN
 200:C:/Users/dtjld/Desktop/AIoT_software/LiteOS_Lab_overseas/LiteOS_Lab/iot_link/network/lwm2m/wakaama_lwm2m/core\internals.h **** 
 201:C:/Users/dtjld/Desktop/AIoT_software/LiteOS_Lab_overseas/LiteOS_Lab/iot_link/network/lwm2m/wakaama_lwm2m/core\internals.h **** #define REG_URI_START       '<'
 202:C:/Users/dtjld/Desktop/AIoT_software/LiteOS_Lab_overseas/LiteOS_Lab/iot_link/network/lwm2m/wakaama_lwm2m/core\internals.h **** #define REG_URI_END         '>'
 203:C:/Users/dtjld/Desktop/AIoT_software/LiteOS_Lab_overseas/LiteOS_Lab/iot_link/network/lwm2m/wakaama_lwm2m/core\internals.h **** #define REG_DELIMITER       ','
ARM GAS  C:\Users\dtjld\AppData\Local\Temp\ccGRo6oh.s 			page 5


 204:C:/Users/dtjld/Desktop/AIoT_software/LiteOS_Lab_overseas/LiteOS_Lab/iot_link/network/lwm2m/wakaama_lwm2m/core\internals.h **** #define REG_ATTR_SEPARATOR  ';'
 205:C:/Users/dtjld/Desktop/AIoT_software/LiteOS_Lab_overseas/LiteOS_Lab/iot_link/network/lwm2m/wakaama_lwm2m/core\internals.h **** #define REG_ATTR_EQUALS     '='
 206:C:/Users/dtjld/Desktop/AIoT_software/LiteOS_Lab_overseas/LiteOS_Lab/iot_link/network/lwm2m/wakaama_lwm2m/core\internals.h **** #define REG_ATTR_TYPE_KEY           "rt"
 207:C:/Users/dtjld/Desktop/AIoT_software/LiteOS_Lab_overseas/LiteOS_Lab/iot_link/network/lwm2m/wakaama_lwm2m/core\internals.h **** #define REG_ATTR_TYPE_KEY_LEN       2
 208:C:/Users/dtjld/Desktop/AIoT_software/LiteOS_Lab_overseas/LiteOS_Lab/iot_link/network/lwm2m/wakaama_lwm2m/core\internals.h **** #define REG_ATTR_TYPE_VALUE         "\"oma.lwm2m\""
 209:C:/Users/dtjld/Desktop/AIoT_software/LiteOS_Lab_overseas/LiteOS_Lab/iot_link/network/lwm2m/wakaama_lwm2m/core\internals.h **** #define REG_ATTR_TYPE_VALUE_LEN     11
 210:C:/Users/dtjld/Desktop/AIoT_software/LiteOS_Lab_overseas/LiteOS_Lab/iot_link/network/lwm2m/wakaama_lwm2m/core\internals.h **** #define REG_ATTR_CONTENT_KEY        "ct"
 211:C:/Users/dtjld/Desktop/AIoT_software/LiteOS_Lab_overseas/LiteOS_Lab/iot_link/network/lwm2m/wakaama_lwm2m/core\internals.h **** #define REG_ATTR_CONTENT_KEY_LEN    2
 212:C:/Users/dtjld/Desktop/AIoT_software/LiteOS_Lab_overseas/LiteOS_Lab/iot_link/network/lwm2m/wakaama_lwm2m/core\internals.h **** #define REG_ATTR_CONTENT_JSON       "11543"   // Temporary value
 213:C:/Users/dtjld/Desktop/AIoT_software/LiteOS_Lab_overseas/LiteOS_Lab/iot_link/network/lwm2m/wakaama_lwm2m/core\internals.h **** #define REG_ATTR_CONTENT_JSON_LEN   5
 214:C:/Users/dtjld/Desktop/AIoT_software/LiteOS_Lab_overseas/LiteOS_Lab/iot_link/network/lwm2m/wakaama_lwm2m/core\internals.h **** 
 215:C:/Users/dtjld/Desktop/AIoT_software/LiteOS_Lab_overseas/LiteOS_Lab/iot_link/network/lwm2m/wakaama_lwm2m/core\internals.h **** #define ATTR_SERVER_ID_STR       "ep="
 216:C:/Users/dtjld/Desktop/AIoT_software/LiteOS_Lab_overseas/LiteOS_Lab/iot_link/network/lwm2m/wakaama_lwm2m/core\internals.h **** #define ATTR_SERVER_ID_LEN       3
 217:C:/Users/dtjld/Desktop/AIoT_software/LiteOS_Lab_overseas/LiteOS_Lab/iot_link/network/lwm2m/wakaama_lwm2m/core\internals.h **** #define ATTR_MIN_PERIOD_STR      "pmin="
 218:C:/Users/dtjld/Desktop/AIoT_software/LiteOS_Lab_overseas/LiteOS_Lab/iot_link/network/lwm2m/wakaama_lwm2m/core\internals.h **** #define ATTR_MIN_PERIOD_LEN      5
 219:C:/Users/dtjld/Desktop/AIoT_software/LiteOS_Lab_overseas/LiteOS_Lab/iot_link/network/lwm2m/wakaama_lwm2m/core\internals.h **** #define ATTR_MAX_PERIOD_STR      "pmax="
 220:C:/Users/dtjld/Desktop/AIoT_software/LiteOS_Lab_overseas/LiteOS_Lab/iot_link/network/lwm2m/wakaama_lwm2m/core\internals.h **** #define ATTR_MAX_PERIOD_LEN      5
 221:C:/Users/dtjld/Desktop/AIoT_software/LiteOS_Lab_overseas/LiteOS_Lab/iot_link/network/lwm2m/wakaama_lwm2m/core\internals.h **** #define ATTR_GREATER_THAN_STR    "gt="
 222:C:/Users/dtjld/Desktop/AIoT_software/LiteOS_Lab_overseas/LiteOS_Lab/iot_link/network/lwm2m/wakaama_lwm2m/core\internals.h **** #define ATTR_GREATER_THAN_LEN    3
 223:C:/Users/dtjld/Desktop/AIoT_software/LiteOS_Lab_overseas/LiteOS_Lab/iot_link/network/lwm2m/wakaama_lwm2m/core\internals.h **** #define ATTR_LESS_THAN_STR       "lt="
 224:C:/Users/dtjld/Desktop/AIoT_software/LiteOS_Lab_overseas/LiteOS_Lab/iot_link/network/lwm2m/wakaama_lwm2m/core\internals.h **** #define ATTR_LESS_THAN_LEN       3
 225:C:/Users/dtjld/Desktop/AIoT_software/LiteOS_Lab_overseas/LiteOS_Lab/iot_link/network/lwm2m/wakaama_lwm2m/core\internals.h **** #define ATTR_STEP_STR            "st="
 226:C:/Users/dtjld/Desktop/AIoT_software/LiteOS_Lab_overseas/LiteOS_Lab/iot_link/network/lwm2m/wakaama_lwm2m/core\internals.h **** #define ATTR_STEP_LEN            3
 227:C:/Users/dtjld/Desktop/AIoT_software/LiteOS_Lab_overseas/LiteOS_Lab/iot_link/network/lwm2m/wakaama_lwm2m/core\internals.h **** #define ATTR_DIMENSION_STR       "dim="
 228:C:/Users/dtjld/Desktop/AIoT_software/LiteOS_Lab_overseas/LiteOS_Lab/iot_link/network/lwm2m/wakaama_lwm2m/core\internals.h **** #define ATTR_DIMENSION_LEN       4
 229:C:/Users/dtjld/Desktop/AIoT_software/LiteOS_Lab_overseas/LiteOS_Lab/iot_link/network/lwm2m/wakaama_lwm2m/core\internals.h **** 
 230:C:/Users/dtjld/Desktop/AIoT_software/LiteOS_Lab_overseas/LiteOS_Lab/iot_link/network/lwm2m/wakaama_lwm2m/core\internals.h **** #define URI_MAX_STRING_LEN    18      // /65535/65535/65535
 231:C:/Users/dtjld/Desktop/AIoT_software/LiteOS_Lab_overseas/LiteOS_Lab/iot_link/network/lwm2m/wakaama_lwm2m/core\internals.h **** #define _PRV_64BIT_BUFFER_SIZE 8
 232:C:/Users/dtjld/Desktop/AIoT_software/LiteOS_Lab_overseas/LiteOS_Lab/iot_link/network/lwm2m/wakaama_lwm2m/core\internals.h **** 
 233:C:/Users/dtjld/Desktop/AIoT_software/LiteOS_Lab_overseas/LiteOS_Lab/iot_link/network/lwm2m/wakaama_lwm2m/core\internals.h **** #define LINK_ITEM_START             "<"
 234:C:/Users/dtjld/Desktop/AIoT_software/LiteOS_Lab_overseas/LiteOS_Lab/iot_link/network/lwm2m/wakaama_lwm2m/core\internals.h **** #define LINK_ITEM_START_SIZE        1
 235:C:/Users/dtjld/Desktop/AIoT_software/LiteOS_Lab_overseas/LiteOS_Lab/iot_link/network/lwm2m/wakaama_lwm2m/core\internals.h **** #define LINK_ITEM_END               ">,"
 236:C:/Users/dtjld/Desktop/AIoT_software/LiteOS_Lab_overseas/LiteOS_Lab/iot_link/network/lwm2m/wakaama_lwm2m/core\internals.h **** #define LINK_ITEM_END_SIZE          2
 237:C:/Users/dtjld/Desktop/AIoT_software/LiteOS_Lab_overseas/LiteOS_Lab/iot_link/network/lwm2m/wakaama_lwm2m/core\internals.h **** #define LINK_ITEM_DIM_START         ">;dim="
 238:C:/Users/dtjld/Desktop/AIoT_software/LiteOS_Lab_overseas/LiteOS_Lab/iot_link/network/lwm2m/wakaama_lwm2m/core\internals.h **** #define LINK_ITEM_DIM_START_SIZE    6
 239:C:/Users/dtjld/Desktop/AIoT_software/LiteOS_Lab_overseas/LiteOS_Lab/iot_link/network/lwm2m/wakaama_lwm2m/core\internals.h **** #define LINK_ITEM_ATTR_END          ","
 240:C:/Users/dtjld/Desktop/AIoT_software/LiteOS_Lab_overseas/LiteOS_Lab/iot_link/network/lwm2m/wakaama_lwm2m/core\internals.h **** #define LINK_ITEM_ATTR_END_SIZE     1
 241:C:/Users/dtjld/Desktop/AIoT_software/LiteOS_Lab_overseas/LiteOS_Lab/iot_link/network/lwm2m/wakaama_lwm2m/core\internals.h **** #define LINK_URI_SEPARATOR          "/"
 242:C:/Users/dtjld/Desktop/AIoT_software/LiteOS_Lab_overseas/LiteOS_Lab/iot_link/network/lwm2m/wakaama_lwm2m/core\internals.h **** #define LINK_URI_SEPARATOR_SIZE     1
 243:C:/Users/dtjld/Desktop/AIoT_software/LiteOS_Lab_overseas/LiteOS_Lab/iot_link/network/lwm2m/wakaama_lwm2m/core\internals.h **** #define LINK_ATTR_SEPARATOR         ";"
 244:C:/Users/dtjld/Desktop/AIoT_software/LiteOS_Lab_overseas/LiteOS_Lab/iot_link/network/lwm2m/wakaama_lwm2m/core\internals.h **** #define LINK_ATTR_SEPARATOR_SIZE    1
 245:C:/Users/dtjld/Desktop/AIoT_software/LiteOS_Lab_overseas/LiteOS_Lab/iot_link/network/lwm2m/wakaama_lwm2m/core\internals.h **** 
 246:C:/Users/dtjld/Desktop/AIoT_software/LiteOS_Lab_overseas/LiteOS_Lab/iot_link/network/lwm2m/wakaama_lwm2m/core\internals.h **** #define ATTR_FLAG_NUMERIC (uint8_t)(LWM2M_ATTR_FLAG_LESS_THAN | LWM2M_ATTR_FLAG_GREATER_THAN | LWM2
 247:C:/Users/dtjld/Desktop/AIoT_software/LiteOS_Lab_overseas/LiteOS_Lab/iot_link/network/lwm2m/wakaama_lwm2m/core\internals.h **** 
 248:C:/Users/dtjld/Desktop/AIoT_software/LiteOS_Lab_overseas/LiteOS_Lab/iot_link/network/lwm2m/wakaama_lwm2m/core\internals.h **** #define LWM2M_URI_FLAG_DM           (uint8_t)0x00
 249:C:/Users/dtjld/Desktop/AIoT_software/LiteOS_Lab_overseas/LiteOS_Lab/iot_link/network/lwm2m/wakaama_lwm2m/core\internals.h **** #define LWM2M_URI_FLAG_DELETE_ALL   (uint8_t)0x10
 250:C:/Users/dtjld/Desktop/AIoT_software/LiteOS_Lab_overseas/LiteOS_Lab/iot_link/network/lwm2m/wakaama_lwm2m/core\internals.h **** #define LWM2M_URI_FLAG_REGISTRATION (uint8_t)0x20
 251:C:/Users/dtjld/Desktop/AIoT_software/LiteOS_Lab_overseas/LiteOS_Lab/iot_link/network/lwm2m/wakaama_lwm2m/core\internals.h **** #define LWM2M_URI_FLAG_BOOTSTRAP    (uint8_t)0x40
 252:C:/Users/dtjld/Desktop/AIoT_software/LiteOS_Lab_overseas/LiteOS_Lab/iot_link/network/lwm2m/wakaama_lwm2m/core\internals.h **** 
 253:C:/Users/dtjld/Desktop/AIoT_software/LiteOS_Lab_overseas/LiteOS_Lab/iot_link/network/lwm2m/wakaama_lwm2m/core\internals.h **** #define LWM2M_URI_MASK_TYPE (uint8_t)0x70
 254:C:/Users/dtjld/Desktop/AIoT_software/LiteOS_Lab_overseas/LiteOS_Lab/iot_link/network/lwm2m/wakaama_lwm2m/core\internals.h **** #define LWM2M_URI_MASK_ID   (uint8_t)0x07
 255:C:/Users/dtjld/Desktop/AIoT_software/LiteOS_Lab_overseas/LiteOS_Lab/iot_link/network/lwm2m/wakaama_lwm2m/core\internals.h **** 
 256:C:/Users/dtjld/Desktop/AIoT_software/LiteOS_Lab_overseas/LiteOS_Lab/iot_link/network/lwm2m/wakaama_lwm2m/core\internals.h **** typedef struct
 257:C:/Users/dtjld/Desktop/AIoT_software/LiteOS_Lab_overseas/LiteOS_Lab/iot_link/network/lwm2m/wakaama_lwm2m/core\internals.h **** {
 258:C:/Users/dtjld/Desktop/AIoT_software/LiteOS_Lab_overseas/LiteOS_Lab/iot_link/network/lwm2m/wakaama_lwm2m/core\internals.h ****     uint16_t clientID;
 259:C:/Users/dtjld/Desktop/AIoT_software/LiteOS_Lab_overseas/LiteOS_Lab/iot_link/network/lwm2m/wakaama_lwm2m/core\internals.h ****     lwm2m_uri_t uri;
 260:C:/Users/dtjld/Desktop/AIoT_software/LiteOS_Lab_overseas/LiteOS_Lab/iot_link/network/lwm2m/wakaama_lwm2m/core\internals.h ****     lwm2m_result_callback_t callback;
ARM GAS  C:\Users\dtjld\AppData\Local\Temp\ccGRo6oh.s 			page 6


 261:C:/Users/dtjld/Desktop/AIoT_software/LiteOS_Lab_overseas/LiteOS_Lab/iot_link/network/lwm2m/wakaama_lwm2m/core\internals.h ****     void * userData;
 262:C:/Users/dtjld/Desktop/AIoT_software/LiteOS_Lab_overseas/LiteOS_Lab/iot_link/network/lwm2m/wakaama_lwm2m/core\internals.h **** } dm_data_t;
 263:C:/Users/dtjld/Desktop/AIoT_software/LiteOS_Lab_overseas/LiteOS_Lab/iot_link/network/lwm2m/wakaama_lwm2m/core\internals.h **** 
 264:C:/Users/dtjld/Desktop/AIoT_software/LiteOS_Lab_overseas/LiteOS_Lab/iot_link/network/lwm2m/wakaama_lwm2m/core\internals.h **** typedef enum
 265:C:/Users/dtjld/Desktop/AIoT_software/LiteOS_Lab_overseas/LiteOS_Lab/iot_link/network/lwm2m/wakaama_lwm2m/core\internals.h **** {
 266:C:/Users/dtjld/Desktop/AIoT_software/LiteOS_Lab_overseas/LiteOS_Lab/iot_link/network/lwm2m/wakaama_lwm2m/core\internals.h ****     URI_DEPTH_OBJECT,
 267:C:/Users/dtjld/Desktop/AIoT_software/LiteOS_Lab_overseas/LiteOS_Lab/iot_link/network/lwm2m/wakaama_lwm2m/core\internals.h ****     URI_DEPTH_OBJECT_INSTANCE,
 268:C:/Users/dtjld/Desktop/AIoT_software/LiteOS_Lab_overseas/LiteOS_Lab/iot_link/network/lwm2m/wakaama_lwm2m/core\internals.h ****     URI_DEPTH_RESOURCE,
 269:C:/Users/dtjld/Desktop/AIoT_software/LiteOS_Lab_overseas/LiteOS_Lab/iot_link/network/lwm2m/wakaama_lwm2m/core\internals.h ****     URI_DEPTH_RESOURCE_INSTANCE
 270:C:/Users/dtjld/Desktop/AIoT_software/LiteOS_Lab_overseas/LiteOS_Lab/iot_link/network/lwm2m/wakaama_lwm2m/core\internals.h **** } uri_depth_t;
 271:C:/Users/dtjld/Desktop/AIoT_software/LiteOS_Lab_overseas/LiteOS_Lab/iot_link/network/lwm2m/wakaama_lwm2m/core\internals.h **** 
 272:C:/Users/dtjld/Desktop/AIoT_software/LiteOS_Lab_overseas/LiteOS_Lab/iot_link/network/lwm2m/wakaama_lwm2m/core\internals.h **** #ifdef LWM2M_BOOTSTRAP_SERVER_MODE
 273:C:/Users/dtjld/Desktop/AIoT_software/LiteOS_Lab_overseas/LiteOS_Lab/iot_link/network/lwm2m/wakaama_lwm2m/core\internals.h **** typedef struct
 274:C:/Users/dtjld/Desktop/AIoT_software/LiteOS_Lab_overseas/LiteOS_Lab/iot_link/network/lwm2m/wakaama_lwm2m/core\internals.h **** {
 275:C:/Users/dtjld/Desktop/AIoT_software/LiteOS_Lab_overseas/LiteOS_Lab/iot_link/network/lwm2m/wakaama_lwm2m/core\internals.h ****     bool        isUri;
 276:C:/Users/dtjld/Desktop/AIoT_software/LiteOS_Lab_overseas/LiteOS_Lab/iot_link/network/lwm2m/wakaama_lwm2m/core\internals.h ****     lwm2m_uri_t uri;
 277:C:/Users/dtjld/Desktop/AIoT_software/LiteOS_Lab_overseas/LiteOS_Lab/iot_link/network/lwm2m/wakaama_lwm2m/core\internals.h ****     lwm2m_bootstrap_callback_t callback;
 278:C:/Users/dtjld/Desktop/AIoT_software/LiteOS_Lab_overseas/LiteOS_Lab/iot_link/network/lwm2m/wakaama_lwm2m/core\internals.h ****     void *      userData;
 279:C:/Users/dtjld/Desktop/AIoT_software/LiteOS_Lab_overseas/LiteOS_Lab/iot_link/network/lwm2m/wakaama_lwm2m/core\internals.h **** } bs_data_t;
 280:C:/Users/dtjld/Desktop/AIoT_software/LiteOS_Lab_overseas/LiteOS_Lab/iot_link/network/lwm2m/wakaama_lwm2m/core\internals.h **** #endif
 281:C:/Users/dtjld/Desktop/AIoT_software/LiteOS_Lab_overseas/LiteOS_Lab/iot_link/network/lwm2m/wakaama_lwm2m/core\internals.h **** 
 282:C:/Users/dtjld/Desktop/AIoT_software/LiteOS_Lab_overseas/LiteOS_Lab/iot_link/network/lwm2m/wakaama_lwm2m/core\internals.h **** // defined in uri.c
 283:C:/Users/dtjld/Desktop/AIoT_software/LiteOS_Lab_overseas/LiteOS_Lab/iot_link/network/lwm2m/wakaama_lwm2m/core\internals.h **** lwm2m_uri_t * uri_decode(char * altPath, multi_option_t *uriPath);
 284:C:/Users/dtjld/Desktop/AIoT_software/LiteOS_Lab_overseas/LiteOS_Lab/iot_link/network/lwm2m/wakaama_lwm2m/core\internals.h **** int uri_getNumber(uint8_t * uriString, size_t uriLength);
 285:C:/Users/dtjld/Desktop/AIoT_software/LiteOS_Lab_overseas/LiteOS_Lab/iot_link/network/lwm2m/wakaama_lwm2m/core\internals.h **** int uri_toString(lwm2m_uri_t * uriP, uint8_t * buffer, size_t bufferLen, uri_depth_t * depthP);
 286:C:/Users/dtjld/Desktop/AIoT_software/LiteOS_Lab_overseas/LiteOS_Lab/iot_link/network/lwm2m/wakaama_lwm2m/core\internals.h **** 
 287:C:/Users/dtjld/Desktop/AIoT_software/LiteOS_Lab_overseas/LiteOS_Lab/iot_link/network/lwm2m/wakaama_lwm2m/core\internals.h **** // defined in objects.c
 288:C:/Users/dtjld/Desktop/AIoT_software/LiteOS_Lab_overseas/LiteOS_Lab/iot_link/network/lwm2m/wakaama_lwm2m/core\internals.h **** uint8_t object_readData(lwm2m_context_t * contextP, lwm2m_uri_t * uriP, int * sizeP, lwm2m_data_t *
 289:C:/Users/dtjld/Desktop/AIoT_software/LiteOS_Lab_overseas/LiteOS_Lab/iot_link/network/lwm2m/wakaama_lwm2m/core\internals.h **** uint8_t object_read(lwm2m_context_t * contextP, lwm2m_uri_t * uriP, lwm2m_media_type_t * formatP, u
 290:C:/Users/dtjld/Desktop/AIoT_software/LiteOS_Lab_overseas/LiteOS_Lab/iot_link/network/lwm2m/wakaama_lwm2m/core\internals.h **** uint8_t object_write(lwm2m_context_t * contextP, lwm2m_uri_t * uriP, lwm2m_media_type_t format, uin
 291:C:/Users/dtjld/Desktop/AIoT_software/LiteOS_Lab_overseas/LiteOS_Lab/iot_link/network/lwm2m/wakaama_lwm2m/core\internals.h **** uint8_t object_create(lwm2m_context_t * contextP, lwm2m_uri_t * uriP, lwm2m_media_type_t format, ui
 292:C:/Users/dtjld/Desktop/AIoT_software/LiteOS_Lab_overseas/LiteOS_Lab/iot_link/network/lwm2m/wakaama_lwm2m/core\internals.h **** uint8_t object_execute(lwm2m_context_t * contextP, lwm2m_uri_t * uriP, uint8_t * buffer, size_t len
 293:C:/Users/dtjld/Desktop/AIoT_software/LiteOS_Lab_overseas/LiteOS_Lab/iot_link/network/lwm2m/wakaama_lwm2m/core\internals.h **** uint8_t object_delete(lwm2m_context_t * contextP, lwm2m_uri_t * uriP);
 294:C:/Users/dtjld/Desktop/AIoT_software/LiteOS_Lab_overseas/LiteOS_Lab/iot_link/network/lwm2m/wakaama_lwm2m/core\internals.h **** uint8_t object_discover(lwm2m_context_t * contextP, lwm2m_uri_t * uriP, lwm2m_server_t * serverP, u
 295:C:/Users/dtjld/Desktop/AIoT_software/LiteOS_Lab_overseas/LiteOS_Lab/iot_link/network/lwm2m/wakaama_lwm2m/core\internals.h **** uint8_t object_checkReadable(lwm2m_context_t * contextP, lwm2m_uri_t * uriP);
 296:C:/Users/dtjld/Desktop/AIoT_software/LiteOS_Lab_overseas/LiteOS_Lab/iot_link/network/lwm2m/wakaama_lwm2m/core\internals.h **** uint8_t object_checkNumeric(lwm2m_context_t * contextP, lwm2m_uri_t * uriP);
 297:C:/Users/dtjld/Desktop/AIoT_software/LiteOS_Lab_overseas/LiteOS_Lab/iot_link/network/lwm2m/wakaama_lwm2m/core\internals.h **** bool object_isInstanceNew(lwm2m_context_t * contextP, uint16_t objectId, uint16_t instanceId);
 298:C:/Users/dtjld/Desktop/AIoT_software/LiteOS_Lab_overseas/LiteOS_Lab/iot_link/network/lwm2m/wakaama_lwm2m/core\internals.h **** int object_getRegisterPayloadBufferLength(lwm2m_context_t * contextP);
 299:C:/Users/dtjld/Desktop/AIoT_software/LiteOS_Lab_overseas/LiteOS_Lab/iot_link/network/lwm2m/wakaama_lwm2m/core\internals.h **** int object_getRegisterPayload(lwm2m_context_t * contextP, uint8_t * buffer, size_t length);
 300:C:/Users/dtjld/Desktop/AIoT_software/LiteOS_Lab_overseas/LiteOS_Lab/iot_link/network/lwm2m/wakaama_lwm2m/core\internals.h **** int object_getServers(lwm2m_context_t * contextP, bool checkOnly);
 301:C:/Users/dtjld/Desktop/AIoT_software/LiteOS_Lab_overseas/LiteOS_Lab/iot_link/network/lwm2m/wakaama_lwm2m/core\internals.h **** uint8_t object_createInstance(lwm2m_context_t * contextP, lwm2m_uri_t * uriP, lwm2m_data_t * dataP)
 302:C:/Users/dtjld/Desktop/AIoT_software/LiteOS_Lab_overseas/LiteOS_Lab/iot_link/network/lwm2m/wakaama_lwm2m/core\internals.h **** uint8_t object_writeInstance(lwm2m_context_t * contextP, lwm2m_uri_t * uriP, lwm2m_data_t * dataP);
 303:C:/Users/dtjld/Desktop/AIoT_software/LiteOS_Lab_overseas/LiteOS_Lab/iot_link/network/lwm2m/wakaama_lwm2m/core\internals.h **** 
 304:C:/Users/dtjld/Desktop/AIoT_software/LiteOS_Lab_overseas/LiteOS_Lab/iot_link/network/lwm2m/wakaama_lwm2m/core\internals.h **** // defined in transaction.c
 305:C:/Users/dtjld/Desktop/AIoT_software/LiteOS_Lab_overseas/LiteOS_Lab/iot_link/network/lwm2m/wakaama_lwm2m/core\internals.h **** lwm2m_transaction_t * transaction_new(void * sessionH, unsigned char method, char * altPath, lwm2m_
 306:C:/Users/dtjld/Desktop/AIoT_software/LiteOS_Lab_overseas/LiteOS_Lab/iot_link/network/lwm2m/wakaama_lwm2m/core\internals.h **** int transaction_send(lwm2m_context_t * contextP, lwm2m_transaction_t * transacP);
 307:C:/Users/dtjld/Desktop/AIoT_software/LiteOS_Lab_overseas/LiteOS_Lab/iot_link/network/lwm2m/wakaama_lwm2m/core\internals.h **** void transaction_free(lwm2m_transaction_t * transacP);
 308:C:/Users/dtjld/Desktop/AIoT_software/LiteOS_Lab_overseas/LiteOS_Lab/iot_link/network/lwm2m/wakaama_lwm2m/core\internals.h **** void transaction_remove(lwm2m_context_t * contextP, lwm2m_transaction_t * transacP);
 309:C:/Users/dtjld/Desktop/AIoT_software/LiteOS_Lab_overseas/LiteOS_Lab/iot_link/network/lwm2m/wakaama_lwm2m/core\internals.h **** bool transaction_handleResponse(lwm2m_context_t * contextP, void * fromSessionH, coap_packet_t * me
 310:C:/Users/dtjld/Desktop/AIoT_software/LiteOS_Lab_overseas/LiteOS_Lab/iot_link/network/lwm2m/wakaama_lwm2m/core\internals.h **** void transaction_step(lwm2m_context_t * contextP, time_t currentTime, time_t * timeoutP);
 311:C:/Users/dtjld/Desktop/AIoT_software/LiteOS_Lab_overseas/LiteOS_Lab/iot_link/network/lwm2m/wakaama_lwm2m/core\internals.h **** 
 312:C:/Users/dtjld/Desktop/AIoT_software/LiteOS_Lab_overseas/LiteOS_Lab/iot_link/network/lwm2m/wakaama_lwm2m/core\internals.h **** // defined in management.c
 313:C:/Users/dtjld/Desktop/AIoT_software/LiteOS_Lab_overseas/LiteOS_Lab/iot_link/network/lwm2m/wakaama_lwm2m/core\internals.h **** uint8_t dm_handleRequest(lwm2m_context_t * contextP, lwm2m_uri_t * uriP, lwm2m_server_t * serverP, 
 314:C:/Users/dtjld/Desktop/AIoT_software/LiteOS_Lab_overseas/LiteOS_Lab/iot_link/network/lwm2m/wakaama_lwm2m/core\internals.h **** 
 315:C:/Users/dtjld/Desktop/AIoT_software/LiteOS_Lab_overseas/LiteOS_Lab/iot_link/network/lwm2m/wakaama_lwm2m/core\internals.h **** // defined in observe.c
 316:C:/Users/dtjld/Desktop/AIoT_software/LiteOS_Lab_overseas/LiteOS_Lab/iot_link/network/lwm2m/wakaama_lwm2m/core\internals.h **** uint8_t observe_handleRequest(lwm2m_context_t * contextP, lwm2m_uri_t * uriP, lwm2m_server_t * serv
 317:C:/Users/dtjld/Desktop/AIoT_software/LiteOS_Lab_overseas/LiteOS_Lab/iot_link/network/lwm2m/wakaama_lwm2m/core\internals.h **** void observe_cancel(lwm2m_context_t * contextP, uint16_t mid, void * fromSessionH);
ARM GAS  C:\Users\dtjld\AppData\Local\Temp\ccGRo6oh.s 			page 7


 318:C:/Users/dtjld/Desktop/AIoT_software/LiteOS_Lab_overseas/LiteOS_Lab/iot_link/network/lwm2m/wakaama_lwm2m/core\internals.h **** uint8_t observe_setParameters(lwm2m_context_t * contextP, lwm2m_uri_t * uriP, lwm2m_server_t * serv
 319:C:/Users/dtjld/Desktop/AIoT_software/LiteOS_Lab_overseas/LiteOS_Lab/iot_link/network/lwm2m/wakaama_lwm2m/core\internals.h **** void observe_step(lwm2m_context_t * contextP, time_t currentTime, time_t * timeoutP);
 320:C:/Users/dtjld/Desktop/AIoT_software/LiteOS_Lab_overseas/LiteOS_Lab/iot_link/network/lwm2m/wakaama_lwm2m/core\internals.h **** void observe_clear(lwm2m_context_t * contextP, lwm2m_uri_t * uriP);
 321:C:/Users/dtjld/Desktop/AIoT_software/LiteOS_Lab_overseas/LiteOS_Lab/iot_link/network/lwm2m/wakaama_lwm2m/core\internals.h **** //bool observe_handleNotify(lwm2m_context_t * contextP, void * fromSessionH, coap_packet_t * messag
 322:C:/Users/dtjld/Desktop/AIoT_software/LiteOS_Lab_overseas/LiteOS_Lab/iot_link/network/lwm2m/wakaama_lwm2m/core\internals.h **** void observe_remove(lwm2m_observation_t * observationP);
 323:C:/Users/dtjld/Desktop/AIoT_software/LiteOS_Lab_overseas/LiteOS_Lab/iot_link/network/lwm2m/wakaama_lwm2m/core\internals.h **** lwm2m_observed_t * observe_findByUri(lwm2m_context_t * contextP, lwm2m_uri_t * uriP);
 324:C:/Users/dtjld/Desktop/AIoT_software/LiteOS_Lab_overseas/LiteOS_Lab/iot_link/network/lwm2m/wakaama_lwm2m/core\internals.h **** 
 325:C:/Users/dtjld/Desktop/AIoT_software/LiteOS_Lab_overseas/LiteOS_Lab/iot_link/network/lwm2m/wakaama_lwm2m/core\internals.h **** // defined in registration.c
 326:C:/Users/dtjld/Desktop/AIoT_software/LiteOS_Lab_overseas/LiteOS_Lab/iot_link/network/lwm2m/wakaama_lwm2m/core\internals.h **** //uint8_t registration_handleRequest(lwm2m_context_t * contextP, lwm2m_uri_t * uriP, void * fromSes
 327:C:/Users/dtjld/Desktop/AIoT_software/LiteOS_Lab_overseas/LiteOS_Lab/iot_link/network/lwm2m/wakaama_lwm2m/core\internals.h **** void registration_deregister(lwm2m_context_t * contextP, lwm2m_server_t * serverP);
 328:C:/Users/dtjld/Desktop/AIoT_software/LiteOS_Lab_overseas/LiteOS_Lab/iot_link/network/lwm2m/wakaama_lwm2m/core\internals.h **** void registration_freeClient(lwm2m_client_t * clientP);
 329:C:/Users/dtjld/Desktop/AIoT_software/LiteOS_Lab_overseas/LiteOS_Lab/iot_link/network/lwm2m/wakaama_lwm2m/core\internals.h **** uint8_t registration_start(lwm2m_context_t * contextP);
 330:C:/Users/dtjld/Desktop/AIoT_software/LiteOS_Lab_overseas/LiteOS_Lab/iot_link/network/lwm2m/wakaama_lwm2m/core\internals.h **** void registration_step(lwm2m_context_t * contextP, time_t currentTime, time_t * timeoutP);
 331:C:/Users/dtjld/Desktop/AIoT_software/LiteOS_Lab_overseas/LiteOS_Lab/iot_link/network/lwm2m/wakaama_lwm2m/core\internals.h **** lwm2m_status_t registration_getStatus(lwm2m_context_t * contextP);
 332:C:/Users/dtjld/Desktop/AIoT_software/LiteOS_Lab_overseas/LiteOS_Lab/iot_link/network/lwm2m/wakaama_lwm2m/core\internals.h **** void registration_reset(lwm2m_context_t * contextP, lwm2m_server_t * serverP);
 333:C:/Users/dtjld/Desktop/AIoT_software/LiteOS_Lab_overseas/LiteOS_Lab/iot_link/network/lwm2m/wakaama_lwm2m/core\internals.h **** 
 334:C:/Users/dtjld/Desktop/AIoT_software/LiteOS_Lab_overseas/LiteOS_Lab/iot_link/network/lwm2m/wakaama_lwm2m/core\internals.h **** // defined in packet.c
 335:C:/Users/dtjld/Desktop/AIoT_software/LiteOS_Lab_overseas/LiteOS_Lab/iot_link/network/lwm2m/wakaama_lwm2m/core\internals.h **** uint8_t message_send(lwm2m_context_t * contextP, coap_packet_t * message, void * sessionH);
 336:C:/Users/dtjld/Desktop/AIoT_software/LiteOS_Lab_overseas/LiteOS_Lab/iot_link/network/lwm2m/wakaama_lwm2m/core\internals.h **** 
 337:C:/Users/dtjld/Desktop/AIoT_software/LiteOS_Lab_overseas/LiteOS_Lab/iot_link/network/lwm2m/wakaama_lwm2m/core\internals.h **** // defined in bootstrap.c
 338:C:/Users/dtjld/Desktop/AIoT_software/LiteOS_Lab_overseas/LiteOS_Lab/iot_link/network/lwm2m/wakaama_lwm2m/core\internals.h **** void bootstrap_step(lwm2m_context_t * contextP, uint32_t currentTime, time_t* timeoutP);
 339:C:/Users/dtjld/Desktop/AIoT_software/LiteOS_Lab_overseas/LiteOS_Lab/iot_link/network/lwm2m/wakaama_lwm2m/core\internals.h **** uint8_t bootstrap_handleCommand(lwm2m_context_t * contextP, lwm2m_uri_t * uriP, lwm2m_server_t * se
 340:C:/Users/dtjld/Desktop/AIoT_software/LiteOS_Lab_overseas/LiteOS_Lab/iot_link/network/lwm2m/wakaama_lwm2m/core\internals.h **** uint8_t bootstrap_handleDeleteAll(lwm2m_context_t * context, void * fromSessionH);
 341:C:/Users/dtjld/Desktop/AIoT_software/LiteOS_Lab_overseas/LiteOS_Lab/iot_link/network/lwm2m/wakaama_lwm2m/core\internals.h **** uint8_t bootstrap_handleFinish(lwm2m_context_t * context, void * fromSessionH);
 342:C:/Users/dtjld/Desktop/AIoT_software/LiteOS_Lab_overseas/LiteOS_Lab/iot_link/network/lwm2m/wakaama_lwm2m/core\internals.h **** uint8_t bootstrap_handleRequest(lwm2m_context_t * contextP, lwm2m_uri_t * uriP, void * fromSessionH
 343:C:/Users/dtjld/Desktop/AIoT_software/LiteOS_Lab_overseas/LiteOS_Lab/iot_link/network/lwm2m/wakaama_lwm2m/core\internals.h **** void bootstrap_start(lwm2m_context_t * contextP);
 344:C:/Users/dtjld/Desktop/AIoT_software/LiteOS_Lab_overseas/LiteOS_Lab/iot_link/network/lwm2m/wakaama_lwm2m/core\internals.h **** lwm2m_status_t bootstrap_getStatus(lwm2m_context_t * contextP);
 345:C:/Users/dtjld/Desktop/AIoT_software/LiteOS_Lab_overseas/LiteOS_Lab/iot_link/network/lwm2m/wakaama_lwm2m/core\internals.h **** bool bootstrap_isBsServerIpValid(const lwm2m_context_t *contextP);
 346:C:/Users/dtjld/Desktop/AIoT_software/LiteOS_Lab_overseas/LiteOS_Lab/iot_link/network/lwm2m/wakaama_lwm2m/core\internals.h **** 
 347:C:/Users/dtjld/Desktop/AIoT_software/LiteOS_Lab_overseas/LiteOS_Lab/iot_link/network/lwm2m/wakaama_lwm2m/core\internals.h **** 
 348:C:/Users/dtjld/Desktop/AIoT_software/LiteOS_Lab_overseas/LiteOS_Lab/iot_link/network/lwm2m/wakaama_lwm2m/core\internals.h **** // defined in tlv.c
 349:C:/Users/dtjld/Desktop/AIoT_software/LiteOS_Lab_overseas/LiteOS_Lab/iot_link/network/lwm2m/wakaama_lwm2m/core\internals.h **** int tlv_parse(uint8_t * buffer, size_t bufferLen, lwm2m_data_t ** dataP);
 350:C:/Users/dtjld/Desktop/AIoT_software/LiteOS_Lab_overseas/LiteOS_Lab/iot_link/network/lwm2m/wakaama_lwm2m/core\internals.h **** int tlv_serialize(bool isResourceInstance, int size, lwm2m_data_t * dataP, uint8_t ** bufferP);
 351:C:/Users/dtjld/Desktop/AIoT_software/LiteOS_Lab_overseas/LiteOS_Lab/iot_link/network/lwm2m/wakaama_lwm2m/core\internals.h **** 
 352:C:/Users/dtjld/Desktop/AIoT_software/LiteOS_Lab_overseas/LiteOS_Lab/iot_link/network/lwm2m/wakaama_lwm2m/core\internals.h **** // defined in json.c
 353:C:/Users/dtjld/Desktop/AIoT_software/LiteOS_Lab_overseas/LiteOS_Lab/iot_link/network/lwm2m/wakaama_lwm2m/core\internals.h **** #ifdef LWM2M_SUPPORT_JSON
 354:C:/Users/dtjld/Desktop/AIoT_software/LiteOS_Lab_overseas/LiteOS_Lab/iot_link/network/lwm2m/wakaama_lwm2m/core\internals.h **** int json_parse(lwm2m_uri_t * uriP, uint8_t * buffer, size_t bufferLen, lwm2m_data_t ** dataP);
 355:C:/Users/dtjld/Desktop/AIoT_software/LiteOS_Lab_overseas/LiteOS_Lab/iot_link/network/lwm2m/wakaama_lwm2m/core\internals.h **** int json_serialize(lwm2m_uri_t * uriP, int size, lwm2m_data_t * tlvP, uint8_t ** bufferP);
 356:C:/Users/dtjld/Desktop/AIoT_software/LiteOS_Lab_overseas/LiteOS_Lab/iot_link/network/lwm2m/wakaama_lwm2m/core\internals.h **** #endif
 357:C:/Users/dtjld/Desktop/AIoT_software/LiteOS_Lab_overseas/LiteOS_Lab/iot_link/network/lwm2m/wakaama_lwm2m/core\internals.h **** 
 358:C:/Users/dtjld/Desktop/AIoT_software/LiteOS_Lab_overseas/LiteOS_Lab/iot_link/network/lwm2m/wakaama_lwm2m/core\internals.h **** // defined in discover.c
 359:C:/Users/dtjld/Desktop/AIoT_software/LiteOS_Lab_overseas/LiteOS_Lab/iot_link/network/lwm2m/wakaama_lwm2m/core\internals.h **** int discover_serialize(lwm2m_context_t * contextP, lwm2m_uri_t * uriP, lwm2m_server_t * serverP, in
 360:C:/Users/dtjld/Desktop/AIoT_software/LiteOS_Lab_overseas/LiteOS_Lab/iot_link/network/lwm2m/wakaama_lwm2m/core\internals.h **** 
 361:C:/Users/dtjld/Desktop/AIoT_software/LiteOS_Lab_overseas/LiteOS_Lab/iot_link/network/lwm2m/wakaama_lwm2m/core\internals.h **** // defined in block1.c
 362:C:/Users/dtjld/Desktop/AIoT_software/LiteOS_Lab_overseas/LiteOS_Lab/iot_link/network/lwm2m/wakaama_lwm2m/core\internals.h **** uint8_t coap_block1_handler(lwm2m_block1_data_t ** block1Data, uint16_t mid, uint8_t * buffer, size
 363:C:/Users/dtjld/Desktop/AIoT_software/LiteOS_Lab_overseas/LiteOS_Lab/iot_link/network/lwm2m/wakaama_lwm2m/core\internals.h **** void free_block1_buffer(lwm2m_block1_data_t * block1Data);
 364:C:/Users/dtjld/Desktop/AIoT_software/LiteOS_Lab_overseas/LiteOS_Lab/iot_link/network/lwm2m/wakaama_lwm2m/core\internals.h **** 
 365:C:/Users/dtjld/Desktop/AIoT_software/LiteOS_Lab_overseas/LiteOS_Lab/iot_link/network/lwm2m/wakaama_lwm2m/core\internals.h **** // defined in utils.c
 366:C:/Users/dtjld/Desktop/AIoT_software/LiteOS_Lab_overseas/LiteOS_Lab/iot_link/network/lwm2m/wakaama_lwm2m/core\internals.h **** lwm2m_data_type_t utils_depthToDatatype(uri_depth_t depth);
 367:C:/Users/dtjld/Desktop/AIoT_software/LiteOS_Lab_overseas/LiteOS_Lab/iot_link/network/lwm2m/wakaama_lwm2m/core\internals.h **** lwm2m_binding_t utils_stringToBinding(uint8_t *buffer, size_t length);
 368:C:/Users/dtjld/Desktop/AIoT_software/LiteOS_Lab_overseas/LiteOS_Lab/iot_link/network/lwm2m/wakaama_lwm2m/core\internals.h **** lwm2m_media_type_t utils_convertMediaType(coap_content_type_t type);
 369:C:/Users/dtjld/Desktop/AIoT_software/LiteOS_Lab_overseas/LiteOS_Lab/iot_link/network/lwm2m/wakaama_lwm2m/core\internals.h **** int utils_isAltPathValid(const char * altPath);
 370:C:/Users/dtjld/Desktop/AIoT_software/LiteOS_Lab_overseas/LiteOS_Lab/iot_link/network/lwm2m/wakaama_lwm2m/core\internals.h **** int utils_stringCopy(char * buffer, size_t length, const char * str);
 371:C:/Users/dtjld/Desktop/AIoT_software/LiteOS_Lab_overseas/LiteOS_Lab/iot_link/network/lwm2m/wakaama_lwm2m/core\internals.h **** size_t utils_intToText(int64_t data, uint8_t * string, size_t length);
 372:C:/Users/dtjld/Desktop/AIoT_software/LiteOS_Lab_overseas/LiteOS_Lab/iot_link/network/lwm2m/wakaama_lwm2m/core\internals.h **** size_t utils_floatToText(double data, uint8_t * string, size_t length);
 373:C:/Users/dtjld/Desktop/AIoT_software/LiteOS_Lab_overseas/LiteOS_Lab/iot_link/network/lwm2m/wakaama_lwm2m/core\internals.h **** int utils_textToInt(uint8_t * buffer, int length, int64_t * dataP);
 374:C:/Users/dtjld/Desktop/AIoT_software/LiteOS_Lab_overseas/LiteOS_Lab/iot_link/network/lwm2m/wakaama_lwm2m/core\internals.h **** int utils_textToFloat(uint8_t * buffer, int length, double * dataP);
ARM GAS  C:\Users\dtjld\AppData\Local\Temp\ccGRo6oh.s 			page 8


 375:C:/Users/dtjld/Desktop/AIoT_software/LiteOS_Lab_overseas/LiteOS_Lab/iot_link/network/lwm2m/wakaama_lwm2m/core\internals.h **** void utils_copyValue(void * dst, const void * src, size_t len);
 376:C:/Users/dtjld/Desktop/AIoT_software/LiteOS_Lab_overseas/LiteOS_Lab/iot_link/network/lwm2m/wakaama_lwm2m/core\internals.h **** size_t utils_base64GetSize(size_t dataLen);
 377:C:/Users/dtjld/Desktop/AIoT_software/LiteOS_Lab_overseas/LiteOS_Lab/iot_link/network/lwm2m/wakaama_lwm2m/core\internals.h **** size_t utils_base64Encode(uint8_t * dataP, size_t dataLen, uint8_t * bufferP, size_t bufferLen);
 378:C:/Users/dtjld/Desktop/AIoT_software/LiteOS_Lab_overseas/LiteOS_Lab/iot_link/network/lwm2m/wakaama_lwm2m/core\internals.h **** #ifdef LWM2M_CLIENT_MODE
 379:C:/Users/dtjld/Desktop/AIoT_software/LiteOS_Lab_overseas/LiteOS_Lab/iot_link/network/lwm2m/wakaama_lwm2m/core\internals.h **** lwm2m_server_t * utils_findServer(lwm2m_context_t * contextP, void * fromSessionH);
 380:C:/Users/dtjld/Desktop/AIoT_software/LiteOS_Lab_overseas/LiteOS_Lab/iot_link/network/lwm2m/wakaama_lwm2m/core\internals.h **** lwm2m_server_t * utils_findBootstrapServer(lwm2m_context_t * contextP, void * fromSessionH);
 381:C:/Users/dtjld/Desktop/AIoT_software/LiteOS_Lab_overseas/LiteOS_Lab/iot_link/network/lwm2m/wakaama_lwm2m/core\internals.h **** #endif
 382:C:/Users/dtjld/Desktop/AIoT_software/LiteOS_Lab_overseas/LiteOS_Lab/iot_link/network/lwm2m/wakaama_lwm2m/core\internals.h **** static inline int dm_isUriOpaqueHandle(const lwm2m_uri_t * uriP)
 383:C:/Users/dtjld/Desktop/AIoT_software/LiteOS_Lab_overseas/LiteOS_Lab/iot_link/network/lwm2m/wakaama_lwm2m/core\internals.h **** {
  27              		.loc 1 383 0
  28              		.cfi_startproc
  29              		@ args = 0, pretend = 0, frame = 8
  30              		@ frame_needed = 1, uses_anonymous_args = 0
  31              		@ link register save eliminated.
  32 0000 80B4     		push	{r7}
  33              	.LCFI0:
  34              		.cfi_def_cfa_offset 4
  35              		.cfi_offset 7, -4
  36 0002 83B0     		sub	sp, sp, #12
  37              	.LCFI1:
  38              		.cfi_def_cfa_offset 16
  39 0004 00AF     		add	r7, sp, #0
  40              	.LCFI2:
  41              		.cfi_def_cfa_register 7
  42 0006 7860     		str	r0, [r7, #4]
 384:C:/Users/dtjld/Desktop/AIoT_software/LiteOS_Lab_overseas/LiteOS_Lab/iot_link/network/lwm2m/wakaama_lwm2m/core\internals.h ****     return (19 == uriP->objectId);
  43              		.loc 1 384 0
  44 0008 7B68     		ldr	r3, [r7, #4]
  45 000a 5B88     		ldrh	r3, [r3, #2]
  46 000c 132B     		cmp	r3, #19
  47 000e 0CBF     		ite	eq
  48 0010 0123     		moveq	r3, #1
  49 0012 0023     		movne	r3, #0
  50 0014 DBB2     		uxtb	r3, r3
 385:C:/Users/dtjld/Desktop/AIoT_software/LiteOS_Lab_overseas/LiteOS_Lab/iot_link/network/lwm2m/wakaama_lwm2m/core\internals.h **** }
  51              		.loc 1 385 0
  52 0016 1846     		mov	r0, r3
  53 0018 0C37     		adds	r7, r7, #12
  54              	.LCFI3:
  55              		.cfi_def_cfa_offset 4
  56 001a BD46     		mov	sp, r7
  57              	.LCFI4:
  58              		.cfi_def_cfa_register 13
  59              		@ sp needed
  60 001c 5DF8047B 		ldr	r7, [sp], #4
  61              	.LCFI5:
  62              		.cfi_restore 7
  63              		.cfi_def_cfa_offset 0
  64 0020 7047     		bx	lr
  65              		.cfi_endproc
  66              	.LFE3:
  68              		.section	.rodata
  69              		.align	2
  70              	.LC0:
  71 0000 706D696E 		.ascii	"pmin=\000"
  71      3D00
  72 0006 0000     		.align	2
ARM GAS  C:\Users\dtjld\AppData\Local\Temp\ccGRo6oh.s 			page 9


  73              	.LC1:
  74 0008 706D6178 		.ascii	"pmax=\000"
  74      3D00
  75 000e 0000     		.align	2
  76              	.LC2:
  77 0010 67743D00 		.ascii	"gt=\000"
  78              		.align	2
  79              	.LC3:
  80 0014 6C743D00 		.ascii	"lt=\000"
  81              		.align	2
  82              	.LC4:
  83 0018 73743D00 		.ascii	"st=\000"
  84              		.global	__aeabi_dcmplt
  85              		.section	.text.prv_readAttributes,"ax",%progbits
  86              		.align	1
  87              		.syntax unified
  88              		.thumb
  89              		.thumb_func
  90              		.fpu fpv4-sp-d16
  92              	prv_readAttributes:
  93              	.LFB12:
  94              		.file 2 "C:/Users/dtjld/Desktop/AIoT_software/LiteOS_Lab_overseas/LiteOS_Lab/iot_link/network/lwm2
   1:C:/Users/dtjld/Desktop/AIoT_software/LiteOS_Lab_overseas/LiteOS_Lab/iot_link/network/lwm2m/wakaama_lwm2m/core\management.c **** /*----------------------------------------------------------------------------
   2:C:/Users/dtjld/Desktop/AIoT_software/LiteOS_Lab_overseas/LiteOS_Lab/iot_link/network/lwm2m/wakaama_lwm2m/core\management.c ****  * Copyright (c) <2016-2018>, <Huawei Technologies Co., Ltd>
   3:C:/Users/dtjld/Desktop/AIoT_software/LiteOS_Lab_overseas/LiteOS_Lab/iot_link/network/lwm2m/wakaama_lwm2m/core\management.c ****  * All rights reserved.
   4:C:/Users/dtjld/Desktop/AIoT_software/LiteOS_Lab_overseas/LiteOS_Lab/iot_link/network/lwm2m/wakaama_lwm2m/core\management.c ****  * Redistribution and use in source and binary forms, with or without modification,
   5:C:/Users/dtjld/Desktop/AIoT_software/LiteOS_Lab_overseas/LiteOS_Lab/iot_link/network/lwm2m/wakaama_lwm2m/core\management.c ****  * are permitted provided that the following conditions are met:
   6:C:/Users/dtjld/Desktop/AIoT_software/LiteOS_Lab_overseas/LiteOS_Lab/iot_link/network/lwm2m/wakaama_lwm2m/core\management.c ****  * 1. Redistributions of source code must retain the above copyright notice, this list of
   7:C:/Users/dtjld/Desktop/AIoT_software/LiteOS_Lab_overseas/LiteOS_Lab/iot_link/network/lwm2m/wakaama_lwm2m/core\management.c ****  * conditions and the following disclaimer.
   8:C:/Users/dtjld/Desktop/AIoT_software/LiteOS_Lab_overseas/LiteOS_Lab/iot_link/network/lwm2m/wakaama_lwm2m/core\management.c ****  * 2. Redistributions in binary form must reproduce the above copyright notice, this list
   9:C:/Users/dtjld/Desktop/AIoT_software/LiteOS_Lab_overseas/LiteOS_Lab/iot_link/network/lwm2m/wakaama_lwm2m/core\management.c ****  * of conditions and the following disclaimer in the documentation and/or other materials
  10:C:/Users/dtjld/Desktop/AIoT_software/LiteOS_Lab_overseas/LiteOS_Lab/iot_link/network/lwm2m/wakaama_lwm2m/core\management.c ****  * provided with the distribution.
  11:C:/Users/dtjld/Desktop/AIoT_software/LiteOS_Lab_overseas/LiteOS_Lab/iot_link/network/lwm2m/wakaama_lwm2m/core\management.c ****  * 3. Neither the name of the copyright holder nor the names of its contributors may be used
  12:C:/Users/dtjld/Desktop/AIoT_software/LiteOS_Lab_overseas/LiteOS_Lab/iot_link/network/lwm2m/wakaama_lwm2m/core\management.c ****  * to endorse or promote products derived from this software without specific prior written
  13:C:/Users/dtjld/Desktop/AIoT_software/LiteOS_Lab_overseas/LiteOS_Lab/iot_link/network/lwm2m/wakaama_lwm2m/core\management.c ****  * permission.
  14:C:/Users/dtjld/Desktop/AIoT_software/LiteOS_Lab_overseas/LiteOS_Lab/iot_link/network/lwm2m/wakaama_lwm2m/core\management.c ****  * THIS SOFTWARE IS PROVIDED BY THE COPYRIGHT HOLDERS AND CONTRIBUTORS
  15:C:/Users/dtjld/Desktop/AIoT_software/LiteOS_Lab_overseas/LiteOS_Lab/iot_link/network/lwm2m/wakaama_lwm2m/core\management.c ****  * "AS IS" AND ANY EXPRESS OR IMPLIED WARRANTIES, INCLUDING, BUT NOT LIMITED TO,
  16:C:/Users/dtjld/Desktop/AIoT_software/LiteOS_Lab_overseas/LiteOS_Lab/iot_link/network/lwm2m/wakaama_lwm2m/core\management.c ****  * THE IMPLIED WARRANTIES OF MERCHANTABILITY AND FITNESS FOR A PARTICULAR
  17:C:/Users/dtjld/Desktop/AIoT_software/LiteOS_Lab_overseas/LiteOS_Lab/iot_link/network/lwm2m/wakaama_lwm2m/core\management.c ****  * PURPOSE ARE DISCLAIMED. IN NO EVENT SHALL THE COPYRIGHT HOLDER OR
  18:C:/Users/dtjld/Desktop/AIoT_software/LiteOS_Lab_overseas/LiteOS_Lab/iot_link/network/lwm2m/wakaama_lwm2m/core\management.c ****  * CONTRIBUTORS BE LIABLE FOR ANY DIRECT, INDIRECT, INCIDENTAL, SPECIAL,
  19:C:/Users/dtjld/Desktop/AIoT_software/LiteOS_Lab_overseas/LiteOS_Lab/iot_link/network/lwm2m/wakaama_lwm2m/core\management.c ****  * EXEMPLARY, OR CONSEQUENTIAL DAMAGES (INCLUDING, BUT NOT LIMITED TO,
  20:C:/Users/dtjld/Desktop/AIoT_software/LiteOS_Lab_overseas/LiteOS_Lab/iot_link/network/lwm2m/wakaama_lwm2m/core\management.c ****  * PROCUREMENT OF SUBSTITUTE GOODS OR SERVICES; LOSS OF USE, DATA, OR PROFITS;
  21:C:/Users/dtjld/Desktop/AIoT_software/LiteOS_Lab_overseas/LiteOS_Lab/iot_link/network/lwm2m/wakaama_lwm2m/core\management.c ****  * OR BUSINESS INTERRUPTION) HOWEVER CAUSED AND ON ANY THEORY OF LIABILITY,
  22:C:/Users/dtjld/Desktop/AIoT_software/LiteOS_Lab_overseas/LiteOS_Lab/iot_link/network/lwm2m/wakaama_lwm2m/core\management.c ****  * WHETHER IN CONTRACT, STRICT LIABILITY, OR TORT (INCLUDING NEGLIGENCE OR
  23:C:/Users/dtjld/Desktop/AIoT_software/LiteOS_Lab_overseas/LiteOS_Lab/iot_link/network/lwm2m/wakaama_lwm2m/core\management.c ****  * OTHERWISE) ARISING IN ANY WAY OUT OF THE USE OF THIS SOFTWARE, EVEN IF
  24:C:/Users/dtjld/Desktop/AIoT_software/LiteOS_Lab_overseas/LiteOS_Lab/iot_link/network/lwm2m/wakaama_lwm2m/core\management.c ****  * ADVISED OF THE POSSIBILITY OF SUCH DAMAGE.
  25:C:/Users/dtjld/Desktop/AIoT_software/LiteOS_Lab_overseas/LiteOS_Lab/iot_link/network/lwm2m/wakaama_lwm2m/core\management.c ****  *---------------------------------------------------------------------------*/
  26:C:/Users/dtjld/Desktop/AIoT_software/LiteOS_Lab_overseas/LiteOS_Lab/iot_link/network/lwm2m/wakaama_lwm2m/core\management.c **** /*----------------------------------------------------------------------------
  27:C:/Users/dtjld/Desktop/AIoT_software/LiteOS_Lab_overseas/LiteOS_Lab/iot_link/network/lwm2m/wakaama_lwm2m/core\management.c ****  * Notice of Export Control Law
  28:C:/Users/dtjld/Desktop/AIoT_software/LiteOS_Lab_overseas/LiteOS_Lab/iot_link/network/lwm2m/wakaama_lwm2m/core\management.c ****  * ===============================================
  29:C:/Users/dtjld/Desktop/AIoT_software/LiteOS_Lab_overseas/LiteOS_Lab/iot_link/network/lwm2m/wakaama_lwm2m/core\management.c ****  * Huawei LiteOS may be subject to applicable export control laws and regulations, which might
  30:C:/Users/dtjld/Desktop/AIoT_software/LiteOS_Lab_overseas/LiteOS_Lab/iot_link/network/lwm2m/wakaama_lwm2m/core\management.c ****  * include those applicable to Huawei LiteOS of U.S. and the country in which you are located.
  31:C:/Users/dtjld/Desktop/AIoT_software/LiteOS_Lab_overseas/LiteOS_Lab/iot_link/network/lwm2m/wakaama_lwm2m/core\management.c ****  * Import, export and usage of Huawei LiteOS in any manner by you shall be in compliance with such
  32:C:/Users/dtjld/Desktop/AIoT_software/LiteOS_Lab_overseas/LiteOS_Lab/iot_link/network/lwm2m/wakaama_lwm2m/core\management.c ****  * applicable export control laws and regulations.
  33:C:/Users/dtjld/Desktop/AIoT_software/LiteOS_Lab_overseas/LiteOS_Lab/iot_link/network/lwm2m/wakaama_lwm2m/core\management.c ****  *---------------------------------------------------------------------------*/
  34:C:/Users/dtjld/Desktop/AIoT_software/LiteOS_Lab_overseas/LiteOS_Lab/iot_link/network/lwm2m/wakaama_lwm2m/core\management.c **** 
  35:C:/Users/dtjld/Desktop/AIoT_software/LiteOS_Lab_overseas/LiteOS_Lab/iot_link/network/lwm2m/wakaama_lwm2m/core\management.c **** /*******************************************************************************
ARM GAS  C:\Users\dtjld\AppData\Local\Temp\ccGRo6oh.s 			page 10


  36:C:/Users/dtjld/Desktop/AIoT_software/LiteOS_Lab_overseas/LiteOS_Lab/iot_link/network/lwm2m/wakaama_lwm2m/core\management.c ****  *
  37:C:/Users/dtjld/Desktop/AIoT_software/LiteOS_Lab_overseas/LiteOS_Lab/iot_link/network/lwm2m/wakaama_lwm2m/core\management.c ****  * Copyright (c) 2013, 2014 Intel Corporation and others.
  38:C:/Users/dtjld/Desktop/AIoT_software/LiteOS_Lab_overseas/LiteOS_Lab/iot_link/network/lwm2m/wakaama_lwm2m/core\management.c ****  * All rights reserved. This program and the accompanying materials
  39:C:/Users/dtjld/Desktop/AIoT_software/LiteOS_Lab_overseas/LiteOS_Lab/iot_link/network/lwm2m/wakaama_lwm2m/core\management.c ****  * are made available under the terms of the Eclipse Public License v1.0
  40:C:/Users/dtjld/Desktop/AIoT_software/LiteOS_Lab_overseas/LiteOS_Lab/iot_link/network/lwm2m/wakaama_lwm2m/core\management.c ****  * and Eclipse Distribution License v1.0 which accompany this distribution.
  41:C:/Users/dtjld/Desktop/AIoT_software/LiteOS_Lab_overseas/LiteOS_Lab/iot_link/network/lwm2m/wakaama_lwm2m/core\management.c ****  *
  42:C:/Users/dtjld/Desktop/AIoT_software/LiteOS_Lab_overseas/LiteOS_Lab/iot_link/network/lwm2m/wakaama_lwm2m/core\management.c ****  * The Eclipse Public License is available at
  43:C:/Users/dtjld/Desktop/AIoT_software/LiteOS_Lab_overseas/LiteOS_Lab/iot_link/network/lwm2m/wakaama_lwm2m/core\management.c ****  *    http://www.eclipse.org/legal/epl-v10.html
  44:C:/Users/dtjld/Desktop/AIoT_software/LiteOS_Lab_overseas/LiteOS_Lab/iot_link/network/lwm2m/wakaama_lwm2m/core\management.c ****  * The Eclipse Distribution License is available at
  45:C:/Users/dtjld/Desktop/AIoT_software/LiteOS_Lab_overseas/LiteOS_Lab/iot_link/network/lwm2m/wakaama_lwm2m/core\management.c ****  *    http://www.eclipse.org/org/documents/edl-v10.php.
  46:C:/Users/dtjld/Desktop/AIoT_software/LiteOS_Lab_overseas/LiteOS_Lab/iot_link/network/lwm2m/wakaama_lwm2m/core\management.c ****  *
  47:C:/Users/dtjld/Desktop/AIoT_software/LiteOS_Lab_overseas/LiteOS_Lab/iot_link/network/lwm2m/wakaama_lwm2m/core\management.c ****  * Contributors:
  48:C:/Users/dtjld/Desktop/AIoT_software/LiteOS_Lab_overseas/LiteOS_Lab/iot_link/network/lwm2m/wakaama_lwm2m/core\management.c ****  *    David Navarro, Intel Corporation - initial API and implementation
  49:C:/Users/dtjld/Desktop/AIoT_software/LiteOS_Lab_overseas/LiteOS_Lab/iot_link/network/lwm2m/wakaama_lwm2m/core\management.c ****  *    domedambrosio - Please refer to git log
  50:C:/Users/dtjld/Desktop/AIoT_software/LiteOS_Lab_overseas/LiteOS_Lab/iot_link/network/lwm2m/wakaama_lwm2m/core\management.c ****  *    Toby Jaffey - Please refer to git log
  51:C:/Users/dtjld/Desktop/AIoT_software/LiteOS_Lab_overseas/LiteOS_Lab/iot_link/network/lwm2m/wakaama_lwm2m/core\management.c ****  *    Bosch Software Innovations GmbH - Please refer to git log
  52:C:/Users/dtjld/Desktop/AIoT_software/LiteOS_Lab_overseas/LiteOS_Lab/iot_link/network/lwm2m/wakaama_lwm2m/core\management.c ****  *    Pascal Rieux - Please refer to git log
  53:C:/Users/dtjld/Desktop/AIoT_software/LiteOS_Lab_overseas/LiteOS_Lab/iot_link/network/lwm2m/wakaama_lwm2m/core\management.c ****  *
  54:C:/Users/dtjld/Desktop/AIoT_software/LiteOS_Lab_overseas/LiteOS_Lab/iot_link/network/lwm2m/wakaama_lwm2m/core\management.c ****  *******************************************************************************/
  55:C:/Users/dtjld/Desktop/AIoT_software/LiteOS_Lab_overseas/LiteOS_Lab/iot_link/network/lwm2m/wakaama_lwm2m/core\management.c **** /*
  56:C:/Users/dtjld/Desktop/AIoT_software/LiteOS_Lab_overseas/LiteOS_Lab/iot_link/network/lwm2m/wakaama_lwm2m/core\management.c ****  Copyright (c) 2013, 2014 Intel Corporation
  57:C:/Users/dtjld/Desktop/AIoT_software/LiteOS_Lab_overseas/LiteOS_Lab/iot_link/network/lwm2m/wakaama_lwm2m/core\management.c **** 
  58:C:/Users/dtjld/Desktop/AIoT_software/LiteOS_Lab_overseas/LiteOS_Lab/iot_link/network/lwm2m/wakaama_lwm2m/core\management.c ****  Redistribution and use in source and binary forms, with or without modification,
  59:C:/Users/dtjld/Desktop/AIoT_software/LiteOS_Lab_overseas/LiteOS_Lab/iot_link/network/lwm2m/wakaama_lwm2m/core\management.c ****  are permitted provided that the following conditions are met:
  60:C:/Users/dtjld/Desktop/AIoT_software/LiteOS_Lab_overseas/LiteOS_Lab/iot_link/network/lwm2m/wakaama_lwm2m/core\management.c **** 
  61:C:/Users/dtjld/Desktop/AIoT_software/LiteOS_Lab_overseas/LiteOS_Lab/iot_link/network/lwm2m/wakaama_lwm2m/core\management.c ****      * Redistributions of source code must retain the above copyright notice,
  62:C:/Users/dtjld/Desktop/AIoT_software/LiteOS_Lab_overseas/LiteOS_Lab/iot_link/network/lwm2m/wakaama_lwm2m/core\management.c ****        this list of conditions and the following disclaimer.
  63:C:/Users/dtjld/Desktop/AIoT_software/LiteOS_Lab_overseas/LiteOS_Lab/iot_link/network/lwm2m/wakaama_lwm2m/core\management.c ****      * Redistributions in binary form must reproduce the above copyright notice,
  64:C:/Users/dtjld/Desktop/AIoT_software/LiteOS_Lab_overseas/LiteOS_Lab/iot_link/network/lwm2m/wakaama_lwm2m/core\management.c ****        this list of conditions and the following disclaimer in the documentation
  65:C:/Users/dtjld/Desktop/AIoT_software/LiteOS_Lab_overseas/LiteOS_Lab/iot_link/network/lwm2m/wakaama_lwm2m/core\management.c ****        and/or other materials provided with the distribution.
  66:C:/Users/dtjld/Desktop/AIoT_software/LiteOS_Lab_overseas/LiteOS_Lab/iot_link/network/lwm2m/wakaama_lwm2m/core\management.c ****      * Neither the name of Intel Corporation nor the names of its contributors
  67:C:/Users/dtjld/Desktop/AIoT_software/LiteOS_Lab_overseas/LiteOS_Lab/iot_link/network/lwm2m/wakaama_lwm2m/core\management.c ****        may be used to endorse or promote products derived from this software
  68:C:/Users/dtjld/Desktop/AIoT_software/LiteOS_Lab_overseas/LiteOS_Lab/iot_link/network/lwm2m/wakaama_lwm2m/core\management.c ****        without specific prior written permission.
  69:C:/Users/dtjld/Desktop/AIoT_software/LiteOS_Lab_overseas/LiteOS_Lab/iot_link/network/lwm2m/wakaama_lwm2m/core\management.c **** 
  70:C:/Users/dtjld/Desktop/AIoT_software/LiteOS_Lab_overseas/LiteOS_Lab/iot_link/network/lwm2m/wakaama_lwm2m/core\management.c ****  THIS SOFTWARE IS PROVIDED BY THE COPYRIGHT HOLDERS AND CONTRIBUTORS "AS IS" AND
  71:C:/Users/dtjld/Desktop/AIoT_software/LiteOS_Lab_overseas/LiteOS_Lab/iot_link/network/lwm2m/wakaama_lwm2m/core\management.c ****  ANY EXPRESS OR IMPLIED WARRANTIES, INCLUDING, BUT NOT LIMITED TO, THE IMPLIED
  72:C:/Users/dtjld/Desktop/AIoT_software/LiteOS_Lab_overseas/LiteOS_Lab/iot_link/network/lwm2m/wakaama_lwm2m/core\management.c ****  WARRANTIES OF MERCHANTABILITY AND FITNESS FOR A PARTICULAR PURPOSE ARE DISCLAIMED.
  73:C:/Users/dtjld/Desktop/AIoT_software/LiteOS_Lab_overseas/LiteOS_Lab/iot_link/network/lwm2m/wakaama_lwm2m/core\management.c ****  IN NO EVENT SHALL THE COPYRIGHT OWNER OR CONTRIBUTORS BE LIABLE FOR ANY DIRECT,
  74:C:/Users/dtjld/Desktop/AIoT_software/LiteOS_Lab_overseas/LiteOS_Lab/iot_link/network/lwm2m/wakaama_lwm2m/core\management.c ****  INDIRECT, INCIDENTAL, SPECIAL, EXEMPLARY, OR CONSEQUENTIAL DAMAGES (INCLUDING,
  75:C:/Users/dtjld/Desktop/AIoT_software/LiteOS_Lab_overseas/LiteOS_Lab/iot_link/network/lwm2m/wakaama_lwm2m/core\management.c ****  BUT NOT LIMITED TO, PROCUREMENT OF SUBSTITUTE GOODS OR SERVICES; LOSS OF USE,
  76:C:/Users/dtjld/Desktop/AIoT_software/LiteOS_Lab_overseas/LiteOS_Lab/iot_link/network/lwm2m/wakaama_lwm2m/core\management.c ****  DATA, OR PROFITS; OR BUSINESS INTERRUPTION) HOWEVER CAUSED AND ON ANY THEORY OF
  77:C:/Users/dtjld/Desktop/AIoT_software/LiteOS_Lab_overseas/LiteOS_Lab/iot_link/network/lwm2m/wakaama_lwm2m/core\management.c ****  LIABILITY, WHETHER IN CONTRACT, STRICT LIABILITY, OR TORT (INCLUDING NEGLIGENCE OR
  78:C:/Users/dtjld/Desktop/AIoT_software/LiteOS_Lab_overseas/LiteOS_Lab/iot_link/network/lwm2m/wakaama_lwm2m/core\management.c ****  OTHERWISE) ARISING IN ANY WAY OUT OF THE USE OF THIS SOFTWARE, EVEN IF ADVISED OF
  79:C:/Users/dtjld/Desktop/AIoT_software/LiteOS_Lab_overseas/LiteOS_Lab/iot_link/network/lwm2m/wakaama_lwm2m/core\management.c ****  THE POSSIBILITY OF SUCH DAMAGE.
  80:C:/Users/dtjld/Desktop/AIoT_software/LiteOS_Lab_overseas/LiteOS_Lab/iot_link/network/lwm2m/wakaama_lwm2m/core\management.c **** 
  81:C:/Users/dtjld/Desktop/AIoT_software/LiteOS_Lab_overseas/LiteOS_Lab/iot_link/network/lwm2m/wakaama_lwm2m/core\management.c ****  David Navarro <david.navarro@intel.com>
  82:C:/Users/dtjld/Desktop/AIoT_software/LiteOS_Lab_overseas/LiteOS_Lab/iot_link/network/lwm2m/wakaama_lwm2m/core\management.c **** 
  83:C:/Users/dtjld/Desktop/AIoT_software/LiteOS_Lab_overseas/LiteOS_Lab/iot_link/network/lwm2m/wakaama_lwm2m/core\management.c **** */
  84:C:/Users/dtjld/Desktop/AIoT_software/LiteOS_Lab_overseas/LiteOS_Lab/iot_link/network/lwm2m/wakaama_lwm2m/core\management.c **** 
  85:C:/Users/dtjld/Desktop/AIoT_software/LiteOS_Lab_overseas/LiteOS_Lab/iot_link/network/lwm2m/wakaama_lwm2m/core\management.c **** #include "internals.h"
  86:C:/Users/dtjld/Desktop/AIoT_software/LiteOS_Lab_overseas/LiteOS_Lab/iot_link/network/lwm2m/wakaama_lwm2m/core\management.c **** #include "object_comm.h"
  87:C:/Users/dtjld/Desktop/AIoT_software/LiteOS_Lab_overseas/LiteOS_Lab/iot_link/network/lwm2m/wakaama_lwm2m/core\management.c **** #include <stdio.h>
  88:C:/Users/dtjld/Desktop/AIoT_software/LiteOS_Lab_overseas/LiteOS_Lab/iot_link/network/lwm2m/wakaama_lwm2m/core\management.c **** 
  89:C:/Users/dtjld/Desktop/AIoT_software/LiteOS_Lab_overseas/LiteOS_Lab/iot_link/network/lwm2m/wakaama_lwm2m/core\management.c **** 
  90:C:/Users/dtjld/Desktop/AIoT_software/LiteOS_Lab_overseas/LiteOS_Lab/iot_link/network/lwm2m/wakaama_lwm2m/core\management.c **** #ifdef LWM2M_CLIENT_MODE
  91:C:/Users/dtjld/Desktop/AIoT_software/LiteOS_Lab_overseas/LiteOS_Lab/iot_link/network/lwm2m/wakaama_lwm2m/core\management.c **** static int prv_readAttributes(multi_option_t *query,
  92:C:/Users/dtjld/Desktop/AIoT_software/LiteOS_Lab_overseas/LiteOS_Lab/iot_link/network/lwm2m/wakaama_lwm2m/core\management.c ****                               lwm2m_attributes_t *attrP)
ARM GAS  C:\Users\dtjld\AppData\Local\Temp\ccGRo6oh.s 			page 11


  93:C:/Users/dtjld/Desktop/AIoT_software/LiteOS_Lab_overseas/LiteOS_Lab/iot_link/network/lwm2m/wakaama_lwm2m/core\management.c **** {
  95              		.loc 2 93 0
  96              		.cfi_startproc
  97              		@ args = 0, pretend = 0, frame = 24
  98              		@ frame_needed = 1, uses_anonymous_args = 0
  99 0000 90B5     		push	{r4, r7, lr}
 100              	.LCFI6:
 101              		.cfi_def_cfa_offset 12
 102              		.cfi_offset 4, -12
 103              		.cfi_offset 7, -8
 104              		.cfi_offset 14, -4
 105 0002 87B0     		sub	sp, sp, #28
 106              	.LCFI7:
 107              		.cfi_def_cfa_offset 40
 108 0004 00AF     		add	r7, sp, #0
 109              	.LCFI8:
 110              		.cfi_def_cfa_register 7
 111 0006 7860     		str	r0, [r7, #4]
 112 0008 3960     		str	r1, [r7]
  94:C:/Users/dtjld/Desktop/AIoT_software/LiteOS_Lab_overseas/LiteOS_Lab/iot_link/network/lwm2m/wakaama_lwm2m/core\management.c ****     int64_t intValue;
  95:C:/Users/dtjld/Desktop/AIoT_software/LiteOS_Lab_overseas/LiteOS_Lab/iot_link/network/lwm2m/wakaama_lwm2m/core\management.c ****     double floatValue;
  96:C:/Users/dtjld/Desktop/AIoT_software/LiteOS_Lab_overseas/LiteOS_Lab/iot_link/network/lwm2m/wakaama_lwm2m/core\management.c **** 
  97:C:/Users/dtjld/Desktop/AIoT_software/LiteOS_Lab_overseas/LiteOS_Lab/iot_link/network/lwm2m/wakaama_lwm2m/core\management.c ****     memset(attrP, 0, sizeof(lwm2m_attributes_t));
 113              		.loc 2 97 0
 114 000a 2822     		movs	r2, #40
 115 000c 0021     		movs	r1, #0
 116 000e 3868     		ldr	r0, [r7]
 117 0010 FFF7FEFF 		bl	memset
  98:C:/Users/dtjld/Desktop/AIoT_software/LiteOS_Lab_overseas/LiteOS_Lab/iot_link/network/lwm2m/wakaama_lwm2m/core\management.c **** 
  99:C:/Users/dtjld/Desktop/AIoT_software/LiteOS_Lab_overseas/LiteOS_Lab/iot_link/network/lwm2m/wakaama_lwm2m/core\management.c ****     while (query != NULL)
 118              		.loc 2 99 0
 119 0014 17E2     		b	.L4
 120              	.L46:
 100:C:/Users/dtjld/Desktop/AIoT_software/LiteOS_Lab_overseas/LiteOS_Lab/iot_link/network/lwm2m/wakaama_lwm2m/core\management.c ****     {
 101:C:/Users/dtjld/Desktop/AIoT_software/LiteOS_Lab_overseas/LiteOS_Lab/iot_link/network/lwm2m/wakaama_lwm2m/core\management.c ****         if (lwm2m_strncmp((char *)query->data, ATTR_MIN_PERIOD_STR, ATTR_MIN_PERIOD_LEN) == 0)
 121              		.loc 2 101 0
 122 0016 7B68     		ldr	r3, [r7, #4]
 123 0018 9B68     		ldr	r3, [r3, #8]
 124 001a 0522     		movs	r2, #5
 125 001c A549     		ldr	r1, .L50
 126 001e 1846     		mov	r0, r3
 127 0020 FFF7FEFF 		bl	lwm2m_strncmp
 128 0024 0346     		mov	r3, r0
 129 0026 002B     		cmp	r3, #0
 130 0028 3AD1     		bne	.L5
 102:C:/Users/dtjld/Desktop/AIoT_software/LiteOS_Lab_overseas/LiteOS_Lab/iot_link/network/lwm2m/wakaama_lwm2m/core\management.c ****         {
 103:C:/Users/dtjld/Desktop/AIoT_software/LiteOS_Lab_overseas/LiteOS_Lab/iot_link/network/lwm2m/wakaama_lwm2m/core\management.c ****             if (0 != ((attrP->toSet | attrP->toClear) & LWM2M_ATTR_FLAG_MIN_PERIOD)) return -1;
 131              		.loc 2 103 0
 132 002a 3B68     		ldr	r3, [r7]
 133 002c 1A78     		ldrb	r2, [r3]	@ zero_extendqisi2
 134 002e 3B68     		ldr	r3, [r7]
 135 0030 5B78     		ldrb	r3, [r3, #1]	@ zero_extendqisi2
 136 0032 1343     		orrs	r3, r3, r2
 137 0034 DBB2     		uxtb	r3, r3
 138 0036 03F00103 		and	r3, r3, #1
 139 003a 002B     		cmp	r3, #0
 140 003c 02D0     		beq	.L6
ARM GAS  C:\Users\dtjld\AppData\Local\Temp\ccGRo6oh.s 			page 12


 141              		.loc 2 103 0 is_stmt 0 discriminator 1
 142 003e 4FF0FF33 		mov	r3, #-1
 143 0042 05E2     		b	.L47
 144              	.L6:
 104:C:/Users/dtjld/Desktop/AIoT_software/LiteOS_Lab_overseas/LiteOS_Lab/iot_link/network/lwm2m/wakaama_lwm2m/core\management.c ****             if (query->len == ATTR_MIN_PERIOD_LEN) return -1;
 145              		.loc 2 104 0 is_stmt 1
 146 0044 7B68     		ldr	r3, [r7, #4]
 147 0046 5B79     		ldrb	r3, [r3, #5]	@ zero_extendqisi2
 148 0048 052B     		cmp	r3, #5
 149 004a 02D1     		bne	.L8
 150              		.loc 2 104 0 is_stmt 0 discriminator 1
 151 004c 4FF0FF33 		mov	r3, #-1
 152 0050 FEE1     		b	.L47
 153              	.L8:
 105:C:/Users/dtjld/Desktop/AIoT_software/LiteOS_Lab_overseas/LiteOS_Lab/iot_link/network/lwm2m/wakaama_lwm2m/core\management.c **** 
 106:C:/Users/dtjld/Desktop/AIoT_software/LiteOS_Lab_overseas/LiteOS_Lab/iot_link/network/lwm2m/wakaama_lwm2m/core\management.c ****             if (1 != utils_textToInt(query->data + ATTR_MIN_PERIOD_LEN, query->len - ATTR_MIN_PERIO
 154              		.loc 2 106 0 is_stmt 1
 155 0052 7B68     		ldr	r3, [r7, #4]
 156 0054 9B68     		ldr	r3, [r3, #8]
 157 0056 581D     		adds	r0, r3, #5
 158 0058 7B68     		ldr	r3, [r7, #4]
 159 005a 5B79     		ldrb	r3, [r3, #5]	@ zero_extendqisi2
 160 005c 053B     		subs	r3, r3, #5
 161 005e 07F11002 		add	r2, r7, #16
 162 0062 1946     		mov	r1, r3
 163 0064 FFF7FEFF 		bl	utils_textToInt
 164 0068 0346     		mov	r3, r0
 165 006a 012B     		cmp	r3, #1
 166 006c 02D0     		beq	.L9
 167              		.loc 2 106 0 is_stmt 0 discriminator 1
 168 006e 4FF0FF33 		mov	r3, #-1
 169 0072 EDE1     		b	.L47
 170              	.L9:
 107:C:/Users/dtjld/Desktop/AIoT_software/LiteOS_Lab_overseas/LiteOS_Lab/iot_link/network/lwm2m/wakaama_lwm2m/core\management.c ****             if (intValue < 0) return -1;
 171              		.loc 2 107 0 is_stmt 1
 172 0074 D7E90434 		ldrd	r3, [r7, #16]
 173 0078 002B     		cmp	r3, #0
 174 007a 74F10003 		sbcs	r3, r4, #0
 175 007e 02DA     		bge	.L10
 176              		.loc 2 107 0 is_stmt 0 discriminator 1
 177 0080 4FF0FF33 		mov	r3, #-1
 178 0084 E4E1     		b	.L47
 179              	.L10:
 108:C:/Users/dtjld/Desktop/AIoT_software/LiteOS_Lab_overseas/LiteOS_Lab/iot_link/network/lwm2m/wakaama_lwm2m/core\management.c **** 
 109:C:/Users/dtjld/Desktop/AIoT_software/LiteOS_Lab_overseas/LiteOS_Lab/iot_link/network/lwm2m/wakaama_lwm2m/core\management.c ****             attrP->toSet |= LWM2M_ATTR_FLAG_MIN_PERIOD;
 180              		.loc 2 109 0 is_stmt 1
 181 0086 3B68     		ldr	r3, [r7]
 182 0088 1B78     		ldrb	r3, [r3]	@ zero_extendqisi2
 183 008a 43F00103 		orr	r3, r3, #1
 184 008e DAB2     		uxtb	r2, r3
 185 0090 3B68     		ldr	r3, [r7]
 186 0092 1A70     		strb	r2, [r3]
 110:C:/Users/dtjld/Desktop/AIoT_software/LiteOS_Lab_overseas/LiteOS_Lab/iot_link/network/lwm2m/wakaama_lwm2m/core\management.c ****             attrP->minPeriod = intValue;
 187              		.loc 2 110 0
 188 0094 D7E90434 		ldrd	r3, [r7, #16]
 189 0098 1A46     		mov	r2, r3
 190 009a 3B68     		ldr	r3, [r7]
ARM GAS  C:\Users\dtjld\AppData\Local\Temp\ccGRo6oh.s 			page 13


 191 009c 5A60     		str	r2, [r3, #4]
 192 009e CFE1     		b	.L11
 193              	.L5:
 111:C:/Users/dtjld/Desktop/AIoT_software/LiteOS_Lab_overseas/LiteOS_Lab/iot_link/network/lwm2m/wakaama_lwm2m/core\management.c ****         }
 112:C:/Users/dtjld/Desktop/AIoT_software/LiteOS_Lab_overseas/LiteOS_Lab/iot_link/network/lwm2m/wakaama_lwm2m/core\management.c ****         else if (lwm2m_strncmp((char *)query->data, ATTR_MIN_PERIOD_STR, ATTR_MIN_PERIOD_LEN - 1) =
 194              		.loc 2 112 0
 195 00a0 7B68     		ldr	r3, [r7, #4]
 196 00a2 9B68     		ldr	r3, [r3, #8]
 197 00a4 0422     		movs	r2, #4
 198 00a6 8349     		ldr	r1, .L50
 199 00a8 1846     		mov	r0, r3
 200 00aa FFF7FEFF 		bl	lwm2m_strncmp
 201 00ae 0346     		mov	r3, r0
 202 00b0 002B     		cmp	r3, #0
 203 00b2 1BD1     		bne	.L12
 113:C:/Users/dtjld/Desktop/AIoT_software/LiteOS_Lab_overseas/LiteOS_Lab/iot_link/network/lwm2m/wakaama_lwm2m/core\management.c ****         {
 114:C:/Users/dtjld/Desktop/AIoT_software/LiteOS_Lab_overseas/LiteOS_Lab/iot_link/network/lwm2m/wakaama_lwm2m/core\management.c ****             if (0 != ((attrP->toSet | attrP->toClear) & LWM2M_ATTR_FLAG_MIN_PERIOD)) return -1;
 204              		.loc 2 114 0
 205 00b4 3B68     		ldr	r3, [r7]
 206 00b6 1A78     		ldrb	r2, [r3]	@ zero_extendqisi2
 207 00b8 3B68     		ldr	r3, [r7]
 208 00ba 5B78     		ldrb	r3, [r3, #1]	@ zero_extendqisi2
 209 00bc 1343     		orrs	r3, r3, r2
 210 00be DBB2     		uxtb	r3, r3
 211 00c0 03F00103 		and	r3, r3, #1
 212 00c4 002B     		cmp	r3, #0
 213 00c6 02D0     		beq	.L13
 214              		.loc 2 114 0 is_stmt 0 discriminator 1
 215 00c8 4FF0FF33 		mov	r3, #-1
 216 00cc C0E1     		b	.L47
 217              	.L13:
 115:C:/Users/dtjld/Desktop/AIoT_software/LiteOS_Lab_overseas/LiteOS_Lab/iot_link/network/lwm2m/wakaama_lwm2m/core\management.c ****             if (query->len != ATTR_MIN_PERIOD_LEN - 1) return -1;
 218              		.loc 2 115 0 is_stmt 1
 219 00ce 7B68     		ldr	r3, [r7, #4]
 220 00d0 5B79     		ldrb	r3, [r3, #5]	@ zero_extendqisi2
 221 00d2 042B     		cmp	r3, #4
 222 00d4 02D0     		beq	.L14
 223              		.loc 2 115 0 is_stmt 0 discriminator 1
 224 00d6 4FF0FF33 		mov	r3, #-1
 225 00da B9E1     		b	.L47
 226              	.L14:
 116:C:/Users/dtjld/Desktop/AIoT_software/LiteOS_Lab_overseas/LiteOS_Lab/iot_link/network/lwm2m/wakaama_lwm2m/core\management.c **** 
 117:C:/Users/dtjld/Desktop/AIoT_software/LiteOS_Lab_overseas/LiteOS_Lab/iot_link/network/lwm2m/wakaama_lwm2m/core\management.c ****             attrP->toClear |= LWM2M_ATTR_FLAG_MIN_PERIOD;
 227              		.loc 2 117 0 is_stmt 1
 228 00dc 3B68     		ldr	r3, [r7]
 229 00de 5B78     		ldrb	r3, [r3, #1]	@ zero_extendqisi2
 230 00e0 43F00103 		orr	r3, r3, #1
 231 00e4 DAB2     		uxtb	r2, r3
 232 00e6 3B68     		ldr	r3, [r7]
 233 00e8 5A70     		strb	r2, [r3, #1]
 234 00ea A9E1     		b	.L11
 235              	.L12:
 118:C:/Users/dtjld/Desktop/AIoT_software/LiteOS_Lab_overseas/LiteOS_Lab/iot_link/network/lwm2m/wakaama_lwm2m/core\management.c ****         }
 119:C:/Users/dtjld/Desktop/AIoT_software/LiteOS_Lab_overseas/LiteOS_Lab/iot_link/network/lwm2m/wakaama_lwm2m/core\management.c ****         else if (lwm2m_strncmp((char *)query->data, ATTR_MAX_PERIOD_STR, ATTR_MAX_PERIOD_LEN) == 0)
 236              		.loc 2 119 0
 237 00ec 7B68     		ldr	r3, [r7, #4]
 238 00ee 9B68     		ldr	r3, [r3, #8]
ARM GAS  C:\Users\dtjld\AppData\Local\Temp\ccGRo6oh.s 			page 14


 239 00f0 0522     		movs	r2, #5
 240 00f2 7149     		ldr	r1, .L50+4
 241 00f4 1846     		mov	r0, r3
 242 00f6 FFF7FEFF 		bl	lwm2m_strncmp
 243 00fa 0346     		mov	r3, r0
 244 00fc 002B     		cmp	r3, #0
 245 00fe 3AD1     		bne	.L15
 120:C:/Users/dtjld/Desktop/AIoT_software/LiteOS_Lab_overseas/LiteOS_Lab/iot_link/network/lwm2m/wakaama_lwm2m/core\management.c ****         {
 121:C:/Users/dtjld/Desktop/AIoT_software/LiteOS_Lab_overseas/LiteOS_Lab/iot_link/network/lwm2m/wakaama_lwm2m/core\management.c ****             if (0 != ((attrP->toSet | attrP->toClear) & LWM2M_ATTR_FLAG_MAX_PERIOD)) return -1;
 246              		.loc 2 121 0
 247 0100 3B68     		ldr	r3, [r7]
 248 0102 1A78     		ldrb	r2, [r3]	@ zero_extendqisi2
 249 0104 3B68     		ldr	r3, [r7]
 250 0106 5B78     		ldrb	r3, [r3, #1]	@ zero_extendqisi2
 251 0108 1343     		orrs	r3, r3, r2
 252 010a DBB2     		uxtb	r3, r3
 253 010c 03F00203 		and	r3, r3, #2
 254 0110 002B     		cmp	r3, #0
 255 0112 02D0     		beq	.L16
 256              		.loc 2 121 0 is_stmt 0 discriminator 1
 257 0114 4FF0FF33 		mov	r3, #-1
 258 0118 9AE1     		b	.L47
 259              	.L16:
 122:C:/Users/dtjld/Desktop/AIoT_software/LiteOS_Lab_overseas/LiteOS_Lab/iot_link/network/lwm2m/wakaama_lwm2m/core\management.c ****             if (query->len == ATTR_MAX_PERIOD_LEN) return -1;
 260              		.loc 2 122 0 is_stmt 1
 261 011a 7B68     		ldr	r3, [r7, #4]
 262 011c 5B79     		ldrb	r3, [r3, #5]	@ zero_extendqisi2
 263 011e 052B     		cmp	r3, #5
 264 0120 02D1     		bne	.L17
 265              		.loc 2 122 0 is_stmt 0 discriminator 1
 266 0122 4FF0FF33 		mov	r3, #-1
 267 0126 93E1     		b	.L47
 268              	.L17:
 123:C:/Users/dtjld/Desktop/AIoT_software/LiteOS_Lab_overseas/LiteOS_Lab/iot_link/network/lwm2m/wakaama_lwm2m/core\management.c **** 
 124:C:/Users/dtjld/Desktop/AIoT_software/LiteOS_Lab_overseas/LiteOS_Lab/iot_link/network/lwm2m/wakaama_lwm2m/core\management.c ****             if (1 != utils_textToInt(query->data + ATTR_MAX_PERIOD_LEN, query->len - ATTR_MAX_PERIO
 269              		.loc 2 124 0 is_stmt 1
 270 0128 7B68     		ldr	r3, [r7, #4]
 271 012a 9B68     		ldr	r3, [r3, #8]
 272 012c 581D     		adds	r0, r3, #5
 273 012e 7B68     		ldr	r3, [r7, #4]
 274 0130 5B79     		ldrb	r3, [r3, #5]	@ zero_extendqisi2
 275 0132 053B     		subs	r3, r3, #5
 276 0134 07F11002 		add	r2, r7, #16
 277 0138 1946     		mov	r1, r3
 278 013a FFF7FEFF 		bl	utils_textToInt
 279 013e 0346     		mov	r3, r0
 280 0140 012B     		cmp	r3, #1
 281 0142 02D0     		beq	.L18
 282              		.loc 2 124 0 is_stmt 0 discriminator 1
 283 0144 4FF0FF33 		mov	r3, #-1
 284 0148 82E1     		b	.L47
 285              	.L18:
 125:C:/Users/dtjld/Desktop/AIoT_software/LiteOS_Lab_overseas/LiteOS_Lab/iot_link/network/lwm2m/wakaama_lwm2m/core\management.c ****             if (intValue < 0) return -1;
 286              		.loc 2 125 0 is_stmt 1
 287 014a D7E90434 		ldrd	r3, [r7, #16]
 288 014e 002B     		cmp	r3, #0
 289 0150 74F10003 		sbcs	r3, r4, #0
ARM GAS  C:\Users\dtjld\AppData\Local\Temp\ccGRo6oh.s 			page 15


 290 0154 02DA     		bge	.L19
 291              		.loc 2 125 0 is_stmt 0 discriminator 1
 292 0156 4FF0FF33 		mov	r3, #-1
 293 015a 79E1     		b	.L47
 294              	.L19:
 126:C:/Users/dtjld/Desktop/AIoT_software/LiteOS_Lab_overseas/LiteOS_Lab/iot_link/network/lwm2m/wakaama_lwm2m/core\management.c **** 
 127:C:/Users/dtjld/Desktop/AIoT_software/LiteOS_Lab_overseas/LiteOS_Lab/iot_link/network/lwm2m/wakaama_lwm2m/core\management.c ****             attrP->toSet |= LWM2M_ATTR_FLAG_MAX_PERIOD;
 295              		.loc 2 127 0 is_stmt 1
 296 015c 3B68     		ldr	r3, [r7]
 297 015e 1B78     		ldrb	r3, [r3]	@ zero_extendqisi2
 298 0160 43F00203 		orr	r3, r3, #2
 299 0164 DAB2     		uxtb	r2, r3
 300 0166 3B68     		ldr	r3, [r7]
 301 0168 1A70     		strb	r2, [r3]
 128:C:/Users/dtjld/Desktop/AIoT_software/LiteOS_Lab_overseas/LiteOS_Lab/iot_link/network/lwm2m/wakaama_lwm2m/core\management.c ****             attrP->maxPeriod = intValue;
 302              		.loc 2 128 0
 303 016a D7E90434 		ldrd	r3, [r7, #16]
 304 016e 1A46     		mov	r2, r3
 305 0170 3B68     		ldr	r3, [r7]
 306 0172 9A60     		str	r2, [r3, #8]
 307 0174 64E1     		b	.L11
 308              	.L15:
 129:C:/Users/dtjld/Desktop/AIoT_software/LiteOS_Lab_overseas/LiteOS_Lab/iot_link/network/lwm2m/wakaama_lwm2m/core\management.c ****         }
 130:C:/Users/dtjld/Desktop/AIoT_software/LiteOS_Lab_overseas/LiteOS_Lab/iot_link/network/lwm2m/wakaama_lwm2m/core\management.c ****         else if (lwm2m_strncmp((char *)query->data, ATTR_MAX_PERIOD_STR, ATTR_MAX_PERIOD_LEN - 1) =
 309              		.loc 2 130 0
 310 0176 7B68     		ldr	r3, [r7, #4]
 311 0178 9B68     		ldr	r3, [r3, #8]
 312 017a 0422     		movs	r2, #4
 313 017c 4E49     		ldr	r1, .L50+4
 314 017e 1846     		mov	r0, r3
 315 0180 FFF7FEFF 		bl	lwm2m_strncmp
 316 0184 0346     		mov	r3, r0
 317 0186 002B     		cmp	r3, #0
 318 0188 1BD1     		bne	.L20
 131:C:/Users/dtjld/Desktop/AIoT_software/LiteOS_Lab_overseas/LiteOS_Lab/iot_link/network/lwm2m/wakaama_lwm2m/core\management.c ****         {
 132:C:/Users/dtjld/Desktop/AIoT_software/LiteOS_Lab_overseas/LiteOS_Lab/iot_link/network/lwm2m/wakaama_lwm2m/core\management.c ****             if (0 != ((attrP->toSet | attrP->toClear) & LWM2M_ATTR_FLAG_MAX_PERIOD)) return -1;
 319              		.loc 2 132 0
 320 018a 3B68     		ldr	r3, [r7]
 321 018c 1A78     		ldrb	r2, [r3]	@ zero_extendqisi2
 322 018e 3B68     		ldr	r3, [r7]
 323 0190 5B78     		ldrb	r3, [r3, #1]	@ zero_extendqisi2
 324 0192 1343     		orrs	r3, r3, r2
 325 0194 DBB2     		uxtb	r3, r3
 326 0196 03F00203 		and	r3, r3, #2
 327 019a 002B     		cmp	r3, #0
 328 019c 02D0     		beq	.L21
 329              		.loc 2 132 0 is_stmt 0 discriminator 1
 330 019e 4FF0FF33 		mov	r3, #-1
 331 01a2 55E1     		b	.L47
 332              	.L21:
 133:C:/Users/dtjld/Desktop/AIoT_software/LiteOS_Lab_overseas/LiteOS_Lab/iot_link/network/lwm2m/wakaama_lwm2m/core\management.c ****             if (query->len != ATTR_MAX_PERIOD_LEN - 1) return -1;
 333              		.loc 2 133 0 is_stmt 1
 334 01a4 7B68     		ldr	r3, [r7, #4]
 335 01a6 5B79     		ldrb	r3, [r3, #5]	@ zero_extendqisi2
 336 01a8 042B     		cmp	r3, #4
 337 01aa 02D0     		beq	.L22
 338              		.loc 2 133 0 is_stmt 0 discriminator 1
ARM GAS  C:\Users\dtjld\AppData\Local\Temp\ccGRo6oh.s 			page 16


 339 01ac 4FF0FF33 		mov	r3, #-1
 340 01b0 4EE1     		b	.L47
 341              	.L22:
 134:C:/Users/dtjld/Desktop/AIoT_software/LiteOS_Lab_overseas/LiteOS_Lab/iot_link/network/lwm2m/wakaama_lwm2m/core\management.c **** 
 135:C:/Users/dtjld/Desktop/AIoT_software/LiteOS_Lab_overseas/LiteOS_Lab/iot_link/network/lwm2m/wakaama_lwm2m/core\management.c ****             attrP->toClear |= LWM2M_ATTR_FLAG_MAX_PERIOD;
 342              		.loc 2 135 0 is_stmt 1
 343 01b2 3B68     		ldr	r3, [r7]
 344 01b4 5B78     		ldrb	r3, [r3, #1]	@ zero_extendqisi2
 345 01b6 43F00203 		orr	r3, r3, #2
 346 01ba DAB2     		uxtb	r2, r3
 347 01bc 3B68     		ldr	r3, [r7]
 348 01be 5A70     		strb	r2, [r3, #1]
 349 01c0 3EE1     		b	.L11
 350              	.L20:
 136:C:/Users/dtjld/Desktop/AIoT_software/LiteOS_Lab_overseas/LiteOS_Lab/iot_link/network/lwm2m/wakaama_lwm2m/core\management.c ****         }
 137:C:/Users/dtjld/Desktop/AIoT_software/LiteOS_Lab_overseas/LiteOS_Lab/iot_link/network/lwm2m/wakaama_lwm2m/core\management.c ****         else if (lwm2m_strncmp((char *)query->data, ATTR_GREATER_THAN_STR, ATTR_GREATER_THAN_LEN) =
 351              		.loc 2 137 0
 352 01c2 7B68     		ldr	r3, [r7, #4]
 353 01c4 9B68     		ldr	r3, [r3, #8]
 354 01c6 0322     		movs	r2, #3
 355 01c8 3C49     		ldr	r1, .L50+8
 356 01ca 1846     		mov	r0, r3
 357 01cc FFF7FEFF 		bl	lwm2m_strncmp
 358 01d0 0346     		mov	r3, r0
 359 01d2 002B     		cmp	r3, #0
 360 01d4 31D1     		bne	.L23
 138:C:/Users/dtjld/Desktop/AIoT_software/LiteOS_Lab_overseas/LiteOS_Lab/iot_link/network/lwm2m/wakaama_lwm2m/core\management.c ****         {
 139:C:/Users/dtjld/Desktop/AIoT_software/LiteOS_Lab_overseas/LiteOS_Lab/iot_link/network/lwm2m/wakaama_lwm2m/core\management.c ****             if (0 != ((attrP->toSet | attrP->toClear) & LWM2M_ATTR_FLAG_GREATER_THAN)) return -1;
 361              		.loc 2 139 0
 362 01d6 3B68     		ldr	r3, [r7]
 363 01d8 1A78     		ldrb	r2, [r3]	@ zero_extendqisi2
 364 01da 3B68     		ldr	r3, [r7]
 365 01dc 5B78     		ldrb	r3, [r3, #1]	@ zero_extendqisi2
 366 01de 1343     		orrs	r3, r3, r2
 367 01e0 DBB2     		uxtb	r3, r3
 368 01e2 03F00403 		and	r3, r3, #4
 369 01e6 002B     		cmp	r3, #0
 370 01e8 02D0     		beq	.L24
 371              		.loc 2 139 0 is_stmt 0 discriminator 1
 372 01ea 4FF0FF33 		mov	r3, #-1
 373 01ee 2FE1     		b	.L47
 374              	.L24:
 140:C:/Users/dtjld/Desktop/AIoT_software/LiteOS_Lab_overseas/LiteOS_Lab/iot_link/network/lwm2m/wakaama_lwm2m/core\management.c ****             if (query->len == ATTR_GREATER_THAN_LEN) return -1;
 375              		.loc 2 140 0 is_stmt 1
 376 01f0 7B68     		ldr	r3, [r7, #4]
 377 01f2 5B79     		ldrb	r3, [r3, #5]	@ zero_extendqisi2
 378 01f4 032B     		cmp	r3, #3
 379 01f6 02D1     		bne	.L25
 380              		.loc 2 140 0 is_stmt 0 discriminator 1
 381 01f8 4FF0FF33 		mov	r3, #-1
 382 01fc 28E1     		b	.L47
 383              	.L25:
 141:C:/Users/dtjld/Desktop/AIoT_software/LiteOS_Lab_overseas/LiteOS_Lab/iot_link/network/lwm2m/wakaama_lwm2m/core\management.c **** 
 142:C:/Users/dtjld/Desktop/AIoT_software/LiteOS_Lab_overseas/LiteOS_Lab/iot_link/network/lwm2m/wakaama_lwm2m/core\management.c ****             if (1 != utils_textToFloat(query->data + ATTR_GREATER_THAN_LEN, query->len - ATTR_GREAT
 384              		.loc 2 142 0 is_stmt 1
 385 01fe 7B68     		ldr	r3, [r7, #4]
 386 0200 9B68     		ldr	r3, [r3, #8]
ARM GAS  C:\Users\dtjld\AppData\Local\Temp\ccGRo6oh.s 			page 17


 387 0202 D81C     		adds	r0, r3, #3
 388 0204 7B68     		ldr	r3, [r7, #4]
 389 0206 5B79     		ldrb	r3, [r3, #5]	@ zero_extendqisi2
 390 0208 033B     		subs	r3, r3, #3
 391 020a 07F10802 		add	r2, r7, #8
 392 020e 1946     		mov	r1, r3
 393 0210 FFF7FEFF 		bl	utils_textToFloat
 394 0214 0346     		mov	r3, r0
 395 0216 012B     		cmp	r3, #1
 396 0218 02D0     		beq	.L26
 397              		.loc 2 142 0 is_stmt 0 discriminator 1
 398 021a 4FF0FF33 		mov	r3, #-1
 399 021e 17E1     		b	.L47
 400              	.L26:
 143:C:/Users/dtjld/Desktop/AIoT_software/LiteOS_Lab_overseas/LiteOS_Lab/iot_link/network/lwm2m/wakaama_lwm2m/core\management.c **** 
 144:C:/Users/dtjld/Desktop/AIoT_software/LiteOS_Lab_overseas/LiteOS_Lab/iot_link/network/lwm2m/wakaama_lwm2m/core\management.c ****             attrP->toSet |= LWM2M_ATTR_FLAG_GREATER_THAN;
 401              		.loc 2 144 0 is_stmt 1
 402 0220 3B68     		ldr	r3, [r7]
 403 0222 1B78     		ldrb	r3, [r3]	@ zero_extendqisi2
 404 0224 43F00403 		orr	r3, r3, #4
 405 0228 DAB2     		uxtb	r2, r3
 406 022a 3B68     		ldr	r3, [r7]
 407 022c 1A70     		strb	r2, [r3]
 145:C:/Users/dtjld/Desktop/AIoT_software/LiteOS_Lab_overseas/LiteOS_Lab/iot_link/network/lwm2m/wakaama_lwm2m/core\management.c ****             attrP->greaterThan = floatValue;
 408              		.loc 2 145 0
 409 022e D7E90234 		ldrd	r3, [r7, #8]
 410 0232 3A68     		ldr	r2, [r7]
 411 0234 C2E90434 		strd	r3, [r2, #16]
 412 0238 02E1     		b	.L11
 413              	.L23:
 146:C:/Users/dtjld/Desktop/AIoT_software/LiteOS_Lab_overseas/LiteOS_Lab/iot_link/network/lwm2m/wakaama_lwm2m/core\management.c ****         }
 147:C:/Users/dtjld/Desktop/AIoT_software/LiteOS_Lab_overseas/LiteOS_Lab/iot_link/network/lwm2m/wakaama_lwm2m/core\management.c ****         else if (lwm2m_strncmp((char *)query->data, ATTR_GREATER_THAN_STR, ATTR_GREATER_THAN_LEN - 
 414              		.loc 2 147 0
 415 023a 7B68     		ldr	r3, [r7, #4]
 416 023c 9B68     		ldr	r3, [r3, #8]
 417 023e 0222     		movs	r2, #2
 418 0240 1E49     		ldr	r1, .L50+8
 419 0242 1846     		mov	r0, r3
 420 0244 FFF7FEFF 		bl	lwm2m_strncmp
 421 0248 0346     		mov	r3, r0
 422 024a 002B     		cmp	r3, #0
 423 024c 1BD1     		bne	.L27
 148:C:/Users/dtjld/Desktop/AIoT_software/LiteOS_Lab_overseas/LiteOS_Lab/iot_link/network/lwm2m/wakaama_lwm2m/core\management.c ****         {
 149:C:/Users/dtjld/Desktop/AIoT_software/LiteOS_Lab_overseas/LiteOS_Lab/iot_link/network/lwm2m/wakaama_lwm2m/core\management.c ****             if (0 != ((attrP->toSet | attrP->toClear) & LWM2M_ATTR_FLAG_GREATER_THAN)) return -1;
 424              		.loc 2 149 0
 425 024e 3B68     		ldr	r3, [r7]
 426 0250 1A78     		ldrb	r2, [r3]	@ zero_extendqisi2
 427 0252 3B68     		ldr	r3, [r7]
 428 0254 5B78     		ldrb	r3, [r3, #1]	@ zero_extendqisi2
 429 0256 1343     		orrs	r3, r3, r2
 430 0258 DBB2     		uxtb	r3, r3
 431 025a 03F00403 		and	r3, r3, #4
 432 025e 002B     		cmp	r3, #0
 433 0260 02D0     		beq	.L28
 434              		.loc 2 149 0 is_stmt 0 discriminator 1
 435 0262 4FF0FF33 		mov	r3, #-1
 436 0266 F3E0     		b	.L47
ARM GAS  C:\Users\dtjld\AppData\Local\Temp\ccGRo6oh.s 			page 18


 437              	.L28:
 150:C:/Users/dtjld/Desktop/AIoT_software/LiteOS_Lab_overseas/LiteOS_Lab/iot_link/network/lwm2m/wakaama_lwm2m/core\management.c ****             if (query->len != ATTR_GREATER_THAN_LEN - 1) return -1;
 438              		.loc 2 150 0 is_stmt 1
 439 0268 7B68     		ldr	r3, [r7, #4]
 440 026a 5B79     		ldrb	r3, [r3, #5]	@ zero_extendqisi2
 441 026c 022B     		cmp	r3, #2
 442 026e 02D0     		beq	.L29
 443              		.loc 2 150 0 is_stmt 0 discriminator 1
 444 0270 4FF0FF33 		mov	r3, #-1
 445 0274 ECE0     		b	.L47
 446              	.L29:
 151:C:/Users/dtjld/Desktop/AIoT_software/LiteOS_Lab_overseas/LiteOS_Lab/iot_link/network/lwm2m/wakaama_lwm2m/core\management.c **** 
 152:C:/Users/dtjld/Desktop/AIoT_software/LiteOS_Lab_overseas/LiteOS_Lab/iot_link/network/lwm2m/wakaama_lwm2m/core\management.c ****             attrP->toClear |= LWM2M_ATTR_FLAG_GREATER_THAN;
 447              		.loc 2 152 0 is_stmt 1
 448 0276 3B68     		ldr	r3, [r7]
 449 0278 5B78     		ldrb	r3, [r3, #1]	@ zero_extendqisi2
 450 027a 43F00403 		orr	r3, r3, #4
 451 027e DAB2     		uxtb	r2, r3
 452 0280 3B68     		ldr	r3, [r7]
 453 0282 5A70     		strb	r2, [r3, #1]
 454 0284 DCE0     		b	.L11
 455              	.L27:
 153:C:/Users/dtjld/Desktop/AIoT_software/LiteOS_Lab_overseas/LiteOS_Lab/iot_link/network/lwm2m/wakaama_lwm2m/core\management.c ****         }
 154:C:/Users/dtjld/Desktop/AIoT_software/LiteOS_Lab_overseas/LiteOS_Lab/iot_link/network/lwm2m/wakaama_lwm2m/core\management.c ****         else if (lwm2m_strncmp((char *)query->data, ATTR_LESS_THAN_STR, ATTR_LESS_THAN_LEN) == 0)
 456              		.loc 2 154 0
 457 0286 7B68     		ldr	r3, [r7, #4]
 458 0288 9B68     		ldr	r3, [r3, #8]
 459 028a 0322     		movs	r2, #3
 460 028c 0C49     		ldr	r1, .L50+12
 461 028e 1846     		mov	r0, r3
 462 0290 FFF7FEFF 		bl	lwm2m_strncmp
 463 0294 0346     		mov	r3, r0
 464 0296 002B     		cmp	r3, #0
 465 0298 39D1     		bne	.L30
 155:C:/Users/dtjld/Desktop/AIoT_software/LiteOS_Lab_overseas/LiteOS_Lab/iot_link/network/lwm2m/wakaama_lwm2m/core\management.c ****         {
 156:C:/Users/dtjld/Desktop/AIoT_software/LiteOS_Lab_overseas/LiteOS_Lab/iot_link/network/lwm2m/wakaama_lwm2m/core\management.c ****             if (0 != ((attrP->toSet | attrP->toClear) & LWM2M_ATTR_FLAG_LESS_THAN)) return -1;
 466              		.loc 2 156 0
 467 029a 3B68     		ldr	r3, [r7]
 468 029c 1A78     		ldrb	r2, [r3]	@ zero_extendqisi2
 469 029e 3B68     		ldr	r3, [r7]
 470 02a0 5B78     		ldrb	r3, [r3, #1]	@ zero_extendqisi2
 471 02a2 1343     		orrs	r3, r3, r2
 472 02a4 DBB2     		uxtb	r3, r3
 473 02a6 03F00803 		and	r3, r3, #8
 474 02aa 002B     		cmp	r3, #0
 475 02ac 0AD0     		beq	.L31
 476              		.loc 2 156 0 is_stmt 0 discriminator 1
 477 02ae 4FF0FF33 		mov	r3, #-1
 478 02b2 CDE0     		b	.L47
 479              	.L51:
 480              		.align	2
 481              	.L50:
 482 02b4 00000000 		.word	.LC0
 483 02b8 08000000 		.word	.LC1
 484 02bc 10000000 		.word	.LC2
 485 02c0 14000000 		.word	.LC3
 486              	.L31:
ARM GAS  C:\Users\dtjld\AppData\Local\Temp\ccGRo6oh.s 			page 19


 157:C:/Users/dtjld/Desktop/AIoT_software/LiteOS_Lab_overseas/LiteOS_Lab/iot_link/network/lwm2m/wakaama_lwm2m/core\management.c ****             if (query->len == ATTR_LESS_THAN_LEN) return -1;
 487              		.loc 2 157 0 is_stmt 1
 488 02c4 7B68     		ldr	r3, [r7, #4]
 489 02c6 5B79     		ldrb	r3, [r3, #5]	@ zero_extendqisi2
 490 02c8 032B     		cmp	r3, #3
 491 02ca 02D1     		bne	.L32
 492              		.loc 2 157 0 is_stmt 0 discriminator 1
 493 02cc 4FF0FF33 		mov	r3, #-1
 494 02d0 BEE0     		b	.L47
 495              	.L32:
 158:C:/Users/dtjld/Desktop/AIoT_software/LiteOS_Lab_overseas/LiteOS_Lab/iot_link/network/lwm2m/wakaama_lwm2m/core\management.c **** 
 159:C:/Users/dtjld/Desktop/AIoT_software/LiteOS_Lab_overseas/LiteOS_Lab/iot_link/network/lwm2m/wakaama_lwm2m/core\management.c ****             if (1 != utils_textToFloat(query->data + ATTR_LESS_THAN_LEN, query->len - ATTR_LESS_THA
 496              		.loc 2 159 0 is_stmt 1
 497 02d2 7B68     		ldr	r3, [r7, #4]
 498 02d4 9B68     		ldr	r3, [r3, #8]
 499 02d6 D81C     		adds	r0, r3, #3
 500 02d8 7B68     		ldr	r3, [r7, #4]
 501 02da 5B79     		ldrb	r3, [r3, #5]	@ zero_extendqisi2
 502 02dc 033B     		subs	r3, r3, #3
 503 02de 07F10802 		add	r2, r7, #8
 504 02e2 1946     		mov	r1, r3
 505 02e4 FFF7FEFF 		bl	utils_textToFloat
 506 02e8 0346     		mov	r3, r0
 507 02ea 012B     		cmp	r3, #1
 508 02ec 02D0     		beq	.L33
 509              		.loc 2 159 0 is_stmt 0 discriminator 1
 510 02ee 4FF0FF33 		mov	r3, #-1
 511 02f2 ADE0     		b	.L47
 512              	.L33:
 160:C:/Users/dtjld/Desktop/AIoT_software/LiteOS_Lab_overseas/LiteOS_Lab/iot_link/network/lwm2m/wakaama_lwm2m/core\management.c **** 
 161:C:/Users/dtjld/Desktop/AIoT_software/LiteOS_Lab_overseas/LiteOS_Lab/iot_link/network/lwm2m/wakaama_lwm2m/core\management.c ****             attrP->toSet |= LWM2M_ATTR_FLAG_LESS_THAN;
 513              		.loc 2 161 0 is_stmt 1
 514 02f4 3B68     		ldr	r3, [r7]
 515 02f6 1B78     		ldrb	r3, [r3]	@ zero_extendqisi2
 516 02f8 43F00803 		orr	r3, r3, #8
 517 02fc DAB2     		uxtb	r2, r3
 518 02fe 3B68     		ldr	r3, [r7]
 519 0300 1A70     		strb	r2, [r3]
 162:C:/Users/dtjld/Desktop/AIoT_software/LiteOS_Lab_overseas/LiteOS_Lab/iot_link/network/lwm2m/wakaama_lwm2m/core\management.c ****             attrP->lessThan = floatValue;
 520              		.loc 2 162 0
 521 0302 D7E90234 		ldrd	r3, [r7, #8]
 522 0306 3A68     		ldr	r2, [r7]
 523 0308 C2E90634 		strd	r3, [r2, #24]
 524 030c 98E0     		b	.L11
 525              	.L30:
 163:C:/Users/dtjld/Desktop/AIoT_software/LiteOS_Lab_overseas/LiteOS_Lab/iot_link/network/lwm2m/wakaama_lwm2m/core\management.c ****         }
 164:C:/Users/dtjld/Desktop/AIoT_software/LiteOS_Lab_overseas/LiteOS_Lab/iot_link/network/lwm2m/wakaama_lwm2m/core\management.c ****         else if (lwm2m_strncmp((char *)query->data, ATTR_LESS_THAN_STR, ATTR_LESS_THAN_LEN - 1) == 
 526              		.loc 2 164 0
 527 030e 7B68     		ldr	r3, [r7, #4]
 528 0310 9B68     		ldr	r3, [r3, #8]
 529 0312 0222     		movs	r2, #2
 530 0314 5049     		ldr	r1, .L52
 531 0316 1846     		mov	r0, r3
 532 0318 FFF7FEFF 		bl	lwm2m_strncmp
 533 031c 0346     		mov	r3, r0
 534 031e 002B     		cmp	r3, #0
 535 0320 1BD1     		bne	.L34
ARM GAS  C:\Users\dtjld\AppData\Local\Temp\ccGRo6oh.s 			page 20


 165:C:/Users/dtjld/Desktop/AIoT_software/LiteOS_Lab_overseas/LiteOS_Lab/iot_link/network/lwm2m/wakaama_lwm2m/core\management.c ****         {
 166:C:/Users/dtjld/Desktop/AIoT_software/LiteOS_Lab_overseas/LiteOS_Lab/iot_link/network/lwm2m/wakaama_lwm2m/core\management.c ****             if (0 != ((attrP->toSet | attrP->toClear) & LWM2M_ATTR_FLAG_LESS_THAN)) return -1;
 536              		.loc 2 166 0
 537 0322 3B68     		ldr	r3, [r7]
 538 0324 1A78     		ldrb	r2, [r3]	@ zero_extendqisi2
 539 0326 3B68     		ldr	r3, [r7]
 540 0328 5B78     		ldrb	r3, [r3, #1]	@ zero_extendqisi2
 541 032a 1343     		orrs	r3, r3, r2
 542 032c DBB2     		uxtb	r3, r3
 543 032e 03F00803 		and	r3, r3, #8
 544 0332 002B     		cmp	r3, #0
 545 0334 02D0     		beq	.L35
 546              		.loc 2 166 0 is_stmt 0 discriminator 1
 547 0336 4FF0FF33 		mov	r3, #-1
 548 033a 89E0     		b	.L47
 549              	.L35:
 167:C:/Users/dtjld/Desktop/AIoT_software/LiteOS_Lab_overseas/LiteOS_Lab/iot_link/network/lwm2m/wakaama_lwm2m/core\management.c ****             if (query->len != ATTR_LESS_THAN_LEN - 1) return -1;
 550              		.loc 2 167 0 is_stmt 1
 551 033c 7B68     		ldr	r3, [r7, #4]
 552 033e 5B79     		ldrb	r3, [r3, #5]	@ zero_extendqisi2
 553 0340 022B     		cmp	r3, #2
 554 0342 02D0     		beq	.L36
 555              		.loc 2 167 0 is_stmt 0 discriminator 1
 556 0344 4FF0FF33 		mov	r3, #-1
 557 0348 82E0     		b	.L47
 558              	.L36:
 168:C:/Users/dtjld/Desktop/AIoT_software/LiteOS_Lab_overseas/LiteOS_Lab/iot_link/network/lwm2m/wakaama_lwm2m/core\management.c **** 
 169:C:/Users/dtjld/Desktop/AIoT_software/LiteOS_Lab_overseas/LiteOS_Lab/iot_link/network/lwm2m/wakaama_lwm2m/core\management.c ****             attrP->toClear |= LWM2M_ATTR_FLAG_LESS_THAN;
 559              		.loc 2 169 0 is_stmt 1
 560 034a 3B68     		ldr	r3, [r7]
 561 034c 5B78     		ldrb	r3, [r3, #1]	@ zero_extendqisi2
 562 034e 43F00803 		orr	r3, r3, #8
 563 0352 DAB2     		uxtb	r2, r3
 564 0354 3B68     		ldr	r3, [r7]
 565 0356 5A70     		strb	r2, [r3, #1]
 566 0358 72E0     		b	.L11
 567              	.L34:
 170:C:/Users/dtjld/Desktop/AIoT_software/LiteOS_Lab_overseas/LiteOS_Lab/iot_link/network/lwm2m/wakaama_lwm2m/core\management.c ****         }
 171:C:/Users/dtjld/Desktop/AIoT_software/LiteOS_Lab_overseas/LiteOS_Lab/iot_link/network/lwm2m/wakaama_lwm2m/core\management.c ****         else if (lwm2m_strncmp((char *)query->data, ATTR_STEP_STR, ATTR_STEP_LEN) == 0)
 568              		.loc 2 171 0
 569 035a 7B68     		ldr	r3, [r7, #4]
 570 035c 9B68     		ldr	r3, [r3, #8]
 571 035e 0322     		movs	r2, #3
 572 0360 3E49     		ldr	r1, .L52+4
 573 0362 1846     		mov	r0, r3
 574 0364 FFF7FEFF 		bl	lwm2m_strncmp
 575 0368 0346     		mov	r3, r0
 576 036a 002B     		cmp	r3, #0
 577 036c 3FD1     		bne	.L37
 172:C:/Users/dtjld/Desktop/AIoT_software/LiteOS_Lab_overseas/LiteOS_Lab/iot_link/network/lwm2m/wakaama_lwm2m/core\management.c ****         {
 173:C:/Users/dtjld/Desktop/AIoT_software/LiteOS_Lab_overseas/LiteOS_Lab/iot_link/network/lwm2m/wakaama_lwm2m/core\management.c ****             if (0 != ((attrP->toSet | attrP->toClear) & LWM2M_ATTR_FLAG_STEP)) return -1;
 578              		.loc 2 173 0
 579 036e 3B68     		ldr	r3, [r7]
 580 0370 1A78     		ldrb	r2, [r3]	@ zero_extendqisi2
 581 0372 3B68     		ldr	r3, [r7]
 582 0374 5B78     		ldrb	r3, [r3, #1]	@ zero_extendqisi2
 583 0376 1343     		orrs	r3, r3, r2
ARM GAS  C:\Users\dtjld\AppData\Local\Temp\ccGRo6oh.s 			page 21


 584 0378 DBB2     		uxtb	r3, r3
 585 037a 03F01003 		and	r3, r3, #16
 586 037e 002B     		cmp	r3, #0
 587 0380 02D0     		beq	.L38
 588              		.loc 2 173 0 is_stmt 0 discriminator 1
 589 0382 4FF0FF33 		mov	r3, #-1
 590 0386 63E0     		b	.L47
 591              	.L38:
 174:C:/Users/dtjld/Desktop/AIoT_software/LiteOS_Lab_overseas/LiteOS_Lab/iot_link/network/lwm2m/wakaama_lwm2m/core\management.c ****             if (query->len == ATTR_STEP_LEN) return -1;
 592              		.loc 2 174 0 is_stmt 1
 593 0388 7B68     		ldr	r3, [r7, #4]
 594 038a 5B79     		ldrb	r3, [r3, #5]	@ zero_extendqisi2
 595 038c 032B     		cmp	r3, #3
 596 038e 02D1     		bne	.L39
 597              		.loc 2 174 0 is_stmt 0 discriminator 1
 598 0390 4FF0FF33 		mov	r3, #-1
 599 0394 5CE0     		b	.L47
 600              	.L39:
 175:C:/Users/dtjld/Desktop/AIoT_software/LiteOS_Lab_overseas/LiteOS_Lab/iot_link/network/lwm2m/wakaama_lwm2m/core\management.c **** 
 176:C:/Users/dtjld/Desktop/AIoT_software/LiteOS_Lab_overseas/LiteOS_Lab/iot_link/network/lwm2m/wakaama_lwm2m/core\management.c ****             if (1 != utils_textToFloat(query->data + ATTR_STEP_LEN, query->len - ATTR_STEP_LEN, &fl
 601              		.loc 2 176 0 is_stmt 1
 602 0396 7B68     		ldr	r3, [r7, #4]
 603 0398 9B68     		ldr	r3, [r3, #8]
 604 039a D81C     		adds	r0, r3, #3
 605 039c 7B68     		ldr	r3, [r7, #4]
 606 039e 5B79     		ldrb	r3, [r3, #5]	@ zero_extendqisi2
 607 03a0 033B     		subs	r3, r3, #3
 608 03a2 07F10802 		add	r2, r7, #8
 609 03a6 1946     		mov	r1, r3
 610 03a8 FFF7FEFF 		bl	utils_textToFloat
 611 03ac 0346     		mov	r3, r0
 612 03ae 012B     		cmp	r3, #1
 613 03b0 02D0     		beq	.L40
 614              		.loc 2 176 0 is_stmt 0 discriminator 1
 615 03b2 4FF0FF33 		mov	r3, #-1
 616 03b6 4BE0     		b	.L47
 617              	.L40:
 177:C:/Users/dtjld/Desktop/AIoT_software/LiteOS_Lab_overseas/LiteOS_Lab/iot_link/network/lwm2m/wakaama_lwm2m/core\management.c ****             if (floatValue < 0) return -1;
 618              		.loc 2 177 0 is_stmt 1
 619 03b8 D7E90201 		ldrd	r0, [r7, #8]
 620 03bc 4FF00002 		mov	r2, #0
 621 03c0 4FF00003 		mov	r3, #0
 622 03c4 FFF7FEFF 		bl	__aeabi_dcmplt
 623              	.LVL0:
 624 03c8 0346     		mov	r3, r0
 625 03ca 002B     		cmp	r3, #0
 626 03cc 02D0     		beq	.L49
 627              		.loc 2 177 0 is_stmt 0 discriminator 1
 628 03ce 4FF0FF33 		mov	r3, #-1
 629 03d2 3DE0     		b	.L47
 630              	.L49:
 178:C:/Users/dtjld/Desktop/AIoT_software/LiteOS_Lab_overseas/LiteOS_Lab/iot_link/network/lwm2m/wakaama_lwm2m/core\management.c **** 
 179:C:/Users/dtjld/Desktop/AIoT_software/LiteOS_Lab_overseas/LiteOS_Lab/iot_link/network/lwm2m/wakaama_lwm2m/core\management.c ****             attrP->toSet |= LWM2M_ATTR_FLAG_STEP;
 631              		.loc 2 179 0 is_stmt 1
 632 03d4 3B68     		ldr	r3, [r7]
 633 03d6 1B78     		ldrb	r3, [r3]	@ zero_extendqisi2
 634 03d8 43F01003 		orr	r3, r3, #16
ARM GAS  C:\Users\dtjld\AppData\Local\Temp\ccGRo6oh.s 			page 22


 635 03dc DAB2     		uxtb	r2, r3
 636 03de 3B68     		ldr	r3, [r7]
 637 03e0 1A70     		strb	r2, [r3]
 180:C:/Users/dtjld/Desktop/AIoT_software/LiteOS_Lab_overseas/LiteOS_Lab/iot_link/network/lwm2m/wakaama_lwm2m/core\management.c ****             attrP->step = floatValue;
 638              		.loc 2 180 0
 639 03e2 D7E90234 		ldrd	r3, [r7, #8]
 640 03e6 3A68     		ldr	r2, [r7]
 641 03e8 C2E90834 		strd	r3, [r2, #32]
 642 03ec 28E0     		b	.L11
 643              	.L37:
 181:C:/Users/dtjld/Desktop/AIoT_software/LiteOS_Lab_overseas/LiteOS_Lab/iot_link/network/lwm2m/wakaama_lwm2m/core\management.c ****         }
 182:C:/Users/dtjld/Desktop/AIoT_software/LiteOS_Lab_overseas/LiteOS_Lab/iot_link/network/lwm2m/wakaama_lwm2m/core\management.c ****         else if (lwm2m_strncmp((char *)query->data, ATTR_STEP_STR, ATTR_STEP_LEN - 1) == 0)
 644              		.loc 2 182 0
 645 03ee 7B68     		ldr	r3, [r7, #4]
 646 03f0 9B68     		ldr	r3, [r3, #8]
 647 03f2 0222     		movs	r2, #2
 648 03f4 1949     		ldr	r1, .L52+4
 649 03f6 1846     		mov	r0, r3
 650 03f8 FFF7FEFF 		bl	lwm2m_strncmp
 651 03fc 0346     		mov	r3, r0
 652 03fe 002B     		cmp	r3, #0
 653 0400 1BD1     		bne	.L43
 183:C:/Users/dtjld/Desktop/AIoT_software/LiteOS_Lab_overseas/LiteOS_Lab/iot_link/network/lwm2m/wakaama_lwm2m/core\management.c ****         {
 184:C:/Users/dtjld/Desktop/AIoT_software/LiteOS_Lab_overseas/LiteOS_Lab/iot_link/network/lwm2m/wakaama_lwm2m/core\management.c ****             if (0 != ((attrP->toSet | attrP->toClear) & LWM2M_ATTR_FLAG_STEP)) return -1;
 654              		.loc 2 184 0
 655 0402 3B68     		ldr	r3, [r7]
 656 0404 1A78     		ldrb	r2, [r3]	@ zero_extendqisi2
 657 0406 3B68     		ldr	r3, [r7]
 658 0408 5B78     		ldrb	r3, [r3, #1]	@ zero_extendqisi2
 659 040a 1343     		orrs	r3, r3, r2
 660 040c DBB2     		uxtb	r3, r3
 661 040e 03F01003 		and	r3, r3, #16
 662 0412 002B     		cmp	r3, #0
 663 0414 02D0     		beq	.L44
 664              		.loc 2 184 0 is_stmt 0 discriminator 1
 665 0416 4FF0FF33 		mov	r3, #-1
 666 041a 19E0     		b	.L47
 667              	.L44:
 185:C:/Users/dtjld/Desktop/AIoT_software/LiteOS_Lab_overseas/LiteOS_Lab/iot_link/network/lwm2m/wakaama_lwm2m/core\management.c ****             if (query->len != ATTR_STEP_LEN - 1) return -1;
 668              		.loc 2 185 0 is_stmt 1
 669 041c 7B68     		ldr	r3, [r7, #4]
 670 041e 5B79     		ldrb	r3, [r3, #5]	@ zero_extendqisi2
 671 0420 022B     		cmp	r3, #2
 672 0422 02D0     		beq	.L45
 673              		.loc 2 185 0 is_stmt 0 discriminator 1
 674 0424 4FF0FF33 		mov	r3, #-1
 675 0428 12E0     		b	.L47
 676              	.L45:
 186:C:/Users/dtjld/Desktop/AIoT_software/LiteOS_Lab_overseas/LiteOS_Lab/iot_link/network/lwm2m/wakaama_lwm2m/core\management.c **** 
 187:C:/Users/dtjld/Desktop/AIoT_software/LiteOS_Lab_overseas/LiteOS_Lab/iot_link/network/lwm2m/wakaama_lwm2m/core\management.c ****             attrP->toClear |= LWM2M_ATTR_FLAG_STEP;
 677              		.loc 2 187 0 is_stmt 1
 678 042a 3B68     		ldr	r3, [r7]
 679 042c 5B78     		ldrb	r3, [r3, #1]	@ zero_extendqisi2
 680 042e 43F01003 		orr	r3, r3, #16
 681 0432 DAB2     		uxtb	r2, r3
 682 0434 3B68     		ldr	r3, [r7]
 683 0436 5A70     		strb	r2, [r3, #1]
ARM GAS  C:\Users\dtjld\AppData\Local\Temp\ccGRo6oh.s 			page 23


 684 0438 02E0     		b	.L11
 685              	.L43:
 188:C:/Users/dtjld/Desktop/AIoT_software/LiteOS_Lab_overseas/LiteOS_Lab/iot_link/network/lwm2m/wakaama_lwm2m/core\management.c ****         }
 189:C:/Users/dtjld/Desktop/AIoT_software/LiteOS_Lab_overseas/LiteOS_Lab/iot_link/network/lwm2m/wakaama_lwm2m/core\management.c ****         else return -1;
 686              		.loc 2 189 0
 687 043a 4FF0FF33 		mov	r3, #-1
 688 043e 07E0     		b	.L47
 689              	.L11:
 190:C:/Users/dtjld/Desktop/AIoT_software/LiteOS_Lab_overseas/LiteOS_Lab/iot_link/network/lwm2m/wakaama_lwm2m/core\management.c **** 
 191:C:/Users/dtjld/Desktop/AIoT_software/LiteOS_Lab_overseas/LiteOS_Lab/iot_link/network/lwm2m/wakaama_lwm2m/core\management.c ****         query = query->next;
 690              		.loc 2 191 0
 691 0440 7B68     		ldr	r3, [r7, #4]
 692 0442 1B68     		ldr	r3, [r3]
 693 0444 7B60     		str	r3, [r7, #4]
 694              	.L4:
  99:C:/Users/dtjld/Desktop/AIoT_software/LiteOS_Lab_overseas/LiteOS_Lab/iot_link/network/lwm2m/wakaama_lwm2m/core\management.c ****     {
 695              		.loc 2 99 0
 696 0446 7B68     		ldr	r3, [r7, #4]
 697 0448 002B     		cmp	r3, #0
 698 044a 7FF4E4AD 		bne	.L46
 192:C:/Users/dtjld/Desktop/AIoT_software/LiteOS_Lab_overseas/LiteOS_Lab/iot_link/network/lwm2m/wakaama_lwm2m/core\management.c ****     }
 193:C:/Users/dtjld/Desktop/AIoT_software/LiteOS_Lab_overseas/LiteOS_Lab/iot_link/network/lwm2m/wakaama_lwm2m/core\management.c **** 
 194:C:/Users/dtjld/Desktop/AIoT_software/LiteOS_Lab_overseas/LiteOS_Lab/iot_link/network/lwm2m/wakaama_lwm2m/core\management.c ****     return 0;
 699              		.loc 2 194 0
 700 044e 0023     		movs	r3, #0
 701              	.L47:
 195:C:/Users/dtjld/Desktop/AIoT_software/LiteOS_Lab_overseas/LiteOS_Lab/iot_link/network/lwm2m/wakaama_lwm2m/core\management.c **** }
 702              		.loc 2 195 0 discriminator 1
 703 0450 1846     		mov	r0, r3
 704 0452 1C37     		adds	r7, r7, #28
 705              	.LCFI9:
 706              		.cfi_def_cfa_offset 12
 707 0454 BD46     		mov	sp, r7
 708              	.LCFI10:
 709              		.cfi_def_cfa_register 13
 710              		@ sp needed
 711 0456 90BD     		pop	{r4, r7, pc}
 712              	.L53:
 713              		.align	2
 714              	.L52:
 715 0458 14000000 		.word	.LC3
 716 045c 18000000 		.word	.LC4
 717              		.cfi_endproc
 718              	.LFE12:
 720              		.section	.rodata
 721              		.align	2
 722              	.LC5:
 723 001c 53544154 		.ascii	"STATE_BS_FAILED\000"
 723      455F4253 
 723      5F464149 
 723      4C454400 
 724              		.align	2
 725              	.LC6:
 726 002c 556E6B6E 		.ascii	"Unknown\000"
 726      6F776E00 
 727              		.align	2
 728              	.LC7:
ARM GAS  C:\Users\dtjld\AppData\Local\Temp\ccGRo6oh.s 			page 24


 729 0034 53544154 		.ascii	"STATE_BS_FAILING\000"
 729      455F4253 
 729      5F464149 
 729      4C494E47 
 729      00
 730 0045 000000   		.align	2
 731              	.LC8:
 732 0048 53544154 		.ascii	"STATE_BS_FINISHING\000"
 732      455F4253 
 732      5F46494E 
 732      49534849 
 732      4E4700
 733 005b 00       		.align	2
 734              	.LC9:
 735 005c 53544154 		.ascii	"STATE_BS_FINISHED\000"
 735      455F4253 
 735      5F46494E 
 735      49534845 
 735      4400
 736 006e 0000     		.align	2
 737              	.LC10:
 738 0070 53544154 		.ascii	"STATE_BS_PENDING\000"
 738      455F4253 
 738      5F50454E 
 738      44494E47 
 738      00
 739 0081 000000   		.align	2
 740              	.LC11:
 741 0084 53544154 		.ascii	"STATE_BS_INITIATED\000"
 741      455F4253 
 741      5F494E49 
 741      54494154 
 741      454400
 742 0097 00       		.align	2
 743              	.LC12:
 744 0098 53544154 		.ascii	"STATE_BS_HOLD_OFF\000"
 744      455F4253 
 744      5F484F4C 
 744      445F4F46 
 744      4600
 745 00aa 0000     		.align	2
 746              	.LC13:
 747 00ac 53544154 		.ascii	"STATE_DEREG_PENDING\000"
 747      455F4445 
 747      5245475F 
 747      50454E44 
 747      494E4700 
 748              		.align	2
 749              	.LC14:
 750 00c0 53544154 		.ascii	"STATE_REG_FULL_UPDATE_NEEDED\000"
 750      455F5245 
 750      475F4655 
 750      4C4C5F55 
 750      50444154 
 751 00dd 000000   		.align	2
 752              	.LC15:
 753 00e0 53544154 		.ascii	"STATE_REG_UPDATE_NEEDED\000"
ARM GAS  C:\Users\dtjld\AppData\Local\Temp\ccGRo6oh.s 			page 25


 753      455F5245 
 753      475F5550 
 753      44415445 
 753      5F4E4545 
 754              		.align	2
 755              	.LC16:
 756 00f8 53544154 		.ascii	"STATE_REG_UPDATE_PENDING\000"
 756      455F5245 
 756      475F5550 
 756      44415445 
 756      5F50454E 
 757 0111 000000   		.align	2
 758              	.LC17:
 759 0114 53544154 		.ascii	"STATE_REG_FAILED\000"
 759      455F5245 
 759      475F4641 
 759      494C4544 
 759      00
 760 0125 000000   		.align	2
 761              	.LC18:
 762 0128 53544154 		.ascii	"STATE_REGISTERED\000"
 762      455F5245 
 762      47495354 
 762      45524544 
 762      00
 763 0139 000000   		.align	2
 764              	.LC19:
 765 013c 53544154 		.ascii	"STATE_REG_PENDING\000"
 765      455F5245 
 765      475F5045 
 765      4E44494E 
 765      4700
 766 014e 0000     		.align	2
 767              	.LC20:
 768 0150 53544154 		.ascii	"STATE_DEREGISTERED\000"
 768      455F4445 
 768      52454749 
 768      53544552 
 768      454400
 769 0163 00       		.align	2
 770              	.LC21:
 771 0164 5B25645D 		.ascii	"[%d][%s:%d] Code: %02X, server status: %s\015\012\000"
 771      5B25733A 
 771      25645D20 
 771      436F6465 
 771      3A202530 
 772              		.align	2
 773              	.LC22:
 774 0190 5B25733A 		.ascii	"[%s:%d] NULL\015\012\000"
 774      25645D20 
 774      4E554C4C 
 774      0D0A00
 775 019f 00       		.align	2
 776              	.LC23:
 777 01a0 5B25733A 		.ascii	"[%s:%d] /%d\000"
 777      25645D20 
 777      2F256400 
ARM GAS  C:\Users\dtjld\AppData\Local\Temp\ccGRo6oh.s 			page 26


 778              		.align	2
 779              	.LC24:
 780 01ac 2F256400 		.ascii	"/%d\000"
 781              		.align	2
 782              	.LC25:
 783 01b0 0D0A00   		.ascii	"\015\012\000"
 784 01b3 00       		.align	2
 785              	.LC26:
 786 01b4 5B25645D 		.ascii	"[%d][%s:%d] Observe Request[/%d/%d/%d]: %.*s\012\015"
 786      5B25733A 
 786      25645D20 
 786      4F627365 
 786      72766520 
 787 01e2 0A00     		.ascii	"\012\000"
 788              		.align	2
 789              	.LC27:
 790 01e4 2F25642F 		.ascii	"/%d/%d\000"
 790      256400
 791              		.section	.text.dm_handleRequest,"ax",%progbits
 792              		.align	1
 793              		.global	dm_handleRequest
 794              		.syntax unified
 795              		.thumb
 796              		.thumb_func
 797              		.fpu fpv4-sp-d16
 799              	dm_handleRequest:
 800              	.LFB13:
 196:C:/Users/dtjld/Desktop/AIoT_software/LiteOS_Lab_overseas/LiteOS_Lab/iot_link/network/lwm2m/wakaama_lwm2m/core\management.c **** 
 197:C:/Users/dtjld/Desktop/AIoT_software/LiteOS_Lab_overseas/LiteOS_Lab/iot_link/network/lwm2m/wakaama_lwm2m/core\management.c **** uint8_t dm_handleRequest(lwm2m_context_t *contextP,
 198:C:/Users/dtjld/Desktop/AIoT_software/LiteOS_Lab_overseas/LiteOS_Lab/iot_link/network/lwm2m/wakaama_lwm2m/core\management.c ****                          lwm2m_uri_t *uriP,
 199:C:/Users/dtjld/Desktop/AIoT_software/LiteOS_Lab_overseas/LiteOS_Lab/iot_link/network/lwm2m/wakaama_lwm2m/core\management.c ****                          lwm2m_server_t *serverP,
 200:C:/Users/dtjld/Desktop/AIoT_software/LiteOS_Lab_overseas/LiteOS_Lab/iot_link/network/lwm2m/wakaama_lwm2m/core\management.c ****                          coap_packet_t *message,
 201:C:/Users/dtjld/Desktop/AIoT_software/LiteOS_Lab_overseas/LiteOS_Lab/iot_link/network/lwm2m/wakaama_lwm2m/core\management.c ****                          coap_packet_t *response)
 202:C:/Users/dtjld/Desktop/AIoT_software/LiteOS_Lab_overseas/LiteOS_Lab/iot_link/network/lwm2m/wakaama_lwm2m/core\management.c **** {
 801              		.loc 2 202 0
 802              		.cfi_startproc
 803              		@ args = 4, pretend = 0, frame = 104
 804              		@ frame_needed = 1, uses_anonymous_args = 0
 805 0000 B0B5     		push	{r4, r5, r7, lr}
 806              	.LCFI11:
 807              		.cfi_def_cfa_offset 16
 808              		.cfi_offset 4, -16
 809              		.cfi_offset 5, -12
 810              		.cfi_offset 7, -8
 811              		.cfi_offset 14, -4
 812 0002 A0B0     		sub	sp, sp, #128
 813              	.LCFI12:
 814              		.cfi_def_cfa_offset 144
 815 0004 06AF     		add	r7, sp, #24
 816              	.LCFI13:
 817              		.cfi_def_cfa 7, 120
 818 0006 F860     		str	r0, [r7, #12]
 819 0008 B960     		str	r1, [r7, #8]
 820 000a 7A60     		str	r2, [r7, #4]
 821 000c 3B60     		str	r3, [r7]
 203:C:/Users/dtjld/Desktop/AIoT_software/LiteOS_Lab_overseas/LiteOS_Lab/iot_link/network/lwm2m/wakaama_lwm2m/core\management.c ****     uint8_t result;
 204:C:/Users/dtjld/Desktop/AIoT_software/LiteOS_Lab_overseas/LiteOS_Lab/iot_link/network/lwm2m/wakaama_lwm2m/core\management.c ****     lwm2m_media_type_t format;
ARM GAS  C:\Users\dtjld\AppData\Local\Temp\ccGRo6oh.s 			page 27


 205:C:/Users/dtjld/Desktop/AIoT_software/LiteOS_Lab_overseas/LiteOS_Lab/iot_link/network/lwm2m/wakaama_lwm2m/core\management.c **** 
 206:C:/Users/dtjld/Desktop/AIoT_software/LiteOS_Lab_overseas/LiteOS_Lab/iot_link/network/lwm2m/wakaama_lwm2m/core\management.c ****     LOG_ARG("Code: %02X, server status: %s", message->code, STR_STATUS(serverP->status));
 822              		.loc 2 206 0
 823 000e FFF7FEFF 		bl	lwm2m_gettime
 824 0012 0346     		mov	r3, r0
 825 0014 0C46     		mov	r4, r1
 826 0016 1946     		mov	r1, r3
 827 0018 3B68     		ldr	r3, [r7]
 828 001a 9B79     		ldrb	r3, [r3, #6]	@ zero_extendqisi2
 829 001c 1A46     		mov	r2, r3
 830 001e 7B68     		ldr	r3, [r7, #4]
 831 0020 93F82030 		ldrb	r3, [r3, #32]	@ zero_extendqisi2
 832 0024 002B     		cmp	r3, #0
 833 0026 63D0     		beq	.L55
 834              		.loc 2 206 0 is_stmt 0 discriminator 1
 835 0028 7B68     		ldr	r3, [r7, #4]
 836 002a 93F82030 		ldrb	r3, [r3, #32]	@ zero_extendqisi2
 837 002e 012B     		cmp	r3, #1
 838 0030 5CD0     		beq	.L56
 839              		.loc 2 206 0 discriminator 3
 840 0032 7B68     		ldr	r3, [r7, #4]
 841 0034 93F82030 		ldrb	r3, [r3, #32]	@ zero_extendqisi2
 842 0038 022B     		cmp	r3, #2
 843 003a 55D0     		beq	.L57
 844              		.loc 2 206 0 discriminator 5
 845 003c 7B68     		ldr	r3, [r7, #4]
 846 003e 93F82030 		ldrb	r3, [r3, #32]	@ zero_extendqisi2
 847 0042 032B     		cmp	r3, #3
 848 0044 4ED0     		beq	.L58
 849              		.loc 2 206 0 discriminator 7
 850 0046 7B68     		ldr	r3, [r7, #4]
 851 0048 93F82030 		ldrb	r3, [r3, #32]	@ zero_extendqisi2
 852 004c 042B     		cmp	r3, #4
 853 004e 47D0     		beq	.L59
 854              		.loc 2 206 0 discriminator 9
 855 0050 7B68     		ldr	r3, [r7, #4]
 856 0052 93F82030 		ldrb	r3, [r3, #32]	@ zero_extendqisi2
 857 0056 052B     		cmp	r3, #5
 858 0058 40D0     		beq	.L60
 859              		.loc 2 206 0 discriminator 11
 860 005a 7B68     		ldr	r3, [r7, #4]
 861 005c 93F82030 		ldrb	r3, [r3, #32]	@ zero_extendqisi2
 862 0060 062B     		cmp	r3, #6
 863 0062 39D0     		beq	.L61
 864              		.loc 2 206 0 discriminator 13
 865 0064 7B68     		ldr	r3, [r7, #4]
 866 0066 93F82030 		ldrb	r3, [r3, #32]	@ zero_extendqisi2
 867 006a 072B     		cmp	r3, #7
 868 006c 32D0     		beq	.L62
 869              		.loc 2 206 0 discriminator 15
 870 006e 7B68     		ldr	r3, [r7, #4]
 871 0070 93F82030 		ldrb	r3, [r3, #32]	@ zero_extendqisi2
 872 0074 082B     		cmp	r3, #8
 873 0076 2BD0     		beq	.L63
 874              		.loc 2 206 0 discriminator 17
 875 0078 7B68     		ldr	r3, [r7, #4]
 876 007a 93F82030 		ldrb	r3, [r3, #32]	@ zero_extendqisi2
ARM GAS  C:\Users\dtjld\AppData\Local\Temp\ccGRo6oh.s 			page 28


 877 007e 092B     		cmp	r3, #9
 878 0080 24D0     		beq	.L64
 879              		.loc 2 206 0 discriminator 19
 880 0082 7B68     		ldr	r3, [r7, #4]
 881 0084 93F82030 		ldrb	r3, [r3, #32]	@ zero_extendqisi2
 882 0088 0A2B     		cmp	r3, #10
 883 008a 1DD0     		beq	.L65
 884              		.loc 2 206 0 discriminator 21
 885 008c 7B68     		ldr	r3, [r7, #4]
 886 008e 93F82030 		ldrb	r3, [r3, #32]	@ zero_extendqisi2
 887 0092 0C2B     		cmp	r3, #12
 888 0094 16D0     		beq	.L66
 889              		.loc 2 206 0 discriminator 23
 890 0096 7B68     		ldr	r3, [r7, #4]
 891 0098 93F82030 		ldrb	r3, [r3, #32]	@ zero_extendqisi2
 892 009c 0B2B     		cmp	r3, #11
 893 009e 0FD0     		beq	.L67
 894              		.loc 2 206 0 discriminator 25
 895 00a0 7B68     		ldr	r3, [r7, #4]
 896 00a2 93F82030 		ldrb	r3, [r3, #32]	@ zero_extendqisi2
 897 00a6 0D2B     		cmp	r3, #13
 898 00a8 08D0     		beq	.L68
 899              		.loc 2 206 0 discriminator 27
 900 00aa 7B68     		ldr	r3, [r7, #4]
 901 00ac 93F82030 		ldrb	r3, [r3, #32]	@ zero_extendqisi2
 902 00b0 0E2B     		cmp	r3, #14
 903 00b2 01D1     		bne	.L69
 904              		.loc 2 206 0 discriminator 29
 905 00b4 9E4B     		ldr	r3, .L143
 906 00b6 1CE0     		b	.L84
 907              	.L69:
 908              		.loc 2 206 0 discriminator 30
 909 00b8 9E4B     		ldr	r3, .L143+4
 910 00ba 1AE0     		b	.L84
 911              	.L68:
 912              		.loc 2 206 0 discriminator 28
 913 00bc 9E4B     		ldr	r3, .L143+8
 914 00be 18E0     		b	.L84
 915              	.L67:
 916              		.loc 2 206 0 discriminator 26
 917 00c0 9E4B     		ldr	r3, .L143+12
 918 00c2 16E0     		b	.L84
 919              	.L66:
 920              		.loc 2 206 0 discriminator 24
 921 00c4 9E4B     		ldr	r3, .L143+16
 922 00c6 14E0     		b	.L84
 923              	.L65:
 924              		.loc 2 206 0 discriminator 22
 925 00c8 9E4B     		ldr	r3, .L143+20
 926 00ca 12E0     		b	.L84
 927              	.L64:
 928              		.loc 2 206 0 discriminator 20
 929 00cc 9E4B     		ldr	r3, .L143+24
 930 00ce 10E0     		b	.L84
 931              	.L63:
 932              		.loc 2 206 0 discriminator 18
 933 00d0 9E4B     		ldr	r3, .L143+28
ARM GAS  C:\Users\dtjld\AppData\Local\Temp\ccGRo6oh.s 			page 29


 934 00d2 0EE0     		b	.L84
 935              	.L62:
 936              		.loc 2 206 0 discriminator 16
 937 00d4 9E4B     		ldr	r3, .L143+32
 938 00d6 0CE0     		b	.L84
 939              	.L61:
 940              		.loc 2 206 0 discriminator 14
 941 00d8 9E4B     		ldr	r3, .L143+36
 942 00da 0AE0     		b	.L84
 943              	.L60:
 944              		.loc 2 206 0 discriminator 12
 945 00dc 9E4B     		ldr	r3, .L143+40
 946 00de 08E0     		b	.L84
 947              	.L59:
 948              		.loc 2 206 0 discriminator 10
 949 00e0 9E4B     		ldr	r3, .L143+44
 950 00e2 06E0     		b	.L84
 951              	.L58:
 952              		.loc 2 206 0 discriminator 8
 953 00e4 9E4B     		ldr	r3, .L143+48
 954 00e6 04E0     		b	.L84
 955              	.L57:
 956              		.loc 2 206 0 discriminator 6
 957 00e8 9E4B     		ldr	r3, .L143+52
 958 00ea 02E0     		b	.L84
 959              	.L56:
 960              		.loc 2 206 0 discriminator 4
 961 00ec 9E4B     		ldr	r3, .L143+56
 962 00ee 00E0     		b	.L84
 963              	.L55:
 964              		.loc 2 206 0 discriminator 2
 965 00f0 9E4B     		ldr	r3, .L143+60
 966              	.L84:
 967              		.loc 2 206 0 discriminator 60
 968 00f2 0193     		str	r3, [sp, #4]
 969 00f4 0092     		str	r2, [sp]
 970 00f6 CE23     		movs	r3, #206
 971 00f8 9D4A     		ldr	r2, .L143+64
 972 00fa 9E48     		ldr	r0, .L143+68
 973 00fc FFF7FEFF 		bl	atiny_printf
 207:C:/Users/dtjld/Desktop/AIoT_software/LiteOS_Lab_overseas/LiteOS_Lab/iot_link/network/lwm2m/wakaama_lwm2m/core\management.c ****     LOG_URI(uriP);
 974              		.loc 2 207 0 is_stmt 1 discriminator 60
 975 0100 BB68     		ldr	r3, [r7, #8]
 976 0102 002B     		cmp	r3, #0
 977 0104 05D1     		bne	.L85
 978              		.loc 2 207 0 is_stmt 0 discriminator 1
 979 0106 CF22     		movs	r2, #207
 980 0108 9949     		ldr	r1, .L143+64
 981 010a 9B48     		ldr	r0, .L143+72
 982 010c FFF7FEFF 		bl	atiny_printf
 983 0110 21E0     		b	.L86
 984              	.L85:
 985              		.loc 2 207 0 discriminator 2
 986 0112 BB68     		ldr	r3, [r7, #8]
 987 0114 5B88     		ldrh	r3, [r3, #2]
 988 0116 CF22     		movs	r2, #207
 989 0118 9549     		ldr	r1, .L143+64
ARM GAS  C:\Users\dtjld\AppData\Local\Temp\ccGRo6oh.s 			page 30


 990 011a 9848     		ldr	r0, .L143+76
 991 011c FFF7FEFF 		bl	atiny_printf
 992 0120 BB68     		ldr	r3, [r7, #8]
 993 0122 1B78     		ldrb	r3, [r3]	@ zero_extendqisi2
 994 0124 03F00203 		and	r3, r3, #2
 995 0128 002B     		cmp	r3, #0
 996 012a 05D0     		beq	.L87
 997              		.loc 2 207 0 discriminator 3
 998 012c BB68     		ldr	r3, [r7, #8]
 999 012e 9B88     		ldrh	r3, [r3, #4]
 1000 0130 1946     		mov	r1, r3
 1001 0132 9348     		ldr	r0, .L143+80
 1002 0134 FFF7FEFF 		bl	atiny_printf
 1003              	.L87:
 1004              		.loc 2 207 0 discriminator 5
 1005 0138 BB68     		ldr	r3, [r7, #8]
 1006 013a 1B78     		ldrb	r3, [r3]	@ zero_extendqisi2
 1007 013c 03F00103 		and	r3, r3, #1
 1008 0140 002B     		cmp	r3, #0
 1009 0142 05D0     		beq	.L88
 1010              		.loc 2 207 0 discriminator 6
 1011 0144 BB68     		ldr	r3, [r7, #8]
 1012 0146 DB88     		ldrh	r3, [r3, #6]
 1013 0148 1946     		mov	r1, r3
 1014 014a 8D48     		ldr	r0, .L143+80
 1015 014c FFF7FEFF 		bl	atiny_printf
 1016              	.L88:
 1017              		.loc 2 207 0 discriminator 8
 1018 0150 8C48     		ldr	r0, .L143+84
 1019 0152 FFF7FEFF 		bl	atiny_printf
 1020              	.L86:
 208:C:/Users/dtjld/Desktop/AIoT_software/LiteOS_Lab_overseas/LiteOS_Lab/iot_link/network/lwm2m/wakaama_lwm2m/core\management.c **** 
 209:C:/Users/dtjld/Desktop/AIoT_software/LiteOS_Lab_overseas/LiteOS_Lab/iot_link/network/lwm2m/wakaama_lwm2m/core\management.c ****     if (IS_OPTION(message, COAP_OPTION_CONTENT_TYPE))
 1021              		.loc 2 209 0 is_stmt 1
 1022 0156 3B68     		ldr	r3, [r7]
 1023 0158 DB7A     		ldrb	r3, [r3, #11]	@ zero_extendqisi2
 1024 015a 03F01003 		and	r3, r3, #16
 1025 015e 002B     		cmp	r3, #0
 1026 0160 08D0     		beq	.L89
 210:C:/Users/dtjld/Desktop/AIoT_software/LiteOS_Lab_overseas/LiteOS_Lab/iot_link/network/lwm2m/wakaama_lwm2m/core\management.c ****     {
 211:C:/Users/dtjld/Desktop/AIoT_software/LiteOS_Lab_overseas/LiteOS_Lab/iot_link/network/lwm2m/wakaama_lwm2m/core\management.c ****         format = utils_convertMediaType(message->content_type);
 1027              		.loc 2 211 0
 1028 0162 3B68     		ldr	r3, [r7]
 1029 0164 1B8A     		ldrh	r3, [r3, #16]
 1030 0166 1846     		mov	r0, r3
 1031 0168 FFF7FEFF 		bl	utils_convertMediaType
 1032 016c 0346     		mov	r3, r0
 1033 016e A7F85E30 		strh	r3, [r7, #94]	@ movhi
 1034 0172 0BE0     		b	.L90
 1035              	.L89:
 212:C:/Users/dtjld/Desktop/AIoT_software/LiteOS_Lab_overseas/LiteOS_Lab/iot_link/network/lwm2m/wakaama_lwm2m/core\management.c ****     }
 213:C:/Users/dtjld/Desktop/AIoT_software/LiteOS_Lab_overseas/LiteOS_Lab/iot_link/network/lwm2m/wakaama_lwm2m/core\management.c ****     else
 214:C:/Users/dtjld/Desktop/AIoT_software/LiteOS_Lab_overseas/LiteOS_Lab/iot_link/network/lwm2m/wakaama_lwm2m/core\management.c ****     {
 215:C:/Users/dtjld/Desktop/AIoT_software/LiteOS_Lab_overseas/LiteOS_Lab/iot_link/network/lwm2m/wakaama_lwm2m/core\management.c ****         format = (dm_isUriOpaqueHandle(uriP) ? LWM2M_CONTENT_OPAQUE : LWM2M_CONTENT_TLV);
 1036              		.loc 2 215 0
 1037 0174 B868     		ldr	r0, [r7, #8]
 1038 0176 FFF7FEFF 		bl	dm_isUriOpaqueHandle
ARM GAS  C:\Users\dtjld\AppData\Local\Temp\ccGRo6oh.s 			page 31


 1039 017a 0346     		mov	r3, r0
 1040 017c 002B     		cmp	r3, #0
 1041 017e 01D0     		beq	.L91
 1042              		.loc 2 215 0 is_stmt 0 discriminator 1
 1043 0180 2A23     		movs	r3, #42
 1044 0182 01E0     		b	.L92
 1045              	.L91:
 1046              		.loc 2 215 0 discriminator 2
 1047 0184 42F61653 		movw	r3, #11542
 1048              	.L92:
 1049              		.loc 2 215 0 discriminator 4
 1050 0188 A7F85E30 		strh	r3, [r7, #94]	@ movhi
 1051              	.L90:
 216:C:/Users/dtjld/Desktop/AIoT_software/LiteOS_Lab_overseas/LiteOS_Lab/iot_link/network/lwm2m/wakaama_lwm2m/core\management.c **** 
 217:C:/Users/dtjld/Desktop/AIoT_software/LiteOS_Lab_overseas/LiteOS_Lab/iot_link/network/lwm2m/wakaama_lwm2m/core\management.c ****     }
 218:C:/Users/dtjld/Desktop/AIoT_software/LiteOS_Lab_overseas/LiteOS_Lab/iot_link/network/lwm2m/wakaama_lwm2m/core\management.c **** 
 219:C:/Users/dtjld/Desktop/AIoT_software/LiteOS_Lab_overseas/LiteOS_Lab/iot_link/network/lwm2m/wakaama_lwm2m/core\management.c ****     if (uriP->objectId == LWM2M_SECURITY_OBJECT_ID)
 1052              		.loc 2 219 0 is_stmt 1
 1053 018c BB68     		ldr	r3, [r7, #8]
 1054 018e 5B88     		ldrh	r3, [r3, #2]
 1055 0190 002B     		cmp	r3, #0
 1056 0192 01D1     		bne	.L93
 220:C:/Users/dtjld/Desktop/AIoT_software/LiteOS_Lab_overseas/LiteOS_Lab/iot_link/network/lwm2m/wakaama_lwm2m/core\management.c ****     {
 221:C:/Users/dtjld/Desktop/AIoT_software/LiteOS_Lab_overseas/LiteOS_Lab/iot_link/network/lwm2m/wakaama_lwm2m/core\management.c ****         return COAP_404_NOT_FOUND;
 1057              		.loc 2 221 0
 1058 0194 8423     		movs	r3, #132
 1059 0196 B2E2     		b	.L140
 1060              	.L93:
 222:C:/Users/dtjld/Desktop/AIoT_software/LiteOS_Lab_overseas/LiteOS_Lab/iot_link/network/lwm2m/wakaama_lwm2m/core\management.c ****     }
 223:C:/Users/dtjld/Desktop/AIoT_software/LiteOS_Lab_overseas/LiteOS_Lab/iot_link/network/lwm2m/wakaama_lwm2m/core\management.c **** 
 224:C:/Users/dtjld/Desktop/AIoT_software/LiteOS_Lab_overseas/LiteOS_Lab/iot_link/network/lwm2m/wakaama_lwm2m/core\management.c ****     if (serverP->status != STATE_REGISTERED
 1061              		.loc 2 224 0
 1062 0198 7B68     		ldr	r3, [r7, #4]
 1063 019a 93F82030 		ldrb	r3, [r3, #32]	@ zero_extendqisi2
 1064 019e 022B     		cmp	r3, #2
 1065 01a0 10D0     		beq	.L95
 225:C:/Users/dtjld/Desktop/AIoT_software/LiteOS_Lab_overseas/LiteOS_Lab/iot_link/network/lwm2m/wakaama_lwm2m/core\management.c ****             && serverP->status != STATE_REG_UPDATE_NEEDED
 1066              		.loc 2 225 0
 1067 01a2 7B68     		ldr	r3, [r7, #4]
 1068 01a4 93F82030 		ldrb	r3, [r3, #32]	@ zero_extendqisi2
 1069 01a8 052B     		cmp	r3, #5
 1070 01aa 0BD0     		beq	.L95
 226:C:/Users/dtjld/Desktop/AIoT_software/LiteOS_Lab_overseas/LiteOS_Lab/iot_link/network/lwm2m/wakaama_lwm2m/core\management.c ****             && serverP->status != STATE_REG_FULL_UPDATE_NEEDED
 1071              		.loc 2 226 0
 1072 01ac 7B68     		ldr	r3, [r7, #4]
 1073 01ae 93F82030 		ldrb	r3, [r3, #32]	@ zero_extendqisi2
 1074 01b2 062B     		cmp	r3, #6
 1075 01b4 06D0     		beq	.L95
 227:C:/Users/dtjld/Desktop/AIoT_software/LiteOS_Lab_overseas/LiteOS_Lab/iot_link/network/lwm2m/wakaama_lwm2m/core\management.c ****             && serverP->status != STATE_REG_UPDATE_PENDING)
 1076              		.loc 2 227 0
 1077 01b6 7B68     		ldr	r3, [r7, #4]
 1078 01b8 93F82030 		ldrb	r3, [r3, #32]	@ zero_extendqisi2
 1079 01bc 042B     		cmp	r3, #4
 1080 01be 01D0     		beq	.L95
 228:C:/Users/dtjld/Desktop/AIoT_software/LiteOS_Lab_overseas/LiteOS_Lab/iot_link/network/lwm2m/wakaama_lwm2m/core\management.c ****     {
 229:C:/Users/dtjld/Desktop/AIoT_software/LiteOS_Lab_overseas/LiteOS_Lab/iot_link/network/lwm2m/wakaama_lwm2m/core\management.c ****         return COAP_IGNORE;
 1081              		.loc 2 229 0
ARM GAS  C:\Users\dtjld\AppData\Local\Temp\ccGRo6oh.s 			page 32


 1082 01c0 0123     		movs	r3, #1
 1083 01c2 9CE2     		b	.L140
 1084              	.L95:
 230:C:/Users/dtjld/Desktop/AIoT_software/LiteOS_Lab_overseas/LiteOS_Lab/iot_link/network/lwm2m/wakaama_lwm2m/core\management.c ****     }
 231:C:/Users/dtjld/Desktop/AIoT_software/LiteOS_Lab_overseas/LiteOS_Lab/iot_link/network/lwm2m/wakaama_lwm2m/core\management.c **** 
 232:C:/Users/dtjld/Desktop/AIoT_software/LiteOS_Lab_overseas/LiteOS_Lab/iot_link/network/lwm2m/wakaama_lwm2m/core\management.c ****     switch (message->code)
 1085              		.loc 2 232 0
 1086 01c4 3B68     		ldr	r3, [r7]
 1087 01c6 9B79     		ldrb	r3, [r3, #6]	@ zero_extendqisi2
 1088 01c8 013B     		subs	r3, r3, #1
 1089 01ca 032B     		cmp	r3, #3
 1090 01cc 00F28E82 		bhi	.L96
 1091 01d0 01A2     		adr	r2, .L98
 1092 01d2 52F823F0 		ldr	pc, [r2, r3, lsl #2]
 1093 01d6 00BF     		.p2align 2
 1094              	.L98:
 1095 01d8 E9010000 		.word	.L97+1
 1096 01dc 83040000 		.word	.L99+1
 1097 01e0 CD050000 		.word	.L100+1
 1098 01e4 89060000 		.word	.L101+1
 1099              		.p2align 1
 1100              	.L97:
 1101              	.LBB2:
 233:C:/Users/dtjld/Desktop/AIoT_software/LiteOS_Lab_overseas/LiteOS_Lab/iot_link/network/lwm2m/wakaama_lwm2m/core\management.c ****     {
 234:C:/Users/dtjld/Desktop/AIoT_software/LiteOS_Lab_overseas/LiteOS_Lab/iot_link/network/lwm2m/wakaama_lwm2m/core\management.c ****     case COAP_GET:
 235:C:/Users/dtjld/Desktop/AIoT_software/LiteOS_Lab_overseas/LiteOS_Lab/iot_link/network/lwm2m/wakaama_lwm2m/core\management.c ****     {
 236:C:/Users/dtjld/Desktop/AIoT_software/LiteOS_Lab_overseas/LiteOS_Lab/iot_link/network/lwm2m/wakaama_lwm2m/core\management.c ****         uint8_t *buffer = NULL;
 1102              		.loc 2 236 0
 1103 01e8 0023     		movs	r3, #0
 1104 01ea BB65     		str	r3, [r7, #88]
 237:C:/Users/dtjld/Desktop/AIoT_software/LiteOS_Lab_overseas/LiteOS_Lab/iot_link/network/lwm2m/wakaama_lwm2m/core\management.c ****         size_t length = 0;
 1105              		.loc 2 237 0
 1106 01ec 0023     		movs	r3, #0
 1107 01ee 7B65     		str	r3, [r7, #84]
 238:C:/Users/dtjld/Desktop/AIoT_software/LiteOS_Lab_overseas/LiteOS_Lab/iot_link/network/lwm2m/wakaama_lwm2m/core\management.c ****         int res;
 239:C:/Users/dtjld/Desktop/AIoT_software/LiteOS_Lab_overseas/LiteOS_Lab/iot_link/network/lwm2m/wakaama_lwm2m/core\management.c **** 
 240:C:/Users/dtjld/Desktop/AIoT_software/LiteOS_Lab_overseas/LiteOS_Lab/iot_link/network/lwm2m/wakaama_lwm2m/core\management.c ****         if (IS_OPTION(message, COAP_OPTION_OBSERVE))
 1108              		.loc 2 240 0
 1109 01f0 3B68     		ldr	r3, [r7]
 1110 01f2 9B7A     		ldrb	r3, [r3, #10]	@ zero_extendqisi2
 1111 01f4 03F04003 		and	r3, r3, #64
 1112 01f8 002B     		cmp	r3, #0
 1113 01fa 00F0C780 		beq	.L102
 1114              	.LBB3:
 241:C:/Users/dtjld/Desktop/AIoT_software/LiteOS_Lab_overseas/LiteOS_Lab/iot_link/network/lwm2m/wakaama_lwm2m/core\management.c ****         {
 242:C:/Users/dtjld/Desktop/AIoT_software/LiteOS_Lab_overseas/LiteOS_Lab/iot_link/network/lwm2m/wakaama_lwm2m/core\management.c ****             lwm2m_data_t *dataP = NULL;
 1115              		.loc 2 242 0
 1116 01fe 0023     		movs	r3, #0
 1117 0200 3B65     		str	r3, [r7, #80]
 243:C:/Users/dtjld/Desktop/AIoT_software/LiteOS_Lab_overseas/LiteOS_Lab/iot_link/network/lwm2m/wakaama_lwm2m/core\management.c ****             int size = 0;
 1118              		.loc 2 243 0
 1119 0202 0023     		movs	r3, #0
 1120 0204 FB64     		str	r3, [r7, #76]
 244:C:/Users/dtjld/Desktop/AIoT_software/LiteOS_Lab_overseas/LiteOS_Lab/iot_link/network/lwm2m/wakaama_lwm2m/core\management.c **** 
 245:C:/Users/dtjld/Desktop/AIoT_software/LiteOS_Lab_overseas/LiteOS_Lab/iot_link/network/lwm2m/wakaama_lwm2m/core\management.c ****             if ((result = acc_auth_operate(contextP, uriP, OBJ_ACC_OBSERVE, serverP->shortID)) != C
 1121              		.loc 2 245 0
 1122 0206 7B68     		ldr	r3, [r7, #4]
ARM GAS  C:\Users\dtjld\AppData\Local\Temp\ccGRo6oh.s 			page 33


 1123 0208 DB88     		ldrh	r3, [r3, #6]
 1124 020a 0022     		movs	r2, #0
 1125 020c B968     		ldr	r1, [r7, #8]
 1126 020e F868     		ldr	r0, [r7, #12]
 1127 0210 FFF7FEFF 		bl	acc_auth_operate
 1128 0214 0346     		mov	r3, r0
 1129 0216 87F86730 		strb	r3, [r7, #103]
 1130 021a 97F86730 		ldrb	r3, [r7, #103]	@ zero_extendqisi2
 1131 021e 002B     		cmp	r3, #0
 1132 0220 02D0     		beq	.L103
 246:C:/Users/dtjld/Desktop/AIoT_software/LiteOS_Lab_overseas/LiteOS_Lab/iot_link/network/lwm2m/wakaama_lwm2m/core\management.c ****             {
 247:C:/Users/dtjld/Desktop/AIoT_software/LiteOS_Lab_overseas/LiteOS_Lab/iot_link/network/lwm2m/wakaama_lwm2m/core\management.c ****                 return result;
 1133              		.loc 2 247 0
 1134 0222 97F86730 		ldrb	r3, [r7, #103]	@ zero_extendqisi2
 1135 0226 6AE2     		b	.L140
 1136              	.L103:
 248:C:/Users/dtjld/Desktop/AIoT_software/LiteOS_Lab_overseas/LiteOS_Lab/iot_link/network/lwm2m/wakaama_lwm2m/core\management.c ****             }
 249:C:/Users/dtjld/Desktop/AIoT_software/LiteOS_Lab_overseas/LiteOS_Lab/iot_link/network/lwm2m/wakaama_lwm2m/core\management.c **** 
 250:C:/Users/dtjld/Desktop/AIoT_software/LiteOS_Lab_overseas/LiteOS_Lab/iot_link/network/lwm2m/wakaama_lwm2m/core\management.c ****             result = object_readData(contextP, uriP, &size, &dataP, NULL, serverP->shortID);
 1137              		.loc 2 250 0
 1138 0228 7B68     		ldr	r3, [r7, #4]
 1139 022a DB88     		ldrh	r3, [r3, #6]
 1140 022c 07F15001 		add	r1, r7, #80
 1141 0230 07F14C02 		add	r2, r7, #76
 1142 0234 0193     		str	r3, [sp, #4]
 1143 0236 0023     		movs	r3, #0
 1144 0238 0093     		str	r3, [sp]
 1145 023a 0B46     		mov	r3, r1
 1146 023c B968     		ldr	r1, [r7, #8]
 1147 023e F868     		ldr	r0, [r7, #12]
 1148 0240 FFF7FEFF 		bl	object_readData
 1149 0244 0346     		mov	r3, r0
 1150 0246 87F86730 		strb	r3, [r7, #103]
 251:C:/Users/dtjld/Desktop/AIoT_software/LiteOS_Lab_overseas/LiteOS_Lab/iot_link/network/lwm2m/wakaama_lwm2m/core\management.c ****             if (COAP_205_CONTENT == result)
 1151              		.loc 2 251 0
 1152 024a 97F86730 		ldrb	r3, [r7, #103]	@ zero_extendqisi2
 1153 024e 452B     		cmp	r3, #69
 1154 0250 40F00181 		bne	.L111
 252:C:/Users/dtjld/Desktop/AIoT_software/LiteOS_Lab_overseas/LiteOS_Lab/iot_link/network/lwm2m/wakaama_lwm2m/core\management.c ****             {
 253:C:/Users/dtjld/Desktop/AIoT_software/LiteOS_Lab_overseas/LiteOS_Lab/iot_link/network/lwm2m/wakaama_lwm2m/core\management.c ****                 result = observe_handleRequest(contextP, uriP, serverP, size, dataP, message, respo
 1155              		.loc 2 253 0
 1156 0254 F96C     		ldr	r1, [r7, #76]
 1157 0256 3B6D     		ldr	r3, [r7, #80]
 1158 0258 BA6F     		ldr	r2, [r7, #120]
 1159 025a 0292     		str	r2, [sp, #8]
 1160 025c 3A68     		ldr	r2, [r7]
 1161 025e 0192     		str	r2, [sp, #4]
 1162 0260 0093     		str	r3, [sp]
 1163 0262 0B46     		mov	r3, r1
 1164 0264 7A68     		ldr	r2, [r7, #4]
 1165 0266 B968     		ldr	r1, [r7, #8]
 1166 0268 F868     		ldr	r0, [r7, #12]
 1167 026a FFF7FEFF 		bl	observe_handleRequest
 1168 026e 0346     		mov	r3, r0
 1169 0270 87F86730 		strb	r3, [r7, #103]
 254:C:/Users/dtjld/Desktop/AIoT_software/LiteOS_Lab_overseas/LiteOS_Lab/iot_link/network/lwm2m/wakaama_lwm2m/core\management.c ****                 if (COAP_205_CONTENT == result)
 1170              		.loc 2 254 0
ARM GAS  C:\Users\dtjld\AppData\Local\Temp\ccGRo6oh.s 			page 34


 1171 0274 97F86730 		ldrb	r3, [r7, #103]	@ zero_extendqisi2
 1172 0278 452B     		cmp	r3, #69
 1173 027a 52D1     		bne	.L106
 255:C:/Users/dtjld/Desktop/AIoT_software/LiteOS_Lab_overseas/LiteOS_Lab/iot_link/network/lwm2m/wakaama_lwm2m/core\management.c ****                 {
 256:C:/Users/dtjld/Desktop/AIoT_software/LiteOS_Lab_overseas/LiteOS_Lab/iot_link/network/lwm2m/wakaama_lwm2m/core\management.c ****                     if (IS_OPTION(message, COAP_OPTION_ACCEPT))
 1174              		.loc 2 256 0
 1175 027c 3B68     		ldr	r3, [r7]
 1176 027e 1B7B     		ldrb	r3, [r3, #12]	@ zero_extendqisi2
 1177 0280 03F00203 		and	r3, r3, #2
 1178 0284 002B     		cmp	r3, #0
 1179 0286 09D0     		beq	.L107
 257:C:/Users/dtjld/Desktop/AIoT_software/LiteOS_Lab_overseas/LiteOS_Lab/iot_link/network/lwm2m/wakaama_lwm2m/core\management.c ****                     {
 258:C:/Users/dtjld/Desktop/AIoT_software/LiteOS_Lab_overseas/LiteOS_Lab/iot_link/network/lwm2m/wakaama_lwm2m/core\management.c ****                         format = utils_convertMediaType((coap_content_type_t)message->accept[0]);
 1180              		.loc 2 258 0
 1181 0288 3B68     		ldr	r3, [r7]
 1182 028a B3F85630 		ldrh	r3, [r3, #86]
 1183 028e 1846     		mov	r0, r3
 1184 0290 FFF7FEFF 		bl	utils_convertMediaType
 1185 0294 0346     		mov	r3, r0
 1186 0296 A7F85E30 		strh	r3, [r7, #94]	@ movhi
 1187 029a 03E0     		b	.L108
 1188              	.L107:
 259:C:/Users/dtjld/Desktop/AIoT_software/LiteOS_Lab_overseas/LiteOS_Lab/iot_link/network/lwm2m/wakaama_lwm2m/core\management.c ****                     }
 260:C:/Users/dtjld/Desktop/AIoT_software/LiteOS_Lab_overseas/LiteOS_Lab/iot_link/network/lwm2m/wakaama_lwm2m/core\management.c ****                     else
 261:C:/Users/dtjld/Desktop/AIoT_software/LiteOS_Lab_overseas/LiteOS_Lab/iot_link/network/lwm2m/wakaama_lwm2m/core\management.c ****                     {
 262:C:/Users/dtjld/Desktop/AIoT_software/LiteOS_Lab_overseas/LiteOS_Lab/iot_link/network/lwm2m/wakaama_lwm2m/core\management.c ****                         format = LWM2M_CONTENT_TLV;
 1189              		.loc 2 262 0
 1190 029c 42F61653 		movw	r3, #11542
 1191 02a0 A7F85E30 		strh	r3, [r7, #94]	@ movhi
 1192              	.L108:
 263:C:/Users/dtjld/Desktop/AIoT_software/LiteOS_Lab_overseas/LiteOS_Lab/iot_link/network/lwm2m/wakaama_lwm2m/core\management.c ****                     }
 264:C:/Users/dtjld/Desktop/AIoT_software/LiteOS_Lab_overseas/LiteOS_Lab/iot_link/network/lwm2m/wakaama_lwm2m/core\management.c **** 
 265:C:/Users/dtjld/Desktop/AIoT_software/LiteOS_Lab_overseas/LiteOS_Lab/iot_link/network/lwm2m/wakaama_lwm2m/core\management.c ****                     if(dm_isUriOpaqueHandle(uriP))
 1193              		.loc 2 265 0
 1194 02a4 B868     		ldr	r0, [r7, #8]
 1195 02a6 FFF7FEFF 		bl	dm_isUriOpaqueHandle
 1196 02aa 0346     		mov	r3, r0
 1197 02ac 002B     		cmp	r3, #0
 1198 02ae 07D0     		beq	.L109
 266:C:/Users/dtjld/Desktop/AIoT_software/LiteOS_Lab_overseas/LiteOS_Lab/iot_link/network/lwm2m/wakaama_lwm2m/core\management.c ****                     {
 267:C:/Users/dtjld/Desktop/AIoT_software/LiteOS_Lab_overseas/LiteOS_Lab/iot_link/network/lwm2m/wakaama_lwm2m/core\management.c ****                         buffer = NULL;
 1199              		.loc 2 267 0
 1200 02b0 0023     		movs	r3, #0
 1201 02b2 BB65     		str	r3, [r7, #88]
 268:C:/Users/dtjld/Desktop/AIoT_software/LiteOS_Lab_overseas/LiteOS_Lab/iot_link/network/lwm2m/wakaama_lwm2m/core\management.c ****                         length = 0;
 1202              		.loc 2 268 0
 1203 02b4 0023     		movs	r3, #0
 1204 02b6 7B65     		str	r3, [r7, #84]
 269:C:/Users/dtjld/Desktop/AIoT_software/LiteOS_Lab_overseas/LiteOS_Lab/iot_link/network/lwm2m/wakaama_lwm2m/core\management.c ****                         format = LWM2M_CONTENT_OPAQUE;
 1205              		.loc 2 269 0
 1206 02b8 2A23     		movs	r3, #42
 1207 02ba A7F85E30 		strh	r3, [r7, #94]	@ movhi
 1208 02be 30E0     		b	.L106
 1209              	.L109:
 270:C:/Users/dtjld/Desktop/AIoT_software/LiteOS_Lab_overseas/LiteOS_Lab/iot_link/network/lwm2m/wakaama_lwm2m/core\management.c ****                     }
 271:C:/Users/dtjld/Desktop/AIoT_software/LiteOS_Lab_overseas/LiteOS_Lab/iot_link/network/lwm2m/wakaama_lwm2m/core\management.c ****                     else
 272:C:/Users/dtjld/Desktop/AIoT_software/LiteOS_Lab_overseas/LiteOS_Lab/iot_link/network/lwm2m/wakaama_lwm2m/core\management.c ****                     {
ARM GAS  C:\Users\dtjld\AppData\Local\Temp\ccGRo6oh.s 			page 35


 273:C:/Users/dtjld/Desktop/AIoT_software/LiteOS_Lab_overseas/LiteOS_Lab/iot_link/network/lwm2m/wakaama_lwm2m/core\management.c ****                         res = lwm2m_data_serialize(uriP, size, dataP, &format, &buffer);
 1210              		.loc 2 273 0
 1211 02c0 F96C     		ldr	r1, [r7, #76]
 1212 02c2 3A6D     		ldr	r2, [r7, #80]
 1213 02c4 07F15E00 		add	r0, r7, #94
 1214 02c8 07F15803 		add	r3, r7, #88
 1215 02cc 0093     		str	r3, [sp]
 1216 02ce 0346     		mov	r3, r0
 1217 02d0 B868     		ldr	r0, [r7, #8]
 1218 02d2 FFF7FEFF 		bl	lwm2m_data_serialize
 1219 02d6 3866     		str	r0, [r7, #96]
 274:C:/Users/dtjld/Desktop/AIoT_software/LiteOS_Lab_overseas/LiteOS_Lab/iot_link/network/lwm2m/wakaama_lwm2m/core\management.c ****                         if (res < 0)
 1220              		.loc 2 274 0
 1221 02d8 3B6E     		ldr	r3, [r7, #96]
 1222 02da 002B     		cmp	r3, #0
 1223 02dc 03DA     		bge	.L110
 275:C:/Users/dtjld/Desktop/AIoT_software/LiteOS_Lab_overseas/LiteOS_Lab/iot_link/network/lwm2m/wakaama_lwm2m/core\management.c ****                         {
 276:C:/Users/dtjld/Desktop/AIoT_software/LiteOS_Lab_overseas/LiteOS_Lab/iot_link/network/lwm2m/wakaama_lwm2m/core\management.c ****                             result = COAP_500_INTERNAL_SERVER_ERROR;
 1224              		.loc 2 276 0
 1225 02de A023     		movs	r3, #160
 1226 02e0 87F86730 		strb	r3, [r7, #103]
 1227 02e4 1DE0     		b	.L106
 1228              	.L110:
 277:C:/Users/dtjld/Desktop/AIoT_software/LiteOS_Lab_overseas/LiteOS_Lab/iot_link/network/lwm2m/wakaama_lwm2m/core\management.c ****                         }
 278:C:/Users/dtjld/Desktop/AIoT_software/LiteOS_Lab_overseas/LiteOS_Lab/iot_link/network/lwm2m/wakaama_lwm2m/core\management.c ****                         else
 279:C:/Users/dtjld/Desktop/AIoT_software/LiteOS_Lab_overseas/LiteOS_Lab/iot_link/network/lwm2m/wakaama_lwm2m/core\management.c ****                         {
 280:C:/Users/dtjld/Desktop/AIoT_software/LiteOS_Lab_overseas/LiteOS_Lab/iot_link/network/lwm2m/wakaama_lwm2m/core\management.c ****                             length = (size_t)res;
 1229              		.loc 2 280 0
 1230 02e6 3B6E     		ldr	r3, [r7, #96]
 1231 02e8 7B65     		str	r3, [r7, #84]
 281:C:/Users/dtjld/Desktop/AIoT_software/LiteOS_Lab_overseas/LiteOS_Lab/iot_link/network/lwm2m/wakaama_lwm2m/core\management.c ****                             LOG_ARG("Observe Request[/%d/%d/%d]: %.*s\n", uriP->objectId, uriP->ins
 1232              		.loc 2 281 0
 1233 02ea FFF7FEFF 		bl	lwm2m_gettime
 1234 02ee 0346     		mov	r3, r0
 1235 02f0 0C46     		mov	r4, r1
 1236 02f2 1D46     		mov	r5, r3
 1237 02f4 BB68     		ldr	r3, [r7, #8]
 1238 02f6 5B88     		ldrh	r3, [r3, #2]
 1239 02f8 1946     		mov	r1, r3
 1240 02fa BB68     		ldr	r3, [r7, #8]
 1241 02fc 9B88     		ldrh	r3, [r3, #4]
 1242 02fe 1846     		mov	r0, r3
 1243 0300 BB68     		ldr	r3, [r7, #8]
 1244 0302 DB88     		ldrh	r3, [r3, #6]
 1245 0304 1C46     		mov	r4, r3
 1246 0306 7B6D     		ldr	r3, [r7, #84]
 1247 0308 BA6D     		ldr	r2, [r7, #88]
 1248 030a 0492     		str	r2, [sp, #16]
 1249 030c 0393     		str	r3, [sp, #12]
 1250 030e 0294     		str	r4, [sp, #8]
 1251 0310 0190     		str	r0, [sp, #4]
 1252 0312 0091     		str	r1, [sp]
 1253 0314 40F21913 		movw	r3, #281
 1254 0318 154A     		ldr	r2, .L143+64
 1255 031a 2946     		mov	r1, r5
 1256 031c 1A48     		ldr	r0, .L143+88
 1257 031e FFF7FEFF 		bl	atiny_printf
ARM GAS  C:\Users\dtjld\AppData\Local\Temp\ccGRo6oh.s 			page 36


 1258              	.L106:
 282:C:/Users/dtjld/Desktop/AIoT_software/LiteOS_Lab_overseas/LiteOS_Lab/iot_link/network/lwm2m/wakaama_lwm2m/core\management.c ****                         }
 283:C:/Users/dtjld/Desktop/AIoT_software/LiteOS_Lab_overseas/LiteOS_Lab/iot_link/network/lwm2m/wakaama_lwm2m/core\management.c ****                     }
 284:C:/Users/dtjld/Desktop/AIoT_software/LiteOS_Lab_overseas/LiteOS_Lab/iot_link/network/lwm2m/wakaama_lwm2m/core\management.c ****                 }
 285:C:/Users/dtjld/Desktop/AIoT_software/LiteOS_Lab_overseas/LiteOS_Lab/iot_link/network/lwm2m/wakaama_lwm2m/core\management.c ****                 lwm2m_data_free(size, dataP);
 1259              		.loc 2 285 0
 1260 0322 FB6C     		ldr	r3, [r7, #76]
 1261 0324 3A6D     		ldr	r2, [r7, #80]
 1262 0326 1146     		mov	r1, r2
 1263 0328 1846     		mov	r0, r3
 1264 032a FFF7FEFF 		bl	lwm2m_data_free
 1265 032e 92E0     		b	.L111
 1266              	.L144:
 1267              		.align	2
 1268              	.L143:
 1269 0330 1C000000 		.word	.LC5
 1270 0334 2C000000 		.word	.LC6
 1271 0338 34000000 		.word	.LC7
 1272 033c 48000000 		.word	.LC8
 1273 0340 5C000000 		.word	.LC9
 1274 0344 70000000 		.word	.LC10
 1275 0348 84000000 		.word	.LC11
 1276 034c 98000000 		.word	.LC12
 1277 0350 AC000000 		.word	.LC13
 1278 0354 C0000000 		.word	.LC14
 1279 0358 E0000000 		.word	.LC15
 1280 035c F8000000 		.word	.LC16
 1281 0360 14010000 		.word	.LC17
 1282 0364 28010000 		.word	.LC18
 1283 0368 3C010000 		.word	.LC19
 1284 036c 50010000 		.word	.LC20
 1285 0370 00000000 		.word	__func__.8841
 1286 0374 64010000 		.word	.LC21
 1287 0378 90010000 		.word	.LC22
 1288 037c A0010000 		.word	.LC23
 1289 0380 AC010000 		.word	.LC24
 1290 0384 B0010000 		.word	.LC25
 1291 0388 B4010000 		.word	.LC26
 1292              	.L102:
 1293              	.LBE3:
 286:C:/Users/dtjld/Desktop/AIoT_software/LiteOS_Lab_overseas/LiteOS_Lab/iot_link/network/lwm2m/wakaama_lwm2m/core\management.c ****             }
 287:C:/Users/dtjld/Desktop/AIoT_software/LiteOS_Lab_overseas/LiteOS_Lab/iot_link/network/lwm2m/wakaama_lwm2m/core\management.c ****         }
 288:C:/Users/dtjld/Desktop/AIoT_software/LiteOS_Lab_overseas/LiteOS_Lab/iot_link/network/lwm2m/wakaama_lwm2m/core\management.c ****         else if (IS_OPTION(message, COAP_OPTION_ACCEPT)
 1294              		.loc 2 288 0
 1295 038c 3B68     		ldr	r3, [r7]
 1296 038e 1B7B     		ldrb	r3, [r3, #12]	@ zero_extendqisi2
 1297 0390 03F00203 		and	r3, r3, #2
 1298 0394 002B     		cmp	r3, #0
 1299 0396 2CD0     		beq	.L112
 289:C:/Users/dtjld/Desktop/AIoT_software/LiteOS_Lab_overseas/LiteOS_Lab/iot_link/network/lwm2m/wakaama_lwm2m/core\management.c ****                  && message->accept_num == 1
 1300              		.loc 2 289 0
 1301 0398 3B68     		ldr	r3, [r7]
 1302 039a 93F85530 		ldrb	r3, [r3, #85]	@ zero_extendqisi2
 1303 039e 012B     		cmp	r3, #1
 1304 03a0 27D1     		bne	.L112
 290:C:/Users/dtjld/Desktop/AIoT_software/LiteOS_Lab_overseas/LiteOS_Lab/iot_link/network/lwm2m/wakaama_lwm2m/core\management.c ****                  && message->accept[0] == APPLICATION_LINK_FORMAT)
 1305              		.loc 2 290 0
ARM GAS  C:\Users\dtjld\AppData\Local\Temp\ccGRo6oh.s 			page 37


 1306 03a2 3B68     		ldr	r3, [r7]
 1307 03a4 B3F85630 		ldrh	r3, [r3, #86]
 1308 03a8 282B     		cmp	r3, #40
 1309 03aa 22D1     		bne	.L112
 291:C:/Users/dtjld/Desktop/AIoT_software/LiteOS_Lab_overseas/LiteOS_Lab/iot_link/network/lwm2m/wakaama_lwm2m/core\management.c ****         {
 292:C:/Users/dtjld/Desktop/AIoT_software/LiteOS_Lab_overseas/LiteOS_Lab/iot_link/network/lwm2m/wakaama_lwm2m/core\management.c ****             if ((result = acc_auth_operate(contextP, uriP, OBJ_ACC_DISCOVER, serverP->shortID)) != 
 1310              		.loc 2 292 0
 1311 03ac 7B68     		ldr	r3, [r7, #4]
 1312 03ae DB88     		ldrh	r3, [r3, #6]
 1313 03b0 0522     		movs	r2, #5
 1314 03b2 B968     		ldr	r1, [r7, #8]
 1315 03b4 F868     		ldr	r0, [r7, #12]
 1316 03b6 FFF7FEFF 		bl	acc_auth_operate
 1317 03ba 0346     		mov	r3, r0
 1318 03bc 87F86730 		strb	r3, [r7, #103]
 1319 03c0 97F86730 		ldrb	r3, [r7, #103]	@ zero_extendqisi2
 1320 03c4 002B     		cmp	r3, #0
 1321 03c6 02D0     		beq	.L113
 293:C:/Users/dtjld/Desktop/AIoT_software/LiteOS_Lab_overseas/LiteOS_Lab/iot_link/network/lwm2m/wakaama_lwm2m/core\management.c ****             {
 294:C:/Users/dtjld/Desktop/AIoT_software/LiteOS_Lab_overseas/LiteOS_Lab/iot_link/network/lwm2m/wakaama_lwm2m/core\management.c ****                 return result;
 1322              		.loc 2 294 0
 1323 03c8 97F86730 		ldrb	r3, [r7, #103]	@ zero_extendqisi2
 1324 03cc 97E1     		b	.L140
 1325              	.L113:
 295:C:/Users/dtjld/Desktop/AIoT_software/LiteOS_Lab_overseas/LiteOS_Lab/iot_link/network/lwm2m/wakaama_lwm2m/core\management.c ****             }
 296:C:/Users/dtjld/Desktop/AIoT_software/LiteOS_Lab_overseas/LiteOS_Lab/iot_link/network/lwm2m/wakaama_lwm2m/core\management.c ****             format = LWM2M_CONTENT_LINK;
 1326              		.loc 2 296 0
 1327 03ce 2823     		movs	r3, #40
 1328 03d0 A7F85E30 		strh	r3, [r7, #94]	@ movhi
 297:C:/Users/dtjld/Desktop/AIoT_software/LiteOS_Lab_overseas/LiteOS_Lab/iot_link/network/lwm2m/wakaama_lwm2m/core\management.c ****             result = object_discover(contextP, uriP, serverP, &buffer, &length);
 1329              		.loc 2 297 0
 1330 03d4 07F15802 		add	r2, r7, #88
 1331 03d8 07F15403 		add	r3, r7, #84
 1332 03dc 0093     		str	r3, [sp]
 1333 03de 1346     		mov	r3, r2
 1334 03e0 7A68     		ldr	r2, [r7, #4]
 1335 03e2 B968     		ldr	r1, [r7, #8]
 1336 03e4 F868     		ldr	r0, [r7, #12]
 1337 03e6 FFF7FEFF 		bl	object_discover
 1338 03ea 0346     		mov	r3, r0
 1339 03ec 87F86730 		strb	r3, [r7, #103]
 1340 03f0 31E0     		b	.L111
 1341              	.L112:
 298:C:/Users/dtjld/Desktop/AIoT_software/LiteOS_Lab_overseas/LiteOS_Lab/iot_link/network/lwm2m/wakaama_lwm2m/core\management.c ****         }
 299:C:/Users/dtjld/Desktop/AIoT_software/LiteOS_Lab_overseas/LiteOS_Lab/iot_link/network/lwm2m/wakaama_lwm2m/core\management.c ****         else
 300:C:/Users/dtjld/Desktop/AIoT_software/LiteOS_Lab_overseas/LiteOS_Lab/iot_link/network/lwm2m/wakaama_lwm2m/core\management.c ****         {
 301:C:/Users/dtjld/Desktop/AIoT_software/LiteOS_Lab_overseas/LiteOS_Lab/iot_link/network/lwm2m/wakaama_lwm2m/core\management.c ****             if ((result = acc_auth_operate(contextP, uriP, OBJ_ACC_READ, serverP->shortID)) != COAP
 1342              		.loc 2 301 0
 1343 03f2 7B68     		ldr	r3, [r7, #4]
 1344 03f4 DB88     		ldrh	r3, [r3, #6]
 1345 03f6 0022     		movs	r2, #0
 1346 03f8 B968     		ldr	r1, [r7, #8]
 1347 03fa F868     		ldr	r0, [r7, #12]
 1348 03fc FFF7FEFF 		bl	acc_auth_operate
 1349 0400 0346     		mov	r3, r0
 1350 0402 87F86730 		strb	r3, [r7, #103]
 1351 0406 97F86730 		ldrb	r3, [r7, #103]	@ zero_extendqisi2
ARM GAS  C:\Users\dtjld\AppData\Local\Temp\ccGRo6oh.s 			page 38


 1352 040a 002B     		cmp	r3, #0
 1353 040c 02D0     		beq	.L114
 302:C:/Users/dtjld/Desktop/AIoT_software/LiteOS_Lab_overseas/LiteOS_Lab/iot_link/network/lwm2m/wakaama_lwm2m/core\management.c ****             {
 303:C:/Users/dtjld/Desktop/AIoT_software/LiteOS_Lab_overseas/LiteOS_Lab/iot_link/network/lwm2m/wakaama_lwm2m/core\management.c ****                 return result;
 1354              		.loc 2 303 0
 1355 040e 97F86730 		ldrb	r3, [r7, #103]	@ zero_extendqisi2
 1356 0412 74E1     		b	.L140
 1357              	.L114:
 304:C:/Users/dtjld/Desktop/AIoT_software/LiteOS_Lab_overseas/LiteOS_Lab/iot_link/network/lwm2m/wakaama_lwm2m/core\management.c ****             }
 305:C:/Users/dtjld/Desktop/AIoT_software/LiteOS_Lab_overseas/LiteOS_Lab/iot_link/network/lwm2m/wakaama_lwm2m/core\management.c ****             if (IS_OPTION(message, COAP_OPTION_ACCEPT))
 1358              		.loc 2 305 0
 1359 0414 3B68     		ldr	r3, [r7]
 1360 0416 1B7B     		ldrb	r3, [r3, #12]	@ zero_extendqisi2
 1361 0418 03F00203 		and	r3, r3, #2
 1362 041c 002B     		cmp	r3, #0
 1363 041e 08D0     		beq	.L115
 306:C:/Users/dtjld/Desktop/AIoT_software/LiteOS_Lab_overseas/LiteOS_Lab/iot_link/network/lwm2m/wakaama_lwm2m/core\management.c ****             {
 307:C:/Users/dtjld/Desktop/AIoT_software/LiteOS_Lab_overseas/LiteOS_Lab/iot_link/network/lwm2m/wakaama_lwm2m/core\management.c ****                 format = utils_convertMediaType((coap_content_type_t)message->accept[0]);
 1364              		.loc 2 307 0
 1365 0420 3B68     		ldr	r3, [r7]
 1366 0422 B3F85630 		ldrh	r3, [r3, #86]
 1367 0426 1846     		mov	r0, r3
 1368 0428 FFF7FEFF 		bl	utils_convertMediaType
 1369 042c 0346     		mov	r3, r0
 1370 042e A7F85E30 		strh	r3, [r7, #94]	@ movhi
 1371              	.L115:
 308:C:/Users/dtjld/Desktop/AIoT_software/LiteOS_Lab_overseas/LiteOS_Lab/iot_link/network/lwm2m/wakaama_lwm2m/core\management.c ****             }
 309:C:/Users/dtjld/Desktop/AIoT_software/LiteOS_Lab_overseas/LiteOS_Lab/iot_link/network/lwm2m/wakaama_lwm2m/core\management.c **** 
 310:C:/Users/dtjld/Desktop/AIoT_software/LiteOS_Lab_overseas/LiteOS_Lab/iot_link/network/lwm2m/wakaama_lwm2m/core\management.c ****             result = object_read(contextP, uriP, &format, &buffer, &length, serverP->shortID);
 1372              		.loc 2 310 0
 1373 0432 7B68     		ldr	r3, [r7, #4]
 1374 0434 DB88     		ldrh	r3, [r3, #6]
 1375 0436 07F15801 		add	r1, r7, #88
 1376 043a 07F15E02 		add	r2, r7, #94
 1377 043e 0193     		str	r3, [sp, #4]
 1378 0440 07F15403 		add	r3, r7, #84
 1379 0444 0093     		str	r3, [sp]
 1380 0446 0B46     		mov	r3, r1
 1381 0448 B968     		ldr	r1, [r7, #8]
 1382 044a F868     		ldr	r0, [r7, #12]
 1383 044c FFF7FEFF 		bl	object_read
 1384 0450 0346     		mov	r3, r0
 1385 0452 87F86730 		strb	r3, [r7, #103]
 1386              	.L111:
 311:C:/Users/dtjld/Desktop/AIoT_software/LiteOS_Lab_overseas/LiteOS_Lab/iot_link/network/lwm2m/wakaama_lwm2m/core\management.c ****         }
 312:C:/Users/dtjld/Desktop/AIoT_software/LiteOS_Lab_overseas/LiteOS_Lab/iot_link/network/lwm2m/wakaama_lwm2m/core\management.c ****         if (COAP_205_CONTENT == result)
 1387              		.loc 2 312 0
 1388 0456 97F86730 		ldrb	r3, [r7, #103]	@ zero_extendqisi2
 1389 045a 452B     		cmp	r3, #69
 1390 045c 0CD1     		bne	.L116
 313:C:/Users/dtjld/Desktop/AIoT_software/LiteOS_Lab_overseas/LiteOS_Lab/iot_link/network/lwm2m/wakaama_lwm2m/core\management.c ****         {
 314:C:/Users/dtjld/Desktop/AIoT_software/LiteOS_Lab_overseas/LiteOS_Lab/iot_link/network/lwm2m/wakaama_lwm2m/core\management.c ****             coap_set_header_content_type(response, format);
 1391              		.loc 2 314 0
 1392 045e B7F85E30 		ldrh	r3, [r7, #94]
 1393 0462 1946     		mov	r1, r3
 1394 0464 B86F     		ldr	r0, [r7, #120]
 1395 0466 FFF7FEFF 		bl	coap_set_header_content_type
ARM GAS  C:\Users\dtjld\AppData\Local\Temp\ccGRo6oh.s 			page 39


 315:C:/Users/dtjld/Desktop/AIoT_software/LiteOS_Lab_overseas/LiteOS_Lab/iot_link/network/lwm2m/wakaama_lwm2m/core\management.c ****             coap_set_payload(response, buffer, length);
 1396              		.loc 2 315 0
 1397 046a BB6D     		ldr	r3, [r7, #88]
 1398 046c 7A6D     		ldr	r2, [r7, #84]
 1399 046e 1946     		mov	r1, r3
 1400 0470 B86F     		ldr	r0, [r7, #120]
 1401 0472 FFF7FEFF 		bl	coap_set_payload
 1402              	.LBE2:
 316:C:/Users/dtjld/Desktop/AIoT_software/LiteOS_Lab_overseas/LiteOS_Lab/iot_link/network/lwm2m/wakaama_lwm2m/core\management.c ****             // lwm2m_handle_packet will free buffer
 317:C:/Users/dtjld/Desktop/AIoT_software/LiteOS_Lab_overseas/LiteOS_Lab/iot_link/network/lwm2m/wakaama_lwm2m/core\management.c ****         }
 318:C:/Users/dtjld/Desktop/AIoT_software/LiteOS_Lab_overseas/LiteOS_Lab/iot_link/network/lwm2m/wakaama_lwm2m/core\management.c ****         else
 319:C:/Users/dtjld/Desktop/AIoT_software/LiteOS_Lab_overseas/LiteOS_Lab/iot_link/network/lwm2m/wakaama_lwm2m/core\management.c ****         {
 320:C:/Users/dtjld/Desktop/AIoT_software/LiteOS_Lab_overseas/LiteOS_Lab/iot_link/network/lwm2m/wakaama_lwm2m/core\management.c ****             lwm2m_free(buffer);
 321:C:/Users/dtjld/Desktop/AIoT_software/LiteOS_Lab_overseas/LiteOS_Lab/iot_link/network/lwm2m/wakaama_lwm2m/core\management.c ****         }
 322:C:/Users/dtjld/Desktop/AIoT_software/LiteOS_Lab_overseas/LiteOS_Lab/iot_link/network/lwm2m/wakaama_lwm2m/core\management.c ****     }
 323:C:/Users/dtjld/Desktop/AIoT_software/LiteOS_Lab_overseas/LiteOS_Lab/iot_link/network/lwm2m/wakaama_lwm2m/core\management.c ****     break;
 1403              		.loc 2 323 0
 1404 0476 40E1     		b	.L118
 1405              	.L116:
 1406              	.LBB4:
 320:C:/Users/dtjld/Desktop/AIoT_software/LiteOS_Lab_overseas/LiteOS_Lab/iot_link/network/lwm2m/wakaama_lwm2m/core\management.c ****         }
 1407              		.loc 2 320 0
 1408 0478 BB6D     		ldr	r3, [r7, #88]
 1409 047a 1846     		mov	r0, r3
 1410 047c FFF7FEFF 		bl	lwm2m_free
 1411              	.LBE4:
 1412              		.loc 2 323 0
 1413 0480 3BE1     		b	.L118
 1414              	.L99:
 324:C:/Users/dtjld/Desktop/AIoT_software/LiteOS_Lab_overseas/LiteOS_Lab/iot_link/network/lwm2m/wakaama_lwm2m/core\management.c **** 
 325:C:/Users/dtjld/Desktop/AIoT_software/LiteOS_Lab_overseas/LiteOS_Lab/iot_link/network/lwm2m/wakaama_lwm2m/core\management.c ****     case COAP_POST:
 326:C:/Users/dtjld/Desktop/AIoT_software/LiteOS_Lab_overseas/LiteOS_Lab/iot_link/network/lwm2m/wakaama_lwm2m/core\management.c ****     {
 327:C:/Users/dtjld/Desktop/AIoT_software/LiteOS_Lab_overseas/LiteOS_Lab/iot_link/network/lwm2m/wakaama_lwm2m/core\management.c ****         if (!LWM2M_URI_IS_SET_INSTANCE(uriP))
 1415              		.loc 2 327 0
 1416 0482 BB68     		ldr	r3, [r7, #8]
 1417 0484 1B78     		ldrb	r3, [r3]	@ zero_extendqisi2
 1418 0486 03F00203 		and	r3, r3, #2
 1419 048a 002B     		cmp	r3, #0
 1420 048c 56D1     		bne	.L119
 328:C:/Users/dtjld/Desktop/AIoT_software/LiteOS_Lab_overseas/LiteOS_Lab/iot_link/network/lwm2m/wakaama_lwm2m/core\management.c ****         {
 329:C:/Users/dtjld/Desktop/AIoT_software/LiteOS_Lab_overseas/LiteOS_Lab/iot_link/network/lwm2m/wakaama_lwm2m/core\management.c ****             if ((result = acc_auth_operate(contextP, uriP, OBJ_ACC_CREATE, serverP->shortID)) != CO
 1421              		.loc 2 329 0
 1422 048e 7B68     		ldr	r3, [r7, #4]
 1423 0490 DB88     		ldrh	r3, [r3, #6]
 1424 0492 0422     		movs	r2, #4
 1425 0494 B968     		ldr	r1, [r7, #8]
 1426 0496 F868     		ldr	r0, [r7, #12]
 1427 0498 FFF7FEFF 		bl	acc_auth_operate
 1428 049c 0346     		mov	r3, r0
 1429 049e 87F86730 		strb	r3, [r7, #103]
 1430 04a2 97F86730 		ldrb	r3, [r7, #103]	@ zero_extendqisi2
 1431 04a6 002B     		cmp	r3, #0
 1432 04a8 02D0     		beq	.L120
 330:C:/Users/dtjld/Desktop/AIoT_software/LiteOS_Lab_overseas/LiteOS_Lab/iot_link/network/lwm2m/wakaama_lwm2m/core\management.c ****             {
 331:C:/Users/dtjld/Desktop/AIoT_software/LiteOS_Lab_overseas/LiteOS_Lab/iot_link/network/lwm2m/wakaama_lwm2m/core\management.c ****                 return result;
 1433              		.loc 2 331 0
 1434 04aa 97F86730 		ldrb	r3, [r7, #103]	@ zero_extendqisi2
ARM GAS  C:\Users\dtjld\AppData\Local\Temp\ccGRo6oh.s 			page 40


 1435 04ae 26E1     		b	.L140
 1436              	.L120:
 332:C:/Users/dtjld/Desktop/AIoT_software/LiteOS_Lab_overseas/LiteOS_Lab/iot_link/network/lwm2m/wakaama_lwm2m/core\management.c ****             }
 333:C:/Users/dtjld/Desktop/AIoT_software/LiteOS_Lab_overseas/LiteOS_Lab/iot_link/network/lwm2m/wakaama_lwm2m/core\management.c ****             result = object_create(contextP, uriP, format, message->payload, message->payload_len);
 1437              		.loc 2 333 0
 1438 04b0 B7F85E20 		ldrh	r2, [r7, #94]
 1439 04b4 3B68     		ldr	r3, [r7]
 1440 04b6 D3F88810 		ldr	r1, [r3, #136]
 1441 04ba 3B68     		ldr	r3, [r7]
 1442 04bc B3F88630 		ldrh	r3, [r3, #134]
 1443 04c0 0093     		str	r3, [sp]
 1444 04c2 0B46     		mov	r3, r1
 1445 04c4 B968     		ldr	r1, [r7, #8]
 1446 04c6 F868     		ldr	r0, [r7, #12]
 1447 04c8 FFF7FEFF 		bl	object_create
 1448 04cc 0346     		mov	r3, r0
 1449 04ce 87F86730 		strb	r3, [r7, #103]
 334:C:/Users/dtjld/Desktop/AIoT_software/LiteOS_Lab_overseas/LiteOS_Lab/iot_link/network/lwm2m/wakaama_lwm2m/core\management.c ****             if (result == COAP_201_CREATED)
 1450              		.loc 2 334 0
 1451 04d2 97F86730 		ldrb	r3, [r7, #103]	@ zero_extendqisi2
 1452 04d6 412B     		cmp	r3, #65
 1453 04d8 40F00C81 		bne	.L141
 1454              	.LBB5:
 335:C:/Users/dtjld/Desktop/AIoT_software/LiteOS_Lab_overseas/LiteOS_Lab/iot_link/network/lwm2m/wakaama_lwm2m/core\management.c ****             {
 336:C:/Users/dtjld/Desktop/AIoT_software/LiteOS_Lab_overseas/LiteOS_Lab/iot_link/network/lwm2m/wakaama_lwm2m/core\management.c ****                 //longest uri is /65535/65535 = 12 + 1 (null) chars
 337:C:/Users/dtjld/Desktop/AIoT_software/LiteOS_Lab_overseas/LiteOS_Lab/iot_link/network/lwm2m/wakaama_lwm2m/core\management.c ****                 char location_path[13] = "";
 1455              		.loc 2 337 0
 1456 04dc 0023     		movs	r3, #0
 1457 04de FB63     		str	r3, [r7, #60]
 1458 04e0 07F14003 		add	r3, r7, #64
 1459 04e4 0022     		movs	r2, #0
 1460 04e6 1A60     		str	r2, [r3]
 1461 04e8 5A60     		str	r2, [r3, #4]
 1462 04ea 1A72     		strb	r2, [r3, #8]
 338:C:/Users/dtjld/Desktop/AIoT_software/LiteOS_Lab_overseas/LiteOS_Lab/iot_link/network/lwm2m/wakaama_lwm2m/core\management.c ****                 //instanceId expected
 339:C:/Users/dtjld/Desktop/AIoT_software/LiteOS_Lab_overseas/LiteOS_Lab/iot_link/network/lwm2m/wakaama_lwm2m/core\management.c ****                 if ((uriP->flag & LWM2M_URI_FLAG_INSTANCE_ID) == 0)
 1463              		.loc 2 339 0
 1464 04ec BB68     		ldr	r3, [r7, #8]
 1465 04ee 1B78     		ldrb	r3, [r3]	@ zero_extendqisi2
 1466 04f0 03F00203 		and	r3, r3, #2
 1467 04f4 002B     		cmp	r3, #0
 1468 04f6 03D1     		bne	.L122
 340:C:/Users/dtjld/Desktop/AIoT_software/LiteOS_Lab_overseas/LiteOS_Lab/iot_link/network/lwm2m/wakaama_lwm2m/core\management.c ****                 {
 341:C:/Users/dtjld/Desktop/AIoT_software/LiteOS_Lab_overseas/LiteOS_Lab/iot_link/network/lwm2m/wakaama_lwm2m/core\management.c ****                     result = COAP_500_INTERNAL_SERVER_ERROR;
 1469              		.loc 2 341 0
 1470 04f8 A023     		movs	r3, #160
 1471 04fa 87F86730 		strb	r3, [r7, #103]
 342:C:/Users/dtjld/Desktop/AIoT_software/LiteOS_Lab_overseas/LiteOS_Lab/iot_link/network/lwm2m/wakaama_lwm2m/core\management.c ****                     break;
 1472              		.loc 2 342 0
 1473 04fe FCE0     		b	.L118
 1474              	.L122:
 343:C:/Users/dtjld/Desktop/AIoT_software/LiteOS_Lab_overseas/LiteOS_Lab/iot_link/network/lwm2m/wakaama_lwm2m/core\management.c ****                 }
 344:C:/Users/dtjld/Desktop/AIoT_software/LiteOS_Lab_overseas/LiteOS_Lab/iot_link/network/lwm2m/wakaama_lwm2m/core\management.c **** 
 345:C:/Users/dtjld/Desktop/AIoT_software/LiteOS_Lab_overseas/LiteOS_Lab/iot_link/network/lwm2m/wakaama_lwm2m/core\management.c ****                 if (sprintf(location_path, "/%d/%d", uriP->objectId, uriP->instanceId) < 0)
 1475              		.loc 2 345 0
 1476 0500 BB68     		ldr	r3, [r7, #8]
 1477 0502 5B88     		ldrh	r3, [r3, #2]
ARM GAS  C:\Users\dtjld\AppData\Local\Temp\ccGRo6oh.s 			page 41


 1478 0504 1A46     		mov	r2, r3
 1479 0506 BB68     		ldr	r3, [r7, #8]
 1480 0508 9B88     		ldrh	r3, [r3, #4]
 1481 050a 07F13C00 		add	r0, r7, #60
 1482 050e 7E49     		ldr	r1, .L145
 1483 0510 FFF7FEFF 		bl	sprintf
 1484 0514 0346     		mov	r3, r0
 1485 0516 002B     		cmp	r3, #0
 1486 0518 04DA     		bge	.L124
 346:C:/Users/dtjld/Desktop/AIoT_software/LiteOS_Lab_overseas/LiteOS_Lab/iot_link/network/lwm2m/wakaama_lwm2m/core\management.c ****                 {
 347:C:/Users/dtjld/Desktop/AIoT_software/LiteOS_Lab_overseas/LiteOS_Lab/iot_link/network/lwm2m/wakaama_lwm2m/core\management.c ****                     result = COAP_500_INTERNAL_SERVER_ERROR;
 1487              		.loc 2 347 0
 1488 051a A023     		movs	r3, #160
 1489 051c 87F86730 		strb	r3, [r7, #103]
 348:C:/Users/dtjld/Desktop/AIoT_software/LiteOS_Lab_overseas/LiteOS_Lab/iot_link/network/lwm2m/wakaama_lwm2m/core\management.c ****                     break;
 1490              		.loc 2 348 0
 1491 0520 00BF     		nop
 1492 0522 EAE0     		b	.L118
 1493              	.L124:
 349:C:/Users/dtjld/Desktop/AIoT_software/LiteOS_Lab_overseas/LiteOS_Lab/iot_link/network/lwm2m/wakaama_lwm2m/core\management.c ****                 }
 350:C:/Users/dtjld/Desktop/AIoT_software/LiteOS_Lab_overseas/LiteOS_Lab/iot_link/network/lwm2m/wakaama_lwm2m/core\management.c ****                 coap_set_header_location_path(response, location_path);
 1494              		.loc 2 350 0
 1495 0524 07F13C03 		add	r3, r7, #60
 1496 0528 1946     		mov	r1, r3
 1497 052a B86F     		ldr	r0, [r7, #120]
 1498 052c FFF7FEFF 		bl	coap_set_header_location_path
 351:C:/Users/dtjld/Desktop/AIoT_software/LiteOS_Lab_overseas/LiteOS_Lab/iot_link/network/lwm2m/wakaama_lwm2m/core\management.c **** 
 352:C:/Users/dtjld/Desktop/AIoT_software/LiteOS_Lab_overseas/LiteOS_Lab/iot_link/network/lwm2m/wakaama_lwm2m/core\management.c ****                 lwm2m_update_registration(contextP, 0, true);
 1499              		.loc 2 352 0
 1500 0530 0122     		movs	r2, #1
 1501 0532 0021     		movs	r1, #0
 1502 0534 F868     		ldr	r0, [r7, #12]
 1503 0536 FFF7FEFF 		bl	lwm2m_update_registration
 1504              	.LBE5:
 353:C:/Users/dtjld/Desktop/AIoT_software/LiteOS_Lab_overseas/LiteOS_Lab/iot_link/network/lwm2m/wakaama_lwm2m/core\management.c ****             }
 354:C:/Users/dtjld/Desktop/AIoT_software/LiteOS_Lab_overseas/LiteOS_Lab/iot_link/network/lwm2m/wakaama_lwm2m/core\management.c ****         }
 355:C:/Users/dtjld/Desktop/AIoT_software/LiteOS_Lab_overseas/LiteOS_Lab/iot_link/network/lwm2m/wakaama_lwm2m/core\management.c ****         else if (!LWM2M_URI_IS_SET_RESOURCE(uriP))
 356:C:/Users/dtjld/Desktop/AIoT_software/LiteOS_Lab_overseas/LiteOS_Lab/iot_link/network/lwm2m/wakaama_lwm2m/core\management.c ****         {
 357:C:/Users/dtjld/Desktop/AIoT_software/LiteOS_Lab_overseas/LiteOS_Lab/iot_link/network/lwm2m/wakaama_lwm2m/core\management.c ****             if ((result = acc_auth_operate(contextP, uriP, OBJ_ACC_WRITE, serverP->shortID)) != COA
 358:C:/Users/dtjld/Desktop/AIoT_software/LiteOS_Lab_overseas/LiteOS_Lab/iot_link/network/lwm2m/wakaama_lwm2m/core\management.c ****             {
 359:C:/Users/dtjld/Desktop/AIoT_software/LiteOS_Lab_overseas/LiteOS_Lab/iot_link/network/lwm2m/wakaama_lwm2m/core\management.c ****                 return result;
 360:C:/Users/dtjld/Desktop/AIoT_software/LiteOS_Lab_overseas/LiteOS_Lab/iot_link/network/lwm2m/wakaama_lwm2m/core\management.c ****             }
 361:C:/Users/dtjld/Desktop/AIoT_software/LiteOS_Lab_overseas/LiteOS_Lab/iot_link/network/lwm2m/wakaama_lwm2m/core\management.c ****             result = object_write(contextP, uriP, format, message->payload, message->payload_len);
 362:C:/Users/dtjld/Desktop/AIoT_software/LiteOS_Lab_overseas/LiteOS_Lab/iot_link/network/lwm2m/wakaama_lwm2m/core\management.c ****         }
 363:C:/Users/dtjld/Desktop/AIoT_software/LiteOS_Lab_overseas/LiteOS_Lab/iot_link/network/lwm2m/wakaama_lwm2m/core\management.c ****         else
 364:C:/Users/dtjld/Desktop/AIoT_software/LiteOS_Lab_overseas/LiteOS_Lab/iot_link/network/lwm2m/wakaama_lwm2m/core\management.c ****         {
 365:C:/Users/dtjld/Desktop/AIoT_software/LiteOS_Lab_overseas/LiteOS_Lab/iot_link/network/lwm2m/wakaama_lwm2m/core\management.c ****             if ((result = acc_auth_operate(contextP, uriP, OBJ_ACC_EXCUTE, serverP->shortID)) != CO
 366:C:/Users/dtjld/Desktop/AIoT_software/LiteOS_Lab_overseas/LiteOS_Lab/iot_link/network/lwm2m/wakaama_lwm2m/core\management.c ****             {
 367:C:/Users/dtjld/Desktop/AIoT_software/LiteOS_Lab_overseas/LiteOS_Lab/iot_link/network/lwm2m/wakaama_lwm2m/core\management.c ****                 return result;
 368:C:/Users/dtjld/Desktop/AIoT_software/LiteOS_Lab_overseas/LiteOS_Lab/iot_link/network/lwm2m/wakaama_lwm2m/core\management.c ****             }
 369:C:/Users/dtjld/Desktop/AIoT_software/LiteOS_Lab_overseas/LiteOS_Lab/iot_link/network/lwm2m/wakaama_lwm2m/core\management.c ****             result = object_execute(contextP, uriP, message->payload, message->payload_len);
 370:C:/Users/dtjld/Desktop/AIoT_software/LiteOS_Lab_overseas/LiteOS_Lab/iot_link/network/lwm2m/wakaama_lwm2m/core\management.c ****         }
 371:C:/Users/dtjld/Desktop/AIoT_software/LiteOS_Lab_overseas/LiteOS_Lab/iot_link/network/lwm2m/wakaama_lwm2m/core\management.c **** 
 372:C:/Users/dtjld/Desktop/AIoT_software/LiteOS_Lab_overseas/LiteOS_Lab/iot_link/network/lwm2m/wakaama_lwm2m/core\management.c ****     }
 373:C:/Users/dtjld/Desktop/AIoT_software/LiteOS_Lab_overseas/LiteOS_Lab/iot_link/network/lwm2m/wakaama_lwm2m/core\management.c ****     break;
 1505              		.loc 2 373 0
 1506 053a DBE0     		b	.L141
ARM GAS  C:\Users\dtjld\AppData\Local\Temp\ccGRo6oh.s 			page 42


 1507              	.L119:
 355:C:/Users/dtjld/Desktop/AIoT_software/LiteOS_Lab_overseas/LiteOS_Lab/iot_link/network/lwm2m/wakaama_lwm2m/core\management.c ****         {
 1508              		.loc 2 355 0
 1509 053c BB68     		ldr	r3, [r7, #8]
 1510 053e 1B78     		ldrb	r3, [r3]	@ zero_extendqisi2
 1511 0540 03F00103 		and	r3, r3, #1
 1512 0544 002B     		cmp	r3, #0
 1513 0546 22D1     		bne	.L126
 357:C:/Users/dtjld/Desktop/AIoT_software/LiteOS_Lab_overseas/LiteOS_Lab/iot_link/network/lwm2m/wakaama_lwm2m/core\management.c ****             {
 1514              		.loc 2 357 0
 1515 0548 7B68     		ldr	r3, [r7, #4]
 1516 054a DB88     		ldrh	r3, [r3, #6]
 1517 054c 0122     		movs	r2, #1
 1518 054e B968     		ldr	r1, [r7, #8]
 1519 0550 F868     		ldr	r0, [r7, #12]
 1520 0552 FFF7FEFF 		bl	acc_auth_operate
 1521 0556 0346     		mov	r3, r0
 1522 0558 87F86730 		strb	r3, [r7, #103]
 1523 055c 97F86730 		ldrb	r3, [r7, #103]	@ zero_extendqisi2
 1524 0560 002B     		cmp	r3, #0
 1525 0562 02D0     		beq	.L127
 359:C:/Users/dtjld/Desktop/AIoT_software/LiteOS_Lab_overseas/LiteOS_Lab/iot_link/network/lwm2m/wakaama_lwm2m/core\management.c ****             }
 1526              		.loc 2 359 0
 1527 0564 97F86730 		ldrb	r3, [r7, #103]	@ zero_extendqisi2
 1528 0568 C9E0     		b	.L140
 1529              	.L127:
 361:C:/Users/dtjld/Desktop/AIoT_software/LiteOS_Lab_overseas/LiteOS_Lab/iot_link/network/lwm2m/wakaama_lwm2m/core\management.c ****         }
 1530              		.loc 2 361 0
 1531 056a B7F85E20 		ldrh	r2, [r7, #94]
 1532 056e 3B68     		ldr	r3, [r7]
 1533 0570 D3F88810 		ldr	r1, [r3, #136]
 1534 0574 3B68     		ldr	r3, [r7]
 1535 0576 B3F88630 		ldrh	r3, [r3, #134]
 1536 057a 0093     		str	r3, [sp]
 1537 057c 0B46     		mov	r3, r1
 1538 057e B968     		ldr	r1, [r7, #8]
 1539 0580 F868     		ldr	r0, [r7, #12]
 1540 0582 FFF7FEFF 		bl	object_write
 1541 0586 0346     		mov	r3, r0
 1542 0588 87F86730 		strb	r3, [r7, #103]
 1543              		.loc 2 373 0
 1544 058c B2E0     		b	.L141
 1545              	.L126:
 365:C:/Users/dtjld/Desktop/AIoT_software/LiteOS_Lab_overseas/LiteOS_Lab/iot_link/network/lwm2m/wakaama_lwm2m/core\management.c ****             {
 1546              		.loc 2 365 0
 1547 058e 7B68     		ldr	r3, [r7, #4]
 1548 0590 DB88     		ldrh	r3, [r3, #6]
 1549 0592 0222     		movs	r2, #2
 1550 0594 B968     		ldr	r1, [r7, #8]
 1551 0596 F868     		ldr	r0, [r7, #12]
 1552 0598 FFF7FEFF 		bl	acc_auth_operate
 1553 059c 0346     		mov	r3, r0
 1554 059e 87F86730 		strb	r3, [r7, #103]
 1555 05a2 97F86730 		ldrb	r3, [r7, #103]	@ zero_extendqisi2
 1556 05a6 002B     		cmp	r3, #0
 1557 05a8 02D0     		beq	.L128
 367:C:/Users/dtjld/Desktop/AIoT_software/LiteOS_Lab_overseas/LiteOS_Lab/iot_link/network/lwm2m/wakaama_lwm2m/core\management.c ****             }
ARM GAS  C:\Users\dtjld\AppData\Local\Temp\ccGRo6oh.s 			page 43


 1558              		.loc 2 367 0
 1559 05aa 97F86730 		ldrb	r3, [r7, #103]	@ zero_extendqisi2
 1560 05ae A6E0     		b	.L140
 1561              	.L128:
 369:C:/Users/dtjld/Desktop/AIoT_software/LiteOS_Lab_overseas/LiteOS_Lab/iot_link/network/lwm2m/wakaama_lwm2m/core\management.c ****         }
 1562              		.loc 2 369 0
 1563 05b0 3B68     		ldr	r3, [r7]
 1564 05b2 D3F88820 		ldr	r2, [r3, #136]
 1565 05b6 3B68     		ldr	r3, [r7]
 1566 05b8 B3F88630 		ldrh	r3, [r3, #134]
 1567 05bc B968     		ldr	r1, [r7, #8]
 1568 05be F868     		ldr	r0, [r7, #12]
 1569 05c0 FFF7FEFF 		bl	object_execute
 1570 05c4 0346     		mov	r3, r0
 1571 05c6 87F86730 		strb	r3, [r7, #103]
 1572              		.loc 2 373 0
 1573 05ca 93E0     		b	.L141
 1574              	.L100:
 374:C:/Users/dtjld/Desktop/AIoT_software/LiteOS_Lab_overseas/LiteOS_Lab/iot_link/network/lwm2m/wakaama_lwm2m/core\management.c **** 
 375:C:/Users/dtjld/Desktop/AIoT_software/LiteOS_Lab_overseas/LiteOS_Lab/iot_link/network/lwm2m/wakaama_lwm2m/core\management.c ****     case COAP_PUT:
 376:C:/Users/dtjld/Desktop/AIoT_software/LiteOS_Lab_overseas/LiteOS_Lab/iot_link/network/lwm2m/wakaama_lwm2m/core\management.c ****     {
 377:C:/Users/dtjld/Desktop/AIoT_software/LiteOS_Lab_overseas/LiteOS_Lab/iot_link/network/lwm2m/wakaama_lwm2m/core\management.c ****         if (IS_OPTION(message, COAP_OPTION_URI_QUERY))
 1575              		.loc 2 377 0
 1576 05cc 3B68     		ldr	r3, [r7]
 1577 05ce DB7A     		ldrb	r3, [r3, #11]	@ zero_extendqisi2
 1578 05d0 5BB2     		sxtb	r3, r3
 1579 05d2 002B     		cmp	r3, #0
 1580 05d4 2BDA     		bge	.L129
 1581              	.LBB6:
 378:C:/Users/dtjld/Desktop/AIoT_software/LiteOS_Lab_overseas/LiteOS_Lab/iot_link/network/lwm2m/wakaama_lwm2m/core\management.c ****         {
 379:C:/Users/dtjld/Desktop/AIoT_software/LiteOS_Lab_overseas/LiteOS_Lab/iot_link/network/lwm2m/wakaama_lwm2m/core\management.c ****             lwm2m_attributes_t attr;
 380:C:/Users/dtjld/Desktop/AIoT_software/LiteOS_Lab_overseas/LiteOS_Lab/iot_link/network/lwm2m/wakaama_lwm2m/core\management.c **** 
 381:C:/Users/dtjld/Desktop/AIoT_software/LiteOS_Lab_overseas/LiteOS_Lab/iot_link/network/lwm2m/wakaama_lwm2m/core\management.c ****             if ((result = acc_auth_operate(contextP, uriP, OBJ_ACC_WRITE_ATTR, serverP->shortID)) !
 1582              		.loc 2 381 0
 1583 05d6 7B68     		ldr	r3, [r7, #4]
 1584 05d8 DB88     		ldrh	r3, [r3, #6]
 1585 05da 0022     		movs	r2, #0
 1586 05dc B968     		ldr	r1, [r7, #8]
 1587 05de F868     		ldr	r0, [r7, #12]
 1588 05e0 FFF7FEFF 		bl	acc_auth_operate
 1589 05e4 0346     		mov	r3, r0
 1590 05e6 87F86730 		strb	r3, [r7, #103]
 1591 05ea 97F86730 		ldrb	r3, [r7, #103]	@ zero_extendqisi2
 1592 05ee 002B     		cmp	r3, #0
 1593 05f0 02D0     		beq	.L130
 382:C:/Users/dtjld/Desktop/AIoT_software/LiteOS_Lab_overseas/LiteOS_Lab/iot_link/network/lwm2m/wakaama_lwm2m/core\management.c ****             {
 383:C:/Users/dtjld/Desktop/AIoT_software/LiteOS_Lab_overseas/LiteOS_Lab/iot_link/network/lwm2m/wakaama_lwm2m/core\management.c ****                 return result;
 1594              		.loc 2 383 0
 1595 05f2 97F86730 		ldrb	r3, [r7, #103]	@ zero_extendqisi2
 1596 05f6 82E0     		b	.L140
 1597              	.L130:
 384:C:/Users/dtjld/Desktop/AIoT_software/LiteOS_Lab_overseas/LiteOS_Lab/iot_link/network/lwm2m/wakaama_lwm2m/core\management.c ****             }
 385:C:/Users/dtjld/Desktop/AIoT_software/LiteOS_Lab_overseas/LiteOS_Lab/iot_link/network/lwm2m/wakaama_lwm2m/core\management.c ****             if (0 != prv_readAttributes(message->uri_query, &attr))
 1598              		.loc 2 385 0
 1599 05f8 3B68     		ldr	r3, [r7]
 1600 05fa D3F88030 		ldr	r3, [r3, #128]
 1601 05fe 07F11002 		add	r2, r7, #16
ARM GAS  C:\Users\dtjld\AppData\Local\Temp\ccGRo6oh.s 			page 44


 1602 0602 1146     		mov	r1, r2
 1603 0604 1846     		mov	r0, r3
 1604 0606 FFF7FEFF 		bl	prv_readAttributes
 1605 060a 0346     		mov	r3, r0
 1606 060c 002B     		cmp	r3, #0
 1607 060e 03D0     		beq	.L131
 386:C:/Users/dtjld/Desktop/AIoT_software/LiteOS_Lab_overseas/LiteOS_Lab/iot_link/network/lwm2m/wakaama_lwm2m/core\management.c ****             {
 387:C:/Users/dtjld/Desktop/AIoT_software/LiteOS_Lab_overseas/LiteOS_Lab/iot_link/network/lwm2m/wakaama_lwm2m/core\management.c ****                 result = COAP_400_BAD_REQUEST;
 1608              		.loc 2 387 0
 1609 0610 8023     		movs	r3, #128
 1610 0612 87F86730 		strb	r3, [r7, #103]
 1611              	.LBE6:
 388:C:/Users/dtjld/Desktop/AIoT_software/LiteOS_Lab_overseas/LiteOS_Lab/iot_link/network/lwm2m/wakaama_lwm2m/core\management.c ****             }
 389:C:/Users/dtjld/Desktop/AIoT_software/LiteOS_Lab_overseas/LiteOS_Lab/iot_link/network/lwm2m/wakaama_lwm2m/core\management.c ****             else
 390:C:/Users/dtjld/Desktop/AIoT_software/LiteOS_Lab_overseas/LiteOS_Lab/iot_link/network/lwm2m/wakaama_lwm2m/core\management.c ****             {
 391:C:/Users/dtjld/Desktop/AIoT_software/LiteOS_Lab_overseas/LiteOS_Lab/iot_link/network/lwm2m/wakaama_lwm2m/core\management.c ****                 result = observe_setParameters(contextP, uriP, serverP, &attr);
 392:C:/Users/dtjld/Desktop/AIoT_software/LiteOS_Lab_overseas/LiteOS_Lab/iot_link/network/lwm2m/wakaama_lwm2m/core\management.c ****             }
 393:C:/Users/dtjld/Desktop/AIoT_software/LiteOS_Lab_overseas/LiteOS_Lab/iot_link/network/lwm2m/wakaama_lwm2m/core\management.c ****         }
 394:C:/Users/dtjld/Desktop/AIoT_software/LiteOS_Lab_overseas/LiteOS_Lab/iot_link/network/lwm2m/wakaama_lwm2m/core\management.c ****         else if (LWM2M_URI_IS_SET_INSTANCE(uriP))
 395:C:/Users/dtjld/Desktop/AIoT_software/LiteOS_Lab_overseas/LiteOS_Lab/iot_link/network/lwm2m/wakaama_lwm2m/core\management.c ****         {
 396:C:/Users/dtjld/Desktop/AIoT_software/LiteOS_Lab_overseas/LiteOS_Lab/iot_link/network/lwm2m/wakaama_lwm2m/core\management.c ****             if ((result = acc_auth_operate(contextP, uriP, OBJ_ACC_WRITE, serverP->shortID)) != COA
 397:C:/Users/dtjld/Desktop/AIoT_software/LiteOS_Lab_overseas/LiteOS_Lab/iot_link/network/lwm2m/wakaama_lwm2m/core\management.c ****             {
 398:C:/Users/dtjld/Desktop/AIoT_software/LiteOS_Lab_overseas/LiteOS_Lab/iot_link/network/lwm2m/wakaama_lwm2m/core\management.c ****                 return result;
 399:C:/Users/dtjld/Desktop/AIoT_software/LiteOS_Lab_overseas/LiteOS_Lab/iot_link/network/lwm2m/wakaama_lwm2m/core\management.c ****             }
 400:C:/Users/dtjld/Desktop/AIoT_software/LiteOS_Lab_overseas/LiteOS_Lab/iot_link/network/lwm2m/wakaama_lwm2m/core\management.c ****             result = object_write(contextP, uriP, format, message->payload, message->payload_len);
 401:C:/Users/dtjld/Desktop/AIoT_software/LiteOS_Lab_overseas/LiteOS_Lab/iot_link/network/lwm2m/wakaama_lwm2m/core\management.c ****         }
 402:C:/Users/dtjld/Desktop/AIoT_software/LiteOS_Lab_overseas/LiteOS_Lab/iot_link/network/lwm2m/wakaama_lwm2m/core\management.c ****         else
 403:C:/Users/dtjld/Desktop/AIoT_software/LiteOS_Lab_overseas/LiteOS_Lab/iot_link/network/lwm2m/wakaama_lwm2m/core\management.c ****         {
 404:C:/Users/dtjld/Desktop/AIoT_software/LiteOS_Lab_overseas/LiteOS_Lab/iot_link/network/lwm2m/wakaama_lwm2m/core\management.c ****             result = COAP_400_BAD_REQUEST;
 405:C:/Users/dtjld/Desktop/AIoT_software/LiteOS_Lab_overseas/LiteOS_Lab/iot_link/network/lwm2m/wakaama_lwm2m/core\management.c ****         }
 406:C:/Users/dtjld/Desktop/AIoT_software/LiteOS_Lab_overseas/LiteOS_Lab/iot_link/network/lwm2m/wakaama_lwm2m/core\management.c ****     }
 407:C:/Users/dtjld/Desktop/AIoT_software/LiteOS_Lab_overseas/LiteOS_Lab/iot_link/network/lwm2m/wakaama_lwm2m/core\management.c ****     break;
 1612              		.loc 2 407 0
 1613 0616 70E0     		b	.L118
 1614              	.L131:
 1615              	.LBB7:
 391:C:/Users/dtjld/Desktop/AIoT_software/LiteOS_Lab_overseas/LiteOS_Lab/iot_link/network/lwm2m/wakaama_lwm2m/core\management.c ****             }
 1616              		.loc 2 391 0
 1617 0618 07F11003 		add	r3, r7, #16
 1618 061c 7A68     		ldr	r2, [r7, #4]
 1619 061e B968     		ldr	r1, [r7, #8]
 1620 0620 F868     		ldr	r0, [r7, #12]
 1621 0622 FFF7FEFF 		bl	observe_setParameters
 1622 0626 0346     		mov	r3, r0
 1623 0628 87F86730 		strb	r3, [r7, #103]
 1624              	.LBE7:
 1625              		.loc 2 407 0
 1626 062c 65E0     		b	.L118
 1627              	.L129:
 394:C:/Users/dtjld/Desktop/AIoT_software/LiteOS_Lab_overseas/LiteOS_Lab/iot_link/network/lwm2m/wakaama_lwm2m/core\management.c ****         {
 1628              		.loc 2 394 0
 1629 062e BB68     		ldr	r3, [r7, #8]
 1630 0630 1B78     		ldrb	r3, [r3]	@ zero_extendqisi2
 1631 0632 03F00203 		and	r3, r3, #2
 1632 0636 002B     		cmp	r3, #0
 1633 0638 22D0     		beq	.L134
 396:C:/Users/dtjld/Desktop/AIoT_software/LiteOS_Lab_overseas/LiteOS_Lab/iot_link/network/lwm2m/wakaama_lwm2m/core\management.c ****             {
ARM GAS  C:\Users\dtjld\AppData\Local\Temp\ccGRo6oh.s 			page 45


 1634              		.loc 2 396 0
 1635 063a 7B68     		ldr	r3, [r7, #4]
 1636 063c DB88     		ldrh	r3, [r3, #6]
 1637 063e 0122     		movs	r2, #1
 1638 0640 B968     		ldr	r1, [r7, #8]
 1639 0642 F868     		ldr	r0, [r7, #12]
 1640 0644 FFF7FEFF 		bl	acc_auth_operate
 1641 0648 0346     		mov	r3, r0
 1642 064a 87F86730 		strb	r3, [r7, #103]
 1643 064e 97F86730 		ldrb	r3, [r7, #103]	@ zero_extendqisi2
 1644 0652 002B     		cmp	r3, #0
 1645 0654 02D0     		beq	.L135
 398:C:/Users/dtjld/Desktop/AIoT_software/LiteOS_Lab_overseas/LiteOS_Lab/iot_link/network/lwm2m/wakaama_lwm2m/core\management.c ****             }
 1646              		.loc 2 398 0
 1647 0656 97F86730 		ldrb	r3, [r7, #103]	@ zero_extendqisi2
 1648 065a 50E0     		b	.L140
 1649              	.L135:
 400:C:/Users/dtjld/Desktop/AIoT_software/LiteOS_Lab_overseas/LiteOS_Lab/iot_link/network/lwm2m/wakaama_lwm2m/core\management.c ****         }
 1650              		.loc 2 400 0
 1651 065c B7F85E20 		ldrh	r2, [r7, #94]
 1652 0660 3B68     		ldr	r3, [r7]
 1653 0662 D3F88810 		ldr	r1, [r3, #136]
 1654 0666 3B68     		ldr	r3, [r7]
 1655 0668 B3F88630 		ldrh	r3, [r3, #134]
 1656 066c 0093     		str	r3, [sp]
 1657 066e 0B46     		mov	r3, r1
 1658 0670 B968     		ldr	r1, [r7, #8]
 1659 0672 F868     		ldr	r0, [r7, #12]
 1660 0674 FFF7FEFF 		bl	object_write
 1661 0678 0346     		mov	r3, r0
 1662 067a 87F86730 		strb	r3, [r7, #103]
 1663              		.loc 2 407 0
 1664 067e 3CE0     		b	.L118
 1665              	.L134:
 404:C:/Users/dtjld/Desktop/AIoT_software/LiteOS_Lab_overseas/LiteOS_Lab/iot_link/network/lwm2m/wakaama_lwm2m/core\management.c ****         }
 1666              		.loc 2 404 0
 1667 0680 8023     		movs	r3, #128
 1668 0682 87F86730 		strb	r3, [r7, #103]
 1669              		.loc 2 407 0
 1670 0686 38E0     		b	.L118
 1671              	.L101:
 408:C:/Users/dtjld/Desktop/AIoT_software/LiteOS_Lab_overseas/LiteOS_Lab/iot_link/network/lwm2m/wakaama_lwm2m/core\management.c **** 
 409:C:/Users/dtjld/Desktop/AIoT_software/LiteOS_Lab_overseas/LiteOS_Lab/iot_link/network/lwm2m/wakaama_lwm2m/core\management.c ****     case COAP_DELETE:
 410:C:/Users/dtjld/Desktop/AIoT_software/LiteOS_Lab_overseas/LiteOS_Lab/iot_link/network/lwm2m/wakaama_lwm2m/core\management.c ****     {
 411:C:/Users/dtjld/Desktop/AIoT_software/LiteOS_Lab_overseas/LiteOS_Lab/iot_link/network/lwm2m/wakaama_lwm2m/core\management.c ****         if (!LWM2M_URI_IS_SET_INSTANCE(uriP) || LWM2M_URI_IS_SET_RESOURCE(uriP))
 1672              		.loc 2 411 0
 1673 0688 BB68     		ldr	r3, [r7, #8]
 1674 068a 1B78     		ldrb	r3, [r3]	@ zero_extendqisi2
 1675 068c 03F00203 		and	r3, r3, #2
 1676 0690 002B     		cmp	r3, #0
 1677 0692 05D0     		beq	.L136
 1678              		.loc 2 411 0 is_stmt 0 discriminator 1
 1679 0694 BB68     		ldr	r3, [r7, #8]
 1680 0696 1B78     		ldrb	r3, [r3]	@ zero_extendqisi2
 1681 0698 03F00103 		and	r3, r3, #1
 1682 069c 002B     		cmp	r3, #0
 1683 069e 03D0     		beq	.L137
ARM GAS  C:\Users\dtjld\AppData\Local\Temp\ccGRo6oh.s 			page 46


 1684              	.L136:
 412:C:/Users/dtjld/Desktop/AIoT_software/LiteOS_Lab_overseas/LiteOS_Lab/iot_link/network/lwm2m/wakaama_lwm2m/core\management.c ****         {
 413:C:/Users/dtjld/Desktop/AIoT_software/LiteOS_Lab_overseas/LiteOS_Lab/iot_link/network/lwm2m/wakaama_lwm2m/core\management.c ****             result = COAP_400_BAD_REQUEST;
 1685              		.loc 2 413 0 is_stmt 1
 1686 06a0 8023     		movs	r3, #128
 1687 06a2 87F86730 		strb	r3, [r7, #103]
 414:C:/Users/dtjld/Desktop/AIoT_software/LiteOS_Lab_overseas/LiteOS_Lab/iot_link/network/lwm2m/wakaama_lwm2m/core\management.c ****         }
 415:C:/Users/dtjld/Desktop/AIoT_software/LiteOS_Lab_overseas/LiteOS_Lab/iot_link/network/lwm2m/wakaama_lwm2m/core\management.c ****         else
 416:C:/Users/dtjld/Desktop/AIoT_software/LiteOS_Lab_overseas/LiteOS_Lab/iot_link/network/lwm2m/wakaama_lwm2m/core\management.c ****         {
 417:C:/Users/dtjld/Desktop/AIoT_software/LiteOS_Lab_overseas/LiteOS_Lab/iot_link/network/lwm2m/wakaama_lwm2m/core\management.c ****             if ((result = acc_auth_operate(contextP, uriP, OBJ_ACC_DELETE, serverP->shortID)) != CO
 418:C:/Users/dtjld/Desktop/AIoT_software/LiteOS_Lab_overseas/LiteOS_Lab/iot_link/network/lwm2m/wakaama_lwm2m/core\management.c ****             {
 419:C:/Users/dtjld/Desktop/AIoT_software/LiteOS_Lab_overseas/LiteOS_Lab/iot_link/network/lwm2m/wakaama_lwm2m/core\management.c ****                 return result;
 420:C:/Users/dtjld/Desktop/AIoT_software/LiteOS_Lab_overseas/LiteOS_Lab/iot_link/network/lwm2m/wakaama_lwm2m/core\management.c ****             }
 421:C:/Users/dtjld/Desktop/AIoT_software/LiteOS_Lab_overseas/LiteOS_Lab/iot_link/network/lwm2m/wakaama_lwm2m/core\management.c ****             result = object_delete(contextP, uriP);
 422:C:/Users/dtjld/Desktop/AIoT_software/LiteOS_Lab_overseas/LiteOS_Lab/iot_link/network/lwm2m/wakaama_lwm2m/core\management.c ****             if (result == COAP_202_DELETED)
 423:C:/Users/dtjld/Desktop/AIoT_software/LiteOS_Lab_overseas/LiteOS_Lab/iot_link/network/lwm2m/wakaama_lwm2m/core\management.c ****             {
 424:C:/Users/dtjld/Desktop/AIoT_software/LiteOS_Lab_overseas/LiteOS_Lab/iot_link/network/lwm2m/wakaama_lwm2m/core\management.c ****                 lwm2m_update_registration(contextP, 0, true);
 425:C:/Users/dtjld/Desktop/AIoT_software/LiteOS_Lab_overseas/LiteOS_Lab/iot_link/network/lwm2m/wakaama_lwm2m/core\management.c ****             }
 426:C:/Users/dtjld/Desktop/AIoT_software/LiteOS_Lab_overseas/LiteOS_Lab/iot_link/network/lwm2m/wakaama_lwm2m/core\management.c ****         }
 427:C:/Users/dtjld/Desktop/AIoT_software/LiteOS_Lab_overseas/LiteOS_Lab/iot_link/network/lwm2m/wakaama_lwm2m/core\management.c ****     }
 428:C:/Users/dtjld/Desktop/AIoT_software/LiteOS_Lab_overseas/LiteOS_Lab/iot_link/network/lwm2m/wakaama_lwm2m/core\management.c ****     break;
 1688              		.loc 2 428 0
 1689 06a6 27E0     		b	.L142
 1690              	.L137:
 417:C:/Users/dtjld/Desktop/AIoT_software/LiteOS_Lab_overseas/LiteOS_Lab/iot_link/network/lwm2m/wakaama_lwm2m/core\management.c ****             {
 1691              		.loc 2 417 0
 1692 06a8 7B68     		ldr	r3, [r7, #4]
 1693 06aa DB88     		ldrh	r3, [r3, #6]
 1694 06ac 0322     		movs	r2, #3
 1695 06ae B968     		ldr	r1, [r7, #8]
 1696 06b0 F868     		ldr	r0, [r7, #12]
 1697 06b2 FFF7FEFF 		bl	acc_auth_operate
 1698 06b6 0346     		mov	r3, r0
 1699 06b8 87F86730 		strb	r3, [r7, #103]
 1700 06bc 97F86730 		ldrb	r3, [r7, #103]	@ zero_extendqisi2
 1701 06c0 002B     		cmp	r3, #0
 1702 06c2 02D0     		beq	.L139
 419:C:/Users/dtjld/Desktop/AIoT_software/LiteOS_Lab_overseas/LiteOS_Lab/iot_link/network/lwm2m/wakaama_lwm2m/core\management.c ****             }
 1703              		.loc 2 419 0
 1704 06c4 97F86730 		ldrb	r3, [r7, #103]	@ zero_extendqisi2
 1705 06c8 19E0     		b	.L140
 1706              	.L139:
 421:C:/Users/dtjld/Desktop/AIoT_software/LiteOS_Lab_overseas/LiteOS_Lab/iot_link/network/lwm2m/wakaama_lwm2m/core\management.c ****             if (result == COAP_202_DELETED)
 1707              		.loc 2 421 0
 1708 06ca B968     		ldr	r1, [r7, #8]
 1709 06cc F868     		ldr	r0, [r7, #12]
 1710 06ce FFF7FEFF 		bl	object_delete
 1711 06d2 0346     		mov	r3, r0
 1712 06d4 87F86730 		strb	r3, [r7, #103]
 422:C:/Users/dtjld/Desktop/AIoT_software/LiteOS_Lab_overseas/LiteOS_Lab/iot_link/network/lwm2m/wakaama_lwm2m/core\management.c ****             {
 1713              		.loc 2 422 0
 1714 06d8 97F86730 		ldrb	r3, [r7, #103]	@ zero_extendqisi2
 1715 06dc 422B     		cmp	r3, #66
 1716 06de 0BD1     		bne	.L142
 424:C:/Users/dtjld/Desktop/AIoT_software/LiteOS_Lab_overseas/LiteOS_Lab/iot_link/network/lwm2m/wakaama_lwm2m/core\management.c ****             }
 1717              		.loc 2 424 0
 1718 06e0 0122     		movs	r2, #1
ARM GAS  C:\Users\dtjld\AppData\Local\Temp\ccGRo6oh.s 			page 47


 1719 06e2 0021     		movs	r1, #0
 1720 06e4 F868     		ldr	r0, [r7, #12]
 1721 06e6 FFF7FEFF 		bl	lwm2m_update_registration
 1722              		.loc 2 428 0
 1723 06ea 05E0     		b	.L142
 1724              	.L96:
 429:C:/Users/dtjld/Desktop/AIoT_software/LiteOS_Lab_overseas/LiteOS_Lab/iot_link/network/lwm2m/wakaama_lwm2m/core\management.c **** 
 430:C:/Users/dtjld/Desktop/AIoT_software/LiteOS_Lab_overseas/LiteOS_Lab/iot_link/network/lwm2m/wakaama_lwm2m/core\management.c ****     default:
 431:C:/Users/dtjld/Desktop/AIoT_software/LiteOS_Lab_overseas/LiteOS_Lab/iot_link/network/lwm2m/wakaama_lwm2m/core\management.c ****         result = COAP_400_BAD_REQUEST;
 1725              		.loc 2 431 0
 1726 06ec 8023     		movs	r3, #128
 1727 06ee 87F86730 		strb	r3, [r7, #103]
 432:C:/Users/dtjld/Desktop/AIoT_software/LiteOS_Lab_overseas/LiteOS_Lab/iot_link/network/lwm2m/wakaama_lwm2m/core\management.c ****         break;
 1728              		.loc 2 432 0
 1729 06f2 02E0     		b	.L118
 1730              	.L141:
 373:C:/Users/dtjld/Desktop/AIoT_software/LiteOS_Lab_overseas/LiteOS_Lab/iot_link/network/lwm2m/wakaama_lwm2m/core\management.c **** 
 1731              		.loc 2 373 0
 1732 06f4 00BF     		nop
 1733 06f6 00E0     		b	.L118
 1734              	.L142:
 428:C:/Users/dtjld/Desktop/AIoT_software/LiteOS_Lab_overseas/LiteOS_Lab/iot_link/network/lwm2m/wakaama_lwm2m/core\management.c **** 
 1735              		.loc 2 428 0
 1736 06f8 00BF     		nop
 1737              	.L118:
 433:C:/Users/dtjld/Desktop/AIoT_software/LiteOS_Lab_overseas/LiteOS_Lab/iot_link/network/lwm2m/wakaama_lwm2m/core\management.c ****     }
 434:C:/Users/dtjld/Desktop/AIoT_software/LiteOS_Lab_overseas/LiteOS_Lab/iot_link/network/lwm2m/wakaama_lwm2m/core\management.c **** 
 435:C:/Users/dtjld/Desktop/AIoT_software/LiteOS_Lab_overseas/LiteOS_Lab/iot_link/network/lwm2m/wakaama_lwm2m/core\management.c ****     return result;
 1738              		.loc 2 435 0
 1739 06fa 97F86730 		ldrb	r3, [r7, #103]	@ zero_extendqisi2
 1740              	.L140:
 436:C:/Users/dtjld/Desktop/AIoT_software/LiteOS_Lab_overseas/LiteOS_Lab/iot_link/network/lwm2m/wakaama_lwm2m/core\management.c **** }
 1741              		.loc 2 436 0 discriminator 6
 1742 06fe 1846     		mov	r0, r3
 1743 0700 6837     		adds	r7, r7, #104
 1744              	.LCFI14:
 1745              		.cfi_def_cfa_offset 16
 1746 0702 BD46     		mov	sp, r7
 1747              	.LCFI15:
 1748              		.cfi_def_cfa_register 13
 1749              		@ sp needed
 1750 0704 B0BD     		pop	{r4, r5, r7, pc}
 1751              	.L146:
 1752 0706 00BF     		.align	2
 1753              	.L145:
 1754 0708 E4010000 		.word	.LC27
 1755              		.cfi_endproc
 1756              	.LFE13:
 1758              		.section	.rodata.__func__.8841,"a",%progbits
 1759              		.align	2
 1762              	__func__.8841:
 1763 0000 646D5F68 		.ascii	"dm_handleRequest\000"
 1763      616E646C 
 1763      65526571 
 1763      75657374 
 1763      00
 1764              		.text
ARM GAS  C:\Users\dtjld\AppData\Local\Temp\ccGRo6oh.s 			page 48


 1765              	.Letext0:
 1766              		.file 3 "c:\\ac6\\systemworkbench\\plugins\\fr.ac6.mcu.externaltools.arm-none.win32_1.16.0.2018071
 1767              		.file 4 "c:\\ac6\\systemworkbench\\plugins\\fr.ac6.mcu.externaltools.arm-none.win32_1.16.0.2018071
 1768              		.file 5 "C:/Users/dtjld/Desktop/AIoT_software/LiteOS_Lab_overseas/LiteOS_Lab/iot_link/network/lwm2
 1769              		.file 6 "c:\\ac6\\systemworkbench\\plugins\\fr.ac6.mcu.externaltools.arm-none.win32_1.16.0.2018071
 1770              		.file 7 "c:\\ac6\\systemworkbench\\plugins\\fr.ac6.mcu.externaltools.arm-none.win32_1.16.0.2018071
 1771              		.file 8 "c:\\ac6\\systemworkbench\\plugins\\fr.ac6.mcu.externaltools.arm-none.win32_1.16.0.2018071
 1772              		.file 9 "c:\\ac6\\systemworkbench\\plugins\\fr.ac6.mcu.externaltools.arm-none.win32_1.16.0.2018071
 1773              		.file 10 "c:\\ac6\\systemworkbench\\plugins\\fr.ac6.mcu.externaltools.arm-none.win32_1.16.0.201807
 1774              		.file 11 "c:\\ac6\\systemworkbench\\plugins\\fr.ac6.mcu.externaltools.arm-none.win32_1.16.0.201807
 1775              		.file 12 "C:/Users/dtjld/Desktop/AIoT_software/LiteOS_Lab_overseas/LiteOS_Lab/iot_link/network/lwm
 1776              		.file 13 "C:/Users/dtjld/Desktop/AIoT_software/LiteOS_Lab_overseas/LiteOS_Lab/iot_link/network/lwm
 1777              		.file 14 "c:\\ac6\\systemworkbench\\plugins\\fr.ac6.mcu.externaltools.arm-none.win32_1.16.0.201807
 1778              		.file 15 "c:\\ac6\\systemworkbench\\plugins\\fr.ac6.mcu.externaltools.arm-none.win32_1.16.0.201807
 1779              		.file 16 "C:/Users/dtjld/Desktop/AIoT_software/LiteOS_Lab_overseas/LiteOS_Lab/iot_link/oc/oc_lwm2m
ARM GAS  C:\Users\dtjld\AppData\Local\Temp\ccGRo6oh.s 			page 49

