ARM GAS  C:\Users\dtjld\AppData\Local\Temp\cccY4U5j.s 			page 1


   1              		.cpu cortex-m4
   2              		.eabi_attribute 27, 1
   3              		.eabi_attribute 28, 1
   4              		.eabi_attribute 20, 1
   5              		.eabi_attribute 21, 1
   6              		.eabi_attribute 23, 3
   7              		.eabi_attribute 24, 1
   8              		.eabi_attribute 25, 1
   9              		.eabi_attribute 26, 1
  10              		.eabi_attribute 30, 6
  11              		.eabi_attribute 34, 1
  12              		.eabi_attribute 18, 4
  13              		.file	"md5.c"
  14              		.text
  15              	.Ltext0:
  16              		.cfi_sections	.debug_frame
  17              		.section	.text.mbedtls_md5_init,"ax",%progbits
  18              		.align	1
  19              		.global	mbedtls_md5_init
  20              		.syntax unified
  21              		.thumb
  22              		.thumb_func
  23              		.fpu fpv4-sp-d16
  25              	mbedtls_md5_init:
  26              	.LFB3:
  27              		.file 1 "C:/Users/dtjld/workspace/AIoT/src/LiteOS_Lab/iot_link/network/dtls/mbedtls/mbedtls-2.16.2
   1:C:/Users/dtjld/workspace/AIoT/src/LiteOS_Lab/iot_link/network/dtls/mbedtls/mbedtls-2.16.2/library\md5.c **** /*
   2:C:/Users/dtjld/workspace/AIoT/src/LiteOS_Lab/iot_link/network/dtls/mbedtls/mbedtls-2.16.2/library\md5.c ****  *  RFC 1321 compliant MD5 implementation
   3:C:/Users/dtjld/workspace/AIoT/src/LiteOS_Lab/iot_link/network/dtls/mbedtls/mbedtls-2.16.2/library\md5.c ****  *
   4:C:/Users/dtjld/workspace/AIoT/src/LiteOS_Lab/iot_link/network/dtls/mbedtls/mbedtls-2.16.2/library\md5.c ****  *  Copyright (C) 2006-2015, ARM Limited, All Rights Reserved
   5:C:/Users/dtjld/workspace/AIoT/src/LiteOS_Lab/iot_link/network/dtls/mbedtls/mbedtls-2.16.2/library\md5.c ****  *  SPDX-License-Identifier: Apache-2.0
   6:C:/Users/dtjld/workspace/AIoT/src/LiteOS_Lab/iot_link/network/dtls/mbedtls/mbedtls-2.16.2/library\md5.c ****  *
   7:C:/Users/dtjld/workspace/AIoT/src/LiteOS_Lab/iot_link/network/dtls/mbedtls/mbedtls-2.16.2/library\md5.c ****  *  Licensed under the Apache License, Version 2.0 (the "License"); you may
   8:C:/Users/dtjld/workspace/AIoT/src/LiteOS_Lab/iot_link/network/dtls/mbedtls/mbedtls-2.16.2/library\md5.c ****  *  not use this file except in compliance with the License.
   9:C:/Users/dtjld/workspace/AIoT/src/LiteOS_Lab/iot_link/network/dtls/mbedtls/mbedtls-2.16.2/library\md5.c ****  *  You may obtain a copy of the License at
  10:C:/Users/dtjld/workspace/AIoT/src/LiteOS_Lab/iot_link/network/dtls/mbedtls/mbedtls-2.16.2/library\md5.c ****  *
  11:C:/Users/dtjld/workspace/AIoT/src/LiteOS_Lab/iot_link/network/dtls/mbedtls/mbedtls-2.16.2/library\md5.c ****  *  http://www.apache.org/licenses/LICENSE-2.0
  12:C:/Users/dtjld/workspace/AIoT/src/LiteOS_Lab/iot_link/network/dtls/mbedtls/mbedtls-2.16.2/library\md5.c ****  *
  13:C:/Users/dtjld/workspace/AIoT/src/LiteOS_Lab/iot_link/network/dtls/mbedtls/mbedtls-2.16.2/library\md5.c ****  *  Unless required by applicable law or agreed to in writing, software
  14:C:/Users/dtjld/workspace/AIoT/src/LiteOS_Lab/iot_link/network/dtls/mbedtls/mbedtls-2.16.2/library\md5.c ****  *  distributed under the License is distributed on an "AS IS" BASIS, WITHOUT
  15:C:/Users/dtjld/workspace/AIoT/src/LiteOS_Lab/iot_link/network/dtls/mbedtls/mbedtls-2.16.2/library\md5.c ****  *  WARRANTIES OR CONDITIONS OF ANY KIND, either express or implied.
  16:C:/Users/dtjld/workspace/AIoT/src/LiteOS_Lab/iot_link/network/dtls/mbedtls/mbedtls-2.16.2/library\md5.c ****  *  See the License for the specific language governing permissions and
  17:C:/Users/dtjld/workspace/AIoT/src/LiteOS_Lab/iot_link/network/dtls/mbedtls/mbedtls-2.16.2/library\md5.c ****  *  limitations under the License.
  18:C:/Users/dtjld/workspace/AIoT/src/LiteOS_Lab/iot_link/network/dtls/mbedtls/mbedtls-2.16.2/library\md5.c ****  *
  19:C:/Users/dtjld/workspace/AIoT/src/LiteOS_Lab/iot_link/network/dtls/mbedtls/mbedtls-2.16.2/library\md5.c ****  *  This file is part of mbed TLS (https://tls.mbed.org)
  20:C:/Users/dtjld/workspace/AIoT/src/LiteOS_Lab/iot_link/network/dtls/mbedtls/mbedtls-2.16.2/library\md5.c ****  */
  21:C:/Users/dtjld/workspace/AIoT/src/LiteOS_Lab/iot_link/network/dtls/mbedtls/mbedtls-2.16.2/library\md5.c **** /*
  22:C:/Users/dtjld/workspace/AIoT/src/LiteOS_Lab/iot_link/network/dtls/mbedtls/mbedtls-2.16.2/library\md5.c ****  *  The MD5 algorithm was designed by Ron Rivest in 1991.
  23:C:/Users/dtjld/workspace/AIoT/src/LiteOS_Lab/iot_link/network/dtls/mbedtls/mbedtls-2.16.2/library\md5.c ****  *
  24:C:/Users/dtjld/workspace/AIoT/src/LiteOS_Lab/iot_link/network/dtls/mbedtls/mbedtls-2.16.2/library\md5.c ****  *  http://www.ietf.org/rfc/rfc1321.txt
  25:C:/Users/dtjld/workspace/AIoT/src/LiteOS_Lab/iot_link/network/dtls/mbedtls/mbedtls-2.16.2/library\md5.c ****  */
  26:C:/Users/dtjld/workspace/AIoT/src/LiteOS_Lab/iot_link/network/dtls/mbedtls/mbedtls-2.16.2/library\md5.c **** 
  27:C:/Users/dtjld/workspace/AIoT/src/LiteOS_Lab/iot_link/network/dtls/mbedtls/mbedtls-2.16.2/library\md5.c **** #if !defined(MBEDTLS_CONFIG_FILE)
  28:C:/Users/dtjld/workspace/AIoT/src/LiteOS_Lab/iot_link/network/dtls/mbedtls/mbedtls-2.16.2/library\md5.c **** #include "mbedtls/config.h"
  29:C:/Users/dtjld/workspace/AIoT/src/LiteOS_Lab/iot_link/network/dtls/mbedtls/mbedtls-2.16.2/library\md5.c **** #else
  30:C:/Users/dtjld/workspace/AIoT/src/LiteOS_Lab/iot_link/network/dtls/mbedtls/mbedtls-2.16.2/library\md5.c **** #include MBEDTLS_CONFIG_FILE
  31:C:/Users/dtjld/workspace/AIoT/src/LiteOS_Lab/iot_link/network/dtls/mbedtls/mbedtls-2.16.2/library\md5.c **** #endif
ARM GAS  C:\Users\dtjld\AppData\Local\Temp\cccY4U5j.s 			page 2


  32:C:/Users/dtjld/workspace/AIoT/src/LiteOS_Lab/iot_link/network/dtls/mbedtls/mbedtls-2.16.2/library\md5.c **** 
  33:C:/Users/dtjld/workspace/AIoT/src/LiteOS_Lab/iot_link/network/dtls/mbedtls/mbedtls-2.16.2/library\md5.c **** #if defined(MBEDTLS_MD5_C)
  34:C:/Users/dtjld/workspace/AIoT/src/LiteOS_Lab/iot_link/network/dtls/mbedtls/mbedtls-2.16.2/library\md5.c **** 
  35:C:/Users/dtjld/workspace/AIoT/src/LiteOS_Lab/iot_link/network/dtls/mbedtls/mbedtls-2.16.2/library\md5.c **** #include "mbedtls/md5.h"
  36:C:/Users/dtjld/workspace/AIoT/src/LiteOS_Lab/iot_link/network/dtls/mbedtls/mbedtls-2.16.2/library\md5.c **** #include "mbedtls/platform_util.h"
  37:C:/Users/dtjld/workspace/AIoT/src/LiteOS_Lab/iot_link/network/dtls/mbedtls/mbedtls-2.16.2/library\md5.c **** 
  38:C:/Users/dtjld/workspace/AIoT/src/LiteOS_Lab/iot_link/network/dtls/mbedtls/mbedtls-2.16.2/library\md5.c **** #include <string.h>
  39:C:/Users/dtjld/workspace/AIoT/src/LiteOS_Lab/iot_link/network/dtls/mbedtls/mbedtls-2.16.2/library\md5.c **** 
  40:C:/Users/dtjld/workspace/AIoT/src/LiteOS_Lab/iot_link/network/dtls/mbedtls/mbedtls-2.16.2/library\md5.c **** #if defined(MBEDTLS_SELF_TEST)
  41:C:/Users/dtjld/workspace/AIoT/src/LiteOS_Lab/iot_link/network/dtls/mbedtls/mbedtls-2.16.2/library\md5.c **** #if defined(MBEDTLS_PLATFORM_C)
  42:C:/Users/dtjld/workspace/AIoT/src/LiteOS_Lab/iot_link/network/dtls/mbedtls/mbedtls-2.16.2/library\md5.c **** #include "mbedtls/platform.h"
  43:C:/Users/dtjld/workspace/AIoT/src/LiteOS_Lab/iot_link/network/dtls/mbedtls/mbedtls-2.16.2/library\md5.c **** #else
  44:C:/Users/dtjld/workspace/AIoT/src/LiteOS_Lab/iot_link/network/dtls/mbedtls/mbedtls-2.16.2/library\md5.c **** #include <stdio.h>
  45:C:/Users/dtjld/workspace/AIoT/src/LiteOS_Lab/iot_link/network/dtls/mbedtls/mbedtls-2.16.2/library\md5.c **** #define mbedtls_printf printf
  46:C:/Users/dtjld/workspace/AIoT/src/LiteOS_Lab/iot_link/network/dtls/mbedtls/mbedtls-2.16.2/library\md5.c **** #endif /* MBEDTLS_PLATFORM_C */
  47:C:/Users/dtjld/workspace/AIoT/src/LiteOS_Lab/iot_link/network/dtls/mbedtls/mbedtls-2.16.2/library\md5.c **** #endif /* MBEDTLS_SELF_TEST */
  48:C:/Users/dtjld/workspace/AIoT/src/LiteOS_Lab/iot_link/network/dtls/mbedtls/mbedtls-2.16.2/library\md5.c **** 
  49:C:/Users/dtjld/workspace/AIoT/src/LiteOS_Lab/iot_link/network/dtls/mbedtls/mbedtls-2.16.2/library\md5.c **** #if !defined(MBEDTLS_MD5_ALT)
  50:C:/Users/dtjld/workspace/AIoT/src/LiteOS_Lab/iot_link/network/dtls/mbedtls/mbedtls-2.16.2/library\md5.c **** 
  51:C:/Users/dtjld/workspace/AIoT/src/LiteOS_Lab/iot_link/network/dtls/mbedtls/mbedtls-2.16.2/library\md5.c **** /*
  52:C:/Users/dtjld/workspace/AIoT/src/LiteOS_Lab/iot_link/network/dtls/mbedtls/mbedtls-2.16.2/library\md5.c ****  * 32-bit integer manipulation macros (little endian)
  53:C:/Users/dtjld/workspace/AIoT/src/LiteOS_Lab/iot_link/network/dtls/mbedtls/mbedtls-2.16.2/library\md5.c ****  */
  54:C:/Users/dtjld/workspace/AIoT/src/LiteOS_Lab/iot_link/network/dtls/mbedtls/mbedtls-2.16.2/library\md5.c **** #ifndef GET_UINT32_LE
  55:C:/Users/dtjld/workspace/AIoT/src/LiteOS_Lab/iot_link/network/dtls/mbedtls/mbedtls-2.16.2/library\md5.c **** #define GET_UINT32_LE(n,b,i)                            \
  56:C:/Users/dtjld/workspace/AIoT/src/LiteOS_Lab/iot_link/network/dtls/mbedtls/mbedtls-2.16.2/library\md5.c **** {                                                       \
  57:C:/Users/dtjld/workspace/AIoT/src/LiteOS_Lab/iot_link/network/dtls/mbedtls/mbedtls-2.16.2/library\md5.c ****     (n) = ( (uint32_t) (b)[(i)    ]       )             \
  58:C:/Users/dtjld/workspace/AIoT/src/LiteOS_Lab/iot_link/network/dtls/mbedtls/mbedtls-2.16.2/library\md5.c ****         | ( (uint32_t) (b)[(i) + 1] <<  8 )             \
  59:C:/Users/dtjld/workspace/AIoT/src/LiteOS_Lab/iot_link/network/dtls/mbedtls/mbedtls-2.16.2/library\md5.c ****         | ( (uint32_t) (b)[(i) + 2] << 16 )             \
  60:C:/Users/dtjld/workspace/AIoT/src/LiteOS_Lab/iot_link/network/dtls/mbedtls/mbedtls-2.16.2/library\md5.c ****         | ( (uint32_t) (b)[(i) + 3] << 24 );            \
  61:C:/Users/dtjld/workspace/AIoT/src/LiteOS_Lab/iot_link/network/dtls/mbedtls/mbedtls-2.16.2/library\md5.c **** }
  62:C:/Users/dtjld/workspace/AIoT/src/LiteOS_Lab/iot_link/network/dtls/mbedtls/mbedtls-2.16.2/library\md5.c **** #endif
  63:C:/Users/dtjld/workspace/AIoT/src/LiteOS_Lab/iot_link/network/dtls/mbedtls/mbedtls-2.16.2/library\md5.c **** 
  64:C:/Users/dtjld/workspace/AIoT/src/LiteOS_Lab/iot_link/network/dtls/mbedtls/mbedtls-2.16.2/library\md5.c **** #ifndef PUT_UINT32_LE
  65:C:/Users/dtjld/workspace/AIoT/src/LiteOS_Lab/iot_link/network/dtls/mbedtls/mbedtls-2.16.2/library\md5.c **** #define PUT_UINT32_LE(n,b,i)                                    \
  66:C:/Users/dtjld/workspace/AIoT/src/LiteOS_Lab/iot_link/network/dtls/mbedtls/mbedtls-2.16.2/library\md5.c **** {                                                               \
  67:C:/Users/dtjld/workspace/AIoT/src/LiteOS_Lab/iot_link/network/dtls/mbedtls/mbedtls-2.16.2/library\md5.c ****     (b)[(i)    ] = (unsigned char) ( ( (n)       ) & 0xFF );    \
  68:C:/Users/dtjld/workspace/AIoT/src/LiteOS_Lab/iot_link/network/dtls/mbedtls/mbedtls-2.16.2/library\md5.c ****     (b)[(i) + 1] = (unsigned char) ( ( (n) >>  8 ) & 0xFF );    \
  69:C:/Users/dtjld/workspace/AIoT/src/LiteOS_Lab/iot_link/network/dtls/mbedtls/mbedtls-2.16.2/library\md5.c ****     (b)[(i) + 2] = (unsigned char) ( ( (n) >> 16 ) & 0xFF );    \
  70:C:/Users/dtjld/workspace/AIoT/src/LiteOS_Lab/iot_link/network/dtls/mbedtls/mbedtls-2.16.2/library\md5.c ****     (b)[(i) + 3] = (unsigned char) ( ( (n) >> 24 ) & 0xFF );    \
  71:C:/Users/dtjld/workspace/AIoT/src/LiteOS_Lab/iot_link/network/dtls/mbedtls/mbedtls-2.16.2/library\md5.c **** }
  72:C:/Users/dtjld/workspace/AIoT/src/LiteOS_Lab/iot_link/network/dtls/mbedtls/mbedtls-2.16.2/library\md5.c **** #endif
  73:C:/Users/dtjld/workspace/AIoT/src/LiteOS_Lab/iot_link/network/dtls/mbedtls/mbedtls-2.16.2/library\md5.c **** 
  74:C:/Users/dtjld/workspace/AIoT/src/LiteOS_Lab/iot_link/network/dtls/mbedtls/mbedtls-2.16.2/library\md5.c **** void mbedtls_md5_init( mbedtls_md5_context *ctx )
  75:C:/Users/dtjld/workspace/AIoT/src/LiteOS_Lab/iot_link/network/dtls/mbedtls/mbedtls-2.16.2/library\md5.c **** {
  28              		.loc 1 75 0
  29              		.cfi_startproc
  30              		@ args = 0, pretend = 0, frame = 8
  31              		@ frame_needed = 1, uses_anonymous_args = 0
  32 0000 80B5     		push	{r7, lr}
  33              	.LCFI0:
  34              		.cfi_def_cfa_offset 8
  35              		.cfi_offset 7, -8
  36              		.cfi_offset 14, -4
  37 0002 82B0     		sub	sp, sp, #8
  38              	.LCFI1:
  39              		.cfi_def_cfa_offset 16
  40 0004 00AF     		add	r7, sp, #0
ARM GAS  C:\Users\dtjld\AppData\Local\Temp\cccY4U5j.s 			page 3


  41              	.LCFI2:
  42              		.cfi_def_cfa_register 7
  43 0006 7860     		str	r0, [r7, #4]
  76:C:/Users/dtjld/workspace/AIoT/src/LiteOS_Lab/iot_link/network/dtls/mbedtls/mbedtls-2.16.2/library\md5.c ****     memset( ctx, 0, sizeof( mbedtls_md5_context ) );
  44              		.loc 1 76 0
  45 0008 5822     		movs	r2, #88
  46 000a 0021     		movs	r1, #0
  47 000c 7868     		ldr	r0, [r7, #4]
  48 000e FFF7FEFF 		bl	memset
  77:C:/Users/dtjld/workspace/AIoT/src/LiteOS_Lab/iot_link/network/dtls/mbedtls/mbedtls-2.16.2/library\md5.c **** }
  49              		.loc 1 77 0
  50 0012 00BF     		nop
  51 0014 0837     		adds	r7, r7, #8
  52              	.LCFI3:
  53              		.cfi_def_cfa_offset 8
  54 0016 BD46     		mov	sp, r7
  55              	.LCFI4:
  56              		.cfi_def_cfa_register 13
  57              		@ sp needed
  58 0018 80BD     		pop	{r7, pc}
  59              		.cfi_endproc
  60              	.LFE3:
  62              		.section	.text.mbedtls_md5_free,"ax",%progbits
  63              		.align	1
  64              		.global	mbedtls_md5_free
  65              		.syntax unified
  66              		.thumb
  67              		.thumb_func
  68              		.fpu fpv4-sp-d16
  70              	mbedtls_md5_free:
  71              	.LFB4:
  78:C:/Users/dtjld/workspace/AIoT/src/LiteOS_Lab/iot_link/network/dtls/mbedtls/mbedtls-2.16.2/library\md5.c **** 
  79:C:/Users/dtjld/workspace/AIoT/src/LiteOS_Lab/iot_link/network/dtls/mbedtls/mbedtls-2.16.2/library\md5.c **** void mbedtls_md5_free( mbedtls_md5_context *ctx )
  80:C:/Users/dtjld/workspace/AIoT/src/LiteOS_Lab/iot_link/network/dtls/mbedtls/mbedtls-2.16.2/library\md5.c **** {
  72              		.loc 1 80 0
  73              		.cfi_startproc
  74              		@ args = 0, pretend = 0, frame = 8
  75              		@ frame_needed = 1, uses_anonymous_args = 0
  76 0000 80B5     		push	{r7, lr}
  77              	.LCFI5:
  78              		.cfi_def_cfa_offset 8
  79              		.cfi_offset 7, -8
  80              		.cfi_offset 14, -4
  81 0002 82B0     		sub	sp, sp, #8
  82              	.LCFI6:
  83              		.cfi_def_cfa_offset 16
  84 0004 00AF     		add	r7, sp, #0
  85              	.LCFI7:
  86              		.cfi_def_cfa_register 7
  87 0006 7860     		str	r0, [r7, #4]
  81:C:/Users/dtjld/workspace/AIoT/src/LiteOS_Lab/iot_link/network/dtls/mbedtls/mbedtls-2.16.2/library\md5.c ****     if( ctx == NULL )
  88              		.loc 1 81 0
  89 0008 7B68     		ldr	r3, [r7, #4]
  90 000a 002B     		cmp	r3, #0
  91 000c 04D0     		beq	.L5
  82:C:/Users/dtjld/workspace/AIoT/src/LiteOS_Lab/iot_link/network/dtls/mbedtls/mbedtls-2.16.2/library\md5.c ****         return;
  83:C:/Users/dtjld/workspace/AIoT/src/LiteOS_Lab/iot_link/network/dtls/mbedtls/mbedtls-2.16.2/library\md5.c **** 
ARM GAS  C:\Users\dtjld\AppData\Local\Temp\cccY4U5j.s 			page 4


  84:C:/Users/dtjld/workspace/AIoT/src/LiteOS_Lab/iot_link/network/dtls/mbedtls/mbedtls-2.16.2/library\md5.c ****     mbedtls_platform_zeroize( ctx, sizeof( mbedtls_md5_context ) );
  92              		.loc 1 84 0
  93 000e 5821     		movs	r1, #88
  94 0010 7868     		ldr	r0, [r7, #4]
  95 0012 FFF7FEFF 		bl	mbedtls_platform_zeroize
  96 0016 00E0     		b	.L2
  97              	.L5:
  82:C:/Users/dtjld/workspace/AIoT/src/LiteOS_Lab/iot_link/network/dtls/mbedtls/mbedtls-2.16.2/library\md5.c ****         return;
  98              		.loc 1 82 0
  99 0018 00BF     		nop
 100              	.L2:
  85:C:/Users/dtjld/workspace/AIoT/src/LiteOS_Lab/iot_link/network/dtls/mbedtls/mbedtls-2.16.2/library\md5.c **** }
 101              		.loc 1 85 0
 102 001a 0837     		adds	r7, r7, #8
 103              	.LCFI8:
 104              		.cfi_def_cfa_offset 8
 105 001c BD46     		mov	sp, r7
 106              	.LCFI9:
 107              		.cfi_def_cfa_register 13
 108              		@ sp needed
 109 001e 80BD     		pop	{r7, pc}
 110              		.cfi_endproc
 111              	.LFE4:
 113              		.section	.text.mbedtls_md5_clone,"ax",%progbits
 114              		.align	1
 115              		.global	mbedtls_md5_clone
 116              		.syntax unified
 117              		.thumb
 118              		.thumb_func
 119              		.fpu fpv4-sp-d16
 121              	mbedtls_md5_clone:
 122              	.LFB5:
  86:C:/Users/dtjld/workspace/AIoT/src/LiteOS_Lab/iot_link/network/dtls/mbedtls/mbedtls-2.16.2/library\md5.c **** 
  87:C:/Users/dtjld/workspace/AIoT/src/LiteOS_Lab/iot_link/network/dtls/mbedtls/mbedtls-2.16.2/library\md5.c **** void mbedtls_md5_clone( mbedtls_md5_context *dst,
  88:C:/Users/dtjld/workspace/AIoT/src/LiteOS_Lab/iot_link/network/dtls/mbedtls/mbedtls-2.16.2/library\md5.c ****                         const mbedtls_md5_context *src )
  89:C:/Users/dtjld/workspace/AIoT/src/LiteOS_Lab/iot_link/network/dtls/mbedtls/mbedtls-2.16.2/library\md5.c **** {
 123              		.loc 1 89 0
 124              		.cfi_startproc
 125              		@ args = 0, pretend = 0, frame = 8
 126              		@ frame_needed = 1, uses_anonymous_args = 0
 127 0000 80B5     		push	{r7, lr}
 128              	.LCFI10:
 129              		.cfi_def_cfa_offset 8
 130              		.cfi_offset 7, -8
 131              		.cfi_offset 14, -4
 132 0002 82B0     		sub	sp, sp, #8
 133              	.LCFI11:
 134              		.cfi_def_cfa_offset 16
 135 0004 00AF     		add	r7, sp, #0
 136              	.LCFI12:
 137              		.cfi_def_cfa_register 7
 138 0006 7860     		str	r0, [r7, #4]
 139 0008 3960     		str	r1, [r7]
  90:C:/Users/dtjld/workspace/AIoT/src/LiteOS_Lab/iot_link/network/dtls/mbedtls/mbedtls-2.16.2/library\md5.c ****     *dst = *src;
 140              		.loc 1 90 0
 141 000a 7A68     		ldr	r2, [r7, #4]
 142 000c 3B68     		ldr	r3, [r7]
ARM GAS  C:\Users\dtjld\AppData\Local\Temp\cccY4U5j.s 			page 5


 143 000e 1046     		mov	r0, r2
 144 0010 1946     		mov	r1, r3
 145 0012 5823     		movs	r3, #88
 146 0014 1A46     		mov	r2, r3
 147 0016 FFF7FEFF 		bl	memcpy
  91:C:/Users/dtjld/workspace/AIoT/src/LiteOS_Lab/iot_link/network/dtls/mbedtls/mbedtls-2.16.2/library\md5.c **** }
 148              		.loc 1 91 0
 149 001a 00BF     		nop
 150 001c 0837     		adds	r7, r7, #8
 151              	.LCFI13:
 152              		.cfi_def_cfa_offset 8
 153 001e BD46     		mov	sp, r7
 154              	.LCFI14:
 155              		.cfi_def_cfa_register 13
 156              		@ sp needed
 157 0020 80BD     		pop	{r7, pc}
 158              		.cfi_endproc
 159              	.LFE5:
 161              		.section	.text.mbedtls_md5_starts_ret,"ax",%progbits
 162              		.align	1
 163              		.global	mbedtls_md5_starts_ret
 164              		.syntax unified
 165              		.thumb
 166              		.thumb_func
 167              		.fpu fpv4-sp-d16
 169              	mbedtls_md5_starts_ret:
 170              	.LFB6:
  92:C:/Users/dtjld/workspace/AIoT/src/LiteOS_Lab/iot_link/network/dtls/mbedtls/mbedtls-2.16.2/library\md5.c **** 
  93:C:/Users/dtjld/workspace/AIoT/src/LiteOS_Lab/iot_link/network/dtls/mbedtls/mbedtls-2.16.2/library\md5.c **** /*
  94:C:/Users/dtjld/workspace/AIoT/src/LiteOS_Lab/iot_link/network/dtls/mbedtls/mbedtls-2.16.2/library\md5.c ****  * MD5 context setup
  95:C:/Users/dtjld/workspace/AIoT/src/LiteOS_Lab/iot_link/network/dtls/mbedtls/mbedtls-2.16.2/library\md5.c ****  */
  96:C:/Users/dtjld/workspace/AIoT/src/LiteOS_Lab/iot_link/network/dtls/mbedtls/mbedtls-2.16.2/library\md5.c **** int mbedtls_md5_starts_ret( mbedtls_md5_context *ctx )
  97:C:/Users/dtjld/workspace/AIoT/src/LiteOS_Lab/iot_link/network/dtls/mbedtls/mbedtls-2.16.2/library\md5.c **** {
 171              		.loc 1 97 0
 172              		.cfi_startproc
 173              		@ args = 0, pretend = 0, frame = 8
 174              		@ frame_needed = 1, uses_anonymous_args = 0
 175              		@ link register save eliminated.
 176 0000 80B4     		push	{r7}
 177              	.LCFI15:
 178              		.cfi_def_cfa_offset 4
 179              		.cfi_offset 7, -4
 180 0002 83B0     		sub	sp, sp, #12
 181              	.LCFI16:
 182              		.cfi_def_cfa_offset 16
 183 0004 00AF     		add	r7, sp, #0
 184              	.LCFI17:
 185              		.cfi_def_cfa_register 7
 186 0006 7860     		str	r0, [r7, #4]
  98:C:/Users/dtjld/workspace/AIoT/src/LiteOS_Lab/iot_link/network/dtls/mbedtls/mbedtls-2.16.2/library\md5.c ****     ctx->total[0] = 0;
 187              		.loc 1 98 0
 188 0008 7B68     		ldr	r3, [r7, #4]
 189 000a 0022     		movs	r2, #0
 190 000c 1A60     		str	r2, [r3]
  99:C:/Users/dtjld/workspace/AIoT/src/LiteOS_Lab/iot_link/network/dtls/mbedtls/mbedtls-2.16.2/library\md5.c ****     ctx->total[1] = 0;
 191              		.loc 1 99 0
 192 000e 7B68     		ldr	r3, [r7, #4]
ARM GAS  C:\Users\dtjld\AppData\Local\Temp\cccY4U5j.s 			page 6


 193 0010 0022     		movs	r2, #0
 194 0012 5A60     		str	r2, [r3, #4]
 100:C:/Users/dtjld/workspace/AIoT/src/LiteOS_Lab/iot_link/network/dtls/mbedtls/mbedtls-2.16.2/library\md5.c **** 
 101:C:/Users/dtjld/workspace/AIoT/src/LiteOS_Lab/iot_link/network/dtls/mbedtls/mbedtls-2.16.2/library\md5.c ****     ctx->state[0] = 0x67452301;
 195              		.loc 1 101 0
 196 0014 7B68     		ldr	r3, [r7, #4]
 197 0016 094A     		ldr	r2, .L9
 198 0018 9A60     		str	r2, [r3, #8]
 102:C:/Users/dtjld/workspace/AIoT/src/LiteOS_Lab/iot_link/network/dtls/mbedtls/mbedtls-2.16.2/library\md5.c ****     ctx->state[1] = 0xEFCDAB89;
 199              		.loc 1 102 0
 200 001a 7B68     		ldr	r3, [r7, #4]
 201 001c 084A     		ldr	r2, .L9+4
 202 001e DA60     		str	r2, [r3, #12]
 103:C:/Users/dtjld/workspace/AIoT/src/LiteOS_Lab/iot_link/network/dtls/mbedtls/mbedtls-2.16.2/library\md5.c ****     ctx->state[2] = 0x98BADCFE;
 203              		.loc 1 103 0
 204 0020 7B68     		ldr	r3, [r7, #4]
 205 0022 084A     		ldr	r2, .L9+8
 206 0024 1A61     		str	r2, [r3, #16]
 104:C:/Users/dtjld/workspace/AIoT/src/LiteOS_Lab/iot_link/network/dtls/mbedtls/mbedtls-2.16.2/library\md5.c ****     ctx->state[3] = 0x10325476;
 207              		.loc 1 104 0
 208 0026 7B68     		ldr	r3, [r7, #4]
 209 0028 074A     		ldr	r2, .L9+12
 210 002a 5A61     		str	r2, [r3, #20]
 105:C:/Users/dtjld/workspace/AIoT/src/LiteOS_Lab/iot_link/network/dtls/mbedtls/mbedtls-2.16.2/library\md5.c **** 
 106:C:/Users/dtjld/workspace/AIoT/src/LiteOS_Lab/iot_link/network/dtls/mbedtls/mbedtls-2.16.2/library\md5.c ****     return( 0 );
 211              		.loc 1 106 0
 212 002c 0023     		movs	r3, #0
 107:C:/Users/dtjld/workspace/AIoT/src/LiteOS_Lab/iot_link/network/dtls/mbedtls/mbedtls-2.16.2/library\md5.c **** }
 213              		.loc 1 107 0
 214 002e 1846     		mov	r0, r3
 215 0030 0C37     		adds	r7, r7, #12
 216              	.LCFI18:
 217              		.cfi_def_cfa_offset 4
 218 0032 BD46     		mov	sp, r7
 219              	.LCFI19:
 220              		.cfi_def_cfa_register 13
 221              		@ sp needed
 222 0034 5DF8047B 		ldr	r7, [sp], #4
 223              	.LCFI20:
 224              		.cfi_restore 7
 225              		.cfi_def_cfa_offset 0
 226 0038 7047     		bx	lr
 227              	.L10:
 228 003a 00BF     		.align	2
 229              	.L9:
 230 003c 01234567 		.word	1732584193
 231 0040 89ABCDEF 		.word	-271733879
 232 0044 FEDCBA98 		.word	-1732584194
 233 0048 76543210 		.word	271733878
 234              		.cfi_endproc
 235              	.LFE6:
 237              		.section	.text.mbedtls_md5_starts,"ax",%progbits
 238              		.align	1
 239              		.global	mbedtls_md5_starts
 240              		.syntax unified
 241              		.thumb
 242              		.thumb_func
ARM GAS  C:\Users\dtjld\AppData\Local\Temp\cccY4U5j.s 			page 7


 243              		.fpu fpv4-sp-d16
 245              	mbedtls_md5_starts:
 246              	.LFB7:
 108:C:/Users/dtjld/workspace/AIoT/src/LiteOS_Lab/iot_link/network/dtls/mbedtls/mbedtls-2.16.2/library\md5.c **** 
 109:C:/Users/dtjld/workspace/AIoT/src/LiteOS_Lab/iot_link/network/dtls/mbedtls/mbedtls-2.16.2/library\md5.c **** #if !defined(MBEDTLS_DEPRECATED_REMOVED)
 110:C:/Users/dtjld/workspace/AIoT/src/LiteOS_Lab/iot_link/network/dtls/mbedtls/mbedtls-2.16.2/library\md5.c **** void mbedtls_md5_starts( mbedtls_md5_context *ctx )
 111:C:/Users/dtjld/workspace/AIoT/src/LiteOS_Lab/iot_link/network/dtls/mbedtls/mbedtls-2.16.2/library\md5.c **** {
 247              		.loc 1 111 0
 248              		.cfi_startproc
 249              		@ args = 0, pretend = 0, frame = 8
 250              		@ frame_needed = 1, uses_anonymous_args = 0
 251 0000 80B5     		push	{r7, lr}
 252              	.LCFI21:
 253              		.cfi_def_cfa_offset 8
 254              		.cfi_offset 7, -8
 255              		.cfi_offset 14, -4
 256 0002 82B0     		sub	sp, sp, #8
 257              	.LCFI22:
 258              		.cfi_def_cfa_offset 16
 259 0004 00AF     		add	r7, sp, #0
 260              	.LCFI23:
 261              		.cfi_def_cfa_register 7
 262 0006 7860     		str	r0, [r7, #4]
 112:C:/Users/dtjld/workspace/AIoT/src/LiteOS_Lab/iot_link/network/dtls/mbedtls/mbedtls-2.16.2/library\md5.c ****     mbedtls_md5_starts_ret( ctx );
 263              		.loc 1 112 0
 264 0008 7868     		ldr	r0, [r7, #4]
 265 000a FFF7FEFF 		bl	mbedtls_md5_starts_ret
 113:C:/Users/dtjld/workspace/AIoT/src/LiteOS_Lab/iot_link/network/dtls/mbedtls/mbedtls-2.16.2/library\md5.c **** }
 266              		.loc 1 113 0
 267 000e 00BF     		nop
 268 0010 0837     		adds	r7, r7, #8
 269              	.LCFI24:
 270              		.cfi_def_cfa_offset 8
 271 0012 BD46     		mov	sp, r7
 272              	.LCFI25:
 273              		.cfi_def_cfa_register 13
 274              		@ sp needed
 275 0014 80BD     		pop	{r7, pc}
 276              		.cfi_endproc
 277              	.LFE7:
 279              		.section	.text.mbedtls_internal_md5_process,"ax",%progbits
 280              		.align	1
 281              		.global	mbedtls_internal_md5_process
 282              		.syntax unified
 283              		.thumb
 284              		.thumb_func
 285              		.fpu fpv4-sp-d16
 287              	mbedtls_internal_md5_process:
 288              	.LFB8:
 114:C:/Users/dtjld/workspace/AIoT/src/LiteOS_Lab/iot_link/network/dtls/mbedtls/mbedtls-2.16.2/library\md5.c **** #endif
 115:C:/Users/dtjld/workspace/AIoT/src/LiteOS_Lab/iot_link/network/dtls/mbedtls/mbedtls-2.16.2/library\md5.c **** 
 116:C:/Users/dtjld/workspace/AIoT/src/LiteOS_Lab/iot_link/network/dtls/mbedtls/mbedtls-2.16.2/library\md5.c **** #if !defined(MBEDTLS_MD5_PROCESS_ALT)
 117:C:/Users/dtjld/workspace/AIoT/src/LiteOS_Lab/iot_link/network/dtls/mbedtls/mbedtls-2.16.2/library\md5.c **** int mbedtls_internal_md5_process( mbedtls_md5_context *ctx,
 118:C:/Users/dtjld/workspace/AIoT/src/LiteOS_Lab/iot_link/network/dtls/mbedtls/mbedtls-2.16.2/library\md5.c ****                                   const unsigned char data[64] )
 119:C:/Users/dtjld/workspace/AIoT/src/LiteOS_Lab/iot_link/network/dtls/mbedtls/mbedtls-2.16.2/library\md5.c **** {
 289              		.loc 1 119 0
 290              		.cfi_startproc
ARM GAS  C:\Users\dtjld\AppData\Local\Temp\cccY4U5j.s 			page 8


 291              		@ args = 0, pretend = 0, frame = 88
 292              		@ frame_needed = 1, uses_anonymous_args = 0
 293              		@ link register save eliminated.
 294 0000 80B4     		push	{r7}
 295              	.LCFI26:
 296              		.cfi_def_cfa_offset 4
 297              		.cfi_offset 7, -4
 298 0002 97B0     		sub	sp, sp, #92
 299              	.LCFI27:
 300              		.cfi_def_cfa_offset 96
 301 0004 00AF     		add	r7, sp, #0
 302              	.LCFI28:
 303              		.cfi_def_cfa_register 7
 304 0006 7860     		str	r0, [r7, #4]
 305 0008 3960     		str	r1, [r7]
 120:C:/Users/dtjld/workspace/AIoT/src/LiteOS_Lab/iot_link/network/dtls/mbedtls/mbedtls-2.16.2/library\md5.c ****     uint32_t X[16], A, B, C, D;
 121:C:/Users/dtjld/workspace/AIoT/src/LiteOS_Lab/iot_link/network/dtls/mbedtls/mbedtls-2.16.2/library\md5.c **** 
 122:C:/Users/dtjld/workspace/AIoT/src/LiteOS_Lab/iot_link/network/dtls/mbedtls/mbedtls-2.16.2/library\md5.c ****     GET_UINT32_LE( X[ 0], data,  0 );
 306              		.loc 1 122 0
 307 000a 3B68     		ldr	r3, [r7]
 308 000c 1B78     		ldrb	r3, [r3]	@ zero_extendqisi2
 309 000e 1A46     		mov	r2, r3
 310 0010 3B68     		ldr	r3, [r7]
 311 0012 0133     		adds	r3, r3, #1
 312 0014 1B78     		ldrb	r3, [r3]	@ zero_extendqisi2
 313 0016 1B02     		lsls	r3, r3, #8
 314 0018 1A43     		orrs	r2, r2, r3
 315 001a 3B68     		ldr	r3, [r7]
 316 001c 0233     		adds	r3, r3, #2
 317 001e 1B78     		ldrb	r3, [r3]	@ zero_extendqisi2
 318 0020 1B04     		lsls	r3, r3, #16
 319 0022 1A43     		orrs	r2, r2, r3
 320 0024 3B68     		ldr	r3, [r7]
 321 0026 0333     		adds	r3, r3, #3
 322 0028 1B78     		ldrb	r3, [r3]	@ zero_extendqisi2
 323 002a 1B06     		lsls	r3, r3, #24
 324 002c 1343     		orrs	r3, r3, r2
 325 002e BB60     		str	r3, [r7, #8]
 123:C:/Users/dtjld/workspace/AIoT/src/LiteOS_Lab/iot_link/network/dtls/mbedtls/mbedtls-2.16.2/library\md5.c ****     GET_UINT32_LE( X[ 1], data,  4 );
 326              		.loc 1 123 0
 327 0030 3B68     		ldr	r3, [r7]
 328 0032 0433     		adds	r3, r3, #4
 329 0034 1B78     		ldrb	r3, [r3]	@ zero_extendqisi2
 330 0036 1A46     		mov	r2, r3
 331 0038 3B68     		ldr	r3, [r7]
 332 003a 0533     		adds	r3, r3, #5
 333 003c 1B78     		ldrb	r3, [r3]	@ zero_extendqisi2
 334 003e 1B02     		lsls	r3, r3, #8
 335 0040 1A43     		orrs	r2, r2, r3
 336 0042 3B68     		ldr	r3, [r7]
 337 0044 0633     		adds	r3, r3, #6
 338 0046 1B78     		ldrb	r3, [r3]	@ zero_extendqisi2
 339 0048 1B04     		lsls	r3, r3, #16
 340 004a 1A43     		orrs	r2, r2, r3
 341 004c 3B68     		ldr	r3, [r7]
 342 004e 0733     		adds	r3, r3, #7
 343 0050 1B78     		ldrb	r3, [r3]	@ zero_extendqisi2
ARM GAS  C:\Users\dtjld\AppData\Local\Temp\cccY4U5j.s 			page 9


 344 0052 1B06     		lsls	r3, r3, #24
 345 0054 1343     		orrs	r3, r3, r2
 346 0056 FB60     		str	r3, [r7, #12]
 124:C:/Users/dtjld/workspace/AIoT/src/LiteOS_Lab/iot_link/network/dtls/mbedtls/mbedtls-2.16.2/library\md5.c ****     GET_UINT32_LE( X[ 2], data,  8 );
 347              		.loc 1 124 0
 348 0058 3B68     		ldr	r3, [r7]
 349 005a 0833     		adds	r3, r3, #8
 350 005c 1B78     		ldrb	r3, [r3]	@ zero_extendqisi2
 351 005e 1A46     		mov	r2, r3
 352 0060 3B68     		ldr	r3, [r7]
 353 0062 0933     		adds	r3, r3, #9
 354 0064 1B78     		ldrb	r3, [r3]	@ zero_extendqisi2
 355 0066 1B02     		lsls	r3, r3, #8
 356 0068 1A43     		orrs	r2, r2, r3
 357 006a 3B68     		ldr	r3, [r7]
 358 006c 0A33     		adds	r3, r3, #10
 359 006e 1B78     		ldrb	r3, [r3]	@ zero_extendqisi2
 360 0070 1B04     		lsls	r3, r3, #16
 361 0072 1A43     		orrs	r2, r2, r3
 362 0074 3B68     		ldr	r3, [r7]
 363 0076 0B33     		adds	r3, r3, #11
 364 0078 1B78     		ldrb	r3, [r3]	@ zero_extendqisi2
 365 007a 1B06     		lsls	r3, r3, #24
 366 007c 1343     		orrs	r3, r3, r2
 367 007e 3B61     		str	r3, [r7, #16]
 125:C:/Users/dtjld/workspace/AIoT/src/LiteOS_Lab/iot_link/network/dtls/mbedtls/mbedtls-2.16.2/library\md5.c ****     GET_UINT32_LE( X[ 3], data, 12 );
 368              		.loc 1 125 0
 369 0080 3B68     		ldr	r3, [r7]
 370 0082 0C33     		adds	r3, r3, #12
 371 0084 1B78     		ldrb	r3, [r3]	@ zero_extendqisi2
 372 0086 1A46     		mov	r2, r3
 373 0088 3B68     		ldr	r3, [r7]
 374 008a 0D33     		adds	r3, r3, #13
 375 008c 1B78     		ldrb	r3, [r3]	@ zero_extendqisi2
 376 008e 1B02     		lsls	r3, r3, #8
 377 0090 1A43     		orrs	r2, r2, r3
 378 0092 3B68     		ldr	r3, [r7]
 379 0094 0E33     		adds	r3, r3, #14
 380 0096 1B78     		ldrb	r3, [r3]	@ zero_extendqisi2
 381 0098 1B04     		lsls	r3, r3, #16
 382 009a 1A43     		orrs	r2, r2, r3
 383 009c 3B68     		ldr	r3, [r7]
 384 009e 0F33     		adds	r3, r3, #15
 385 00a0 1B78     		ldrb	r3, [r3]	@ zero_extendqisi2
 386 00a2 1B06     		lsls	r3, r3, #24
 387 00a4 1343     		orrs	r3, r3, r2
 388 00a6 7B61     		str	r3, [r7, #20]
 126:C:/Users/dtjld/workspace/AIoT/src/LiteOS_Lab/iot_link/network/dtls/mbedtls/mbedtls-2.16.2/library\md5.c ****     GET_UINT32_LE( X[ 4], data, 16 );
 389              		.loc 1 126 0
 390 00a8 3B68     		ldr	r3, [r7]
 391 00aa 1033     		adds	r3, r3, #16
 392 00ac 1B78     		ldrb	r3, [r3]	@ zero_extendqisi2
 393 00ae 1A46     		mov	r2, r3
 394 00b0 3B68     		ldr	r3, [r7]
 395 00b2 1133     		adds	r3, r3, #17
 396 00b4 1B78     		ldrb	r3, [r3]	@ zero_extendqisi2
 397 00b6 1B02     		lsls	r3, r3, #8
ARM GAS  C:\Users\dtjld\AppData\Local\Temp\cccY4U5j.s 			page 10


 398 00b8 1A43     		orrs	r2, r2, r3
 399 00ba 3B68     		ldr	r3, [r7]
 400 00bc 1233     		adds	r3, r3, #18
 401 00be 1B78     		ldrb	r3, [r3]	@ zero_extendqisi2
 402 00c0 1B04     		lsls	r3, r3, #16
 403 00c2 1A43     		orrs	r2, r2, r3
 404 00c4 3B68     		ldr	r3, [r7]
 405 00c6 1333     		adds	r3, r3, #19
 406 00c8 1B78     		ldrb	r3, [r3]	@ zero_extendqisi2
 407 00ca 1B06     		lsls	r3, r3, #24
 408 00cc 1343     		orrs	r3, r3, r2
 409 00ce BB61     		str	r3, [r7, #24]
 127:C:/Users/dtjld/workspace/AIoT/src/LiteOS_Lab/iot_link/network/dtls/mbedtls/mbedtls-2.16.2/library\md5.c ****     GET_UINT32_LE( X[ 5], data, 20 );
 410              		.loc 1 127 0
 411 00d0 3B68     		ldr	r3, [r7]
 412 00d2 1433     		adds	r3, r3, #20
 413 00d4 1B78     		ldrb	r3, [r3]	@ zero_extendqisi2
 414 00d6 1A46     		mov	r2, r3
 415 00d8 3B68     		ldr	r3, [r7]
 416 00da 1533     		adds	r3, r3, #21
 417 00dc 1B78     		ldrb	r3, [r3]	@ zero_extendqisi2
 418 00de 1B02     		lsls	r3, r3, #8
 419 00e0 1A43     		orrs	r2, r2, r3
 420 00e2 3B68     		ldr	r3, [r7]
 421 00e4 1633     		adds	r3, r3, #22
 422 00e6 1B78     		ldrb	r3, [r3]	@ zero_extendqisi2
 423 00e8 1B04     		lsls	r3, r3, #16
 424 00ea 1A43     		orrs	r2, r2, r3
 425 00ec 3B68     		ldr	r3, [r7]
 426 00ee 1733     		adds	r3, r3, #23
 427 00f0 1B78     		ldrb	r3, [r3]	@ zero_extendqisi2
 428 00f2 1B06     		lsls	r3, r3, #24
 429 00f4 1343     		orrs	r3, r3, r2
 430 00f6 FB61     		str	r3, [r7, #28]
 128:C:/Users/dtjld/workspace/AIoT/src/LiteOS_Lab/iot_link/network/dtls/mbedtls/mbedtls-2.16.2/library\md5.c ****     GET_UINT32_LE( X[ 6], data, 24 );
 431              		.loc 1 128 0
 432 00f8 3B68     		ldr	r3, [r7]
 433 00fa 1833     		adds	r3, r3, #24
 434 00fc 1B78     		ldrb	r3, [r3]	@ zero_extendqisi2
 435 00fe 1A46     		mov	r2, r3
 436 0100 3B68     		ldr	r3, [r7]
 437 0102 1933     		adds	r3, r3, #25
 438 0104 1B78     		ldrb	r3, [r3]	@ zero_extendqisi2
 439 0106 1B02     		lsls	r3, r3, #8
 440 0108 1A43     		orrs	r2, r2, r3
 441 010a 3B68     		ldr	r3, [r7]
 442 010c 1A33     		adds	r3, r3, #26
 443 010e 1B78     		ldrb	r3, [r3]	@ zero_extendqisi2
 444 0110 1B04     		lsls	r3, r3, #16
 445 0112 1A43     		orrs	r2, r2, r3
 446 0114 3B68     		ldr	r3, [r7]
 447 0116 1B33     		adds	r3, r3, #27
 448 0118 1B78     		ldrb	r3, [r3]	@ zero_extendqisi2
 449 011a 1B06     		lsls	r3, r3, #24
 450 011c 1343     		orrs	r3, r3, r2
 451 011e 3B62     		str	r3, [r7, #32]
 129:C:/Users/dtjld/workspace/AIoT/src/LiteOS_Lab/iot_link/network/dtls/mbedtls/mbedtls-2.16.2/library\md5.c ****     GET_UINT32_LE( X[ 7], data, 28 );
ARM GAS  C:\Users\dtjld\AppData\Local\Temp\cccY4U5j.s 			page 11


 452              		.loc 1 129 0
 453 0120 3B68     		ldr	r3, [r7]
 454 0122 1C33     		adds	r3, r3, #28
 455 0124 1B78     		ldrb	r3, [r3]	@ zero_extendqisi2
 456 0126 1A46     		mov	r2, r3
 457 0128 3B68     		ldr	r3, [r7]
 458 012a 1D33     		adds	r3, r3, #29
 459 012c 1B78     		ldrb	r3, [r3]	@ zero_extendqisi2
 460 012e 1B02     		lsls	r3, r3, #8
 461 0130 1A43     		orrs	r2, r2, r3
 462 0132 3B68     		ldr	r3, [r7]
 463 0134 1E33     		adds	r3, r3, #30
 464 0136 1B78     		ldrb	r3, [r3]	@ zero_extendqisi2
 465 0138 1B04     		lsls	r3, r3, #16
 466 013a 1A43     		orrs	r2, r2, r3
 467 013c 3B68     		ldr	r3, [r7]
 468 013e 1F33     		adds	r3, r3, #31
 469 0140 1B78     		ldrb	r3, [r3]	@ zero_extendqisi2
 470 0142 1B06     		lsls	r3, r3, #24
 471 0144 1343     		orrs	r3, r3, r2
 472 0146 7B62     		str	r3, [r7, #36]
 130:C:/Users/dtjld/workspace/AIoT/src/LiteOS_Lab/iot_link/network/dtls/mbedtls/mbedtls-2.16.2/library\md5.c ****     GET_UINT32_LE( X[ 8], data, 32 );
 473              		.loc 1 130 0
 474 0148 3B68     		ldr	r3, [r7]
 475 014a 2033     		adds	r3, r3, #32
 476 014c 1B78     		ldrb	r3, [r3]	@ zero_extendqisi2
 477 014e 1A46     		mov	r2, r3
 478 0150 3B68     		ldr	r3, [r7]
 479 0152 2133     		adds	r3, r3, #33
 480 0154 1B78     		ldrb	r3, [r3]	@ zero_extendqisi2
 481 0156 1B02     		lsls	r3, r3, #8
 482 0158 1A43     		orrs	r2, r2, r3
 483 015a 3B68     		ldr	r3, [r7]
 484 015c 2233     		adds	r3, r3, #34
 485 015e 1B78     		ldrb	r3, [r3]	@ zero_extendqisi2
 486 0160 1B04     		lsls	r3, r3, #16
 487 0162 1A43     		orrs	r2, r2, r3
 488 0164 3B68     		ldr	r3, [r7]
 489 0166 2333     		adds	r3, r3, #35
 490 0168 1B78     		ldrb	r3, [r3]	@ zero_extendqisi2
 491 016a 1B06     		lsls	r3, r3, #24
 492 016c 1343     		orrs	r3, r3, r2
 493 016e BB62     		str	r3, [r7, #40]
 131:C:/Users/dtjld/workspace/AIoT/src/LiteOS_Lab/iot_link/network/dtls/mbedtls/mbedtls-2.16.2/library\md5.c ****     GET_UINT32_LE( X[ 9], data, 36 );
 494              		.loc 1 131 0
 495 0170 3B68     		ldr	r3, [r7]
 496 0172 2433     		adds	r3, r3, #36
 497 0174 1B78     		ldrb	r3, [r3]	@ zero_extendqisi2
 498 0176 1A46     		mov	r2, r3
 499 0178 3B68     		ldr	r3, [r7]
 500 017a 2533     		adds	r3, r3, #37
 501 017c 1B78     		ldrb	r3, [r3]	@ zero_extendqisi2
 502 017e 1B02     		lsls	r3, r3, #8
 503 0180 1A43     		orrs	r2, r2, r3
 504 0182 3B68     		ldr	r3, [r7]
 505 0184 2633     		adds	r3, r3, #38
 506 0186 1B78     		ldrb	r3, [r3]	@ zero_extendqisi2
ARM GAS  C:\Users\dtjld\AppData\Local\Temp\cccY4U5j.s 			page 12


 507 0188 1B04     		lsls	r3, r3, #16
 508 018a 1A43     		orrs	r2, r2, r3
 509 018c 3B68     		ldr	r3, [r7]
 510 018e 2733     		adds	r3, r3, #39
 511 0190 1B78     		ldrb	r3, [r3]	@ zero_extendqisi2
 512 0192 1B06     		lsls	r3, r3, #24
 513 0194 1343     		orrs	r3, r3, r2
 514 0196 FB62     		str	r3, [r7, #44]
 132:C:/Users/dtjld/workspace/AIoT/src/LiteOS_Lab/iot_link/network/dtls/mbedtls/mbedtls-2.16.2/library\md5.c ****     GET_UINT32_LE( X[10], data, 40 );
 515              		.loc 1 132 0
 516 0198 3B68     		ldr	r3, [r7]
 517 019a 2833     		adds	r3, r3, #40
 518 019c 1B78     		ldrb	r3, [r3]	@ zero_extendqisi2
 519 019e 1A46     		mov	r2, r3
 520 01a0 3B68     		ldr	r3, [r7]
 521 01a2 2933     		adds	r3, r3, #41
 522 01a4 1B78     		ldrb	r3, [r3]	@ zero_extendqisi2
 523 01a6 1B02     		lsls	r3, r3, #8
 524 01a8 1A43     		orrs	r2, r2, r3
 525 01aa 3B68     		ldr	r3, [r7]
 526 01ac 2A33     		adds	r3, r3, #42
 527 01ae 1B78     		ldrb	r3, [r3]	@ zero_extendqisi2
 528 01b0 1B04     		lsls	r3, r3, #16
 529 01b2 1A43     		orrs	r2, r2, r3
 530 01b4 3B68     		ldr	r3, [r7]
 531 01b6 2B33     		adds	r3, r3, #43
 532 01b8 1B78     		ldrb	r3, [r3]	@ zero_extendqisi2
 533 01ba 1B06     		lsls	r3, r3, #24
 534 01bc 1343     		orrs	r3, r3, r2
 535 01be 3B63     		str	r3, [r7, #48]
 133:C:/Users/dtjld/workspace/AIoT/src/LiteOS_Lab/iot_link/network/dtls/mbedtls/mbedtls-2.16.2/library\md5.c ****     GET_UINT32_LE( X[11], data, 44 );
 536              		.loc 1 133 0
 537 01c0 3B68     		ldr	r3, [r7]
 538 01c2 2C33     		adds	r3, r3, #44
 539 01c4 1B78     		ldrb	r3, [r3]	@ zero_extendqisi2
 540 01c6 1A46     		mov	r2, r3
 541 01c8 3B68     		ldr	r3, [r7]
 542 01ca 2D33     		adds	r3, r3, #45
 543 01cc 1B78     		ldrb	r3, [r3]	@ zero_extendqisi2
 544 01ce 1B02     		lsls	r3, r3, #8
 545 01d0 1A43     		orrs	r2, r2, r3
 546 01d2 3B68     		ldr	r3, [r7]
 547 01d4 2E33     		adds	r3, r3, #46
 548 01d6 1B78     		ldrb	r3, [r3]	@ zero_extendqisi2
 549 01d8 1B04     		lsls	r3, r3, #16
 550 01da 1A43     		orrs	r2, r2, r3
 551 01dc 3B68     		ldr	r3, [r7]
 552 01de 2F33     		adds	r3, r3, #47
 553 01e0 1B78     		ldrb	r3, [r3]	@ zero_extendqisi2
 554 01e2 1B06     		lsls	r3, r3, #24
 555 01e4 1343     		orrs	r3, r3, r2
 556 01e6 7B63     		str	r3, [r7, #52]
 134:C:/Users/dtjld/workspace/AIoT/src/LiteOS_Lab/iot_link/network/dtls/mbedtls/mbedtls-2.16.2/library\md5.c ****     GET_UINT32_LE( X[12], data, 48 );
 557              		.loc 1 134 0
 558 01e8 3B68     		ldr	r3, [r7]
 559 01ea 3033     		adds	r3, r3, #48
 560 01ec 1B78     		ldrb	r3, [r3]	@ zero_extendqisi2
ARM GAS  C:\Users\dtjld\AppData\Local\Temp\cccY4U5j.s 			page 13


 561 01ee 1A46     		mov	r2, r3
 562 01f0 3B68     		ldr	r3, [r7]
 563 01f2 3133     		adds	r3, r3, #49
 564 01f4 1B78     		ldrb	r3, [r3]	@ zero_extendqisi2
 565 01f6 1B02     		lsls	r3, r3, #8
 566 01f8 1A43     		orrs	r2, r2, r3
 567 01fa 3B68     		ldr	r3, [r7]
 568 01fc 3233     		adds	r3, r3, #50
 569 01fe 1B78     		ldrb	r3, [r3]	@ zero_extendqisi2
 570 0200 1B04     		lsls	r3, r3, #16
 571 0202 1A43     		orrs	r2, r2, r3
 572 0204 3B68     		ldr	r3, [r7]
 573 0206 3333     		adds	r3, r3, #51
 574 0208 1B78     		ldrb	r3, [r3]	@ zero_extendqisi2
 575 020a 1B06     		lsls	r3, r3, #24
 576 020c 1343     		orrs	r3, r3, r2
 577 020e BB63     		str	r3, [r7, #56]
 135:C:/Users/dtjld/workspace/AIoT/src/LiteOS_Lab/iot_link/network/dtls/mbedtls/mbedtls-2.16.2/library\md5.c ****     GET_UINT32_LE( X[13], data, 52 );
 578              		.loc 1 135 0
 579 0210 3B68     		ldr	r3, [r7]
 580 0212 3433     		adds	r3, r3, #52
 581 0214 1B78     		ldrb	r3, [r3]	@ zero_extendqisi2
 582 0216 1A46     		mov	r2, r3
 583 0218 3B68     		ldr	r3, [r7]
 584 021a 3533     		adds	r3, r3, #53
 585 021c 1B78     		ldrb	r3, [r3]	@ zero_extendqisi2
 586 021e 1B02     		lsls	r3, r3, #8
 587 0220 1A43     		orrs	r2, r2, r3
 588 0222 3B68     		ldr	r3, [r7]
 589 0224 3633     		adds	r3, r3, #54
 590 0226 1B78     		ldrb	r3, [r3]	@ zero_extendqisi2
 591 0228 1B04     		lsls	r3, r3, #16
 592 022a 1A43     		orrs	r2, r2, r3
 593 022c 3B68     		ldr	r3, [r7]
 594 022e 3733     		adds	r3, r3, #55
 595 0230 1B78     		ldrb	r3, [r3]	@ zero_extendqisi2
 596 0232 1B06     		lsls	r3, r3, #24
 597 0234 1343     		orrs	r3, r3, r2
 598 0236 FB63     		str	r3, [r7, #60]
 136:C:/Users/dtjld/workspace/AIoT/src/LiteOS_Lab/iot_link/network/dtls/mbedtls/mbedtls-2.16.2/library\md5.c ****     GET_UINT32_LE( X[14], data, 56 );
 599              		.loc 1 136 0
 600 0238 3B68     		ldr	r3, [r7]
 601 023a 3833     		adds	r3, r3, #56
 602 023c 1B78     		ldrb	r3, [r3]	@ zero_extendqisi2
 603 023e 1A46     		mov	r2, r3
 604 0240 3B68     		ldr	r3, [r7]
 605 0242 3933     		adds	r3, r3, #57
 606 0244 1B78     		ldrb	r3, [r3]	@ zero_extendqisi2
 607 0246 1B02     		lsls	r3, r3, #8
 608 0248 1A43     		orrs	r2, r2, r3
 609 024a 3B68     		ldr	r3, [r7]
 610 024c 3A33     		adds	r3, r3, #58
 611 024e 1B78     		ldrb	r3, [r3]	@ zero_extendqisi2
 612 0250 1B04     		lsls	r3, r3, #16
 613 0252 1A43     		orrs	r2, r2, r3
 614 0254 3B68     		ldr	r3, [r7]
 615 0256 3B33     		adds	r3, r3, #59
ARM GAS  C:\Users\dtjld\AppData\Local\Temp\cccY4U5j.s 			page 14


 616 0258 1B78     		ldrb	r3, [r3]	@ zero_extendqisi2
 617 025a 1B06     		lsls	r3, r3, #24
 618 025c 1343     		orrs	r3, r3, r2
 619 025e 3B64     		str	r3, [r7, #64]
 137:C:/Users/dtjld/workspace/AIoT/src/LiteOS_Lab/iot_link/network/dtls/mbedtls/mbedtls-2.16.2/library\md5.c ****     GET_UINT32_LE( X[15], data, 60 );
 620              		.loc 1 137 0
 621 0260 3B68     		ldr	r3, [r7]
 622 0262 3C33     		adds	r3, r3, #60
 623 0264 1B78     		ldrb	r3, [r3]	@ zero_extendqisi2
 624 0266 1A46     		mov	r2, r3
 625 0268 3B68     		ldr	r3, [r7]
 626 026a 3D33     		adds	r3, r3, #61
 627 026c 1B78     		ldrb	r3, [r3]	@ zero_extendqisi2
 628 026e 1B02     		lsls	r3, r3, #8
 629 0270 1A43     		orrs	r2, r2, r3
 630 0272 3B68     		ldr	r3, [r7]
 631 0274 3E33     		adds	r3, r3, #62
 632 0276 1B78     		ldrb	r3, [r3]	@ zero_extendqisi2
 633 0278 1B04     		lsls	r3, r3, #16
 634 027a 1A43     		orrs	r2, r2, r3
 635 027c 3B68     		ldr	r3, [r7]
 636 027e 3F33     		adds	r3, r3, #63
 637 0280 1B78     		ldrb	r3, [r3]	@ zero_extendqisi2
 638 0282 1B06     		lsls	r3, r3, #24
 639 0284 1343     		orrs	r3, r3, r2
 640 0286 7B64     		str	r3, [r7, #68]
 138:C:/Users/dtjld/workspace/AIoT/src/LiteOS_Lab/iot_link/network/dtls/mbedtls/mbedtls-2.16.2/library\md5.c **** 
 139:C:/Users/dtjld/workspace/AIoT/src/LiteOS_Lab/iot_link/network/dtls/mbedtls/mbedtls-2.16.2/library\md5.c **** #define S(x,n)                                                          \
 140:C:/Users/dtjld/workspace/AIoT/src/LiteOS_Lab/iot_link/network/dtls/mbedtls/mbedtls-2.16.2/library\md5.c ****     ( ( (x) << (n) ) | ( ( (x) & 0xFFFFFFFF) >> ( 32 - (n) ) ) )
 141:C:/Users/dtjld/workspace/AIoT/src/LiteOS_Lab/iot_link/network/dtls/mbedtls/mbedtls-2.16.2/library\md5.c **** 
 142:C:/Users/dtjld/workspace/AIoT/src/LiteOS_Lab/iot_link/network/dtls/mbedtls/mbedtls-2.16.2/library\md5.c **** #define P(a,b,c,d,k,s,t)                                        \
 143:C:/Users/dtjld/workspace/AIoT/src/LiteOS_Lab/iot_link/network/dtls/mbedtls/mbedtls-2.16.2/library\md5.c ****     do                                                          \
 144:C:/Users/dtjld/workspace/AIoT/src/LiteOS_Lab/iot_link/network/dtls/mbedtls/mbedtls-2.16.2/library\md5.c ****     {                                                           \
 145:C:/Users/dtjld/workspace/AIoT/src/LiteOS_Lab/iot_link/network/dtls/mbedtls/mbedtls-2.16.2/library\md5.c ****         (a) += F((b),(c),(d)) + X[(k)] + (t);                   \
 146:C:/Users/dtjld/workspace/AIoT/src/LiteOS_Lab/iot_link/network/dtls/mbedtls/mbedtls-2.16.2/library\md5.c ****         (a) = S((a),(s)) + (b);                                 \
 147:C:/Users/dtjld/workspace/AIoT/src/LiteOS_Lab/iot_link/network/dtls/mbedtls/mbedtls-2.16.2/library\md5.c ****     } while( 0 )
 148:C:/Users/dtjld/workspace/AIoT/src/LiteOS_Lab/iot_link/network/dtls/mbedtls/mbedtls-2.16.2/library\md5.c **** 
 149:C:/Users/dtjld/workspace/AIoT/src/LiteOS_Lab/iot_link/network/dtls/mbedtls/mbedtls-2.16.2/library\md5.c ****     A = ctx->state[0];
 641              		.loc 1 149 0
 642 0288 7B68     		ldr	r3, [r7, #4]
 643 028a 9B68     		ldr	r3, [r3, #8]
 644 028c 7B65     		str	r3, [r7, #84]
 150:C:/Users/dtjld/workspace/AIoT/src/LiteOS_Lab/iot_link/network/dtls/mbedtls/mbedtls-2.16.2/library\md5.c ****     B = ctx->state[1];
 645              		.loc 1 150 0
 646 028e 7B68     		ldr	r3, [r7, #4]
 647 0290 DB68     		ldr	r3, [r3, #12]
 648 0292 3B65     		str	r3, [r7, #80]
 151:C:/Users/dtjld/workspace/AIoT/src/LiteOS_Lab/iot_link/network/dtls/mbedtls/mbedtls-2.16.2/library\md5.c ****     C = ctx->state[2];
 649              		.loc 1 151 0
 650 0294 7B68     		ldr	r3, [r7, #4]
 651 0296 1B69     		ldr	r3, [r3, #16]
 652 0298 FB64     		str	r3, [r7, #76]
 152:C:/Users/dtjld/workspace/AIoT/src/LiteOS_Lab/iot_link/network/dtls/mbedtls/mbedtls-2.16.2/library\md5.c ****     D = ctx->state[3];
 653              		.loc 1 152 0
 654 029a 7B68     		ldr	r3, [r7, #4]
 655 029c 5B69     		ldr	r3, [r3, #20]
 656 029e BB64     		str	r3, [r7, #72]
ARM GAS  C:\Users\dtjld\AppData\Local\Temp\cccY4U5j.s 			page 15


 153:C:/Users/dtjld/workspace/AIoT/src/LiteOS_Lab/iot_link/network/dtls/mbedtls/mbedtls-2.16.2/library\md5.c **** 
 154:C:/Users/dtjld/workspace/AIoT/src/LiteOS_Lab/iot_link/network/dtls/mbedtls/mbedtls-2.16.2/library\md5.c **** #define F(x,y,z) ((z) ^ ((x) & ((y) ^ (z))))
 155:C:/Users/dtjld/workspace/AIoT/src/LiteOS_Lab/iot_link/network/dtls/mbedtls/mbedtls-2.16.2/library\md5.c **** 
 156:C:/Users/dtjld/workspace/AIoT/src/LiteOS_Lab/iot_link/network/dtls/mbedtls/mbedtls-2.16.2/library\md5.c ****     P( A, B, C, D,  0,  7, 0xD76AA478 );
 657              		.loc 1 156 0
 658 02a0 FA6C     		ldr	r2, [r7, #76]
 659 02a2 BB6C     		ldr	r3, [r7, #72]
 660 02a4 5A40     		eors	r2, r2, r3
 661 02a6 3B6D     		ldr	r3, [r7, #80]
 662 02a8 1A40     		ands	r2, r2, r3
 663 02aa BB6C     		ldr	r3, [r7, #72]
 664 02ac 5A40     		eors	r2, r2, r3
 665 02ae BB68     		ldr	r3, [r7, #8]
 666 02b0 1A44     		add	r2, r2, r3
 667 02b2 7B6D     		ldr	r3, [r7, #84]
 668 02b4 1A44     		add	r2, r2, r3
 669 02b6 A54B     		ldr	r3, .L14
 670 02b8 1344     		add	r3, r3, r2
 671 02ba 7B65     		str	r3, [r7, #84]
 672 02bc 7B6D     		ldr	r3, [r7, #84]
 673 02be 4FEA7363 		ror	r3, r3, #25
 674 02c2 3A6D     		ldr	r2, [r7, #80]
 675 02c4 1344     		add	r3, r3, r2
 676 02c6 7B65     		str	r3, [r7, #84]
 157:C:/Users/dtjld/workspace/AIoT/src/LiteOS_Lab/iot_link/network/dtls/mbedtls/mbedtls-2.16.2/library\md5.c ****     P( D, A, B, C,  1, 12, 0xE8C7B756 );
 677              		.loc 1 157 0
 678 02c8 3A6D     		ldr	r2, [r7, #80]
 679 02ca FB6C     		ldr	r3, [r7, #76]
 680 02cc 5A40     		eors	r2, r2, r3
 681 02ce 7B6D     		ldr	r3, [r7, #84]
 682 02d0 1A40     		ands	r2, r2, r3
 683 02d2 FB6C     		ldr	r3, [r7, #76]
 684 02d4 5A40     		eors	r2, r2, r3
 685 02d6 FB68     		ldr	r3, [r7, #12]
 686 02d8 1A44     		add	r2, r2, r3
 687 02da BB6C     		ldr	r3, [r7, #72]
 688 02dc 1A44     		add	r2, r2, r3
 689 02de 9C4B     		ldr	r3, .L14+4
 690 02e0 1344     		add	r3, r3, r2
 691 02e2 BB64     		str	r3, [r7, #72]
 692 02e4 BB6C     		ldr	r3, [r7, #72]
 693 02e6 4FEA3353 		ror	r3, r3, #20
 694 02ea 7A6D     		ldr	r2, [r7, #84]
 695 02ec 1344     		add	r3, r3, r2
 696 02ee BB64     		str	r3, [r7, #72]
 158:C:/Users/dtjld/workspace/AIoT/src/LiteOS_Lab/iot_link/network/dtls/mbedtls/mbedtls-2.16.2/library\md5.c ****     P( C, D, A, B,  2, 17, 0x242070DB );
 697              		.loc 1 158 0
 698 02f0 7A6D     		ldr	r2, [r7, #84]
 699 02f2 3B6D     		ldr	r3, [r7, #80]
 700 02f4 5A40     		eors	r2, r2, r3
 701 02f6 BB6C     		ldr	r3, [r7, #72]
 702 02f8 1A40     		ands	r2, r2, r3
 703 02fa 3B6D     		ldr	r3, [r7, #80]
 704 02fc 5A40     		eors	r2, r2, r3
 705 02fe 3B69     		ldr	r3, [r7, #16]
 706 0300 1A44     		add	r2, r2, r3
 707 0302 FB6C     		ldr	r3, [r7, #76]
ARM GAS  C:\Users\dtjld\AppData\Local\Temp\cccY4U5j.s 			page 16


 708 0304 1A44     		add	r2, r2, r3
 709 0306 934B     		ldr	r3, .L14+8
 710 0308 1344     		add	r3, r3, r2
 711 030a FB64     		str	r3, [r7, #76]
 712 030c FB6C     		ldr	r3, [r7, #76]
 713 030e 4FEAF333 		ror	r3, r3, #15
 714 0312 BA6C     		ldr	r2, [r7, #72]
 715 0314 1344     		add	r3, r3, r2
 716 0316 FB64     		str	r3, [r7, #76]
 159:C:/Users/dtjld/workspace/AIoT/src/LiteOS_Lab/iot_link/network/dtls/mbedtls/mbedtls-2.16.2/library\md5.c ****     P( B, C, D, A,  3, 22, 0xC1BDCEEE );
 717              		.loc 1 159 0
 718 0318 BA6C     		ldr	r2, [r7, #72]
 719 031a 7B6D     		ldr	r3, [r7, #84]
 720 031c 5A40     		eors	r2, r2, r3
 721 031e FB6C     		ldr	r3, [r7, #76]
 722 0320 1A40     		ands	r2, r2, r3
 723 0322 7B6D     		ldr	r3, [r7, #84]
 724 0324 5A40     		eors	r2, r2, r3
 725 0326 7B69     		ldr	r3, [r7, #20]
 726 0328 1A44     		add	r2, r2, r3
 727 032a 3B6D     		ldr	r3, [r7, #80]
 728 032c 1A44     		add	r2, r2, r3
 729 032e 8A4B     		ldr	r3, .L14+12
 730 0330 1344     		add	r3, r3, r2
 731 0332 3B65     		str	r3, [r7, #80]
 732 0334 3B6D     		ldr	r3, [r7, #80]
 733 0336 4FEAB323 		ror	r3, r3, #10
 734 033a FA6C     		ldr	r2, [r7, #76]
 735 033c 1344     		add	r3, r3, r2
 736 033e 3B65     		str	r3, [r7, #80]
 160:C:/Users/dtjld/workspace/AIoT/src/LiteOS_Lab/iot_link/network/dtls/mbedtls/mbedtls-2.16.2/library\md5.c ****     P( A, B, C, D,  4,  7, 0xF57C0FAF );
 737              		.loc 1 160 0
 738 0340 FA6C     		ldr	r2, [r7, #76]
 739 0342 BB6C     		ldr	r3, [r7, #72]
 740 0344 5A40     		eors	r2, r2, r3
 741 0346 3B6D     		ldr	r3, [r7, #80]
 742 0348 1A40     		ands	r2, r2, r3
 743 034a BB6C     		ldr	r3, [r7, #72]
 744 034c 5A40     		eors	r2, r2, r3
 745 034e BB69     		ldr	r3, [r7, #24]
 746 0350 1A44     		add	r2, r2, r3
 747 0352 7B6D     		ldr	r3, [r7, #84]
 748 0354 1A44     		add	r2, r2, r3
 749 0356 814B     		ldr	r3, .L14+16
 750 0358 1344     		add	r3, r3, r2
 751 035a 7B65     		str	r3, [r7, #84]
 752 035c 7B6D     		ldr	r3, [r7, #84]
 753 035e 4FEA7363 		ror	r3, r3, #25
 754 0362 3A6D     		ldr	r2, [r7, #80]
 755 0364 1344     		add	r3, r3, r2
 756 0366 7B65     		str	r3, [r7, #84]
 161:C:/Users/dtjld/workspace/AIoT/src/LiteOS_Lab/iot_link/network/dtls/mbedtls/mbedtls-2.16.2/library\md5.c ****     P( D, A, B, C,  5, 12, 0x4787C62A );
 757              		.loc 1 161 0
 758 0368 3A6D     		ldr	r2, [r7, #80]
 759 036a FB6C     		ldr	r3, [r7, #76]
 760 036c 5A40     		eors	r2, r2, r3
 761 036e 7B6D     		ldr	r3, [r7, #84]
ARM GAS  C:\Users\dtjld\AppData\Local\Temp\cccY4U5j.s 			page 17


 762 0370 1A40     		ands	r2, r2, r3
 763 0372 FB6C     		ldr	r3, [r7, #76]
 764 0374 5A40     		eors	r2, r2, r3
 765 0376 FB69     		ldr	r3, [r7, #28]
 766 0378 1A44     		add	r2, r2, r3
 767 037a BB6C     		ldr	r3, [r7, #72]
 768 037c 1A44     		add	r2, r2, r3
 769 037e 784B     		ldr	r3, .L14+20
 770 0380 1344     		add	r3, r3, r2
 771 0382 BB64     		str	r3, [r7, #72]
 772 0384 BB6C     		ldr	r3, [r7, #72]
 773 0386 4FEA3353 		ror	r3, r3, #20
 774 038a 7A6D     		ldr	r2, [r7, #84]
 775 038c 1344     		add	r3, r3, r2
 776 038e BB64     		str	r3, [r7, #72]
 162:C:/Users/dtjld/workspace/AIoT/src/LiteOS_Lab/iot_link/network/dtls/mbedtls/mbedtls-2.16.2/library\md5.c ****     P( C, D, A, B,  6, 17, 0xA8304613 );
 777              		.loc 1 162 0
 778 0390 7A6D     		ldr	r2, [r7, #84]
 779 0392 3B6D     		ldr	r3, [r7, #80]
 780 0394 5A40     		eors	r2, r2, r3
 781 0396 BB6C     		ldr	r3, [r7, #72]
 782 0398 1A40     		ands	r2, r2, r3
 783 039a 3B6D     		ldr	r3, [r7, #80]
 784 039c 5A40     		eors	r2, r2, r3
 785 039e 3B6A     		ldr	r3, [r7, #32]
 786 03a0 1A44     		add	r2, r2, r3
 787 03a2 FB6C     		ldr	r3, [r7, #76]
 788 03a4 1A44     		add	r2, r2, r3
 789 03a6 6F4B     		ldr	r3, .L14+24
 790 03a8 1344     		add	r3, r3, r2
 791 03aa FB64     		str	r3, [r7, #76]
 792 03ac FB6C     		ldr	r3, [r7, #76]
 793 03ae 4FEAF333 		ror	r3, r3, #15
 794 03b2 BA6C     		ldr	r2, [r7, #72]
 795 03b4 1344     		add	r3, r3, r2
 796 03b6 FB64     		str	r3, [r7, #76]
 163:C:/Users/dtjld/workspace/AIoT/src/LiteOS_Lab/iot_link/network/dtls/mbedtls/mbedtls-2.16.2/library\md5.c ****     P( B, C, D, A,  7, 22, 0xFD469501 );
 797              		.loc 1 163 0
 798 03b8 BA6C     		ldr	r2, [r7, #72]
 799 03ba 7B6D     		ldr	r3, [r7, #84]
 800 03bc 5A40     		eors	r2, r2, r3
 801 03be FB6C     		ldr	r3, [r7, #76]
 802 03c0 1A40     		ands	r2, r2, r3
 803 03c2 7B6D     		ldr	r3, [r7, #84]
 804 03c4 5A40     		eors	r2, r2, r3
 805 03c6 7B6A     		ldr	r3, [r7, #36]
 806 03c8 1A44     		add	r2, r2, r3
 807 03ca 3B6D     		ldr	r3, [r7, #80]
 808 03cc 1A44     		add	r2, r2, r3
 809 03ce 664B     		ldr	r3, .L14+28
 810 03d0 1344     		add	r3, r3, r2
 811 03d2 3B65     		str	r3, [r7, #80]
 812 03d4 3B6D     		ldr	r3, [r7, #80]
 813 03d6 4FEAB323 		ror	r3, r3, #10
 814 03da FA6C     		ldr	r2, [r7, #76]
 815 03dc 1344     		add	r3, r3, r2
 816 03de 3B65     		str	r3, [r7, #80]
ARM GAS  C:\Users\dtjld\AppData\Local\Temp\cccY4U5j.s 			page 18


 164:C:/Users/dtjld/workspace/AIoT/src/LiteOS_Lab/iot_link/network/dtls/mbedtls/mbedtls-2.16.2/library\md5.c ****     P( A, B, C, D,  8,  7, 0x698098D8 );
 817              		.loc 1 164 0
 818 03e0 FA6C     		ldr	r2, [r7, #76]
 819 03e2 BB6C     		ldr	r3, [r7, #72]
 820 03e4 5A40     		eors	r2, r2, r3
 821 03e6 3B6D     		ldr	r3, [r7, #80]
 822 03e8 1A40     		ands	r2, r2, r3
 823 03ea BB6C     		ldr	r3, [r7, #72]
 824 03ec 5A40     		eors	r2, r2, r3
 825 03ee BB6A     		ldr	r3, [r7, #40]
 826 03f0 1A44     		add	r2, r2, r3
 827 03f2 7B6D     		ldr	r3, [r7, #84]
 828 03f4 1A44     		add	r2, r2, r3
 829 03f6 5D4B     		ldr	r3, .L14+32
 830 03f8 1344     		add	r3, r3, r2
 831 03fa 7B65     		str	r3, [r7, #84]
 832 03fc 7B6D     		ldr	r3, [r7, #84]
 833 03fe 4FEA7363 		ror	r3, r3, #25
 834 0402 3A6D     		ldr	r2, [r7, #80]
 835 0404 1344     		add	r3, r3, r2
 836 0406 7B65     		str	r3, [r7, #84]
 165:C:/Users/dtjld/workspace/AIoT/src/LiteOS_Lab/iot_link/network/dtls/mbedtls/mbedtls-2.16.2/library\md5.c ****     P( D, A, B, C,  9, 12, 0x8B44F7AF );
 837              		.loc 1 165 0
 838 0408 3A6D     		ldr	r2, [r7, #80]
 839 040a FB6C     		ldr	r3, [r7, #76]
 840 040c 5A40     		eors	r2, r2, r3
 841 040e 7B6D     		ldr	r3, [r7, #84]
 842 0410 1A40     		ands	r2, r2, r3
 843 0412 FB6C     		ldr	r3, [r7, #76]
 844 0414 5A40     		eors	r2, r2, r3
 845 0416 FB6A     		ldr	r3, [r7, #44]
 846 0418 1A44     		add	r2, r2, r3
 847 041a BB6C     		ldr	r3, [r7, #72]
 848 041c 1A44     		add	r2, r2, r3
 849 041e 544B     		ldr	r3, .L14+36
 850 0420 1344     		add	r3, r3, r2
 851 0422 BB64     		str	r3, [r7, #72]
 852 0424 BB6C     		ldr	r3, [r7, #72]
 853 0426 4FEA3353 		ror	r3, r3, #20
 854 042a 7A6D     		ldr	r2, [r7, #84]
 855 042c 1344     		add	r3, r3, r2
 856 042e BB64     		str	r3, [r7, #72]
 166:C:/Users/dtjld/workspace/AIoT/src/LiteOS_Lab/iot_link/network/dtls/mbedtls/mbedtls-2.16.2/library\md5.c ****     P( C, D, A, B, 10, 17, 0xFFFF5BB1 );
 857              		.loc 1 166 0
 858 0430 7A6D     		ldr	r2, [r7, #84]
 859 0432 3B6D     		ldr	r3, [r7, #80]
 860 0434 5A40     		eors	r2, r2, r3
 861 0436 BB6C     		ldr	r3, [r7, #72]
 862 0438 1A40     		ands	r2, r2, r3
 863 043a 3B6D     		ldr	r3, [r7, #80]
 864 043c 5A40     		eors	r2, r2, r3
 865 043e 3B6B     		ldr	r3, [r7, #48]
 866 0440 1A44     		add	r2, r2, r3
 867 0442 FB6C     		ldr	r3, [r7, #76]
 868 0444 1344     		add	r3, r3, r2
 869 0446 A3F52443 		sub	r3, r3, #41984
 870 044a 4F3B     		subs	r3, r3, #79
ARM GAS  C:\Users\dtjld\AppData\Local\Temp\cccY4U5j.s 			page 19


 871 044c FB64     		str	r3, [r7, #76]
 872 044e FB6C     		ldr	r3, [r7, #76]
 873 0450 4FEAF333 		ror	r3, r3, #15
 874 0454 BA6C     		ldr	r2, [r7, #72]
 875 0456 1344     		add	r3, r3, r2
 876 0458 FB64     		str	r3, [r7, #76]
 167:C:/Users/dtjld/workspace/AIoT/src/LiteOS_Lab/iot_link/network/dtls/mbedtls/mbedtls-2.16.2/library\md5.c ****     P( B, C, D, A, 11, 22, 0x895CD7BE );
 877              		.loc 1 167 0
 878 045a BA6C     		ldr	r2, [r7, #72]
 879 045c 7B6D     		ldr	r3, [r7, #84]
 880 045e 5A40     		eors	r2, r2, r3
 881 0460 FB6C     		ldr	r3, [r7, #76]
 882 0462 1A40     		ands	r2, r2, r3
 883 0464 7B6D     		ldr	r3, [r7, #84]
 884 0466 5A40     		eors	r2, r2, r3
 885 0468 7B6B     		ldr	r3, [r7, #52]
 886 046a 1A44     		add	r2, r2, r3
 887 046c 3B6D     		ldr	r3, [r7, #80]
 888 046e 1A44     		add	r2, r2, r3
 889 0470 404B     		ldr	r3, .L14+40
 890 0472 1344     		add	r3, r3, r2
 891 0474 3B65     		str	r3, [r7, #80]
 892 0476 3B6D     		ldr	r3, [r7, #80]
 893 0478 4FEAB323 		ror	r3, r3, #10
 894 047c FA6C     		ldr	r2, [r7, #76]
 895 047e 1344     		add	r3, r3, r2
 896 0480 3B65     		str	r3, [r7, #80]
 168:C:/Users/dtjld/workspace/AIoT/src/LiteOS_Lab/iot_link/network/dtls/mbedtls/mbedtls-2.16.2/library\md5.c ****     P( A, B, C, D, 12,  7, 0x6B901122 );
 897              		.loc 1 168 0
 898 0482 FA6C     		ldr	r2, [r7, #76]
 899 0484 BB6C     		ldr	r3, [r7, #72]
 900 0486 5A40     		eors	r2, r2, r3
 901 0488 3B6D     		ldr	r3, [r7, #80]
 902 048a 1A40     		ands	r2, r2, r3
 903 048c BB6C     		ldr	r3, [r7, #72]
 904 048e 5A40     		eors	r2, r2, r3
 905 0490 BB6B     		ldr	r3, [r7, #56]
 906 0492 1A44     		add	r2, r2, r3
 907 0494 7B6D     		ldr	r3, [r7, #84]
 908 0496 1A44     		add	r2, r2, r3
 909 0498 374B     		ldr	r3, .L14+44
 910 049a 1344     		add	r3, r3, r2
 911 049c 7B65     		str	r3, [r7, #84]
 912 049e 7B6D     		ldr	r3, [r7, #84]
 913 04a0 4FEA7363 		ror	r3, r3, #25
 914 04a4 3A6D     		ldr	r2, [r7, #80]
 915 04a6 1344     		add	r3, r3, r2
 916 04a8 7B65     		str	r3, [r7, #84]
 169:C:/Users/dtjld/workspace/AIoT/src/LiteOS_Lab/iot_link/network/dtls/mbedtls/mbedtls-2.16.2/library\md5.c ****     P( D, A, B, C, 13, 12, 0xFD987193 );
 917              		.loc 1 169 0
 918 04aa 3A6D     		ldr	r2, [r7, #80]
 919 04ac FB6C     		ldr	r3, [r7, #76]
 920 04ae 5A40     		eors	r2, r2, r3
 921 04b0 7B6D     		ldr	r3, [r7, #84]
 922 04b2 1A40     		ands	r2, r2, r3
 923 04b4 FB6C     		ldr	r3, [r7, #76]
 924 04b6 5A40     		eors	r2, r2, r3
ARM GAS  C:\Users\dtjld\AppData\Local\Temp\cccY4U5j.s 			page 20


 925 04b8 FB6B     		ldr	r3, [r7, #60]
 926 04ba 1A44     		add	r2, r2, r3
 927 04bc BB6C     		ldr	r3, [r7, #72]
 928 04be 1A44     		add	r2, r2, r3
 929 04c0 2E4B     		ldr	r3, .L14+48
 930 04c2 1344     		add	r3, r3, r2
 931 04c4 BB64     		str	r3, [r7, #72]
 932 04c6 BB6C     		ldr	r3, [r7, #72]
 933 04c8 4FEA3353 		ror	r3, r3, #20
 934 04cc 7A6D     		ldr	r2, [r7, #84]
 935 04ce 1344     		add	r3, r3, r2
 936 04d0 BB64     		str	r3, [r7, #72]
 170:C:/Users/dtjld/workspace/AIoT/src/LiteOS_Lab/iot_link/network/dtls/mbedtls/mbedtls-2.16.2/library\md5.c ****     P( C, D, A, B, 14, 17, 0xA679438E );
 937              		.loc 1 170 0
 938 04d2 7A6D     		ldr	r2, [r7, #84]
 939 04d4 3B6D     		ldr	r3, [r7, #80]
 940 04d6 5A40     		eors	r2, r2, r3
 941 04d8 BB6C     		ldr	r3, [r7, #72]
 942 04da 1A40     		ands	r2, r2, r3
 943 04dc 3B6D     		ldr	r3, [r7, #80]
 944 04de 5A40     		eors	r2, r2, r3
 945 04e0 3B6C     		ldr	r3, [r7, #64]
 946 04e2 1A44     		add	r2, r2, r3
 947 04e4 FB6C     		ldr	r3, [r7, #76]
 948 04e6 1A44     		add	r2, r2, r3
 949 04e8 254B     		ldr	r3, .L14+52
 950 04ea 1344     		add	r3, r3, r2
 951 04ec FB64     		str	r3, [r7, #76]
 952 04ee FB6C     		ldr	r3, [r7, #76]
 953 04f0 4FEAF333 		ror	r3, r3, #15
 954 04f4 BA6C     		ldr	r2, [r7, #72]
 955 04f6 1344     		add	r3, r3, r2
 956 04f8 FB64     		str	r3, [r7, #76]
 171:C:/Users/dtjld/workspace/AIoT/src/LiteOS_Lab/iot_link/network/dtls/mbedtls/mbedtls-2.16.2/library\md5.c ****     P( B, C, D, A, 15, 22, 0x49B40821 );
 957              		.loc 1 171 0
 958 04fa BA6C     		ldr	r2, [r7, #72]
 959 04fc 7B6D     		ldr	r3, [r7, #84]
 960 04fe 5A40     		eors	r2, r2, r3
 961 0500 FB6C     		ldr	r3, [r7, #76]
 962 0502 1A40     		ands	r2, r2, r3
 963 0504 7B6D     		ldr	r3, [r7, #84]
 964 0506 5A40     		eors	r2, r2, r3
 965 0508 7B6C     		ldr	r3, [r7, #68]
 966 050a 1A44     		add	r2, r2, r3
 967 050c 3B6D     		ldr	r3, [r7, #80]
 968 050e 1A44     		add	r2, r2, r3
 969 0510 1C4B     		ldr	r3, .L14+56
 970 0512 1344     		add	r3, r3, r2
 971 0514 3B65     		str	r3, [r7, #80]
 972 0516 3B6D     		ldr	r3, [r7, #80]
 973 0518 4FEAB323 		ror	r3, r3, #10
 974 051c FA6C     		ldr	r2, [r7, #76]
 975 051e 1344     		add	r3, r3, r2
 976 0520 3B65     		str	r3, [r7, #80]
 172:C:/Users/dtjld/workspace/AIoT/src/LiteOS_Lab/iot_link/network/dtls/mbedtls/mbedtls-2.16.2/library\md5.c **** 
 173:C:/Users/dtjld/workspace/AIoT/src/LiteOS_Lab/iot_link/network/dtls/mbedtls/mbedtls-2.16.2/library\md5.c **** #undef F
 174:C:/Users/dtjld/workspace/AIoT/src/LiteOS_Lab/iot_link/network/dtls/mbedtls/mbedtls-2.16.2/library\md5.c **** 
ARM GAS  C:\Users\dtjld\AppData\Local\Temp\cccY4U5j.s 			page 21


 175:C:/Users/dtjld/workspace/AIoT/src/LiteOS_Lab/iot_link/network/dtls/mbedtls/mbedtls-2.16.2/library\md5.c **** #define F(x,y,z) ((y) ^ ((z) & ((x) ^ (y))))
 176:C:/Users/dtjld/workspace/AIoT/src/LiteOS_Lab/iot_link/network/dtls/mbedtls/mbedtls-2.16.2/library\md5.c **** 
 177:C:/Users/dtjld/workspace/AIoT/src/LiteOS_Lab/iot_link/network/dtls/mbedtls/mbedtls-2.16.2/library\md5.c ****     P( A, B, C, D,  1,  5, 0xF61E2562 );
 977              		.loc 1 177 0
 978 0522 3A6D     		ldr	r2, [r7, #80]
 979 0524 FB6C     		ldr	r3, [r7, #76]
 980 0526 5A40     		eors	r2, r2, r3
 981 0528 BB6C     		ldr	r3, [r7, #72]
 982 052a 1A40     		ands	r2, r2, r3
 983 052c FB6C     		ldr	r3, [r7, #76]
 984 052e 5A40     		eors	r2, r2, r3
 985 0530 FB68     		ldr	r3, [r7, #12]
 986 0532 1A44     		add	r2, r2, r3
 987 0534 7B6D     		ldr	r3, [r7, #84]
 988 0536 1A44     		add	r2, r2, r3
 989 0538 134B     		ldr	r3, .L14+60
 990 053a 1344     		add	r3, r3, r2
 991 053c 7B65     		str	r3, [r7, #84]
 992 053e 7B6D     		ldr	r3, [r7, #84]
 993 0540 4FEAF363 		ror	r3, r3, #27
 994 0544 3A6D     		ldr	r2, [r7, #80]
 995 0546 1344     		add	r3, r3, r2
 996 0548 20E0     		b	.L15
 997              	.L16:
 998 054a 00BF     		.align	2
 999              	.L14:
 1000 054c 78A46AD7 		.word	-680876936
 1001 0550 56B7C7E8 		.word	-389564586
 1002 0554 DB702024 		.word	606105819
 1003 0558 EECEBDC1 		.word	-1044525330
 1004 055c AF0F7CF5 		.word	-176418897
 1005 0560 2AC68747 		.word	1200080426
 1006 0564 134630A8 		.word	-1473231341
 1007 0568 019546FD 		.word	-45705983
 1008 056c D8988069 		.word	1770035416
 1009 0570 AFF7448B 		.word	-1958414417
 1010 0574 BED75C89 		.word	-1990404162
 1011 0578 2211906B 		.word	1804603682
 1012 057c 937198FD 		.word	-40341101
 1013 0580 8E4379A6 		.word	-1502002290
 1014 0584 2108B449 		.word	1236535329
 1015 0588 62251EF6 		.word	-165796510
 1016              	.L15:
 1017 058c 7B65     		str	r3, [r7, #84]
 178:C:/Users/dtjld/workspace/AIoT/src/LiteOS_Lab/iot_link/network/dtls/mbedtls/mbedtls-2.16.2/library\md5.c ****     P( D, A, B, C,  6,  9, 0xC040B340 );
 1018              		.loc 1 178 0
 1019 058e 7A6D     		ldr	r2, [r7, #84]
 1020 0590 3B6D     		ldr	r3, [r7, #80]
 1021 0592 5A40     		eors	r2, r2, r3
 1022 0594 FB6C     		ldr	r3, [r7, #76]
 1023 0596 1A40     		ands	r2, r2, r3
 1024 0598 3B6D     		ldr	r3, [r7, #80]
 1025 059a 5A40     		eors	r2, r2, r3
 1026 059c 3B6A     		ldr	r3, [r7, #32]
 1027 059e 1A44     		add	r2, r2, r3
 1028 05a0 BB6C     		ldr	r3, [r7, #72]
 1029 05a2 1A44     		add	r2, r2, r3
ARM GAS  C:\Users\dtjld\AppData\Local\Temp\cccY4U5j.s 			page 22


 1030 05a4 A44B     		ldr	r3, .L17
 1031 05a6 1344     		add	r3, r3, r2
 1032 05a8 BB64     		str	r3, [r7, #72]
 1033 05aa BB6C     		ldr	r3, [r7, #72]
 1034 05ac 4FEAF353 		ror	r3, r3, #23
 1035 05b0 7A6D     		ldr	r2, [r7, #84]
 1036 05b2 1344     		add	r3, r3, r2
 1037 05b4 BB64     		str	r3, [r7, #72]
 179:C:/Users/dtjld/workspace/AIoT/src/LiteOS_Lab/iot_link/network/dtls/mbedtls/mbedtls-2.16.2/library\md5.c ****     P( C, D, A, B, 11, 14, 0x265E5A51 );
 1038              		.loc 1 179 0
 1039 05b6 BA6C     		ldr	r2, [r7, #72]
 1040 05b8 7B6D     		ldr	r3, [r7, #84]
 1041 05ba 5A40     		eors	r2, r2, r3
 1042 05bc 3B6D     		ldr	r3, [r7, #80]
 1043 05be 1A40     		ands	r2, r2, r3
 1044 05c0 7B6D     		ldr	r3, [r7, #84]
 1045 05c2 5A40     		eors	r2, r2, r3
 1046 05c4 7B6B     		ldr	r3, [r7, #52]
 1047 05c6 1A44     		add	r2, r2, r3
 1048 05c8 FB6C     		ldr	r3, [r7, #76]
 1049 05ca 1A44     		add	r2, r2, r3
 1050 05cc 9B4B     		ldr	r3, .L17+4
 1051 05ce 1344     		add	r3, r3, r2
 1052 05d0 FB64     		str	r3, [r7, #76]
 1053 05d2 FB6C     		ldr	r3, [r7, #76]
 1054 05d4 4FEAB343 		ror	r3, r3, #18
 1055 05d8 BA6C     		ldr	r2, [r7, #72]
 1056 05da 1344     		add	r3, r3, r2
 1057 05dc FB64     		str	r3, [r7, #76]
 180:C:/Users/dtjld/workspace/AIoT/src/LiteOS_Lab/iot_link/network/dtls/mbedtls/mbedtls-2.16.2/library\md5.c ****     P( B, C, D, A,  0, 20, 0xE9B6C7AA );
 1058              		.loc 1 180 0
 1059 05de FA6C     		ldr	r2, [r7, #76]
 1060 05e0 BB6C     		ldr	r3, [r7, #72]
 1061 05e2 5A40     		eors	r2, r2, r3
 1062 05e4 7B6D     		ldr	r3, [r7, #84]
 1063 05e6 1A40     		ands	r2, r2, r3
 1064 05e8 BB6C     		ldr	r3, [r7, #72]
 1065 05ea 5A40     		eors	r2, r2, r3
 1066 05ec BB68     		ldr	r3, [r7, #8]
 1067 05ee 1A44     		add	r2, r2, r3
 1068 05f0 3B6D     		ldr	r3, [r7, #80]
 1069 05f2 1A44     		add	r2, r2, r3
 1070 05f4 924B     		ldr	r3, .L17+8
 1071 05f6 1344     		add	r3, r3, r2
 1072 05f8 3B65     		str	r3, [r7, #80]
 1073 05fa 3B6D     		ldr	r3, [r7, #80]
 1074 05fc 4FEA3333 		ror	r3, r3, #12
 1075 0600 FA6C     		ldr	r2, [r7, #76]
 1076 0602 1344     		add	r3, r3, r2
 1077 0604 3B65     		str	r3, [r7, #80]
 181:C:/Users/dtjld/workspace/AIoT/src/LiteOS_Lab/iot_link/network/dtls/mbedtls/mbedtls-2.16.2/library\md5.c ****     P( A, B, C, D,  5,  5, 0xD62F105D );
 1078              		.loc 1 181 0
 1079 0606 3A6D     		ldr	r2, [r7, #80]
 1080 0608 FB6C     		ldr	r3, [r7, #76]
 1081 060a 5A40     		eors	r2, r2, r3
 1082 060c BB6C     		ldr	r3, [r7, #72]
 1083 060e 1A40     		ands	r2, r2, r3
ARM GAS  C:\Users\dtjld\AppData\Local\Temp\cccY4U5j.s 			page 23


 1084 0610 FB6C     		ldr	r3, [r7, #76]
 1085 0612 5A40     		eors	r2, r2, r3
 1086 0614 FB69     		ldr	r3, [r7, #28]
 1087 0616 1A44     		add	r2, r2, r3
 1088 0618 7B6D     		ldr	r3, [r7, #84]
 1089 061a 1A44     		add	r2, r2, r3
 1090 061c 894B     		ldr	r3, .L17+12
 1091 061e 1344     		add	r3, r3, r2
 1092 0620 7B65     		str	r3, [r7, #84]
 1093 0622 7B6D     		ldr	r3, [r7, #84]
 1094 0624 4FEAF363 		ror	r3, r3, #27
 1095 0628 3A6D     		ldr	r2, [r7, #80]
 1096 062a 1344     		add	r3, r3, r2
 1097 062c 7B65     		str	r3, [r7, #84]
 182:C:/Users/dtjld/workspace/AIoT/src/LiteOS_Lab/iot_link/network/dtls/mbedtls/mbedtls-2.16.2/library\md5.c ****     P( D, A, B, C, 10,  9, 0x02441453 );
 1098              		.loc 1 182 0
 1099 062e 7A6D     		ldr	r2, [r7, #84]
 1100 0630 3B6D     		ldr	r3, [r7, #80]
 1101 0632 5A40     		eors	r2, r2, r3
 1102 0634 FB6C     		ldr	r3, [r7, #76]
 1103 0636 1A40     		ands	r2, r2, r3
 1104 0638 3B6D     		ldr	r3, [r7, #80]
 1105 063a 5A40     		eors	r2, r2, r3
 1106 063c 3B6B     		ldr	r3, [r7, #48]
 1107 063e 1A44     		add	r2, r2, r3
 1108 0640 BB6C     		ldr	r3, [r7, #72]
 1109 0642 1A44     		add	r2, r2, r3
 1110 0644 804B     		ldr	r3, .L17+16
 1111 0646 1344     		add	r3, r3, r2
 1112 0648 BB64     		str	r3, [r7, #72]
 1113 064a BB6C     		ldr	r3, [r7, #72]
 1114 064c 4FEAF353 		ror	r3, r3, #23
 1115 0650 7A6D     		ldr	r2, [r7, #84]
 1116 0652 1344     		add	r3, r3, r2
 1117 0654 BB64     		str	r3, [r7, #72]
 183:C:/Users/dtjld/workspace/AIoT/src/LiteOS_Lab/iot_link/network/dtls/mbedtls/mbedtls-2.16.2/library\md5.c ****     P( C, D, A, B, 15, 14, 0xD8A1E681 );
 1118              		.loc 1 183 0
 1119 0656 BA6C     		ldr	r2, [r7, #72]
 1120 0658 7B6D     		ldr	r3, [r7, #84]
 1121 065a 5A40     		eors	r2, r2, r3
 1122 065c 3B6D     		ldr	r3, [r7, #80]
 1123 065e 1A40     		ands	r2, r2, r3
 1124 0660 7B6D     		ldr	r3, [r7, #84]
 1125 0662 5A40     		eors	r2, r2, r3
 1126 0664 7B6C     		ldr	r3, [r7, #68]
 1127 0666 1A44     		add	r2, r2, r3
 1128 0668 FB6C     		ldr	r3, [r7, #76]
 1129 066a 1A44     		add	r2, r2, r3
 1130 066c 774B     		ldr	r3, .L17+20
 1131 066e 1344     		add	r3, r3, r2
 1132 0670 FB64     		str	r3, [r7, #76]
 1133 0672 FB6C     		ldr	r3, [r7, #76]
 1134 0674 4FEAB343 		ror	r3, r3, #18
 1135 0678 BA6C     		ldr	r2, [r7, #72]
 1136 067a 1344     		add	r3, r3, r2
 1137 067c FB64     		str	r3, [r7, #76]
 184:C:/Users/dtjld/workspace/AIoT/src/LiteOS_Lab/iot_link/network/dtls/mbedtls/mbedtls-2.16.2/library\md5.c ****     P( B, C, D, A,  4, 20, 0xE7D3FBC8 );
ARM GAS  C:\Users\dtjld\AppData\Local\Temp\cccY4U5j.s 			page 24


 1138              		.loc 1 184 0
 1139 067e FA6C     		ldr	r2, [r7, #76]
 1140 0680 BB6C     		ldr	r3, [r7, #72]
 1141 0682 5A40     		eors	r2, r2, r3
 1142 0684 7B6D     		ldr	r3, [r7, #84]
 1143 0686 1A40     		ands	r2, r2, r3
 1144 0688 BB6C     		ldr	r3, [r7, #72]
 1145 068a 5A40     		eors	r2, r2, r3
 1146 068c BB69     		ldr	r3, [r7, #24]
 1147 068e 1A44     		add	r2, r2, r3
 1148 0690 3B6D     		ldr	r3, [r7, #80]
 1149 0692 1A44     		add	r2, r2, r3
 1150 0694 6E4B     		ldr	r3, .L17+24
 1151 0696 1344     		add	r3, r3, r2
 1152 0698 3B65     		str	r3, [r7, #80]
 1153 069a 3B6D     		ldr	r3, [r7, #80]
 1154 069c 4FEA3333 		ror	r3, r3, #12
 1155 06a0 FA6C     		ldr	r2, [r7, #76]
 1156 06a2 1344     		add	r3, r3, r2
 1157 06a4 3B65     		str	r3, [r7, #80]
 185:C:/Users/dtjld/workspace/AIoT/src/LiteOS_Lab/iot_link/network/dtls/mbedtls/mbedtls-2.16.2/library\md5.c ****     P( A, B, C, D,  9,  5, 0x21E1CDE6 );
 1158              		.loc 1 185 0
 1159 06a6 3A6D     		ldr	r2, [r7, #80]
 1160 06a8 FB6C     		ldr	r3, [r7, #76]
 1161 06aa 5A40     		eors	r2, r2, r3
 1162 06ac BB6C     		ldr	r3, [r7, #72]
 1163 06ae 1A40     		ands	r2, r2, r3
 1164 06b0 FB6C     		ldr	r3, [r7, #76]
 1165 06b2 5A40     		eors	r2, r2, r3
 1166 06b4 FB6A     		ldr	r3, [r7, #44]
 1167 06b6 1A44     		add	r2, r2, r3
 1168 06b8 7B6D     		ldr	r3, [r7, #84]
 1169 06ba 1A44     		add	r2, r2, r3
 1170 06bc 654B     		ldr	r3, .L17+28
 1171 06be 1344     		add	r3, r3, r2
 1172 06c0 7B65     		str	r3, [r7, #84]
 1173 06c2 7B6D     		ldr	r3, [r7, #84]
 1174 06c4 4FEAF363 		ror	r3, r3, #27
 1175 06c8 3A6D     		ldr	r2, [r7, #80]
 1176 06ca 1344     		add	r3, r3, r2
 1177 06cc 7B65     		str	r3, [r7, #84]
 186:C:/Users/dtjld/workspace/AIoT/src/LiteOS_Lab/iot_link/network/dtls/mbedtls/mbedtls-2.16.2/library\md5.c ****     P( D, A, B, C, 14,  9, 0xC33707D6 );
 1178              		.loc 1 186 0
 1179 06ce 7A6D     		ldr	r2, [r7, #84]
 1180 06d0 3B6D     		ldr	r3, [r7, #80]
 1181 06d2 5A40     		eors	r2, r2, r3
 1182 06d4 FB6C     		ldr	r3, [r7, #76]
 1183 06d6 1A40     		ands	r2, r2, r3
 1184 06d8 3B6D     		ldr	r3, [r7, #80]
 1185 06da 5A40     		eors	r2, r2, r3
 1186 06dc 3B6C     		ldr	r3, [r7, #64]
 1187 06de 1A44     		add	r2, r2, r3
 1188 06e0 BB6C     		ldr	r3, [r7, #72]
 1189 06e2 1A44     		add	r2, r2, r3
 1190 06e4 5C4B     		ldr	r3, .L17+32
 1191 06e6 1344     		add	r3, r3, r2
 1192 06e8 BB64     		str	r3, [r7, #72]
ARM GAS  C:\Users\dtjld\AppData\Local\Temp\cccY4U5j.s 			page 25


 1193 06ea BB6C     		ldr	r3, [r7, #72]
 1194 06ec 4FEAF353 		ror	r3, r3, #23
 1195 06f0 7A6D     		ldr	r2, [r7, #84]
 1196 06f2 1344     		add	r3, r3, r2
 1197 06f4 BB64     		str	r3, [r7, #72]
 187:C:/Users/dtjld/workspace/AIoT/src/LiteOS_Lab/iot_link/network/dtls/mbedtls/mbedtls-2.16.2/library\md5.c ****     P( C, D, A, B,  3, 14, 0xF4D50D87 );
 1198              		.loc 1 187 0
 1199 06f6 BA6C     		ldr	r2, [r7, #72]
 1200 06f8 7B6D     		ldr	r3, [r7, #84]
 1201 06fa 5A40     		eors	r2, r2, r3
 1202 06fc 3B6D     		ldr	r3, [r7, #80]
 1203 06fe 1A40     		ands	r2, r2, r3
 1204 0700 7B6D     		ldr	r3, [r7, #84]
 1205 0702 5A40     		eors	r2, r2, r3
 1206 0704 7B69     		ldr	r3, [r7, #20]
 1207 0706 1A44     		add	r2, r2, r3
 1208 0708 FB6C     		ldr	r3, [r7, #76]
 1209 070a 1A44     		add	r2, r2, r3
 1210 070c 534B     		ldr	r3, .L17+36
 1211 070e 1344     		add	r3, r3, r2
 1212 0710 FB64     		str	r3, [r7, #76]
 1213 0712 FB6C     		ldr	r3, [r7, #76]
 1214 0714 4FEAB343 		ror	r3, r3, #18
 1215 0718 BA6C     		ldr	r2, [r7, #72]
 1216 071a 1344     		add	r3, r3, r2
 1217 071c FB64     		str	r3, [r7, #76]
 188:C:/Users/dtjld/workspace/AIoT/src/LiteOS_Lab/iot_link/network/dtls/mbedtls/mbedtls-2.16.2/library\md5.c ****     P( B, C, D, A,  8, 20, 0x455A14ED );
 1218              		.loc 1 188 0
 1219 071e FA6C     		ldr	r2, [r7, #76]
 1220 0720 BB6C     		ldr	r3, [r7, #72]
 1221 0722 5A40     		eors	r2, r2, r3
 1222 0724 7B6D     		ldr	r3, [r7, #84]
 1223 0726 1A40     		ands	r2, r2, r3
 1224 0728 BB6C     		ldr	r3, [r7, #72]
 1225 072a 5A40     		eors	r2, r2, r3
 1226 072c BB6A     		ldr	r3, [r7, #40]
 1227 072e 1A44     		add	r2, r2, r3
 1228 0730 3B6D     		ldr	r3, [r7, #80]
 1229 0732 1A44     		add	r2, r2, r3
 1230 0734 4A4B     		ldr	r3, .L17+40
 1231 0736 1344     		add	r3, r3, r2
 1232 0738 3B65     		str	r3, [r7, #80]
 1233 073a 3B6D     		ldr	r3, [r7, #80]
 1234 073c 4FEA3333 		ror	r3, r3, #12
 1235 0740 FA6C     		ldr	r2, [r7, #76]
 1236 0742 1344     		add	r3, r3, r2
 1237 0744 3B65     		str	r3, [r7, #80]
 189:C:/Users/dtjld/workspace/AIoT/src/LiteOS_Lab/iot_link/network/dtls/mbedtls/mbedtls-2.16.2/library\md5.c ****     P( A, B, C, D, 13,  5, 0xA9E3E905 );
 1238              		.loc 1 189 0
 1239 0746 3A6D     		ldr	r2, [r7, #80]
 1240 0748 FB6C     		ldr	r3, [r7, #76]
 1241 074a 5A40     		eors	r2, r2, r3
 1242 074c BB6C     		ldr	r3, [r7, #72]
 1243 074e 1A40     		ands	r2, r2, r3
 1244 0750 FB6C     		ldr	r3, [r7, #76]
 1245 0752 5A40     		eors	r2, r2, r3
 1246 0754 FB6B     		ldr	r3, [r7, #60]
ARM GAS  C:\Users\dtjld\AppData\Local\Temp\cccY4U5j.s 			page 26


 1247 0756 1A44     		add	r2, r2, r3
 1248 0758 7B6D     		ldr	r3, [r7, #84]
 1249 075a 1A44     		add	r2, r2, r3
 1250 075c 414B     		ldr	r3, .L17+44
 1251 075e 1344     		add	r3, r3, r2
 1252 0760 7B65     		str	r3, [r7, #84]
 1253 0762 7B6D     		ldr	r3, [r7, #84]
 1254 0764 4FEAF363 		ror	r3, r3, #27
 1255 0768 3A6D     		ldr	r2, [r7, #80]
 1256 076a 1344     		add	r3, r3, r2
 1257 076c 7B65     		str	r3, [r7, #84]
 190:C:/Users/dtjld/workspace/AIoT/src/LiteOS_Lab/iot_link/network/dtls/mbedtls/mbedtls-2.16.2/library\md5.c ****     P( D, A, B, C,  2,  9, 0xFCEFA3F8 );
 1258              		.loc 1 190 0
 1259 076e 7A6D     		ldr	r2, [r7, #84]
 1260 0770 3B6D     		ldr	r3, [r7, #80]
 1261 0772 5A40     		eors	r2, r2, r3
 1262 0774 FB6C     		ldr	r3, [r7, #76]
 1263 0776 1A40     		ands	r2, r2, r3
 1264 0778 3B6D     		ldr	r3, [r7, #80]
 1265 077a 5A40     		eors	r2, r2, r3
 1266 077c 3B69     		ldr	r3, [r7, #16]
 1267 077e 1A44     		add	r2, r2, r3
 1268 0780 BB6C     		ldr	r3, [r7, #72]
 1269 0782 1A44     		add	r2, r2, r3
 1270 0784 384B     		ldr	r3, .L17+48
 1271 0786 1344     		add	r3, r3, r2
 1272 0788 BB64     		str	r3, [r7, #72]
 1273 078a BB6C     		ldr	r3, [r7, #72]
 1274 078c 4FEAF353 		ror	r3, r3, #23
 1275 0790 7A6D     		ldr	r2, [r7, #84]
 1276 0792 1344     		add	r3, r3, r2
 1277 0794 BB64     		str	r3, [r7, #72]
 191:C:/Users/dtjld/workspace/AIoT/src/LiteOS_Lab/iot_link/network/dtls/mbedtls/mbedtls-2.16.2/library\md5.c ****     P( C, D, A, B,  7, 14, 0x676F02D9 );
 1278              		.loc 1 191 0
 1279 0796 BA6C     		ldr	r2, [r7, #72]
 1280 0798 7B6D     		ldr	r3, [r7, #84]
 1281 079a 5A40     		eors	r2, r2, r3
 1282 079c 3B6D     		ldr	r3, [r7, #80]
 1283 079e 1A40     		ands	r2, r2, r3
 1284 07a0 7B6D     		ldr	r3, [r7, #84]
 1285 07a2 5A40     		eors	r2, r2, r3
 1286 07a4 7B6A     		ldr	r3, [r7, #36]
 1287 07a6 1A44     		add	r2, r2, r3
 1288 07a8 FB6C     		ldr	r3, [r7, #76]
 1289 07aa 1A44     		add	r2, r2, r3
 1290 07ac 2F4B     		ldr	r3, .L17+52
 1291 07ae 1344     		add	r3, r3, r2
 1292 07b0 FB64     		str	r3, [r7, #76]
 1293 07b2 FB6C     		ldr	r3, [r7, #76]
 1294 07b4 4FEAB343 		ror	r3, r3, #18
 1295 07b8 BA6C     		ldr	r2, [r7, #72]
 1296 07ba 1344     		add	r3, r3, r2
 1297 07bc FB64     		str	r3, [r7, #76]
 192:C:/Users/dtjld/workspace/AIoT/src/LiteOS_Lab/iot_link/network/dtls/mbedtls/mbedtls-2.16.2/library\md5.c ****     P( B, C, D, A, 12, 20, 0x8D2A4C8A );
 1298              		.loc 1 192 0
 1299 07be FA6C     		ldr	r2, [r7, #76]
 1300 07c0 BB6C     		ldr	r3, [r7, #72]
ARM GAS  C:\Users\dtjld\AppData\Local\Temp\cccY4U5j.s 			page 27


 1301 07c2 5A40     		eors	r2, r2, r3
 1302 07c4 7B6D     		ldr	r3, [r7, #84]
 1303 07c6 1A40     		ands	r2, r2, r3
 1304 07c8 BB6C     		ldr	r3, [r7, #72]
 1305 07ca 5A40     		eors	r2, r2, r3
 1306 07cc BB6B     		ldr	r3, [r7, #56]
 1307 07ce 1A44     		add	r2, r2, r3
 1308 07d0 3B6D     		ldr	r3, [r7, #80]
 1309 07d2 1A44     		add	r2, r2, r3
 1310 07d4 264B     		ldr	r3, .L17+56
 1311 07d6 1344     		add	r3, r3, r2
 1312 07d8 3B65     		str	r3, [r7, #80]
 1313 07da 3B6D     		ldr	r3, [r7, #80]
 1314 07dc 4FEA3333 		ror	r3, r3, #12
 1315 07e0 FA6C     		ldr	r2, [r7, #76]
 1316 07e2 1344     		add	r3, r3, r2
 1317 07e4 3B65     		str	r3, [r7, #80]
 193:C:/Users/dtjld/workspace/AIoT/src/LiteOS_Lab/iot_link/network/dtls/mbedtls/mbedtls-2.16.2/library\md5.c **** 
 194:C:/Users/dtjld/workspace/AIoT/src/LiteOS_Lab/iot_link/network/dtls/mbedtls/mbedtls-2.16.2/library\md5.c **** #undef F
 195:C:/Users/dtjld/workspace/AIoT/src/LiteOS_Lab/iot_link/network/dtls/mbedtls/mbedtls-2.16.2/library\md5.c **** 
 196:C:/Users/dtjld/workspace/AIoT/src/LiteOS_Lab/iot_link/network/dtls/mbedtls/mbedtls-2.16.2/library\md5.c **** #define F(x,y,z) ((x) ^ (y) ^ (z))
 197:C:/Users/dtjld/workspace/AIoT/src/LiteOS_Lab/iot_link/network/dtls/mbedtls/mbedtls-2.16.2/library\md5.c **** 
 198:C:/Users/dtjld/workspace/AIoT/src/LiteOS_Lab/iot_link/network/dtls/mbedtls/mbedtls-2.16.2/library\md5.c ****     P( A, B, C, D,  5,  4, 0xFFFA3942 );
 1318              		.loc 1 198 0
 1319 07e6 3A6D     		ldr	r2, [r7, #80]
 1320 07e8 FB6C     		ldr	r3, [r7, #76]
 1321 07ea 5A40     		eors	r2, r2, r3
 1322 07ec BB6C     		ldr	r3, [r7, #72]
 1323 07ee 5A40     		eors	r2, r2, r3
 1324 07f0 FB69     		ldr	r3, [r7, #28]
 1325 07f2 1A44     		add	r2, r2, r3
 1326 07f4 7B6D     		ldr	r3, [r7, #84]
 1327 07f6 1344     		add	r3, r3, r2
 1328 07f8 A3F5B823 		sub	r3, r3, #376832
 1329 07fc A3F2BE63 		subw	r3, r3, #1726
 1330 0800 7B65     		str	r3, [r7, #84]
 1331 0802 7B6D     		ldr	r3, [r7, #84]
 1332 0804 4FEA3373 		ror	r3, r3, #28
 1333 0808 3A6D     		ldr	r2, [r7, #80]
 1334 080a 1344     		add	r3, r3, r2
 1335 080c 7B65     		str	r3, [r7, #84]
 199:C:/Users/dtjld/workspace/AIoT/src/LiteOS_Lab/iot_link/network/dtls/mbedtls/mbedtls-2.16.2/library\md5.c ****     P( D, A, B, C,  8, 11, 0x8771F681 );
 1336              		.loc 1 199 0
 1337 080e 7A6D     		ldr	r2, [r7, #84]
 1338 0810 3B6D     		ldr	r3, [r7, #80]
 1339 0812 5A40     		eors	r2, r2, r3
 1340 0814 FB6C     		ldr	r3, [r7, #76]
 1341 0816 5A40     		eors	r2, r2, r3
 1342 0818 BB6A     		ldr	r3, [r7, #40]
 1343 081a 1A44     		add	r2, r2, r3
 1344 081c BB6C     		ldr	r3, [r7, #72]
 1345 081e 1A44     		add	r2, r2, r3
 1346 0820 144B     		ldr	r3, .L17+60
 1347 0822 1344     		add	r3, r3, r2
 1348 0824 BB64     		str	r3, [r7, #72]
 1349 0826 BB6C     		ldr	r3, [r7, #72]
 1350 0828 4FEA7353 		ror	r3, r3, #21
ARM GAS  C:\Users\dtjld\AppData\Local\Temp\cccY4U5j.s 			page 28


 1351 082c 7A6D     		ldr	r2, [r7, #84]
 1352 082e 1344     		add	r3, r3, r2
 1353 0830 BB64     		str	r3, [r7, #72]
 200:C:/Users/dtjld/workspace/AIoT/src/LiteOS_Lab/iot_link/network/dtls/mbedtls/mbedtls-2.16.2/library\md5.c ****     P( C, D, A, B, 11, 16, 0x6D9D6122 );
 1354              		.loc 1 200 0
 1355 0832 BA6C     		ldr	r2, [r7, #72]
 1356 0834 20E0     		b	.L18
 1357              	.L19:
 1358 0836 00BF     		.align	2
 1359              	.L17:
 1360 0838 40B340C0 		.word	-1069501632
 1361 083c 515A5E26 		.word	643717713
 1362 0840 AAC7B6E9 		.word	-373897302
 1363 0844 5D102FD6 		.word	-701558691
 1364 0848 53144402 		.word	38016083
 1365 084c 81E6A1D8 		.word	-660478335
 1366 0850 C8FBD3E7 		.word	-405537848
 1367 0854 E6CDE121 		.word	568446438
 1368 0858 D60737C3 		.word	-1019803690
 1369 085c 870DD5F4 		.word	-187363961
 1370 0860 ED145A45 		.word	1163531501
 1371 0864 05E9E3A9 		.word	-1444681467
 1372 0868 F8A3EFFC 		.word	-51403784
 1373 086c D9026F67 		.word	1735328473
 1374 0870 8A4C2A8D 		.word	-1926607734
 1375 0874 81F67187 		.word	-2022574463
 1376              	.L18:
 1377 0878 7B6D     		ldr	r3, [r7, #84]
 1378 087a 5A40     		eors	r2, r2, r3
 1379 087c 3B6D     		ldr	r3, [r7, #80]
 1380 087e 5A40     		eors	r2, r2, r3
 1381 0880 7B6B     		ldr	r3, [r7, #52]
 1382 0882 1A44     		add	r2, r2, r3
 1383 0884 FB6C     		ldr	r3, [r7, #76]
 1384 0886 1A44     		add	r2, r2, r3
 1385 0888 A44B     		ldr	r3, .L20
 1386 088a 1344     		add	r3, r3, r2
 1387 088c FB64     		str	r3, [r7, #76]
 1388 088e FB6C     		ldr	r3, [r7, #76]
 1389 0890 4FEA3343 		ror	r3, r3, #16
 1390 0894 BA6C     		ldr	r2, [r7, #72]
 1391 0896 1344     		add	r3, r3, r2
 1392 0898 FB64     		str	r3, [r7, #76]
 201:C:/Users/dtjld/workspace/AIoT/src/LiteOS_Lab/iot_link/network/dtls/mbedtls/mbedtls-2.16.2/library\md5.c ****     P( B, C, D, A, 14, 23, 0xFDE5380C );
 1393              		.loc 1 201 0
 1394 089a FA6C     		ldr	r2, [r7, #76]
 1395 089c BB6C     		ldr	r3, [r7, #72]
 1396 089e 5A40     		eors	r2, r2, r3
 1397 08a0 7B6D     		ldr	r3, [r7, #84]
 1398 08a2 5A40     		eors	r2, r2, r3
 1399 08a4 3B6C     		ldr	r3, [r7, #64]
 1400 08a6 1A44     		add	r2, r2, r3
 1401 08a8 3B6D     		ldr	r3, [r7, #80]
 1402 08aa 1A44     		add	r2, r2, r3
 1403 08ac 9C4B     		ldr	r3, .L20+4
 1404 08ae 1344     		add	r3, r3, r2
 1405 08b0 3B65     		str	r3, [r7, #80]
ARM GAS  C:\Users\dtjld\AppData\Local\Temp\cccY4U5j.s 			page 29


 1406 08b2 3B6D     		ldr	r3, [r7, #80]
 1407 08b4 4FEA7323 		ror	r3, r3, #9
 1408 08b8 FA6C     		ldr	r2, [r7, #76]
 1409 08ba 1344     		add	r3, r3, r2
 1410 08bc 3B65     		str	r3, [r7, #80]
 202:C:/Users/dtjld/workspace/AIoT/src/LiteOS_Lab/iot_link/network/dtls/mbedtls/mbedtls-2.16.2/library\md5.c ****     P( A, B, C, D,  1,  4, 0xA4BEEA44 );
 1411              		.loc 1 202 0
 1412 08be 3A6D     		ldr	r2, [r7, #80]
 1413 08c0 FB6C     		ldr	r3, [r7, #76]
 1414 08c2 5A40     		eors	r2, r2, r3
 1415 08c4 BB6C     		ldr	r3, [r7, #72]
 1416 08c6 5A40     		eors	r2, r2, r3
 1417 08c8 FB68     		ldr	r3, [r7, #12]
 1418 08ca 1A44     		add	r2, r2, r3
 1419 08cc 7B6D     		ldr	r3, [r7, #84]
 1420 08ce 1A44     		add	r2, r2, r3
 1421 08d0 944B     		ldr	r3, .L20+8
 1422 08d2 1344     		add	r3, r3, r2
 1423 08d4 7B65     		str	r3, [r7, #84]
 1424 08d6 7B6D     		ldr	r3, [r7, #84]
 1425 08d8 4FEA3373 		ror	r3, r3, #28
 1426 08dc 3A6D     		ldr	r2, [r7, #80]
 1427 08de 1344     		add	r3, r3, r2
 1428 08e0 7B65     		str	r3, [r7, #84]
 203:C:/Users/dtjld/workspace/AIoT/src/LiteOS_Lab/iot_link/network/dtls/mbedtls/mbedtls-2.16.2/library\md5.c ****     P( D, A, B, C,  4, 11, 0x4BDECFA9 );
 1429              		.loc 1 203 0
 1430 08e2 7A6D     		ldr	r2, [r7, #84]
 1431 08e4 3B6D     		ldr	r3, [r7, #80]
 1432 08e6 5A40     		eors	r2, r2, r3
 1433 08e8 FB6C     		ldr	r3, [r7, #76]
 1434 08ea 5A40     		eors	r2, r2, r3
 1435 08ec BB69     		ldr	r3, [r7, #24]
 1436 08ee 1A44     		add	r2, r2, r3
 1437 08f0 BB6C     		ldr	r3, [r7, #72]
 1438 08f2 1A44     		add	r2, r2, r3
 1439 08f4 8C4B     		ldr	r3, .L20+12
 1440 08f6 1344     		add	r3, r3, r2
 1441 08f8 BB64     		str	r3, [r7, #72]
 1442 08fa BB6C     		ldr	r3, [r7, #72]
 1443 08fc 4FEA7353 		ror	r3, r3, #21
 1444 0900 7A6D     		ldr	r2, [r7, #84]
 1445 0902 1344     		add	r3, r3, r2
 1446 0904 BB64     		str	r3, [r7, #72]
 204:C:/Users/dtjld/workspace/AIoT/src/LiteOS_Lab/iot_link/network/dtls/mbedtls/mbedtls-2.16.2/library\md5.c ****     P( C, D, A, B,  7, 16, 0xF6BB4B60 );
 1447              		.loc 1 204 0
 1448 0906 BA6C     		ldr	r2, [r7, #72]
 1449 0908 7B6D     		ldr	r3, [r7, #84]
 1450 090a 5A40     		eors	r2, r2, r3
 1451 090c 3B6D     		ldr	r3, [r7, #80]
 1452 090e 5A40     		eors	r2, r2, r3
 1453 0910 7B6A     		ldr	r3, [r7, #36]
 1454 0912 1A44     		add	r2, r2, r3
 1455 0914 FB6C     		ldr	r3, [r7, #76]
 1456 0916 1A44     		add	r2, r2, r3
 1457 0918 844B     		ldr	r3, .L20+16
 1458 091a 1344     		add	r3, r3, r2
 1459 091c FB64     		str	r3, [r7, #76]
ARM GAS  C:\Users\dtjld\AppData\Local\Temp\cccY4U5j.s 			page 30


 1460 091e FB6C     		ldr	r3, [r7, #76]
 1461 0920 4FEA3343 		ror	r3, r3, #16
 1462 0924 BA6C     		ldr	r2, [r7, #72]
 1463 0926 1344     		add	r3, r3, r2
 1464 0928 FB64     		str	r3, [r7, #76]
 205:C:/Users/dtjld/workspace/AIoT/src/LiteOS_Lab/iot_link/network/dtls/mbedtls/mbedtls-2.16.2/library\md5.c ****     P( B, C, D, A, 10, 23, 0xBEBFBC70 );
 1465              		.loc 1 205 0
 1466 092a FA6C     		ldr	r2, [r7, #76]
 1467 092c BB6C     		ldr	r3, [r7, #72]
 1468 092e 5A40     		eors	r2, r2, r3
 1469 0930 7B6D     		ldr	r3, [r7, #84]
 1470 0932 5A40     		eors	r2, r2, r3
 1471 0934 3B6B     		ldr	r3, [r7, #48]
 1472 0936 1A44     		add	r2, r2, r3
 1473 0938 3B6D     		ldr	r3, [r7, #80]
 1474 093a 1A44     		add	r2, r2, r3
 1475 093c 7C4B     		ldr	r3, .L20+20
 1476 093e 1344     		add	r3, r3, r2
 1477 0940 3B65     		str	r3, [r7, #80]
 1478 0942 3B6D     		ldr	r3, [r7, #80]
 1479 0944 4FEA7323 		ror	r3, r3, #9
 1480 0948 FA6C     		ldr	r2, [r7, #76]
 1481 094a 1344     		add	r3, r3, r2
 1482 094c 3B65     		str	r3, [r7, #80]
 206:C:/Users/dtjld/workspace/AIoT/src/LiteOS_Lab/iot_link/network/dtls/mbedtls/mbedtls-2.16.2/library\md5.c ****     P( A, B, C, D, 13,  4, 0x289B7EC6 );
 1483              		.loc 1 206 0
 1484 094e 3A6D     		ldr	r2, [r7, #80]
 1485 0950 FB6C     		ldr	r3, [r7, #76]
 1486 0952 5A40     		eors	r2, r2, r3
 1487 0954 BB6C     		ldr	r3, [r7, #72]
 1488 0956 5A40     		eors	r2, r2, r3
 1489 0958 FB6B     		ldr	r3, [r7, #60]
 1490 095a 1A44     		add	r2, r2, r3
 1491 095c 7B6D     		ldr	r3, [r7, #84]
 1492 095e 1A44     		add	r2, r2, r3
 1493 0960 744B     		ldr	r3, .L20+24
 1494 0962 1344     		add	r3, r3, r2
 1495 0964 7B65     		str	r3, [r7, #84]
 1496 0966 7B6D     		ldr	r3, [r7, #84]
 1497 0968 4FEA3373 		ror	r3, r3, #28
 1498 096c 3A6D     		ldr	r2, [r7, #80]
 1499 096e 1344     		add	r3, r3, r2
 1500 0970 7B65     		str	r3, [r7, #84]
 207:C:/Users/dtjld/workspace/AIoT/src/LiteOS_Lab/iot_link/network/dtls/mbedtls/mbedtls-2.16.2/library\md5.c ****     P( D, A, B, C,  0, 11, 0xEAA127FA );
 1501              		.loc 1 207 0
 1502 0972 7A6D     		ldr	r2, [r7, #84]
 1503 0974 3B6D     		ldr	r3, [r7, #80]
 1504 0976 5A40     		eors	r2, r2, r3
 1505 0978 FB6C     		ldr	r3, [r7, #76]
 1506 097a 5A40     		eors	r2, r2, r3
 1507 097c BB68     		ldr	r3, [r7, #8]
 1508 097e 1A44     		add	r2, r2, r3
 1509 0980 BB6C     		ldr	r3, [r7, #72]
 1510 0982 1A44     		add	r2, r2, r3
 1511 0984 6C4B     		ldr	r3, .L20+28
 1512 0986 1344     		add	r3, r3, r2
 1513 0988 BB64     		str	r3, [r7, #72]
ARM GAS  C:\Users\dtjld\AppData\Local\Temp\cccY4U5j.s 			page 31


 1514 098a BB6C     		ldr	r3, [r7, #72]
 1515 098c 4FEA7353 		ror	r3, r3, #21
 1516 0990 7A6D     		ldr	r2, [r7, #84]
 1517 0992 1344     		add	r3, r3, r2
 1518 0994 BB64     		str	r3, [r7, #72]
 208:C:/Users/dtjld/workspace/AIoT/src/LiteOS_Lab/iot_link/network/dtls/mbedtls/mbedtls-2.16.2/library\md5.c ****     P( C, D, A, B,  3, 16, 0xD4EF3085 );
 1519              		.loc 1 208 0
 1520 0996 BA6C     		ldr	r2, [r7, #72]
 1521 0998 7B6D     		ldr	r3, [r7, #84]
 1522 099a 5A40     		eors	r2, r2, r3
 1523 099c 3B6D     		ldr	r3, [r7, #80]
 1524 099e 5A40     		eors	r2, r2, r3
 1525 09a0 7B69     		ldr	r3, [r7, #20]
 1526 09a2 1A44     		add	r2, r2, r3
 1527 09a4 FB6C     		ldr	r3, [r7, #76]
 1528 09a6 1A44     		add	r2, r2, r3
 1529 09a8 644B     		ldr	r3, .L20+32
 1530 09aa 1344     		add	r3, r3, r2
 1531 09ac FB64     		str	r3, [r7, #76]
 1532 09ae FB6C     		ldr	r3, [r7, #76]
 1533 09b0 4FEA3343 		ror	r3, r3, #16
 1534 09b4 BA6C     		ldr	r2, [r7, #72]
 1535 09b6 1344     		add	r3, r3, r2
 1536 09b8 FB64     		str	r3, [r7, #76]
 209:C:/Users/dtjld/workspace/AIoT/src/LiteOS_Lab/iot_link/network/dtls/mbedtls/mbedtls-2.16.2/library\md5.c ****     P( B, C, D, A,  6, 23, 0x04881D05 );
 1537              		.loc 1 209 0
 1538 09ba FA6C     		ldr	r2, [r7, #76]
 1539 09bc BB6C     		ldr	r3, [r7, #72]
 1540 09be 5A40     		eors	r2, r2, r3
 1541 09c0 7B6D     		ldr	r3, [r7, #84]
 1542 09c2 5A40     		eors	r2, r2, r3
 1543 09c4 3B6A     		ldr	r3, [r7, #32]
 1544 09c6 1A44     		add	r2, r2, r3
 1545 09c8 3B6D     		ldr	r3, [r7, #80]
 1546 09ca 1A44     		add	r2, r2, r3
 1547 09cc 5C4B     		ldr	r3, .L20+36
 1548 09ce 1344     		add	r3, r3, r2
 1549 09d0 3B65     		str	r3, [r7, #80]
 1550 09d2 3B6D     		ldr	r3, [r7, #80]
 1551 09d4 4FEA7323 		ror	r3, r3, #9
 1552 09d8 FA6C     		ldr	r2, [r7, #76]
 1553 09da 1344     		add	r3, r3, r2
 1554 09dc 3B65     		str	r3, [r7, #80]
 210:C:/Users/dtjld/workspace/AIoT/src/LiteOS_Lab/iot_link/network/dtls/mbedtls/mbedtls-2.16.2/library\md5.c ****     P( A, B, C, D,  9,  4, 0xD9D4D039 );
 1555              		.loc 1 210 0
 1556 09de 3A6D     		ldr	r2, [r7, #80]
 1557 09e0 FB6C     		ldr	r3, [r7, #76]
 1558 09e2 5A40     		eors	r2, r2, r3
 1559 09e4 BB6C     		ldr	r3, [r7, #72]
 1560 09e6 5A40     		eors	r2, r2, r3
 1561 09e8 FB6A     		ldr	r3, [r7, #44]
 1562 09ea 1A44     		add	r2, r2, r3
 1563 09ec 7B6D     		ldr	r3, [r7, #84]
 1564 09ee 1A44     		add	r2, r2, r3
 1565 09f0 544B     		ldr	r3, .L20+40
 1566 09f2 1344     		add	r3, r3, r2
 1567 09f4 7B65     		str	r3, [r7, #84]
ARM GAS  C:\Users\dtjld\AppData\Local\Temp\cccY4U5j.s 			page 32


 1568 09f6 7B6D     		ldr	r3, [r7, #84]
 1569 09f8 4FEA3373 		ror	r3, r3, #28
 1570 09fc 3A6D     		ldr	r2, [r7, #80]
 1571 09fe 1344     		add	r3, r3, r2
 1572 0a00 7B65     		str	r3, [r7, #84]
 211:C:/Users/dtjld/workspace/AIoT/src/LiteOS_Lab/iot_link/network/dtls/mbedtls/mbedtls-2.16.2/library\md5.c ****     P( D, A, B, C, 12, 11, 0xE6DB99E5 );
 1573              		.loc 1 211 0
 1574 0a02 7A6D     		ldr	r2, [r7, #84]
 1575 0a04 3B6D     		ldr	r3, [r7, #80]
 1576 0a06 5A40     		eors	r2, r2, r3
 1577 0a08 FB6C     		ldr	r3, [r7, #76]
 1578 0a0a 5A40     		eors	r2, r2, r3
 1579 0a0c BB6B     		ldr	r3, [r7, #56]
 1580 0a0e 1A44     		add	r2, r2, r3
 1581 0a10 BB6C     		ldr	r3, [r7, #72]
 1582 0a12 1A44     		add	r2, r2, r3
 1583 0a14 4C4B     		ldr	r3, .L20+44
 1584 0a16 1344     		add	r3, r3, r2
 1585 0a18 BB64     		str	r3, [r7, #72]
 1586 0a1a BB6C     		ldr	r3, [r7, #72]
 1587 0a1c 4FEA7353 		ror	r3, r3, #21
 1588 0a20 7A6D     		ldr	r2, [r7, #84]
 1589 0a22 1344     		add	r3, r3, r2
 1590 0a24 BB64     		str	r3, [r7, #72]
 212:C:/Users/dtjld/workspace/AIoT/src/LiteOS_Lab/iot_link/network/dtls/mbedtls/mbedtls-2.16.2/library\md5.c ****     P( C, D, A, B, 15, 16, 0x1FA27CF8 );
 1591              		.loc 1 212 0
 1592 0a26 BA6C     		ldr	r2, [r7, #72]
 1593 0a28 7B6D     		ldr	r3, [r7, #84]
 1594 0a2a 5A40     		eors	r2, r2, r3
 1595 0a2c 3B6D     		ldr	r3, [r7, #80]
 1596 0a2e 5A40     		eors	r2, r2, r3
 1597 0a30 7B6C     		ldr	r3, [r7, #68]
 1598 0a32 1A44     		add	r2, r2, r3
 1599 0a34 FB6C     		ldr	r3, [r7, #76]
 1600 0a36 1A44     		add	r2, r2, r3
 1601 0a38 444B     		ldr	r3, .L20+48
 1602 0a3a 1344     		add	r3, r3, r2
 1603 0a3c FB64     		str	r3, [r7, #76]
 1604 0a3e FB6C     		ldr	r3, [r7, #76]
 1605 0a40 4FEA3343 		ror	r3, r3, #16
 1606 0a44 BA6C     		ldr	r2, [r7, #72]
 1607 0a46 1344     		add	r3, r3, r2
 1608 0a48 FB64     		str	r3, [r7, #76]
 213:C:/Users/dtjld/workspace/AIoT/src/LiteOS_Lab/iot_link/network/dtls/mbedtls/mbedtls-2.16.2/library\md5.c ****     P( B, C, D, A,  2, 23, 0xC4AC5665 );
 1609              		.loc 1 213 0
 1610 0a4a FA6C     		ldr	r2, [r7, #76]
 1611 0a4c BB6C     		ldr	r3, [r7, #72]
 1612 0a4e 5A40     		eors	r2, r2, r3
 1613 0a50 7B6D     		ldr	r3, [r7, #84]
 1614 0a52 5A40     		eors	r2, r2, r3
 1615 0a54 3B69     		ldr	r3, [r7, #16]
 1616 0a56 1A44     		add	r2, r2, r3
 1617 0a58 3B6D     		ldr	r3, [r7, #80]
 1618 0a5a 1A44     		add	r2, r2, r3
 1619 0a5c 3C4B     		ldr	r3, .L20+52
 1620 0a5e 1344     		add	r3, r3, r2
 1621 0a60 3B65     		str	r3, [r7, #80]
ARM GAS  C:\Users\dtjld\AppData\Local\Temp\cccY4U5j.s 			page 33


 1622 0a62 3B6D     		ldr	r3, [r7, #80]
 1623 0a64 4FEA7323 		ror	r3, r3, #9
 1624 0a68 FA6C     		ldr	r2, [r7, #76]
 1625 0a6a 1344     		add	r3, r3, r2
 1626 0a6c 3B65     		str	r3, [r7, #80]
 214:C:/Users/dtjld/workspace/AIoT/src/LiteOS_Lab/iot_link/network/dtls/mbedtls/mbedtls-2.16.2/library\md5.c **** 
 215:C:/Users/dtjld/workspace/AIoT/src/LiteOS_Lab/iot_link/network/dtls/mbedtls/mbedtls-2.16.2/library\md5.c **** #undef F
 216:C:/Users/dtjld/workspace/AIoT/src/LiteOS_Lab/iot_link/network/dtls/mbedtls/mbedtls-2.16.2/library\md5.c **** 
 217:C:/Users/dtjld/workspace/AIoT/src/LiteOS_Lab/iot_link/network/dtls/mbedtls/mbedtls-2.16.2/library\md5.c **** #define F(x,y,z) ((y) ^ ((x) | ~(z)))
 218:C:/Users/dtjld/workspace/AIoT/src/LiteOS_Lab/iot_link/network/dtls/mbedtls/mbedtls-2.16.2/library\md5.c **** 
 219:C:/Users/dtjld/workspace/AIoT/src/LiteOS_Lab/iot_link/network/dtls/mbedtls/mbedtls-2.16.2/library\md5.c ****     P( A, B, C, D,  0,  6, 0xF4292244 );
 1627              		.loc 1 219 0
 1628 0a6e BB6C     		ldr	r3, [r7, #72]
 1629 0a70 DA43     		mvns	r2, r3
 1630 0a72 3B6D     		ldr	r3, [r7, #80]
 1631 0a74 1A43     		orrs	r2, r2, r3
 1632 0a76 FB6C     		ldr	r3, [r7, #76]
 1633 0a78 5A40     		eors	r2, r2, r3
 1634 0a7a BB68     		ldr	r3, [r7, #8]
 1635 0a7c 1A44     		add	r2, r2, r3
 1636 0a7e 7B6D     		ldr	r3, [r7, #84]
 1637 0a80 1A44     		add	r2, r2, r3
 1638 0a82 344B     		ldr	r3, .L20+56
 1639 0a84 1344     		add	r3, r3, r2
 1640 0a86 7B65     		str	r3, [r7, #84]
 1641 0a88 7B6D     		ldr	r3, [r7, #84]
 1642 0a8a 4FEAB363 		ror	r3, r3, #26
 1643 0a8e 3A6D     		ldr	r2, [r7, #80]
 1644 0a90 1344     		add	r3, r3, r2
 1645 0a92 7B65     		str	r3, [r7, #84]
 220:C:/Users/dtjld/workspace/AIoT/src/LiteOS_Lab/iot_link/network/dtls/mbedtls/mbedtls-2.16.2/library\md5.c ****     P( D, A, B, C,  7, 10, 0x432AFF97 );
 1646              		.loc 1 220 0
 1647 0a94 FB6C     		ldr	r3, [r7, #76]
 1648 0a96 DA43     		mvns	r2, r3
 1649 0a98 7B6D     		ldr	r3, [r7, #84]
 1650 0a9a 1A43     		orrs	r2, r2, r3
 1651 0a9c 3B6D     		ldr	r3, [r7, #80]
 1652 0a9e 5A40     		eors	r2, r2, r3
 1653 0aa0 7B6A     		ldr	r3, [r7, #36]
 1654 0aa2 1A44     		add	r2, r2, r3
 1655 0aa4 BB6C     		ldr	r3, [r7, #72]
 1656 0aa6 1A44     		add	r2, r2, r3
 1657 0aa8 2B4B     		ldr	r3, .L20+60
 1658 0aaa 1344     		add	r3, r3, r2
 1659 0aac BB64     		str	r3, [r7, #72]
 1660 0aae BB6C     		ldr	r3, [r7, #72]
 1661 0ab0 4FEAB353 		ror	r3, r3, #22
 1662 0ab4 7A6D     		ldr	r2, [r7, #84]
 1663 0ab6 1344     		add	r3, r3, r2
 1664 0ab8 BB64     		str	r3, [r7, #72]
 221:C:/Users/dtjld/workspace/AIoT/src/LiteOS_Lab/iot_link/network/dtls/mbedtls/mbedtls-2.16.2/library\md5.c ****     P( C, D, A, B, 14, 15, 0xAB9423A7 );
 1665              		.loc 1 221 0
 1666 0aba 3B6D     		ldr	r3, [r7, #80]
 1667 0abc DA43     		mvns	r2, r3
 1668 0abe BB6C     		ldr	r3, [r7, #72]
 1669 0ac0 1A43     		orrs	r2, r2, r3
 1670 0ac2 7B6D     		ldr	r3, [r7, #84]
ARM GAS  C:\Users\dtjld\AppData\Local\Temp\cccY4U5j.s 			page 34


 1671 0ac4 5A40     		eors	r2, r2, r3
 1672 0ac6 3B6C     		ldr	r3, [r7, #64]
 1673 0ac8 1A44     		add	r2, r2, r3
 1674 0aca FB6C     		ldr	r3, [r7, #76]
 1675 0acc 1A44     		add	r2, r2, r3
 1676 0ace 234B     		ldr	r3, .L20+64
 1677 0ad0 1344     		add	r3, r3, r2
 1678 0ad2 FB64     		str	r3, [r7, #76]
 1679 0ad4 FB6C     		ldr	r3, [r7, #76]
 1680 0ad6 4FEA7343 		ror	r3, r3, #17
 1681 0ada BA6C     		ldr	r2, [r7, #72]
 1682 0adc 1344     		add	r3, r3, r2
 1683 0ade FB64     		str	r3, [r7, #76]
 222:C:/Users/dtjld/workspace/AIoT/src/LiteOS_Lab/iot_link/network/dtls/mbedtls/mbedtls-2.16.2/library\md5.c ****     P( B, C, D, A,  5, 21, 0xFC93A039 );
 1684              		.loc 1 222 0
 1685 0ae0 7B6D     		ldr	r3, [r7, #84]
 1686 0ae2 DA43     		mvns	r2, r3
 1687 0ae4 FB6C     		ldr	r3, [r7, #76]
 1688 0ae6 1A43     		orrs	r2, r2, r3
 1689 0ae8 BB6C     		ldr	r3, [r7, #72]
 1690 0aea 5A40     		eors	r2, r2, r3
 1691 0aec FB69     		ldr	r3, [r7, #28]
 1692 0aee 1A44     		add	r2, r2, r3
 1693 0af0 3B6D     		ldr	r3, [r7, #80]
 1694 0af2 1A44     		add	r2, r2, r3
 1695 0af4 1A4B     		ldr	r3, .L20+68
 1696 0af6 1344     		add	r3, r3, r2
 1697 0af8 3B65     		str	r3, [r7, #80]
 1698 0afa 3B6D     		ldr	r3, [r7, #80]
 1699 0afc 4FEAF323 		ror	r3, r3, #11
 1700 0b00 FA6C     		ldr	r2, [r7, #76]
 1701 0b02 1344     		add	r3, r3, r2
 1702 0b04 3B65     		str	r3, [r7, #80]
 223:C:/Users/dtjld/workspace/AIoT/src/LiteOS_Lab/iot_link/network/dtls/mbedtls/mbedtls-2.16.2/library\md5.c ****     P( A, B, C, D, 12,  6, 0x655B59C3 );
 1703              		.loc 1 223 0
 1704 0b06 BB6C     		ldr	r3, [r7, #72]
 1705 0b08 DA43     		mvns	r2, r3
 1706 0b0a 3B6D     		ldr	r3, [r7, #80]
 1707 0b0c 1A43     		orrs	r2, r2, r3
 1708 0b0e FB6C     		ldr	r3, [r7, #76]
 1709 0b10 5A40     		eors	r2, r2, r3
 1710 0b12 BB6B     		ldr	r3, [r7, #56]
 1711 0b14 1A44     		add	r2, r2, r3
 1712 0b16 7B6D     		ldr	r3, [r7, #84]
 1713 0b18 24E0     		b	.L21
 1714              	.L22:
 1715 0b1a 00BF     		.align	2
 1716              	.L20:
 1717 0b1c 22619D6D 		.word	1839030562
 1718 0b20 0C38E5FD 		.word	-35309556
 1719 0b24 44EABEA4 		.word	-1530992060
 1720 0b28 A9CFDE4B 		.word	1272893353
 1721 0b2c 604BBBF6 		.word	-155497632
 1722 0b30 70BCBFBE 		.word	-1094730640
 1723 0b34 C67E9B28 		.word	681279174
 1724 0b38 FA27A1EA 		.word	-358537222
 1725 0b3c 8530EFD4 		.word	-722521979
ARM GAS  C:\Users\dtjld\AppData\Local\Temp\cccY4U5j.s 			page 35


 1726 0b40 051D8804 		.word	76029189
 1727 0b44 39D0D4D9 		.word	-640364487
 1728 0b48 E599DBE6 		.word	-421815835
 1729 0b4c F87CA21F 		.word	530742520
 1730 0b50 6556ACC4 		.word	-995338651
 1731 0b54 442229F4 		.word	-198630844
 1732 0b58 97FF2A43 		.word	1126891415
 1733 0b5c A72394AB 		.word	-1416354905
 1734 0b60 39A093FC 		.word	-57434055
 1735              	.L21:
 1736 0b64 1A44     		add	r2, r2, r3
 1737 0b66 7D4B     		ldr	r3, .L23
 1738 0b68 1344     		add	r3, r3, r2
 1739 0b6a 7B65     		str	r3, [r7, #84]
 1740 0b6c 7B6D     		ldr	r3, [r7, #84]
 1741 0b6e 4FEAB363 		ror	r3, r3, #26
 1742 0b72 3A6D     		ldr	r2, [r7, #80]
 1743 0b74 1344     		add	r3, r3, r2
 1744 0b76 7B65     		str	r3, [r7, #84]
 224:C:/Users/dtjld/workspace/AIoT/src/LiteOS_Lab/iot_link/network/dtls/mbedtls/mbedtls-2.16.2/library\md5.c ****     P( D, A, B, C,  3, 10, 0x8F0CCC92 );
 1745              		.loc 1 224 0
 1746 0b78 FB6C     		ldr	r3, [r7, #76]
 1747 0b7a DA43     		mvns	r2, r3
 1748 0b7c 7B6D     		ldr	r3, [r7, #84]
 1749 0b7e 1A43     		orrs	r2, r2, r3
 1750 0b80 3B6D     		ldr	r3, [r7, #80]
 1751 0b82 5A40     		eors	r2, r2, r3
 1752 0b84 7B69     		ldr	r3, [r7, #20]
 1753 0b86 1A44     		add	r2, r2, r3
 1754 0b88 BB6C     		ldr	r3, [r7, #72]
 1755 0b8a 1A44     		add	r2, r2, r3
 1756 0b8c 744B     		ldr	r3, .L23+4
 1757 0b8e 1344     		add	r3, r3, r2
 1758 0b90 BB64     		str	r3, [r7, #72]
 1759 0b92 BB6C     		ldr	r3, [r7, #72]
 1760 0b94 4FEAB353 		ror	r3, r3, #22
 1761 0b98 7A6D     		ldr	r2, [r7, #84]
 1762 0b9a 1344     		add	r3, r3, r2
 1763 0b9c BB64     		str	r3, [r7, #72]
 225:C:/Users/dtjld/workspace/AIoT/src/LiteOS_Lab/iot_link/network/dtls/mbedtls/mbedtls-2.16.2/library\md5.c ****     P( C, D, A, B, 10, 15, 0xFFEFF47D );
 1764              		.loc 1 225 0
 1765 0b9e 3B6D     		ldr	r3, [r7, #80]
 1766 0ba0 DA43     		mvns	r2, r3
 1767 0ba2 BB6C     		ldr	r3, [r7, #72]
 1768 0ba4 1A43     		orrs	r2, r2, r3
 1769 0ba6 7B6D     		ldr	r3, [r7, #84]
 1770 0ba8 5A40     		eors	r2, r2, r3
 1771 0baa 3B6B     		ldr	r3, [r7, #48]
 1772 0bac 1A44     		add	r2, r2, r3
 1773 0bae FB6C     		ldr	r3, [r7, #76]
 1774 0bb0 1344     		add	r3, r3, r2
 1775 0bb2 A3F58013 		sub	r3, r3, #1048576
 1776 0bb6 A3F68333 		subw	r3, r3, #2947
 1777 0bba FB64     		str	r3, [r7, #76]
 1778 0bbc FB6C     		ldr	r3, [r7, #76]
 1779 0bbe 4FEA7343 		ror	r3, r3, #17
 1780 0bc2 BA6C     		ldr	r2, [r7, #72]
ARM GAS  C:\Users\dtjld\AppData\Local\Temp\cccY4U5j.s 			page 36


 1781 0bc4 1344     		add	r3, r3, r2
 1782 0bc6 FB64     		str	r3, [r7, #76]
 226:C:/Users/dtjld/workspace/AIoT/src/LiteOS_Lab/iot_link/network/dtls/mbedtls/mbedtls-2.16.2/library\md5.c ****     P( B, C, D, A,  1, 21, 0x85845DD1 );
 1783              		.loc 1 226 0
 1784 0bc8 7B6D     		ldr	r3, [r7, #84]
 1785 0bca DA43     		mvns	r2, r3
 1786 0bcc FB6C     		ldr	r3, [r7, #76]
 1787 0bce 1A43     		orrs	r2, r2, r3
 1788 0bd0 BB6C     		ldr	r3, [r7, #72]
 1789 0bd2 5A40     		eors	r2, r2, r3
 1790 0bd4 FB68     		ldr	r3, [r7, #12]
 1791 0bd6 1A44     		add	r2, r2, r3
 1792 0bd8 3B6D     		ldr	r3, [r7, #80]
 1793 0bda 1A44     		add	r2, r2, r3
 1794 0bdc 614B     		ldr	r3, .L23+8
 1795 0bde 1344     		add	r3, r3, r2
 1796 0be0 3B65     		str	r3, [r7, #80]
 1797 0be2 3B6D     		ldr	r3, [r7, #80]
 1798 0be4 4FEAF323 		ror	r3, r3, #11
 1799 0be8 FA6C     		ldr	r2, [r7, #76]
 1800 0bea 1344     		add	r3, r3, r2
 1801 0bec 3B65     		str	r3, [r7, #80]
 227:C:/Users/dtjld/workspace/AIoT/src/LiteOS_Lab/iot_link/network/dtls/mbedtls/mbedtls-2.16.2/library\md5.c ****     P( A, B, C, D,  8,  6, 0x6FA87E4F );
 1802              		.loc 1 227 0
 1803 0bee BB6C     		ldr	r3, [r7, #72]
 1804 0bf0 DA43     		mvns	r2, r3
 1805 0bf2 3B6D     		ldr	r3, [r7, #80]
 1806 0bf4 1A43     		orrs	r2, r2, r3
 1807 0bf6 FB6C     		ldr	r3, [r7, #76]
 1808 0bf8 5A40     		eors	r2, r2, r3
 1809 0bfa BB6A     		ldr	r3, [r7, #40]
 1810 0bfc 1A44     		add	r2, r2, r3
 1811 0bfe 7B6D     		ldr	r3, [r7, #84]
 1812 0c00 1A44     		add	r2, r2, r3
 1813 0c02 594B     		ldr	r3, .L23+12
 1814 0c04 1344     		add	r3, r3, r2
 1815 0c06 7B65     		str	r3, [r7, #84]
 1816 0c08 7B6D     		ldr	r3, [r7, #84]
 1817 0c0a 4FEAB363 		ror	r3, r3, #26
 1818 0c0e 3A6D     		ldr	r2, [r7, #80]
 1819 0c10 1344     		add	r3, r3, r2
 1820 0c12 7B65     		str	r3, [r7, #84]
 228:C:/Users/dtjld/workspace/AIoT/src/LiteOS_Lab/iot_link/network/dtls/mbedtls/mbedtls-2.16.2/library\md5.c ****     P( D, A, B, C, 15, 10, 0xFE2CE6E0 );
 1821              		.loc 1 228 0
 1822 0c14 FB6C     		ldr	r3, [r7, #76]
 1823 0c16 DA43     		mvns	r2, r3
 1824 0c18 7B6D     		ldr	r3, [r7, #84]
 1825 0c1a 1A43     		orrs	r2, r2, r3
 1826 0c1c 3B6D     		ldr	r3, [r7, #80]
 1827 0c1e 5A40     		eors	r2, r2, r3
 1828 0c20 7B6C     		ldr	r3, [r7, #68]
 1829 0c22 1A44     		add	r2, r2, r3
 1830 0c24 BB6C     		ldr	r3, [r7, #72]
 1831 0c26 1A44     		add	r2, r2, r3
 1832 0c28 504B     		ldr	r3, .L23+16
 1833 0c2a 1344     		add	r3, r3, r2
 1834 0c2c BB64     		str	r3, [r7, #72]
ARM GAS  C:\Users\dtjld\AppData\Local\Temp\cccY4U5j.s 			page 37


 1835 0c2e BB6C     		ldr	r3, [r7, #72]
 1836 0c30 4FEAB353 		ror	r3, r3, #22
 1837 0c34 7A6D     		ldr	r2, [r7, #84]
 1838 0c36 1344     		add	r3, r3, r2
 1839 0c38 BB64     		str	r3, [r7, #72]
 229:C:/Users/dtjld/workspace/AIoT/src/LiteOS_Lab/iot_link/network/dtls/mbedtls/mbedtls-2.16.2/library\md5.c ****     P( C, D, A, B,  6, 15, 0xA3014314 );
 1840              		.loc 1 229 0
 1841 0c3a 3B6D     		ldr	r3, [r7, #80]
 1842 0c3c DA43     		mvns	r2, r3
 1843 0c3e BB6C     		ldr	r3, [r7, #72]
 1844 0c40 1A43     		orrs	r2, r2, r3
 1845 0c42 7B6D     		ldr	r3, [r7, #84]
 1846 0c44 5A40     		eors	r2, r2, r3
 1847 0c46 3B6A     		ldr	r3, [r7, #32]
 1848 0c48 1A44     		add	r2, r2, r3
 1849 0c4a FB6C     		ldr	r3, [r7, #76]
 1850 0c4c 1A44     		add	r2, r2, r3
 1851 0c4e 484B     		ldr	r3, .L23+20
 1852 0c50 1344     		add	r3, r3, r2
 1853 0c52 FB64     		str	r3, [r7, #76]
 1854 0c54 FB6C     		ldr	r3, [r7, #76]
 1855 0c56 4FEA7343 		ror	r3, r3, #17
 1856 0c5a BA6C     		ldr	r2, [r7, #72]
 1857 0c5c 1344     		add	r3, r3, r2
 1858 0c5e FB64     		str	r3, [r7, #76]
 230:C:/Users/dtjld/workspace/AIoT/src/LiteOS_Lab/iot_link/network/dtls/mbedtls/mbedtls-2.16.2/library\md5.c ****     P( B, C, D, A, 13, 21, 0x4E0811A1 );
 1859              		.loc 1 230 0
 1860 0c60 7B6D     		ldr	r3, [r7, #84]
 1861 0c62 DA43     		mvns	r2, r3
 1862 0c64 FB6C     		ldr	r3, [r7, #76]
 1863 0c66 1A43     		orrs	r2, r2, r3
 1864 0c68 BB6C     		ldr	r3, [r7, #72]
 1865 0c6a 5A40     		eors	r2, r2, r3
 1866 0c6c FB6B     		ldr	r3, [r7, #60]
 1867 0c6e 1A44     		add	r2, r2, r3
 1868 0c70 3B6D     		ldr	r3, [r7, #80]
 1869 0c72 1A44     		add	r2, r2, r3
 1870 0c74 3F4B     		ldr	r3, .L23+24
 1871 0c76 1344     		add	r3, r3, r2
 1872 0c78 3B65     		str	r3, [r7, #80]
 1873 0c7a 3B6D     		ldr	r3, [r7, #80]
 1874 0c7c 4FEAF323 		ror	r3, r3, #11
 1875 0c80 FA6C     		ldr	r2, [r7, #76]
 1876 0c82 1344     		add	r3, r3, r2
 1877 0c84 3B65     		str	r3, [r7, #80]
 231:C:/Users/dtjld/workspace/AIoT/src/LiteOS_Lab/iot_link/network/dtls/mbedtls/mbedtls-2.16.2/library\md5.c ****     P( A, B, C, D,  4,  6, 0xF7537E82 );
 1878              		.loc 1 231 0
 1879 0c86 BB6C     		ldr	r3, [r7, #72]
 1880 0c88 DA43     		mvns	r2, r3
 1881 0c8a 3B6D     		ldr	r3, [r7, #80]
 1882 0c8c 1A43     		orrs	r2, r2, r3
 1883 0c8e FB6C     		ldr	r3, [r7, #76]
 1884 0c90 5A40     		eors	r2, r2, r3
 1885 0c92 BB69     		ldr	r3, [r7, #24]
 1886 0c94 1A44     		add	r2, r2, r3
 1887 0c96 7B6D     		ldr	r3, [r7, #84]
 1888 0c98 1A44     		add	r2, r2, r3
ARM GAS  C:\Users\dtjld\AppData\Local\Temp\cccY4U5j.s 			page 38


 1889 0c9a 374B     		ldr	r3, .L23+28
 1890 0c9c 1344     		add	r3, r3, r2
 1891 0c9e 7B65     		str	r3, [r7, #84]
 1892 0ca0 7B6D     		ldr	r3, [r7, #84]
 1893 0ca2 4FEAB363 		ror	r3, r3, #26
 1894 0ca6 3A6D     		ldr	r2, [r7, #80]
 1895 0ca8 1344     		add	r3, r3, r2
 1896 0caa 7B65     		str	r3, [r7, #84]
 232:C:/Users/dtjld/workspace/AIoT/src/LiteOS_Lab/iot_link/network/dtls/mbedtls/mbedtls-2.16.2/library\md5.c ****     P( D, A, B, C, 11, 10, 0xBD3AF235 );
 1897              		.loc 1 232 0
 1898 0cac FB6C     		ldr	r3, [r7, #76]
 1899 0cae DA43     		mvns	r2, r3
 1900 0cb0 7B6D     		ldr	r3, [r7, #84]
 1901 0cb2 1A43     		orrs	r2, r2, r3
 1902 0cb4 3B6D     		ldr	r3, [r7, #80]
 1903 0cb6 5A40     		eors	r2, r2, r3
 1904 0cb8 7B6B     		ldr	r3, [r7, #52]
 1905 0cba 1A44     		add	r2, r2, r3
 1906 0cbc BB6C     		ldr	r3, [r7, #72]
 1907 0cbe 1A44     		add	r2, r2, r3
 1908 0cc0 2E4B     		ldr	r3, .L23+32
 1909 0cc2 1344     		add	r3, r3, r2
 1910 0cc4 BB64     		str	r3, [r7, #72]
 1911 0cc6 BB6C     		ldr	r3, [r7, #72]
 1912 0cc8 4FEAB353 		ror	r3, r3, #22
 1913 0ccc 7A6D     		ldr	r2, [r7, #84]
 1914 0cce 1344     		add	r3, r3, r2
 1915 0cd0 BB64     		str	r3, [r7, #72]
 233:C:/Users/dtjld/workspace/AIoT/src/LiteOS_Lab/iot_link/network/dtls/mbedtls/mbedtls-2.16.2/library\md5.c ****     P( C, D, A, B,  2, 15, 0x2AD7D2BB );
 1916              		.loc 1 233 0
 1917 0cd2 3B6D     		ldr	r3, [r7, #80]
 1918 0cd4 DA43     		mvns	r2, r3
 1919 0cd6 BB6C     		ldr	r3, [r7, #72]
 1920 0cd8 1A43     		orrs	r2, r2, r3
 1921 0cda 7B6D     		ldr	r3, [r7, #84]
 1922 0cdc 5A40     		eors	r2, r2, r3
 1923 0cde 3B69     		ldr	r3, [r7, #16]
 1924 0ce0 1A44     		add	r2, r2, r3
 1925 0ce2 FB6C     		ldr	r3, [r7, #76]
 1926 0ce4 1A44     		add	r2, r2, r3
 1927 0ce6 264B     		ldr	r3, .L23+36
 1928 0ce8 1344     		add	r3, r3, r2
 1929 0cea FB64     		str	r3, [r7, #76]
 1930 0cec FB6C     		ldr	r3, [r7, #76]
 1931 0cee 4FEA7343 		ror	r3, r3, #17
 1932 0cf2 BA6C     		ldr	r2, [r7, #72]
 1933 0cf4 1344     		add	r3, r3, r2
 1934 0cf6 FB64     		str	r3, [r7, #76]
 234:C:/Users/dtjld/workspace/AIoT/src/LiteOS_Lab/iot_link/network/dtls/mbedtls/mbedtls-2.16.2/library\md5.c ****     P( B, C, D, A,  9, 21, 0xEB86D391 );
 1935              		.loc 1 234 0
 1936 0cf8 7B6D     		ldr	r3, [r7, #84]
 1937 0cfa DA43     		mvns	r2, r3
 1938 0cfc FB6C     		ldr	r3, [r7, #76]
 1939 0cfe 1A43     		orrs	r2, r2, r3
 1940 0d00 BB6C     		ldr	r3, [r7, #72]
 1941 0d02 5A40     		eors	r2, r2, r3
 1942 0d04 FB6A     		ldr	r3, [r7, #44]
ARM GAS  C:\Users\dtjld\AppData\Local\Temp\cccY4U5j.s 			page 39


 1943 0d06 1A44     		add	r2, r2, r3
 1944 0d08 3B6D     		ldr	r3, [r7, #80]
 1945 0d0a 1A44     		add	r2, r2, r3
 1946 0d0c 1D4B     		ldr	r3, .L23+40
 1947 0d0e 1344     		add	r3, r3, r2
 1948 0d10 3B65     		str	r3, [r7, #80]
 1949 0d12 3B6D     		ldr	r3, [r7, #80]
 1950 0d14 4FEAF323 		ror	r3, r3, #11
 1951 0d18 FA6C     		ldr	r2, [r7, #76]
 1952 0d1a 1344     		add	r3, r3, r2
 1953 0d1c 3B65     		str	r3, [r7, #80]
 235:C:/Users/dtjld/workspace/AIoT/src/LiteOS_Lab/iot_link/network/dtls/mbedtls/mbedtls-2.16.2/library\md5.c **** 
 236:C:/Users/dtjld/workspace/AIoT/src/LiteOS_Lab/iot_link/network/dtls/mbedtls/mbedtls-2.16.2/library\md5.c **** #undef F
 237:C:/Users/dtjld/workspace/AIoT/src/LiteOS_Lab/iot_link/network/dtls/mbedtls/mbedtls-2.16.2/library\md5.c **** 
 238:C:/Users/dtjld/workspace/AIoT/src/LiteOS_Lab/iot_link/network/dtls/mbedtls/mbedtls-2.16.2/library\md5.c ****     ctx->state[0] += A;
 1954              		.loc 1 238 0
 1955 0d1e 7B68     		ldr	r3, [r7, #4]
 1956 0d20 9A68     		ldr	r2, [r3, #8]
 1957 0d22 7B6D     		ldr	r3, [r7, #84]
 1958 0d24 1A44     		add	r2, r2, r3
 1959 0d26 7B68     		ldr	r3, [r7, #4]
 1960 0d28 9A60     		str	r2, [r3, #8]
 239:C:/Users/dtjld/workspace/AIoT/src/LiteOS_Lab/iot_link/network/dtls/mbedtls/mbedtls-2.16.2/library\md5.c ****     ctx->state[1] += B;
 1961              		.loc 1 239 0
 1962 0d2a 7B68     		ldr	r3, [r7, #4]
 1963 0d2c DA68     		ldr	r2, [r3, #12]
 1964 0d2e 3B6D     		ldr	r3, [r7, #80]
 1965 0d30 1A44     		add	r2, r2, r3
 1966 0d32 7B68     		ldr	r3, [r7, #4]
 1967 0d34 DA60     		str	r2, [r3, #12]
 240:C:/Users/dtjld/workspace/AIoT/src/LiteOS_Lab/iot_link/network/dtls/mbedtls/mbedtls-2.16.2/library\md5.c ****     ctx->state[2] += C;
 1968              		.loc 1 240 0
 1969 0d36 7B68     		ldr	r3, [r7, #4]
 1970 0d38 1A69     		ldr	r2, [r3, #16]
 1971 0d3a FB6C     		ldr	r3, [r7, #76]
 1972 0d3c 1A44     		add	r2, r2, r3
 1973 0d3e 7B68     		ldr	r3, [r7, #4]
 1974 0d40 1A61     		str	r2, [r3, #16]
 241:C:/Users/dtjld/workspace/AIoT/src/LiteOS_Lab/iot_link/network/dtls/mbedtls/mbedtls-2.16.2/library\md5.c ****     ctx->state[3] += D;
 1975              		.loc 1 241 0
 1976 0d42 7B68     		ldr	r3, [r7, #4]
 1977 0d44 5A69     		ldr	r2, [r3, #20]
 1978 0d46 BB6C     		ldr	r3, [r7, #72]
 1979 0d48 1A44     		add	r2, r2, r3
 1980 0d4a 7B68     		ldr	r3, [r7, #4]
 1981 0d4c 5A61     		str	r2, [r3, #20]
 242:C:/Users/dtjld/workspace/AIoT/src/LiteOS_Lab/iot_link/network/dtls/mbedtls/mbedtls-2.16.2/library\md5.c **** 
 243:C:/Users/dtjld/workspace/AIoT/src/LiteOS_Lab/iot_link/network/dtls/mbedtls/mbedtls-2.16.2/library\md5.c ****     return( 0 );
 1982              		.loc 1 243 0
 1983 0d4e 0023     		movs	r3, #0
 244:C:/Users/dtjld/workspace/AIoT/src/LiteOS_Lab/iot_link/network/dtls/mbedtls/mbedtls-2.16.2/library\md5.c **** }
 1984              		.loc 1 244 0
 1985 0d50 1846     		mov	r0, r3
 1986 0d52 5C37     		adds	r7, r7, #92
 1987              	.LCFI29:
 1988              		.cfi_def_cfa_offset 4
 1989 0d54 BD46     		mov	sp, r7
ARM GAS  C:\Users\dtjld\AppData\Local\Temp\cccY4U5j.s 			page 40


 1990              	.LCFI30:
 1991              		.cfi_def_cfa_register 13
 1992              		@ sp needed
 1993 0d56 5DF8047B 		ldr	r7, [sp], #4
 1994              	.LCFI31:
 1995              		.cfi_restore 7
 1996              		.cfi_def_cfa_offset 0
 1997 0d5a 7047     		bx	lr
 1998              	.L24:
 1999              		.align	2
 2000              	.L23:
 2001 0d5c C3595B65 		.word	1700485571
 2002 0d60 92CC0C8F 		.word	-1894986606
 2003 0d64 D15D8485 		.word	-2054922799
 2004 0d68 4F7EA86F 		.word	1873313359
 2005 0d6c E0E62CFE 		.word	-30611744
 2006 0d70 144301A3 		.word	-1560198380
 2007 0d74 A111084E 		.word	1309151649
 2008 0d78 827E53F7 		.word	-145523070
 2009 0d7c 35F23ABD 		.word	-1120210379
 2010 0d80 BBD2D72A 		.word	718787259
 2011 0d84 91D386EB 		.word	-343485551
 2012              		.cfi_endproc
 2013              	.LFE8:
 2015              		.section	.text.mbedtls_md5_process,"ax",%progbits
 2016              		.align	1
 2017              		.global	mbedtls_md5_process
 2018              		.syntax unified
 2019              		.thumb
 2020              		.thumb_func
 2021              		.fpu fpv4-sp-d16
 2023              	mbedtls_md5_process:
 2024              	.LFB9:
 245:C:/Users/dtjld/workspace/AIoT/src/LiteOS_Lab/iot_link/network/dtls/mbedtls/mbedtls-2.16.2/library\md5.c **** 
 246:C:/Users/dtjld/workspace/AIoT/src/LiteOS_Lab/iot_link/network/dtls/mbedtls/mbedtls-2.16.2/library\md5.c **** #if !defined(MBEDTLS_DEPRECATED_REMOVED)
 247:C:/Users/dtjld/workspace/AIoT/src/LiteOS_Lab/iot_link/network/dtls/mbedtls/mbedtls-2.16.2/library\md5.c **** void mbedtls_md5_process( mbedtls_md5_context *ctx,
 248:C:/Users/dtjld/workspace/AIoT/src/LiteOS_Lab/iot_link/network/dtls/mbedtls/mbedtls-2.16.2/library\md5.c ****                           const unsigned char data[64] )
 249:C:/Users/dtjld/workspace/AIoT/src/LiteOS_Lab/iot_link/network/dtls/mbedtls/mbedtls-2.16.2/library\md5.c **** {
 2025              		.loc 1 249 0
 2026              		.cfi_startproc
 2027              		@ args = 0, pretend = 0, frame = 8
 2028              		@ frame_needed = 1, uses_anonymous_args = 0
 2029 0000 80B5     		push	{r7, lr}
 2030              	.LCFI32:
 2031              		.cfi_def_cfa_offset 8
 2032              		.cfi_offset 7, -8
 2033              		.cfi_offset 14, -4
 2034 0002 82B0     		sub	sp, sp, #8
 2035              	.LCFI33:
 2036              		.cfi_def_cfa_offset 16
 2037 0004 00AF     		add	r7, sp, #0
 2038              	.LCFI34:
 2039              		.cfi_def_cfa_register 7
 2040 0006 7860     		str	r0, [r7, #4]
 2041 0008 3960     		str	r1, [r7]
 250:C:/Users/dtjld/workspace/AIoT/src/LiteOS_Lab/iot_link/network/dtls/mbedtls/mbedtls-2.16.2/library\md5.c ****     mbedtls_internal_md5_process( ctx, data );
 2042              		.loc 1 250 0
ARM GAS  C:\Users\dtjld\AppData\Local\Temp\cccY4U5j.s 			page 41


 2043 000a 3968     		ldr	r1, [r7]
 2044 000c 7868     		ldr	r0, [r7, #4]
 2045 000e FFF7FEFF 		bl	mbedtls_internal_md5_process
 251:C:/Users/dtjld/workspace/AIoT/src/LiteOS_Lab/iot_link/network/dtls/mbedtls/mbedtls-2.16.2/library\md5.c **** }
 2046              		.loc 1 251 0
 2047 0012 00BF     		nop
 2048 0014 0837     		adds	r7, r7, #8
 2049              	.LCFI35:
 2050              		.cfi_def_cfa_offset 8
 2051 0016 BD46     		mov	sp, r7
 2052              	.LCFI36:
 2053              		.cfi_def_cfa_register 13
 2054              		@ sp needed
 2055 0018 80BD     		pop	{r7, pc}
 2056              		.cfi_endproc
 2057              	.LFE9:
 2059              		.section	.text.mbedtls_md5_update_ret,"ax",%progbits
 2060              		.align	1
 2061              		.global	mbedtls_md5_update_ret
 2062              		.syntax unified
 2063              		.thumb
 2064              		.thumb_func
 2065              		.fpu fpv4-sp-d16
 2067              	mbedtls_md5_update_ret:
 2068              	.LFB10:
 252:C:/Users/dtjld/workspace/AIoT/src/LiteOS_Lab/iot_link/network/dtls/mbedtls/mbedtls-2.16.2/library\md5.c **** #endif
 253:C:/Users/dtjld/workspace/AIoT/src/LiteOS_Lab/iot_link/network/dtls/mbedtls/mbedtls-2.16.2/library\md5.c **** #endif /* !MBEDTLS_MD5_PROCESS_ALT */
 254:C:/Users/dtjld/workspace/AIoT/src/LiteOS_Lab/iot_link/network/dtls/mbedtls/mbedtls-2.16.2/library\md5.c **** 
 255:C:/Users/dtjld/workspace/AIoT/src/LiteOS_Lab/iot_link/network/dtls/mbedtls/mbedtls-2.16.2/library\md5.c **** /*
 256:C:/Users/dtjld/workspace/AIoT/src/LiteOS_Lab/iot_link/network/dtls/mbedtls/mbedtls-2.16.2/library\md5.c ****  * MD5 process buffer
 257:C:/Users/dtjld/workspace/AIoT/src/LiteOS_Lab/iot_link/network/dtls/mbedtls/mbedtls-2.16.2/library\md5.c ****  */
 258:C:/Users/dtjld/workspace/AIoT/src/LiteOS_Lab/iot_link/network/dtls/mbedtls/mbedtls-2.16.2/library\md5.c **** int mbedtls_md5_update_ret( mbedtls_md5_context *ctx,
 259:C:/Users/dtjld/workspace/AIoT/src/LiteOS_Lab/iot_link/network/dtls/mbedtls/mbedtls-2.16.2/library\md5.c ****                             const unsigned char *input,
 260:C:/Users/dtjld/workspace/AIoT/src/LiteOS_Lab/iot_link/network/dtls/mbedtls/mbedtls-2.16.2/library\md5.c ****                             size_t ilen )
 261:C:/Users/dtjld/workspace/AIoT/src/LiteOS_Lab/iot_link/network/dtls/mbedtls/mbedtls-2.16.2/library\md5.c **** {
 2069              		.loc 1 261 0
 2070              		.cfi_startproc
 2071              		@ args = 0, pretend = 0, frame = 32
 2072              		@ frame_needed = 1, uses_anonymous_args = 0
 2073 0000 80B5     		push	{r7, lr}
 2074              	.LCFI37:
 2075              		.cfi_def_cfa_offset 8
 2076              		.cfi_offset 7, -8
 2077              		.cfi_offset 14, -4
 2078 0002 88B0     		sub	sp, sp, #32
 2079              	.LCFI38:
 2080              		.cfi_def_cfa_offset 40
 2081 0004 00AF     		add	r7, sp, #0
 2082              	.LCFI39:
 2083              		.cfi_def_cfa_register 7
 2084 0006 F860     		str	r0, [r7, #12]
 2085 0008 B960     		str	r1, [r7, #8]
 2086 000a 7A60     		str	r2, [r7, #4]
 262:C:/Users/dtjld/workspace/AIoT/src/LiteOS_Lab/iot_link/network/dtls/mbedtls/mbedtls-2.16.2/library\md5.c ****     int ret;
 263:C:/Users/dtjld/workspace/AIoT/src/LiteOS_Lab/iot_link/network/dtls/mbedtls/mbedtls-2.16.2/library\md5.c ****     size_t fill;
 264:C:/Users/dtjld/workspace/AIoT/src/LiteOS_Lab/iot_link/network/dtls/mbedtls/mbedtls-2.16.2/library\md5.c ****     uint32_t left;
 265:C:/Users/dtjld/workspace/AIoT/src/LiteOS_Lab/iot_link/network/dtls/mbedtls/mbedtls-2.16.2/library\md5.c **** 
ARM GAS  C:\Users\dtjld\AppData\Local\Temp\cccY4U5j.s 			page 42


 266:C:/Users/dtjld/workspace/AIoT/src/LiteOS_Lab/iot_link/network/dtls/mbedtls/mbedtls-2.16.2/library\md5.c ****     if( ilen == 0 )
 2087              		.loc 1 266 0
 2088 000c 7B68     		ldr	r3, [r7, #4]
 2089 000e 002B     		cmp	r3, #0
 2090 0010 01D1     		bne	.L27
 267:C:/Users/dtjld/workspace/AIoT/src/LiteOS_Lab/iot_link/network/dtls/mbedtls/mbedtls-2.16.2/library\md5.c ****         return( 0 );
 2091              		.loc 1 267 0
 2092 0012 0023     		movs	r3, #0
 2093 0014 65E0     		b	.L28
 2094              	.L27:
 268:C:/Users/dtjld/workspace/AIoT/src/LiteOS_Lab/iot_link/network/dtls/mbedtls/mbedtls-2.16.2/library\md5.c **** 
 269:C:/Users/dtjld/workspace/AIoT/src/LiteOS_Lab/iot_link/network/dtls/mbedtls/mbedtls-2.16.2/library\md5.c ****     left = ctx->total[0] & 0x3F;
 2095              		.loc 1 269 0
 2096 0016 FB68     		ldr	r3, [r7, #12]
 2097 0018 1B68     		ldr	r3, [r3]
 2098 001a 03F03F03 		and	r3, r3, #63
 2099 001e FB61     		str	r3, [r7, #28]
 270:C:/Users/dtjld/workspace/AIoT/src/LiteOS_Lab/iot_link/network/dtls/mbedtls/mbedtls-2.16.2/library\md5.c ****     fill = 64 - left;
 2100              		.loc 1 270 0
 2101 0020 FB69     		ldr	r3, [r7, #28]
 2102 0022 C3F14003 		rsb	r3, r3, #64
 2103 0026 BB61     		str	r3, [r7, #24]
 271:C:/Users/dtjld/workspace/AIoT/src/LiteOS_Lab/iot_link/network/dtls/mbedtls/mbedtls-2.16.2/library\md5.c **** 
 272:C:/Users/dtjld/workspace/AIoT/src/LiteOS_Lab/iot_link/network/dtls/mbedtls/mbedtls-2.16.2/library\md5.c ****     ctx->total[0] += (uint32_t) ilen;
 2104              		.loc 1 272 0
 2105 0028 FB68     		ldr	r3, [r7, #12]
 2106 002a 1A68     		ldr	r2, [r3]
 2107 002c 7B68     		ldr	r3, [r7, #4]
 2108 002e 1A44     		add	r2, r2, r3
 2109 0030 FB68     		ldr	r3, [r7, #12]
 2110 0032 1A60     		str	r2, [r3]
 273:C:/Users/dtjld/workspace/AIoT/src/LiteOS_Lab/iot_link/network/dtls/mbedtls/mbedtls-2.16.2/library\md5.c ****     ctx->total[0] &= 0xFFFFFFFF;
 2111              		.loc 1 273 0
 2112 0034 FB68     		ldr	r3, [r7, #12]
 2113 0036 1A68     		ldr	r2, [r3]
 2114 0038 FB68     		ldr	r3, [r7, #12]
 2115 003a 1A60     		str	r2, [r3]
 274:C:/Users/dtjld/workspace/AIoT/src/LiteOS_Lab/iot_link/network/dtls/mbedtls/mbedtls-2.16.2/library\md5.c **** 
 275:C:/Users/dtjld/workspace/AIoT/src/LiteOS_Lab/iot_link/network/dtls/mbedtls/mbedtls-2.16.2/library\md5.c ****     if( ctx->total[0] < (uint32_t) ilen )
 2116              		.loc 1 275 0
 2117 003c FB68     		ldr	r3, [r7, #12]
 2118 003e 1B68     		ldr	r3, [r3]
 2119 0040 7A68     		ldr	r2, [r7, #4]
 2120 0042 9A42     		cmp	r2, r3
 2121 0044 04D9     		bls	.L29
 276:C:/Users/dtjld/workspace/AIoT/src/LiteOS_Lab/iot_link/network/dtls/mbedtls/mbedtls-2.16.2/library\md5.c ****         ctx->total[1]++;
 2122              		.loc 1 276 0
 2123 0046 FB68     		ldr	r3, [r7, #12]
 2124 0048 5B68     		ldr	r3, [r3, #4]
 2125 004a 5A1C     		adds	r2, r3, #1
 2126 004c FB68     		ldr	r3, [r7, #12]
 2127 004e 5A60     		str	r2, [r3, #4]
 2128              	.L29:
 277:C:/Users/dtjld/workspace/AIoT/src/LiteOS_Lab/iot_link/network/dtls/mbedtls/mbedtls-2.16.2/library\md5.c **** 
 278:C:/Users/dtjld/workspace/AIoT/src/LiteOS_Lab/iot_link/network/dtls/mbedtls/mbedtls-2.16.2/library\md5.c ****     if( left && ilen >= fill )
 2129              		.loc 1 278 0
 2130 0050 FB69     		ldr	r3, [r7, #28]
ARM GAS  C:\Users\dtjld\AppData\Local\Temp\cccY4U5j.s 			page 43


 2131 0052 002B     		cmp	r3, #0
 2132 0054 34D0     		beq	.L32
 2133              		.loc 1 278 0 is_stmt 0 discriminator 1
 2134 0056 7A68     		ldr	r2, [r7, #4]
 2135 0058 BB69     		ldr	r3, [r7, #24]
 2136 005a 9A42     		cmp	r2, r3
 2137 005c 30D3     		bcc	.L32
 279:C:/Users/dtjld/workspace/AIoT/src/LiteOS_Lab/iot_link/network/dtls/mbedtls/mbedtls-2.16.2/library\md5.c ****     {
 280:C:/Users/dtjld/workspace/AIoT/src/LiteOS_Lab/iot_link/network/dtls/mbedtls/mbedtls-2.16.2/library\md5.c ****         memcpy( (void *) (ctx->buffer + left), input, fill );
 2138              		.loc 1 280 0 is_stmt 1
 2139 005e FB68     		ldr	r3, [r7, #12]
 2140 0060 03F11802 		add	r2, r3, #24
 2141 0064 FB69     		ldr	r3, [r7, #28]
 2142 0066 1344     		add	r3, r3, r2
 2143 0068 BA69     		ldr	r2, [r7, #24]
 2144 006a B968     		ldr	r1, [r7, #8]
 2145 006c 1846     		mov	r0, r3
 2146 006e FFF7FEFF 		bl	memcpy
 281:C:/Users/dtjld/workspace/AIoT/src/LiteOS_Lab/iot_link/network/dtls/mbedtls/mbedtls-2.16.2/library\md5.c ****         if( ( ret = mbedtls_internal_md5_process( ctx, ctx->buffer ) ) != 0 )
 2147              		.loc 1 281 0
 2148 0072 FB68     		ldr	r3, [r7, #12]
 2149 0074 1833     		adds	r3, r3, #24
 2150 0076 1946     		mov	r1, r3
 2151 0078 F868     		ldr	r0, [r7, #12]
 2152 007a FFF7FEFF 		bl	mbedtls_internal_md5_process
 2153 007e 7861     		str	r0, [r7, #20]
 2154 0080 7B69     		ldr	r3, [r7, #20]
 2155 0082 002B     		cmp	r3, #0
 2156 0084 01D0     		beq	.L31
 282:C:/Users/dtjld/workspace/AIoT/src/LiteOS_Lab/iot_link/network/dtls/mbedtls/mbedtls-2.16.2/library\md5.c ****             return( ret );
 2157              		.loc 1 282 0
 2158 0086 7B69     		ldr	r3, [r7, #20]
 2159 0088 2BE0     		b	.L28
 2160              	.L31:
 283:C:/Users/dtjld/workspace/AIoT/src/LiteOS_Lab/iot_link/network/dtls/mbedtls/mbedtls-2.16.2/library\md5.c **** 
 284:C:/Users/dtjld/workspace/AIoT/src/LiteOS_Lab/iot_link/network/dtls/mbedtls/mbedtls-2.16.2/library\md5.c ****         input += fill;
 2161              		.loc 1 284 0
 2162 008a BA68     		ldr	r2, [r7, #8]
 2163 008c BB69     		ldr	r3, [r7, #24]
 2164 008e 1344     		add	r3, r3, r2
 2165 0090 BB60     		str	r3, [r7, #8]
 285:C:/Users/dtjld/workspace/AIoT/src/LiteOS_Lab/iot_link/network/dtls/mbedtls/mbedtls-2.16.2/library\md5.c ****         ilen  -= fill;
 2166              		.loc 1 285 0
 2167 0092 7A68     		ldr	r2, [r7, #4]
 2168 0094 BB69     		ldr	r3, [r7, #24]
 2169 0096 D31A     		subs	r3, r2, r3
 2170 0098 7B60     		str	r3, [r7, #4]
 286:C:/Users/dtjld/workspace/AIoT/src/LiteOS_Lab/iot_link/network/dtls/mbedtls/mbedtls-2.16.2/library\md5.c ****         left = 0;
 2171              		.loc 1 286 0
 2172 009a 0023     		movs	r3, #0
 2173 009c FB61     		str	r3, [r7, #28]
 287:C:/Users/dtjld/workspace/AIoT/src/LiteOS_Lab/iot_link/network/dtls/mbedtls/mbedtls-2.16.2/library\md5.c ****     }
 288:C:/Users/dtjld/workspace/AIoT/src/LiteOS_Lab/iot_link/network/dtls/mbedtls/mbedtls-2.16.2/library\md5.c **** 
 289:C:/Users/dtjld/workspace/AIoT/src/LiteOS_Lab/iot_link/network/dtls/mbedtls/mbedtls-2.16.2/library\md5.c ****     while( ilen >= 64 )
 2174              		.loc 1 289 0
 2175 009e 0FE0     		b	.L32
 2176              	.L34:
ARM GAS  C:\Users\dtjld\AppData\Local\Temp\cccY4U5j.s 			page 44


 290:C:/Users/dtjld/workspace/AIoT/src/LiteOS_Lab/iot_link/network/dtls/mbedtls/mbedtls-2.16.2/library\md5.c ****     {
 291:C:/Users/dtjld/workspace/AIoT/src/LiteOS_Lab/iot_link/network/dtls/mbedtls/mbedtls-2.16.2/library\md5.c ****         if( ( ret = mbedtls_internal_md5_process( ctx, input ) ) != 0 )
 2177              		.loc 1 291 0
 2178 00a0 B968     		ldr	r1, [r7, #8]
 2179 00a2 F868     		ldr	r0, [r7, #12]
 2180 00a4 FFF7FEFF 		bl	mbedtls_internal_md5_process
 2181 00a8 7861     		str	r0, [r7, #20]
 2182 00aa 7B69     		ldr	r3, [r7, #20]
 2183 00ac 002B     		cmp	r3, #0
 2184 00ae 01D0     		beq	.L33
 292:C:/Users/dtjld/workspace/AIoT/src/LiteOS_Lab/iot_link/network/dtls/mbedtls/mbedtls-2.16.2/library\md5.c ****             return( ret );
 2185              		.loc 1 292 0
 2186 00b0 7B69     		ldr	r3, [r7, #20]
 2187 00b2 16E0     		b	.L28
 2188              	.L33:
 293:C:/Users/dtjld/workspace/AIoT/src/LiteOS_Lab/iot_link/network/dtls/mbedtls/mbedtls-2.16.2/library\md5.c **** 
 294:C:/Users/dtjld/workspace/AIoT/src/LiteOS_Lab/iot_link/network/dtls/mbedtls/mbedtls-2.16.2/library\md5.c ****         input += 64;
 2189              		.loc 1 294 0
 2190 00b4 BB68     		ldr	r3, [r7, #8]
 2191 00b6 4033     		adds	r3, r3, #64
 2192 00b8 BB60     		str	r3, [r7, #8]
 295:C:/Users/dtjld/workspace/AIoT/src/LiteOS_Lab/iot_link/network/dtls/mbedtls/mbedtls-2.16.2/library\md5.c ****         ilen  -= 64;
 2193              		.loc 1 295 0
 2194 00ba 7B68     		ldr	r3, [r7, #4]
 2195 00bc 403B     		subs	r3, r3, #64
 2196 00be 7B60     		str	r3, [r7, #4]
 2197              	.L32:
 289:C:/Users/dtjld/workspace/AIoT/src/LiteOS_Lab/iot_link/network/dtls/mbedtls/mbedtls-2.16.2/library\md5.c ****     {
 2198              		.loc 1 289 0
 2199 00c0 7B68     		ldr	r3, [r7, #4]
 2200 00c2 3F2B     		cmp	r3, #63
 2201 00c4 ECD8     		bhi	.L34
 296:C:/Users/dtjld/workspace/AIoT/src/LiteOS_Lab/iot_link/network/dtls/mbedtls/mbedtls-2.16.2/library\md5.c ****     }
 297:C:/Users/dtjld/workspace/AIoT/src/LiteOS_Lab/iot_link/network/dtls/mbedtls/mbedtls-2.16.2/library\md5.c **** 
 298:C:/Users/dtjld/workspace/AIoT/src/LiteOS_Lab/iot_link/network/dtls/mbedtls/mbedtls-2.16.2/library\md5.c ****     if( ilen > 0 )
 2202              		.loc 1 298 0
 2203 00c6 7B68     		ldr	r3, [r7, #4]
 2204 00c8 002B     		cmp	r3, #0
 2205 00ca 09D0     		beq	.L35
 299:C:/Users/dtjld/workspace/AIoT/src/LiteOS_Lab/iot_link/network/dtls/mbedtls/mbedtls-2.16.2/library\md5.c ****     {
 300:C:/Users/dtjld/workspace/AIoT/src/LiteOS_Lab/iot_link/network/dtls/mbedtls/mbedtls-2.16.2/library\md5.c ****         memcpy( (void *) (ctx->buffer + left), input, ilen );
 2206              		.loc 1 300 0
 2207 00cc FB68     		ldr	r3, [r7, #12]
 2208 00ce 03F11802 		add	r2, r3, #24
 2209 00d2 FB69     		ldr	r3, [r7, #28]
 2210 00d4 1344     		add	r3, r3, r2
 2211 00d6 7A68     		ldr	r2, [r7, #4]
 2212 00d8 B968     		ldr	r1, [r7, #8]
 2213 00da 1846     		mov	r0, r3
 2214 00dc FFF7FEFF 		bl	memcpy
 2215              	.L35:
 301:C:/Users/dtjld/workspace/AIoT/src/LiteOS_Lab/iot_link/network/dtls/mbedtls/mbedtls-2.16.2/library\md5.c ****     }
 302:C:/Users/dtjld/workspace/AIoT/src/LiteOS_Lab/iot_link/network/dtls/mbedtls/mbedtls-2.16.2/library\md5.c **** 
 303:C:/Users/dtjld/workspace/AIoT/src/LiteOS_Lab/iot_link/network/dtls/mbedtls/mbedtls-2.16.2/library\md5.c ****     return( 0 );
 2216              		.loc 1 303 0
 2217 00e0 0023     		movs	r3, #0
 2218              	.L28:
ARM GAS  C:\Users\dtjld\AppData\Local\Temp\cccY4U5j.s 			page 45


 304:C:/Users/dtjld/workspace/AIoT/src/LiteOS_Lab/iot_link/network/dtls/mbedtls/mbedtls-2.16.2/library\md5.c **** }
 2219              		.loc 1 304 0
 2220 00e2 1846     		mov	r0, r3
 2221 00e4 2037     		adds	r7, r7, #32
 2222              	.LCFI40:
 2223              		.cfi_def_cfa_offset 8
 2224 00e6 BD46     		mov	sp, r7
 2225              	.LCFI41:
 2226              		.cfi_def_cfa_register 13
 2227              		@ sp needed
 2228 00e8 80BD     		pop	{r7, pc}
 2229              		.cfi_endproc
 2230              	.LFE10:
 2232              		.section	.text.mbedtls_md5_update,"ax",%progbits
 2233              		.align	1
 2234              		.global	mbedtls_md5_update
 2235              		.syntax unified
 2236              		.thumb
 2237              		.thumb_func
 2238              		.fpu fpv4-sp-d16
 2240              	mbedtls_md5_update:
 2241              	.LFB11:
 305:C:/Users/dtjld/workspace/AIoT/src/LiteOS_Lab/iot_link/network/dtls/mbedtls/mbedtls-2.16.2/library\md5.c **** 
 306:C:/Users/dtjld/workspace/AIoT/src/LiteOS_Lab/iot_link/network/dtls/mbedtls/mbedtls-2.16.2/library\md5.c **** #if !defined(MBEDTLS_DEPRECATED_REMOVED)
 307:C:/Users/dtjld/workspace/AIoT/src/LiteOS_Lab/iot_link/network/dtls/mbedtls/mbedtls-2.16.2/library\md5.c **** void mbedtls_md5_update( mbedtls_md5_context *ctx,
 308:C:/Users/dtjld/workspace/AIoT/src/LiteOS_Lab/iot_link/network/dtls/mbedtls/mbedtls-2.16.2/library\md5.c ****                          const unsigned char *input,
 309:C:/Users/dtjld/workspace/AIoT/src/LiteOS_Lab/iot_link/network/dtls/mbedtls/mbedtls-2.16.2/library\md5.c ****                          size_t ilen )
 310:C:/Users/dtjld/workspace/AIoT/src/LiteOS_Lab/iot_link/network/dtls/mbedtls/mbedtls-2.16.2/library\md5.c **** {
 2242              		.loc 1 310 0
 2243              		.cfi_startproc
 2244              		@ args = 0, pretend = 0, frame = 16
 2245              		@ frame_needed = 1, uses_anonymous_args = 0
 2246 0000 80B5     		push	{r7, lr}
 2247              	.LCFI42:
 2248              		.cfi_def_cfa_offset 8
 2249              		.cfi_offset 7, -8
 2250              		.cfi_offset 14, -4
 2251 0002 84B0     		sub	sp, sp, #16
 2252              	.LCFI43:
 2253              		.cfi_def_cfa_offset 24
 2254 0004 00AF     		add	r7, sp, #0
 2255              	.LCFI44:
 2256              		.cfi_def_cfa_register 7
 2257 0006 F860     		str	r0, [r7, #12]
 2258 0008 B960     		str	r1, [r7, #8]
 2259 000a 7A60     		str	r2, [r7, #4]
 311:C:/Users/dtjld/workspace/AIoT/src/LiteOS_Lab/iot_link/network/dtls/mbedtls/mbedtls-2.16.2/library\md5.c ****     mbedtls_md5_update_ret( ctx, input, ilen );
 2260              		.loc 1 311 0
 2261 000c 7A68     		ldr	r2, [r7, #4]
 2262 000e B968     		ldr	r1, [r7, #8]
 2263 0010 F868     		ldr	r0, [r7, #12]
 2264 0012 FFF7FEFF 		bl	mbedtls_md5_update_ret
 312:C:/Users/dtjld/workspace/AIoT/src/LiteOS_Lab/iot_link/network/dtls/mbedtls/mbedtls-2.16.2/library\md5.c **** }
 2265              		.loc 1 312 0
 2266 0016 00BF     		nop
 2267 0018 1037     		adds	r7, r7, #16
 2268              	.LCFI45:
ARM GAS  C:\Users\dtjld\AppData\Local\Temp\cccY4U5j.s 			page 46


 2269              		.cfi_def_cfa_offset 8
 2270 001a BD46     		mov	sp, r7
 2271              	.LCFI46:
 2272              		.cfi_def_cfa_register 13
 2273              		@ sp needed
 2274 001c 80BD     		pop	{r7, pc}
 2275              		.cfi_endproc
 2276              	.LFE11:
 2278              		.section	.text.mbedtls_md5_finish_ret,"ax",%progbits
 2279              		.align	1
 2280              		.global	mbedtls_md5_finish_ret
 2281              		.syntax unified
 2282              		.thumb
 2283              		.thumb_func
 2284              		.fpu fpv4-sp-d16
 2286              	mbedtls_md5_finish_ret:
 2287              	.LFB12:
 313:C:/Users/dtjld/workspace/AIoT/src/LiteOS_Lab/iot_link/network/dtls/mbedtls/mbedtls-2.16.2/library\md5.c **** #endif
 314:C:/Users/dtjld/workspace/AIoT/src/LiteOS_Lab/iot_link/network/dtls/mbedtls/mbedtls-2.16.2/library\md5.c **** 
 315:C:/Users/dtjld/workspace/AIoT/src/LiteOS_Lab/iot_link/network/dtls/mbedtls/mbedtls-2.16.2/library\md5.c **** /*
 316:C:/Users/dtjld/workspace/AIoT/src/LiteOS_Lab/iot_link/network/dtls/mbedtls/mbedtls-2.16.2/library\md5.c ****  * MD5 final digest
 317:C:/Users/dtjld/workspace/AIoT/src/LiteOS_Lab/iot_link/network/dtls/mbedtls/mbedtls-2.16.2/library\md5.c ****  */
 318:C:/Users/dtjld/workspace/AIoT/src/LiteOS_Lab/iot_link/network/dtls/mbedtls/mbedtls-2.16.2/library\md5.c **** int mbedtls_md5_finish_ret( mbedtls_md5_context *ctx,
 319:C:/Users/dtjld/workspace/AIoT/src/LiteOS_Lab/iot_link/network/dtls/mbedtls/mbedtls-2.16.2/library\md5.c ****                             unsigned char output[16] )
 320:C:/Users/dtjld/workspace/AIoT/src/LiteOS_Lab/iot_link/network/dtls/mbedtls/mbedtls-2.16.2/library\md5.c **** {
 2288              		.loc 1 320 0
 2289              		.cfi_startproc
 2290              		@ args = 0, pretend = 0, frame = 24
 2291              		@ frame_needed = 1, uses_anonymous_args = 0
 2292 0000 80B5     		push	{r7, lr}
 2293              	.LCFI47:
 2294              		.cfi_def_cfa_offset 8
 2295              		.cfi_offset 7, -8
 2296              		.cfi_offset 14, -4
 2297 0002 86B0     		sub	sp, sp, #24
 2298              	.LCFI48:
 2299              		.cfi_def_cfa_offset 32
 2300 0004 00AF     		add	r7, sp, #0
 2301              	.LCFI49:
 2302              		.cfi_def_cfa_register 7
 2303 0006 7860     		str	r0, [r7, #4]
 2304 0008 3960     		str	r1, [r7]
 321:C:/Users/dtjld/workspace/AIoT/src/LiteOS_Lab/iot_link/network/dtls/mbedtls/mbedtls-2.16.2/library\md5.c ****     int ret;
 322:C:/Users/dtjld/workspace/AIoT/src/LiteOS_Lab/iot_link/network/dtls/mbedtls/mbedtls-2.16.2/library\md5.c ****     uint32_t used;
 323:C:/Users/dtjld/workspace/AIoT/src/LiteOS_Lab/iot_link/network/dtls/mbedtls/mbedtls-2.16.2/library\md5.c ****     uint32_t high, low;
 324:C:/Users/dtjld/workspace/AIoT/src/LiteOS_Lab/iot_link/network/dtls/mbedtls/mbedtls-2.16.2/library\md5.c **** 
 325:C:/Users/dtjld/workspace/AIoT/src/LiteOS_Lab/iot_link/network/dtls/mbedtls/mbedtls-2.16.2/library\md5.c ****     /*
 326:C:/Users/dtjld/workspace/AIoT/src/LiteOS_Lab/iot_link/network/dtls/mbedtls/mbedtls-2.16.2/library\md5.c ****      * Add padding: 0x80 then 0x00 until 8 bytes remain for the length
 327:C:/Users/dtjld/workspace/AIoT/src/LiteOS_Lab/iot_link/network/dtls/mbedtls/mbedtls-2.16.2/library\md5.c ****      */
 328:C:/Users/dtjld/workspace/AIoT/src/LiteOS_Lab/iot_link/network/dtls/mbedtls/mbedtls-2.16.2/library\md5.c ****     used = ctx->total[0] & 0x3F;
 2305              		.loc 1 328 0
 2306 000a 7B68     		ldr	r3, [r7, #4]
 2307 000c 1B68     		ldr	r3, [r3]
 2308 000e 03F03F03 		and	r3, r3, #63
 2309 0012 7B61     		str	r3, [r7, #20]
 329:C:/Users/dtjld/workspace/AIoT/src/LiteOS_Lab/iot_link/network/dtls/mbedtls/mbedtls-2.16.2/library\md5.c **** 
 330:C:/Users/dtjld/workspace/AIoT/src/LiteOS_Lab/iot_link/network/dtls/mbedtls/mbedtls-2.16.2/library\md5.c ****     ctx->buffer[used++] = 0x80;
ARM GAS  C:\Users\dtjld\AppData\Local\Temp\cccY4U5j.s 			page 47


 2310              		.loc 1 330 0
 2311 0014 7B69     		ldr	r3, [r7, #20]
 2312 0016 5A1C     		adds	r2, r3, #1
 2313 0018 7A61     		str	r2, [r7, #20]
 2314 001a 7A68     		ldr	r2, [r7, #4]
 2315 001c 1344     		add	r3, r3, r2
 2316 001e 8022     		movs	r2, #128
 2317 0020 1A76     		strb	r2, [r3, #24]
 331:C:/Users/dtjld/workspace/AIoT/src/LiteOS_Lab/iot_link/network/dtls/mbedtls/mbedtls-2.16.2/library\md5.c **** 
 332:C:/Users/dtjld/workspace/AIoT/src/LiteOS_Lab/iot_link/network/dtls/mbedtls/mbedtls-2.16.2/library\md5.c ****     if( used <= 56 )
 2318              		.loc 1 332 0
 2319 0022 7B69     		ldr	r3, [r7, #20]
 2320 0024 382B     		cmp	r3, #56
 2321 0026 0CD8     		bhi	.L38
 333:C:/Users/dtjld/workspace/AIoT/src/LiteOS_Lab/iot_link/network/dtls/mbedtls/mbedtls-2.16.2/library\md5.c ****     {
 334:C:/Users/dtjld/workspace/AIoT/src/LiteOS_Lab/iot_link/network/dtls/mbedtls/mbedtls-2.16.2/library\md5.c ****         /* Enough room for padding + length in current block */
 335:C:/Users/dtjld/workspace/AIoT/src/LiteOS_Lab/iot_link/network/dtls/mbedtls/mbedtls-2.16.2/library\md5.c ****         memset( ctx->buffer + used, 0, 56 - used );
 2322              		.loc 1 335 0
 2323 0028 7B68     		ldr	r3, [r7, #4]
 2324 002a 03F11802 		add	r2, r3, #24
 2325 002e 7B69     		ldr	r3, [r7, #20]
 2326 0030 D018     		adds	r0, r2, r3
 2327 0032 7B69     		ldr	r3, [r7, #20]
 2328 0034 C3F13803 		rsb	r3, r3, #56
 2329 0038 1A46     		mov	r2, r3
 2330 003a 0021     		movs	r1, #0
 2331 003c FFF7FEFF 		bl	memset
 2332 0040 1EE0     		b	.L39
 2333              	.L38:
 336:C:/Users/dtjld/workspace/AIoT/src/LiteOS_Lab/iot_link/network/dtls/mbedtls/mbedtls-2.16.2/library\md5.c ****     }
 337:C:/Users/dtjld/workspace/AIoT/src/LiteOS_Lab/iot_link/network/dtls/mbedtls/mbedtls-2.16.2/library\md5.c ****     else
 338:C:/Users/dtjld/workspace/AIoT/src/LiteOS_Lab/iot_link/network/dtls/mbedtls/mbedtls-2.16.2/library\md5.c ****     {
 339:C:/Users/dtjld/workspace/AIoT/src/LiteOS_Lab/iot_link/network/dtls/mbedtls/mbedtls-2.16.2/library\md5.c ****         /* We'll need an extra block */
 340:C:/Users/dtjld/workspace/AIoT/src/LiteOS_Lab/iot_link/network/dtls/mbedtls/mbedtls-2.16.2/library\md5.c ****         memset( ctx->buffer + used, 0, 64 - used );
 2334              		.loc 1 340 0
 2335 0042 7B68     		ldr	r3, [r7, #4]
 2336 0044 03F11802 		add	r2, r3, #24
 2337 0048 7B69     		ldr	r3, [r7, #20]
 2338 004a D018     		adds	r0, r2, r3
 2339 004c 7B69     		ldr	r3, [r7, #20]
 2340 004e C3F14003 		rsb	r3, r3, #64
 2341 0052 1A46     		mov	r2, r3
 2342 0054 0021     		movs	r1, #0
 2343 0056 FFF7FEFF 		bl	memset
 341:C:/Users/dtjld/workspace/AIoT/src/LiteOS_Lab/iot_link/network/dtls/mbedtls/mbedtls-2.16.2/library\md5.c **** 
 342:C:/Users/dtjld/workspace/AIoT/src/LiteOS_Lab/iot_link/network/dtls/mbedtls/mbedtls-2.16.2/library\md5.c ****         if( ( ret = mbedtls_internal_md5_process( ctx, ctx->buffer ) ) != 0 )
 2344              		.loc 1 342 0
 2345 005a 7B68     		ldr	r3, [r7, #4]
 2346 005c 1833     		adds	r3, r3, #24
 2347 005e 1946     		mov	r1, r3
 2348 0060 7868     		ldr	r0, [r7, #4]
 2349 0062 FFF7FEFF 		bl	mbedtls_internal_md5_process
 2350 0066 3861     		str	r0, [r7, #16]
 2351 0068 3B69     		ldr	r3, [r7, #16]
 2352 006a 002B     		cmp	r3, #0
 2353 006c 01D0     		beq	.L40
 343:C:/Users/dtjld/workspace/AIoT/src/LiteOS_Lab/iot_link/network/dtls/mbedtls/mbedtls-2.16.2/library\md5.c ****             return( ret );
ARM GAS  C:\Users\dtjld\AppData\Local\Temp\cccY4U5j.s 			page 48


 2354              		.loc 1 343 0
 2355 006e 3B69     		ldr	r3, [r7, #16]
 2356 0070 B8E0     		b	.L41
 2357              	.L40:
 344:C:/Users/dtjld/workspace/AIoT/src/LiteOS_Lab/iot_link/network/dtls/mbedtls/mbedtls-2.16.2/library\md5.c **** 
 345:C:/Users/dtjld/workspace/AIoT/src/LiteOS_Lab/iot_link/network/dtls/mbedtls/mbedtls-2.16.2/library\md5.c ****         memset( ctx->buffer, 0, 56 );
 2358              		.loc 1 345 0
 2359 0072 7B68     		ldr	r3, [r7, #4]
 2360 0074 1833     		adds	r3, r3, #24
 2361 0076 3822     		movs	r2, #56
 2362 0078 0021     		movs	r1, #0
 2363 007a 1846     		mov	r0, r3
 2364 007c FFF7FEFF 		bl	memset
 2365              	.L39:
 346:C:/Users/dtjld/workspace/AIoT/src/LiteOS_Lab/iot_link/network/dtls/mbedtls/mbedtls-2.16.2/library\md5.c ****     }
 347:C:/Users/dtjld/workspace/AIoT/src/LiteOS_Lab/iot_link/network/dtls/mbedtls/mbedtls-2.16.2/library\md5.c **** 
 348:C:/Users/dtjld/workspace/AIoT/src/LiteOS_Lab/iot_link/network/dtls/mbedtls/mbedtls-2.16.2/library\md5.c ****     /*
 349:C:/Users/dtjld/workspace/AIoT/src/LiteOS_Lab/iot_link/network/dtls/mbedtls/mbedtls-2.16.2/library\md5.c ****      * Add message length
 350:C:/Users/dtjld/workspace/AIoT/src/LiteOS_Lab/iot_link/network/dtls/mbedtls/mbedtls-2.16.2/library\md5.c ****      */
 351:C:/Users/dtjld/workspace/AIoT/src/LiteOS_Lab/iot_link/network/dtls/mbedtls/mbedtls-2.16.2/library\md5.c ****     high = ( ctx->total[0] >> 29 )
 2366              		.loc 1 351 0
 2367 0080 7B68     		ldr	r3, [r7, #4]
 2368 0082 1B68     		ldr	r3, [r3]
 2369 0084 5A0F     		lsrs	r2, r3, #29
 352:C:/Users/dtjld/workspace/AIoT/src/LiteOS_Lab/iot_link/network/dtls/mbedtls/mbedtls-2.16.2/library\md5.c ****          | ( ctx->total[1] <<  3 );
 2370              		.loc 1 352 0
 2371 0086 7B68     		ldr	r3, [r7, #4]
 2372 0088 5B68     		ldr	r3, [r3, #4]
 2373 008a DB00     		lsls	r3, r3, #3
 351:C:/Users/dtjld/workspace/AIoT/src/LiteOS_Lab/iot_link/network/dtls/mbedtls/mbedtls-2.16.2/library\md5.c ****          | ( ctx->total[1] <<  3 );
 2374              		.loc 1 351 0
 2375 008c 1343     		orrs	r3, r3, r2
 2376 008e FB60     		str	r3, [r7, #12]
 353:C:/Users/dtjld/workspace/AIoT/src/LiteOS_Lab/iot_link/network/dtls/mbedtls/mbedtls-2.16.2/library\md5.c ****     low  = ( ctx->total[0] <<  3 );
 2377              		.loc 1 353 0
 2378 0090 7B68     		ldr	r3, [r7, #4]
 2379 0092 1B68     		ldr	r3, [r3]
 2380 0094 DB00     		lsls	r3, r3, #3
 2381 0096 BB60     		str	r3, [r7, #8]
 354:C:/Users/dtjld/workspace/AIoT/src/LiteOS_Lab/iot_link/network/dtls/mbedtls/mbedtls-2.16.2/library\md5.c **** 
 355:C:/Users/dtjld/workspace/AIoT/src/LiteOS_Lab/iot_link/network/dtls/mbedtls/mbedtls-2.16.2/library\md5.c ****     PUT_UINT32_LE( low,  ctx->buffer, 56 );
 2382              		.loc 1 355 0
 2383 0098 BB68     		ldr	r3, [r7, #8]
 2384 009a DAB2     		uxtb	r2, r3
 2385 009c 7B68     		ldr	r3, [r7, #4]
 2386 009e 83F85020 		strb	r2, [r3, #80]
 2387 00a2 BB68     		ldr	r3, [r7, #8]
 2388 00a4 1B0A     		lsrs	r3, r3, #8
 2389 00a6 DAB2     		uxtb	r2, r3
 2390 00a8 7B68     		ldr	r3, [r7, #4]
 2391 00aa 83F85120 		strb	r2, [r3, #81]
 2392 00ae BB68     		ldr	r3, [r7, #8]
 2393 00b0 1B0C     		lsrs	r3, r3, #16
 2394 00b2 DAB2     		uxtb	r2, r3
 2395 00b4 7B68     		ldr	r3, [r7, #4]
 2396 00b6 83F85220 		strb	r2, [r3, #82]
 2397 00ba BB68     		ldr	r3, [r7, #8]
ARM GAS  C:\Users\dtjld\AppData\Local\Temp\cccY4U5j.s 			page 49


 2398 00bc 1B0E     		lsrs	r3, r3, #24
 2399 00be DAB2     		uxtb	r2, r3
 2400 00c0 7B68     		ldr	r3, [r7, #4]
 2401 00c2 83F85320 		strb	r2, [r3, #83]
 356:C:/Users/dtjld/workspace/AIoT/src/LiteOS_Lab/iot_link/network/dtls/mbedtls/mbedtls-2.16.2/library\md5.c ****     PUT_UINT32_LE( high, ctx->buffer, 60 );
 2402              		.loc 1 356 0
 2403 00c6 FB68     		ldr	r3, [r7, #12]
 2404 00c8 DAB2     		uxtb	r2, r3
 2405 00ca 7B68     		ldr	r3, [r7, #4]
 2406 00cc 83F85420 		strb	r2, [r3, #84]
 2407 00d0 FB68     		ldr	r3, [r7, #12]
 2408 00d2 1B0A     		lsrs	r3, r3, #8
 2409 00d4 DAB2     		uxtb	r2, r3
 2410 00d6 7B68     		ldr	r3, [r7, #4]
 2411 00d8 83F85520 		strb	r2, [r3, #85]
 2412 00dc FB68     		ldr	r3, [r7, #12]
 2413 00de 1B0C     		lsrs	r3, r3, #16
 2414 00e0 DAB2     		uxtb	r2, r3
 2415 00e2 7B68     		ldr	r3, [r7, #4]
 2416 00e4 83F85620 		strb	r2, [r3, #86]
 2417 00e8 FB68     		ldr	r3, [r7, #12]
 2418 00ea 1B0E     		lsrs	r3, r3, #24
 2419 00ec DAB2     		uxtb	r2, r3
 2420 00ee 7B68     		ldr	r3, [r7, #4]
 2421 00f0 83F85720 		strb	r2, [r3, #87]
 357:C:/Users/dtjld/workspace/AIoT/src/LiteOS_Lab/iot_link/network/dtls/mbedtls/mbedtls-2.16.2/library\md5.c **** 
 358:C:/Users/dtjld/workspace/AIoT/src/LiteOS_Lab/iot_link/network/dtls/mbedtls/mbedtls-2.16.2/library\md5.c ****     if( ( ret = mbedtls_internal_md5_process( ctx, ctx->buffer ) ) != 0 )
 2422              		.loc 1 358 0
 2423 00f4 7B68     		ldr	r3, [r7, #4]
 2424 00f6 1833     		adds	r3, r3, #24
 2425 00f8 1946     		mov	r1, r3
 2426 00fa 7868     		ldr	r0, [r7, #4]
 2427 00fc FFF7FEFF 		bl	mbedtls_internal_md5_process
 2428 0100 3861     		str	r0, [r7, #16]
 2429 0102 3B69     		ldr	r3, [r7, #16]
 2430 0104 002B     		cmp	r3, #0
 2431 0106 01D0     		beq	.L42
 359:C:/Users/dtjld/workspace/AIoT/src/LiteOS_Lab/iot_link/network/dtls/mbedtls/mbedtls-2.16.2/library\md5.c ****         return( ret );
 2432              		.loc 1 359 0
 2433 0108 3B69     		ldr	r3, [r7, #16]
 2434 010a 6BE0     		b	.L41
 2435              	.L42:
 360:C:/Users/dtjld/workspace/AIoT/src/LiteOS_Lab/iot_link/network/dtls/mbedtls/mbedtls-2.16.2/library\md5.c **** 
 361:C:/Users/dtjld/workspace/AIoT/src/LiteOS_Lab/iot_link/network/dtls/mbedtls/mbedtls-2.16.2/library\md5.c ****     /*
 362:C:/Users/dtjld/workspace/AIoT/src/LiteOS_Lab/iot_link/network/dtls/mbedtls/mbedtls-2.16.2/library\md5.c ****      * Output final state
 363:C:/Users/dtjld/workspace/AIoT/src/LiteOS_Lab/iot_link/network/dtls/mbedtls/mbedtls-2.16.2/library\md5.c ****      */
 364:C:/Users/dtjld/workspace/AIoT/src/LiteOS_Lab/iot_link/network/dtls/mbedtls/mbedtls-2.16.2/library\md5.c ****     PUT_UINT32_LE( ctx->state[0], output,  0 );
 2436              		.loc 1 364 0
 2437 010c 7B68     		ldr	r3, [r7, #4]
 2438 010e 9B68     		ldr	r3, [r3, #8]
 2439 0110 DAB2     		uxtb	r2, r3
 2440 0112 3B68     		ldr	r3, [r7]
 2441 0114 1A70     		strb	r2, [r3]
 2442 0116 7B68     		ldr	r3, [r7, #4]
 2443 0118 9B68     		ldr	r3, [r3, #8]
 2444 011a 1A0A     		lsrs	r2, r3, #8
 2445 011c 3B68     		ldr	r3, [r7]
ARM GAS  C:\Users\dtjld\AppData\Local\Temp\cccY4U5j.s 			page 50


 2446 011e 0133     		adds	r3, r3, #1
 2447 0120 D2B2     		uxtb	r2, r2
 2448 0122 1A70     		strb	r2, [r3]
 2449 0124 7B68     		ldr	r3, [r7, #4]
 2450 0126 9B68     		ldr	r3, [r3, #8]
 2451 0128 1A0C     		lsrs	r2, r3, #16
 2452 012a 3B68     		ldr	r3, [r7]
 2453 012c 0233     		adds	r3, r3, #2
 2454 012e D2B2     		uxtb	r2, r2
 2455 0130 1A70     		strb	r2, [r3]
 2456 0132 7B68     		ldr	r3, [r7, #4]
 2457 0134 9B68     		ldr	r3, [r3, #8]
 2458 0136 1A0E     		lsrs	r2, r3, #24
 2459 0138 3B68     		ldr	r3, [r7]
 2460 013a 0333     		adds	r3, r3, #3
 2461 013c D2B2     		uxtb	r2, r2
 2462 013e 1A70     		strb	r2, [r3]
 365:C:/Users/dtjld/workspace/AIoT/src/LiteOS_Lab/iot_link/network/dtls/mbedtls/mbedtls-2.16.2/library\md5.c ****     PUT_UINT32_LE( ctx->state[1], output,  4 );
 2463              		.loc 1 365 0
 2464 0140 7B68     		ldr	r3, [r7, #4]
 2465 0142 DA68     		ldr	r2, [r3, #12]
 2466 0144 3B68     		ldr	r3, [r7]
 2467 0146 0433     		adds	r3, r3, #4
 2468 0148 D2B2     		uxtb	r2, r2
 2469 014a 1A70     		strb	r2, [r3]
 2470 014c 7B68     		ldr	r3, [r7, #4]
 2471 014e DB68     		ldr	r3, [r3, #12]
 2472 0150 1A0A     		lsrs	r2, r3, #8
 2473 0152 3B68     		ldr	r3, [r7]
 2474 0154 0533     		adds	r3, r3, #5
 2475 0156 D2B2     		uxtb	r2, r2
 2476 0158 1A70     		strb	r2, [r3]
 2477 015a 7B68     		ldr	r3, [r7, #4]
 2478 015c DB68     		ldr	r3, [r3, #12]
 2479 015e 1A0C     		lsrs	r2, r3, #16
 2480 0160 3B68     		ldr	r3, [r7]
 2481 0162 0633     		adds	r3, r3, #6
 2482 0164 D2B2     		uxtb	r2, r2
 2483 0166 1A70     		strb	r2, [r3]
 2484 0168 7B68     		ldr	r3, [r7, #4]
 2485 016a DB68     		ldr	r3, [r3, #12]
 2486 016c 1A0E     		lsrs	r2, r3, #24
 2487 016e 3B68     		ldr	r3, [r7]
 2488 0170 0733     		adds	r3, r3, #7
 2489 0172 D2B2     		uxtb	r2, r2
 2490 0174 1A70     		strb	r2, [r3]
 366:C:/Users/dtjld/workspace/AIoT/src/LiteOS_Lab/iot_link/network/dtls/mbedtls/mbedtls-2.16.2/library\md5.c ****     PUT_UINT32_LE( ctx->state[2], output,  8 );
 2491              		.loc 1 366 0
 2492 0176 7B68     		ldr	r3, [r7, #4]
 2493 0178 1A69     		ldr	r2, [r3, #16]
 2494 017a 3B68     		ldr	r3, [r7]
 2495 017c 0833     		adds	r3, r3, #8
 2496 017e D2B2     		uxtb	r2, r2
 2497 0180 1A70     		strb	r2, [r3]
 2498 0182 7B68     		ldr	r3, [r7, #4]
 2499 0184 1B69     		ldr	r3, [r3, #16]
 2500 0186 1A0A     		lsrs	r2, r3, #8
ARM GAS  C:\Users\dtjld\AppData\Local\Temp\cccY4U5j.s 			page 51


 2501 0188 3B68     		ldr	r3, [r7]
 2502 018a 0933     		adds	r3, r3, #9
 2503 018c D2B2     		uxtb	r2, r2
 2504 018e 1A70     		strb	r2, [r3]
 2505 0190 7B68     		ldr	r3, [r7, #4]
 2506 0192 1B69     		ldr	r3, [r3, #16]
 2507 0194 1A0C     		lsrs	r2, r3, #16
 2508 0196 3B68     		ldr	r3, [r7]
 2509 0198 0A33     		adds	r3, r3, #10
 2510 019a D2B2     		uxtb	r2, r2
 2511 019c 1A70     		strb	r2, [r3]
 2512 019e 7B68     		ldr	r3, [r7, #4]
 2513 01a0 1B69     		ldr	r3, [r3, #16]
 2514 01a2 1A0E     		lsrs	r2, r3, #24
 2515 01a4 3B68     		ldr	r3, [r7]
 2516 01a6 0B33     		adds	r3, r3, #11
 2517 01a8 D2B2     		uxtb	r2, r2
 2518 01aa 1A70     		strb	r2, [r3]
 367:C:/Users/dtjld/workspace/AIoT/src/LiteOS_Lab/iot_link/network/dtls/mbedtls/mbedtls-2.16.2/library\md5.c ****     PUT_UINT32_LE( ctx->state[3], output, 12 );
 2519              		.loc 1 367 0
 2520 01ac 7B68     		ldr	r3, [r7, #4]
 2521 01ae 5A69     		ldr	r2, [r3, #20]
 2522 01b0 3B68     		ldr	r3, [r7]
 2523 01b2 0C33     		adds	r3, r3, #12
 2524 01b4 D2B2     		uxtb	r2, r2
 2525 01b6 1A70     		strb	r2, [r3]
 2526 01b8 7B68     		ldr	r3, [r7, #4]
 2527 01ba 5B69     		ldr	r3, [r3, #20]
 2528 01bc 1A0A     		lsrs	r2, r3, #8
 2529 01be 3B68     		ldr	r3, [r7]
 2530 01c0 0D33     		adds	r3, r3, #13
 2531 01c2 D2B2     		uxtb	r2, r2
 2532 01c4 1A70     		strb	r2, [r3]
 2533 01c6 7B68     		ldr	r3, [r7, #4]
 2534 01c8 5B69     		ldr	r3, [r3, #20]
 2535 01ca 1A0C     		lsrs	r2, r3, #16
 2536 01cc 3B68     		ldr	r3, [r7]
 2537 01ce 0E33     		adds	r3, r3, #14
 2538 01d0 D2B2     		uxtb	r2, r2
 2539 01d2 1A70     		strb	r2, [r3]
 2540 01d4 7B68     		ldr	r3, [r7, #4]
 2541 01d6 5B69     		ldr	r3, [r3, #20]
 2542 01d8 1A0E     		lsrs	r2, r3, #24
 2543 01da 3B68     		ldr	r3, [r7]
 2544 01dc 0F33     		adds	r3, r3, #15
 2545 01de D2B2     		uxtb	r2, r2
 2546 01e0 1A70     		strb	r2, [r3]
 368:C:/Users/dtjld/workspace/AIoT/src/LiteOS_Lab/iot_link/network/dtls/mbedtls/mbedtls-2.16.2/library\md5.c **** 
 369:C:/Users/dtjld/workspace/AIoT/src/LiteOS_Lab/iot_link/network/dtls/mbedtls/mbedtls-2.16.2/library\md5.c ****     return( 0 );
 2547              		.loc 1 369 0
 2548 01e2 0023     		movs	r3, #0
 2549              	.L41:
 370:C:/Users/dtjld/workspace/AIoT/src/LiteOS_Lab/iot_link/network/dtls/mbedtls/mbedtls-2.16.2/library\md5.c **** }
 2550              		.loc 1 370 0
 2551 01e4 1846     		mov	r0, r3
 2552 01e6 1837     		adds	r7, r7, #24
 2553              	.LCFI50:
ARM GAS  C:\Users\dtjld\AppData\Local\Temp\cccY4U5j.s 			page 52


 2554              		.cfi_def_cfa_offset 8
 2555 01e8 BD46     		mov	sp, r7
 2556              	.LCFI51:
 2557              		.cfi_def_cfa_register 13
 2558              		@ sp needed
 2559 01ea 80BD     		pop	{r7, pc}
 2560              		.cfi_endproc
 2561              	.LFE12:
 2563              		.section	.text.mbedtls_md5_finish,"ax",%progbits
 2564              		.align	1
 2565              		.global	mbedtls_md5_finish
 2566              		.syntax unified
 2567              		.thumb
 2568              		.thumb_func
 2569              		.fpu fpv4-sp-d16
 2571              	mbedtls_md5_finish:
 2572              	.LFB13:
 371:C:/Users/dtjld/workspace/AIoT/src/LiteOS_Lab/iot_link/network/dtls/mbedtls/mbedtls-2.16.2/library\md5.c **** 
 372:C:/Users/dtjld/workspace/AIoT/src/LiteOS_Lab/iot_link/network/dtls/mbedtls/mbedtls-2.16.2/library\md5.c **** #if !defined(MBEDTLS_DEPRECATED_REMOVED)
 373:C:/Users/dtjld/workspace/AIoT/src/LiteOS_Lab/iot_link/network/dtls/mbedtls/mbedtls-2.16.2/library\md5.c **** void mbedtls_md5_finish( mbedtls_md5_context *ctx,
 374:C:/Users/dtjld/workspace/AIoT/src/LiteOS_Lab/iot_link/network/dtls/mbedtls/mbedtls-2.16.2/library\md5.c ****                          unsigned char output[16] )
 375:C:/Users/dtjld/workspace/AIoT/src/LiteOS_Lab/iot_link/network/dtls/mbedtls/mbedtls-2.16.2/library\md5.c **** {
 2573              		.loc 1 375 0
 2574              		.cfi_startproc
 2575              		@ args = 0, pretend = 0, frame = 8
 2576              		@ frame_needed = 1, uses_anonymous_args = 0
 2577 0000 80B5     		push	{r7, lr}
 2578              	.LCFI52:
 2579              		.cfi_def_cfa_offset 8
 2580              		.cfi_offset 7, -8
 2581              		.cfi_offset 14, -4
 2582 0002 82B0     		sub	sp, sp, #8
 2583              	.LCFI53:
 2584              		.cfi_def_cfa_offset 16
 2585 0004 00AF     		add	r7, sp, #0
 2586              	.LCFI54:
 2587              		.cfi_def_cfa_register 7
 2588 0006 7860     		str	r0, [r7, #4]
 2589 0008 3960     		str	r1, [r7]
 376:C:/Users/dtjld/workspace/AIoT/src/LiteOS_Lab/iot_link/network/dtls/mbedtls/mbedtls-2.16.2/library\md5.c ****     mbedtls_md5_finish_ret( ctx, output );
 2590              		.loc 1 376 0
 2591 000a 3968     		ldr	r1, [r7]
 2592 000c 7868     		ldr	r0, [r7, #4]
 2593 000e FFF7FEFF 		bl	mbedtls_md5_finish_ret
 377:C:/Users/dtjld/workspace/AIoT/src/LiteOS_Lab/iot_link/network/dtls/mbedtls/mbedtls-2.16.2/library\md5.c **** }
 2594              		.loc 1 377 0
 2595 0012 00BF     		nop
 2596 0014 0837     		adds	r7, r7, #8
 2597              	.LCFI55:
 2598              		.cfi_def_cfa_offset 8
 2599 0016 BD46     		mov	sp, r7
 2600              	.LCFI56:
 2601              		.cfi_def_cfa_register 13
 2602              		@ sp needed
 2603 0018 80BD     		pop	{r7, pc}
 2604              		.cfi_endproc
 2605              	.LFE13:
ARM GAS  C:\Users\dtjld\AppData\Local\Temp\cccY4U5j.s 			page 53


 2607              		.section	.text.mbedtls_md5_ret,"ax",%progbits
 2608              		.align	1
 2609              		.global	mbedtls_md5_ret
 2610              		.syntax unified
 2611              		.thumb
 2612              		.thumb_func
 2613              		.fpu fpv4-sp-d16
 2615              	mbedtls_md5_ret:
 2616              	.LFB14:
 378:C:/Users/dtjld/workspace/AIoT/src/LiteOS_Lab/iot_link/network/dtls/mbedtls/mbedtls-2.16.2/library\md5.c **** #endif
 379:C:/Users/dtjld/workspace/AIoT/src/LiteOS_Lab/iot_link/network/dtls/mbedtls/mbedtls-2.16.2/library\md5.c **** 
 380:C:/Users/dtjld/workspace/AIoT/src/LiteOS_Lab/iot_link/network/dtls/mbedtls/mbedtls-2.16.2/library\md5.c **** #endif /* !MBEDTLS_MD5_ALT */
 381:C:/Users/dtjld/workspace/AIoT/src/LiteOS_Lab/iot_link/network/dtls/mbedtls/mbedtls-2.16.2/library\md5.c **** 
 382:C:/Users/dtjld/workspace/AIoT/src/LiteOS_Lab/iot_link/network/dtls/mbedtls/mbedtls-2.16.2/library\md5.c **** /*
 383:C:/Users/dtjld/workspace/AIoT/src/LiteOS_Lab/iot_link/network/dtls/mbedtls/mbedtls-2.16.2/library\md5.c ****  * output = MD5( input buffer )
 384:C:/Users/dtjld/workspace/AIoT/src/LiteOS_Lab/iot_link/network/dtls/mbedtls/mbedtls-2.16.2/library\md5.c ****  */
 385:C:/Users/dtjld/workspace/AIoT/src/LiteOS_Lab/iot_link/network/dtls/mbedtls/mbedtls-2.16.2/library\md5.c **** int mbedtls_md5_ret( const unsigned char *input,
 386:C:/Users/dtjld/workspace/AIoT/src/LiteOS_Lab/iot_link/network/dtls/mbedtls/mbedtls-2.16.2/library\md5.c ****                      size_t ilen,
 387:C:/Users/dtjld/workspace/AIoT/src/LiteOS_Lab/iot_link/network/dtls/mbedtls/mbedtls-2.16.2/library\md5.c ****                      unsigned char output[16] )
 388:C:/Users/dtjld/workspace/AIoT/src/LiteOS_Lab/iot_link/network/dtls/mbedtls/mbedtls-2.16.2/library\md5.c **** {
 2617              		.loc 1 388 0
 2618              		.cfi_startproc
 2619              		@ args = 0, pretend = 0, frame = 112
 2620              		@ frame_needed = 1, uses_anonymous_args = 0
 2621 0000 80B5     		push	{r7, lr}
 2622              	.LCFI57:
 2623              		.cfi_def_cfa_offset 8
 2624              		.cfi_offset 7, -8
 2625              		.cfi_offset 14, -4
 2626 0002 9CB0     		sub	sp, sp, #112
 2627              	.LCFI58:
 2628              		.cfi_def_cfa_offset 120
 2629 0004 00AF     		add	r7, sp, #0
 2630              	.LCFI59:
 2631              		.cfi_def_cfa_register 7
 2632 0006 F860     		str	r0, [r7, #12]
 2633 0008 B960     		str	r1, [r7, #8]
 2634 000a 7A60     		str	r2, [r7, #4]
 389:C:/Users/dtjld/workspace/AIoT/src/LiteOS_Lab/iot_link/network/dtls/mbedtls/mbedtls-2.16.2/library\md5.c ****     int ret;
 390:C:/Users/dtjld/workspace/AIoT/src/LiteOS_Lab/iot_link/network/dtls/mbedtls/mbedtls-2.16.2/library\md5.c ****     mbedtls_md5_context ctx;
 391:C:/Users/dtjld/workspace/AIoT/src/LiteOS_Lab/iot_link/network/dtls/mbedtls/mbedtls-2.16.2/library\md5.c **** 
 392:C:/Users/dtjld/workspace/AIoT/src/LiteOS_Lab/iot_link/network/dtls/mbedtls/mbedtls-2.16.2/library\md5.c ****     mbedtls_md5_init( &ctx );
 2635              		.loc 1 392 0
 2636 000c 07F11403 		add	r3, r7, #20
 2637 0010 1846     		mov	r0, r3
 2638 0012 FFF7FEFF 		bl	mbedtls_md5_init
 393:C:/Users/dtjld/workspace/AIoT/src/LiteOS_Lab/iot_link/network/dtls/mbedtls/mbedtls-2.16.2/library\md5.c **** 
 394:C:/Users/dtjld/workspace/AIoT/src/LiteOS_Lab/iot_link/network/dtls/mbedtls/mbedtls-2.16.2/library\md5.c ****     if( ( ret = mbedtls_md5_starts_ret( &ctx ) ) != 0 )
 2639              		.loc 1 394 0
 2640 0016 07F11403 		add	r3, r7, #20
 2641 001a 1846     		mov	r0, r3
 2642 001c FFF7FEFF 		bl	mbedtls_md5_starts_ret
 2643 0020 F866     		str	r0, [r7, #108]
 2644 0022 FB6E     		ldr	r3, [r7, #108]
 2645 0024 002B     		cmp	r3, #0
 2646 0026 14D1     		bne	.L49
 395:C:/Users/dtjld/workspace/AIoT/src/LiteOS_Lab/iot_link/network/dtls/mbedtls/mbedtls-2.16.2/library\md5.c ****         goto exit;
ARM GAS  C:\Users\dtjld\AppData\Local\Temp\cccY4U5j.s 			page 54


 396:C:/Users/dtjld/workspace/AIoT/src/LiteOS_Lab/iot_link/network/dtls/mbedtls/mbedtls-2.16.2/library\md5.c **** 
 397:C:/Users/dtjld/workspace/AIoT/src/LiteOS_Lab/iot_link/network/dtls/mbedtls/mbedtls-2.16.2/library\md5.c ****     if( ( ret = mbedtls_md5_update_ret( &ctx, input, ilen ) ) != 0 )
 2647              		.loc 1 397 0
 2648 0028 07F11403 		add	r3, r7, #20
 2649 002c BA68     		ldr	r2, [r7, #8]
 2650 002e F968     		ldr	r1, [r7, #12]
 2651 0030 1846     		mov	r0, r3
 2652 0032 FFF7FEFF 		bl	mbedtls_md5_update_ret
 2653 0036 F866     		str	r0, [r7, #108]
 2654 0038 FB6E     		ldr	r3, [r7, #108]
 2655 003a 002B     		cmp	r3, #0
 2656 003c 0BD1     		bne	.L50
 398:C:/Users/dtjld/workspace/AIoT/src/LiteOS_Lab/iot_link/network/dtls/mbedtls/mbedtls-2.16.2/library\md5.c ****         goto exit;
 399:C:/Users/dtjld/workspace/AIoT/src/LiteOS_Lab/iot_link/network/dtls/mbedtls/mbedtls-2.16.2/library\md5.c **** 
 400:C:/Users/dtjld/workspace/AIoT/src/LiteOS_Lab/iot_link/network/dtls/mbedtls/mbedtls-2.16.2/library\md5.c ****     if( ( ret = mbedtls_md5_finish_ret( &ctx, output ) ) != 0 )
 2657              		.loc 1 400 0
 2658 003e 07F11403 		add	r3, r7, #20
 2659 0042 7968     		ldr	r1, [r7, #4]
 2660 0044 1846     		mov	r0, r3
 2661 0046 FFF7FEFF 		bl	mbedtls_md5_finish_ret
 2662 004a F866     		str	r0, [r7, #108]
 2663 004c FB6E     		ldr	r3, [r7, #108]
 2664 004e 002B     		cmp	r3, #0
 401:C:/Users/dtjld/workspace/AIoT/src/LiteOS_Lab/iot_link/network/dtls/mbedtls/mbedtls-2.16.2/library\md5.c ****         goto exit;
 402:C:/Users/dtjld/workspace/AIoT/src/LiteOS_Lab/iot_link/network/dtls/mbedtls/mbedtls-2.16.2/library\md5.c **** 
 403:C:/Users/dtjld/workspace/AIoT/src/LiteOS_Lab/iot_link/network/dtls/mbedtls/mbedtls-2.16.2/library\md5.c **** exit:
 2665              		.loc 1 403 0
 2666 0050 02E0     		b	.L46
 2667              	.L49:
 395:C:/Users/dtjld/workspace/AIoT/src/LiteOS_Lab/iot_link/network/dtls/mbedtls/mbedtls-2.16.2/library\md5.c **** 
 2668              		.loc 1 395 0
 2669 0052 00BF     		nop
 2670 0054 00E0     		b	.L46
 2671              	.L50:
 398:C:/Users/dtjld/workspace/AIoT/src/LiteOS_Lab/iot_link/network/dtls/mbedtls/mbedtls-2.16.2/library\md5.c ****         goto exit;
 2672              		.loc 1 398 0
 2673 0056 00BF     		nop
 2674              	.L46:
 404:C:/Users/dtjld/workspace/AIoT/src/LiteOS_Lab/iot_link/network/dtls/mbedtls/mbedtls-2.16.2/library\md5.c ****     mbedtls_md5_free( &ctx );
 2675              		.loc 1 404 0
 2676 0058 07F11403 		add	r3, r7, #20
 2677 005c 1846     		mov	r0, r3
 2678 005e FFF7FEFF 		bl	mbedtls_md5_free
 405:C:/Users/dtjld/workspace/AIoT/src/LiteOS_Lab/iot_link/network/dtls/mbedtls/mbedtls-2.16.2/library\md5.c **** 
 406:C:/Users/dtjld/workspace/AIoT/src/LiteOS_Lab/iot_link/network/dtls/mbedtls/mbedtls-2.16.2/library\md5.c ****     return( ret );
 2679              		.loc 1 406 0
 2680 0062 FB6E     		ldr	r3, [r7, #108]
 407:C:/Users/dtjld/workspace/AIoT/src/LiteOS_Lab/iot_link/network/dtls/mbedtls/mbedtls-2.16.2/library\md5.c **** }
 2681              		.loc 1 407 0
 2682 0064 1846     		mov	r0, r3
 2683 0066 7037     		adds	r7, r7, #112
 2684              	.LCFI60:
 2685              		.cfi_def_cfa_offset 8
 2686 0068 BD46     		mov	sp, r7
 2687              	.LCFI61:
 2688              		.cfi_def_cfa_register 13
 2689              		@ sp needed
ARM GAS  C:\Users\dtjld\AppData\Local\Temp\cccY4U5j.s 			page 55


 2690 006a 80BD     		pop	{r7, pc}
 2691              		.cfi_endproc
 2692              	.LFE14:
 2694              		.section	.text.mbedtls_md5,"ax",%progbits
 2695              		.align	1
 2696              		.global	mbedtls_md5
 2697              		.syntax unified
 2698              		.thumb
 2699              		.thumb_func
 2700              		.fpu fpv4-sp-d16
 2702              	mbedtls_md5:
 2703              	.LFB15:
 408:C:/Users/dtjld/workspace/AIoT/src/LiteOS_Lab/iot_link/network/dtls/mbedtls/mbedtls-2.16.2/library\md5.c **** 
 409:C:/Users/dtjld/workspace/AIoT/src/LiteOS_Lab/iot_link/network/dtls/mbedtls/mbedtls-2.16.2/library\md5.c **** #if !defined(MBEDTLS_DEPRECATED_REMOVED)
 410:C:/Users/dtjld/workspace/AIoT/src/LiteOS_Lab/iot_link/network/dtls/mbedtls/mbedtls-2.16.2/library\md5.c **** void mbedtls_md5( const unsigned char *input,
 411:C:/Users/dtjld/workspace/AIoT/src/LiteOS_Lab/iot_link/network/dtls/mbedtls/mbedtls-2.16.2/library\md5.c ****                   size_t ilen,
 412:C:/Users/dtjld/workspace/AIoT/src/LiteOS_Lab/iot_link/network/dtls/mbedtls/mbedtls-2.16.2/library\md5.c ****                   unsigned char output[16] )
 413:C:/Users/dtjld/workspace/AIoT/src/LiteOS_Lab/iot_link/network/dtls/mbedtls/mbedtls-2.16.2/library\md5.c **** {
 2704              		.loc 1 413 0
 2705              		.cfi_startproc
 2706              		@ args = 0, pretend = 0, frame = 16
 2707              		@ frame_needed = 1, uses_anonymous_args = 0
 2708 0000 80B5     		push	{r7, lr}
 2709              	.LCFI62:
 2710              		.cfi_def_cfa_offset 8
 2711              		.cfi_offset 7, -8
 2712              		.cfi_offset 14, -4
 2713 0002 84B0     		sub	sp, sp, #16
 2714              	.LCFI63:
 2715              		.cfi_def_cfa_offset 24
 2716 0004 00AF     		add	r7, sp, #0
 2717              	.LCFI64:
 2718              		.cfi_def_cfa_register 7
 2719 0006 F860     		str	r0, [r7, #12]
 2720 0008 B960     		str	r1, [r7, #8]
 2721 000a 7A60     		str	r2, [r7, #4]
 414:C:/Users/dtjld/workspace/AIoT/src/LiteOS_Lab/iot_link/network/dtls/mbedtls/mbedtls-2.16.2/library\md5.c ****     mbedtls_md5_ret( input, ilen, output );
 2722              		.loc 1 414 0
 2723 000c 7A68     		ldr	r2, [r7, #4]
 2724 000e B968     		ldr	r1, [r7, #8]
 2725 0010 F868     		ldr	r0, [r7, #12]
 2726 0012 FFF7FEFF 		bl	mbedtls_md5_ret
 415:C:/Users/dtjld/workspace/AIoT/src/LiteOS_Lab/iot_link/network/dtls/mbedtls/mbedtls-2.16.2/library\md5.c **** }
 2727              		.loc 1 415 0
 2728 0016 00BF     		nop
 2729 0018 1037     		adds	r7, r7, #16
 2730              	.LCFI65:
 2731              		.cfi_def_cfa_offset 8
 2732 001a BD46     		mov	sp, r7
 2733              	.LCFI66:
 2734              		.cfi_def_cfa_register 13
 2735              		@ sp needed
 2736 001c 80BD     		pop	{r7, pc}
 2737              		.cfi_endproc
 2738              	.LFE15:
 2740              		.section	.rodata.md5_test_buf,"a",%progbits
 2741              		.align	2
ARM GAS  C:\Users\dtjld\AppData\Local\Temp\cccY4U5j.s 			page 56


 2744              	md5_test_buf:
 2745 0000 00       		.ascii	"\000"
 2746 0001 00000000 		.space	80
 2746      00000000 
 2746      00000000 
 2746      00000000 
 2746      00000000 
 2747 0051 6100     		.ascii	"a\000"
 2748 0053 00000000 		.space	79
 2748      00000000 
 2748      00000000 
 2748      00000000 
 2748      00000000 
 2749 00a2 61626300 		.ascii	"abc\000"
 2750 00a6 00000000 		.space	77
 2750      00000000 
 2750      00000000 
 2750      00000000 
 2750      00000000 
 2751 00f3 6D657373 		.ascii	"message digest\000"
 2751      61676520 
 2751      64696765 
 2751      737400
 2752 0102 00000000 		.space	66
 2752      00000000 
 2752      00000000 
 2752      00000000 
 2752      00000000 
 2753 0144 61626364 		.ascii	"abcdefghijklmnopqrstuvwxyz\000"
 2753      65666768 
 2753      696A6B6C 
 2753      6D6E6F70 
 2753      71727374 
 2754 015f 00000000 		.space	54
 2754      00000000 
 2754      00000000 
 2754      00000000 
 2754      00000000 
 2755 0195 41424344 		.ascii	"ABCDEFGHIJKLMNOPQRSTUVWXYZabcdefghijklmnopqrstuvwxy"
 2755      45464748 
 2755      494A4B4C 
 2755      4D4E4F50 
 2755      51525354 
 2756 01c8 7A303132 		.ascii	"z0123456789\000"
 2756      33343536 
 2756      37383900 
 2757 01d4 00000000 		.space	18
 2757      00000000 
 2757      00000000 
 2757      00000000 
 2757      0000
 2758 01e6 31323334 		.ascii	"123456789012345678901234567890123456789012345678901"
 2758      35363738 
 2758      39303132 
 2758      33343536 
 2758      37383930 
 2759 0219 32333435 		.ascii	"23456789012345678901234567890\000"
ARM GAS  C:\Users\dtjld\AppData\Local\Temp\cccY4U5j.s 			page 57


 2759      36373839 
 2759      30313233 
 2759      34353637 
 2759      38393031 
 2760              		.section	.rodata.md5_test_buflen,"a",%progbits
 2761              		.align	2
 2764              	md5_test_buflen:
 2765 0000 00000000 		.word	0
 2766 0004 01000000 		.word	1
 2767 0008 03000000 		.word	3
 2768 000c 0E000000 		.word	14
 2769 0010 1A000000 		.word	26
 2770 0014 3E000000 		.word	62
 2771 0018 50000000 		.word	80
 2772              		.section	.rodata.md5_test_sum,"a",%progbits
 2773              		.align	2
 2776              	md5_test_sum:
 2777 0000 D4       		.byte	-44
 2778 0001 1D       		.byte	29
 2779 0002 8C       		.byte	-116
 2780 0003 D9       		.byte	-39
 2781 0004 8F       		.byte	-113
 2782 0005 00       		.byte	0
 2783 0006 B2       		.byte	-78
 2784 0007 04       		.byte	4
 2785 0008 E9       		.byte	-23
 2786 0009 80       		.byte	-128
 2787 000a 09       		.byte	9
 2788 000b 98       		.byte	-104
 2789 000c EC       		.byte	-20
 2790 000d F8       		.byte	-8
 2791 000e 42       		.byte	66
 2792 000f 7E       		.byte	126
 2793 0010 0C       		.byte	12
 2794 0011 C1       		.byte	-63
 2795 0012 75       		.byte	117
 2796 0013 B9       		.byte	-71
 2797 0014 C0       		.byte	-64
 2798 0015 F1       		.byte	-15
 2799 0016 B6       		.byte	-74
 2800 0017 A8       		.byte	-88
 2801 0018 31       		.byte	49
 2802 0019 C3       		.byte	-61
 2803 001a 99       		.byte	-103
 2804 001b E2       		.byte	-30
 2805 001c 69       		.byte	105
 2806 001d 77       		.byte	119
 2807 001e 26       		.byte	38
 2808 001f 61       		.byte	97
 2809 0020 90       		.byte	-112
 2810 0021 01       		.byte	1
 2811 0022 50       		.byte	80
 2812 0023 98       		.byte	-104
 2813 0024 3C       		.byte	60
 2814 0025 D2       		.byte	-46
 2815 0026 4F       		.byte	79
 2816 0027 B0       		.byte	-80
ARM GAS  C:\Users\dtjld\AppData\Local\Temp\cccY4U5j.s 			page 58


 2817 0028 D6       		.byte	-42
 2818 0029 96       		.byte	-106
 2819 002a 3F       		.byte	63
 2820 002b 7D       		.byte	125
 2821 002c 28       		.byte	40
 2822 002d E1       		.byte	-31
 2823 002e 7F       		.byte	127
 2824 002f 72       		.byte	114
 2825 0030 F9       		.byte	-7
 2826 0031 6B       		.byte	107
 2827 0032 69       		.byte	105
 2828 0033 7D       		.byte	125
 2829 0034 7C       		.byte	124
 2830 0035 B7       		.byte	-73
 2831 0036 93       		.byte	-109
 2832 0037 8D       		.byte	-115
 2833 0038 52       		.byte	82
 2834 0039 5A       		.byte	90
 2835 003a 2F       		.byte	47
 2836 003b 31       		.byte	49
 2837 003c AA       		.byte	-86
 2838 003d F1       		.byte	-15
 2839 003e 61       		.byte	97
 2840 003f D0       		.byte	-48
 2841 0040 C3       		.byte	-61
 2842 0041 FC       		.byte	-4
 2843 0042 D3       		.byte	-45
 2844 0043 D7       		.byte	-41
 2845 0044 61       		.byte	97
 2846 0045 92       		.byte	-110
 2847 0046 E4       		.byte	-28
 2848 0047 00       		.byte	0
 2849 0048 7D       		.byte	125
 2850 0049 FB       		.byte	-5
 2851 004a 49       		.byte	73
 2852 004b 6C       		.byte	108
 2853 004c CA       		.byte	-54
 2854 004d 67       		.byte	103
 2855 004e E1       		.byte	-31
 2856 004f 3B       		.byte	59
 2857 0050 D1       		.byte	-47
 2858 0051 74       		.byte	116
 2859 0052 AB       		.byte	-85
 2860 0053 98       		.byte	-104
 2861 0054 D2       		.byte	-46
 2862 0055 77       		.byte	119
 2863 0056 D9       		.byte	-39
 2864 0057 F5       		.byte	-11
 2865 0058 A5       		.byte	-91
 2866 0059 61       		.byte	97
 2867 005a 1C       		.byte	28
 2868 005b 2C       		.byte	44
 2869 005c 9F       		.byte	-97
 2870 005d 41       		.byte	65
 2871 005e 9D       		.byte	-99
 2872 005f 9F       		.byte	-97
 2873 0060 57       		.byte	87
ARM GAS  C:\Users\dtjld\AppData\Local\Temp\cccY4U5j.s 			page 59


 2874 0061 ED       		.byte	-19
 2875 0062 F4       		.byte	-12
 2876 0063 A2       		.byte	-94
 2877 0064 2B       		.byte	43
 2878 0065 E3       		.byte	-29
 2879 0066 C9       		.byte	-55
 2880 0067 55       		.byte	85
 2881 0068 AC       		.byte	-84
 2882 0069 49       		.byte	73
 2883 006a DA       		.byte	-38
 2884 006b 2E       		.byte	46
 2885 006c 21       		.byte	33
 2886 006d 07       		.byte	7
 2887 006e B6       		.byte	-74
 2888 006f 7A       		.byte	122
 2889              		.section	.rodata
 2890              		.align	2
 2891              	.LC0:
 2892 0000 20204D44 		.ascii	"  MD5 test #%d: \000"
 2892      35207465 
 2892      73742023 
 2892      25643A20 
 2892      00
 2893 0011 000000   		.align	2
 2894              	.LC1:
 2895 0014 70617373 		.ascii	"passed\012\000"
 2895      65640A00 
 2896              		.align	2
 2897              	.LC2:
 2898 001c 0A00     		.ascii	"\012\000"
 2899 001e 0000     		.align	2
 2900              	.LC3:
 2901 0020 6661696C 		.ascii	"failed\012\000"
 2901      65640A00 
 2902              		.section	.text.mbedtls_md5_self_test,"ax",%progbits
 2903              		.align	1
 2904              		.global	mbedtls_md5_self_test
 2905              		.syntax unified
 2906              		.thumb
 2907              		.thumb_func
 2908              		.fpu fpv4-sp-d16
 2910              	mbedtls_md5_self_test:
 2911              	.LFB16:
 416:C:/Users/dtjld/workspace/AIoT/src/LiteOS_Lab/iot_link/network/dtls/mbedtls/mbedtls-2.16.2/library\md5.c **** #endif
 417:C:/Users/dtjld/workspace/AIoT/src/LiteOS_Lab/iot_link/network/dtls/mbedtls/mbedtls-2.16.2/library\md5.c **** 
 418:C:/Users/dtjld/workspace/AIoT/src/LiteOS_Lab/iot_link/network/dtls/mbedtls/mbedtls-2.16.2/library\md5.c **** #if defined(MBEDTLS_SELF_TEST)
 419:C:/Users/dtjld/workspace/AIoT/src/LiteOS_Lab/iot_link/network/dtls/mbedtls/mbedtls-2.16.2/library\md5.c **** /*
 420:C:/Users/dtjld/workspace/AIoT/src/LiteOS_Lab/iot_link/network/dtls/mbedtls/mbedtls-2.16.2/library\md5.c ****  * RFC 1321 test vectors
 421:C:/Users/dtjld/workspace/AIoT/src/LiteOS_Lab/iot_link/network/dtls/mbedtls/mbedtls-2.16.2/library\md5.c ****  */
 422:C:/Users/dtjld/workspace/AIoT/src/LiteOS_Lab/iot_link/network/dtls/mbedtls/mbedtls-2.16.2/library\md5.c **** static const unsigned char md5_test_buf[7][81] =
 423:C:/Users/dtjld/workspace/AIoT/src/LiteOS_Lab/iot_link/network/dtls/mbedtls/mbedtls-2.16.2/library\md5.c **** {
 424:C:/Users/dtjld/workspace/AIoT/src/LiteOS_Lab/iot_link/network/dtls/mbedtls/mbedtls-2.16.2/library\md5.c ****     { "" },
 425:C:/Users/dtjld/workspace/AIoT/src/LiteOS_Lab/iot_link/network/dtls/mbedtls/mbedtls-2.16.2/library\md5.c ****     { "a" },
 426:C:/Users/dtjld/workspace/AIoT/src/LiteOS_Lab/iot_link/network/dtls/mbedtls/mbedtls-2.16.2/library\md5.c ****     { "abc" },
 427:C:/Users/dtjld/workspace/AIoT/src/LiteOS_Lab/iot_link/network/dtls/mbedtls/mbedtls-2.16.2/library\md5.c ****     { "message digest" },
 428:C:/Users/dtjld/workspace/AIoT/src/LiteOS_Lab/iot_link/network/dtls/mbedtls/mbedtls-2.16.2/library\md5.c ****     { "abcdefghijklmnopqrstuvwxyz" },
 429:C:/Users/dtjld/workspace/AIoT/src/LiteOS_Lab/iot_link/network/dtls/mbedtls/mbedtls-2.16.2/library\md5.c ****     { "ABCDEFGHIJKLMNOPQRSTUVWXYZabcdefghijklmnopqrstuvwxyz0123456789" },
ARM GAS  C:\Users\dtjld\AppData\Local\Temp\cccY4U5j.s 			page 60


 430:C:/Users/dtjld/workspace/AIoT/src/LiteOS_Lab/iot_link/network/dtls/mbedtls/mbedtls-2.16.2/library\md5.c ****     { "12345678901234567890123456789012345678901234567890123456789012"
 431:C:/Users/dtjld/workspace/AIoT/src/LiteOS_Lab/iot_link/network/dtls/mbedtls/mbedtls-2.16.2/library\md5.c ****       "345678901234567890" }
 432:C:/Users/dtjld/workspace/AIoT/src/LiteOS_Lab/iot_link/network/dtls/mbedtls/mbedtls-2.16.2/library\md5.c **** };
 433:C:/Users/dtjld/workspace/AIoT/src/LiteOS_Lab/iot_link/network/dtls/mbedtls/mbedtls-2.16.2/library\md5.c **** 
 434:C:/Users/dtjld/workspace/AIoT/src/LiteOS_Lab/iot_link/network/dtls/mbedtls/mbedtls-2.16.2/library\md5.c **** static const size_t md5_test_buflen[7] =
 435:C:/Users/dtjld/workspace/AIoT/src/LiteOS_Lab/iot_link/network/dtls/mbedtls/mbedtls-2.16.2/library\md5.c **** {
 436:C:/Users/dtjld/workspace/AIoT/src/LiteOS_Lab/iot_link/network/dtls/mbedtls/mbedtls-2.16.2/library\md5.c ****     0, 1, 3, 14, 26, 62, 80
 437:C:/Users/dtjld/workspace/AIoT/src/LiteOS_Lab/iot_link/network/dtls/mbedtls/mbedtls-2.16.2/library\md5.c **** };
 438:C:/Users/dtjld/workspace/AIoT/src/LiteOS_Lab/iot_link/network/dtls/mbedtls/mbedtls-2.16.2/library\md5.c **** 
 439:C:/Users/dtjld/workspace/AIoT/src/LiteOS_Lab/iot_link/network/dtls/mbedtls/mbedtls-2.16.2/library\md5.c **** static const unsigned char md5_test_sum[7][16] =
 440:C:/Users/dtjld/workspace/AIoT/src/LiteOS_Lab/iot_link/network/dtls/mbedtls/mbedtls-2.16.2/library\md5.c **** {
 441:C:/Users/dtjld/workspace/AIoT/src/LiteOS_Lab/iot_link/network/dtls/mbedtls/mbedtls-2.16.2/library\md5.c ****     { 0xD4, 0x1D, 0x8C, 0xD9, 0x8F, 0x00, 0xB2, 0x04,
 442:C:/Users/dtjld/workspace/AIoT/src/LiteOS_Lab/iot_link/network/dtls/mbedtls/mbedtls-2.16.2/library\md5.c ****       0xE9, 0x80, 0x09, 0x98, 0xEC, 0xF8, 0x42, 0x7E },
 443:C:/Users/dtjld/workspace/AIoT/src/LiteOS_Lab/iot_link/network/dtls/mbedtls/mbedtls-2.16.2/library\md5.c ****     { 0x0C, 0xC1, 0x75, 0xB9, 0xC0, 0xF1, 0xB6, 0xA8,
 444:C:/Users/dtjld/workspace/AIoT/src/LiteOS_Lab/iot_link/network/dtls/mbedtls/mbedtls-2.16.2/library\md5.c ****       0x31, 0xC3, 0x99, 0xE2, 0x69, 0x77, 0x26, 0x61 },
 445:C:/Users/dtjld/workspace/AIoT/src/LiteOS_Lab/iot_link/network/dtls/mbedtls/mbedtls-2.16.2/library\md5.c ****     { 0x90, 0x01, 0x50, 0x98, 0x3C, 0xD2, 0x4F, 0xB0,
 446:C:/Users/dtjld/workspace/AIoT/src/LiteOS_Lab/iot_link/network/dtls/mbedtls/mbedtls-2.16.2/library\md5.c ****       0xD6, 0x96, 0x3F, 0x7D, 0x28, 0xE1, 0x7F, 0x72 },
 447:C:/Users/dtjld/workspace/AIoT/src/LiteOS_Lab/iot_link/network/dtls/mbedtls/mbedtls-2.16.2/library\md5.c ****     { 0xF9, 0x6B, 0x69, 0x7D, 0x7C, 0xB7, 0x93, 0x8D,
 448:C:/Users/dtjld/workspace/AIoT/src/LiteOS_Lab/iot_link/network/dtls/mbedtls/mbedtls-2.16.2/library\md5.c ****       0x52, 0x5A, 0x2F, 0x31, 0xAA, 0xF1, 0x61, 0xD0 },
 449:C:/Users/dtjld/workspace/AIoT/src/LiteOS_Lab/iot_link/network/dtls/mbedtls/mbedtls-2.16.2/library\md5.c ****     { 0xC3, 0xFC, 0xD3, 0xD7, 0x61, 0x92, 0xE4, 0x00,
 450:C:/Users/dtjld/workspace/AIoT/src/LiteOS_Lab/iot_link/network/dtls/mbedtls/mbedtls-2.16.2/library\md5.c ****       0x7D, 0xFB, 0x49, 0x6C, 0xCA, 0x67, 0xE1, 0x3B },
 451:C:/Users/dtjld/workspace/AIoT/src/LiteOS_Lab/iot_link/network/dtls/mbedtls/mbedtls-2.16.2/library\md5.c ****     { 0xD1, 0x74, 0xAB, 0x98, 0xD2, 0x77, 0xD9, 0xF5,
 452:C:/Users/dtjld/workspace/AIoT/src/LiteOS_Lab/iot_link/network/dtls/mbedtls/mbedtls-2.16.2/library\md5.c ****       0xA5, 0x61, 0x1C, 0x2C, 0x9F, 0x41, 0x9D, 0x9F },
 453:C:/Users/dtjld/workspace/AIoT/src/LiteOS_Lab/iot_link/network/dtls/mbedtls/mbedtls-2.16.2/library\md5.c ****     { 0x57, 0xED, 0xF4, 0xA2, 0x2B, 0xE3, 0xC9, 0x55,
 454:C:/Users/dtjld/workspace/AIoT/src/LiteOS_Lab/iot_link/network/dtls/mbedtls/mbedtls-2.16.2/library\md5.c ****       0xAC, 0x49, 0xDA, 0x2E, 0x21, 0x07, 0xB6, 0x7A }
 455:C:/Users/dtjld/workspace/AIoT/src/LiteOS_Lab/iot_link/network/dtls/mbedtls/mbedtls-2.16.2/library\md5.c **** };
 456:C:/Users/dtjld/workspace/AIoT/src/LiteOS_Lab/iot_link/network/dtls/mbedtls/mbedtls-2.16.2/library\md5.c **** 
 457:C:/Users/dtjld/workspace/AIoT/src/LiteOS_Lab/iot_link/network/dtls/mbedtls/mbedtls-2.16.2/library\md5.c **** /*
 458:C:/Users/dtjld/workspace/AIoT/src/LiteOS_Lab/iot_link/network/dtls/mbedtls/mbedtls-2.16.2/library\md5.c ****  * Checkup routine
 459:C:/Users/dtjld/workspace/AIoT/src/LiteOS_Lab/iot_link/network/dtls/mbedtls/mbedtls-2.16.2/library\md5.c ****  */
 460:C:/Users/dtjld/workspace/AIoT/src/LiteOS_Lab/iot_link/network/dtls/mbedtls/mbedtls-2.16.2/library\md5.c **** int mbedtls_md5_self_test( int verbose )
 461:C:/Users/dtjld/workspace/AIoT/src/LiteOS_Lab/iot_link/network/dtls/mbedtls/mbedtls-2.16.2/library\md5.c **** {
 2912              		.loc 1 461 0
 2913              		.cfi_startproc
 2914              		@ args = 0, pretend = 0, frame = 32
 2915              		@ frame_needed = 1, uses_anonymous_args = 0
 2916 0000 80B5     		push	{r7, lr}
 2917              	.LCFI67:
 2918              		.cfi_def_cfa_offset 8
 2919              		.cfi_offset 7, -8
 2920              		.cfi_offset 14, -4
 2921 0002 88B0     		sub	sp, sp, #32
 2922              	.LCFI68:
 2923              		.cfi_def_cfa_offset 40
 2924 0004 00AF     		add	r7, sp, #0
 2925              	.LCFI69:
 2926              		.cfi_def_cfa_register 7
 2927 0006 7860     		str	r0, [r7, #4]
 462:C:/Users/dtjld/workspace/AIoT/src/LiteOS_Lab/iot_link/network/dtls/mbedtls/mbedtls-2.16.2/library\md5.c ****     int i, ret = 0;
 2928              		.loc 1 462 0
 2929 0008 0023     		movs	r3, #0
 2930 000a BB61     		str	r3, [r7, #24]
 463:C:/Users/dtjld/workspace/AIoT/src/LiteOS_Lab/iot_link/network/dtls/mbedtls/mbedtls-2.16.2/library\md5.c ****     unsigned char md5sum[16];
 464:C:/Users/dtjld/workspace/AIoT/src/LiteOS_Lab/iot_link/network/dtls/mbedtls/mbedtls-2.16.2/library\md5.c **** 
 465:C:/Users/dtjld/workspace/AIoT/src/LiteOS_Lab/iot_link/network/dtls/mbedtls/mbedtls-2.16.2/library\md5.c ****     for( i = 0; i < 7; i++ )
 2931              		.loc 1 465 0
 2932 000c 0023     		movs	r3, #0
ARM GAS  C:\Users\dtjld\AppData\Local\Temp\cccY4U5j.s 			page 61


 2933 000e FB61     		str	r3, [r7, #28]
 2934 0010 38E0     		b	.L53
 2935              	.L59:
 466:C:/Users/dtjld/workspace/AIoT/src/LiteOS_Lab/iot_link/network/dtls/mbedtls/mbedtls-2.16.2/library\md5.c ****     {
 467:C:/Users/dtjld/workspace/AIoT/src/LiteOS_Lab/iot_link/network/dtls/mbedtls/mbedtls-2.16.2/library\md5.c ****         if( verbose != 0 )
 2936              		.loc 1 467 0
 2937 0012 7B68     		ldr	r3, [r7, #4]
 2938 0014 002B     		cmp	r3, #0
 2939 0016 06D0     		beq	.L54
 468:C:/Users/dtjld/workspace/AIoT/src/LiteOS_Lab/iot_link/network/dtls/mbedtls/mbedtls-2.16.2/library\md5.c ****             mbedtls_printf( "  MD5 test #%d: ", i + 1 );
 2940              		.loc 1 468 0
 2941 0018 274B     		ldr	r3, .L65
 2942 001a 1B68     		ldr	r3, [r3]
 2943 001c FA69     		ldr	r2, [r7, #28]
 2944 001e 0132     		adds	r2, r2, #1
 2945 0020 1146     		mov	r1, r2
 2946 0022 2648     		ldr	r0, .L65+4
 2947 0024 9847     		blx	r3
 2948              	.LVL0:
 2949              	.L54:
 469:C:/Users/dtjld/workspace/AIoT/src/LiteOS_Lab/iot_link/network/dtls/mbedtls/mbedtls-2.16.2/library\md5.c **** 
 470:C:/Users/dtjld/workspace/AIoT/src/LiteOS_Lab/iot_link/network/dtls/mbedtls/mbedtls-2.16.2/library\md5.c ****         ret = mbedtls_md5_ret( md5_test_buf[i], md5_test_buflen[i], md5sum );
 2950              		.loc 1 470 0
 2951 0026 FA69     		ldr	r2, [r7, #28]
 2952 0028 1346     		mov	r3, r2
 2953 002a DB00     		lsls	r3, r3, #3
 2954 002c 1344     		add	r3, r3, r2
 2955 002e DA00     		lsls	r2, r3, #3
 2956 0030 1344     		add	r3, r3, r2
 2957 0032 234A     		ldr	r2, .L65+8
 2958 0034 9818     		adds	r0, r3, r2
 2959 0036 234A     		ldr	r2, .L65+12
 2960 0038 FB69     		ldr	r3, [r7, #28]
 2961 003a 52F82330 		ldr	r3, [r2, r3, lsl #2]
 2962 003e 07F10802 		add	r2, r7, #8
 2963 0042 1946     		mov	r1, r3
 2964 0044 FFF7FEFF 		bl	mbedtls_md5_ret
 2965 0048 B861     		str	r0, [r7, #24]
 471:C:/Users/dtjld/workspace/AIoT/src/LiteOS_Lab/iot_link/network/dtls/mbedtls/mbedtls-2.16.2/library\md5.c ****         if( ret != 0 )
 2966              		.loc 1 471 0
 2967 004a BB69     		ldr	r3, [r7, #24]
 2968 004c 002B     		cmp	r3, #0
 2969 004e 25D1     		bne	.L64
 472:C:/Users/dtjld/workspace/AIoT/src/LiteOS_Lab/iot_link/network/dtls/mbedtls/mbedtls-2.16.2/library\md5.c ****             goto fail;
 473:C:/Users/dtjld/workspace/AIoT/src/LiteOS_Lab/iot_link/network/dtls/mbedtls/mbedtls-2.16.2/library\md5.c **** 
 474:C:/Users/dtjld/workspace/AIoT/src/LiteOS_Lab/iot_link/network/dtls/mbedtls/mbedtls-2.16.2/library\md5.c ****         if( memcmp( md5sum, md5_test_sum[i], 16 ) != 0 )
 2970              		.loc 1 474 0
 2971 0050 FB69     		ldr	r3, [r7, #28]
 2972 0052 1B01     		lsls	r3, r3, #4
 2973 0054 1C4A     		ldr	r2, .L65+16
 2974 0056 9918     		adds	r1, r3, r2
 2975 0058 07F10803 		add	r3, r7, #8
 2976 005c 1022     		movs	r2, #16
 2977 005e 1846     		mov	r0, r3
 2978 0060 FFF7FEFF 		bl	memcmp
 2979 0064 0346     		mov	r3, r0
 2980 0066 002B     		cmp	r3, #0
ARM GAS  C:\Users\dtjld\AppData\Local\Temp\cccY4U5j.s 			page 62


 2981 0068 02D0     		beq	.L57
 475:C:/Users/dtjld/workspace/AIoT/src/LiteOS_Lab/iot_link/network/dtls/mbedtls/mbedtls-2.16.2/library\md5.c ****         {
 476:C:/Users/dtjld/workspace/AIoT/src/LiteOS_Lab/iot_link/network/dtls/mbedtls/mbedtls-2.16.2/library\md5.c ****             ret = 1;
 2982              		.loc 1 476 0
 2983 006a 0123     		movs	r3, #1
 2984 006c BB61     		str	r3, [r7, #24]
 477:C:/Users/dtjld/workspace/AIoT/src/LiteOS_Lab/iot_link/network/dtls/mbedtls/mbedtls-2.16.2/library\md5.c ****             goto fail;
 2985              		.loc 1 477 0
 2986 006e 16E0     		b	.L56
 2987              	.L57:
 478:C:/Users/dtjld/workspace/AIoT/src/LiteOS_Lab/iot_link/network/dtls/mbedtls/mbedtls-2.16.2/library\md5.c ****         }
 479:C:/Users/dtjld/workspace/AIoT/src/LiteOS_Lab/iot_link/network/dtls/mbedtls/mbedtls-2.16.2/library\md5.c **** 
 480:C:/Users/dtjld/workspace/AIoT/src/LiteOS_Lab/iot_link/network/dtls/mbedtls/mbedtls-2.16.2/library\md5.c ****         if( verbose != 0 )
 2988              		.loc 1 480 0
 2989 0070 7B68     		ldr	r3, [r7, #4]
 2990 0072 002B     		cmp	r3, #0
 2991 0074 03D0     		beq	.L58
 481:C:/Users/dtjld/workspace/AIoT/src/LiteOS_Lab/iot_link/network/dtls/mbedtls/mbedtls-2.16.2/library\md5.c ****             mbedtls_printf( "passed\n" );
 2992              		.loc 1 481 0
 2993 0076 104B     		ldr	r3, .L65
 2994 0078 1B68     		ldr	r3, [r3]
 2995 007a 1448     		ldr	r0, .L65+20
 2996 007c 9847     		blx	r3
 2997              	.LVL1:
 2998              	.L58:
 465:C:/Users/dtjld/workspace/AIoT/src/LiteOS_Lab/iot_link/network/dtls/mbedtls/mbedtls-2.16.2/library\md5.c ****     {
 2999              		.loc 1 465 0 discriminator 2
 3000 007e FB69     		ldr	r3, [r7, #28]
 3001 0080 0133     		adds	r3, r3, #1
 3002 0082 FB61     		str	r3, [r7, #28]
 3003              	.L53:
 465:C:/Users/dtjld/workspace/AIoT/src/LiteOS_Lab/iot_link/network/dtls/mbedtls/mbedtls-2.16.2/library\md5.c ****     {
 3004              		.loc 1 465 0 is_stmt 0 discriminator 1
 3005 0084 FB69     		ldr	r3, [r7, #28]
 3006 0086 062B     		cmp	r3, #6
 3007 0088 C3DD     		ble	.L59
 482:C:/Users/dtjld/workspace/AIoT/src/LiteOS_Lab/iot_link/network/dtls/mbedtls/mbedtls-2.16.2/library\md5.c ****     }
 483:C:/Users/dtjld/workspace/AIoT/src/LiteOS_Lab/iot_link/network/dtls/mbedtls/mbedtls-2.16.2/library\md5.c **** 
 484:C:/Users/dtjld/workspace/AIoT/src/LiteOS_Lab/iot_link/network/dtls/mbedtls/mbedtls-2.16.2/library\md5.c ****     if( verbose != 0 )
 3008              		.loc 1 484 0 is_stmt 1
 3009 008a 7B68     		ldr	r3, [r7, #4]
 3010 008c 002B     		cmp	r3, #0
 3011 008e 03D0     		beq	.L60
 485:C:/Users/dtjld/workspace/AIoT/src/LiteOS_Lab/iot_link/network/dtls/mbedtls/mbedtls-2.16.2/library\md5.c ****         mbedtls_printf( "\n" );
 3012              		.loc 1 485 0
 3013 0090 094B     		ldr	r3, .L65
 3014 0092 1B68     		ldr	r3, [r3]
 3015 0094 0E48     		ldr	r0, .L65+24
 3016 0096 9847     		blx	r3
 3017              	.LVL2:
 3018              	.L60:
 486:C:/Users/dtjld/workspace/AIoT/src/LiteOS_Lab/iot_link/network/dtls/mbedtls/mbedtls-2.16.2/library\md5.c **** 
 487:C:/Users/dtjld/workspace/AIoT/src/LiteOS_Lab/iot_link/network/dtls/mbedtls/mbedtls-2.16.2/library\md5.c ****     return( 0 );
 3019              		.loc 1 487 0
 3020 0098 0023     		movs	r3, #0
 3021 009a 08E0     		b	.L63
 3022              	.L64:
ARM GAS  C:\Users\dtjld\AppData\Local\Temp\cccY4U5j.s 			page 63


 472:C:/Users/dtjld/workspace/AIoT/src/LiteOS_Lab/iot_link/network/dtls/mbedtls/mbedtls-2.16.2/library\md5.c **** 
 3023              		.loc 1 472 0
 3024 009c 00BF     		nop
 3025              	.L56:
 488:C:/Users/dtjld/workspace/AIoT/src/LiteOS_Lab/iot_link/network/dtls/mbedtls/mbedtls-2.16.2/library\md5.c **** 
 489:C:/Users/dtjld/workspace/AIoT/src/LiteOS_Lab/iot_link/network/dtls/mbedtls/mbedtls-2.16.2/library\md5.c **** fail:
 490:C:/Users/dtjld/workspace/AIoT/src/LiteOS_Lab/iot_link/network/dtls/mbedtls/mbedtls-2.16.2/library\md5.c ****     if( verbose != 0 )
 3026              		.loc 1 490 0
 3027 009e 7B68     		ldr	r3, [r7, #4]
 3028 00a0 002B     		cmp	r3, #0
 3029 00a2 03D0     		beq	.L62
 491:C:/Users/dtjld/workspace/AIoT/src/LiteOS_Lab/iot_link/network/dtls/mbedtls/mbedtls-2.16.2/library\md5.c ****         mbedtls_printf( "failed\n" );
 3030              		.loc 1 491 0
 3031 00a4 044B     		ldr	r3, .L65
 3032 00a6 1B68     		ldr	r3, [r3]
 3033 00a8 0A48     		ldr	r0, .L65+28
 3034 00aa 9847     		blx	r3
 3035              	.LVL3:
 3036              	.L62:
 492:C:/Users/dtjld/workspace/AIoT/src/LiteOS_Lab/iot_link/network/dtls/mbedtls/mbedtls-2.16.2/library\md5.c **** 
 493:C:/Users/dtjld/workspace/AIoT/src/LiteOS_Lab/iot_link/network/dtls/mbedtls/mbedtls-2.16.2/library\md5.c ****     return( ret );
 3037              		.loc 1 493 0
 3038 00ac BB69     		ldr	r3, [r7, #24]
 3039              	.L63:
 494:C:/Users/dtjld/workspace/AIoT/src/LiteOS_Lab/iot_link/network/dtls/mbedtls/mbedtls-2.16.2/library\md5.c **** }
 3040              		.loc 1 494 0 discriminator 1
 3041 00ae 1846     		mov	r0, r3
 3042 00b0 2037     		adds	r7, r7, #32
 3043              	.LCFI70:
 3044              		.cfi_def_cfa_offset 8
 3045 00b2 BD46     		mov	sp, r7
 3046              	.LCFI71:
 3047              		.cfi_def_cfa_register 13
 3048              		@ sp needed
 3049 00b4 80BD     		pop	{r7, pc}
 3050              	.L66:
 3051 00b6 00BF     		.align	2
 3052              	.L65:
 3053 00b8 00000000 		.word	mbedtls_printf
 3054 00bc 00000000 		.word	.LC0
 3055 00c0 00000000 		.word	md5_test_buf
 3056 00c4 00000000 		.word	md5_test_buflen
 3057 00c8 00000000 		.word	md5_test_sum
 3058 00cc 14000000 		.word	.LC1
 3059 00d0 1C000000 		.word	.LC2
 3060 00d4 20000000 		.word	.LC3
 3061              		.cfi_endproc
 3062              	.LFE16:
 3064              		.text
 3065              	.Letext0:
 3066              		.file 2 "c:\\ac6\\systemworkbench\\plugins\\fr.ac6.mcu.externaltools.arm-none.win32_1.16.0.2018071
 3067              		.file 3 "c:\\ac6\\systemworkbench\\plugins\\fr.ac6.mcu.externaltools.arm-none.win32_1.16.0.2018071
 3068              		.file 4 "c:\\ac6\\systemworkbench\\plugins\\fr.ac6.mcu.externaltools.arm-none.win32_1.16.0.2018071
 3069              		.file 5 "C:/Users/dtjld/workspace/AIoT/src/LiteOS_Lab/iot_link/network/dtls/mbedtls/mbedtls-2.16.2
 3070              		.file 6 "c:\\ac6\\systemworkbench\\plugins\\fr.ac6.mcu.externaltools.arm-none.win32_1.16.0.2018071
 3071              		.file 7 "c:\\ac6\\systemworkbench\\plugins\\fr.ac6.mcu.externaltools.arm-none.win32_1.16.0.2018071
 3072              		.file 8 "c:\\ac6\\systemworkbench\\plugins\\fr.ac6.mcu.externaltools.arm-none.win32_1.16.0.2018071
ARM GAS  C:\Users\dtjld\AppData\Local\Temp\cccY4U5j.s 			page 64


 3073              		.file 9 "c:\\ac6\\systemworkbench\\plugins\\fr.ac6.mcu.externaltools.arm-none.win32_1.16.0.2018071
 3074              		.file 10 "c:\\ac6\\systemworkbench\\plugins\\fr.ac6.mcu.externaltools.arm-none.win32_1.16.0.201807
 3075              		.file 11 "C:/Users/dtjld/workspace/AIoT/src/LiteOS_Lab/iot_link/network/dtls/mbedtls/mbedtls-2.16.
ARM GAS  C:\Users\dtjld\AppData\Local\Temp\cccY4U5j.s 			page 65

