ARM GAS  C:\Users\dtjld\AppData\Local\Temp\cc8xzzLd.s 			page 1


   1              		.cpu cortex-m4
   2              		.eabi_attribute 27, 1
   3              		.eabi_attribute 28, 1
   4              		.eabi_attribute 20, 1
   5              		.eabi_attribute 21, 1
   6              		.eabi_attribute 23, 3
   7              		.eabi_attribute 24, 1
   8              		.eabi_attribute 25, 1
   9              		.eabi_attribute 26, 1
  10              		.eabi_attribute 30, 6
  11              		.eabi_attribute 34, 1
  12              		.eabi_attribute 18, 4
  13              		.file	"MQTTClient.c"
  14              		.text
  15              	.Ltext0:
  16              		.cfi_sections	.debug_frame
  17              		.section	.text.NewMessageData,"ax",%progbits
  18              		.align	1
  19              		.syntax unified
  20              		.thumb
  21              		.thumb_func
  22              		.fpu fpv4-sp-d16
  24              	NewMessageData:
  25              	.LFB4:
  26              		.file 1 "C:/Users/dtjld/workspace/AIoT/src/LiteOS_Lab/iot_link/network/mqtt/paho_mqtt/paho/MQTTCli
   1:C:/Users/dtjld/workspace/AIoT/src/LiteOS_Lab/iot_link/network/mqtt/paho_mqtt/paho/MQTTClient-C/src\MQTTClient.c **** /*******************************************************************************
   2:C:/Users/dtjld/workspace/AIoT/src/LiteOS_Lab/iot_link/network/mqtt/paho_mqtt/paho/MQTTClient-C/src\MQTTClient.c ****  * Copyright (c) 2014, 2017 IBM Corp.
   3:C:/Users/dtjld/workspace/AIoT/src/LiteOS_Lab/iot_link/network/mqtt/paho_mqtt/paho/MQTTClient-C/src\MQTTClient.c ****  *
   4:C:/Users/dtjld/workspace/AIoT/src/LiteOS_Lab/iot_link/network/mqtt/paho_mqtt/paho/MQTTClient-C/src\MQTTClient.c ****  * All rights reserved. This program and the accompanying materials
   5:C:/Users/dtjld/workspace/AIoT/src/LiteOS_Lab/iot_link/network/mqtt/paho_mqtt/paho/MQTTClient-C/src\MQTTClient.c ****  * are made available under the terms of the Eclipse Public License v1.0
   6:C:/Users/dtjld/workspace/AIoT/src/LiteOS_Lab/iot_link/network/mqtt/paho_mqtt/paho/MQTTClient-C/src\MQTTClient.c ****  * and Eclipse Distribution License v1.0 which accompany this distribution.
   7:C:/Users/dtjld/workspace/AIoT/src/LiteOS_Lab/iot_link/network/mqtt/paho_mqtt/paho/MQTTClient-C/src\MQTTClient.c ****  *
   8:C:/Users/dtjld/workspace/AIoT/src/LiteOS_Lab/iot_link/network/mqtt/paho_mqtt/paho/MQTTClient-C/src\MQTTClient.c ****  * The Eclipse Public License is available at
   9:C:/Users/dtjld/workspace/AIoT/src/LiteOS_Lab/iot_link/network/mqtt/paho_mqtt/paho/MQTTClient-C/src\MQTTClient.c ****  *    http://www.eclipse.org/legal/epl-v10.html
  10:C:/Users/dtjld/workspace/AIoT/src/LiteOS_Lab/iot_link/network/mqtt/paho_mqtt/paho/MQTTClient-C/src\MQTTClient.c ****  * and the Eclipse Distribution License is available at
  11:C:/Users/dtjld/workspace/AIoT/src/LiteOS_Lab/iot_link/network/mqtt/paho_mqtt/paho/MQTTClient-C/src\MQTTClient.c ****  *   http://www.eclipse.org/org/documents/edl-v10.php.
  12:C:/Users/dtjld/workspace/AIoT/src/LiteOS_Lab/iot_link/network/mqtt/paho_mqtt/paho/MQTTClient-C/src\MQTTClient.c ****  *
  13:C:/Users/dtjld/workspace/AIoT/src/LiteOS_Lab/iot_link/network/mqtt/paho_mqtt/paho/MQTTClient-C/src\MQTTClient.c ****  * Contributors:
  14:C:/Users/dtjld/workspace/AIoT/src/LiteOS_Lab/iot_link/network/mqtt/paho_mqtt/paho/MQTTClient-C/src\MQTTClient.c ****  *   Allan Stockdill-Mander/Ian Craggs - initial API and implementation and/or initial documentatio
  15:C:/Users/dtjld/workspace/AIoT/src/LiteOS_Lab/iot_link/network/mqtt/paho_mqtt/paho/MQTTClient-C/src\MQTTClient.c ****  *   Ian Craggs - fix for #96 - check rem_len in readPacket
  16:C:/Users/dtjld/workspace/AIoT/src/LiteOS_Lab/iot_link/network/mqtt/paho_mqtt/paho/MQTTClient-C/src\MQTTClient.c ****  *   Ian Craggs - add ability to set message handler separately #6
  17:C:/Users/dtjld/workspace/AIoT/src/LiteOS_Lab/iot_link/network/mqtt/paho_mqtt/paho/MQTTClient-C/src\MQTTClient.c ****  *******************************************************************************/
  18:C:/Users/dtjld/workspace/AIoT/src/LiteOS_Lab/iot_link/network/mqtt/paho_mqtt/paho/MQTTClient-C/src\MQTTClient.c **** #include "MQTTClient.h"
  19:C:/Users/dtjld/workspace/AIoT/src/LiteOS_Lab/iot_link/network/mqtt/paho_mqtt/paho/MQTTClient-C/src\MQTTClient.c **** 
  20:C:/Users/dtjld/workspace/AIoT/src/LiteOS_Lab/iot_link/network/mqtt/paho_mqtt/paho/MQTTClient-C/src\MQTTClient.c **** static void NewMessageData(MessageData* md, MQTTString* aTopicName, MQTTMessage* aMessage) {
  27              		.loc 1 20 0
  28              		.cfi_startproc
  29              		@ args = 0, pretend = 0, frame = 16
  30              		@ frame_needed = 1, uses_anonymous_args = 0
  31              		@ link register save eliminated.
  32 0000 80B4     		push	{r7}
  33              	.LCFI0:
  34              		.cfi_def_cfa_offset 4
  35              		.cfi_offset 7, -4
  36 0002 85B0     		sub	sp, sp, #20
  37              	.LCFI1:
  38              		.cfi_def_cfa_offset 24
ARM GAS  C:\Users\dtjld\AppData\Local\Temp\cc8xzzLd.s 			page 2


  39 0004 00AF     		add	r7, sp, #0
  40              	.LCFI2:
  41              		.cfi_def_cfa_register 7
  42 0006 F860     		str	r0, [r7, #12]
  43 0008 B960     		str	r1, [r7, #8]
  44 000a 7A60     		str	r2, [r7, #4]
  21:C:/Users/dtjld/workspace/AIoT/src/LiteOS_Lab/iot_link/network/mqtt/paho_mqtt/paho/MQTTClient-C/src\MQTTClient.c ****     md->topicName = aTopicName;
  45              		.loc 1 21 0
  46 000c FB68     		ldr	r3, [r7, #12]
  47 000e BA68     		ldr	r2, [r7, #8]
  48 0010 5A60     		str	r2, [r3, #4]
  22:C:/Users/dtjld/workspace/AIoT/src/LiteOS_Lab/iot_link/network/mqtt/paho_mqtt/paho/MQTTClient-C/src\MQTTClient.c ****     md->message = aMessage;
  49              		.loc 1 22 0
  50 0012 FB68     		ldr	r3, [r7, #12]
  51 0014 7A68     		ldr	r2, [r7, #4]
  52 0016 1A60     		str	r2, [r3]
  23:C:/Users/dtjld/workspace/AIoT/src/LiteOS_Lab/iot_link/network/mqtt/paho_mqtt/paho/MQTTClient-C/src\MQTTClient.c **** }
  53              		.loc 1 23 0
  54 0018 00BF     		nop
  55 001a 1437     		adds	r7, r7, #20
  56              	.LCFI3:
  57              		.cfi_def_cfa_offset 4
  58 001c BD46     		mov	sp, r7
  59              	.LCFI4:
  60              		.cfi_def_cfa_register 13
  61              		@ sp needed
  62 001e 5DF8047B 		ldr	r7, [sp], #4
  63              	.LCFI5:
  64              		.cfi_restore 7
  65              		.cfi_def_cfa_offset 0
  66 0022 7047     		bx	lr
  67              		.cfi_endproc
  68              	.LFE4:
  70              		.section	.text.getNextPacketId,"ax",%progbits
  71              		.align	1
  72              		.syntax unified
  73              		.thumb
  74              		.thumb_func
  75              		.fpu fpv4-sp-d16
  77              	getNextPacketId:
  78              	.LFB5:
  24:C:/Users/dtjld/workspace/AIoT/src/LiteOS_Lab/iot_link/network/mqtt/paho_mqtt/paho/MQTTClient-C/src\MQTTClient.c **** 
  25:C:/Users/dtjld/workspace/AIoT/src/LiteOS_Lab/iot_link/network/mqtt/paho_mqtt/paho/MQTTClient-C/src\MQTTClient.c **** 
  26:C:/Users/dtjld/workspace/AIoT/src/LiteOS_Lab/iot_link/network/mqtt/paho_mqtt/paho/MQTTClient-C/src\MQTTClient.c **** static int getNextPacketId(MQTTClient *c) {
  79              		.loc 1 26 0
  80              		.cfi_startproc
  81              		@ args = 0, pretend = 0, frame = 8
  82              		@ frame_needed = 1, uses_anonymous_args = 0
  83              		@ link register save eliminated.
  84 0000 80B4     		push	{r7}
  85              	.LCFI6:
  86              		.cfi_def_cfa_offset 4
  87              		.cfi_offset 7, -4
  88 0002 83B0     		sub	sp, sp, #12
  89              	.LCFI7:
  90              		.cfi_def_cfa_offset 16
  91 0004 00AF     		add	r7, sp, #0
ARM GAS  C:\Users\dtjld\AppData\Local\Temp\cc8xzzLd.s 			page 3


  92              	.LCFI8:
  93              		.cfi_def_cfa_register 7
  94 0006 7860     		str	r0, [r7, #4]
  27:C:/Users/dtjld/workspace/AIoT/src/LiteOS_Lab/iot_link/network/mqtt/paho_mqtt/paho/MQTTClient-C/src\MQTTClient.c ****     return c->next_packetid = (c->next_packetid == MAX_PACKET_ID) ? 1 : c->next_packetid + 1;
  95              		.loc 1 27 0
  96 0008 7B68     		ldr	r3, [r7, #4]
  97 000a 1B68     		ldr	r3, [r3]
  98 000c 4FF6FF72 		movw	r2, #65535
  99 0010 9342     		cmp	r3, r2
 100 0012 03D0     		beq	.L3
 101              		.loc 1 27 0 is_stmt 0 discriminator 1
 102 0014 7B68     		ldr	r3, [r7, #4]
 103 0016 1B68     		ldr	r3, [r3]
 104 0018 0133     		adds	r3, r3, #1
 105 001a 00E0     		b	.L4
 106              	.L3:
 107              		.loc 1 27 0 discriminator 2
 108 001c 0123     		movs	r3, #1
 109              	.L4:
 110              		.loc 1 27 0 discriminator 4
 111 001e 7A68     		ldr	r2, [r7, #4]
 112 0020 1360     		str	r3, [r2]
 113 0022 7B68     		ldr	r3, [r7, #4]
 114 0024 1B68     		ldr	r3, [r3]
  28:C:/Users/dtjld/workspace/AIoT/src/LiteOS_Lab/iot_link/network/mqtt/paho_mqtt/paho/MQTTClient-C/src\MQTTClient.c **** }
 115              		.loc 1 28 0 is_stmt 1 discriminator 4
 116 0026 1846     		mov	r0, r3
 117 0028 0C37     		adds	r7, r7, #12
 118              	.LCFI9:
 119              		.cfi_def_cfa_offset 4
 120 002a BD46     		mov	sp, r7
 121              	.LCFI10:
 122              		.cfi_def_cfa_register 13
 123              		@ sp needed
 124 002c 5DF8047B 		ldr	r7, [sp], #4
 125              	.LCFI11:
 126              		.cfi_restore 7
 127              		.cfi_def_cfa_offset 0
 128 0030 7047     		bx	lr
 129              		.cfi_endproc
 130              	.LFE5:
 132              		.section	.text.sendPacket,"ax",%progbits
 133              		.align	1
 134              		.syntax unified
 135              		.thumb
 136              		.thumb_func
 137              		.fpu fpv4-sp-d16
 139              	sendPacket:
 140              	.LFB6:
  29:C:/Users/dtjld/workspace/AIoT/src/LiteOS_Lab/iot_link/network/mqtt/paho_mqtt/paho/MQTTClient-C/src\MQTTClient.c **** 
  30:C:/Users/dtjld/workspace/AIoT/src/LiteOS_Lab/iot_link/network/mqtt/paho_mqtt/paho/MQTTClient-C/src\MQTTClient.c **** 
  31:C:/Users/dtjld/workspace/AIoT/src/LiteOS_Lab/iot_link/network/mqtt/paho_mqtt/paho/MQTTClient-C/src\MQTTClient.c **** static int sendPacket(MQTTClient* c, int length, Timer* timer)
  32:C:/Users/dtjld/workspace/AIoT/src/LiteOS_Lab/iot_link/network/mqtt/paho_mqtt/paho/MQTTClient-C/src\MQTTClient.c **** {
 141              		.loc 1 32 0
 142              		.cfi_startproc
 143              		@ args = 0, pretend = 0, frame = 24
 144              		@ frame_needed = 1, uses_anonymous_args = 0
ARM GAS  C:\Users\dtjld\AppData\Local\Temp\cc8xzzLd.s 			page 4


 145 0000 F0B5     		push	{r4, r5, r6, r7, lr}
 146              	.LCFI12:
 147              		.cfi_def_cfa_offset 20
 148              		.cfi_offset 4, -20
 149              		.cfi_offset 5, -16
 150              		.cfi_offset 6, -12
 151              		.cfi_offset 7, -8
 152              		.cfi_offset 14, -4
 153 0002 87B0     		sub	sp, sp, #28
 154              	.LCFI13:
 155              		.cfi_def_cfa_offset 48
 156 0004 00AF     		add	r7, sp, #0
 157              	.LCFI14:
 158              		.cfi_def_cfa_register 7
 159 0006 F860     		str	r0, [r7, #12]
 160 0008 B960     		str	r1, [r7, #8]
 161 000a 7A60     		str	r2, [r7, #4]
  33:C:/Users/dtjld/workspace/AIoT/src/LiteOS_Lab/iot_link/network/mqtt/paho_mqtt/paho/MQTTClient-C/src\MQTTClient.c ****     int rc = FAILURE,
 162              		.loc 1 33 0
 163 000c 4FF0FF33 		mov	r3, #-1
 164 0010 7B61     		str	r3, [r7, #20]
  34:C:/Users/dtjld/workspace/AIoT/src/LiteOS_Lab/iot_link/network/mqtt/paho_mqtt/paho/MQTTClient-C/src\MQTTClient.c ****         sent = 0;
 165              		.loc 1 34 0
 166 0012 0023     		movs	r3, #0
 167 0014 3B61     		str	r3, [r7, #16]
  35:C:/Users/dtjld/workspace/AIoT/src/LiteOS_Lab/iot_link/network/mqtt/paho_mqtt/paho/MQTTClient-C/src\MQTTClient.c **** 
  36:C:/Users/dtjld/workspace/AIoT/src/LiteOS_Lab/iot_link/network/mqtt/paho_mqtt/paho/MQTTClient-C/src\MQTTClient.c ****     while (sent < length && !TimerIsExpired(timer))
 168              		.loc 1 36 0
 169 0016 18E0     		b	.L7
 170              	.L10:
  37:C:/Users/dtjld/workspace/AIoT/src/LiteOS_Lab/iot_link/network/mqtt/paho_mqtt/paho/MQTTClient-C/src\MQTTClient.c ****     {
  38:C:/Users/dtjld/workspace/AIoT/src/LiteOS_Lab/iot_link/network/mqtt/paho_mqtt/paho/MQTTClient-C/src\MQTTClient.c ****         rc = c->ipstack->mqttwrite(c->ipstack, &c->buf[sent], length, TimerLeftMS(timer));
 171              		.loc 1 38 0
 172 0018 FB68     		ldr	r3, [r7, #12]
 173 001a 9B6E     		ldr	r3, [r3, #104]
 174 001c DC6A     		ldr	r4, [r3, #44]
 175 001e FB68     		ldr	r3, [r7, #12]
 176 0020 9D6E     		ldr	r5, [r3, #104]
 177 0022 FB68     		ldr	r3, [r7, #12]
 178 0024 1A69     		ldr	r2, [r3, #16]
 179 0026 3B69     		ldr	r3, [r7, #16]
 180 0028 D618     		adds	r6, r2, r3
 181 002a 7868     		ldr	r0, [r7, #4]
 182 002c FFF7FEFF 		bl	osal_loop_timer_left
 183 0030 0346     		mov	r3, r0
 184 0032 BA68     		ldr	r2, [r7, #8]
 185 0034 3146     		mov	r1, r6
 186 0036 2846     		mov	r0, r5
 187 0038 A047     		blx	r4
 188              	.LVL0:
 189 003a 7861     		str	r0, [r7, #20]
  39:C:/Users/dtjld/workspace/AIoT/src/LiteOS_Lab/iot_link/network/mqtt/paho_mqtt/paho/MQTTClient-C/src\MQTTClient.c ****         if (rc < 0)  // there was an error writing the data
 190              		.loc 1 39 0
 191 003c 7B69     		ldr	r3, [r7, #20]
 192 003e 002B     		cmp	r3, #0
 193 0040 0EDB     		blt	.L14
  40:C:/Users/dtjld/workspace/AIoT/src/LiteOS_Lab/iot_link/network/mqtt/paho_mqtt/paho/MQTTClient-C/src\MQTTClient.c ****             break;
ARM GAS  C:\Users\dtjld\AppData\Local\Temp\cc8xzzLd.s 			page 5


  41:C:/Users/dtjld/workspace/AIoT/src/LiteOS_Lab/iot_link/network/mqtt/paho_mqtt/paho/MQTTClient-C/src\MQTTClient.c ****         sent += rc;
 194              		.loc 1 41 0
 195 0042 3A69     		ldr	r2, [r7, #16]
 196 0044 7B69     		ldr	r3, [r7, #20]
 197 0046 1344     		add	r3, r3, r2
 198 0048 3B61     		str	r3, [r7, #16]
 199              	.L7:
  36:C:/Users/dtjld/workspace/AIoT/src/LiteOS_Lab/iot_link/network/mqtt/paho_mqtt/paho/MQTTClient-C/src\MQTTClient.c ****     {
 200              		.loc 1 36 0
 201 004a 3A69     		ldr	r2, [r7, #16]
 202 004c BB68     		ldr	r3, [r7, #8]
 203 004e 9A42     		cmp	r2, r3
 204 0050 07DA     		bge	.L9
  36:C:/Users/dtjld/workspace/AIoT/src/LiteOS_Lab/iot_link/network/mqtt/paho_mqtt/paho/MQTTClient-C/src\MQTTClient.c ****     {
 205              		.loc 1 36 0 is_stmt 0 discriminator 1
 206 0052 7868     		ldr	r0, [r7, #4]
 207 0054 FFF7FEFF 		bl	osal_loop_timer_expired
 208 0058 0346     		mov	r3, r0
 209 005a 002B     		cmp	r3, #0
 210 005c DCD0     		beq	.L10
 211 005e 00E0     		b	.L9
 212              	.L14:
  40:C:/Users/dtjld/workspace/AIoT/src/LiteOS_Lab/iot_link/network/mqtt/paho_mqtt/paho/MQTTClient-C/src\MQTTClient.c ****             break;
 213              		.loc 1 40 0 is_stmt 1
 214 0060 00BF     		nop
 215              	.L9:
  42:C:/Users/dtjld/workspace/AIoT/src/LiteOS_Lab/iot_link/network/mqtt/paho_mqtt/paho/MQTTClient-C/src\MQTTClient.c ****     }
  43:C:/Users/dtjld/workspace/AIoT/src/LiteOS_Lab/iot_link/network/mqtt/paho_mqtt/paho/MQTTClient-C/src\MQTTClient.c ****     if (sent == length)
 216              		.loc 1 43 0
 217 0062 3A69     		ldr	r2, [r7, #16]
 218 0064 BB68     		ldr	r3, [r7, #8]
 219 0066 9A42     		cmp	r2, r3
 220 0068 0BD1     		bne	.L11
  44:C:/Users/dtjld/workspace/AIoT/src/LiteOS_Lab/iot_link/network/mqtt/paho_mqtt/paho/MQTTClient-C/src\MQTTClient.c ****     {
  45:C:/Users/dtjld/workspace/AIoT/src/LiteOS_Lab/iot_link/network/mqtt/paho_mqtt/paho/MQTTClient-C/src\MQTTClient.c ****         TimerCountdown(&c->last_sent, c->keepAliveInterval); // record the fact that we have succes
 221              		.loc 1 45 0
 222 006a FB68     		ldr	r3, [r7, #12]
 223 006c 03F17002 		add	r2, r3, #112
 224 0070 FB68     		ldr	r3, [r7, #12]
 225 0072 9B69     		ldr	r3, [r3, #24]
 226 0074 1946     		mov	r1, r3
 227 0076 1046     		mov	r0, r2
 228 0078 FFF7FEFF 		bl	osal_loop_timer_count_down
  46:C:/Users/dtjld/workspace/AIoT/src/LiteOS_Lab/iot_link/network/mqtt/paho_mqtt/paho/MQTTClient-C/src\MQTTClient.c ****         rc = MQTT_SUCCESS;
 229              		.loc 1 46 0
 230 007c 0023     		movs	r3, #0
 231 007e 7B61     		str	r3, [r7, #20]
 232 0080 02E0     		b	.L12
 233              	.L11:
  47:C:/Users/dtjld/workspace/AIoT/src/LiteOS_Lab/iot_link/network/mqtt/paho_mqtt/paho/MQTTClient-C/src\MQTTClient.c ****     }
  48:C:/Users/dtjld/workspace/AIoT/src/LiteOS_Lab/iot_link/network/mqtt/paho_mqtt/paho/MQTTClient-C/src\MQTTClient.c ****     else
  49:C:/Users/dtjld/workspace/AIoT/src/LiteOS_Lab/iot_link/network/mqtt/paho_mqtt/paho/MQTTClient-C/src\MQTTClient.c ****         rc = FAILURE;
 234              		.loc 1 49 0
 235 0082 4FF0FF33 		mov	r3, #-1
 236 0086 7B61     		str	r3, [r7, #20]
 237              	.L12:
  50:C:/Users/dtjld/workspace/AIoT/src/LiteOS_Lab/iot_link/network/mqtt/paho_mqtt/paho/MQTTClient-C/src\MQTTClient.c ****     return rc;
ARM GAS  C:\Users\dtjld\AppData\Local\Temp\cc8xzzLd.s 			page 6


 238              		.loc 1 50 0
 239 0088 7B69     		ldr	r3, [r7, #20]
  51:C:/Users/dtjld/workspace/AIoT/src/LiteOS_Lab/iot_link/network/mqtt/paho_mqtt/paho/MQTTClient-C/src\MQTTClient.c **** }
 240              		.loc 1 51 0
 241 008a 1846     		mov	r0, r3
 242 008c 1C37     		adds	r7, r7, #28
 243              	.LCFI15:
 244              		.cfi_def_cfa_offset 20
 245 008e BD46     		mov	sp, r7
 246              	.LCFI16:
 247              		.cfi_def_cfa_register 13
 248              		@ sp needed
 249 0090 F0BD     		pop	{r4, r5, r6, r7, pc}
 250              		.cfi_endproc
 251              	.LFE6:
 253              		.section	.text.MQTTClientInit,"ax",%progbits
 254              		.align	1
 255              		.global	MQTTClientInit
 256              		.syntax unified
 257              		.thumb
 258              		.thumb_func
 259              		.fpu fpv4-sp-d16
 261              	MQTTClientInit:
 262              	.LFB7:
  52:C:/Users/dtjld/workspace/AIoT/src/LiteOS_Lab/iot_link/network/mqtt/paho_mqtt/paho/MQTTClient-C/src\MQTTClient.c **** 
  53:C:/Users/dtjld/workspace/AIoT/src/LiteOS_Lab/iot_link/network/mqtt/paho_mqtt/paho/MQTTClient-C/src\MQTTClient.c **** 
  54:C:/Users/dtjld/workspace/AIoT/src/LiteOS_Lab/iot_link/network/mqtt/paho_mqtt/paho/MQTTClient-C/src\MQTTClient.c **** int MQTTClientInit(MQTTClient* c, Network* network, unsigned int command_timeout_ms,
  55:C:/Users/dtjld/workspace/AIoT/src/LiteOS_Lab/iot_link/network/mqtt/paho_mqtt/paho/MQTTClient-C/src\MQTTClient.c ****                     unsigned char *sendbuf, size_t sendbuf_size, unsigned char *readbuf, size_t rea
  56:C:/Users/dtjld/workspace/AIoT/src/LiteOS_Lab/iot_link/network/mqtt/paho_mqtt/paho/MQTTClient-C/src\MQTTClient.c **** {
 263              		.loc 1 56 0
 264              		.cfi_startproc
 265              		@ args = 12, pretend = 0, frame = 24
 266              		@ frame_needed = 1, uses_anonymous_args = 0
 267 0000 80B5     		push	{r7, lr}
 268              	.LCFI17:
 269              		.cfi_def_cfa_offset 8
 270              		.cfi_offset 7, -8
 271              		.cfi_offset 14, -4
 272 0002 86B0     		sub	sp, sp, #24
 273              	.LCFI18:
 274              		.cfi_def_cfa_offset 32
 275 0004 00AF     		add	r7, sp, #0
 276              	.LCFI19:
 277              		.cfi_def_cfa_register 7
 278 0006 F860     		str	r0, [r7, #12]
 279 0008 B960     		str	r1, [r7, #8]
 280 000a 7A60     		str	r2, [r7, #4]
 281 000c 3B60     		str	r3, [r7]
  57:C:/Users/dtjld/workspace/AIoT/src/LiteOS_Lab/iot_link/network/mqtt/paho_mqtt/paho/MQTTClient-C/src\MQTTClient.c ****     int i;
  58:C:/Users/dtjld/workspace/AIoT/src/LiteOS_Lab/iot_link/network/mqtt/paho_mqtt/paho/MQTTClient-C/src\MQTTClient.c ****     c->ipstack = network;
 282              		.loc 1 58 0
 283 000e FB68     		ldr	r3, [r7, #12]
 284 0010 BA68     		ldr	r2, [r7, #8]
 285 0012 9A66     		str	r2, [r3, #104]
  59:C:/Users/dtjld/workspace/AIoT/src/LiteOS_Lab/iot_link/network/mqtt/paho_mqtt/paho/MQTTClient-C/src\MQTTClient.c **** 
  60:C:/Users/dtjld/workspace/AIoT/src/LiteOS_Lab/iot_link/network/mqtt/paho_mqtt/paho/MQTTClient-C/src\MQTTClient.c ****     for (i = 0; i < MAX_MESSAGE_HANDLERS; ++i)
 286              		.loc 1 60 0
ARM GAS  C:\Users\dtjld\AppData\Local\Temp\cc8xzzLd.s 			page 7


 287 0014 0023     		movs	r3, #0
 288 0016 7B61     		str	r3, [r7, #20]
 289 0018 0CE0     		b	.L16
 290              	.L17:
  61:C:/Users/dtjld/workspace/AIoT/src/LiteOS_Lab/iot_link/network/mqtt/paho_mqtt/paho/MQTTClient-C/src\MQTTClient.c ****         c->messageHandlers[i].topicFilter = 0;
 291              		.loc 1 61 0 discriminator 3
 292 001a F968     		ldr	r1, [r7, #12]
 293 001c 7A69     		ldr	r2, [r7, #20]
 294 001e 1346     		mov	r3, r2
 295 0020 5B00     		lsls	r3, r3, #1
 296 0022 1344     		add	r3, r3, r2
 297 0024 9B00     		lsls	r3, r3, #2
 298 0026 0B44     		add	r3, r3, r1
 299 0028 2833     		adds	r3, r3, #40
 300 002a 0022     		movs	r2, #0
 301 002c 1A60     		str	r2, [r3]
  60:C:/Users/dtjld/workspace/AIoT/src/LiteOS_Lab/iot_link/network/mqtt/paho_mqtt/paho/MQTTClient-C/src\MQTTClient.c ****         c->messageHandlers[i].topicFilter = 0;
 302              		.loc 1 60 0 discriminator 3
 303 002e 7B69     		ldr	r3, [r7, #20]
 304 0030 0133     		adds	r3, r3, #1
 305 0032 7B61     		str	r3, [r7, #20]
 306              	.L16:
  60:C:/Users/dtjld/workspace/AIoT/src/LiteOS_Lab/iot_link/network/mqtt/paho_mqtt/paho/MQTTClient-C/src\MQTTClient.c ****         c->messageHandlers[i].topicFilter = 0;
 307              		.loc 1 60 0 is_stmt 0 discriminator 1
 308 0034 7B69     		ldr	r3, [r7, #20]
 309 0036 042B     		cmp	r3, #4
 310 0038 EFDD     		ble	.L17
  62:C:/Users/dtjld/workspace/AIoT/src/LiteOS_Lab/iot_link/network/mqtt/paho_mqtt/paho/MQTTClient-C/src\MQTTClient.c ****     c->command_timeout_ms = command_timeout_ms;
 311              		.loc 1 62 0 is_stmt 1
 312 003a FB68     		ldr	r3, [r7, #12]
 313 003c 7A68     		ldr	r2, [r7, #4]
 314 003e 5A60     		str	r2, [r3, #4]
  63:C:/Users/dtjld/workspace/AIoT/src/LiteOS_Lab/iot_link/network/mqtt/paho_mqtt/paho/MQTTClient-C/src\MQTTClient.c ****     c->buf = sendbuf;
 315              		.loc 1 63 0
 316 0040 FB68     		ldr	r3, [r7, #12]
 317 0042 3A68     		ldr	r2, [r7]
 318 0044 1A61     		str	r2, [r3, #16]
  64:C:/Users/dtjld/workspace/AIoT/src/LiteOS_Lab/iot_link/network/mqtt/paho_mqtt/paho/MQTTClient-C/src\MQTTClient.c ****     c->buf_size = sendbuf_size;
 319              		.loc 1 64 0
 320 0046 FB68     		ldr	r3, [r7, #12]
 321 0048 3A6A     		ldr	r2, [r7, #32]
 322 004a 9A60     		str	r2, [r3, #8]
  65:C:/Users/dtjld/workspace/AIoT/src/LiteOS_Lab/iot_link/network/mqtt/paho_mqtt/paho/MQTTClient-C/src\MQTTClient.c ****     c->readbuf = readbuf;
 323              		.loc 1 65 0
 324 004c FB68     		ldr	r3, [r7, #12]
 325 004e 7A6A     		ldr	r2, [r7, #36]
 326 0050 5A61     		str	r2, [r3, #20]
  66:C:/Users/dtjld/workspace/AIoT/src/LiteOS_Lab/iot_link/network/mqtt/paho_mqtt/paho/MQTTClient-C/src\MQTTClient.c ****     c->readbuf_size = readbuf_size;
 327              		.loc 1 66 0
 328 0052 FB68     		ldr	r3, [r7, #12]
 329 0054 BA6A     		ldr	r2, [r7, #40]
 330 0056 DA60     		str	r2, [r3, #12]
  67:C:/Users/dtjld/workspace/AIoT/src/LiteOS_Lab/iot_link/network/mqtt/paho_mqtt/paho/MQTTClient-C/src\MQTTClient.c ****     c->isconnected = 0;
 331              		.loc 1 67 0
 332 0058 FB68     		ldr	r3, [r7, #12]
 333 005a 0022     		movs	r2, #0
 334 005c 1A62     		str	r2, [r3, #32]
ARM GAS  C:\Users\dtjld\AppData\Local\Temp\cc8xzzLd.s 			page 8


  68:C:/Users/dtjld/workspace/AIoT/src/LiteOS_Lab/iot_link/network/mqtt/paho_mqtt/paho/MQTTClient-C/src\MQTTClient.c ****     c->cleansession = 0;
 335              		.loc 1 68 0
 336 005e FB68     		ldr	r3, [r7, #12]
 337 0060 0022     		movs	r2, #0
 338 0062 5A62     		str	r2, [r3, #36]
  69:C:/Users/dtjld/workspace/AIoT/src/LiteOS_Lab/iot_link/network/mqtt/paho_mqtt/paho/MQTTClient-C/src\MQTTClient.c ****     c->ping_outstanding = 0;
 339              		.loc 1 69 0
 340 0064 FB68     		ldr	r3, [r7, #12]
 341 0066 0022     		movs	r2, #0
 342 0068 1A77     		strb	r2, [r3, #28]
  70:C:/Users/dtjld/workspace/AIoT/src/LiteOS_Lab/iot_link/network/mqtt/paho_mqtt/paho/MQTTClient-C/src\MQTTClient.c ****     c->defaultMessageHandler = NULL;
 343              		.loc 1 70 0
 344 006a FB68     		ldr	r3, [r7, #12]
 345 006c 0022     		movs	r2, #0
 346 006e 5A66     		str	r2, [r3, #100]
  71:C:/Users/dtjld/workspace/AIoT/src/LiteOS_Lab/iot_link/network/mqtt/paho_mqtt/paho/MQTTClient-C/src\MQTTClient.c **** 	c->next_packetid = 1;
 347              		.loc 1 71 0
 348 0070 FB68     		ldr	r3, [r7, #12]
 349 0072 0122     		movs	r2, #1
 350 0074 1A60     		str	r2, [r3]
  72:C:/Users/dtjld/workspace/AIoT/src/LiteOS_Lab/iot_link/network/mqtt/paho_mqtt/paho/MQTTClient-C/src\MQTTClient.c ****     TimerInit(&c->last_sent);
 351              		.loc 1 72 0
 352 0076 FB68     		ldr	r3, [r7, #12]
 353 0078 7033     		adds	r3, r3, #112
 354 007a 1846     		mov	r0, r3
 355 007c FFF7FEFF 		bl	osal_loop_timer_init
  73:C:/Users/dtjld/workspace/AIoT/src/LiteOS_Lab/iot_link/network/mqtt/paho_mqtt/paho/MQTTClient-C/src\MQTTClient.c ****     TimerInit(&c->last_received);
 356              		.loc 1 73 0
 357 0080 FB68     		ldr	r3, [r7, #12]
 358 0082 7833     		adds	r3, r3, #120
 359 0084 1846     		mov	r0, r3
 360 0086 FFF7FEFF 		bl	osal_loop_timer_init
  74:C:/Users/dtjld/workspace/AIoT/src/LiteOS_Lab/iot_link/network/mqtt/paho_mqtt/paho/MQTTClient-C/src\MQTTClient.c **** #if defined(MQTT_TASK)
  75:C:/Users/dtjld/workspace/AIoT/src/LiteOS_Lab/iot_link/network/mqtt/paho_mqtt/paho/MQTTClient-C/src\MQTTClient.c ****     if (MutexInit(&c->mutex) != 0)
 361              		.loc 1 75 0
 362 008a FB68     		ldr	r3, [r7, #12]
 363 008c 8033     		adds	r3, r3, #128
 364 008e 1846     		mov	r0, r3
 365 0090 FFF7FEFF 		bl	osal_mutex_create
 366 0094 0346     		mov	r3, r0
 367 0096 012B     		cmp	r3, #1
 368 0098 02D0     		beq	.L18
  76:C:/Users/dtjld/workspace/AIoT/src/LiteOS_Lab/iot_link/network/mqtt/paho_mqtt/paho/MQTTClient-C/src\MQTTClient.c ****     {
  77:C:/Users/dtjld/workspace/AIoT/src/LiteOS_Lab/iot_link/network/mqtt/paho_mqtt/paho/MQTTClient-C/src\MQTTClient.c ****         return FAILURE;
 369              		.loc 1 77 0
 370 009a 4FF0FF33 		mov	r3, #-1
 371 009e 00E0     		b	.L19
 372              	.L18:
  78:C:/Users/dtjld/workspace/AIoT/src/LiteOS_Lab/iot_link/network/mqtt/paho_mqtt/paho/MQTTClient-C/src\MQTTClient.c ****     }
  79:C:/Users/dtjld/workspace/AIoT/src/LiteOS_Lab/iot_link/network/mqtt/paho_mqtt/paho/MQTTClient-C/src\MQTTClient.c **** #endif
  80:C:/Users/dtjld/workspace/AIoT/src/LiteOS_Lab/iot_link/network/mqtt/paho_mqtt/paho/MQTTClient-C/src\MQTTClient.c ****     return MQTT_SUCCESS;
 373              		.loc 1 80 0
 374 00a0 0023     		movs	r3, #0
 375              	.L19:
  81:C:/Users/dtjld/workspace/AIoT/src/LiteOS_Lab/iot_link/network/mqtt/paho_mqtt/paho/MQTTClient-C/src\MQTTClient.c **** }
 376              		.loc 1 81 0
 377 00a2 1846     		mov	r0, r3
ARM GAS  C:\Users\dtjld\AppData\Local\Temp\cc8xzzLd.s 			page 9


 378 00a4 1837     		adds	r7, r7, #24
 379              	.LCFI20:
 380              		.cfi_def_cfa_offset 8
 381 00a6 BD46     		mov	sp, r7
 382              	.LCFI21:
 383              		.cfi_def_cfa_register 13
 384              		@ sp needed
 385 00a8 80BD     		pop	{r7, pc}
 386              		.cfi_endproc
 387              	.LFE7:
 389              		.section	.text.MQTTClientDeInit,"ax",%progbits
 390              		.align	1
 391              		.global	MQTTClientDeInit
 392              		.syntax unified
 393              		.thumb
 394              		.thumb_func
 395              		.fpu fpv4-sp-d16
 397              	MQTTClientDeInit:
 398              	.LFB8:
  82:C:/Users/dtjld/workspace/AIoT/src/LiteOS_Lab/iot_link/network/mqtt/paho_mqtt/paho/MQTTClient-C/src\MQTTClient.c **** 
  83:C:/Users/dtjld/workspace/AIoT/src/LiteOS_Lab/iot_link/network/mqtt/paho_mqtt/paho/MQTTClient-C/src\MQTTClient.c **** void MQTTClientDeInit(MQTTClient *c)
  84:C:/Users/dtjld/workspace/AIoT/src/LiteOS_Lab/iot_link/network/mqtt/paho_mqtt/paho/MQTTClient-C/src\MQTTClient.c **** {
 399              		.loc 1 84 0
 400              		.cfi_startproc
 401              		@ args = 0, pretend = 0, frame = 8
 402              		@ frame_needed = 1, uses_anonymous_args = 0
 403 0000 80B5     		push	{r7, lr}
 404              	.LCFI22:
 405              		.cfi_def_cfa_offset 8
 406              		.cfi_offset 7, -8
 407              		.cfi_offset 14, -4
 408 0002 82B0     		sub	sp, sp, #8
 409              	.LCFI23:
 410              		.cfi_def_cfa_offset 16
 411 0004 00AF     		add	r7, sp, #0
 412              	.LCFI24:
 413              		.cfi_def_cfa_register 7
 414 0006 7860     		str	r0, [r7, #4]
  85:C:/Users/dtjld/workspace/AIoT/src/LiteOS_Lab/iot_link/network/mqtt/paho_mqtt/paho/MQTTClient-C/src\MQTTClient.c ****     if(!c)
 415              		.loc 1 85 0
 416 0008 7B68     		ldr	r3, [r7, #4]
 417 000a 002B     		cmp	r3, #0
 418 000c 07D0     		beq	.L23
  86:C:/Users/dtjld/workspace/AIoT/src/LiteOS_Lab/iot_link/network/mqtt/paho_mqtt/paho/MQTTClient-C/src\MQTTClient.c ****         return;
  87:C:/Users/dtjld/workspace/AIoT/src/LiteOS_Lab/iot_link/network/mqtt/paho_mqtt/paho/MQTTClient-C/src\MQTTClient.c **** #if defined(MQTT_TASK)
  88:C:/Users/dtjld/workspace/AIoT/src/LiteOS_Lab/iot_link/network/mqtt/paho_mqtt/paho/MQTTClient-C/src\MQTTClient.c ****     MutexDestory(&c->mutex);
 419              		.loc 1 88 0
 420 000e 7B68     		ldr	r3, [r7, #4]
 421 0010 D3F88030 		ldr	r3, [r3, #128]
 422 0014 1846     		mov	r0, r3
 423 0016 FFF7FEFF 		bl	osal_mutex_del
  89:C:/Users/dtjld/workspace/AIoT/src/LiteOS_Lab/iot_link/network/mqtt/paho_mqtt/paho/MQTTClient-C/src\MQTTClient.c **** #endif
  90:C:/Users/dtjld/workspace/AIoT/src/LiteOS_Lab/iot_link/network/mqtt/paho_mqtt/paho/MQTTClient-C/src\MQTTClient.c ****     return;
 424              		.loc 1 90 0
 425 001a 00BF     		nop
 426 001c 00E0     		b	.L20
 427              	.L23:
ARM GAS  C:\Users\dtjld\AppData\Local\Temp\cc8xzzLd.s 			page 10


  86:C:/Users/dtjld/workspace/AIoT/src/LiteOS_Lab/iot_link/network/mqtt/paho_mqtt/paho/MQTTClient-C/src\MQTTClient.c ****         return;
 428              		.loc 1 86 0
 429 001e 00BF     		nop
 430              	.L20:
  91:C:/Users/dtjld/workspace/AIoT/src/LiteOS_Lab/iot_link/network/mqtt/paho_mqtt/paho/MQTTClient-C/src\MQTTClient.c **** }
 431              		.loc 1 91 0
 432 0020 0837     		adds	r7, r7, #8
 433              	.LCFI25:
 434              		.cfi_def_cfa_offset 8
 435 0022 BD46     		mov	sp, r7
 436              	.LCFI26:
 437              		.cfi_def_cfa_register 13
 438              		@ sp needed
 439 0024 80BD     		pop	{r7, pc}
 440              		.cfi_endproc
 441              	.LFE8:
 443              		.section	.text.decodePacket,"ax",%progbits
 444              		.align	1
 445              		.syntax unified
 446              		.thumb
 447              		.thumb_func
 448              		.fpu fpv4-sp-d16
 450              	decodePacket:
 451              	.LFB9:
  92:C:/Users/dtjld/workspace/AIoT/src/LiteOS_Lab/iot_link/network/mqtt/paho_mqtt/paho/MQTTClient-C/src\MQTTClient.c **** 
  93:C:/Users/dtjld/workspace/AIoT/src/LiteOS_Lab/iot_link/network/mqtt/paho_mqtt/paho/MQTTClient-C/src\MQTTClient.c **** static int decodePacket(MQTTClient* c, int* value, int timeout)
  94:C:/Users/dtjld/workspace/AIoT/src/LiteOS_Lab/iot_link/network/mqtt/paho_mqtt/paho/MQTTClient-C/src\MQTTClient.c **** {
 452              		.loc 1 94 0
 453              		.cfi_startproc
 454              		@ args = 0, pretend = 0, frame = 40
 455              		@ frame_needed = 1, uses_anonymous_args = 0
 456 0000 90B5     		push	{r4, r7, lr}
 457              	.LCFI27:
 458              		.cfi_def_cfa_offset 12
 459              		.cfi_offset 4, -12
 460              		.cfi_offset 7, -8
 461              		.cfi_offset 14, -4
 462 0002 8BB0     		sub	sp, sp, #44
 463              	.LCFI28:
 464              		.cfi_def_cfa_offset 56
 465 0004 00AF     		add	r7, sp, #0
 466              	.LCFI29:
 467              		.cfi_def_cfa_register 7
 468 0006 F860     		str	r0, [r7, #12]
 469 0008 B960     		str	r1, [r7, #8]
 470 000a 7A60     		str	r2, [r7, #4]
  95:C:/Users/dtjld/workspace/AIoT/src/LiteOS_Lab/iot_link/network/mqtt/paho_mqtt/paho/MQTTClient-C/src\MQTTClient.c ****     unsigned char i;
  96:C:/Users/dtjld/workspace/AIoT/src/LiteOS_Lab/iot_link/network/mqtt/paho_mqtt/paho/MQTTClient-C/src\MQTTClient.c ****     int multiplier = 1;
 471              		.loc 1 96 0
 472 000c 0123     		movs	r3, #1
 473 000e 7B62     		str	r3, [r7, #36]
  97:C:/Users/dtjld/workspace/AIoT/src/LiteOS_Lab/iot_link/network/mqtt/paho_mqtt/paho/MQTTClient-C/src\MQTTClient.c ****     int len = 0;
 474              		.loc 1 97 0
 475 0010 0023     		movs	r3, #0
 476 0012 3B62     		str	r3, [r7, #32]
  98:C:/Users/dtjld/workspace/AIoT/src/LiteOS_Lab/iot_link/network/mqtt/paho_mqtt/paho/MQTTClient-C/src\MQTTClient.c ****     const int MAX_NO_OF_REMAINING_LENGTH_BYTES = 4;
 477              		.loc 1 98 0
ARM GAS  C:\Users\dtjld\AppData\Local\Temp\cc8xzzLd.s 			page 11


 478 0014 0423     		movs	r3, #4
 479 0016 FB61     		str	r3, [r7, #28]
  99:C:/Users/dtjld/workspace/AIoT/src/LiteOS_Lab/iot_link/network/mqtt/paho_mqtt/paho/MQTTClient-C/src\MQTTClient.c **** 
 100:C:/Users/dtjld/workspace/AIoT/src/LiteOS_Lab/iot_link/network/mqtt/paho_mqtt/paho/MQTTClient-C/src\MQTTClient.c ****     *value = 0;
 480              		.loc 1 100 0
 481 0018 BB68     		ldr	r3, [r7, #8]
 482 001a 0022     		movs	r2, #0
 483 001c 1A60     		str	r2, [r3]
 484              	.L28:
 485              	.LBB2:
 101:C:/Users/dtjld/workspace/AIoT/src/LiteOS_Lab/iot_link/network/mqtt/paho_mqtt/paho/MQTTClient-C/src\MQTTClient.c ****     do
 102:C:/Users/dtjld/workspace/AIoT/src/LiteOS_Lab/iot_link/network/mqtt/paho_mqtt/paho/MQTTClient-C/src\MQTTClient.c ****     {
 103:C:/Users/dtjld/workspace/AIoT/src/LiteOS_Lab/iot_link/network/mqtt/paho_mqtt/paho/MQTTClient-C/src\MQTTClient.c ****         int rc = MQTTPACKET_READ_ERROR;
 486              		.loc 1 103 0
 487 001e 4FF0FF33 		mov	r3, #-1
 488 0022 BB61     		str	r3, [r7, #24]
 104:C:/Users/dtjld/workspace/AIoT/src/LiteOS_Lab/iot_link/network/mqtt/paho_mqtt/paho/MQTTClient-C/src\MQTTClient.c **** 
 105:C:/Users/dtjld/workspace/AIoT/src/LiteOS_Lab/iot_link/network/mqtt/paho_mqtt/paho/MQTTClient-C/src\MQTTClient.c ****         if (++len > MAX_NO_OF_REMAINING_LENGTH_BYTES)
 489              		.loc 1 105 0
 490 0024 3B6A     		ldr	r3, [r7, #32]
 491 0026 0133     		adds	r3, r3, #1
 492 0028 3B62     		str	r3, [r7, #32]
 493 002a 3A6A     		ldr	r2, [r7, #32]
 494 002c FB69     		ldr	r3, [r7, #28]
 495 002e 9A42     		cmp	r2, r3
 496 0030 03DD     		ble	.L25
 106:C:/Users/dtjld/workspace/AIoT/src/LiteOS_Lab/iot_link/network/mqtt/paho_mqtt/paho/MQTTClient-C/src\MQTTClient.c ****         {
 107:C:/Users/dtjld/workspace/AIoT/src/LiteOS_Lab/iot_link/network/mqtt/paho_mqtt/paho/MQTTClient-C/src\MQTTClient.c ****             rc = MQTTPACKET_READ_ERROR; /* bad data */
 497              		.loc 1 107 0
 498 0032 4FF0FF33 		mov	r3, #-1
 499 0036 BB61     		str	r3, [r7, #24]
 108:C:/Users/dtjld/workspace/AIoT/src/LiteOS_Lab/iot_link/network/mqtt/paho_mqtt/paho/MQTTClient-C/src\MQTTClient.c ****             goto exit;
 500              		.loc 1 108 0
 501 0038 21E0     		b	.L26
 502              	.L25:
 109:C:/Users/dtjld/workspace/AIoT/src/LiteOS_Lab/iot_link/network/mqtt/paho_mqtt/paho/MQTTClient-C/src\MQTTClient.c ****         }
 110:C:/Users/dtjld/workspace/AIoT/src/LiteOS_Lab/iot_link/network/mqtt/paho_mqtt/paho/MQTTClient-C/src\MQTTClient.c ****         rc = c->ipstack->mqttread(c->ipstack, &i, 1, timeout);
 503              		.loc 1 110 0
 504 003a FB68     		ldr	r3, [r7, #12]
 505 003c 9B6E     		ldr	r3, [r3, #104]
 506 003e 9C6A     		ldr	r4, [r3, #40]
 507 0040 FB68     		ldr	r3, [r7, #12]
 508 0042 986E     		ldr	r0, [r3, #104]
 509 0044 07F11701 		add	r1, r7, #23
 510 0048 7B68     		ldr	r3, [r7, #4]
 511 004a 0122     		movs	r2, #1
 512 004c A047     		blx	r4
 513              	.LVL1:
 514 004e B861     		str	r0, [r7, #24]
 111:C:/Users/dtjld/workspace/AIoT/src/LiteOS_Lab/iot_link/network/mqtt/paho_mqtt/paho/MQTTClient-C/src\MQTTClient.c ****         if (rc != 1)
 515              		.loc 1 111 0
 516 0050 BB69     		ldr	r3, [r7, #24]
 517 0052 012B     		cmp	r3, #1
 518 0054 12D1     		bne	.L30
 112:C:/Users/dtjld/workspace/AIoT/src/LiteOS_Lab/iot_link/network/mqtt/paho_mqtt/paho/MQTTClient-C/src\MQTTClient.c ****             goto exit;
 113:C:/Users/dtjld/workspace/AIoT/src/LiteOS_Lab/iot_link/network/mqtt/paho_mqtt/paho/MQTTClient-C/src\MQTTClient.c ****         *value += (i & 127) * multiplier;
 519              		.loc 1 113 0
ARM GAS  C:\Users\dtjld\AppData\Local\Temp\cc8xzzLd.s 			page 12


 520 0056 BB68     		ldr	r3, [r7, #8]
 521 0058 1A68     		ldr	r2, [r3]
 522 005a FB7D     		ldrb	r3, [r7, #23]	@ zero_extendqisi2
 523 005c 03F07F03 		and	r3, r3, #127
 524 0060 796A     		ldr	r1, [r7, #36]
 525 0062 01FB03F3 		mul	r3, r1, r3
 526 0066 1A44     		add	r2, r2, r3
 527 0068 BB68     		ldr	r3, [r7, #8]
 528 006a 1A60     		str	r2, [r3]
 114:C:/Users/dtjld/workspace/AIoT/src/LiteOS_Lab/iot_link/network/mqtt/paho_mqtt/paho/MQTTClient-C/src\MQTTClient.c ****         multiplier *= 128;
 529              		.loc 1 114 0
 530 006c 7B6A     		ldr	r3, [r7, #36]
 531 006e DB01     		lsls	r3, r3, #7
 532 0070 7B62     		str	r3, [r7, #36]
 533              	.LBE2:
 115:C:/Users/dtjld/workspace/AIoT/src/LiteOS_Lab/iot_link/network/mqtt/paho_mqtt/paho/MQTTClient-C/src\MQTTClient.c ****     } while ((i & 128) != 0);
 534              		.loc 1 115 0
 535 0072 FB7D     		ldrb	r3, [r7, #23]	@ zero_extendqisi2
 536 0074 5BB2     		sxtb	r3, r3
 537 0076 002B     		cmp	r3, #0
 538 0078 D1DB     		blt	.L28
 116:C:/Users/dtjld/workspace/AIoT/src/LiteOS_Lab/iot_link/network/mqtt/paho_mqtt/paho/MQTTClient-C/src\MQTTClient.c **** exit:
 539              		.loc 1 116 0
 540 007a 00E0     		b	.L26
 541              	.L30:
 542              	.LBB3:
 112:C:/Users/dtjld/workspace/AIoT/src/LiteOS_Lab/iot_link/network/mqtt/paho_mqtt/paho/MQTTClient-C/src\MQTTClient.c ****         *value += (i & 127) * multiplier;
 543              		.loc 1 112 0
 544 007c 00BF     		nop
 545              	.L26:
 546              	.LBE3:
 117:C:/Users/dtjld/workspace/AIoT/src/LiteOS_Lab/iot_link/network/mqtt/paho_mqtt/paho/MQTTClient-C/src\MQTTClient.c ****     return len;
 547              		.loc 1 117 0
 548 007e 3B6A     		ldr	r3, [r7, #32]
 118:C:/Users/dtjld/workspace/AIoT/src/LiteOS_Lab/iot_link/network/mqtt/paho_mqtt/paho/MQTTClient-C/src\MQTTClient.c **** }
 549              		.loc 1 118 0
 550 0080 1846     		mov	r0, r3
 551 0082 2C37     		adds	r7, r7, #44
 552              	.LCFI30:
 553              		.cfi_def_cfa_offset 12
 554 0084 BD46     		mov	sp, r7
 555              	.LCFI31:
 556              		.cfi_def_cfa_register 13
 557              		@ sp needed
 558 0086 90BD     		pop	{r4, r7, pc}
 559              		.cfi_endproc
 560              	.LFE9:
 562              		.section	.text.readPacket,"ax",%progbits
 563              		.align	1
 564              		.syntax unified
 565              		.thumb
 566              		.thumb_func
 567              		.fpu fpv4-sp-d16
 569              	readPacket:
 570              	.LFB10:
 119:C:/Users/dtjld/workspace/AIoT/src/LiteOS_Lab/iot_link/network/mqtt/paho_mqtt/paho/MQTTClient-C/src\MQTTClient.c **** 
 120:C:/Users/dtjld/workspace/AIoT/src/LiteOS_Lab/iot_link/network/mqtt/paho_mqtt/paho/MQTTClient-C/src\MQTTClient.c **** 
ARM GAS  C:\Users\dtjld\AppData\Local\Temp\cc8xzzLd.s 			page 13


 121:C:/Users/dtjld/workspace/AIoT/src/LiteOS_Lab/iot_link/network/mqtt/paho_mqtt/paho/MQTTClient-C/src\MQTTClient.c **** static int readPacket(MQTTClient* c, Timer* timer)
 122:C:/Users/dtjld/workspace/AIoT/src/LiteOS_Lab/iot_link/network/mqtt/paho_mqtt/paho/MQTTClient-C/src\MQTTClient.c **** {
 571              		.loc 1 122 0
 572              		.cfi_startproc
 573              		@ args = 0, pretend = 0, frame = 32
 574              		@ frame_needed = 1, uses_anonymous_args = 0
 575 0000 F0B5     		push	{r4, r5, r6, r7, lr}
 576              	.LCFI32:
 577              		.cfi_def_cfa_offset 20
 578              		.cfi_offset 4, -20
 579              		.cfi_offset 5, -16
 580              		.cfi_offset 6, -12
 581              		.cfi_offset 7, -8
 582              		.cfi_offset 14, -4
 583 0002 89B0     		sub	sp, sp, #36
 584              	.LCFI33:
 585              		.cfi_def_cfa_offset 56
 586 0004 00AF     		add	r7, sp, #0
 587              	.LCFI34:
 588              		.cfi_def_cfa_register 7
 589 0006 F860     		str	r0, [r7, #12]
 590 0008 B960     		str	r1, [r7, #8]
 123:C:/Users/dtjld/workspace/AIoT/src/LiteOS_Lab/iot_link/network/mqtt/paho_mqtt/paho/MQTTClient-C/src\MQTTClient.c ****     MQTTHeader header = {0};
 591              		.loc 1 123 0
 592 000a 0023     		movs	r3, #0
 593 000c 7B61     		str	r3, [r7, #20]
 124:C:/Users/dtjld/workspace/AIoT/src/LiteOS_Lab/iot_link/network/mqtt/paho_mqtt/paho/MQTTClient-C/src\MQTTClient.c ****     int len = 0;
 594              		.loc 1 124 0
 595 000e 0023     		movs	r3, #0
 596 0010 BB61     		str	r3, [r7, #24]
 125:C:/Users/dtjld/workspace/AIoT/src/LiteOS_Lab/iot_link/network/mqtt/paho_mqtt/paho/MQTTClient-C/src\MQTTClient.c ****     int rem_len = 0;
 597              		.loc 1 125 0
 598 0012 0023     		movs	r3, #0
 599 0014 3B61     		str	r3, [r7, #16]
 126:C:/Users/dtjld/workspace/AIoT/src/LiteOS_Lab/iot_link/network/mqtt/paho_mqtt/paho/MQTTClient-C/src\MQTTClient.c **** 
 127:C:/Users/dtjld/workspace/AIoT/src/LiteOS_Lab/iot_link/network/mqtt/paho_mqtt/paho/MQTTClient-C/src\MQTTClient.c ****     /* 1. read the header byte.  This has the packet type in it */
 128:C:/Users/dtjld/workspace/AIoT/src/LiteOS_Lab/iot_link/network/mqtt/paho_mqtt/paho/MQTTClient-C/src\MQTTClient.c ****     int rc = c->ipstack->mqttread(c->ipstack, c->readbuf, 1, TimerLeftMS(timer));
 600              		.loc 1 128 0
 601 0016 FB68     		ldr	r3, [r7, #12]
 602 0018 9B6E     		ldr	r3, [r3, #104]
 603 001a 9C6A     		ldr	r4, [r3, #40]
 604 001c FB68     		ldr	r3, [r7, #12]
 605 001e 9D6E     		ldr	r5, [r3, #104]
 606 0020 FB68     		ldr	r3, [r7, #12]
 607 0022 5E69     		ldr	r6, [r3, #20]
 608 0024 B868     		ldr	r0, [r7, #8]
 609 0026 FFF7FEFF 		bl	osal_loop_timer_left
 610 002a 0346     		mov	r3, r0
 611 002c 0122     		movs	r2, #1
 612 002e 3146     		mov	r1, r6
 613 0030 2846     		mov	r0, r5
 614 0032 A047     		blx	r4
 615              	.LVL2:
 616 0034 F861     		str	r0, [r7, #28]
 129:C:/Users/dtjld/workspace/AIoT/src/LiteOS_Lab/iot_link/network/mqtt/paho_mqtt/paho/MQTTClient-C/src\MQTTClient.c ****     if (rc != 1)
 617              		.loc 1 129 0
 618 0036 FB69     		ldr	r3, [r7, #28]
ARM GAS  C:\Users\dtjld\AppData\Local\Temp\cc8xzzLd.s 			page 14


 619 0038 012B     		cmp	r3, #1
 620 003a 5DD1     		bne	.L37
 130:C:/Users/dtjld/workspace/AIoT/src/LiteOS_Lab/iot_link/network/mqtt/paho_mqtt/paho/MQTTClient-C/src\MQTTClient.c ****         goto exit;
 131:C:/Users/dtjld/workspace/AIoT/src/LiteOS_Lab/iot_link/network/mqtt/paho_mqtt/paho/MQTTClient-C/src\MQTTClient.c **** 
 132:C:/Users/dtjld/workspace/AIoT/src/LiteOS_Lab/iot_link/network/mqtt/paho_mqtt/paho/MQTTClient-C/src\MQTTClient.c ****     len = 1;
 621              		.loc 1 132 0
 622 003c 0123     		movs	r3, #1
 623 003e BB61     		str	r3, [r7, #24]
 133:C:/Users/dtjld/workspace/AIoT/src/LiteOS_Lab/iot_link/network/mqtt/paho_mqtt/paho/MQTTClient-C/src\MQTTClient.c ****     /* 2. read the remaining length.  This is variable in itself */
 134:C:/Users/dtjld/workspace/AIoT/src/LiteOS_Lab/iot_link/network/mqtt/paho_mqtt/paho/MQTTClient-C/src\MQTTClient.c ****     decodePacket(c, &rem_len, TimerLeftMS(timer));
 624              		.loc 1 134 0
 625 0040 B868     		ldr	r0, [r7, #8]
 626 0042 FFF7FEFF 		bl	osal_loop_timer_left
 627 0046 0246     		mov	r2, r0
 628 0048 07F11003 		add	r3, r7, #16
 629 004c 1946     		mov	r1, r3
 630 004e F868     		ldr	r0, [r7, #12]
 631 0050 FFF7FEFF 		bl	decodePacket
 135:C:/Users/dtjld/workspace/AIoT/src/LiteOS_Lab/iot_link/network/mqtt/paho_mqtt/paho/MQTTClient-C/src\MQTTClient.c ****     len += MQTTPacket_encode(c->readbuf + 1, rem_len); /* put the original remaining length back in
 632              		.loc 1 135 0
 633 0054 FB68     		ldr	r3, [r7, #12]
 634 0056 5B69     		ldr	r3, [r3, #20]
 635 0058 0133     		adds	r3, r3, #1
 636 005a 3A69     		ldr	r2, [r7, #16]
 637 005c 1146     		mov	r1, r2
 638 005e 1846     		mov	r0, r3
 639 0060 FFF7FEFF 		bl	MQTTPacket_encode
 640 0064 0246     		mov	r2, r0
 641 0066 BB69     		ldr	r3, [r7, #24]
 642 0068 1344     		add	r3, r3, r2
 643 006a BB61     		str	r3, [r7, #24]
 136:C:/Users/dtjld/workspace/AIoT/src/LiteOS_Lab/iot_link/network/mqtt/paho_mqtt/paho/MQTTClient-C/src\MQTTClient.c **** 
 137:C:/Users/dtjld/workspace/AIoT/src/LiteOS_Lab/iot_link/network/mqtt/paho_mqtt/paho/MQTTClient-C/src\MQTTClient.c ****     if (rem_len > (c->readbuf_size - len))
 644              		.loc 1 137 0
 645 006c FB68     		ldr	r3, [r7, #12]
 646 006e DA68     		ldr	r2, [r3, #12]
 647 0070 BB69     		ldr	r3, [r7, #24]
 648 0072 D31A     		subs	r3, r2, r3
 649 0074 3A69     		ldr	r2, [r7, #16]
 650 0076 9342     		cmp	r3, r2
 651 0078 03D2     		bcs	.L34
 138:C:/Users/dtjld/workspace/AIoT/src/LiteOS_Lab/iot_link/network/mqtt/paho_mqtt/paho/MQTTClient-C/src\MQTTClient.c ****     {
 139:C:/Users/dtjld/workspace/AIoT/src/LiteOS_Lab/iot_link/network/mqtt/paho_mqtt/paho/MQTTClient-C/src\MQTTClient.c ****         rc = BUFFER_OVERFLOW;
 652              		.loc 1 139 0
 653 007a 6FF00103 		mvn	r3, #1
 654 007e FB61     		str	r3, [r7, #28]
 140:C:/Users/dtjld/workspace/AIoT/src/LiteOS_Lab/iot_link/network/mqtt/paho_mqtt/paho/MQTTClient-C/src\MQTTClient.c ****         goto exit;
 655              		.loc 1 140 0
 656 0080 3DE0     		b	.L33
 657              	.L34:
 141:C:/Users/dtjld/workspace/AIoT/src/LiteOS_Lab/iot_link/network/mqtt/paho_mqtt/paho/MQTTClient-C/src\MQTTClient.c ****     }
 142:C:/Users/dtjld/workspace/AIoT/src/LiteOS_Lab/iot_link/network/mqtt/paho_mqtt/paho/MQTTClient-C/src\MQTTClient.c **** 
 143:C:/Users/dtjld/workspace/AIoT/src/LiteOS_Lab/iot_link/network/mqtt/paho_mqtt/paho/MQTTClient-C/src\MQTTClient.c ****     /* 3. read the rest of the buffer using a callback to supply the rest of the data */
 144:C:/Users/dtjld/workspace/AIoT/src/LiteOS_Lab/iot_link/network/mqtt/paho_mqtt/paho/MQTTClient-C/src\MQTTClient.c ****     if (rem_len > 0 && (rc = c->ipstack->mqttread(c->ipstack, c->readbuf + len, rem_len, TimerLeftM
 658              		.loc 1 144 0
 659 0082 3B69     		ldr	r3, [r7, #16]
 660 0084 002B     		cmp	r3, #0
ARM GAS  C:\Users\dtjld\AppData\Local\Temp\cc8xzzLd.s 			page 15


 661 0086 20DD     		ble	.L35
 662              		.loc 1 144 0 is_stmt 0 discriminator 1
 663 0088 FB68     		ldr	r3, [r7, #12]
 664 008a 9B6E     		ldr	r3, [r3, #104]
 665 008c 9C6A     		ldr	r4, [r3, #40]
 666 008e FB68     		ldr	r3, [r7, #12]
 667 0090 9D6E     		ldr	r5, [r3, #104]
 668 0092 FB68     		ldr	r3, [r7, #12]
 669 0094 5A69     		ldr	r2, [r3, #20]
 670 0096 BB69     		ldr	r3, [r7, #24]
 671 0098 D618     		adds	r6, r2, r3
 672 009a 3B69     		ldr	r3, [r7, #16]
 673 009c 7B60     		str	r3, [r7, #4]
 674 009e B868     		ldr	r0, [r7, #8]
 675 00a0 FFF7FEFF 		bl	osal_loop_timer_left
 676 00a4 0346     		mov	r3, r0
 677 00a6 7A68     		ldr	r2, [r7, #4]
 678 00a8 3146     		mov	r1, r6
 679 00aa 2846     		mov	r0, r5
 680 00ac A047     		blx	r4
 681              	.LVL3:
 682 00ae 0246     		mov	r2, r0
 683 00b0 3B69     		ldr	r3, [r7, #16]
 684 00b2 9A42     		cmp	r2, r3
 685 00b4 14BF     		ite	ne
 686 00b6 0123     		movne	r3, #1
 687 00b8 0023     		moveq	r3, #0
 688 00ba DBB2     		uxtb	r3, r3
 689 00bc FB61     		str	r3, [r7, #28]
 690 00be FB69     		ldr	r3, [r7, #28]
 691 00c0 002B     		cmp	r3, #0
 692 00c2 02D0     		beq	.L35
 145:C:/Users/dtjld/workspace/AIoT/src/LiteOS_Lab/iot_link/network/mqtt/paho_mqtt/paho/MQTTClient-C/src\MQTTClient.c ****         rc = 0;
 693              		.loc 1 145 0 is_stmt 1
 694 00c4 0023     		movs	r3, #0
 695 00c6 FB61     		str	r3, [r7, #28]
 146:C:/Users/dtjld/workspace/AIoT/src/LiteOS_Lab/iot_link/network/mqtt/paho_mqtt/paho/MQTTClient-C/src\MQTTClient.c ****         goto exit;
 696              		.loc 1 146 0
 697 00c8 19E0     		b	.L33
 698              	.L35:
 147:C:/Users/dtjld/workspace/AIoT/src/LiteOS_Lab/iot_link/network/mqtt/paho_mqtt/paho/MQTTClient-C/src\MQTTClient.c ****     }
 148:C:/Users/dtjld/workspace/AIoT/src/LiteOS_Lab/iot_link/network/mqtt/paho_mqtt/paho/MQTTClient-C/src\MQTTClient.c **** 
 149:C:/Users/dtjld/workspace/AIoT/src/LiteOS_Lab/iot_link/network/mqtt/paho_mqtt/paho/MQTTClient-C/src\MQTTClient.c ****     header.byte = c->readbuf[0];
 699              		.loc 1 149 0
 700 00ca FB68     		ldr	r3, [r7, #12]
 701 00cc 5B69     		ldr	r3, [r3, #20]
 702 00ce 1B78     		ldrb	r3, [r3]	@ zero_extendqisi2
 703 00d0 3B75     		strb	r3, [r7, #20]
 150:C:/Users/dtjld/workspace/AIoT/src/LiteOS_Lab/iot_link/network/mqtt/paho_mqtt/paho/MQTTClient-C/src\MQTTClient.c ****     rc = header.bits.type;
 704              		.loc 1 150 0
 705 00d2 3B7D     		ldrb	r3, [r7, #20]
 706 00d4 C3F30313 		ubfx	r3, r3, #4, #4
 707 00d8 DBB2     		uxtb	r3, r3
 708 00da FB61     		str	r3, [r7, #28]
 151:C:/Users/dtjld/workspace/AIoT/src/LiteOS_Lab/iot_link/network/mqtt/paho_mqtt/paho/MQTTClient-C/src\MQTTClient.c ****     if (c->keepAliveInterval > 0)
 709              		.loc 1 151 0
 710 00dc FB68     		ldr	r3, [r7, #12]
ARM GAS  C:\Users\dtjld\AppData\Local\Temp\cc8xzzLd.s 			page 16


 711 00de 9B69     		ldr	r3, [r3, #24]
 712 00e0 002B     		cmp	r3, #0
 713 00e2 0BD0     		beq	.L38
 152:C:/Users/dtjld/workspace/AIoT/src/LiteOS_Lab/iot_link/network/mqtt/paho_mqtt/paho/MQTTClient-C/src\MQTTClient.c ****         TimerCountdown(&c->last_received, c->keepAliveInterval); // record the fact that we have su
 714              		.loc 1 152 0
 715 00e4 FB68     		ldr	r3, [r7, #12]
 716 00e6 03F17802 		add	r2, r3, #120
 717 00ea FB68     		ldr	r3, [r7, #12]
 718 00ec 9B69     		ldr	r3, [r3, #24]
 719 00ee 1946     		mov	r1, r3
 720 00f0 1046     		mov	r0, r2
 721 00f2 FFF7FEFF 		bl	osal_loop_timer_count_down
 722 00f6 02E0     		b	.L33
 723              	.L37:
 130:C:/Users/dtjld/workspace/AIoT/src/LiteOS_Lab/iot_link/network/mqtt/paho_mqtt/paho/MQTTClient-C/src\MQTTClient.c **** 
 724              		.loc 1 130 0
 725 00f8 00BF     		nop
 726 00fa 00E0     		b	.L33
 727              	.L38:
 153:C:/Users/dtjld/workspace/AIoT/src/LiteOS_Lab/iot_link/network/mqtt/paho_mqtt/paho/MQTTClient-C/src\MQTTClient.c **** exit:
 728              		.loc 1 153 0
 729 00fc 00BF     		nop
 730              	.L33:
 154:C:/Users/dtjld/workspace/AIoT/src/LiteOS_Lab/iot_link/network/mqtt/paho_mqtt/paho/MQTTClient-C/src\MQTTClient.c ****     return rc;
 731              		.loc 1 154 0
 732 00fe FB69     		ldr	r3, [r7, #28]
 155:C:/Users/dtjld/workspace/AIoT/src/LiteOS_Lab/iot_link/network/mqtt/paho_mqtt/paho/MQTTClient-C/src\MQTTClient.c **** }
 733              		.loc 1 155 0
 734 0100 1846     		mov	r0, r3
 735 0102 2437     		adds	r7, r7, #36
 736              	.LCFI35:
 737              		.cfi_def_cfa_offset 20
 738 0104 BD46     		mov	sp, r7
 739              	.LCFI36:
 740              		.cfi_def_cfa_register 13
 741              		@ sp needed
 742 0106 F0BD     		pop	{r4, r5, r6, r7, pc}
 743              		.cfi_endproc
 744              	.LFE10:
 746              		.section	.text.MQTTTopicMatched,"ax",%progbits
 747              		.align	1
 748              		.syntax unified
 749              		.thumb
 750              		.thumb_func
 751              		.fpu fpv4-sp-d16
 753              	MQTTTopicMatched:
 754              	.LFB11:
 156:C:/Users/dtjld/workspace/AIoT/src/LiteOS_Lab/iot_link/network/mqtt/paho_mqtt/paho/MQTTClient-C/src\MQTTClient.c **** 
 157:C:/Users/dtjld/workspace/AIoT/src/LiteOS_Lab/iot_link/network/mqtt/paho_mqtt/paho/MQTTClient-C/src\MQTTClient.c **** /**
 158:C:/Users/dtjld/workspace/AIoT/src/LiteOS_Lab/iot_link/network/mqtt/paho_mqtt/paho/MQTTClient-C/src\MQTTClient.c ****  * Copyright (c) 2009-2018 Roger Light <roger@atchoo.org>
 159:C:/Users/dtjld/workspace/AIoT/src/LiteOS_Lab/iot_link/network/mqtt/paho_mqtt/paho/MQTTClient-C/src\MQTTClient.c ****  * licensed under the Eclipse Public License 1.0 and the Eclipse Distribution License 1.0
 160:C:/Users/dtjld/workspace/AIoT/src/LiteOS_Lab/iot_link/network/mqtt/paho_mqtt/paho/MQTTClient-C/src\MQTTClient.c ****  */
 161:C:/Users/dtjld/workspace/AIoT/src/LiteOS_Lab/iot_link/network/mqtt/paho_mqtt/paho/MQTTClient-C/src\MQTTClient.c **** static int MQTTTopicMatched(const char *sub, MQTTString *topic_name, char *result)
 162:C:/Users/dtjld/workspace/AIoT/src/LiteOS_Lab/iot_link/network/mqtt/paho_mqtt/paho/MQTTClient-C/src\MQTTClient.c **** {
 755              		.loc 1 162 0
 756              		.cfi_startproc
 757              		@ args = 0, pretend = 0, frame = 40
ARM GAS  C:\Users\dtjld\AppData\Local\Temp\cc8xzzLd.s 			page 17


 758              		@ frame_needed = 1, uses_anonymous_args = 0
 759 0000 80B5     		push	{r7, lr}
 760              	.LCFI37:
 761              		.cfi_def_cfa_offset 8
 762              		.cfi_offset 7, -8
 763              		.cfi_offset 14, -4
 764 0002 8AB0     		sub	sp, sp, #40
 765              	.LCFI38:
 766              		.cfi_def_cfa_offset 48
 767 0004 00AF     		add	r7, sp, #0
 768              	.LCFI39:
 769              		.cfi_def_cfa_register 7
 770 0006 F860     		str	r0, [r7, #12]
 771 0008 B960     		str	r1, [r7, #8]
 772 000a 7A60     		str	r2, [r7, #4]
 163:C:/Users/dtjld/workspace/AIoT/src/LiteOS_Lab/iot_link/network/mqtt/paho_mqtt/paho/MQTTClient-C/src\MQTTClient.c ****     int sublen, topiclen;
 164:C:/Users/dtjld/workspace/AIoT/src/LiteOS_Lab/iot_link/network/mqtt/paho_mqtt/paho/MQTTClient-C/src\MQTTClient.c ****     int spos, tpos;
 165:C:/Users/dtjld/workspace/AIoT/src/LiteOS_Lab/iot_link/network/mqtt/paho_mqtt/paho/MQTTClient-C/src\MQTTClient.c ****     char multilevel_wildcard = 0;
 773              		.loc 1 165 0
 774 000c 0023     		movs	r3, #0
 775 000e FB75     		strb	r3, [r7, #23]
 166:C:/Users/dtjld/workspace/AIoT/src/LiteOS_Lab/iot_link/network/mqtt/paho_mqtt/paho/MQTTClient-C/src\MQTTClient.c ****     char *topic;
 167:C:/Users/dtjld/workspace/AIoT/src/LiteOS_Lab/iot_link/network/mqtt/paho_mqtt/paho/MQTTClient-C/src\MQTTClient.c **** 
 168:C:/Users/dtjld/workspace/AIoT/src/LiteOS_Lab/iot_link/network/mqtt/paho_mqtt/paho/MQTTClient-C/src\MQTTClient.c ****     if(!result)
 776              		.loc 1 168 0
 777 0010 7B68     		ldr	r3, [r7, #4]
 778 0012 002B     		cmp	r3, #0
 779 0014 02D1     		bne	.L40
 169:C:/Users/dtjld/workspace/AIoT/src/LiteOS_Lab/iot_link/network/mqtt/paho_mqtt/paho/MQTTClient-C/src\MQTTClient.c ****         return -1;
 780              		.loc 1 169 0
 781 0016 4FF0FF33 		mov	r3, #-1
 782 001a 54E1     		b	.L41
 783              	.L40:
 170:C:/Users/dtjld/workspace/AIoT/src/LiteOS_Lab/iot_link/network/mqtt/paho_mqtt/paho/MQTTClient-C/src\MQTTClient.c ****     *result = 0;
 784              		.loc 1 170 0
 785 001c 7B68     		ldr	r3, [r7, #4]
 786 001e 0022     		movs	r2, #0
 787 0020 1A70     		strb	r2, [r3]
 171:C:/Users/dtjld/workspace/AIoT/src/LiteOS_Lab/iot_link/network/mqtt/paho_mqtt/paho/MQTTClient-C/src\MQTTClient.c **** 
 172:C:/Users/dtjld/workspace/AIoT/src/LiteOS_Lab/iot_link/network/mqtt/paho_mqtt/paho/MQTTClient-C/src\MQTTClient.c ****     if(!sub || !topic_name)
 788              		.loc 1 172 0
 789 0022 FB68     		ldr	r3, [r7, #12]
 790 0024 002B     		cmp	r3, #0
 791 0026 02D0     		beq	.L42
 792              		.loc 1 172 0 is_stmt 0 discriminator 1
 793 0028 BB68     		ldr	r3, [r7, #8]
 794 002a 002B     		cmp	r3, #0
 795 002c 02D1     		bne	.L43
 796              	.L42:
 173:C:/Users/dtjld/workspace/AIoT/src/LiteOS_Lab/iot_link/network/mqtt/paho_mqtt/paho/MQTTClient-C/src\MQTTClient.c ****     {
 174:C:/Users/dtjld/workspace/AIoT/src/LiteOS_Lab/iot_link/network/mqtt/paho_mqtt/paho/MQTTClient-C/src\MQTTClient.c ****         return -1;
 797              		.loc 1 174 0 is_stmt 1
 798 002e 4FF0FF33 		mov	r3, #-1
 799 0032 48E1     		b	.L41
 800              	.L43:
 175:C:/Users/dtjld/workspace/AIoT/src/LiteOS_Lab/iot_link/network/mqtt/paho_mqtt/paho/MQTTClient-C/src\MQTTClient.c ****     }
 176:C:/Users/dtjld/workspace/AIoT/src/LiteOS_Lab/iot_link/network/mqtt/paho_mqtt/paho/MQTTClient-C/src\MQTTClient.c **** 
ARM GAS  C:\Users\dtjld\AppData\Local\Temp\cc8xzzLd.s 			page 18


 177:C:/Users/dtjld/workspace/AIoT/src/LiteOS_Lab/iot_link/network/mqtt/paho_mqtt/paho/MQTTClient-C/src\MQTTClient.c ****     sublen = strlen(sub);
 801              		.loc 1 177 0
 802 0034 F868     		ldr	r0, [r7, #12]
 803 0036 FFF7FEFF 		bl	strlen
 804 003a 0346     		mov	r3, r0
 805 003c 3B61     		str	r3, [r7, #16]
 178:C:/Users/dtjld/workspace/AIoT/src/LiteOS_Lab/iot_link/network/mqtt/paho_mqtt/paho/MQTTClient-C/src\MQTTClient.c **** 
 179:C:/Users/dtjld/workspace/AIoT/src/LiteOS_Lab/iot_link/network/mqtt/paho_mqtt/paho/MQTTClient-C/src\MQTTClient.c ****     if(topic_name->cstring)
 806              		.loc 1 179 0
 807 003e BB68     		ldr	r3, [r7, #8]
 808 0040 1B68     		ldr	r3, [r3]
 809 0042 002B     		cmp	r3, #0
 810 0044 0AD0     		beq	.L44
 180:C:/Users/dtjld/workspace/AIoT/src/LiteOS_Lab/iot_link/network/mqtt/paho_mqtt/paho/MQTTClient-C/src\MQTTClient.c ****     {
 181:C:/Users/dtjld/workspace/AIoT/src/LiteOS_Lab/iot_link/network/mqtt/paho_mqtt/paho/MQTTClient-C/src\MQTTClient.c ****         topic = topic_name->cstring;
 811              		.loc 1 181 0
 812 0046 BB68     		ldr	r3, [r7, #8]
 813 0048 1B68     		ldr	r3, [r3]
 814 004a BB61     		str	r3, [r7, #24]
 182:C:/Users/dtjld/workspace/AIoT/src/LiteOS_Lab/iot_link/network/mqtt/paho_mqtt/paho/MQTTClient-C/src\MQTTClient.c ****         topiclen = strlen(topic_name->cstring);
 815              		.loc 1 182 0
 816 004c BB68     		ldr	r3, [r7, #8]
 817 004e 1B68     		ldr	r3, [r3]
 818 0050 1846     		mov	r0, r3
 819 0052 FFF7FEFF 		bl	strlen
 820 0056 0346     		mov	r3, r0
 821 0058 7B62     		str	r3, [r7, #36]
 822 005a 05E0     		b	.L45
 823              	.L44:
 183:C:/Users/dtjld/workspace/AIoT/src/LiteOS_Lab/iot_link/network/mqtt/paho_mqtt/paho/MQTTClient-C/src\MQTTClient.c ****     }
 184:C:/Users/dtjld/workspace/AIoT/src/LiteOS_Lab/iot_link/network/mqtt/paho_mqtt/paho/MQTTClient-C/src\MQTTClient.c ****     else
 185:C:/Users/dtjld/workspace/AIoT/src/LiteOS_Lab/iot_link/network/mqtt/paho_mqtt/paho/MQTTClient-C/src\MQTTClient.c ****     {
 186:C:/Users/dtjld/workspace/AIoT/src/LiteOS_Lab/iot_link/network/mqtt/paho_mqtt/paho/MQTTClient-C/src\MQTTClient.c ****         topic = topic_name->lenstring.data;
 824              		.loc 1 186 0
 825 005c BB68     		ldr	r3, [r7, #8]
 826 005e 9B68     		ldr	r3, [r3, #8]
 827 0060 BB61     		str	r3, [r7, #24]
 187:C:/Users/dtjld/workspace/AIoT/src/LiteOS_Lab/iot_link/network/mqtt/paho_mqtt/paho/MQTTClient-C/src\MQTTClient.c ****         topiclen = topic_name->lenstring.len;
 828              		.loc 1 187 0
 829 0062 BB68     		ldr	r3, [r7, #8]
 830 0064 5B68     		ldr	r3, [r3, #4]
 831 0066 7B62     		str	r3, [r7, #36]
 832              	.L45:
 188:C:/Users/dtjld/workspace/AIoT/src/LiteOS_Lab/iot_link/network/mqtt/paho_mqtt/paho/MQTTClient-C/src\MQTTClient.c ****     }
 189:C:/Users/dtjld/workspace/AIoT/src/LiteOS_Lab/iot_link/network/mqtt/paho_mqtt/paho/MQTTClient-C/src\MQTTClient.c **** 
 190:C:/Users/dtjld/workspace/AIoT/src/LiteOS_Lab/iot_link/network/mqtt/paho_mqtt/paho/MQTTClient-C/src\MQTTClient.c ****     if(!sublen || !topiclen)
 833              		.loc 1 190 0
 834 0068 3B69     		ldr	r3, [r7, #16]
 835 006a 002B     		cmp	r3, #0
 836 006c 02D0     		beq	.L46
 837              		.loc 1 190 0 is_stmt 0 discriminator 1
 838 006e 7B6A     		ldr	r3, [r7, #36]
 839 0070 002B     		cmp	r3, #0
 840 0072 05D1     		bne	.L47
 841              	.L46:
 191:C:/Users/dtjld/workspace/AIoT/src/LiteOS_Lab/iot_link/network/mqtt/paho_mqtt/paho/MQTTClient-C/src\MQTTClient.c ****     {
 192:C:/Users/dtjld/workspace/AIoT/src/LiteOS_Lab/iot_link/network/mqtt/paho_mqtt/paho/MQTTClient-C/src\MQTTClient.c ****         *result = 0;
ARM GAS  C:\Users\dtjld\AppData\Local\Temp\cc8xzzLd.s 			page 19


 842              		.loc 1 192 0 is_stmt 1
 843 0074 7B68     		ldr	r3, [r7, #4]
 844 0076 0022     		movs	r2, #0
 845 0078 1A70     		strb	r2, [r3]
 193:C:/Users/dtjld/workspace/AIoT/src/LiteOS_Lab/iot_link/network/mqtt/paho_mqtt/paho/MQTTClient-C/src\MQTTClient.c ****         return -1;
 846              		.loc 1 193 0
 847 007a 4FF0FF33 		mov	r3, #-1
 848 007e 22E1     		b	.L41
 849              	.L47:
 194:C:/Users/dtjld/workspace/AIoT/src/LiteOS_Lab/iot_link/network/mqtt/paho_mqtt/paho/MQTTClient-C/src\MQTTClient.c ****     }
 195:C:/Users/dtjld/workspace/AIoT/src/LiteOS_Lab/iot_link/network/mqtt/paho_mqtt/paho/MQTTClient-C/src\MQTTClient.c **** 
 196:C:/Users/dtjld/workspace/AIoT/src/LiteOS_Lab/iot_link/network/mqtt/paho_mqtt/paho/MQTTClient-C/src\MQTTClient.c ****     if(sublen && topiclen)
 850              		.loc 1 196 0
 851 0080 3B69     		ldr	r3, [r7, #16]
 852 0082 002B     		cmp	r3, #0
 853 0084 14D0     		beq	.L48
 854              		.loc 1 196 0 is_stmt 0 discriminator 1
 855 0086 7B6A     		ldr	r3, [r7, #36]
 856 0088 002B     		cmp	r3, #0
 857 008a 11D0     		beq	.L48
 197:C:/Users/dtjld/workspace/AIoT/src/LiteOS_Lab/iot_link/network/mqtt/paho_mqtt/paho/MQTTClient-C/src\MQTTClient.c ****     {
 198:C:/Users/dtjld/workspace/AIoT/src/LiteOS_Lab/iot_link/network/mqtt/paho_mqtt/paho/MQTTClient-C/src\MQTTClient.c ****         if((sub[0] == '$' && topic[0] != '$')
 858              		.loc 1 198 0 is_stmt 1
 859 008c FB68     		ldr	r3, [r7, #12]
 860 008e 1B78     		ldrb	r3, [r3]	@ zero_extendqisi2
 861 0090 242B     		cmp	r3, #36
 862 0092 03D1     		bne	.L49
 863              		.loc 1 198 0 is_stmt 0 discriminator 1
 864 0094 BB69     		ldr	r3, [r7, #24]
 865 0096 1B78     		ldrb	r3, [r3]	@ zero_extendqisi2
 866 0098 242B     		cmp	r3, #36
 867 009a 07D1     		bne	.L50
 868              	.L49:
 199:C:/Users/dtjld/workspace/AIoT/src/LiteOS_Lab/iot_link/network/mqtt/paho_mqtt/paho/MQTTClient-C/src\MQTTClient.c ****                 || (topic[0] == '$' && sub[0] != '$'))
 869              		.loc 1 199 0 is_stmt 1
 870 009c BB69     		ldr	r3, [r7, #24]
 871 009e 1B78     		ldrb	r3, [r3]	@ zero_extendqisi2
 872 00a0 242B     		cmp	r3, #36
 873 00a2 05D1     		bne	.L48
 874              		.loc 1 199 0 is_stmt 0 discriminator 1
 875 00a4 FB68     		ldr	r3, [r7, #12]
 876 00a6 1B78     		ldrb	r3, [r3]	@ zero_extendqisi2
 877 00a8 242B     		cmp	r3, #36
 878 00aa 01D0     		beq	.L48
 879              	.L50:
 200:C:/Users/dtjld/workspace/AIoT/src/LiteOS_Lab/iot_link/network/mqtt/paho_mqtt/paho/MQTTClient-C/src\MQTTClient.c ****         {
 201:C:/Users/dtjld/workspace/AIoT/src/LiteOS_Lab/iot_link/network/mqtt/paho_mqtt/paho/MQTTClient-C/src\MQTTClient.c ****             return 0;
 880              		.loc 1 201 0 is_stmt 1
 881 00ac 0023     		movs	r3, #0
 882 00ae 0AE1     		b	.L41
 883              	.L48:
 202:C:/Users/dtjld/workspace/AIoT/src/LiteOS_Lab/iot_link/network/mqtt/paho_mqtt/paho/MQTTClient-C/src\MQTTClient.c ****         }
 203:C:/Users/dtjld/workspace/AIoT/src/LiteOS_Lab/iot_link/network/mqtt/paho_mqtt/paho/MQTTClient-C/src\MQTTClient.c ****     }
 204:C:/Users/dtjld/workspace/AIoT/src/LiteOS_Lab/iot_link/network/mqtt/paho_mqtt/paho/MQTTClient-C/src\MQTTClient.c **** 
 205:C:/Users/dtjld/workspace/AIoT/src/LiteOS_Lab/iot_link/network/mqtt/paho_mqtt/paho/MQTTClient-C/src\MQTTClient.c ****     spos = 0;
 884              		.loc 1 205 0
 885 00b0 0023     		movs	r3, #0
ARM GAS  C:\Users\dtjld\AppData\Local\Temp\cc8xzzLd.s 			page 20


 886 00b2 3B62     		str	r3, [r7, #32]
 206:C:/Users/dtjld/workspace/AIoT/src/LiteOS_Lab/iot_link/network/mqtt/paho_mqtt/paho/MQTTClient-C/src\MQTTClient.c ****     tpos = 0;
 887              		.loc 1 206 0
 888 00b4 0023     		movs	r3, #0
 889 00b6 FB61     		str	r3, [r7, #28]
 207:C:/Users/dtjld/workspace/AIoT/src/LiteOS_Lab/iot_link/network/mqtt/paho_mqtt/paho/MQTTClient-C/src\MQTTClient.c **** 
 208:C:/Users/dtjld/workspace/AIoT/src/LiteOS_Lab/iot_link/network/mqtt/paho_mqtt/paho/MQTTClient-C/src\MQTTClient.c ****     while(spos < sublen && tpos <= topiclen)
 890              		.loc 1 208 0
 891 00b8 EDE0     		b	.L51
 892              	.L67:
 209:C:/Users/dtjld/workspace/AIoT/src/LiteOS_Lab/iot_link/network/mqtt/paho_mqtt/paho/MQTTClient-C/src\MQTTClient.c ****     {
 210:C:/Users/dtjld/workspace/AIoT/src/LiteOS_Lab/iot_link/network/mqtt/paho_mqtt/paho/MQTTClient-C/src\MQTTClient.c ****         if(sub[spos] == topic[tpos])
 893              		.loc 1 210 0
 894 00ba 3B6A     		ldr	r3, [r7, #32]
 895 00bc FA68     		ldr	r2, [r7, #12]
 896 00be 1344     		add	r3, r3, r2
 897 00c0 1A78     		ldrb	r2, [r3]	@ zero_extendqisi2
 898 00c2 FB69     		ldr	r3, [r7, #28]
 899 00c4 B969     		ldr	r1, [r7, #24]
 900 00c6 0B44     		add	r3, r3, r1
 901 00c8 1B78     		ldrb	r3, [r3]	@ zero_extendqisi2
 902 00ca 9A42     		cmp	r2, r3
 903 00cc 58D1     		bne	.L52
 211:C:/Users/dtjld/workspace/AIoT/src/LiteOS_Lab/iot_link/network/mqtt/paho_mqtt/paho/MQTTClient-C/src\MQTTClient.c ****         {
 212:C:/Users/dtjld/workspace/AIoT/src/LiteOS_Lab/iot_link/network/mqtt/paho_mqtt/paho/MQTTClient-C/src\MQTTClient.c ****             if(tpos == topiclen - 1)
 904              		.loc 1 212 0
 905 00ce 7B6A     		ldr	r3, [r7, #36]
 906 00d0 013B     		subs	r3, r3, #1
 907 00d2 FA69     		ldr	r2, [r7, #28]
 908 00d4 9A42     		cmp	r2, r3
 909 00d6 19D1     		bne	.L53
 213:C:/Users/dtjld/workspace/AIoT/src/LiteOS_Lab/iot_link/network/mqtt/paho_mqtt/paho/MQTTClient-C/src\MQTTClient.c ****             {
 214:C:/Users/dtjld/workspace/AIoT/src/LiteOS_Lab/iot_link/network/mqtt/paho_mqtt/paho/MQTTClient-C/src\MQTTClient.c ****                 /* Check for e.g. foo matching foo/# */
 215:C:/Users/dtjld/workspace/AIoT/src/LiteOS_Lab/iot_link/network/mqtt/paho_mqtt/paho/MQTTClient-C/src\MQTTClient.c ****                 if(spos == sublen - 3 && sub[spos + 1] == '/' && sub[spos + 2] == '#')
 910              		.loc 1 215 0
 911 00d8 3B69     		ldr	r3, [r7, #16]
 912 00da 033B     		subs	r3, r3, #3
 913 00dc 3A6A     		ldr	r2, [r7, #32]
 914 00de 9A42     		cmp	r2, r3
 915 00e0 14D1     		bne	.L53
 916              		.loc 1 215 0 is_stmt 0 discriminator 1
 917 00e2 3B6A     		ldr	r3, [r7, #32]
 918 00e4 0133     		adds	r3, r3, #1
 919 00e6 FA68     		ldr	r2, [r7, #12]
 920 00e8 1344     		add	r3, r3, r2
 921 00ea 1B78     		ldrb	r3, [r3]	@ zero_extendqisi2
 922 00ec 2F2B     		cmp	r3, #47
 923 00ee 0DD1     		bne	.L53
 924              		.loc 1 215 0 discriminator 2
 925 00f0 3B6A     		ldr	r3, [r7, #32]
 926 00f2 0233     		adds	r3, r3, #2
 927 00f4 FA68     		ldr	r2, [r7, #12]
 928 00f6 1344     		add	r3, r3, r2
 929 00f8 1B78     		ldrb	r3, [r3]	@ zero_extendqisi2
 930 00fa 232B     		cmp	r3, #35
 931 00fc 06D1     		bne	.L53
 216:C:/Users/dtjld/workspace/AIoT/src/LiteOS_Lab/iot_link/network/mqtt/paho_mqtt/paho/MQTTClient-C/src\MQTTClient.c ****                 {
ARM GAS  C:\Users\dtjld\AppData\Local\Temp\cc8xzzLd.s 			page 21


 217:C:/Users/dtjld/workspace/AIoT/src/LiteOS_Lab/iot_link/network/mqtt/paho_mqtt/paho/MQTTClient-C/src\MQTTClient.c ****                     *result = 1;
 932              		.loc 1 217 0 is_stmt 1
 933 00fe 7B68     		ldr	r3, [r7, #4]
 934 0100 0122     		movs	r2, #1
 935 0102 1A70     		strb	r2, [r3]
 218:C:/Users/dtjld/workspace/AIoT/src/LiteOS_Lab/iot_link/network/mqtt/paho_mqtt/paho/MQTTClient-C/src\MQTTClient.c ****                     multilevel_wildcard = 1;
 936              		.loc 1 218 0
 937 0104 0123     		movs	r3, #1
 938 0106 FB75     		strb	r3, [r7, #23]
 219:C:/Users/dtjld/workspace/AIoT/src/LiteOS_Lab/iot_link/network/mqtt/paho_mqtt/paho/MQTTClient-C/src\MQTTClient.c ****                     return 0;
 939              		.loc 1 219 0
 940 0108 0023     		movs	r3, #0
 941 010a DCE0     		b	.L41
 942              	.L53:
 220:C:/Users/dtjld/workspace/AIoT/src/LiteOS_Lab/iot_link/network/mqtt/paho_mqtt/paho/MQTTClient-C/src\MQTTClient.c ****                 }
 221:C:/Users/dtjld/workspace/AIoT/src/LiteOS_Lab/iot_link/network/mqtt/paho_mqtt/paho/MQTTClient-C/src\MQTTClient.c ****             }
 222:C:/Users/dtjld/workspace/AIoT/src/LiteOS_Lab/iot_link/network/mqtt/paho_mqtt/paho/MQTTClient-C/src\MQTTClient.c ****             spos++;
 943              		.loc 1 222 0
 944 010c 3B6A     		ldr	r3, [r7, #32]
 945 010e 0133     		adds	r3, r3, #1
 946 0110 3B62     		str	r3, [r7, #32]
 223:C:/Users/dtjld/workspace/AIoT/src/LiteOS_Lab/iot_link/network/mqtt/paho_mqtt/paho/MQTTClient-C/src\MQTTClient.c ****             tpos++;
 947              		.loc 1 223 0
 948 0112 FB69     		ldr	r3, [r7, #28]
 949 0114 0133     		adds	r3, r3, #1
 950 0116 FB61     		str	r3, [r7, #28]
 224:C:/Users/dtjld/workspace/AIoT/src/LiteOS_Lab/iot_link/network/mqtt/paho_mqtt/paho/MQTTClient-C/src\MQTTClient.c ****             if(spos == sublen && tpos == topiclen)
 951              		.loc 1 224 0
 952 0118 3A6A     		ldr	r2, [r7, #32]
 953 011a 3B69     		ldr	r3, [r7, #16]
 954 011c 9A42     		cmp	r2, r3
 955 011e 08D1     		bne	.L54
 956              		.loc 1 224 0 is_stmt 0 discriminator 1
 957 0120 FA69     		ldr	r2, [r7, #28]
 958 0122 7B6A     		ldr	r3, [r7, #36]
 959 0124 9A42     		cmp	r2, r3
 960 0126 04D1     		bne	.L54
 225:C:/Users/dtjld/workspace/AIoT/src/LiteOS_Lab/iot_link/network/mqtt/paho_mqtt/paho/MQTTClient-C/src\MQTTClient.c ****             {
 226:C:/Users/dtjld/workspace/AIoT/src/LiteOS_Lab/iot_link/network/mqtt/paho_mqtt/paho/MQTTClient-C/src\MQTTClient.c ****                 *result = 1;
 961              		.loc 1 226 0 is_stmt 1
 962 0128 7B68     		ldr	r3, [r7, #4]
 963 012a 0122     		movs	r2, #1
 964 012c 1A70     		strb	r2, [r3]
 227:C:/Users/dtjld/workspace/AIoT/src/LiteOS_Lab/iot_link/network/mqtt/paho_mqtt/paho/MQTTClient-C/src\MQTTClient.c ****                 return 0;
 965              		.loc 1 227 0
 966 012e 0023     		movs	r3, #0
 967 0130 C9E0     		b	.L41
 968              	.L54:
 228:C:/Users/dtjld/workspace/AIoT/src/LiteOS_Lab/iot_link/network/mqtt/paho_mqtt/paho/MQTTClient-C/src\MQTTClient.c ****             }
 229:C:/Users/dtjld/workspace/AIoT/src/LiteOS_Lab/iot_link/network/mqtt/paho_mqtt/paho/MQTTClient-C/src\MQTTClient.c ****             else if(tpos == topiclen && spos == sublen - 1 && sub[spos] == '+')
 969              		.loc 1 229 0
 970 0132 FA69     		ldr	r2, [r7, #28]
 971 0134 7B6A     		ldr	r3, [r7, #36]
 972 0136 9A42     		cmp	r2, r3
 973 0138 40F0AD80 		bne	.L51
 974              		.loc 1 229 0 is_stmt 0 discriminator 1
 975 013c 3B69     		ldr	r3, [r7, #16]
ARM GAS  C:\Users\dtjld\AppData\Local\Temp\cc8xzzLd.s 			page 22


 976 013e 013B     		subs	r3, r3, #1
 977 0140 3A6A     		ldr	r2, [r7, #32]
 978 0142 9A42     		cmp	r2, r3
 979 0144 40F0A780 		bne	.L51
 980              		.loc 1 229 0 discriminator 2
 981 0148 3B6A     		ldr	r3, [r7, #32]
 982 014a FA68     		ldr	r2, [r7, #12]
 983 014c 1344     		add	r3, r3, r2
 984 014e 1B78     		ldrb	r3, [r3]	@ zero_extendqisi2
 985 0150 2B2B     		cmp	r3, #43
 986 0152 40F0A080 		bne	.L51
 230:C:/Users/dtjld/workspace/AIoT/src/LiteOS_Lab/iot_link/network/mqtt/paho_mqtt/paho/MQTTClient-C/src\MQTTClient.c ****             {
 231:C:/Users/dtjld/workspace/AIoT/src/LiteOS_Lab/iot_link/network/mqtt/paho_mqtt/paho/MQTTClient-C/src\MQTTClient.c ****                 if(spos > 0 && sub[spos - 1] != '/')
 987              		.loc 1 231 0 is_stmt 1
 988 0156 3B6A     		ldr	r3, [r7, #32]
 989 0158 002B     		cmp	r3, #0
 990 015a 09DD     		ble	.L55
 991              		.loc 1 231 0 is_stmt 0 discriminator 1
 992 015c 3B6A     		ldr	r3, [r7, #32]
 993 015e 013B     		subs	r3, r3, #1
 994 0160 FA68     		ldr	r2, [r7, #12]
 995 0162 1344     		add	r3, r3, r2
 996 0164 1B78     		ldrb	r3, [r3]	@ zero_extendqisi2
 997 0166 2F2B     		cmp	r3, #47
 998 0168 02D0     		beq	.L55
 232:C:/Users/dtjld/workspace/AIoT/src/LiteOS_Lab/iot_link/network/mqtt/paho_mqtt/paho/MQTTClient-C/src\MQTTClient.c ****                 {
 233:C:/Users/dtjld/workspace/AIoT/src/LiteOS_Lab/iot_link/network/mqtt/paho_mqtt/paho/MQTTClient-C/src\MQTTClient.c ****                     return -1;
 999              		.loc 1 233 0 is_stmt 1
 1000 016a 4FF0FF33 		mov	r3, #-1
 1001 016e AAE0     		b	.L41
 1002              	.L55:
 234:C:/Users/dtjld/workspace/AIoT/src/LiteOS_Lab/iot_link/network/mqtt/paho_mqtt/paho/MQTTClient-C/src\MQTTClient.c ****                 }
 235:C:/Users/dtjld/workspace/AIoT/src/LiteOS_Lab/iot_link/network/mqtt/paho_mqtt/paho/MQTTClient-C/src\MQTTClient.c ****                 spos++;
 1003              		.loc 1 235 0
 1004 0170 3B6A     		ldr	r3, [r7, #32]
 1005 0172 0133     		adds	r3, r3, #1
 1006 0174 3B62     		str	r3, [r7, #32]
 236:C:/Users/dtjld/workspace/AIoT/src/LiteOS_Lab/iot_link/network/mqtt/paho_mqtt/paho/MQTTClient-C/src\MQTTClient.c ****                 *result = 1;
 1007              		.loc 1 236 0
 1008 0176 7B68     		ldr	r3, [r7, #4]
 1009 0178 0122     		movs	r2, #1
 1010 017a 1A70     		strb	r2, [r3]
 237:C:/Users/dtjld/workspace/AIoT/src/LiteOS_Lab/iot_link/network/mqtt/paho_mqtt/paho/MQTTClient-C/src\MQTTClient.c ****                 return 0;
 1011              		.loc 1 237 0
 1012 017c 0023     		movs	r3, #0
 1013 017e A2E0     		b	.L41
 1014              	.L52:
 238:C:/Users/dtjld/workspace/AIoT/src/LiteOS_Lab/iot_link/network/mqtt/paho_mqtt/paho/MQTTClient-C/src\MQTTClient.c ****             }
 239:C:/Users/dtjld/workspace/AIoT/src/LiteOS_Lab/iot_link/network/mqtt/paho_mqtt/paho/MQTTClient-C/src\MQTTClient.c ****         }
 240:C:/Users/dtjld/workspace/AIoT/src/LiteOS_Lab/iot_link/network/mqtt/paho_mqtt/paho/MQTTClient-C/src\MQTTClient.c ****         else
 241:C:/Users/dtjld/workspace/AIoT/src/LiteOS_Lab/iot_link/network/mqtt/paho_mqtt/paho/MQTTClient-C/src\MQTTClient.c ****         {
 242:C:/Users/dtjld/workspace/AIoT/src/LiteOS_Lab/iot_link/network/mqtt/paho_mqtt/paho/MQTTClient-C/src\MQTTClient.c ****             if(sub[spos] == '+')
 1015              		.loc 1 242 0
 1016 0180 3B6A     		ldr	r3, [r7, #32]
 1017 0182 FA68     		ldr	r2, [r7, #12]
 1018 0184 1344     		add	r3, r3, r2
 1019 0186 1B78     		ldrb	r3, [r3]	@ zero_extendqisi2
ARM GAS  C:\Users\dtjld\AppData\Local\Temp\cc8xzzLd.s 			page 23


 1020 0188 2B2B     		cmp	r3, #43
 1021 018a 39D1     		bne	.L56
 243:C:/Users/dtjld/workspace/AIoT/src/LiteOS_Lab/iot_link/network/mqtt/paho_mqtt/paho/MQTTClient-C/src\MQTTClient.c ****             {
 244:C:/Users/dtjld/workspace/AIoT/src/LiteOS_Lab/iot_link/network/mqtt/paho_mqtt/paho/MQTTClient-C/src\MQTTClient.c ****                 /* Check for bad "+foo" or "a/+foo" subscription */
 245:C:/Users/dtjld/workspace/AIoT/src/LiteOS_Lab/iot_link/network/mqtt/paho_mqtt/paho/MQTTClient-C/src\MQTTClient.c ****                 if(spos > 0 && sub[spos - 1] != '/')
 1022              		.loc 1 245 0
 1023 018c 3B6A     		ldr	r3, [r7, #32]
 1024 018e 002B     		cmp	r3, #0
 1025 0190 09DD     		ble	.L57
 1026              		.loc 1 245 0 is_stmt 0 discriminator 1
 1027 0192 3B6A     		ldr	r3, [r7, #32]
 1028 0194 013B     		subs	r3, r3, #1
 1029 0196 FA68     		ldr	r2, [r7, #12]
 1030 0198 1344     		add	r3, r3, r2
 1031 019a 1B78     		ldrb	r3, [r3]	@ zero_extendqisi2
 1032 019c 2F2B     		cmp	r3, #47
 1033 019e 02D0     		beq	.L57
 246:C:/Users/dtjld/workspace/AIoT/src/LiteOS_Lab/iot_link/network/mqtt/paho_mqtt/paho/MQTTClient-C/src\MQTTClient.c ****                 {
 247:C:/Users/dtjld/workspace/AIoT/src/LiteOS_Lab/iot_link/network/mqtt/paho_mqtt/paho/MQTTClient-C/src\MQTTClient.c ****                     return -1;
 1034              		.loc 1 247 0 is_stmt 1
 1035 01a0 4FF0FF33 		mov	r3, #-1
 1036 01a4 8FE0     		b	.L41
 1037              	.L57:
 248:C:/Users/dtjld/workspace/AIoT/src/LiteOS_Lab/iot_link/network/mqtt/paho_mqtt/paho/MQTTClient-C/src\MQTTClient.c ****                 }
 249:C:/Users/dtjld/workspace/AIoT/src/LiteOS_Lab/iot_link/network/mqtt/paho_mqtt/paho/MQTTClient-C/src\MQTTClient.c ****                 /* Check for bad "foo+" or "foo+/a" subscription */
 250:C:/Users/dtjld/workspace/AIoT/src/LiteOS_Lab/iot_link/network/mqtt/paho_mqtt/paho/MQTTClient-C/src\MQTTClient.c ****                 if(spos < sublen - 1 && sub[spos + 1] != '/')
 1038              		.loc 1 250 0
 1039 01a6 3B69     		ldr	r3, [r7, #16]
 1040 01a8 013B     		subs	r3, r3, #1
 1041 01aa 3A6A     		ldr	r2, [r7, #32]
 1042 01ac 9A42     		cmp	r2, r3
 1043 01ae 09DA     		bge	.L58
 1044              		.loc 1 250 0 is_stmt 0 discriminator 1
 1045 01b0 3B6A     		ldr	r3, [r7, #32]
 1046 01b2 0133     		adds	r3, r3, #1
 1047 01b4 FA68     		ldr	r2, [r7, #12]
 1048 01b6 1344     		add	r3, r3, r2
 1049 01b8 1B78     		ldrb	r3, [r3]	@ zero_extendqisi2
 1050 01ba 2F2B     		cmp	r3, #47
 1051 01bc 02D0     		beq	.L58
 251:C:/Users/dtjld/workspace/AIoT/src/LiteOS_Lab/iot_link/network/mqtt/paho_mqtt/paho/MQTTClient-C/src\MQTTClient.c ****                 {
 252:C:/Users/dtjld/workspace/AIoT/src/LiteOS_Lab/iot_link/network/mqtt/paho_mqtt/paho/MQTTClient-C/src\MQTTClient.c ****                     return -1;
 1052              		.loc 1 252 0 is_stmt 1
 1053 01be 4FF0FF33 		mov	r3, #-1
 1054 01c2 80E0     		b	.L41
 1055              	.L58:
 253:C:/Users/dtjld/workspace/AIoT/src/LiteOS_Lab/iot_link/network/mqtt/paho_mqtt/paho/MQTTClient-C/src\MQTTClient.c ****                 }
 254:C:/Users/dtjld/workspace/AIoT/src/LiteOS_Lab/iot_link/network/mqtt/paho_mqtt/paho/MQTTClient-C/src\MQTTClient.c ****                 spos++;
 1056              		.loc 1 254 0
 1057 01c4 3B6A     		ldr	r3, [r7, #32]
 1058 01c6 0133     		adds	r3, r3, #1
 1059 01c8 3B62     		str	r3, [r7, #32]
 255:C:/Users/dtjld/workspace/AIoT/src/LiteOS_Lab/iot_link/network/mqtt/paho_mqtt/paho/MQTTClient-C/src\MQTTClient.c ****                 while(tpos < topiclen && topic[tpos] != '/')
 1060              		.loc 1 255 0
 1061 01ca 02E0     		b	.L59
 1062              	.L61:
 256:C:/Users/dtjld/workspace/AIoT/src/LiteOS_Lab/iot_link/network/mqtt/paho_mqtt/paho/MQTTClient-C/src\MQTTClient.c ****                 {
ARM GAS  C:\Users\dtjld\AppData\Local\Temp\cc8xzzLd.s 			page 24


 257:C:/Users/dtjld/workspace/AIoT/src/LiteOS_Lab/iot_link/network/mqtt/paho_mqtt/paho/MQTTClient-C/src\MQTTClient.c ****                     tpos++;
 1063              		.loc 1 257 0
 1064 01cc FB69     		ldr	r3, [r7, #28]
 1065 01ce 0133     		adds	r3, r3, #1
 1066 01d0 FB61     		str	r3, [r7, #28]
 1067              	.L59:
 255:C:/Users/dtjld/workspace/AIoT/src/LiteOS_Lab/iot_link/network/mqtt/paho_mqtt/paho/MQTTClient-C/src\MQTTClient.c ****                 while(tpos < topiclen && topic[tpos] != '/')
 1068              		.loc 1 255 0
 1069 01d2 FA69     		ldr	r2, [r7, #28]
 1070 01d4 7B6A     		ldr	r3, [r7, #36]
 1071 01d6 9A42     		cmp	r2, r3
 1072 01d8 05DA     		bge	.L60
 255:C:/Users/dtjld/workspace/AIoT/src/LiteOS_Lab/iot_link/network/mqtt/paho_mqtt/paho/MQTTClient-C/src\MQTTClient.c ****                 while(tpos < topiclen && topic[tpos] != '/')
 1073              		.loc 1 255 0 is_stmt 0 discriminator 1
 1074 01da FB69     		ldr	r3, [r7, #28]
 1075 01dc BA69     		ldr	r2, [r7, #24]
 1076 01de 1344     		add	r3, r3, r2
 1077 01e0 1B78     		ldrb	r3, [r3]	@ zero_extendqisi2
 1078 01e2 2F2B     		cmp	r3, #47
 1079 01e4 F2D1     		bne	.L61
 1080              	.L60:
 258:C:/Users/dtjld/workspace/AIoT/src/LiteOS_Lab/iot_link/network/mqtt/paho_mqtt/paho/MQTTClient-C/src\MQTTClient.c ****                 }
 259:C:/Users/dtjld/workspace/AIoT/src/LiteOS_Lab/iot_link/network/mqtt/paho_mqtt/paho/MQTTClient-C/src\MQTTClient.c ****                 if(tpos == topiclen && spos == sublen)
 1081              		.loc 1 259 0 is_stmt 1
 1082 01e6 FA69     		ldr	r2, [r7, #28]
 1083 01e8 7B6A     		ldr	r3, [r7, #36]
 1084 01ea 9A42     		cmp	r2, r3
 1085 01ec 53D1     		bne	.L51
 1086              		.loc 1 259 0 is_stmt 0 discriminator 1
 1087 01ee 3A6A     		ldr	r2, [r7, #32]
 1088 01f0 3B69     		ldr	r3, [r7, #16]
 1089 01f2 9A42     		cmp	r2, r3
 1090 01f4 4FD1     		bne	.L51
 260:C:/Users/dtjld/workspace/AIoT/src/LiteOS_Lab/iot_link/network/mqtt/paho_mqtt/paho/MQTTClient-C/src\MQTTClient.c ****                 {
 261:C:/Users/dtjld/workspace/AIoT/src/LiteOS_Lab/iot_link/network/mqtt/paho_mqtt/paho/MQTTClient-C/src\MQTTClient.c ****                     *result = 1;
 1091              		.loc 1 261 0 is_stmt 1
 1092 01f6 7B68     		ldr	r3, [r7, #4]
 1093 01f8 0122     		movs	r2, #1
 1094 01fa 1A70     		strb	r2, [r3]
 262:C:/Users/dtjld/workspace/AIoT/src/LiteOS_Lab/iot_link/network/mqtt/paho_mqtt/paho/MQTTClient-C/src\MQTTClient.c ****                     return 0;
 1095              		.loc 1 262 0
 1096 01fc 0023     		movs	r3, #0
 1097 01fe 62E0     		b	.L41
 1098              	.L56:
 263:C:/Users/dtjld/workspace/AIoT/src/LiteOS_Lab/iot_link/network/mqtt/paho_mqtt/paho/MQTTClient-C/src\MQTTClient.c ****                 }
 264:C:/Users/dtjld/workspace/AIoT/src/LiteOS_Lab/iot_link/network/mqtt/paho_mqtt/paho/MQTTClient-C/src\MQTTClient.c ****             }
 265:C:/Users/dtjld/workspace/AIoT/src/LiteOS_Lab/iot_link/network/mqtt/paho_mqtt/paho/MQTTClient-C/src\MQTTClient.c ****             else if(sub[spos] == '#')
 1099              		.loc 1 265 0
 1100 0200 3B6A     		ldr	r3, [r7, #32]
 1101 0202 FA68     		ldr	r2, [r7, #12]
 1102 0204 1344     		add	r3, r3, r2
 1103 0206 1B78     		ldrb	r3, [r3]	@ zero_extendqisi2
 1104 0208 232B     		cmp	r3, #35
 1105 020a 1BD1     		bne	.L62
 266:C:/Users/dtjld/workspace/AIoT/src/LiteOS_Lab/iot_link/network/mqtt/paho_mqtt/paho/MQTTClient-C/src\MQTTClient.c ****             {
 267:C:/Users/dtjld/workspace/AIoT/src/LiteOS_Lab/iot_link/network/mqtt/paho_mqtt/paho/MQTTClient-C/src\MQTTClient.c ****                 if(spos > 0 && sub[spos - 1] != '/')
 1106              		.loc 1 267 0
ARM GAS  C:\Users\dtjld\AppData\Local\Temp\cc8xzzLd.s 			page 25


 1107 020c 3B6A     		ldr	r3, [r7, #32]
 1108 020e 002B     		cmp	r3, #0
 1109 0210 09DD     		ble	.L63
 1110              		.loc 1 267 0 is_stmt 0 discriminator 1
 1111 0212 3B6A     		ldr	r3, [r7, #32]
 1112 0214 013B     		subs	r3, r3, #1
 1113 0216 FA68     		ldr	r2, [r7, #12]
 1114 0218 1344     		add	r3, r3, r2
 1115 021a 1B78     		ldrb	r3, [r3]	@ zero_extendqisi2
 1116 021c 2F2B     		cmp	r3, #47
 1117 021e 02D0     		beq	.L63
 268:C:/Users/dtjld/workspace/AIoT/src/LiteOS_Lab/iot_link/network/mqtt/paho_mqtt/paho/MQTTClient-C/src\MQTTClient.c ****                 {
 269:C:/Users/dtjld/workspace/AIoT/src/LiteOS_Lab/iot_link/network/mqtt/paho_mqtt/paho/MQTTClient-C/src\MQTTClient.c ****                     return -1;
 1118              		.loc 1 269 0 is_stmt 1
 1119 0220 4FF0FF33 		mov	r3, #-1
 1120 0224 4FE0     		b	.L41
 1121              	.L63:
 270:C:/Users/dtjld/workspace/AIoT/src/LiteOS_Lab/iot_link/network/mqtt/paho_mqtt/paho/MQTTClient-C/src\MQTTClient.c ****                 }
 271:C:/Users/dtjld/workspace/AIoT/src/LiteOS_Lab/iot_link/network/mqtt/paho_mqtt/paho/MQTTClient-C/src\MQTTClient.c ****                 multilevel_wildcard = 1;
 1122              		.loc 1 271 0
 1123 0226 0123     		movs	r3, #1
 1124 0228 FB75     		strb	r3, [r7, #23]
 272:C:/Users/dtjld/workspace/AIoT/src/LiteOS_Lab/iot_link/network/mqtt/paho_mqtt/paho/MQTTClient-C/src\MQTTClient.c ****                 if(spos + 1 != sublen)
 1125              		.loc 1 272 0
 1126 022a 3B6A     		ldr	r3, [r7, #32]
 1127 022c 0133     		adds	r3, r3, #1
 1128 022e 3A69     		ldr	r2, [r7, #16]
 1129 0230 9A42     		cmp	r2, r3
 1130 0232 02D0     		beq	.L64
 273:C:/Users/dtjld/workspace/AIoT/src/LiteOS_Lab/iot_link/network/mqtt/paho_mqtt/paho/MQTTClient-C/src\MQTTClient.c ****                 {
 274:C:/Users/dtjld/workspace/AIoT/src/LiteOS_Lab/iot_link/network/mqtt/paho_mqtt/paho/MQTTClient-C/src\MQTTClient.c ****                     return -1;
 1131              		.loc 1 274 0
 1132 0234 4FF0FF33 		mov	r3, #-1
 1133 0238 45E0     		b	.L41
 1134              	.L64:
 275:C:/Users/dtjld/workspace/AIoT/src/LiteOS_Lab/iot_link/network/mqtt/paho_mqtt/paho/MQTTClient-C/src\MQTTClient.c ****                 }
 276:C:/Users/dtjld/workspace/AIoT/src/LiteOS_Lab/iot_link/network/mqtt/paho_mqtt/paho/MQTTClient-C/src\MQTTClient.c ****                 else
 277:C:/Users/dtjld/workspace/AIoT/src/LiteOS_Lab/iot_link/network/mqtt/paho_mqtt/paho/MQTTClient-C/src\MQTTClient.c ****                 {
 278:C:/Users/dtjld/workspace/AIoT/src/LiteOS_Lab/iot_link/network/mqtt/paho_mqtt/paho/MQTTClient-C/src\MQTTClient.c ****                     *result = 1;
 1135              		.loc 1 278 0
 1136 023a 7B68     		ldr	r3, [r7, #4]
 1137 023c 0122     		movs	r2, #1
 1138 023e 1A70     		strb	r2, [r3]
 279:C:/Users/dtjld/workspace/AIoT/src/LiteOS_Lab/iot_link/network/mqtt/paho_mqtt/paho/MQTTClient-C/src\MQTTClient.c ****                     return 0;
 1139              		.loc 1 279 0
 1140 0240 0023     		movs	r3, #0
 1141 0242 40E0     		b	.L41
 1142              	.L62:
 280:C:/Users/dtjld/workspace/AIoT/src/LiteOS_Lab/iot_link/network/mqtt/paho_mqtt/paho/MQTTClient-C/src\MQTTClient.c ****                 }
 281:C:/Users/dtjld/workspace/AIoT/src/LiteOS_Lab/iot_link/network/mqtt/paho_mqtt/paho/MQTTClient-C/src\MQTTClient.c ****             }
 282:C:/Users/dtjld/workspace/AIoT/src/LiteOS_Lab/iot_link/network/mqtt/paho_mqtt/paho/MQTTClient-C/src\MQTTClient.c ****             else
 283:C:/Users/dtjld/workspace/AIoT/src/LiteOS_Lab/iot_link/network/mqtt/paho_mqtt/paho/MQTTClient-C/src\MQTTClient.c ****             {
 284:C:/Users/dtjld/workspace/AIoT/src/LiteOS_Lab/iot_link/network/mqtt/paho_mqtt/paho/MQTTClient-C/src\MQTTClient.c ****                 /* Check for e.g. foo/bar matching foo/+/# */
 285:C:/Users/dtjld/workspace/AIoT/src/LiteOS_Lab/iot_link/network/mqtt/paho_mqtt/paho/MQTTClient-C/src\MQTTClient.c ****                 if(spos > 0 && spos + 2 == sublen && tpos == topiclen
 1143              		.loc 1 285 0
 1144 0244 3B6A     		ldr	r3, [r7, #32]
 1145 0246 002B     		cmp	r3, #0
ARM GAS  C:\Users\dtjld\AppData\Local\Temp\cc8xzzLd.s 			page 26


 1146 0248 23DD     		ble	.L65
 1147              		.loc 1 285 0 is_stmt 0 discriminator 1
 1148 024a 3B6A     		ldr	r3, [r7, #32]
 1149 024c 0233     		adds	r3, r3, #2
 1150 024e 3A69     		ldr	r2, [r7, #16]
 1151 0250 9A42     		cmp	r2, r3
 1152 0252 1ED1     		bne	.L65
 1153              		.loc 1 285 0 discriminator 2
 1154 0254 FA69     		ldr	r2, [r7, #28]
 1155 0256 7B6A     		ldr	r3, [r7, #36]
 1156 0258 9A42     		cmp	r2, r3
 1157 025a 1AD1     		bne	.L65
 286:C:/Users/dtjld/workspace/AIoT/src/LiteOS_Lab/iot_link/network/mqtt/paho_mqtt/paho/MQTTClient-C/src\MQTTClient.c ****                         && sub[spos - 1] == '+' && sub[spos] == '/' && sub[spos + 1] == '#')
 1158              		.loc 1 286 0 is_stmt 1
 1159 025c 3B6A     		ldr	r3, [r7, #32]
 1160 025e 013B     		subs	r3, r3, #1
 1161 0260 FA68     		ldr	r2, [r7, #12]
 1162 0262 1344     		add	r3, r3, r2
 1163 0264 1B78     		ldrb	r3, [r3]	@ zero_extendqisi2
 1164 0266 2B2B     		cmp	r3, #43
 1165 0268 13D1     		bne	.L65
 1166              		.loc 1 286 0 is_stmt 0 discriminator 1
 1167 026a 3B6A     		ldr	r3, [r7, #32]
 1168 026c FA68     		ldr	r2, [r7, #12]
 1169 026e 1344     		add	r3, r3, r2
 1170 0270 1B78     		ldrb	r3, [r3]	@ zero_extendqisi2
 1171 0272 2F2B     		cmp	r3, #47
 1172 0274 0DD1     		bne	.L65
 1173              		.loc 1 286 0 discriminator 2
 1174 0276 3B6A     		ldr	r3, [r7, #32]
 1175 0278 0133     		adds	r3, r3, #1
 1176 027a FA68     		ldr	r2, [r7, #12]
 1177 027c 1344     		add	r3, r3, r2
 1178 027e 1B78     		ldrb	r3, [r3]	@ zero_extendqisi2
 1179 0280 232B     		cmp	r3, #35
 1180 0282 06D1     		bne	.L65
 287:C:/Users/dtjld/workspace/AIoT/src/LiteOS_Lab/iot_link/network/mqtt/paho_mqtt/paho/MQTTClient-C/src\MQTTClient.c ****                 {
 288:C:/Users/dtjld/workspace/AIoT/src/LiteOS_Lab/iot_link/network/mqtt/paho_mqtt/paho/MQTTClient-C/src\MQTTClient.c ****                     *result = 1;
 1181              		.loc 1 288 0 is_stmt 1
 1182 0284 7B68     		ldr	r3, [r7, #4]
 1183 0286 0122     		movs	r2, #1
 1184 0288 1A70     		strb	r2, [r3]
 289:C:/Users/dtjld/workspace/AIoT/src/LiteOS_Lab/iot_link/network/mqtt/paho_mqtt/paho/MQTTClient-C/src\MQTTClient.c ****                     multilevel_wildcard = 1;
 1185              		.loc 1 289 0
 1186 028a 0123     		movs	r3, #1
 1187 028c FB75     		strb	r3, [r7, #23]
 290:C:/Users/dtjld/workspace/AIoT/src/LiteOS_Lab/iot_link/network/mqtt/paho_mqtt/paho/MQTTClient-C/src\MQTTClient.c ****                     return 0;
 1188              		.loc 1 290 0
 1189 028e 0023     		movs	r3, #0
 1190 0290 19E0     		b	.L41
 1191              	.L65:
 291:C:/Users/dtjld/workspace/AIoT/src/LiteOS_Lab/iot_link/network/mqtt/paho_mqtt/paho/MQTTClient-C/src\MQTTClient.c ****                 }
 292:C:/Users/dtjld/workspace/AIoT/src/LiteOS_Lab/iot_link/network/mqtt/paho_mqtt/paho/MQTTClient-C/src\MQTTClient.c ****                 return 0;
 1192              		.loc 1 292 0
 1193 0292 0023     		movs	r3, #0
 1194 0294 17E0     		b	.L41
 1195              	.L51:
ARM GAS  C:\Users\dtjld\AppData\Local\Temp\cc8xzzLd.s 			page 27


 208:C:/Users/dtjld/workspace/AIoT/src/LiteOS_Lab/iot_link/network/mqtt/paho_mqtt/paho/MQTTClient-C/src\MQTTClient.c ****     {
 1196              		.loc 1 208 0
 1197 0296 3A6A     		ldr	r2, [r7, #32]
 1198 0298 3B69     		ldr	r3, [r7, #16]
 1199 029a 9A42     		cmp	r2, r3
 1200 029c 04DA     		bge	.L66
 208:C:/Users/dtjld/workspace/AIoT/src/LiteOS_Lab/iot_link/network/mqtt/paho_mqtt/paho/MQTTClient-C/src\MQTTClient.c ****     {
 1201              		.loc 1 208 0 is_stmt 0 discriminator 1
 1202 029e FA69     		ldr	r2, [r7, #28]
 1203 02a0 7B6A     		ldr	r3, [r7, #36]
 1204 02a2 9A42     		cmp	r2, r3
 1205 02a4 7FF709AF 		ble	.L67
 1206              	.L66:
 293:C:/Users/dtjld/workspace/AIoT/src/LiteOS_Lab/iot_link/network/mqtt/paho_mqtt/paho/MQTTClient-C/src\MQTTClient.c ****             }
 294:C:/Users/dtjld/workspace/AIoT/src/LiteOS_Lab/iot_link/network/mqtt/paho_mqtt/paho/MQTTClient-C/src\MQTTClient.c ****         }
 295:C:/Users/dtjld/workspace/AIoT/src/LiteOS_Lab/iot_link/network/mqtt/paho_mqtt/paho/MQTTClient-C/src\MQTTClient.c ****     }
 296:C:/Users/dtjld/workspace/AIoT/src/LiteOS_Lab/iot_link/network/mqtt/paho_mqtt/paho/MQTTClient-C/src\MQTTClient.c ****     if(multilevel_wildcard == 0 && (tpos < topiclen || spos < sublen))
 1207              		.loc 1 296 0 is_stmt 1
 1208 02a8 FB7D     		ldrb	r3, [r7, #23]	@ zero_extendqisi2
 1209 02aa 002B     		cmp	r3, #0
 1210 02ac 0AD1     		bne	.L68
 1211              		.loc 1 296 0 is_stmt 0 discriminator 1
 1212 02ae FA69     		ldr	r2, [r7, #28]
 1213 02b0 7B6A     		ldr	r3, [r7, #36]
 1214 02b2 9A42     		cmp	r2, r3
 1215 02b4 03DB     		blt	.L69
 1216              		.loc 1 296 0 discriminator 2
 1217 02b6 3A6A     		ldr	r2, [r7, #32]
 1218 02b8 3B69     		ldr	r3, [r7, #16]
 1219 02ba 9A42     		cmp	r2, r3
 1220 02bc 02DA     		bge	.L68
 1221              	.L69:
 297:C:/Users/dtjld/workspace/AIoT/src/LiteOS_Lab/iot_link/network/mqtt/paho_mqtt/paho/MQTTClient-C/src\MQTTClient.c ****     {
 298:C:/Users/dtjld/workspace/AIoT/src/LiteOS_Lab/iot_link/network/mqtt/paho_mqtt/paho/MQTTClient-C/src\MQTTClient.c ****         *result = 0;
 1222              		.loc 1 298 0 is_stmt 1
 1223 02be 7B68     		ldr	r3, [r7, #4]
 1224 02c0 0022     		movs	r2, #0
 1225 02c2 1A70     		strb	r2, [r3]
 1226              	.L68:
 299:C:/Users/dtjld/workspace/AIoT/src/LiteOS_Lab/iot_link/network/mqtt/paho_mqtt/paho/MQTTClient-C/src\MQTTClient.c ****     }
 300:C:/Users/dtjld/workspace/AIoT/src/LiteOS_Lab/iot_link/network/mqtt/paho_mqtt/paho/MQTTClient-C/src\MQTTClient.c **** 
 301:C:/Users/dtjld/workspace/AIoT/src/LiteOS_Lab/iot_link/network/mqtt/paho_mqtt/paho/MQTTClient-C/src\MQTTClient.c ****     return 0;
 1227              		.loc 1 301 0
 1228 02c4 0023     		movs	r3, #0
 1229              	.L41:
 302:C:/Users/dtjld/workspace/AIoT/src/LiteOS_Lab/iot_link/network/mqtt/paho_mqtt/paho/MQTTClient-C/src\MQTTClient.c **** }
 1230              		.loc 1 302 0
 1231 02c6 1846     		mov	r0, r3
 1232 02c8 2837     		adds	r7, r7, #40
 1233              	.LCFI40:
 1234              		.cfi_def_cfa_offset 8
 1235 02ca BD46     		mov	sp, r7
 1236              	.LCFI41:
 1237              		.cfi_def_cfa_register 13
 1238              		@ sp needed
 1239 02cc 80BD     		pop	{r7, pc}
 1240              		.cfi_endproc
ARM GAS  C:\Users\dtjld\AppData\Local\Temp\cc8xzzLd.s 			page 28


 1241              	.LFE11:
 1243              		.section	.text.deliverMessage,"ax",%progbits
 1244              		.align	1
 1245              		.global	deliverMessage
 1246              		.syntax unified
 1247              		.thumb
 1248              		.thumb_func
 1249              		.fpu fpv4-sp-d16
 1251              	deliverMessage:
 1252              	.LFB12:
 303:C:/Users/dtjld/workspace/AIoT/src/LiteOS_Lab/iot_link/network/mqtt/paho_mqtt/paho/MQTTClient-C/src\MQTTClient.c **** 
 304:C:/Users/dtjld/workspace/AIoT/src/LiteOS_Lab/iot_link/network/mqtt/paho_mqtt/paho/MQTTClient-C/src\MQTTClient.c **** 
 305:C:/Users/dtjld/workspace/AIoT/src/LiteOS_Lab/iot_link/network/mqtt/paho_mqtt/paho/MQTTClient-C/src\MQTTClient.c **** int deliverMessage(MQTTClient* c, MQTTString* topicName, MQTTMessage* message)
 306:C:/Users/dtjld/workspace/AIoT/src/LiteOS_Lab/iot_link/network/mqtt/paho_mqtt/paho/MQTTClient-C/src\MQTTClient.c **** {
 1253              		.loc 1 306 0
 1254              		.cfi_startproc
 1255              		@ args = 0, pretend = 0, frame = 56
 1256              		@ frame_needed = 1, uses_anonymous_args = 0
 1257 0000 80B5     		push	{r7, lr}
 1258              	.LCFI42:
 1259              		.cfi_def_cfa_offset 8
 1260              		.cfi_offset 7, -8
 1261              		.cfi_offset 14, -4
 1262 0002 8EB0     		sub	sp, sp, #56
 1263              	.LCFI43:
 1264              		.cfi_def_cfa_offset 64
 1265 0004 00AF     		add	r7, sp, #0
 1266              	.LCFI44:
 1267              		.cfi_def_cfa_register 7
 1268 0006 F860     		str	r0, [r7, #12]
 1269 0008 B960     		str	r1, [r7, #8]
 1270 000a 7A60     		str	r2, [r7, #4]
 307:C:/Users/dtjld/workspace/AIoT/src/LiteOS_Lab/iot_link/network/mqtt/paho_mqtt/paho/MQTTClient-C/src\MQTTClient.c ****     int i;
 308:C:/Users/dtjld/workspace/AIoT/src/LiteOS_Lab/iot_link/network/mqtt/paho_mqtt/paho/MQTTClient-C/src\MQTTClient.c ****     int rc = FAILURE;
 1271              		.loc 1 308 0
 1272 000c 4FF0FF33 		mov	r3, #-1
 1273 0010 3B63     		str	r3, [r7, #48]
 309:C:/Users/dtjld/workspace/AIoT/src/LiteOS_Lab/iot_link/network/mqtt/paho_mqtt/paho/MQTTClient-C/src\MQTTClient.c ****     char match_rst = 0;
 1274              		.loc 1 309 0
 1275 0012 0023     		movs	r3, #0
 1276 0014 87F82F30 		strb	r3, [r7, #47]
 310:C:/Users/dtjld/workspace/AIoT/src/LiteOS_Lab/iot_link/network/mqtt/paho_mqtt/paho/MQTTClient-C/src\MQTTClient.c **** 
 311:C:/Users/dtjld/workspace/AIoT/src/LiteOS_Lab/iot_link/network/mqtt/paho_mqtt/paho/MQTTClient-C/src\MQTTClient.c ****     // we have to find the right message handler - indexed by topic
 312:C:/Users/dtjld/workspace/AIoT/src/LiteOS_Lab/iot_link/network/mqtt/paho_mqtt/paho/MQTTClient-C/src\MQTTClient.c ****     for (i = 0; i < MAX_MESSAGE_HANDLERS; ++i)
 1277              		.loc 1 312 0
 1278 0018 0023     		movs	r3, #0
 1279 001a 7B63     		str	r3, [r7, #52]
 1280 001c 4BE0     		b	.L71
 1281              	.L73:
 313:C:/Users/dtjld/workspace/AIoT/src/LiteOS_Lab/iot_link/network/mqtt/paho_mqtt/paho/MQTTClient-C/src\MQTTClient.c ****     {
 314:C:/Users/dtjld/workspace/AIoT/src/LiteOS_Lab/iot_link/network/mqtt/paho_mqtt/paho/MQTTClient-C/src\MQTTClient.c ****         if (c->messageHandlers[i].topicFilter != 0)
 1282              		.loc 1 314 0
 1283 001e F968     		ldr	r1, [r7, #12]
 1284 0020 7A6B     		ldr	r2, [r7, #52]
 1285 0022 1346     		mov	r3, r2
 1286 0024 5B00     		lsls	r3, r3, #1
 1287 0026 1344     		add	r3, r3, r2
ARM GAS  C:\Users\dtjld\AppData\Local\Temp\cc8xzzLd.s 			page 29


 1288 0028 9B00     		lsls	r3, r3, #2
 1289 002a 0B44     		add	r3, r3, r1
 1290 002c 2833     		adds	r3, r3, #40
 1291 002e 1B68     		ldr	r3, [r3]
 1292 0030 002B     		cmp	r3, #0
 1293 0032 3DD0     		beq	.L72
 315:C:/Users/dtjld/workspace/AIoT/src/LiteOS_Lab/iot_link/network/mqtt/paho_mqtt/paho/MQTTClient-C/src\MQTTClient.c ****         {
 316:C:/Users/dtjld/workspace/AIoT/src/LiteOS_Lab/iot_link/network/mqtt/paho_mqtt/paho/MQTTClient-C/src\MQTTClient.c ****             (void)MQTTTopicMatched((const char *)c->messageHandlers[i].topicFilter, topicName, &mat
 1294              		.loc 1 316 0
 1295 0034 F968     		ldr	r1, [r7, #12]
 1296 0036 7A6B     		ldr	r2, [r7, #52]
 1297 0038 1346     		mov	r3, r2
 1298 003a 5B00     		lsls	r3, r3, #1
 1299 003c 1344     		add	r3, r3, r2
 1300 003e 9B00     		lsls	r3, r3, #2
 1301 0040 0B44     		add	r3, r3, r1
 1302 0042 2833     		adds	r3, r3, #40
 1303 0044 1B68     		ldr	r3, [r3]
 1304 0046 07F12F02 		add	r2, r7, #47
 1305 004a B968     		ldr	r1, [r7, #8]
 1306 004c 1846     		mov	r0, r3
 1307 004e FFF7FEFF 		bl	MQTTTopicMatched
 317:C:/Users/dtjld/workspace/AIoT/src/LiteOS_Lab/iot_link/network/mqtt/paho_mqtt/paho/MQTTClient-C/src\MQTTClient.c ****             if (1 == match_rst && c->messageHandlers[i].fp != NULL)
 1308              		.loc 1 317 0
 1309 0052 97F82F30 		ldrb	r3, [r7, #47]	@ zero_extendqisi2
 1310 0056 012B     		cmp	r3, #1
 1311 0058 2AD1     		bne	.L72
 1312              		.loc 1 317 0 is_stmt 0 discriminator 1
 1313 005a F968     		ldr	r1, [r7, #12]
 1314 005c 7A6B     		ldr	r2, [r7, #52]
 1315 005e 1346     		mov	r3, r2
 1316 0060 5B00     		lsls	r3, r3, #1
 1317 0062 1344     		add	r3, r3, r2
 1318 0064 9B00     		lsls	r3, r3, #2
 1319 0066 0B44     		add	r3, r3, r1
 1320 0068 2C33     		adds	r3, r3, #44
 1321 006a 1B68     		ldr	r3, [r3]
 1322 006c 002B     		cmp	r3, #0
 1323 006e 1FD0     		beq	.L72
 1324              	.LBB4:
 318:C:/Users/dtjld/workspace/AIoT/src/LiteOS_Lab/iot_link/network/mqtt/paho_mqtt/paho/MQTTClient-C/src\MQTTClient.c ****             {
 319:C:/Users/dtjld/workspace/AIoT/src/LiteOS_Lab/iot_link/network/mqtt/paho_mqtt/paho/MQTTClient-C/src\MQTTClient.c ****                 MessageData md;
 320:C:/Users/dtjld/workspace/AIoT/src/LiteOS_Lab/iot_link/network/mqtt/paho_mqtt/paho/MQTTClient-C/src\MQTTClient.c ****                 NewMessageData(&md, topicName, message);
 1325              		.loc 1 320 0 is_stmt 1
 1326 0070 07F12003 		add	r3, r7, #32
 1327 0074 7A68     		ldr	r2, [r7, #4]
 1328 0076 B968     		ldr	r1, [r7, #8]
 1329 0078 1846     		mov	r0, r3
 1330 007a FFF7FEFF 		bl	NewMessageData
 321:C:/Users/dtjld/workspace/AIoT/src/LiteOS_Lab/iot_link/network/mqtt/paho_mqtt/paho/MQTTClient-C/src\MQTTClient.c **** 
 322:C:/Users/dtjld/workspace/AIoT/src/LiteOS_Lab/iot_link/network/mqtt/paho_mqtt/paho/MQTTClient-C/src\MQTTClient.c ****                 md.arg = c->messageHandlers[i].arg;   ///< --modified,we need a args for the handle
 1331              		.loc 1 322 0
 1332 007e F968     		ldr	r1, [r7, #12]
 1333 0080 7A6B     		ldr	r2, [r7, #52]
 1334 0082 1346     		mov	r3, r2
 1335 0084 5B00     		lsls	r3, r3, #1
 1336 0086 1344     		add	r3, r3, r2
ARM GAS  C:\Users\dtjld\AppData\Local\Temp\cc8xzzLd.s 			page 30


 1337 0088 9B00     		lsls	r3, r3, #2
 1338 008a 0B44     		add	r3, r3, r1
 1339 008c 3033     		adds	r3, r3, #48
 1340 008e 1B68     		ldr	r3, [r3]
 1341 0090 BB62     		str	r3, [r7, #40]
 323:C:/Users/dtjld/workspace/AIoT/src/LiteOS_Lab/iot_link/network/mqtt/paho_mqtt/paho/MQTTClient-C/src\MQTTClient.c ****                 c->messageHandlers[i].fp(&md);
 1342              		.loc 1 323 0
 1343 0092 F968     		ldr	r1, [r7, #12]
 1344 0094 7A6B     		ldr	r2, [r7, #52]
 1345 0096 1346     		mov	r3, r2
 1346 0098 5B00     		lsls	r3, r3, #1
 1347 009a 1344     		add	r3, r3, r2
 1348 009c 9B00     		lsls	r3, r3, #2
 1349 009e 0B44     		add	r3, r3, r1
 1350 00a0 2C33     		adds	r3, r3, #44
 1351 00a2 1B68     		ldr	r3, [r3]
 1352 00a4 07F12002 		add	r2, r7, #32
 1353 00a8 1046     		mov	r0, r2
 1354 00aa 9847     		blx	r3
 1355              	.LVL4:
 324:C:/Users/dtjld/workspace/AIoT/src/LiteOS_Lab/iot_link/network/mqtt/paho_mqtt/paho/MQTTClient-C/src\MQTTClient.c ****                 rc = MQTT_SUCCESS;
 1356              		.loc 1 324 0
 1357 00ac 0023     		movs	r3, #0
 1358 00ae 3B63     		str	r3, [r7, #48]
 1359              	.L72:
 1360              	.LBE4:
 312:C:/Users/dtjld/workspace/AIoT/src/LiteOS_Lab/iot_link/network/mqtt/paho_mqtt/paho/MQTTClient-C/src\MQTTClient.c ****     {
 1361              		.loc 1 312 0 discriminator 2
 1362 00b0 7B6B     		ldr	r3, [r7, #52]
 1363 00b2 0133     		adds	r3, r3, #1
 1364 00b4 7B63     		str	r3, [r7, #52]
 1365              	.L71:
 312:C:/Users/dtjld/workspace/AIoT/src/LiteOS_Lab/iot_link/network/mqtt/paho_mqtt/paho/MQTTClient-C/src\MQTTClient.c ****     {
 1366              		.loc 1 312 0 is_stmt 0 discriminator 1
 1367 00b6 7B6B     		ldr	r3, [r7, #52]
 1368 00b8 042B     		cmp	r3, #4
 1369 00ba B0DD     		ble	.L73
 325:C:/Users/dtjld/workspace/AIoT/src/LiteOS_Lab/iot_link/network/mqtt/paho_mqtt/paho/MQTTClient-C/src\MQTTClient.c ****             }
 326:C:/Users/dtjld/workspace/AIoT/src/LiteOS_Lab/iot_link/network/mqtt/paho_mqtt/paho/MQTTClient-C/src\MQTTClient.c ****         }
 327:C:/Users/dtjld/workspace/AIoT/src/LiteOS_Lab/iot_link/network/mqtt/paho_mqtt/paho/MQTTClient-C/src\MQTTClient.c ****     }
 328:C:/Users/dtjld/workspace/AIoT/src/LiteOS_Lab/iot_link/network/mqtt/paho_mqtt/paho/MQTTClient-C/src\MQTTClient.c **** 
 329:C:/Users/dtjld/workspace/AIoT/src/LiteOS_Lab/iot_link/network/mqtt/paho_mqtt/paho/MQTTClient-C/src\MQTTClient.c ****     if (rc == FAILURE && c->defaultMessageHandler != NULL)
 1370              		.loc 1 329 0 is_stmt 1
 1371 00bc 3B6B     		ldr	r3, [r7, #48]
 1372 00be B3F1FF3F 		cmp	r3, #-1
 1373 00c2 12D1     		bne	.L74
 1374              		.loc 1 329 0 is_stmt 0 discriminator 1
 1375 00c4 FB68     		ldr	r3, [r7, #12]
 1376 00c6 5B6E     		ldr	r3, [r3, #100]
 1377 00c8 002B     		cmp	r3, #0
 1378 00ca 0ED0     		beq	.L74
 1379              	.LBB5:
 330:C:/Users/dtjld/workspace/AIoT/src/LiteOS_Lab/iot_link/network/mqtt/paho_mqtt/paho/MQTTClient-C/src\MQTTClient.c ****     {
 331:C:/Users/dtjld/workspace/AIoT/src/LiteOS_Lab/iot_link/network/mqtt/paho_mqtt/paho/MQTTClient-C/src\MQTTClient.c ****         MessageData md;
 332:C:/Users/dtjld/workspace/AIoT/src/LiteOS_Lab/iot_link/network/mqtt/paho_mqtt/paho/MQTTClient-C/src\MQTTClient.c ****         NewMessageData(&md, topicName, message);
 1380              		.loc 1 332 0 is_stmt 1
 1381 00cc 07F11403 		add	r3, r7, #20
ARM GAS  C:\Users\dtjld\AppData\Local\Temp\cc8xzzLd.s 			page 31


 1382 00d0 7A68     		ldr	r2, [r7, #4]
 1383 00d2 B968     		ldr	r1, [r7, #8]
 1384 00d4 1846     		mov	r0, r3
 1385 00d6 FFF7FEFF 		bl	NewMessageData
 333:C:/Users/dtjld/workspace/AIoT/src/LiteOS_Lab/iot_link/network/mqtt/paho_mqtt/paho/MQTTClient-C/src\MQTTClient.c ****         c->defaultMessageHandler(&md);
 1386              		.loc 1 333 0
 1387 00da FB68     		ldr	r3, [r7, #12]
 1388 00dc 5B6E     		ldr	r3, [r3, #100]
 1389 00de 07F11402 		add	r2, r7, #20
 1390 00e2 1046     		mov	r0, r2
 1391 00e4 9847     		blx	r3
 1392              	.LVL5:
 334:C:/Users/dtjld/workspace/AIoT/src/LiteOS_Lab/iot_link/network/mqtt/paho_mqtt/paho/MQTTClient-C/src\MQTTClient.c ****         rc = MQTT_SUCCESS;
 1393              		.loc 1 334 0
 1394 00e6 0023     		movs	r3, #0
 1395 00e8 3B63     		str	r3, [r7, #48]
 1396              	.L74:
 1397              	.LBE5:
 335:C:/Users/dtjld/workspace/AIoT/src/LiteOS_Lab/iot_link/network/mqtt/paho_mqtt/paho/MQTTClient-C/src\MQTTClient.c ****     }
 336:C:/Users/dtjld/workspace/AIoT/src/LiteOS_Lab/iot_link/network/mqtt/paho_mqtt/paho/MQTTClient-C/src\MQTTClient.c **** 
 337:C:/Users/dtjld/workspace/AIoT/src/LiteOS_Lab/iot_link/network/mqtt/paho_mqtt/paho/MQTTClient-C/src\MQTTClient.c ****     return rc;
 1398              		.loc 1 337 0
 1399 00ea 3B6B     		ldr	r3, [r7, #48]
 338:C:/Users/dtjld/workspace/AIoT/src/LiteOS_Lab/iot_link/network/mqtt/paho_mqtt/paho/MQTTClient-C/src\MQTTClient.c **** }
 1400              		.loc 1 338 0
 1401 00ec 1846     		mov	r0, r3
 1402 00ee 3837     		adds	r7, r7, #56
 1403              	.LCFI45:
 1404              		.cfi_def_cfa_offset 8
 1405 00f0 BD46     		mov	sp, r7
 1406              	.LCFI46:
 1407              		.cfi_def_cfa_register 13
 1408              		@ sp needed
 1409 00f2 80BD     		pop	{r7, pc}
 1410              		.cfi_endproc
 1411              	.LFE12:
 1413              		.section	.text.keepalive,"ax",%progbits
 1414              		.align	1
 1415              		.global	keepalive
 1416              		.syntax unified
 1417              		.thumb
 1418              		.thumb_func
 1419              		.fpu fpv4-sp-d16
 1421              	keepalive:
 1422              	.LFB13:
 339:C:/Users/dtjld/workspace/AIoT/src/LiteOS_Lab/iot_link/network/mqtt/paho_mqtt/paho/MQTTClient-C/src\MQTTClient.c **** 
 340:C:/Users/dtjld/workspace/AIoT/src/LiteOS_Lab/iot_link/network/mqtt/paho_mqtt/paho/MQTTClient-C/src\MQTTClient.c **** 
 341:C:/Users/dtjld/workspace/AIoT/src/LiteOS_Lab/iot_link/network/mqtt/paho_mqtt/paho/MQTTClient-C/src\MQTTClient.c **** int keepalive(MQTTClient* c)
 342:C:/Users/dtjld/workspace/AIoT/src/LiteOS_Lab/iot_link/network/mqtt/paho_mqtt/paho/MQTTClient-C/src\MQTTClient.c **** {
 1423              		.loc 1 342 0
 1424              		.cfi_startproc
 1425              		@ args = 0, pretend = 0, frame = 24
 1426              		@ frame_needed = 1, uses_anonymous_args = 0
 1427 0000 80B5     		push	{r7, lr}
 1428              	.LCFI47:
 1429              		.cfi_def_cfa_offset 8
 1430              		.cfi_offset 7, -8
ARM GAS  C:\Users\dtjld\AppData\Local\Temp\cc8xzzLd.s 			page 32


 1431              		.cfi_offset 14, -4
 1432 0002 86B0     		sub	sp, sp, #24
 1433              	.LCFI48:
 1434              		.cfi_def_cfa_offset 32
 1435 0004 00AF     		add	r7, sp, #0
 1436              	.LCFI49:
 1437              		.cfi_def_cfa_register 7
 1438 0006 7860     		str	r0, [r7, #4]
 343:C:/Users/dtjld/workspace/AIoT/src/LiteOS_Lab/iot_link/network/mqtt/paho_mqtt/paho/MQTTClient-C/src\MQTTClient.c ****     int rc = MQTT_SUCCESS;
 1439              		.loc 1 343 0
 1440 0008 0023     		movs	r3, #0
 1441 000a 7B61     		str	r3, [r7, #20]
 344:C:/Users/dtjld/workspace/AIoT/src/LiteOS_Lab/iot_link/network/mqtt/paho_mqtt/paho/MQTTClient-C/src\MQTTClient.c **** 
 345:C:/Users/dtjld/workspace/AIoT/src/LiteOS_Lab/iot_link/network/mqtt/paho_mqtt/paho/MQTTClient-C/src\MQTTClient.c ****     if (c->keepAliveInterval == 0)
 1442              		.loc 1 345 0
 1443 000c 7B68     		ldr	r3, [r7, #4]
 1444 000e 9B69     		ldr	r3, [r3, #24]
 1445 0010 002B     		cmp	r3, #0
 1446 0012 3ED0     		beq	.L82
 346:C:/Users/dtjld/workspace/AIoT/src/LiteOS_Lab/iot_link/network/mqtt/paho_mqtt/paho/MQTTClient-C/src\MQTTClient.c ****         goto exit;
 347:C:/Users/dtjld/workspace/AIoT/src/LiteOS_Lab/iot_link/network/mqtt/paho_mqtt/paho/MQTTClient-C/src\MQTTClient.c **** 
 348:C:/Users/dtjld/workspace/AIoT/src/LiteOS_Lab/iot_link/network/mqtt/paho_mqtt/paho/MQTTClient-C/src\MQTTClient.c ****     if (TimerIsExpired(&c->last_sent) && TimerIsExpired(&c->last_received))
 1447              		.loc 1 348 0
 1448 0014 7B68     		ldr	r3, [r7, #4]
 1449 0016 7033     		adds	r3, r3, #112
 1450 0018 1846     		mov	r0, r3
 1451 001a FFF7FEFF 		bl	osal_loop_timer_expired
 1452 001e 0346     		mov	r3, r0
 1453 0020 002B     		cmp	r3, #0
 1454 0022 38D0     		beq	.L83
 1455              		.loc 1 348 0 is_stmt 0 discriminator 1
 1456 0024 7B68     		ldr	r3, [r7, #4]
 1457 0026 7833     		adds	r3, r3, #120
 1458 0028 1846     		mov	r0, r3
 1459 002a FFF7FEFF 		bl	osal_loop_timer_expired
 1460 002e 0346     		mov	r3, r0
 1461 0030 002B     		cmp	r3, #0
 1462 0032 30D0     		beq	.L83
 349:C:/Users/dtjld/workspace/AIoT/src/LiteOS_Lab/iot_link/network/mqtt/paho_mqtt/paho/MQTTClient-C/src\MQTTClient.c ****     {
 350:C:/Users/dtjld/workspace/AIoT/src/LiteOS_Lab/iot_link/network/mqtt/paho_mqtt/paho/MQTTClient-C/src\MQTTClient.c ****         if (c->ping_outstanding)
 1463              		.loc 1 350 0 is_stmt 1
 1464 0034 7B68     		ldr	r3, [r7, #4]
 1465 0036 1B7F     		ldrb	r3, [r3, #28]	@ zero_extendqisi2
 1466 0038 002B     		cmp	r3, #0
 1467 003a 03D0     		beq	.L79
 351:C:/Users/dtjld/workspace/AIoT/src/LiteOS_Lab/iot_link/network/mqtt/paho_mqtt/paho/MQTTClient-C/src\MQTTClient.c ****             rc = FAILURE; /* PINGRESP not received in keepalive interval */
 1468              		.loc 1 351 0
 1469 003c 4FF0FF33 		mov	r3, #-1
 1470 0040 7B61     		str	r3, [r7, #20]
 1471 0042 29E0     		b	.L78
 1472              	.L79:
 1473              	.LBB6:
 352:C:/Users/dtjld/workspace/AIoT/src/LiteOS_Lab/iot_link/network/mqtt/paho_mqtt/paho/MQTTClient-C/src\MQTTClient.c ****         else
 353:C:/Users/dtjld/workspace/AIoT/src/LiteOS_Lab/iot_link/network/mqtt/paho_mqtt/paho/MQTTClient-C/src\MQTTClient.c ****         {
 354:C:/Users/dtjld/workspace/AIoT/src/LiteOS_Lab/iot_link/network/mqtt/paho_mqtt/paho/MQTTClient-C/src\MQTTClient.c ****             Timer timer;
 355:C:/Users/dtjld/workspace/AIoT/src/LiteOS_Lab/iot_link/network/mqtt/paho_mqtt/paho/MQTTClient-C/src\MQTTClient.c ****             TimerInit(&timer);
 1474              		.loc 1 355 0
ARM GAS  C:\Users\dtjld\AppData\Local\Temp\cc8xzzLd.s 			page 33


 1475 0044 07F10803 		add	r3, r7, #8
 1476 0048 1846     		mov	r0, r3
 1477 004a FFF7FEFF 		bl	osal_loop_timer_init
 356:C:/Users/dtjld/workspace/AIoT/src/LiteOS_Lab/iot_link/network/mqtt/paho_mqtt/paho/MQTTClient-C/src\MQTTClient.c ****             TimerCountdownMS(&timer, 1000);
 1478              		.loc 1 356 0
 1479 004e 07F10803 		add	r3, r7, #8
 1480 0052 4FF47A71 		mov	r1, #1000
 1481 0056 1846     		mov	r0, r3
 1482 0058 FFF7FEFF 		bl	osal_loop_timer_count_downms
 357:C:/Users/dtjld/workspace/AIoT/src/LiteOS_Lab/iot_link/network/mqtt/paho_mqtt/paho/MQTTClient-C/src\MQTTClient.c ****             int len = MQTTSerialize_pingreq(c->buf, c->buf_size);
 1483              		.loc 1 357 0
 1484 005c 7B68     		ldr	r3, [r7, #4]
 1485 005e 1A69     		ldr	r2, [r3, #16]
 1486 0060 7B68     		ldr	r3, [r7, #4]
 1487 0062 9B68     		ldr	r3, [r3, #8]
 1488 0064 1946     		mov	r1, r3
 1489 0066 1046     		mov	r0, r2
 1490 0068 FFF7FEFF 		bl	MQTTSerialize_pingreq
 1491 006c 3861     		str	r0, [r7, #16]
 358:C:/Users/dtjld/workspace/AIoT/src/LiteOS_Lab/iot_link/network/mqtt/paho_mqtt/paho/MQTTClient-C/src\MQTTClient.c ****             if (len > 0 && (rc = sendPacket(c, len, &timer)) == MQTT_SUCCESS) // send the ping pack
 1492              		.loc 1 358 0
 1493 006e 3B69     		ldr	r3, [r7, #16]
 1494 0070 002B     		cmp	r3, #0
 1495 0072 11DD     		ble	.L78
 1496              		.loc 1 358 0 is_stmt 0 discriminator 1
 1497 0074 07F10803 		add	r3, r7, #8
 1498 0078 1A46     		mov	r2, r3
 1499 007a 3969     		ldr	r1, [r7, #16]
 1500 007c 7868     		ldr	r0, [r7, #4]
 1501 007e FFF7FEFF 		bl	sendPacket
 1502 0082 7861     		str	r0, [r7, #20]
 1503 0084 7B69     		ldr	r3, [r7, #20]
 1504 0086 002B     		cmp	r3, #0
 1505 0088 06D1     		bne	.L78
 359:C:/Users/dtjld/workspace/AIoT/src/LiteOS_Lab/iot_link/network/mqtt/paho_mqtt/paho/MQTTClient-C/src\MQTTClient.c ****                 c->ping_outstanding = 1;
 1506              		.loc 1 359 0 is_stmt 1
 1507 008a 7B68     		ldr	r3, [r7, #4]
 1508 008c 0122     		movs	r2, #1
 1509 008e 1A77     		strb	r2, [r3, #28]
 1510 0090 02E0     		b	.L78
 1511              	.L82:
 1512              	.LBE6:
 346:C:/Users/dtjld/workspace/AIoT/src/LiteOS_Lab/iot_link/network/mqtt/paho_mqtt/paho/MQTTClient-C/src\MQTTClient.c **** 
 1513              		.loc 1 346 0
 1514 0092 00BF     		nop
 1515 0094 00E0     		b	.L78
 1516              	.L83:
 360:C:/Users/dtjld/workspace/AIoT/src/LiteOS_Lab/iot_link/network/mqtt/paho_mqtt/paho/MQTTClient-C/src\MQTTClient.c ****         }
 361:C:/Users/dtjld/workspace/AIoT/src/LiteOS_Lab/iot_link/network/mqtt/paho_mqtt/paho/MQTTClient-C/src\MQTTClient.c ****     }
 362:C:/Users/dtjld/workspace/AIoT/src/LiteOS_Lab/iot_link/network/mqtt/paho_mqtt/paho/MQTTClient-C/src\MQTTClient.c **** 
 363:C:/Users/dtjld/workspace/AIoT/src/LiteOS_Lab/iot_link/network/mqtt/paho_mqtt/paho/MQTTClient-C/src\MQTTClient.c **** exit:
 1517              		.loc 1 363 0
 1518 0096 00BF     		nop
 1519              	.L78:
 364:C:/Users/dtjld/workspace/AIoT/src/LiteOS_Lab/iot_link/network/mqtt/paho_mqtt/paho/MQTTClient-C/src\MQTTClient.c ****     return rc;
 1520              		.loc 1 364 0
 1521 0098 7B69     		ldr	r3, [r7, #20]
ARM GAS  C:\Users\dtjld\AppData\Local\Temp\cc8xzzLd.s 			page 34


 365:C:/Users/dtjld/workspace/AIoT/src/LiteOS_Lab/iot_link/network/mqtt/paho_mqtt/paho/MQTTClient-C/src\MQTTClient.c **** }
 1522              		.loc 1 365 0
 1523 009a 1846     		mov	r0, r3
 1524 009c 1837     		adds	r7, r7, #24
 1525              	.LCFI50:
 1526              		.cfi_def_cfa_offset 8
 1527 009e BD46     		mov	sp, r7
 1528              	.LCFI51:
 1529              		.cfi_def_cfa_register 13
 1530              		@ sp needed
 1531 00a0 80BD     		pop	{r7, pc}
 1532              		.cfi_endproc
 1533              	.LFE13:
 1535              		.section	.text.MQTTCleanSession,"ax",%progbits
 1536              		.align	1
 1537              		.global	MQTTCleanSession
 1538              		.syntax unified
 1539              		.thumb
 1540              		.thumb_func
 1541              		.fpu fpv4-sp-d16
 1543              	MQTTCleanSession:
 1544              	.LFB14:
 366:C:/Users/dtjld/workspace/AIoT/src/LiteOS_Lab/iot_link/network/mqtt/paho_mqtt/paho/MQTTClient-C/src\MQTTClient.c **** 
 367:C:/Users/dtjld/workspace/AIoT/src/LiteOS_Lab/iot_link/network/mqtt/paho_mqtt/paho/MQTTClient-C/src\MQTTClient.c **** 
 368:C:/Users/dtjld/workspace/AIoT/src/LiteOS_Lab/iot_link/network/mqtt/paho_mqtt/paho/MQTTClient-C/src\MQTTClient.c **** void MQTTCleanSession(MQTTClient* c)
 369:C:/Users/dtjld/workspace/AIoT/src/LiteOS_Lab/iot_link/network/mqtt/paho_mqtt/paho/MQTTClient-C/src\MQTTClient.c **** {
 1545              		.loc 1 369 0
 1546              		.cfi_startproc
 1547              		@ args = 0, pretend = 0, frame = 16
 1548              		@ frame_needed = 1, uses_anonymous_args = 0
 1549              		@ link register save eliminated.
 1550 0000 80B4     		push	{r7}
 1551              	.LCFI52:
 1552              		.cfi_def_cfa_offset 4
 1553              		.cfi_offset 7, -4
 1554 0002 85B0     		sub	sp, sp, #20
 1555              	.LCFI53:
 1556              		.cfi_def_cfa_offset 24
 1557 0004 00AF     		add	r7, sp, #0
 1558              	.LCFI54:
 1559              		.cfi_def_cfa_register 7
 1560 0006 7860     		str	r0, [r7, #4]
 370:C:/Users/dtjld/workspace/AIoT/src/LiteOS_Lab/iot_link/network/mqtt/paho_mqtt/paho/MQTTClient-C/src\MQTTClient.c ****     int i = 0;
 1561              		.loc 1 370 0
 1562 0008 0023     		movs	r3, #0
 1563 000a FB60     		str	r3, [r7, #12]
 371:C:/Users/dtjld/workspace/AIoT/src/LiteOS_Lab/iot_link/network/mqtt/paho_mqtt/paho/MQTTClient-C/src\MQTTClient.c **** 
 372:C:/Users/dtjld/workspace/AIoT/src/LiteOS_Lab/iot_link/network/mqtt/paho_mqtt/paho/MQTTClient-C/src\MQTTClient.c ****     for (i = 0; i < MAX_MESSAGE_HANDLERS; ++i)
 1564              		.loc 1 372 0
 1565 000c 0023     		movs	r3, #0
 1566 000e FB60     		str	r3, [r7, #12]
 1567 0010 0CE0     		b	.L85
 1568              	.L86:
 373:C:/Users/dtjld/workspace/AIoT/src/LiteOS_Lab/iot_link/network/mqtt/paho_mqtt/paho/MQTTClient-C/src\MQTTClient.c ****         c->messageHandlers[i].topicFilter = NULL;
 1569              		.loc 1 373 0 discriminator 3
 1570 0012 7968     		ldr	r1, [r7, #4]
 1571 0014 FA68     		ldr	r2, [r7, #12]
ARM GAS  C:\Users\dtjld\AppData\Local\Temp\cc8xzzLd.s 			page 35


 1572 0016 1346     		mov	r3, r2
 1573 0018 5B00     		lsls	r3, r3, #1
 1574 001a 1344     		add	r3, r3, r2
 1575 001c 9B00     		lsls	r3, r3, #2
 1576 001e 0B44     		add	r3, r3, r1
 1577 0020 2833     		adds	r3, r3, #40
 1578 0022 0022     		movs	r2, #0
 1579 0024 1A60     		str	r2, [r3]
 372:C:/Users/dtjld/workspace/AIoT/src/LiteOS_Lab/iot_link/network/mqtt/paho_mqtt/paho/MQTTClient-C/src\MQTTClient.c ****         c->messageHandlers[i].topicFilter = NULL;
 1580              		.loc 1 372 0 discriminator 3
 1581 0026 FB68     		ldr	r3, [r7, #12]
 1582 0028 0133     		adds	r3, r3, #1
 1583 002a FB60     		str	r3, [r7, #12]
 1584              	.L85:
 372:C:/Users/dtjld/workspace/AIoT/src/LiteOS_Lab/iot_link/network/mqtt/paho_mqtt/paho/MQTTClient-C/src\MQTTClient.c ****         c->messageHandlers[i].topicFilter = NULL;
 1585              		.loc 1 372 0 is_stmt 0 discriminator 1
 1586 002c FB68     		ldr	r3, [r7, #12]
 1587 002e 042B     		cmp	r3, #4
 1588 0030 EFDD     		ble	.L86
 374:C:/Users/dtjld/workspace/AIoT/src/LiteOS_Lab/iot_link/network/mqtt/paho_mqtt/paho/MQTTClient-C/src\MQTTClient.c **** }
 1589              		.loc 1 374 0 is_stmt 1
 1590 0032 00BF     		nop
 1591 0034 1437     		adds	r7, r7, #20
 1592              	.LCFI55:
 1593              		.cfi_def_cfa_offset 4
 1594 0036 BD46     		mov	sp, r7
 1595              	.LCFI56:
 1596              		.cfi_def_cfa_register 13
 1597              		@ sp needed
 1598 0038 5DF8047B 		ldr	r7, [sp], #4
 1599              	.LCFI57:
 1600              		.cfi_restore 7
 1601              		.cfi_def_cfa_offset 0
 1602 003c 7047     		bx	lr
 1603              		.cfi_endproc
 1604              	.LFE14:
 1606              		.section	.text.MQTTCloseSession,"ax",%progbits
 1607              		.align	1
 1608              		.global	MQTTCloseSession
 1609              		.syntax unified
 1610              		.thumb
 1611              		.thumb_func
 1612              		.fpu fpv4-sp-d16
 1614              	MQTTCloseSession:
 1615              	.LFB15:
 375:C:/Users/dtjld/workspace/AIoT/src/LiteOS_Lab/iot_link/network/mqtt/paho_mqtt/paho/MQTTClient-C/src\MQTTClient.c **** 
 376:C:/Users/dtjld/workspace/AIoT/src/LiteOS_Lab/iot_link/network/mqtt/paho_mqtt/paho/MQTTClient-C/src\MQTTClient.c **** 
 377:C:/Users/dtjld/workspace/AIoT/src/LiteOS_Lab/iot_link/network/mqtt/paho_mqtt/paho/MQTTClient-C/src\MQTTClient.c **** void MQTTCloseSession(MQTTClient* c)
 378:C:/Users/dtjld/workspace/AIoT/src/LiteOS_Lab/iot_link/network/mqtt/paho_mqtt/paho/MQTTClient-C/src\MQTTClient.c **** {
 1616              		.loc 1 378 0
 1617              		.cfi_startproc
 1618              		@ args = 0, pretend = 0, frame = 8
 1619              		@ frame_needed = 1, uses_anonymous_args = 0
 1620 0000 80B5     		push	{r7, lr}
 1621              	.LCFI58:
 1622              		.cfi_def_cfa_offset 8
 1623              		.cfi_offset 7, -8
ARM GAS  C:\Users\dtjld\AppData\Local\Temp\cc8xzzLd.s 			page 36


 1624              		.cfi_offset 14, -4
 1625 0002 82B0     		sub	sp, sp, #8
 1626              	.LCFI59:
 1627              		.cfi_def_cfa_offset 16
 1628 0004 00AF     		add	r7, sp, #0
 1629              	.LCFI60:
 1630              		.cfi_def_cfa_register 7
 1631 0006 7860     		str	r0, [r7, #4]
 379:C:/Users/dtjld/workspace/AIoT/src/LiteOS_Lab/iot_link/network/mqtt/paho_mqtt/paho/MQTTClient-C/src\MQTTClient.c ****     c->ping_outstanding = 0;
 1632              		.loc 1 379 0
 1633 0008 7B68     		ldr	r3, [r7, #4]
 1634 000a 0022     		movs	r2, #0
 1635 000c 1A77     		strb	r2, [r3, #28]
 380:C:/Users/dtjld/workspace/AIoT/src/LiteOS_Lab/iot_link/network/mqtt/paho_mqtt/paho/MQTTClient-C/src\MQTTClient.c ****     c->isconnected = 0;
 1636              		.loc 1 380 0
 1637 000e 7B68     		ldr	r3, [r7, #4]
 1638 0010 0022     		movs	r2, #0
 1639 0012 1A62     		str	r2, [r3, #32]
 381:C:/Users/dtjld/workspace/AIoT/src/LiteOS_Lab/iot_link/network/mqtt/paho_mqtt/paho/MQTTClient-C/src\MQTTClient.c ****     if (c->cleansession)
 1640              		.loc 1 381 0
 1641 0014 7B68     		ldr	r3, [r7, #4]
 1642 0016 5B6A     		ldr	r3, [r3, #36]
 1643 0018 002B     		cmp	r3, #0
 1644 001a 02D0     		beq	.L89
 382:C:/Users/dtjld/workspace/AIoT/src/LiteOS_Lab/iot_link/network/mqtt/paho_mqtt/paho/MQTTClient-C/src\MQTTClient.c ****         MQTTCleanSession(c);
 1645              		.loc 1 382 0
 1646 001c 7868     		ldr	r0, [r7, #4]
 1647 001e FFF7FEFF 		bl	MQTTCleanSession
 1648              	.L89:
 383:C:/Users/dtjld/workspace/AIoT/src/LiteOS_Lab/iot_link/network/mqtt/paho_mqtt/paho/MQTTClient-C/src\MQTTClient.c **** }
 1649              		.loc 1 383 0
 1650 0022 00BF     		nop
 1651 0024 0837     		adds	r7, r7, #8
 1652              	.LCFI61:
 1653              		.cfi_def_cfa_offset 8
 1654 0026 BD46     		mov	sp, r7
 1655              	.LCFI62:
 1656              		.cfi_def_cfa_register 13
 1657              		@ sp needed
 1658 0028 80BD     		pop	{r7, pc}
 1659              		.cfi_endproc
 1660              	.LFE15:
 1662              		.section	.text.cycle,"ax",%progbits
 1663              		.align	1
 1664              		.global	cycle
 1665              		.syntax unified
 1666              		.thumb
 1667              		.thumb_func
 1668              		.fpu fpv4-sp-d16
 1670              	cycle:
 1671              	.LFB16:
 384:C:/Users/dtjld/workspace/AIoT/src/LiteOS_Lab/iot_link/network/mqtt/paho_mqtt/paho/MQTTClient-C/src\MQTTClient.c **** 
 385:C:/Users/dtjld/workspace/AIoT/src/LiteOS_Lab/iot_link/network/mqtt/paho_mqtt/paho/MQTTClient-C/src\MQTTClient.c **** 
 386:C:/Users/dtjld/workspace/AIoT/src/LiteOS_Lab/iot_link/network/mqtt/paho_mqtt/paho/MQTTClient-C/src\MQTTClient.c **** int cycle(MQTTClient* c, Timer* timer)
 387:C:/Users/dtjld/workspace/AIoT/src/LiteOS_Lab/iot_link/network/mqtt/paho_mqtt/paho/MQTTClient-C/src\MQTTClient.c **** {
 1672              		.loc 1 387 0
 1673              		.cfi_startproc
ARM GAS  C:\Users\dtjld\AppData\Local\Temp\cc8xzzLd.s 			page 37


 1674              		@ args = 0, pretend = 0, frame = 72
 1675              		@ frame_needed = 1, uses_anonymous_args = 0
 1676 0000 F0B5     		push	{r4, r5, r6, r7, lr}
 1677              	.LCFI63:
 1678              		.cfi_def_cfa_offset 20
 1679              		.cfi_offset 4, -20
 1680              		.cfi_offset 5, -16
 1681              		.cfi_offset 6, -12
 1682              		.cfi_offset 7, -8
 1683              		.cfi_offset 14, -4
 1684 0002 99B0     		sub	sp, sp, #100
 1685              	.LCFI64:
 1686              		.cfi_def_cfa_offset 120
 1687 0004 06AF     		add	r7, sp, #24
 1688              	.LCFI65:
 1689              		.cfi_def_cfa 7, 96
 1690 0006 7860     		str	r0, [r7, #4]
 1691 0008 3960     		str	r1, [r7]
 388:C:/Users/dtjld/workspace/AIoT/src/LiteOS_Lab/iot_link/network/mqtt/paho_mqtt/paho/MQTTClient-C/src\MQTTClient.c ****     int len = 0,
 1692              		.loc 1 388 0
 1693 000a 0023     		movs	r3, #0
 1694 000c 7B64     		str	r3, [r7, #68]
 389:C:/Users/dtjld/workspace/AIoT/src/LiteOS_Lab/iot_link/network/mqtt/paho_mqtt/paho/MQTTClient-C/src\MQTTClient.c ****         rc = MQTT_SUCCESS;
 1695              		.loc 1 389 0
 1696 000e 0023     		movs	r3, #0
 1697 0010 3B64     		str	r3, [r7, #64]
 390:C:/Users/dtjld/workspace/AIoT/src/LiteOS_Lab/iot_link/network/mqtt/paho_mqtt/paho/MQTTClient-C/src\MQTTClient.c ****     Timer send_timer;
 391:C:/Users/dtjld/workspace/AIoT/src/LiteOS_Lab/iot_link/network/mqtt/paho_mqtt/paho/MQTTClient-C/src\MQTTClient.c **** 
 392:C:/Users/dtjld/workspace/AIoT/src/LiteOS_Lab/iot_link/network/mqtt/paho_mqtt/paho/MQTTClient-C/src\MQTTClient.c ****     int packet_type = readPacket(c, timer);     /* read the socket, see what work is due */
 1698              		.loc 1 392 0
 1699 0012 3968     		ldr	r1, [r7]
 1700 0014 7868     		ldr	r0, [r7, #4]
 1701 0016 FFF7FEFF 		bl	readPacket
 1702 001a F863     		str	r0, [r7, #60]
 393:C:/Users/dtjld/workspace/AIoT/src/LiteOS_Lab/iot_link/network/mqtt/paho_mqtt/paho/MQTTClient-C/src\MQTTClient.c **** 
 394:C:/Users/dtjld/workspace/AIoT/src/LiteOS_Lab/iot_link/network/mqtt/paho_mqtt/paho/MQTTClient-C/src\MQTTClient.c ****     switch (packet_type)
 1703              		.loc 1 394 0
 1704 001c FB6B     		ldr	r3, [r7, #60]
 1705 001e 0D2B     		cmp	r3, #13
 1706 0020 1ED8     		bhi	.L91
 1707 0022 01A2     		adr	r2, .L93
 1708 0024 52F823F0 		ldr	pc, [r2, r3, lsl #2]
 1709              		.p2align 2
 1710              	.L93:
 1711 0028 F3010000 		.word	.L117+1
 1712 002c 61000000 		.word	.L91+1
 1713 0030 F3010000 		.word	.L117+1
 1714 0034 67000000 		.word	.L95+1
 1715 0038 F3010000 		.word	.L117+1
 1716 003c 53010000 		.word	.L96+1
 1717 0040 53010000 		.word	.L96+1
 1718 0044 F3010000 		.word	.L117+1
 1719 0048 61000000 		.word	.L91+1
 1720 004c F3010000 		.word	.L117+1
 1721 0050 61000000 		.word	.L91+1
 1722 0054 F3010000 		.word	.L117+1
 1723 0058 61000000 		.word	.L91+1
ARM GAS  C:\Users\dtjld\AppData\Local\Temp\cc8xzzLd.s 			page 38


 1724 005c EB010000 		.word	.L98+1
 1725              		.p2align 1
 1726              	.L91:
 395:C:/Users/dtjld/workspace/AIoT/src/LiteOS_Lab/iot_link/network/mqtt/paho_mqtt/paho/MQTTClient-C/src\MQTTClient.c ****     {
 396:C:/Users/dtjld/workspace/AIoT/src/LiteOS_Lab/iot_link/network/mqtt/paho_mqtt/paho/MQTTClient-C/src\MQTTClient.c ****     default:
 397:C:/Users/dtjld/workspace/AIoT/src/LiteOS_Lab/iot_link/network/mqtt/paho_mqtt/paho/MQTTClient-C/src\MQTTClient.c ****         /* no more data to read, unrecoverable. Or read packet fails due to unexpected network erro
 398:C:/Users/dtjld/workspace/AIoT/src/LiteOS_Lab/iot_link/network/mqtt/paho_mqtt/paho/MQTTClient-C/src\MQTTClient.c ****         rc = packet_type;
 1727              		.loc 1 398 0
 1728 0060 FB6B     		ldr	r3, [r7, #60]
 1729 0062 3B64     		str	r3, [r7, #64]
 399:C:/Users/dtjld/workspace/AIoT/src/LiteOS_Lab/iot_link/network/mqtt/paho_mqtt/paho/MQTTClient-C/src\MQTTClient.c ****         goto exit;
 1730              		.loc 1 399 0
 1731 0064 D7E0     		b	.L99
 1732              	.L95:
 1733              	.LBB7:
 400:C:/Users/dtjld/workspace/AIoT/src/LiteOS_Lab/iot_link/network/mqtt/paho_mqtt/paho/MQTTClient-C/src\MQTTClient.c ****     case 0: /* timed out reading packet */
 401:C:/Users/dtjld/workspace/AIoT/src/LiteOS_Lab/iot_link/network/mqtt/paho_mqtt/paho/MQTTClient-C/src\MQTTClient.c ****         break;
 402:C:/Users/dtjld/workspace/AIoT/src/LiteOS_Lab/iot_link/network/mqtt/paho_mqtt/paho/MQTTClient-C/src\MQTTClient.c ****     case CONNACK:
 403:C:/Users/dtjld/workspace/AIoT/src/LiteOS_Lab/iot_link/network/mqtt/paho_mqtt/paho/MQTTClient-C/src\MQTTClient.c ****     case PUBACK:
 404:C:/Users/dtjld/workspace/AIoT/src/LiteOS_Lab/iot_link/network/mqtt/paho_mqtt/paho/MQTTClient-C/src\MQTTClient.c ****     case SUBACK:
 405:C:/Users/dtjld/workspace/AIoT/src/LiteOS_Lab/iot_link/network/mqtt/paho_mqtt/paho/MQTTClient-C/src\MQTTClient.c ****     case UNSUBACK:
 406:C:/Users/dtjld/workspace/AIoT/src/LiteOS_Lab/iot_link/network/mqtt/paho_mqtt/paho/MQTTClient-C/src\MQTTClient.c ****         break;
 407:C:/Users/dtjld/workspace/AIoT/src/LiteOS_Lab/iot_link/network/mqtt/paho_mqtt/paho/MQTTClient-C/src\MQTTClient.c ****     case PUBLISH:
 408:C:/Users/dtjld/workspace/AIoT/src/LiteOS_Lab/iot_link/network/mqtt/paho_mqtt/paho/MQTTClient-C/src\MQTTClient.c ****     {
 409:C:/Users/dtjld/workspace/AIoT/src/LiteOS_Lab/iot_link/network/mqtt/paho_mqtt/paho/MQTTClient-C/src\MQTTClient.c ****         MQTTString topicName;
 410:C:/Users/dtjld/workspace/AIoT/src/LiteOS_Lab/iot_link/network/mqtt/paho_mqtt/paho/MQTTClient-C/src\MQTTClient.c ****         MQTTMessage msg;
 411:C:/Users/dtjld/workspace/AIoT/src/LiteOS_Lab/iot_link/network/mqtt/paho_mqtt/paho/MQTTClient-C/src\MQTTClient.c ****         int intQoS;
 412:C:/Users/dtjld/workspace/AIoT/src/LiteOS_Lab/iot_link/network/mqtt/paho_mqtt/paho/MQTTClient-C/src\MQTTClient.c ****         msg.payloadlen = 0; /* this is a size_t, but deserialize publish sets this as int */
 1734              		.loc 1 412 0
 1735 0066 0023     		movs	r3, #0
 1736 0068 3B62     		str	r3, [r7, #32]
 413:C:/Users/dtjld/workspace/AIoT/src/LiteOS_Lab/iot_link/network/mqtt/paho_mqtt/paho/MQTTClient-C/src\MQTTClient.c ****         if (MQTTDeserialize_publish(&msg.dup, &intQoS, &msg.retained, &msg.id, &topicName,
 1737              		.loc 1 413 0
 1738 006a 7B68     		ldr	r3, [r7, #4]
 1739 006c 5B69     		ldr	r3, [r3, #20]
 414:C:/Users/dtjld/workspace/AIoT/src/LiteOS_Lab/iot_link/network/mqtt/paho_mqtt/paho/MQTTClient-C/src\MQTTClient.c ****                                     (unsigned char **)&msg.payload, (int *)&msg.payloadlen, c->read
 1740              		.loc 1 414 0
 1741 006e 7A68     		ldr	r2, [r7, #4]
 1742 0070 D268     		ldr	r2, [r2, #12]
 413:C:/Users/dtjld/workspace/AIoT/src/LiteOS_Lab/iot_link/network/mqtt/paho_mqtt/paho/MQTTClient-C/src\MQTTClient.c ****         if (MQTTDeserialize_publish(&msg.dup, &intQoS, &msg.retained, &msg.id, &topicName,
 1743              		.loc 1 413 0
 1744 0072 1646     		mov	r6, r2
 1745 0074 07F11402 		add	r2, r7, #20
 1746 0078 151D     		adds	r5, r2, #4
 1747 007a 07F11402 		add	r2, r7, #20
 1748 007e 541C     		adds	r4, r2, #1
 1749 0080 07F11001 		add	r1, r7, #16
 1750 0084 07F11402 		add	r2, r7, #20
 1751 0088 901C     		adds	r0, r2, #2
 1752 008a 0496     		str	r6, [sp, #16]
 1753 008c 0393     		str	r3, [sp, #12]
 1754 008e 07F11403 		add	r3, r7, #20
 1755 0092 0C33     		adds	r3, r3, #12
 1756 0094 0293     		str	r3, [sp, #8]
 1757 0096 07F11403 		add	r3, r7, #20
 1758 009a 0833     		adds	r3, r3, #8
 1759 009c 0193     		str	r3, [sp, #4]
ARM GAS  C:\Users\dtjld\AppData\Local\Temp\cc8xzzLd.s 			page 39


 1760 009e 07F12403 		add	r3, r7, #36
 1761 00a2 0093     		str	r3, [sp]
 1762 00a4 2B46     		mov	r3, r5
 1763 00a6 2246     		mov	r2, r4
 1764 00a8 FFF7FEFF 		bl	MQTTDeserialize_publish
 1765 00ac 0346     		mov	r3, r0
 1766 00ae 012B     		cmp	r3, #1
 1767 00b0 40F0AE80 		bne	.L118
 415:C:/Users/dtjld/workspace/AIoT/src/LiteOS_Lab/iot_link/network/mqtt/paho_mqtt/paho/MQTTClient-C/src\MQTTClient.c ****             goto exit;
 416:C:/Users/dtjld/workspace/AIoT/src/LiteOS_Lab/iot_link/network/mqtt/paho_mqtt/paho/MQTTClient-C/src\MQTTClient.c ****         msg.qos = (enum QoS)intQoS;
 1768              		.loc 1 416 0
 1769 00b4 3B69     		ldr	r3, [r7, #16]
 1770 00b6 DBB2     		uxtb	r3, r3
 1771 00b8 3B75     		strb	r3, [r7, #20]
 417:C:/Users/dtjld/workspace/AIoT/src/LiteOS_Lab/iot_link/network/mqtt/paho_mqtt/paho/MQTTClient-C/src\MQTTClient.c ****         deliverMessage(c, &topicName, &msg);
 1772              		.loc 1 417 0
 1773 00ba 07F11402 		add	r2, r7, #20
 1774 00be 07F12403 		add	r3, r7, #36
 1775 00c2 1946     		mov	r1, r3
 1776 00c4 7868     		ldr	r0, [r7, #4]
 1777 00c6 FFF7FEFF 		bl	deliverMessage
 418:C:/Users/dtjld/workspace/AIoT/src/LiteOS_Lab/iot_link/network/mqtt/paho_mqtt/paho/MQTTClient-C/src\MQTTClient.c ****         if (msg.qos != QOS0)
 1778              		.loc 1 418 0
 1779 00ca 3B7D     		ldrb	r3, [r7, #20]	@ zero_extendqisi2
 1780 00cc 002B     		cmp	r3, #0
 1781 00ce 00F09280 		beq	.L119
 419:C:/Users/dtjld/workspace/AIoT/src/LiteOS_Lab/iot_link/network/mqtt/paho_mqtt/paho/MQTTClient-C/src\MQTTClient.c ****         {
 420:C:/Users/dtjld/workspace/AIoT/src/LiteOS_Lab/iot_link/network/mqtt/paho_mqtt/paho/MQTTClient-C/src\MQTTClient.c ****             if (msg.qos == QOS1)
 1782              		.loc 1 420 0
 1783 00d2 3B7D     		ldrb	r3, [r7, #20]	@ zero_extendqisi2
 1784 00d4 012B     		cmp	r3, #1
 1785 00d6 0CD1     		bne	.L104
 421:C:/Users/dtjld/workspace/AIoT/src/LiteOS_Lab/iot_link/network/mqtt/paho_mqtt/paho/MQTTClient-C/src\MQTTClient.c ****                 len = MQTTSerialize_ack(c->buf, c->buf_size, PUBACK, 0, msg.id);
 1786              		.loc 1 421 0
 1787 00d8 7B68     		ldr	r3, [r7, #4]
 1788 00da 1869     		ldr	r0, [r3, #16]
 1789 00dc 7B68     		ldr	r3, [r7, #4]
 1790 00de 9B68     		ldr	r3, [r3, #8]
 1791 00e0 1946     		mov	r1, r3
 1792 00e2 3B8B     		ldrh	r3, [r7, #24]
 1793 00e4 0093     		str	r3, [sp]
 1794 00e6 0023     		movs	r3, #0
 1795 00e8 0422     		movs	r2, #4
 1796 00ea FFF7FEFF 		bl	MQTTSerialize_ack
 1797 00ee 7864     		str	r0, [r7, #68]
 1798 00f0 0EE0     		b	.L105
 1799              	.L104:
 422:C:/Users/dtjld/workspace/AIoT/src/LiteOS_Lab/iot_link/network/mqtt/paho_mqtt/paho/MQTTClient-C/src\MQTTClient.c ****             else if (msg.qos == QOS2)
 1800              		.loc 1 422 0
 1801 00f2 3B7D     		ldrb	r3, [r7, #20]	@ zero_extendqisi2
 1802 00f4 022B     		cmp	r3, #2
 1803 00f6 0BD1     		bne	.L105
 423:C:/Users/dtjld/workspace/AIoT/src/LiteOS_Lab/iot_link/network/mqtt/paho_mqtt/paho/MQTTClient-C/src\MQTTClient.c ****                 len = MQTTSerialize_ack(c->buf, c->buf_size, PUBREC, 0, msg.id);
 1804              		.loc 1 423 0
 1805 00f8 7B68     		ldr	r3, [r7, #4]
 1806 00fa 1869     		ldr	r0, [r3, #16]
 1807 00fc 7B68     		ldr	r3, [r7, #4]
ARM GAS  C:\Users\dtjld\AppData\Local\Temp\cc8xzzLd.s 			page 40


 1808 00fe 9B68     		ldr	r3, [r3, #8]
 1809 0100 1946     		mov	r1, r3
 1810 0102 3B8B     		ldrh	r3, [r7, #24]
 1811 0104 0093     		str	r3, [sp]
 1812 0106 0023     		movs	r3, #0
 1813 0108 0522     		movs	r2, #5
 1814 010a FFF7FEFF 		bl	MQTTSerialize_ack
 1815 010e 7864     		str	r0, [r7, #68]
 1816              	.L105:
 424:C:/Users/dtjld/workspace/AIoT/src/LiteOS_Lab/iot_link/network/mqtt/paho_mqtt/paho/MQTTClient-C/src\MQTTClient.c ****             if (len <= 0)
 1817              		.loc 1 424 0
 1818 0110 7B6C     		ldr	r3, [r7, #68]
 1819 0112 002B     		cmp	r3, #0
 1820 0114 03DC     		bgt	.L106
 425:C:/Users/dtjld/workspace/AIoT/src/LiteOS_Lab/iot_link/network/mqtt/paho_mqtt/paho/MQTTClient-C/src\MQTTClient.c ****                 rc = FAILURE;
 1821              		.loc 1 425 0
 1822 0116 4FF0FF33 		mov	r3, #-1
 1823 011a 3B64     		str	r3, [r7, #64]
 1824 011c 13E0     		b	.L107
 1825              	.L106:
 426:C:/Users/dtjld/workspace/AIoT/src/LiteOS_Lab/iot_link/network/mqtt/paho_mqtt/paho/MQTTClient-C/src\MQTTClient.c ****             else
 427:C:/Users/dtjld/workspace/AIoT/src/LiteOS_Lab/iot_link/network/mqtt/paho_mqtt/paho/MQTTClient-C/src\MQTTClient.c ****             {
 428:C:/Users/dtjld/workspace/AIoT/src/LiteOS_Lab/iot_link/network/mqtt/paho_mqtt/paho/MQTTClient-C/src\MQTTClient.c ****                 TimerInit(&send_timer);
 1826              		.loc 1 428 0
 1827 011e 07F13003 		add	r3, r7, #48
 1828 0122 1846     		mov	r0, r3
 1829 0124 FFF7FEFF 		bl	osal_loop_timer_init
 429:C:/Users/dtjld/workspace/AIoT/src/LiteOS_Lab/iot_link/network/mqtt/paho_mqtt/paho/MQTTClient-C/src\MQTTClient.c ****                 TimerCountdownMS(&send_timer, 1000);
 1830              		.loc 1 429 0
 1831 0128 07F13003 		add	r3, r7, #48
 1832 012c 4FF47A71 		mov	r1, #1000
 1833 0130 1846     		mov	r0, r3
 1834 0132 FFF7FEFF 		bl	osal_loop_timer_count_downms
 430:C:/Users/dtjld/workspace/AIoT/src/LiteOS_Lab/iot_link/network/mqtt/paho_mqtt/paho/MQTTClient-C/src\MQTTClient.c ****                 rc = sendPacket(c, len, &send_timer);
 1835              		.loc 1 430 0
 1836 0136 07F13003 		add	r3, r7, #48
 1837 013a 1A46     		mov	r2, r3
 1838 013c 796C     		ldr	r1, [r7, #68]
 1839 013e 7868     		ldr	r0, [r7, #4]
 1840 0140 FFF7FEFF 		bl	sendPacket
 1841 0144 3864     		str	r0, [r7, #64]
 1842              	.L107:
 431:C:/Users/dtjld/workspace/AIoT/src/LiteOS_Lab/iot_link/network/mqtt/paho_mqtt/paho/MQTTClient-C/src\MQTTClient.c ****             }
 432:C:/Users/dtjld/workspace/AIoT/src/LiteOS_Lab/iot_link/network/mqtt/paho_mqtt/paho/MQTTClient-C/src\MQTTClient.c ****             if (rc == FAILURE)
 1843              		.loc 1 432 0
 1844 0146 3B6C     		ldr	r3, [r7, #64]
 1845 0148 B3F1FF3F 		cmp	r3, #-1
 1846 014c 53D1     		bne	.L119
 433:C:/Users/dtjld/workspace/AIoT/src/LiteOS_Lab/iot_link/network/mqtt/paho_mqtt/paho/MQTTClient-C/src\MQTTClient.c ****                 goto exit; // there was a problem
 1847              		.loc 1 433 0
 1848 014e 00BF     		nop
 1849 0150 61E0     		b	.L99
 1850              	.L96:
 1851              	.LBE7:
 1852              	.LBB8:
 434:C:/Users/dtjld/workspace/AIoT/src/LiteOS_Lab/iot_link/network/mqtt/paho_mqtt/paho/MQTTClient-C/src\MQTTClient.c ****         }
 435:C:/Users/dtjld/workspace/AIoT/src/LiteOS_Lab/iot_link/network/mqtt/paho_mqtt/paho/MQTTClient-C/src\MQTTClient.c ****         break;
ARM GAS  C:\Users\dtjld\AppData\Local\Temp\cc8xzzLd.s 			page 41


 436:C:/Users/dtjld/workspace/AIoT/src/LiteOS_Lab/iot_link/network/mqtt/paho_mqtt/paho/MQTTClient-C/src\MQTTClient.c ****     }
 437:C:/Users/dtjld/workspace/AIoT/src/LiteOS_Lab/iot_link/network/mqtt/paho_mqtt/paho/MQTTClient-C/src\MQTTClient.c ****     case PUBREC:
 438:C:/Users/dtjld/workspace/AIoT/src/LiteOS_Lab/iot_link/network/mqtt/paho_mqtt/paho/MQTTClient-C/src\MQTTClient.c ****     case PUBREL:
 439:C:/Users/dtjld/workspace/AIoT/src/LiteOS_Lab/iot_link/network/mqtt/paho_mqtt/paho/MQTTClient-C/src\MQTTClient.c ****     {
 440:C:/Users/dtjld/workspace/AIoT/src/LiteOS_Lab/iot_link/network/mqtt/paho_mqtt/paho/MQTTClient-C/src\MQTTClient.c ****         unsigned short mypacketid;
 441:C:/Users/dtjld/workspace/AIoT/src/LiteOS_Lab/iot_link/network/mqtt/paho_mqtt/paho/MQTTClient-C/src\MQTTClient.c ****         unsigned char dup, type;
 442:C:/Users/dtjld/workspace/AIoT/src/LiteOS_Lab/iot_link/network/mqtt/paho_mqtt/paho/MQTTClient-C/src\MQTTClient.c ****         if (MQTTDeserialize_ack(&type, &dup, &mypacketid, c->readbuf, c->readbuf_size) != 1)
 1853              		.loc 1 442 0
 1854 0152 7B68     		ldr	r3, [r7, #4]
 1855 0154 5C69     		ldr	r4, [r3, #20]
 1856 0156 7B68     		ldr	r3, [r7, #4]
 1857 0158 DB68     		ldr	r3, [r3, #12]
 1858 015a 07F10E02 		add	r2, r7, #14
 1859 015e 07F10D01 		add	r1, r7, #13
 1860 0162 07F10C00 		add	r0, r7, #12
 1861 0166 0093     		str	r3, [sp]
 1862 0168 2346     		mov	r3, r4
 1863 016a FFF7FEFF 		bl	MQTTDeserialize_ack
 1864 016e 0346     		mov	r3, r0
 1865 0170 012B     		cmp	r3, #1
 1866 0172 03D0     		beq	.L108
 443:C:/Users/dtjld/workspace/AIoT/src/LiteOS_Lab/iot_link/network/mqtt/paho_mqtt/paho/MQTTClient-C/src\MQTTClient.c ****             rc = FAILURE;
 1867              		.loc 1 443 0
 1868 0174 4FF0FF33 		mov	r3, #-1
 1869 0178 3B64     		str	r3, [r7, #64]
 1870 017a 31E0     		b	.L109
 1871              	.L108:
 444:C:/Users/dtjld/workspace/AIoT/src/LiteOS_Lab/iot_link/network/mqtt/paho_mqtt/paho/MQTTClient-C/src\MQTTClient.c ****         else if ((len = MQTTSerialize_ack(c->buf, c->buf_size,
 1872              		.loc 1 444 0
 1873 017c 7B68     		ldr	r3, [r7, #4]
 1874 017e 1869     		ldr	r0, [r3, #16]
 1875 0180 7B68     		ldr	r3, [r7, #4]
 1876 0182 9B68     		ldr	r3, [r3, #8]
 1877 0184 1946     		mov	r1, r3
 1878 0186 FB6B     		ldr	r3, [r7, #60]
 1879 0188 052B     		cmp	r3, #5
 1880 018a 01D1     		bne	.L110
 1881              		.loc 1 444 0 is_stmt 0 discriminator 1
 1882 018c 0622     		movs	r2, #6
 1883 018e 00E0     		b	.L111
 1884              	.L110:
 1885              		.loc 1 444 0 discriminator 2
 1886 0190 0722     		movs	r2, #7
 1887              	.L111:
 1888              		.loc 1 444 0 discriminator 4
 1889 0192 FB89     		ldrh	r3, [r7, #14]
 1890 0194 0093     		str	r3, [sp]
 1891 0196 0023     		movs	r3, #0
 1892 0198 FFF7FEFF 		bl	MQTTSerialize_ack
 1893 019c 7864     		str	r0, [r7, #68]
 1894 019e 7B6C     		ldr	r3, [r7, #68]
 1895 01a0 002B     		cmp	r3, #0
 1896 01a2 03DC     		bgt	.L112
 445:C:/Users/dtjld/workspace/AIoT/src/LiteOS_Lab/iot_link/network/mqtt/paho_mqtt/paho/MQTTClient-C/src\MQTTClient.c ****                                           (packet_type == PUBREC) ? PUBREL : PUBCOMP, 0, mypacketid
 446:C:/Users/dtjld/workspace/AIoT/src/LiteOS_Lab/iot_link/network/mqtt/paho_mqtt/paho/MQTTClient-C/src\MQTTClient.c ****             rc = FAILURE;
 1897              		.loc 1 446 0 is_stmt 1
 1898 01a4 4FF0FF33 		mov	r3, #-1
ARM GAS  C:\Users\dtjld\AppData\Local\Temp\cc8xzzLd.s 			page 42


 1899 01a8 3B64     		str	r3, [r7, #64]
 1900 01aa 19E0     		b	.L109
 1901              	.L112:
 447:C:/Users/dtjld/workspace/AIoT/src/LiteOS_Lab/iot_link/network/mqtt/paho_mqtt/paho/MQTTClient-C/src\MQTTClient.c ****         else
 448:C:/Users/dtjld/workspace/AIoT/src/LiteOS_Lab/iot_link/network/mqtt/paho_mqtt/paho/MQTTClient-C/src\MQTTClient.c ****         {
 449:C:/Users/dtjld/workspace/AIoT/src/LiteOS_Lab/iot_link/network/mqtt/paho_mqtt/paho/MQTTClient-C/src\MQTTClient.c ****             TimerInit(&send_timer);
 1902              		.loc 1 449 0
 1903 01ac 07F13003 		add	r3, r7, #48
 1904 01b0 1846     		mov	r0, r3
 1905 01b2 FFF7FEFF 		bl	osal_loop_timer_init
 450:C:/Users/dtjld/workspace/AIoT/src/LiteOS_Lab/iot_link/network/mqtt/paho_mqtt/paho/MQTTClient-C/src\MQTTClient.c ****             TimerCountdownMS(&send_timer, 1000);
 1906              		.loc 1 450 0
 1907 01b6 07F13003 		add	r3, r7, #48
 1908 01ba 4FF47A71 		mov	r1, #1000
 1909 01be 1846     		mov	r0, r3
 1910 01c0 FFF7FEFF 		bl	osal_loop_timer_count_downms
 451:C:/Users/dtjld/workspace/AIoT/src/LiteOS_Lab/iot_link/network/mqtt/paho_mqtt/paho/MQTTClient-C/src\MQTTClient.c ****             rc = sendPacket(c, len, &send_timer);
 1911              		.loc 1 451 0
 1912 01c4 07F13003 		add	r3, r7, #48
 1913 01c8 1A46     		mov	r2, r3
 1914 01ca 796C     		ldr	r1, [r7, #68]
 1915 01cc 7868     		ldr	r0, [r7, #4]
 1916 01ce FFF7FEFF 		bl	sendPacket
 1917 01d2 3864     		str	r0, [r7, #64]
 452:C:/Users/dtjld/workspace/AIoT/src/LiteOS_Lab/iot_link/network/mqtt/paho_mqtt/paho/MQTTClient-C/src\MQTTClient.c ****             if(rc != MQTT_SUCCESS)
 1918              		.loc 1 452 0
 1919 01d4 3B6C     		ldr	r3, [r7, #64]
 1920 01d6 002B     		cmp	r3, #0
 1921 01d8 02D0     		beq	.L109
 453:C:/Users/dtjld/workspace/AIoT/src/LiteOS_Lab/iot_link/network/mqtt/paho_mqtt/paho/MQTTClient-C/src\MQTTClient.c ****                 rc = FAILURE; // there was a problem
 1922              		.loc 1 453 0
 1923 01da 4FF0FF33 		mov	r3, #-1
 1924 01de 3B64     		str	r3, [r7, #64]
 1925              	.L109:
 454:C:/Users/dtjld/workspace/AIoT/src/LiteOS_Lab/iot_link/network/mqtt/paho_mqtt/paho/MQTTClient-C/src\MQTTClient.c ****         }
 455:C:/Users/dtjld/workspace/AIoT/src/LiteOS_Lab/iot_link/network/mqtt/paho_mqtt/paho/MQTTClient-C/src\MQTTClient.c ****         if (rc == FAILURE)
 1926              		.loc 1 455 0
 1927 01e0 3B6C     		ldr	r3, [r7, #64]
 1928 01e2 B3F1FF3F 		cmp	r3, #-1
 1929 01e6 08D1     		bne	.L120
 456:C:/Users/dtjld/workspace/AIoT/src/LiteOS_Lab/iot_link/network/mqtt/paho_mqtt/paho/MQTTClient-C/src\MQTTClient.c ****             goto exit; // there was a problem
 1930              		.loc 1 456 0
 1931 01e8 15E0     		b	.L99
 1932              	.L98:
 1933              	.LBE8:
 457:C:/Users/dtjld/workspace/AIoT/src/LiteOS_Lab/iot_link/network/mqtt/paho_mqtt/paho/MQTTClient-C/src\MQTTClient.c ****         break;
 458:C:/Users/dtjld/workspace/AIoT/src/LiteOS_Lab/iot_link/network/mqtt/paho_mqtt/paho/MQTTClient-C/src\MQTTClient.c ****     }
 459:C:/Users/dtjld/workspace/AIoT/src/LiteOS_Lab/iot_link/network/mqtt/paho_mqtt/paho/MQTTClient-C/src\MQTTClient.c **** 
 460:C:/Users/dtjld/workspace/AIoT/src/LiteOS_Lab/iot_link/network/mqtt/paho_mqtt/paho/MQTTClient-C/src\MQTTClient.c ****     case PUBCOMP:
 461:C:/Users/dtjld/workspace/AIoT/src/LiteOS_Lab/iot_link/network/mqtt/paho_mqtt/paho/MQTTClient-C/src\MQTTClient.c ****         break;
 462:C:/Users/dtjld/workspace/AIoT/src/LiteOS_Lab/iot_link/network/mqtt/paho_mqtt/paho/MQTTClient-C/src\MQTTClient.c ****     case PINGRESP:
 463:C:/Users/dtjld/workspace/AIoT/src/LiteOS_Lab/iot_link/network/mqtt/paho_mqtt/paho/MQTTClient-C/src\MQTTClient.c ****         c->ping_outstanding = 0;
 1934              		.loc 1 463 0
 1935 01ea 7B68     		ldr	r3, [r7, #4]
 1936 01ec 0022     		movs	r2, #0
 1937 01ee 1A77     		strb	r2, [r3, #28]
 464:C:/Users/dtjld/workspace/AIoT/src/LiteOS_Lab/iot_link/network/mqtt/paho_mqtt/paho/MQTTClient-C/src\MQTTClient.c ****         break;
ARM GAS  C:\Users\dtjld\AppData\Local\Temp\cc8xzzLd.s 			page 43


 1938              		.loc 1 464 0
 1939 01f0 04E0     		b	.L100
 1940              	.L117:
 401:C:/Users/dtjld/workspace/AIoT/src/LiteOS_Lab/iot_link/network/mqtt/paho_mqtt/paho/MQTTClient-C/src\MQTTClient.c ****     case CONNACK:
 1941              		.loc 1 401 0
 1942 01f2 00BF     		nop
 1943 01f4 02E0     		b	.L100
 1944              	.L119:
 1945              	.LBB9:
 435:C:/Users/dtjld/workspace/AIoT/src/LiteOS_Lab/iot_link/network/mqtt/paho_mqtt/paho/MQTTClient-C/src\MQTTClient.c ****     }
 1946              		.loc 1 435 0
 1947 01f6 00BF     		nop
 1948 01f8 00E0     		b	.L100
 1949              	.L120:
 1950              	.LBE9:
 1951              	.LBB10:
 457:C:/Users/dtjld/workspace/AIoT/src/LiteOS_Lab/iot_link/network/mqtt/paho_mqtt/paho/MQTTClient-C/src\MQTTClient.c ****     }
 1952              		.loc 1 457 0
 1953 01fa 00BF     		nop
 1954              	.L100:
 1955              	.LBE10:
 465:C:/Users/dtjld/workspace/AIoT/src/LiteOS_Lab/iot_link/network/mqtt/paho_mqtt/paho/MQTTClient-C/src\MQTTClient.c ****     }
 466:C:/Users/dtjld/workspace/AIoT/src/LiteOS_Lab/iot_link/network/mqtt/paho_mqtt/paho/MQTTClient-C/src\MQTTClient.c **** 
 467:C:/Users/dtjld/workspace/AIoT/src/LiteOS_Lab/iot_link/network/mqtt/paho_mqtt/paho/MQTTClient-C/src\MQTTClient.c ****     if (keepalive(c) != MQTT_SUCCESS)
 1956              		.loc 1 467 0
 1957 01fc 7868     		ldr	r0, [r7, #4]
 1958 01fe FFF7FEFF 		bl	keepalive
 1959 0202 0346     		mov	r3, r0
 1960 0204 002B     		cmp	r3, #0
 1961 0206 05D0     		beq	.L121
 468:C:/Users/dtjld/workspace/AIoT/src/LiteOS_Lab/iot_link/network/mqtt/paho_mqtt/paho/MQTTClient-C/src\MQTTClient.c ****     {
 469:C:/Users/dtjld/workspace/AIoT/src/LiteOS_Lab/iot_link/network/mqtt/paho_mqtt/paho/MQTTClient-C/src\MQTTClient.c ****         //check only keepalive FAILURE status so that previous FAILURE status can be considered as 
 470:C:/Users/dtjld/workspace/AIoT/src/LiteOS_Lab/iot_link/network/mqtt/paho_mqtt/paho/MQTTClient-C/src\MQTTClient.c ****         rc = FAILURE;
 1962              		.loc 1 470 0
 1963 0208 4FF0FF33 		mov	r3, #-1
 1964 020c 3B64     		str	r3, [r7, #64]
 1965 020e 02E0     		b	.L99
 1966              	.L118:
 1967              	.LBB11:
 415:C:/Users/dtjld/workspace/AIoT/src/LiteOS_Lab/iot_link/network/mqtt/paho_mqtt/paho/MQTTClient-C/src\MQTTClient.c ****         msg.qos = (enum QoS)intQoS;
 1968              		.loc 1 415 0
 1969 0210 00BF     		nop
 1970 0212 00E0     		b	.L99
 1971              	.L121:
 1972              	.LBE11:
 471:C:/Users/dtjld/workspace/AIoT/src/LiteOS_Lab/iot_link/network/mqtt/paho_mqtt/paho/MQTTClient-C/src\MQTTClient.c ****     }
 472:C:/Users/dtjld/workspace/AIoT/src/LiteOS_Lab/iot_link/network/mqtt/paho_mqtt/paho/MQTTClient-C/src\MQTTClient.c **** 
 473:C:/Users/dtjld/workspace/AIoT/src/LiteOS_Lab/iot_link/network/mqtt/paho_mqtt/paho/MQTTClient-C/src\MQTTClient.c **** exit:
 1973              		.loc 1 473 0
 1974 0214 00BF     		nop
 1975              	.L99:
 474:C:/Users/dtjld/workspace/AIoT/src/LiteOS_Lab/iot_link/network/mqtt/paho_mqtt/paho/MQTTClient-C/src\MQTTClient.c ****     if (rc == MQTT_SUCCESS)
 1976              		.loc 1 474 0
 1977 0216 3B6C     		ldr	r3, [r7, #64]
 1978 0218 002B     		cmp	r3, #0
 1979 021a 02D1     		bne	.L114
 475:C:/Users/dtjld/workspace/AIoT/src/LiteOS_Lab/iot_link/network/mqtt/paho_mqtt/paho/MQTTClient-C/src\MQTTClient.c ****         rc = packet_type;
ARM GAS  C:\Users\dtjld\AppData\Local\Temp\cc8xzzLd.s 			page 44


 1980              		.loc 1 475 0
 1981 021c FB6B     		ldr	r3, [r7, #60]
 1982 021e 3B64     		str	r3, [r7, #64]
 1983 0220 06E0     		b	.L115
 1984              	.L114:
 476:C:/Users/dtjld/workspace/AIoT/src/LiteOS_Lab/iot_link/network/mqtt/paho_mqtt/paho/MQTTClient-C/src\MQTTClient.c ****     else if (c->isconnected)
 1985              		.loc 1 476 0
 1986 0222 7B68     		ldr	r3, [r7, #4]
 1987 0224 1B6A     		ldr	r3, [r3, #32]
 1988 0226 002B     		cmp	r3, #0
 1989 0228 02D0     		beq	.L115
 477:C:/Users/dtjld/workspace/AIoT/src/LiteOS_Lab/iot_link/network/mqtt/paho_mqtt/paho/MQTTClient-C/src\MQTTClient.c ****         MQTTCloseSession(c);
 1990              		.loc 1 477 0
 1991 022a 7868     		ldr	r0, [r7, #4]
 1992 022c FFF7FEFF 		bl	MQTTCloseSession
 1993              	.L115:
 478:C:/Users/dtjld/workspace/AIoT/src/LiteOS_Lab/iot_link/network/mqtt/paho_mqtt/paho/MQTTClient-C/src\MQTTClient.c ****     return rc;
 1994              		.loc 1 478 0
 1995 0230 3B6C     		ldr	r3, [r7, #64]
 479:C:/Users/dtjld/workspace/AIoT/src/LiteOS_Lab/iot_link/network/mqtt/paho_mqtt/paho/MQTTClient-C/src\MQTTClient.c **** }
 1996              		.loc 1 479 0
 1997 0232 1846     		mov	r0, r3
 1998 0234 4C37     		adds	r7, r7, #76
 1999              	.LCFI66:
 2000              		.cfi_def_cfa_offset 20
 2001 0236 BD46     		mov	sp, r7
 2002              	.LCFI67:
 2003              		.cfi_def_cfa_register 13
 2004              		@ sp needed
 2005 0238 F0BD     		pop	{r4, r5, r6, r7, pc}
 2006              		.cfi_endproc
 2007              	.LFE16:
 2009 023a 00BF     		.section	.text.MQTTYield,"ax",%progbits
 2010              		.align	1
 2011              		.global	MQTTYield
 2012              		.syntax unified
 2013              		.thumb
 2014              		.thumb_func
 2015              		.fpu fpv4-sp-d16
 2017              	MQTTYield:
 2018              	.LFB17:
 480:C:/Users/dtjld/workspace/AIoT/src/LiteOS_Lab/iot_link/network/mqtt/paho_mqtt/paho/MQTTClient-C/src\MQTTClient.c **** 
 481:C:/Users/dtjld/workspace/AIoT/src/LiteOS_Lab/iot_link/network/mqtt/paho_mqtt/paho/MQTTClient-C/src\MQTTClient.c **** 
 482:C:/Users/dtjld/workspace/AIoT/src/LiteOS_Lab/iot_link/network/mqtt/paho_mqtt/paho/MQTTClient-C/src\MQTTClient.c **** int MQTTYield(MQTTClient* c, int timeout_ms)
 483:C:/Users/dtjld/workspace/AIoT/src/LiteOS_Lab/iot_link/network/mqtt/paho_mqtt/paho/MQTTClient-C/src\MQTTClient.c **** {
 2019              		.loc 1 483 0
 2020              		.cfi_startproc
 2021              		@ args = 0, pretend = 0, frame = 24
 2022              		@ frame_needed = 1, uses_anonymous_args = 0
 2023 0000 80B5     		push	{r7, lr}
 2024              	.LCFI68:
 2025              		.cfi_def_cfa_offset 8
 2026              		.cfi_offset 7, -8
 2027              		.cfi_offset 14, -4
 2028 0002 86B0     		sub	sp, sp, #24
 2029              	.LCFI69:
 2030              		.cfi_def_cfa_offset 32
ARM GAS  C:\Users\dtjld\AppData\Local\Temp\cc8xzzLd.s 			page 45


 2031 0004 00AF     		add	r7, sp, #0
 2032              	.LCFI70:
 2033              		.cfi_def_cfa_register 7
 2034 0006 7860     		str	r0, [r7, #4]
 2035 0008 3960     		str	r1, [r7]
 484:C:/Users/dtjld/workspace/AIoT/src/LiteOS_Lab/iot_link/network/mqtt/paho_mqtt/paho/MQTTClient-C/src\MQTTClient.c ****     int rc = MQTT_SUCCESS;
 2036              		.loc 1 484 0
 2037 000a 0023     		movs	r3, #0
 2038 000c 7B61     		str	r3, [r7, #20]
 485:C:/Users/dtjld/workspace/AIoT/src/LiteOS_Lab/iot_link/network/mqtt/paho_mqtt/paho/MQTTClient-C/src\MQTTClient.c ****     Timer timer;
 486:C:/Users/dtjld/workspace/AIoT/src/LiteOS_Lab/iot_link/network/mqtt/paho_mqtt/paho/MQTTClient-C/src\MQTTClient.c **** 
 487:C:/Users/dtjld/workspace/AIoT/src/LiteOS_Lab/iot_link/network/mqtt/paho_mqtt/paho/MQTTClient-C/src\MQTTClient.c ****     TimerInit(&timer);
 2039              		.loc 1 487 0
 2040 000e 07F10803 		add	r3, r7, #8
 2041 0012 1846     		mov	r0, r3
 2042 0014 FFF7FEFF 		bl	osal_loop_timer_init
 488:C:/Users/dtjld/workspace/AIoT/src/LiteOS_Lab/iot_link/network/mqtt/paho_mqtt/paho/MQTTClient-C/src\MQTTClient.c ****     TimerCountdownMS(&timer, timeout_ms);
 2043              		.loc 1 488 0
 2044 0018 3A68     		ldr	r2, [r7]
 2045 001a 07F10803 		add	r3, r7, #8
 2046 001e 1146     		mov	r1, r2
 2047 0020 1846     		mov	r0, r3
 2048 0022 FFF7FEFF 		bl	osal_loop_timer_count_downms
 2049              	.L131:
 489:C:/Users/dtjld/workspace/AIoT/src/LiteOS_Lab/iot_link/network/mqtt/paho_mqtt/paho/MQTTClient-C/src\MQTTClient.c **** 
 490:C:/Users/dtjld/workspace/AIoT/src/LiteOS_Lab/iot_link/network/mqtt/paho_mqtt/paho/MQTTClient-C/src\MQTTClient.c ****     do
 491:C:/Users/dtjld/workspace/AIoT/src/LiteOS_Lab/iot_link/network/mqtt/paho_mqtt/paho/MQTTClient-C/src\MQTTClient.c ****     {
 492:C:/Users/dtjld/workspace/AIoT/src/LiteOS_Lab/iot_link/network/mqtt/paho_mqtt/paho/MQTTClient-C/src\MQTTClient.c **** #if defined(MQTT_TASK)
 493:C:/Users/dtjld/workspace/AIoT/src/LiteOS_Lab/iot_link/network/mqtt/paho_mqtt/paho/MQTTClient-C/src\MQTTClient.c ****         (void)MutexLock(&c->mutex);
 2050              		.loc 1 493 0
 2051 0026 7B68     		ldr	r3, [r7, #4]
 2052 0028 D3F88030 		ldr	r3, [r3, #128]
 2053 002c 1846     		mov	r0, r3
 2054 002e FFF7FEFF 		bl	osal_mutex_lock
 2055 0032 0346     		mov	r3, r0
 2056 0034 012B     		cmp	r3, #1
 494:C:/Users/dtjld/workspace/AIoT/src/LiteOS_Lab/iot_link/network/mqtt/paho_mqtt/paho/MQTTClient-C/src\MQTTClient.c **** #endif
 495:C:/Users/dtjld/workspace/AIoT/src/LiteOS_Lab/iot_link/network/mqtt/paho_mqtt/paho/MQTTClient-C/src\MQTTClient.c ****         if ( (rc = cycle(c, &timer) ) < 0)
 2057              		.loc 1 495 0
 2058 0036 07F10803 		add	r3, r7, #8
 2059 003a 1946     		mov	r1, r3
 2060 003c 7868     		ldr	r0, [r7, #4]
 2061 003e FFF7FEFF 		bl	cycle
 2062 0042 7861     		str	r0, [r7, #20]
 2063 0044 7B69     		ldr	r3, [r7, #20]
 2064 0046 002B     		cmp	r3, #0
 2065 0048 0BDA     		bge	.L125
 496:C:/Users/dtjld/workspace/AIoT/src/LiteOS_Lab/iot_link/network/mqtt/paho_mqtt/paho/MQTTClient-C/src\MQTTClient.c ****         {
 497:C:/Users/dtjld/workspace/AIoT/src/LiteOS_Lab/iot_link/network/mqtt/paho_mqtt/paho/MQTTClient-C/src\MQTTClient.c ****             rc = FAILURE;
 2066              		.loc 1 497 0
 2067 004a 4FF0FF33 		mov	r3, #-1
 2068 004e 7B61     		str	r3, [r7, #20]
 498:C:/Users/dtjld/workspace/AIoT/src/LiteOS_Lab/iot_link/network/mqtt/paho_mqtt/paho/MQTTClient-C/src\MQTTClient.c **** #if defined(MQTT_TASK)
 499:C:/Users/dtjld/workspace/AIoT/src/LiteOS_Lab/iot_link/network/mqtt/paho_mqtt/paho/MQTTClient-C/src\MQTTClient.c ****             (void)MutexUnlock(&c->mutex);
 2069              		.loc 1 499 0
 2070 0050 7B68     		ldr	r3, [r7, #4]
 2071 0052 D3F88030 		ldr	r3, [r3, #128]
ARM GAS  C:\Users\dtjld\AppData\Local\Temp\cc8xzzLd.s 			page 46


 2072 0056 1846     		mov	r0, r3
 2073 0058 FFF7FEFF 		bl	osal_mutex_unlock
 2074 005c 0346     		mov	r3, r0
 2075 005e 012B     		cmp	r3, #1
 500:C:/Users/dtjld/workspace/AIoT/src/LiteOS_Lab/iot_link/network/mqtt/paho_mqtt/paho/MQTTClient-C/src\MQTTClient.c **** #endif
 501:C:/Users/dtjld/workspace/AIoT/src/LiteOS_Lab/iot_link/network/mqtt/paho_mqtt/paho/MQTTClient-C/src\MQTTClient.c ****             break;
 2076              		.loc 1 501 0
 2077 0060 0FE0     		b	.L128
 2078              	.L125:
 502:C:/Users/dtjld/workspace/AIoT/src/LiteOS_Lab/iot_link/network/mqtt/paho_mqtt/paho/MQTTClient-C/src\MQTTClient.c ****         }
 503:C:/Users/dtjld/workspace/AIoT/src/LiteOS_Lab/iot_link/network/mqtt/paho_mqtt/paho/MQTTClient-C/src\MQTTClient.c **** #if defined(MQTT_TASK)
 504:C:/Users/dtjld/workspace/AIoT/src/LiteOS_Lab/iot_link/network/mqtt/paho_mqtt/paho/MQTTClient-C/src\MQTTClient.c ****         (void)MutexUnlock(&c->mutex);
 2079              		.loc 1 504 0
 2080 0062 7B68     		ldr	r3, [r7, #4]
 2081 0064 D3F88030 		ldr	r3, [r3, #128]
 2082 0068 1846     		mov	r0, r3
 2083 006a FFF7FEFF 		bl	osal_mutex_unlock
 2084 006e 0346     		mov	r3, r0
 2085 0070 012B     		cmp	r3, #1
 505:C:/Users/dtjld/workspace/AIoT/src/LiteOS_Lab/iot_link/network/mqtt/paho_mqtt/paho/MQTTClient-C/src\MQTTClient.c **** #endif
 506:C:/Users/dtjld/workspace/AIoT/src/LiteOS_Lab/iot_link/network/mqtt/paho_mqtt/paho/MQTTClient-C/src\MQTTClient.c ****     }
 507:C:/Users/dtjld/workspace/AIoT/src/LiteOS_Lab/iot_link/network/mqtt/paho_mqtt/paho/MQTTClient-C/src\MQTTClient.c ****     while (!TimerIsExpired(&timer));
 2086              		.loc 1 507 0
 2087 0072 07F10803 		add	r3, r7, #8
 2088 0076 1846     		mov	r0, r3
 2089 0078 FFF7FEFF 		bl	osal_loop_timer_expired
 2090 007c 0346     		mov	r3, r0
 2091 007e 002B     		cmp	r3, #0
 2092 0080 D1D0     		beq	.L131
 2093              	.L128:
 508:C:/Users/dtjld/workspace/AIoT/src/LiteOS_Lab/iot_link/network/mqtt/paho_mqtt/paho/MQTTClient-C/src\MQTTClient.c **** 
 509:C:/Users/dtjld/workspace/AIoT/src/LiteOS_Lab/iot_link/network/mqtt/paho_mqtt/paho/MQTTClient-C/src\MQTTClient.c ****     return rc;
 2094              		.loc 1 509 0
 2095 0082 7B69     		ldr	r3, [r7, #20]
 510:C:/Users/dtjld/workspace/AIoT/src/LiteOS_Lab/iot_link/network/mqtt/paho_mqtt/paho/MQTTClient-C/src\MQTTClient.c **** }
 2096              		.loc 1 510 0
 2097 0084 1846     		mov	r0, r3
 2098 0086 1837     		adds	r7, r7, #24
 2099              	.LCFI71:
 2100              		.cfi_def_cfa_offset 8
 2101 0088 BD46     		mov	sp, r7
 2102              	.LCFI72:
 2103              		.cfi_def_cfa_register 13
 2104              		@ sp needed
 2105 008a 80BD     		pop	{r7, pc}
 2106              		.cfi_endproc
 2107              	.LFE17:
 2109              		.section	.text.MQTTRun,"ax",%progbits
 2110              		.align	1
 2111              		.global	MQTTRun
 2112              		.syntax unified
 2113              		.thumb
 2114              		.thumb_func
 2115              		.fpu fpv4-sp-d16
 2117              	MQTTRun:
 2118              	.LFB18:
 511:C:/Users/dtjld/workspace/AIoT/src/LiteOS_Lab/iot_link/network/mqtt/paho_mqtt/paho/MQTTClient-C/src\MQTTClient.c **** 
ARM GAS  C:\Users\dtjld\AppData\Local\Temp\cc8xzzLd.s 			page 47


 512:C:/Users/dtjld/workspace/AIoT/src/LiteOS_Lab/iot_link/network/mqtt/paho_mqtt/paho/MQTTClient-C/src\MQTTClient.c **** 
 513:C:/Users/dtjld/workspace/AIoT/src/LiteOS_Lab/iot_link/network/mqtt/paho_mqtt/paho/MQTTClient-C/src\MQTTClient.c **** void MQTTRun(void* parm)
 514:C:/Users/dtjld/workspace/AIoT/src/LiteOS_Lab/iot_link/network/mqtt/paho_mqtt/paho/MQTTClient-C/src\MQTTClient.c **** {
 2119              		.loc 1 514 0
 2120              		.cfi_startproc
 2121              		@ args = 0, pretend = 0, frame = 24
 2122              		@ frame_needed = 1, uses_anonymous_args = 0
 2123 0000 80B5     		push	{r7, lr}
 2124              	.LCFI73:
 2125              		.cfi_def_cfa_offset 8
 2126              		.cfi_offset 7, -8
 2127              		.cfi_offset 14, -4
 2128 0002 86B0     		sub	sp, sp, #24
 2129              	.LCFI74:
 2130              		.cfi_def_cfa_offset 32
 2131 0004 00AF     		add	r7, sp, #0
 2132              	.LCFI75:
 2133              		.cfi_def_cfa_register 7
 2134 0006 7860     		str	r0, [r7, #4]
 515:C:/Users/dtjld/workspace/AIoT/src/LiteOS_Lab/iot_link/network/mqtt/paho_mqtt/paho/MQTTClient-C/src\MQTTClient.c **** 	Timer timer;
 516:C:/Users/dtjld/workspace/AIoT/src/LiteOS_Lab/iot_link/network/mqtt/paho_mqtt/paho/MQTTClient-C/src\MQTTClient.c **** 	MQTTClient* c = (MQTTClient*)parm;
 2135              		.loc 1 516 0
 2136 0008 7B68     		ldr	r3, [r7, #4]
 2137 000a 7B61     		str	r3, [r7, #20]
 517:C:/Users/dtjld/workspace/AIoT/src/LiteOS_Lab/iot_link/network/mqtt/paho_mqtt/paho/MQTTClient-C/src\MQTTClient.c **** 
 518:C:/Users/dtjld/workspace/AIoT/src/LiteOS_Lab/iot_link/network/mqtt/paho_mqtt/paho/MQTTClient-C/src\MQTTClient.c **** 	TimerInit(&timer);
 2138              		.loc 1 518 0
 2139 000c 07F10803 		add	r3, r7, #8
 2140 0010 1846     		mov	r0, r3
 2141 0012 FFF7FEFF 		bl	osal_loop_timer_init
 2142              	.L138:
 519:C:/Users/dtjld/workspace/AIoT/src/LiteOS_Lab/iot_link/network/mqtt/paho_mqtt/paho/MQTTClient-C/src\MQTTClient.c **** 
 520:C:/Users/dtjld/workspace/AIoT/src/LiteOS_Lab/iot_link/network/mqtt/paho_mqtt/paho/MQTTClient-C/src\MQTTClient.c **** 	while (1)
 521:C:/Users/dtjld/workspace/AIoT/src/LiteOS_Lab/iot_link/network/mqtt/paho_mqtt/paho/MQTTClient-C/src\MQTTClient.c **** 	{
 522:C:/Users/dtjld/workspace/AIoT/src/LiteOS_Lab/iot_link/network/mqtt/paho_mqtt/paho/MQTTClient-C/src\MQTTClient.c **** #if defined(MQTT_TASK)
 523:C:/Users/dtjld/workspace/AIoT/src/LiteOS_Lab/iot_link/network/mqtt/paho_mqtt/paho/MQTTClient-C/src\MQTTClient.c **** 		MutexLock(&c->mutex);
 2143              		.loc 1 523 0
 2144 0016 7B69     		ldr	r3, [r7, #20]
 2145 0018 D3F88030 		ldr	r3, [r3, #128]
 2146 001c 1846     		mov	r0, r3
 2147 001e FFF7FEFF 		bl	osal_mutex_lock
 2148 0022 0346     		mov	r3, r0
 2149 0024 012B     		cmp	r3, #1
 524:C:/Users/dtjld/workspace/AIoT/src/LiteOS_Lab/iot_link/network/mqtt/paho_mqtt/paho/MQTTClient-C/src\MQTTClient.c **** #endif
 525:C:/Users/dtjld/workspace/AIoT/src/LiteOS_Lab/iot_link/network/mqtt/paho_mqtt/paho/MQTTClient-C/src\MQTTClient.c **** 		TimerCountdownMS(&timer, 500); /* Don't wait too long if no traffic is incoming */
 2150              		.loc 1 525 0
 2151 0026 07F10803 		add	r3, r7, #8
 2152 002a 4FF4FA71 		mov	r1, #500
 2153 002e 1846     		mov	r0, r3
 2154 0030 FFF7FEFF 		bl	osal_loop_timer_count_downms
 526:C:/Users/dtjld/workspace/AIoT/src/LiteOS_Lab/iot_link/network/mqtt/paho_mqtt/paho/MQTTClient-C/src\MQTTClient.c **** 		cycle(c, &timer);
 2155              		.loc 1 526 0
 2156 0034 07F10803 		add	r3, r7, #8
 2157 0038 1946     		mov	r1, r3
 2158 003a 7869     		ldr	r0, [r7, #20]
 2159 003c FFF7FEFF 		bl	cycle
 527:C:/Users/dtjld/workspace/AIoT/src/LiteOS_Lab/iot_link/network/mqtt/paho_mqtt/paho/MQTTClient-C/src\MQTTClient.c **** #if defined(MQTT_TASK)
ARM GAS  C:\Users\dtjld\AppData\Local\Temp\cc8xzzLd.s 			page 48


 528:C:/Users/dtjld/workspace/AIoT/src/LiteOS_Lab/iot_link/network/mqtt/paho_mqtt/paho/MQTTClient-C/src\MQTTClient.c **** 		MutexUnlock(&c->mutex);
 2160              		.loc 1 528 0
 2161 0040 7B69     		ldr	r3, [r7, #20]
 2162 0042 D3F88030 		ldr	r3, [r3, #128]
 2163 0046 1846     		mov	r0, r3
 2164 0048 FFF7FEFF 		bl	osal_mutex_unlock
 2165 004c 0346     		mov	r3, r0
 2166 004e 012B     		cmp	r3, #1
 523:C:/Users/dtjld/workspace/AIoT/src/LiteOS_Lab/iot_link/network/mqtt/paho_mqtt/paho/MQTTClient-C/src\MQTTClient.c **** #endif
 2167              		.loc 1 523 0
 2168 0050 E1E7     		b	.L138
 2169              		.cfi_endproc
 2170              	.LFE18:
 2172              		.section	.text.waitfor,"ax",%progbits
 2173              		.align	1
 2174              		.global	waitfor
 2175              		.syntax unified
 2176              		.thumb
 2177              		.thumb_func
 2178              		.fpu fpv4-sp-d16
 2180              	waitfor:
 2181              	.LFB19:
 529:C:/Users/dtjld/workspace/AIoT/src/LiteOS_Lab/iot_link/network/mqtt/paho_mqtt/paho/MQTTClient-C/src\MQTTClient.c **** #endif
 530:C:/Users/dtjld/workspace/AIoT/src/LiteOS_Lab/iot_link/network/mqtt/paho_mqtt/paho/MQTTClient-C/src\MQTTClient.c **** 	}
 531:C:/Users/dtjld/workspace/AIoT/src/LiteOS_Lab/iot_link/network/mqtt/paho_mqtt/paho/MQTTClient-C/src\MQTTClient.c **** }
 532:C:/Users/dtjld/workspace/AIoT/src/LiteOS_Lab/iot_link/network/mqtt/paho_mqtt/paho/MQTTClient-C/src\MQTTClient.c **** 
 533:C:/Users/dtjld/workspace/AIoT/src/LiteOS_Lab/iot_link/network/mqtt/paho_mqtt/paho/MQTTClient-C/src\MQTTClient.c **** 
 534:C:/Users/dtjld/workspace/AIoT/src/LiteOS_Lab/iot_link/network/mqtt/paho_mqtt/paho/MQTTClient-C/src\MQTTClient.c **** //#if defined(MQTT_TASK)
 535:C:/Users/dtjld/workspace/AIoT/src/LiteOS_Lab/iot_link/network/mqtt/paho_mqtt/paho/MQTTClient-C/src\MQTTClient.c **** //int MQTTStartTask(MQTTClient* client)
 536:C:/Users/dtjld/workspace/AIoT/src/LiteOS_Lab/iot_link/network/mqtt/paho_mqtt/paho/MQTTClient-C/src\MQTTClient.c **** //{
 537:C:/Users/dtjld/workspace/AIoT/src/LiteOS_Lab/iot_link/network/mqtt/paho_mqtt/paho/MQTTClient-C/src\MQTTClient.c **** //	return ThreadStart(&client->thread, &MQTTRun, client);
 538:C:/Users/dtjld/workspace/AIoT/src/LiteOS_Lab/iot_link/network/mqtt/paho_mqtt/paho/MQTTClient-C/src\MQTTClient.c **** //}
 539:C:/Users/dtjld/workspace/AIoT/src/LiteOS_Lab/iot_link/network/mqtt/paho_mqtt/paho/MQTTClient-C/src\MQTTClient.c **** //#endif
 540:C:/Users/dtjld/workspace/AIoT/src/LiteOS_Lab/iot_link/network/mqtt/paho_mqtt/paho/MQTTClient-C/src\MQTTClient.c **** 
 541:C:/Users/dtjld/workspace/AIoT/src/LiteOS_Lab/iot_link/network/mqtt/paho_mqtt/paho/MQTTClient-C/src\MQTTClient.c **** 
 542:C:/Users/dtjld/workspace/AIoT/src/LiteOS_Lab/iot_link/network/mqtt/paho_mqtt/paho/MQTTClient-C/src\MQTTClient.c **** int waitfor(MQTTClient* c, int packet_type, Timer* timer)
 543:C:/Users/dtjld/workspace/AIoT/src/LiteOS_Lab/iot_link/network/mqtt/paho_mqtt/paho/MQTTClient-C/src\MQTTClient.c **** {
 2182              		.loc 1 543 0
 2183              		.cfi_startproc
 2184              		@ args = 0, pretend = 0, frame = 24
 2185              		@ frame_needed = 1, uses_anonymous_args = 0
 2186 0000 80B5     		push	{r7, lr}
 2187              	.LCFI76:
 2188              		.cfi_def_cfa_offset 8
 2189              		.cfi_offset 7, -8
 2190              		.cfi_offset 14, -4
 2191 0002 86B0     		sub	sp, sp, #24
 2192              	.LCFI77:
 2193              		.cfi_def_cfa_offset 32
 2194 0004 00AF     		add	r7, sp, #0
 2195              	.LCFI78:
 2196              		.cfi_def_cfa_register 7
 2197 0006 F860     		str	r0, [r7, #12]
 2198 0008 B960     		str	r1, [r7, #8]
 2199 000a 7A60     		str	r2, [r7, #4]
 544:C:/Users/dtjld/workspace/AIoT/src/LiteOS_Lab/iot_link/network/mqtt/paho_mqtt/paho/MQTTClient-C/src\MQTTClient.c ****     int rc = FAILURE;
 2200              		.loc 1 544 0
ARM GAS  C:\Users\dtjld\AppData\Local\Temp\cc8xzzLd.s 			page 49


 2201 000c 4FF0FF33 		mov	r3, #-1
 2202 0010 7B61     		str	r3, [r7, #20]
 2203              	.L142:
 545:C:/Users/dtjld/workspace/AIoT/src/LiteOS_Lab/iot_link/network/mqtt/paho_mqtt/paho/MQTTClient-C/src\MQTTClient.c **** 
 546:C:/Users/dtjld/workspace/AIoT/src/LiteOS_Lab/iot_link/network/mqtt/paho_mqtt/paho/MQTTClient-C/src\MQTTClient.c ****     do
 547:C:/Users/dtjld/workspace/AIoT/src/LiteOS_Lab/iot_link/network/mqtt/paho_mqtt/paho/MQTTClient-C/src\MQTTClient.c ****     {
 548:C:/Users/dtjld/workspace/AIoT/src/LiteOS_Lab/iot_link/network/mqtt/paho_mqtt/paho/MQTTClient-C/src\MQTTClient.c ****         if (TimerIsExpired(timer))
 2204              		.loc 1 548 0
 2205 0012 7868     		ldr	r0, [r7, #4]
 2206 0014 FFF7FEFF 		bl	osal_loop_timer_expired
 2207 0018 0346     		mov	r3, r0
 2208 001a 002B     		cmp	r3, #0
 2209 001c 0CD1     		bne	.L144
 549:C:/Users/dtjld/workspace/AIoT/src/LiteOS_Lab/iot_link/network/mqtt/paho_mqtt/paho/MQTTClient-C/src\MQTTClient.c ****             break; // we timed out
 550:C:/Users/dtjld/workspace/AIoT/src/LiteOS_Lab/iot_link/network/mqtt/paho_mqtt/paho/MQTTClient-C/src\MQTTClient.c ****         rc = cycle(c, timer);
 2210              		.loc 1 550 0
 2211 001e 7968     		ldr	r1, [r7, #4]
 2212 0020 F868     		ldr	r0, [r7, #12]
 2213 0022 FFF7FEFF 		bl	cycle
 2214 0026 7861     		str	r0, [r7, #20]
 551:C:/Users/dtjld/workspace/AIoT/src/LiteOS_Lab/iot_link/network/mqtt/paho_mqtt/paho/MQTTClient-C/src\MQTTClient.c ****     }
 552:C:/Users/dtjld/workspace/AIoT/src/LiteOS_Lab/iot_link/network/mqtt/paho_mqtt/paho/MQTTClient-C/src\MQTTClient.c ****     while (rc != packet_type && rc >= 0);
 2215              		.loc 1 552 0
 2216 0028 7A69     		ldr	r2, [r7, #20]
 2217 002a BB68     		ldr	r3, [r7, #8]
 2218 002c 9A42     		cmp	r2, r3
 2219 002e 04D0     		beq	.L141
 2220              		.loc 1 552 0 is_stmt 0 discriminator 1
 2221 0030 7B69     		ldr	r3, [r7, #20]
 2222 0032 002B     		cmp	r3, #0
 2223 0034 EDDA     		bge	.L142
 2224 0036 00E0     		b	.L141
 2225              	.L144:
 549:C:/Users/dtjld/workspace/AIoT/src/LiteOS_Lab/iot_link/network/mqtt/paho_mqtt/paho/MQTTClient-C/src\MQTTClient.c ****             break; // we timed out
 2226              		.loc 1 549 0 is_stmt 1
 2227 0038 00BF     		nop
 2228              	.L141:
 553:C:/Users/dtjld/workspace/AIoT/src/LiteOS_Lab/iot_link/network/mqtt/paho_mqtt/paho/MQTTClient-C/src\MQTTClient.c **** 
 554:C:/Users/dtjld/workspace/AIoT/src/LiteOS_Lab/iot_link/network/mqtt/paho_mqtt/paho/MQTTClient-C/src\MQTTClient.c ****     return rc;
 2229              		.loc 1 554 0
 2230 003a 7B69     		ldr	r3, [r7, #20]
 555:C:/Users/dtjld/workspace/AIoT/src/LiteOS_Lab/iot_link/network/mqtt/paho_mqtt/paho/MQTTClient-C/src\MQTTClient.c **** }
 2231              		.loc 1 555 0
 2232 003c 1846     		mov	r0, r3
 2233 003e 1837     		adds	r7, r7, #24
 2234              	.LCFI79:
 2235              		.cfi_def_cfa_offset 8
 2236 0040 BD46     		mov	sp, r7
 2237              	.LCFI80:
 2238              		.cfi_def_cfa_register 13
 2239              		@ sp needed
 2240 0042 80BD     		pop	{r7, pc}
 2241              		.cfi_endproc
 2242              	.LFE19:
 2244              		.section	.rodata
 2245              		.align	2
 2246              	.LC0:
ARM GAS  C:\Users\dtjld\AppData\Local\Temp\cc8xzzLd.s 			page 50


 2247 0000 4D       		.byte	77
 2248 0001 51       		.byte	81
 2249 0002 54       		.byte	84
 2250 0003 43       		.byte	67
 2251 0004 00000000 		.word	0
 2252 0008 04       		.byte	4
 2253 0009 000000   		.space	3
 2254 000c 00000000 		.word	0
 2255 0010 00000000 		.word	0
 2256 0014 00000000 		.word	0
 2257 0018 3C00     		.short	60
 2258 001a 01       		.byte	1
 2259 001b 00       		.byte	0
 2260 001c 4D       		.byte	77
 2261 001d 51       		.byte	81
 2262 001e 54       		.byte	84
 2263 001f 57       		.byte	87
 2264 0020 00000000 		.word	0
 2265 0024 00000000 		.word	0
 2266 0028 00000000 		.word	0
 2267 002c 00000000 		.word	0
 2268 0030 00000000 		.word	0
 2269 0034 00000000 		.word	0
 2270 0038 00000000 		.word	0
 2271 003c 00       		.byte	0
 2272 003d 00       		.byte	0
 2273 003e 0000     		.space	2
 2274 0040 00000000 		.word	0
 2275 0044 00000000 		.word	0
 2276 0048 00000000 		.word	0
 2277 004c 00000000 		.word	0
 2278 0050 00000000 		.word	0
 2279 0054 00000000 		.word	0
 2280              		.section	.text.MQTTConnectWithResults,"ax",%progbits
 2281              		.align	1
 2282              		.global	MQTTConnectWithResults
 2283              		.syntax unified
 2284              		.thumb
 2285              		.thumb_func
 2286              		.fpu fpv4-sp-d16
 2288              	MQTTConnectWithResults:
 2289              	.LFB20:
 556:C:/Users/dtjld/workspace/AIoT/src/LiteOS_Lab/iot_link/network/mqtt/paho_mqtt/paho/MQTTClient-C/src\MQTTClient.c **** 
 557:C:/Users/dtjld/workspace/AIoT/src/LiteOS_Lab/iot_link/network/mqtt/paho_mqtt/paho/MQTTClient-C/src\MQTTClient.c **** 
 558:C:/Users/dtjld/workspace/AIoT/src/LiteOS_Lab/iot_link/network/mqtt/paho_mqtt/paho/MQTTClient-C/src\MQTTClient.c **** int MQTTConnectWithResults(MQTTClient* c, MQTTPacket_connectData* options, MQTTConnackData* data)
 559:C:/Users/dtjld/workspace/AIoT/src/LiteOS_Lab/iot_link/network/mqtt/paho_mqtt/paho/MQTTClient-C/src\MQTTClient.c **** {
 2290              		.loc 1 559 0
 2291              		.cfi_startproc
 2292              		@ args = 0, pretend = 0, frame = 120
 2293              		@ frame_needed = 1, uses_anonymous_args = 0
 2294 0000 80B5     		push	{r7, lr}
 2295              	.LCFI81:
 2296              		.cfi_def_cfa_offset 8
 2297              		.cfi_offset 7, -8
 2298              		.cfi_offset 14, -4
 2299 0002 9EB0     		sub	sp, sp, #120
 2300              	.LCFI82:
ARM GAS  C:\Users\dtjld\AppData\Local\Temp\cc8xzzLd.s 			page 51


 2301              		.cfi_def_cfa_offset 128
 2302 0004 00AF     		add	r7, sp, #0
 2303              	.LCFI83:
 2304              		.cfi_def_cfa_register 7
 2305 0006 F860     		str	r0, [r7, #12]
 2306 0008 B960     		str	r1, [r7, #8]
 2307 000a 7A60     		str	r2, [r7, #4]
 560:C:/Users/dtjld/workspace/AIoT/src/LiteOS_Lab/iot_link/network/mqtt/paho_mqtt/paho/MQTTClient-C/src\MQTTClient.c ****     Timer connect_timer;
 561:C:/Users/dtjld/workspace/AIoT/src/LiteOS_Lab/iot_link/network/mqtt/paho_mqtt/paho/MQTTClient-C/src\MQTTClient.c ****     int rc = FAILURE;
 2308              		.loc 1 561 0
 2309 000c 4FF0FF33 		mov	r3, #-1
 2310 0010 7B67     		str	r3, [r7, #116]
 562:C:/Users/dtjld/workspace/AIoT/src/LiteOS_Lab/iot_link/network/mqtt/paho_mqtt/paho/MQTTClient-C/src\MQTTClient.c ****     MQTTPacket_connectData default_options = MQTTPacket_connectData_initializer;
 2311              		.loc 1 562 0
 2312 0012 4B4A     		ldr	r2, .L163
 2313 0014 07F11003 		add	r3, r7, #16
 2314 0018 1146     		mov	r1, r2
 2315 001a 5822     		movs	r2, #88
 2316 001c 1846     		mov	r0, r3
 2317 001e FFF7FEFF 		bl	memcpy
 563:C:/Users/dtjld/workspace/AIoT/src/LiteOS_Lab/iot_link/network/mqtt/paho_mqtt/paho/MQTTClient-C/src\MQTTClient.c ****     int len = 0;
 2318              		.loc 1 563 0
 2319 0022 0023     		movs	r3, #0
 2320 0024 3B67     		str	r3, [r7, #112]
 564:C:/Users/dtjld/workspace/AIoT/src/LiteOS_Lab/iot_link/network/mqtt/paho_mqtt/paho/MQTTClient-C/src\MQTTClient.c **** 
 565:C:/Users/dtjld/workspace/AIoT/src/LiteOS_Lab/iot_link/network/mqtt/paho_mqtt/paho/MQTTClient-C/src\MQTTClient.c **** #if defined(MQTT_TASK)
 566:C:/Users/dtjld/workspace/AIoT/src/LiteOS_Lab/iot_link/network/mqtt/paho_mqtt/paho/MQTTClient-C/src\MQTTClient.c **** 	  MutexLock(&c->mutex);
 2321              		.loc 1 566 0
 2322 0026 FB68     		ldr	r3, [r7, #12]
 2323 0028 D3F88030 		ldr	r3, [r3, #128]
 2324 002c 1846     		mov	r0, r3
 2325 002e FFF7FEFF 		bl	osal_mutex_lock
 2326 0032 0346     		mov	r3, r0
 2327 0034 012B     		cmp	r3, #1
 567:C:/Users/dtjld/workspace/AIoT/src/LiteOS_Lab/iot_link/network/mqtt/paho_mqtt/paho/MQTTClient-C/src\MQTTClient.c **** #endif
 568:C:/Users/dtjld/workspace/AIoT/src/LiteOS_Lab/iot_link/network/mqtt/paho_mqtt/paho/MQTTClient-C/src\MQTTClient.c **** 	  if (c->isconnected) /* don't send connect packet again if we are already connected */
 2328              		.loc 1 568 0
 2329 0036 FB68     		ldr	r3, [r7, #12]
 2330 0038 1B6A     		ldr	r3, [r3, #32]
 2331 003a 002B     		cmp	r3, #0
 2332 003c 64D1     		bne	.L160
 569:C:/Users/dtjld/workspace/AIoT/src/LiteOS_Lab/iot_link/network/mqtt/paho_mqtt/paho/MQTTClient-C/src\MQTTClient.c **** 		  goto exit;
 570:C:/Users/dtjld/workspace/AIoT/src/LiteOS_Lab/iot_link/network/mqtt/paho_mqtt/paho/MQTTClient-C/src\MQTTClient.c **** 
 571:C:/Users/dtjld/workspace/AIoT/src/LiteOS_Lab/iot_link/network/mqtt/paho_mqtt/paho/MQTTClient-C/src\MQTTClient.c ****     TimerInit(&connect_timer);
 2333              		.loc 1 571 0
 2334 003e 07F16803 		add	r3, r7, #104
 2335 0042 1846     		mov	r0, r3
 2336 0044 FFF7FEFF 		bl	osal_loop_timer_init
 572:C:/Users/dtjld/workspace/AIoT/src/LiteOS_Lab/iot_link/network/mqtt/paho_mqtt/paho/MQTTClient-C/src\MQTTClient.c ****     TimerCountdownMS(&connect_timer, c->command_timeout_ms);
 2337              		.loc 1 572 0
 2338 0048 FB68     		ldr	r3, [r7, #12]
 2339 004a 5A68     		ldr	r2, [r3, #4]
 2340 004c 07F16803 		add	r3, r7, #104
 2341 0050 1146     		mov	r1, r2
 2342 0052 1846     		mov	r0, r3
 2343 0054 FFF7FEFF 		bl	osal_loop_timer_count_downms
 573:C:/Users/dtjld/workspace/AIoT/src/LiteOS_Lab/iot_link/network/mqtt/paho_mqtt/paho/MQTTClient-C/src\MQTTClient.c **** 
ARM GAS  C:\Users\dtjld\AppData\Local\Temp\cc8xzzLd.s 			page 52


 574:C:/Users/dtjld/workspace/AIoT/src/LiteOS_Lab/iot_link/network/mqtt/paho_mqtt/paho/MQTTClient-C/src\MQTTClient.c ****     if (options == 0)
 2344              		.loc 1 574 0
 2345 0058 BB68     		ldr	r3, [r7, #8]
 2346 005a 002B     		cmp	r3, #0
 2347 005c 02D1     		bne	.L150
 575:C:/Users/dtjld/workspace/AIoT/src/LiteOS_Lab/iot_link/network/mqtt/paho_mqtt/paho/MQTTClient-C/src\MQTTClient.c ****         options = &default_options; /* set default options if none were supplied */
 2348              		.loc 1 575 0
 2349 005e 07F11003 		add	r3, r7, #16
 2350 0062 BB60     		str	r3, [r7, #8]
 2351              	.L150:
 576:C:/Users/dtjld/workspace/AIoT/src/LiteOS_Lab/iot_link/network/mqtt/paho_mqtt/paho/MQTTClient-C/src\MQTTClient.c **** 
 577:C:/Users/dtjld/workspace/AIoT/src/LiteOS_Lab/iot_link/network/mqtt/paho_mqtt/paho/MQTTClient-C/src\MQTTClient.c ****     c->keepAliveInterval = options->keepAliveInterval;
 2352              		.loc 1 577 0
 2353 0064 BB68     		ldr	r3, [r7, #8]
 2354 0066 1B8B     		ldrh	r3, [r3, #24]
 2355 0068 1A46     		mov	r2, r3
 2356 006a FB68     		ldr	r3, [r7, #12]
 2357 006c 9A61     		str	r2, [r3, #24]
 578:C:/Users/dtjld/workspace/AIoT/src/LiteOS_Lab/iot_link/network/mqtt/paho_mqtt/paho/MQTTClient-C/src\MQTTClient.c ****     c->cleansession = options->cleansession;
 2358              		.loc 1 578 0
 2359 006e BB68     		ldr	r3, [r7, #8]
 2360 0070 9B7E     		ldrb	r3, [r3, #26]	@ zero_extendqisi2
 2361 0072 1A46     		mov	r2, r3
 2362 0074 FB68     		ldr	r3, [r7, #12]
 2363 0076 5A62     		str	r2, [r3, #36]
 579:C:/Users/dtjld/workspace/AIoT/src/LiteOS_Lab/iot_link/network/mqtt/paho_mqtt/paho/MQTTClient-C/src\MQTTClient.c ****     TimerCountdown(&c->last_received, c->keepAliveInterval);
 2364              		.loc 1 579 0
 2365 0078 FB68     		ldr	r3, [r7, #12]
 2366 007a 03F17802 		add	r2, r3, #120
 2367 007e FB68     		ldr	r3, [r7, #12]
 2368 0080 9B69     		ldr	r3, [r3, #24]
 2369 0082 1946     		mov	r1, r3
 2370 0084 1046     		mov	r0, r2
 2371 0086 FFF7FEFF 		bl	osal_loop_timer_count_down
 580:C:/Users/dtjld/workspace/AIoT/src/LiteOS_Lab/iot_link/network/mqtt/paho_mqtt/paho/MQTTClient-C/src\MQTTClient.c ****     if ((len = MQTTSerialize_connect(c->buf, c->buf_size, options)) <= 0)
 2372              		.loc 1 580 0
 2373 008a FB68     		ldr	r3, [r7, #12]
 2374 008c 1869     		ldr	r0, [r3, #16]
 2375 008e FB68     		ldr	r3, [r7, #12]
 2376 0090 9B68     		ldr	r3, [r3, #8]
 2377 0092 BA68     		ldr	r2, [r7, #8]
 2378 0094 1946     		mov	r1, r3
 2379 0096 FFF7FEFF 		bl	MQTTSerialize_connect
 2380 009a 3867     		str	r0, [r7, #112]
 2381 009c 3B6F     		ldr	r3, [r7, #112]
 2382 009e 002B     		cmp	r3, #0
 2383 00a0 34DD     		ble	.L161
 581:C:/Users/dtjld/workspace/AIoT/src/LiteOS_Lab/iot_link/network/mqtt/paho_mqtt/paho/MQTTClient-C/src\MQTTClient.c ****         goto exit;
 582:C:/Users/dtjld/workspace/AIoT/src/LiteOS_Lab/iot_link/network/mqtt/paho_mqtt/paho/MQTTClient-C/src\MQTTClient.c ****     if ((rc = sendPacket(c, len, &connect_timer)) != MQTT_SUCCESS)  // send the connect packet
 2384              		.loc 1 582 0
 2385 00a2 07F16803 		add	r3, r7, #104
 2386 00a6 1A46     		mov	r2, r3
 2387 00a8 396F     		ldr	r1, [r7, #112]
 2388 00aa F868     		ldr	r0, [r7, #12]
 2389 00ac FFF7FEFF 		bl	sendPacket
 2390 00b0 7867     		str	r0, [r7, #116]
 2391 00b2 7B6F     		ldr	r3, [r7, #116]
ARM GAS  C:\Users\dtjld\AppData\Local\Temp\cc8xzzLd.s 			page 53


 2392 00b4 002B     		cmp	r3, #0
 2393 00b6 2BD1     		bne	.L162
 583:C:/Users/dtjld/workspace/AIoT/src/LiteOS_Lab/iot_link/network/mqtt/paho_mqtt/paho/MQTTClient-C/src\MQTTClient.c ****         goto exit; // there was a problem
 584:C:/Users/dtjld/workspace/AIoT/src/LiteOS_Lab/iot_link/network/mqtt/paho_mqtt/paho/MQTTClient-C/src\MQTTClient.c **** 
 585:C:/Users/dtjld/workspace/AIoT/src/LiteOS_Lab/iot_link/network/mqtt/paho_mqtt/paho/MQTTClient-C/src\MQTTClient.c ****     // this will be a blocking call, wait for the connack
 586:C:/Users/dtjld/workspace/AIoT/src/LiteOS_Lab/iot_link/network/mqtt/paho_mqtt/paho/MQTTClient-C/src\MQTTClient.c ****     if (waitfor(c, CONNACK, &connect_timer) == CONNACK)
 2394              		.loc 1 586 0
 2395 00b8 07F16803 		add	r3, r7, #104
 2396 00bc 1A46     		mov	r2, r3
 2397 00be 0221     		movs	r1, #2
 2398 00c0 F868     		ldr	r0, [r7, #12]
 2399 00c2 FFF7FEFF 		bl	waitfor
 2400 00c6 0346     		mov	r3, r0
 2401 00c8 022B     		cmp	r3, #2
 2402 00ca 19D1     		bne	.L153
 587:C:/Users/dtjld/workspace/AIoT/src/LiteOS_Lab/iot_link/network/mqtt/paho_mqtt/paho/MQTTClient-C/src\MQTTClient.c ****     {
 588:C:/Users/dtjld/workspace/AIoT/src/LiteOS_Lab/iot_link/network/mqtt/paho_mqtt/paho/MQTTClient-C/src\MQTTClient.c ****         data->rc = 0;
 2403              		.loc 1 588 0
 2404 00cc 7B68     		ldr	r3, [r7, #4]
 2405 00ce 0022     		movs	r2, #0
 2406 00d0 1A70     		strb	r2, [r3]
 589:C:/Users/dtjld/workspace/AIoT/src/LiteOS_Lab/iot_link/network/mqtt/paho_mqtt/paho/MQTTClient-C/src\MQTTClient.c ****         data->sessionPresent = 0;
 2407              		.loc 1 589 0
 2408 00d2 7B68     		ldr	r3, [r7, #4]
 2409 00d4 0022     		movs	r2, #0
 2410 00d6 5A70     		strb	r2, [r3, #1]
 590:C:/Users/dtjld/workspace/AIoT/src/LiteOS_Lab/iot_link/network/mqtt/paho_mqtt/paho/MQTTClient-C/src\MQTTClient.c ****         if (MQTTDeserialize_connack(&data->sessionPresent, &data->rc, c->readbuf, c->readbuf_size) 
 2411              		.loc 1 590 0
 2412 00d8 7B68     		ldr	r3, [r7, #4]
 2413 00da 581C     		adds	r0, r3, #1
 2414 00dc 7968     		ldr	r1, [r7, #4]
 2415 00de FB68     		ldr	r3, [r7, #12]
 2416 00e0 5A69     		ldr	r2, [r3, #20]
 2417 00e2 FB68     		ldr	r3, [r7, #12]
 2418 00e4 DB68     		ldr	r3, [r3, #12]
 2419 00e6 FFF7FEFF 		bl	MQTTDeserialize_connack
 2420 00ea 0346     		mov	r3, r0
 2421 00ec 012B     		cmp	r3, #1
 2422 00ee 03D1     		bne	.L154
 591:C:/Users/dtjld/workspace/AIoT/src/LiteOS_Lab/iot_link/network/mqtt/paho_mqtt/paho/MQTTClient-C/src\MQTTClient.c ****             rc = data->rc;
 2423              		.loc 1 591 0
 2424 00f0 7B68     		ldr	r3, [r7, #4]
 2425 00f2 1B78     		ldrb	r3, [r3]	@ zero_extendqisi2
 2426 00f4 7B67     		str	r3, [r7, #116]
 2427 00f6 0CE0     		b	.L149
 2428              	.L154:
 592:C:/Users/dtjld/workspace/AIoT/src/LiteOS_Lab/iot_link/network/mqtt/paho_mqtt/paho/MQTTClient-C/src\MQTTClient.c ****         else
 593:C:/Users/dtjld/workspace/AIoT/src/LiteOS_Lab/iot_link/network/mqtt/paho_mqtt/paho/MQTTClient-C/src\MQTTClient.c ****             rc = FAILURE;
 2429              		.loc 1 593 0
 2430 00f8 4FF0FF33 		mov	r3, #-1
 2431 00fc 7B67     		str	r3, [r7, #116]
 2432 00fe 08E0     		b	.L149
 2433              	.L153:
 594:C:/Users/dtjld/workspace/AIoT/src/LiteOS_Lab/iot_link/network/mqtt/paho_mqtt/paho/MQTTClient-C/src\MQTTClient.c ****     }
 595:C:/Users/dtjld/workspace/AIoT/src/LiteOS_Lab/iot_link/network/mqtt/paho_mqtt/paho/MQTTClient-C/src\MQTTClient.c ****     else
 596:C:/Users/dtjld/workspace/AIoT/src/LiteOS_Lab/iot_link/network/mqtt/paho_mqtt/paho/MQTTClient-C/src\MQTTClient.c ****         rc = FAILURE;
 2434              		.loc 1 596 0
ARM GAS  C:\Users\dtjld\AppData\Local\Temp\cc8xzzLd.s 			page 54


 2435 0100 4FF0FF33 		mov	r3, #-1
 2436 0104 7B67     		str	r3, [r7, #116]
 2437 0106 04E0     		b	.L149
 2438              	.L160:
 569:C:/Users/dtjld/workspace/AIoT/src/LiteOS_Lab/iot_link/network/mqtt/paho_mqtt/paho/MQTTClient-C/src\MQTTClient.c **** 
 2439              		.loc 1 569 0
 2440 0108 00BF     		nop
 2441 010a 02E0     		b	.L149
 2442              	.L161:
 581:C:/Users/dtjld/workspace/AIoT/src/LiteOS_Lab/iot_link/network/mqtt/paho_mqtt/paho/MQTTClient-C/src\MQTTClient.c ****     if ((rc = sendPacket(c, len, &connect_timer)) != MQTT_SUCCESS)  // send the connect packet
 2443              		.loc 1 581 0
 2444 010c 00BF     		nop
 2445 010e 00E0     		b	.L149
 2446              	.L162:
 583:C:/Users/dtjld/workspace/AIoT/src/LiteOS_Lab/iot_link/network/mqtt/paho_mqtt/paho/MQTTClient-C/src\MQTTClient.c **** 
 2447              		.loc 1 583 0
 2448 0110 00BF     		nop
 2449              	.L149:
 597:C:/Users/dtjld/workspace/AIoT/src/LiteOS_Lab/iot_link/network/mqtt/paho_mqtt/paho/MQTTClient-C/src\MQTTClient.c **** 
 598:C:/Users/dtjld/workspace/AIoT/src/LiteOS_Lab/iot_link/network/mqtt/paho_mqtt/paho/MQTTClient-C/src\MQTTClient.c **** exit:
 599:C:/Users/dtjld/workspace/AIoT/src/LiteOS_Lab/iot_link/network/mqtt/paho_mqtt/paho/MQTTClient-C/src\MQTTClient.c ****     if (rc == MQTT_SUCCESS)
 2450              		.loc 1 599 0
 2451 0112 7B6F     		ldr	r3, [r7, #116]
 2452 0114 002B     		cmp	r3, #0
 2453 0116 05D1     		bne	.L156
 600:C:/Users/dtjld/workspace/AIoT/src/LiteOS_Lab/iot_link/network/mqtt/paho_mqtt/paho/MQTTClient-C/src\MQTTClient.c ****     {
 601:C:/Users/dtjld/workspace/AIoT/src/LiteOS_Lab/iot_link/network/mqtt/paho_mqtt/paho/MQTTClient-C/src\MQTTClient.c ****         c->isconnected = 1;
 2454              		.loc 1 601 0
 2455 0118 FB68     		ldr	r3, [r7, #12]
 2456 011a 0122     		movs	r2, #1
 2457 011c 1A62     		str	r2, [r3, #32]
 602:C:/Users/dtjld/workspace/AIoT/src/LiteOS_Lab/iot_link/network/mqtt/paho_mqtt/paho/MQTTClient-C/src\MQTTClient.c ****         c->ping_outstanding = 0;
 2458              		.loc 1 602 0
 2459 011e FB68     		ldr	r3, [r7, #12]
 2460 0120 0022     		movs	r2, #0
 2461 0122 1A77     		strb	r2, [r3, #28]
 2462              	.L156:
 603:C:/Users/dtjld/workspace/AIoT/src/LiteOS_Lab/iot_link/network/mqtt/paho_mqtt/paho/MQTTClient-C/src\MQTTClient.c ****     }
 604:C:/Users/dtjld/workspace/AIoT/src/LiteOS_Lab/iot_link/network/mqtt/paho_mqtt/paho/MQTTClient-C/src\MQTTClient.c **** 
 605:C:/Users/dtjld/workspace/AIoT/src/LiteOS_Lab/iot_link/network/mqtt/paho_mqtt/paho/MQTTClient-C/src\MQTTClient.c **** #if defined(MQTT_TASK)
 606:C:/Users/dtjld/workspace/AIoT/src/LiteOS_Lab/iot_link/network/mqtt/paho_mqtt/paho/MQTTClient-C/src\MQTTClient.c **** 	  MutexUnlock(&c->mutex);
 2463              		.loc 1 606 0
 2464 0124 FB68     		ldr	r3, [r7, #12]
 2465 0126 D3F88030 		ldr	r3, [r3, #128]
 2466 012a 1846     		mov	r0, r3
 2467 012c FFF7FEFF 		bl	osal_mutex_unlock
 2468 0130 0346     		mov	r3, r0
 2469 0132 012B     		cmp	r3, #1
 607:C:/Users/dtjld/workspace/AIoT/src/LiteOS_Lab/iot_link/network/mqtt/paho_mqtt/paho/MQTTClient-C/src\MQTTClient.c **** #endif
 608:C:/Users/dtjld/workspace/AIoT/src/LiteOS_Lab/iot_link/network/mqtt/paho_mqtt/paho/MQTTClient-C/src\MQTTClient.c **** 
 609:C:/Users/dtjld/workspace/AIoT/src/LiteOS_Lab/iot_link/network/mqtt/paho_mqtt/paho/MQTTClient-C/src\MQTTClient.c ****     return rc;
 2470              		.loc 1 609 0
 2471 0134 7B6F     		ldr	r3, [r7, #116]
 610:C:/Users/dtjld/workspace/AIoT/src/LiteOS_Lab/iot_link/network/mqtt/paho_mqtt/paho/MQTTClient-C/src\MQTTClient.c **** }
 2472              		.loc 1 610 0
 2473 0136 1846     		mov	r0, r3
 2474 0138 7837     		adds	r7, r7, #120
ARM GAS  C:\Users\dtjld\AppData\Local\Temp\cc8xzzLd.s 			page 55


 2475              	.LCFI84:
 2476              		.cfi_def_cfa_offset 8
 2477 013a BD46     		mov	sp, r7
 2478              	.LCFI85:
 2479              		.cfi_def_cfa_register 13
 2480              		@ sp needed
 2481 013c 80BD     		pop	{r7, pc}
 2482              	.L164:
 2483 013e 00BF     		.align	2
 2484              	.L163:
 2485 0140 00000000 		.word	.LC0
 2486              		.cfi_endproc
 2487              	.LFE20:
 2489              		.section	.text.MQTTConnect,"ax",%progbits
 2490              		.align	1
 2491              		.global	MQTTConnect
 2492              		.syntax unified
 2493              		.thumb
 2494              		.thumb_func
 2495              		.fpu fpv4-sp-d16
 2497              	MQTTConnect:
 2498              	.LFB21:
 611:C:/Users/dtjld/workspace/AIoT/src/LiteOS_Lab/iot_link/network/mqtt/paho_mqtt/paho/MQTTClient-C/src\MQTTClient.c **** 
 612:C:/Users/dtjld/workspace/AIoT/src/LiteOS_Lab/iot_link/network/mqtt/paho_mqtt/paho/MQTTClient-C/src\MQTTClient.c **** 
 613:C:/Users/dtjld/workspace/AIoT/src/LiteOS_Lab/iot_link/network/mqtt/paho_mqtt/paho/MQTTClient-C/src\MQTTClient.c **** int MQTTConnect(MQTTClient* c, MQTTPacket_connectData* options)
 614:C:/Users/dtjld/workspace/AIoT/src/LiteOS_Lab/iot_link/network/mqtt/paho_mqtt/paho/MQTTClient-C/src\MQTTClient.c **** {
 2499              		.loc 1 614 0
 2500              		.cfi_startproc
 2501              		@ args = 0, pretend = 0, frame = 16
 2502              		@ frame_needed = 1, uses_anonymous_args = 0
 2503 0000 80B5     		push	{r7, lr}
 2504              	.LCFI86:
 2505              		.cfi_def_cfa_offset 8
 2506              		.cfi_offset 7, -8
 2507              		.cfi_offset 14, -4
 2508 0002 84B0     		sub	sp, sp, #16
 2509              	.LCFI87:
 2510              		.cfi_def_cfa_offset 24
 2511 0004 00AF     		add	r7, sp, #0
 2512              	.LCFI88:
 2513              		.cfi_def_cfa_register 7
 2514 0006 7860     		str	r0, [r7, #4]
 2515 0008 3960     		str	r1, [r7]
 615:C:/Users/dtjld/workspace/AIoT/src/LiteOS_Lab/iot_link/network/mqtt/paho_mqtt/paho/MQTTClient-C/src\MQTTClient.c ****     MQTTConnackData data;
 616:C:/Users/dtjld/workspace/AIoT/src/LiteOS_Lab/iot_link/network/mqtt/paho_mqtt/paho/MQTTClient-C/src\MQTTClient.c ****     return MQTTConnectWithResults(c, options, &data);
 2516              		.loc 1 616 0
 2517 000a 07F10C03 		add	r3, r7, #12
 2518 000e 1A46     		mov	r2, r3
 2519 0010 3968     		ldr	r1, [r7]
 2520 0012 7868     		ldr	r0, [r7, #4]
 2521 0014 FFF7FEFF 		bl	MQTTConnectWithResults
 2522 0018 0346     		mov	r3, r0
 617:C:/Users/dtjld/workspace/AIoT/src/LiteOS_Lab/iot_link/network/mqtt/paho_mqtt/paho/MQTTClient-C/src\MQTTClient.c **** }
 2523              		.loc 1 617 0
 2524 001a 1846     		mov	r0, r3
 2525 001c 1037     		adds	r7, r7, #16
 2526              	.LCFI89:
ARM GAS  C:\Users\dtjld\AppData\Local\Temp\cc8xzzLd.s 			page 56


 2527              		.cfi_def_cfa_offset 8
 2528 001e BD46     		mov	sp, r7
 2529              	.LCFI90:
 2530              		.cfi_def_cfa_register 13
 2531              		@ sp needed
 2532 0020 80BD     		pop	{r7, pc}
 2533              		.cfi_endproc
 2534              	.LFE21:
 2536              		.section	.text.MQTTSetMessageHandler,"ax",%progbits
 2537              		.align	1
 2538              		.global	MQTTSetMessageHandler
 2539              		.syntax unified
 2540              		.thumb
 2541              		.thumb_func
 2542              		.fpu fpv4-sp-d16
 2544              	MQTTSetMessageHandler:
 2545              	.LFB22:
 618:C:/Users/dtjld/workspace/AIoT/src/LiteOS_Lab/iot_link/network/mqtt/paho_mqtt/paho/MQTTClient-C/src\MQTTClient.c **** 
 619:C:/Users/dtjld/workspace/AIoT/src/LiteOS_Lab/iot_link/network/mqtt/paho_mqtt/paho/MQTTClient-C/src\MQTTClient.c **** 
 620:C:/Users/dtjld/workspace/AIoT/src/LiteOS_Lab/iot_link/network/mqtt/paho_mqtt/paho/MQTTClient-C/src\MQTTClient.c **** int MQTTSetMessageHandler(MQTTClient* c, const char* topicFilter, messageHandler messageHandler)
 621:C:/Users/dtjld/workspace/AIoT/src/LiteOS_Lab/iot_link/network/mqtt/paho_mqtt/paho/MQTTClient-C/src\MQTTClient.c **** {
 2546              		.loc 1 621 0
 2547              		.cfi_startproc
 2548              		@ args = 0, pretend = 0, frame = 24
 2549              		@ frame_needed = 1, uses_anonymous_args = 0
 2550 0000 80B5     		push	{r7, lr}
 2551              	.LCFI91:
 2552              		.cfi_def_cfa_offset 8
 2553              		.cfi_offset 7, -8
 2554              		.cfi_offset 14, -4
 2555 0002 86B0     		sub	sp, sp, #24
 2556              	.LCFI92:
 2557              		.cfi_def_cfa_offset 32
 2558 0004 00AF     		add	r7, sp, #0
 2559              	.LCFI93:
 2560              		.cfi_def_cfa_register 7
 2561 0006 F860     		str	r0, [r7, #12]
 2562 0008 B960     		str	r1, [r7, #8]
 2563 000a 7A60     		str	r2, [r7, #4]
 622:C:/Users/dtjld/workspace/AIoT/src/LiteOS_Lab/iot_link/network/mqtt/paho_mqtt/paho/MQTTClient-C/src\MQTTClient.c ****     int rc = FAILURE;
 2564              		.loc 1 622 0
 2565 000c 4FF0FF33 		mov	r3, #-1
 2566 0010 7B61     		str	r3, [r7, #20]
 623:C:/Users/dtjld/workspace/AIoT/src/LiteOS_Lab/iot_link/network/mqtt/paho_mqtt/paho/MQTTClient-C/src\MQTTClient.c ****     int i = -1;
 2567              		.loc 1 623 0
 2568 0012 4FF0FF33 		mov	r3, #-1
 2569 0016 3B61     		str	r3, [r7, #16]
 624:C:/Users/dtjld/workspace/AIoT/src/LiteOS_Lab/iot_link/network/mqtt/paho_mqtt/paho/MQTTClient-C/src\MQTTClient.c **** 
 625:C:/Users/dtjld/workspace/AIoT/src/LiteOS_Lab/iot_link/network/mqtt/paho_mqtt/paho/MQTTClient-C/src\MQTTClient.c ****     /* first check for an existing matching slot */
 626:C:/Users/dtjld/workspace/AIoT/src/LiteOS_Lab/iot_link/network/mqtt/paho_mqtt/paho/MQTTClient-C/src\MQTTClient.c ****     for (i = 0; i < MAX_MESSAGE_HANDLERS; ++i)
 2570              		.loc 1 626 0
 2571 0018 0023     		movs	r3, #0
 2572 001a 3B61     		str	r3, [r7, #16]
 2573 001c 37E0     		b	.L168
 2574              	.L172:
 627:C:/Users/dtjld/workspace/AIoT/src/LiteOS_Lab/iot_link/network/mqtt/paho_mqtt/paho/MQTTClient-C/src\MQTTClient.c ****     {
 628:C:/Users/dtjld/workspace/AIoT/src/LiteOS_Lab/iot_link/network/mqtt/paho_mqtt/paho/MQTTClient-C/src\MQTTClient.c ****         if (c->messageHandlers[i].topicFilter != NULL && strcmp(c->messageHandlers[i].topicFilter, 
ARM GAS  C:\Users\dtjld\AppData\Local\Temp\cc8xzzLd.s 			page 57


 2575              		.loc 1 628 0
 2576 001e F968     		ldr	r1, [r7, #12]
 2577 0020 3A69     		ldr	r2, [r7, #16]
 2578 0022 1346     		mov	r3, r2
 2579 0024 5B00     		lsls	r3, r3, #1
 2580 0026 1344     		add	r3, r3, r2
 2581 0028 9B00     		lsls	r3, r3, #2
 2582 002a 0B44     		add	r3, r3, r1
 2583 002c 2833     		adds	r3, r3, #40
 2584 002e 1B68     		ldr	r3, [r3]
 2585 0030 002B     		cmp	r3, #0
 2586 0032 29D0     		beq	.L169
 2587              		.loc 1 628 0 is_stmt 0 discriminator 1
 2588 0034 F968     		ldr	r1, [r7, #12]
 2589 0036 3A69     		ldr	r2, [r7, #16]
 2590 0038 1346     		mov	r3, r2
 2591 003a 5B00     		lsls	r3, r3, #1
 2592 003c 1344     		add	r3, r3, r2
 2593 003e 9B00     		lsls	r3, r3, #2
 2594 0040 0B44     		add	r3, r3, r1
 2595 0042 2833     		adds	r3, r3, #40
 2596 0044 1B68     		ldr	r3, [r3]
 2597 0046 B968     		ldr	r1, [r7, #8]
 2598 0048 1846     		mov	r0, r3
 2599 004a FFF7FEFF 		bl	strcmp
 2600 004e 0346     		mov	r3, r0
 2601 0050 002B     		cmp	r3, #0
 2602 0052 19D1     		bne	.L169
 629:C:/Users/dtjld/workspace/AIoT/src/LiteOS_Lab/iot_link/network/mqtt/paho_mqtt/paho/MQTTClient-C/src\MQTTClient.c ****         {
 630:C:/Users/dtjld/workspace/AIoT/src/LiteOS_Lab/iot_link/network/mqtt/paho_mqtt/paho/MQTTClient-C/src\MQTTClient.c ****             if (messageHandler == NULL) /* remove existing */
 2603              		.loc 1 630 0 is_stmt 1
 2604 0054 7B68     		ldr	r3, [r7, #4]
 2605 0056 002B     		cmp	r3, #0
 2606 0058 13D1     		bne	.L170
 631:C:/Users/dtjld/workspace/AIoT/src/LiteOS_Lab/iot_link/network/mqtt/paho_mqtt/paho/MQTTClient-C/src\MQTTClient.c ****             {
 632:C:/Users/dtjld/workspace/AIoT/src/LiteOS_Lab/iot_link/network/mqtt/paho_mqtt/paho/MQTTClient-C/src\MQTTClient.c ****                 c->messageHandlers[i].topicFilter = NULL;
 2607              		.loc 1 632 0
 2608 005a F968     		ldr	r1, [r7, #12]
 2609 005c 3A69     		ldr	r2, [r7, #16]
 2610 005e 1346     		mov	r3, r2
 2611 0060 5B00     		lsls	r3, r3, #1
 2612 0062 1344     		add	r3, r3, r2
 2613 0064 9B00     		lsls	r3, r3, #2
 2614 0066 0B44     		add	r3, r3, r1
 2615 0068 2833     		adds	r3, r3, #40
 2616 006a 0022     		movs	r2, #0
 2617 006c 1A60     		str	r2, [r3]
 633:C:/Users/dtjld/workspace/AIoT/src/LiteOS_Lab/iot_link/network/mqtt/paho_mqtt/paho/MQTTClient-C/src\MQTTClient.c ****                 c->messageHandlers[i].fp = NULL;
 2618              		.loc 1 633 0
 2619 006e F968     		ldr	r1, [r7, #12]
 2620 0070 3A69     		ldr	r2, [r7, #16]
 2621 0072 1346     		mov	r3, r2
 2622 0074 5B00     		lsls	r3, r3, #1
 2623 0076 1344     		add	r3, r3, r2
 2624 0078 9B00     		lsls	r3, r3, #2
 2625 007a 0B44     		add	r3, r3, r1
 2626 007c 2C33     		adds	r3, r3, #44
ARM GAS  C:\Users\dtjld\AppData\Local\Temp\cc8xzzLd.s 			page 58


 2627 007e 0022     		movs	r2, #0
 2628 0080 1A60     		str	r2, [r3]
 2629              	.L170:
 634:C:/Users/dtjld/workspace/AIoT/src/LiteOS_Lab/iot_link/network/mqtt/paho_mqtt/paho/MQTTClient-C/src\MQTTClient.c ****             }
 635:C:/Users/dtjld/workspace/AIoT/src/LiteOS_Lab/iot_link/network/mqtt/paho_mqtt/paho/MQTTClient-C/src\MQTTClient.c ****             rc = MQTT_SUCCESS; /* return i when adding new subscription */
 2630              		.loc 1 635 0
 2631 0082 0023     		movs	r3, #0
 2632 0084 7B61     		str	r3, [r7, #20]
 636:C:/Users/dtjld/workspace/AIoT/src/LiteOS_Lab/iot_link/network/mqtt/paho_mqtt/paho/MQTTClient-C/src\MQTTClient.c ****             break;
 2633              		.loc 1 636 0
 2634 0086 05E0     		b	.L171
 2635              	.L169:
 626:C:/Users/dtjld/workspace/AIoT/src/LiteOS_Lab/iot_link/network/mqtt/paho_mqtt/paho/MQTTClient-C/src\MQTTClient.c ****     {
 2636              		.loc 1 626 0 discriminator 2
 2637 0088 3B69     		ldr	r3, [r7, #16]
 2638 008a 0133     		adds	r3, r3, #1
 2639 008c 3B61     		str	r3, [r7, #16]
 2640              	.L168:
 626:C:/Users/dtjld/workspace/AIoT/src/LiteOS_Lab/iot_link/network/mqtt/paho_mqtt/paho/MQTTClient-C/src\MQTTClient.c ****     {
 2641              		.loc 1 626 0 is_stmt 0 discriminator 1
 2642 008e 3B69     		ldr	r3, [r7, #16]
 2643 0090 042B     		cmp	r3, #4
 2644 0092 C4DD     		ble	.L172
 2645              	.L171:
 637:C:/Users/dtjld/workspace/AIoT/src/LiteOS_Lab/iot_link/network/mqtt/paho_mqtt/paho/MQTTClient-C/src\MQTTClient.c ****         }
 638:C:/Users/dtjld/workspace/AIoT/src/LiteOS_Lab/iot_link/network/mqtt/paho_mqtt/paho/MQTTClient-C/src\MQTTClient.c ****     }
 639:C:/Users/dtjld/workspace/AIoT/src/LiteOS_Lab/iot_link/network/mqtt/paho_mqtt/paho/MQTTClient-C/src\MQTTClient.c ****     /* if no existing, look for empty slot (unless we are removing) */
 640:C:/Users/dtjld/workspace/AIoT/src/LiteOS_Lab/iot_link/network/mqtt/paho_mqtt/paho/MQTTClient-C/src\MQTTClient.c ****     if (messageHandler != NULL)
 2646              		.loc 1 640 0 is_stmt 1
 2647 0094 7B68     		ldr	r3, [r7, #4]
 2648 0096 002B     		cmp	r3, #0
 2649 0098 31D0     		beq	.L173
 641:C:/Users/dtjld/workspace/AIoT/src/LiteOS_Lab/iot_link/network/mqtt/paho_mqtt/paho/MQTTClient-C/src\MQTTClient.c ****     {
 642:C:/Users/dtjld/workspace/AIoT/src/LiteOS_Lab/iot_link/network/mqtt/paho_mqtt/paho/MQTTClient-C/src\MQTTClient.c ****         if (rc == FAILURE)
 2650              		.loc 1 642 0
 2651 009a 7B69     		ldr	r3, [r7, #20]
 2652 009c B3F1FF3F 		cmp	r3, #-1
 2653 00a0 16D1     		bne	.L174
 643:C:/Users/dtjld/workspace/AIoT/src/LiteOS_Lab/iot_link/network/mqtt/paho_mqtt/paho/MQTTClient-C/src\MQTTClient.c ****         {
 644:C:/Users/dtjld/workspace/AIoT/src/LiteOS_Lab/iot_link/network/mqtt/paho_mqtt/paho/MQTTClient-C/src\MQTTClient.c ****             for (i = 0; i < MAX_MESSAGE_HANDLERS; ++i)
 2654              		.loc 1 644 0
 2655 00a2 0023     		movs	r3, #0
 2656 00a4 3B61     		str	r3, [r7, #16]
 2657 00a6 10E0     		b	.L175
 2658              	.L177:
 645:C:/Users/dtjld/workspace/AIoT/src/LiteOS_Lab/iot_link/network/mqtt/paho_mqtt/paho/MQTTClient-C/src\MQTTClient.c ****             {
 646:C:/Users/dtjld/workspace/AIoT/src/LiteOS_Lab/iot_link/network/mqtt/paho_mqtt/paho/MQTTClient-C/src\MQTTClient.c ****                 if (c->messageHandlers[i].topicFilter == NULL)
 2659              		.loc 1 646 0
 2660 00a8 F968     		ldr	r1, [r7, #12]
 2661 00aa 3A69     		ldr	r2, [r7, #16]
 2662 00ac 1346     		mov	r3, r2
 2663 00ae 5B00     		lsls	r3, r3, #1
 2664 00b0 1344     		add	r3, r3, r2
 2665 00b2 9B00     		lsls	r3, r3, #2
 2666 00b4 0B44     		add	r3, r3, r1
 2667 00b6 2833     		adds	r3, r3, #40
 2668 00b8 1B68     		ldr	r3, [r3]
ARM GAS  C:\Users\dtjld\AppData\Local\Temp\cc8xzzLd.s 			page 59


 2669 00ba 002B     		cmp	r3, #0
 2670 00bc 02D1     		bne	.L176
 647:C:/Users/dtjld/workspace/AIoT/src/LiteOS_Lab/iot_link/network/mqtt/paho_mqtt/paho/MQTTClient-C/src\MQTTClient.c ****                 {
 648:C:/Users/dtjld/workspace/AIoT/src/LiteOS_Lab/iot_link/network/mqtt/paho_mqtt/paho/MQTTClient-C/src\MQTTClient.c ****                     rc = MQTT_SUCCESS;
 2671              		.loc 1 648 0
 2672 00be 0023     		movs	r3, #0
 2673 00c0 7B61     		str	r3, [r7, #20]
 649:C:/Users/dtjld/workspace/AIoT/src/LiteOS_Lab/iot_link/network/mqtt/paho_mqtt/paho/MQTTClient-C/src\MQTTClient.c ****                     break;
 2674              		.loc 1 649 0
 2675 00c2 05E0     		b	.L174
 2676              	.L176:
 644:C:/Users/dtjld/workspace/AIoT/src/LiteOS_Lab/iot_link/network/mqtt/paho_mqtt/paho/MQTTClient-C/src\MQTTClient.c ****             {
 2677              		.loc 1 644 0 discriminator 2
 2678 00c4 3B69     		ldr	r3, [r7, #16]
 2679 00c6 0133     		adds	r3, r3, #1
 2680 00c8 3B61     		str	r3, [r7, #16]
 2681              	.L175:
 644:C:/Users/dtjld/workspace/AIoT/src/LiteOS_Lab/iot_link/network/mqtt/paho_mqtt/paho/MQTTClient-C/src\MQTTClient.c ****             {
 2682              		.loc 1 644 0 is_stmt 0 discriminator 1
 2683 00ca 3B69     		ldr	r3, [r7, #16]
 2684 00cc 042B     		cmp	r3, #4
 2685 00ce EBDD     		ble	.L177
 2686              	.L174:
 650:C:/Users/dtjld/workspace/AIoT/src/LiteOS_Lab/iot_link/network/mqtt/paho_mqtt/paho/MQTTClient-C/src\MQTTClient.c ****                 }
 651:C:/Users/dtjld/workspace/AIoT/src/LiteOS_Lab/iot_link/network/mqtt/paho_mqtt/paho/MQTTClient-C/src\MQTTClient.c ****             }
 652:C:/Users/dtjld/workspace/AIoT/src/LiteOS_Lab/iot_link/network/mqtt/paho_mqtt/paho/MQTTClient-C/src\MQTTClient.c ****         }
 653:C:/Users/dtjld/workspace/AIoT/src/LiteOS_Lab/iot_link/network/mqtt/paho_mqtt/paho/MQTTClient-C/src\MQTTClient.c ****         if (i < MAX_MESSAGE_HANDLERS)
 2687              		.loc 1 653 0 is_stmt 1
 2688 00d0 3B69     		ldr	r3, [r7, #16]
 2689 00d2 042B     		cmp	r3, #4
 2690 00d4 13DC     		bgt	.L173
 654:C:/Users/dtjld/workspace/AIoT/src/LiteOS_Lab/iot_link/network/mqtt/paho_mqtt/paho/MQTTClient-C/src\MQTTClient.c ****         {
 655:C:/Users/dtjld/workspace/AIoT/src/LiteOS_Lab/iot_link/network/mqtt/paho_mqtt/paho/MQTTClient-C/src\MQTTClient.c ****             c->messageHandlers[i].topicFilter = topicFilter;
 2691              		.loc 1 655 0
 2692 00d6 F968     		ldr	r1, [r7, #12]
 2693 00d8 3A69     		ldr	r2, [r7, #16]
 2694 00da 1346     		mov	r3, r2
 2695 00dc 5B00     		lsls	r3, r3, #1
 2696 00de 1344     		add	r3, r3, r2
 2697 00e0 9B00     		lsls	r3, r3, #2
 2698 00e2 0B44     		add	r3, r3, r1
 2699 00e4 2833     		adds	r3, r3, #40
 2700 00e6 BA68     		ldr	r2, [r7, #8]
 2701 00e8 1A60     		str	r2, [r3]
 656:C:/Users/dtjld/workspace/AIoT/src/LiteOS_Lab/iot_link/network/mqtt/paho_mqtt/paho/MQTTClient-C/src\MQTTClient.c ****             c->messageHandlers[i].fp = messageHandler;
 2702              		.loc 1 656 0
 2703 00ea F968     		ldr	r1, [r7, #12]
 2704 00ec 3A69     		ldr	r2, [r7, #16]
 2705 00ee 1346     		mov	r3, r2
 2706 00f0 5B00     		lsls	r3, r3, #1
 2707 00f2 1344     		add	r3, r3, r2
 2708 00f4 9B00     		lsls	r3, r3, #2
 2709 00f6 0B44     		add	r3, r3, r1
 2710 00f8 2C33     		adds	r3, r3, #44
 2711 00fa 7A68     		ldr	r2, [r7, #4]
 2712 00fc 1A60     		str	r2, [r3]
 2713              	.L173:
ARM GAS  C:\Users\dtjld\AppData\Local\Temp\cc8xzzLd.s 			page 60


 657:C:/Users/dtjld/workspace/AIoT/src/LiteOS_Lab/iot_link/network/mqtt/paho_mqtt/paho/MQTTClient-C/src\MQTTClient.c ****         }
 658:C:/Users/dtjld/workspace/AIoT/src/LiteOS_Lab/iot_link/network/mqtt/paho_mqtt/paho/MQTTClient-C/src\MQTTClient.c ****     }
 659:C:/Users/dtjld/workspace/AIoT/src/LiteOS_Lab/iot_link/network/mqtt/paho_mqtt/paho/MQTTClient-C/src\MQTTClient.c ****     return rc;
 2714              		.loc 1 659 0
 2715 00fe 7B69     		ldr	r3, [r7, #20]
 660:C:/Users/dtjld/workspace/AIoT/src/LiteOS_Lab/iot_link/network/mqtt/paho_mqtt/paho/MQTTClient-C/src\MQTTClient.c **** }
 2716              		.loc 1 660 0
 2717 0100 1846     		mov	r0, r3
 2718 0102 1837     		adds	r7, r7, #24
 2719              	.LCFI94:
 2720              		.cfi_def_cfa_offset 8
 2721 0104 BD46     		mov	sp, r7
 2722              	.LCFI95:
 2723              		.cfi_def_cfa_register 13
 2724              		@ sp needed
 2725 0106 80BD     		pop	{r7, pc}
 2726              		.cfi_endproc
 2727              	.LFE22:
 2729              		.section	.text.MQTTSubscribeWithResults,"ax",%progbits
 2730              		.align	1
 2731              		.global	MQTTSubscribeWithResults
 2732              		.syntax unified
 2733              		.thumb
 2734              		.thumb_func
 2735              		.fpu fpv4-sp-d16
 2737              	MQTTSubscribeWithResults:
 2738              	.LFB23:
 661:C:/Users/dtjld/workspace/AIoT/src/LiteOS_Lab/iot_link/network/mqtt/paho_mqtt/paho/MQTTClient-C/src\MQTTClient.c **** 
 662:C:/Users/dtjld/workspace/AIoT/src/LiteOS_Lab/iot_link/network/mqtt/paho_mqtt/paho/MQTTClient-C/src\MQTTClient.c **** 
 663:C:/Users/dtjld/workspace/AIoT/src/LiteOS_Lab/iot_link/network/mqtt/paho_mqtt/paho/MQTTClient-C/src\MQTTClient.c **** int MQTTSubscribeWithResults(MQTTClient *c, const char *topicFilter, enum QoS qos,
 664:C:/Users/dtjld/workspace/AIoT/src/LiteOS_Lab/iot_link/network/mqtt/paho_mqtt/paho/MQTTClient-C/src\MQTTClient.c ****                              messageHandler messageHandler, MQTTSubackData *data)
 665:C:/Users/dtjld/workspace/AIoT/src/LiteOS_Lab/iot_link/network/mqtt/paho_mqtt/paho/MQTTClient-C/src\MQTTClient.c **** {
 2739              		.loc 1 665 0
 2740              		.cfi_startproc
 2741              		@ args = 4, pretend = 0, frame = 56
 2742              		@ frame_needed = 1, uses_anonymous_args = 0
 2743 0000 B0B5     		push	{r4, r5, r7, lr}
 2744              	.LCFI96:
 2745              		.cfi_def_cfa_offset 16
 2746              		.cfi_offset 4, -16
 2747              		.cfi_offset 5, -12
 2748              		.cfi_offset 7, -8
 2749              		.cfi_offset 14, -4
 2750 0002 92B0     		sub	sp, sp, #72
 2751              	.LCFI97:
 2752              		.cfi_def_cfa_offset 88
 2753 0004 04AF     		add	r7, sp, #16
 2754              	.LCFI98:
 2755              		.cfi_def_cfa 7, 72
 2756 0006 F860     		str	r0, [r7, #12]
 2757 0008 B960     		str	r1, [r7, #8]
 2758 000a 3B60     		str	r3, [r7]
 2759 000c 1346     		mov	r3, r2
 2760 000e FB71     		strb	r3, [r7, #7]
 666:C:/Users/dtjld/workspace/AIoT/src/LiteOS_Lab/iot_link/network/mqtt/paho_mqtt/paho/MQTTClient-C/src\MQTTClient.c ****     int rc = FAILURE;
 2761              		.loc 1 666 0
 2762 0010 4FF0FF33 		mov	r3, #-1
ARM GAS  C:\Users\dtjld\AppData\Local\Temp\cc8xzzLd.s 			page 61


 2763 0014 7B63     		str	r3, [r7, #52]
 667:C:/Users/dtjld/workspace/AIoT/src/LiteOS_Lab/iot_link/network/mqtt/paho_mqtt/paho/MQTTClient-C/src\MQTTClient.c ****     Timer timer;
 668:C:/Users/dtjld/workspace/AIoT/src/LiteOS_Lab/iot_link/network/mqtt/paho_mqtt/paho/MQTTClient-C/src\MQTTClient.c ****     int len = 0;
 2764              		.loc 1 668 0
 2765 0016 0023     		movs	r3, #0
 2766 0018 3B63     		str	r3, [r7, #48]
 669:C:/Users/dtjld/workspace/AIoT/src/LiteOS_Lab/iot_link/network/mqtt/paho_mqtt/paho/MQTTClient-C/src\MQTTClient.c ****     MQTTString topic = MQTTString_initializer;
 2767              		.loc 1 669 0
 2768 001a 0023     		movs	r3, #0
 2769 001c FB61     		str	r3, [r7, #28]
 2770 001e 0023     		movs	r3, #0
 2771 0020 3B62     		str	r3, [r7, #32]
 2772 0022 0023     		movs	r3, #0
 2773 0024 7B62     		str	r3, [r7, #36]
 670:C:/Users/dtjld/workspace/AIoT/src/LiteOS_Lab/iot_link/network/mqtt/paho_mqtt/paho/MQTTClient-C/src\MQTTClient.c ****     topic.cstring = (char *)topicFilter;
 2774              		.loc 1 670 0
 2775 0026 BB68     		ldr	r3, [r7, #8]
 2776 0028 FB61     		str	r3, [r7, #28]
 671:C:/Users/dtjld/workspace/AIoT/src/LiteOS_Lab/iot_link/network/mqtt/paho_mqtt/paho/MQTTClient-C/src\MQTTClient.c **** 
 672:C:/Users/dtjld/workspace/AIoT/src/LiteOS_Lab/iot_link/network/mqtt/paho_mqtt/paho/MQTTClient-C/src\MQTTClient.c **** #if defined(MQTT_TASK)
 673:C:/Users/dtjld/workspace/AIoT/src/LiteOS_Lab/iot_link/network/mqtt/paho_mqtt/paho/MQTTClient-C/src\MQTTClient.c ****     MutexLock(&c->mutex);
 2777              		.loc 1 673 0
 2778 002a FB68     		ldr	r3, [r7, #12]
 2779 002c D3F88030 		ldr	r3, [r3, #128]
 2780 0030 1846     		mov	r0, r3
 2781 0032 FFF7FEFF 		bl	osal_mutex_lock
 2782 0036 0346     		mov	r3, r0
 2783 0038 012B     		cmp	r3, #1
 674:C:/Users/dtjld/workspace/AIoT/src/LiteOS_Lab/iot_link/network/mqtt/paho_mqtt/paho/MQTTClient-C/src\MQTTClient.c **** #endif
 675:C:/Users/dtjld/workspace/AIoT/src/LiteOS_Lab/iot_link/network/mqtt/paho_mqtt/paho/MQTTClient-C/src\MQTTClient.c ****     if (!c->isconnected)
 2784              		.loc 1 675 0
 2785 003a FB68     		ldr	r3, [r7, #12]
 2786 003c 1B6A     		ldr	r3, [r3, #32]
 2787 003e 002B     		cmp	r3, #0
 2788 0040 63D0     		beq	.L192
 676:C:/Users/dtjld/workspace/AIoT/src/LiteOS_Lab/iot_link/network/mqtt/paho_mqtt/paho/MQTTClient-C/src\MQTTClient.c ****         goto exit;
 677:C:/Users/dtjld/workspace/AIoT/src/LiteOS_Lab/iot_link/network/mqtt/paho_mqtt/paho/MQTTClient-C/src\MQTTClient.c **** 
 678:C:/Users/dtjld/workspace/AIoT/src/LiteOS_Lab/iot_link/network/mqtt/paho_mqtt/paho/MQTTClient-C/src\MQTTClient.c ****     TimerInit(&timer);
 2789              		.loc 1 678 0
 2790 0042 07F12803 		add	r3, r7, #40
 2791 0046 1846     		mov	r0, r3
 2792 0048 FFF7FEFF 		bl	osal_loop_timer_init
 679:C:/Users/dtjld/workspace/AIoT/src/LiteOS_Lab/iot_link/network/mqtt/paho_mqtt/paho/MQTTClient-C/src\MQTTClient.c ****     TimerCountdownMS(&timer, c->command_timeout_ms);
 2793              		.loc 1 679 0
 2794 004c FB68     		ldr	r3, [r7, #12]
 2795 004e 5A68     		ldr	r2, [r3, #4]
 2796 0050 07F12803 		add	r3, r7, #40
 2797 0054 1146     		mov	r1, r2
 2798 0056 1846     		mov	r0, r3
 2799 0058 FFF7FEFF 		bl	osal_loop_timer_count_downms
 680:C:/Users/dtjld/workspace/AIoT/src/LiteOS_Lab/iot_link/network/mqtt/paho_mqtt/paho/MQTTClient-C/src\MQTTClient.c **** 
 681:C:/Users/dtjld/workspace/AIoT/src/LiteOS_Lab/iot_link/network/mqtt/paho_mqtt/paho/MQTTClient-C/src\MQTTClient.c ****     len = MQTTSerialize_subscribe(c->buf, c->buf_size, 0, getNextPacketId(c), 1, &topic, (int *)&qo
 2800              		.loc 1 681 0
 2801 005c FB68     		ldr	r3, [r7, #12]
 2802 005e 1C69     		ldr	r4, [r3, #16]
 2803 0060 FB68     		ldr	r3, [r7, #12]
 2804 0062 9B68     		ldr	r3, [r3, #8]
ARM GAS  C:\Users\dtjld\AppData\Local\Temp\cc8xzzLd.s 			page 62


 2805 0064 1D46     		mov	r5, r3
 2806 0066 F868     		ldr	r0, [r7, #12]
 2807 0068 FFF7FEFF 		bl	getNextPacketId
 2808 006c 0346     		mov	r3, r0
 2809 006e 9AB2     		uxth	r2, r3
 2810 0070 FB1D     		adds	r3, r7, #7
 2811 0072 0293     		str	r3, [sp, #8]
 2812 0074 07F11C03 		add	r3, r7, #28
 2813 0078 0193     		str	r3, [sp, #4]
 2814 007a 0123     		movs	r3, #1
 2815 007c 0093     		str	r3, [sp]
 2816 007e 1346     		mov	r3, r2
 2817 0080 0022     		movs	r2, #0
 2818 0082 2946     		mov	r1, r5
 2819 0084 2046     		mov	r0, r4
 2820 0086 FFF7FEFF 		bl	MQTTSerialize_subscribe
 2821 008a 3863     		str	r0, [r7, #48]
 682:C:/Users/dtjld/workspace/AIoT/src/LiteOS_Lab/iot_link/network/mqtt/paho_mqtt/paho/MQTTClient-C/src\MQTTClient.c ****     if (len <= 0)
 2822              		.loc 1 682 0
 2823 008c 3B6B     		ldr	r3, [r7, #48]
 2824 008e 002B     		cmp	r3, #0
 2825 0090 3DDD     		ble	.L193
 683:C:/Users/dtjld/workspace/AIoT/src/LiteOS_Lab/iot_link/network/mqtt/paho_mqtt/paho/MQTTClient-C/src\MQTTClient.c ****         goto exit;
 684:C:/Users/dtjld/workspace/AIoT/src/LiteOS_Lab/iot_link/network/mqtt/paho_mqtt/paho/MQTTClient-C/src\MQTTClient.c ****     if ((rc = sendPacket(c, len, &timer)) != MQTT_SUCCESS) // send the subscribe packet
 2826              		.loc 1 684 0
 2827 0092 07F12803 		add	r3, r7, #40
 2828 0096 1A46     		mov	r2, r3
 2829 0098 396B     		ldr	r1, [r7, #48]
 2830 009a F868     		ldr	r0, [r7, #12]
 2831 009c FFF7FEFF 		bl	sendPacket
 2832 00a0 7863     		str	r0, [r7, #52]
 2833 00a2 7B6B     		ldr	r3, [r7, #52]
 2834 00a4 002B     		cmp	r3, #0
 2835 00a6 34D1     		bne	.L194
 685:C:/Users/dtjld/workspace/AIoT/src/LiteOS_Lab/iot_link/network/mqtt/paho_mqtt/paho/MQTTClient-C/src\MQTTClient.c ****         goto exit;             // there was a problem
 686:C:/Users/dtjld/workspace/AIoT/src/LiteOS_Lab/iot_link/network/mqtt/paho_mqtt/paho/MQTTClient-C/src\MQTTClient.c **** 
 687:C:/Users/dtjld/workspace/AIoT/src/LiteOS_Lab/iot_link/network/mqtt/paho_mqtt/paho/MQTTClient-C/src\MQTTClient.c ****     if (waitfor(c, SUBACK, &timer) == SUBACK)      // wait for suback
 2836              		.loc 1 687 0
 2837 00a8 07F12803 		add	r3, r7, #40
 2838 00ac 1A46     		mov	r2, r3
 2839 00ae 0921     		movs	r1, #9
 2840 00b0 F868     		ldr	r0, [r7, #12]
 2841 00b2 FFF7FEFF 		bl	waitfor
 2842 00b6 0346     		mov	r3, r0
 2843 00b8 092B     		cmp	r3, #9
 2844 00ba 22D1     		bne	.L186
 2845              	.LBB12:
 688:C:/Users/dtjld/workspace/AIoT/src/LiteOS_Lab/iot_link/network/mqtt/paho_mqtt/paho/MQTTClient-C/src\MQTTClient.c ****     {
 689:C:/Users/dtjld/workspace/AIoT/src/LiteOS_Lab/iot_link/network/mqtt/paho_mqtt/paho/MQTTClient-C/src\MQTTClient.c ****         int count = 0;
 2846              		.loc 1 689 0
 2847 00bc 0023     		movs	r3, #0
 2848 00be BB61     		str	r3, [r7, #24]
 690:C:/Users/dtjld/workspace/AIoT/src/LiteOS_Lab/iot_link/network/mqtt/paho_mqtt/paho/MQTTClient-C/src\MQTTClient.c ****         unsigned short mypacketid;
 691:C:/Users/dtjld/workspace/AIoT/src/LiteOS_Lab/iot_link/network/mqtt/paho_mqtt/paho/MQTTClient-C/src\MQTTClient.c ****         data->grantedQoS = QOS0;
 2849              		.loc 1 691 0
 2850 00c0 BB6C     		ldr	r3, [r7, #72]
 2851 00c2 0022     		movs	r2, #0
ARM GAS  C:\Users\dtjld\AppData\Local\Temp\cc8xzzLd.s 			page 63


 2852 00c4 1A70     		strb	r2, [r3]
 692:C:/Users/dtjld/workspace/AIoT/src/LiteOS_Lab/iot_link/network/mqtt/paho_mqtt/paho/MQTTClient-C/src\MQTTClient.c ****         if (MQTTDeserialize_suback(&mypacketid, 1, &count, (int *)&data->grantedQoS, c->readbuf, c-
 2853              		.loc 1 692 0
 2854 00c6 B96C     		ldr	r1, [r7, #72]
 2855 00c8 FB68     		ldr	r3, [r7, #12]
 2856 00ca 5B69     		ldr	r3, [r3, #20]
 2857 00cc FA68     		ldr	r2, [r7, #12]
 2858 00ce D268     		ldr	r2, [r2, #12]
 2859 00d0 1446     		mov	r4, r2
 2860 00d2 07F11802 		add	r2, r7, #24
 2861 00d6 07F11600 		add	r0, r7, #22
 2862 00da 0194     		str	r4, [sp, #4]
 2863 00dc 0093     		str	r3, [sp]
 2864 00de 0B46     		mov	r3, r1
 2865 00e0 0121     		movs	r1, #1
 2866 00e2 FFF7FEFF 		bl	MQTTDeserialize_suback
 2867 00e6 0346     		mov	r3, r0
 2868 00e8 012B     		cmp	r3, #1
 2869 00ea 13D1     		bne	.L183
 693:C:/Users/dtjld/workspace/AIoT/src/LiteOS_Lab/iot_link/network/mqtt/paho_mqtt/paho/MQTTClient-C/src\MQTTClient.c ****         {
 694:C:/Users/dtjld/workspace/AIoT/src/LiteOS_Lab/iot_link/network/mqtt/paho_mqtt/paho/MQTTClient-C/src\MQTTClient.c ****             if (data->grantedQoS != 0x80)
 2870              		.loc 1 694 0
 2871 00ec BB6C     		ldr	r3, [r7, #72]
 2872 00ee 1B78     		ldrb	r3, [r3]	@ zero_extendqisi2
 2873 00f0 802B     		cmp	r3, #128
 2874 00f2 0FD0     		beq	.L183
 695:C:/Users/dtjld/workspace/AIoT/src/LiteOS_Lab/iot_link/network/mqtt/paho_mqtt/paho/MQTTClient-C/src\MQTTClient.c ****                 rc = MQTTSetMessageHandler(c, topicFilter, messageHandler);
 2875              		.loc 1 695 0
 2876 00f4 3A68     		ldr	r2, [r7]
 2877 00f6 B968     		ldr	r1, [r7, #8]
 2878 00f8 F868     		ldr	r0, [r7, #12]
 2879 00fa FFF7FEFF 		bl	MQTTSetMessageHandler
 2880 00fe 7863     		str	r0, [r7, #52]
 2881 0100 08E0     		b	.L183
 2882              	.L186:
 2883              	.LBE12:
 696:C:/Users/dtjld/workspace/AIoT/src/LiteOS_Lab/iot_link/network/mqtt/paho_mqtt/paho/MQTTClient-C/src\MQTTClient.c ****         }
 697:C:/Users/dtjld/workspace/AIoT/src/LiteOS_Lab/iot_link/network/mqtt/paho_mqtt/paho/MQTTClient-C/src\MQTTClient.c ****     }
 698:C:/Users/dtjld/workspace/AIoT/src/LiteOS_Lab/iot_link/network/mqtt/paho_mqtt/paho/MQTTClient-C/src\MQTTClient.c ****     else
 699:C:/Users/dtjld/workspace/AIoT/src/LiteOS_Lab/iot_link/network/mqtt/paho_mqtt/paho/MQTTClient-C/src\MQTTClient.c ****         rc = FAILURE;
 2884              		.loc 1 699 0
 2885 0102 4FF0FF33 		mov	r3, #-1
 2886 0106 7B63     		str	r3, [r7, #52]
 2887 0108 04E0     		b	.L183
 2888              	.L192:
 676:C:/Users/dtjld/workspace/AIoT/src/LiteOS_Lab/iot_link/network/mqtt/paho_mqtt/paho/MQTTClient-C/src\MQTTClient.c **** 
 2889              		.loc 1 676 0
 2890 010a 00BF     		nop
 2891 010c 02E0     		b	.L183
 2892              	.L193:
 683:C:/Users/dtjld/workspace/AIoT/src/LiteOS_Lab/iot_link/network/mqtt/paho_mqtt/paho/MQTTClient-C/src\MQTTClient.c ****     if ((rc = sendPacket(c, len, &timer)) != MQTT_SUCCESS) // send the subscribe packet
 2893              		.loc 1 683 0
 2894 010e 00BF     		nop
 2895 0110 00E0     		b	.L183
 2896              	.L194:
 685:C:/Users/dtjld/workspace/AIoT/src/LiteOS_Lab/iot_link/network/mqtt/paho_mqtt/paho/MQTTClient-C/src\MQTTClient.c **** 
 2897              		.loc 1 685 0
ARM GAS  C:\Users\dtjld\AppData\Local\Temp\cc8xzzLd.s 			page 64


 2898 0112 00BF     		nop
 2899              	.L183:
 700:C:/Users/dtjld/workspace/AIoT/src/LiteOS_Lab/iot_link/network/mqtt/paho_mqtt/paho/MQTTClient-C/src\MQTTClient.c **** 
 701:C:/Users/dtjld/workspace/AIoT/src/LiteOS_Lab/iot_link/network/mqtt/paho_mqtt/paho/MQTTClient-C/src\MQTTClient.c **** exit:
 702:C:/Users/dtjld/workspace/AIoT/src/LiteOS_Lab/iot_link/network/mqtt/paho_mqtt/paho/MQTTClient-C/src\MQTTClient.c ****     if (rc == FAILURE)
 2900              		.loc 1 702 0
 2901 0114 7B6B     		ldr	r3, [r7, #52]
 2902 0116 B3F1FF3F 		cmp	r3, #-1
 2903 011a 02D1     		bne	.L188
 703:C:/Users/dtjld/workspace/AIoT/src/LiteOS_Lab/iot_link/network/mqtt/paho_mqtt/paho/MQTTClient-C/src\MQTTClient.c ****         MQTTCloseSession(c);
 2904              		.loc 1 703 0
 2905 011c F868     		ldr	r0, [r7, #12]
 2906 011e FFF7FEFF 		bl	MQTTCloseSession
 2907              	.L188:
 704:C:/Users/dtjld/workspace/AIoT/src/LiteOS_Lab/iot_link/network/mqtt/paho_mqtt/paho/MQTTClient-C/src\MQTTClient.c **** #if defined(MQTT_TASK)
 705:C:/Users/dtjld/workspace/AIoT/src/LiteOS_Lab/iot_link/network/mqtt/paho_mqtt/paho/MQTTClient-C/src\MQTTClient.c **** 	  MutexUnlock(&c->mutex);
 2908              		.loc 1 705 0
 2909 0122 FB68     		ldr	r3, [r7, #12]
 2910 0124 D3F88030 		ldr	r3, [r3, #128]
 2911 0128 1846     		mov	r0, r3
 2912 012a FFF7FEFF 		bl	osal_mutex_unlock
 2913 012e 0346     		mov	r3, r0
 2914 0130 012B     		cmp	r3, #1
 706:C:/Users/dtjld/workspace/AIoT/src/LiteOS_Lab/iot_link/network/mqtt/paho_mqtt/paho/MQTTClient-C/src\MQTTClient.c **** #endif
 707:C:/Users/dtjld/workspace/AIoT/src/LiteOS_Lab/iot_link/network/mqtt/paho_mqtt/paho/MQTTClient-C/src\MQTTClient.c ****     return rc;
 2915              		.loc 1 707 0
 2916 0132 7B6B     		ldr	r3, [r7, #52]
 708:C:/Users/dtjld/workspace/AIoT/src/LiteOS_Lab/iot_link/network/mqtt/paho_mqtt/paho/MQTTClient-C/src\MQTTClient.c **** }
 2917              		.loc 1 708 0
 2918 0134 1846     		mov	r0, r3
 2919 0136 3837     		adds	r7, r7, #56
 2920              	.LCFI99:
 2921              		.cfi_def_cfa_offset 16
 2922 0138 BD46     		mov	sp, r7
 2923              	.LCFI100:
 2924              		.cfi_def_cfa_register 13
 2925              		@ sp needed
 2926 013a B0BD     		pop	{r4, r5, r7, pc}
 2927              		.cfi_endproc
 2928              	.LFE23:
 2930              		.section	.text.MQTTSetMessageHandlerArgs,"ax",%progbits
 2931              		.align	1
 2932              		.syntax unified
 2933              		.thumb
 2934              		.thumb_func
 2935              		.fpu fpv4-sp-d16
 2937              	MQTTSetMessageHandlerArgs:
 2938              	.LFB24:
 709:C:/Users/dtjld/workspace/AIoT/src/LiteOS_Lab/iot_link/network/mqtt/paho_mqtt/paho/MQTTClient-C/src\MQTTClient.c **** 
 710:C:/Users/dtjld/workspace/AIoT/src/LiteOS_Lab/iot_link/network/mqtt/paho_mqtt/paho/MQTTClient-C/src\MQTTClient.c **** static int MQTTSetMessageHandlerArgs(MQTTClient* c, const char* topicFilter, messageHandler message
 711:C:/Users/dtjld/workspace/AIoT/src/LiteOS_Lab/iot_link/network/mqtt/paho_mqtt/paho/MQTTClient-C/src\MQTTClient.c **** {
 2939              		.loc 1 711 0
 2940              		.cfi_startproc
 2941              		@ args = 0, pretend = 0, frame = 24
 2942              		@ frame_needed = 1, uses_anonymous_args = 0
 2943 0000 80B5     		push	{r7, lr}
 2944              	.LCFI101:
ARM GAS  C:\Users\dtjld\AppData\Local\Temp\cc8xzzLd.s 			page 65


 2945              		.cfi_def_cfa_offset 8
 2946              		.cfi_offset 7, -8
 2947              		.cfi_offset 14, -4
 2948 0002 86B0     		sub	sp, sp, #24
 2949              	.LCFI102:
 2950              		.cfi_def_cfa_offset 32
 2951 0004 00AF     		add	r7, sp, #0
 2952              	.LCFI103:
 2953              		.cfi_def_cfa_register 7
 2954 0006 F860     		str	r0, [r7, #12]
 2955 0008 B960     		str	r1, [r7, #8]
 2956 000a 7A60     		str	r2, [r7, #4]
 2957 000c 3B60     		str	r3, [r7]
 712:C:/Users/dtjld/workspace/AIoT/src/LiteOS_Lab/iot_link/network/mqtt/paho_mqtt/paho/MQTTClient-C/src\MQTTClient.c ****     int rc = FAILURE;
 2958              		.loc 1 712 0
 2959 000e 4FF0FF33 		mov	r3, #-1
 2960 0012 7B61     		str	r3, [r7, #20]
 713:C:/Users/dtjld/workspace/AIoT/src/LiteOS_Lab/iot_link/network/mqtt/paho_mqtt/paho/MQTTClient-C/src\MQTTClient.c ****     int i = -1;
 2961              		.loc 1 713 0
 2962 0014 4FF0FF33 		mov	r3, #-1
 2963 0018 3B61     		str	r3, [r7, #16]
 714:C:/Users/dtjld/workspace/AIoT/src/LiteOS_Lab/iot_link/network/mqtt/paho_mqtt/paho/MQTTClient-C/src\MQTTClient.c **** 
 715:C:/Users/dtjld/workspace/AIoT/src/LiteOS_Lab/iot_link/network/mqtt/paho_mqtt/paho/MQTTClient-C/src\MQTTClient.c ****     /* first check for an existing matching slot */
 716:C:/Users/dtjld/workspace/AIoT/src/LiteOS_Lab/iot_link/network/mqtt/paho_mqtt/paho/MQTTClient-C/src\MQTTClient.c ****     for (i = 0; i < MAX_MESSAGE_HANDLERS; ++i)
 2964              		.loc 1 716 0
 2965 001a 0023     		movs	r3, #0
 2966 001c 3B61     		str	r3, [r7, #16]
 2967 001e 41E0     		b	.L196
 2968              	.L200:
 717:C:/Users/dtjld/workspace/AIoT/src/LiteOS_Lab/iot_link/network/mqtt/paho_mqtt/paho/MQTTClient-C/src\MQTTClient.c ****     {
 718:C:/Users/dtjld/workspace/AIoT/src/LiteOS_Lab/iot_link/network/mqtt/paho_mqtt/paho/MQTTClient-C/src\MQTTClient.c ****         if (c->messageHandlers[i].topicFilter != NULL && strcmp(c->messageHandlers[i].topicFilter, 
 2969              		.loc 1 718 0
 2970 0020 F968     		ldr	r1, [r7, #12]
 2971 0022 3A69     		ldr	r2, [r7, #16]
 2972 0024 1346     		mov	r3, r2
 2973 0026 5B00     		lsls	r3, r3, #1
 2974 0028 1344     		add	r3, r3, r2
 2975 002a 9B00     		lsls	r3, r3, #2
 2976 002c 0B44     		add	r3, r3, r1
 2977 002e 2833     		adds	r3, r3, #40
 2978 0030 1B68     		ldr	r3, [r3]
 2979 0032 002B     		cmp	r3, #0
 2980 0034 33D0     		beq	.L197
 2981              		.loc 1 718 0 is_stmt 0 discriminator 1
 2982 0036 F968     		ldr	r1, [r7, #12]
 2983 0038 3A69     		ldr	r2, [r7, #16]
 2984 003a 1346     		mov	r3, r2
 2985 003c 5B00     		lsls	r3, r3, #1
 2986 003e 1344     		add	r3, r3, r2
 2987 0040 9B00     		lsls	r3, r3, #2
 2988 0042 0B44     		add	r3, r3, r1
 2989 0044 2833     		adds	r3, r3, #40
 2990 0046 1B68     		ldr	r3, [r3]
 2991 0048 B968     		ldr	r1, [r7, #8]
 2992 004a 1846     		mov	r0, r3
 2993 004c FFF7FEFF 		bl	strcmp
 2994 0050 0346     		mov	r3, r0
ARM GAS  C:\Users\dtjld\AppData\Local\Temp\cc8xzzLd.s 			page 66


 2995 0052 002B     		cmp	r3, #0
 2996 0054 23D1     		bne	.L197
 719:C:/Users/dtjld/workspace/AIoT/src/LiteOS_Lab/iot_link/network/mqtt/paho_mqtt/paho/MQTTClient-C/src\MQTTClient.c ****         {
 720:C:/Users/dtjld/workspace/AIoT/src/LiteOS_Lab/iot_link/network/mqtt/paho_mqtt/paho/MQTTClient-C/src\MQTTClient.c ****             if (messageHandler == NULL) /* remove existing */
 2997              		.loc 1 720 0 is_stmt 1
 2998 0056 7B68     		ldr	r3, [r7, #4]
 2999 0058 002B     		cmp	r3, #0
 3000 005a 1DD1     		bne	.L198
 721:C:/Users/dtjld/workspace/AIoT/src/LiteOS_Lab/iot_link/network/mqtt/paho_mqtt/paho/MQTTClient-C/src\MQTTClient.c ****             {
 722:C:/Users/dtjld/workspace/AIoT/src/LiteOS_Lab/iot_link/network/mqtt/paho_mqtt/paho/MQTTClient-C/src\MQTTClient.c ****                 c->messageHandlers[i].topicFilter = NULL;
 3001              		.loc 1 722 0
 3002 005c F968     		ldr	r1, [r7, #12]
 3003 005e 3A69     		ldr	r2, [r7, #16]
 3004 0060 1346     		mov	r3, r2
 3005 0062 5B00     		lsls	r3, r3, #1
 3006 0064 1344     		add	r3, r3, r2
 3007 0066 9B00     		lsls	r3, r3, #2
 3008 0068 0B44     		add	r3, r3, r1
 3009 006a 2833     		adds	r3, r3, #40
 3010 006c 0022     		movs	r2, #0
 3011 006e 1A60     		str	r2, [r3]
 723:C:/Users/dtjld/workspace/AIoT/src/LiteOS_Lab/iot_link/network/mqtt/paho_mqtt/paho/MQTTClient-C/src\MQTTClient.c ****                 c->messageHandlers[i].fp = NULL;
 3012              		.loc 1 723 0
 3013 0070 F968     		ldr	r1, [r7, #12]
 3014 0072 3A69     		ldr	r2, [r7, #16]
 3015 0074 1346     		mov	r3, r2
 3016 0076 5B00     		lsls	r3, r3, #1
 3017 0078 1344     		add	r3, r3, r2
 3018 007a 9B00     		lsls	r3, r3, #2
 3019 007c 0B44     		add	r3, r3, r1
 3020 007e 2C33     		adds	r3, r3, #44
 3021 0080 0022     		movs	r2, #0
 3022 0082 1A60     		str	r2, [r3]
 724:C:/Users/dtjld/workspace/AIoT/src/LiteOS_Lab/iot_link/network/mqtt/paho_mqtt/paho/MQTTClient-C/src\MQTTClient.c ****                 c->messageHandlers[i].arg = NULL;
 3023              		.loc 1 724 0
 3024 0084 F968     		ldr	r1, [r7, #12]
 3025 0086 3A69     		ldr	r2, [r7, #16]
 3026 0088 1346     		mov	r3, r2
 3027 008a 5B00     		lsls	r3, r3, #1
 3028 008c 1344     		add	r3, r3, r2
 3029 008e 9B00     		lsls	r3, r3, #2
 3030 0090 0B44     		add	r3, r3, r1
 3031 0092 3033     		adds	r3, r3, #48
 3032 0094 0022     		movs	r2, #0
 3033 0096 1A60     		str	r2, [r3]
 3034              	.L198:
 725:C:/Users/dtjld/workspace/AIoT/src/LiteOS_Lab/iot_link/network/mqtt/paho_mqtt/paho/MQTTClient-C/src\MQTTClient.c ****             }
 726:C:/Users/dtjld/workspace/AIoT/src/LiteOS_Lab/iot_link/network/mqtt/paho_mqtt/paho/MQTTClient-C/src\MQTTClient.c ****             rc = MQTT_SUCCESS; /* return i when adding new subscription */
 3035              		.loc 1 726 0
 3036 0098 0023     		movs	r3, #0
 3037 009a 7B61     		str	r3, [r7, #20]
 727:C:/Users/dtjld/workspace/AIoT/src/LiteOS_Lab/iot_link/network/mqtt/paho_mqtt/paho/MQTTClient-C/src\MQTTClient.c ****             break;
 3038              		.loc 1 727 0
 3039 009c 05E0     		b	.L199
 3040              	.L197:
 716:C:/Users/dtjld/workspace/AIoT/src/LiteOS_Lab/iot_link/network/mqtt/paho_mqtt/paho/MQTTClient-C/src\MQTTClient.c ****     {
 3041              		.loc 1 716 0 discriminator 2
ARM GAS  C:\Users\dtjld\AppData\Local\Temp\cc8xzzLd.s 			page 67


 3042 009e 3B69     		ldr	r3, [r7, #16]
 3043 00a0 0133     		adds	r3, r3, #1
 3044 00a2 3B61     		str	r3, [r7, #16]
 3045              	.L196:
 716:C:/Users/dtjld/workspace/AIoT/src/LiteOS_Lab/iot_link/network/mqtt/paho_mqtt/paho/MQTTClient-C/src\MQTTClient.c ****     {
 3046              		.loc 1 716 0 is_stmt 0 discriminator 1
 3047 00a4 3B69     		ldr	r3, [r7, #16]
 3048 00a6 042B     		cmp	r3, #4
 3049 00a8 BADD     		ble	.L200
 3050              	.L199:
 728:C:/Users/dtjld/workspace/AIoT/src/LiteOS_Lab/iot_link/network/mqtt/paho_mqtt/paho/MQTTClient-C/src\MQTTClient.c ****         }
 729:C:/Users/dtjld/workspace/AIoT/src/LiteOS_Lab/iot_link/network/mqtt/paho_mqtt/paho/MQTTClient-C/src\MQTTClient.c ****     }
 730:C:/Users/dtjld/workspace/AIoT/src/LiteOS_Lab/iot_link/network/mqtt/paho_mqtt/paho/MQTTClient-C/src\MQTTClient.c ****     /* if no existing, look for empty slot (unless we are removing) */
 731:C:/Users/dtjld/workspace/AIoT/src/LiteOS_Lab/iot_link/network/mqtt/paho_mqtt/paho/MQTTClient-C/src\MQTTClient.c ****     if (messageHandler != NULL)
 3051              		.loc 1 731 0 is_stmt 1
 3052 00aa 7B68     		ldr	r3, [r7, #4]
 3053 00ac 002B     		cmp	r3, #0
 3054 00ae 3BD0     		beq	.L201
 732:C:/Users/dtjld/workspace/AIoT/src/LiteOS_Lab/iot_link/network/mqtt/paho_mqtt/paho/MQTTClient-C/src\MQTTClient.c ****     {
 733:C:/Users/dtjld/workspace/AIoT/src/LiteOS_Lab/iot_link/network/mqtt/paho_mqtt/paho/MQTTClient-C/src\MQTTClient.c ****         if (rc == FAILURE)
 3055              		.loc 1 733 0
 3056 00b0 7B69     		ldr	r3, [r7, #20]
 3057 00b2 B3F1FF3F 		cmp	r3, #-1
 3058 00b6 16D1     		bne	.L202
 734:C:/Users/dtjld/workspace/AIoT/src/LiteOS_Lab/iot_link/network/mqtt/paho_mqtt/paho/MQTTClient-C/src\MQTTClient.c ****         {
 735:C:/Users/dtjld/workspace/AIoT/src/LiteOS_Lab/iot_link/network/mqtt/paho_mqtt/paho/MQTTClient-C/src\MQTTClient.c ****             for (i = 0; i < MAX_MESSAGE_HANDLERS; ++i)
 3059              		.loc 1 735 0
 3060 00b8 0023     		movs	r3, #0
 3061 00ba 3B61     		str	r3, [r7, #16]
 3062 00bc 10E0     		b	.L203
 3063              	.L205:
 736:C:/Users/dtjld/workspace/AIoT/src/LiteOS_Lab/iot_link/network/mqtt/paho_mqtt/paho/MQTTClient-C/src\MQTTClient.c ****             {
 737:C:/Users/dtjld/workspace/AIoT/src/LiteOS_Lab/iot_link/network/mqtt/paho_mqtt/paho/MQTTClient-C/src\MQTTClient.c ****                 if (c->messageHandlers[i].topicFilter == NULL)
 3064              		.loc 1 737 0
 3065 00be F968     		ldr	r1, [r7, #12]
 3066 00c0 3A69     		ldr	r2, [r7, #16]
 3067 00c2 1346     		mov	r3, r2
 3068 00c4 5B00     		lsls	r3, r3, #1
 3069 00c6 1344     		add	r3, r3, r2
 3070 00c8 9B00     		lsls	r3, r3, #2
 3071 00ca 0B44     		add	r3, r3, r1
 3072 00cc 2833     		adds	r3, r3, #40
 3073 00ce 1B68     		ldr	r3, [r3]
 3074 00d0 002B     		cmp	r3, #0
 3075 00d2 02D1     		bne	.L204
 738:C:/Users/dtjld/workspace/AIoT/src/LiteOS_Lab/iot_link/network/mqtt/paho_mqtt/paho/MQTTClient-C/src\MQTTClient.c ****                 {
 739:C:/Users/dtjld/workspace/AIoT/src/LiteOS_Lab/iot_link/network/mqtt/paho_mqtt/paho/MQTTClient-C/src\MQTTClient.c ****                     rc = MQTT_SUCCESS;
 3076              		.loc 1 739 0
 3077 00d4 0023     		movs	r3, #0
 3078 00d6 7B61     		str	r3, [r7, #20]
 740:C:/Users/dtjld/workspace/AIoT/src/LiteOS_Lab/iot_link/network/mqtt/paho_mqtt/paho/MQTTClient-C/src\MQTTClient.c ****                     break;
 3079              		.loc 1 740 0
 3080 00d8 05E0     		b	.L202
 3081              	.L204:
 735:C:/Users/dtjld/workspace/AIoT/src/LiteOS_Lab/iot_link/network/mqtt/paho_mqtt/paho/MQTTClient-C/src\MQTTClient.c ****             {
 3082              		.loc 1 735 0 discriminator 2
 3083 00da 3B69     		ldr	r3, [r7, #16]
ARM GAS  C:\Users\dtjld\AppData\Local\Temp\cc8xzzLd.s 			page 68


 3084 00dc 0133     		adds	r3, r3, #1
 3085 00de 3B61     		str	r3, [r7, #16]
 3086              	.L203:
 735:C:/Users/dtjld/workspace/AIoT/src/LiteOS_Lab/iot_link/network/mqtt/paho_mqtt/paho/MQTTClient-C/src\MQTTClient.c ****             {
 3087              		.loc 1 735 0 is_stmt 0 discriminator 1
 3088 00e0 3B69     		ldr	r3, [r7, #16]
 3089 00e2 042B     		cmp	r3, #4
 3090 00e4 EBDD     		ble	.L205
 3091              	.L202:
 741:C:/Users/dtjld/workspace/AIoT/src/LiteOS_Lab/iot_link/network/mqtt/paho_mqtt/paho/MQTTClient-C/src\MQTTClient.c ****                 }
 742:C:/Users/dtjld/workspace/AIoT/src/LiteOS_Lab/iot_link/network/mqtt/paho_mqtt/paho/MQTTClient-C/src\MQTTClient.c ****             }
 743:C:/Users/dtjld/workspace/AIoT/src/LiteOS_Lab/iot_link/network/mqtt/paho_mqtt/paho/MQTTClient-C/src\MQTTClient.c ****         }
 744:C:/Users/dtjld/workspace/AIoT/src/LiteOS_Lab/iot_link/network/mqtt/paho_mqtt/paho/MQTTClient-C/src\MQTTClient.c ****         if (i < MAX_MESSAGE_HANDLERS)
 3092              		.loc 1 744 0 is_stmt 1
 3093 00e6 3B69     		ldr	r3, [r7, #16]
 3094 00e8 042B     		cmp	r3, #4
 3095 00ea 1DDC     		bgt	.L201
 745:C:/Users/dtjld/workspace/AIoT/src/LiteOS_Lab/iot_link/network/mqtt/paho_mqtt/paho/MQTTClient-C/src\MQTTClient.c ****         {
 746:C:/Users/dtjld/workspace/AIoT/src/LiteOS_Lab/iot_link/network/mqtt/paho_mqtt/paho/MQTTClient-C/src\MQTTClient.c ****             c->messageHandlers[i].topicFilter = topicFilter;
 3096              		.loc 1 746 0
 3097 00ec F968     		ldr	r1, [r7, #12]
 3098 00ee 3A69     		ldr	r2, [r7, #16]
 3099 00f0 1346     		mov	r3, r2
 3100 00f2 5B00     		lsls	r3, r3, #1
 3101 00f4 1344     		add	r3, r3, r2
 3102 00f6 9B00     		lsls	r3, r3, #2
 3103 00f8 0B44     		add	r3, r3, r1
 3104 00fa 2833     		adds	r3, r3, #40
 3105 00fc BA68     		ldr	r2, [r7, #8]
 3106 00fe 1A60     		str	r2, [r3]
 747:C:/Users/dtjld/workspace/AIoT/src/LiteOS_Lab/iot_link/network/mqtt/paho_mqtt/paho/MQTTClient-C/src\MQTTClient.c ****             c->messageHandlers[i].fp = messageHandler;
 3107              		.loc 1 747 0
 3108 0100 F968     		ldr	r1, [r7, #12]
 3109 0102 3A69     		ldr	r2, [r7, #16]
 3110 0104 1346     		mov	r3, r2
 3111 0106 5B00     		lsls	r3, r3, #1
 3112 0108 1344     		add	r3, r3, r2
 3113 010a 9B00     		lsls	r3, r3, #2
 3114 010c 0B44     		add	r3, r3, r1
 3115 010e 2C33     		adds	r3, r3, #44
 3116 0110 7A68     		ldr	r2, [r7, #4]
 3117 0112 1A60     		str	r2, [r3]
 748:C:/Users/dtjld/workspace/AIoT/src/LiteOS_Lab/iot_link/network/mqtt/paho_mqtt/paho/MQTTClient-C/src\MQTTClient.c ****             c->messageHandlers[i].arg = arg;
 3118              		.loc 1 748 0
 3119 0114 F968     		ldr	r1, [r7, #12]
 3120 0116 3A69     		ldr	r2, [r7, #16]
 3121 0118 1346     		mov	r3, r2
 3122 011a 5B00     		lsls	r3, r3, #1
 3123 011c 1344     		add	r3, r3, r2
 3124 011e 9B00     		lsls	r3, r3, #2
 3125 0120 0B44     		add	r3, r3, r1
 3126 0122 3033     		adds	r3, r3, #48
 3127 0124 3A68     		ldr	r2, [r7]
 3128 0126 1A60     		str	r2, [r3]
 3129              	.L201:
 749:C:/Users/dtjld/workspace/AIoT/src/LiteOS_Lab/iot_link/network/mqtt/paho_mqtt/paho/MQTTClient-C/src\MQTTClient.c **** 
 750:C:/Users/dtjld/workspace/AIoT/src/LiteOS_Lab/iot_link/network/mqtt/paho_mqtt/paho/MQTTClient-C/src\MQTTClient.c ****         }
ARM GAS  C:\Users\dtjld\AppData\Local\Temp\cc8xzzLd.s 			page 69


 751:C:/Users/dtjld/workspace/AIoT/src/LiteOS_Lab/iot_link/network/mqtt/paho_mqtt/paho/MQTTClient-C/src\MQTTClient.c ****     }
 752:C:/Users/dtjld/workspace/AIoT/src/LiteOS_Lab/iot_link/network/mqtt/paho_mqtt/paho/MQTTClient-C/src\MQTTClient.c ****     return rc;
 3130              		.loc 1 752 0
 3131 0128 7B69     		ldr	r3, [r7, #20]
 753:C:/Users/dtjld/workspace/AIoT/src/LiteOS_Lab/iot_link/network/mqtt/paho_mqtt/paho/MQTTClient-C/src\MQTTClient.c **** }
 3132              		.loc 1 753 0
 3133 012a 1846     		mov	r0, r3
 3134 012c 1837     		adds	r7, r7, #24
 3135              	.LCFI104:
 3136              		.cfi_def_cfa_offset 8
 3137 012e BD46     		mov	sp, r7
 3138              	.LCFI105:
 3139              		.cfi_def_cfa_register 13
 3140              		@ sp needed
 3141 0130 80BD     		pop	{r7, pc}
 3142              		.cfi_endproc
 3143              	.LFE24:
 3145              		.section	.text.MQTTSubscribeWithResultsArgs,"ax",%progbits
 3146              		.align	1
 3147              		.global	MQTTSubscribeWithResultsArgs
 3148              		.syntax unified
 3149              		.thumb
 3150              		.thumb_func
 3151              		.fpu fpv4-sp-d16
 3153              	MQTTSubscribeWithResultsArgs:
 3154              	.LFB25:
 754:C:/Users/dtjld/workspace/AIoT/src/LiteOS_Lab/iot_link/network/mqtt/paho_mqtt/paho/MQTTClient-C/src\MQTTClient.c **** 
 755:C:/Users/dtjld/workspace/AIoT/src/LiteOS_Lab/iot_link/network/mqtt/paho_mqtt/paho/MQTTClient-C/src\MQTTClient.c **** 
 756:C:/Users/dtjld/workspace/AIoT/src/LiteOS_Lab/iot_link/network/mqtt/paho_mqtt/paho/MQTTClient-C/src\MQTTClient.c **** int MQTTSubscribeWithResultsArgs(MQTTClient *c, const char *topicFilter, enum QoS qos,
 757:C:/Users/dtjld/workspace/AIoT/src/LiteOS_Lab/iot_link/network/mqtt/paho_mqtt/paho/MQTTClient-C/src\MQTTClient.c ****                              messageHandler messageHandler, MQTTSubackData *data,void *arg)
 758:C:/Users/dtjld/workspace/AIoT/src/LiteOS_Lab/iot_link/network/mqtt/paho_mqtt/paho/MQTTClient-C/src\MQTTClient.c **** {
 3155              		.loc 1 758 0
 3156              		.cfi_startproc
 3157              		@ args = 8, pretend = 0, frame = 56
 3158              		@ frame_needed = 1, uses_anonymous_args = 0
 3159 0000 B0B5     		push	{r4, r5, r7, lr}
 3160              	.LCFI106:
 3161              		.cfi_def_cfa_offset 16
 3162              		.cfi_offset 4, -16
 3163              		.cfi_offset 5, -12
 3164              		.cfi_offset 7, -8
 3165              		.cfi_offset 14, -4
 3166 0002 92B0     		sub	sp, sp, #72
 3167              	.LCFI107:
 3168              		.cfi_def_cfa_offset 88
 3169 0004 04AF     		add	r7, sp, #16
 3170              	.LCFI108:
 3171              		.cfi_def_cfa 7, 72
 3172 0006 F860     		str	r0, [r7, #12]
 3173 0008 B960     		str	r1, [r7, #8]
 3174 000a 3B60     		str	r3, [r7]
 3175 000c 1346     		mov	r3, r2
 3176 000e FB71     		strb	r3, [r7, #7]
 759:C:/Users/dtjld/workspace/AIoT/src/LiteOS_Lab/iot_link/network/mqtt/paho_mqtt/paho/MQTTClient-C/src\MQTTClient.c ****     int rc = FAILURE;
 3177              		.loc 1 759 0
 3178 0010 4FF0FF33 		mov	r3, #-1
 3179 0014 7B63     		str	r3, [r7, #52]
ARM GAS  C:\Users\dtjld\AppData\Local\Temp\cc8xzzLd.s 			page 70


 760:C:/Users/dtjld/workspace/AIoT/src/LiteOS_Lab/iot_link/network/mqtt/paho_mqtt/paho/MQTTClient-C/src\MQTTClient.c ****     Timer timer;
 761:C:/Users/dtjld/workspace/AIoT/src/LiteOS_Lab/iot_link/network/mqtt/paho_mqtt/paho/MQTTClient-C/src\MQTTClient.c ****     int len = 0;
 3180              		.loc 1 761 0
 3181 0016 0023     		movs	r3, #0
 3182 0018 3B63     		str	r3, [r7, #48]
 762:C:/Users/dtjld/workspace/AIoT/src/LiteOS_Lab/iot_link/network/mqtt/paho_mqtt/paho/MQTTClient-C/src\MQTTClient.c ****     MQTTString topic = MQTTString_initializer;
 3183              		.loc 1 762 0
 3184 001a 0023     		movs	r3, #0
 3185 001c FB61     		str	r3, [r7, #28]
 3186 001e 0023     		movs	r3, #0
 3187 0020 3B62     		str	r3, [r7, #32]
 3188 0022 0023     		movs	r3, #0
 3189 0024 7B62     		str	r3, [r7, #36]
 763:C:/Users/dtjld/workspace/AIoT/src/LiteOS_Lab/iot_link/network/mqtt/paho_mqtt/paho/MQTTClient-C/src\MQTTClient.c ****     topic.cstring = (char *)topicFilter;
 3190              		.loc 1 763 0
 3191 0026 BB68     		ldr	r3, [r7, #8]
 3192 0028 FB61     		str	r3, [r7, #28]
 764:C:/Users/dtjld/workspace/AIoT/src/LiteOS_Lab/iot_link/network/mqtt/paho_mqtt/paho/MQTTClient-C/src\MQTTClient.c **** 
 765:C:/Users/dtjld/workspace/AIoT/src/LiteOS_Lab/iot_link/network/mqtt/paho_mqtt/paho/MQTTClient-C/src\MQTTClient.c **** #if defined(MQTT_TASK)
 766:C:/Users/dtjld/workspace/AIoT/src/LiteOS_Lab/iot_link/network/mqtt/paho_mqtt/paho/MQTTClient-C/src\MQTTClient.c ****     MutexLock(&c->mutex);
 3193              		.loc 1 766 0
 3194 002a FB68     		ldr	r3, [r7, #12]
 3195 002c D3F88030 		ldr	r3, [r3, #128]
 3196 0030 1846     		mov	r0, r3
 3197 0032 FFF7FEFF 		bl	osal_mutex_lock
 3198 0036 0346     		mov	r3, r0
 3199 0038 012B     		cmp	r3, #1
 767:C:/Users/dtjld/workspace/AIoT/src/LiteOS_Lab/iot_link/network/mqtt/paho_mqtt/paho/MQTTClient-C/src\MQTTClient.c **** #endif
 768:C:/Users/dtjld/workspace/AIoT/src/LiteOS_Lab/iot_link/network/mqtt/paho_mqtt/paho/MQTTClient-C/src\MQTTClient.c ****     if (!c->isconnected)
 3200              		.loc 1 768 0
 3201 003a FB68     		ldr	r3, [r7, #12]
 3202 003c 1B6A     		ldr	r3, [r3, #32]
 3203 003e 002B     		cmp	r3, #0
 3204 0040 64D0     		beq	.L220
 769:C:/Users/dtjld/workspace/AIoT/src/LiteOS_Lab/iot_link/network/mqtt/paho_mqtt/paho/MQTTClient-C/src\MQTTClient.c ****         goto exit;
 770:C:/Users/dtjld/workspace/AIoT/src/LiteOS_Lab/iot_link/network/mqtt/paho_mqtt/paho/MQTTClient-C/src\MQTTClient.c **** 
 771:C:/Users/dtjld/workspace/AIoT/src/LiteOS_Lab/iot_link/network/mqtt/paho_mqtt/paho/MQTTClient-C/src\MQTTClient.c ****     TimerInit(&timer);
 3205              		.loc 1 771 0
 3206 0042 07F12803 		add	r3, r7, #40
 3207 0046 1846     		mov	r0, r3
 3208 0048 FFF7FEFF 		bl	osal_loop_timer_init
 772:C:/Users/dtjld/workspace/AIoT/src/LiteOS_Lab/iot_link/network/mqtt/paho_mqtt/paho/MQTTClient-C/src\MQTTClient.c ****     TimerCountdownMS(&timer, c->command_timeout_ms);
 3209              		.loc 1 772 0
 3210 004c FB68     		ldr	r3, [r7, #12]
 3211 004e 5A68     		ldr	r2, [r3, #4]
 3212 0050 07F12803 		add	r3, r7, #40
 3213 0054 1146     		mov	r1, r2
 3214 0056 1846     		mov	r0, r3
 3215 0058 FFF7FEFF 		bl	osal_loop_timer_count_downms
 773:C:/Users/dtjld/workspace/AIoT/src/LiteOS_Lab/iot_link/network/mqtt/paho_mqtt/paho/MQTTClient-C/src\MQTTClient.c **** 
 774:C:/Users/dtjld/workspace/AIoT/src/LiteOS_Lab/iot_link/network/mqtt/paho_mqtt/paho/MQTTClient-C/src\MQTTClient.c ****     len = MQTTSerialize_subscribe(c->buf, c->buf_size, 0, getNextPacketId(c), 1, &topic, (int *)&qo
 3216              		.loc 1 774 0
 3217 005c FB68     		ldr	r3, [r7, #12]
 3218 005e 1C69     		ldr	r4, [r3, #16]
 3219 0060 FB68     		ldr	r3, [r7, #12]
 3220 0062 9B68     		ldr	r3, [r3, #8]
 3221 0064 1D46     		mov	r5, r3
ARM GAS  C:\Users\dtjld\AppData\Local\Temp\cc8xzzLd.s 			page 71


 3222 0066 F868     		ldr	r0, [r7, #12]
 3223 0068 FFF7FEFF 		bl	getNextPacketId
 3224 006c 0346     		mov	r3, r0
 3225 006e 9AB2     		uxth	r2, r3
 3226 0070 FB1D     		adds	r3, r7, #7
 3227 0072 0293     		str	r3, [sp, #8]
 3228 0074 07F11C03 		add	r3, r7, #28
 3229 0078 0193     		str	r3, [sp, #4]
 3230 007a 0123     		movs	r3, #1
 3231 007c 0093     		str	r3, [sp]
 3232 007e 1346     		mov	r3, r2
 3233 0080 0022     		movs	r2, #0
 3234 0082 2946     		mov	r1, r5
 3235 0084 2046     		mov	r0, r4
 3236 0086 FFF7FEFF 		bl	MQTTSerialize_subscribe
 3237 008a 3863     		str	r0, [r7, #48]
 775:C:/Users/dtjld/workspace/AIoT/src/LiteOS_Lab/iot_link/network/mqtt/paho_mqtt/paho/MQTTClient-C/src\MQTTClient.c ****     if (len <= 0)
 3238              		.loc 1 775 0
 3239 008c 3B6B     		ldr	r3, [r7, #48]
 3240 008e 002B     		cmp	r3, #0
 3241 0090 3EDD     		ble	.L221
 776:C:/Users/dtjld/workspace/AIoT/src/LiteOS_Lab/iot_link/network/mqtt/paho_mqtt/paho/MQTTClient-C/src\MQTTClient.c ****         goto exit;
 777:C:/Users/dtjld/workspace/AIoT/src/LiteOS_Lab/iot_link/network/mqtt/paho_mqtt/paho/MQTTClient-C/src\MQTTClient.c ****     if ((rc = sendPacket(c, len, &timer)) != MQTT_SUCCESS) // send the subscribe packet
 3242              		.loc 1 777 0
 3243 0092 07F12803 		add	r3, r7, #40
 3244 0096 1A46     		mov	r2, r3
 3245 0098 396B     		ldr	r1, [r7, #48]
 3246 009a F868     		ldr	r0, [r7, #12]
 3247 009c FFF7FEFF 		bl	sendPacket
 3248 00a0 7863     		str	r0, [r7, #52]
 3249 00a2 7B6B     		ldr	r3, [r7, #52]
 3250 00a4 002B     		cmp	r3, #0
 3251 00a6 35D1     		bne	.L222
 778:C:/Users/dtjld/workspace/AIoT/src/LiteOS_Lab/iot_link/network/mqtt/paho_mqtt/paho/MQTTClient-C/src\MQTTClient.c ****         goto exit;             // there was a problem
 779:C:/Users/dtjld/workspace/AIoT/src/LiteOS_Lab/iot_link/network/mqtt/paho_mqtt/paho/MQTTClient-C/src\MQTTClient.c **** 
 780:C:/Users/dtjld/workspace/AIoT/src/LiteOS_Lab/iot_link/network/mqtt/paho_mqtt/paho/MQTTClient-C/src\MQTTClient.c ****     if (waitfor(c, SUBACK, &timer) == SUBACK)      // wait for suback
 3252              		.loc 1 780 0
 3253 00a8 07F12803 		add	r3, r7, #40
 3254 00ac 1A46     		mov	r2, r3
 3255 00ae 0921     		movs	r1, #9
 3256 00b0 F868     		ldr	r0, [r7, #12]
 3257 00b2 FFF7FEFF 		bl	waitfor
 3258 00b6 0346     		mov	r3, r0
 3259 00b8 092B     		cmp	r3, #9
 3260 00ba 23D1     		bne	.L214
 3261              	.LBB13:
 781:C:/Users/dtjld/workspace/AIoT/src/LiteOS_Lab/iot_link/network/mqtt/paho_mqtt/paho/MQTTClient-C/src\MQTTClient.c ****     {
 782:C:/Users/dtjld/workspace/AIoT/src/LiteOS_Lab/iot_link/network/mqtt/paho_mqtt/paho/MQTTClient-C/src\MQTTClient.c ****         int count = 0;
 3262              		.loc 1 782 0
 3263 00bc 0023     		movs	r3, #0
 3264 00be BB61     		str	r3, [r7, #24]
 783:C:/Users/dtjld/workspace/AIoT/src/LiteOS_Lab/iot_link/network/mqtt/paho_mqtt/paho/MQTTClient-C/src\MQTTClient.c ****         unsigned short mypacketid;
 784:C:/Users/dtjld/workspace/AIoT/src/LiteOS_Lab/iot_link/network/mqtt/paho_mqtt/paho/MQTTClient-C/src\MQTTClient.c ****         data->grantedQoS = QOS0;
 3265              		.loc 1 784 0
 3266 00c0 BB6C     		ldr	r3, [r7, #72]
 3267 00c2 0022     		movs	r2, #0
 3268 00c4 1A70     		strb	r2, [r3]
ARM GAS  C:\Users\dtjld\AppData\Local\Temp\cc8xzzLd.s 			page 72


 785:C:/Users/dtjld/workspace/AIoT/src/LiteOS_Lab/iot_link/network/mqtt/paho_mqtt/paho/MQTTClient-C/src\MQTTClient.c ****         if (MQTTDeserialize_suback(&mypacketid, 1, &count, (int *)&data->grantedQoS, c->readbuf, c-
 3269              		.loc 1 785 0
 3270 00c6 B96C     		ldr	r1, [r7, #72]
 3271 00c8 FB68     		ldr	r3, [r7, #12]
 3272 00ca 5B69     		ldr	r3, [r3, #20]
 3273 00cc FA68     		ldr	r2, [r7, #12]
 3274 00ce D268     		ldr	r2, [r2, #12]
 3275 00d0 1446     		mov	r4, r2
 3276 00d2 07F11802 		add	r2, r7, #24
 3277 00d6 07F11600 		add	r0, r7, #22
 3278 00da 0194     		str	r4, [sp, #4]
 3279 00dc 0093     		str	r3, [sp]
 3280 00de 0B46     		mov	r3, r1
 3281 00e0 0121     		movs	r1, #1
 3282 00e2 FFF7FEFF 		bl	MQTTDeserialize_suback
 3283 00e6 0346     		mov	r3, r0
 3284 00e8 012B     		cmp	r3, #1
 3285 00ea 14D1     		bne	.L211
 786:C:/Users/dtjld/workspace/AIoT/src/LiteOS_Lab/iot_link/network/mqtt/paho_mqtt/paho/MQTTClient-C/src\MQTTClient.c ****         {
 787:C:/Users/dtjld/workspace/AIoT/src/LiteOS_Lab/iot_link/network/mqtt/paho_mqtt/paho/MQTTClient-C/src\MQTTClient.c ****             if (data->grantedQoS != 0x80)
 3286              		.loc 1 787 0
 3287 00ec BB6C     		ldr	r3, [r7, #72]
 3288 00ee 1B78     		ldrb	r3, [r3]	@ zero_extendqisi2
 3289 00f0 802B     		cmp	r3, #128
 3290 00f2 10D0     		beq	.L211
 788:C:/Users/dtjld/workspace/AIoT/src/LiteOS_Lab/iot_link/network/mqtt/paho_mqtt/paho/MQTTClient-C/src\MQTTClient.c ****                 rc = MQTTSetMessageHandlerArgs(c, topicFilter, messageHandler,arg);
 3291              		.loc 1 788 0
 3292 00f4 FB6C     		ldr	r3, [r7, #76]
 3293 00f6 3A68     		ldr	r2, [r7]
 3294 00f8 B968     		ldr	r1, [r7, #8]
 3295 00fa F868     		ldr	r0, [r7, #12]
 3296 00fc FFF7FEFF 		bl	MQTTSetMessageHandlerArgs
 3297 0100 7863     		str	r0, [r7, #52]
 3298 0102 08E0     		b	.L211
 3299              	.L214:
 3300              	.LBE13:
 789:C:/Users/dtjld/workspace/AIoT/src/LiteOS_Lab/iot_link/network/mqtt/paho_mqtt/paho/MQTTClient-C/src\MQTTClient.c ****         }
 790:C:/Users/dtjld/workspace/AIoT/src/LiteOS_Lab/iot_link/network/mqtt/paho_mqtt/paho/MQTTClient-C/src\MQTTClient.c ****     }
 791:C:/Users/dtjld/workspace/AIoT/src/LiteOS_Lab/iot_link/network/mqtt/paho_mqtt/paho/MQTTClient-C/src\MQTTClient.c ****     else
 792:C:/Users/dtjld/workspace/AIoT/src/LiteOS_Lab/iot_link/network/mqtt/paho_mqtt/paho/MQTTClient-C/src\MQTTClient.c ****         rc = FAILURE;
 3301              		.loc 1 792 0
 3302 0104 4FF0FF33 		mov	r3, #-1
 3303 0108 7B63     		str	r3, [r7, #52]
 3304 010a 04E0     		b	.L211
 3305              	.L220:
 769:C:/Users/dtjld/workspace/AIoT/src/LiteOS_Lab/iot_link/network/mqtt/paho_mqtt/paho/MQTTClient-C/src\MQTTClient.c **** 
 3306              		.loc 1 769 0
 3307 010c 00BF     		nop
 3308 010e 02E0     		b	.L211
 3309              	.L221:
 776:C:/Users/dtjld/workspace/AIoT/src/LiteOS_Lab/iot_link/network/mqtt/paho_mqtt/paho/MQTTClient-C/src\MQTTClient.c ****     if ((rc = sendPacket(c, len, &timer)) != MQTT_SUCCESS) // send the subscribe packet
 3310              		.loc 1 776 0
 3311 0110 00BF     		nop
 3312 0112 00E0     		b	.L211
 3313              	.L222:
 778:C:/Users/dtjld/workspace/AIoT/src/LiteOS_Lab/iot_link/network/mqtt/paho_mqtt/paho/MQTTClient-C/src\MQTTClient.c **** 
 3314              		.loc 1 778 0
ARM GAS  C:\Users\dtjld\AppData\Local\Temp\cc8xzzLd.s 			page 73


 3315 0114 00BF     		nop
 3316              	.L211:
 793:C:/Users/dtjld/workspace/AIoT/src/LiteOS_Lab/iot_link/network/mqtt/paho_mqtt/paho/MQTTClient-C/src\MQTTClient.c **** 
 794:C:/Users/dtjld/workspace/AIoT/src/LiteOS_Lab/iot_link/network/mqtt/paho_mqtt/paho/MQTTClient-C/src\MQTTClient.c **** exit:
 795:C:/Users/dtjld/workspace/AIoT/src/LiteOS_Lab/iot_link/network/mqtt/paho_mqtt/paho/MQTTClient-C/src\MQTTClient.c ****     if (rc == FAILURE)
 3317              		.loc 1 795 0
 3318 0116 7B6B     		ldr	r3, [r7, #52]
 3319 0118 B3F1FF3F 		cmp	r3, #-1
 3320 011c 02D1     		bne	.L216
 796:C:/Users/dtjld/workspace/AIoT/src/LiteOS_Lab/iot_link/network/mqtt/paho_mqtt/paho/MQTTClient-C/src\MQTTClient.c ****         MQTTCloseSession(c);
 3321              		.loc 1 796 0
 3322 011e F868     		ldr	r0, [r7, #12]
 3323 0120 FFF7FEFF 		bl	MQTTCloseSession
 3324              	.L216:
 797:C:/Users/dtjld/workspace/AIoT/src/LiteOS_Lab/iot_link/network/mqtt/paho_mqtt/paho/MQTTClient-C/src\MQTTClient.c **** #if defined(MQTT_TASK)
 798:C:/Users/dtjld/workspace/AIoT/src/LiteOS_Lab/iot_link/network/mqtt/paho_mqtt/paho/MQTTClient-C/src\MQTTClient.c **** 	  MutexUnlock(&c->mutex);
 3325              		.loc 1 798 0
 3326 0124 FB68     		ldr	r3, [r7, #12]
 3327 0126 D3F88030 		ldr	r3, [r3, #128]
 3328 012a 1846     		mov	r0, r3
 3329 012c FFF7FEFF 		bl	osal_mutex_unlock
 3330 0130 0346     		mov	r3, r0
 3331 0132 012B     		cmp	r3, #1
 799:C:/Users/dtjld/workspace/AIoT/src/LiteOS_Lab/iot_link/network/mqtt/paho_mqtt/paho/MQTTClient-C/src\MQTTClient.c **** #endif
 800:C:/Users/dtjld/workspace/AIoT/src/LiteOS_Lab/iot_link/network/mqtt/paho_mqtt/paho/MQTTClient-C/src\MQTTClient.c ****     return rc;
 3332              		.loc 1 800 0
 3333 0134 7B6B     		ldr	r3, [r7, #52]
 801:C:/Users/dtjld/workspace/AIoT/src/LiteOS_Lab/iot_link/network/mqtt/paho_mqtt/paho/MQTTClient-C/src\MQTTClient.c **** }
 3334              		.loc 1 801 0
 3335 0136 1846     		mov	r0, r3
 3336 0138 3837     		adds	r7, r7, #56
 3337              	.LCFI109:
