ARM GAS  C:\Users\dtjld\AppData\Local\Temp\ccKooWlR.s 			page 1


   1              		.cpu cortex-m4
   2              		.eabi_attribute 27, 1
   3              		.eabi_attribute 28, 1
   4              		.eabi_attribute 20, 1
   5              		.eabi_attribute 21, 1
   6              		.eabi_attribute 23, 3
   7              		.eabi_attribute 24, 1
   8              		.eabi_attribute 25, 1
   9              		.eabi_attribute 26, 1
  10              		.eabi_attribute 30, 6
  11              		.eabi_attribute 34, 1
  12              		.eabi_attribute 18, 4
  13              		.file	"object_binary_app_data_container.c"
  14              		.text
  15              	.Ltext0:
  16              		.cfi_sections	.debug_frame
  17              		.section	.text.get_resource_uri,"ax",%progbits
  18              		.align	1
  19              		.syntax unified
  20              		.thumb
  21              		.thumb_func
  22              		.fpu fpv4-sp-d16
  24              	get_resource_uri:
  25              	.LFB13:
  26              		.file 1 "C:/Users/dtjld/Desktop/AIoT_software/LiteOS_Lab_overseas/LiteOS_Lab/iot_link/oc/oc_lwm2m/
   1:C:/Users/dtjld/Desktop/AIoT_software/LiteOS_Lab_overseas/LiteOS_Lab/iot_link/oc/oc_lwm2m/atiny_lwm2m\atiny_rpt.h **** /*----------------------------------------------------------------------------
   2:C:/Users/dtjld/Desktop/AIoT_software/LiteOS_Lab_overseas/LiteOS_Lab/iot_link/oc/oc_lwm2m/atiny_lwm2m\atiny_rpt.h ****  * Copyright (c) <2016-2018>, <Huawei Technologies Co., Ltd>
   3:C:/Users/dtjld/Desktop/AIoT_software/LiteOS_Lab_overseas/LiteOS_Lab/iot_link/oc/oc_lwm2m/atiny_lwm2m\atiny_rpt.h ****  * All rights reserved.
   4:C:/Users/dtjld/Desktop/AIoT_software/LiteOS_Lab_overseas/LiteOS_Lab/iot_link/oc/oc_lwm2m/atiny_lwm2m\atiny_rpt.h ****  * Redistribution and use in source and binary forms, with or without modification,
   5:C:/Users/dtjld/Desktop/AIoT_software/LiteOS_Lab_overseas/LiteOS_Lab/iot_link/oc/oc_lwm2m/atiny_lwm2m\atiny_rpt.h ****  * are permitted provided that the following conditions are met:
   6:C:/Users/dtjld/Desktop/AIoT_software/LiteOS_Lab_overseas/LiteOS_Lab/iot_link/oc/oc_lwm2m/atiny_lwm2m\atiny_rpt.h ****  * 1. Redistributions of source code must retain the above copyright notice, this list of
   7:C:/Users/dtjld/Desktop/AIoT_software/LiteOS_Lab_overseas/LiteOS_Lab/iot_link/oc/oc_lwm2m/atiny_lwm2m\atiny_rpt.h ****  * conditions and the following disclaimer.
   8:C:/Users/dtjld/Desktop/AIoT_software/LiteOS_Lab_overseas/LiteOS_Lab/iot_link/oc/oc_lwm2m/atiny_lwm2m\atiny_rpt.h ****  * 2. Redistributions in binary form must reproduce the above copyright notice, this list
   9:C:/Users/dtjld/Desktop/AIoT_software/LiteOS_Lab_overseas/LiteOS_Lab/iot_link/oc/oc_lwm2m/atiny_lwm2m\atiny_rpt.h ****  * of conditions and the following disclaimer in the documentation and/or other materials
  10:C:/Users/dtjld/Desktop/AIoT_software/LiteOS_Lab_overseas/LiteOS_Lab/iot_link/oc/oc_lwm2m/atiny_lwm2m\atiny_rpt.h ****  * provided with the distribution.
  11:C:/Users/dtjld/Desktop/AIoT_software/LiteOS_Lab_overseas/LiteOS_Lab/iot_link/oc/oc_lwm2m/atiny_lwm2m\atiny_rpt.h ****  * 3. Neither the name of the copyright holder nor the names of its contributors may be used
  12:C:/Users/dtjld/Desktop/AIoT_software/LiteOS_Lab_overseas/LiteOS_Lab/iot_link/oc/oc_lwm2m/atiny_lwm2m\atiny_rpt.h ****  * to endorse or promote products derived from this software without specific prior written
  13:C:/Users/dtjld/Desktop/AIoT_software/LiteOS_Lab_overseas/LiteOS_Lab/iot_link/oc/oc_lwm2m/atiny_lwm2m\atiny_rpt.h ****  * permission.
  14:C:/Users/dtjld/Desktop/AIoT_software/LiteOS_Lab_overseas/LiteOS_Lab/iot_link/oc/oc_lwm2m/atiny_lwm2m\atiny_rpt.h ****  * THIS SOFTWARE IS PROVIDED BY THE COPYRIGHT HOLDERS AND CONTRIBUTORS
  15:C:/Users/dtjld/Desktop/AIoT_software/LiteOS_Lab_overseas/LiteOS_Lab/iot_link/oc/oc_lwm2m/atiny_lwm2m\atiny_rpt.h ****  * "AS IS" AND ANY EXPRESS OR IMPLIED WARRANTIES, INCLUDING, BUT NOT LIMITED TO,
  16:C:/Users/dtjld/Desktop/AIoT_software/LiteOS_Lab_overseas/LiteOS_Lab/iot_link/oc/oc_lwm2m/atiny_lwm2m\atiny_rpt.h ****  * THE IMPLIED WARRANTIES OF MERCHANTABILITY AND FITNESS FOR A PARTICULAR
  17:C:/Users/dtjld/Desktop/AIoT_software/LiteOS_Lab_overseas/LiteOS_Lab/iot_link/oc/oc_lwm2m/atiny_lwm2m\atiny_rpt.h ****  * PURPOSE ARE DISCLAIMED. IN NO EVENT SHALL THE COPYRIGHT HOLDER OR
  18:C:/Users/dtjld/Desktop/AIoT_software/LiteOS_Lab_overseas/LiteOS_Lab/iot_link/oc/oc_lwm2m/atiny_lwm2m\atiny_rpt.h ****  * CONTRIBUTORS BE LIABLE FOR ANY DIRECT, INDIRECT, INCIDENTAL, SPECIAL,
  19:C:/Users/dtjld/Desktop/AIoT_software/LiteOS_Lab_overseas/LiteOS_Lab/iot_link/oc/oc_lwm2m/atiny_lwm2m\atiny_rpt.h ****  * EXEMPLARY, OR CONSEQUENTIAL DAMAGES (INCLUDING, BUT NOT LIMITED TO,
  20:C:/Users/dtjld/Desktop/AIoT_software/LiteOS_Lab_overseas/LiteOS_Lab/iot_link/oc/oc_lwm2m/atiny_lwm2m\atiny_rpt.h ****  * PROCUREMENT OF SUBSTITUTE GOODS OR SERVICES; LOSS OF USE, DATA, OR PROFITS;
  21:C:/Users/dtjld/Desktop/AIoT_software/LiteOS_Lab_overseas/LiteOS_Lab/iot_link/oc/oc_lwm2m/atiny_lwm2m\atiny_rpt.h ****  * OR BUSINESS INTERRUPTION) HOWEVER CAUSED AND ON ANY THEORY OF LIABILITY,
  22:C:/Users/dtjld/Desktop/AIoT_software/LiteOS_Lab_overseas/LiteOS_Lab/iot_link/oc/oc_lwm2m/atiny_lwm2m\atiny_rpt.h ****  * WHETHER IN CONTRACT, STRICT LIABILITY, OR TORT (INCLUDING NEGLIGENCE OR
  23:C:/Users/dtjld/Desktop/AIoT_software/LiteOS_Lab_overseas/LiteOS_Lab/iot_link/oc/oc_lwm2m/atiny_lwm2m\atiny_rpt.h ****  * OTHERWISE) ARISING IN ANY WAY OUT OF THE USE OF THIS SOFTWARE, EVEN IF
  24:C:/Users/dtjld/Desktop/AIoT_software/LiteOS_Lab_overseas/LiteOS_Lab/iot_link/oc/oc_lwm2m/atiny_lwm2m\atiny_rpt.h ****  * ADVISED OF THE POSSIBILITY OF SUCH DAMAGE.
  25:C:/Users/dtjld/Desktop/AIoT_software/LiteOS_Lab_overseas/LiteOS_Lab/iot_link/oc/oc_lwm2m/atiny_lwm2m\atiny_rpt.h ****  *---------------------------------------------------------------------------*/
  26:C:/Users/dtjld/Desktop/AIoT_software/LiteOS_Lab_overseas/LiteOS_Lab/iot_link/oc/oc_lwm2m/atiny_lwm2m\atiny_rpt.h **** /*----------------------------------------------------------------------------
  27:C:/Users/dtjld/Desktop/AIoT_software/LiteOS_Lab_overseas/LiteOS_Lab/iot_link/oc/oc_lwm2m/atiny_lwm2m\atiny_rpt.h ****  * Notice of Export Control Law
  28:C:/Users/dtjld/Desktop/AIoT_software/LiteOS_Lab_overseas/LiteOS_Lab/iot_link/oc/oc_lwm2m/atiny_lwm2m\atiny_rpt.h ****  * ===============================================
  29:C:/Users/dtjld/Desktop/AIoT_software/LiteOS_Lab_overseas/LiteOS_Lab/iot_link/oc/oc_lwm2m/atiny_lwm2m\atiny_rpt.h ****  * Huawei LiteOS may be subject to applicable export control laws and regulations, which might
  30:C:/Users/dtjld/Desktop/AIoT_software/LiteOS_Lab_overseas/LiteOS_Lab/iot_link/oc/oc_lwm2m/atiny_lwm2m\atiny_rpt.h ****  * include those applicable to Huawei LiteOS of U.S. and the country in which you are located.
  31:C:/Users/dtjld/Desktop/AIoT_software/LiteOS_Lab_overseas/LiteOS_Lab/iot_link/oc/oc_lwm2m/atiny_lwm2m\atiny_rpt.h ****  * Import, export and usage of Huawei LiteOS in any manner by you shall be in compliance with such
  32:C:/Users/dtjld/Desktop/AIoT_software/LiteOS_Lab_overseas/LiteOS_Lab/iot_link/oc/oc_lwm2m/atiny_lwm2m\atiny_rpt.h ****  * applicable export control laws and regulations.
ARM GAS  C:\Users\dtjld\AppData\Local\Temp\ccKooWlR.s 			page 2


  33:C:/Users/dtjld/Desktop/AIoT_software/LiteOS_Lab_overseas/LiteOS_Lab/iot_link/oc/oc_lwm2m/atiny_lwm2m\atiny_rpt.h ****  *---------------------------------------------------------------------------*/
  34:C:/Users/dtjld/Desktop/AIoT_software/LiteOS_Lab_overseas/LiteOS_Lab/iot_link/oc/oc_lwm2m/atiny_lwm2m\atiny_rpt.h **** 
  35:C:/Users/dtjld/Desktop/AIoT_software/LiteOS_Lab_overseas/LiteOS_Lab/iot_link/oc/oc_lwm2m/atiny_lwm2m\atiny_rpt.h **** #ifndef ATINY_RPT_H
  36:C:/Users/dtjld/Desktop/AIoT_software/LiteOS_Lab_overseas/LiteOS_Lab/iot_link/oc/oc_lwm2m/atiny_lwm2m\atiny_rpt.h **** #define ATINY_RPT_H
  37:C:/Users/dtjld/Desktop/AIoT_software/LiteOS_Lab_overseas/LiteOS_Lab/iot_link/oc/oc_lwm2m/atiny_lwm2m\atiny_rpt.h **** #include <agenttiny.h>
  38:C:/Users/dtjld/Desktop/AIoT_software/LiteOS_Lab_overseas/LiteOS_Lab/iot_link/oc/oc_lwm2m/atiny_lwm2m\atiny_rpt.h **** #include "agent_list.h"
  39:C:/Users/dtjld/Desktop/AIoT_software/LiteOS_Lab_overseas/LiteOS_Lab/iot_link/oc/oc_lwm2m/atiny_lwm2m\atiny_rpt.h **** 
  40:C:/Users/dtjld/Desktop/AIoT_software/LiteOS_Lab_overseas/LiteOS_Lab/iot_link/oc/oc_lwm2m/atiny_lwm2m\atiny_rpt.h **** #ifdef __cplusplus
  41:C:/Users/dtjld/Desktop/AIoT_software/LiteOS_Lab_overseas/LiteOS_Lab/iot_link/oc/oc_lwm2m/atiny_lwm2m\atiny_rpt.h **** extern "C" {
  42:C:/Users/dtjld/Desktop/AIoT_software/LiteOS_Lab_overseas/LiteOS_Lab/iot_link/oc/oc_lwm2m/atiny_lwm2m\atiny_rpt.h **** #endif
  43:C:/Users/dtjld/Desktop/AIoT_software/LiteOS_Lab_overseas/LiteOS_Lab/iot_link/oc/oc_lwm2m/atiny_lwm2m\atiny_rpt.h **** 
  44:C:/Users/dtjld/Desktop/AIoT_software/LiteOS_Lab_overseas/LiteOS_Lab/iot_link/oc/oc_lwm2m/atiny_lwm2m\atiny_rpt.h **** #define URI_FORMAT "uri(flag:0x%x, objId:%d, instId:%d, resId:%d)"
  45:C:/Users/dtjld/Desktop/AIoT_software/LiteOS_Lab_overseas/LiteOS_Lab/iot_link/oc/oc_lwm2m/atiny_lwm2m\atiny_rpt.h **** #define URI_LOG_PARAM(uri) (uri)->flag, (uri)->objectId, (uri)->instanceId, (uri)->resourceId
  46:C:/Users/dtjld/Desktop/AIoT_software/LiteOS_Lab_overseas/LiteOS_Lab/iot_link/oc/oc_lwm2m/atiny_lwm2m\atiny_rpt.h **** 
  47:C:/Users/dtjld/Desktop/AIoT_software/LiteOS_Lab_overseas/LiteOS_Lab/iot_link/oc/oc_lwm2m/atiny_lwm2m\atiny_rpt.h **** ATINY_INLINE void get_instance_uri(uint16_t object_id, uint16_t instance_id, lwm2m_uri_t* uri)
  48:C:/Users/dtjld/Desktop/AIoT_software/LiteOS_Lab_overseas/LiteOS_Lab/iot_link/oc/oc_lwm2m/atiny_lwm2m\atiny_rpt.h **** {
  49:C:/Users/dtjld/Desktop/AIoT_software/LiteOS_Lab_overseas/LiteOS_Lab/iot_link/oc/oc_lwm2m/atiny_lwm2m\atiny_rpt.h ****     if (uri == NULL)
  50:C:/Users/dtjld/Desktop/AIoT_software/LiteOS_Lab_overseas/LiteOS_Lab/iot_link/oc/oc_lwm2m/atiny_lwm2m\atiny_rpt.h ****     {
  51:C:/Users/dtjld/Desktop/AIoT_software/LiteOS_Lab_overseas/LiteOS_Lab/iot_link/oc/oc_lwm2m/atiny_lwm2m\atiny_rpt.h ****         return;
  52:C:/Users/dtjld/Desktop/AIoT_software/LiteOS_Lab_overseas/LiteOS_Lab/iot_link/oc/oc_lwm2m/atiny_lwm2m\atiny_rpt.h ****     }
  53:C:/Users/dtjld/Desktop/AIoT_software/LiteOS_Lab_overseas/LiteOS_Lab/iot_link/oc/oc_lwm2m/atiny_lwm2m\atiny_rpt.h ****     uri->flag = LWM2M_URI_FLAG_OBJECT_ID | LWM2M_URI_FLAG_INSTANCE_ID;
  54:C:/Users/dtjld/Desktop/AIoT_software/LiteOS_Lab_overseas/LiteOS_Lab/iot_link/oc/oc_lwm2m/atiny_lwm2m\atiny_rpt.h ****     uri->objectId = object_id;
  55:C:/Users/dtjld/Desktop/AIoT_software/LiteOS_Lab_overseas/LiteOS_Lab/iot_link/oc/oc_lwm2m/atiny_lwm2m\atiny_rpt.h ****     uri->instanceId = instance_id;
  56:C:/Users/dtjld/Desktop/AIoT_software/LiteOS_Lab_overseas/LiteOS_Lab/iot_link/oc/oc_lwm2m/atiny_lwm2m\atiny_rpt.h ****     uri->resourceId = 0;
  57:C:/Users/dtjld/Desktop/AIoT_software/LiteOS_Lab_overseas/LiteOS_Lab/iot_link/oc/oc_lwm2m/atiny_lwm2m\atiny_rpt.h **** }
  58:C:/Users/dtjld/Desktop/AIoT_software/LiteOS_Lab_overseas/LiteOS_Lab/iot_link/oc/oc_lwm2m/atiny_lwm2m\atiny_rpt.h **** 
  59:C:/Users/dtjld/Desktop/AIoT_software/LiteOS_Lab_overseas/LiteOS_Lab/iot_link/oc/oc_lwm2m/atiny_lwm2m\atiny_rpt.h **** ATINY_INLINE void get_resource_uri(uint16_t object_id, uint16_t instance_id, uint16_t resource_id, 
  60:C:/Users/dtjld/Desktop/AIoT_software/LiteOS_Lab_overseas/LiteOS_Lab/iot_link/oc/oc_lwm2m/atiny_lwm2m\atiny_rpt.h **** {
  27              		.loc 1 60 0
  28              		.cfi_startproc
  29              		@ args = 0, pretend = 0, frame = 16
  30              		@ frame_needed = 1, uses_anonymous_args = 0
  31              		@ link register save eliminated.
  32 0000 80B4     		push	{r7}
  33              	.LCFI0:
  34              		.cfi_def_cfa_offset 4
  35              		.cfi_offset 7, -4
  36 0002 85B0     		sub	sp, sp, #20
  37              	.LCFI1:
  38              		.cfi_def_cfa_offset 24
  39 0004 00AF     		add	r7, sp, #0
  40              	.LCFI2:
  41              		.cfi_def_cfa_register 7
  42 0006 7B60     		str	r3, [r7, #4]
  43 0008 0346     		mov	r3, r0	@ movhi
  44 000a FB81     		strh	r3, [r7, #14]	@ movhi
  45 000c 0B46     		mov	r3, r1	@ movhi
  46 000e BB81     		strh	r3, [r7, #12]	@ movhi
  47 0010 1346     		mov	r3, r2	@ movhi
  48 0012 7B81     		strh	r3, [r7, #10]	@ movhi
  61:C:/Users/dtjld/Desktop/AIoT_software/LiteOS_Lab_overseas/LiteOS_Lab/iot_link/oc/oc_lwm2m/atiny_lwm2m\atiny_rpt.h ****     if (uri == NULL)
  49              		.loc 1 61 0
  50 0014 7B68     		ldr	r3, [r7, #4]
  51 0016 002B     		cmp	r3, #0
  52 0018 0CD0     		beq	.L4
  62:C:/Users/dtjld/Desktop/AIoT_software/LiteOS_Lab_overseas/LiteOS_Lab/iot_link/oc/oc_lwm2m/atiny_lwm2m\atiny_rpt.h ****     {
  63:C:/Users/dtjld/Desktop/AIoT_software/LiteOS_Lab_overseas/LiteOS_Lab/iot_link/oc/oc_lwm2m/atiny_lwm2m\atiny_rpt.h ****         return;
ARM GAS  C:\Users\dtjld\AppData\Local\Temp\ccKooWlR.s 			page 3


  64:C:/Users/dtjld/Desktop/AIoT_software/LiteOS_Lab_overseas/LiteOS_Lab/iot_link/oc/oc_lwm2m/atiny_lwm2m\atiny_rpt.h ****     }
  65:C:/Users/dtjld/Desktop/AIoT_software/LiteOS_Lab_overseas/LiteOS_Lab/iot_link/oc/oc_lwm2m/atiny_lwm2m\atiny_rpt.h ****     uri->flag = LWM2M_URI_FLAG_OBJECT_ID | LWM2M_URI_FLAG_INSTANCE_ID | LWM2M_URI_FLAG_RESOURCE_ID;
  53              		.loc 1 65 0
  54 001a 7B68     		ldr	r3, [r7, #4]
  55 001c 0722     		movs	r2, #7
  56 001e 1A70     		strb	r2, [r3]
  66:C:/Users/dtjld/Desktop/AIoT_software/LiteOS_Lab_overseas/LiteOS_Lab/iot_link/oc/oc_lwm2m/atiny_lwm2m\atiny_rpt.h ****     uri->objectId = object_id;
  57              		.loc 1 66 0
  58 0020 7B68     		ldr	r3, [r7, #4]
  59 0022 FA89     		ldrh	r2, [r7, #14]	@ movhi
  60 0024 5A80     		strh	r2, [r3, #2]	@ movhi
  67:C:/Users/dtjld/Desktop/AIoT_software/LiteOS_Lab_overseas/LiteOS_Lab/iot_link/oc/oc_lwm2m/atiny_lwm2m\atiny_rpt.h ****     uri->instanceId = instance_id;
  61              		.loc 1 67 0
  62 0026 7B68     		ldr	r3, [r7, #4]
  63 0028 BA89     		ldrh	r2, [r7, #12]	@ movhi
  64 002a 9A80     		strh	r2, [r3, #4]	@ movhi
  68:C:/Users/dtjld/Desktop/AIoT_software/LiteOS_Lab_overseas/LiteOS_Lab/iot_link/oc/oc_lwm2m/atiny_lwm2m\atiny_rpt.h ****     uri->resourceId = resource_id;
  65              		.loc 1 68 0
  66 002c 7B68     		ldr	r3, [r7, #4]
  67 002e 7A89     		ldrh	r2, [r7, #10]	@ movhi
  68 0030 DA80     		strh	r2, [r3, #6]	@ movhi
  69 0032 00E0     		b	.L1
  70              	.L4:
  63:C:/Users/dtjld/Desktop/AIoT_software/LiteOS_Lab_overseas/LiteOS_Lab/iot_link/oc/oc_lwm2m/atiny_lwm2m\atiny_rpt.h ****     }
  71              		.loc 1 63 0
  72 0034 00BF     		nop
  73              	.L1:
  69:C:/Users/dtjld/Desktop/AIoT_software/LiteOS_Lab_overseas/LiteOS_Lab/iot_link/oc/oc_lwm2m/atiny_lwm2m\atiny_rpt.h **** }
  74              		.loc 1 69 0
  75 0036 1437     		adds	r7, r7, #20
  76              	.LCFI3:
  77              		.cfi_def_cfa_offset 4
  78 0038 BD46     		mov	sp, r7
  79              	.LCFI4:
  80              		.cfi_def_cfa_register 13
  81              		@ sp needed
  82 003a 5DF8047B 		ldr	r7, [sp], #4
  83              	.LCFI5:
  84              		.cfi_restore 7
  85              		.cfi_def_cfa_offset 0
  86 003e 7047     		bx	lr
  87              		.cfi_endproc
  88              	.LFE13:
  90              		.section	.rodata
  91              		.align	2
  92              	.LC0:
  93 0000 202000   		.ascii	"  \000"
  94 0003 00       		.align	2
  95              	.LC1:
  96 0004 25303258 		.ascii	"%02X \000"
  96      2000
  97 000a 0000     		.align	2
  98              	.LC2:
  99 000c 20202000 		.ascii	"   \000"
 100              		.align	2
 101              	.LC3:
 102 0010 25632000 		.ascii	"%c \000"
ARM GAS  C:\Users\dtjld\AppData\Local\Temp\ccKooWlR.s 			page 4


 103              		.align	2
 104              	.LC4:
 105 0014 2E2000   		.ascii	". \000"
 106              		.section	.text.prv_output_buffer,"ax",%progbits
 107              		.align	1
 108              		.syntax unified
 109              		.thumb
 110              		.thumb_func
 111              		.fpu fpv4-sp-d16
 113              	prv_output_buffer:
 114              	.LFB14:
 115              		.file 2 "C:/Users/dtjld/Desktop/AIoT_software/LiteOS_Lab_overseas/LiteOS_Lab/iot_link/oc/oc_lwm2m/
   1:C:/Users/dtjld/Desktop/AIoT_software/LiteOS_Lab_overseas/LiteOS_Lab/iot_link/oc/oc_lwm2m/atiny_lwm2m\object_binary_app_data_container.c **** /*----------------------------------------------------------------------------
   2:C:/Users/dtjld/Desktop/AIoT_software/LiteOS_Lab_overseas/LiteOS_Lab/iot_link/oc/oc_lwm2m/atiny_lwm2m\object_binary_app_data_container.c ****  * Copyright (c) <2016-2018>, <Huawei Technologies Co., Ltd>
   3:C:/Users/dtjld/Desktop/AIoT_software/LiteOS_Lab_overseas/LiteOS_Lab/iot_link/oc/oc_lwm2m/atiny_lwm2m\object_binary_app_data_container.c ****  * All rights reserved.
   4:C:/Users/dtjld/Desktop/AIoT_software/LiteOS_Lab_overseas/LiteOS_Lab/iot_link/oc/oc_lwm2m/atiny_lwm2m\object_binary_app_data_container.c ****  * Redistribution and use in source and binary forms, with or without modification,
   5:C:/Users/dtjld/Desktop/AIoT_software/LiteOS_Lab_overseas/LiteOS_Lab/iot_link/oc/oc_lwm2m/atiny_lwm2m\object_binary_app_data_container.c ****  * are permitted provided that the following conditions are met:
   6:C:/Users/dtjld/Desktop/AIoT_software/LiteOS_Lab_overseas/LiteOS_Lab/iot_link/oc/oc_lwm2m/atiny_lwm2m\object_binary_app_data_container.c ****  * 1. Redistributions of source code must retain the above copyright notice, this list of
   7:C:/Users/dtjld/Desktop/AIoT_software/LiteOS_Lab_overseas/LiteOS_Lab/iot_link/oc/oc_lwm2m/atiny_lwm2m\object_binary_app_data_container.c ****  * conditions and the following disclaimer.
   8:C:/Users/dtjld/Desktop/AIoT_software/LiteOS_Lab_overseas/LiteOS_Lab/iot_link/oc/oc_lwm2m/atiny_lwm2m\object_binary_app_data_container.c ****  * 2. Redistributions in binary form must reproduce the above copyright notice, this list
   9:C:/Users/dtjld/Desktop/AIoT_software/LiteOS_Lab_overseas/LiteOS_Lab/iot_link/oc/oc_lwm2m/atiny_lwm2m\object_binary_app_data_container.c ****  * of conditions and the following disclaimer in the documentation and/or other materials
  10:C:/Users/dtjld/Desktop/AIoT_software/LiteOS_Lab_overseas/LiteOS_Lab/iot_link/oc/oc_lwm2m/atiny_lwm2m\object_binary_app_data_container.c ****  * provided with the distribution.
  11:C:/Users/dtjld/Desktop/AIoT_software/LiteOS_Lab_overseas/LiteOS_Lab/iot_link/oc/oc_lwm2m/atiny_lwm2m\object_binary_app_data_container.c ****  * 3. Neither the name of the copyright holder nor the names of its contributors may be used
  12:C:/Users/dtjld/Desktop/AIoT_software/LiteOS_Lab_overseas/LiteOS_Lab/iot_link/oc/oc_lwm2m/atiny_lwm2m\object_binary_app_data_container.c ****  * to endorse or promote products derived from this software without specific prior written
  13:C:/Users/dtjld/Desktop/AIoT_software/LiteOS_Lab_overseas/LiteOS_Lab/iot_link/oc/oc_lwm2m/atiny_lwm2m\object_binary_app_data_container.c ****  * permission.
  14:C:/Users/dtjld/Desktop/AIoT_software/LiteOS_Lab_overseas/LiteOS_Lab/iot_link/oc/oc_lwm2m/atiny_lwm2m\object_binary_app_data_container.c ****  * THIS SOFTWARE IS PROVIDED BY THE COPYRIGHT HOLDERS AND CONTRIBUTORS
  15:C:/Users/dtjld/Desktop/AIoT_software/LiteOS_Lab_overseas/LiteOS_Lab/iot_link/oc/oc_lwm2m/atiny_lwm2m\object_binary_app_data_container.c ****  * "AS IS" AND ANY EXPRESS OR IMPLIED WARRANTIES, INCLUDING, BUT NOT LIMITED TO,
  16:C:/Users/dtjld/Desktop/AIoT_software/LiteOS_Lab_overseas/LiteOS_Lab/iot_link/oc/oc_lwm2m/atiny_lwm2m\object_binary_app_data_container.c ****  * THE IMPLIED WARRANTIES OF MERCHANTABILITY AND FITNESS FOR A PARTICULAR
  17:C:/Users/dtjld/Desktop/AIoT_software/LiteOS_Lab_overseas/LiteOS_Lab/iot_link/oc/oc_lwm2m/atiny_lwm2m\object_binary_app_data_container.c ****  * PURPOSE ARE DISCLAIMED. IN NO EVENT SHALL THE COPYRIGHT HOLDER OR
  18:C:/Users/dtjld/Desktop/AIoT_software/LiteOS_Lab_overseas/LiteOS_Lab/iot_link/oc/oc_lwm2m/atiny_lwm2m\object_binary_app_data_container.c ****  * CONTRIBUTORS BE LIABLE FOR ANY DIRECT, INDIRECT, INCIDENTAL, SPECIAL,
  19:C:/Users/dtjld/Desktop/AIoT_software/LiteOS_Lab_overseas/LiteOS_Lab/iot_link/oc/oc_lwm2m/atiny_lwm2m\object_binary_app_data_container.c ****  * EXEMPLARY, OR CONSEQUENTIAL DAMAGES (INCLUDING, BUT NOT LIMITED TO,
  20:C:/Users/dtjld/Desktop/AIoT_software/LiteOS_Lab_overseas/LiteOS_Lab/iot_link/oc/oc_lwm2m/atiny_lwm2m\object_binary_app_data_container.c ****  * PROCUREMENT OF SUBSTITUTE GOODS OR SERVICES; LOSS OF USE, DATA, OR PROFITS;
  21:C:/Users/dtjld/Desktop/AIoT_software/LiteOS_Lab_overseas/LiteOS_Lab/iot_link/oc/oc_lwm2m/atiny_lwm2m\object_binary_app_data_container.c ****  * OR BUSINESS INTERRUPTION) HOWEVER CAUSED AND ON ANY THEORY OF LIABILITY,
  22:C:/Users/dtjld/Desktop/AIoT_software/LiteOS_Lab_overseas/LiteOS_Lab/iot_link/oc/oc_lwm2m/atiny_lwm2m\object_binary_app_data_container.c ****  * WHETHER IN CONTRACT, STRICT LIABILITY, OR TORT (INCLUDING NEGLIGENCE OR
  23:C:/Users/dtjld/Desktop/AIoT_software/LiteOS_Lab_overseas/LiteOS_Lab/iot_link/oc/oc_lwm2m/atiny_lwm2m\object_binary_app_data_container.c ****  * OTHERWISE) ARISING IN ANY WAY OUT OF THE USE OF THIS SOFTWARE, EVEN IF
  24:C:/Users/dtjld/Desktop/AIoT_software/LiteOS_Lab_overseas/LiteOS_Lab/iot_link/oc/oc_lwm2m/atiny_lwm2m\object_binary_app_data_container.c ****  * ADVISED OF THE POSSIBILITY OF SUCH DAMAGE.
  25:C:/Users/dtjld/Desktop/AIoT_software/LiteOS_Lab_overseas/LiteOS_Lab/iot_link/oc/oc_lwm2m/atiny_lwm2m\object_binary_app_data_container.c ****  *---------------------------------------------------------------------------*/
  26:C:/Users/dtjld/Desktop/AIoT_software/LiteOS_Lab_overseas/LiteOS_Lab/iot_link/oc/oc_lwm2m/atiny_lwm2m\object_binary_app_data_container.c **** /*----------------------------------------------------------------------------
  27:C:/Users/dtjld/Desktop/AIoT_software/LiteOS_Lab_overseas/LiteOS_Lab/iot_link/oc/oc_lwm2m/atiny_lwm2m\object_binary_app_data_container.c ****  * Notice of Export Control Law
  28:C:/Users/dtjld/Desktop/AIoT_software/LiteOS_Lab_overseas/LiteOS_Lab/iot_link/oc/oc_lwm2m/atiny_lwm2m\object_binary_app_data_container.c ****  * ===============================================
  29:C:/Users/dtjld/Desktop/AIoT_software/LiteOS_Lab_overseas/LiteOS_Lab/iot_link/oc/oc_lwm2m/atiny_lwm2m\object_binary_app_data_container.c ****  * Huawei LiteOS may be subject to applicable export control laws and regulations, which might
  30:C:/Users/dtjld/Desktop/AIoT_software/LiteOS_Lab_overseas/LiteOS_Lab/iot_link/oc/oc_lwm2m/atiny_lwm2m\object_binary_app_data_container.c ****  * include those applicable to Huawei LiteOS of U.S. and the country in which you are located.
  31:C:/Users/dtjld/Desktop/AIoT_software/LiteOS_Lab_overseas/LiteOS_Lab/iot_link/oc/oc_lwm2m/atiny_lwm2m\object_binary_app_data_container.c ****  * Import, export and usage of Huawei LiteOS in any manner by you shall be in compliance with such
  32:C:/Users/dtjld/Desktop/AIoT_software/LiteOS_Lab_overseas/LiteOS_Lab/iot_link/oc/oc_lwm2m/atiny_lwm2m\object_binary_app_data_container.c ****  * applicable export control laws and regulations.
  33:C:/Users/dtjld/Desktop/AIoT_software/LiteOS_Lab_overseas/LiteOS_Lab/iot_link/oc/oc_lwm2m/atiny_lwm2m\object_binary_app_data_container.c ****  *---------------------------------------------------------------------------*/
  34:C:/Users/dtjld/Desktop/AIoT_software/LiteOS_Lab_overseas/LiteOS_Lab/iot_link/oc/oc_lwm2m/atiny_lwm2m\object_binary_app_data_container.c **** 
  35:C:/Users/dtjld/Desktop/AIoT_software/LiteOS_Lab_overseas/LiteOS_Lab/iot_link/oc/oc_lwm2m/atiny_lwm2m\object_binary_app_data_container.c **** /*
  36:C:/Users/dtjld/Desktop/AIoT_software/LiteOS_Lab_overseas/LiteOS_Lab/iot_link/oc/oc_lwm2m/atiny_lwm2m\object_binary_app_data_container.c ****  * Implements an object for binary_app_data_container purpose
  37:C:/Users/dtjld/Desktop/AIoT_software/LiteOS_Lab_overseas/LiteOS_Lab/iot_link/oc/oc_lwm2m/atiny_lwm2m\object_binary_app_data_container.c ****  *
  38:C:/Users/dtjld/Desktop/AIoT_software/LiteOS_Lab_overseas/LiteOS_Lab/iot_link/oc/oc_lwm2m/atiny_lwm2m\object_binary_app_data_container.c ****  *                  Multiple
  39:C:/Users/dtjld/Desktop/AIoT_software/LiteOS_Lab_overseas/LiteOS_Lab/iot_link/oc/oc_lwm2m/atiny_lwm2m\object_binary_app_data_container.c ****  * Object                      |  ID   | Instances | Mandatoty |
  40:C:/Users/dtjld/Desktop/AIoT_software/LiteOS_Lab_overseas/LiteOS_Lab/iot_link/oc/oc_lwm2m/atiny_lwm2m\object_binary_app_data_container.c ****  * binary_app_data_container   |  19   |    Yes    |    No     |
  41:C:/Users/dtjld/Desktop/AIoT_software/LiteOS_Lab_overseas/LiteOS_Lab/iot_link/oc/oc_lwm2m/atiny_lwm2m\object_binary_app_data_container.c ****  *
  42:C:/Users/dtjld/Desktop/AIoT_software/LiteOS_Lab_overseas/LiteOS_Lab/iot_link/oc/oc_lwm2m/atiny_lwm2m\object_binary_app_data_container.c ****  *  Resources:
  43:C:/Users/dtjld/Desktop/AIoT_software/LiteOS_Lab_overseas/LiteOS_Lab/iot_link/oc/oc_lwm2m/atiny_lwm2m\object_binary_app_data_container.c ****  *              Supported    Multiple
  44:C:/Users/dtjld/Desktop/AIoT_software/LiteOS_Lab_overseas/LiteOS_Lab/iot_link/oc/oc_lwm2m/atiny_lwm2m\object_binary_app_data_container.c ****  *  Name | ID | Operations | Instances | Mandatory |  Type   | Range | Units | Description |
  45:C:/Users/dtjld/Desktop/AIoT_software/LiteOS_Lab_overseas/LiteOS_Lab/iot_link/oc/oc_lwm2m/atiny_lwm2m\object_binary_app_data_container.c ****  *  Data |  0 |    R/W     |    No     |    Yes    | Opaque  |       |       |             |
ARM GAS  C:\Users\dtjld\AppData\Local\Temp\ccKooWlR.s 			page 5


  46:C:/Users/dtjld/Desktop/AIoT_software/LiteOS_Lab_overseas/LiteOS_Lab/iot_link/oc/oc_lwm2m/atiny_lwm2m\object_binary_app_data_container.c ****  *
  47:C:/Users/dtjld/Desktop/AIoT_software/LiteOS_Lab_overseas/LiteOS_Lab/iot_link/oc/oc_lwm2m/atiny_lwm2m\object_binary_app_data_container.c ****  */
  48:C:/Users/dtjld/Desktop/AIoT_software/LiteOS_Lab_overseas/LiteOS_Lab/iot_link/oc/oc_lwm2m/atiny_lwm2m\object_binary_app_data_container.c **** #include <atiny_log.h>
  49:C:/Users/dtjld/Desktop/AIoT_software/LiteOS_Lab_overseas/LiteOS_Lab/iot_link/oc/oc_lwm2m/atiny_lwm2m\object_binary_app_data_container.c **** #include "object_comm.h"
  50:C:/Users/dtjld/Desktop/AIoT_software/LiteOS_Lab_overseas/LiteOS_Lab/iot_link/oc/oc_lwm2m/atiny_lwm2m\object_binary_app_data_container.c **** #include "atiny_rpt.h"
  51:C:/Users/dtjld/Desktop/AIoT_software/LiteOS_Lab_overseas/LiteOS_Lab/iot_link/oc/oc_lwm2m/atiny_lwm2m\object_binary_app_data_container.c **** 
  52:C:/Users/dtjld/Desktop/AIoT_software/LiteOS_Lab_overseas/LiteOS_Lab/iot_link/oc/oc_lwm2m/atiny_lwm2m\object_binary_app_data_container.c **** 
  53:C:/Users/dtjld/Desktop/AIoT_software/LiteOS_Lab_overseas/LiteOS_Lab/iot_link/oc/oc_lwm2m/atiny_lwm2m\object_binary_app_data_container.c **** 
  54:C:/Users/dtjld/Desktop/AIoT_software/LiteOS_Lab_overseas/LiteOS_Lab/iot_link/oc/oc_lwm2m/atiny_lwm2m\object_binary_app_data_container.c **** #define PRV_TLV_BUFFER_SIZE 64
  55:C:/Users/dtjld/Desktop/AIoT_software/LiteOS_Lab_overseas/LiteOS_Lab/iot_link/oc/oc_lwm2m/atiny_lwm2m\object_binary_app_data_container.c **** 
  56:C:/Users/dtjld/Desktop/AIoT_software/LiteOS_Lab_overseas/LiteOS_Lab/iot_link/oc/oc_lwm2m/atiny_lwm2m\object_binary_app_data_container.c **** #define MIN_SAVE_CNT 1
  57:C:/Users/dtjld/Desktop/AIoT_software/LiteOS_Lab_overseas/LiteOS_Lab/iot_link/oc/oc_lwm2m/atiny_lwm2m\object_binary_app_data_container.c **** #define BINARY_APP_DATA_OBJECT_INSTANCE_NUM 2
  58:C:/Users/dtjld/Desktop/AIoT_software/LiteOS_Lab_overseas/LiteOS_Lab/iot_link/oc/oc_lwm2m/atiny_lwm2m\object_binary_app_data_container.c **** 
  59:C:/Users/dtjld/Desktop/AIoT_software/LiteOS_Lab_overseas/LiteOS_Lab/iot_link/oc/oc_lwm2m/atiny_lwm2m\object_binary_app_data_container.c **** 
  60:C:/Users/dtjld/Desktop/AIoT_software/LiteOS_Lab_overseas/LiteOS_Lab/iot_link/oc/oc_lwm2m/atiny_lwm2m\object_binary_app_data_container.c **** /*
  61:C:/Users/dtjld/Desktop/AIoT_software/LiteOS_Lab_overseas/LiteOS_Lab/iot_link/oc/oc_lwm2m/atiny_lwm2m\object_binary_app_data_container.c ****  * Multiple instance objects can use userdata to store data that will be shared between the differe
  62:C:/Users/dtjld/Desktop/AIoT_software/LiteOS_Lab_overseas/LiteOS_Lab/iot_link/oc/oc_lwm2m/atiny_lwm2m\object_binary_app_data_container.c ****  * The lwm2m_object_t object structure - which represent every object of the liblwm2m as seen in th
  63:C:/Users/dtjld/Desktop/AIoT_software/LiteOS_Lab_overseas/LiteOS_Lab/iot_link/oc/oc_lwm2m/atiny_lwm2m\object_binary_app_data_container.c ****  * object - contain a chained list called instanceList with the object specific structure plat_inst
  64:C:/Users/dtjld/Desktop/AIoT_software/LiteOS_Lab_overseas/LiteOS_Lab/iot_link/oc/oc_lwm2m/atiny_lwm2m\object_binary_app_data_container.c ****  */
  65:C:/Users/dtjld/Desktop/AIoT_software/LiteOS_Lab_overseas/LiteOS_Lab/iot_link/oc/oc_lwm2m/atiny_lwm2m\object_binary_app_data_container.c **** typedef struct _prv_instance_
  66:C:/Users/dtjld/Desktop/AIoT_software/LiteOS_Lab_overseas/LiteOS_Lab/iot_link/oc/oc_lwm2m/atiny_lwm2m\object_binary_app_data_container.c **** {
  67:C:/Users/dtjld/Desktop/AIoT_software/LiteOS_Lab_overseas/LiteOS_Lab/iot_link/oc/oc_lwm2m/atiny_lwm2m\object_binary_app_data_container.c ****     /*
  68:C:/Users/dtjld/Desktop/AIoT_software/LiteOS_Lab_overseas/LiteOS_Lab/iot_link/oc/oc_lwm2m/atiny_lwm2m\object_binary_app_data_container.c ****      * The first two are mandatories and represent the pointer to the next instance and the ID of t
  69:C:/Users/dtjld/Desktop/AIoT_software/LiteOS_Lab_overseas/LiteOS_Lab/iot_link/oc/oc_lwm2m/atiny_lwm2m\object_binary_app_data_container.c ****      * is the instance scope user data (uint8_t test in this case)
  70:C:/Users/dtjld/Desktop/AIoT_software/LiteOS_Lab_overseas/LiteOS_Lab/iot_link/oc/oc_lwm2m/atiny_lwm2m\object_binary_app_data_container.c ****      */
  71:C:/Users/dtjld/Desktop/AIoT_software/LiteOS_Lab_overseas/LiteOS_Lab/iot_link/oc/oc_lwm2m/atiny_lwm2m\object_binary_app_data_container.c ****     struct _prv_instance_ *next;    // matches lwm2m_list_t::next
  72:C:/Users/dtjld/Desktop/AIoT_software/LiteOS_Lab_overseas/LiteOS_Lab/iot_link/oc/oc_lwm2m/atiny_lwm2m\object_binary_app_data_container.c ****     uint16_t shortID;               // matches lwm2m_list_t::id
  73:C:/Users/dtjld/Desktop/AIoT_software/LiteOS_Lab_overseas/LiteOS_Lab/iot_link/oc/oc_lwm2m/atiny_lwm2m\object_binary_app_data_container.c ****     rpt_list_t header;
  74:C:/Users/dtjld/Desktop/AIoT_software/LiteOS_Lab_overseas/LiteOS_Lab/iot_link/oc/oc_lwm2m/atiny_lwm2m\object_binary_app_data_container.c ****     uint8_t  test;
  75:C:/Users/dtjld/Desktop/AIoT_software/LiteOS_Lab_overseas/LiteOS_Lab/iot_link/oc/oc_lwm2m/atiny_lwm2m\object_binary_app_data_container.c ****     double   dec;
  76:C:/Users/dtjld/Desktop/AIoT_software/LiteOS_Lab_overseas/LiteOS_Lab/iot_link/oc/oc_lwm2m/atiny_lwm2m\object_binary_app_data_container.c **** #define OPAR_NUM 5
  77:C:/Users/dtjld/Desktop/AIoT_software/LiteOS_Lab_overseas/LiteOS_Lab/iot_link/oc/oc_lwm2m/atiny_lwm2m\object_binary_app_data_container.c ****     uint8_t  opaq[OPAR_NUM];
  78:C:/Users/dtjld/Desktop/AIoT_software/LiteOS_Lab_overseas/LiteOS_Lab/iot_link/oc/oc_lwm2m/atiny_lwm2m\object_binary_app_data_container.c **** } plat_instance_t;
  79:C:/Users/dtjld/Desktop/AIoT_software/LiteOS_Lab_overseas/LiteOS_Lab/iot_link/oc/oc_lwm2m/atiny_lwm2m\object_binary_app_data_container.c **** 
  80:C:/Users/dtjld/Desktop/AIoT_software/LiteOS_Lab_overseas/LiteOS_Lab/iot_link/oc/oc_lwm2m/atiny_lwm2m\object_binary_app_data_container.c **** #define ARRAY_MAXNUM  16
  81:C:/Users/dtjld/Desktop/AIoT_software/LiteOS_Lab_overseas/LiteOS_Lab/iot_link/oc/oc_lwm2m/atiny_lwm2m\object_binary_app_data_container.c **** static void prv_output_buffer(uint8_t *buffer,
  82:C:/Users/dtjld/Desktop/AIoT_software/LiteOS_Lab_overseas/LiteOS_Lab/iot_link/oc/oc_lwm2m/atiny_lwm2m\object_binary_app_data_container.c ****                               int length)
  83:C:/Users/dtjld/Desktop/AIoT_software/LiteOS_Lab_overseas/LiteOS_Lab/iot_link/oc/oc_lwm2m/atiny_lwm2m\object_binary_app_data_container.c **** {
 116              		.loc 2 83 0
 117              		.cfi_startproc
 118              		@ args = 0, pretend = 0, frame = 32
 119              		@ frame_needed = 1, uses_anonymous_args = 0
 120 0000 90B5     		push	{r4, r7, lr}
 121              	.LCFI6:
 122              		.cfi_def_cfa_offset 12
 123              		.cfi_offset 4, -12
 124              		.cfi_offset 7, -8
 125              		.cfi_offset 14, -4
 126 0002 89B0     		sub	sp, sp, #36
 127              	.LCFI7:
 128              		.cfi_def_cfa_offset 48
 129 0004 00AF     		add	r7, sp, #0
 130              	.LCFI8:
 131              		.cfi_def_cfa_register 7
 132 0006 7860     		str	r0, [r7, #4]
 133 0008 3960     		str	r1, [r7]
  84:C:/Users/dtjld/Desktop/AIoT_software/LiteOS_Lab_overseas/LiteOS_Lab/iot_link/oc/oc_lwm2m/atiny_lwm2m\object_binary_app_data_container.c ****     int i;
ARM GAS  C:\Users\dtjld\AppData\Local\Temp\ccKooWlR.s 			page 6


  85:C:/Users/dtjld/Desktop/AIoT_software/LiteOS_Lab_overseas/LiteOS_Lab/iot_link/oc/oc_lwm2m/atiny_lwm2m\object_binary_app_data_container.c ****     uint8_t array[ARRAY_MAXNUM];
  86:C:/Users/dtjld/Desktop/AIoT_software/LiteOS_Lab_overseas/LiteOS_Lab/iot_link/oc/oc_lwm2m/atiny_lwm2m\object_binary_app_data_container.c **** 
  87:C:/Users/dtjld/Desktop/AIoT_software/LiteOS_Lab_overseas/LiteOS_Lab/iot_link/oc/oc_lwm2m/atiny_lwm2m\object_binary_app_data_container.c ****     i = 0;
 134              		.loc 2 87 0
 135 000a 0023     		movs	r3, #0
 136 000c FB61     		str	r3, [r7, #28]
  88:C:/Users/dtjld/Desktop/AIoT_software/LiteOS_Lab_overseas/LiteOS_Lab/iot_link/oc/oc_lwm2m/atiny_lwm2m\object_binary_app_data_container.c ****     while (i < length)
 137              		.loc 2 88 0
 138 000e 80E0     		b	.L6
 139              	.L17:
 140              	.LBB2:
  89:C:/Users/dtjld/Desktop/AIoT_software/LiteOS_Lab_overseas/LiteOS_Lab/iot_link/oc/oc_lwm2m/atiny_lwm2m\object_binary_app_data_container.c ****     {
  90:C:/Users/dtjld/Desktop/AIoT_software/LiteOS_Lab_overseas/LiteOS_Lab/iot_link/oc/oc_lwm2m/atiny_lwm2m\object_binary_app_data_container.c ****         int j;
  91:C:/Users/dtjld/Desktop/AIoT_software/LiteOS_Lab_overseas/LiteOS_Lab/iot_link/oc/oc_lwm2m/atiny_lwm2m\object_binary_app_data_container.c ****         fprintf(stderr, "  ");
 141              		.loc 2 91 0
 142 0010 444B     		ldr	r3, .L18
 143 0012 1B68     		ldr	r3, [r3]
 144 0014 DB68     		ldr	r3, [r3, #12]
 145 0016 0222     		movs	r2, #2
 146 0018 0121     		movs	r1, #1
 147 001a 4348     		ldr	r0, .L18+4
 148 001c FFF7FEFF 		bl	fwrite
  92:C:/Users/dtjld/Desktop/AIoT_software/LiteOS_Lab_overseas/LiteOS_Lab/iot_link/oc/oc_lwm2m/atiny_lwm2m\object_binary_app_data_container.c **** 
  93:C:/Users/dtjld/Desktop/AIoT_software/LiteOS_Lab_overseas/LiteOS_Lab/iot_link/oc/oc_lwm2m/atiny_lwm2m\object_binary_app_data_container.c ****         memcpy(array, buffer + i, ARRAY_MAXNUM);
 149              		.loc 2 93 0
 150 0020 FB69     		ldr	r3, [r7, #28]
 151 0022 7A68     		ldr	r2, [r7, #4]
 152 0024 1344     		add	r3, r3, r2
 153 0026 07F10804 		add	r4, r7, #8
 154 002a 1868     		ldr	r0, [r3]	@ unaligned
 155 002c 5968     		ldr	r1, [r3, #4]	@ unaligned
 156 002e 9A68     		ldr	r2, [r3, #8]	@ unaligned
 157 0030 DB68     		ldr	r3, [r3, #12]	@ unaligned
 158 0032 0FC4     		stmia	r4!, {r0, r1, r2, r3}
  94:C:/Users/dtjld/Desktop/AIoT_software/LiteOS_Lab_overseas/LiteOS_Lab/iot_link/oc/oc_lwm2m/atiny_lwm2m\object_binary_app_data_container.c **** 
  95:C:/Users/dtjld/Desktop/AIoT_software/LiteOS_Lab_overseas/LiteOS_Lab/iot_link/oc/oc_lwm2m/atiny_lwm2m\object_binary_app_data_container.c ****         for (j = 0 ; j < ARRAY_MAXNUM && i + j < length; j++)
 159              		.loc 2 95 0
 160 0034 0023     		movs	r3, #0
 161 0036 BB61     		str	r3, [r7, #24]
 162 0038 0EE0     		b	.L7
 163              	.L9:
  96:C:/Users/dtjld/Desktop/AIoT_software/LiteOS_Lab_overseas/LiteOS_Lab/iot_link/oc/oc_lwm2m/atiny_lwm2m\object_binary_app_data_container.c ****         {
  97:C:/Users/dtjld/Desktop/AIoT_software/LiteOS_Lab_overseas/LiteOS_Lab/iot_link/oc/oc_lwm2m/atiny_lwm2m\object_binary_app_data_container.c ****             fprintf(stderr, "%02X ", array[j]);
 164              		.loc 2 97 0 discriminator 4
 165 003a 3A4B     		ldr	r3, .L18
 166 003c 1B68     		ldr	r3, [r3]
 167 003e D868     		ldr	r0, [r3, #12]
 168 0040 07F10802 		add	r2, r7, #8
 169 0044 BB69     		ldr	r3, [r7, #24]
 170 0046 1344     		add	r3, r3, r2
 171 0048 1B78     		ldrb	r3, [r3]	@ zero_extendqisi2
 172 004a 1A46     		mov	r2, r3
 173 004c 3749     		ldr	r1, .L18+8
 174 004e FFF7FEFF 		bl	fprintf
  95:C:/Users/dtjld/Desktop/AIoT_software/LiteOS_Lab_overseas/LiteOS_Lab/iot_link/oc/oc_lwm2m/atiny_lwm2m\object_binary_app_data_container.c ****         {
 175              		.loc 2 95 0 discriminator 4
 176 0052 BB69     		ldr	r3, [r7, #24]
ARM GAS  C:\Users\dtjld\AppData\Local\Temp\ccKooWlR.s 			page 7


 177 0054 0133     		adds	r3, r3, #1
 178 0056 BB61     		str	r3, [r7, #24]
 179              	.L7:
  95:C:/Users/dtjld/Desktop/AIoT_software/LiteOS_Lab_overseas/LiteOS_Lab/iot_link/oc/oc_lwm2m/atiny_lwm2m\object_binary_app_data_container.c ****         {
 180              		.loc 2 95 0 is_stmt 0 discriminator 1
 181 0058 BB69     		ldr	r3, [r7, #24]
 182 005a 0F2B     		cmp	r3, #15
 183 005c 11DC     		bgt	.L10
  95:C:/Users/dtjld/Desktop/AIoT_software/LiteOS_Lab_overseas/LiteOS_Lab/iot_link/oc/oc_lwm2m/atiny_lwm2m\object_binary_app_data_container.c ****         {
 184              		.loc 2 95 0 discriminator 3
 185 005e FA69     		ldr	r2, [r7, #28]
 186 0060 BB69     		ldr	r3, [r7, #24]
 187 0062 1344     		add	r3, r3, r2
 188 0064 3A68     		ldr	r2, [r7]
 189 0066 9A42     		cmp	r2, r3
 190 0068 E7DC     		bgt	.L9
  98:C:/Users/dtjld/Desktop/AIoT_software/LiteOS_Lab_overseas/LiteOS_Lab/iot_link/oc/oc_lwm2m/atiny_lwm2m\object_binary_app_data_container.c ****         }
  99:C:/Users/dtjld/Desktop/AIoT_software/LiteOS_Lab_overseas/LiteOS_Lab/iot_link/oc/oc_lwm2m/atiny_lwm2m\object_binary_app_data_container.c ****         while (j < ARRAY_MAXNUM)
 191              		.loc 2 99 0 is_stmt 1
 192 006a 0AE0     		b	.L10
 193              	.L11:
 100:C:/Users/dtjld/Desktop/AIoT_software/LiteOS_Lab_overseas/LiteOS_Lab/iot_link/oc/oc_lwm2m/atiny_lwm2m\object_binary_app_data_container.c ****         {
 101:C:/Users/dtjld/Desktop/AIoT_software/LiteOS_Lab_overseas/LiteOS_Lab/iot_link/oc/oc_lwm2m/atiny_lwm2m\object_binary_app_data_container.c ****             fprintf(stderr, "   ");
 194              		.loc 2 101 0
 195 006c 2D4B     		ldr	r3, .L18
 196 006e 1B68     		ldr	r3, [r3]
 197 0070 DB68     		ldr	r3, [r3, #12]
 198 0072 0322     		movs	r2, #3
 199 0074 0121     		movs	r1, #1
 200 0076 2E48     		ldr	r0, .L18+12
 201 0078 FFF7FEFF 		bl	fwrite
 102:C:/Users/dtjld/Desktop/AIoT_software/LiteOS_Lab_overseas/LiteOS_Lab/iot_link/oc/oc_lwm2m/atiny_lwm2m\object_binary_app_data_container.c ****             j++;
 202              		.loc 2 102 0
 203 007c BB69     		ldr	r3, [r7, #24]
 204 007e 0133     		adds	r3, r3, #1
 205 0080 BB61     		str	r3, [r7, #24]
 206              	.L10:
  99:C:/Users/dtjld/Desktop/AIoT_software/LiteOS_Lab_overseas/LiteOS_Lab/iot_link/oc/oc_lwm2m/atiny_lwm2m\object_binary_app_data_container.c ****         {
 207              		.loc 2 99 0
 208 0082 BB69     		ldr	r3, [r7, #24]
 209 0084 0F2B     		cmp	r3, #15
 210 0086 F1DD     		ble	.L11
 103:C:/Users/dtjld/Desktop/AIoT_software/LiteOS_Lab_overseas/LiteOS_Lab/iot_link/oc/oc_lwm2m/atiny_lwm2m\object_binary_app_data_container.c ****         }
 104:C:/Users/dtjld/Desktop/AIoT_software/LiteOS_Lab_overseas/LiteOS_Lab/iot_link/oc/oc_lwm2m/atiny_lwm2m\object_binary_app_data_container.c ****         fprintf(stderr, "  ");
 211              		.loc 2 104 0
 212 0088 264B     		ldr	r3, .L18
 213 008a 1B68     		ldr	r3, [r3]
 214 008c DB68     		ldr	r3, [r3, #12]
 215 008e 0222     		movs	r2, #2
 216 0090 0121     		movs	r1, #1
 217 0092 2548     		ldr	r0, .L18+4
 218 0094 FFF7FEFF 		bl	fwrite
 105:C:/Users/dtjld/Desktop/AIoT_software/LiteOS_Lab_overseas/LiteOS_Lab/iot_link/oc/oc_lwm2m/atiny_lwm2m\object_binary_app_data_container.c ****         for (j = 0 ; j < ARRAY_MAXNUM && i + j < length; j++)
 219              		.loc 2 105 0
 220 0098 0023     		movs	r3, #0
 221 009a BB61     		str	r3, [r7, #24]
 222 009c 26E0     		b	.L12
ARM GAS  C:\Users\dtjld\AppData\Local\Temp\ccKooWlR.s 			page 8


 223              	.L16:
 106:C:/Users/dtjld/Desktop/AIoT_software/LiteOS_Lab_overseas/LiteOS_Lab/iot_link/oc/oc_lwm2m/atiny_lwm2m\object_binary_app_data_container.c ****         {
 107:C:/Users/dtjld/Desktop/AIoT_software/LiteOS_Lab_overseas/LiteOS_Lab/iot_link/oc/oc_lwm2m/atiny_lwm2m\object_binary_app_data_container.c ****             if (isprint(array[j]))
 224              		.loc 2 107 0
 225 009e FFF7FEFF 		bl	__locale_ctype_ptr
 226 00a2 0146     		mov	r1, r0
 227 00a4 07F10802 		add	r2, r7, #8
 228 00a8 BB69     		ldr	r3, [r7, #24]
 229 00aa 1344     		add	r3, r3, r2
 230 00ac 1B78     		ldrb	r3, [r3]	@ zero_extendqisi2
 231 00ae 0133     		adds	r3, r3, #1
 232 00b0 0B44     		add	r3, r3, r1
 233 00b2 1B78     		ldrb	r3, [r3]	@ zero_extendqisi2
 234 00b4 03F09703 		and	r3, r3, #151
 235 00b8 002B     		cmp	r3, #0
 236 00ba 0CD0     		beq	.L13
 108:C:/Users/dtjld/Desktop/AIoT_software/LiteOS_Lab_overseas/LiteOS_Lab/iot_link/oc/oc_lwm2m/atiny_lwm2m\object_binary_app_data_container.c ****                 fprintf(stderr, "%c ", array[j]);
 237              		.loc 2 108 0
 238 00bc 194B     		ldr	r3, .L18
 239 00be 1B68     		ldr	r3, [r3]
 240 00c0 D868     		ldr	r0, [r3, #12]
 241 00c2 07F10802 		add	r2, r7, #8
 242 00c6 BB69     		ldr	r3, [r7, #24]
 243 00c8 1344     		add	r3, r3, r2
 244 00ca 1B78     		ldrb	r3, [r3]	@ zero_extendqisi2
 245 00cc 1A46     		mov	r2, r3
 246 00ce 1949     		ldr	r1, .L18+16
 247 00d0 FFF7FEFF 		bl	fprintf
 248 00d4 07E0     		b	.L14
 249              	.L13:
 109:C:/Users/dtjld/Desktop/AIoT_software/LiteOS_Lab_overseas/LiteOS_Lab/iot_link/oc/oc_lwm2m/atiny_lwm2m\object_binary_app_data_container.c ****             else
 110:C:/Users/dtjld/Desktop/AIoT_software/LiteOS_Lab_overseas/LiteOS_Lab/iot_link/oc/oc_lwm2m/atiny_lwm2m\object_binary_app_data_container.c ****                 fprintf(stderr, ". ");
 250              		.loc 2 110 0
 251 00d6 134B     		ldr	r3, .L18
 252 00d8 1B68     		ldr	r3, [r3]
 253 00da DB68     		ldr	r3, [r3, #12]
 254 00dc 0222     		movs	r2, #2
 255 00de 0121     		movs	r1, #1
 256 00e0 1548     		ldr	r0, .L18+20
 257 00e2 FFF7FEFF 		bl	fwrite
 258              	.L14:
 105:C:/Users/dtjld/Desktop/AIoT_software/LiteOS_Lab_overseas/LiteOS_Lab/iot_link/oc/oc_lwm2m/atiny_lwm2m\object_binary_app_data_container.c ****         {
 259              		.loc 2 105 0 discriminator 2
 260 00e6 BB69     		ldr	r3, [r7, #24]
 261 00e8 0133     		adds	r3, r3, #1
 262 00ea BB61     		str	r3, [r7, #24]
 263              	.L12:
 105:C:/Users/dtjld/Desktop/AIoT_software/LiteOS_Lab_overseas/LiteOS_Lab/iot_link/oc/oc_lwm2m/atiny_lwm2m\object_binary_app_data_container.c ****         {
 264              		.loc 2 105 0 is_stmt 0 discriminator 1
 265 00ec BB69     		ldr	r3, [r7, #24]
 266 00ee 0F2B     		cmp	r3, #15
 267 00f0 05DC     		bgt	.L15
 105:C:/Users/dtjld/Desktop/AIoT_software/LiteOS_Lab_overseas/LiteOS_Lab/iot_link/oc/oc_lwm2m/atiny_lwm2m\object_binary_app_data_container.c ****         {
 268              		.loc 2 105 0 discriminator 3
 269 00f2 FA69     		ldr	r2, [r7, #28]
 270 00f4 BB69     		ldr	r3, [r7, #24]
 271 00f6 1344     		add	r3, r3, r2
ARM GAS  C:\Users\dtjld\AppData\Local\Temp\ccKooWlR.s 			page 9


 272 00f8 3A68     		ldr	r2, [r7]
 273 00fa 9A42     		cmp	r2, r3
 274 00fc CFDC     		bgt	.L16
 275              	.L15:
 111:C:/Users/dtjld/Desktop/AIoT_software/LiteOS_Lab_overseas/LiteOS_Lab/iot_link/oc/oc_lwm2m/atiny_lwm2m\object_binary_app_data_container.c ****         }
 112:C:/Users/dtjld/Desktop/AIoT_software/LiteOS_Lab_overseas/LiteOS_Lab/iot_link/oc/oc_lwm2m/atiny_lwm2m\object_binary_app_data_container.c ****         fprintf(stderr, "\n");
 276              		.loc 2 112 0 is_stmt 1
 277 00fe 094B     		ldr	r3, .L18
 278 0100 1B68     		ldr	r3, [r3]
 279 0102 DB68     		ldr	r3, [r3, #12]
 280 0104 1946     		mov	r1, r3
 281 0106 0A20     		movs	r0, #10
 282 0108 FFF7FEFF 		bl	fputc
 113:C:/Users/dtjld/Desktop/AIoT_software/LiteOS_Lab_overseas/LiteOS_Lab/iot_link/oc/oc_lwm2m/atiny_lwm2m\object_binary_app_data_container.c **** 
 114:C:/Users/dtjld/Desktop/AIoT_software/LiteOS_Lab_overseas/LiteOS_Lab/iot_link/oc/oc_lwm2m/atiny_lwm2m\object_binary_app_data_container.c ****         i += ARRAY_MAXNUM;
 283              		.loc 2 114 0
 284 010c FB69     		ldr	r3, [r7, #28]
 285 010e 1033     		adds	r3, r3, #16
 286 0110 FB61     		str	r3, [r7, #28]
 287              	.L6:
 288              	.LBE2:
  88:C:/Users/dtjld/Desktop/AIoT_software/LiteOS_Lab_overseas/LiteOS_Lab/iot_link/oc/oc_lwm2m/atiny_lwm2m\object_binary_app_data_container.c ****     {
 289              		.loc 2 88 0
 290 0112 FA69     		ldr	r2, [r7, #28]
 291 0114 3B68     		ldr	r3, [r7]
 292 0116 9A42     		cmp	r2, r3
 293 0118 FFF67AAF 		blt	.L17
 115:C:/Users/dtjld/Desktop/AIoT_software/LiteOS_Lab_overseas/LiteOS_Lab/iot_link/oc/oc_lwm2m/atiny_lwm2m\object_binary_app_data_container.c ****     }
 116:C:/Users/dtjld/Desktop/AIoT_software/LiteOS_Lab_overseas/LiteOS_Lab/iot_link/oc/oc_lwm2m/atiny_lwm2m\object_binary_app_data_container.c **** }
 294              		.loc 2 116 0
 295 011c 00BF     		nop
 296 011e 2437     		adds	r7, r7, #36
 297              	.LCFI9:
 298              		.cfi_def_cfa_offset 12
 299 0120 BD46     		mov	sp, r7
 300              	.LCFI10:
 301              		.cfi_def_cfa_register 13
 302              		@ sp needed
 303 0122 90BD     		pop	{r4, r7, pc}
 304              	.L19:
 305              		.align	2
 306              	.L18:
 307 0124 00000000 		.word	_impure_ptr
 308 0128 00000000 		.word	.LC0
 309 012c 04000000 		.word	.LC1
 310 0130 0C000000 		.word	.LC2
 311 0134 10000000 		.word	.LC3
 312 0138 14000000 		.word	.LC4
 313              		.cfi_endproc
 314              	.LFE14:
 316              		.section	.rodata
 317 0017 00       		.align	2
 318              	.LC5:
 319 0018 5B25735D 		.ascii	"[%s][%u][%s:%d] malloc null\015\012\000"
 319      5B25755D 
 319      5B25733A 
 319      25645D20 
ARM GAS  C:\Users\dtjld\AppData\Local\Temp\ccKooWlR.s 			page 10


 319      6D616C6C 
 320 0036 0000     		.align	2
 321              	.LC6:
 322 0038 5B25735D 		.ascii	"[%s][%u][%s:%d] atiny_dequeue_rpt_data fail,ret=%d\015"
 322      5B25755D 
 322      5B25733A 
 322      25645D20 
 322      6174696E 
 323 006b 0A00     		.ascii	"\012\000"
 324 006d 000000   		.align	2
 325              	.LC7:
 326 0070 5B25735D 		.ascii	"[%s][%u][%s:%d] atiny_dequeue_rpt_data sucessfully\015"
 326      5B25755D 
 326      5B25733A 
 326      25645D20 
 326      6174696E 
 327 00a3 0A00     		.ascii	"\012\000"
 328              		.section	.text.prv_read_data,"ax",%progbits
 329              		.align	1
 330              		.syntax unified
 331              		.thumb
 332              		.thumb_func
 333              		.fpu fpv4-sp-d16
 335              	prv_read_data:
 336              	.LFB15:
 117:C:/Users/dtjld/Desktop/AIoT_software/LiteOS_Lab_overseas/LiteOS_Lab/iot_link/oc/oc_lwm2m/atiny_lwm2m\object_binary_app_data_container.c **** 
 118:C:/Users/dtjld/Desktop/AIoT_software/LiteOS_Lab_overseas/LiteOS_Lab/iot_link/oc/oc_lwm2m/atiny_lwm2m\object_binary_app_data_container.c **** static uint8_t prv_read_data(plat_instance_t *targetP,
 119:C:/Users/dtjld/Desktop/AIoT_software/LiteOS_Lab_overseas/LiteOS_Lab/iot_link/oc/oc_lwm2m/atiny_lwm2m\object_binary_app_data_container.c ****                              int data_number,
 120:C:/Users/dtjld/Desktop/AIoT_software/LiteOS_Lab_overseas/LiteOS_Lab/iot_link/oc/oc_lwm2m/atiny_lwm2m\object_binary_app_data_container.c ****                              lwm2m_data_t *dataArrayP,
 121:C:/Users/dtjld/Desktop/AIoT_software/LiteOS_Lab_overseas/LiteOS_Lab/iot_link/oc/oc_lwm2m/atiny_lwm2m\object_binary_app_data_container.c ****                              lwm2m_data_cfg_t *dataCfg)
 122:C:/Users/dtjld/Desktop/AIoT_software/LiteOS_Lab_overseas/LiteOS_Lab/iot_link/oc/oc_lwm2m/atiny_lwm2m\object_binary_app_data_container.c **** {
 337              		.loc 2 122 0
 338              		.cfi_startproc
 339              		@ args = 0, pretend = 0, frame = 48
 340              		@ frame_needed = 1, uses_anonymous_args = 0
 341 0000 B0B5     		push	{r4, r5, r7, lr}
 342              	.LCFI11:
 343              		.cfi_def_cfa_offset 16
 344              		.cfi_offset 4, -16
 345              		.cfi_offset 5, -12
 346              		.cfi_offset 7, -8
 347              		.cfi_offset 14, -4
 348 0002 8EB0     		sub	sp, sp, #56
 349              	.LCFI12:
 350              		.cfi_def_cfa_offset 72
 351 0004 02AF     		add	r7, sp, #8
 352              	.LCFI13:
 353              		.cfi_def_cfa 7, 64
 354 0006 F860     		str	r0, [r7, #12]
 355 0008 B960     		str	r1, [r7, #8]
 356 000a 7A60     		str	r2, [r7, #4]
 357 000c 3B60     		str	r3, [r7]
 123:C:/Users/dtjld/Desktop/AIoT_software/LiteOS_Lab_overseas/LiteOS_Lab/iot_link/oc/oc_lwm2m/atiny_lwm2m\object_binary_app_data_container.c ****     int i;
 124:C:/Users/dtjld/Desktop/AIoT_software/LiteOS_Lab_overseas/LiteOS_Lab/iot_link/oc/oc_lwm2m/atiny_lwm2m\object_binary_app_data_container.c ****     data_report_t data;
 125:C:/Users/dtjld/Desktop/AIoT_software/LiteOS_Lab_overseas/LiteOS_Lab/iot_link/oc/oc_lwm2m/atiny_lwm2m\object_binary_app_data_container.c ****     int ret;
 126:C:/Users/dtjld/Desktop/AIoT_software/LiteOS_Lab_overseas/LiteOS_Lab/iot_link/oc/oc_lwm2m/atiny_lwm2m\object_binary_app_data_container.c **** 
 127:C:/Users/dtjld/Desktop/AIoT_software/LiteOS_Lab_overseas/LiteOS_Lab/iot_link/oc/oc_lwm2m/atiny_lwm2m\object_binary_app_data_container.c ****     for (i = 0 ; i < data_number ; i++)
ARM GAS  C:\Users\dtjld\AppData\Local\Temp\ccKooWlR.s 			page 11


 358              		.loc 2 127 0
 359 000e 0023     		movs	r3, #0
 360 0010 FB62     		str	r3, [r7, #44]
 361 0012 A7E0     		b	.L21
 362              	.L33:
 128:C:/Users/dtjld/Desktop/AIoT_software/LiteOS_Lab_overseas/LiteOS_Lab/iot_link/oc/oc_lwm2m/atiny_lwm2m\object_binary_app_data_container.c ****     {
 129:C:/Users/dtjld/Desktop/AIoT_software/LiteOS_Lab_overseas/LiteOS_Lab/iot_link/oc/oc_lwm2m/atiny_lwm2m\object_binary_app_data_container.c ****         switch (dataArrayP[i].id)
 363              		.loc 2 129 0
 364 0014 FB6A     		ldr	r3, [r7, #44]
 365 0016 1B01     		lsls	r3, r3, #4
 366 0018 7A68     		ldr	r2, [r7, #4]
 367 001a 1344     		add	r3, r3, r2
 368 001c 5B88     		ldrh	r3, [r3, #2]
 369 001e 002B     		cmp	r3, #0
 370 0020 40F09B80 		bne	.L35
 130:C:/Users/dtjld/Desktop/AIoT_software/LiteOS_Lab_overseas/LiteOS_Lab/iot_link/oc/oc_lwm2m/atiny_lwm2m\object_binary_app_data_container.c ****         {
 131:C:/Users/dtjld/Desktop/AIoT_software/LiteOS_Lab_overseas/LiteOS_Lab/iot_link/oc/oc_lwm2m/atiny_lwm2m\object_binary_app_data_container.c ****         case 0:
 132:C:/Users/dtjld/Desktop/AIoT_software/LiteOS_Lab_overseas/LiteOS_Lab/iot_link/oc/oc_lwm2m/atiny_lwm2m\object_binary_app_data_container.c ****             //printf("19/0/0 read\r\n");
 133:C:/Users/dtjld/Desktop/AIoT_software/LiteOS_Lab_overseas/LiteOS_Lab/iot_link/oc/oc_lwm2m/atiny_lwm2m\object_binary_app_data_container.c ****             if(NULL == dataCfg)
 371              		.loc 2 133 0
 372 0024 3B68     		ldr	r3, [r7]
 373 0026 002B     		cmp	r3, #0
 374 0028 39D1     		bne	.L24
 375              	.LBB3:
 134:C:/Users/dtjld/Desktop/AIoT_software/LiteOS_Lab_overseas/LiteOS_Lab/iot_link/oc/oc_lwm2m/atiny_lwm2m\object_binary_app_data_container.c ****             {
 135:C:/Users/dtjld/Desktop/AIoT_software/LiteOS_Lab_overseas/LiteOS_Lab/iot_link/oc/oc_lwm2m/atiny_lwm2m\object_binary_app_data_container.c ****                 uint8_t *buf = lwm2m_malloc(sizeof(*buf));
 376              		.loc 2 135 0
 377 002a 0120     		movs	r0, #1
 378 002c FFF7FEFF 		bl	lwm2m_malloc
 379 0030 7862     		str	r0, [r7, #36]
 136:C:/Users/dtjld/Desktop/AIoT_software/LiteOS_Lab_overseas/LiteOS_Lab/iot_link/oc/oc_lwm2m/atiny_lwm2m\object_binary_app_data_container.c ****                 if(NULL == buf)
 380              		.loc 2 136 0
 381 0032 7B6A     		ldr	r3, [r7, #36]
 382 0034 002B     		cmp	r3, #0
 383 0036 16D1     		bne	.L25
 137:C:/Users/dtjld/Desktop/AIoT_software/LiteOS_Lab_overseas/LiteOS_Lab/iot_link/oc/oc_lwm2m/atiny_lwm2m\object_binary_app_data_container.c ****                 {
 138:C:/Users/dtjld/Desktop/AIoT_software/LiteOS_Lab_overseas/LiteOS_Lab/iot_link/oc/oc_lwm2m/atiny_lwm2m\object_binary_app_data_container.c ****                     ATINY_LOG(LOG_ERR, "malloc null");
 384              		.loc 2 138 0
 385 0038 FFF7FEFF 		bl	atiny_get_log_level
 386 003c 0346     		mov	r3, r0
 387 003e 032B     		cmp	r3, #3
 388 0040 0FD8     		bhi	.L26
 389              		.loc 2 138 0 is_stmt 0 discriminator 1
 390 0042 0320     		movs	r0, #3
 391 0044 FFF7FEFF 		bl	atiny_get_log_level_name
 392 0048 0546     		mov	r5, r0
 393 004a FFF7FEFF 		bl	osal_sys_time
 394 004e 0346     		mov	r3, r0
 395 0050 0C46     		mov	r4, r1
 396 0052 1A46     		mov	r2, r3
 397 0054 8A23     		movs	r3, #138
 398 0056 0093     		str	r3, [sp]
 399 0058 474B     		ldr	r3, .L36
 400 005a 2946     		mov	r1, r5
 401 005c 4748     		ldr	r0, .L36+4
 402 005e FFF7FEFF 		bl	atiny_printf
 403              	.L26:
ARM GAS  C:\Users\dtjld\AppData\Local\Temp\ccKooWlR.s 			page 12


 139:C:/Users/dtjld/Desktop/AIoT_software/LiteOS_Lab_overseas/LiteOS_Lab/iot_link/oc/oc_lwm2m/atiny_lwm2m\object_binary_app_data_container.c ****                     return COAP_404_NOT_FOUND;
 404              		.loc 2 139 0 is_stmt 1
 405 0062 8423     		movs	r3, #132
 406 0064 84E0     		b	.L34
 407              	.L25:
 140:C:/Users/dtjld/Desktop/AIoT_software/LiteOS_Lab_overseas/LiteOS_Lab/iot_link/oc/oc_lwm2m/atiny_lwm2m\object_binary_app_data_container.c ****                 }
 141:C:/Users/dtjld/Desktop/AIoT_software/LiteOS_Lab_overseas/LiteOS_Lab/iot_link/oc/oc_lwm2m/atiny_lwm2m\object_binary_app_data_container.c ****                 *buf = 0;
 408              		.loc 2 141 0
 409 0066 7B6A     		ldr	r3, [r7, #36]
 410 0068 0022     		movs	r2, #0
 411 006a 1A70     		strb	r2, [r3]
 142:C:/Users/dtjld/Desktop/AIoT_software/LiteOS_Lab_overseas/LiteOS_Lab/iot_link/oc/oc_lwm2m/atiny_lwm2m\object_binary_app_data_container.c ****                 dataArrayP[i].id = 0;
 412              		.loc 2 142 0
 413 006c FB6A     		ldr	r3, [r7, #44]
 414 006e 1B01     		lsls	r3, r3, #4
 415 0070 7A68     		ldr	r2, [r7, #4]
 416 0072 1344     		add	r3, r3, r2
 417 0074 0022     		movs	r2, #0
 418 0076 5A80     		strh	r2, [r3, #2]	@ movhi
 143:C:/Users/dtjld/Desktop/AIoT_software/LiteOS_Lab_overseas/LiteOS_Lab/iot_link/oc/oc_lwm2m/atiny_lwm2m\object_binary_app_data_container.c ****                 dataArrayP[i].type = LWM2M_TYPE_OPAQUE;
 419              		.loc 2 143 0
 420 0078 FB6A     		ldr	r3, [r7, #44]
 421 007a 1B01     		lsls	r3, r3, #4
 422 007c 7A68     		ldr	r2, [r7, #4]
 423 007e 1344     		add	r3, r3, r2
 424 0080 0522     		movs	r2, #5
 425 0082 1A70     		strb	r2, [r3]
 144:C:/Users/dtjld/Desktop/AIoT_software/LiteOS_Lab_overseas/LiteOS_Lab/iot_link/oc/oc_lwm2m/atiny_lwm2m\object_binary_app_data_container.c ****                 dataArrayP[i].value.asBuffer.buffer = buf;
 426              		.loc 2 144 0
 427 0084 FB6A     		ldr	r3, [r7, #44]
 428 0086 1B01     		lsls	r3, r3, #4
 429 0088 7A68     		ldr	r2, [r7, #4]
 430 008a 1344     		add	r3, r3, r2
 431 008c 7A6A     		ldr	r2, [r7, #36]
 432 008e DA60     		str	r2, [r3, #12]
 145:C:/Users/dtjld/Desktop/AIoT_software/LiteOS_Lab_overseas/LiteOS_Lab/iot_link/oc/oc_lwm2m/atiny_lwm2m\object_binary_app_data_container.c ****                 dataArrayP[i].value.asBuffer.length = 1;
 433              		.loc 2 145 0
 434 0090 FB6A     		ldr	r3, [r7, #44]
 435 0092 1B01     		lsls	r3, r3, #4
 436 0094 7A68     		ldr	r2, [r7, #4]
 437 0096 1344     		add	r3, r3, r2
 438 0098 0122     		movs	r2, #1
 439 009a 9A60     		str	r2, [r3, #8]
 440              	.LBE3:
 146:C:/Users/dtjld/Desktop/AIoT_software/LiteOS_Lab_overseas/LiteOS_Lab/iot_link/oc/oc_lwm2m/atiny_lwm2m\object_binary_app_data_container.c ****             }
 147:C:/Users/dtjld/Desktop/AIoT_software/LiteOS_Lab_overseas/LiteOS_Lab/iot_link/oc/oc_lwm2m/atiny_lwm2m\object_binary_app_data_container.c ****             else
 148:C:/Users/dtjld/Desktop/AIoT_software/LiteOS_Lab_overseas/LiteOS_Lab/iot_link/oc/oc_lwm2m/atiny_lwm2m\object_binary_app_data_container.c ****             {
 149:C:/Users/dtjld/Desktop/AIoT_software/LiteOS_Lab_overseas/LiteOS_Lab/iot_link/oc/oc_lwm2m/atiny_lwm2m\object_binary_app_data_container.c ****                 ret = atiny_dequeue_rpt_data((targetP->header), &data);
 150:C:/Users/dtjld/Desktop/AIoT_software/LiteOS_Lab_overseas/LiteOS_Lab/iot_link/oc/oc_lwm2m/atiny_lwm2m\object_binary_app_data_container.c ****                 if (ret != ATINY_OK)
 151:C:/Users/dtjld/Desktop/AIoT_software/LiteOS_Lab_overseas/LiteOS_Lab/iot_link/oc/oc_lwm2m/atiny_lwm2m\object_binary_app_data_container.c ****                 {
 152:C:/Users/dtjld/Desktop/AIoT_software/LiteOS_Lab_overseas/LiteOS_Lab/iot_link/oc/oc_lwm2m/atiny_lwm2m\object_binary_app_data_container.c ****                     ATINY_LOG(LOG_INFO, "atiny_dequeue_rpt_data fail,ret=%d", ret);
 153:C:/Users/dtjld/Desktop/AIoT_software/LiteOS_Lab_overseas/LiteOS_Lab/iot_link/oc/oc_lwm2m/atiny_lwm2m\object_binary_app_data_container.c ****                     return COAP_404_NOT_FOUND;
 154:C:/Users/dtjld/Desktop/AIoT_software/LiteOS_Lab_overseas/LiteOS_Lab/iot_link/oc/oc_lwm2m/atiny_lwm2m\object_binary_app_data_container.c ****                 }
 155:C:/Users/dtjld/Desktop/AIoT_software/LiteOS_Lab_overseas/LiteOS_Lab/iot_link/oc/oc_lwm2m/atiny_lwm2m\object_binary_app_data_container.c ****                 else
 156:C:/Users/dtjld/Desktop/AIoT_software/LiteOS_Lab_overseas/LiteOS_Lab/iot_link/oc/oc_lwm2m/atiny_lwm2m\object_binary_app_data_container.c ****                 {
 157:C:/Users/dtjld/Desktop/AIoT_software/LiteOS_Lab_overseas/LiteOS_Lab/iot_link/oc/oc_lwm2m/atiny_lwm2m\object_binary_app_data_container.c ****                     ATINY_LOG(LOG_DEBUG, "atiny_dequeue_rpt_data sucessfully");
 158:C:/Users/dtjld/Desktop/AIoT_software/LiteOS_Lab_overseas/LiteOS_Lab/iot_link/oc/oc_lwm2m/atiny_lwm2m\object_binary_app_data_container.c ****                 }
ARM GAS  C:\Users\dtjld\AppData\Local\Temp\ccKooWlR.s 			page 13


 159:C:/Users/dtjld/Desktop/AIoT_software/LiteOS_Lab_overseas/LiteOS_Lab/iot_link/oc/oc_lwm2m/atiny_lwm2m\object_binary_app_data_container.c **** 
 160:C:/Users/dtjld/Desktop/AIoT_software/LiteOS_Lab_overseas/LiteOS_Lab/iot_link/oc/oc_lwm2m/atiny_lwm2m\object_binary_app_data_container.c ****                 dataArrayP[i].id = 0;
 161:C:/Users/dtjld/Desktop/AIoT_software/LiteOS_Lab_overseas/LiteOS_Lab/iot_link/oc/oc_lwm2m/atiny_lwm2m\object_binary_app_data_container.c ****                 dataArrayP[i].type = LWM2M_TYPE_OPAQUE;
 162:C:/Users/dtjld/Desktop/AIoT_software/LiteOS_Lab_overseas/LiteOS_Lab/iot_link/oc/oc_lwm2m/atiny_lwm2m\object_binary_app_data_container.c ****                 dataArrayP[i].value.asBuffer.buffer = data.buf;
 163:C:/Users/dtjld/Desktop/AIoT_software/LiteOS_Lab_overseas/LiteOS_Lab/iot_link/oc/oc_lwm2m/atiny_lwm2m\object_binary_app_data_container.c ****                 dataArrayP[i].value.asBuffer.length = data.len;
 164:C:/Users/dtjld/Desktop/AIoT_software/LiteOS_Lab_overseas/LiteOS_Lab/iot_link/oc/oc_lwm2m/atiny_lwm2m\object_binary_app_data_container.c ****                 dataCfg->type = data.type;
 165:C:/Users/dtjld/Desktop/AIoT_software/LiteOS_Lab_overseas/LiteOS_Lab/iot_link/oc/oc_lwm2m/atiny_lwm2m\object_binary_app_data_container.c ****                 dataCfg->cookie = data.cookie;
 166:C:/Users/dtjld/Desktop/AIoT_software/LiteOS_Lab_overseas/LiteOS_Lab/iot_link/oc/oc_lwm2m/atiny_lwm2m\object_binary_app_data_container.c ****                 dataCfg->callback = (lwm2m_data_process)data.callback;
 167:C:/Users/dtjld/Desktop/AIoT_software/LiteOS_Lab_overseas/LiteOS_Lab/iot_link/oc/oc_lwm2m/atiny_lwm2m\object_binary_app_data_container.c ****             }
 168:C:/Users/dtjld/Desktop/AIoT_software/LiteOS_Lab_overseas/LiteOS_Lab/iot_link/oc/oc_lwm2m/atiny_lwm2m\object_binary_app_data_container.c ****             break;
 441              		.loc 2 168 0
 442 009c 5FE0     		b	.L32
 443              	.L24:
 149:C:/Users/dtjld/Desktop/AIoT_software/LiteOS_Lab_overseas/LiteOS_Lab/iot_link/oc/oc_lwm2m/atiny_lwm2m\object_binary_app_data_container.c ****                 if (ret != ATINY_OK)
 444              		.loc 2 149 0
 445 009e FB68     		ldr	r3, [r7, #12]
 446 00a0 9B68     		ldr	r3, [r3, #8]
 447 00a2 07F11002 		add	r2, r7, #16
 448 00a6 1146     		mov	r1, r2
 449 00a8 1846     		mov	r0, r3
 450 00aa FFF7FEFF 		bl	atiny_dequeue_rpt_data
 451 00ae B862     		str	r0, [r7, #40]
 150:C:/Users/dtjld/Desktop/AIoT_software/LiteOS_Lab_overseas/LiteOS_Lab/iot_link/oc/oc_lwm2m/atiny_lwm2m\object_binary_app_data_container.c ****                 {
 452              		.loc 2 150 0
 453 00b0 BB6A     		ldr	r3, [r7, #40]
 454 00b2 002B     		cmp	r3, #0
 455 00b4 18D0     		beq	.L29
 152:C:/Users/dtjld/Desktop/AIoT_software/LiteOS_Lab_overseas/LiteOS_Lab/iot_link/oc/oc_lwm2m/atiny_lwm2m\object_binary_app_data_container.c ****                     return COAP_404_NOT_FOUND;
 456              		.loc 2 152 0
 457 00b6 FFF7FEFF 		bl	atiny_get_log_level
 458 00ba 0346     		mov	r3, r0
 459 00bc 012B     		cmp	r3, #1
 460 00be 11D8     		bhi	.L30
 152:C:/Users/dtjld/Desktop/AIoT_software/LiteOS_Lab_overseas/LiteOS_Lab/iot_link/oc/oc_lwm2m/atiny_lwm2m\object_binary_app_data_container.c ****                     return COAP_404_NOT_FOUND;
 461              		.loc 2 152 0 is_stmt 0 discriminator 1
 462 00c0 0120     		movs	r0, #1
 463 00c2 FFF7FEFF 		bl	atiny_get_log_level_name
 464 00c6 0546     		mov	r5, r0
 465 00c8 FFF7FEFF 		bl	osal_sys_time
 466 00cc 0346     		mov	r3, r0
 467 00ce 0C46     		mov	r4, r1
 468 00d0 1A46     		mov	r2, r3
 469 00d2 BB6A     		ldr	r3, [r7, #40]
 470 00d4 0193     		str	r3, [sp, #4]
 471 00d6 9823     		movs	r3, #152
 472 00d8 0093     		str	r3, [sp]
 473 00da 274B     		ldr	r3, .L36
 474 00dc 2946     		mov	r1, r5
 475 00de 2848     		ldr	r0, .L36+8
 476 00e0 FFF7FEFF 		bl	atiny_printf
 477              	.L30:
 153:C:/Users/dtjld/Desktop/AIoT_software/LiteOS_Lab_overseas/LiteOS_Lab/iot_link/oc/oc_lwm2m/atiny_lwm2m\object_binary_app_data_container.c ****                 }
 478              		.loc 2 153 0 is_stmt 1
 479 00e4 8423     		movs	r3, #132
 480 00e6 43E0     		b	.L34
 481              	.L29:
 157:C:/Users/dtjld/Desktop/AIoT_software/LiteOS_Lab_overseas/LiteOS_Lab/iot_link/oc/oc_lwm2m/atiny_lwm2m\object_binary_app_data_container.c ****                 }
ARM GAS  C:\Users\dtjld\AppData\Local\Temp\ccKooWlR.s 			page 14


 482              		.loc 2 157 0
 483 00e8 FFF7FEFF 		bl	atiny_get_log_level
 484 00ec 0346     		mov	r3, r0
 485 00ee 002B     		cmp	r3, #0
 486 00f0 0FD1     		bne	.L31
 157:C:/Users/dtjld/Desktop/AIoT_software/LiteOS_Lab_overseas/LiteOS_Lab/iot_link/oc/oc_lwm2m/atiny_lwm2m\object_binary_app_data_container.c ****                 }
 487              		.loc 2 157 0 is_stmt 0 discriminator 1
 488 00f2 0020     		movs	r0, #0
 489 00f4 FFF7FEFF 		bl	atiny_get_log_level_name
 490 00f8 0546     		mov	r5, r0
 491 00fa FFF7FEFF 		bl	osal_sys_time
 492 00fe 0346     		mov	r3, r0
 493 0100 0C46     		mov	r4, r1
 494 0102 1A46     		mov	r2, r3
 495 0104 9D23     		movs	r3, #157
 496 0106 0093     		str	r3, [sp]
 497 0108 1B4B     		ldr	r3, .L36
 498 010a 2946     		mov	r1, r5
 499 010c 1D48     		ldr	r0, .L36+12
 500 010e FFF7FEFF 		bl	atiny_printf
 501              	.L31:
 160:C:/Users/dtjld/Desktop/AIoT_software/LiteOS_Lab_overseas/LiteOS_Lab/iot_link/oc/oc_lwm2m/atiny_lwm2m\object_binary_app_data_container.c ****                 dataArrayP[i].type = LWM2M_TYPE_OPAQUE;
 502              		.loc 2 160 0 is_stmt 1
 503 0112 FB6A     		ldr	r3, [r7, #44]
 504 0114 1B01     		lsls	r3, r3, #4
 505 0116 7A68     		ldr	r2, [r7, #4]
 506 0118 1344     		add	r3, r3, r2
 507 011a 0022     		movs	r2, #0
 508 011c 5A80     		strh	r2, [r3, #2]	@ movhi
 161:C:/Users/dtjld/Desktop/AIoT_software/LiteOS_Lab_overseas/LiteOS_Lab/iot_link/oc/oc_lwm2m/atiny_lwm2m\object_binary_app_data_container.c ****                 dataArrayP[i].value.asBuffer.buffer = data.buf;
 509              		.loc 2 161 0
 510 011e FB6A     		ldr	r3, [r7, #44]
 511 0120 1B01     		lsls	r3, r3, #4
 512 0122 7A68     		ldr	r2, [r7, #4]
 513 0124 1344     		add	r3, r3, r2
 514 0126 0522     		movs	r2, #5
 515 0128 1A70     		strb	r2, [r3]
 162:C:/Users/dtjld/Desktop/AIoT_software/LiteOS_Lab_overseas/LiteOS_Lab/iot_link/oc/oc_lwm2m/atiny_lwm2m\object_binary_app_data_container.c ****                 dataArrayP[i].value.asBuffer.length = data.len;
 516              		.loc 2 162 0
 517 012a FB6A     		ldr	r3, [r7, #44]
 518 012c 1B01     		lsls	r3, r3, #4
 519 012e 7A68     		ldr	r2, [r7, #4]
 520 0130 1344     		add	r3, r3, r2
 521 0132 FA69     		ldr	r2, [r7, #28]
 522 0134 DA60     		str	r2, [r3, #12]
 163:C:/Users/dtjld/Desktop/AIoT_software/LiteOS_Lab_overseas/LiteOS_Lab/iot_link/oc/oc_lwm2m/atiny_lwm2m\object_binary_app_data_container.c ****                 dataCfg->type = data.type;
 523              		.loc 2 163 0
 524 0136 B969     		ldr	r1, [r7, #24]
 525 0138 FB6A     		ldr	r3, [r7, #44]
 526 013a 1B01     		lsls	r3, r3, #4
 527 013c 7A68     		ldr	r2, [r7, #4]
 528 013e 1344     		add	r3, r3, r2
 529 0140 0A46     		mov	r2, r1
 530 0142 9A60     		str	r2, [r3, #8]
 164:C:/Users/dtjld/Desktop/AIoT_software/LiteOS_Lab_overseas/LiteOS_Lab/iot_link/oc/oc_lwm2m/atiny_lwm2m\object_binary_app_data_container.c ****                 dataCfg->cookie = data.cookie;
 531              		.loc 2 164 0
 532 0144 3B7C     		ldrb	r3, [r7, #16]	@ zero_extendqisi2
ARM GAS  C:\Users\dtjld\AppData\Local\Temp\ccKooWlR.s 			page 15


 533 0146 1A46     		mov	r2, r3
 534 0148 3B68     		ldr	r3, [r7]
 535 014a 1A60     		str	r2, [r3]
 165:C:/Users/dtjld/Desktop/AIoT_software/LiteOS_Lab_overseas/LiteOS_Lab/iot_link/oc/oc_lwm2m/atiny_lwm2m\object_binary_app_data_container.c ****                 dataCfg->callback = (lwm2m_data_process)data.callback;
 536              		.loc 2 165 0
 537 014c 7A69     		ldr	r2, [r7, #20]
 538 014e 3B68     		ldr	r3, [r7]
 539 0150 5A60     		str	r2, [r3, #4]
 166:C:/Users/dtjld/Desktop/AIoT_software/LiteOS_Lab_overseas/LiteOS_Lab/iot_link/oc/oc_lwm2m/atiny_lwm2m\object_binary_app_data_container.c ****             }
 540              		.loc 2 166 0
 541 0152 3A6A     		ldr	r2, [r7, #32]
 542 0154 3B68     		ldr	r3, [r7]
 543 0156 9A60     		str	r2, [r3, #8]
 544              		.loc 2 168 0
 545 0158 01E0     		b	.L32
 546              	.L35:
 169:C:/Users/dtjld/Desktop/AIoT_software/LiteOS_Lab_overseas/LiteOS_Lab/iot_link/oc/oc_lwm2m/atiny_lwm2m\object_binary_app_data_container.c ****         default:
 170:C:/Users/dtjld/Desktop/AIoT_software/LiteOS_Lab_overseas/LiteOS_Lab/iot_link/oc/oc_lwm2m/atiny_lwm2m\object_binary_app_data_container.c ****             return COAP_404_NOT_FOUND;
 547              		.loc 2 170 0
 548 015a 8423     		movs	r3, #132
 549 015c 08E0     		b	.L34
 550              	.L32:
 127:C:/Users/dtjld/Desktop/AIoT_software/LiteOS_Lab_overseas/LiteOS_Lab/iot_link/oc/oc_lwm2m/atiny_lwm2m\object_binary_app_data_container.c ****     {
 551              		.loc 2 127 0 discriminator 2
 552 015e FB6A     		ldr	r3, [r7, #44]
 553 0160 0133     		adds	r3, r3, #1
 554 0162 FB62     		str	r3, [r7, #44]
 555              	.L21:
 127:C:/Users/dtjld/Desktop/AIoT_software/LiteOS_Lab_overseas/LiteOS_Lab/iot_link/oc/oc_lwm2m/atiny_lwm2m\object_binary_app_data_container.c ****     {
 556              		.loc 2 127 0 is_stmt 0 discriminator 1
 557 0164 FA6A     		ldr	r2, [r7, #44]
 558 0166 BB68     		ldr	r3, [r7, #8]
 559 0168 9A42     		cmp	r2, r3
 560 016a FFF653AF 		blt	.L33
 171:C:/Users/dtjld/Desktop/AIoT_software/LiteOS_Lab_overseas/LiteOS_Lab/iot_link/oc/oc_lwm2m/atiny_lwm2m\object_binary_app_data_container.c ****         }
 172:C:/Users/dtjld/Desktop/AIoT_software/LiteOS_Lab_overseas/LiteOS_Lab/iot_link/oc/oc_lwm2m/atiny_lwm2m\object_binary_app_data_container.c ****     }
 173:C:/Users/dtjld/Desktop/AIoT_software/LiteOS_Lab_overseas/LiteOS_Lab/iot_link/oc/oc_lwm2m/atiny_lwm2m\object_binary_app_data_container.c **** 
 174:C:/Users/dtjld/Desktop/AIoT_software/LiteOS_Lab_overseas/LiteOS_Lab/iot_link/oc/oc_lwm2m/atiny_lwm2m\object_binary_app_data_container.c ****     return COAP_205_CONTENT;
 561              		.loc 2 174 0 is_stmt 1
 562 016e 4523     		movs	r3, #69
 563              	.L34:
 175:C:/Users/dtjld/Desktop/AIoT_software/LiteOS_Lab_overseas/LiteOS_Lab/iot_link/oc/oc_lwm2m/atiny_lwm2m\object_binary_app_data_container.c **** }
 564              		.loc 2 175 0 discriminator 1
 565 0170 1846     		mov	r0, r3
 566 0172 3037     		adds	r7, r7, #48
 567              	.LCFI14:
 568              		.cfi_def_cfa_offset 16
 569 0174 BD46     		mov	sp, r7
 570              	.LCFI15:
 571              		.cfi_def_cfa_register 13
 572              		@ sp needed
 573 0176 B0BD     		pop	{r4, r5, r7, pc}
 574              	.L37:
 575              		.align	2
 576              	.L36:
 577 0178 00000000 		.word	__FUNCTION__.8897
 578 017c 18000000 		.word	.LC5
ARM GAS  C:\Users\dtjld\AppData\Local\Temp\ccKooWlR.s 			page 16


 579 0180 38000000 		.word	.LC6
 580 0184 70000000 		.word	.LC7
 581              		.cfi_endproc
 582              	.LFE15:
 584              		.section	.text.prv_destroy_data_buf,"ax",%progbits
 585              		.align	1
 586              		.syntax unified
 587              		.thumb
 588              		.thumb_func
 589              		.fpu fpv4-sp-d16
 591              	prv_destroy_data_buf:
 592              	.LFB16:
 176:C:/Users/dtjld/Desktop/AIoT_software/LiteOS_Lab_overseas/LiteOS_Lab/iot_link/oc/oc_lwm2m/atiny_lwm2m\object_binary_app_data_container.c **** 
 177:C:/Users/dtjld/Desktop/AIoT_software/LiteOS_Lab_overseas/LiteOS_Lab/iot_link/oc/oc_lwm2m/atiny_lwm2m\object_binary_app_data_container.c **** static void prv_destroy_data_buf(int data_number, lwm2m_data_t *data_array)
 178:C:/Users/dtjld/Desktop/AIoT_software/LiteOS_Lab_overseas/LiteOS_Lab/iot_link/oc/oc_lwm2m/atiny_lwm2m\object_binary_app_data_container.c **** {
 593              		.loc 2 178 0
 594              		.cfi_startproc
 595              		@ args = 0, pretend = 0, frame = 16
 596              		@ frame_needed = 1, uses_anonymous_args = 0
 597 0000 80B5     		push	{r7, lr}
 598              	.LCFI16:
 599              		.cfi_def_cfa_offset 8
 600              		.cfi_offset 7, -8
 601              		.cfi_offset 14, -4
 602 0002 84B0     		sub	sp, sp, #16
 603              	.LCFI17:
 604              		.cfi_def_cfa_offset 24
 605 0004 00AF     		add	r7, sp, #0
 606              	.LCFI18:
 607              		.cfi_def_cfa_register 7
 608 0006 7860     		str	r0, [r7, #4]
 609 0008 3960     		str	r1, [r7]
 179:C:/Users/dtjld/Desktop/AIoT_software/LiteOS_Lab_overseas/LiteOS_Lab/iot_link/oc/oc_lwm2m/atiny_lwm2m\object_binary_app_data_container.c ****     int i;
 180:C:/Users/dtjld/Desktop/AIoT_software/LiteOS_Lab_overseas/LiteOS_Lab/iot_link/oc/oc_lwm2m/atiny_lwm2m\object_binary_app_data_container.c ****     for (i = 0 ; i < data_number; i++)
 610              		.loc 2 180 0
 611 000a 0023     		movs	r3, #0
 612 000c FB60     		str	r3, [r7, #12]
 613 000e 26E0     		b	.L39
 614              	.L44:
 181:C:/Users/dtjld/Desktop/AIoT_software/LiteOS_Lab_overseas/LiteOS_Lab/iot_link/oc/oc_lwm2m/atiny_lwm2m\object_binary_app_data_container.c ****     {
 182:C:/Users/dtjld/Desktop/AIoT_software/LiteOS_Lab_overseas/LiteOS_Lab/iot_link/oc/oc_lwm2m/atiny_lwm2m\object_binary_app_data_container.c ****         switch (data_array[i].id)
 615              		.loc 2 182 0
 616 0010 FB68     		ldr	r3, [r7, #12]
 617 0012 1B01     		lsls	r3, r3, #4
 618 0014 3A68     		ldr	r2, [r7]
 619 0016 1344     		add	r3, r3, r2
 620 0018 5B88     		ldrh	r3, [r3, #2]
 621 001a 002B     		cmp	r3, #0
 622 001c 00D0     		beq	.L41
 183:C:/Users/dtjld/Desktop/AIoT_software/LiteOS_Lab_overseas/LiteOS_Lab/iot_link/oc/oc_lwm2m/atiny_lwm2m\object_binary_app_data_container.c ****         {
 184:C:/Users/dtjld/Desktop/AIoT_software/LiteOS_Lab_overseas/LiteOS_Lab/iot_link/oc/oc_lwm2m/atiny_lwm2m\object_binary_app_data_container.c ****         case 0:
 185:C:/Users/dtjld/Desktop/AIoT_software/LiteOS_Lab_overseas/LiteOS_Lab/iot_link/oc/oc_lwm2m/atiny_lwm2m\object_binary_app_data_container.c ****             if(data_array[i].value.asBuffer.buffer != NULL)
 186:C:/Users/dtjld/Desktop/AIoT_software/LiteOS_Lab_overseas/LiteOS_Lab/iot_link/oc/oc_lwm2m/atiny_lwm2m\object_binary_app_data_container.c ****             {
 187:C:/Users/dtjld/Desktop/AIoT_software/LiteOS_Lab_overseas/LiteOS_Lab/iot_link/oc/oc_lwm2m/atiny_lwm2m\object_binary_app_data_container.c ****                 lwm2m_free(data_array[i].value.asBuffer.buffer);
 188:C:/Users/dtjld/Desktop/AIoT_software/LiteOS_Lab_overseas/LiteOS_Lab/iot_link/oc/oc_lwm2m/atiny_lwm2m\object_binary_app_data_container.c ****                 data_array[i].value.asBuffer.buffer = NULL;
 189:C:/Users/dtjld/Desktop/AIoT_software/LiteOS_Lab_overseas/LiteOS_Lab/iot_link/oc/oc_lwm2m/atiny_lwm2m\object_binary_app_data_container.c ****                 data_array[i].value.asBuffer.length = 0;
 190:C:/Users/dtjld/Desktop/AIoT_software/LiteOS_Lab_overseas/LiteOS_Lab/iot_link/oc/oc_lwm2m/atiny_lwm2m\object_binary_app_data_container.c ****             }
ARM GAS  C:\Users\dtjld\AppData\Local\Temp\ccKooWlR.s 			page 17


 191:C:/Users/dtjld/Desktop/AIoT_software/LiteOS_Lab_overseas/LiteOS_Lab/iot_link/oc/oc_lwm2m/atiny_lwm2m\object_binary_app_data_container.c ****             break;
 192:C:/Users/dtjld/Desktop/AIoT_software/LiteOS_Lab_overseas/LiteOS_Lab/iot_link/oc/oc_lwm2m/atiny_lwm2m\object_binary_app_data_container.c ****         default:
 193:C:/Users/dtjld/Desktop/AIoT_software/LiteOS_Lab_overseas/LiteOS_Lab/iot_link/oc/oc_lwm2m/atiny_lwm2m\object_binary_app_data_container.c ****             break;
 623              		.loc 2 193 0
 624 001e 1BE0     		b	.L43
 625              	.L41:
 185:C:/Users/dtjld/Desktop/AIoT_software/LiteOS_Lab_overseas/LiteOS_Lab/iot_link/oc/oc_lwm2m/atiny_lwm2m\object_binary_app_data_container.c ****             {
 626              		.loc 2 185 0
 627 0020 FB68     		ldr	r3, [r7, #12]
 628 0022 1B01     		lsls	r3, r3, #4
 629 0024 3A68     		ldr	r2, [r7]
 630 0026 1344     		add	r3, r3, r2
 631 0028 DB68     		ldr	r3, [r3, #12]
 632 002a 002B     		cmp	r3, #0
 633 002c 13D0     		beq	.L45
 187:C:/Users/dtjld/Desktop/AIoT_software/LiteOS_Lab_overseas/LiteOS_Lab/iot_link/oc/oc_lwm2m/atiny_lwm2m\object_binary_app_data_container.c ****                 data_array[i].value.asBuffer.buffer = NULL;
 634              		.loc 2 187 0
 635 002e FB68     		ldr	r3, [r7, #12]
 636 0030 1B01     		lsls	r3, r3, #4
 637 0032 3A68     		ldr	r2, [r7]
 638 0034 1344     		add	r3, r3, r2
 639 0036 DB68     		ldr	r3, [r3, #12]
 640 0038 1846     		mov	r0, r3
 641 003a FFF7FEFF 		bl	lwm2m_free
 188:C:/Users/dtjld/Desktop/AIoT_software/LiteOS_Lab_overseas/LiteOS_Lab/iot_link/oc/oc_lwm2m/atiny_lwm2m\object_binary_app_data_container.c ****                 data_array[i].value.asBuffer.length = 0;
 642              		.loc 2 188 0
 643 003e FB68     		ldr	r3, [r7, #12]
 644 0040 1B01     		lsls	r3, r3, #4
 645 0042 3A68     		ldr	r2, [r7]
 646 0044 1344     		add	r3, r3, r2
 647 0046 0022     		movs	r2, #0
 648 0048 DA60     		str	r2, [r3, #12]
 189:C:/Users/dtjld/Desktop/AIoT_software/LiteOS_Lab_overseas/LiteOS_Lab/iot_link/oc/oc_lwm2m/atiny_lwm2m\object_binary_app_data_container.c ****             }
 649              		.loc 2 189 0
 650 004a FB68     		ldr	r3, [r7, #12]
 651 004c 1B01     		lsls	r3, r3, #4
 652 004e 3A68     		ldr	r2, [r7]
 653 0050 1344     		add	r3, r3, r2
 654 0052 0022     		movs	r2, #0
 655 0054 9A60     		str	r2, [r3, #8]
 656              	.L45:
 191:C:/Users/dtjld/Desktop/AIoT_software/LiteOS_Lab_overseas/LiteOS_Lab/iot_link/oc/oc_lwm2m/atiny_lwm2m\object_binary_app_data_container.c ****         default:
 657              		.loc 2 191 0
 658 0056 00BF     		nop
 659              	.L43:
 180:C:/Users/dtjld/Desktop/AIoT_software/LiteOS_Lab_overseas/LiteOS_Lab/iot_link/oc/oc_lwm2m/atiny_lwm2m\object_binary_app_data_container.c ****     {
 660              		.loc 2 180 0 discriminator 2
 661 0058 FB68     		ldr	r3, [r7, #12]
 662 005a 0133     		adds	r3, r3, #1
 663 005c FB60     		str	r3, [r7, #12]
 664              	.L39:
 180:C:/Users/dtjld/Desktop/AIoT_software/LiteOS_Lab_overseas/LiteOS_Lab/iot_link/oc/oc_lwm2m/atiny_lwm2m\object_binary_app_data_container.c ****     {
 665              		.loc 2 180 0 is_stmt 0 discriminator 1
 666 005e FA68     		ldr	r2, [r7, #12]
 667 0060 7B68     		ldr	r3, [r7, #4]
 668 0062 9A42     		cmp	r2, r3
 669 0064 D4DB     		blt	.L44
ARM GAS  C:\Users\dtjld\AppData\Local\Temp\ccKooWlR.s 			page 18


 194:C:/Users/dtjld/Desktop/AIoT_software/LiteOS_Lab_overseas/LiteOS_Lab/iot_link/oc/oc_lwm2m/atiny_lwm2m\object_binary_app_data_container.c ****         }
 195:C:/Users/dtjld/Desktop/AIoT_software/LiteOS_Lab_overseas/LiteOS_Lab/iot_link/oc/oc_lwm2m/atiny_lwm2m\object_binary_app_data_container.c **** 
 196:C:/Users/dtjld/Desktop/AIoT_software/LiteOS_Lab_overseas/LiteOS_Lab/iot_link/oc/oc_lwm2m/atiny_lwm2m\object_binary_app_data_container.c ****     }
 197:C:/Users/dtjld/Desktop/AIoT_software/LiteOS_Lab_overseas/LiteOS_Lab/iot_link/oc/oc_lwm2m/atiny_lwm2m\object_binary_app_data_container.c **** 
 198:C:/Users/dtjld/Desktop/AIoT_software/LiteOS_Lab_overseas/LiteOS_Lab/iot_link/oc/oc_lwm2m/atiny_lwm2m\object_binary_app_data_container.c **** }
 670              		.loc 2 198 0 is_stmt 1
 671 0066 00BF     		nop
 672 0068 1037     		adds	r7, r7, #16
 673              	.LCFI19:
 674              		.cfi_def_cfa_offset 8
 675 006a BD46     		mov	sp, r7
 676              	.LCFI20:
 677              		.cfi_def_cfa_register 13
 678              		@ sp needed
 679 006c 80BD     		pop	{r7, pc}
 680              		.cfi_endproc
 681              	.LFE16:
 683              		.section	.rodata
 684 00a5 000000   		.align	2
 685              	.LC8:
 686 00a8 5B25735D 		.ascii	"[%s][%u][%s:%d] plat inst not found %d\015\012\000"
 686      5B25755D 
 686      5B25733A 
 686      25645D20 
 686      706C6174 
 687 00d1 000000   		.align	2
 688              	.LC9:
 689 00d4 5B25735D 		.ascii	"[%s][%u][%s:%d] lwm2m_data_new null\015\012\000"
 689      5B25755D 
 689      5B25733A 
 689      25645D20 
 689      6C776D32 
 690              		.section	.text.prv_read,"ax",%progbits
 691              		.align	1
 692              		.syntax unified
 693              		.thumb
 694              		.thumb_func
 695              		.fpu fpv4-sp-d16
 697              	prv_read:
 698              	.LFB17:
 199:C:/Users/dtjld/Desktop/AIoT_software/LiteOS_Lab_overseas/LiteOS_Lab/iot_link/oc/oc_lwm2m/atiny_lwm2m\object_binary_app_data_container.c **** 
 200:C:/Users/dtjld/Desktop/AIoT_software/LiteOS_Lab_overseas/LiteOS_Lab/iot_link/oc/oc_lwm2m/atiny_lwm2m\object_binary_app_data_container.c **** static uint8_t prv_read(uint16_t instanceId,
 201:C:/Users/dtjld/Desktop/AIoT_software/LiteOS_Lab_overseas/LiteOS_Lab/iot_link/oc/oc_lwm2m/atiny_lwm2m\object_binary_app_data_container.c ****                         int *numDataP,
 202:C:/Users/dtjld/Desktop/AIoT_software/LiteOS_Lab_overseas/LiteOS_Lab/iot_link/oc/oc_lwm2m/atiny_lwm2m\object_binary_app_data_container.c ****                         lwm2m_data_t **dataArrayP,
 203:C:/Users/dtjld/Desktop/AIoT_software/LiteOS_Lab_overseas/LiteOS_Lab/iot_link/oc/oc_lwm2m/atiny_lwm2m\object_binary_app_data_container.c ****                         lwm2m_data_cfg_t *dataCfg,
 204:C:/Users/dtjld/Desktop/AIoT_software/LiteOS_Lab_overseas/LiteOS_Lab/iot_link/oc/oc_lwm2m/atiny_lwm2m\object_binary_app_data_container.c ****                         lwm2m_object_t *objectP)
 205:C:/Users/dtjld/Desktop/AIoT_software/LiteOS_Lab_overseas/LiteOS_Lab/iot_link/oc/oc_lwm2m/atiny_lwm2m\object_binary_app_data_container.c **** {
 699              		.loc 2 205 0
 700              		.cfi_startproc
 701              		@ args = 4, pretend = 0, frame = 32
 702              		@ frame_needed = 1, uses_anonymous_args = 0
 703 0000 B0B5     		push	{r4, r5, r7, lr}
 704              	.LCFI21:
 705              		.cfi_def_cfa_offset 16
 706              		.cfi_offset 4, -16
 707              		.cfi_offset 5, -12
 708              		.cfi_offset 7, -8
ARM GAS  C:\Users\dtjld\AppData\Local\Temp\ccKooWlR.s 			page 19


 709              		.cfi_offset 14, -4
 710 0002 8AB0     		sub	sp, sp, #40
 711              	.LCFI22:
 712              		.cfi_def_cfa_offset 56
 713 0004 02AF     		add	r7, sp, #8
 714              	.LCFI23:
 715              		.cfi_def_cfa 7, 48
 716 0006 B960     		str	r1, [r7, #8]
 717 0008 7A60     		str	r2, [r7, #4]
 718 000a 3B60     		str	r3, [r7]
 719 000c 0346     		mov	r3, r0	@ movhi
 720 000e FB81     		strh	r3, [r7, #14]	@ movhi
 206:C:/Users/dtjld/Desktop/AIoT_software/LiteOS_Lab_overseas/LiteOS_Lab/iot_link/oc/oc_lwm2m/atiny_lwm2m\object_binary_app_data_container.c ****     plat_instance_t *targetP;
 207:C:/Users/dtjld/Desktop/AIoT_software/LiteOS_Lab_overseas/LiteOS_Lab/iot_link/oc/oc_lwm2m/atiny_lwm2m\object_binary_app_data_container.c ****     uint8_t ret;
 208:C:/Users/dtjld/Desktop/AIoT_software/LiteOS_Lab_overseas/LiteOS_Lab/iot_link/oc/oc_lwm2m/atiny_lwm2m\object_binary_app_data_container.c ****     int new_data_flag = false;
 721              		.loc 2 208 0
 722 0010 0023     		movs	r3, #0
 723 0012 FB61     		str	r3, [r7, #28]
 209:C:/Users/dtjld/Desktop/AIoT_software/LiteOS_Lab_overseas/LiteOS_Lab/iot_link/oc/oc_lwm2m/atiny_lwm2m\object_binary_app_data_container.c **** 
 210:C:/Users/dtjld/Desktop/AIoT_software/LiteOS_Lab_overseas/LiteOS_Lab/iot_link/oc/oc_lwm2m/atiny_lwm2m\object_binary_app_data_container.c **** 
 211:C:/Users/dtjld/Desktop/AIoT_software/LiteOS_Lab_overseas/LiteOS_Lab/iot_link/oc/oc_lwm2m/atiny_lwm2m\object_binary_app_data_container.c ****     targetP = (plat_instance_t *)lwm2m_list_find(objectP->instanceList, instanceId);
 724              		.loc 2 211 0
 725 0014 3B6B     		ldr	r3, [r7, #48]
 726 0016 9B68     		ldr	r3, [r3, #8]
 727 0018 FA89     		ldrh	r2, [r7, #14]
 728 001a 1146     		mov	r1, r2
 729 001c 1846     		mov	r0, r3
 730 001e FFF7FEFF 		bl	lwm2m_list_find
 731 0022 B861     		str	r0, [r7, #24]
 212:C:/Users/dtjld/Desktop/AIoT_software/LiteOS_Lab_overseas/LiteOS_Lab/iot_link/oc/oc_lwm2m/atiny_lwm2m\object_binary_app_data_container.c ****     if (NULL == targetP)
 732              		.loc 2 212 0
 733 0024 BB69     		ldr	r3, [r7, #24]
 734 0026 002B     		cmp	r3, #0
 735 0028 18D1     		bne	.L47
 213:C:/Users/dtjld/Desktop/AIoT_software/LiteOS_Lab_overseas/LiteOS_Lab/iot_link/oc/oc_lwm2m/atiny_lwm2m\object_binary_app_data_container.c ****     {
 214:C:/Users/dtjld/Desktop/AIoT_software/LiteOS_Lab_overseas/LiteOS_Lab/iot_link/oc/oc_lwm2m/atiny_lwm2m\object_binary_app_data_container.c ****         ATINY_LOG(LOG_ERR, "plat inst not found %d", instanceId);
 736              		.loc 2 214 0
 737 002a FFF7FEFF 		bl	atiny_get_log_level
 738 002e 0346     		mov	r3, r0
 739 0030 032B     		cmp	r3, #3
 740 0032 11D8     		bhi	.L48
 741              		.loc 2 214 0 is_stmt 0 discriminator 1
 742 0034 0320     		movs	r0, #3
 743 0036 FFF7FEFF 		bl	atiny_get_log_level_name
 744 003a 0546     		mov	r5, r0
 745 003c FFF7FEFF 		bl	osal_sys_time
 746 0040 0346     		mov	r3, r0
 747 0042 0C46     		mov	r4, r1
 748 0044 1A46     		mov	r2, r3
 749 0046 FB89     		ldrh	r3, [r7, #14]
 750 0048 0193     		str	r3, [sp, #4]
 751 004a D623     		movs	r3, #214
 752 004c 0093     		str	r3, [sp]
 753 004e 2D4B     		ldr	r3, .L54
 754 0050 2946     		mov	r1, r5
 755 0052 2D48     		ldr	r0, .L54+4
 756 0054 FFF7FEFF 		bl	atiny_printf
ARM GAS  C:\Users\dtjld\AppData\Local\Temp\ccKooWlR.s 			page 20


 757              	.L48:
 215:C:/Users/dtjld/Desktop/AIoT_software/LiteOS_Lab_overseas/LiteOS_Lab/iot_link/oc/oc_lwm2m/atiny_lwm2m\object_binary_app_data_container.c ****         return COAP_404_NOT_FOUND;
 758              		.loc 2 215 0 is_stmt 1
 759 0058 8423     		movs	r3, #132
 760 005a 4EE0     		b	.L49
 761              	.L47:
 216:C:/Users/dtjld/Desktop/AIoT_software/LiteOS_Lab_overseas/LiteOS_Lab/iot_link/oc/oc_lwm2m/atiny_lwm2m\object_binary_app_data_container.c ****     }
 217:C:/Users/dtjld/Desktop/AIoT_software/LiteOS_Lab_overseas/LiteOS_Lab/iot_link/oc/oc_lwm2m/atiny_lwm2m\object_binary_app_data_container.c **** 
 218:C:/Users/dtjld/Desktop/AIoT_software/LiteOS_Lab_overseas/LiteOS_Lab/iot_link/oc/oc_lwm2m/atiny_lwm2m\object_binary_app_data_container.c ****     if (*numDataP == 0)
 762              		.loc 2 218 0
 763 005c BB68     		ldr	r3, [r7, #8]
 764 005e 1B68     		ldr	r3, [r3]
 765 0060 002B     		cmp	r3, #0
 766 0062 29D1     		bne	.L50
 219:C:/Users/dtjld/Desktop/AIoT_software/LiteOS_Lab_overseas/LiteOS_Lab/iot_link/oc/oc_lwm2m/atiny_lwm2m\object_binary_app_data_container.c ****     {
 220:C:/Users/dtjld/Desktop/AIoT_software/LiteOS_Lab_overseas/LiteOS_Lab/iot_link/oc/oc_lwm2m/atiny_lwm2m\object_binary_app_data_container.c ****         *dataArrayP = lwm2m_data_new(1);
 767              		.loc 2 220 0
 768 0064 0120     		movs	r0, #1
 769 0066 FFF7FEFF 		bl	lwm2m_data_new
 770 006a 0246     		mov	r2, r0
 771 006c 7B68     		ldr	r3, [r7, #4]
 772 006e 1A60     		str	r2, [r3]
 221:C:/Users/dtjld/Desktop/AIoT_software/LiteOS_Lab_overseas/LiteOS_Lab/iot_link/oc/oc_lwm2m/atiny_lwm2m\object_binary_app_data_container.c ****         if (*dataArrayP == NULL)
 773              		.loc 2 221 0
 774 0070 7B68     		ldr	r3, [r7, #4]
 775 0072 1B68     		ldr	r3, [r3]
 776 0074 002B     		cmp	r3, #0
 777 0076 16D1     		bne	.L51
 222:C:/Users/dtjld/Desktop/AIoT_software/LiteOS_Lab_overseas/LiteOS_Lab/iot_link/oc/oc_lwm2m/atiny_lwm2m\object_binary_app_data_container.c ****         {
 223:C:/Users/dtjld/Desktop/AIoT_software/LiteOS_Lab_overseas/LiteOS_Lab/iot_link/oc/oc_lwm2m/atiny_lwm2m\object_binary_app_data_container.c ****             ATINY_LOG(LOG_ERR, "lwm2m_data_new null");
 778              		.loc 2 223 0
 779 0078 FFF7FEFF 		bl	atiny_get_log_level
 780 007c 0346     		mov	r3, r0
 781 007e 032B     		cmp	r3, #3
 782 0080 0FD8     		bhi	.L52
 783              		.loc 2 223 0 is_stmt 0 discriminator 1
 784 0082 0320     		movs	r0, #3
 785 0084 FFF7FEFF 		bl	atiny_get_log_level_name
 786 0088 0546     		mov	r5, r0
 787 008a FFF7FEFF 		bl	osal_sys_time
 788 008e 0346     		mov	r3, r0
 789 0090 0C46     		mov	r4, r1
 790 0092 1A46     		mov	r2, r3
 791 0094 DF23     		movs	r3, #223
 792 0096 0093     		str	r3, [sp]
 793 0098 1A4B     		ldr	r3, .L54
 794 009a 2946     		mov	r1, r5
 795 009c 1B48     		ldr	r0, .L54+8
 796 009e FFF7FEFF 		bl	atiny_printf
 797              	.L52:
 224:C:/Users/dtjld/Desktop/AIoT_software/LiteOS_Lab_overseas/LiteOS_Lab/iot_link/oc/oc_lwm2m/atiny_lwm2m\object_binary_app_data_container.c ****             return COAP_500_INTERNAL_SERVER_ERROR;
 798              		.loc 2 224 0 is_stmt 1
 799 00a2 A023     		movs	r3, #160
 800 00a4 29E0     		b	.L49
 801              	.L51:
 225:C:/Users/dtjld/Desktop/AIoT_software/LiteOS_Lab_overseas/LiteOS_Lab/iot_link/oc/oc_lwm2m/atiny_lwm2m\object_binary_app_data_container.c ****         }
 226:C:/Users/dtjld/Desktop/AIoT_software/LiteOS_Lab_overseas/LiteOS_Lab/iot_link/oc/oc_lwm2m/atiny_lwm2m\object_binary_app_data_container.c **** 
ARM GAS  C:\Users\dtjld\AppData\Local\Temp\ccKooWlR.s 			page 21


 227:C:/Users/dtjld/Desktop/AIoT_software/LiteOS_Lab_overseas/LiteOS_Lab/iot_link/oc/oc_lwm2m/atiny_lwm2m\object_binary_app_data_container.c ****         *numDataP = 1;
 802              		.loc 2 227 0
 803 00a6 BB68     		ldr	r3, [r7, #8]
 804 00a8 0122     		movs	r2, #1
 805 00aa 1A60     		str	r2, [r3]
 228:C:/Users/dtjld/Desktop/AIoT_software/LiteOS_Lab_overseas/LiteOS_Lab/iot_link/oc/oc_lwm2m/atiny_lwm2m\object_binary_app_data_container.c ****         (*dataArrayP)[0].id = 0;
 806              		.loc 2 228 0
 807 00ac 7B68     		ldr	r3, [r7, #4]
 808 00ae 1B68     		ldr	r3, [r3]
 809 00b0 0022     		movs	r2, #0
 810 00b2 5A80     		strh	r2, [r3, #2]	@ movhi
 229:C:/Users/dtjld/Desktop/AIoT_software/LiteOS_Lab_overseas/LiteOS_Lab/iot_link/oc/oc_lwm2m/atiny_lwm2m\object_binary_app_data_container.c ****         new_data_flag = true;
 811              		.loc 2 229 0
 812 00b4 0123     		movs	r3, #1
 813 00b6 FB61     		str	r3, [r7, #28]
 814              	.L50:
 230:C:/Users/dtjld/Desktop/AIoT_software/LiteOS_Lab_overseas/LiteOS_Lab/iot_link/oc/oc_lwm2m/atiny_lwm2m\object_binary_app_data_container.c ****     }
 231:C:/Users/dtjld/Desktop/AIoT_software/LiteOS_Lab_overseas/LiteOS_Lab/iot_link/oc/oc_lwm2m/atiny_lwm2m\object_binary_app_data_container.c **** 
 232:C:/Users/dtjld/Desktop/AIoT_software/LiteOS_Lab_overseas/LiteOS_Lab/iot_link/oc/oc_lwm2m/atiny_lwm2m\object_binary_app_data_container.c ****     ret = prv_read_data(targetP, *numDataP, *dataArrayP, dataCfg);
 815              		.loc 2 232 0
 816 00b8 BB68     		ldr	r3, [r7, #8]
 817 00ba 1968     		ldr	r1, [r3]
 818 00bc 7B68     		ldr	r3, [r7, #4]
 819 00be 1A68     		ldr	r2, [r3]
 820 00c0 3B68     		ldr	r3, [r7]
 821 00c2 B869     		ldr	r0, [r7, #24]
 822 00c4 FFF7FEFF 		bl	prv_read_data
 823 00c8 0346     		mov	r3, r0
 824 00ca FB75     		strb	r3, [r7, #23]
 233:C:/Users/dtjld/Desktop/AIoT_software/LiteOS_Lab_overseas/LiteOS_Lab/iot_link/oc/oc_lwm2m/atiny_lwm2m\object_binary_app_data_container.c ****     if(ret != COAP_205_CONTENT)
 825              		.loc 2 233 0
 826 00cc FB7D     		ldrb	r3, [r7, #23]	@ zero_extendqisi2
 827 00ce 452B     		cmp	r3, #69
 828 00d0 12D0     		beq	.L53
 234:C:/Users/dtjld/Desktop/AIoT_software/LiteOS_Lab_overseas/LiteOS_Lab/iot_link/oc/oc_lwm2m/atiny_lwm2m\object_binary_app_data_container.c ****     {
 235:C:/Users/dtjld/Desktop/AIoT_software/LiteOS_Lab_overseas/LiteOS_Lab/iot_link/oc/oc_lwm2m/atiny_lwm2m\object_binary_app_data_container.c **** 
 236:C:/Users/dtjld/Desktop/AIoT_software/LiteOS_Lab_overseas/LiteOS_Lab/iot_link/oc/oc_lwm2m/atiny_lwm2m\object_binary_app_data_container.c ****         prv_destroy_data_buf(*numDataP, *dataArrayP);
 829              		.loc 2 236 0
 830 00d2 BB68     		ldr	r3, [r7, #8]
 831 00d4 1A68     		ldr	r2, [r3]
 832 00d6 7B68     		ldr	r3, [r7, #4]
 833 00d8 1B68     		ldr	r3, [r3]
 834 00da 1946     		mov	r1, r3
 835 00dc 1046     		mov	r0, r2
 836 00de FFF7FEFF 		bl	prv_destroy_data_buf
 237:C:/Users/dtjld/Desktop/AIoT_software/LiteOS_Lab_overseas/LiteOS_Lab/iot_link/oc/oc_lwm2m/atiny_lwm2m\object_binary_app_data_container.c ****         if(new_data_flag)
 837              		.loc 2 237 0
 838 00e2 FB69     		ldr	r3, [r7, #28]
 839 00e4 002B     		cmp	r3, #0
 840 00e6 07D0     		beq	.L53
 238:C:/Users/dtjld/Desktop/AIoT_software/LiteOS_Lab_overseas/LiteOS_Lab/iot_link/oc/oc_lwm2m/atiny_lwm2m\object_binary_app_data_container.c ****         {
 239:C:/Users/dtjld/Desktop/AIoT_software/LiteOS_Lab_overseas/LiteOS_Lab/iot_link/oc/oc_lwm2m/atiny_lwm2m\object_binary_app_data_container.c ****             lwm2m_free(*dataArrayP);
 841              		.loc 2 239 0
 842 00e8 7B68     		ldr	r3, [r7, #4]
 843 00ea 1B68     		ldr	r3, [r3]
 844 00ec 1846     		mov	r0, r3
 845 00ee FFF7FEFF 		bl	lwm2m_free
ARM GAS  C:\Users\dtjld\AppData\Local\Temp\ccKooWlR.s 			page 22


 240:C:/Users/dtjld/Desktop/AIoT_software/LiteOS_Lab_overseas/LiteOS_Lab/iot_link/oc/oc_lwm2m/atiny_lwm2m\object_binary_app_data_container.c ****             *dataArrayP = NULL;
 846              		.loc 2 240 0
 847 00f2 7B68     		ldr	r3, [r7, #4]
 848 00f4 0022     		movs	r2, #0
 849 00f6 1A60     		str	r2, [r3]
 850              	.L53:
 241:C:/Users/dtjld/Desktop/AIoT_software/LiteOS_Lab_overseas/LiteOS_Lab/iot_link/oc/oc_lwm2m/atiny_lwm2m\object_binary_app_data_container.c ****         }
 242:C:/Users/dtjld/Desktop/AIoT_software/LiteOS_Lab_overseas/LiteOS_Lab/iot_link/oc/oc_lwm2m/atiny_lwm2m\object_binary_app_data_container.c ****     }
 243:C:/Users/dtjld/Desktop/AIoT_software/LiteOS_Lab_overseas/LiteOS_Lab/iot_link/oc/oc_lwm2m/atiny_lwm2m\object_binary_app_data_container.c **** 
 244:C:/Users/dtjld/Desktop/AIoT_software/LiteOS_Lab_overseas/LiteOS_Lab/iot_link/oc/oc_lwm2m/atiny_lwm2m\object_binary_app_data_container.c ****     return ret;
 851              		.loc 2 244 0
 852 00f8 FB7D     		ldrb	r3, [r7, #23]	@ zero_extendqisi2
 853              	.L49:
 245:C:/Users/dtjld/Desktop/AIoT_software/LiteOS_Lab_overseas/LiteOS_Lab/iot_link/oc/oc_lwm2m/atiny_lwm2m\object_binary_app_data_container.c **** }
 854              		.loc 2 245 0
 855 00fa 1846     		mov	r0, r3
 856 00fc 2037     		adds	r7, r7, #32
 857              	.LCFI24:
 858              		.cfi_def_cfa_offset 16
 859 00fe BD46     		mov	sp, r7
 860              	.LCFI25:
 861              		.cfi_def_cfa_register 13
 862              		@ sp needed
 863 0100 B0BD     		pop	{r4, r5, r7, pc}
 864              	.L55:
 865 0102 00BF     		.align	2
 866              	.L54:
 867 0104 00000000 		.word	__FUNCTION__.8924
 868 0108 A8000000 		.word	.LC8
 869 010c D4000000 		.word	.LC9
 870              		.cfi_endproc
 871              	.LFE17:
 873              		.section	.text.prv_discover,"ax",%progbits
 874              		.align	1
 875              		.syntax unified
 876              		.thumb
 877              		.thumb_func
 878              		.fpu fpv4-sp-d16
 880              	prv_discover:
 881              	.LFB18:
 246:C:/Users/dtjld/Desktop/AIoT_software/LiteOS_Lab_overseas/LiteOS_Lab/iot_link/oc/oc_lwm2m/atiny_lwm2m\object_binary_app_data_container.c **** 
 247:C:/Users/dtjld/Desktop/AIoT_software/LiteOS_Lab_overseas/LiteOS_Lab/iot_link/oc/oc_lwm2m/atiny_lwm2m\object_binary_app_data_container.c **** static uint8_t prv_discover(uint16_t instanceId,
 248:C:/Users/dtjld/Desktop/AIoT_software/LiteOS_Lab_overseas/LiteOS_Lab/iot_link/oc/oc_lwm2m/atiny_lwm2m\object_binary_app_data_container.c ****                             int *numDataP,
 249:C:/Users/dtjld/Desktop/AIoT_software/LiteOS_Lab_overseas/LiteOS_Lab/iot_link/oc/oc_lwm2m/atiny_lwm2m\object_binary_app_data_container.c ****                             lwm2m_data_t **dataArrayP,
 250:C:/Users/dtjld/Desktop/AIoT_software/LiteOS_Lab_overseas/LiteOS_Lab/iot_link/oc/oc_lwm2m/atiny_lwm2m\object_binary_app_data_container.c ****                             lwm2m_object_t *objectP)
 251:C:/Users/dtjld/Desktop/AIoT_software/LiteOS_Lab_overseas/LiteOS_Lab/iot_link/oc/oc_lwm2m/atiny_lwm2m\object_binary_app_data_container.c **** {
 882              		.loc 2 251 0
 883              		.cfi_startproc
 884              		@ args = 0, pretend = 0, frame = 24
 885              		@ frame_needed = 1, uses_anonymous_args = 0
 886 0000 80B5     		push	{r7, lr}
 887              	.LCFI26:
 888              		.cfi_def_cfa_offset 8
 889              		.cfi_offset 7, -8
 890              		.cfi_offset 14, -4
 891 0002 86B0     		sub	sp, sp, #24
 892              	.LCFI27:
ARM GAS  C:\Users\dtjld\AppData\Local\Temp\ccKooWlR.s 			page 23


 893              		.cfi_def_cfa_offset 32
 894 0004 00AF     		add	r7, sp, #0
 895              	.LCFI28:
 896              		.cfi_def_cfa_register 7
 897 0006 B960     		str	r1, [r7, #8]
 898 0008 7A60     		str	r2, [r7, #4]
 899 000a 3B60     		str	r3, [r7]
 900 000c 0346     		mov	r3, r0	@ movhi
 901 000e FB81     		strh	r3, [r7, #14]	@ movhi
 252:C:/Users/dtjld/Desktop/AIoT_software/LiteOS_Lab_overseas/LiteOS_Lab/iot_link/oc/oc_lwm2m/atiny_lwm2m\object_binary_app_data_container.c ****     int i;
 253:C:/Users/dtjld/Desktop/AIoT_software/LiteOS_Lab_overseas/LiteOS_Lab/iot_link/oc/oc_lwm2m/atiny_lwm2m\object_binary_app_data_container.c **** 
 254:C:/Users/dtjld/Desktop/AIoT_software/LiteOS_Lab_overseas/LiteOS_Lab/iot_link/oc/oc_lwm2m/atiny_lwm2m\object_binary_app_data_container.c ****     // is the server asking for the full object ?
 255:C:/Users/dtjld/Desktop/AIoT_software/LiteOS_Lab_overseas/LiteOS_Lab/iot_link/oc/oc_lwm2m/atiny_lwm2m\object_binary_app_data_container.c ****     if (*numDataP == 0)
 902              		.loc 2 255 0
 903 0010 BB68     		ldr	r3, [r7, #8]
 904 0012 1B68     		ldr	r3, [r3]
 905 0014 002B     		cmp	r3, #0
 906 0016 1DD1     		bne	.L57
 256:C:/Users/dtjld/Desktop/AIoT_software/LiteOS_Lab_overseas/LiteOS_Lab/iot_link/oc/oc_lwm2m/atiny_lwm2m\object_binary_app_data_container.c ****     {
 257:C:/Users/dtjld/Desktop/AIoT_software/LiteOS_Lab_overseas/LiteOS_Lab/iot_link/oc/oc_lwm2m/atiny_lwm2m\object_binary_app_data_container.c ****         *dataArrayP = lwm2m_data_new(3);
 907              		.loc 2 257 0
 908 0018 0320     		movs	r0, #3
 909 001a FFF7FEFF 		bl	lwm2m_data_new
 910 001e 0246     		mov	r2, r0
 911 0020 7B68     		ldr	r3, [r7, #4]
 912 0022 1A60     		str	r2, [r3]
 258:C:/Users/dtjld/Desktop/AIoT_software/LiteOS_Lab_overseas/LiteOS_Lab/iot_link/oc/oc_lwm2m/atiny_lwm2m\object_binary_app_data_container.c ****         if (*dataArrayP == NULL) return COAP_500_INTERNAL_SERVER_ERROR;
 913              		.loc 2 258 0
 914 0024 7B68     		ldr	r3, [r7, #4]
 915 0026 1B68     		ldr	r3, [r3]
 916 0028 002B     		cmp	r3, #0
 917 002a 01D1     		bne	.L58
 918              		.loc 2 258 0 is_stmt 0 discriminator 1
 919 002c A023     		movs	r3, #160
 920 002e 29E0     		b	.L59
 921              	.L58:
 259:C:/Users/dtjld/Desktop/AIoT_software/LiteOS_Lab_overseas/LiteOS_Lab/iot_link/oc/oc_lwm2m/atiny_lwm2m\object_binary_app_data_container.c ****         *numDataP = 3;
 922              		.loc 2 259 0 is_stmt 1
 923 0030 BB68     		ldr	r3, [r7, #8]
 924 0032 0322     		movs	r2, #3
 925 0034 1A60     		str	r2, [r3]
 260:C:/Users/dtjld/Desktop/AIoT_software/LiteOS_Lab_overseas/LiteOS_Lab/iot_link/oc/oc_lwm2m/atiny_lwm2m\object_binary_app_data_container.c ****         (*dataArrayP)[0].id = 1;
 926              		.loc 2 260 0
 927 0036 7B68     		ldr	r3, [r7, #4]
 928 0038 1B68     		ldr	r3, [r3]
 929 003a 0122     		movs	r2, #1
 930 003c 5A80     		strh	r2, [r3, #2]	@ movhi
 261:C:/Users/dtjld/Desktop/AIoT_software/LiteOS_Lab_overseas/LiteOS_Lab/iot_link/oc/oc_lwm2m/atiny_lwm2m\object_binary_app_data_container.c ****         (*dataArrayP)[1].id = 2;
 931              		.loc 2 261 0
 932 003e 7B68     		ldr	r3, [r7, #4]
 933 0040 1B68     		ldr	r3, [r3]
 934 0042 1033     		adds	r3, r3, #16
 935 0044 0222     		movs	r2, #2
 936 0046 5A80     		strh	r2, [r3, #2]	@ movhi
 262:C:/Users/dtjld/Desktop/AIoT_software/LiteOS_Lab_overseas/LiteOS_Lab/iot_link/oc/oc_lwm2m/atiny_lwm2m\object_binary_app_data_container.c ****         (*dataArrayP)[2].id = 3;
 937              		.loc 2 262 0
 938 0048 7B68     		ldr	r3, [r7, #4]
ARM GAS  C:\Users\dtjld\AppData\Local\Temp\ccKooWlR.s 			page 24


 939 004a 1B68     		ldr	r3, [r3]
 940 004c 2033     		adds	r3, r3, #32
 941 004e 0322     		movs	r2, #3
 942 0050 5A80     		strh	r2, [r3, #2]	@ movhi
 943 0052 16E0     		b	.L60
 944              	.L57:
 263:C:/Users/dtjld/Desktop/AIoT_software/LiteOS_Lab_overseas/LiteOS_Lab/iot_link/oc/oc_lwm2m/atiny_lwm2m\object_binary_app_data_container.c ****     }
 264:C:/Users/dtjld/Desktop/AIoT_software/LiteOS_Lab_overseas/LiteOS_Lab/iot_link/oc/oc_lwm2m/atiny_lwm2m\object_binary_app_data_container.c ****     else
 265:C:/Users/dtjld/Desktop/AIoT_software/LiteOS_Lab_overseas/LiteOS_Lab/iot_link/oc/oc_lwm2m/atiny_lwm2m\object_binary_app_data_container.c ****     {
 266:C:/Users/dtjld/Desktop/AIoT_software/LiteOS_Lab_overseas/LiteOS_Lab/iot_link/oc/oc_lwm2m/atiny_lwm2m\object_binary_app_data_container.c ****         for (i = 0; i < *numDataP; i++)
 945              		.loc 2 266 0
 946 0054 0023     		movs	r3, #0
 947 0056 7B61     		str	r3, [r7, #20]
 948 0058 0EE0     		b	.L61
 949              	.L65:
 267:C:/Users/dtjld/Desktop/AIoT_software/LiteOS_Lab_overseas/LiteOS_Lab/iot_link/oc/oc_lwm2m/atiny_lwm2m\object_binary_app_data_container.c ****         {
 268:C:/Users/dtjld/Desktop/AIoT_software/LiteOS_Lab_overseas/LiteOS_Lab/iot_link/oc/oc_lwm2m/atiny_lwm2m\object_binary_app_data_container.c ****             switch ((*dataArrayP)[i].id)
 950              		.loc 2 268 0
 951 005a 7B68     		ldr	r3, [r7, #4]
 952 005c 1A68     		ldr	r2, [r3]
 953 005e 7B69     		ldr	r3, [r7, #20]
 954 0060 1B01     		lsls	r3, r3, #4
 955 0062 1344     		add	r3, r3, r2
 956 0064 5B88     		ldrh	r3, [r3, #2]
 957 0066 013B     		subs	r3, r3, #1
 958 0068 022B     		cmp	r3, #2
 959 006a 01D9     		bls	.L67
 269:C:/Users/dtjld/Desktop/AIoT_software/LiteOS_Lab_overseas/LiteOS_Lab/iot_link/oc/oc_lwm2m/atiny_lwm2m\object_binary_app_data_container.c ****             {
 270:C:/Users/dtjld/Desktop/AIoT_software/LiteOS_Lab_overseas/LiteOS_Lab/iot_link/oc/oc_lwm2m/atiny_lwm2m\object_binary_app_data_container.c ****             case 1:
 271:C:/Users/dtjld/Desktop/AIoT_software/LiteOS_Lab_overseas/LiteOS_Lab/iot_link/oc/oc_lwm2m/atiny_lwm2m\object_binary_app_data_container.c ****             case 2:
 272:C:/Users/dtjld/Desktop/AIoT_software/LiteOS_Lab_overseas/LiteOS_Lab/iot_link/oc/oc_lwm2m/atiny_lwm2m\object_binary_app_data_container.c ****             case 3:
 273:C:/Users/dtjld/Desktop/AIoT_software/LiteOS_Lab_overseas/LiteOS_Lab/iot_link/oc/oc_lwm2m/atiny_lwm2m\object_binary_app_data_container.c ****                 break;
 274:C:/Users/dtjld/Desktop/AIoT_software/LiteOS_Lab_overseas/LiteOS_Lab/iot_link/oc/oc_lwm2m/atiny_lwm2m\object_binary_app_data_container.c ****             default:
 275:C:/Users/dtjld/Desktop/AIoT_software/LiteOS_Lab_overseas/LiteOS_Lab/iot_link/oc/oc_lwm2m/atiny_lwm2m\object_binary_app_data_container.c ****                 return COAP_404_NOT_FOUND;
 960              		.loc 2 275 0
 961 006c 8423     		movs	r3, #132
 962 006e 09E0     		b	.L59
 963              	.L67:
 273:C:/Users/dtjld/Desktop/AIoT_software/LiteOS_Lab_overseas/LiteOS_Lab/iot_link/oc/oc_lwm2m/atiny_lwm2m\object_binary_app_data_container.c ****             default:
 964              		.loc 2 273 0
 965 0070 00BF     		nop
 266:C:/Users/dtjld/Desktop/AIoT_software/LiteOS_Lab_overseas/LiteOS_Lab/iot_link/oc/oc_lwm2m/atiny_lwm2m\object_binary_app_data_container.c ****         {
 966              		.loc 2 266 0
 967 0072 7B69     		ldr	r3, [r7, #20]
 968 0074 0133     		adds	r3, r3, #1
 969 0076 7B61     		str	r3, [r7, #20]
 970              	.L61:
 266:C:/Users/dtjld/Desktop/AIoT_software/LiteOS_Lab_overseas/LiteOS_Lab/iot_link/oc/oc_lwm2m/atiny_lwm2m\object_binary_app_data_container.c ****         {
 971              		.loc 2 266 0 is_stmt 0 discriminator 1
 972 0078 BB68     		ldr	r3, [r7, #8]
 973 007a 1B68     		ldr	r3, [r3]
 974 007c 7A69     		ldr	r2, [r7, #20]
 975 007e 9A42     		cmp	r2, r3
 976 0080 EBDB     		blt	.L65
 977              	.L60:
 276:C:/Users/dtjld/Desktop/AIoT_software/LiteOS_Lab_overseas/LiteOS_Lab/iot_link/oc/oc_lwm2m/atiny_lwm2m\object_binary_app_data_container.c ****             }
 277:C:/Users/dtjld/Desktop/AIoT_software/LiteOS_Lab_overseas/LiteOS_Lab/iot_link/oc/oc_lwm2m/atiny_lwm2m\object_binary_app_data_container.c ****         }
ARM GAS  C:\Users\dtjld\AppData\Local\Temp\ccKooWlR.s 			page 25


 278:C:/Users/dtjld/Desktop/AIoT_software/LiteOS_Lab_overseas/LiteOS_Lab/iot_link/oc/oc_lwm2m/atiny_lwm2m\object_binary_app_data_container.c ****     }
 279:C:/Users/dtjld/Desktop/AIoT_software/LiteOS_Lab_overseas/LiteOS_Lab/iot_link/oc/oc_lwm2m/atiny_lwm2m\object_binary_app_data_container.c **** 
 280:C:/Users/dtjld/Desktop/AIoT_software/LiteOS_Lab_overseas/LiteOS_Lab/iot_link/oc/oc_lwm2m/atiny_lwm2m\object_binary_app_data_container.c ****     return COAP_205_CONTENT;
 978              		.loc 2 280 0 is_stmt 1
 979 0082 4523     		movs	r3, #69
 980              	.L59:
 281:C:/Users/dtjld/Desktop/AIoT_software/LiteOS_Lab_overseas/LiteOS_Lab/iot_link/oc/oc_lwm2m/atiny_lwm2m\object_binary_app_data_container.c **** }
 981              		.loc 2 281 0
 982 0084 1846     		mov	r0, r3
 983 0086 1837     		adds	r7, r7, #24
 984              	.LCFI29:
 985              		.cfi_def_cfa_offset 8
 986 0088 BD46     		mov	sp, r7
 987              	.LCFI30:
 988              		.cfi_def_cfa_register 13
 989              		@ sp needed
 990 008a 80BD     		pop	{r7, pc}
 991              		.cfi_endproc
 992              	.LFE18:
 994              		.section	.text.prv_write,"ax",%progbits
 995              		.align	1
 996              		.syntax unified
 997              		.thumb
 998              		.thumb_func
 999              		.fpu fpv4-sp-d16
 1001              	prv_write:
 1002              	.LFB19:
 282:C:/Users/dtjld/Desktop/AIoT_software/LiteOS_Lab_overseas/LiteOS_Lab/iot_link/oc/oc_lwm2m/atiny_lwm2m\object_binary_app_data_container.c **** 
 283:C:/Users/dtjld/Desktop/AIoT_software/LiteOS_Lab_overseas/LiteOS_Lab/iot_link/oc/oc_lwm2m/atiny_lwm2m\object_binary_app_data_container.c **** static uint8_t prv_write(uint16_t instanceId,
 284:C:/Users/dtjld/Desktop/AIoT_software/LiteOS_Lab_overseas/LiteOS_Lab/iot_link/oc/oc_lwm2m/atiny_lwm2m\object_binary_app_data_container.c ****                          int numData,
 285:C:/Users/dtjld/Desktop/AIoT_software/LiteOS_Lab_overseas/LiteOS_Lab/iot_link/oc/oc_lwm2m/atiny_lwm2m\object_binary_app_data_container.c ****                          lwm2m_data_t *dataArray,
 286:C:/Users/dtjld/Desktop/AIoT_software/LiteOS_Lab_overseas/LiteOS_Lab/iot_link/oc/oc_lwm2m/atiny_lwm2m\object_binary_app_data_container.c ****                          lwm2m_object_t *objectP)
 287:C:/Users/dtjld/Desktop/AIoT_software/LiteOS_Lab_overseas/LiteOS_Lab/iot_link/oc/oc_lwm2m/atiny_lwm2m\object_binary_app_data_container.c **** {
 1003              		.loc 2 287 0
 1004              		.cfi_startproc
 1005              		@ args = 0, pretend = 0, frame = 24
 1006              		@ frame_needed = 1, uses_anonymous_args = 0
 1007 0000 80B5     		push	{r7, lr}
 1008              	.LCFI31:
 1009              		.cfi_def_cfa_offset 8
 1010              		.cfi_offset 7, -8
 1011              		.cfi_offset 14, -4
 1012 0002 86B0     		sub	sp, sp, #24
 1013              	.LCFI32:
 1014              		.cfi_def_cfa_offset 32
 1015 0004 00AF     		add	r7, sp, #0
 1016              	.LCFI33:
 1017              		.cfi_def_cfa_register 7
 1018 0006 B960     		str	r1, [r7, #8]
 1019 0008 7A60     		str	r2, [r7, #4]
 1020 000a 3B60     		str	r3, [r7]
 1021 000c 0346     		mov	r3, r0	@ movhi
 1022 000e FB81     		strh	r3, [r7, #14]	@ movhi
 288:C:/Users/dtjld/Desktop/AIoT_software/LiteOS_Lab_overseas/LiteOS_Lab/iot_link/oc/oc_lwm2m/atiny_lwm2m\object_binary_app_data_container.c ****     plat_instance_t *targetP;
 289:C:/Users/dtjld/Desktop/AIoT_software/LiteOS_Lab_overseas/LiteOS_Lab/iot_link/oc/oc_lwm2m/atiny_lwm2m\object_binary_app_data_container.c ****     int i;
 290:C:/Users/dtjld/Desktop/AIoT_software/LiteOS_Lab_overseas/LiteOS_Lab/iot_link/oc/oc_lwm2m/atiny_lwm2m\object_binary_app_data_container.c **** 
 291:C:/Users/dtjld/Desktop/AIoT_software/LiteOS_Lab_overseas/LiteOS_Lab/iot_link/oc/oc_lwm2m/atiny_lwm2m\object_binary_app_data_container.c ****     targetP = (plat_instance_t *)lwm2m_list_find(objectP->instanceList, instanceId);
ARM GAS  C:\Users\dtjld\AppData\Local\Temp\ccKooWlR.s 			page 26


 1023              		.loc 2 291 0
 1024 0010 3B68     		ldr	r3, [r7]
 1025 0012 9B68     		ldr	r3, [r3, #8]
 1026 0014 FA89     		ldrh	r2, [r7, #14]
 1027 0016 1146     		mov	r1, r2
 1028 0018 1846     		mov	r0, r3
 1029 001a FFF7FEFF 		bl	lwm2m_list_find
 1030 001e 3861     		str	r0, [r7, #16]
 292:C:/Users/dtjld/Desktop/AIoT_software/LiteOS_Lab_overseas/LiteOS_Lab/iot_link/oc/oc_lwm2m/atiny_lwm2m\object_binary_app_data_container.c ****     if (NULL == targetP) return COAP_404_NOT_FOUND;
 1031              		.loc 2 292 0
 1032 0020 3B69     		ldr	r3, [r7, #16]
 1033 0022 002B     		cmp	r3, #0
 1034 0024 01D1     		bne	.L69
 1035              		.loc 2 292 0 is_stmt 0 discriminator 1
 1036 0026 8423     		movs	r3, #132
 1037 0028 1FE0     		b	.L70
 1038              	.L69:
 293:C:/Users/dtjld/Desktop/AIoT_software/LiteOS_Lab_overseas/LiteOS_Lab/iot_link/oc/oc_lwm2m/atiny_lwm2m\object_binary_app_data_container.c **** 
 294:C:/Users/dtjld/Desktop/AIoT_software/LiteOS_Lab_overseas/LiteOS_Lab/iot_link/oc/oc_lwm2m/atiny_lwm2m\object_binary_app_data_container.c ****     for (i = 0 ; i < numData ; i++)
 1039              		.loc 2 294 0 is_stmt 1
 1040 002a 0023     		movs	r3, #0
 1041 002c 7B61     		str	r3, [r7, #20]
 1042 002e 17E0     		b	.L71
 1043              	.L75:
 295:C:/Users/dtjld/Desktop/AIoT_software/LiteOS_Lab_overseas/LiteOS_Lab/iot_link/oc/oc_lwm2m/atiny_lwm2m\object_binary_app_data_container.c ****     {
 296:C:/Users/dtjld/Desktop/AIoT_software/LiteOS_Lab_overseas/LiteOS_Lab/iot_link/oc/oc_lwm2m/atiny_lwm2m\object_binary_app_data_container.c ****         switch (dataArray[i].id)
 1044              		.loc 2 296 0
 1045 0030 7B69     		ldr	r3, [r7, #20]
 1046 0032 1B01     		lsls	r3, r3, #4
 1047 0034 7A68     		ldr	r2, [r7, #4]
 1048 0036 1344     		add	r3, r3, r2
 1049 0038 5B88     		ldrh	r3, [r3, #2]
 1050 003a 002B     		cmp	r3, #0
 1051 003c 0BD1     		bne	.L76
 297:C:/Users/dtjld/Desktop/AIoT_software/LiteOS_Lab_overseas/LiteOS_Lab/iot_link/oc/oc_lwm2m/atiny_lwm2m\object_binary_app_data_container.c ****         {
 298:C:/Users/dtjld/Desktop/AIoT_software/LiteOS_Lab_overseas/LiteOS_Lab/iot_link/oc/oc_lwm2m/atiny_lwm2m\object_binary_app_data_container.c ****         case 0:
 299:C:/Users/dtjld/Desktop/AIoT_software/LiteOS_Lab_overseas/LiteOS_Lab/iot_link/oc/oc_lwm2m/atiny_lwm2m\object_binary_app_data_container.c ****         {
 300:C:/Users/dtjld/Desktop/AIoT_software/LiteOS_Lab_overseas/LiteOS_Lab/iot_link/oc/oc_lwm2m/atiny_lwm2m\object_binary_app_data_container.c ****             (void)atiny_cmd_ioctl(ATINY_WRITE_APP_DATA, (char *)(dataArray[i].value.asBuffer.buffer
 1052              		.loc 2 300 0
 1053 003e 7B69     		ldr	r3, [r7, #20]
 1054 0040 1B01     		lsls	r3, r3, #4
 1055 0042 7A68     		ldr	r2, [r7, #4]
 1056 0044 1344     		add	r3, r3, r2
 1057 0046 D968     		ldr	r1, [r3, #12]
 1058 0048 7B68     		ldr	r3, [r7, #4]
 1059 004a 9B68     		ldr	r3, [r3, #8]
 1060 004c 1A46     		mov	r2, r3
 1061 004e 1A20     		movs	r0, #26
 1062 0050 FFF7FEFF 		bl	atiny_cmd_ioctl
 301:C:/Users/dtjld/Desktop/AIoT_software/LiteOS_Lab_overseas/LiteOS_Lab/iot_link/oc/oc_lwm2m/atiny_lwm2m\object_binary_app_data_container.c ****             break;
 1063              		.loc 2 301 0
 1064 0054 01E0     		b	.L77
 1065              	.L76:
 302:C:/Users/dtjld/Desktop/AIoT_software/LiteOS_Lab_overseas/LiteOS_Lab/iot_link/oc/oc_lwm2m/atiny_lwm2m\object_binary_app_data_container.c ****         }
 303:C:/Users/dtjld/Desktop/AIoT_software/LiteOS_Lab_overseas/LiteOS_Lab/iot_link/oc/oc_lwm2m/atiny_lwm2m\object_binary_app_data_container.c ****         default:
 304:C:/Users/dtjld/Desktop/AIoT_software/LiteOS_Lab_overseas/LiteOS_Lab/iot_link/oc/oc_lwm2m/atiny_lwm2m\object_binary_app_data_container.c ****             return COAP_404_NOT_FOUND;
 1066              		.loc 2 304 0
ARM GAS  C:\Users\dtjld\AppData\Local\Temp\ccKooWlR.s 			page 27


 1067 0056 8423     		movs	r3, #132
 1068 0058 07E0     		b	.L70
 1069              	.L77:
 294:C:/Users/dtjld/Desktop/AIoT_software/LiteOS_Lab_overseas/LiteOS_Lab/iot_link/oc/oc_lwm2m/atiny_lwm2m\object_binary_app_data_container.c ****     {
 1070              		.loc 2 294 0 discriminator 2
 1071 005a 7B69     		ldr	r3, [r7, #20]
 1072 005c 0133     		adds	r3, r3, #1
 1073 005e 7B61     		str	r3, [r7, #20]
 1074              	.L71:
 294:C:/Users/dtjld/Desktop/AIoT_software/LiteOS_Lab_overseas/LiteOS_Lab/iot_link/oc/oc_lwm2m/atiny_lwm2m\object_binary_app_data_container.c ****     {
 1075              		.loc 2 294 0 is_stmt 0 discriminator 1
 1076 0060 7A69     		ldr	r2, [r7, #20]
 1077 0062 BB68     		ldr	r3, [r7, #8]
 1078 0064 9A42     		cmp	r2, r3
 1079 0066 E3DB     		blt	.L75
 305:C:/Users/dtjld/Desktop/AIoT_software/LiteOS_Lab_overseas/LiteOS_Lab/iot_link/oc/oc_lwm2m/atiny_lwm2m\object_binary_app_data_container.c ****         }
 306:C:/Users/dtjld/Desktop/AIoT_software/LiteOS_Lab_overseas/LiteOS_Lab/iot_link/oc/oc_lwm2m/atiny_lwm2m\object_binary_app_data_container.c ****     }
 307:C:/Users/dtjld/Desktop/AIoT_software/LiteOS_Lab_overseas/LiteOS_Lab/iot_link/oc/oc_lwm2m/atiny_lwm2m\object_binary_app_data_container.c **** 
 308:C:/Users/dtjld/Desktop/AIoT_software/LiteOS_Lab_overseas/LiteOS_Lab/iot_link/oc/oc_lwm2m/atiny_lwm2m\object_binary_app_data_container.c ****     return COAP_204_CHANGED;
 1080              		.loc 2 308 0 is_stmt 1
 1081 0068 4423     		movs	r3, #68
 1082              	.L70:
 309:C:/Users/dtjld/Desktop/AIoT_software/LiteOS_Lab_overseas/LiteOS_Lab/iot_link/oc/oc_lwm2m/atiny_lwm2m\object_binary_app_data_container.c **** }
 1083              		.loc 2 309 0
 1084 006a 1846     		mov	r0, r3
 1085 006c 1837     		adds	r7, r7, #24
 1086              	.LCFI34:
 1087              		.cfi_def_cfa_offset 8
 1088 006e BD46     		mov	sp, r7
 1089              	.LCFI35:
 1090              		.cfi_def_cfa_register 13
 1091              		@ sp needed
 1092 0070 80BD     		pop	{r7, pc}
 1093              		.cfi_endproc
 1094              	.LFE19:
 1096              		.section	.text.prv_delete,"ax",%progbits
 1097              		.align	1
 1098              		.syntax unified
 1099              		.thumb
 1100              		.thumb_func
 1101              		.fpu fpv4-sp-d16
 1103              	prv_delete:
 1104              	.LFB20:
 310:C:/Users/dtjld/Desktop/AIoT_software/LiteOS_Lab_overseas/LiteOS_Lab/iot_link/oc/oc_lwm2m/atiny_lwm2m\object_binary_app_data_container.c **** 
 311:C:/Users/dtjld/Desktop/AIoT_software/LiteOS_Lab_overseas/LiteOS_Lab/iot_link/oc/oc_lwm2m/atiny_lwm2m\object_binary_app_data_container.c **** 
 312:C:/Users/dtjld/Desktop/AIoT_software/LiteOS_Lab_overseas/LiteOS_Lab/iot_link/oc/oc_lwm2m/atiny_lwm2m\object_binary_app_data_container.c **** static uint8_t prv_delete(uint16_t id,
 313:C:/Users/dtjld/Desktop/AIoT_software/LiteOS_Lab_overseas/LiteOS_Lab/iot_link/oc/oc_lwm2m/atiny_lwm2m\object_binary_app_data_container.c ****                           lwm2m_object_t *objectP)
 314:C:/Users/dtjld/Desktop/AIoT_software/LiteOS_Lab_overseas/LiteOS_Lab/iot_link/oc/oc_lwm2m/atiny_lwm2m\object_binary_app_data_container.c **** {
 1105              		.loc 2 314 0
 1106              		.cfi_startproc
 1107              		@ args = 0, pretend = 0, frame = 24
 1108              		@ frame_needed = 1, uses_anonymous_args = 0
 1109 0000 80B5     		push	{r7, lr}
 1110              	.LCFI36:
 1111              		.cfi_def_cfa_offset 8
 1112              		.cfi_offset 7, -8
 1113              		.cfi_offset 14, -4
ARM GAS  C:\Users\dtjld\AppData\Local\Temp\ccKooWlR.s 			page 28


 1114 0002 86B0     		sub	sp, sp, #24
 1115              	.LCFI37:
 1116              		.cfi_def_cfa_offset 32
 1117 0004 00AF     		add	r7, sp, #0
 1118              	.LCFI38:
 1119              		.cfi_def_cfa_register 7
 1120 0006 0346     		mov	r3, r0
 1121 0008 3960     		str	r1, [r7]
 1122 000a FB80     		strh	r3, [r7, #6]	@ movhi
 315:C:/Users/dtjld/Desktop/AIoT_software/LiteOS_Lab_overseas/LiteOS_Lab/iot_link/oc/oc_lwm2m/atiny_lwm2m\object_binary_app_data_container.c ****     plat_instance_t *targetP;
 316:C:/Users/dtjld/Desktop/AIoT_software/LiteOS_Lab_overseas/LiteOS_Lab/iot_link/oc/oc_lwm2m/atiny_lwm2m\object_binary_app_data_container.c ****     lwm2m_uri_t uri;
 317:C:/Users/dtjld/Desktop/AIoT_software/LiteOS_Lab_overseas/LiteOS_Lab/iot_link/oc/oc_lwm2m/atiny_lwm2m\object_binary_app_data_container.c **** 
 318:C:/Users/dtjld/Desktop/AIoT_software/LiteOS_Lab_overseas/LiteOS_Lab/iot_link/oc/oc_lwm2m/atiny_lwm2m\object_binary_app_data_container.c ****     objectP->instanceList = lwm2m_list_remove(objectP->instanceList, id, (lwm2m_list_t **)&targetP)
 1123              		.loc 2 318 0
 1124 000c 3B68     		ldr	r3, [r7]
 1125 000e 9B68     		ldr	r3, [r3, #8]
 1126 0010 07F11402 		add	r2, r7, #20
 1127 0014 F988     		ldrh	r1, [r7, #6]
 1128 0016 1846     		mov	r0, r3
 1129 0018 FFF7FEFF 		bl	lwm2m_list_remove
 1130 001c 0246     		mov	r2, r0
 1131 001e 3B68     		ldr	r3, [r7]
 1132 0020 9A60     		str	r2, [r3, #8]
 319:C:/Users/dtjld/Desktop/AIoT_software/LiteOS_Lab_overseas/LiteOS_Lab/iot_link/oc/oc_lwm2m/atiny_lwm2m\object_binary_app_data_container.c ****     if (NULL == targetP) return COAP_404_NOT_FOUND;
 1133              		.loc 2 319 0
 1134 0022 7B69     		ldr	r3, [r7, #20]
 1135 0024 002B     		cmp	r3, #0
 1136 0026 01D1     		bne	.L79
 1137              		.loc 2 319 0 is_stmt 0 discriminator 1
 1138 0028 8423     		movs	r3, #132
 1139 002a 12E0     		b	.L81
 1140              	.L79:
 320:C:/Users/dtjld/Desktop/AIoT_software/LiteOS_Lab_overseas/LiteOS_Lab/iot_link/oc/oc_lwm2m/atiny_lwm2m\object_binary_app_data_container.c **** 
 321:C:/Users/dtjld/Desktop/AIoT_software/LiteOS_Lab_overseas/LiteOS_Lab/iot_link/oc/oc_lwm2m/atiny_lwm2m\object_binary_app_data_container.c ****     get_resource_uri(objectP->objID,  targetP->shortID,  BINARY_APP_DATA_RES_ID, &uri);
 1141              		.loc 2 321 0 is_stmt 1
 1142 002c 3B68     		ldr	r3, [r7]
 1143 002e 9888     		ldrh	r0, [r3, #4]
 1144 0030 7B69     		ldr	r3, [r7, #20]
 1145 0032 9988     		ldrh	r1, [r3, #4]
 1146 0034 07F10C03 		add	r3, r7, #12
 1147 0038 0022     		movs	r2, #0
 1148 003a FFF7FEFF 		bl	get_resource_uri
 322:C:/Users/dtjld/Desktop/AIoT_software/LiteOS_Lab_overseas/LiteOS_Lab/iot_link/oc/oc_lwm2m/atiny_lwm2m\object_binary_app_data_container.c ****     (void)atiny_rm_rpt_uri(&uri);
 1149              		.loc 2 322 0
 1150 003e 07F10C03 		add	r3, r7, #12
 1151 0042 1846     		mov	r0, r3
 1152 0044 FFF7FEFF 		bl	atiny_rm_rpt_uri
 323:C:/Users/dtjld/Desktop/AIoT_software/LiteOS_Lab_overseas/LiteOS_Lab/iot_link/oc/oc_lwm2m/atiny_lwm2m\object_binary_app_data_container.c ****     lwm2m_free(targetP);
 1153              		.loc 2 323 0
 1154 0048 7B69     		ldr	r3, [r7, #20]
 1155 004a 1846     		mov	r0, r3
 1156 004c FFF7FEFF 		bl	lwm2m_free
 324:C:/Users/dtjld/Desktop/AIoT_software/LiteOS_Lab_overseas/LiteOS_Lab/iot_link/oc/oc_lwm2m/atiny_lwm2m\object_binary_app_data_container.c **** 
 325:C:/Users/dtjld/Desktop/AIoT_software/LiteOS_Lab_overseas/LiteOS_Lab/iot_link/oc/oc_lwm2m/atiny_lwm2m\object_binary_app_data_container.c ****     return COAP_202_DELETED;
 1157              		.loc 2 325 0
 1158 0050 4223     		movs	r3, #66
 1159              	.L81:
ARM GAS  C:\Users\dtjld\AppData\Local\Temp\ccKooWlR.s 			page 29


 326:C:/Users/dtjld/Desktop/AIoT_software/LiteOS_Lab_overseas/LiteOS_Lab/iot_link/oc/oc_lwm2m/atiny_lwm2m\object_binary_app_data_container.c **** }
 1160              		.loc 2 326 0 discriminator 1
 1161 0052 1846     		mov	r0, r3
 1162 0054 1837     		adds	r7, r7, #24
 1163              	.LCFI39:
 1164              		.cfi_def_cfa_offset 8
 1165 0056 BD46     		mov	sp, r7
 1166              	.LCFI40:
 1167              		.cfi_def_cfa_register 13
 1168              		@ sp needed
 1169 0058 80BD     		pop	{r7, pc}
 1170              		.cfi_endproc
 1171              	.LFE20:
 1173              		.section	.rodata
 1174 00fa 0000     		.align	2
 1175              	.LC10:
 1176 00fc 5B25735D 		.ascii	"[%s][%u][%s:%d] atiny_add_rpt_uri fail %d\015\012\000"
 1176      5B25755D 
 1176      5B25733A 
 1176      25645D20 
 1176      6174696E 
 1177              		.section	.text.prv_create,"ax",%progbits
 1178              		.align	1
 1179              		.syntax unified
 1180              		.thumb
 1181              		.thumb_func
 1182              		.fpu fpv4-sp-d16
 1184              	prv_create:
 1185              	.LFB21:
 327:C:/Users/dtjld/Desktop/AIoT_software/LiteOS_Lab_overseas/LiteOS_Lab/iot_link/oc/oc_lwm2m/atiny_lwm2m\object_binary_app_data_container.c **** 
 328:C:/Users/dtjld/Desktop/AIoT_software/LiteOS_Lab_overseas/LiteOS_Lab/iot_link/oc/oc_lwm2m/atiny_lwm2m\object_binary_app_data_container.c **** static uint8_t prv_create(uint16_t instanceId,
 329:C:/Users/dtjld/Desktop/AIoT_software/LiteOS_Lab_overseas/LiteOS_Lab/iot_link/oc/oc_lwm2m/atiny_lwm2m\object_binary_app_data_container.c ****                           int numData,
 330:C:/Users/dtjld/Desktop/AIoT_software/LiteOS_Lab_overseas/LiteOS_Lab/iot_link/oc/oc_lwm2m/atiny_lwm2m\object_binary_app_data_container.c ****                           lwm2m_data_t *dataArray,
 331:C:/Users/dtjld/Desktop/AIoT_software/LiteOS_Lab_overseas/LiteOS_Lab/iot_link/oc/oc_lwm2m/atiny_lwm2m\object_binary_app_data_container.c ****                           lwm2m_object_t *objectP)
 332:C:/Users/dtjld/Desktop/AIoT_software/LiteOS_Lab_overseas/LiteOS_Lab/iot_link/oc/oc_lwm2m/atiny_lwm2m\object_binary_app_data_container.c **** {
 1186              		.loc 2 332 0
 1187              		.cfi_startproc
 1188              		@ args = 0, pretend = 0, frame = 40
 1189              		@ frame_needed = 1, uses_anonymous_args = 0
 1190 0000 B0B5     		push	{r4, r5, r7, lr}
 1191              	.LCFI41:
 1192              		.cfi_def_cfa_offset 16
 1193              		.cfi_offset 4, -16
 1194              		.cfi_offset 5, -12
 1195              		.cfi_offset 7, -8
 1196              		.cfi_offset 14, -4
 1197 0002 8CB0     		sub	sp, sp, #48
 1198              	.LCFI42:
 1199              		.cfi_def_cfa_offset 64
 1200 0004 02AF     		add	r7, sp, #8
 1201              	.LCFI43:
 1202              		.cfi_def_cfa 7, 56
 1203 0006 B960     		str	r1, [r7, #8]
 1204 0008 7A60     		str	r2, [r7, #4]
 1205 000a 3B60     		str	r3, [r7]
 1206 000c 0346     		mov	r3, r0	@ movhi
 1207 000e FB81     		strh	r3, [r7, #14]	@ movhi
ARM GAS  C:\Users\dtjld\AppData\Local\Temp\ccKooWlR.s 			page 30


 333:C:/Users/dtjld/Desktop/AIoT_software/LiteOS_Lab_overseas/LiteOS_Lab/iot_link/oc/oc_lwm2m/atiny_lwm2m\object_binary_app_data_container.c ****     plat_instance_t *targetP;
 334:C:/Users/dtjld/Desktop/AIoT_software/LiteOS_Lab_overseas/LiteOS_Lab/iot_link/oc/oc_lwm2m/atiny_lwm2m\object_binary_app_data_container.c ****     uint8_t result;
 335:C:/Users/dtjld/Desktop/AIoT_software/LiteOS_Lab_overseas/LiteOS_Lab/iot_link/oc/oc_lwm2m/atiny_lwm2m\object_binary_app_data_container.c ****     int ret;
 336:C:/Users/dtjld/Desktop/AIoT_software/LiteOS_Lab_overseas/LiteOS_Lab/iot_link/oc/oc_lwm2m/atiny_lwm2m\object_binary_app_data_container.c ****     lwm2m_uri_t uri;
 337:C:/Users/dtjld/Desktop/AIoT_software/LiteOS_Lab_overseas/LiteOS_Lab/iot_link/oc/oc_lwm2m/atiny_lwm2m\object_binary_app_data_container.c **** 
 338:C:/Users/dtjld/Desktop/AIoT_software/LiteOS_Lab_overseas/LiteOS_Lab/iot_link/oc/oc_lwm2m/atiny_lwm2m\object_binary_app_data_container.c **** 
 339:C:/Users/dtjld/Desktop/AIoT_software/LiteOS_Lab_overseas/LiteOS_Lab/iot_link/oc/oc_lwm2m/atiny_lwm2m\object_binary_app_data_container.c ****     targetP = (plat_instance_t *)lwm2m_malloc(sizeof(plat_instance_t));
 1208              		.loc 2 339 0
 1209 0010 2020     		movs	r0, #32
 1210 0012 FFF7FEFF 		bl	lwm2m_malloc
 1211 0016 3862     		str	r0, [r7, #32]
 340:C:/Users/dtjld/Desktop/AIoT_software/LiteOS_Lab_overseas/LiteOS_Lab/iot_link/oc/oc_lwm2m/atiny_lwm2m\object_binary_app_data_container.c ****     if (NULL == targetP) return COAP_500_INTERNAL_SERVER_ERROR;
 1212              		.loc 2 340 0
 1213 0018 3B6A     		ldr	r3, [r7, #32]
 1214 001a 002B     		cmp	r3, #0
 1215 001c 01D1     		bne	.L83
 1216              		.loc 2 340 0 is_stmt 0 discriminator 1
 1217 001e A023     		movs	r3, #160
 1218 0020 59E0     		b	.L89
 1219              	.L83:
 341:C:/Users/dtjld/Desktop/AIoT_software/LiteOS_Lab_overseas/LiteOS_Lab/iot_link/oc/oc_lwm2m/atiny_lwm2m\object_binary_app_data_container.c ****     memset(targetP, 0, sizeof(plat_instance_t));
 1220              		.loc 2 341 0 is_stmt 1
 1221 0022 2022     		movs	r2, #32
 1222 0024 0021     		movs	r1, #0
 1223 0026 386A     		ldr	r0, [r7, #32]
 1224 0028 FFF7FEFF 		bl	memset
 342:C:/Users/dtjld/Desktop/AIoT_software/LiteOS_Lab_overseas/LiteOS_Lab/iot_link/oc/oc_lwm2m/atiny_lwm2m\object_binary_app_data_container.c ****     //atiny_list_init(&(targetP->header));
 343:C:/Users/dtjld/Desktop/AIoT_software/LiteOS_Lab_overseas/LiteOS_Lab/iot_link/oc/oc_lwm2m/atiny_lwm2m\object_binary_app_data_container.c **** 
 344:C:/Users/dtjld/Desktop/AIoT_software/LiteOS_Lab_overseas/LiteOS_Lab/iot_link/oc/oc_lwm2m/atiny_lwm2m\object_binary_app_data_container.c ****     //TODO: if instanceId not valid
 345:C:/Users/dtjld/Desktop/AIoT_software/LiteOS_Lab_overseas/LiteOS_Lab/iot_link/oc/oc_lwm2m/atiny_lwm2m\object_binary_app_data_container.c ****     get_resource_uri(BINARY_APP_DATA_OBJECT_ID, instanceId, BINARY_APP_DATA_RES_ID, &uri);
 1225              		.loc 2 345 0
 1226 002c 07F11403 		add	r3, r7, #20
 1227 0030 F989     		ldrh	r1, [r7, #14]
 1228 0032 0022     		movs	r2, #0
 1229 0034 1320     		movs	r0, #19
 1230 0036 FFF7FEFF 		bl	get_resource_uri
 346:C:/Users/dtjld/Desktop/AIoT_software/LiteOS_Lab_overseas/LiteOS_Lab/iot_link/oc/oc_lwm2m/atiny_lwm2m\object_binary_app_data_container.c ****     ret = atiny_add_rpt_uri(&uri, &targetP->header);
 1231              		.loc 2 346 0
 1232 003a 3B6A     		ldr	r3, [r7, #32]
 1233 003c 03F10802 		add	r2, r3, #8
 1234 0040 07F11403 		add	r3, r7, #20
 1235 0044 1146     		mov	r1, r2
 1236 0046 1846     		mov	r0, r3
 1237 0048 FFF7FEFF 		bl	atiny_add_rpt_uri
 1238 004c F861     		str	r0, [r7, #28]
 347:C:/Users/dtjld/Desktop/AIoT_software/LiteOS_Lab_overseas/LiteOS_Lab/iot_link/oc/oc_lwm2m/atiny_lwm2m\object_binary_app_data_container.c ****     if(ret != ATINY_OK)
 1239              		.loc 2 347 0
 1240 004e FB69     		ldr	r3, [r7, #28]
 1241 0050 002B     		cmp	r3, #0
 1242 0052 1CD0     		beq	.L85
 348:C:/Users/dtjld/Desktop/AIoT_software/LiteOS_Lab_overseas/LiteOS_Lab/iot_link/oc/oc_lwm2m/atiny_lwm2m\object_binary_app_data_container.c ****     {
 349:C:/Users/dtjld/Desktop/AIoT_software/LiteOS_Lab_overseas/LiteOS_Lab/iot_link/oc/oc_lwm2m/atiny_lwm2m\object_binary_app_data_container.c ****         ATINY_LOG(LOG_ERR, "atiny_add_rpt_uri fail %d", ret);
 1243              		.loc 2 349 0
 1244 0054 FFF7FEFF 		bl	atiny_get_log_level
 1245 0058 0346     		mov	r3, r0
 1246 005a 032B     		cmp	r3, #3
 1247 005c 12D8     		bhi	.L86
ARM GAS  C:\Users\dtjld\AppData\Local\Temp\ccKooWlR.s 			page 31


 1248              		.loc 2 349 0 is_stmt 0 discriminator 1
 1249 005e 0320     		movs	r0, #3
 1250 0060 FFF7FEFF 		bl	atiny_get_log_level_name
 1251 0064 0546     		mov	r5, r0
 1252 0066 FFF7FEFF 		bl	osal_sys_time
 1253 006a 0346     		mov	r3, r0
 1254 006c 0C46     		mov	r4, r1
 1255 006e 1A46     		mov	r2, r3
 1256 0070 FB69     		ldr	r3, [r7, #28]
 1257 0072 0193     		str	r3, [sp, #4]
 1258 0074 40F25D13 		movw	r3, #349
 1259 0078 0093     		str	r3, [sp]
 1260 007a 194B     		ldr	r3, .L90
 1261 007c 2946     		mov	r1, r5
 1262 007e 1948     		ldr	r0, .L90+4
 1263 0080 FFF7FEFF 		bl	atiny_printf
 1264              	.L86:
 350:C:/Users/dtjld/Desktop/AIoT_software/LiteOS_Lab_overseas/LiteOS_Lab/iot_link/oc/oc_lwm2m/atiny_lwm2m\object_binary_app_data_container.c ****         lwm2m_free(targetP);
 1265              		.loc 2 350 0 is_stmt 1
 1266 0084 386A     		ldr	r0, [r7, #32]
 1267 0086 FFF7FEFF 		bl	lwm2m_free
 351:C:/Users/dtjld/Desktop/AIoT_software/LiteOS_Lab_overseas/LiteOS_Lab/iot_link/oc/oc_lwm2m/atiny_lwm2m\object_binary_app_data_container.c ****         return COAP_404_NOT_FOUND;
 1268              		.loc 2 351 0
 1269 008a 8423     		movs	r3, #132
 1270 008c 23E0     		b	.L89
 1271              	.L85:
 352:C:/Users/dtjld/Desktop/AIoT_software/LiteOS_Lab_overseas/LiteOS_Lab/iot_link/oc/oc_lwm2m/atiny_lwm2m\object_binary_app_data_container.c ****     }
 353:C:/Users/dtjld/Desktop/AIoT_software/LiteOS_Lab_overseas/LiteOS_Lab/iot_link/oc/oc_lwm2m/atiny_lwm2m\object_binary_app_data_container.c **** 
 354:C:/Users/dtjld/Desktop/AIoT_software/LiteOS_Lab_overseas/LiteOS_Lab/iot_link/oc/oc_lwm2m/atiny_lwm2m\object_binary_app_data_container.c ****     targetP->shortID = instanceId;
 1272              		.loc 2 354 0
 1273 008e 3B6A     		ldr	r3, [r7, #32]
 1274 0090 FA89     		ldrh	r2, [r7, #14]	@ movhi
 1275 0092 9A80     		strh	r2, [r3, #4]	@ movhi
 355:C:/Users/dtjld/Desktop/AIoT_software/LiteOS_Lab_overseas/LiteOS_Lab/iot_link/oc/oc_lwm2m/atiny_lwm2m\object_binary_app_data_container.c ****     objectP->instanceList = LWM2M_LIST_ADD(objectP->instanceList, targetP);
 1276              		.loc 2 355 0
 1277 0094 3B68     		ldr	r3, [r7]
 1278 0096 9B68     		ldr	r3, [r3, #8]
 1279 0098 396A     		ldr	r1, [r7, #32]
 1280 009a 1846     		mov	r0, r3
 1281 009c FFF7FEFF 		bl	lwm2m_list_add
 1282 00a0 0246     		mov	r2, r0
 1283 00a2 3B68     		ldr	r3, [r7]
 1284 00a4 9A60     		str	r2, [r3, #8]
 356:C:/Users/dtjld/Desktop/AIoT_software/LiteOS_Lab_overseas/LiteOS_Lab/iot_link/oc/oc_lwm2m/atiny_lwm2m\object_binary_app_data_container.c **** 
 357:C:/Users/dtjld/Desktop/AIoT_software/LiteOS_Lab_overseas/LiteOS_Lab/iot_link/oc/oc_lwm2m/atiny_lwm2m\object_binary_app_data_container.c ****     result = prv_write(instanceId, numData, dataArray, objectP);
 1285              		.loc 2 357 0
 1286 00a6 F889     		ldrh	r0, [r7, #14]
 1287 00a8 3B68     		ldr	r3, [r7]
 1288 00aa 7A68     		ldr	r2, [r7, #4]
 1289 00ac B968     		ldr	r1, [r7, #8]
 1290 00ae FFF7FEFF 		bl	prv_write
 1291 00b2 0346     		mov	r3, r0
 1292 00b4 87F82730 		strb	r3, [r7, #39]
 358:C:/Users/dtjld/Desktop/AIoT_software/LiteOS_Lab_overseas/LiteOS_Lab/iot_link/oc/oc_lwm2m/atiny_lwm2m\object_binary_app_data_container.c **** 
 359:C:/Users/dtjld/Desktop/AIoT_software/LiteOS_Lab_overseas/LiteOS_Lab/iot_link/oc/oc_lwm2m/atiny_lwm2m\object_binary_app_data_container.c ****     if (result != COAP_204_CHANGED)
 1293              		.loc 2 359 0
 1294 00b8 97F82730 		ldrb	r3, [r7, #39]	@ zero_extendqisi2
ARM GAS  C:\Users\dtjld\AppData\Local\Temp\ccKooWlR.s 			page 32


 1295 00bc 442B     		cmp	r3, #68
 1296 00be 05D0     		beq	.L87
 360:C:/Users/dtjld/Desktop/AIoT_software/LiteOS_Lab_overseas/LiteOS_Lab/iot_link/oc/oc_lwm2m/atiny_lwm2m\object_binary_app_data_container.c ****     {
 361:C:/Users/dtjld/Desktop/AIoT_software/LiteOS_Lab_overseas/LiteOS_Lab/iot_link/oc/oc_lwm2m/atiny_lwm2m\object_binary_app_data_container.c ****         (void)prv_delete(instanceId, objectP);
 1297              		.loc 2 361 0
 1298 00c0 FB89     		ldrh	r3, [r7, #14]
 1299 00c2 3968     		ldr	r1, [r7]
 1300 00c4 1846     		mov	r0, r3
 1301 00c6 FFF7FEFF 		bl	prv_delete
 1302 00ca 02E0     		b	.L88
 1303              	.L87:
 362:C:/Users/dtjld/Desktop/AIoT_software/LiteOS_Lab_overseas/LiteOS_Lab/iot_link/oc/oc_lwm2m/atiny_lwm2m\object_binary_app_data_container.c ****     }
 363:C:/Users/dtjld/Desktop/AIoT_software/LiteOS_Lab_overseas/LiteOS_Lab/iot_link/oc/oc_lwm2m/atiny_lwm2m\object_binary_app_data_container.c ****     else
 364:C:/Users/dtjld/Desktop/AIoT_software/LiteOS_Lab_overseas/LiteOS_Lab/iot_link/oc/oc_lwm2m/atiny_lwm2m\object_binary_app_data_container.c ****     {
 365:C:/Users/dtjld/Desktop/AIoT_software/LiteOS_Lab_overseas/LiteOS_Lab/iot_link/oc/oc_lwm2m/atiny_lwm2m\object_binary_app_data_container.c ****         result = COAP_201_CREATED;
 1304              		.loc 2 365 0
 1305 00cc 4123     		movs	r3, #65
 1306 00ce 87F82730 		strb	r3, [r7, #39]
 1307              	.L88:
 366:C:/Users/dtjld/Desktop/AIoT_software/LiteOS_Lab_overseas/LiteOS_Lab/iot_link/oc/oc_lwm2m/atiny_lwm2m\object_binary_app_data_container.c ****     }
 367:C:/Users/dtjld/Desktop/AIoT_software/LiteOS_Lab_overseas/LiteOS_Lab/iot_link/oc/oc_lwm2m/atiny_lwm2m\object_binary_app_data_container.c **** 
 368:C:/Users/dtjld/Desktop/AIoT_software/LiteOS_Lab_overseas/LiteOS_Lab/iot_link/oc/oc_lwm2m/atiny_lwm2m\object_binary_app_data_container.c ****     return result;
 1308              		.loc 2 368 0
 1309 00d2 97F82730 		ldrb	r3, [r7, #39]	@ zero_extendqisi2
 1310              	.L89:
 369:C:/Users/dtjld/Desktop/AIoT_software/LiteOS_Lab_overseas/LiteOS_Lab/iot_link/oc/oc_lwm2m/atiny_lwm2m\object_binary_app_data_container.c **** }
 1311              		.loc 2 369 0 discriminator 1
 1312 00d6 1846     		mov	r0, r3
 1313 00d8 2837     		adds	r7, r7, #40
 1314              	.LCFI44:
 1315              		.cfi_def_cfa_offset 16
 1316 00da BD46     		mov	sp, r7
 1317              	.LCFI45:
 1318              		.cfi_def_cfa_register 13
 1319              		@ sp needed
 1320 00dc B0BD     		pop	{r4, r5, r7, pc}
 1321              	.L91:
 1322 00de 00BF     		.align	2
 1323              	.L90:
 1324 00e0 00000000 		.word	__FUNCTION__.8970
 1325 00e4 FC000000 		.word	.LC10
 1326              		.cfi_endproc
 1327              	.LFE21:
 1329              		.section	.rodata
 1330              		.align	2
 1331              	.LC11:
 1332 0128 0D0A2D2D 		.ascii	"\015\012-----------------\015\012Execute on %hu/%d/"
 1332      2D2D2D2D 
 1332      2D2D2D2D 
 1332      2D2D2D2D 
 1332      2D2D2D0D 
 1333 014f 25640D0A 		.ascii	"%d\015\012 Parameter (%d bytes):\015\012\000"
 1333      20506172 
 1333      616D6574 
 1333      65722028 
 1333      25642062 
 1334              		.align	2
ARM GAS  C:\Users\dtjld\AppData\Local\Temp\ccKooWlR.s 			page 33


 1335              	.LC12:
 1336 016c 2D2D2D2D 		.ascii	"-----------------\015\012\015\012\000"
 1336      2D2D2D2D 
 1336      2D2D2D2D 
 1336      2D2D2D2D 
 1336      2D0D0A0D 
 1337              		.section	.text.prv_exec,"ax",%progbits
 1338              		.align	1
 1339              		.syntax unified
 1340              		.thumb
 1341              		.thumb_func
 1342              		.fpu fpv4-sp-d16
 1344              	prv_exec:
 1345              	.LFB22:
 370:C:/Users/dtjld/Desktop/AIoT_software/LiteOS_Lab_overseas/LiteOS_Lab/iot_link/oc/oc_lwm2m/atiny_lwm2m\object_binary_app_data_container.c **** 
 371:C:/Users/dtjld/Desktop/AIoT_software/LiteOS_Lab_overseas/LiteOS_Lab/iot_link/oc/oc_lwm2m/atiny_lwm2m\object_binary_app_data_container.c **** static uint8_t prv_exec(uint16_t instanceId,
 372:C:/Users/dtjld/Desktop/AIoT_software/LiteOS_Lab_overseas/LiteOS_Lab/iot_link/oc/oc_lwm2m/atiny_lwm2m\object_binary_app_data_container.c ****                         uint16_t resourceId,
 373:C:/Users/dtjld/Desktop/AIoT_software/LiteOS_Lab_overseas/LiteOS_Lab/iot_link/oc/oc_lwm2m/atiny_lwm2m\object_binary_app_data_container.c ****                         uint8_t *buffer,
 374:C:/Users/dtjld/Desktop/AIoT_software/LiteOS_Lab_overseas/LiteOS_Lab/iot_link/oc/oc_lwm2m/atiny_lwm2m\object_binary_app_data_container.c ****                         int length,
 375:C:/Users/dtjld/Desktop/AIoT_software/LiteOS_Lab_overseas/LiteOS_Lab/iot_link/oc/oc_lwm2m/atiny_lwm2m\object_binary_app_data_container.c ****                         lwm2m_object_t *objectP)
 376:C:/Users/dtjld/Desktop/AIoT_software/LiteOS_Lab_overseas/LiteOS_Lab/iot_link/oc/oc_lwm2m/atiny_lwm2m\object_binary_app_data_container.c **** {
 1346              		.loc 2 376 0
 1347              		.cfi_startproc
 1348              		@ args = 4, pretend = 0, frame = 16
 1349              		@ frame_needed = 1, uses_anonymous_args = 0
 1350 0000 90B5     		push	{r4, r7, lr}
 1351              	.LCFI46:
 1352              		.cfi_def_cfa_offset 12
 1353              		.cfi_offset 4, -12
 1354              		.cfi_offset 7, -8
 1355              		.cfi_offset 14, -4
 1356 0002 87B0     		sub	sp, sp, #28
 1357              	.LCFI47:
 1358              		.cfi_def_cfa_offset 40
 1359 0004 02AF     		add	r7, sp, #8
 1360              	.LCFI48:
 1361              		.cfi_def_cfa 7, 32
 1362 0006 BA60     		str	r2, [r7, #8]
 1363 0008 7B60     		str	r3, [r7, #4]
 1364 000a 0346     		mov	r3, r0	@ movhi
 1365 000c FB81     		strh	r3, [r7, #14]	@ movhi
 1366 000e 0B46     		mov	r3, r1	@ movhi
 1367 0010 BB81     		strh	r3, [r7, #12]	@ movhi
 377:C:/Users/dtjld/Desktop/AIoT_software/LiteOS_Lab_overseas/LiteOS_Lab/iot_link/oc/oc_lwm2m/atiny_lwm2m\object_binary_app_data_container.c **** 
 378:C:/Users/dtjld/Desktop/AIoT_software/LiteOS_Lab_overseas/LiteOS_Lab/iot_link/oc/oc_lwm2m/atiny_lwm2m\object_binary_app_data_container.c ****     if (NULL == lwm2m_list_find(objectP->instanceList, instanceId)) return COAP_404_NOT_FOUND;
 1368              		.loc 2 378 0
 1369 0012 3B6A     		ldr	r3, [r7, #32]
 1370 0014 9B68     		ldr	r3, [r3, #8]
 1371 0016 FA89     		ldrh	r2, [r7, #14]
 1372 0018 1146     		mov	r1, r2
 1373 001a 1846     		mov	r0, r3
 1374 001c FFF7FEFF 		bl	lwm2m_list_find
 1375 0020 0346     		mov	r3, r0
 1376 0022 002B     		cmp	r3, #0
 1377 0024 01D1     		bne	.L93
 1378              		.loc 2 378 0 is_stmt 0 discriminator 1
 1379 0026 8423     		movs	r3, #132
ARM GAS  C:\Users\dtjld\AppData\Local\Temp\ccKooWlR.s 			page 34


 1380 0028 38E0     		b	.L94
 1381              	.L93:
 379:C:/Users/dtjld/Desktop/AIoT_software/LiteOS_Lab_overseas/LiteOS_Lab/iot_link/oc/oc_lwm2m/atiny_lwm2m\object_binary_app_data_container.c **** 
 380:C:/Users/dtjld/Desktop/AIoT_software/LiteOS_Lab_overseas/LiteOS_Lab/iot_link/oc/oc_lwm2m/atiny_lwm2m\object_binary_app_data_container.c ****     switch (resourceId)
 1382              		.loc 2 380 0 is_stmt 1
 1383 002a BB89     		ldrh	r3, [r7, #12]
 1384 002c 032B     		cmp	r3, #3
 1385 002e 34D8     		bhi	.L95
 1386 0030 01A2     		adr	r2, .L97
 1387 0032 52F823F0 		ldr	pc, [r2, r3, lsl #2]
 1388 0036 00BF     		.p2align 2
 1389              	.L97:
 1390 0038 49000000 		.word	.L96+1
 1391 003c 57000000 		.word	.L98+1
 1392 0040 5B000000 		.word	.L99+1
 1393 0044 97000000 		.word	.L100+1
 1394              		.p2align 1
 1395              	.L96:
 381:C:/Users/dtjld/Desktop/AIoT_software/LiteOS_Lab_overseas/LiteOS_Lab/iot_link/oc/oc_lwm2m/atiny_lwm2m\object_binary_app_data_container.c ****     {
 382:C:/Users/dtjld/Desktop/AIoT_software/LiteOS_Lab_overseas/LiteOS_Lab/iot_link/oc/oc_lwm2m/atiny_lwm2m\object_binary_app_data_container.c ****     case 0:
 383:C:/Users/dtjld/Desktop/AIoT_software/LiteOS_Lab_overseas/LiteOS_Lab/iot_link/oc/oc_lwm2m/atiny_lwm2m\object_binary_app_data_container.c ****     {
 384:C:/Users/dtjld/Desktop/AIoT_software/LiteOS_Lab_overseas/LiteOS_Lab/iot_link/oc/oc_lwm2m/atiny_lwm2m\object_binary_app_data_container.c ****         (void)atiny_cmd_ioctl(ATINY_EXECUTE_APP_DATA, (char *)buffer,length);
 1396              		.loc 2 384 0
 1397 0048 7A68     		ldr	r2, [r7, #4]
 1398 004a B968     		ldr	r1, [r7, #8]
 1399 004c 1B20     		movs	r0, #27
 1400 004e FFF7FEFF 		bl	atiny_cmd_ioctl
 385:C:/Users/dtjld/Desktop/AIoT_software/LiteOS_Lab_overseas/LiteOS_Lab/iot_link/oc/oc_lwm2m/atiny_lwm2m\object_binary_app_data_container.c ****         return COAP_204_CHANGED;
 1401              		.loc 2 385 0
 1402 0052 4423     		movs	r3, #68
 1403 0054 22E0     		b	.L94
 1404              	.L98:
 386:C:/Users/dtjld/Desktop/AIoT_software/LiteOS_Lab_overseas/LiteOS_Lab/iot_link/oc/oc_lwm2m/atiny_lwm2m\object_binary_app_data_container.c ****     }
 387:C:/Users/dtjld/Desktop/AIoT_software/LiteOS_Lab_overseas/LiteOS_Lab/iot_link/oc/oc_lwm2m/atiny_lwm2m\object_binary_app_data_container.c ****     case 1:
 388:C:/Users/dtjld/Desktop/AIoT_software/LiteOS_Lab_overseas/LiteOS_Lab/iot_link/oc/oc_lwm2m/atiny_lwm2m\object_binary_app_data_container.c ****         return COAP_405_METHOD_NOT_ALLOWED;
 1405              		.loc 2 388 0
 1406 0056 8523     		movs	r3, #133
 1407 0058 20E0     		b	.L94
 1408              	.L99:
 389:C:/Users/dtjld/Desktop/AIoT_software/LiteOS_Lab_overseas/LiteOS_Lab/iot_link/oc/oc_lwm2m/atiny_lwm2m\object_binary_app_data_container.c ****     case 2:
 390:C:/Users/dtjld/Desktop/AIoT_software/LiteOS_Lab_overseas/LiteOS_Lab/iot_link/oc/oc_lwm2m/atiny_lwm2m\object_binary_app_data_container.c ****         fprintf(stdout, "\r\n-----------------\r\n"
 1409              		.loc 2 390 0
 1410 005a 124B     		ldr	r3, .L101
 1411 005c 1B68     		ldr	r3, [r3]
 1412 005e 9868     		ldr	r0, [r3, #8]
 391:C:/Users/dtjld/Desktop/AIoT_software/LiteOS_Lab_overseas/LiteOS_Lab/iot_link/oc/oc_lwm2m/atiny_lwm2m\object_binary_app_data_container.c ****                 "Execute on %hu/%d/%d\r\n"
 392:C:/Users/dtjld/Desktop/AIoT_software/LiteOS_Lab_overseas/LiteOS_Lab/iot_link/oc/oc_lwm2m/atiny_lwm2m\object_binary_app_data_container.c ****                 " Parameter (%d bytes):\r\n",
 393:C:/Users/dtjld/Desktop/AIoT_software/LiteOS_Lab_overseas/LiteOS_Lab/iot_link/oc/oc_lwm2m/atiny_lwm2m\object_binary_app_data_container.c ****                 objectP->objID, instanceId, resourceId, length);
 1413              		.loc 2 393 0
 1414 0060 3B6A     		ldr	r3, [r7, #32]
 1415 0062 9B88     		ldrh	r3, [r3, #4]
 390:C:/Users/dtjld/Desktop/AIoT_software/LiteOS_Lab_overseas/LiteOS_Lab/iot_link/oc/oc_lwm2m/atiny_lwm2m\object_binary_app_data_container.c ****                 "Execute on %hu/%d/%d\r\n"
 1416              		.loc 2 390 0
 1417 0064 1C46     		mov	r4, r3
 1418 0066 F989     		ldrh	r1, [r7, #14]
 1419 0068 BB89     		ldrh	r3, [r7, #12]
 1420 006a 7A68     		ldr	r2, [r7, #4]
ARM GAS  C:\Users\dtjld\AppData\Local\Temp\ccKooWlR.s 			page 35


 1421 006c 0192     		str	r2, [sp, #4]
 1422 006e 0093     		str	r3, [sp]
 1423 0070 0B46     		mov	r3, r1
 1424 0072 2246     		mov	r2, r4
 1425 0074 0C49     		ldr	r1, .L101+4
 1426 0076 FFF7FEFF 		bl	fprintf
 394:C:/Users/dtjld/Desktop/AIoT_software/LiteOS_Lab_overseas/LiteOS_Lab/iot_link/oc/oc_lwm2m/atiny_lwm2m\object_binary_app_data_container.c ****         prv_output_buffer((uint8_t *)buffer, length);
 1427              		.loc 2 394 0
 1428 007a 7968     		ldr	r1, [r7, #4]
 1429 007c B868     		ldr	r0, [r7, #8]
 1430 007e FFF7FEFF 		bl	prv_output_buffer
 395:C:/Users/dtjld/Desktop/AIoT_software/LiteOS_Lab_overseas/LiteOS_Lab/iot_link/oc/oc_lwm2m/atiny_lwm2m\object_binary_app_data_container.c ****         fprintf(stdout, "-----------------\r\n\r\n");
 1431              		.loc 2 395 0
 1432 0082 084B     		ldr	r3, .L101
 1433 0084 1B68     		ldr	r3, [r3]
 1434 0086 9B68     		ldr	r3, [r3, #8]
 1435 0088 1522     		movs	r2, #21
 1436 008a 0121     		movs	r1, #1
 1437 008c 0748     		ldr	r0, .L101+8
 1438 008e FFF7FEFF 		bl	fwrite
 396:C:/Users/dtjld/Desktop/AIoT_software/LiteOS_Lab_overseas/LiteOS_Lab/iot_link/oc/oc_lwm2m/atiny_lwm2m\object_binary_app_data_container.c ****         return COAP_204_CHANGED;
 1439              		.loc 2 396 0
 1440 0092 4423     		movs	r3, #68
 1441 0094 02E0     		b	.L94
 1442              	.L100:
 397:C:/Users/dtjld/Desktop/AIoT_software/LiteOS_Lab_overseas/LiteOS_Lab/iot_link/oc/oc_lwm2m/atiny_lwm2m\object_binary_app_data_container.c ****     case 3:
 398:C:/Users/dtjld/Desktop/AIoT_software/LiteOS_Lab_overseas/LiteOS_Lab/iot_link/oc/oc_lwm2m/atiny_lwm2m\object_binary_app_data_container.c ****         return COAP_405_METHOD_NOT_ALLOWED;
 1443              		.loc 2 398 0
 1444 0096 8523     		movs	r3, #133
 1445 0098 00E0     		b	.L94
 1446              	.L95:
 399:C:/Users/dtjld/Desktop/AIoT_software/LiteOS_Lab_overseas/LiteOS_Lab/iot_link/oc/oc_lwm2m/atiny_lwm2m\object_binary_app_data_container.c ****     default:
 400:C:/Users/dtjld/Desktop/AIoT_software/LiteOS_Lab_overseas/LiteOS_Lab/iot_link/oc/oc_lwm2m/atiny_lwm2m\object_binary_app_data_container.c ****         return COAP_404_NOT_FOUND;
 1447              		.loc 2 400 0
 1448 009a 8423     		movs	r3, #132
 1449              	.L94:
 401:C:/Users/dtjld/Desktop/AIoT_software/LiteOS_Lab_overseas/LiteOS_Lab/iot_link/oc/oc_lwm2m/atiny_lwm2m\object_binary_app_data_container.c ****     }
 402:C:/Users/dtjld/Desktop/AIoT_software/LiteOS_Lab_overseas/LiteOS_Lab/iot_link/oc/oc_lwm2m/atiny_lwm2m\object_binary_app_data_container.c **** }
 1450              		.loc 2 402 0
 1451 009c 1846     		mov	r0, r3
 1452 009e 1437     		adds	r7, r7, #20
 1453              	.LCFI49:
 1454              		.cfi_def_cfa_offset 12
 1455 00a0 BD46     		mov	sp, r7
 1456              	.LCFI50:
 1457              		.cfi_def_cfa_register 13
 1458              		@ sp needed
 1459 00a2 90BD     		pop	{r4, r7, pc}
 1460              	.L102:
 1461              		.align	2
 1462              	.L101:
 1463 00a4 00000000 		.word	_impure_ptr
 1464 00a8 28010000 		.word	.LC11
 1465 00ac 6C010000 		.word	.LC12
 1466              		.cfi_endproc
 1467              	.LFE22:
 1469              		.section	.text.display_binary_app_data_object,"ax",%progbits
ARM GAS  C:\Users\dtjld\AppData\Local\Temp\ccKooWlR.s 			page 36


 1470              		.align	1
 1471              		.global	display_binary_app_data_object
 1472              		.syntax unified
 1473              		.thumb
 1474              		.thumb_func
 1475              		.fpu fpv4-sp-d16
 1477              	display_binary_app_data_object:
 1478              	.LFB23:
 403:C:/Users/dtjld/Desktop/AIoT_software/LiteOS_Lab_overseas/LiteOS_Lab/iot_link/oc/oc_lwm2m/atiny_lwm2m\object_binary_app_data_container.c **** 
 404:C:/Users/dtjld/Desktop/AIoT_software/LiteOS_Lab_overseas/LiteOS_Lab/iot_link/oc/oc_lwm2m/atiny_lwm2m\object_binary_app_data_container.c **** void display_binary_app_data_object(lwm2m_object_t *object)
 405:C:/Users/dtjld/Desktop/AIoT_software/LiteOS_Lab_overseas/LiteOS_Lab/iot_link/oc/oc_lwm2m/atiny_lwm2m\object_binary_app_data_container.c **** {
 1479              		.loc 2 405 0
 1480              		.cfi_startproc
 1481              		@ args = 0, pretend = 0, frame = 8
 1482              		@ frame_needed = 1, uses_anonymous_args = 0
 1483              		@ link register save eliminated.
 1484 0000 80B4     		push	{r7}
 1485              	.LCFI51:
 1486              		.cfi_def_cfa_offset 4
 1487              		.cfi_offset 7, -4
 1488 0002 83B0     		sub	sp, sp, #12
 1489              	.LCFI52:
 1490              		.cfi_def_cfa_offset 16
 1491 0004 00AF     		add	r7, sp, #0
 1492              	.LCFI53:
 1493              		.cfi_def_cfa_register 7
 1494 0006 7860     		str	r0, [r7, #4]
 406:C:/Users/dtjld/Desktop/AIoT_software/LiteOS_Lab_overseas/LiteOS_Lab/iot_link/oc/oc_lwm2m/atiny_lwm2m\object_binary_app_data_container.c **** #ifdef WITH_LOGS
 407:C:/Users/dtjld/Desktop/AIoT_software/LiteOS_Lab_overseas/LiteOS_Lab/iot_link/oc/oc_lwm2m/atiny_lwm2m\object_binary_app_data_container.c ****     fprintf(stdout, "  /%u: Test object, instances:\r\n", object->objID);
 408:C:/Users/dtjld/Desktop/AIoT_software/LiteOS_Lab_overseas/LiteOS_Lab/iot_link/oc/oc_lwm2m/atiny_lwm2m\object_binary_app_data_container.c ****     plat_instance_t *instance = (plat_instance_t *)object->instanceList;
 409:C:/Users/dtjld/Desktop/AIoT_software/LiteOS_Lab_overseas/LiteOS_Lab/iot_link/oc/oc_lwm2m/atiny_lwm2m\object_binary_app_data_container.c ****     while (instance != NULL)
 410:C:/Users/dtjld/Desktop/AIoT_software/LiteOS_Lab_overseas/LiteOS_Lab/iot_link/oc/oc_lwm2m/atiny_lwm2m\object_binary_app_data_container.c ****     {
 411:C:/Users/dtjld/Desktop/AIoT_software/LiteOS_Lab_overseas/LiteOS_Lab/iot_link/oc/oc_lwm2m/atiny_lwm2m\object_binary_app_data_container.c ****         fprintf(stdout, "    /%u/%u: shortId: %u, test: %u\r\n",
 412:C:/Users/dtjld/Desktop/AIoT_software/LiteOS_Lab_overseas/LiteOS_Lab/iot_link/oc/oc_lwm2m/atiny_lwm2m\object_binary_app_data_container.c ****                 object->objID, instance->shortID,
 413:C:/Users/dtjld/Desktop/AIoT_software/LiteOS_Lab_overseas/LiteOS_Lab/iot_link/oc/oc_lwm2m/atiny_lwm2m\object_binary_app_data_container.c ****                 instance->shortID, instance->test);
 414:C:/Users/dtjld/Desktop/AIoT_software/LiteOS_Lab_overseas/LiteOS_Lab/iot_link/oc/oc_lwm2m/atiny_lwm2m\object_binary_app_data_container.c ****         instance = (plat_instance_t *)instance->next;
 415:C:/Users/dtjld/Desktop/AIoT_software/LiteOS_Lab_overseas/LiteOS_Lab/iot_link/oc/oc_lwm2m/atiny_lwm2m\object_binary_app_data_container.c ****     }
 416:C:/Users/dtjld/Desktop/AIoT_software/LiteOS_Lab_overseas/LiteOS_Lab/iot_link/oc/oc_lwm2m/atiny_lwm2m\object_binary_app_data_container.c **** #endif
 417:C:/Users/dtjld/Desktop/AIoT_software/LiteOS_Lab_overseas/LiteOS_Lab/iot_link/oc/oc_lwm2m/atiny_lwm2m\object_binary_app_data_container.c **** }
 1495              		.loc 2 417 0
 1496 0008 00BF     		nop
 1497 000a 0C37     		adds	r7, r7, #12
 1498              	.LCFI54:
 1499              		.cfi_def_cfa_offset 4
 1500 000c BD46     		mov	sp, r7
 1501              	.LCFI55:
 1502              		.cfi_def_cfa_register 13
 1503              		@ sp needed
 1504 000e 5DF8047B 		ldr	r7, [sp], #4
 1505              	.LCFI56:
 1506              		.cfi_restore 7
 1507              		.cfi_def_cfa_offset 0
 1508 0012 7047     		bx	lr
 1509              		.cfi_endproc
 1510              	.LFE23:
 1512              		.section	.text.get_binary_app_data_object,"ax",%progbits
 1513              		.align	1
ARM GAS  C:\Users\dtjld\AppData\Local\Temp\ccKooWlR.s 			page 37


 1514              		.global	get_binary_app_data_object
 1515              		.syntax unified
 1516              		.thumb
 1517              		.thumb_func
 1518              		.fpu fpv4-sp-d16
 1520              	get_binary_app_data_object:
 1521              	.LFB24:
 418:C:/Users/dtjld/Desktop/AIoT_software/LiteOS_Lab_overseas/LiteOS_Lab/iot_link/oc/oc_lwm2m/atiny_lwm2m\object_binary_app_data_container.c **** 
 419:C:/Users/dtjld/Desktop/AIoT_software/LiteOS_Lab_overseas/LiteOS_Lab/iot_link/oc/oc_lwm2m/atiny_lwm2m\object_binary_app_data_container.c **** lwm2m_object_t *get_binary_app_data_object(atiny_param_t *atiny_params)
 420:C:/Users/dtjld/Desktop/AIoT_software/LiteOS_Lab_overseas/LiteOS_Lab/iot_link/oc/oc_lwm2m/atiny_lwm2m\object_binary_app_data_container.c **** {
 1522              		.loc 2 420 0
 1523              		.cfi_startproc
 1524              		@ args = 0, pretend = 0, frame = 32
 1525              		@ frame_needed = 1, uses_anonymous_args = 0
 1526 0000 B0B5     		push	{r4, r5, r7, lr}
 1527              	.LCFI57:
 1528              		.cfi_def_cfa_offset 16
 1529              		.cfi_offset 4, -16
 1530              		.cfi_offset 5, -12
 1531              		.cfi_offset 7, -8
 1532              		.cfi_offset 14, -4
 1533 0002 8AB0     		sub	sp, sp, #40
 1534              	.LCFI58:
 1535              		.cfi_def_cfa_offset 56
 1536 0004 02AF     		add	r7, sp, #8
 1537              	.LCFI59:
 1538              		.cfi_def_cfa 7, 48
 1539 0006 7860     		str	r0, [r7, #4]
 421:C:/Users/dtjld/Desktop/AIoT_software/LiteOS_Lab_overseas/LiteOS_Lab/iot_link/oc/oc_lwm2m/atiny_lwm2m\object_binary_app_data_container.c ****     lwm2m_object_t *appObj;
 422:C:/Users/dtjld/Desktop/AIoT_software/LiteOS_Lab_overseas/LiteOS_Lab/iot_link/oc/oc_lwm2m/atiny_lwm2m\object_binary_app_data_container.c **** 
 423:C:/Users/dtjld/Desktop/AIoT_software/LiteOS_Lab_overseas/LiteOS_Lab/iot_link/oc/oc_lwm2m/atiny_lwm2m\object_binary_app_data_container.c ****     appObj = (lwm2m_object_t *)lwm2m_malloc(sizeof(lwm2m_object_t));
 1540              		.loc 2 423 0
 1541 0008 2C20     		movs	r0, #44
 1542 000a FFF7FEFF 		bl	lwm2m_malloc
 1543 000e B861     		str	r0, [r7, #24]
 424:C:/Users/dtjld/Desktop/AIoT_software/LiteOS_Lab_overseas/LiteOS_Lab/iot_link/oc/oc_lwm2m/atiny_lwm2m\object_binary_app_data_container.c **** 
 425:C:/Users/dtjld/Desktop/AIoT_software/LiteOS_Lab_overseas/LiteOS_Lab/iot_link/oc/oc_lwm2m/atiny_lwm2m\object_binary_app_data_container.c ****     if (NULL != appObj)
 1544              		.loc 2 425 0
 1545 0010 BB69     		ldr	r3, [r7, #24]
 1546 0012 002B     		cmp	r3, #0
 1547 0014 00F08980 		beq	.L105
 1548              	.LBB4:
 426:C:/Users/dtjld/Desktop/AIoT_software/LiteOS_Lab_overseas/LiteOS_Lab/iot_link/oc/oc_lwm2m/atiny_lwm2m\object_binary_app_data_container.c ****     {
 427:C:/Users/dtjld/Desktop/AIoT_software/LiteOS_Lab_overseas/LiteOS_Lab/iot_link/oc/oc_lwm2m/atiny_lwm2m\object_binary_app_data_container.c ****         int i;
 428:C:/Users/dtjld/Desktop/AIoT_software/LiteOS_Lab_overseas/LiteOS_Lab/iot_link/oc/oc_lwm2m/atiny_lwm2m\object_binary_app_data_container.c ****         plat_instance_t *targetP;
 429:C:/Users/dtjld/Desktop/AIoT_software/LiteOS_Lab_overseas/LiteOS_Lab/iot_link/oc/oc_lwm2m/atiny_lwm2m\object_binary_app_data_container.c ****         lwm2m_uri_t uri;
 430:C:/Users/dtjld/Desktop/AIoT_software/LiteOS_Lab_overseas/LiteOS_Lab/iot_link/oc/oc_lwm2m/atiny_lwm2m\object_binary_app_data_container.c ****         int ret = ATINY_OK;
 1549              		.loc 2 430 0
 1550 0018 0023     		movs	r3, #0
 1551 001a 7B61     		str	r3, [r7, #20]
 431:C:/Users/dtjld/Desktop/AIoT_software/LiteOS_Lab_overseas/LiteOS_Lab/iot_link/oc/oc_lwm2m/atiny_lwm2m\object_binary_app_data_container.c **** 
 432:C:/Users/dtjld/Desktop/AIoT_software/LiteOS_Lab_overseas/LiteOS_Lab/iot_link/oc/oc_lwm2m/atiny_lwm2m\object_binary_app_data_container.c ****         memset(appObj, 0, sizeof(lwm2m_object_t));
 1552              		.loc 2 432 0
 1553 001c 2C22     		movs	r2, #44
 1554 001e 0021     		movs	r1, #0
 1555 0020 B869     		ldr	r0, [r7, #24]
 1556 0022 FFF7FEFF 		bl	memset
ARM GAS  C:\Users\dtjld\AppData\Local\Temp\ccKooWlR.s 			page 38


 433:C:/Users/dtjld/Desktop/AIoT_software/LiteOS_Lab_overseas/LiteOS_Lab/iot_link/oc/oc_lwm2m/atiny_lwm2m\object_binary_app_data_container.c **** 
 434:C:/Users/dtjld/Desktop/AIoT_software/LiteOS_Lab_overseas/LiteOS_Lab/iot_link/oc/oc_lwm2m/atiny_lwm2m\object_binary_app_data_container.c ****         appObj->objID = BINARY_APP_DATA_OBJECT_ID;
 1557              		.loc 2 434 0
 1558 0026 BB69     		ldr	r3, [r7, #24]
 1559 0028 1322     		movs	r2, #19
 1560 002a 9A80     		strh	r2, [r3, #4]	@ movhi
 435:C:/Users/dtjld/Desktop/AIoT_software/LiteOS_Lab_overseas/LiteOS_Lab/iot_link/oc/oc_lwm2m/atiny_lwm2m\object_binary_app_data_container.c ****         for (i = 0 ; i < BINARY_APP_DATA_OBJECT_INSTANCE_NUM; i++)
 1561              		.loc 2 435 0
 1562 002c 0023     		movs	r3, #0
 1563 002e FB61     		str	r3, [r7, #28]
 1564 0030 58E0     		b	.L106
 1565              	.L111:
 436:C:/Users/dtjld/Desktop/AIoT_software/LiteOS_Lab_overseas/LiteOS_Lab/iot_link/oc/oc_lwm2m/atiny_lwm2m\object_binary_app_data_container.c ****         {
 437:C:/Users/dtjld/Desktop/AIoT_software/LiteOS_Lab_overseas/LiteOS_Lab/iot_link/oc/oc_lwm2m/atiny_lwm2m\object_binary_app_data_container.c ****             targetP = (plat_instance_t *)lwm2m_malloc(sizeof(plat_instance_t));
 1566              		.loc 2 437 0
 1567 0032 2020     		movs	r0, #32
 1568 0034 FFF7FEFF 		bl	lwm2m_malloc
 1569 0038 3861     		str	r0, [r7, #16]
 438:C:/Users/dtjld/Desktop/AIoT_software/LiteOS_Lab_overseas/LiteOS_Lab/iot_link/oc/oc_lwm2m/atiny_lwm2m\object_binary_app_data_container.c ****             if (NULL == targetP)
 1570              		.loc 2 438 0
 1571 003a 3B69     		ldr	r3, [r7, #16]
 1572 003c 002B     		cmp	r3, #0
 1573 003e 55D0     		beq	.L114
 439:C:/Users/dtjld/Desktop/AIoT_software/LiteOS_Lab_overseas/LiteOS_Lab/iot_link/oc/oc_lwm2m/atiny_lwm2m\object_binary_app_data_container.c ****             {
 440:C:/Users/dtjld/Desktop/AIoT_software/LiteOS_Lab_overseas/LiteOS_Lab/iot_link/oc/oc_lwm2m/atiny_lwm2m\object_binary_app_data_container.c ****                 break;
 441:C:/Users/dtjld/Desktop/AIoT_software/LiteOS_Lab_overseas/LiteOS_Lab/iot_link/oc/oc_lwm2m/atiny_lwm2m\object_binary_app_data_container.c ****             }
 442:C:/Users/dtjld/Desktop/AIoT_software/LiteOS_Lab_overseas/LiteOS_Lab/iot_link/oc/oc_lwm2m/atiny_lwm2m\object_binary_app_data_container.c ****             memset(targetP, 0, sizeof(plat_instance_t));
 1574              		.loc 2 442 0
 1575 0040 2022     		movs	r2, #32
 1576 0042 0021     		movs	r1, #0
 1577 0044 3869     		ldr	r0, [r7, #16]
 1578 0046 FFF7FEFF 		bl	memset
 443:C:/Users/dtjld/Desktop/AIoT_software/LiteOS_Lab_overseas/LiteOS_Lab/iot_link/oc/oc_lwm2m/atiny_lwm2m\object_binary_app_data_container.c ****             get_resource_uri(BINARY_APP_DATA_OBJECT_ID, i, BINARY_APP_DATA_RES_ID, &uri);
 1579              		.loc 2 443 0
 1580 004a FB69     		ldr	r3, [r7, #28]
 1581 004c 99B2     		uxth	r1, r3
 1582 004e 07F10803 		add	r3, r7, #8
 1583 0052 0022     		movs	r2, #0
 1584 0054 1320     		movs	r0, #19
 1585 0056 FFF7FEFF 		bl	get_resource_uri
 444:C:/Users/dtjld/Desktop/AIoT_software/LiteOS_Lab_overseas/LiteOS_Lab/iot_link/oc/oc_lwm2m/atiny_lwm2m\object_binary_app_data_container.c ****             ret = atiny_add_rpt_uri(&uri, &targetP->header);
 1586              		.loc 2 444 0
 1587 005a 3B69     		ldr	r3, [r7, #16]
 1588 005c 03F10802 		add	r2, r3, #8
 1589 0060 07F10803 		add	r3, r7, #8
 1590 0064 1146     		mov	r1, r2
 1591 0066 1846     		mov	r0, r3
 1592 0068 FFF7FEFF 		bl	atiny_add_rpt_uri
 1593 006c 7861     		str	r0, [r7, #20]
 445:C:/Users/dtjld/Desktop/AIoT_software/LiteOS_Lab_overseas/LiteOS_Lab/iot_link/oc/oc_lwm2m/atiny_lwm2m\object_binary_app_data_container.c ****             if(ret != ATINY_OK)
 1594              		.loc 2 445 0
 1595 006e 7B69     		ldr	r3, [r7, #20]
 1596 0070 002B     		cmp	r3, #0
 1597 0072 1BD0     		beq	.L109
 446:C:/Users/dtjld/Desktop/AIoT_software/LiteOS_Lab_overseas/LiteOS_Lab/iot_link/oc/oc_lwm2m/atiny_lwm2m\object_binary_app_data_container.c ****             {
 447:C:/Users/dtjld/Desktop/AIoT_software/LiteOS_Lab_overseas/LiteOS_Lab/iot_link/oc/oc_lwm2m/atiny_lwm2m\object_binary_app_data_container.c ****                 ATINY_LOG(LOG_ERR, "atiny_add_rpt_uri fail %d", ret);
 1598              		.loc 2 447 0
ARM GAS  C:\Users\dtjld\AppData\Local\Temp\ccKooWlR.s 			page 39


 1599 0074 FFF7FEFF 		bl	atiny_get_log_level
 1600 0078 0346     		mov	r3, r0
 1601 007a 032B     		cmp	r3, #3
 1602 007c 12D8     		bhi	.L110
 1603              		.loc 2 447 0 is_stmt 0 discriminator 1
 1604 007e 0320     		movs	r0, #3
 1605 0080 FFF7FEFF 		bl	atiny_get_log_level_name
 1606 0084 0546     		mov	r5, r0
 1607 0086 FFF7FEFF 		bl	osal_sys_time
 1608 008a 0346     		mov	r3, r0
 1609 008c 0C46     		mov	r4, r1
 1610 008e 1A46     		mov	r2, r3
 1611 0090 7B69     		ldr	r3, [r7, #20]
 1612 0092 0193     		str	r3, [sp, #4]
 1613 0094 40F2BF13 		movw	r3, #447
 1614 0098 0093     		str	r3, [sp]
 1615 009a 264B     		ldr	r3, .L115
 1616 009c 2946     		mov	r1, r5
 1617 009e 2648     		ldr	r0, .L115+4
 1618 00a0 FFF7FEFF 		bl	atiny_printf
 1619              	.L110:
 448:C:/Users/dtjld/Desktop/AIoT_software/LiteOS_Lab_overseas/LiteOS_Lab/iot_link/oc/oc_lwm2m/atiny_lwm2m\object_binary_app_data_container.c ****                 lwm2m_free(targetP);
 1620              		.loc 2 448 0 is_stmt 1
 1621 00a4 3869     		ldr	r0, [r7, #16]
 1622 00a6 FFF7FEFF 		bl	lwm2m_free
 449:C:/Users/dtjld/Desktop/AIoT_software/LiteOS_Lab_overseas/LiteOS_Lab/iot_link/oc/oc_lwm2m/atiny_lwm2m\object_binary_app_data_container.c ****                 break;
 1623              		.loc 2 449 0
 1624 00aa 20E0     		b	.L108
 1625              	.L109:
 450:C:/Users/dtjld/Desktop/AIoT_software/LiteOS_Lab_overseas/LiteOS_Lab/iot_link/oc/oc_lwm2m/atiny_lwm2m\object_binary_app_data_container.c ****             }
 451:C:/Users/dtjld/Desktop/AIoT_software/LiteOS_Lab_overseas/LiteOS_Lab/iot_link/oc/oc_lwm2m/atiny_lwm2m\object_binary_app_data_container.c ****             (void)atiny_set_max_rpt_cnt(&uri, MAX(MIN_SAVE_CNT, atiny_params->server_params.storing
 1626              		.loc 2 451 0 discriminator 2
 1627 00ac 7B68     		ldr	r3, [r7, #4]
 1628 00ae 9B68     		ldr	r3, [r3, #8]
 1629 00b0 012B     		cmp	r3, #1
 1630 00b2 38BF     		it	cc
 1631 00b4 0123     		movcc	r3, #1
 1632 00b6 1A46     		mov	r2, r3
 1633 00b8 07F10803 		add	r3, r7, #8
 1634 00bc 1146     		mov	r1, r2
 1635 00be 1846     		mov	r0, r3
 1636 00c0 FFF7FEFF 		bl	atiny_set_max_rpt_cnt
 452:C:/Users/dtjld/Desktop/AIoT_software/LiteOS_Lab_overseas/LiteOS_Lab/iot_link/oc/oc_lwm2m/atiny_lwm2m\object_binary_app_data_container.c ****             targetP->shortID = i;
 1637              		.loc 2 452 0 discriminator 2
 1638 00c4 FB69     		ldr	r3, [r7, #28]
 1639 00c6 9AB2     		uxth	r2, r3
 1640 00c8 3B69     		ldr	r3, [r7, #16]
 1641 00ca 9A80     		strh	r2, [r3, #4]	@ movhi
 453:C:/Users/dtjld/Desktop/AIoT_software/LiteOS_Lab_overseas/LiteOS_Lab/iot_link/oc/oc_lwm2m/atiny_lwm2m\object_binary_app_data_container.c ****             appObj->instanceList = LWM2M_LIST_ADD(appObj->instanceList, targetP);
 1642              		.loc 2 453 0 discriminator 2
 1643 00cc BB69     		ldr	r3, [r7, #24]
 1644 00ce 9B68     		ldr	r3, [r3, #8]
 1645 00d0 3969     		ldr	r1, [r7, #16]
 1646 00d2 1846     		mov	r0, r3
 1647 00d4 FFF7FEFF 		bl	lwm2m_list_add
 1648 00d8 0246     		mov	r2, r0
 1649 00da BB69     		ldr	r3, [r7, #24]
ARM GAS  C:\Users\dtjld\AppData\Local\Temp\ccKooWlR.s 			page 40


 1650 00dc 9A60     		str	r2, [r3, #8]
 435:C:/Users/dtjld/Desktop/AIoT_software/LiteOS_Lab_overseas/LiteOS_Lab/iot_link/oc/oc_lwm2m/atiny_lwm2m\object_binary_app_data_container.c ****         {
 1651              		.loc 2 435 0 discriminator 2
 1652 00de FB69     		ldr	r3, [r7, #28]
 1653 00e0 0133     		adds	r3, r3, #1
 1654 00e2 FB61     		str	r3, [r7, #28]
 1655              	.L106:
 435:C:/Users/dtjld/Desktop/AIoT_software/LiteOS_Lab_overseas/LiteOS_Lab/iot_link/oc/oc_lwm2m/atiny_lwm2m\object_binary_app_data_container.c ****         {
 1656              		.loc 2 435 0 is_stmt 0 discriminator 1
 1657 00e4 FB69     		ldr	r3, [r7, #28]
 1658 00e6 012B     		cmp	r3, #1
 1659 00e8 A3DD     		ble	.L111
 1660 00ea 00E0     		b	.L108
 1661              	.L114:
 440:C:/Users/dtjld/Desktop/AIoT_software/LiteOS_Lab_overseas/LiteOS_Lab/iot_link/oc/oc_lwm2m/atiny_lwm2m\object_binary_app_data_container.c ****             }
 1662              		.loc 2 440 0 is_stmt 1
 1663 00ec 00BF     		nop
 1664              	.L108:
 454:C:/Users/dtjld/Desktop/AIoT_software/LiteOS_Lab_overseas/LiteOS_Lab/iot_link/oc/oc_lwm2m/atiny_lwm2m\object_binary_app_data_container.c ****         }
 455:C:/Users/dtjld/Desktop/AIoT_software/LiteOS_Lab_overseas/LiteOS_Lab/iot_link/oc/oc_lwm2m/atiny_lwm2m\object_binary_app_data_container.c **** 
 456:C:/Users/dtjld/Desktop/AIoT_software/LiteOS_Lab_overseas/LiteOS_Lab/iot_link/oc/oc_lwm2m/atiny_lwm2m\object_binary_app_data_container.c ****         if(i < BINARY_APP_DATA_OBJECT_INSTANCE_NUM)
 1665              		.loc 2 456 0
 1666 00ee FB69     		ldr	r3, [r7, #28]
 1667 00f0 012B     		cmp	r3, #1
 1668 00f2 04DC     		bgt	.L112
 457:C:/Users/dtjld/Desktop/AIoT_software/LiteOS_Lab_overseas/LiteOS_Lab/iot_link/oc/oc_lwm2m/atiny_lwm2m\object_binary_app_data_container.c ****         {
 458:C:/Users/dtjld/Desktop/AIoT_software/LiteOS_Lab_overseas/LiteOS_Lab/iot_link/oc/oc_lwm2m/atiny_lwm2m\object_binary_app_data_container.c ****             free_binary_app_data_object(appObj);
 1669              		.loc 2 458 0
 1670 00f4 B869     		ldr	r0, [r7, #24]
 1671 00f6 FFF7FEFF 		bl	free_binary_app_data_object
 459:C:/Users/dtjld/Desktop/AIoT_software/LiteOS_Lab_overseas/LiteOS_Lab/iot_link/oc/oc_lwm2m/atiny_lwm2m\object_binary_app_data_container.c ****             return NULL;
 1672              		.loc 2 459 0
 1673 00fa 0023     		movs	r3, #0
 1674 00fc 16E0     		b	.L113
 1675              	.L112:
 460:C:/Users/dtjld/Desktop/AIoT_software/LiteOS_Lab_overseas/LiteOS_Lab/iot_link/oc/oc_lwm2m/atiny_lwm2m\object_binary_app_data_container.c ****         }
 461:C:/Users/dtjld/Desktop/AIoT_software/LiteOS_Lab_overseas/LiteOS_Lab/iot_link/oc/oc_lwm2m/atiny_lwm2m\object_binary_app_data_container.c **** 
 462:C:/Users/dtjld/Desktop/AIoT_software/LiteOS_Lab_overseas/LiteOS_Lab/iot_link/oc/oc_lwm2m/atiny_lwm2m\object_binary_app_data_container.c ****         /*
 463:C:/Users/dtjld/Desktop/AIoT_software/LiteOS_Lab_overseas/LiteOS_Lab/iot_link/oc/oc_lwm2m/atiny_lwm2m\object_binary_app_data_container.c ****          * From a single instance object, two more functions are available.
 464:C:/Users/dtjld/Desktop/AIoT_software/LiteOS_Lab_overseas/LiteOS_Lab/iot_link/oc/oc_lwm2m/atiny_lwm2m\object_binary_app_data_container.c ****          * - The first one (createFunc) create a new instance and filled it with the provided infor
 465:C:/Users/dtjld/Desktop/AIoT_software/LiteOS_Lab_overseas/LiteOS_Lab/iot_link/oc/oc_lwm2m/atiny_lwm2m\object_binary_app_data_container.c ****          *   provided a check is done for verifying his disponibility, or a new one is generated.
 466:C:/Users/dtjld/Desktop/AIoT_software/LiteOS_Lab_overseas/LiteOS_Lab/iot_link/oc/oc_lwm2m/atiny_lwm2m\object_binary_app_data_container.c ****          * - The other one (deleteFunc) delete an instance by removing it from the instance list (a
 467:C:/Users/dtjld/Desktop/AIoT_software/LiteOS_Lab_overseas/LiteOS_Lab/iot_link/oc/oc_lwm2m/atiny_lwm2m\object_binary_app_data_container.c ****          *   allocated to it)
 468:C:/Users/dtjld/Desktop/AIoT_software/LiteOS_Lab_overseas/LiteOS_Lab/iot_link/oc/oc_lwm2m/atiny_lwm2m\object_binary_app_data_container.c ****          */
 469:C:/Users/dtjld/Desktop/AIoT_software/LiteOS_Lab_overseas/LiteOS_Lab/iot_link/oc/oc_lwm2m/atiny_lwm2m\object_binary_app_data_container.c ****         appObj->readFunc = prv_read;
 1676              		.loc 2 469 0
 1677 00fe BB69     		ldr	r3, [r7, #24]
 1678 0100 0E4A     		ldr	r2, .L115+8
 1679 0102 DA60     		str	r2, [r3, #12]
 470:C:/Users/dtjld/Desktop/AIoT_software/LiteOS_Lab_overseas/LiteOS_Lab/iot_link/oc/oc_lwm2m/atiny_lwm2m\object_binary_app_data_container.c ****         appObj->discoverFunc = prv_discover;
 1680              		.loc 2 470 0
 1681 0104 BB69     		ldr	r3, [r7, #24]
 1682 0106 0E4A     		ldr	r2, .L115+12
 1683 0108 5A62     		str	r2, [r3, #36]
 471:C:/Users/dtjld/Desktop/AIoT_software/LiteOS_Lab_overseas/LiteOS_Lab/iot_link/oc/oc_lwm2m/atiny_lwm2m\object_binary_app_data_container.c ****         appObj->writeFunc = prv_write;
 1684              		.loc 2 471 0
 1685 010a BB69     		ldr	r3, [r7, #24]
ARM GAS  C:\Users\dtjld\AppData\Local\Temp\ccKooWlR.s 			page 41


 1686 010c 0D4A     		ldr	r2, .L115+16
 1687 010e 1A61     		str	r2, [r3, #16]
 472:C:/Users/dtjld/Desktop/AIoT_software/LiteOS_Lab_overseas/LiteOS_Lab/iot_link/oc/oc_lwm2m/atiny_lwm2m\object_binary_app_data_container.c ****         appObj->executeFunc = prv_exec;
 1688              		.loc 2 472 0
 1689 0110 BB69     		ldr	r3, [r7, #24]
 1690 0112 0D4A     		ldr	r2, .L115+20
 1691 0114 5A61     		str	r2, [r3, #20]
 473:C:/Users/dtjld/Desktop/AIoT_software/LiteOS_Lab_overseas/LiteOS_Lab/iot_link/oc/oc_lwm2m/atiny_lwm2m\object_binary_app_data_container.c ****         appObj->createFunc = prv_create;
 1692              		.loc 2 473 0
 1693 0116 BB69     		ldr	r3, [r7, #24]
 1694 0118 0C4A     		ldr	r2, .L115+24
 1695 011a DA61     		str	r2, [r3, #28]
 474:C:/Users/dtjld/Desktop/AIoT_software/LiteOS_Lab_overseas/LiteOS_Lab/iot_link/oc/oc_lwm2m/atiny_lwm2m\object_binary_app_data_container.c ****         appObj->deleteFunc = prv_delete;
 1696              		.loc 2 474 0
 1697 011c BB69     		ldr	r3, [r7, #24]
 1698 011e 0C4A     		ldr	r2, .L115+28
 1699 0120 1A62     		str	r2, [r3, #32]
 475:C:/Users/dtjld/Desktop/AIoT_software/LiteOS_Lab_overseas/LiteOS_Lab/iot_link/oc/oc_lwm2m/atiny_lwm2m\object_binary_app_data_container.c ****         appObj->userData = atiny_params->userData;
 1700              		.loc 2 475 0
 1701 0122 7B68     		ldr	r3, [r7, #4]
 1702 0124 DA6B     		ldr	r2, [r3, #60]
 1703 0126 BB69     		ldr	r3, [r7, #24]
 1704 0128 9A62     		str	r2, [r3, #40]
 1705              	.L105:
 1706              	.LBE4:
 476:C:/Users/dtjld/Desktop/AIoT_software/LiteOS_Lab_overseas/LiteOS_Lab/iot_link/oc/oc_lwm2m/atiny_lwm2m\object_binary_app_data_container.c ****     }
 477:C:/Users/dtjld/Desktop/AIoT_software/LiteOS_Lab_overseas/LiteOS_Lab/iot_link/oc/oc_lwm2m/atiny_lwm2m\object_binary_app_data_container.c **** 
 478:C:/Users/dtjld/Desktop/AIoT_software/LiteOS_Lab_overseas/LiteOS_Lab/iot_link/oc/oc_lwm2m/atiny_lwm2m\object_binary_app_data_container.c ****     return appObj;
 1707              		.loc 2 478 0
 1708 012a BB69     		ldr	r3, [r7, #24]
 1709              	.L113:
 479:C:/Users/dtjld/Desktop/AIoT_software/LiteOS_Lab_overseas/LiteOS_Lab/iot_link/oc/oc_lwm2m/atiny_lwm2m\object_binary_app_data_container.c **** }
 1710              		.loc 2 479 0
 1711 012c 1846     		mov	r0, r3
 1712 012e 2037     		adds	r7, r7, #32
 1713              	.LCFI60:
 1714              		.cfi_def_cfa_offset 16
 1715 0130 BD46     		mov	sp, r7
 1716              	.LCFI61:
 1717              		.cfi_def_cfa_register 13
 1718              		@ sp needed
 1719 0132 B0BD     		pop	{r4, r5, r7, pc}
 1720              	.L116:
 1721              		.align	2
 1722              	.L115:
 1723 0134 00000000 		.word	__FUNCTION__.8995
 1724 0138 FC000000 		.word	.LC10
 1725 013c 00000000 		.word	prv_read
 1726 0140 00000000 		.word	prv_discover
 1727 0144 00000000 		.word	prv_write
 1728 0148 00000000 		.word	prv_exec
 1729 014c 00000000 		.word	prv_create
 1730 0150 00000000 		.word	prv_delete
 1731              		.cfi_endproc
 1732              	.LFE24:
 1734              		.section	.text.free_binary_app_data_object_rpt,"ax",%progbits
 1735              		.align	1
ARM GAS  C:\Users\dtjld\AppData\Local\Temp\ccKooWlR.s 			page 42


 1736              		.syntax unified
 1737              		.thumb
 1738              		.thumb_func
 1739              		.fpu fpv4-sp-d16
 1741              	free_binary_app_data_object_rpt:
 1742              	.LFB25:
 480:C:/Users/dtjld/Desktop/AIoT_software/LiteOS_Lab_overseas/LiteOS_Lab/iot_link/oc/oc_lwm2m/atiny_lwm2m\object_binary_app_data_container.c **** 
 481:C:/Users/dtjld/Desktop/AIoT_software/LiteOS_Lab_overseas/LiteOS_Lab/iot_link/oc/oc_lwm2m/atiny_lwm2m\object_binary_app_data_container.c **** static void free_binary_app_data_object_rpt(lwm2m_object_t *object)
 482:C:/Users/dtjld/Desktop/AIoT_software/LiteOS_Lab_overseas/LiteOS_Lab/iot_link/oc/oc_lwm2m/atiny_lwm2m\object_binary_app_data_container.c **** {
 1743              		.loc 2 482 0
 1744              		.cfi_startproc
 1745              		@ args = 0, pretend = 0, frame = 24
 1746              		@ frame_needed = 1, uses_anonymous_args = 0
 1747 0000 80B5     		push	{r7, lr}
 1748              	.LCFI62:
 1749              		.cfi_def_cfa_offset 8
 1750              		.cfi_offset 7, -8
 1751              		.cfi_offset 14, -4
 1752 0002 86B0     		sub	sp, sp, #24
 1753              	.LCFI63:
 1754              		.cfi_def_cfa_offset 32
 1755 0004 00AF     		add	r7, sp, #0
 1756              	.LCFI64:
 1757              		.cfi_def_cfa_register 7
 1758 0006 7860     		str	r0, [r7, #4]
 483:C:/Users/dtjld/Desktop/AIoT_software/LiteOS_Lab_overseas/LiteOS_Lab/iot_link/oc/oc_lwm2m/atiny_lwm2m\object_binary_app_data_container.c ****     lwm2m_list_t *cur = object->instanceList;
 1759              		.loc 2 483 0
 1760 0008 7B68     		ldr	r3, [r7, #4]
 1761 000a 9B68     		ldr	r3, [r3, #8]
 1762 000c 7B61     		str	r3, [r7, #20]
 484:C:/Users/dtjld/Desktop/AIoT_software/LiteOS_Lab_overseas/LiteOS_Lab/iot_link/oc/oc_lwm2m/atiny_lwm2m\object_binary_app_data_container.c ****     lwm2m_uri_t uri;
 485:C:/Users/dtjld/Desktop/AIoT_software/LiteOS_Lab_overseas/LiteOS_Lab/iot_link/oc/oc_lwm2m/atiny_lwm2m\object_binary_app_data_container.c ****     while(cur)
 1763              		.loc 2 485 0
 1764 000e 10E0     		b	.L118
 1765              	.L119:
 486:C:/Users/dtjld/Desktop/AIoT_software/LiteOS_Lab_overseas/LiteOS_Lab/iot_link/oc/oc_lwm2m/atiny_lwm2m\object_binary_app_data_container.c ****     {
 487:C:/Users/dtjld/Desktop/AIoT_software/LiteOS_Lab_overseas/LiteOS_Lab/iot_link/oc/oc_lwm2m/atiny_lwm2m\object_binary_app_data_container.c ****         get_resource_uri(object->objID, ((plat_instance_t *)cur)->shortID, BINARY_APP_DATA_RES_ID, 
 1766              		.loc 2 487 0
 1767 0010 7B68     		ldr	r3, [r7, #4]
 1768 0012 9888     		ldrh	r0, [r3, #4]
 1769 0014 7B69     		ldr	r3, [r7, #20]
 1770 0016 9988     		ldrh	r1, [r3, #4]
 1771 0018 07F10C03 		add	r3, r7, #12
 1772 001c 0022     		movs	r2, #0
 1773 001e FFF7FEFF 		bl	get_resource_uri
 488:C:/Users/dtjld/Desktop/AIoT_software/LiteOS_Lab_overseas/LiteOS_Lab/iot_link/oc/oc_lwm2m/atiny_lwm2m\object_binary_app_data_container.c ****         (void)atiny_rm_rpt_uri(&uri);
 1774              		.loc 2 488 0
 1775 0022 07F10C03 		add	r3, r7, #12
 1776 0026 1846     		mov	r0, r3
 1777 0028 FFF7FEFF 		bl	atiny_rm_rpt_uri
 489:C:/Users/dtjld/Desktop/AIoT_software/LiteOS_Lab_overseas/LiteOS_Lab/iot_link/oc/oc_lwm2m/atiny_lwm2m\object_binary_app_data_container.c ****         cur = cur->next;
 1778              		.loc 2 489 0
 1779 002c 7B69     		ldr	r3, [r7, #20]
 1780 002e 1B68     		ldr	r3, [r3]
 1781 0030 7B61     		str	r3, [r7, #20]
 1782              	.L118:
 485:C:/Users/dtjld/Desktop/AIoT_software/LiteOS_Lab_overseas/LiteOS_Lab/iot_link/oc/oc_lwm2m/atiny_lwm2m\object_binary_app_data_container.c ****     {
ARM GAS  C:\Users\dtjld\AppData\Local\Temp\ccKooWlR.s 			page 43


 1783              		.loc 2 485 0
 1784 0032 7B69     		ldr	r3, [r7, #20]
 1785 0034 002B     		cmp	r3, #0
 1786 0036 EBD1     		bne	.L119
 490:C:/Users/dtjld/Desktop/AIoT_software/LiteOS_Lab_overseas/LiteOS_Lab/iot_link/oc/oc_lwm2m/atiny_lwm2m\object_binary_app_data_container.c ****     }
 491:C:/Users/dtjld/Desktop/AIoT_software/LiteOS_Lab_overseas/LiteOS_Lab/iot_link/oc/oc_lwm2m/atiny_lwm2m\object_binary_app_data_container.c **** }
 1787              		.loc 2 491 0
 1788 0038 00BF     		nop
 1789 003a 1837     		adds	r7, r7, #24
 1790              	.LCFI65:
 1791              		.cfi_def_cfa_offset 8
 1792 003c BD46     		mov	sp, r7
 1793              	.LCFI66:
 1794              		.cfi_def_cfa_register 13
 1795              		@ sp needed
 1796 003e 80BD     		pop	{r7, pc}
 1797              		.cfi_endproc
 1798              	.LFE25:
 1800              		.section	.text.free_binary_app_data_object,"ax",%progbits
 1801              		.align	1
 1802              		.global	free_binary_app_data_object
 1803              		.syntax unified
 1804              		.thumb
 1805              		.thumb_func
 1806              		.fpu fpv4-sp-d16
 1808              	free_binary_app_data_object:
 1809              	.LFB26:
 492:C:/Users/dtjld/Desktop/AIoT_software/LiteOS_Lab_overseas/LiteOS_Lab/iot_link/oc/oc_lwm2m/atiny_lwm2m\object_binary_app_data_container.c **** 
 493:C:/Users/dtjld/Desktop/AIoT_software/LiteOS_Lab_overseas/LiteOS_Lab/iot_link/oc/oc_lwm2m/atiny_lwm2m\object_binary_app_data_container.c **** void free_binary_app_data_object(lwm2m_object_t *object)
 494:C:/Users/dtjld/Desktop/AIoT_software/LiteOS_Lab_overseas/LiteOS_Lab/iot_link/oc/oc_lwm2m/atiny_lwm2m\object_binary_app_data_container.c **** {
 1810              		.loc 2 494 0
 1811              		.cfi_startproc
 1812              		@ args = 0, pretend = 0, frame = 8
 1813              		@ frame_needed = 1, uses_anonymous_args = 0
 1814 0000 80B5     		push	{r7, lr}
 1815              	.LCFI67:
 1816              		.cfi_def_cfa_offset 8
 1817              		.cfi_offset 7, -8
 1818              		.cfi_offset 14, -4
 1819 0002 82B0     		sub	sp, sp, #8
 1820              	.LCFI68:
 1821              		.cfi_def_cfa_offset 16
 1822 0004 00AF     		add	r7, sp, #0
 1823              	.LCFI69:
 1824              		.cfi_def_cfa_register 7
 1825 0006 7860     		str	r0, [r7, #4]
 495:C:/Users/dtjld/Desktop/AIoT_software/LiteOS_Lab_overseas/LiteOS_Lab/iot_link/oc/oc_lwm2m/atiny_lwm2m\object_binary_app_data_container.c ****     free_binary_app_data_object_rpt(object);
 1826              		.loc 2 495 0
 1827 0008 7868     		ldr	r0, [r7, #4]
 1828 000a FFF7FEFF 		bl	free_binary_app_data_object_rpt
 496:C:/Users/dtjld/Desktop/AIoT_software/LiteOS_Lab_overseas/LiteOS_Lab/iot_link/oc/oc_lwm2m/atiny_lwm2m\object_binary_app_data_container.c ****     LWM2M_LIST_FREE(object->instanceList);
 1829              		.loc 2 496 0
 1830 000e 7B68     		ldr	r3, [r7, #4]
 1831 0010 9B68     		ldr	r3, [r3, #8]
 1832 0012 1846     		mov	r0, r3
 1833 0014 FFF7FEFF 		bl	lwm2m_list_free
 497:C:/Users/dtjld/Desktop/AIoT_software/LiteOS_Lab_overseas/LiteOS_Lab/iot_link/oc/oc_lwm2m/atiny_lwm2m\object_binary_app_data_container.c **** ///< for this memory is not allocated by us ,we should not take care about it
ARM GAS  C:\Users\dtjld\AppData\Local\Temp\ccKooWlR.s 			page 44


 498:C:/Users/dtjld/Desktop/AIoT_software/LiteOS_Lab_overseas/LiteOS_Lab/iot_link/oc/oc_lwm2m/atiny_lwm2m\object_binary_app_data_container.c **** //    if (object->userData != NULL)
 499:C:/Users/dtjld/Desktop/AIoT_software/LiteOS_Lab_overseas/LiteOS_Lab/iot_link/oc/oc_lwm2m/atiny_lwm2m\object_binary_app_data_container.c **** //    {
 500:C:/Users/dtjld/Desktop/AIoT_software/LiteOS_Lab_overseas/LiteOS_Lab/iot_link/oc/oc_lwm2m/atiny_lwm2m\object_binary_app_data_container.c **** //        lwm2m_free(object->userData);
 501:C:/Users/dtjld/Desktop/AIoT_software/LiteOS_Lab_overseas/LiteOS_Lab/iot_link/oc/oc_lwm2m/atiny_lwm2m\object_binary_app_data_container.c **** //        object->userData = NULL;
 502:C:/Users/dtjld/Desktop/AIoT_software/LiteOS_Lab_overseas/LiteOS_Lab/iot_link/oc/oc_lwm2m/atiny_lwm2m\object_binary_app_data_container.c **** //    }
 503:C:/Users/dtjld/Desktop/AIoT_software/LiteOS_Lab_overseas/LiteOS_Lab/iot_link/oc/oc_lwm2m/atiny_lwm2m\object_binary_app_data_container.c ****     lwm2m_free(object);
 1834              		.loc 2 503 0
 1835 0018 7868     		ldr	r0, [r7, #4]
 1836 001a FFF7FEFF 		bl	lwm2m_free
 504:C:/Users/dtjld/Desktop/AIoT_software/LiteOS_Lab_overseas/LiteOS_Lab/iot_link/oc/oc_lwm2m/atiny_lwm2m\object_binary_app_data_container.c **** }
 1837              		.loc 2 504 0
 1838 001e 00BF     		nop
 1839 0020 0837     		adds	r7, r7, #8
 1840              	.LCFI70:
 1841              		.cfi_def_cfa_offset 8
 1842 0022 BD46     		mov	sp, r7
 1843              	.LCFI71:
 1844              		.cfi_def_cfa_register 13
 1845              		@ sp needed
 1846 0024 80BD     		pop	{r7, pc}
 1847              		.cfi_endproc
 1848              	.LFE26:
 1850              		.section	.text.set_binary_app_data_object_rpt_max_cnt,"ax",%progbits
 1851              		.align	1
 1852              		.global	set_binary_app_data_object_rpt_max_cnt
 1853              		.syntax unified
 1854              		.thumb
 1855              		.thumb_func
 1856              		.fpu fpv4-sp-d16
 1858              	set_binary_app_data_object_rpt_max_cnt:
 1859              	.LFB27:
 505:C:/Users/dtjld/Desktop/AIoT_software/LiteOS_Lab_overseas/LiteOS_Lab/iot_link/oc/oc_lwm2m/atiny_lwm2m\object_binary_app_data_container.c **** 
 506:C:/Users/dtjld/Desktop/AIoT_software/LiteOS_Lab_overseas/LiteOS_Lab/iot_link/oc/oc_lwm2m/atiny_lwm2m\object_binary_app_data_container.c **** void set_binary_app_data_object_rpt_max_cnt(uint32_t max_rpt_cnt)
 507:C:/Users/dtjld/Desktop/AIoT_software/LiteOS_Lab_overseas/LiteOS_Lab/iot_link/oc/oc_lwm2m/atiny_lwm2m\object_binary_app_data_container.c **** {
 1860              		.loc 2 507 0
 1861              		.cfi_startproc
 1862              		@ args = 0, pretend = 0, frame = 16
 1863              		@ frame_needed = 1, uses_anonymous_args = 0
 1864 0000 80B5     		push	{r7, lr}
 1865              	.LCFI72:
 1866              		.cfi_def_cfa_offset 8
 1867              		.cfi_offset 7, -8
 1868              		.cfi_offset 14, -4
 1869 0002 84B0     		sub	sp, sp, #16
 1870              	.LCFI73:
 1871              		.cfi_def_cfa_offset 24
 1872 0004 00AF     		add	r7, sp, #0
 1873              	.LCFI74:
 1874              		.cfi_def_cfa_register 7
 1875 0006 7860     		str	r0, [r7, #4]
 508:C:/Users/dtjld/Desktop/AIoT_software/LiteOS_Lab_overseas/LiteOS_Lab/iot_link/oc/oc_lwm2m/atiny_lwm2m\object_binary_app_data_container.c ****     lwm2m_uri_t uri;
 509:C:/Users/dtjld/Desktop/AIoT_software/LiteOS_Lab_overseas/LiteOS_Lab/iot_link/oc/oc_lwm2m/atiny_lwm2m\object_binary_app_data_container.c **** 
 510:C:/Users/dtjld/Desktop/AIoT_software/LiteOS_Lab_overseas/LiteOS_Lab/iot_link/oc/oc_lwm2m/atiny_lwm2m\object_binary_app_data_container.c ****     get_resource_uri(BINARY_APP_DATA_OBJECT_ID, 0, BINARY_APP_DATA_RES_ID, &uri);
 1876              		.loc 2 510 0
 1877 0008 07F10803 		add	r3, r7, #8
 1878 000c 0022     		movs	r2, #0
 1879 000e 0021     		movs	r1, #0
ARM GAS  C:\Users\dtjld\AppData\Local\Temp\ccKooWlR.s 			page 45


 1880 0010 1320     		movs	r0, #19
 1881 0012 FFF7FEFF 		bl	get_resource_uri
 511:C:/Users/dtjld/Desktop/AIoT_software/LiteOS_Lab_overseas/LiteOS_Lab/iot_link/oc/oc_lwm2m/atiny_lwm2m\object_binary_app_data_container.c ****     (void)atiny_set_max_rpt_cnt(&uri, MAX(MIN_SAVE_CNT, max_rpt_cnt));
 1882              		.loc 2 511 0
 1883 0016 7B68     		ldr	r3, [r7, #4]
 1884 0018 012B     		cmp	r3, #1
 1885 001a 38BF     		it	cc
 1886 001c 0123     		movcc	r3, #1
 1887 001e 1A46     		mov	r2, r3
 1888 0020 07F10803 		add	r3, r7, #8
 1889 0024 1146     		mov	r1, r2
 1890 0026 1846     		mov	r0, r3
 1891 0028 FFF7FEFF 		bl	atiny_set_max_rpt_cnt
 512:C:/Users/dtjld/Desktop/AIoT_software/LiteOS_Lab_overseas/LiteOS_Lab/iot_link/oc/oc_lwm2m/atiny_lwm2m\object_binary_app_data_container.c **** }
 1892              		.loc 2 512 0
 1893 002c 00BF     		nop
 1894 002e 1037     		adds	r7, r7, #16
 1895              	.LCFI75:
 1896              		.cfi_def_cfa_offset 8
 1897 0030 BD46     		mov	sp, r7
 1898              	.LCFI76:
 1899              		.cfi_def_cfa_register 13
 1900              		@ sp needed
 1901 0032 80BD     		pop	{r7, pc}
 1902              		.cfi_endproc
 1903              	.LFE27:
 1905              		.section	.rodata.__FUNCTION__.8897,"a",%progbits
 1906              		.align	2
 1909              	__FUNCTION__.8897:
 1910 0000 7072765F 		.ascii	"prv_read_data\000"
 1910      72656164 
 1910      5F646174 
 1910      6100
 1911              		.section	.rodata.__FUNCTION__.8924,"a",%progbits
 1912              		.align	2
 1915              	__FUNCTION__.8924:
 1916 0000 7072765F 		.ascii	"prv_read\000"
 1916      72656164 
 1916      00
 1917              		.section	.rodata.__FUNCTION__.8970,"a",%progbits
 1918              		.align	2
 1921              	__FUNCTION__.8970:
 1922 0000 7072765F 		.ascii	"prv_create\000"
 1922      63726561 
 1922      746500
 1923              		.section	.rodata.__FUNCTION__.8995,"a",%progbits
 1924              		.align	2
 1927              	__FUNCTION__.8995:
 1928 0000 6765745F 		.ascii	"get_binary_app_data_object\000"
 1928      62696E61 
 1928      72795F61 
 1928      70705F64 
 1928      6174615F 
 1929              		.text
 1930              	.Letext0:
 1931              		.file 3 "c:\\ac6\\systemworkbench\\plugins\\fr.ac6.mcu.externaltools.arm-none.win32_1.16.0.2018071
 1932              		.file 4 "c:\\ac6\\systemworkbench\\plugins\\fr.ac6.mcu.externaltools.arm-none.win32_1.16.0.2018071
ARM GAS  C:\Users\dtjld\AppData\Local\Temp\ccKooWlR.s 			page 46


 1933              		.file 5 "c:\\ac6\\systemworkbench\\plugins\\fr.ac6.mcu.externaltools.arm-none.win32_1.16.0.2018071
 1934              		.file 6 "c:\\ac6\\systemworkbench\\plugins\\fr.ac6.mcu.externaltools.arm-none.win32_1.16.0.2018071
 1935              		.file 7 "c:\\ac6\\systemworkbench\\plugins\\fr.ac6.mcu.externaltools.arm-none.win32_1.16.0.2018071
 1936              		.file 8 "c:\\ac6\\systemworkbench\\plugins\\fr.ac6.mcu.externaltools.arm-none.win32_1.16.0.2018071
 1937              		.file 9 "C:/Users/dtjld/Desktop/AIoT_software/LiteOS_Lab_overseas/LiteOS_Lab/iot_link/link_log/ati
 1938              		.file 10 "C:/Users/dtjld/Desktop/AIoT_software/LiteOS_Lab_overseas/LiteOS_Lab/iot_link/network/lwm
 1939              		.file 11 "c:\\ac6\\systemworkbench\\plugins\\fr.ac6.mcu.externaltools.arm-none.win32_1.16.0.201807
 1940              		.file 12 "C:/Users/dtjld/Desktop/AIoT_software/LiteOS_Lab_overseas/LiteOS_Lab/iot_link/network/lwm
 1941              		.file 13 "C:/Users/dtjld/Desktop/AIoT_software/LiteOS_Lab_overseas/LiteOS_Lab/iot_link/network/lwm
 1942              		.file 14 "c:\\ac6\\systemworkbench\\plugins\\fr.ac6.mcu.externaltools.arm-none.win32_1.16.0.201807
 1943              		.file 15 "c:\\ac6\\systemworkbench\\plugins\\fr.ac6.mcu.externaltools.arm-none.win32_1.16.0.201807
 1944              		.file 16 "C:/Users/dtjld/Desktop/AIoT_software/LiteOS_Lab_overseas/LiteOS_Lab/iot_link/oc/oc_lwm2m
 1945              		.file 17 "C:/Users/dtjld/Desktop/AIoT_software/LiteOS_Lab_overseas/LiteOS_Lab/iot_link/oc/oc_lwm2m
ARM GAS  C:\Users\dtjld\AppData\Local\Temp\ccKooWlR.s 			page 47

