ARM GAS  C:\Users\dtjld\AppData\Local\Temp\cclRRs7D.s 			page 1


   1              		.cpu cortex-m4
   2              		.eabi_attribute 27, 1
   3              		.eabi_attribute 28, 1
   4              		.eabi_attribute 20, 1
   5              		.eabi_attribute 21, 1
   6              		.eabi_attribute 23, 3
   7              		.eabi_attribute 24, 1
   8              		.eabi_attribute 25, 1
   9              		.eabi_attribute 26, 1
  10              		.eabi_attribute 30, 6
  11              		.eabi_attribute 34, 1
  12              		.eabi_attribute 18, 4
  13              		.file	"objects.c"
  14              		.text
  15              	.Ltext0:
  16              		.cfi_sections	.debug_frame
  17              		.section	.rodata
  18              		.align	2
  19              	.LC0:
  20 0000 5B25733A 		.ascii	"[%s:%d] NULL\015\012\000"
  20      25645D20 
  20      4E554C4C 
  20      0D0A00
  21 000f 00       		.align	2
  22              	.LC1:
  23 0010 5B25733A 		.ascii	"[%s:%d] /%d\000"
  23      25645D20 
  23      2F256400 
  24              		.align	2
  25              	.LC2:
  26 001c 2F256400 		.ascii	"/%d\000"
  27              		.align	2
  28              	.LC3:
  29 0020 0D0A00   		.ascii	"\015\012\000"
  30              		.section	.text.object_checkReadable,"ax",%progbits
  31              		.align	1
  32              		.global	object_checkReadable
  33              		.syntax unified
  34              		.thumb
  35              		.thumb_func
  36              		.fpu fpv4-sp-d16
  38              	object_checkReadable:
  39              	.LFB12:
  40              		.file 1 "C:/Users/dtjld/Desktop/AIoT_software/LiteOS_Lab_overseas/LiteOS_Lab/iot_link/network/lwm2
   1:C:/Users/dtjld/Desktop/AIoT_software/LiteOS_Lab_overseas/LiteOS_Lab/iot_link/network/lwm2m/wakaama_lwm2m/core\objects.c **** /*----------------------------------------------------------------------------
   2:C:/Users/dtjld/Desktop/AIoT_software/LiteOS_Lab_overseas/LiteOS_Lab/iot_link/network/lwm2m/wakaama_lwm2m/core\objects.c ****  * Copyright (c) <2016-2018>, <Huawei Technologies Co., Ltd>
   3:C:/Users/dtjld/Desktop/AIoT_software/LiteOS_Lab_overseas/LiteOS_Lab/iot_link/network/lwm2m/wakaama_lwm2m/core\objects.c ****  * All rights reserved.
   4:C:/Users/dtjld/Desktop/AIoT_software/LiteOS_Lab_overseas/LiteOS_Lab/iot_link/network/lwm2m/wakaama_lwm2m/core\objects.c ****  * Redistribution and use in source and binary forms, with or without modification,
   5:C:/Users/dtjld/Desktop/AIoT_software/LiteOS_Lab_overseas/LiteOS_Lab/iot_link/network/lwm2m/wakaama_lwm2m/core\objects.c ****  * are permitted provided that the following conditions are met:
   6:C:/Users/dtjld/Desktop/AIoT_software/LiteOS_Lab_overseas/LiteOS_Lab/iot_link/network/lwm2m/wakaama_lwm2m/core\objects.c ****  * 1. Redistributions of source code must retain the above copyright notice, this list of
   7:C:/Users/dtjld/Desktop/AIoT_software/LiteOS_Lab_overseas/LiteOS_Lab/iot_link/network/lwm2m/wakaama_lwm2m/core\objects.c ****  * conditions and the following disclaimer.
   8:C:/Users/dtjld/Desktop/AIoT_software/LiteOS_Lab_overseas/LiteOS_Lab/iot_link/network/lwm2m/wakaama_lwm2m/core\objects.c ****  * 2. Redistributions in binary form must reproduce the above copyright notice, this list
   9:C:/Users/dtjld/Desktop/AIoT_software/LiteOS_Lab_overseas/LiteOS_Lab/iot_link/network/lwm2m/wakaama_lwm2m/core\objects.c ****  * of conditions and the following disclaimer in the documentation and/or other materials
  10:C:/Users/dtjld/Desktop/AIoT_software/LiteOS_Lab_overseas/LiteOS_Lab/iot_link/network/lwm2m/wakaama_lwm2m/core\objects.c ****  * provided with the distribution.
  11:C:/Users/dtjld/Desktop/AIoT_software/LiteOS_Lab_overseas/LiteOS_Lab/iot_link/network/lwm2m/wakaama_lwm2m/core\objects.c ****  * 3. Neither the name of the copyright holder nor the names of its contributors may be used
  12:C:/Users/dtjld/Desktop/AIoT_software/LiteOS_Lab_overseas/LiteOS_Lab/iot_link/network/lwm2m/wakaama_lwm2m/core\objects.c ****  * to endorse or promote products derived from this software without specific prior written
  13:C:/Users/dtjld/Desktop/AIoT_software/LiteOS_Lab_overseas/LiteOS_Lab/iot_link/network/lwm2m/wakaama_lwm2m/core\objects.c ****  * permission.
ARM GAS  C:\Users\dtjld\AppData\Local\Temp\cclRRs7D.s 			page 2


  14:C:/Users/dtjld/Desktop/AIoT_software/LiteOS_Lab_overseas/LiteOS_Lab/iot_link/network/lwm2m/wakaama_lwm2m/core\objects.c ****  * THIS SOFTWARE IS PROVIDED BY THE COPYRIGHT HOLDERS AND CONTRIBUTORS
  15:C:/Users/dtjld/Desktop/AIoT_software/LiteOS_Lab_overseas/LiteOS_Lab/iot_link/network/lwm2m/wakaama_lwm2m/core\objects.c ****  * "AS IS" AND ANY EXPRESS OR IMPLIED WARRANTIES, INCLUDING, BUT NOT LIMITED TO,
  16:C:/Users/dtjld/Desktop/AIoT_software/LiteOS_Lab_overseas/LiteOS_Lab/iot_link/network/lwm2m/wakaama_lwm2m/core\objects.c ****  * THE IMPLIED WARRANTIES OF MERCHANTABILITY AND FITNESS FOR A PARTICULAR
  17:C:/Users/dtjld/Desktop/AIoT_software/LiteOS_Lab_overseas/LiteOS_Lab/iot_link/network/lwm2m/wakaama_lwm2m/core\objects.c ****  * PURPOSE ARE DISCLAIMED. IN NO EVENT SHALL THE COPYRIGHT HOLDER OR
  18:C:/Users/dtjld/Desktop/AIoT_software/LiteOS_Lab_overseas/LiteOS_Lab/iot_link/network/lwm2m/wakaama_lwm2m/core\objects.c ****  * CONTRIBUTORS BE LIABLE FOR ANY DIRECT, INDIRECT, INCIDENTAL, SPECIAL,
  19:C:/Users/dtjld/Desktop/AIoT_software/LiteOS_Lab_overseas/LiteOS_Lab/iot_link/network/lwm2m/wakaama_lwm2m/core\objects.c ****  * EXEMPLARY, OR CONSEQUENTIAL DAMAGES (INCLUDING, BUT NOT LIMITED TO,
  20:C:/Users/dtjld/Desktop/AIoT_software/LiteOS_Lab_overseas/LiteOS_Lab/iot_link/network/lwm2m/wakaama_lwm2m/core\objects.c ****  * PROCUREMENT OF SUBSTITUTE GOODS OR SERVICES; LOSS OF USE, DATA, OR PROFITS;
  21:C:/Users/dtjld/Desktop/AIoT_software/LiteOS_Lab_overseas/LiteOS_Lab/iot_link/network/lwm2m/wakaama_lwm2m/core\objects.c ****  * OR BUSINESS INTERRUPTION) HOWEVER CAUSED AND ON ANY THEORY OF LIABILITY,
  22:C:/Users/dtjld/Desktop/AIoT_software/LiteOS_Lab_overseas/LiteOS_Lab/iot_link/network/lwm2m/wakaama_lwm2m/core\objects.c ****  * WHETHER IN CONTRACT, STRICT LIABILITY, OR TORT (INCLUDING NEGLIGENCE OR
  23:C:/Users/dtjld/Desktop/AIoT_software/LiteOS_Lab_overseas/LiteOS_Lab/iot_link/network/lwm2m/wakaama_lwm2m/core\objects.c ****  * OTHERWISE) ARISING IN ANY WAY OUT OF THE USE OF THIS SOFTWARE, EVEN IF
  24:C:/Users/dtjld/Desktop/AIoT_software/LiteOS_Lab_overseas/LiteOS_Lab/iot_link/network/lwm2m/wakaama_lwm2m/core\objects.c ****  * ADVISED OF THE POSSIBILITY OF SUCH DAMAGE.
  25:C:/Users/dtjld/Desktop/AIoT_software/LiteOS_Lab_overseas/LiteOS_Lab/iot_link/network/lwm2m/wakaama_lwm2m/core\objects.c ****  *---------------------------------------------------------------------------*/
  26:C:/Users/dtjld/Desktop/AIoT_software/LiteOS_Lab_overseas/LiteOS_Lab/iot_link/network/lwm2m/wakaama_lwm2m/core\objects.c **** /*----------------------------------------------------------------------------
  27:C:/Users/dtjld/Desktop/AIoT_software/LiteOS_Lab_overseas/LiteOS_Lab/iot_link/network/lwm2m/wakaama_lwm2m/core\objects.c ****  * Notice of Export Control Law
  28:C:/Users/dtjld/Desktop/AIoT_software/LiteOS_Lab_overseas/LiteOS_Lab/iot_link/network/lwm2m/wakaama_lwm2m/core\objects.c ****  * ===============================================
  29:C:/Users/dtjld/Desktop/AIoT_software/LiteOS_Lab_overseas/LiteOS_Lab/iot_link/network/lwm2m/wakaama_lwm2m/core\objects.c ****  * Huawei LiteOS may be subject to applicable export control laws and regulations, which might
  30:C:/Users/dtjld/Desktop/AIoT_software/LiteOS_Lab_overseas/LiteOS_Lab/iot_link/network/lwm2m/wakaama_lwm2m/core\objects.c ****  * include those applicable to Huawei LiteOS of U.S. and the country in which you are located.
  31:C:/Users/dtjld/Desktop/AIoT_software/LiteOS_Lab_overseas/LiteOS_Lab/iot_link/network/lwm2m/wakaama_lwm2m/core\objects.c ****  * Import, export and usage of Huawei LiteOS in any manner by you shall be in compliance with such
  32:C:/Users/dtjld/Desktop/AIoT_software/LiteOS_Lab_overseas/LiteOS_Lab/iot_link/network/lwm2m/wakaama_lwm2m/core\objects.c ****  * applicable export control laws and regulations.
  33:C:/Users/dtjld/Desktop/AIoT_software/LiteOS_Lab_overseas/LiteOS_Lab/iot_link/network/lwm2m/wakaama_lwm2m/core\objects.c ****  *---------------------------------------------------------------------------*/
  34:C:/Users/dtjld/Desktop/AIoT_software/LiteOS_Lab_overseas/LiteOS_Lab/iot_link/network/lwm2m/wakaama_lwm2m/core\objects.c **** 
  35:C:/Users/dtjld/Desktop/AIoT_software/LiteOS_Lab_overseas/LiteOS_Lab/iot_link/network/lwm2m/wakaama_lwm2m/core\objects.c **** /*******************************************************************************
  36:C:/Users/dtjld/Desktop/AIoT_software/LiteOS_Lab_overseas/LiteOS_Lab/iot_link/network/lwm2m/wakaama_lwm2m/core\objects.c ****  *
  37:C:/Users/dtjld/Desktop/AIoT_software/LiteOS_Lab_overseas/LiteOS_Lab/iot_link/network/lwm2m/wakaama_lwm2m/core\objects.c ****  * Copyright (c) 2013, 2014 Intel Corporation and others.
  38:C:/Users/dtjld/Desktop/AIoT_software/LiteOS_Lab_overseas/LiteOS_Lab/iot_link/network/lwm2m/wakaama_lwm2m/core\objects.c ****  * All rights reserved. This program and the accompanying materials
  39:C:/Users/dtjld/Desktop/AIoT_software/LiteOS_Lab_overseas/LiteOS_Lab/iot_link/network/lwm2m/wakaama_lwm2m/core\objects.c ****  * are made available under the terms of the Eclipse Public License v1.0
  40:C:/Users/dtjld/Desktop/AIoT_software/LiteOS_Lab_overseas/LiteOS_Lab/iot_link/network/lwm2m/wakaama_lwm2m/core\objects.c ****  * and Eclipse Distribution License v1.0 which accompany this distribution.
  41:C:/Users/dtjld/Desktop/AIoT_software/LiteOS_Lab_overseas/LiteOS_Lab/iot_link/network/lwm2m/wakaama_lwm2m/core\objects.c ****  *
  42:C:/Users/dtjld/Desktop/AIoT_software/LiteOS_Lab_overseas/LiteOS_Lab/iot_link/network/lwm2m/wakaama_lwm2m/core\objects.c ****  * The Eclipse Public License is available at
  43:C:/Users/dtjld/Desktop/AIoT_software/LiteOS_Lab_overseas/LiteOS_Lab/iot_link/network/lwm2m/wakaama_lwm2m/core\objects.c ****  *    http://www.eclipse.org/legal/epl-v10.html
  44:C:/Users/dtjld/Desktop/AIoT_software/LiteOS_Lab_overseas/LiteOS_Lab/iot_link/network/lwm2m/wakaama_lwm2m/core\objects.c ****  * The Eclipse Distribution License is available at
  45:C:/Users/dtjld/Desktop/AIoT_software/LiteOS_Lab_overseas/LiteOS_Lab/iot_link/network/lwm2m/wakaama_lwm2m/core\objects.c ****  *    http://www.eclipse.org/org/documents/edl-v10.php.
  46:C:/Users/dtjld/Desktop/AIoT_software/LiteOS_Lab_overseas/LiteOS_Lab/iot_link/network/lwm2m/wakaama_lwm2m/core\objects.c ****  *
  47:C:/Users/dtjld/Desktop/AIoT_software/LiteOS_Lab_overseas/LiteOS_Lab/iot_link/network/lwm2m/wakaama_lwm2m/core\objects.c ****  * Contributors:
  48:C:/Users/dtjld/Desktop/AIoT_software/LiteOS_Lab_overseas/LiteOS_Lab/iot_link/network/lwm2m/wakaama_lwm2m/core\objects.c ****  *    David Navarro, Intel Corporation - initial API and implementation
  49:C:/Users/dtjld/Desktop/AIoT_software/LiteOS_Lab_overseas/LiteOS_Lab/iot_link/network/lwm2m/wakaama_lwm2m/core\objects.c ****  *    Fabien Fleutot - Please refer to git log
  50:C:/Users/dtjld/Desktop/AIoT_software/LiteOS_Lab_overseas/LiteOS_Lab/iot_link/network/lwm2m/wakaama_lwm2m/core\objects.c ****  *    Toby Jaffey - Please refer to git log
  51:C:/Users/dtjld/Desktop/AIoT_software/LiteOS_Lab_overseas/LiteOS_Lab/iot_link/network/lwm2m/wakaama_lwm2m/core\objects.c ****  *    Benjamin Cabe? - Please refer to git log
  52:C:/Users/dtjld/Desktop/AIoT_software/LiteOS_Lab_overseas/LiteOS_Lab/iot_link/network/lwm2m/wakaama_lwm2m/core\objects.c ****  *    Bosch Software Innovations GmbH - Please refer to git log
  53:C:/Users/dtjld/Desktop/AIoT_software/LiteOS_Lab_overseas/LiteOS_Lab/iot_link/network/lwm2m/wakaama_lwm2m/core\objects.c ****  *    Pascal Rieux - Please refer to git log
  54:C:/Users/dtjld/Desktop/AIoT_software/LiteOS_Lab_overseas/LiteOS_Lab/iot_link/network/lwm2m/wakaama_lwm2m/core\objects.c ****  *    Scott Bertin - Please refer to git log
  55:C:/Users/dtjld/Desktop/AIoT_software/LiteOS_Lab_overseas/LiteOS_Lab/iot_link/network/lwm2m/wakaama_lwm2m/core\objects.c ****  *
  56:C:/Users/dtjld/Desktop/AIoT_software/LiteOS_Lab_overseas/LiteOS_Lab/iot_link/network/lwm2m/wakaama_lwm2m/core\objects.c ****  *******************************************************************************/
  57:C:/Users/dtjld/Desktop/AIoT_software/LiteOS_Lab_overseas/LiteOS_Lab/iot_link/network/lwm2m/wakaama_lwm2m/core\objects.c **** 
  58:C:/Users/dtjld/Desktop/AIoT_software/LiteOS_Lab_overseas/LiteOS_Lab/iot_link/network/lwm2m/wakaama_lwm2m/core\objects.c **** /*
  59:C:/Users/dtjld/Desktop/AIoT_software/LiteOS_Lab_overseas/LiteOS_Lab/iot_link/network/lwm2m/wakaama_lwm2m/core\objects.c ****  Copyright (c) 2013, 2014 Intel Corporation
  60:C:/Users/dtjld/Desktop/AIoT_software/LiteOS_Lab_overseas/LiteOS_Lab/iot_link/network/lwm2m/wakaama_lwm2m/core\objects.c **** 
  61:C:/Users/dtjld/Desktop/AIoT_software/LiteOS_Lab_overseas/LiteOS_Lab/iot_link/network/lwm2m/wakaama_lwm2m/core\objects.c ****  Redistribution and use in source and binary forms, with or without modification,
  62:C:/Users/dtjld/Desktop/AIoT_software/LiteOS_Lab_overseas/LiteOS_Lab/iot_link/network/lwm2m/wakaama_lwm2m/core\objects.c ****  are permitted provided that the following conditions are met:
  63:C:/Users/dtjld/Desktop/AIoT_software/LiteOS_Lab_overseas/LiteOS_Lab/iot_link/network/lwm2m/wakaama_lwm2m/core\objects.c **** 
  64:C:/Users/dtjld/Desktop/AIoT_software/LiteOS_Lab_overseas/LiteOS_Lab/iot_link/network/lwm2m/wakaama_lwm2m/core\objects.c ****      * Redistributions of source code must retain the above copyright notice,
  65:C:/Users/dtjld/Desktop/AIoT_software/LiteOS_Lab_overseas/LiteOS_Lab/iot_link/network/lwm2m/wakaama_lwm2m/core\objects.c ****        this list of conditions and the following disclaimer.
  66:C:/Users/dtjld/Desktop/AIoT_software/LiteOS_Lab_overseas/LiteOS_Lab/iot_link/network/lwm2m/wakaama_lwm2m/core\objects.c ****      * Redistributions in binary form must reproduce the above copyright notice,
  67:C:/Users/dtjld/Desktop/AIoT_software/LiteOS_Lab_overseas/LiteOS_Lab/iot_link/network/lwm2m/wakaama_lwm2m/core\objects.c ****        this list of conditions and the following disclaimer in the documentation
  68:C:/Users/dtjld/Desktop/AIoT_software/LiteOS_Lab_overseas/LiteOS_Lab/iot_link/network/lwm2m/wakaama_lwm2m/core\objects.c ****        and/or other materials provided with the distribution.
  69:C:/Users/dtjld/Desktop/AIoT_software/LiteOS_Lab_overseas/LiteOS_Lab/iot_link/network/lwm2m/wakaama_lwm2m/core\objects.c ****      * Neither the name of Intel Corporation nor the names of its contributors
  70:C:/Users/dtjld/Desktop/AIoT_software/LiteOS_Lab_overseas/LiteOS_Lab/iot_link/network/lwm2m/wakaama_lwm2m/core\objects.c ****        may be used to endorse or promote products derived from this software
ARM GAS  C:\Users\dtjld\AppData\Local\Temp\cclRRs7D.s 			page 3


  71:C:/Users/dtjld/Desktop/AIoT_software/LiteOS_Lab_overseas/LiteOS_Lab/iot_link/network/lwm2m/wakaama_lwm2m/core\objects.c ****        without specific prior written permission.
  72:C:/Users/dtjld/Desktop/AIoT_software/LiteOS_Lab_overseas/LiteOS_Lab/iot_link/network/lwm2m/wakaama_lwm2m/core\objects.c **** 
  73:C:/Users/dtjld/Desktop/AIoT_software/LiteOS_Lab_overseas/LiteOS_Lab/iot_link/network/lwm2m/wakaama_lwm2m/core\objects.c ****  THIS SOFTWARE IS PROVIDED BY THE COPYRIGHT HOLDERS AND CONTRIBUTORS "AS IS" AND
  74:C:/Users/dtjld/Desktop/AIoT_software/LiteOS_Lab_overseas/LiteOS_Lab/iot_link/network/lwm2m/wakaama_lwm2m/core\objects.c ****  ANY EXPRESS OR IMPLIED WARRANTIES, INCLUDING, BUT NOT LIMITED TO, THE IMPLIED
  75:C:/Users/dtjld/Desktop/AIoT_software/LiteOS_Lab_overseas/LiteOS_Lab/iot_link/network/lwm2m/wakaama_lwm2m/core\objects.c ****  WARRANTIES OF MERCHANTABILITY AND FITNESS FOR A PARTICULAR PURPOSE ARE DISCLAIMED.
  76:C:/Users/dtjld/Desktop/AIoT_software/LiteOS_Lab_overseas/LiteOS_Lab/iot_link/network/lwm2m/wakaama_lwm2m/core\objects.c ****  IN NO EVENT SHALL THE COPYRIGHT OWNER OR CONTRIBUTORS BE LIABLE FOR ANY DIRECT,
  77:C:/Users/dtjld/Desktop/AIoT_software/LiteOS_Lab_overseas/LiteOS_Lab/iot_link/network/lwm2m/wakaama_lwm2m/core\objects.c ****  INDIRECT, INCIDENTAL, SPECIAL, EXEMPLARY, OR CONSEQUENTIAL DAMAGES (INCLUDING,
  78:C:/Users/dtjld/Desktop/AIoT_software/LiteOS_Lab_overseas/LiteOS_Lab/iot_link/network/lwm2m/wakaama_lwm2m/core\objects.c ****  BUT NOT LIMITED TO, PROCUREMENT OF SUBSTITUTE GOODS OR SERVICES; LOSS OF USE,
  79:C:/Users/dtjld/Desktop/AIoT_software/LiteOS_Lab_overseas/LiteOS_Lab/iot_link/network/lwm2m/wakaama_lwm2m/core\objects.c ****  DATA, OR PROFITS; OR BUSINESS INTERRUPTION) HOWEVER CAUSED AND ON ANY THEORY OF
  80:C:/Users/dtjld/Desktop/AIoT_software/LiteOS_Lab_overseas/LiteOS_Lab/iot_link/network/lwm2m/wakaama_lwm2m/core\objects.c ****  LIABILITY, WHETHER IN CONTRACT, STRICT LIABILITY, OR TORT (INCLUDING NEGLIGENCE OR
  81:C:/Users/dtjld/Desktop/AIoT_software/LiteOS_Lab_overseas/LiteOS_Lab/iot_link/network/lwm2m/wakaama_lwm2m/core\objects.c ****  OTHERWISE) ARISING IN ANY WAY OUT OF THE USE OF THIS SOFTWARE, EVEN IF ADVISED OF
  82:C:/Users/dtjld/Desktop/AIoT_software/LiteOS_Lab_overseas/LiteOS_Lab/iot_link/network/lwm2m/wakaama_lwm2m/core\objects.c ****  THE POSSIBILITY OF SUCH DAMAGE.
  83:C:/Users/dtjld/Desktop/AIoT_software/LiteOS_Lab_overseas/LiteOS_Lab/iot_link/network/lwm2m/wakaama_lwm2m/core\objects.c **** 
  84:C:/Users/dtjld/Desktop/AIoT_software/LiteOS_Lab_overseas/LiteOS_Lab/iot_link/network/lwm2m/wakaama_lwm2m/core\objects.c ****  David Navarro <david.navarro@intel.com>
  85:C:/Users/dtjld/Desktop/AIoT_software/LiteOS_Lab_overseas/LiteOS_Lab/iot_link/network/lwm2m/wakaama_lwm2m/core\objects.c **** 
  86:C:/Users/dtjld/Desktop/AIoT_software/LiteOS_Lab_overseas/LiteOS_Lab/iot_link/network/lwm2m/wakaama_lwm2m/core\objects.c **** */
  87:C:/Users/dtjld/Desktop/AIoT_software/LiteOS_Lab_overseas/LiteOS_Lab/iot_link/network/lwm2m/wakaama_lwm2m/core\objects.c **** #include "internals.h"
  88:C:/Users/dtjld/Desktop/AIoT_software/LiteOS_Lab_overseas/LiteOS_Lab/iot_link/network/lwm2m/wakaama_lwm2m/core\objects.c **** 
  89:C:/Users/dtjld/Desktop/AIoT_software/LiteOS_Lab_overseas/LiteOS_Lab/iot_link/network/lwm2m/wakaama_lwm2m/core\objects.c **** #ifdef LWM2M_CLIENT_MODE
  90:C:/Users/dtjld/Desktop/AIoT_software/LiteOS_Lab_overseas/LiteOS_Lab/iot_link/network/lwm2m/wakaama_lwm2m/core\objects.c **** 
  91:C:/Users/dtjld/Desktop/AIoT_software/LiteOS_Lab_overseas/LiteOS_Lab/iot_link/network/lwm2m/wakaama_lwm2m/core\objects.c **** 
  92:C:/Users/dtjld/Desktop/AIoT_software/LiteOS_Lab_overseas/LiteOS_Lab/iot_link/network/lwm2m/wakaama_lwm2m/core\objects.c **** #include <stdlib.h>
  93:C:/Users/dtjld/Desktop/AIoT_software/LiteOS_Lab_overseas/LiteOS_Lab/iot_link/network/lwm2m/wakaama_lwm2m/core\objects.c **** #include <string.h>
  94:C:/Users/dtjld/Desktop/AIoT_software/LiteOS_Lab_overseas/LiteOS_Lab/iot_link/network/lwm2m/wakaama_lwm2m/core\objects.c **** #include <stdio.h>
  95:C:/Users/dtjld/Desktop/AIoT_software/LiteOS_Lab_overseas/LiteOS_Lab/iot_link/network/lwm2m/wakaama_lwm2m/core\objects.c **** #include "object_comm.h"
  96:C:/Users/dtjld/Desktop/AIoT_software/LiteOS_Lab_overseas/LiteOS_Lab/iot_link/network/lwm2m/wakaama_lwm2m/core\objects.c **** 
  97:C:/Users/dtjld/Desktop/AIoT_software/LiteOS_Lab_overseas/LiteOS_Lab/iot_link/network/lwm2m/wakaama_lwm2m/core\objects.c **** uint8_t object_checkReadable(lwm2m_context_t *contextP,
  98:C:/Users/dtjld/Desktop/AIoT_software/LiteOS_Lab_overseas/LiteOS_Lab/iot_link/network/lwm2m/wakaama_lwm2m/core\objects.c ****                              lwm2m_uri_t *uriP)
  99:C:/Users/dtjld/Desktop/AIoT_software/LiteOS_Lab_overseas/LiteOS_Lab/iot_link/network/lwm2m/wakaama_lwm2m/core\objects.c **** {
  41              		.loc 1 99 0
  42              		.cfi_startproc
  43              		@ args = 0, pretend = 0, frame = 24
  44              		@ frame_needed = 1, uses_anonymous_args = 0
  45 0000 90B5     		push	{r4, r7, lr}
  46              	.LCFI0:
  47              		.cfi_def_cfa_offset 12
  48              		.cfi_offset 4, -12
  49              		.cfi_offset 7, -8
  50              		.cfi_offset 14, -4
  51 0002 89B0     		sub	sp, sp, #36
  52              	.LCFI1:
  53              		.cfi_def_cfa_offset 48
  54 0004 02AF     		add	r7, sp, #8
  55              	.LCFI2:
  56              		.cfi_def_cfa 7, 40
  57 0006 7860     		str	r0, [r7, #4]
  58 0008 3960     		str	r1, [r7]
 100:C:/Users/dtjld/Desktop/AIoT_software/LiteOS_Lab_overseas/LiteOS_Lab/iot_link/network/lwm2m/wakaama_lwm2m/core\objects.c ****     uint8_t result;
 101:C:/Users/dtjld/Desktop/AIoT_software/LiteOS_Lab_overseas/LiteOS_Lab/iot_link/network/lwm2m/wakaama_lwm2m/core\objects.c ****     lwm2m_object_t *targetP;
 102:C:/Users/dtjld/Desktop/AIoT_software/LiteOS_Lab_overseas/LiteOS_Lab/iot_link/network/lwm2m/wakaama_lwm2m/core\objects.c ****     lwm2m_data_t *dataP = NULL;
  59              		.loc 1 102 0
  60 000a 0023     		movs	r3, #0
  61 000c FB60     		str	r3, [r7, #12]
 103:C:/Users/dtjld/Desktop/AIoT_software/LiteOS_Lab_overseas/LiteOS_Lab/iot_link/network/lwm2m/wakaama_lwm2m/core\objects.c ****     int size;
 104:C:/Users/dtjld/Desktop/AIoT_software/LiteOS_Lab_overseas/LiteOS_Lab/iot_link/network/lwm2m/wakaama_lwm2m/core\objects.c **** 
 105:C:/Users/dtjld/Desktop/AIoT_software/LiteOS_Lab_overseas/LiteOS_Lab/iot_link/network/lwm2m/wakaama_lwm2m/core\objects.c ****     LOG_URI(uriP);
  62              		.loc 1 105 0
ARM GAS  C:\Users\dtjld\AppData\Local\Temp\cclRRs7D.s 			page 4


  63 000e 3B68     		ldr	r3, [r7]
  64 0010 002B     		cmp	r3, #0
  65 0012 05D1     		bne	.L2
  66              		.loc 1 105 0 is_stmt 0 discriminator 1
  67 0014 6922     		movs	r2, #105
  68 0016 4049     		ldr	r1, .L14
  69 0018 4048     		ldr	r0, .L14+4
  70 001a FFF7FEFF 		bl	atiny_printf
  71 001e 21E0     		b	.L3
  72              	.L2:
  73              		.loc 1 105 0 discriminator 2
  74 0020 3B68     		ldr	r3, [r7]
  75 0022 5B88     		ldrh	r3, [r3, #2]
  76 0024 6922     		movs	r2, #105
  77 0026 3C49     		ldr	r1, .L14
  78 0028 3D48     		ldr	r0, .L14+8
  79 002a FFF7FEFF 		bl	atiny_printf
  80 002e 3B68     		ldr	r3, [r7]
  81 0030 1B78     		ldrb	r3, [r3]	@ zero_extendqisi2
  82 0032 03F00203 		and	r3, r3, #2
  83 0036 002B     		cmp	r3, #0
  84 0038 05D0     		beq	.L4
  85              		.loc 1 105 0 discriminator 3
  86 003a 3B68     		ldr	r3, [r7]
  87 003c 9B88     		ldrh	r3, [r3, #4]
  88 003e 1946     		mov	r1, r3
  89 0040 3848     		ldr	r0, .L14+12
  90 0042 FFF7FEFF 		bl	atiny_printf
  91              	.L4:
  92              		.loc 1 105 0 discriminator 5
  93 0046 3B68     		ldr	r3, [r7]
  94 0048 1B78     		ldrb	r3, [r3]	@ zero_extendqisi2
  95 004a 03F00103 		and	r3, r3, #1
  96 004e 002B     		cmp	r3, #0
  97 0050 05D0     		beq	.L5
  98              		.loc 1 105 0 discriminator 6
  99 0052 3B68     		ldr	r3, [r7]
 100 0054 DB88     		ldrh	r3, [r3, #6]
 101 0056 1946     		mov	r1, r3
 102 0058 3248     		ldr	r0, .L14+12
 103 005a FFF7FEFF 		bl	atiny_printf
 104              	.L5:
 105              		.loc 1 105 0 discriminator 8
 106 005e 3248     		ldr	r0, .L14+16
 107 0060 FFF7FEFF 		bl	atiny_printf
 108              	.L3:
 106:C:/Users/dtjld/Desktop/AIoT_software/LiteOS_Lab_overseas/LiteOS_Lab/iot_link/network/lwm2m/wakaama_lwm2m/core\objects.c ****     targetP = (lwm2m_object_t *)LWM2M_LIST_FIND(contextP->objectList, uriP->objectId);
 109              		.loc 1 106 0 is_stmt 1
 110 0064 7B68     		ldr	r3, [r7, #4]
 111 0066 9A69     		ldr	r2, [r3, #24]
 112 0068 3B68     		ldr	r3, [r7]
 113 006a 5B88     		ldrh	r3, [r3, #2]
 114 006c 1946     		mov	r1, r3
 115 006e 1046     		mov	r0, r2
 116 0070 FFF7FEFF 		bl	lwm2m_list_find
 117 0074 7861     		str	r0, [r7, #20]
 107:C:/Users/dtjld/Desktop/AIoT_software/LiteOS_Lab_overseas/LiteOS_Lab/iot_link/network/lwm2m/wakaama_lwm2m/core\objects.c ****     if (NULL == targetP) return COAP_404_NOT_FOUND;
ARM GAS  C:\Users\dtjld\AppData\Local\Temp\cclRRs7D.s 			page 5


 118              		.loc 1 107 0
 119 0076 7B69     		ldr	r3, [r7, #20]
 120 0078 002B     		cmp	r3, #0
 121 007a 01D1     		bne	.L6
 122              		.loc 1 107 0 is_stmt 0 discriminator 1
 123 007c 8423     		movs	r3, #132
 124 007e 46E0     		b	.L13
 125              	.L6:
 108:C:/Users/dtjld/Desktop/AIoT_software/LiteOS_Lab_overseas/LiteOS_Lab/iot_link/network/lwm2m/wakaama_lwm2m/core\objects.c ****     if (NULL == targetP->readFunc) return COAP_405_METHOD_NOT_ALLOWED;
 126              		.loc 1 108 0 is_stmt 1
 127 0080 7B69     		ldr	r3, [r7, #20]
 128 0082 DB68     		ldr	r3, [r3, #12]
 129 0084 002B     		cmp	r3, #0
 130 0086 01D1     		bne	.L8
 131              		.loc 1 108 0 is_stmt 0 discriminator 1
 132 0088 8523     		movs	r3, #133
 133 008a 40E0     		b	.L13
 134              	.L8:
 109:C:/Users/dtjld/Desktop/AIoT_software/LiteOS_Lab_overseas/LiteOS_Lab/iot_link/network/lwm2m/wakaama_lwm2m/core\objects.c **** 
 110:C:/Users/dtjld/Desktop/AIoT_software/LiteOS_Lab_overseas/LiteOS_Lab/iot_link/network/lwm2m/wakaama_lwm2m/core\objects.c ****     if (!LWM2M_URI_IS_SET_INSTANCE(uriP)) return COAP_205_CONTENT;
 135              		.loc 1 110 0 is_stmt 1
 136 008c 3B68     		ldr	r3, [r7]
 137 008e 1B78     		ldrb	r3, [r3]	@ zero_extendqisi2
 138 0090 03F00203 		and	r3, r3, #2
 139 0094 002B     		cmp	r3, #0
 140 0096 01D1     		bne	.L9
 141              		.loc 1 110 0 is_stmt 0 discriminator 1
 142 0098 4523     		movs	r3, #69
 143 009a 38E0     		b	.L13
 144              	.L9:
 111:C:/Users/dtjld/Desktop/AIoT_software/LiteOS_Lab_overseas/LiteOS_Lab/iot_link/network/lwm2m/wakaama_lwm2m/core\objects.c **** 
 112:C:/Users/dtjld/Desktop/AIoT_software/LiteOS_Lab_overseas/LiteOS_Lab/iot_link/network/lwm2m/wakaama_lwm2m/core\objects.c ****     if (NULL == lwm2m_list_find(targetP->instanceList, uriP->instanceId)) return COAP_404_NOT_FOUND
 145              		.loc 1 112 0 is_stmt 1
 146 009c 7B69     		ldr	r3, [r7, #20]
 147 009e 9A68     		ldr	r2, [r3, #8]
 148 00a0 3B68     		ldr	r3, [r7]
 149 00a2 9B88     		ldrh	r3, [r3, #4]
 150 00a4 1946     		mov	r1, r3
 151 00a6 1046     		mov	r0, r2
 152 00a8 FFF7FEFF 		bl	lwm2m_list_find
 153 00ac 0346     		mov	r3, r0
 154 00ae 002B     		cmp	r3, #0
 155 00b0 01D1     		bne	.L10
 156              		.loc 1 112 0 is_stmt 0 discriminator 1
 157 00b2 8423     		movs	r3, #132
 158 00b4 2BE0     		b	.L13
 159              	.L10:
 113:C:/Users/dtjld/Desktop/AIoT_software/LiteOS_Lab_overseas/LiteOS_Lab/iot_link/network/lwm2m/wakaama_lwm2m/core\objects.c **** 
 114:C:/Users/dtjld/Desktop/AIoT_software/LiteOS_Lab_overseas/LiteOS_Lab/iot_link/network/lwm2m/wakaama_lwm2m/core\objects.c ****     if (!LWM2M_URI_IS_SET_RESOURCE(uriP)) return COAP_205_CONTENT;
 160              		.loc 1 114 0 is_stmt 1
 161 00b6 3B68     		ldr	r3, [r7]
 162 00b8 1B78     		ldrb	r3, [r3]	@ zero_extendqisi2
 163 00ba 03F00103 		and	r3, r3, #1
 164 00be 002B     		cmp	r3, #0
 165 00c0 01D1     		bne	.L11
 166              		.loc 1 114 0 is_stmt 0 discriminator 1
 167 00c2 4523     		movs	r3, #69
ARM GAS  C:\Users\dtjld\AppData\Local\Temp\cclRRs7D.s 			page 6


 168 00c4 23E0     		b	.L13
 169              	.L11:
 115:C:/Users/dtjld/Desktop/AIoT_software/LiteOS_Lab_overseas/LiteOS_Lab/iot_link/network/lwm2m/wakaama_lwm2m/core\objects.c **** 
 116:C:/Users/dtjld/Desktop/AIoT_software/LiteOS_Lab_overseas/LiteOS_Lab/iot_link/network/lwm2m/wakaama_lwm2m/core\objects.c ****     size = 1;
 170              		.loc 1 116 0 is_stmt 1
 171 00c6 0123     		movs	r3, #1
 172 00c8 BB60     		str	r3, [r7, #8]
 117:C:/Users/dtjld/Desktop/AIoT_software/LiteOS_Lab_overseas/LiteOS_Lab/iot_link/network/lwm2m/wakaama_lwm2m/core\objects.c ****     dataP = lwm2m_data_new(1);
 173              		.loc 1 117 0
 174 00ca 0120     		movs	r0, #1
 175 00cc FFF7FEFF 		bl	lwm2m_data_new
 176 00d0 0346     		mov	r3, r0
 177 00d2 FB60     		str	r3, [r7, #12]
 118:C:/Users/dtjld/Desktop/AIoT_software/LiteOS_Lab_overseas/LiteOS_Lab/iot_link/network/lwm2m/wakaama_lwm2m/core\objects.c ****     if (dataP == NULL) return COAP_500_INTERNAL_SERVER_ERROR;
 178              		.loc 1 118 0
 179 00d4 FB68     		ldr	r3, [r7, #12]
 180 00d6 002B     		cmp	r3, #0
 181 00d8 01D1     		bne	.L12
 182              		.loc 1 118 0 is_stmt 0 discriminator 1
 183 00da A023     		movs	r3, #160
 184 00dc 17E0     		b	.L13
 185              	.L12:
 119:C:/Users/dtjld/Desktop/AIoT_software/LiteOS_Lab_overseas/LiteOS_Lab/iot_link/network/lwm2m/wakaama_lwm2m/core\objects.c **** 
 120:C:/Users/dtjld/Desktop/AIoT_software/LiteOS_Lab_overseas/LiteOS_Lab/iot_link/network/lwm2m/wakaama_lwm2m/core\objects.c ****     dataP->id = uriP->resourceId;
 186              		.loc 1 120 0 is_stmt 1
 187 00de FB68     		ldr	r3, [r7, #12]
 188 00e0 3A68     		ldr	r2, [r7]
 189 00e2 D288     		ldrh	r2, [r2, #6]
 190 00e4 5A80     		strh	r2, [r3, #2]	@ movhi
 121:C:/Users/dtjld/Desktop/AIoT_software/LiteOS_Lab_overseas/LiteOS_Lab/iot_link/network/lwm2m/wakaama_lwm2m/core\objects.c **** 
 122:C:/Users/dtjld/Desktop/AIoT_software/LiteOS_Lab_overseas/LiteOS_Lab/iot_link/network/lwm2m/wakaama_lwm2m/core\objects.c ****     result = targetP->readFunc(uriP->instanceId, &size, &dataP, NULL, targetP);
 191              		.loc 1 122 0
 192 00e6 7B69     		ldr	r3, [r7, #20]
 193 00e8 DC68     		ldr	r4, [r3, #12]
 194 00ea 3B68     		ldr	r3, [r7]
 195 00ec 9888     		ldrh	r0, [r3, #4]
 196 00ee 07F10C02 		add	r2, r7, #12
 197 00f2 07F10801 		add	r1, r7, #8
 198 00f6 7B69     		ldr	r3, [r7, #20]
 199 00f8 0093     		str	r3, [sp]
 200 00fa 0023     		movs	r3, #0
 201 00fc A047     		blx	r4
 202              	.LVL0:
 203 00fe 0346     		mov	r3, r0
 204 0100 FB74     		strb	r3, [r7, #19]
 123:C:/Users/dtjld/Desktop/AIoT_software/LiteOS_Lab_overseas/LiteOS_Lab/iot_link/network/lwm2m/wakaama_lwm2m/core\objects.c ****     lwm2m_data_free(1, dataP);
 205              		.loc 1 123 0
 206 0102 FB68     		ldr	r3, [r7, #12]
 207 0104 1946     		mov	r1, r3
 208 0106 0120     		movs	r0, #1
 209 0108 FFF7FEFF 		bl	lwm2m_data_free
 124:C:/Users/dtjld/Desktop/AIoT_software/LiteOS_Lab_overseas/LiteOS_Lab/iot_link/network/lwm2m/wakaama_lwm2m/core\objects.c **** 
 125:C:/Users/dtjld/Desktop/AIoT_software/LiteOS_Lab_overseas/LiteOS_Lab/iot_link/network/lwm2m/wakaama_lwm2m/core\objects.c ****     return result;
 210              		.loc 1 125 0
 211 010c FB7C     		ldrb	r3, [r7, #19]	@ zero_extendqisi2
 212              	.L13:
 126:C:/Users/dtjld/Desktop/AIoT_software/LiteOS_Lab_overseas/LiteOS_Lab/iot_link/network/lwm2m/wakaama_lwm2m/core\objects.c **** }
ARM GAS  C:\Users\dtjld\AppData\Local\Temp\cclRRs7D.s 			page 7


 213              		.loc 1 126 0 discriminator 1
 214 010e 1846     		mov	r0, r3
 215 0110 1C37     		adds	r7, r7, #28
 216              	.LCFI3:
 217              		.cfi_def_cfa_offset 12
 218 0112 BD46     		mov	sp, r7
 219              	.LCFI4:
 220              		.cfi_def_cfa_register 13
 221              		@ sp needed
 222 0114 90BD     		pop	{r4, r7, pc}
 223              	.L15:
 224 0116 00BF     		.align	2
 225              	.L14:
 226 0118 00000000 		.word	__func__.8831
 227 011c 00000000 		.word	.LC0
 228 0120 10000000 		.word	.LC1
 229 0124 1C000000 		.word	.LC2
 230 0128 20000000 		.word	.LC3
 231              		.cfi_endproc
 232              	.LFE12:
 234              		.section	.text.object_checkNumeric,"ax",%progbits
 235              		.align	1
 236              		.global	object_checkNumeric
 237              		.syntax unified
 238              		.thumb
 239              		.thumb_func
 240              		.fpu fpv4-sp-d16
 242              	object_checkNumeric:
 243              	.LFB13:
 127:C:/Users/dtjld/Desktop/AIoT_software/LiteOS_Lab_overseas/LiteOS_Lab/iot_link/network/lwm2m/wakaama_lwm2m/core\objects.c **** 
 128:C:/Users/dtjld/Desktop/AIoT_software/LiteOS_Lab_overseas/LiteOS_Lab/iot_link/network/lwm2m/wakaama_lwm2m/core\objects.c **** uint8_t object_checkNumeric(lwm2m_context_t *contextP,
 129:C:/Users/dtjld/Desktop/AIoT_software/LiteOS_Lab_overseas/LiteOS_Lab/iot_link/network/lwm2m/wakaama_lwm2m/core\objects.c ****                             lwm2m_uri_t *uriP)
 130:C:/Users/dtjld/Desktop/AIoT_software/LiteOS_Lab_overseas/LiteOS_Lab/iot_link/network/lwm2m/wakaama_lwm2m/core\objects.c **** {
 244              		.loc 1 130 0
 245              		.cfi_startproc
 246              		@ args = 0, pretend = 0, frame = 24
 247              		@ frame_needed = 1, uses_anonymous_args = 0
 248 0000 90B5     		push	{r4, r7, lr}
 249              	.LCFI5:
 250              		.cfi_def_cfa_offset 12
 251              		.cfi_offset 4, -12
 252              		.cfi_offset 7, -8
 253              		.cfi_offset 14, -4
 254 0002 89B0     		sub	sp, sp, #36
 255              	.LCFI6:
 256              		.cfi_def_cfa_offset 48
 257 0004 02AF     		add	r7, sp, #8
 258              	.LCFI7:
 259              		.cfi_def_cfa 7, 40
 260 0006 7860     		str	r0, [r7, #4]
 261 0008 3960     		str	r1, [r7]
 131:C:/Users/dtjld/Desktop/AIoT_software/LiteOS_Lab_overseas/LiteOS_Lab/iot_link/network/lwm2m/wakaama_lwm2m/core\objects.c ****     uint8_t result;
 132:C:/Users/dtjld/Desktop/AIoT_software/LiteOS_Lab_overseas/LiteOS_Lab/iot_link/network/lwm2m/wakaama_lwm2m/core\objects.c ****     lwm2m_object_t *targetP;
 133:C:/Users/dtjld/Desktop/AIoT_software/LiteOS_Lab_overseas/LiteOS_Lab/iot_link/network/lwm2m/wakaama_lwm2m/core\objects.c ****     lwm2m_data_t *dataP = NULL;
 262              		.loc 1 133 0
 263 000a 0023     		movs	r3, #0
 264 000c FB60     		str	r3, [r7, #12]
ARM GAS  C:\Users\dtjld\AppData\Local\Temp\cclRRs7D.s 			page 8


 134:C:/Users/dtjld/Desktop/AIoT_software/LiteOS_Lab_overseas/LiteOS_Lab/iot_link/network/lwm2m/wakaama_lwm2m/core\objects.c ****     int size;
 135:C:/Users/dtjld/Desktop/AIoT_software/LiteOS_Lab_overseas/LiteOS_Lab/iot_link/network/lwm2m/wakaama_lwm2m/core\objects.c **** 
 136:C:/Users/dtjld/Desktop/AIoT_software/LiteOS_Lab_overseas/LiteOS_Lab/iot_link/network/lwm2m/wakaama_lwm2m/core\objects.c ****     LOG_URI(uriP);
 265              		.loc 1 136 0
 266 000e 3B68     		ldr	r3, [r7]
 267 0010 002B     		cmp	r3, #0
 268 0012 05D1     		bne	.L17
 269              		.loc 1 136 0 is_stmt 0 discriminator 1
 270 0014 8822     		movs	r2, #136
 271 0016 3C49     		ldr	r1, .L32
 272 0018 3C48     		ldr	r0, .L32+4
 273 001a FFF7FEFF 		bl	atiny_printf
 274 001e 21E0     		b	.L18
 275              	.L17:
 276              		.loc 1 136 0 discriminator 2
 277 0020 3B68     		ldr	r3, [r7]
 278 0022 5B88     		ldrh	r3, [r3, #2]
 279 0024 8822     		movs	r2, #136
 280 0026 3849     		ldr	r1, .L32
 281 0028 3948     		ldr	r0, .L32+8
 282 002a FFF7FEFF 		bl	atiny_printf
 283 002e 3B68     		ldr	r3, [r7]
 284 0030 1B78     		ldrb	r3, [r3]	@ zero_extendqisi2
 285 0032 03F00203 		and	r3, r3, #2
 286 0036 002B     		cmp	r3, #0
 287 0038 05D0     		beq	.L19
 288              		.loc 1 136 0 discriminator 3
 289 003a 3B68     		ldr	r3, [r7]
 290 003c 9B88     		ldrh	r3, [r3, #4]
 291 003e 1946     		mov	r1, r3
 292 0040 3448     		ldr	r0, .L32+12
 293 0042 FFF7FEFF 		bl	atiny_printf
 294              	.L19:
 295              		.loc 1 136 0 discriminator 5
 296 0046 3B68     		ldr	r3, [r7]
 297 0048 1B78     		ldrb	r3, [r3]	@ zero_extendqisi2
 298 004a 03F00103 		and	r3, r3, #1
 299 004e 002B     		cmp	r3, #0
 300 0050 05D0     		beq	.L20
 301              		.loc 1 136 0 discriminator 6
 302 0052 3B68     		ldr	r3, [r7]
 303 0054 DB88     		ldrh	r3, [r3, #6]
 304 0056 1946     		mov	r1, r3
 305 0058 2E48     		ldr	r0, .L32+12
 306 005a FFF7FEFF 		bl	atiny_printf
 307              	.L20:
 308              		.loc 1 136 0 discriminator 8
 309 005e 2E48     		ldr	r0, .L32+16
 310 0060 FFF7FEFF 		bl	atiny_printf
 311              	.L18:
 137:C:/Users/dtjld/Desktop/AIoT_software/LiteOS_Lab_overseas/LiteOS_Lab/iot_link/network/lwm2m/wakaama_lwm2m/core\objects.c ****     if (!LWM2M_URI_IS_SET_RESOURCE(uriP)) return COAP_405_METHOD_NOT_ALLOWED;
 312              		.loc 1 137 0 is_stmt 1
 313 0064 3B68     		ldr	r3, [r7]
 314 0066 1B78     		ldrb	r3, [r3]	@ zero_extendqisi2
 315 0068 03F00103 		and	r3, r3, #1
 316 006c 002B     		cmp	r3, #0
 317 006e 01D1     		bne	.L21
ARM GAS  C:\Users\dtjld\AppData\Local\Temp\cclRRs7D.s 			page 9


 318              		.loc 1 137 0 is_stmt 0 discriminator 1
 319 0070 8523     		movs	r3, #133
 320 0072 45E0     		b	.L29
 321              	.L21:
 138:C:/Users/dtjld/Desktop/AIoT_software/LiteOS_Lab_overseas/LiteOS_Lab/iot_link/network/lwm2m/wakaama_lwm2m/core\objects.c **** 
 139:C:/Users/dtjld/Desktop/AIoT_software/LiteOS_Lab_overseas/LiteOS_Lab/iot_link/network/lwm2m/wakaama_lwm2m/core\objects.c ****     targetP = (lwm2m_object_t *)LWM2M_LIST_FIND(contextP->objectList, uriP->objectId);
 322              		.loc 1 139 0 is_stmt 1
 323 0074 7B68     		ldr	r3, [r7, #4]
 324 0076 9A69     		ldr	r2, [r3, #24]
 325 0078 3B68     		ldr	r3, [r7]
 326 007a 5B88     		ldrh	r3, [r3, #2]
 327 007c 1946     		mov	r1, r3
 328 007e 1046     		mov	r0, r2
 329 0080 FFF7FEFF 		bl	lwm2m_list_find
 330 0084 3861     		str	r0, [r7, #16]
 140:C:/Users/dtjld/Desktop/AIoT_software/LiteOS_Lab_overseas/LiteOS_Lab/iot_link/network/lwm2m/wakaama_lwm2m/core\objects.c ****     if (NULL == targetP) return COAP_404_NOT_FOUND;
 331              		.loc 1 140 0
 332 0086 3B69     		ldr	r3, [r7, #16]
 333 0088 002B     		cmp	r3, #0
 334 008a 01D1     		bne	.L23
 335              		.loc 1 140 0 is_stmt 0 discriminator 1
 336 008c 8423     		movs	r3, #132
 337 008e 37E0     		b	.L29
 338              	.L23:
 141:C:/Users/dtjld/Desktop/AIoT_software/LiteOS_Lab_overseas/LiteOS_Lab/iot_link/network/lwm2m/wakaama_lwm2m/core\objects.c ****     if (NULL == targetP->readFunc) return COAP_405_METHOD_NOT_ALLOWED;
 339              		.loc 1 141 0 is_stmt 1
 340 0090 3B69     		ldr	r3, [r7, #16]
 341 0092 DB68     		ldr	r3, [r3, #12]
 342 0094 002B     		cmp	r3, #0
 343 0096 01D1     		bne	.L24
 344              		.loc 1 141 0 is_stmt 0 discriminator 1
 345 0098 8523     		movs	r3, #133
 346 009a 31E0     		b	.L29
 347              	.L24:
 142:C:/Users/dtjld/Desktop/AIoT_software/LiteOS_Lab_overseas/LiteOS_Lab/iot_link/network/lwm2m/wakaama_lwm2m/core\objects.c **** 
 143:C:/Users/dtjld/Desktop/AIoT_software/LiteOS_Lab_overseas/LiteOS_Lab/iot_link/network/lwm2m/wakaama_lwm2m/core\objects.c ****     size = 1;
 348              		.loc 1 143 0 is_stmt 1
 349 009c 0123     		movs	r3, #1
 350 009e BB60     		str	r3, [r7, #8]
 144:C:/Users/dtjld/Desktop/AIoT_software/LiteOS_Lab_overseas/LiteOS_Lab/iot_link/network/lwm2m/wakaama_lwm2m/core\objects.c ****     dataP = lwm2m_data_new(1);
 351              		.loc 1 144 0
 352 00a0 0120     		movs	r0, #1
 353 00a2 FFF7FEFF 		bl	lwm2m_data_new
 354 00a6 0346     		mov	r3, r0
 355 00a8 FB60     		str	r3, [r7, #12]
 145:C:/Users/dtjld/Desktop/AIoT_software/LiteOS_Lab_overseas/LiteOS_Lab/iot_link/network/lwm2m/wakaama_lwm2m/core\objects.c ****     if (dataP == NULL) return COAP_500_INTERNAL_SERVER_ERROR;
 356              		.loc 1 145 0
 357 00aa FB68     		ldr	r3, [r7, #12]
 358 00ac 002B     		cmp	r3, #0
 359 00ae 01D1     		bne	.L25
 360              		.loc 1 145 0 is_stmt 0 discriminator 1
 361 00b0 A023     		movs	r3, #160
 362 00b2 25E0     		b	.L29
 363              	.L25:
 146:C:/Users/dtjld/Desktop/AIoT_software/LiteOS_Lab_overseas/LiteOS_Lab/iot_link/network/lwm2m/wakaama_lwm2m/core\objects.c **** 
 147:C:/Users/dtjld/Desktop/AIoT_software/LiteOS_Lab_overseas/LiteOS_Lab/iot_link/network/lwm2m/wakaama_lwm2m/core\objects.c ****     dataP->id = uriP->resourceId;
 364              		.loc 1 147 0 is_stmt 1
ARM GAS  C:\Users\dtjld\AppData\Local\Temp\cclRRs7D.s 			page 10


 365 00b4 FB68     		ldr	r3, [r7, #12]
 366 00b6 3A68     		ldr	r2, [r7]
 367 00b8 D288     		ldrh	r2, [r2, #6]
 368 00ba 5A80     		strh	r2, [r3, #2]	@ movhi
 148:C:/Users/dtjld/Desktop/AIoT_software/LiteOS_Lab_overseas/LiteOS_Lab/iot_link/network/lwm2m/wakaama_lwm2m/core\objects.c **** 
 149:C:/Users/dtjld/Desktop/AIoT_software/LiteOS_Lab_overseas/LiteOS_Lab/iot_link/network/lwm2m/wakaama_lwm2m/core\objects.c ****     result = targetP->readFunc(uriP->instanceId, &size, &dataP, NULL, targetP);
 369              		.loc 1 149 0
 370 00bc 3B69     		ldr	r3, [r7, #16]
 371 00be DC68     		ldr	r4, [r3, #12]
 372 00c0 3B68     		ldr	r3, [r7]
 373 00c2 9888     		ldrh	r0, [r3, #4]
 374 00c4 07F10C02 		add	r2, r7, #12
 375 00c8 07F10801 		add	r1, r7, #8
 376 00cc 3B69     		ldr	r3, [r7, #16]
 377 00ce 0093     		str	r3, [sp]
 378 00d0 0023     		movs	r3, #0
 379 00d2 A047     		blx	r4
 380              	.LVL1:
 381 00d4 0346     		mov	r3, r0
 382 00d6 FB75     		strb	r3, [r7, #23]
 150:C:/Users/dtjld/Desktop/AIoT_software/LiteOS_Lab_overseas/LiteOS_Lab/iot_link/network/lwm2m/wakaama_lwm2m/core\objects.c ****     if (result == COAP_205_CONTENT)
 383              		.loc 1 150 0
 384 00d8 FB7D     		ldrb	r3, [r7, #23]	@ zero_extendqisi2
 385 00da 452B     		cmp	r3, #69
 386 00dc 07D1     		bne	.L30
 151:C:/Users/dtjld/Desktop/AIoT_software/LiteOS_Lab_overseas/LiteOS_Lab/iot_link/network/lwm2m/wakaama_lwm2m/core\objects.c ****     {
 152:C:/Users/dtjld/Desktop/AIoT_software/LiteOS_Lab_overseas/LiteOS_Lab/iot_link/network/lwm2m/wakaama_lwm2m/core\objects.c ****         switch (dataP->type)
 387              		.loc 1 152 0
 388 00de FB68     		ldr	r3, [r7, #12]
 389 00e0 1B78     		ldrb	r3, [r3]	@ zero_extendqisi2
 390 00e2 063B     		subs	r3, r3, #6
 391 00e4 012B     		cmp	r3, #1
 392 00e6 04D9     		bls	.L31
 153:C:/Users/dtjld/Desktop/AIoT_software/LiteOS_Lab_overseas/LiteOS_Lab/iot_link/network/lwm2m/wakaama_lwm2m/core\objects.c ****         {
 154:C:/Users/dtjld/Desktop/AIoT_software/LiteOS_Lab_overseas/LiteOS_Lab/iot_link/network/lwm2m/wakaama_lwm2m/core\objects.c ****         case LWM2M_TYPE_INTEGER:
 155:C:/Users/dtjld/Desktop/AIoT_software/LiteOS_Lab_overseas/LiteOS_Lab/iot_link/network/lwm2m/wakaama_lwm2m/core\objects.c ****         case LWM2M_TYPE_FLOAT:
 156:C:/Users/dtjld/Desktop/AIoT_software/LiteOS_Lab_overseas/LiteOS_Lab/iot_link/network/lwm2m/wakaama_lwm2m/core\objects.c ****             break;
 157:C:/Users/dtjld/Desktop/AIoT_software/LiteOS_Lab_overseas/LiteOS_Lab/iot_link/network/lwm2m/wakaama_lwm2m/core\objects.c ****         default:
 158:C:/Users/dtjld/Desktop/AIoT_software/LiteOS_Lab_overseas/LiteOS_Lab/iot_link/network/lwm2m/wakaama_lwm2m/core\objects.c ****             result = COAP_405_METHOD_NOT_ALLOWED;
 393              		.loc 1 158 0
 394 00e8 8523     		movs	r3, #133
 395 00ea FB75     		strb	r3, [r7, #23]
 396 00ec 02E0     		b	.L26
 397              	.L30:
 159:C:/Users/dtjld/Desktop/AIoT_software/LiteOS_Lab_overseas/LiteOS_Lab/iot_link/network/lwm2m/wakaama_lwm2m/core\objects.c ****         }
 160:C:/Users/dtjld/Desktop/AIoT_software/LiteOS_Lab_overseas/LiteOS_Lab/iot_link/network/lwm2m/wakaama_lwm2m/core\objects.c ****     }
 398              		.loc 1 160 0
 399 00ee 00BF     		nop
 400 00f0 00E0     		b	.L26
 401              	.L31:
 156:C:/Users/dtjld/Desktop/AIoT_software/LiteOS_Lab_overseas/LiteOS_Lab/iot_link/network/lwm2m/wakaama_lwm2m/core\objects.c ****         default:
 402              		.loc 1 156 0
 403 00f2 00BF     		nop
 404              	.L26:
 161:C:/Users/dtjld/Desktop/AIoT_software/LiteOS_Lab_overseas/LiteOS_Lab/iot_link/network/lwm2m/wakaama_lwm2m/core\objects.c **** 
 162:C:/Users/dtjld/Desktop/AIoT_software/LiteOS_Lab_overseas/LiteOS_Lab/iot_link/network/lwm2m/wakaama_lwm2m/core\objects.c ****     lwm2m_data_free(1, dataP);
 405              		.loc 1 162 0
ARM GAS  C:\Users\dtjld\AppData\Local\Temp\cclRRs7D.s 			page 11


 406 00f4 FB68     		ldr	r3, [r7, #12]
 407 00f6 1946     		mov	r1, r3
 408 00f8 0120     		movs	r0, #1
 409 00fa FFF7FEFF 		bl	lwm2m_data_free
 163:C:/Users/dtjld/Desktop/AIoT_software/LiteOS_Lab_overseas/LiteOS_Lab/iot_link/network/lwm2m/wakaama_lwm2m/core\objects.c **** 
 164:C:/Users/dtjld/Desktop/AIoT_software/LiteOS_Lab_overseas/LiteOS_Lab/iot_link/network/lwm2m/wakaama_lwm2m/core\objects.c ****     return result;
 410              		.loc 1 164 0
 411 00fe FB7D     		ldrb	r3, [r7, #23]	@ zero_extendqisi2
 412              	.L29:
 165:C:/Users/dtjld/Desktop/AIoT_software/LiteOS_Lab_overseas/LiteOS_Lab/iot_link/network/lwm2m/wakaama_lwm2m/core\objects.c **** }
 413              		.loc 1 165 0 discriminator 1
 414 0100 1846     		mov	r0, r3
 415 0102 1C37     		adds	r7, r7, #28
 416              	.LCFI8:
 417              		.cfi_def_cfa_offset 12
 418 0104 BD46     		mov	sp, r7
 419              	.LCFI9:
 420              		.cfi_def_cfa_register 13
 421              		@ sp needed
 422 0106 90BD     		pop	{r4, r7, pc}
 423              	.L33:
 424              		.align	2
 425              	.L32:
 426 0108 00000000 		.word	__func__.8840
 427 010c 00000000 		.word	.LC0
 428 0110 10000000 		.word	.LC1
 429 0114 1C000000 		.word	.LC2
 430 0118 20000000 		.word	.LC3
 431              		.cfi_endproc
 432              	.LFE13:
 434              		.section	.text.prv_init_forbidden,"ax",%progbits
 435              		.align	1
 436              		.syntax unified
 437              		.thumb
 438              		.thumb_func
 439              		.fpu fpv4-sp-d16
 441              	prv_init_forbidden:
 442              	.LFB14:
 166:C:/Users/dtjld/Desktop/AIoT_software/LiteOS_Lab_overseas/LiteOS_Lab/iot_link/network/lwm2m/wakaama_lwm2m/core\objects.c **** 
 167:C:/Users/dtjld/Desktop/AIoT_software/LiteOS_Lab_overseas/LiteOS_Lab/iot_link/network/lwm2m/wakaama_lwm2m/core\objects.c **** static uint8_t prv_init_forbidden(lwm2m_context_t *contextP,
 168:C:/Users/dtjld/Desktop/AIoT_software/LiteOS_Lab_overseas/LiteOS_Lab/iot_link/network/lwm2m/wakaama_lwm2m/core\objects.c ****                                   lwm2m_object_t *targetP,
 169:C:/Users/dtjld/Desktop/AIoT_software/LiteOS_Lab_overseas/LiteOS_Lab/iot_link/network/lwm2m/wakaama_lwm2m/core\objects.c ****                                   uint16_t objId,
 170:C:/Users/dtjld/Desktop/AIoT_software/LiteOS_Lab_overseas/LiteOS_Lab/iot_link/network/lwm2m/wakaama_lwm2m/core\objects.c ****                                   uint16_t serverId,
 171:C:/Users/dtjld/Desktop/AIoT_software/LiteOS_Lab_overseas/LiteOS_Lab/iot_link/network/lwm2m/wakaama_lwm2m/core\objects.c ****                                   int *sizeP,
 172:C:/Users/dtjld/Desktop/AIoT_software/LiteOS_Lab_overseas/LiteOS_Lab/iot_link/network/lwm2m/wakaama_lwm2m/core\objects.c ****                                   uint8_t **forbidden)
 173:C:/Users/dtjld/Desktop/AIoT_software/LiteOS_Lab_overseas/LiteOS_Lab/iot_link/network/lwm2m/wakaama_lwm2m/core\objects.c **** {
 443              		.loc 1 173 0
 444              		.cfi_startproc
 445              		@ args = 8, pretend = 0, frame = 32
 446              		@ frame_needed = 1, uses_anonymous_args = 0
 447 0000 80B5     		push	{r7, lr}
 448              	.LCFI10:
 449              		.cfi_def_cfa_offset 8
 450              		.cfi_offset 7, -8
 451              		.cfi_offset 14, -4
 452 0002 88B0     		sub	sp, sp, #32
 453              	.LCFI11:
ARM GAS  C:\Users\dtjld\AppData\Local\Temp\cclRRs7D.s 			page 12


 454              		.cfi_def_cfa_offset 40
 455 0004 00AF     		add	r7, sp, #0
 456              	.LCFI12:
 457              		.cfi_def_cfa_register 7
 458 0006 F860     		str	r0, [r7, #12]
 459 0008 B960     		str	r1, [r7, #8]
 460 000a 1146     		mov	r1, r2
 461 000c 1A46     		mov	r2, r3
 462 000e 0B46     		mov	r3, r1	@ movhi
 463 0010 FB80     		strh	r3, [r7, #6]	@ movhi
 464 0012 1346     		mov	r3, r2	@ movhi
 465 0014 BB80     		strh	r3, [r7, #4]	@ movhi
 174:C:/Users/dtjld/Desktop/AIoT_software/LiteOS_Lab_overseas/LiteOS_Lab/iot_link/network/lwm2m/wakaama_lwm2m/core\objects.c ****     lwm2m_list_t *instanceP;
 175:C:/Users/dtjld/Desktop/AIoT_software/LiteOS_Lab_overseas/LiteOS_Lab/iot_link/network/lwm2m/wakaama_lwm2m/core\objects.c ****     lwm2m_uri_t uriP;
 176:C:/Users/dtjld/Desktop/AIoT_software/LiteOS_Lab_overseas/LiteOS_Lab/iot_link/network/lwm2m/wakaama_lwm2m/core\objects.c ****     int i;
 177:C:/Users/dtjld/Desktop/AIoT_software/LiteOS_Lab_overseas/LiteOS_Lab/iot_link/network/lwm2m/wakaama_lwm2m/core\objects.c **** 
 178:C:/Users/dtjld/Desktop/AIoT_software/LiteOS_Lab_overseas/LiteOS_Lab/iot_link/network/lwm2m/wakaama_lwm2m/core\objects.c ****     uriP.flag = LWM2M_URI_FLAG_INSTANCE_ID;
 466              		.loc 1 178 0
 467 0016 0223     		movs	r3, #2
 468 0018 3B74     		strb	r3, [r7, #16]
 179:C:/Users/dtjld/Desktop/AIoT_software/LiteOS_Lab_overseas/LiteOS_Lab/iot_link/network/lwm2m/wakaama_lwm2m/core\objects.c ****     uriP.objectId = objId;
 469              		.loc 1 179 0
 470 001a FB88     		ldrh	r3, [r7, #6]	@ movhi
 471 001c 7B82     		strh	r3, [r7, #18]	@ movhi
 180:C:/Users/dtjld/Desktop/AIoT_software/LiteOS_Lab_overseas/LiteOS_Lab/iot_link/network/lwm2m/wakaama_lwm2m/core\objects.c **** 
 181:C:/Users/dtjld/Desktop/AIoT_software/LiteOS_Lab_overseas/LiteOS_Lab/iot_link/network/lwm2m/wakaama_lwm2m/core\objects.c ****     i = 0;
 472              		.loc 1 181 0
 473 001e 0023     		movs	r3, #0
 474 0020 BB61     		str	r3, [r7, #24]
 182:C:/Users/dtjld/Desktop/AIoT_software/LiteOS_Lab_overseas/LiteOS_Lab/iot_link/network/lwm2m/wakaama_lwm2m/core\objects.c ****     *forbidden = (uint8_t *)lwm2m_malloc(*sizeP);
 475              		.loc 1 182 0
 476 0022 BB6A     		ldr	r3, [r7, #40]
 477 0024 1B68     		ldr	r3, [r3]
 478 0026 1846     		mov	r0, r3
 479 0028 FFF7FEFF 		bl	lwm2m_malloc
 480 002c 0246     		mov	r2, r0
 481 002e FB6A     		ldr	r3, [r7, #44]
 482 0030 1A60     		str	r2, [r3]
 183:C:/Users/dtjld/Desktop/AIoT_software/LiteOS_Lab_overseas/LiteOS_Lab/iot_link/network/lwm2m/wakaama_lwm2m/core\objects.c ****     if (*forbidden == NULL)
 483              		.loc 1 183 0
 484 0032 FB6A     		ldr	r3, [r7, #44]
 485 0034 1B68     		ldr	r3, [r3]
 486 0036 002B     		cmp	r3, #0
 487 0038 01D1     		bne	.L35
 184:C:/Users/dtjld/Desktop/AIoT_software/LiteOS_Lab_overseas/LiteOS_Lab/iot_link/network/lwm2m/wakaama_lwm2m/core\objects.c ****     {
 185:C:/Users/dtjld/Desktop/AIoT_software/LiteOS_Lab_overseas/LiteOS_Lab/iot_link/network/lwm2m/wakaama_lwm2m/core\objects.c ****         return COAP_500_INTERNAL_SERVER_ERROR;
 488              		.loc 1 185 0
 489 003a A023     		movs	r3, #160
 490 003c 38E0     		b	.L41
 491              	.L35:
 186:C:/Users/dtjld/Desktop/AIoT_software/LiteOS_Lab_overseas/LiteOS_Lab/iot_link/network/lwm2m/wakaama_lwm2m/core\objects.c ****     }
 187:C:/Users/dtjld/Desktop/AIoT_software/LiteOS_Lab_overseas/LiteOS_Lab/iot_link/network/lwm2m/wakaama_lwm2m/core\objects.c ****     memset(*forbidden, 0, *sizeP);
 492              		.loc 1 187 0
 493 003e FB6A     		ldr	r3, [r7, #44]
 494 0040 1868     		ldr	r0, [r3]
 495 0042 BB6A     		ldr	r3, [r7, #40]
 496 0044 1B68     		ldr	r3, [r3]
ARM GAS  C:\Users\dtjld\AppData\Local\Temp\cclRRs7D.s 			page 13


 497 0046 1A46     		mov	r2, r3
 498 0048 0021     		movs	r1, #0
 499 004a FFF7FEFF 		bl	memset
 188:C:/Users/dtjld/Desktop/AIoT_software/LiteOS_Lab_overseas/LiteOS_Lab/iot_link/network/lwm2m/wakaama_lwm2m/core\objects.c ****     for (instanceP = targetP->instanceList; instanceP != NULL ; instanceP = instanceP->next)
 500              		.loc 1 188 0
 501 004e BB68     		ldr	r3, [r7, #8]
 502 0050 9B68     		ldr	r3, [r3, #8]
 503 0052 FB61     		str	r3, [r7, #28]
 504 0054 1DE0     		b	.L37
 505              	.L39:
 189:C:/Users/dtjld/Desktop/AIoT_software/LiteOS_Lab_overseas/LiteOS_Lab/iot_link/network/lwm2m/wakaama_lwm2m/core\objects.c ****     {
 190:C:/Users/dtjld/Desktop/AIoT_software/LiteOS_Lab_overseas/LiteOS_Lab/iot_link/network/lwm2m/wakaama_lwm2m/core\objects.c ****         uriP.instanceId = instanceP->id;
 506              		.loc 1 190 0
 507 0056 FB69     		ldr	r3, [r7, #28]
 508 0058 9B88     		ldrh	r3, [r3, #4]
 509 005a BB82     		strh	r3, [r7, #20]	@ movhi
 191:C:/Users/dtjld/Desktop/AIoT_software/LiteOS_Lab_overseas/LiteOS_Lab/iot_link/network/lwm2m/wakaama_lwm2m/core\objects.c ****         if (acc_auth_operate(contextP, &uriP, OBJ_ACC_READ, serverId) != COAP_NO_ERROR)
 510              		.loc 1 191 0
 511 005c BB88     		ldrh	r3, [r7, #4]
 512 005e 07F11001 		add	r1, r7, #16
 513 0062 0022     		movs	r2, #0
 514 0064 F868     		ldr	r0, [r7, #12]
 515 0066 FFF7FEFF 		bl	acc_auth_operate
 516 006a 0346     		mov	r3, r0
 517 006c 002B     		cmp	r3, #0
 518 006e 0AD0     		beq	.L38
 192:C:/Users/dtjld/Desktop/AIoT_software/LiteOS_Lab_overseas/LiteOS_Lab/iot_link/network/lwm2m/wakaama_lwm2m/core\objects.c ****         {
 193:C:/Users/dtjld/Desktop/AIoT_software/LiteOS_Lab_overseas/LiteOS_Lab/iot_link/network/lwm2m/wakaama_lwm2m/core\objects.c ****             (*sizeP)--;
 519              		.loc 1 193 0
 520 0070 BB6A     		ldr	r3, [r7, #40]
 521 0072 1B68     		ldr	r3, [r3]
 522 0074 5A1E     		subs	r2, r3, #1
 523 0076 BB6A     		ldr	r3, [r7, #40]
 524 0078 1A60     		str	r2, [r3]
 194:C:/Users/dtjld/Desktop/AIoT_software/LiteOS_Lab_overseas/LiteOS_Lab/iot_link/network/lwm2m/wakaama_lwm2m/core\objects.c ****             (*forbidden)[i] = 1;
 525              		.loc 1 194 0
 526 007a FB6A     		ldr	r3, [r7, #44]
 527 007c 1A68     		ldr	r2, [r3]
 528 007e BB69     		ldr	r3, [r7, #24]
 529 0080 1344     		add	r3, r3, r2
 530 0082 0122     		movs	r2, #1
 531 0084 1A70     		strb	r2, [r3]
 532              	.L38:
 195:C:/Users/dtjld/Desktop/AIoT_software/LiteOS_Lab_overseas/LiteOS_Lab/iot_link/network/lwm2m/wakaama_lwm2m/core\objects.c ****         }
 196:C:/Users/dtjld/Desktop/AIoT_software/LiteOS_Lab_overseas/LiteOS_Lab/iot_link/network/lwm2m/wakaama_lwm2m/core\objects.c ****         ++i;
 533              		.loc 1 196 0 discriminator 2
 534 0086 BB69     		ldr	r3, [r7, #24]
 535 0088 0133     		adds	r3, r3, #1
 536 008a BB61     		str	r3, [r7, #24]
 188:C:/Users/dtjld/Desktop/AIoT_software/LiteOS_Lab_overseas/LiteOS_Lab/iot_link/network/lwm2m/wakaama_lwm2m/core\objects.c ****     {
 537              		.loc 1 188 0 discriminator 2
 538 008c FB69     		ldr	r3, [r7, #28]
 539 008e 1B68     		ldr	r3, [r3]
 540 0090 FB61     		str	r3, [r7, #28]
 541              	.L37:
 188:C:/Users/dtjld/Desktop/AIoT_software/LiteOS_Lab_overseas/LiteOS_Lab/iot_link/network/lwm2m/wakaama_lwm2m/core\objects.c ****     {
 542              		.loc 1 188 0 is_stmt 0 discriminator 1
ARM GAS  C:\Users\dtjld\AppData\Local\Temp\cclRRs7D.s 			page 14


 543 0092 FB69     		ldr	r3, [r7, #28]
 544 0094 002B     		cmp	r3, #0
 545 0096 DED1     		bne	.L39
 197:C:/Users/dtjld/Desktop/AIoT_software/LiteOS_Lab_overseas/LiteOS_Lab/iot_link/network/lwm2m/wakaama_lwm2m/core\objects.c ****     }
 198:C:/Users/dtjld/Desktop/AIoT_software/LiteOS_Lab_overseas/LiteOS_Lab/iot_link/network/lwm2m/wakaama_lwm2m/core\objects.c **** 
 199:C:/Users/dtjld/Desktop/AIoT_software/LiteOS_Lab_overseas/LiteOS_Lab/iot_link/network/lwm2m/wakaama_lwm2m/core\objects.c ****     if (*sizeP == 0)
 546              		.loc 1 199 0 is_stmt 1
 547 0098 BB6A     		ldr	r3, [r7, #40]
 548 009a 1B68     		ldr	r3, [r3]
 549 009c 002B     		cmp	r3, #0
 550 009e 06D1     		bne	.L40
 200:C:/Users/dtjld/Desktop/AIoT_software/LiteOS_Lab_overseas/LiteOS_Lab/iot_link/network/lwm2m/wakaama_lwm2m/core\objects.c ****     {
 201:C:/Users/dtjld/Desktop/AIoT_software/LiteOS_Lab_overseas/LiteOS_Lab/iot_link/network/lwm2m/wakaama_lwm2m/core\objects.c ****         lwm2m_free(*forbidden);
 551              		.loc 1 201 0
 552 00a0 FB6A     		ldr	r3, [r7, #44]
 553 00a2 1B68     		ldr	r3, [r3]
 554 00a4 1846     		mov	r0, r3
 555 00a6 FFF7FEFF 		bl	lwm2m_free
 202:C:/Users/dtjld/Desktop/AIoT_software/LiteOS_Lab_overseas/LiteOS_Lab/iot_link/network/lwm2m/wakaama_lwm2m/core\objects.c ****         return COAP_500_INTERNAL_SERVER_ERROR;
 556              		.loc 1 202 0
 557 00aa A023     		movs	r3, #160
 558 00ac 00E0     		b	.L41
 559              	.L40:
 203:C:/Users/dtjld/Desktop/AIoT_software/LiteOS_Lab_overseas/LiteOS_Lab/iot_link/network/lwm2m/wakaama_lwm2m/core\objects.c ****     }
 204:C:/Users/dtjld/Desktop/AIoT_software/LiteOS_Lab_overseas/LiteOS_Lab/iot_link/network/lwm2m/wakaama_lwm2m/core\objects.c **** 
 205:C:/Users/dtjld/Desktop/AIoT_software/LiteOS_Lab_overseas/LiteOS_Lab/iot_link/network/lwm2m/wakaama_lwm2m/core\objects.c ****     return COAP_NO_ERROR;
 560              		.loc 1 205 0
 561 00ae 0023     		movs	r3, #0
 562              	.L41:
 206:C:/Users/dtjld/Desktop/AIoT_software/LiteOS_Lab_overseas/LiteOS_Lab/iot_link/network/lwm2m/wakaama_lwm2m/core\objects.c **** }
 563              		.loc 1 206 0 discriminator 1
 564 00b0 1846     		mov	r0, r3
 565 00b2 2037     		adds	r7, r7, #32
 566              	.LCFI13:
 567              		.cfi_def_cfa_offset 8
 568 00b4 BD46     		mov	sp, r7
 569              	.LCFI14:
 570              		.cfi_def_cfa_register 13
 571              		@ sp needed
 572 00b6 80BD     		pop	{r7, pc}
 573              		.cfi_endproc
 574              	.LFE14:
 576              		.section	.rodata
 577 0023 00       		.align	2
 578              	.LC4:
 579 0024 5B25645D 		.ascii	"[%d][%s:%d] result: %u.%2u, size: %d\015\012\000"
 579      5B25733A 
 579      25645D20 
 579      72657375 
 579      6C743A20 
 580              		.section	.text.object_readData,"ax",%progbits
 581              		.align	1
 582              		.global	object_readData
 583              		.syntax unified
 584              		.thumb
 585              		.thumb_func
 586              		.fpu fpv4-sp-d16
ARM GAS  C:\Users\dtjld\AppData\Local\Temp\cclRRs7D.s 			page 15


 588              	object_readData:
 589              	.LFB15:
 207:C:/Users/dtjld/Desktop/AIoT_software/LiteOS_Lab_overseas/LiteOS_Lab/iot_link/network/lwm2m/wakaama_lwm2m/core\objects.c **** 
 208:C:/Users/dtjld/Desktop/AIoT_software/LiteOS_Lab_overseas/LiteOS_Lab/iot_link/network/lwm2m/wakaama_lwm2m/core\objects.c **** uint8_t object_readData(lwm2m_context_t *contextP,
 209:C:/Users/dtjld/Desktop/AIoT_software/LiteOS_Lab_overseas/LiteOS_Lab/iot_link/network/lwm2m/wakaama_lwm2m/core\objects.c ****                         lwm2m_uri_t *uriP,
 210:C:/Users/dtjld/Desktop/AIoT_software/LiteOS_Lab_overseas/LiteOS_Lab/iot_link/network/lwm2m/wakaama_lwm2m/core\objects.c ****                         int *sizeP,
 211:C:/Users/dtjld/Desktop/AIoT_software/LiteOS_Lab_overseas/LiteOS_Lab/iot_link/network/lwm2m/wakaama_lwm2m/core\objects.c ****                         lwm2m_data_t **dataP,
 212:C:/Users/dtjld/Desktop/AIoT_software/LiteOS_Lab_overseas/LiteOS_Lab/iot_link/network/lwm2m/wakaama_lwm2m/core\objects.c ****                         lwm2m_data_cfg_t *cfg,
 213:C:/Users/dtjld/Desktop/AIoT_software/LiteOS_Lab_overseas/LiteOS_Lab/iot_link/network/lwm2m/wakaama_lwm2m/core\objects.c ****                         uint16_t serverId)
 214:C:/Users/dtjld/Desktop/AIoT_software/LiteOS_Lab_overseas/LiteOS_Lab/iot_link/network/lwm2m/wakaama_lwm2m/core\objects.c **** {
 590              		.loc 1 214 0
 591              		.cfi_startproc
 592              		@ args = 8, pretend = 0, frame = 40
 593              		@ frame_needed = 1, uses_anonymous_args = 0
 594 0000 90B5     		push	{r4, r7, lr}
 595              	.LCFI15:
 596              		.cfi_def_cfa_offset 12
 597              		.cfi_offset 4, -12
 598              		.cfi_offset 7, -8
 599              		.cfi_offset 14, -4
 600 0002 8FB0     		sub	sp, sp, #60
 601              	.LCFI16:
 602              		.cfi_def_cfa_offset 72
 603 0004 04AF     		add	r7, sp, #16
 604              	.LCFI17:
 605              		.cfi_def_cfa 7, 56
 606 0006 F860     		str	r0, [r7, #12]
 607 0008 B960     		str	r1, [r7, #8]
 608 000a 7A60     		str	r2, [r7, #4]
 609 000c 3B60     		str	r3, [r7]
 215:C:/Users/dtjld/Desktop/AIoT_software/LiteOS_Lab_overseas/LiteOS_Lab/iot_link/network/lwm2m/wakaama_lwm2m/core\objects.c ****     uint8_t result;
 216:C:/Users/dtjld/Desktop/AIoT_software/LiteOS_Lab_overseas/LiteOS_Lab/iot_link/network/lwm2m/wakaama_lwm2m/core\objects.c ****     lwm2m_object_t *targetP;
 217:C:/Users/dtjld/Desktop/AIoT_software/LiteOS_Lab_overseas/LiteOS_Lab/iot_link/network/lwm2m/wakaama_lwm2m/core\objects.c **** 
 218:C:/Users/dtjld/Desktop/AIoT_software/LiteOS_Lab_overseas/LiteOS_Lab/iot_link/network/lwm2m/wakaama_lwm2m/core\objects.c ****     LOG_URI(uriP);
 610              		.loc 1 218 0
 611 000e BB68     		ldr	r3, [r7, #8]
 612 0010 002B     		cmp	r3, #0
 613 0012 05D1     		bne	.L43
 614              		.loc 1 218 0 is_stmt 0 discriminator 1
 615 0014 DA22     		movs	r2, #218
 616 0016 9949     		ldr	r1, .L67
 617 0018 9948     		ldr	r0, .L67+4
 618 001a FFF7FEFF 		bl	atiny_printf
 619 001e 21E0     		b	.L44
 620              	.L43:
 621              		.loc 1 218 0 discriminator 2
 622 0020 BB68     		ldr	r3, [r7, #8]
 623 0022 5B88     		ldrh	r3, [r3, #2]
 624 0024 DA22     		movs	r2, #218
 625 0026 9549     		ldr	r1, .L67
 626 0028 9648     		ldr	r0, .L67+8
 627 002a FFF7FEFF 		bl	atiny_printf
 628 002e BB68     		ldr	r3, [r7, #8]
 629 0030 1B78     		ldrb	r3, [r3]	@ zero_extendqisi2
 630 0032 03F00203 		and	r3, r3, #2
 631 0036 002B     		cmp	r3, #0
 632 0038 05D0     		beq	.L45
ARM GAS  C:\Users\dtjld\AppData\Local\Temp\cclRRs7D.s 			page 16


 633              		.loc 1 218 0 discriminator 3
 634 003a BB68     		ldr	r3, [r7, #8]
 635 003c 9B88     		ldrh	r3, [r3, #4]
 636 003e 1946     		mov	r1, r3
 637 0040 9148     		ldr	r0, .L67+12
 638 0042 FFF7FEFF 		bl	atiny_printf
 639              	.L45:
 640              		.loc 1 218 0 discriminator 5
 641 0046 BB68     		ldr	r3, [r7, #8]
 642 0048 1B78     		ldrb	r3, [r3]	@ zero_extendqisi2
 643 004a 03F00103 		and	r3, r3, #1
 644 004e 002B     		cmp	r3, #0
 645 0050 05D0     		beq	.L46
 646              		.loc 1 218 0 discriminator 6
 647 0052 BB68     		ldr	r3, [r7, #8]
 648 0054 DB88     		ldrh	r3, [r3, #6]
 649 0056 1946     		mov	r1, r3
 650 0058 8B48     		ldr	r0, .L67+12
 651 005a FFF7FEFF 		bl	atiny_printf
 652              	.L46:
 653              		.loc 1 218 0 discriminator 8
 654 005e 8B48     		ldr	r0, .L67+16
 655 0060 FFF7FEFF 		bl	atiny_printf
 656              	.L44:
 219:C:/Users/dtjld/Desktop/AIoT_software/LiteOS_Lab_overseas/LiteOS_Lab/iot_link/network/lwm2m/wakaama_lwm2m/core\objects.c ****     targetP = (lwm2m_object_t *)LWM2M_LIST_FIND(contextP->objectList, uriP->objectId);
 657              		.loc 1 219 0 is_stmt 1
 658 0064 FB68     		ldr	r3, [r7, #12]
 659 0066 9A69     		ldr	r2, [r3, #24]
 660 0068 BB68     		ldr	r3, [r7, #8]
 661 006a 5B88     		ldrh	r3, [r3, #2]
 662 006c 1946     		mov	r1, r3
 663 006e 1046     		mov	r0, r2
 664 0070 FFF7FEFF 		bl	lwm2m_list_find
 665 0074 7861     		str	r0, [r7, #20]
 220:C:/Users/dtjld/Desktop/AIoT_software/LiteOS_Lab_overseas/LiteOS_Lab/iot_link/network/lwm2m/wakaama_lwm2m/core\objects.c ****     if (NULL == targetP) return COAP_404_NOT_FOUND;
 666              		.loc 1 220 0
 667 0076 7B69     		ldr	r3, [r7, #20]
 668 0078 002B     		cmp	r3, #0
 669 007a 01D1     		bne	.L47
 670              		.loc 1 220 0 is_stmt 0 discriminator 1
 671 007c 8423     		movs	r3, #132
 672 007e F9E0     		b	.L48
 673              	.L47:
 221:C:/Users/dtjld/Desktop/AIoT_software/LiteOS_Lab_overseas/LiteOS_Lab/iot_link/network/lwm2m/wakaama_lwm2m/core\objects.c ****     if (NULL == targetP->readFunc) return COAP_405_METHOD_NOT_ALLOWED;
 674              		.loc 1 221 0 is_stmt 1
 675 0080 7B69     		ldr	r3, [r7, #20]
 676 0082 DB68     		ldr	r3, [r3, #12]
 677 0084 002B     		cmp	r3, #0
 678 0086 01D1     		bne	.L49
 679              		.loc 1 221 0 is_stmt 0 discriminator 1
 680 0088 8523     		movs	r3, #133
 681 008a F3E0     		b	.L48
 682              	.L49:
 222:C:/Users/dtjld/Desktop/AIoT_software/LiteOS_Lab_overseas/LiteOS_Lab/iot_link/network/lwm2m/wakaama_lwm2m/core\objects.c **** 
 223:C:/Users/dtjld/Desktop/AIoT_software/LiteOS_Lab_overseas/LiteOS_Lab/iot_link/network/lwm2m/wakaama_lwm2m/core\objects.c ****     if (LWM2M_URI_IS_SET_INSTANCE(uriP))
 683              		.loc 1 223 0 is_stmt 1
 684 008c BB68     		ldr	r3, [r7, #8]
ARM GAS  C:\Users\dtjld\AppData\Local\Temp\cclRRs7D.s 			page 17


 685 008e 1B78     		ldrb	r3, [r3]	@ zero_extendqisi2
 686 0090 03F00203 		and	r3, r3, #2
 687 0094 002B     		cmp	r3, #0
 688 0096 36D0     		beq	.L50
 224:C:/Users/dtjld/Desktop/AIoT_software/LiteOS_Lab_overseas/LiteOS_Lab/iot_link/network/lwm2m/wakaama_lwm2m/core\objects.c ****     {
 225:C:/Users/dtjld/Desktop/AIoT_software/LiteOS_Lab_overseas/LiteOS_Lab/iot_link/network/lwm2m/wakaama_lwm2m/core\objects.c ****         if (NULL == lwm2m_list_find(targetP->instanceList, uriP->instanceId)) return COAP_404_NOT_F
 689              		.loc 1 225 0
 690 0098 7B69     		ldr	r3, [r7, #20]
 691 009a 9A68     		ldr	r2, [r3, #8]
 692 009c BB68     		ldr	r3, [r7, #8]
 693 009e 9B88     		ldrh	r3, [r3, #4]
 694 00a0 1946     		mov	r1, r3
 695 00a2 1046     		mov	r0, r2
 696 00a4 FFF7FEFF 		bl	lwm2m_list_find
 697 00a8 0346     		mov	r3, r0
 698 00aa 002B     		cmp	r3, #0
 699 00ac 01D1     		bne	.L51
 700              		.loc 1 225 0 is_stmt 0 discriminator 1
 701 00ae 8423     		movs	r3, #132
 702 00b0 E0E0     		b	.L48
 703              	.L51:
 226:C:/Users/dtjld/Desktop/AIoT_software/LiteOS_Lab_overseas/LiteOS_Lab/iot_link/network/lwm2m/wakaama_lwm2m/core\objects.c **** 
 227:C:/Users/dtjld/Desktop/AIoT_software/LiteOS_Lab_overseas/LiteOS_Lab/iot_link/network/lwm2m/wakaama_lwm2m/core\objects.c ****         // single instance read
 228:C:/Users/dtjld/Desktop/AIoT_software/LiteOS_Lab_overseas/LiteOS_Lab/iot_link/network/lwm2m/wakaama_lwm2m/core\objects.c ****         if (LWM2M_URI_IS_SET_RESOURCE(uriP))
 704              		.loc 1 228 0 is_stmt 1
 705 00b2 BB68     		ldr	r3, [r7, #8]
 706 00b4 1B78     		ldrb	r3, [r3]	@ zero_extendqisi2
 707 00b6 03F00103 		and	r3, r3, #1
 708 00ba 002B     		cmp	r3, #0
 709 00bc 15D0     		beq	.L52
 229:C:/Users/dtjld/Desktop/AIoT_software/LiteOS_Lab_overseas/LiteOS_Lab/iot_link/network/lwm2m/wakaama_lwm2m/core\objects.c ****         {
 230:C:/Users/dtjld/Desktop/AIoT_software/LiteOS_Lab_overseas/LiteOS_Lab/iot_link/network/lwm2m/wakaama_lwm2m/core\objects.c ****             *sizeP = 1;
 710              		.loc 1 230 0
 711 00be 7B68     		ldr	r3, [r7, #4]
 712 00c0 0122     		movs	r2, #1
 713 00c2 1A60     		str	r2, [r3]
 231:C:/Users/dtjld/Desktop/AIoT_software/LiteOS_Lab_overseas/LiteOS_Lab/iot_link/network/lwm2m/wakaama_lwm2m/core\objects.c ****             *dataP = lwm2m_data_new(*sizeP);
 714              		.loc 1 231 0
 715 00c4 7B68     		ldr	r3, [r7, #4]
 716 00c6 1B68     		ldr	r3, [r3]
 717 00c8 1846     		mov	r0, r3
 718 00ca FFF7FEFF 		bl	lwm2m_data_new
 719 00ce 0246     		mov	r2, r0
 720 00d0 3B68     		ldr	r3, [r7]
 721 00d2 1A60     		str	r2, [r3]
 232:C:/Users/dtjld/Desktop/AIoT_software/LiteOS_Lab_overseas/LiteOS_Lab/iot_link/network/lwm2m/wakaama_lwm2m/core\objects.c ****             if (*dataP == NULL) return COAP_500_INTERNAL_SERVER_ERROR;
 722              		.loc 1 232 0
 723 00d4 3B68     		ldr	r3, [r7]
 724 00d6 1B68     		ldr	r3, [r3]
 725 00d8 002B     		cmp	r3, #0
 726 00da 01D1     		bne	.L53
 727              		.loc 1 232 0 is_stmt 0 discriminator 1
 728 00dc A023     		movs	r3, #160
 729 00de C9E0     		b	.L48
 730              	.L53:
 233:C:/Users/dtjld/Desktop/AIoT_software/LiteOS_Lab_overseas/LiteOS_Lab/iot_link/network/lwm2m/wakaama_lwm2m/core\objects.c **** 
 234:C:/Users/dtjld/Desktop/AIoT_software/LiteOS_Lab_overseas/LiteOS_Lab/iot_link/network/lwm2m/wakaama_lwm2m/core\objects.c ****             (*dataP)->id = uriP->resourceId;
ARM GAS  C:\Users\dtjld\AppData\Local\Temp\cclRRs7D.s 			page 18


 731              		.loc 1 234 0 is_stmt 1
 732 00e0 3B68     		ldr	r3, [r7]
 733 00e2 1B68     		ldr	r3, [r3]
 734 00e4 BA68     		ldr	r2, [r7, #8]
 735 00e6 D288     		ldrh	r2, [r2, #6]
 736 00e8 5A80     		strh	r2, [r3, #2]	@ movhi
 737              	.L52:
 235:C:/Users/dtjld/Desktop/AIoT_software/LiteOS_Lab_overseas/LiteOS_Lab/iot_link/network/lwm2m/wakaama_lwm2m/core\objects.c ****         }
 236:C:/Users/dtjld/Desktop/AIoT_software/LiteOS_Lab_overseas/LiteOS_Lab/iot_link/network/lwm2m/wakaama_lwm2m/core\objects.c **** 
 237:C:/Users/dtjld/Desktop/AIoT_software/LiteOS_Lab_overseas/LiteOS_Lab/iot_link/network/lwm2m/wakaama_lwm2m/core\objects.c ****         result = targetP->readFunc(uriP->instanceId, sizeP, dataP, cfg, targetP);
 738              		.loc 1 237 0
 739 00ea 7B69     		ldr	r3, [r7, #20]
 740 00ec DC68     		ldr	r4, [r3, #12]
 741 00ee BB68     		ldr	r3, [r7, #8]
 742 00f0 9888     		ldrh	r0, [r3, #4]
 743 00f2 7B69     		ldr	r3, [r7, #20]
 744 00f4 0093     		str	r3, [sp]
 745 00f6 BB6B     		ldr	r3, [r7, #56]
 746 00f8 3A68     		ldr	r2, [r7]
 747 00fa 7968     		ldr	r1, [r7, #4]
 748 00fc A047     		blx	r4
 749              	.LVL2:
 750 00fe 0346     		mov	r3, r0
 751 0100 87F82730 		strb	r3, [r7, #39]
 752 0104 9AE0     		b	.L54
 753              	.L50:
 754              	.LBB2:
 238:C:/Users/dtjld/Desktop/AIoT_software/LiteOS_Lab_overseas/LiteOS_Lab/iot_link/network/lwm2m/wakaama_lwm2m/core\objects.c ****     }
 239:C:/Users/dtjld/Desktop/AIoT_software/LiteOS_Lab_overseas/LiteOS_Lab/iot_link/network/lwm2m/wakaama_lwm2m/core\objects.c ****     else
 240:C:/Users/dtjld/Desktop/AIoT_software/LiteOS_Lab_overseas/LiteOS_Lab/iot_link/network/lwm2m/wakaama_lwm2m/core\objects.c ****     {
 241:C:/Users/dtjld/Desktop/AIoT_software/LiteOS_Lab_overseas/LiteOS_Lab/iot_link/network/lwm2m/wakaama_lwm2m/core\objects.c ****         // multiple object instances read
 242:C:/Users/dtjld/Desktop/AIoT_software/LiteOS_Lab_overseas/LiteOS_Lab/iot_link/network/lwm2m/wakaama_lwm2m/core\objects.c ****         lwm2m_list_t *instanceP;
 243:C:/Users/dtjld/Desktop/AIoT_software/LiteOS_Lab_overseas/LiteOS_Lab/iot_link/network/lwm2m/wakaama_lwm2m/core\objects.c ****         uint8_t *forbidden = NULL;
 755              		.loc 1 243 0
 756 0106 0023     		movs	r3, #0
 757 0108 3B61     		str	r3, [r7, #16]
 244:C:/Users/dtjld/Desktop/AIoT_software/LiteOS_Lab_overseas/LiteOS_Lab/iot_link/network/lwm2m/wakaama_lwm2m/core\objects.c ****         int i;
 245:C:/Users/dtjld/Desktop/AIoT_software/LiteOS_Lab_overseas/LiteOS_Lab/iot_link/network/lwm2m/wakaama_lwm2m/core\objects.c ****         int j;
 246:C:/Users/dtjld/Desktop/AIoT_software/LiteOS_Lab_overseas/LiteOS_Lab/iot_link/network/lwm2m/wakaama_lwm2m/core\objects.c **** 
 247:C:/Users/dtjld/Desktop/AIoT_software/LiteOS_Lab_overseas/LiteOS_Lab/iot_link/network/lwm2m/wakaama_lwm2m/core\objects.c ****         result = COAP_205_CONTENT;
 758              		.loc 1 247 0
 759 010a 4523     		movs	r3, #69
 760 010c 87F82730 		strb	r3, [r7, #39]
 248:C:/Users/dtjld/Desktop/AIoT_software/LiteOS_Lab_overseas/LiteOS_Lab/iot_link/network/lwm2m/wakaama_lwm2m/core\objects.c **** 
 249:C:/Users/dtjld/Desktop/AIoT_software/LiteOS_Lab_overseas/LiteOS_Lab/iot_link/network/lwm2m/wakaama_lwm2m/core\objects.c ****         *sizeP = 0;
 761              		.loc 1 249 0
 762 0110 7B68     		ldr	r3, [r7, #4]
 763 0112 0022     		movs	r2, #0
 764 0114 1A60     		str	r2, [r3]
 250:C:/Users/dtjld/Desktop/AIoT_software/LiteOS_Lab_overseas/LiteOS_Lab/iot_link/network/lwm2m/wakaama_lwm2m/core\objects.c ****         for (instanceP = targetP->instanceList; instanceP != NULL ; instanceP = instanceP->next)
 765              		.loc 1 250 0
 766 0116 7B69     		ldr	r3, [r7, #20]
 767 0118 9B68     		ldr	r3, [r3, #8]
 768 011a 3B62     		str	r3, [r7, #32]
 769 011c 07E0     		b	.L55
 770              	.L56:
 251:C:/Users/dtjld/Desktop/AIoT_software/LiteOS_Lab_overseas/LiteOS_Lab/iot_link/network/lwm2m/wakaama_lwm2m/core\objects.c ****         {
ARM GAS  C:\Users\dtjld\AppData\Local\Temp\cclRRs7D.s 			page 19


 252:C:/Users/dtjld/Desktop/AIoT_software/LiteOS_Lab_overseas/LiteOS_Lab/iot_link/network/lwm2m/wakaama_lwm2m/core\objects.c ****             (*sizeP)++;
 771              		.loc 1 252 0 discriminator 3
 772 011e 7B68     		ldr	r3, [r7, #4]
 773 0120 1B68     		ldr	r3, [r3]
 774 0122 5A1C     		adds	r2, r3, #1
 775 0124 7B68     		ldr	r3, [r7, #4]
 776 0126 1A60     		str	r2, [r3]
 250:C:/Users/dtjld/Desktop/AIoT_software/LiteOS_Lab_overseas/LiteOS_Lab/iot_link/network/lwm2m/wakaama_lwm2m/core\objects.c ****         for (instanceP = targetP->instanceList; instanceP != NULL ; instanceP = instanceP->next)
 777              		.loc 1 250 0 discriminator 3
 778 0128 3B6A     		ldr	r3, [r7, #32]
 779 012a 1B68     		ldr	r3, [r3]
 780 012c 3B62     		str	r3, [r7, #32]
 781              	.L55:
 250:C:/Users/dtjld/Desktop/AIoT_software/LiteOS_Lab_overseas/LiteOS_Lab/iot_link/network/lwm2m/wakaama_lwm2m/core\objects.c ****         for (instanceP = targetP->instanceList; instanceP != NULL ; instanceP = instanceP->next)
 782              		.loc 1 250 0 is_stmt 0 discriminator 1
 783 012e 3B6A     		ldr	r3, [r7, #32]
 784 0130 002B     		cmp	r3, #0
 785 0132 F4D1     		bne	.L56
 253:C:/Users/dtjld/Desktop/AIoT_software/LiteOS_Lab_overseas/LiteOS_Lab/iot_link/network/lwm2m/wakaama_lwm2m/core\objects.c ****         }
 254:C:/Users/dtjld/Desktop/AIoT_software/LiteOS_Lab_overseas/LiteOS_Lab/iot_link/network/lwm2m/wakaama_lwm2m/core\objects.c **** 
 255:C:/Users/dtjld/Desktop/AIoT_software/LiteOS_Lab_overseas/LiteOS_Lab/iot_link/network/lwm2m/wakaama_lwm2m/core\objects.c ****         if (*sizeP == 0)
 786              		.loc 1 255 0 is_stmt 1
 787 0134 7B68     		ldr	r3, [r7, #4]
 788 0136 1B68     		ldr	r3, [r3]
 789 0138 002B     		cmp	r3, #0
 790 013a 03D1     		bne	.L57
 256:C:/Users/dtjld/Desktop/AIoT_software/LiteOS_Lab_overseas/LiteOS_Lab/iot_link/network/lwm2m/wakaama_lwm2m/core\objects.c ****         {
 257:C:/Users/dtjld/Desktop/AIoT_software/LiteOS_Lab_overseas/LiteOS_Lab/iot_link/network/lwm2m/wakaama_lwm2m/core\objects.c ****             *dataP = NULL;
 791              		.loc 1 257 0
 792 013c 3B68     		ldr	r3, [r7]
 793 013e 0022     		movs	r2, #0
 794 0140 1A60     		str	r2, [r3]
 795 0142 74E0     		b	.L58
 796              	.L57:
 258:C:/Users/dtjld/Desktop/AIoT_software/LiteOS_Lab_overseas/LiteOS_Lab/iot_link/network/lwm2m/wakaama_lwm2m/core\objects.c ****         }
 259:C:/Users/dtjld/Desktop/AIoT_software/LiteOS_Lab_overseas/LiteOS_Lab/iot_link/network/lwm2m/wakaama_lwm2m/core\objects.c ****         else
 260:C:/Users/dtjld/Desktop/AIoT_software/LiteOS_Lab_overseas/LiteOS_Lab/iot_link/network/lwm2m/wakaama_lwm2m/core\objects.c ****         {
 261:C:/Users/dtjld/Desktop/AIoT_software/LiteOS_Lab_overseas/LiteOS_Lab/iot_link/network/lwm2m/wakaama_lwm2m/core\objects.c ****             if ((result = prv_init_forbidden(contextP, targetP,
 797              		.loc 1 261 0
 798 0144 BB68     		ldr	r3, [r7, #8]
 799 0146 5A88     		ldrh	r2, [r3, #2]
 800 0148 B98F     		ldrh	r1, [r7, #60]
 801 014a 07F11003 		add	r3, r7, #16
 802 014e 0193     		str	r3, [sp, #4]
 803 0150 7B68     		ldr	r3, [r7, #4]
 804 0152 0093     		str	r3, [sp]
 805 0154 0B46     		mov	r3, r1
 806 0156 7969     		ldr	r1, [r7, #20]
 807 0158 F868     		ldr	r0, [r7, #12]
 808 015a FFF7FEFF 		bl	prv_init_forbidden
 809 015e 0346     		mov	r3, r0
 810 0160 87F82730 		strb	r3, [r7, #39]
 811 0164 97F82730 		ldrb	r3, [r7, #39]	@ zero_extendqisi2
 812 0168 002B     		cmp	r3, #0
 813 016a 05D0     		beq	.L59
 262:C:/Users/dtjld/Desktop/AIoT_software/LiteOS_Lab_overseas/LiteOS_Lab/iot_link/network/lwm2m/wakaama_lwm2m/core\objects.c ****                                              uriP->objectId, serverId, sizeP, &forbidden)) != COAP_
 263:C:/Users/dtjld/Desktop/AIoT_software/LiteOS_Lab_overseas/LiteOS_Lab/iot_link/network/lwm2m/wakaama_lwm2m/core\objects.c ****             {
ARM GAS  C:\Users\dtjld\AppData\Local\Temp\cclRRs7D.s 			page 20


 264:C:/Users/dtjld/Desktop/AIoT_software/LiteOS_Lab_overseas/LiteOS_Lab/iot_link/network/lwm2m/wakaama_lwm2m/core\objects.c ****                 *dataP = NULL;
 814              		.loc 1 264 0
 815 016c 3B68     		ldr	r3, [r7]
 816 016e 0022     		movs	r2, #0
 817 0170 1A60     		str	r2, [r3]
 265:C:/Users/dtjld/Desktop/AIoT_software/LiteOS_Lab_overseas/LiteOS_Lab/iot_link/network/lwm2m/wakaama_lwm2m/core\objects.c ****                 return result;
 818              		.loc 1 265 0
 819 0172 97F82730 		ldrb	r3, [r7, #39]	@ zero_extendqisi2
 820 0176 7DE0     		b	.L48
 821              	.L59:
 266:C:/Users/dtjld/Desktop/AIoT_software/LiteOS_Lab_overseas/LiteOS_Lab/iot_link/network/lwm2m/wakaama_lwm2m/core\objects.c ****             }
 267:C:/Users/dtjld/Desktop/AIoT_software/LiteOS_Lab_overseas/LiteOS_Lab/iot_link/network/lwm2m/wakaama_lwm2m/core\objects.c **** 
 268:C:/Users/dtjld/Desktop/AIoT_software/LiteOS_Lab_overseas/LiteOS_Lab/iot_link/network/lwm2m/wakaama_lwm2m/core\objects.c ****             *dataP = lwm2m_data_new(*sizeP);
 822              		.loc 1 268 0
 823 0178 7B68     		ldr	r3, [r7, #4]
 824 017a 1B68     		ldr	r3, [r3]
 825 017c 1846     		mov	r0, r3
 826 017e FFF7FEFF 		bl	lwm2m_data_new
 827 0182 0246     		mov	r2, r0
 828 0184 3B68     		ldr	r3, [r7]
 829 0186 1A60     		str	r2, [r3]
 269:C:/Users/dtjld/Desktop/AIoT_software/LiteOS_Lab_overseas/LiteOS_Lab/iot_link/network/lwm2m/wakaama_lwm2m/core\objects.c ****             if (*dataP == NULL)
 830              		.loc 1 269 0
 831 0188 3B68     		ldr	r3, [r7]
 832 018a 1B68     		ldr	r3, [r3]
 833 018c 002B     		cmp	r3, #0
 834 018e 08D1     		bne	.L61
 270:C:/Users/dtjld/Desktop/AIoT_software/LiteOS_Lab_overseas/LiteOS_Lab/iot_link/network/lwm2m/wakaama_lwm2m/core\objects.c ****             {
 271:C:/Users/dtjld/Desktop/AIoT_software/LiteOS_Lab_overseas/LiteOS_Lab/iot_link/network/lwm2m/wakaama_lwm2m/core\objects.c ****                 if (forbidden != NULL)
 835              		.loc 1 271 0
 836 0190 3B69     		ldr	r3, [r7, #16]
 837 0192 002B     		cmp	r3, #0
 838 0194 03D0     		beq	.L62
 272:C:/Users/dtjld/Desktop/AIoT_software/LiteOS_Lab_overseas/LiteOS_Lab/iot_link/network/lwm2m/wakaama_lwm2m/core\objects.c ****                 {
 273:C:/Users/dtjld/Desktop/AIoT_software/LiteOS_Lab_overseas/LiteOS_Lab/iot_link/network/lwm2m/wakaama_lwm2m/core\objects.c ****                     lwm2m_free(forbidden);
 839              		.loc 1 273 0
 840 0196 3B69     		ldr	r3, [r7, #16]
 841 0198 1846     		mov	r0, r3
 842 019a FFF7FEFF 		bl	lwm2m_free
 843              	.L62:
 274:C:/Users/dtjld/Desktop/AIoT_software/LiteOS_Lab_overseas/LiteOS_Lab/iot_link/network/lwm2m/wakaama_lwm2m/core\objects.c ****                 }
 275:C:/Users/dtjld/Desktop/AIoT_software/LiteOS_Lab_overseas/LiteOS_Lab/iot_link/network/lwm2m/wakaama_lwm2m/core\objects.c ****                 return COAP_500_INTERNAL_SERVER_ERROR;
 844              		.loc 1 275 0
 845 019e A023     		movs	r3, #160
 846 01a0 68E0     		b	.L48
 847              	.L61:
 276:C:/Users/dtjld/Desktop/AIoT_software/LiteOS_Lab_overseas/LiteOS_Lab/iot_link/network/lwm2m/wakaama_lwm2m/core\objects.c ****             }
 277:C:/Users/dtjld/Desktop/AIoT_software/LiteOS_Lab_overseas/LiteOS_Lab/iot_link/network/lwm2m/wakaama_lwm2m/core\objects.c **** 
 278:C:/Users/dtjld/Desktop/AIoT_software/LiteOS_Lab_overseas/LiteOS_Lab/iot_link/network/lwm2m/wakaama_lwm2m/core\objects.c ****             instanceP = targetP->instanceList;
 848              		.loc 1 278 0
 849 01a2 7B69     		ldr	r3, [r7, #20]
 850 01a4 9B68     		ldr	r3, [r3, #8]
 851 01a6 3B62     		str	r3, [r7, #32]
 279:C:/Users/dtjld/Desktop/AIoT_software/LiteOS_Lab_overseas/LiteOS_Lab/iot_link/network/lwm2m/wakaama_lwm2m/core\objects.c ****             i = 0;
 852              		.loc 1 279 0
 853 01a8 0023     		movs	r3, #0
 854 01aa FB61     		str	r3, [r7, #28]
ARM GAS  C:\Users\dtjld\AppData\Local\Temp\cclRRs7D.s 			page 21


 280:C:/Users/dtjld/Desktop/AIoT_software/LiteOS_Lab_overseas/LiteOS_Lab/iot_link/network/lwm2m/wakaama_lwm2m/core\objects.c ****             j = 0;
 855              		.loc 1 280 0
 856 01ac 0023     		movs	r3, #0
 857 01ae BB61     		str	r3, [r7, #24]
 281:C:/Users/dtjld/Desktop/AIoT_software/LiteOS_Lab_overseas/LiteOS_Lab/iot_link/network/lwm2m/wakaama_lwm2m/core\objects.c ****             while (instanceP != NULL && result == COAP_205_CONTENT)
 858              		.loc 1 281 0
 859 01b0 36E0     		b	.L63
 860              	.L65:
 282:C:/Users/dtjld/Desktop/AIoT_software/LiteOS_Lab_overseas/LiteOS_Lab/iot_link/network/lwm2m/wakaama_lwm2m/core\objects.c ****             {
 283:C:/Users/dtjld/Desktop/AIoT_software/LiteOS_Lab_overseas/LiteOS_Lab/iot_link/network/lwm2m/wakaama_lwm2m/core\objects.c ****                 if (forbidden[i] == 0)
 861              		.loc 1 283 0
 862 01b2 3A69     		ldr	r2, [r7, #16]
 863 01b4 FB69     		ldr	r3, [r7, #28]
 864 01b6 1344     		add	r3, r3, r2
 865 01b8 1B78     		ldrb	r3, [r3]	@ zero_extendqisi2
 866 01ba 002B     		cmp	r3, #0
 867 01bc 2AD1     		bne	.L64
 284:C:/Users/dtjld/Desktop/AIoT_software/LiteOS_Lab_overseas/LiteOS_Lab/iot_link/network/lwm2m/wakaama_lwm2m/core\objects.c ****                 {
 285:C:/Users/dtjld/Desktop/AIoT_software/LiteOS_Lab_overseas/LiteOS_Lab/iot_link/network/lwm2m/wakaama_lwm2m/core\objects.c ****                     result = targetP->readFunc(instanceP->id, (int *) & ((*dataP)[j].value.asChildr
 868              		.loc 1 285 0
 869 01be 7B69     		ldr	r3, [r7, #20]
 870 01c0 DC68     		ldr	r4, [r3, #12]
 871 01c2 3B6A     		ldr	r3, [r7, #32]
 872 01c4 9888     		ldrh	r0, [r3, #4]
 873 01c6 3B68     		ldr	r3, [r7]
 874 01c8 1A68     		ldr	r2, [r3]
 875 01ca BB69     		ldr	r3, [r7, #24]
 876 01cc 1B01     		lsls	r3, r3, #4
 877 01ce 1344     		add	r3, r3, r2
 878 01d0 03F10801 		add	r1, r3, #8
 879 01d4 3B68     		ldr	r3, [r7]
 880 01d6 1A68     		ldr	r2, [r3]
 881 01d8 BB69     		ldr	r3, [r7, #24]
 882 01da 1B01     		lsls	r3, r3, #4
 883 01dc 1344     		add	r3, r3, r2
 884 01de 03F10C02 		add	r2, r3, #12
 885 01e2 7B69     		ldr	r3, [r7, #20]
 886 01e4 0093     		str	r3, [sp]
 887 01e6 BB6B     		ldr	r3, [r7, #56]
 888 01e8 A047     		blx	r4
 889              	.LVL3:
 890 01ea 0346     		mov	r3, r0
 891 01ec 87F82730 		strb	r3, [r7, #39]
 286:C:/Users/dtjld/Desktop/AIoT_software/LiteOS_Lab_overseas/LiteOS_Lab/iot_link/network/lwm2m/wakaama_lwm2m/core\objects.c ****                     (*dataP)[j].type = LWM2M_TYPE_OBJECT_INSTANCE;
 892              		.loc 1 286 0
 893 01f0 3B68     		ldr	r3, [r7]
 894 01f2 1A68     		ldr	r2, [r3]
 895 01f4 BB69     		ldr	r3, [r7, #24]
 896 01f6 1B01     		lsls	r3, r3, #4
 897 01f8 1344     		add	r3, r3, r2
 898 01fa 0222     		movs	r2, #2
 899 01fc 1A70     		strb	r2, [r3]
 287:C:/Users/dtjld/Desktop/AIoT_software/LiteOS_Lab_overseas/LiteOS_Lab/iot_link/network/lwm2m/wakaama_lwm2m/core\objects.c ****                     (*dataP)[j].id = instanceP->id;
 900              		.loc 1 287 0
 901 01fe 3B68     		ldr	r3, [r7]
 902 0200 1A68     		ldr	r2, [r3]
 903 0202 BB69     		ldr	r3, [r7, #24]
ARM GAS  C:\Users\dtjld\AppData\Local\Temp\cclRRs7D.s 			page 22


 904 0204 1B01     		lsls	r3, r3, #4
 905 0206 1344     		add	r3, r3, r2
 906 0208 3A6A     		ldr	r2, [r7, #32]
 907 020a 9288     		ldrh	r2, [r2, #4]
 908 020c 5A80     		strh	r2, [r3, #2]	@ movhi
 288:C:/Users/dtjld/Desktop/AIoT_software/LiteOS_Lab_overseas/LiteOS_Lab/iot_link/network/lwm2m/wakaama_lwm2m/core\objects.c ****                     j++;
 909              		.loc 1 288 0
 910 020e BB69     		ldr	r3, [r7, #24]
 911 0210 0133     		adds	r3, r3, #1
 912 0212 BB61     		str	r3, [r7, #24]
 913              	.L64:
 289:C:/Users/dtjld/Desktop/AIoT_software/LiteOS_Lab_overseas/LiteOS_Lab/iot_link/network/lwm2m/wakaama_lwm2m/core\objects.c ****                 }
 290:C:/Users/dtjld/Desktop/AIoT_software/LiteOS_Lab_overseas/LiteOS_Lab/iot_link/network/lwm2m/wakaama_lwm2m/core\objects.c ****                 instanceP = instanceP->next;
 914              		.loc 1 290 0
 915 0214 3B6A     		ldr	r3, [r7, #32]
 916 0216 1B68     		ldr	r3, [r3]
 917 0218 3B62     		str	r3, [r7, #32]
 291:C:/Users/dtjld/Desktop/AIoT_software/LiteOS_Lab_overseas/LiteOS_Lab/iot_link/network/lwm2m/wakaama_lwm2m/core\objects.c ****                 i++;
 918              		.loc 1 291 0
 919 021a FB69     		ldr	r3, [r7, #28]
 920 021c 0133     		adds	r3, r3, #1
 921 021e FB61     		str	r3, [r7, #28]
 922              	.L63:
 281:C:/Users/dtjld/Desktop/AIoT_software/LiteOS_Lab_overseas/LiteOS_Lab/iot_link/network/lwm2m/wakaama_lwm2m/core\objects.c ****             {
 923              		.loc 1 281 0
 924 0220 3B6A     		ldr	r3, [r7, #32]
 925 0222 002B     		cmp	r3, #0
 926 0224 03D0     		beq	.L58
 281:C:/Users/dtjld/Desktop/AIoT_software/LiteOS_Lab_overseas/LiteOS_Lab/iot_link/network/lwm2m/wakaama_lwm2m/core\objects.c ****             {
 927              		.loc 1 281 0 is_stmt 0 discriminator 1
 928 0226 97F82730 		ldrb	r3, [r7, #39]	@ zero_extendqisi2
 929 022a 452B     		cmp	r3, #69
 930 022c C1D0     		beq	.L65
 931              	.L58:
 292:C:/Users/dtjld/Desktop/AIoT_software/LiteOS_Lab_overseas/LiteOS_Lab/iot_link/network/lwm2m/wakaama_lwm2m/core\objects.c ****             }
 293:C:/Users/dtjld/Desktop/AIoT_software/LiteOS_Lab_overseas/LiteOS_Lab/iot_link/network/lwm2m/wakaama_lwm2m/core\objects.c ****         }
 294:C:/Users/dtjld/Desktop/AIoT_software/LiteOS_Lab_overseas/LiteOS_Lab/iot_link/network/lwm2m/wakaama_lwm2m/core\objects.c ****         if (forbidden != NULL)
 932              		.loc 1 294 0 is_stmt 1
 933 022e 3B69     		ldr	r3, [r7, #16]
 934 0230 002B     		cmp	r3, #0
 935 0232 03D0     		beq	.L54
 295:C:/Users/dtjld/Desktop/AIoT_software/LiteOS_Lab_overseas/LiteOS_Lab/iot_link/network/lwm2m/wakaama_lwm2m/core\objects.c ****         {
 296:C:/Users/dtjld/Desktop/AIoT_software/LiteOS_Lab_overseas/LiteOS_Lab/iot_link/network/lwm2m/wakaama_lwm2m/core\objects.c ****             lwm2m_free(forbidden);
 936              		.loc 1 296 0
 937 0234 3B69     		ldr	r3, [r7, #16]
 938 0236 1846     		mov	r0, r3
 939 0238 FFF7FEFF 		bl	lwm2m_free
 940              	.L54:
 941              	.LBE2:
 297:C:/Users/dtjld/Desktop/AIoT_software/LiteOS_Lab_overseas/LiteOS_Lab/iot_link/network/lwm2m/wakaama_lwm2m/core\objects.c ****         }
 298:C:/Users/dtjld/Desktop/AIoT_software/LiteOS_Lab_overseas/LiteOS_Lab/iot_link/network/lwm2m/wakaama_lwm2m/core\objects.c ****     }
 299:C:/Users/dtjld/Desktop/AIoT_software/LiteOS_Lab_overseas/LiteOS_Lab/iot_link/network/lwm2m/wakaama_lwm2m/core\objects.c **** 
 300:C:/Users/dtjld/Desktop/AIoT_software/LiteOS_Lab_overseas/LiteOS_Lab/iot_link/network/lwm2m/wakaama_lwm2m/core\objects.c ****     LOG_ARG("result: %u.%2u, size: %d", (result & 0xFF) >> 5, (result & 0x1F), *sizeP);
 942              		.loc 1 300 0
 943 023c FFF7FEFF 		bl	lwm2m_gettime
 944 0240 0346     		mov	r3, r0
 945 0242 0C46     		mov	r4, r1
ARM GAS  C:\Users\dtjld\AppData\Local\Temp\cclRRs7D.s 			page 23


 946 0244 1846     		mov	r0, r3
 947 0246 97F82730 		ldrb	r3, [r7, #39]	@ zero_extendqisi2
 948 024a 5B09     		lsrs	r3, r3, #5
 949 024c DBB2     		uxtb	r3, r3
 950 024e 1946     		mov	r1, r3
 951 0250 97F82730 		ldrb	r3, [r7, #39]	@ zero_extendqisi2
 952 0254 03F01F03 		and	r3, r3, #31
 953 0258 7A68     		ldr	r2, [r7, #4]
 954 025a 1268     		ldr	r2, [r2]
 955 025c 0292     		str	r2, [sp, #8]
 956 025e 0193     		str	r3, [sp, #4]
 957 0260 0091     		str	r1, [sp]
 958 0262 4FF49673 		mov	r3, #300
 959 0266 054A     		ldr	r2, .L67
 960 0268 0146     		mov	r1, r0
 961 026a 0948     		ldr	r0, .L67+20
 962 026c FFF7FEFF 		bl	atiny_printf
 301:C:/Users/dtjld/Desktop/AIoT_software/LiteOS_Lab_overseas/LiteOS_Lab/iot_link/network/lwm2m/wakaama_lwm2m/core\objects.c ****     return result;
 963              		.loc 1 301 0
 964 0270 97F82730 		ldrb	r3, [r7, #39]	@ zero_extendqisi2
 965              	.L48:
 302:C:/Users/dtjld/Desktop/AIoT_software/LiteOS_Lab_overseas/LiteOS_Lab/iot_link/network/lwm2m/wakaama_lwm2m/core\objects.c **** }
 966              		.loc 1 302 0
 967 0274 1846     		mov	r0, r3
 968 0276 2C37     		adds	r7, r7, #44
 969              	.LCFI18:
 970              		.cfi_def_cfa_offset 12
 971 0278 BD46     		mov	sp, r7
 972              	.LCFI19:
 973              		.cfi_def_cfa_register 13
 974              		@ sp needed
 975 027a 90BD     		pop	{r4, r7, pc}
 976              	.L68:
 977              		.align	2
 978              	.L67:
 979 027c 00000000 		.word	__func__.8869
 980 0280 00000000 		.word	.LC0
 981 0284 10000000 		.word	.LC1
 982 0288 1C000000 		.word	.LC2
 983 028c 20000000 		.word	.LC3
 984 0290 24000000 		.word	.LC4
 985              		.cfi_endproc
 986              	.LFE15:
 988              		.section	.rodata
 989 004b 00       		.align	2
 990              	.LC5:
 991 004c 5B25645D 		.ascii	"[%d][%s:%d] result: %u.%2u, length: %d\015\012\000"
 991      5B25733A 
 991      25645D20 
 991      72657375 
 991      6C743A20 
 992              		.section	.text.object_read,"ax",%progbits
 993              		.align	1
 994              		.global	object_read
 995              		.syntax unified
 996              		.thumb
 997              		.thumb_func
ARM GAS  C:\Users\dtjld\AppData\Local\Temp\cclRRs7D.s 			page 24


 998              		.fpu fpv4-sp-d16
 1000              	object_read:
 1001              	.LFB16:
 303:C:/Users/dtjld/Desktop/AIoT_software/LiteOS_Lab_overseas/LiteOS_Lab/iot_link/network/lwm2m/wakaama_lwm2m/core\objects.c **** 
 304:C:/Users/dtjld/Desktop/AIoT_software/LiteOS_Lab_overseas/LiteOS_Lab/iot_link/network/lwm2m/wakaama_lwm2m/core\objects.c **** 
 305:C:/Users/dtjld/Desktop/AIoT_software/LiteOS_Lab_overseas/LiteOS_Lab/iot_link/network/lwm2m/wakaama_lwm2m/core\objects.c **** uint8_t object_read(lwm2m_context_t *contextP,
 306:C:/Users/dtjld/Desktop/AIoT_software/LiteOS_Lab_overseas/LiteOS_Lab/iot_link/network/lwm2m/wakaama_lwm2m/core\objects.c ****                     lwm2m_uri_t *uriP,
 307:C:/Users/dtjld/Desktop/AIoT_software/LiteOS_Lab_overseas/LiteOS_Lab/iot_link/network/lwm2m/wakaama_lwm2m/core\objects.c ****                     lwm2m_media_type_t *formatP,
 308:C:/Users/dtjld/Desktop/AIoT_software/LiteOS_Lab_overseas/LiteOS_Lab/iot_link/network/lwm2m/wakaama_lwm2m/core\objects.c ****                     uint8_t **bufferP,
 309:C:/Users/dtjld/Desktop/AIoT_software/LiteOS_Lab_overseas/LiteOS_Lab/iot_link/network/lwm2m/wakaama_lwm2m/core\objects.c ****                     size_t *lengthP,
 310:C:/Users/dtjld/Desktop/AIoT_software/LiteOS_Lab_overseas/LiteOS_Lab/iot_link/network/lwm2m/wakaama_lwm2m/core\objects.c ****                     uint16_t serverId)
 311:C:/Users/dtjld/Desktop/AIoT_software/LiteOS_Lab_overseas/LiteOS_Lab/iot_link/network/lwm2m/wakaama_lwm2m/core\objects.c **** {
 1002              		.loc 1 311 0
 1003              		.cfi_startproc
 1004              		@ args = 8, pretend = 0, frame = 32
 1005              		@ frame_needed = 1, uses_anonymous_args = 0
 1006 0000 90B5     		push	{r4, r7, lr}
 1007              	.LCFI20:
 1008              		.cfi_def_cfa_offset 12
 1009              		.cfi_offset 4, -12
 1010              		.cfi_offset 7, -8
 1011              		.cfi_offset 14, -4
 1012 0002 8DB0     		sub	sp, sp, #52
 1013              	.LCFI21:
 1014              		.cfi_def_cfa_offset 64
 1015 0004 04AF     		add	r7, sp, #16
 1016              	.LCFI22:
 1017              		.cfi_def_cfa 7, 48
 1018 0006 F860     		str	r0, [r7, #12]
 1019 0008 B960     		str	r1, [r7, #8]
 1020 000a 7A60     		str	r2, [r7, #4]
 1021 000c 3B60     		str	r3, [r7]
 312:C:/Users/dtjld/Desktop/AIoT_software/LiteOS_Lab_overseas/LiteOS_Lab/iot_link/network/lwm2m/wakaama_lwm2m/core\objects.c ****     uint8_t result;
 313:C:/Users/dtjld/Desktop/AIoT_software/LiteOS_Lab_overseas/LiteOS_Lab/iot_link/network/lwm2m/wakaama_lwm2m/core\objects.c ****     lwm2m_data_t *dataP = NULL;
 1022              		.loc 1 313 0
 1023 000e 0023     		movs	r3, #0
 1024 0010 7B61     		str	r3, [r7, #20]
 314:C:/Users/dtjld/Desktop/AIoT_software/LiteOS_Lab_overseas/LiteOS_Lab/iot_link/network/lwm2m/wakaama_lwm2m/core\objects.c ****     int size = 0;
 1025              		.loc 1 314 0
 1026 0012 0023     		movs	r3, #0
 1027 0014 3B61     		str	r3, [r7, #16]
 315:C:/Users/dtjld/Desktop/AIoT_software/LiteOS_Lab_overseas/LiteOS_Lab/iot_link/network/lwm2m/wakaama_lwm2m/core\objects.c ****     int res;
 316:C:/Users/dtjld/Desktop/AIoT_software/LiteOS_Lab_overseas/LiteOS_Lab/iot_link/network/lwm2m/wakaama_lwm2m/core\objects.c **** 
 317:C:/Users/dtjld/Desktop/AIoT_software/LiteOS_Lab_overseas/LiteOS_Lab/iot_link/network/lwm2m/wakaama_lwm2m/core\objects.c ****     LOG_URI(uriP);
 1028              		.loc 1 317 0
 1029 0016 BB68     		ldr	r3, [r7, #8]
 1030 0018 002B     		cmp	r3, #0
 1031 001a 06D1     		bne	.L70
 1032              		.loc 1 317 0 is_stmt 0 discriminator 1
 1033 001c 40F23D12 		movw	r2, #317
 1034 0020 3749     		ldr	r1, .L77
 1035 0022 3848     		ldr	r0, .L77+4
 1036 0024 FFF7FEFF 		bl	atiny_printf
 1037 0028 22E0     		b	.L71
 1038              	.L70:
 1039              		.loc 1 317 0 discriminator 2
 1040 002a BB68     		ldr	r3, [r7, #8]
ARM GAS  C:\Users\dtjld\AppData\Local\Temp\cclRRs7D.s 			page 25


 1041 002c 5B88     		ldrh	r3, [r3, #2]
 1042 002e 40F23D12 		movw	r2, #317
 1043 0032 3349     		ldr	r1, .L77
 1044 0034 3448     		ldr	r0, .L77+8
 1045 0036 FFF7FEFF 		bl	atiny_printf
 1046 003a BB68     		ldr	r3, [r7, #8]
 1047 003c 1B78     		ldrb	r3, [r3]	@ zero_extendqisi2
 1048 003e 03F00203 		and	r3, r3, #2
 1049 0042 002B     		cmp	r3, #0
 1050 0044 05D0     		beq	.L72
 1051              		.loc 1 317 0 discriminator 3
 1052 0046 BB68     		ldr	r3, [r7, #8]
 1053 0048 9B88     		ldrh	r3, [r3, #4]
 1054 004a 1946     		mov	r1, r3
 1055 004c 2F48     		ldr	r0, .L77+12
 1056 004e FFF7FEFF 		bl	atiny_printf
 1057              	.L72:
 1058              		.loc 1 317 0 discriminator 5
 1059 0052 BB68     		ldr	r3, [r7, #8]
 1060 0054 1B78     		ldrb	r3, [r3]	@ zero_extendqisi2
 1061 0056 03F00103 		and	r3, r3, #1
 1062 005a 002B     		cmp	r3, #0
 1063 005c 05D0     		beq	.L73
 1064              		.loc 1 317 0 discriminator 6
 1065 005e BB68     		ldr	r3, [r7, #8]
 1066 0060 DB88     		ldrh	r3, [r3, #6]
 1067 0062 1946     		mov	r1, r3
 1068 0064 2948     		ldr	r0, .L77+12
 1069 0066 FFF7FEFF 		bl	atiny_printf
 1070              	.L73:
 1071              		.loc 1 317 0 discriminator 8
 1072 006a 2948     		ldr	r0, .L77+16
 1073 006c FFF7FEFF 		bl	atiny_printf
 1074              	.L71:
 318:C:/Users/dtjld/Desktop/AIoT_software/LiteOS_Lab_overseas/LiteOS_Lab/iot_link/network/lwm2m/wakaama_lwm2m/core\objects.c ****     result = object_readData(contextP, uriP, &size, &dataP, NULL, serverId);
 1075              		.loc 1 318 0 is_stmt 1
 1076 0070 07F11401 		add	r1, r7, #20
 1077 0074 07F11002 		add	r2, r7, #16
 1078 0078 BB8E     		ldrh	r3, [r7, #52]
 1079 007a 0193     		str	r3, [sp, #4]
 1080 007c 0023     		movs	r3, #0
 1081 007e 0093     		str	r3, [sp]
 1082 0080 0B46     		mov	r3, r1
 1083 0082 B968     		ldr	r1, [r7, #8]
 1084 0084 F868     		ldr	r0, [r7, #12]
 1085 0086 FFF7FEFF 		bl	object_readData
 1086 008a 0346     		mov	r3, r0
 1087 008c FB77     		strb	r3, [r7, #31]
 319:C:/Users/dtjld/Desktop/AIoT_software/LiteOS_Lab_overseas/LiteOS_Lab/iot_link/network/lwm2m/wakaama_lwm2m/core\objects.c **** 
 320:C:/Users/dtjld/Desktop/AIoT_software/LiteOS_Lab_overseas/LiteOS_Lab/iot_link/network/lwm2m/wakaama_lwm2m/core\objects.c ****     if (result == COAP_205_CONTENT)
 1088              		.loc 1 320 0
 1089 008e FB7F     		ldrb	r3, [r7, #31]	@ zero_extendqisi2
 1090 0090 452B     		cmp	r3, #69
 1091 0092 11D1     		bne	.L74
 321:C:/Users/dtjld/Desktop/AIoT_software/LiteOS_Lab_overseas/LiteOS_Lab/iot_link/network/lwm2m/wakaama_lwm2m/core\objects.c ****     {
 322:C:/Users/dtjld/Desktop/AIoT_software/LiteOS_Lab_overseas/LiteOS_Lab/iot_link/network/lwm2m/wakaama_lwm2m/core\objects.c ****         res = lwm2m_data_serialize(uriP, size, dataP, formatP, bufferP);
 1092              		.loc 1 322 0
ARM GAS  C:\Users\dtjld\AppData\Local\Temp\cclRRs7D.s 			page 26


 1093 0094 3969     		ldr	r1, [r7, #16]
 1094 0096 7A69     		ldr	r2, [r7, #20]
 1095 0098 3B68     		ldr	r3, [r7]
 1096 009a 0093     		str	r3, [sp]
 1097 009c 7B68     		ldr	r3, [r7, #4]
 1098 009e B868     		ldr	r0, [r7, #8]
 1099 00a0 FFF7FEFF 		bl	lwm2m_data_serialize
 1100 00a4 B861     		str	r0, [r7, #24]
 323:C:/Users/dtjld/Desktop/AIoT_software/LiteOS_Lab_overseas/LiteOS_Lab/iot_link/network/lwm2m/wakaama_lwm2m/core\objects.c ****         if (res < 0)
 1101              		.loc 1 323 0
 1102 00a6 BB69     		ldr	r3, [r7, #24]
 1103 00a8 002B     		cmp	r3, #0
 1104 00aa 02DA     		bge	.L75
 324:C:/Users/dtjld/Desktop/AIoT_software/LiteOS_Lab_overseas/LiteOS_Lab/iot_link/network/lwm2m/wakaama_lwm2m/core\objects.c ****         {
 325:C:/Users/dtjld/Desktop/AIoT_software/LiteOS_Lab_overseas/LiteOS_Lab/iot_link/network/lwm2m/wakaama_lwm2m/core\objects.c ****             result = COAP_500_INTERNAL_SERVER_ERROR;
 1105              		.loc 1 325 0
 1106 00ac A023     		movs	r3, #160
 1107 00ae FB77     		strb	r3, [r7, #31]
 1108 00b0 02E0     		b	.L74
 1109              	.L75:
 326:C:/Users/dtjld/Desktop/AIoT_software/LiteOS_Lab_overseas/LiteOS_Lab/iot_link/network/lwm2m/wakaama_lwm2m/core\objects.c ****         }
 327:C:/Users/dtjld/Desktop/AIoT_software/LiteOS_Lab_overseas/LiteOS_Lab/iot_link/network/lwm2m/wakaama_lwm2m/core\objects.c ****         else
 328:C:/Users/dtjld/Desktop/AIoT_software/LiteOS_Lab_overseas/LiteOS_Lab/iot_link/network/lwm2m/wakaama_lwm2m/core\objects.c ****         {
 329:C:/Users/dtjld/Desktop/AIoT_software/LiteOS_Lab_overseas/LiteOS_Lab/iot_link/network/lwm2m/wakaama_lwm2m/core\objects.c ****             *lengthP = (size_t)res;
 1110              		.loc 1 329 0
 1111 00b2 BA69     		ldr	r2, [r7, #24]
 1112 00b4 3B6B     		ldr	r3, [r7, #48]
 1113 00b6 1A60     		str	r2, [r3]
 1114              	.L74:
 330:C:/Users/dtjld/Desktop/AIoT_software/LiteOS_Lab_overseas/LiteOS_Lab/iot_link/network/lwm2m/wakaama_lwm2m/core\objects.c ****         }
 331:C:/Users/dtjld/Desktop/AIoT_software/LiteOS_Lab_overseas/LiteOS_Lab/iot_link/network/lwm2m/wakaama_lwm2m/core\objects.c ****     }
 332:C:/Users/dtjld/Desktop/AIoT_software/LiteOS_Lab_overseas/LiteOS_Lab/iot_link/network/lwm2m/wakaama_lwm2m/core\objects.c ****     lwm2m_data_free(size, dataP);
 1115              		.loc 1 332 0
 1116 00b8 3B69     		ldr	r3, [r7, #16]
 1117 00ba 7A69     		ldr	r2, [r7, #20]
 1118 00bc 1146     		mov	r1, r2
 1119 00be 1846     		mov	r0, r3
 1120 00c0 FFF7FEFF 		bl	lwm2m_data_free
 333:C:/Users/dtjld/Desktop/AIoT_software/LiteOS_Lab_overseas/LiteOS_Lab/iot_link/network/lwm2m/wakaama_lwm2m/core\objects.c **** 
 334:C:/Users/dtjld/Desktop/AIoT_software/LiteOS_Lab_overseas/LiteOS_Lab/iot_link/network/lwm2m/wakaama_lwm2m/core\objects.c ****     LOG_ARG("result: %u.%2u, length: %d", (result & 0xFF) >> 5, (result & 0x1F), *lengthP);
 1121              		.loc 1 334 0
 1122 00c4 FFF7FEFF 		bl	lwm2m_gettime
 1123 00c8 0346     		mov	r3, r0
 1124 00ca 0C46     		mov	r4, r1
 1125 00cc 1846     		mov	r0, r3
 1126 00ce FB7F     		ldrb	r3, [r7, #31]	@ zero_extendqisi2
 1127 00d0 5B09     		lsrs	r3, r3, #5
 1128 00d2 DBB2     		uxtb	r3, r3
 1129 00d4 1946     		mov	r1, r3
 1130 00d6 FB7F     		ldrb	r3, [r7, #31]	@ zero_extendqisi2
 1131 00d8 03F01F03 		and	r3, r3, #31
 1132 00dc 3A6B     		ldr	r2, [r7, #48]
 1133 00de 1268     		ldr	r2, [r2]
 1134 00e0 0292     		str	r2, [sp, #8]
 1135 00e2 0193     		str	r3, [sp, #4]
 1136 00e4 0091     		str	r1, [sp]
 1137 00e6 4FF4A773 		mov	r3, #334
ARM GAS  C:\Users\dtjld\AppData\Local\Temp\cclRRs7D.s 			page 27


 1138 00ea 054A     		ldr	r2, .L77
 1139 00ec 0146     		mov	r1, r0
 1140 00ee 0948     		ldr	r0, .L77+20
 1141 00f0 FFF7FEFF 		bl	atiny_printf
 335:C:/Users/dtjld/Desktop/AIoT_software/LiteOS_Lab_overseas/LiteOS_Lab/iot_link/network/lwm2m/wakaama_lwm2m/core\objects.c **** 
 336:C:/Users/dtjld/Desktop/AIoT_software/LiteOS_Lab_overseas/LiteOS_Lab/iot_link/network/lwm2m/wakaama_lwm2m/core\objects.c ****     return result;
 1142              		.loc 1 336 0
 1143 00f4 FB7F     		ldrb	r3, [r7, #31]	@ zero_extendqisi2
 337:C:/Users/dtjld/Desktop/AIoT_software/LiteOS_Lab_overseas/LiteOS_Lab/iot_link/network/lwm2m/wakaama_lwm2m/core\objects.c **** }
 1144              		.loc 1 337 0
 1145 00f6 1846     		mov	r0, r3
 1146 00f8 2437     		adds	r7, r7, #36
 1147              	.LCFI23:
 1148              		.cfi_def_cfa_offset 12
 1149 00fa BD46     		mov	sp, r7
 1150              	.LCFI24:
 1151              		.cfi_def_cfa_register 13
 1152              		@ sp needed
 1153 00fc 90BD     		pop	{r4, r7, pc}
 1154              	.L78:
 1155 00fe 00BF     		.align	2
 1156              	.L77:
 1157 0100 00000000 		.word	__func__.8892
 1158 0104 00000000 		.word	.LC0
 1159 0108 10000000 		.word	.LC1
 1160 010c 1C000000 		.word	.LC2
 1161 0110 20000000 		.word	.LC3
 1162 0114 4C000000 		.word	.LC5
 1163              		.cfi_endproc
 1164              	.LFE16:
 1166              		.section	.rodata
 1167 0075 000000   		.align	2
 1168              	.LC6:
 1169 0078 5B25645D 		.ascii	"[%d][%s:%d] result: %u.%2u\015\012\000"
 1169      5B25733A 
 1169      25645D20 
 1169      72657375 
 1169      6C743A20 
 1170              		.section	.text.object_write,"ax",%progbits
 1171              		.align	1
 1172              		.global	object_write
 1173              		.syntax unified
 1174              		.thumb
 1175              		.thumb_func
 1176              		.fpu fpv4-sp-d16
 1178              	object_write:
 1179              	.LFB17:
 338:C:/Users/dtjld/Desktop/AIoT_software/LiteOS_Lab_overseas/LiteOS_Lab/iot_link/network/lwm2m/wakaama_lwm2m/core\objects.c **** 
 339:C:/Users/dtjld/Desktop/AIoT_software/LiteOS_Lab_overseas/LiteOS_Lab/iot_link/network/lwm2m/wakaama_lwm2m/core\objects.c **** uint8_t object_write(lwm2m_context_t *contextP,
 340:C:/Users/dtjld/Desktop/AIoT_software/LiteOS_Lab_overseas/LiteOS_Lab/iot_link/network/lwm2m/wakaama_lwm2m/core\objects.c ****                      lwm2m_uri_t *uriP,
 341:C:/Users/dtjld/Desktop/AIoT_software/LiteOS_Lab_overseas/LiteOS_Lab/iot_link/network/lwm2m/wakaama_lwm2m/core\objects.c ****                      lwm2m_media_type_t format,
 342:C:/Users/dtjld/Desktop/AIoT_software/LiteOS_Lab_overseas/LiteOS_Lab/iot_link/network/lwm2m/wakaama_lwm2m/core\objects.c ****                      uint8_t *buffer,
 343:C:/Users/dtjld/Desktop/AIoT_software/LiteOS_Lab_overseas/LiteOS_Lab/iot_link/network/lwm2m/wakaama_lwm2m/core\objects.c ****                      size_t length)
 344:C:/Users/dtjld/Desktop/AIoT_software/LiteOS_Lab_overseas/LiteOS_Lab/iot_link/network/lwm2m/wakaama_lwm2m/core\objects.c **** {
 1180              		.loc 1 344 0
 1181              		.cfi_startproc
 1182              		@ args = 4, pretend = 0, frame = 32
ARM GAS  C:\Users\dtjld\AppData\Local\Temp\cclRRs7D.s 			page 28


 1183              		@ frame_needed = 1, uses_anonymous_args = 0
 1184 0000 90B5     		push	{r4, r7, lr}
 1185              	.LCFI25:
 1186              		.cfi_def_cfa_offset 12
 1187              		.cfi_offset 4, -12
 1188              		.cfi_offset 7, -8
 1189              		.cfi_offset 14, -4
 1190 0002 8BB0     		sub	sp, sp, #44
 1191              	.LCFI26:
 1192              		.cfi_def_cfa_offset 56
 1193 0004 02AF     		add	r7, sp, #8
 1194              	.LCFI27:
 1195              		.cfi_def_cfa 7, 48
 1196 0006 F860     		str	r0, [r7, #12]
 1197 0008 B960     		str	r1, [r7, #8]
 1198 000a 3B60     		str	r3, [r7]
 1199 000c 1346     		mov	r3, r2	@ movhi
 1200 000e FB80     		strh	r3, [r7, #6]	@ movhi
 345:C:/Users/dtjld/Desktop/AIoT_software/LiteOS_Lab_overseas/LiteOS_Lab/iot_link/network/lwm2m/wakaama_lwm2m/core\objects.c ****     uint8_t result = NO_ERROR;
 1201              		.loc 1 345 0
 1202 0010 0023     		movs	r3, #0
 1203 0012 FB77     		strb	r3, [r7, #31]
 346:C:/Users/dtjld/Desktop/AIoT_software/LiteOS_Lab_overseas/LiteOS_Lab/iot_link/network/lwm2m/wakaama_lwm2m/core\objects.c ****     lwm2m_object_t *targetP;
 347:C:/Users/dtjld/Desktop/AIoT_software/LiteOS_Lab_overseas/LiteOS_Lab/iot_link/network/lwm2m/wakaama_lwm2m/core\objects.c ****     lwm2m_data_t *dataP = NULL;
 1204              		.loc 1 347 0
 1205 0014 0023     		movs	r3, #0
 1206 0016 3B61     		str	r3, [r7, #16]
 348:C:/Users/dtjld/Desktop/AIoT_software/LiteOS_Lab_overseas/LiteOS_Lab/iot_link/network/lwm2m/wakaama_lwm2m/core\objects.c ****     int size = 0;
 1207              		.loc 1 348 0
 1208 0018 0023     		movs	r3, #0
 1209 001a BB61     		str	r3, [r7, #24]
 349:C:/Users/dtjld/Desktop/AIoT_software/LiteOS_Lab_overseas/LiteOS_Lab/iot_link/network/lwm2m/wakaama_lwm2m/core\objects.c **** 
 350:C:/Users/dtjld/Desktop/AIoT_software/LiteOS_Lab_overseas/LiteOS_Lab/iot_link/network/lwm2m/wakaama_lwm2m/core\objects.c ****     LOG_URI(uriP);
 1210              		.loc 1 350 0
 1211 001c BB68     		ldr	r3, [r7, #8]
 1212 001e 002B     		cmp	r3, #0
 1213 0020 06D1     		bne	.L80
 1214              		.loc 1 350 0 is_stmt 0 discriminator 1
 1215 0022 4FF4AF72 		mov	r2, #350
 1216 0026 3C49     		ldr	r1, .L89
 1217 0028 3C48     		ldr	r0, .L89+4
 1218 002a FFF7FEFF 		bl	atiny_printf
 1219 002e 22E0     		b	.L81
 1220              	.L80:
 1221              		.loc 1 350 0 discriminator 2
 1222 0030 BB68     		ldr	r3, [r7, #8]
 1223 0032 5B88     		ldrh	r3, [r3, #2]
 1224 0034 4FF4AF72 		mov	r2, #350
 1225 0038 3749     		ldr	r1, .L89
 1226 003a 3948     		ldr	r0, .L89+8
 1227 003c FFF7FEFF 		bl	atiny_printf
 1228 0040 BB68     		ldr	r3, [r7, #8]
 1229 0042 1B78     		ldrb	r3, [r3]	@ zero_extendqisi2
 1230 0044 03F00203 		and	r3, r3, #2
 1231 0048 002B     		cmp	r3, #0
 1232 004a 05D0     		beq	.L82
 1233              		.loc 1 350 0 discriminator 3
ARM GAS  C:\Users\dtjld\AppData\Local\Temp\cclRRs7D.s 			page 29


 1234 004c BB68     		ldr	r3, [r7, #8]
 1235 004e 9B88     		ldrh	r3, [r3, #4]
 1236 0050 1946     		mov	r1, r3
 1237 0052 3448     		ldr	r0, .L89+12
 1238 0054 FFF7FEFF 		bl	atiny_printf
 1239              	.L82:
 1240              		.loc 1 350 0 discriminator 5
 1241 0058 BB68     		ldr	r3, [r7, #8]
 1242 005a 1B78     		ldrb	r3, [r3]	@ zero_extendqisi2
 1243 005c 03F00103 		and	r3, r3, #1
 1244 0060 002B     		cmp	r3, #0
 1245 0062 05D0     		beq	.L83
 1246              		.loc 1 350 0 discriminator 6
 1247 0064 BB68     		ldr	r3, [r7, #8]
 1248 0066 DB88     		ldrh	r3, [r3, #6]
 1249 0068 1946     		mov	r1, r3
 1250 006a 2E48     		ldr	r0, .L89+12
 1251 006c FFF7FEFF 		bl	atiny_printf
 1252              	.L83:
 1253              		.loc 1 350 0 discriminator 8
 1254 0070 2D48     		ldr	r0, .L89+16
 1255 0072 FFF7FEFF 		bl	atiny_printf
 1256              	.L81:
 351:C:/Users/dtjld/Desktop/AIoT_software/LiteOS_Lab_overseas/LiteOS_Lab/iot_link/network/lwm2m/wakaama_lwm2m/core\objects.c ****     targetP = (lwm2m_object_t *)LWM2M_LIST_FIND(contextP->objectList, uriP->objectId);
 1257              		.loc 1 351 0 is_stmt 1
 1258 0076 FB68     		ldr	r3, [r7, #12]
 1259 0078 9A69     		ldr	r2, [r3, #24]
 1260 007a BB68     		ldr	r3, [r7, #8]
 1261 007c 5B88     		ldrh	r3, [r3, #2]
 1262 007e 1946     		mov	r1, r3
 1263 0080 1046     		mov	r0, r2
 1264 0082 FFF7FEFF 		bl	lwm2m_list_find
 1265 0086 7861     		str	r0, [r7, #20]
 352:C:/Users/dtjld/Desktop/AIoT_software/LiteOS_Lab_overseas/LiteOS_Lab/iot_link/network/lwm2m/wakaama_lwm2m/core\objects.c ****     if (NULL == targetP)
 1266              		.loc 1 352 0
 1267 0088 7B69     		ldr	r3, [r7, #20]
 1268 008a 002B     		cmp	r3, #0
 1269 008c 02D1     		bne	.L84
 353:C:/Users/dtjld/Desktop/AIoT_software/LiteOS_Lab_overseas/LiteOS_Lab/iot_link/network/lwm2m/wakaama_lwm2m/core\objects.c ****     {
 354:C:/Users/dtjld/Desktop/AIoT_software/LiteOS_Lab_overseas/LiteOS_Lab/iot_link/network/lwm2m/wakaama_lwm2m/core\objects.c ****         result = COAP_404_NOT_FOUND;
 1270              		.loc 1 354 0
 1271 008e 8423     		movs	r3, #132
 1272 0090 FB77     		strb	r3, [r7, #31]
 1273 0092 16E0     		b	.L85
 1274              	.L84:
 355:C:/Users/dtjld/Desktop/AIoT_software/LiteOS_Lab_overseas/LiteOS_Lab/iot_link/network/lwm2m/wakaama_lwm2m/core\objects.c ****     }
 356:C:/Users/dtjld/Desktop/AIoT_software/LiteOS_Lab_overseas/LiteOS_Lab/iot_link/network/lwm2m/wakaama_lwm2m/core\objects.c ****     else if (NULL == targetP->writeFunc)
 1275              		.loc 1 356 0
 1276 0094 7B69     		ldr	r3, [r7, #20]
 1277 0096 1B69     		ldr	r3, [r3, #16]
 1278 0098 002B     		cmp	r3, #0
 1279 009a 02D1     		bne	.L86
 357:C:/Users/dtjld/Desktop/AIoT_software/LiteOS_Lab_overseas/LiteOS_Lab/iot_link/network/lwm2m/wakaama_lwm2m/core\objects.c ****     {
 358:C:/Users/dtjld/Desktop/AIoT_software/LiteOS_Lab_overseas/LiteOS_Lab/iot_link/network/lwm2m/wakaama_lwm2m/core\objects.c ****         result = COAP_405_METHOD_NOT_ALLOWED;
 1280              		.loc 1 358 0
 1281 009c 8523     		movs	r3, #133
 1282 009e FB77     		strb	r3, [r7, #31]
ARM GAS  C:\Users\dtjld\AppData\Local\Temp\cclRRs7D.s 			page 30


 1283 00a0 0FE0     		b	.L85
 1284              	.L86:
 359:C:/Users/dtjld/Desktop/AIoT_software/LiteOS_Lab_overseas/LiteOS_Lab/iot_link/network/lwm2m/wakaama_lwm2m/core\objects.c ****     }
 360:C:/Users/dtjld/Desktop/AIoT_software/LiteOS_Lab_overseas/LiteOS_Lab/iot_link/network/lwm2m/wakaama_lwm2m/core\objects.c ****     else
 361:C:/Users/dtjld/Desktop/AIoT_software/LiteOS_Lab_overseas/LiteOS_Lab/iot_link/network/lwm2m/wakaama_lwm2m/core\objects.c ****     {
 362:C:/Users/dtjld/Desktop/AIoT_software/LiteOS_Lab_overseas/LiteOS_Lab/iot_link/network/lwm2m/wakaama_lwm2m/core\objects.c ****         size = lwm2m_data_parse(uriP, buffer, length, format, &dataP);
 1285              		.loc 1 362 0
 1286 00a2 FA88     		ldrh	r2, [r7, #6]
 1287 00a4 07F11003 		add	r3, r7, #16
 1288 00a8 0093     		str	r3, [sp]
 1289 00aa 1346     		mov	r3, r2
 1290 00ac 3A6B     		ldr	r2, [r7, #48]
 1291 00ae 3968     		ldr	r1, [r7]
 1292 00b0 B868     		ldr	r0, [r7, #8]
 1293 00b2 FFF7FEFF 		bl	lwm2m_data_parse
 1294 00b6 B861     		str	r0, [r7, #24]
 363:C:/Users/dtjld/Desktop/AIoT_software/LiteOS_Lab_overseas/LiteOS_Lab/iot_link/network/lwm2m/wakaama_lwm2m/core\objects.c ****         if (size == 0)
 1295              		.loc 1 363 0
 1296 00b8 BB69     		ldr	r3, [r7, #24]
 1297 00ba 002B     		cmp	r3, #0
 1298 00bc 01D1     		bne	.L85
 364:C:/Users/dtjld/Desktop/AIoT_software/LiteOS_Lab_overseas/LiteOS_Lab/iot_link/network/lwm2m/wakaama_lwm2m/core\objects.c ****         {
 365:C:/Users/dtjld/Desktop/AIoT_software/LiteOS_Lab_overseas/LiteOS_Lab/iot_link/network/lwm2m/wakaama_lwm2m/core\objects.c ****             result = COAP_406_NOT_ACCEPTABLE;
 1299              		.loc 1 365 0
 1300 00be 8623     		movs	r3, #134
 1301 00c0 FB77     		strb	r3, [r7, #31]
 1302              	.L85:
 366:C:/Users/dtjld/Desktop/AIoT_software/LiteOS_Lab_overseas/LiteOS_Lab/iot_link/network/lwm2m/wakaama_lwm2m/core\objects.c ****         }
 367:C:/Users/dtjld/Desktop/AIoT_software/LiteOS_Lab_overseas/LiteOS_Lab/iot_link/network/lwm2m/wakaama_lwm2m/core\objects.c ****     }
 368:C:/Users/dtjld/Desktop/AIoT_software/LiteOS_Lab_overseas/LiteOS_Lab/iot_link/network/lwm2m/wakaama_lwm2m/core\objects.c ****     if (result == NO_ERROR)
 1303              		.loc 1 368 0
 1304 00c2 FB7F     		ldrb	r3, [r7, #31]	@ zero_extendqisi2
 1305 00c4 002B     		cmp	r3, #0
 1306 00c6 0ED1     		bne	.L87
 369:C:/Users/dtjld/Desktop/AIoT_software/LiteOS_Lab_overseas/LiteOS_Lab/iot_link/network/lwm2m/wakaama_lwm2m/core\objects.c ****     {
 370:C:/Users/dtjld/Desktop/AIoT_software/LiteOS_Lab_overseas/LiteOS_Lab/iot_link/network/lwm2m/wakaama_lwm2m/core\objects.c ****         result = targetP->writeFunc(uriP->instanceId, size, dataP, targetP);
 1307              		.loc 1 370 0
 1308 00c8 7B69     		ldr	r3, [r7, #20]
 1309 00ca 1C69     		ldr	r4, [r3, #16]
 1310 00cc BB68     		ldr	r3, [r7, #8]
 1311 00ce 9888     		ldrh	r0, [r3, #4]
 1312 00d0 3A69     		ldr	r2, [r7, #16]
 1313 00d2 7B69     		ldr	r3, [r7, #20]
 1314 00d4 B969     		ldr	r1, [r7, #24]
 1315 00d6 A047     		blx	r4
 1316              	.LVL4:
 1317 00d8 0346     		mov	r3, r0
 1318 00da FB77     		strb	r3, [r7, #31]
 371:C:/Users/dtjld/Desktop/AIoT_software/LiteOS_Lab_overseas/LiteOS_Lab/iot_link/network/lwm2m/wakaama_lwm2m/core\objects.c ****         lwm2m_data_free(size, dataP);
 1319              		.loc 1 371 0
 1320 00dc 3B69     		ldr	r3, [r7, #16]
 1321 00de 1946     		mov	r1, r3
 1322 00e0 B869     		ldr	r0, [r7, #24]
 1323 00e2 FFF7FEFF 		bl	lwm2m_data_free
 1324              	.L87:
 372:C:/Users/dtjld/Desktop/AIoT_software/LiteOS_Lab_overseas/LiteOS_Lab/iot_link/network/lwm2m/wakaama_lwm2m/core\objects.c ****     }
 373:C:/Users/dtjld/Desktop/AIoT_software/LiteOS_Lab_overseas/LiteOS_Lab/iot_link/network/lwm2m/wakaama_lwm2m/core\objects.c **** 
ARM GAS  C:\Users\dtjld\AppData\Local\Temp\cclRRs7D.s 			page 31


 374:C:/Users/dtjld/Desktop/AIoT_software/LiteOS_Lab_overseas/LiteOS_Lab/iot_link/network/lwm2m/wakaama_lwm2m/core\objects.c ****     LOG_ARG("result: %u.%2u", (result & 0xFF) >> 5, (result & 0x1F));
 1325              		.loc 1 374 0
 1326 00e6 FFF7FEFF 		bl	lwm2m_gettime
 1327 00ea 0346     		mov	r3, r0
 1328 00ec 0C46     		mov	r4, r1
 1329 00ee 1946     		mov	r1, r3
 1330 00f0 FB7F     		ldrb	r3, [r7, #31]	@ zero_extendqisi2
 1331 00f2 5B09     		lsrs	r3, r3, #5
 1332 00f4 DBB2     		uxtb	r3, r3
 1333 00f6 1A46     		mov	r2, r3
 1334 00f8 FB7F     		ldrb	r3, [r7, #31]	@ zero_extendqisi2
 1335 00fa 03F01F03 		and	r3, r3, #31
 1336 00fe 0193     		str	r3, [sp, #4]
 1337 0100 0092     		str	r2, [sp]
 1338 0102 4FF4BB73 		mov	r3, #374
 1339 0106 044A     		ldr	r2, .L89
 1340 0108 0848     		ldr	r0, .L89+20
 1341 010a FFF7FEFF 		bl	atiny_printf
 375:C:/Users/dtjld/Desktop/AIoT_software/LiteOS_Lab_overseas/LiteOS_Lab/iot_link/network/lwm2m/wakaama_lwm2m/core\objects.c **** 
 376:C:/Users/dtjld/Desktop/AIoT_software/LiteOS_Lab_overseas/LiteOS_Lab/iot_link/network/lwm2m/wakaama_lwm2m/core\objects.c ****     return result;
 1342              		.loc 1 376 0
 1343 010e FB7F     		ldrb	r3, [r7, #31]	@ zero_extendqisi2
 377:C:/Users/dtjld/Desktop/AIoT_software/LiteOS_Lab_overseas/LiteOS_Lab/iot_link/network/lwm2m/wakaama_lwm2m/core\objects.c **** }
 1344              		.loc 1 377 0
 1345 0110 1846     		mov	r0, r3
 1346 0112 2437     		adds	r7, r7, #36
 1347              	.LCFI28:
 1348              		.cfi_def_cfa_offset 12
 1349 0114 BD46     		mov	sp, r7
 1350              	.LCFI29:
 1351              		.cfi_def_cfa_register 13
 1352              		@ sp needed
 1353 0116 90BD     		pop	{r4, r7, pc}
 1354              	.L90:
 1355              		.align	2
 1356              	.L89:
 1357 0118 00000000 		.word	__func__.8904
 1358 011c 00000000 		.word	.LC0
 1359 0120 10000000 		.word	.LC1
 1360 0124 1C000000 		.word	.LC2
 1361 0128 20000000 		.word	.LC3
 1362 012c 78000000 		.word	.LC6
 1363              		.cfi_endproc
 1364              	.LFE17:
 1366              		.section	.text.object_execute,"ax",%progbits
 1367              		.align	1
 1368              		.global	object_execute
 1369              		.syntax unified
 1370              		.thumb
 1371              		.thumb_func
 1372              		.fpu fpv4-sp-d16
 1374              	object_execute:
 1375              	.LFB18:
 378:C:/Users/dtjld/Desktop/AIoT_software/LiteOS_Lab_overseas/LiteOS_Lab/iot_link/network/lwm2m/wakaama_lwm2m/core\objects.c **** 
 379:C:/Users/dtjld/Desktop/AIoT_software/LiteOS_Lab_overseas/LiteOS_Lab/iot_link/network/lwm2m/wakaama_lwm2m/core\objects.c **** uint8_t object_execute(lwm2m_context_t *contextP,
 380:C:/Users/dtjld/Desktop/AIoT_software/LiteOS_Lab_overseas/LiteOS_Lab/iot_link/network/lwm2m/wakaama_lwm2m/core\objects.c ****                        lwm2m_uri_t *uriP,
 381:C:/Users/dtjld/Desktop/AIoT_software/LiteOS_Lab_overseas/LiteOS_Lab/iot_link/network/lwm2m/wakaama_lwm2m/core\objects.c ****                        uint8_t *buffer,
ARM GAS  C:\Users\dtjld\AppData\Local\Temp\cclRRs7D.s 			page 32


 382:C:/Users/dtjld/Desktop/AIoT_software/LiteOS_Lab_overseas/LiteOS_Lab/iot_link/network/lwm2m/wakaama_lwm2m/core\objects.c ****                        size_t length)
 383:C:/Users/dtjld/Desktop/AIoT_software/LiteOS_Lab_overseas/LiteOS_Lab/iot_link/network/lwm2m/wakaama_lwm2m/core\objects.c **** {
 1376              		.loc 1 383 0
 1377              		.cfi_startproc
 1378              		@ args = 0, pretend = 0, frame = 24
 1379              		@ frame_needed = 1, uses_anonymous_args = 0
 1380 0000 90B5     		push	{r4, r7, lr}
 1381              	.LCFI30:
 1382              		.cfi_def_cfa_offset 12
 1383              		.cfi_offset 4, -12
 1384              		.cfi_offset 7, -8
 1385              		.cfi_offset 14, -4
 1386 0002 89B0     		sub	sp, sp, #36
 1387              	.LCFI31:
 1388              		.cfi_def_cfa_offset 48
 1389 0004 02AF     		add	r7, sp, #8
 1390              	.LCFI32:
 1391              		.cfi_def_cfa 7, 40
 1392 0006 F860     		str	r0, [r7, #12]
 1393 0008 B960     		str	r1, [r7, #8]
 1394 000a 7A60     		str	r2, [r7, #4]
 1395 000c 3B60     		str	r3, [r7]
 384:C:/Users/dtjld/Desktop/AIoT_software/LiteOS_Lab_overseas/LiteOS_Lab/iot_link/network/lwm2m/wakaama_lwm2m/core\objects.c ****     lwm2m_object_t *targetP;
 385:C:/Users/dtjld/Desktop/AIoT_software/LiteOS_Lab_overseas/LiteOS_Lab/iot_link/network/lwm2m/wakaama_lwm2m/core\objects.c **** 
 386:C:/Users/dtjld/Desktop/AIoT_software/LiteOS_Lab_overseas/LiteOS_Lab/iot_link/network/lwm2m/wakaama_lwm2m/core\objects.c ****     LOG_URI(uriP);
 1396              		.loc 1 386 0
 1397 000e BB68     		ldr	r3, [r7, #8]
 1398 0010 002B     		cmp	r3, #0
 1399 0012 06D1     		bne	.L92
 1400              		.loc 1 386 0 is_stmt 0 discriminator 1
 1401 0014 4FF4C172 		mov	r2, #386
 1402 0018 2C49     		ldr	r1, .L100
 1403 001a 2D48     		ldr	r0, .L100+4
 1404 001c FFF7FEFF 		bl	atiny_printf
 1405 0020 22E0     		b	.L93
 1406              	.L92:
 1407              		.loc 1 386 0 discriminator 2
 1408 0022 BB68     		ldr	r3, [r7, #8]
 1409 0024 5B88     		ldrh	r3, [r3, #2]
 1410 0026 4FF4C172 		mov	r2, #386
 1411 002a 2849     		ldr	r1, .L100
 1412 002c 2948     		ldr	r0, .L100+8
 1413 002e FFF7FEFF 		bl	atiny_printf
 1414 0032 BB68     		ldr	r3, [r7, #8]
 1415 0034 1B78     		ldrb	r3, [r3]	@ zero_extendqisi2
 1416 0036 03F00203 		and	r3, r3, #2
 1417 003a 002B     		cmp	r3, #0
 1418 003c 05D0     		beq	.L94
 1419              		.loc 1 386 0 discriminator 3
 1420 003e BB68     		ldr	r3, [r7, #8]
 1421 0040 9B88     		ldrh	r3, [r3, #4]
 1422 0042 1946     		mov	r1, r3
 1423 0044 2448     		ldr	r0, .L100+12
 1424 0046 FFF7FEFF 		bl	atiny_printf
 1425              	.L94:
 1426              		.loc 1 386 0 discriminator 5
 1427 004a BB68     		ldr	r3, [r7, #8]
ARM GAS  C:\Users\dtjld\AppData\Local\Temp\cclRRs7D.s 			page 33


 1428 004c 1B78     		ldrb	r3, [r3]	@ zero_extendqisi2
 1429 004e 03F00103 		and	r3, r3, #1
 1430 0052 002B     		cmp	r3, #0
 1431 0054 05D0     		beq	.L95
 1432              		.loc 1 386 0 discriminator 6
 1433 0056 BB68     		ldr	r3, [r7, #8]
 1434 0058 DB88     		ldrh	r3, [r3, #6]
 1435 005a 1946     		mov	r1, r3
 1436 005c 1E48     		ldr	r0, .L100+12
 1437 005e FFF7FEFF 		bl	atiny_printf
 1438              	.L95:
 1439              		.loc 1 386 0 discriminator 8
 1440 0062 1E48     		ldr	r0, .L100+16
 1441 0064 FFF7FEFF 		bl	atiny_printf
 1442              	.L93:
 387:C:/Users/dtjld/Desktop/AIoT_software/LiteOS_Lab_overseas/LiteOS_Lab/iot_link/network/lwm2m/wakaama_lwm2m/core\objects.c ****     targetP = (lwm2m_object_t *)LWM2M_LIST_FIND(contextP->objectList, uriP->objectId);
 1443              		.loc 1 387 0 is_stmt 1
 1444 0068 FB68     		ldr	r3, [r7, #12]
 1445 006a 9A69     		ldr	r2, [r3, #24]
 1446 006c BB68     		ldr	r3, [r7, #8]
 1447 006e 5B88     		ldrh	r3, [r3, #2]
 1448 0070 1946     		mov	r1, r3
 1449 0072 1046     		mov	r0, r2
 1450 0074 FFF7FEFF 		bl	lwm2m_list_find
 1451 0078 7861     		str	r0, [r7, #20]
 388:C:/Users/dtjld/Desktop/AIoT_software/LiteOS_Lab_overseas/LiteOS_Lab/iot_link/network/lwm2m/wakaama_lwm2m/core\objects.c ****     if (NULL == targetP) return COAP_404_NOT_FOUND;
 1452              		.loc 1 388 0
 1453 007a 7B69     		ldr	r3, [r7, #20]
 1454 007c 002B     		cmp	r3, #0
 1455 007e 01D1     		bne	.L96
 1456              		.loc 1 388 0 is_stmt 0 discriminator 1
 1457 0080 8423     		movs	r3, #132
 1458 0082 1FE0     		b	.L97
 1459              	.L96:
 389:C:/Users/dtjld/Desktop/AIoT_software/LiteOS_Lab_overseas/LiteOS_Lab/iot_link/network/lwm2m/wakaama_lwm2m/core\objects.c ****     if (NULL == targetP->executeFunc) return COAP_405_METHOD_NOT_ALLOWED;
 1460              		.loc 1 389 0 is_stmt 1
 1461 0084 7B69     		ldr	r3, [r7, #20]
 1462 0086 5B69     		ldr	r3, [r3, #20]
 1463 0088 002B     		cmp	r3, #0
 1464 008a 01D1     		bne	.L98
 1465              		.loc 1 389 0 is_stmt 0 discriminator 1
 1466 008c 8523     		movs	r3, #133
 1467 008e 19E0     		b	.L97
 1468              	.L98:
 390:C:/Users/dtjld/Desktop/AIoT_software/LiteOS_Lab_overseas/LiteOS_Lab/iot_link/network/lwm2m/wakaama_lwm2m/core\objects.c ****     if (NULL == lwm2m_list_find(targetP->instanceList, uriP->instanceId)) return COAP_404_NOT_FOUND
 1469              		.loc 1 390 0 is_stmt 1
 1470 0090 7B69     		ldr	r3, [r7, #20]
 1471 0092 9A68     		ldr	r2, [r3, #8]
 1472 0094 BB68     		ldr	r3, [r7, #8]
 1473 0096 9B88     		ldrh	r3, [r3, #4]
 1474 0098 1946     		mov	r1, r3
 1475 009a 1046     		mov	r0, r2
 1476 009c FFF7FEFF 		bl	lwm2m_list_find
 1477 00a0 0346     		mov	r3, r0
 1478 00a2 002B     		cmp	r3, #0
 1479 00a4 01D1     		bne	.L99
 1480              		.loc 1 390 0 is_stmt 0 discriminator 1
ARM GAS  C:\Users\dtjld\AppData\Local\Temp\cclRRs7D.s 			page 34


 1481 00a6 8423     		movs	r3, #132
 1482 00a8 0CE0     		b	.L97
 1483              	.L99:
 391:C:/Users/dtjld/Desktop/AIoT_software/LiteOS_Lab_overseas/LiteOS_Lab/iot_link/network/lwm2m/wakaama_lwm2m/core\objects.c **** 
 392:C:/Users/dtjld/Desktop/AIoT_software/LiteOS_Lab_overseas/LiteOS_Lab/iot_link/network/lwm2m/wakaama_lwm2m/core\objects.c ****     return targetP->executeFunc(uriP->instanceId, uriP->resourceId, buffer, length, targetP);
 1484              		.loc 1 392 0 is_stmt 1
 1485 00aa 7B69     		ldr	r3, [r7, #20]
 1486 00ac 5C69     		ldr	r4, [r3, #20]
 1487 00ae BB68     		ldr	r3, [r7, #8]
 1488 00b0 9888     		ldrh	r0, [r3, #4]
 1489 00b2 BB68     		ldr	r3, [r7, #8]
 1490 00b4 D988     		ldrh	r1, [r3, #6]
 1491 00b6 3A68     		ldr	r2, [r7]
 1492 00b8 7B69     		ldr	r3, [r7, #20]
 1493 00ba 0093     		str	r3, [sp]
 1494 00bc 1346     		mov	r3, r2
 1495 00be 7A68     		ldr	r2, [r7, #4]
 1496 00c0 A047     		blx	r4
 1497              	.LVL5:
 1498 00c2 0346     		mov	r3, r0
 1499              	.L97:
 393:C:/Users/dtjld/Desktop/AIoT_software/LiteOS_Lab_overseas/LiteOS_Lab/iot_link/network/lwm2m/wakaama_lwm2m/core\objects.c **** }
 1500              		.loc 1 393 0
 1501 00c4 1846     		mov	r0, r3
 1502 00c6 1C37     		adds	r7, r7, #28
 1503              	.LCFI33:
 1504              		.cfi_def_cfa_offset 12
 1505 00c8 BD46     		mov	sp, r7
 1506              	.LCFI34:
 1507              		.cfi_def_cfa_register 13
 1508              		@ sp needed
 1509 00ca 90BD     		pop	{r4, r7, pc}
 1510              	.L101:
 1511              		.align	2
 1512              	.L100:
 1513 00cc 00000000 		.word	__func__.8912
 1514 00d0 00000000 		.word	.LC0
 1515 00d4 10000000 		.word	.LC1
 1516 00d8 1C000000 		.word	.LC2
 1517 00dc 20000000 		.word	.LC3
 1518              		.cfi_endproc
 1519              	.LFE18:
 1521              		.section	.text.object_create,"ax",%progbits
 1522              		.align	1
 1523              		.global	object_create
 1524              		.syntax unified
 1525              		.thumb
 1526              		.thumb_func
 1527              		.fpu fpv4-sp-d16
 1529              	object_create:
 1530              	.LFB19:
 394:C:/Users/dtjld/Desktop/AIoT_software/LiteOS_Lab_overseas/LiteOS_Lab/iot_link/network/lwm2m/wakaama_lwm2m/core\objects.c **** 
 395:C:/Users/dtjld/Desktop/AIoT_software/LiteOS_Lab_overseas/LiteOS_Lab/iot_link/network/lwm2m/wakaama_lwm2m/core\objects.c **** uint8_t object_create(lwm2m_context_t *contextP,
 396:C:/Users/dtjld/Desktop/AIoT_software/LiteOS_Lab_overseas/LiteOS_Lab/iot_link/network/lwm2m/wakaama_lwm2m/core\objects.c ****                       lwm2m_uri_t *uriP,
 397:C:/Users/dtjld/Desktop/AIoT_software/LiteOS_Lab_overseas/LiteOS_Lab/iot_link/network/lwm2m/wakaama_lwm2m/core\objects.c ****                       lwm2m_media_type_t format,
 398:C:/Users/dtjld/Desktop/AIoT_software/LiteOS_Lab_overseas/LiteOS_Lab/iot_link/network/lwm2m/wakaama_lwm2m/core\objects.c ****                       uint8_t *buffer,
 399:C:/Users/dtjld/Desktop/AIoT_software/LiteOS_Lab_overseas/LiteOS_Lab/iot_link/network/lwm2m/wakaama_lwm2m/core\objects.c ****                       size_t length)
ARM GAS  C:\Users\dtjld\AppData\Local\Temp\cclRRs7D.s 			page 35


 400:C:/Users/dtjld/Desktop/AIoT_software/LiteOS_Lab_overseas/LiteOS_Lab/iot_link/network/lwm2m/wakaama_lwm2m/core\objects.c **** {
 1531              		.loc 1 400 0
 1532              		.cfi_startproc
 1533              		@ args = 4, pretend = 0, frame = 32
 1534              		@ frame_needed = 1, uses_anonymous_args = 0
 1535 0000 90B5     		push	{r4, r7, lr}
 1536              	.LCFI35:
 1537              		.cfi_def_cfa_offset 12
 1538              		.cfi_offset 4, -12
 1539              		.cfi_offset 7, -8
 1540              		.cfi_offset 14, -4
 1541 0002 8BB0     		sub	sp, sp, #44
 1542              	.LCFI36:
 1543              		.cfi_def_cfa_offset 56
 1544 0004 02AF     		add	r7, sp, #8
 1545              	.LCFI37:
 1546              		.cfi_def_cfa 7, 48
 1547 0006 F860     		str	r0, [r7, #12]
 1548 0008 B960     		str	r1, [r7, #8]
 1549 000a 3B60     		str	r3, [r7]
 1550 000c 1346     		mov	r3, r2	@ movhi
 1551 000e FB80     		strh	r3, [r7, #6]	@ movhi
 401:C:/Users/dtjld/Desktop/AIoT_software/LiteOS_Lab_overseas/LiteOS_Lab/iot_link/network/lwm2m/wakaama_lwm2m/core\objects.c ****     lwm2m_object_t *targetP;
 402:C:/Users/dtjld/Desktop/AIoT_software/LiteOS_Lab_overseas/LiteOS_Lab/iot_link/network/lwm2m/wakaama_lwm2m/core\objects.c ****     lwm2m_data_t *dataP = NULL;
 1552              		.loc 1 402 0
 1553 0010 0023     		movs	r3, #0
 1554 0012 3B61     		str	r3, [r7, #16]
 403:C:/Users/dtjld/Desktop/AIoT_software/LiteOS_Lab_overseas/LiteOS_Lab/iot_link/network/lwm2m/wakaama_lwm2m/core\objects.c ****     int size = 0;
 1555              		.loc 1 403 0
 1556 0014 0023     		movs	r3, #0
 1557 0016 BB61     		str	r3, [r7, #24]
 404:C:/Users/dtjld/Desktop/AIoT_software/LiteOS_Lab_overseas/LiteOS_Lab/iot_link/network/lwm2m/wakaama_lwm2m/core\objects.c ****     uint8_t result;
 405:C:/Users/dtjld/Desktop/AIoT_software/LiteOS_Lab_overseas/LiteOS_Lab/iot_link/network/lwm2m/wakaama_lwm2m/core\objects.c **** 
 406:C:/Users/dtjld/Desktop/AIoT_software/LiteOS_Lab_overseas/LiteOS_Lab/iot_link/network/lwm2m/wakaama_lwm2m/core\objects.c ****     LOG_URI(uriP);
 1558              		.loc 1 406 0
 1559 0018 BB68     		ldr	r3, [r7, #8]
 1560 001a 002B     		cmp	r3, #0
 1561 001c 06D1     		bne	.L103
 1562              		.loc 1 406 0 is_stmt 0 discriminator 1
 1563 001e 4FF4CB72 		mov	r2, #406
 1564 0022 6549     		ldr	r1, .L122
 1565 0024 6548     		ldr	r0, .L122+4
 1566 0026 FFF7FEFF 		bl	atiny_printf
 1567 002a 22E0     		b	.L104
 1568              	.L103:
 1569              		.loc 1 406 0 discriminator 2
 1570 002c BB68     		ldr	r3, [r7, #8]
 1571 002e 5B88     		ldrh	r3, [r3, #2]
 1572 0030 4FF4CB72 		mov	r2, #406
 1573 0034 6049     		ldr	r1, .L122
 1574 0036 6248     		ldr	r0, .L122+8
 1575 0038 FFF7FEFF 		bl	atiny_printf
 1576 003c BB68     		ldr	r3, [r7, #8]
 1577 003e 1B78     		ldrb	r3, [r3]	@ zero_extendqisi2
 1578 0040 03F00203 		and	r3, r3, #2
 1579 0044 002B     		cmp	r3, #0
 1580 0046 05D0     		beq	.L105
ARM GAS  C:\Users\dtjld\AppData\Local\Temp\cclRRs7D.s 			page 36


 1581              		.loc 1 406 0 discriminator 3
 1582 0048 BB68     		ldr	r3, [r7, #8]
 1583 004a 9B88     		ldrh	r3, [r3, #4]
 1584 004c 1946     		mov	r1, r3
 1585 004e 5D48     		ldr	r0, .L122+12
 1586 0050 FFF7FEFF 		bl	atiny_printf
 1587              	.L105:
 1588              		.loc 1 406 0 discriminator 5
 1589 0054 BB68     		ldr	r3, [r7, #8]
 1590 0056 1B78     		ldrb	r3, [r3]	@ zero_extendqisi2
 1591 0058 03F00103 		and	r3, r3, #1
 1592 005c 002B     		cmp	r3, #0
 1593 005e 05D0     		beq	.L106
 1594              		.loc 1 406 0 discriminator 6
 1595 0060 BB68     		ldr	r3, [r7, #8]
 1596 0062 DB88     		ldrh	r3, [r3, #6]
 1597 0064 1946     		mov	r1, r3
 1598 0066 5748     		ldr	r0, .L122+12
 1599 0068 FFF7FEFF 		bl	atiny_printf
 1600              	.L106:
 1601              		.loc 1 406 0 discriminator 8
 1602 006c 5648     		ldr	r0, .L122+16
 1603 006e FFF7FEFF 		bl	atiny_printf
 1604              	.L104:
 407:C:/Users/dtjld/Desktop/AIoT_software/LiteOS_Lab_overseas/LiteOS_Lab/iot_link/network/lwm2m/wakaama_lwm2m/core\objects.c **** 
 408:C:/Users/dtjld/Desktop/AIoT_software/LiteOS_Lab_overseas/LiteOS_Lab/iot_link/network/lwm2m/wakaama_lwm2m/core\objects.c ****     if (length == 0 || buffer == 0)
 1605              		.loc 1 408 0 is_stmt 1
 1606 0072 3B6B     		ldr	r3, [r7, #48]
 1607 0074 002B     		cmp	r3, #0
 1608 0076 02D0     		beq	.L107
 1609              		.loc 1 408 0 is_stmt 0 discriminator 1
 1610 0078 3B68     		ldr	r3, [r7]
 1611 007a 002B     		cmp	r3, #0
 1612 007c 01D1     		bne	.L108
 1613              	.L107:
 409:C:/Users/dtjld/Desktop/AIoT_software/LiteOS_Lab_overseas/LiteOS_Lab/iot_link/network/lwm2m/wakaama_lwm2m/core\objects.c ****     {
 410:C:/Users/dtjld/Desktop/AIoT_software/LiteOS_Lab_overseas/LiteOS_Lab/iot_link/network/lwm2m/wakaama_lwm2m/core\objects.c ****         return COAP_400_BAD_REQUEST;
 1614              		.loc 1 410 0 is_stmt 1
 1615 007e 8023     		movs	r3, #128
 1616 0080 95E0     		b	.L120
 1617              	.L108:
 411:C:/Users/dtjld/Desktop/AIoT_software/LiteOS_Lab_overseas/LiteOS_Lab/iot_link/network/lwm2m/wakaama_lwm2m/core\objects.c ****     }
 412:C:/Users/dtjld/Desktop/AIoT_software/LiteOS_Lab_overseas/LiteOS_Lab/iot_link/network/lwm2m/wakaama_lwm2m/core\objects.c **** 
 413:C:/Users/dtjld/Desktop/AIoT_software/LiteOS_Lab_overseas/LiteOS_Lab/iot_link/network/lwm2m/wakaama_lwm2m/core\objects.c ****     targetP = (lwm2m_object_t *)LWM2M_LIST_FIND(contextP->objectList, uriP->objectId);
 1618              		.loc 1 413 0
 1619 0082 FB68     		ldr	r3, [r7, #12]
 1620 0084 9A69     		ldr	r2, [r3, #24]
 1621 0086 BB68     		ldr	r3, [r7, #8]
 1622 0088 5B88     		ldrh	r3, [r3, #2]
 1623 008a 1946     		mov	r1, r3
 1624 008c 1046     		mov	r0, r2
 1625 008e FFF7FEFF 		bl	lwm2m_list_find
 1626 0092 7861     		str	r0, [r7, #20]
 414:C:/Users/dtjld/Desktop/AIoT_software/LiteOS_Lab_overseas/LiteOS_Lab/iot_link/network/lwm2m/wakaama_lwm2m/core\objects.c ****     if (NULL == targetP) return COAP_404_NOT_FOUND;
 1627              		.loc 1 414 0
 1628 0094 7B69     		ldr	r3, [r7, #20]
 1629 0096 002B     		cmp	r3, #0
ARM GAS  C:\Users\dtjld\AppData\Local\Temp\cclRRs7D.s 			page 37


 1630 0098 01D1     		bne	.L110
 1631              		.loc 1 414 0 is_stmt 0 discriminator 1
 1632 009a 8423     		movs	r3, #132
 1633 009c 87E0     		b	.L120
 1634              	.L110:
 415:C:/Users/dtjld/Desktop/AIoT_software/LiteOS_Lab_overseas/LiteOS_Lab/iot_link/network/lwm2m/wakaama_lwm2m/core\objects.c ****     if (NULL == targetP->createFunc) return COAP_405_METHOD_NOT_ALLOWED;
 1635              		.loc 1 415 0 is_stmt 1
 1636 009e 7B69     		ldr	r3, [r7, #20]
 1637 00a0 DB69     		ldr	r3, [r3, #28]
 1638 00a2 002B     		cmp	r3, #0
 1639 00a4 01D1     		bne	.L111
 1640              		.loc 1 415 0 is_stmt 0 discriminator 1
 1641 00a6 8523     		movs	r3, #133
 1642 00a8 81E0     		b	.L120
 1643              	.L111:
 416:C:/Users/dtjld/Desktop/AIoT_software/LiteOS_Lab_overseas/LiteOS_Lab/iot_link/network/lwm2m/wakaama_lwm2m/core\objects.c **** 
 417:C:/Users/dtjld/Desktop/AIoT_software/LiteOS_Lab_overseas/LiteOS_Lab/iot_link/network/lwm2m/wakaama_lwm2m/core\objects.c ****     size = lwm2m_data_parse(uriP, buffer, length, format, &dataP);
 1644              		.loc 1 417 0 is_stmt 1
 1645 00aa FA88     		ldrh	r2, [r7, #6]
 1646 00ac 07F11003 		add	r3, r7, #16
 1647 00b0 0093     		str	r3, [sp]
 1648 00b2 1346     		mov	r3, r2
 1649 00b4 3A6B     		ldr	r2, [r7, #48]
 1650 00b6 3968     		ldr	r1, [r7]
 1651 00b8 B868     		ldr	r0, [r7, #8]
 1652 00ba FFF7FEFF 		bl	lwm2m_data_parse
 1653 00be B861     		str	r0, [r7, #24]
 418:C:/Users/dtjld/Desktop/AIoT_software/LiteOS_Lab_overseas/LiteOS_Lab/iot_link/network/lwm2m/wakaama_lwm2m/core\objects.c ****     if (size <= 0) return COAP_400_BAD_REQUEST;
 1654              		.loc 1 418 0
 1655 00c0 BB69     		ldr	r3, [r7, #24]
 1656 00c2 002B     		cmp	r3, #0
 1657 00c4 01DC     		bgt	.L112
 1658              		.loc 1 418 0 is_stmt 0 discriminator 1
 1659 00c6 8023     		movs	r3, #128
 1660 00c8 71E0     		b	.L120
 1661              	.L112:
 419:C:/Users/dtjld/Desktop/AIoT_software/LiteOS_Lab_overseas/LiteOS_Lab/iot_link/network/lwm2m/wakaama_lwm2m/core\objects.c **** 
 420:C:/Users/dtjld/Desktop/AIoT_software/LiteOS_Lab_overseas/LiteOS_Lab/iot_link/network/lwm2m/wakaama_lwm2m/core\objects.c ****     switch (dataP[0].type)
 1662              		.loc 1 420 0 is_stmt 1
 1663 00ca 3B69     		ldr	r3, [r7, #16]
 1664 00cc 1B78     		ldrb	r3, [r3]	@ zero_extendqisi2
 1665 00ce 012B     		cmp	r3, #1
 1666 00d0 02D0     		beq	.L114
 1667 00d2 022B     		cmp	r3, #2
 1668 00d4 03D0     		beq	.L115
 1669 00d6 2FE0     		b	.L121
 1670              	.L114:
 421:C:/Users/dtjld/Desktop/AIoT_software/LiteOS_Lab_overseas/LiteOS_Lab/iot_link/network/lwm2m/wakaama_lwm2m/core\objects.c ****     {
 422:C:/Users/dtjld/Desktop/AIoT_software/LiteOS_Lab_overseas/LiteOS_Lab/iot_link/network/lwm2m/wakaama_lwm2m/core\objects.c ****     case LWM2M_TYPE_OBJECT:
 423:C:/Users/dtjld/Desktop/AIoT_software/LiteOS_Lab_overseas/LiteOS_Lab/iot_link/network/lwm2m/wakaama_lwm2m/core\objects.c ****         result = COAP_400_BAD_REQUEST;
 1671              		.loc 1 423 0
 1672 00d8 8023     		movs	r3, #128
 1673 00da FB77     		strb	r3, [r7, #31]
 424:C:/Users/dtjld/Desktop/AIoT_software/LiteOS_Lab_overseas/LiteOS_Lab/iot_link/network/lwm2m/wakaama_lwm2m/core\objects.c ****         goto exit;
 1674              		.loc 1 424 0
 1675 00dc 4DE0     		b	.L116
 1676              	.L115:
ARM GAS  C:\Users\dtjld\AppData\Local\Temp\cclRRs7D.s 			page 38


 425:C:/Users/dtjld/Desktop/AIoT_software/LiteOS_Lab_overseas/LiteOS_Lab/iot_link/network/lwm2m/wakaama_lwm2m/core\objects.c **** 
 426:C:/Users/dtjld/Desktop/AIoT_software/LiteOS_Lab_overseas/LiteOS_Lab/iot_link/network/lwm2m/wakaama_lwm2m/core\objects.c ****     case LWM2M_TYPE_OBJECT_INSTANCE:
 427:C:/Users/dtjld/Desktop/AIoT_software/LiteOS_Lab_overseas/LiteOS_Lab/iot_link/network/lwm2m/wakaama_lwm2m/core\objects.c ****         if (size != 1)
 1677              		.loc 1 427 0
 1678 00de BB69     		ldr	r3, [r7, #24]
 1679 00e0 012B     		cmp	r3, #1
 1680 00e2 02D0     		beq	.L117
 428:C:/Users/dtjld/Desktop/AIoT_software/LiteOS_Lab_overseas/LiteOS_Lab/iot_link/network/lwm2m/wakaama_lwm2m/core\objects.c ****         {
 429:C:/Users/dtjld/Desktop/AIoT_software/LiteOS_Lab_overseas/LiteOS_Lab/iot_link/network/lwm2m/wakaama_lwm2m/core\objects.c ****             result = COAP_400_BAD_REQUEST;
 1681              		.loc 1 429 0
 1682 00e4 8023     		movs	r3, #128
 1683 00e6 FB77     		strb	r3, [r7, #31]
 430:C:/Users/dtjld/Desktop/AIoT_software/LiteOS_Lab_overseas/LiteOS_Lab/iot_link/network/lwm2m/wakaama_lwm2m/core\objects.c ****             goto exit;
 1684              		.loc 1 430 0
 1685 00e8 47E0     		b	.L116
 1686              	.L117:
 431:C:/Users/dtjld/Desktop/AIoT_software/LiteOS_Lab_overseas/LiteOS_Lab/iot_link/network/lwm2m/wakaama_lwm2m/core\objects.c ****         }
 432:C:/Users/dtjld/Desktop/AIoT_software/LiteOS_Lab_overseas/LiteOS_Lab/iot_link/network/lwm2m/wakaama_lwm2m/core\objects.c ****         if (NULL != lwm2m_list_find(targetP->instanceList, dataP[0].id))
 1687              		.loc 1 432 0
 1688 00ea 7B69     		ldr	r3, [r7, #20]
 1689 00ec 9A68     		ldr	r2, [r3, #8]
 1690 00ee 3B69     		ldr	r3, [r7, #16]
 1691 00f0 5B88     		ldrh	r3, [r3, #2]
 1692 00f2 1946     		mov	r1, r3
 1693 00f4 1046     		mov	r0, r2
 1694 00f6 FFF7FEFF 		bl	lwm2m_list_find
 1695 00fa 0346     		mov	r3, r0
 1696 00fc 002B     		cmp	r3, #0
 1697 00fe 02D0     		beq	.L118
 433:C:/Users/dtjld/Desktop/AIoT_software/LiteOS_Lab_overseas/LiteOS_Lab/iot_link/network/lwm2m/wakaama_lwm2m/core\objects.c ****         {
 434:C:/Users/dtjld/Desktop/AIoT_software/LiteOS_Lab_overseas/LiteOS_Lab/iot_link/network/lwm2m/wakaama_lwm2m/core\objects.c ****             // Instance already exists
 435:C:/Users/dtjld/Desktop/AIoT_software/LiteOS_Lab_overseas/LiteOS_Lab/iot_link/network/lwm2m/wakaama_lwm2m/core\objects.c ****             result = COAP_406_NOT_ACCEPTABLE;
 1698              		.loc 1 435 0
 1699 0100 8623     		movs	r3, #134
 1700 0102 FB77     		strb	r3, [r7, #31]
 436:C:/Users/dtjld/Desktop/AIoT_software/LiteOS_Lab_overseas/LiteOS_Lab/iot_link/network/lwm2m/wakaama_lwm2m/core\objects.c ****             goto exit;
 1701              		.loc 1 436 0
 1702 0104 39E0     		b	.L116
 1703              	.L118:
 437:C:/Users/dtjld/Desktop/AIoT_software/LiteOS_Lab_overseas/LiteOS_Lab/iot_link/network/lwm2m/wakaama_lwm2m/core\objects.c ****         }
 438:C:/Users/dtjld/Desktop/AIoT_software/LiteOS_Lab_overseas/LiteOS_Lab/iot_link/network/lwm2m/wakaama_lwm2m/core\objects.c ****         result = targetP->createFunc(dataP[0].id, dataP[0].value.asChildren.count, dataP[0].value.a
 1704              		.loc 1 438 0
 1705 0106 7B69     		ldr	r3, [r7, #20]
 1706 0108 DC69     		ldr	r4, [r3, #28]
 1707 010a 3B69     		ldr	r3, [r7, #16]
 1708 010c 5888     		ldrh	r0, [r3, #2]
 1709 010e 3B69     		ldr	r3, [r7, #16]
 1710 0110 9B68     		ldr	r3, [r3, #8]
 1711 0112 1946     		mov	r1, r3
 1712 0114 3B69     		ldr	r3, [r7, #16]
 1713 0116 DA68     		ldr	r2, [r3, #12]
 1714 0118 7B69     		ldr	r3, [r7, #20]
 1715 011a A047     		blx	r4
 1716              	.LVL6:
 1717 011c 0346     		mov	r3, r0
 1718 011e FB77     		strb	r3, [r7, #31]
 439:C:/Users/dtjld/Desktop/AIoT_software/LiteOS_Lab_overseas/LiteOS_Lab/iot_link/network/lwm2m/wakaama_lwm2m/core\objects.c ****         uriP->instanceId = dataP[0].id;
ARM GAS  C:\Users\dtjld\AppData\Local\Temp\cclRRs7D.s 			page 39


 1719              		.loc 1 439 0
 1720 0120 3B69     		ldr	r3, [r7, #16]
 1721 0122 5A88     		ldrh	r2, [r3, #2]
 1722 0124 BB68     		ldr	r3, [r7, #8]
 1723 0126 9A80     		strh	r2, [r3, #4]	@ movhi
 440:C:/Users/dtjld/Desktop/AIoT_software/LiteOS_Lab_overseas/LiteOS_Lab/iot_link/network/lwm2m/wakaama_lwm2m/core\objects.c ****         uriP->flag |= LWM2M_URI_FLAG_INSTANCE_ID;
 1724              		.loc 1 440 0
 1725 0128 BB68     		ldr	r3, [r7, #8]
 1726 012a 1B78     		ldrb	r3, [r3]	@ zero_extendqisi2
 1727 012c 43F00203 		orr	r3, r3, #2
 1728 0130 DAB2     		uxtb	r2, r3
 1729 0132 BB68     		ldr	r3, [r7, #8]
 1730 0134 1A70     		strb	r2, [r3]
 441:C:/Users/dtjld/Desktop/AIoT_software/LiteOS_Lab_overseas/LiteOS_Lab/iot_link/network/lwm2m/wakaama_lwm2m/core\objects.c ****         break;
 1731              		.loc 1 441 0
 1732 0136 20E0     		b	.L116
 1733              	.L121:
 442:C:/Users/dtjld/Desktop/AIoT_software/LiteOS_Lab_overseas/LiteOS_Lab/iot_link/network/lwm2m/wakaama_lwm2m/core\objects.c **** 
 443:C:/Users/dtjld/Desktop/AIoT_software/LiteOS_Lab_overseas/LiteOS_Lab/iot_link/network/lwm2m/wakaama_lwm2m/core\objects.c ****     default:
 444:C:/Users/dtjld/Desktop/AIoT_software/LiteOS_Lab_overseas/LiteOS_Lab/iot_link/network/lwm2m/wakaama_lwm2m/core\objects.c ****         if (!LWM2M_URI_IS_SET_INSTANCE(uriP))
 1734              		.loc 1 444 0
 1735 0138 BB68     		ldr	r3, [r7, #8]
 1736 013a 1B78     		ldrb	r3, [r3]	@ zero_extendqisi2
 1737 013c 03F00203 		and	r3, r3, #2
 1738 0140 002B     		cmp	r3, #0
 1739 0142 0FD1     		bne	.L119
 445:C:/Users/dtjld/Desktop/AIoT_software/LiteOS_Lab_overseas/LiteOS_Lab/iot_link/network/lwm2m/wakaama_lwm2m/core\objects.c ****         {
 446:C:/Users/dtjld/Desktop/AIoT_software/LiteOS_Lab_overseas/LiteOS_Lab/iot_link/network/lwm2m/wakaama_lwm2m/core\objects.c ****             uriP->instanceId = lwm2m_list_newId(targetP->instanceList);
 1740              		.loc 1 446 0
 1741 0144 7B69     		ldr	r3, [r7, #20]
 1742 0146 9B68     		ldr	r3, [r3, #8]
 1743 0148 1846     		mov	r0, r3
 1744 014a FFF7FEFF 		bl	lwm2m_list_newId
 1745 014e 0346     		mov	r3, r0
 1746 0150 1A46     		mov	r2, r3
 1747 0152 BB68     		ldr	r3, [r7, #8]
 1748 0154 9A80     		strh	r2, [r3, #4]	@ movhi
 447:C:/Users/dtjld/Desktop/AIoT_software/LiteOS_Lab_overseas/LiteOS_Lab/iot_link/network/lwm2m/wakaama_lwm2m/core\objects.c ****             uriP->flag |= LWM2M_URI_FLAG_INSTANCE_ID;
 1749              		.loc 1 447 0
 1750 0156 BB68     		ldr	r3, [r7, #8]
 1751 0158 1B78     		ldrb	r3, [r3]	@ zero_extendqisi2
 1752 015a 43F00203 		orr	r3, r3, #2
 1753 015e DAB2     		uxtb	r2, r3
 1754 0160 BB68     		ldr	r3, [r7, #8]
 1755 0162 1A70     		strb	r2, [r3]
 1756              	.L119:
 448:C:/Users/dtjld/Desktop/AIoT_software/LiteOS_Lab_overseas/LiteOS_Lab/iot_link/network/lwm2m/wakaama_lwm2m/core\objects.c ****         }
 449:C:/Users/dtjld/Desktop/AIoT_software/LiteOS_Lab_overseas/LiteOS_Lab/iot_link/network/lwm2m/wakaama_lwm2m/core\objects.c ****         result = targetP->createFunc(uriP->instanceId, size, dataP, targetP);
 1757              		.loc 1 449 0
 1758 0164 7B69     		ldr	r3, [r7, #20]
 1759 0166 DC69     		ldr	r4, [r3, #28]
 1760 0168 BB68     		ldr	r3, [r7, #8]
 1761 016a 9888     		ldrh	r0, [r3, #4]
 1762 016c 3A69     		ldr	r2, [r7, #16]
 1763 016e 7B69     		ldr	r3, [r7, #20]
 1764 0170 B969     		ldr	r1, [r7, #24]
 1765 0172 A047     		blx	r4
ARM GAS  C:\Users\dtjld\AppData\Local\Temp\cclRRs7D.s 			page 40


 1766              	.LVL7:
 1767 0174 0346     		mov	r3, r0
 1768 0176 FB77     		strb	r3, [r7, #31]
 450:C:/Users/dtjld/Desktop/AIoT_software/LiteOS_Lab_overseas/LiteOS_Lab/iot_link/network/lwm2m/wakaama_lwm2m/core\objects.c ****         break;
 1769              		.loc 1 450 0
 1770 0178 00BF     		nop
 1771              	.L116:
 451:C:/Users/dtjld/Desktop/AIoT_software/LiteOS_Lab_overseas/LiteOS_Lab/iot_link/network/lwm2m/wakaama_lwm2m/core\objects.c ****     }
 452:C:/Users/dtjld/Desktop/AIoT_software/LiteOS_Lab_overseas/LiteOS_Lab/iot_link/network/lwm2m/wakaama_lwm2m/core\objects.c **** 
 453:C:/Users/dtjld/Desktop/AIoT_software/LiteOS_Lab_overseas/LiteOS_Lab/iot_link/network/lwm2m/wakaama_lwm2m/core\objects.c **** exit:
 454:C:/Users/dtjld/Desktop/AIoT_software/LiteOS_Lab_overseas/LiteOS_Lab/iot_link/network/lwm2m/wakaama_lwm2m/core\objects.c ****     lwm2m_data_free(size, dataP);
 1772              		.loc 1 454 0
 1773 017a 3B69     		ldr	r3, [r7, #16]
 1774 017c 1946     		mov	r1, r3
 1775 017e B869     		ldr	r0, [r7, #24]
 1776 0180 FFF7FEFF 		bl	lwm2m_data_free
 455:C:/Users/dtjld/Desktop/AIoT_software/LiteOS_Lab_overseas/LiteOS_Lab/iot_link/network/lwm2m/wakaama_lwm2m/core\objects.c **** 
 456:C:/Users/dtjld/Desktop/AIoT_software/LiteOS_Lab_overseas/LiteOS_Lab/iot_link/network/lwm2m/wakaama_lwm2m/core\objects.c ****     LOG_ARG("result: %u.%2u", (result & 0xFF) >> 5, (result & 0x1F));
 1777              		.loc 1 456 0
 1778 0184 FFF7FEFF 		bl	lwm2m_gettime
 1779 0188 0346     		mov	r3, r0
 1780 018a 0C46     		mov	r4, r1
 1781 018c 1946     		mov	r1, r3
 1782 018e FB7F     		ldrb	r3, [r7, #31]	@ zero_extendqisi2
 1783 0190 5B09     		lsrs	r3, r3, #5
 1784 0192 DBB2     		uxtb	r3, r3
 1785 0194 1A46     		mov	r2, r3
 1786 0196 FB7F     		ldrb	r3, [r7, #31]	@ zero_extendqisi2
 1787 0198 03F01F03 		and	r3, r3, #31
 1788 019c 0193     		str	r3, [sp, #4]
 1789 019e 0092     		str	r2, [sp]
 1790 01a0 4FF4E473 		mov	r3, #456
 1791 01a4 044A     		ldr	r2, .L122
 1792 01a6 0948     		ldr	r0, .L122+20
 1793 01a8 FFF7FEFF 		bl	atiny_printf
 457:C:/Users/dtjld/Desktop/AIoT_software/LiteOS_Lab_overseas/LiteOS_Lab/iot_link/network/lwm2m/wakaama_lwm2m/core\objects.c **** 
 458:C:/Users/dtjld/Desktop/AIoT_software/LiteOS_Lab_overseas/LiteOS_Lab/iot_link/network/lwm2m/wakaama_lwm2m/core\objects.c ****     return result;
 1794              		.loc 1 458 0
 1795 01ac FB7F     		ldrb	r3, [r7, #31]	@ zero_extendqisi2
 1796              	.L120:
 459:C:/Users/dtjld/Desktop/AIoT_software/LiteOS_Lab_overseas/LiteOS_Lab/iot_link/network/lwm2m/wakaama_lwm2m/core\objects.c **** }
 1797              		.loc 1 459 0 discriminator 1
 1798 01ae 1846     		mov	r0, r3
 1799 01b0 2437     		adds	r7, r7, #36
 1800              	.LCFI38:
 1801              		.cfi_def_cfa_offset 12
 1802 01b2 BD46     		mov	sp, r7
 1803              	.LCFI39:
 1804              		.cfi_def_cfa_register 13
 1805              		@ sp needed
 1806 01b4 90BD     		pop	{r4, r7, pc}
 1807              	.L123:
 1808 01b6 00BF     		.align	2
 1809              	.L122:
 1810 01b8 00000000 		.word	__func__.8924
 1811 01bc 00000000 		.word	.LC0
 1812 01c0 10000000 		.word	.LC1
ARM GAS  C:\Users\dtjld\AppData\Local\Temp\cclRRs7D.s 			page 41


 1813 01c4 1C000000 		.word	.LC2
 1814 01c8 20000000 		.word	.LC3
 1815 01cc 78000000 		.word	.LC6
 1816              		.cfi_endproc
 1817              	.LFE19:
 1819              		.section	.rodata
 1820 0095 000000   		.align	2
 1821              	.LC7:
 1822 0098 5B25645D 		.ascii	"[%d][%s:%d] Entering\015\012\000"
 1822      5B25733A 
 1822      25645D20 
 1822      456E7465 
 1822      72696E67 
 1823              		.section	.text.object_delete,"ax",%progbits
 1824              		.align	1
 1825              		.global	object_delete
 1826              		.syntax unified
 1827              		.thumb
 1828              		.thumb_func
 1829              		.fpu fpv4-sp-d16
 1831              	object_delete:
 1832              	.LFB20:
 460:C:/Users/dtjld/Desktop/AIoT_software/LiteOS_Lab_overseas/LiteOS_Lab/iot_link/network/lwm2m/wakaama_lwm2m/core\objects.c **** 
 461:C:/Users/dtjld/Desktop/AIoT_software/LiteOS_Lab_overseas/LiteOS_Lab/iot_link/network/lwm2m/wakaama_lwm2m/core\objects.c **** uint8_t object_delete(lwm2m_context_t *contextP,
 462:C:/Users/dtjld/Desktop/AIoT_software/LiteOS_Lab_overseas/LiteOS_Lab/iot_link/network/lwm2m/wakaama_lwm2m/core\objects.c ****                       lwm2m_uri_t *uriP)
 463:C:/Users/dtjld/Desktop/AIoT_software/LiteOS_Lab_overseas/LiteOS_Lab/iot_link/network/lwm2m/wakaama_lwm2m/core\objects.c **** {
 1833              		.loc 1 463 0
 1834              		.cfi_startproc
 1835              		@ args = 0, pretend = 0, frame = 24
 1836              		@ frame_needed = 1, uses_anonymous_args = 0
 1837 0000 90B5     		push	{r4, r7, lr}
 1838              	.LCFI40:
 1839              		.cfi_def_cfa_offset 12
 1840              		.cfi_offset 4, -12
 1841              		.cfi_offset 7, -8
 1842              		.cfi_offset 14, -4
 1843 0002 89B0     		sub	sp, sp, #36
 1844              	.LCFI41:
 1845              		.cfi_def_cfa_offset 48
 1846 0004 02AF     		add	r7, sp, #8
 1847              	.LCFI42:
 1848              		.cfi_def_cfa 7, 40
 1849 0006 7860     		str	r0, [r7, #4]
 1850 0008 3960     		str	r1, [r7]
 464:C:/Users/dtjld/Desktop/AIoT_software/LiteOS_Lab_overseas/LiteOS_Lab/iot_link/network/lwm2m/wakaama_lwm2m/core\objects.c ****     lwm2m_object_t *objectP;
 465:C:/Users/dtjld/Desktop/AIoT_software/LiteOS_Lab_overseas/LiteOS_Lab/iot_link/network/lwm2m/wakaama_lwm2m/core\objects.c ****     uint8_t result;
 466:C:/Users/dtjld/Desktop/AIoT_software/LiteOS_Lab_overseas/LiteOS_Lab/iot_link/network/lwm2m/wakaama_lwm2m/core\objects.c **** 
 467:C:/Users/dtjld/Desktop/AIoT_software/LiteOS_Lab_overseas/LiteOS_Lab/iot_link/network/lwm2m/wakaama_lwm2m/core\objects.c ****     LOG_URI(uriP);
 1851              		.loc 1 467 0
 1852 000a 3B68     		ldr	r3, [r7]
 1853 000c 002B     		cmp	r3, #0
 1854 000e 06D1     		bne	.L125
 1855              		.loc 1 467 0 is_stmt 0 discriminator 1
 1856 0010 40F2D312 		movw	r2, #467
 1857 0014 5349     		ldr	r1, .L138
 1858 0016 5448     		ldr	r0, .L138+4
 1859 0018 FFF7FEFF 		bl	atiny_printf
ARM GAS  C:\Users\dtjld\AppData\Local\Temp\cclRRs7D.s 			page 42


 1860 001c 22E0     		b	.L126
 1861              	.L125:
 1862              		.loc 1 467 0 discriminator 2
 1863 001e 3B68     		ldr	r3, [r7]
 1864 0020 5B88     		ldrh	r3, [r3, #2]
 1865 0022 40F2D312 		movw	r2, #467
 1866 0026 4F49     		ldr	r1, .L138
 1867 0028 5048     		ldr	r0, .L138+8
 1868 002a FFF7FEFF 		bl	atiny_printf
 1869 002e 3B68     		ldr	r3, [r7]
 1870 0030 1B78     		ldrb	r3, [r3]	@ zero_extendqisi2
 1871 0032 03F00203 		and	r3, r3, #2
 1872 0036 002B     		cmp	r3, #0
 1873 0038 05D0     		beq	.L127
 1874              		.loc 1 467 0 discriminator 3
 1875 003a 3B68     		ldr	r3, [r7]
 1876 003c 9B88     		ldrh	r3, [r3, #4]
 1877 003e 1946     		mov	r1, r3
 1878 0040 4B48     		ldr	r0, .L138+12
 1879 0042 FFF7FEFF 		bl	atiny_printf
 1880              	.L127:
 1881              		.loc 1 467 0 discriminator 5
 1882 0046 3B68     		ldr	r3, [r7]
 1883 0048 1B78     		ldrb	r3, [r3]	@ zero_extendqisi2
 1884 004a 03F00103 		and	r3, r3, #1
 1885 004e 002B     		cmp	r3, #0
 1886 0050 05D0     		beq	.L128
 1887              		.loc 1 467 0 discriminator 6
 1888 0052 3B68     		ldr	r3, [r7]
 1889 0054 DB88     		ldrh	r3, [r3, #6]
 1890 0056 1946     		mov	r1, r3
 1891 0058 4548     		ldr	r0, .L138+12
 1892 005a FFF7FEFF 		bl	atiny_printf
 1893              	.L128:
 1894              		.loc 1 467 0 discriminator 8
 1895 005e 4548     		ldr	r0, .L138+16
 1896 0060 FFF7FEFF 		bl	atiny_printf
 1897              	.L126:
 468:C:/Users/dtjld/Desktop/AIoT_software/LiteOS_Lab_overseas/LiteOS_Lab/iot_link/network/lwm2m/wakaama_lwm2m/core\objects.c ****     objectP = (lwm2m_object_t *)LWM2M_LIST_FIND(contextP->objectList, uriP->objectId);
 1898              		.loc 1 468 0 is_stmt 1
 1899 0064 7B68     		ldr	r3, [r7, #4]
 1900 0066 9A69     		ldr	r2, [r3, #24]
 1901 0068 3B68     		ldr	r3, [r7]
 1902 006a 5B88     		ldrh	r3, [r3, #2]
 1903 006c 1946     		mov	r1, r3
 1904 006e 1046     		mov	r0, r2
 1905 0070 FFF7FEFF 		bl	lwm2m_list_find
 1906 0074 F860     		str	r0, [r7, #12]
 469:C:/Users/dtjld/Desktop/AIoT_software/LiteOS_Lab_overseas/LiteOS_Lab/iot_link/network/lwm2m/wakaama_lwm2m/core\objects.c ****     if (NULL == objectP) return COAP_404_NOT_FOUND;
 1907              		.loc 1 469 0
 1908 0076 FB68     		ldr	r3, [r7, #12]
 1909 0078 002B     		cmp	r3, #0
 1910 007a 01D1     		bne	.L129
 1911              		.loc 1 469 0 is_stmt 0 discriminator 1
 1912 007c 8423     		movs	r3, #132
 1913 007e 6DE0     		b	.L130
 1914              	.L129:
ARM GAS  C:\Users\dtjld\AppData\Local\Temp\cclRRs7D.s 			page 43


 470:C:/Users/dtjld/Desktop/AIoT_software/LiteOS_Lab_overseas/LiteOS_Lab/iot_link/network/lwm2m/wakaama_lwm2m/core\objects.c ****     if (NULL == objectP->deleteFunc) return COAP_405_METHOD_NOT_ALLOWED;
 1915              		.loc 1 470 0 is_stmt 1
 1916 0080 FB68     		ldr	r3, [r7, #12]
 1917 0082 1B6A     		ldr	r3, [r3, #32]
 1918 0084 002B     		cmp	r3, #0
 1919 0086 01D1     		bne	.L131
 1920              		.loc 1 470 0 is_stmt 0 discriminator 1
 1921 0088 8523     		movs	r3, #133
 1922 008a 67E0     		b	.L130
 1923              	.L131:
 471:C:/Users/dtjld/Desktop/AIoT_software/LiteOS_Lab_overseas/LiteOS_Lab/iot_link/network/lwm2m/wakaama_lwm2m/core\objects.c **** 
 472:C:/Users/dtjld/Desktop/AIoT_software/LiteOS_Lab_overseas/LiteOS_Lab/iot_link/network/lwm2m/wakaama_lwm2m/core\objects.c ****     LOG("Entering");
 1924              		.loc 1 472 0 is_stmt 1
 1925 008c FFF7FEFF 		bl	lwm2m_gettime
 1926 0090 0346     		mov	r3, r0
 1927 0092 0C46     		mov	r4, r1
 1928 0094 1946     		mov	r1, r3
 1929 0096 4FF4EC73 		mov	r3, #472
 1930 009a 324A     		ldr	r2, .L138
 1931 009c 3648     		ldr	r0, .L138+20
 1932 009e FFF7FEFF 		bl	atiny_printf
 473:C:/Users/dtjld/Desktop/AIoT_software/LiteOS_Lab_overseas/LiteOS_Lab/iot_link/network/lwm2m/wakaama_lwm2m/core\objects.c **** 
 474:C:/Users/dtjld/Desktop/AIoT_software/LiteOS_Lab_overseas/LiteOS_Lab/iot_link/network/lwm2m/wakaama_lwm2m/core\objects.c ****     if (LWM2M_URI_IS_SET_INSTANCE(uriP))
 1933              		.loc 1 474 0
 1934 00a2 3B68     		ldr	r3, [r7]
 1935 00a4 1B78     		ldrb	r3, [r3]	@ zero_extendqisi2
 1936 00a6 03F00203 		and	r3, r3, #2
 1937 00aa 002B     		cmp	r3, #0
 1938 00ac 10D0     		beq	.L132
 475:C:/Users/dtjld/Desktop/AIoT_software/LiteOS_Lab_overseas/LiteOS_Lab/iot_link/network/lwm2m/wakaama_lwm2m/core\objects.c ****     {
 476:C:/Users/dtjld/Desktop/AIoT_software/LiteOS_Lab_overseas/LiteOS_Lab/iot_link/network/lwm2m/wakaama_lwm2m/core\objects.c ****         result = objectP->deleteFunc(uriP->instanceId, objectP);
 1939              		.loc 1 476 0
 1940 00ae FB68     		ldr	r3, [r7, #12]
 1941 00b0 1B6A     		ldr	r3, [r3, #32]
 1942 00b2 3A68     		ldr	r2, [r7]
 1943 00b4 9288     		ldrh	r2, [r2, #4]
 1944 00b6 F968     		ldr	r1, [r7, #12]
 1945 00b8 1046     		mov	r0, r2
 1946 00ba 9847     		blx	r3
 1947              	.LVL8:
 1948 00bc 0346     		mov	r3, r0
 1949 00be FB75     		strb	r3, [r7, #23]
 477:C:/Users/dtjld/Desktop/AIoT_software/LiteOS_Lab_overseas/LiteOS_Lab/iot_link/network/lwm2m/wakaama_lwm2m/core\objects.c ****         if (result == COAP_202_DELETED)
 1950              		.loc 1 477 0
 1951 00c0 FB7D     		ldrb	r3, [r7, #23]	@ zero_extendqisi2
 1952 00c2 422B     		cmp	r3, #66
 1953 00c4 35D1     		bne	.L134
 478:C:/Users/dtjld/Desktop/AIoT_software/LiteOS_Lab_overseas/LiteOS_Lab/iot_link/network/lwm2m/wakaama_lwm2m/core\objects.c ****         {
 479:C:/Users/dtjld/Desktop/AIoT_software/LiteOS_Lab_overseas/LiteOS_Lab/iot_link/network/lwm2m/wakaama_lwm2m/core\objects.c ****             observe_clear(contextP, uriP);
 1954              		.loc 1 479 0
 1955 00c6 3968     		ldr	r1, [r7]
 1956 00c8 7868     		ldr	r0, [r7, #4]
 1957 00ca FFF7FEFF 		bl	observe_clear
 1958 00ce 30E0     		b	.L134
 1959              	.L132:
 1960              	.LBB3:
 480:C:/Users/dtjld/Desktop/AIoT_software/LiteOS_Lab_overseas/LiteOS_Lab/iot_link/network/lwm2m/wakaama_lwm2m/core\objects.c ****         }
ARM GAS  C:\Users\dtjld\AppData\Local\Temp\cclRRs7D.s 			page 44


 481:C:/Users/dtjld/Desktop/AIoT_software/LiteOS_Lab_overseas/LiteOS_Lab/iot_link/network/lwm2m/wakaama_lwm2m/core\objects.c ****     }
 482:C:/Users/dtjld/Desktop/AIoT_software/LiteOS_Lab_overseas/LiteOS_Lab/iot_link/network/lwm2m/wakaama_lwm2m/core\objects.c ****     else
 483:C:/Users/dtjld/Desktop/AIoT_software/LiteOS_Lab_overseas/LiteOS_Lab/iot_link/network/lwm2m/wakaama_lwm2m/core\objects.c ****     {
 484:C:/Users/dtjld/Desktop/AIoT_software/LiteOS_Lab_overseas/LiteOS_Lab/iot_link/network/lwm2m/wakaama_lwm2m/core\objects.c ****         lwm2m_list_t *instanceP;
 485:C:/Users/dtjld/Desktop/AIoT_software/LiteOS_Lab_overseas/LiteOS_Lab/iot_link/network/lwm2m/wakaama_lwm2m/core\objects.c **** 
 486:C:/Users/dtjld/Desktop/AIoT_software/LiteOS_Lab_overseas/LiteOS_Lab/iot_link/network/lwm2m/wakaama_lwm2m/core\objects.c ****         result = COAP_202_DELETED;
 1961              		.loc 1 486 0
 1962 00d0 4223     		movs	r3, #66
 1963 00d2 FB75     		strb	r3, [r7, #23]
 487:C:/Users/dtjld/Desktop/AIoT_software/LiteOS_Lab_overseas/LiteOS_Lab/iot_link/network/lwm2m/wakaama_lwm2m/core\objects.c ****         instanceP = objectP->instanceList;
 1964              		.loc 1 487 0
 1965 00d4 FB68     		ldr	r3, [r7, #12]
 1966 00d6 9B68     		ldr	r3, [r3, #8]
 1967 00d8 3B61     		str	r3, [r7, #16]
 488:C:/Users/dtjld/Desktop/AIoT_software/LiteOS_Lab_overseas/LiteOS_Lab/iot_link/network/lwm2m/wakaama_lwm2m/core\objects.c ****         while (NULL != instanceP
 1968              		.loc 1 488 0
 1969 00da 24E0     		b	.L135
 1970              	.L137:
 489:C:/Users/dtjld/Desktop/AIoT_software/LiteOS_Lab_overseas/LiteOS_Lab/iot_link/network/lwm2m/wakaama_lwm2m/core\objects.c ****                 && result == COAP_202_DELETED)
 490:C:/Users/dtjld/Desktop/AIoT_software/LiteOS_Lab_overseas/LiteOS_Lab/iot_link/network/lwm2m/wakaama_lwm2m/core\objects.c ****         {
 491:C:/Users/dtjld/Desktop/AIoT_software/LiteOS_Lab_overseas/LiteOS_Lab/iot_link/network/lwm2m/wakaama_lwm2m/core\objects.c ****             uriP->instanceId = instanceP->id;
 1971              		.loc 1 491 0
 1972 00dc 3B69     		ldr	r3, [r7, #16]
 1973 00de 9A88     		ldrh	r2, [r3, #4]
 1974 00e0 3B68     		ldr	r3, [r7]
 1975 00e2 9A80     		strh	r2, [r3, #4]	@ movhi
 492:C:/Users/dtjld/Desktop/AIoT_software/LiteOS_Lab_overseas/LiteOS_Lab/iot_link/network/lwm2m/wakaama_lwm2m/core\objects.c ****             result = objectP->deleteFunc(instanceP->id, objectP);
 1976              		.loc 1 492 0
 1977 00e4 FB68     		ldr	r3, [r7, #12]
 1978 00e6 1B6A     		ldr	r3, [r3, #32]
 1979 00e8 3A69     		ldr	r2, [r7, #16]
 1980 00ea 9288     		ldrh	r2, [r2, #4]
 1981 00ec F968     		ldr	r1, [r7, #12]
 1982 00ee 1046     		mov	r0, r2
 1983 00f0 9847     		blx	r3
 1984              	.LVL9:
 1985 00f2 0346     		mov	r3, r0
 1986 00f4 FB75     		strb	r3, [r7, #23]
 493:C:/Users/dtjld/Desktop/AIoT_software/LiteOS_Lab_overseas/LiteOS_Lab/iot_link/network/lwm2m/wakaama_lwm2m/core\objects.c ****             if (result == COAP_202_DELETED)
 1987              		.loc 1 493 0
 1988 00f6 FB7D     		ldrb	r3, [r7, #23]	@ zero_extendqisi2
 1989 00f8 422B     		cmp	r3, #66
 1990 00fa 11D1     		bne	.L136
 494:C:/Users/dtjld/Desktop/AIoT_software/LiteOS_Lab_overseas/LiteOS_Lab/iot_link/network/lwm2m/wakaama_lwm2m/core\objects.c ****             {
 495:C:/Users/dtjld/Desktop/AIoT_software/LiteOS_Lab_overseas/LiteOS_Lab/iot_link/network/lwm2m/wakaama_lwm2m/core\objects.c ****                 uriP->flag |= LWM2M_URI_FLAG_INSTANCE_ID;
 1991              		.loc 1 495 0
 1992 00fc 3B68     		ldr	r3, [r7]
 1993 00fe 1B78     		ldrb	r3, [r3]	@ zero_extendqisi2
 1994 0100 43F00203 		orr	r3, r3, #2
 1995 0104 DAB2     		uxtb	r2, r3
 1996 0106 3B68     		ldr	r3, [r7]
 1997 0108 1A70     		strb	r2, [r3]
 496:C:/Users/dtjld/Desktop/AIoT_software/LiteOS_Lab_overseas/LiteOS_Lab/iot_link/network/lwm2m/wakaama_lwm2m/core\objects.c ****                 observe_clear(contextP, uriP);
 1998              		.loc 1 496 0
 1999 010a 3968     		ldr	r1, [r7]
 2000 010c 7868     		ldr	r0, [r7, #4]
 2001 010e FFF7FEFF 		bl	observe_clear
ARM GAS  C:\Users\dtjld\AppData\Local\Temp\cclRRs7D.s 			page 45


 497:C:/Users/dtjld/Desktop/AIoT_software/LiteOS_Lab_overseas/LiteOS_Lab/iot_link/network/lwm2m/wakaama_lwm2m/core\objects.c ****                 uriP->flag &= ~LWM2M_URI_FLAG_INSTANCE_ID;
 2002              		.loc 1 497 0
 2003 0112 3B68     		ldr	r3, [r7]
 2004 0114 1B78     		ldrb	r3, [r3]	@ zero_extendqisi2
 2005 0116 23F00203 		bic	r3, r3, #2
 2006 011a DAB2     		uxtb	r2, r3
 2007 011c 3B68     		ldr	r3, [r7]
 2008 011e 1A70     		strb	r2, [r3]
 2009              	.L136:
 498:C:/Users/dtjld/Desktop/AIoT_software/LiteOS_Lab_overseas/LiteOS_Lab/iot_link/network/lwm2m/wakaama_lwm2m/core\objects.c ****             }
 499:C:/Users/dtjld/Desktop/AIoT_software/LiteOS_Lab_overseas/LiteOS_Lab/iot_link/network/lwm2m/wakaama_lwm2m/core\objects.c ****             instanceP = objectP->instanceList;
 2010              		.loc 1 499 0
 2011 0120 FB68     		ldr	r3, [r7, #12]
 2012 0122 9B68     		ldr	r3, [r3, #8]
 2013 0124 3B61     		str	r3, [r7, #16]
 2014              	.L135:
 488:C:/Users/dtjld/Desktop/AIoT_software/LiteOS_Lab_overseas/LiteOS_Lab/iot_link/network/lwm2m/wakaama_lwm2m/core\objects.c ****                 && result == COAP_202_DELETED)
 2015              		.loc 1 488 0
 2016 0126 3B69     		ldr	r3, [r7, #16]
 2017 0128 002B     		cmp	r3, #0
 2018 012a 02D0     		beq	.L134
 489:C:/Users/dtjld/Desktop/AIoT_software/LiteOS_Lab_overseas/LiteOS_Lab/iot_link/network/lwm2m/wakaama_lwm2m/core\objects.c ****         {
 2019              		.loc 1 489 0
 2020 012c FB7D     		ldrb	r3, [r7, #23]	@ zero_extendqisi2
 2021 012e 422B     		cmp	r3, #66
 2022 0130 D4D0     		beq	.L137
 2023              	.L134:
 2024              	.LBE3:
 500:C:/Users/dtjld/Desktop/AIoT_software/LiteOS_Lab_overseas/LiteOS_Lab/iot_link/network/lwm2m/wakaama_lwm2m/core\objects.c ****         }
 501:C:/Users/dtjld/Desktop/AIoT_software/LiteOS_Lab_overseas/LiteOS_Lab/iot_link/network/lwm2m/wakaama_lwm2m/core\objects.c ****     }
 502:C:/Users/dtjld/Desktop/AIoT_software/LiteOS_Lab_overseas/LiteOS_Lab/iot_link/network/lwm2m/wakaama_lwm2m/core\objects.c **** 
 503:C:/Users/dtjld/Desktop/AIoT_software/LiteOS_Lab_overseas/LiteOS_Lab/iot_link/network/lwm2m/wakaama_lwm2m/core\objects.c ****     LOG_ARG("result: %u.%2u", (result & 0xFF) >> 5, (result & 0x1F));
 2025              		.loc 1 503 0
 2026 0132 FFF7FEFF 		bl	lwm2m_gettime
 2027 0136 0346     		mov	r3, r0
 2028 0138 0C46     		mov	r4, r1
 2029 013a 1946     		mov	r1, r3
 2030 013c FB7D     		ldrb	r3, [r7, #23]	@ zero_extendqisi2
 2031 013e 5B09     		lsrs	r3, r3, #5
 2032 0140 DBB2     		uxtb	r3, r3
 2033 0142 1A46     		mov	r2, r3
 2034 0144 FB7D     		ldrb	r3, [r7, #23]	@ zero_extendqisi2
 2035 0146 03F01F03 		and	r3, r3, #31
 2036 014a 0193     		str	r3, [sp, #4]
 2037 014c 0092     		str	r2, [sp]
 2038 014e 40F2F713 		movw	r3, #503
 2039 0152 044A     		ldr	r2, .L138
 2040 0154 0948     		ldr	r0, .L138+24
 2041 0156 FFF7FEFF 		bl	atiny_printf
 504:C:/Users/dtjld/Desktop/AIoT_software/LiteOS_Lab_overseas/LiteOS_Lab/iot_link/network/lwm2m/wakaama_lwm2m/core\objects.c **** 
 505:C:/Users/dtjld/Desktop/AIoT_software/LiteOS_Lab_overseas/LiteOS_Lab/iot_link/network/lwm2m/wakaama_lwm2m/core\objects.c ****     return result;
 2042              		.loc 1 505 0
 2043 015a FB7D     		ldrb	r3, [r7, #23]	@ zero_extendqisi2
 2044              	.L130:
 506:C:/Users/dtjld/Desktop/AIoT_software/LiteOS_Lab_overseas/LiteOS_Lab/iot_link/network/lwm2m/wakaama_lwm2m/core\objects.c **** }
 2045              		.loc 1 506 0
 2046 015c 1846     		mov	r0, r3
ARM GAS  C:\Users\dtjld\AppData\Local\Temp\cclRRs7D.s 			page 46


 2047 015e 1C37     		adds	r7, r7, #28
 2048              	.LCFI43:
 2049              		.cfi_def_cfa_offset 12
 2050 0160 BD46     		mov	sp, r7
 2051              	.LCFI44:
 2052              		.cfi_def_cfa_register 13
 2053              		@ sp needed
 2054 0162 90BD     		pop	{r4, r7, pc}
 2055              	.L139:
 2056              		.align	2
 2057              	.L138:
 2058 0164 00000000 		.word	__func__.8936
 2059 0168 00000000 		.word	.LC0
 2060 016c 10000000 		.word	.LC1
 2061 0170 1C000000 		.word	.LC2
 2062 0174 20000000 		.word	.LC3
 2063 0178 98000000 		.word	.LC7
 2064 017c 78000000 		.word	.LC6
 2065              		.cfi_endproc
 2066              	.LFE20:
 2068              		.section	.text.object_discover,"ax",%progbits
 2069              		.align	1
 2070              		.global	object_discover
 2071              		.syntax unified
 2072              		.thumb
 2073              		.thumb_func
 2074              		.fpu fpv4-sp-d16
 2076              	object_discover:
 2077              	.LFB21:
 507:C:/Users/dtjld/Desktop/AIoT_software/LiteOS_Lab_overseas/LiteOS_Lab/iot_link/network/lwm2m/wakaama_lwm2m/core\objects.c **** 
 508:C:/Users/dtjld/Desktop/AIoT_software/LiteOS_Lab_overseas/LiteOS_Lab/iot_link/network/lwm2m/wakaama_lwm2m/core\objects.c **** uint8_t object_discover(lwm2m_context_t *contextP,
 509:C:/Users/dtjld/Desktop/AIoT_software/LiteOS_Lab_overseas/LiteOS_Lab/iot_link/network/lwm2m/wakaama_lwm2m/core\objects.c ****                         lwm2m_uri_t *uriP,
 510:C:/Users/dtjld/Desktop/AIoT_software/LiteOS_Lab_overseas/LiteOS_Lab/iot_link/network/lwm2m/wakaama_lwm2m/core\objects.c ****                         lwm2m_server_t *serverP,
 511:C:/Users/dtjld/Desktop/AIoT_software/LiteOS_Lab_overseas/LiteOS_Lab/iot_link/network/lwm2m/wakaama_lwm2m/core\objects.c ****                         uint8_t **bufferP,
 512:C:/Users/dtjld/Desktop/AIoT_software/LiteOS_Lab_overseas/LiteOS_Lab/iot_link/network/lwm2m/wakaama_lwm2m/core\objects.c ****                         size_t *lengthP)
 513:C:/Users/dtjld/Desktop/AIoT_software/LiteOS_Lab_overseas/LiteOS_Lab/iot_link/network/lwm2m/wakaama_lwm2m/core\objects.c **** {
 2078              		.loc 1 513 0
 2079              		.cfi_startproc
 2080              		@ args = 4, pretend = 0, frame = 48
 2081              		@ frame_needed = 1, uses_anonymous_args = 0
 2082 0000 90B5     		push	{r4, r7, lr}
 2083              	.LCFI45:
 2084              		.cfi_def_cfa_offset 12
 2085              		.cfi_offset 4, -12
 2086              		.cfi_offset 7, -8
 2087              		.cfi_offset 14, -4
 2088 0002 8FB0     		sub	sp, sp, #60
 2089              	.LCFI46:
 2090              		.cfi_def_cfa_offset 72
 2091 0004 02AF     		add	r7, sp, #8
 2092              	.LCFI47:
 2093              		.cfi_def_cfa 7, 64
 2094 0006 F860     		str	r0, [r7, #12]
 2095 0008 B960     		str	r1, [r7, #8]
 2096 000a 7A60     		str	r2, [r7, #4]
 2097 000c 3B60     		str	r3, [r7]
 514:C:/Users/dtjld/Desktop/AIoT_software/LiteOS_Lab_overseas/LiteOS_Lab/iot_link/network/lwm2m/wakaama_lwm2m/core\objects.c ****     uint8_t result;
ARM GAS  C:\Users\dtjld\AppData\Local\Temp\cclRRs7D.s 			page 47


 515:C:/Users/dtjld/Desktop/AIoT_software/LiteOS_Lab_overseas/LiteOS_Lab/iot_link/network/lwm2m/wakaama_lwm2m/core\objects.c ****     lwm2m_object_t *targetP;
 516:C:/Users/dtjld/Desktop/AIoT_software/LiteOS_Lab_overseas/LiteOS_Lab/iot_link/network/lwm2m/wakaama_lwm2m/core\objects.c ****     lwm2m_data_t *dataP = NULL;
 2098              		.loc 1 516 0
 2099 000e 0023     		movs	r3, #0
 2100 0010 BB61     		str	r3, [r7, #24]
 517:C:/Users/dtjld/Desktop/AIoT_software/LiteOS_Lab_overseas/LiteOS_Lab/iot_link/network/lwm2m/wakaama_lwm2m/core\objects.c ****     int size = 0;
 2101              		.loc 1 517 0
 2102 0012 0023     		movs	r3, #0
 2103 0014 7B61     		str	r3, [r7, #20]
 518:C:/Users/dtjld/Desktop/AIoT_software/LiteOS_Lab_overseas/LiteOS_Lab/iot_link/network/lwm2m/wakaama_lwm2m/core\objects.c **** 
 519:C:/Users/dtjld/Desktop/AIoT_software/LiteOS_Lab_overseas/LiteOS_Lab/iot_link/network/lwm2m/wakaama_lwm2m/core\objects.c ****     LOG_URI(uriP);
 2104              		.loc 1 519 0
 2105 0016 BB68     		ldr	r3, [r7, #8]
 2106 0018 002B     		cmp	r3, #0
 2107 001a 06D1     		bne	.L141
 2108              		.loc 1 519 0 is_stmt 0 discriminator 1
 2109 001c 40F20722 		movw	r2, #519
 2110 0020 8249     		ldr	r1, .L161
 2111 0022 8348     		ldr	r0, .L161+4
 2112 0024 FFF7FEFF 		bl	atiny_printf
 2113 0028 22E0     		b	.L142
 2114              	.L141:
 2115              		.loc 1 519 0 discriminator 2
 2116 002a BB68     		ldr	r3, [r7, #8]
 2117 002c 5B88     		ldrh	r3, [r3, #2]
 2118 002e 40F20722 		movw	r2, #519
 2119 0032 7E49     		ldr	r1, .L161
 2120 0034 7F48     		ldr	r0, .L161+8
 2121 0036 FFF7FEFF 		bl	atiny_printf
 2122 003a BB68     		ldr	r3, [r7, #8]
 2123 003c 1B78     		ldrb	r3, [r3]	@ zero_extendqisi2
 2124 003e 03F00203 		and	r3, r3, #2
 2125 0042 002B     		cmp	r3, #0
 2126 0044 05D0     		beq	.L143
 2127              		.loc 1 519 0 discriminator 3
 2128 0046 BB68     		ldr	r3, [r7, #8]
 2129 0048 9B88     		ldrh	r3, [r3, #4]
 2130 004a 1946     		mov	r1, r3
 2131 004c 7A48     		ldr	r0, .L161+12
 2132 004e FFF7FEFF 		bl	atiny_printf
 2133              	.L143:
 2134              		.loc 1 519 0 discriminator 5
 2135 0052 BB68     		ldr	r3, [r7, #8]
 2136 0054 1B78     		ldrb	r3, [r3]	@ zero_extendqisi2
 2137 0056 03F00103 		and	r3, r3, #1
 2138 005a 002B     		cmp	r3, #0
 2139 005c 05D0     		beq	.L144
 2140              		.loc 1 519 0 discriminator 6
 2141 005e BB68     		ldr	r3, [r7, #8]
 2142 0060 DB88     		ldrh	r3, [r3, #6]
 2143 0062 1946     		mov	r1, r3
 2144 0064 7448     		ldr	r0, .L161+12
 2145 0066 FFF7FEFF 		bl	atiny_printf
 2146              	.L144:
 2147              		.loc 1 519 0 discriminator 8
 2148 006a 7448     		ldr	r0, .L161+16
 2149 006c FFF7FEFF 		bl	atiny_printf
ARM GAS  C:\Users\dtjld\AppData\Local\Temp\cclRRs7D.s 			page 48


 2150              	.L142:
 520:C:/Users/dtjld/Desktop/AIoT_software/LiteOS_Lab_overseas/LiteOS_Lab/iot_link/network/lwm2m/wakaama_lwm2m/core\objects.c ****     targetP = (lwm2m_object_t *)LWM2M_LIST_FIND(contextP->objectList, uriP->objectId);
 2151              		.loc 1 520 0 is_stmt 1
 2152 0070 FB68     		ldr	r3, [r7, #12]
 2153 0072 9A69     		ldr	r2, [r3, #24]
 2154 0074 BB68     		ldr	r3, [r7, #8]
 2155 0076 5B88     		ldrh	r3, [r3, #2]
 2156 0078 1946     		mov	r1, r3
 2157 007a 1046     		mov	r0, r2
 2158 007c FFF7FEFF 		bl	lwm2m_list_find
 2159 0080 3862     		str	r0, [r7, #32]
 521:C:/Users/dtjld/Desktop/AIoT_software/LiteOS_Lab_overseas/LiteOS_Lab/iot_link/network/lwm2m/wakaama_lwm2m/core\objects.c ****     if (NULL == targetP) return COAP_404_NOT_FOUND;
 2160              		.loc 1 521 0
 2161 0082 3B6A     		ldr	r3, [r7, #32]
 2162 0084 002B     		cmp	r3, #0
 2163 0086 01D1     		bne	.L145
 2164              		.loc 1 521 0 is_stmt 0 discriminator 1
 2165 0088 8423     		movs	r3, #132
 2166 008a CAE0     		b	.L160
 2167              	.L145:
 522:C:/Users/dtjld/Desktop/AIoT_software/LiteOS_Lab_overseas/LiteOS_Lab/iot_link/network/lwm2m/wakaama_lwm2m/core\objects.c ****     if (NULL == targetP->discoverFunc) return COAP_501_NOT_IMPLEMENTED;
 2168              		.loc 1 522 0 is_stmt 1
 2169 008c 3B6A     		ldr	r3, [r7, #32]
 2170 008e 5B6A     		ldr	r3, [r3, #36]
 2171 0090 002B     		cmp	r3, #0
 2172 0092 01D1     		bne	.L147
 2173              		.loc 1 522 0 is_stmt 0 discriminator 1
 2174 0094 A123     		movs	r3, #161
 2175 0096 C4E0     		b	.L160
 2176              	.L147:
 523:C:/Users/dtjld/Desktop/AIoT_software/LiteOS_Lab_overseas/LiteOS_Lab/iot_link/network/lwm2m/wakaama_lwm2m/core\objects.c **** 
 524:C:/Users/dtjld/Desktop/AIoT_software/LiteOS_Lab_overseas/LiteOS_Lab/iot_link/network/lwm2m/wakaama_lwm2m/core\objects.c ****     if (LWM2M_URI_IS_SET_INSTANCE(uriP))
 2177              		.loc 1 524 0 is_stmt 1
 2178 0098 BB68     		ldr	r3, [r7, #8]
 2179 009a 1B78     		ldrb	r3, [r3]	@ zero_extendqisi2
 2180 009c 03F00203 		and	r3, r3, #2
 2181 00a0 002B     		cmp	r3, #0
 2182 00a2 31D0     		beq	.L148
 525:C:/Users/dtjld/Desktop/AIoT_software/LiteOS_Lab_overseas/LiteOS_Lab/iot_link/network/lwm2m/wakaama_lwm2m/core\objects.c ****     {
 526:C:/Users/dtjld/Desktop/AIoT_software/LiteOS_Lab_overseas/LiteOS_Lab/iot_link/network/lwm2m/wakaama_lwm2m/core\objects.c ****         if (NULL == lwm2m_list_find(targetP->instanceList, uriP->instanceId)) return COAP_404_NOT_F
 2183              		.loc 1 526 0
 2184 00a4 3B6A     		ldr	r3, [r7, #32]
 2185 00a6 9A68     		ldr	r2, [r3, #8]
 2186 00a8 BB68     		ldr	r3, [r7, #8]
 2187 00aa 9B88     		ldrh	r3, [r3, #4]
 2188 00ac 1946     		mov	r1, r3
 2189 00ae 1046     		mov	r0, r2
 2190 00b0 FFF7FEFF 		bl	lwm2m_list_find
 2191 00b4 0346     		mov	r3, r0
 2192 00b6 002B     		cmp	r3, #0
 2193 00b8 01D1     		bne	.L149
 2194              		.loc 1 526 0 is_stmt 0 discriminator 1
 2195 00ba 8423     		movs	r3, #132
 2196 00bc B1E0     		b	.L160
 2197              	.L149:
 527:C:/Users/dtjld/Desktop/AIoT_software/LiteOS_Lab_overseas/LiteOS_Lab/iot_link/network/lwm2m/wakaama_lwm2m/core\objects.c **** 
 528:C:/Users/dtjld/Desktop/AIoT_software/LiteOS_Lab_overseas/LiteOS_Lab/iot_link/network/lwm2m/wakaama_lwm2m/core\objects.c ****         // single instance read
ARM GAS  C:\Users\dtjld\AppData\Local\Temp\cclRRs7D.s 			page 49


 529:C:/Users/dtjld/Desktop/AIoT_software/LiteOS_Lab_overseas/LiteOS_Lab/iot_link/network/lwm2m/wakaama_lwm2m/core\objects.c ****         if (LWM2M_URI_IS_SET_RESOURCE(uriP))
 2198              		.loc 1 529 0 is_stmt 1
 2199 00be BB68     		ldr	r3, [r7, #8]
 2200 00c0 1B78     		ldrb	r3, [r3]	@ zero_extendqisi2
 2201 00c2 03F00103 		and	r3, r3, #1
 2202 00c6 002B     		cmp	r3, #0
 2203 00c8 10D0     		beq	.L150
 530:C:/Users/dtjld/Desktop/AIoT_software/LiteOS_Lab_overseas/LiteOS_Lab/iot_link/network/lwm2m/wakaama_lwm2m/core\objects.c ****         {
 531:C:/Users/dtjld/Desktop/AIoT_software/LiteOS_Lab_overseas/LiteOS_Lab/iot_link/network/lwm2m/wakaama_lwm2m/core\objects.c ****             size = 1;
 2204              		.loc 1 531 0
 2205 00ca 0123     		movs	r3, #1
 2206 00cc 7B61     		str	r3, [r7, #20]
 532:C:/Users/dtjld/Desktop/AIoT_software/LiteOS_Lab_overseas/LiteOS_Lab/iot_link/network/lwm2m/wakaama_lwm2m/core\objects.c ****             dataP = lwm2m_data_new(size);
 2207              		.loc 1 532 0
 2208 00ce 7B69     		ldr	r3, [r7, #20]
 2209 00d0 1846     		mov	r0, r3
 2210 00d2 FFF7FEFF 		bl	lwm2m_data_new
 2211 00d6 0346     		mov	r3, r0
 2212 00d8 BB61     		str	r3, [r7, #24]
 533:C:/Users/dtjld/Desktop/AIoT_software/LiteOS_Lab_overseas/LiteOS_Lab/iot_link/network/lwm2m/wakaama_lwm2m/core\objects.c ****             if (dataP == NULL) return COAP_500_INTERNAL_SERVER_ERROR;
 2213              		.loc 1 533 0
 2214 00da BB69     		ldr	r3, [r7, #24]
 2215 00dc 002B     		cmp	r3, #0
 2216 00de 01D1     		bne	.L151
 2217              		.loc 1 533 0 is_stmt 0 discriminator 1
 2218 00e0 A023     		movs	r3, #160
 2219 00e2 9EE0     		b	.L160
 2220              	.L151:
 534:C:/Users/dtjld/Desktop/AIoT_software/LiteOS_Lab_overseas/LiteOS_Lab/iot_link/network/lwm2m/wakaama_lwm2m/core\objects.c **** 
 535:C:/Users/dtjld/Desktop/AIoT_software/LiteOS_Lab_overseas/LiteOS_Lab/iot_link/network/lwm2m/wakaama_lwm2m/core\objects.c ****             dataP->id = uriP->resourceId;
 2221              		.loc 1 535 0 is_stmt 1
 2222 00e4 BB69     		ldr	r3, [r7, #24]
 2223 00e6 BA68     		ldr	r2, [r7, #8]
 2224 00e8 D288     		ldrh	r2, [r2, #6]
 2225 00ea 5A80     		strh	r2, [r3, #2]	@ movhi
 2226              	.L150:
 536:C:/Users/dtjld/Desktop/AIoT_software/LiteOS_Lab_overseas/LiteOS_Lab/iot_link/network/lwm2m/wakaama_lwm2m/core\objects.c ****         }
 537:C:/Users/dtjld/Desktop/AIoT_software/LiteOS_Lab_overseas/LiteOS_Lab/iot_link/network/lwm2m/wakaama_lwm2m/core\objects.c **** 
 538:C:/Users/dtjld/Desktop/AIoT_software/LiteOS_Lab_overseas/LiteOS_Lab/iot_link/network/lwm2m/wakaama_lwm2m/core\objects.c ****         result = targetP->discoverFunc(uriP->instanceId, &size, &dataP, targetP);
 2227              		.loc 1 538 0
 2228 00ec 3B6A     		ldr	r3, [r7, #32]
 2229 00ee 5C6A     		ldr	r4, [r3, #36]
 2230 00f0 BB68     		ldr	r3, [r7, #8]
 2231 00f2 9888     		ldrh	r0, [r3, #4]
 2232 00f4 07F11802 		add	r2, r7, #24
 2233 00f8 07F11401 		add	r1, r7, #20
 2234 00fc 3B6A     		ldr	r3, [r7, #32]
 2235 00fe A047     		blx	r4
 2236              	.LVL10:
 2237 0100 0346     		mov	r3, r0
 2238 0102 87F82F30 		strb	r3, [r7, #47]
 2239 0106 54E0     		b	.L152
 2240              	.L148:
 2241              	.LBB4:
 539:C:/Users/dtjld/Desktop/AIoT_software/LiteOS_Lab_overseas/LiteOS_Lab/iot_link/network/lwm2m/wakaama_lwm2m/core\objects.c ****     }
 540:C:/Users/dtjld/Desktop/AIoT_software/LiteOS_Lab_overseas/LiteOS_Lab/iot_link/network/lwm2m/wakaama_lwm2m/core\objects.c ****     else
 541:C:/Users/dtjld/Desktop/AIoT_software/LiteOS_Lab_overseas/LiteOS_Lab/iot_link/network/lwm2m/wakaama_lwm2m/core\objects.c ****     {
ARM GAS  C:\Users\dtjld\AppData\Local\Temp\cclRRs7D.s 			page 50


 542:C:/Users/dtjld/Desktop/AIoT_software/LiteOS_Lab_overseas/LiteOS_Lab/iot_link/network/lwm2m/wakaama_lwm2m/core\objects.c ****         // multiple object instances read
 543:C:/Users/dtjld/Desktop/AIoT_software/LiteOS_Lab_overseas/LiteOS_Lab/iot_link/network/lwm2m/wakaama_lwm2m/core\objects.c ****         lwm2m_list_t *instanceP;
 544:C:/Users/dtjld/Desktop/AIoT_software/LiteOS_Lab_overseas/LiteOS_Lab/iot_link/network/lwm2m/wakaama_lwm2m/core\objects.c ****         int i;
 545:C:/Users/dtjld/Desktop/AIoT_software/LiteOS_Lab_overseas/LiteOS_Lab/iot_link/network/lwm2m/wakaama_lwm2m/core\objects.c **** 
 546:C:/Users/dtjld/Desktop/AIoT_software/LiteOS_Lab_overseas/LiteOS_Lab/iot_link/network/lwm2m/wakaama_lwm2m/core\objects.c ****         result = COAP_205_CONTENT;
 2242              		.loc 1 546 0
 2243 0108 4523     		movs	r3, #69
 2244 010a 87F82F30 		strb	r3, [r7, #47]
 547:C:/Users/dtjld/Desktop/AIoT_software/LiteOS_Lab_overseas/LiteOS_Lab/iot_link/network/lwm2m/wakaama_lwm2m/core\objects.c **** 
 548:C:/Users/dtjld/Desktop/AIoT_software/LiteOS_Lab_overseas/LiteOS_Lab/iot_link/network/lwm2m/wakaama_lwm2m/core\objects.c ****         size = 0;
 2245              		.loc 1 548 0
 2246 010e 0023     		movs	r3, #0
 2247 0110 7B61     		str	r3, [r7, #20]
 549:C:/Users/dtjld/Desktop/AIoT_software/LiteOS_Lab_overseas/LiteOS_Lab/iot_link/network/lwm2m/wakaama_lwm2m/core\objects.c ****         for (instanceP = targetP->instanceList; instanceP != NULL ; instanceP = instanceP->next)
 2248              		.loc 1 549 0
 2249 0112 3B6A     		ldr	r3, [r7, #32]
 2250 0114 9B68     		ldr	r3, [r3, #8]
 2251 0116 BB62     		str	r3, [r7, #40]
 2252 0118 05E0     		b	.L153
 2253              	.L154:
 550:C:/Users/dtjld/Desktop/AIoT_software/LiteOS_Lab_overseas/LiteOS_Lab/iot_link/network/lwm2m/wakaama_lwm2m/core\objects.c ****         {
 551:C:/Users/dtjld/Desktop/AIoT_software/LiteOS_Lab_overseas/LiteOS_Lab/iot_link/network/lwm2m/wakaama_lwm2m/core\objects.c ****             size++;
 2254              		.loc 1 551 0 discriminator 3
 2255 011a 7B69     		ldr	r3, [r7, #20]
 2256 011c 0133     		adds	r3, r3, #1
 2257 011e 7B61     		str	r3, [r7, #20]
 549:C:/Users/dtjld/Desktop/AIoT_software/LiteOS_Lab_overseas/LiteOS_Lab/iot_link/network/lwm2m/wakaama_lwm2m/core\objects.c ****         for (instanceP = targetP->instanceList; instanceP != NULL ; instanceP = instanceP->next)
 2258              		.loc 1 549 0 discriminator 3
 2259 0120 BB6A     		ldr	r3, [r7, #40]
 2260 0122 1B68     		ldr	r3, [r3]
 2261 0124 BB62     		str	r3, [r7, #40]
 2262              	.L153:
 549:C:/Users/dtjld/Desktop/AIoT_software/LiteOS_Lab_overseas/LiteOS_Lab/iot_link/network/lwm2m/wakaama_lwm2m/core\objects.c ****         for (instanceP = targetP->instanceList; instanceP != NULL ; instanceP = instanceP->next)
 2263              		.loc 1 549 0 is_stmt 0 discriminator 1
 2264 0126 BB6A     		ldr	r3, [r7, #40]
 2265 0128 002B     		cmp	r3, #0
 2266 012a F6D1     		bne	.L154
 552:C:/Users/dtjld/Desktop/AIoT_software/LiteOS_Lab_overseas/LiteOS_Lab/iot_link/network/lwm2m/wakaama_lwm2m/core\objects.c ****         }
 553:C:/Users/dtjld/Desktop/AIoT_software/LiteOS_Lab_overseas/LiteOS_Lab/iot_link/network/lwm2m/wakaama_lwm2m/core\objects.c **** 
 554:C:/Users/dtjld/Desktop/AIoT_software/LiteOS_Lab_overseas/LiteOS_Lab/iot_link/network/lwm2m/wakaama_lwm2m/core\objects.c ****         if (size != 0)
 2267              		.loc 1 554 0 is_stmt 1
 2268 012c 7B69     		ldr	r3, [r7, #20]
 2269 012e 002B     		cmp	r3, #0
 2270 0130 3FD0     		beq	.L152
 555:C:/Users/dtjld/Desktop/AIoT_software/LiteOS_Lab_overseas/LiteOS_Lab/iot_link/network/lwm2m/wakaama_lwm2m/core\objects.c ****         {
 556:C:/Users/dtjld/Desktop/AIoT_software/LiteOS_Lab_overseas/LiteOS_Lab/iot_link/network/lwm2m/wakaama_lwm2m/core\objects.c ****             dataP = lwm2m_data_new(size);
 2271              		.loc 1 556 0
 2272 0132 7B69     		ldr	r3, [r7, #20]
 2273 0134 1846     		mov	r0, r3
 2274 0136 FFF7FEFF 		bl	lwm2m_data_new
 2275 013a 0346     		mov	r3, r0
 2276 013c BB61     		str	r3, [r7, #24]
 557:C:/Users/dtjld/Desktop/AIoT_software/LiteOS_Lab_overseas/LiteOS_Lab/iot_link/network/lwm2m/wakaama_lwm2m/core\objects.c ****             if (dataP == NULL) return COAP_500_INTERNAL_SERVER_ERROR;
 2277              		.loc 1 557 0
 2278 013e BB69     		ldr	r3, [r7, #24]
 2279 0140 002B     		cmp	r3, #0
 2280 0142 01D1     		bne	.L155
ARM GAS  C:\Users\dtjld\AppData\Local\Temp\cclRRs7D.s 			page 51


 2281              		.loc 1 557 0 is_stmt 0 discriminator 1
 2282 0144 A023     		movs	r3, #160
 2283 0146 6CE0     		b	.L160
 2284              	.L155:
 558:C:/Users/dtjld/Desktop/AIoT_software/LiteOS_Lab_overseas/LiteOS_Lab/iot_link/network/lwm2m/wakaama_lwm2m/core\objects.c **** 
 559:C:/Users/dtjld/Desktop/AIoT_software/LiteOS_Lab_overseas/LiteOS_Lab/iot_link/network/lwm2m/wakaama_lwm2m/core\objects.c ****             instanceP = targetP->instanceList;
 2285              		.loc 1 559 0 is_stmt 1
 2286 0148 3B6A     		ldr	r3, [r7, #32]
 2287 014a 9B68     		ldr	r3, [r3, #8]
 2288 014c BB62     		str	r3, [r7, #40]
 560:C:/Users/dtjld/Desktop/AIoT_software/LiteOS_Lab_overseas/LiteOS_Lab/iot_link/network/lwm2m/wakaama_lwm2m/core\objects.c ****             i = 0;
 2289              		.loc 1 560 0
 2290 014e 0023     		movs	r3, #0
 2291 0150 7B62     		str	r3, [r7, #36]
 561:C:/Users/dtjld/Desktop/AIoT_software/LiteOS_Lab_overseas/LiteOS_Lab/iot_link/network/lwm2m/wakaama_lwm2m/core\objects.c ****             while (instanceP != NULL && result == COAP_205_CONTENT)
 2292              		.loc 1 561 0
 2293 0152 27E0     		b	.L156
 2294              	.L157:
 562:C:/Users/dtjld/Desktop/AIoT_software/LiteOS_Lab_overseas/LiteOS_Lab/iot_link/network/lwm2m/wakaama_lwm2m/core\objects.c ****             {
 563:C:/Users/dtjld/Desktop/AIoT_software/LiteOS_Lab_overseas/LiteOS_Lab/iot_link/network/lwm2m/wakaama_lwm2m/core\objects.c ****                 result = targetP->discoverFunc(instanceP->id, (int *) & (dataP[i].value.asChildren.
 2295              		.loc 1 563 0
 2296 0154 3B6A     		ldr	r3, [r7, #32]
 2297 0156 5C6A     		ldr	r4, [r3, #36]
 2298 0158 BB6A     		ldr	r3, [r7, #40]
 2299 015a 9888     		ldrh	r0, [r3, #4]
 2300 015c BA69     		ldr	r2, [r7, #24]
 2301 015e 7B6A     		ldr	r3, [r7, #36]
 2302 0160 1B01     		lsls	r3, r3, #4
 2303 0162 1344     		add	r3, r3, r2
 2304 0164 03F10801 		add	r1, r3, #8
 2305 0168 BA69     		ldr	r2, [r7, #24]
 2306 016a 7B6A     		ldr	r3, [r7, #36]
 2307 016c 1B01     		lsls	r3, r3, #4
 2308 016e 1344     		add	r3, r3, r2
 2309 0170 03F10C02 		add	r2, r3, #12
 2310 0174 3B6A     		ldr	r3, [r7, #32]
 2311 0176 A047     		blx	r4
 2312              	.LVL11:
 2313 0178 0346     		mov	r3, r0
 2314 017a 87F82F30 		strb	r3, [r7, #47]
 564:C:/Users/dtjld/Desktop/AIoT_software/LiteOS_Lab_overseas/LiteOS_Lab/iot_link/network/lwm2m/wakaama_lwm2m/core\objects.c ****                 dataP[i].type = LWM2M_TYPE_OBJECT_INSTANCE;
 2315              		.loc 1 564 0
 2316 017e BA69     		ldr	r2, [r7, #24]
 2317 0180 7B6A     		ldr	r3, [r7, #36]
 2318 0182 1B01     		lsls	r3, r3, #4
 2319 0184 1344     		add	r3, r3, r2
 2320 0186 0222     		movs	r2, #2
 2321 0188 1A70     		strb	r2, [r3]
 565:C:/Users/dtjld/Desktop/AIoT_software/LiteOS_Lab_overseas/LiteOS_Lab/iot_link/network/lwm2m/wakaama_lwm2m/core\objects.c ****                 dataP[i].id = instanceP->id;
 2322              		.loc 1 565 0
 2323 018a BA69     		ldr	r2, [r7, #24]
 2324 018c 7B6A     		ldr	r3, [r7, #36]
 2325 018e 1B01     		lsls	r3, r3, #4
 2326 0190 1344     		add	r3, r3, r2
 2327 0192 BA6A     		ldr	r2, [r7, #40]
 2328 0194 9288     		ldrh	r2, [r2, #4]
 2329 0196 5A80     		strh	r2, [r3, #2]	@ movhi
ARM GAS  C:\Users\dtjld\AppData\Local\Temp\cclRRs7D.s 			page 52


 566:C:/Users/dtjld/Desktop/AIoT_software/LiteOS_Lab_overseas/LiteOS_Lab/iot_link/network/lwm2m/wakaama_lwm2m/core\objects.c ****                 i++;
 2330              		.loc 1 566 0
 2331 0198 7B6A     		ldr	r3, [r7, #36]
 2332 019a 0133     		adds	r3, r3, #1
 2333 019c 7B62     		str	r3, [r7, #36]
 567:C:/Users/dtjld/Desktop/AIoT_software/LiteOS_Lab_overseas/LiteOS_Lab/iot_link/network/lwm2m/wakaama_lwm2m/core\objects.c ****                 instanceP = instanceP->next;
 2334              		.loc 1 567 0
 2335 019e BB6A     		ldr	r3, [r7, #40]
 2336 01a0 1B68     		ldr	r3, [r3]
 2337 01a2 BB62     		str	r3, [r7, #40]
 2338              	.L156:
 561:C:/Users/dtjld/Desktop/AIoT_software/LiteOS_Lab_overseas/LiteOS_Lab/iot_link/network/lwm2m/wakaama_lwm2m/core\objects.c ****             {
 2339              		.loc 1 561 0
 2340 01a4 BB6A     		ldr	r3, [r7, #40]
 2341 01a6 002B     		cmp	r3, #0
 2342 01a8 03D0     		beq	.L152
 561:C:/Users/dtjld/Desktop/AIoT_software/LiteOS_Lab_overseas/LiteOS_Lab/iot_link/network/lwm2m/wakaama_lwm2m/core\objects.c ****             {
 2343              		.loc 1 561 0 is_stmt 0 discriminator 1
 2344 01aa 97F82F30 		ldrb	r3, [r7, #47]	@ zero_extendqisi2
 2345 01ae 452B     		cmp	r3, #69
 2346 01b0 D0D0     		beq	.L157
 2347              	.L152:
 2348              	.LBE4:
 568:C:/Users/dtjld/Desktop/AIoT_software/LiteOS_Lab_overseas/LiteOS_Lab/iot_link/network/lwm2m/wakaama_lwm2m/core\objects.c ****             }
 569:C:/Users/dtjld/Desktop/AIoT_software/LiteOS_Lab_overseas/LiteOS_Lab/iot_link/network/lwm2m/wakaama_lwm2m/core\objects.c ****         }
 570:C:/Users/dtjld/Desktop/AIoT_software/LiteOS_Lab_overseas/LiteOS_Lab/iot_link/network/lwm2m/wakaama_lwm2m/core\objects.c ****     }
 571:C:/Users/dtjld/Desktop/AIoT_software/LiteOS_Lab_overseas/LiteOS_Lab/iot_link/network/lwm2m/wakaama_lwm2m/core\objects.c **** 
 572:C:/Users/dtjld/Desktop/AIoT_software/LiteOS_Lab_overseas/LiteOS_Lab/iot_link/network/lwm2m/wakaama_lwm2m/core\objects.c ****     if (result == COAP_205_CONTENT)
 2349              		.loc 1 572 0 is_stmt 1
 2350 01b2 97F82F30 		ldrb	r3, [r7, #47]	@ zero_extendqisi2
 2351 01b6 452B     		cmp	r3, #69
 2352 01b8 15D1     		bne	.L158
 2353              	.LBB5:
 573:C:/Users/dtjld/Desktop/AIoT_software/LiteOS_Lab_overseas/LiteOS_Lab/iot_link/network/lwm2m/wakaama_lwm2m/core\objects.c ****     {
 574:C:/Users/dtjld/Desktop/AIoT_software/LiteOS_Lab_overseas/LiteOS_Lab/iot_link/network/lwm2m/wakaama_lwm2m/core\objects.c ****         int len;
 575:C:/Users/dtjld/Desktop/AIoT_software/LiteOS_Lab_overseas/LiteOS_Lab/iot_link/network/lwm2m/wakaama_lwm2m/core\objects.c **** 
 576:C:/Users/dtjld/Desktop/AIoT_software/LiteOS_Lab_overseas/LiteOS_Lab/iot_link/network/lwm2m/wakaama_lwm2m/core\objects.c ****         len = discover_serialize(contextP, uriP, serverP, size, dataP, bufferP);
 2354              		.loc 1 576 0
 2355 01ba 7969     		ldr	r1, [r7, #20]
 2356 01bc BB69     		ldr	r3, [r7, #24]
 2357 01be 3A68     		ldr	r2, [r7]
 2358 01c0 0192     		str	r2, [sp, #4]
 2359 01c2 0093     		str	r3, [sp]
 2360 01c4 0B46     		mov	r3, r1
 2361 01c6 7A68     		ldr	r2, [r7, #4]
 2362 01c8 B968     		ldr	r1, [r7, #8]
 2363 01ca F868     		ldr	r0, [r7, #12]
 2364 01cc FFF7FEFF 		bl	discover_serialize
 2365 01d0 F861     		str	r0, [r7, #28]
 577:C:/Users/dtjld/Desktop/AIoT_software/LiteOS_Lab_overseas/LiteOS_Lab/iot_link/network/lwm2m/wakaama_lwm2m/core\objects.c ****         if (len <= 0) result = COAP_500_INTERNAL_SERVER_ERROR;
 2366              		.loc 1 577 0
 2367 01d2 FB69     		ldr	r3, [r7, #28]
 2368 01d4 002B     		cmp	r3, #0
 2369 01d6 03DC     		bgt	.L159
 2370              		.loc 1 577 0 is_stmt 0 discriminator 1
 2371 01d8 A023     		movs	r3, #160
 2372 01da 87F82F30 		strb	r3, [r7, #47]
ARM GAS  C:\Users\dtjld\AppData\Local\Temp\cclRRs7D.s 			page 53


 2373 01de 02E0     		b	.L158
 2374              	.L159:
 578:C:/Users/dtjld/Desktop/AIoT_software/LiteOS_Lab_overseas/LiteOS_Lab/iot_link/network/lwm2m/wakaama_lwm2m/core\objects.c ****         else *lengthP = len;
 2375              		.loc 1 578 0 is_stmt 1
 2376 01e0 FA69     		ldr	r2, [r7, #28]
 2377 01e2 3B6C     		ldr	r3, [r7, #64]
 2378 01e4 1A60     		str	r2, [r3]
 2379              	.L158:
 2380              	.LBE5:
 579:C:/Users/dtjld/Desktop/AIoT_software/LiteOS_Lab_overseas/LiteOS_Lab/iot_link/network/lwm2m/wakaama_lwm2m/core\objects.c ****     }
 580:C:/Users/dtjld/Desktop/AIoT_software/LiteOS_Lab_overseas/LiteOS_Lab/iot_link/network/lwm2m/wakaama_lwm2m/core\objects.c ****     lwm2m_data_free(size, dataP);
 2381              		.loc 1 580 0
 2382 01e6 7B69     		ldr	r3, [r7, #20]
 2383 01e8 BA69     		ldr	r2, [r7, #24]
 2384 01ea 1146     		mov	r1, r2
 2385 01ec 1846     		mov	r0, r3
 2386 01ee FFF7FEFF 		bl	lwm2m_data_free
 581:C:/Users/dtjld/Desktop/AIoT_software/LiteOS_Lab_overseas/LiteOS_Lab/iot_link/network/lwm2m/wakaama_lwm2m/core\objects.c **** 
 582:C:/Users/dtjld/Desktop/AIoT_software/LiteOS_Lab_overseas/LiteOS_Lab/iot_link/network/lwm2m/wakaama_lwm2m/core\objects.c ****     LOG_ARG("result: %u.%2u", (result & 0xFF) >> 5, (result & 0x1F));
 2387              		.loc 1 582 0
 2388 01f2 FFF7FEFF 		bl	lwm2m_gettime
 2389 01f6 0346     		mov	r3, r0
 2390 01f8 0C46     		mov	r4, r1
 2391 01fa 1946     		mov	r1, r3
 2392 01fc 97F82F30 		ldrb	r3, [r7, #47]	@ zero_extendqisi2
 2393 0200 5B09     		lsrs	r3, r3, #5
 2394 0202 DBB2     		uxtb	r3, r3
 2395 0204 1A46     		mov	r2, r3
 2396 0206 97F82F30 		ldrb	r3, [r7, #47]	@ zero_extendqisi2
 2397 020a 03F01F03 		and	r3, r3, #31
 2398 020e 0193     		str	r3, [sp, #4]
 2399 0210 0092     		str	r2, [sp]
 2400 0212 40F24623 		movw	r3, #582
 2401 0216 054A     		ldr	r2, .L161
 2402 0218 0948     		ldr	r0, .L161+20
 2403 021a FFF7FEFF 		bl	atiny_printf
 583:C:/Users/dtjld/Desktop/AIoT_software/LiteOS_Lab_overseas/LiteOS_Lab/iot_link/network/lwm2m/wakaama_lwm2m/core\objects.c **** 
 584:C:/Users/dtjld/Desktop/AIoT_software/LiteOS_Lab_overseas/LiteOS_Lab/iot_link/network/lwm2m/wakaama_lwm2m/core\objects.c ****     return result;
 2404              		.loc 1 584 0
 2405 021e 97F82F30 		ldrb	r3, [r7, #47]	@ zero_extendqisi2
 2406              	.L160:
 585:C:/Users/dtjld/Desktop/AIoT_software/LiteOS_Lab_overseas/LiteOS_Lab/iot_link/network/lwm2m/wakaama_lwm2m/core\objects.c **** }
 2407              		.loc 1 585 0 discriminator 1
 2408 0222 1846     		mov	r0, r3
 2409 0224 3437     		adds	r7, r7, #52
 2410              	.LCFI48:
 2411              		.cfi_def_cfa_offset 12
 2412 0226 BD46     		mov	sp, r7
 2413              	.LCFI49:
 2414              		.cfi_def_cfa_register 13
 2415              		@ sp needed
 2416 0228 90BD     		pop	{r4, r7, pc}
 2417              	.L162:
 2418 022a 00BF     		.align	2
 2419              	.L161:
 2420 022c 00000000 		.word	__func__.8952
 2421 0230 00000000 		.word	.LC0
ARM GAS  C:\Users\dtjld\AppData\Local\Temp\cclRRs7D.s 			page 54


 2422 0234 10000000 		.word	.LC1
 2423 0238 1C000000 		.word	.LC2
 2424 023c 20000000 		.word	.LC3
 2425 0240 78000000 		.word	.LC6
 2426              		.cfi_endproc
 2427              	.LFE21:
 2429              		.section	.text.object_isInstanceNew,"ax",%progbits
 2430              		.align	1
 2431              		.global	object_isInstanceNew
 2432              		.syntax unified
 2433              		.thumb
 2434              		.thumb_func
 2435              		.fpu fpv4-sp-d16
 2437              	object_isInstanceNew:
 2438              	.LFB22:
 586:C:/Users/dtjld/Desktop/AIoT_software/LiteOS_Lab_overseas/LiteOS_Lab/iot_link/network/lwm2m/wakaama_lwm2m/core\objects.c **** 
 587:C:/Users/dtjld/Desktop/AIoT_software/LiteOS_Lab_overseas/LiteOS_Lab/iot_link/network/lwm2m/wakaama_lwm2m/core\objects.c **** bool object_isInstanceNew(lwm2m_context_t *contextP,
 588:C:/Users/dtjld/Desktop/AIoT_software/LiteOS_Lab_overseas/LiteOS_Lab/iot_link/network/lwm2m/wakaama_lwm2m/core\objects.c ****                           uint16_t objectId,
 589:C:/Users/dtjld/Desktop/AIoT_software/LiteOS_Lab_overseas/LiteOS_Lab/iot_link/network/lwm2m/wakaama_lwm2m/core\objects.c ****                           uint16_t instanceId)
 590:C:/Users/dtjld/Desktop/AIoT_software/LiteOS_Lab_overseas/LiteOS_Lab/iot_link/network/lwm2m/wakaama_lwm2m/core\objects.c **** {
 2439              		.loc 1 590 0
 2440              		.cfi_startproc
 2441              		@ args = 0, pretend = 0, frame = 16
 2442              		@ frame_needed = 1, uses_anonymous_args = 0
 2443 0000 90B5     		push	{r4, r7, lr}
 2444              	.LCFI50:
 2445              		.cfi_def_cfa_offset 12
 2446              		.cfi_offset 4, -12
 2447              		.cfi_offset 7, -8
 2448              		.cfi_offset 14, -4
 2449 0002 85B0     		sub	sp, sp, #20
 2450              	.LCFI51:
 2451              		.cfi_def_cfa_offset 32
 2452 0004 00AF     		add	r7, sp, #0
 2453              	.LCFI52:
 2454              		.cfi_def_cfa_register 7
 2455 0006 7860     		str	r0, [r7, #4]
 2456 0008 0B46     		mov	r3, r1
 2457 000a 7B80     		strh	r3, [r7, #2]	@ movhi
 2458 000c 1346     		mov	r3, r2	@ movhi
 2459 000e 3B80     		strh	r3, [r7]	@ movhi
 591:C:/Users/dtjld/Desktop/AIoT_software/LiteOS_Lab_overseas/LiteOS_Lab/iot_link/network/lwm2m/wakaama_lwm2m/core\objects.c ****     lwm2m_object_t *targetP;
 592:C:/Users/dtjld/Desktop/AIoT_software/LiteOS_Lab_overseas/LiteOS_Lab/iot_link/network/lwm2m/wakaama_lwm2m/core\objects.c **** 
 593:C:/Users/dtjld/Desktop/AIoT_software/LiteOS_Lab_overseas/LiteOS_Lab/iot_link/network/lwm2m/wakaama_lwm2m/core\objects.c ****     LOG("Entering");
 2460              		.loc 1 593 0
 2461 0010 FFF7FEFF 		bl	lwm2m_gettime
 2462 0014 0346     		mov	r3, r0
 2463 0016 0C46     		mov	r4, r1
 2464 0018 1946     		mov	r1, r3
 2465 001a 40F25123 		movw	r3, #593
 2466 001e 104A     		ldr	r2, .L166
 2467 0020 1048     		ldr	r0, .L166+4
 2468 0022 FFF7FEFF 		bl	atiny_printf
 594:C:/Users/dtjld/Desktop/AIoT_software/LiteOS_Lab_overseas/LiteOS_Lab/iot_link/network/lwm2m/wakaama_lwm2m/core\objects.c ****     targetP = (lwm2m_object_t *)LWM2M_LIST_FIND(contextP->objectList, objectId);
 2469              		.loc 1 594 0
 2470 0026 7B68     		ldr	r3, [r7, #4]
 2471 0028 9B69     		ldr	r3, [r3, #24]
ARM GAS  C:\Users\dtjld\AppData\Local\Temp\cclRRs7D.s 			page 55


 2472 002a 7A88     		ldrh	r2, [r7, #2]
 2473 002c 1146     		mov	r1, r2
 2474 002e 1846     		mov	r0, r3
 2475 0030 FFF7FEFF 		bl	lwm2m_list_find
 2476 0034 F860     		str	r0, [r7, #12]
 595:C:/Users/dtjld/Desktop/AIoT_software/LiteOS_Lab_overseas/LiteOS_Lab/iot_link/network/lwm2m/wakaama_lwm2m/core\objects.c ****     if (targetP != NULL)
 2477              		.loc 1 595 0
 2478 0036 FB68     		ldr	r3, [r7, #12]
 2479 0038 002B     		cmp	r3, #0
 2480 003a 0BD0     		beq	.L164
 596:C:/Users/dtjld/Desktop/AIoT_software/LiteOS_Lab_overseas/LiteOS_Lab/iot_link/network/lwm2m/wakaama_lwm2m/core\objects.c ****     {
 597:C:/Users/dtjld/Desktop/AIoT_software/LiteOS_Lab_overseas/LiteOS_Lab/iot_link/network/lwm2m/wakaama_lwm2m/core\objects.c ****         if (NULL != lwm2m_list_find(targetP->instanceList, instanceId))
 2481              		.loc 1 597 0
 2482 003c FB68     		ldr	r3, [r7, #12]
 2483 003e 9B68     		ldr	r3, [r3, #8]
 2484 0040 3A88     		ldrh	r2, [r7]
 2485 0042 1146     		mov	r1, r2
 2486 0044 1846     		mov	r0, r3
 2487 0046 FFF7FEFF 		bl	lwm2m_list_find
 2488 004a 0346     		mov	r3, r0
 2489 004c 002B     		cmp	r3, #0
 2490 004e 01D0     		beq	.L164
 598:C:/Users/dtjld/Desktop/AIoT_software/LiteOS_Lab_overseas/LiteOS_Lab/iot_link/network/lwm2m/wakaama_lwm2m/core\objects.c ****         {
 599:C:/Users/dtjld/Desktop/AIoT_software/LiteOS_Lab_overseas/LiteOS_Lab/iot_link/network/lwm2m/wakaama_lwm2m/core\objects.c ****             return false;
 2491              		.loc 1 599 0
 2492 0050 0023     		movs	r3, #0
 2493 0052 00E0     		b	.L165
 2494              	.L164:
 600:C:/Users/dtjld/Desktop/AIoT_software/LiteOS_Lab_overseas/LiteOS_Lab/iot_link/network/lwm2m/wakaama_lwm2m/core\objects.c ****         }
 601:C:/Users/dtjld/Desktop/AIoT_software/LiteOS_Lab_overseas/LiteOS_Lab/iot_link/network/lwm2m/wakaama_lwm2m/core\objects.c ****     }
 602:C:/Users/dtjld/Desktop/AIoT_software/LiteOS_Lab_overseas/LiteOS_Lab/iot_link/network/lwm2m/wakaama_lwm2m/core\objects.c **** 
 603:C:/Users/dtjld/Desktop/AIoT_software/LiteOS_Lab_overseas/LiteOS_Lab/iot_link/network/lwm2m/wakaama_lwm2m/core\objects.c ****     return true;
 2495              		.loc 1 603 0
 2496 0054 0123     		movs	r3, #1
 2497              	.L165:
 604:C:/Users/dtjld/Desktop/AIoT_software/LiteOS_Lab_overseas/LiteOS_Lab/iot_link/network/lwm2m/wakaama_lwm2m/core\objects.c **** }
 2498              		.loc 1 604 0
 2499 0056 1846     		mov	r0, r3
 2500 0058 1437     		adds	r7, r7, #20
 2501              	.LCFI53:
 2502              		.cfi_def_cfa_offset 12
 2503 005a BD46     		mov	sp, r7
 2504              	.LCFI54:
 2505              		.cfi_def_cfa_register 13
 2506              		@ sp needed
 2507 005c 90BD     		pop	{r4, r7, pc}
 2508              	.L167:
 2509 005e 00BF     		.align	2
 2510              	.L166:
 2511 0060 00000000 		.word	__func__.8968
 2512 0064 98000000 		.word	.LC7
 2513              		.cfi_endproc
 2514              	.LFE22:
 2516              		.section	.text.prv_getObjectTemplate,"ax",%progbits
 2517              		.align	1
 2518              		.syntax unified
 2519              		.thumb
ARM GAS  C:\Users\dtjld\AppData\Local\Temp\cclRRs7D.s 			page 56


 2520              		.thumb_func
 2521              		.fpu fpv4-sp-d16
 2523              	prv_getObjectTemplate:
 2524              	.LFB23:
 605:C:/Users/dtjld/Desktop/AIoT_software/LiteOS_Lab_overseas/LiteOS_Lab/iot_link/network/lwm2m/wakaama_lwm2m/core\objects.c **** 
 606:C:/Users/dtjld/Desktop/AIoT_software/LiteOS_Lab_overseas/LiteOS_Lab/iot_link/network/lwm2m/wakaama_lwm2m/core\objects.c **** static int prv_getObjectTemplate(uint8_t *buffer,
 607:C:/Users/dtjld/Desktop/AIoT_software/LiteOS_Lab_overseas/LiteOS_Lab/iot_link/network/lwm2m/wakaama_lwm2m/core\objects.c ****                                  size_t length,
 608:C:/Users/dtjld/Desktop/AIoT_software/LiteOS_Lab_overseas/LiteOS_Lab/iot_link/network/lwm2m/wakaama_lwm2m/core\objects.c ****                                  uint16_t id)
 609:C:/Users/dtjld/Desktop/AIoT_software/LiteOS_Lab_overseas/LiteOS_Lab/iot_link/network/lwm2m/wakaama_lwm2m/core\objects.c **** {
 2525              		.loc 1 609 0
 2526              		.cfi_startproc
 2527              		@ args = 0, pretend = 0, frame = 24
 2528              		@ frame_needed = 1, uses_anonymous_args = 0
 2529 0000 90B5     		push	{r4, r7, lr}
 2530              	.LCFI55:
 2531              		.cfi_def_cfa_offset 12
 2532              		.cfi_offset 4, -12
 2533              		.cfi_offset 7, -8
 2534              		.cfi_offset 14, -4
 2535 0002 87B0     		sub	sp, sp, #28
 2536              	.LCFI56:
 2537              		.cfi_def_cfa_offset 40
 2538 0004 00AF     		add	r7, sp, #0
 2539              	.LCFI57:
 2540              		.cfi_def_cfa_register 7
 2541 0006 F860     		str	r0, [r7, #12]
 2542 0008 B960     		str	r1, [r7, #8]
 2543 000a 1346     		mov	r3, r2
 2544 000c FB80     		strh	r3, [r7, #6]	@ movhi
 610:C:/Users/dtjld/Desktop/AIoT_software/LiteOS_Lab_overseas/LiteOS_Lab/iot_link/network/lwm2m/wakaama_lwm2m/core\objects.c ****     int index;
 611:C:/Users/dtjld/Desktop/AIoT_software/LiteOS_Lab_overseas/LiteOS_Lab/iot_link/network/lwm2m/wakaama_lwm2m/core\objects.c ****     int result;
 612:C:/Users/dtjld/Desktop/AIoT_software/LiteOS_Lab_overseas/LiteOS_Lab/iot_link/network/lwm2m/wakaama_lwm2m/core\objects.c **** 
 613:C:/Users/dtjld/Desktop/AIoT_software/LiteOS_Lab_overseas/LiteOS_Lab/iot_link/network/lwm2m/wakaama_lwm2m/core\objects.c ****     if (length < REG_OBJECT_MIN_LEN) return -1;
 2545              		.loc 1 613 0
 2546 000e BB68     		ldr	r3, [r7, #8]
 2547 0010 042B     		cmp	r3, #4
 2548 0012 02D8     		bhi	.L169
 2549              		.loc 1 613 0 is_stmt 0 discriminator 1
 2550 0014 4FF0FF33 		mov	r3, #-1
 2551 0018 31E0     		b	.L170
 2552              	.L169:
 614:C:/Users/dtjld/Desktop/AIoT_software/LiteOS_Lab_overseas/LiteOS_Lab/iot_link/network/lwm2m/wakaama_lwm2m/core\objects.c **** 
 615:C:/Users/dtjld/Desktop/AIoT_software/LiteOS_Lab_overseas/LiteOS_Lab/iot_link/network/lwm2m/wakaama_lwm2m/core\objects.c ****     buffer[0] = '<';
 2553              		.loc 1 615 0 is_stmt 1
 2554 001a FB68     		ldr	r3, [r7, #12]
 2555 001c 3C22     		movs	r2, #60
 2556 001e 1A70     		strb	r2, [r3]
 616:C:/Users/dtjld/Desktop/AIoT_software/LiteOS_Lab_overseas/LiteOS_Lab/iot_link/network/lwm2m/wakaama_lwm2m/core\objects.c ****     buffer[1] = '/';
 2557              		.loc 1 616 0
 2558 0020 FB68     		ldr	r3, [r7, #12]
 2559 0022 0133     		adds	r3, r3, #1
 2560 0024 2F22     		movs	r2, #47
 2561 0026 1A70     		strb	r2, [r3]
 617:C:/Users/dtjld/Desktop/AIoT_software/LiteOS_Lab_overseas/LiteOS_Lab/iot_link/network/lwm2m/wakaama_lwm2m/core\objects.c ****     index = 2;
 2562              		.loc 1 617 0
 2563 0028 0223     		movs	r3, #2
 2564 002a 7B61     		str	r3, [r7, #20]
ARM GAS  C:\Users\dtjld\AppData\Local\Temp\cclRRs7D.s 			page 57


 618:C:/Users/dtjld/Desktop/AIoT_software/LiteOS_Lab_overseas/LiteOS_Lab/iot_link/network/lwm2m/wakaama_lwm2m/core\objects.c **** 
 619:C:/Users/dtjld/Desktop/AIoT_software/LiteOS_Lab_overseas/LiteOS_Lab/iot_link/network/lwm2m/wakaama_lwm2m/core\objects.c ****     result = utils_intToText(id, buffer + index, length - index);
 2565              		.loc 1 619 0
 2566 002c F888     		ldrh	r0, [r7, #6]
 2567 002e 4FF00001 		mov	r1, #0
 2568 0032 7B69     		ldr	r3, [r7, #20]
 2569 0034 FA68     		ldr	r2, [r7, #12]
 2570 0036 D418     		adds	r4, r2, r3
 2571 0038 7B69     		ldr	r3, [r7, #20]
 2572 003a BA68     		ldr	r2, [r7, #8]
 2573 003c D31A     		subs	r3, r2, r3
 2574 003e 2246     		mov	r2, r4
 2575 0040 FFF7FEFF 		bl	utils_intToText
 2576 0044 0346     		mov	r3, r0
 2577 0046 3B61     		str	r3, [r7, #16]
 620:C:/Users/dtjld/Desktop/AIoT_software/LiteOS_Lab_overseas/LiteOS_Lab/iot_link/network/lwm2m/wakaama_lwm2m/core\objects.c ****     if (result == 0) return -1;
 2578              		.loc 1 620 0
 2579 0048 3B69     		ldr	r3, [r7, #16]
 2580 004a 002B     		cmp	r3, #0
 2581 004c 02D1     		bne	.L171
 2582              		.loc 1 620 0 is_stmt 0 discriminator 1
 2583 004e 4FF0FF33 		mov	r3, #-1
 2584 0052 14E0     		b	.L170
 2585              	.L171:
 621:C:/Users/dtjld/Desktop/AIoT_software/LiteOS_Lab_overseas/LiteOS_Lab/iot_link/network/lwm2m/wakaama_lwm2m/core\objects.c ****     index += result;
 2586              		.loc 1 621 0 is_stmt 1
 2587 0054 7A69     		ldr	r2, [r7, #20]
 2588 0056 3B69     		ldr	r3, [r7, #16]
 2589 0058 1344     		add	r3, r3, r2
 2590 005a 7B61     		str	r3, [r7, #20]
 622:C:/Users/dtjld/Desktop/AIoT_software/LiteOS_Lab_overseas/LiteOS_Lab/iot_link/network/lwm2m/wakaama_lwm2m/core\objects.c **** 
 623:C:/Users/dtjld/Desktop/AIoT_software/LiteOS_Lab_overseas/LiteOS_Lab/iot_link/network/lwm2m/wakaama_lwm2m/core\objects.c ****     if (length - index < REG_OBJECT_MIN_LEN - 3) return -1;
 2591              		.loc 1 623 0
 2592 005c 7B69     		ldr	r3, [r7, #20]
 2593 005e BA68     		ldr	r2, [r7, #8]
 2594 0060 D31A     		subs	r3, r2, r3
 2595 0062 012B     		cmp	r3, #1
 2596 0064 02D8     		bhi	.L172
 2597              		.loc 1 623 0 is_stmt 0 discriminator 1
 2598 0066 4FF0FF33 		mov	r3, #-1
 2599 006a 08E0     		b	.L170
 2600              	.L172:
 624:C:/Users/dtjld/Desktop/AIoT_software/LiteOS_Lab_overseas/LiteOS_Lab/iot_link/network/lwm2m/wakaama_lwm2m/core\objects.c ****     buffer[index] = '/';
 2601              		.loc 1 624 0 is_stmt 1
 2602 006c 7B69     		ldr	r3, [r7, #20]
 2603 006e FA68     		ldr	r2, [r7, #12]
 2604 0070 1344     		add	r3, r3, r2
 2605 0072 2F22     		movs	r2, #47
 2606 0074 1A70     		strb	r2, [r3]
 625:C:/Users/dtjld/Desktop/AIoT_software/LiteOS_Lab_overseas/LiteOS_Lab/iot_link/network/lwm2m/wakaama_lwm2m/core\objects.c ****     index++;
 2607              		.loc 1 625 0
 2608 0076 7B69     		ldr	r3, [r7, #20]
 2609 0078 0133     		adds	r3, r3, #1
 2610 007a 7B61     		str	r3, [r7, #20]
 626:C:/Users/dtjld/Desktop/AIoT_software/LiteOS_Lab_overseas/LiteOS_Lab/iot_link/network/lwm2m/wakaama_lwm2m/core\objects.c **** 
 627:C:/Users/dtjld/Desktop/AIoT_software/LiteOS_Lab_overseas/LiteOS_Lab/iot_link/network/lwm2m/wakaama_lwm2m/core\objects.c ****     return index;
 2611              		.loc 1 627 0
ARM GAS  C:\Users\dtjld\AppData\Local\Temp\cclRRs7D.s 			page 58


 2612 007c 7B69     		ldr	r3, [r7, #20]
 2613              	.L170:
 628:C:/Users/dtjld/Desktop/AIoT_software/LiteOS_Lab_overseas/LiteOS_Lab/iot_link/network/lwm2m/wakaama_lwm2m/core\objects.c **** }
 2614              		.loc 1 628 0
 2615 007e 1846     		mov	r0, r3
 2616 0080 1C37     		adds	r7, r7, #28
 2617              	.LCFI58:
 2618              		.cfi_def_cfa_offset 12
 2619 0082 BD46     		mov	sp, r7
 2620              	.LCFI59:
 2621              		.cfi_def_cfa_register 13
 2622              		@ sp needed
 2623 0084 90BD     		pop	{r4, r7, pc}
 2624              		.cfi_endproc
 2625              	.LFE23:
 2627              		.section	.text.object_getRegisterPayloadBufferLength,"ax",%progbits
 2628              		.align	1
 2629              		.global	object_getRegisterPayloadBufferLength
 2630              		.syntax unified
 2631              		.thumb
 2632              		.thumb_func
 2633              		.fpu fpv4-sp-d16
 2635              	object_getRegisterPayloadBufferLength:
 2636              	.LFB24:
 629:C:/Users/dtjld/Desktop/AIoT_software/LiteOS_Lab_overseas/LiteOS_Lab/iot_link/network/lwm2m/wakaama_lwm2m/core\objects.c **** 
 630:C:/Users/dtjld/Desktop/AIoT_software/LiteOS_Lab_overseas/LiteOS_Lab/iot_link/network/lwm2m/wakaama_lwm2m/core\objects.c **** int object_getRegisterPayloadBufferLength(lwm2m_context_t *contextP)
 631:C:/Users/dtjld/Desktop/AIoT_software/LiteOS_Lab_overseas/LiteOS_Lab/iot_link/network/lwm2m/wakaama_lwm2m/core\objects.c **** {
 2637              		.loc 1 631 0
 2638              		.cfi_startproc
 2639              		@ args = 0, pretend = 0, frame = 48
 2640              		@ frame_needed = 1, uses_anonymous_args = 0
 2641 0000 90B5     		push	{r4, r7, lr}
 2642              	.LCFI60:
 2643              		.cfi_def_cfa_offset 12
 2644              		.cfi_offset 4, -12
 2645              		.cfi_offset 7, -8
 2646              		.cfi_offset 14, -4
 2647 0002 8DB0     		sub	sp, sp, #52
 2648              	.LCFI61:
 2649              		.cfi_def_cfa_offset 64
 2650 0004 00AF     		add	r7, sp, #0
 2651              	.LCFI62:
 2652              		.cfi_def_cfa_register 7
 2653 0006 7860     		str	r0, [r7, #4]
 632:C:/Users/dtjld/Desktop/AIoT_software/LiteOS_Lab_overseas/LiteOS_Lab/iot_link/network/lwm2m/wakaama_lwm2m/core\objects.c ****     size_t index;
 633:C:/Users/dtjld/Desktop/AIoT_software/LiteOS_Lab_overseas/LiteOS_Lab/iot_link/network/lwm2m/wakaama_lwm2m/core\objects.c ****     int result;
 634:C:/Users/dtjld/Desktop/AIoT_software/LiteOS_Lab_overseas/LiteOS_Lab/iot_link/network/lwm2m/wakaama_lwm2m/core\objects.c ****     lwm2m_object_t *objectP;
 635:C:/Users/dtjld/Desktop/AIoT_software/LiteOS_Lab_overseas/LiteOS_Lab/iot_link/network/lwm2m/wakaama_lwm2m/core\objects.c ****     char buffer[REG_OBJECT_MIN_LEN + 5];
 636:C:/Users/dtjld/Desktop/AIoT_software/LiteOS_Lab_overseas/LiteOS_Lab/iot_link/network/lwm2m/wakaama_lwm2m/core\objects.c **** 
 637:C:/Users/dtjld/Desktop/AIoT_software/LiteOS_Lab_overseas/LiteOS_Lab/iot_link/network/lwm2m/wakaama_lwm2m/core\objects.c ****     LOG("Entering");
 2654              		.loc 1 637 0
 2655 0008 FFF7FEFF 		bl	lwm2m_gettime
 2656 000c 0346     		mov	r3, r0
 2657 000e 0C46     		mov	r4, r1
 2658 0010 1946     		mov	r1, r3
 2659 0012 40F27D23 		movw	r3, #637
 2660 0016 424A     		ldr	r2, .L189
ARM GAS  C:\Users\dtjld\AppData\Local\Temp\cclRRs7D.s 			page 59


 2661 0018 4248     		ldr	r0, .L189+4
 2662 001a FFF7FEFF 		bl	atiny_printf
 638:C:/Users/dtjld/Desktop/AIoT_software/LiteOS_Lab_overseas/LiteOS_Lab/iot_link/network/lwm2m/wakaama_lwm2m/core\objects.c ****     index = strlen(REG_START);
 2663              		.loc 1 638 0
 2664 001e 0123     		movs	r3, #1
 2665 0020 FB62     		str	r3, [r7, #44]
 639:C:/Users/dtjld/Desktop/AIoT_software/LiteOS_Lab_overseas/LiteOS_Lab/iot_link/network/lwm2m/wakaama_lwm2m/core\objects.c **** 
 640:C:/Users/dtjld/Desktop/AIoT_software/LiteOS_Lab_overseas/LiteOS_Lab/iot_link/network/lwm2m/wakaama_lwm2m/core\objects.c ****     if ((contextP->altPath != NULL)
 2666              		.loc 1 640 0
 2667 0022 7B68     		ldr	r3, [r7, #4]
 2668 0024 DB68     		ldr	r3, [r3, #12]
 2669 0026 002B     		cmp	r3, #0
 2670 0028 0ED0     		beq	.L174
 641:C:/Users/dtjld/Desktop/AIoT_software/LiteOS_Lab_overseas/LiteOS_Lab/iot_link/network/lwm2m/wakaama_lwm2m/core\objects.c ****             && (contextP->altPath[0] != 0))
 2671              		.loc 1 641 0
 2672 002a 7B68     		ldr	r3, [r7, #4]
 2673 002c DB68     		ldr	r3, [r3, #12]
 2674 002e 1B78     		ldrb	r3, [r3]	@ zero_extendqisi2
 2675 0030 002B     		cmp	r3, #0
 2676 0032 09D0     		beq	.L174
 642:C:/Users/dtjld/Desktop/AIoT_software/LiteOS_Lab_overseas/LiteOS_Lab/iot_link/network/lwm2m/wakaama_lwm2m/core\objects.c ****     {
 643:C:/Users/dtjld/Desktop/AIoT_software/LiteOS_Lab_overseas/LiteOS_Lab/iot_link/network/lwm2m/wakaama_lwm2m/core\objects.c ****         index += strlen(contextP->altPath);
 2677              		.loc 1 643 0
 2678 0034 7B68     		ldr	r3, [r7, #4]
 2679 0036 DB68     		ldr	r3, [r3, #12]
 2680 0038 1846     		mov	r0, r3
 2681 003a FFF7FEFF 		bl	strlen
 2682 003e 0246     		mov	r2, r0
 2683 0040 FB6A     		ldr	r3, [r7, #44]
 2684 0042 1344     		add	r3, r3, r2
 2685 0044 FB62     		str	r3, [r7, #44]
 2686 0046 02E0     		b	.L175
 2687              	.L174:
 644:C:/Users/dtjld/Desktop/AIoT_software/LiteOS_Lab_overseas/LiteOS_Lab/iot_link/network/lwm2m/wakaama_lwm2m/core\objects.c ****     }
 645:C:/Users/dtjld/Desktop/AIoT_software/LiteOS_Lab_overseas/LiteOS_Lab/iot_link/network/lwm2m/wakaama_lwm2m/core\objects.c ****     else
 646:C:/Users/dtjld/Desktop/AIoT_software/LiteOS_Lab_overseas/LiteOS_Lab/iot_link/network/lwm2m/wakaama_lwm2m/core\objects.c ****     {
 647:C:/Users/dtjld/Desktop/AIoT_software/LiteOS_Lab_overseas/LiteOS_Lab/iot_link/network/lwm2m/wakaama_lwm2m/core\objects.c ****         index += strlen(REG_DEFAULT_PATH); // "/"
 2688              		.loc 1 647 0
 2689 0048 FB6A     		ldr	r3, [r7, #44]
 2690 004a 0133     		adds	r3, r3, #1
 2691 004c FB62     		str	r3, [r7, #44]
 2692              	.L175:
 648:C:/Users/dtjld/Desktop/AIoT_software/LiteOS_Lab_overseas/LiteOS_Lab/iot_link/network/lwm2m/wakaama_lwm2m/core\objects.c ****     }
 649:C:/Users/dtjld/Desktop/AIoT_software/LiteOS_Lab_overseas/LiteOS_Lab/iot_link/network/lwm2m/wakaama_lwm2m/core\objects.c **** 
 650:C:/Users/dtjld/Desktop/AIoT_software/LiteOS_Lab_overseas/LiteOS_Lab/iot_link/network/lwm2m/wakaama_lwm2m/core\objects.c ****     index += strlen(REG_LWM2M_RESOURCE_TYPE);//">;rt=\"oma.lwm2m\";ct=11543,"
 2693              		.loc 1 650 0
 2694 004e FB6A     		ldr	r3, [r7, #44]
 2695 0050 1133     		adds	r3, r3, #17
 2696 0052 FB62     		str	r3, [r7, #44]
 651:C:/Users/dtjld/Desktop/AIoT_software/LiteOS_Lab_overseas/LiteOS_Lab/iot_link/network/lwm2m/wakaama_lwm2m/core\objects.c **** 
 652:C:/Users/dtjld/Desktop/AIoT_software/LiteOS_Lab_overseas/LiteOS_Lab/iot_link/network/lwm2m/wakaama_lwm2m/core\objects.c ****     for (objectP = contextP->objectList; objectP != NULL; objectP = objectP->next)
 2697              		.loc 1 652 0
 2698 0054 7B68     		ldr	r3, [r7, #4]
 2699 0056 9B69     		ldr	r3, [r3, #24]
 2700 0058 BB62     		str	r3, [r7, #40]
 2701 005a 55E0     		b	.L176
 2702              	.L186:
ARM GAS  C:\Users\dtjld\AppData\Local\Temp\cclRRs7D.s 			page 60


 2703              	.LBB6:
 653:C:/Users/dtjld/Desktop/AIoT_software/LiteOS_Lab_overseas/LiteOS_Lab/iot_link/network/lwm2m/wakaama_lwm2m/core\objects.c ****     {
 654:C:/Users/dtjld/Desktop/AIoT_software/LiteOS_Lab_overseas/LiteOS_Lab/iot_link/network/lwm2m/wakaama_lwm2m/core\objects.c ****         size_t start;
 655:C:/Users/dtjld/Desktop/AIoT_software/LiteOS_Lab_overseas/LiteOS_Lab/iot_link/network/lwm2m/wakaama_lwm2m/core\objects.c ****         size_t length;
 656:C:/Users/dtjld/Desktop/AIoT_software/LiteOS_Lab_overseas/LiteOS_Lab/iot_link/network/lwm2m/wakaama_lwm2m/core\objects.c **** 
 657:C:/Users/dtjld/Desktop/AIoT_software/LiteOS_Lab_overseas/LiteOS_Lab/iot_link/network/lwm2m/wakaama_lwm2m/core\objects.c ****         if (objectP->objID == LWM2M_SECURITY_OBJECT_ID) continue;
 2704              		.loc 1 657 0
 2705 005c BB6A     		ldr	r3, [r7, #40]
 2706 005e 9B88     		ldrh	r3, [r3, #4]
 2707 0060 002B     		cmp	r3, #0
 2708 0062 4DD0     		beq	.L188
 658:C:/Users/dtjld/Desktop/AIoT_software/LiteOS_Lab_overseas/LiteOS_Lab/iot_link/network/lwm2m/wakaama_lwm2m/core\objects.c **** 
 659:C:/Users/dtjld/Desktop/AIoT_software/LiteOS_Lab_overseas/LiteOS_Lab/iot_link/network/lwm2m/wakaama_lwm2m/core\objects.c ****         start = index;
 2709              		.loc 1 659 0
 2710 0064 FB6A     		ldr	r3, [r7, #44]
 2711 0066 3B62     		str	r3, [r7, #32]
 660:C:/Users/dtjld/Desktop/AIoT_software/LiteOS_Lab_overseas/LiteOS_Lab/iot_link/network/lwm2m/wakaama_lwm2m/core\objects.c ****         result = prv_getObjectTemplate((uint8_t *)buffer, sizeof(buffer), objectP->objID);
 2712              		.loc 1 660 0
 2713 0068 BB6A     		ldr	r3, [r7, #40]
 2714 006a 9A88     		ldrh	r2, [r3, #4]
 2715 006c 07F10C03 		add	r3, r7, #12
 2716 0070 0A21     		movs	r1, #10
 2717 0072 1846     		mov	r0, r3
 2718 0074 FFF7FEFF 		bl	prv_getObjectTemplate
 2719 0078 F861     		str	r0, [r7, #28]
 661:C:/Users/dtjld/Desktop/AIoT_software/LiteOS_Lab_overseas/LiteOS_Lab/iot_link/network/lwm2m/wakaama_lwm2m/core\objects.c ****         if (result < 0) return 0;
 2720              		.loc 1 661 0
 2721 007a FB69     		ldr	r3, [r7, #28]
 2722 007c 002B     		cmp	r3, #0
 2723 007e 01DA     		bge	.L179
 2724              		.loc 1 661 0 is_stmt 0 discriminator 1
 2725 0080 0023     		movs	r3, #0
 2726 0082 48E0     		b	.L187
 2727              	.L179:
 662:C:/Users/dtjld/Desktop/AIoT_software/LiteOS_Lab_overseas/LiteOS_Lab/iot_link/network/lwm2m/wakaama_lwm2m/core\objects.c ****         length = result;
 2728              		.loc 1 662 0 is_stmt 1
 2729 0084 FB69     		ldr	r3, [r7, #28]
 2730 0086 BB61     		str	r3, [r7, #24]
 663:C:/Users/dtjld/Desktop/AIoT_software/LiteOS_Lab_overseas/LiteOS_Lab/iot_link/network/lwm2m/wakaama_lwm2m/core\objects.c ****         index += length;
 2731              		.loc 1 663 0
 2732 0088 FA6A     		ldr	r2, [r7, #44]
 2733 008a BB69     		ldr	r3, [r7, #24]
 2734 008c 1344     		add	r3, r3, r2
 2735 008e FB62     		str	r3, [r7, #44]
 664:C:/Users/dtjld/Desktop/AIoT_software/LiteOS_Lab_overseas/LiteOS_Lab/iot_link/network/lwm2m/wakaama_lwm2m/core\objects.c **** 
 665:C:/Users/dtjld/Desktop/AIoT_software/LiteOS_Lab_overseas/LiteOS_Lab/iot_link/network/lwm2m/wakaama_lwm2m/core\objects.c ****         if (objectP->instanceList == NULL)
 2736              		.loc 1 665 0
 2737 0090 BB6A     		ldr	r3, [r7, #40]
 2738 0092 9B68     		ldr	r3, [r3, #8]
 2739 0094 002B     		cmp	r3, #0
 2740 0096 06D1     		bne	.L181
 666:C:/Users/dtjld/Desktop/AIoT_software/LiteOS_Lab_overseas/LiteOS_Lab/iot_link/network/lwm2m/wakaama_lwm2m/core\objects.c ****         {
 667:C:/Users/dtjld/Desktop/AIoT_software/LiteOS_Lab_overseas/LiteOS_Lab/iot_link/network/lwm2m/wakaama_lwm2m/core\objects.c ****             index -= 1;
 2741              		.loc 1 667 0
 2742 0098 FB6A     		ldr	r3, [r7, #44]
 2743 009a 013B     		subs	r3, r3, #1
 2744 009c FB62     		str	r3, [r7, #44]
ARM GAS  C:\Users\dtjld\AppData\Local\Temp\cclRRs7D.s 			page 61


 668:C:/Users/dtjld/Desktop/AIoT_software/LiteOS_Lab_overseas/LiteOS_Lab/iot_link/network/lwm2m/wakaama_lwm2m/core\objects.c ****             index += strlen(REG_PATH_END); //">,"
 2745              		.loc 1 668 0
 2746 009e FB6A     		ldr	r3, [r7, #44]
 2747 00a0 0233     		adds	r3, r3, #2
 2748 00a2 FB62     		str	r3, [r7, #44]
 2749 00a4 2DE0     		b	.L178
 2750              	.L181:
 2751              	.LBB7:
 669:C:/Users/dtjld/Desktop/AIoT_software/LiteOS_Lab_overseas/LiteOS_Lab/iot_link/network/lwm2m/wakaama_lwm2m/core\objects.c ****         }
 670:C:/Users/dtjld/Desktop/AIoT_software/LiteOS_Lab_overseas/LiteOS_Lab/iot_link/network/lwm2m/wakaama_lwm2m/core\objects.c ****         else
 671:C:/Users/dtjld/Desktop/AIoT_software/LiteOS_Lab_overseas/LiteOS_Lab/iot_link/network/lwm2m/wakaama_lwm2m/core\objects.c ****         {
 672:C:/Users/dtjld/Desktop/AIoT_software/LiteOS_Lab_overseas/LiteOS_Lab/iot_link/network/lwm2m/wakaama_lwm2m/core\objects.c ****             lwm2m_list_t *targetP;
 673:C:/Users/dtjld/Desktop/AIoT_software/LiteOS_Lab_overseas/LiteOS_Lab/iot_link/network/lwm2m/wakaama_lwm2m/core\objects.c ****             for (targetP = objectP->instanceList ; targetP != NULL ; targetP = targetP->next)
 2752              		.loc 1 673 0
 2753 00a6 BB6A     		ldr	r3, [r7, #40]
 2754 00a8 9B68     		ldr	r3, [r3, #8]
 2755 00aa 7B62     		str	r3, [r7, #36]
 2756 00ac 24E0     		b	.L182
 2757              	.L185:
 674:C:/Users/dtjld/Desktop/AIoT_software/LiteOS_Lab_overseas/LiteOS_Lab/iot_link/network/lwm2m/wakaama_lwm2m/core\objects.c ****             {
 675:C:/Users/dtjld/Desktop/AIoT_software/LiteOS_Lab_overseas/LiteOS_Lab/iot_link/network/lwm2m/wakaama_lwm2m/core\objects.c ****                 if (index != start + length)
 2758              		.loc 1 675 0
 2759 00ae 3A6A     		ldr	r2, [r7, #32]
 2760 00b0 BB69     		ldr	r3, [r7, #24]
 2761 00b2 1344     		add	r3, r3, r2
 2762 00b4 FA6A     		ldr	r2, [r7, #44]
 2763 00b6 9A42     		cmp	r2, r3
 2764 00b8 03D0     		beq	.L183
 676:C:/Users/dtjld/Desktop/AIoT_software/LiteOS_Lab_overseas/LiteOS_Lab/iot_link/network/lwm2m/wakaama_lwm2m/core\objects.c ****                 {
 677:C:/Users/dtjld/Desktop/AIoT_software/LiteOS_Lab_overseas/LiteOS_Lab/iot_link/network/lwm2m/wakaama_lwm2m/core\objects.c ****                     index += length;
 2765              		.loc 1 677 0
 2766 00ba FA6A     		ldr	r2, [r7, #44]
 2767 00bc BB69     		ldr	r3, [r7, #24]
 2768 00be 1344     		add	r3, r3, r2
 2769 00c0 FB62     		str	r3, [r7, #44]
 2770              	.L183:
 678:C:/Users/dtjld/Desktop/AIoT_software/LiteOS_Lab_overseas/LiteOS_Lab/iot_link/network/lwm2m/wakaama_lwm2m/core\objects.c ****                 }
 679:C:/Users/dtjld/Desktop/AIoT_software/LiteOS_Lab_overseas/LiteOS_Lab/iot_link/network/lwm2m/wakaama_lwm2m/core\objects.c **** 
 680:C:/Users/dtjld/Desktop/AIoT_software/LiteOS_Lab_overseas/LiteOS_Lab/iot_link/network/lwm2m/wakaama_lwm2m/core\objects.c ****                 result = utils_intToText(targetP->id, (uint8_t *)buffer, sizeof(buffer));
 2771              		.loc 1 680 0
 2772 00c2 7B6A     		ldr	r3, [r7, #36]
 2773 00c4 9B88     		ldrh	r3, [r3, #4]
 2774 00c6 98B2     		uxth	r0, r3
 2775 00c8 4FF00001 		mov	r1, #0
 2776 00cc 07F10C02 		add	r2, r7, #12
 2777 00d0 0A23     		movs	r3, #10
 2778 00d2 FFF7FEFF 		bl	utils_intToText
 2779 00d6 0346     		mov	r3, r0
 2780 00d8 FB61     		str	r3, [r7, #28]
 681:C:/Users/dtjld/Desktop/AIoT_software/LiteOS_Lab_overseas/LiteOS_Lab/iot_link/network/lwm2m/wakaama_lwm2m/core\objects.c ****                 if (result == 0) return 0;
 2781              		.loc 1 681 0
 2782 00da FB69     		ldr	r3, [r7, #28]
 2783 00dc 002B     		cmp	r3, #0
 2784 00de 01D1     		bne	.L184
 2785              		.loc 1 681 0 is_stmt 0 discriminator 1
 2786 00e0 0023     		movs	r3, #0
 2787 00e2 18E0     		b	.L187
ARM GAS  C:\Users\dtjld\AppData\Local\Temp\cclRRs7D.s 			page 62


 2788              	.L184:
 682:C:/Users/dtjld/Desktop/AIoT_software/LiteOS_Lab_overseas/LiteOS_Lab/iot_link/network/lwm2m/wakaama_lwm2m/core\objects.c ****                 index += result;
 2789              		.loc 1 682 0 is_stmt 1 discriminator 2
 2790 00e4 FB69     		ldr	r3, [r7, #28]
 2791 00e6 FA6A     		ldr	r2, [r7, #44]
 2792 00e8 1344     		add	r3, r3, r2
 2793 00ea FB62     		str	r3, [r7, #44]
 683:C:/Users/dtjld/Desktop/AIoT_software/LiteOS_Lab_overseas/LiteOS_Lab/iot_link/network/lwm2m/wakaama_lwm2m/core\objects.c **** 
 684:C:/Users/dtjld/Desktop/AIoT_software/LiteOS_Lab_overseas/LiteOS_Lab/iot_link/network/lwm2m/wakaama_lwm2m/core\objects.c ****                 index += strlen(REG_PATH_END);
 2794              		.loc 1 684 0 discriminator 2
 2795 00ec FB6A     		ldr	r3, [r7, #44]
 2796 00ee 0233     		adds	r3, r3, #2
 2797 00f0 FB62     		str	r3, [r7, #44]
 673:C:/Users/dtjld/Desktop/AIoT_software/LiteOS_Lab_overseas/LiteOS_Lab/iot_link/network/lwm2m/wakaama_lwm2m/core\objects.c ****             {
 2798              		.loc 1 673 0 discriminator 2
 2799 00f2 7B6A     		ldr	r3, [r7, #36]
 2800 00f4 1B68     		ldr	r3, [r3]
 2801 00f6 7B62     		str	r3, [r7, #36]
 2802              	.L182:
 673:C:/Users/dtjld/Desktop/AIoT_software/LiteOS_Lab_overseas/LiteOS_Lab/iot_link/network/lwm2m/wakaama_lwm2m/core\objects.c ****             {
 2803              		.loc 1 673 0 is_stmt 0 discriminator 1
 2804 00f8 7B6A     		ldr	r3, [r7, #36]
 2805 00fa 002B     		cmp	r3, #0
 2806 00fc D7D1     		bne	.L185
 2807 00fe 00E0     		b	.L178
 2808              	.L188:
 2809              	.LBE7:
 657:C:/Users/dtjld/Desktop/AIoT_software/LiteOS_Lab_overseas/LiteOS_Lab/iot_link/network/lwm2m/wakaama_lwm2m/core\objects.c **** 
 2810              		.loc 1 657 0 is_stmt 1
 2811 0100 00BF     		nop
 2812              	.L178:
 2813              	.LBE6:
 652:C:/Users/dtjld/Desktop/AIoT_software/LiteOS_Lab_overseas/LiteOS_Lab/iot_link/network/lwm2m/wakaama_lwm2m/core\objects.c ****     {
 2814              		.loc 1 652 0 discriminator 2
 2815 0102 BB6A     		ldr	r3, [r7, #40]
 2816 0104 1B68     		ldr	r3, [r3]
 2817 0106 BB62     		str	r3, [r7, #40]
 2818              	.L176:
 652:C:/Users/dtjld/Desktop/AIoT_software/LiteOS_Lab_overseas/LiteOS_Lab/iot_link/network/lwm2m/wakaama_lwm2m/core\objects.c ****     {
 2819              		.loc 1 652 0 is_stmt 0 discriminator 1
 2820 0108 BB6A     		ldr	r3, [r7, #40]
 2821 010a 002B     		cmp	r3, #0
 2822 010c A6D1     		bne	.L186
 685:C:/Users/dtjld/Desktop/AIoT_software/LiteOS_Lab_overseas/LiteOS_Lab/iot_link/network/lwm2m/wakaama_lwm2m/core\objects.c ****             }
 686:C:/Users/dtjld/Desktop/AIoT_software/LiteOS_Lab_overseas/LiteOS_Lab/iot_link/network/lwm2m/wakaama_lwm2m/core\objects.c ****         }
 687:C:/Users/dtjld/Desktop/AIoT_software/LiteOS_Lab_overseas/LiteOS_Lab/iot_link/network/lwm2m/wakaama_lwm2m/core\objects.c ****     }
 688:C:/Users/dtjld/Desktop/AIoT_software/LiteOS_Lab_overseas/LiteOS_Lab/iot_link/network/lwm2m/wakaama_lwm2m/core\objects.c **** 
 689:C:/Users/dtjld/Desktop/AIoT_software/LiteOS_Lab_overseas/LiteOS_Lab/iot_link/network/lwm2m/wakaama_lwm2m/core\objects.c ****     index += 1;  // account for trailing null
 2823              		.loc 1 689 0 is_stmt 1
 2824 010e FB6A     		ldr	r3, [r7, #44]
 2825 0110 0133     		adds	r3, r3, #1
 2826 0112 FB62     		str	r3, [r7, #44]
 690:C:/Users/dtjld/Desktop/AIoT_software/LiteOS_Lab_overseas/LiteOS_Lab/iot_link/network/lwm2m/wakaama_lwm2m/core\objects.c **** 
 691:C:/Users/dtjld/Desktop/AIoT_software/LiteOS_Lab_overseas/LiteOS_Lab/iot_link/network/lwm2m/wakaama_lwm2m/core\objects.c ****     // Note that object_getRegisterPayload() has REG_PATH_END added after each
 692:C:/Users/dtjld/Desktop/AIoT_software/LiteOS_Lab_overseas/LiteOS_Lab/iot_link/network/lwm2m/wakaama_lwm2m/core\objects.c ****     // object or instance, and then the trailing comma is replaced by null. The
 693:C:/Users/dtjld/Desktop/AIoT_software/LiteOS_Lab_overseas/LiteOS_Lab/iot_link/network/lwm2m/wakaama_lwm2m/core\objects.c ****     // trailing nulls are not counted as part of the payload length, so this
 694:C:/Users/dtjld/Desktop/AIoT_software/LiteOS_Lab_overseas/LiteOS_Lab/iot_link/network/lwm2m/wakaama_lwm2m/core\objects.c ****     // will return a size two bytes greater than what
ARM GAS  C:\Users\dtjld\AppData\Local\Temp\cclRRs7D.s 			page 63


 695:C:/Users/dtjld/Desktop/AIoT_software/LiteOS_Lab_overseas/LiteOS_Lab/iot_link/network/lwm2m/wakaama_lwm2m/core\objects.c ****     // object_getRegisterPayload() returns.
 696:C:/Users/dtjld/Desktop/AIoT_software/LiteOS_Lab_overseas/LiteOS_Lab/iot_link/network/lwm2m/wakaama_lwm2m/core\objects.c **** 
 697:C:/Users/dtjld/Desktop/AIoT_software/LiteOS_Lab_overseas/LiteOS_Lab/iot_link/network/lwm2m/wakaama_lwm2m/core\objects.c ****     return index;
 2827              		.loc 1 697 0
 2828 0114 FB6A     		ldr	r3, [r7, #44]
 2829              	.L187:
 698:C:/Users/dtjld/Desktop/AIoT_software/LiteOS_Lab_overseas/LiteOS_Lab/iot_link/network/lwm2m/wakaama_lwm2m/core\objects.c **** }
 2830              		.loc 1 698 0 discriminator 1
 2831 0116 1846     		mov	r0, r3
 2832 0118 3437     		adds	r7, r7, #52
 2833              	.LCFI63:
 2834              		.cfi_def_cfa_offset 12
 2835 011a BD46     		mov	sp, r7
 2836              	.LCFI64:
 2837              		.cfi_def_cfa_register 13
 2838              		@ sp needed
 2839 011c 90BD     		pop	{r4, r7, pc}
 2840              	.L190:
 2841 011e 00BF     		.align	2
 2842              	.L189:
 2843 0120 00000000 		.word	__func__.8983
 2844 0124 98000000 		.word	.LC7
 2845              		.cfi_endproc
 2846              	.LFE24:
 2848              		.section	.rodata
 2849 00af 00       		.align	2
 2850              	.LC8:
 2851 00b0 3C00     		.ascii	"<\000"
 2852 00b2 0000     		.align	2
 2853              	.LC9:
 2854 00b4 2F00     		.ascii	"/\000"
 2855 00b6 0000     		.align	2
 2856              	.LC10:
 2857 00b8 3E3B7274 		.ascii	">;rt=\"oma.lwm2m\",\000"
 2857      3D226F6D 
 2857      612E6C77 
 2857      6D326D22 
 2857      2C00
 2858 00ca 0000     		.align	2
 2859              	.LC11:
 2860 00cc 3E2C00   		.ascii	">,\000"
 2861              		.section	.text.object_getRegisterPayload,"ax",%progbits
 2862              		.align	1
 2863              		.global	object_getRegisterPayload
 2864              		.syntax unified
 2865              		.thumb
 2866              		.thumb_func
 2867              		.fpu fpv4-sp-d16
 2869              	object_getRegisterPayload:
 2870              	.LFB25:
 699:C:/Users/dtjld/Desktop/AIoT_software/LiteOS_Lab_overseas/LiteOS_Lab/iot_link/network/lwm2m/wakaama_lwm2m/core\objects.c **** 
 700:C:/Users/dtjld/Desktop/AIoT_software/LiteOS_Lab_overseas/LiteOS_Lab/iot_link/network/lwm2m/wakaama_lwm2m/core\objects.c **** int object_getRegisterPayload(lwm2m_context_t *contextP,
 701:C:/Users/dtjld/Desktop/AIoT_software/LiteOS_Lab_overseas/LiteOS_Lab/iot_link/network/lwm2m/wakaama_lwm2m/core\objects.c ****                               uint8_t *buffer,
 702:C:/Users/dtjld/Desktop/AIoT_software/LiteOS_Lab_overseas/LiteOS_Lab/iot_link/network/lwm2m/wakaama_lwm2m/core\objects.c ****                               size_t bufferLen)
 703:C:/Users/dtjld/Desktop/AIoT_software/LiteOS_Lab_overseas/LiteOS_Lab/iot_link/network/lwm2m/wakaama_lwm2m/core\objects.c **** {
 2871              		.loc 1 703 0
 2872              		.cfi_startproc
ARM GAS  C:\Users\dtjld\AppData\Local\Temp\cclRRs7D.s 			page 64


 2873              		@ args = 0, pretend = 0, frame = 40
 2874              		@ frame_needed = 1, uses_anonymous_args = 0
 2875 0000 90B5     		push	{r4, r7, lr}
 2876              	.LCFI65:
 2877              		.cfi_def_cfa_offset 12
 2878              		.cfi_offset 4, -12
 2879              		.cfi_offset 7, -8
 2880              		.cfi_offset 14, -4
 2881 0002 8BB0     		sub	sp, sp, #44
 2882              	.LCFI66:
 2883              		.cfi_def_cfa_offset 56
 2884 0004 00AF     		add	r7, sp, #0
 2885              	.LCFI67:
 2886              		.cfi_def_cfa_register 7
 2887 0006 F860     		str	r0, [r7, #12]
 2888 0008 B960     		str	r1, [r7, #8]
 2889 000a 7A60     		str	r2, [r7, #4]
 704:C:/Users/dtjld/Desktop/AIoT_software/LiteOS_Lab_overseas/LiteOS_Lab/iot_link/network/lwm2m/wakaama_lwm2m/core\objects.c ****     size_t index;
 705:C:/Users/dtjld/Desktop/AIoT_software/LiteOS_Lab_overseas/LiteOS_Lab/iot_link/network/lwm2m/wakaama_lwm2m/core\objects.c ****     int result;
 706:C:/Users/dtjld/Desktop/AIoT_software/LiteOS_Lab_overseas/LiteOS_Lab/iot_link/network/lwm2m/wakaama_lwm2m/core\objects.c ****     lwm2m_object_t *objectP;
 707:C:/Users/dtjld/Desktop/AIoT_software/LiteOS_Lab_overseas/LiteOS_Lab/iot_link/network/lwm2m/wakaama_lwm2m/core\objects.c **** 
 708:C:/Users/dtjld/Desktop/AIoT_software/LiteOS_Lab_overseas/LiteOS_Lab/iot_link/network/lwm2m/wakaama_lwm2m/core\objects.c ****     LOG("Entering");
 2890              		.loc 1 708 0
 2891 000c FFF7FEFF 		bl	lwm2m_gettime
 2892 0010 0346     		mov	r3, r0
 2893 0012 0C46     		mov	r4, r1
 2894 0014 1946     		mov	r1, r3
 2895 0016 4FF43173 		mov	r3, #708
 2896 001a 7E4A     		ldr	r2, .L213
 2897 001c 7E48     		ldr	r0, .L213+4
 2898 001e FFF7FEFF 		bl	atiny_printf
 709:C:/Users/dtjld/Desktop/AIoT_software/LiteOS_Lab_overseas/LiteOS_Lab/iot_link/network/lwm2m/wakaama_lwm2m/core\objects.c ****     // index can not be greater than bufferLen
 710:C:/Users/dtjld/Desktop/AIoT_software/LiteOS_Lab_overseas/LiteOS_Lab/iot_link/network/lwm2m/wakaama_lwm2m/core\objects.c ****     index = 0;
 2899              		.loc 1 710 0
 2900 0022 0023     		movs	r3, #0
 2901 0024 7B62     		str	r3, [r7, #36]
 711:C:/Users/dtjld/Desktop/AIoT_software/LiteOS_Lab_overseas/LiteOS_Lab/iot_link/network/lwm2m/wakaama_lwm2m/core\objects.c **** 
 712:C:/Users/dtjld/Desktop/AIoT_software/LiteOS_Lab_overseas/LiteOS_Lab/iot_link/network/lwm2m/wakaama_lwm2m/core\objects.c ****     result = utils_stringCopy((char *)buffer, bufferLen, REG_START);
 2902              		.loc 1 712 0
 2903 0026 7D4A     		ldr	r2, .L213+8
 2904 0028 7968     		ldr	r1, [r7, #4]
 2905 002a B868     		ldr	r0, [r7, #8]
 2906 002c FFF7FEFF 		bl	utils_stringCopy
 2907 0030 3862     		str	r0, [r7, #32]
 713:C:/Users/dtjld/Desktop/AIoT_software/LiteOS_Lab_overseas/LiteOS_Lab/iot_link/network/lwm2m/wakaama_lwm2m/core\objects.c ****     if (result < 0) return 0;
 2908              		.loc 1 713 0
 2909 0032 3B6A     		ldr	r3, [r7, #32]
 2910 0034 002B     		cmp	r3, #0
 2911 0036 01DA     		bge	.L192
 2912              		.loc 1 713 0 is_stmt 0 discriminator 1
 2913 0038 0023     		movs	r3, #0
 2914 003a E7E0     		b	.L193
 2915              	.L192:
 714:C:/Users/dtjld/Desktop/AIoT_software/LiteOS_Lab_overseas/LiteOS_Lab/iot_link/network/lwm2m/wakaama_lwm2m/core\objects.c ****     index += result;
 2916              		.loc 1 714 0 is_stmt 1
 2917 003c 3B6A     		ldr	r3, [r7, #32]
 2918 003e 7A6A     		ldr	r2, [r7, #36]
ARM GAS  C:\Users\dtjld\AppData\Local\Temp\cclRRs7D.s 			page 65


 2919 0040 1344     		add	r3, r3, r2
 2920 0042 7B62     		str	r3, [r7, #36]
 715:C:/Users/dtjld/Desktop/AIoT_software/LiteOS_Lab_overseas/LiteOS_Lab/iot_link/network/lwm2m/wakaama_lwm2m/core\objects.c **** 
 716:C:/Users/dtjld/Desktop/AIoT_software/LiteOS_Lab_overseas/LiteOS_Lab/iot_link/network/lwm2m/wakaama_lwm2m/core\objects.c ****     if ((contextP->altPath != NULL)
 2921              		.loc 1 716 0
 2922 0044 FB68     		ldr	r3, [r7, #12]
 2923 0046 DB68     		ldr	r3, [r3, #12]
 2924 0048 002B     		cmp	r3, #0
 2925 004a 11D0     		beq	.L194
 717:C:/Users/dtjld/Desktop/AIoT_software/LiteOS_Lab_overseas/LiteOS_Lab/iot_link/network/lwm2m/wakaama_lwm2m/core\objects.c ****             && (contextP->altPath[0] != 0))
 2926              		.loc 1 717 0
 2927 004c FB68     		ldr	r3, [r7, #12]
 2928 004e DB68     		ldr	r3, [r3, #12]
 2929 0050 1B78     		ldrb	r3, [r3]	@ zero_extendqisi2
 2930 0052 002B     		cmp	r3, #0
 2931 0054 0CD0     		beq	.L194
 718:C:/Users/dtjld/Desktop/AIoT_software/LiteOS_Lab_overseas/LiteOS_Lab/iot_link/network/lwm2m/wakaama_lwm2m/core\objects.c ****     {
 719:C:/Users/dtjld/Desktop/AIoT_software/LiteOS_Lab_overseas/LiteOS_Lab/iot_link/network/lwm2m/wakaama_lwm2m/core\objects.c ****         result = utils_stringCopy((char *)buffer + index, bufferLen - index, contextP->altPath);
 2932              		.loc 1 719 0
 2933 0056 BA68     		ldr	r2, [r7, #8]
 2934 0058 7B6A     		ldr	r3, [r7, #36]
 2935 005a D018     		adds	r0, r2, r3
 2936 005c 7A68     		ldr	r2, [r7, #4]
 2937 005e 7B6A     		ldr	r3, [r7, #36]
 2938 0060 D11A     		subs	r1, r2, r3
 2939 0062 FB68     		ldr	r3, [r7, #12]
 2940 0064 DB68     		ldr	r3, [r3, #12]
 2941 0066 1A46     		mov	r2, r3
 2942 0068 FFF7FEFF 		bl	utils_stringCopy
 2943 006c 3862     		str	r0, [r7, #32]
 2944 006e 0AE0     		b	.L195
 2945              	.L194:
 720:C:/Users/dtjld/Desktop/AIoT_software/LiteOS_Lab_overseas/LiteOS_Lab/iot_link/network/lwm2m/wakaama_lwm2m/core\objects.c ****     }
 721:C:/Users/dtjld/Desktop/AIoT_software/LiteOS_Lab_overseas/LiteOS_Lab/iot_link/network/lwm2m/wakaama_lwm2m/core\objects.c ****     else
 722:C:/Users/dtjld/Desktop/AIoT_software/LiteOS_Lab_overseas/LiteOS_Lab/iot_link/network/lwm2m/wakaama_lwm2m/core\objects.c ****     {
 723:C:/Users/dtjld/Desktop/AIoT_software/LiteOS_Lab_overseas/LiteOS_Lab/iot_link/network/lwm2m/wakaama_lwm2m/core\objects.c ****         result = utils_stringCopy((char *)buffer + index, bufferLen - index, REG_DEFAULT_PATH);
 2946              		.loc 1 723 0
 2947 0070 BA68     		ldr	r2, [r7, #8]
 2948 0072 7B6A     		ldr	r3, [r7, #36]
 2949 0074 D018     		adds	r0, r2, r3
 2950 0076 7A68     		ldr	r2, [r7, #4]
 2951 0078 7B6A     		ldr	r3, [r7, #36]
 2952 007a D31A     		subs	r3, r2, r3
 2953 007c 684A     		ldr	r2, .L213+12
 2954 007e 1946     		mov	r1, r3
 2955 0080 FFF7FEFF 		bl	utils_stringCopy
 2956 0084 3862     		str	r0, [r7, #32]
 2957              	.L195:
 724:C:/Users/dtjld/Desktop/AIoT_software/LiteOS_Lab_overseas/LiteOS_Lab/iot_link/network/lwm2m/wakaama_lwm2m/core\objects.c ****     }
 725:C:/Users/dtjld/Desktop/AIoT_software/LiteOS_Lab_overseas/LiteOS_Lab/iot_link/network/lwm2m/wakaama_lwm2m/core\objects.c ****     if (result < 0) return 0;
 2958              		.loc 1 725 0
 2959 0086 3B6A     		ldr	r3, [r7, #32]
 2960 0088 002B     		cmp	r3, #0
 2961 008a 01DA     		bge	.L196
 2962              		.loc 1 725 0 is_stmt 0 discriminator 1
 2963 008c 0023     		movs	r3, #0
 2964 008e BDE0     		b	.L193
ARM GAS  C:\Users\dtjld\AppData\Local\Temp\cclRRs7D.s 			page 66


 2965              	.L196:
 726:C:/Users/dtjld/Desktop/AIoT_software/LiteOS_Lab_overseas/LiteOS_Lab/iot_link/network/lwm2m/wakaama_lwm2m/core\objects.c ****     index += result;
 2966              		.loc 1 726 0 is_stmt 1
 2967 0090 3B6A     		ldr	r3, [r7, #32]
 2968 0092 7A6A     		ldr	r2, [r7, #36]
 2969 0094 1344     		add	r3, r3, r2
 2970 0096 7B62     		str	r3, [r7, #36]
 727:C:/Users/dtjld/Desktop/AIoT_software/LiteOS_Lab_overseas/LiteOS_Lab/iot_link/network/lwm2m/wakaama_lwm2m/core\objects.c **** 
 728:C:/Users/dtjld/Desktop/AIoT_software/LiteOS_Lab_overseas/LiteOS_Lab/iot_link/network/lwm2m/wakaama_lwm2m/core\objects.c ****     result = utils_stringCopy((char *)buffer + index, bufferLen - index, REG_LWM2M_RESOURCE_TYPE);
 2971              		.loc 1 728 0
 2972 0098 BA68     		ldr	r2, [r7, #8]
 2973 009a 7B6A     		ldr	r3, [r7, #36]
 2974 009c D018     		adds	r0, r2, r3
 2975 009e 7A68     		ldr	r2, [r7, #4]
 2976 00a0 7B6A     		ldr	r3, [r7, #36]
 2977 00a2 D31A     		subs	r3, r2, r3
 2978 00a4 5F4A     		ldr	r2, .L213+16
 2979 00a6 1946     		mov	r1, r3
 2980 00a8 FFF7FEFF 		bl	utils_stringCopy
 2981 00ac 3862     		str	r0, [r7, #32]
 729:C:/Users/dtjld/Desktop/AIoT_software/LiteOS_Lab_overseas/LiteOS_Lab/iot_link/network/lwm2m/wakaama_lwm2m/core\objects.c ****     if (result < 0) return 0;
 2982              		.loc 1 729 0
 2983 00ae 3B6A     		ldr	r3, [r7, #32]
 2984 00b0 002B     		cmp	r3, #0
 2985 00b2 01DA     		bge	.L197
 2986              		.loc 1 729 0 is_stmt 0 discriminator 1
 2987 00b4 0023     		movs	r3, #0
 2988 00b6 A9E0     		b	.L193
 2989              	.L197:
 730:C:/Users/dtjld/Desktop/AIoT_software/LiteOS_Lab_overseas/LiteOS_Lab/iot_link/network/lwm2m/wakaama_lwm2m/core\objects.c ****     index += result;
 2990              		.loc 1 730 0 is_stmt 1
 2991 00b8 3B6A     		ldr	r3, [r7, #32]
 2992 00ba 7A6A     		ldr	r2, [r7, #36]
 2993 00bc 1344     		add	r3, r3, r2
 2994 00be 7B62     		str	r3, [r7, #36]
 731:C:/Users/dtjld/Desktop/AIoT_software/LiteOS_Lab_overseas/LiteOS_Lab/iot_link/network/lwm2m/wakaama_lwm2m/core\objects.c **** 
 732:C:/Users/dtjld/Desktop/AIoT_software/LiteOS_Lab_overseas/LiteOS_Lab/iot_link/network/lwm2m/wakaama_lwm2m/core\objects.c ****     for (objectP = contextP->objectList; objectP != NULL; objectP = objectP->next)
 2995              		.loc 1 732 0
 2996 00c0 FB68     		ldr	r3, [r7, #12]
 2997 00c2 9B69     		ldr	r3, [r3, #24]
 2998 00c4 FB61     		str	r3, [r7, #28]
 2999 00c6 91E0     		b	.L198
 3000              	.L210:
 3001              	.LBB8:
 733:C:/Users/dtjld/Desktop/AIoT_software/LiteOS_Lab_overseas/LiteOS_Lab/iot_link/network/lwm2m/wakaama_lwm2m/core\objects.c ****     {
 734:C:/Users/dtjld/Desktop/AIoT_software/LiteOS_Lab_overseas/LiteOS_Lab/iot_link/network/lwm2m/wakaama_lwm2m/core\objects.c ****         size_t start;
 735:C:/Users/dtjld/Desktop/AIoT_software/LiteOS_Lab_overseas/LiteOS_Lab/iot_link/network/lwm2m/wakaama_lwm2m/core\objects.c ****         size_t length;
 736:C:/Users/dtjld/Desktop/AIoT_software/LiteOS_Lab_overseas/LiteOS_Lab/iot_link/network/lwm2m/wakaama_lwm2m/core\objects.c **** 
 737:C:/Users/dtjld/Desktop/AIoT_software/LiteOS_Lab_overseas/LiteOS_Lab/iot_link/network/lwm2m/wakaama_lwm2m/core\objects.c ****         if (objectP->objID == LWM2M_SECURITY_OBJECT_ID) continue;
 3002              		.loc 1 737 0
 3003 00c8 FB69     		ldr	r3, [r7, #28]
 3004 00ca 9B88     		ldrh	r3, [r3, #4]
 3005 00cc 002B     		cmp	r3, #0
 3006 00ce 00F08980 		beq	.L212
 738:C:/Users/dtjld/Desktop/AIoT_software/LiteOS_Lab_overseas/LiteOS_Lab/iot_link/network/lwm2m/wakaama_lwm2m/core\objects.c **** 
 739:C:/Users/dtjld/Desktop/AIoT_software/LiteOS_Lab_overseas/LiteOS_Lab/iot_link/network/lwm2m/wakaama_lwm2m/core\objects.c ****         start = index;
 3007              		.loc 1 739 0
ARM GAS  C:\Users\dtjld\AppData\Local\Temp\cclRRs7D.s 			page 67


 3008 00d2 7B6A     		ldr	r3, [r7, #36]
 3009 00d4 7B61     		str	r3, [r7, #20]
 740:C:/Users/dtjld/Desktop/AIoT_software/LiteOS_Lab_overseas/LiteOS_Lab/iot_link/network/lwm2m/wakaama_lwm2m/core\objects.c ****         result = prv_getObjectTemplate(buffer + index, bufferLen - index, objectP->objID);
 3010              		.loc 1 740 0
 3011 00d6 BA68     		ldr	r2, [r7, #8]
 3012 00d8 7B6A     		ldr	r3, [r7, #36]
 3013 00da D018     		adds	r0, r2, r3
 3014 00dc 7A68     		ldr	r2, [r7, #4]
 3015 00de 7B6A     		ldr	r3, [r7, #36]
 3016 00e0 D11A     		subs	r1, r2, r3
 3017 00e2 FB69     		ldr	r3, [r7, #28]
 3018 00e4 9B88     		ldrh	r3, [r3, #4]
 3019 00e6 1A46     		mov	r2, r3
 3020 00e8 FFF7FEFF 		bl	prv_getObjectTemplate
 3021 00ec 3862     		str	r0, [r7, #32]
 741:C:/Users/dtjld/Desktop/AIoT_software/LiteOS_Lab_overseas/LiteOS_Lab/iot_link/network/lwm2m/wakaama_lwm2m/core\objects.c ****         if (result < 0) return 0;
 3022              		.loc 1 741 0
 3023 00ee 3B6A     		ldr	r3, [r7, #32]
 3024 00f0 002B     		cmp	r3, #0
 3025 00f2 01DA     		bge	.L201
 3026              		.loc 1 741 0 is_stmt 0 discriminator 1
 3027 00f4 0023     		movs	r3, #0
 3028 00f6 89E0     		b	.L193
 3029              	.L201:
 742:C:/Users/dtjld/Desktop/AIoT_software/LiteOS_Lab_overseas/LiteOS_Lab/iot_link/network/lwm2m/wakaama_lwm2m/core\objects.c ****         length = result;
 3030              		.loc 1 742 0 is_stmt 1
 3031 00f8 3B6A     		ldr	r3, [r7, #32]
 3032 00fa 3B61     		str	r3, [r7, #16]
 743:C:/Users/dtjld/Desktop/AIoT_software/LiteOS_Lab_overseas/LiteOS_Lab/iot_link/network/lwm2m/wakaama_lwm2m/core\objects.c ****         index += length;
 3033              		.loc 1 743 0
 3034 00fc 7A6A     		ldr	r2, [r7, #36]
 3035 00fe 3B69     		ldr	r3, [r7, #16]
 3036 0100 1344     		add	r3, r3, r2
 3037 0102 7B62     		str	r3, [r7, #36]
 744:C:/Users/dtjld/Desktop/AIoT_software/LiteOS_Lab_overseas/LiteOS_Lab/iot_link/network/lwm2m/wakaama_lwm2m/core\objects.c **** 
 745:C:/Users/dtjld/Desktop/AIoT_software/LiteOS_Lab_overseas/LiteOS_Lab/iot_link/network/lwm2m/wakaama_lwm2m/core\objects.c ****         if (objectP->instanceList == NULL)
 3038              		.loc 1 745 0
 3039 0104 FB69     		ldr	r3, [r7, #28]
 3040 0106 9B68     		ldr	r3, [r3, #8]
 3041 0108 002B     		cmp	r3, #0
 3042 010a 17D1     		bne	.L202
 746:C:/Users/dtjld/Desktop/AIoT_software/LiteOS_Lab_overseas/LiteOS_Lab/iot_link/network/lwm2m/wakaama_lwm2m/core\objects.c ****         {
 747:C:/Users/dtjld/Desktop/AIoT_software/LiteOS_Lab_overseas/LiteOS_Lab/iot_link/network/lwm2m/wakaama_lwm2m/core\objects.c ****             index--;
 3043              		.loc 1 747 0
 3044 010c 7B6A     		ldr	r3, [r7, #36]
 3045 010e 013B     		subs	r3, r3, #1
 3046 0110 7B62     		str	r3, [r7, #36]
 748:C:/Users/dtjld/Desktop/AIoT_software/LiteOS_Lab_overseas/LiteOS_Lab/iot_link/network/lwm2m/wakaama_lwm2m/core\objects.c ****             result = utils_stringCopy((char *)buffer + index, bufferLen - index, REG_PATH_END);
 3047              		.loc 1 748 0
 3048 0112 BA68     		ldr	r2, [r7, #8]
 3049 0114 7B6A     		ldr	r3, [r7, #36]
 3050 0116 D018     		adds	r0, r2, r3
 3051 0118 7A68     		ldr	r2, [r7, #4]
 3052 011a 7B6A     		ldr	r3, [r7, #36]
 3053 011c D31A     		subs	r3, r2, r3
 3054 011e 424A     		ldr	r2, .L213+20
 3055 0120 1946     		mov	r1, r3
ARM GAS  C:\Users\dtjld\AppData\Local\Temp\cclRRs7D.s 			page 68


 3056 0122 FFF7FEFF 		bl	utils_stringCopy
 3057 0126 3862     		str	r0, [r7, #32]
 749:C:/Users/dtjld/Desktop/AIoT_software/LiteOS_Lab_overseas/LiteOS_Lab/iot_link/network/lwm2m/wakaama_lwm2m/core\objects.c ****             if (result < 0) return 0;
 3058              		.loc 1 749 0
 3059 0128 3B6A     		ldr	r3, [r7, #32]
 3060 012a 002B     		cmp	r3, #0
 3061 012c 01DA     		bge	.L203
 3062              		.loc 1 749 0 is_stmt 0 discriminator 1
 3063 012e 0023     		movs	r3, #0
 3064 0130 6CE0     		b	.L193
 3065              	.L203:
 750:C:/Users/dtjld/Desktop/AIoT_software/LiteOS_Lab_overseas/LiteOS_Lab/iot_link/network/lwm2m/wakaama_lwm2m/core\objects.c ****             index += result;
 3066              		.loc 1 750 0 is_stmt 1
 3067 0132 3B6A     		ldr	r3, [r7, #32]
 3068 0134 7A6A     		ldr	r2, [r7, #36]
 3069 0136 1344     		add	r3, r3, r2
 3070 0138 7B62     		str	r3, [r7, #36]
 3071 013a 54E0     		b	.L200
 3072              	.L202:
 3073              	.LBB9:
 751:C:/Users/dtjld/Desktop/AIoT_software/LiteOS_Lab_overseas/LiteOS_Lab/iot_link/network/lwm2m/wakaama_lwm2m/core\objects.c ****         }
 752:C:/Users/dtjld/Desktop/AIoT_software/LiteOS_Lab_overseas/LiteOS_Lab/iot_link/network/lwm2m/wakaama_lwm2m/core\objects.c ****         else
 753:C:/Users/dtjld/Desktop/AIoT_software/LiteOS_Lab_overseas/LiteOS_Lab/iot_link/network/lwm2m/wakaama_lwm2m/core\objects.c ****         {
 754:C:/Users/dtjld/Desktop/AIoT_software/LiteOS_Lab_overseas/LiteOS_Lab/iot_link/network/lwm2m/wakaama_lwm2m/core\objects.c ****             lwm2m_list_t *targetP;
 755:C:/Users/dtjld/Desktop/AIoT_software/LiteOS_Lab_overseas/LiteOS_Lab/iot_link/network/lwm2m/wakaama_lwm2m/core\objects.c ****             for (targetP = objectP->instanceList ; targetP != NULL ; targetP = targetP->next)
 3074              		.loc 1 755 0
 3075 013c FB69     		ldr	r3, [r7, #28]
 3076 013e 9B68     		ldr	r3, [r3, #8]
 3077 0140 BB61     		str	r3, [r7, #24]
 3078 0142 4BE0     		b	.L204
 3079              	.L209:
 756:C:/Users/dtjld/Desktop/AIoT_software/LiteOS_Lab_overseas/LiteOS_Lab/iot_link/network/lwm2m/wakaama_lwm2m/core\objects.c ****             {
 757:C:/Users/dtjld/Desktop/AIoT_software/LiteOS_Lab_overseas/LiteOS_Lab/iot_link/network/lwm2m/wakaama_lwm2m/core\objects.c ****                 if (index != start + length)
 3080              		.loc 1 757 0
 3081 0144 7A69     		ldr	r2, [r7, #20]
 3082 0146 3B69     		ldr	r3, [r7, #16]
 3083 0148 1344     		add	r3, r3, r2
 3084 014a 7A6A     		ldr	r2, [r7, #36]
 3085 014c 9A42     		cmp	r2, r3
 3086 014e 15D0     		beq	.L205
 758:C:/Users/dtjld/Desktop/AIoT_software/LiteOS_Lab_overseas/LiteOS_Lab/iot_link/network/lwm2m/wakaama_lwm2m/core\objects.c ****                 {
 759:C:/Users/dtjld/Desktop/AIoT_software/LiteOS_Lab_overseas/LiteOS_Lab/iot_link/network/lwm2m/wakaama_lwm2m/core\objects.c ****                     if (bufferLen - index <= length) return 0;
 3087              		.loc 1 759 0
 3088 0150 7A68     		ldr	r2, [r7, #4]
 3089 0152 7B6A     		ldr	r3, [r7, #36]
 3090 0154 D31A     		subs	r3, r2, r3
 3091 0156 3A69     		ldr	r2, [r7, #16]
 3092 0158 9A42     		cmp	r2, r3
 3093 015a 01D3     		bcc	.L206
 3094              		.loc 1 759 0 is_stmt 0 discriminator 1
 3095 015c 0023     		movs	r3, #0
 3096 015e 55E0     		b	.L193
 3097              	.L206:
 760:C:/Users/dtjld/Desktop/AIoT_software/LiteOS_Lab_overseas/LiteOS_Lab/iot_link/network/lwm2m/wakaama_lwm2m/core\objects.c ****                     memcpy(buffer + index, buffer + start, length);
 3098              		.loc 1 760 0 is_stmt 1
 3099 0160 BA68     		ldr	r2, [r7, #8]
 3100 0162 7B6A     		ldr	r3, [r7, #36]
ARM GAS  C:\Users\dtjld\AppData\Local\Temp\cclRRs7D.s 			page 69


 3101 0164 D018     		adds	r0, r2, r3
 3102 0166 BA68     		ldr	r2, [r7, #8]
 3103 0168 7B69     		ldr	r3, [r7, #20]
 3104 016a 1344     		add	r3, r3, r2
 3105 016c 3A69     		ldr	r2, [r7, #16]
 3106 016e 1946     		mov	r1, r3
 3107 0170 FFF7FEFF 		bl	memcpy
 761:C:/Users/dtjld/Desktop/AIoT_software/LiteOS_Lab_overseas/LiteOS_Lab/iot_link/network/lwm2m/wakaama_lwm2m/core\objects.c ****                     index += length;
 3108              		.loc 1 761 0
 3109 0174 7A6A     		ldr	r2, [r7, #36]
 3110 0176 3B69     		ldr	r3, [r7, #16]
 3111 0178 1344     		add	r3, r3, r2
 3112 017a 7B62     		str	r3, [r7, #36]
 3113              	.L205:
 762:C:/Users/dtjld/Desktop/AIoT_software/LiteOS_Lab_overseas/LiteOS_Lab/iot_link/network/lwm2m/wakaama_lwm2m/core\objects.c ****                 }
 763:C:/Users/dtjld/Desktop/AIoT_software/LiteOS_Lab_overseas/LiteOS_Lab/iot_link/network/lwm2m/wakaama_lwm2m/core\objects.c **** 
 764:C:/Users/dtjld/Desktop/AIoT_software/LiteOS_Lab_overseas/LiteOS_Lab/iot_link/network/lwm2m/wakaama_lwm2m/core\objects.c ****                 result = utils_intToText(targetP->id, buffer + index, bufferLen - index);
 3114              		.loc 1 764 0
 3115 017c BB69     		ldr	r3, [r7, #24]
 3116 017e 9B88     		ldrh	r3, [r3, #4]
 3117 0180 98B2     		uxth	r0, r3
 3118 0182 4FF00001 		mov	r1, #0
 3119 0186 BA68     		ldr	r2, [r7, #8]
 3120 0188 7B6A     		ldr	r3, [r7, #36]
 3121 018a D418     		adds	r4, r2, r3
 3122 018c 7A68     		ldr	r2, [r7, #4]
 3123 018e 7B6A     		ldr	r3, [r7, #36]
 3124 0190 D31A     		subs	r3, r2, r3
 3125 0192 2246     		mov	r2, r4
 3126 0194 FFF7FEFF 		bl	utils_intToText
 3127 0198 0346     		mov	r3, r0
 3128 019a 3B62     		str	r3, [r7, #32]
 765:C:/Users/dtjld/Desktop/AIoT_software/LiteOS_Lab_overseas/LiteOS_Lab/iot_link/network/lwm2m/wakaama_lwm2m/core\objects.c ****                 if (result == 0) return 0;
 3129              		.loc 1 765 0
 3130 019c 3B6A     		ldr	r3, [r7, #32]
 3131 019e 002B     		cmp	r3, #0
 3132 01a0 01D1     		bne	.L207
 3133              		.loc 1 765 0 is_stmt 0 discriminator 1
 3134 01a2 0023     		movs	r3, #0
 3135 01a4 32E0     		b	.L193
 3136              	.L207:
 766:C:/Users/dtjld/Desktop/AIoT_software/LiteOS_Lab_overseas/LiteOS_Lab/iot_link/network/lwm2m/wakaama_lwm2m/core\objects.c ****                 index += result;
 3137              		.loc 1 766 0 is_stmt 1
 3138 01a6 3B6A     		ldr	r3, [r7, #32]
 3139 01a8 7A6A     		ldr	r2, [r7, #36]
 3140 01aa 1344     		add	r3, r3, r2
 3141 01ac 7B62     		str	r3, [r7, #36]
 767:C:/Users/dtjld/Desktop/AIoT_software/LiteOS_Lab_overseas/LiteOS_Lab/iot_link/network/lwm2m/wakaama_lwm2m/core\objects.c **** 
 768:C:/Users/dtjld/Desktop/AIoT_software/LiteOS_Lab_overseas/LiteOS_Lab/iot_link/network/lwm2m/wakaama_lwm2m/core\objects.c ****                 result = utils_stringCopy((char *)buffer + index, bufferLen - index, REG_PATH_END);
 3142              		.loc 1 768 0
 3143 01ae BA68     		ldr	r2, [r7, #8]
 3144 01b0 7B6A     		ldr	r3, [r7, #36]
 3145 01b2 D018     		adds	r0, r2, r3
 3146 01b4 7A68     		ldr	r2, [r7, #4]
 3147 01b6 7B6A     		ldr	r3, [r7, #36]
 3148 01b8 D31A     		subs	r3, r2, r3
 3149 01ba 1B4A     		ldr	r2, .L213+20
ARM GAS  C:\Users\dtjld\AppData\Local\Temp\cclRRs7D.s 			page 70


 3150 01bc 1946     		mov	r1, r3
 3151 01be FFF7FEFF 		bl	utils_stringCopy
 3152 01c2 3862     		str	r0, [r7, #32]
 769:C:/Users/dtjld/Desktop/AIoT_software/LiteOS_Lab_overseas/LiteOS_Lab/iot_link/network/lwm2m/wakaama_lwm2m/core\objects.c ****                 if (result < 0) return 0;
 3153              		.loc 1 769 0
 3154 01c4 3B6A     		ldr	r3, [r7, #32]
 3155 01c6 002B     		cmp	r3, #0
 3156 01c8 01DA     		bge	.L208
 3157              		.loc 1 769 0 is_stmt 0 discriminator 1
 3158 01ca 0023     		movs	r3, #0
 3159 01cc 1EE0     		b	.L193
 3160              	.L208:
 770:C:/Users/dtjld/Desktop/AIoT_software/LiteOS_Lab_overseas/LiteOS_Lab/iot_link/network/lwm2m/wakaama_lwm2m/core\objects.c ****                 index += result;
 3161              		.loc 1 770 0 is_stmt 1 discriminator 2
 3162 01ce 3B6A     		ldr	r3, [r7, #32]
 3163 01d0 7A6A     		ldr	r2, [r7, #36]
 3164 01d2 1344     		add	r3, r3, r2
 3165 01d4 7B62     		str	r3, [r7, #36]
 755:C:/Users/dtjld/Desktop/AIoT_software/LiteOS_Lab_overseas/LiteOS_Lab/iot_link/network/lwm2m/wakaama_lwm2m/core\objects.c ****             {
 3166              		.loc 1 755 0 discriminator 2
 3167 01d6 BB69     		ldr	r3, [r7, #24]
 3168 01d8 1B68     		ldr	r3, [r3]
 3169 01da BB61     		str	r3, [r7, #24]
 3170              	.L204:
 755:C:/Users/dtjld/Desktop/AIoT_software/LiteOS_Lab_overseas/LiteOS_Lab/iot_link/network/lwm2m/wakaama_lwm2m/core\objects.c ****             {
 3171              		.loc 1 755 0 is_stmt 0 discriminator 1
 3172 01dc BB69     		ldr	r3, [r7, #24]
 3173 01de 002B     		cmp	r3, #0
 3174 01e0 B0D1     		bne	.L209
 3175 01e2 00E0     		b	.L200
 3176              	.L212:
 3177              	.LBE9:
 737:C:/Users/dtjld/Desktop/AIoT_software/LiteOS_Lab_overseas/LiteOS_Lab/iot_link/network/lwm2m/wakaama_lwm2m/core\objects.c **** 
 3178              		.loc 1 737 0 is_stmt 1
 3179 01e4 00BF     		nop
 3180              	.L200:
 3181              	.LBE8:
 732:C:/Users/dtjld/Desktop/AIoT_software/LiteOS_Lab_overseas/LiteOS_Lab/iot_link/network/lwm2m/wakaama_lwm2m/core\objects.c ****     {
 3182              		.loc 1 732 0 discriminator 2
 3183 01e6 FB69     		ldr	r3, [r7, #28]
