ARM GAS  C:\Users\dtjld\AppData\Local\Temp\ccRVA30A.s 			page 1


   1              		.cpu cortex-m4
   2              		.eabi_attribute 27, 1
   3              		.eabi_attribute 28, 1
   4              		.eabi_attribute 20, 1
   5              		.eabi_attribute 21, 1
   6              		.eabi_attribute 23, 3
   7              		.eabi_attribute 24, 1
   8              		.eabi_attribute 25, 1
   9              		.eabi_attribute 26, 1
  10              		.eabi_attribute 30, 6
  11              		.eabi_attribute 34, 1
  12              		.eabi_attribute 18, 4
  13              		.file	"observe.c"
  14              		.text
  15              	.Ltext0:
  16              		.cfi_sections	.debug_frame
  17              		.section	.text.dm_isUriOpaqueHandle,"ax",%progbits
  18              		.align	1
  19              		.syntax unified
  20              		.thumb
  21              		.thumb_func
  22              		.fpu fpv4-sp-d16
  24              	dm_isUriOpaqueHandle:
  25              	.LFB3:
  26              		.file 1 "C:/Users/dtjld/Desktop/AIoT_software/LiteOS_Lab_overseas/LiteOS_Lab/iot_link/network/lwm2
   1:C:/Users/dtjld/Desktop/AIoT_software/LiteOS_Lab_overseas/LiteOS_Lab/iot_link/network/lwm2m/wakaama_lwm2m/core\internals.h **** /*----------------------------------------------------------------------------
   2:C:/Users/dtjld/Desktop/AIoT_software/LiteOS_Lab_overseas/LiteOS_Lab/iot_link/network/lwm2m/wakaama_lwm2m/core\internals.h ****  * Copyright (c) <2016-2018>, <Huawei Technologies Co., Ltd>
   3:C:/Users/dtjld/Desktop/AIoT_software/LiteOS_Lab_overseas/LiteOS_Lab/iot_link/network/lwm2m/wakaama_lwm2m/core\internals.h ****  * All rights reserved.
   4:C:/Users/dtjld/Desktop/AIoT_software/LiteOS_Lab_overseas/LiteOS_Lab/iot_link/network/lwm2m/wakaama_lwm2m/core\internals.h ****  * Redistribution and use in source and binary forms, with or without modification,
   5:C:/Users/dtjld/Desktop/AIoT_software/LiteOS_Lab_overseas/LiteOS_Lab/iot_link/network/lwm2m/wakaama_lwm2m/core\internals.h ****  * are permitted provided that the following conditions are met:
   6:C:/Users/dtjld/Desktop/AIoT_software/LiteOS_Lab_overseas/LiteOS_Lab/iot_link/network/lwm2m/wakaama_lwm2m/core\internals.h ****  * 1. Redistributions of source code must retain the above copyright notice, this list of
   7:C:/Users/dtjld/Desktop/AIoT_software/LiteOS_Lab_overseas/LiteOS_Lab/iot_link/network/lwm2m/wakaama_lwm2m/core\internals.h ****  * conditions and the following disclaimer.
   8:C:/Users/dtjld/Desktop/AIoT_software/LiteOS_Lab_overseas/LiteOS_Lab/iot_link/network/lwm2m/wakaama_lwm2m/core\internals.h ****  * 2. Redistributions in binary form must reproduce the above copyright notice, this list
   9:C:/Users/dtjld/Desktop/AIoT_software/LiteOS_Lab_overseas/LiteOS_Lab/iot_link/network/lwm2m/wakaama_lwm2m/core\internals.h ****  * of conditions and the following disclaimer in the documentation and/or other materials
  10:C:/Users/dtjld/Desktop/AIoT_software/LiteOS_Lab_overseas/LiteOS_Lab/iot_link/network/lwm2m/wakaama_lwm2m/core\internals.h ****  * provided with the distribution.
  11:C:/Users/dtjld/Desktop/AIoT_software/LiteOS_Lab_overseas/LiteOS_Lab/iot_link/network/lwm2m/wakaama_lwm2m/core\internals.h ****  * 3. Neither the name of the copyright holder nor the names of its contributors may be used
  12:C:/Users/dtjld/Desktop/AIoT_software/LiteOS_Lab_overseas/LiteOS_Lab/iot_link/network/lwm2m/wakaama_lwm2m/core\internals.h ****  * to endorse or promote products derived from this software without specific prior written
  13:C:/Users/dtjld/Desktop/AIoT_software/LiteOS_Lab_overseas/LiteOS_Lab/iot_link/network/lwm2m/wakaama_lwm2m/core\internals.h ****  * permission.
  14:C:/Users/dtjld/Desktop/AIoT_software/LiteOS_Lab_overseas/LiteOS_Lab/iot_link/network/lwm2m/wakaama_lwm2m/core\internals.h ****  * THIS SOFTWARE IS PROVIDED BY THE COPYRIGHT HOLDERS AND CONTRIBUTORS
  15:C:/Users/dtjld/Desktop/AIoT_software/LiteOS_Lab_overseas/LiteOS_Lab/iot_link/network/lwm2m/wakaama_lwm2m/core\internals.h ****  * "AS IS" AND ANY EXPRESS OR IMPLIED WARRANTIES, INCLUDING, BUT NOT LIMITED TO,
  16:C:/Users/dtjld/Desktop/AIoT_software/LiteOS_Lab_overseas/LiteOS_Lab/iot_link/network/lwm2m/wakaama_lwm2m/core\internals.h ****  * THE IMPLIED WARRANTIES OF MERCHANTABILITY AND FITNESS FOR A PARTICULAR
  17:C:/Users/dtjld/Desktop/AIoT_software/LiteOS_Lab_overseas/LiteOS_Lab/iot_link/network/lwm2m/wakaama_lwm2m/core\internals.h ****  * PURPOSE ARE DISCLAIMED. IN NO EVENT SHALL THE COPYRIGHT HOLDER OR
  18:C:/Users/dtjld/Desktop/AIoT_software/LiteOS_Lab_overseas/LiteOS_Lab/iot_link/network/lwm2m/wakaama_lwm2m/core\internals.h ****  * CONTRIBUTORS BE LIABLE FOR ANY DIRECT, INDIRECT, INCIDENTAL, SPECIAL,
  19:C:/Users/dtjld/Desktop/AIoT_software/LiteOS_Lab_overseas/LiteOS_Lab/iot_link/network/lwm2m/wakaama_lwm2m/core\internals.h ****  * EXEMPLARY, OR CONSEQUENTIAL DAMAGES (INCLUDING, BUT NOT LIMITED TO,
  20:C:/Users/dtjld/Desktop/AIoT_software/LiteOS_Lab_overseas/LiteOS_Lab/iot_link/network/lwm2m/wakaama_lwm2m/core\internals.h ****  * PROCUREMENT OF SUBSTITUTE GOODS OR SERVICES; LOSS OF USE, DATA, OR PROFITS;
  21:C:/Users/dtjld/Desktop/AIoT_software/LiteOS_Lab_overseas/LiteOS_Lab/iot_link/network/lwm2m/wakaama_lwm2m/core\internals.h ****  * OR BUSINESS INTERRUPTION) HOWEVER CAUSED AND ON ANY THEORY OF LIABILITY,
  22:C:/Users/dtjld/Desktop/AIoT_software/LiteOS_Lab_overseas/LiteOS_Lab/iot_link/network/lwm2m/wakaama_lwm2m/core\internals.h ****  * WHETHER IN CONTRACT, STRICT LIABILITY, OR TORT (INCLUDING NEGLIGENCE OR
  23:C:/Users/dtjld/Desktop/AIoT_software/LiteOS_Lab_overseas/LiteOS_Lab/iot_link/network/lwm2m/wakaama_lwm2m/core\internals.h ****  * OTHERWISE) ARISING IN ANY WAY OUT OF THE USE OF THIS SOFTWARE, EVEN IF
  24:C:/Users/dtjld/Desktop/AIoT_software/LiteOS_Lab_overseas/LiteOS_Lab/iot_link/network/lwm2m/wakaama_lwm2m/core\internals.h ****  * ADVISED OF THE POSSIBILITY OF SUCH DAMAGE.
  25:C:/Users/dtjld/Desktop/AIoT_software/LiteOS_Lab_overseas/LiteOS_Lab/iot_link/network/lwm2m/wakaama_lwm2m/core\internals.h ****  *---------------------------------------------------------------------------*/
  26:C:/Users/dtjld/Desktop/AIoT_software/LiteOS_Lab_overseas/LiteOS_Lab/iot_link/network/lwm2m/wakaama_lwm2m/core\internals.h **** /*----------------------------------------------------------------------------
  27:C:/Users/dtjld/Desktop/AIoT_software/LiteOS_Lab_overseas/LiteOS_Lab/iot_link/network/lwm2m/wakaama_lwm2m/core\internals.h ****  * Notice of Export Control Law
  28:C:/Users/dtjld/Desktop/AIoT_software/LiteOS_Lab_overseas/LiteOS_Lab/iot_link/network/lwm2m/wakaama_lwm2m/core\internals.h ****  * ===============================================
  29:C:/Users/dtjld/Desktop/AIoT_software/LiteOS_Lab_overseas/LiteOS_Lab/iot_link/network/lwm2m/wakaama_lwm2m/core\internals.h ****  * Huawei LiteOS may be subject to applicable export control laws and regulations, which might
  30:C:/Users/dtjld/Desktop/AIoT_software/LiteOS_Lab_overseas/LiteOS_Lab/iot_link/network/lwm2m/wakaama_lwm2m/core\internals.h ****  * include those applicable to Huawei LiteOS of U.S. and the country in which you are located.
  31:C:/Users/dtjld/Desktop/AIoT_software/LiteOS_Lab_overseas/LiteOS_Lab/iot_link/network/lwm2m/wakaama_lwm2m/core\internals.h ****  * Import, export and usage of Huawei LiteOS in any manner by you shall be in compliance with such
  32:C:/Users/dtjld/Desktop/AIoT_software/LiteOS_Lab_overseas/LiteOS_Lab/iot_link/network/lwm2m/wakaama_lwm2m/core\internals.h ****  * applicable export control laws and regulations.
ARM GAS  C:\Users\dtjld\AppData\Local\Temp\ccRVA30A.s 			page 2


  33:C:/Users/dtjld/Desktop/AIoT_software/LiteOS_Lab_overseas/LiteOS_Lab/iot_link/network/lwm2m/wakaama_lwm2m/core\internals.h ****  *---------------------------------------------------------------------------*/
  34:C:/Users/dtjld/Desktop/AIoT_software/LiteOS_Lab_overseas/LiteOS_Lab/iot_link/network/lwm2m/wakaama_lwm2m/core\internals.h **** 
  35:C:/Users/dtjld/Desktop/AIoT_software/LiteOS_Lab_overseas/LiteOS_Lab/iot_link/network/lwm2m/wakaama_lwm2m/core\internals.h **** /*******************************************************************************
  36:C:/Users/dtjld/Desktop/AIoT_software/LiteOS_Lab_overseas/LiteOS_Lab/iot_link/network/lwm2m/wakaama_lwm2m/core\internals.h ****  *
  37:C:/Users/dtjld/Desktop/AIoT_software/LiteOS_Lab_overseas/LiteOS_Lab/iot_link/network/lwm2m/wakaama_lwm2m/core\internals.h ****  * Copyright (c) 2013, 2014 Intel Corporation and others.
  38:C:/Users/dtjld/Desktop/AIoT_software/LiteOS_Lab_overseas/LiteOS_Lab/iot_link/network/lwm2m/wakaama_lwm2m/core\internals.h ****  * All rights reserved. This program and the accompanying materials
  39:C:/Users/dtjld/Desktop/AIoT_software/LiteOS_Lab_overseas/LiteOS_Lab/iot_link/network/lwm2m/wakaama_lwm2m/core\internals.h ****  * are made available under the terms of the Eclipse Public License v1.0
  40:C:/Users/dtjld/Desktop/AIoT_software/LiteOS_Lab_overseas/LiteOS_Lab/iot_link/network/lwm2m/wakaama_lwm2m/core\internals.h ****  * and Eclipse Distribution License v1.0 which accompany this distribution.
  41:C:/Users/dtjld/Desktop/AIoT_software/LiteOS_Lab_overseas/LiteOS_Lab/iot_link/network/lwm2m/wakaama_lwm2m/core\internals.h ****  *
  42:C:/Users/dtjld/Desktop/AIoT_software/LiteOS_Lab_overseas/LiteOS_Lab/iot_link/network/lwm2m/wakaama_lwm2m/core\internals.h ****  * The Eclipse Public License is available at
  43:C:/Users/dtjld/Desktop/AIoT_software/LiteOS_Lab_overseas/LiteOS_Lab/iot_link/network/lwm2m/wakaama_lwm2m/core\internals.h ****  *    http://www.eclipse.org/legal/epl-v10.html
  44:C:/Users/dtjld/Desktop/AIoT_software/LiteOS_Lab_overseas/LiteOS_Lab/iot_link/network/lwm2m/wakaama_lwm2m/core\internals.h ****  * The Eclipse Distribution License is available at
  45:C:/Users/dtjld/Desktop/AIoT_software/LiteOS_Lab_overseas/LiteOS_Lab/iot_link/network/lwm2m/wakaama_lwm2m/core\internals.h ****  *    http://www.eclipse.org/org/documents/edl-v10.php.
  46:C:/Users/dtjld/Desktop/AIoT_software/LiteOS_Lab_overseas/LiteOS_Lab/iot_link/network/lwm2m/wakaama_lwm2m/core\internals.h ****  *
  47:C:/Users/dtjld/Desktop/AIoT_software/LiteOS_Lab_overseas/LiteOS_Lab/iot_link/network/lwm2m/wakaama_lwm2m/core\internals.h ****  * Contributors:
  48:C:/Users/dtjld/Desktop/AIoT_software/LiteOS_Lab_overseas/LiteOS_Lab/iot_link/network/lwm2m/wakaama_lwm2m/core\internals.h ****  *    David Navarro, Intel Corporation - initial API and implementation
  49:C:/Users/dtjld/Desktop/AIoT_software/LiteOS_Lab_overseas/LiteOS_Lab/iot_link/network/lwm2m/wakaama_lwm2m/core\internals.h ****  *    Fabien Fleutot - Please refer to git log
  50:C:/Users/dtjld/Desktop/AIoT_software/LiteOS_Lab_overseas/LiteOS_Lab/iot_link/network/lwm2m/wakaama_lwm2m/core\internals.h ****  *    Toby Jaffey - Please refer to git log
  51:C:/Users/dtjld/Desktop/AIoT_software/LiteOS_Lab_overseas/LiteOS_Lab/iot_link/network/lwm2m/wakaama_lwm2m/core\internals.h ****  *    Bosch Software Innovations GmbH - Please refer to git log
  52:C:/Users/dtjld/Desktop/AIoT_software/LiteOS_Lab_overseas/LiteOS_Lab/iot_link/network/lwm2m/wakaama_lwm2m/core\internals.h ****  *    Pascal Rieux - Please refer to git log
  53:C:/Users/dtjld/Desktop/AIoT_software/LiteOS_Lab_overseas/LiteOS_Lab/iot_link/network/lwm2m/wakaama_lwm2m/core\internals.h ****  *    Scott Bertin - Please refer to git log
  54:C:/Users/dtjld/Desktop/AIoT_software/LiteOS_Lab_overseas/LiteOS_Lab/iot_link/network/lwm2m/wakaama_lwm2m/core\internals.h ****  *
  55:C:/Users/dtjld/Desktop/AIoT_software/LiteOS_Lab_overseas/LiteOS_Lab/iot_link/network/lwm2m/wakaama_lwm2m/core\internals.h ****  *******************************************************************************/
  56:C:/Users/dtjld/Desktop/AIoT_software/LiteOS_Lab_overseas/LiteOS_Lab/iot_link/network/lwm2m/wakaama_lwm2m/core\internals.h **** /*
  57:C:/Users/dtjld/Desktop/AIoT_software/LiteOS_Lab_overseas/LiteOS_Lab/iot_link/network/lwm2m/wakaama_lwm2m/core\internals.h ****  Copyright (c) 2013, 2014 Intel Corporation
  58:C:/Users/dtjld/Desktop/AIoT_software/LiteOS_Lab_overseas/LiteOS_Lab/iot_link/network/lwm2m/wakaama_lwm2m/core\internals.h **** 
  59:C:/Users/dtjld/Desktop/AIoT_software/LiteOS_Lab_overseas/LiteOS_Lab/iot_link/network/lwm2m/wakaama_lwm2m/core\internals.h ****  Redistribution and use in source and binary forms, with or without modification,
  60:C:/Users/dtjld/Desktop/AIoT_software/LiteOS_Lab_overseas/LiteOS_Lab/iot_link/network/lwm2m/wakaama_lwm2m/core\internals.h ****  are permitted provided that the following conditions are met:
  61:C:/Users/dtjld/Desktop/AIoT_software/LiteOS_Lab_overseas/LiteOS_Lab/iot_link/network/lwm2m/wakaama_lwm2m/core\internals.h **** 
  62:C:/Users/dtjld/Desktop/AIoT_software/LiteOS_Lab_overseas/LiteOS_Lab/iot_link/network/lwm2m/wakaama_lwm2m/core\internals.h ****      * Redistributions of source code must retain the above copyright notice,
  63:C:/Users/dtjld/Desktop/AIoT_software/LiteOS_Lab_overseas/LiteOS_Lab/iot_link/network/lwm2m/wakaama_lwm2m/core\internals.h ****        this list of conditions and the following disclaimer.
  64:C:/Users/dtjld/Desktop/AIoT_software/LiteOS_Lab_overseas/LiteOS_Lab/iot_link/network/lwm2m/wakaama_lwm2m/core\internals.h ****      * Redistributions in binary form must reproduce the above copyright notice,
  65:C:/Users/dtjld/Desktop/AIoT_software/LiteOS_Lab_overseas/LiteOS_Lab/iot_link/network/lwm2m/wakaama_lwm2m/core\internals.h ****        this list of conditions and the following disclaimer in the documentation
  66:C:/Users/dtjld/Desktop/AIoT_software/LiteOS_Lab_overseas/LiteOS_Lab/iot_link/network/lwm2m/wakaama_lwm2m/core\internals.h ****        and/or other materials provided with the distribution.
  67:C:/Users/dtjld/Desktop/AIoT_software/LiteOS_Lab_overseas/LiteOS_Lab/iot_link/network/lwm2m/wakaama_lwm2m/core\internals.h ****      * Neither the name of Intel Corporation nor the names of its contributors
  68:C:/Users/dtjld/Desktop/AIoT_software/LiteOS_Lab_overseas/LiteOS_Lab/iot_link/network/lwm2m/wakaama_lwm2m/core\internals.h ****        may be used to endorse or promote products derived from this software
  69:C:/Users/dtjld/Desktop/AIoT_software/LiteOS_Lab_overseas/LiteOS_Lab/iot_link/network/lwm2m/wakaama_lwm2m/core\internals.h ****        without specific prior written permission.
  70:C:/Users/dtjld/Desktop/AIoT_software/LiteOS_Lab_overseas/LiteOS_Lab/iot_link/network/lwm2m/wakaama_lwm2m/core\internals.h **** 
  71:C:/Users/dtjld/Desktop/AIoT_software/LiteOS_Lab_overseas/LiteOS_Lab/iot_link/network/lwm2m/wakaama_lwm2m/core\internals.h ****  THIS SOFTWARE IS PROVIDED BY THE COPYRIGHT HOLDERS AND CONTRIBUTORS "AS IS" AND
  72:C:/Users/dtjld/Desktop/AIoT_software/LiteOS_Lab_overseas/LiteOS_Lab/iot_link/network/lwm2m/wakaama_lwm2m/core\internals.h ****  ANY EXPRESS OR IMPLIED WARRANTIES, INCLUDING, BUT NOT LIMITED TO, THE IMPLIED
  73:C:/Users/dtjld/Desktop/AIoT_software/LiteOS_Lab_overseas/LiteOS_Lab/iot_link/network/lwm2m/wakaama_lwm2m/core\internals.h ****  WARRANTIES OF MERCHANTABILITY AND FITNESS FOR A PARTICULAR PURPOSE ARE DISCLAIMED.
  74:C:/Users/dtjld/Desktop/AIoT_software/LiteOS_Lab_overseas/LiteOS_Lab/iot_link/network/lwm2m/wakaama_lwm2m/core\internals.h ****  IN NO EVENT SHALL THE COPYRIGHT OWNER OR CONTRIBUTORS BE LIABLE FOR ANY DIRECT,
  75:C:/Users/dtjld/Desktop/AIoT_software/LiteOS_Lab_overseas/LiteOS_Lab/iot_link/network/lwm2m/wakaama_lwm2m/core\internals.h ****  INDIRECT, INCIDENTAL, SPECIAL, EXEMPLARY, OR CONSEQUENTIAL DAMAGES (INCLUDING,
  76:C:/Users/dtjld/Desktop/AIoT_software/LiteOS_Lab_overseas/LiteOS_Lab/iot_link/network/lwm2m/wakaama_lwm2m/core\internals.h ****  BUT NOT LIMITED TO, PROCUREMENT OF SUBSTITUTE GOODS OR SERVICES; LOSS OF USE,
  77:C:/Users/dtjld/Desktop/AIoT_software/LiteOS_Lab_overseas/LiteOS_Lab/iot_link/network/lwm2m/wakaama_lwm2m/core\internals.h ****  DATA, OR PROFITS; OR BUSINESS INTERRUPTION) HOWEVER CAUSED AND ON ANY THEORY OF
  78:C:/Users/dtjld/Desktop/AIoT_software/LiteOS_Lab_overseas/LiteOS_Lab/iot_link/network/lwm2m/wakaama_lwm2m/core\internals.h ****  LIABILITY, WHETHER IN CONTRACT, STRICT LIABILITY, OR TORT (INCLUDING NEGLIGENCE OR
  79:C:/Users/dtjld/Desktop/AIoT_software/LiteOS_Lab_overseas/LiteOS_Lab/iot_link/network/lwm2m/wakaama_lwm2m/core\internals.h ****  OTHERWISE) ARISING IN ANY WAY OUT OF THE USE OF THIS SOFTWARE, EVEN IF ADVISED OF
  80:C:/Users/dtjld/Desktop/AIoT_software/LiteOS_Lab_overseas/LiteOS_Lab/iot_link/network/lwm2m/wakaama_lwm2m/core\internals.h ****  THE POSSIBILITY OF SUCH DAMAGE.
  81:C:/Users/dtjld/Desktop/AIoT_software/LiteOS_Lab_overseas/LiteOS_Lab/iot_link/network/lwm2m/wakaama_lwm2m/core\internals.h **** 
  82:C:/Users/dtjld/Desktop/AIoT_software/LiteOS_Lab_overseas/LiteOS_Lab/iot_link/network/lwm2m/wakaama_lwm2m/core\internals.h ****  David Navarro <david.navarro@intel.com>
  83:C:/Users/dtjld/Desktop/AIoT_software/LiteOS_Lab_overseas/LiteOS_Lab/iot_link/network/lwm2m/wakaama_lwm2m/core\internals.h **** 
  84:C:/Users/dtjld/Desktop/AIoT_software/LiteOS_Lab_overseas/LiteOS_Lab/iot_link/network/lwm2m/wakaama_lwm2m/core\internals.h **** */
  85:C:/Users/dtjld/Desktop/AIoT_software/LiteOS_Lab_overseas/LiteOS_Lab/iot_link/network/lwm2m/wakaama_lwm2m/core\internals.h **** 
  86:C:/Users/dtjld/Desktop/AIoT_software/LiteOS_Lab_overseas/LiteOS_Lab/iot_link/network/lwm2m/wakaama_lwm2m/core\internals.h **** #ifndef _LWM2M_INTERNALS_H_
  87:C:/Users/dtjld/Desktop/AIoT_software/LiteOS_Lab_overseas/LiteOS_Lab/iot_link/network/lwm2m/wakaama_lwm2m/core\internals.h **** #define _LWM2M_INTERNALS_H_
  88:C:/Users/dtjld/Desktop/AIoT_software/LiteOS_Lab_overseas/LiteOS_Lab/iot_link/network/lwm2m/wakaama_lwm2m/core\internals.h **** 
  89:C:/Users/dtjld/Desktop/AIoT_software/LiteOS_Lab_overseas/LiteOS_Lab/iot_link/network/lwm2m/wakaama_lwm2m/core\internals.h **** #include "liblwm2m.h"
ARM GAS  C:\Users\dtjld\AppData\Local\Temp\ccRVA30A.s 			page 3


  90:C:/Users/dtjld/Desktop/AIoT_software/LiteOS_Lab_overseas/LiteOS_Lab/iot_link/network/lwm2m/wakaama_lwm2m/core\internals.h **** 
  91:C:/Users/dtjld/Desktop/AIoT_software/LiteOS_Lab_overseas/LiteOS_Lab/iot_link/network/lwm2m/wakaama_lwm2m/core\internals.h **** #include <stdlib.h>
  92:C:/Users/dtjld/Desktop/AIoT_software/LiteOS_Lab_overseas/LiteOS_Lab/iot_link/network/lwm2m/wakaama_lwm2m/core\internals.h **** #include <string.h>
  93:C:/Users/dtjld/Desktop/AIoT_software/LiteOS_Lab_overseas/LiteOS_Lab/iot_link/network/lwm2m/wakaama_lwm2m/core\internals.h **** #include <stdio.h>
  94:C:/Users/dtjld/Desktop/AIoT_software/LiteOS_Lab_overseas/LiteOS_Lab/iot_link/network/lwm2m/wakaama_lwm2m/core\internals.h **** #include <ctype.h>
  95:C:/Users/dtjld/Desktop/AIoT_software/LiteOS_Lab_overseas/LiteOS_Lab/iot_link/network/lwm2m/wakaama_lwm2m/core\internals.h **** #include <stdint.h>
  96:C:/Users/dtjld/Desktop/AIoT_software/LiteOS_Lab_overseas/LiteOS_Lab/iot_link/network/lwm2m/wakaama_lwm2m/core\internals.h **** #include <stddef.h>
  97:C:/Users/dtjld/Desktop/AIoT_software/LiteOS_Lab_overseas/LiteOS_Lab/iot_link/network/lwm2m/wakaama_lwm2m/core\internals.h **** #include <stdbool.h>
  98:C:/Users/dtjld/Desktop/AIoT_software/LiteOS_Lab_overseas/LiteOS_Lab/iot_link/network/lwm2m/wakaama_lwm2m/core\internals.h **** 
  99:C:/Users/dtjld/Desktop/AIoT_software/LiteOS_Lab_overseas/LiteOS_Lab/iot_link/network/lwm2m/wakaama_lwm2m/core\internals.h **** #include "er-coap-13/er-coap-13.h"
 100:C:/Users/dtjld/Desktop/AIoT_software/LiteOS_Lab_overseas/LiteOS_Lab/iot_link/network/lwm2m/wakaama_lwm2m/core\internals.h **** #include "connection.h"
 101:C:/Users/dtjld/Desktop/AIoT_software/LiteOS_Lab_overseas/LiteOS_Lab/iot_link/network/lwm2m/wakaama_lwm2m/core\internals.h **** 
 102:C:/Users/dtjld/Desktop/AIoT_software/LiteOS_Lab_overseas/LiteOS_Lab/iot_link/network/lwm2m/wakaama_lwm2m/core\internals.h **** 
 103:C:/Users/dtjld/Desktop/AIoT_software/LiteOS_Lab_overseas/LiteOS_Lab/iot_link/network/lwm2m/wakaama_lwm2m/core\internals.h **** #ifdef LWM2M_WITH_LOGS
 104:C:/Users/dtjld/Desktop/AIoT_software/LiteOS_Lab_overseas/LiteOS_Lab/iot_link/network/lwm2m/wakaama_lwm2m/core\internals.h **** #include <inttypes.h>
 105:C:/Users/dtjld/Desktop/AIoT_software/LiteOS_Lab_overseas/LiteOS_Lab/iot_link/network/lwm2m/wakaama_lwm2m/core\internals.h **** #define LOG(STR) (void)lwm2m_printf("[%d][%s:%d] " STR "\r\n", (uint32_t)lwm2m_gettime(), __func__ 
 106:C:/Users/dtjld/Desktop/AIoT_software/LiteOS_Lab_overseas/LiteOS_Lab/iot_link/network/lwm2m/wakaama_lwm2m/core\internals.h **** #define LOG_ARG(FMT, ...) (void)lwm2m_printf("[%d][%s:%d] " FMT "\r\n", (uint32_t)lwm2m_gettime(), 
 107:C:/Users/dtjld/Desktop/AIoT_software/LiteOS_Lab_overseas/LiteOS_Lab/iot_link/network/lwm2m/wakaama_lwm2m/core\internals.h **** #define LOG_URI(URI)                                                                \
 108:C:/Users/dtjld/Desktop/AIoT_software/LiteOS_Lab_overseas/LiteOS_Lab/iot_link/network/lwm2m/wakaama_lwm2m/core\internals.h **** {                                                                                   \
 109:C:/Users/dtjld/Desktop/AIoT_software/LiteOS_Lab_overseas/LiteOS_Lab/iot_link/network/lwm2m/wakaama_lwm2m/core\internals.h ****     if ((URI) == NULL) (void)lwm2m_printf("[%s:%d] NULL\r\n", __func__ , __LINE__);     \
 110:C:/Users/dtjld/Desktop/AIoT_software/LiteOS_Lab_overseas/LiteOS_Lab/iot_link/network/lwm2m/wakaama_lwm2m/core\internals.h ****     else                                                                            \
 111:C:/Users/dtjld/Desktop/AIoT_software/LiteOS_Lab_overseas/LiteOS_Lab/iot_link/network/lwm2m/wakaama_lwm2m/core\internals.h ****     {                                                                               \
 112:C:/Users/dtjld/Desktop/AIoT_software/LiteOS_Lab_overseas/LiteOS_Lab/iot_link/network/lwm2m/wakaama_lwm2m/core\internals.h ****         (void)lwm2m_printf("[%s:%d] /%d", __func__ , __LINE__ , (URI)->objectId);       \
 113:C:/Users/dtjld/Desktop/AIoT_software/LiteOS_Lab_overseas/LiteOS_Lab/iot_link/network/lwm2m/wakaama_lwm2m/core\internals.h ****         if (LWM2M_URI_IS_SET_INSTANCE(URI)) (void)lwm2m_printf("/%d", (URI)->instanceId); \
 114:C:/Users/dtjld/Desktop/AIoT_software/LiteOS_Lab_overseas/LiteOS_Lab/iot_link/network/lwm2m/wakaama_lwm2m/core\internals.h ****         if (LWM2M_URI_IS_SET_RESOURCE(URI)) (void)lwm2m_printf("/%d", (URI)->resourceId); \
 115:C:/Users/dtjld/Desktop/AIoT_software/LiteOS_Lab_overseas/LiteOS_Lab/iot_link/network/lwm2m/wakaama_lwm2m/core\internals.h ****         (void)lwm2m_printf("\r\n");                                                       \
 116:C:/Users/dtjld/Desktop/AIoT_software/LiteOS_Lab_overseas/LiteOS_Lab/iot_link/network/lwm2m/wakaama_lwm2m/core\internals.h ****     }                                                                               \
 117:C:/Users/dtjld/Desktop/AIoT_software/LiteOS_Lab_overseas/LiteOS_Lab/iot_link/network/lwm2m/wakaama_lwm2m/core\internals.h **** }
 118:C:/Users/dtjld/Desktop/AIoT_software/LiteOS_Lab_overseas/LiteOS_Lab/iot_link/network/lwm2m/wakaama_lwm2m/core\internals.h **** #define UNUSEX(x)
 119:C:/Users/dtjld/Desktop/AIoT_software/LiteOS_Lab_overseas/LiteOS_Lab/iot_link/network/lwm2m/wakaama_lwm2m/core\internals.h **** #define STR_STATUS(S)                                           \
 120:C:/Users/dtjld/Desktop/AIoT_software/LiteOS_Lab_overseas/LiteOS_Lab/iot_link/network/lwm2m/wakaama_lwm2m/core\internals.h **** ((S) == STATE_DEREGISTERED ? "STATE_DEREGISTERED" :             \
 121:C:/Users/dtjld/Desktop/AIoT_software/LiteOS_Lab_overseas/LiteOS_Lab/iot_link/network/lwm2m/wakaama_lwm2m/core\internals.h **** ((S) == STATE_REG_PENDING ? "STATE_REG_PENDING" :               \
 122:C:/Users/dtjld/Desktop/AIoT_software/LiteOS_Lab_overseas/LiteOS_Lab/iot_link/network/lwm2m/wakaama_lwm2m/core\internals.h **** ((S) == STATE_REGISTERED ? "STATE_REGISTERED" :                 \
 123:C:/Users/dtjld/Desktop/AIoT_software/LiteOS_Lab_overseas/LiteOS_Lab/iot_link/network/lwm2m/wakaama_lwm2m/core\internals.h **** ((S) == STATE_REG_FAILED ? "STATE_REG_FAILED" :                 \
 124:C:/Users/dtjld/Desktop/AIoT_software/LiteOS_Lab_overseas/LiteOS_Lab/iot_link/network/lwm2m/wakaama_lwm2m/core\internals.h **** ((S) == STATE_REG_UPDATE_PENDING ? "STATE_REG_UPDATE_PENDING" : \
 125:C:/Users/dtjld/Desktop/AIoT_software/LiteOS_Lab_overseas/LiteOS_Lab/iot_link/network/lwm2m/wakaama_lwm2m/core\internals.h **** ((S) == STATE_REG_UPDATE_NEEDED ? "STATE_REG_UPDATE_NEEDED" :   \
 126:C:/Users/dtjld/Desktop/AIoT_software/LiteOS_Lab_overseas/LiteOS_Lab/iot_link/network/lwm2m/wakaama_lwm2m/core\internals.h **** ((S) == STATE_REG_FULL_UPDATE_NEEDED ? "STATE_REG_FULL_UPDATE_NEEDED" :   \
 127:C:/Users/dtjld/Desktop/AIoT_software/LiteOS_Lab_overseas/LiteOS_Lab/iot_link/network/lwm2m/wakaama_lwm2m/core\internals.h **** ((S) == STATE_DEREG_PENDING ? "STATE_DEREG_PENDING" :           \
 128:C:/Users/dtjld/Desktop/AIoT_software/LiteOS_Lab_overseas/LiteOS_Lab/iot_link/network/lwm2m/wakaama_lwm2m/core\internals.h **** ((S) == STATE_BS_HOLD_OFF ? "STATE_BS_HOLD_OFF" :               \
 129:C:/Users/dtjld/Desktop/AIoT_software/LiteOS_Lab_overseas/LiteOS_Lab/iot_link/network/lwm2m/wakaama_lwm2m/core\internals.h **** ((S) == STATE_BS_INITIATED ? "STATE_BS_INITIATED" :             \
 130:C:/Users/dtjld/Desktop/AIoT_software/LiteOS_Lab_overseas/LiteOS_Lab/iot_link/network/lwm2m/wakaama_lwm2m/core\internals.h **** ((S) == STATE_BS_PENDING ? "STATE_BS_PENDING" :                 \
 131:C:/Users/dtjld/Desktop/AIoT_software/LiteOS_Lab_overseas/LiteOS_Lab/iot_link/network/lwm2m/wakaama_lwm2m/core\internals.h **** ((S) == STATE_BS_FINISHED ? "STATE_BS_FINISHED" :               \
 132:C:/Users/dtjld/Desktop/AIoT_software/LiteOS_Lab_overseas/LiteOS_Lab/iot_link/network/lwm2m/wakaama_lwm2m/core\internals.h **** ((S) == STATE_BS_FINISHING ? "STATE_BS_FINISHING" :             \
 133:C:/Users/dtjld/Desktop/AIoT_software/LiteOS_Lab_overseas/LiteOS_Lab/iot_link/network/lwm2m/wakaama_lwm2m/core\internals.h **** ((S) == STATE_BS_FAILING ? "STATE_BS_FAILING" :                 \
 134:C:/Users/dtjld/Desktop/AIoT_software/LiteOS_Lab_overseas/LiteOS_Lab/iot_link/network/lwm2m/wakaama_lwm2m/core\internals.h **** ((S) == STATE_BS_FAILED ? "STATE_BS_FAILED" :                   \
 135:C:/Users/dtjld/Desktop/AIoT_software/LiteOS_Lab_overseas/LiteOS_Lab/iot_link/network/lwm2m/wakaama_lwm2m/core\internals.h **** "Unknown")))))))))))))))
 136:C:/Users/dtjld/Desktop/AIoT_software/LiteOS_Lab_overseas/LiteOS_Lab/iot_link/network/lwm2m/wakaama_lwm2m/core\internals.h **** #define STR_MEDIA_TYPE(M)                                \
 137:C:/Users/dtjld/Desktop/AIoT_software/LiteOS_Lab_overseas/LiteOS_Lab/iot_link/network/lwm2m/wakaama_lwm2m/core\internals.h **** ((M) == LWM2M_CONTENT_TEXT ? "LWM2M_CONTENT_TEXT" :      \
 138:C:/Users/dtjld/Desktop/AIoT_software/LiteOS_Lab_overseas/LiteOS_Lab/iot_link/network/lwm2m/wakaama_lwm2m/core\internals.h **** ((M) == LWM2M_CONTENT_LINK ? "LWM2M_CONTENT_LINK" :      \
 139:C:/Users/dtjld/Desktop/AIoT_software/LiteOS_Lab_overseas/LiteOS_Lab/iot_link/network/lwm2m/wakaama_lwm2m/core\internals.h **** ((M) == LWM2M_CONTENT_OPAQUE ? "LWM2M_CONTENT_OPAQUE" :  \
 140:C:/Users/dtjld/Desktop/AIoT_software/LiteOS_Lab_overseas/LiteOS_Lab/iot_link/network/lwm2m/wakaama_lwm2m/core\internals.h **** ((M) == LWM2M_CONTENT_TLV ? "LWM2M_CONTENT_TLV" :        \
 141:C:/Users/dtjld/Desktop/AIoT_software/LiteOS_Lab_overseas/LiteOS_Lab/iot_link/network/lwm2m/wakaama_lwm2m/core\internals.h **** ((M) == LWM2M_CONTENT_JSON ? "LWM2M_CONTENT_JSON" :      \
 142:C:/Users/dtjld/Desktop/AIoT_software/LiteOS_Lab_overseas/LiteOS_Lab/iot_link/network/lwm2m/wakaama_lwm2m/core\internals.h **** "Unknown")))))
 143:C:/Users/dtjld/Desktop/AIoT_software/LiteOS_Lab_overseas/LiteOS_Lab/iot_link/network/lwm2m/wakaama_lwm2m/core\internals.h **** #define STR_STATE(S)                                \
 144:C:/Users/dtjld/Desktop/AIoT_software/LiteOS_Lab_overseas/LiteOS_Lab/iot_link/network/lwm2m/wakaama_lwm2m/core\internals.h **** ((S) == STATE_INITIAL ? "STATE_INITIAL" :      \
 145:C:/Users/dtjld/Desktop/AIoT_software/LiteOS_Lab_overseas/LiteOS_Lab/iot_link/network/lwm2m/wakaama_lwm2m/core\internals.h **** ((S) == STATE_BOOTSTRAP_REQUIRED ? "STATE_BOOTSTRAP_REQUIRED" :      \
 146:C:/Users/dtjld/Desktop/AIoT_software/LiteOS_Lab_overseas/LiteOS_Lab/iot_link/network/lwm2m/wakaama_lwm2m/core\internals.h **** ((S) == STATE_BOOTSTRAPPING ? "STATE_BOOTSTRAPPING" :  \
ARM GAS  C:\Users\dtjld\AppData\Local\Temp\ccRVA30A.s 			page 4


 147:C:/Users/dtjld/Desktop/AIoT_software/LiteOS_Lab_overseas/LiteOS_Lab/iot_link/network/lwm2m/wakaama_lwm2m/core\internals.h **** ((S) == STATE_REGISTER_REQUIRED ? "STATE_REGISTER_REQUIRED" :        \
 148:C:/Users/dtjld/Desktop/AIoT_software/LiteOS_Lab_overseas/LiteOS_Lab/iot_link/network/lwm2m/wakaama_lwm2m/core\internals.h **** ((S) == STATE_REGISTERING ? "STATE_REGISTERING" :      \
 149:C:/Users/dtjld/Desktop/AIoT_software/LiteOS_Lab_overseas/LiteOS_Lab/iot_link/network/lwm2m/wakaama_lwm2m/core\internals.h **** ((S) == STATE_READY ? "STATE_READY" :      \
 150:C:/Users/dtjld/Desktop/AIoT_software/LiteOS_Lab_overseas/LiteOS_Lab/iot_link/network/lwm2m/wakaama_lwm2m/core\internals.h **** "Unknown"))))))
 151:C:/Users/dtjld/Desktop/AIoT_software/LiteOS_Lab_overseas/LiteOS_Lab/iot_link/network/lwm2m/wakaama_lwm2m/core\internals.h **** #else
 152:C:/Users/dtjld/Desktop/AIoT_software/LiteOS_Lab_overseas/LiteOS_Lab/iot_link/network/lwm2m/wakaama_lwm2m/core\internals.h **** #define UNUSEX(x) (x)=(x)
 153:C:/Users/dtjld/Desktop/AIoT_software/LiteOS_Lab_overseas/LiteOS_Lab/iot_link/network/lwm2m/wakaama_lwm2m/core\internals.h **** #define LOG_ARG(FMT, ...)
 154:C:/Users/dtjld/Desktop/AIoT_software/LiteOS_Lab_overseas/LiteOS_Lab/iot_link/network/lwm2m/wakaama_lwm2m/core\internals.h **** #define LOG(STR)
 155:C:/Users/dtjld/Desktop/AIoT_software/LiteOS_Lab_overseas/LiteOS_Lab/iot_link/network/lwm2m/wakaama_lwm2m/core\internals.h **** #define LOG_URI(URI)
 156:C:/Users/dtjld/Desktop/AIoT_software/LiteOS_Lab_overseas/LiteOS_Lab/iot_link/network/lwm2m/wakaama_lwm2m/core\internals.h **** #endif
 157:C:/Users/dtjld/Desktop/AIoT_software/LiteOS_Lab_overseas/LiteOS_Lab/iot_link/network/lwm2m/wakaama_lwm2m/core\internals.h **** 
 158:C:/Users/dtjld/Desktop/AIoT_software/LiteOS_Lab_overseas/LiteOS_Lab/iot_link/network/lwm2m/wakaama_lwm2m/core\internals.h **** #define LWM2M_DEFAULT_LIFETIME  86400
 159:C:/Users/dtjld/Desktop/AIoT_software/LiteOS_Lab_overseas/LiteOS_Lab/iot_link/network/lwm2m/wakaama_lwm2m/core\internals.h **** 
 160:C:/Users/dtjld/Desktop/AIoT_software/LiteOS_Lab_overseas/LiteOS_Lab/iot_link/network/lwm2m/wakaama_lwm2m/core\internals.h **** #ifdef LWM2M_SUPPORT_JSON
 161:C:/Users/dtjld/Desktop/AIoT_software/LiteOS_Lab_overseas/LiteOS_Lab/iot_link/network/lwm2m/wakaama_lwm2m/core\internals.h **** #define REG_LWM2M_RESOURCE_TYPE     ">;rt=\"oma.lwm2m\";ct=11543,"
 162:C:/Users/dtjld/Desktop/AIoT_software/LiteOS_Lab_overseas/LiteOS_Lab/iot_link/network/lwm2m/wakaama_lwm2m/core\internals.h **** #define REG_LWM2M_RESOURCE_TYPE_LEN 25
 163:C:/Users/dtjld/Desktop/AIoT_software/LiteOS_Lab_overseas/LiteOS_Lab/iot_link/network/lwm2m/wakaama_lwm2m/core\internals.h **** #else
 164:C:/Users/dtjld/Desktop/AIoT_software/LiteOS_Lab_overseas/LiteOS_Lab/iot_link/network/lwm2m/wakaama_lwm2m/core\internals.h **** #define REG_LWM2M_RESOURCE_TYPE     ">;rt=\"oma.lwm2m\","
 165:C:/Users/dtjld/Desktop/AIoT_software/LiteOS_Lab_overseas/LiteOS_Lab/iot_link/network/lwm2m/wakaama_lwm2m/core\internals.h **** #define REG_LWM2M_RESOURCE_TYPE_LEN 17
 166:C:/Users/dtjld/Desktop/AIoT_software/LiteOS_Lab_overseas/LiteOS_Lab/iot_link/network/lwm2m/wakaama_lwm2m/core\internals.h **** #endif
 167:C:/Users/dtjld/Desktop/AIoT_software/LiteOS_Lab_overseas/LiteOS_Lab/iot_link/network/lwm2m/wakaama_lwm2m/core\internals.h **** #define REG_START           "<"
 168:C:/Users/dtjld/Desktop/AIoT_software/LiteOS_Lab_overseas/LiteOS_Lab/iot_link/network/lwm2m/wakaama_lwm2m/core\internals.h **** #define REG_DEFAULT_PATH    "/"
 169:C:/Users/dtjld/Desktop/AIoT_software/LiteOS_Lab_overseas/LiteOS_Lab/iot_link/network/lwm2m/wakaama_lwm2m/core\internals.h **** 
 170:C:/Users/dtjld/Desktop/AIoT_software/LiteOS_Lab_overseas/LiteOS_Lab/iot_link/network/lwm2m/wakaama_lwm2m/core\internals.h **** #define REG_OBJECT_MIN_LEN  5   // "</n>,"
 171:C:/Users/dtjld/Desktop/AIoT_software/LiteOS_Lab_overseas/LiteOS_Lab/iot_link/network/lwm2m/wakaama_lwm2m/core\internals.h **** #define REG_PATH_END        ">,"
 172:C:/Users/dtjld/Desktop/AIoT_software/LiteOS_Lab_overseas/LiteOS_Lab/iot_link/network/lwm2m/wakaama_lwm2m/core\internals.h **** #define REG_PATH_SEPARATOR  "/"
 173:C:/Users/dtjld/Desktop/AIoT_software/LiteOS_Lab_overseas/LiteOS_Lab/iot_link/network/lwm2m/wakaama_lwm2m/core\internals.h **** 
 174:C:/Users/dtjld/Desktop/AIoT_software/LiteOS_Lab_overseas/LiteOS_Lab/iot_link/network/lwm2m/wakaama_lwm2m/core\internals.h **** #define REG_OBJECT_PATH             "<%s/%hu>,"
 175:C:/Users/dtjld/Desktop/AIoT_software/LiteOS_Lab_overseas/LiteOS_Lab/iot_link/network/lwm2m/wakaama_lwm2m/core\internals.h **** #define REG_OBJECT_INSTANCE_PATH    "<%s/%hu/%hu>,"
 176:C:/Users/dtjld/Desktop/AIoT_software/LiteOS_Lab_overseas/LiteOS_Lab/iot_link/network/lwm2m/wakaama_lwm2m/core\internals.h **** 
 177:C:/Users/dtjld/Desktop/AIoT_software/LiteOS_Lab_overseas/LiteOS_Lab/iot_link/network/lwm2m/wakaama_lwm2m/core\internals.h **** #define URI_REGISTRATION_SEGMENT        "rd"
 178:C:/Users/dtjld/Desktop/AIoT_software/LiteOS_Lab_overseas/LiteOS_Lab/iot_link/network/lwm2m/wakaama_lwm2m/core\internals.h **** #define URI_REGISTRATION_SEGMENT_LEN    2
 179:C:/Users/dtjld/Desktop/AIoT_software/LiteOS_Lab_overseas/LiteOS_Lab/iot_link/network/lwm2m/wakaama_lwm2m/core\internals.h **** #define URI_BOOTSTRAP_SEGMENT           "bs"
 180:C:/Users/dtjld/Desktop/AIoT_software/LiteOS_Lab_overseas/LiteOS_Lab/iot_link/network/lwm2m/wakaama_lwm2m/core\internals.h **** #define URI_BOOTSTRAP_SEGMENT_LEN       2
 181:C:/Users/dtjld/Desktop/AIoT_software/LiteOS_Lab_overseas/LiteOS_Lab/iot_link/network/lwm2m/wakaama_lwm2m/core\internals.h **** 
 182:C:/Users/dtjld/Desktop/AIoT_software/LiteOS_Lab_overseas/LiteOS_Lab/iot_link/network/lwm2m/wakaama_lwm2m/core\internals.h **** #define QUERY_STARTER       "?"
 183:C:/Users/dtjld/Desktop/AIoT_software/LiteOS_Lab_overseas/LiteOS_Lab/iot_link/network/lwm2m/wakaama_lwm2m/core\internals.h **** #define QUERY_NAME          "ep="
 184:C:/Users/dtjld/Desktop/AIoT_software/LiteOS_Lab_overseas/LiteOS_Lab/iot_link/network/lwm2m/wakaama_lwm2m/core\internals.h **** #define QUERY_NAME_LEN      3       // strlen("ep=")
 185:C:/Users/dtjld/Desktop/AIoT_software/LiteOS_Lab_overseas/LiteOS_Lab/iot_link/network/lwm2m/wakaama_lwm2m/core\internals.h **** #define QUERY_SMS           "sms="
 186:C:/Users/dtjld/Desktop/AIoT_software/LiteOS_Lab_overseas/LiteOS_Lab/iot_link/network/lwm2m/wakaama_lwm2m/core\internals.h **** #define QUERY_SMS_LEN       4
 187:C:/Users/dtjld/Desktop/AIoT_software/LiteOS_Lab_overseas/LiteOS_Lab/iot_link/network/lwm2m/wakaama_lwm2m/core\internals.h **** #define QUERY_LIFETIME      "lt="
 188:C:/Users/dtjld/Desktop/AIoT_software/LiteOS_Lab_overseas/LiteOS_Lab/iot_link/network/lwm2m/wakaama_lwm2m/core\internals.h **** #define QUERY_LIFETIME_LEN  3
 189:C:/Users/dtjld/Desktop/AIoT_software/LiteOS_Lab_overseas/LiteOS_Lab/iot_link/network/lwm2m/wakaama_lwm2m/core\internals.h **** #define QUERY_VERSION       "lwm2m="
 190:C:/Users/dtjld/Desktop/AIoT_software/LiteOS_Lab_overseas/LiteOS_Lab/iot_link/network/lwm2m/wakaama_lwm2m/core\internals.h **** #define QUERY_VERSION_LEN   6
 191:C:/Users/dtjld/Desktop/AIoT_software/LiteOS_Lab_overseas/LiteOS_Lab/iot_link/network/lwm2m/wakaama_lwm2m/core\internals.h **** #define QUERY_BINDING       "b="
 192:C:/Users/dtjld/Desktop/AIoT_software/LiteOS_Lab_overseas/LiteOS_Lab/iot_link/network/lwm2m/wakaama_lwm2m/core\internals.h **** #define QUERY_BINDING_LEN   2
 193:C:/Users/dtjld/Desktop/AIoT_software/LiteOS_Lab_overseas/LiteOS_Lab/iot_link/network/lwm2m/wakaama_lwm2m/core\internals.h **** #define QUERY_DELIMITER     "&"
 194:C:/Users/dtjld/Desktop/AIoT_software/LiteOS_Lab_overseas/LiteOS_Lab/iot_link/network/lwm2m/wakaama_lwm2m/core\internals.h **** 
 195:C:/Users/dtjld/Desktop/AIoT_software/LiteOS_Lab_overseas/LiteOS_Lab/iot_link/network/lwm2m/wakaama_lwm2m/core\internals.h **** #define LWM2M_VERSION      "1.0"
 196:C:/Users/dtjld/Desktop/AIoT_software/LiteOS_Lab_overseas/LiteOS_Lab/iot_link/network/lwm2m/wakaama_lwm2m/core\internals.h **** #define LWM2M_VERSION_LEN  3
 197:C:/Users/dtjld/Desktop/AIoT_software/LiteOS_Lab_overseas/LiteOS_Lab/iot_link/network/lwm2m/wakaama_lwm2m/core\internals.h **** 
 198:C:/Users/dtjld/Desktop/AIoT_software/LiteOS_Lab_overseas/LiteOS_Lab/iot_link/network/lwm2m/wakaama_lwm2m/core\internals.h **** #define QUERY_VERSION_FULL      QUERY_VERSION LWM2M_VERSION
 199:C:/Users/dtjld/Desktop/AIoT_software/LiteOS_Lab_overseas/LiteOS_Lab/iot_link/network/lwm2m/wakaama_lwm2m/core\internals.h **** #define QUERY_VERSION_FULL_LEN  QUERY_VERSION_LEN+LWM2M_VERSION_LEN
 200:C:/Users/dtjld/Desktop/AIoT_software/LiteOS_Lab_overseas/LiteOS_Lab/iot_link/network/lwm2m/wakaama_lwm2m/core\internals.h **** 
 201:C:/Users/dtjld/Desktop/AIoT_software/LiteOS_Lab_overseas/LiteOS_Lab/iot_link/network/lwm2m/wakaama_lwm2m/core\internals.h **** #define REG_URI_START       '<'
 202:C:/Users/dtjld/Desktop/AIoT_software/LiteOS_Lab_overseas/LiteOS_Lab/iot_link/network/lwm2m/wakaama_lwm2m/core\internals.h **** #define REG_URI_END         '>'
 203:C:/Users/dtjld/Desktop/AIoT_software/LiteOS_Lab_overseas/LiteOS_Lab/iot_link/network/lwm2m/wakaama_lwm2m/core\internals.h **** #define REG_DELIMITER       ','
ARM GAS  C:\Users\dtjld\AppData\Local\Temp\ccRVA30A.s 			page 5


 204:C:/Users/dtjld/Desktop/AIoT_software/LiteOS_Lab_overseas/LiteOS_Lab/iot_link/network/lwm2m/wakaama_lwm2m/core\internals.h **** #define REG_ATTR_SEPARATOR  ';'
 205:C:/Users/dtjld/Desktop/AIoT_software/LiteOS_Lab_overseas/LiteOS_Lab/iot_link/network/lwm2m/wakaama_lwm2m/core\internals.h **** #define REG_ATTR_EQUALS     '='
 206:C:/Users/dtjld/Desktop/AIoT_software/LiteOS_Lab_overseas/LiteOS_Lab/iot_link/network/lwm2m/wakaama_lwm2m/core\internals.h **** #define REG_ATTR_TYPE_KEY           "rt"
 207:C:/Users/dtjld/Desktop/AIoT_software/LiteOS_Lab_overseas/LiteOS_Lab/iot_link/network/lwm2m/wakaama_lwm2m/core\internals.h **** #define REG_ATTR_TYPE_KEY_LEN       2
 208:C:/Users/dtjld/Desktop/AIoT_software/LiteOS_Lab_overseas/LiteOS_Lab/iot_link/network/lwm2m/wakaama_lwm2m/core\internals.h **** #define REG_ATTR_TYPE_VALUE         "\"oma.lwm2m\""
 209:C:/Users/dtjld/Desktop/AIoT_software/LiteOS_Lab_overseas/LiteOS_Lab/iot_link/network/lwm2m/wakaama_lwm2m/core\internals.h **** #define REG_ATTR_TYPE_VALUE_LEN     11
 210:C:/Users/dtjld/Desktop/AIoT_software/LiteOS_Lab_overseas/LiteOS_Lab/iot_link/network/lwm2m/wakaama_lwm2m/core\internals.h **** #define REG_ATTR_CONTENT_KEY        "ct"
 211:C:/Users/dtjld/Desktop/AIoT_software/LiteOS_Lab_overseas/LiteOS_Lab/iot_link/network/lwm2m/wakaama_lwm2m/core\internals.h **** #define REG_ATTR_CONTENT_KEY_LEN    2
 212:C:/Users/dtjld/Desktop/AIoT_software/LiteOS_Lab_overseas/LiteOS_Lab/iot_link/network/lwm2m/wakaama_lwm2m/core\internals.h **** #define REG_ATTR_CONTENT_JSON       "11543"   // Temporary value
 213:C:/Users/dtjld/Desktop/AIoT_software/LiteOS_Lab_overseas/LiteOS_Lab/iot_link/network/lwm2m/wakaama_lwm2m/core\internals.h **** #define REG_ATTR_CONTENT_JSON_LEN   5
 214:C:/Users/dtjld/Desktop/AIoT_software/LiteOS_Lab_overseas/LiteOS_Lab/iot_link/network/lwm2m/wakaama_lwm2m/core\internals.h **** 
 215:C:/Users/dtjld/Desktop/AIoT_software/LiteOS_Lab_overseas/LiteOS_Lab/iot_link/network/lwm2m/wakaama_lwm2m/core\internals.h **** #define ATTR_SERVER_ID_STR       "ep="
 216:C:/Users/dtjld/Desktop/AIoT_software/LiteOS_Lab_overseas/LiteOS_Lab/iot_link/network/lwm2m/wakaama_lwm2m/core\internals.h **** #define ATTR_SERVER_ID_LEN       3
 217:C:/Users/dtjld/Desktop/AIoT_software/LiteOS_Lab_overseas/LiteOS_Lab/iot_link/network/lwm2m/wakaama_lwm2m/core\internals.h **** #define ATTR_MIN_PERIOD_STR      "pmin="
 218:C:/Users/dtjld/Desktop/AIoT_software/LiteOS_Lab_overseas/LiteOS_Lab/iot_link/network/lwm2m/wakaama_lwm2m/core\internals.h **** #define ATTR_MIN_PERIOD_LEN      5
 219:C:/Users/dtjld/Desktop/AIoT_software/LiteOS_Lab_overseas/LiteOS_Lab/iot_link/network/lwm2m/wakaama_lwm2m/core\internals.h **** #define ATTR_MAX_PERIOD_STR      "pmax="
 220:C:/Users/dtjld/Desktop/AIoT_software/LiteOS_Lab_overseas/LiteOS_Lab/iot_link/network/lwm2m/wakaama_lwm2m/core\internals.h **** #define ATTR_MAX_PERIOD_LEN      5
 221:C:/Users/dtjld/Desktop/AIoT_software/LiteOS_Lab_overseas/LiteOS_Lab/iot_link/network/lwm2m/wakaama_lwm2m/core\internals.h **** #define ATTR_GREATER_THAN_STR    "gt="
 222:C:/Users/dtjld/Desktop/AIoT_software/LiteOS_Lab_overseas/LiteOS_Lab/iot_link/network/lwm2m/wakaama_lwm2m/core\internals.h **** #define ATTR_GREATER_THAN_LEN    3
 223:C:/Users/dtjld/Desktop/AIoT_software/LiteOS_Lab_overseas/LiteOS_Lab/iot_link/network/lwm2m/wakaama_lwm2m/core\internals.h **** #define ATTR_LESS_THAN_STR       "lt="
 224:C:/Users/dtjld/Desktop/AIoT_software/LiteOS_Lab_overseas/LiteOS_Lab/iot_link/network/lwm2m/wakaama_lwm2m/core\internals.h **** #define ATTR_LESS_THAN_LEN       3
 225:C:/Users/dtjld/Desktop/AIoT_software/LiteOS_Lab_overseas/LiteOS_Lab/iot_link/network/lwm2m/wakaama_lwm2m/core\internals.h **** #define ATTR_STEP_STR            "st="
 226:C:/Users/dtjld/Desktop/AIoT_software/LiteOS_Lab_overseas/LiteOS_Lab/iot_link/network/lwm2m/wakaama_lwm2m/core\internals.h **** #define ATTR_STEP_LEN            3
 227:C:/Users/dtjld/Desktop/AIoT_software/LiteOS_Lab_overseas/LiteOS_Lab/iot_link/network/lwm2m/wakaama_lwm2m/core\internals.h **** #define ATTR_DIMENSION_STR       "dim="
 228:C:/Users/dtjld/Desktop/AIoT_software/LiteOS_Lab_overseas/LiteOS_Lab/iot_link/network/lwm2m/wakaama_lwm2m/core\internals.h **** #define ATTR_DIMENSION_LEN       4
 229:C:/Users/dtjld/Desktop/AIoT_software/LiteOS_Lab_overseas/LiteOS_Lab/iot_link/network/lwm2m/wakaama_lwm2m/core\internals.h **** 
 230:C:/Users/dtjld/Desktop/AIoT_software/LiteOS_Lab_overseas/LiteOS_Lab/iot_link/network/lwm2m/wakaama_lwm2m/core\internals.h **** #define URI_MAX_STRING_LEN    18      // /65535/65535/65535
 231:C:/Users/dtjld/Desktop/AIoT_software/LiteOS_Lab_overseas/LiteOS_Lab/iot_link/network/lwm2m/wakaama_lwm2m/core\internals.h **** #define _PRV_64BIT_BUFFER_SIZE 8
 232:C:/Users/dtjld/Desktop/AIoT_software/LiteOS_Lab_overseas/LiteOS_Lab/iot_link/network/lwm2m/wakaama_lwm2m/core\internals.h **** 
 233:C:/Users/dtjld/Desktop/AIoT_software/LiteOS_Lab_overseas/LiteOS_Lab/iot_link/network/lwm2m/wakaama_lwm2m/core\internals.h **** #define LINK_ITEM_START             "<"
 234:C:/Users/dtjld/Desktop/AIoT_software/LiteOS_Lab_overseas/LiteOS_Lab/iot_link/network/lwm2m/wakaama_lwm2m/core\internals.h **** #define LINK_ITEM_START_SIZE        1
 235:C:/Users/dtjld/Desktop/AIoT_software/LiteOS_Lab_overseas/LiteOS_Lab/iot_link/network/lwm2m/wakaama_lwm2m/core\internals.h **** #define LINK_ITEM_END               ">,"
 236:C:/Users/dtjld/Desktop/AIoT_software/LiteOS_Lab_overseas/LiteOS_Lab/iot_link/network/lwm2m/wakaama_lwm2m/core\internals.h **** #define LINK_ITEM_END_SIZE          2
 237:C:/Users/dtjld/Desktop/AIoT_software/LiteOS_Lab_overseas/LiteOS_Lab/iot_link/network/lwm2m/wakaama_lwm2m/core\internals.h **** #define LINK_ITEM_DIM_START         ">;dim="
 238:C:/Users/dtjld/Desktop/AIoT_software/LiteOS_Lab_overseas/LiteOS_Lab/iot_link/network/lwm2m/wakaama_lwm2m/core\internals.h **** #define LINK_ITEM_DIM_START_SIZE    6
 239:C:/Users/dtjld/Desktop/AIoT_software/LiteOS_Lab_overseas/LiteOS_Lab/iot_link/network/lwm2m/wakaama_lwm2m/core\internals.h **** #define LINK_ITEM_ATTR_END          ","
 240:C:/Users/dtjld/Desktop/AIoT_software/LiteOS_Lab_overseas/LiteOS_Lab/iot_link/network/lwm2m/wakaama_lwm2m/core\internals.h **** #define LINK_ITEM_ATTR_END_SIZE     1
 241:C:/Users/dtjld/Desktop/AIoT_software/LiteOS_Lab_overseas/LiteOS_Lab/iot_link/network/lwm2m/wakaama_lwm2m/core\internals.h **** #define LINK_URI_SEPARATOR          "/"
 242:C:/Users/dtjld/Desktop/AIoT_software/LiteOS_Lab_overseas/LiteOS_Lab/iot_link/network/lwm2m/wakaama_lwm2m/core\internals.h **** #define LINK_URI_SEPARATOR_SIZE     1
 243:C:/Users/dtjld/Desktop/AIoT_software/LiteOS_Lab_overseas/LiteOS_Lab/iot_link/network/lwm2m/wakaama_lwm2m/core\internals.h **** #define LINK_ATTR_SEPARATOR         ";"
 244:C:/Users/dtjld/Desktop/AIoT_software/LiteOS_Lab_overseas/LiteOS_Lab/iot_link/network/lwm2m/wakaama_lwm2m/core\internals.h **** #define LINK_ATTR_SEPARATOR_SIZE    1
 245:C:/Users/dtjld/Desktop/AIoT_software/LiteOS_Lab_overseas/LiteOS_Lab/iot_link/network/lwm2m/wakaama_lwm2m/core\internals.h **** 
 246:C:/Users/dtjld/Desktop/AIoT_software/LiteOS_Lab_overseas/LiteOS_Lab/iot_link/network/lwm2m/wakaama_lwm2m/core\internals.h **** #define ATTR_FLAG_NUMERIC (uint8_t)(LWM2M_ATTR_FLAG_LESS_THAN | LWM2M_ATTR_FLAG_GREATER_THAN | LWM2
 247:C:/Users/dtjld/Desktop/AIoT_software/LiteOS_Lab_overseas/LiteOS_Lab/iot_link/network/lwm2m/wakaama_lwm2m/core\internals.h **** 
 248:C:/Users/dtjld/Desktop/AIoT_software/LiteOS_Lab_overseas/LiteOS_Lab/iot_link/network/lwm2m/wakaama_lwm2m/core\internals.h **** #define LWM2M_URI_FLAG_DM           (uint8_t)0x00
 249:C:/Users/dtjld/Desktop/AIoT_software/LiteOS_Lab_overseas/LiteOS_Lab/iot_link/network/lwm2m/wakaama_lwm2m/core\internals.h **** #define LWM2M_URI_FLAG_DELETE_ALL   (uint8_t)0x10
 250:C:/Users/dtjld/Desktop/AIoT_software/LiteOS_Lab_overseas/LiteOS_Lab/iot_link/network/lwm2m/wakaama_lwm2m/core\internals.h **** #define LWM2M_URI_FLAG_REGISTRATION (uint8_t)0x20
 251:C:/Users/dtjld/Desktop/AIoT_software/LiteOS_Lab_overseas/LiteOS_Lab/iot_link/network/lwm2m/wakaama_lwm2m/core\internals.h **** #define LWM2M_URI_FLAG_BOOTSTRAP    (uint8_t)0x40
 252:C:/Users/dtjld/Desktop/AIoT_software/LiteOS_Lab_overseas/LiteOS_Lab/iot_link/network/lwm2m/wakaama_lwm2m/core\internals.h **** 
 253:C:/Users/dtjld/Desktop/AIoT_software/LiteOS_Lab_overseas/LiteOS_Lab/iot_link/network/lwm2m/wakaama_lwm2m/core\internals.h **** #define LWM2M_URI_MASK_TYPE (uint8_t)0x70
 254:C:/Users/dtjld/Desktop/AIoT_software/LiteOS_Lab_overseas/LiteOS_Lab/iot_link/network/lwm2m/wakaama_lwm2m/core\internals.h **** #define LWM2M_URI_MASK_ID   (uint8_t)0x07
 255:C:/Users/dtjld/Desktop/AIoT_software/LiteOS_Lab_overseas/LiteOS_Lab/iot_link/network/lwm2m/wakaama_lwm2m/core\internals.h **** 
 256:C:/Users/dtjld/Desktop/AIoT_software/LiteOS_Lab_overseas/LiteOS_Lab/iot_link/network/lwm2m/wakaama_lwm2m/core\internals.h **** typedef struct
 257:C:/Users/dtjld/Desktop/AIoT_software/LiteOS_Lab_overseas/LiteOS_Lab/iot_link/network/lwm2m/wakaama_lwm2m/core\internals.h **** {
 258:C:/Users/dtjld/Desktop/AIoT_software/LiteOS_Lab_overseas/LiteOS_Lab/iot_link/network/lwm2m/wakaama_lwm2m/core\internals.h ****     uint16_t clientID;
 259:C:/Users/dtjld/Desktop/AIoT_software/LiteOS_Lab_overseas/LiteOS_Lab/iot_link/network/lwm2m/wakaama_lwm2m/core\internals.h ****     lwm2m_uri_t uri;
 260:C:/Users/dtjld/Desktop/AIoT_software/LiteOS_Lab_overseas/LiteOS_Lab/iot_link/network/lwm2m/wakaama_lwm2m/core\internals.h ****     lwm2m_result_callback_t callback;
ARM GAS  C:\Users\dtjld\AppData\Local\Temp\ccRVA30A.s 			page 6


 261:C:/Users/dtjld/Desktop/AIoT_software/LiteOS_Lab_overseas/LiteOS_Lab/iot_link/network/lwm2m/wakaama_lwm2m/core\internals.h ****     void * userData;
 262:C:/Users/dtjld/Desktop/AIoT_software/LiteOS_Lab_overseas/LiteOS_Lab/iot_link/network/lwm2m/wakaama_lwm2m/core\internals.h **** } dm_data_t;
 263:C:/Users/dtjld/Desktop/AIoT_software/LiteOS_Lab_overseas/LiteOS_Lab/iot_link/network/lwm2m/wakaama_lwm2m/core\internals.h **** 
 264:C:/Users/dtjld/Desktop/AIoT_software/LiteOS_Lab_overseas/LiteOS_Lab/iot_link/network/lwm2m/wakaama_lwm2m/core\internals.h **** typedef enum
 265:C:/Users/dtjld/Desktop/AIoT_software/LiteOS_Lab_overseas/LiteOS_Lab/iot_link/network/lwm2m/wakaama_lwm2m/core\internals.h **** {
 266:C:/Users/dtjld/Desktop/AIoT_software/LiteOS_Lab_overseas/LiteOS_Lab/iot_link/network/lwm2m/wakaama_lwm2m/core\internals.h ****     URI_DEPTH_OBJECT,
 267:C:/Users/dtjld/Desktop/AIoT_software/LiteOS_Lab_overseas/LiteOS_Lab/iot_link/network/lwm2m/wakaama_lwm2m/core\internals.h ****     URI_DEPTH_OBJECT_INSTANCE,
 268:C:/Users/dtjld/Desktop/AIoT_software/LiteOS_Lab_overseas/LiteOS_Lab/iot_link/network/lwm2m/wakaama_lwm2m/core\internals.h ****     URI_DEPTH_RESOURCE,
 269:C:/Users/dtjld/Desktop/AIoT_software/LiteOS_Lab_overseas/LiteOS_Lab/iot_link/network/lwm2m/wakaama_lwm2m/core\internals.h ****     URI_DEPTH_RESOURCE_INSTANCE
 270:C:/Users/dtjld/Desktop/AIoT_software/LiteOS_Lab_overseas/LiteOS_Lab/iot_link/network/lwm2m/wakaama_lwm2m/core\internals.h **** } uri_depth_t;
 271:C:/Users/dtjld/Desktop/AIoT_software/LiteOS_Lab_overseas/LiteOS_Lab/iot_link/network/lwm2m/wakaama_lwm2m/core\internals.h **** 
 272:C:/Users/dtjld/Desktop/AIoT_software/LiteOS_Lab_overseas/LiteOS_Lab/iot_link/network/lwm2m/wakaama_lwm2m/core\internals.h **** #ifdef LWM2M_BOOTSTRAP_SERVER_MODE
 273:C:/Users/dtjld/Desktop/AIoT_software/LiteOS_Lab_overseas/LiteOS_Lab/iot_link/network/lwm2m/wakaama_lwm2m/core\internals.h **** typedef struct
 274:C:/Users/dtjld/Desktop/AIoT_software/LiteOS_Lab_overseas/LiteOS_Lab/iot_link/network/lwm2m/wakaama_lwm2m/core\internals.h **** {
 275:C:/Users/dtjld/Desktop/AIoT_software/LiteOS_Lab_overseas/LiteOS_Lab/iot_link/network/lwm2m/wakaama_lwm2m/core\internals.h ****     bool        isUri;
 276:C:/Users/dtjld/Desktop/AIoT_software/LiteOS_Lab_overseas/LiteOS_Lab/iot_link/network/lwm2m/wakaama_lwm2m/core\internals.h ****     lwm2m_uri_t uri;
 277:C:/Users/dtjld/Desktop/AIoT_software/LiteOS_Lab_overseas/LiteOS_Lab/iot_link/network/lwm2m/wakaama_lwm2m/core\internals.h ****     lwm2m_bootstrap_callback_t callback;
 278:C:/Users/dtjld/Desktop/AIoT_software/LiteOS_Lab_overseas/LiteOS_Lab/iot_link/network/lwm2m/wakaama_lwm2m/core\internals.h ****     void *      userData;
 279:C:/Users/dtjld/Desktop/AIoT_software/LiteOS_Lab_overseas/LiteOS_Lab/iot_link/network/lwm2m/wakaama_lwm2m/core\internals.h **** } bs_data_t;
 280:C:/Users/dtjld/Desktop/AIoT_software/LiteOS_Lab_overseas/LiteOS_Lab/iot_link/network/lwm2m/wakaama_lwm2m/core\internals.h **** #endif
 281:C:/Users/dtjld/Desktop/AIoT_software/LiteOS_Lab_overseas/LiteOS_Lab/iot_link/network/lwm2m/wakaama_lwm2m/core\internals.h **** 
 282:C:/Users/dtjld/Desktop/AIoT_software/LiteOS_Lab_overseas/LiteOS_Lab/iot_link/network/lwm2m/wakaama_lwm2m/core\internals.h **** // defined in uri.c
 283:C:/Users/dtjld/Desktop/AIoT_software/LiteOS_Lab_overseas/LiteOS_Lab/iot_link/network/lwm2m/wakaama_lwm2m/core\internals.h **** lwm2m_uri_t * uri_decode(char * altPath, multi_option_t *uriPath);
 284:C:/Users/dtjld/Desktop/AIoT_software/LiteOS_Lab_overseas/LiteOS_Lab/iot_link/network/lwm2m/wakaama_lwm2m/core\internals.h **** int uri_getNumber(uint8_t * uriString, size_t uriLength);
 285:C:/Users/dtjld/Desktop/AIoT_software/LiteOS_Lab_overseas/LiteOS_Lab/iot_link/network/lwm2m/wakaama_lwm2m/core\internals.h **** int uri_toString(lwm2m_uri_t * uriP, uint8_t * buffer, size_t bufferLen, uri_depth_t * depthP);
 286:C:/Users/dtjld/Desktop/AIoT_software/LiteOS_Lab_overseas/LiteOS_Lab/iot_link/network/lwm2m/wakaama_lwm2m/core\internals.h **** 
 287:C:/Users/dtjld/Desktop/AIoT_software/LiteOS_Lab_overseas/LiteOS_Lab/iot_link/network/lwm2m/wakaama_lwm2m/core\internals.h **** // defined in objects.c
 288:C:/Users/dtjld/Desktop/AIoT_software/LiteOS_Lab_overseas/LiteOS_Lab/iot_link/network/lwm2m/wakaama_lwm2m/core\internals.h **** uint8_t object_readData(lwm2m_context_t * contextP, lwm2m_uri_t * uriP, int * sizeP, lwm2m_data_t *
 289:C:/Users/dtjld/Desktop/AIoT_software/LiteOS_Lab_overseas/LiteOS_Lab/iot_link/network/lwm2m/wakaama_lwm2m/core\internals.h **** uint8_t object_read(lwm2m_context_t * contextP, lwm2m_uri_t * uriP, lwm2m_media_type_t * formatP, u
 290:C:/Users/dtjld/Desktop/AIoT_software/LiteOS_Lab_overseas/LiteOS_Lab/iot_link/network/lwm2m/wakaama_lwm2m/core\internals.h **** uint8_t object_write(lwm2m_context_t * contextP, lwm2m_uri_t * uriP, lwm2m_media_type_t format, uin
 291:C:/Users/dtjld/Desktop/AIoT_software/LiteOS_Lab_overseas/LiteOS_Lab/iot_link/network/lwm2m/wakaama_lwm2m/core\internals.h **** uint8_t object_create(lwm2m_context_t * contextP, lwm2m_uri_t * uriP, lwm2m_media_type_t format, ui
 292:C:/Users/dtjld/Desktop/AIoT_software/LiteOS_Lab_overseas/LiteOS_Lab/iot_link/network/lwm2m/wakaama_lwm2m/core\internals.h **** uint8_t object_execute(lwm2m_context_t * contextP, lwm2m_uri_t * uriP, uint8_t * buffer, size_t len
 293:C:/Users/dtjld/Desktop/AIoT_software/LiteOS_Lab_overseas/LiteOS_Lab/iot_link/network/lwm2m/wakaama_lwm2m/core\internals.h **** uint8_t object_delete(lwm2m_context_t * contextP, lwm2m_uri_t * uriP);
 294:C:/Users/dtjld/Desktop/AIoT_software/LiteOS_Lab_overseas/LiteOS_Lab/iot_link/network/lwm2m/wakaama_lwm2m/core\internals.h **** uint8_t object_discover(lwm2m_context_t * contextP, lwm2m_uri_t * uriP, lwm2m_server_t * serverP, u
 295:C:/Users/dtjld/Desktop/AIoT_software/LiteOS_Lab_overseas/LiteOS_Lab/iot_link/network/lwm2m/wakaama_lwm2m/core\internals.h **** uint8_t object_checkReadable(lwm2m_context_t * contextP, lwm2m_uri_t * uriP);
 296:C:/Users/dtjld/Desktop/AIoT_software/LiteOS_Lab_overseas/LiteOS_Lab/iot_link/network/lwm2m/wakaama_lwm2m/core\internals.h **** uint8_t object_checkNumeric(lwm2m_context_t * contextP, lwm2m_uri_t * uriP);
 297:C:/Users/dtjld/Desktop/AIoT_software/LiteOS_Lab_overseas/LiteOS_Lab/iot_link/network/lwm2m/wakaama_lwm2m/core\internals.h **** bool object_isInstanceNew(lwm2m_context_t * contextP, uint16_t objectId, uint16_t instanceId);
 298:C:/Users/dtjld/Desktop/AIoT_software/LiteOS_Lab_overseas/LiteOS_Lab/iot_link/network/lwm2m/wakaama_lwm2m/core\internals.h **** int object_getRegisterPayloadBufferLength(lwm2m_context_t * contextP);
 299:C:/Users/dtjld/Desktop/AIoT_software/LiteOS_Lab_overseas/LiteOS_Lab/iot_link/network/lwm2m/wakaama_lwm2m/core\internals.h **** int object_getRegisterPayload(lwm2m_context_t * contextP, uint8_t * buffer, size_t length);
 300:C:/Users/dtjld/Desktop/AIoT_software/LiteOS_Lab_overseas/LiteOS_Lab/iot_link/network/lwm2m/wakaama_lwm2m/core\internals.h **** int object_getServers(lwm2m_context_t * contextP, bool checkOnly);
 301:C:/Users/dtjld/Desktop/AIoT_software/LiteOS_Lab_overseas/LiteOS_Lab/iot_link/network/lwm2m/wakaama_lwm2m/core\internals.h **** uint8_t object_createInstance(lwm2m_context_t * contextP, lwm2m_uri_t * uriP, lwm2m_data_t * dataP)
 302:C:/Users/dtjld/Desktop/AIoT_software/LiteOS_Lab_overseas/LiteOS_Lab/iot_link/network/lwm2m/wakaama_lwm2m/core\internals.h **** uint8_t object_writeInstance(lwm2m_context_t * contextP, lwm2m_uri_t * uriP, lwm2m_data_t * dataP);
 303:C:/Users/dtjld/Desktop/AIoT_software/LiteOS_Lab_overseas/LiteOS_Lab/iot_link/network/lwm2m/wakaama_lwm2m/core\internals.h **** 
 304:C:/Users/dtjld/Desktop/AIoT_software/LiteOS_Lab_overseas/LiteOS_Lab/iot_link/network/lwm2m/wakaama_lwm2m/core\internals.h **** // defined in transaction.c
 305:C:/Users/dtjld/Desktop/AIoT_software/LiteOS_Lab_overseas/LiteOS_Lab/iot_link/network/lwm2m/wakaama_lwm2m/core\internals.h **** lwm2m_transaction_t * transaction_new(void * sessionH, unsigned char method, char * altPath, lwm2m_
 306:C:/Users/dtjld/Desktop/AIoT_software/LiteOS_Lab_overseas/LiteOS_Lab/iot_link/network/lwm2m/wakaama_lwm2m/core\internals.h **** int transaction_send(lwm2m_context_t * contextP, lwm2m_transaction_t * transacP);
 307:C:/Users/dtjld/Desktop/AIoT_software/LiteOS_Lab_overseas/LiteOS_Lab/iot_link/network/lwm2m/wakaama_lwm2m/core\internals.h **** void transaction_free(lwm2m_transaction_t * transacP);
 308:C:/Users/dtjld/Desktop/AIoT_software/LiteOS_Lab_overseas/LiteOS_Lab/iot_link/network/lwm2m/wakaama_lwm2m/core\internals.h **** void transaction_remove(lwm2m_context_t * contextP, lwm2m_transaction_t * transacP);
 309:C:/Users/dtjld/Desktop/AIoT_software/LiteOS_Lab_overseas/LiteOS_Lab/iot_link/network/lwm2m/wakaama_lwm2m/core\internals.h **** bool transaction_handleResponse(lwm2m_context_t * contextP, void * fromSessionH, coap_packet_t * me
 310:C:/Users/dtjld/Desktop/AIoT_software/LiteOS_Lab_overseas/LiteOS_Lab/iot_link/network/lwm2m/wakaama_lwm2m/core\internals.h **** void transaction_step(lwm2m_context_t * contextP, time_t currentTime, time_t * timeoutP);
 311:C:/Users/dtjld/Desktop/AIoT_software/LiteOS_Lab_overseas/LiteOS_Lab/iot_link/network/lwm2m/wakaama_lwm2m/core\internals.h **** 
 312:C:/Users/dtjld/Desktop/AIoT_software/LiteOS_Lab_overseas/LiteOS_Lab/iot_link/network/lwm2m/wakaama_lwm2m/core\internals.h **** // defined in management.c
 313:C:/Users/dtjld/Desktop/AIoT_software/LiteOS_Lab_overseas/LiteOS_Lab/iot_link/network/lwm2m/wakaama_lwm2m/core\internals.h **** uint8_t dm_handleRequest(lwm2m_context_t * contextP, lwm2m_uri_t * uriP, lwm2m_server_t * serverP, 
 314:C:/Users/dtjld/Desktop/AIoT_software/LiteOS_Lab_overseas/LiteOS_Lab/iot_link/network/lwm2m/wakaama_lwm2m/core\internals.h **** 
 315:C:/Users/dtjld/Desktop/AIoT_software/LiteOS_Lab_overseas/LiteOS_Lab/iot_link/network/lwm2m/wakaama_lwm2m/core\internals.h **** // defined in observe.c
 316:C:/Users/dtjld/Desktop/AIoT_software/LiteOS_Lab_overseas/LiteOS_Lab/iot_link/network/lwm2m/wakaama_lwm2m/core\internals.h **** uint8_t observe_handleRequest(lwm2m_context_t * contextP, lwm2m_uri_t * uriP, lwm2m_server_t * serv
 317:C:/Users/dtjld/Desktop/AIoT_software/LiteOS_Lab_overseas/LiteOS_Lab/iot_link/network/lwm2m/wakaama_lwm2m/core\internals.h **** void observe_cancel(lwm2m_context_t * contextP, uint16_t mid, void * fromSessionH);
ARM GAS  C:\Users\dtjld\AppData\Local\Temp\ccRVA30A.s 			page 7


 318:C:/Users/dtjld/Desktop/AIoT_software/LiteOS_Lab_overseas/LiteOS_Lab/iot_link/network/lwm2m/wakaama_lwm2m/core\internals.h **** uint8_t observe_setParameters(lwm2m_context_t * contextP, lwm2m_uri_t * uriP, lwm2m_server_t * serv
 319:C:/Users/dtjld/Desktop/AIoT_software/LiteOS_Lab_overseas/LiteOS_Lab/iot_link/network/lwm2m/wakaama_lwm2m/core\internals.h **** void observe_step(lwm2m_context_t * contextP, time_t currentTime, time_t * timeoutP);
 320:C:/Users/dtjld/Desktop/AIoT_software/LiteOS_Lab_overseas/LiteOS_Lab/iot_link/network/lwm2m/wakaama_lwm2m/core\internals.h **** void observe_clear(lwm2m_context_t * contextP, lwm2m_uri_t * uriP);
 321:C:/Users/dtjld/Desktop/AIoT_software/LiteOS_Lab_overseas/LiteOS_Lab/iot_link/network/lwm2m/wakaama_lwm2m/core\internals.h **** //bool observe_handleNotify(lwm2m_context_t * contextP, void * fromSessionH, coap_packet_t * messag
 322:C:/Users/dtjld/Desktop/AIoT_software/LiteOS_Lab_overseas/LiteOS_Lab/iot_link/network/lwm2m/wakaama_lwm2m/core\internals.h **** void observe_remove(lwm2m_observation_t * observationP);
 323:C:/Users/dtjld/Desktop/AIoT_software/LiteOS_Lab_overseas/LiteOS_Lab/iot_link/network/lwm2m/wakaama_lwm2m/core\internals.h **** lwm2m_observed_t * observe_findByUri(lwm2m_context_t * contextP, lwm2m_uri_t * uriP);
 324:C:/Users/dtjld/Desktop/AIoT_software/LiteOS_Lab_overseas/LiteOS_Lab/iot_link/network/lwm2m/wakaama_lwm2m/core\internals.h **** 
 325:C:/Users/dtjld/Desktop/AIoT_software/LiteOS_Lab_overseas/LiteOS_Lab/iot_link/network/lwm2m/wakaama_lwm2m/core\internals.h **** // defined in registration.c
 326:C:/Users/dtjld/Desktop/AIoT_software/LiteOS_Lab_overseas/LiteOS_Lab/iot_link/network/lwm2m/wakaama_lwm2m/core\internals.h **** //uint8_t registration_handleRequest(lwm2m_context_t * contextP, lwm2m_uri_t * uriP, void * fromSes
 327:C:/Users/dtjld/Desktop/AIoT_software/LiteOS_Lab_overseas/LiteOS_Lab/iot_link/network/lwm2m/wakaama_lwm2m/core\internals.h **** void registration_deregister(lwm2m_context_t * contextP, lwm2m_server_t * serverP);
 328:C:/Users/dtjld/Desktop/AIoT_software/LiteOS_Lab_overseas/LiteOS_Lab/iot_link/network/lwm2m/wakaama_lwm2m/core\internals.h **** void registration_freeClient(lwm2m_client_t * clientP);
 329:C:/Users/dtjld/Desktop/AIoT_software/LiteOS_Lab_overseas/LiteOS_Lab/iot_link/network/lwm2m/wakaama_lwm2m/core\internals.h **** uint8_t registration_start(lwm2m_context_t * contextP);
 330:C:/Users/dtjld/Desktop/AIoT_software/LiteOS_Lab_overseas/LiteOS_Lab/iot_link/network/lwm2m/wakaama_lwm2m/core\internals.h **** void registration_step(lwm2m_context_t * contextP, time_t currentTime, time_t * timeoutP);
 331:C:/Users/dtjld/Desktop/AIoT_software/LiteOS_Lab_overseas/LiteOS_Lab/iot_link/network/lwm2m/wakaama_lwm2m/core\internals.h **** lwm2m_status_t registration_getStatus(lwm2m_context_t * contextP);
 332:C:/Users/dtjld/Desktop/AIoT_software/LiteOS_Lab_overseas/LiteOS_Lab/iot_link/network/lwm2m/wakaama_lwm2m/core\internals.h **** void registration_reset(lwm2m_context_t * contextP, lwm2m_server_t * serverP);
 333:C:/Users/dtjld/Desktop/AIoT_software/LiteOS_Lab_overseas/LiteOS_Lab/iot_link/network/lwm2m/wakaama_lwm2m/core\internals.h **** 
 334:C:/Users/dtjld/Desktop/AIoT_software/LiteOS_Lab_overseas/LiteOS_Lab/iot_link/network/lwm2m/wakaama_lwm2m/core\internals.h **** // defined in packet.c
 335:C:/Users/dtjld/Desktop/AIoT_software/LiteOS_Lab_overseas/LiteOS_Lab/iot_link/network/lwm2m/wakaama_lwm2m/core\internals.h **** uint8_t message_send(lwm2m_context_t * contextP, coap_packet_t * message, void * sessionH);
 336:C:/Users/dtjld/Desktop/AIoT_software/LiteOS_Lab_overseas/LiteOS_Lab/iot_link/network/lwm2m/wakaama_lwm2m/core\internals.h **** 
 337:C:/Users/dtjld/Desktop/AIoT_software/LiteOS_Lab_overseas/LiteOS_Lab/iot_link/network/lwm2m/wakaama_lwm2m/core\internals.h **** // defined in bootstrap.c
 338:C:/Users/dtjld/Desktop/AIoT_software/LiteOS_Lab_overseas/LiteOS_Lab/iot_link/network/lwm2m/wakaama_lwm2m/core\internals.h **** void bootstrap_step(lwm2m_context_t * contextP, uint32_t currentTime, time_t* timeoutP);
 339:C:/Users/dtjld/Desktop/AIoT_software/LiteOS_Lab_overseas/LiteOS_Lab/iot_link/network/lwm2m/wakaama_lwm2m/core\internals.h **** uint8_t bootstrap_handleCommand(lwm2m_context_t * contextP, lwm2m_uri_t * uriP, lwm2m_server_t * se
 340:C:/Users/dtjld/Desktop/AIoT_software/LiteOS_Lab_overseas/LiteOS_Lab/iot_link/network/lwm2m/wakaama_lwm2m/core\internals.h **** uint8_t bootstrap_handleDeleteAll(lwm2m_context_t * context, void * fromSessionH);
 341:C:/Users/dtjld/Desktop/AIoT_software/LiteOS_Lab_overseas/LiteOS_Lab/iot_link/network/lwm2m/wakaama_lwm2m/core\internals.h **** uint8_t bootstrap_handleFinish(lwm2m_context_t * context, void * fromSessionH);
 342:C:/Users/dtjld/Desktop/AIoT_software/LiteOS_Lab_overseas/LiteOS_Lab/iot_link/network/lwm2m/wakaama_lwm2m/core\internals.h **** uint8_t bootstrap_handleRequest(lwm2m_context_t * contextP, lwm2m_uri_t * uriP, void * fromSessionH
 343:C:/Users/dtjld/Desktop/AIoT_software/LiteOS_Lab_overseas/LiteOS_Lab/iot_link/network/lwm2m/wakaama_lwm2m/core\internals.h **** void bootstrap_start(lwm2m_context_t * contextP);
 344:C:/Users/dtjld/Desktop/AIoT_software/LiteOS_Lab_overseas/LiteOS_Lab/iot_link/network/lwm2m/wakaama_lwm2m/core\internals.h **** lwm2m_status_t bootstrap_getStatus(lwm2m_context_t * contextP);
 345:C:/Users/dtjld/Desktop/AIoT_software/LiteOS_Lab_overseas/LiteOS_Lab/iot_link/network/lwm2m/wakaama_lwm2m/core\internals.h **** bool bootstrap_isBsServerIpValid(const lwm2m_context_t *contextP);
 346:C:/Users/dtjld/Desktop/AIoT_software/LiteOS_Lab_overseas/LiteOS_Lab/iot_link/network/lwm2m/wakaama_lwm2m/core\internals.h **** 
 347:C:/Users/dtjld/Desktop/AIoT_software/LiteOS_Lab_overseas/LiteOS_Lab/iot_link/network/lwm2m/wakaama_lwm2m/core\internals.h **** 
 348:C:/Users/dtjld/Desktop/AIoT_software/LiteOS_Lab_overseas/LiteOS_Lab/iot_link/network/lwm2m/wakaama_lwm2m/core\internals.h **** // defined in tlv.c
 349:C:/Users/dtjld/Desktop/AIoT_software/LiteOS_Lab_overseas/LiteOS_Lab/iot_link/network/lwm2m/wakaama_lwm2m/core\internals.h **** int tlv_parse(uint8_t * buffer, size_t bufferLen, lwm2m_data_t ** dataP);
 350:C:/Users/dtjld/Desktop/AIoT_software/LiteOS_Lab_overseas/LiteOS_Lab/iot_link/network/lwm2m/wakaama_lwm2m/core\internals.h **** int tlv_serialize(bool isResourceInstance, int size, lwm2m_data_t * dataP, uint8_t ** bufferP);
 351:C:/Users/dtjld/Desktop/AIoT_software/LiteOS_Lab_overseas/LiteOS_Lab/iot_link/network/lwm2m/wakaama_lwm2m/core\internals.h **** 
 352:C:/Users/dtjld/Desktop/AIoT_software/LiteOS_Lab_overseas/LiteOS_Lab/iot_link/network/lwm2m/wakaama_lwm2m/core\internals.h **** // defined in json.c
 353:C:/Users/dtjld/Desktop/AIoT_software/LiteOS_Lab_overseas/LiteOS_Lab/iot_link/network/lwm2m/wakaama_lwm2m/core\internals.h **** #ifdef LWM2M_SUPPORT_JSON
 354:C:/Users/dtjld/Desktop/AIoT_software/LiteOS_Lab_overseas/LiteOS_Lab/iot_link/network/lwm2m/wakaama_lwm2m/core\internals.h **** int json_parse(lwm2m_uri_t * uriP, uint8_t * buffer, size_t bufferLen, lwm2m_data_t ** dataP);
 355:C:/Users/dtjld/Desktop/AIoT_software/LiteOS_Lab_overseas/LiteOS_Lab/iot_link/network/lwm2m/wakaama_lwm2m/core\internals.h **** int json_serialize(lwm2m_uri_t * uriP, int size, lwm2m_data_t * tlvP, uint8_t ** bufferP);
 356:C:/Users/dtjld/Desktop/AIoT_software/LiteOS_Lab_overseas/LiteOS_Lab/iot_link/network/lwm2m/wakaama_lwm2m/core\internals.h **** #endif
 357:C:/Users/dtjld/Desktop/AIoT_software/LiteOS_Lab_overseas/LiteOS_Lab/iot_link/network/lwm2m/wakaama_lwm2m/core\internals.h **** 
 358:C:/Users/dtjld/Desktop/AIoT_software/LiteOS_Lab_overseas/LiteOS_Lab/iot_link/network/lwm2m/wakaama_lwm2m/core\internals.h **** // defined in discover.c
 359:C:/Users/dtjld/Desktop/AIoT_software/LiteOS_Lab_overseas/LiteOS_Lab/iot_link/network/lwm2m/wakaama_lwm2m/core\internals.h **** int discover_serialize(lwm2m_context_t * contextP, lwm2m_uri_t * uriP, lwm2m_server_t * serverP, in
 360:C:/Users/dtjld/Desktop/AIoT_software/LiteOS_Lab_overseas/LiteOS_Lab/iot_link/network/lwm2m/wakaama_lwm2m/core\internals.h **** 
 361:C:/Users/dtjld/Desktop/AIoT_software/LiteOS_Lab_overseas/LiteOS_Lab/iot_link/network/lwm2m/wakaama_lwm2m/core\internals.h **** // defined in block1.c
 362:C:/Users/dtjld/Desktop/AIoT_software/LiteOS_Lab_overseas/LiteOS_Lab/iot_link/network/lwm2m/wakaama_lwm2m/core\internals.h **** uint8_t coap_block1_handler(lwm2m_block1_data_t ** block1Data, uint16_t mid, uint8_t * buffer, size
 363:C:/Users/dtjld/Desktop/AIoT_software/LiteOS_Lab_overseas/LiteOS_Lab/iot_link/network/lwm2m/wakaama_lwm2m/core\internals.h **** void free_block1_buffer(lwm2m_block1_data_t * block1Data);
 364:C:/Users/dtjld/Desktop/AIoT_software/LiteOS_Lab_overseas/LiteOS_Lab/iot_link/network/lwm2m/wakaama_lwm2m/core\internals.h **** 
 365:C:/Users/dtjld/Desktop/AIoT_software/LiteOS_Lab_overseas/LiteOS_Lab/iot_link/network/lwm2m/wakaama_lwm2m/core\internals.h **** // defined in utils.c
 366:C:/Users/dtjld/Desktop/AIoT_software/LiteOS_Lab_overseas/LiteOS_Lab/iot_link/network/lwm2m/wakaama_lwm2m/core\internals.h **** lwm2m_data_type_t utils_depthToDatatype(uri_depth_t depth);
 367:C:/Users/dtjld/Desktop/AIoT_software/LiteOS_Lab_overseas/LiteOS_Lab/iot_link/network/lwm2m/wakaama_lwm2m/core\internals.h **** lwm2m_binding_t utils_stringToBinding(uint8_t *buffer, size_t length);
 368:C:/Users/dtjld/Desktop/AIoT_software/LiteOS_Lab_overseas/LiteOS_Lab/iot_link/network/lwm2m/wakaama_lwm2m/core\internals.h **** lwm2m_media_type_t utils_convertMediaType(coap_content_type_t type);
 369:C:/Users/dtjld/Desktop/AIoT_software/LiteOS_Lab_overseas/LiteOS_Lab/iot_link/network/lwm2m/wakaama_lwm2m/core\internals.h **** int utils_isAltPathValid(const char * altPath);
 370:C:/Users/dtjld/Desktop/AIoT_software/LiteOS_Lab_overseas/LiteOS_Lab/iot_link/network/lwm2m/wakaama_lwm2m/core\internals.h **** int utils_stringCopy(char * buffer, size_t length, const char * str);
 371:C:/Users/dtjld/Desktop/AIoT_software/LiteOS_Lab_overseas/LiteOS_Lab/iot_link/network/lwm2m/wakaama_lwm2m/core\internals.h **** size_t utils_intToText(int64_t data, uint8_t * string, size_t length);
 372:C:/Users/dtjld/Desktop/AIoT_software/LiteOS_Lab_overseas/LiteOS_Lab/iot_link/network/lwm2m/wakaama_lwm2m/core\internals.h **** size_t utils_floatToText(double data, uint8_t * string, size_t length);
 373:C:/Users/dtjld/Desktop/AIoT_software/LiteOS_Lab_overseas/LiteOS_Lab/iot_link/network/lwm2m/wakaama_lwm2m/core\internals.h **** int utils_textToInt(uint8_t * buffer, int length, int64_t * dataP);
 374:C:/Users/dtjld/Desktop/AIoT_software/LiteOS_Lab_overseas/LiteOS_Lab/iot_link/network/lwm2m/wakaama_lwm2m/core\internals.h **** int utils_textToFloat(uint8_t * buffer, int length, double * dataP);
ARM GAS  C:\Users\dtjld\AppData\Local\Temp\ccRVA30A.s 			page 8


 375:C:/Users/dtjld/Desktop/AIoT_software/LiteOS_Lab_overseas/LiteOS_Lab/iot_link/network/lwm2m/wakaama_lwm2m/core\internals.h **** void utils_copyValue(void * dst, const void * src, size_t len);
 376:C:/Users/dtjld/Desktop/AIoT_software/LiteOS_Lab_overseas/LiteOS_Lab/iot_link/network/lwm2m/wakaama_lwm2m/core\internals.h **** size_t utils_base64GetSize(size_t dataLen);
 377:C:/Users/dtjld/Desktop/AIoT_software/LiteOS_Lab_overseas/LiteOS_Lab/iot_link/network/lwm2m/wakaama_lwm2m/core\internals.h **** size_t utils_base64Encode(uint8_t * dataP, size_t dataLen, uint8_t * bufferP, size_t bufferLen);
 378:C:/Users/dtjld/Desktop/AIoT_software/LiteOS_Lab_overseas/LiteOS_Lab/iot_link/network/lwm2m/wakaama_lwm2m/core\internals.h **** #ifdef LWM2M_CLIENT_MODE
 379:C:/Users/dtjld/Desktop/AIoT_software/LiteOS_Lab_overseas/LiteOS_Lab/iot_link/network/lwm2m/wakaama_lwm2m/core\internals.h **** lwm2m_server_t * utils_findServer(lwm2m_context_t * contextP, void * fromSessionH);
 380:C:/Users/dtjld/Desktop/AIoT_software/LiteOS_Lab_overseas/LiteOS_Lab/iot_link/network/lwm2m/wakaama_lwm2m/core\internals.h **** lwm2m_server_t * utils_findBootstrapServer(lwm2m_context_t * contextP, void * fromSessionH);
 381:C:/Users/dtjld/Desktop/AIoT_software/LiteOS_Lab_overseas/LiteOS_Lab/iot_link/network/lwm2m/wakaama_lwm2m/core\internals.h **** #endif
 382:C:/Users/dtjld/Desktop/AIoT_software/LiteOS_Lab_overseas/LiteOS_Lab/iot_link/network/lwm2m/wakaama_lwm2m/core\internals.h **** static inline int dm_isUriOpaqueHandle(const lwm2m_uri_t * uriP)
 383:C:/Users/dtjld/Desktop/AIoT_software/LiteOS_Lab_overseas/LiteOS_Lab/iot_link/network/lwm2m/wakaama_lwm2m/core\internals.h **** {
  27              		.loc 1 383 0
  28              		.cfi_startproc
  29              		@ args = 0, pretend = 0, frame = 8
  30              		@ frame_needed = 1, uses_anonymous_args = 0
  31              		@ link register save eliminated.
  32 0000 80B4     		push	{r7}
  33              	.LCFI0:
  34              		.cfi_def_cfa_offset 4
  35              		.cfi_offset 7, -4
  36 0002 83B0     		sub	sp, sp, #12
  37              	.LCFI1:
  38              		.cfi_def_cfa_offset 16
  39 0004 00AF     		add	r7, sp, #0
  40              	.LCFI2:
  41              		.cfi_def_cfa_register 7
  42 0006 7860     		str	r0, [r7, #4]
 384:C:/Users/dtjld/Desktop/AIoT_software/LiteOS_Lab_overseas/LiteOS_Lab/iot_link/network/lwm2m/wakaama_lwm2m/core\internals.h ****     return (19 == uriP->objectId);
  43              		.loc 1 384 0
  44 0008 7B68     		ldr	r3, [r7, #4]
  45 000a 5B88     		ldrh	r3, [r3, #2]
  46 000c 132B     		cmp	r3, #19
  47 000e 0CBF     		ite	eq
  48 0010 0123     		moveq	r3, #1
  49 0012 0023     		movne	r3, #0
  50 0014 DBB2     		uxtb	r3, r3
 385:C:/Users/dtjld/Desktop/AIoT_software/LiteOS_Lab_overseas/LiteOS_Lab/iot_link/network/lwm2m/wakaama_lwm2m/core\internals.h **** }
  51              		.loc 1 385 0
  52 0016 1846     		mov	r0, r3
  53 0018 0C37     		adds	r7, r7, #12
  54              	.LCFI3:
  55              		.cfi_def_cfa_offset 4
  56 001a BD46     		mov	sp, r7
  57              	.LCFI4:
  58              		.cfi_def_cfa_register 13
  59              		@ sp needed
  60 001c 5DF8047B 		ldr	r7, [sp], #4
  61              	.LCFI5:
  62              		.cfi_restore 7
  63              		.cfi_def_cfa_offset 0
  64 0020 7047     		bx	lr
  65              		.cfi_endproc
  66              	.LFE3:
  68              		.section	.bss.observe_call_back,"aw",%nobits
  69              		.align	2
  72              	observe_call_back:
  73 0000 00000000 		.space	4
  74              		.section	.text.lwm2m_register_observe_ack_call_back,"ax",%progbits
  75              		.align	1
ARM GAS  C:\Users\dtjld\AppData\Local\Temp\ccRVA30A.s 			page 9


  76              		.global	lwm2m_register_observe_ack_call_back
  77              		.syntax unified
  78              		.thumb
  79              		.thumb_func
  80              		.fpu fpv4-sp-d16
  82              	lwm2m_register_observe_ack_call_back:
  83              	.LFB4:
  84              		.file 2 "C:/Users/dtjld/Desktop/AIoT_software/LiteOS_Lab_overseas/LiteOS_Lab/iot_link/network/lwm2
   1:C:/Users/dtjld/Desktop/AIoT_software/LiteOS_Lab_overseas/LiteOS_Lab/iot_link/network/lwm2m/wakaama_lwm2m/core\observe.c **** /*----------------------------------------------------------------------------
   2:C:/Users/dtjld/Desktop/AIoT_software/LiteOS_Lab_overseas/LiteOS_Lab/iot_link/network/lwm2m/wakaama_lwm2m/core\observe.c ****  * Copyright (c) <2016-2018>, <Huawei Technologies Co., Ltd>
   3:C:/Users/dtjld/Desktop/AIoT_software/LiteOS_Lab_overseas/LiteOS_Lab/iot_link/network/lwm2m/wakaama_lwm2m/core\observe.c ****  * All rights reserved.
   4:C:/Users/dtjld/Desktop/AIoT_software/LiteOS_Lab_overseas/LiteOS_Lab/iot_link/network/lwm2m/wakaama_lwm2m/core\observe.c ****  * Redistribution and use in source and binary forms, with or without modification,
   5:C:/Users/dtjld/Desktop/AIoT_software/LiteOS_Lab_overseas/LiteOS_Lab/iot_link/network/lwm2m/wakaama_lwm2m/core\observe.c ****  * are permitted provided that the following conditions are met:
   6:C:/Users/dtjld/Desktop/AIoT_software/LiteOS_Lab_overseas/LiteOS_Lab/iot_link/network/lwm2m/wakaama_lwm2m/core\observe.c ****  * 1. Redistributions of source code must retain the above copyright notice, this list of
   7:C:/Users/dtjld/Desktop/AIoT_software/LiteOS_Lab_overseas/LiteOS_Lab/iot_link/network/lwm2m/wakaama_lwm2m/core\observe.c ****  * conditions and the following disclaimer.
   8:C:/Users/dtjld/Desktop/AIoT_software/LiteOS_Lab_overseas/LiteOS_Lab/iot_link/network/lwm2m/wakaama_lwm2m/core\observe.c ****  * 2. Redistributions in binary form must reproduce the above copyright notice, this list
   9:C:/Users/dtjld/Desktop/AIoT_software/LiteOS_Lab_overseas/LiteOS_Lab/iot_link/network/lwm2m/wakaama_lwm2m/core\observe.c ****  * of conditions and the following disclaimer in the documentation and/or other materials
  10:C:/Users/dtjld/Desktop/AIoT_software/LiteOS_Lab_overseas/LiteOS_Lab/iot_link/network/lwm2m/wakaama_lwm2m/core\observe.c ****  * provided with the distribution.
  11:C:/Users/dtjld/Desktop/AIoT_software/LiteOS_Lab_overseas/LiteOS_Lab/iot_link/network/lwm2m/wakaama_lwm2m/core\observe.c ****  * 3. Neither the name of the copyright holder nor the names of its contributors may be used
  12:C:/Users/dtjld/Desktop/AIoT_software/LiteOS_Lab_overseas/LiteOS_Lab/iot_link/network/lwm2m/wakaama_lwm2m/core\observe.c ****  * to endorse or promote products derived from this software without specific prior written
  13:C:/Users/dtjld/Desktop/AIoT_software/LiteOS_Lab_overseas/LiteOS_Lab/iot_link/network/lwm2m/wakaama_lwm2m/core\observe.c ****  * permission.
  14:C:/Users/dtjld/Desktop/AIoT_software/LiteOS_Lab_overseas/LiteOS_Lab/iot_link/network/lwm2m/wakaama_lwm2m/core\observe.c ****  * THIS SOFTWARE IS PROVIDED BY THE COPYRIGHT HOLDERS AND CONTRIBUTORS
  15:C:/Users/dtjld/Desktop/AIoT_software/LiteOS_Lab_overseas/LiteOS_Lab/iot_link/network/lwm2m/wakaama_lwm2m/core\observe.c ****  * "AS IS" AND ANY EXPRESS OR IMPLIED WARRANTIES, INCLUDING, BUT NOT LIMITED TO,
  16:C:/Users/dtjld/Desktop/AIoT_software/LiteOS_Lab_overseas/LiteOS_Lab/iot_link/network/lwm2m/wakaama_lwm2m/core\observe.c ****  * THE IMPLIED WARRANTIES OF MERCHANTABILITY AND FITNESS FOR A PARTICULAR
  17:C:/Users/dtjld/Desktop/AIoT_software/LiteOS_Lab_overseas/LiteOS_Lab/iot_link/network/lwm2m/wakaama_lwm2m/core\observe.c ****  * PURPOSE ARE DISCLAIMED. IN NO EVENT SHALL THE COPYRIGHT HOLDER OR
  18:C:/Users/dtjld/Desktop/AIoT_software/LiteOS_Lab_overseas/LiteOS_Lab/iot_link/network/lwm2m/wakaama_lwm2m/core\observe.c ****  * CONTRIBUTORS BE LIABLE FOR ANY DIRECT, INDIRECT, INCIDENTAL, SPECIAL,
  19:C:/Users/dtjld/Desktop/AIoT_software/LiteOS_Lab_overseas/LiteOS_Lab/iot_link/network/lwm2m/wakaama_lwm2m/core\observe.c ****  * EXEMPLARY, OR CONSEQUENTIAL DAMAGES (INCLUDING, BUT NOT LIMITED TO,
  20:C:/Users/dtjld/Desktop/AIoT_software/LiteOS_Lab_overseas/LiteOS_Lab/iot_link/network/lwm2m/wakaama_lwm2m/core\observe.c ****  * PROCUREMENT OF SUBSTITUTE GOODS OR SERVICES; LOSS OF USE, DATA, OR PROFITS;
  21:C:/Users/dtjld/Desktop/AIoT_software/LiteOS_Lab_overseas/LiteOS_Lab/iot_link/network/lwm2m/wakaama_lwm2m/core\observe.c ****  * OR BUSINESS INTERRUPTION) HOWEVER CAUSED AND ON ANY THEORY OF LIABILITY,
  22:C:/Users/dtjld/Desktop/AIoT_software/LiteOS_Lab_overseas/LiteOS_Lab/iot_link/network/lwm2m/wakaama_lwm2m/core\observe.c ****  * WHETHER IN CONTRACT, STRICT LIABILITY, OR TORT (INCLUDING NEGLIGENCE OR
  23:C:/Users/dtjld/Desktop/AIoT_software/LiteOS_Lab_overseas/LiteOS_Lab/iot_link/network/lwm2m/wakaama_lwm2m/core\observe.c ****  * OTHERWISE) ARISING IN ANY WAY OUT OF THE USE OF THIS SOFTWARE, EVEN IF
  24:C:/Users/dtjld/Desktop/AIoT_software/LiteOS_Lab_overseas/LiteOS_Lab/iot_link/network/lwm2m/wakaama_lwm2m/core\observe.c ****  * ADVISED OF THE POSSIBILITY OF SUCH DAMAGE.
  25:C:/Users/dtjld/Desktop/AIoT_software/LiteOS_Lab_overseas/LiteOS_Lab/iot_link/network/lwm2m/wakaama_lwm2m/core\observe.c ****  *---------------------------------------------------------------------------*/
  26:C:/Users/dtjld/Desktop/AIoT_software/LiteOS_Lab_overseas/LiteOS_Lab/iot_link/network/lwm2m/wakaama_lwm2m/core\observe.c **** /*----------------------------------------------------------------------------
  27:C:/Users/dtjld/Desktop/AIoT_software/LiteOS_Lab_overseas/LiteOS_Lab/iot_link/network/lwm2m/wakaama_lwm2m/core\observe.c ****  * Notice of Export Control Law
  28:C:/Users/dtjld/Desktop/AIoT_software/LiteOS_Lab_overseas/LiteOS_Lab/iot_link/network/lwm2m/wakaama_lwm2m/core\observe.c ****  * ===============================================
  29:C:/Users/dtjld/Desktop/AIoT_software/LiteOS_Lab_overseas/LiteOS_Lab/iot_link/network/lwm2m/wakaama_lwm2m/core\observe.c ****  * Huawei LiteOS may be subject to applicable export control laws and regulations, which might
  30:C:/Users/dtjld/Desktop/AIoT_software/LiteOS_Lab_overseas/LiteOS_Lab/iot_link/network/lwm2m/wakaama_lwm2m/core\observe.c ****  * include those applicable to Huawei LiteOS of U.S. and the country in which you are located.
  31:C:/Users/dtjld/Desktop/AIoT_software/LiteOS_Lab_overseas/LiteOS_Lab/iot_link/network/lwm2m/wakaama_lwm2m/core\observe.c ****  * Import, export and usage of Huawei LiteOS in any manner by you shall be in compliance with such
  32:C:/Users/dtjld/Desktop/AIoT_software/LiteOS_Lab_overseas/LiteOS_Lab/iot_link/network/lwm2m/wakaama_lwm2m/core\observe.c ****  * applicable export control laws and regulations.
  33:C:/Users/dtjld/Desktop/AIoT_software/LiteOS_Lab_overseas/LiteOS_Lab/iot_link/network/lwm2m/wakaama_lwm2m/core\observe.c ****  *---------------------------------------------------------------------------*/
  34:C:/Users/dtjld/Desktop/AIoT_software/LiteOS_Lab_overseas/LiteOS_Lab/iot_link/network/lwm2m/wakaama_lwm2m/core\observe.c **** 
  35:C:/Users/dtjld/Desktop/AIoT_software/LiteOS_Lab_overseas/LiteOS_Lab/iot_link/network/lwm2m/wakaama_lwm2m/core\observe.c **** /*******************************************************************************
  36:C:/Users/dtjld/Desktop/AIoT_software/LiteOS_Lab_overseas/LiteOS_Lab/iot_link/network/lwm2m/wakaama_lwm2m/core\observe.c ****  *
  37:C:/Users/dtjld/Desktop/AIoT_software/LiteOS_Lab_overseas/LiteOS_Lab/iot_link/network/lwm2m/wakaama_lwm2m/core\observe.c ****  * Copyright (c) 2013, 2014 Intel Corporation and others.
  38:C:/Users/dtjld/Desktop/AIoT_software/LiteOS_Lab_overseas/LiteOS_Lab/iot_link/network/lwm2m/wakaama_lwm2m/core\observe.c ****  * All rights reserved. This program and the accompanying materials
  39:C:/Users/dtjld/Desktop/AIoT_software/LiteOS_Lab_overseas/LiteOS_Lab/iot_link/network/lwm2m/wakaama_lwm2m/core\observe.c ****  * are made available under the terms of the Eclipse Public License v1.0
  40:C:/Users/dtjld/Desktop/AIoT_software/LiteOS_Lab_overseas/LiteOS_Lab/iot_link/network/lwm2m/wakaama_lwm2m/core\observe.c ****  * and Eclipse Distribution License v1.0 which accompany this distribution.
  41:C:/Users/dtjld/Desktop/AIoT_software/LiteOS_Lab_overseas/LiteOS_Lab/iot_link/network/lwm2m/wakaama_lwm2m/core\observe.c ****  *
  42:C:/Users/dtjld/Desktop/AIoT_software/LiteOS_Lab_overseas/LiteOS_Lab/iot_link/network/lwm2m/wakaama_lwm2m/core\observe.c ****  * The Eclipse Public License is available at
  43:C:/Users/dtjld/Desktop/AIoT_software/LiteOS_Lab_overseas/LiteOS_Lab/iot_link/network/lwm2m/wakaama_lwm2m/core\observe.c ****  *    http://www.eclipse.org/legal/epl-v10.html
  44:C:/Users/dtjld/Desktop/AIoT_software/LiteOS_Lab_overseas/LiteOS_Lab/iot_link/network/lwm2m/wakaama_lwm2m/core\observe.c ****  * The Eclipse Distribution License is available at
  45:C:/Users/dtjld/Desktop/AIoT_software/LiteOS_Lab_overseas/LiteOS_Lab/iot_link/network/lwm2m/wakaama_lwm2m/core\observe.c ****  *    http://www.eclipse.org/org/documents/edl-v10.php.
  46:C:/Users/dtjld/Desktop/AIoT_software/LiteOS_Lab_overseas/LiteOS_Lab/iot_link/network/lwm2m/wakaama_lwm2m/core\observe.c ****  *
  47:C:/Users/dtjld/Desktop/AIoT_software/LiteOS_Lab_overseas/LiteOS_Lab/iot_link/network/lwm2m/wakaama_lwm2m/core\observe.c ****  * Contributors:
  48:C:/Users/dtjld/Desktop/AIoT_software/LiteOS_Lab_overseas/LiteOS_Lab/iot_link/network/lwm2m/wakaama_lwm2m/core\observe.c ****  *    David Navarro, Intel Corporation - initial API and implementation
  49:C:/Users/dtjld/Desktop/AIoT_software/LiteOS_Lab_overseas/LiteOS_Lab/iot_link/network/lwm2m/wakaama_lwm2m/core\observe.c ****  *    Toby Jaffey - Please refer to git log
ARM GAS  C:\Users\dtjld\AppData\Local\Temp\ccRVA30A.s 			page 10


  50:C:/Users/dtjld/Desktop/AIoT_software/LiteOS_Lab_overseas/LiteOS_Lab/iot_link/network/lwm2m/wakaama_lwm2m/core\observe.c ****  *    Bosch Software Innovations GmbH - Please refer to git log
  51:C:/Users/dtjld/Desktop/AIoT_software/LiteOS_Lab_overseas/LiteOS_Lab/iot_link/network/lwm2m/wakaama_lwm2m/core\observe.c ****  *
  52:C:/Users/dtjld/Desktop/AIoT_software/LiteOS_Lab_overseas/LiteOS_Lab/iot_link/network/lwm2m/wakaama_lwm2m/core\observe.c ****  *******************************************************************************/
  53:C:/Users/dtjld/Desktop/AIoT_software/LiteOS_Lab_overseas/LiteOS_Lab/iot_link/network/lwm2m/wakaama_lwm2m/core\observe.c **** 
  54:C:/Users/dtjld/Desktop/AIoT_software/LiteOS_Lab_overseas/LiteOS_Lab/iot_link/network/lwm2m/wakaama_lwm2m/core\observe.c **** /*
  55:C:/Users/dtjld/Desktop/AIoT_software/LiteOS_Lab_overseas/LiteOS_Lab/iot_link/network/lwm2m/wakaama_lwm2m/core\observe.c ****  Copyright (c) 2013, 2014 Intel Corporation
  56:C:/Users/dtjld/Desktop/AIoT_software/LiteOS_Lab_overseas/LiteOS_Lab/iot_link/network/lwm2m/wakaama_lwm2m/core\observe.c **** 
  57:C:/Users/dtjld/Desktop/AIoT_software/LiteOS_Lab_overseas/LiteOS_Lab/iot_link/network/lwm2m/wakaama_lwm2m/core\observe.c ****  Redistribution and use in source and binary forms, with or without modification,
  58:C:/Users/dtjld/Desktop/AIoT_software/LiteOS_Lab_overseas/LiteOS_Lab/iot_link/network/lwm2m/wakaama_lwm2m/core\observe.c ****  are permitted provided that the following conditions are met:
  59:C:/Users/dtjld/Desktop/AIoT_software/LiteOS_Lab_overseas/LiteOS_Lab/iot_link/network/lwm2m/wakaama_lwm2m/core\observe.c **** 
  60:C:/Users/dtjld/Desktop/AIoT_software/LiteOS_Lab_overseas/LiteOS_Lab/iot_link/network/lwm2m/wakaama_lwm2m/core\observe.c ****      * Redistributions of source code must retain the above copyright notice,
  61:C:/Users/dtjld/Desktop/AIoT_software/LiteOS_Lab_overseas/LiteOS_Lab/iot_link/network/lwm2m/wakaama_lwm2m/core\observe.c ****        this list of conditions and the following disclaimer.
  62:C:/Users/dtjld/Desktop/AIoT_software/LiteOS_Lab_overseas/LiteOS_Lab/iot_link/network/lwm2m/wakaama_lwm2m/core\observe.c ****      * Redistributions in binary form must reproduce the above copyright notice,
  63:C:/Users/dtjld/Desktop/AIoT_software/LiteOS_Lab_overseas/LiteOS_Lab/iot_link/network/lwm2m/wakaama_lwm2m/core\observe.c ****        this list of conditions and the following disclaimer in the documentation
  64:C:/Users/dtjld/Desktop/AIoT_software/LiteOS_Lab_overseas/LiteOS_Lab/iot_link/network/lwm2m/wakaama_lwm2m/core\observe.c ****        and/or other materials provided with the distribution.
  65:C:/Users/dtjld/Desktop/AIoT_software/LiteOS_Lab_overseas/LiteOS_Lab/iot_link/network/lwm2m/wakaama_lwm2m/core\observe.c ****      * Neither the name of Intel Corporation nor the names of its contributors
  66:C:/Users/dtjld/Desktop/AIoT_software/LiteOS_Lab_overseas/LiteOS_Lab/iot_link/network/lwm2m/wakaama_lwm2m/core\observe.c ****        may be used to endorse or promote products derived from this software
  67:C:/Users/dtjld/Desktop/AIoT_software/LiteOS_Lab_overseas/LiteOS_Lab/iot_link/network/lwm2m/wakaama_lwm2m/core\observe.c ****        without specific prior written permission.
  68:C:/Users/dtjld/Desktop/AIoT_software/LiteOS_Lab_overseas/LiteOS_Lab/iot_link/network/lwm2m/wakaama_lwm2m/core\observe.c **** 
  69:C:/Users/dtjld/Desktop/AIoT_software/LiteOS_Lab_overseas/LiteOS_Lab/iot_link/network/lwm2m/wakaama_lwm2m/core\observe.c ****  THIS SOFTWARE IS PROVIDED BY THE COPYRIGHT HOLDERS AND CONTRIBUTORS "AS IS" AND
  70:C:/Users/dtjld/Desktop/AIoT_software/LiteOS_Lab_overseas/LiteOS_Lab/iot_link/network/lwm2m/wakaama_lwm2m/core\observe.c ****  ANY EXPRESS OR IMPLIED WARRANTIES, INCLUDING, BUT NOT LIMITED TO, THE IMPLIED
  71:C:/Users/dtjld/Desktop/AIoT_software/LiteOS_Lab_overseas/LiteOS_Lab/iot_link/network/lwm2m/wakaama_lwm2m/core\observe.c ****  WARRANTIES OF MERCHANTABILITY AND FITNESS FOR A PARTICULAR PURPOSE ARE DISCLAIMED.
  72:C:/Users/dtjld/Desktop/AIoT_software/LiteOS_Lab_overseas/LiteOS_Lab/iot_link/network/lwm2m/wakaama_lwm2m/core\observe.c ****  IN NO EVENT SHALL THE COPYRIGHT OWNER OR CONTRIBUTORS BE LIABLE FOR ANY DIRECT,
  73:C:/Users/dtjld/Desktop/AIoT_software/LiteOS_Lab_overseas/LiteOS_Lab/iot_link/network/lwm2m/wakaama_lwm2m/core\observe.c ****  INDIRECT, INCIDENTAL, SPECIAL, EXEMPLARY, OR CONSEQUENTIAL DAMAGES (INCLUDING,
  74:C:/Users/dtjld/Desktop/AIoT_software/LiteOS_Lab_overseas/LiteOS_Lab/iot_link/network/lwm2m/wakaama_lwm2m/core\observe.c ****  BUT NOT LIMITED TO, PROCUREMENT OF SUBSTITUTE GOODS OR SERVICES; LOSS OF USE,
  75:C:/Users/dtjld/Desktop/AIoT_software/LiteOS_Lab_overseas/LiteOS_Lab/iot_link/network/lwm2m/wakaama_lwm2m/core\observe.c ****  DATA, OR PROFITS; OR BUSINESS INTERRUPTION) HOWEVER CAUSED AND ON ANY THEORY OF
  76:C:/Users/dtjld/Desktop/AIoT_software/LiteOS_Lab_overseas/LiteOS_Lab/iot_link/network/lwm2m/wakaama_lwm2m/core\observe.c ****  LIABILITY, WHETHER IN CONTRACT, STRICT LIABILITY, OR TORT (INCLUDING NEGLIGENCE OR
  77:C:/Users/dtjld/Desktop/AIoT_software/LiteOS_Lab_overseas/LiteOS_Lab/iot_link/network/lwm2m/wakaama_lwm2m/core\observe.c ****  OTHERWISE) ARISING IN ANY WAY OUT OF THE USE OF THIS SOFTWARE, EVEN IF ADVISED OF
  78:C:/Users/dtjld/Desktop/AIoT_software/LiteOS_Lab_overseas/LiteOS_Lab/iot_link/network/lwm2m/wakaama_lwm2m/core\observe.c ****  THE POSSIBILITY OF SUCH DAMAGE.
  79:C:/Users/dtjld/Desktop/AIoT_software/LiteOS_Lab_overseas/LiteOS_Lab/iot_link/network/lwm2m/wakaama_lwm2m/core\observe.c **** 
  80:C:/Users/dtjld/Desktop/AIoT_software/LiteOS_Lab_overseas/LiteOS_Lab/iot_link/network/lwm2m/wakaama_lwm2m/core\observe.c ****  David Navarro <david.navarro@intel.com>
  81:C:/Users/dtjld/Desktop/AIoT_software/LiteOS_Lab_overseas/LiteOS_Lab/iot_link/network/lwm2m/wakaama_lwm2m/core\observe.c **** 
  82:C:/Users/dtjld/Desktop/AIoT_software/LiteOS_Lab_overseas/LiteOS_Lab/iot_link/network/lwm2m/wakaama_lwm2m/core\observe.c **** */
  83:C:/Users/dtjld/Desktop/AIoT_software/LiteOS_Lab_overseas/LiteOS_Lab/iot_link/network/lwm2m/wakaama_lwm2m/core\observe.c **** 
  84:C:/Users/dtjld/Desktop/AIoT_software/LiteOS_Lab_overseas/LiteOS_Lab/iot_link/network/lwm2m/wakaama_lwm2m/core\observe.c **** #include "internals.h"
  85:C:/Users/dtjld/Desktop/AIoT_software/LiteOS_Lab_overseas/LiteOS_Lab/iot_link/network/lwm2m/wakaama_lwm2m/core\observe.c **** #include <osal.h>
  86:C:/Users/dtjld/Desktop/AIoT_software/LiteOS_Lab_overseas/LiteOS_Lab/iot_link/network/lwm2m/wakaama_lwm2m/core\observe.c **** #include <stdio.h>
  87:C:/Users/dtjld/Desktop/AIoT_software/LiteOS_Lab_overseas/LiteOS_Lab/iot_link/network/lwm2m/wakaama_lwm2m/core\observe.c **** 
  88:C:/Users/dtjld/Desktop/AIoT_software/LiteOS_Lab_overseas/LiteOS_Lab/iot_link/network/lwm2m/wakaama_lwm2m/core\observe.c **** 
  89:C:/Users/dtjld/Desktop/AIoT_software/LiteOS_Lab_overseas/LiteOS_Lab/iot_link/network/lwm2m/wakaama_lwm2m/core\observe.c **** #ifdef LWM2M_CLIENT_MODE
  90:C:/Users/dtjld/Desktop/AIoT_software/LiteOS_Lab_overseas/LiteOS_Lab/iot_link/network/lwm2m/wakaama_lwm2m/core\observe.c **** 
  91:C:/Users/dtjld/Desktop/AIoT_software/LiteOS_Lab_overseas/LiteOS_Lab/iot_link/network/lwm2m/wakaama_lwm2m/core\observe.c **** #define RES_M_STATE  3
  92:C:/Users/dtjld/Desktop/AIoT_software/LiteOS_Lab_overseas/LiteOS_Lab/iot_link/network/lwm2m/wakaama_lwm2m/core\observe.c **** 
  93:C:/Users/dtjld/Desktop/AIoT_software/LiteOS_Lab_overseas/LiteOS_Lab/iot_link/network/lwm2m/wakaama_lwm2m/core\observe.c **** static lwm2m_transaction_callback_t  observe_call_back;
  94:C:/Users/dtjld/Desktop/AIoT_software/LiteOS_Lab_overseas/LiteOS_Lab/iot_link/network/lwm2m/wakaama_lwm2m/core\observe.c **** 
  95:C:/Users/dtjld/Desktop/AIoT_software/LiteOS_Lab_overseas/LiteOS_Lab/iot_link/network/lwm2m/wakaama_lwm2m/core\observe.c **** void lwm2m_register_observe_ack_call_back(lwm2m_transaction_callback_t callback)
  96:C:/Users/dtjld/Desktop/AIoT_software/LiteOS_Lab_overseas/LiteOS_Lab/iot_link/network/lwm2m/wakaama_lwm2m/core\observe.c **** {
  85              		.loc 2 96 0
  86              		.cfi_startproc
  87              		@ args = 0, pretend = 0, frame = 8
  88              		@ frame_needed = 1, uses_anonymous_args = 0
  89              		@ link register save eliminated.
  90 0000 80B4     		push	{r7}
  91              	.LCFI6:
  92              		.cfi_def_cfa_offset 4
  93              		.cfi_offset 7, -4
  94 0002 83B0     		sub	sp, sp, #12
ARM GAS  C:\Users\dtjld\AppData\Local\Temp\ccRVA30A.s 			page 11


  95              	.LCFI7:
  96              		.cfi_def_cfa_offset 16
  97 0004 00AF     		add	r7, sp, #0
  98              	.LCFI8:
  99              		.cfi_def_cfa_register 7
 100 0006 7860     		str	r0, [r7, #4]
  97:C:/Users/dtjld/Desktop/AIoT_software/LiteOS_Lab_overseas/LiteOS_Lab/iot_link/network/lwm2m/wakaama_lwm2m/core\observe.c ****     observe_call_back = callback;
 101              		.loc 2 97 0
 102 0008 044A     		ldr	r2, .L4
 103 000a 7B68     		ldr	r3, [r7, #4]
 104 000c 1360     		str	r3, [r2]
  98:C:/Users/dtjld/Desktop/AIoT_software/LiteOS_Lab_overseas/LiteOS_Lab/iot_link/network/lwm2m/wakaama_lwm2m/core\observe.c **** }
 105              		.loc 2 98 0
 106 000e 00BF     		nop
 107 0010 0C37     		adds	r7, r7, #12
 108              	.LCFI9:
 109              		.cfi_def_cfa_offset 4
 110 0012 BD46     		mov	sp, r7
 111              	.LCFI10:
 112              		.cfi_def_cfa_register 13
 113              		@ sp needed
 114 0014 5DF8047B 		ldr	r7, [sp], #4
 115              	.LCFI11:
 116              		.cfi_restore 7
 117              		.cfi_def_cfa_offset 0
 118 0018 7047     		bx	lr
 119              	.L5:
 120 001a 00BF     		.align	2
 121              	.L4:
 122 001c 00000000 		.word	observe_call_back
 123              		.cfi_endproc
 124              	.LFE4:
 126              		.section	.text.prv_findObserved,"ax",%progbits
 127              		.align	1
 128              		.syntax unified
 129              		.thumb
 130              		.thumb_func
 131              		.fpu fpv4-sp-d16
 133              	prv_findObserved:
 134              	.LFB5:
  99:C:/Users/dtjld/Desktop/AIoT_software/LiteOS_Lab_overseas/LiteOS_Lab/iot_link/network/lwm2m/wakaama_lwm2m/core\observe.c **** 
 100:C:/Users/dtjld/Desktop/AIoT_software/LiteOS_Lab_overseas/LiteOS_Lab/iot_link/network/lwm2m/wakaama_lwm2m/core\observe.c **** 
 101:C:/Users/dtjld/Desktop/AIoT_software/LiteOS_Lab_overseas/LiteOS_Lab/iot_link/network/lwm2m/wakaama_lwm2m/core\observe.c **** static lwm2m_observed_t *prv_findObserved(lwm2m_context_t *contextP,
 102:C:/Users/dtjld/Desktop/AIoT_software/LiteOS_Lab_overseas/LiteOS_Lab/iot_link/network/lwm2m/wakaama_lwm2m/core\observe.c ****         lwm2m_uri_t *uriP)
 103:C:/Users/dtjld/Desktop/AIoT_software/LiteOS_Lab_overseas/LiteOS_Lab/iot_link/network/lwm2m/wakaama_lwm2m/core\observe.c **** {
 135              		.loc 2 103 0
 136              		.cfi_startproc
 137              		@ args = 0, pretend = 0, frame = 16
 138              		@ frame_needed = 1, uses_anonymous_args = 0
 139              		@ link register save eliminated.
 140 0000 80B4     		push	{r7}
 141              	.LCFI12:
 142              		.cfi_def_cfa_offset 4
 143              		.cfi_offset 7, -4
 144 0002 85B0     		sub	sp, sp, #20
 145              	.LCFI13:
 146              		.cfi_def_cfa_offset 24
ARM GAS  C:\Users\dtjld\AppData\Local\Temp\ccRVA30A.s 			page 12


 147 0004 00AF     		add	r7, sp, #0
 148              	.LCFI14:
 149              		.cfi_def_cfa_register 7
 150 0006 7860     		str	r0, [r7, #4]
 151 0008 3960     		str	r1, [r7]
 104:C:/Users/dtjld/Desktop/AIoT_software/LiteOS_Lab_overseas/LiteOS_Lab/iot_link/network/lwm2m/wakaama_lwm2m/core\observe.c ****     lwm2m_observed_t *targetP;
 105:C:/Users/dtjld/Desktop/AIoT_software/LiteOS_Lab_overseas/LiteOS_Lab/iot_link/network/lwm2m/wakaama_lwm2m/core\observe.c **** 
 106:C:/Users/dtjld/Desktop/AIoT_software/LiteOS_Lab_overseas/LiteOS_Lab/iot_link/network/lwm2m/wakaama_lwm2m/core\observe.c ****     targetP = contextP->observedList;
 152              		.loc 2 106 0
 153 000a 7B68     		ldr	r3, [r7, #4]
 154 000c DB69     		ldr	r3, [r3, #28]
 155 000e FB60     		str	r3, [r7, #12]
 107:C:/Users/dtjld/Desktop/AIoT_software/LiteOS_Lab_overseas/LiteOS_Lab/iot_link/network/lwm2m/wakaama_lwm2m/core\observe.c ****     while (targetP != NULL
 156              		.loc 2 107 0
 157 0010 02E0     		b	.L7
 158              	.L9:
 108:C:/Users/dtjld/Desktop/AIoT_software/LiteOS_Lab_overseas/LiteOS_Lab/iot_link/network/lwm2m/wakaama_lwm2m/core\observe.c ****             && (targetP->uri.objectId != uriP->objectId
 109:C:/Users/dtjld/Desktop/AIoT_software/LiteOS_Lab_overseas/LiteOS_Lab/iot_link/network/lwm2m/wakaama_lwm2m/core\observe.c ****                 || targetP->uri.flag != uriP->flag
 110:C:/Users/dtjld/Desktop/AIoT_software/LiteOS_Lab_overseas/LiteOS_Lab/iot_link/network/lwm2m/wakaama_lwm2m/core\observe.c ****                 || (LWM2M_URI_IS_SET_INSTANCE(uriP) && targetP->uri.instanceId != uriP->instanceId)
 111:C:/Users/dtjld/Desktop/AIoT_software/LiteOS_Lab_overseas/LiteOS_Lab/iot_link/network/lwm2m/wakaama_lwm2m/core\observe.c ****                 || (LWM2M_URI_IS_SET_RESOURCE(uriP) && targetP->uri.resourceId != uriP->resourceId)
 112:C:/Users/dtjld/Desktop/AIoT_software/LiteOS_Lab_overseas/LiteOS_Lab/iot_link/network/lwm2m/wakaama_lwm2m/core\observe.c ****     {
 113:C:/Users/dtjld/Desktop/AIoT_software/LiteOS_Lab_overseas/LiteOS_Lab/iot_link/network/lwm2m/wakaama_lwm2m/core\observe.c ****         targetP = targetP->next;
 159              		.loc 2 113 0
 160 0012 FB68     		ldr	r3, [r7, #12]
 161 0014 1B68     		ldr	r3, [r3]
 162 0016 FB60     		str	r3, [r7, #12]
 163              	.L7:
 107:C:/Users/dtjld/Desktop/AIoT_software/LiteOS_Lab_overseas/LiteOS_Lab/iot_link/network/lwm2m/wakaama_lwm2m/core\observe.c ****     while (targetP != NULL
 164              		.loc 2 107 0
 165 0018 FB68     		ldr	r3, [r7, #12]
 166 001a 002B     		cmp	r3, #0
 167 001c 23D0     		beq	.L8
 108:C:/Users/dtjld/Desktop/AIoT_software/LiteOS_Lab_overseas/LiteOS_Lab/iot_link/network/lwm2m/wakaama_lwm2m/core\observe.c ****             && (targetP->uri.objectId != uriP->objectId
 168              		.loc 2 108 0
 169 001e FB68     		ldr	r3, [r7, #12]
 170 0020 DA88     		ldrh	r2, [r3, #6]
 171 0022 3B68     		ldr	r3, [r7]
 172 0024 5B88     		ldrh	r3, [r3, #2]
 173 0026 9A42     		cmp	r2, r3
 174 0028 F3D1     		bne	.L9
 109:C:/Users/dtjld/Desktop/AIoT_software/LiteOS_Lab_overseas/LiteOS_Lab/iot_link/network/lwm2m/wakaama_lwm2m/core\observe.c ****                 || (LWM2M_URI_IS_SET_INSTANCE(uriP) && targetP->uri.instanceId != uriP->instanceId)
 175              		.loc 2 109 0
 176 002a FB68     		ldr	r3, [r7, #12]
 177 002c 1A79     		ldrb	r2, [r3, #4]	@ zero_extendqisi2
 178 002e 3B68     		ldr	r3, [r7]
 179 0030 1B78     		ldrb	r3, [r3]	@ zero_extendqisi2
 180 0032 9A42     		cmp	r2, r3
 181 0034 EDD1     		bne	.L9
 110:C:/Users/dtjld/Desktop/AIoT_software/LiteOS_Lab_overseas/LiteOS_Lab/iot_link/network/lwm2m/wakaama_lwm2m/core\observe.c ****                 || (LWM2M_URI_IS_SET_RESOURCE(uriP) && targetP->uri.resourceId != uriP->resourceId)
 182              		.loc 2 110 0
 183 0036 3B68     		ldr	r3, [r7]
 184 0038 1B78     		ldrb	r3, [r3]	@ zero_extendqisi2
 185 003a 03F00203 		and	r3, r3, #2
 186 003e 002B     		cmp	r3, #0
 187 0040 05D0     		beq	.L10
 110:C:/Users/dtjld/Desktop/AIoT_software/LiteOS_Lab_overseas/LiteOS_Lab/iot_link/network/lwm2m/wakaama_lwm2m/core\observe.c ****                 || (LWM2M_URI_IS_SET_RESOURCE(uriP) && targetP->uri.resourceId != uriP->resourceId)
 188              		.loc 2 110 0 is_stmt 0 discriminator 1
ARM GAS  C:\Users\dtjld\AppData\Local\Temp\ccRVA30A.s 			page 13


 189 0042 FB68     		ldr	r3, [r7, #12]
 190 0044 1A89     		ldrh	r2, [r3, #8]
 191 0046 3B68     		ldr	r3, [r7]
 192 0048 9B88     		ldrh	r3, [r3, #4]
 193 004a 9A42     		cmp	r2, r3
 194 004c E1D1     		bne	.L9
 195              	.L10:
 111:C:/Users/dtjld/Desktop/AIoT_software/LiteOS_Lab_overseas/LiteOS_Lab/iot_link/network/lwm2m/wakaama_lwm2m/core\observe.c ****     {
 196              		.loc 2 111 0 is_stmt 1
 197 004e 3B68     		ldr	r3, [r7]
 198 0050 1B78     		ldrb	r3, [r3]	@ zero_extendqisi2
 199 0052 03F00103 		and	r3, r3, #1
 200 0056 002B     		cmp	r3, #0
 201 0058 05D0     		beq	.L8
 111:C:/Users/dtjld/Desktop/AIoT_software/LiteOS_Lab_overseas/LiteOS_Lab/iot_link/network/lwm2m/wakaama_lwm2m/core\observe.c ****     {
 202              		.loc 2 111 0 is_stmt 0 discriminator 1
 203 005a FB68     		ldr	r3, [r7, #12]
 204 005c 5A89     		ldrh	r2, [r3, #10]
 205 005e 3B68     		ldr	r3, [r7]
 206 0060 DB88     		ldrh	r3, [r3, #6]
 207 0062 9A42     		cmp	r2, r3
 208 0064 D5D1     		bne	.L9
 209              	.L8:
 114:C:/Users/dtjld/Desktop/AIoT_software/LiteOS_Lab_overseas/LiteOS_Lab/iot_link/network/lwm2m/wakaama_lwm2m/core\observe.c ****     }
 115:C:/Users/dtjld/Desktop/AIoT_software/LiteOS_Lab_overseas/LiteOS_Lab/iot_link/network/lwm2m/wakaama_lwm2m/core\observe.c **** 
 116:C:/Users/dtjld/Desktop/AIoT_software/LiteOS_Lab_overseas/LiteOS_Lab/iot_link/network/lwm2m/wakaama_lwm2m/core\observe.c ****     return targetP;
 210              		.loc 2 116 0 is_stmt 1
 211 0066 FB68     		ldr	r3, [r7, #12]
 117:C:/Users/dtjld/Desktop/AIoT_software/LiteOS_Lab_overseas/LiteOS_Lab/iot_link/network/lwm2m/wakaama_lwm2m/core\observe.c **** }
 212              		.loc 2 117 0
 213 0068 1846     		mov	r0, r3
 214 006a 1437     		adds	r7, r7, #20
 215              	.LCFI15:
 216              		.cfi_def_cfa_offset 4
 217 006c BD46     		mov	sp, r7
 218              	.LCFI16:
 219              		.cfi_def_cfa_register 13
 220              		@ sp needed
 221 006e 5DF8047B 		ldr	r7, [sp], #4
 222              	.LCFI17:
 223              		.cfi_restore 7
 224              		.cfi_def_cfa_offset 0
 225 0072 7047     		bx	lr
 226              		.cfi_endproc
 227              	.LFE5:
 229              		.section	.text.prv_unlinkObserved,"ax",%progbits
 230              		.align	1
 231              		.syntax unified
 232              		.thumb
 233              		.thumb_func
 234              		.fpu fpv4-sp-d16
 236              	prv_unlinkObserved:
 237              	.LFB6:
 118:C:/Users/dtjld/Desktop/AIoT_software/LiteOS_Lab_overseas/LiteOS_Lab/iot_link/network/lwm2m/wakaama_lwm2m/core\observe.c **** 
 119:C:/Users/dtjld/Desktop/AIoT_software/LiteOS_Lab_overseas/LiteOS_Lab/iot_link/network/lwm2m/wakaama_lwm2m/core\observe.c **** static void prv_unlinkObserved(lwm2m_context_t *contextP,
 120:C:/Users/dtjld/Desktop/AIoT_software/LiteOS_Lab_overseas/LiteOS_Lab/iot_link/network/lwm2m/wakaama_lwm2m/core\observe.c ****                                lwm2m_observed_t *observedP)
 121:C:/Users/dtjld/Desktop/AIoT_software/LiteOS_Lab_overseas/LiteOS_Lab/iot_link/network/lwm2m/wakaama_lwm2m/core\observe.c **** {
ARM GAS  C:\Users\dtjld\AppData\Local\Temp\ccRVA30A.s 			page 14


 238              		.loc 2 121 0
 239              		.cfi_startproc
 240              		@ args = 0, pretend = 0, frame = 16
 241              		@ frame_needed = 1, uses_anonymous_args = 0
 242              		@ link register save eliminated.
 243 0000 80B4     		push	{r7}
 244              	.LCFI18:
 245              		.cfi_def_cfa_offset 4
 246              		.cfi_offset 7, -4
 247 0002 85B0     		sub	sp, sp, #20
 248              	.LCFI19:
 249              		.cfi_def_cfa_offset 24
 250 0004 00AF     		add	r7, sp, #0
 251              	.LCFI20:
 252              		.cfi_def_cfa_register 7
 253 0006 7860     		str	r0, [r7, #4]
 254 0008 3960     		str	r1, [r7]
 122:C:/Users/dtjld/Desktop/AIoT_software/LiteOS_Lab_overseas/LiteOS_Lab/iot_link/network/lwm2m/wakaama_lwm2m/core\observe.c ****     if (contextP->observedList == observedP)
 255              		.loc 2 122 0
 256 000a 7B68     		ldr	r3, [r7, #4]
 257 000c DB69     		ldr	r3, [r3, #28]
 258 000e 3A68     		ldr	r2, [r7]
 259 0010 9A42     		cmp	r2, r3
 260 0012 05D1     		bne	.L13
 123:C:/Users/dtjld/Desktop/AIoT_software/LiteOS_Lab_overseas/LiteOS_Lab/iot_link/network/lwm2m/wakaama_lwm2m/core\observe.c ****     {
 124:C:/Users/dtjld/Desktop/AIoT_software/LiteOS_Lab_overseas/LiteOS_Lab/iot_link/network/lwm2m/wakaama_lwm2m/core\observe.c ****         contextP->observedList = contextP->observedList->next;
 261              		.loc 2 124 0
 262 0014 7B68     		ldr	r3, [r7, #4]
 263 0016 DB69     		ldr	r3, [r3, #28]
 264 0018 1A68     		ldr	r2, [r3]
 265 001a 7B68     		ldr	r3, [r7, #4]
 266 001c DA61     		str	r2, [r3, #28]
 125:C:/Users/dtjld/Desktop/AIoT_software/LiteOS_Lab_overseas/LiteOS_Lab/iot_link/network/lwm2m/wakaama_lwm2m/core\observe.c ****     }
 126:C:/Users/dtjld/Desktop/AIoT_software/LiteOS_Lab_overseas/LiteOS_Lab/iot_link/network/lwm2m/wakaama_lwm2m/core\observe.c ****     else
 127:C:/Users/dtjld/Desktop/AIoT_software/LiteOS_Lab_overseas/LiteOS_Lab/iot_link/network/lwm2m/wakaama_lwm2m/core\observe.c ****     {
 128:C:/Users/dtjld/Desktop/AIoT_software/LiteOS_Lab_overseas/LiteOS_Lab/iot_link/network/lwm2m/wakaama_lwm2m/core\observe.c ****         lwm2m_observed_t *parentP;
 129:C:/Users/dtjld/Desktop/AIoT_software/LiteOS_Lab_overseas/LiteOS_Lab/iot_link/network/lwm2m/wakaama_lwm2m/core\observe.c **** 
 130:C:/Users/dtjld/Desktop/AIoT_software/LiteOS_Lab_overseas/LiteOS_Lab/iot_link/network/lwm2m/wakaama_lwm2m/core\observe.c ****         parentP = contextP->observedList;
 131:C:/Users/dtjld/Desktop/AIoT_software/LiteOS_Lab_overseas/LiteOS_Lab/iot_link/network/lwm2m/wakaama_lwm2m/core\observe.c ****         while (parentP->next != NULL
 132:C:/Users/dtjld/Desktop/AIoT_software/LiteOS_Lab_overseas/LiteOS_Lab/iot_link/network/lwm2m/wakaama_lwm2m/core\observe.c ****                 && parentP->next != observedP)
 133:C:/Users/dtjld/Desktop/AIoT_software/LiteOS_Lab_overseas/LiteOS_Lab/iot_link/network/lwm2m/wakaama_lwm2m/core\observe.c ****         {
 134:C:/Users/dtjld/Desktop/AIoT_software/LiteOS_Lab_overseas/LiteOS_Lab/iot_link/network/lwm2m/wakaama_lwm2m/core\observe.c ****             parentP = parentP->next;
 135:C:/Users/dtjld/Desktop/AIoT_software/LiteOS_Lab_overseas/LiteOS_Lab/iot_link/network/lwm2m/wakaama_lwm2m/core\observe.c ****         }
 136:C:/Users/dtjld/Desktop/AIoT_software/LiteOS_Lab_overseas/LiteOS_Lab/iot_link/network/lwm2m/wakaama_lwm2m/core\observe.c ****         if (parentP->next != NULL)
 137:C:/Users/dtjld/Desktop/AIoT_software/LiteOS_Lab_overseas/LiteOS_Lab/iot_link/network/lwm2m/wakaama_lwm2m/core\observe.c ****         {
 138:C:/Users/dtjld/Desktop/AIoT_software/LiteOS_Lab_overseas/LiteOS_Lab/iot_link/network/lwm2m/wakaama_lwm2m/core\observe.c ****             parentP->next = parentP->next->next;
 139:C:/Users/dtjld/Desktop/AIoT_software/LiteOS_Lab_overseas/LiteOS_Lab/iot_link/network/lwm2m/wakaama_lwm2m/core\observe.c ****         }
 140:C:/Users/dtjld/Desktop/AIoT_software/LiteOS_Lab_overseas/LiteOS_Lab/iot_link/network/lwm2m/wakaama_lwm2m/core\observe.c ****     }
 141:C:/Users/dtjld/Desktop/AIoT_software/LiteOS_Lab_overseas/LiteOS_Lab/iot_link/network/lwm2m/wakaama_lwm2m/core\observe.c **** }
 267              		.loc 2 141 0
 268 001e 18E0     		b	.L18
 269              	.L13:
 270              	.LBB2:
 130:C:/Users/dtjld/Desktop/AIoT_software/LiteOS_Lab_overseas/LiteOS_Lab/iot_link/network/lwm2m/wakaama_lwm2m/core\observe.c ****         while (parentP->next != NULL
 271              		.loc 2 130 0
 272 0020 7B68     		ldr	r3, [r7, #4]
 273 0022 DB69     		ldr	r3, [r3, #28]
ARM GAS  C:\Users\dtjld\AppData\Local\Temp\ccRVA30A.s 			page 15


 274 0024 FB60     		str	r3, [r7, #12]
 131:C:/Users/dtjld/Desktop/AIoT_software/LiteOS_Lab_overseas/LiteOS_Lab/iot_link/network/lwm2m/wakaama_lwm2m/core\observe.c ****                 && parentP->next != observedP)
 275              		.loc 2 131 0
 276 0026 02E0     		b	.L15
 277              	.L17:
 134:C:/Users/dtjld/Desktop/AIoT_software/LiteOS_Lab_overseas/LiteOS_Lab/iot_link/network/lwm2m/wakaama_lwm2m/core\observe.c ****         }
 278              		.loc 2 134 0
 279 0028 FB68     		ldr	r3, [r7, #12]
 280 002a 1B68     		ldr	r3, [r3]
 281 002c FB60     		str	r3, [r7, #12]
 282              	.L15:
 131:C:/Users/dtjld/Desktop/AIoT_software/LiteOS_Lab_overseas/LiteOS_Lab/iot_link/network/lwm2m/wakaama_lwm2m/core\observe.c ****                 && parentP->next != observedP)
 283              		.loc 2 131 0
 284 002e FB68     		ldr	r3, [r7, #12]
 285 0030 1B68     		ldr	r3, [r3]
 286 0032 002B     		cmp	r3, #0
 287 0034 04D0     		beq	.L16
 132:C:/Users/dtjld/Desktop/AIoT_software/LiteOS_Lab_overseas/LiteOS_Lab/iot_link/network/lwm2m/wakaama_lwm2m/core\observe.c ****         {
 288              		.loc 2 132 0
 289 0036 FB68     		ldr	r3, [r7, #12]
 290 0038 1B68     		ldr	r3, [r3]
 291 003a 3A68     		ldr	r2, [r7]
 292 003c 9A42     		cmp	r2, r3
 293 003e F3D1     		bne	.L17
 294              	.L16:
 136:C:/Users/dtjld/Desktop/AIoT_software/LiteOS_Lab_overseas/LiteOS_Lab/iot_link/network/lwm2m/wakaama_lwm2m/core\observe.c ****         {
 295              		.loc 2 136 0
 296 0040 FB68     		ldr	r3, [r7, #12]
 297 0042 1B68     		ldr	r3, [r3]
 298 0044 002B     		cmp	r3, #0
 299 0046 04D0     		beq	.L18
 138:C:/Users/dtjld/Desktop/AIoT_software/LiteOS_Lab_overseas/LiteOS_Lab/iot_link/network/lwm2m/wakaama_lwm2m/core\observe.c ****         }
 300              		.loc 2 138 0
 301 0048 FB68     		ldr	r3, [r7, #12]
 302 004a 1B68     		ldr	r3, [r3]
 303 004c 1A68     		ldr	r2, [r3]
 304 004e FB68     		ldr	r3, [r7, #12]
 305 0050 1A60     		str	r2, [r3]
 306              	.L18:
 307              	.LBE2:
 308              		.loc 2 141 0
 309 0052 00BF     		nop
 310 0054 1437     		adds	r7, r7, #20
 311              	.LCFI21:
 312              		.cfi_def_cfa_offset 4
 313 0056 BD46     		mov	sp, r7
 314              	.LCFI22:
 315              		.cfi_def_cfa_register 13
 316              		@ sp needed
 317 0058 5DF8047B 		ldr	r7, [sp], #4
 318              	.LCFI23:
 319              		.cfi_restore 7
 320              		.cfi_def_cfa_offset 0
 321 005c 7047     		bx	lr
 322              		.cfi_endproc
 323              	.LFE6:
 325              		.section	.text.prv_findWatcher,"ax",%progbits
ARM GAS  C:\Users\dtjld\AppData\Local\Temp\ccRVA30A.s 			page 16


 326              		.align	1
 327              		.syntax unified
 328              		.thumb
 329              		.thumb_func
 330              		.fpu fpv4-sp-d16
 332              	prv_findWatcher:
 333              	.LFB7:
 142:C:/Users/dtjld/Desktop/AIoT_software/LiteOS_Lab_overseas/LiteOS_Lab/iot_link/network/lwm2m/wakaama_lwm2m/core\observe.c **** 
 143:C:/Users/dtjld/Desktop/AIoT_software/LiteOS_Lab_overseas/LiteOS_Lab/iot_link/network/lwm2m/wakaama_lwm2m/core\observe.c **** static lwm2m_watcher_t *prv_findWatcher(lwm2m_observed_t *observedP,
 144:C:/Users/dtjld/Desktop/AIoT_software/LiteOS_Lab_overseas/LiteOS_Lab/iot_link/network/lwm2m/wakaama_lwm2m/core\observe.c ****                                         lwm2m_server_t *serverP)
 145:C:/Users/dtjld/Desktop/AIoT_software/LiteOS_Lab_overseas/LiteOS_Lab/iot_link/network/lwm2m/wakaama_lwm2m/core\observe.c **** {
 334              		.loc 2 145 0
 335              		.cfi_startproc
 336              		@ args = 0, pretend = 0, frame = 16
 337              		@ frame_needed = 1, uses_anonymous_args = 0
 338              		@ link register save eliminated.
 339 0000 80B4     		push	{r7}
 340              	.LCFI24:
 341              		.cfi_def_cfa_offset 4
 342              		.cfi_offset 7, -4
 343 0002 85B0     		sub	sp, sp, #20
 344              	.LCFI25:
 345              		.cfi_def_cfa_offset 24
 346 0004 00AF     		add	r7, sp, #0
 347              	.LCFI26:
 348              		.cfi_def_cfa_register 7
 349 0006 7860     		str	r0, [r7, #4]
 350 0008 3960     		str	r1, [r7]
 146:C:/Users/dtjld/Desktop/AIoT_software/LiteOS_Lab_overseas/LiteOS_Lab/iot_link/network/lwm2m/wakaama_lwm2m/core\observe.c ****     lwm2m_watcher_t *targetP;
 147:C:/Users/dtjld/Desktop/AIoT_software/LiteOS_Lab_overseas/LiteOS_Lab/iot_link/network/lwm2m/wakaama_lwm2m/core\observe.c **** 
 148:C:/Users/dtjld/Desktop/AIoT_software/LiteOS_Lab_overseas/LiteOS_Lab/iot_link/network/lwm2m/wakaama_lwm2m/core\observe.c ****     targetP = observedP->watcherList;
 351              		.loc 2 148 0
 352 000a 7B68     		ldr	r3, [r7, #4]
 353 000c DB68     		ldr	r3, [r3, #12]
 354 000e FB60     		str	r3, [r7, #12]
 149:C:/Users/dtjld/Desktop/AIoT_software/LiteOS_Lab_overseas/LiteOS_Lab/iot_link/network/lwm2m/wakaama_lwm2m/core\observe.c ****     while (targetP != NULL
 355              		.loc 2 149 0
 356 0010 02E0     		b	.L20
 357              	.L22:
 150:C:/Users/dtjld/Desktop/AIoT_software/LiteOS_Lab_overseas/LiteOS_Lab/iot_link/network/lwm2m/wakaama_lwm2m/core\observe.c ****             && targetP->server != serverP)
 151:C:/Users/dtjld/Desktop/AIoT_software/LiteOS_Lab_overseas/LiteOS_Lab/iot_link/network/lwm2m/wakaama_lwm2m/core\observe.c ****     {
 152:C:/Users/dtjld/Desktop/AIoT_software/LiteOS_Lab_overseas/LiteOS_Lab/iot_link/network/lwm2m/wakaama_lwm2m/core\observe.c ****         targetP = targetP->next;
 358              		.loc 2 152 0
 359 0012 FB68     		ldr	r3, [r7, #12]
 360 0014 1B68     		ldr	r3, [r3]
 361 0016 FB60     		str	r3, [r7, #12]
 362              	.L20:
 149:C:/Users/dtjld/Desktop/AIoT_software/LiteOS_Lab_overseas/LiteOS_Lab/iot_link/network/lwm2m/wakaama_lwm2m/core\observe.c ****     while (targetP != NULL
 363              		.loc 2 149 0
 364 0018 FB68     		ldr	r3, [r7, #12]
 365 001a 002B     		cmp	r3, #0
 366 001c 04D0     		beq	.L21
 150:C:/Users/dtjld/Desktop/AIoT_software/LiteOS_Lab_overseas/LiteOS_Lab/iot_link/network/lwm2m/wakaama_lwm2m/core\observe.c ****             && targetP->server != serverP)
 367              		.loc 2 150 0
 368 001e FB68     		ldr	r3, [r7, #12]
 369 0020 9B68     		ldr	r3, [r3, #8]
 370 0022 3A68     		ldr	r2, [r7]
ARM GAS  C:\Users\dtjld\AppData\Local\Temp\ccRVA30A.s 			page 17


 371 0024 9A42     		cmp	r2, r3
 372 0026 F4D1     		bne	.L22
 373              	.L21:
 153:C:/Users/dtjld/Desktop/AIoT_software/LiteOS_Lab_overseas/LiteOS_Lab/iot_link/network/lwm2m/wakaama_lwm2m/core\observe.c ****     }
 154:C:/Users/dtjld/Desktop/AIoT_software/LiteOS_Lab_overseas/LiteOS_Lab/iot_link/network/lwm2m/wakaama_lwm2m/core\observe.c **** 
 155:C:/Users/dtjld/Desktop/AIoT_software/LiteOS_Lab_overseas/LiteOS_Lab/iot_link/network/lwm2m/wakaama_lwm2m/core\observe.c ****     return targetP;
 374              		.loc 2 155 0
 375 0028 FB68     		ldr	r3, [r7, #12]
 156:C:/Users/dtjld/Desktop/AIoT_software/LiteOS_Lab_overseas/LiteOS_Lab/iot_link/network/lwm2m/wakaama_lwm2m/core\observe.c **** }
 376              		.loc 2 156 0
 377 002a 1846     		mov	r0, r3
 378 002c 1437     		adds	r7, r7, #20
 379              	.LCFI27:
 380              		.cfi_def_cfa_offset 4
 381 002e BD46     		mov	sp, r7
 382              	.LCFI28:
 383              		.cfi_def_cfa_register 13
 384              		@ sp needed
 385 0030 5DF8047B 		ldr	r7, [sp], #4
 386              	.LCFI29:
 387              		.cfi_restore 7
 388              		.cfi_def_cfa_offset 0
 389 0034 7047     		bx	lr
 390              		.cfi_endproc
 391              	.LFE7:
 393              		.section	.text.prv_getWatcher,"ax",%progbits
 394              		.align	1
 395              		.syntax unified
 396              		.thumb
 397              		.thumb_func
 398              		.fpu fpv4-sp-d16
 400              	prv_getWatcher:
 401              	.LFB8:
 157:C:/Users/dtjld/Desktop/AIoT_software/LiteOS_Lab_overseas/LiteOS_Lab/iot_link/network/lwm2m/wakaama_lwm2m/core\observe.c **** 
 158:C:/Users/dtjld/Desktop/AIoT_software/LiteOS_Lab_overseas/LiteOS_Lab/iot_link/network/lwm2m/wakaama_lwm2m/core\observe.c **** static lwm2m_watcher_t *prv_getWatcher(lwm2m_context_t *contextP,
 159:C:/Users/dtjld/Desktop/AIoT_software/LiteOS_Lab_overseas/LiteOS_Lab/iot_link/network/lwm2m/wakaama_lwm2m/core\observe.c ****                                        lwm2m_uri_t *uriP,
 160:C:/Users/dtjld/Desktop/AIoT_software/LiteOS_Lab_overseas/LiteOS_Lab/iot_link/network/lwm2m/wakaama_lwm2m/core\observe.c ****                                        lwm2m_server_t *serverP)
 161:C:/Users/dtjld/Desktop/AIoT_software/LiteOS_Lab_overseas/LiteOS_Lab/iot_link/network/lwm2m/wakaama_lwm2m/core\observe.c **** {
 402              		.loc 2 161 0
 403              		.cfi_startproc
 404              		@ args = 0, pretend = 0, frame = 32
 405              		@ frame_needed = 1, uses_anonymous_args = 0
 406 0000 80B5     		push	{r7, lr}
 407              	.LCFI30:
 408              		.cfi_def_cfa_offset 8
 409              		.cfi_offset 7, -8
 410              		.cfi_offset 14, -4
 411 0002 88B0     		sub	sp, sp, #32
 412              	.LCFI31:
 413              		.cfi_def_cfa_offset 40
 414 0004 00AF     		add	r7, sp, #0
 415              	.LCFI32:
 416              		.cfi_def_cfa_register 7
 417 0006 F860     		str	r0, [r7, #12]
 418 0008 B960     		str	r1, [r7, #8]
 419 000a 7A60     		str	r2, [r7, #4]
 162:C:/Users/dtjld/Desktop/AIoT_software/LiteOS_Lab_overseas/LiteOS_Lab/iot_link/network/lwm2m/wakaama_lwm2m/core\observe.c ****     lwm2m_observed_t *observedP;
ARM GAS  C:\Users\dtjld\AppData\Local\Temp\ccRVA30A.s 			page 18


 163:C:/Users/dtjld/Desktop/AIoT_software/LiteOS_Lab_overseas/LiteOS_Lab/iot_link/network/lwm2m/wakaama_lwm2m/core\observe.c ****     bool allocatedObserver;
 164:C:/Users/dtjld/Desktop/AIoT_software/LiteOS_Lab_overseas/LiteOS_Lab/iot_link/network/lwm2m/wakaama_lwm2m/core\observe.c ****     lwm2m_watcher_t *watcherP;
 165:C:/Users/dtjld/Desktop/AIoT_software/LiteOS_Lab_overseas/LiteOS_Lab/iot_link/network/lwm2m/wakaama_lwm2m/core\observe.c **** 
 166:C:/Users/dtjld/Desktop/AIoT_software/LiteOS_Lab_overseas/LiteOS_Lab/iot_link/network/lwm2m/wakaama_lwm2m/core\observe.c ****     allocatedObserver = false;
 420              		.loc 2 166 0
 421 000c 0023     		movs	r3, #0
 422 000e FB76     		strb	r3, [r7, #27]
 167:C:/Users/dtjld/Desktop/AIoT_software/LiteOS_Lab_overseas/LiteOS_Lab/iot_link/network/lwm2m/wakaama_lwm2m/core\observe.c **** 
 168:C:/Users/dtjld/Desktop/AIoT_software/LiteOS_Lab_overseas/LiteOS_Lab/iot_link/network/lwm2m/wakaama_lwm2m/core\observe.c ****     observedP = prv_findObserved(contextP, uriP);
 423              		.loc 2 168 0
 424 0010 B968     		ldr	r1, [r7, #8]
 425 0012 F868     		ldr	r0, [r7, #12]
 426 0014 FFF7FEFF 		bl	prv_findObserved
 427 0018 F861     		str	r0, [r7, #28]
 169:C:/Users/dtjld/Desktop/AIoT_software/LiteOS_Lab_overseas/LiteOS_Lab/iot_link/network/lwm2m/wakaama_lwm2m/core\observe.c ****     if (observedP == NULL)
 428              		.loc 2 169 0
 429 001a FB69     		ldr	r3, [r7, #28]
 430 001c 002B     		cmp	r3, #0
 431 001e 27D1     		bne	.L25
 170:C:/Users/dtjld/Desktop/AIoT_software/LiteOS_Lab_overseas/LiteOS_Lab/iot_link/network/lwm2m/wakaama_lwm2m/core\observe.c ****     {
 171:C:/Users/dtjld/Desktop/AIoT_software/LiteOS_Lab_overseas/LiteOS_Lab/iot_link/network/lwm2m/wakaama_lwm2m/core\observe.c ****         observedP = (lwm2m_observed_t *)lwm2m_malloc(sizeof(lwm2m_observed_t));
 432              		.loc 2 171 0
 433 0020 1020     		movs	r0, #16
 434 0022 FFF7FEFF 		bl	lwm2m_malloc
 435 0026 F861     		str	r0, [r7, #28]
 172:C:/Users/dtjld/Desktop/AIoT_software/LiteOS_Lab_overseas/LiteOS_Lab/iot_link/network/lwm2m/wakaama_lwm2m/core\observe.c ****         if (observedP == NULL) return NULL;
 436              		.loc 2 172 0
 437 0028 FB69     		ldr	r3, [r7, #28]
 438 002a 002B     		cmp	r3, #0
 439 002c 01D1     		bne	.L26
 440              		.loc 2 172 0 is_stmt 0 discriminator 1
 441 002e 0023     		movs	r3, #0
 442 0030 52E0     		b	.L27
 443              	.L26:
 173:C:/Users/dtjld/Desktop/AIoT_software/LiteOS_Lab_overseas/LiteOS_Lab/iot_link/network/lwm2m/wakaama_lwm2m/core\observe.c ****         allocatedObserver = true;
 444              		.loc 2 173 0 is_stmt 1
 445 0032 0123     		movs	r3, #1
 446 0034 FB76     		strb	r3, [r7, #27]
 174:C:/Users/dtjld/Desktop/AIoT_software/LiteOS_Lab_overseas/LiteOS_Lab/iot_link/network/lwm2m/wakaama_lwm2m/core\observe.c ****         memset(observedP, 0, sizeof(lwm2m_observed_t));
 447              		.loc 2 174 0
 448 0036 1022     		movs	r2, #16
 449 0038 0021     		movs	r1, #0
 450 003a F869     		ldr	r0, [r7, #28]
 451 003c FFF7FEFF 		bl	memset
 175:C:/Users/dtjld/Desktop/AIoT_software/LiteOS_Lab_overseas/LiteOS_Lab/iot_link/network/lwm2m/wakaama_lwm2m/core\observe.c ****         memcpy(&(observedP->uri), uriP, sizeof(lwm2m_uri_t));
 452              		.loc 2 175 0
 453 0040 FB69     		ldr	r3, [r7, #28]
 454 0042 0433     		adds	r3, r3, #4
 455 0044 0822     		movs	r2, #8
 456 0046 B968     		ldr	r1, [r7, #8]
 457 0048 1846     		mov	r0, r3
 458 004a FFF7FEFF 		bl	memcpy
 176:C:/Users/dtjld/Desktop/AIoT_software/LiteOS_Lab_overseas/LiteOS_Lab/iot_link/network/lwm2m/wakaama_lwm2m/core\observe.c ****         osal_mutex_lock(contextP->observe_mutex);
 459              		.loc 2 176 0
 460 004e FB68     		ldr	r3, [r7, #12]
 461 0050 1B6A     		ldr	r3, [r3, #32]
 462 0052 1846     		mov	r0, r3
ARM GAS  C:\Users\dtjld\AppData\Local\Temp\ccRVA30A.s 			page 19


 463 0054 FFF7FEFF 		bl	osal_mutex_lock
 177:C:/Users/dtjld/Desktop/AIoT_software/LiteOS_Lab_overseas/LiteOS_Lab/iot_link/network/lwm2m/wakaama_lwm2m/core\observe.c ****         observedP->next = contextP->observedList;
 464              		.loc 2 177 0
 465 0058 FB68     		ldr	r3, [r7, #12]
 466 005a DA69     		ldr	r2, [r3, #28]
 467 005c FB69     		ldr	r3, [r7, #28]
 468 005e 1A60     		str	r2, [r3]
 178:C:/Users/dtjld/Desktop/AIoT_software/LiteOS_Lab_overseas/LiteOS_Lab/iot_link/network/lwm2m/wakaama_lwm2m/core\observe.c ****         contextP->observedList = observedP;
 469              		.loc 2 178 0
 470 0060 FB68     		ldr	r3, [r7, #12]
 471 0062 FA69     		ldr	r2, [r7, #28]
 472 0064 DA61     		str	r2, [r3, #28]
 179:C:/Users/dtjld/Desktop/AIoT_software/LiteOS_Lab_overseas/LiteOS_Lab/iot_link/network/lwm2m/wakaama_lwm2m/core\observe.c ****         osal_mutex_unlock(contextP->observe_mutex);
 473              		.loc 2 179 0
 474 0066 FB68     		ldr	r3, [r7, #12]
 475 0068 1B6A     		ldr	r3, [r3, #32]
 476 006a 1846     		mov	r0, r3
 477 006c FFF7FEFF 		bl	osal_mutex_unlock
 478              	.L25:
 180:C:/Users/dtjld/Desktop/AIoT_software/LiteOS_Lab_overseas/LiteOS_Lab/iot_link/network/lwm2m/wakaama_lwm2m/core\observe.c ****     }
 181:C:/Users/dtjld/Desktop/AIoT_software/LiteOS_Lab_overseas/LiteOS_Lab/iot_link/network/lwm2m/wakaama_lwm2m/core\observe.c **** 
 182:C:/Users/dtjld/Desktop/AIoT_software/LiteOS_Lab_overseas/LiteOS_Lab/iot_link/network/lwm2m/wakaama_lwm2m/core\observe.c ****     watcherP = prv_findWatcher(observedP, serverP);
 479              		.loc 2 182 0
 480 0070 7968     		ldr	r1, [r7, #4]
 481 0072 F869     		ldr	r0, [r7, #28]
 482 0074 FFF7FEFF 		bl	prv_findWatcher
 483 0078 7861     		str	r0, [r7, #20]
 183:C:/Users/dtjld/Desktop/AIoT_software/LiteOS_Lab_overseas/LiteOS_Lab/iot_link/network/lwm2m/wakaama_lwm2m/core\observe.c ****     if (watcherP == NULL)
 484              		.loc 2 183 0
 485 007a 7B69     		ldr	r3, [r7, #20]
 486 007c 002B     		cmp	r3, #0
 487 007e 2AD1     		bne	.L28
 184:C:/Users/dtjld/Desktop/AIoT_software/LiteOS_Lab_overseas/LiteOS_Lab/iot_link/network/lwm2m/wakaama_lwm2m/core\observe.c ****     {
 185:C:/Users/dtjld/Desktop/AIoT_software/LiteOS_Lab_overseas/LiteOS_Lab/iot_link/network/lwm2m/wakaama_lwm2m/core\observe.c ****         watcherP = (lwm2m_watcher_t *)lwm2m_malloc(sizeof(lwm2m_watcher_t));
 488              		.loc 2 185 0
 489 0080 3820     		movs	r0, #56
 490 0082 FFF7FEFF 		bl	lwm2m_malloc
 491 0086 7861     		str	r0, [r7, #20]
 186:C:/Users/dtjld/Desktop/AIoT_software/LiteOS_Lab_overseas/LiteOS_Lab/iot_link/network/lwm2m/wakaama_lwm2m/core\observe.c ****         if (watcherP == NULL)
 492              		.loc 2 186 0
 493 0088 7B69     		ldr	r3, [r7, #20]
 494 008a 002B     		cmp	r3, #0
 495 008c 07D1     		bne	.L29
 187:C:/Users/dtjld/Desktop/AIoT_software/LiteOS_Lab_overseas/LiteOS_Lab/iot_link/network/lwm2m/wakaama_lwm2m/core\observe.c ****         {
 188:C:/Users/dtjld/Desktop/AIoT_software/LiteOS_Lab_overseas/LiteOS_Lab/iot_link/network/lwm2m/wakaama_lwm2m/core\observe.c ****             if (allocatedObserver == true)
 496              		.loc 2 188 0
 497 008e FB7E     		ldrb	r3, [r7, #27]	@ zero_extendqisi2
 498 0090 002B     		cmp	r3, #0
 499 0092 02D0     		beq	.L30
 189:C:/Users/dtjld/Desktop/AIoT_software/LiteOS_Lab_overseas/LiteOS_Lab/iot_link/network/lwm2m/wakaama_lwm2m/core\observe.c ****             {
 190:C:/Users/dtjld/Desktop/AIoT_software/LiteOS_Lab_overseas/LiteOS_Lab/iot_link/network/lwm2m/wakaama_lwm2m/core\observe.c ****                 lwm2m_free(observedP);
 500              		.loc 2 190 0
 501 0094 F869     		ldr	r0, [r7, #28]
 502 0096 FFF7FEFF 		bl	lwm2m_free
 503              	.L30:
 191:C:/Users/dtjld/Desktop/AIoT_software/LiteOS_Lab_overseas/LiteOS_Lab/iot_link/network/lwm2m/wakaama_lwm2m/core\observe.c ****             }
 192:C:/Users/dtjld/Desktop/AIoT_software/LiteOS_Lab_overseas/LiteOS_Lab/iot_link/network/lwm2m/wakaama_lwm2m/core\observe.c ****             return NULL;
ARM GAS  C:\Users\dtjld\AppData\Local\Temp\ccRVA30A.s 			page 20


 504              		.loc 2 192 0
 505 009a 0023     		movs	r3, #0
 506 009c 1CE0     		b	.L27
 507              	.L29:
 193:C:/Users/dtjld/Desktop/AIoT_software/LiteOS_Lab_overseas/LiteOS_Lab/iot_link/network/lwm2m/wakaama_lwm2m/core\observe.c ****         }
 194:C:/Users/dtjld/Desktop/AIoT_software/LiteOS_Lab_overseas/LiteOS_Lab/iot_link/network/lwm2m/wakaama_lwm2m/core\observe.c ****         memset(watcherP, 0, sizeof(lwm2m_watcher_t));
 508              		.loc 2 194 0
 509 009e 3822     		movs	r2, #56
 510 00a0 0021     		movs	r1, #0
 511 00a2 7869     		ldr	r0, [r7, #20]
 512 00a4 FFF7FEFF 		bl	memset
 195:C:/Users/dtjld/Desktop/AIoT_software/LiteOS_Lab_overseas/LiteOS_Lab/iot_link/network/lwm2m/wakaama_lwm2m/core\observe.c ****         watcherP->active = false;
 513              		.loc 2 195 0
 514 00a8 7B69     		ldr	r3, [r7, #20]
 515 00aa 0022     		movs	r2, #0
 516 00ac 1A71     		strb	r2, [r3, #4]
 196:C:/Users/dtjld/Desktop/AIoT_software/LiteOS_Lab_overseas/LiteOS_Lab/iot_link/network/lwm2m/wakaama_lwm2m/core\observe.c ****         watcherP->server = serverP;
 517              		.loc 2 196 0
 518 00ae 7B69     		ldr	r3, [r7, #20]
 519 00b0 7A68     		ldr	r2, [r7, #4]
 520 00b2 9A60     		str	r2, [r3, #8]
 197:C:/Users/dtjld/Desktop/AIoT_software/LiteOS_Lab_overseas/LiteOS_Lab/iot_link/network/lwm2m/wakaama_lwm2m/core\observe.c ****         osal_mutex_lock(contextP->observe_mutex);
 521              		.loc 2 197 0
 522 00b4 FB68     		ldr	r3, [r7, #12]
 523 00b6 1B6A     		ldr	r3, [r3, #32]
 524 00b8 1846     		mov	r0, r3
 525 00ba FFF7FEFF 		bl	osal_mutex_lock
 198:C:/Users/dtjld/Desktop/AIoT_software/LiteOS_Lab_overseas/LiteOS_Lab/iot_link/network/lwm2m/wakaama_lwm2m/core\observe.c ****         watcherP->next = observedP->watcherList;
 526              		.loc 2 198 0
 527 00be FB69     		ldr	r3, [r7, #28]
 528 00c0 DA68     		ldr	r2, [r3, #12]
 529 00c2 7B69     		ldr	r3, [r7, #20]
 530 00c4 1A60     		str	r2, [r3]
 199:C:/Users/dtjld/Desktop/AIoT_software/LiteOS_Lab_overseas/LiteOS_Lab/iot_link/network/lwm2m/wakaama_lwm2m/core\observe.c ****         observedP->watcherList = watcherP;
 531              		.loc 2 199 0
 532 00c6 FB69     		ldr	r3, [r7, #28]
 533 00c8 7A69     		ldr	r2, [r7, #20]
 534 00ca DA60     		str	r2, [r3, #12]
 200:C:/Users/dtjld/Desktop/AIoT_software/LiteOS_Lab_overseas/LiteOS_Lab/iot_link/network/lwm2m/wakaama_lwm2m/core\observe.c ****         osal_mutex_unlock(contextP->observe_mutex);
 535              		.loc 2 200 0
 536 00cc FB68     		ldr	r3, [r7, #12]
 537 00ce 1B6A     		ldr	r3, [r3, #32]
 538 00d0 1846     		mov	r0, r3
 539 00d2 FFF7FEFF 		bl	osal_mutex_unlock
 540              	.L28:
 201:C:/Users/dtjld/Desktop/AIoT_software/LiteOS_Lab_overseas/LiteOS_Lab/iot_link/network/lwm2m/wakaama_lwm2m/core\observe.c ****     }
 202:C:/Users/dtjld/Desktop/AIoT_software/LiteOS_Lab_overseas/LiteOS_Lab/iot_link/network/lwm2m/wakaama_lwm2m/core\observe.c **** 
 203:C:/Users/dtjld/Desktop/AIoT_software/LiteOS_Lab_overseas/LiteOS_Lab/iot_link/network/lwm2m/wakaama_lwm2m/core\observe.c ****     return watcherP;
 541              		.loc 2 203 0
 542 00d6 7B69     		ldr	r3, [r7, #20]
 543              	.L27:
 204:C:/Users/dtjld/Desktop/AIoT_software/LiteOS_Lab_overseas/LiteOS_Lab/iot_link/network/lwm2m/wakaama_lwm2m/core\observe.c **** }
 544              		.loc 2 204 0
 545 00d8 1846     		mov	r0, r3
 546 00da 2037     		adds	r7, r7, #32
 547              	.LCFI33:
 548              		.cfi_def_cfa_offset 8
ARM GAS  C:\Users\dtjld\AppData\Local\Temp\ccRVA30A.s 			page 21


 549 00dc BD46     		mov	sp, r7
 550              	.LCFI34:
 551              		.cfi_def_cfa_register 13
 552              		@ sp needed
 553 00de 80BD     		pop	{r7, pc}
 554              		.cfi_endproc
 555              	.LFE8:
 557              		.section	.rodata
 558              		.align	2
 559              	.LC0:
 560 0000 53544154 		.ascii	"STATE_BS_FAILED\000"
 560      455F4253 
 560      5F464149 
 560      4C454400 
 561              		.align	2
 562              	.LC1:
 563 0010 556E6B6E 		.ascii	"Unknown\000"
 563      6F776E00 
 564              		.align	2
 565              	.LC2:
 566 0018 53544154 		.ascii	"STATE_BS_FAILING\000"
 566      455F4253 
 566      5F464149 
 566      4C494E47 
 566      00
 567 0029 000000   		.align	2
 568              	.LC3:
 569 002c 53544154 		.ascii	"STATE_BS_FINISHING\000"
 569      455F4253 
 569      5F46494E 
 569      49534849 
 569      4E4700
 570 003f 00       		.align	2
 571              	.LC4:
 572 0040 53544154 		.ascii	"STATE_BS_FINISHED\000"
 572      455F4253 
 572      5F46494E 
 572      49534845 
 572      4400
 573 0052 0000     		.align	2
 574              	.LC5:
 575 0054 53544154 		.ascii	"STATE_BS_PENDING\000"
 575      455F4253 
 575      5F50454E 
 575      44494E47 
 575      00
 576 0065 000000   		.align	2
 577              	.LC6:
 578 0068 53544154 		.ascii	"STATE_BS_INITIATED\000"
 578      455F4253 
 578      5F494E49 
 578      54494154 
 578      454400
 579 007b 00       		.align	2
 580              	.LC7:
 581 007c 53544154 		.ascii	"STATE_BS_HOLD_OFF\000"
 581      455F4253 
ARM GAS  C:\Users\dtjld\AppData\Local\Temp\ccRVA30A.s 			page 22


 581      5F484F4C 
 581      445F4F46 
 581      4600
 582 008e 0000     		.align	2
 583              	.LC8:
 584 0090 53544154 		.ascii	"STATE_DEREG_PENDING\000"
 584      455F4445 
 584      5245475F 
 584      50454E44 
 584      494E4700 
 585              		.align	2
 586              	.LC9:
 587 00a4 53544154 		.ascii	"STATE_REG_FULL_UPDATE_NEEDED\000"
 587      455F5245 
 587      475F4655 
 587      4C4C5F55 
 587      50444154 
 588 00c1 000000   		.align	2
 589              	.LC10:
 590 00c4 53544154 		.ascii	"STATE_REG_UPDATE_NEEDED\000"
 590      455F5245 
 590      475F5550 
 590      44415445 
 590      5F4E4545 
 591              		.align	2
 592              	.LC11:
 593 00dc 53544154 		.ascii	"STATE_REG_UPDATE_PENDING\000"
 593      455F5245 
 593      475F5550 
 593      44415445 
 593      5F50454E 
 594 00f5 000000   		.align	2
 595              	.LC12:
 596 00f8 53544154 		.ascii	"STATE_REG_FAILED\000"
 596      455F5245 
 596      475F4641 
 596      494C4544 
 596      00
 597 0109 000000   		.align	2
 598              	.LC13:
 599 010c 53544154 		.ascii	"STATE_REGISTERED\000"
 599      455F5245 
 599      47495354 
 599      45524544 
 599      00
 600 011d 000000   		.align	2
 601              	.LC14:
 602 0120 53544154 		.ascii	"STATE_REG_PENDING\000"
 602      455F5245 
 602      475F5045 
 602      4E44494E 
 602      4700
 603 0132 0000     		.align	2
 604              	.LC15:
 605 0134 53544154 		.ascii	"STATE_DEREGISTERED\000"
 605      455F4445 
 605      52454749 
ARM GAS  C:\Users\dtjld\AppData\Local\Temp\ccRVA30A.s 			page 23


 605      53544552 
 605      454400
 606 0147 00       		.align	2
 607              	.LC16:
 608 0148 5B25645D 		.ascii	"[%d][%s:%d] Code: %02X, server status: %s\015\012\000"
 608      5B25733A 
 608      25645D20 
 608      436F6465 
 608      3A202530 
 609              		.align	2
 610              	.LC17:
 611 0174 5B25733A 		.ascii	"[%s:%d] NULL\015\012\000"
 611      25645D20 
 611      4E554C4C 
 611      0D0A00
 612 0183 00       		.align	2
 613              	.LC18:
 614 0184 5B25733A 		.ascii	"[%s:%d] /%d\000"
 614      25645D20 
 614      2F256400 
 615              		.align	2
 616              	.LC19:
 617 0190 2F256400 		.ascii	"/%d\000"
 618              		.align	2
 619              	.LC20:
 620 0194 0D0A00   		.ascii	"\015\012\000"
 621              		.section	.text.observe_handleRequest,"ax",%progbits
 622              		.align	1
 623              		.global	observe_handleRequest
 624              		.syntax unified
 625              		.thumb
 626              		.thumb_func
 627              		.fpu fpv4-sp-d16
 629              	observe_handleRequest:
 630              	.LFB9:
 205:C:/Users/dtjld/Desktop/AIoT_software/LiteOS_Lab_overseas/LiteOS_Lab/iot_link/network/lwm2m/wakaama_lwm2m/core\observe.c **** 
 206:C:/Users/dtjld/Desktop/AIoT_software/LiteOS_Lab_overseas/LiteOS_Lab/iot_link/network/lwm2m/wakaama_lwm2m/core\observe.c **** uint8_t observe_handleRequest(lwm2m_context_t *contextP,
 207:C:/Users/dtjld/Desktop/AIoT_software/LiteOS_Lab_overseas/LiteOS_Lab/iot_link/network/lwm2m/wakaama_lwm2m/core\observe.c ****                               lwm2m_uri_t *uriP,
 208:C:/Users/dtjld/Desktop/AIoT_software/LiteOS_Lab_overseas/LiteOS_Lab/iot_link/network/lwm2m/wakaama_lwm2m/core\observe.c ****                               lwm2m_server_t *serverP,
 209:C:/Users/dtjld/Desktop/AIoT_software/LiteOS_Lab_overseas/LiteOS_Lab/iot_link/network/lwm2m/wakaama_lwm2m/core\observe.c ****                               int size,
 210:C:/Users/dtjld/Desktop/AIoT_software/LiteOS_Lab_overseas/LiteOS_Lab/iot_link/network/lwm2m/wakaama_lwm2m/core\observe.c ****                               lwm2m_data_t *dataP,
 211:C:/Users/dtjld/Desktop/AIoT_software/LiteOS_Lab_overseas/LiteOS_Lab/iot_link/network/lwm2m/wakaama_lwm2m/core\observe.c ****                               coap_packet_t *message,
 212:C:/Users/dtjld/Desktop/AIoT_software/LiteOS_Lab_overseas/LiteOS_Lab/iot_link/network/lwm2m/wakaama_lwm2m/core\observe.c ****                               coap_packet_t *response)
 213:C:/Users/dtjld/Desktop/AIoT_software/LiteOS_Lab_overseas/LiteOS_Lab/iot_link/network/lwm2m/wakaama_lwm2m/core\observe.c **** {
 631              		.loc 2 213 0
 632              		.cfi_startproc
 633              		@ args = 12, pretend = 0, frame = 32
 634              		@ frame_needed = 1, uses_anonymous_args = 0
 635 0000 90B5     		push	{r4, r7, lr}
 636              	.LCFI35:
 637              		.cfi_def_cfa_offset 12
 638              		.cfi_offset 4, -12
 639              		.cfi_offset 7, -8
 640              		.cfi_offset 14, -4
 641 0002 8BB0     		sub	sp, sp, #44
 642              	.LCFI36:
 643              		.cfi_def_cfa_offset 56
ARM GAS  C:\Users\dtjld\AppData\Local\Temp\ccRVA30A.s 			page 24


 644 0004 02AF     		add	r7, sp, #8
 645              	.LCFI37:
 646              		.cfi_def_cfa 7, 48
 647 0006 F860     		str	r0, [r7, #12]
 648 0008 B960     		str	r1, [r7, #8]
 649 000a 7A60     		str	r2, [r7, #4]
 650 000c 3B60     		str	r3, [r7]
 214:C:/Users/dtjld/Desktop/AIoT_software/LiteOS_Lab_overseas/LiteOS_Lab/iot_link/network/lwm2m/wakaama_lwm2m/core\observe.c ****     lwm2m_observed_t * observedP;
 215:C:/Users/dtjld/Desktop/AIoT_software/LiteOS_Lab_overseas/LiteOS_Lab/iot_link/network/lwm2m/wakaama_lwm2m/core\observe.c ****     lwm2m_watcher_t *watcherP;
 216:C:/Users/dtjld/Desktop/AIoT_software/LiteOS_Lab_overseas/LiteOS_Lab/iot_link/network/lwm2m/wakaama_lwm2m/core\observe.c ****     uint32_t count;
 217:C:/Users/dtjld/Desktop/AIoT_software/LiteOS_Lab_overseas/LiteOS_Lab/iot_link/network/lwm2m/wakaama_lwm2m/core\observe.c **** 
 218:C:/Users/dtjld/Desktop/AIoT_software/LiteOS_Lab_overseas/LiteOS_Lab/iot_link/network/lwm2m/wakaama_lwm2m/core\observe.c ****     LOG_ARG("Code: %02X, server status: %s", message->code, STR_STATUS(serverP->status));
 651              		.loc 2 218 0
 652 000e FFF7FEFF 		bl	lwm2m_gettime
 653 0012 0346     		mov	r3, r0
 654 0014 0C46     		mov	r4, r1
 655 0016 1946     		mov	r1, r3
 656 0018 7B6B     		ldr	r3, [r7, #52]
 657 001a 9B79     		ldrb	r3, [r3, #6]	@ zero_extendqisi2
 658 001c 1A46     		mov	r2, r3
 659 001e 7B68     		ldr	r3, [r7, #4]
 660 0020 93F82030 		ldrb	r3, [r3, #32]	@ zero_extendqisi2
 661 0024 002B     		cmp	r3, #0
 662 0026 63D0     		beq	.L32
 663              		.loc 2 218 0 is_stmt 0 discriminator 1
 664 0028 7B68     		ldr	r3, [r7, #4]
 665 002a 93F82030 		ldrb	r3, [r3, #32]	@ zero_extendqisi2
 666 002e 012B     		cmp	r3, #1
 667 0030 5CD0     		beq	.L33
 668              		.loc 2 218 0 discriminator 3
 669 0032 7B68     		ldr	r3, [r7, #4]
 670 0034 93F82030 		ldrb	r3, [r3, #32]	@ zero_extendqisi2
 671 0038 022B     		cmp	r3, #2
 672 003a 55D0     		beq	.L34
 673              		.loc 2 218 0 discriminator 5
 674 003c 7B68     		ldr	r3, [r7, #4]
 675 003e 93F82030 		ldrb	r3, [r3, #32]	@ zero_extendqisi2
 676 0042 032B     		cmp	r3, #3
 677 0044 4ED0     		beq	.L35
 678              		.loc 2 218 0 discriminator 7
 679 0046 7B68     		ldr	r3, [r7, #4]
 680 0048 93F82030 		ldrb	r3, [r3, #32]	@ zero_extendqisi2
 681 004c 042B     		cmp	r3, #4
 682 004e 47D0     		beq	.L36
 683              		.loc 2 218 0 discriminator 9
 684 0050 7B68     		ldr	r3, [r7, #4]
 685 0052 93F82030 		ldrb	r3, [r3, #32]	@ zero_extendqisi2
 686 0056 052B     		cmp	r3, #5
 687 0058 40D0     		beq	.L37
 688              		.loc 2 218 0 discriminator 11
 689 005a 7B68     		ldr	r3, [r7, #4]
 690 005c 93F82030 		ldrb	r3, [r3, #32]	@ zero_extendqisi2
 691 0060 062B     		cmp	r3, #6
 692 0062 39D0     		beq	.L38
 693              		.loc 2 218 0 discriminator 13
 694 0064 7B68     		ldr	r3, [r7, #4]
 695 0066 93F82030 		ldrb	r3, [r3, #32]	@ zero_extendqisi2
ARM GAS  C:\Users\dtjld\AppData\Local\Temp\ccRVA30A.s 			page 25


 696 006a 072B     		cmp	r3, #7
 697 006c 32D0     		beq	.L39
 698              		.loc 2 218 0 discriminator 15
 699 006e 7B68     		ldr	r3, [r7, #4]
 700 0070 93F82030 		ldrb	r3, [r3, #32]	@ zero_extendqisi2
 701 0074 082B     		cmp	r3, #8
 702 0076 2BD0     		beq	.L40
 703              		.loc 2 218 0 discriminator 17
 704 0078 7B68     		ldr	r3, [r7, #4]
 705 007a 93F82030 		ldrb	r3, [r3, #32]	@ zero_extendqisi2
 706 007e 092B     		cmp	r3, #9
 707 0080 24D0     		beq	.L41
 708              		.loc 2 218 0 discriminator 19
 709 0082 7B68     		ldr	r3, [r7, #4]
 710 0084 93F82030 		ldrb	r3, [r3, #32]	@ zero_extendqisi2
 711 0088 0A2B     		cmp	r3, #10
 712 008a 1DD0     		beq	.L42
 713              		.loc 2 218 0 discriminator 21
 714 008c 7B68     		ldr	r3, [r7, #4]
 715 008e 93F82030 		ldrb	r3, [r3, #32]	@ zero_extendqisi2
 716 0092 0C2B     		cmp	r3, #12
 717 0094 16D0     		beq	.L43
 718              		.loc 2 218 0 discriminator 23
 719 0096 7B68     		ldr	r3, [r7, #4]
 720 0098 93F82030 		ldrb	r3, [r3, #32]	@ zero_extendqisi2
 721 009c 0B2B     		cmp	r3, #11
 722 009e 0FD0     		beq	.L44
 723              		.loc 2 218 0 discriminator 25
 724 00a0 7B68     		ldr	r3, [r7, #4]
 725 00a2 93F82030 		ldrb	r3, [r3, #32]	@ zero_extendqisi2
 726 00a6 0D2B     		cmp	r3, #13
 727 00a8 08D0     		beq	.L45
 728              		.loc 2 218 0 discriminator 27
 729 00aa 7B68     		ldr	r3, [r7, #4]
 730 00ac 93F82030 		ldrb	r3, [r3, #32]	@ zero_extendqisi2
 731 00b0 0E2B     		cmp	r3, #14
 732 00b2 01D1     		bne	.L46
 733              		.loc 2 218 0 discriminator 29
 734 00b4 824B     		ldr	r3, .L87
 735 00b6 1CE0     		b	.L61
 736              	.L46:
 737              		.loc 2 218 0 discriminator 30
 738 00b8 824B     		ldr	r3, .L87+4
 739 00ba 1AE0     		b	.L61
 740              	.L45:
 741              		.loc 2 218 0 discriminator 28
 742 00bc 824B     		ldr	r3, .L87+8
 743 00be 18E0     		b	.L61
 744              	.L44:
 745              		.loc 2 218 0 discriminator 26
 746 00c0 824B     		ldr	r3, .L87+12
 747 00c2 16E0     		b	.L61
 748              	.L43:
 749              		.loc 2 218 0 discriminator 24
 750 00c4 824B     		ldr	r3, .L87+16
 751 00c6 14E0     		b	.L61
 752              	.L42:
ARM GAS  C:\Users\dtjld\AppData\Local\Temp\ccRVA30A.s 			page 26


 753              		.loc 2 218 0 discriminator 22
 754 00c8 824B     		ldr	r3, .L87+20
 755 00ca 12E0     		b	.L61
 756              	.L41:
 757              		.loc 2 218 0 discriminator 20
 758 00cc 824B     		ldr	r3, .L87+24
 759 00ce 10E0     		b	.L61
 760              	.L40:
 761              		.loc 2 218 0 discriminator 18
 762 00d0 824B     		ldr	r3, .L87+28
 763 00d2 0EE0     		b	.L61
 764              	.L39:
 765              		.loc 2 218 0 discriminator 16
 766 00d4 824B     		ldr	r3, .L87+32
 767 00d6 0CE0     		b	.L61
 768              	.L38:
 769              		.loc 2 218 0 discriminator 14
 770 00d8 824B     		ldr	r3, .L87+36
 771 00da 0AE0     		b	.L61
 772              	.L37:
 773              		.loc 2 218 0 discriminator 12
 774 00dc 824B     		ldr	r3, .L87+40
 775 00de 08E0     		b	.L61
 776              	.L36:
 777              		.loc 2 218 0 discriminator 10
 778 00e0 824B     		ldr	r3, .L87+44
 779 00e2 06E0     		b	.L61
 780              	.L35:
 781              		.loc 2 218 0 discriminator 8
 782 00e4 824B     		ldr	r3, .L87+48
 783 00e6 04E0     		b	.L61
 784              	.L34:
 785              		.loc 2 218 0 discriminator 6
 786 00e8 824B     		ldr	r3, .L87+52
 787 00ea 02E0     		b	.L61
 788              	.L33:
 789              		.loc 2 218 0 discriminator 4
 790 00ec 824B     		ldr	r3, .L87+56
 791 00ee 00E0     		b	.L61
 792              	.L32:
 793              		.loc 2 218 0 discriminator 2
 794 00f0 824B     		ldr	r3, .L87+60
 795              	.L61:
 796              		.loc 2 218 0 discriminator 60
 797 00f2 0193     		str	r3, [sp, #4]
 798 00f4 0092     		str	r2, [sp]
 799 00f6 DA23     		movs	r3, #218
 800 00f8 814A     		ldr	r2, .L87+64
 801 00fa 8248     		ldr	r0, .L87+68
 802 00fc FFF7FEFF 		bl	atiny_printf
 219:C:/Users/dtjld/Desktop/AIoT_software/LiteOS_Lab_overseas/LiteOS_Lab/iot_link/network/lwm2m/wakaama_lwm2m/core\observe.c ****     LOG_URI(uriP);
 803              		.loc 2 219 0 is_stmt 1 discriminator 60
 804 0100 BB68     		ldr	r3, [r7, #8]
 805 0102 002B     		cmp	r3, #0
 806 0104 05D1     		bne	.L62
 807              		.loc 2 219 0 is_stmt 0 discriminator 1
 808 0106 DB22     		movs	r2, #219
ARM GAS  C:\Users\dtjld\AppData\Local\Temp\ccRVA30A.s 			page 27


 809 0108 7D49     		ldr	r1, .L87+64
 810 010a 7F48     		ldr	r0, .L87+72
 811 010c FFF7FEFF 		bl	atiny_printf
 812 0110 21E0     		b	.L63
 813              	.L62:
 814              		.loc 2 219 0 discriminator 2
 815 0112 BB68     		ldr	r3, [r7, #8]
 816 0114 5B88     		ldrh	r3, [r3, #2]
 817 0116 DB22     		movs	r2, #219
 818 0118 7949     		ldr	r1, .L87+64
 819 011a 7C48     		ldr	r0, .L87+76
 820 011c FFF7FEFF 		bl	atiny_printf
 821 0120 BB68     		ldr	r3, [r7, #8]
 822 0122 1B78     		ldrb	r3, [r3]	@ zero_extendqisi2
 823 0124 03F00203 		and	r3, r3, #2
 824 0128 002B     		cmp	r3, #0
 825 012a 05D0     		beq	.L64
 826              		.loc 2 219 0 discriminator 3
 827 012c BB68     		ldr	r3, [r7, #8]
 828 012e 9B88     		ldrh	r3, [r3, #4]
 829 0130 1946     		mov	r1, r3
 830 0132 7748     		ldr	r0, .L87+80
 831 0134 FFF7FEFF 		bl	atiny_printf
 832              	.L64:
 833              		.loc 2 219 0 discriminator 5
 834 0138 BB68     		ldr	r3, [r7, #8]
 835 013a 1B78     		ldrb	r3, [r3]	@ zero_extendqisi2
 836 013c 03F00103 		and	r3, r3, #1
 837 0140 002B     		cmp	r3, #0
 838 0142 05D0     		beq	.L65
 839              		.loc 2 219 0 discriminator 6
 840 0144 BB68     		ldr	r3, [r7, #8]
 841 0146 DB88     		ldrh	r3, [r3, #6]
 842 0148 1946     		mov	r1, r3
 843 014a 7148     		ldr	r0, .L87+80
 844 014c FFF7FEFF 		bl	atiny_printf
 845              	.L65:
 846              		.loc 2 219 0 discriminator 8
 847 0150 7048     		ldr	r0, .L87+84
 848 0152 FFF7FEFF 		bl	atiny_printf
 849              	.L63:
 220:C:/Users/dtjld/Desktop/AIoT_software/LiteOS_Lab_overseas/LiteOS_Lab/iot_link/network/lwm2m/wakaama_lwm2m/core\observe.c **** 
 221:C:/Users/dtjld/Desktop/AIoT_software/LiteOS_Lab_overseas/LiteOS_Lab/iot_link/network/lwm2m/wakaama_lwm2m/core\observe.c ****     coap_get_header_observe(message, &count);
 850              		.loc 2 221 0 is_stmt 1
 851 0156 07F11403 		add	r3, r7, #20
 852 015a 1946     		mov	r1, r3
 853 015c 786B     		ldr	r0, [r7, #52]
 854 015e FFF7FEFF 		bl	coap_get_header_observe
 222:C:/Users/dtjld/Desktop/AIoT_software/LiteOS_Lab_overseas/LiteOS_Lab/iot_link/network/lwm2m/wakaama_lwm2m/core\observe.c **** 
 223:C:/Users/dtjld/Desktop/AIoT_software/LiteOS_Lab_overseas/LiteOS_Lab/iot_link/network/lwm2m/wakaama_lwm2m/core\observe.c ****     switch (count)
 855              		.loc 2 223 0
 856 0162 7B69     		ldr	r3, [r7, #20]
 857 0164 002B     		cmp	r3, #0
 858 0166 03D0     		beq	.L67
 859 0168 012B     		cmp	r3, #1
 860 016a 00F08980 		beq	.L68
 861 016e A1E0     		b	.L83
ARM GAS  C:\Users\dtjld\AppData\Local\Temp\ccRVA30A.s 			page 28


 862              	.L67:
 224:C:/Users/dtjld/Desktop/AIoT_software/LiteOS_Lab_overseas/LiteOS_Lab/iot_link/network/lwm2m/wakaama_lwm2m/core\observe.c ****     {
 225:C:/Users/dtjld/Desktop/AIoT_software/LiteOS_Lab_overseas/LiteOS_Lab/iot_link/network/lwm2m/wakaama_lwm2m/core\observe.c ****     case 0:
 226:C:/Users/dtjld/Desktop/AIoT_software/LiteOS_Lab_overseas/LiteOS_Lab/iot_link/network/lwm2m/wakaama_lwm2m/core\observe.c ****         if (!LWM2M_URI_IS_SET_INSTANCE(uriP) && LWM2M_URI_IS_SET_RESOURCE(uriP)) return COAP_400_BA
 863              		.loc 2 226 0
 864 0170 BB68     		ldr	r3, [r7, #8]
 865 0172 1B78     		ldrb	r3, [r3]	@ zero_extendqisi2
 866 0174 03F00203 		and	r3, r3, #2
 867 0178 002B     		cmp	r3, #0
 868 017a 07D1     		bne	.L69
 869              		.loc 2 226 0 is_stmt 0 discriminator 1
 870 017c BB68     		ldr	r3, [r7, #8]
 871 017e 1B78     		ldrb	r3, [r3]	@ zero_extendqisi2
 872 0180 03F00103 		and	r3, r3, #1
 873 0184 002B     		cmp	r3, #0
 874 0186 01D0     		beq	.L69
 875              		.loc 2 226 0 discriminator 2
 876 0188 8023     		movs	r3, #128
 877 018a 94E0     		b	.L82
 878              	.L69:
 227:C:/Users/dtjld/Desktop/AIoT_software/LiteOS_Lab_overseas/LiteOS_Lab/iot_link/network/lwm2m/wakaama_lwm2m/core\observe.c ****         if (message->token_len == 0) return COAP_400_BAD_REQUEST;
 879              		.loc 2 227 0 is_stmt 1
 880 018c 7B6B     		ldr	r3, [r7, #52]
 881 018e 93F84C30 		ldrb	r3, [r3, #76]	@ zero_extendqisi2
 882 0192 002B     		cmp	r3, #0
 883 0194 01D1     		bne	.L71
 884              		.loc 2 227 0 is_stmt 0 discriminator 1
 885 0196 8023     		movs	r3, #128
 886 0198 8DE0     		b	.L82
 887              	.L71:
 228:C:/Users/dtjld/Desktop/AIoT_software/LiteOS_Lab_overseas/LiteOS_Lab/iot_link/network/lwm2m/wakaama_lwm2m/core\observe.c **** 
 229:C:/Users/dtjld/Desktop/AIoT_software/LiteOS_Lab_overseas/LiteOS_Lab/iot_link/network/lwm2m/wakaama_lwm2m/core\observe.c ****         watcherP = prv_getWatcher(contextP, uriP, serverP);
 888              		.loc 2 229 0 is_stmt 1
 889 019a 7A68     		ldr	r2, [r7, #4]
 890 019c B968     		ldr	r1, [r7, #8]
 891 019e F868     		ldr	r0, [r7, #12]
 892 01a0 FFF7FEFF 		bl	prv_getWatcher
 893 01a4 B861     		str	r0, [r7, #24]
 230:C:/Users/dtjld/Desktop/AIoT_software/LiteOS_Lab_overseas/LiteOS_Lab/iot_link/network/lwm2m/wakaama_lwm2m/core\observe.c ****         if (watcherP == NULL) return COAP_500_INTERNAL_SERVER_ERROR;
 894              		.loc 2 230 0
 895 01a6 BB69     		ldr	r3, [r7, #24]
 896 01a8 002B     		cmp	r3, #0
 897 01aa 01D1     		bne	.L72
 898              		.loc 2 230 0 is_stmt 0 discriminator 1
 899 01ac A023     		movs	r3, #160
 900 01ae 82E0     		b	.L82
 901              	.L72:
 231:C:/Users/dtjld/Desktop/AIoT_software/LiteOS_Lab_overseas/LiteOS_Lab/iot_link/network/lwm2m/wakaama_lwm2m/core\observe.c **** 
 232:C:/Users/dtjld/Desktop/AIoT_software/LiteOS_Lab_overseas/LiteOS_Lab/iot_link/network/lwm2m/wakaama_lwm2m/core\observe.c ****         watcherP->tokenLen = message->token_len;
 902              		.loc 2 232 0 is_stmt 1
 903 01b0 7B6B     		ldr	r3, [r7, #52]
 904 01b2 93F84C30 		ldrb	r3, [r3, #76]	@ zero_extendqisi2
 905 01b6 1A46     		mov	r2, r3
 906 01b8 BB69     		ldr	r3, [r7, #24]
 907 01ba DA61     		str	r2, [r3, #28]
 233:C:/Users/dtjld/Desktop/AIoT_software/LiteOS_Lab_overseas/LiteOS_Lab/iot_link/network/lwm2m/wakaama_lwm2m/core\observe.c ****         memcpy(watcherP->token, message->token, message->token_len);
 908              		.loc 2 233 0
ARM GAS  C:\Users\dtjld\AppData\Local\Temp\ccRVA30A.s 			page 29


 909 01bc BB69     		ldr	r3, [r7, #24]
 910 01be 03F11200 		add	r0, r3, #18
 911 01c2 7B6B     		ldr	r3, [r7, #52]
 912 01c4 03F14D01 		add	r1, r3, #77
 913 01c8 7B6B     		ldr	r3, [r7, #52]
 914 01ca 93F84C30 		ldrb	r3, [r3, #76]	@ zero_extendqisi2
 915 01ce 1A46     		mov	r2, r3
 916 01d0 FFF7FEFF 		bl	memcpy
 234:C:/Users/dtjld/Desktop/AIoT_software/LiteOS_Lab_overseas/LiteOS_Lab/iot_link/network/lwm2m/wakaama_lwm2m/core\observe.c ****         watcherP->active = true;
 917              		.loc 2 234 0
 918 01d4 BB69     		ldr	r3, [r7, #24]
 919 01d6 0122     		movs	r2, #1
 920 01d8 1A71     		strb	r2, [r3, #4]
 235:C:/Users/dtjld/Desktop/AIoT_software/LiteOS_Lab_overseas/LiteOS_Lab/iot_link/network/lwm2m/wakaama_lwm2m/core\observe.c ****         watcherP->lastTime = lwm2m_gettime();
 921              		.loc 2 235 0
 922 01da FFF7FEFF 		bl	lwm2m_gettime
 923 01de 0346     		mov	r3, r0
 924 01e0 0C46     		mov	r4, r1
 925 01e2 BA69     		ldr	r2, [r7, #24]
 926 01e4 C2E90834 		strd	r3, [r2, #32]
 236:C:/Users/dtjld/Desktop/AIoT_software/LiteOS_Lab_overseas/LiteOS_Lab/iot_link/network/lwm2m/wakaama_lwm2m/core\observe.c ****         watcherP->lastMid = response->mid;
 927              		.loc 2 236 0
 928 01e8 BB6B     		ldr	r3, [r7, #56]
 929 01ea 1A89     		ldrh	r2, [r3, #8]
 930 01ec BB69     		ldr	r3, [r7, #24]
 931 01ee 9A85     		strh	r2, [r3, #44]	@ movhi
 237:C:/Users/dtjld/Desktop/AIoT_software/LiteOS_Lab_overseas/LiteOS_Lab/iot_link/network/lwm2m/wakaama_lwm2m/core\observe.c ****         if (IS_OPTION(message, COAP_OPTION_ACCEPT))
 932              		.loc 2 237 0
 933 01f0 7B6B     		ldr	r3, [r7, #52]
 934 01f2 1B7B     		ldrb	r3, [r3, #12]	@ zero_extendqisi2
 935 01f4 03F00203 		and	r3, r3, #2
 936 01f8 002B     		cmp	r3, #0
 937 01fa 0AD0     		beq	.L73
 238:C:/Users/dtjld/Desktop/AIoT_software/LiteOS_Lab_overseas/LiteOS_Lab/iot_link/network/lwm2m/wakaama_lwm2m/core\observe.c ****         {
 239:C:/Users/dtjld/Desktop/AIoT_software/LiteOS_Lab_overseas/LiteOS_Lab/iot_link/network/lwm2m/wakaama_lwm2m/core\observe.c ****             watcherP->format = utils_convertMediaType((coap_content_type_t)message->accept[0]);
 938              		.loc 2 239 0
 939 01fc 7B6B     		ldr	r3, [r7, #52]
 940 01fe B3F85630 		ldrh	r3, [r3, #86]
 941 0202 1846     		mov	r0, r3
 942 0204 FFF7FEFF 		bl	utils_convertMediaType
 943 0208 0346     		mov	r3, r0
 944 020a 1A46     		mov	r2, r3
 945 020c BB69     		ldr	r3, [r7, #24]
 946 020e 1A82     		strh	r2, [r3, #16]	@ movhi
 947 0210 03E0     		b	.L74
 948              	.L73:
 240:C:/Users/dtjld/Desktop/AIoT_software/LiteOS_Lab_overseas/LiteOS_Lab/iot_link/network/lwm2m/wakaama_lwm2m/core\observe.c ****         }
 241:C:/Users/dtjld/Desktop/AIoT_software/LiteOS_Lab_overseas/LiteOS_Lab/iot_link/network/lwm2m/wakaama_lwm2m/core\observe.c ****         else
 242:C:/Users/dtjld/Desktop/AIoT_software/LiteOS_Lab_overseas/LiteOS_Lab/iot_link/network/lwm2m/wakaama_lwm2m/core\observe.c ****         {
 243:C:/Users/dtjld/Desktop/AIoT_software/LiteOS_Lab_overseas/LiteOS_Lab/iot_link/network/lwm2m/wakaama_lwm2m/core\observe.c ****             watcherP->format = LWM2M_CONTENT_TLV;
 949              		.loc 2 243 0
 950 0212 BB69     		ldr	r3, [r7, #24]
 951 0214 42F61652 		movw	r2, #11542
 952 0218 1A82     		strh	r2, [r3, #16]	@ movhi
 953              	.L74:
 244:C:/Users/dtjld/Desktop/AIoT_software/LiteOS_Lab_overseas/LiteOS_Lab/iot_link/network/lwm2m/wakaama_lwm2m/core\observe.c ****         }
 245:C:/Users/dtjld/Desktop/AIoT_software/LiteOS_Lab_overseas/LiteOS_Lab/iot_link/network/lwm2m/wakaama_lwm2m/core\observe.c **** 
ARM GAS  C:\Users\dtjld\AppData\Local\Temp\ccRVA30A.s 			page 30


 246:C:/Users/dtjld/Desktop/AIoT_software/LiteOS_Lab_overseas/LiteOS_Lab/iot_link/network/lwm2m/wakaama_lwm2m/core\observe.c ****         if (LWM2M_URI_IS_SET_RESOURCE(uriP))
 954              		.loc 2 246 0
 955 021a BB68     		ldr	r3, [r7, #8]
 956 021c 1B78     		ldrb	r3, [r3]	@ zero_extendqisi2
 957 021e 03F00103 		and	r3, r3, #1
 958 0222 002B     		cmp	r3, #0
 959 0224 1CD0     		beq	.L84
 247:C:/Users/dtjld/Desktop/AIoT_software/LiteOS_Lab_overseas/LiteOS_Lab/iot_link/network/lwm2m/wakaama_lwm2m/core\observe.c ****         {
 248:C:/Users/dtjld/Desktop/AIoT_software/LiteOS_Lab_overseas/LiteOS_Lab/iot_link/network/lwm2m/wakaama_lwm2m/core\observe.c ****             switch (dataP->type)
 960              		.loc 2 248 0
 961 0226 3B6B     		ldr	r3, [r7, #48]
 962 0228 1B78     		ldrb	r3, [r3]	@ zero_extendqisi2
 963 022a 062B     		cmp	r3, #6
 964 022c 02D0     		beq	.L77
 965 022e 072B     		cmp	r3, #7
 966 0230 0BD0     		beq	.L78
 249:C:/Users/dtjld/Desktop/AIoT_software/LiteOS_Lab_overseas/LiteOS_Lab/iot_link/network/lwm2m/wakaama_lwm2m/core\observe.c ****             {
 250:C:/Users/dtjld/Desktop/AIoT_software/LiteOS_Lab_overseas/LiteOS_Lab/iot_link/network/lwm2m/wakaama_lwm2m/core\observe.c ****             case LWM2M_TYPE_INTEGER:
 251:C:/Users/dtjld/Desktop/AIoT_software/LiteOS_Lab_overseas/LiteOS_Lab/iot_link/network/lwm2m/wakaama_lwm2m/core\observe.c ****                 if (1 != lwm2m_data_decode_int(dataP, &(watcherP->lastValue.asInteger))) return COA
 252:C:/Users/dtjld/Desktop/AIoT_software/LiteOS_Lab_overseas/LiteOS_Lab/iot_link/network/lwm2m/wakaama_lwm2m/core\observe.c ****                 break;
 253:C:/Users/dtjld/Desktop/AIoT_software/LiteOS_Lab_overseas/LiteOS_Lab/iot_link/network/lwm2m/wakaama_lwm2m/core\observe.c ****             case LWM2M_TYPE_FLOAT:
 254:C:/Users/dtjld/Desktop/AIoT_software/LiteOS_Lab_overseas/LiteOS_Lab/iot_link/network/lwm2m/wakaama_lwm2m/core\observe.c ****                 if (1 != lwm2m_data_decode_float(dataP, &(watcherP->lastValue.asFloat))) return COA
 255:C:/Users/dtjld/Desktop/AIoT_software/LiteOS_Lab_overseas/LiteOS_Lab/iot_link/network/lwm2m/wakaama_lwm2m/core\observe.c ****                 break;
 256:C:/Users/dtjld/Desktop/AIoT_software/LiteOS_Lab_overseas/LiteOS_Lab/iot_link/network/lwm2m/wakaama_lwm2m/core\observe.c ****             default:
 257:C:/Users/dtjld/Desktop/AIoT_software/LiteOS_Lab_overseas/LiteOS_Lab/iot_link/network/lwm2m/wakaama_lwm2m/core\observe.c ****                 break;
 967              		.loc 2 257 0
 968 0232 1AE0     		b	.L75
 969              	.L77:
 251:C:/Users/dtjld/Desktop/AIoT_software/LiteOS_Lab_overseas/LiteOS_Lab/iot_link/network/lwm2m/wakaama_lwm2m/core\observe.c ****                 break;
 970              		.loc 2 251 0
 971 0234 BB69     		ldr	r3, [r7, #24]
 972 0236 3033     		adds	r3, r3, #48
 973 0238 1946     		mov	r1, r3
 974 023a 386B     		ldr	r0, [r7, #48]
 975 023c FFF7FEFF 		bl	lwm2m_data_decode_int
 976 0240 0346     		mov	r3, r0
 977 0242 012B     		cmp	r3, #1
 978 0244 0ED0     		beq	.L85
 251:C:/Users/dtjld/Desktop/AIoT_software/LiteOS_Lab_overseas/LiteOS_Lab/iot_link/network/lwm2m/wakaama_lwm2m/core\observe.c ****                 break;
 979              		.loc 2 251 0 is_stmt 0 discriminator 1
 980 0246 A023     		movs	r3, #160
 981 0248 35E0     		b	.L82
 982              	.L78:
 254:C:/Users/dtjld/Desktop/AIoT_software/LiteOS_Lab_overseas/LiteOS_Lab/iot_link/network/lwm2m/wakaama_lwm2m/core\observe.c ****                 break;
 983              		.loc 2 254 0 is_stmt 1
 984 024a BB69     		ldr	r3, [r7, #24]
 985 024c 3033     		adds	r3, r3, #48
 986 024e 1946     		mov	r1, r3
 987 0250 386B     		ldr	r0, [r7, #48]
 988 0252 FFF7FEFF 		bl	lwm2m_data_decode_float
 989 0256 0346     		mov	r3, r0
 990 0258 012B     		cmp	r3, #1
 991 025a 05D0     		beq	.L86
 254:C:/Users/dtjld/Desktop/AIoT_software/LiteOS_Lab_overseas/LiteOS_Lab/iot_link/network/lwm2m/wakaama_lwm2m/core\observe.c ****                 break;
 992              		.loc 2 254 0 is_stmt 0 discriminator 1
 993 025c A023     		movs	r3, #160
 994 025e 2AE0     		b	.L82
ARM GAS  C:\Users\dtjld\AppData\Local\Temp\ccRVA30A.s 			page 31


 995              	.L84:
 258:C:/Users/dtjld/Desktop/AIoT_software/LiteOS_Lab_overseas/LiteOS_Lab/iot_link/network/lwm2m/wakaama_lwm2m/core\observe.c ****             }
 259:C:/Users/dtjld/Desktop/AIoT_software/LiteOS_Lab_overseas/LiteOS_Lab/iot_link/network/lwm2m/wakaama_lwm2m/core\observe.c ****         }
 996              		.loc 2 259 0 is_stmt 1
 997 0260 00BF     		nop
 998 0262 02E0     		b	.L75
 999              	.L85:
 252:C:/Users/dtjld/Desktop/AIoT_software/LiteOS_Lab_overseas/LiteOS_Lab/iot_link/network/lwm2m/wakaama_lwm2m/core\observe.c ****             case LWM2M_TYPE_FLOAT:
 1000              		.loc 2 252 0
 1001 0264 00BF     		nop
 1002 0266 00E0     		b	.L75
 1003              	.L86:
 255:C:/Users/dtjld/Desktop/AIoT_software/LiteOS_Lab_overseas/LiteOS_Lab/iot_link/network/lwm2m/wakaama_lwm2m/core\observe.c ****             default:
 1004              		.loc 2 255 0
 1005 0268 00BF     		nop
 1006              	.L75:
 260:C:/Users/dtjld/Desktop/AIoT_software/LiteOS_Lab_overseas/LiteOS_Lab/iot_link/network/lwm2m/wakaama_lwm2m/core\observe.c **** 
 261:C:/Users/dtjld/Desktop/AIoT_software/LiteOS_Lab_overseas/LiteOS_Lab/iot_link/network/lwm2m/wakaama_lwm2m/core\observe.c ****         coap_set_header_observe(response, watcherP->counter++);
 1007              		.loc 2 261 0
 1008 026a BB69     		ldr	r3, [r7, #24]
 1009 026c 9B6A     		ldr	r3, [r3, #40]
 1010 026e 591C     		adds	r1, r3, #1
 1011 0270 BA69     		ldr	r2, [r7, #24]
 1012 0272 9162     		str	r1, [r2, #40]
 1013 0274 1946     		mov	r1, r3
 1014 0276 B86B     		ldr	r0, [r7, #56]
 1015 0278 FFF7FEFF 		bl	coap_set_header_observe
 262:C:/Users/dtjld/Desktop/AIoT_software/LiteOS_Lab_overseas/LiteOS_Lab/iot_link/network/lwm2m/wakaama_lwm2m/core\observe.c **** 
 263:C:/Users/dtjld/Desktop/AIoT_software/LiteOS_Lab_overseas/LiteOS_Lab/iot_link/network/lwm2m/wakaama_lwm2m/core\observe.c ****         return COAP_205_CONTENT;
 1016              		.loc 2 263 0
 1017 027c 4523     		movs	r3, #69
 1018 027e 1AE0     		b	.L82
 1019              	.L68:
 264:C:/Users/dtjld/Desktop/AIoT_software/LiteOS_Lab_overseas/LiteOS_Lab/iot_link/network/lwm2m/wakaama_lwm2m/core\observe.c **** 
 265:C:/Users/dtjld/Desktop/AIoT_software/LiteOS_Lab_overseas/LiteOS_Lab/iot_link/network/lwm2m/wakaama_lwm2m/core\observe.c ****     case 1:
 266:C:/Users/dtjld/Desktop/AIoT_software/LiteOS_Lab_overseas/LiteOS_Lab/iot_link/network/lwm2m/wakaama_lwm2m/core\observe.c ****         // cancellation
 267:C:/Users/dtjld/Desktop/AIoT_software/LiteOS_Lab_overseas/LiteOS_Lab/iot_link/network/lwm2m/wakaama_lwm2m/core\observe.c ****         observedP = prv_findObserved(contextP, uriP);
 1020              		.loc 2 267 0
 1021 0280 B968     		ldr	r1, [r7, #8]
 1022 0282 F868     		ldr	r0, [r7, #12]
 1023 0284 FFF7FEFF 		bl	prv_findObserved
 1024 0288 F861     		str	r0, [r7, #28]
 268:C:/Users/dtjld/Desktop/AIoT_software/LiteOS_Lab_overseas/LiteOS_Lab/iot_link/network/lwm2m/wakaama_lwm2m/core\observe.c ****         if (observedP)
 1025              		.loc 2 268 0
 1026 028a FB69     		ldr	r3, [r7, #28]
 1027 028c 002B     		cmp	r3, #0
 1028 028e 0FD0     		beq	.L81
 269:C:/Users/dtjld/Desktop/AIoT_software/LiteOS_Lab_overseas/LiteOS_Lab/iot_link/network/lwm2m/wakaama_lwm2m/core\observe.c ****         {
 270:C:/Users/dtjld/Desktop/AIoT_software/LiteOS_Lab_overseas/LiteOS_Lab/iot_link/network/lwm2m/wakaama_lwm2m/core\observe.c ****             watcherP = prv_findWatcher(observedP, serverP);
 1029              		.loc 2 270 0
 1030 0290 7968     		ldr	r1, [r7, #4]
 1031 0292 F869     		ldr	r0, [r7, #28]
 1032 0294 FFF7FEFF 		bl	prv_findWatcher
 1033 0298 B861     		str	r0, [r7, #24]
 271:C:/Users/dtjld/Desktop/AIoT_software/LiteOS_Lab_overseas/LiteOS_Lab/iot_link/network/lwm2m/wakaama_lwm2m/core\observe.c ****             if (watcherP)
 1034              		.loc 2 271 0
 1035 029a BB69     		ldr	r3, [r7, #24]
ARM GAS  C:\Users\dtjld\AppData\Local\Temp\ccRVA30A.s 			page 32


 1036 029c 002B     		cmp	r3, #0
 1037 029e 07D0     		beq	.L81
 272:C:/Users/dtjld/Desktop/AIoT_software/LiteOS_Lab_overseas/LiteOS_Lab/iot_link/network/lwm2m/wakaama_lwm2m/core\observe.c ****             {
 273:C:/Users/dtjld/Desktop/AIoT_software/LiteOS_Lab_overseas/LiteOS_Lab/iot_link/network/lwm2m/wakaama_lwm2m/core\observe.c ****                 observe_cancel(contextP, watcherP->lastMid, serverP->sessionH);
 1038              		.loc 2 273 0
 1039 02a0 BB69     		ldr	r3, [r7, #24]
 1040 02a2 998D     		ldrh	r1, [r3, #44]
 1041 02a4 7B68     		ldr	r3, [r7, #4]
 1042 02a6 DB69     		ldr	r3, [r3, #28]
 1043 02a8 1A46     		mov	r2, r3
 1044 02aa F868     		ldr	r0, [r7, #12]
 1045 02ac FFF7FEFF 		bl	observe_cancel
 1046              	.L81:
 274:C:/Users/dtjld/Desktop/AIoT_software/LiteOS_Lab_overseas/LiteOS_Lab/iot_link/network/lwm2m/wakaama_lwm2m/core\observe.c ****             }
 275:C:/Users/dtjld/Desktop/AIoT_software/LiteOS_Lab_overseas/LiteOS_Lab/iot_link/network/lwm2m/wakaama_lwm2m/core\observe.c ****         }
 276:C:/Users/dtjld/Desktop/AIoT_software/LiteOS_Lab_overseas/LiteOS_Lab/iot_link/network/lwm2m/wakaama_lwm2m/core\observe.c ****         return COAP_205_CONTENT;
 1047              		.loc 2 276 0
 1048 02b0 4523     		movs	r3, #69
 1049 02b2 00E0     		b	.L82
 1050              	.L83:
 277:C:/Users/dtjld/Desktop/AIoT_software/LiteOS_Lab_overseas/LiteOS_Lab/iot_link/network/lwm2m/wakaama_lwm2m/core\observe.c **** 
 278:C:/Users/dtjld/Desktop/AIoT_software/LiteOS_Lab_overseas/LiteOS_Lab/iot_link/network/lwm2m/wakaama_lwm2m/core\observe.c ****     default:
 279:C:/Users/dtjld/Desktop/AIoT_software/LiteOS_Lab_overseas/LiteOS_Lab/iot_link/network/lwm2m/wakaama_lwm2m/core\observe.c ****         return COAP_400_BAD_REQUEST;
 1051              		.loc 2 279 0
 1052 02b4 8023     		movs	r3, #128
 1053              	.L82:
 280:C:/Users/dtjld/Desktop/AIoT_software/LiteOS_Lab_overseas/LiteOS_Lab/iot_link/network/lwm2m/wakaama_lwm2m/core\observe.c ****     }
 281:C:/Users/dtjld/Desktop/AIoT_software/LiteOS_Lab_overseas/LiteOS_Lab/iot_link/network/lwm2m/wakaama_lwm2m/core\observe.c **** }
 1054              		.loc 2 281 0 discriminator 1
 1055 02b6 1846     		mov	r0, r3
 1056 02b8 2437     		adds	r7, r7, #36
 1057              	.LCFI38:
 1058              		.cfi_def_cfa_offset 12
 1059 02ba BD46     		mov	sp, r7
 1060              	.LCFI39:
 1061              		.cfi_def_cfa_register 13
 1062              		@ sp needed
 1063 02bc 90BD     		pop	{r4, r7, pc}
 1064              	.L88:
 1065 02be 00BF     		.align	2
 1066              	.L87:
 1067 02c0 00000000 		.word	.LC0
 1068 02c4 10000000 		.word	.LC1
 1069 02c8 18000000 		.word	.LC2
 1070 02cc 2C000000 		.word	.LC3
 1071 02d0 40000000 		.word	.LC4
 1072 02d4 54000000 		.word	.LC5
 1073 02d8 68000000 		.word	.LC6
 1074 02dc 7C000000 		.word	.LC7
 1075 02e0 90000000 		.word	.LC8
 1076 02e4 A4000000 		.word	.LC9
 1077 02e8 C4000000 		.word	.LC10
 1078 02ec DC000000 		.word	.LC11
 1079 02f0 F8000000 		.word	.LC12
 1080 02f4 0C010000 		.word	.LC13
 1081 02f8 20010000 		.word	.LC14
 1082 02fc 34010000 		.word	.LC15
ARM GAS  C:\Users\dtjld\AppData\Local\Temp\ccRVA30A.s 			page 33


 1083 0300 00000000 		.word	__func__.8551
 1084 0304 48010000 		.word	.LC16
 1085 0308 74010000 		.word	.LC17
 1086 030c 84010000 		.word	.LC18
 1087 0310 90010000 		.word	.LC19
 1088 0314 94010000 		.word	.LC20
 1089              		.cfi_endproc
 1090              	.LFE9:
 1092              		.section	.rodata
 1093 0197 00       		.align	2
 1094              	.LC21:
 1095 0198 5B25645D 		.ascii	"[%d][%s:%d] mid: %d\015\012\000"
 1095      5B25733A 
 1095      25645D20 
 1095      6D69643A 
 1095      2025640D 
 1096              		.section	.text.observe_cancel,"ax",%progbits
 1097              		.align	1
 1098              		.global	observe_cancel
 1099              		.syntax unified
 1100              		.thumb
 1101              		.thumb_func
 1102              		.fpu fpv4-sp-d16
 1104              	observe_cancel:
 1105              	.LFB10:
 282:C:/Users/dtjld/Desktop/AIoT_software/LiteOS_Lab_overseas/LiteOS_Lab/iot_link/network/lwm2m/wakaama_lwm2m/core\observe.c **** 
 283:C:/Users/dtjld/Desktop/AIoT_software/LiteOS_Lab_overseas/LiteOS_Lab/iot_link/network/lwm2m/wakaama_lwm2m/core\observe.c **** void observe_cancel(lwm2m_context_t *contextP,
 284:C:/Users/dtjld/Desktop/AIoT_software/LiteOS_Lab_overseas/LiteOS_Lab/iot_link/network/lwm2m/wakaama_lwm2m/core\observe.c ****                     uint16_t mid,
 285:C:/Users/dtjld/Desktop/AIoT_software/LiteOS_Lab_overseas/LiteOS_Lab/iot_link/network/lwm2m/wakaama_lwm2m/core\observe.c ****                     void *fromSessionH)
 286:C:/Users/dtjld/Desktop/AIoT_software/LiteOS_Lab_overseas/LiteOS_Lab/iot_link/network/lwm2m/wakaama_lwm2m/core\observe.c **** {
 1106              		.loc 2 286 0
 1107              		.cfi_startproc
 1108              		@ args = 0, pretend = 0, frame = 32
 1109              		@ frame_needed = 1, uses_anonymous_args = 0
 1110 0000 90B5     		push	{r4, r7, lr}
 1111              	.LCFI40:
 1112              		.cfi_def_cfa_offset 12
 1113              		.cfi_offset 4, -12
 1114              		.cfi_offset 7, -8
 1115              		.cfi_offset 14, -4
 1116 0002 8BB0     		sub	sp, sp, #44
 1117              	.LCFI41:
 1118              		.cfi_def_cfa_offset 56
 1119 0004 02AF     		add	r7, sp, #8
 1120              	.LCFI42:
 1121              		.cfi_def_cfa 7, 48
 1122 0006 F860     		str	r0, [r7, #12]
 1123 0008 0B46     		mov	r3, r1
 1124 000a 7A60     		str	r2, [r7, #4]
 1125 000c 7B81     		strh	r3, [r7, #10]	@ movhi
 287:C:/Users/dtjld/Desktop/AIoT_software/LiteOS_Lab_overseas/LiteOS_Lab/iot_link/network/lwm2m/wakaama_lwm2m/core\observe.c ****     lwm2m_observed_t *observedP;
 288:C:/Users/dtjld/Desktop/AIoT_software/LiteOS_Lab_overseas/LiteOS_Lab/iot_link/network/lwm2m/wakaama_lwm2m/core\observe.c **** 
 289:C:/Users/dtjld/Desktop/AIoT_software/LiteOS_Lab_overseas/LiteOS_Lab/iot_link/network/lwm2m/wakaama_lwm2m/core\observe.c ****     LOG_ARG("mid: %d", mid);
 1126              		.loc 2 289 0
 1127 000e FFF7FEFF 		bl	lwm2m_gettime
 1128 0012 0346     		mov	r3, r0
 1129 0014 0C46     		mov	r4, r1
ARM GAS  C:\Users\dtjld\AppData\Local\Temp\ccRVA30A.s 			page 34


 1130 0016 1946     		mov	r1, r3
 1131 0018 7B89     		ldrh	r3, [r7, #10]
 1132 001a 0093     		str	r3, [sp]
 1133 001c 40F22113 		movw	r3, #289
 1134 0020 434A     		ldr	r2, .L101
 1135 0022 4448     		ldr	r0, .L101+4
 1136 0024 FFF7FEFF 		bl	atiny_printf
 290:C:/Users/dtjld/Desktop/AIoT_software/LiteOS_Lab_overseas/LiteOS_Lab/iot_link/network/lwm2m/wakaama_lwm2m/core\observe.c **** 
 291:C:/Users/dtjld/Desktop/AIoT_software/LiteOS_Lab_overseas/LiteOS_Lab/iot_link/network/lwm2m/wakaama_lwm2m/core\observe.c ****     for (observedP = contextP->observedList;
 1137              		.loc 2 291 0
 1138 0028 FB68     		ldr	r3, [r7, #12]
 1139 002a DB69     		ldr	r3, [r3, #28]
 1140 002c FB61     		str	r3, [r7, #28]
 1141 002e 79E0     		b	.L90
 1142              	.L100:
 1143              	.LBB3:
 292:C:/Users/dtjld/Desktop/AIoT_software/LiteOS_Lab_overseas/LiteOS_Lab/iot_link/network/lwm2m/wakaama_lwm2m/core\observe.c ****             observedP != NULL;
 293:C:/Users/dtjld/Desktop/AIoT_software/LiteOS_Lab_overseas/LiteOS_Lab/iot_link/network/lwm2m/wakaama_lwm2m/core\observe.c ****             observedP = observedP->next)
 294:C:/Users/dtjld/Desktop/AIoT_software/LiteOS_Lab_overseas/LiteOS_Lab/iot_link/network/lwm2m/wakaama_lwm2m/core\observe.c ****     {
 295:C:/Users/dtjld/Desktop/AIoT_software/LiteOS_Lab_overseas/LiteOS_Lab/iot_link/network/lwm2m/wakaama_lwm2m/core\observe.c ****         lwm2m_watcher_t *targetP = NULL;
 1144              		.loc 2 295 0
 1145 0030 0023     		movs	r3, #0
 1146 0032 BB61     		str	r3, [r7, #24]
 296:C:/Users/dtjld/Desktop/AIoT_software/LiteOS_Lab_overseas/LiteOS_Lab/iot_link/network/lwm2m/wakaama_lwm2m/core\observe.c **** 
 297:C:/Users/dtjld/Desktop/AIoT_software/LiteOS_Lab_overseas/LiteOS_Lab/iot_link/network/lwm2m/wakaama_lwm2m/core\observe.c ****         if (observedP->watcherList->lastMid == mid
 1147              		.loc 2 297 0
 1148 0034 FB69     		ldr	r3, [r7, #28]
 1149 0036 DB68     		ldr	r3, [r3, #12]
 1150 0038 9B8D     		ldrh	r3, [r3, #44]
 1151 003a 7A89     		ldrh	r2, [r7, #10]
 1152 003c 9A42     		cmp	r2, r3
 1153 003e 15D1     		bne	.L91
 298:C:/Users/dtjld/Desktop/AIoT_software/LiteOS_Lab_overseas/LiteOS_Lab/iot_link/network/lwm2m/wakaama_lwm2m/core\observe.c ****                 && lwm2m_session_is_equal(observedP->watcherList->server->sessionH, fromSessionH, c
 1154              		.loc 2 298 0
 1155 0040 FB69     		ldr	r3, [r7, #28]
 1156 0042 DB68     		ldr	r3, [r3, #12]
 1157 0044 9B68     		ldr	r3, [r3, #8]
 1158 0046 D869     		ldr	r0, [r3, #28]
 1159 0048 FB68     		ldr	r3, [r7, #12]
 1160 004a 5B6B     		ldr	r3, [r3, #52]
 1161 004c 1A46     		mov	r2, r3
 1162 004e 7968     		ldr	r1, [r7, #4]
 1163 0050 FFF7FEFF 		bl	lwm2m_session_is_equal
 1164 0054 0346     		mov	r3, r0
 1165 0056 002B     		cmp	r3, #0
 1166 0058 08D0     		beq	.L91
 299:C:/Users/dtjld/Desktop/AIoT_software/LiteOS_Lab_overseas/LiteOS_Lab/iot_link/network/lwm2m/wakaama_lwm2m/core\observe.c ****         {
 300:C:/Users/dtjld/Desktop/AIoT_software/LiteOS_Lab_overseas/LiteOS_Lab/iot_link/network/lwm2m/wakaama_lwm2m/core\observe.c ****             targetP = observedP->watcherList;
 1167              		.loc 2 300 0
 1168 005a FB69     		ldr	r3, [r7, #28]
 1169 005c DB68     		ldr	r3, [r3, #12]
 1170 005e BB61     		str	r3, [r7, #24]
 301:C:/Users/dtjld/Desktop/AIoT_software/LiteOS_Lab_overseas/LiteOS_Lab/iot_link/network/lwm2m/wakaama_lwm2m/core\observe.c ****             observedP->watcherList = observedP->watcherList->next;
 1171              		.loc 2 301 0
 1172 0060 FB69     		ldr	r3, [r7, #28]
 1173 0062 DB68     		ldr	r3, [r3, #12]
 1174 0064 1A68     		ldr	r2, [r3]
ARM GAS  C:\Users\dtjld\AppData\Local\Temp\ccRVA30A.s 			page 35


 1175 0066 FB69     		ldr	r3, [r7, #28]
 1176 0068 DA60     		str	r2, [r3, #12]
 1177 006a 2CE0     		b	.L92
 1178              	.L91:
 1179              	.LBB4:
 302:C:/Users/dtjld/Desktop/AIoT_software/LiteOS_Lab_overseas/LiteOS_Lab/iot_link/network/lwm2m/wakaama_lwm2m/core\observe.c ****         }
 303:C:/Users/dtjld/Desktop/AIoT_software/LiteOS_Lab_overseas/LiteOS_Lab/iot_link/network/lwm2m/wakaama_lwm2m/core\observe.c ****         else
 304:C:/Users/dtjld/Desktop/AIoT_software/LiteOS_Lab_overseas/LiteOS_Lab/iot_link/network/lwm2m/wakaama_lwm2m/core\observe.c ****         {
 305:C:/Users/dtjld/Desktop/AIoT_software/LiteOS_Lab_overseas/LiteOS_Lab/iot_link/network/lwm2m/wakaama_lwm2m/core\observe.c ****             lwm2m_watcher_t *parentP;
 306:C:/Users/dtjld/Desktop/AIoT_software/LiteOS_Lab_overseas/LiteOS_Lab/iot_link/network/lwm2m/wakaama_lwm2m/core\observe.c **** 
 307:C:/Users/dtjld/Desktop/AIoT_software/LiteOS_Lab_overseas/LiteOS_Lab/iot_link/network/lwm2m/wakaama_lwm2m/core\observe.c ****             parentP = observedP->watcherList;
 1180              		.loc 2 307 0
 1181 006c FB69     		ldr	r3, [r7, #28]
 1182 006e DB68     		ldr	r3, [r3, #12]
 1183 0070 7B61     		str	r3, [r7, #20]
 308:C:/Users/dtjld/Desktop/AIoT_software/LiteOS_Lab_overseas/LiteOS_Lab/iot_link/network/lwm2m/wakaama_lwm2m/core\observe.c ****             while (parentP->next != NULL
 1184              		.loc 2 308 0
 1185 0072 02E0     		b	.L93
 1186              	.L95:
 309:C:/Users/dtjld/Desktop/AIoT_software/LiteOS_Lab_overseas/LiteOS_Lab/iot_link/network/lwm2m/wakaama_lwm2m/core\observe.c ****                     && (parentP->next->lastMid != mid
 310:C:/Users/dtjld/Desktop/AIoT_software/LiteOS_Lab_overseas/LiteOS_Lab/iot_link/network/lwm2m/wakaama_lwm2m/core\observe.c ****                  || !lwm2m_session_is_equal(parentP->next->server->sessionH, fromSessionH, contextP
 311:C:/Users/dtjld/Desktop/AIoT_software/LiteOS_Lab_overseas/LiteOS_Lab/iot_link/network/lwm2m/wakaama_lwm2m/core\observe.c ****             {
 312:C:/Users/dtjld/Desktop/AIoT_software/LiteOS_Lab_overseas/LiteOS_Lab/iot_link/network/lwm2m/wakaama_lwm2m/core\observe.c ****                 parentP = parentP->next;
 1187              		.loc 2 312 0
 1188 0074 7B69     		ldr	r3, [r7, #20]
 1189 0076 1B68     		ldr	r3, [r3]
 1190 0078 7B61     		str	r3, [r7, #20]
 1191              	.L93:
 308:C:/Users/dtjld/Desktop/AIoT_software/LiteOS_Lab_overseas/LiteOS_Lab/iot_link/network/lwm2m/wakaama_lwm2m/core\observe.c ****             while (parentP->next != NULL
 1192              		.loc 2 308 0
 1193 007a 7B69     		ldr	r3, [r7, #20]
 1194 007c 1B68     		ldr	r3, [r3]
 1195 007e 002B     		cmp	r3, #0
 1196 0080 15D0     		beq	.L94
 309:C:/Users/dtjld/Desktop/AIoT_software/LiteOS_Lab_overseas/LiteOS_Lab/iot_link/network/lwm2m/wakaama_lwm2m/core\observe.c ****                     && (parentP->next->lastMid != mid
 1197              		.loc 2 309 0
 1198 0082 7B69     		ldr	r3, [r7, #20]
 1199 0084 1B68     		ldr	r3, [r3]
 1200 0086 9B8D     		ldrh	r3, [r3, #44]
 1201 0088 7A89     		ldrh	r2, [r7, #10]
 1202 008a 9A42     		cmp	r2, r3
 1203 008c F2D1     		bne	.L95
 310:C:/Users/dtjld/Desktop/AIoT_software/LiteOS_Lab_overseas/LiteOS_Lab/iot_link/network/lwm2m/wakaama_lwm2m/core\observe.c ****             {
 1204              		.loc 2 310 0
 1205 008e 7B69     		ldr	r3, [r7, #20]
 1206 0090 1B68     		ldr	r3, [r3]
 1207 0092 9B68     		ldr	r3, [r3, #8]
 1208 0094 D869     		ldr	r0, [r3, #28]
 1209 0096 FB68     		ldr	r3, [r7, #12]
 1210 0098 5B6B     		ldr	r3, [r3, #52]
 1211 009a 1A46     		mov	r2, r3
 1212 009c 7968     		ldr	r1, [r7, #4]
 1213 009e FFF7FEFF 		bl	lwm2m_session_is_equal
 1214 00a2 0346     		mov	r3, r0
 1215 00a4 83F00103 		eor	r3, r3, #1
 1216 00a8 DBB2     		uxtb	r3, r3
 1217 00aa 002B     		cmp	r3, #0
ARM GAS  C:\Users\dtjld\AppData\Local\Temp\ccRVA30A.s 			page 36


 1218 00ac E2D1     		bne	.L95
 1219              	.L94:
 313:C:/Users/dtjld/Desktop/AIoT_software/LiteOS_Lab_overseas/LiteOS_Lab/iot_link/network/lwm2m/wakaama_lwm2m/core\observe.c ****             }
 314:C:/Users/dtjld/Desktop/AIoT_software/LiteOS_Lab_overseas/LiteOS_Lab/iot_link/network/lwm2m/wakaama_lwm2m/core\observe.c ****             if (parentP->next != NULL)
 1220              		.loc 2 314 0
 1221 00ae 7B69     		ldr	r3, [r7, #20]
 1222 00b0 1B68     		ldr	r3, [r3]
 1223 00b2 002B     		cmp	r3, #0
 1224 00b4 07D0     		beq	.L92
 315:C:/Users/dtjld/Desktop/AIoT_software/LiteOS_Lab_overseas/LiteOS_Lab/iot_link/network/lwm2m/wakaama_lwm2m/core\observe.c ****             {
 316:C:/Users/dtjld/Desktop/AIoT_software/LiteOS_Lab_overseas/LiteOS_Lab/iot_link/network/lwm2m/wakaama_lwm2m/core\observe.c ****                 targetP = parentP->next;
 1225              		.loc 2 316 0
 1226 00b6 7B69     		ldr	r3, [r7, #20]
 1227 00b8 1B68     		ldr	r3, [r3]
 1228 00ba BB61     		str	r3, [r7, #24]
 317:C:/Users/dtjld/Desktop/AIoT_software/LiteOS_Lab_overseas/LiteOS_Lab/iot_link/network/lwm2m/wakaama_lwm2m/core\observe.c ****                 parentP->next = parentP->next->next;
 1229              		.loc 2 317 0
 1230 00bc 7B69     		ldr	r3, [r7, #20]
 1231 00be 1B68     		ldr	r3, [r3]
 1232 00c0 1A68     		ldr	r2, [r3]
 1233 00c2 7B69     		ldr	r3, [r7, #20]
 1234 00c4 1A60     		str	r2, [r3]
 1235              	.L92:
 1236              	.LBE4:
 318:C:/Users/dtjld/Desktop/AIoT_software/LiteOS_Lab_overseas/LiteOS_Lab/iot_link/network/lwm2m/wakaama_lwm2m/core\observe.c ****             }
 319:C:/Users/dtjld/Desktop/AIoT_software/LiteOS_Lab_overseas/LiteOS_Lab/iot_link/network/lwm2m/wakaama_lwm2m/core\observe.c ****         }
 320:C:/Users/dtjld/Desktop/AIoT_software/LiteOS_Lab_overseas/LiteOS_Lab/iot_link/network/lwm2m/wakaama_lwm2m/core\observe.c ****         if (targetP != NULL)
 1237              		.loc 2 320 0
 1238 00c6 BB69     		ldr	r3, [r7, #24]
 1239 00c8 002B     		cmp	r3, #0
 1240 00ca 28D0     		beq	.L96
 321:C:/Users/dtjld/Desktop/AIoT_software/LiteOS_Lab_overseas/LiteOS_Lab/iot_link/network/lwm2m/wakaama_lwm2m/core\observe.c ****         {
 322:C:/Users/dtjld/Desktop/AIoT_software/LiteOS_Lab_overseas/LiteOS_Lab/iot_link/network/lwm2m/wakaama_lwm2m/core\observe.c ****             osal_mutex_lock(contextP->observe_mutex);
 1241              		.loc 2 322 0
 1242 00cc FB68     		ldr	r3, [r7, #12]
 1243 00ce 1B6A     		ldr	r3, [r3, #32]
 1244 00d0 1846     		mov	r0, r3
 1245 00d2 FFF7FEFF 		bl	osal_mutex_lock
 323:C:/Users/dtjld/Desktop/AIoT_software/LiteOS_Lab_overseas/LiteOS_Lab/iot_link/network/lwm2m/wakaama_lwm2m/core\observe.c ****             lwm2m_notify_even(MODULE_URI, OBSERVE_UNSUBSCRIBE, (char *) & (observedP->uri), sizeof(
 1246              		.loc 2 323 0
 1247 00d6 FB69     		ldr	r3, [r7, #28]
 1248 00d8 1A1D     		adds	r2, r3, #4
 1249 00da 0823     		movs	r3, #8
 1250 00dc 0021     		movs	r1, #0
 1251 00de 0220     		movs	r0, #2
 1252 00e0 FFF7FEFF 		bl	lwm2m_notify_even
 324:C:/Users/dtjld/Desktop/AIoT_software/LiteOS_Lab_overseas/LiteOS_Lab/iot_link/network/lwm2m/wakaama_lwm2m/core\observe.c ****             if (targetP->parameters != NULL) lwm2m_free(targetP->parameters);
 1253              		.loc 2 324 0
 1254 00e4 BB69     		ldr	r3, [r7, #24]
 1255 00e6 DB68     		ldr	r3, [r3, #12]
 1256 00e8 002B     		cmp	r3, #0
 1257 00ea 04D0     		beq	.L97
 1258              		.loc 2 324 0 is_stmt 0 discriminator 1
 1259 00ec BB69     		ldr	r3, [r7, #24]
 1260 00ee DB68     		ldr	r3, [r3, #12]
 1261 00f0 1846     		mov	r0, r3
 1262 00f2 FFF7FEFF 		bl	lwm2m_free
ARM GAS  C:\Users\dtjld\AppData\Local\Temp\ccRVA30A.s 			page 37


 1263              	.L97:
 325:C:/Users/dtjld/Desktop/AIoT_software/LiteOS_Lab_overseas/LiteOS_Lab/iot_link/network/lwm2m/wakaama_lwm2m/core\observe.c ****             lwm2m_free(targetP);
 1264              		.loc 2 325 0 is_stmt 1
 1265 00f6 B869     		ldr	r0, [r7, #24]
 1266 00f8 FFF7FEFF 		bl	lwm2m_free
 326:C:/Users/dtjld/Desktop/AIoT_software/LiteOS_Lab_overseas/LiteOS_Lab/iot_link/network/lwm2m/wakaama_lwm2m/core\observe.c ****             if (observedP->watcherList == NULL)
 1267              		.loc 2 326 0
 1268 00fc FB69     		ldr	r3, [r7, #28]
 1269 00fe DB68     		ldr	r3, [r3, #12]
 1270 0100 002B     		cmp	r3, #0
 1271 0102 06D1     		bne	.L98
 327:C:/Users/dtjld/Desktop/AIoT_software/LiteOS_Lab_overseas/LiteOS_Lab/iot_link/network/lwm2m/wakaama_lwm2m/core\observe.c ****             {
 328:C:/Users/dtjld/Desktop/AIoT_software/LiteOS_Lab_overseas/LiteOS_Lab/iot_link/network/lwm2m/wakaama_lwm2m/core\observe.c ****                 prv_unlinkObserved(contextP, observedP);
 1272              		.loc 2 328 0
 1273 0104 F969     		ldr	r1, [r7, #28]
 1274 0106 F868     		ldr	r0, [r7, #12]
 1275 0108 FFF7FEFF 		bl	prv_unlinkObserved
 329:C:/Users/dtjld/Desktop/AIoT_software/LiteOS_Lab_overseas/LiteOS_Lab/iot_link/network/lwm2m/wakaama_lwm2m/core\observe.c ****                 lwm2m_free(observedP);
 1276              		.loc 2 329 0
 1277 010c F869     		ldr	r0, [r7, #28]
 1278 010e FFF7FEFF 		bl	lwm2m_free
 1279              	.L98:
 330:C:/Users/dtjld/Desktop/AIoT_software/LiteOS_Lab_overseas/LiteOS_Lab/iot_link/network/lwm2m/wakaama_lwm2m/core\observe.c ****             }
 331:C:/Users/dtjld/Desktop/AIoT_software/LiteOS_Lab_overseas/LiteOS_Lab/iot_link/network/lwm2m/wakaama_lwm2m/core\observe.c ****             osal_mutex_unlock(contextP->observe_mutex);
 1280              		.loc 2 331 0
 1281 0112 FB68     		ldr	r3, [r7, #12]
 1282 0114 1B6A     		ldr	r3, [r3, #32]
 1283 0116 1846     		mov	r0, r3
 1284 0118 FFF7FEFF 		bl	osal_mutex_unlock
 332:C:/Users/dtjld/Desktop/AIoT_software/LiteOS_Lab_overseas/LiteOS_Lab/iot_link/network/lwm2m/wakaama_lwm2m/core\observe.c ****             return;
 1285              		.loc 2 332 0
 1286 011c 05E0     		b	.L89
 1287              	.L96:
 1288              	.LBE3:
 293:C:/Users/dtjld/Desktop/AIoT_software/LiteOS_Lab_overseas/LiteOS_Lab/iot_link/network/lwm2m/wakaama_lwm2m/core\observe.c ****     {
 1289              		.loc 2 293 0
 1290 011e FB69     		ldr	r3, [r7, #28]
 1291 0120 1B68     		ldr	r3, [r3]
 1292 0122 FB61     		str	r3, [r7, #28]
 1293              	.L90:
 291:C:/Users/dtjld/Desktop/AIoT_software/LiteOS_Lab_overseas/LiteOS_Lab/iot_link/network/lwm2m/wakaama_lwm2m/core\observe.c ****             observedP != NULL;
 1294              		.loc 2 291 0 discriminator 1
 1295 0124 FB69     		ldr	r3, [r7, #28]
 1296 0126 002B     		cmp	r3, #0
 1297 0128 82D1     		bne	.L100
 1298              	.L89:
 333:C:/Users/dtjld/Desktop/AIoT_software/LiteOS_Lab_overseas/LiteOS_Lab/iot_link/network/lwm2m/wakaama_lwm2m/core\observe.c ****         }
 334:C:/Users/dtjld/Desktop/AIoT_software/LiteOS_Lab_overseas/LiteOS_Lab/iot_link/network/lwm2m/wakaama_lwm2m/core\observe.c ****     }
 335:C:/Users/dtjld/Desktop/AIoT_software/LiteOS_Lab_overseas/LiteOS_Lab/iot_link/network/lwm2m/wakaama_lwm2m/core\observe.c **** }
 1299              		.loc 2 335 0
 1300 012a 2437     		adds	r7, r7, #36
 1301              	.LCFI43:
 1302              		.cfi_def_cfa_offset 12
 1303 012c BD46     		mov	sp, r7
 1304              	.LCFI44:
 1305              		.cfi_def_cfa_register 13
 1306              		@ sp needed
ARM GAS  C:\Users\dtjld\AppData\Local\Temp\ccRVA30A.s 			page 38


 1307 012e 90BD     		pop	{r4, r7, pc}
 1308              	.L102:
 1309              		.align	2
 1310              	.L101:
 1311 0130 00000000 		.word	__func__.8565
 1312 0134 98010000 		.word	.LC21
 1313              		.cfi_endproc
 1314              	.LFE10:
 1316              		.section	.text.observe_clear,"ax",%progbits
 1317              		.align	1
 1318              		.global	observe_clear
 1319              		.syntax unified
 1320              		.thumb
 1321              		.thumb_func
 1322              		.fpu fpv4-sp-d16
 1324              	observe_clear:
 1325              	.LFB11:
 336:C:/Users/dtjld/Desktop/AIoT_software/LiteOS_Lab_overseas/LiteOS_Lab/iot_link/network/lwm2m/wakaama_lwm2m/core\observe.c **** 
 337:C:/Users/dtjld/Desktop/AIoT_software/LiteOS_Lab_overseas/LiteOS_Lab/iot_link/network/lwm2m/wakaama_lwm2m/core\observe.c **** void observe_clear(lwm2m_context_t *contextP,
 338:C:/Users/dtjld/Desktop/AIoT_software/LiteOS_Lab_overseas/LiteOS_Lab/iot_link/network/lwm2m/wakaama_lwm2m/core\observe.c ****                    lwm2m_uri_t *uriP)
 339:C:/Users/dtjld/Desktop/AIoT_software/LiteOS_Lab_overseas/LiteOS_Lab/iot_link/network/lwm2m/wakaama_lwm2m/core\observe.c **** {
 1326              		.loc 2 339 0
 1327              		.cfi_startproc
 1328              		@ args = 0, pretend = 0, frame = 24
 1329              		@ frame_needed = 1, uses_anonymous_args = 0
 1330 0000 80B5     		push	{r7, lr}
 1331              	.LCFI45:
 1332              		.cfi_def_cfa_offset 8
 1333              		.cfi_offset 7, -8
 1334              		.cfi_offset 14, -4
 1335 0002 86B0     		sub	sp, sp, #24
 1336              	.LCFI46:
 1337              		.cfi_def_cfa_offset 32
 1338 0004 00AF     		add	r7, sp, #0
 1339              	.LCFI47:
 1340              		.cfi_def_cfa_register 7
 1341 0006 7860     		str	r0, [r7, #4]
 1342 0008 3960     		str	r1, [r7]
 340:C:/Users/dtjld/Desktop/AIoT_software/LiteOS_Lab_overseas/LiteOS_Lab/iot_link/network/lwm2m/wakaama_lwm2m/core\observe.c ****     lwm2m_observed_t *observedP;
 341:C:/Users/dtjld/Desktop/AIoT_software/LiteOS_Lab_overseas/LiteOS_Lab/iot_link/network/lwm2m/wakaama_lwm2m/core\observe.c **** 
 342:C:/Users/dtjld/Desktop/AIoT_software/LiteOS_Lab_overseas/LiteOS_Lab/iot_link/network/lwm2m/wakaama_lwm2m/core\observe.c ****     LOG_URI(uriP);
 1343              		.loc 2 342 0
 1344 000a 3B68     		ldr	r3, [r7]
 1345 000c 002B     		cmp	r3, #0
 1346 000e 06D1     		bne	.L104
 1347              		.loc 2 342 0 is_stmt 0 discriminator 1
 1348 0010 4FF4AB72 		mov	r2, #342
 1349 0014 3B49     		ldr	r1, .L115
 1350 0016 3C48     		ldr	r0, .L115+4
 1351 0018 FFF7FEFF 		bl	atiny_printf
 1352 001c 22E0     		b	.L105
 1353              	.L104:
 1354              		.loc 2 342 0 discriminator 2
 1355 001e 3B68     		ldr	r3, [r7]
 1356 0020 5B88     		ldrh	r3, [r3, #2]
 1357 0022 4FF4AB72 		mov	r2, #342
 1358 0026 3749     		ldr	r1, .L115
ARM GAS  C:\Users\dtjld\AppData\Local\Temp\ccRVA30A.s 			page 39


 1359 0028 3848     		ldr	r0, .L115+8
 1360 002a FFF7FEFF 		bl	atiny_printf
 1361 002e 3B68     		ldr	r3, [r7]
 1362 0030 1B78     		ldrb	r3, [r3]	@ zero_extendqisi2
 1363 0032 03F00203 		and	r3, r3, #2
 1364 0036 002B     		cmp	r3, #0
 1365 0038 05D0     		beq	.L106
 1366              		.loc 2 342 0 discriminator 3
 1367 003a 3B68     		ldr	r3, [r7]
 1368 003c 9B88     		ldrh	r3, [r3, #4]
 1369 003e 1946     		mov	r1, r3
 1370 0040 3348     		ldr	r0, .L115+12
 1371 0042 FFF7FEFF 		bl	atiny_printf
 1372              	.L106:
 1373              		.loc 2 342 0 discriminator 5
 1374 0046 3B68     		ldr	r3, [r7]
 1375 0048 1B78     		ldrb	r3, [r3]	@ zero_extendqisi2
 1376 004a 03F00103 		and	r3, r3, #1
 1377 004e 002B     		cmp	r3, #0
 1378 0050 05D0     		beq	.L107
 1379              		.loc 2 342 0 discriminator 6
 1380 0052 3B68     		ldr	r3, [r7]
 1381 0054 DB88     		ldrh	r3, [r3, #6]
 1382 0056 1946     		mov	r1, r3
 1383 0058 2D48     		ldr	r0, .L115+12
 1384 005a FFF7FEFF 		bl	atiny_printf
 1385              	.L107:
 1386              		.loc 2 342 0 discriminator 8
 1387 005e 2D48     		ldr	r0, .L115+16
 1388 0060 FFF7FEFF 		bl	atiny_printf
 1389              	.L105:
 343:C:/Users/dtjld/Desktop/AIoT_software/LiteOS_Lab_overseas/LiteOS_Lab/iot_link/network/lwm2m/wakaama_lwm2m/core\observe.c **** 
 344:C:/Users/dtjld/Desktop/AIoT_software/LiteOS_Lab_overseas/LiteOS_Lab/iot_link/network/lwm2m/wakaama_lwm2m/core\observe.c ****     observedP = contextP->observedList;
 1390              		.loc 2 344 0 is_stmt 1
 1391 0064 7B68     		ldr	r3, [r7, #4]
 1392 0066 DB69     		ldr	r3, [r3, #28]
 1393 0068 7B61     		str	r3, [r7, #20]
 345:C:/Users/dtjld/Desktop/AIoT_software/LiteOS_Lab_overseas/LiteOS_Lab/iot_link/network/lwm2m/wakaama_lwm2m/core\observe.c ****     while(observedP != NULL)
 1394              		.loc 2 345 0
 1395 006a 43E0     		b	.L108
 1396              	.L114:
 346:C:/Users/dtjld/Desktop/AIoT_software/LiteOS_Lab_overseas/LiteOS_Lab/iot_link/network/lwm2m/wakaama_lwm2m/core\observe.c ****     {
 347:C:/Users/dtjld/Desktop/AIoT_software/LiteOS_Lab_overseas/LiteOS_Lab/iot_link/network/lwm2m/wakaama_lwm2m/core\observe.c ****         if (observedP->uri.objectId == uriP->objectId
 1397              		.loc 2 347 0
 1398 006c 7B69     		ldr	r3, [r7, #20]
 1399 006e DA88     		ldrh	r2, [r3, #6]
 1400 0070 3B68     		ldr	r3, [r7]
 1401 0072 5B88     		ldrh	r3, [r3, #2]
 1402 0074 9A42     		cmp	r2, r3
 1403 0076 3AD1     		bne	.L109
 348:C:/Users/dtjld/Desktop/AIoT_software/LiteOS_Lab_overseas/LiteOS_Lab/iot_link/network/lwm2m/wakaama_lwm2m/core\observe.c ****                 && (LWM2M_URI_IS_SET_INSTANCE(uriP) == false
 1404              		.loc 2 348 0
 1405 0078 3B68     		ldr	r3, [r7]
 1406 007a 1B78     		ldrb	r3, [r3]	@ zero_extendqisi2
 1407 007c 03F00203 		and	r3, r3, #2
 1408 0080 002B     		cmp	r3, #0
 1409 0082 05D0     		beq	.L110
ARM GAS  C:\Users\dtjld\AppData\Local\Temp\ccRVA30A.s 			page 40


 349:C:/Users/dtjld/Desktop/AIoT_software/LiteOS_Lab_overseas/LiteOS_Lab/iot_link/network/lwm2m/wakaama_lwm2m/core\observe.c ****                     || observedP->uri.instanceId == uriP->instanceId))
 1410              		.loc 2 349 0
 1411 0084 7B69     		ldr	r3, [r7, #20]
 1412 0086 1A89     		ldrh	r2, [r3, #8]
 1413 0088 3B68     		ldr	r3, [r7]
 1414 008a 9B88     		ldrh	r3, [r3, #4]
 1415 008c 9A42     		cmp	r2, r3
 1416 008e 2ED1     		bne	.L109
 1417              	.L110:
 1418              	.LBB5:
 350:C:/Users/dtjld/Desktop/AIoT_software/LiteOS_Lab_overseas/LiteOS_Lab/iot_link/network/lwm2m/wakaama_lwm2m/core\observe.c ****         {
 351:C:/Users/dtjld/Desktop/AIoT_software/LiteOS_Lab_overseas/LiteOS_Lab/iot_link/network/lwm2m/wakaama_lwm2m/core\observe.c ****             lwm2m_observed_t *nextP;
 352:C:/Users/dtjld/Desktop/AIoT_software/LiteOS_Lab_overseas/LiteOS_Lab/iot_link/network/lwm2m/wakaama_lwm2m/core\observe.c ****             lwm2m_watcher_t *watcherP;
 353:C:/Users/dtjld/Desktop/AIoT_software/LiteOS_Lab_overseas/LiteOS_Lab/iot_link/network/lwm2m/wakaama_lwm2m/core\observe.c **** 
 354:C:/Users/dtjld/Desktop/AIoT_software/LiteOS_Lab_overseas/LiteOS_Lab/iot_link/network/lwm2m/wakaama_lwm2m/core\observe.c ****             osal_mutex_lock(contextP->observe_mutex);
 1419              		.loc 2 354 0
 1420 0090 7B68     		ldr	r3, [r7, #4]
 1421 0092 1B6A     		ldr	r3, [r3, #32]
 1422 0094 1846     		mov	r0, r3
 1423 0096 FFF7FEFF 		bl	osal_mutex_lock
 355:C:/Users/dtjld/Desktop/AIoT_software/LiteOS_Lab_overseas/LiteOS_Lab/iot_link/network/lwm2m/wakaama_lwm2m/core\observe.c ****             nextP = observedP->next;
 1424              		.loc 2 355 0
 1425 009a 7B69     		ldr	r3, [r7, #20]
 1426 009c 1B68     		ldr	r3, [r3]
 1427 009e FB60     		str	r3, [r7, #12]
 356:C:/Users/dtjld/Desktop/AIoT_software/LiteOS_Lab_overseas/LiteOS_Lab/iot_link/network/lwm2m/wakaama_lwm2m/core\observe.c **** 
 357:C:/Users/dtjld/Desktop/AIoT_software/LiteOS_Lab_overseas/LiteOS_Lab/iot_link/network/lwm2m/wakaama_lwm2m/core\observe.c ****             for (watcherP = observedP->watcherList; watcherP != NULL; watcherP = watcherP->next)
 1428              		.loc 2 357 0
 1429 00a0 7B69     		ldr	r3, [r7, #20]
 1430 00a2 DB68     		ldr	r3, [r3, #12]
 1431 00a4 3B61     		str	r3, [r7, #16]
 1432 00a6 0BE0     		b	.L111
 1433              	.L113:
 358:C:/Users/dtjld/Desktop/AIoT_software/LiteOS_Lab_overseas/LiteOS_Lab/iot_link/network/lwm2m/wakaama_lwm2m/core\observe.c ****             {
 359:C:/Users/dtjld/Desktop/AIoT_software/LiteOS_Lab_overseas/LiteOS_Lab/iot_link/network/lwm2m/wakaama_lwm2m/core\observe.c ****                 if (watcherP->parameters != NULL) lwm2m_free(watcherP->parameters);
 1434              		.loc 2 359 0
 1435 00a8 3B69     		ldr	r3, [r7, #16]
 1436 00aa DB68     		ldr	r3, [r3, #12]
 1437 00ac 002B     		cmp	r3, #0
 1438 00ae 04D0     		beq	.L112
 1439              		.loc 2 359 0 is_stmt 0 discriminator 1
 1440 00b0 3B69     		ldr	r3, [r7, #16]
 1441 00b2 DB68     		ldr	r3, [r3, #12]
 1442 00b4 1846     		mov	r0, r3
 1443 00b6 FFF7FEFF 		bl	lwm2m_free
 1444              	.L112:
 357:C:/Users/dtjld/Desktop/AIoT_software/LiteOS_Lab_overseas/LiteOS_Lab/iot_link/network/lwm2m/wakaama_lwm2m/core\observe.c ****             {
 1445              		.loc 2 357 0 is_stmt 1 discriminator 2
 1446 00ba 3B69     		ldr	r3, [r7, #16]
 1447 00bc 1B68     		ldr	r3, [r3]
 1448 00be 3B61     		str	r3, [r7, #16]
 1449              	.L111:
 357:C:/Users/dtjld/Desktop/AIoT_software/LiteOS_Lab_overseas/LiteOS_Lab/iot_link/network/lwm2m/wakaama_lwm2m/core\observe.c ****             {
 1450              		.loc 2 357 0 is_stmt 0 discriminator 1
 1451 00c0 3B69     		ldr	r3, [r7, #16]
 1452 00c2 002B     		cmp	r3, #0
 1453 00c4 F0D1     		bne	.L113
ARM GAS  C:\Users\dtjld\AppData\Local\Temp\ccRVA30A.s 			page 41


 360:C:/Users/dtjld/Desktop/AIoT_software/LiteOS_Lab_overseas/LiteOS_Lab/iot_link/network/lwm2m/wakaama_lwm2m/core\observe.c ****             }
 361:C:/Users/dtjld/Desktop/AIoT_software/LiteOS_Lab_overseas/LiteOS_Lab/iot_link/network/lwm2m/wakaama_lwm2m/core\observe.c ****             LWM2M_LIST_FREE(observedP->watcherList);
 1454              		.loc 2 361 0 is_stmt 1
 1455 00c6 7B69     		ldr	r3, [r7, #20]
 1456 00c8 DB68     		ldr	r3, [r3, #12]
 1457 00ca 1846     		mov	r0, r3
 1458 00cc FFF7FEFF 		bl	lwm2m_list_free
 362:C:/Users/dtjld/Desktop/AIoT_software/LiteOS_Lab_overseas/LiteOS_Lab/iot_link/network/lwm2m/wakaama_lwm2m/core\observe.c **** 
 363:C:/Users/dtjld/Desktop/AIoT_software/LiteOS_Lab_overseas/LiteOS_Lab/iot_link/network/lwm2m/wakaama_lwm2m/core\observe.c ****             prv_unlinkObserved(contextP, observedP);
 1459              		.loc 2 363 0
 1460 00d0 7969     		ldr	r1, [r7, #20]
 1461 00d2 7868     		ldr	r0, [r7, #4]
 1462 00d4 FFF7FEFF 		bl	prv_unlinkObserved
 364:C:/Users/dtjld/Desktop/AIoT_software/LiteOS_Lab_overseas/LiteOS_Lab/iot_link/network/lwm2m/wakaama_lwm2m/core\observe.c ****             lwm2m_free(observedP);
 1463              		.loc 2 364 0
 1464 00d8 7869     		ldr	r0, [r7, #20]
 1465 00da FFF7FEFF 		bl	lwm2m_free
 365:C:/Users/dtjld/Desktop/AIoT_software/LiteOS_Lab_overseas/LiteOS_Lab/iot_link/network/lwm2m/wakaama_lwm2m/core\observe.c **** 
 366:C:/Users/dtjld/Desktop/AIoT_software/LiteOS_Lab_overseas/LiteOS_Lab/iot_link/network/lwm2m/wakaama_lwm2m/core\observe.c ****             observedP = nextP;
 1466              		.loc 2 366 0
 1467 00de FB68     		ldr	r3, [r7, #12]
 1468 00e0 7B61     		str	r3, [r7, #20]
 367:C:/Users/dtjld/Desktop/AIoT_software/LiteOS_Lab_overseas/LiteOS_Lab/iot_link/network/lwm2m/wakaama_lwm2m/core\observe.c ****             osal_mutex_unlock(contextP->observe_mutex);
 1469              		.loc 2 367 0
 1470 00e2 7B68     		ldr	r3, [r7, #4]
 1471 00e4 1B6A     		ldr	r3, [r3, #32]
 1472 00e6 1846     		mov	r0, r3
 1473 00e8 FFF7FEFF 		bl	osal_mutex_unlock
 1474              	.LBE5:
 350:C:/Users/dtjld/Desktop/AIoT_software/LiteOS_Lab_overseas/LiteOS_Lab/iot_link/network/lwm2m/wakaama_lwm2m/core\observe.c ****             lwm2m_observed_t *nextP;
 1475              		.loc 2 350 0
 1476 00ec 02E0     		b	.L108
 1477              	.L109:
 368:C:/Users/dtjld/Desktop/AIoT_software/LiteOS_Lab_overseas/LiteOS_Lab/iot_link/network/lwm2m/wakaama_lwm2m/core\observe.c ****         }
 369:C:/Users/dtjld/Desktop/AIoT_software/LiteOS_Lab_overseas/LiteOS_Lab/iot_link/network/lwm2m/wakaama_lwm2m/core\observe.c ****         else
 370:C:/Users/dtjld/Desktop/AIoT_software/LiteOS_Lab_overseas/LiteOS_Lab/iot_link/network/lwm2m/wakaama_lwm2m/core\observe.c ****         {
 371:C:/Users/dtjld/Desktop/AIoT_software/LiteOS_Lab_overseas/LiteOS_Lab/iot_link/network/lwm2m/wakaama_lwm2m/core\observe.c ****             observedP = observedP->next;
 1478              		.loc 2 371 0
 1479 00ee 7B69     		ldr	r3, [r7, #20]
 1480 00f0 1B68     		ldr	r3, [r3]
 1481 00f2 7B61     		str	r3, [r7, #20]
 1482              	.L108:
 345:C:/Users/dtjld/Desktop/AIoT_software/LiteOS_Lab_overseas/LiteOS_Lab/iot_link/network/lwm2m/wakaama_lwm2m/core\observe.c ****     {
 1483              		.loc 2 345 0
 1484 00f4 7B69     		ldr	r3, [r7, #20]
 1485 00f6 002B     		cmp	r3, #0
 1486 00f8 B8D1     		bne	.L114
 372:C:/Users/dtjld/Desktop/AIoT_software/LiteOS_Lab_overseas/LiteOS_Lab/iot_link/network/lwm2m/wakaama_lwm2m/core\observe.c ****         }
 373:C:/Users/dtjld/Desktop/AIoT_software/LiteOS_Lab_overseas/LiteOS_Lab/iot_link/network/lwm2m/wakaama_lwm2m/core\observe.c ****     }
 374:C:/Users/dtjld/Desktop/AIoT_software/LiteOS_Lab_overseas/LiteOS_Lab/iot_link/network/lwm2m/wakaama_lwm2m/core\observe.c **** }
 1487              		.loc 2 374 0
 1488 00fa 00BF     		nop
 1489 00fc 1837     		adds	r7, r7, #24
 1490              	.LCFI48:
 1491              		.cfi_def_cfa_offset 8
 1492 00fe BD46     		mov	sp, r7
 1493              	.LCFI49:
ARM GAS  C:\Users\dtjld\AppData\Local\Temp\ccRVA30A.s 			page 42


 1494              		.cfi_def_cfa_register 13
 1495              		@ sp needed
 1496 0100 80BD     		pop	{r7, pc}
 1497              	.L116:
 1498 0102 00BF     		.align	2
 1499              	.L115:
 1500 0104 00000000 		.word	__func__.8579
 1501 0108 74010000 		.word	.LC17
 1502 010c 84010000 		.word	.LC18
 1503 0110 90010000 		.word	.LC19
 1504 0114 94010000 		.word	.LC20
 1505              		.cfi_endproc
 1506              	.LFE11:
 1508              		.section	.rodata
 1509 01ae 0000     		.align	2
 1510              	.LC22:
 1511 01b0 5B25645D 		.ascii	"[%d][%s:%d] toSet: %08X, toClear: %08X, minPeriod: "
 1511      5B25733A 
 1511      25645D20 
 1511      746F5365 
 1511      743A2025 
 1512 01e3 25642C20 		.ascii	"%d, maxPeriod: %d, greaterThan: %f, lessThan: %f, s"
 1512      6D617850 
 1512      6572696F 
 1512      643A2025 
 1512      642C2067 
 1513 0216 7465703A 		.ascii	"tep: %f\015\012\000"
 1513      2025660D 
 1513      0A00
 1514              		.global	__aeabi_d2f
 1515              		.align	2
 1516              	.LC23:
 1517 0220 5B25645D 		.ascii	"[%d][%s:%d] Final toSet: %08X, minPeriod: %d, maxPe"
 1517      5B25733A 
 1517      25645D20 
 1517      46696E61 
 1517      6C20746F 
 1518 0253 72696F64 		.ascii	"riod: %d, greaterThan: %f, lessThan: %f, step: %f\015"
 1518      3A202564 
 1518      2C206772 
 1518      65617465 
 1518      72546861 
 1519 0285 0A00     		.ascii	"\012\000"
 1520              		.section	.text.observe_setParameters,"ax",%progbits
 1521              		.align	1
 1522              		.global	observe_setParameters
 1523              		.syntax unified
 1524              		.thumb
 1525              		.thumb_func
 1526              		.fpu fpv4-sp-d16
 1528              	observe_setParameters:
 1529              	.LFB12:
 375:C:/Users/dtjld/Desktop/AIoT_software/LiteOS_Lab_overseas/LiteOS_Lab/iot_link/network/lwm2m/wakaama_lwm2m/core\observe.c **** 
 376:C:/Users/dtjld/Desktop/AIoT_software/LiteOS_Lab_overseas/LiteOS_Lab/iot_link/network/lwm2m/wakaama_lwm2m/core\observe.c **** uint8_t observe_setParameters(lwm2m_context_t *contextP,
 377:C:/Users/dtjld/Desktop/AIoT_software/LiteOS_Lab_overseas/LiteOS_Lab/iot_link/network/lwm2m/wakaama_lwm2m/core\observe.c ****                               lwm2m_uri_t *uriP,
 378:C:/Users/dtjld/Desktop/AIoT_software/LiteOS_Lab_overseas/LiteOS_Lab/iot_link/network/lwm2m/wakaama_lwm2m/core\observe.c ****                               lwm2m_server_t *serverP,
 379:C:/Users/dtjld/Desktop/AIoT_software/LiteOS_Lab_overseas/LiteOS_Lab/iot_link/network/lwm2m/wakaama_lwm2m/core\observe.c ****                               lwm2m_attributes_t *attrP)
ARM GAS  C:\Users\dtjld\AppData\Local\Temp\ccRVA30A.s 			page 43


 380:C:/Users/dtjld/Desktop/AIoT_software/LiteOS_Lab_overseas/LiteOS_Lab/iot_link/network/lwm2m/wakaama_lwm2m/core\observe.c **** {
 1530              		.loc 2 380 0
 1531              		.cfi_startproc
 1532              		@ args = 0, pretend = 0, frame = 56
 1533              		@ frame_needed = 1, uses_anonymous_args = 0
 1534 0000 F0B5     		push	{r4, r5, r6, r7, lr}
 1535              	.LCFI50:
 1536              		.cfi_def_cfa_offset 20
 1537              		.cfi_offset 4, -20
 1538              		.cfi_offset 5, -16
 1539              		.cfi_offset 6, -12
 1540              		.cfi_offset 7, -8
 1541              		.cfi_offset 14, -4
 1542 0002 99B0     		sub	sp, sp, #100
 1543              	.LCFI51:
 1544              		.cfi_def_cfa_offset 120
 1545 0004 0AAF     		add	r7, sp, #40
 1546              	.LCFI52:
 1547              		.cfi_def_cfa 7, 80
 1548 0006 F861     		str	r0, [r7, #28]
 1549 0008 B961     		str	r1, [r7, #24]
 1550 000a 7A61     		str	r2, [r7, #20]
 1551 000c 3B61     		str	r3, [r7, #16]
 381:C:/Users/dtjld/Desktop/AIoT_software/LiteOS_Lab_overseas/LiteOS_Lab/iot_link/network/lwm2m/wakaama_lwm2m/core\observe.c ****     uint8_t result;
 382:C:/Users/dtjld/Desktop/AIoT_software/LiteOS_Lab_overseas/LiteOS_Lab/iot_link/network/lwm2m/wakaama_lwm2m/core\observe.c ****     lwm2m_watcher_t *watcherP;
 383:C:/Users/dtjld/Desktop/AIoT_software/LiteOS_Lab_overseas/LiteOS_Lab/iot_link/network/lwm2m/wakaama_lwm2m/core\observe.c **** 
 384:C:/Users/dtjld/Desktop/AIoT_software/LiteOS_Lab_overseas/LiteOS_Lab/iot_link/network/lwm2m/wakaama_lwm2m/core\observe.c ****     LOG_URI(uriP);
 1552              		.loc 2 384 0
 1553 000e BB69     		ldr	r3, [r7, #24]
 1554 0010 002B     		cmp	r3, #0
 1555 0012 06D1     		bne	.L118
 1556              		.loc 2 384 0 is_stmt 0 discriminator 1
 1557 0014 4FF4C072 		mov	r2, #384
 1558 0018 8F49     		ldr	r1, .L146
 1559 001a 9048     		ldr	r0, .L146+4
 1560 001c FFF7FEFF 		bl	atiny_printf
 1561 0020 22E0     		b	.L119
 1562              	.L118:
 1563              		.loc 2 384 0 discriminator 2
 1564 0022 BB69     		ldr	r3, [r7, #24]
 1565 0024 5B88     		ldrh	r3, [r3, #2]
 1566 0026 4FF4C072 		mov	r2, #384
 1567 002a 8B49     		ldr	r1, .L146
 1568 002c 8C48     		ldr	r0, .L146+8
 1569 002e FFF7FEFF 		bl	atiny_printf
 1570 0032 BB69     		ldr	r3, [r7, #24]
 1571 0034 1B78     		ldrb	r3, [r3]	@ zero_extendqisi2
 1572 0036 03F00203 		and	r3, r3, #2
 1573 003a 002B     		cmp	r3, #0
 1574 003c 05D0     		beq	.L120
 1575              		.loc 2 384 0 discriminator 3
 1576 003e BB69     		ldr	r3, [r7, #24]
 1577 0040 9B88     		ldrh	r3, [r3, #4]
 1578 0042 1946     		mov	r1, r3
 1579 0044 8748     		ldr	r0, .L146+12
 1580 0046 FFF7FEFF 		bl	atiny_printf
 1581              	.L120:
ARM GAS  C:\Users\dtjld\AppData\Local\Temp\ccRVA30A.s 			page 44


 1582              		.loc 2 384 0 discriminator 5
 1583 004a BB69     		ldr	r3, [r7, #24]
 1584 004c 1B78     		ldrb	r3, [r3]	@ zero_extendqisi2
 1585 004e 03F00103 		and	r3, r3, #1
 1586 0052 002B     		cmp	r3, #0
 1587 0054 05D0     		beq	.L121
 1588              		.loc 2 384 0 discriminator 6
 1589 0056 BB69     		ldr	r3, [r7, #24]
 1590 0058 DB88     		ldrh	r3, [r3, #6]
 1591 005a 1946     		mov	r1, r3
 1592 005c 8148     		ldr	r0, .L146+12
 1593 005e FFF7FEFF 		bl	atiny_printf
 1594              	.L121:
 1595              		.loc 2 384 0 discriminator 8
 1596 0062 8148     		ldr	r0, .L146+16
 1597 0064 FFF7FEFF 		bl	atiny_printf
 1598              	.L119:
 385:C:/Users/dtjld/Desktop/AIoT_software/LiteOS_Lab_overseas/LiteOS_Lab/iot_link/network/lwm2m/wakaama_lwm2m/core\observe.c ****     LOG_ARG("toSet: %08X, toClear: %08X, minPeriod: %d, maxPeriod: %d, greaterThan: %f, lessThan: %
 1599              		.loc 2 385 0 is_stmt 1
 1600 0068 FFF7FEFF 		bl	lwm2m_gettime
 1601 006c 0346     		mov	r3, r0
 1602 006e 0C46     		mov	r4, r1
 1603 0070 9C46     		mov	ip, r3
 1604 0072 3B69     		ldr	r3, [r7, #16]
 1605 0074 1B78     		ldrb	r3, [r3]	@ zero_extendqisi2
 1606 0076 FB60     		str	r3, [r7, #12]
 1607 0078 3B69     		ldr	r3, [r7, #16]
 1608 007a 5B78     		ldrb	r3, [r3, #1]	@ zero_extendqisi2
 1609 007c BB60     		str	r3, [r7, #8]
 1610 007e 3B69     		ldr	r3, [r7, #16]
 1611 0080 5868     		ldr	r0, [r3, #4]
 1612 0082 3B69     		ldr	r3, [r7, #16]
 1613 0084 9A68     		ldr	r2, [r3, #8]
 1614 0086 7A60     		str	r2, [r7, #4]
 1615 0088 3B69     		ldr	r3, [r7, #16]
 1616 008a D3E90434 		ldrd	r3, [r3, #16]
 1617 008e 3A69     		ldr	r2, [r7, #16]
 1618 0090 D2E90612 		ldrd	r1, [r2, #24]
 1619 0094 3D69     		ldr	r5, [r7, #16]
 1620 0096 D5E90856 		ldrd	r5, [r5, #32]
 1621 009a CDE90856 		strd	r5, [sp, #32]
 1622 009e CDE90612 		strd	r1, [sp, #24]
 1623 00a2 CDE90434 		strd	r3, [sp, #16]
 1624 00a6 7A68     		ldr	r2, [r7, #4]
 1625 00a8 0392     		str	r2, [sp, #12]
 1626 00aa 0290     		str	r0, [sp, #8]
 1627 00ac BA68     		ldr	r2, [r7, #8]
 1628 00ae 0192     		str	r2, [sp, #4]
 1629 00b0 FB68     		ldr	r3, [r7, #12]
 1630 00b2 0093     		str	r3, [sp]
 1631 00b4 4FF4C173 		mov	r3, #386
 1632 00b8 674A     		ldr	r2, .L146
 1633 00ba 6146     		mov	r1, ip
 1634 00bc 6B48     		ldr	r0, .L146+20
 1635 00be FFF7FEFF 		bl	atiny_printf
 386:C:/Users/dtjld/Desktop/AIoT_software/LiteOS_Lab_overseas/LiteOS_Lab/iot_link/network/lwm2m/wakaama_lwm2m/core\observe.c ****             attrP->toSet, attrP->toClear, attrP->minPeriod, attrP->maxPeriod, attrP->greaterThan, a
 387:C:/Users/dtjld/Desktop/AIoT_software/LiteOS_Lab_overseas/LiteOS_Lab/iot_link/network/lwm2m/wakaama_lwm2m/core\observe.c **** 
ARM GAS  C:\Users\dtjld\AppData\Local\Temp\ccRVA30A.s 			page 45


 388:C:/Users/dtjld/Desktop/AIoT_software/LiteOS_Lab_overseas/LiteOS_Lab/iot_link/network/lwm2m/wakaama_lwm2m/core\observe.c ****     if (!LWM2M_URI_IS_SET_INSTANCE(uriP) && LWM2M_URI_IS_SET_RESOURCE(uriP)) return COAP_400_BAD_RE
 1636              		.loc 2 388 0
 1637 00c2 BB69     		ldr	r3, [r7, #24]
 1638 00c4 1B78     		ldrb	r3, [r3]	@ zero_extendqisi2
 1639 00c6 03F00203 		and	r3, r3, #2
 1640 00ca 002B     		cmp	r3, #0
 1641 00cc 07D1     		bne	.L122
 1642              		.loc 2 388 0 is_stmt 0 discriminator 1
 1643 00ce BB69     		ldr	r3, [r7, #24]
 1644 00d0 1B78     		ldrb	r3, [r3]	@ zero_extendqisi2
 1645 00d2 03F00103 		and	r3, r3, #1
 1646 00d6 002B     		cmp	r3, #0
 1647 00d8 01D0     		beq	.L122
 1648              		.loc 2 388 0 discriminator 2
 1649 00da 8023     		movs	r3, #128
 1650 00dc 43E1     		b	.L123
 1651              	.L122:
 389:C:/Users/dtjld/Desktop/AIoT_software/LiteOS_Lab_overseas/LiteOS_Lab/iot_link/network/lwm2m/wakaama_lwm2m/core\observe.c **** 
 390:C:/Users/dtjld/Desktop/AIoT_software/LiteOS_Lab_overseas/LiteOS_Lab/iot_link/network/lwm2m/wakaama_lwm2m/core\observe.c ****     result = object_checkReadable(contextP, uriP);
 1652              		.loc 2 390 0 is_stmt 1
 1653 00de B969     		ldr	r1, [r7, #24]
 1654 00e0 F869     		ldr	r0, [r7, #28]
 1655 00e2 FFF7FEFF 		bl	object_checkReadable
 1656 00e6 0346     		mov	r3, r0
 1657 00e8 87F82B30 		strb	r3, [r7, #43]
 391:C:/Users/dtjld/Desktop/AIoT_software/LiteOS_Lab_overseas/LiteOS_Lab/iot_link/network/lwm2m/wakaama_lwm2m/core\observe.c ****     if (COAP_205_CONTENT != result) return result;
 1658              		.loc 2 391 0
 1659 00ec 97F82B30 		ldrb	r3, [r7, #43]	@ zero_extendqisi2
 1660 00f0 452B     		cmp	r3, #69
 1661 00f2 02D0     		beq	.L124
 1662              		.loc 2 391 0 is_stmt 0 discriminator 1
 1663 00f4 97F82B30 		ldrb	r3, [r7, #43]	@ zero_extendqisi2
 1664 00f8 35E1     		b	.L123
 1665              	.L124:
 392:C:/Users/dtjld/Desktop/AIoT_software/LiteOS_Lab_overseas/LiteOS_Lab/iot_link/network/lwm2m/wakaama_lwm2m/core\observe.c **** 
 393:C:/Users/dtjld/Desktop/AIoT_software/LiteOS_Lab_overseas/LiteOS_Lab/iot_link/network/lwm2m/wakaama_lwm2m/core\observe.c ****     if (0 != (attrP->toSet & ATTR_FLAG_NUMERIC))
 1666              		.loc 2 393 0 is_stmt 1
 1667 00fa 3B69     		ldr	r3, [r7, #16]
 1668 00fc 1B78     		ldrb	r3, [r3]	@ zero_extendqisi2
 1669 00fe 03F01C03 		and	r3, r3, #28
 1670 0102 002B     		cmp	r3, #0
 1671 0104 0DD0     		beq	.L125
 394:C:/Users/dtjld/Desktop/AIoT_software/LiteOS_Lab_overseas/LiteOS_Lab/iot_link/network/lwm2m/wakaama_lwm2m/core\observe.c ****     {
 395:C:/Users/dtjld/Desktop/AIoT_software/LiteOS_Lab_overseas/LiteOS_Lab/iot_link/network/lwm2m/wakaama_lwm2m/core\observe.c ****         result = object_checkNumeric(contextP, uriP);
 1672              		.loc 2 395 0
 1673 0106 B969     		ldr	r1, [r7, #24]
 1674 0108 F869     		ldr	r0, [r7, #28]
 1675 010a FFF7FEFF 		bl	object_checkNumeric
 1676 010e 0346     		mov	r3, r0
 1677 0110 87F82B30 		strb	r3, [r7, #43]
 396:C:/Users/dtjld/Desktop/AIoT_software/LiteOS_Lab_overseas/LiteOS_Lab/iot_link/network/lwm2m/wakaama_lwm2m/core\observe.c ****         if (COAP_205_CONTENT != result) return result;
 1678              		.loc 2 396 0
 1679 0114 97F82B30 		ldrb	r3, [r7, #43]	@ zero_extendqisi2
 1680 0118 452B     		cmp	r3, #69
 1681 011a 02D0     		beq	.L125
 1682              		.loc 2 396 0 is_stmt 0 discriminator 1
 1683 011c 97F82B30 		ldrb	r3, [r7, #43]	@ zero_extendqisi2
ARM GAS  C:\Users\dtjld\AppData\Local\Temp\ccRVA30A.s 			page 46


 1684 0120 21E1     		b	.L123
 1685              	.L125:
 397:C:/Users/dtjld/Desktop/AIoT_software/LiteOS_Lab_overseas/LiteOS_Lab/iot_link/network/lwm2m/wakaama_lwm2m/core\observe.c ****     }
 398:C:/Users/dtjld/Desktop/AIoT_software/LiteOS_Lab_overseas/LiteOS_Lab/iot_link/network/lwm2m/wakaama_lwm2m/core\observe.c **** 
 399:C:/Users/dtjld/Desktop/AIoT_software/LiteOS_Lab_overseas/LiteOS_Lab/iot_link/network/lwm2m/wakaama_lwm2m/core\observe.c ****     watcherP = prv_getWatcher(contextP, uriP, serverP);
 1686              		.loc 2 399 0 is_stmt 1
 1687 0122 7A69     		ldr	r2, [r7, #20]
 1688 0124 B969     		ldr	r1, [r7, #24]
 1689 0126 F869     		ldr	r0, [r7, #28]
 1690 0128 FFF7FEFF 		bl	prv_getWatcher
 1691 012c 7862     		str	r0, [r7, #36]
 400:C:/Users/dtjld/Desktop/AIoT_software/LiteOS_Lab_overseas/LiteOS_Lab/iot_link/network/lwm2m/wakaama_lwm2m/core\observe.c ****     if (watcherP == NULL) return COAP_500_INTERNAL_SERVER_ERROR;
 1692              		.loc 2 400 0
 1693 012e 7B6A     		ldr	r3, [r7, #36]
 1694 0130 002B     		cmp	r3, #0
 1695 0132 01D1     		bne	.L126
 1696              		.loc 2 400 0 is_stmt 0 discriminator 1
 1697 0134 A023     		movs	r3, #160
 1698 0136 16E1     		b	.L123
 1699              	.L126:
 401:C:/Users/dtjld/Desktop/AIoT_software/LiteOS_Lab_overseas/LiteOS_Lab/iot_link/network/lwm2m/wakaama_lwm2m/core\observe.c **** 
 402:C:/Users/dtjld/Desktop/AIoT_software/LiteOS_Lab_overseas/LiteOS_Lab/iot_link/network/lwm2m/wakaama_lwm2m/core\observe.c ****     // Check rule lt?value + 2*stp?values < gt?value
 403:C:/Users/dtjld/Desktop/AIoT_software/LiteOS_Lab_overseas/LiteOS_Lab/iot_link/network/lwm2m/wakaama_lwm2m/core\observe.c ****     if ((((attrP->toSet | (watcherP->parameters ? watcherP->parameters->toSet : 0)) & ~attrP->toCle
 1700              		.loc 2 403 0 is_stmt 1
 1701 0138 3B69     		ldr	r3, [r7, #16]
 1702 013a 1B78     		ldrb	r3, [r3]	@ zero_extendqisi2
 1703 013c 1A46     		mov	r2, r3
 1704 013e 7B6A     		ldr	r3, [r7, #36]
 1705 0140 DB68     		ldr	r3, [r3, #12]
 1706 0142 002B     		cmp	r3, #0
 1707 0144 03D0     		beq	.L127
 1708              		.loc 2 403 0 is_stmt 0 discriminator 1
 1709 0146 7B6A     		ldr	r3, [r7, #36]
 1710 0148 DB68     		ldr	r3, [r3, #12]
 1711 014a 1B78     		ldrb	r3, [r3]	@ zero_extendqisi2
 1712 014c 00E0     		b	.L128
 1713              	.L127:
 1714              		.loc 2 403 0 discriminator 2
 1715 014e 0023     		movs	r3, #0
 1716              	.L128:
 1717              		.loc 2 403 0 discriminator 4
 1718 0150 1A43     		orrs	r2, r2, r3
 1719 0152 3B69     		ldr	r3, [r7, #16]
 1720 0154 5B78     		ldrb	r3, [r3, #1]	@ zero_extendqisi2
 1721 0156 DB43     		mvns	r3, r3
 1722 0158 1340     		ands	r3, r3, r2
 1723 015a 03F01C03 		and	r3, r3, #28
 1724 015e 1C2B     		cmp	r3, #28
 1725 0160 5ED1     		bne	.L129
 1726              	.LBB6:
 404:C:/Users/dtjld/Desktop/AIoT_software/LiteOS_Lab_overseas/LiteOS_Lab/iot_link/network/lwm2m/wakaama_lwm2m/core\observe.c ****     {
 405:C:/Users/dtjld/Desktop/AIoT_software/LiteOS_Lab_overseas/LiteOS_Lab/iot_link/network/lwm2m/wakaama_lwm2m/core\observe.c ****         float gt;
 406:C:/Users/dtjld/Desktop/AIoT_software/LiteOS_Lab_overseas/LiteOS_Lab/iot_link/network/lwm2m/wakaama_lwm2m/core\observe.c ****         float lt;
 407:C:/Users/dtjld/Desktop/AIoT_software/LiteOS_Lab_overseas/LiteOS_Lab/iot_link/network/lwm2m/wakaama_lwm2m/core\observe.c ****         float stp;
 408:C:/Users/dtjld/Desktop/AIoT_software/LiteOS_Lab_overseas/LiteOS_Lab/iot_link/network/lwm2m/wakaama_lwm2m/core\observe.c **** 
 409:C:/Users/dtjld/Desktop/AIoT_software/LiteOS_Lab_overseas/LiteOS_Lab/iot_link/network/lwm2m/wakaama_lwm2m/core\observe.c ****         if (0 != (attrP->toSet & LWM2M_ATTR_FLAG_GREATER_THAN))
 1727              		.loc 2 409 0 is_stmt 1
ARM GAS  C:\Users\dtjld\AppData\Local\Temp\ccRVA30A.s 			page 47


 1728 0162 3B69     		ldr	r3, [r7, #16]
 1729 0164 1B78     		ldrb	r3, [r3]	@ zero_extendqisi2
 1730 0166 03F00403 		and	r3, r3, #4
 1731 016a 002B     		cmp	r3, #0
 1732 016c 09D0     		beq	.L130
 410:C:/Users/dtjld/Desktop/AIoT_software/LiteOS_Lab_overseas/LiteOS_Lab/iot_link/network/lwm2m/wakaama_lwm2m/core\observe.c ****         {
 411:C:/Users/dtjld/Desktop/AIoT_software/LiteOS_Lab_overseas/LiteOS_Lab/iot_link/network/lwm2m/wakaama_lwm2m/core\observe.c ****             gt = attrP->greaterThan;
 1733              		.loc 2 411 0
 1734 016e 3B69     		ldr	r3, [r7, #16]
 1735 0170 D3E90434 		ldrd	r3, [r3, #16]
 1736 0174 1846     		mov	r0, r3
 1737 0176 2146     		mov	r1, r4
 1738 0178 FFF7FEFF 		bl	__aeabi_d2f
 1739              	.LVL0:
 1740 017c 0346     		mov	r3, r0	@ float
 1741 017e 7B63     		str	r3, [r7, #52]	@ float
 1742 0180 09E0     		b	.L131
 1743              	.L130:
 412:C:/Users/dtjld/Desktop/AIoT_software/LiteOS_Lab_overseas/LiteOS_Lab/iot_link/network/lwm2m/wakaama_lwm2m/core\observe.c ****         }
 413:C:/Users/dtjld/Desktop/AIoT_software/LiteOS_Lab_overseas/LiteOS_Lab/iot_link/network/lwm2m/wakaama_lwm2m/core\observe.c ****         else
 414:C:/Users/dtjld/Desktop/AIoT_software/LiteOS_Lab_overseas/LiteOS_Lab/iot_link/network/lwm2m/wakaama_lwm2m/core\observe.c ****         {
 415:C:/Users/dtjld/Desktop/AIoT_software/LiteOS_Lab_overseas/LiteOS_Lab/iot_link/network/lwm2m/wakaama_lwm2m/core\observe.c ****             gt = watcherP->parameters->greaterThan;
 1744              		.loc 2 415 0
 1745 0182 7B6A     		ldr	r3, [r7, #36]
 1746 0184 DB68     		ldr	r3, [r3, #12]
 1747 0186 D3E90434 		ldrd	r3, [r3, #16]
 1748 018a 1846     		mov	r0, r3
 1749 018c 2146     		mov	r1, r4
 1750 018e FFF7FEFF 		bl	__aeabi_d2f
 1751              	.LVL1:
 1752 0192 0346     		mov	r3, r0	@ float
 1753 0194 7B63     		str	r3, [r7, #52]	@ float
 1754              	.L131:
 416:C:/Users/dtjld/Desktop/AIoT_software/LiteOS_Lab_overseas/LiteOS_Lab/iot_link/network/lwm2m/wakaama_lwm2m/core\observe.c ****         }
 417:C:/Users/dtjld/Desktop/AIoT_software/LiteOS_Lab_overseas/LiteOS_Lab/iot_link/network/lwm2m/wakaama_lwm2m/core\observe.c ****         if (0 != (attrP->toSet & LWM2M_ATTR_FLAG_LESS_THAN))
 1755              		.loc 2 417 0
 1756 0196 3B69     		ldr	r3, [r7, #16]
 1757 0198 1B78     		ldrb	r3, [r3]	@ zero_extendqisi2
 1758 019a 03F00803 		and	r3, r3, #8
 1759 019e 002B     		cmp	r3, #0
 1760 01a0 09D0     		beq	.L132
 418:C:/Users/dtjld/Desktop/AIoT_software/LiteOS_Lab_overseas/LiteOS_Lab/iot_link/network/lwm2m/wakaama_lwm2m/core\observe.c ****         {
 419:C:/Users/dtjld/Desktop/AIoT_software/LiteOS_Lab_overseas/LiteOS_Lab/iot_link/network/lwm2m/wakaama_lwm2m/core\observe.c ****             lt = attrP->lessThan;
 1761              		.loc 2 419 0
 1762 01a2 3B69     		ldr	r3, [r7, #16]
 1763 01a4 D3E90634 		ldrd	r3, [r3, #24]
 1764 01a8 1846     		mov	r0, r3
 1765 01aa 2146     		mov	r1, r4
 1766 01ac FFF7FEFF 		bl	__aeabi_d2f
 1767              	.LVL2:
 1768 01b0 0346     		mov	r3, r0	@ float
 1769 01b2 3B63     		str	r3, [r7, #48]	@ float
 1770 01b4 09E0     		b	.L133
 1771              	.L132:
 420:C:/Users/dtjld/Desktop/AIoT_software/LiteOS_Lab_overseas/LiteOS_Lab/iot_link/network/lwm2m/wakaama_lwm2m/core\observe.c ****         }
 421:C:/Users/dtjld/Desktop/AIoT_software/LiteOS_Lab_overseas/LiteOS_Lab/iot_link/network/lwm2m/wakaama_lwm2m/core\observe.c ****         else
 422:C:/Users/dtjld/Desktop/AIoT_software/LiteOS_Lab_overseas/LiteOS_Lab/iot_link/network/lwm2m/wakaama_lwm2m/core\observe.c ****         {
ARM GAS  C:\Users\dtjld\AppData\Local\Temp\ccRVA30A.s 			page 48


 423:C:/Users/dtjld/Desktop/AIoT_software/LiteOS_Lab_overseas/LiteOS_Lab/iot_link/network/lwm2m/wakaama_lwm2m/core\observe.c ****             lt = watcherP->parameters->lessThan;
 1772              		.loc 2 423 0
 1773 01b6 7B6A     		ldr	r3, [r7, #36]
 1774 01b8 DB68     		ldr	r3, [r3, #12]
 1775 01ba D3E90634 		ldrd	r3, [r3, #24]
 1776 01be 1846     		mov	r0, r3
 1777 01c0 2146     		mov	r1, r4
 1778 01c2 FFF7FEFF 		bl	__aeabi_d2f
 1779              	.LVL3:
 1780 01c6 0346     		mov	r3, r0	@ float
 1781 01c8 3B63     		str	r3, [r7, #48]	@ float
 1782              	.L133:
 424:C:/Users/dtjld/Desktop/AIoT_software/LiteOS_Lab_overseas/LiteOS_Lab/iot_link/network/lwm2m/wakaama_lwm2m/core\observe.c ****         }
 425:C:/Users/dtjld/Desktop/AIoT_software/LiteOS_Lab_overseas/LiteOS_Lab/iot_link/network/lwm2m/wakaama_lwm2m/core\observe.c ****         if (0 != (attrP->toSet & LWM2M_ATTR_FLAG_STEP))
 1783              		.loc 2 425 0
 1784 01ca 3B69     		ldr	r3, [r7, #16]
 1785 01cc 1B78     		ldrb	r3, [r3]	@ zero_extendqisi2
 1786 01ce 03F01003 		and	r3, r3, #16
 1787 01d2 002B     		cmp	r3, #0
 1788 01d4 09D0     		beq	.L134
 426:C:/Users/dtjld/Desktop/AIoT_software/LiteOS_Lab_overseas/LiteOS_Lab/iot_link/network/lwm2m/wakaama_lwm2m/core\observe.c ****         {
 427:C:/Users/dtjld/Desktop/AIoT_software/LiteOS_Lab_overseas/LiteOS_Lab/iot_link/network/lwm2m/wakaama_lwm2m/core\observe.c ****             stp = attrP->step;
 1789              		.loc 2 427 0
 1790 01d6 3B69     		ldr	r3, [r7, #16]
 1791 01d8 D3E90834 		ldrd	r3, [r3, #32]
 1792 01dc 1846     		mov	r0, r3
 1793 01de 2146     		mov	r1, r4
 1794 01e0 FFF7FEFF 		bl	__aeabi_d2f
 1795              	.LVL4:
 1796 01e4 0346     		mov	r3, r0	@ float
 1797 01e6 FB62     		str	r3, [r7, #44]	@ float
 1798 01e8 09E0     		b	.L135
 1799              	.L134:
 428:C:/Users/dtjld/Desktop/AIoT_software/LiteOS_Lab_overseas/LiteOS_Lab/iot_link/network/lwm2m/wakaama_lwm2m/core\observe.c ****         }
 429:C:/Users/dtjld/Desktop/AIoT_software/LiteOS_Lab_overseas/LiteOS_Lab/iot_link/network/lwm2m/wakaama_lwm2m/core\observe.c ****         else
 430:C:/Users/dtjld/Desktop/AIoT_software/LiteOS_Lab_overseas/LiteOS_Lab/iot_link/network/lwm2m/wakaama_lwm2m/core\observe.c ****         {
 431:C:/Users/dtjld/Desktop/AIoT_software/LiteOS_Lab_overseas/LiteOS_Lab/iot_link/network/lwm2m/wakaama_lwm2m/core\observe.c ****             stp = watcherP->parameters->step;
 1800              		.loc 2 431 0
 1801 01ea 7B6A     		ldr	r3, [r7, #36]
 1802 01ec DB68     		ldr	r3, [r3, #12]
 1803 01ee D3E90834 		ldrd	r3, [r3, #32]
 1804 01f2 1846     		mov	r0, r3
 1805 01f4 2146     		mov	r1, r4
 1806 01f6 FFF7FEFF 		bl	__aeabi_d2f
 1807              	.LVL5:
 1808 01fa 0346     		mov	r3, r0	@ float
 1809 01fc FB62     		str	r3, [r7, #44]	@ float
 1810              	.L135:
 432:C:/Users/dtjld/Desktop/AIoT_software/LiteOS_Lab_overseas/LiteOS_Lab/iot_link/network/lwm2m/wakaama_lwm2m/core\observe.c ****         }
 433:C:/Users/dtjld/Desktop/AIoT_software/LiteOS_Lab_overseas/LiteOS_Lab/iot_link/network/lwm2m/wakaama_lwm2m/core\observe.c **** 
 434:C:/Users/dtjld/Desktop/AIoT_software/LiteOS_Lab_overseas/LiteOS_Lab/iot_link/network/lwm2m/wakaama_lwm2m/core\observe.c ****         if (lt + (2 * stp) >= gt) return COAP_400_BAD_REQUEST;
 1811              		.loc 2 434 0
 1812 01fe D7ED0B7A 		vldr.32	s15, [r7, #44]
 1813 0202 37EEA77A 		vadd.f32	s14, s15, s15
 1814 0206 D7ED0C7A 		vldr.32	s15, [r7, #48]
 1815 020a 77EE277A 		vadd.f32	s15, s14, s15
 1816 020e 97ED0D7A 		vldr.32	s14, [r7, #52]
ARM GAS  C:\Users\dtjld\AppData\Local\Temp\ccRVA30A.s 			page 49


 1817 0212 B4EEE77A 		vcmpe.f32	s14, s15
 1818 0216 F1EE10FA 		vmrs	APSR_nzcv, FPSCR
 1819 021a 01D8     		bhi	.L129
 1820              		.loc 2 434 0 is_stmt 0 discriminator 1
 1821 021c 8023     		movs	r3, #128
 1822 021e A2E0     		b	.L123
 1823              	.L129:
 1824              	.LBE6:
 435:C:/Users/dtjld/Desktop/AIoT_software/LiteOS_Lab_overseas/LiteOS_Lab/iot_link/network/lwm2m/wakaama_lwm2m/core\observe.c ****     }
 436:C:/Users/dtjld/Desktop/AIoT_software/LiteOS_Lab_overseas/LiteOS_Lab/iot_link/network/lwm2m/wakaama_lwm2m/core\observe.c **** 
 437:C:/Users/dtjld/Desktop/AIoT_software/LiteOS_Lab_overseas/LiteOS_Lab/iot_link/network/lwm2m/wakaama_lwm2m/core\observe.c ****     if (watcherP->parameters == NULL)
 1825              		.loc 2 437 0 is_stmt 1
 1826 0220 7B6A     		ldr	r3, [r7, #36]
 1827 0222 DB68     		ldr	r3, [r3, #12]
 1828 0224 002B     		cmp	r3, #0
 1829 0226 23D1     		bne	.L137
 438:C:/Users/dtjld/Desktop/AIoT_software/LiteOS_Lab_overseas/LiteOS_Lab/iot_link/network/lwm2m/wakaama_lwm2m/core\observe.c ****     {
 439:C:/Users/dtjld/Desktop/AIoT_software/LiteOS_Lab_overseas/LiteOS_Lab/iot_link/network/lwm2m/wakaama_lwm2m/core\observe.c ****         if (attrP->toSet != 0)
 1830              		.loc 2 439 0
 1831 0228 3B69     		ldr	r3, [r7, #16]
 1832 022a 1B78     		ldrb	r3, [r3]	@ zero_extendqisi2
 1833 022c 002B     		cmp	r3, #0
 1834 022e 6BD0     		beq	.L140
 440:C:/Users/dtjld/Desktop/AIoT_software/LiteOS_Lab_overseas/LiteOS_Lab/iot_link/network/lwm2m/wakaama_lwm2m/core\observe.c ****         {
 441:C:/Users/dtjld/Desktop/AIoT_software/LiteOS_Lab_overseas/LiteOS_Lab/iot_link/network/lwm2m/wakaama_lwm2m/core\observe.c ****             watcherP->parameters = (lwm2m_attributes_t *)lwm2m_malloc(sizeof(lwm2m_attributes_t));
 1835              		.loc 2 441 0
 1836 0230 2820     		movs	r0, #40
 1837 0232 FFF7FEFF 		bl	lwm2m_malloc
 1838 0236 0246     		mov	r2, r0
 1839 0238 7B6A     		ldr	r3, [r7, #36]
 1840 023a DA60     		str	r2, [r3, #12]
 442:C:/Users/dtjld/Desktop/AIoT_software/LiteOS_Lab_overseas/LiteOS_Lab/iot_link/network/lwm2m/wakaama_lwm2m/core\observe.c ****             if (watcherP->parameters == NULL) return COAP_500_INTERNAL_SERVER_ERROR;
 1841              		.loc 2 442 0
 1842 023c 7B6A     		ldr	r3, [r7, #36]
 1843 023e DB68     		ldr	r3, [r3, #12]
 1844 0240 002B     		cmp	r3, #0
 1845 0242 01D1     		bne	.L139
 1846              		.loc 2 442 0 is_stmt 0 discriminator 1
 1847 0244 A023     		movs	r3, #160
 1848 0246 8EE0     		b	.L123
 1849              	.L139:
 443:C:/Users/dtjld/Desktop/AIoT_software/LiteOS_Lab_overseas/LiteOS_Lab/iot_link/network/lwm2m/wakaama_lwm2m/core\observe.c ****             memcpy(watcherP->parameters, attrP, sizeof(lwm2m_attributes_t));
 1850              		.loc 2 443 0 is_stmt 1
 1851 0248 7B6A     		ldr	r3, [r7, #36]
 1852 024a DB68     		ldr	r3, [r3, #12]
 1853 024c 2822     		movs	r2, #40
 1854 024e 3969     		ldr	r1, [r7, #16]
 1855 0250 1846     		mov	r0, r3
 1856 0252 FFF7FEFF 		bl	memcpy
 1857 0256 57E0     		b	.L140
 1858              	.L147:
 1859              		.align	2
 1860              	.L146:
 1861 0258 00000000 		.word	__func__.8596
 1862 025c 74010000 		.word	.LC17
 1863 0260 84010000 		.word	.LC18
 1864 0264 90010000 		.word	.LC19
ARM GAS  C:\Users\dtjld\AppData\Local\Temp\ccRVA30A.s 			page 50


 1865 0268 94010000 		.word	.LC20
 1866 026c B0010000 		.word	.LC22
 1867              	.L137:
 444:C:/Users/dtjld/Desktop/AIoT_software/LiteOS_Lab_overseas/LiteOS_Lab/iot_link/network/lwm2m/wakaama_lwm2m/core\observe.c ****         }
 445:C:/Users/dtjld/Desktop/AIoT_software/LiteOS_Lab_overseas/LiteOS_Lab/iot_link/network/lwm2m/wakaama_lwm2m/core\observe.c ****     }
 446:C:/Users/dtjld/Desktop/AIoT_software/LiteOS_Lab_overseas/LiteOS_Lab/iot_link/network/lwm2m/wakaama_lwm2m/core\observe.c ****     else
 447:C:/Users/dtjld/Desktop/AIoT_software/LiteOS_Lab_overseas/LiteOS_Lab/iot_link/network/lwm2m/wakaama_lwm2m/core\observe.c ****     {
 448:C:/Users/dtjld/Desktop/AIoT_software/LiteOS_Lab_overseas/LiteOS_Lab/iot_link/network/lwm2m/wakaama_lwm2m/core\observe.c ****         watcherP->parameters->toSet &= ~attrP->toClear;
 1868              		.loc 2 448 0
 1869 0270 7B6A     		ldr	r3, [r7, #36]
 1870 0272 DB68     		ldr	r3, [r3, #12]
 1871 0274 1B78     		ldrb	r3, [r3]	@ zero_extendqisi2
 1872 0276 5AB2     		sxtb	r2, r3
 1873 0278 3B69     		ldr	r3, [r7, #16]
 1874 027a 5B78     		ldrb	r3, [r3, #1]	@ zero_extendqisi2
 1875 027c 5BB2     		sxtb	r3, r3
 1876 027e DB43     		mvns	r3, r3
 1877 0280 5BB2     		sxtb	r3, r3
 1878 0282 1340     		ands	r3, r3, r2
 1879 0284 5AB2     		sxtb	r2, r3
 1880 0286 7B6A     		ldr	r3, [r7, #36]
 1881 0288 DB68     		ldr	r3, [r3, #12]
 1882 028a D2B2     		uxtb	r2, r2
 1883 028c 1A70     		strb	r2, [r3]
 449:C:/Users/dtjld/Desktop/AIoT_software/LiteOS_Lab_overseas/LiteOS_Lab/iot_link/network/lwm2m/wakaama_lwm2m/core\observe.c ****         if (attrP->toSet & LWM2M_ATTR_FLAG_MIN_PERIOD)
 1884              		.loc 2 449 0
 1885 028e 3B69     		ldr	r3, [r7, #16]
 1886 0290 1B78     		ldrb	r3, [r3]	@ zero_extendqisi2
 1887 0292 03F00103 		and	r3, r3, #1
 1888 0296 002B     		cmp	r3, #0
 1889 0298 04D0     		beq	.L141
 450:C:/Users/dtjld/Desktop/AIoT_software/LiteOS_Lab_overseas/LiteOS_Lab/iot_link/network/lwm2m/wakaama_lwm2m/core\observe.c ****         {
 451:C:/Users/dtjld/Desktop/AIoT_software/LiteOS_Lab_overseas/LiteOS_Lab/iot_link/network/lwm2m/wakaama_lwm2m/core\observe.c ****             watcherP->parameters->minPeriod = attrP->minPeriod;
 1890              		.loc 2 451 0
 1891 029a 7B6A     		ldr	r3, [r7, #36]
 1892 029c DB68     		ldr	r3, [r3, #12]
 1893 029e 3A69     		ldr	r2, [r7, #16]
 1894 02a0 5268     		ldr	r2, [r2, #4]
 1895 02a2 5A60     		str	r2, [r3, #4]
 1896              	.L141:
 452:C:/Users/dtjld/Desktop/AIoT_software/LiteOS_Lab_overseas/LiteOS_Lab/iot_link/network/lwm2m/wakaama_lwm2m/core\observe.c ****         }
 453:C:/Users/dtjld/Desktop/AIoT_software/LiteOS_Lab_overseas/LiteOS_Lab/iot_link/network/lwm2m/wakaama_lwm2m/core\observe.c ****         if (attrP->toSet & LWM2M_ATTR_FLAG_MAX_PERIOD)
 1897              		.loc 2 453 0
 1898 02a4 3B69     		ldr	r3, [r7, #16]
 1899 02a6 1B78     		ldrb	r3, [r3]	@ zero_extendqisi2
 1900 02a8 03F00203 		and	r3, r3, #2
 1901 02ac 002B     		cmp	r3, #0
 1902 02ae 04D0     		beq	.L142
 454:C:/Users/dtjld/Desktop/AIoT_software/LiteOS_Lab_overseas/LiteOS_Lab/iot_link/network/lwm2m/wakaama_lwm2m/core\observe.c ****         {
 455:C:/Users/dtjld/Desktop/AIoT_software/LiteOS_Lab_overseas/LiteOS_Lab/iot_link/network/lwm2m/wakaama_lwm2m/core\observe.c ****             watcherP->parameters->maxPeriod = attrP->maxPeriod;
 1903              		.loc 2 455 0
 1904 02b0 7B6A     		ldr	r3, [r7, #36]
 1905 02b2 DB68     		ldr	r3, [r3, #12]
 1906 02b4 3A69     		ldr	r2, [r7, #16]
 1907 02b6 9268     		ldr	r2, [r2, #8]
 1908 02b8 9A60     		str	r2, [r3, #8]
 1909              	.L142:
ARM GAS  C:\Users\dtjld\AppData\Local\Temp\ccRVA30A.s 			page 51


 456:C:/Users/dtjld/Desktop/AIoT_software/LiteOS_Lab_overseas/LiteOS_Lab/iot_link/network/lwm2m/wakaama_lwm2m/core\observe.c ****         }
 457:C:/Users/dtjld/Desktop/AIoT_software/LiteOS_Lab_overseas/LiteOS_Lab/iot_link/network/lwm2m/wakaama_lwm2m/core\observe.c ****         if (attrP->toSet & LWM2M_ATTR_FLAG_GREATER_THAN)
 1910              		.loc 2 457 0
 1911 02ba 3B69     		ldr	r3, [r7, #16]
 1912 02bc 1B78     		ldrb	r3, [r3]	@ zero_extendqisi2
 1913 02be 03F00403 		and	r3, r3, #4
 1914 02c2 002B     		cmp	r3, #0
 1915 02c4 06D0     		beq	.L143
 458:C:/Users/dtjld/Desktop/AIoT_software/LiteOS_Lab_overseas/LiteOS_Lab/iot_link/network/lwm2m/wakaama_lwm2m/core\observe.c ****         {
 459:C:/Users/dtjld/Desktop/AIoT_software/LiteOS_Lab_overseas/LiteOS_Lab/iot_link/network/lwm2m/wakaama_lwm2m/core\observe.c ****             watcherP->parameters->greaterThan = attrP->greaterThan;
 1916              		.loc 2 459 0
 1917 02c6 7B6A     		ldr	r3, [r7, #36]
 1918 02c8 DA68     		ldr	r2, [r3, #12]
 1919 02ca 3B69     		ldr	r3, [r7, #16]
 1920 02cc D3E90434 		ldrd	r3, [r3, #16]
 1921 02d0 C2E90434 		strd	r3, [r2, #16]
 1922              	.L143:
 460:C:/Users/dtjld/Desktop/AIoT_software/LiteOS_Lab_overseas/LiteOS_Lab/iot_link/network/lwm2m/wakaama_lwm2m/core\observe.c ****         }
 461:C:/Users/dtjld/Desktop/AIoT_software/LiteOS_Lab_overseas/LiteOS_Lab/iot_link/network/lwm2m/wakaama_lwm2m/core\observe.c ****         if (attrP->toSet & LWM2M_ATTR_FLAG_LESS_THAN)
 1923              		.loc 2 461 0
 1924 02d4 3B69     		ldr	r3, [r7, #16]
 1925 02d6 1B78     		ldrb	r3, [r3]	@ zero_extendqisi2
 1926 02d8 03F00803 		and	r3, r3, #8
 1927 02dc 002B     		cmp	r3, #0
 1928 02de 06D0     		beq	.L144
 462:C:/Users/dtjld/Desktop/AIoT_software/LiteOS_Lab_overseas/LiteOS_Lab/iot_link/network/lwm2m/wakaama_lwm2m/core\observe.c ****         {
 463:C:/Users/dtjld/Desktop/AIoT_software/LiteOS_Lab_overseas/LiteOS_Lab/iot_link/network/lwm2m/wakaama_lwm2m/core\observe.c ****             watcherP->parameters->lessThan = attrP->lessThan;
 1929              		.loc 2 463 0
 1930 02e0 7B6A     		ldr	r3, [r7, #36]
 1931 02e2 DA68     		ldr	r2, [r3, #12]
 1932 02e4 3B69     		ldr	r3, [r7, #16]
 1933 02e6 D3E90634 		ldrd	r3, [r3, #24]
 1934 02ea C2E90634 		strd	r3, [r2, #24]
 1935              	.L144:
 464:C:/Users/dtjld/Desktop/AIoT_software/LiteOS_Lab_overseas/LiteOS_Lab/iot_link/network/lwm2m/wakaama_lwm2m/core\observe.c ****         }
 465:C:/Users/dtjld/Desktop/AIoT_software/LiteOS_Lab_overseas/LiteOS_Lab/iot_link/network/lwm2m/wakaama_lwm2m/core\observe.c ****         if (attrP->toSet & LWM2M_ATTR_FLAG_STEP)
 1936              		.loc 2 465 0
 1937 02ee 3B69     		ldr	r3, [r7, #16]
 1938 02f0 1B78     		ldrb	r3, [r3]	@ zero_extendqisi2
 1939 02f2 03F01003 		and	r3, r3, #16
 1940 02f6 002B     		cmp	r3, #0
 1941 02f8 06D0     		beq	.L140
 466:C:/Users/dtjld/Desktop/AIoT_software/LiteOS_Lab_overseas/LiteOS_Lab/iot_link/network/lwm2m/wakaama_lwm2m/core\observe.c ****         {
 467:C:/Users/dtjld/Desktop/AIoT_software/LiteOS_Lab_overseas/LiteOS_Lab/iot_link/network/lwm2m/wakaama_lwm2m/core\observe.c ****             watcherP->parameters->step = attrP->step;
 1942              		.loc 2 467 0
 1943 02fa 7B6A     		ldr	r3, [r7, #36]
 1944 02fc DA68     		ldr	r2, [r3, #12]
 1945 02fe 3B69     		ldr	r3, [r7, #16]
 1946 0300 D3E90834 		ldrd	r3, [r3, #32]
 1947 0304 C2E90834 		strd	r3, [r2, #32]
 1948              	.L140:
 468:C:/Users/dtjld/Desktop/AIoT_software/LiteOS_Lab_overseas/LiteOS_Lab/iot_link/network/lwm2m/wakaama_lwm2m/core\observe.c ****         }
 469:C:/Users/dtjld/Desktop/AIoT_software/LiteOS_Lab_overseas/LiteOS_Lab/iot_link/network/lwm2m/wakaama_lwm2m/core\observe.c ****     }
 470:C:/Users/dtjld/Desktop/AIoT_software/LiteOS_Lab_overseas/LiteOS_Lab/iot_link/network/lwm2m/wakaama_lwm2m/core\observe.c **** 
 471:C:/Users/dtjld/Desktop/AIoT_software/LiteOS_Lab_overseas/LiteOS_Lab/iot_link/network/lwm2m/wakaama_lwm2m/core\observe.c ****     LOG_ARG("Final toSet: %08X, minPeriod: %d, maxPeriod: %d, greaterThan: %f, lessThan: %f, step: 
 1949              		.loc 2 471 0
 1950 0308 FFF7FEFF 		bl	lwm2m_gettime
ARM GAS  C:\Users\dtjld\AppData\Local\Temp\ccRVA30A.s 			page 52


 1951 030c 0346     		mov	r3, r0
 1952 030e 0C46     		mov	r4, r1
 1953 0310 9C46     		mov	ip, r3
 1954 0312 7B6A     		ldr	r3, [r7, #36]
 1955 0314 DB68     		ldr	r3, [r3, #12]
 1956 0316 1B78     		ldrb	r3, [r3]	@ zero_extendqisi2
 1957 0318 FB60     		str	r3, [r7, #12]
 1958 031a 7B6A     		ldr	r3, [r7, #36]
 1959 031c DB68     		ldr	r3, [r3, #12]
 1960 031e 5868     		ldr	r0, [r3, #4]
 1961 0320 7B6A     		ldr	r3, [r7, #36]
 1962 0322 DB68     		ldr	r3, [r3, #12]
 1963 0324 9A68     		ldr	r2, [r3, #8]
 1964 0326 BA60     		str	r2, [r7, #8]
 1965 0328 7B6A     		ldr	r3, [r7, #36]
 1966 032a DB68     		ldr	r3, [r3, #12]
 1967 032c D3E90434 		ldrd	r3, [r3, #16]
 1968 0330 7A6A     		ldr	r2, [r7, #36]
 1969 0332 D268     		ldr	r2, [r2, #12]
 1970 0334 D2E90612 		ldrd	r1, [r2, #24]
 1971 0338 7D6A     		ldr	r5, [r7, #36]
 1972 033a ED68     		ldr	r5, [r5, #12]
 1973 033c D5E90856 		ldrd	r5, [r5, #32]
 1974 0340 CDE90856 		strd	r5, [sp, #32]
 1975 0344 CDE90612 		strd	r1, [sp, #24]
 1976 0348 CDE90434 		strd	r3, [sp, #16]
 1977 034c BA68     		ldr	r2, [r7, #8]
 1978 034e 0292     		str	r2, [sp, #8]
 1979 0350 0190     		str	r0, [sp, #4]
 1980 0352 FB68     		ldr	r3, [r7, #12]
 1981 0354 0093     		str	r3, [sp]
 1982 0356 4FF4EC73 		mov	r3, #472
 1983 035a 054A     		ldr	r2, .L148
 1984 035c 6146     		mov	r1, ip
 1985 035e 0548     		ldr	r0, .L148+4
 1986 0360 FFF7FEFF 		bl	atiny_printf
 472:C:/Users/dtjld/Desktop/AIoT_software/LiteOS_Lab_overseas/LiteOS_Lab/iot_link/network/lwm2m/wakaama_lwm2m/core\observe.c ****             watcherP->parameters->toSet, watcherP->parameters->minPeriod, watcherP->parameters->max
 473:C:/Users/dtjld/Desktop/AIoT_software/LiteOS_Lab_overseas/LiteOS_Lab/iot_link/network/lwm2m/wakaama_lwm2m/core\observe.c **** 
 474:C:/Users/dtjld/Desktop/AIoT_software/LiteOS_Lab_overseas/LiteOS_Lab/iot_link/network/lwm2m/wakaama_lwm2m/core\observe.c ****     return COAP_204_CHANGED;
 1987              		.loc 2 474 0
 1988 0364 4423     		movs	r3, #68
 1989              	.L123:
 475:C:/Users/dtjld/Desktop/AIoT_software/LiteOS_Lab_overseas/LiteOS_Lab/iot_link/network/lwm2m/wakaama_lwm2m/core\observe.c **** }
 1990              		.loc 2 475 0
 1991 0366 1846     		mov	r0, r3
 1992 0368 3C37     		adds	r7, r7, #60
 1993              	.LCFI53:
 1994              		.cfi_def_cfa_offset 20
 1995 036a BD46     		mov	sp, r7
 1996              	.LCFI54:
 1997              		.cfi_def_cfa_register 13
 1998              		@ sp needed
 1999 036c F0BD     		pop	{r4, r5, r6, r7, pc}
 2000              	.L149:
 2001 036e 00BF     		.align	2
 2002              	.L148:
 2003 0370 00000000 		.word	__func__.8596
ARM GAS  C:\Users\dtjld\AppData\Local\Temp\ccRVA30A.s 			page 53


 2004 0374 20020000 		.word	.LC23
 2005              		.cfi_endproc
 2006              	.LFE12:
 2008              		.section	.rodata
 2009 0287 00       		.align	2
 2010              	.LC24:
 2011 0288 00       		.ascii	"\000"
 2012 0289 000000   		.align	2
 2013              	.LC25:
 2014 028c 206E6F00 		.ascii	" no\000"
 2015              		.align	2
 2016              	.LC26:
 2017 0290 5B25645D 		.ascii	"[%d][%s:%d] Found one with%s observers.\015\012\000"
 2017      5B25733A 
 2017      25645D20 
 2017      466F756E 
 2017      64206F6E 
 2018 02ba 0000     		.align	2
 2019              	.LC27:
 2020 02bc 5B25645D 		.ascii	"[%d][%s:%d] Found nothing\015\012\000"
 2020      5B25733A 
 2020      25645D20 
 2020      466F756E 
 2020      64206E6F 
 2021              		.section	.text.observe_findByUri,"ax",%progbits
 2022              		.align	1
 2023              		.global	observe_findByUri
 2024              		.syntax unified
 2025              		.thumb
 2026              		.thumb_func
 2027              		.fpu fpv4-sp-d16
 2029              	observe_findByUri:
 2030              	.LFB13:
 476:C:/Users/dtjld/Desktop/AIoT_software/LiteOS_Lab_overseas/LiteOS_Lab/iot_link/network/lwm2m/wakaama_lwm2m/core\observe.c **** 
 477:C:/Users/dtjld/Desktop/AIoT_software/LiteOS_Lab_overseas/LiteOS_Lab/iot_link/network/lwm2m/wakaama_lwm2m/core\observe.c **** lwm2m_observed_t *observe_findByUri(lwm2m_context_t *contextP,
 478:C:/Users/dtjld/Desktop/AIoT_software/LiteOS_Lab_overseas/LiteOS_Lab/iot_link/network/lwm2m/wakaama_lwm2m/core\observe.c ****                                     lwm2m_uri_t *uriP)
 479:C:/Users/dtjld/Desktop/AIoT_software/LiteOS_Lab_overseas/LiteOS_Lab/iot_link/network/lwm2m/wakaama_lwm2m/core\observe.c **** {
 2031              		.loc 2 479 0
 2032              		.cfi_startproc
 2033              		@ args = 0, pretend = 0, frame = 16
 2034              		@ frame_needed = 1, uses_anonymous_args = 0
 2035 0000 90B5     		push	{r4, r7, lr}
 2036              	.LCFI55:
 2037              		.cfi_def_cfa_offset 12
 2038              		.cfi_offset 4, -12
 2039              		.cfi_offset 7, -8
 2040              		.cfi_offset 14, -4
 2041 0002 87B0     		sub	sp, sp, #28
 2042              	.LCFI56:
 2043              		.cfi_def_cfa_offset 40
 2044 0004 02AF     		add	r7, sp, #8
 2045              	.LCFI57:
 2046              		.cfi_def_cfa 7, 32
 2047 0006 7860     		str	r0, [r7, #4]
 2048 0008 3960     		str	r1, [r7]
 480:C:/Users/dtjld/Desktop/AIoT_software/LiteOS_Lab_overseas/LiteOS_Lab/iot_link/network/lwm2m/wakaama_lwm2m/core\observe.c ****     lwm2m_observed_t *targetP;
 481:C:/Users/dtjld/Desktop/AIoT_software/LiteOS_Lab_overseas/LiteOS_Lab/iot_link/network/lwm2m/wakaama_lwm2m/core\observe.c **** 
ARM GAS  C:\Users\dtjld\AppData\Local\Temp\ccRVA30A.s 			page 54


 482:C:/Users/dtjld/Desktop/AIoT_software/LiteOS_Lab_overseas/LiteOS_Lab/iot_link/network/lwm2m/wakaama_lwm2m/core\observe.c ****     LOG_URI(uriP);
 2049              		.loc 2 482 0
 2050 000a 3B68     		ldr	r3, [r7]
 2051 000c 002B     		cmp	r3, #0
 2052 000e 06D1     		bne	.L151
 2053              		.loc 2 482 0 is_stmt 0 discriminator 1
 2054 0010 4FF4F172 		mov	r2, #482
 2055 0014 6349     		ldr	r1, .L169
 2056 0016 6448     		ldr	r0, .L169+4
 2057 0018 FFF7FEFF 		bl	atiny_printf
 2058 001c 22E0     		b	.L152
 2059              	.L151:
 2060              		.loc 2 482 0 discriminator 2
 2061 001e 3B68     		ldr	r3, [r7]
 2062 0020 5B88     		ldrh	r3, [r3, #2]
 2063 0022 4FF4F172 		mov	r2, #482
 2064 0026 5F49     		ldr	r1, .L169
 2065 0028 6048     		ldr	r0, .L169+8
 2066 002a FFF7FEFF 		bl	atiny_printf
 2067 002e 3B68     		ldr	r3, [r7]
 2068 0030 1B78     		ldrb	r3, [r3]	@ zero_extendqisi2
 2069 0032 03F00203 		and	r3, r3, #2
 2070 0036 002B     		cmp	r3, #0
 2071 0038 05D0     		beq	.L153
 2072              		.loc 2 482 0 discriminator 3
 2073 003a 3B68     		ldr	r3, [r7]
 2074 003c 9B88     		ldrh	r3, [r3, #4]
 2075 003e 1946     		mov	r1, r3
 2076 0040 5B48     		ldr	r0, .L169+12
 2077 0042 FFF7FEFF 		bl	atiny_printf
 2078              	.L153:
 2079              		.loc 2 482 0 discriminator 5
 2080 0046 3B68     		ldr	r3, [r7]
 2081 0048 1B78     		ldrb	r3, [r3]	@ zero_extendqisi2
 2082 004a 03F00103 		and	r3, r3, #1
 2083 004e 002B     		cmp	r3, #0
 2084 0050 05D0     		beq	.L154
 2085              		.loc 2 482 0 discriminator 6
 2086 0052 3B68     		ldr	r3, [r7]
 2087 0054 DB88     		ldrh	r3, [r3, #6]
 2088 0056 1946     		mov	r1, r3
 2089 0058 5548     		ldr	r0, .L169+12
 2090 005a FFF7FEFF 		bl	atiny_printf
 2091              	.L154:
 2092              		.loc 2 482 0 discriminator 8
 2093 005e 5548     		ldr	r0, .L169+16
 2094 0060 FFF7FEFF 		bl	atiny_printf
 2095              	.L152:
 483:C:/Users/dtjld/Desktop/AIoT_software/LiteOS_Lab_overseas/LiteOS_Lab/iot_link/network/lwm2m/wakaama_lwm2m/core\observe.c ****     targetP = contextP->observedList;
 2096              		.loc 2 483 0 is_stmt 1
 2097 0064 7B68     		ldr	r3, [r7, #4]
 2098 0066 DB69     		ldr	r3, [r3, #28]
 2099 0068 FB60     		str	r3, [r7, #12]
 484:C:/Users/dtjld/Desktop/AIoT_software/LiteOS_Lab_overseas/LiteOS_Lab/iot_link/network/lwm2m/wakaama_lwm2m/core\observe.c ****     while (targetP != NULL)
 2100              		.loc 2 484 0
 2101 006a 87E0     		b	.L155
 2102              	.L168:
ARM GAS  C:\Users\dtjld\AppData\Local\Temp\ccRVA30A.s 			page 55


 485:C:/Users/dtjld/Desktop/AIoT_software/LiteOS_Lab_overseas/LiteOS_Lab/iot_link/network/lwm2m/wakaama_lwm2m/core\observe.c ****     {
 486:C:/Users/dtjld/Desktop/AIoT_software/LiteOS_Lab_overseas/LiteOS_Lab/iot_link/network/lwm2m/wakaama_lwm2m/core\observe.c ****         if (targetP->uri.objectId == uriP->objectId)
 2103              		.loc 2 486 0
 2104 006c FB68     		ldr	r3, [r7, #12]
 2105 006e DA88     		ldrh	r2, [r3, #6]
 2106 0070 3B68     		ldr	r3, [r7]
 2107 0072 5B88     		ldrh	r3, [r3, #2]
 2108 0074 9A42     		cmp	r2, r3
 2109 0076 7ED1     		bne	.L156
 487:C:/Users/dtjld/Desktop/AIoT_software/LiteOS_Lab_overseas/LiteOS_Lab/iot_link/network/lwm2m/wakaama_lwm2m/core\observe.c ****         {
 488:C:/Users/dtjld/Desktop/AIoT_software/LiteOS_Lab_overseas/LiteOS_Lab/iot_link/network/lwm2m/wakaama_lwm2m/core\observe.c ****             if ((!LWM2M_URI_IS_SET_INSTANCE(uriP) && !LWM2M_URI_IS_SET_INSTANCE(&(targetP->uri)))
 2110              		.loc 2 488 0
 2111 0078 3B68     		ldr	r3, [r7]
 2112 007a 1B78     		ldrb	r3, [r3]	@ zero_extendqisi2
 2113 007c 03F00203 		and	r3, r3, #2
 2114 0080 002B     		cmp	r3, #0
 2115 0082 05D1     		bne	.L157
 2116              		.loc 2 488 0 is_stmt 0 discriminator 1
 2117 0084 FB68     		ldr	r3, [r7, #12]
 2118 0086 1B79     		ldrb	r3, [r3, #4]	@ zero_extendqisi2
 2119 0088 03F00203 		and	r3, r3, #2
 2120 008c 002B     		cmp	r3, #0
 2121 008e 11D0     		beq	.L158
 2122              	.L157:
 489:C:/Users/dtjld/Desktop/AIoT_software/LiteOS_Lab_overseas/LiteOS_Lab/iot_link/network/lwm2m/wakaama_lwm2m/core\observe.c ****                     || (LWM2M_URI_IS_SET_INSTANCE(uriP) && LWM2M_URI_IS_SET_INSTANCE(&(targetP->uri
 2123              		.loc 2 489 0 is_stmt 1
 2124 0090 3B68     		ldr	r3, [r7]
 2125 0092 1B78     		ldrb	r3, [r3]	@ zero_extendqisi2
 2126 0094 03F00203 		and	r3, r3, #2
 2127 0098 002B     		cmp	r3, #0
 2128 009a 6CD0     		beq	.L156
 2129              		.loc 2 489 0 is_stmt 0 discriminator 1
 2130 009c FB68     		ldr	r3, [r7, #12]
 2131 009e 1B79     		ldrb	r3, [r3, #4]	@ zero_extendqisi2
 2132 00a0 03F00203 		and	r3, r3, #2
 2133 00a4 002B     		cmp	r3, #0
 2134 00a6 66D0     		beq	.L156
 2135              		.loc 2 489 0 discriminator 2
 2136 00a8 3B68     		ldr	r3, [r7]
 2137 00aa 9A88     		ldrh	r2, [r3, #4]
 2138 00ac FB68     		ldr	r3, [r7, #12]
 2139 00ae 1B89     		ldrh	r3, [r3, #8]
 2140 00b0 9A42     		cmp	r2, r3
 2141 00b2 60D1     		bne	.L156
 2142              	.L158:
 490:C:/Users/dtjld/Desktop/AIoT_software/LiteOS_Lab_overseas/LiteOS_Lab/iot_link/network/lwm2m/wakaama_lwm2m/core\observe.c ****             {
 491:C:/Users/dtjld/Desktop/AIoT_software/LiteOS_Lab_overseas/LiteOS_Lab/iot_link/network/lwm2m/wakaama_lwm2m/core\observe.c ****                 if ((!LWM2M_URI_IS_SET_RESOURCE(uriP) && !LWM2M_URI_IS_SET_RESOURCE(&(targetP->uri)
 2143              		.loc 2 491 0 is_stmt 1
 2144 00b4 3B68     		ldr	r3, [r7]
 2145 00b6 1B78     		ldrb	r3, [r3]	@ zero_extendqisi2
 2146 00b8 03F00103 		and	r3, r3, #1
 2147 00bc 002B     		cmp	r3, #0
 2148 00be 05D1     		bne	.L159
 2149              		.loc 2 491 0 is_stmt 0 discriminator 1
 2150 00c0 FB68     		ldr	r3, [r7, #12]
 2151 00c2 1B79     		ldrb	r3, [r3, #4]	@ zero_extendqisi2
 2152 00c4 03F00103 		and	r3, r3, #1
ARM GAS  C:\Users\dtjld\AppData\Local\Temp\ccRVA30A.s 			page 56


 2153 00c8 002B     		cmp	r3, #0
 2154 00ca 11D0     		beq	.L160
 2155              	.L159:
 492:C:/Users/dtjld/Desktop/AIoT_software/LiteOS_Lab_overseas/LiteOS_Lab/iot_link/network/lwm2m/wakaama_lwm2m/core\observe.c ****                         || (LWM2M_URI_IS_SET_RESOURCE(uriP) && LWM2M_URI_IS_SET_RESOURCE(&(targetP-
 2156              		.loc 2 492 0 is_stmt 1
 2157 00cc 3B68     		ldr	r3, [r7]
 2158 00ce 1B78     		ldrb	r3, [r3]	@ zero_extendqisi2
 2159 00d0 03F00103 		and	r3, r3, #1
 2160 00d4 002B     		cmp	r3, #0
 2161 00d6 4ED0     		beq	.L156
 2162              		.loc 2 492 0 is_stmt 0 discriminator 1
 2163 00d8 FB68     		ldr	r3, [r7, #12]
 2164 00da 1B79     		ldrb	r3, [r3, #4]	@ zero_extendqisi2
 2165 00dc 03F00103 		and	r3, r3, #1
 2166 00e0 002B     		cmp	r3, #0
 2167 00e2 48D0     		beq	.L156
 2168              		.loc 2 492 0 discriminator 2
 2169 00e4 3B68     		ldr	r3, [r7]
 2170 00e6 DA88     		ldrh	r2, [r3, #6]
 2171 00e8 FB68     		ldr	r3, [r7, #12]
 2172 00ea 5B89     		ldrh	r3, [r3, #10]
 2173 00ec 9A42     		cmp	r2, r3
 2174 00ee 42D1     		bne	.L156
 2175              	.L160:
 493:C:/Users/dtjld/Desktop/AIoT_software/LiteOS_Lab_overseas/LiteOS_Lab/iot_link/network/lwm2m/wakaama_lwm2m/core\observe.c ****                 {
 494:C:/Users/dtjld/Desktop/AIoT_software/LiteOS_Lab_overseas/LiteOS_Lab/iot_link/network/lwm2m/wakaama_lwm2m/core\observe.c ****                     LOG_ARG("Found one with%s observers.", targetP->watcherList ? "" : " no");
 2176              		.loc 2 494 0 is_stmt 1
 2177 00f0 FFF7FEFF 		bl	lwm2m_gettime
 2178 00f4 0346     		mov	r3, r0
 2179 00f6 0C46     		mov	r4, r1
 2180 00f8 1946     		mov	r1, r3
 2181 00fa FB68     		ldr	r3, [r7, #12]
 2182 00fc DB68     		ldr	r3, [r3, #12]
 2183 00fe 002B     		cmp	r3, #0
 2184 0100 01D0     		beq	.L161
 2185              		.loc 2 494 0 is_stmt 0 discriminator 1
 2186 0102 2D4B     		ldr	r3, .L169+20
 2187 0104 00E0     		b	.L162
 2188              	.L161:
 2189              		.loc 2 494 0 discriminator 2
 2190 0106 2D4B     		ldr	r3, .L169+24
 2191              	.L162:
 2192              		.loc 2 494 0 discriminator 4
 2193 0108 0093     		str	r3, [sp]
 2194 010a 4FF4F773 		mov	r3, #494
 2195 010e 254A     		ldr	r2, .L169
 2196 0110 2B48     		ldr	r0, .L169+28
 2197 0112 FFF7FEFF 		bl	atiny_printf
 495:C:/Users/dtjld/Desktop/AIoT_software/LiteOS_Lab_overseas/LiteOS_Lab/iot_link/network/lwm2m/wakaama_lwm2m/core\observe.c ****                     LOG_URI(&(targetP->uri));
 2198              		.loc 2 495 0 is_stmt 1 discriminator 4
 2199 0116 FB68     		ldr	r3, [r7, #12]
 2200 0118 0433     		adds	r3, r3, #4
 2201 011a 002B     		cmp	r3, #0
 2202 011c 06D1     		bne	.L163
 2203              		.loc 2 495 0 is_stmt 0 discriminator 1
 2204 011e 40F2EF12 		movw	r2, #495
 2205 0122 2049     		ldr	r1, .L169
ARM GAS  C:\Users\dtjld\AppData\Local\Temp\ccRVA30A.s 			page 57


 2206 0124 2048     		ldr	r0, .L169+4
 2207 0126 FFF7FEFF 		bl	atiny_printf
 2208 012a 22E0     		b	.L164
 2209              	.L163:
 2210              		.loc 2 495 0 discriminator 2
 2211 012c FB68     		ldr	r3, [r7, #12]
 2212 012e DB88     		ldrh	r3, [r3, #6]
 2213 0130 40F2EF12 		movw	r2, #495
 2214 0134 1B49     		ldr	r1, .L169
 2215 0136 1D48     		ldr	r0, .L169+8
 2216 0138 FFF7FEFF 		bl	atiny_printf
 2217 013c FB68     		ldr	r3, [r7, #12]
 2218 013e 1B79     		ldrb	r3, [r3, #4]	@ zero_extendqisi2
 2219 0140 03F00203 		and	r3, r3, #2
 2220 0144 002B     		cmp	r3, #0
 2221 0146 05D0     		beq	.L165
 2222              		.loc 2 495 0 discriminator 3
 2223 0148 FB68     		ldr	r3, [r7, #12]
 2224 014a 1B89     		ldrh	r3, [r3, #8]
 2225 014c 1946     		mov	r1, r3
 2226 014e 1848     		ldr	r0, .L169+12
 2227 0150 FFF7FEFF 		bl	atiny_printf
 2228              	.L165:
 2229              		.loc 2 495 0 discriminator 5
 2230 0154 FB68     		ldr	r3, [r7, #12]
 2231 0156 1B79     		ldrb	r3, [r3, #4]	@ zero_extendqisi2
 2232 0158 03F00103 		and	r3, r3, #1
 2233 015c 002B     		cmp	r3, #0
 2234 015e 05D0     		beq	.L166
 2235              		.loc 2 495 0 discriminator 6
 2236 0160 FB68     		ldr	r3, [r7, #12]
 2237 0162 5B89     		ldrh	r3, [r3, #10]
 2238 0164 1946     		mov	r1, r3
 2239 0166 1248     		ldr	r0, .L169+12
 2240 0168 FFF7FEFF 		bl	atiny_printf
 2241              	.L166:
 2242              		.loc 2 495 0 discriminator 8
 2243 016c 1148     		ldr	r0, .L169+16
 2244 016e FFF7FEFF 		bl	atiny_printf
 2245              	.L164:
 496:C:/Users/dtjld/Desktop/AIoT_software/LiteOS_Lab_overseas/LiteOS_Lab/iot_link/network/lwm2m/wakaama_lwm2m/core\observe.c ****                     return targetP;
 2246              		.loc 2 496 0 is_stmt 1
 2247 0172 FB68     		ldr	r3, [r7, #12]
 2248 0174 12E0     		b	.L167
 2249              	.L156:
 497:C:/Users/dtjld/Desktop/AIoT_software/LiteOS_Lab_overseas/LiteOS_Lab/iot_link/network/lwm2m/wakaama_lwm2m/core\observe.c ****                 }
 498:C:/Users/dtjld/Desktop/AIoT_software/LiteOS_Lab_overseas/LiteOS_Lab/iot_link/network/lwm2m/wakaama_lwm2m/core\observe.c ****             }
 499:C:/Users/dtjld/Desktop/AIoT_software/LiteOS_Lab_overseas/LiteOS_Lab/iot_link/network/lwm2m/wakaama_lwm2m/core\observe.c ****         }
 500:C:/Users/dtjld/Desktop/AIoT_software/LiteOS_Lab_overseas/LiteOS_Lab/iot_link/network/lwm2m/wakaama_lwm2m/core\observe.c ****         targetP = targetP->next;
 2250              		.loc 2 500 0
 2251 0176 FB68     		ldr	r3, [r7, #12]
 2252 0178 1B68     		ldr	r3, [r3]
 2253 017a FB60     		str	r3, [r7, #12]
 2254              	.L155:
 484:C:/Users/dtjld/Desktop/AIoT_software/LiteOS_Lab_overseas/LiteOS_Lab/iot_link/network/lwm2m/wakaama_lwm2m/core\observe.c ****     {
 2255              		.loc 2 484 0
 2256 017c FB68     		ldr	r3, [r7, #12]
ARM GAS  C:\Users\dtjld\AppData\Local\Temp\ccRVA30A.s 			page 58


 2257 017e 002B     		cmp	r3, #0
 2258 0180 7FF474AF 		bne	.L168
 501:C:/Users/dtjld/Desktop/AIoT_software/LiteOS_Lab_overseas/LiteOS_Lab/iot_link/network/lwm2m/wakaama_lwm2m/core\observe.c ****     }
 502:C:/Users/dtjld/Desktop/AIoT_software/LiteOS_Lab_overseas/LiteOS_Lab/iot_link/network/lwm2m/wakaama_lwm2m/core\observe.c **** 
 503:C:/Users/dtjld/Desktop/AIoT_software/LiteOS_Lab_overseas/LiteOS_Lab/iot_link/network/lwm2m/wakaama_lwm2m/core\observe.c ****     LOG("Found nothing");
 2259              		.loc 2 503 0
 2260 0184 FFF7FEFF 		bl	lwm2m_gettime
 2261 0188 0346     		mov	r3, r0
 2262 018a 0C46     		mov	r4, r1
 2263 018c 1946     		mov	r1, r3
 2264 018e 40F2F713 		movw	r3, #503
 2265 0192 044A     		ldr	r2, .L169
 2266 0194 0B48     		ldr	r0, .L169+32
 2267 0196 FFF7FEFF 		bl	atiny_printf
 504:C:/Users/dtjld/Desktop/AIoT_software/LiteOS_Lab_overseas/LiteOS_Lab/iot_link/network/lwm2m/wakaama_lwm2m/core\observe.c ****     return NULL;
 2268              		.loc 2 504 0
 2269 019a 0023     		movs	r3, #0
 2270              	.L167:
 505:C:/Users/dtjld/Desktop/AIoT_software/LiteOS_Lab_overseas/LiteOS_Lab/iot_link/network/lwm2m/wakaama_lwm2m/core\observe.c **** }
 2271              		.loc 2 505 0
 2272 019c 1846     		mov	r0, r3
 2273 019e 1437     		adds	r7, r7, #20
 2274              	.LCFI58:
 2275              		.cfi_def_cfa_offset 12
 2276 01a0 BD46     		mov	sp, r7
 2277              	.LCFI59:
 2278              		.cfi_def_cfa_register 13
 2279              		@ sp needed
 2280 01a2 90BD     		pop	{r4, r7, pc}
 2281              	.L170:
 2282              		.align	2
 2283              	.L169:
 2284 01a4 00000000 		.word	__func__.8605
 2285 01a8 74010000 		.word	.LC17
 2286 01ac 84010000 		.word	.LC18
 2287 01b0 90010000 		.word	.LC19
 2288 01b4 94010000 		.word	.LC20
 2289 01b8 88020000 		.word	.LC24
 2290 01bc 8C020000 		.word	.LC25
 2291 01c0 90020000 		.word	.LC26
 2292 01c4 BC020000 		.word	.LC27
 2293              		.cfi_endproc
 2294              	.LFE13:
 2296              		.section	.rodata
 2297              		.align	2
 2298              	.LC28:
 2299 02d8 5B25645D 		.ascii	"[%d][%s:%d] Found an observation\015\012\000"
 2299      5B25733A 
 2299      25645D20 
 2299      466F756E 
 2299      6420616E 
 2300 02fb 00       		.align	2
 2301              	.LC29:
 2302 02fc 5B25645D 		.ascii	"[%d][%s:%d] Tagging a watcher\015\012\000"
 2302      5B25733A 
 2302      25645D20 
 2302      54616767 
ARM GAS  C:\Users\dtjld\AppData\Local\Temp\ccRVA30A.s 			page 59


 2302      696E6720 
 2303              		.section	.text.lwm2m_resource_value_changed,"ax",%progbits
 2304              		.align	1
 2305              		.global	lwm2m_resource_value_changed
 2306              		.syntax unified
 2307              		.thumb
 2308              		.thumb_func
 2309              		.fpu fpv4-sp-d16
 2311              	lwm2m_resource_value_changed:
 2312              	.LFB14:
 506:C:/Users/dtjld/Desktop/AIoT_software/LiteOS_Lab_overseas/LiteOS_Lab/iot_link/network/lwm2m/wakaama_lwm2m/core\observe.c **** 
 507:C:/Users/dtjld/Desktop/AIoT_software/LiteOS_Lab_overseas/LiteOS_Lab/iot_link/network/lwm2m/wakaama_lwm2m/core\observe.c **** void lwm2m_resource_value_changed(lwm2m_context_t *contextP,
 508:C:/Users/dtjld/Desktop/AIoT_software/LiteOS_Lab_overseas/LiteOS_Lab/iot_link/network/lwm2m/wakaama_lwm2m/core\observe.c ****                                   lwm2m_uri_t *uriP)
 509:C:/Users/dtjld/Desktop/AIoT_software/LiteOS_Lab_overseas/LiteOS_Lab/iot_link/network/lwm2m/wakaama_lwm2m/core\observe.c **** {
 2313              		.loc 2 509 0
 2314              		.cfi_startproc
 2315              		@ args = 0, pretend = 0, frame = 16
 2316              		@ frame_needed = 1, uses_anonymous_args = 0
 2317 0000 90B5     		push	{r4, r7, lr}
 2318              	.LCFI60:
 2319              		.cfi_def_cfa_offset 12
 2320              		.cfi_offset 4, -12
 2321              		.cfi_offset 7, -8
 2322              		.cfi_offset 14, -4
 2323 0002 85B0     		sub	sp, sp, #20
 2324              	.LCFI61:
 2325              		.cfi_def_cfa_offset 32
 2326 0004 00AF     		add	r7, sp, #0
 2327              	.LCFI62:
 2328              		.cfi_def_cfa_register 7
 2329 0006 7860     		str	r0, [r7, #4]
 2330 0008 3960     		str	r1, [r7]
 510:C:/Users/dtjld/Desktop/AIoT_software/LiteOS_Lab_overseas/LiteOS_Lab/iot_link/network/lwm2m/wakaama_lwm2m/core\observe.c ****     lwm2m_observed_t *targetP;
 511:C:/Users/dtjld/Desktop/AIoT_software/LiteOS_Lab_overseas/LiteOS_Lab/iot_link/network/lwm2m/wakaama_lwm2m/core\observe.c **** 
 512:C:/Users/dtjld/Desktop/AIoT_software/LiteOS_Lab_overseas/LiteOS_Lab/iot_link/network/lwm2m/wakaama_lwm2m/core\observe.c ****     LOG_URI(uriP);
 2331              		.loc 2 512 0
 2332 000a 3B68     		ldr	r3, [r7]
 2333 000c 002B     		cmp	r3, #0
 2334 000e 06D1     		bne	.L172
 2335              		.loc 2 512 0 is_stmt 0 discriminator 1
 2336 0010 4FF40072 		mov	r2, #512
 2337 0014 5A49     		ldr	r1, .L188
 2338 0016 5B48     		ldr	r0, .L188+4
 2339 0018 FFF7FEFF 		bl	atiny_printf
 2340 001c 22E0     		b	.L173
 2341              	.L172:
 2342              		.loc 2 512 0 discriminator 2
 2343 001e 3B68     		ldr	r3, [r7]
 2344 0020 5B88     		ldrh	r3, [r3, #2]
 2345 0022 4FF40072 		mov	r2, #512
 2346 0026 5649     		ldr	r1, .L188
 2347 0028 5748     		ldr	r0, .L188+8
 2348 002a FFF7FEFF 		bl	atiny_printf
 2349 002e 3B68     		ldr	r3, [r7]
 2350 0030 1B78     		ldrb	r3, [r3]	@ zero_extendqisi2
 2351 0032 03F00203 		and	r3, r3, #2
 2352 0036 002B     		cmp	r3, #0
ARM GAS  C:\Users\dtjld\AppData\Local\Temp\ccRVA30A.s 			page 60


 2353 0038 05D0     		beq	.L174
 2354              		.loc 2 512 0 discriminator 3
 2355 003a 3B68     		ldr	r3, [r7]
 2356 003c 9B88     		ldrh	r3, [r3, #4]
 2357 003e 1946     		mov	r1, r3
 2358 0040 5248     		ldr	r0, .L188+12
 2359 0042 FFF7FEFF 		bl	atiny_printf
 2360              	.L174:
 2361              		.loc 2 512 0 discriminator 5
 2362 0046 3B68     		ldr	r3, [r7]
 2363 0048 1B78     		ldrb	r3, [r3]	@ zero_extendqisi2
 2364 004a 03F00103 		and	r3, r3, #1
 2365 004e 002B     		cmp	r3, #0
 2366 0050 05D0     		beq	.L175
 2367              		.loc 2 512 0 discriminator 6
 2368 0052 3B68     		ldr	r3, [r7]
 2369 0054 DB88     		ldrh	r3, [r3, #6]
 2370 0056 1946     		mov	r1, r3
 2371 0058 4C48     		ldr	r0, .L188+12
 2372 005a FFF7FEFF 		bl	atiny_printf
 2373              	.L175:
 2374              		.loc 2 512 0 discriminator 8
 2375 005e 4C48     		ldr	r0, .L188+16
 2376 0060 FFF7FEFF 		bl	atiny_printf
 2377              	.L173:
 513:C:/Users/dtjld/Desktop/AIoT_software/LiteOS_Lab_overseas/LiteOS_Lab/iot_link/network/lwm2m/wakaama_lwm2m/core\observe.c ****     targetP = contextP->observedList;
 2378              		.loc 2 513 0 is_stmt 1
 2379 0064 7B68     		ldr	r3, [r7, #4]
 2380 0066 DB69     		ldr	r3, [r3, #28]
 2381 0068 FB60     		str	r3, [r7, #12]
 514:C:/Users/dtjld/Desktop/AIoT_software/LiteOS_Lab_overseas/LiteOS_Lab/iot_link/network/lwm2m/wakaama_lwm2m/core\observe.c ****     while (targetP != NULL)
 2382              		.loc 2 514 0
 2383 006a 81E0     		b	.L176
 2384              	.L187:
 515:C:/Users/dtjld/Desktop/AIoT_software/LiteOS_Lab_overseas/LiteOS_Lab/iot_link/network/lwm2m/wakaama_lwm2m/core\observe.c ****     {
 516:C:/Users/dtjld/Desktop/AIoT_software/LiteOS_Lab_overseas/LiteOS_Lab/iot_link/network/lwm2m/wakaama_lwm2m/core\observe.c ****         if (targetP->uri.objectId == uriP->objectId)
 2385              		.loc 2 516 0
 2386 006c FB68     		ldr	r3, [r7, #12]
 2387 006e DA88     		ldrh	r2, [r3, #6]
 2388 0070 3B68     		ldr	r3, [r7]
 2389 0072 5B88     		ldrh	r3, [r3, #2]
 2390 0074 9A42     		cmp	r2, r3
 2391 0076 78D1     		bne	.L177
 517:C:/Users/dtjld/Desktop/AIoT_software/LiteOS_Lab_overseas/LiteOS_Lab/iot_link/network/lwm2m/wakaama_lwm2m/core\observe.c ****         {
 518:C:/Users/dtjld/Desktop/AIoT_software/LiteOS_Lab_overseas/LiteOS_Lab/iot_link/network/lwm2m/wakaama_lwm2m/core\observe.c ****             if (!LWM2M_URI_IS_SET_INSTANCE(uriP)
 2392              		.loc 2 518 0
 2393 0078 3B68     		ldr	r3, [r7]
 2394 007a 1B78     		ldrb	r3, [r3]	@ zero_extendqisi2
 2395 007c 03F00203 		and	r3, r3, #2
 2396 0080 002B     		cmp	r3, #0
 2397 0082 0BD0     		beq	.L178
 519:C:/Users/dtjld/Desktop/AIoT_software/LiteOS_Lab_overseas/LiteOS_Lab/iot_link/network/lwm2m/wakaama_lwm2m/core\observe.c ****                     || (targetP->uri.flag & LWM2M_URI_FLAG_INSTANCE_ID) == 0
 2398              		.loc 2 519 0
 2399 0084 FB68     		ldr	r3, [r7, #12]
 2400 0086 1B79     		ldrb	r3, [r3, #4]	@ zero_extendqisi2
 2401 0088 03F00203 		and	r3, r3, #2
 2402 008c 002B     		cmp	r3, #0
ARM GAS  C:\Users\dtjld\AppData\Local\Temp\ccRVA30A.s 			page 61


 2403 008e 05D0     		beq	.L178
 520:C:/Users/dtjld/Desktop/AIoT_software/LiteOS_Lab_overseas/LiteOS_Lab/iot_link/network/lwm2m/wakaama_lwm2m/core\observe.c ****                     || uriP->instanceId == targetP->uri.instanceId)
 2404              		.loc 2 520 0
 2405 0090 3B68     		ldr	r3, [r7]
 2406 0092 9A88     		ldrh	r2, [r3, #4]
 2407 0094 FB68     		ldr	r3, [r7, #12]
 2408 0096 1B89     		ldrh	r3, [r3, #8]
 2409 0098 9A42     		cmp	r2, r3
 2410 009a 66D1     		bne	.L177
 2411              	.L178:
 521:C:/Users/dtjld/Desktop/AIoT_software/LiteOS_Lab_overseas/LiteOS_Lab/iot_link/network/lwm2m/wakaama_lwm2m/core\observe.c ****             {
 522:C:/Users/dtjld/Desktop/AIoT_software/LiteOS_Lab_overseas/LiteOS_Lab/iot_link/network/lwm2m/wakaama_lwm2m/core\observe.c ****                 if (!LWM2M_URI_IS_SET_RESOURCE(uriP)
 2412              		.loc 2 522 0
 2413 009c 3B68     		ldr	r3, [r7]
 2414 009e 1B78     		ldrb	r3, [r3]	@ zero_extendqisi2
 2415 00a0 03F00103 		and	r3, r3, #1
 2416 00a4 002B     		cmp	r3, #0
 2417 00a6 0BD0     		beq	.L179
 523:C:/Users/dtjld/Desktop/AIoT_software/LiteOS_Lab_overseas/LiteOS_Lab/iot_link/network/lwm2m/wakaama_lwm2m/core\observe.c ****                         || (targetP->uri.flag & LWM2M_URI_FLAG_RESOURCE_ID) == 0
 2418              		.loc 2 523 0
 2419 00a8 FB68     		ldr	r3, [r7, #12]
 2420 00aa 1B79     		ldrb	r3, [r3, #4]	@ zero_extendqisi2
 2421 00ac 03F00103 		and	r3, r3, #1
 2422 00b0 002B     		cmp	r3, #0
 2423 00b2 05D0     		beq	.L179
 524:C:/Users/dtjld/Desktop/AIoT_software/LiteOS_Lab_overseas/LiteOS_Lab/iot_link/network/lwm2m/wakaama_lwm2m/core\observe.c ****                         || uriP->resourceId == targetP->uri.resourceId)
 2424              		.loc 2 524 0
 2425 00b4 3B68     		ldr	r3, [r7]
 2426 00b6 DA88     		ldrh	r2, [r3, #6]
 2427 00b8 FB68     		ldr	r3, [r7, #12]
 2428 00ba 5B89     		ldrh	r3, [r3, #10]
 2429 00bc 9A42     		cmp	r2, r3
 2430 00be 54D1     		bne	.L177
 2431              	.L179:
 2432              	.LBB7:
 525:C:/Users/dtjld/Desktop/AIoT_software/LiteOS_Lab_overseas/LiteOS_Lab/iot_link/network/lwm2m/wakaama_lwm2m/core\observe.c ****                 {
 526:C:/Users/dtjld/Desktop/AIoT_software/LiteOS_Lab_overseas/LiteOS_Lab/iot_link/network/lwm2m/wakaama_lwm2m/core\observe.c ****                     lwm2m_watcher_t *watcherP;
 527:C:/Users/dtjld/Desktop/AIoT_software/LiteOS_Lab_overseas/LiteOS_Lab/iot_link/network/lwm2m/wakaama_lwm2m/core\observe.c **** 
 528:C:/Users/dtjld/Desktop/AIoT_software/LiteOS_Lab_overseas/LiteOS_Lab/iot_link/network/lwm2m/wakaama_lwm2m/core\observe.c ****                     LOG("Found an observation");
 2433              		.loc 2 528 0
 2434 00c0 FFF7FEFF 		bl	lwm2m_gettime
 2435 00c4 0346     		mov	r3, r0
 2436 00c6 0C46     		mov	r4, r1
 2437 00c8 1946     		mov	r1, r3
 2438 00ca 4FF40473 		mov	r3, #528
 2439 00ce 2C4A     		ldr	r2, .L188
 2440 00d0 3048     		ldr	r0, .L188+20
 2441 00d2 FFF7FEFF 		bl	atiny_printf
 529:C:/Users/dtjld/Desktop/AIoT_software/LiteOS_Lab_overseas/LiteOS_Lab/iot_link/network/lwm2m/wakaama_lwm2m/core\observe.c ****                     LOG_URI(&(targetP->uri));
 2442              		.loc 2 529 0
 2443 00d6 FB68     		ldr	r3, [r7, #12]
 2444 00d8 0433     		adds	r3, r3, #4
 2445 00da 002B     		cmp	r3, #0
 2446 00dc 06D1     		bne	.L180
 2447              		.loc 2 529 0 is_stmt 0 discriminator 1
 2448 00de 40F21122 		movw	r2, #529
 2449 00e2 2749     		ldr	r1, .L188
ARM GAS  C:\Users\dtjld\AppData\Local\Temp\ccRVA30A.s 			page 62


 2450 00e4 2748     		ldr	r0, .L188+4
 2451 00e6 FFF7FEFF 		bl	atiny_printf
 2452 00ea 22E0     		b	.L181
 2453              	.L180:
 2454              		.loc 2 529 0 discriminator 2
 2455 00ec FB68     		ldr	r3, [r7, #12]
 2456 00ee DB88     		ldrh	r3, [r3, #6]
 2457 00f0 40F21122 		movw	r2, #529
 2458 00f4 2249     		ldr	r1, .L188
 2459 00f6 2448     		ldr	r0, .L188+8
 2460 00f8 FFF7FEFF 		bl	atiny_printf
 2461 00fc FB68     		ldr	r3, [r7, #12]
 2462 00fe 1B79     		ldrb	r3, [r3, #4]	@ zero_extendqisi2
 2463 0100 03F00203 		and	r3, r3, #2
 2464 0104 002B     		cmp	r3, #0
 2465 0106 05D0     		beq	.L182
 2466              		.loc 2 529 0 discriminator 3
 2467 0108 FB68     		ldr	r3, [r7, #12]
 2468 010a 1B89     		ldrh	r3, [r3, #8]
 2469 010c 1946     		mov	r1, r3
 2470 010e 1F48     		ldr	r0, .L188+12
 2471 0110 FFF7FEFF 		bl	atiny_printf
 2472              	.L182:
 2473              		.loc 2 529 0 discriminator 5
 2474 0114 FB68     		ldr	r3, [r7, #12]
 2475 0116 1B79     		ldrb	r3, [r3, #4]	@ zero_extendqisi2
 2476 0118 03F00103 		and	r3, r3, #1
 2477 011c 002B     		cmp	r3, #0
 2478 011e 05D0     		beq	.L183
 2479              		.loc 2 529 0 discriminator 6
 2480 0120 FB68     		ldr	r3, [r7, #12]
 2481 0122 5B89     		ldrh	r3, [r3, #10]
 2482 0124 1946     		mov	r1, r3
 2483 0126 1948     		ldr	r0, .L188+12
 2484 0128 FFF7FEFF 		bl	atiny_printf
 2485              	.L183:
 2486              		.loc 2 529 0 discriminator 8
 2487 012c 1848     		ldr	r0, .L188+16
 2488 012e FFF7FEFF 		bl	atiny_printf
 2489              	.L181:
 530:C:/Users/dtjld/Desktop/AIoT_software/LiteOS_Lab_overseas/LiteOS_Lab/iot_link/network/lwm2m/wakaama_lwm2m/core\observe.c **** 
 531:C:/Users/dtjld/Desktop/AIoT_software/LiteOS_Lab_overseas/LiteOS_Lab/iot_link/network/lwm2m/wakaama_lwm2m/core\observe.c ****                     for (watcherP = targetP->watcherList ; watcherP != NULL ; watcherP = watcherP->
 2490              		.loc 2 531 0 is_stmt 1
 2491 0132 FB68     		ldr	r3, [r7, #12]
 2492 0134 DB68     		ldr	r3, [r3, #12]
 2493 0136 BB60     		str	r3, [r7, #8]
 2494 0138 14E0     		b	.L184
 2495              	.L186:
 532:C:/Users/dtjld/Desktop/AIoT_software/LiteOS_Lab_overseas/LiteOS_Lab/iot_link/network/lwm2m/wakaama_lwm2m/core\observe.c ****                     {
 533:C:/Users/dtjld/Desktop/AIoT_software/LiteOS_Lab_overseas/LiteOS_Lab/iot_link/network/lwm2m/wakaama_lwm2m/core\observe.c ****                         if (watcherP->active == true)
 2496              		.loc 2 533 0
 2497 013a BB68     		ldr	r3, [r7, #8]
 2498 013c 1B79     		ldrb	r3, [r3, #4]	@ zero_extendqisi2
 2499 013e 002B     		cmp	r3, #0
 2500 0140 0DD0     		beq	.L185
 534:C:/Users/dtjld/Desktop/AIoT_software/LiteOS_Lab_overseas/LiteOS_Lab/iot_link/network/lwm2m/wakaama_lwm2m/core\observe.c ****                         {
 535:C:/Users/dtjld/Desktop/AIoT_software/LiteOS_Lab_overseas/LiteOS_Lab/iot_link/network/lwm2m/wakaama_lwm2m/core\observe.c ****                             LOG("Tagging a watcher");
ARM GAS  C:\Users\dtjld\AppData\Local\Temp\ccRVA30A.s 			page 63


 2501              		.loc 2 535 0
 2502 0142 FFF7FEFF 		bl	lwm2m_gettime
 2503 0146 0346     		mov	r3, r0
 2504 0148 0C46     		mov	r4, r1
 2505 014a 1946     		mov	r1, r3
 2506 014c 40F21723 		movw	r3, #535
 2507 0150 0B4A     		ldr	r2, .L188
 2508 0152 1148     		ldr	r0, .L188+24
 2509 0154 FFF7FEFF 		bl	atiny_printf
 536:C:/Users/dtjld/Desktop/AIoT_software/LiteOS_Lab_overseas/LiteOS_Lab/iot_link/network/lwm2m/wakaama_lwm2m/core\observe.c ****                             watcherP->update = true;
 2510              		.loc 2 536 0
 2511 0158 BB68     		ldr	r3, [r7, #8]
 2512 015a 0122     		movs	r2, #1
 2513 015c 5A71     		strb	r2, [r3, #5]
 2514              	.L185:
 531:C:/Users/dtjld/Desktop/AIoT_software/LiteOS_Lab_overseas/LiteOS_Lab/iot_link/network/lwm2m/wakaama_lwm2m/core\observe.c ****                     {
 2515              		.loc 2 531 0 discriminator 2
 2516 015e BB68     		ldr	r3, [r7, #8]
 2517 0160 1B68     		ldr	r3, [r3]
 2518 0162 BB60     		str	r3, [r7, #8]
 2519              	.L184:
 531:C:/Users/dtjld/Desktop/AIoT_software/LiteOS_Lab_overseas/LiteOS_Lab/iot_link/network/lwm2m/wakaama_lwm2m/core\observe.c ****                     {
 2520              		.loc 2 531 0 is_stmt 0 discriminator 1
 2521 0164 BB68     		ldr	r3, [r7, #8]
 2522 0166 002B     		cmp	r3, #0
 2523 0168 E7D1     		bne	.L186
 2524              	.L177:
 2525              	.LBE7:
 537:C:/Users/dtjld/Desktop/AIoT_software/LiteOS_Lab_overseas/LiteOS_Lab/iot_link/network/lwm2m/wakaama_lwm2m/core\observe.c ****                         }
 538:C:/Users/dtjld/Desktop/AIoT_software/LiteOS_Lab_overseas/LiteOS_Lab/iot_link/network/lwm2m/wakaama_lwm2m/core\observe.c ****                     }
 539:C:/Users/dtjld/Desktop/AIoT_software/LiteOS_Lab_overseas/LiteOS_Lab/iot_link/network/lwm2m/wakaama_lwm2m/core\observe.c ****                 }
 540:C:/Users/dtjld/Desktop/AIoT_software/LiteOS_Lab_overseas/LiteOS_Lab/iot_link/network/lwm2m/wakaama_lwm2m/core\observe.c ****             }
 541:C:/Users/dtjld/Desktop/AIoT_software/LiteOS_Lab_overseas/LiteOS_Lab/iot_link/network/lwm2m/wakaama_lwm2m/core\observe.c ****         }
 542:C:/Users/dtjld/Desktop/AIoT_software/LiteOS_Lab_overseas/LiteOS_Lab/iot_link/network/lwm2m/wakaama_lwm2m/core\observe.c ****         targetP = targetP->next;
 2526              		.loc 2 542 0 is_stmt 1
 2527 016a FB68     		ldr	r3, [r7, #12]
 2528 016c 1B68     		ldr	r3, [r3]
 2529 016e FB60     		str	r3, [r7, #12]
 2530              	.L176:
 514:C:/Users/dtjld/Desktop/AIoT_software/LiteOS_Lab_overseas/LiteOS_Lab/iot_link/network/lwm2m/wakaama_lwm2m/core\observe.c ****     {
 2531              		.loc 2 514 0
 2532 0170 FB68     		ldr	r3, [r7, #12]
 2533 0172 002B     		cmp	r3, #0
 2534 0174 7FF47AAF 		bne	.L187
 543:C:/Users/dtjld/Desktop/AIoT_software/LiteOS_Lab_overseas/LiteOS_Lab/iot_link/network/lwm2m/wakaama_lwm2m/core\observe.c ****     }
 544:C:/Users/dtjld/Desktop/AIoT_software/LiteOS_Lab_overseas/LiteOS_Lab/iot_link/network/lwm2m/wakaama_lwm2m/core\observe.c **** 
 545:C:/Users/dtjld/Desktop/AIoT_software/LiteOS_Lab_overseas/LiteOS_Lab/iot_link/network/lwm2m/wakaama_lwm2m/core\observe.c **** }
 2535              		.loc 2 545 0
 2536 0178 00BF     		nop
 2537 017a 1437     		adds	r7, r7, #20
 2538              	.LCFI63:
 2539              		.cfi_def_cfa_offset 12
 2540 017c BD46     		mov	sp, r7
 2541              	.LCFI64:
 2542              		.cfi_def_cfa_register 13
 2543              		@ sp needed
 2544 017e 90BD     		pop	{r4, r7, pc}
ARM GAS  C:\Users\dtjld\AppData\Local\Temp\ccRVA30A.s 			page 64


 2545              	.L189:
 2546              		.align	2
 2547              	.L188:
 2548 0180 00000000 		.word	__func__.8614
 2549 0184 74010000 		.word	.LC17
 2550 0188 84010000 		.word	.LC18
 2551 018c 90010000 		.word	.LC19
 2552 0190 94010000 		.word	.LC20
 2553 0194 D8020000 		.word	.LC28
 2554 0198 FC020000 		.word	.LC29
 2555              		.cfi_endproc
 2556              	.LFE14:
 2558              		.section	.rodata
 2559              		.align	2
 2560              	.LC30:
 2561 031c 5B25645D 		.ascii	"[%d][%s:%d] transaction_new null\015\012\000"
 2561      5B25733A 
 2561      25645D20 
 2561      7472616E 
 2561      73616374 
 2562 033f 00       		.align	2
 2563              	.LC31:
 2564 0340 5B25645D 		.ascii	"[%d][%s:%d] notify con msg, cookie:%d type:%d,ret:%"
 2564      5B25733A 
 2564      25645D20 
 2564      6E6F7469 
 2564      66792063 
 2565 0373 640D0A00 		.ascii	"d\015\012\000"
 2566              		.section	.text.observe_send_transaction,"ax",%progbits
 2567              		.align	1
 2568              		.global	observe_send_transaction
 2569              		.syntax unified
 2570              		.thumb
 2571              		.thumb_func
 2572              		.fpu fpv4-sp-d16
 2574              	observe_send_transaction:
 2575              	.LFB15:
 546:C:/Users/dtjld/Desktop/AIoT_software/LiteOS_Lab_overseas/LiteOS_Lab/iot_link/network/lwm2m/wakaama_lwm2m/core\observe.c **** 
 547:C:/Users/dtjld/Desktop/AIoT_software/LiteOS_Lab_overseas/LiteOS_Lab/iot_link/network/lwm2m/wakaama_lwm2m/core\observe.c **** int observe_send_transaction(lwm2m_context_t *contextP, lwm2m_data_cfg_t  *cfg, lwm2m_watcher_t *wa
 548:C:/Users/dtjld/Desktop/AIoT_software/LiteOS_Lab_overseas/LiteOS_Lab/iot_link/network/lwm2m/wakaama_lwm2m/core\observe.c ****                              uint8_t *buffer, size_t length)
 549:C:/Users/dtjld/Desktop/AIoT_software/LiteOS_Lab_overseas/LiteOS_Lab/iot_link/network/lwm2m/wakaama_lwm2m/core\observe.c **** {
 2576              		.loc 2 549 0
 2577              		.cfi_startproc
 2578              		@ args = 4, pretend = 0, frame = 24
 2579              		@ frame_needed = 1, uses_anonymous_args = 0
 2580 0000 90B5     		push	{r4, r7, lr}
 2581              	.LCFI65:
 2582              		.cfi_def_cfa_offset 12
 2583              		.cfi_offset 4, -12
 2584              		.cfi_offset 7, -8
 2585              		.cfi_offset 14, -4
 2586 0002 8BB0     		sub	sp, sp, #44
 2587              	.LCFI66:
 2588              		.cfi_def_cfa_offset 56
 2589 0004 04AF     		add	r7, sp, #16
 2590              	.LCFI67:
 2591              		.cfi_def_cfa 7, 40
ARM GAS  C:\Users\dtjld\AppData\Local\Temp\ccRVA30A.s 			page 65


 2592 0006 F860     		str	r0, [r7, #12]
 2593 0008 B960     		str	r1, [r7, #8]
 2594 000a 7A60     		str	r2, [r7, #4]
 2595 000c 3B60     		str	r3, [r7]
 550:C:/Users/dtjld/Desktop/AIoT_software/LiteOS_Lab_overseas/LiteOS_Lab/iot_link/network/lwm2m/wakaama_lwm2m/core\observe.c ****     lwm2m_transaction_t *transaction;
 551:C:/Users/dtjld/Desktop/AIoT_software/LiteOS_Lab_overseas/LiteOS_Lab/iot_link/network/lwm2m/wakaama_lwm2m/core\observe.c ****     int ret;
 552:C:/Users/dtjld/Desktop/AIoT_software/LiteOS_Lab_overseas/LiteOS_Lab/iot_link/network/lwm2m/wakaama_lwm2m/core\observe.c **** 
 553:C:/Users/dtjld/Desktop/AIoT_software/LiteOS_Lab_overseas/LiteOS_Lab/iot_link/network/lwm2m/wakaama_lwm2m/core\observe.c ****     transaction = transaction_new(watcherP->server->sessionH, COAP_205_CONTENT, NULL, NULL, watcher
 2596              		.loc 2 553 0
 2597 000e 7B68     		ldr	r3, [r7, #4]
 2598 0010 9B68     		ldr	r3, [r3, #8]
 2599 0012 D869     		ldr	r0, [r3, #28]
 2600 0014 7B68     		ldr	r3, [r7, #4]
 2601 0016 9B8D     		ldrh	r3, [r3, #44]
 2602 0018 7A68     		ldr	r2, [r7, #4]
 2603 001a D269     		ldr	r2, [r2, #28]
 2604 001c D2B2     		uxtb	r2, r2
 2605 001e 7968     		ldr	r1, [r7, #4]
 2606 0020 1231     		adds	r1, r1, #18
 2607 0022 0291     		str	r1, [sp, #8]
 2608 0024 0192     		str	r2, [sp, #4]
 2609 0026 0093     		str	r3, [sp]
 2610 0028 0023     		movs	r3, #0
 2611 002a 0022     		movs	r2, #0
 2612 002c 4521     		movs	r1, #69
 2613 002e FFF7FEFF 		bl	transaction_new
 2614 0032 7861     		str	r0, [r7, #20]
 554:C:/Users/dtjld/Desktop/AIoT_software/LiteOS_Lab_overseas/LiteOS_Lab/iot_link/network/lwm2m/wakaama_lwm2m/core\observe.c ****     if(NULL == transaction)
 2615              		.loc 2 554 0
 2616 0034 7B69     		ldr	r3, [r7, #20]
 2617 0036 002B     		cmp	r3, #0
 2618 0038 0CD1     		bne	.L191
 555:C:/Users/dtjld/Desktop/AIoT_software/LiteOS_Lab_overseas/LiteOS_Lab/iot_link/network/lwm2m/wakaama_lwm2m/core\observe.c ****     {
 556:C:/Users/dtjld/Desktop/AIoT_software/LiteOS_Lab_overseas/LiteOS_Lab/iot_link/network/lwm2m/wakaama_lwm2m/core\observe.c ****         LOG("transaction_new null");
 2619              		.loc 2 556 0
 2620 003a FFF7FEFF 		bl	lwm2m_gettime
 2621 003e 0346     		mov	r3, r0
 2622 0040 0C46     		mov	r4, r1
 2623 0042 1946     		mov	r1, r3
 2624 0044 4FF40B73 		mov	r3, #556
 2625 0048 2A4A     		ldr	r2, .L193
 2626 004a 2B48     		ldr	r0, .L193+4
 2627 004c FFF7FEFF 		bl	atiny_printf
 557:C:/Users/dtjld/Desktop/AIoT_software/LiteOS_Lab_overseas/LiteOS_Lab/iot_link/network/lwm2m/wakaama_lwm2m/core\observe.c ****         return COAP_500_INTERNAL_SERVER_ERROR;
 2628              		.loc 2 557 0
 2629 0050 A023     		movs	r3, #160
 2630 0052 4BE0     		b	.L192
 2631              	.L191:
 558:C:/Users/dtjld/Desktop/AIoT_software/LiteOS_Lab_overseas/LiteOS_Lab/iot_link/network/lwm2m/wakaama_lwm2m/core\observe.c ****     }
 559:C:/Users/dtjld/Desktop/AIoT_software/LiteOS_Lab_overseas/LiteOS_Lab/iot_link/network/lwm2m/wakaama_lwm2m/core\observe.c ****     transaction->cfg.callback = cfg->callback;
 2632              		.loc 2 559 0
 2633 0054 BB68     		ldr	r3, [r7, #8]
 2634 0056 9A68     		ldr	r2, [r3, #8]
 2635 0058 7B69     		ldr	r3, [r7, #20]
 2636 005a DA63     		str	r2, [r3, #60]
 560:C:/Users/dtjld/Desktop/AIoT_software/LiteOS_Lab_overseas/LiteOS_Lab/iot_link/network/lwm2m/wakaama_lwm2m/core\observe.c ****     transaction->cfg.cookie = cfg->cookie;
 2637              		.loc 2 560 0
ARM GAS  C:\Users\dtjld\AppData\Local\Temp\ccRVA30A.s 			page 66


 2638 005c BB68     		ldr	r3, [r7, #8]
 2639 005e 5A68     		ldr	r2, [r3, #4]
 2640 0060 7B69     		ldr	r3, [r7, #20]
 2641 0062 9A63     		str	r2, [r3, #56]
 561:C:/Users/dtjld/Desktop/AIoT_software/LiteOS_Lab_overseas/LiteOS_Lab/iot_link/network/lwm2m/wakaama_lwm2m/core\observe.c ****     transaction->cfg.type = cfg->type;
 2642              		.loc 2 561 0
 2643 0064 BB68     		ldr	r3, [r7, #8]
 2644 0066 1A68     		ldr	r2, [r3]
 2645 0068 7B69     		ldr	r3, [r7, #20]
 2646 006a 5A63     		str	r2, [r3, #52]
 562:C:/Users/dtjld/Desktop/AIoT_software/LiteOS_Lab_overseas/LiteOS_Lab/iot_link/network/lwm2m/wakaama_lwm2m/core\observe.c ****     transaction->callback = observe_call_back;
 2647              		.loc 2 562 0
 2648 006c 234B     		ldr	r3, .L193+8
 2649 006e 1A68     		ldr	r2, [r3]
 2650 0070 7B69     		ldr	r3, [r7, #20]
 2651 0072 1A64     		str	r2, [r3, #64]
 563:C:/Users/dtjld/Desktop/AIoT_software/LiteOS_Lab_overseas/LiteOS_Lab/iot_link/network/lwm2m/wakaama_lwm2m/core\observe.c ****     coap_set_header_content_type(transaction->message, watcherP->format);
 2652              		.loc 2 563 0
 2653 0074 7B69     		ldr	r3, [r7, #20]
 2654 0076 9A6A     		ldr	r2, [r3, #40]
 2655 0078 7B68     		ldr	r3, [r7, #4]
 2656 007a 1B8A     		ldrh	r3, [r3, #16]
 2657 007c 1946     		mov	r1, r3
 2658 007e 1046     		mov	r0, r2
 2659 0080 FFF7FEFF 		bl	coap_set_header_content_type
 564:C:/Users/dtjld/Desktop/AIoT_software/LiteOS_Lab_overseas/LiteOS_Lab/iot_link/network/lwm2m/wakaama_lwm2m/core\observe.c ****     coap_set_header_observe(transaction->message, watcherP->counter++);
 2660              		.loc 2 564 0
 2661 0084 7B69     		ldr	r3, [r7, #20]
 2662 0086 986A     		ldr	r0, [r3, #40]
 2663 0088 7B68     		ldr	r3, [r7, #4]
 2664 008a 9B6A     		ldr	r3, [r3, #40]
 2665 008c 591C     		adds	r1, r3, #1
 2666 008e 7A68     		ldr	r2, [r7, #4]
 2667 0090 9162     		str	r1, [r2, #40]
 2668 0092 1946     		mov	r1, r3
 2669 0094 FFF7FEFF 		bl	coap_set_header_observe
 565:C:/Users/dtjld/Desktop/AIoT_software/LiteOS_Lab_overseas/LiteOS_Lab/iot_link/network/lwm2m/wakaama_lwm2m/core\observe.c ****     coap_set_payload(transaction->message, buffer, length);
 2670              		.loc 2 565 0
 2671 0098 7B69     		ldr	r3, [r7, #20]
 2672 009a 9B6A     		ldr	r3, [r3, #40]
 2673 009c BA6A     		ldr	r2, [r7, #40]
 2674 009e 3968     		ldr	r1, [r7]
 2675 00a0 1846     		mov	r0, r3
 2676 00a2 FFF7FEFF 		bl	coap_set_payload
 566:C:/Users/dtjld/Desktop/AIoT_software/LiteOS_Lab_overseas/LiteOS_Lab/iot_link/network/lwm2m/wakaama_lwm2m/core\observe.c ****     contextP->transactionList = (lwm2m_transaction_t *)LWM2M_LIST_ADD(contextP->transactionList, tr
 2677              		.loc 2 566 0
 2678 00a6 FB68     		ldr	r3, [r7, #12]
 2679 00a8 1B6B     		ldr	r3, [r3, #48]
 2680 00aa 7969     		ldr	r1, [r7, #20]
 2681 00ac 1846     		mov	r0, r3
 2682 00ae FFF7FEFF 		bl	lwm2m_list_add
 2683 00b2 0246     		mov	r2, r0
 2684 00b4 FB68     		ldr	r3, [r7, #12]
 2685 00b6 1A63     		str	r2, [r3, #48]
 567:C:/Users/dtjld/Desktop/AIoT_software/LiteOS_Lab_overseas/LiteOS_Lab/iot_link/network/lwm2m/wakaama_lwm2m/core\observe.c ****     ret = transaction_send(contextP, transaction);
 2686              		.loc 2 567 0
 2687 00b8 7969     		ldr	r1, [r7, #20]
ARM GAS  C:\Users\dtjld\AppData\Local\Temp\ccRVA30A.s 			page 67


 2688 00ba F868     		ldr	r0, [r7, #12]
 2689 00bc FFF7FEFF 		bl	transaction_send
 2690 00c0 3861     		str	r0, [r7, #16]
 568:C:/Users/dtjld/Desktop/AIoT_software/LiteOS_Lab_overseas/LiteOS_Lab/iot_link/network/lwm2m/wakaama_lwm2m/core\observe.c ****     LOG_ARG("notify con msg, cookie:%d type:%d,ret:%d", transaction->cfg.cookie, transaction->cfg.t
 2691              		.loc 2 568 0
 2692 00c2 FFF7FEFF 		bl	lwm2m_gettime
 2693 00c6 0346     		mov	r3, r0
 2694 00c8 0C46     		mov	r4, r1
 2695 00ca 1846     		mov	r0, r3
 2696 00cc 7B69     		ldr	r3, [r7, #20]
 2697 00ce 9B6B     		ldr	r3, [r3, #56]
 2698 00d0 7A69     		ldr	r2, [r7, #20]
 2699 00d2 526B     		ldr	r2, [r2, #52]
 2700 00d4 3969     		ldr	r1, [r7, #16]
 2701 00d6 0291     		str	r1, [sp, #8]
 2702 00d8 0192     		str	r2, [sp, #4]
 2703 00da 0093     		str	r3, [sp]
 2704 00dc 4FF40E73 		mov	r3, #568
 2705 00e0 044A     		ldr	r2, .L193
 2706 00e2 0146     		mov	r1, r0
 2707 00e4 0648     		ldr	r0, .L193+12
 2708 00e6 FFF7FEFF 		bl	atiny_printf
 569:C:/Users/dtjld/Desktop/AIoT_software/LiteOS_Lab_overseas/LiteOS_Lab/iot_link/network/lwm2m/wakaama_lwm2m/core\observe.c ****     return ret;
 2709              		.loc 2 569 0
 2710 00ea 3B69     		ldr	r3, [r7, #16]
 2711              	.L192:
 570:C:/Users/dtjld/Desktop/AIoT_software/LiteOS_Lab_overseas/LiteOS_Lab/iot_link/network/lwm2m/wakaama_lwm2m/core\observe.c **** }
 2712              		.loc 2 570 0
 2713 00ec 1846     		mov	r0, r3
 2714 00ee 1C37     		adds	r7, r7, #28
 2715              	.LCFI68:
 2716              		.cfi_def_cfa_offset 12
 2717 00f0 BD46     		mov	sp, r7
 2718              	.LCFI69:
 2719              		.cfi_def_cfa_register 13
 2720              		@ sp needed
 2721 00f2 90BD     		pop	{r4, r7, pc}
 2722              	.L194:
 2723              		.align	2
 2724              	.L193:
 2725 00f4 00000000 		.word	__func__.8631
 2726 00f8 1C030000 		.word	.LC30
 2727 00fc 00000000 		.word	observe_call_back
 2728 0100 40030000 		.word	.LC31
 2729              		.cfi_endproc
 2730              	.LFE15:
 2732              		.section	.rodata
 2733 0377 00       		.align	2
 2734              	.LC32:
 2735 0378 5B25645D 		.ascii	"[%d][%s:%d] Entering\015\012\000"
 2735      5B25733A 
 2735      25645D20 
 2735      456E7465 
 2735      72696E67 
 2736 038f 00       		.align	2
 2737              	.LC33:
 2738 0390 5B25645D 		.ascii	"[%d][%s:%d] notify no con msg, msgid:\015\012\000"
ARM GAS  C:\Users\dtjld\AppData\Local\Temp\ccRVA30A.s 			page 68


 2738      5B25733A 
 2738      25645D20 
 2738      6E6F7469 
 2738      6679206E 
 2739              		.section	.text.observe_app_step,"ax",%progbits
 2740              		.align	1
 2741              		.global	observe_app_step
 2742              		.syntax unified
 2743              		.thumb
 2744              		.thumb_func
 2745              		.fpu fpv4-sp-d16
 2747              	observe_app_step:
 2748              	.LFB16:
 571:C:/Users/dtjld/Desktop/AIoT_software/LiteOS_Lab_overseas/LiteOS_Lab/iot_link/network/lwm2m/wakaama_lwm2m/core\observe.c **** 
 572:C:/Users/dtjld/Desktop/AIoT_software/LiteOS_Lab_overseas/LiteOS_Lab/iot_link/network/lwm2m/wakaama_lwm2m/core\observe.c **** void observe_app_step(lwm2m_context_t *contextP,
 573:C:/Users/dtjld/Desktop/AIoT_software/LiteOS_Lab_overseas/LiteOS_Lab/iot_link/network/lwm2m/wakaama_lwm2m/core\observe.c ****                       lwm2m_observed_t *targetP,
 574:C:/Users/dtjld/Desktop/AIoT_software/LiteOS_Lab_overseas/LiteOS_Lab/iot_link/network/lwm2m/wakaama_lwm2m/core\observe.c ****                       time_t currentTime,
 575:C:/Users/dtjld/Desktop/AIoT_software/LiteOS_Lab_overseas/LiteOS_Lab/iot_link/network/lwm2m/wakaama_lwm2m/core\observe.c ****                       time_t *timeoutP)
 576:C:/Users/dtjld/Desktop/AIoT_software/LiteOS_Lab_overseas/LiteOS_Lab/iot_link/network/lwm2m/wakaama_lwm2m/core\observe.c **** {
 2749              		.loc 2 576 0
 2750              		.cfi_startproc
 2751              		@ args = 4, pretend = 0, frame = 192
 2752              		@ frame_needed = 1, uses_anonymous_args = 0
 2753 0000 90B5     		push	{r4, r7, lr}
 2754              	.LCFI70:
 2755              		.cfi_def_cfa_offset 12
 2756              		.cfi_offset 4, -12
 2757              		.cfi_offset 7, -8
 2758              		.cfi_offset 14, -4
 2759 0002 B3B0     		sub	sp, sp, #204
 2760              	.LCFI71:
 2761              		.cfi_def_cfa_offset 216
 2762 0004 02AF     		add	r7, sp, #8
 2763              	.LCFI72:
 2764              		.cfi_def_cfa 7, 208
 2765 0006 F860     		str	r0, [r7, #12]
 2766 0008 B960     		str	r1, [r7, #8]
 2767 000a C7E90023 		strd	r2, [r7]
 577:C:/Users/dtjld/Desktop/AIoT_software/LiteOS_Lab_overseas/LiteOS_Lab/iot_link/network/lwm2m/wakaama_lwm2m/core\observe.c ****     LOG("Entering");
 2768              		.loc 2 577 0
 2769 000e FFF7FEFF 		bl	lwm2m_gettime
 2770 0012 0346     		mov	r3, r0
 2771 0014 0C46     		mov	r4, r1
 2772 0016 1946     		mov	r1, r3
 2773 0018 40F24123 		movw	r3, #577
 2774 001c 8A4A     		ldr	r2, .L211
 2775 001e 8B48     		ldr	r0, .L211+4
 2776 0020 FFF7FEFF 		bl	atiny_printf
 578:C:/Users/dtjld/Desktop/AIoT_software/LiteOS_Lab_overseas/LiteOS_Lab/iot_link/network/lwm2m/wakaama_lwm2m/core\observe.c ****     lwm2m_watcher_t *watcherP;
 579:C:/Users/dtjld/Desktop/AIoT_software/LiteOS_Lab_overseas/LiteOS_Lab/iot_link/network/lwm2m/wakaama_lwm2m/core\observe.c ****     uint8_t *buffer = NULL;
 2777              		.loc 2 579 0
 2778 0024 0023     		movs	r3, #0
 2779 0026 C7F8B030 		str	r3, [r7, #176]
 580:C:/Users/dtjld/Desktop/AIoT_software/LiteOS_Lab_overseas/LiteOS_Lab/iot_link/network/lwm2m/wakaama_lwm2m/core\observe.c ****     size_t length = 0;
 2780              		.loc 2 580 0
 2781 002a 0023     		movs	r3, #0
 2782 002c C7F8B830 		str	r3, [r7, #184]
ARM GAS  C:\Users\dtjld\AppData\Local\Temp\ccRVA30A.s 			page 69


 581:C:/Users/dtjld/Desktop/AIoT_software/LiteOS_Lab_overseas/LiteOS_Lab/iot_link/network/lwm2m/wakaama_lwm2m/core\observe.c ****     lwm2m_data_t *dataP = NULL;
 2783              		.loc 2 581 0
 2784 0030 0023     		movs	r3, #0
 2785 0032 C7F8AC30 		str	r3, [r7, #172]
 582:C:/Users/dtjld/Desktop/AIoT_software/LiteOS_Lab_overseas/LiteOS_Lab/iot_link/network/lwm2m/wakaama_lwm2m/core\observe.c ****     lwm2m_data_cfg_t  cfg = {0, 0, NULL};
 2786              		.loc 2 582 0
 2787 0036 0023     		movs	r3, #0
 2788 0038 C7F8A030 		str	r3, [r7, #160]
 2789 003c 0023     		movs	r3, #0
 2790 003e C7F8A430 		str	r3, [r7, #164]
 2791 0042 0023     		movs	r3, #0
 2792 0044 C7F8A830 		str	r3, [r7, #168]
 583:C:/Users/dtjld/Desktop/AIoT_software/LiteOS_Lab_overseas/LiteOS_Lab/iot_link/network/lwm2m/wakaama_lwm2m/core\observe.c ****     int size = 0;
 2793              		.loc 2 583 0
 2794 0048 0023     		movs	r3, #0
 2795 004a C7F89C30 		str	r3, [r7, #156]
 584:C:/Users/dtjld/Desktop/AIoT_software/LiteOS_Lab_overseas/LiteOS_Lab/iot_link/network/lwm2m/wakaama_lwm2m/core\observe.c **** 
 585:C:/Users/dtjld/Desktop/AIoT_software/LiteOS_Lab_overseas/LiteOS_Lab/iot_link/network/lwm2m/wakaama_lwm2m/core\observe.c ****     while (COAP_205_CONTENT == object_readData(contextP, &targetP->uri, &size, &dataP, &cfg, 0))
 2796              		.loc 2 585 0
 2797 004e D7E0     		b	.L196
 2798              	.L207:
 586:C:/Users/dtjld/Desktop/AIoT_software/LiteOS_Lab_overseas/LiteOS_Lab/iot_link/network/lwm2m/wakaama_lwm2m/core\observe.c ****     {
 587:C:/Users/dtjld/Desktop/AIoT_software/LiteOS_Lab_overseas/LiteOS_Lab/iot_link/network/lwm2m/wakaama_lwm2m/core\observe.c **** 
 588:C:/Users/dtjld/Desktop/AIoT_software/LiteOS_Lab_overseas/LiteOS_Lab/iot_link/network/lwm2m/wakaama_lwm2m/core\observe.c ****         for (watcherP = targetP->watcherList ; watcherP != NULL ; watcherP = watcherP->next)
 2799              		.loc 2 588 0
 2800 0050 BB68     		ldr	r3, [r7, #8]
 2801 0052 DB68     		ldr	r3, [r3, #12]
 2802 0054 C7F8BC30 		str	r3, [r7, #188]
 2803 0058 B0E0     		b	.L197
 2804              	.L205:
 2805              	.LBB8:
 589:C:/Users/dtjld/Desktop/AIoT_software/LiteOS_Lab_overseas/LiteOS_Lab/iot_link/network/lwm2m/wakaama_lwm2m/core\observe.c ****         {
 590:C:/Users/dtjld/Desktop/AIoT_software/LiteOS_Lab_overseas/LiteOS_Lab/iot_link/network/lwm2m/wakaama_lwm2m/core\observe.c ****             int res;
 591:C:/Users/dtjld/Desktop/AIoT_software/LiteOS_Lab_overseas/LiteOS_Lab/iot_link/network/lwm2m/wakaama_lwm2m/core\observe.c ****             if (buffer == NULL)
 2806              		.loc 2 591 0
 2807 005a D7F8B030 		ldr	r3, [r7, #176]
 2808 005e 002B     		cmp	r3, #0
 2809 0060 33D1     		bne	.L198
 592:C:/Users/dtjld/Desktop/AIoT_software/LiteOS_Lab_overseas/LiteOS_Lab/iot_link/network/lwm2m/wakaama_lwm2m/core\observe.c ****             {
 593:C:/Users/dtjld/Desktop/AIoT_software/LiteOS_Lab_overseas/LiteOS_Lab/iot_link/network/lwm2m/wakaama_lwm2m/core\observe.c ****                 res = lwm2m_data_serialize(&targetP->uri, size, dataP, &(watcherP->format), &buffer
 2810              		.loc 2 593 0
 2811 0062 BB68     		ldr	r3, [r7, #8]
 2812 0064 181D     		adds	r0, r3, #4
 2813 0066 D7F89C10 		ldr	r1, [r7, #156]
 2814 006a D7F8AC20 		ldr	r2, [r7, #172]
 2815 006e D7F8BC30 		ldr	r3, [r7, #188]
 2816 0072 03F11004 		add	r4, r3, #16
 2817 0076 07F1B003 		add	r3, r7, #176
 2818 007a 0093     		str	r3, [sp]
 2819 007c 2346     		mov	r3, r4
 2820 007e FFF7FEFF 		bl	lwm2m_data_serialize
 2821 0082 C7F8B400 		str	r0, [r7, #180]
 594:C:/Users/dtjld/Desktop/AIoT_software/LiteOS_Lab_overseas/LiteOS_Lab/iot_link/network/lwm2m/wakaama_lwm2m/core\observe.c ****                 if (res < 0)
 2822              		.loc 2 594 0
 2823 0086 D7F8B430 		ldr	r3, [r7, #180]
 2824 008a 002B     		cmp	r3, #0
 2825 008c 19DA     		bge	.L199
ARM GAS  C:\Users\dtjld\AppData\Local\Temp\ccRVA30A.s 			page 70


 595:C:/Users/dtjld/Desktop/AIoT_software/LiteOS_Lab_overseas/LiteOS_Lab/iot_link/network/lwm2m/wakaama_lwm2m/core\observe.c ****                 {
 596:C:/Users/dtjld/Desktop/AIoT_software/LiteOS_Lab_overseas/LiteOS_Lab/iot_link/network/lwm2m/wakaama_lwm2m/core\observe.c ****                     if (dataP != NULL)
 2826              		.loc 2 596 0
 2827 008e D7F8AC30 		ldr	r3, [r7, #172]
 2828 0092 002B     		cmp	r3, #0
 2829 0094 0AD0     		beq	.L200
 597:C:/Users/dtjld/Desktop/AIoT_software/LiteOS_Lab_overseas/LiteOS_Lab/iot_link/network/lwm2m/wakaama_lwm2m/core\observe.c ****                     {
 598:C:/Users/dtjld/Desktop/AIoT_software/LiteOS_Lab_overseas/LiteOS_Lab/iot_link/network/lwm2m/wakaama_lwm2m/core\observe.c ****                         lwm2m_data_free(size, dataP);
 2830              		.loc 2 598 0
 2831 0096 D7F89C30 		ldr	r3, [r7, #156]
 2832 009a D7F8AC20 		ldr	r2, [r7, #172]
 2833 009e 1146     		mov	r1, r2
 2834 00a0 1846     		mov	r0, r3
 2835 00a2 FFF7FEFF 		bl	lwm2m_data_free
 599:C:/Users/dtjld/Desktop/AIoT_software/LiteOS_Lab_overseas/LiteOS_Lab/iot_link/network/lwm2m/wakaama_lwm2m/core\observe.c ****                         dataP = NULL;
 2836              		.loc 2 599 0
 2837 00a6 0023     		movs	r3, #0
 2838 00a8 C7F8AC30 		str	r3, [r7, #172]
 2839              	.L200:
 600:C:/Users/dtjld/Desktop/AIoT_software/LiteOS_Lab_overseas/LiteOS_Lab/iot_link/network/lwm2m/wakaama_lwm2m/core\observe.c ****                     }
 601:C:/Users/dtjld/Desktop/AIoT_software/LiteOS_Lab_overseas/LiteOS_Lab/iot_link/network/lwm2m/wakaama_lwm2m/core\observe.c ****                     if (buffer != NULL)
 2840              		.loc 2 601 0
 2841 00ac D7F8B030 		ldr	r3, [r7, #176]
 2842 00b0 002B     		cmp	r3, #0
 2843 00b2 00F08980 		beq	.L209
 602:C:/Users/dtjld/Desktop/AIoT_software/LiteOS_Lab_overseas/LiteOS_Lab/iot_link/network/lwm2m/wakaama_lwm2m/core\observe.c ****                     {
 603:C:/Users/dtjld/Desktop/AIoT_software/LiteOS_Lab_overseas/LiteOS_Lab/iot_link/network/lwm2m/wakaama_lwm2m/core\observe.c ****                         lwm2m_free(buffer);
 2844              		.loc 2 603 0
 2845 00b6 D7F8B030 		ldr	r3, [r7, #176]
 2846 00ba 1846     		mov	r0, r3
 2847 00bc FFF7FEFF 		bl	lwm2m_free
 604:C:/Users/dtjld/Desktop/AIoT_software/LiteOS_Lab_overseas/LiteOS_Lab/iot_link/network/lwm2m/wakaama_lwm2m/core\observe.c ****                     }
 605:C:/Users/dtjld/Desktop/AIoT_software/LiteOS_Lab_overseas/LiteOS_Lab/iot_link/network/lwm2m/wakaama_lwm2m/core\observe.c ****                     break;
 2848              		.loc 2 605 0
 2849 00c0 82E0     		b	.L209
 2850              	.L199:
 606:C:/Users/dtjld/Desktop/AIoT_software/LiteOS_Lab_overseas/LiteOS_Lab/iot_link/network/lwm2m/wakaama_lwm2m/core\observe.c ****                 }
 607:C:/Users/dtjld/Desktop/AIoT_software/LiteOS_Lab_overseas/LiteOS_Lab/iot_link/network/lwm2m/wakaama_lwm2m/core\observe.c ****                 else
 608:C:/Users/dtjld/Desktop/AIoT_software/LiteOS_Lab_overseas/LiteOS_Lab/iot_link/network/lwm2m/wakaama_lwm2m/core\observe.c ****                 {
 609:C:/Users/dtjld/Desktop/AIoT_software/LiteOS_Lab_overseas/LiteOS_Lab/iot_link/network/lwm2m/wakaama_lwm2m/core\observe.c ****                     length = (size_t)res;
 2851              		.loc 2 609 0
 2852 00c2 D7F8B430 		ldr	r3, [r7, #180]
 2853 00c6 C7F8B830 		str	r3, [r7, #184]
 2854              	.L198:
 610:C:/Users/dtjld/Desktop/AIoT_software/LiteOS_Lab_overseas/LiteOS_Lab/iot_link/network/lwm2m/wakaama_lwm2m/core\observe.c ****                 }
 611:C:/Users/dtjld/Desktop/AIoT_software/LiteOS_Lab_overseas/LiteOS_Lab/iot_link/network/lwm2m/wakaama_lwm2m/core\observe.c ****             }
 612:C:/Users/dtjld/Desktop/AIoT_software/LiteOS_Lab_overseas/LiteOS_Lab/iot_link/network/lwm2m/wakaama_lwm2m/core\observe.c **** 
 613:C:/Users/dtjld/Desktop/AIoT_software/LiteOS_Lab_overseas/LiteOS_Lab/iot_link/network/lwm2m/wakaama_lwm2m/core\observe.c ****             if (watcherP->active == true)
 2855              		.loc 2 613 0
 2856 00ca D7F8BC30 		ldr	r3, [r7, #188]
 2857 00ce 1B79     		ldrb	r3, [r3, #4]	@ zero_extendqisi2
 2858 00d0 002B     		cmp	r3, #0
 2859 00d2 6ED0     		beq	.L203
 614:C:/Users/dtjld/Desktop/AIoT_software/LiteOS_Lab_overseas/LiteOS_Lab/iot_link/network/lwm2m/wakaama_lwm2m/core\observe.c ****             {
 615:C:/Users/dtjld/Desktop/AIoT_software/LiteOS_Lab_overseas/LiteOS_Lab/iot_link/network/lwm2m/wakaama_lwm2m/core\observe.c ****                 watcherP->lastTime = currentTime;
 2860              		.loc 2 615 0
 2861 00d4 D7F8BC20 		ldr	r2, [r7, #188]
ARM GAS  C:\Users\dtjld\AppData\Local\Temp\ccRVA30A.s 			page 71


 2862 00d8 D7E90034 		ldrd	r3, [r7]
 2863 00dc C2E90834 		strd	r3, [r2, #32]
 616:C:/Users/dtjld/Desktop/AIoT_software/LiteOS_Lab_overseas/LiteOS_Lab/iot_link/network/lwm2m/wakaama_lwm2m/core\observe.c ****                 watcherP->lastMid = contextP->nextMID++;
 2864              		.loc 2 616 0
 2865 00e0 FB68     		ldr	r3, [r7, #12]
 2866 00e2 9B8D     		ldrh	r3, [r3, #44]
 2867 00e4 5A1C     		adds	r2, r3, #1
 2868 00e6 91B2     		uxth	r1, r2
 2869 00e8 FA68     		ldr	r2, [r7, #12]
 2870 00ea 9185     		strh	r1, [r2, #44]	@ movhi
 2871 00ec D7F8BC20 		ldr	r2, [r7, #188]
 2872 00f0 9385     		strh	r3, [r2, #44]	@ movhi
 617:C:/Users/dtjld/Desktop/AIoT_software/LiteOS_Lab_overseas/LiteOS_Lab/iot_link/network/lwm2m/wakaama_lwm2m/core\observe.c **** 
 618:C:/Users/dtjld/Desktop/AIoT_software/LiteOS_Lab_overseas/LiteOS_Lab/iot_link/network/lwm2m/wakaama_lwm2m/core\observe.c ****                 if (cfg.callback == NULL)
 2873              		.loc 2 618 0
 2874 00f2 D7F8A830 		ldr	r3, [r7, #168]
 2875 00f6 002B     		cmp	r3, #0
 2876 00f8 4ED1     		bne	.L204
 2877              	.LBB9:
 619:C:/Users/dtjld/Desktop/AIoT_software/LiteOS_Lab_overseas/LiteOS_Lab/iot_link/network/lwm2m/wakaama_lwm2m/core\observe.c ****                 {
 620:C:/Users/dtjld/Desktop/AIoT_software/LiteOS_Lab_overseas/LiteOS_Lab/iot_link/network/lwm2m/wakaama_lwm2m/core\observe.c ****                     coap_packet_t message[1];
 621:C:/Users/dtjld/Desktop/AIoT_software/LiteOS_Lab_overseas/LiteOS_Lab/iot_link/network/lwm2m/wakaama_lwm2m/core\observe.c ****                     coap_init_message(message, COAP_TYPE_NON, COAP_205_CONTENT, 0);
 2878              		.loc 2 621 0
 2879 00fa 07F11000 		add	r0, r7, #16
 2880 00fe 0023     		movs	r3, #0
 2881 0100 4522     		movs	r2, #69
 2882 0102 0121     		movs	r1, #1
 2883 0104 FFF7FEFF 		bl	coap_init_message
 622:C:/Users/dtjld/Desktop/AIoT_software/LiteOS_Lab_overseas/LiteOS_Lab/iot_link/network/lwm2m/wakaama_lwm2m/core\observe.c ****                     coap_set_header_content_type(message, watcherP->format);
 2884              		.loc 2 622 0
 2885 0108 D7F8BC30 		ldr	r3, [r7, #188]
 2886 010c 1B8A     		ldrh	r3, [r3, #16]
 2887 010e 1A46     		mov	r2, r3
 2888 0110 07F11003 		add	r3, r7, #16
 2889 0114 1146     		mov	r1, r2
 2890 0116 1846     		mov	r0, r3
 2891 0118 FFF7FEFF 		bl	coap_set_header_content_type
 623:C:/Users/dtjld/Desktop/AIoT_software/LiteOS_Lab_overseas/LiteOS_Lab/iot_link/network/lwm2m/wakaama_lwm2m/core\observe.c ****                     coap_set_payload(message, buffer, length);
 2892              		.loc 2 623 0
 2893 011c D7F8B010 		ldr	r1, [r7, #176]
 2894 0120 07F11003 		add	r3, r7, #16
 2895 0124 D7F8B820 		ldr	r2, [r7, #184]
 2896 0128 1846     		mov	r0, r3
 2897 012a FFF7FEFF 		bl	coap_set_payload
 624:C:/Users/dtjld/Desktop/AIoT_software/LiteOS_Lab_overseas/LiteOS_Lab/iot_link/network/lwm2m/wakaama_lwm2m/core\observe.c ****                     message->mid = watcherP->lastMid;
 2898              		.loc 2 624 0
 2899 012e D7F8BC30 		ldr	r3, [r7, #188]
 2900 0132 9B8D     		ldrh	r3, [r3, #44]
 2901 0134 3B83     		strh	r3, [r7, #24]	@ movhi
 625:C:/Users/dtjld/Desktop/AIoT_software/LiteOS_Lab_overseas/LiteOS_Lab/iot_link/network/lwm2m/wakaama_lwm2m/core\observe.c ****                     coap_set_header_token(message, watcherP->token, watcherP->tokenLen);
 2902              		.loc 2 625 0
 2903 0136 D7F8BC30 		ldr	r3, [r7, #188]
 2904 013a 03F11201 		add	r1, r3, #18
 2905 013e D7F8BC30 		ldr	r3, [r7, #188]
 2906 0142 DA69     		ldr	r2, [r3, #28]
 2907 0144 07F11003 		add	r3, r7, #16
 2908 0148 1846     		mov	r0, r3
ARM GAS  C:\Users\dtjld\AppData\Local\Temp\ccRVA30A.s 			page 72


 2909 014a FFF7FEFF 		bl	coap_set_header_token
 626:C:/Users/dtjld/Desktop/AIoT_software/LiteOS_Lab_overseas/LiteOS_Lab/iot_link/network/lwm2m/wakaama_lwm2m/core\observe.c ****                     coap_set_header_observe(message, watcherP->counter++);
 2910              		.loc 2 626 0
 2911 014e D7F8BC30 		ldr	r3, [r7, #188]
 2912 0152 9B6A     		ldr	r3, [r3, #40]
 2913 0154 591C     		adds	r1, r3, #1
 2914 0156 D7F8BC20 		ldr	r2, [r7, #188]
 2915 015a 9162     		str	r1, [r2, #40]
 2916 015c 07F11002 		add	r2, r7, #16
 2917 0160 1946     		mov	r1, r3
 2918 0162 1046     		mov	r0, r2
 2919 0164 FFF7FEFF 		bl	coap_set_header_observe
 627:C:/Users/dtjld/Desktop/AIoT_software/LiteOS_Lab_overseas/LiteOS_Lab/iot_link/network/lwm2m/wakaama_lwm2m/core\observe.c ****                     (void)message_send(contextP, message, watcherP->server->sessionH);
 2920              		.loc 2 627 0
 2921 0168 D7F8BC30 		ldr	r3, [r7, #188]
 2922 016c 9B68     		ldr	r3, [r3, #8]
 2923 016e DA69     		ldr	r2, [r3, #28]
 2924 0170 07F11003 		add	r3, r7, #16
 2925 0174 1946     		mov	r1, r3
 2926 0176 F868     		ldr	r0, [r7, #12]
 2927 0178 FFF7FEFF 		bl	message_send
 628:C:/Users/dtjld/Desktop/AIoT_software/LiteOS_Lab_overseas/LiteOS_Lab/iot_link/network/lwm2m/wakaama_lwm2m/core\observe.c ****                     LOG_ARG("notify no con msg, msgid:", message->mid);
 2928              		.loc 2 628 0
 2929 017c FFF7FEFF 		bl	lwm2m_gettime
 2930 0180 0346     		mov	r3, r0
 2931 0182 0C46     		mov	r4, r1
 2932 0184 1946     		mov	r1, r3
 2933 0186 3B8B     		ldrh	r3, [r7, #24]
 2934 0188 0093     		str	r3, [sp]
 2935 018a 4FF41D73 		mov	r3, #628
 2936 018e 2E4A     		ldr	r2, .L211
 2937 0190 2F48     		ldr	r0, .L211+8
 2938 0192 FFF7FEFF 		bl	atiny_printf
 2939              	.LBE9:
 2940 0196 0CE0     		b	.L203
 2941              	.L204:
 629:C:/Users/dtjld/Desktop/AIoT_software/LiteOS_Lab_overseas/LiteOS_Lab/iot_link/network/lwm2m/wakaama_lwm2m/core\observe.c ****                 }
 630:C:/Users/dtjld/Desktop/AIoT_software/LiteOS_Lab_overseas/LiteOS_Lab/iot_link/network/lwm2m/wakaama_lwm2m/core\observe.c ****                 else
 631:C:/Users/dtjld/Desktop/AIoT_software/LiteOS_Lab_overseas/LiteOS_Lab/iot_link/network/lwm2m/wakaama_lwm2m/core\observe.c ****                 {
 632:C:/Users/dtjld/Desktop/AIoT_software/LiteOS_Lab_overseas/LiteOS_Lab/iot_link/network/lwm2m/wakaama_lwm2m/core\observe.c ****                     (void)observe_send_transaction(contextP, &cfg, watcherP, buffer, length);
 2942              		.loc 2 632 0
 2943 0198 D7F8B020 		ldr	r2, [r7, #176]
 2944 019c 07F1A001 		add	r1, r7, #160
 2945 01a0 D7F8B830 		ldr	r3, [r7, #184]
 2946 01a4 0093     		str	r3, [sp]
 2947 01a6 1346     		mov	r3, r2
 2948 01a8 D7F8BC20 		ldr	r2, [r7, #188]
 2949 01ac F868     		ldr	r0, [r7, #12]
 2950 01ae FFF7FEFF 		bl	observe_send_transaction
 2951              	.L203:
 2952              	.LBE8:
 588:C:/Users/dtjld/Desktop/AIoT_software/LiteOS_Lab_overseas/LiteOS_Lab/iot_link/network/lwm2m/wakaama_lwm2m/core\observe.c ****         {
 2953              		.loc 2 588 0 discriminator 2
 2954 01b2 D7F8BC30 		ldr	r3, [r7, #188]
 2955 01b6 1B68     		ldr	r3, [r3]
 2956 01b8 C7F8BC30 		str	r3, [r7, #188]
 2957              	.L197:
ARM GAS  C:\Users\dtjld\AppData\Local\Temp\ccRVA30A.s 			page 73


 588:C:/Users/dtjld/Desktop/AIoT_software/LiteOS_Lab_overseas/LiteOS_Lab/iot_link/network/lwm2m/wakaama_lwm2m/core\observe.c ****         {
 2958              		.loc 2 588 0 is_stmt 0 discriminator 1
 2959 01bc D7F8BC30 		ldr	r3, [r7, #188]
 2960 01c0 002B     		cmp	r3, #0
 2961 01c2 7FF44AAF 		bne	.L205
 2962 01c6 00E0     		b	.L202
 2963              	.L209:
 2964              	.LBB10:
 605:C:/Users/dtjld/Desktop/AIoT_software/LiteOS_Lab_overseas/LiteOS_Lab/iot_link/network/lwm2m/wakaama_lwm2m/core\observe.c ****                 }
 2965              		.loc 2 605 0 is_stmt 1
 2966 01c8 00BF     		nop
 2967              	.L202:
 2968              	.LBE10:
 633:C:/Users/dtjld/Desktop/AIoT_software/LiteOS_Lab_overseas/LiteOS_Lab/iot_link/network/lwm2m/wakaama_lwm2m/core\observe.c ****                 }
 634:C:/Users/dtjld/Desktop/AIoT_software/LiteOS_Lab_overseas/LiteOS_Lab/iot_link/network/lwm2m/wakaama_lwm2m/core\observe.c ****             }
 635:C:/Users/dtjld/Desktop/AIoT_software/LiteOS_Lab_overseas/LiteOS_Lab/iot_link/network/lwm2m/wakaama_lwm2m/core\observe.c ****         }
 636:C:/Users/dtjld/Desktop/AIoT_software/LiteOS_Lab_overseas/LiteOS_Lab/iot_link/network/lwm2m/wakaama_lwm2m/core\observe.c **** 
 637:C:/Users/dtjld/Desktop/AIoT_software/LiteOS_Lab_overseas/LiteOS_Lab/iot_link/network/lwm2m/wakaama_lwm2m/core\observe.c ****         if (dataP != NULL)
 2969              		.loc 2 637 0
 2970 01ca D7F8AC30 		ldr	r3, [r7, #172]
 2971 01ce 002B     		cmp	r3, #0
 2972 01d0 0AD0     		beq	.L206
 638:C:/Users/dtjld/Desktop/AIoT_software/LiteOS_Lab_overseas/LiteOS_Lab/iot_link/network/lwm2m/wakaama_lwm2m/core\observe.c ****         {
 639:C:/Users/dtjld/Desktop/AIoT_software/LiteOS_Lab_overseas/LiteOS_Lab/iot_link/network/lwm2m/wakaama_lwm2m/core\observe.c ****             lwm2m_data_free(size, dataP);
 2973              		.loc 2 639 0
 2974 01d2 D7F89C30 		ldr	r3, [r7, #156]
 2975 01d6 D7F8AC20 		ldr	r2, [r7, #172]
 2976 01da 1146     		mov	r1, r2
 2977 01dc 1846     		mov	r0, r3
 2978 01de FFF7FEFF 		bl	lwm2m_data_free
 640:C:/Users/dtjld/Desktop/AIoT_software/LiteOS_Lab_overseas/LiteOS_Lab/iot_link/network/lwm2m/wakaama_lwm2m/core\observe.c ****             dataP = NULL;
 2979              		.loc 2 640 0
 2980 01e2 0023     		movs	r3, #0
 2981 01e4 C7F8AC30 		str	r3, [r7, #172]
 2982              	.L206:
 641:C:/Users/dtjld/Desktop/AIoT_software/LiteOS_Lab_overseas/LiteOS_Lab/iot_link/network/lwm2m/wakaama_lwm2m/core\observe.c ****         }
 642:C:/Users/dtjld/Desktop/AIoT_software/LiteOS_Lab_overseas/LiteOS_Lab/iot_link/network/lwm2m/wakaama_lwm2m/core\observe.c ****         if (buffer != NULL)
 2983              		.loc 2 642 0
 2984 01e8 D7F8B030 		ldr	r3, [r7, #176]
 2985 01ec 002B     		cmp	r3, #0
 2986 01ee 07D0     		beq	.L196
 643:C:/Users/dtjld/Desktop/AIoT_software/LiteOS_Lab_overseas/LiteOS_Lab/iot_link/network/lwm2m/wakaama_lwm2m/core\observe.c ****         {
 644:C:/Users/dtjld/Desktop/AIoT_software/LiteOS_Lab_overseas/LiteOS_Lab/iot_link/network/lwm2m/wakaama_lwm2m/core\observe.c ****             lwm2m_free(buffer);
 2987              		.loc 2 644 0
 2988 01f0 D7F8B030 		ldr	r3, [r7, #176]
 2989 01f4 1846     		mov	r0, r3
 2990 01f6 FFF7FEFF 		bl	lwm2m_free
 645:C:/Users/dtjld/Desktop/AIoT_software/LiteOS_Lab_overseas/LiteOS_Lab/iot_link/network/lwm2m/wakaama_lwm2m/core\observe.c ****             buffer = NULL;
 2991              		.loc 2 645 0
 2992 01fa 0023     		movs	r3, #0
 2993 01fc C7F8B030 		str	r3, [r7, #176]
 2994              	.L196:
 585:C:/Users/dtjld/Desktop/AIoT_software/LiteOS_Lab_overseas/LiteOS_Lab/iot_link/network/lwm2m/wakaama_lwm2m/core\observe.c ****     {
 2995              		.loc 2 585 0
 2996 0200 BB68     		ldr	r3, [r7, #8]
 2997 0202 191D     		adds	r1, r3, #4
 2998 0204 07F1AC00 		add	r0, r7, #172
ARM GAS  C:\Users\dtjld\AppData\Local\Temp\ccRVA30A.s 			page 74


 2999 0208 07F19C02 		add	r2, r7, #156
 3000 020c 0023     		movs	r3, #0
 3001 020e 0193     		str	r3, [sp, #4]
 3002 0210 07F1A003 		add	r3, r7, #160
 3003 0214 0093     		str	r3, [sp]
 3004 0216 0346     		mov	r3, r0
 3005 0218 F868     		ldr	r0, [r7, #12]
 3006 021a FFF7FEFF 		bl	object_readData
 3007 021e 0346     		mov	r3, r0
 3008 0220 452B     		cmp	r3, #69
 3009 0222 3FF415AF 		beq	.L207
 646:C:/Users/dtjld/Desktop/AIoT_software/LiteOS_Lab_overseas/LiteOS_Lab/iot_link/network/lwm2m/wakaama_lwm2m/core\observe.c ****         }
 647:C:/Users/dtjld/Desktop/AIoT_software/LiteOS_Lab_overseas/LiteOS_Lab/iot_link/network/lwm2m/wakaama_lwm2m/core\observe.c ****     }
 648:C:/Users/dtjld/Desktop/AIoT_software/LiteOS_Lab_overseas/LiteOS_Lab/iot_link/network/lwm2m/wakaama_lwm2m/core\observe.c **** 
 649:C:/Users/dtjld/Desktop/AIoT_software/LiteOS_Lab_overseas/LiteOS_Lab/iot_link/network/lwm2m/wakaama_lwm2m/core\observe.c ****     if (dataP != NULL)
 3010              		.loc 2 649 0
 3011 0226 D7F8AC30 		ldr	r3, [r7, #172]
 3012 022a 002B     		cmp	r3, #0
 3013 022c 07D0     		beq	.L210
 650:C:/Users/dtjld/Desktop/AIoT_software/LiteOS_Lab_overseas/LiteOS_Lab/iot_link/network/lwm2m/wakaama_lwm2m/core\observe.c ****     {
 651:C:/Users/dtjld/Desktop/AIoT_software/LiteOS_Lab_overseas/LiteOS_Lab/iot_link/network/lwm2m/wakaama_lwm2m/core\observe.c ****         lwm2m_data_free(size, dataP);
 3014              		.loc 2 651 0
 3015 022e D7F89C30 		ldr	r3, [r7, #156]
 3016 0232 D7F8AC20 		ldr	r2, [r7, #172]
 3017 0236 1146     		mov	r1, r2
 3018 0238 1846     		mov	r0, r3
 3019 023a FFF7FEFF 		bl	lwm2m_data_free
 3020              	.L210:
 652:C:/Users/dtjld/Desktop/AIoT_software/LiteOS_Lab_overseas/LiteOS_Lab/iot_link/network/lwm2m/wakaama_lwm2m/core\observe.c ****     }
 653:C:/Users/dtjld/Desktop/AIoT_software/LiteOS_Lab_overseas/LiteOS_Lab/iot_link/network/lwm2m/wakaama_lwm2m/core\observe.c **** }
 3021              		.loc 2 653 0
 3022 023e 00BF     		nop
 3023 0240 C437     		adds	r7, r7, #196
 3024              	.LCFI73:
 3025              		.cfi_def_cfa_offset 12
 3026 0242 BD46     		mov	sp, r7
 3027              	.LCFI74:
 3028              		.cfi_def_cfa_register 13
 3029              		@ sp needed
 3030 0244 90BD     		pop	{r4, r7, pc}
 3031              	.L212:
 3032 0246 00BF     		.align	2
 3033              	.L211:
 3034 0248 00000000 		.word	__func__.8638
 3035 024c 78030000 		.word	.LC32
 3036 0250 90030000 		.word	.LC33
 3037              		.cfi_endproc
 3038              	.LFE16:
 3040              		.section	.rodata
 3041              		.align	2
 3042              	.LC34:
 3043 03b8 5B25645D 		.ascii	"[%d][%s:%d] Notify with no conditions\015\012\000"
 3043      5B25733A 
 3043      25645D20 
 3043      4E6F7469 
 3043      66792077 
 3044              		.align	2
ARM GAS  C:\Users\dtjld\AppData\Local\Temp\ccRVA30A.s 			page 75


 3045              	.LC35:
 3046 03e0 5B25645D 		.ascii	"[%d][%s:%d] Checking lower threshold\015\012\000"
 3046      5B25733A 
 3046      25645D20 
 3046      43686563 
 3046      6B696E67 
 3047              		.global	__aeabi_l2d
 3048              		.global	__aeabi_dcmple
 3049              		.global	__aeabi_dcmpgt
 3050              		.global	__aeabi_dcmpge
 3051              		.global	__aeabi_dcmplt
 3052 0407 00       		.align	2
 3053              	.LC36:
 3054 0408 5B25645D 		.ascii	"[%d][%s:%d] Notify on lower threshold crossing\015\012"
 3054      5B25733A 
 3054      25645D20 
 3054      4E6F7469 
 3054      6679206F 
 3055 0438 00       		.ascii	"\000"
 3056 0439 000000   		.align	2
 3057              	.LC37:
 3058 043c 5B25645D 		.ascii	"[%d][%s:%d] Checking upper threshold\015\012\000"
 3058      5B25733A 
 3058      25645D20 
 3058      43686563 
 3058      6B696E67 
 3059 0463 00       		.align	2
 3060              	.LC38:
 3061 0464 5B25645D 		.ascii	"[%d][%s:%d] Notify on lower upper crossing\015\012\000"
 3061      5B25733A 
 3061      25645D20 
 3061      4E6F7469 
 3061      6679206F 
 3062 0491 000000   		.align	2
 3063              	.LC39:
 3064 0494 5B25645D 		.ascii	"[%d][%s:%d] Checking step\015\012\000"
 3064      5B25733A 
 3064      25645D20 
 3064      43686563 
 3064      6B696E67 
 3065              		.align	2
 3066              	.LC40:
 3067 04b0 5B25645D 		.ascii	"[%d][%s:%d] Notify on step condition\015\012\000"
 3067      5B25733A 
 3067      25645D20 
 3067      4E6F7469 
 3067      6679206F 
 3068              		.global	__aeabi_dsub
 3069 04d7 00       		.align	2
 3070              	.LC41:
 3071 04d8 5B25645D 		.ascii	"[%d][%s:%d] Checking minimal period (%d s)\015\012\000"
 3071      5B25733A 
 3071      25645D20 
 3071      43686563 
 3071      6B696E67 
 3072 0505 000000   		.align	2
 3073              	.LC42:
ARM GAS  C:\Users\dtjld\AppData\Local\Temp\ccRVA30A.s 			page 76


 3074 0508 5B25645D 		.ascii	"[%d][%s:%d] Notify on minimal period\015\012\000"
 3074      5B25733A 
 3074      25645D20 
 3074      4E6F7469 
 3074      6679206F 
 3075 052f 00       		.align	2
 3076              	.LC43:
 3077 0530 5B25645D 		.ascii	"[%d][%s:%d] Checking maximal period (%d s)\015\012\000"
 3077      5B25733A 
 3077      25645D20 
 3077      43686563 
 3077      6B696E67 
 3078 055d 000000   		.align	2
 3079              	.LC44:
 3080 0560 5B25645D 		.ascii	"[%d][%s:%d] Notify on maximal period\015\012\000"
 3080      5B25733A 
 3080      25645D20 
 3080      4E6F7469 
 3080      6679206F 
 3081 0587 00       		.align	2
 3082              	.LC45:
 3083 0588 5B25645D 		.ascii	"[%d][%s:%d] non observe, msgid:\015\012\000"
 3083      5B25733A 
 3083      25645D20 
 3083      6E6F6E20 
 3083      6F627365 
 3084              		.section	.text.observe_step,"ax",%progbits
 3085              		.align	1
 3086              		.global	observe_step
 3087              		.syntax unified
 3088              		.thumb
 3089              		.thumb_func
 3090              		.fpu fpv4-sp-d16
 3092              	observe_step:
 3093              	.LFB17:
 654:C:/Users/dtjld/Desktop/AIoT_software/LiteOS_Lab_overseas/LiteOS_Lab/iot_link/network/lwm2m/wakaama_lwm2m/core\observe.c **** 
 655:C:/Users/dtjld/Desktop/AIoT_software/LiteOS_Lab_overseas/LiteOS_Lab/iot_link/network/lwm2m/wakaama_lwm2m/core\observe.c **** void observe_step(lwm2m_context_t *contextP,
 656:C:/Users/dtjld/Desktop/AIoT_software/LiteOS_Lab_overseas/LiteOS_Lab/iot_link/network/lwm2m/wakaama_lwm2m/core\observe.c ****                   time_t currentTime,
 657:C:/Users/dtjld/Desktop/AIoT_software/LiteOS_Lab_overseas/LiteOS_Lab/iot_link/network/lwm2m/wakaama_lwm2m/core\observe.c ****                   time_t *timeoutP)
 658:C:/Users/dtjld/Desktop/AIoT_software/LiteOS_Lab_overseas/LiteOS_Lab/iot_link/network/lwm2m/wakaama_lwm2m/core\observe.c **** {
 3094              		.loc 2 658 0
 3095              		.cfi_startproc
 3096              		@ args = 4, pretend = 0, frame = 248
 3097              		@ frame_needed = 1, uses_anonymous_args = 0
 3098 0000 2DE99048 		push	{r4, r7, fp, lr}
 3099              	.LCFI75:
 3100              		.cfi_def_cfa_offset 16
 3101              		.cfi_offset 4, -16
 3102              		.cfi_offset 7, -12
 3103              		.cfi_offset 11, -8
 3104              		.cfi_offset 14, -4
 3105 0004 C0B0     		sub	sp, sp, #256
 3106              	.LCFI76:
 3107              		.cfi_def_cfa_offset 272
 3108 0006 02AF     		add	r7, sp, #8
 3109              	.LCFI77:
 3110              		.cfi_def_cfa 7, 264
ARM GAS  C:\Users\dtjld\AppData\Local\Temp\ccRVA30A.s 			page 77


 3111 0008 F860     		str	r0, [r7, #12]
 3112 000a C7E90023 		strd	r2, [r7]
 659:C:/Users/dtjld/Desktop/AIoT_software/LiteOS_Lab_overseas/LiteOS_Lab/iot_link/network/lwm2m/wakaama_lwm2m/core\observe.c ****     lwm2m_observed_t *targetP;
 660:C:/Users/dtjld/Desktop/AIoT_software/LiteOS_Lab_overseas/LiteOS_Lab/iot_link/network/lwm2m/wakaama_lwm2m/core\observe.c **** 
 661:C:/Users/dtjld/Desktop/AIoT_software/LiteOS_Lab_overseas/LiteOS_Lab/iot_link/network/lwm2m/wakaama_lwm2m/core\observe.c ****     LOG("Entering");
 3113              		.loc 2 661 0
 3114 000e FFF7FEFF 		bl	lwm2m_gettime
 3115 0012 0346     		mov	r3, r0
 3116 0014 0C46     		mov	r4, r1
 3117 0016 1946     		mov	r1, r3
 3118 0018 40F29523 		movw	r3, #661
 3119 001c B24A     		ldr	r2, .L320
 3120 001e B348     		ldr	r0, .L320+4
 3121 0020 FFF7FEFF 		bl	atiny_printf
 662:C:/Users/dtjld/Desktop/AIoT_software/LiteOS_Lab_overseas/LiteOS_Lab/iot_link/network/lwm2m/wakaama_lwm2m/core\observe.c ****     for (targetP = contextP->observedList ; targetP != NULL ; targetP = targetP->next)
 3122              		.loc 2 662 0
 3123 0024 FB68     		ldr	r3, [r7, #12]
 3124 0026 DB69     		ldr	r3, [r3, #28]
 3125 0028 C7F8F430 		str	r3, [r7, #244]
 3126 002c 00F0AEBD 		b	.L214
 3127              	.L301:
 3128              	.LBB11:
 663:C:/Users/dtjld/Desktop/AIoT_software/LiteOS_Lab_overseas/LiteOS_Lab/iot_link/network/lwm2m/wakaama_lwm2m/core\observe.c ****     {
 664:C:/Users/dtjld/Desktop/AIoT_software/LiteOS_Lab_overseas/LiteOS_Lab/iot_link/network/lwm2m/wakaama_lwm2m/core\observe.c ****         lwm2m_watcher_t *watcherP;
 665:C:/Users/dtjld/Desktop/AIoT_software/LiteOS_Lab_overseas/LiteOS_Lab/iot_link/network/lwm2m/wakaama_lwm2m/core\observe.c ****         uint8_t *buffer = NULL;
 3129              		.loc 2 665 0
 3130 0030 0023     		movs	r3, #0
 3131 0032 C7F8C830 		str	r3, [r7, #200]
 666:C:/Users/dtjld/Desktop/AIoT_software/LiteOS_Lab_overseas/LiteOS_Lab/iot_link/network/lwm2m/wakaama_lwm2m/core\observe.c ****         size_t length = 0;
 3132              		.loc 2 666 0
 3133 0036 0023     		movs	r3, #0
 3134 0038 C7F8C430 		str	r3, [r7, #196]
 667:C:/Users/dtjld/Desktop/AIoT_software/LiteOS_Lab_overseas/LiteOS_Lab/iot_link/network/lwm2m/wakaama_lwm2m/core\observe.c ****         lwm2m_data_t *dataP = NULL;
 3135              		.loc 2 667 0
 3136 003c 0023     		movs	r3, #0
 3137 003e C7F8C030 		str	r3, [r7, #192]
 668:C:/Users/dtjld/Desktop/AIoT_software/LiteOS_Lab_overseas/LiteOS_Lab/iot_link/network/lwm2m/wakaama_lwm2m/core\observe.c ****         lwm2m_data_cfg_t  cfg = {0, 0, NULL};
 3138              		.loc 2 668 0
 3139 0042 0023     		movs	r3, #0
 3140 0044 C7F8B430 		str	r3, [r7, #180]
 3141 0048 0023     		movs	r3, #0
 3142 004a C7F8B830 		str	r3, [r7, #184]
 3143 004e 0023     		movs	r3, #0
 3144 0050 C7F8BC30 		str	r3, [r7, #188]
 669:C:/Users/dtjld/Desktop/AIoT_software/LiteOS_Lab_overseas/LiteOS_Lab/iot_link/network/lwm2m/wakaama_lwm2m/core\observe.c ****         int size = 0;
 3145              		.loc 2 669 0
 3146 0054 0023     		movs	r3, #0
 3147 0056 C7F8B030 		str	r3, [r7, #176]
 670:C:/Users/dtjld/Desktop/AIoT_software/LiteOS_Lab_overseas/LiteOS_Lab/iot_link/network/lwm2m/wakaama_lwm2m/core\observe.c ****         double floatValue = 0;
 3148              		.loc 2 670 0
 3149 005a 4FF00003 		mov	r3, #0
 3150 005e 4FF00004 		mov	r4, #0
 3151 0062 C7E92A34 		strd	r3, [r7, #168]
 671:C:/Users/dtjld/Desktop/AIoT_software/LiteOS_Lab_overseas/LiteOS_Lab/iot_link/network/lwm2m/wakaama_lwm2m/core\observe.c ****         int64_t integerValue = 0;
 3152              		.loc 2 671 0
 3153 0066 4FF00003 		mov	r3, #0
 3154 006a 4FF00004 		mov	r4, #0
ARM GAS  C:\Users\dtjld\AppData\Local\Temp\ccRVA30A.s 			page 78


 3155 006e C7E92834 		strd	r3, [r7, #160]
 672:C:/Users/dtjld/Desktop/AIoT_software/LiteOS_Lab_overseas/LiteOS_Lab/iot_link/network/lwm2m/wakaama_lwm2m/core\observe.c ****         bool storeValue = false;
 3156              		.loc 2 672 0
 3157 0072 0023     		movs	r3, #0
 3158 0074 87F8EF30 		strb	r3, [r7, #239]
 673:C:/Users/dtjld/Desktop/AIoT_software/LiteOS_Lab_overseas/LiteOS_Lab/iot_link/network/lwm2m/wakaama_lwm2m/core\observe.c ****         coap_packet_t message[1];
 674:C:/Users/dtjld/Desktop/AIoT_software/LiteOS_Lab_overseas/LiteOS_Lab/iot_link/network/lwm2m/wakaama_lwm2m/core\observe.c ****         time_t interval;
 675:C:/Users/dtjld/Desktop/AIoT_software/LiteOS_Lab_overseas/LiteOS_Lab/iot_link/network/lwm2m/wakaama_lwm2m/core\observe.c **** 
 676:C:/Users/dtjld/Desktop/AIoT_software/LiteOS_Lab_overseas/LiteOS_Lab/iot_link/network/lwm2m/wakaama_lwm2m/core\observe.c ****         LOG_URI(&(targetP->uri));
 3159              		.loc 2 676 0
 3160 0078 D7F8F430 		ldr	r3, [r7, #244]
 3161 007c 0433     		adds	r3, r3, #4
 3162 007e 002B     		cmp	r3, #0
 3163 0080 06D1     		bne	.L215
 3164              		.loc 2 676 0 is_stmt 0 discriminator 1
 3165 0082 4FF42972 		mov	r2, #676
 3166 0086 9849     		ldr	r1, .L320
 3167 0088 9948     		ldr	r0, .L320+8
 3168 008a FFF7FEFF 		bl	atiny_printf
 3169 008e 27E0     		b	.L216
 3170              	.L215:
 3171              		.loc 2 676 0 discriminator 2
 3172 0090 D7F8F430 		ldr	r3, [r7, #244]
 3173 0094 DB88     		ldrh	r3, [r3, #6]
 3174 0096 4FF42972 		mov	r2, #676
 3175 009a 9349     		ldr	r1, .L320
 3176 009c 9548     		ldr	r0, .L320+12
 3177 009e FFF7FEFF 		bl	atiny_printf
 3178 00a2 D7F8F430 		ldr	r3, [r7, #244]
 3179 00a6 1B79     		ldrb	r3, [r3, #4]	@ zero_extendqisi2
 3180 00a8 03F00203 		and	r3, r3, #2
 3181 00ac 002B     		cmp	r3, #0
 3182 00ae 06D0     		beq	.L217
 3183              		.loc 2 676 0 discriminator 3
 3184 00b0 D7F8F430 		ldr	r3, [r7, #244]
 3185 00b4 1B89     		ldrh	r3, [r3, #8]
 3186 00b6 1946     		mov	r1, r3
 3187 00b8 8F48     		ldr	r0, .L320+16
 3188 00ba FFF7FEFF 		bl	atiny_printf
 3189              	.L217:
 3190              		.loc 2 676 0 discriminator 5
 3191 00be D7F8F430 		ldr	r3, [r7, #244]
 3192 00c2 1B79     		ldrb	r3, [r3, #4]	@ zero_extendqisi2
 3193 00c4 03F00103 		and	r3, r3, #1
 3194 00c8 002B     		cmp	r3, #0
 3195 00ca 06D0     		beq	.L218
 3196              		.loc 2 676 0 discriminator 6
 3197 00cc D7F8F430 		ldr	r3, [r7, #244]
 3198 00d0 5B89     		ldrh	r3, [r3, #10]
 3199 00d2 1946     		mov	r1, r3
 3200 00d4 8848     		ldr	r0, .L320+16
 3201 00d6 FFF7FEFF 		bl	atiny_printf
 3202              	.L218:
 3203              		.loc 2 676 0 discriminator 8
 3204 00da 8848     		ldr	r0, .L320+20
 3205 00dc FFF7FEFF 		bl	atiny_printf
 3206              	.L216:
ARM GAS  C:\Users\dtjld\AppData\Local\Temp\ccRVA30A.s 			page 79


 677:C:/Users/dtjld/Desktop/AIoT_software/LiteOS_Lab_overseas/LiteOS_Lab/iot_link/network/lwm2m/wakaama_lwm2m/core\observe.c **** 
 678:C:/Users/dtjld/Desktop/AIoT_software/LiteOS_Lab_overseas/LiteOS_Lab/iot_link/network/lwm2m/wakaama_lwm2m/core\observe.c **** 
 679:C:/Users/dtjld/Desktop/AIoT_software/LiteOS_Lab_overseas/LiteOS_Lab/iot_link/network/lwm2m/wakaama_lwm2m/core\observe.c ****         if (dm_isUriOpaqueHandle(&(targetP->uri)))
 3207              		.loc 2 679 0 is_stmt 1
 3208 00e0 D7F8F430 		ldr	r3, [r7, #244]
 3209 00e4 0433     		adds	r3, r3, #4
 3210 00e6 1846     		mov	r0, r3
 3211 00e8 FFF7FEFF 		bl	dm_isUriOpaqueHandle
 3212 00ec 0346     		mov	r3, r0
 3213 00ee 002B     		cmp	r3, #0
 3214 00f0 0BD0     		beq	.L219
 680:C:/Users/dtjld/Desktop/AIoT_software/LiteOS_Lab_overseas/LiteOS_Lab/iot_link/network/lwm2m/wakaama_lwm2m/core\observe.c ****         {
 681:C:/Users/dtjld/Desktop/AIoT_software/LiteOS_Lab_overseas/LiteOS_Lab/iot_link/network/lwm2m/wakaama_lwm2m/core\observe.c ****             observe_app_step(contextP, targetP, currentTime, timeoutP);
 3215              		.loc 2 681 0
 3216 00f2 D7F80831 		ldr	r3, [r7, #264]
 3217 00f6 0093     		str	r3, [sp]
 3218 00f8 D7E90023 		ldrd	r2, [r7]
 3219 00fc D7F8F410 		ldr	r1, [r7, #244]
 3220 0100 F868     		ldr	r0, [r7, #12]
 3221 0102 FFF7FEFF 		bl	observe_app_step
 682:C:/Users/dtjld/Desktop/AIoT_software/LiteOS_Lab_overseas/LiteOS_Lab/iot_link/network/lwm2m/wakaama_lwm2m/core\observe.c ****             continue;
 3222              		.loc 2 682 0
 3223 0106 00F03CBD 		b	.L300
 3224              	.L219:
 683:C:/Users/dtjld/Desktop/AIoT_software/LiteOS_Lab_overseas/LiteOS_Lab/iot_link/network/lwm2m/wakaama_lwm2m/core\observe.c ****         }
 684:C:/Users/dtjld/Desktop/AIoT_software/LiteOS_Lab_overseas/LiteOS_Lab/iot_link/network/lwm2m/wakaama_lwm2m/core\observe.c **** 
 685:C:/Users/dtjld/Desktop/AIoT_software/LiteOS_Lab_overseas/LiteOS_Lab/iot_link/network/lwm2m/wakaama_lwm2m/core\observe.c ****         cfg.callback = NULL;
 3225              		.loc 2 685 0
 3226 010a 0023     		movs	r3, #0
 3227 010c C7F8BC30 		str	r3, [r7, #188]
 686:C:/Users/dtjld/Desktop/AIoT_software/LiteOS_Lab_overseas/LiteOS_Lab/iot_link/network/lwm2m/wakaama_lwm2m/core\observe.c ****         if (LWM2M_URI_IS_SET_RESOURCE(&targetP->uri))
 3228              		.loc 2 686 0
 3229 0110 D7F8F430 		ldr	r3, [r7, #244]
 3230 0114 1B79     		ldrb	r3, [r3, #4]	@ zero_extendqisi2
 3231 0116 03F00103 		and	r3, r3, #1
 3232 011a 002B     		cmp	r3, #0
 3233 011c 4DD0     		beq	.L312
 687:C:/Users/dtjld/Desktop/AIoT_software/LiteOS_Lab_overseas/LiteOS_Lab/iot_link/network/lwm2m/wakaama_lwm2m/core\observe.c ****         {
 688:C:/Users/dtjld/Desktop/AIoT_software/LiteOS_Lab_overseas/LiteOS_Lab/iot_link/network/lwm2m/wakaama_lwm2m/core\observe.c ****             if (COAP_205_CONTENT != object_readData(contextP, &targetP->uri, &size, &dataP, &cfg, 0
 3234              		.loc 2 688 0
 3235 011e D7F8F430 		ldr	r3, [r7, #244]
 3236 0122 191D     		adds	r1, r3, #4
 3237 0124 07F1C000 		add	r0, r7, #192
 3238 0128 07F1B002 		add	r2, r7, #176
 3239 012c 0023     		movs	r3, #0
 3240 012e 0193     		str	r3, [sp, #4]
 3241 0130 07F1B403 		add	r3, r7, #180
 3242 0134 0093     		str	r3, [sp]
 3243 0136 0346     		mov	r3, r0
 3244 0138 F868     		ldr	r0, [r7, #12]
 3245 013a FFF7FEFF 		bl	object_readData
 3246 013e 0346     		mov	r3, r0
 3247 0140 452B     		cmp	r3, #69
 3248 0142 40F01D85 		bne	.L313
 689:C:/Users/dtjld/Desktop/AIoT_software/LiteOS_Lab_overseas/LiteOS_Lab/iot_link/network/lwm2m/wakaama_lwm2m/core\observe.c ****             switch (dataP->type)
 3249              		.loc 2 689 0
 3250 0146 D7F8C030 		ldr	r3, [r7, #192]
ARM GAS  C:\Users\dtjld\AppData\Local\Temp\ccRVA30A.s 			page 80


 3251 014a 1B78     		ldrb	r3, [r3]	@ zero_extendqisi2
 3252 014c 062B     		cmp	r3, #6
 3253 014e 02D0     		beq	.L224
 3254 0150 072B     		cmp	r3, #7
 3255 0152 19D0     		beq	.L225
 690:C:/Users/dtjld/Desktop/AIoT_software/LiteOS_Lab_overseas/LiteOS_Lab/iot_link/network/lwm2m/wakaama_lwm2m/core\observe.c ****             {
 691:C:/Users/dtjld/Desktop/AIoT_software/LiteOS_Lab_overseas/LiteOS_Lab/iot_link/network/lwm2m/wakaama_lwm2m/core\observe.c ****             case LWM2M_TYPE_INTEGER:
 692:C:/Users/dtjld/Desktop/AIoT_software/LiteOS_Lab_overseas/LiteOS_Lab/iot_link/network/lwm2m/wakaama_lwm2m/core\observe.c ****                 if (1 != lwm2m_data_decode_int(dataP, &integerValue))
 693:C:/Users/dtjld/Desktop/AIoT_software/LiteOS_Lab_overseas/LiteOS_Lab/iot_link/network/lwm2m/wakaama_lwm2m/core\observe.c ****                 {
 694:C:/Users/dtjld/Desktop/AIoT_software/LiteOS_Lab_overseas/LiteOS_Lab/iot_link/network/lwm2m/wakaama_lwm2m/core\observe.c ****                     lwm2m_data_free(size, dataP);
 695:C:/Users/dtjld/Desktop/AIoT_software/LiteOS_Lab_overseas/LiteOS_Lab/iot_link/network/lwm2m/wakaama_lwm2m/core\observe.c ****                     continue;
 696:C:/Users/dtjld/Desktop/AIoT_software/LiteOS_Lab_overseas/LiteOS_Lab/iot_link/network/lwm2m/wakaama_lwm2m/core\observe.c ****                 }
 697:C:/Users/dtjld/Desktop/AIoT_software/LiteOS_Lab_overseas/LiteOS_Lab/iot_link/network/lwm2m/wakaama_lwm2m/core\observe.c ****                 storeValue = true;
 698:C:/Users/dtjld/Desktop/AIoT_software/LiteOS_Lab_overseas/LiteOS_Lab/iot_link/network/lwm2m/wakaama_lwm2m/core\observe.c ****                 break;
 699:C:/Users/dtjld/Desktop/AIoT_software/LiteOS_Lab_overseas/LiteOS_Lab/iot_link/network/lwm2m/wakaama_lwm2m/core\observe.c ****             case LWM2M_TYPE_FLOAT:
 700:C:/Users/dtjld/Desktop/AIoT_software/LiteOS_Lab_overseas/LiteOS_Lab/iot_link/network/lwm2m/wakaama_lwm2m/core\observe.c ****                 if (1 != lwm2m_data_decode_float(dataP, &floatValue))
 701:C:/Users/dtjld/Desktop/AIoT_software/LiteOS_Lab_overseas/LiteOS_Lab/iot_link/network/lwm2m/wakaama_lwm2m/core\observe.c ****                 {
 702:C:/Users/dtjld/Desktop/AIoT_software/LiteOS_Lab_overseas/LiteOS_Lab/iot_link/network/lwm2m/wakaama_lwm2m/core\observe.c ****                     lwm2m_data_free(size, dataP);
 703:C:/Users/dtjld/Desktop/AIoT_software/LiteOS_Lab_overseas/LiteOS_Lab/iot_link/network/lwm2m/wakaama_lwm2m/core\observe.c ****                     continue;
 704:C:/Users/dtjld/Desktop/AIoT_software/LiteOS_Lab_overseas/LiteOS_Lab/iot_link/network/lwm2m/wakaama_lwm2m/core\observe.c ****                 }
 705:C:/Users/dtjld/Desktop/AIoT_software/LiteOS_Lab_overseas/LiteOS_Lab/iot_link/network/lwm2m/wakaama_lwm2m/core\observe.c ****                 storeValue = true;
 706:C:/Users/dtjld/Desktop/AIoT_software/LiteOS_Lab_overseas/LiteOS_Lab/iot_link/network/lwm2m/wakaama_lwm2m/core\observe.c ****                 break;
 707:C:/Users/dtjld/Desktop/AIoT_software/LiteOS_Lab_overseas/LiteOS_Lab/iot_link/network/lwm2m/wakaama_lwm2m/core\observe.c ****             default:
 708:C:/Users/dtjld/Desktop/AIoT_software/LiteOS_Lab_overseas/LiteOS_Lab/iot_link/network/lwm2m/wakaama_lwm2m/core\observe.c ****                 break;
 3256              		.loc 2 708 0
 3257 0154 32E0     		b	.L221
 3258              	.L224:
 692:C:/Users/dtjld/Desktop/AIoT_software/LiteOS_Lab_overseas/LiteOS_Lab/iot_link/network/lwm2m/wakaama_lwm2m/core\observe.c ****                 {
 3259              		.loc 2 692 0
 3260 0156 D7F8C030 		ldr	r3, [r7, #192]
 3261 015a 07F1A002 		add	r2, r7, #160
 3262 015e 1146     		mov	r1, r2
 3263 0160 1846     		mov	r0, r3
 3264 0162 FFF7FEFF 		bl	lwm2m_data_decode_int
 3265 0166 0346     		mov	r3, r0
 3266 0168 012B     		cmp	r3, #1
 3267 016a 09D0     		beq	.L226
 694:C:/Users/dtjld/Desktop/AIoT_software/LiteOS_Lab_overseas/LiteOS_Lab/iot_link/network/lwm2m/wakaama_lwm2m/core\observe.c ****                     continue;
 3268              		.loc 2 694 0
 3269 016c D7F8B030 		ldr	r3, [r7, #176]
 3270 0170 D7F8C020 		ldr	r2, [r7, #192]
 3271 0174 1146     		mov	r1, r2
 3272 0176 1846     		mov	r0, r3
 3273 0178 FFF7FEFF 		bl	lwm2m_data_free
 695:C:/Users/dtjld/Desktop/AIoT_software/LiteOS_Lab_overseas/LiteOS_Lab/iot_link/network/lwm2m/wakaama_lwm2m/core\observe.c ****                 }
 3274              		.loc 2 695 0
 3275 017c 00F001BD 		b	.L300
 3276              	.L226:
 697:C:/Users/dtjld/Desktop/AIoT_software/LiteOS_Lab_overseas/LiteOS_Lab/iot_link/network/lwm2m/wakaama_lwm2m/core\observe.c ****                 break;
 3277              		.loc 2 697 0
 3278 0180 0123     		movs	r3, #1
 3279 0182 87F8EF30 		strb	r3, [r7, #239]
 698:C:/Users/dtjld/Desktop/AIoT_software/LiteOS_Lab_overseas/LiteOS_Lab/iot_link/network/lwm2m/wakaama_lwm2m/core\observe.c ****             case LWM2M_TYPE_FLOAT:
 3280              		.loc 2 698 0
 3281 0186 19E0     		b	.L221
 3282              	.L225:
 700:C:/Users/dtjld/Desktop/AIoT_software/LiteOS_Lab_overseas/LiteOS_Lab/iot_link/network/lwm2m/wakaama_lwm2m/core\observe.c ****                 {
ARM GAS  C:\Users\dtjld\AppData\Local\Temp\ccRVA30A.s 			page 81


 3283              		.loc 2 700 0
 3284 0188 D7F8C030 		ldr	r3, [r7, #192]
 3285 018c 07F1A802 		add	r2, r7, #168
 3286 0190 1146     		mov	r1, r2
 3287 0192 1846     		mov	r0, r3
 3288 0194 FFF7FEFF 		bl	lwm2m_data_decode_float
 3289 0198 0346     		mov	r3, r0
 3290 019a 012B     		cmp	r3, #1
 3291 019c 09D0     		beq	.L227
 702:C:/Users/dtjld/Desktop/AIoT_software/LiteOS_Lab_overseas/LiteOS_Lab/iot_link/network/lwm2m/wakaama_lwm2m/core\observe.c ****                     continue;
 3292              		.loc 2 702 0
 3293 019e D7F8B030 		ldr	r3, [r7, #176]
 3294 01a2 D7F8C020 		ldr	r2, [r7, #192]
 3295 01a6 1146     		mov	r1, r2
 3296 01a8 1846     		mov	r0, r3
 3297 01aa FFF7FEFF 		bl	lwm2m_data_free
 703:C:/Users/dtjld/Desktop/AIoT_software/LiteOS_Lab_overseas/LiteOS_Lab/iot_link/network/lwm2m/wakaama_lwm2m/core\observe.c ****                 }
 3298              		.loc 2 703 0
 3299 01ae 00F0E8BC 		b	.L300
 3300              	.L227:
 705:C:/Users/dtjld/Desktop/AIoT_software/LiteOS_Lab_overseas/LiteOS_Lab/iot_link/network/lwm2m/wakaama_lwm2m/core\observe.c ****                 break;
 3301              		.loc 2 705 0
 3302 01b2 0123     		movs	r3, #1
 3303 01b4 87F8EF30 		strb	r3, [r7, #239]
 706:C:/Users/dtjld/Desktop/AIoT_software/LiteOS_Lab_overseas/LiteOS_Lab/iot_link/network/lwm2m/wakaama_lwm2m/core\observe.c ****             default:
 3304              		.loc 2 706 0
 3305 01b8 00E0     		b	.L221
 3306              	.L312:
 709:C:/Users/dtjld/Desktop/AIoT_software/LiteOS_Lab_overseas/LiteOS_Lab/iot_link/network/lwm2m/wakaama_lwm2m/core\observe.c ****             }
 710:C:/Users/dtjld/Desktop/AIoT_software/LiteOS_Lab_overseas/LiteOS_Lab/iot_link/network/lwm2m/wakaama_lwm2m/core\observe.c ****         }
 3307              		.loc 2 710 0
 3308 01ba 00BF     		nop
 3309              	.L221:
 711:C:/Users/dtjld/Desktop/AIoT_software/LiteOS_Lab_overseas/LiteOS_Lab/iot_link/network/lwm2m/wakaama_lwm2m/core\observe.c ****         for (watcherP = targetP->watcherList ; watcherP != NULL ; watcherP = watcherP->next)
 3310              		.loc 2 711 0
 3311 01bc D7F8F430 		ldr	r3, [r7, #244]
 3312 01c0 DB68     		ldr	r3, [r3, #12]
 3313 01c2 C7F8F030 		str	r3, [r7, #240]
 3314 01c6 00F0BEBC 		b	.L228
 3315              	.L297:
 712:C:/Users/dtjld/Desktop/AIoT_software/LiteOS_Lab_overseas/LiteOS_Lab/iot_link/network/lwm2m/wakaama_lwm2m/core\observe.c ****         {
 713:C:/Users/dtjld/Desktop/AIoT_software/LiteOS_Lab_overseas/LiteOS_Lab/iot_link/network/lwm2m/wakaama_lwm2m/core\observe.c ****             if (watcherP->active == true)
 3316              		.loc 2 713 0
 3317 01ca D7F8F030 		ldr	r3, [r7, #240]
 3318 01ce 1B79     		ldrb	r3, [r3, #4]	@ zero_extendqisi2
 3319 01d0 002B     		cmp	r3, #0
 3320 01d2 00F0B384 		beq	.L229
 3321              	.LBB12:
 714:C:/Users/dtjld/Desktop/AIoT_software/LiteOS_Lab_overseas/LiteOS_Lab/iot_link/network/lwm2m/wakaama_lwm2m/core\observe.c ****             {
 715:C:/Users/dtjld/Desktop/AIoT_software/LiteOS_Lab_overseas/LiteOS_Lab/iot_link/network/lwm2m/wakaama_lwm2m/core\observe.c ****                 bool notify = false;
 3322              		.loc 2 715 0
 3323 01d6 0023     		movs	r3, #0
 3324 01d8 87F8EE30 		strb	r3, [r7, #238]
 716:C:/Users/dtjld/Desktop/AIoT_software/LiteOS_Lab_overseas/LiteOS_Lab/iot_link/network/lwm2m/wakaama_lwm2m/core\observe.c **** 
 717:C:/Users/dtjld/Desktop/AIoT_software/LiteOS_Lab_overseas/LiteOS_Lab/iot_link/network/lwm2m/wakaama_lwm2m/core\observe.c ****                 if (watcherP->update == true)
 3325              		.loc 2 717 0
 3326 01dc D7F8F030 		ldr	r3, [r7, #240]
ARM GAS  C:\Users\dtjld\AppData\Local\Temp\ccRVA30A.s 			page 82


 3327 01e0 5B79     		ldrb	r3, [r3, #5]	@ zero_extendqisi2
 3328 01e2 002B     		cmp	r3, #0
 3329 01e4 00F04083 		beq	.L230
 718:C:/Users/dtjld/Desktop/AIoT_software/LiteOS_Lab_overseas/LiteOS_Lab/iot_link/network/lwm2m/wakaama_lwm2m/core\observe.c ****                 {
 719:C:/Users/dtjld/Desktop/AIoT_software/LiteOS_Lab_overseas/LiteOS_Lab/iot_link/network/lwm2m/wakaama_lwm2m/core\observe.c ****                     // value changed, should we notify the server ?
 720:C:/Users/dtjld/Desktop/AIoT_software/LiteOS_Lab_overseas/LiteOS_Lab/iot_link/network/lwm2m/wakaama_lwm2m/core\observe.c **** 
 721:C:/Users/dtjld/Desktop/AIoT_software/LiteOS_Lab_overseas/LiteOS_Lab/iot_link/network/lwm2m/wakaama_lwm2m/core\observe.c ****                     if (watcherP->parameters == NULL || watcherP->parameters->toSet == 0)
 3330              		.loc 2 721 0
 3331 01e8 D7F8F030 		ldr	r3, [r7, #240]
 3332 01ec DB68     		ldr	r3, [r3, #12]
 3333 01ee 002B     		cmp	r3, #0
 3334 01f0 05D0     		beq	.L231
 3335              		.loc 2 721 0 is_stmt 0 discriminator 1
 3336 01f2 D7F8F030 		ldr	r3, [r7, #240]
 3337 01f6 DB68     		ldr	r3, [r3, #12]
 3338 01f8 1B78     		ldrb	r3, [r3]	@ zero_extendqisi2
 3339 01fa 002B     		cmp	r3, #0
 3340 01fc 41D1     		bne	.L232
 3341              	.L231:
 722:C:/Users/dtjld/Desktop/AIoT_software/LiteOS_Lab_overseas/LiteOS_Lab/iot_link/network/lwm2m/wakaama_lwm2m/core\observe.c ****                     {
 723:C:/Users/dtjld/Desktop/AIoT_software/LiteOS_Lab_overseas/LiteOS_Lab/iot_link/network/lwm2m/wakaama_lwm2m/core\observe.c ****                         // no conditions
 724:C:/Users/dtjld/Desktop/AIoT_software/LiteOS_Lab_overseas/LiteOS_Lab/iot_link/network/lwm2m/wakaama_lwm2m/core\observe.c ****                         notify = true;
 3342              		.loc 2 724 0 is_stmt 1
 3343 01fe 0123     		movs	r3, #1
 3344 0200 87F8EE30 		strb	r3, [r7, #238]
 725:C:/Users/dtjld/Desktop/AIoT_software/LiteOS_Lab_overseas/LiteOS_Lab/iot_link/network/lwm2m/wakaama_lwm2m/core\observe.c ****                         LOG("Notify with no conditions");
 3345              		.loc 2 725 0
 3346 0204 FFF7FEFF 		bl	lwm2m_gettime
 3347 0208 0346     		mov	r3, r0
 3348 020a 0C46     		mov	r4, r1
 3349 020c 1946     		mov	r1, r3
 3350 020e 40F2D523 		movw	r3, #725
 3351 0212 354A     		ldr	r2, .L320
 3352 0214 3A48     		ldr	r0, .L320+24
 3353 0216 FFF7FEFF 		bl	atiny_printf
 726:C:/Users/dtjld/Desktop/AIoT_software/LiteOS_Lab_overseas/LiteOS_Lab/iot_link/network/lwm2m/wakaama_lwm2m/core\observe.c ****                         LOG_URI(&(targetP->uri));
 3354              		.loc 2 726 0
 3355 021a D7F8F430 		ldr	r3, [r7, #244]
 3356 021e 0433     		adds	r3, r3, #4
 3357 0220 002B     		cmp	r3, #0
 3358 0222 06D1     		bne	.L233
 3359              		.loc 2 726 0 is_stmt 0 discriminator 1
 3360 0224 40F2D622 		movw	r2, #726
 3361 0228 2F49     		ldr	r1, .L320
 3362 022a 3148     		ldr	r0, .L320+8
 3363 022c FFF7FEFF 		bl	atiny_printf
 3364 0230 27E0     		b	.L232
 3365              	.L233:
 3366              		.loc 2 726 0 discriminator 2
 3367 0232 D7F8F430 		ldr	r3, [r7, #244]
 3368 0236 DB88     		ldrh	r3, [r3, #6]
 3369 0238 40F2D622 		movw	r2, #726
 3370 023c 2A49     		ldr	r1, .L320
 3371 023e 2D48     		ldr	r0, .L320+12
 3372 0240 FFF7FEFF 		bl	atiny_printf
 3373 0244 D7F8F430 		ldr	r3, [r7, #244]
 3374 0248 1B79     		ldrb	r3, [r3, #4]	@ zero_extendqisi2
ARM GAS  C:\Users\dtjld\AppData\Local\Temp\ccRVA30A.s 			page 83


 3375 024a 03F00203 		and	r3, r3, #2
 3376 024e 002B     		cmp	r3, #0
 3377 0250 06D0     		beq	.L234
 3378              		.loc 2 726 0 discriminator 3
 3379 0252 D7F8F430 		ldr	r3, [r7, #244]
 3380 0256 1B89     		ldrh	r3, [r3, #8]
 3381 0258 1946     		mov	r1, r3
 3382 025a 2748     		ldr	r0, .L320+16
 3383 025c FFF7FEFF 		bl	atiny_printf
 3384              	.L234:
 3385              		.loc 2 726 0 discriminator 5
 3386 0260 D7F8F430 		ldr	r3, [r7, #244]
 3387 0264 1B79     		ldrb	r3, [r3, #4]	@ zero_extendqisi2
 3388 0266 03F00103 		and	r3, r3, #1
 3389 026a 002B     		cmp	r3, #0
 3390 026c 06D0     		beq	.L235
 3391              		.loc 2 726 0 discriminator 6
 3392 026e D7F8F430 		ldr	r3, [r7, #244]
 3393 0272 5B89     		ldrh	r3, [r3, #10]
 3394 0274 1946     		mov	r1, r3
 3395 0276 2048     		ldr	r0, .L320+16
 3396 0278 FFF7FEFF 		bl	atiny_printf
 3397              	.L235:
 3398              		.loc 2 726 0 discriminator 8
 3399 027c 1F48     		ldr	r0, .L320+20
 3400 027e FFF7FEFF 		bl	atiny_printf
 3401              	.L232:
 727:C:/Users/dtjld/Desktop/AIoT_software/LiteOS_Lab_overseas/LiteOS_Lab/iot_link/network/lwm2m/wakaama_lwm2m/core\observe.c ****                     }
 728:C:/Users/dtjld/Desktop/AIoT_software/LiteOS_Lab_overseas/LiteOS_Lab/iot_link/network/lwm2m/wakaama_lwm2m/core\observe.c **** 
 729:C:/Users/dtjld/Desktop/AIoT_software/LiteOS_Lab_overseas/LiteOS_Lab/iot_link/network/lwm2m/wakaama_lwm2m/core\observe.c ****                     if (notify == false
 3402              		.loc 2 729 0 is_stmt 1
 3403 0282 97F8EE30 		ldrb	r3, [r7, #238]
 3404 0286 83F00103 		eor	r3, r3, #1
 3405 028a DBB2     		uxtb	r3, r3
 3406 028c 002B     		cmp	r3, #0
 3407 028e 00F07D82 		beq	.L314
 730:C:/Users/dtjld/Desktop/AIoT_software/LiteOS_Lab_overseas/LiteOS_Lab/iot_link/network/lwm2m/wakaama_lwm2m/core\observe.c ****                             && watcherP->parameters != NULL
 3408              		.loc 2 730 0
 3409 0292 D7F8F030 		ldr	r3, [r7, #240]
 3410 0296 DB68     		ldr	r3, [r3, #12]
 3411 0298 002B     		cmp	r3, #0
 3412 029a 00F07782 		beq	.L314
 731:C:/Users/dtjld/Desktop/AIoT_software/LiteOS_Lab_overseas/LiteOS_Lab/iot_link/network/lwm2m/wakaama_lwm2m/core\observe.c ****                             && (watcherP->parameters->toSet & ATTR_FLAG_NUMERIC) != 0)
 3413              		.loc 2 731 0
 3414 029e D7F8F030 		ldr	r3, [r7, #240]
 3415 02a2 DB68     		ldr	r3, [r3, #12]
 3416 02a4 1B78     		ldrb	r3, [r3]	@ zero_extendqisi2
 3417 02a6 03F01C03 		and	r3, r3, #28
 3418 02aa 002B     		cmp	r3, #0
 3419 02ac 00F06E82 		beq	.L314
 732:C:/Users/dtjld/Desktop/AIoT_software/LiteOS_Lab_overseas/LiteOS_Lab/iot_link/network/lwm2m/wakaama_lwm2m/core\observe.c ****                     {
 733:C:/Users/dtjld/Desktop/AIoT_software/LiteOS_Lab_overseas/LiteOS_Lab/iot_link/network/lwm2m/wakaama_lwm2m/core\observe.c ****                         if ((watcherP->parameters->toSet & LWM2M_ATTR_FLAG_LESS_THAN) != 0)
 3420              		.loc 2 733 0
 3421 02b0 D7F8F030 		ldr	r3, [r7, #240]
 3422 02b4 DB68     		ldr	r3, [r3, #12]
 3423 02b6 1B78     		ldrb	r3, [r3]	@ zero_extendqisi2
 3424 02b8 03F00803 		and	r3, r3, #8
ARM GAS  C:\Users\dtjld\AppData\Local\Temp\ccRVA30A.s 			page 84


 3425 02bc 002B     		cmp	r3, #0
 3426 02be 00F0CD80 		beq	.L315
 734:C:/Users/dtjld/Desktop/AIoT_software/LiteOS_Lab_overseas/LiteOS_Lab/iot_link/network/lwm2m/wakaama_lwm2m/core\observe.c ****                         {
 735:C:/Users/dtjld/Desktop/AIoT_software/LiteOS_Lab_overseas/LiteOS_Lab/iot_link/network/lwm2m/wakaama_lwm2m/core\observe.c ****                             LOG("Checking lower threshold");
 3427              		.loc 2 735 0
 3428 02c2 FFF7FEFF 		bl	lwm2m_gettime
 3429 02c6 0346     		mov	r3, r0
 3430 02c8 0C46     		mov	r4, r1
 3431 02ca 1946     		mov	r1, r3
 3432 02cc 40F2DF23 		movw	r3, #735
 3433 02d0 054A     		ldr	r2, .L320
 3434 02d2 0C48     		ldr	r0, .L320+28
 3435 02d4 FFF7FEFF 		bl	atiny_printf
 736:C:/Users/dtjld/Desktop/AIoT_software/LiteOS_Lab_overseas/LiteOS_Lab/iot_link/network/lwm2m/wakaama_lwm2m/core\observe.c ****                             // Did we cross the lower threshold ?
 737:C:/Users/dtjld/Desktop/AIoT_software/LiteOS_Lab_overseas/LiteOS_Lab/iot_link/network/lwm2m/wakaama_lwm2m/core\observe.c ****                             switch (dataP->type)
 3436              		.loc 2 737 0
 3437 02d8 D7F8C030 		ldr	r3, [r7, #192]
 3438 02dc 1B78     		ldrb	r3, [r3]	@ zero_extendqisi2
 3439 02de 062B     		cmp	r3, #6
 3440 02e0 12D0     		beq	.L239
 3441 02e2 072B     		cmp	r3, #7
 3442 02e4 6DD0     		beq	.L240
 738:C:/Users/dtjld/Desktop/AIoT_software/LiteOS_Lab_overseas/LiteOS_Lab/iot_link/network/lwm2m/wakaama_lwm2m/core\observe.c ****                             {
 739:C:/Users/dtjld/Desktop/AIoT_software/LiteOS_Lab_overseas/LiteOS_Lab/iot_link/network/lwm2m/wakaama_lwm2m/core\observe.c ****                             case LWM2M_TYPE_INTEGER:
 740:C:/Users/dtjld/Desktop/AIoT_software/LiteOS_Lab_overseas/LiteOS_Lab/iot_link/network/lwm2m/wakaama_lwm2m/core\observe.c ****                                 if ((integerValue <= watcherP->parameters->lessThan
 741:C:/Users/dtjld/Desktop/AIoT_software/LiteOS_Lab_overseas/LiteOS_Lab/iot_link/network/lwm2m/wakaama_lwm2m/core\observe.c ****                                         && watcherP->lastValue.asInteger > watcherP->parameters->le
 742:C:/Users/dtjld/Desktop/AIoT_software/LiteOS_Lab_overseas/LiteOS_Lab/iot_link/network/lwm2m/wakaama_lwm2m/core\observe.c ****                                         || (integerValue >= watcherP->parameters->lessThan
 743:C:/Users/dtjld/Desktop/AIoT_software/LiteOS_Lab_overseas/LiteOS_Lab/iot_link/network/lwm2m/wakaama_lwm2m/core\observe.c ****                                             && watcherP->lastValue.asInteger < watcherP->parameters
 744:C:/Users/dtjld/Desktop/AIoT_software/LiteOS_Lab_overseas/LiteOS_Lab/iot_link/network/lwm2m/wakaama_lwm2m/core\observe.c ****                                 {
 745:C:/Users/dtjld/Desktop/AIoT_software/LiteOS_Lab_overseas/LiteOS_Lab/iot_link/network/lwm2m/wakaama_lwm2m/core\observe.c ****                                     LOG("Notify on lower threshold crossing");
 746:C:/Users/dtjld/Desktop/AIoT_software/LiteOS_Lab_overseas/LiteOS_Lab/iot_link/network/lwm2m/wakaama_lwm2m/core\observe.c ****                                     notify = true;
 747:C:/Users/dtjld/Desktop/AIoT_software/LiteOS_Lab_overseas/LiteOS_Lab/iot_link/network/lwm2m/wakaama_lwm2m/core\observe.c ****                                 }
 748:C:/Users/dtjld/Desktop/AIoT_software/LiteOS_Lab_overseas/LiteOS_Lab/iot_link/network/lwm2m/wakaama_lwm2m/core\observe.c ****                                 break;
 749:C:/Users/dtjld/Desktop/AIoT_software/LiteOS_Lab_overseas/LiteOS_Lab/iot_link/network/lwm2m/wakaama_lwm2m/core\observe.c ****                             case LWM2M_TYPE_FLOAT:
 750:C:/Users/dtjld/Desktop/AIoT_software/LiteOS_Lab_overseas/LiteOS_Lab/iot_link/network/lwm2m/wakaama_lwm2m/core\observe.c ****                                 if ((floatValue <= watcherP->parameters->lessThan
 751:C:/Users/dtjld/Desktop/AIoT_software/LiteOS_Lab_overseas/LiteOS_Lab/iot_link/network/lwm2m/wakaama_lwm2m/core\observe.c ****                                         && watcherP->lastValue.asFloat > watcherP->parameters->less
 752:C:/Users/dtjld/Desktop/AIoT_software/LiteOS_Lab_overseas/LiteOS_Lab/iot_link/network/lwm2m/wakaama_lwm2m/core\observe.c ****                                         || (floatValue >= watcherP->parameters->lessThan
 753:C:/Users/dtjld/Desktop/AIoT_software/LiteOS_Lab_overseas/LiteOS_Lab/iot_link/network/lwm2m/wakaama_lwm2m/core\observe.c ****                                             && watcherP->lastValue.asFloat < watcherP->parameters->
 754:C:/Users/dtjld/Desktop/AIoT_software/LiteOS_Lab_overseas/LiteOS_Lab/iot_link/network/lwm2m/wakaama_lwm2m/core\observe.c ****                                 {
 755:C:/Users/dtjld/Desktop/AIoT_software/LiteOS_Lab_overseas/LiteOS_Lab/iot_link/network/lwm2m/wakaama_lwm2m/core\observe.c ****                                     LOG("Notify on lower threshold crossing");
 756:C:/Users/dtjld/Desktop/AIoT_software/LiteOS_Lab_overseas/LiteOS_Lab/iot_link/network/lwm2m/wakaama_lwm2m/core\observe.c ****                                     notify = true;
 757:C:/Users/dtjld/Desktop/AIoT_software/LiteOS_Lab_overseas/LiteOS_Lab/iot_link/network/lwm2m/wakaama_lwm2m/core\observe.c ****                                 }
 758:C:/Users/dtjld/Desktop/AIoT_software/LiteOS_Lab_overseas/LiteOS_Lab/iot_link/network/lwm2m/wakaama_lwm2m/core\observe.c ****                                 break;
 759:C:/Users/dtjld/Desktop/AIoT_software/LiteOS_Lab_overseas/LiteOS_Lab/iot_link/network/lwm2m/wakaama_lwm2m/core\observe.c ****                             default:
 760:C:/Users/dtjld/Desktop/AIoT_software/LiteOS_Lab_overseas/LiteOS_Lab/iot_link/network/lwm2m/wakaama_lwm2m/core\observe.c ****                                 break;
 3443              		.loc 2 760 0
 3444 02e6 BAE0     		b	.L237
 3445              	.L321:
 3446              		.align	2
 3447              	.L320:
 3448 02e8 00000000 		.word	__func__.8659
 3449 02ec 78030000 		.word	.LC32
 3450 02f0 74010000 		.word	.LC17
 3451 02f4 84010000 		.word	.LC18
 3452 02f8 90010000 		.word	.LC19
 3453 02fc 94010000 		.word	.LC20
 3454 0300 B8030000 		.word	.LC34
ARM GAS  C:\Users\dtjld\AppData\Local\Temp\ccRVA30A.s 			page 85


 3455 0304 E0030000 		.word	.LC35
 3456              	.L239:
 740:C:/Users/dtjld/Desktop/AIoT_software/LiteOS_Lab_overseas/LiteOS_Lab/iot_link/network/lwm2m/wakaama_lwm2m/core\observe.c ****                                         && watcherP->lastValue.asInteger > watcherP->parameters->le
 3457              		.loc 2 740 0
 3458 0308 D7E92834 		ldrd	r3, [r7, #160]
 3459 030c 1846     		mov	r0, r3
 3460 030e 2146     		mov	r1, r4
 3461 0310 FFF7FEFF 		bl	__aeabi_l2d
 3462              	.LVL6:
 3463 0314 D7F8F030 		ldr	r3, [r7, #240]
 3464 0318 DB68     		ldr	r3, [r3, #12]
 3465 031a D3E90634 		ldrd	r3, [r3, #24]
 3466 031e 1A46     		mov	r2, r3
 3467 0320 2346     		mov	r3, r4
 3468 0322 FFF7FEFF 		bl	__aeabi_dcmple
 3469              	.LVL7:
 3470 0326 0346     		mov	r3, r0
 3471 0328 002B     		cmp	r3, #0
 3472 032a 13D0     		beq	.L241
 741:C:/Users/dtjld/Desktop/AIoT_software/LiteOS_Lab_overseas/LiteOS_Lab/iot_link/network/lwm2m/wakaama_lwm2m/core\observe.c ****                                         || (integerValue >= watcherP->parameters->lessThan
 3473              		.loc 2 741 0
 3474 032c D7F8F030 		ldr	r3, [r7, #240]
 3475 0330 D3E90C34 		ldrd	r3, [r3, #48]
 3476 0334 1846     		mov	r0, r3
 3477 0336 2146     		mov	r1, r4
 3478 0338 FFF7FEFF 		bl	__aeabi_l2d
 3479              	.LVL8:
 3480 033c D7F8F030 		ldr	r3, [r7, #240]
 3481 0340 DB68     		ldr	r3, [r3, #12]
 3482 0342 D3E90634 		ldrd	r3, [r3, #24]
 3483 0346 1A46     		mov	r2, r3
 3484 0348 2346     		mov	r3, r4
 3485 034a FFF7FEFF 		bl	__aeabi_dcmpgt
 3486              	.LVL9:
 3487 034e 0346     		mov	r3, r0
 3488 0350 002B     		cmp	r3, #0
 3489 0352 27D1     		bne	.L243
 3490              	.L241:
 742:C:/Users/dtjld/Desktop/AIoT_software/LiteOS_Lab_overseas/LiteOS_Lab/iot_link/network/lwm2m/wakaama_lwm2m/core\observe.c ****                                             && watcherP->lastValue.asInteger < watcherP->parameters
 3491              		.loc 2 742 0
 3492 0354 D7E92834 		ldrd	r3, [r7, #160]
 3493 0358 1846     		mov	r0, r3
 3494 035a 2146     		mov	r1, r4
 3495 035c FFF7FEFF 		bl	__aeabi_l2d
 3496              	.LVL10:
 3497 0360 D7F8F030 		ldr	r3, [r7, #240]
 3498 0364 DB68     		ldr	r3, [r3, #12]
 3499 0366 D3E90634 		ldrd	r3, [r3, #24]
 3500 036a 1A46     		mov	r2, r3
 3501 036c 2346     		mov	r3, r4
 3502 036e FFF7FEFF 		bl	__aeabi_dcmpge
 3503              	.LVL11:
 3504 0372 0346     		mov	r3, r0
 3505 0374 002B     		cmp	r3, #0
 3506 0376 00D1     		bne	.L303
 748:C:/Users/dtjld/Desktop/AIoT_software/LiteOS_Lab_overseas/LiteOS_Lab/iot_link/network/lwm2m/wakaama_lwm2m/core\observe.c ****                             case LWM2M_TYPE_FLOAT:
 3507              		.loc 2 748 0
ARM GAS  C:\Users\dtjld\AppData\Local\Temp\ccRVA30A.s 			page 86


 3508 0378 71E0     		b	.L237
 3509              	.L303:
 743:C:/Users/dtjld/Desktop/AIoT_software/LiteOS_Lab_overseas/LiteOS_Lab/iot_link/network/lwm2m/wakaama_lwm2m/core\observe.c ****                                 {
 3510              		.loc 2 743 0
 3511 037a D7F8F030 		ldr	r3, [r7, #240]
 3512 037e D3E90C34 		ldrd	r3, [r3, #48]
 3513 0382 1846     		mov	r0, r3
 3514 0384 2146     		mov	r1, r4
 3515 0386 FFF7FEFF 		bl	__aeabi_l2d
 3516              	.LVL12:
 3517 038a D7F8F030 		ldr	r3, [r7, #240]
 3518 038e DB68     		ldr	r3, [r3, #12]
 3519 0390 D3E90634 		ldrd	r3, [r3, #24]
 3520 0394 1A46     		mov	r2, r3
 3521 0396 2346     		mov	r3, r4
 3522 0398 FFF7FEFF 		bl	__aeabi_dcmplt
 3523              	.LVL13:
 3524 039c 0346     		mov	r3, r0
 3525 039e 002B     		cmp	r3, #0
 3526 03a0 00D1     		bne	.L243
 748:C:/Users/dtjld/Desktop/AIoT_software/LiteOS_Lab_overseas/LiteOS_Lab/iot_link/network/lwm2m/wakaama_lwm2m/core\observe.c ****                             case LWM2M_TYPE_FLOAT:
 3527              		.loc 2 748 0
 3528 03a2 5CE0     		b	.L237
 3529              	.L243:
 745:C:/Users/dtjld/Desktop/AIoT_software/LiteOS_Lab_overseas/LiteOS_Lab/iot_link/network/lwm2m/wakaama_lwm2m/core\observe.c ****                                     notify = true;
 3530              		.loc 2 745 0
 3531 03a4 FFF7FEFF 		bl	lwm2m_gettime
 3532 03a8 0346     		mov	r3, r0
 3533 03aa 0C46     		mov	r4, r1
 3534 03ac 1946     		mov	r1, r3
 3535 03ae 40F2E923 		movw	r3, #745
 3536 03b2 9C4A     		ldr	r2, .L322
 3537 03b4 9C48     		ldr	r0, .L322+4
 3538 03b6 FFF7FEFF 		bl	atiny_printf
 746:C:/Users/dtjld/Desktop/AIoT_software/LiteOS_Lab_overseas/LiteOS_Lab/iot_link/network/lwm2m/wakaama_lwm2m/core\observe.c ****                                 }
 3539              		.loc 2 746 0
 3540 03ba 0123     		movs	r3, #1
 3541 03bc 87F8EE30 		strb	r3, [r7, #238]
 748:C:/Users/dtjld/Desktop/AIoT_software/LiteOS_Lab_overseas/LiteOS_Lab/iot_link/network/lwm2m/wakaama_lwm2m/core\observe.c ****                             case LWM2M_TYPE_FLOAT:
 3542              		.loc 2 748 0
 3543 03c0 4DE0     		b	.L237
 3544              	.L240:
 750:C:/Users/dtjld/Desktop/AIoT_software/LiteOS_Lab_overseas/LiteOS_Lab/iot_link/network/lwm2m/wakaama_lwm2m/core\observe.c ****                                         && watcherP->lastValue.asFloat > watcherP->parameters->less
 3545              		.loc 2 750 0
 3546 03c2 D7F8F030 		ldr	r3, [r7, #240]
 3547 03c6 DB68     		ldr	r3, [r3, #12]
 3548 03c8 D3E90601 		ldrd	r0, [r3, #24]
 3549 03cc D7E92A34 		ldrd	r3, [r7, #168]
 3550 03d0 1A46     		mov	r2, r3
 3551 03d2 2346     		mov	r3, r4
 3552 03d4 FFF7FEFF 		bl	__aeabi_dcmpge
 3553              	.LVL14:
 3554 03d8 0346     		mov	r3, r0
 3555 03da 002B     		cmp	r3, #0
 3556 03dc 0FD0     		beq	.L247
 751:C:/Users/dtjld/Desktop/AIoT_software/LiteOS_Lab_overseas/LiteOS_Lab/iot_link/network/lwm2m/wakaama_lwm2m/core\observe.c ****                                         || (floatValue >= watcherP->parameters->lessThan
 3557              		.loc 2 751 0
ARM GAS  C:\Users\dtjld\AppData\Local\Temp\ccRVA30A.s 			page 87


 3558 03de D7F8F030 		ldr	r3, [r7, #240]
 3559 03e2 D3E90C01 		ldrd	r0, [r3, #48]
 3560 03e6 D7F8F030 		ldr	r3, [r7, #240]
 3561 03ea DB68     		ldr	r3, [r3, #12]
 3562 03ec D3E90634 		ldrd	r3, [r3, #24]
 3563 03f0 1A46     		mov	r2, r3
 3564 03f2 2346     		mov	r3, r4
 3565 03f4 FFF7FEFF 		bl	__aeabi_dcmpgt
 3566              	.LVL15:
 3567 03f8 0346     		mov	r3, r0
 3568 03fa 002B     		cmp	r3, #0
 3569 03fc 1FD1     		bne	.L249
 3570              	.L247:
 752:C:/Users/dtjld/Desktop/AIoT_software/LiteOS_Lab_overseas/LiteOS_Lab/iot_link/network/lwm2m/wakaama_lwm2m/core\observe.c ****                                             && watcherP->lastValue.asFloat < watcherP->parameters->
 3571              		.loc 2 752 0
 3572 03fe D7F8F030 		ldr	r3, [r7, #240]
 3573 0402 DB68     		ldr	r3, [r3, #12]
 3574 0404 D3E90601 		ldrd	r0, [r3, #24]
 3575 0408 D7E92A34 		ldrd	r3, [r7, #168]
 3576 040c 1A46     		mov	r2, r3
 3577 040e 2346     		mov	r3, r4
 3578 0410 FFF7FEFF 		bl	__aeabi_dcmple
 3579              	.LVL16:
 3580 0414 0346     		mov	r3, r0
 3581 0416 002B     		cmp	r3, #0
 3582 0418 00D1     		bne	.L305
 758:C:/Users/dtjld/Desktop/AIoT_software/LiteOS_Lab_overseas/LiteOS_Lab/iot_link/network/lwm2m/wakaama_lwm2m/core\observe.c ****                             default:
 3583              		.loc 2 758 0
 3584 041a 20E0     		b	.L237
 3585              	.L305:
 753:C:/Users/dtjld/Desktop/AIoT_software/LiteOS_Lab_overseas/LiteOS_Lab/iot_link/network/lwm2m/wakaama_lwm2m/core\observe.c ****                                 {
 3586              		.loc 2 753 0
 3587 041c D7F8F030 		ldr	r3, [r7, #240]
 3588 0420 D3E90C01 		ldrd	r0, [r3, #48]
 3589 0424 D7F8F030 		ldr	r3, [r7, #240]
 3590 0428 DB68     		ldr	r3, [r3, #12]
 3591 042a D3E90634 		ldrd	r3, [r3, #24]
 3592 042e 1A46     		mov	r2, r3
 3593 0430 2346     		mov	r3, r4
 3594 0432 FFF7FEFF 		bl	__aeabi_dcmplt
 3595              	.LVL17:
 3596 0436 0346     		mov	r3, r0
 3597 0438 002B     		cmp	r3, #0
 3598 043a 00D1     		bne	.L249
 758:C:/Users/dtjld/Desktop/AIoT_software/LiteOS_Lab_overseas/LiteOS_Lab/iot_link/network/lwm2m/wakaama_lwm2m/core\observe.c ****                             default:
 3599              		.loc 2 758 0
 3600 043c 0FE0     		b	.L237
 3601              	.L249:
 755:C:/Users/dtjld/Desktop/AIoT_software/LiteOS_Lab_overseas/LiteOS_Lab/iot_link/network/lwm2m/wakaama_lwm2m/core\observe.c ****                                     notify = true;
 3602              		.loc 2 755 0
 3603 043e FFF7FEFF 		bl	lwm2m_gettime
 3604 0442 0346     		mov	r3, r0
 3605 0444 0C46     		mov	r4, r1
 3606 0446 1946     		mov	r1, r3
 3607 0448 40F2F323 		movw	r3, #755
 3608 044c 754A     		ldr	r2, .L322
 3609 044e 7648     		ldr	r0, .L322+4
ARM GAS  C:\Users\dtjld\AppData\Local\Temp\ccRVA30A.s 			page 88


 3610 0450 FFF7FEFF 		bl	atiny_printf
 756:C:/Users/dtjld/Desktop/AIoT_software/LiteOS_Lab_overseas/LiteOS_Lab/iot_link/network/lwm2m/wakaama_lwm2m/core\observe.c ****                                 }
 3611              		.loc 2 756 0
 3612 0454 0123     		movs	r3, #1
 3613 0456 87F8EE30 		strb	r3, [r7, #238]
 758:C:/Users/dtjld/Desktop/AIoT_software/LiteOS_Lab_overseas/LiteOS_Lab/iot_link/network/lwm2m/wakaama_lwm2m/core\observe.c ****                             default:
 3614              		.loc 2 758 0
 3615 045a 00E0     		b	.L237
 3616              	.L315:
 761:C:/Users/dtjld/Desktop/AIoT_software/LiteOS_Lab_overseas/LiteOS_Lab/iot_link/network/lwm2m/wakaama_lwm2m/core\observe.c ****                             }
 762:C:/Users/dtjld/Desktop/AIoT_software/LiteOS_Lab_overseas/LiteOS_Lab/iot_link/network/lwm2m/wakaama_lwm2m/core\observe.c ****                         }
 3617              		.loc 2 762 0
 3618 045c 00BF     		nop
 3619              	.L237:
 763:C:/Users/dtjld/Desktop/AIoT_software/LiteOS_Lab_overseas/LiteOS_Lab/iot_link/network/lwm2m/wakaama_lwm2m/core\observe.c ****                         if ((watcherP->parameters->toSet & LWM2M_ATTR_FLAG_GREATER_THAN) != 0)
 3620              		.loc 2 763 0
 3621 045e D7F8F030 		ldr	r3, [r7, #240]
 3622 0462 DB68     		ldr	r3, [r3, #12]
 3623 0464 1B78     		ldrb	r3, [r3]	@ zero_extendqisi2
 3624 0466 03F00403 		and	r3, r3, #4
 3625 046a 002B     		cmp	r3, #0
 3626 046c 00F0BD80 		beq	.L316
 764:C:/Users/dtjld/Desktop/AIoT_software/LiteOS_Lab_overseas/LiteOS_Lab/iot_link/network/lwm2m/wakaama_lwm2m/core\observe.c ****                         {
 765:C:/Users/dtjld/Desktop/AIoT_software/LiteOS_Lab_overseas/LiteOS_Lab/iot_link/network/lwm2m/wakaama_lwm2m/core\observe.c ****                             LOG("Checking upper threshold");
 3627              		.loc 2 765 0
 3628 0470 FFF7FEFF 		bl	lwm2m_gettime
 3629 0474 0346     		mov	r3, r0
 3630 0476 0C46     		mov	r4, r1
 3631 0478 1946     		mov	r1, r3
 3632 047a 40F2FD23 		movw	r3, #765
 3633 047e 694A     		ldr	r2, .L322
 3634 0480 6A48     		ldr	r0, .L322+8
 3635 0482 FFF7FEFF 		bl	atiny_printf
 766:C:/Users/dtjld/Desktop/AIoT_software/LiteOS_Lab_overseas/LiteOS_Lab/iot_link/network/lwm2m/wakaama_lwm2m/core\observe.c ****                             // Did we cross the upper threshold ?
 767:C:/Users/dtjld/Desktop/AIoT_software/LiteOS_Lab_overseas/LiteOS_Lab/iot_link/network/lwm2m/wakaama_lwm2m/core\observe.c ****                             switch (dataP->type)
 3636              		.loc 2 767 0
 3637 0486 D7F8C030 		ldr	r3, [r7, #192]
 3638 048a 1B78     		ldrb	r3, [r3]	@ zero_extendqisi2
 3639 048c 062B     		cmp	r3, #6
 3640 048e 02D0     		beq	.L255
 3641 0490 072B     		cmp	r3, #7
 3642 0492 5DD0     		beq	.L256
 768:C:/Users/dtjld/Desktop/AIoT_software/LiteOS_Lab_overseas/LiteOS_Lab/iot_link/network/lwm2m/wakaama_lwm2m/core\observe.c ****                             {
 769:C:/Users/dtjld/Desktop/AIoT_software/LiteOS_Lab_overseas/LiteOS_Lab/iot_link/network/lwm2m/wakaama_lwm2m/core\observe.c ****                             case LWM2M_TYPE_INTEGER:
 770:C:/Users/dtjld/Desktop/AIoT_software/LiteOS_Lab_overseas/LiteOS_Lab/iot_link/network/lwm2m/wakaama_lwm2m/core\observe.c ****                                 if ((integerValue <= watcherP->parameters->greaterThan
 771:C:/Users/dtjld/Desktop/AIoT_software/LiteOS_Lab_overseas/LiteOS_Lab/iot_link/network/lwm2m/wakaama_lwm2m/core\observe.c ****                                         && watcherP->lastValue.asInteger > watcherP->parameters->gr
 772:C:/Users/dtjld/Desktop/AIoT_software/LiteOS_Lab_overseas/LiteOS_Lab/iot_link/network/lwm2m/wakaama_lwm2m/core\observe.c ****                                         || (integerValue >= watcherP->parameters->greaterThan
 773:C:/Users/dtjld/Desktop/AIoT_software/LiteOS_Lab_overseas/LiteOS_Lab/iot_link/network/lwm2m/wakaama_lwm2m/core\observe.c ****                                             && watcherP->lastValue.asInteger < watcherP->parameters
 774:C:/Users/dtjld/Desktop/AIoT_software/LiteOS_Lab_overseas/LiteOS_Lab/iot_link/network/lwm2m/wakaama_lwm2m/core\observe.c ****                                 {
 775:C:/Users/dtjld/Desktop/AIoT_software/LiteOS_Lab_overseas/LiteOS_Lab/iot_link/network/lwm2m/wakaama_lwm2m/core\observe.c ****                                     LOG("Notify on lower upper crossing");
 776:C:/Users/dtjld/Desktop/AIoT_software/LiteOS_Lab_overseas/LiteOS_Lab/iot_link/network/lwm2m/wakaama_lwm2m/core\observe.c ****                                     notify = true;
 777:C:/Users/dtjld/Desktop/AIoT_software/LiteOS_Lab_overseas/LiteOS_Lab/iot_link/network/lwm2m/wakaama_lwm2m/core\observe.c ****                                 }
 778:C:/Users/dtjld/Desktop/AIoT_software/LiteOS_Lab_overseas/LiteOS_Lab/iot_link/network/lwm2m/wakaama_lwm2m/core\observe.c ****                                 break;
 779:C:/Users/dtjld/Desktop/AIoT_software/LiteOS_Lab_overseas/LiteOS_Lab/iot_link/network/lwm2m/wakaama_lwm2m/core\observe.c ****                             case LWM2M_TYPE_FLOAT:
 780:C:/Users/dtjld/Desktop/AIoT_software/LiteOS_Lab_overseas/LiteOS_Lab/iot_link/network/lwm2m/wakaama_lwm2m/core\observe.c ****                                 if ((floatValue <= watcherP->parameters->greaterThan
 781:C:/Users/dtjld/Desktop/AIoT_software/LiteOS_Lab_overseas/LiteOS_Lab/iot_link/network/lwm2m/wakaama_lwm2m/core\observe.c ****                                         && watcherP->lastValue.asFloat > watcherP->parameters->grea
 782:C:/Users/dtjld/Desktop/AIoT_software/LiteOS_Lab_overseas/LiteOS_Lab/iot_link/network/lwm2m/wakaama_lwm2m/core\observe.c ****                                         || (floatValue >= watcherP->parameters->greaterThan
ARM GAS  C:\Users\dtjld\AppData\Local\Temp\ccRVA30A.s 			page 89


 783:C:/Users/dtjld/Desktop/AIoT_software/LiteOS_Lab_overseas/LiteOS_Lab/iot_link/network/lwm2m/wakaama_lwm2m/core\observe.c ****                                             && watcherP->lastValue.asFloat < watcherP->parameters->
 784:C:/Users/dtjld/Desktop/AIoT_software/LiteOS_Lab_overseas/LiteOS_Lab/iot_link/network/lwm2m/wakaama_lwm2m/core\observe.c ****                                 {
 785:C:/Users/dtjld/Desktop/AIoT_software/LiteOS_Lab_overseas/LiteOS_Lab/iot_link/network/lwm2m/wakaama_lwm2m/core\observe.c ****                                     LOG("Notify on lower upper crossing");
 786:C:/Users/dtjld/Desktop/AIoT_software/LiteOS_Lab_overseas/LiteOS_Lab/iot_link/network/lwm2m/wakaama_lwm2m/core\observe.c ****                                     notify = true;
 787:C:/Users/dtjld/Desktop/AIoT_software/LiteOS_Lab_overseas/LiteOS_Lab/iot_link/network/lwm2m/wakaama_lwm2m/core\observe.c ****                                 }
 788:C:/Users/dtjld/Desktop/AIoT_software/LiteOS_Lab_overseas/LiteOS_Lab/iot_link/network/lwm2m/wakaama_lwm2m/core\observe.c ****                                 break;
 789:C:/Users/dtjld/Desktop/AIoT_software/LiteOS_Lab_overseas/LiteOS_Lab/iot_link/network/lwm2m/wakaama_lwm2m/core\observe.c ****                             default:
 790:C:/Users/dtjld/Desktop/AIoT_software/LiteOS_Lab_overseas/LiteOS_Lab/iot_link/network/lwm2m/wakaama_lwm2m/core\observe.c ****                                 break;
 3643              		.loc 2 790 0
 3644 0494 AAE0     		b	.L253
 3645              	.L255:
 770:C:/Users/dtjld/Desktop/AIoT_software/LiteOS_Lab_overseas/LiteOS_Lab/iot_link/network/lwm2m/wakaama_lwm2m/core\observe.c ****                                         && watcherP->lastValue.asInteger > watcherP->parameters->gr
 3646              		.loc 2 770 0
 3647 0496 D7E92834 		ldrd	r3, [r7, #160]
 3648 049a 1846     		mov	r0, r3
 3649 049c 2146     		mov	r1, r4
 3650 049e FFF7FEFF 		bl	__aeabi_l2d
 3651              	.LVL18:
 3652 04a2 D7F8F030 		ldr	r3, [r7, #240]
 3653 04a6 DB68     		ldr	r3, [r3, #12]
 3654 04a8 D3E90434 		ldrd	r3, [r3, #16]
 3655 04ac 1A46     		mov	r2, r3
 3656 04ae 2346     		mov	r3, r4
 3657 04b0 FFF7FEFF 		bl	__aeabi_dcmple
 3658              	.LVL19:
 3659 04b4 0346     		mov	r3, r0
 3660 04b6 002B     		cmp	r3, #0
 3661 04b8 13D0     		beq	.L257
 771:C:/Users/dtjld/Desktop/AIoT_software/LiteOS_Lab_overseas/LiteOS_Lab/iot_link/network/lwm2m/wakaama_lwm2m/core\observe.c ****                                         || (integerValue >= watcherP->parameters->greaterThan
 3662              		.loc 2 771 0
 3663 04ba D7F8F030 		ldr	r3, [r7, #240]
 3664 04be D3E90C34 		ldrd	r3, [r3, #48]
 3665 04c2 1846     		mov	r0, r3
 3666 04c4 2146     		mov	r1, r4
 3667 04c6 FFF7FEFF 		bl	__aeabi_l2d
 3668              	.LVL20:
 3669 04ca D7F8F030 		ldr	r3, [r7, #240]
 3670 04ce DB68     		ldr	r3, [r3, #12]
 3671 04d0 D3E90434 		ldrd	r3, [r3, #16]
 3672 04d4 1A46     		mov	r2, r3
 3673 04d6 2346     		mov	r3, r4
 3674 04d8 FFF7FEFF 		bl	__aeabi_dcmpgt
 3675              	.LVL21:
 3676 04dc 0346     		mov	r3, r0
 3677 04de 002B     		cmp	r3, #0
 3678 04e0 27D1     		bne	.L259
 3679              	.L257:
 772:C:/Users/dtjld/Desktop/AIoT_software/LiteOS_Lab_overseas/LiteOS_Lab/iot_link/network/lwm2m/wakaama_lwm2m/core\observe.c ****                                             && watcherP->lastValue.asInteger < watcherP->parameters
 3680              		.loc 2 772 0
 3681 04e2 D7E92834 		ldrd	r3, [r7, #160]
 3682 04e6 1846     		mov	r0, r3
 3683 04e8 2146     		mov	r1, r4
 3684 04ea FFF7FEFF 		bl	__aeabi_l2d
 3685              	.LVL22:
 3686 04ee D7F8F030 		ldr	r3, [r7, #240]
 3687 04f2 DB68     		ldr	r3, [r3, #12]
 3688 04f4 D3E90434 		ldrd	r3, [r3, #16]
ARM GAS  C:\Users\dtjld\AppData\Local\Temp\ccRVA30A.s 			page 90


 3689 04f8 1A46     		mov	r2, r3
 3690 04fa 2346     		mov	r3, r4
 3691 04fc FFF7FEFF 		bl	__aeabi_dcmpge
 3692              	.LVL23:
 3693 0500 0346     		mov	r3, r0
 3694 0502 002B     		cmp	r3, #0
 3695 0504 00D1     		bne	.L307
 778:C:/Users/dtjld/Desktop/AIoT_software/LiteOS_Lab_overseas/LiteOS_Lab/iot_link/network/lwm2m/wakaama_lwm2m/core\observe.c ****                             case LWM2M_TYPE_FLOAT:
 3696              		.loc 2 778 0
 3697 0506 71E0     		b	.L253
 3698              	.L307:
 773:C:/Users/dtjld/Desktop/AIoT_software/LiteOS_Lab_overseas/LiteOS_Lab/iot_link/network/lwm2m/wakaama_lwm2m/core\observe.c ****                                 {
 3699              		.loc 2 773 0
 3700 0508 D7F8F030 		ldr	r3, [r7, #240]
 3701 050c D3E90C34 		ldrd	r3, [r3, #48]
 3702 0510 1846     		mov	r0, r3
 3703 0512 2146     		mov	r1, r4
 3704 0514 FFF7FEFF 		bl	__aeabi_l2d
 3705              	.LVL24:
 3706 0518 D7F8F030 		ldr	r3, [r7, #240]
 3707 051c DB68     		ldr	r3, [r3, #12]
 3708 051e D3E90434 		ldrd	r3, [r3, #16]
 3709 0522 1A46     		mov	r2, r3
 3710 0524 2346     		mov	r3, r4
 3711 0526 FFF7FEFF 		bl	__aeabi_dcmplt
 3712              	.LVL25:
 3713 052a 0346     		mov	r3, r0
 3714 052c 002B     		cmp	r3, #0
 3715 052e 00D1     		bne	.L259
 778:C:/Users/dtjld/Desktop/AIoT_software/LiteOS_Lab_overseas/LiteOS_Lab/iot_link/network/lwm2m/wakaama_lwm2m/core\observe.c ****                             case LWM2M_TYPE_FLOAT:
 3716              		.loc 2 778 0
 3717 0530 5CE0     		b	.L253
 3718              	.L259:
 775:C:/Users/dtjld/Desktop/AIoT_software/LiteOS_Lab_overseas/LiteOS_Lab/iot_link/network/lwm2m/wakaama_lwm2m/core\observe.c ****                                     notify = true;
 3719              		.loc 2 775 0
 3720 0532 FFF7FEFF 		bl	lwm2m_gettime
 3721 0536 0346     		mov	r3, r0
 3722 0538 0C46     		mov	r4, r1
 3723 053a 1946     		mov	r1, r3
 3724 053c 40F20733 		movw	r3, #775
 3725 0540 384A     		ldr	r2, .L322
 3726 0542 3B48     		ldr	r0, .L322+12
 3727 0544 FFF7FEFF 		bl	atiny_printf
 776:C:/Users/dtjld/Desktop/AIoT_software/LiteOS_Lab_overseas/LiteOS_Lab/iot_link/network/lwm2m/wakaama_lwm2m/core\observe.c ****                                 }
 3728              		.loc 2 776 0
 3729 0548 0123     		movs	r3, #1
 3730 054a 87F8EE30 		strb	r3, [r7, #238]
 778:C:/Users/dtjld/Desktop/AIoT_software/LiteOS_Lab_overseas/LiteOS_Lab/iot_link/network/lwm2m/wakaama_lwm2m/core\observe.c ****                             case LWM2M_TYPE_FLOAT:
 3731              		.loc 2 778 0
 3732 054e 4DE0     		b	.L253
 3733              	.L256:
 780:C:/Users/dtjld/Desktop/AIoT_software/LiteOS_Lab_overseas/LiteOS_Lab/iot_link/network/lwm2m/wakaama_lwm2m/core\observe.c ****                                         && watcherP->lastValue.asFloat > watcherP->parameters->grea
 3734              		.loc 2 780 0
 3735 0550 D7F8F030 		ldr	r3, [r7, #240]
 3736 0554 DB68     		ldr	r3, [r3, #12]
 3737 0556 D3E90401 		ldrd	r0, [r3, #16]
 3738 055a D7E92A34 		ldrd	r3, [r7, #168]
ARM GAS  C:\Users\dtjld\AppData\Local\Temp\ccRVA30A.s 			page 91


 3739 055e 1A46     		mov	r2, r3
 3740 0560 2346     		mov	r3, r4
 3741 0562 FFF7FEFF 		bl	__aeabi_dcmpge
 3742              	.LVL26:
 3743 0566 0346     		mov	r3, r0
 3744 0568 002B     		cmp	r3, #0
 3745 056a 0FD0     		beq	.L263
 781:C:/Users/dtjld/Desktop/AIoT_software/LiteOS_Lab_overseas/LiteOS_Lab/iot_link/network/lwm2m/wakaama_lwm2m/core\observe.c ****                                         || (floatValue >= watcherP->parameters->greaterThan
 3746              		.loc 2 781 0
 3747 056c D7F8F030 		ldr	r3, [r7, #240]
 3748 0570 D3E90C01 		ldrd	r0, [r3, #48]
 3749 0574 D7F8F030 		ldr	r3, [r7, #240]
 3750 0578 DB68     		ldr	r3, [r3, #12]
 3751 057a D3E90434 		ldrd	r3, [r3, #16]
 3752 057e 1A46     		mov	r2, r3
 3753 0580 2346     		mov	r3, r4
 3754 0582 FFF7FEFF 		bl	__aeabi_dcmpgt
 3755              	.LVL27:
 3756 0586 0346     		mov	r3, r0
 3757 0588 002B     		cmp	r3, #0
 3758 058a 1FD1     		bne	.L265
 3759              	.L263:
 782:C:/Users/dtjld/Desktop/AIoT_software/LiteOS_Lab_overseas/LiteOS_Lab/iot_link/network/lwm2m/wakaama_lwm2m/core\observe.c ****                                             && watcherP->lastValue.asFloat < watcherP->parameters->
 3760              		.loc 2 782 0
 3761 058c D7F8F030 		ldr	r3, [r7, #240]
 3762 0590 DB68     		ldr	r3, [r3, #12]
 3763 0592 D3E90401 		ldrd	r0, [r3, #16]
 3764 0596 D7E92A34 		ldrd	r3, [r7, #168]
 3765 059a 1A46     		mov	r2, r3
 3766 059c 2346     		mov	r3, r4
 3767 059e FFF7FEFF 		bl	__aeabi_dcmple
 3768              	.LVL28:
 3769 05a2 0346     		mov	r3, r0
 3770 05a4 002B     		cmp	r3, #0
 3771 05a6 00D1     		bne	.L309
 788:C:/Users/dtjld/Desktop/AIoT_software/LiteOS_Lab_overseas/LiteOS_Lab/iot_link/network/lwm2m/wakaama_lwm2m/core\observe.c ****                             default:
 3772              		.loc 2 788 0
 3773 05a8 20E0     		b	.L253
 3774              	.L309:
 783:C:/Users/dtjld/Desktop/AIoT_software/LiteOS_Lab_overseas/LiteOS_Lab/iot_link/network/lwm2m/wakaama_lwm2m/core\observe.c ****                                 {
 3775              		.loc 2 783 0
 3776 05aa D7F8F030 		ldr	r3, [r7, #240]
 3777 05ae D3E90C01 		ldrd	r0, [r3, #48]
 3778 05b2 D7F8F030 		ldr	r3, [r7, #240]
 3779 05b6 DB68     		ldr	r3, [r3, #12]
 3780 05b8 D3E90434 		ldrd	r3, [r3, #16]
 3781 05bc 1A46     		mov	r2, r3
 3782 05be 2346     		mov	r3, r4
 3783 05c0 FFF7FEFF 		bl	__aeabi_dcmplt
 3784              	.LVL29:
 3785 05c4 0346     		mov	r3, r0
 3786 05c6 002B     		cmp	r3, #0
 3787 05c8 00D1     		bne	.L265
 788:C:/Users/dtjld/Desktop/AIoT_software/LiteOS_Lab_overseas/LiteOS_Lab/iot_link/network/lwm2m/wakaama_lwm2m/core\observe.c ****                             default:
 3788              		.loc 2 788 0
 3789 05ca 0FE0     		b	.L253
 3790              	.L265:
ARM GAS  C:\Users\dtjld\AppData\Local\Temp\ccRVA30A.s 			page 92


 785:C:/Users/dtjld/Desktop/AIoT_software/LiteOS_Lab_overseas/LiteOS_Lab/iot_link/network/lwm2m/wakaama_lwm2m/core\observe.c ****                                     notify = true;
 3791              		.loc 2 785 0
 3792 05cc FFF7FEFF 		bl	lwm2m_gettime
 3793 05d0 0346     		mov	r3, r0
 3794 05d2 0C46     		mov	r4, r1
 3795 05d4 1946     		mov	r1, r3
 3796 05d6 40F21133 		movw	r3, #785
 3797 05da 124A     		ldr	r2, .L322
 3798 05dc 1448     		ldr	r0, .L322+12
 3799 05de FFF7FEFF 		bl	atiny_printf
 786:C:/Users/dtjld/Desktop/AIoT_software/LiteOS_Lab_overseas/LiteOS_Lab/iot_link/network/lwm2m/wakaama_lwm2m/core\observe.c ****                                 }
 3800              		.loc 2 786 0
 3801 05e2 0123     		movs	r3, #1
 3802 05e4 87F8EE30 		strb	r3, [r7, #238]
 788:C:/Users/dtjld/Desktop/AIoT_software/LiteOS_Lab_overseas/LiteOS_Lab/iot_link/network/lwm2m/wakaama_lwm2m/core\observe.c ****                             default:
 3803              		.loc 2 788 0
 3804 05e8 00E0     		b	.L253
 3805              	.L316:
 791:C:/Users/dtjld/Desktop/AIoT_software/LiteOS_Lab_overseas/LiteOS_Lab/iot_link/network/lwm2m/wakaama_lwm2m/core\observe.c ****                             }
 792:C:/Users/dtjld/Desktop/AIoT_software/LiteOS_Lab_overseas/LiteOS_Lab/iot_link/network/lwm2m/wakaama_lwm2m/core\observe.c ****                         }
 3806              		.loc 2 792 0
 3807 05ea 00BF     		nop
 3808              	.L253:
 793:C:/Users/dtjld/Desktop/AIoT_software/LiteOS_Lab_overseas/LiteOS_Lab/iot_link/network/lwm2m/wakaama_lwm2m/core\observe.c ****                         if ((watcherP->parameters->toSet & LWM2M_ATTR_FLAG_STEP) != 0)
 3809              		.loc 2 793 0
 3810 05ec D7F8F030 		ldr	r3, [r7, #240]
 3811 05f0 DB68     		ldr	r3, [r3, #12]
 3812 05f2 1B78     		ldrb	r3, [r3]	@ zero_extendqisi2
 3813 05f4 03F01003 		and	r3, r3, #16
 3814 05f8 002B     		cmp	r3, #0
 3815 05fa 00F0C780 		beq	.L314
 794:C:/Users/dtjld/Desktop/AIoT_software/LiteOS_Lab_overseas/LiteOS_Lab/iot_link/network/lwm2m/wakaama_lwm2m/core\observe.c ****                         {
 795:C:/Users/dtjld/Desktop/AIoT_software/LiteOS_Lab_overseas/LiteOS_Lab/iot_link/network/lwm2m/wakaama_lwm2m/core\observe.c ****                             LOG("Checking step");
 3816              		.loc 2 795 0
 3817 05fe FFF7FEFF 		bl	lwm2m_gettime
 3818 0602 0346     		mov	r3, r0
 3819 0604 0C46     		mov	r4, r1
 3820 0606 1946     		mov	r1, r3
 3821 0608 40F21B33 		movw	r3, #795
 3822 060c 054A     		ldr	r2, .L322
 3823 060e 0948     		ldr	r0, .L322+16
 3824 0610 FFF7FEFF 		bl	atiny_printf
 796:C:/Users/dtjld/Desktop/AIoT_software/LiteOS_Lab_overseas/LiteOS_Lab/iot_link/network/lwm2m/wakaama_lwm2m/core\observe.c **** 
 797:C:/Users/dtjld/Desktop/AIoT_software/LiteOS_Lab_overseas/LiteOS_Lab/iot_link/network/lwm2m/wakaama_lwm2m/core\observe.c ****                             switch (dataP->type)
 3825              		.loc 2 797 0
 3826 0614 D7F8C030 		ldr	r3, [r7, #192]
 3827 0618 1B78     		ldrb	r3, [r3]	@ zero_extendqisi2
 3828 061a 062B     		cmp	r3, #6
 3829 061c 0CD0     		beq	.L270
 3830 061e 072B     		cmp	r3, #7
 3831 0620 59D0     		beq	.L271
 798:C:/Users/dtjld/Desktop/AIoT_software/LiteOS_Lab_overseas/LiteOS_Lab/iot_link/network/lwm2m/wakaama_lwm2m/core\observe.c ****                             {
 799:C:/Users/dtjld/Desktop/AIoT_software/LiteOS_Lab_overseas/LiteOS_Lab/iot_link/network/lwm2m/wakaama_lwm2m/core\observe.c ****                             case LWM2M_TYPE_INTEGER:
 800:C:/Users/dtjld/Desktop/AIoT_software/LiteOS_Lab_overseas/LiteOS_Lab/iot_link/network/lwm2m/wakaama_lwm2m/core\observe.c ****                             {
 801:C:/Users/dtjld/Desktop/AIoT_software/LiteOS_Lab_overseas/LiteOS_Lab/iot_link/network/lwm2m/wakaama_lwm2m/core\observe.c ****                                 int64_t diff;
 802:C:/Users/dtjld/Desktop/AIoT_software/LiteOS_Lab_overseas/LiteOS_Lab/iot_link/network/lwm2m/wakaama_lwm2m/core\observe.c **** 
 803:C:/Users/dtjld/Desktop/AIoT_software/LiteOS_Lab_overseas/LiteOS_Lab/iot_link/network/lwm2m/wakaama_lwm2m/core\observe.c ****                                 diff = integerValue - watcherP->lastValue.asInteger;
ARM GAS  C:\Users\dtjld\AppData\Local\Temp\ccRVA30A.s 			page 93


 804:C:/Users/dtjld/Desktop/AIoT_software/LiteOS_Lab_overseas/LiteOS_Lab/iot_link/network/lwm2m/wakaama_lwm2m/core\observe.c ****                                 if ((diff < 0 && (0 - diff) >= watcherP->parameters->step)
 805:C:/Users/dtjld/Desktop/AIoT_software/LiteOS_Lab_overseas/LiteOS_Lab/iot_link/network/lwm2m/wakaama_lwm2m/core\observe.c ****                                         || (diff >= 0 && diff >= watcherP->parameters->step))
 806:C:/Users/dtjld/Desktop/AIoT_software/LiteOS_Lab_overseas/LiteOS_Lab/iot_link/network/lwm2m/wakaama_lwm2m/core\observe.c ****                                 {
 807:C:/Users/dtjld/Desktop/AIoT_software/LiteOS_Lab_overseas/LiteOS_Lab/iot_link/network/lwm2m/wakaama_lwm2m/core\observe.c ****                                     LOG("Notify on step condition");
 808:C:/Users/dtjld/Desktop/AIoT_software/LiteOS_Lab_overseas/LiteOS_Lab/iot_link/network/lwm2m/wakaama_lwm2m/core\observe.c ****                                     notify = true;
 809:C:/Users/dtjld/Desktop/AIoT_software/LiteOS_Lab_overseas/LiteOS_Lab/iot_link/network/lwm2m/wakaama_lwm2m/core\observe.c ****                                 }
 810:C:/Users/dtjld/Desktop/AIoT_software/LiteOS_Lab_overseas/LiteOS_Lab/iot_link/network/lwm2m/wakaama_lwm2m/core\observe.c ****                             }
 811:C:/Users/dtjld/Desktop/AIoT_software/LiteOS_Lab_overseas/LiteOS_Lab/iot_link/network/lwm2m/wakaama_lwm2m/core\observe.c ****                             break;
 812:C:/Users/dtjld/Desktop/AIoT_software/LiteOS_Lab_overseas/LiteOS_Lab/iot_link/network/lwm2m/wakaama_lwm2m/core\observe.c ****                             case LWM2M_TYPE_FLOAT:
 813:C:/Users/dtjld/Desktop/AIoT_software/LiteOS_Lab_overseas/LiteOS_Lab/iot_link/network/lwm2m/wakaama_lwm2m/core\observe.c ****                             {
 814:C:/Users/dtjld/Desktop/AIoT_software/LiteOS_Lab_overseas/LiteOS_Lab/iot_link/network/lwm2m/wakaama_lwm2m/core\observe.c ****                                 double diff;
 815:C:/Users/dtjld/Desktop/AIoT_software/LiteOS_Lab_overseas/LiteOS_Lab/iot_link/network/lwm2m/wakaama_lwm2m/core\observe.c **** 
 816:C:/Users/dtjld/Desktop/AIoT_software/LiteOS_Lab_overseas/LiteOS_Lab/iot_link/network/lwm2m/wakaama_lwm2m/core\observe.c ****                                 diff = floatValue - watcherP->lastValue.asFloat;
 817:C:/Users/dtjld/Desktop/AIoT_software/LiteOS_Lab_overseas/LiteOS_Lab/iot_link/network/lwm2m/wakaama_lwm2m/core\observe.c ****                                 if ((diff < 0 && (0 - diff) >= watcherP->parameters->step)
 818:C:/Users/dtjld/Desktop/AIoT_software/LiteOS_Lab_overseas/LiteOS_Lab/iot_link/network/lwm2m/wakaama_lwm2m/core\observe.c ****                                         || (diff >= 0 && diff >= watcherP->parameters->step))
 819:C:/Users/dtjld/Desktop/AIoT_software/LiteOS_Lab_overseas/LiteOS_Lab/iot_link/network/lwm2m/wakaama_lwm2m/core\observe.c ****                                 {
 820:C:/Users/dtjld/Desktop/AIoT_software/LiteOS_Lab_overseas/LiteOS_Lab/iot_link/network/lwm2m/wakaama_lwm2m/core\observe.c ****                                     LOG("Notify on step condition");
 821:C:/Users/dtjld/Desktop/AIoT_software/LiteOS_Lab_overseas/LiteOS_Lab/iot_link/network/lwm2m/wakaama_lwm2m/core\observe.c ****                                     notify = true;
 822:C:/Users/dtjld/Desktop/AIoT_software/LiteOS_Lab_overseas/LiteOS_Lab/iot_link/network/lwm2m/wakaama_lwm2m/core\observe.c ****                                 }
 823:C:/Users/dtjld/Desktop/AIoT_software/LiteOS_Lab_overseas/LiteOS_Lab/iot_link/network/lwm2m/wakaama_lwm2m/core\observe.c ****                             }
 824:C:/Users/dtjld/Desktop/AIoT_software/LiteOS_Lab_overseas/LiteOS_Lab/iot_link/network/lwm2m/wakaama_lwm2m/core\observe.c ****                             break;
 825:C:/Users/dtjld/Desktop/AIoT_software/LiteOS_Lab_overseas/LiteOS_Lab/iot_link/network/lwm2m/wakaama_lwm2m/core\observe.c ****                             default:
 826:C:/Users/dtjld/Desktop/AIoT_software/LiteOS_Lab_overseas/LiteOS_Lab/iot_link/network/lwm2m/wakaama_lwm2m/core\observe.c ****                                 break;
 3832              		.loc 2 826 0
 3833 0622 B6E0     		b	.L236
 3834              	.L323:
 3835              		.align	2
 3836              	.L322:
 3837 0624 00000000 		.word	__func__.8659
 3838 0628 08040000 		.word	.LC36
 3839 062c 3C040000 		.word	.LC37
 3840 0630 64040000 		.word	.LC38
 3841 0634 94040000 		.word	.LC39
 3842              	.L270:
 3843              	.LBB13:
 803:C:/Users/dtjld/Desktop/AIoT_software/LiteOS_Lab_overseas/LiteOS_Lab/iot_link/network/lwm2m/wakaama_lwm2m/core\observe.c ****                                 if ((diff < 0 && (0 - diff) >= watcherP->parameters->step)
 3844              		.loc 2 803 0
 3845 0638 D7E92812 		ldrd	r1, [r7, #160]
 3846 063c D7F8F030 		ldr	r3, [r7, #240]
 3847 0640 D3E90CBC 		ldrd	fp, [r3, #48]
 3848 0644 0B46     		mov	r3, r1
 3849 0646 1446     		mov	r4, r2
 3850 0648 B3EB0B03 		subs	r3, r3, fp
 3851 064c 64EB0C04 		sbc	r4, r4, ip
 3852 0650 C7E93634 		strd	r3, [r7, #216]
 804:C:/Users/dtjld/Desktop/AIoT_software/LiteOS_Lab_overseas/LiteOS_Lab/iot_link/network/lwm2m/wakaama_lwm2m/core\observe.c ****                                         || (diff >= 0 && diff >= watcherP->parameters->step))
 3853              		.loc 2 804 0
 3854 0654 D7E93634 		ldrd	r3, [r7, #216]
 3855 0658 002B     		cmp	r3, #0
 3856 065a 74F10003 		sbcs	r3, r4, #0
 3857 065e 14DA     		bge	.L272
 804:C:/Users/dtjld/Desktop/AIoT_software/LiteOS_Lab_overseas/LiteOS_Lab/iot_link/network/lwm2m/wakaama_lwm2m/core\observe.c ****                                         || (diff >= 0 && diff >= watcherP->parameters->step))
 3858              		.loc 2 804 0 is_stmt 0 discriminator 1
 3859 0660 D7E93634 		ldrd	r3, [r7, #216]
 3860 0664 5B42     		rsbs	r3, r3, #0
 3861 0666 64EB4404 		sbc	r4, r4, r4, lsl #1
 3862 066a 1846     		mov	r0, r3
ARM GAS  C:\Users\dtjld\AppData\Local\Temp\ccRVA30A.s 			page 94


 3863 066c 2146     		mov	r1, r4
 3864 066e FFF7FEFF 		bl	__aeabi_l2d
 3865              	.LVL30:
 3866 0672 D7F8F030 		ldr	r3, [r7, #240]
 3867 0676 DB68     		ldr	r3, [r3, #12]
 3868 0678 D3E90834 		ldrd	r3, [r3, #32]
 3869 067c 1A46     		mov	r2, r3
 3870 067e 2346     		mov	r3, r4
 3871 0680 FFF7FEFF 		bl	__aeabi_dcmpge
 3872              	.LVL31:
 3873 0684 0346     		mov	r3, r0
 3874 0686 002B     		cmp	r3, #0
 3875 0688 16D1     		bne	.L273
 3876              	.L272:
 805:C:/Users/dtjld/Desktop/AIoT_software/LiteOS_Lab_overseas/LiteOS_Lab/iot_link/network/lwm2m/wakaama_lwm2m/core\observe.c ****                                 {
 3877              		.loc 2 805 0 is_stmt 1
 3878 068a D7E93634 		ldrd	r3, [r7, #216]
 3879 068e 002B     		cmp	r3, #0
 3880 0690 74F10003 		sbcs	r3, r4, #0
 3881 0694 7CDB     		blt	.L317
 805:C:/Users/dtjld/Desktop/AIoT_software/LiteOS_Lab_overseas/LiteOS_Lab/iot_link/network/lwm2m/wakaama_lwm2m/core\observe.c ****                                 {
 3882              		.loc 2 805 0 is_stmt 0 discriminator 1
 3883 0696 D7E93601 		ldrd	r0, [r7, #216]
 3884 069a FFF7FEFF 		bl	__aeabi_l2d
 3885              	.LVL32:
 3886 069e D7F8F030 		ldr	r3, [r7, #240]
 3887 06a2 DB68     		ldr	r3, [r3, #12]
 3888 06a4 D3E90834 		ldrd	r3, [r3, #32]
 3889 06a8 1A46     		mov	r2, r3
 3890 06aa 2346     		mov	r3, r4
 3891 06ac FFF7FEFF 		bl	__aeabi_dcmpge
 3892              	.LVL33:
 3893 06b0 0346     		mov	r3, r0
 3894 06b2 002B     		cmp	r3, #0
 3895 06b4 00D1     		bne	.L273
 3896              	.LBE13:
 811:C:/Users/dtjld/Desktop/AIoT_software/LiteOS_Lab_overseas/LiteOS_Lab/iot_link/network/lwm2m/wakaama_lwm2m/core\observe.c ****                             case LWM2M_TYPE_FLOAT:
 3897              		.loc 2 811 0 is_stmt 1 discriminator 1
 3898 06b6 6BE0     		b	.L317
 3899              	.L273:
 3900              	.LBB14:
 807:C:/Users/dtjld/Desktop/AIoT_software/LiteOS_Lab_overseas/LiteOS_Lab/iot_link/network/lwm2m/wakaama_lwm2m/core\observe.c ****                                     notify = true;
 3901              		.loc 2 807 0
 3902 06b8 FFF7FEFF 		bl	lwm2m_gettime
 3903 06bc 0346     		mov	r3, r0
 3904 06be 0C46     		mov	r4, r1
 3905 06c0 1946     		mov	r1, r3
 3906 06c2 40F22733 		movw	r3, #807
 3907 06c6 AD4A     		ldr	r2, .L324
 3908 06c8 AD48     		ldr	r0, .L324+4
 3909 06ca FFF7FEFF 		bl	atiny_printf
 808:C:/Users/dtjld/Desktop/AIoT_software/LiteOS_Lab_overseas/LiteOS_Lab/iot_link/network/lwm2m/wakaama_lwm2m/core\observe.c ****                                 }
 3910              		.loc 2 808 0
 3911 06ce 0123     		movs	r3, #1
 3912 06d0 87F8EE30 		strb	r3, [r7, #238]
 3913              	.LBE14:
 811:C:/Users/dtjld/Desktop/AIoT_software/LiteOS_Lab_overseas/LiteOS_Lab/iot_link/network/lwm2m/wakaama_lwm2m/core\observe.c ****                             case LWM2M_TYPE_FLOAT:
ARM GAS  C:\Users\dtjld\AppData\Local\Temp\ccRVA30A.s 			page 95


 3914              		.loc 2 811 0
 3915 06d4 5CE0     		b	.L317
 3916              	.L271:
 3917              	.LBB15:
 816:C:/Users/dtjld/Desktop/AIoT_software/LiteOS_Lab_overseas/LiteOS_Lab/iot_link/network/lwm2m/wakaama_lwm2m/core\observe.c ****                                 if ((diff < 0 && (0 - diff) >= watcherP->parameters->step)
 3918              		.loc 2 816 0
 3919 06d6 D7E92A01 		ldrd	r0, [r7, #168]
 3920 06da D7F8F030 		ldr	r3, [r7, #240]
 3921 06de D3E90C34 		ldrd	r3, [r3, #48]
 3922 06e2 1A46     		mov	r2, r3
 3923 06e4 2346     		mov	r3, r4
 3924 06e6 FFF7FEFF 		bl	__aeabi_dsub
 3925              	.LVL34:
 3926 06ea 0346     		mov	r3, r0
 3927 06ec 0C46     		mov	r4, r1
 3928 06ee C7E93834 		strd	r3, [r7, #224]
 817:C:/Users/dtjld/Desktop/AIoT_software/LiteOS_Lab_overseas/LiteOS_Lab/iot_link/network/lwm2m/wakaama_lwm2m/core\observe.c ****                                         || (diff >= 0 && diff >= watcherP->parameters->step))
 3929              		.loc 2 817 0
 3930 06f2 4FF00002 		mov	r2, #0
 3931 06f6 4FF00003 		mov	r3, #0
 3932 06fa D7E93801 		ldrd	r0, [r7, #224]
 3933 06fe FFF7FEFF 		bl	__aeabi_dcmplt
 3934              	.LVL35:
 3935 0702 0346     		mov	r3, r0
 3936 0704 002B     		cmp	r3, #0
 3937 0706 17D0     		beq	.L276
 817:C:/Users/dtjld/Desktop/AIoT_software/LiteOS_Lab_overseas/LiteOS_Lab/iot_link/network/lwm2m/wakaama_lwm2m/core\observe.c ****                                         || (diff >= 0 && diff >= watcherP->parameters->step))
 3938              		.loc 2 817 0 is_stmt 0 discriminator 1
 3939 0708 D7E93823 		ldrd	r2, [r7, #224]
 3940 070c 4FF00000 		mov	r0, #0
 3941 0710 4FF00001 		mov	r1, #0
 3942 0714 FFF7FEFF 		bl	__aeabi_dsub
 3943              	.LVL36:
 3944 0718 0346     		mov	r3, r0
 3945 071a 0C46     		mov	r4, r1
 3946 071c 1846     		mov	r0, r3
 3947 071e 2146     		mov	r1, r4
 3948 0720 D7F8F030 		ldr	r3, [r7, #240]
 3949 0724 DB68     		ldr	r3, [r3, #12]
 3950 0726 D3E90834 		ldrd	r3, [r3, #32]
 3951 072a 1A46     		mov	r2, r3
 3952 072c 2346     		mov	r3, r4
 3953 072e FFF7FEFF 		bl	__aeabi_dcmpge
 3954              	.LVL37:
 3955 0732 0346     		mov	r3, r0
 3956 0734 002B     		cmp	r3, #0
 3957 0736 1AD1     		bne	.L278
 3958              	.L276:
 818:C:/Users/dtjld/Desktop/AIoT_software/LiteOS_Lab_overseas/LiteOS_Lab/iot_link/network/lwm2m/wakaama_lwm2m/core\observe.c ****                                 {
 3959              		.loc 2 818 0 is_stmt 1
 3960 0738 4FF00002 		mov	r2, #0
 3961 073c 4FF00003 		mov	r3, #0
 3962 0740 D7E93801 		ldrd	r0, [r7, #224]
 3963 0744 FFF7FEFF 		bl	__aeabi_dcmpge
 3964              	.LVL38:
 3965 0748 0346     		mov	r3, r0
 3966 074a 002B     		cmp	r3, #0
ARM GAS  C:\Users\dtjld\AppData\Local\Temp\ccRVA30A.s 			page 96


 3967 074c 00D1     		bne	.L311
 3968              	.LBE15:
 824:C:/Users/dtjld/Desktop/AIoT_software/LiteOS_Lab_overseas/LiteOS_Lab/iot_link/network/lwm2m/wakaama_lwm2m/core\observe.c ****                             default:
 3969              		.loc 2 824 0
 3970 074e 20E0     		b	.L236
 3971              	.L311:
 3972              	.LBB16:
 818:C:/Users/dtjld/Desktop/AIoT_software/LiteOS_Lab_overseas/LiteOS_Lab/iot_link/network/lwm2m/wakaama_lwm2m/core\observe.c ****                                 {
 3973              		.loc 2 818 0 discriminator 1
 3974 0750 D7F8F030 		ldr	r3, [r7, #240]
 3975 0754 DB68     		ldr	r3, [r3, #12]
 3976 0756 D3E90834 		ldrd	r3, [r3, #32]
 3977 075a 1A46     		mov	r2, r3
 3978 075c 2346     		mov	r3, r4
 3979 075e D7E93801 		ldrd	r0, [r7, #224]
 3980 0762 FFF7FEFF 		bl	__aeabi_dcmpge
 3981              	.LVL39:
 3982 0766 0346     		mov	r3, r0
 3983 0768 002B     		cmp	r3, #0
 3984 076a 00D1     		bne	.L278
 3985              	.LBE16:
 824:C:/Users/dtjld/Desktop/AIoT_software/LiteOS_Lab_overseas/LiteOS_Lab/iot_link/network/lwm2m/wakaama_lwm2m/core\observe.c ****                             default:
 3986              		.loc 2 824 0 discriminator 1
 3987 076c 11E0     		b	.L236
 3988              	.L278:
 3989              	.LBB17:
 820:C:/Users/dtjld/Desktop/AIoT_software/LiteOS_Lab_overseas/LiteOS_Lab/iot_link/network/lwm2m/wakaama_lwm2m/core\observe.c ****                                     notify = true;
 3990              		.loc 2 820 0
 3991 076e FFF7FEFF 		bl	lwm2m_gettime
 3992 0772 0346     		mov	r3, r0
 3993 0774 0C46     		mov	r4, r1
 3994 0776 1946     		mov	r1, r3
 3995 0778 4FF44D73 		mov	r3, #820
 3996 077c 7F4A     		ldr	r2, .L324
 3997 077e 8048     		ldr	r0, .L324+4
 3998 0780 FFF7FEFF 		bl	atiny_printf
 821:C:/Users/dtjld/Desktop/AIoT_software/LiteOS_Lab_overseas/LiteOS_Lab/iot_link/network/lwm2m/wakaama_lwm2m/core\observe.c ****                                 }
 3999              		.loc 2 821 0
 4000 0784 0123     		movs	r3, #1
 4001 0786 87F8EE30 		strb	r3, [r7, #238]
 4002              	.LBE17:
 824:C:/Users/dtjld/Desktop/AIoT_software/LiteOS_Lab_overseas/LiteOS_Lab/iot_link/network/lwm2m/wakaama_lwm2m/core\observe.c ****                             default:
 4003              		.loc 2 824 0
 4004 078a 02E0     		b	.L236
 4005              	.L314:
 827:C:/Users/dtjld/Desktop/AIoT_software/LiteOS_Lab_overseas/LiteOS_Lab/iot_link/network/lwm2m/wakaama_lwm2m/core\observe.c ****                             }
 828:C:/Users/dtjld/Desktop/AIoT_software/LiteOS_Lab_overseas/LiteOS_Lab/iot_link/network/lwm2m/wakaama_lwm2m/core\observe.c ****                         }
 4006              		.loc 2 828 0
 4007 078c 00BF     		nop
 4008 078e 00E0     		b	.L236
 4009              	.L317:
 811:C:/Users/dtjld/Desktop/AIoT_software/LiteOS_Lab_overseas/LiteOS_Lab/iot_link/network/lwm2m/wakaama_lwm2m/core\observe.c ****                             case LWM2M_TYPE_FLOAT:
 4010              		.loc 2 811 0
 4011 0790 00BF     		nop
 4012              	.L236:
 829:C:/Users/dtjld/Desktop/AIoT_software/LiteOS_Lab_overseas/LiteOS_Lab/iot_link/network/lwm2m/wakaama_lwm2m/core\observe.c ****                     }
 830:C:/Users/dtjld/Desktop/AIoT_software/LiteOS_Lab_overseas/LiteOS_Lab/iot_link/network/lwm2m/wakaama_lwm2m/core\observe.c **** 
ARM GAS  C:\Users\dtjld\AppData\Local\Temp\ccRVA30A.s 			page 97


 831:C:/Users/dtjld/Desktop/AIoT_software/LiteOS_Lab_overseas/LiteOS_Lab/iot_link/network/lwm2m/wakaama_lwm2m/core\observe.c ****                     if (watcherP->parameters != NULL
 4013              		.loc 2 831 0
 4014 0792 D7F8F030 		ldr	r3, [r7, #240]
 4015 0796 DB68     		ldr	r3, [r3, #12]
 4016 0798 002B     		cmp	r3, #0
 4017 079a 65D0     		beq	.L230
 832:C:/Users/dtjld/Desktop/AIoT_software/LiteOS_Lab_overseas/LiteOS_Lab/iot_link/network/lwm2m/wakaama_lwm2m/core\observe.c ****                             && (watcherP->parameters->toSet & LWM2M_ATTR_FLAG_MIN_PERIOD) != 0)
 4018              		.loc 2 832 0
 4019 079c D7F8F030 		ldr	r3, [r7, #240]
 4020 07a0 DB68     		ldr	r3, [r3, #12]
 4021 07a2 1B78     		ldrb	r3, [r3]	@ zero_extendqisi2
 4022 07a4 03F00103 		and	r3, r3, #1
 4023 07a8 002B     		cmp	r3, #0
 4024 07aa 5DD0     		beq	.L230
 833:C:/Users/dtjld/Desktop/AIoT_software/LiteOS_Lab_overseas/LiteOS_Lab/iot_link/network/lwm2m/wakaama_lwm2m/core\observe.c ****                     {
 834:C:/Users/dtjld/Desktop/AIoT_software/LiteOS_Lab_overseas/LiteOS_Lab/iot_link/network/lwm2m/wakaama_lwm2m/core\observe.c ****                         LOG_ARG("Checking minimal period (%d s)", watcherP->parameters->minPeriod);
 4025              		.loc 2 834 0
 4026 07ac FFF7FEFF 		bl	lwm2m_gettime
 4027 07b0 0346     		mov	r3, r0
 4028 07b2 0C46     		mov	r4, r1
 4029 07b4 1946     		mov	r1, r3
 4030 07b6 D7F8F030 		ldr	r3, [r7, #240]
 4031 07ba DB68     		ldr	r3, [r3, #12]
 4032 07bc 5B68     		ldr	r3, [r3, #4]
 4033 07be 0093     		str	r3, [sp]
 4034 07c0 40F24233 		movw	r3, #834
 4035 07c4 6D4A     		ldr	r2, .L324
 4036 07c6 6F48     		ldr	r0, .L324+8
 4037 07c8 FFF7FEFF 		bl	atiny_printf
 835:C:/Users/dtjld/Desktop/AIoT_software/LiteOS_Lab_overseas/LiteOS_Lab/iot_link/network/lwm2m/wakaama_lwm2m/core\observe.c **** 
 836:C:/Users/dtjld/Desktop/AIoT_software/LiteOS_Lab_overseas/LiteOS_Lab/iot_link/network/lwm2m/wakaama_lwm2m/core\observe.c ****                         if (watcherP->lastTime + watcherP->parameters->minPeriod > currentTime)
 4038              		.loc 2 836 0
 4039 07cc D7F8F030 		ldr	r3, [r7, #240]
 4040 07d0 D3E90812 		ldrd	r1, [r3, #32]
 4041 07d4 D7F8F030 		ldr	r3, [r7, #240]
 4042 07d8 DB68     		ldr	r3, [r3, #12]
 4043 07da 5B68     		ldr	r3, [r3, #4]
 4044 07dc 9B46     		mov	fp, r3
 4045 07de 4FF0000C 		mov	ip, #0
 4046 07e2 1BEB0103 		adds	r3, fp, r1
 4047 07e6 4CEB0204 		adc	r4, ip, r2
 4048 07ea D7E90012 		ldrd	r1, [r7]
 4049 07ee 9942     		cmp	r1, r3
 4050 07f0 72EB0403 		sbcs	r3, r2, r4
 4051 07f4 2ADA     		bge	.L282
 837:C:/Users/dtjld/Desktop/AIoT_software/LiteOS_Lab_overseas/LiteOS_Lab/iot_link/network/lwm2m/wakaama_lwm2m/core\observe.c ****                         {
 838:C:/Users/dtjld/Desktop/AIoT_software/LiteOS_Lab_overseas/LiteOS_Lab/iot_link/network/lwm2m/wakaama_lwm2m/core\observe.c ****                             // Minimum Period did not elapse yet
 839:C:/Users/dtjld/Desktop/AIoT_software/LiteOS_Lab_overseas/LiteOS_Lab/iot_link/network/lwm2m/wakaama_lwm2m/core\observe.c ****                             interval = watcherP->lastTime + watcherP->parameters->minPeriod - curre
 4052              		.loc 2 839 0
 4053 07f6 D7F8F030 		ldr	r3, [r7, #240]
 4054 07fa D3E908BC 		ldrd	fp, [r3, #32]
 4055 07fe D7F8F030 		ldr	r3, [r7, #240]
 4056 0802 DB68     		ldr	r3, [r3, #12]
 4057 0804 5B68     		ldr	r3, [r3, #4]
 4058 0806 4FF00004 		mov	r4, #0
 4059 080a 1BEB0301 		adds	r1, fp, r3
 4060 080e 4CEB0402 		adc	r2, ip, r4
ARM GAS  C:\Users\dtjld\AppData\Local\Temp\ccRVA30A.s 			page 98


 4061 0812 D7E90034 		ldrd	r3, [r7]
 4062 0816 C91A     		subs	r1, r1, r3
 4063 0818 62EB0402 		sbc	r2, r2, r4
 4064 081c 8B46     		mov	fp, r1
 4065 081e 9446     		mov	ip, r2
 4066 0820 C7E934BC 		strd	fp, [r7, #208]
 840:C:/Users/dtjld/Desktop/AIoT_software/LiteOS_Lab_overseas/LiteOS_Lab/iot_link/network/lwm2m/wakaama_lwm2m/core\observe.c ****                             if (*timeoutP > interval) *timeoutP = interval;
 4067              		.loc 2 840 0
 4068 0824 D7F80831 		ldr	r3, [r7, #264]
 4069 0828 D3E90034 		ldrd	r3, [r3]
 4070 082c D7E93412 		ldrd	r1, [r7, #208]
 4071 0830 9942     		cmp	r1, r3
 4072 0832 72EB0403 		sbcs	r3, r2, r4
 4073 0836 05DA     		bge	.L283
 4074              		.loc 2 840 0 is_stmt 0 discriminator 1
 4075 0838 D7F80821 		ldr	r2, [r7, #264]
 4076 083c D7E93434 		ldrd	r3, [r7, #208]
 4077 0840 C2E90034 		strd	r3, [r2]
 4078              	.L283:
 841:C:/Users/dtjld/Desktop/AIoT_software/LiteOS_Lab_overseas/LiteOS_Lab/iot_link/network/lwm2m/wakaama_lwm2m/core\observe.c ****                             notify = false;
 4079              		.loc 2 841 0 is_stmt 1
 4080 0844 0023     		movs	r3, #0
 4081 0846 87F8EE30 		strb	r3, [r7, #238]
 4082 084a 0DE0     		b	.L230
 4083              	.L282:
 842:C:/Users/dtjld/Desktop/AIoT_software/LiteOS_Lab_overseas/LiteOS_Lab/iot_link/network/lwm2m/wakaama_lwm2m/core\observe.c ****                         }
 843:C:/Users/dtjld/Desktop/AIoT_software/LiteOS_Lab_overseas/LiteOS_Lab/iot_link/network/lwm2m/wakaama_lwm2m/core\observe.c ****                         else
 844:C:/Users/dtjld/Desktop/AIoT_software/LiteOS_Lab_overseas/LiteOS_Lab/iot_link/network/lwm2m/wakaama_lwm2m/core\observe.c ****                         {
 845:C:/Users/dtjld/Desktop/AIoT_software/LiteOS_Lab_overseas/LiteOS_Lab/iot_link/network/lwm2m/wakaama_lwm2m/core\observe.c ****                             LOG("Notify on minimal period");
 4084              		.loc 2 845 0
 4085 084c FFF7FEFF 		bl	lwm2m_gettime
 4086 0850 0346     		mov	r3, r0
 4087 0852 0C46     		mov	r4, r1
 4088 0854 1946     		mov	r1, r3
 4089 0856 40F24D33 		movw	r3, #845
 4090 085a 484A     		ldr	r2, .L324
 4091 085c 4A48     		ldr	r0, .L324+12
 4092 085e FFF7FEFF 		bl	atiny_printf
 846:C:/Users/dtjld/Desktop/AIoT_software/LiteOS_Lab_overseas/LiteOS_Lab/iot_link/network/lwm2m/wakaama_lwm2m/core\observe.c ****                             notify = true;
 4093              		.loc 2 846 0
 4094 0862 0123     		movs	r3, #1
 4095 0864 87F8EE30 		strb	r3, [r7, #238]
 4096              	.L230:
 847:C:/Users/dtjld/Desktop/AIoT_software/LiteOS_Lab_overseas/LiteOS_Lab/iot_link/network/lwm2m/wakaama_lwm2m/core\observe.c ****                         }
 848:C:/Users/dtjld/Desktop/AIoT_software/LiteOS_Lab_overseas/LiteOS_Lab/iot_link/network/lwm2m/wakaama_lwm2m/core\observe.c ****                     }
 849:C:/Users/dtjld/Desktop/AIoT_software/LiteOS_Lab_overseas/LiteOS_Lab/iot_link/network/lwm2m/wakaama_lwm2m/core\observe.c ****                 }
 850:C:/Users/dtjld/Desktop/AIoT_software/LiteOS_Lab_overseas/LiteOS_Lab/iot_link/network/lwm2m/wakaama_lwm2m/core\observe.c **** 
 851:C:/Users/dtjld/Desktop/AIoT_software/LiteOS_Lab_overseas/LiteOS_Lab/iot_link/network/lwm2m/wakaama_lwm2m/core\observe.c ****                 // Is the Maximum Period reached ?
 852:C:/Users/dtjld/Desktop/AIoT_software/LiteOS_Lab_overseas/LiteOS_Lab/iot_link/network/lwm2m/wakaama_lwm2m/core\observe.c ****                 if (notify == false
 4097              		.loc 2 852 0
 4098 0868 97F8EE30 		ldrb	r3, [r7, #238]
 4099 086c 83F00103 		eor	r3, r3, #1
 4100 0870 DBB2     		uxtb	r3, r3
 4101 0872 002B     		cmp	r3, #0
 4102 0874 3FD0     		beq	.L284
 853:C:/Users/dtjld/Desktop/AIoT_software/LiteOS_Lab_overseas/LiteOS_Lab/iot_link/network/lwm2m/wakaama_lwm2m/core\observe.c ****                         && watcherP->parameters != NULL
 4103              		.loc 2 853 0
ARM GAS  C:\Users\dtjld\AppData\Local\Temp\ccRVA30A.s 			page 99


 4104 0876 D7F8F030 		ldr	r3, [r7, #240]
 4105 087a DB68     		ldr	r3, [r3, #12]
 4106 087c 002B     		cmp	r3, #0
 4107 087e 3AD0     		beq	.L284
 854:C:/Users/dtjld/Desktop/AIoT_software/LiteOS_Lab_overseas/LiteOS_Lab/iot_link/network/lwm2m/wakaama_lwm2m/core\observe.c ****                         && (watcherP->parameters->toSet & LWM2M_ATTR_FLAG_MAX_PERIOD) != 0)
 4108              		.loc 2 854 0
 4109 0880 D7F8F030 		ldr	r3, [r7, #240]
 4110 0884 DB68     		ldr	r3, [r3, #12]
 4111 0886 1B78     		ldrb	r3, [r3]	@ zero_extendqisi2
 4112 0888 03F00203 		and	r3, r3, #2
 4113 088c 002B     		cmp	r3, #0
 4114 088e 32D0     		beq	.L284
 855:C:/Users/dtjld/Desktop/AIoT_software/LiteOS_Lab_overseas/LiteOS_Lab/iot_link/network/lwm2m/wakaama_lwm2m/core\observe.c ****                 {
 856:C:/Users/dtjld/Desktop/AIoT_software/LiteOS_Lab_overseas/LiteOS_Lab/iot_link/network/lwm2m/wakaama_lwm2m/core\observe.c ****                     LOG_ARG("Checking maximal period (%d s)", watcherP->parameters->maxPeriod);
 4115              		.loc 2 856 0
 4116 0890 FFF7FEFF 		bl	lwm2m_gettime
 4117 0894 0346     		mov	r3, r0
 4118 0896 0C46     		mov	r4, r1
 4119 0898 1946     		mov	r1, r3
 4120 089a D7F8F030 		ldr	r3, [r7, #240]
 4121 089e DB68     		ldr	r3, [r3, #12]
 4122 08a0 9B68     		ldr	r3, [r3, #8]
 4123 08a2 0093     		str	r3, [sp]
 4124 08a4 4FF45673 		mov	r3, #856
 4125 08a8 344A     		ldr	r2, .L324
 4126 08aa 3848     		ldr	r0, .L324+16
 4127 08ac FFF7FEFF 		bl	atiny_printf
 857:C:/Users/dtjld/Desktop/AIoT_software/LiteOS_Lab_overseas/LiteOS_Lab/iot_link/network/lwm2m/wakaama_lwm2m/core\observe.c **** 
 858:C:/Users/dtjld/Desktop/AIoT_software/LiteOS_Lab_overseas/LiteOS_Lab/iot_link/network/lwm2m/wakaama_lwm2m/core\observe.c ****                     if (watcherP->lastTime + watcherP->parameters->maxPeriod <= currentTime)
 4128              		.loc 2 858 0
 4129 08b0 D7F8F030 		ldr	r3, [r7, #240]
 4130 08b4 D3E90812 		ldrd	r1, [r3, #32]
 4131 08b8 D7F8F030 		ldr	r3, [r7, #240]
 4132 08bc DB68     		ldr	r3, [r3, #12]
 4133 08be 9B68     		ldr	r3, [r3, #8]
 4134 08c0 9B46     		mov	fp, r3
 4135 08c2 4FF0000C 		mov	ip, #0
 4136 08c6 1BEB0103 		adds	r3, fp, r1
 4137 08ca 4CEB0204 		adc	r4, ip, r2
 4138 08ce D7E90012 		ldrd	r1, [r7]
 4139 08d2 9942     		cmp	r1, r3
 4140 08d4 72EB0403 		sbcs	r3, r2, r4
 4141 08d8 0DDB     		blt	.L284
 859:C:/Users/dtjld/Desktop/AIoT_software/LiteOS_Lab_overseas/LiteOS_Lab/iot_link/network/lwm2m/wakaama_lwm2m/core\observe.c ****                     {
 860:C:/Users/dtjld/Desktop/AIoT_software/LiteOS_Lab_overseas/LiteOS_Lab/iot_link/network/lwm2m/wakaama_lwm2m/core\observe.c ****                         LOG("Notify on maximal period");
 4142              		.loc 2 860 0
 4143 08da FFF7FEFF 		bl	lwm2m_gettime
 4144 08de 0346     		mov	r3, r0
 4145 08e0 0C46     		mov	r4, r1
 4146 08e2 1946     		mov	r1, r3
 4147 08e4 4FF45773 		mov	r3, #860
 4148 08e8 244A     		ldr	r2, .L324
 4149 08ea 2948     		ldr	r0, .L324+20
 4150 08ec FFF7FEFF 		bl	atiny_printf
 861:C:/Users/dtjld/Desktop/AIoT_software/LiteOS_Lab_overseas/LiteOS_Lab/iot_link/network/lwm2m/wakaama_lwm2m/core\observe.c ****                         notify = true;
 4151              		.loc 2 861 0
 4152 08f0 0123     		movs	r3, #1
ARM GAS  C:\Users\dtjld\AppData\Local\Temp\ccRVA30A.s 			page 100


 4153 08f2 87F8EE30 		strb	r3, [r7, #238]
 4154              	.L284:
 862:C:/Users/dtjld/Desktop/AIoT_software/LiteOS_Lab_overseas/LiteOS_Lab/iot_link/network/lwm2m/wakaama_lwm2m/core\observe.c ****                     }
 863:C:/Users/dtjld/Desktop/AIoT_software/LiteOS_Lab_overseas/LiteOS_Lab/iot_link/network/lwm2m/wakaama_lwm2m/core\observe.c ****                 }
 864:C:/Users/dtjld/Desktop/AIoT_software/LiteOS_Lab_overseas/LiteOS_Lab/iot_link/network/lwm2m/wakaama_lwm2m/core\observe.c **** 
 865:C:/Users/dtjld/Desktop/AIoT_software/LiteOS_Lab_overseas/LiteOS_Lab/iot_link/network/lwm2m/wakaama_lwm2m/core\observe.c ****                 if (notify == true)
 4155              		.loc 2 865 0
 4156 08f6 97F8EE30 		ldrb	r3, [r7, #238]	@ zero_extendqisi2
 4157 08fa 002B     		cmp	r3, #0
 4158 08fc 00F0CB80 		beq	.L285
 866:C:/Users/dtjld/Desktop/AIoT_software/LiteOS_Lab_overseas/LiteOS_Lab/iot_link/network/lwm2m/wakaama_lwm2m/core\observe.c ****                 {
 867:C:/Users/dtjld/Desktop/AIoT_software/LiteOS_Lab_overseas/LiteOS_Lab/iot_link/network/lwm2m/wakaama_lwm2m/core\observe.c ****                     if (buffer == NULL)
 4159              		.loc 2 867 0
 4160 0900 D7F8C830 		ldr	r3, [r7, #200]
 4161 0904 002B     		cmp	r3, #0
 4162 0906 70D1     		bne	.L286
 868:C:/Users/dtjld/Desktop/AIoT_software/LiteOS_Lab_overseas/LiteOS_Lab/iot_link/network/lwm2m/wakaama_lwm2m/core\observe.c ****                     {
 869:C:/Users/dtjld/Desktop/AIoT_software/LiteOS_Lab_overseas/LiteOS_Lab/iot_link/network/lwm2m/wakaama_lwm2m/core\observe.c ****                         if (dataP != NULL)
 4163              		.loc 2 869 0
 4164 0908 D7F8C030 		ldr	r3, [r7, #192]
 4165 090c 002B     		cmp	r3, #0
 4166 090e 1CD0     		beq	.L287
 4167              	.LBB18:
 870:C:/Users/dtjld/Desktop/AIoT_software/LiteOS_Lab_overseas/LiteOS_Lab/iot_link/network/lwm2m/wakaama_lwm2m/core\observe.c ****                         {
 871:C:/Users/dtjld/Desktop/AIoT_software/LiteOS_Lab_overseas/LiteOS_Lab/iot_link/network/lwm2m/wakaama_lwm2m/core\observe.c ****                             int res;
 872:C:/Users/dtjld/Desktop/AIoT_software/LiteOS_Lab_overseas/LiteOS_Lab/iot_link/network/lwm2m/wakaama_lwm2m/core\observe.c **** 
 873:C:/Users/dtjld/Desktop/AIoT_software/LiteOS_Lab_overseas/LiteOS_Lab/iot_link/network/lwm2m/wakaama_lwm2m/core\observe.c ****                             res = lwm2m_data_serialize(&targetP->uri, size, dataP, &(watcherP->form
 4168              		.loc 2 873 0
 4169 0910 D7F8F430 		ldr	r3, [r7, #244]
 4170 0914 181D     		adds	r0, r3, #4
 4171 0916 D7F8B010 		ldr	r1, [r7, #176]
 4172 091a D7F8C020 		ldr	r2, [r7, #192]
 4173 091e D7F8F030 		ldr	r3, [r7, #240]
 4174 0922 03F11004 		add	r4, r3, #16
 4175 0926 07F1C803 		add	r3, r7, #200
 4176 092a 0093     		str	r3, [sp]
 4177 092c 2346     		mov	r3, r4
 4178 092e FFF7FEFF 		bl	lwm2m_data_serialize
 4179 0932 C7F8CC00 		str	r0, [r7, #204]
 874:C:/Users/dtjld/Desktop/AIoT_software/LiteOS_Lab_overseas/LiteOS_Lab/iot_link/network/lwm2m/wakaama_lwm2m/core\observe.c ****                             if (res < 0)
 4180              		.loc 2 874 0
 4181 0936 D7F8CC30 		ldr	r3, [r7, #204]
 4182 093a 002B     		cmp	r3, #0
 4183 093c C0F20981 		blt	.L318
 875:C:/Users/dtjld/Desktop/AIoT_software/LiteOS_Lab_overseas/LiteOS_Lab/iot_link/network/lwm2m/wakaama_lwm2m/core\observe.c ****                             {
 876:C:/Users/dtjld/Desktop/AIoT_software/LiteOS_Lab_overseas/LiteOS_Lab/iot_link/network/lwm2m/wakaama_lwm2m/core\observe.c ****                                 break;
 877:C:/Users/dtjld/Desktop/AIoT_software/LiteOS_Lab_overseas/LiteOS_Lab/iot_link/network/lwm2m/wakaama_lwm2m/core\observe.c ****                             }
 878:C:/Users/dtjld/Desktop/AIoT_software/LiteOS_Lab_overseas/LiteOS_Lab/iot_link/network/lwm2m/wakaama_lwm2m/core\observe.c ****                             else
 879:C:/Users/dtjld/Desktop/AIoT_software/LiteOS_Lab_overseas/LiteOS_Lab/iot_link/network/lwm2m/wakaama_lwm2m/core\observe.c ****                             {
 880:C:/Users/dtjld/Desktop/AIoT_software/LiteOS_Lab_overseas/LiteOS_Lab/iot_link/network/lwm2m/wakaama_lwm2m/core\observe.c ****                                 length = (size_t)res;
 4184              		.loc 2 880 0
 4185 0940 D7F8CC30 		ldr	r3, [r7, #204]
 4186 0944 C7F8C430 		str	r3, [r7, #196]
 4187              	.LBE18:
 4188 0948 24E0     		b	.L290
 4189              	.L287:
 881:C:/Users/dtjld/Desktop/AIoT_software/LiteOS_Lab_overseas/LiteOS_Lab/iot_link/network/lwm2m/wakaama_lwm2m/core\observe.c ****                             }
ARM GAS  C:\Users\dtjld\AppData\Local\Temp\ccRVA30A.s 			page 101


 882:C:/Users/dtjld/Desktop/AIoT_software/LiteOS_Lab_overseas/LiteOS_Lab/iot_link/network/lwm2m/wakaama_lwm2m/core\observe.c **** 
 883:C:/Users/dtjld/Desktop/AIoT_software/LiteOS_Lab_overseas/LiteOS_Lab/iot_link/network/lwm2m/wakaama_lwm2m/core\observe.c ****                         }
 884:C:/Users/dtjld/Desktop/AIoT_software/LiteOS_Lab_overseas/LiteOS_Lab/iot_link/network/lwm2m/wakaama_lwm2m/core\observe.c ****                         else
 885:C:/Users/dtjld/Desktop/AIoT_software/LiteOS_Lab_overseas/LiteOS_Lab/iot_link/network/lwm2m/wakaama_lwm2m/core\observe.c ****                         {
 886:C:/Users/dtjld/Desktop/AIoT_software/LiteOS_Lab_overseas/LiteOS_Lab/iot_link/network/lwm2m/wakaama_lwm2m/core\observe.c ****                             if (COAP_205_CONTENT != object_read(contextP, &targetP->uri, &(watcherP
 4190              		.loc 2 886 0
 4191 094a D7F8F430 		ldr	r3, [r7, #244]
 4192 094e 191D     		adds	r1, r3, #4
 4193 0950 D7F8F030 		ldr	r3, [r7, #240]
 4194 0954 03F11002 		add	r2, r3, #16
 4195 0958 07F1C800 		add	r0, r7, #200
 4196 095c 0023     		movs	r3, #0
 4197 095e 0193     		str	r3, [sp, #4]
 4198 0960 07F1C403 		add	r3, r7, #196
 4199 0964 0093     		str	r3, [sp]
 4200 0966 0346     		mov	r3, r0
 4201 0968 F868     		ldr	r0, [r7, #12]
 4202 096a FFF7FEFF 		bl	object_read
 4203 096e 0346     		mov	r3, r0
 4204 0970 452B     		cmp	r3, #69
 4205 0972 0FD0     		beq	.L290
 887:C:/Users/dtjld/Desktop/AIoT_software/LiteOS_Lab_overseas/LiteOS_Lab/iot_link/network/lwm2m/wakaama_lwm2m/core\observe.c ****                             {
 888:C:/Users/dtjld/Desktop/AIoT_software/LiteOS_Lab_overseas/LiteOS_Lab/iot_link/network/lwm2m/wakaama_lwm2m/core\observe.c ****                                 buffer = NULL;
 4206              		.loc 2 888 0
 4207 0974 0023     		movs	r3, #0
 4208 0976 C7F8C830 		str	r3, [r7, #200]
 889:C:/Users/dtjld/Desktop/AIoT_software/LiteOS_Lab_overseas/LiteOS_Lab/iot_link/network/lwm2m/wakaama_lwm2m/core\observe.c ****                                 break;
 4209              		.loc 2 889 0
 4210 097a EBE0     		b	.L289
 4211              	.L325:
 4212              		.align	2
 4213              	.L324:
 4214 097c 00000000 		.word	__func__.8659
 4215 0980 B0040000 		.word	.LC40
 4216 0984 D8040000 		.word	.LC41
 4217 0988 08050000 		.word	.LC42
 4218 098c 30050000 		.word	.LC43
 4219 0990 60050000 		.word	.LC44
 4220              	.L290:
 890:C:/Users/dtjld/Desktop/AIoT_software/LiteOS_Lab_overseas/LiteOS_Lab/iot_link/network/lwm2m/wakaama_lwm2m/core\observe.c ****                             }
 891:C:/Users/dtjld/Desktop/AIoT_software/LiteOS_Lab_overseas/LiteOS_Lab/iot_link/network/lwm2m/wakaama_lwm2m/core\observe.c ****                         }
 892:C:/Users/dtjld/Desktop/AIoT_software/LiteOS_Lab_overseas/LiteOS_Lab/iot_link/network/lwm2m/wakaama_lwm2m/core\observe.c **** 
 893:C:/Users/dtjld/Desktop/AIoT_software/LiteOS_Lab_overseas/LiteOS_Lab/iot_link/network/lwm2m/wakaama_lwm2m/core\observe.c ****                         if(NULL == cfg.callback)
 4221              		.loc 2 893 0
 4222 0994 D7F8BC30 		ldr	r3, [r7, #188]
 4223 0998 002B     		cmp	r3, #0
 4224 099a 26D1     		bne	.L286
 894:C:/Users/dtjld/Desktop/AIoT_software/LiteOS_Lab_overseas/LiteOS_Lab/iot_link/network/lwm2m/wakaama_lwm2m/core\observe.c ****                         {
 895:C:/Users/dtjld/Desktop/AIoT_software/LiteOS_Lab_overseas/LiteOS_Lab/iot_link/network/lwm2m/wakaama_lwm2m/core\observe.c ****                             coap_init_message(message, COAP_TYPE_NON, COAP_205_CONTENT, 0);
 4225              		.loc 2 895 0
 4226 099c 07F11400 		add	r0, r7, #20
 4227 09a0 0023     		movs	r3, #0
 4228 09a2 4522     		movs	r2, #69
 4229 09a4 0121     		movs	r1, #1
 4230 09a6 FFF7FEFF 		bl	coap_init_message
 896:C:/Users/dtjld/Desktop/AIoT_software/LiteOS_Lab_overseas/LiteOS_Lab/iot_link/network/lwm2m/wakaama_lwm2m/core\observe.c ****                             coap_set_header_content_type(message, watcherP->format);
 4231              		.loc 2 896 0
ARM GAS  C:\Users\dtjld\AppData\Local\Temp\ccRVA30A.s 			page 102


 4232 09aa D7F8F030 		ldr	r3, [r7, #240]
 4233 09ae 1B8A     		ldrh	r3, [r3, #16]
 4234 09b0 1A46     		mov	r2, r3
 4235 09b2 07F11403 		add	r3, r7, #20
 4236 09b6 1146     		mov	r1, r2
 4237 09b8 1846     		mov	r0, r3
 4238 09ba FFF7FEFF 		bl	coap_set_header_content_type
 897:C:/Users/dtjld/Desktop/AIoT_software/LiteOS_Lab_overseas/LiteOS_Lab/iot_link/network/lwm2m/wakaama_lwm2m/core\observe.c ****                             coap_set_payload(message, buffer, length);
 4239              		.loc 2 897 0
 4240 09be D7F8C810 		ldr	r1, [r7, #200]
 4241 09c2 D7F8C420 		ldr	r2, [r7, #196]
 4242 09c6 07F11403 		add	r3, r7, #20
 4243 09ca 1846     		mov	r0, r3
 4244 09cc FFF7FEFF 		bl	coap_set_payload
 898:C:/Users/dtjld/Desktop/AIoT_software/LiteOS_Lab_overseas/LiteOS_Lab/iot_link/network/lwm2m/wakaama_lwm2m/core\observe.c ****                             LOG_ARG("non observe, msgid:", message->mid);
 4245              		.loc 2 898 0
 4246 09d0 FFF7FEFF 		bl	lwm2m_gettime
 4247 09d4 0346     		mov	r3, r0
 4248 09d6 0C46     		mov	r4, r1
 4249 09d8 1946     		mov	r1, r3
 4250 09da BB8B     		ldrh	r3, [r7, #28]
 4251 09dc 0093     		str	r3, [sp]
 4252 09de 40F28233 		movw	r3, #898
 4253 09e2 6F4A     		ldr	r2, .L326
 4254 09e4 6F48     		ldr	r0, .L326+4
 4255 09e6 FFF7FEFF 		bl	atiny_printf
 4256              	.L286:
 899:C:/Users/dtjld/Desktop/AIoT_software/LiteOS_Lab_overseas/LiteOS_Lab/iot_link/network/lwm2m/wakaama_lwm2m/core\observe.c ****                         }
 900:C:/Users/dtjld/Desktop/AIoT_software/LiteOS_Lab_overseas/LiteOS_Lab/iot_link/network/lwm2m/wakaama_lwm2m/core\observe.c ****                     }
 901:C:/Users/dtjld/Desktop/AIoT_software/LiteOS_Lab_overseas/LiteOS_Lab/iot_link/network/lwm2m/wakaama_lwm2m/core\observe.c **** 
 902:C:/Users/dtjld/Desktop/AIoT_software/LiteOS_Lab_overseas/LiteOS_Lab/iot_link/network/lwm2m/wakaama_lwm2m/core\observe.c ****                     watcherP->lastTime = currentTime;
 4257              		.loc 2 902 0
 4258 09ea D7F8F020 		ldr	r2, [r7, #240]
 4259 09ee D7E90034 		ldrd	r3, [r7]
 4260 09f2 C2E90834 		strd	r3, [r2, #32]
 903:C:/Users/dtjld/Desktop/AIoT_software/LiteOS_Lab_overseas/LiteOS_Lab/iot_link/network/lwm2m/wakaama_lwm2m/core\observe.c ****                     watcherP->lastMid = contextP->nextMID++;
 4261              		.loc 2 903 0
 4262 09f6 FB68     		ldr	r3, [r7, #12]
 4263 09f8 9B8D     		ldrh	r3, [r3, #44]
 4264 09fa 5A1C     		adds	r2, r3, #1
 4265 09fc 91B2     		uxth	r1, r2
 4266 09fe FA68     		ldr	r2, [r7, #12]
 4267 0a00 9185     		strh	r1, [r2, #44]	@ movhi
 4268 0a02 D7F8F020 		ldr	r2, [r7, #240]
 4269 0a06 9385     		strh	r3, [r2, #44]	@ movhi
 904:C:/Users/dtjld/Desktop/AIoT_software/LiteOS_Lab_overseas/LiteOS_Lab/iot_link/network/lwm2m/wakaama_lwm2m/core\observe.c ****                     if(NULL == cfg.callback)
 4270              		.loc 2 904 0
 4271 0a08 D7F8BC30 		ldr	r3, [r7, #188]
 4272 0a0c 002B     		cmp	r3, #0
 4273 0a0e 27D1     		bne	.L291
 905:C:/Users/dtjld/Desktop/AIoT_software/LiteOS_Lab_overseas/LiteOS_Lab/iot_link/network/lwm2m/wakaama_lwm2m/core\observe.c ****                     {
 906:C:/Users/dtjld/Desktop/AIoT_software/LiteOS_Lab_overseas/LiteOS_Lab/iot_link/network/lwm2m/wakaama_lwm2m/core\observe.c **** 
 907:C:/Users/dtjld/Desktop/AIoT_software/LiteOS_Lab_overseas/LiteOS_Lab/iot_link/network/lwm2m/wakaama_lwm2m/core\observe.c ****                         message->mid = watcherP->lastMid;
 4274              		.loc 2 907 0
 4275 0a10 D7F8F030 		ldr	r3, [r7, #240]
 4276 0a14 9B8D     		ldrh	r3, [r3, #44]
 4277 0a16 BB83     		strh	r3, [r7, #28]	@ movhi
ARM GAS  C:\Users\dtjld\AppData\Local\Temp\ccRVA30A.s 			page 103


 908:C:/Users/dtjld/Desktop/AIoT_software/LiteOS_Lab_overseas/LiteOS_Lab/iot_link/network/lwm2m/wakaama_lwm2m/core\observe.c ****                         coap_set_header_token(message, watcherP->token, watcherP->tokenLen);
 4278              		.loc 2 908 0
 4279 0a18 D7F8F030 		ldr	r3, [r7, #240]
 4280 0a1c 03F11201 		add	r1, r3, #18
 4281 0a20 D7F8F030 		ldr	r3, [r7, #240]
 4282 0a24 DA69     		ldr	r2, [r3, #28]
 4283 0a26 07F11403 		add	r3, r7, #20
 4284 0a2a 1846     		mov	r0, r3
 4285 0a2c FFF7FEFF 		bl	coap_set_header_token
 909:C:/Users/dtjld/Desktop/AIoT_software/LiteOS_Lab_overseas/LiteOS_Lab/iot_link/network/lwm2m/wakaama_lwm2m/core\observe.c ****                         coap_set_header_observe(message, watcherP->counter++);
 4286              		.loc 2 909 0
 4287 0a30 D7F8F030 		ldr	r3, [r7, #240]
 4288 0a34 9B6A     		ldr	r3, [r3, #40]
 4289 0a36 591C     		adds	r1, r3, #1
 4290 0a38 D7F8F020 		ldr	r2, [r7, #240]
 4291 0a3c 9162     		str	r1, [r2, #40]
 4292 0a3e 07F11402 		add	r2, r7, #20
 4293 0a42 1946     		mov	r1, r3
 4294 0a44 1046     		mov	r0, r2
 4295 0a46 FFF7FEFF 		bl	coap_set_header_observe
 910:C:/Users/dtjld/Desktop/AIoT_software/LiteOS_Lab_overseas/LiteOS_Lab/iot_link/network/lwm2m/wakaama_lwm2m/core\observe.c ****                         (void)message_send(contextP, message, watcherP->server->sessionH);
 4296              		.loc 2 910 0
 4297 0a4a D7F8F030 		ldr	r3, [r7, #240]
 4298 0a4e 9B68     		ldr	r3, [r3, #8]
 4299 0a50 DA69     		ldr	r2, [r3, #28]
 4300 0a52 07F11403 		add	r3, r7, #20
 4301 0a56 1946     		mov	r1, r3
 4302 0a58 F868     		ldr	r0, [r7, #12]
 4303 0a5a FFF7FEFF 		bl	message_send
 4304 0a5e 0CE0     		b	.L292
 4305              	.L291:
 911:C:/Users/dtjld/Desktop/AIoT_software/LiteOS_Lab_overseas/LiteOS_Lab/iot_link/network/lwm2m/wakaama_lwm2m/core\observe.c **** 
 912:C:/Users/dtjld/Desktop/AIoT_software/LiteOS_Lab_overseas/LiteOS_Lab/iot_link/network/lwm2m/wakaama_lwm2m/core\observe.c ****                     }
 913:C:/Users/dtjld/Desktop/AIoT_software/LiteOS_Lab_overseas/LiteOS_Lab/iot_link/network/lwm2m/wakaama_lwm2m/core\observe.c ****                     else
 914:C:/Users/dtjld/Desktop/AIoT_software/LiteOS_Lab_overseas/LiteOS_Lab/iot_link/network/lwm2m/wakaama_lwm2m/core\observe.c ****                     {
 915:C:/Users/dtjld/Desktop/AIoT_software/LiteOS_Lab_overseas/LiteOS_Lab/iot_link/network/lwm2m/wakaama_lwm2m/core\observe.c ****                         (void)observe_send_transaction(contextP, &cfg, watcherP, buffer, length);
 4306              		.loc 2 915 0
 4307 0a60 D7F8C820 		ldr	r2, [r7, #200]
 4308 0a64 D7F8C430 		ldr	r3, [r7, #196]
 4309 0a68 07F1B401 		add	r1, r7, #180
 4310 0a6c 0093     		str	r3, [sp]
 4311 0a6e 1346     		mov	r3, r2
 4312 0a70 D7F8F020 		ldr	r2, [r7, #240]
 4313 0a74 F868     		ldr	r0, [r7, #12]
 4314 0a76 FFF7FEFF 		bl	observe_send_transaction
 4315              	.L292:
 916:C:/Users/dtjld/Desktop/AIoT_software/LiteOS_Lab_overseas/LiteOS_Lab/iot_link/network/lwm2m/wakaama_lwm2m/core\observe.c ****                     }
 917:C:/Users/dtjld/Desktop/AIoT_software/LiteOS_Lab_overseas/LiteOS_Lab/iot_link/network/lwm2m/wakaama_lwm2m/core\observe.c ****                     osal_mutex_lock(contextP->observe_mutex);
 4316              		.loc 2 917 0
 4317 0a7a FB68     		ldr	r3, [r7, #12]
 4318 0a7c 1B6A     		ldr	r3, [r3, #32]
 4319 0a7e 1846     		mov	r0, r3
 4320 0a80 FFF7FEFF 		bl	osal_mutex_lock
 918:C:/Users/dtjld/Desktop/AIoT_software/LiteOS_Lab_overseas/LiteOS_Lab/iot_link/network/lwm2m/wakaama_lwm2m/core\observe.c ****                     watcherP->update = false;
 4321              		.loc 2 918 0
 4322 0a84 D7F8F030 		ldr	r3, [r7, #240]
 4323 0a88 0022     		movs	r2, #0
ARM GAS  C:\Users\dtjld\AppData\Local\Temp\ccRVA30A.s 			page 104


 4324 0a8a 5A71     		strb	r2, [r3, #5]
 919:C:/Users/dtjld/Desktop/AIoT_software/LiteOS_Lab_overseas/LiteOS_Lab/iot_link/network/lwm2m/wakaama_lwm2m/core\observe.c ****                     osal_mutex_unlock(contextP->observe_mutex);
 4325              		.loc 2 919 0
 4326 0a8c FB68     		ldr	r3, [r7, #12]
 4327 0a8e 1B6A     		ldr	r3, [r3, #32]
 4328 0a90 1846     		mov	r0, r3
 4329 0a92 FFF7FEFF 		bl	osal_mutex_unlock
 4330              	.L285:
 920:C:/Users/dtjld/Desktop/AIoT_software/LiteOS_Lab_overseas/LiteOS_Lab/iot_link/network/lwm2m/wakaama_lwm2m/core\observe.c ****                 }
 921:C:/Users/dtjld/Desktop/AIoT_software/LiteOS_Lab_overseas/LiteOS_Lab/iot_link/network/lwm2m/wakaama_lwm2m/core\observe.c **** 
 922:C:/Users/dtjld/Desktop/AIoT_software/LiteOS_Lab_overseas/LiteOS_Lab/iot_link/network/lwm2m/wakaama_lwm2m/core\observe.c ****                 // Store this value
 923:C:/Users/dtjld/Desktop/AIoT_software/LiteOS_Lab_overseas/LiteOS_Lab/iot_link/network/lwm2m/wakaama_lwm2m/core\observe.c ****                 if (notify == true && storeValue == true)
 4331              		.loc 2 923 0
 4332 0a96 97F8EE30 		ldrb	r3, [r7, #238]	@ zero_extendqisi2
 4333 0a9a 002B     		cmp	r3, #0
 4334 0a9c 19D0     		beq	.L319
 4335              		.loc 2 923 0 is_stmt 0 discriminator 1
 4336 0a9e 97F8EF30 		ldrb	r3, [r7, #239]	@ zero_extendqisi2
 4337 0aa2 002B     		cmp	r3, #0
 4338 0aa4 15D0     		beq	.L319
 924:C:/Users/dtjld/Desktop/AIoT_software/LiteOS_Lab_overseas/LiteOS_Lab/iot_link/network/lwm2m/wakaama_lwm2m/core\observe.c ****                 {
 925:C:/Users/dtjld/Desktop/AIoT_software/LiteOS_Lab_overseas/LiteOS_Lab/iot_link/network/lwm2m/wakaama_lwm2m/core\observe.c ****                     switch (dataP->type)
 4339              		.loc 2 925 0 is_stmt 1
 4340 0aa6 D7F8C030 		ldr	r3, [r7, #192]
 4341 0aaa 1B78     		ldrb	r3, [r3]	@ zero_extendqisi2
 4342 0aac 062B     		cmp	r3, #6
 4343 0aae 02D0     		beq	.L295
 4344 0ab0 072B     		cmp	r3, #7
 4345 0ab2 07D0     		beq	.L296
 926:C:/Users/dtjld/Desktop/AIoT_software/LiteOS_Lab_overseas/LiteOS_Lab/iot_link/network/lwm2m/wakaama_lwm2m/core\observe.c ****                     {
 927:C:/Users/dtjld/Desktop/AIoT_software/LiteOS_Lab_overseas/LiteOS_Lab/iot_link/network/lwm2m/wakaama_lwm2m/core\observe.c ****                     case LWM2M_TYPE_INTEGER:
 928:C:/Users/dtjld/Desktop/AIoT_software/LiteOS_Lab_overseas/LiteOS_Lab/iot_link/network/lwm2m/wakaama_lwm2m/core\observe.c ****                         watcherP->lastValue.asInteger = integerValue;
 929:C:/Users/dtjld/Desktop/AIoT_software/LiteOS_Lab_overseas/LiteOS_Lab/iot_link/network/lwm2m/wakaama_lwm2m/core\observe.c ****                         break;
 930:C:/Users/dtjld/Desktop/AIoT_software/LiteOS_Lab_overseas/LiteOS_Lab/iot_link/network/lwm2m/wakaama_lwm2m/core\observe.c ****                     case LWM2M_TYPE_FLOAT:
 931:C:/Users/dtjld/Desktop/AIoT_software/LiteOS_Lab_overseas/LiteOS_Lab/iot_link/network/lwm2m/wakaama_lwm2m/core\observe.c ****                         watcherP->lastValue.asFloat = floatValue;
 932:C:/Users/dtjld/Desktop/AIoT_software/LiteOS_Lab_overseas/LiteOS_Lab/iot_link/network/lwm2m/wakaama_lwm2m/core\observe.c ****                         break;
 933:C:/Users/dtjld/Desktop/AIoT_software/LiteOS_Lab_overseas/LiteOS_Lab/iot_link/network/lwm2m/wakaama_lwm2m/core\observe.c ****                     default:
 934:C:/Users/dtjld/Desktop/AIoT_software/LiteOS_Lab_overseas/LiteOS_Lab/iot_link/network/lwm2m/wakaama_lwm2m/core\observe.c ****                         break;
 4346              		.loc 2 934 0
 4347 0ab4 0EE0     		b	.L293
 4348              	.L295:
 928:C:/Users/dtjld/Desktop/AIoT_software/LiteOS_Lab_overseas/LiteOS_Lab/iot_link/network/lwm2m/wakaama_lwm2m/core\observe.c ****                         break;
 4349              		.loc 2 928 0
 4350 0ab6 D7E92834 		ldrd	r3, [r7, #160]
 4351 0aba D7F8F020 		ldr	r2, [r7, #240]
 4352 0abe C2E90C34 		strd	r3, [r2, #48]
 929:C:/Users/dtjld/Desktop/AIoT_software/LiteOS_Lab_overseas/LiteOS_Lab/iot_link/network/lwm2m/wakaama_lwm2m/core\observe.c ****                     case LWM2M_TYPE_FLOAT:
 4353              		.loc 2 929 0
 4354 0ac2 07E0     		b	.L293
 4355              	.L296:
 931:C:/Users/dtjld/Desktop/AIoT_software/LiteOS_Lab_overseas/LiteOS_Lab/iot_link/network/lwm2m/wakaama_lwm2m/core\observe.c ****                         break;
 4356              		.loc 2 931 0
 4357 0ac4 D7E92A34 		ldrd	r3, [r7, #168]
 4358 0ac8 D7F8F020 		ldr	r2, [r7, #240]
 4359 0acc C2E90C34 		strd	r3, [r2, #48]
 932:C:/Users/dtjld/Desktop/AIoT_software/LiteOS_Lab_overseas/LiteOS_Lab/iot_link/network/lwm2m/wakaama_lwm2m/core\observe.c ****                     default:
 4360              		.loc 2 932 0
ARM GAS  C:\Users\dtjld\AppData\Local\Temp\ccRVA30A.s 			page 105


 4361 0ad0 00E0     		b	.L293
 4362              	.L319:
 935:C:/Users/dtjld/Desktop/AIoT_software/LiteOS_Lab_overseas/LiteOS_Lab/iot_link/network/lwm2m/wakaama_lwm2m/core\observe.c ****                     }
 936:C:/Users/dtjld/Desktop/AIoT_software/LiteOS_Lab_overseas/LiteOS_Lab/iot_link/network/lwm2m/wakaama_lwm2m/core\observe.c ****                 }
 4363              		.loc 2 936 0
 4364 0ad2 00BF     		nop
 4365              	.L293:
 937:C:/Users/dtjld/Desktop/AIoT_software/LiteOS_Lab_overseas/LiteOS_Lab/iot_link/network/lwm2m/wakaama_lwm2m/core\observe.c **** 
 938:C:/Users/dtjld/Desktop/AIoT_software/LiteOS_Lab_overseas/LiteOS_Lab/iot_link/network/lwm2m/wakaama_lwm2m/core\observe.c ****                 if (watcherP->parameters != NULL && (watcherP->parameters->toSet & LWM2M_ATTR_FLAG_
 4366              		.loc 2 938 0
 4367 0ad4 D7F8F030 		ldr	r3, [r7, #240]
 4368 0ad8 DB68     		ldr	r3, [r3, #12]
 4369 0ada 002B     		cmp	r3, #0
 4370 0adc 2ED0     		beq	.L229
 4371              		.loc 2 938 0 is_stmt 0 discriminator 1
 4372 0ade D7F8F030 		ldr	r3, [r7, #240]
 4373 0ae2 DB68     		ldr	r3, [r3, #12]
 4374 0ae4 1B78     		ldrb	r3, [r3]	@ zero_extendqisi2
 4375 0ae6 03F00203 		and	r3, r3, #2
 4376 0aea 002B     		cmp	r3, #0
 4377 0aec 26D0     		beq	.L229
 939:C:/Users/dtjld/Desktop/AIoT_software/LiteOS_Lab_overseas/LiteOS_Lab/iot_link/network/lwm2m/wakaama_lwm2m/core\observe.c ****                 {
 940:C:/Users/dtjld/Desktop/AIoT_software/LiteOS_Lab_overseas/LiteOS_Lab/iot_link/network/lwm2m/wakaama_lwm2m/core\observe.c ****                     // update timers
 941:C:/Users/dtjld/Desktop/AIoT_software/LiteOS_Lab_overseas/LiteOS_Lab/iot_link/network/lwm2m/wakaama_lwm2m/core\observe.c ****                     interval = watcherP->lastTime + watcherP->parameters->maxPeriod - currentTime;
 4378              		.loc 2 941 0 is_stmt 1
 4379 0aee D7F8F030 		ldr	r3, [r7, #240]
 4380 0af2 D3E908BC 		ldrd	fp, [r3, #32]
 4381 0af6 D7F8F030 		ldr	r3, [r7, #240]
 4382 0afa DB68     		ldr	r3, [r3, #12]
 4383 0afc 9B68     		ldr	r3, [r3, #8]
 4384 0afe 4FF00004 		mov	r4, #0
 4385 0b02 1BEB0301 		adds	r1, fp, r3
 4386 0b06 4CEB0402 		adc	r2, ip, r4
 4387 0b0a D7E90034 		ldrd	r3, [r7]
 4388 0b0e C91A     		subs	r1, r1, r3
 4389 0b10 62EB0402 		sbc	r2, r2, r4
 4390 0b14 8B46     		mov	fp, r1
 4391 0b16 9446     		mov	ip, r2
 4392 0b18 C7E934BC 		strd	fp, [r7, #208]
 942:C:/Users/dtjld/Desktop/AIoT_software/LiteOS_Lab_overseas/LiteOS_Lab/iot_link/network/lwm2m/wakaama_lwm2m/core\observe.c ****                     if (*timeoutP > interval) *timeoutP = interval;
 4393              		.loc 2 942 0
 4394 0b1c D7F80831 		ldr	r3, [r7, #264]
 4395 0b20 D3E90034 		ldrd	r3, [r3]
 4396 0b24 D7E93412 		ldrd	r1, [r7, #208]
 4397 0b28 9942     		cmp	r1, r3
 4398 0b2a 72EB0403 		sbcs	r3, r2, r4
 4399 0b2e 05DA     		bge	.L229
 4400              		.loc 2 942 0 is_stmt 0 discriminator 1
 4401 0b30 D7F80821 		ldr	r2, [r7, #264]
 4402 0b34 D7E93434 		ldrd	r3, [r7, #208]
 4403 0b38 C2E90034 		strd	r3, [r2]
 4404              	.L229:
 4405              	.LBE12:
 711:C:/Users/dtjld/Desktop/AIoT_software/LiteOS_Lab_overseas/LiteOS_Lab/iot_link/network/lwm2m/wakaama_lwm2m/core\observe.c ****         {
 4406              		.loc 2 711 0 is_stmt 1 discriminator 2
 4407 0b3c D7F8F030 		ldr	r3, [r7, #240]
 4408 0b40 1B68     		ldr	r3, [r3]
ARM GAS  C:\Users\dtjld\AppData\Local\Temp\ccRVA30A.s 			page 106


 4409 0b42 C7F8F030 		str	r3, [r7, #240]
 4410              	.L228:
 711:C:/Users/dtjld/Desktop/AIoT_software/LiteOS_Lab_overseas/LiteOS_Lab/iot_link/network/lwm2m/wakaama_lwm2m/core\observe.c ****         {
 4411              		.loc 2 711 0 is_stmt 0 discriminator 1
 4412 0b46 D7F8F030 		ldr	r3, [r7, #240]
 4413 0b4a 002B     		cmp	r3, #0
 4414 0b4c 7FF43DAB 		bne	.L297
 4415 0b50 00E0     		b	.L289
 4416              	.L318:
 4417              	.LBB20:
 4418              	.LBB19:
 876:C:/Users/dtjld/Desktop/AIoT_software/LiteOS_Lab_overseas/LiteOS_Lab/iot_link/network/lwm2m/wakaama_lwm2m/core\observe.c ****                             }
 4419              		.loc 2 876 0 is_stmt 1
 4420 0b52 00BF     		nop
 4421              	.L289:
 4422              	.LBE19:
 4423              	.LBE20:
 943:C:/Users/dtjld/Desktop/AIoT_software/LiteOS_Lab_overseas/LiteOS_Lab/iot_link/network/lwm2m/wakaama_lwm2m/core\observe.c ****                 }
 944:C:/Users/dtjld/Desktop/AIoT_software/LiteOS_Lab_overseas/LiteOS_Lab/iot_link/network/lwm2m/wakaama_lwm2m/core\observe.c ****             }
 945:C:/Users/dtjld/Desktop/AIoT_software/LiteOS_Lab_overseas/LiteOS_Lab/iot_link/network/lwm2m/wakaama_lwm2m/core\observe.c ****         }
 946:C:/Users/dtjld/Desktop/AIoT_software/LiteOS_Lab_overseas/LiteOS_Lab/iot_link/network/lwm2m/wakaama_lwm2m/core\observe.c ****         if (dataP != NULL) lwm2m_data_free(size, dataP);
 4424              		.loc 2 946 0
 4425 0b54 D7F8C030 		ldr	r3, [r7, #192]
 4426 0b58 002B     		cmp	r3, #0
 4427 0b5a 07D0     		beq	.L298
 4428              		.loc 2 946 0 is_stmt 0 discriminator 1
 4429 0b5c D7F8B030 		ldr	r3, [r7, #176]
 4430 0b60 D7F8C020 		ldr	r2, [r7, #192]
 4431 0b64 1146     		mov	r1, r2
 4432 0b66 1846     		mov	r0, r3
 4433 0b68 FFF7FEFF 		bl	lwm2m_data_free
 4434              	.L298:
 947:C:/Users/dtjld/Desktop/AIoT_software/LiteOS_Lab_overseas/LiteOS_Lab/iot_link/network/lwm2m/wakaama_lwm2m/core\observe.c ****         if (buffer != NULL) lwm2m_free(buffer);
 4435              		.loc 2 947 0 is_stmt 1
 4436 0b6c D7F8C830 		ldr	r3, [r7, #200]
 4437 0b70 002B     		cmp	r3, #0
 4438 0b72 06D0     		beq	.L300
 4439              		.loc 2 947 0 is_stmt 0 discriminator 1
 4440 0b74 D7F8C830 		ldr	r3, [r7, #200]
 4441 0b78 1846     		mov	r0, r3
 4442 0b7a FFF7FEFF 		bl	lwm2m_free
 4443 0b7e 00E0     		b	.L300
 4444              	.L313:
 688:C:/Users/dtjld/Desktop/AIoT_software/LiteOS_Lab_overseas/LiteOS_Lab/iot_link/network/lwm2m/wakaama_lwm2m/core\observe.c ****             switch (dataP->type)
 4445              		.loc 2 688 0 is_stmt 1
 4446 0b80 00BF     		nop
 4447              	.L300:
 4448              	.LBE11:
 662:C:/Users/dtjld/Desktop/AIoT_software/LiteOS_Lab_overseas/LiteOS_Lab/iot_link/network/lwm2m/wakaama_lwm2m/core\observe.c ****     {
 4449              		.loc 2 662 0 discriminator 2
 4450 0b82 D7F8F430 		ldr	r3, [r7, #244]
 4451 0b86 1B68     		ldr	r3, [r3]
 4452 0b88 C7F8F430 		str	r3, [r7, #244]
 4453              	.L214:
 662:C:/Users/dtjld/Desktop/AIoT_software/LiteOS_Lab_overseas/LiteOS_Lab/iot_link/network/lwm2m/wakaama_lwm2m/core\observe.c ****     {
 4454              		.loc 2 662 0 is_stmt 0 discriminator 1
 4455 0b8c D7F8F430 		ldr	r3, [r7, #244]
ARM GAS  C:\Users\dtjld\AppData\Local\Temp\ccRVA30A.s 			page 107


 4456 0b90 002B     		cmp	r3, #0
 4457 0b92 7FF44DAA 		bne	.L301
 948:C:/Users/dtjld/Desktop/AIoT_software/LiteOS_Lab_overseas/LiteOS_Lab/iot_link/network/lwm2m/wakaama_lwm2m/core\observe.c ****     }
 949:C:/Users/dtjld/Desktop/AIoT_software/LiteOS_Lab_overseas/LiteOS_Lab/iot_link/network/lwm2m/wakaama_lwm2m/core\observe.c **** }
 4458              		.loc 2 949 0 is_stmt 1
 4459 0b96 00BF     		nop
 4460 0b98 F837     		adds	r7, r7, #248
 4461              	.LCFI78:
 4462              		.cfi_def_cfa_offset 16
 4463 0b9a BD46     		mov	sp, r7
 4464              	.LCFI79:
 4465              		.cfi_def_cfa_register 13
 4466              		@ sp needed
 4467 0b9c BDE89088 		pop	{r4, r7, fp, pc}
 4468              	.L327:
 4469              		.align	2
 4470              	.L326:
 4471 0ba0 00000000 		.word	__func__.8659
 4472 0ba4 88050000 		.word	.LC45
 4473              		.cfi_endproc
 4474              	.LFE17:
 4476              		.section	.rodata
 4477 05aa 0000     		.align	2
 4478              	.LC46:
 4479 05ac 5B25645D 		.ascii	"[%d][%s:%d] null pointer\012\015\012\000"
 4479      5B25733A 
 4479      25645D20 
 4479      6E756C6C 
 4479      20706F69 
 4480              		.section	.text.lwm2m_get_observe_info,"ax",%progbits
 4481              		.align	1
 4482              		.global	lwm2m_get_observe_info
 4483              		.syntax unified
 4484              		.thumb
 4485              		.thumb_func
 4486              		.fpu fpv4-sp-d16
 4488              	lwm2m_get_observe_info:
 4489              	.LFB18:
 950:C:/Users/dtjld/Desktop/AIoT_software/LiteOS_Lab_overseas/LiteOS_Lab/iot_link/network/lwm2m/wakaama_lwm2m/core\observe.c **** 
 951:C:/Users/dtjld/Desktop/AIoT_software/LiteOS_Lab_overseas/LiteOS_Lab/iot_link/network/lwm2m/wakaama_lwm2m/core\observe.c **** 
 952:C:/Users/dtjld/Desktop/AIoT_software/LiteOS_Lab_overseas/LiteOS_Lab/iot_link/network/lwm2m/wakaama_lwm2m/core\observe.c **** 
 953:C:/Users/dtjld/Desktop/AIoT_software/LiteOS_Lab_overseas/LiteOS_Lab/iot_link/network/lwm2m/wakaama_lwm2m/core\observe.c **** uint8_t lwm2m_get_observe_info(lwm2m_context_t *contextP, lwm2m_observe_info_t *observe_info)
 954:C:/Users/dtjld/Desktop/AIoT_software/LiteOS_Lab_overseas/LiteOS_Lab/iot_link/network/lwm2m/wakaama_lwm2m/core\observe.c **** {
 4490              		.loc 2 954 0
 4491              		.cfi_startproc
 4492              		@ args = 0, pretend = 0, frame = 16
 4493              		@ frame_needed = 1, uses_anonymous_args = 0
 4494 0000 90B5     		push	{r4, r7, lr}
 4495              	.LCFI80:
 4496              		.cfi_def_cfa_offset 12
 4497              		.cfi_offset 4, -12
 4498              		.cfi_offset 7, -8
 4499              		.cfi_offset 14, -4
 4500 0002 85B0     		sub	sp, sp, #20
 4501              	.LCFI81:
 4502              		.cfi_def_cfa_offset 32
 4503 0004 00AF     		add	r7, sp, #0
ARM GAS  C:\Users\dtjld\AppData\Local\Temp\ccRVA30A.s 			page 108


 4504              	.LCFI82:
 4505              		.cfi_def_cfa_register 7
 4506 0006 7860     		str	r0, [r7, #4]
 4507 0008 3960     		str	r1, [r7]
 955:C:/Users/dtjld/Desktop/AIoT_software/LiteOS_Lab_overseas/LiteOS_Lab/iot_link/network/lwm2m/wakaama_lwm2m/core\observe.c ****     lwm2m_observed_t *targetP;
 956:C:/Users/dtjld/Desktop/AIoT_software/LiteOS_Lab_overseas/LiteOS_Lab/iot_link/network/lwm2m/wakaama_lwm2m/core\observe.c ****     lwm2m_watcher_t *watcherP;
 957:C:/Users/dtjld/Desktop/AIoT_software/LiteOS_Lab_overseas/LiteOS_Lab/iot_link/network/lwm2m/wakaama_lwm2m/core\observe.c **** 
 958:C:/Users/dtjld/Desktop/AIoT_software/LiteOS_Lab_overseas/LiteOS_Lab/iot_link/network/lwm2m/wakaama_lwm2m/core\observe.c ****     if((NULL == observe_info) || (NULL == contextP))
 4508              		.loc 2 958 0
 4509 000a 3B68     		ldr	r3, [r7]
 4510 000c 002B     		cmp	r3, #0
 4511 000e 02D0     		beq	.L329
 4512              		.loc 2 958 0 is_stmt 0 discriminator 1
 4513 0010 7B68     		ldr	r3, [r7, #4]
 4514 0012 002B     		cmp	r3, #0
 4515 0014 0CD1     		bne	.L330
 4516              	.L329:
 959:C:/Users/dtjld/Desktop/AIoT_software/LiteOS_Lab_overseas/LiteOS_Lab/iot_link/network/lwm2m/wakaama_lwm2m/core\observe.c ****     {
 960:C:/Users/dtjld/Desktop/AIoT_software/LiteOS_Lab_overseas/LiteOS_Lab/iot_link/network/lwm2m/wakaama_lwm2m/core\observe.c ****         LOG("null pointer\n");
 4517              		.loc 2 960 0 is_stmt 1
 4518 0016 FFF7FEFF 		bl	lwm2m_gettime
 4519 001a 0346     		mov	r3, r0
 4520 001c 0C46     		mov	r4, r1
 4521 001e 1946     		mov	r1, r3
 4522 0020 4FF47073 		mov	r3, #960
 4523 0024 204A     		ldr	r2, .L336
 4524 0026 2148     		ldr	r0, .L336+4
 4525 0028 FFF7FEFF 		bl	atiny_printf
 961:C:/Users/dtjld/Desktop/AIoT_software/LiteOS_Lab_overseas/LiteOS_Lab/iot_link/network/lwm2m/wakaama_lwm2m/core\observe.c ****         return COAP_500_INTERNAL_SERVER_ERROR;
 4526              		.loc 2 961 0
 4527 002c A023     		movs	r3, #160
 4528 002e 37E0     		b	.L331
 4529              	.L330:
 962:C:/Users/dtjld/Desktop/AIoT_software/LiteOS_Lab_overseas/LiteOS_Lab/iot_link/network/lwm2m/wakaama_lwm2m/core\observe.c ****     }
 963:C:/Users/dtjld/Desktop/AIoT_software/LiteOS_Lab_overseas/LiteOS_Lab/iot_link/network/lwm2m/wakaama_lwm2m/core\observe.c **** 
 964:C:/Users/dtjld/Desktop/AIoT_software/LiteOS_Lab_overseas/LiteOS_Lab/iot_link/network/lwm2m/wakaama_lwm2m/core\observe.c ****     for (targetP = contextP->observedList ; targetP != NULL ; targetP = targetP->next)
 4530              		.loc 2 964 0
 4531 0030 7B68     		ldr	r3, [r7, #4]
 4532 0032 DB69     		ldr	r3, [r3, #28]
 4533 0034 FB60     		str	r3, [r7, #12]
 4534 0036 2FE0     		b	.L332
 4535              	.L335:
 965:C:/Users/dtjld/Desktop/AIoT_software/LiteOS_Lab_overseas/LiteOS_Lab/iot_link/network/lwm2m/wakaama_lwm2m/core\observe.c ****     {
 966:C:/Users/dtjld/Desktop/AIoT_software/LiteOS_Lab_overseas/LiteOS_Lab/iot_link/network/lwm2m/wakaama_lwm2m/core\observe.c ****         if((!LWM2M_URI_IS_SET_RESOURCE(&targetP->uri))
 4536              		.loc 2 966 0
 4537 0038 FB68     		ldr	r3, [r7, #12]
 4538 003a 1B79     		ldrb	r3, [r3, #4]	@ zero_extendqisi2
 4539 003c 03F00103 		and	r3, r3, #1
 4540 0040 002B     		cmp	r3, #0
 4541 0042 0BD0     		beq	.L333
 967:C:/Users/dtjld/Desktop/AIoT_software/LiteOS_Lab_overseas/LiteOS_Lab/iot_link/network/lwm2m/wakaama_lwm2m/core\observe.c ****                 || (targetP->uri.objectId != LWM2M_FIRMWARE_UPDATE_OBJECT_ID)
 4542              		.loc 2 967 0
 4543 0044 FB68     		ldr	r3, [r7, #12]
 4544 0046 DB88     		ldrh	r3, [r3, #6]
 4545 0048 052B     		cmp	r3, #5
 4546 004a 07D1     		bne	.L333
 968:C:/Users/dtjld/Desktop/AIoT_software/LiteOS_Lab_overseas/LiteOS_Lab/iot_link/network/lwm2m/wakaama_lwm2m/core\observe.c ****                 || (targetP->uri.instanceId != 0)
ARM GAS  C:\Users\dtjld\AppData\Local\Temp\ccRVA30A.s 			page 109


 4547              		.loc 2 968 0
 4548 004c FB68     		ldr	r3, [r7, #12]
 4549 004e 1B89     		ldrh	r3, [r3, #8]
 4550 0050 002B     		cmp	r3, #0
 4551 0052 03D1     		bne	.L333
 969:C:/Users/dtjld/Desktop/AIoT_software/LiteOS_Lab_overseas/LiteOS_Lab/iot_link/network/lwm2m/wakaama_lwm2m/core\observe.c ****                 || (targetP->uri.resourceId != RES_M_STATE))
 4552              		.loc 2 969 0
 4553 0054 FB68     		ldr	r3, [r7, #12]
 4554 0056 5B89     		ldrh	r3, [r3, #10]
 4555 0058 032B     		cmp	r3, #3
 4556 005a 03D0     		beq	.L334
 4557              	.L333:
 964:C:/Users/dtjld/Desktop/AIoT_software/LiteOS_Lab_overseas/LiteOS_Lab/iot_link/network/lwm2m/wakaama_lwm2m/core\observe.c ****     {
 4558              		.loc 2 964 0
 4559 005c FB68     		ldr	r3, [r7, #12]
 4560 005e 1B68     		ldr	r3, [r3]
 4561 0060 FB60     		str	r3, [r7, #12]
 4562 0062 19E0     		b	.L332
 4563              	.L334:
 970:C:/Users/dtjld/Desktop/AIoT_software/LiteOS_Lab_overseas/LiteOS_Lab/iot_link/network/lwm2m/wakaama_lwm2m/core\observe.c ****         {
 971:C:/Users/dtjld/Desktop/AIoT_software/LiteOS_Lab_overseas/LiteOS_Lab/iot_link/network/lwm2m/wakaama_lwm2m/core\observe.c ****             continue;
 972:C:/Users/dtjld/Desktop/AIoT_software/LiteOS_Lab_overseas/LiteOS_Lab/iot_link/network/lwm2m/wakaama_lwm2m/core\observe.c ****         }
 973:C:/Users/dtjld/Desktop/AIoT_software/LiteOS_Lab_overseas/LiteOS_Lab/iot_link/network/lwm2m/wakaama_lwm2m/core\observe.c ****         watcherP = targetP->watcherList;
 4564              		.loc 2 973 0
 4565 0064 FB68     		ldr	r3, [r7, #12]
 4566 0066 DB68     		ldr	r3, [r3, #12]
 4567 0068 BB60     		str	r3, [r7, #8]
 974:C:/Users/dtjld/Desktop/AIoT_software/LiteOS_Lab_overseas/LiteOS_Lab/iot_link/network/lwm2m/wakaama_lwm2m/core\observe.c ****         observe_info->counter = watcherP->counter;
 4568              		.loc 2 974 0
 4569 006a BB68     		ldr	r3, [r7, #8]
 4570 006c 9A6A     		ldr	r2, [r3, #40]
 4571 006e 3B68     		ldr	r3, [r7]
 4572 0070 1A61     		str	r2, [r3, #16]
 975:C:/Users/dtjld/Desktop/AIoT_software/LiteOS_Lab_overseas/LiteOS_Lab/iot_link/network/lwm2m/wakaama_lwm2m/core\observe.c ****         memcpy(observe_info->token, watcherP->token, sizeof(observe_info->token));
 4573              		.loc 2 975 0
 4574 0072 3B68     		ldr	r3, [r7]
 4575 0074 181D     		adds	r0, r3, #4
 4576 0076 BB68     		ldr	r3, [r7, #8]
 4577 0078 1233     		adds	r3, r3, #18
 4578 007a 0822     		movs	r2, #8
 4579 007c 1946     		mov	r1, r3
 4580 007e FFF7FEFF 		bl	memcpy
 976:C:/Users/dtjld/Desktop/AIoT_software/LiteOS_Lab_overseas/LiteOS_Lab/iot_link/network/lwm2m/wakaama_lwm2m/core\observe.c ****         observe_info->tokenLen = watcherP->tokenLen;
 4581              		.loc 2 976 0
 4582 0082 BB68     		ldr	r3, [r7, #8]
 4583 0084 DA69     		ldr	r2, [r3, #28]
 4584 0086 3B68     		ldr	r3, [r7]
 4585 0088 DA60     		str	r2, [r3, #12]
 977:C:/Users/dtjld/Desktop/AIoT_software/LiteOS_Lab_overseas/LiteOS_Lab/iot_link/network/lwm2m/wakaama_lwm2m/core\observe.c ****         observe_info->format = watcherP->format;
 4586              		.loc 2 977 0
 4587 008a BB68     		ldr	r3, [r7, #8]
 4588 008c 1B8A     		ldrh	r3, [r3, #16]
 4589 008e 1A46     		mov	r2, r3
 4590 0090 3B68     		ldr	r3, [r7]
 4591 0092 1A60     		str	r2, [r3]
 978:C:/Users/dtjld/Desktop/AIoT_software/LiteOS_Lab_overseas/LiteOS_Lab/iot_link/network/lwm2m/wakaama_lwm2m/core\observe.c ****         return COAP_NO_ERROR;
 4592              		.loc 2 978 0
ARM GAS  C:\Users\dtjld\AppData\Local\Temp\ccRVA30A.s 			page 110


 4593 0094 0023     		movs	r3, #0
 4594 0096 03E0     		b	.L331
 4595              	.L332:
 964:C:/Users/dtjld/Desktop/AIoT_software/LiteOS_Lab_overseas/LiteOS_Lab/iot_link/network/lwm2m/wakaama_lwm2m/core\observe.c ****     {
 4596              		.loc 2 964 0 discriminator 1
 4597 0098 FB68     		ldr	r3, [r7, #12]
 4598 009a 002B     		cmp	r3, #0
 4599 009c CCD1     		bne	.L335
 979:C:/Users/dtjld/Desktop/AIoT_software/LiteOS_Lab_overseas/LiteOS_Lab/iot_link/network/lwm2m/wakaama_lwm2m/core\observe.c ****     }
 980:C:/Users/dtjld/Desktop/AIoT_software/LiteOS_Lab_overseas/LiteOS_Lab/iot_link/network/lwm2m/wakaama_lwm2m/core\observe.c ****     return COAP_500_INTERNAL_SERVER_ERROR;
 4600              		.loc 2 980 0
 4601 009e A023     		movs	r3, #160
 4602              	.L331:
 981:C:/Users/dtjld/Desktop/AIoT_software/LiteOS_Lab_overseas/LiteOS_Lab/iot_link/network/lwm2m/wakaama_lwm2m/core\observe.c **** }
 4603              		.loc 2 981 0
 4604 00a0 1846     		mov	r0, r3
 4605 00a2 1437     		adds	r7, r7, #20
 4606              	.LCFI83:
 4607              		.cfi_def_cfa_offset 12
 4608 00a4 BD46     		mov	sp, r7
 4609              	.LCFI84:
 4610              		.cfi_def_cfa_register 13
 4611              		@ sp needed
 4612 00a6 90BD     		pop	{r4, r7, pc}
 4613              	.L337:
 4614              		.align	2
 4615              	.L336:
 4616 00a8 00000000 		.word	__func__.8708
 4617 00ac AC050000 		.word	.LC46
 4618              		.cfi_endproc
 4619              	.LFE18:
 4621              		.section	.rodata
 4622              		.align	2
 4623              	.LC47:
 4624 05c8 5B25645D 		.ascii	"[%d][%s:%d] registration_get_registered_server fail"
 4624      5B25733A 
 4624      25645D20 
 4624      72656769 
 4624      73747261 
 4625 05fb 0A0D0A00 		.ascii	"\012\015\012\000"
 4626 05ff 00       		.align	2
 4627              	.LC48:
 4628 0600 5B25645D 		.ascii	"[%d][%s:%d] lwm2m_data_serialize fail\012\015\012\000"
 4628      5B25733A 
 4628      25645D20 
 4628      6C776D32 
 4628      6D5F6461 
 4629              		.section	.text.lwm2m_send_notify,"ax",%progbits
 4630              		.align	1
 4631              		.global	lwm2m_send_notify
 4632              		.syntax unified
 4633              		.thumb
 4634              		.thumb_func
 4635              		.fpu fpv4-sp-d16
 4637              	lwm2m_send_notify:
 4638              	.LFB19:
 982:C:/Users/dtjld/Desktop/AIoT_software/LiteOS_Lab_overseas/LiteOS_Lab/iot_link/network/lwm2m/wakaama_lwm2m/core\observe.c **** 
ARM GAS  C:\Users\dtjld\AppData\Local\Temp\ccRVA30A.s 			page 111


 983:C:/Users/dtjld/Desktop/AIoT_software/LiteOS_Lab_overseas/LiteOS_Lab/iot_link/network/lwm2m/wakaama_lwm2m/core\observe.c **** uint8_t lwm2m_send_notify(lwm2m_context_t *contextP, lwm2m_observe_info_t *observe_info, int firmwa
 984:C:/Users/dtjld/Desktop/AIoT_software/LiteOS_Lab_overseas/LiteOS_Lab/iot_link/network/lwm2m/wakaama_lwm2m/core\observe.c **** {
 4639              		.loc 2 984 0
 4640              		.cfi_startproc
 4641              		@ args = 0, pretend = 0, frame = 112
 4642              		@ frame_needed = 1, uses_anonymous_args = 0
 4643 0000 90B5     		push	{r4, r7, lr}
 4644              	.LCFI85:
 4645              		.cfi_def_cfa_offset 12
 4646              		.cfi_offset 4, -12
 4647              		.cfi_offset 7, -8
 4648              		.cfi_offset 14, -4
 4649 0002 9FB0     		sub	sp, sp, #124
 4650              	.LCFI86:
 4651              		.cfi_def_cfa_offset 136
 4652 0004 02AF     		add	r7, sp, #8
 4653              	.LCFI87:
 4654              		.cfi_def_cfa 7, 128
 4655 0006 F860     		str	r0, [r7, #12]
 4656 0008 B960     		str	r1, [r7, #8]
 4657 000a 7A60     		str	r2, [r7, #4]
 4658 000c 3B60     		str	r3, [r7]
 985:C:/Users/dtjld/Desktop/AIoT_software/LiteOS_Lab_overseas/LiteOS_Lab/iot_link/network/lwm2m/wakaama_lwm2m/core\observe.c ****     lwm2m_uri_t uri;
 986:C:/Users/dtjld/Desktop/AIoT_software/LiteOS_Lab_overseas/LiteOS_Lab/iot_link/network/lwm2m/wakaama_lwm2m/core\observe.c ****     int res;
 987:C:/Users/dtjld/Desktop/AIoT_software/LiteOS_Lab_overseas/LiteOS_Lab/iot_link/network/lwm2m/wakaama_lwm2m/core\observe.c ****     lwm2m_data_t data;
 988:C:/Users/dtjld/Desktop/AIoT_software/LiteOS_Lab_overseas/LiteOS_Lab/iot_link/network/lwm2m/wakaama_lwm2m/core\observe.c ****     lwm2m_media_type_t format;
 989:C:/Users/dtjld/Desktop/AIoT_software/LiteOS_Lab_overseas/LiteOS_Lab/iot_link/network/lwm2m/wakaama_lwm2m/core\observe.c ****     uint8_t *buffer = NULL;
 4659              		.loc 2 989 0
 4660 000e 0023     		movs	r3, #0
 4661 0010 BB64     		str	r3, [r7, #72]
 990:C:/Users/dtjld/Desktop/AIoT_software/LiteOS_Lab_overseas/LiteOS_Lab/iot_link/network/lwm2m/wakaama_lwm2m/core\observe.c ****     lwm2m_server_t *server;
 991:C:/Users/dtjld/Desktop/AIoT_software/LiteOS_Lab_overseas/LiteOS_Lab/iot_link/network/lwm2m/wakaama_lwm2m/core\observe.c ****     lwm2m_watcher_t watcherP;
 992:C:/Users/dtjld/Desktop/AIoT_software/LiteOS_Lab_overseas/LiteOS_Lab/iot_link/network/lwm2m/wakaama_lwm2m/core\observe.c **** 
 993:C:/Users/dtjld/Desktop/AIoT_software/LiteOS_Lab_overseas/LiteOS_Lab/iot_link/network/lwm2m/wakaama_lwm2m/core\observe.c **** 
 994:C:/Users/dtjld/Desktop/AIoT_software/LiteOS_Lab_overseas/LiteOS_Lab/iot_link/network/lwm2m/wakaama_lwm2m/core\observe.c ****     if((NULL == observe_info) || (NULL == contextP) || (NULL == cfg))
 4662              		.loc 2 994 0
 4663 0012 BB68     		ldr	r3, [r7, #8]
 4664 0014 002B     		cmp	r3, #0
 4665 0016 05D0     		beq	.L339
 4666              		.loc 2 994 0 is_stmt 0 discriminator 1
 4667 0018 FB68     		ldr	r3, [r7, #12]
 4668 001a 002B     		cmp	r3, #0
 4669 001c 02D0     		beq	.L339
 4670              		.loc 2 994 0 discriminator 2
 4671 001e 3B68     		ldr	r3, [r7]
 4672 0020 002B     		cmp	r3, #0
 4673 0022 0CD1     		bne	.L340
 4674              	.L339:
 995:C:/Users/dtjld/Desktop/AIoT_software/LiteOS_Lab_overseas/LiteOS_Lab/iot_link/network/lwm2m/wakaama_lwm2m/core\observe.c ****     {
 996:C:/Users/dtjld/Desktop/AIoT_software/LiteOS_Lab_overseas/LiteOS_Lab/iot_link/network/lwm2m/wakaama_lwm2m/core\observe.c ****         LOG("null pointer\n");
 4675              		.loc 2 996 0 is_stmt 1
 4676 0024 FFF7FEFF 		bl	lwm2m_gettime
 4677 0028 0346     		mov	r3, r0
 4678 002a 0C46     		mov	r4, r1
 4679 002c 1946     		mov	r1, r3
 4680 002e 4FF47973 		mov	r3, #996
 4681 0032 4A4A     		ldr	r2, .L346
ARM GAS  C:\Users\dtjld\AppData\Local\Temp\ccRVA30A.s 			page 112


 4682 0034 4A48     		ldr	r0, .L346+4
 4683 0036 FFF7FEFF 		bl	atiny_printf
 997:C:/Users/dtjld/Desktop/AIoT_software/LiteOS_Lab_overseas/LiteOS_Lab/iot_link/network/lwm2m/wakaama_lwm2m/core\observe.c ****         return COAP_500_INTERNAL_SERVER_ERROR;
 4684              		.loc 2 997 0
 4685 003a A023     		movs	r3, #160
 4686 003c 8AE0     		b	.L345
 4687              	.L340:
 998:C:/Users/dtjld/Desktop/AIoT_software/LiteOS_Lab_overseas/LiteOS_Lab/iot_link/network/lwm2m/wakaama_lwm2m/core\observe.c ****     }
 999:C:/Users/dtjld/Desktop/AIoT_software/LiteOS_Lab_overseas/LiteOS_Lab/iot_link/network/lwm2m/wakaama_lwm2m/core\observe.c **** 
1000:C:/Users/dtjld/Desktop/AIoT_software/LiteOS_Lab_overseas/LiteOS_Lab/iot_link/network/lwm2m/wakaama_lwm2m/core\observe.c ****     server = registration_get_registered_server(contextP);
 4688              		.loc 2 1000 0
 4689 003e F868     		ldr	r0, [r7, #12]
 4690 0040 FFF7FEFF 		bl	registration_get_registered_server
 4691 0044 F866     		str	r0, [r7, #108]
1001:C:/Users/dtjld/Desktop/AIoT_software/LiteOS_Lab_overseas/LiteOS_Lab/iot_link/network/lwm2m/wakaama_lwm2m/core\observe.c ****     if(NULL == server)
 4692              		.loc 2 1001 0
 4693 0046 FB6E     		ldr	r3, [r7, #108]
 4694 0048 002B     		cmp	r3, #0
 4695 004a 0CD1     		bne	.L342
1002:C:/Users/dtjld/Desktop/AIoT_software/LiteOS_Lab_overseas/LiteOS_Lab/iot_link/network/lwm2m/wakaama_lwm2m/core\observe.c ****     {
1003:C:/Users/dtjld/Desktop/AIoT_software/LiteOS_Lab_overseas/LiteOS_Lab/iot_link/network/lwm2m/wakaama_lwm2m/core\observe.c ****         LOG("registration_get_registered_server fail\n");
 4696              		.loc 2 1003 0
 4697 004c FFF7FEFF 		bl	lwm2m_gettime
 4698 0050 0346     		mov	r3, r0
 4699 0052 0C46     		mov	r4, r1
 4700 0054 1946     		mov	r1, r3
 4701 0056 40F2EB33 		movw	r3, #1003
 4702 005a 404A     		ldr	r2, .L346
 4703 005c 4148     		ldr	r0, .L346+8
 4704 005e FFF7FEFF 		bl	atiny_printf
1004:C:/Users/dtjld/Desktop/AIoT_software/LiteOS_Lab_overseas/LiteOS_Lab/iot_link/network/lwm2m/wakaama_lwm2m/core\observe.c ****         return COAP_500_INTERNAL_SERVER_ERROR;
 4705              		.loc 2 1004 0
 4706 0062 A023     		movs	r3, #160
 4707 0064 76E0     		b	.L345
 4708              	.L342:
1005:C:/Users/dtjld/Desktop/AIoT_software/LiteOS_Lab_overseas/LiteOS_Lab/iot_link/network/lwm2m/wakaama_lwm2m/core\observe.c ****     }
1006:C:/Users/dtjld/Desktop/AIoT_software/LiteOS_Lab_overseas/LiteOS_Lab/iot_link/network/lwm2m/wakaama_lwm2m/core\observe.c **** 
1007:C:/Users/dtjld/Desktop/AIoT_software/LiteOS_Lab_overseas/LiteOS_Lab/iot_link/network/lwm2m/wakaama_lwm2m/core\observe.c ****     uri.objectId = LWM2M_FIRMWARE_UPDATE_OBJECT_ID;
 4709              		.loc 2 1007 0
 4710 0066 0523     		movs	r3, #5
 4711 0068 A7F86230 		strh	r3, [r7, #98]	@ movhi
1008:C:/Users/dtjld/Desktop/AIoT_software/LiteOS_Lab_overseas/LiteOS_Lab/iot_link/network/lwm2m/wakaama_lwm2m/core\observe.c ****     uri.instanceId = 0;
 4712              		.loc 2 1008 0
 4713 006c 0023     		movs	r3, #0
 4714 006e A7F86430 		strh	r3, [r7, #100]	@ movhi
1009:C:/Users/dtjld/Desktop/AIoT_software/LiteOS_Lab_overseas/LiteOS_Lab/iot_link/network/lwm2m/wakaama_lwm2m/core\observe.c ****     uri.resourceId = RES_M_STATE;
 4715              		.loc 2 1009 0
 4716 0072 0323     		movs	r3, #3
 4717 0074 A7F86630 		strh	r3, [r7, #102]	@ movhi
1010:C:/Users/dtjld/Desktop/AIoT_software/LiteOS_Lab_overseas/LiteOS_Lab/iot_link/network/lwm2m/wakaama_lwm2m/core\observe.c ****     uri.flag = (LWM2M_URI_FLAG_OBJECT_ID | LWM2M_URI_FLAG_INSTANCE_ID | LWM2M_URI_FLAG_RESOURCE_ID)
 4718              		.loc 2 1010 0
 4719 0078 0723     		movs	r3, #7
 4720 007a 87F86030 		strb	r3, [r7, #96]
1011:C:/Users/dtjld/Desktop/AIoT_software/LiteOS_Lab_overseas/LiteOS_Lab/iot_link/network/lwm2m/wakaama_lwm2m/core\observe.c **** 
1012:C:/Users/dtjld/Desktop/AIoT_software/LiteOS_Lab_overseas/LiteOS_Lab/iot_link/network/lwm2m/wakaama_lwm2m/core\observe.c ****     format = (lwm2m_media_type_t)observe_info->format;
 4721              		.loc 2 1012 0
 4722 007e BB68     		ldr	r3, [r7, #8]
ARM GAS  C:\Users\dtjld\AppData\Local\Temp\ccRVA30A.s 			page 113


 4723 0080 1B68     		ldr	r3, [r3]
 4724 0082 9BB2     		uxth	r3, r3
 4725 0084 A7F84E30 		strh	r3, [r7, #78]	@ movhi
1013:C:/Users/dtjld/Desktop/AIoT_software/LiteOS_Lab_overseas/LiteOS_Lab/iot_link/network/lwm2m/wakaama_lwm2m/core\observe.c ****     memset(&data, 0, sizeof(data));
 4726              		.loc 2 1013 0
 4727 0088 07F15003 		add	r3, r7, #80
 4728 008c 1022     		movs	r2, #16
 4729 008e 0021     		movs	r1, #0
 4730 0090 1846     		mov	r0, r3
 4731 0092 FFF7FEFF 		bl	memset
1014:C:/Users/dtjld/Desktop/AIoT_software/LiteOS_Lab_overseas/LiteOS_Lab/iot_link/network/lwm2m/wakaama_lwm2m/core\observe.c ****     data.id = uri.resourceId;
 4732              		.loc 2 1014 0
 4733 0096 B7F86630 		ldrh	r3, [r7, #102]
 4734 009a A7F85230 		strh	r3, [r7, #82]	@ movhi
1015:C:/Users/dtjld/Desktop/AIoT_software/LiteOS_Lab_overseas/LiteOS_Lab/iot_link/network/lwm2m/wakaama_lwm2m/core\observe.c ****     lwm2m_data_encode_int(firmware_update_state, &data);
 4735              		.loc 2 1015 0
 4736 009e 7B68     		ldr	r3, [r7, #4]
 4737 00a0 4FEAE374 		asr	r4, r3, #31
 4738 00a4 07F15002 		add	r2, r7, #80
 4739 00a8 1846     		mov	r0, r3
 4740 00aa 2146     		mov	r1, r4
 4741 00ac FFF7FEFF 		bl	lwm2m_data_encode_int
1016:C:/Users/dtjld/Desktop/AIoT_software/LiteOS_Lab_overseas/LiteOS_Lab/iot_link/network/lwm2m/wakaama_lwm2m/core\observe.c ****     res = lwm2m_data_serialize(&uri, 1, &data, &format, &buffer);
 4742              		.loc 2 1016 0
 4743 00b0 07F14E01 		add	r1, r7, #78
 4744 00b4 07F15002 		add	r2, r7, #80
 4745 00b8 07F16000 		add	r0, r7, #96
 4746 00bc 07F14803 		add	r3, r7, #72
 4747 00c0 0093     		str	r3, [sp]
 4748 00c2 0B46     		mov	r3, r1
 4749 00c4 0121     		movs	r1, #1
 4750 00c6 FFF7FEFF 		bl	lwm2m_data_serialize
 4751 00ca B866     		str	r0, [r7, #104]
1017:C:/Users/dtjld/Desktop/AIoT_software/LiteOS_Lab_overseas/LiteOS_Lab/iot_link/network/lwm2m/wakaama_lwm2m/core\observe.c ****     if (res < 0)
 4752              		.loc 2 1017 0
 4753 00cc BB6E     		ldr	r3, [r7, #104]
 4754 00ce 002B     		cmp	r3, #0
 4755 00d0 13DA     		bge	.L343
1018:C:/Users/dtjld/Desktop/AIoT_software/LiteOS_Lab_overseas/LiteOS_Lab/iot_link/network/lwm2m/wakaama_lwm2m/core\observe.c ****     {
1019:C:/Users/dtjld/Desktop/AIoT_software/LiteOS_Lab_overseas/LiteOS_Lab/iot_link/network/lwm2m/wakaama_lwm2m/core\observe.c ****         LOG("lwm2m_data_serialize fail\n");
 4756              		.loc 2 1019 0
 4757 00d2 FFF7FEFF 		bl	lwm2m_gettime
 4758 00d6 0346     		mov	r3, r0
 4759 00d8 0C46     		mov	r4, r1
 4760 00da 1946     		mov	r1, r3
 4761 00dc 40F2FB33 		movw	r3, #1019
 4762 00e0 1E4A     		ldr	r2, .L346
 4763 00e2 2148     		ldr	r0, .L346+12
 4764 00e4 FFF7FEFF 		bl	atiny_printf
1020:C:/Users/dtjld/Desktop/AIoT_software/LiteOS_Lab_overseas/LiteOS_Lab/iot_link/network/lwm2m/wakaama_lwm2m/core\observe.c ****         if (buffer != NULL)
 4765              		.loc 2 1020 0
 4766 00e8 BB6C     		ldr	r3, [r7, #72]
 4767 00ea 002B     		cmp	r3, #0
 4768 00ec 03D0     		beq	.L344
1021:C:/Users/dtjld/Desktop/AIoT_software/LiteOS_Lab_overseas/LiteOS_Lab/iot_link/network/lwm2m/wakaama_lwm2m/core\observe.c ****         {
1022:C:/Users/dtjld/Desktop/AIoT_software/LiteOS_Lab_overseas/LiteOS_Lab/iot_link/network/lwm2m/wakaama_lwm2m/core\observe.c ****             lwm2m_free(buffer);
 4769              		.loc 2 1022 0
ARM GAS  C:\Users\dtjld\AppData\Local\Temp\ccRVA30A.s 			page 114


 4770 00ee BB6C     		ldr	r3, [r7, #72]
 4771 00f0 1846     		mov	r0, r3
 4772 00f2 FFF7FEFF 		bl	lwm2m_free
 4773              	.L344:
1023:C:/Users/dtjld/Desktop/AIoT_software/LiteOS_Lab_overseas/LiteOS_Lab/iot_link/network/lwm2m/wakaama_lwm2m/core\observe.c ****         }
1024:C:/Users/dtjld/Desktop/AIoT_software/LiteOS_Lab_overseas/LiteOS_Lab/iot_link/network/lwm2m/wakaama_lwm2m/core\observe.c ****         return COAP_500_INTERNAL_SERVER_ERROR;
 4774              		.loc 2 1024 0
 4775 00f6 A023     		movs	r3, #160
 4776 00f8 2CE0     		b	.L345
 4777              	.L343:
1025:C:/Users/dtjld/Desktop/AIoT_software/LiteOS_Lab_overseas/LiteOS_Lab/iot_link/network/lwm2m/wakaama_lwm2m/core\observe.c ****     }
1026:C:/Users/dtjld/Desktop/AIoT_software/LiteOS_Lab_overseas/LiteOS_Lab/iot_link/network/lwm2m/wakaama_lwm2m/core\observe.c **** 
1027:C:/Users/dtjld/Desktop/AIoT_software/LiteOS_Lab_overseas/LiteOS_Lab/iot_link/network/lwm2m/wakaama_lwm2m/core\observe.c ****     memset(&watcherP, 0, sizeof(watcherP));
 4778              		.loc 2 1027 0
 4779 00fa 07F11003 		add	r3, r7, #16
 4780 00fe 3822     		movs	r2, #56
 4781 0100 0021     		movs	r1, #0
 4782 0102 1846     		mov	r0, r3
 4783 0104 FFF7FEFF 		bl	memset
1028:C:/Users/dtjld/Desktop/AIoT_software/LiteOS_Lab_overseas/LiteOS_Lab/iot_link/network/lwm2m/wakaama_lwm2m/core\observe.c ****     watcherP.lastMid = contextP->nextMID++;
 4784              		.loc 2 1028 0
 4785 0108 FB68     		ldr	r3, [r7, #12]
 4786 010a 9B8D     		ldrh	r3, [r3, #44]
 4787 010c 5A1C     		adds	r2, r3, #1
 4788 010e 91B2     		uxth	r1, r2
 4789 0110 FA68     		ldr	r2, [r7, #12]
 4790 0112 9185     		strh	r1, [r2, #44]	@ movhi
 4791 0114 BB87     		strh	r3, [r7, #60]	@ movhi
1029:C:/Users/dtjld/Desktop/AIoT_software/LiteOS_Lab_overseas/LiteOS_Lab/iot_link/network/lwm2m/wakaama_lwm2m/core\observe.c ****     watcherP.tokenLen = observe_info->tokenLen;
 4792              		.loc 2 1029 0
 4793 0116 BB68     		ldr	r3, [r7, #8]
 4794 0118 DB68     		ldr	r3, [r3, #12]
 4795 011a FB62     		str	r3, [r7, #44]
1030:C:/Users/dtjld/Desktop/AIoT_software/LiteOS_Lab_overseas/LiteOS_Lab/iot_link/network/lwm2m/wakaama_lwm2m/core\observe.c ****     memcpy(watcherP.token, observe_info->token, sizeof(watcherP.token));
 4796              		.loc 2 1030 0
 4797 011c BB68     		ldr	r3, [r7, #8]
 4798 011e 1A1D     		adds	r2, r3, #4
 4799 0120 07F12203 		add	r3, r7, #34
 4800 0124 1168     		ldr	r1, [r2]	@ unaligned
 4801 0126 5268     		ldr	r2, [r2, #4]	@ unaligned
 4802 0128 1960     		str	r1, [r3]	@ unaligned
 4803 012a 5A60     		str	r2, [r3, #4]	@ unaligned
1031:C:/Users/dtjld/Desktop/AIoT_software/LiteOS_Lab_overseas/LiteOS_Lab/iot_link/network/lwm2m/wakaama_lwm2m/core\observe.c ****     watcherP.format = format;
 4804              		.loc 2 1031 0
 4805 012c B7F84E30 		ldrh	r3, [r7, #78]
 4806 0130 3B84     		strh	r3, [r7, #32]	@ movhi
1032:C:/Users/dtjld/Desktop/AIoT_software/LiteOS_Lab_overseas/LiteOS_Lab/iot_link/network/lwm2m/wakaama_lwm2m/core\observe.c ****     watcherP.counter = observe_info->counter;
 4807              		.loc 2 1032 0
 4808 0132 BB68     		ldr	r3, [r7, #8]
 4809 0134 1B69     		ldr	r3, [r3, #16]
 4810 0136 BB63     		str	r3, [r7, #56]
1033:C:/Users/dtjld/Desktop/AIoT_software/LiteOS_Lab_overseas/LiteOS_Lab/iot_link/network/lwm2m/wakaama_lwm2m/core\observe.c ****     watcherP.server = server;
 4811              		.loc 2 1033 0
 4812 0138 FB6E     		ldr	r3, [r7, #108]
 4813 013a BB61     		str	r3, [r7, #24]
1034:C:/Users/dtjld/Desktop/AIoT_software/LiteOS_Lab_overseas/LiteOS_Lab/iot_link/network/lwm2m/wakaama_lwm2m/core\observe.c **** 
1035:C:/Users/dtjld/Desktop/AIoT_software/LiteOS_Lab_overseas/LiteOS_Lab/iot_link/network/lwm2m/wakaama_lwm2m/core\observe.c ****     return (uint8_t)observe_send_transaction(contextP, cfg, &watcherP, buffer, res);
ARM GAS  C:\Users\dtjld\AppData\Local\Temp\ccRVA30A.s 			page 115


 4814              		.loc 2 1035 0
 4815 013c B96C     		ldr	r1, [r7, #72]
 4816 013e BB6E     		ldr	r3, [r7, #104]
 4817 0140 07F11002 		add	r2, r7, #16
 4818 0144 0093     		str	r3, [sp]
 4819 0146 0B46     		mov	r3, r1
 4820 0148 3968     		ldr	r1, [r7]
 4821 014a F868     		ldr	r0, [r7, #12]
 4822 014c FFF7FEFF 		bl	observe_send_transaction
 4823 0150 0346     		mov	r3, r0
 4824 0152 DBB2     		uxtb	r3, r3
 4825              	.L345:
1036:C:/Users/dtjld/Desktop/AIoT_software/LiteOS_Lab_overseas/LiteOS_Lab/iot_link/network/lwm2m/wakaama_lwm2m/core\observe.c **** }
 4826              		.loc 2 1036 0 discriminator 1
 4827 0154 1846     		mov	r0, r3
 4828 0156 7437     		adds	r7, r7, #116
 4829              	.LCFI88:
 4830              		.cfi_def_cfa_offset 12
 4831 0158 BD46     		mov	sp, r7
 4832              	.LCFI89:
 4833              		.cfi_def_cfa_register 13
 4834              		@ sp needed
 4835 015a 90BD     		pop	{r4, r7, pc}
 4836              	.L347:
 4837              		.align	2
 4838              	.L346:
 4839 015c 00000000 		.word	__func__.8726
 4840 0160 AC050000 		.word	.LC46
 4841 0164 C8050000 		.word	.LC47
 4842 0168 00060000 		.word	.LC48
 4843              		.cfi_endproc
 4844              	.LFE19:
 4846              		.section	.rodata.__func__.8551,"a",%progbits
 4847              		.align	2
 4850              	__func__.8551:
 4851 0000 6F627365 		.ascii	"observe_handleRequest\000"
 4851      7276655F 
 4851      68616E64 
 4851      6C655265 
 4851      71756573 
 4852              		.section	.rodata.__func__.8565,"a",%progbits
 4853              		.align	2
 4856              	__func__.8565:
 4857 0000 6F627365 		.ascii	"observe_cancel\000"
 4857      7276655F 
 4857      63616E63 
 4857      656C00
 4858              		.section	.rodata.__func__.8579,"a",%progbits
 4859              		.align	2
 4862              	__func__.8579:
 4863 0000 6F627365 		.ascii	"observe_clear\000"
 4863      7276655F 
 4863      636C6561 
 4863      7200
 4864              		.section	.rodata.__func__.8596,"a",%progbits
 4865              		.align	2
 4868              	__func__.8596:
ARM GAS  C:\Users\dtjld\AppData\Local\Temp\ccRVA30A.s 			page 116


 4869 0000 6F627365 		.ascii	"observe_setParameters\000"
 4869      7276655F 
 4869      73657450 
 4869      6172616D 
 4869      65746572 
 4870              		.section	.rodata.__func__.8605,"a",%progbits
 4871              		.align	2
 4874              	__func__.8605:
 4875 0000 6F627365 		.ascii	"observe_findByUri\000"
 4875      7276655F 
 4875      66696E64 
 4875      42795572 
 4875      6900
 4876              		.section	.rodata.__func__.8614,"a",%progbits
 4877              		.align	2
 4880              	__func__.8614:
 4881 0000 6C776D32 		.ascii	"lwm2m_resource_value_changed\000"
 4881      6D5F7265 
 4881      736F7572 
 4881      63655F76 
 4881      616C7565 
 4882              		.section	.rodata.__func__.8631,"a",%progbits
 4883              		.align	2
 4886              	__func__.8631:
 4887 0000 6F627365 		.ascii	"observe_send_transaction\000"
 4887      7276655F 
 4887      73656E64 
 4887      5F747261 
 4887      6E736163 
 4888              		.section	.rodata.__func__.8638,"a",%progbits
 4889              		.align	2
 4892              	__func__.8638:
 4893 0000 6F627365 		.ascii	"observe_app_step\000"
 4893      7276655F 
 4893      6170705F 
 4893      73746570 
 4893      00
 4894              		.section	.rodata.__func__.8659,"a",%progbits
 4895              		.align	2
 4898              	__func__.8659:
 4899 0000 6F627365 		.ascii	"observe_step\000"
 4899      7276655F 
 4899      73746570 
 4899      00
 4900              		.section	.rodata.__func__.8708,"a",%progbits
 4901              		.align	2
 4904              	__func__.8708:
 4905 0000 6C776D32 		.ascii	"lwm2m_get_observe_info\000"
 4905      6D5F6765 
 4905      745F6F62 
 4905      73657276 
 4905      655F696E 
 4906              		.section	.rodata.__func__.8726,"a",%progbits
 4907              		.align	2
 4910              	__func__.8726:
 4911 0000 6C776D32 		.ascii	"lwm2m_send_notify\000"
 4911      6D5F7365 
ARM GAS  C:\Users\dtjld\AppData\Local\Temp\ccRVA30A.s 			page 117


 4911      6E645F6E 
 4911      6F746966 
 4911      7900
 4912              		.text
 4913              	.Letext0:
 4914              		.file 3 "c:\\ac6\\systemworkbench\\plugins\\fr.ac6.mcu.externaltools.arm-none.win32_1.16.0.2018071
 4915              		.file 4 "c:\\ac6\\systemworkbench\\plugins\\fr.ac6.mcu.externaltools.arm-none.win32_1.16.0.2018071
 4916              		.file 5 "C:/Users/dtjld/Desktop/AIoT_software/LiteOS_Lab_overseas/LiteOS_Lab/iot_link/network/lwm2
 4917              		.file 6 "c:\\ac6\\systemworkbench\\plugins\\fr.ac6.mcu.externaltools.arm-none.win32_1.16.0.2018071
 4918              		.file 7 "c:\\ac6\\systemworkbench\\plugins\\fr.ac6.mcu.externaltools.arm-none.win32_1.16.0.2018071
 4919              		.file 8 "c:\\ac6\\systemworkbench\\plugins\\fr.ac6.mcu.externaltools.arm-none.win32_1.16.0.2018071
 4920              		.file 9 "c:\\ac6\\systemworkbench\\plugins\\fr.ac6.mcu.externaltools.arm-none.win32_1.16.0.2018071
 4921              		.file 10 "c:\\ac6\\systemworkbench\\plugins\\fr.ac6.mcu.externaltools.arm-none.win32_1.16.0.201807
 4922              		.file 11 "c:\\ac6\\systemworkbench\\plugins\\fr.ac6.mcu.externaltools.arm-none.win32_1.16.0.201807
 4923              		.file 12 "C:/Users/dtjld/Desktop/AIoT_software/LiteOS_Lab_overseas/LiteOS_Lab/iot_link/network/lwm
 4924              		.file 13 "C:/Users/dtjld/Desktop/AIoT_software/LiteOS_Lab_overseas/LiteOS_Lab/iot_link/network/lwm
 4925              		.file 14 "c:\\ac6\\systemworkbench\\plugins\\fr.ac6.mcu.externaltools.arm-none.win32_1.16.0.201807
 4926              		.file 15 "c:\\ac6\\systemworkbench\\plugins\\fr.ac6.mcu.externaltools.arm-none.win32_1.16.0.201807
 4927              		.file 16 "C:/Users/dtjld/Desktop/AIoT_software/LiteOS_Lab_overseas/LiteOS_Lab/iot_link/oc/oc_lwm2m
ARM GAS  C:\Users\dtjld\AppData\Local\Temp\ccRVA30A.s 			page 118


DEFINED SYMBOLS
                            *ABS*:00000000 observe.c
C:\Users\dtjld\AppData\Local\Temp\ccRVA30A.s:18     .text.dm_isUriOpaqueHandle:00000000 $t
C:\Users\dtjld\AppData\Local\Temp\ccRVA30A.s:24     .text.dm_isUriOpaqueHandle:00000000 dm_isUriOpaqueHandle
C:\Users\dtjld\AppData\Local\Temp\ccRVA30A.s:69     .bss.observe_call_back:00000000 $d
C:\Users\dtjld\AppData\Local\Temp\ccRVA30A.s:72     .bss.observe_call_back:00000000 observe_call_back
C:\Users\dtjld\AppData\Local\Temp\ccRVA30A.s:75     .text.lwm2m_register_observe_ack_call_back:00000000 $t
C:\Users\dtjld\AppData\Local\Temp\ccRVA30A.s:82     .text.lwm2m_register_observe_ack_call_back:00000000 lwm2m_register_observe_ack_call_back
C:\Users\dtjld\AppData\Local\Temp\ccRVA30A.s:122    .text.lwm2m_register_observe_ack_call_back:0000001c $d
C:\Users\dtjld\AppData\Local\Temp\ccRVA30A.s:127    .text.prv_findObserved:00000000 $t
C:\Users\dtjld\AppData\Local\Temp\ccRVA30A.s:133    .text.prv_findObserved:00000000 prv_findObserved
C:\Users\dtjld\AppData\Local\Temp\ccRVA30A.s:230    .text.prv_unlinkObserved:00000000 $t
C:\Users\dtjld\AppData\Local\Temp\ccRVA30A.s:236    .text.prv_unlinkObserved:00000000 prv_unlinkObserved
C:\Users\dtjld\AppData\Local\Temp\ccRVA30A.s:326    .text.prv_findWatcher:00000000 $t
C:\Users\dtjld\AppData\Local\Temp\ccRVA30A.s:332    .text.prv_findWatcher:00000000 prv_findWatcher
C:\Users\dtjld\AppData\Local\Temp\ccRVA30A.s:394    .text.prv_getWatcher:00000000 $t
C:\Users\dtjld\AppData\Local\Temp\ccRVA30A.s:400    .text.prv_getWatcher:00000000 prv_getWatcher
C:\Users\dtjld\AppData\Local\Temp\ccRVA30A.s:558    .rodata:00000000 $d
C:\Users\dtjld\AppData\Local\Temp\ccRVA30A.s:622    .text.observe_handleRequest:00000000 $t
C:\Users\dtjld\AppData\Local\Temp\ccRVA30A.s:629    .text.observe_handleRequest:00000000 observe_handleRequest
C:\Users\dtjld\AppData\Local\Temp\ccRVA30A.s:1104   .text.observe_cancel:00000000 observe_cancel
C:\Users\dtjld\AppData\Local\Temp\ccRVA30A.s:1067   .text.observe_handleRequest:000002c0 $d
C:\Users\dtjld\AppData\Local\Temp\ccRVA30A.s:4850   .rodata.__func__.8551:00000000 __func__.8551
C:\Users\dtjld\AppData\Local\Temp\ccRVA30A.s:1097   .text.observe_cancel:00000000 $t
C:\Users\dtjld\AppData\Local\Temp\ccRVA30A.s:1311   .text.observe_cancel:00000130 $d
C:\Users\dtjld\AppData\Local\Temp\ccRVA30A.s:4856   .rodata.__func__.8565:00000000 __func__.8565
C:\Users\dtjld\AppData\Local\Temp\ccRVA30A.s:1317   .text.observe_clear:00000000 $t
C:\Users\dtjld\AppData\Local\Temp\ccRVA30A.s:1324   .text.observe_clear:00000000 observe_clear
C:\Users\dtjld\AppData\Local\Temp\ccRVA30A.s:1500   .text.observe_clear:00000104 $d
C:\Users\dtjld\AppData\Local\Temp\ccRVA30A.s:4862   .rodata.__func__.8579:00000000 __func__.8579
C:\Users\dtjld\AppData\Local\Temp\ccRVA30A.s:1521   .text.observe_setParameters:00000000 $t
C:\Users\dtjld\AppData\Local\Temp\ccRVA30A.s:1528   .text.observe_setParameters:00000000 observe_setParameters
C:\Users\dtjld\AppData\Local\Temp\ccRVA30A.s:1861   .text.observe_setParameters:00000258 $d
C:\Users\dtjld\AppData\Local\Temp\ccRVA30A.s:4868   .rodata.__func__.8596:00000000 __func__.8596
C:\Users\dtjld\AppData\Local\Temp\ccRVA30A.s:1869   .text.observe_setParameters:00000270 $t
C:\Users\dtjld\AppData\Local\Temp\ccRVA30A.s:2003   .text.observe_setParameters:00000370 $d
C:\Users\dtjld\AppData\Local\Temp\ccRVA30A.s:2022   .text.observe_findByUri:00000000 $t
C:\Users\dtjld\AppData\Local\Temp\ccRVA30A.s:2029   .text.observe_findByUri:00000000 observe_findByUri
C:\Users\dtjld\AppData\Local\Temp\ccRVA30A.s:2284   .text.observe_findByUri:000001a4 $d
C:\Users\dtjld\AppData\Local\Temp\ccRVA30A.s:4874   .rodata.__func__.8605:00000000 __func__.8605
C:\Users\dtjld\AppData\Local\Temp\ccRVA30A.s:2304   .text.lwm2m_resource_value_changed:00000000 $t
C:\Users\dtjld\AppData\Local\Temp\ccRVA30A.s:2311   .text.lwm2m_resource_value_changed:00000000 lwm2m_resource_value_changed
C:\Users\dtjld\AppData\Local\Temp\ccRVA30A.s:2548   .text.lwm2m_resource_value_changed:00000180 $d
C:\Users\dtjld\AppData\Local\Temp\ccRVA30A.s:4880   .rodata.__func__.8614:00000000 __func__.8614
C:\Users\dtjld\AppData\Local\Temp\ccRVA30A.s:2567   .text.observe_send_transaction:00000000 $t
C:\Users\dtjld\AppData\Local\Temp\ccRVA30A.s:2574   .text.observe_send_transaction:00000000 observe_send_transaction
C:\Users\dtjld\AppData\Local\Temp\ccRVA30A.s:2725   .text.observe_send_transaction:000000f4 $d
C:\Users\dtjld\AppData\Local\Temp\ccRVA30A.s:4886   .rodata.__func__.8631:00000000 __func__.8631
C:\Users\dtjld\AppData\Local\Temp\ccRVA30A.s:2740   .text.observe_app_step:00000000 $t
C:\Users\dtjld\AppData\Local\Temp\ccRVA30A.s:2747   .text.observe_app_step:00000000 observe_app_step
C:\Users\dtjld\AppData\Local\Temp\ccRVA30A.s:3034   .text.observe_app_step:00000248 $d
C:\Users\dtjld\AppData\Local\Temp\ccRVA30A.s:4892   .rodata.__func__.8638:00000000 __func__.8638
C:\Users\dtjld\AppData\Local\Temp\ccRVA30A.s:3085   .text.observe_step:00000000 $t
C:\Users\dtjld\AppData\Local\Temp\ccRVA30A.s:3092   .text.observe_step:00000000 observe_step
C:\Users\dtjld\AppData\Local\Temp\ccRVA30A.s:3448   .text.observe_step:000002e8 $d
C:\Users\dtjld\AppData\Local\Temp\ccRVA30A.s:4898   .rodata.__func__.8659:00000000 __func__.8659
C:\Users\dtjld\AppData\Local\Temp\ccRVA30A.s:3458   .text.observe_step:00000308 $t
ARM GAS  C:\Users\dtjld\AppData\Local\Temp\ccRVA30A.s 			page 119


C:\Users\dtjld\AppData\Local\Temp\ccRVA30A.s:3837   .text.observe_step:00000624 $d
C:\Users\dtjld\AppData\Local\Temp\ccRVA30A.s:3845   .text.observe_step:00000638 $t
C:\Users\dtjld\AppData\Local\Temp\ccRVA30A.s:4214   .text.observe_step:0000097c $d
C:\Users\dtjld\AppData\Local\Temp\ccRVA30A.s:4222   .text.observe_step:00000994 $t
C:\Users\dtjld\AppData\Local\Temp\ccRVA30A.s:4471   .text.observe_step:00000ba0 $d
C:\Users\dtjld\AppData\Local\Temp\ccRVA30A.s:4481   .text.lwm2m_get_observe_info:00000000 $t
C:\Users\dtjld\AppData\Local\Temp\ccRVA30A.s:4488   .text.lwm2m_get_observe_info:00000000 lwm2m_get_observe_info
C:\Users\dtjld\AppData\Local\Temp\ccRVA30A.s:4616   .text.lwm2m_get_observe_info:000000a8 $d
C:\Users\dtjld\AppData\Local\Temp\ccRVA30A.s:4904   .rodata.__func__.8708:00000000 __func__.8708
C:\Users\dtjld\AppData\Local\Temp\ccRVA30A.s:4630   .text.lwm2m_send_notify:00000000 $t
C:\Users\dtjld\AppData\Local\Temp\ccRVA30A.s:4637   .text.lwm2m_send_notify:00000000 lwm2m_send_notify
C:\Users\dtjld\AppData\Local\Temp\ccRVA30A.s:4839   .text.lwm2m_send_notify:0000015c $d
C:\Users\dtjld\AppData\Local\Temp\ccRVA30A.s:4910   .rodata.__func__.8726:00000000 __func__.8726
C:\Users\dtjld\AppData\Local\Temp\ccRVA30A.s:4847   .rodata.__func__.8551:00000000 $d
C:\Users\dtjld\AppData\Local\Temp\ccRVA30A.s:4853   .rodata.__func__.8565:00000000 $d
C:\Users\dtjld\AppData\Local\Temp\ccRVA30A.s:4859   .rodata.__func__.8579:00000000 $d
C:\Users\dtjld\AppData\Local\Temp\ccRVA30A.s:4865   .rodata.__func__.8596:00000000 $d
C:\Users\dtjld\AppData\Local\Temp\ccRVA30A.s:4871   .rodata.__func__.8605:00000000 $d
C:\Users\dtjld\AppData\Local\Temp\ccRVA30A.s:4877   .rodata.__func__.8614:00000000 $d
C:\Users\dtjld\AppData\Local\Temp\ccRVA30A.s:4883   .rodata.__func__.8631:00000000 $d
C:\Users\dtjld\AppData\Local\Temp\ccRVA30A.s:4889   .rodata.__func__.8638:00000000 $d
C:\Users\dtjld\AppData\Local\Temp\ccRVA30A.s:4895   .rodata.__func__.8659:00000000 $d
C:\Users\dtjld\AppData\Local\Temp\ccRVA30A.s:4901   .rodata.__func__.8708:00000000 $d
C:\Users\dtjld\AppData\Local\Temp\ccRVA30A.s:4907   .rodata.__func__.8726:00000000 $d

UNDEFINED SYMBOLS
lwm2m_malloc
memset
memcpy
osal_mutex_lock
osal_mutex_unlock
lwm2m_free
lwm2m_gettime
atiny_printf
coap_get_header_observe
utils_convertMediaType
lwm2m_data_decode_int
lwm2m_data_decode_float
coap_set_header_observe
lwm2m_session_is_equal
lwm2m_notify_even
lwm2m_list_free
__aeabi_d2f
object_checkReadable
object_checkNumeric
transaction_new
coap_set_header_content_type
coap_set_payload
lwm2m_list_add
transaction_send
lwm2m_data_serialize
lwm2m_data_free
coap_init_message
coap_set_header_token
message_send
object_readData
__aeabi_l2d
ARM GAS  C:\Users\dtjld\AppData\Local\Temp\ccRVA30A.s 			page 120


__aeabi_dcmple
__aeabi_dcmpgt
__aeabi_dcmpge
__aeabi_dcmplt
__aeabi_dsub
object_read
registration_get_registered_server
lwm2m_data_encode_int
