ARM GAS  C:\Users\dtjld\AppData\Local\Temp\ccRVA30A.s 			page 1


   1              		.cpu cortex-m4
   2              		.eabi_attribute 27, 1
   3              		.eabi_attribute 28, 1
   4              		.eabi_attribute 20, 1
   5              		.eabi_attribute 21, 1
   6              		.eabi_attribute 23, 3
   7              		.eabi_attribute 24, 1
   8              		.eabi_attribute 25, 1
   9              		.eabi_attribute 26, 1
  10              		.eabi_attribute 30, 6
  11              		.eabi_attribute 34, 1
  12              		.eabi_attribute 18, 4
  13              		.file	"observe.c"
  14              		.text
  15              	.Ltext0:
  16              		.cfi_sections	.debug_frame
  17              		.section	.text.dm_isUriOpaqueHandle,"ax",%progbits
  18              		.align	1
  19              		.syntax unified
  20              		.thumb
  21              		.thumb_func
  22              		.fpu fpv4-sp-d16
  24              	dm_isUriOpaqueHandle:
  25              	.LFB3:
  26              		.file 1 "C:/Users/dtjld/Desktop/AIoT_software/LiteOS_Lab_overseas/LiteOS_Lab/iot_link/network/lwm2
   1:C:/Users/dtjld/Desktop/AIoT_software/LiteOS_Lab_overseas/LiteOS_Lab/iot_link/network/lwm2m/wakaama_lwm2m/core\internals.h **** /*----------------------------------------------------------------------------
   2:C:/Users/dtjld/Desktop/AIoT_software/LiteOS_Lab_overseas/LiteOS_Lab/iot_link/network/lwm2m/wakaama_lwm2m/core\internals.h ****  * Copyright (c) <2016-2018>, <Huawei Technologies Co., Ltd>
   3:C:/Users/dtjld/Desktop/AIoT_software/LiteOS_Lab_overseas/LiteOS_Lab/iot_link/network/lwm2m/wakaama_lwm2m/core\internals.h ****  * All rights reserved.
   4:C:/Users/dtjld/Desktop/AIoT_software/LiteOS_Lab_overseas/LiteOS_Lab/iot_link/network/lwm2m/wakaama_lwm2m/core\internals.h ****  * Redistribution and use in source and binary forms, with or without modification,
   5:C:/Users/dtjld/Desktop/AIoT_software/LiteOS_Lab_overseas/LiteOS_Lab/iot_link/network/lwm2m/wakaama_lwm2m/core\internals.h ****  * are permitted provided that the following conditions are met:
   6:C:/Users/dtjld/Desktop/AIoT_software/LiteOS_Lab_overseas/LiteOS_Lab/iot_link/network/lwm2m/wakaama_lwm2m/core\internals.h ****  * 1. Redistributions of source code must retain the above copyright notice, this list of
   7:C:/Users/dtjld/Desktop/AIoT_software/LiteOS_Lab_overseas/LiteOS_Lab/iot_link/network/lwm2m/wakaama_lwm2m/core\internals.h ****  * conditions and the following disclaimer.
   8:C:/Users/dtjld/Desktop/AIoT_software/LiteOS_Lab_overseas/LiteOS_Lab/iot_link/network/lwm2m/wakaama_lwm2m/core\internals.h ****  * 2. Redistributions in binary form must reproduce the above copyright notice, this list
   9:C:/Users/dtjld/Desktop/AIoT_software/LiteOS_Lab_overseas/LiteOS_Lab/iot_link/network/lwm2m/wakaama_lwm2m/core\internals.h ****  * of conditions and the following disclaimer in the documentation and/or other materials
  10:C:/Users/dtjld/Desktop/AIoT_software/LiteOS_Lab_overseas/LiteOS_Lab/iot_link/network/lwm2m/wakaama_lwm2m/core\internals.h ****  * provided with the distribution.
  11:C:/Users/dtjld/Desktop/AIoT_software/LiteOS_Lab_overseas/LiteOS_Lab/iot_link/network/lwm2m/wakaama_lwm2m/core\internals.h ****  * 3. Neither the name of the copyright holder nor the names of its contributors may be used
  12:C:/Users/dtjld/Desktop/AIoT_software/LiteOS_Lab_overseas/LiteOS_Lab/iot_link/network/lwm2m/wakaama_lwm2m/core\internals.h ****  * to endorse or promote products derived from this software without specific prior written
  13:C:/Users/dtjld/Desktop/AIoT_software/LiteOS_Lab_overseas/LiteOS_Lab/iot_link/network/lwm2m/wakaama_lwm2m/core\internals.h ****  * permission.
  14:C:/Users/dtjld/Desktop/AIoT_software/LiteOS_Lab_overseas/LiteOS_Lab/iot_link/network/lwm2m/wakaama_lwm2m/core\internals.h ****  * THIS SOFTWARE IS PROVIDED BY THE COPYRIGHT HOLDERS AND CONTRIBUTORS
  15:C:/Users/dtjld/Desktop/AIoT_software/LiteOS_Lab_overseas/LiteOS_Lab/iot_link/network/lwm2m/wakaama_lwm2m/core\internals.h ****  * "AS IS" AND ANY EXPRESS OR IMPLIED WARRANTIES, INCLUDING, BUT NOT LIMITED TO,
  16:C:/Users/dtjld/Desktop/AIoT_software/LiteOS_Lab_overseas/LiteOS_Lab/iot_link/network/lwm2m/wakaama_lwm2m/core\internals.h ****  * THE IMPLIED WARRANTIES OF MERCHANTABILITY AND FITNESS FOR A PARTICULAR
  17:C:/Users/dtjld/Desktop/AIoT_software/LiteOS_Lab_overseas/LiteOS_Lab/iot_link/network/lwm2m/wakaama_lwm2m/core\internals.h ****  * PURPOSE ARE DISCLAIMED. IN NO EVENT SHALL THE COPYRIGHT HOLDER OR
  18:C:/Users/dtjld/Desktop/AIoT_software/LiteOS_Lab_overseas/LiteOS_Lab/iot_link/network/lwm2m/wakaama_lwm2m/core\internals.h ****  * CONTRIBUTORS BE LIABLE FOR ANY DIRECT, INDIRECT, INCIDENTAL, SPECIAL,
  19:C:/Users/dtjld/Desktop/AIoT_software/LiteOS_Lab_overseas/LiteOS_Lab/iot_link/network/lwm2m/wakaama_lwm2m/core\internals.h ****  * EXEMPLARY, OR CONSEQUENTIAL DAMAGES (INCLUDING, BUT NOT LIMITED TO,
  20:C:/Users/dtjld/Desktop/AIoT_software/LiteOS_Lab_overseas/LiteOS_Lab/iot_link/network/lwm2m/wakaama_lwm2m/core\internals.h ****  * PROCUREMENT OF SUBSTITUTE GOODS OR SERVICES; LOSS OF USE, DATA, OR PROFITS;
  21:C:/Users/dtjld/Desktop/AIoT_software/LiteOS_Lab_overseas/LiteOS_Lab/iot_link/network/lwm2m/wakaama_lwm2m/core\internals.h ****  * OR BUSINESS INTERRUPTION) HOWEVER CAUSED AND ON ANY THEORY OF LIABILITY,
  22:C:/Users/dtjld/Desktop/AIoT_software/LiteOS_Lab_overseas/LiteOS_Lab/iot_link/network/lwm2m/wakaama_lwm2m/core\internals.h ****  * WHETHER IN CONTRACT, STRICT LIABILITY, OR TORT (INCLUDING NEGLIGENCE OR
  23:C:/Users/dtjld/Desktop/AIoT_software/LiteOS_Lab_overseas/LiteOS_Lab/iot_link/network/lwm2m/wakaama_lwm2m/core\internals.h ****  * OTHERWISE) ARISING IN ANY WAY OUT OF THE USE OF THIS SOFTWARE, EVEN IF
  24:C:/Users/dtjld/Desktop/AIoT_software/LiteOS_Lab_overseas/LiteOS_Lab/iot_link/network/lwm2m/wakaama_lwm2m/core\internals.h ****  * ADVISED OF THE POSSIBILITY OF SUCH DAMAGE.
  25:C:/Users/dtjld/Desktop/AIoT_software/LiteOS_Lab_overseas/LiteOS_Lab/iot_link/network/lwm2m/wakaama_lwm2m/core\internals.h ****  *---------------------------------------------------------------------------*/
  26:C:/Users/dtjld/Desktop/AIoT_software/LiteOS_Lab_overseas/LiteOS_Lab/iot_link/network/lwm2m/wakaama_lwm2m/core\internals.h **** /*----------------------------------------------------------------------------
  27:C:/Users/dtjld/Desktop/AIoT_software/LiteOS_Lab_overseas/LiteOS_Lab/iot_link/network/lwm2m/wakaama_lwm2m/core\internals.h ****  * Notice of Export Control Law
  28:C:/Users/dtjld/Desktop/AIoT_software/LiteOS_Lab_overseas/LiteOS_Lab/iot_link/network/lwm2m/wakaama_lwm2m/core\internals.h ****  * ===============================================
  29:C:/Users/dtjld/Desktop/AIoT_software/LiteOS_Lab_overseas/LiteOS_Lab/iot_link/network/lwm2m/wakaama_lwm2m/core\internals.h ****  * Huawei LiteOS may be subject to applicable export control laws and regulations, which might
  30:C:/Users/dtjld/Desktop/AIoT_software/LiteOS_Lab_overseas/LiteOS_Lab/iot_link/network/lwm2m/wakaama_lwm2m/core\internals.h ****  * include those applicable to Huawei LiteOS of U.S. and the country in which you are located.
  31:C:/Users/dtjld/Desktop/AIoT_software/LiteOS_Lab_overseas/LiteOS_Lab/iot_link/network/lwm2m/wakaama_lwm2m/core\internals.h ****  * Import, export and usage of Huawei LiteOS in any manner by you shall be in compliance with such
  32:C:/Users/dtjld/Desktop/AIoT_software/LiteOS_Lab_overseas/LiteOS_Lab/iot_link/network/lwm2m/wakaama_lwm2m/core\internals.h ****  * applicable export control laws and regulations.
ARM GAS  C:\Users\dtjld\AppData\Local\Temp\ccRVA30A.s 			page 2


  33:C:/Users/dtjld/Desktop/AIoT_software/LiteOS_Lab_overseas/LiteOS_Lab/iot_link/network/lwm2m/wakaama_lwm2m/core\internals.h ****  *---------------------------------------------------------------------------*/
  34:C:/Users/dtjld/Desktop/AIoT_software/LiteOS_Lab_overseas/LiteOS_Lab/iot_link/network/lwm2m/wakaama_lwm2m/core\internals.h **** 
  35:C:/Users/dtjld/Desktop/AIoT_software/LiteOS_Lab_overseas/LiteOS_Lab/iot_link/network/lwm2m/wakaama_lwm2m/core\internals.h **** /*******************************************************************************
  36:C:/Users/dtjld/Desktop/AIoT_software/LiteOS_Lab_overseas/LiteOS_Lab/iot_link/network/lwm2m/wakaama_lwm2m/core\internals.h ****  *
  37:C:/Users/dtjld/Desktop/AIoT_software/LiteOS_Lab_overseas/LiteOS_Lab/iot_link/network/lwm2m/wakaama_lwm2m/core\internals.h ****  * Copyright (c) 2013, 2014 Intel Corporation and others.
  38:C:/Users/dtjld/Desktop/AIoT_software/LiteOS_Lab_overseas/LiteOS_Lab/iot_link/network/lwm2m/wakaama_lwm2m/core\internals.h ****  * All rights reserved. This program and the accompanying materials
  39:C:/Users/dtjld/Desktop/AIoT_software/LiteOS_Lab_overseas/LiteOS_Lab/iot_link/network/lwm2m/wakaama_lwm2m/core\internals.h ****  * are made available under the terms of the Eclipse Public License v1.0
  40:C:/Users/dtjld/Desktop/AIoT_software/LiteOS_Lab_overseas/LiteOS_Lab/iot_link/network/lwm2m/wakaama_lwm2m/core\internals.h ****  * and Eclipse Distribution License v1.0 which accompany this distribution.
  41:C:/Users/dtjld/Desktop/AIoT_software/LiteOS_Lab_overseas/LiteOS_Lab/iot_link/network/lwm2m/wakaama_lwm2m/core\internals.h ****  *
  42:C:/Users/dtjld/Desktop/AIoT_software/LiteOS_Lab_overseas/LiteOS_Lab/iot_link/network/lwm2m/wakaama_lwm2m/core\internals.h ****  * The Eclipse Public License is available at
  43:C:/Users/dtjld/Desktop/AIoT_software/LiteOS_Lab_overseas/LiteOS_Lab/iot_link/network/lwm2m/wakaama_lwm2m/core\internals.h ****  *    http://www.eclipse.org/legal/epl-v10.html
  44:C:/Users/dtjld/Desktop/AIoT_software/LiteOS_Lab_overseas/LiteOS_Lab/iot_link/network/lwm2m/wakaama_lwm2m/core\internals.h ****  * The Eclipse Distribution License is available at
  45:C:/Users/dtjld/Desktop/AIoT_software/LiteOS_Lab_overseas/LiteOS_Lab/iot_link/network/lwm2m/wakaama_lwm2m/core\internals.h ****  *    http://www.eclipse.org/org/documents/edl-v10.php.
  46:C:/Users/dtjld/Desktop/AIoT_software/LiteOS_Lab_overseas/LiteOS_Lab/iot_link/network/lwm2m/wakaama_lwm2m/core\internals.h ****  *
  47:C:/Users/dtjld/Desktop/AIoT_software/LiteOS_Lab_overseas/LiteOS_Lab/iot_link/network/lwm2m/wakaama_lwm2m/core\internals.h ****  * Contributors:
  48:C:/Users/dtjld/Desktop/AIoT_software/LiteOS_Lab_overseas/LiteOS_Lab/iot_link/network/lwm2m/wakaama_lwm2m/core\internals.h ****  *    David Navarro, Intel Corporation - initial API and implementation
  49:C:/Users/dtjld/Desktop/AIoT_software/LiteOS_Lab_overseas/LiteOS_Lab/iot_link/network/lwm2m/wakaama_lwm2m/core\internals.h ****  *    Fabien Fleutot - Please refer to git log
  50:C:/Users/dtjld/Desktop/AIoT_software/LiteOS_Lab_overseas/LiteOS_Lab/iot_link/network/lwm2m/wakaama_lwm2m/core\internals.h ****  *    Toby Jaffey - Please refer to git log
  51:C:/Users/dtjld/Desktop/AIoT_software/LiteOS_Lab_overseas/LiteOS_Lab/iot_link/network/lwm2m/wakaama_lwm2m/core\internals.h ****  *    Bosch Software Innovations GmbH - Please refer to git log
  52:C:/Users/dtjld/Desktop/AIoT_software/LiteOS_Lab_overseas/LiteOS_Lab/iot_link/network/lwm2m/wakaama_lwm2m/core\internals.h ****  *    Pascal Rieux - Please refer to git log
  53:C:/Users/dtjld/Desktop/AIoT_software/LiteOS_Lab_overseas/LiteOS_Lab/iot_link/network/lwm2m/wakaama_lwm2m/core\internals.h ****  *    Scott Bertin - Please refer to git log
  54:C:/Users/dtjld/Desktop/AIoT_software/LiteOS_Lab_overseas/LiteOS_Lab/iot_link/network/lwm2m/wakaama_lwm2m/core\internals.h ****  *
  55:C:/Users/dtjld/Desktop/AIoT_software/LiteOS_Lab_overseas/LiteOS_Lab/iot_link/network/lwm2m/wakaama_lwm2m/core\internals.h ****  *******************************************************************************/
  56:C:/Users/dtjld/Desktop/AIoT_software/LiteOS_Lab_overseas/LiteOS_Lab/iot_link/network/lwm2m/wakaama_lwm2m/core\internals.h **** /*
  57:C:/Users/dtjld/Desktop/AIoT_software/LiteOS_Lab_overseas/LiteOS_Lab/iot_link/network/lwm2m/wakaama_lwm2m/core\internals.h ****  Copyright (c) 2013, 2014 Intel Corporation
  58:C:/Users/dtjld/Desktop/AIoT_software/LiteOS_Lab_overseas/LiteOS_Lab/iot_link/network/lwm2m/wakaama_lwm2m/core\internals.h **** 
  59:C:/Users/dtjld/Desktop/AIoT_software/LiteOS_Lab_overseas/LiteOS_Lab/iot_link/network/lwm2m/wakaama_lwm2m/core\internals.h ****  Redistribution and use in source and binary forms, with or without modification,
  60:C:/Users/dtjld/Desktop/AIoT_software/LiteOS_Lab_overseas/LiteOS_Lab/iot_link/network/lwm2m/wakaama_lwm2m/core\internals.h ****  are permitted provided that the following conditions are met:
  61:C:/Users/dtjld/Desktop/AIoT_software/LiteOS_Lab_overseas/LiteOS_Lab/iot_link/network/lwm2m/wakaama_lwm2m/core\internals.h **** 
  62:C:/Users/dtjld/Desktop/AIoT_software/LiteOS_Lab_overseas/LiteOS_Lab/iot_link/network/lwm2m/wakaama_lwm2m/core\internals.h ****      * Redistributions of source code must retain the above copyright notice,
  63:C:/Users/dtjld/Desktop/AIoT_software/LiteOS_Lab_overseas/LiteOS_Lab/iot_link/network/lwm2m/wakaama_lwm2m/core\internals.h ****        this list of conditions and the following disclaimer.
  64:C:/Users/dtjld/Desktop/AIoT_software/LiteOS_Lab_overseas/LiteOS_Lab/iot_link/network/lwm2m/wakaama_lwm2m/core\internals.h ****      * Redistributions in binary form must reproduce the above copyright notice,
  65:C:/Users/dtjld/Desktop/AIoT_software/LiteOS_Lab_overseas/LiteOS_Lab/iot_link/network/lwm2m/wakaama_lwm2m/core\internals.h ****        this list of conditions and the following disclaimer in the documentation
  66:C:/Users/dtjld/Desktop/AIoT_software/LiteOS_Lab_overseas/LiteOS_Lab/iot_link/network/lwm2m/wakaama_lwm2m/core\internals.h ****        and/or other materials provided with the distribution.
  67:C:/Users/dtjld/Desktop/AIoT_software/LiteOS_Lab_overseas/LiteOS_Lab/iot_link/network/lwm2m/wakaama_lwm2m/core\internals.h ****      * Neither the name of Intel Corporation nor the names of its contributors
  68:C:/Users/dtjld/Desktop/AIoT_software/LiteOS_Lab_overseas/LiteOS_Lab/iot_link/network/lwm2m/wakaama_lwm2m/core\internals.h ****        may be used to endorse or promote products derived from this software
  69:C:/Users/dtjld/Desktop/AIoT_software/LiteOS_Lab_overseas/LiteOS_Lab/iot_link/network/lwm2m/wakaama_lwm2m/core\internals.h ****        without specific prior written permission.
  70:C:/Users/dtjld/Desktop/AIoT_software/LiteOS_Lab_overseas/LiteOS_Lab/iot_link/network/lwm2m/wakaama_lwm2m/core\internals.h **** 
  71:C:/Users/dtjld/Desktop/AIoT_software/LiteOS_Lab_overseas/LiteOS_Lab/iot_link/network/lwm2m/wakaama_lwm2m/core\internals.h ****  THIS SOFTWARE IS PROVIDED BY THE COPYRIGHT HOLDERS AND CONTRIBUTORS "AS IS" AND
  72:C:/Users/dtjld/Desktop/AIoT_software/LiteOS_Lab_overseas/LiteOS_Lab/iot_link/network/lwm2m/wakaama_lwm2m/core\internals.h ****  ANY EXPRESS OR IMPLIED WARRANTIES, INCLUDING, BUT NOT LIMITED TO, THE IMPLIED
  73:C:/Users/dtjld/Desktop/AIoT_software/LiteOS_Lab_overseas/LiteOS_Lab/iot_link/network/lwm2m/wakaama_lwm2m/core\internals.h ****  WARRANTIES OF MERCHANTABILITY AND FITNESS FOR A PARTICULAR PURPOSE ARE DISCLAIMED.
  74:C:/Users/dtjld/Desktop/AIoT_software/LiteOS_Lab_overseas/LiteOS_Lab/iot_link/network/lwm2m/wakaama_lwm2m/core\internals.h ****  IN NO EVENT SHALL THE COPYRIGHT OWNER OR CONTRIBUTORS BE LIABLE FOR ANY DIRECT,
  75:C:/Users/dtjld/Desktop/AIoT_software/LiteOS_Lab_overseas/LiteOS_Lab/iot_link/network/lwm2m/wakaama_lwm2m/core\internals.h ****  INDIRECT, INCIDENTAL, SPECIAL, EXEMPLARY, OR CONSEQUENTIAL DAMAGES (INCLUDING,
  76:C:/Users/dtjld/Desktop/AIoT_software/LiteOS_Lab_overseas/LiteOS_Lab/iot_link/network/lwm2m/wakaama_lwm2m/core\internals.h ****  BUT NOT LIMITED TO, PROCUREMENT OF SUBSTITUTE GOODS OR SERVICES; LOSS OF USE,
  77:C:/Users/dtjld/Desktop/AIoT_software/LiteOS_Lab_overseas/LiteOS_Lab/iot_link/network/lwm2m/wakaama_lwm2m/core\internals.h ****  DATA, OR PROFITS; OR BUSINESS INTERRUPTION) HOWEVER CAUSED AND ON ANY THEORY OF
  78:C:/Users/dtjld/Desktop/AIoT_software/LiteOS_Lab_overseas/LiteOS_Lab/iot_link/network/lwm2m/wakaama_lwm2m/core\internals.h ****  LIABILITY, WHETHER IN CONTRACT, STRICT LIABILITY, OR TORT (INCLUDING NEGLIGENCE OR
  79:C:/Users/dtjld/Desktop/AIoT_software/LiteOS_Lab_overseas/LiteOS_Lab/iot_link/network/lwm2m/wakaama_lwm2m/core\internals.h ****  OTHERWISE) ARISING IN ANY WAY OUT OF THE USE OF THIS SOFTWARE, EVEN IF ADVISED OF
  80:C:/Users/dtjld/Desktop/AIoT_software/LiteOS_Lab_overseas/LiteOS_Lab/iot_link/network/lwm2m/wakaama_lwm2m/core\internals.h ****  THE POSSIBILITY OF SUCH DAMAGE.
  81:C:/Users/dtjld/Desktop/AIoT_software/LiteOS_Lab_overseas/LiteOS_Lab/iot_link/network/lwm2m/wakaama_lwm2m/core\internals.h **** 
  82:C:/Users/dtjld/Desktop/AIoT_software/LiteOS_Lab_overseas/LiteOS_Lab/iot_link/network/lwm2m/wakaama_lwm2m/core\internals.h ****  David Navarro <david.navarro@intel.com>
  83:C:/Users/dtjld/Desktop/AIoT_software/LiteOS_Lab_overseas/LiteOS_Lab/iot_link/network/lwm2m/wakaama_lwm2m/core\internals.h **** 
  84:C:/Users/dtjld/Desktop/AIoT_software/LiteOS_Lab_overseas/LiteOS_Lab/iot_link/network/lwm2m/wakaama_lwm2m/core\internals.h **** */
  85:C:/Users/dtjld/Desktop/AIoT_software/LiteOS_Lab_overseas/LiteOS_Lab/iot_link/network/lwm2m/wakaama_lwm2m/core\internals.h **** 
  86:C:/Users/dtjld/Desktop/AIoT_software/LiteOS_Lab_overseas/LiteOS_Lab/iot_link/network/lwm2m/wakaama_lwm2m/core\internals.h **** #ifndef _LWM2M_INTERNALS_H_
  87:C:/Users/dtjld/Desktop/AIoT_software/LiteOS_Lab_overseas/LiteOS_Lab/iot_link/network/lwm2m/wakaama_lwm2m/core\internals.h **** #define _LWM2M_INTERNALS_H_
  88:C:/Users/dtjld/Desktop/AIoT_software/LiteOS_Lab_overseas/LiteOS_Lab/iot_link/network/lwm2m/wakaama_lwm2m/core\internals.h **** 
  89:C:/Users/dtjld/Desktop/AIoT_software/LiteOS_Lab_overseas/LiteOS_Lab/iot_link/network/lwm2m/wakaama_lwm2m/core\internals.h **** #include "liblwm2m.h"
ARM GAS  C:\Users\dtjld\AppData\Local\Temp\ccRVA30A.s 			page 3


  90:C:/Users/dtjld/Desktop/AIoT_software/LiteOS_Lab_overseas/LiteOS_Lab/iot_link/network/lwm2m/wakaama_lwm2m/core\internals.h **** 
  91:C:/Users/dtjld/Desktop/AIoT_software/LiteOS_Lab_overseas/LiteOS_Lab/iot_link/network/lwm2m/wakaama_lwm2m/core\internals.h **** #include <stdlib.h>
  92:C:/Users/dtjld/Desktop/AIoT_software/LiteOS_Lab_overseas/LiteOS_Lab/iot_link/network/lwm2m/wakaama_lwm2m/core\internals.h **** #include <string.h>
  93:C:/Users/dtjld/Desktop/AIoT_software/LiteOS_Lab_overseas/LiteOS_Lab/iot_link/network/lwm2m/wakaama_lwm2m/core\internals.h **** #include <stdio.h>
  94:C:/Users/dtjld/Desktop/AIoT_software/LiteOS_Lab_overseas/LiteOS_Lab/iot_link/network/lwm2m/wakaama_lwm2m/core\internals.h **** #include <ctype.h>
  95:C:/Users/dtjld/Desktop/AIoT_software/LiteOS_Lab_overseas/LiteOS_Lab/iot_link/network/lwm2m/wakaama_lwm2m/core\internals.h **** #include <stdint.h>
  96:C:/Users/dtjld/Desktop/AIoT_software/LiteOS_Lab_overseas/LiteOS_Lab/iot_link/network/lwm2m/wakaama_lwm2m/core\internals.h **** #include <stddef.h>
  97:C:/Users/dtjld/Desktop/AIoT_software/LiteOS_Lab_overseas/LiteOS_Lab/iot_link/network/lwm2m/wakaama_lwm2m/core\internals.h **** #include <stdbool.h>
  98:C:/Users/dtjld/Desktop/AIoT_software/LiteOS_Lab_overseas/LiteOS_Lab/iot_link/network/lwm2m/wakaama_lwm2m/core\internals.h **** 
  99:C:/Users/dtjld/Desktop/AIoT_software/LiteOS_Lab_overseas/LiteOS_Lab/iot_link/network/lwm2m/wakaama_lwm2m/core\internals.h **** #include "er-coap-13/er-coap-13.h"
 100:C:/Users/dtjld/Desktop/AIoT_software/LiteOS_Lab_overseas/LiteOS_Lab/iot_link/network/lwm2m/wakaama_lwm2m/core\internals.h **** #include "connection.h"
 101:C:/Users/dtjld/Desktop/AIoT_software/LiteOS_Lab_overseas/LiteOS_Lab/iot_link/network/lwm2m/wakaama_lwm2m/core\internals.h **** 
 102:C:/Users/dtjld/Desktop/AIoT_software/LiteOS_Lab_overseas/LiteOS_Lab/iot_link/network/lwm2m/wakaama_lwm2m/core\internals.h **** 
 103:C:/Users/dtjld/Desktop/AIoT_software/LiteOS_Lab_overseas/LiteOS_Lab/iot_link/network/lwm2m/wakaama_lwm2m/core\internals.h **** #ifdef LWM2M_WITH_LOGS
 104:C:/Users/dtjld/Desktop/AIoT_software/LiteOS_Lab_overseas/LiteOS_Lab/iot_link/network/lwm2m/wakaama_lwm2m/core\internals.h **** #include <inttypes.h>
 105:C:/Users/dtjld/Desktop/AIoT_software/LiteOS_Lab_overseas/LiteOS_Lab/iot_link/network/lwm2m/wakaama_lwm2m/core\internals.h **** #define LOG(STR) (void)lwm2m_printf("[%d][%s:%d] " STR "\r\n", (uint32_t)lwm2m_gettime(), __func__ 
 106:C:/Users/dtjld/Desktop/AIoT_software/LiteOS_Lab_overseas/LiteOS_Lab/iot_link/network/lwm2m/wakaama_lwm2m/core\internals.h **** #define LOG_ARG(FMT, ...) (void)lwm2m_printf("[%d][%s:%d] " FMT "\r\n", (uint32_t)lwm2m_gettime(), 
 107:C:/Users/dtjld/Desktop/AIoT_software/LiteOS_Lab_overseas/LiteOS_Lab/iot_link/network/lwm2m/wakaama_lwm2m/core\internals.h **** #define LOG_URI(URI)                                                                \
 108:C:/Users/dtjld/Desktop/AIoT_software/LiteOS_Lab_overseas/LiteOS_Lab/iot_link/network/lwm2m/wakaama_lwm2m/core\internals.h **** {                                                                                   \
 109:C:/Users/dtjld/Desktop/AIoT_software/LiteOS_Lab_overseas/LiteOS_Lab/iot_link/network/lwm2m/wakaama_lwm2m/core\internals.h ****     if ((URI) == NULL) (void)lwm2m_printf("[%s:%d] NULL\r\n", __func__ , __LINE__);     \
 110:C:/Users/dtjld/Desktop/AIoT_software/LiteOS_Lab_overseas/LiteOS_Lab/iot_link/network/lwm2m/wakaama_lwm2m/core\internals.h ****     else                                                                            \
 111:C:/Users/dtjld/Desktop/AIoT_software/LiteOS_Lab_overseas/LiteOS_Lab/iot_link/network/lwm2m/wakaama_lwm2m/core\internals.h ****     {                                                                               \
 112:C:/Users/dtjld/Desktop/AIoT_software/LiteOS_Lab_overseas/LiteOS_Lab/iot_link/network/lwm2m/wakaama_lwm2m/core\internals.h ****         (void)lwm2m_printf("[%s:%d] /%d", __func__ , __LINE__ , (URI)->objectId);       \
 113:C:/Users/dtjld/Desktop/AIoT_software/LiteOS_Lab_overseas/LiteOS_Lab/iot_link/network/lwm2m/wakaama_lwm2m/core\internals.h ****         if (LWM2M_URI_IS_SET_INSTANCE(URI)) (void)lwm2m_printf("/%d", (URI)->instanceId); \
 114:C:/Users/dtjld/Desktop/AIoT_software/LiteOS_Lab_overseas/LiteOS_Lab/iot_link/network/lwm2m/wakaama_lwm2m/core\internals.h ****         if (LWM2M_URI_IS_SET_RESOURCE(URI)) (void)lwm2m_printf("/%d", (URI)->resourceId); \
 115:C:/Users/dtjld/Desktop/AIoT_software/LiteOS_Lab_overseas/LiteOS_Lab/iot_link/network/lwm2m/wakaama_lwm2m/core\internals.h ****         (void)lwm2m_printf("\r\n");                                                       \
 116:C:/Users/dtjld/Desktop/AIoT_software/LiteOS_Lab_overseas/LiteOS_Lab/iot_link/network/lwm2m/wakaama_lwm2m/core\internals.h ****     }                                                                               \
 117:C:/Users/dtjld/Desktop/AIoT_software/LiteOS_Lab_overseas/LiteOS_Lab/iot_link/network/lwm2m/wakaama_lwm2m/core\internals.h **** }
 118:C:/Users/dtjld/Desktop/AIoT_software/LiteOS_Lab_overseas/LiteOS_Lab/iot_link/network/lwm2m/wakaama_lwm2m/core\internals.h **** #define UNUSEX(x)
 119:C:/Users/dtjld/Desktop/AIoT_software/LiteOS_Lab_overseas/LiteOS_Lab/iot_link/network/lwm2m/wakaama_lwm2m/core\internals.h **** #define STR_STATUS(S)                                           \
 120:C:/Users/dtjld/Desktop/AIoT_software/LiteOS_Lab_overseas/LiteOS_Lab/iot_link/network/lwm2m/wakaama_lwm2m/core\internals.h **** ((S) == STATE_DEREGISTERED ? "STATE_DEREGISTERED" :             \
 121:C:/Users/dtjld/Desktop/AIoT_software/LiteOS_Lab_overseas/LiteOS_Lab/iot_link/network/lwm2m/wakaama_lwm2m/core\internals.h **** ((S) == STATE_REG_PENDING ? "STATE_REG_PENDING" :               \
 122:C:/Users/dtjld/Desktop/AIoT_software/LiteOS_Lab_overseas/LiteOS_Lab/iot_link/network/lwm2m/wakaama_lwm2m/core\internals.h **** ((S) == STATE_REGISTERED ? "STATE_REGISTERED" :                 \
 123:C:/Users/dtjld/Desktop/AIoT_software/LiteOS_Lab_overseas/LiteOS_Lab/iot_link/network/lwm2m/wakaama_lwm2m/core\internals.h **** ((S) == STATE_REG_FAILED ? "STATE_REG_FAILED" :                 \
 124:C:/Users/dtjld/Desktop/AIoT_software/LiteOS_Lab_overseas/LiteOS_Lab/iot_link/network/lwm2m/wakaama_lwm2m/core\internals.h **** ((S) == STATE_REG_UPDATE_PENDING ? "STATE_REG_UPDATE_PENDING" : \
 125:C:/Users/dtjld/Desktop/AIoT_software/LiteOS_Lab_overseas/LiteOS_Lab/iot_link/network/lwm2m/wakaama_lwm2m/core\internals.h **** ((S) == STATE_REG_UPDATE_NEEDED ? "STATE_REG_UPDATE_NEEDED" :   \
 126:C:/Users/dtjld/Desktop/AIoT_software/LiteOS_Lab_overseas/LiteOS_Lab/iot_link/network/lwm2m/wakaama_lwm2m/core\internals.h **** ((S) == STATE_REG_FULL_UPDATE_NEEDED ? "STATE_REG_FULL_UPDATE_NEEDED" :   \
 127:C:/Users/dtjld/Desktop/AIoT_software/LiteOS_Lab_overseas/LiteOS_Lab/iot_link/network/lwm2m/wakaama_lwm2m/core\internals.h **** ((S) == STATE_DEREG_PENDING ? "STATE_DEREG_PENDING" :           \
 128:C:/Users/dtjld/Desktop/AIoT_software/LiteOS_Lab_overseas/LiteOS_Lab/iot_link/network/lwm2m/wakaama_lwm2m/core\internals.h **** ((S) == STATE_BS_HOLD_OFF ? "STATE_BS_HOLD_OFF" :               \
 129:C:/Users/dtjld/Desktop/AIoT_software/LiteOS_Lab_overseas/LiteOS_Lab/iot_link/network/lwm2m/wakaama_lwm2m/core\internals.h **** ((S) == STATE_BS_INITIATED ? "STATE_BS_INITIATED" :             \
 130:C:/Users/dtjld/Desktop/AIoT_software/LiteOS_Lab_overseas/LiteOS_Lab/iot_link/network/lwm2m/wakaama_lwm2m/core\internals.h **** ((S) == STATE_BS_PENDING ? "STATE_BS_PENDING" :                 \
 131:C:/Users/dtjld/Desktop/AIoT_software/LiteOS_Lab_overseas/LiteOS_Lab/iot_link/network/lwm2m/wakaama_lwm2m/core\internals.h **** ((S) == STATE_BS_FINISHED ? "STATE_BS_FINISHED" :               \
 132:C:/Users/dtjld/Desktop/AIoT_software/LiteOS_Lab_overseas/LiteOS_Lab/iot_link/network/lwm2m/wakaama_lwm2m/core\internals.h **** ((S) == STATE_BS_FINISHING ? "STATE_BS_FINISHING" :             \
 133:C:/Users/dtjld/Desktop/AIoT_software/LiteOS_Lab_overseas/LiteOS_Lab/iot_link/network/lwm2m/wakaama_lwm2m/core\internals.h **** ((S) == STATE_BS_FAILING ? "STATE_BS_FAILING" :                 \
 134:C:/Users/dtjld/Desktop/AIoT_software/LiteOS_Lab_overseas/LiteOS_Lab/iot_link/network/lwm2m/wakaama_lwm2m/core\internals.h **** ((S) == STATE_BS_FAILED ? "STATE_BS_FAILED" :                   \
 135:C:/Users/dtjld/Desktop/AIoT_software/LiteOS_Lab_overseas/LiteOS_Lab/iot_link/network/lwm2m/wakaama_lwm2m/core\internals.h **** "Unknown")))))))))))))))
 136:C:/Users/dtjld/Desktop/AIoT_software/LiteOS_Lab_overseas/LiteOS_Lab/iot_link/network/lwm2m/wakaama_lwm2m/core\internals.h **** #define STR_MEDIA_TYPE(M)                                \
 137:C:/Users/dtjld/Desktop/AIoT_software/LiteOS_Lab_overseas/LiteOS_Lab/iot_link/network/lwm2m/wakaama_lwm2m/core\internals.h **** ((M) == LWM2M_CONTENT_TEXT ? "LWM2M_CONTENT_TEXT" :      \
 138:C:/Users/dtjld/Desktop/AIoT_software/LiteOS_Lab_overseas/LiteOS_Lab/iot_link/network/lwm2m/wakaama_lwm2m/core\internals.h **** ((M) == LWM2M_CONTENT_LINK ? "LWM2M_CONTENT_LINK" :      \
 139:C:/Users/dtjld/Desktop/AIoT_software/LiteOS_Lab_overseas/LiteOS_Lab/iot_link/network/lwm2m/wakaama_lwm2m/core\internals.h **** ((M) == LWM2M_CONTENT_OPAQUE ? "LWM2M_CONTENT_OPAQUE" :  \
 140:C:/Users/dtjld/Desktop/AIoT_software/LiteOS_Lab_overseas/LiteOS_Lab/iot_link/network/lwm2m/wakaama_lwm2m/core\internals.h **** ((M) == LWM2M_CONTENT_TLV ? "LWM2M_CONTENT_TLV" :        \
 141:C:/Users/dtjld/Desktop/AIoT_software/LiteOS_Lab_overseas/LiteOS_Lab/iot_link/network/lwm2m/wakaama_lwm2m/core\internals.h **** ((M) == LWM2M_CONTENT_JSON ? "LWM2M_CONTENT_JSON" :      \
 142:C:/Users/dtjld/Desktop/AIoT_software/LiteOS_Lab_overseas/LiteOS_Lab/iot_link/network/lwm2m/wakaama_lwm2m/core\internals.h **** "Unknown")))))
 143:C:/Users/dtjld/Desktop/AIoT_software/LiteOS_Lab_overseas/LiteOS_Lab/iot_link/network/lwm2m/wakaama_lwm2m/core\internals.h **** #define STR_STATE(S)                                \
 144:C:/Users/dtjld/Desktop/AIoT_software/LiteOS_Lab_overseas/LiteOS_Lab/iot_link/network/lwm2m/wakaama_lwm2m/core\internals.h **** ((S) == STATE_INITIAL ? "STATE_INITIAL" :      \
 145:C:/Users/dtjld/Desktop/AIoT_software/LiteOS_Lab_overseas/LiteOS_Lab/iot_link/network/lwm2m/wakaama_lwm2m/core\internals.h **** ((S) == STATE_BOOTSTRAP_REQUIRED ? "STATE_BOOTSTRAP_REQUIRED" :      \
 146:C:/Users/dtjld/Desktop/AIoT_software/LiteOS_Lab_overseas/LiteOS_Lab/iot_link/network/lwm2m/wakaama_lwm2m/core\internals.h **** ((S) == STATE_BOOTSTRAPPING ? "STATE_BOOTSTRAPPING" :  \
ARM GAS  C:\Users\dtjld\AppData\Local\Temp\ccRVA30A.s 			page 4


 147:C:/Users/dtjld/Desktop/AIoT_software/LiteOS_Lab_overseas/LiteOS_Lab/iot_link/network/lwm2m/wakaama_lwm2m/core\internals.h **** ((S) == STATE_REGISTER_REQUIRED ? "STATE_REGISTER_REQUIRED" :        \
 148:C:/Users/dtjld/Desktop/AIoT_software/LiteOS_Lab_overseas/LiteOS_Lab/iot_link/network/lwm2m/wakaama_lwm2m/core\internals.h **** ((S) == STATE_REGISTERING ? "STATE_REGISTERING" :      \
 149:C:/Users/dtjld/Desktop/AIoT_software/LiteOS_Lab_overseas/LiteOS_Lab/iot_link/network/lwm2m/wakaama_lwm2m/core\internals.h **** ((S) == STATE_READY ? "STATE_READY" :      \
 150:C:/Users/dtjld/Desktop/AIoT_software/LiteOS_Lab_overseas/LiteOS_Lab/iot_link/network/lwm2m/wakaama_lwm2m/core\internals.h **** "Unknown"))))))
 151:C:/Users/dtjld/Desktop/AIoT_software/LiteOS_Lab_overseas/LiteOS_Lab/iot_link/network/lwm2m/wakaama_lwm2m/core\internals.h **** #else
 152:C:/Users/dtjld/Desktop/AIoT_software/LiteOS_Lab_overseas/LiteOS_Lab/iot_link/network/lwm2m/wakaama_lwm2m/core\internals.h **** #define UNUSEX(x) (x)=(x)
 153:C:/Users/dtjld/Desktop/AIoT_software/LiteOS_Lab_overseas/LiteOS_Lab/iot_link/network/lwm2m/wakaama_lwm2m/core\internals.h **** #define LOG_ARG(FMT, ...)
 154:C:/Users/dtjld/Desktop/AIoT_software/LiteOS_Lab_overseas/LiteOS_Lab/iot_link/network/lwm2m/wakaama_lwm2m/core\internals.h **** #define LOG(STR)
 155:C:/Users/dtjld/Desktop/AIoT_software/LiteOS_Lab_overseas/LiteOS_Lab/iot_link/network/lwm2m/wakaama_lwm2m/core\internals.h **** #define LOG_URI(URI)
 156:C:/Users/dtjld/Desktop/AIoT_software/LiteOS_Lab_overseas/LiteOS_Lab/iot_link/network/lwm2m/wakaama_lwm2m/core\internals.h **** #endif
 157:C:/Users/dtjld/Desktop/AIoT_software/LiteOS_Lab_overseas/LiteOS_Lab/iot_link/network/lwm2m/wakaama_lwm2m/core\internals.h **** 
 158:C:/Users/dtjld/Desktop/AIoT_software/LiteOS_Lab_overseas/LiteOS_Lab/iot_link/network/lwm2m/wakaama_lwm2m/core\internals.h **** #define LWM2M_DEFAULT_LIFETIME  86400
 159:C:/Users/dtjld/Desktop/AIoT_software/LiteOS_Lab_overseas/LiteOS_Lab/iot_link/network/lwm2m/wakaama_lwm2m/core\internals.h **** 
 160:C:/Users/dtjld/Desktop/AIoT_software/LiteOS_Lab_overseas/LiteOS_Lab/iot_link/network/lwm2m/wakaama_lwm2m/core\internals.h **** #ifdef LWM2M_SUPPORT_JSON
 161:C:/Users/dtjld/Desktop/AIoT_software/LiteOS_Lab_overseas/LiteOS_Lab/iot_link/network/lwm2m/wakaama_lwm2m/core\internals.h **** #define REG_LWM2M_RESOURCE_TYPE     ">;rt=\"oma.lwm2m\";ct=11543,"
 162:C:/Users/dtjld/Desktop/AIoT_software/LiteOS_Lab_overseas/LiteOS_Lab/iot_link/network/lwm2m/wakaama_lwm2m/core\internals.h **** #define REG_LWM2M_RESOURCE_TYPE_LEN 25
 163:C:/Users/dtjld/Desktop/AIoT_software/LiteOS_Lab_overseas/LiteOS_Lab/iot_link/network/lwm2m/wakaama_lwm2m/core\internals.h **** #else
 164:C:/Users/dtjld/Desktop/AIoT_software/LiteOS_Lab_overseas/LiteOS_Lab/iot_link/network/lwm2m/wakaama_lwm2m/core\internals.h **** #define REG_LWM2M_RESOURCE_TYPE     ">;rt=\"oma.lwm2m\","
 165:C:/Users/dtjld/Desktop/AIoT_software/LiteOS_Lab_overseas/LiteOS_Lab/iot_link/network/lwm2m/wakaama_lwm2m/core\internals.h **** #define REG_LWM2M_RESOURCE_TYPE_LEN 17
 166:C:/Users/dtjld/Desktop/AIoT_software/LiteOS_Lab_overseas/LiteOS_Lab/iot_link/network/lwm2m/wakaama_lwm2m/core\internals.h **** #endif
 167:C:/Users/dtjld/Desktop/AIoT_software/LiteOS_Lab_overseas/LiteOS_Lab/iot_link/network/lwm2m/wakaama_lwm2m/core\internals.h **** #define REG_START           "<"
 168:C:/Users/dtjld/Desktop/AIoT_software/LiteOS_Lab_overseas/LiteOS_Lab/iot_link/network/lwm2m/wakaama_lwm2m/core\internals.h **** #define REG_DEFAULT_PATH    "/"
 169:C:/Users/dtjld/Desktop/AIoT_software/LiteOS_Lab_overseas/LiteOS_Lab/iot_link/network/lwm2m/wakaama_lwm2m/core\internals.h **** 
 170:C:/Users/dtjld/Desktop/AIoT_software/LiteOS_Lab_overseas/LiteOS_Lab/iot_link/network/lwm2m/wakaama_lwm2m/core\internals.h **** #define REG_OBJECT_MIN_LEN  5   // "</n>,"
 171:C:/Users/dtjld/Desktop/AIoT_software/LiteOS_Lab_overseas/LiteOS_Lab/iot_link/network/lwm2m/wakaama_lwm2m/core\internals.h **** #define REG_PATH_END        ">,"
 172:C:/Users/dtjld/Desktop/AIoT_software/LiteOS_Lab_overseas/LiteOS_Lab/iot_link/network/lwm2m/wakaama_lwm2m/core\internals.h **** #define REG_PATH_SEPARATOR  "/"
 173:C:/Users/dtjld/Desktop/AIoT_software/LiteOS_Lab_overseas/LiteOS_Lab/iot_link/network/lwm2m/wakaama_lwm2m/core\internals.h **** 
 174:C:/Users/dtjld/Desktop/AIoT_software/LiteOS_Lab_overseas/LiteOS_Lab/iot_link/network/lwm2m/wakaama_lwm2m/core\internals.h **** #define REG_OBJECT_PATH             "<%s/%hu>,"
 175:C:/Users/dtjld/Desktop/AIoT_software/LiteOS_Lab_overseas/LiteOS_Lab/iot_link/network/lwm2m/wakaama_lwm2m/core\internals.h **** #define REG_OBJECT_INSTANCE_PATH    "<%s/%hu/%hu>,"
 176:C:/Users/dtjld/Desktop/AIoT_software/LiteOS_Lab_overseas/LiteOS_Lab/iot_link/network/lwm2m/wakaama_lwm2m/core\internals.h **** 
 177:C:/Users/dtjld/Desktop/AIoT_software/LiteOS_Lab_overseas/LiteOS_Lab/iot_link/network/lwm2m/wakaama_lwm2m/core\internals.h **** #define URI_REGISTRATION_SEGMENT        "rd"
 178:C:/Users/dtjld/Desktop/AIoT_software/LiteOS_Lab_overseas/LiteOS_Lab/iot_link/network/lwm2m/wakaama_lwm2m/core\internals.h **** #define URI_REGISTRATION_SEGMENT_LEN    2
 179:C:/Users/dtjld/Desktop/AIoT_software/LiteOS_Lab_overseas/LiteOS_Lab/iot_link/network/lwm2m/wakaama_lwm2m/core\internals.h **** #define URI_BOOTSTRAP_SEGMENT           "bs"
 180:C:/Users/dtjld/Desktop/AIoT_software/LiteOS_Lab_overseas/LiteOS_Lab/iot_link/network/lwm2m/wakaama_lwm2m/core\internals.h **** #define URI_BOOTSTRAP_SEGMENT_LEN       2
 181:C:/Users/dtjld/Desktop/AIoT_software/LiteOS_Lab_overseas/LiteOS_Lab/iot_link/network/lwm2m/wakaama_lwm2m/core\internals.h **** 
 182:C:/Users/dtjld/Desktop/AIoT_software/LiteOS_Lab_overseas/LiteOS_Lab/iot_link/network/lwm2m/wakaama_lwm2m/core\internals.h **** #define QUERY_STARTER       "?"
 183:C:/Users/dtjld/Desktop/AIoT_software/LiteOS_Lab_overseas/LiteOS_Lab/iot_link/network/lwm2m/wakaama_lwm2m/core\internals.h **** #define QUERY_NAME          "ep="
 184:C:/Users/dtjld/Desktop/AIoT_software/LiteOS_Lab_overseas/LiteOS_Lab/iot_link/network/lwm2m/wakaama_lwm2m/core\internals.h **** #define QUERY_NAME_LEN      3       // strlen("ep=")
 185:C:/Users/dtjld/Desktop/AIoT_software/LiteOS_Lab_overseas/LiteOS_Lab/iot_link/network/lwm2m/wakaama_lwm2m/core\internals.h **** #define QUERY_SMS           "sms="
 186:C:/Users/dtjld/Desktop/AIoT_software/LiteOS_Lab_overseas/LiteOS_Lab/iot_link/network/lwm2m/wakaama_lwm2m/core\internals.h **** #define QUERY_SMS_LEN       4
 187:C:/Users/dtjld/Desktop/AIoT_software/LiteOS_Lab_overseas/LiteOS_Lab/iot_link/network/lwm2m/wakaama_lwm2m/core\internals.h **** #define QUERY_LIFETIME      "lt="
 188:C:/Users/dtjld/Desktop/AIoT_software/LiteOS_Lab_overseas/LiteOS_Lab/iot_link/network/lwm2m/wakaama_lwm2m/core\internals.h **** #define QUERY_LIFETIME_LEN  3
 189:C:/Users/dtjld/Desktop/AIoT_software/LiteOS_Lab_overseas/LiteOS_Lab/iot_link/network/lwm2m/wakaama_lwm2m/core\internals.h **** #define QUERY_VERSION       "lwm2m="
 190:C:/Users/dtjld/Desktop/AIoT_software/LiteOS_Lab_overseas/LiteOS_Lab/iot_link/network/lwm2m/wakaama_lwm2m/core\internals.h **** #define QUERY_VERSION_LEN   6
 191:C:/Users/dtjld/Desktop/AIoT_software/LiteOS_Lab_overseas/LiteOS_Lab/iot_link/network/lwm2m/wakaama_lwm2m/core\internals.h **** #define QUERY_BINDING       "b="
 192:C:/Users/dtjld/Desktop/AIoT_software/LiteOS_Lab_overseas/LiteOS_Lab/iot_link/network/lwm2m/wakaama_lwm2m/core\internals.h **** #define QUERY_BINDING_LEN   2
 193:C:/Users/dtjld/Desktop/AIoT_software/LiteOS_Lab_overseas/LiteOS_Lab/iot_link/network/lwm2m/wakaama_lwm2m/core\internals.h **** #define QUERY_DELIMITER     "&"
 194:C:/Users/dtjld/Desktop/AIoT_software/LiteOS_Lab_overseas/LiteOS_Lab/iot_link/network/lwm2m/wakaama_lwm2m/core\internals.h **** 
 195:C:/Users/dtjld/Desktop/AIoT_software/LiteOS_Lab_overseas/LiteOS_Lab/iot_link/network/lwm2m/wakaama_lwm2m/core\internals.h **** #define LWM2M_VERSION      "1.0"
 196:C:/Users/dtjld/Desktop/AIoT_software/LiteOS_Lab_overseas/LiteOS_Lab/iot_link/network/lwm2m/wakaama_lwm2m/core\internals.h **** #define LWM2M_VERSION_LEN  3
 197:C:/Users/dtjld/Desktop/AIoT_software/LiteOS_Lab_overseas/LiteOS_Lab/iot_link/network/lwm2m/wakaama_lwm2m/core\internals.h **** 
 198:C:/Users/dtjld/Desktop/AIoT_software/LiteOS_Lab_overseas/LiteOS_Lab/iot_link/network/lwm2m/wakaama_lwm2m/core\internals.h **** #define QUERY_VERSION_FULL      QUERY_VERSION LWM2M_VERSION
 199:C:/Users/dtjld/Desktop/AIoT_software/LiteOS_Lab_overseas/LiteOS_Lab/iot_link/network/lwm2m/wakaama_lwm2m/core\internals.h **** #define QUERY_VERSION_FULL_LEN  QUERY_VERSION_LEN+LWM2M_VERSION_LEN
 200:C:/Users/dtjld/Desktop/AIoT_software/LiteOS_Lab_overseas/LiteOS_Lab/iot_link/network/lwm2m/wakaama_lwm2m/core\internals.h **** 
 201:C:/Users/dtjld/Desktop/AIoT_software/LiteOS_Lab_overseas/LiteOS_Lab/iot_link/network/lwm2m/wakaama_lwm2m/core\internals.h **** #define REG_URI_START       '<'
 202:C:/Users/dtjld/Desktop/AIoT_software/LiteOS_Lab_overseas/LiteOS_Lab/iot_link/network/lwm2m/wakaama_lwm2m/core\internals.h **** #define REG_URI_END         '>'
 203:C:/Users/dtjld/Desktop/AIoT_software/LiteOS_Lab_overseas/LiteOS_Lab/iot_link/network/lwm2m/wakaama_lwm2m/core\internals.h **** #define REG_DELIMITER       ','
ARM GAS  C:\Users\dtjld\AppData\Local\Temp\ccRVA30A.s 			page 5


 204:C:/Users/dtjld/Desktop/AIoT_software/LiteOS_Lab_overseas/LiteOS_Lab/iot_link/network/lwm2m/wakaama_lwm2m/core\internals.h **** #define REG_ATTR_SEPARATOR  ';'
 205:C:/Users/dtjld/Desktop/AIoT_software/LiteOS_Lab_overseas/LiteOS_Lab/iot_link/network/lwm2m/wakaama_lwm2m/core\internals.h **** #define REG_ATTR_EQUALS     '='
 206:C:/Users/dtjld/Desktop/AIoT_software/LiteOS_Lab_overseas/LiteOS_Lab/iot_link/network/lwm2m/wakaama_lwm2m/core\internals.h **** #define REG_ATTR_TYPE_KEY           "rt"
 207:C:/Users/dtjld/Desktop/AIoT_software/LiteOS_Lab_overseas/LiteOS_Lab/iot_link/network/lwm2m/wakaama_lwm2m/core\internals.h **** #define REG_ATTR_TYPE_KEY_LEN       2
 208:C:/Users/dtjld/Desktop/AIoT_software/LiteOS_Lab_overseas/LiteOS_Lab/iot_link/network/lwm2m/wakaama_lwm2m/core\internals.h **** #define REG_ATTR_TYPE_VALUE         "\"oma.lwm2m\""
 209:C:/Users/dtjld/Desktop/AIoT_software/LiteOS_Lab_overseas/LiteOS_Lab/iot_link/network/lwm2m/wakaama_lwm2m/core\internals.h **** #define REG_ATTR_TYPE_VALUE_LEN     11
 210:C:/Users/dtjld/Desktop/AIoT_software/LiteOS_Lab_overseas/LiteOS_Lab/iot_link/network/lwm2m/wakaama_lwm2m/core\internals.h **** #define REG_ATTR_CONTENT_KEY        "ct"
 211:C:/Users/dtjld/Desktop/AIoT_software/LiteOS_Lab_overseas/LiteOS_Lab/iot_link/network/lwm2m/wakaama_lwm2m/core\internals.h **** #define REG_ATTR_CONTENT_KEY_LEN    2
 212:C:/Users/dtjld/Desktop/AIoT_software/LiteOS_Lab_overseas/LiteOS_Lab/iot_link/network/lwm2m/wakaama_lwm2m/core\internals.h **** #define REG_ATTR_CONTENT_JSON       "11543"   // Temporary value
 213:C:/Users/dtjld/Desktop/AIoT_software/LiteOS_Lab_overseas/LiteOS_Lab/iot_link/network/lwm2m/wakaama_lwm2m/core\internals.h **** #define REG_ATTR_CONTENT_JSON_LEN   5
 214:C:/Users/dtjld/Desktop/AIoT_software/LiteOS_Lab_overseas/LiteOS_Lab/iot_link/network/lwm2m/wakaama_lwm2m/core\internals.h **** 
 215:C:/Users/dtjld/Desktop/AIoT_software/LiteOS_Lab_overseas/LiteOS_Lab/iot_link/network/lwm2m/wakaama_lwm2m/core\internals.h **** #define ATTR_SERVER_ID_STR       "ep="
 216:C:/Users/dtjld/Desktop/AIoT_software/LiteOS_Lab_overseas/LiteOS_Lab/iot_link/network/lwm2m/wakaama_lwm2m/core\internals.h **** #define ATTR_SERVER_ID_LEN       3
 217:C:/Users/dtjld/Desktop/AIoT_software/LiteOS_Lab_overseas/LiteOS_Lab/iot_link/network/lwm2m/wakaama_lwm2m/core\internals.h **** #define ATTR_MIN_PERIOD_STR      "pmin="
 218:C:/Users/dtjld/Desktop/AIoT_software/LiteOS_Lab_overseas/LiteOS_Lab/iot_link/network/lwm2m/wakaama_lwm2m/core\internals.h **** #define ATTR_MIN_PERIOD_LEN      5
 219:C:/Users/dtjld/Desktop/AIoT_software/LiteOS_Lab_overseas/LiteOS_Lab/iot_link/network/lwm2m/wakaama_lwm2m/core\internals.h **** #define ATTR_MAX_PERIOD_STR      "pmax="
 220:C:/Users/dtjld/Desktop/AIoT_software/LiteOS_Lab_overseas/LiteOS_Lab/iot_link/network/lwm2m/wakaama_lwm2m/core\internals.h **** #define ATTR_MAX_PERIOD_LEN      5
 221:C:/Users/dtjld/Desktop/AIoT_software/LiteOS_Lab_overseas/LiteOS_Lab/iot_link/network/lwm2m/wakaama_lwm2m/core\internals.h **** #define ATTR_GREATER_THAN_STR    "gt="
 222:C:/Users/dtjld/Desktop/AIoT_software/LiteOS_Lab_overseas/LiteOS_Lab/iot_link/network/lwm2m/wakaama_lwm2m/core\internals.h **** #define ATTR_GREATER_THAN_LEN    3
 223:C:/Users/dtjld/Desktop/AIoT_software/LiteOS_Lab_overseas/LiteOS_Lab/iot_link/network/lwm2m/wakaama_lwm2m/core\internals.h **** #define ATTR_LESS_THAN_STR       "lt="
 224:C:/Users/dtjld/Desktop/AIoT_software/LiteOS_Lab_overseas/LiteOS_Lab/iot_link/network/lwm2m/wakaama_lwm2m/core\internals.h **** #define ATTR_LESS_THAN_LEN       3
 225:C:/Users/dtjld/Desktop/AIoT_software/LiteOS_Lab_overseas/LiteOS_Lab/iot_link/network/lwm2m/wakaama_lwm2m/core\internals.h **** #define ATTR_STEP_STR            "st="
 226:C:/Users/dtjld/Desktop/AIoT_software/LiteOS_Lab_overseas/LiteOS_Lab/iot_link/network/lwm2m/wakaama_lwm2m/core\internals.h **** #define ATTR_STEP_LEN            3
 227:C:/Users/dtjld/Desktop/AIoT_software/LiteOS_Lab_overseas/LiteOS_Lab/iot_link/network/lwm2m/wakaama_lwm2m/core\internals.h **** #define ATTR_DIMENSION_STR       "dim="
 228:C:/Users/dtjld/Desktop/AIoT_software/LiteOS_Lab_overseas/LiteOS_Lab/iot_link/network/lwm2m/wakaama_lwm2m/core\internals.h **** #define ATTR_DIMENSION_LEN       4
 229:C:/Users/dtjld/Desktop/AIoT_software/LiteOS_Lab_overseas/LiteOS_Lab/iot_link/network/lwm2m/wakaama_lwm2m/core\internals.h **** 
 230:C:/Users/dtjld/Desktop/AIoT_software/LiteOS_Lab_overseas/LiteOS_Lab/iot_link/network/lwm2m/wakaama_lwm2m/core\internals.h **** #define URI_MAX_STRING_LEN    18      // /65535/65535/65535
 231:C:/Users/dtjld/Desktop/AIoT_software/LiteOS_Lab_overseas/LiteOS_Lab/iot_link/network/lwm2m/wakaama_lwm2m/core\internals.h **** #define _PRV_64BIT_BUFFER_SIZE 8
 232:C:/Users/dtjld/Desktop/AIoT_software/LiteOS_Lab_overseas/LiteOS_Lab/iot_link/network/lwm2m/wakaama_lwm2m/core\internals.h **** 
 233:C:/Users/dtjld/Desktop/AIoT_software/LiteOS_Lab_overseas/LiteOS_Lab/iot_link/network/lwm2m/wakaama_lwm2m/core\internals.h **** #define LINK_ITEM_START             "<"
 234:C:/Users/dtjld/Desktop/AIoT_software/LiteOS_Lab_overseas/LiteOS_Lab/iot_link/network/lwm2m/wakaama_lwm2m/core\internals.h **** #define LINK_ITEM_START_SIZE        1
 235:C:/Users/dtjld/Desktop/AIoT_software/LiteOS_Lab_overseas/LiteOS_Lab/iot_link/network/lwm2m/wakaama_lwm2m/core\internals.h **** #define LINK_ITEM_END               ">,"
 236:C:/Users/dtjld/Desktop/AIoT_software/LiteOS_Lab_overseas/LiteOS_Lab/iot_link/network/lwm2m/wakaama_lwm2m/core\internals.h **** #define LINK_ITEM_END_SIZE          2
 237:C:/Users/dtjld/Desktop/AIoT_software/LiteOS_Lab_overseas/LiteOS_Lab/iot_link/network/lwm2m/wakaama_lwm2m/core\internals.h **** #define LINK_ITEM_DIM_START         ">;dim="
 238:C:/Users/dtjld/Desktop/AIoT_software/LiteOS_Lab_overseas/LiteOS_Lab/iot_link/network/lwm2m/wakaama_lwm2m/core\internals.h **** #define LINK_ITEM_DIM_START_SIZE    6
 239:C:/Users/dtjld/Desktop/AIoT_software/LiteOS_Lab_overseas/LiteOS_Lab/iot_link/network/lwm2m/wakaama_lwm2m/core\internals.h **** #define LINK_ITEM_ATTR_END          ","
 240:C:/Users/dtjld/Desktop/AIoT_software/LiteOS_Lab_overseas/LiteOS_Lab/iot_link/network/lwm2m/wakaama_lwm2m/core\internals.h **** #define LINK_ITEM_ATTR_END_SIZE     1
 241:C:/Users/dtjld/Desktop/AIoT_software/LiteOS_Lab_overseas/LiteOS_Lab/iot_link/network/lwm2m/wakaama_lwm2m/core\internals.h **** #define LINK_URI_SEPARATOR          "/"
 242:C:/Users/dtjld/Desktop/AIoT_software/LiteOS_Lab_overseas/LiteOS_Lab/iot_link/network/lwm2m/wakaama_lwm2m/core\internals.h **** #define LINK_URI_SEPARATOR_SIZE     1
 243:C:/Users/dtjld/Desktop/AIoT_software/LiteOS_Lab_overseas/LiteOS_Lab/iot_link/network/lwm2m/wakaama_lwm2m/core\internals.h **** #define LINK_ATTR_SEPARATOR         ";"
 244:C:/Users/dtjld/Desktop/AIoT_software/LiteOS_Lab_overseas/LiteOS_Lab/iot_link/network/lwm2m/wakaama_lwm2m/core\internals.h **** #define LINK_ATTR_SEPARATOR_SIZE    1
 245:C:/Users/dtjld/Desktop/AIoT_software/LiteOS_Lab_overseas/LiteOS_Lab/iot_link/network/lwm2m/wakaama_lwm2m/core\internals.h **** 
 246:C:/Users/dtjld/Desktop/AIoT_software/LiteOS_Lab_overseas/LiteOS_Lab/iot_link/network/lwm2m/wakaama_lwm2m/core\internals.h **** #define ATTR_FLAG_NUMERIC (uint8_t)(LWM2M_ATTR_FLAG_LESS_THAN | LWM2M_ATTR_FLAG_GREATER_THAN | LWM2
 247:C:/Users/dtjld/Desktop/AIoT_software/LiteOS_Lab_overseas/LiteOS_Lab/iot_link/network/lwm2m/wakaama_lwm2m/core\internals.h **** 
 248:C:/Users/dtjld/Desktop/AIoT_software/LiteOS_Lab_overseas/LiteOS_Lab/iot_link/network/lwm2m/wakaama_lwm2m/core\internals.h **** #define LWM2M_URI_FLAG_DM           (uint8_t)0x00
 249:C:/Users/dtjld/Desktop/AIoT_software/LiteOS_Lab_overseas/LiteOS_Lab/iot_link/network/lwm2m/wakaama_lwm2m/core\internals.h **** #define LWM2M_URI_FLAG_DELETE_ALL   (uint8_t)0x10
 250:C:/Users/dtjld/Desktop/AIoT_software/LiteOS_Lab_overseas/LiteOS_Lab/iot_link/network/lwm2m/wakaama_lwm2m/core\internals.h **** #define LWM2M_URI_FLAG_REGISTRATION (uint8_t)0x20
 251:C:/Users/dtjld/Desktop/AIoT_software/LiteOS_Lab_overseas/LiteOS_Lab/iot_link/network/lwm2m/wakaama_lwm2m/core\internals.h **** #define LWM2M_URI_FLAG_BOOTSTRAP    (uint8_t)0x40
 252:C:/Users/dtjld/Desktop/AIoT_software/LiteOS_Lab_overseas/LiteOS_Lab/iot_link/network/lwm2m/wakaama_lwm2m/core\internals.h **** 
 253:C:/Users/dtjld/Desktop/AIoT_software/LiteOS_Lab_overseas/LiteOS_Lab/iot_link/network/lwm2m/wakaama_lwm2m/core\internals.h **** #define LWM2M_URI_MASK_TYPE (uint8_t)0x70
 254:C:/Users/dtjld/Desktop/AIoT_software/LiteOS_Lab_overseas/LiteOS_Lab/iot_link/network/lwm2m/wakaama_lwm2m/core\internals.h **** #define LWM2M_URI_MASK_ID   (uint8_t)0x07
 255:C:/Users/dtjld/Desktop/AIoT_software/LiteOS_Lab_overseas/LiteOS_Lab/iot_link/network/lwm2m/wakaama_lwm2m/core\internals.h **** 
 256:C:/Users/dtjld/Desktop/AIoT_software/LiteOS_Lab_overseas/LiteOS_Lab/iot_link/network/lwm2m/wakaama_lwm2m/core\internals.h **** typedef struct
 257:C:/Users/dtjld/Desktop/AIoT_software/LiteOS_Lab_overseas/LiteOS_Lab/iot_link/network/lwm2m/wakaama_lwm2m/core\internals.h **** {
 258:C:/Users/dtjld/Desktop/AIoT_software/LiteOS_Lab_overseas/LiteOS_Lab/iot_link/network/lwm2m/wakaama_lwm2m/core\internals.h ****     uint16_t clientID;
 259:C:/Users/dtjld/Desktop/AIoT_software/LiteOS_Lab_overseas/LiteOS_Lab/iot_link/network/lwm2m/wakaama_lwm2m/core\internals.h ****     lwm2m_uri_t uri;
 260:C:/Users/dtjld/Desktop/AIoT_software/LiteOS_Lab_overseas/LiteOS_Lab/iot_link/network/lwm2m/wakaama_lwm2m/core\internals.h ****     lwm2m_result_callback_t callback;
ARM GAS  C:\Users\dtjld\AppData\Local\Temp\ccRVA30A.s 			page 6


 261:C:/Users/dtjld/Desktop/AIoT_software/LiteOS_Lab_overseas/LiteOS_Lab/iot_link/network/lwm2m/wakaama_lwm2m/core\internals.h ****     void * userData;
 262:C:/Users/dtjld/Desktop/AIoT_software/LiteOS_Lab_overseas/LiteOS_Lab/iot_link/network/lwm2m/wakaama_lwm2m/core\internals.h **** } dm_data_t;
 263:C:/Users/dtjld/Desktop/AIoT_software/LiteOS_Lab_overseas/LiteOS_Lab/iot_link/network/lwm2m/wakaama_lwm2m/core\internals.h **** 
 264:C:/Users/dtjld/Desktop/AIoT_software/LiteOS_Lab_overseas/LiteOS_Lab/iot_link/network/lwm2m/wakaama_lwm2m/core\internals.h **** typedef enum
 265:C:/Users/dtjld/Desktop/AIoT_software/LiteOS_Lab_overseas/LiteOS_Lab/iot_link/network/lwm2m/wakaama_lwm2m/core\internals.h **** {
 266:C:/Users/dtjld/Desktop/AIoT_software/LiteOS_Lab_overseas/LiteOS_Lab/iot_link/network/lwm2m/wakaama_lwm2m/core\internals.h ****     URI_DEPTH_OBJECT,
 267:C:/Users/dtjld/Desktop/AIoT_software/LiteOS_Lab_overseas/LiteOS_Lab/iot_link/network/lwm2m/wakaama_lwm2m/core\internals.h ****     URI_DEPTH_OBJECT_INSTANCE,
 268:C:/Users/dtjld/Desktop/AIoT_software/LiteOS_Lab_overseas/LiteOS_Lab/iot_link/network/lwm2m/wakaama_lwm2m/core\internals.h ****     URI_DEPTH_RESOURCE,
 269:C:/Users/dtjld/Desktop/AIoT_software/LiteOS_Lab_overseas/LiteOS_Lab/iot_link/network/lwm2m/wakaama_lwm2m/core\internals.h ****     URI_DEPTH_RESOURCE_INSTANCE
 270:C:/Users/dtjld/Desktop/AIoT_software/LiteOS_Lab_overseas/LiteOS_Lab/iot_link/network/lwm2m/wakaama_lwm2m/core\internals.h **** } uri_depth_t;
 271:C:/Users/dtjld/Desktop/AIoT_software/LiteOS_Lab_overseas/LiteOS_Lab/iot_link/network/lwm2m/wakaama_lwm2m/core\internals.h **** 
 272:C:/Users/dtjld/Desktop/AIoT_software/LiteOS_Lab_overseas/LiteOS_Lab/iot_link/network/lwm2m/wakaama_lwm2m/core\internals.h **** #ifdef LWM2M_BOOTSTRAP_SERVER_MODE
 273:C:/Users/dtjld/Desktop/AIoT_software/LiteOS_Lab_overseas/LiteOS_Lab/iot_link/network/lwm2m/wakaama_lwm2m/core\internals.h **** typedef struct
 274:C:/Users/dtjld/Desktop/AIoT_software/LiteOS_Lab_overseas/LiteOS_Lab/iot_link/network/lwm2m/wakaama_lwm2m/core\internals.h **** {
 275:C:/Users/dtjld/Desktop/AIoT_software/LiteOS_Lab_overseas/LiteOS_Lab/iot_link/network/lwm2m/wakaama_lwm2m/core\internals.h ****     bool        isUri;
 276:C:/Users/dtjld/Desktop/AIoT_software/LiteOS_Lab_overseas/LiteOS_Lab/iot_link/network/lwm2m/wakaama_lwm2m/core\internals.h ****     lwm2m_uri_t uri;
 277:C:/Users/dtjld/Desktop/AIoT_software/LiteOS_Lab_overseas/LiteOS_Lab/iot_link/network/lwm2m/wakaama_lwm2m/core\internals.h ****     lwm2m_bootstrap_callback_t callback;
 278:C:/Users/dtjld/Desktop/AIoT_software/LiteOS_Lab_overseas/LiteOS_Lab/iot_link/network/lwm2m/wakaama_lwm2m/core\internals.h ****     void *      userData;
 279:C:/Users/dtjld/Desktop/AIoT_software/LiteOS_Lab_overseas/LiteOS_Lab/iot_link/network/lwm2m/wakaama_lwm2m/core\internals.h **** } bs_data_t;
 280:C:/Users/dtjld/Desktop/AIoT_software/LiteOS_Lab_overseas/LiteOS_Lab/iot_link/network/lwm2m/wakaama_lwm2m/core\internals.h **** #endif
 281:C:/Users/dtjld/Desktop/AIoT_software/LiteOS_Lab_overseas/LiteOS_Lab/iot_link/network/lwm2m/wakaama_lwm2m/core\internals.h **** 
 282:C:/Users/dtjld/Desktop/AIoT_software/LiteOS_Lab_overseas/LiteOS_Lab/iot_link/network/lwm2m/wakaama_lwm2m/core\internals.h **** // defined in uri.c
 283:C:/Users/dtjld/Desktop/AIoT_software/LiteOS_Lab_overseas/LiteOS_Lab/iot_link/network/lwm2m/wakaama_lwm2m/core\internals.h **** lwm2m_uri_t * uri_decode(char * altPath, multi_option_t *uriPath);
 284:C:/Users/dtjld/Desktop/AIoT_software/LiteOS_Lab_overseas/LiteOS_Lab/iot_link/network/lwm2m/wakaama_lwm2m/core\internals.h **** int uri_getNumber(uint8_t * uriString, size_t uriLength);
 285:C:/Users/dtjld/Desktop/AIoT_software/LiteOS_Lab_overseas/LiteOS_Lab/iot_link/network/lwm2m/wakaama_lwm2m/core\internals.h **** int uri_toString(lwm2m_uri_t * uriP, uint8_t * buffer, size_t bufferLen, uri_depth_t * depthP);
 286:C:/Users/dtjld/Desktop/AIoT_software/LiteOS_Lab_overseas/LiteOS_Lab/iot_link/network/lwm2m/wakaama_lwm2m/core\internals.h **** 
 287:C:/Users/dtjld/Desktop/AIoT_software/LiteOS_Lab_overseas/LiteOS_Lab/iot_link/network/lwm2m/wakaama_lwm2m/core\internals.h **** // defined in objects.c
 288:C:/Users/dtjld/Desktop/AIoT_software/LiteOS_Lab_overseas/LiteOS_Lab/iot_link/network/lwm2m/wakaama_lwm2m/core\internals.h **** uint8_t object_readData(lwm2m_context_t * contextP, lwm2m_uri_t * uriP, int * sizeP, lwm2m_data_t *
 289:C:/Users/dtjld/Desktop/AIoT_software/LiteOS_Lab_overseas/LiteOS_Lab/iot_link/network/lwm2m/wakaama_lwm2m/core\internals.h **** uint8_t object_read(lwm2m_context_t * contextP, lwm2m_uri_t * uriP, lwm2m_media_type_t * formatP, u
 290:C:/Users/dtjld/Desktop/AIoT_software/LiteOS_Lab_overseas/LiteOS_Lab/iot_link/network/lwm2m/wakaama_lwm2m/core\internals.h **** uint8_t object_write(lwm2m_context_t * contextP, lwm2m_uri_t * uriP, lwm2m_media_type_t format, uin
 291:C:/Users/dtjld/Desktop/AIoT_software/LiteOS_Lab_overseas/LiteOS_Lab/iot_link/network/lwm2m/wakaama_lwm2m/core\internals.h **** uint8_t object_create(lwm2m_context_t * contextP, lwm2m_uri_t * uriP, lwm2m_media_type_t format, ui
 292:C:/Users/dtjld/Desktop/AIoT_software/LiteOS_Lab_overseas/LiteOS_Lab/iot_link/network/lwm2m/wakaama_lwm2m/core\internals.h **** uint8_t object_execute(lwm2m_context_t * contextP, lwm2m_uri_t * uriP, uint8_t * buffer, size_t len
 293:C:/Users/dtjld/Desktop/AIoT_software/LiteOS_Lab_overseas/LiteOS_Lab/iot_link/network/lwm2m/wakaama_lwm2m/core\internals.h **** uint8_t object_delete(lwm2m_context_t * contextP, lwm2m_uri_t * uriP);
 294:C:/Users/dtjld/Desktop/AIoT_software/LiteOS_Lab_overseas/LiteOS_Lab/iot_link/network/lwm2m/wakaama_lwm2m/core\internals.h **** uint8_t object_discover(lwm2m_context_t * contextP, lwm2m_uri_t * uriP, lwm2m_server_t * serverP, u
 295:C:/Users/dtjld/Desktop/AIoT_software/LiteOS_Lab_overseas/LiteOS_Lab/iot_link/network/lwm2m/wakaama_lwm2m/core\internals.h **** uint8_t object_checkReadable(lwm2m_context_t * contextP, lwm2m_uri_t * uriP);
 296:C:/Users/dtjld/Desktop/AIoT_software/LiteOS_Lab_overseas/LiteOS_Lab/iot_link/network/lwm2m/wakaama_lwm2m/core\internals.h **** uint8_t object_checkNumeric(lwm2m_context_t * contextP, lwm2m_uri_t * uriP);
 297:C:/Users/dtjld/Desktop/AIoT_software/LiteOS_Lab_overseas/LiteOS_Lab/iot_link/network/lwm2m/wakaama_lwm2m/core\internals.h **** bool object_isInstanceNew(lwm2m_context_t * contextP, uint16_t objectId, uint16_t instanceId);
 298:C:/Users/dtjld/Desktop/AIoT_software/LiteOS_Lab_overseas/LiteOS_Lab/iot_link/network/lwm2m/wakaama_lwm2m/core\internals.h **** int object_getRegisterPayloadBufferLength(lwm2m_context_t * contextP);
 299:C:/Users/dtjld/Desktop/AIoT_software/LiteOS_Lab_overseas/LiteOS_Lab/iot_link/network/lwm2m/wakaama_lwm2m/core\internals.h **** int object_getRegisterPayload(lwm2m_context_t * contextP, uint8_t * buffer, size_t length);
 300:C:/Users/dtjld/Desktop/AIoT_software/LiteOS_Lab_overseas/LiteOS_Lab/iot_link/network/lwm2m/wakaama_lwm2m/core\internals.h **** int object_getServers(lwm2m_context_t * contextP, bool checkOnly);
 301:C:/Users/dtjld/Desktop/AIoT_software/LiteOS_Lab_overseas/LiteOS_Lab/iot_link/network/lwm2m/wakaama_lwm2m/core\internals.h **** uint8_t object_createInstance(lwm2m_context_t * contextP, lwm2m_uri_t * uriP, lwm2m_data_t * dataP)
 302:C:/Users/dtjld/Desktop/AIoT_software/LiteOS_Lab_overseas/LiteOS_Lab/iot_link/network/lwm2m/wakaama_lwm2m/core\internals.h **** uint8_t object_writeInstance(lwm2m_context_t * contextP, lwm2m_uri_t * uriP, lwm2m_data_t * dataP);
 303:C:/Users/dtjld/Desktop/AIoT_software/LiteOS_Lab_overseas/LiteOS_Lab/iot_link/network/lwm2m/wakaama_lwm2m/core\internals.h **** 
 304:C:/Users/dtjld/Desktop/AIoT_software/LiteOS_Lab_overseas/LiteOS_Lab/iot_link/network/lwm2m/wakaama_lwm2m/core\internals.h **** // defined in transaction.c
 305:C:/Users/dtjld/Desktop/AIoT_software/LiteOS_Lab_overseas/LiteOS_Lab/iot_link/network/lwm2m/wakaama_lwm2m/core\internals.h **** lwm2m_transaction_t * transaction_new(void * sessionH, unsigned char method, char * altPath, lwm2m_
 306:C:/Users/dtjld/Desktop/AIoT_software/LiteOS_Lab_overseas/LiteOS_Lab/iot_link/network/lwm2m/wakaama_lwm2m/core\internals.h **** int transaction_send(lwm2m_context_t * contextP, lwm2m_transaction_t * transacP);
 307:C:/Users/dtjld/Desktop/AIoT_software/LiteOS_Lab_overseas/LiteOS_Lab/iot_link/network/lwm2m/wakaama_lwm2m/core\internals.h **** void transaction_free(lwm2m_transaction_t * transacP);
 308:C:/Users/dtjld/Desktop/AIoT_software/LiteOS_Lab_overseas/LiteOS_Lab/iot_link/network/lwm2m/wakaama_lwm2m/core\internals.h **** void transaction_remove(lwm2m_context_t * contextP, lwm2m_transaction_t * transacP);
 309:C:/Users/dtjld/Desktop/AIoT_software/LiteOS_Lab_overseas/LiteOS_Lab/iot_link/network/lwm2m/wakaama_lwm2m/core\internals.h **** bool transaction_handleResponse(lwm2m_context_t * contextP, void * fromSessionH, coap_packet_t * me
 310:C:/Users/dtjld/Desktop/AIoT_software/LiteOS_Lab_overseas/LiteOS_Lab/iot_link/network/lwm2m/wakaama_lwm2m/core\internals.h **** void transaction_step(lwm2m_context_t * contextP, time_t currentTime, time_t * timeoutP);
 311:C:/Users/dtjld/Desktop/AIoT_software/LiteOS_Lab_overseas/LiteOS_Lab/iot_link/network/lwm2m/wakaama_lwm2m/core\internals.h **** 
 312:C:/Users/dtjld/Desktop/AIoT_software/LiteOS_Lab_overseas/LiteOS_Lab/iot_link/network/lwm2m/wakaama_lwm2m/core\internals.h **** // defined in management.c
 313:C:/Users/dtjld/Desktop/AIoT_software/LiteOS_Lab_overseas/LiteOS_Lab/iot_link/network/lwm2m/wakaama_lwm2m/core\internals.h **** uint8_t dm_handleRequest(lwm2m_context_t * contextP, lwm2m_uri_t * uriP, lwm2m_server_t * serverP, 
 314:C:/Users/dtjld/Desktop/AIoT_software/LiteOS_Lab_overseas/LiteOS_Lab/iot_link/network/lwm2m/wakaama_lwm2m/core\internals.h **** 
 315:C:/Users/dtjld/Desktop/AIoT_software/LiteOS_Lab_overseas/LiteOS_Lab/iot_link/network/lwm2m/wakaama_lwm2m/core\internals.h **** // defined in observe.c
 316:C:/Users/dtjld/Desktop/AIoT_software/LiteOS_Lab_overseas/LiteOS_Lab/iot_link/network/lwm2m/wakaama_lwm2m/core\internals.h **** uint8_t observe_handleRequest(lwm2m_context_t * contextP, lwm2m_uri_t * uriP, lwm2m_server_t * serv
 317:C:/Users/dtjld/Desktop/AIoT_software/LiteOS_Lab_overseas/LiteOS_Lab/iot_link/network/lwm2m/wakaama_lwm2m/core\internals.h **** void observe_cancel(lwm2m_context_t * contextP, uint16_t mid, void * fromSessionH);
ARM GAS  C:\Users\dtjld\AppData\Local\Temp\ccRVA30A.s 			page 7


 318:C:/Users/dtjld/Desktop/AIoT_software/LiteOS_Lab_overseas/LiteOS_Lab/iot_link/network/lwm2m/wakaama_lwm2m/core\internals.h **** uint8_t observe_setParameters(lwm2m_context_t * contextP, lwm2m_uri_t * uriP, lwm2m_server_t * serv
 319:C:/Users/dtjld/Desktop/AIoT_software/LiteOS_Lab_overseas/LiteOS_Lab/iot_link/network/lwm2m/wakaama_lwm2m/core\internals.h **** void observe_step(lwm2m_context_t * contextP, time_t currentTime, time_t * timeoutP);
 320:C:/Users/dtjld/Desktop/AIoT_software/LiteOS_Lab_overseas/LiteOS_Lab/iot_link/network/lwm2m/wakaama_lwm2m/core\internals.h **** void observe_clear(lwm2m_context_t * contextP, lwm2m_uri_t * uriP);
 321:C:/Users/dtjld/Desktop/AIoT_software/LiteOS_Lab_overseas/LiteOS_Lab/iot_link/network/lwm2m/wakaama_lwm2m/core\internals.h **** //bool observe_handleNotify(lwm2m_context_t * contextP, void * fromSessionH, coap_packet_t * messag
 322:C:/Users/dtjld/Desktop/AIoT_software/LiteOS_Lab_overseas/LiteOS_Lab/iot_link/network/lwm2m/wakaama_lwm2m/core\internals.h **** void observe_remove(lwm2m_observation_t * observationP);
 323:C:/Users/dtjld/Desktop/AIoT_software/LiteOS_Lab_overseas/LiteOS_Lab/iot_link/network/lwm2m/wakaama_lwm2m/core\internals.h **** lwm2m_observed_t * observe_findByUri(lwm2m_context_t * contextP, lwm2m_uri_t * uriP);
 324:C:/Users/dtjld/Desktop/AIoT_software/LiteOS_Lab_overseas/LiteOS_Lab/iot_link/network/lwm2m/wakaama_lwm2m/core\internals.h **** 
 325:C:/Users/dtjld/Desktop/AIoT_software/LiteOS_Lab_overseas/LiteOS_Lab/iot_link/network/lwm2m/wakaama_lwm2m/core\internals.h **** // defined in registration.c
 326:C:/Users/dtjld/Desktop/AIoT_software/LiteOS_Lab_overseas/LiteOS_Lab/iot_link/network/lwm2m/wakaama_lwm2m/core\internals.h **** //uint8_t registration_handleRequest(lwm2m_context_t * contextP, lwm2m_uri_t * uriP, void * fromSes
 327:C:/Users/dtjld/Desktop/AIoT_software/LiteOS_Lab_overseas/LiteOS_Lab/iot_link/network/lwm2m/wakaama_lwm2m/core\internals.h **** void registration_deregister(lwm2m_context_t * contextP, lwm2m_server_t * serverP);
 328:C:/Users/dtjld/Desktop/AIoT_software/LiteOS_Lab_overseas/LiteOS_Lab/iot_link/network/lwm2m/wakaama_lwm2m/core\internals.h **** void registration_freeClient(lwm2m_client_t * clientP);
 329:C:/Users/dtjld/Desktop/AIoT_software/LiteOS_Lab_overseas/LiteOS_Lab/iot_link/network/lwm2m/wakaama_lwm2m/core\internals.h **** uint8_t registration_start(lwm2m_context_t * contextP);
 330:C:/Users/dtjld/Desktop/AIoT_software/LiteOS_Lab_overseas/LiteOS_Lab/iot_link/network/lwm2m/wakaama_lwm2m/core\internals.h **** void registration_step(lwm2m_context_t * contextP, time_t currentTime, time_t * timeoutP);
 331:C:/Users/dtjld/Desktop/AIoT_software/LiteOS_Lab_overseas/LiteOS_Lab/iot_link/network/lwm2m/wakaama_lwm2m/core\internals.h **** lwm2m_status_t registration_getStatus(lwm2m_context_t * contextP);
 332:C:/Users/dtjld/Desktop/AIoT_software/LiteOS_Lab_overseas/LiteOS_Lab/iot_link/network/lwm2m/wakaama_lwm2m/core\internals.h **** void registration_reset(lwm2m_context_t * contextP, lwm2m_server_t * serverP);
 333:C:/Users/dtjld/Desktop/AIoT_software/LiteOS_Lab_overseas/LiteOS_Lab/iot_link/network/lwm2m/wakaama_lwm2m/core\internals.h **** 
 334:C:/Users/dtjld/Desktop/AIoT_software/LiteOS_Lab_overseas/LiteOS_Lab/iot_link/network/lwm2m/wakaama_lwm2m/core\internals.h **** // defined in packet.c
 335:C:/Users/dtjld/Desktop/AIoT_software/LiteOS_Lab_overseas/LiteOS_Lab/iot_link/network/lwm2m/wakaama_lwm2m/core\internals.h **** uint8_t message_send(lwm2m_context_t * contextP, coap_packet_t * message, void * sessionH);
 336:C:/Users/dtjld/Desktop/AIoT_software/LiteOS_Lab_overseas/LiteOS_Lab/iot_link/network/lwm2m/wakaama_lwm2m/core\internals.h **** 
 337:C:/Users/dtjld/Desktop/AIoT_software/LiteOS_Lab_overseas/LiteOS_Lab/iot_link/network/lwm2m/wakaama_lwm2m/core\internals.h **** // defined in bootstrap.c
 338:C:/Users/dtjld/Desktop/AIoT_software/LiteOS_Lab_overseas/LiteOS_Lab/iot_link/network/lwm2m/wakaama_lwm2m/core\internals.h **** void bootstrap_step(lwm2m_context_t * contextP, uint32_t currentTime, time_t* timeoutP);
 339:C:/Users/dtjld/Desktop/AIoT_software/LiteOS_Lab_overseas/LiteOS_Lab/iot_link/network/lwm2m/wakaama_lwm2m/core\internals.h **** uint8_t bootstrap_handleCommand(lwm2m_context_t * contextP, lwm2m_uri_t * uriP, lwm2m_server_t * se
 340:C:/Users/dtjld/Desktop/AIoT_software/LiteOS_Lab_overseas/LiteOS_Lab/iot_link/network/lwm2m/wakaama_lwm2m/core\internals.h **** uint8_t bootstrap_handleDeleteAll(lwm2m_context_t * context, void * fromSessionH);
 341:C:/Users/dtjld/Desktop/AIoT_software/LiteOS_Lab_overseas/LiteOS_Lab/iot_link/network/lwm2m/wakaama_lwm2m/core\internals.h **** uint8_t bootstrap_handleFinish(lwm2m_context_t * context, void * fromSessionH);
 342:C:/Users/dtjld/Desktop/AIoT_software/LiteOS_Lab_overseas/LiteOS_Lab/iot_link/network/lwm2m/wakaama_lwm2m/core\internals.h **** uint8_t bootstrap_handleRequest(lwm2m_context_t * contextP, lwm2m_uri_t * uriP, void * fromSessionH
 343:C:/Users/dtjld/Desktop/AIoT_software/LiteOS_Lab_overseas/LiteOS_Lab/iot_link/network/lwm2m/wakaama_lwm2m/core\internals.h **** void bootstrap_start(lwm2m_context_t * contextP);
 344:C:/Users/dtjld/Desktop/AIoT_software/LiteOS_Lab_overseas/LiteOS_Lab/iot_link/network/lwm2m/wakaama_lwm2m/core\internals.h **** lwm2m_status_t bootstrap_getStatus(lwm2m_context_t * contextP);
 345:C:/Users/dtjld/Desktop/AIoT_software/LiteOS_Lab_overseas/LiteOS_Lab/iot_link/network/lwm2m/wakaama_lwm2m/core\internals.h **** bool bootstrap_isBsServerIpValid(const lwm2m_context_t *contextP);
 346:C:/Users/dtjld/Desktop/AIoT_software/LiteOS_Lab_overseas/LiteOS_Lab/iot_link/network/lwm2m/wakaama_lwm2m/core\internals.h **** 
 347:C:/Users/dtjld/Desktop/AIoT_software/LiteOS_Lab_overseas/LiteOS_Lab/iot_link/network/lwm2m/wakaama_lwm2m/core\internals.h **** 
 348:C:/Users/dtjld/Desktop/AIoT_software/LiteOS_Lab_overseas/LiteOS_Lab/iot_link/network/lwm2m/wakaama_lwm2m/core\internals.h **** // defined in tlv.c
 349:C:/Users/dtjld/Desktop/AIoT_software/LiteOS_Lab_overseas/LiteOS_Lab/iot_link/network/lwm2m/wakaama_lwm2m/core\internals.h **** int tlv_parse(uint8_t * buffer, size_t bufferLen, lwm2m_data_t ** dataP);
 350:C:/Users/dtjld/Desktop/AIoT_software/LiteOS_Lab_overseas/LiteOS_Lab/iot_link/network/lwm2m/wakaama_lwm2m/core\internals.h **** int tlv_serialize(bool isResourceInstance, int size, lwm2m_data_t * dataP, uint8_t ** bufferP);
 351:C:/Users/dtjld/Desktop/AIoT_software/LiteOS_Lab_overseas/LiteOS_Lab/iot_link/network/lwm2m/wakaama_lwm2m/core\internals.h **** 
 352:C:/Users/dtjld/Desktop/AIoT_software/LiteOS_Lab_overseas/LiteOS_Lab/iot_link/network/lwm2m/wakaama_lwm2m/core\internals.h **** // defined in json.c
 353:C:/Users/dtjld/Desktop/AIoT_software/LiteOS_Lab_overseas/LiteOS_Lab/iot_link/network/lwm2m/wakaama_lwm2m/core\internals.h **** #ifdef LWM2M_SUPPORT_JSON
 354:C:/Users/dtjld/Desktop/AIoT_software/LiteOS_Lab_overseas/LiteOS_Lab/iot_link/network/lwm2m/wakaama_lwm2m/core\internals.h **** int json_parse(lwm2m_uri_t * uriP, uint8_t * buffer, size_t bufferLen, lwm2m_data_t ** dataP);
 355:C:/Users/dtjld/Desktop/AIoT_software/LiteOS_Lab_overseas/LiteOS_Lab/iot_link/network/lwm2m/wakaama_lwm2m/core\internals.h **** int json_serialize(lwm2m_uri_t * uriP, int size, lwm2m_data_t * tlvP, uint8_t ** bufferP);
 356:C:/Users/dtjld/Desktop/AIoT_software/LiteOS_Lab_overseas/LiteOS_Lab/iot_link/network/lwm2m/wakaama_lwm2m/core\internals.h **** #endif
 357:C:/Users/dtjld/Desktop/AIoT_software/LiteOS_Lab_overseas/LiteOS_Lab/iot_link/network/lwm2m/wakaama_lwm2m/core\internals.h **** 
 358:C:/Users/dtjld/Desktop/AIoT_software/LiteOS_Lab_overseas/LiteOS_Lab/iot_link/network/lwm2m/wakaama_lwm2m/core\internals.h **** // defined in discover.c
 359:C:/Users/dtjld/Desktop/AIoT_software/LiteOS_Lab_overseas/LiteOS_Lab/iot_link/network/lwm2m/wakaama_lwm2m/core\internals.h **** int discover_serialize(lwm2m_context_t * contextP, lwm2m_uri_t * uriP, lwm2m_server_t * serverP, in
 360:C:/Users/dtjld/Desktop/AIoT_software/LiteOS_Lab_overseas/LiteOS_Lab/iot_link/network/lwm2m/wakaama_lwm2m/core\internals.h **** 
 361:C:/Users/dtjld/Desktop/AIoT_software/LiteOS_Lab_overseas/LiteOS_Lab/iot_link/network/lwm2m/wakaama_lwm2m/core\internals.h **** // defined in block1.c
 362:C:/Users/dtjld/Desktop/AIoT_software/LiteOS_Lab_overseas/LiteOS_Lab/iot_link/network/lwm2m/wakaama_lwm2m/core\internals.h **** uint8_t coap_block1_handler(lwm2m_block1_data_t ** block1Data, uint16_t mid, uint8_t * buffer, size
 363:C:/Users/dtjld/Desktop/AIoT_software/LiteOS_Lab_overseas/LiteOS_Lab/iot_link/network/lwm2m/wakaama_lwm2m/core\internals.h **** void free_block1_buffer(lwm2m_block1_data_t * block1Data);
 364:C:/Users/dtjld/Desktop/AIoT_software/LiteOS_Lab_overseas/LiteOS_Lab/iot_link/network/lwm2m/wakaama_lwm2m/core\internals.h **** 
 365:C:/Users/dtjld/Desktop/AIoT_software/LiteOS_Lab_overseas/LiteOS_Lab/iot_link/network/lwm2m/wakaama_lwm2m/core\internals.h **** // defined in utils.c
 366:C:/Users/dtjld/Desktop/AIoT_software/LiteOS_Lab_overseas/LiteOS_Lab/iot_link/network/lwm2m/wakaama_lwm2m/core\internals.h **** lwm2m_data_type_t utils_depthToDatatype(uri_depth_t depth);
 367:C:/Users/dtjld/Desktop/AIoT_software/LiteOS_Lab_overseas/LiteOS_Lab/iot_link/network/lwm2m/wakaama_lwm2m/core\internals.h **** lwm2m_binding_t utils_stringToBinding(uint8_t *buffer, size_t length);
 368:C:/Users/dtjld/Desktop/AIoT_software/LiteOS_Lab_overseas/LiteOS_Lab/iot_link/network/lwm2m/wakaama_lwm2m/core\internals.h **** lwm2m_media_type_t utils_convertMediaType(coap_content_type_t type);
 369:C:/Users/dtjld/Desktop/AIoT_software/LiteOS_Lab_overseas/LiteOS_Lab/iot_link/network/lwm2m/wakaama_lwm2m/core\internals.h **** int utils_isAltPathValid(const char * altPath);
 370:C:/Users/dtjld/Desktop/AIoT_software/LiteOS_Lab_overseas/LiteOS_Lab/iot_link/network/lwm2m/wakaama_lwm2m/core\internals.h **** int utils_stringCopy(char * buffer, size_t length, const char * str);
 371:C:/Users/dtjld/Desktop/AIoT_software/LiteOS_Lab_overseas/LiteOS_Lab/iot_link/network/lwm2m/wakaama_lwm2m/core\internals.h **** size_t utils_intToText(int64_t data, uint8_t * string, size_t length);
 372:C:/Users/dtjld/Desktop/AIoT_software/LiteOS_Lab_overseas/LiteOS_Lab/iot_link/network/lwm2m/wakaama_lwm2m/core\internals.h **** size_t utils_floatToText(double data, uint8_t * string, size_t length);
 373:C:/Users/dtjld/Desktop/AIoT_software/LiteOS_Lab_overseas/LiteOS_Lab/iot_link/network/lwm2m/wakaama_lwm2m/core\internals.h **** int utils_textToInt(uint8_t * buffer, int length, int64_t * dataP);
 374:C:/Users/dtjld/Desktop/AIoT_software/LiteOS_Lab_overseas/LiteOS_Lab/iot_link/network/lwm2m/wakaama_lwm2m/core\internals.h **** int utils_textToFloat(uint8_t * buffer, int length, double * dataP);
ARM GAS  C:\Users\dtjld\AppData\Local\Temp\ccRVA30A.s 			page 8


 375:C:/Users/dtjld/Desktop/AIoT_software/LiteOS_Lab_overseas/LiteOS_Lab/iot_link/network/lwm2m/wakaama_lwm2m/core\internals.h **** void utils_copyValue(void * dst, const void * src, size_t len);
 376:C:/Users/dtjld/Desktop/AIoT_software/LiteOS_Lab_overseas/LiteOS_Lab/iot_link/network/lwm2m/wakaama_lwm2m/core\internals.h **** size_t utils_base64GetSize(size_t dataLen);
 377:C:/Users/dtjld/Desktop/AIoT_software/LiteOS_Lab_overseas/LiteOS_Lab/iot_link/network/lwm2m/wakaama_lwm2m/core\internals.h **** size_t utils_base64Encode(uint8_t * dataP, size_t dataLen, uint8_t * bufferP, size_t bufferLen);
 378:C:/Users/dtjld/Desktop/AIoT_software/LiteOS_Lab_overseas/LiteOS_Lab/iot_link/network/lwm2m/wakaama_lwm2m/core\internals.h **** #ifdef LWM2M_CLIENT_MODE
 379:C:/Users/dtjld/Desktop/AIoT_software/LiteOS_Lab_overseas/LiteOS_Lab/iot_link/network/lwm2m/wakaama_lwm2m/core\internals.h **** lwm2m_server_t * utils_findServer(lwm2m_context_t * contextP, void * fromSessionH);
 380:C:/Users/dtjld/Desktop/AIoT_software/LiteOS_Lab_overseas/LiteOS_Lab/iot_link/network/lwm2m/wakaama_lwm2m/core\internals.h **** lwm2m_server_t * utils_findBootstrapServer(lwm2m_context_t * contextP, void * fromSessionH);
 381:C:/Users/dtjld/Desktop/AIoT_software/LiteOS_Lab_overseas/LiteOS_Lab/iot_link/network/lwm2m/wakaama_lwm2m/core\internals.h **** #endif
 382:C:/Users/dtjld/Desktop/AIoT_software/LiteOS_Lab_overseas/LiteOS_Lab/iot_link/network/lwm2m/wakaama_lwm2m/core\internals.h **** static inline int dm_isUriOpaqueHandle(const lwm2m_uri_t * uriP)
 383:C:/Users/dtjld/Desktop/AIoT_software/LiteOS_Lab_overseas/LiteOS_Lab/iot_link/network/lwm2m/wakaama_lwm2m/core\internals.h **** {
  27              		.loc 1 383 0
  28              		.cfi_startproc
  29              		@ args = 0, pretend = 0, frame = 8
  30              		@ frame_needed = 1, uses_anonymous_args = 0
  31              		@ link register save eliminated.
  32 0000 80B4     		push	{r7}
  33              	.LCFI0:
  34              		.cfi_def_cfa_offset 4
  35              		.cfi_offset 7, -4
  36 0002 83B0     		sub	sp, sp, #12
  37              	.LCFI1:
  38              		.cfi_def_cfa_offset 16
  39 0004 00AF     		add	r7, sp, #0
  40              	.LCFI2:
  41              		.cfi_def_cfa_register 7
  42 0006 7860     		str	r0, [r7, #4]
 384:C:/Users/dtjld/Desktop/AIoT_software/LiteOS_Lab_overseas/LiteOS_Lab/iot_link/network/lwm2m/wakaama_lwm2m/core\internals.h ****     return (19 == uriP->objectId);
  43              		.loc 1 384 0
  44 0008 7B68     		ldr	r3, [r7, #4]
  45 000a 5B88     		ldrh	r3, [r3, #2]
  46 000c 132B     		cmp	r3, #19
  47 000e 0CBF     		ite	eq
  48 0010 0123     		moveq	r3, #1
  49 0012 0023     		movne	r3, #0
  50 0014 DBB2     		uxtb	r3, r3
 385:C:/Users/dtjld/Desktop/AIoT_software/LiteOS_Lab_overseas/LiteOS_Lab/iot_link/network/lwm2m/wakaama_lwm2m/core\internals.h **** }
  51              		.loc 1 385 0
  52 0016 1846     		mov	r0, r3
  53 0018 0C37     		adds	r7, r7, #12
  54              	.LCFI3:
  55              		.cfi_def_cfa_offset 4
  56 001a BD46     		mov	sp, r7
  57              	.LCFI4:
  58              		.cfi_def_cfa_register 13
  59              		@ sp needed
  60 001c 5DF8047B 		ldr	r7, [sp], #4
  61              	.LCFI5:
  62              		.cfi_restore 7
  63              		.cfi_def_cfa_offset 0
  64 0020 7047     		bx	lr
  65              		.cfi_endproc
  66              	.LFE3:
  68              		.section	.bss.observe_call_back,"aw",%nobits
  69              		.align	2
  72              	observe_call_back:
  73 0000 00000000 		.space	4
  74              		.section	.text.lwm2m_register_observe_ack_call_back,"ax",%progbits
  75              		.align	1
ARM GAS  C:\Users\dtjld\AppData\Local\Temp\ccRVA30A.s 			page 9


  76              		.global	lwm2m_register_observe_ack_call_back
  77              		.syntax unified
  78              		.thumb
  79              		.thumb_func
  80              		.fpu fpv4-sp-d16
  82              	lwm2m_register_observe_ack_call_back:
  83              	.LFB4:
  84              		.file 2 "C:/Users/dtjld/Desktop/AIoT_software/LiteOS_Lab_overseas/LiteOS_Lab/iot_link/network/lwm2
   1:C:/Users/dtjld/Desktop/AIoT_software/LiteOS_Lab_overseas/LiteOS_Lab/iot_link/network/lwm2m/wakaama_lwm2m/core\observe.c **** /*----------------------------------------------------------------------------
   2:C:/Users/dtjld/Desktop/AIoT_software/LiteOS_Lab_overseas/LiteOS_Lab/iot_link/network/lwm2m/wakaama_lwm2m/core\observe.c ****  * Copyright (c) <2016-2018>, <Huawei Technologies Co., Ltd>
   3:C:/Users/dtjld/Desktop/AIoT_software/LiteOS_Lab_overseas/LiteOS_Lab/iot_link/network/lwm2m/wakaama_lwm2m/core\observe.c ****  * All rights reserved.
   4:C:/Users/dtjld/Desktop/AIoT_software/LiteOS_Lab_overseas/LiteOS_Lab/iot_link/network/lwm2m/wakaama_lwm2m/core\observe.c ****  * Redistribution and use in source and binary forms, with or without modification,
   5:C:/Users/dtjld/Desktop/AIoT_software/LiteOS_Lab_overseas/LiteOS_Lab/iot_link/network/lwm2m/wakaama_lwm2m/core\observe.c ****  * are permitted provided that the following conditions are met:
   6:C:/Users/dtjld/Desktop/AIoT_software/LiteOS_Lab_overseas/LiteOS_Lab/iot_link/network/lwm2m/wakaama_lwm2m/core\observe.c ****  * 1. Redistributions of source code must retain the above copyright notice, this list of
   7:C:/Users/dtjld/Desktop/AIoT_software/LiteOS_Lab_overseas/LiteOS_Lab/iot_link/network/lwm2m/wakaama_lwm2m/core\observe.c ****  * conditions and the following disclaimer.
   8:C:/Users/dtjld/Desktop/AIoT_software/LiteOS_Lab_overseas/LiteOS_Lab/iot_link/network/lwm2m/wakaama_lwm2m/core\observe.c ****  * 2. Redistributions in binary form must reproduce the above copyright notice, this list
   9:C:/Users/dtjld/Desktop/AIoT_software/LiteOS_Lab_overseas/LiteOS_Lab/iot_link/network/lwm2m/wakaama_lwm2m/core\observe.c ****  * of conditions and the following disclaimer in the documentation and/or other materials
  10:C:/Users/dtjld/Desktop/AIoT_software/LiteOS_Lab_overseas/LiteOS_Lab/iot_link/network/lwm2m/wakaama_lwm2m/core\observe.c ****  * provided with the distribution.
  11:C:/Users/dtjld/Desktop/AIoT_software/LiteOS_Lab_overseas/LiteOS_Lab/iot_link/network/lwm2m/wakaama_lwm2m/core\observe.c ****  * 3. Neither the name of the copyright holder nor the names of its contributors may be used
  12:C:/Users/dtjld/Desktop/AIoT_software/LiteOS_Lab_overseas/LiteOS_Lab/iot_link/network/lwm2m/wakaama_lwm2m/core\observe.c ****  * to endorse or promote products derived from this software without specific prior written
  13:C:/Users/dtjld/Desktop/AIoT_software/LiteOS_Lab_overseas/LiteOS_Lab/iot_link/network/lwm2m/wakaama_lwm2m/core\observe.c ****  * permission.
  14:C:/Users/dtjld/Desktop/AIoT_software/LiteOS_Lab_overseas/LiteOS_Lab/iot_link/network/lwm2m/wakaama_lwm2m/core\observe.c ****  * THIS SOFTWARE IS PROVIDED BY THE COPYRIGHT HOLDERS AND CONTRIBUTORS
  15:C:/Users/dtjld/Desktop/AIoT_software/LiteOS_Lab_overseas/LiteOS_Lab/iot_link/network/lwm2m/wakaama_lwm2m/core\observe.c ****  * "AS IS" AND ANY EXPRESS OR IMPLIED WARRANTIES, INCLUDING, BUT NOT LIMITED TO,
  16:C:/Users/dtjld/Desktop/AIoT_software/LiteOS_Lab_overseas/LiteOS_Lab/iot_link/network/lwm2m/wakaama_lwm2m/core\observe.c ****  * THE IMPLIED WARRANTIES OF MERCHANTABILITY AND FITNESS FOR A PARTICULAR
  17:C:/Users/dtjld/Desktop/AIoT_software/LiteOS_Lab_overseas/LiteOS_Lab/iot_link/network/lwm2m/wakaama_lwm2m/core\observe.c ****  * PURPOSE ARE DISCLAIMED. IN NO EVENT SHALL THE COPYRIGHT HOLDER OR
  18:C:/Users/dtjld/Desktop/AIoT_software/LiteOS_Lab_overseas/LiteOS_Lab/iot_link/network/lwm2m/wakaama_lwm2m/core\observe.c ****  * CONTRIBUTORS BE LIABLE FOR ANY DIRECT, INDIRECT, INCIDENTAL, SPECIAL,
  19:C:/Users/dtjld/Desktop/AIoT_software/LiteOS_Lab_overseas/LiteOS_Lab/iot_link/network/lwm2m/wakaama_lwm2m/core\observe.c ****  * EXEMPLARY, OR CONSEQUENTIAL DAMAGES (INCLUDING, BUT NOT LIMITED TO,
  20:C:/Users/dtjld/Desktop/AIoT_software/LiteOS_Lab_overseas/LiteOS_Lab/iot_link/network/lwm2m/wakaama_lwm2m/core\observe.c ****  * PROCUREMENT OF SUBSTITUTE GOODS OR SERVICES; LOSS OF USE, DATA, OR PROFITS;
  21:C:/Users/dtjld/Desktop/AIoT_software/LiteOS_Lab_overseas/LiteOS_Lab/iot_link/network/lwm2m/wakaama_lwm2m/core\observe.c ****  * OR BUSINESS INTERRUPTION) HOWEVER CAUSED AND ON ANY THEORY OF LIABILITY,
  22:C:/Users/dtjld/Desktop/AIoT_software/LiteOS_Lab_overseas/LiteOS_Lab/iot_link/network/lwm2m/wakaama_lwm2m/core\observe.c ****  * WHETHER IN CONTRACT, STRICT LIABILITY, OR TORT (INCLUDING NEGLIGENCE OR
  23:C:/Users/dtjld/Desktop/AIoT_software/LiteOS_Lab_overseas/LiteOS_Lab/iot_link/network/lwm2m/wakaama_lwm2m/core\observe.c ****  * OTHERWISE) ARISING IN ANY WAY OUT OF THE USE OF THIS SOFTWARE, EVEN IF
  24:C:/Users/dtjld/Desktop/AIoT_software/LiteOS_Lab_overseas/LiteOS_Lab/iot_link/network/lwm2m/wakaama_lwm2m/core\observe.c ****  * ADVISED OF THE POSSIBILITY OF SUCH DAMAGE.
  25:C:/Users/dtjld/Desktop/AIoT_software/LiteOS_Lab_overseas/LiteOS_Lab/iot_link/network/lwm2m/wakaama_lwm2m/core\observe.c ****  *---------------------------------------------------------------------------*/
  26:C:/Users/dtjld/Desktop/AIoT_software/LiteOS_Lab_overseas/LiteOS_Lab/iot_link/network/lwm2m/wakaama_lwm2m/core\observe.c **** /*----------------------------------------------------------------------------
  27:C:/Users/dtjld/Desktop/AIoT_software/LiteOS_Lab_overseas/LiteOS_Lab/iot_link/network/lwm2m/wakaama_lwm2m/core\observe.c ****  * Notice of Export Control Law
  28:C:/Users/dtjld/Desktop/AIoT_software/LiteOS_Lab_overseas/LiteOS_Lab/iot_link/network/lwm2m/wakaama_lwm2m/core\observe.c ****  * ===============================================
  29:C:/Users/dtjld/Desktop/AIoT_software/LiteOS_Lab_overseas/LiteOS_Lab/iot_link/network/lwm2m/wakaama_lwm2m/core\observe.c ****  * Huawei LiteOS may be subject to applicable export control laws and regulations, which might
  30:C:/Users/dtjld/Desktop/AIoT_software/LiteOS_Lab_overseas/LiteOS_Lab/iot_link/network/lwm2m/wakaama_lwm2m/core\observe.c ****  * include those applicable to Huawei LiteOS of U.S. and the country in which you are located.
  31:C:/Users/dtjld/Desktop/AIoT_software/LiteOS_Lab_overseas/LiteOS_Lab/iot_link/network/lwm2m/wakaama_lwm2m/core\observe.c ****  * Import, export and usage of Huawei LiteOS in any manner by you shall be in compliance with such
  32:C:/Users/dtjld/Desktop/AIoT_software/LiteOS_Lab_overseas/LiteOS_Lab/iot_link/network/lwm2m/wakaama_lwm2m/core\observe.c ****  * applicable export control laws and regulations.
  33:C:/Users/dtjld/Desktop/AIoT_software/LiteOS_Lab_overseas/LiteOS_Lab/iot_link/network/lwm2m/wakaama_lwm2m/core\observe.c ****  *---------------------------------------------------------------------------*/
  34:C:/Users/dtjld/Desktop/AIoT_software/LiteOS_Lab_overseas/LiteOS_Lab/iot_link/network/lwm2m/wakaama_lwm2m/core\observe.c **** 
  35:C:/Users/dtjld/Desktop/AIoT_software/LiteOS_Lab_overseas/LiteOS_Lab/iot_link/network/lwm2m/wakaama_lwm2m/core\observe.c **** /*******************************************************************************
  36:C:/Users/dtjld/Desktop/AIoT_software/LiteOS_Lab_overseas/LiteOS_Lab/iot_link/network/lwm2m/wakaama_lwm2m/core\observe.c ****  *
  37:C:/Users/dtjld/Desktop/AIoT_software/LiteOS_Lab_overseas/LiteOS_Lab/iot_link/network/lwm2m/wakaama_lwm2m/core\observe.c ****  * Copyright (c) 2013, 2014 Intel Corporation and others.
  38:C:/Users/dtjld/Desktop/AIoT_software/LiteOS_Lab_overseas/LiteOS_Lab/iot_link/network/lwm2m/wakaama_lwm2m/core\observe.c ****  * All rights reserved. This program and the accompanying materials
  39:C:/Users/dtjld/Desktop/AIoT_software/LiteOS_Lab_overseas/LiteOS_Lab/iot_link/network/lwm2m/wakaama_lwm2m/core\observe.c ****  * are made available under the terms of the Eclipse Public License v1.0
  40:C:/Users/dtjld/Desktop/AIoT_software/LiteOS_Lab_overseas/LiteOS_Lab/iot_link/network/lwm2m/wakaama_lwm2m/core\observe.c ****  * and Eclipse Distribution License v1.0 which accompany this distribution.
  41:C:/Users/dtjld/Desktop/AIoT_software/LiteOS_Lab_overseas/LiteOS_Lab/iot_link/network/lwm2m/wakaama_lwm2m/core\observe.c ****  *
  42:C:/Users/dtjld/Desktop/AIoT_software/LiteOS_Lab_overseas/LiteOS_Lab/iot_link/network/lwm2m/wakaama_lwm2m/core\observe.c ****  * The Eclipse Public License is available at
  43:C:/Users/dtjld/Desktop/AIoT_software/LiteOS_Lab_overseas/LiteOS_Lab/iot_link/network/lwm2m/wakaama_lwm2m/core\observe.c ****  *    http://www.eclipse.org/legal/epl-v10.html
  44:C:/Users/dtjld/Desktop/AIoT_software/LiteOS_Lab_overseas/LiteOS_Lab/iot_link/network/lwm2m/wakaama_lwm2m/core\observe.c ****  * The Eclipse Distribution License is available at
  45:C:/Users/dtjld/Desktop/AIoT_software/LiteOS_Lab_overseas/LiteOS_Lab/iot_link/network/lwm2m/wakaama_lwm2m/core\observe.c ****  *    http://www.eclipse.org/org/documents/edl-v10.php.
  46:C:/Users/dtjld/Desktop/AIoT_software/LiteOS_Lab_overseas/LiteOS_Lab/iot_link/network/lwm2m/wakaama_lwm2m/core\observe.c ****  *
  47:C:/Users/dtjld/Desktop/AIoT_software/LiteOS_Lab_overseas/LiteOS_Lab/iot_link/network/lwm2m/wakaama_lwm2m/core\observe.c ****  * Contributors:
  48:C:/Users/dtjld/Desktop/AIoT_software/LiteOS_Lab_overseas/LiteOS_Lab/iot_link/network/lwm2m/wakaama_lwm2m/core\observe.c ****  *    David Navarro, Intel Corporation - initial API and implementation
  49:C:/Users/dtjld/Desktop/AIoT_software/LiteOS_Lab_overseas/LiteOS_Lab/iot_link/network/lwm2m/wakaama_lwm2m/core\observe.c ****  *    Toby Jaffey - Please refer to git log
ARM GAS  C:\Users\dtjld\AppData\Local\Temp\ccRVA30A.s 			page 10


  50:C:/Users/dtjld/Desktop/AIoT_software/LiteOS_Lab_overseas/LiteOS_Lab/iot_link/network/lwm2m/wakaama_lwm2m/core\observe.c ****  *    Bosch Software Innovations GmbH - Please refer to git log
  51:C:/Users/dtjld/Desktop/AIoT_software/LiteOS_Lab_overseas/LiteOS_Lab/iot_link/network/lwm2m/wakaama_lwm2m/core\observe.c ****  *
  52:C:/Users/dtjld/Desktop/AIoT_software/LiteOS_Lab_overseas/LiteOS_Lab/iot_link/network/lwm2m/wakaama_lwm2m/core\observe.c ****  *******************************************************************************/
  53:C:/Users/dtjld/Desktop/AIoT_software/LiteOS_Lab_overseas/LiteOS_Lab/iot_link/network/lwm2m/wakaama_lwm2m/core\observe.c **** 
  54:C:/Users/dtjld/Desktop/AIoT_software/LiteOS_Lab_overseas/LiteOS_Lab/iot_link/network/lwm2m/wakaama_lwm2m/core\observe.c **** /*
  55:C:/Users/dtjld/Desktop/AIoT_software/LiteOS_Lab_overseas/LiteOS_Lab/iot_link/network/lwm2m/wakaama_lwm2m/core\observe.c ****  Copyright (c) 2013, 2014 Intel Corporation
  56:C:/Users/dtjld/Desktop/AIoT_software/LiteOS_Lab_overseas/LiteOS_Lab/iot_link/network/lwm2m/wakaama_lwm2m/core\observe.c **** 
  57:C:/Users/dtjld/Desktop/AIoT_software/LiteOS_Lab_overseas/LiteOS_Lab/iot_link/network/lwm2m/wakaama_lwm2m/core\observe.c ****  Redistribution and use in source and binary forms, with or without modification,
  58:C:/Users/dtjld/Desktop/AIoT_software/LiteOS_Lab_overseas/LiteOS_Lab/iot_link/network/lwm2m/wakaama_lwm2m/core\observe.c ****  are permitted provided that the following conditions are met:
  59:C:/Users/dtjld/Desktop/AIoT_software/LiteOS_Lab_overseas/LiteOS_Lab/iot_link/network/lwm2m/wakaama_lwm2m/core\observe.c **** 
  60:C:/Users/dtjld/Desktop/AIoT_software/LiteOS_Lab_overseas/LiteOS_Lab/iot_link/network/lwm2m/wakaama_lwm2m/core\observe.c ****      * Redistributions of source code must retain the above copyright notice,
  61:C:/Users/dtjld/Desktop/AIoT_software/LiteOS_Lab_overseas/LiteOS_Lab/iot_link/network/lwm2m/wakaama_lwm2m/core\observe.c ****        this list of conditions and the following disclaimer.
  62:C:/Users/dtjld/Desktop/AIoT_software/LiteOS_Lab_overseas/LiteOS_Lab/iot_link/network/lwm2m/wakaama_lwm2m/core\observe.c ****      * Redistributions in binary form must reproduce the above copyright notice,
  63:C:/Users/dtjld/Desktop/AIoT_software/LiteOS_Lab_overseas/LiteOS_Lab/iot_link/network/lwm2m/wakaama_lwm2m/core\observe.c ****        this list of conditions and the following disclaimer in the documentation
  64:C:/Users/dtjld/Desktop/AIoT_software/LiteOS_Lab_overseas/LiteOS_Lab/iot_link/network/lwm2m/wakaama_lwm2m/core\observe.c ****        and/or other materials provided with the distribution.
  65:C:/Users/dtjld/Desktop/AIoT_software/LiteOS_Lab_overseas/LiteOS_Lab/iot_link/network/lwm2m/wakaama_lwm2m/core\observe.c ****      * Neither the name of Intel Corporation nor the names of its contributors
  66:C:/Users/dtjld/Desktop/AIoT_software/LiteOS_Lab_overseas/LiteOS_Lab/iot_link/network/lwm2m/wakaama_lwm2m/core\observe.c ****        may be used to endorse or promote products derived from this software
  67:C:/Users/dtjld/Desktop/AIoT_software/LiteOS_Lab_overseas/LiteOS_Lab/iot_link/network/lwm2m/wakaama_lwm2m/core\observe.c ****        without specific prior written permission.
  68:C:/Users/dtjld/Desktop/AIoT_software/LiteOS_Lab_overseas/LiteOS_Lab/iot_link/network/lwm2m/wakaama_lwm2m/core\observe.c **** 
  69:C:/Users/dtjld/Desktop/AIoT_software/LiteOS_Lab_overseas/LiteOS_Lab/iot_link/network/lwm2m/wakaama_lwm2m/core\observe.c ****  THIS SOFTWARE IS PROVIDED BY THE COPYRIGHT HOLDERS AND CONTRIBUTORS "AS IS" AND
  70:C:/Users/dtjld/Desktop/AIoT_software/LiteOS_Lab_overseas/LiteOS_Lab/iot_link/network/lwm2m/wakaama_lwm2m/core\observe.c ****  ANY EXPRESS OR IMPLIED WARRANTIES, INCLUDING, BUT NOT LIMITED TO, THE IMPLIED
  71:C:/Users/dtjld/Desktop/AIoT_software/LiteOS_Lab_overseas/LiteOS_Lab/iot_link/network/lwm2m/wakaama_lwm2m/core\observe.c ****  WARRANTIES OF MERCHANTABILITY AND FITNESS FOR A PARTICULAR PURPOSE ARE DISCLAIMED.
  72:C:/Users/dtjld/Desktop/AIoT_software/LiteOS_Lab_overseas/LiteOS_Lab/iot_link/network/lwm2m/wakaama_lwm2m/core\observe.c ****  IN NO EVENT SHALL THE COPYRIGHT OWNER OR CONTRIBUTORS BE LIABLE FOR ANY DIRECT,
  73:C:/Users/dtjld/Desktop/AIoT_software/LiteOS_Lab_overseas/LiteOS_Lab/iot_link/network/lwm2m/wakaama_lwm2m/core\observe.c ****  INDIRECT, INCIDENTAL, SPECIAL, EXEMPLARY, OR CONSEQUENTIAL DAMAGES (INCLUDING,
  74:C:/Users/dtjld/Desktop/AIoT_software/LiteOS_Lab_overseas/LiteOS_Lab/iot_link/network/lwm2m/wakaama_lwm2m/core\observe.c ****  BUT NOT LIMITED TO, PROCUREMENT OF SUBSTITUTE GOODS OR SERVICES; LOSS OF USE,
  75:C:/Users/dtjld/Desktop/AIoT_software/LiteOS_Lab_overseas/LiteOS_Lab/iot_link/network/lwm2m/wakaama_lwm2m/core\observe.c ****  DATA, OR PROFITS; OR BUSINESS INTERRUPTION) HOWEVER CAUSED AND ON ANY THEORY OF
  76:C:/Users/dtjld/Desktop/AIoT_software/LiteOS_Lab_overseas/LiteOS_Lab/iot_link/network/lwm2m/wakaama_lwm2m/core\observe.c ****  LIABILITY, WHETHER IN CONTRACT, STRICT LIABILITY, OR TORT (INCLUDING NEGLIGENCE OR
  77:C:/Users/dtjld/Desktop/AIoT_software/LiteOS_Lab_overseas/LiteOS_Lab/iot_link/network/lwm2m/wakaama_lwm2m/core\observe.c ****  OTHERWISE) ARISING IN ANY WAY OUT OF THE USE OF THIS SOFTWARE, EVEN IF ADVISED OF
  78:C:/Users/dtjld/Desktop/AIoT_software/LiteOS_Lab_overseas/LiteOS_Lab/iot_link/network/lwm2m/wakaama_lwm2m/core\observe.c ****  THE POSSIBILITY OF SUCH DAMAGE.
  79:C:/Users/dtjld/Desktop/AIoT_software/LiteOS_Lab_overseas/LiteOS_Lab/iot_link/network/lwm2m/wakaama_lwm2m/core\observe.c **** 
  80:C:/Users/dtjld/Desktop/AIoT_software/LiteOS_Lab_overseas/LiteOS_Lab/iot_link/network/lwm2m/wakaama_lwm2m/core\observe.c ****  David Navarro <david.navarro@intel.com>
  81:C:/Users/dtjld/Desktop/AIoT_software/LiteOS_Lab_overseas/LiteOS_Lab/iot_link/network/lwm2m/wakaama_lwm2m/core\observe.c **** 
  82:C:/Users/dtjld/Desktop/AIoT_software/LiteOS_Lab_overseas/LiteOS_Lab/iot_link/network/lwm2m/wakaama_lwm2m/core\observe.c **** */
  83:C:/Users/dtjld/Desktop/AIoT_software/LiteOS_Lab_overseas/LiteOS_Lab/iot_link/network/lwm2m/wakaama_lwm2m/core\observe.c **** 
  84:C:/Users/dtjld/Desktop/AIoT_software/LiteOS_Lab_overseas/LiteOS_Lab/iot_link/network/lwm2m/wakaama_lwm2m/core\observe.c **** #include "internals.h"
  85:C:/Users/dtjld/Desktop/AIoT_software/LiteOS_Lab_overseas/LiteOS_Lab/iot_link/network/lwm2m/wakaama_lwm2m/core\observe.c **** #include <osal.h>
  86:C:/Users/dtjld/Desktop/AIoT_software/LiteOS_Lab_overseas/LiteOS_Lab/iot_link/network/lwm2m/wakaama_lwm2m/core\observe.c **** #include <stdio.h>
  87:C:/Users/dtjld/Desktop/AIoT_software/LiteOS_Lab_overseas/LiteOS_Lab/iot_link/network/lwm2m/wakaama_lwm2m/core\observe.c **** 
  88:C:/Users/dtjld/Desktop/AIoT_software/LiteOS_Lab_overseas/LiteOS_Lab/iot_link/network/lwm2m/wakaama_lwm2m/core\observe.c **** 
  89:C:/Users/dtjld/Desktop/AIoT_software/LiteOS_Lab_overseas/LiteOS_Lab/iot_link/network/lwm2m/wakaama_lwm2m/core\observe.c **** #ifdef LWM2M_CLIENT_MODE
  90:C:/Users/dtjld/Desktop/AIoT_software/LiteOS_Lab_overseas/LiteOS_Lab/iot_link/network/lwm2m/wakaama_lwm2m/core\observe.c **** 
  91:C:/Users/dtjld/Desktop/AIoT_software/LiteOS_Lab_overseas/LiteOS_Lab/iot_link/network/lwm2m/wakaama_lwm2m/core\observe.c **** #define RES_M_STATE  3
  92:C:/Users/dtjld/Desktop/AIoT_software/LiteOS_Lab_overseas/LiteOS_Lab/iot_link/network/lwm2m/wakaama_lwm2m/core\observe.c **** 
  93:C:/Users/dtjld/Desktop/AIoT_software/LiteOS_Lab_overseas/LiteOS_Lab/iot_link/network/lwm2m/wakaama_lwm2m/core\observe.c **** static lwm2m_transaction_callback_t  observe_call_back;
  94:C:/Users/dtjld/Desktop/AIoT_software/LiteOS_Lab_overseas/LiteOS_Lab/iot_link/network/lwm2m/wakaama_lwm2m/core\observe.c **** 
  95:C:/Users/dtjld/Desktop/AIoT_software/LiteOS_Lab_overseas/LiteOS_Lab/iot_link/network/lwm2m/wakaama_lwm2m/core\observe.c **** void lwm2m_register_observe_ack_call_back(lwm2m_transaction_callback_t callback)
  96:C:/Users/dtjld/Desktop/AIoT_software/LiteOS_Lab_overseas/LiteOS_Lab/iot_link/network/lwm2m/wakaama_lwm2m/core\observe.c **** {
  85              		.loc 2 96 0
  86              		.cfi_startproc
  87              		@ args = 0, pretend = 0, frame = 8
  88              		@ frame_needed = 1, uses_anonymous_args = 0
  89              		@ link register save eliminated.
  90 0000 80B4     		push	{r7}
  91              	.LCFI6:
  92              		.cfi_def_cfa_offset 4
  93              		.cfi_offset 7, -4
  94 0002 83B0     		sub	sp, sp, #12
ARM GAS  C:\Users\dtjld\AppData\Local\Temp\ccRVA30A.s 			page 11


  95              	.LCFI7:
  96              		.cfi_def_cfa_offset 16
  97 0004 00AF     		add	r7, sp, #0
  98              	.LCFI8:
  99              		.cfi_def_cfa_register 7
 100 0006 7860     		str	r0, [r7, #4]
  97:C:/Users/dtjld/Desktop/AIoT_software/LiteOS_Lab_overseas/LiteOS_Lab/iot_link/network/lwm2m/wakaama_lwm2m/core\observe.c ****     observe_call_back = callback;
 101              		.loc 2 97 0
 102 0008 044A     		ldr	r2, .L4
 103 000a 7B68     		ldr	r3, [r7, #4]
 104 000c 1360     		str	r3, [r2]
  98:C:/Users/dtjld/Desktop/AIoT_software/LiteOS_Lab_overseas/LiteOS_Lab/iot_link/network/lwm2m/wakaama_lwm2m/core\observe.c **** }
 105              		.loc 2 98 0
 106 000e 00BF     		nop
 107 0010 0C37     		adds	r7, r7, #12
 108              	.LCFI9:
 109              		.cfi_def_cfa_offset 4
 110 0012 BD46     		mov	sp, r7
 111              	.LCFI10:
 112              		.cfi_def_cfa_register 13
 113              		@ sp needed
 114 0014 5DF8047B 		ldr	r7, [sp], #4
 115              	.LCFI11:
 116              		.cfi_restore 7
 117              		.cfi_def_cfa_offset 0
 118 0018 7047     		bx	lr
 119              	.L5:
 120 001a 00BF     		.align	2
 121              	.L4:
 122 001c 00000000 		.word	observe_call_back
 123              		.cfi_endproc
 124              	.LFE4:
 126              		.section	.text.prv_findObserved,"ax",%progbits
 127              		.align	1
 128              		.syntax unified
 129              		.thumb
 130              		.thumb_func
 131              		.fpu fpv4-sp-d16
 133              	prv_findObserved:
 134              	.LFB5:
  99:C:/Users/dtjld/Desktop/AIoT_software/LiteOS_Lab_overseas/LiteOS_Lab/iot_link/network/lwm2m/wakaama_lwm2m/core\observe.c **** 
 100:C:/Users/dtjld/Desktop/AIoT_software/LiteOS_Lab_overseas/LiteOS_Lab/iot_link/network/lwm2m/wakaama_lwm2m/core\observe.c **** 
 101:C:/Users/dtjld/Desktop/AIoT_software/LiteOS_Lab_overseas/LiteOS_Lab/iot_link/network/lwm2m/wakaama_lwm2m/core\observe.c **** static lwm2m_observed_t *prv_findObserved(lwm2m_context_t *contextP,
 102:C:/Users/dtjld/Desktop/AIoT_software/LiteOS_Lab_overseas/LiteOS_Lab/iot_link/network/lwm2m/wakaama_lwm2m/core\observe.c ****         lwm2m_uri_t *uriP)
 103:C:/Users/dtjld/Desktop/AIoT_software/LiteOS_Lab_overseas/LiteOS_Lab/iot_link/network/lwm2m/wakaama_lwm2m/core\observe.c **** {
 135              		.loc 2 103 0
 136              		.cfi_startproc
 137              		@ args = 0, pretend = 0, frame = 16
 138              		@ frame_needed = 1, uses_anonymous_args = 0
 139              		@ link register save eliminated.
 140 0000 80B4     		push	{r7}
 141              	.LCFI12:
 142              		.cfi_def_cfa_offset 4
 143              		.cfi_offset 7, -4
 144 0002 85B0     		sub	sp, sp, #20
 145              	.LCFI13:
 146              		.cfi_def_cfa_offset 24
ARM GAS  C:\Users\dtjld\AppData\Local\Temp\ccRVA30A.s 			page 12


 147 0004 00AF     		add	r7, sp, #0
 148              	.LCFI14:
 149              		.cfi_def_cfa_register 7
 150 0006 7860     		str	r0, [r7, #4]
 151 0008 3960     		str	r1, [r7]
 104:C:/Users/dtjld/Desktop/AIoT_software/LiteOS_Lab_overseas/LiteOS_Lab/iot_link/network/lwm2m/wakaama_lwm2m/core\observe.c ****     lwm2m_observed_t *targetP;
 105:C:/Users/dtjld/Desktop/AIoT_software/LiteOS_Lab_overseas/LiteOS_Lab/iot_link/network/lwm2m/wakaama_lwm2m/core\observe.c **** 
 106:C:/Users/dtjld/Desktop/AIoT_software/LiteOS_Lab_overseas/LiteOS_Lab/iot_link/network/lwm2m/wakaama_lwm2m/core\observe.c ****     targetP = contextP->observedList;
 152              		.loc 2 106 0
 153 000a 7B68     		ldr	r3, [r7, #4]
 154 000c DB69     		ldr	r3, [r3, #28]
 155 000e FB60     		str	r3, [r7, #12]
 107:C:/Users/dtjld/Desktop/AIoT_software/LiteOS_Lab_overseas/LiteOS_Lab/iot_link/network/lwm2m/wakaama_lwm2m/core\observe.c ****     while (targetP != NULL
 156              		.loc 2 107 0
 157 0010 02E0     		b	.L7
 158              	.L9:
 108:C:/Users/dtjld/Desktop/AIoT_software/LiteOS_Lab_overseas/LiteOS_Lab/iot_link/network/lwm2m/wakaama_lwm2m/core\observe.c ****             && (targetP->uri.objectId != uriP->objectId
 109:C:/Users/dtjld/Desktop/AIoT_software/LiteOS_Lab_overseas/LiteOS_Lab/iot_link/network/lwm2m/wakaama_lwm2m/core\observe.c ****                 || targetP->uri.flag != uriP->flag
 110:C:/Users/dtjld/Desktop/AIoT_software/LiteOS_Lab_overseas/LiteOS_Lab/iot_link/network/lwm2m/wakaama_lwm2m/core\observe.c ****                 || (LWM2M_URI_IS_SET_INSTANCE(uriP) && targetP->uri.instanceId != uriP->instanceId)
 111:C:/Users/dtjld/Desktop/AIoT_software/LiteOS_Lab_overseas/LiteOS_Lab/iot_link/network/lwm2m/wakaama_lwm2m/core\observe.c ****                 || (LWM2M_URI_IS_SET_RESOURCE(uriP) && targetP->uri.resourceId != uriP->resourceId)
 112:C:/Users/dtjld/Desktop/AIoT_software/LiteOS_Lab_overseas/LiteOS_Lab/iot_link/network/lwm2m/wakaama_lwm2m/core\observe.c ****     {
 113:C:/Users/dtjld/Desktop/AIoT_software/LiteOS_Lab_overseas/LiteOS_Lab/iot_link/network/lwm2m/wakaama_lwm2m/core\observe.c ****         targetP = targetP->next;
 159              		.loc 2 113 0
 160 0012 FB68     		ldr	r3, [r7, #12]
 161 0014 1B68     		ldr	r3, [r3]
 162 0016 FB60     		str	r3, [r7, #12]
 163              	.L7:
 107:C:/Users/dtjld/Desktop/AIoT_software/LiteOS_Lab_overseas/LiteOS_Lab/iot_link/network/lwm2m/wakaama_lwm2m/core\observe.c ****     while (targetP != NULL
 164              		.loc 2 107 0
 165 0018 FB68     		ldr	r3, [r7, #12]
 166 001a 002B     		cmp	r3, #0
 167 001c 23D0     		beq	.L8
 108:C:/Users/dtjld/Desktop/AIoT_software/LiteOS_Lab_overseas/LiteOS_Lab/iot_link/network/lwm2m/wakaama_lwm2m/core\observe.c ****             && (targetP->uri.objectId != uriP->objectId
 168              		.loc 2 108 0
 169 001e FB68     		ldr	r3, [r7, #12]
 170 0020 DA88     		ldrh	r2, [r3, #6]
 171 0022 3B68     		ldr	r3, [r7]
 172 0024 5B88     		ldrh	r3, [r3, #2]
 173 0026 9A42     		cmp	r2, r3
 174 0028 F3D1     		bne	.L9
 109:C:/Users/dtjld/Desktop/AIoT_software/LiteOS_Lab_overseas/LiteOS_Lab/iot_link/network/lwm2m/wakaama_lwm2m/core\observe.c ****                 || (LWM2M_URI_IS_SET_INSTANCE(uriP) && targetP->uri.instanceId != uriP->instanceId)
 175              		.loc 2 109 0
 176 002a FB68     		ldr	r3, [r7, #12]
 177 002c 1A79     		ldrb	r2, [r3, #4]	@ zero_extendqisi2
 178 002e 3B68     		ldr	r3, [r7]
 179 0030 1B78     		ldrb	r3, [r3]	@ zero_extendqisi2
 180 0032 9A42     		cmp	r2, r3
 181 0034 EDD1     		bne	.L9
 110:C:/Users/dtjld/Desktop/AIoT_software/LiteOS_Lab_overseas/LiteOS_Lab/iot_link/network/lwm2m/wakaama_lwm2m/core\observe.c ****                 || (LWM2M_URI_IS_SET_RESOURCE(uriP) && targetP->uri.resourceId != uriP->resourceId)
 182              		.loc 2 110 0
 183 0036 3B68     		ldr	r3, [r7]
 184 0038 1B78     		ldrb	r3, [r3]	@ zero_extendqisi2
 185 003a 03F00203 		and	r3, r3, #2
 186 003e 002B     		cmp	r3, #0
 187 0040 05D0     		beq	.L10
 110:C:/Users/dtjld/Desktop/AIoT_software/LiteOS_Lab_overseas/LiteOS_Lab/iot_link/network/lwm2m/wakaama_lwm2m/core\observe.c ****                 || (LWM2M_URI_IS_SET_RESOURCE(uriP) && targetP->uri.resourceId != uriP->resourceId)
 188              		.loc 2 110 0 is_stmt 0 discriminator 1
ARM GAS  C:\Users\dtjld\AppData\Local\Temp\ccRVA30A.s 			page 13


 189 0042 FB68     		ldr	r3, [r7, #12]
 190 0044 1A89     		ldrh	r2, [r3, #8]
 191 0046 3B68     		ldr	r3, [r7]
 192 0048 9B88     		ldrh	r3, [r3, #4]
 193 004a 9A42     		cmp	r2, r3
 194 004c E1D1     		bne	.L9
 195              	.L10:
 111:C:/Users/dtjld/Desktop/AIoT_software/LiteOS_Lab_overseas/LiteOS_Lab/iot_link/network/lwm2m/wakaama_lwm2m/core\observe.c ****     {
 196              		.loc 2 111 0 is_stmt 1
 197 004e 3B68     		ldr	r3, [r7]
 198 0050 1B78     		ldrb	r3, [r3]	@ zero_extendqisi2
 199 0052 03F00103 		and	r3, r3, #1
 200 0056 002B     		cmp	r3, #0
 201 0058 05D0     		beq	.L8
 111:C:/Users/dtjld/Desktop/AIoT_software/LiteOS_Lab_overseas/LiteOS_Lab/iot_link/network/lwm2m/wakaama_lwm2m/core\observe.c ****     {
 202              		.loc 2 111 0 is_stmt 0 discriminator 1
 203 005a FB68     		ldr	r3, [r7, #12]
 204 005c 5A89     		ldrh	r2, [r3, #10]
 205 005e 3B68     		ldr	r3, [r7]
 206 0060 DB88     		ldrh	r3, [r3, #6]
 207 0062 9A42     		cmp	r2, r3
 208 0064 D5D1     		bne	.L9
 209              	.L8:
 114:C:/Users/dtjld/Desktop/AIoT_software/LiteOS_Lab_overseas/LiteOS_Lab/iot_link/network/lwm2m/wakaama_lwm2m/core\observe.c ****     }
 115:C:/Users/dtjld/Desktop/AIoT_software/LiteOS_Lab_overseas/LiteOS_Lab/iot_link/network/lwm2m/wakaama_lwm2m/core\observe.c **** 
 116:C:/Users/dtjld/Desktop/AIoT_software/LiteOS_Lab_overseas/LiteOS_Lab/iot_link/network/lwm2m/wakaama_lwm2m/core\observe.c ****     return targetP;
 210              		.loc 2 116 0 is_stmt 1
 211 0066 FB68     		ldr	r3, [r7, #12]
 117:C:/Users/dtjld/Desktop/AIoT_software/LiteOS_Lab_overseas/LiteOS_Lab/iot_link/network/lwm2m/wakaama_lwm2m/core\observe.c **** }
 212              		.loc 2 117 0
 213 0068 1846     		mov	r0, r3
 214 006a 1437     		adds	r7, r7, #20
 215              	.LCFI15:
 216              		.cfi_def_cfa_offset 4
 217 006c BD46     		mov	sp, r7
 218              	.LCFI16:
 219              		.cfi_def_cfa_register 13
 220              		@ sp needed
 221 006e 5DF8047B 		ldr	r7, [sp], #4
 222              	.LCFI17:
 223              		.cfi_restore 7
 224              		.cfi_def_cfa_offset 0
 225 0072 7047     		bx	lr
 226              		.cfi_endproc
 227              	.LFE5:
 229              		.section	.text.prv_unlinkObserved,"ax",%progbits
 230              		.align	1
 231              		.syntax unified
 232              		.thumb
 233              		.thumb_func
 234              		.fpu fpv4-sp-d16
 236              	prv_unlinkObserved:
 237              	.LFB6:
 118:C:/Users/dtjld/Desktop/AIoT_software/LiteOS_Lab_overseas/LiteOS_Lab/iot_link/network/lwm2m/wakaama_lwm2m/core\observe.c **** 
 119:C:/Users/dtjld/Desktop/AIoT_software/LiteOS_Lab_overseas/LiteOS_Lab/iot_link/network/lwm2m/wakaama_lwm2m/core\observe.c **** static void prv_unlinkObserved(lwm2m_context_t *contextP,
 120:C:/Users/dtjld/Desktop/AIoT_software/LiteOS_Lab_overseas/LiteOS_Lab/iot_link/network/lwm2m/wakaama_lwm2m/core\observe.c ****                                lwm2m_observed_t *observedP)
 121:C:/Users/dtjld/Desktop/AIoT_software/LiteOS_Lab_overseas/LiteOS_Lab/iot_link/network/lwm2m/wakaama_lwm2m/core\observe.c **** {
ARM GAS  C:\Users\dtjld\AppData\Local\Temp\ccRVA30A.s 			page 14


 238              		.loc 2 121 0
 239              		.cfi_startproc
 240              		@ args = 0, pretend = 0, frame = 16
 241              		@ frame_needed = 1, uses_anonymous_args = 0
 242              		@ link register save eliminated.
 243 0000 80B4     		push	{r7}
 244              	.LCFI18:
 245              		.cfi_def_cfa_offset 4
 246              		.cfi_offset 7, -4
 247 0002 85B0     		sub	sp, sp, #20
 248              	.LCFI19:
 249              		.cfi_def_cfa_offset 24
 250 0004 00AF     		add	r7, sp, #0
 251              	.LCFI20:
 252              		.cfi_def_cfa_register 7
 253 0006 7860     		str	r0, [r7, #4]
 254 0008 3960     		str	r1, [r7]
 122:C:/Users/dtjld/Desktop/AIoT_software/LiteOS_Lab_overseas/LiteOS_Lab/iot_link/network/lwm2m/wakaama_lwm2m/core\observe.c ****     if (contextP->observedList == observedP)
 255              		.loc 2 122 0
 256 000a 7B68     		ldr	r3, [r7, #4]
 257 000c DB69     		ldr	r3, [r3, #28]
 258 000e 3A68     		ldr	r2, [r7]
 259 0010 9A42     		cmp	r2, r3
 260 0012 05D1     		bne	.L13
 123:C:/Users/dtjld/Desktop/AIoT_software/LiteOS_Lab_overseas/LiteOS_Lab/iot_link/network/lwm2m/wakaama_lwm2m/core\observe.c ****     {
 124:C:/Users/dtjld/Desktop/AIoT_software/LiteOS_Lab_overseas/LiteOS_Lab/iot_link/network/lwm2m/wakaama_lwm2m/core\observe.c ****         contextP->observedList = contextP->observedList->next;
 261              		.loc 2 124 0
 262 0014 7B68     		ldr	r3, [r7, #4]
 263 0016 DB69     		ldr	r3, [r3, #28]
 264 0018 1A68     		ldr	r2, [r3]
 265 001a 7B68     		ldr	r3, [r7, #4]
 266 001c DA61     		str	r2, [r3, #28]
 125:C:/Users/dtjld/Desktop/AIoT_software/LiteOS_Lab_overseas/LiteOS_Lab/iot_link/network/lwm2m/wakaama_lwm2m/core\observe.c ****     }
 126:C:/Users/dtjld/Desktop/AIoT_software/LiteOS_Lab_overseas/LiteOS_Lab/iot_link/network/lwm2m/wakaama_lwm2m/core\observe.c ****     else
 127:C:/Users/dtjld/Desktop/AIoT_software/LiteOS_Lab_overseas/LiteOS_Lab/iot_link/network/lwm2m/wakaama_lwm2m/core\observe.c ****     {
 128:C:/Users/dtjld/Desktop/AIoT_software/LiteOS_Lab_overseas/LiteOS_Lab/iot_link/network/lwm2m/wakaama_lwm2m/core\observe.c ****         lwm2m_observed_t *parentP;
 129:C:/Users/dtjld/Desktop/AIoT_software/LiteOS_Lab_overseas/LiteOS_Lab/iot_link/network/lwm2m/wakaama_lwm2m/core\observe.c **** 
 130:C:/Users/dtjld/Desktop/AIoT_software/LiteOS_Lab_overseas/LiteOS_Lab/iot_link/network/lwm2m/wakaama_lwm2m/core\observe.c ****         parentP = contextP->observedList;
 131:C:/Users/dtjld/Desktop/AIoT_software/LiteOS_Lab_overseas/LiteOS_Lab/iot_link/network/lwm2m/wakaama_lwm2m/core\observe.c ****         while (parentP->next != NULL
 132:C:/Users/dtjld/Desktop/AIoT_software/LiteOS_Lab_overseas/LiteOS_Lab/iot_link/network/lwm2m/wakaama_lwm2m/core\observe.c ****                 && parentP->next != observedP)
 133:C:/Users/dtjld/Desktop/AIoT_software/LiteOS_Lab_overseas/LiteOS_Lab/iot_link/network/lwm2m/wakaama_lwm2m/core\observe.c ****         {
 134:C:/Users/dtjld/Desktop/AIoT_software/LiteOS_Lab_overseas/LiteOS_Lab/iot_link/network/lwm2m/wakaama_lwm2m/core\observe.c ****             parentP = parentP->next;
 135:C:/Users/dtjld/Desktop/AIoT_software/LiteOS_Lab_overseas/LiteOS_Lab/iot_link/network/lwm2m/wakaama_lwm2m/core\observe.c ****         }
 136:C:/Users/dtjld/Desktop/AIoT_software/LiteOS_Lab_overseas/LiteOS_Lab/iot_link/network/lwm2m/wakaama_lwm2m/core\observe.c ****         if (parentP->next != NULL)
 137:C:/Users/dtjld/Desktop/AIoT_software/LiteOS_Lab_overseas/LiteOS_Lab/iot_link/network/lwm2m/wakaama_lwm2m/core\observe.c ****         {
 138:C:/Users/dtjld/Desktop/AIoT_software/LiteOS_Lab_overseas/LiteOS_Lab/iot_link/network/lwm2m/wakaama_lwm2m/core\observe.c ****             parentP->next = parentP->next->next;
 139:C:/Users/dtjld/Desktop/AIoT_software/LiteOS_Lab_overseas/LiteOS_Lab/iot_link/network/lwm2m/wakaama_lwm2m/core\observe.c ****         }
 140:C:/Users/dtjld/Desktop/AIoT_software/LiteOS_Lab_overseas/LiteOS_Lab/iot_link/network/lwm2m/wakaama_lwm2m/core\observe.c ****     }
 141:C:/Users/dtjld/Desktop/AIoT_software/LiteOS_Lab_overseas/LiteOS_Lab/iot_link/network/lwm2m/wakaama_lwm2m/core\observe.c **** }
 267              		.loc 2 141 0
 268 001e 18E0     		b	.L18
 269              	.L13:
 270              	.LBB2:
 130:C:/Users/dtjld/Desktop/AIoT_software/LiteOS_Lab_overseas/LiteOS_Lab/iot_link/network/lwm2m/wakaama_lwm2m/core\observe.c ****         while (parentP->next != NULL
 271              		.loc 2 130 0
 272 0020 7B68     		ldr	r3, [r7, #4]
 273 0022 DB69     		ldr	r3, [r3, #28]
ARM GAS  C:\Users\dtjld\AppData\Local\Temp\ccRVA30A.s 			page 15


 274 0024 FB60     		str	r3, [r7, #12]
 131:C:/Users/dtjld/Desktop/AIoT_software/LiteOS_Lab_overseas/LiteOS_Lab/iot_link/network/lwm2m/wakaama_lwm2m/core\observe.c ****                 && parentP->next != observedP)
 275              		.loc 2 131 0
 276 0026 02E0     		b	.L15
 277              	.L17:
 134:C:/Users/dtjld/Desktop/AIoT_software/LiteOS_Lab_overseas/LiteOS_Lab/iot_link/network/lwm2m/wakaama_lwm2m/core\observe.c ****         }
 278              		.loc 2 134 0
 279 0028 FB68     		ldr	r3, [r7, #12]
 280 002a 1B68     		ldr	r3, [r3]
 281 002c FB60     		str	r3, [r7, #12]
 282              	.L15:
 131:C:/Users/dtjld/Desktop/AIoT_software/LiteOS_Lab_overseas/LiteOS_Lab/iot_link/network/lwm2m/wakaama_lwm2m/core\observe.c ****                 && parentP->next != observedP)
 283              		.loc 2 131 0
 284 002e FB68     		ldr	r3, [r7, #12]
 285 0030 1B68     		ldr	r3, [r3]
 286 0032 002B     		cmp	r3, #0
 287 0034 04D0     		beq	.L16
 132:C:/Users/dtjld/Desktop/AIoT_software/LiteOS_Lab_overseas/LiteOS_Lab/iot_link/network/lwm2m/wakaama_lwm2m/core\observe.c ****         {
 288              		.loc 2 132 0
 289 0036 FB68     		ldr	r3, [r7, #12]
 290 0038 1B68     		ldr	r3, [r3]
 291 003a 3A68     		ldr	r2, [r7]
 292 003c 9A42     		cmp	r2, r3
 293 003e F3D1     		bne	.L17
 294              	.L16:
 136:C:/Users/dtjld/Desktop/AIoT_software/LiteOS_Lab_overseas/LiteOS_Lab/iot_link/network/lwm2m/wakaama_lwm2m/core\observe.c ****         {
 295              		.loc 2 136 0
 296 0040 FB68     		ldr	r3, [r7, #12]
 297 0042 1B68     		ldr	r3, [r3]
 298 0044 002B     		cmp	r3, #0
 299 0046 04D0     		beq	.L18
 138:C:/Users/dtjld/Desktop/AIoT_software/LiteOS_Lab_overseas/LiteOS_Lab/iot_link/network/lwm2m/wakaama_lwm2m/core\observe.c ****         }
 300              		.loc 2 138 0
 301 0048 FB68     		ldr	r3, [r7, #12]
 302 004a 1B68     		ldr	r3, [r3]
 303 004c 1A68     		ldr	r2, [r3]
 304 004e FB68     		ldr	r3, [r7, #12]
 305 0050 1A60     		str	r2, [r3]
 306              	.L18:
 307              	.LBE2:
 308              		.loc 2 141 0
 309 0052 00BF     		nop
 310 0054 1437     		adds	r7, r7, #20
 311              	.LCFI21:
 312              		.cfi_def_cfa_offset 4
 313 0056 BD46     		mov	sp, r7
 314              	.LCFI22:
 315              		.cfi_def_cfa_register 13
 316              		@ sp needed
 317 0058 5DF8047B 		ldr	r7, [sp], #4
 318              	.LCFI23:
 319              		.cfi_restore 7
 320              		.cfi_def_cfa_offset 0
 321 005c 7047     		bx	lr
 322              		.cfi_endproc
 323              	.LFE6:
 325              		.section	.text.prv_findWatcher,"ax",%progbits
ARM GAS  C:\Users\dtjld\AppData\Local\Temp\ccRVA30A.s 			page 16


 326              		.align	1
 327              		.syntax unified
 328              		.thumb
 329              		.thumb_func
 330              		.fpu fpv4-sp-d16
 332              	prv_findWatcher:
 333              	.LFB7:
 142:C:/Users/dtjld/Desktop/AIoT_software/LiteOS_Lab_overseas/LiteOS_Lab/iot_link/network/lwm2m/wakaama_lwm2m/core\observe.c **** 
 143:C:/Users/dtjld/Desktop/AIoT_software/LiteOS_Lab_overseas/LiteOS_Lab/iot_link/network/lwm2m/wakaama_lwm2m/core\observe.c **** static lwm2m_watcher_t *prv_findWatcher(lwm2m_observed_t *observedP,
 144:C:/Users/dtjld/Desktop/AIoT_software/LiteOS_Lab_overseas/LiteOS_Lab/iot_link/network/lwm2m/wakaama_lwm2m/core\observe.c ****                                         lwm2m_server_t *serverP)
 145:C:/Users/dtjld/Desktop/AIoT_software/LiteOS_Lab_overseas/LiteOS_Lab/iot_link/network/lwm2m/wakaama_lwm2m/core\observe.c **** {
 334              		.loc 2 145 0
 335              		.cfi_startproc
 336              		@ args = 0, pretend = 0, frame = 16
 337              		@ frame_needed = 1, uses_anonymous_args = 0
 338              		@ link register save eliminated.
 339 0000 80B4     		push	{r7}
 340              	.LCFI24:
 341              		.cfi_def_cfa_offset 4
 342              		.cfi_offset 7, -4
 343 0002 85B0     		sub	sp, sp, #20
 344              	.LCFI25:
 345              		.cfi_def_cfa_offset 24
 346 0004 00AF     		add	r7, sp, #0
 347              	.LCFI26:
 348              		.cfi_def_cfa_register 7
 349 0006 7860     		str	r0, [r7, #4]
 350 0008 3960     		str	r1, [r7]
 146:C:/Users/dtjld/Desktop/AIoT_software/LiteOS_Lab_overseas/LiteOS_Lab/iot_link/network/lwm2m/wakaama_lwm2m/core\observe.c ****     lwm2m_watcher_t *targetP;
 147:C:/Users/dtjld/Desktop/AIoT_software/LiteOS_Lab_overseas/LiteOS_Lab/iot_link/network/lwm2m/wakaama_lwm2m/core\observe.c **** 
 148:C:/Users/dtjld/Desktop/AIoT_software/LiteOS_Lab_overseas/LiteOS_Lab/iot_link/network/lwm2m/wakaama_lwm2m/core\observe.c ****     targetP = observedP->watcherList;
 351              		.loc 2 148 0
 352 000a 7B68     		ldr	r3, [r7, #4]
 353 000c DB68     		ldr	r3, [r3, #12]
 354 000e FB60     		str	r3, [r7, #12]
 149:C:/Users/dtjld/Desktop/AIoT_software/LiteOS_Lab_overseas/LiteOS_Lab/iot_link/network/lwm2m/wakaama_lwm2m/core\observe.c ****     while (targetP != NULL
 355              		.loc 2 149 0
 356 0010 02E0     		b	.L20
 357              	.L22:
 150:C:/Users/dtjld/Desktop/AIoT_software/LiteOS_Lab_overseas/LiteOS_Lab/iot_link/network/lwm2m/wakaama_lwm2m/core\observe.c ****             && targetP->server != serverP)
 151:C:/Users/dtjld/Desktop/AIoT_software/LiteOS_Lab_overseas/LiteOS_Lab/iot_link/network/lwm2m/wakaama_lwm2m/core\observe.c ****     {
 152:C:/Users/dtjld/Desktop/AIoT_software/LiteOS_Lab_overseas/LiteOS_Lab/iot_link/network/lwm2m/wakaama_lwm2m/core\observe.c ****         targetP = targetP->next;
 358              		.loc 2 152 0
 359 0012 FB68     		ldr	r3, [r7, #12]
 360 0014 1B68     		ldr	r3, [r3]
 361 0016 FB60     		str	r3, [r7, #12]
 362              	.L20:
 149:C:/Users/dtjld/Desktop/AIoT_software/LiteOS_Lab_overseas/LiteOS_Lab/iot_link/network/lwm2m/wakaama_lwm2m/core\observe.c ****     while (targetP != NULL
 363              		.loc 2 149 0
 364 0018 FB68     		ldr	r3, [r7, #12]
 365 001a 002B     		cmp	r3, #0
 366 001c 04D0     		beq	.L21
 150:C:/Users/dtjld/Desktop/AIoT_software/LiteOS_Lab_overseas/LiteOS_Lab/iot_link/network/lwm2m/wakaama_lwm2m/core\observe.c ****             && targetP->server != serverP)
 367              		.loc 2 150 0
 368 001e FB68     		ldr	r3, [r7, #12]
 369 0020 9B68     		ldr	r3, [r3, #8]
 370 0022 3A68     		ldr	r2, [r7]
ARM GAS  C:\Users\dtjld\AppData\Local\Temp\ccRVA30A.s 			page 17


 371 0024 9A42     		cmp	r2, r3
 372 0026 F4D1     		bne	.L22
 373              	.L21:
 153:C:/Users/dtjld/Desktop/AIoT_software/LiteOS_Lab_overseas/LiteOS_Lab/iot_link/network/lwm2m/wakaama_lwm2m/core\observe.c ****     }
 154:C:/Users/dtjld/Desktop/AIoT_software/LiteOS_Lab_overseas/LiteOS_Lab/iot_link/network/lwm2m/wakaama_lwm2m/core\observe.c **** 
 155:C:/Users/dtjld/Desktop/AIoT_software/LiteOS_Lab_overseas/LiteOS_Lab/iot_link/network/lwm2m/wakaama_lwm2m/core\observe.c ****     return targetP;
 374              		.loc 2 155 0
 375 0028 FB68     		ldr	r3, [r7, #12]
 156:C:/Users/dtjld/Desktop/AIoT_software/LiteOS_Lab_overseas/LiteOS_Lab/iot_link/network/lwm2m/wakaama_lwm2m/core\observe.c **** }
 376              		.loc 2 156 0
 377 002a 1846     		mov	r0, r3
 378 002c 1437     		adds	r7, r7, #20
 379              	.LCFI27:
 380              		.cfi_def_cfa_offset 4
 381 002e BD46     		mov	sp, r7
 382              	.LCFI28:
 383              		.cfi_def_cfa_register 13
 384              		@ sp needed
 385 0030 5DF8047B 		ldr	r7, [sp], #4
 386              	.LCFI29:
 387              		.cfi_restore 7
 388              		.cfi_def_cfa_offset 0
 389 0034 7047     		bx	lr
 390              		.cfi_endproc
 391              	.LFE7:
 393              		.section	.text.prv_getWatcher,"ax",%progbits
 394              		.align	1
 395              		.syntax unified
 396              		.thumb
 397              		.thumb_func
 398              		.fpu fpv4-sp-d16
 400              	prv_getWatcher:
 401              	.LFB8:
 157:C:/Users/dtjld/Desktop/AIoT_software/LiteOS_Lab_overseas/LiteOS_Lab/iot_link/network/lwm2m/wakaama_lwm2m/core\observe.c **** 
 158:C:/Users/dtjld/Desktop/AIoT_software/LiteOS_Lab_overseas/LiteOS_Lab/iot_link/network/lwm2m/wakaama_lwm2m/core\observe.c **** static lwm2m_watcher_t *prv_getWatcher(lwm2m_context_t *contextP,
 159:C:/Users/dtjld/Desktop/AIoT_software/LiteOS_Lab_overseas/LiteOS_Lab/iot_link/network/lwm2m/wakaama_lwm2m/core\observe.c ****                                        lwm2m_uri_t *uriP,
 160:C:/Users/dtjld/Desktop/AIoT_software/LiteOS_Lab_overseas/LiteOS_Lab/iot_link/network/lwm2m/wakaama_lwm2m/core\observe.c ****                                        lwm2m_server_t *serverP)
 161:C:/Users/dtjld/Desktop/AIoT_software/LiteOS_Lab_overseas/LiteOS_Lab/iot_link/network/lwm2m/wakaama_lwm2m/core\observe.c **** {
 402              		.loc 2 161 0
 403              		.cfi_startproc
 404              		@ args = 0, pretend = 0, frame = 32
 405              		@ frame_needed = 1, uses_anonymous_args = 0
 406 0000 80B5     		push	{r7, lr}
 407              	.LCFI30:
 408              		.cfi_def_cfa_offset 8
 409              		.cfi_offset 7, -8
 410              		.cfi_offset 14, -4
 411 0002 88B0     		sub	sp, sp, #32
 412              	.LCFI31:
 413              		.cfi_def_cfa_offset 40
 414 0004 00AF     		add	r7, sp, #0
 415              	.LCFI32:
 416              		.cfi_def_cfa_register 7
 417 0006 F860     		str	r0, [r7, #12]
 418 0008 B960     		str	r1, [r7, #8]
 419 000a 7A60     		str	r2, [r7, #4]
 162:C:/Users/dtjld/Desktop/AIoT_software/LiteOS_Lab_overseas/LiteOS_Lab/iot_link/network/lwm2m/wakaama_lwm2m/core\observe.c ****     lwm2m_observed_t *observedP;
ARM GAS  C:\Users\dtjld\AppData\Local\Temp\ccRVA30A.s 			page 18


 163:C:/Users/dtjld/Desktop/AIoT_software/LiteOS_Lab_overseas/LiteOS_Lab/iot_link/network/lwm2m/wakaama_lwm2m/core\observe.c ****     bool allocatedObserver;
 164:C:/Users/dtjld/Desktop/AIoT_software/LiteOS_Lab_overseas/LiteOS_Lab/iot_link/network/lwm2m/wakaama_lwm2m/core\observe.c ****     lwm2m_watcher_t *watcherP;
 165:C:/Users/dtjld/Desktop/AIoT_software/LiteOS_Lab_overseas/LiteOS_Lab/iot_link/network/lwm2m/wakaama_lwm2m/core\observe.c **** 
 166:C:/Users/dtjld/Desktop/AIoT_software/LiteOS_Lab_overseas/LiteOS_Lab/iot_link/network/lwm2m/wakaama_lwm2m/core\observe.c ****     allocatedObserver = false;
 420              		.loc 2 166 0
 421 000c 0023     		movs	r3, #0
 422 000e FB76     		strb	r3, [r7, #27]
 167:C:/Users/dtjld/Desktop/AIoT_software/LiteOS_Lab_overseas/LiteOS_Lab/iot_link/network/lwm2m/wakaama_lwm2m/core\observe.c **** 
 168:C:/Users/dtjld/Desktop/AIoT_software/LiteOS_Lab_overseas/LiteOS_Lab/iot_link/network/lwm2m/wakaama_lwm2m/core\observe.c ****     observedP = prv_findObserved(contextP, uriP);
 423              		.loc 2 168 0
 424 0010 B968     		ldr	r1, [r7, #8]
 425 0012 F868     		ldr	r0, [r7, #12]
 426 0014 FFF7FEFF 		bl	prv_findObserved
 427 0018 F861     		str	r0, [r7, #28]
 169:C:/Users/dtjld/Desktop/AIoT_software/LiteOS_Lab_overseas/LiteOS_Lab/iot_link/network/lwm2m/wakaama_lwm2m/core\observe.c ****     if (observedP == NULL)
 428              		.loc 2 169 0
 429 001a FB69     		ldr	r3, [r7, #28]
 430 001c 002B     		cmp	r3, #0
 431 001e 27D1     		bne	.L25
 170:C:/Users/dtjld/Desktop/AIoT_software/LiteOS_Lab_overseas/LiteOS_Lab/iot_link/network/lwm2m/wakaama_lwm2m/core\observe.c ****     {
 171:C:/Users/dtjld/Desktop/AIoT_software/LiteOS_Lab_overseas/LiteOS_Lab/iot_link/network/lwm2m/wakaama_lwm2m/core\observe.c ****         observedP = (lwm2m_observed_t *)lwm2m_malloc(sizeof(lwm2m_observed_t));
 432              		.loc 2 171 0
 433 0020 1020     		movs	r0, #16
 434 0022 FFF7FEFF 		bl	lwm2m_malloc
 435 0026 F861     		str	r0, [r7, #28]
 172:C:/Users/dtjld/Desktop/AIoT_software/LiteOS_Lab_overseas/LiteOS_Lab/iot_link/network/lwm2m/wakaama_lwm2m/core\observe.c ****         if (observedP == NULL) return NULL;
 436              		.loc 2 172 0
 437 0028 FB69     		ldr	r3, [r7, #28]
 438 002a 002B     		cmp	r3, #0
 439 002c 01D1     		bne	.L26
 440              		.loc 2 172 0 is_stmt 0 discriminator 1
 441 002e 0023     		movs	r3, #0
 442 0030 52E0     		b	.L27
 443              	.L26:
 173:C:/Users/dtjld/Desktop/AIoT_software/LiteOS_Lab_overseas/LiteOS_Lab/iot_link/network/lwm2m/wakaama_lwm2m/core\observe.c ****         allocatedObserver = true;
 444              		.loc 2 173 0 is_stmt 1
 445 0032 0123     		movs	r3, #1
 446 0034 FB76     		strb	r3, [r7, #27]
 174:C:/Users/dtjld/Desktop/AIoT_software/LiteOS_Lab_overseas/LiteOS_Lab/iot_link/network/lwm2m/wakaama_lwm2m/core\observe.c ****         memset(observedP, 0, sizeof(lwm2m_observed_t));
 447              		.loc 2 174 0
 448 0036 1022     		movs	r2, #16
 449 0038 0021     		movs	r1, #0
 450 003a F869     		ldr	r0, [r7, #28]
 451 003c FFF7FEFF 		bl	memset
 175:C:/Users/dtjld/Desktop/AIoT_software/LiteOS_Lab_overseas/LiteOS_Lab/iot_link/network/lwm2m/wakaama_lwm2m/core\observe.c ****         memcpy(&(observedP->uri), uriP, sizeof(lwm2m_uri_t));
 452              		.loc 2 175 0
 453 0040 FB69     		ldr	r3, [r7, #28]
 454 0042 0433     		adds	r3, r3, #4
 455 0044 0822     		movs	r2, #8
 456 0046 B968     		ldr	r1, [r7, #8]
 457 0048 1846     		mov	r0, r3
 458 004a FFF7FEFF 		bl	memcpy
 176:C:/Users/dtjld/Desktop/AIoT_software/LiteOS_Lab_overseas/LiteOS_Lab/iot_link/network/lwm2m/wakaama_lwm2m/core\observe.c ****         osal_mutex_lock(contextP->observe_mutex);
 459              		.loc 2 176 0
 460 004e FB68     		ldr	r3, [r7, #12]
 461 0050 1B6A     		ldr	r3, [r3, #32]
 462 0052 1846     		mov	r0, r3
ARM GAS  C:\Users\dtjld\AppData\Local\Temp\ccRVA30A.s 			page 19


 463 0054 FFF7FEFF 		bl	osal_mutex_lock
 177:C:/Users/dtjld/Desktop/AIoT_software/LiteOS_Lab_overseas/LiteOS_Lab/iot_link/network/lwm2m/wakaama_lwm2m/core\observe.c ****         observedP->next = contextP->observedList;
 464              		.loc 2 177 0
 465 0058 FB68     		ldr	r3, [r7, #12]
 466 005a DA69     		ldr	r2, [r3, #28]
 467 005c FB69     		ldr	r3, [r7, #28]
 468 005e 1A60     		str	r2, [r3]
 178:C:/Users/dtjld/Desktop/AIoT_software/LiteOS_Lab_overseas/LiteOS_Lab/iot_link/network/lwm2m/wakaama_lwm2m/core\observe.c ****         contextP->observedList = observedP;
 469              		.loc 2 178 0
 470 0060 FB68     		ldr	r3, [r7, #12]
 471 0062 FA69     		ldr	r2, [r7, #28]
 472 0064 DA61     		str	r2, [r3, #28]
 179:C:/Users/dtjld/Desktop/AIoT_software/LiteOS_Lab_overseas/LiteOS_Lab/iot_link/network/lwm2m/wakaama_lwm2m/core\observe.c ****         osal_mutex_unlock(contextP->observe_mutex);
 473              		.loc 2 179 0
 474 0066 FB68     		ldr	r3, [r7, #12]
 475 0068 1B6A     		ldr	r3, [r3, #32]
 476 006a 1846     		mov	r0, r3
 477 006c FFF7FEFF 		bl	osal_mutex_unlock
 478              	.L25:
 180:C:/Users/dtjld/Desktop/AIoT_software/LiteOS_Lab_overseas/LiteOS_Lab/iot_link/network/lwm2m/wakaama_lwm2m/core\observe.c ****     }
 181:C:/Users/dtjld/Desktop/AIoT_software/LiteOS_Lab_overseas/LiteOS_Lab/iot_link/network/lwm2m/wakaama_lwm2m/core\observe.c **** 
 182:C:/Users/dtjld/Desktop/AIoT_software/LiteOS_Lab_overseas/LiteOS_Lab/iot_link/network/lwm2m/wakaama_lwm2m/core\observe.c ****     watcherP = prv_findWatcher(observedP, serverP);
 479              		.loc 2 182 0
 480 0070 7968     		ldr	r1, [r7, #4]
 481 0072 F869     		ldr	r0, [r7, #28]
 482 0074 FFF7FEFF 		bl	prv_findWatcher
 483 0078 7861     		str	r0, [r7, #20]
 183:C:/Users/dtjld/Desktop/AIoT_software/LiteOS_Lab_overseas/LiteOS_Lab/iot_link/network/lwm2m/wakaama_lwm2m/core\observe.c ****     if (watcherP == NULL)
 484              		.loc 2 183 0
 485 007a 7B69     		ldr	r3, [r7, #20]
 486 007c 002B     		cmp	r3, #0
 487 007e 2AD1     		bne	.L28
 184:C:/Users/dtjld/Desktop/AIoT_software/LiteOS_Lab_overseas/LiteOS_Lab/iot_link/network/lwm2m/wakaama_lwm2m/core\observe.c ****     {
 185:C:/Users/dtjld/Desktop/AIoT_software/LiteOS_Lab_overseas/LiteOS_Lab/iot_link/network/lwm2m/wakaama_lwm2m/core\observe.c ****         watcherP = (lwm2m_watcher_t *)lwm2m_malloc(sizeof(lwm2m_watcher_t));
 488              		.loc 2 185 0
 489 0080 3820     		movs	r0, #56
 490 0082 FFF7FEFF 		bl	lwm2m_malloc
 491 0086 7861     		str	r0, [r7, #20]
 186:C:/Users/dtjld/Desktop/AIoT_software/LiteOS_Lab_overseas/LiteOS_Lab/iot_link/network/lwm2m/wakaama_lwm2m/core\observe.c ****         if (watcherP == NULL)
 492              		.loc 2 186 0
 493 0088 7B69     		ldr	r3, [r7, #20]
 494 008a 002B     		cmp	r3, #0
 495 008c 07D1     		bne	.L29
 187:C:/Users/dtjld/Desktop/AIoT_software/LiteOS_Lab_overseas/LiteOS_Lab/iot_link/network/lwm2m/wakaama_lwm2m/core\observe.c ****         {
 188:C:/Users/dtjld/Desktop/AIoT_software/LiteOS_Lab_overseas/LiteOS_Lab/iot_link/network/lwm2m/wakaama_lwm2m/core\observe.c ****             if (allocatedObserver == true)
 496              		.loc 2 188 0
 497 008e FB7E     		ldrb	r3, [r7, #27]	@ zero_extendqisi2
 498 0090 002B     		cmp	r3, #0
 499 0092 02D0     		beq	.L30
 189:C:/Users/dtjld/Desktop/AIoT_software/LiteOS_Lab_overseas/LiteOS_Lab/iot_link/network/lwm2m/wakaama_lwm2m/core\observe.c ****             {
 190:C:/Users/dtjld/Desktop/AIoT_software/LiteOS_Lab_overseas/LiteOS_Lab/iot_link/network/lwm2m/wakaama_lwm2m/core\observe.c ****                 lwm2m_free(observedP);
 500              		.loc 2 190 0
 501 0094 F869     		ldr	r0, [r7, #28]
 502 0096 FFF7FEFF 		bl	lwm2m_free
 503              	.L30:
 191:C:/Users/dtjld/Desktop/AIoT_software/LiteOS_Lab_overseas/LiteOS_Lab/iot_link/network/lwm2m/wakaama_lwm2m/core\observe.c ****             }
 192:C:/Users/dtjld/Desktop/AIoT_software/LiteOS_Lab_overseas/LiteOS_Lab/iot_link/network/lwm2m/wakaama_lwm2m/core\observe.c ****             return NULL;
ARM GAS  C:\Users\dtjld\AppData\Local\Temp\ccRVA30A.s 			page 20


 504              		.loc 2 192 0
 505 009a 0023     		movs	r3, #0
 506 009c 1CE0     		b	.L27
 507              	.L29:
 193:C:/Users/dtjld/Desktop/AIoT_software/LiteOS_Lab_overseas/LiteOS_Lab/iot_link/network/lwm2m/wakaama_lwm2m/core\observe.c ****         }
 194:C:/Users/dtjld/Desktop/AIoT_software/LiteOS_Lab_overseas/LiteOS_Lab/iot_link/network/lwm2m/wakaama_lwm2m/core\observe.c ****         memset(watcherP, 0, sizeof(lwm2m_watcher_t));
 508              		.loc 2 194 0
 509 009e 3822     		movs	r2, #56
 510 00a0 0021     		movs	r1, #0
 511 00a2 7869     		ldr	r0, [r7, #20]
 512 00a4 FFF7FEFF 		bl	memset
 195:C:/Users/dtjld/Desktop/AIoT_software/LiteOS_Lab_overseas/LiteOS_Lab/iot_link/network/lwm2m/wakaama_lwm2m/core\observe.c ****         watcherP->active = false;
 513              		.loc 2 195 0
 514 00a8 7B69     		ldr	r3, [r7, #20]
 515 00aa 0022     		movs	r2, #0
 516 00ac 1A71     		strb	r2, [r3, #4]
 196:C:/Users/dtjld/Desktop/AIoT_software/LiteOS_Lab_overseas/LiteOS_Lab/iot_link/network/lwm2m/wakaama_lwm2m/core\observe.c ****         watcherP->server = serverP;
 517              		.loc 2 196 0
 518 00ae 7B69     		ldr	r3, [r7, #20]
 519 00b0 7A68     		ldr	r2, [r7, #4]
 520 00b2 9A60     		str	r2, [r3, #8]
 197:C:/Users/dtjld/Desktop/AIoT_software/LiteOS_Lab_overseas/LiteOS_Lab/iot_link/network/lwm2m/wakaama_lwm2m/core\observe.c ****         osal_mutex_lock(contextP->observe_mutex);
 521              		.loc 2 197 0
 522 00b4 FB68     		ldr	r3, [r7, #12]
 523 00b6 1B6A     		ldr	r3, [r3, #32]
 524 00b8 1846     		mov	r0, r3
 525 00ba FFF7FEFF 		bl	osal_mutex_lock
 198:C:/Users/dtjld/Desktop/AIoT_software/LiteOS_Lab_overseas/LiteOS_Lab/iot_link/network/lwm2m/wakaama_lwm2m/core\observe.c ****         watcherP->next = observedP->watcherList;
 526              		.loc 2 198 0
 527 00be FB69     		ldr	r3, [r7, #28]
 528 00c0 DA68     		ldr	r2, [r3, #12]
 529 00c2 7B69     		ldr	r3, [r7, #20]
 530 00c4 1A60     		str	r2, [r3]
 199:C:/Users/dtjld/Desktop/AIoT_software/LiteOS_Lab_overseas/LiteOS_Lab/iot_link/network/lwm2m/wakaama_lwm2m/core\observe.c ****         observedP->watcherList = watcherP;
 531              		.loc 2 199 0
 532 00c6 FB69     		ldr	r3, [r7, #28]
 533 00c8 7A69     		ldr	r2, [r7, #20]
 534 00ca DA60     		str	r2, [r3, #12]
 200:C:/Users/dtjld/Desktop/AIoT_software/LiteOS_Lab_overseas/LiteOS_Lab/iot_link/network/lwm2m/wakaama_lwm2m/core\observe.c ****         osal_mutex_unlock(contextP->observe_mutex);
 535              		.loc 2 200 0
 536 00cc FB68     		ldr	r3, [r7, #12]
 537 00ce 1B6A     		ldr	r3, [r3, #32]
 538 00d0 1846     		mov	r0, r3
 539 00d2 FFF7FEFF 		bl	osal_mutex_unlock
 540              	.L28:
 201:C:/Users/dtjld/Desktop/AIoT_software/LiteOS_Lab_overseas/LiteOS_Lab/iot_link/network/lwm2m/wakaama_lwm2m/core\observe.c ****     }
 202:C:/Users/dtjld/Desktop/AIoT_software/LiteOS_Lab_overseas/LiteOS_Lab/iot_link/network/lwm2m/wakaama_lwm2m/core\observe.c **** 
 203:C:/Users/dtjld/Desktop/AIoT_software/LiteOS_Lab_overseas/LiteOS_Lab/iot_link/network/lwm2m/wakaama_lwm2m/core\observe.c ****     return watcherP;
 541              		.loc 2 203 0
 542 00d6 7B69     		ldr	r3, [r7, #20]
 543              	.L27:
 204:C:/Users/dtjld/Desktop/AIoT_software/LiteOS_Lab_overseas/LiteOS_Lab/iot_link/network/lwm2m/wakaama_lwm2m/core\observe.c **** }
 544              		.loc 2 204 0
 545 00d8 1846     		mov	r0, r3
 546 00da 2037     		adds	r7, r7, #32
 547              	.LCFI33:
 548              		.cfi_def_cfa_offset 8
ARM GAS  C:\Users\dtjld\AppData\Local\Temp\ccRVA30A.s 			page 21


 549 00dc BD46     		mov	sp, r7
 550              	.LCFI34:
 551              		.cfi_def_cfa_register 13
 552              		@ sp needed
 553 00de 80BD     		pop	{r7, pc}
 554              		.cfi_endproc
 555              	.LFE8:
 557              		.section	.rodata
 558              		.align	2
 559              	.LC0:
 560 0000 53544154 		.ascii	"STATE_BS_FAILED\000"
 560      455F4253 
 560      5F464149 
 560      4C454400 
 561              		.align	2
 562              	.LC1:
 563 0010 556E6B6E 		.ascii	"Unknown\000"
 563      6F776E00 
 564              		.align	2
 565              	.LC2:
 566 0018 53544154 		.ascii	"STATE_BS_FAILING\000"
 566      455F4253 
 566      5F464149 
 566      4C494E47 
 566      00
 567 0029 000000   		.align	2
 568              	.LC3:
 569 002c 53544154 		.ascii	"STATE_BS_FINISHING\000"
 569      455F4253 
 569      5F46494E 
 569      49534849 
 569      4E4700
 570 003f 00       		.align	2
 571              	.LC4:
 572 0040 53544154 		.ascii	"STATE_BS_FINISHED\000"
 572      455F4253 
 572      5F46494E 
 572      49534845 
 572      4400
 573 0052 0000     		.align	2
 574              	.LC5:
 575 0054 53544154 		.ascii	"STATE_BS_PENDING\000"
 575      455F4253 
 575      5F50454E 
 575      44494E47 
 575      00
 576 0065 000000   		.align	2
 577              	.LC6:
 578 0068 53544154 		.ascii	"STATE_BS_INITIATED\000"
 578      455F4253 
 578      5F494E49 
 578      54494154 
 578      454400
 579 007b 00       		.align	2
 580              	.LC7:
 581 007c 53544154 		.ascii	"STATE_BS_HOLD_OFF\000"
 581      455F4253 
ARM GAS  C:\Users\dtjld\AppData\Local\Temp\ccRVA30A.s 			page 22


 581      5F484F4C 
 581      445F4F46 
 581      4600
 582 008e 0000     		.align	2
 583              	.LC8:
 584 0090 53544154 		.ascii	"STATE_DEREG_PENDING\000"
 584      455F4445 
 584      5245475F 
 584      50454E44 
 584      494E4700 
 585              		.align	2
 586              	.LC9:
 587 00a4 53544154 		.ascii	"STATE_REG_FULL_UPDATE_NEEDED\000"
 587      455F5245 
 587      475F4655 
 587      4C4C5F55 
 587      50444154 
 588 00c1 000000   		.align	2
 589              	.LC10:
 590 00c4 53544154 		.ascii	"STATE_REG_UPDATE_NEEDED\000"
 590      455F5245 
 590      475F5550 
 590      44415445 
 590      5F4E4545 
 591              		.align	2
 592              	.LC11:
 593 00dc 53544154 		.ascii	"STATE_REG_UPDATE_PENDING\000"
 593      455F5245 
 593      475F5550 
 593      44415445 
 593      5F50454E 
 594 00f5 000000   		.align	2
 595              	.LC12:
 596 00f8 53544154 		.ascii	"STATE_REG_FAILED\000"
 596      455F5245 
 596      475F4641 
 596      494C4544 
 596      00
 597 0109 000000   		.align	2
 598              	.LC13:
 599 010c 53544154 		.ascii	"STATE_REGISTERED\000"
 599      455F5245 
 599      47495354 
 599      45524544 
 599      00
 600 011d 000000   		.align	2
 601              	.LC14:
 602 0120 53544154 		.ascii	"STATE_REG_PENDING\000"
 602      455F5245 
 602      475F5045 
 602      4E44494E 
 602      4700
 603 0132 0000     		.align	2
 604              	.LC15:
 605 0134 53544154 		.ascii	"STATE_DEREGISTERED\000"
 605      455F4445 
 605      52454749 
ARM GAS  C:\Users\dtjld\AppData\Local\Temp\ccRVA30A.s 			page 23


 605      53544552 
 605      454400
 606 0147 00       		.align	2
 607              	.LC16:
 608 0148 5B25645D 		.ascii	"[%d][%s:%d] Code: %02X, server status: %s\015\012\000"
 608      5B25733A 
 608      25645D20 
 608      436F6465 
 608      3A202530 
 609              		.align	2
 610              	.LC17:
 611 0174 5B25733A 		.ascii	"[%s:%d] NULL\015\012\000"
 611      25645D20 
 611      4E554C4C 
 611      0D0A00
 612 0183 00       		.align	2
 613              	.LC18:
 614 0184 5B25733A 		.ascii	"[%s:%d] /%d\000"
 614      25645D20 
 614      2F256400 
 615              		.align	2
 616              	.LC19:
 617 0190 2F256400 		.ascii	"/%d\000"
 618              		.align	2
 619              	.LC20:
 620 0194 0D0A00   		.ascii	"\015\012\000"
 621              		.section	.text.observe_handleRequest,"ax",%progbits
 622              		.align	1
 623              		.global	observe_handleRequest
 624              		.syntax unified
 625              		.thumb
 626              		.thumb_func
 627              		.fpu fpv4-sp-d16
 629              	observe_handleRequest:
 630              	.LFB9:
 205:C:/Users/dtjld/Desktop/AIoT_software/LiteOS_Lab_overseas/LiteOS_Lab/iot_link/network/lwm2m/wakaama_lwm2m/core\observe.c **** 
 206:C:/Users/dtjld/Desktop/AIoT_software/LiteOS_Lab_overseas/LiteOS_Lab/iot_link/network/lwm2m/wakaama_lwm2m/core\observe.c **** uint8_t observe_handleRequest(lwm2m_context_t *contextP,
 207:C:/Users/dtjld/Desktop/AIoT_software/LiteOS_Lab_overseas/LiteOS_Lab/iot_link/network/lwm2m/wakaama_lwm2m/core\observe.c ****                               lwm2m_uri_t *uriP,
 208:C:/Users/dtjld/Desktop/AIoT_software/LiteOS_Lab_overseas/LiteOS_Lab/iot_link/network/lwm2m/wakaama_lwm2m/core\observe.c ****                               lwm2m_server_t *serverP,
 209:C:/Users/dtjld/Desktop/AIoT_software/LiteOS_Lab_overseas/LiteOS_Lab/iot_link/network/lwm2m/wakaama_lwm2m/core\observe.c ****                               int size,
 210:C:/Users/dtjld/Desktop/AIoT_software/LiteOS_Lab_overseas/LiteOS_Lab/iot_link/network/lwm2m/wakaama_lwm2m/core\observe.c ****                               lwm2m_data_t *dataP,
 211:C:/Users/dtjld/Desktop/AIoT_software/LiteOS_Lab_overseas/LiteOS_Lab/iot_link/network/lwm2m/wakaama_lwm2m/core\observe.c ****                               coap_packet_t *message,
 212:C:/Users/dtjld/Desktop/AIoT_software/LiteOS_Lab_overseas/LiteOS_Lab/iot_link/network/lwm2m/wakaama_lwm2m/core\observe.c ****                               coap_packet_t *response)
 213:C:/Users/dtjld/Desktop/AIoT_software/LiteOS_Lab_overseas/LiteOS_Lab/iot_link/network/lwm2m/wakaama_lwm2m/core\observe.c **** {
 631              		.loc 2 213 0
 632              		.cfi_startproc
 633              		@ args = 12, pretend = 0, frame = 32
 634              		@ frame_needed = 1, uses_anonymous_args = 0
 635 0000 90B5     		push	{r4, r7, lr}
 636              	.LCFI35:
 637              		.cfi_def_cfa_offset 12
 638              		.cfi_offset 4, -12
 639              		.cfi_offset 7, -8
 640              		.cfi_offset 14, -4
 641 0002 8BB0     		sub	sp, sp, #44
 642              	.LCFI36:
 643              		.cfi_def_cfa_offset 56
ARM GAS  C:\Users\dtjld\AppData\Local\Temp\ccRVA30A.s 			page 24


 644 0004 02AF     		add	r7, sp, #8
 645              	.LCFI37:
 646              		.cfi_def_cfa 7, 48
 647 0006 F860     		str	r0, [r7, #12]
 648 0008 B960     		str	r1, [r7, #8]
 649 000a 7A60     		str	r2, [r7, #4]
 650 000c 3B60     		str	r3, [r7]
 214:C:/Users/dtjld/Desktop/AIoT_software/LiteOS_Lab_overseas/LiteOS_Lab/iot_link/network/lwm2m/wakaama_lwm2m/core\observe.c ****     lwm2m_observed_t * observedP;
 215:C:/Users/dtjld/Desktop/AIoT_software/LiteOS_Lab_overseas/LiteOS_Lab/iot_link/network/lwm2m/wakaama_lwm2m/core\observe.c ****     lwm2m_watcher_t *watcherP;
 216:C:/Users/dtjld/Desktop/AIoT_software/LiteOS_Lab_overseas/LiteOS_Lab/iot_link/network/lwm2m/wakaama_lwm2m/core\observe.c ****     uint32_t count;
 217:C:/Users/dtjld/Desktop/AIoT_software/LiteOS_Lab_overseas/LiteOS_Lab/iot_link/network/lwm2m/wakaama_lwm2m/core\observe.c **** 
 218:C:/Users/dtjld/Desktop/AIoT_software/LiteOS_Lab_overseas/LiteOS_Lab/iot_link/network/lwm2m/wakaama_lwm2m/core\observe.c ****     LOG_ARG("Code: %02X, server status: %s", message->code, STR_STATUS(serverP->status));
 651              		.loc 2 218 0
 652 000e FFF7FEFF 		bl	lwm2m_gettime
 653 0012 0346     		mov	r3, r0
 654 0014 0C46     		mov	r4, r1
 655 0016 1946     		mov	r1, r3
 656 0018 7B6B     		ldr	r3, [r7, #52]
 657 001a 9B79     		ldrb	r3, [r3, #6]	@ zero_extendqisi2
 658 001c 1A46     		mov	r2, r3
 659 001e 7B68     		ldr	r3, [r7, #4]
 660 0020 93F82030 		ldrb	r3, [r3, #32]	@ zero_extendqisi2
 661 0024 002B     		cmp	r3, #0
 662 0026 63D0     		beq	.L32
 663              		.loc 2 218 0 is_stmt 0 discriminator 1
 664 0028 7B68     		ldr	r3, [r7, #4]
 665 002a 93F82030 		ldrb	r3, [r3, #32]	@ zero_extendqisi2
 666 002e 012B     		cmp	r3, #1
 667 0030 5CD0     		beq	.L33
 668              		.loc 2 218 0 discriminator 3
 669 0032 7B68     		ldr	r3, [r7, #4]
 670 0034 93F82030 		ldrb	r3, [r3, #32]	@ zero_extendqisi2
 671 0038 022B     		cmp	r3, #2
 672 003a 55D0     		beq	.L34
 673              		.loc 2 218 0 discriminator 5
 674 003c 7B68     		ldr	r3, [r7, #4]
 675 003e 93F82030 		ldrb	r3, [r3, #32]	@ zero_extendqisi2
 676 0042 032B     		cmp	r3, #3
 677 0044 4ED0     		beq	.L35
 678              		.loc 2 218 0 discriminator 7
 679 0046 7B68     		ldr	r3, [r7, #4]
 680 0048 93F82030 		ldrb	r3, [r3, #32]	@ zero_extendqisi2
 681 004c 042B     		cmp	r3, #4
 682 004e 47D0     		beq	.L36
 683              		.loc 2 218 0 discriminator 9
 684 0050 7B68     		ldr	r3, [r7, #4]
 685 0052 93F82030 		ldrb	r3, [r3, #32]	@ zero_extendqisi2
 686 0056 052B     		cmp	r3, #5
 687 0058 40D0     		beq	.L37
 688              		.loc 2 218 0 discriminator 11
 689 005a 7B68     		ldr	r3, [r7, #4]
 690 005c 93F82030 		ldrb	r3, [r3, #32]	@ zero_extendqisi2
 691 0060 062B     		cmp	r3, #6
 692 0062 39D0     		beq	.L38
 693              		.loc 2 218 0 discriminator 13
 694 0064 7B68     		ldr	r3, [r7, #4]
 695 0066 93F82030 		ldrb	r3, [r3, #32]	@ zero_extendqisi2
ARM GAS  C:\Users\dtjld\AppData\Local\Temp\ccRVA30A.s 			page 25


 696 006a 072B     		cmp	r3, #7
 697 006c 32D0     		beq	.L39
 698              		.loc 2 218 0 discriminator 15
 699 006e 7B68     		ldr	r3, [r7, #4]
 700 0070 93F82030 		ldrb	r3, [r3, #32]	@ zero_extendqisi2
 701 0074 082B     		cmp	r3, #8
 702 0076 2BD0     		beq	.L40
 703              		.loc 2 218 0 discriminator 17
 704 0078 7B68     		ldr	r3, [r7, #4]
 705 007a 93F82030 		ldrb	r3, [r3, #32]	@ zero_extendqisi2
 706 007e 092B     		cmp	r3, #9
 707 0080 24D0     		beq	.L41
 708              		.loc 2 218 0 discriminator 19
 709 0082 7B68     		ldr	r3, [r7, #4]
 710 0084 93F82030 		ldrb	r3, [r3, #32]	@ zero_extendqisi2
 711 0088 0A2B     		cmp	r3, #10
 712 008a 1DD0     		beq	.L42
 713              		.loc 2 218 0 discriminator 21
 714 008c 7B68     		ldr	r3, [r7, #4]
 715 008e 93F82030 		ldrb	r3, [r3, #32]	@ zero_extendqisi2
 716 0092 0C2B     		cmp	r3, #12
 717 0094 16D0     		beq	.L43
 718              		.loc 2 218 0 discriminator 23
 719 0096 7B68     		ldr	r3, [r7, #4]
 720 0098 93F82030 		ldrb	r3, [r3, #32]	@ zero_extendqisi2
 721 009c 0B2B     		cmp	r3, #11
 722 009e 0FD0     		beq	.L44
 723              		.loc 2 218 0 discriminator 25
 724 00a0 7B68     		ldr	r3, [r7, #4]
 725 00a2 93F82030 		ldrb	r3, [r3, #32]	@ zero_extendqisi2
 726 00a6 0D2B     		cmp	r3, #13
 727 00a8 08D0     		beq	.L45
 728              		.loc 2 218 0 discriminator 27
 729 00aa 7B68     		ldr	r3, [r7, #4]
 730 00ac 93F82030 		ldrb	r3, [r3, #32]	@ zero_extendqisi2
 731 00b0 0E2B     		cmp	r3, #14
 732 00b2 01D1     		bne	.L46
 733              		.loc 2 218 0 discriminator 29
 734 00b4 824B     		ldr	r3, .L87
 735 00b6 1CE0     		b	.L61
 736              	.L46:
 737              		.loc 2 218 0 discriminator 30
 738 00b8 824B     		ldr	r3, .L87+4
 739 00ba 1AE0     		b	.L61
 740              	.L45:
 741              		.loc 2 218 0 discriminator 28
 742 00bc 824B     		ldr	r3, .L87+8
 743 00be 18E0     		b	.L61
 744              	.L44:
 745              		.loc 2 218 0 discriminator 26
 746 00c0 824B     		ldr	r3, .L87+12
 747 00c2 16E0     		b	.L61
 748              	.L43:
 749              		.loc 2 218 0 discriminator 24
 750 00c4 824B     		ldr	r3, .L87+16
 751 00c6 14E0     		b	.L61
 752              	.L42:
ARM GAS  C:\Users\dtjld\AppData\Local\Temp\ccRVA30A.s 			page 26


 753              		.loc 2 218 0 discriminator 22
 754 00c8 824B     		ldr	r3, .L87+20
 755 00ca 12E0     		b	.L61
 756              	.L41:
 757              		.loc 2 218 0 discriminator 20
 758 00cc 824B     		ldr	r3, .L87+24
 759 00ce 10E0     		b	.L61
 760              	.L40:
 761              		.loc 2 218 0 discriminator 18
 762 00d0 824B     		ldr	r3, .L87+28
 763 00d2 0EE0     		b	.L61
 764              	.L39:
 765              		.loc 2 218 0 discriminator 16
 766 00d4 824B     		ldr	r3, .L87+32
 767 00d6 0CE0     		b	.L61
 768              	.L38:
 769              		.loc 2 218 0 discriminator 14
 770 00d8 824B     		ldr	r3, .L87+36
 771 00da 0AE0     		b	.L61
 772              	.L37:
 773              		.loc 2 218 0 discriminator 12
 774 00dc 824B     		ldr	r3, .L87+40
 775 00de 08E0     		b	.L61
 776              	.L36:
 777              		.loc 2 218 0 discriminator 10
 778 00e0 824B     		ldr	r3, .L87+44
 779 00e2 06E0     		b	.L61
 780              	.L35:
 781              		.loc 2 218 0 discriminator 8
 782 00e4 824B     		ldr	r3, .L87+48
 783 00e6 04E0     		b	.L61
 784              	.L34:
 785              		.loc 2 218 0 discriminator 6
 786 00e8 824B     		ldr	r3, .L87+52
 787 00ea 02E0     		b	.L61
 788              	.L33:
 789              		.loc 2 218 0 discriminator 4
 790 00ec 824B     		ldr	r3, .L87+56
 791 00ee 00E0     		b	.L61
 792              	.L32:
 793              		.loc 2 218 0 discriminator 2
 794 00f0 824B     		ldr	r3, .L87+60
 795              	.L61:
 796              		.loc 2 218 0 discriminator 60
 797 00f2 0193     		str	r3, [sp, #4]
 798 00f4 0092     		str	r2, [sp]
 799 00f6 DA23     		movs	r3, #218
 800 00f8 814A     		ldr	r2, .L87+64
 801 00fa 8248     		ldr	r0, .L87+68
 802 00fc FFF7FEFF 		bl	atiny_printf
 219:C:/Users/dtjld/Desktop/AIoT_software/LiteOS_Lab_overseas/LiteOS_Lab/iot_link/network/lwm2m/wakaama_lwm2m/core\observe.c ****     LOG_URI(uriP);
 803              		.loc 2 219 0 is_stmt 1 discriminator 60
 804 0100 BB68     		ldr	r3, [r7, #8]
 805 0102 002B     		cmp	r3, #0
 806 0104 05D1     		bne	.L62
 807              		.loc 2 219 0 is_stmt 0 discriminator 1
 808 0106 DB22     		movs	r2, #219
ARM GAS  C:\Users\dtjld\AppData\Local\Temp\ccRVA30A.s 			page 27


 809 0108 7D49     		ldr	r1, .L87+64
 810 010a 7F48     		ldr	r0, .L87+72
 811 010c FFF7FEFF 		bl	atiny_printf
 812 0110 21E0     		b	.L63
 813              	.L62:
 814              		.loc 2 219 0 discriminator 2
 815 0112 BB68     		ldr	r3, [r7, #8]
 816 0114 5B88     		ldrh	r3, [r3, #2]
 817 0116 DB22     		movs	r2, #219
 818 0118 7949     		ldr	r1, .L87+64
 819 011a 7C48     		ldr	r0, .L87+76
 820 011c FFF7FEFF 		bl	atiny_printf
 821 0120 BB68     		ldr	r3, [r7, #8]
 822 0122 1B78     		ldrb	r3, [r3]	@ zero_extendqisi2
 823 0124 03F00203 		and	r3, r3, #2
 824 0128 002B     		cmp	r3, #0
 825 012a 05D0     		beq	.L64
 826              		.loc 2 219 0 discriminator 3
 827 012c BB68     		ldr	r3, [r7, #8]
 828 012e 9B88     		ldrh	r3, [r3, #4]
 829 0130 1946     		mov	r1, r3
 830 0132 7748     		ldr	r0, .L87+80
 831 0134 FFF7FEFF 		bl	atiny_printf
 832              	.L64:
 833              		.loc 2 219 0 discriminator 5
 834 0138 BB68     		ldr	r3, [r7, #8]
 835 013a 1B78     		ldrb	r3, [r3]	@ zero_extendqisi2
 836 013c 03F00103 		and	r3, r3, #1
 837 0140 002B     		cmp	r3, #0
 838 0142 05D0     		beq	.L65
 839              		.loc 2 219 0 discriminator 6
 840 0144 BB68     		ldr	r3, [r7, #8]
 841 0146 DB88     		ldrh	r3, [r3, #6]
 842 0148 1946     		mov	r1, r3
 843 014a 7148     		ldr	r0, .L87+80
 844 014c FFF7FEFF 		bl	atiny_printf
 845              	.L65:
 846              		.loc 2 219 0 discriminator 8
 847 0150 7048     		ldr	r0, .L87+84
 848 0152 FFF7FEFF 		bl	atiny_printf
 849              	.L63:
 220:C:/Users/dtjld/Desktop/AIoT_software/LiteOS_Lab_overseas/LiteOS_Lab/iot_link/network/lwm2m/wakaama_lwm2m/core\observe.c **** 
 221:C:/Users/dtjld/Desktop/AIoT_software/LiteOS_Lab_overseas/LiteOS_Lab/iot_link/network/lwm2m/wakaama_lwm2m/core\observe.c ****     coap_get_header_observe(message, &count);
 850              		.loc 2 221 0 is_stmt 1
 851 0156 07F11403 		add	r3, r7, #20
 852 015a 1946     		mov	r1, r3
 853 015c 786B     		ldr	r0, [r7, #52]
 854 015e FFF7FEFF 		bl	coap_get_header_observe
 222:C:/Users/dtjld/Desktop/AIoT_software/LiteOS_Lab_overseas/LiteOS_Lab/iot_link/network/lwm2m/wakaama_lwm2m/core\observe.c **** 
 223:C:/Users/dtjld/Desktop/AIoT_software/LiteOS_Lab_overseas/LiteOS_Lab/iot_link/network/lwm2m/wakaama_lwm2m/core\observe.c ****     switch (count)
 855              		.loc 2 223 0
 856 0162 7B69     		ldr	r3, [r7, #20]
 857 0164 002B     		cmp	r3, #0
 858 0166 03D0     		beq	.L67
 859 0168 012B     		cmp	r3, #1
 860 016a 00F08980 		beq	.L68
 861 016e A1E0     		b	.L83
ARM GAS  C:\Users\dtjld\AppData\Local\Temp\ccRVA30A.s 			page 28


 862              	.L67:
 224:C:/Users/dtjld/Desktop/AIoT_software/LiteOS_Lab_overseas/LiteOS_Lab/iot_link/network/lwm2m/wakaama_lwm2m/core\observe.c ****     {
 225:C:/Users/dtjld/Desktop/AIoT_software/LiteOS_Lab_overseas/LiteOS_Lab/iot_link/network/lwm2m/wakaama_lwm2m/core\observe.c ****     case 0:
 226:C:/Users/dtjld/Desktop/AIoT_software/LiteOS_Lab_overseas/LiteOS_Lab/iot_link/network/lwm2m/wakaama_lwm2m/core\observe.c ****         if (!LWM2M_URI_IS_SET_INSTANCE(uriP) && LWM2M_URI_IS_SET_RESOURCE(uriP)) return COAP_400_BA
 863              		.loc 2 226 0
 864 0170 BB68     		ldr	r3, [r7, #8]
 865 0172 1B78     		ldrb	r3, [r3]	@ zero_extendqisi2
 866 0174 03F00203 		and	r3, r3, #2
 867 0178 002B     		cmp	r3, #0
 868 017a 07D1     		bne	.L69
 869              		.loc 2 226 0 is_stmt 0 discriminator 1
 870 017c BB68     		ldr	r3, [r7, #8]
 871 017e 1B78     		ldrb	r3, [r3]	@ zero_extendqisi2
 872 0180 03F00103 		and	r3, r3, #1
 873 0184 002B     		cmp	r3, #0
 874 0186 01D0     		beq	.L69
 875              		.loc 2 226 0 discriminator 2
 876 0188 8023     		movs	r3, #128
 877 018a 94E0     		b	.L82
 878              	.L69:
 227:C:/Users/dtjld/Desktop/AIoT_software/LiteOS_Lab_overseas/LiteOS_Lab/iot_link/network/lwm2m/wakaama_lwm2m/core\observe.c ****         if (message->token_len == 0) return COAP_400_BAD_REQUEST;
 879              		.loc 2 227 0 is_stmt 1
 880 018c 7B6B     		ldr	r3, [r7, #52]
 881 018e 93F84C30 		ldrb	r3, [r3, #76]	@ zero_extendqisi2
 882 0192 002B     		cmp	r3, #0
 883 0194 01D1     		bne	.L71
 884              		.loc 2 227 0 is_stmt 0 discriminator 1
 885 0196 8023     		movs	r3, #128
 886 0198 8DE0     		b	.L82
 887              	.L71:
 228:C:/Users/dtjld/Desktop/AIoT_software/LiteOS_Lab_overseas/LiteOS_Lab/iot_link/network/lwm2m/wakaama_lwm2m/core\observe.c **** 
 229:C:/Users/dtjld/Desktop/AIoT_software/LiteOS_Lab_overseas/LiteOS_Lab/iot_link/network/lwm2m/wakaama_lwm2m/core\observe.c ****         watcherP = prv_getWatcher(contextP, uriP, serverP);
 888              		.loc 2 229 0 is_stmt 1
 889 019a 7A68     		ldr	r2, [r7, #4]
 890 019c B968     		ldr	r1, [r7, #8]
 891 019e F868     		ldr	r0, [r7, #12]
 892 01a0 FFF7FEFF 		bl	prv_getWatcher
 893 01a4 B861     		str	r0, [r7, #24]
 230:C:/Users/dtjld/Desktop/AIoT_software/LiteOS_Lab_overseas/LiteOS_Lab/iot_link/network/lwm2m/wakaama_lwm2m/core\observe.c ****         if (watcherP == NULL) return COAP_500_INTERNAL_SERVER_ERROR;
 894              		.loc 2 230 0
 895 01a6 BB69     		ldr	r3, [r7, #24]
 896 01a8 002B     		cmp	r3, #0
 897 01aa 01D1     		bne	.L72
 898              		.loc 2 230 0 is_stmt 0 discriminator 1
 899 01ac A023     		movs	r3, #160
 900 01ae 82E0     		b	.L82
 901              	.L72:
 231:C:/Users/dtjld/Desktop/AIoT_software/LiteOS_Lab_overseas/LiteOS_Lab/iot_link/network/lwm2m/wakaama_lwm2m/core\observe.c **** 
 232:C:/Users/dtjld/Desktop/AIoT_software/LiteOS_Lab_overseas/LiteOS_Lab/iot_link/network/lwm2m/wakaama_lwm2m/core\observe.c ****         watcherP->tokenLen = message->token_len;
 902              		.loc 2 232 0 is_stmt 1
 903 01b0 7B6B     		ldr	r3, [r7, #52]
 904 01b2 93F84C30 		ldrb	r3, [r3, #76]	@ zero_extendqisi2
 905 01b6 1A46     		mov	r2, r3
 906 01b8 BB69     		ldr	r3, [r7, #24]
 907 01ba DA61     		str	r2, [r3, #28]
 233:C:/Users/dtjld/Desktop/AIoT_software/LiteOS_Lab_overseas/LiteOS_Lab/iot_link/network/lwm2m/wakaama_lwm2m/core\observe.c ****         memcpy(watcherP->token, message->token, message->token_len);
 908              		.loc 2 233 0
ARM GAS  C:\Users\dtjld\AppData\Local\Temp\ccRVA30A.s 			page 29


 909 01bc BB69     		ldr	r3, [r7, #24]
 910 01be 03F11200 		add	r0, r3, #18
 911 01c2 7B6B     		ldr	r3, [r7, #52]
 912 01c4 03F14D01 		add	r1, r3, #77
 913 01c8 7B6B     		ldr	r3, [r7, #52]
 914 01ca 93F84C30 		ldrb	r3, [r3, #76]	@ zero_extendqisi2
 915 01ce 1A46     		mov	r2, r3
 916 01d0 FFF7FEFF 		bl	memcpy
 234:C:/Users/dtjld/Desktop/AIoT_software/LiteOS_Lab_overseas/LiteOS_Lab/iot_link/network/lwm2m/wakaama_lwm2m/core\observe.c ****         watcherP->active = true;
 917              		.loc 2 234 0
 918 01d4 BB69     		ldr	r3, [r7, #24]
 919 01d6 0122     		movs	r2, #1
 920 01d8 1A71     		strb	r2, [r3, #4]
 235:C:/Users/dtjld/Desktop/AIoT_software/LiteOS_Lab_overseas/LiteOS_Lab/iot_link/network/lwm2m/wakaama_lwm2m/core\observe.c ****         watcherP->lastTime = lwm2m_gettime();
 921              		.loc 2 235 0
 922 01da FFF7FEFF 		bl	lwm2m_gettime
 923 01de 0346     		mov	r3, r0
 924 01e0 0C46     		mov	r4, r1
 925 01e2 BA69     		ldr	r2, [r7, #24]
 926 01e4 C2E90834 		strd	r3, [r2, #32]
 236:C:/Users/dtjld/Desktop/AIoT_software/LiteOS_Lab_overseas/LiteOS_Lab/iot_link/network/lwm2m/wakaama_lwm2m/core\observe.c ****         watcherP->lastMid = response->mid;
 927              		.loc 2 236 0
 928 01e8 BB6B     		ldr	r3, [r7, #56]
 929 01ea 1A89     		ldrh	r2, [r3, #8]
 930 01ec BB69     		ldr	r3, [r7, #24]
 931 01ee 9A85     		strh	r2, [r3, #44]	@ movhi
 237:C:/Users/dtjld/Desktop/AIoT_software/LiteOS_Lab_overseas/LiteOS_Lab/iot_link/network/lwm2m/wakaama_lwm2m/core\observe.c ****         if (IS_OPTION(message, COAP_OPTION_ACCEPT))
 932              		.loc 2 237 0
 933 01f0 7B6B     		ldr	r3, [r7, #52]
 934 01f2 1B7B     		ldrb	r3, [r3, #12]	@ zero_extendqisi2
 935 01f4 03F00203 		and	r3, r3, #2
 936 01f8 002B     		cmp	r3, #0
 937 01fa 0AD0     		beq	.L73
 238:C:/Users/dtjld/Desktop/AIoT_software/LiteOS_Lab_overseas/LiteOS_Lab/iot_link/network/lwm2m/wakaama_lwm2m/core\observe.c ****         {
 239:C:/Users/dtjld/Desktop/AIoT_software/LiteOS_Lab_overseas/LiteOS_Lab/iot_link/network/lwm2m/wakaama_lwm2m/core\observe.c ****             watcherP->format = utils_convertMediaType((coap_content_type_t)message->accept[0]);
 938              		.loc 2 239 0
 939 01fc 7B6B     		ldr	r3, [r7, #52]
 940 01fe B3F85630 		ldrh	r3, [r3, #86]
 941 0202 1846     		mov	r0, r3
 942 0204 FFF7FEFF 		bl	utils_convertMediaType
 943 0208 0346     		mov	r3, r0
 944 020a 1A46     		mov	r2, r3
 945 020c BB69     		ldr	r3, [r7, #24]
 946 020e 1A82     		strh	r2, [r3, #16]	@ movhi
 947 0210 03E0     		b	.L74
 948              	.L73:
 240:C:/Users/dtjld/Desktop/AIoT_software/LiteOS_Lab_overseas/LiteOS_Lab/iot_link/network/lwm2m/wakaama_lwm2m/core\observe.c ****         }
 241:C:/Users/dtjld/Desktop/AIoT_software/LiteOS_Lab_overseas/LiteOS_Lab/iot_link/network/lwm2m/wakaama_lwm2m/core\observe.c ****         else
 242:C:/Users/dtjld/Desktop/AIoT_software/LiteOS_Lab_overseas/LiteOS_Lab/iot_link/network/lwm2m/wakaama_lwm2m/core\observe.c ****         {
 243:C:/Users/dtjld/Desktop/AIoT_software/LiteOS_Lab_overseas/LiteOS_Lab/iot_link/network/lwm2m/wakaama_lwm2m/core\observe.c ****             watcherP->format = LWM2M_CONTENT_TLV;
 949              		.loc 2 243 0
 950 0212 BB69     		ldr	r3, [r7, #24]
 951 0214 42F61652 		movw	r2, #11542
 952 0218 1A82     		strh	r2, [r3, #16]	@ movhi
 953              	.L74:
 244:C:/Users/dtjld/Desktop/AIoT_software/LiteOS_Lab_overseas/LiteOS_Lab/iot_link/network/lwm2m/wakaama_lwm2m/core\observe.c ****         }
 245:C:/Users/dtjld/Desktop/AIoT_software/LiteOS_Lab_overseas/LiteOS_Lab/iot_link/network/lwm2m/wakaama_lwm2m/core\observe.c **** 
ARM GAS  C:\Users\dtjld\AppData\Local\Temp\ccRVA30A.s 			page 30


 246:C:/Users/dtjld/Desktop/AIoT_software/LiteOS_Lab_overseas/LiteOS_Lab/iot_link/network/lwm2m/wakaama_lwm2m/core\observe.c ****         if (LWM2M_URI_IS_SET_RESOURCE(uriP))
 954              		.loc 2 246 0
 955 021a BB68     		ldr	r3, [r7, #8]
 956 021c 1B78     		ldrb	r3, [r3]	@ zero_extendqisi2
 957 021e 03F00103 		and	r3, r3, #1
 958 0222 002B     		cmp	r3, #0
 959 0224 1CD0     		beq	.L84
 247:C:/Users/dtjld/Desktop/AIoT_software/LiteOS_Lab_overseas/LiteOS_Lab/iot_link/network/lwm2m/wakaama_lwm2m/core\observe.c ****         {
 248:C:/Users/dtjld/Desktop/AIoT_software/LiteOS_Lab_overseas/LiteOS_Lab/iot_link/network/lwm2m/wakaama_lwm2m/core\observe.c ****             switch (dataP->type)
 960              		.loc 2 248 0
 961 0226 3B6B     		ldr	r3, [r7, #48]
 962 0228 1B78     		ldrb	r3, [r3]	@ zero_extendqisi2
 963 022a 062B     		cmp	r3, #6
 964 022c 02D0     		beq	.L77
 965 022e 072B     		cmp	r3, #7
 966 0230 0BD0     		beq	.L78
 249:C:/Users/dtjld/Desktop/AIoT_software/LiteOS_Lab_overseas/LiteOS_Lab/iot_link/network/lwm2m/wakaama_lwm2m/core\observe.c ****             {
 250:C:/Users/dtjld/Desktop/AIoT_software/LiteOS_Lab_overseas/LiteOS_Lab/iot_link/network/lwm2m/wakaama_lwm2m/core\observe.c ****             case LWM2M_TYPE_INTEGER:
 251:C:/Users/dtjld/Desktop/AIoT_software/LiteOS_Lab_overseas/LiteOS_Lab/iot_link/network/lwm2m/wakaama_lwm2m/core\observe.c ****                 if (1 != lwm2m_data_decode_int(dataP, &(watcherP->lastValue.asInteger))) return COA
 252:C:/Users/dtjld/Desktop/AIoT_software/LiteOS_Lab_overseas/LiteOS_Lab/iot_link/network/lwm2m/wakaama_lwm2m/core\observe.c ****                 break;
 253:C:/Users/dtjld/Desktop/AIoT_software/LiteOS_Lab_overseas/LiteOS_Lab/iot_link/network/lwm2m/wakaama_lwm2m/core\observe.c ****             case LWM2M_TYPE_FLOAT:
 254:C:/Users/dtjld/Desktop/AIoT_software/LiteOS_Lab_overseas/LiteOS_Lab/iot_link/network/lwm2m/wakaama_lwm2m/core\observe.c ****                 if (1 != lwm2m_data_decode_float(dataP, &(watcherP->lastValue.asFloat))) return COA
 255:C:/Users/dtjld/Desktop/AIoT_software/LiteOS_Lab_overseas/LiteOS_Lab/iot_link/network/lwm2m/wakaama_lwm2m/core\observe.c ****                 break;
 256:C:/Users/dtjld/Desktop/AIoT_software/LiteOS_Lab_overseas/LiteOS_Lab/iot_link/network/lwm2m/wakaama_lwm2m/core\observe.c ****             default:
 257:C:/Users/dtjld/Desktop/AIoT_software/LiteOS_Lab_overseas/LiteOS_Lab/iot_link/network/lwm2m/wakaama_lwm2m/core\observe.c ****                 break;
 967              		.loc 2 257 0
 968 0232 1AE0     		b	.L75
 969              	.L77:
 251:C:/Users/dtjld/Desktop/AIoT_software/LiteOS_Lab_overseas/LiteOS_Lab/iot_link/network/lwm2m/wakaama_lwm2m/core\observe.c ****                 break;
 970              		.loc 2 251 0
 971 0234 BB69     		ldr	r3, [r7, #24]
 972 0236 3033     		adds	r3, r3, #48
 973 0238 1946     		mov	r1, r3
 974 023a 386B     		ldr	r0, [r7, #48]
 975 023c FFF7FEFF 		bl	lwm2m_data_decode_int
 976 0240 0346     		mov	r3, r0
 977 0242 012B     		cmp	r3, #1
 978 0244 0ED0     		beq	.L85
 251:C:/Users/dtjld/Desktop/AIoT_software/LiteOS_Lab_overseas/LiteOS_Lab/iot_link/network/lwm2m/wakaama_lwm2m/core\observe.c ****                 break;
 979              		.loc 2 251 0 is_stmt 0 discriminator 1
 980 0246 A023     		movs	r3, #160
 981 0248 35E0     		b	.L82
 982              	.L78:
 254:C:/Users/dtjld/Desktop/AIoT_software/LiteOS_Lab_overseas/LiteOS_Lab/iot_link/network/lwm2m/wakaama_lwm2m/core\observe.c ****                 break;
 983              		.loc 2 254 0 is_stmt 1
 984 024a BB69     		ldr	r3, [r7, #24]
 985 024c 3033     		adds	r3, r3, #48
 986 024e 1946     		mov	r1, r3
 987 0250 386B     		ldr	r0, [r7, #48]
 988 0252 FFF7FEFF 		bl	lwm2m_data_decode_float
 989 0256 0346     		mov	r3, r0
 990 0258 012B     		cmp	r3, #1
 991 025a 05D0     		beq	.L86
 254:C:/Users/dtjld/Desktop/AIoT_software/LiteOS_Lab_overseas/LiteOS_Lab/iot_link/network/lwm2m/wakaama_lwm2m/core\observe.c ****                 break;
 992              		.loc 2 254 0 is_stmt 0 discriminator 1
 993 025c A023     		movs	r3, #160
 994 025e 2AE0     		b	.L82
ARM GAS  C:\Users\dtjld\AppData\Local\Temp\ccRVA30A.s 			page 31


 995              	.L84:
 258:C:/Users/dtjld/Desktop/AIoT_software/LiteOS_Lab_overseas/LiteOS_Lab/iot_link/network/lwm2m/wakaama_lwm2m/core\observe.c ****             }
 259:C:/Users/dtjld/Desktop/AIoT_software/LiteOS_Lab_overseas/LiteOS_Lab/iot_link/network/lwm2m/wakaama_lwm2m/core\observe.c ****         }
 996              		.loc 2 259 0 is_stmt 1
 997 0260 00BF     		nop
 998 0262 02E0     		b	.L75
 999              	.L85:
 252:C:/Users/dtjld/Desktop/AIoT_software/LiteOS_Lab_overseas/LiteOS_Lab/iot_link/network/lwm2m/wakaama_lwm2m/core\observe.c ****             case LWM2M_TYPE_FLOAT:
 1000              		.loc 2 252 0
 1001 0264 00BF     		nop
 1002 0266 00E0     		b	.L75
 1003              	.L86:
 255:C:/Users/dtjld/Desktop/AIoT_software/LiteOS_Lab_overseas/LiteOS_Lab/iot_link/network/lwm2m/wakaama_lwm2m/core\observe.c ****             default:
 1004              		.loc 2 255 0
 1005 0268 00BF     		nop
 1006              	.L75:
 260:C:/Users/dtjld/Desktop/AIoT_software/LiteOS_Lab_overseas/LiteOS_Lab/iot_link/network/lwm2m/wakaama_lwm2m/core\observe.c **** 
 261:C:/Users/dtjld/Desktop/AIoT_software/LiteOS_Lab_overseas/LiteOS_Lab/iot_link/network/lwm2m/wakaama_lwm2m/core\observe.c ****         coap_set_header_observe(response, watcherP->counter++);
 1007              		.loc 2 261 0
 1008 026a BB69     		ldr	r3, [r7, #24]
 1009 026c 9B6A     		ldr	r3, [r3, #40]
 1010 026e 591C     		adds	r1, r3, #1
 1011 0270 BA69     		ldr	r2, [r7, #24]
 1012 0272 9162     		str	r1, [r2, #40]
 1013 0274 1946     		mov	r1, r3
 1014 0276 B86B     		ldr	r0, [r7, #56]
 1015 0278 FFF7FEFF 		bl	coap_set_header_observe
 262:C:/Users/dtjld/Desktop/AIoT_software/LiteOS_Lab_overseas/LiteOS_Lab/iot_link/network/lwm2m/wakaama_lwm2m/core\observe.c **** 
 263:C:/Users/dtjld/Desktop/AIoT_software/LiteOS_Lab_overseas/LiteOS_Lab/iot_link/network/lwm2m/wakaama_lwm2m/core\observe.c ****         return COAP_205_CONTENT;
 1016              		.loc 2 263 0
 1017 027c 4523     		movs	r3, #69
 1018 027e 1AE0     		b	.L82
 1019              	.L68:
 264:C:/Users/dtjld/Desktop/AIoT_software/LiteOS_Lab_overseas/LiteOS_Lab/iot_link/network/lwm2m/wakaama_lwm2m/core\observe.c **** 
 265:C:/Users/dtjld/Desktop/AIoT_software/LiteOS_Lab_overseas/LiteOS_Lab/iot_link/network/lwm2m/wakaama_lwm2m/core\observe.c ****     case 1:
 266:C:/Users/dtjld/Desktop/AIoT_software/LiteOS_Lab_overseas/LiteOS_Lab/iot_link/network/lwm2m/wakaama_lwm2m/core\observe.c ****         // cancellation
 267:C:/Users/dtjld/Desktop/AIoT_software/LiteOS_Lab_overseas/LiteOS_Lab/iot_link/network/lwm2m/wakaama_lwm2m/core\observe.c ****         observedP = prv_findObserved(contextP, uriP);
 1020              		.loc 2 267 0
 1021 0280 B968     		ldr	r1, [r7, #8]
 1022 0282 F868     		ldr	r0, [r7, #12]
 1023 0284 FFF7FEFF 		bl	prv_findObserved
 1024 0288 F861     		str	r0, [r7, #28]
 268:C:/Users/dtjld/Desktop/AIoT_software/LiteOS_Lab_overseas/LiteOS_Lab/iot_link/network/lwm2m/wakaama_lwm2m/core\observe.c ****         if (observedP)
 1025              		.loc 2 268 0
 1026 028a FB69     		ldr	r3, [r7, #28]
 1027 028c 002B     		cmp	r3, #0
 1028 028e 0FD0     		beq	.L81
 269:C:/Users/dtjld/Desktop/AIoT_software/LiteOS_Lab_overseas/LiteOS_Lab/iot_link/network/lwm2m/wakaama_lwm2m/core\observe.c ****         {
 270:C:/Users/dtjld/Desktop/AIoT_software/LiteOS_Lab_overseas/LiteOS_Lab/iot_link/network/lwm2m/wakaama_lwm2m/core\observe.c ****             watcherP = prv_findWatcher(observedP, serverP);
 1029              		.loc 2 270 0
 1030 0290 7968     		ldr	r1, [r7, #4]
 1031 0292 F869     		ldr	r0, [r7, #28]
 1032 0294 FFF7FEFF 		bl	prv_findWatcher
 1033 0298 B861     		str	r0, [r7, #24]
 271:C:/Users/dtjld/Desktop/AIoT_software/LiteOS_Lab_overseas/LiteOS_Lab/iot_link/network/lwm2m/wakaama_lwm2m/core\observe.c ****             if (watcherP)
 1034              		.loc 2 271 0
 1035 029a BB69     		ldr	r3, [r7, #24]
ARM GAS  C:\Users\dtjld\AppData\Local\Temp\ccRVA30A.s 			page 32


 1036 029c 002B     		cmp	r3, #0
 1037 029e 07D0     		beq	.L81
 272:C:/Users/dtjld/Desktop/AIoT_software/LiteOS_Lab_overseas/LiteOS_Lab/iot_link/network/lwm2m/wakaama_lwm2m/core\observe.c ****             {
 273:C:/Users/dtjld/Desktop/AIoT_software/LiteOS_Lab_overseas/LiteOS_Lab/iot_link/network/lwm2m/wakaama_lwm2m/core\observe.c ****                 observe_cancel(contextP, watcherP->lastMid, serverP->sessionH);
 1038              		.loc 2 273 0
 1039 02a0 BB69     		ldr	r3, [r7, #24]
 1040 02a2 998D     		ldrh	r1, [r3, #44]
 1041 02a4 7B68     		ldr	r3, [r7, #4]
 1042 02a6 DB69     		ldr	r3, [r3, #28]
 1043 02a8 1A46     		mov	r2, r3
 1044 02aa F868     		ldr	r0, [r7, #12]
 1045 02ac FFF7FEFF 		bl	observe_cancel
 1046              	.L81:
 274:C:/Users/dtjld/Desktop/AIoT_software/LiteOS_Lab_overseas/LiteOS_Lab/iot_link/network/lwm2m/wakaama_lwm2m/core\observe.c ****             }
 275:C:/Users/dtjld/Desktop/AIoT_software/LiteOS_Lab_overseas/LiteOS_Lab/iot_link/network/lwm2m/wakaama_lwm2m/core\observe.c ****         }
 276:C:/Users/dtjld/Desktop/AIoT_software/LiteOS_Lab_overseas/LiteOS_Lab/iot_link/network/lwm2m/wakaama_lwm2m/core\observe.c ****         return COAP_205_CONTENT;
 1047              		.loc 2 276 0
 1048 02b0 4523     		movs	r3, #69
 1049 02b2 00E0     		b	.L82
 1050              	.L83:
 277:C:/Users/dtjld/Desktop/AIoT_software/LiteOS_Lab_overseas/LiteOS_Lab/iot_link/network/lwm2m/wakaama_lwm2m/core\observe.c **** 
 278:C:/Users/dtjld/Desktop/AIoT_software/LiteOS_Lab_overseas/LiteOS_Lab/iot_link/network/lwm2m/wakaama_lwm2m/core\observe.c ****     default:
 279:C:/Users/dtjld/Desktop/AIoT_software/LiteOS_Lab_overseas/LiteOS_Lab/iot_link/network/lwm2m/wakaama_lwm2m/core\observe.c ****         return COAP_400_BAD_REQUEST;
 1051              		.loc 2 279 0
 1052 02b4 8023     		movs	r3, #128
 1053              	.L82:
 280:C:/Users/dtjld/Desktop/AIoT_software/LiteOS_Lab_overseas/LiteOS_Lab/iot_link/network/lwm2m/wakaama_lwm2m/core\observe.c ****     }
 281:C:/Users/dtjld/Desktop/AIoT_software/LiteOS_Lab_overseas/LiteOS_Lab/iot_link/network/lwm2m/wakaama_lwm2m/core\observe.c **** }
 1054              		.loc 2 281 0 discriminator 1
 1055 02b6 1846     		mov	r0, r3
 1056 02b8 2437     		adds	r7, r7, #36
 1057              	.LCFI38:
 1058              		.cfi_def_cfa_offset 12
 1059 02ba BD46     		mov	sp, r7
 1060              	.LCFI39:
 1061              		.cfi_def_cfa_register 13
 1062              		@ sp needed
 1063 02bc 90BD     		pop	{r4, r7, pc}
 1064              	.L88:
 1065 02be 00BF     		.align	2
 1066              	.L87:
 1067 02c0 00000000 		.word	.LC0
 1068 02c4 10000000 		.word	.LC1
 1069 02c8 18000000 		.word	.LC2
 1070 02cc 2C000000 		.word	.LC3
 1071 02d0 40000000 		.word	.LC4
 1072 02d4 54000000 		.word	.LC5
 1073 02d8 68000000 		.word	.LC6
 1074 02dc 7C000000 		.word	.LC7
 1075 02e0 90000000 		.word	.LC8
 1076 02e4 A4000000 		.word	.LC9
 1077 02e8 C4000000 		.word	.LC10
 1078 02ec DC000000 		.word	.LC11
 1079 02f0 F8000000 		.word	.LC12
 1080 02f4 0C010000 		.word	.LC13
 1081 02f8 20010000 		.word	.LC14
 1082 02fc 34010000 		.word	.LC15
ARM GAS  C:\Users\dtjld\AppData\Local\Temp\ccRVA30A.s 			page 33


 1083 0300 00000000 		.word	__func__.8551
 1084 0304 48010000 		.word	.LC16
 1085 0308 74010000 		.word	.LC17
 1086 030c 84010000 		.word	.LC18
 1087 0310 90010000 		.word	.LC19
 1088 0314 94010000 		.word	.LC20
 1089              		.cfi_endproc
 1090              	.LFE9:
 1092              		.section	.rodata
 1093 0197 00       		.align	2
 1094              	.LC21:
 1095 0198 5B25645D 		.ascii	"[%d][%s:%d] mid: %d\015\012\000"
 1095      5B25733A 
 1095      25645D20 
 1095      6D69643A 
 1095      2025640D 
 1096              		.section	.text.observe_cancel,"ax",%progbits
 1097              		.align	1
 1098              		.global	observe_cancel
 1099              		.syntax unified
 1100              		.thumb
 1101              		.thumb_func
 1102              		.fpu fpv4-sp-d16
 1104              	observe_cancel:
 1105              	.LFB10:
 282:C:/Users/dtjld/Desktop/AIoT_software/LiteOS_Lab_overseas/LiteOS_Lab/iot_link/network/lwm2m/wakaama_lwm2m/core\observe.c **** 
 283:C:/Users/dtjld/Desktop/AIoT_software/LiteOS_Lab_overseas/LiteOS_Lab/iot_link/network/lwm2m/wakaama_lwm2m/core\observe.c **** void observe_cancel(lwm2m_context_t *contextP,
 284:C:/Users/dtjld/Desktop/AIoT_software/LiteOS_Lab_overseas/LiteOS_Lab/iot_link/network/lwm2m/wakaama_lwm2m/core\observe.c ****                     uint16_t mid,
 285:C:/Users/dtjld/Desktop/AIoT_software/LiteOS_Lab_overseas/LiteOS_Lab/iot_link/network/lwm2m/wakaama_lwm2m/core\observe.c ****                     void *fromSessionH)
 286:C:/Users/dtjld/Desktop/AIoT_software/LiteOS_Lab_overseas/LiteOS_Lab/iot_link/network/lwm2m/wakaama_lwm2m/core\observe.c **** {
 1106              		.loc 2 286 0
 1107              		.cfi_startproc
 1108              		@ args = 0, pretend = 0, frame = 32
 1109              		@ frame_needed = 1, uses_anonymous_args = 0
 1110 0000 90B5     		push	{r4, r7, lr}
 1111              	.LCFI40:
 1112              		.cfi_def_cfa_offset 12
 1113              		.cfi_offset 4, -12
 1114              		.cfi_offset 7, -8
 1115              		.cfi_offset 14, -4
 1116 0002 8BB0     		sub	sp, sp, #44
 1117              	.LCFI41:
 1118              		.cfi_def_cfa_offset 56
 1119 0004 02AF     		add	r7, sp, #8
 1120              	.LCFI42:
 1121              		.cfi_def_cfa 7, 48
 1122 0006 F860     		str	r0, [r7, #12]
 1123 0008 0B46     		mov	r3, r1
 1124 000a 7A60     		str	r2, [r7, #4]
 1125 000c 7B81     		strh	r3, [r7, #10]	@ movhi
 287:C:/Users/dtjld/Desktop/AIoT_software/LiteOS_Lab_overseas/LiteOS_Lab/iot_link/network/lwm2m/wakaama_lwm2m/core\observe.c ****     lwm2m_observed_t *observedP;
 288:C:/Users/dtjld/Desktop/AIoT_software/LiteOS_Lab_overseas/LiteOS_Lab/iot_link/network/lwm2m/wakaama_lwm2m/core\observe.c **** 
 289:C:/Users/dtjld/Desktop/AIoT_software/LiteOS_Lab_overseas/LiteOS_Lab/iot_link/network/lwm2m/wakaama_lwm2m/core\observe.c ****     LOG_ARG("mid: %d", mid);
 1126              		.loc 2 289 0
 1127 000e FFF7FEFF 		bl	lwm2m_gettime
 1128 0012 0346     		mov	r3, r0
 1129 0014 0C46     		mov	r4, r1
ARM GAS  C:\Users\dtjld\AppData\Local\Temp\ccRVA30A.s 			page 34


 1130 0016 1946     		mov	r1, r3
 1131 0018 7B89     		ldrh	r3, [r7, #10]
 1132 001a 0093     		str	r3, [sp]
 1133 001c 40F22113 		movw	r3, #289
 1134 0020 434A     		ldr	r2, .L101
 1135 0022 4448     		ldr	r0, .L101+4
 1136 0024 FFF7FEFF 		bl	atiny_printf
 290:C:/Users/dtjld/Desktop/AIoT_software/LiteOS_Lab_overseas/LiteOS_Lab/iot_link/network/lwm2m/wakaama_lwm2m/core\observe.c **** 
 291:C:/Users/dtjld/Desktop/AIoT_software/LiteOS_Lab_overseas/LiteOS_Lab/iot_link/network/lwm2m/wakaama_lwm2m/core\observe.c ****     for (observedP = contextP->observedList;
 1137              		.loc 2 291 0
 1138 0028 FB68     		ldr	r3, [r7, #12]
 1139 002a DB69     		ldr	r3, [r3, #28]
 1140 002c FB61     		str	r3, [r7, #28]
 1141 002e 79E0     		b	.L90
 1142              	.L100:
 1143              	.LBB3:
 292:C:/Users/dtjld/Desktop/AIoT_software/LiteOS_Lab_overseas/LiteOS_Lab/iot_link/network/lwm2m/wakaama_lwm2m/core\observe.c ****             observedP != NULL;
 293:C:/Users/dtjld/Desktop/AIoT_software/LiteOS_Lab_overseas/LiteOS_Lab/iot_link/network/lwm2m/wakaama_lwm2m/core\observe.c ****             observedP = observedP->next)
 294:C:/Users/dtjld/Desktop/AIoT_software/LiteOS_Lab_overseas/LiteOS_Lab/iot_link/network/lwm2m/wakaama_lwm2m/core\observe.c ****     {
 295:C:/Users/dtjld/Desktop/AIoT_software/LiteOS_Lab_overseas/LiteOS_Lab/iot_link/network/lwm2m/wakaama_lwm2m/core\observe.c ****         lwm2m_watcher_t *targetP = NULL;
 1144              		.loc 2 295 0
 1145 0030 0023     		movs	r3, #0
 1146 0032 BB61     		str	r3, [r7, #24]
 296:C:/Users/dtjld/Desktop/AIoT_software/LiteOS_Lab_overseas/LiteOS_Lab/iot_link/network/lwm2m/wakaama_lwm2m/core\observe.c **** 
 297:C:/Users/dtjld/Desktop/AIoT_software/LiteOS_Lab_overseas/LiteOS_Lab/iot_link/network/lwm2m/wakaama_lwm2m/core\observe.c ****         if (observedP->watcherList->lastMid == mid
 1147              		.loc 2 297 0
 1148 0034 FB69     		ldr	r3, [r7, #28]
 1149 0036 DB68     		ldr	r3, [r3, #12]
 1150 0038 9B8D     		ldrh	r3, [r3, #44]
 1151 003a 7A89     		ldrh	r2, [r7, #10]
 1152 003c 9A42     		cmp	r2, r3
 1153 003e 15D1     		bne	.L91
 298:C:/Users/dtjld/Desktop/AIoT_software/LiteOS_Lab_overseas/LiteOS_Lab/iot_link/network/lwm2m/wakaama_lwm2m/core\observe.c ****                 && lwm2m_session_is_equal(observedP->watcherList->server->sessionH, fromSessionH, c
 1154              		.loc 2 298 0
 1155 0040 FB69     		ldr	r3, [r7, #28]
 1156 0042 DB68     		ldr	r3, [r3, #12]
 1157 0044 9B68     		ldr	r3, [r3, #8]
 1158 0046 D869     		ldr	r0, [r3, #28]
 1159 0048 FB68     		ldr	r3, [r7, #12]
 1160 004a 5B6B     		ldr	r3, [r3, #52]
 1161 004c 1A46     		mov	r2, r3
 1162 004e 7968     		ldr	r1, [r7, #4]
 1163 0050 FFF7FEFF 		bl	lwm2m_session_is_equal
 1164 0054 0346     		mov	r3, r0
 1165 0056 002B     		cmp	r3, #0
 1166 0058 08D0     		beq	.L91
 299:C:/Users/dtjld/Desktop/AIoT_software/LiteOS_Lab_overseas/LiteOS_Lab/iot_link/network/lwm2m/wakaama_lwm2m/core\observe.c ****         {
 300:C:/Users/dtjld/Desktop/AIoT_software/LiteOS_Lab_overseas/LiteOS_Lab/iot_link/network/lwm2m/wakaama_lwm2m/core\observe.c ****             targetP = observedP->watcherList;
 1167              		.loc 2 300 0
 1168 005a FB69     		ldr	r3, [r7, #28]
 1169 005c DB68     		ldr	r3, [r3, #12]
 1170 005e BB61     		str	r3, [r7, #24]
 301:C:/Users/dtjld/Desktop/AIoT_software/LiteOS_Lab_overseas/LiteOS_Lab/iot_link/network/lwm2m/wakaama_lwm2m/core\observe.c ****             observedP->watcherList = observedP->watcherList->next;
 1171              		.loc 2 301 0
 1172 0060 FB69     		ldr	r3, [r7, #28]
 1173 0062 DB68     		ldr	r3, [r3, #12]
 1174 0064 1A68     		ldr	r2, [r3]
ARM GAS  C:\Users\dtjld\AppData\Local\Temp\ccRVA30A.s 			page 35


 1175 0066 FB69     		ldr	r3, [r7, #28]
 1176 0068 DA60     		str	r2, [r3, #12]
 1177 006a 2CE0     		b	.L92
 1178              	.L91:
 1179              	.LBB4:
 302:C:/Users/dtjld/Desktop/AIoT_software/LiteOS_Lab_overseas/LiteOS_Lab/iot_link/network/lwm2m/wakaama_lwm2m/core\observe.c ****         }
 303:C:/Users/dtjld/Desktop/AIoT_software/LiteOS_Lab_overseas/LiteOS_Lab/iot_link/network/lwm2m/wakaama_lwm2m/core\observe.c ****         else
 304:C:/Users/dtjld/Desktop/AIoT_software/LiteOS_Lab_overseas/LiteOS_Lab/iot_link/network/lwm2m/wakaama_lwm2m/core\observe.c ****         {
 305:C:/Users/dtjld/Desktop/AIoT_software/LiteOS_Lab_overseas/LiteOS_Lab/iot_link/network/lwm2m/wakaama_lwm2m/core\observe.c ****             lwm2m_watcher_t *parentP;
 306:C:/Users/dtjld/Desktop/AIoT_software/LiteOS_Lab_overseas/LiteOS_Lab/iot_link/network/lwm2m/wakaama_lwm2m/core\observe.c **** 
 307:C:/Users/dtjld/Desktop/AIoT_software/LiteOS_Lab_overseas/LiteOS_Lab/iot_link/network/lwm2m/wakaama_lwm2m/core\observe.c ****             parentP = observedP->watcherList;
 1180              		.loc 2 307 0
 1181 006c FB69     		ldr	r3, [r7, #28]
 1182 006e DB68     		ldr	r3, [r3, #12]
 1183 0070 7B61     		str	r3, [r7, #20]
 308:C:/Users/dtjld/Desktop/AIoT_software/LiteOS_Lab_overseas/LiteOS_Lab/iot_link/network/lwm2m/wakaama_lwm2m/core\observe.c ****             while (parentP->next != NULL
 1184              		.loc 2 308 0
 1185 0072 02E0     		b	.L93
 1186              	.L95:
 309:C:/Users/dtjld/Desktop/AIoT_software/LiteOS_Lab_overseas/LiteOS_Lab/iot_link/network/lwm2m/wakaama_lwm2m/core\observe.c ****                     && (parentP->next->lastMid != mid
 310:C:/Users/dtjld/Desktop/AIoT_software/LiteOS_Lab_overseas/LiteOS_Lab/iot_link/network/lwm2m/wakaama_lwm2m/core\observe.c ****                  || !lwm2m_session_is_equal(parentP->next->server->sessionH, fromSessionH, contextP
 311:C:/Users/dtjld/Desktop/AIoT_software/LiteOS_Lab_overseas/LiteOS_Lab/iot_link/network/lwm2m/wakaama_lwm2m/core\observe.c ****             {
 312:C:/Users/dtjld/Desktop/AIoT_software/LiteOS_Lab_overseas/LiteOS_Lab/iot_link/network/lwm2m/wakaama_lwm2m/core\observe.c ****                 parentP = parentP->next;
 1187              		.loc 2 312 0
 1188 0074 7B69     		ldr	r3, [r7, #20]
 1189 0076 1B68     		ldr	r3, [r3]
 1190 0078 7B61     		str	r3, [r7, #20]
 1191              	.L93:
 308:C:/Users/dtjld/Desktop/AIoT_software/LiteOS_Lab_overseas/LiteOS_Lab/iot_link/network/lwm2m/wakaama_lwm2m/core\observe.c ****             while (parentP->next != NULL
 1192              		.loc 2 308 0
 1193 007a 7B69     		ldr	r3, [r7, #20]
 1194 007c 1B68     		ldr	r3, [r3]
 1195 007e 002B     		cmp	r3, #0
 1196 0080 15D0     		beq	.L94
 309:C:/Users/dtjld/Desktop/AIoT_software/LiteOS_Lab_overseas/LiteOS_Lab/iot_link/network/lwm2m/wakaama_lwm2m/core\observe.c ****                     && (parentP->next->lastMid != mid
 1197              		.loc 2 309 0
 1198 0082 7B69     		ldr	r3, [r7, #20]
 1199 0084 1B68     		ldr	r3, [r3]
 1200 0086 9B8D     		ldrh	r3, [r3, #44]
 1201 0088 7A89     		ldrh	r2, [r7, #10]
 1202 008a 9A42     		cmp	r2, r3
 1203 008c F2D1     		bne	.L95
 310:C:/Users/dtjld/Desktop/AIoT_software/LiteOS_Lab_overseas/LiteOS_Lab/iot_link/network/lwm2m/wakaama_lwm2m/core\observe.c ****             {
 1204              		.loc 2 310 0
 1205 008e 7B69     		ldr	r3, [r7, #20]
 1206 0090 1B68     		ldr	r3, [r3]
 1207 0092 9B68     		ldr	r3, [r3, #8]
 1208 0094 D869     		ldr	r0, [r3, #28]
 1209 0096 FB68     		ldr	r3, [r7, #12]
 1210 0098 5B6B     		ldr	r3, [r3, #52]
 1211 009a 1A46     		mov	r2, r3
 1212 009c 7968     		ldr	r1, [r7, #4]
 1213 009e FFF7FEFF 		bl	lwm2m_session_is_equal
 1214 00a2 0346     		mov	r3, r0
 1215 00a4 83F00103 		eor	r3, r3, #1
 1216 00a8 DBB2     		uxtb	r3, r3
 1217 00aa 002B     		cmp	r3, #0
ARM GAS  C:\Users\dtjld\AppData\Local\Temp\ccRVA30A.s 			page 36


 1218 00ac E2D1     		bne	.L95
 1219              	.L94:
 313:C:/Users/dtjld/Desktop/AIoT_software/LiteOS_Lab_overseas/LiteOS_Lab/iot_link/network/lwm2m/wakaama_lwm2m/core\observe.c ****             }
 314:C:/Users/dtjld/Desktop/AIoT_software/LiteOS_Lab_overseas/LiteOS_Lab/iot_link/network/lwm2m/wakaama_lwm2m/core\observe.c ****             if (parentP->next != NULL)
 1220              		.loc 2 314 0
 1221 00ae 7B69     		ldr	r3, [r7, #20]
 1222 00b0 1B68     		ldr	r3, [r3]
 1223 00b2 002B     		cmp	r3, #0
 1224 00b4 07D0     		beq	.L92
 315:C:/Users/dtjld/Desktop/AIoT_software/LiteOS_Lab_overseas/LiteOS_Lab/iot_link/network/lwm2m/wakaama_lwm2m/core\observe.c ****             {
 316:C:/Users/dtjld/Desktop/AIoT_software/LiteOS_Lab_overseas/LiteOS_Lab/iot_link/network/lwm2m/wakaama_lwm2m/core\observe.c ****                 targetP = parentP->next;
 1225              		.loc 2 316 0
 1226 00b6 7B69     		ldr	r3, [r7, #20]
 1227 00b8 1B68     		ldr	r3, [r3]
 1228 00ba BB61     		str	r3, [r7, #24]
 317:C:/Users/dtjld/Desktop/AIoT_software/LiteOS_Lab_overseas/LiteOS_Lab/iot_link/network/lwm2m/wakaama_lwm2m/core\observe.c ****                 parentP->next = parentP->next->next;
 1229              		.loc 2 317 0
 1230 00bc 7B69     		ldr	r3, [r7, #20]
 1231 00be 1B68     		ldr	r3, [r3]
 1232 00c0 1A68     		ldr	r2, [r3]
 1233 00c2 7B69     		ldr	r3, [r7, #20]
 1234 00c4 1A60     		str	r2, [r3]
 1235              	.L92:
 1236              	.LBE4:
 318:C:/Users/dtjld/Desktop/AIoT_software/LiteOS_Lab_overseas/LiteOS_Lab/iot_link/network/lwm2m/wakaama_lwm2m/core\observe.c ****             }
 319:C:/Users/dtjld/Desktop/AIoT_software/LiteOS_Lab_overseas/LiteOS_Lab/iot_link/network/lwm2m/wakaama_lwm2m/core\observe.c ****         }
 320:C:/Users/dtjld/Desktop/AIoT_software/LiteOS_Lab_overseas/LiteOS_Lab/iot_link/network/lwm2m/wakaama_lwm2m/core\observe.c ****         if (targetP != NULL)
 1237              		.loc 2 320 0
 1238 00c6 BB69     		ldr	r3, [r7, #24]
 1239 00c8 002B     		cmp	r3, #0
 1240 00ca 28D0     		beq	.L96
 321:C:/Users/dtjld/Desktop/AIoT_software/LiteOS_Lab_overseas/LiteOS_Lab/iot_link/network/lwm2m/wakaama_lwm2m/core\observe.c ****         {
 322:C:/Users/dtjld/Desktop/AIoT_software/LiteOS_Lab_overseas/LiteOS_Lab/iot_link/network/lwm2m/wakaama_lwm2m/core\observe.c ****             osal_mutex_lock(contextP->observe_mutex);
 1241              		.loc 2 322 0
 1242 00cc FB68     		ldr	r3, [r7, #12]
 1243 00ce 1B6A     		ldr	r3, [r3, #32]
 1244 00d0 1846     		mov	r0, r3
 1245 00d2 FFF7FEFF 		bl	osal_mutex_lock
 323:C:/Users/dtjld/Desktop/AIoT_software/LiteOS_Lab_overseas/LiteOS_Lab/iot_link/network/lwm2m/wakaama_lwm2m/core\observe.c ****             lwm2m_notify_even(MODULE_URI, OBSERVE_UNSUBSCRIBE, (char *) & (observedP->uri), sizeof(
 1246              		.loc 2 323 0
 1247 00d6 FB69     		ldr	r3, [r7, #28]
 1248 00d8 1A1D     		adds	r2, r3, #4
 1249 00da 0823     		movs	r3, #8
 1250 00dc 0021     		movs	r1, #0
 1251 00de 0220     		movs	r0, #2
 1252 00e0 FFF7FEFF 		bl	lwm2m_notify_even
 324:C:/Users/dtjld/Desktop/AIoT_software/LiteOS_Lab_overseas/LiteOS_Lab/iot_link/network/lwm2m/wakaama_lwm2m/core\observe.c ****             if (targetP->parameters != NULL) lwm2m_free(targetP->parameters);
 1253              		.loc 2 324 0
 1254 00e4 BB69     		ldr	r3, [r7, #24]
 1255 00e6 DB68     		ldr	r3, [r3, #12]
 1256 00e8 002B     		cmp	r3, #0
 1257 00ea 04D0     		beq	.L97
 1258              		.loc 2 324 0 is_stmt 0 discriminator 1
 1259 00ec BB69     		ldr	r3, [r7, #24]
 1260 00ee DB68     		ldr	r3, [r3, #12]
 1261 00f0 1846     		mov	r0, r3
 1262 00f2 FFF7FEFF 		bl	lwm2m_free
ARM GAS  C:\Users\dtjld\AppData\Local\Temp\ccRVA30A.s 			page 37


 1263              	.L97:
 325:C:/Users/dtjld/Desktop/AIoT_software/LiteOS_Lab_overseas/LiteOS_Lab/iot_link/network/lwm2m/wakaama_lwm2m/core\observe.c ****             lwm2m_free(targetP);
 1264              		.loc 2 325 0 is_stmt 1
 1265 00f6 B869     		ldr	r0, [r7, #24]
 1266 00f8 FFF7FEFF 		bl	lwm2m_free
 326:C:/Users/dtjld/Desktop/AIoT_software/LiteOS_Lab_overseas/LiteOS_Lab/iot_link/network/lwm2m/wakaama_lwm2m/core\observe.c ****             if (observedP->watcherList == NULL)
 1267              		.loc 2 326 0
 1268 00fc FB69     		ldr	r3, [r7, #28]
 1269 00fe DB68     		ldr	r3, [r3, #12]
 1270 0100 002B     		cmp	r3, #0
 1271 0102 06D1     		bne	.L98
 327:C:/Users/dtjld/Desktop/AIoT_software/LiteOS_Lab_overseas/LiteOS_Lab/iot_link/network/lwm2m/wakaama_lwm2m/core\observe.c ****             {
 328:C:/Users/dtjld/Desktop/AIoT_software/LiteOS_Lab_overseas/LiteOS_Lab/iot_link/network/lwm2m/wakaama_lwm2m/core\observe.c ****                 prv_unlinkObserved(contextP, observedP);
 1272              		.loc 2 328 0
 1273 0104 F969     		ldr	r1, [r7, #28]
 1274 0106 F868     		ldr	r0, [r7, #12]
 1275 0108 FFF7FEFF 		bl	prv_unlinkObserved
 329:C:/Users/dtjld/Desktop/AIoT_software/LiteOS_Lab_overseas/LiteOS_Lab/iot_link/network/lwm2m/wakaama_lwm2m/core\observe.c ****                 lwm2m_free(observedP);
 1276              		.loc 2 329 0
 1277 010c F869     		ldr	r0, [r7, #28]
 1278 010e FFF7FEFF 		bl	lwm2m_free
 1279              	.L98:
 330:C:/Users/dtjld/Desktop/AIoT_software/LiteOS_Lab_overseas/LiteOS_Lab/iot_link/network/lwm2m/wakaama_lwm2m/core\observe.c ****             }
 331:C:/Users/dtjld/Desktop/AIoT_software/LiteOS_Lab_overseas/LiteOS_Lab/iot_link/network/lwm2m/wakaama_lwm2m/core\observe.c ****             osal_mutex_unlock(contextP->observe_mutex);
 1280              		.loc 2 331 0
 1281 0112 FB68     		ldr	r3, [r7, #12]
 1282 0114 1B6A     		ldr	r3, [r3, #32]
 1283 0116 1846     		mov	r0, r3
 1284 0118 FFF7FEFF 		bl	osal_mutex_unlock
 332:C:/Users/dtjld/Desktop/AIoT_software/LiteOS_Lab_overseas/LiteOS_Lab/iot_link/network/lwm2m/wakaama_lwm2m/core\observe.c ****             return;
 1285              		.loc 2 332 0
 1286 011c 05E0     		b	.L89
 1287              	.L96:
 1288              	.LBE3:
 293:C:/Users/dtjld/Desktop/AIoT_software/LiteOS_Lab_overseas/LiteOS_Lab/iot_link/network/lwm2m/wakaama_lwm2m/core\observe.c ****     {
 1289              		.loc 2 293 0
 1290 011e FB69     		ldr	r3, [r7, #28]
 1291 0120 1B68     		ldr	r3, [r3]
 1292 0122 FB61     		str	r3, [r7, #28]
 1293              	.L90:
 291:C:/Users/dtjld/Desktop/AIoT_software/LiteOS_Lab_overseas/LiteOS_Lab/iot_link/network/lwm2m/wakaama_lwm2m/core\observe.c ****             observedP != NULL;
 1294              		.loc 2 291 0 discriminator 1
 1295 0124 FB69     		ldr	r3, [r7, #28]
 1296 0126 002B     		cmp	r3, #0
 1297 0128 82D1     		bne	.L100
 1298              	.L89:
 333:C:/Users/dtjld/Desktop/AIoT_software/LiteOS_Lab_overseas/LiteOS_Lab/iot_link/network/lwm2m/wakaama_lwm2m/core\observe.c ****         }
 334:C:/Users/dtjld/Desktop/AIoT_software/LiteOS_Lab_overseas/LiteOS_Lab/iot_link/network/lwm2m/wakaama_lwm2m/core\observe.c ****     }
 335:C:/Users/dtjld/Desktop/AIoT_software/LiteOS_Lab_overseas/LiteOS_Lab/iot_link/network/lwm2m/wakaama_lwm2m/core\observe.c **** }
 1299              		.loc 2 335 0
 1300 012a 2437     		adds	r7, r7, #36
 1301              	.LCFI43:
 1302              		.cfi_def_cfa_offset 12
 1303 012c BD46     		mov	sp, r7
 1304              	.LCFI44:
 1305              		.cfi_def_cfa_register 13
 1306              		@ sp needed
ARM GAS  C:\Users\dtjld\AppData\Local\Temp\ccRVA30A.s 			page 38


 1307 012e 90BD     		pop	{r4, r7, pc}
 1308              	.L102:
 1309              		.align	2
 1310              	.L101:
 1311 0130 00000000 		.word	__func__.8565
 1312 0134 98010000 		.word	.LC21
 1313              		.cfi_endproc
 1314              	.LFE10:
 1316              		.section	.text.observe_clear,"ax",%progbits
 1317              		.align	1
 1318              		.global	observe_clear
 1319              		.syntax unified
 1320              		.thumb
 1321              		.thumb_func
 1322              		.fpu fpv4-sp-d16
 1324              	observe_clear:
 1325              	.LFB11:
 336:C:/Users/dtjld/Desktop/AIoT_software/LiteOS_Lab_overseas/LiteOS_Lab/iot_link/network/lwm2m/wakaama_lwm2m/core\observe.c **** 
 337:C:/Users/dtjld/Desktop/AIoT_software/LiteOS_Lab_overseas/LiteOS_Lab/iot_link/network/lwm2m/wakaama_lwm2m/core\observe.c **** void observe_clear(lwm2m_context_t *contextP,
 338:C:/Users/dtjld/Desktop/AIoT_software/LiteOS_Lab_overseas/LiteOS_Lab/iot_link/network/lwm2m/wakaama_lwm2m/core\observe.c ****                    lwm2m_uri_t *uriP)
 339:C:/Users/dtjld/Desktop/AIoT_software/LiteOS_Lab_overseas/LiteOS_Lab/iot_link/network/lwm2m/wakaama_lwm2m/core\observe.c **** {
 1326              		.loc 2 339 0
 1327              		.cfi_startproc
 1328              		@ args = 0, pretend = 0, frame = 24
 1329              		@ frame_needed = 1, uses_anonymous_args = 0
 1330 0000 80B5     		push	{r7, lr}
 1331              	.LCFI45:
 1332              		.cfi_def_cfa_offset 8
 1333              		.cfi_offset 7, -8
 1334              		.cfi_offset 14, -4
 1335 0002 86B0     		sub	sp, sp, #24
 1336              	.LCFI46:
 1337              		.cfi_def_cfa_offset 32
 1338 0004 00AF     		add	r7, sp, #0
 1339              	.LCFI47:
 1340              		.cfi_def_cfa_register 7
 1341 0006 7860     		str	r0, [r7, #4]
 1342 0008 3960     		str	r1, [r7]
 340:C:/Users/dtjld/Desktop/AIoT_software/LiteOS_Lab_overseas/LiteOS_Lab/iot_link/network/lwm2m/wakaama_lwm2m/core\observe.c ****     lwm2m_observed_t *observedP;
 341:C:/Users/dtjld/Desktop/AIoT_software/LiteOS_Lab_overseas/LiteOS_Lab/iot_link/network/lwm2m/wakaama_lwm2m/core\observe.c **** 
 342:C:/Users/dtjld/Desktop/AIoT_software/LiteOS_Lab_overseas/LiteOS_Lab/iot_link/network/lwm2m/wakaama_lwm2m/core\observe.c ****     LOG_URI(uriP);
 1343              		.loc 2 342 0
 1344 000a 3B68     		ldr	r3, [r7]
 1345 000c 002B     		cmp	r3, #0
 1346 000e 06D1     		bne	.L104
 1347              		.loc 2 342 0 is_stmt 0 discriminator 1
 1348 0010 4FF4AB72 		mov	r2, #342
 1349 0014 3B49     		ldr	r1, .L115
 1350 0016 3C48     		ldr	r0, .L115+4
 1351 0018 FFF7FEFF 		bl	atiny_printf
 1352 001c 22E0     		b	.L105
 1353              	.L104:
 1354              		.loc 2 342 0 discriminator 2
 1355 001e 3B68     		ldr	r3, [r7]
 1356 0020 5B88     		ldrh	r3, [r3, #2]
 1357 0022 4FF4AB72 		mov	r2, #342
 1358 0026 3749     		ldr	r1, .L115
ARM GAS  C:\Users\dtjld\AppData\Local\Temp\ccRVA30A.s 			page 39


 1359 0028 3848     		ldr	r0, .L115+8
 1360 002a FFF7FEFF 		bl	atiny_printf
 1361 002e 3B68     		ldr	r3, [r7]
 1362 0030 1B78     		ldrb	r3, [r3]	@ zero_extendqisi2
 1363 0032 03F00203 		and	r3, r3, #2
 1364 0036 002B     		cmp	r3, #0
 1365 0038 05D0     		beq	.L106
 1366              		.loc 2 342 0 discriminator 3
 1367 003a 3B68     		ldr	r3, [r7]
 1368 003c 9B88     		ldrh	r3, [r3, #4]
 1369 003e 1946     		mov	r1, r3
 1370 0040 3348     		ldr	r0, .L115+12
 1371 0042 FFF7FEFF 		bl	atiny_printf
 1372              	.L106:
 1373              		.loc 2 342 0 discriminator 5
 1374 0046 3B68     		ldr	r3, [r7]
 1375 0048 1B78     		ldrb	r3, [r3]	@ zero_extendqisi2
 1376 004a 03F00103 		and	r3, r3, #1
 1377 004e 002B     		cmp	r3, #0
 1378 0050 05D0     		beq	.L107
 1379              		.loc 2 342 0 discriminator 6
 1380 0052 3B68     		ldr	r3, [r7]
 1381 0054 DB88     		ldrh	r3, [r3, #6]
 1382 0056 1946     		mov	r1, r3
 1383 0058 2D48     		ldr	r0, .L115+12
 1384 005a FFF7FEFF 		bl	atiny_printf
 1385              	.L107:
 1386              		.loc 2 342 0 discriminator 8
 1387 005e 2D48     		ldr	r0, .L115+16
 1388 0060 FFF7FEFF 		bl	atiny_printf
 1389              	.L105:
 343:C:/Users/dtjld/Desktop/AIoT_software/LiteOS_Lab_overseas/LiteOS_Lab/iot_link/network/lwm2m/wakaama_lwm2m/core\observe.c **** 
 344:C:/Users/dtjld/Desktop/AIoT_software/LiteOS_Lab_overseas/LiteOS_Lab/iot_link/network/lwm2m/wakaama_lwm2m/core\observe.c ****     observedP = contextP->observedList;
 1390              		.loc 2 344 0 is_stmt 1
 1391 0064 7B68     		ldr	r3, [r7, #4]
 1392 0066 DB69     		ldr	r3, [r3, #28]
 1393 0068 7B61     		str	r3, [r7, #20]
 345:C:/Users/dtjld/Desktop/AIoT_software/LiteOS_Lab_overseas/LiteOS_Lab/iot_link/network/lwm2m/wakaama_lwm2m/core\observe.c ****     while(observedP != NULL)
 1394              		.loc 2 345 0
 1395 006a 43E0     		b	.L108
 1396              	.L114:
 346:C:/Users/dtjld/Desktop/AIoT_software/LiteOS_Lab_overseas/LiteOS_Lab/iot_link/network/lwm2m/wakaama_lwm2m/core\observe.c ****     {
 347:C:/Users/dtjld/Desktop/AIoT_software/LiteOS_Lab_overseas/LiteOS_Lab/iot_link/network/lwm2m/wakaama_lwm2m/core\observe.c ****         if (observedP->uri.objectId == uriP->objectId
 1397              		.loc 2 347 0
 1398 006c 7B69     		ldr	r3, [r7, #20]
 1399 006e DA88     		ldrh	r2, [r3, #6]
 1400 0070 3B68     		ldr	r3, [r7]
 1401 0072 5B88     		ldrh	r3, [r3, #2]
 1402 0074 9A42     		cmp	r2, r3
 1403 0076 3AD1     		bne	.L109
 348:C:/Users/dtjld/Desktop/AIoT_software/LiteOS_Lab_overseas/LiteOS_Lab/iot_link/network/lwm2m/wakaama_lwm2m/core\observe.c ****                 && (LWM2M_URI_IS_SET_INSTANCE(uriP) == false
 1404              		.loc 2 348 0
 1405 0078 3B68     		ldr	r3, [r7]
 1406 007a 1B78     		ldrb	r3, [r3]	@ zero_extendqisi2
 1407 007c 03F00203 		and	r3, r3, #2
 1408 0080 002B     		cmp	r3, #0
 1409 0082 05D0     		beq	.L110
ARM GAS  C:\Users\dtjld\AppData\Local\Temp\ccRVA30A.s 			page 40


 349:C:/Users/dtjld/Desktop/AIoT_software/LiteOS_Lab_overseas/LiteOS_Lab/iot_link/network/lwm2m/wakaama_lwm2m/core\observe.c ****                     || observedP->uri.instanceId == uriP->instanceId))
 1410              		.loc 2 349 0
 1411 0084 7B69     		ldr	r3, [r7, #20]
 1412 0086 1A89     		ldrh	r2, [r3, #8]
 1413 0088 3B68     		ldr	r3, [r7]
 1414 008a 9B88     		ldrh	r3, [r3, #4]
 1415 008c 9A42     		cmp	r2, r3
 1416 008e 2ED1     		bne	.L109
 1417              	.L110:
 1418              	.LBB5:
 350:C:/Users/dtjld/Desktop/AIoT_software/LiteOS_Lab_overseas/LiteOS_Lab/iot_link/network/lwm2m/wakaama_lwm2m/core\observe.c ****         {
 351:C:/Users/dtjld/Desktop/AIoT_software/LiteOS_Lab_overseas/LiteOS_Lab/iot_link/network/lwm2m/wakaama_lwm2m/core\observe.c ****             lwm2m_observed_t *nextP;
 352:C:/Users/dtjld/Desktop/AIoT_software/LiteOS_Lab_overseas/LiteOS_Lab/iot_link/network/lwm2m/wakaama_lwm2m/core\observe.c ****             lwm2m_watcher_t *watcherP;
 353:C:/Users/dtjld/Desktop/AIoT_software/LiteOS_Lab_overseas/LiteOS_Lab/iot_link/network/lwm2m/wakaama_lwm2m/core\observe.c **** 
 354:C:/Users/dtjld/Desktop/AIoT_software/LiteOS_Lab_overseas/LiteOS_Lab/iot_link/network/lwm2m/wakaama_lwm2m/core\observe.c ****             osal_mutex_lock(contextP->observe_mutex);
 1419              		.loc 2 354 0
 1420 0090 7B68     		ldr	r3, [r7, #4]
 1421 0092 1B6A     		ldr	r3, [r3, #32]
 1422 0094 1846     		mov	r0, r3
 1423 0096 FFF7FEFF 		bl	osal_mutex_lock
 355:C:/Users/dtjld/Desktop/AIoT_software/LiteOS_Lab_overseas/LiteOS_Lab/iot_link/network/lwm2m/wakaama_lwm2m/core\observe.c ****             nextP = observedP->next;
 1424              		.loc 2 355 0
 1425 009a 7B69     		ldr	r3, [r7, #20]
 1426 009c 1B68     		ldr	r3, [r3]
 1427 009e FB60     		str	r3, [r7, #12]
 356:C:/Users/dtjld/Desktop/AIoT_software/LiteOS_Lab_overseas/LiteOS_Lab/iot_link/network/lwm2m/wakaama_lwm2m/core\observe.c **** 
 357:C:/Users/dtjld/Desktop/AIoT_software/LiteOS_Lab_overseas/LiteOS_Lab/iot_link/network/lwm2m/wakaama_lwm2m/core\observe.c ****             for (watcherP = observedP->watcherList; watcherP != NULL; watcherP = watcherP->next)
 1428              		.loc 2 357 0
 1429 00a0 7B69     		ldr	r3, [r7, #20]
 1430 00a2 DB68     		ldr	r3, [r3, #12]
 1431 00a4 3B61     		str	r3, [r7, #16]
 1432 00a6 0BE0     		b	.L111
 1433              	.L113:
 358:C:/Users/dtjld/Desktop/AIoT_software/LiteOS_Lab_overseas/LiteOS_Lab/iot_link/network/lwm2m/wakaama_lwm2m/core\observe.c ****             {
 359:C:/Users/dtjld/Desktop/AIoT_software/LiteOS_Lab_overseas/LiteOS_Lab/iot_link/network/lwm2m/wakaama_lwm2m/core\observe.c ****                 if (watcherP->parameters != NULL) lwm2m_free(watcherP->parameters);
 1434              		.loc 2 359 0
 1435 00a8 3B69     		ldr	r3, [r7, #16]
 1436 00aa DB68     		ldr	r3, [r3, #12]
 1437 00ac 002B     		cmp	r3, #0
 1438 00ae 04D0     		beq	.L112
 1439              		.loc 2 359 0 is_stmt 0 discriminator 1
 1440 00b0 3B69     		ldr	r3, [r7, #16]
 1441 00b2 DB68     		ldr	r3, [r3, #12]
 1442 00b4 1846     		mov	r0, r3
 1443 00b6 FFF7FEFF 		bl	lwm2m_free
 1444              	.L112:
 357:C:/Users/dtjld/Desktop/AIoT_software/LiteOS_Lab_overseas/LiteOS_Lab/iot_link/network/lwm2m/wakaama_lwm2m/core\observe.c ****             {
 1445              		.loc 2 357 0 is_stmt 1 discriminator 2
 1446 00ba 3B69     		ldr	r3, [r7, #16]
 1447 00bc 1B68     		ldr	r3, [r3]
 1448 00be 3B61     		str	r3, [r7, #16]
 1449              	.L111:
 357:C:/Users/dtjld/Desktop/AIoT_software/LiteOS_Lab_overseas/LiteOS_Lab/iot_link/network/lwm2m/wakaama_lwm2m/core\observe.c ****             {
 1450              		.loc 2 357 0 is_stmt 0 discriminator 1
 1451 00c0 3B69     		ldr	r3, [r7, #16]
 1452 00c2 002B     		cmp	r3, #0
 1453 00c4 F0D1     		bne	.L113
ARM GAS  C:\Users\dtjld\AppData\Local\Temp\ccRVA30A.s 			page 41


 360:C:/Users/dtjld/Desktop/AIoT_software/LiteOS_Lab_overseas/LiteOS_Lab/iot_link/network/lwm2m/wakaama_lwm2m/core\observe.c ****             }
 361:C:/Users/dtjld/Desktop/AIoT_software/LiteOS_Lab_overseas/LiteOS_Lab/iot_link/network/lwm2m/wakaama_lwm2m/core\observe.c ****             LWM2M_LIST_FREE(observedP->watcherList);
 1454              		.loc 2 361 0 is_stmt 1
 1455 00c6 7B69     		ldr	r3, [r7, #20]
 1456 00c8 DB68     		ldr	r3, [r3, #12]
 1457 00ca 1846     		mov	r0, r3
 1458 00cc FFF7FEFF 		bl	lwm2m_list_free
 362:C:/Users/dtjld/Desktop/AIoT_software/LiteOS_Lab_overseas/LiteOS_Lab/iot_link/network/lwm2m/wakaama_lwm2m/core\observe.c **** 
 363:C:/Users/dtjld/Desktop/AIoT_software/LiteOS_Lab_overseas/LiteOS_Lab/iot_link/network/lwm2m/wakaama_lwm2m/core\observe.c ****             prv_unlinkObserved(contextP, observedP);
 1459              		.loc 2 363 0
 1460 00d0 7969     		ldr	r1, [r7, #20]
 1461 00d2 7868     		ldr	r0, [r7, #4]
 1462 00d4 FFF7FEFF 		bl	prv_unlinkObserved
 364:C:/Users/dtjld/Desktop/AIoT_software/LiteOS_Lab_overseas/LiteOS_Lab/iot_link/network/lwm2m/wakaama_lwm2m/core\observe.c ****             lwm2m_free(observedP);
 1463              		.loc 2 364 0
 1464 00d8 7869     		ldr	r0, [r7, #20]
 1465 00da FFF7FEFF 		bl	lwm2m_free
 365:C:/Users/dtjld/Desktop/AIoT_software/LiteOS_Lab_overseas/LiteOS_Lab/iot_link/network/lwm2m/wakaama_lwm2m/core\observe.c **** 
 366:C:/Users/dtjld/Desktop/AIoT_software/LiteOS_Lab_overseas/LiteOS_Lab/iot_link/network/lwm2m/wakaama_lwm2m/core\observe.c ****             observedP = nextP;
 1466              		.loc 2 366 0
 1467 00de FB68     		ldr	r3, [r7, #12]
 1468 00e0 7B61     		str	r3, [r7, #20]
 367:C:/Users/dtjld/Desktop/AIoT_software/LiteOS_Lab_overseas/LiteOS_Lab/iot_link/network/lwm2m/wakaama_lwm2m/core\observe.c ****             osal_mutex_unlock(contextP->observe_mutex);
 1469              		.loc 2 367 0
 1470 00e2 7B68     		ldr	r3, [r7, #4]
 1471 00e4 1B6A     		ldr	r3, [r3, #32]
 1472 00e6 1846     		mov	r0, r3
 1473 00e8 FFF7FEFF 		bl	osal_mutex_unlock
 1474              	.LBE5:
 350:C:/Users/dtjld/Desktop/AIoT_software/LiteOS_Lab_overseas/LiteOS_Lab/iot_link/network/lwm2m/wakaama_lwm2m/core\observe.c ****             lwm2m_observed_t *nextP;
 1475              		.loc 2 350 0
 1476 00ec 02E0     		b	.L108
 1477              	.L109:
 368:C:/Users/dtjld/Desktop/AIoT_software/LiteOS_Lab_overseas/LiteOS_Lab/iot_link/network/lwm2m/wakaama_lwm2m/core\observe.c ****         }
 369:C:/Users/dtjld/Desktop/AIoT_software/LiteOS_Lab_overseas/LiteOS_Lab/iot_link/network/lwm2m/wakaama_lwm2m/core\observe.c ****         else
 370:C:/Users/dtjld/Desktop/AIoT_software/LiteOS_Lab_overseas/LiteOS_Lab/iot_link/network/lwm2m/wakaama_lwm2m/core\observe.c ****         {
 371:C:/Users/dtjld/Desktop/AIoT_software/LiteOS_Lab_overseas/LiteOS_Lab/iot_link/network/lwm2m/wakaama_lwm2m/core\observe.c ****             observedP = observedP->next;
 1478              		.loc 2 371 0
 1479 00ee 7B69     		ldr	r3, [r7, #20]
 1480 00f0 1B68     		ldr	r3, [r3]
 1481 00f2 7B61     		str	r3, [r7, #20]
 1482              	.L108:
 345:C:/Users/dtjld/Desktop/AIoT_software/LiteOS_Lab_overseas/LiteOS_Lab/iot_link/network/lwm2m/wakaama_lwm2m/core\observe.c ****     {
 1483              		.loc 2 345 0
 1484 00f4 7B69     		ldr	r3, [r7, #20]
 1485 00f6 002B     		cmp	r3, #0
 1486 00f8 B8D1     		bne	.L114
 372:C:/Users/dtjld/Desktop/AIoT_software/LiteOS_Lab_overseas/LiteOS_Lab/iot_link/network/lwm2m/wakaama_lwm2m/core\observe.c ****         }
 373:C:/Users/dtjld/Desktop/AIoT_software/LiteOS_Lab_overseas/LiteOS_Lab/iot_link/network/lwm2m/wakaama_lwm2m/core\observe.c ****     }
 374:C:/Users/dtjld/Desktop/AIoT_software/LiteOS_Lab_overseas/LiteOS_Lab/iot_link/network/lwm2m/wakaama_lwm2m/core\observe.c **** }
 1487              		.loc 2 374 0
 1488 00fa 00BF     		nop
 1489 00fc 1837     		adds	r7, r7, #24
 1490              	.LCFI48:
 1491              		.cfi_def_cfa_offset 8
 1492 00fe BD46     		mov	sp, r7
 1493              	.LCFI49:
ARM GAS  C:\Users\dtjld\AppData\Local\Temp\ccRVA30A.s 			page 42


 1494              		.cfi_def_cfa_register 13
 1495              		@ sp needed
 1496 0100 80BD     		pop	{r7, pc}
 1497              	.L116:
 1498 0102 00BF     		.align	2
 1499              	.L115:
 1500 0104 00000000 		.word	__func__.8579
 1501 0108 74010000 		.word	.LC17
 1502 010c 84010000 		.word	.LC18
 1503 0110 90010000 		.word	.LC19
 1504 0114 94010000 		.word	.LC20
 1505              		.cfi_endproc
 1506              	.LFE11:
 1508              		.section	.rodata
 1509 01ae 0000     		.align	2
 1510              	.LC22:
 1511 01b0 5B25645D 		.ascii	"[%d][%s:%d] toSet: %08X, toClear: %08X, minPeriod: "
 1511      5B25733A 
 1511      25645D20 
 1511      746F5365 
 1511      743A2025 
 1512 01e3 25642C20 		.ascii	"%d, maxPeriod: %d, greaterThan: %f, lessThan: %f, s"
 1512      6D617850 
 1512      6572696F 
 1512      643A2025 
 1512      642C2067 
 1513 0216 7465703A 		.ascii	"tep: %f\015\012\000"
 1513      2025660D 
 1513      0A00
 1514              		.global	__aeabi_d2f
 1515              		.align	2
 1516              	.LC23:
 1517 0220 5B25645D 		.ascii	"[%d][%s:%d] Final toSet: %08X, minPeriod: %d, maxPe"
 1517      5B25733A 
 1517      25645D20 
 1517      46696E61 
 1517      6C20746F 
 1518 0253 72696F64 		.ascii	"riod: %d, greaterThan: %f, lessThan: %f, step: %f\015"
 1518      3A202564 
 1518      2C206772 
 1518      65617465 
 1518      72546861 
 1519 0285 0A00     		.ascii	"\012\000"
 1520              		.section	.text.observe_setParameters,"ax",%progbits
 1521              		.align	1
 1522              		.global	observe_setParameters
 1523              		.syntax unified
 1524              		.thumb
 1525              		.thumb_func
 1526              		.fpu fpv4-sp-d16
 1528              	observe_setParameters:
 1529              	.LFB12:
 375:C:/Users/dtjld/Desktop/AIoT_software/LiteOS_Lab_overseas/LiteOS_Lab/iot_link/network/lwm2m/wakaama_lwm2m/core\observe.c **** 
 376:C:/Users/dtjld/Desktop/AIoT_software/LiteOS_Lab_overseas/LiteOS_Lab/iot_link/network/lwm2m/wakaama_lwm2m/core\observe.c **** uint8_t observe_setParameters(lwm2m_context_t *contextP,
 377:C:/Users/dtjld/Desktop/AIoT_software/LiteOS_Lab_overseas/LiteOS_Lab/iot_link/network/lwm2m/wakaama_lwm2m/core\observe.c ****                               lwm2m_uri_t *uriP,
 378:C:/Users/dtjld/Desktop/AIoT_software/LiteOS_Lab_overseas/LiteOS_Lab/iot_link/network/lwm2m/wakaama_lwm2m/core\observe.c ****                               lwm2m_server_t *serverP,
 379:C:/Users/dtjld/Desktop/AIoT_software/LiteOS_Lab_overseas/LiteOS_Lab/iot_link/network/lwm2m/wakaama_lwm2m/core\observe.c ****                               lwm2m_attributes_t *attrP)
ARM GAS  C:\Users\dtjld\AppData\Local\Temp\ccRVA30A.s 			page 43


 380:C:/Users/dtjld/Desktop/AIoT_software/LiteOS_Lab_overseas/LiteOS_Lab/iot_link/network/lwm2m/wakaama_lwm2m/core\observe.c **** {
 1530              		.loc 2 380 0
 1531              		.cfi_startproc
 1532              		@ args = 0, pretend = 0, frame = 56
 1533              		@ frame_needed = 1, uses_anonymous_args = 0
 1534 0000 F0B5     		push	{r4, r5, r6, r7, lr}
 1535              	.LCFI50:
 1536              		.cfi_def_cfa_offset 20
 1537              		.cfi_offset 4, -20
 1538              		.cfi_offset 5, -16
 1539              		.cfi_offset 6, -12
 1540              		.cfi_offset 7, -8
 1541              		.cfi_offset 14, -4
 1542 0002 99B0     		sub	sp, sp, #100
 1543              	.LCFI51:
 1544              		.cfi_def_cfa_offset 120
 1545 0004 0AAF     		add	r7, sp, #40
 1546              	.LCFI52:
 1547              		.cfi_def_cfa 7, 80
 1548 0006 F861     		str	r0, [r7, #28]
 1549 0008 B961     		str	r1, [r7, #24]
 1550 000a 7A61     		str	r2, [r7, #20]
 1551 000c 3B61     		str	r3, [r7, #16]
 381:C:/Users/dtjld/Desktop/AIoT_software/LiteOS_Lab_overseas/LiteOS_Lab/iot_link/network/lwm2m/wakaama_lwm2m/core\observe.c ****     uint8_t result;
 382:C:/Users/dtjld/Desktop/AIoT_software/LiteOS_Lab_overseas/LiteOS_Lab/iot_link/network/lwm2m/wakaama_lwm2m/core\observe.c ****     lwm2m_watcher_t *watcherP;
 383:C:/Users/dtjld/Desktop/AIoT_software/LiteOS_Lab_overseas/LiteOS_Lab/iot_link/network/lwm2m/wakaama_lwm2m/core\observe.c **** 
 384:C:/Users/dtjld/Desktop/AIoT_software/LiteOS_Lab_overseas/LiteOS_Lab/iot_link/network/lwm2m/wakaama_lwm2m/core\observe.c ****     LOG_URI(uriP);
 1552              		.loc 2 384 0
 1553 000e BB69     		ldr	r3, [r7, #24]
 1554 0010 002B     		cmp	r3, #0
 1555 0012 06D1     		bne	.L118
 1556              		.loc 2 384 0 is_stmt 0 discriminator 1
 1557 0014 4FF4C072 		mov	r2, #384
 1558 0018 8F49     		ldr	r1, .L146
 1559 001a 9048     		ldr	r0, .L146+4
 1560 001c FFF7FEFF 		bl	atiny_printf
 1561 0020 22E0     		b	.L119
 1562              	.L118:
 1563              		.loc 2 384 0 discriminator 2
 1564 0022 BB69     		ldr	r3, [r7, #24]
 1565 0024 5B88     		ldrh	r3, [r3, #2]
 1566 0026 4FF4C072 		mov	r2, #384
 1567 002a 8B49     		ldr	r1, .L146
 1568 002c 8C48     		ldr	r0, .L146+8
 1569 002e FFF7FEFF 		bl	atiny_printf
 1570 0032 BB69     		ldr	r3, [r7, #24]
 1571 0034 1B78     		ldrb	r3, [r3]	@ zero_extendqisi2
 1572 0036 03F00203 		and	r3, r3, #2
 1573 003a 002B     		cmp	r3, #0
 1574 003c 05D0     		beq	.L120
 1575              		.loc 2 384 0 discriminator 3
 1576 003e BB69     		ldr	r3, [r7, #24]
 1577 0040 9B88     		ldrh	r3, [r3, #4]
 1578 0042 1946     		mov	r1, r3
 1579 0044 8748     		ldr	r0, .L146+12
 1580 0046 FFF7FEFF 		bl	atiny_printf
 1581              	.L120:
ARM GAS  C:\Users\dtjld\AppData\Local\Temp\ccRVA30A.s 			page 44


 1582              		.loc 2 384 0 discriminator 5
 1583 004a BB69     		ldr	r3, [r7, #24]
 1584 004c 1B78     		ldrb	r3, [r3]	@ zero_extendqisi2
 1585 004e 03F00103 		and	r3, r3, #1
 1586 0052 002B     		cmp	r3, #0
 1587 0054 05D0     		beq	.L121
 1588              		.loc 2 384 0 discriminator 6
 1589 0056 BB69     		ldr	r3, [r7, #24]
 1590 0058 DB88     		ldrh	r3, [r3, #6]
 1591 005a 1946     		mov	r1, r3
 1592 005c 8148     		ldr	r0, .L146+12
 1593 005e FFF7FEFF 		bl	atiny_printf
 1594              	.L121:
 1595              		.loc 2 384 0 discriminator 8
 1596 0062 8148     		ldr	r0, .L146+16
 1597 0064 FFF7FEFF 		bl	atiny_printf
 1598              	.L119:
 385:C:/Users/dtjld/Desktop/AIoT_software/LiteOS_Lab_overseas/LiteOS_Lab/iot_link/network/lwm2m/wakaama_lwm2m/core\observe.c ****     LOG_ARG("toSet: %08X, toClear: %08X, minPeriod: %d, maxPeriod: %d, greaterThan: %f, lessThan: %
 1599              		.loc 2 385 0 is_stmt 1
 1600 0068 FFF7FEFF 		bl	lwm2m_gettime
 1601 006c 0346     		mov	r3, r0
 1602 006e 0C46     		mov	r4, r1
 1603 0070 9C46     		mov	ip, r3
 1604 0072 3B69     		ldr	r3, [r7, #16]
 1605 0074 1B78     		ldrb	r3, [r3]	@ zero_extendqisi2
 1606 0076 FB60     		str	r3, [r7, #12]
 1607 0078 3B69     		ldr	r3, [r7, #16]
 1608 007a 5B78     		ldrb	r3, [r3, #1]	@ zero_extendqisi2
 1609 007c BB60     		str	r3, [r7, #8]
 1610 007e 3B69     		ldr	r3, [r7, #16]
 1611 0080 5868     		ldr	r0, [r3, #4]
 1612 0082 3B69     		ldr	r3, [r7, #16]
 1613 0084 9A68     		ldr	r2, [r3, #8]
 1614 0086 7A60     		str	r2, [r7, #4]
 1615 0088 3B69     		ldr	r3, [r7, #16]
 1616 008a D3E90434 		ldrd	r3, [r3, #16]
 1617 008e 3A69     		ldr	r2, [r7, #16]
 1618 0090 D2E90612 		ldrd	r1, [r2, #24]
 1619 0094 3D69     		ldr	r5, [r7, #16]
 1620 0096 D5E90856 		ldrd	r5, [r5, #32]
 1621 009a CDE90856 		strd	r5, [sp, #32]
 1622 009e CDE90612 		strd	r1, [sp, #24]
 1623 00a2 CDE90434 		strd	r3, [sp, #16]
 1624 00a6 7A68     		ldr	r2, [r7, #4]
 1625 00a8 0392     		str	r2, [sp, #12]
 1626 00aa 0290     		str	r0, [sp, #8]
 1627 00ac BA68     		ldr	r2, [r7, #8]
 1628 00ae 0192     		str	r2, [sp, #4]
 1629 00b0 FB68     		ldr	r3, [r7, #12]
 1630 00b2 0093     		str	r3, [sp]
 1631 00b4 4FF4C173 		mov	r3, #386
 1632 00b8 674A     		ldr	r2, .L146
 1633 00ba 6146     		mov	r1, ip
 1634 00bc 6B48     		ldr	r0, .L146+20
 1635 00be FFF7FEFF 		bl	atiny_printf
 386:C:/Users/dtjld/Desktop/AIoT_software/LiteOS_Lab_overseas/LiteOS_Lab/iot_link/network/lwm2m/wakaama_lwm2m/core\observe.c ****             attrP->toSet, attrP->toClear, attrP->minPeriod, attrP->maxPeriod, attrP->greaterThan, a
 387:C:/Users/dtjld/Desktop/AIoT_software/LiteOS_Lab_overseas/LiteOS_Lab/iot_link/network/lwm2m/wakaama_lwm2m/core\observe.c **** 
ARM GAS  C:\Users\dtjld\AppData\Local\Temp\ccRVA30A.s 			page 45


 388:C:/Users/dtjld/Desktop/AIoT_software/LiteOS_Lab_overseas/LiteOS_Lab/iot_link/network/lwm2m/wakaama_lwm2m/core\observe.c ****     if (!LWM2M_URI_IS_SET_INSTANCE(uriP) && LWM2M_URI_IS_SET_RESOURCE(uriP)) return COAP_400_BAD_RE
 1636              		.loc 2 388 0
 1637 00c2 BB69     		ldr	r3, [r7, #24]
 1638 00c4 1B78     		ldrb	r3, [r3]	@ zero_extendqisi2
 1639 00c6 03F00203 		and	r3, r3, #2
 1640 00ca 002B     		cmp	r3, #0
 1641 00cc 07D1     		bne	.L122
 1642              		.loc 2 388 0 is_stmt 0 discriminator 1
 1643 00ce BB69     		ldr	r3, [r7, #24]
 1644 00d0 1B78     		ldrb	r3, [r3]	@ zero_extendqisi2
 1645 00d2 03F00103 		and	r3, r3, #1
 1646 00d6 002B     		cmp	r3, #0
 1647 00d8 01D0     		beq	.L122
 1648              		.loc 2 388 0 discriminator 2
 1649 00da 8023     		movs	r3, #128
 1650 00dc 43E1     		b	.L123
 1651              	.L122:
 389:C:/Users/dtjld/Desktop/AIoT_software/LiteOS_Lab_overseas/LiteOS_Lab/iot_link/network/lwm2m/wakaama_lwm2m/core\observe.c **** 
 390:C:/Users/dtjld/Desktop/AIoT_software/LiteOS_Lab_overseas/LiteOS_Lab/iot_link/network/lwm2m/wakaama_lwm2m/core\observe.c ****     result = object_checkReadable(contextP, uriP);
 1652              		.loc 2 390 0 is_stmt 1
 1653 00de B969     		ldr	r1, [r7, #24]
 1654 00e0 F869     		ldr	r0, [r7, #28]
 1655 00e2 FFF7FEFF 		bl	object_checkReadable
 1656 00e6 0346     		mov	r3, r0
 1657 00e8 87F82B30 		strb	r3, [r7, #43]
 391:C:/Users/dtjld/Desktop/AIoT_software/LiteOS_Lab_overseas/LiteOS_Lab/iot_link/network/lwm2m/wakaama_lwm2m/core\observe.c ****     if (COAP_205_CONTENT != result) return result;
 1658              		.loc 2 391 0
 1659 00ec 97F82B30 		ldrb	r3, [r7, #43]	@ zero_extendqisi2
 1660 00f0 452B     		cmp	r3, #69
 1661 00f2 02D0     		beq	.L124
 1662              		.loc 2 391 0 is_stmt 0 discriminator 1
 1663 00f4 97F82B30 		ldrb	r3, [r7, #43]	@ zero_extendqisi2
 1664 00f8 35E1     		b	.L123
 1665              	.L124:
 392:C:/Users/dtjld/Desktop/AIoT_software/LiteOS_Lab_overseas/LiteOS_Lab/iot_link/network/lwm2m/wakaama_lwm2m/core\observe.c **** 
 393:C:/Users/dtjld/Desktop/AIoT_software/LiteOS_Lab_overseas/LiteOS_Lab/iot_link/network/lwm2m/wakaama_lwm2m/core\observe.c ****     if (0 != (attrP->toSet & ATTR_FLAG_NUMERIC))
 1666              		.loc 2 393 0 is_stmt 1
 1667 00fa 3B69     		ldr	r3, [r7, #16]
 1668 00fc 1B78     		ldrb	r3, [r3]	@ zero_extendqisi2
 1669 00fe 03F01C03 		and	r3, r3, #28
 1670 0102 002B     		cmp	r3, #0
 1671 0104 0DD0     		beq	.L125
 394:C:/Users/dtjld/Desktop/AIoT_software/LiteOS_Lab_overseas/LiteOS_Lab/iot_link/network/lwm2m/wakaama_lwm2m/core\observe.c ****     {
 395:C:/Users/dtjld/Desktop/AIoT_software/LiteOS_Lab_overseas/LiteOS_Lab/iot_link/network/lwm2m/wakaama_lwm2m/core\observe.c ****         result = object_checkNumeric(contextP, uriP);
 1672              		.loc 2 395 0
 1673 0106 B969     		ldr	r1, [r7, #24]
 1674 0108 F869     		ldr	r0, [r7, #28]
 1675 010a FFF7FEFF 		bl	object_checkNumeric
 1676 010e 0346     		mov	r3, r0
 1677 0110 87F82B30 		strb	r3, [r7, #43]
 396:C:/Users/dtjld/Desktop/AIoT_software/LiteOS_Lab_overseas/LiteOS_Lab/iot_link/network/lwm2m/wakaama_lwm2m/core\observe.c ****         if (COAP_205_CONTENT != result) return result;
 1678              		.loc 2 396 0
 1679 0114 97F82B30 		ldrb	r3, [r7, #43]	@ zero_extendqisi2
 1680 0118 452B     		cmp	r3, #69
 1681 011a 02D0     		beq	.L125
 1682              		.loc 2 396 0 is_stmt 0 discriminator 1
 1683 011c 97F82B30 		ldrb	r3, [r7, #43]	@ zero_extendqisi2
ARM GAS  C:\Users\dtjld\AppData\Local\Temp\ccRVA30A.s 			page 46


 1684 0120 21E1     		b	.L123
 1685              	.L125:
 397:C:/Users/dtjld/Desktop/AIoT_software/LiteOS_Lab_overseas/LiteOS_Lab/iot_link/network/lwm2m/wakaama_lwm2m/core\observe.c ****     }
 398:C:/Users/dtjld/Desktop/AIoT_software/LiteOS_Lab_overseas/LiteOS_Lab/iot_link/network/lwm2m/wakaama_lwm2m/core\observe.c **** 
 399:C:/Users/dtjld/Desktop/AIoT_software/LiteOS_Lab_overseas/LiteOS_Lab/iot_link/network/lwm2m/wakaama_lwm2m/core\observe.c ****     watcherP = prv_getWatcher(contextP, uriP, serverP);
 1686              		.loc 2 399 0 is_stmt 1
 1687 0122 7A69     		ldr	r2, [r7, #20]
 1688 0124 B969     		ldr	r1, [r7, #24]
 1689 0126 F869     		ldr	r0, [r7, #28]
 1690 0128 FFF7FEFF 		bl	prv_getWatcher
 1691 012c 7862     		str	r0, [r7, #36]
 400:C:/Users/dtjld/Desktop/AIoT_software/LiteOS_Lab_overseas/LiteOS_Lab/iot_link/network/lwm2m/wakaama_lwm2m/core\observe.c ****     if (watcherP == NULL) return COAP_500_INTERNAL_SERVER_ERROR;
 1692              		.loc 2 400 0
 1693 012e 7B6A     		ldr	r3, [r7, #36]
 1694 0130 002B     		cmp	r3, #0
 1695 0132 01D1     		bne	.L126
 1696              		.loc 2 400 0 is_stmt 0 discriminator 1
 1697 0134 A023     		movs	r3, #160
 1698 0136 16E1     		b	.L123
 1699              	.L126:
 401:C:/Users/dtjld/Desktop/AIoT_software/LiteOS_Lab_overseas/LiteOS_Lab/iot_link/network/lwm2m/wakaama_lwm2m/core\observe.c **** 
 402:C:/Users/dtjld/Desktop/AIoT_software/LiteOS_Lab_overseas/LiteOS_Lab/iot_link/network/lwm2m/wakaama_lwm2m/core\observe.c ****     // Check rule lt?value + 2*stp?values < gt?value
 403:C:/Users/dtjld/Desktop/AIoT_software/LiteOS_Lab_overseas/LiteOS_Lab/iot_link/network/lwm2m/wakaama_lwm2m/core\observe.c ****     if ((((attrP->toSet | (watcherP->parameters ? watcherP->parameters->toSet : 0)) & ~attrP->toCle
 1700              		.loc 2 403 0 is_stmt 1
 1701 0138 3B69     		ldr	r3, [r7, #16]
 1702 013a 1B78     		ldrb	r3, [r3]	@ zero_extendqisi2
 1703 013c 1A46     		mov	r2, r3
 1704 013e 7B6A     		ldr	r3, [r7, #36]
 1705 0140 DB68     		ldr	r3, [r3, #12]
 1706 0142 002B     		cmp	r3, #0
 1707 0144 03D0     		beq	.L127
 1708              		.loc 2 403 0 is_stmt 0 discriminator 1
 1709 0146 7B6A     		ldr	r3, [r7, #36]
 1710 0148 DB68     		ldr	r3, [r3, #12]
 1711 014a 1B78     		ldrb	r3, [r3]	@ zero_extendqisi2
 1712 014c 00E0     		b	.L128
 1713              	.L127:
 1714              		.loc 2 403 0 discriminator 2
 1715 014e 0023     		movs	r3, #0
 1716              	.L128:
 1717              		.loc 2 403 0 discriminator 4
 1718 0150 1A43     		orrs	r2, r2, r3
 1719 0152 3B69     		ldr	r3, [r7, #16]
 1720 0154 5B78     		ldrb	r3, [r3, #1]	@ zero_extendqisi2
 1721 0156 DB43     		mvns	r3, r3
 1722 0158 1340     		ands	r3, r3, r2
 1723 015a 03F01C03 		and	r3, r3, #28
 1724 015e 1C2B     		cmp	r3, #28
 1725 0160 5ED1     		bne	.L129
 1726              	.LBB6:
 404:C:/Users/dtjld/Desktop/AIoT_software/LiteOS_Lab_overseas/LiteOS_Lab/iot_link/network/lwm2m/wakaama_lwm2m/core\observe.c ****     {
 405:C:/Users/dtjld/Desktop/AIoT_software/LiteOS_Lab_overseas/LiteOS_Lab/iot_link/network/lwm2m/wakaama_lwm2m/core\observe.c ****         float gt;
 406:C:/Users/dtjld/Desktop/AIoT_software/LiteOS_Lab_overseas/LiteOS_Lab/iot_link/network/lwm2m/wakaama_lwm2m/core\observe.c ****         float lt;
 407:C:/Users/dtjld/Desktop/AIoT_software/LiteOS_Lab_overseas/LiteOS_Lab/iot_link/network/lwm2m/wakaama_lwm2m/core\observe.c ****         float stp;
 408:C:/Users/dtjld/Desktop/AIoT_software/LiteOS_Lab_overseas/LiteOS_Lab/iot_link/network/lwm2m/wakaama_lwm2m/core\observe.c **** 
 409:C:/Users/dtjld/Desktop/AIoT_software/LiteOS_Lab_overseas/LiteOS_Lab/iot_link/network/lwm2m/wakaama_lwm2m/core\observe.c ****         if (0 != (attrP->toSet & LWM2M_ATTR_FLAG_GREATER_THAN))
 1727              		.loc 2 409 0 is_stmt 1
ARM GAS  C:\Users\dtjld\AppData\Local\Temp\ccRVA30A.s 			page 47


 1728 0162 3B69     		ldr	r3, [r7, #16]
 1729 0164 1B78     		ldrb	r3, [r3]	@ zero_extendqisi2
 1730 0166 03F00403 		and	r3, r3, #4
 1731 016a 002B     		cmp	r3, #0
 1732 016c 09D0     		beq	.L130
 410:C:/Users/dtjld/Desktop/AIoT_software/LiteOS_Lab_overseas/LiteOS_Lab/iot_link/network/lwm2m/wakaama_lwm2m/core\observe.c ****         {
 411:C:/Users/dtjld/Desktop/AIoT_software/LiteOS_Lab_overseas/LiteOS_Lab/iot_link/network/lwm2m/wakaama_lwm2m/core\observe.c ****             gt = attrP->greaterThan;
 1733              		.loc 2 411 0
 1734 016e 3B69     		ldr	r3, [r7, #16]
 1735 0170 D3E90434 		ldrd	r3, [r3, #16]
 1736 0174 1846     		mov	r0, r3
 1737 0176 2146     		mov	r1, r4
 1738 0178 FFF7FEFF 		bl	__aeabi_d2f
 1739              	.LVL0:
 1740 017c 0346     		mov	r3, r0	@ float
 1741 017e 7B63     		str	r3, [r7, #52]	@ float
 1742 0180 09E0     		b	.L131
 1743              	.L130:
 412:C:/Users/dtjld/Desktop/AIoT_software/LiteOS_Lab_overseas/LiteOS_Lab/iot_link/network/lwm2m/wakaama_lwm2m/core\observe.c ****         }
 413:C:/Users/dtjld/Desktop/AIoT_software/LiteOS_Lab_overseas/LiteOS_Lab/iot_link/network/lwm2m/wakaama_lwm2m/core\observe.c ****         else
 414:C:/Users/dtjld/Desktop/AIoT_software/LiteOS_Lab_overseas/LiteOS_Lab/iot_link/network/lwm2m/wakaama_lwm2m/core\observe.c ****         {
 415:C:/Users/dtjld/Desktop/AIoT_software/LiteOS_Lab_overseas/LiteOS_Lab/iot_link/network/lwm2m/wakaama_lwm2m/core\observe.c ****             gt = watcherP->parameters->greaterThan;
 1744              		.loc 2 415 0
 1745 0182 7B6A     		ldr	r3, [r7, #36]
 1746 0184 DB68     		ldr	r3, [r3, #12]
 1747 0186 D3E90434 		ldrd	r3, [r3, #16]
 1748 018a 1846     		mov	r0, r3
 1749 018c 2146     		mov	r1, r4
 1750 018e FFF7FEFF 		bl	__aeabi_d2f
 1751              	.LVL1:
 1752 0192 0346     		mov	r3, r0	@ float
 1753 0194 7B63     		str	r3, [r7, #52]	@ float
 1754              	.L131:
 416:C:/Users/dtjld/Desktop/AIoT_software/LiteOS_Lab_overseas/LiteOS_Lab/iot_link/network/lwm2m/wakaama_lwm2m/core\observe.c ****         }
 417:C:/Users/dtjld/Desktop/AIoT_software/LiteOS_Lab_overseas/LiteOS_Lab/iot_link/network/lwm2m/wakaama_lwm2m/core\observe.c ****         if (0 != (attrP->toSet & LWM2M_ATTR_FLAG_LESS_THAN))
 1755              		.loc 2 417 0
 1756 0196 3B69     		ldr	r3, [r7, #16]
 1757 0198 1B78     		ldrb	r3, [r3]	@ zero_extendqisi2
 1758 019a 03F00803 		and	r3, r3, #8
 1759 019e 002B     		cmp	r3, #0
 1760 01a0 09D0     		beq	.L132
 418:C:/Users/dtjld/Desktop/AIoT_software/LiteOS_Lab_overseas/LiteOS_Lab/iot_link/network/lwm2m/wakaama_lwm2m/core\observe.c ****         {
 419:C:/Users/dtjld/Desktop/AIoT_software/LiteOS_Lab_overseas/LiteOS_Lab/iot_link/network/lwm2m/wakaama_lwm2m/core\observe.c ****             lt = attrP->lessThan;
 1761              		.loc 2 419 0
 1762 01a2 3B69     		ldr	r3, [r7, #16]
 1763 01a4 D3E90634 		ldrd	r3, [r3, #24]
 1764 01a8 1846     		mov	r0, r3
 1765 01aa 2146     		mov	r1, r4
 1766 01ac FFF7FEFF 		bl	__aeabi_d2f
 1767              	.LVL2:
 1768 01b0 0346     		mov	r3, r0	@ float
 1769 01b2 3B63     		str	r3, [r7, #48]	@ float
 1770 01b4 09E0     		b	.L133
 1771              	.L132:
 420:C:/Users/dtjld/Desktop/AIoT_software/LiteOS_Lab_overseas/LiteOS_Lab/iot_link/network/lwm2m/wakaama_lwm2m/core\observe.c ****         }
 421:C:/Users/dtjld/Desktop/AIoT_software/LiteOS_Lab_overseas/LiteOS_Lab/iot_link/network/lwm2m/wakaama_lwm2m/core\observe.c ****         else
 422:C:/Users/dtjld/Desktop/AIoT_software/LiteOS_Lab_overseas/LiteOS_Lab/iot_link/network/lwm2m/wakaama_lwm2m/core\observe.c ****         {
ARM GAS  C:\Users\dtjld\AppData\Local\Temp\ccRVA30A.s 			page 48


 423:C:/Users/dtjld/Desktop/AIoT_software/LiteOS_Lab_overseas/LiteOS_Lab/iot_link/network/lwm2m/wakaama_lwm2m/core\observe.c ****             lt = watcherP->parameters->lessThan;
 1772              		.loc 2 423 0
 1773 01b6 7B6A     		ldr	r3, [r7, #36]
 1774 01b8 DB68     		ldr	r3, [r3, #12]
 1775 01ba D3E90634 		ldrd	r3, [r3, #24]
 1776 01be 1846     		mov	r0, r3
 1777 01c0 2146     		mov	r1, r4
 1778 01c2 FFF7FEFF 		bl	__aeabi_d2f
 1779              	.LVL3:
 1780 01c6 0346     		mov	r3, r0	@ float
 1781 01c8 3B63     		str	r3, [r7, #48]	@ float
 1782              	.L133:
 424:C:/Users/dtjld/Desktop/AIoT_software/LiteOS_Lab_overseas/LiteOS_Lab/iot_link/network/lwm2m/wakaama_lwm2m/core\observe.c ****         }
 425:C:/Users/dtjld/Desktop/AIoT_software/LiteOS_Lab_overseas/LiteOS_Lab/iot_link/network/lwm2m/wakaama_lwm2m/core\observe.c ****         if (0 != (attrP->toSet & LWM2M_ATTR_FLAG_STEP))
 1783              		.loc 2 425 0
 1784 01ca 3B69     		ldr	r3, [r7, #16]
 1785 01cc 1B78     		ldrb	r3, [r3]	@ zero_extendqisi2
 1786 01ce 03F01003 		and	r3, r3, #16
 1787 01d2 002B     		cmp	r3, #0
 1788 01d4 09D0     		beq	.L134
 426:C:/Users/dtjld/Desktop/AIoT_software/LiteOS_Lab_overseas/LiteOS_Lab/iot_link/network/lwm2m/wakaama_lwm2m/core\observe.c ****         {
 427:C:/Users/dtjld/Desktop/AIoT_software/LiteOS_Lab_overseas/LiteOS_Lab/iot_link/network/lwm2m/wakaama_lwm2m/core\observe.c ****             stp = attrP->step;
 1789              		.loc 2 427 0
 1790 01d6 3B69     		ldr	r3, [r7, #16]
 1791 01d8 D3E90834 		ldrd	r3, [r3, #32]
 1792 01dc 1846     		mov	r0, r3
 1793 01de 2146     		mov	r1, r4
 1794 01e0 FFF7FEFF 		bl	__aeabi_d2f
 1795              	.LVL4:
 1796 01e4 0346     		mov	r3, r0	@ float
 1797 01e6 FB62     		str	r3, [r7, #44]	@ float
 1798 01e8 09E0     		b	.L135
 1799              	.L134:
 428:C:/Users/dtjld/Desktop/AIoT_software/LiteOS_Lab_overseas/LiteOS_Lab/iot_link/network/lwm2m/wakaama_lwm2m/core\observe.c ****         }
 429:C:/Users/dtjld/Desktop/AIoT_software/LiteOS_Lab_overseas/LiteOS_Lab/iot_link/network/lwm2m/wakaama_lwm2m/core\observe.c ****         else
 430:C:/Users/dtjld/Desktop/AIoT_software/LiteOS_Lab_overseas/LiteOS_Lab/iot_link/network/lwm2m/wakaama_lwm2m/core\observe.c ****         {
 431:C:/Users/dtjld/Desktop/AIoT_software/LiteOS_Lab_overseas/LiteOS_Lab/iot_link/network/lwm2m/wakaama_lwm2m/core\observe.c ****             stp = watcherP->parameters->step;
 1800              		.loc 2 431 0
 1801 01ea 7B6A     		ldr	r3, [r7, #36]
 1802 01ec DB68     		ldr	r3, [r3, #12]
 1803 01ee D3E90834 		ldrd	r3, [r3, #32]
 1804 01f2 1846     		mov	r0, r3
 1805 01f4 2146     		mov	r1, r4
 1806 01f6 FFF7FEFF 		bl	__aeabi_d2f
 1807              	.LVL5:
 1808 01fa 0346     		mov	r3, r0	@ float
 1809 01fc FB62     		str	r3, [r7, #44]	@ float
 1810              	.L135:
 432:C:/Users/dtjld/Desktop/AIoT_software/LiteOS_Lab_overseas/LiteOS_Lab/iot_link/network/lwm2m/wakaama_lwm2m/core\observe.c ****         }
 433:C:/Users/dtjld/Desktop/AIoT_software/LiteOS_Lab_overseas/LiteOS_Lab/iot_link/network/lwm2m/wakaama_lwm2m/core\observe.c **** 
 434:C:/Users/dtjld/Desktop/AIoT_software/LiteOS_Lab_overseas/LiteOS_Lab/iot_link/network/lwm2m/wakaama_lwm2m/core\observe.c ****         if (lt + (2 * stp) >= gt) return COAP_400_BAD_REQUEST;
 1811              		.loc 2 434 0
 1812 01fe D7ED0B7A 		vldr.32	s15, [r7, #44]
 1813 0202 37EEA77A 		vadd.f32	s14, s15, s15
 1814 0206 D7ED0C7A 		vldr.32	s15, [r7, #48]
 1815 020a 77EE277A 		vadd.f32	s15, s14, s15
 1816 020e 97ED0D7A 		vldr.32	s14, [r7, #52]
ARM GAS  C:\Users\dtjld\AppData\Local\Temp\ccRVA30A.s 			page 49


 1817 0212 B4EEE77A 		vcmpe.f32	s14, s15
 1818 0216 F1EE10FA 		vmrs	APSR_nzcv, FPSCR
 1819 021a 01D8     		bhi	.L129
 1820              		.loc 2 434 0 is_stmt 0 discriminator 1
 1821 021c 8023     		movs	r3, #128
 1822 021e A2E0     		b	.L123
 1823              	.L129:
 1824              	.LBE6:
 435:C:/Users/dtjld/Desktop/AIoT_software/LiteOS_Lab_overseas/LiteOS_Lab/iot_link/network/lwm2m/wakaama_lwm2m/core\observe.c ****     }
 436:C:/Users/dtjld/Desktop/AIoT_software/LiteOS_Lab_overseas/LiteOS_Lab/iot_link/network/lwm2m/wakaama_lwm2m/core\observe.c **** 
 437:C:/Users/dtjld/Desktop/AIoT_software/LiteOS_Lab_overseas/LiteOS_Lab/iot_link/network/lwm2m/wakaama_lwm2m/core\observe.c ****     if (watcherP->parameters == NULL)
 1825              		.loc 2 437 0 is_stmt 1
 1826 0220 7B6A     		ldr	r3, [r7, #36]
 1827 0222 DB68     		ldr	r3, [r3, #12]
 1828 0224 002B     		cmp	r3, #0
 1829 0226 23D1     		bne	.L137
 438:C:/Users/dtjld/Desktop/AIoT_software/LiteOS_Lab_overseas/LiteOS_Lab/iot_link/network/lwm2m/wakaama_lwm2m/core\observe.c ****     {
 439:C:/Users/dtjld/Desktop/AIoT_software/LiteOS_Lab_overseas/LiteOS_Lab/iot_link/network/lwm2m/wakaama_lwm2m/core\observe.c ****         if (attrP->toSet != 0)
 1830              		.loc 2 439 0
 1831 0228 3B69     		ldr	r3, [r7, #16]
 1832 022a 1B78     		ldrb	r3, [r3]	@ zero_extendqisi2
 1833 022c 002B     		cmp	r3, #0
 1834 022e 6BD0     		beq	.L140
 440:C:/Users/dtjld/Desktop/AIoT_software/LiteOS_Lab_overseas/LiteOS_Lab/iot_link/network/lwm2m/wakaama_lwm2m/core\observe.c ****         {
 441:C:/Users/dtjld/Desktop/AIoT_software/LiteOS_Lab_overseas/LiteOS_Lab/iot_link/network/lwm2m/wakaama_lwm2m/core\observe.c ****             watcherP->parameters = (lwm2m_attributes_t *)lwm2m_malloc(sizeof(lwm2m_attributes_t));
 1835              		.loc 2 441 0
 1836 0230 2820     		movs	r0, #40
 1837 0232 FFF7FEFF 		bl	lwm2m_malloc
 1838 0236 0246     		mov	r2, r0
 1839 0238 7B6A     		ldr	r3, [r7, #36]
 1840 023a DA60     		str	r2, [r3, #12]
 442:C:/Users/dtjld/Desktop/AIoT_software/LiteOS_Lab_overseas/LiteOS_Lab/iot_link/network/lwm2m/wakaama_lwm2m/core\observe.c ****             if (watcherP->parameters == NULL) return COAP_500_INTERNAL_SERVER_ERROR;
 1841              		.loc 2 442 0
 1842 023c 7B6A     		ldr	r3, [r7, #36]
 1843 023e DB68     		ldr	r3, [r3, #12]
 1844 0240 002B     		cmp	r3, #0
 1845 0242 01D1     		bne	.L139
 1846              		.loc 2 442 0 is_stmt 0 discriminator 1
 1847 0244 A023     		movs	r3, #160
 1848 0246 8EE0     		b	.L123
 1849              	.L139:
 443:C:/Users/dtjld/Desktop/AIoT_software/LiteOS_Lab_overseas/LiteOS_Lab/iot_link/network/lwm2m/wakaama_lwm2m/core\observe.c ****             memcpy(watcherP->parameters, attrP, sizeof(lwm2m_attributes_t));
 1850              		.loc 2 443 0 is_stmt 1
 1851 0248 7B6A     		ldr	r3, [r7, #36]
 1852 024a DB68     		ldr	r3, [r3, #12]
 1853 024c 2822     		movs	r2, #40
 1854 024e 3969     		ldr	r1, [r7, #16]
 1855 0250 1846     		mov	r0, r3
 1856 0252 FFF7FEFF 		bl	memcpy
 1857 0256 57E0     		b	.L140
 1858              	.L147:
 1859              		.align	2
 1860              	.L146:
 1861 0258 00000000 		.word	__func__.8596
 1862 025c 74010000 		.word	.LC17
 1863 0260 84010000 		.word	.LC18
 1864 0264 90010000 		.word	.LC19
ARM GAS  C:\Users\dtjld\AppData\Local\Temp\ccRVA30A.s 			page 50


 1865 0268 94010000 		.word	.LC20
 1866 026c B0010000 		.word	.LC22
 1867              	.L137:
 444:C:/Users/dtjld/Desktop/AIoT_software/LiteOS_Lab_overseas/LiteOS_Lab/iot_link/network/lwm2m/wakaama_lwm2m/core\observe.c ****         }
 445:C:/Users/dtjld/Desktop/AIoT_software/LiteOS_Lab_overseas/LiteOS_Lab/iot_link/network/lwm2m/wakaama_lwm2m/core\observe.c ****     }
 446:C:/Users/dtjld/Desktop/AIoT_software/LiteOS_Lab_overseas/LiteOS_Lab/iot_link/network/lwm2m/wakaama_lwm2m/core\observe.c ****     else
 447:C:/Users/dtjld/Desktop/AIoT_software/LiteOS_Lab_overseas/LiteOS_Lab/iot_link/network/lwm2m/wakaama_lwm2m/core\observe.c ****     {
 448:C:/Users/dtjld/Desktop/AIoT_software/LiteOS_Lab_overseas/LiteOS_Lab/iot_link/network/lwm2m/wakaama_lwm2m/core\observe.c ****         watcherP->parameters->toSet &= ~attrP->toClear;
 1868              		.loc 2 448 0
 1869 0270 7B6A     		ldr	r3, [r7, #36]
 1870 0272 DB68     		ldr	r3, [r3, #12]
 1871 0274 1B78     		ldrb	r3, [r3]	@ zero_extendqisi2
 1872 0276 5AB2     		sxtb	r2, r3
 1873 0278 3B69     		ldr	r3, [r7, #16]
 1874 027a 5B78     		ldrb	r3, [r3, #1]	@ zero_extendqisi2
 1875 027c 5BB2     		sxtb	r3, r3
 1876 027e DB43     		mvns	r3, r3
 1877 0280 5BB2     		sxtb	r3, r3
 1878 0282 1340     		ands	r3, r3, r2
 1879 0284 5AB2     		sxtb	r2, r3
 1880 0286 7B6A     		ldr	r3, [r7, #36]
 1881 0288 DB68     		ldr	r3, [r3, #12]
 1882 028a D2B2     		uxtb	r2, r2
 1883 028c 1A70     		strb	r2, [r3]
 449:C:/Users/dtjld/Desktop/AIoT_software/LiteOS_Lab_overseas/LiteOS_Lab/iot_link/network/lwm2m/wakaama_lwm2m/core\observe.c ****         if (attrP->toSet & LWM2M_ATTR_FLAG_MIN_PERIOD)
 1884              		.loc 2 449 0
 1885 028e 3B69     		ldr	r3, [r7, #16]
 1886 0290 1B78     		ldrb	r3, [r3]	@ zero_extendqisi2
 1887 0292 03F00103 		and	r3, r3, #1
 1888 0296 002B     		cmp	r3, #0
 1889 0298 04D0     		beq	.L141
 450:C:/Users/dtjld/Desktop/AIoT_software/LiteOS_Lab_overseas/LiteOS_Lab/iot_link/network/lwm2m/wakaama_lwm2m/core\observe.c ****         {
 451:C:/Users/dtjld/Desktop/AIoT_software/LiteOS_Lab_overseas/LiteOS_Lab/iot_link/network/lwm2m/wakaama_lwm2m/core\observe.c ****             watcherP->parameters->minPeriod = attrP->minPeriod;
 1890              		.loc 2 451 0
 1891 029a 7B6A     		ldr	r3, [r7, #36]
 1892 029c DB68     		ldr	r3, [r3, #12]
 1893 029e 3A69     		ldr	r2, [r7, #16]
 1894 02a0 5268     		ldr	r2, [r2, #4]
 1895 02a2 5A60     		str	r2, [r3, #4]
 1896              	.L141:
 452:C:/Users/dtjld/Desktop/AIoT_software/LiteOS_Lab_overseas/LiteOS_Lab/iot_link/network/lwm2m/wakaama_lwm2m/core\observe.c ****         }
 453:C:/Users/dtjld/Desktop/AIoT_software/LiteOS_Lab_overseas/LiteOS_Lab/iot_link/network/lwm2m/wakaama_lwm2m/core\observe.c ****         if (attrP->toSet & LWM2M_ATTR_FLAG_MAX_PERIOD)
 1897              		.loc 2 453 0
 1898 02a4 3B69     		ldr	r3, [r7, #16]
 1899 02a6 1B78     		ldrb	r3, [r3]	@ zero_extendqisi2
 1900 02a8 03F00203 		and	r3, r3, #2
 1901 02ac 002B     		cmp	r3, #0
 1902 02ae 04D0     		beq	.L142
 454:C:/Users/dtjld/Desktop/AIoT_software/LiteOS_Lab_overseas/LiteOS_Lab/iot_link/network/lwm2m/wakaama_lwm2m/core\observe.c ****         {
 455:C:/Users/dtjld/Desktop/AIoT_software/LiteOS_Lab_overseas/LiteOS_Lab/iot_link/network/lwm2m/wakaama_lwm2m/core\observe.c ****             watcherP->parameters->maxPeriod = attrP->maxPeriod;
 1903              		.loc 2 455 0
 1904 02b0 7B6A     		ldr	r3, [r7, #36]
 1905 02b2 DB68     		ldr	r3, [r3, #12]
 1906 02b4 3A69     		ldr	r2, [r7, #16]
 1907 02b6 9268     		ldr	r2, [r2, #8]
 1908 02b8 9A60     		str	r2, [r3, #8]
 1909              	.L142:
ARM GAS  C:\Users\dtjld\AppData\Local\Temp\ccRVA30A.s 			page 51


 456:C:/Users/dtjld/Desktop/AIoT_software/LiteOS_Lab_overseas/LiteOS_Lab/iot_link/network/lwm2m/wakaama_lwm2m/core\observe.c ****         }
 457:C:/Users/dtjld/Desktop/AIoT_software/LiteOS_Lab_overseas/LiteOS_Lab/iot_link/network/lwm2m/wakaama_lwm2m/core\observe.c ****         if (attrP->toSet & LWM2M_ATTR_FLAG_GREATER_THAN)
 1910              		.loc 2 457 0
 1911 02ba 3B69     		ldr	r3, [r7, #16]
 1912 02bc 1B78     		ldrb	r3, [r3]	@ zero_extendqisi2
 1913 02be 03F00403 		and	r3, r3, #4
 1914 02c2 002B     		cmp	r3, #0
 1915 02c4 06D0     		beq	.L143
 458:C:/Users/dtjld/Desktop/AIoT_software/LiteOS_Lab_overseas/LiteOS_Lab/iot_link/network/lwm2m/wakaama_lwm2m/core\observe.c ****         {
 459:C:/Users/dtjld/Desktop/AIoT_software/LiteOS_Lab_overseas/LiteOS_Lab/iot_link/network/lwm2m/wakaama_lwm2m/core\observe.c ****             watcherP->parameters->greaterThan = attrP->greaterThan;
 1916              		.loc 2 459 0
 1917 02c6 7B6A     		ldr	r3, [r7, #36]
 1918 02c8 DA68     		ldr	r2, [r3, #12]
 1919 02ca 3B69     		ldr	r3, [r7, #16]
 1920 02cc D3E90434 		ldrd	r3, [r3, #16]
 1921 02d0 C2E90434 		strd	r3, [r2, #16]
 1922              	.L143:
 460:C:/Users/dtjld/Desktop/AIoT_software/LiteOS_Lab_overseas/LiteOS_Lab/iot_link/network/lwm2m/wakaama_lwm2m/core\observe.c ****         }
 461:C:/Users/dtjld/Desktop/AIoT_software/LiteOS_Lab_overseas/LiteOS_Lab/iot_link/network/lwm2m/wakaama_lwm2m/core\observe.c ****         if (attrP->toSet & LWM2M_ATTR_FLAG_LESS_THAN)
 1923              		.loc 2 461 0
 1924 02d4 3B69     		ldr	r3, [r7, #16]
 1925 02d6 1B78     		ldrb	r3, [r3]	@ zero_extendqisi2
 1926 02d8 03F00803 		and	r3, r3, #8
 1927 02dc 002B     		cmp	r3, #0
 1928 02de 06D0     		beq	.L144
 462:C:/Users/dtjld/Desktop/AIoT_software/LiteOS_Lab_overseas/LiteOS_Lab/iot_link/network/lwm2m/wakaama_lwm2m/core\observe.c ****         {
 463:C:/Users/dtjld/Desktop/AIoT_software/LiteOS_Lab_overseas/LiteOS_Lab/iot_link/network/lwm2m/wakaama_lwm2m/core\observe.c ****             watcherP->parameters->lessThan = attrP->lessThan;
 1929              		.loc 2 463 0
 1930 02e0 7B6A     		ldr	r3, [r7, #36]
 1931 02e2 DA68     		ldr	r2, [r3, #12]
 1932 02e4 3B69     		ldr	r3, [r7, #16]
 1933 02e6 D3E90634 		ldrd	r3, [r3, #24]
 1934 02ea C2E90634 		strd	r3, [r2, #24]
 1935              	.L144:
 464:C:/Users/dtjld/Desktop/AIoT_software/LiteOS_Lab_overseas/LiteOS_Lab/iot_link/network/lwm2m/wakaama_lwm2m/core\observe.c ****         }
 465:C:/Users/dtjld/Desktop/AIoT_software/LiteOS_Lab_overseas/LiteOS_Lab/iot_link/network/lwm2m/wakaama_lwm2m/core\observe.c ****         if (attrP->toSet & LWM2M_ATTR_FLAG_STEP)
 1936              		.loc 2 465 0
 1937 02ee 3B69     		ldr	r3, [r7, #16]
 1938 02f0 1B78     		ldrb	r3, [r3]	@ zero_extendqisi2
 1939 02f2 03F01003 		and	r3, r3, #16
 1940 02f6 002B     		cmp	r3, #0
 1941 02f8 06D0     		beq	.L140
 466:C:/Users/dtjld/Desktop/AIoT_software/LiteOS_Lab_overseas/LiteOS_Lab/iot_link/network/lwm2m/wakaama_lwm2m/core\observe.c ****         {
 467:C:/Users/dtjld/Desktop/AIoT_software/LiteOS_Lab_overseas/LiteOS_Lab/iot_link/network/lwm2m/wakaama_lwm2m/core\observe.c ****             watcherP->parameters->step = attrP->step;
 1942              		.loc 2 467 0
 1943 02fa 7B6A     		ldr	r3, [r7, #36]
 1944 02fc DA68     		ldr	r2, [r3, #12]
 1945 02fe 3B69     		ldr	r3, [r7, #16]
 1946 0300 D3E90834 		ldrd	r3, [r3, #32]
 1947 0304 C2E90834 		strd	r3, [r2, #32]
 1948              	.L140:
 468:C:/Users/dtjld/Desktop/AIoT_software/LiteOS_Lab_overseas/LiteOS_Lab/iot_link/network/lwm2m/wakaama_lwm2m/core\observe.c ****         }
 469:C:/Users/dtjld/Desktop/AIoT_software/LiteOS_Lab_overseas/LiteOS_Lab/iot_link/network/lwm2m/wakaama_lwm2m/core\observe.c ****     }
 470:C:/Users/dtjld/Desktop/AIoT_software/LiteOS_Lab_overseas/LiteOS_Lab/iot_link/network/lwm2m/wakaama_lwm2m/core\observe.c **** 
 471:C:/Users/dtjld/Desktop/AIoT_software/LiteOS_Lab_overseas/LiteOS_Lab/iot_link/network/lwm2m/wakaama_lwm2m/core\observe.c ****     LOG_ARG("Final toSet: %08X, minPeriod: %d, maxPeriod: %d, greaterThan: %f, lessThan: %f, step: 
 1949              		.loc 2 471 0
 1950 0308 FFF7FEFF 		bl	lwm2m_gettime
ARM GAS  C:\Users\dtjld\AppData\Local\Temp\ccRVA30A.s 			page 52


 1951 030c 0346     		mov	r3, r0
 1952 030e 0C46     		mov	r4, r1
 1953 0310 9C46     		mov	ip, r3
 1954 0312 7B6A     		ldr	r3, [r7, #36]
 1955 0314 DB68     		ldr	r3, [r3, #12]
 1956 0316 1B78     		ldrb	r3, [r3]	@ zero_extendqisi2
 1957 0318 FB60     		str	r3, [r7, #12]
 1958 031a 7B6A     		ldr	r3, [r7, #36]
 1959 031c DB68     		ldr	r3, [r3, #12]
 1960 031e 5868     		ldr	r0, [r3, #4]
 1961 0320 7B6A     		ldr	r3, [r7, #36]
 1962 0322 DB68     		ldr	r3, [r3, #12]
 1963 0324 9A68     		ldr	r2, [r3, #8]
 1964 0326 BA60     		str	r2, [r7, #8]
 1965 0328 7B6A     		ldr	r3, [r7, #36]
 1966 032a DB68     		ldr	r3, [r3, #12]
 1967 032c D3E90434 		ldrd	r3, [r3, #16]
 1968 0330 7A6A     		ldr	r2, [r7, #36]
 1969 0332 D268     		ldr	r2, [r2, #12]
 1970 0334 D2E90612 		ldrd	r1, [r2, #24]
 1971 0338 7D6A     		ldr	r5, [r7, #36]
 1972 033a ED68     		ldr	r5, [r5, #12]
 1973 033c D5E90856 		ldrd	r5, [r5, #32]
 1974 0340 CDE90856 		strd	r5, [sp, #32]
 1975 0344 CDE90612 		strd	r1, [sp, #24]
 1976 0348 CDE90434 		strd	r3, [sp, #16]
 1977 034c BA68     		ldr	r2, [r7, #8]
 1978 034e 0292     		str	r2, [sp, #8]
 1979 0350 0190     		str	r0, [sp, #4]
 1980 0352 FB68     		ldr	r3, [r7, #12]
 1981 0354 0093     		str	r3, [sp]
 1982 0356 4FF4EC73 		mov	r3, #472
 1983 035a 054A     		ldr	r2, .L148
 1984 035c 6146     		mov	r1, ip
 1985 035e 0548     		ldr	r0, .L148+4
 1986 0360 FFF7FEFF 		bl	atiny_printf
 472:C:/Users/dtjld/Desktop/AIoT_software/LiteOS_Lab_overseas/LiteOS_Lab/iot_link/network/lwm2m/wakaama_lwm2m/core\observe.c ****             watcherP->parameters->toSet, watcherP->parameters->minPeriod, watcherP->parameters->max
 473:C:/Users/dtjld/Desktop/AIoT_software/LiteOS_Lab_overseas/LiteOS_Lab/iot_link/network/lwm2m/wakaama_lwm2m/core\observe.c **** 
 474:C:/Users/dtjld/Desktop/AIoT_software/LiteOS_Lab_overseas/LiteOS_Lab/iot_link/network/lwm2m/wakaama_lwm2m/core\observe.c ****     return COAP_204_CHANGED;
 1987              		.loc 2 474 0
 1988 0364 4423     		movs	r3, #68
 1989              	.L123:
 475:C:/Users/dtjld/Desktop/AIoT_software/LiteOS_Lab_overseas/LiteOS_Lab/iot_link/network/lwm2m/wakaama_lwm2m/core\observe.c **** }
 1990              		.loc 2 475 0
 1991 0366 1846     		mov	r0, r3
 1992 0368 3C37     		adds	r7, r7, #60
 1993              	.LCFI53:
 1994              		.cfi_def_cfa_offset 20
 1995 036a BD46     		mov	sp, r7
 1996              	.LCFI54:
 1997              		.cfi_def_cfa_register 13
 1998              		@ sp needed
 1999 036c F0BD     		pop	{r4, r5, r6, r7, pc}
 2000              	.L149:
 2001 036e 00BF     		.align	2
 2002              	.L148:
 2003 0370 00000000 		.word	__func__.8596
ARM GAS  C:\Users\dtjld\AppData\Local\Temp\ccRVA30A.s 			page 53


 2004 0374 20020000 		.word	.LC23
 2005              		.cfi_endproc
 2006              	.LFE12:
 2008              		.section	.rodata
 2009 0287 00       		.align	2
 2010              	.LC24:
 2011 0288 00       		.ascii	"\000"
 2012 0289 000000   		.align	2
 2013              	.LC25:
 2014 028c 206E6F00 		.ascii	" no\000"
 2015              		.align	2
 2016              	.LC26:
 2017 0290 5B25645D 		.ascii	"[%d][%s:%d] Found one with%s observers.\015\012\000"
 2017      5B25733A 
 2017      25645D20 
 2017      466F756E 
 2017      64206F6E 
 2018 02ba 0000     		.align	2
 2019              	.LC27:
 2020 02bc 5B25645D 		.ascii	"[%d][%s:%d] Found nothing\015\012\000"
 2020      5B25733A 
 2020      25645D20 
 2020      466F756E 
 2020      64206E6F 
 2021              		.section	.text.observe_findByUri,"ax",%progbits
 2022              		.align	1
 2023              		.global	observe_findByUri
 2024              		.syntax unified
 2025              		.thumb
 2026              		.thumb_func
 2027              		.fpu fpv4-sp-d16
 2029              	observe_findByUri:
 2030              	.LFB13:
 476:C:/Users/dtjld/Desktop/AIoT_software/LiteOS_Lab_overseas/LiteOS_Lab/iot_link/network/lwm2m/wakaama_lwm2m/core\observe.c **** 
 477:C:/Users/dtjld/Desktop/AIoT_software/LiteOS_Lab_overseas/LiteOS_Lab/iot_link/network/lwm2m/wakaama_lwm2m/core\observe.c **** lwm2m_observed_t *observe_findByUri(lwm2m_context_t *contextP,
 478:C:/Users/dtjld/Desktop/AIoT_software/LiteOS_Lab_overseas/LiteOS_Lab/iot_link/network/lwm2m/wakaama_lwm2m/core\observe.c ****                                     lwm2m_uri_t *uriP)
 479:C:/Users/dtjld/Desktop/AIoT_software/LiteOS_Lab_overseas/LiteOS_Lab/iot_link/network/lwm2m/wakaama_lwm2m/core\observe.c **** {
 2031              		.loc 2 479 0
 2032              		.cfi_startproc
 2033              		@ args = 0, pretend = 0, frame = 16
 2034              		@ frame_needed = 1, uses_anonymous_args = 0
 2035 0000 90B5     		push	{r4, r7, lr}
 2036              	.LCFI55:
 2037              		.cfi_def_cfa_offset 12
 2038              		.cfi_offset 4, -12
 2039              		.cfi_offset 7, -8
 2040              		.cfi_offset 14, -4
 2041 0002 87B0     		sub	sp, sp, #28
 2042              	.LCFI56:
 2043              		.cfi_def_cfa_offset 40
 2044 0004 02AF     		add	r7, sp, #8
 2045              	.LCFI57:
 2046              		.cfi_def_cfa 7, 32
 2047 0006 7860     		str	r0, [r7, #4]
 2048 0008 3960     		str	r1, [r7]
 480:C:/Users/dtjld/Desktop/AIoT_software/LiteOS_Lab_overseas/LiteOS_Lab/iot_link/network/lwm2m/wakaama_lwm2m/core\observe.c ****     lwm2m_observed_t *targetP;
 481:C:/Users/dtjld/Desktop/AIoT_software/LiteOS_Lab_overseas/LiteOS_Lab/iot_link/network/lwm2m/wakaama_lwm2m/core\observe.c **** 
ARM GAS  C:\Users\dtjld\AppData\Local\Temp\ccRVA30A.s 			page 54


 482:C:/Users/dtjld/Desktop/AIoT_software/LiteOS_Lab_overseas/LiteOS_Lab/iot_link/network/lwm2m/wakaama_lwm2m/core\observe.c ****     LOG_URI(uriP);
 2049              		.loc 2 482 0
 2050 000a 3B68     		ldr	r3, [r7]
 2051 000c 002B     		cmp	r3, #0
 2052 000e 06D1     		bne	.L151
 2053              		.loc 2 482 0 is_stmt 0 discriminator 1
 2054 0010 4FF4F172 		mov	r2, #482
 2055 0014 6349     		ldr	r1, .L169
 2056 0016 6448     		ldr	r0, .L169+4
 2057 0018 FFF7FEFF 		bl	atiny_printf
 2058 001c 22E0     		b	.L152
 2059              	.L151:
 2060              		.loc 2 482 0 discriminator 2
 2061 001e 3B68     		ldr	r3, [r7]
 2062 0020 5B88     		ldrh	r3, [r3, #2]
 2063 0022 4FF4F172 		mov	r2, #482
 2064 0026 5F49     		ldr	r1, .L169
 2065 0028 6048     		ldr	r0, .L169+8
 2066 002a FFF7FEFF 		bl	atiny_printf
 2067 002e 3B68     		ldr	r3, [r7]
 2068 0030 1B78     		ldrb	r3, [r3]	@ zero_extendqisi2
 2069 0032 03F00203 		and	r3, r3, #2
 2070 0036 002B     		cmp	r3, #0
 2071 0038 05D0     		beq	.L153
 2072              		.loc 2 482 0 discriminator 3
 2073 003a 3B68     		ldr	r3, [r7]
 2074 003c 9B88     		ldrh	r3, [r3, #4]
 2075 003e 1946     		mov	r1, r3
 2076 0040 5B48     		ldr	r0, .L169+12
 2077 0042 FFF7FEFF 		bl	atiny_printf
 2078              	.L153:
 2079              		.loc 2 482 0 discriminator 5
 2080 0046 3B68     		ldr	r3, [r7]
 2081 0048 1B78     		ldrb	r3, [r3]	@ zero_extendqisi2
 2082 004a 03F00103 		and	r3, r3, #1
 2083 004e 002B     		cmp	r3, #0
 2084 0050 05D0     		beq	.L154
 2085              		.loc 2 482 0 discriminator 6
 2086 0052 3B68     		ldr	r3, [r7]
 2087 0054 DB88     		ldrh	r3, [r3, #6]
 2088 0056 1946     		mov	r1, r3
 2089 0058 5548     		ldr	r0, .L169+12
 2090 005a FFF7FEFF 		bl	atiny_printf
 2091              	.L154:
 2092              		.loc 2 482 0 discriminator 8
 2093 005e 5548     		ldr	r0, .L169+16
 2094 0060 FFF7FEFF 		bl	atiny_printf
 2095              	.L152:
 483:C:/Users/dtjld/Desktop/AIoT_software/LiteOS_Lab_overseas/LiteOS_Lab/iot_link/network/lwm2m/wakaama_lwm2m/core\observe.c ****     targetP = contextP->observedList;
 2096              		.loc 2 483 0 is_stmt 1
 2097 0064 7B68     		ldr	r3, [r7, #4]
 2098 0066 DB69     		ldr	r3, [r3, #28]
 2099 0068 FB60     		str	r3, [r7, #12]
 484:C:/Users/dtjld/Desktop/AIoT_software/LiteOS_Lab_overseas/LiteOS_Lab/iot_link/network/lwm2m/wakaama_lwm2m/core\observe.c ****     while (targetP != NULL)
 2100              		.loc 2 484 0
 2101 006a 87E0     		b	.L155
 2102              	.L168:
ARM GAS  C:\Users\dtjld\AppData\Local\Temp\ccRVA30A.s 			page 55


 485:C:/Users/dtjld/Desktop/AIoT_software/LiteOS_Lab_overseas/LiteOS_Lab/iot_link/network/lwm2m/wakaama_lwm2m/core\observe.c ****     {
 486:C:/Users/dtjld/Desktop/AIoT_software/LiteOS_Lab_overseas/LiteOS_Lab/iot_link/network/lwm2m/wakaama_lwm2m/core\observe.c ****         if (targetP->uri.objectId == uriP->objectId)
 2103              		.loc 2 486 0
 2104 006c FB68     		ldr	r3, [r7, #12]
 2105 006e DA88     		ldrh	r2, [r3, #6]
 2106 0070 3B68     		ldr	r3, [r7]
 2107 0072 5B88     		ldrh	r3, [r3, #2]
 2108 0074 9A42     		cmp	r2, r3
 2109 0076 7ED1     		bne	.L156
 487:C:/Users/dtjld/Desktop/AIoT_software/LiteOS_Lab_overseas/LiteOS_Lab/iot_link/network/lwm2m/wakaama_lwm2m/core\observe.c ****         {
 488:C:/Users/dtjld/Desktop/AIoT_software/LiteOS_Lab_overseas/LiteOS_Lab/iot_link/network/lwm2m/wakaama_lwm2m/core\observe.c ****             if ((!LWM2M_URI_IS_SET_INSTANCE(uriP) && !LWM2M_URI_IS_SET_INSTANCE(&(targetP->uri)))
 2110              		.loc 2 488 0
 2111 0078 3B68     		ldr	r3, [r7]
 2112 007a 1B78     		ldrb	r3, [r3]	@ zero_extendqisi2
 2113 007c 03F00203 		and	r3, r3, #2
 2114 0080 002B     		cmp	r3, #0
 2115 0082 05D1     		bne	.L157
 2116              		.loc 2 488 0 is_stmt 0 discriminator 1
 2117 0084 FB68     		ldr	r3, [r7, #12]
 2118 0086 1B79     		ldrb	r3, [r3, #4]	@ zero_extendqisi2
 2119 0088 03F00203 		and	r3, r3, #2
 2120 008c 002B     		cmp	r3, #0
 2121 008e 11D0     		beq	.L158
 2122              	.L157:
 489:C:/Users/dtjld/Desktop/AIoT_software/LiteOS_Lab_overseas/LiteOS_Lab/iot_link/network/lwm2m/wakaama_lwm2m/core\observe.c ****                     || (LWM2M_URI_IS_SET_INSTANCE(uriP) && LWM2M_URI_IS_SET_INSTANCE(&(targetP->uri
 2123              		.loc 2 489 0 is_stmt 1
 2124 0090 3B68     		ldr	r3, [r7]
 2125 0092 1B78     		ldrb	r3, [r3]	@ zero_extendqisi2
 2126 0094 03F00203 		and	r3, r3, #2
 2127 0098 002B     		cmp	r3, #0
 2128 009a 6CD0     		beq	.L156
 2129              		.loc 2 489 0 is_stmt 0 discriminator 1
 2130 009c FB68     		ldr	r3, [r7, #12]
 2131 009e 1B79     		ldrb	r3, [r3, #4]	@ zero_extendqisi2
 2132 00a0 03F00203 		and	r3, r3, #2
 2133 00a4 002B     		cmp	r3, #0
 2134 00a6 66D0     		beq	.L156
 2135              		.loc 2 489 0 discriminator 2
 2136 00a8 3B68     		ldr	r3, [r7]
 2137 00aa 9A88     		ldrh	r2, [r3, #4]
 2138 00ac FB68     		ldr	r3, [r7, #12]
 2139 00ae 1B89     		ldrh	r3, [r3, #8]
 2140 00b0 9A42     		cmp	r2, r3
 2141 00b2 60D1     		bne	.L156
 2142              	.L158:
 490:C:/Users/dtjld/Desktop/AIoT_software/LiteOS_Lab_overseas/LiteOS_Lab/iot_link/network/lwm2m/wakaama_lwm2m/core\observe.c ****             {
 491:C:/Users/dtjld/Desktop/AIoT_software/LiteOS_Lab_overseas/LiteOS_Lab/iot_link/network/lwm2m/wakaama_lwm2m/core\observe.c ****                 if ((!LWM2M_URI_IS_SET_RESOURCE(uriP) && !LWM2M_URI_IS_SET_RESOURCE(&(targetP->uri)
 2143              		.loc 2 491 0 is_stmt 1
 2144 00b4 3B68     		ldr	r3, [r7]
 2145 00b6 1B78     		ldrb	r3, [r3]	@ zero_extendqisi2
 2146 00b8 03F00103 		and	r3, r3, #1
 2147 00bc 002B     		cmp	r3, #0
 2148 00be 05D1     		bne	.L159
 2149              		.loc 2 491 0 is_stmt 0 discriminator 1
 2150 00c0 FB68     		ldr	r3, [r7, #12]
 2151 00c2 1B79     		ldrb	r3, [r3, #4]	@ zero_extendqisi2
 2152 00c4 03F00103 		and	r3, r3, #1
ARM GAS  C:\Users\dtjld\AppData\Local\Temp\ccRVA30A.s 			page 56


 2153 00c8 002B     		cmp	r3, #0
 2154 00ca 11D0     		beq	.L160
 2155              	.L159:
 492:C:/Users/dtjld/Desktop/AIoT_software/LiteOS_Lab_overseas/LiteOS_Lab/iot_link/network/lwm2m/wakaama_lwm2m/core\observe.c ****                         || (LWM2M_URI_IS_SET_RESOURCE(uriP) && LWM2M_URI_IS_SET_RESOURCE(&(targetP-
 2156              		.loc 2 492 0 is_stmt 1
 2157 00cc 3B68     		ldr	r3, [r7]
 2158 00ce 1B78     		ldrb	r3, [r3]	@ zero_extendqisi2
 2159 00d0 03F00103 		and	r3, r3, #1
 2160 00d4 002B     		cmp	r3, #0
 2161 00d6 4ED0     		beq	.L156
 2162              		.loc 2 492 0 is_stmt 0 discriminator 1
 2163 00d8 FB68     		ldr	r3, [r7, #12]
 2164 00da 1B79     		ldrb	r3, [r3, #4]	@ zero_extendqisi2
 2165 00dc 03F00103 		and	r3, r3, #1
 2166 00e0 002B     		cmp	r3, #0
 2167 00e2 48D0     		beq	.L156
 2168              		.loc 2 492 0 discriminator 2
 2169 00e4 3B68     		ldr	r3, [r7]
 2170 00e6 DA88     		ldrh	r2, [r3, #6]
 2171 00e8 FB68     		ldr	r3, [r7, #12]
 2172 00ea 5B89     		ldrh	r3, [r3, #10]
 2173 00ec 9A42     		cmp	r2, r3
 2174 00ee 42D1     		bne	.L156
 2175              	.L160:
 493:C:/Users/dtjld/Desktop/AIoT_software/LiteOS_Lab_overseas/LiteOS_Lab/iot_link/network/lwm2m/wakaama_lwm2m/core\observe.c ****                 {
 494:C:/Users/dtjld/Desktop/AIoT_software/LiteOS_Lab_overseas/LiteOS_Lab/iot_link/network/lwm2m/wakaama_lwm2m/core\observe.c ****                     LOG_ARG("Found one with%s observers.", targetP->watcherList ? "" : " no");
 2176              		.loc 2 494 0 is_stmt 1
 2177 00f0 FFF7FEFF 		bl	lwm2m_gettime
 2178 00f4 0346     		mov	r3, r0
 2179 00f6 0C46     		mov	r4, r1
 2180 00f8 1946     		mov	r1, r3
 2181 00fa FB68     		ldr	r3, [r7, #12]
 2182 00fc DB68     		ldr	r3, [r3, #12]
 2183 00fe 002B     		cmp	r3, #0
 2184 0100 01D0     		beq	.L161
 2185              		.loc 2 494 0 is_stmt 0 discriminator 1
 2186 0102 2D4B     		ldr	r3, .L169+20
 2187 0104 00E0     		b	.L162
 2188              	.L161:
 2189              		.loc 2 494 0 discriminator 2
 2190 0106 2D4B     		ldr	r3, .L169+24
 2191              	.L162:
 2192              		.loc 2 494 0 discriminator 4
 2193 0108 0093     		str	r3, [sp]
 2194 010a 4FF4F773 		mov	r3, #494
 2195 010e 254A     		ldr	r2, .L169
 2196 0110 2B48     		ldr	r0, .L169+28
 2197 0112 FFF7FEFF 		bl	atiny_printf
 495:C:/Users/dtjld/Desktop/AIoT_software/LiteOS_Lab_overseas/LiteOS_Lab/iot_link/network/lwm2m/wakaama_lwm2m/core\observe.c ****                     LOG_URI(&(targetP->uri));
 2198              		.loc 2 495 0 is_stmt 1 discriminator 4
 2199 0116 FB68     		ldr	r3, [r7, #12]
 2200 0118 0433     		adds	r3, r3, #4
 2201 011a 002B     		cmp	r3, #0
 2202 011c 06D1     		bne	.L163
 2203              		.loc 2 495 0 is_stmt 0 discriminator 1
 2204 011e 40F2EF12 		movw	r2, #495
 2205 0122 2049     		ldr	r1, .L169
ARM GAS  C:\Users\dtjld\AppData\Local\Temp\ccRVA30A.s 			page 57


 2206 0124 2048     		ldr	r0, .L169+4
 2207 0126 FFF7FEFF 		bl	atiny_printf
 2208 012a 22E0     		b	.L164
 2209              	.L163:
 2210              		.loc 2 495 0 discriminator 2
 2211 012c FB68     		ldr	r3, [r7, #12]
 2212 012e DB88     		ldrh	r3, [r3, #6]
 2213 0130 40F2EF12 		movw	r2, #495
 2214 0134 1B49     		ldr	r1, .L169
 2215 0136 1D48     		ldr	r0, .L169+8
 2216 0138 FFF7FEFF 		bl	atiny_printf
 2217 013c FB68     		ldr	r3, [r7, #12]
 2218 013e 1B79     		ldrb	r3, [r3, #4]	@ zero_extendqisi2
 2219 0140 03F00203 		and	r3, r3, #2
 2220 0144 002B     		cmp	r3, #0
 2221 0146 05D0     		beq	.L165
 2222              		.loc 2 495 0 discriminator 3
 2223 0148 FB68     		ldr	r3, [r7, #12]
 2224 014a 1B89     		ldrh	r3, [r3, #8]
 2225 014c 1946     		mov	r1, r3
 2226 014e 1848     		ldr	r0, .L169+12
 2227 0150 FFF7FEFF 		bl	atiny_printf
 2228              	.L165:
 2229              		.loc 2 495 0 discriminator 5
 2230 0154 FB68     		ldr	r3, [r7, #12]
 2231 0156 1B79     		ldrb	r3, [r3, #4]	@ zero_extendqisi2
 2232 0158 03F00103 		and	r3, r3, #1
 2233 015c 002B     		cmp	r3, #0
 2234 015e 05D0     		beq	.L166
 2235              		.loc 2 495 0 discriminator 6
 2236 0160 FB68     		ldr	r3, [r7, #12]
 2237 0162 5B89     		ldrh	r3, [r3, #10]
 2238 0164 1946     		mov	r1, r3
 2239 0166 1248     		ldr	r0, .L169+12
 2240 0168 FFF7FEFF 		bl	atiny_printf
 2241              	.L166:
 2242              		.loc 2 495 0 discriminator 8
 2243 016c 1148     		ldr	r0, .L169+16
 2244 016e FFF7FEFF 		bl	atiny_printf
 2245              	.L164:
 496:C:/Users/dtjld/Desktop/AIoT_software/LiteOS_Lab_overseas/LiteOS_Lab/iot_link/network/lwm2m/wakaama_lwm2m/core\observe.c ****                     return targetP;
 2246              		.loc 2 496 0 is_stmt 1
 2247 0172 FB68     		ldr	r3, [r7, #12]
 2248 0174 12E0     		b	.L167
 2249              	.L156:
 497:C:/Users/dtjld/Desktop/AIoT_software/LiteOS_Lab_overseas/LiteOS_Lab/iot_link/network/lwm2m/wakaama_lwm2m/core\observe.c ****                 }
 498:C:/Users/dtjld/Desktop/AIoT_software/LiteOS_Lab_overseas/LiteOS_Lab/iot_link/network/lwm2m/wakaama_lwm2m/core\observe.c ****             }
 499:C:/Users/dtjld/Desktop/AIoT_software/LiteOS_Lab_overseas/LiteOS_Lab/iot_link/network/lwm2m/wakaama_lwm2m/core\observe.c ****         }
 500:C:/Users/dtjld/Desktop/AIoT_software/LiteOS_Lab_overseas/LiteOS_Lab/iot_link/network/lwm2m/wakaama_lwm2m/core\observe.c ****         targetP = targetP->next;
 2250              		.loc 2 500 0
 2251 0176 FB68     		ldr	r3, [r7, #12]
 2252 0178 1B68     		ldr	r3, [r3]
 2253 017a FB60     		str	r3, [r7, #12]
 2254              	.L155:
 484:C:/Users/dtjld/Desktop/AIoT_software/LiteOS_Lab_overseas/LiteOS_Lab/iot_link/network/lwm2m/wakaama_lwm2m/core\observe.c ****     {
 2255              		.loc 2 484 0
 2256 017c FB68     		ldr	r3, [r7, #12]
ARM GAS  C:\Users\dtjld\AppData\Local\Temp\ccRVA30A.s 			page 58


 2257 017e 002B     		cmp	r3, #0
 2258 0180 7FF474AF 		bne	.L168
 501:C:/Users/dtjld/Desktop/AIoT_software/LiteOS_Lab_overseas/LiteOS_Lab/iot_link/network/lwm2m/wakaama_lwm2m/core\observe.c ****     }
 502:C:/Users/dtjld/Desktop/AIoT_software/LiteOS_Lab_overseas/LiteOS_Lab/iot_link/network/lwm2m/wakaama_lwm2m/core\observe.c **** 
 503:C:/Users/dtjld/Desktop/AIoT_software/LiteOS_Lab_overseas/LiteOS_Lab/iot_link/network/lwm2m/wakaama_lwm2m/core\observe.c ****     LOG("Found nothing");
 2259              		.loc 2 503 0
 2260 0184 FFF7FEFF 		bl	lwm2m_gettime
 2261 0188 0346     		mov	r3, r0
 2262 018a 0C46     		mov	r4, r1
 2263 018c 1946     		mov	r1, r3
 2264 018e 40F2F713 		movw	r3, #503
 2265 0192 044A     		ldr	r2, .L169
 2266 0194 0B48     		ldr	r0, .L169+32
 2267 0196 FFF7FEFF 		bl	atiny_printf
 504:C:/Users/dtjld/Desktop/AIoT_software/LiteOS_Lab_overseas/LiteOS_Lab/iot_link/network/lwm2m/wakaama_lwm2m/core\observe.c ****     return NULL;
 2268              		.loc 2 504 0
 2269 019a 0023     		movs	r3, #0
 2270              	.L167:
 505:C:/Users/dtjld/Desktop/AIoT_software/LiteOS_Lab_overseas/LiteOS_Lab/iot_link/network/lwm2m/wakaama_lwm2m/core\observe.c **** }
 2271              		.loc 2 505 0
 2272 019c 1846     		mov	r0, r3
 2273 019e 1437     		adds	r7, r7, #20
 2274              	.LCFI58:
 2275              		.cfi_def_cfa_offset 12
 2276 01a0 BD46     		mov	sp, r7
 2277              	.LCFI59:
 2278              		.cfi_def_cfa_register 13
 2279              		@ sp needed
 2280 01a2 90BD     		pop	{r4, r7, pc}
 2281              	.L170:
 2282              		.align	2
 2283              	.L169:
 2284 01a4 00000000 		.word	__func__.8605
 2285 01a8 74010000 		.word	.LC17
 2286 01ac 84010000 		.word	.LC18
 2287 01b0 90010000 		.word	.LC19
 2288 01b4 94010000 		.word	.LC20
 2289 01b8 88020000 		.word	.LC24
 2290 01bc 8C020000 		.word	.LC25
 2291 01c0 90020000 		.word	.LC26
 2292 01c4 BC020000 		.word	.LC27
 2293              		.cfi_endproc
 2294              	.LFE13:
 2296              		.section	.rodata
 2297              		.align	2
 2298              	.LC28:
 2299 02d8 5B25645D 		.ascii	"[%d][%s:%d] Found an observation\015\012\000"
 2299      5B25733A 
 2299      25645D20 
 2299      466F756E 
 2299      6420616E 
 2300 02fb 00       		.align	2
 2301              	.LC29:
 2302 02fc 5B25645D 		.ascii	"[%d][%s:%d] Tagging a watcher\015\012\000"
 2302      5B25733A 
 2302      25645D20 
 2302      54616767 
ARM GAS  C:\Users\dtjld\AppData\Local\Temp\ccRVA30A.s 			page 59


 2302      696E6720 
 2303              		.section	.text.lwm2m_resource_value_changed,"ax",%progbits
 2304              		.align	1
 2305              		.global	lwm2m_resource_value_changed
 2306              		.syntax unified
 2307              		.thumb
 2308              		.thumb_func
 2309              		.fpu fpv4-sp-d16
 2311              	lwm2m_resource_value_changed:
 2312              	.LFB14:
 506:C:/Users/dtjld/Desktop/AIoT_software/LiteOS_Lab_overseas/LiteOS_Lab/iot_link/network/lwm2m/wakaama_lwm2m/core\observe.c **** 
 507:C:/Users/dtjld/Desktop/AIoT_software/LiteOS_Lab_overseas/LiteOS_Lab/iot_link/network/lwm2m/wakaama_lwm2m/core\observe.c **** void lwm2m_resource_value_changed(lwm2m_context_t *contextP,
 508:C:/Users/dtjld/Desktop/AIoT_software/LiteOS_Lab_overseas/LiteOS_Lab/iot_link/network/lwm2m/wakaama_lwm2m/core\observe.c ****                                   lwm2m_uri_t *uriP)
 509:C:/Users/dtjld/Desktop/AIoT_software/LiteOS_Lab_overseas/LiteOS_Lab/iot_link/network/lwm2m/wakaama_lwm2m/core\observe.c **** {
 2313              		.loc 2 509 0
 2314              		.cfi_startproc
 2315              		@ args = 0, pretend = 0, frame = 16
 2316              		@ frame_needed = 1, uses_anonymous_args = 0
 2317 0000 90B5     		push	{r4, r7, lr}
 2318              	.LCFI60:
 2319              		.cfi_def_cfa_offset 12
