ARM GAS  C:\Users\dtjld\AppData\Local\Temp\ccSrLLKC.s 			page 1


   1              		.cpu cortex-m4
   2              		.eabi_attribute 27, 1
   3              		.eabi_attribute 28, 1
   4              		.eabi_attribute 20, 1
   5              		.eabi_attribute 21, 1
   6              		.eabi_attribute 23, 3
   7              		.eabi_attribute 24, 1
   8              		.eabi_attribute 25, 1
   9              		.eabi_attribute 26, 1
  10              		.eabi_attribute 30, 6
  11              		.eabi_attribute 34, 1
  12              		.eabi_attribute 18, 4
  13              		.file	"oid.c"
  14              		.text
  15              	.Ltext0:
  16              		.cfi_sections	.debug_frame
  17              		.section	.rodata
  18              		.align	2
  19              	.LC0:
  20 0000 55040300 		.ascii	"U\004\003\000"
  21              		.align	2
  22              	.LC1:
  23 0004 69642D61 		.ascii	"id-at-commonName\000"
  23      742D636F 
  23      6D6D6F6E 
  23      4E616D65 
  23      00
  24 0015 000000   		.align	2
  25              	.LC2:
  26 0018 436F6D6D 		.ascii	"Common Name\000"
  26      6F6E204E 
  26      616D6500 
  27              		.align	2
  28              	.LC3:
  29 0024 434E00   		.ascii	"CN\000"
  30 0027 00       		.align	2
  31              	.LC4:
  32 0028 55040600 		.ascii	"U\004\006\000"
  33              		.align	2
  34              	.LC5:
  35 002c 69642D61 		.ascii	"id-at-countryName\000"
  35      742D636F 
  35      756E7472 
  35      794E616D 
  35      6500
  36 003e 0000     		.align	2
  37              	.LC6:
  38 0040 436F756E 		.ascii	"Country\000"
  38      74727900 
  39              		.align	2
  40              	.LC7:
  41 0048 4300     		.ascii	"C\000"
  42 004a 0000     		.align	2
  43              	.LC8:
  44 004c 55040700 		.ascii	"U\004\007\000"
  45              		.align	2
  46              	.LC9:
ARM GAS  C:\Users\dtjld\AppData\Local\Temp\ccSrLLKC.s 			page 2


  47 0050 69642D61 		.ascii	"id-at-locality\000"
  47      742D6C6F 
  47      63616C69 
  47      747900
  48 005f 00       		.align	2
  49              	.LC10:
  50 0060 4C6F6361 		.ascii	"Locality\000"
  50      6C697479 
  50      00
  51 0069 000000   		.align	2
  52              	.LC11:
  53 006c 4C00     		.ascii	"L\000"
  54 006e 0000     		.align	2
  55              	.LC12:
  56 0070 55040800 		.ascii	"U\004\010\000"
  57              		.align	2
  58              	.LC13:
  59 0074 69642D61 		.ascii	"id-at-state\000"
  59      742D7374 
  59      61746500 
  60              		.align	2
  61              	.LC14:
  62 0080 53746174 		.ascii	"State\000"
  62      6500
  63 0086 0000     		.align	2
  64              	.LC15:
  65 0088 535400   		.ascii	"ST\000"
  66 008b 00       		.align	2
  67              	.LC16:
  68 008c 55040A00 		.ascii	"U\004\012\000"
  69              		.align	2
  70              	.LC17:
  71 0090 69642D61 		.ascii	"id-at-organizationName\000"
  71      742D6F72 
  71      67616E69 
  71      7A617469 
  71      6F6E4E61 
  72 00a7 00       		.align	2
  73              	.LC18:
  74 00a8 4F726761 		.ascii	"Organization\000"
  74      6E697A61 
  74      74696F6E 
  74      00
  75 00b5 000000   		.align	2
  76              	.LC19:
  77 00b8 4F00     		.ascii	"O\000"
  78 00ba 0000     		.align	2
  79              	.LC20:
  80 00bc 55040B00 		.ascii	"U\004\013\000"
  81              		.align	2
  82              	.LC21:
  83 00c0 69642D61 		.ascii	"id-at-organizationalUnitName\000"
  83      742D6F72 
  83      67616E69 
  83      7A617469 
  83      6F6E616C 
  84 00dd 000000   		.align	2
ARM GAS  C:\Users\dtjld\AppData\Local\Temp\ccSrLLKC.s 			page 3


  85              	.LC22:
  86 00e0 4F726720 		.ascii	"Org Unit\000"
  86      556E6974 
  86      00
  87 00e9 000000   		.align	2
  88              	.LC23:
  89 00ec 4F5500   		.ascii	"OU\000"
  90 00ef 00       		.align	2
  91              	.LC24:
  92 00f0 2A864886 		.ascii	"*\206H\206\367\015\001\011\001\000"
  92      F70D0109 
  92      0100
  93 00fa 0000     		.align	2
  94              	.LC25:
  95 00fc 656D6169 		.ascii	"emailAddress\000"
  95      6C416464 
  95      72657373 
  95      00
  96 0109 000000   		.align	2
  97              	.LC26:
  98 010c 452D6D61 		.ascii	"E-mail address\000"
  98      696C2061 
  98      64647265 
  98      737300
  99 011b 00       		.align	2
 100              	.LC27:
 101 011c 55040500 		.ascii	"U\004\005\000"
 102              		.align	2
 103              	.LC28:
 104 0120 69642D61 		.ascii	"id-at-serialNumber\000"
 104      742D7365 
 104      7269616C 
 104      4E756D62 
 104      657200
 105 0133 00       		.align	2
 106              	.LC29:
 107 0134 53657269 		.ascii	"Serial number\000"
 107      616C206E 
 107      756D6265 
 107      7200
 108 0142 0000     		.align	2
 109              	.LC30:
 110 0144 73657269 		.ascii	"serialNumber\000"
 110      616C4E75 
 110      6D626572 
 110      00
 111 0151 000000   		.align	2
 112              	.LC31:
 113 0154 55041000 		.ascii	"U\004\020\000"
 114              		.align	2
 115              	.LC32:
 116 0158 69642D61 		.ascii	"id-at-postalAddress\000"
 116      742D706F 
 116      7374616C 
 116      41646472 
 116      65737300 
 117              		.align	2
ARM GAS  C:\Users\dtjld\AppData\Local\Temp\ccSrLLKC.s 			page 4


 118              	.LC33:
 119 016c 506F7374 		.ascii	"Postal address\000"
 119      616C2061 
 119      64647265 
 119      737300
 120 017b 00       		.align	2
 121              	.LC34:
 122 017c 706F7374 		.ascii	"postalAddress\000"
 122      616C4164 
 122      64726573 
 122      7300
 123 018a 0000     		.align	2
 124              	.LC35:
 125 018c 55041100 		.ascii	"U\004\021\000"
 126              		.align	2
 127              	.LC36:
 128 0190 69642D61 		.ascii	"id-at-postalCode\000"
 128      742D706F 
 128      7374616C 
 128      436F6465 
 128      00
 129 01a1 000000   		.align	2
 130              	.LC37:
 131 01a4 506F7374 		.ascii	"Postal code\000"
 131      616C2063 
 131      6F646500 
 132              		.align	2
 133              	.LC38:
 134 01b0 706F7374 		.ascii	"postalCode\000"
 134      616C436F 
 134      646500
 135 01bb 00       		.align	2
 136              	.LC39:
 137 01bc 55040400 		.ascii	"U\004\004\000"
 138              		.align	2
 139              	.LC40:
 140 01c0 69642D61 		.ascii	"id-at-surName\000"
 140      742D7375 
 140      724E616D 
 140      6500
 141 01ce 0000     		.align	2
 142              	.LC41:
 143 01d0 5375726E 		.ascii	"Surname\000"
 143      616D6500 
 144              		.align	2
 145              	.LC42:
 146 01d8 534E00   		.ascii	"SN\000"
 147 01db 00       		.align	2
 148              	.LC43:
 149 01dc 55042A00 		.ascii	"U\004*\000"
 150              		.align	2
 151              	.LC44:
 152 01e0 69642D61 		.ascii	"id-at-givenName\000"
 152      742D6769 
 152      76656E4E 
 152      616D6500 
 153              		.align	2
ARM GAS  C:\Users\dtjld\AppData\Local\Temp\ccSrLLKC.s 			page 5


 154              	.LC45:
 155 01f0 47697665 		.ascii	"Given name\000"
 155      6E206E61 
 155      6D6500
 156 01fb 00       		.align	2
 157              	.LC46:
 158 01fc 474E00   		.ascii	"GN\000"
 159 01ff 00       		.align	2
 160              	.LC47:
 161 0200 55042B00 		.ascii	"U\004+\000"
 162              		.align	2
 163              	.LC48:
 164 0204 69642D61 		.ascii	"id-at-initials\000"
 164      742D696E 
 164      69746961 
 164      6C7300
 165 0213 00       		.align	2
 166              	.LC49:
 167 0214 496E6974 		.ascii	"Initials\000"
 167      69616C73 
 167      00
 168 021d 000000   		.align	2
 169              	.LC50:
 170 0220 696E6974 		.ascii	"initials\000"
 170      69616C73 
 170      00
 171 0229 000000   		.align	2
 172              	.LC51:
 173 022c 55042C00 		.ascii	"U\004,\000"
 174              		.align	2
 175              	.LC52:
 176 0230 69642D61 		.ascii	"id-at-generationQualifier\000"
 176      742D6765 
 176      6E657261 
 176      74696F6E 
 176      5175616C 
 177 024a 0000     		.align	2
 178              	.LC53:
 179 024c 47656E65 		.ascii	"Generation qualifier\000"
 179      72617469 
 179      6F6E2071 
 179      75616C69 
 179      66696572 
 180 0261 000000   		.align	2
 181              	.LC54:
 182 0264 67656E65 		.ascii	"generationQualifier\000"
 182      72617469 
 182      6F6E5175 
 182      616C6966 
 182      69657200 
 183              		.align	2
 184              	.LC55:
 185 0278 55040C00 		.ascii	"U\004\014\000"
 186              		.align	2
 187              	.LC56:
 188 027c 69642D61 		.ascii	"id-at-title\000"
 188      742D7469 
ARM GAS  C:\Users\dtjld\AppData\Local\Temp\ccSrLLKC.s 			page 6


 188      746C6500 
 189              		.align	2
 190              	.LC57:
 191 0288 5469746C 		.ascii	"Title\000"
 191      6500
 192 028e 0000     		.align	2
 193              	.LC58:
 194 0290 7469746C 		.ascii	"title\000"
 194      6500
 195 0296 0000     		.align	2
 196              	.LC59:
 197 0298 55042E00 		.ascii	"U\004.\000"
 198              		.align	2
 199              	.LC60:
 200 029c 69642D61 		.ascii	"id-at-dnQualifier\000"
 200      742D646E 
 200      5175616C 
 200      69666965 
 200      7200
 201 02ae 0000     		.align	2
 202              	.LC61:
 203 02b0 44697374 		.ascii	"Distinguished Name qualifier\000"
 203      696E6775 
 203      69736865 
 203      64204E61 
 203      6D652071 
 204 02cd 000000   		.align	2
 205              	.LC62:
 206 02d0 646E5175 		.ascii	"dnQualifier\000"
 206      616C6966 
 206      69657200 
 207              		.align	2
 208              	.LC63:
 209 02dc 55044100 		.ascii	"U\004A\000"
 210              		.align	2
 211              	.LC64:
 212 02e0 69642D61 		.ascii	"id-at-pseudonym\000"
 212      742D7073 
 212      6575646F 
 212      6E796D00 
 213              		.align	2
 214              	.LC65:
 215 02f0 50736575 		.ascii	"Pseudonym\000"
 215      646F6E79 
 215      6D00
 216 02fa 0000     		.align	2
 217              	.LC66:
 218 02fc 70736575 		.ascii	"pseudonym\000"
 218      646F6E79 
 218      6D00
 219 0306 0000     		.align	2
 220              	.LC67:
 221 0308 09922689 		.ascii	"\011\222&\211\223\362,d\001\031\000"
 221      93F22C64 
 221      011900
 222 0313 00       		.align	2
 223              	.LC68:
ARM GAS  C:\Users\dtjld\AppData\Local\Temp\ccSrLLKC.s 			page 7


 224 0314 69642D64 		.ascii	"id-domainComponent\000"
 224      6F6D6169 
 224      6E436F6D 
 224      706F6E65 
 224      6E7400
 225 0327 00       		.align	2
 226              	.LC69:
 227 0328 446F6D61 		.ascii	"Domain component\000"
 227      696E2063 
 227      6F6D706F 
 227      6E656E74 
 227      00
 228 0339 000000   		.align	2
 229              	.LC70:
 230 033c 444300   		.ascii	"DC\000"
 231 033f 00       		.align	2
 232              	.LC71:
 233 0340 55042D00 		.ascii	"U\004-\000"
 234              		.align	2
 235              	.LC72:
 236 0344 69642D61 		.ascii	"id-at-uniqueIdentifier\000"
 236      742D756E 
 236      69717565 
 236      4964656E 
 236      74696669 
 237 035b 00       		.align	2
 238              	.LC73:
 239 035c 556E6971 		.ascii	"Unique Identifier\000"
 239      75652049 
 239      64656E74 
 239      69666965 
 239      7200
 240 036e 0000     		.align	2
 241              	.LC74:
 242 0370 756E6971 		.ascii	"uniqueIdentifier\000"
 242      75654964 
 242      656E7469 
 242      66696572 
 242      00
 243              		.section	.rodata.oid_x520_attr_type,"a",%progbits
 244              		.align	2
 247              	oid_x520_attr_type:
 248 0000 00000000 		.word	.LC0
 249 0004 03000000 		.word	3
 250 0008 04000000 		.word	.LC1
 251 000c 18000000 		.word	.LC2
 252 0010 24000000 		.word	.LC3
 253 0014 28000000 		.word	.LC4
 254 0018 03000000 		.word	3
 255 001c 2C000000 		.word	.LC5
 256 0020 40000000 		.word	.LC6
 257 0024 48000000 		.word	.LC7
 258 0028 4C000000 		.word	.LC8
 259 002c 03000000 		.word	3
 260 0030 50000000 		.word	.LC9
 261 0034 60000000 		.word	.LC10
 262 0038 6C000000 		.word	.LC11
ARM GAS  C:\Users\dtjld\AppData\Local\Temp\ccSrLLKC.s 			page 8


 263 003c 70000000 		.word	.LC12
 264 0040 03000000 		.word	3
 265 0044 74000000 		.word	.LC13
 266 0048 80000000 		.word	.LC14
 267 004c 88000000 		.word	.LC15
 268 0050 8C000000 		.word	.LC16
 269 0054 03000000 		.word	3
 270 0058 90000000 		.word	.LC17
 271 005c A8000000 		.word	.LC18
 272 0060 B8000000 		.word	.LC19
 273 0064 BC000000 		.word	.LC20
 274 0068 03000000 		.word	3
 275 006c C0000000 		.word	.LC21
 276 0070 E0000000 		.word	.LC22
 277 0074 EC000000 		.word	.LC23
 278 0078 F0000000 		.word	.LC24
 279 007c 09000000 		.word	9
 280 0080 FC000000 		.word	.LC25
 281 0084 0C010000 		.word	.LC26
 282 0088 FC000000 		.word	.LC25
 283 008c 1C010000 		.word	.LC27
 284 0090 03000000 		.word	3
 285 0094 20010000 		.word	.LC28
 286 0098 34010000 		.word	.LC29
 287 009c 44010000 		.word	.LC30
 288 00a0 54010000 		.word	.LC31
 289 00a4 03000000 		.word	3
 290 00a8 58010000 		.word	.LC32
 291 00ac 6C010000 		.word	.LC33
 292 00b0 7C010000 		.word	.LC34
 293 00b4 8C010000 		.word	.LC35
 294 00b8 03000000 		.word	3
 295 00bc 90010000 		.word	.LC36
 296 00c0 A4010000 		.word	.LC37
 297 00c4 B0010000 		.word	.LC38
 298 00c8 BC010000 		.word	.LC39
 299 00cc 03000000 		.word	3
 300 00d0 C0010000 		.word	.LC40
 301 00d4 D0010000 		.word	.LC41
 302 00d8 D8010000 		.word	.LC42
 303 00dc DC010000 		.word	.LC43
 304 00e0 03000000 		.word	3
 305 00e4 E0010000 		.word	.LC44
 306 00e8 F0010000 		.word	.LC45
 307 00ec FC010000 		.word	.LC46
 308 00f0 00020000 		.word	.LC47
 309 00f4 03000000 		.word	3
 310 00f8 04020000 		.word	.LC48
 311 00fc 14020000 		.word	.LC49
 312 0100 20020000 		.word	.LC50
 313 0104 2C020000 		.word	.LC51
 314 0108 03000000 		.word	3
 315 010c 30020000 		.word	.LC52
 316 0110 4C020000 		.word	.LC53
 317 0114 64020000 		.word	.LC54
 318 0118 78020000 		.word	.LC55
 319 011c 03000000 		.word	3
ARM GAS  C:\Users\dtjld\AppData\Local\Temp\ccSrLLKC.s 			page 9


 320 0120 7C020000 		.word	.LC56
 321 0124 88020000 		.word	.LC57
 322 0128 90020000 		.word	.LC58
 323 012c 98020000 		.word	.LC59
 324 0130 03000000 		.word	3
 325 0134 9C020000 		.word	.LC60
 326 0138 B0020000 		.word	.LC61
 327 013c D0020000 		.word	.LC62
 328 0140 DC020000 		.word	.LC63
 329 0144 03000000 		.word	3
 330 0148 E0020000 		.word	.LC64
 331 014c F0020000 		.word	.LC65
 332 0150 FC020000 		.word	.LC66
 333 0154 08030000 		.word	.LC67
 334 0158 0A000000 		.word	10
 335 015c 14030000 		.word	.LC68
 336 0160 28030000 		.word	.LC69
 337 0164 3C030000 		.word	.LC70
 338 0168 40030000 		.word	.LC71
 339 016c 03000000 		.word	3
 340 0170 44030000 		.word	.LC72
 341 0174 5C030000 		.word	.LC73
 342 0178 70030000 		.word	.LC74
 343 017c 00000000 		.word	0
 344 0180 00000000 		.word	0
 345 0184 00000000 		.word	0
 346 0188 00000000 		.word	0
 347 018c 00000000 		.word	0
 348              		.section	.text.oid_x520_attr_from_asn1,"ax",%progbits
 349              		.align	1
 350              		.syntax unified
 351              		.thumb
 352              		.thumb_func
 353              		.fpu fpv4-sp-d16
 355              	oid_x520_attr_from_asn1:
 356              	.LFB13:
 357              		.file 1 "C:/Users/dtjld/workspace/AIoT/src/LiteOS_Lab/iot_link/network/dtls/mbedtls/mbedtls-2.16.2
   1:C:/Users/dtjld/workspace/AIoT/src/LiteOS_Lab/iot_link/network/dtls/mbedtls/mbedtls-2.16.2/library\oid.c **** /**
   2:C:/Users/dtjld/workspace/AIoT/src/LiteOS_Lab/iot_link/network/dtls/mbedtls/mbedtls-2.16.2/library\oid.c ****  * \file oid.c
   3:C:/Users/dtjld/workspace/AIoT/src/LiteOS_Lab/iot_link/network/dtls/mbedtls/mbedtls-2.16.2/library\oid.c ****  *
   4:C:/Users/dtjld/workspace/AIoT/src/LiteOS_Lab/iot_link/network/dtls/mbedtls/mbedtls-2.16.2/library\oid.c ****  * \brief Object Identifier (OID) database
   5:C:/Users/dtjld/workspace/AIoT/src/LiteOS_Lab/iot_link/network/dtls/mbedtls/mbedtls-2.16.2/library\oid.c ****  *
   6:C:/Users/dtjld/workspace/AIoT/src/LiteOS_Lab/iot_link/network/dtls/mbedtls/mbedtls-2.16.2/library\oid.c ****  *  Copyright (C) 2006-2015, ARM Limited, All Rights Reserved
   7:C:/Users/dtjld/workspace/AIoT/src/LiteOS_Lab/iot_link/network/dtls/mbedtls/mbedtls-2.16.2/library\oid.c ****  *  SPDX-License-Identifier: Apache-2.0
   8:C:/Users/dtjld/workspace/AIoT/src/LiteOS_Lab/iot_link/network/dtls/mbedtls/mbedtls-2.16.2/library\oid.c ****  *
   9:C:/Users/dtjld/workspace/AIoT/src/LiteOS_Lab/iot_link/network/dtls/mbedtls/mbedtls-2.16.2/library\oid.c ****  *  Licensed under the Apache License, Version 2.0 (the "License"); you may
  10:C:/Users/dtjld/workspace/AIoT/src/LiteOS_Lab/iot_link/network/dtls/mbedtls/mbedtls-2.16.2/library\oid.c ****  *  not use this file except in compliance with the License.
  11:C:/Users/dtjld/workspace/AIoT/src/LiteOS_Lab/iot_link/network/dtls/mbedtls/mbedtls-2.16.2/library\oid.c ****  *  You may obtain a copy of the License at
  12:C:/Users/dtjld/workspace/AIoT/src/LiteOS_Lab/iot_link/network/dtls/mbedtls/mbedtls-2.16.2/library\oid.c ****  *
  13:C:/Users/dtjld/workspace/AIoT/src/LiteOS_Lab/iot_link/network/dtls/mbedtls/mbedtls-2.16.2/library\oid.c ****  *  http://www.apache.org/licenses/LICENSE-2.0
  14:C:/Users/dtjld/workspace/AIoT/src/LiteOS_Lab/iot_link/network/dtls/mbedtls/mbedtls-2.16.2/library\oid.c ****  *
  15:C:/Users/dtjld/workspace/AIoT/src/LiteOS_Lab/iot_link/network/dtls/mbedtls/mbedtls-2.16.2/library\oid.c ****  *  Unless required by applicable law or agreed to in writing, software
  16:C:/Users/dtjld/workspace/AIoT/src/LiteOS_Lab/iot_link/network/dtls/mbedtls/mbedtls-2.16.2/library\oid.c ****  *  distributed under the License is distributed on an "AS IS" BASIS, WITHOUT
  17:C:/Users/dtjld/workspace/AIoT/src/LiteOS_Lab/iot_link/network/dtls/mbedtls/mbedtls-2.16.2/library\oid.c ****  *  WARRANTIES OR CONDITIONS OF ANY KIND, either express or implied.
  18:C:/Users/dtjld/workspace/AIoT/src/LiteOS_Lab/iot_link/network/dtls/mbedtls/mbedtls-2.16.2/library\oid.c ****  *  See the License for the specific language governing permissions and
  19:C:/Users/dtjld/workspace/AIoT/src/LiteOS_Lab/iot_link/network/dtls/mbedtls/mbedtls-2.16.2/library\oid.c ****  *  limitations under the License.
  20:C:/Users/dtjld/workspace/AIoT/src/LiteOS_Lab/iot_link/network/dtls/mbedtls/mbedtls-2.16.2/library\oid.c ****  *
ARM GAS  C:\Users\dtjld\AppData\Local\Temp\ccSrLLKC.s 			page 10


  21:C:/Users/dtjld/workspace/AIoT/src/LiteOS_Lab/iot_link/network/dtls/mbedtls/mbedtls-2.16.2/library\oid.c ****  *  This file is part of mbed TLS (https://tls.mbed.org)
  22:C:/Users/dtjld/workspace/AIoT/src/LiteOS_Lab/iot_link/network/dtls/mbedtls/mbedtls-2.16.2/library\oid.c ****  */
  23:C:/Users/dtjld/workspace/AIoT/src/LiteOS_Lab/iot_link/network/dtls/mbedtls/mbedtls-2.16.2/library\oid.c **** 
  24:C:/Users/dtjld/workspace/AIoT/src/LiteOS_Lab/iot_link/network/dtls/mbedtls/mbedtls-2.16.2/library\oid.c **** #if !defined(MBEDTLS_CONFIG_FILE)
  25:C:/Users/dtjld/workspace/AIoT/src/LiteOS_Lab/iot_link/network/dtls/mbedtls/mbedtls-2.16.2/library\oid.c **** #include "mbedtls/config.h"
  26:C:/Users/dtjld/workspace/AIoT/src/LiteOS_Lab/iot_link/network/dtls/mbedtls/mbedtls-2.16.2/library\oid.c **** #else
  27:C:/Users/dtjld/workspace/AIoT/src/LiteOS_Lab/iot_link/network/dtls/mbedtls/mbedtls-2.16.2/library\oid.c **** #include MBEDTLS_CONFIG_FILE
  28:C:/Users/dtjld/workspace/AIoT/src/LiteOS_Lab/iot_link/network/dtls/mbedtls/mbedtls-2.16.2/library\oid.c **** #endif
  29:C:/Users/dtjld/workspace/AIoT/src/LiteOS_Lab/iot_link/network/dtls/mbedtls/mbedtls-2.16.2/library\oid.c **** 
  30:C:/Users/dtjld/workspace/AIoT/src/LiteOS_Lab/iot_link/network/dtls/mbedtls/mbedtls-2.16.2/library\oid.c **** #if defined(MBEDTLS_OID_C)
  31:C:/Users/dtjld/workspace/AIoT/src/LiteOS_Lab/iot_link/network/dtls/mbedtls/mbedtls-2.16.2/library\oid.c **** 
  32:C:/Users/dtjld/workspace/AIoT/src/LiteOS_Lab/iot_link/network/dtls/mbedtls/mbedtls-2.16.2/library\oid.c **** #include "mbedtls/oid.h"
  33:C:/Users/dtjld/workspace/AIoT/src/LiteOS_Lab/iot_link/network/dtls/mbedtls/mbedtls-2.16.2/library\oid.c **** #include "mbedtls/rsa.h"
  34:C:/Users/dtjld/workspace/AIoT/src/LiteOS_Lab/iot_link/network/dtls/mbedtls/mbedtls-2.16.2/library\oid.c **** 
  35:C:/Users/dtjld/workspace/AIoT/src/LiteOS_Lab/iot_link/network/dtls/mbedtls/mbedtls-2.16.2/library\oid.c **** #include <stdio.h>
  36:C:/Users/dtjld/workspace/AIoT/src/LiteOS_Lab/iot_link/network/dtls/mbedtls/mbedtls-2.16.2/library\oid.c **** #include <string.h>
  37:C:/Users/dtjld/workspace/AIoT/src/LiteOS_Lab/iot_link/network/dtls/mbedtls/mbedtls-2.16.2/library\oid.c **** 
  38:C:/Users/dtjld/workspace/AIoT/src/LiteOS_Lab/iot_link/network/dtls/mbedtls/mbedtls-2.16.2/library\oid.c **** #if defined(MBEDTLS_PLATFORM_C)
  39:C:/Users/dtjld/workspace/AIoT/src/LiteOS_Lab/iot_link/network/dtls/mbedtls/mbedtls-2.16.2/library\oid.c **** #include "mbedtls/platform.h"
  40:C:/Users/dtjld/workspace/AIoT/src/LiteOS_Lab/iot_link/network/dtls/mbedtls/mbedtls-2.16.2/library\oid.c **** #else
  41:C:/Users/dtjld/workspace/AIoT/src/LiteOS_Lab/iot_link/network/dtls/mbedtls/mbedtls-2.16.2/library\oid.c **** #define mbedtls_snprintf snprintf
  42:C:/Users/dtjld/workspace/AIoT/src/LiteOS_Lab/iot_link/network/dtls/mbedtls/mbedtls-2.16.2/library\oid.c **** #endif
  43:C:/Users/dtjld/workspace/AIoT/src/LiteOS_Lab/iot_link/network/dtls/mbedtls/mbedtls-2.16.2/library\oid.c **** 
  44:C:/Users/dtjld/workspace/AIoT/src/LiteOS_Lab/iot_link/network/dtls/mbedtls/mbedtls-2.16.2/library\oid.c **** #if defined(MBEDTLS_X509_USE_C) || defined(MBEDTLS_X509_CREATE_C)
  45:C:/Users/dtjld/workspace/AIoT/src/LiteOS_Lab/iot_link/network/dtls/mbedtls/mbedtls-2.16.2/library\oid.c **** #include "mbedtls/x509.h"
  46:C:/Users/dtjld/workspace/AIoT/src/LiteOS_Lab/iot_link/network/dtls/mbedtls/mbedtls-2.16.2/library\oid.c **** #endif
  47:C:/Users/dtjld/workspace/AIoT/src/LiteOS_Lab/iot_link/network/dtls/mbedtls/mbedtls-2.16.2/library\oid.c **** 
  48:C:/Users/dtjld/workspace/AIoT/src/LiteOS_Lab/iot_link/network/dtls/mbedtls/mbedtls-2.16.2/library\oid.c **** /*
  49:C:/Users/dtjld/workspace/AIoT/src/LiteOS_Lab/iot_link/network/dtls/mbedtls/mbedtls-2.16.2/library\oid.c ****  * Macro to automatically add the size of #define'd OIDs
  50:C:/Users/dtjld/workspace/AIoT/src/LiteOS_Lab/iot_link/network/dtls/mbedtls/mbedtls-2.16.2/library\oid.c ****  */
  51:C:/Users/dtjld/workspace/AIoT/src/LiteOS_Lab/iot_link/network/dtls/mbedtls/mbedtls-2.16.2/library\oid.c **** #define ADD_LEN(s)      s, MBEDTLS_OID_SIZE(s)
  52:C:/Users/dtjld/workspace/AIoT/src/LiteOS_Lab/iot_link/network/dtls/mbedtls/mbedtls-2.16.2/library\oid.c **** 
  53:C:/Users/dtjld/workspace/AIoT/src/LiteOS_Lab/iot_link/network/dtls/mbedtls/mbedtls-2.16.2/library\oid.c **** /*
  54:C:/Users/dtjld/workspace/AIoT/src/LiteOS_Lab/iot_link/network/dtls/mbedtls/mbedtls-2.16.2/library\oid.c ****  * Macro to generate an internal function for oid_XXX_from_asn1() (used by
  55:C:/Users/dtjld/workspace/AIoT/src/LiteOS_Lab/iot_link/network/dtls/mbedtls/mbedtls-2.16.2/library\oid.c ****  * the other functions)
  56:C:/Users/dtjld/workspace/AIoT/src/LiteOS_Lab/iot_link/network/dtls/mbedtls/mbedtls-2.16.2/library\oid.c ****  */
  57:C:/Users/dtjld/workspace/AIoT/src/LiteOS_Lab/iot_link/network/dtls/mbedtls/mbedtls-2.16.2/library\oid.c **** #define FN_OID_TYPED_FROM_ASN1( TYPE_T, NAME, LIST )                    \
  58:C:/Users/dtjld/workspace/AIoT/src/LiteOS_Lab/iot_link/network/dtls/mbedtls/mbedtls-2.16.2/library\oid.c ****     static const TYPE_T * oid_ ## NAME ## _from_asn1(                   \
  59:C:/Users/dtjld/workspace/AIoT/src/LiteOS_Lab/iot_link/network/dtls/mbedtls/mbedtls-2.16.2/library\oid.c ****                                       const mbedtls_asn1_buf *oid )     \
  60:C:/Users/dtjld/workspace/AIoT/src/LiteOS_Lab/iot_link/network/dtls/mbedtls/mbedtls-2.16.2/library\oid.c ****     {                                                                   \
  61:C:/Users/dtjld/workspace/AIoT/src/LiteOS_Lab/iot_link/network/dtls/mbedtls/mbedtls-2.16.2/library\oid.c ****         const TYPE_T *p = (LIST);                                       \
  62:C:/Users/dtjld/workspace/AIoT/src/LiteOS_Lab/iot_link/network/dtls/mbedtls/mbedtls-2.16.2/library\oid.c ****         const mbedtls_oid_descriptor_t *cur =                           \
  63:C:/Users/dtjld/workspace/AIoT/src/LiteOS_Lab/iot_link/network/dtls/mbedtls/mbedtls-2.16.2/library\oid.c ****             (const mbedtls_oid_descriptor_t *) p;                       \
  64:C:/Users/dtjld/workspace/AIoT/src/LiteOS_Lab/iot_link/network/dtls/mbedtls/mbedtls-2.16.2/library\oid.c ****         if( p == NULL || oid == NULL ) return( NULL );                  \
  65:C:/Users/dtjld/workspace/AIoT/src/LiteOS_Lab/iot_link/network/dtls/mbedtls/mbedtls-2.16.2/library\oid.c ****         while( cur->asn1 != NULL ) {                                    \
  66:C:/Users/dtjld/workspace/AIoT/src/LiteOS_Lab/iot_link/network/dtls/mbedtls/mbedtls-2.16.2/library\oid.c ****             if( cur->asn1_len == oid->len &&                            \
  67:C:/Users/dtjld/workspace/AIoT/src/LiteOS_Lab/iot_link/network/dtls/mbedtls/mbedtls-2.16.2/library\oid.c ****                 memcmp( cur->asn1, oid->p, oid->len ) == 0 ) {          \
  68:C:/Users/dtjld/workspace/AIoT/src/LiteOS_Lab/iot_link/network/dtls/mbedtls/mbedtls-2.16.2/library\oid.c ****                 return( p );                                            \
  69:C:/Users/dtjld/workspace/AIoT/src/LiteOS_Lab/iot_link/network/dtls/mbedtls/mbedtls-2.16.2/library\oid.c ****             }                                                           \
  70:C:/Users/dtjld/workspace/AIoT/src/LiteOS_Lab/iot_link/network/dtls/mbedtls/mbedtls-2.16.2/library\oid.c ****             p++;                                                        \
  71:C:/Users/dtjld/workspace/AIoT/src/LiteOS_Lab/iot_link/network/dtls/mbedtls/mbedtls-2.16.2/library\oid.c ****             cur = (const mbedtls_oid_descriptor_t *) p;                 \
  72:C:/Users/dtjld/workspace/AIoT/src/LiteOS_Lab/iot_link/network/dtls/mbedtls/mbedtls-2.16.2/library\oid.c ****         }                                                               \
  73:C:/Users/dtjld/workspace/AIoT/src/LiteOS_Lab/iot_link/network/dtls/mbedtls/mbedtls-2.16.2/library\oid.c ****         return( NULL );                                                 \
  74:C:/Users/dtjld/workspace/AIoT/src/LiteOS_Lab/iot_link/network/dtls/mbedtls/mbedtls-2.16.2/library\oid.c ****     }
  75:C:/Users/dtjld/workspace/AIoT/src/LiteOS_Lab/iot_link/network/dtls/mbedtls/mbedtls-2.16.2/library\oid.c **** 
  76:C:/Users/dtjld/workspace/AIoT/src/LiteOS_Lab/iot_link/network/dtls/mbedtls/mbedtls-2.16.2/library\oid.c **** /*
  77:C:/Users/dtjld/workspace/AIoT/src/LiteOS_Lab/iot_link/network/dtls/mbedtls/mbedtls-2.16.2/library\oid.c ****  * Macro to generate a function for retrieving a single attribute from the
ARM GAS  C:\Users\dtjld\AppData\Local\Temp\ccSrLLKC.s 			page 11


  78:C:/Users/dtjld/workspace/AIoT/src/LiteOS_Lab/iot_link/network/dtls/mbedtls/mbedtls-2.16.2/library\oid.c ****  * descriptor of an mbedtls_oid_descriptor_t wrapper.
  79:C:/Users/dtjld/workspace/AIoT/src/LiteOS_Lab/iot_link/network/dtls/mbedtls/mbedtls-2.16.2/library\oid.c ****  */
  80:C:/Users/dtjld/workspace/AIoT/src/LiteOS_Lab/iot_link/network/dtls/mbedtls/mbedtls-2.16.2/library\oid.c **** #define FN_OID_GET_DESCRIPTOR_ATTR1(FN_NAME, TYPE_T, TYPE_NAME, ATTR1_TYPE, ATTR1) \
  81:C:/Users/dtjld/workspace/AIoT/src/LiteOS_Lab/iot_link/network/dtls/mbedtls/mbedtls-2.16.2/library\oid.c **** int FN_NAME( const mbedtls_asn1_buf *oid, ATTR1_TYPE * ATTR1 )                  \
  82:C:/Users/dtjld/workspace/AIoT/src/LiteOS_Lab/iot_link/network/dtls/mbedtls/mbedtls-2.16.2/library\oid.c **** {                                                                       \
  83:C:/Users/dtjld/workspace/AIoT/src/LiteOS_Lab/iot_link/network/dtls/mbedtls/mbedtls-2.16.2/library\oid.c ****     const TYPE_T *data = oid_ ## TYPE_NAME ## _from_asn1( oid );        \
  84:C:/Users/dtjld/workspace/AIoT/src/LiteOS_Lab/iot_link/network/dtls/mbedtls/mbedtls-2.16.2/library\oid.c ****     if( data == NULL ) return( MBEDTLS_ERR_OID_NOT_FOUND );            \
  85:C:/Users/dtjld/workspace/AIoT/src/LiteOS_Lab/iot_link/network/dtls/mbedtls/mbedtls-2.16.2/library\oid.c ****     *ATTR1 = data->descriptor.ATTR1;                                    \
  86:C:/Users/dtjld/workspace/AIoT/src/LiteOS_Lab/iot_link/network/dtls/mbedtls/mbedtls-2.16.2/library\oid.c ****     return( 0 );                                                        \
  87:C:/Users/dtjld/workspace/AIoT/src/LiteOS_Lab/iot_link/network/dtls/mbedtls/mbedtls-2.16.2/library\oid.c **** }
  88:C:/Users/dtjld/workspace/AIoT/src/LiteOS_Lab/iot_link/network/dtls/mbedtls/mbedtls-2.16.2/library\oid.c **** 
  89:C:/Users/dtjld/workspace/AIoT/src/LiteOS_Lab/iot_link/network/dtls/mbedtls/mbedtls-2.16.2/library\oid.c **** /*
  90:C:/Users/dtjld/workspace/AIoT/src/LiteOS_Lab/iot_link/network/dtls/mbedtls/mbedtls-2.16.2/library\oid.c ****  * Macro to generate a function for retrieving a single attribute from an
  91:C:/Users/dtjld/workspace/AIoT/src/LiteOS_Lab/iot_link/network/dtls/mbedtls/mbedtls-2.16.2/library\oid.c ****  * mbedtls_oid_descriptor_t wrapper.
  92:C:/Users/dtjld/workspace/AIoT/src/LiteOS_Lab/iot_link/network/dtls/mbedtls/mbedtls-2.16.2/library\oid.c ****  */
  93:C:/Users/dtjld/workspace/AIoT/src/LiteOS_Lab/iot_link/network/dtls/mbedtls/mbedtls-2.16.2/library\oid.c **** #define FN_OID_GET_ATTR1(FN_NAME, TYPE_T, TYPE_NAME, ATTR1_TYPE, ATTR1) \
  94:C:/Users/dtjld/workspace/AIoT/src/LiteOS_Lab/iot_link/network/dtls/mbedtls/mbedtls-2.16.2/library\oid.c **** int FN_NAME( const mbedtls_asn1_buf *oid, ATTR1_TYPE * ATTR1 )                  \
  95:C:/Users/dtjld/workspace/AIoT/src/LiteOS_Lab/iot_link/network/dtls/mbedtls/mbedtls-2.16.2/library\oid.c **** {                                                                       \
  96:C:/Users/dtjld/workspace/AIoT/src/LiteOS_Lab/iot_link/network/dtls/mbedtls/mbedtls-2.16.2/library\oid.c ****     const TYPE_T *data = oid_ ## TYPE_NAME ## _from_asn1( oid );        \
  97:C:/Users/dtjld/workspace/AIoT/src/LiteOS_Lab/iot_link/network/dtls/mbedtls/mbedtls-2.16.2/library\oid.c ****     if( data == NULL ) return( MBEDTLS_ERR_OID_NOT_FOUND );            \
  98:C:/Users/dtjld/workspace/AIoT/src/LiteOS_Lab/iot_link/network/dtls/mbedtls/mbedtls-2.16.2/library\oid.c ****     *ATTR1 = data->ATTR1;                                               \
  99:C:/Users/dtjld/workspace/AIoT/src/LiteOS_Lab/iot_link/network/dtls/mbedtls/mbedtls-2.16.2/library\oid.c ****     return( 0 );                                                        \
 100:C:/Users/dtjld/workspace/AIoT/src/LiteOS_Lab/iot_link/network/dtls/mbedtls/mbedtls-2.16.2/library\oid.c **** }
 101:C:/Users/dtjld/workspace/AIoT/src/LiteOS_Lab/iot_link/network/dtls/mbedtls/mbedtls-2.16.2/library\oid.c **** 
 102:C:/Users/dtjld/workspace/AIoT/src/LiteOS_Lab/iot_link/network/dtls/mbedtls/mbedtls-2.16.2/library\oid.c **** /*
 103:C:/Users/dtjld/workspace/AIoT/src/LiteOS_Lab/iot_link/network/dtls/mbedtls/mbedtls-2.16.2/library\oid.c ****  * Macro to generate a function for retrieving two attributes from an
 104:C:/Users/dtjld/workspace/AIoT/src/LiteOS_Lab/iot_link/network/dtls/mbedtls/mbedtls-2.16.2/library\oid.c ****  * mbedtls_oid_descriptor_t wrapper.
 105:C:/Users/dtjld/workspace/AIoT/src/LiteOS_Lab/iot_link/network/dtls/mbedtls/mbedtls-2.16.2/library\oid.c ****  */
 106:C:/Users/dtjld/workspace/AIoT/src/LiteOS_Lab/iot_link/network/dtls/mbedtls/mbedtls-2.16.2/library\oid.c **** #define FN_OID_GET_ATTR2(FN_NAME, TYPE_T, TYPE_NAME, ATTR1_TYPE, ATTR1,     \
 107:C:/Users/dtjld/workspace/AIoT/src/LiteOS_Lab/iot_link/network/dtls/mbedtls/mbedtls-2.16.2/library\oid.c ****                          ATTR2_TYPE, ATTR2)                                 \
 108:C:/Users/dtjld/workspace/AIoT/src/LiteOS_Lab/iot_link/network/dtls/mbedtls/mbedtls-2.16.2/library\oid.c **** int FN_NAME( const mbedtls_asn1_buf *oid, ATTR1_TYPE * ATTR1,               \
 109:C:/Users/dtjld/workspace/AIoT/src/LiteOS_Lab/iot_link/network/dtls/mbedtls/mbedtls-2.16.2/library\oid.c ****                                           ATTR2_TYPE * ATTR2 )              \
 110:C:/Users/dtjld/workspace/AIoT/src/LiteOS_Lab/iot_link/network/dtls/mbedtls/mbedtls-2.16.2/library\oid.c **** {                                                                           \
 111:C:/Users/dtjld/workspace/AIoT/src/LiteOS_Lab/iot_link/network/dtls/mbedtls/mbedtls-2.16.2/library\oid.c ****     const TYPE_T *data = oid_ ## TYPE_NAME ## _from_asn1( oid );            \
 112:C:/Users/dtjld/workspace/AIoT/src/LiteOS_Lab/iot_link/network/dtls/mbedtls/mbedtls-2.16.2/library\oid.c ****     if( data == NULL ) return( MBEDTLS_ERR_OID_NOT_FOUND );                 \
 113:C:/Users/dtjld/workspace/AIoT/src/LiteOS_Lab/iot_link/network/dtls/mbedtls/mbedtls-2.16.2/library\oid.c ****     *(ATTR1) = data->ATTR1;                                                 \
 114:C:/Users/dtjld/workspace/AIoT/src/LiteOS_Lab/iot_link/network/dtls/mbedtls/mbedtls-2.16.2/library\oid.c ****     *(ATTR2) = data->ATTR2;                                                 \
 115:C:/Users/dtjld/workspace/AIoT/src/LiteOS_Lab/iot_link/network/dtls/mbedtls/mbedtls-2.16.2/library\oid.c ****     return( 0 );                                                            \
 116:C:/Users/dtjld/workspace/AIoT/src/LiteOS_Lab/iot_link/network/dtls/mbedtls/mbedtls-2.16.2/library\oid.c **** }
 117:C:/Users/dtjld/workspace/AIoT/src/LiteOS_Lab/iot_link/network/dtls/mbedtls/mbedtls-2.16.2/library\oid.c **** 
 118:C:/Users/dtjld/workspace/AIoT/src/LiteOS_Lab/iot_link/network/dtls/mbedtls/mbedtls-2.16.2/library\oid.c **** /*
 119:C:/Users/dtjld/workspace/AIoT/src/LiteOS_Lab/iot_link/network/dtls/mbedtls/mbedtls-2.16.2/library\oid.c ****  * Macro to generate a function for retrieving the OID based on a single
 120:C:/Users/dtjld/workspace/AIoT/src/LiteOS_Lab/iot_link/network/dtls/mbedtls/mbedtls-2.16.2/library\oid.c ****  * attribute from a mbedtls_oid_descriptor_t wrapper.
 121:C:/Users/dtjld/workspace/AIoT/src/LiteOS_Lab/iot_link/network/dtls/mbedtls/mbedtls-2.16.2/library\oid.c ****  */
 122:C:/Users/dtjld/workspace/AIoT/src/LiteOS_Lab/iot_link/network/dtls/mbedtls/mbedtls-2.16.2/library\oid.c **** #define FN_OID_GET_OID_BY_ATTR1(FN_NAME, TYPE_T, LIST, ATTR1_TYPE, ATTR1)   \
 123:C:/Users/dtjld/workspace/AIoT/src/LiteOS_Lab/iot_link/network/dtls/mbedtls/mbedtls-2.16.2/library\oid.c **** int FN_NAME( ATTR1_TYPE ATTR1, const char **oid, size_t *olen )             \
 124:C:/Users/dtjld/workspace/AIoT/src/LiteOS_Lab/iot_link/network/dtls/mbedtls/mbedtls-2.16.2/library\oid.c **** {                                                                           \
 125:C:/Users/dtjld/workspace/AIoT/src/LiteOS_Lab/iot_link/network/dtls/mbedtls/mbedtls-2.16.2/library\oid.c ****     const TYPE_T *cur = (LIST);                                             \
 126:C:/Users/dtjld/workspace/AIoT/src/LiteOS_Lab/iot_link/network/dtls/mbedtls/mbedtls-2.16.2/library\oid.c ****     while( cur->descriptor.asn1 != NULL ) {                                 \
 127:C:/Users/dtjld/workspace/AIoT/src/LiteOS_Lab/iot_link/network/dtls/mbedtls/mbedtls-2.16.2/library\oid.c ****         if( cur->ATTR1 == (ATTR1) ) {                                       \
 128:C:/Users/dtjld/workspace/AIoT/src/LiteOS_Lab/iot_link/network/dtls/mbedtls/mbedtls-2.16.2/library\oid.c ****             *oid = cur->descriptor.asn1;                                    \
 129:C:/Users/dtjld/workspace/AIoT/src/LiteOS_Lab/iot_link/network/dtls/mbedtls/mbedtls-2.16.2/library\oid.c ****             *olen = cur->descriptor.asn1_len;                               \
 130:C:/Users/dtjld/workspace/AIoT/src/LiteOS_Lab/iot_link/network/dtls/mbedtls/mbedtls-2.16.2/library\oid.c ****             return( 0 );                                                    \
 131:C:/Users/dtjld/workspace/AIoT/src/LiteOS_Lab/iot_link/network/dtls/mbedtls/mbedtls-2.16.2/library\oid.c ****         }                                                                   \
 132:C:/Users/dtjld/workspace/AIoT/src/LiteOS_Lab/iot_link/network/dtls/mbedtls/mbedtls-2.16.2/library\oid.c ****         cur++;                                                              \
 133:C:/Users/dtjld/workspace/AIoT/src/LiteOS_Lab/iot_link/network/dtls/mbedtls/mbedtls-2.16.2/library\oid.c ****     }                                                                       \
 134:C:/Users/dtjld/workspace/AIoT/src/LiteOS_Lab/iot_link/network/dtls/mbedtls/mbedtls-2.16.2/library\oid.c ****     return( MBEDTLS_ERR_OID_NOT_FOUND );                                    \
ARM GAS  C:\Users\dtjld\AppData\Local\Temp\ccSrLLKC.s 			page 12


 135:C:/Users/dtjld/workspace/AIoT/src/LiteOS_Lab/iot_link/network/dtls/mbedtls/mbedtls-2.16.2/library\oid.c **** }
 136:C:/Users/dtjld/workspace/AIoT/src/LiteOS_Lab/iot_link/network/dtls/mbedtls/mbedtls-2.16.2/library\oid.c **** 
 137:C:/Users/dtjld/workspace/AIoT/src/LiteOS_Lab/iot_link/network/dtls/mbedtls/mbedtls-2.16.2/library\oid.c **** /*
 138:C:/Users/dtjld/workspace/AIoT/src/LiteOS_Lab/iot_link/network/dtls/mbedtls/mbedtls-2.16.2/library\oid.c ****  * Macro to generate a function for retrieving the OID based on two
 139:C:/Users/dtjld/workspace/AIoT/src/LiteOS_Lab/iot_link/network/dtls/mbedtls/mbedtls-2.16.2/library\oid.c ****  * attributes from a mbedtls_oid_descriptor_t wrapper.
 140:C:/Users/dtjld/workspace/AIoT/src/LiteOS_Lab/iot_link/network/dtls/mbedtls/mbedtls-2.16.2/library\oid.c ****  */
 141:C:/Users/dtjld/workspace/AIoT/src/LiteOS_Lab/iot_link/network/dtls/mbedtls/mbedtls-2.16.2/library\oid.c **** #define FN_OID_GET_OID_BY_ATTR2(FN_NAME, TYPE_T, LIST, ATTR1_TYPE, ATTR1,   \
 142:C:/Users/dtjld/workspace/AIoT/src/LiteOS_Lab/iot_link/network/dtls/mbedtls/mbedtls-2.16.2/library\oid.c ****                                 ATTR2_TYPE, ATTR2)                          \
 143:C:/Users/dtjld/workspace/AIoT/src/LiteOS_Lab/iot_link/network/dtls/mbedtls/mbedtls-2.16.2/library\oid.c **** int FN_NAME( ATTR1_TYPE ATTR1, ATTR2_TYPE ATTR2, const char **oid ,         \
 144:C:/Users/dtjld/workspace/AIoT/src/LiteOS_Lab/iot_link/network/dtls/mbedtls/mbedtls-2.16.2/library\oid.c ****              size_t *olen )                                                 \
 145:C:/Users/dtjld/workspace/AIoT/src/LiteOS_Lab/iot_link/network/dtls/mbedtls/mbedtls-2.16.2/library\oid.c **** {                                                                           \
 146:C:/Users/dtjld/workspace/AIoT/src/LiteOS_Lab/iot_link/network/dtls/mbedtls/mbedtls-2.16.2/library\oid.c ****     const TYPE_T *cur = (LIST);                                             \
 147:C:/Users/dtjld/workspace/AIoT/src/LiteOS_Lab/iot_link/network/dtls/mbedtls/mbedtls-2.16.2/library\oid.c ****     while( cur->descriptor.asn1 != NULL ) {                                 \
 148:C:/Users/dtjld/workspace/AIoT/src/LiteOS_Lab/iot_link/network/dtls/mbedtls/mbedtls-2.16.2/library\oid.c ****         if( cur->ATTR1 == (ATTR1) && cur->ATTR2 == (ATTR2) ) {              \
 149:C:/Users/dtjld/workspace/AIoT/src/LiteOS_Lab/iot_link/network/dtls/mbedtls/mbedtls-2.16.2/library\oid.c ****             *oid = cur->descriptor.asn1;                                    \
 150:C:/Users/dtjld/workspace/AIoT/src/LiteOS_Lab/iot_link/network/dtls/mbedtls/mbedtls-2.16.2/library\oid.c ****             *olen = cur->descriptor.asn1_len;                               \
 151:C:/Users/dtjld/workspace/AIoT/src/LiteOS_Lab/iot_link/network/dtls/mbedtls/mbedtls-2.16.2/library\oid.c ****             return( 0 );                                                    \
 152:C:/Users/dtjld/workspace/AIoT/src/LiteOS_Lab/iot_link/network/dtls/mbedtls/mbedtls-2.16.2/library\oid.c ****         }                                                                   \
 153:C:/Users/dtjld/workspace/AIoT/src/LiteOS_Lab/iot_link/network/dtls/mbedtls/mbedtls-2.16.2/library\oid.c ****         cur++;                                                              \
 154:C:/Users/dtjld/workspace/AIoT/src/LiteOS_Lab/iot_link/network/dtls/mbedtls/mbedtls-2.16.2/library\oid.c ****     }                                                                       \
 155:C:/Users/dtjld/workspace/AIoT/src/LiteOS_Lab/iot_link/network/dtls/mbedtls/mbedtls-2.16.2/library\oid.c ****     return( MBEDTLS_ERR_OID_NOT_FOUND );                                   \
 156:C:/Users/dtjld/workspace/AIoT/src/LiteOS_Lab/iot_link/network/dtls/mbedtls/mbedtls-2.16.2/library\oid.c **** }
 157:C:/Users/dtjld/workspace/AIoT/src/LiteOS_Lab/iot_link/network/dtls/mbedtls/mbedtls-2.16.2/library\oid.c **** 
 158:C:/Users/dtjld/workspace/AIoT/src/LiteOS_Lab/iot_link/network/dtls/mbedtls/mbedtls-2.16.2/library\oid.c **** #if defined(MBEDTLS_X509_USE_C) || defined(MBEDTLS_X509_CREATE_C)
 159:C:/Users/dtjld/workspace/AIoT/src/LiteOS_Lab/iot_link/network/dtls/mbedtls/mbedtls-2.16.2/library\oid.c **** /*
 160:C:/Users/dtjld/workspace/AIoT/src/LiteOS_Lab/iot_link/network/dtls/mbedtls/mbedtls-2.16.2/library\oid.c ****  * For X520 attribute types
 161:C:/Users/dtjld/workspace/AIoT/src/LiteOS_Lab/iot_link/network/dtls/mbedtls/mbedtls-2.16.2/library\oid.c ****  */
 162:C:/Users/dtjld/workspace/AIoT/src/LiteOS_Lab/iot_link/network/dtls/mbedtls/mbedtls-2.16.2/library\oid.c **** typedef struct {
 163:C:/Users/dtjld/workspace/AIoT/src/LiteOS_Lab/iot_link/network/dtls/mbedtls/mbedtls-2.16.2/library\oid.c ****     mbedtls_oid_descriptor_t    descriptor;
 164:C:/Users/dtjld/workspace/AIoT/src/LiteOS_Lab/iot_link/network/dtls/mbedtls/mbedtls-2.16.2/library\oid.c ****     const char          *short_name;
 165:C:/Users/dtjld/workspace/AIoT/src/LiteOS_Lab/iot_link/network/dtls/mbedtls/mbedtls-2.16.2/library\oid.c **** } oid_x520_attr_t;
 166:C:/Users/dtjld/workspace/AIoT/src/LiteOS_Lab/iot_link/network/dtls/mbedtls/mbedtls-2.16.2/library\oid.c **** 
 167:C:/Users/dtjld/workspace/AIoT/src/LiteOS_Lab/iot_link/network/dtls/mbedtls/mbedtls-2.16.2/library\oid.c **** static const oid_x520_attr_t oid_x520_attr_type[] =
 168:C:/Users/dtjld/workspace/AIoT/src/LiteOS_Lab/iot_link/network/dtls/mbedtls/mbedtls-2.16.2/library\oid.c **** {
 169:C:/Users/dtjld/workspace/AIoT/src/LiteOS_Lab/iot_link/network/dtls/mbedtls/mbedtls-2.16.2/library\oid.c ****     {
 170:C:/Users/dtjld/workspace/AIoT/src/LiteOS_Lab/iot_link/network/dtls/mbedtls/mbedtls-2.16.2/library\oid.c ****         { ADD_LEN( MBEDTLS_OID_AT_CN ),          "id-at-commonName",               "Common Name" },
 171:C:/Users/dtjld/workspace/AIoT/src/LiteOS_Lab/iot_link/network/dtls/mbedtls/mbedtls-2.16.2/library\oid.c ****         "CN",
 172:C:/Users/dtjld/workspace/AIoT/src/LiteOS_Lab/iot_link/network/dtls/mbedtls/mbedtls-2.16.2/library\oid.c ****     },
 173:C:/Users/dtjld/workspace/AIoT/src/LiteOS_Lab/iot_link/network/dtls/mbedtls/mbedtls-2.16.2/library\oid.c ****     {
 174:C:/Users/dtjld/workspace/AIoT/src/LiteOS_Lab/iot_link/network/dtls/mbedtls/mbedtls-2.16.2/library\oid.c ****         { ADD_LEN( MBEDTLS_OID_AT_COUNTRY ),     "id-at-countryName",              "Country" },
 175:C:/Users/dtjld/workspace/AIoT/src/LiteOS_Lab/iot_link/network/dtls/mbedtls/mbedtls-2.16.2/library\oid.c ****         "C",
 176:C:/Users/dtjld/workspace/AIoT/src/LiteOS_Lab/iot_link/network/dtls/mbedtls/mbedtls-2.16.2/library\oid.c ****     },
 177:C:/Users/dtjld/workspace/AIoT/src/LiteOS_Lab/iot_link/network/dtls/mbedtls/mbedtls-2.16.2/library\oid.c ****     {
 178:C:/Users/dtjld/workspace/AIoT/src/LiteOS_Lab/iot_link/network/dtls/mbedtls/mbedtls-2.16.2/library\oid.c ****         { ADD_LEN( MBEDTLS_OID_AT_LOCALITY ),    "id-at-locality",                 "Locality" },
 179:C:/Users/dtjld/workspace/AIoT/src/LiteOS_Lab/iot_link/network/dtls/mbedtls/mbedtls-2.16.2/library\oid.c ****         "L",
 180:C:/Users/dtjld/workspace/AIoT/src/LiteOS_Lab/iot_link/network/dtls/mbedtls/mbedtls-2.16.2/library\oid.c ****     },
 181:C:/Users/dtjld/workspace/AIoT/src/LiteOS_Lab/iot_link/network/dtls/mbedtls/mbedtls-2.16.2/library\oid.c ****     {
 182:C:/Users/dtjld/workspace/AIoT/src/LiteOS_Lab/iot_link/network/dtls/mbedtls/mbedtls-2.16.2/library\oid.c ****         { ADD_LEN( MBEDTLS_OID_AT_STATE ),       "id-at-state",                    "State" },
 183:C:/Users/dtjld/workspace/AIoT/src/LiteOS_Lab/iot_link/network/dtls/mbedtls/mbedtls-2.16.2/library\oid.c ****         "ST",
 184:C:/Users/dtjld/workspace/AIoT/src/LiteOS_Lab/iot_link/network/dtls/mbedtls/mbedtls-2.16.2/library\oid.c ****     },
 185:C:/Users/dtjld/workspace/AIoT/src/LiteOS_Lab/iot_link/network/dtls/mbedtls/mbedtls-2.16.2/library\oid.c ****     {
 186:C:/Users/dtjld/workspace/AIoT/src/LiteOS_Lab/iot_link/network/dtls/mbedtls/mbedtls-2.16.2/library\oid.c ****         { ADD_LEN( MBEDTLS_OID_AT_ORGANIZATION ),"id-at-organizationName",         "Organization" }
 187:C:/Users/dtjld/workspace/AIoT/src/LiteOS_Lab/iot_link/network/dtls/mbedtls/mbedtls-2.16.2/library\oid.c ****         "O",
 188:C:/Users/dtjld/workspace/AIoT/src/LiteOS_Lab/iot_link/network/dtls/mbedtls/mbedtls-2.16.2/library\oid.c ****     },
 189:C:/Users/dtjld/workspace/AIoT/src/LiteOS_Lab/iot_link/network/dtls/mbedtls/mbedtls-2.16.2/library\oid.c ****     {
 190:C:/Users/dtjld/workspace/AIoT/src/LiteOS_Lab/iot_link/network/dtls/mbedtls/mbedtls-2.16.2/library\oid.c ****         { ADD_LEN( MBEDTLS_OID_AT_ORG_UNIT ),    "id-at-organizationalUnitName",   "Org Unit" },
 191:C:/Users/dtjld/workspace/AIoT/src/LiteOS_Lab/iot_link/network/dtls/mbedtls/mbedtls-2.16.2/library\oid.c ****         "OU",
ARM GAS  C:\Users\dtjld\AppData\Local\Temp\ccSrLLKC.s 			page 13


 192:C:/Users/dtjld/workspace/AIoT/src/LiteOS_Lab/iot_link/network/dtls/mbedtls/mbedtls-2.16.2/library\oid.c ****     },
 193:C:/Users/dtjld/workspace/AIoT/src/LiteOS_Lab/iot_link/network/dtls/mbedtls/mbedtls-2.16.2/library\oid.c ****     {
 194:C:/Users/dtjld/workspace/AIoT/src/LiteOS_Lab/iot_link/network/dtls/mbedtls/mbedtls-2.16.2/library\oid.c ****         { ADD_LEN( MBEDTLS_OID_PKCS9_EMAIL ),    "emailAddress",                   "E-mail address"
 195:C:/Users/dtjld/workspace/AIoT/src/LiteOS_Lab/iot_link/network/dtls/mbedtls/mbedtls-2.16.2/library\oid.c ****         "emailAddress",
 196:C:/Users/dtjld/workspace/AIoT/src/LiteOS_Lab/iot_link/network/dtls/mbedtls/mbedtls-2.16.2/library\oid.c ****     },
 197:C:/Users/dtjld/workspace/AIoT/src/LiteOS_Lab/iot_link/network/dtls/mbedtls/mbedtls-2.16.2/library\oid.c ****     {
 198:C:/Users/dtjld/workspace/AIoT/src/LiteOS_Lab/iot_link/network/dtls/mbedtls/mbedtls-2.16.2/library\oid.c ****         { ADD_LEN( MBEDTLS_OID_AT_SERIAL_NUMBER ),"id-at-serialNumber",            "Serial number" 
 199:C:/Users/dtjld/workspace/AIoT/src/LiteOS_Lab/iot_link/network/dtls/mbedtls/mbedtls-2.16.2/library\oid.c ****         "serialNumber",
 200:C:/Users/dtjld/workspace/AIoT/src/LiteOS_Lab/iot_link/network/dtls/mbedtls/mbedtls-2.16.2/library\oid.c ****     },
 201:C:/Users/dtjld/workspace/AIoT/src/LiteOS_Lab/iot_link/network/dtls/mbedtls/mbedtls-2.16.2/library\oid.c ****     {
 202:C:/Users/dtjld/workspace/AIoT/src/LiteOS_Lab/iot_link/network/dtls/mbedtls/mbedtls-2.16.2/library\oid.c ****         { ADD_LEN( MBEDTLS_OID_AT_POSTAL_ADDRESS ),"id-at-postalAddress",          "Postal address"
 203:C:/Users/dtjld/workspace/AIoT/src/LiteOS_Lab/iot_link/network/dtls/mbedtls/mbedtls-2.16.2/library\oid.c ****         "postalAddress",
 204:C:/Users/dtjld/workspace/AIoT/src/LiteOS_Lab/iot_link/network/dtls/mbedtls/mbedtls-2.16.2/library\oid.c ****     },
 205:C:/Users/dtjld/workspace/AIoT/src/LiteOS_Lab/iot_link/network/dtls/mbedtls/mbedtls-2.16.2/library\oid.c ****     {
 206:C:/Users/dtjld/workspace/AIoT/src/LiteOS_Lab/iot_link/network/dtls/mbedtls/mbedtls-2.16.2/library\oid.c ****         { ADD_LEN( MBEDTLS_OID_AT_POSTAL_CODE ), "id-at-postalCode",               "Postal code" },
 207:C:/Users/dtjld/workspace/AIoT/src/LiteOS_Lab/iot_link/network/dtls/mbedtls/mbedtls-2.16.2/library\oid.c ****         "postalCode",
 208:C:/Users/dtjld/workspace/AIoT/src/LiteOS_Lab/iot_link/network/dtls/mbedtls/mbedtls-2.16.2/library\oid.c ****     },
 209:C:/Users/dtjld/workspace/AIoT/src/LiteOS_Lab/iot_link/network/dtls/mbedtls/mbedtls-2.16.2/library\oid.c ****     {
 210:C:/Users/dtjld/workspace/AIoT/src/LiteOS_Lab/iot_link/network/dtls/mbedtls/mbedtls-2.16.2/library\oid.c ****         { ADD_LEN( MBEDTLS_OID_AT_SUR_NAME ),    "id-at-surName",                  "Surname" },
 211:C:/Users/dtjld/workspace/AIoT/src/LiteOS_Lab/iot_link/network/dtls/mbedtls/mbedtls-2.16.2/library\oid.c ****         "SN",
 212:C:/Users/dtjld/workspace/AIoT/src/LiteOS_Lab/iot_link/network/dtls/mbedtls/mbedtls-2.16.2/library\oid.c ****     },
 213:C:/Users/dtjld/workspace/AIoT/src/LiteOS_Lab/iot_link/network/dtls/mbedtls/mbedtls-2.16.2/library\oid.c ****     {
 214:C:/Users/dtjld/workspace/AIoT/src/LiteOS_Lab/iot_link/network/dtls/mbedtls/mbedtls-2.16.2/library\oid.c ****         { ADD_LEN( MBEDTLS_OID_AT_GIVEN_NAME ),  "id-at-givenName",                "Given name" },
 215:C:/Users/dtjld/workspace/AIoT/src/LiteOS_Lab/iot_link/network/dtls/mbedtls/mbedtls-2.16.2/library\oid.c ****         "GN",
 216:C:/Users/dtjld/workspace/AIoT/src/LiteOS_Lab/iot_link/network/dtls/mbedtls/mbedtls-2.16.2/library\oid.c ****     },
 217:C:/Users/dtjld/workspace/AIoT/src/LiteOS_Lab/iot_link/network/dtls/mbedtls/mbedtls-2.16.2/library\oid.c ****     {
 218:C:/Users/dtjld/workspace/AIoT/src/LiteOS_Lab/iot_link/network/dtls/mbedtls/mbedtls-2.16.2/library\oid.c ****         { ADD_LEN( MBEDTLS_OID_AT_INITIALS ),    "id-at-initials",                 "Initials" },
 219:C:/Users/dtjld/workspace/AIoT/src/LiteOS_Lab/iot_link/network/dtls/mbedtls/mbedtls-2.16.2/library\oid.c ****         "initials",
 220:C:/Users/dtjld/workspace/AIoT/src/LiteOS_Lab/iot_link/network/dtls/mbedtls/mbedtls-2.16.2/library\oid.c ****     },
 221:C:/Users/dtjld/workspace/AIoT/src/LiteOS_Lab/iot_link/network/dtls/mbedtls/mbedtls-2.16.2/library\oid.c ****     {
 222:C:/Users/dtjld/workspace/AIoT/src/LiteOS_Lab/iot_link/network/dtls/mbedtls/mbedtls-2.16.2/library\oid.c ****         { ADD_LEN( MBEDTLS_OID_AT_GENERATION_QUALIFIER ), "id-at-generationQualifier", "Generation 
 223:C:/Users/dtjld/workspace/AIoT/src/LiteOS_Lab/iot_link/network/dtls/mbedtls/mbedtls-2.16.2/library\oid.c ****         "generationQualifier",
 224:C:/Users/dtjld/workspace/AIoT/src/LiteOS_Lab/iot_link/network/dtls/mbedtls/mbedtls-2.16.2/library\oid.c ****     },
 225:C:/Users/dtjld/workspace/AIoT/src/LiteOS_Lab/iot_link/network/dtls/mbedtls/mbedtls-2.16.2/library\oid.c ****     {
 226:C:/Users/dtjld/workspace/AIoT/src/LiteOS_Lab/iot_link/network/dtls/mbedtls/mbedtls-2.16.2/library\oid.c ****         { ADD_LEN( MBEDTLS_OID_AT_TITLE ),       "id-at-title",                    "Title" },
 227:C:/Users/dtjld/workspace/AIoT/src/LiteOS_Lab/iot_link/network/dtls/mbedtls/mbedtls-2.16.2/library\oid.c ****         "title",
 228:C:/Users/dtjld/workspace/AIoT/src/LiteOS_Lab/iot_link/network/dtls/mbedtls/mbedtls-2.16.2/library\oid.c ****     },
 229:C:/Users/dtjld/workspace/AIoT/src/LiteOS_Lab/iot_link/network/dtls/mbedtls/mbedtls-2.16.2/library\oid.c ****     {
 230:C:/Users/dtjld/workspace/AIoT/src/LiteOS_Lab/iot_link/network/dtls/mbedtls/mbedtls-2.16.2/library\oid.c ****         { ADD_LEN( MBEDTLS_OID_AT_DN_QUALIFIER ),"id-at-dnQualifier",              "Distinguished N
 231:C:/Users/dtjld/workspace/AIoT/src/LiteOS_Lab/iot_link/network/dtls/mbedtls/mbedtls-2.16.2/library\oid.c ****         "dnQualifier",
 232:C:/Users/dtjld/workspace/AIoT/src/LiteOS_Lab/iot_link/network/dtls/mbedtls/mbedtls-2.16.2/library\oid.c ****     },
 233:C:/Users/dtjld/workspace/AIoT/src/LiteOS_Lab/iot_link/network/dtls/mbedtls/mbedtls-2.16.2/library\oid.c ****     {
 234:C:/Users/dtjld/workspace/AIoT/src/LiteOS_Lab/iot_link/network/dtls/mbedtls/mbedtls-2.16.2/library\oid.c ****         { ADD_LEN( MBEDTLS_OID_AT_PSEUDONYM ),   "id-at-pseudonym",                "Pseudonym" },
 235:C:/Users/dtjld/workspace/AIoT/src/LiteOS_Lab/iot_link/network/dtls/mbedtls/mbedtls-2.16.2/library\oid.c ****         "pseudonym",
 236:C:/Users/dtjld/workspace/AIoT/src/LiteOS_Lab/iot_link/network/dtls/mbedtls/mbedtls-2.16.2/library\oid.c ****     },
 237:C:/Users/dtjld/workspace/AIoT/src/LiteOS_Lab/iot_link/network/dtls/mbedtls/mbedtls-2.16.2/library\oid.c ****     {
 238:C:/Users/dtjld/workspace/AIoT/src/LiteOS_Lab/iot_link/network/dtls/mbedtls/mbedtls-2.16.2/library\oid.c ****         { ADD_LEN( MBEDTLS_OID_DOMAIN_COMPONENT ), "id-domainComponent",           "Domain componen
 239:C:/Users/dtjld/workspace/AIoT/src/LiteOS_Lab/iot_link/network/dtls/mbedtls/mbedtls-2.16.2/library\oid.c ****         "DC",
 240:C:/Users/dtjld/workspace/AIoT/src/LiteOS_Lab/iot_link/network/dtls/mbedtls/mbedtls-2.16.2/library\oid.c ****     },
 241:C:/Users/dtjld/workspace/AIoT/src/LiteOS_Lab/iot_link/network/dtls/mbedtls/mbedtls-2.16.2/library\oid.c ****     {
 242:C:/Users/dtjld/workspace/AIoT/src/LiteOS_Lab/iot_link/network/dtls/mbedtls/mbedtls-2.16.2/library\oid.c ****         { ADD_LEN( MBEDTLS_OID_AT_UNIQUE_IDENTIFIER ), "id-at-uniqueIdentifier",    "Unique Identif
 243:C:/Users/dtjld/workspace/AIoT/src/LiteOS_Lab/iot_link/network/dtls/mbedtls/mbedtls-2.16.2/library\oid.c ****         "uniqueIdentifier",
 244:C:/Users/dtjld/workspace/AIoT/src/LiteOS_Lab/iot_link/network/dtls/mbedtls/mbedtls-2.16.2/library\oid.c ****     },
 245:C:/Users/dtjld/workspace/AIoT/src/LiteOS_Lab/iot_link/network/dtls/mbedtls/mbedtls-2.16.2/library\oid.c ****     {
 246:C:/Users/dtjld/workspace/AIoT/src/LiteOS_Lab/iot_link/network/dtls/mbedtls/mbedtls-2.16.2/library\oid.c ****         { NULL, 0, NULL, NULL },
 247:C:/Users/dtjld/workspace/AIoT/src/LiteOS_Lab/iot_link/network/dtls/mbedtls/mbedtls-2.16.2/library\oid.c ****         NULL,
 248:C:/Users/dtjld/workspace/AIoT/src/LiteOS_Lab/iot_link/network/dtls/mbedtls/mbedtls-2.16.2/library\oid.c ****     }
ARM GAS  C:\Users\dtjld\AppData\Local\Temp\ccSrLLKC.s 			page 14


 249:C:/Users/dtjld/workspace/AIoT/src/LiteOS_Lab/iot_link/network/dtls/mbedtls/mbedtls-2.16.2/library\oid.c **** };
 250:C:/Users/dtjld/workspace/AIoT/src/LiteOS_Lab/iot_link/network/dtls/mbedtls/mbedtls-2.16.2/library\oid.c **** 
 251:C:/Users/dtjld/workspace/AIoT/src/LiteOS_Lab/iot_link/network/dtls/mbedtls/mbedtls-2.16.2/library\oid.c **** FN_OID_TYPED_FROM_ASN1(oid_x520_attr_t, x520_attr, oid_x520_attr_type)
 358              		.loc 1 251 0
 359              		.cfi_startproc
 360              		@ args = 0, pretend = 0, frame = 16
 361              		@ frame_needed = 1, uses_anonymous_args = 0
 362 0000 80B5     		push	{r7, lr}
 363              	.LCFI0:
 364              		.cfi_def_cfa_offset 8
 365              		.cfi_offset 7, -8
 366              		.cfi_offset 14, -4
 367 0002 84B0     		sub	sp, sp, #16
 368              	.LCFI1:
 369              		.cfi_def_cfa_offset 24
 370 0004 00AF     		add	r7, sp, #0
 371              	.LCFI2:
 372              		.cfi_def_cfa_register 7
 373 0006 7860     		str	r0, [r7, #4]
 374              		.loc 1 251 0
 375 0008 164B     		ldr	r3, .L8
 376 000a FB60     		str	r3, [r7, #12]
 377 000c FB68     		ldr	r3, [r7, #12]
 378 000e BB60     		str	r3, [r7, #8]
 379 0010 FB68     		ldr	r3, [r7, #12]
 380 0012 002B     		cmp	r3, #0
 381 0014 02D0     		beq	.L2
 382              		.loc 1 251 0 is_stmt 0 discriminator 2
 383 0016 7B68     		ldr	r3, [r7, #4]
 384 0018 002B     		cmp	r3, #0
 385 001a 1AD1     		bne	.L5
 386              	.L2:
 387              		.loc 1 251 0 discriminator 3
 388 001c 0023     		movs	r3, #0
 389 001e 1DE0     		b	.L4
 390              	.L7:
 391              		.loc 1 251 0 discriminator 9
 392 0020 BB68     		ldr	r3, [r7, #8]
 393 0022 5A68     		ldr	r2, [r3, #4]
 394 0024 7B68     		ldr	r3, [r7, #4]
 395 0026 5B68     		ldr	r3, [r3, #4]
 396 0028 9A42     		cmp	r2, r3
 397 002a 0DD1     		bne	.L6
 398              		.loc 1 251 0 discriminator 4
 399 002c BB68     		ldr	r3, [r7, #8]
 400 002e 1868     		ldr	r0, [r3]
 401 0030 7B68     		ldr	r3, [r7, #4]
 402 0032 9968     		ldr	r1, [r3, #8]
 403 0034 7B68     		ldr	r3, [r7, #4]
 404 0036 5B68     		ldr	r3, [r3, #4]
 405 0038 1A46     		mov	r2, r3
 406 003a FFF7FEFF 		bl	memcmp
 407 003e 0346     		mov	r3, r0
 408 0040 002B     		cmp	r3, #0
 409 0042 01D1     		bne	.L6
 410              		.loc 1 251 0 discriminator 6
 411 0044 FB68     		ldr	r3, [r7, #12]
ARM GAS  C:\Users\dtjld\AppData\Local\Temp\ccSrLLKC.s 			page 15


 412 0046 09E0     		b	.L4
 413              	.L6:
 414              		.loc 1 251 0 discriminator 7
 415 0048 FB68     		ldr	r3, [r7, #12]
 416 004a 1433     		adds	r3, r3, #20
 417 004c FB60     		str	r3, [r7, #12]
 418 004e FB68     		ldr	r3, [r7, #12]
 419 0050 BB60     		str	r3, [r7, #8]
 420              	.L5:
 421              		.loc 1 251 0 discriminator 8
 422 0052 BB68     		ldr	r3, [r7, #8]
 423 0054 1B68     		ldr	r3, [r3]
 424 0056 002B     		cmp	r3, #0
 425 0058 E2D1     		bne	.L7
 426              		.loc 1 251 0 discriminator 10
 427 005a 0023     		movs	r3, #0
 428              	.L4:
 429              		.loc 1 251 0
 430 005c 1846     		mov	r0, r3
 431 005e 1037     		adds	r7, r7, #16
 432              	.LCFI3:
 433              		.cfi_def_cfa_offset 8
 434 0060 BD46     		mov	sp, r7
 435              	.LCFI4:
 436              		.cfi_def_cfa_register 13
 437              		@ sp needed
 438 0062 80BD     		pop	{r7, pc}
 439              	.L9:
 440              		.align	2
 441              	.L8:
 442 0064 00000000 		.word	oid_x520_attr_type
 443              		.cfi_endproc
 444              	.LFE13:
 446              		.section	.text.mbedtls_oid_get_attr_short_name,"ax",%progbits
 447              		.align	1
 448              		.global	mbedtls_oid_get_attr_short_name
 449              		.syntax unified
 450              		.thumb
 451              		.thumb_func
 452              		.fpu fpv4-sp-d16
 454              	mbedtls_oid_get_attr_short_name:
 455              	.LFB14:
 252:C:/Users/dtjld/workspace/AIoT/src/LiteOS_Lab/iot_link/network/dtls/mbedtls/mbedtls-2.16.2/library\oid.c **** FN_OID_GET_ATTR1(mbedtls_oid_get_attr_short_name, oid_x520_attr_t, x520_attr, const char *, short_n
 456              		.loc 1 252 0 is_stmt 1
 457              		.cfi_startproc
 458              		@ args = 0, pretend = 0, frame = 16
 459              		@ frame_needed = 1, uses_anonymous_args = 0
 460 0000 80B5     		push	{r7, lr}
 461              	.LCFI5:
 462              		.cfi_def_cfa_offset 8
 463              		.cfi_offset 7, -8
 464              		.cfi_offset 14, -4
 465 0002 84B0     		sub	sp, sp, #16
 466              	.LCFI6:
 467              		.cfi_def_cfa_offset 24
 468 0004 00AF     		add	r7, sp, #0
 469              	.LCFI7:
ARM GAS  C:\Users\dtjld\AppData\Local\Temp\ccSrLLKC.s 			page 16


 470              		.cfi_def_cfa_register 7
 471 0006 7860     		str	r0, [r7, #4]
 472 0008 3960     		str	r1, [r7]
 473              		.loc 1 252 0
 474 000a 7868     		ldr	r0, [r7, #4]
 475 000c FFF7FEFF 		bl	oid_x520_attr_from_asn1
 476 0010 F860     		str	r0, [r7, #12]
 477 0012 FB68     		ldr	r3, [r7, #12]
 478 0014 002B     		cmp	r3, #0
 479 0016 02D1     		bne	.L11
 480              		.loc 1 252 0 is_stmt 0 discriminator 1
 481 0018 6FF02D03 		mvn	r3, #45
 482 001c 04E0     		b	.L12
 483              	.L11:
 484              		.loc 1 252 0 discriminator 2
 485 001e FB68     		ldr	r3, [r7, #12]
 486 0020 1A69     		ldr	r2, [r3, #16]
 487 0022 3B68     		ldr	r3, [r7]
 488 0024 1A60     		str	r2, [r3]
 489 0026 0023     		movs	r3, #0
 490              	.L12:
 491              		.loc 1 252 0
 492 0028 1846     		mov	r0, r3
 493 002a 1037     		adds	r7, r7, #16
 494              	.LCFI8:
 495              		.cfi_def_cfa_offset 8
 496 002c BD46     		mov	sp, r7
 497              	.LCFI9:
 498              		.cfi_def_cfa_register 13
 499              		@ sp needed
 500 002e 80BD     		pop	{r7, pc}
 501              		.cfi_endproc
 502              	.LFE14:
 504              		.section	.rodata
 505 0381 000000   		.align	2
 506              	.LC75:
 507 0384 551D1300 		.ascii	"U\035\023\000"
 508              		.align	2
 509              	.LC76:
 510 0388 69642D63 		.ascii	"id-ce-basicConstraints\000"
 510      652D6261 
 510      73696343 
 510      6F6E7374 
 510      7261696E 
 511 039f 00       		.align	2
 512              	.LC77:
 513 03a0 42617369 		.ascii	"Basic Constraints\000"
 513      6320436F 
 513      6E737472 
 513      61696E74 
 513      7300
 514 03b2 0000     		.align	2
 515              	.LC78:
 516 03b4 551D0F00 		.ascii	"U\035\017\000"
 517              		.align	2
 518              	.LC79:
 519 03b8 69642D63 		.ascii	"id-ce-keyUsage\000"
ARM GAS  C:\Users\dtjld\AppData\Local\Temp\ccSrLLKC.s 			page 17


 519      652D6B65 
 519      79557361 
 519      676500
 520 03c7 00       		.align	2
 521              	.LC80:
 522 03c8 4B657920 		.ascii	"Key Usage\000"
 522      55736167 
 522      6500
 523 03d2 0000     		.align	2
 524              	.LC81:
 525 03d4 551D2500 		.ascii	"U\035%\000"
 526              		.align	2
 527              	.LC82:
 528 03d8 69642D63 		.ascii	"id-ce-extKeyUsage\000"
 528      652D6578 
 528      744B6579 
 528      55736167 
 528      6500
 529 03ea 0000     		.align	2
 530              	.LC83:
 531 03ec 45787465 		.ascii	"Extended Key Usage\000"
 531      6E646564 
 531      204B6579 
 531      20557361 
 531      676500
 532 03ff 00       		.align	2
 533              	.LC84:
 534 0400 551D1100 		.ascii	"U\035\021\000"
 535              		.align	2
 536              	.LC85:
 537 0404 69642D63 		.ascii	"id-ce-subjectAltName\000"
 537      652D7375 
 537      626A6563 
 537      74416C74 
 537      4E616D65 
 538 0419 000000   		.align	2
 539              	.LC86:
 540 041c 5375626A 		.ascii	"Subject Alt Name\000"
 540      65637420 
 540      416C7420 
 540      4E616D65 
 540      00
 541 042d 000000   		.align	2
 542              	.LC87:
 543 0430 60864801 		.ascii	"`\206H\001\206\370B\001\001\000"
 543      86F84201 
 543      0100
 544 043a 0000     		.align	2
 545              	.LC88:
 546 043c 69642D6E 		.ascii	"id-netscape-certtype\000"
 546      65747363 
 546      6170652D 
 546      63657274 
 546      74797065 
 547 0451 000000   		.align	2
 548              	.LC89:
 549 0454 4E657473 		.ascii	"Netscape Certificate Type\000"
ARM GAS  C:\Users\dtjld\AppData\Local\Temp\ccSrLLKC.s 			page 18


 549      63617065 
 549      20436572 
 549      74696669 
 549      63617465 
 550              		.section	.rodata.oid_x509_ext,"a",%progbits
 551              		.align	2
 554              	oid_x509_ext:
 555 0000 84030000 		.word	.LC75
 556 0004 03000000 		.word	3
 557 0008 88030000 		.word	.LC76
 558 000c A0030000 		.word	.LC77
 559 0010 00010000 		.word	256
 560 0014 B4030000 		.word	.LC78
 561 0018 03000000 		.word	3
 562 001c B8030000 		.word	.LC79
 563 0020 C8030000 		.word	.LC80
 564 0024 04000000 		.word	4
 565 0028 D4030000 		.word	.LC81
 566 002c 03000000 		.word	3
 567 0030 D8030000 		.word	.LC82
 568 0034 EC030000 		.word	.LC83
 569 0038 00080000 		.word	2048
 570 003c 00040000 		.word	.LC84
 571 0040 03000000 		.word	3
 572 0044 04040000 		.word	.LC85
 573 0048 1C040000 		.word	.LC86
 574 004c 20000000 		.word	32
 575 0050 30040000 		.word	.LC87
 576 0054 09000000 		.word	9
 577 0058 3C040000 		.word	.LC88
 578 005c 54040000 		.word	.LC89
 579 0060 00000100 		.word	65536
 580 0064 00000000 		.word	0
 581 0068 00000000 		.word	0
 582 006c 00000000 		.word	0
 583 0070 00000000 		.word	0
 584 0074 00000000 		.word	0
 585              		.section	.text.oid_x509_ext_from_asn1,"ax",%progbits
 586              		.align	1
 587              		.syntax unified
 588              		.thumb
 589              		.thumb_func
 590              		.fpu fpv4-sp-d16
 592              	oid_x509_ext_from_asn1:
 593              	.LFB15:
 253:C:/Users/dtjld/workspace/AIoT/src/LiteOS_Lab/iot_link/network/dtls/mbedtls/mbedtls-2.16.2/library\oid.c **** 
 254:C:/Users/dtjld/workspace/AIoT/src/LiteOS_Lab/iot_link/network/dtls/mbedtls/mbedtls-2.16.2/library\oid.c **** /*
 255:C:/Users/dtjld/workspace/AIoT/src/LiteOS_Lab/iot_link/network/dtls/mbedtls/mbedtls-2.16.2/library\oid.c ****  * For X509 extensions
 256:C:/Users/dtjld/workspace/AIoT/src/LiteOS_Lab/iot_link/network/dtls/mbedtls/mbedtls-2.16.2/library\oid.c ****  */
 257:C:/Users/dtjld/workspace/AIoT/src/LiteOS_Lab/iot_link/network/dtls/mbedtls/mbedtls-2.16.2/library\oid.c **** typedef struct {
 258:C:/Users/dtjld/workspace/AIoT/src/LiteOS_Lab/iot_link/network/dtls/mbedtls/mbedtls-2.16.2/library\oid.c ****     mbedtls_oid_descriptor_t    descriptor;
 259:C:/Users/dtjld/workspace/AIoT/src/LiteOS_Lab/iot_link/network/dtls/mbedtls/mbedtls-2.16.2/library\oid.c ****     int                 ext_type;
 260:C:/Users/dtjld/workspace/AIoT/src/LiteOS_Lab/iot_link/network/dtls/mbedtls/mbedtls-2.16.2/library\oid.c **** } oid_x509_ext_t;
 261:C:/Users/dtjld/workspace/AIoT/src/LiteOS_Lab/iot_link/network/dtls/mbedtls/mbedtls-2.16.2/library\oid.c **** 
 262:C:/Users/dtjld/workspace/AIoT/src/LiteOS_Lab/iot_link/network/dtls/mbedtls/mbedtls-2.16.2/library\oid.c **** static const oid_x509_ext_t oid_x509_ext[] =
 263:C:/Users/dtjld/workspace/AIoT/src/LiteOS_Lab/iot_link/network/dtls/mbedtls/mbedtls-2.16.2/library\oid.c **** {
 264:C:/Users/dtjld/workspace/AIoT/src/LiteOS_Lab/iot_link/network/dtls/mbedtls/mbedtls-2.16.2/library\oid.c ****     {
ARM GAS  C:\Users\dtjld\AppData\Local\Temp\ccSrLLKC.s 			page 19


 265:C:/Users/dtjld/workspace/AIoT/src/LiteOS_Lab/iot_link/network/dtls/mbedtls/mbedtls-2.16.2/library\oid.c ****         { ADD_LEN( MBEDTLS_OID_BASIC_CONSTRAINTS ),    "id-ce-basicConstraints",   "Basic Constrain
 266:C:/Users/dtjld/workspace/AIoT/src/LiteOS_Lab/iot_link/network/dtls/mbedtls/mbedtls-2.16.2/library\oid.c ****         MBEDTLS_X509_EXT_BASIC_CONSTRAINTS,
 267:C:/Users/dtjld/workspace/AIoT/src/LiteOS_Lab/iot_link/network/dtls/mbedtls/mbedtls-2.16.2/library\oid.c ****     },
 268:C:/Users/dtjld/workspace/AIoT/src/LiteOS_Lab/iot_link/network/dtls/mbedtls/mbedtls-2.16.2/library\oid.c ****     {
 269:C:/Users/dtjld/workspace/AIoT/src/LiteOS_Lab/iot_link/network/dtls/mbedtls/mbedtls-2.16.2/library\oid.c ****         { ADD_LEN( MBEDTLS_OID_KEY_USAGE ),            "id-ce-keyUsage",           "Key Usage" },
 270:C:/Users/dtjld/workspace/AIoT/src/LiteOS_Lab/iot_link/network/dtls/mbedtls/mbedtls-2.16.2/library\oid.c ****         MBEDTLS_X509_EXT_KEY_USAGE,
 271:C:/Users/dtjld/workspace/AIoT/src/LiteOS_Lab/iot_link/network/dtls/mbedtls/mbedtls-2.16.2/library\oid.c ****     },
 272:C:/Users/dtjld/workspace/AIoT/src/LiteOS_Lab/iot_link/network/dtls/mbedtls/mbedtls-2.16.2/library\oid.c ****     {
 273:C:/Users/dtjld/workspace/AIoT/src/LiteOS_Lab/iot_link/network/dtls/mbedtls/mbedtls-2.16.2/library\oid.c ****         { ADD_LEN( MBEDTLS_OID_EXTENDED_KEY_USAGE ),   "id-ce-extKeyUsage",        "Extended Key Us
 274:C:/Users/dtjld/workspace/AIoT/src/LiteOS_Lab/iot_link/network/dtls/mbedtls/mbedtls-2.16.2/library\oid.c ****         MBEDTLS_X509_EXT_EXTENDED_KEY_USAGE,
 275:C:/Users/dtjld/workspace/AIoT/src/LiteOS_Lab/iot_link/network/dtls/mbedtls/mbedtls-2.16.2/library\oid.c ****     },
 276:C:/Users/dtjld/workspace/AIoT/src/LiteOS_Lab/iot_link/network/dtls/mbedtls/mbedtls-2.16.2/library\oid.c ****     {
 277:C:/Users/dtjld/workspace/AIoT/src/LiteOS_Lab/iot_link/network/dtls/mbedtls/mbedtls-2.16.2/library\oid.c ****         { ADD_LEN( MBEDTLS_OID_SUBJECT_ALT_NAME ),     "id-ce-subjectAltName",     "Subject Alt Nam
 278:C:/Users/dtjld/workspace/AIoT/src/LiteOS_Lab/iot_link/network/dtls/mbedtls/mbedtls-2.16.2/library\oid.c ****         MBEDTLS_X509_EXT_SUBJECT_ALT_NAME,
 279:C:/Users/dtjld/workspace/AIoT/src/LiteOS_Lab/iot_link/network/dtls/mbedtls/mbedtls-2.16.2/library\oid.c ****     },
 280:C:/Users/dtjld/workspace/AIoT/src/LiteOS_Lab/iot_link/network/dtls/mbedtls/mbedtls-2.16.2/library\oid.c ****     {
 281:C:/Users/dtjld/workspace/AIoT/src/LiteOS_Lab/iot_link/network/dtls/mbedtls/mbedtls-2.16.2/library\oid.c ****         { ADD_LEN( MBEDTLS_OID_NS_CERT_TYPE ),         "id-netscape-certtype",     "Netscape Certif
 282:C:/Users/dtjld/workspace/AIoT/src/LiteOS_Lab/iot_link/network/dtls/mbedtls/mbedtls-2.16.2/library\oid.c ****         MBEDTLS_X509_EXT_NS_CERT_TYPE,
 283:C:/Users/dtjld/workspace/AIoT/src/LiteOS_Lab/iot_link/network/dtls/mbedtls/mbedtls-2.16.2/library\oid.c ****     },
 284:C:/Users/dtjld/workspace/AIoT/src/LiteOS_Lab/iot_link/network/dtls/mbedtls/mbedtls-2.16.2/library\oid.c ****     {
 285:C:/Users/dtjld/workspace/AIoT/src/LiteOS_Lab/iot_link/network/dtls/mbedtls/mbedtls-2.16.2/library\oid.c ****         { NULL, 0, NULL, NULL },
 286:C:/Users/dtjld/workspace/AIoT/src/LiteOS_Lab/iot_link/network/dtls/mbedtls/mbedtls-2.16.2/library\oid.c ****         0,
 287:C:/Users/dtjld/workspace/AIoT/src/LiteOS_Lab/iot_link/network/dtls/mbedtls/mbedtls-2.16.2/library\oid.c ****     },
 288:C:/Users/dtjld/workspace/AIoT/src/LiteOS_Lab/iot_link/network/dtls/mbedtls/mbedtls-2.16.2/library\oid.c **** };
 289:C:/Users/dtjld/workspace/AIoT/src/LiteOS_Lab/iot_link/network/dtls/mbedtls/mbedtls-2.16.2/library\oid.c **** 
 290:C:/Users/dtjld/workspace/AIoT/src/LiteOS_Lab/iot_link/network/dtls/mbedtls/mbedtls-2.16.2/library\oid.c **** FN_OID_TYPED_FROM_ASN1(oid_x509_ext_t, x509_ext, oid_x509_ext)
 594              		.loc 1 290 0 is_stmt 1
 595              		.cfi_startproc
 596              		@ args = 0, pretend = 0, frame = 16
 597              		@ frame_needed = 1, uses_anonymous_args = 0
 598 0000 80B5     		push	{r7, lr}
 599              	.LCFI10:
 600              		.cfi_def_cfa_offset 8
 601              		.cfi_offset 7, -8
 602              		.cfi_offset 14, -4
 603 0002 84B0     		sub	sp, sp, #16
 604              	.LCFI11:
 605              		.cfi_def_cfa_offset 24
 606 0004 00AF     		add	r7, sp, #0
 607              	.LCFI12:
 608              		.cfi_def_cfa_register 7
 609 0006 7860     		str	r0, [r7, #4]
 610              		.loc 1 290 0
 611 0008 164B     		ldr	r3, .L20
 612 000a FB60     		str	r3, [r7, #12]
 613 000c FB68     		ldr	r3, [r7, #12]
 614 000e BB60     		str	r3, [r7, #8]
 615 0010 FB68     		ldr	r3, [r7, #12]
 616 0012 002B     		cmp	r3, #0
 617 0014 02D0     		beq	.L14
 618              		.loc 1 290 0 is_stmt 0 discriminator 2
 619 0016 7B68     		ldr	r3, [r7, #4]
 620 0018 002B     		cmp	r3, #0
 621 001a 1AD1     		bne	.L17
 622              	.L14:
 623              		.loc 1 290 0 discriminator 3
 624 001c 0023     		movs	r3, #0
ARM GAS  C:\Users\dtjld\AppData\Local\Temp\ccSrLLKC.s 			page 20


 625 001e 1DE0     		b	.L16
 626              	.L19:
 627              		.loc 1 290 0 discriminator 9
 628 0020 BB68     		ldr	r3, [r7, #8]
 629 0022 5A68     		ldr	r2, [r3, #4]
 630 0024 7B68     		ldr	r3, [r7, #4]
 631 0026 5B68     		ldr	r3, [r3, #4]
 632 0028 9A42     		cmp	r2, r3
 633 002a 0DD1     		bne	.L18
 634              		.loc 1 290 0 discriminator 4
 635 002c BB68     		ldr	r3, [r7, #8]
 636 002e 1868     		ldr	r0, [r3]
 637 0030 7B68     		ldr	r3, [r7, #4]
 638 0032 9968     		ldr	r1, [r3, #8]
 639 0034 7B68     		ldr	r3, [r7, #4]
 640 0036 5B68     		ldr	r3, [r3, #4]
 641 0038 1A46     		mov	r2, r3
 642 003a FFF7FEFF 		bl	memcmp
 643 003e 0346     		mov	r3, r0
 644 0040 002B     		cmp	r3, #0
 645 0042 01D1     		bne	.L18
 646              		.loc 1 290 0 discriminator 6
 647 0044 FB68     		ldr	r3, [r7, #12]
 648 0046 09E0     		b	.L16
 649              	.L18:
 650              		.loc 1 290 0 discriminator 7
 651 0048 FB68     		ldr	r3, [r7, #12]
 652 004a 1433     		adds	r3, r3, #20
 653 004c FB60     		str	r3, [r7, #12]
 654 004e FB68     		ldr	r3, [r7, #12]
 655 0050 BB60     		str	r3, [r7, #8]
 656              	.L17:
 657              		.loc 1 290 0 discriminator 8
 658 0052 BB68     		ldr	r3, [r7, #8]
 659 0054 1B68     		ldr	r3, [r3]
 660 0056 002B     		cmp	r3, #0
 661 0058 E2D1     		bne	.L19
 662              		.loc 1 290 0 discriminator 10
 663 005a 0023     		movs	r3, #0
 664              	.L16:
 665              		.loc 1 290 0
 666 005c 1846     		mov	r0, r3
 667 005e 1037     		adds	r7, r7, #16
 668              	.LCFI13:
 669              		.cfi_def_cfa_offset 8
 670 0060 BD46     		mov	sp, r7
 671              	.LCFI14:
 672              		.cfi_def_cfa_register 13
 673              		@ sp needed
 674 0062 80BD     		pop	{r7, pc}
 675              	.L21:
 676              		.align	2
 677              	.L20:
 678 0064 00000000 		.word	oid_x509_ext
 679              		.cfi_endproc
 680              	.LFE15:
 682              		.section	.text.mbedtls_oid_get_x509_ext_type,"ax",%progbits
ARM GAS  C:\Users\dtjld\AppData\Local\Temp\ccSrLLKC.s 			page 21


 683              		.align	1
 684              		.global	mbedtls_oid_get_x509_ext_type
 685              		.syntax unified
 686              		.thumb
 687              		.thumb_func
 688              		.fpu fpv4-sp-d16
 690              	mbedtls_oid_get_x509_ext_type:
 691              	.LFB16:
 291:C:/Users/dtjld/workspace/AIoT/src/LiteOS_Lab/iot_link/network/dtls/mbedtls/mbedtls-2.16.2/library\oid.c **** FN_OID_GET_ATTR1(mbedtls_oid_get_x509_ext_type, oid_x509_ext_t, x509_ext, int, ext_type)
 692              		.loc 1 291 0 is_stmt 1
 693              		.cfi_startproc
 694              		@ args = 0, pretend = 0, frame = 16
 695              		@ frame_needed = 1, uses_anonymous_args = 0
 696 0000 80B5     		push	{r7, lr}
 697              	.LCFI15:
 698              		.cfi_def_cfa_offset 8
 699              		.cfi_offset 7, -8
 700              		.cfi_offset 14, -4
 701 0002 84B0     		sub	sp, sp, #16
 702              	.LCFI16:
 703              		.cfi_def_cfa_offset 24
 704 0004 00AF     		add	r7, sp, #0
 705              	.LCFI17:
 706              		.cfi_def_cfa_register 7
 707 0006 7860     		str	r0, [r7, #4]
 708 0008 3960     		str	r1, [r7]
 709              		.loc 1 291 0
 710 000a 7868     		ldr	r0, [r7, #4]
 711 000c FFF7FEFF 		bl	oid_x509_ext_from_asn1
 712 0010 F860     		str	r0, [r7, #12]
 713 0012 FB68     		ldr	r3, [r7, #12]
 714 0014 002B     		cmp	r3, #0
 715 0016 02D1     		bne	.L23
 716              		.loc 1 291 0 is_stmt 0 discriminator 1
 717 0018 6FF02D03 		mvn	r3, #45
 718 001c 04E0     		b	.L24
 719              	.L23:
 720              		.loc 1 291 0 discriminator 2
 721 001e FB68     		ldr	r3, [r7, #12]
 722 0020 1A69     		ldr	r2, [r3, #16]
 723 0022 3B68     		ldr	r3, [r7]
 724 0024 1A60     		str	r2, [r3]
 725 0026 0023     		movs	r3, #0
 726              	.L24:
 727              		.loc 1 291 0
 728 0028 1846     		mov	r0, r3
 729 002a 1037     		adds	r7, r7, #16
 730              	.LCFI18:
 731              		.cfi_def_cfa_offset 8
 732 002c BD46     		mov	sp, r7
 733              	.LCFI19:
 734              		.cfi_def_cfa_register 13
 735              		@ sp needed
 736 002e 80BD     		pop	{r7, pc}
 737              		.cfi_endproc
 738              	.LFE16:
 740              		.section	.rodata
ARM GAS  C:\Users\dtjld\AppData\Local\Temp\ccSrLLKC.s 			page 22


 741 046e 0000     		.align	2
 742              	.LC90:
 743 0470 2B060105 		.ascii	"+\006\001\005\005\007\003\001\000"
 743      05070301 
 743      00
 744 0479 000000   		.align	2
 745              	.LC91:
 746 047c 69642D6B 		.ascii	"id-kp-serverAuth\000"
 746      702D7365 
 746      72766572 
 746      41757468 
 746      00
 747 048d 000000   		.align	2
 748              	.LC92:
 749 0490 544C5320 		.ascii	"TLS Web Server Authentication\000"
 749      57656220 
 749      53657276 
 749      65722041 
 749      75746865 
 750 04ae 0000     		.align	2
 751              	.LC93:
 752 04b0 2B060105 		.ascii	"+\006\001\005\005\007\003\002\000"
 752      05070302 
 752      00
 753 04b9 000000   		.align	2
 754              	.LC94:
 755 04bc 69642D6B 		.ascii	"id-kp-clientAuth\000"
 755      702D636C 
 755      69656E74 
 755      41757468 
 755      00
 756 04cd 000000   		.align	2
 757              	.LC95:
 758 04d0 544C5320 		.ascii	"TLS Web Client Authentication\000"
 758      57656220 
 758      436C6965 
 758      6E742041 
 758      75746865 
 759 04ee 0000     		.align	2
 760              	.LC96:
 761 04f0 2B060105 		.ascii	"+\006\001\005\005\007\003\003\000"
 761      05070303 
 761      00
 762 04f9 000000   		.align	2
 763              	.LC97:
 764 04fc 69642D6B 		.ascii	"id-kp-codeSigning\000"
 764      702D636F 
 764      64655369 
 764      676E696E 
 764      6700
 765 050e 0000     		.align	2
 766              	.LC98:
 767 0510 436F6465 		.ascii	"Code Signing\000"
 767      20536967 
 767      6E696E67 
 767      00
 768 051d 000000   		.align	2
ARM GAS  C:\Users\dtjld\AppData\Local\Temp\ccSrLLKC.s 			page 23


 769              	.LC99:
 770 0520 2B060105 		.ascii	"+\006\001\005\005\007\003\004\000"
 770      05070304 
 770      00
 771 0529 000000   		.align	2
 772              	.LC100:
 773 052c 69642D6B 		.ascii	"id-kp-emailProtection\000"
 773      702D656D 
 773      61696C50 
 773      726F7465 
 773      6374696F 
 774 0542 0000     		.align	2
 775              	.LC101:
 776 0544 452D6D61 		.ascii	"E-mail Protection\000"
 776      696C2050 
 776      726F7465 
 776      6374696F 
 776      6E00
 777 0556 0000     		.align	2
 778              	.LC102:
 779 0558 2B060105 		.ascii	"+\006\001\005\005\007\003\010\000"
 779      05070308 
 779      00
 780 0561 000000   		.align	2
 781              	.LC103:
 782 0564 69642D6B 		.ascii	"id-kp-timeStamping\000"
 782      702D7469 
 782      6D655374 
 782      616D7069 
 782      6E6700
 783 0577 00       		.align	2
 784              	.LC104:
 785 0578 54696D65 		.ascii	"Time Stamping\000"
 785      20537461 
 785      6D70696E 
 785      6700
 786 0586 0000     		.align	2
 787              	.LC105:
 788 0588 2B060105 		.ascii	"+\006\001\005\005\007\003\011\000"
 788      05070309 
 788      00
 789 0591 000000   		.align	2
 790              	.LC106:
 791 0594 69642D6B 		.ascii	"id-kp-OCSPSigning\000"
 791      702D4F43 
 791      53505369 
 791      676E696E 
 791      6700
 792 05a6 0000     		.align	2
 793              	.LC107:
 794 05a8 4F435350 		.ascii	"OCSP Signing\000"
 794      20536967 
 794      6E696E67 
 794      00
 795              		.section	.rodata.oid_ext_key_usage,"a",%progbits
 796              		.align	2
 799              	oid_ext_key_usage:
ARM GAS  C:\Users\dtjld\AppData\Local\Temp\ccSrLLKC.s 			page 24


 800 0000 70040000 		.word	.LC90
 801 0004 08000000 		.word	8
 802 0008 7C040000 		.word	.LC91
 803 000c 90040000 		.word	.LC92
 804 0010 B0040000 		.word	.LC93
 805 0014 08000000 		.word	8
 806 0018 BC040000 		.word	.LC94
 807 001c D0040000 		.word	.LC95
 808 0020 F0040000 		.word	.LC96
 809 0024 08000000 		.word	8
 810 0028 FC040000 		.word	.LC97
 811 002c 10050000 		.word	.LC98
 812 0030 20050000 		.word	.LC99
 813 0034 08000000 		.word	8
 814 0038 2C050000 		.word	.LC100
 815 003c 44050000 		.word	.LC101
 816 0040 58050000 		.word	.LC102
 817 0044 08000000 		.word	8
 818 0048 64050000 		.word	.LC103
 819 004c 78050000 		.word	.LC104
 820 0050 88050000 		.word	.LC105
 821 0054 08000000 		.word	8
 822 0058 94050000 		.word	.LC106
 823 005c A8050000 		.word	.LC107
 824 0060 00000000 		.word	0
 825 0064 00000000 		.word	0
 826 0068 00000000 		.word	0
 827 006c 00000000 		.word	0
 828              		.section	.text.oid_ext_key_usage_from_asn1,"ax",%progbits
 829              		.align	1
 830              		.syntax unified
 831              		.thumb
 832              		.thumb_func
 833              		.fpu fpv4-sp-d16
 835              	oid_ext_key_usage_from_asn1:
 836              	.LFB17:
 292:C:/Users/dtjld/workspace/AIoT/src/LiteOS_Lab/iot_link/network/dtls/mbedtls/mbedtls-2.16.2/library\oid.c **** 
 293:C:/Users/dtjld/workspace/AIoT/src/LiteOS_Lab/iot_link/network/dtls/mbedtls/mbedtls-2.16.2/library\oid.c **** static const mbedtls_oid_descriptor_t oid_ext_key_usage[] =
 294:C:/Users/dtjld/workspace/AIoT/src/LiteOS_Lab/iot_link/network/dtls/mbedtls/mbedtls-2.16.2/library\oid.c **** {
 295:C:/Users/dtjld/workspace/AIoT/src/LiteOS_Lab/iot_link/network/dtls/mbedtls/mbedtls-2.16.2/library\oid.c ****     { ADD_LEN( MBEDTLS_OID_SERVER_AUTH ),      "id-kp-serverAuth",      "TLS Web Server Authenticat
 296:C:/Users/dtjld/workspace/AIoT/src/LiteOS_Lab/iot_link/network/dtls/mbedtls/mbedtls-2.16.2/library\oid.c ****     { ADD_LEN( MBEDTLS_OID_CLIENT_AUTH ),      "id-kp-clientAuth",      "TLS Web Client Authenticat
 297:C:/Users/dtjld/workspace/AIoT/src/LiteOS_Lab/iot_link/network/dtls/mbedtls/mbedtls-2.16.2/library\oid.c ****     { ADD_LEN( MBEDTLS_OID_CODE_SIGNING ),     "id-kp-codeSigning",     "Code Signing" },
 298:C:/Users/dtjld/workspace/AIoT/src/LiteOS_Lab/iot_link/network/dtls/mbedtls/mbedtls-2.16.2/library\oid.c ****     { ADD_LEN( MBEDTLS_OID_EMAIL_PROTECTION ), "id-kp-emailProtection", "E-mail Protection" },
 299:C:/Users/dtjld/workspace/AIoT/src/LiteOS_Lab/iot_link/network/dtls/mbedtls/mbedtls-2.16.2/library\oid.c ****     { ADD_LEN( MBEDTLS_OID_TIME_STAMPING ),    "id-kp-timeStamping",    "Time Stamping" },
 300:C:/Users/dtjld/workspace/AIoT/src/LiteOS_Lab/iot_link/network/dtls/mbedtls/mbedtls-2.16.2/library\oid.c ****     { ADD_LEN( MBEDTLS_OID_OCSP_SIGNING ),     "id-kp-OCSPSigning",     "OCSP Signing" },
 301:C:/Users/dtjld/workspace/AIoT/src/LiteOS_Lab/iot_link/network/dtls/mbedtls/mbedtls-2.16.2/library\oid.c ****     { NULL, 0, NULL, NULL },
 302:C:/Users/dtjld/workspace/AIoT/src/LiteOS_Lab/iot_link/network/dtls/mbedtls/mbedtls-2.16.2/library\oid.c **** };
 303:C:/Users/dtjld/workspace/AIoT/src/LiteOS_Lab/iot_link/network/dtls/mbedtls/mbedtls-2.16.2/library\oid.c **** 
 304:C:/Users/dtjld/workspace/AIoT/src/LiteOS_Lab/iot_link/network/dtls/mbedtls/mbedtls-2.16.2/library\oid.c **** FN_OID_TYPED_FROM_ASN1(mbedtls_oid_descriptor_t, ext_key_usage, oid_ext_key_usage)
 837              		.loc 1 304 0 is_stmt 1
 838              		.cfi_startproc
 839              		@ args = 0, pretend = 0, frame = 16
 840              		@ frame_needed = 1, uses_anonymous_args = 0
 841 0000 80B5     		push	{r7, lr}
 842              	.LCFI20:
 843              		.cfi_def_cfa_offset 8
 844              		.cfi_offset 7, -8
ARM GAS  C:\Users\dtjld\AppData\Local\Temp\ccSrLLKC.s 			page 25


 845              		.cfi_offset 14, -4
 846 0002 84B0     		sub	sp, sp, #16
 847              	.LCFI21:
 848              		.cfi_def_cfa_offset 24
 849 0004 00AF     		add	r7, sp, #0
 850              	.LCFI22:
 851              		.cfi_def_cfa_register 7
 852 0006 7860     		str	r0, [r7, #4]
 853              		.loc 1 304 0
 854 0008 164B     		ldr	r3, .L32
 855 000a FB60     		str	r3, [r7, #12]
 856 000c FB68     		ldr	r3, [r7, #12]
 857 000e BB60     		str	r3, [r7, #8]
 858 0010 FB68     		ldr	r3, [r7, #12]
 859 0012 002B     		cmp	r3, #0
 860 0014 02D0     		beq	.L26
 861              		.loc 1 304 0 is_stmt 0 discriminator 2
 862 0016 7B68     		ldr	r3, [r7, #4]
 863 0018 002B     		cmp	r3, #0
 864 001a 1AD1     		bne	.L29
 865              	.L26:
 866              		.loc 1 304 0 discriminator 3
 867 001c 0023     		movs	r3, #0
 868 001e 1DE0     		b	.L28
 869              	.L31:
 870              		.loc 1 304 0 discriminator 9
 871 0020 BB68     		ldr	r3, [r7, #8]
 872 0022 5A68     		ldr	r2, [r3, #4]
 873 0024 7B68     		ldr	r3, [r7, #4]
 874 0026 5B68     		ldr	r3, [r3, #4]
 875 0028 9A42     		cmp	r2, r3
 876 002a 0DD1     		bne	.L30
 877              		.loc 1 304 0 discriminator 4
 878 002c BB68     		ldr	r3, [r7, #8]
 879 002e 1868     		ldr	r0, [r3]
 880 0030 7B68     		ldr	r3, [r7, #4]
 881 0032 9968     		ldr	r1, [r3, #8]
 882 0034 7B68     		ldr	r3, [r7, #4]
 883 0036 5B68     		ldr	r3, [r3, #4]
 884 0038 1A46     		mov	r2, r3
 885 003a FFF7FEFF 		bl	memcmp
 886 003e 0346     		mov	r3, r0
 887 0040 002B     		cmp	r3, #0
 888 0042 01D1     		bne	.L30
 889              		.loc 1 304 0 discriminator 6
 890 0044 FB68     		ldr	r3, [r7, #12]
 891 0046 09E0     		b	.L28
 892              	.L30:
 893              		.loc 1 304 0 discriminator 7
 894 0048 FB68     		ldr	r3, [r7, #12]
 895 004a 1033     		adds	r3, r3, #16
 896 004c FB60     		str	r3, [r7, #12]
 897 004e FB68     		ldr	r3, [r7, #12]
 898 0050 BB60     		str	r3, [r7, #8]
 899              	.L29:
 900              		.loc 1 304 0 discriminator 8
 901 0052 BB68     		ldr	r3, [r7, #8]
ARM GAS  C:\Users\dtjld\AppData\Local\Temp\ccSrLLKC.s 			page 26


 902 0054 1B68     		ldr	r3, [r3]
 903 0056 002B     		cmp	r3, #0
 904 0058 E2D1     		bne	.L31
 905              		.loc 1 304 0 discriminator 10
 906 005a 0023     		movs	r3, #0
 907              	.L28:
 908              		.loc 1 304 0
 909 005c 1846     		mov	r0, r3
 910 005e 1037     		adds	r7, r7, #16
 911              	.LCFI23:
 912              		.cfi_def_cfa_offset 8
 913 0060 BD46     		mov	sp, r7
 914              	.LCFI24:
 915              		.cfi_def_cfa_register 13
 916              		@ sp needed
 917 0062 80BD     		pop	{r7, pc}
 918              	.L33:
 919              		.align	2
 920              	.L32:
 921 0064 00000000 		.word	oid_ext_key_usage
 922              		.cfi_endproc
 923              	.LFE17:
 925              		.section	.text.mbedtls_oid_get_extended_key_usage,"ax",%progbits
 926              		.align	1
 927              		.global	mbedtls_oid_get_extended_key_usage
 928              		.syntax unified
 929              		.thumb
 930              		.thumb_func
 931              		.fpu fpv4-sp-d16
 933              	mbedtls_oid_get_extended_key_usage:
 934              	.LFB18:
 305:C:/Users/dtjld/workspace/AIoT/src/LiteOS_Lab/iot_link/network/dtls/mbedtls/mbedtls-2.16.2/library\oid.c **** FN_OID_GET_ATTR1(mbedtls_oid_get_extended_key_usage, mbedtls_oid_descriptor_t, ext_key_usage, const
 935              		.loc 1 305 0 is_stmt 1
 936              		.cfi_startproc
 937              		@ args = 0, pretend = 0, frame = 16
 938              		@ frame_needed = 1, uses_anonymous_args = 0
 939 0000 80B5     		push	{r7, lr}
 940              	.LCFI25:
 941              		.cfi_def_cfa_offset 8
 942              		.cfi_offset 7, -8
 943              		.cfi_offset 14, -4
 944 0002 84B0     		sub	sp, sp, #16
 945              	.LCFI26:
 946              		.cfi_def_cfa_offset 24
 947 0004 00AF     		add	r7, sp, #0
 948              	.LCFI27:
 949              		.cfi_def_cfa_register 7
 950 0006 7860     		str	r0, [r7, #4]
 951 0008 3960     		str	r1, [r7]
 952              		.loc 1 305 0
 953 000a 7868     		ldr	r0, [r7, #4]
 954 000c FFF7FEFF 		bl	oid_ext_key_usage_from_asn1
 955 0010 F860     		str	r0, [r7, #12]
 956 0012 FB68     		ldr	r3, [r7, #12]
 957 0014 002B     		cmp	r3, #0
 958 0016 02D1     		bne	.L35
 959              		.loc 1 305 0 is_stmt 0 discriminator 1
ARM GAS  C:\Users\dtjld\AppData\Local\Temp\ccSrLLKC.s 			page 27


 960 0018 6FF02D03 		mvn	r3, #45
 961 001c 04E0     		b	.L36
 962              	.L35:
 963              		.loc 1 305 0 discriminator 2
 964 001e FB68     		ldr	r3, [r7, #12]
 965 0020 DA68     		ldr	r2, [r3, #12]
 966 0022 3B68     		ldr	r3, [r7]
 967 0024 1A60     		str	r2, [r3]
 968 0026 0023     		movs	r3, #0
 969              	.L36:
 970              		.loc 1 305 0
 971 0028 1846     		mov	r0, r3
 972 002a 1037     		adds	r7, r7, #16
 973              	.LCFI28:
 974              		.cfi_def_cfa_offset 8
 975 002c BD46     		mov	sp, r7
 976              	.LCFI29:
 977              		.cfi_def_cfa_register 13
 978              		@ sp needed
 979 002e 80BD     		pop	{r7, pc}
 980              		.cfi_endproc
 981              	.LFE18:
 983              		.section	.rodata
 984 05b5 000000   		.align	2
 985              	.LC108:
 986 05b8 2A864886 		.ascii	"*\206H\206\367\015\001\001\004\000"
 986      F70D0101 
 986      0400
 987 05c2 0000     		.align	2
 988              	.LC109:
 989 05c4 6D643557 		.ascii	"md5WithRSAEncryption\000"
 989      69746852 
 989      5341456E 
 989      63727970 
 989      74696F6E 
 990 05d9 000000   		.align	2
 991              	.LC110:
 992 05dc 52534120 		.ascii	"RSA with MD5\000"
 992      77697468 
 992      204D4435 
 992      00
 993 05e9 000000   		.align	2
 994              	.LC111:
 995 05ec 2A864886 		.ascii	"*\206H\206\367\015\001\001\005\000"
 995      F70D0101 
 995      0500
 996 05f6 0000     		.align	2
 997              	.LC112:
 998 05f8 7368612D 		.ascii	"sha-1WithRSAEncryption\000"
 998      31576974 
 998      68525341 
 998      456E6372 
 998      79707469 
 999 060f 00       		.align	2
 1000              	.LC113:
 1001 0610 52534120 		.ascii	"RSA with SHA1\000"
 1001      77697468 
ARM GAS  C:\Users\dtjld\AppData\Local\Temp\ccSrLLKC.s 			page 28


 1001      20534841 
 1001      3100
 1002 061e 0000     		.align	2
 1003              	.LC114:
 1004 0620 2A864886 		.ascii	"*\206H\206\367\015\001\001\016\000"
 1004      F70D0101 
 1004      0E00
 1005 062a 0000     		.align	2
 1006              	.LC115:
 1007 062c 73686132 		.ascii	"sha224WithRSAEncryption\000"
 1007      32345769 
 1007      74685253 
 1007      41456E63 
 1007      72797074 
 1008              		.align	2
 1009              	.LC116:
 1010 0644 52534120 		.ascii	"RSA with SHA-224\000"
 1010      77697468 
 1010      20534841 
 1010      2D323234 
 1010      00
 1011 0655 000000   		.align	2
 1012              	.LC117:
 1013 0658 2A864886 		.ascii	"*\206H\206\367\015\001\001\013\000"
 1013      F70D0101 
 1013      0B00
 1014 0662 0000     		.align	2
 1015              	.LC118:
 1016 0664 73686132 		.ascii	"sha256WithRSAEncryption\000"
 1016      35365769 
 1016      74685253 
 1016      41456E63 
 1016      72797074 
 1017              		.align	2
 1018              	.LC119:
 1019 067c 52534120 		.ascii	"RSA with SHA-256\000"
 1019      77697468 
 1019      20534841 
 1019      2D323536 
 1019      00
 1020 068d 000000   		.align	2
 1021              	.LC120:
 1022 0690 2A864886 		.ascii	"*\206H\206\367\015\001\001\014\000"
 1022      F70D0101 
 1022      0C00
 1023 069a 0000     		.align	2
 1024              	.LC121:
 1025 069c 73686133 		.ascii	"sha384WithRSAEncryption\000"
 1025      38345769 
 1025      74685253 
 1025      41456E63 
 1025      72797074 
 1026              		.align	2
 1027              	.LC122:
 1028 06b4 52534120 		.ascii	"RSA with SHA-384\000"
 1028      77697468 
 1028      20534841 
ARM GAS  C:\Users\dtjld\AppData\Local\Temp\ccSrLLKC.s 			page 29


 1028      2D333834 
 1028      00
 1029 06c5 000000   		.align	2
 1030              	.LC123:
 1031 06c8 2A864886 		.ascii	"*\206H\206\367\015\001\001\015\000"
 1031      F70D0101 
 1031      0D00
 1032 06d2 0000     		.align	2
 1033              	.LC124:
 1034 06d4 73686135 		.ascii	"sha512WithRSAEncryption\000"
 1034      31325769 
 1034      74685253 
 1034      41456E63 
 1034      72797074 
 1035              		.align	2
 1036              	.LC125:
 1037 06ec 52534120 		.ascii	"RSA with SHA-512\000"
 1037      77697468 
 1037      20534841 
 1037      2D353132 
 1037      00
 1038 06fd 000000   		.align	2
 1039              	.LC126:
 1040 0700 2B0E0302 		.ascii	"+\016\003\002\035\000"
 1040      1D00
 1041 0706 0000     		.align	2
 1042              	.LC127:
 1043 0708 2A8648CE 		.ascii	"*\206H\316=\004\001\000"
 1043      3D040100 
 1044              		.align	2
 1045              	.LC128:
 1046 0710 65636473 		.ascii	"ecdsa-with-SHA1\000"
 1046      612D7769 
 1046      74682D53 
 1046      48413100 
 1047              		.align	2
 1048              	.LC129:
 1049 0720 45434453 		.ascii	"ECDSA with SHA1\000"
 1049      41207769 
 1049      74682053 
 1049      48413100 
 1050              		.align	2
 1051              	.LC130:
 1052 0730 2A8648CE 		.ascii	"*\206H\316=\004\003\001\000"
 1052      3D040301 
 1052      00
 1053 0739 000000   		.align	2
 1054              	.LC131:
 1055 073c 65636473 		.ascii	"ecdsa-with-SHA224\000"
 1055      612D7769 
 1055      74682D53 
 1055      48413232 
 1055      3400
 1056 074e 0000     		.align	2
 1057              	.LC132:
 1058 0750 45434453 		.ascii	"ECDSA with SHA224\000"
 1058      41207769 
ARM GAS  C:\Users\dtjld\AppData\Local\Temp\ccSrLLKC.s 			page 30


 1058      74682053 
 1058      48413232 
 1058      3400
 1059 0762 0000     		.align	2
 1060              	.LC133:
 1061 0764 2A8648CE 		.ascii	"*\206H\316=\004\003\002\000"
 1061      3D040302 
 1061      00
 1062 076d 000000   		.align	2
 1063              	.LC134:
 1064 0770 65636473 		.ascii	"ecdsa-with-SHA256\000"
 1064      612D7769 
 1064      74682D53 
 1064      48413235 
 1064      3600
 1065 0782 0000     		.align	2
 1066              	.LC135:
 1067 0784 45434453 		.ascii	"ECDSA with SHA256\000"
 1067      41207769 
 1067      74682053 
 1067      48413235 
 1067      3600
 1068 0796 0000     		.align	2
 1069              	.LC136:
 1070 0798 2A8648CE 		.ascii	"*\206H\316=\004\003\003\000"
 1070      3D040303 
 1070      00
 1071 07a1 000000   		.align	2
 1072              	.LC137:
 1073 07a4 65636473 		.ascii	"ecdsa-with-SHA384\000"
 1073      612D7769 
 1073      74682D53 
 1073      48413338 
 1073      3400
 1074 07b6 0000     		.align	2
 1075              	.LC138:
 1076 07b8 45434453 		.ascii	"ECDSA with SHA384\000"
 1076      41207769 
 1076      74682053 
 1076      48413338 
 1076      3400
 1077 07ca 0000     		.align	2
 1078              	.LC139:
 1079 07cc 2A8648CE 		.ascii	"*\206H\316=\004\003\004\000"
 1079      3D040304 
 1079      00
 1080 07d5 000000   		.align	2
 1081              	.LC140:
 1082 07d8 65636473 		.ascii	"ecdsa-with-SHA512\000"
 1082      612D7769 
 1082      74682D53 
 1082      48413531 
 1082      3200
 1083 07ea 0000     		.align	2
 1084              	.LC141:
 1085 07ec 45434453 		.ascii	"ECDSA with SHA512\000"
 1085      41207769 
ARM GAS  C:\Users\dtjld\AppData\Local\Temp\ccSrLLKC.s 			page 31


 1085      74682053 
 1085      48413531 
 1085      3200
 1086 07fe 0000     		.align	2
 1087              	.LC142:
 1088 0800 2A864886 		.ascii	"*\206H\206\367\015\001\001\012\000"
 1088      F70D0101 
 1088      0A00
 1089 080a 0000     		.align	2
 1090              	.LC143:
 1091 080c 52534153 		.ascii	"RSASSA-PSS\000"
 1091      53412D50 
 1091      535300
 1092              		.section	.rodata.oid_sig_alg,"a",%progbits
 1093              		.align	2
 1096              	oid_sig_alg:
 1097 0000 B8050000 		.word	.LC108
 1098 0004 09000000 		.word	9
 1099 0008 C4050000 		.word	.LC109
 1100 000c DC050000 		.word	.LC110
 1101 0010 03       		.byte	3
 1102 0011 01       		.byte	1
 1103 0012 0000     		.space	2
 1104 0014 EC050000 		.word	.LC111
 1105 0018 09000000 		.word	9
 1106 001c F8050000 		.word	.LC112
 1107 0020 10060000 		.word	.LC113
 1108 0024 04       		.byte	4
 1109 0025 01       		.byte	1
 1110 0026 0000     		.space	2
 1111 0028 20060000 		.word	.LC114
 1112 002c 09000000 		.word	9
 1113 0030 2C060000 		.word	.LC115
 1114 0034 44060000 		.word	.LC116
 1115 0038 05       		.byte	5
 1116 0039 01       		.byte	1
 1117 003a 0000     		.space	2
 1118 003c 58060000 		.word	.LC117
 1119 0040 09000000 		.word	9
 1120 0044 64060000 		.word	.LC118
 1121 0048 7C060000 		.word	.LC119
 1122 004c 06       		.byte	6
 1123 004d 01       		.byte	1
 1124 004e 0000     		.space	2
 1125 0050 90060000 		.word	.LC120
 1126 0054 09000000 		.word	9
 1127 0058 9C060000 		.word	.LC121
 1128 005c B4060000 		.word	.LC122
 1129 0060 07       		.byte	7
 1130 0061 01       		.byte	1
 1131 0062 0000     		.space	2
 1132 0064 C8060000 		.word	.LC123
 1133 0068 09000000 		.word	9
 1134 006c D4060000 		.word	.LC124
 1135 0070 EC060000 		.word	.LC125
 1136 0074 08       		.byte	8
 1137 0075 01       		.byte	1
ARM GAS  C:\Users\dtjld\AppData\Local\Temp\ccSrLLKC.s 			page 32


 1138 0076 0000     		.space	2
 1139 0078 00070000 		.word	.LC126
 1140 007c 05000000 		.word	5
 1141 0080 F8050000 		.word	.LC112
 1142 0084 10060000 		.word	.LC113
 1143 0088 04       		.byte	4
 1144 0089 01       		.byte	1
 1145 008a 0000     		.space	2
 1146 008c 08070000 		.word	.LC127
 1147 0090 07000000 		.word	7
 1148 0094 10070000 		.word	.LC128
 1149 0098 20070000 		.word	.LC129
 1150 009c 04       		.byte	4
 1151 009d 04       		.byte	4
 1152 009e 0000     		.space	2
 1153 00a0 30070000 		.word	.LC130
 1154 00a4 08000000 		.word	8
 1155 00a8 3C070000 		.word	.LC131
 1156 00ac 50070000 		.word	.LC132
 1157 00b0 05       		.byte	5
 1158 00b1 04       		.byte	4
 1159 00b2 0000     		.space	2
 1160 00b4 64070000 		.word	.LC133
 1161 00b8 08000000 		.word	8
 1162 00bc 70070000 		.word	.LC134
 1163 00c0 84070000 		.word	.LC135
 1164 00c4 06       		.byte	6
 1165 00c5 04       		.byte	4
 1166 00c6 0000     		.space	2
 1167 00c8 98070000 		.word	.LC136
 1168 00cc 08000000 		.word	8
 1169 00d0 A4070000 		.word	.LC137
 1170 00d4 B8070000 		.word	.LC138
 1171 00d8 07       		.byte	7
 1172 00d9 04       		.byte	4
 1173 00da 0000     		.space	2
 1174 00dc CC070000 		.word	.LC139
 1175 00e0 08000000 		.word	8
 1176 00e4 D8070000 		.word	.LC140
 1177 00e8 EC070000 		.word	.LC141
 1178 00ec 08       		.byte	8
 1179 00ed 04       		.byte	4
 1180 00ee 0000     		.space	2
 1181 00f0 00080000 		.word	.LC142
 1182 00f4 09000000 		.word	9
 1183 00f8 0C080000 		.word	.LC143
 1184 00fc 0C080000 		.word	.LC143
 1185 0100 00       		.byte	0
 1186 0101 06       		.byte	6
 1187 0102 0000     		.space	2
 1188 0104 00000000 		.word	0
 1189 0108 00000000 		.word	0
 1190 010c 00000000 		.word	0
 1191 0110 00000000 		.word	0
 1192 0114 00       		.byte	0
 1193 0115 00       		.byte	0
 1194 0116 0000     		.space	2
ARM GAS  C:\Users\dtjld\AppData\Local\Temp\ccSrLLKC.s 			page 33


 1195              		.section	.text.oid_sig_alg_from_asn1,"ax",%progbits
 1196              		.align	1
 1197              		.syntax unified
 1198              		.thumb
 1199              		.thumb_func
 1200              		.fpu fpv4-sp-d16
 1202              	oid_sig_alg_from_asn1:
 1203              	.LFB19:
 306:C:/Users/dtjld/workspace/AIoT/src/LiteOS_Lab/iot_link/network/dtls/mbedtls/mbedtls-2.16.2/library\oid.c **** #endif /* MBEDTLS_X509_USE_C || MBEDTLS_X509_CREATE_C */
 307:C:/Users/dtjld/workspace/AIoT/src/LiteOS_Lab/iot_link/network/dtls/mbedtls/mbedtls-2.16.2/library\oid.c **** 
 308:C:/Users/dtjld/workspace/AIoT/src/LiteOS_Lab/iot_link/network/dtls/mbedtls/mbedtls-2.16.2/library\oid.c **** #if defined(MBEDTLS_MD_C)
 309:C:/Users/dtjld/workspace/AIoT/src/LiteOS_Lab/iot_link/network/dtls/mbedtls/mbedtls-2.16.2/library\oid.c **** /*
 310:C:/Users/dtjld/workspace/AIoT/src/LiteOS_Lab/iot_link/network/dtls/mbedtls/mbedtls-2.16.2/library\oid.c ****  * For SignatureAlgorithmIdentifier
 311:C:/Users/dtjld/workspace/AIoT/src/LiteOS_Lab/iot_link/network/dtls/mbedtls/mbedtls-2.16.2/library\oid.c ****  */
 312:C:/Users/dtjld/workspace/AIoT/src/LiteOS_Lab/iot_link/network/dtls/mbedtls/mbedtls-2.16.2/library\oid.c **** typedef struct {
 313:C:/Users/dtjld/workspace/AIoT/src/LiteOS_Lab/iot_link/network/dtls/mbedtls/mbedtls-2.16.2/library\oid.c ****     mbedtls_oid_descriptor_t    descriptor;
 314:C:/Users/dtjld/workspace/AIoT/src/LiteOS_Lab/iot_link/network/dtls/mbedtls/mbedtls-2.16.2/library\oid.c ****     mbedtls_md_type_t           md_alg;
 315:C:/Users/dtjld/workspace/AIoT/src/LiteOS_Lab/iot_link/network/dtls/mbedtls/mbedtls-2.16.2/library\oid.c ****     mbedtls_pk_type_t           pk_alg;
 316:C:/Users/dtjld/workspace/AIoT/src/LiteOS_Lab/iot_link/network/dtls/mbedtls/mbedtls-2.16.2/library\oid.c **** } oid_sig_alg_t;
 317:C:/Users/dtjld/workspace/AIoT/src/LiteOS_Lab/iot_link/network/dtls/mbedtls/mbedtls-2.16.2/library\oid.c **** 
 318:C:/Users/dtjld/workspace/AIoT/src/LiteOS_Lab/iot_link/network/dtls/mbedtls/mbedtls-2.16.2/library\oid.c **** static const oid_sig_alg_t oid_sig_alg[] =
 319:C:/Users/dtjld/workspace/AIoT/src/LiteOS_Lab/iot_link/network/dtls/mbedtls/mbedtls-2.16.2/library\oid.c **** {
 320:C:/Users/dtjld/workspace/AIoT/src/LiteOS_Lab/iot_link/network/dtls/mbedtls/mbedtls-2.16.2/library\oid.c **** #if defined(MBEDTLS_RSA_C)
 321:C:/Users/dtjld/workspace/AIoT/src/LiteOS_Lab/iot_link/network/dtls/mbedtls/mbedtls-2.16.2/library\oid.c **** #if defined(MBEDTLS_MD2_C)
 322:C:/Users/dtjld/workspace/AIoT/src/LiteOS_Lab/iot_link/network/dtls/mbedtls/mbedtls-2.16.2/library\oid.c ****     {
 323:C:/Users/dtjld/workspace/AIoT/src/LiteOS_Lab/iot_link/network/dtls/mbedtls/mbedtls-2.16.2/library\oid.c ****         { ADD_LEN( MBEDTLS_OID_PKCS1_MD2 ),        "md2WithRSAEncryption",     "RSA with MD2" },
 324:C:/Users/dtjld/workspace/AIoT/src/LiteOS_Lab/iot_link/network/dtls/mbedtls/mbedtls-2.16.2/library\oid.c ****         MBEDTLS_MD_MD2,      MBEDTLS_PK_RSA,
 325:C:/Users/dtjld/workspace/AIoT/src/LiteOS_Lab/iot_link/network/dtls/mbedtls/mbedtls-2.16.2/library\oid.c ****     },
 326:C:/Users/dtjld/workspace/AIoT/src/LiteOS_Lab/iot_link/network/dtls/mbedtls/mbedtls-2.16.2/library\oid.c **** #endif /* MBEDTLS_MD2_C */
 327:C:/Users/dtjld/workspace/AIoT/src/LiteOS_Lab/iot_link/network/dtls/mbedtls/mbedtls-2.16.2/library\oid.c **** #if defined(MBEDTLS_MD4_C)
 328:C:/Users/dtjld/workspace/AIoT/src/LiteOS_Lab/iot_link/network/dtls/mbedtls/mbedtls-2.16.2/library\oid.c ****     {
 329:C:/Users/dtjld/workspace/AIoT/src/LiteOS_Lab/iot_link/network/dtls/mbedtls/mbedtls-2.16.2/library\oid.c ****         { ADD_LEN( MBEDTLS_OID_PKCS1_MD4 ),        "md4WithRSAEncryption",     "RSA with MD4" },
 330:C:/Users/dtjld/workspace/AIoT/src/LiteOS_Lab/iot_link/network/dtls/mbedtls/mbedtls-2.16.2/library\oid.c ****         MBEDTLS_MD_MD4,      MBEDTLS_PK_RSA,
 331:C:/Users/dtjld/workspace/AIoT/src/LiteOS_Lab/iot_link/network/dtls/mbedtls/mbedtls-2.16.2/library\oid.c ****     },
 332:C:/Users/dtjld/workspace/AIoT/src/LiteOS_Lab/iot_link/network/dtls/mbedtls/mbedtls-2.16.2/library\oid.c **** #endif /* MBEDTLS_MD4_C */
 333:C:/Users/dtjld/workspace/AIoT/src/LiteOS_Lab/iot_link/network/dtls/mbedtls/mbedtls-2.16.2/library\oid.c **** #if defined(MBEDTLS_MD5_C)
 334:C:/Users/dtjld/workspace/AIoT/src/LiteOS_Lab/iot_link/network/dtls/mbedtls/mbedtls-2.16.2/library\oid.c ****     {
 335:C:/Users/dtjld/workspace/AIoT/src/LiteOS_Lab/iot_link/network/dtls/mbedtls/mbedtls-2.16.2/library\oid.c ****         { ADD_LEN( MBEDTLS_OID_PKCS1_MD5 ),        "md5WithRSAEncryption",     "RSA with MD5" },
 336:C:/Users/dtjld/workspace/AIoT/src/LiteOS_Lab/iot_link/network/dtls/mbedtls/mbedtls-2.16.2/library\oid.c ****         MBEDTLS_MD_MD5,      MBEDTLS_PK_RSA,
 337:C:/Users/dtjld/workspace/AIoT/src/LiteOS_Lab/iot_link/network/dtls/mbedtls/mbedtls-2.16.2/library\oid.c ****     },
 338:C:/Users/dtjld/workspace/AIoT/src/LiteOS_Lab/iot_link/network/dtls/mbedtls/mbedtls-2.16.2/library\oid.c **** #endif /* MBEDTLS_MD5_C */
 339:C:/Users/dtjld/workspace/AIoT/src/LiteOS_Lab/iot_link/network/dtls/mbedtls/mbedtls-2.16.2/library\oid.c **** #if defined(MBEDTLS_SHA1_C)
 340:C:/Users/dtjld/workspace/AIoT/src/LiteOS_Lab/iot_link/network/dtls/mbedtls/mbedtls-2.16.2/library\oid.c ****     {
 341:C:/Users/dtjld/workspace/AIoT/src/LiteOS_Lab/iot_link/network/dtls/mbedtls/mbedtls-2.16.2/library\oid.c ****         { ADD_LEN( MBEDTLS_OID_PKCS1_SHA1 ),       "sha-1WithRSAEncryption",   "RSA with SHA1" },
 342:C:/Users/dtjld/workspace/AIoT/src/LiteOS_Lab/iot_link/network/dtls/mbedtls/mbedtls-2.16.2/library\oid.c ****         MBEDTLS_MD_SHA1,     MBEDTLS_PK_RSA,
 343:C:/Users/dtjld/workspace/AIoT/src/LiteOS_Lab/iot_link/network/dtls/mbedtls/mbedtls-2.16.2/library\oid.c ****     },
 344:C:/Users/dtjld/workspace/AIoT/src/LiteOS_Lab/iot_link/network/dtls/mbedtls/mbedtls-2.16.2/library\oid.c **** #endif /* MBEDTLS_SHA1_C */
 345:C:/Users/dtjld/workspace/AIoT/src/LiteOS_Lab/iot_link/network/dtls/mbedtls/mbedtls-2.16.2/library\oid.c **** #if defined(MBEDTLS_SHA256_C)
 346:C:/Users/dtjld/workspace/AIoT/src/LiteOS_Lab/iot_link/network/dtls/mbedtls/mbedtls-2.16.2/library\oid.c ****     {
 347:C:/Users/dtjld/workspace/AIoT/src/LiteOS_Lab/iot_link/network/dtls/mbedtls/mbedtls-2.16.2/library\oid.c ****         { ADD_LEN( MBEDTLS_OID_PKCS1_SHA224 ),     "sha224WithRSAEncryption",  "RSA with SHA-224" }
 348:C:/Users/dtjld/workspace/AIoT/src/LiteOS_Lab/iot_link/network/dtls/mbedtls/mbedtls-2.16.2/library\oid.c ****         MBEDTLS_MD_SHA224,   MBEDTLS_PK_RSA,
 349:C:/Users/dtjld/workspace/AIoT/src/LiteOS_Lab/iot_link/network/dtls/mbedtls/mbedtls-2.16.2/library\oid.c ****     },
 350:C:/Users/dtjld/workspace/AIoT/src/LiteOS_Lab/iot_link/network/dtls/mbedtls/mbedtls-2.16.2/library\oid.c ****     {
 351:C:/Users/dtjld/workspace/AIoT/src/LiteOS_Lab/iot_link/network/dtls/mbedtls/mbedtls-2.16.2/library\oid.c ****         { ADD_LEN( MBEDTLS_OID_PKCS1_SHA256 ),     "sha256WithRSAEncryption",  "RSA with SHA-256" }
 352:C:/Users/dtjld/workspace/AIoT/src/LiteOS_Lab/iot_link/network/dtls/mbedtls/mbedtls-2.16.2/library\oid.c ****         MBEDTLS_MD_SHA256,   MBEDTLS_PK_RSA,
 353:C:/Users/dtjld/workspace/AIoT/src/LiteOS_Lab/iot_link/network/dtls/mbedtls/mbedtls-2.16.2/library\oid.c ****     },
 354:C:/Users/dtjld/workspace/AIoT/src/LiteOS_Lab/iot_link/network/dtls/mbedtls/mbedtls-2.16.2/library\oid.c **** #endif /* MBEDTLS_SHA256_C */
ARM GAS  C:\Users\dtjld\AppData\Local\Temp\ccSrLLKC.s 			page 34


 355:C:/Users/dtjld/workspace/AIoT/src/LiteOS_Lab/iot_link/network/dtls/mbedtls/mbedtls-2.16.2/library\oid.c **** #if defined(MBEDTLS_SHA512_C)
 356:C:/Users/dtjld/workspace/AIoT/src/LiteOS_Lab/iot_link/network/dtls/mbedtls/mbedtls-2.16.2/library\oid.c ****     {
 357:C:/Users/dtjld/workspace/AIoT/src/LiteOS_Lab/iot_link/network/dtls/mbedtls/mbedtls-2.16.2/library\oid.c ****         { ADD_LEN( MBEDTLS_OID_PKCS1_SHA384 ),     "sha384WithRSAEncryption",  "RSA with SHA-384" }
 358:C:/Users/dtjld/workspace/AIoT/src/LiteOS_Lab/iot_link/network/dtls/mbedtls/mbedtls-2.16.2/library\oid.c ****         MBEDTLS_MD_SHA384,   MBEDTLS_PK_RSA,
 359:C:/Users/dtjld/workspace/AIoT/src/LiteOS_Lab/iot_link/network/dtls/mbedtls/mbedtls-2.16.2/library\oid.c ****     },
 360:C:/Users/dtjld/workspace/AIoT/src/LiteOS_Lab/iot_link/network/dtls/mbedtls/mbedtls-2.16.2/library\oid.c ****     {
 361:C:/Users/dtjld/workspace/AIoT/src/LiteOS_Lab/iot_link/network/dtls/mbedtls/mbedtls-2.16.2/library\oid.c ****         { ADD_LEN( MBEDTLS_OID_PKCS1_SHA512 ),     "sha512WithRSAEncryption",  "RSA with SHA-512" }
 362:C:/Users/dtjld/workspace/AIoT/src/LiteOS_Lab/iot_link/network/dtls/mbedtls/mbedtls-2.16.2/library\oid.c ****         MBEDTLS_MD_SHA512,   MBEDTLS_PK_RSA,
 363:C:/Users/dtjld/workspace/AIoT/src/LiteOS_Lab/iot_link/network/dtls/mbedtls/mbedtls-2.16.2/library\oid.c ****     },
 364:C:/Users/dtjld/workspace/AIoT/src/LiteOS_Lab/iot_link/network/dtls/mbedtls/mbedtls-2.16.2/library\oid.c **** #endif /* MBEDTLS_SHA512_C */
 365:C:/Users/dtjld/workspace/AIoT/src/LiteOS_Lab/iot_link/network/dtls/mbedtls/mbedtls-2.16.2/library\oid.c **** #if defined(MBEDTLS_SHA1_C)
 366:C:/Users/dtjld/workspace/AIoT/src/LiteOS_Lab/iot_link/network/dtls/mbedtls/mbedtls-2.16.2/library\oid.c ****     {
 367:C:/Users/dtjld/workspace/AIoT/src/LiteOS_Lab/iot_link/network/dtls/mbedtls/mbedtls-2.16.2/library\oid.c ****         { ADD_LEN( MBEDTLS_OID_RSA_SHA_OBS ),      "sha-1WithRSAEncryption",   "RSA with SHA1" },
 368:C:/Users/dtjld/workspace/AIoT/src/LiteOS_Lab/iot_link/network/dtls/mbedtls/mbedtls-2.16.2/library\oid.c ****         MBEDTLS_MD_SHA1,     MBEDTLS_PK_RSA,
 369:C:/Users/dtjld/workspace/AIoT/src/LiteOS_Lab/iot_link/network/dtls/mbedtls/mbedtls-2.16.2/library\oid.c ****     },
 370:C:/Users/dtjld/workspace/AIoT/src/LiteOS_Lab/iot_link/network/dtls/mbedtls/mbedtls-2.16.2/library\oid.c **** #endif /* MBEDTLS_SHA1_C */
 371:C:/Users/dtjld/workspace/AIoT/src/LiteOS_Lab/iot_link/network/dtls/mbedtls/mbedtls-2.16.2/library\oid.c **** #endif /* MBEDTLS_RSA_C */
 372:C:/Users/dtjld/workspace/AIoT/src/LiteOS_Lab/iot_link/network/dtls/mbedtls/mbedtls-2.16.2/library\oid.c **** #if defined(MBEDTLS_ECDSA_C)
 373:C:/Users/dtjld/workspace/AIoT/src/LiteOS_Lab/iot_link/network/dtls/mbedtls/mbedtls-2.16.2/library\oid.c **** #if defined(MBEDTLS_SHA1_C)
 374:C:/Users/dtjld/workspace/AIoT/src/LiteOS_Lab/iot_link/network/dtls/mbedtls/mbedtls-2.16.2/library\oid.c ****     {
 375:C:/Users/dtjld/workspace/AIoT/src/LiteOS_Lab/iot_link/network/dtls/mbedtls/mbedtls-2.16.2/library\oid.c ****         { ADD_LEN( MBEDTLS_OID_ECDSA_SHA1 ),       "ecdsa-with-SHA1",      "ECDSA with SHA1" },
 376:C:/Users/dtjld/workspace/AIoT/src/LiteOS_Lab/iot_link/network/dtls/mbedtls/mbedtls-2.16.2/library\oid.c ****         MBEDTLS_MD_SHA1,     MBEDTLS_PK_ECDSA,
 377:C:/Users/dtjld/workspace/AIoT/src/LiteOS_Lab/iot_link/network/dtls/mbedtls/mbedtls-2.16.2/library\oid.c ****     },
 378:C:/Users/dtjld/workspace/AIoT/src/LiteOS_Lab/iot_link/network/dtls/mbedtls/mbedtls-2.16.2/library\oid.c **** #endif /* MBEDTLS_SHA1_C */
 379:C:/Users/dtjld/workspace/AIoT/src/LiteOS_Lab/iot_link/network/dtls/mbedtls/mbedtls-2.16.2/library\oid.c **** #if defined(MBEDTLS_SHA256_C)
 380:C:/Users/dtjld/workspace/AIoT/src/LiteOS_Lab/iot_link/network/dtls/mbedtls/mbedtls-2.16.2/library\oid.c ****     {
 381:C:/Users/dtjld/workspace/AIoT/src/LiteOS_Lab/iot_link/network/dtls/mbedtls/mbedtls-2.16.2/library\oid.c ****         { ADD_LEN( MBEDTLS_OID_ECDSA_SHA224 ),     "ecdsa-with-SHA224",    "ECDSA with SHA224" },
 382:C:/Users/dtjld/workspace/AIoT/src/LiteOS_Lab/iot_link/network/dtls/mbedtls/mbedtls-2.16.2/library\oid.c ****         MBEDTLS_MD_SHA224,   MBEDTLS_PK_ECDSA,
 383:C:/Users/dtjld/workspace/AIoT/src/LiteOS_Lab/iot_link/network/dtls/mbedtls/mbedtls-2.16.2/library\oid.c ****     },
 384:C:/Users/dtjld/workspace/AIoT/src/LiteOS_Lab/iot_link/network/dtls/mbedtls/mbedtls-2.16.2/library\oid.c ****     {
 385:C:/Users/dtjld/workspace/AIoT/src/LiteOS_Lab/iot_link/network/dtls/mbedtls/mbedtls-2.16.2/library\oid.c ****         { ADD_LEN( MBEDTLS_OID_ECDSA_SHA256 ),     "ecdsa-with-SHA256",    "ECDSA with SHA256" },
 386:C:/Users/dtjld/workspace/AIoT/src/LiteOS_Lab/iot_link/network/dtls/mbedtls/mbedtls-2.16.2/library\oid.c ****         MBEDTLS_MD_SHA256,   MBEDTLS_PK_ECDSA,
 387:C:/Users/dtjld/workspace/AIoT/src/LiteOS_Lab/iot_link/network/dtls/mbedtls/mbedtls-2.16.2/library\oid.c ****     },
 388:C:/Users/dtjld/workspace/AIoT/src/LiteOS_Lab/iot_link/network/dtls/mbedtls/mbedtls-2.16.2/library\oid.c **** #endif /* MBEDTLS_SHA256_C */
 389:C:/Users/dtjld/workspace/AIoT/src/LiteOS_Lab/iot_link/network/dtls/mbedtls/mbedtls-2.16.2/library\oid.c **** #if defined(MBEDTLS_SHA512_C)
 390:C:/Users/dtjld/workspace/AIoT/src/LiteOS_Lab/iot_link/network/dtls/mbedtls/mbedtls-2.16.2/library\oid.c ****     {
 391:C:/Users/dtjld/workspace/AIoT/src/LiteOS_Lab/iot_link/network/dtls/mbedtls/mbedtls-2.16.2/library\oid.c ****         { ADD_LEN( MBEDTLS_OID_ECDSA_SHA384 ),     "ecdsa-with-SHA384",    "ECDSA with SHA384" },
 392:C:/Users/dtjld/workspace/AIoT/src/LiteOS_Lab/iot_link/network/dtls/mbedtls/mbedtls-2.16.2/library\oid.c ****         MBEDTLS_MD_SHA384,   MBEDTLS_PK_ECDSA,
 393:C:/Users/dtjld/workspace/AIoT/src/LiteOS_Lab/iot_link/network/dtls/mbedtls/mbedtls-2.16.2/library\oid.c ****     },
 394:C:/Users/dtjld/workspace/AIoT/src/LiteOS_Lab/iot_link/network/dtls/mbedtls/mbedtls-2.16.2/library\oid.c ****     {
 395:C:/Users/dtjld/workspace/AIoT/src/LiteOS_Lab/iot_link/network/dtls/mbedtls/mbedtls-2.16.2/library\oid.c ****         { ADD_LEN( MBEDTLS_OID_ECDSA_SHA512 ),     "ecdsa-with-SHA512",    "ECDSA with SHA512" },
 396:C:/Users/dtjld/workspace/AIoT/src/LiteOS_Lab/iot_link/network/dtls/mbedtls/mbedtls-2.16.2/library\oid.c ****         MBEDTLS_MD_SHA512,   MBEDTLS_PK_ECDSA,
 397:C:/Users/dtjld/workspace/AIoT/src/LiteOS_Lab/iot_link/network/dtls/mbedtls/mbedtls-2.16.2/library\oid.c ****     },
 398:C:/Users/dtjld/workspace/AIoT/src/LiteOS_Lab/iot_link/network/dtls/mbedtls/mbedtls-2.16.2/library\oid.c **** #endif /* MBEDTLS_SHA512_C */
 399:C:/Users/dtjld/workspace/AIoT/src/LiteOS_Lab/iot_link/network/dtls/mbedtls/mbedtls-2.16.2/library\oid.c **** #endif /* MBEDTLS_ECDSA_C */
 400:C:/Users/dtjld/workspace/AIoT/src/LiteOS_Lab/iot_link/network/dtls/mbedtls/mbedtls-2.16.2/library\oid.c **** #if defined(MBEDTLS_RSA_C)
 401:C:/Users/dtjld/workspace/AIoT/src/LiteOS_Lab/iot_link/network/dtls/mbedtls/mbedtls-2.16.2/library\oid.c ****     {
 402:C:/Users/dtjld/workspace/AIoT/src/LiteOS_Lab/iot_link/network/dtls/mbedtls/mbedtls-2.16.2/library\oid.c ****         { ADD_LEN( MBEDTLS_OID_RSASSA_PSS ),        "RSASSA-PSS",           "RSASSA-PSS" },
 403:C:/Users/dtjld/workspace/AIoT/src/LiteOS_Lab/iot_link/network/dtls/mbedtls/mbedtls-2.16.2/library\oid.c ****         MBEDTLS_MD_NONE,     MBEDTLS_PK_RSASSA_PSS,
 404:C:/Users/dtjld/workspace/AIoT/src/LiteOS_Lab/iot_link/network/dtls/mbedtls/mbedtls-2.16.2/library\oid.c ****     },
 405:C:/Users/dtjld/workspace/AIoT/src/LiteOS_Lab/iot_link/network/dtls/mbedtls/mbedtls-2.16.2/library\oid.c **** #endif /* MBEDTLS_RSA_C */
 406:C:/Users/dtjld/workspace/AIoT/src/LiteOS_Lab/iot_link/network/dtls/mbedtls/mbedtls-2.16.2/library\oid.c ****     {
 407:C:/Users/dtjld/workspace/AIoT/src/LiteOS_Lab/iot_link/network/dtls/mbedtls/mbedtls-2.16.2/library\oid.c ****         { NULL, 0, NULL, NULL },
 408:C:/Users/dtjld/workspace/AIoT/src/LiteOS_Lab/iot_link/network/dtls/mbedtls/mbedtls-2.16.2/library\oid.c ****         MBEDTLS_MD_NONE, MBEDTLS_PK_NONE,
 409:C:/Users/dtjld/workspace/AIoT/src/LiteOS_Lab/iot_link/network/dtls/mbedtls/mbedtls-2.16.2/library\oid.c ****     },
 410:C:/Users/dtjld/workspace/AIoT/src/LiteOS_Lab/iot_link/network/dtls/mbedtls/mbedtls-2.16.2/library\oid.c **** };
 411:C:/Users/dtjld/workspace/AIoT/src/LiteOS_Lab/iot_link/network/dtls/mbedtls/mbedtls-2.16.2/library\oid.c **** 
ARM GAS  C:\Users\dtjld\AppData\Local\Temp\ccSrLLKC.s 			page 35


 412:C:/Users/dtjld/workspace/AIoT/src/LiteOS_Lab/iot_link/network/dtls/mbedtls/mbedtls-2.16.2/library\oid.c **** FN_OID_TYPED_FROM_ASN1(oid_sig_alg_t, sig_alg, oid_sig_alg)
 1204              		.loc 1 412 0 is_stmt 1
 1205              		.cfi_startproc
 1206              		@ args = 0, pretend = 0, frame = 16
 1207              		@ frame_needed = 1, uses_anonymous_args = 0
 1208 0000 80B5     		push	{r7, lr}
 1209              	.LCFI30:
 1210              		.cfi_def_cfa_offset 8
 1211              		.cfi_offset 7, -8
 1212              		.cfi_offset 14, -4
 1213 0002 84B0     		sub	sp, sp, #16
 1214              	.LCFI31:
 1215              		.cfi_def_cfa_offset 24
 1216 0004 00AF     		add	r7, sp, #0
 1217              	.LCFI32:
 1218              		.cfi_def_cfa_register 7
 1219 0006 7860     		str	r0, [r7, #4]
 1220              		.loc 1 412 0
 1221 0008 164B     		ldr	r3, .L44
 1222 000a FB60     		str	r3, [r7, #12]
 1223 000c FB68     		ldr	r3, [r7, #12]
 1224 000e BB60     		str	r3, [r7, #8]
 1225 0010 FB68     		ldr	r3, [r7, #12]
 1226 0012 002B     		cmp	r3, #0
 1227 0014 02D0     		beq	.L38
 1228              		.loc 1 412 0 is_stmt 0 discriminator 2
 1229 0016 7B68     		ldr	r3, [r7, #4]
 1230 0018 002B     		cmp	r3, #0
 1231 001a 1AD1     		bne	.L41
 1232              	.L38:
 1233              		.loc 1 412 0 discriminator 3
 1234 001c 0023     		movs	r3, #0
 1235 001e 1DE0     		b	.L40
 1236              	.L43:
 1237              		.loc 1 412 0 discriminator 9
 1238 0020 BB68     		ldr	r3, [r7, #8]
 1239 0022 5A68     		ldr	r2, [r3, #4]
 1240 0024 7B68     		ldr	r3, [r7, #4]
 1241 0026 5B68     		ldr	r3, [r3, #4]
 1242 0028 9A42     		cmp	r2, r3
 1243 002a 0DD1     		bne	.L42
 1244              		.loc 1 412 0 discriminator 4
 1245 002c BB68     		ldr	r3, [r7, #8]
 1246 002e 1868     		ldr	r0, [r3]
 1247 0030 7B68     		ldr	r3, [r7, #4]
 1248 0032 9968     		ldr	r1, [r3, #8]
 1249 0034 7B68     		ldr	r3, [r7, #4]
 1250 0036 5B68     		ldr	r3, [r3, #4]
 1251 0038 1A46     		mov	r2, r3
 1252 003a FFF7FEFF 		bl	memcmp
 1253 003e 0346     		mov	r3, r0
 1254 0040 002B     		cmp	r3, #0
 1255 0042 01D1     		bne	.L42
 1256              		.loc 1 412 0 discriminator 6
 1257 0044 FB68     		ldr	r3, [r7, #12]
 1258 0046 09E0     		b	.L40
 1259              	.L42:
ARM GAS  C:\Users\dtjld\AppData\Local\Temp\ccSrLLKC.s 			page 36


 1260              		.loc 1 412 0 discriminator 7
 1261 0048 FB68     		ldr	r3, [r7, #12]
 1262 004a 1433     		adds	r3, r3, #20
 1263 004c FB60     		str	r3, [r7, #12]
 1264 004e FB68     		ldr	r3, [r7, #12]
 1265 0050 BB60     		str	r3, [r7, #8]
 1266              	.L41:
 1267              		.loc 1 412 0 discriminator 8
 1268 0052 BB68     		ldr	r3, [r7, #8]
 1269 0054 1B68     		ldr	r3, [r3]
 1270 0056 002B     		cmp	r3, #0
 1271 0058 E2D1     		bne	.L43
 1272              		.loc 1 412 0 discriminator 10
 1273 005a 0023     		movs	r3, #0
 1274              	.L40:
 1275              		.loc 1 412 0
 1276 005c 1846     		mov	r0, r3
 1277 005e 1037     		adds	r7, r7, #16
 1278              	.LCFI33:
 1279              		.cfi_def_cfa_offset 8
 1280 0060 BD46     		mov	sp, r7
 1281              	.LCFI34:
 1282              		.cfi_def_cfa_register 13
 1283              		@ sp needed
 1284 0062 80BD     		pop	{r7, pc}
 1285              	.L45:
 1286              		.align	2
 1287              	.L44:
 1288 0064 00000000 		.word	oid_sig_alg
 1289              		.cfi_endproc
 1290              	.LFE19:
 1292              		.section	.text.mbedtls_oid_get_sig_alg_desc,"ax",%progbits
 1293              		.align	1
 1294              		.global	mbedtls_oid_get_sig_alg_desc
 1295              		.syntax unified
 1296              		.thumb
 1297              		.thumb_func
 1298              		.fpu fpv4-sp-d16
 1300              	mbedtls_oid_get_sig_alg_desc:
 1301              	.LFB20:
 413:C:/Users/dtjld/workspace/AIoT/src/LiteOS_Lab/iot_link/network/dtls/mbedtls/mbedtls-2.16.2/library\oid.c **** FN_OID_GET_DESCRIPTOR_ATTR1(mbedtls_oid_get_sig_alg_desc, oid_sig_alg_t, sig_alg, const char *, des
 1302              		.loc 1 413 0 is_stmt 1
 1303              		.cfi_startproc
 1304              		@ args = 0, pretend = 0, frame = 16
 1305              		@ frame_needed = 1, uses_anonymous_args = 0
 1306 0000 80B5     		push	{r7, lr}
 1307              	.LCFI35:
 1308              		.cfi_def_cfa_offset 8
 1309              		.cfi_offset 7, -8
 1310              		.cfi_offset 14, -4
 1311 0002 84B0     		sub	sp, sp, #16
 1312              	.LCFI36:
 1313              		.cfi_def_cfa_offset 24
 1314 0004 00AF     		add	r7, sp, #0
 1315              	.LCFI37:
 1316              		.cfi_def_cfa_register 7
 1317 0006 7860     		str	r0, [r7, #4]
ARM GAS  C:\Users\dtjld\AppData\Local\Temp\ccSrLLKC.s 			page 37


 1318 0008 3960     		str	r1, [r7]
 1319              		.loc 1 413 0
 1320 000a 7868     		ldr	r0, [r7, #4]
 1321 000c FFF7FEFF 		bl	oid_sig_alg_from_asn1
 1322 0010 F860     		str	r0, [r7, #12]
 1323 0012 FB68     		ldr	r3, [r7, #12]
 1324 0014 002B     		cmp	r3, #0
 1325 0016 02D1     		bne	.L47
 1326              		.loc 1 413 0 is_stmt 0 discriminator 1
 1327 0018 6FF02D03 		mvn	r3, #45
 1328 001c 04E0     		b	.L48
 1329              	.L47:
 1330              		.loc 1 413 0 discriminator 2
 1331 001e FB68     		ldr	r3, [r7, #12]
 1332 0020 DA68     		ldr	r2, [r3, #12]
 1333 0022 3B68     		ldr	r3, [r7]
 1334 0024 1A60     		str	r2, [r3]
 1335 0026 0023     		movs	r3, #0
 1336              	.L48:
 1337              		.loc 1 413 0
 1338 0028 1846     		mov	r0, r3
 1339 002a 1037     		adds	r7, r7, #16
 1340              	.LCFI38:
 1341              		.cfi_def_cfa_offset 8
 1342 002c BD46     		mov	sp, r7
 1343              	.LCFI39:
 1344              		.cfi_def_cfa_register 13
 1345              		@ sp needed
 1346 002e 80BD     		pop	{r7, pc}
 1347              		.cfi_endproc
 1348              	.LFE20:
 1350              		.section	.text.mbedtls_oid_get_sig_alg,"ax",%progbits
 1351              		.align	1
 1352              		.global	mbedtls_oid_get_sig_alg
 1353              		.syntax unified
 1354              		.thumb
 1355              		.thumb_func
 1356              		.fpu fpv4-sp-d16
 1358              	mbedtls_oid_get_sig_alg:
 1359              	.LFB21:
 414:C:/Users/dtjld/workspace/AIoT/src/LiteOS_Lab/iot_link/network/dtls/mbedtls/mbedtls-2.16.2/library\oid.c **** FN_OID_GET_ATTR2(mbedtls_oid_get_sig_alg, oid_sig_alg_t, sig_alg, mbedtls_md_type_t, md_alg, mbedtl
 1360              		.loc 1 414 0 is_stmt 1
 1361              		.cfi_startproc
 1362              		@ args = 0, pretend = 0, frame = 24
 1363              		@ frame_needed = 1, uses_anonymous_args = 0
 1364 0000 80B5     		push	{r7, lr}
 1365              	.LCFI40:
 1366              		.cfi_def_cfa_offset 8
 1367              		.cfi_offset 7, -8
 1368              		.cfi_offset 14, -4
 1369 0002 86B0     		sub	sp, sp, #24
 1370              	.LCFI41:
 1371              		.cfi_def_cfa_offset 32
 1372 0004 00AF     		add	r7, sp, #0
 1373              	.LCFI42:
 1374              		.cfi_def_cfa_register 7
 1375 0006 F860     		str	r0, [r7, #12]
ARM GAS  C:\Users\dtjld\AppData\Local\Temp\ccSrLLKC.s 			page 38


 1376 0008 B960     		str	r1, [r7, #8]
 1377 000a 7A60     		str	r2, [r7, #4]
 1378              		.loc 1 414 0
 1379 000c F868     		ldr	r0, [r7, #12]
 1380 000e FFF7FEFF 		bl	oid_sig_alg_from_asn1
 1381 0012 7861     		str	r0, [r7, #20]
 1382 0014 7B69     		ldr	r3, [r7, #20]
 1383 0016 002B     		cmp	r3, #0
 1384 0018 02D1     		bne	.L50
 1385              		.loc 1 414 0 is_stmt 0 discriminator 1
 1386 001a 6FF02D03 		mvn	r3, #45
 1387 001e 08E0     		b	.L51
 1388              	.L50:
 1389              		.loc 1 414 0 discriminator 2
 1390 0020 7B69     		ldr	r3, [r7, #20]
 1391 0022 1A7C     		ldrb	r2, [r3, #16]	@ zero_extendqisi2
 1392 0024 BB68     		ldr	r3, [r7, #8]
 1393 0026 1A70     		strb	r2, [r3]
 1394 0028 7B69     		ldr	r3, [r7, #20]
 1395 002a 5A7C     		ldrb	r2, [r3, #17]	@ zero_extendqisi2
 1396 002c 7B68     		ldr	r3, [r7, #4]
 1397 002e 1A70     		strb	r2, [r3]
 1398 0030 0023     		movs	r3, #0
 1399              	.L51:
 1400              		.loc 1 414 0
 1401 0032 1846     		mov	r0, r3
 1402 0034 1837     		adds	r7, r7, #24
 1403              	.LCFI43:
 1404              		.cfi_def_cfa_offset 8
 1405 0036 BD46     		mov	sp, r7
 1406              	.LCFI44:
 1407              		.cfi_def_cfa_register 13
 1408              		@ sp needed
 1409 0038 80BD     		pop	{r7, pc}
 1410              		.cfi_endproc
 1411              	.LFE21:
 1413              		.section	.text.mbedtls_oid_get_oid_by_sig_alg,"ax",%progbits
 1414              		.align	1
 1415              		.global	mbedtls_oid_get_oid_by_sig_alg
 1416              		.syntax unified
 1417              		.thumb
 1418              		.thumb_func
 1419              		.fpu fpv4-sp-d16
 1421              	mbedtls_oid_get_oid_by_sig_alg:
 1422              	.LFB22:
 415:C:/Users/dtjld/workspace/AIoT/src/LiteOS_Lab/iot_link/network/dtls/mbedtls/mbedtls-2.16.2/library\oid.c **** FN_OID_GET_OID_BY_ATTR2(mbedtls_oid_get_oid_by_sig_alg, oid_sig_alg_t, oid_sig_alg, mbedtls_pk_type
 1423              		.loc 1 415 0 is_stmt 1
 1424              		.cfi_startproc
 1425              		@ args = 0, pretend = 0, frame = 24
 1426              		@ frame_needed = 1, uses_anonymous_args = 0
 1427              		@ link register save eliminated.
 1428 0000 80B4     		push	{r7}
 1429              	.LCFI45:
 1430              		.cfi_def_cfa_offset 4
 1431              		.cfi_offset 7, -4
 1432 0002 87B0     		sub	sp, sp, #28
 1433              	.LCFI46:
ARM GAS  C:\Users\dtjld\AppData\Local\Temp\ccSrLLKC.s 			page 39


 1434              		.cfi_def_cfa_offset 32
 1435 0004 00AF     		add	r7, sp, #0
 1436              	.LCFI47:
 1437              		.cfi_def_cfa_register 7
 1438 0006 BA60     		str	r2, [r7, #8]
 1439 0008 7B60     		str	r3, [r7, #4]
 1440 000a 0346     		mov	r3, r0
 1441 000c FB73     		strb	r3, [r7, #15]
 1442 000e 0B46     		mov	r3, r1
 1443 0010 BB73     		strb	r3, [r7, #14]
 1444              		.loc 1 415 0
 1445 0012 134B     		ldr	r3, .L57
 1446 0014 7B61     		str	r3, [r7, #20]
 1447 0016 16E0     		b	.L53
 1448              	.L56:
 1449              		.loc 1 415 0 is_stmt 0 discriminator 7
 1450 0018 7B69     		ldr	r3, [r7, #20]
 1451 001a 5B7C     		ldrb	r3, [r3, #17]	@ zero_extendqisi2
 1452 001c FA7B     		ldrb	r2, [r7, #15]	@ zero_extendqisi2
 1453 001e 9A42     		cmp	r2, r3
 1454 0020 0ED1     		bne	.L54
 1455              		.loc 1 415 0 discriminator 2
 1456 0022 7B69     		ldr	r3, [r7, #20]
 1457 0024 1B7C     		ldrb	r3, [r3, #16]	@ zero_extendqisi2
 1458 0026 BA7B     		ldrb	r2, [r7, #14]	@ zero_extendqisi2
 1459 0028 9A42     		cmp	r2, r3
 1460 002a 09D1     		bne	.L54
 1461              		.loc 1 415 0 discriminator 4
 1462 002c 7B69     		ldr	r3, [r7, #20]
 1463 002e 1A68     		ldr	r2, [r3]
 1464 0030 BB68     		ldr	r3, [r7, #8]
 1465 0032 1A60     		str	r2, [r3]
 1466 0034 7B69     		ldr	r3, [r7, #20]
 1467 0036 5A68     		ldr	r2, [r3, #4]
 1468 0038 7B68     		ldr	r3, [r7, #4]
 1469 003a 1A60     		str	r2, [r3]
 1470 003c 0023     		movs	r3, #0
 1471 003e 08E0     		b	.L55
 1472              	.L54:
 1473              		.loc 1 415 0 discriminator 5
 1474 0040 7B69     		ldr	r3, [r7, #20]
 1475 0042 1433     		adds	r3, r3, #20
 1476 0044 7B61     		str	r3, [r7, #20]
 1477              	.L53:
 1478              		.loc 1 415 0 discriminator 6
 1479 0046 7B69     		ldr	r3, [r7, #20]
 1480 0048 1B68     		ldr	r3, [r3]
 1481 004a 002B     		cmp	r3, #0
 1482 004c E4D1     		bne	.L56
 1483              		.loc 1 415 0 discriminator 8
 1484 004e 6FF02D03 		mvn	r3, #45
 1485              	.L55:
 1486              		.loc 1 415 0
 1487 0052 1846     		mov	r0, r3
 1488 0054 1C37     		adds	r7, r7, #28
 1489              	.LCFI48:
 1490              		.cfi_def_cfa_offset 4
ARM GAS  C:\Users\dtjld\AppData\Local\Temp\ccSrLLKC.s 			page 40


 1491 0056 BD46     		mov	sp, r7
 1492              	.LCFI49:
 1493              		.cfi_def_cfa_register 13
 1494              		@ sp needed
 1495 0058 5DF8047B 		ldr	r7, [sp], #4
 1496              	.LCFI50:
 1497              		.cfi_restore 7
 1498              		.cfi_def_cfa_offset 0
 1499 005c 7047     		bx	lr
 1500              	.L58:
 1501 005e 00BF     		.align	2
 1502              	.L57:
 1503 0060 00000000 		.word	oid_sig_alg
 1504              		.cfi_endproc
 1505              	.LFE22:
 1507              		.section	.rodata
 1508 0817 00       		.align	2
 1509              	.LC144:
 1510 0818 2A864886 		.ascii	"*\206H\206\367\015\001\001\001\000"
 1510      F70D0101 
 1510      0100
 1511 0822 0000     		.align	2
 1512              	.LC145:
 1513 0824 72736145 		.ascii	"rsaEncryption\000"
 1513      6E637279 
 1513      7074696F 
 1513      6E00
 1514 0832 0000     		.align	2
 1515              	.LC146:
 1516 0834 52534100 		.ascii	"RSA\000"
 1517              		.align	2
 1518              	.LC147:
 1519 0838 2A8648CE 		.ascii	"*\206H\316=\002\001\000"
 1519      3D020100 
 1520              		.align	2
 1521              	.LC148:
 1522 0840 69642D65 		.ascii	"id-ecPublicKey\000"
 1522      63507562 
 1522      6C69634B 
 1522      657900
 1523 084f 00       		.align	2
 1524              	.LC149:
 1525 0850 47656E65 		.ascii	"Generic EC key\000"
 1525      72696320 
 1525      4543206B 
 1525      657900
 1526 085f 00       		.align	2
 1527              	.LC150:
 1528 0860 2B810401 		.ascii	"+\201\004\001\014\000"
 1528      0C00
 1529 0866 0000     		.align	2
 1530              	.LC151:
 1531 0868 69642D65 		.ascii	"id-ecDH\000"
 1531      63444800 
 1532              		.align	2
 1533              	.LC152:
 1534 0870 4543206B 		.ascii	"EC key for ECDH\000"
ARM GAS  C:\Users\dtjld\AppData\Local\Temp\ccSrLLKC.s 			page 41


 1534      65792066 
 1534      6F722045 
 1534      43444800 
 1535              		.section	.rodata.oid_pk_alg,"a",%progbits
 1536              		.align	2
 1539              	oid_pk_alg:
 1540 0000 18080000 		.word	.LC144
 1541 0004 09000000 		.word	9
 1542 0008 24080000 		.word	.LC145
 1543 000c 34080000 		.word	.LC146
 1544 0010 01       		.byte	1
 1545 0011 000000   		.space	3
 1546 0014 38080000 		.word	.LC147
 1547 0018 07000000 		.word	7
 1548 001c 40080000 		.word	.LC148
 1549 0020 50080000 		.word	.LC149
 1550 0024 02       		.byte	2
 1551 0025 000000   		.space	3
 1552 0028 60080000 		.word	.LC150
 1553 002c 05000000 		.word	5
 1554 0030 68080000 		.word	.LC151
 1555 0034 70080000 		.word	.LC152
 1556 0038 03       		.byte	3
 1557 0039 000000   		.space	3
 1558 003c 00000000 		.word	0
 1559 0040 00000000 		.word	0
 1560 0044 00000000 		.word	0
 1561 0048 00000000 		.word	0
 1562 004c 00       		.byte	0
 1563 004d 000000   		.space	3
 1564              		.section	.text.oid_pk_alg_from_asn1,"ax",%progbits
 1565              		.align	1
 1566              		.syntax unified
 1567              		.thumb
 1568              		.thumb_func
 1569              		.fpu fpv4-sp-d16
 1571              	oid_pk_alg_from_asn1:
 1572              	.LFB23:
 416:C:/Users/dtjld/workspace/AIoT/src/LiteOS_Lab/iot_link/network/dtls/mbedtls/mbedtls-2.16.2/library\oid.c **** #endif /* MBEDTLS_MD_C */
 417:C:/Users/dtjld/workspace/AIoT/src/LiteOS_Lab/iot_link/network/dtls/mbedtls/mbedtls-2.16.2/library\oid.c **** 
 418:C:/Users/dtjld/workspace/AIoT/src/LiteOS_Lab/iot_link/network/dtls/mbedtls/mbedtls-2.16.2/library\oid.c **** /*
 419:C:/Users/dtjld/workspace/AIoT/src/LiteOS_Lab/iot_link/network/dtls/mbedtls/mbedtls-2.16.2/library\oid.c ****  * For PublicKeyInfo (PKCS1, RFC 5480)
 420:C:/Users/dtjld/workspace/AIoT/src/LiteOS_Lab/iot_link/network/dtls/mbedtls/mbedtls-2.16.2/library\oid.c ****  */
 421:C:/Users/dtjld/workspace/AIoT/src/LiteOS_Lab/iot_link/network/dtls/mbedtls/mbedtls-2.16.2/library\oid.c **** typedef struct {
 422:C:/Users/dtjld/workspace/AIoT/src/LiteOS_Lab/iot_link/network/dtls/mbedtls/mbedtls-2.16.2/library\oid.c ****     mbedtls_oid_descriptor_t    descriptor;
 423:C:/Users/dtjld/workspace/AIoT/src/LiteOS_Lab/iot_link/network/dtls/mbedtls/mbedtls-2.16.2/library\oid.c ****     mbedtls_pk_type_t           pk_alg;
 424:C:/Users/dtjld/workspace/AIoT/src/LiteOS_Lab/iot_link/network/dtls/mbedtls/mbedtls-2.16.2/library\oid.c **** } oid_pk_alg_t;
 425:C:/Users/dtjld/workspace/AIoT/src/LiteOS_Lab/iot_link/network/dtls/mbedtls/mbedtls-2.16.2/library\oid.c **** 
 426:C:/Users/dtjld/workspace/AIoT/src/LiteOS_Lab/iot_link/network/dtls/mbedtls/mbedtls-2.16.2/library\oid.c **** static const oid_pk_alg_t oid_pk_alg[] =
 427:C:/Users/dtjld/workspace/AIoT/src/LiteOS_Lab/iot_link/network/dtls/mbedtls/mbedtls-2.16.2/library\oid.c **** {
 428:C:/Users/dtjld/workspace/AIoT/src/LiteOS_Lab/iot_link/network/dtls/mbedtls/mbedtls-2.16.2/library\oid.c ****     {
 429:C:/Users/dtjld/workspace/AIoT/src/LiteOS_Lab/iot_link/network/dtls/mbedtls/mbedtls-2.16.2/library\oid.c ****         { ADD_LEN( MBEDTLS_OID_PKCS1_RSA ),      "rsaEncryption",   "RSA" },
 430:C:/Users/dtjld/workspace/AIoT/src/LiteOS_Lab/iot_link/network/dtls/mbedtls/mbedtls-2.16.2/library\oid.c ****         MBEDTLS_PK_RSA,
 431:C:/Users/dtjld/workspace/AIoT/src/LiteOS_Lab/iot_link/network/dtls/mbedtls/mbedtls-2.16.2/library\oid.c ****     },
 432:C:/Users/dtjld/workspace/AIoT/src/LiteOS_Lab/iot_link/network/dtls/mbedtls/mbedtls-2.16.2/library\oid.c ****     {
 433:C:/Users/dtjld/workspace/AIoT/src/LiteOS_Lab/iot_link/network/dtls/mbedtls/mbedtls-2.16.2/library\oid.c ****         { ADD_LEN( MBEDTLS_OID_EC_ALG_UNRESTRICTED ),  "id-ecPublicKey",   "Generic EC key" },
 434:C:/Users/dtjld/workspace/AIoT/src/LiteOS_Lab/iot_link/network/dtls/mbedtls/mbedtls-2.16.2/library\oid.c ****         MBEDTLS_PK_ECKEY,
ARM GAS  C:\Users\dtjld\AppData\Local\Temp\ccSrLLKC.s 			page 42


 435:C:/Users/dtjld/workspace/AIoT/src/LiteOS_Lab/iot_link/network/dtls/mbedtls/mbedtls-2.16.2/library\oid.c ****     },
 436:C:/Users/dtjld/workspace/AIoT/src/LiteOS_Lab/iot_link/network/dtls/mbedtls/mbedtls-2.16.2/library\oid.c ****     {
 437:C:/Users/dtjld/workspace/AIoT/src/LiteOS_Lab/iot_link/network/dtls/mbedtls/mbedtls-2.16.2/library\oid.c ****         { ADD_LEN( MBEDTLS_OID_EC_ALG_ECDH ),          "id-ecDH",          "EC key for ECDH" },
 438:C:/Users/dtjld/workspace/AIoT/src/LiteOS_Lab/iot_link/network/dtls/mbedtls/mbedtls-2.16.2/library\oid.c ****         MBEDTLS_PK_ECKEY_DH,
 439:C:/Users/dtjld/workspace/AIoT/src/LiteOS_Lab/iot_link/network/dtls/mbedtls/mbedtls-2.16.2/library\oid.c ****     },
 440:C:/Users/dtjld/workspace/AIoT/src/LiteOS_Lab/iot_link/network/dtls/mbedtls/mbedtls-2.16.2/library\oid.c ****     {
 441:C:/Users/dtjld/workspace/AIoT/src/LiteOS_Lab/iot_link/network/dtls/mbedtls/mbedtls-2.16.2/library\oid.c ****         { NULL, 0, NULL, NULL },
 442:C:/Users/dtjld/workspace/AIoT/src/LiteOS_Lab/iot_link/network/dtls/mbedtls/mbedtls-2.16.2/library\oid.c ****         MBEDTLS_PK_NONE,
 443:C:/Users/dtjld/workspace/AIoT/src/LiteOS_Lab/iot_link/network/dtls/mbedtls/mbedtls-2.16.2/library\oid.c ****     },
 444:C:/Users/dtjld/workspace/AIoT/src/LiteOS_Lab/iot_link/network/dtls/mbedtls/mbedtls-2.16.2/library\oid.c **** };
 445:C:/Users/dtjld/workspace/AIoT/src/LiteOS_Lab/iot_link/network/dtls/mbedtls/mbedtls-2.16.2/library\oid.c **** 
 446:C:/Users/dtjld/workspace/AIoT/src/LiteOS_Lab/iot_link/network/dtls/mbedtls/mbedtls-2.16.2/library\oid.c **** FN_OID_TYPED_FROM_ASN1(oid_pk_alg_t, pk_alg, oid_pk_alg)
 1573              		.loc 1 446 0 is_stmt 1
 1574              		.cfi_startproc
 1575              		@ args = 0, pretend = 0, frame = 16
 1576              		@ frame_needed = 1, uses_anonymous_args = 0
 1577 0000 80B5     		push	{r7, lr}
 1578              	.LCFI51:
 1579              		.cfi_def_cfa_offset 8
 1580              		.cfi_offset 7, -8
 1581              		.cfi_offset 14, -4
 1582 0002 84B0     		sub	sp, sp, #16
 1583              	.LCFI52:
 1584              		.cfi_def_cfa_offset 24
 1585 0004 00AF     		add	r7, sp, #0
 1586              	.LCFI53:
 1587              		.cfi_def_cfa_register 7
 1588 0006 7860     		str	r0, [r7, #4]
 1589              		.loc 1 446 0
 1590 0008 164B     		ldr	r3, .L66
 1591 000a FB60     		str	r3, [r7, #12]
 1592 000c FB68     		ldr	r3, [r7, #12]
 1593 000e BB60     		str	r3, [r7, #8]
 1594 0010 FB68     		ldr	r3, [r7, #12]
 1595 0012 002B     		cmp	r3, #0
 1596 0014 02D0     		beq	.L60
 1597              		.loc 1 446 0 is_stmt 0 discriminator 2
 1598 0016 7B68     		ldr	r3, [r7, #4]
 1599 0018 002B     		cmp	r3, #0
 1600 001a 1AD1     		bne	.L63
 1601              	.L60:
 1602              		.loc 1 446 0 discriminator 3
 1603 001c 0023     		movs	r3, #0
 1604 001e 1DE0     		b	.L62
 1605              	.L65:
 1606              		.loc 1 446 0 discriminator 9
 1607 0020 BB68     		ldr	r3, [r7, #8]
 1608 0022 5A68     		ldr	r2, [r3, #4]
 1609 0024 7B68     		ldr	r3, [r7, #4]
 1610 0026 5B68     		ldr	r3, [r3, #4]
 1611 0028 9A42     		cmp	r2, r3
 1612 002a 0DD1     		bne	.L64
 1613              		.loc 1 446 0 discriminator 4
 1614 002c BB68     		ldr	r3, [r7, #8]
 1615 002e 1868     		ldr	r0, [r3]
 1616 0030 7B68     		ldr	r3, [r7, #4]
 1617 0032 9968     		ldr	r1, [r3, #8]
ARM GAS  C:\Users\dtjld\AppData\Local\Temp\ccSrLLKC.s 			page 43


 1618 0034 7B68     		ldr	r3, [r7, #4]
 1619 0036 5B68     		ldr	r3, [r3, #4]
 1620 0038 1A46     		mov	r2, r3
 1621 003a FFF7FEFF 		bl	memcmp
 1622 003e 0346     		mov	r3, r0
 1623 0040 002B     		cmp	r3, #0
 1624 0042 01D1     		bne	.L64
 1625              		.loc 1 446 0 discriminator 6
 1626 0044 FB68     		ldr	r3, [r7, #12]
 1627 0046 09E0     		b	.L62
 1628              	.L64:
 1629              		.loc 1 446 0 discriminator 7
 1630 0048 FB68     		ldr	r3, [r7, #12]
 1631 004a 1433     		adds	r3, r3, #20
 1632 004c FB60     		str	r3, [r7, #12]
 1633 004e FB68     		ldr	r3, [r7, #12]
 1634 0050 BB60     		str	r3, [r7, #8]
 1635              	.L63:
 1636              		.loc 1 446 0 discriminator 8
 1637 0052 BB68     		ldr	r3, [r7, #8]
 1638 0054 1B68     		ldr	r3, [r3]
 1639 0056 002B     		cmp	r3, #0
 1640 0058 E2D1     		bne	.L65
 1641              		.loc 1 446 0 discriminator 10
 1642 005a 0023     		movs	r3, #0
 1643              	.L62:
 1644              		.loc 1 446 0
 1645 005c 1846     		mov	r0, r3
 1646 005e 1037     		adds	r7, r7, #16
 1647              	.LCFI54:
 1648              		.cfi_def_cfa_offset 8
 1649 0060 BD46     		mov	sp, r7
 1650              	.LCFI55:
 1651              		.cfi_def_cfa_register 13
 1652              		@ sp needed
 1653 0062 80BD     		pop	{r7, pc}
 1654              	.L67:
 1655              		.align	2
 1656              	.L66:
 1657 0064 00000000 		.word	oid_pk_alg
 1658              		.cfi_endproc
 1659              	.LFE23:
 1661              		.section	.text.mbedtls_oid_get_pk_alg,"ax",%progbits
 1662              		.align	1
 1663              		.global	mbedtls_oid_get_pk_alg
 1664              		.syntax unified
 1665              		.thumb
 1666              		.thumb_func
 1667              		.fpu fpv4-sp-d16
 1669              	mbedtls_oid_get_pk_alg:
 1670              	.LFB24:
 447:C:/Users/dtjld/workspace/AIoT/src/LiteOS_Lab/iot_link/network/dtls/mbedtls/mbedtls-2.16.2/library\oid.c **** FN_OID_GET_ATTR1(mbedtls_oid_get_pk_alg, oid_pk_alg_t, pk_alg, mbedtls_pk_type_t, pk_alg)
 1671              		.loc 1 447 0 is_stmt 1
 1672              		.cfi_startproc
 1673              		@ args = 0, pretend = 0, frame = 16
 1674              		@ frame_needed = 1, uses_anonymous_args = 0
 1675 0000 80B5     		push	{r7, lr}
ARM GAS  C:\Users\dtjld\AppData\Local\Temp\ccSrLLKC.s 			page 44


 1676              	.LCFI56:
 1677              		.cfi_def_cfa_offset 8
 1678              		.cfi_offset 7, -8
 1679              		.cfi_offset 14, -4
 1680 0002 84B0     		sub	sp, sp, #16
 1681              	.LCFI57:
 1682              		.cfi_def_cfa_offset 24
 1683 0004 00AF     		add	r7, sp, #0
 1684              	.LCFI58:
 1685              		.cfi_def_cfa_register 7
 1686 0006 7860     		str	r0, [r7, #4]
 1687 0008 3960     		str	r1, [r7]
 1688              		.loc 1 447 0
 1689 000a 7868     		ldr	r0, [r7, #4]
 1690 000c FFF7FEFF 		bl	oid_pk_alg_from_asn1
 1691 0010 F860     		str	r0, [r7, #12]
 1692 0012 FB68     		ldr	r3, [r7, #12]
 1693 0014 002B     		cmp	r3, #0
 1694 0016 02D1     		bne	.L69
 1695              		.loc 1 447 0 is_stmt 0 discriminator 1
 1696 0018 6FF02D03 		mvn	r3, #45
 1697 001c 04E0     		b	.L70
 1698              	.L69:
 1699              		.loc 1 447 0 discriminator 2
 1700 001e FB68     		ldr	r3, [r7, #12]
 1701 0020 1A7C     		ldrb	r2, [r3, #16]	@ zero_extendqisi2
 1702 0022 3B68     		ldr	r3, [r7]
 1703 0024 1A70     		strb	r2, [r3]
 1704 0026 0023     		movs	r3, #0
 1705              	.L70:
 1706              		.loc 1 447 0
 1707 0028 1846     		mov	r0, r3
 1708 002a 1037     		adds	r7, r7, #16
 1709              	.LCFI59:
 1710              		.cfi_def_cfa_offset 8
 1711 002c BD46     		mov	sp, r7
 1712              	.LCFI60:
 1713              		.cfi_def_cfa_register 13
 1714              		@ sp needed
 1715 002e 80BD     		pop	{r7, pc}
 1716              		.cfi_endproc
 1717              	.LFE24:
 1719              		.section	.text.mbedtls_oid_get_oid_by_pk_alg,"ax",%progbits
 1720              		.align	1
 1721              		.global	mbedtls_oid_get_oid_by_pk_alg
 1722              		.syntax unified
 1723              		.thumb
 1724              		.thumb_func
 1725              		.fpu fpv4-sp-d16
 1727              	mbedtls_oid_get_oid_by_pk_alg:
 1728              	.LFB25:
 448:C:/Users/dtjld/workspace/AIoT/src/LiteOS_Lab/iot_link/network/dtls/mbedtls/mbedtls-2.16.2/library\oid.c **** FN_OID_GET_OID_BY_ATTR1(mbedtls_oid_get_oid_by_pk_alg, oid_pk_alg_t, oid_pk_alg, mbedtls_pk_type_t,
 1729              		.loc 1 448 0 is_stmt 1
 1730              		.cfi_startproc
 1731              		@ args = 0, pretend = 0, frame = 24
 1732              		@ frame_needed = 1, uses_anonymous_args = 0
 1733              		@ link register save eliminated.
ARM GAS  C:\Users\dtjld\AppData\Local\Temp\ccSrLLKC.s 			page 45


 1734 0000 80B4     		push	{r7}
 1735              	.LCFI61:
 1736              		.cfi_def_cfa_offset 4
 1737              		.cfi_offset 7, -4
 1738 0002 87B0     		sub	sp, sp, #28
 1739              	.LCFI62:
 1740              		.cfi_def_cfa_offset 32
 1741 0004 00AF     		add	r7, sp, #0
 1742              	.LCFI63:
 1743              		.cfi_def_cfa_register 7
 1744 0006 0346     		mov	r3, r0
 1745 0008 B960     		str	r1, [r7, #8]
 1746 000a 7A60     		str	r2, [r7, #4]
 1747 000c FB73     		strb	r3, [r7, #15]
 1748              		.loc 1 448 0
 1749 000e 104B     		ldr	r3, .L76
 1750 0010 7B61     		str	r3, [r7, #20]
 1751 0012 11E0     		b	.L72
 1752              	.L75:
 1753              		.loc 1 448 0 is_stmt 0 discriminator 5
 1754 0014 7B69     		ldr	r3, [r7, #20]
 1755 0016 1B7C     		ldrb	r3, [r3, #16]	@ zero_extendqisi2
 1756 0018 FA7B     		ldrb	r2, [r7, #15]	@ zero_extendqisi2
 1757 001a 9A42     		cmp	r2, r3
 1758 001c 09D1     		bne	.L73
 1759              		.loc 1 448 0 discriminator 2
 1760 001e 7B69     		ldr	r3, [r7, #20]
 1761 0020 1A68     		ldr	r2, [r3]
 1762 0022 BB68     		ldr	r3, [r7, #8]
 1763 0024 1A60     		str	r2, [r3]
 1764 0026 7B69     		ldr	r3, [r7, #20]
 1765 0028 5A68     		ldr	r2, [r3, #4]
 1766 002a 7B68     		ldr	r3, [r7, #4]
 1767 002c 1A60     		str	r2, [r3]
 1768 002e 0023     		movs	r3, #0
 1769 0030 08E0     		b	.L74
 1770              	.L73:
 1771              		.loc 1 448 0 discriminator 3
 1772 0032 7B69     		ldr	r3, [r7, #20]
 1773 0034 1433     		adds	r3, r3, #20
 1774 0036 7B61     		str	r3, [r7, #20]
 1775              	.L72:
 1776              		.loc 1 448 0 discriminator 4
 1777 0038 7B69     		ldr	r3, [r7, #20]
 1778 003a 1B68     		ldr	r3, [r3]
 1779 003c 002B     		cmp	r3, #0
 1780 003e E9D1     		bne	.L75
 1781              		.loc 1 448 0 discriminator 6
 1782 0040 6FF02D03 		mvn	r3, #45
 1783              	.L74:
 1784              		.loc 1 448 0
 1785 0044 1846     		mov	r0, r3
 1786 0046 1C37     		adds	r7, r7, #28
 1787              	.LCFI64:
 1788              		.cfi_def_cfa_offset 4
 1789 0048 BD46     		mov	sp, r7
 1790              	.LCFI65:
ARM GAS  C:\Users\dtjld\AppData\Local\Temp\ccSrLLKC.s 			page 46


 1791              		.cfi_def_cfa_register 13
 1792              		@ sp needed
 1793 004a 5DF8047B 		ldr	r7, [sp], #4
 1794              	.LCFI66:
 1795              		.cfi_restore 7
 1796              		.cfi_def_cfa_offset 0
 1797 004e 7047     		bx	lr
 1798              	.L77:
 1799              		.align	2
 1800              	.L76:
 1801 0050 00000000 		.word	oid_pk_alg
 1802              		.cfi_endproc
 1803              	.LFE25:
 1805              		.section	.rodata
 1806              		.align	2
 1807              	.LC153:
 1808 0880 2A8648CE 		.ascii	"*\206H\316=\003\001\001\000"
 1808      3D030101 
 1808      00
 1809 0889 000000   		.align	2
 1810              	.LC154:
 1811 088c 73656370 		.ascii	"secp192r1\000"
 1811      31393272 
 1811      3100
 1812 0896 0000     		.align	2
 1813              	.LC155:
 1814 0898 2B810400 		.ascii	"+\201\004\000!\000"
 1814      2100
 1815 089e 0000     		.align	2
 1816              	.LC156:
 1817 08a0 73656370 		.ascii	"secp224r1\000"
 1817      32323472 
 1817      3100
 1818 08aa 0000     		.align	2
 1819              	.LC157:
 1820 08ac 2A8648CE 		.ascii	"*\206H\316=\003\001\007\000"
 1820      3D030107 
 1820      00
 1821 08b5 000000   		.align	2
 1822              	.LC158:
 1823 08b8 73656370 		.ascii	"secp256r1\000"
 1823      32353672 
 1823      3100
 1824 08c2 0000     		.align	2
 1825              	.LC159:
 1826 08c4 2B810400 		.ascii	"+\201\004\000\"\000"
 1826      2200
 1827 08ca 0000     		.align	2
 1828              	.LC160:
 1829 08cc 73656370 		.ascii	"secp384r1\000"
 1829      33383472 
 1829      3100
 1830 08d6 0000     		.align	2
 1831              	.LC161:
 1832 08d8 2B810400 		.ascii	"+\201\004\000#\000"
 1832      2300
 1833 08de 0000     		.align	2
ARM GAS  C:\Users\dtjld\AppData\Local\Temp\ccSrLLKC.s 			page 47


 1834              	.LC162:
 1835 08e0 73656370 		.ascii	"secp521r1\000"
 1835      35323172 
 1835      3100
 1836 08ea 0000     		.align	2
 1837              	.LC163:
 1838 08ec 2B810400 		.ascii	"+\201\004\000\037\000"
 1838      1F00
 1839 08f2 0000     		.align	2
 1840              	.LC164:
 1841 08f4 73656370 		.ascii	"secp192k1\000"
 1841      3139326B 
 1841      3100
 1842 08fe 0000     		.align	2
 1843              	.LC165:
 1844 0900 2B810400 		.ascii	"+\201\004\000 \000"
 1844      2000
 1845 0906 0000     		.align	2
 1846              	.LC166:
 1847 0908 73656370 		.ascii	"secp224k1\000"
 1847      3232346B 
 1847      3100
 1848 0912 0000     		.align	2
 1849              	.LC167:
 1850 0914 2B810400 		.ascii	"+\201\004\000\012\000"
 1850      0A00
 1851 091a 0000     		.align	2
 1852              	.LC168:
 1853 091c 73656370 		.ascii	"secp256k1\000"
 1853      3235366B 
 1853      3100
 1854 0926 0000     		.align	2
 1855              	.LC169:
 1856 0928 2B240303 		.ascii	"+$\003\003\002\010\001\001\007\000"
 1856      02080101 
 1856      0700
 1857 0932 0000     		.align	2
 1858              	.LC170:
 1859 0934 62726169 		.ascii	"brainpoolP256r1\000"
 1859      6E706F6F 
 1859      6C503235 
 1859      36723100 
 1860              		.align	2
 1861              	.LC171:
 1862 0944 62726169 		.ascii	"brainpool256r1\000"
 1862      6E706F6F 
 1862      6C323536 
 1862      723100
 1863 0953 00       		.align	2
 1864              	.LC172:
 1865 0954 2B240303 		.ascii	"+$\003\003\002\010\001\001\013\000"
 1865      02080101 
 1865      0B00
 1866 095e 0000     		.align	2
 1867              	.LC173:
 1868 0960 62726169 		.ascii	"brainpoolP384r1\000"
 1868      6E706F6F 
ARM GAS  C:\Users\dtjld\AppData\Local\Temp\ccSrLLKC.s 			page 48


 1868      6C503338 
 1868      34723100 
 1869              		.align	2
 1870              	.LC174:
 1871 0970 62726169 		.ascii	"brainpool384r1\000"
 1871      6E706F6F 
 1871      6C333834 
 1871      723100
 1872 097f 00       		.align	2
 1873              	.LC175:
 1874 0980 2B240303 		.ascii	"+$\003\003\002\010\001\001\015\000"
 1874      02080101 
 1874      0D00
 1875 098a 0000     		.align	2
 1876              	.LC176:
 1877 098c 62726169 		.ascii	"brainpoolP512r1\000"
 1877      6E706F6F 
 1877      6C503531 
 1877      32723100 
 1878              		.align	2
 1879              	.LC177:
 1880 099c 62726169 		.ascii	"brainpool512r1\000"
 1880      6E706F6F 
 1880      6C353132 
 1880      723100
 1881              		.section	.rodata.oid_ecp_grp,"a",%progbits
 1882              		.align	2
 1885              	oid_ecp_grp:
 1886 0000 80080000 		.word	.LC153
 1887 0004 08000000 		.word	8
 1888 0008 8C080000 		.word	.LC154
 1889 000c 8C080000 		.word	.LC154
 1890 0010 01       		.byte	1
 1891 0011 000000   		.space	3
 1892 0014 98080000 		.word	.LC155
 1893 0018 05000000 		.word	5
 1894 001c A0080000 		.word	.LC156
 1895 0020 A0080000 		.word	.LC156
 1896 0024 02       		.byte	2
 1897 0025 000000   		.space	3
 1898 0028 AC080000 		.word	.LC157
 1899 002c 08000000 		.word	8
 1900 0030 B8080000 		.word	.LC158
 1901 0034 B8080000 		.word	.LC158
 1902 0038 03       		.byte	3
 1903 0039 000000   		.space	3
 1904 003c C4080000 		.word	.LC159
 1905 0040 05000000 		.word	5
 1906 0044 CC080000 		.word	.LC160
 1907 0048 CC080000 		.word	.LC160
 1908 004c 04       		.byte	4
 1909 004d 000000   		.space	3
 1910 0050 D8080000 		.word	.LC161
 1911 0054 05000000 		.word	5
 1912 0058 E0080000 		.word	.LC162
 1913 005c E0080000 		.word	.LC162
 1914 0060 05       		.byte	5
ARM GAS  C:\Users\dtjld\AppData\Local\Temp\ccSrLLKC.s 			page 49


 1915 0061 000000   		.space	3
 1916 0064 EC080000 		.word	.LC163
 1917 0068 05000000 		.word	5
 1918 006c F4080000 		.word	.LC164
 1919 0070 F4080000 		.word	.LC164
 1920 0074 0A       		.byte	10
 1921 0075 000000   		.space	3
 1922 0078 00090000 		.word	.LC165
 1923 007c 05000000 		.word	5
 1924 0080 08090000 		.word	.LC166
 1925 0084 08090000 		.word	.LC166
 1926 0088 0B       		.byte	11
 1927 0089 000000   		.space	3
 1928 008c 14090000 		.word	.LC167
 1929 0090 05000000 		.word	5
 1930 0094 1C090000 		.word	.LC168
 1931 0098 1C090000 		.word	.LC168
 1932 009c 0C       		.byte	12
 1933 009d 000000   		.space	3
 1934 00a0 28090000 		.word	.LC169
 1935 00a4 09000000 		.word	9
 1936 00a8 34090000 		.word	.LC170
 1937 00ac 44090000 		.word	.LC171
 1938 00b0 06       		.byte	6
 1939 00b1 000000   		.space	3
 1940 00b4 54090000 		.word	.LC172
 1941 00b8 09000000 		.word	9
 1942 00bc 60090000 		.word	.LC173
 1943 00c0 70090000 		.word	.LC174
 1944 00c4 07       		.byte	7
 1945 00c5 000000   		.space	3
 1946 00c8 80090000 		.word	.LC175
 1947 00cc 09000000 		.word	9
 1948 00d0 8C090000 		.word	.LC176
 1949 00d4 9C090000 		.word	.LC177
 1950 00d8 08       		.byte	8
 1951 00d9 000000   		.space	3
 1952 00dc 00000000 		.word	0
 1953 00e0 00000000 		.word	0
 1954 00e4 00000000 		.word	0
 1955 00e8 00000000 		.word	0
 1956 00ec 00       		.byte	0
 1957 00ed 000000   		.space	3
 1958              		.section	.text.oid_grp_id_from_asn1,"ax",%progbits
 1959              		.align	1
 1960              		.syntax unified
 1961              		.thumb
 1962              		.thumb_func
 1963              		.fpu fpv4-sp-d16
 1965              	oid_grp_id_from_asn1:
 1966              	.LFB26:
 449:C:/Users/dtjld/workspace/AIoT/src/LiteOS_Lab/iot_link/network/dtls/mbedtls/mbedtls-2.16.2/library\oid.c **** 
 450:C:/Users/dtjld/workspace/AIoT/src/LiteOS_Lab/iot_link/network/dtls/mbedtls/mbedtls-2.16.2/library\oid.c **** #if defined(MBEDTLS_ECP_C)
 451:C:/Users/dtjld/workspace/AIoT/src/LiteOS_Lab/iot_link/network/dtls/mbedtls/mbedtls-2.16.2/library\oid.c **** /*
 452:C:/Users/dtjld/workspace/AIoT/src/LiteOS_Lab/iot_link/network/dtls/mbedtls/mbedtls-2.16.2/library\oid.c ****  * For namedCurve (RFC 5480)
 453:C:/Users/dtjld/workspace/AIoT/src/LiteOS_Lab/iot_link/network/dtls/mbedtls/mbedtls-2.16.2/library\oid.c ****  */
 454:C:/Users/dtjld/workspace/AIoT/src/LiteOS_Lab/iot_link/network/dtls/mbedtls/mbedtls-2.16.2/library\oid.c **** typedef struct {
ARM GAS  C:\Users\dtjld\AppData\Local\Temp\ccSrLLKC.s 			page 50


 455:C:/Users/dtjld/workspace/AIoT/src/LiteOS_Lab/iot_link/network/dtls/mbedtls/mbedtls-2.16.2/library\oid.c ****     mbedtls_oid_descriptor_t    descriptor;
 456:C:/Users/dtjld/workspace/AIoT/src/LiteOS_Lab/iot_link/network/dtls/mbedtls/mbedtls-2.16.2/library\oid.c ****     mbedtls_ecp_group_id        grp_id;
 457:C:/Users/dtjld/workspace/AIoT/src/LiteOS_Lab/iot_link/network/dtls/mbedtls/mbedtls-2.16.2/library\oid.c **** } oid_ecp_grp_t;
 458:C:/Users/dtjld/workspace/AIoT/src/LiteOS_Lab/iot_link/network/dtls/mbedtls/mbedtls-2.16.2/library\oid.c **** 
 459:C:/Users/dtjld/workspace/AIoT/src/LiteOS_Lab/iot_link/network/dtls/mbedtls/mbedtls-2.16.2/library\oid.c **** static const oid_ecp_grp_t oid_ecp_grp[] =
 460:C:/Users/dtjld/workspace/AIoT/src/LiteOS_Lab/iot_link/network/dtls/mbedtls/mbedtls-2.16.2/library\oid.c **** {
 461:C:/Users/dtjld/workspace/AIoT/src/LiteOS_Lab/iot_link/network/dtls/mbedtls/mbedtls-2.16.2/library\oid.c **** #if defined(MBEDTLS_ECP_DP_SECP192R1_ENABLED)
 462:C:/Users/dtjld/workspace/AIoT/src/LiteOS_Lab/iot_link/network/dtls/mbedtls/mbedtls-2.16.2/library\oid.c ****     {
 463:C:/Users/dtjld/workspace/AIoT/src/LiteOS_Lab/iot_link/network/dtls/mbedtls/mbedtls-2.16.2/library\oid.c ****         { ADD_LEN( MBEDTLS_OID_EC_GRP_SECP192R1 ), "secp192r1",    "secp192r1" },
 464:C:/Users/dtjld/workspace/AIoT/src/LiteOS_Lab/iot_link/network/dtls/mbedtls/mbedtls-2.16.2/library\oid.c ****         MBEDTLS_ECP_DP_SECP192R1,
 465:C:/Users/dtjld/workspace/AIoT/src/LiteOS_Lab/iot_link/network/dtls/mbedtls/mbedtls-2.16.2/library\oid.c ****     },
 466:C:/Users/dtjld/workspace/AIoT/src/LiteOS_Lab/iot_link/network/dtls/mbedtls/mbedtls-2.16.2/library\oid.c **** #endif /* MBEDTLS_ECP_DP_SECP192R1_ENABLED */
 467:C:/Users/dtjld/workspace/AIoT/src/LiteOS_Lab/iot_link/network/dtls/mbedtls/mbedtls-2.16.2/library\oid.c **** #if defined(MBEDTLS_ECP_DP_SECP224R1_ENABLED)
 468:C:/Users/dtjld/workspace/AIoT/src/LiteOS_Lab/iot_link/network/dtls/mbedtls/mbedtls-2.16.2/library\oid.c ****     {
 469:C:/Users/dtjld/workspace/AIoT/src/LiteOS_Lab/iot_link/network/dtls/mbedtls/mbedtls-2.16.2/library\oid.c ****         { ADD_LEN( MBEDTLS_OID_EC_GRP_SECP224R1 ), "secp224r1",    "secp224r1" },
 470:C:/Users/dtjld/workspace/AIoT/src/LiteOS_Lab/iot_link/network/dtls/mbedtls/mbedtls-2.16.2/library\oid.c ****         MBEDTLS_ECP_DP_SECP224R1,
 471:C:/Users/dtjld/workspace/AIoT/src/LiteOS_Lab/iot_link/network/dtls/mbedtls/mbedtls-2.16.2/library\oid.c ****     },
 472:C:/Users/dtjld/workspace/AIoT/src/LiteOS_Lab/iot_link/network/dtls/mbedtls/mbedtls-2.16.2/library\oid.c **** #endif /* MBEDTLS_ECP_DP_SECP224R1_ENABLED */
 473:C:/Users/dtjld/workspace/AIoT/src/LiteOS_Lab/iot_link/network/dtls/mbedtls/mbedtls-2.16.2/library\oid.c **** #if defined(MBEDTLS_ECP_DP_SECP256R1_ENABLED)
 474:C:/Users/dtjld/workspace/AIoT/src/LiteOS_Lab/iot_link/network/dtls/mbedtls/mbedtls-2.16.2/library\oid.c ****     {
 475:C:/Users/dtjld/workspace/AIoT/src/LiteOS_Lab/iot_link/network/dtls/mbedtls/mbedtls-2.16.2/library\oid.c ****         { ADD_LEN( MBEDTLS_OID_EC_GRP_SECP256R1 ), "secp256r1",    "secp256r1" },
 476:C:/Users/dtjld/workspace/AIoT/src/LiteOS_Lab/iot_link/network/dtls/mbedtls/mbedtls-2.16.2/library\oid.c ****         MBEDTLS_ECP_DP_SECP256R1,
 477:C:/Users/dtjld/workspace/AIoT/src/LiteOS_Lab/iot_link/network/dtls/mbedtls/mbedtls-2.16.2/library\oid.c ****     },
 478:C:/Users/dtjld/workspace/AIoT/src/LiteOS_Lab/iot_link/network/dtls/mbedtls/mbedtls-2.16.2/library\oid.c **** #endif /* MBEDTLS_ECP_DP_SECP256R1_ENABLED */
 479:C:/Users/dtjld/workspace/AIoT/src/LiteOS_Lab/iot_link/network/dtls/mbedtls/mbedtls-2.16.2/library\oid.c **** #if defined(MBEDTLS_ECP_DP_SECP384R1_ENABLED)
 480:C:/Users/dtjld/workspace/AIoT/src/LiteOS_Lab/iot_link/network/dtls/mbedtls/mbedtls-2.16.2/library\oid.c ****     {
 481:C:/Users/dtjld/workspace/AIoT/src/LiteOS_Lab/iot_link/network/dtls/mbedtls/mbedtls-2.16.2/library\oid.c ****         { ADD_LEN( MBEDTLS_OID_EC_GRP_SECP384R1 ), "secp384r1",    "secp384r1" },
 482:C:/Users/dtjld/workspace/AIoT/src/LiteOS_Lab/iot_link/network/dtls/mbedtls/mbedtls-2.16.2/library\oid.c ****         MBEDTLS_ECP_DP_SECP384R1,
 483:C:/Users/dtjld/workspace/AIoT/src/LiteOS_Lab/iot_link/network/dtls/mbedtls/mbedtls-2.16.2/library\oid.c ****     },
 484:C:/Users/dtjld/workspace/AIoT/src/LiteOS_Lab/iot_link/network/dtls/mbedtls/mbedtls-2.16.2/library\oid.c **** #endif /* MBEDTLS_ECP_DP_SECP384R1_ENABLED */
 485:C:/Users/dtjld/workspace/AIoT/src/LiteOS_Lab/iot_link/network/dtls/mbedtls/mbedtls-2.16.2/library\oid.c **** #if defined(MBEDTLS_ECP_DP_SECP521R1_ENABLED)
 486:C:/Users/dtjld/workspace/AIoT/src/LiteOS_Lab/iot_link/network/dtls/mbedtls/mbedtls-2.16.2/library\oid.c ****     {
 487:C:/Users/dtjld/workspace/AIoT/src/LiteOS_Lab/iot_link/network/dtls/mbedtls/mbedtls-2.16.2/library\oid.c ****         { ADD_LEN( MBEDTLS_OID_EC_GRP_SECP521R1 ), "secp521r1",    "secp521r1" },
 488:C:/Users/dtjld/workspace/AIoT/src/LiteOS_Lab/iot_link/network/dtls/mbedtls/mbedtls-2.16.2/library\oid.c ****         MBEDTLS_ECP_DP_SECP521R1,
 489:C:/Users/dtjld/workspace/AIoT/src/LiteOS_Lab/iot_link/network/dtls/mbedtls/mbedtls-2.16.2/library\oid.c ****     },
 490:C:/Users/dtjld/workspace/AIoT/src/LiteOS_Lab/iot_link/network/dtls/mbedtls/mbedtls-2.16.2/library\oid.c **** #endif /* MBEDTLS_ECP_DP_SECP521R1_ENABLED */
 491:C:/Users/dtjld/workspace/AIoT/src/LiteOS_Lab/iot_link/network/dtls/mbedtls/mbedtls-2.16.2/library\oid.c **** #if defined(MBEDTLS_ECP_DP_SECP192K1_ENABLED)
 492:C:/Users/dtjld/workspace/AIoT/src/LiteOS_Lab/iot_link/network/dtls/mbedtls/mbedtls-2.16.2/library\oid.c ****     {
 493:C:/Users/dtjld/workspace/AIoT/src/LiteOS_Lab/iot_link/network/dtls/mbedtls/mbedtls-2.16.2/library\oid.c ****         { ADD_LEN( MBEDTLS_OID_EC_GRP_SECP192K1 ), "secp192k1",    "secp192k1" },
 494:C:/Users/dtjld/workspace/AIoT/src/LiteOS_Lab/iot_link/network/dtls/mbedtls/mbedtls-2.16.2/library\oid.c ****         MBEDTLS_ECP_DP_SECP192K1,
 495:C:/Users/dtjld/workspace/AIoT/src/LiteOS_Lab/iot_link/network/dtls/mbedtls/mbedtls-2.16.2/library\oid.c ****     },
 496:C:/Users/dtjld/workspace/AIoT/src/LiteOS_Lab/iot_link/network/dtls/mbedtls/mbedtls-2.16.2/library\oid.c **** #endif /* MBEDTLS_ECP_DP_SECP192K1_ENABLED */
 497:C:/Users/dtjld/workspace/AIoT/src/LiteOS_Lab/iot_link/network/dtls/mbedtls/mbedtls-2.16.2/library\oid.c **** #if defined(MBEDTLS_ECP_DP_SECP224K1_ENABLED)
 498:C:/Users/dtjld/workspace/AIoT/src/LiteOS_Lab/iot_link/network/dtls/mbedtls/mbedtls-2.16.2/library\oid.c ****     {
 499:C:/Users/dtjld/workspace/AIoT/src/LiteOS_Lab/iot_link/network/dtls/mbedtls/mbedtls-2.16.2/library\oid.c ****         { ADD_LEN( MBEDTLS_OID_EC_GRP_SECP224K1 ), "secp224k1",    "secp224k1" },
 500:C:/Users/dtjld/workspace/AIoT/src/LiteOS_Lab/iot_link/network/dtls/mbedtls/mbedtls-2.16.2/library\oid.c ****         MBEDTLS_ECP_DP_SECP224K1,
 501:C:/Users/dtjld/workspace/AIoT/src/LiteOS_Lab/iot_link/network/dtls/mbedtls/mbedtls-2.16.2/library\oid.c ****     },
 502:C:/Users/dtjld/workspace/AIoT/src/LiteOS_Lab/iot_link/network/dtls/mbedtls/mbedtls-2.16.2/library\oid.c **** #endif /* MBEDTLS_ECP_DP_SECP224K1_ENABLED */
 503:C:/Users/dtjld/workspace/AIoT/src/LiteOS_Lab/iot_link/network/dtls/mbedtls/mbedtls-2.16.2/library\oid.c **** #if defined(MBEDTLS_ECP_DP_SECP256K1_ENABLED)
 504:C:/Users/dtjld/workspace/AIoT/src/LiteOS_Lab/iot_link/network/dtls/mbedtls/mbedtls-2.16.2/library\oid.c ****     {
 505:C:/Users/dtjld/workspace/AIoT/src/LiteOS_Lab/iot_link/network/dtls/mbedtls/mbedtls-2.16.2/library\oid.c ****         { ADD_LEN( MBEDTLS_OID_EC_GRP_SECP256K1 ), "secp256k1",    "secp256k1" },
 506:C:/Users/dtjld/workspace/AIoT/src/LiteOS_Lab/iot_link/network/dtls/mbedtls/mbedtls-2.16.2/library\oid.c ****         MBEDTLS_ECP_DP_SECP256K1,
 507:C:/Users/dtjld/workspace/AIoT/src/LiteOS_Lab/iot_link/network/dtls/mbedtls/mbedtls-2.16.2/library\oid.c ****     },
 508:C:/Users/dtjld/workspace/AIoT/src/LiteOS_Lab/iot_link/network/dtls/mbedtls/mbedtls-2.16.2/library\oid.c **** #endif /* MBEDTLS_ECP_DP_SECP256K1_ENABLED */
 509:C:/Users/dtjld/workspace/AIoT/src/LiteOS_Lab/iot_link/network/dtls/mbedtls/mbedtls-2.16.2/library\oid.c **** #if defined(MBEDTLS_ECP_DP_BP256R1_ENABLED)
 510:C:/Users/dtjld/workspace/AIoT/src/LiteOS_Lab/iot_link/network/dtls/mbedtls/mbedtls-2.16.2/library\oid.c ****     {
 511:C:/Users/dtjld/workspace/AIoT/src/LiteOS_Lab/iot_link/network/dtls/mbedtls/mbedtls-2.16.2/library\oid.c ****         { ADD_LEN( MBEDTLS_OID_EC_GRP_BP256R1 ),   "brainpoolP256r1","brainpool256r1" },
ARM GAS  C:\Users\dtjld\AppData\Local\Temp\ccSrLLKC.s 			page 51


 512:C:/Users/dtjld/workspace/AIoT/src/LiteOS_Lab/iot_link/network/dtls/mbedtls/mbedtls-2.16.2/library\oid.c ****         MBEDTLS_ECP_DP_BP256R1,
 513:C:/Users/dtjld/workspace/AIoT/src/LiteOS_Lab/iot_link/network/dtls/mbedtls/mbedtls-2.16.2/library\oid.c ****     },
 514:C:/Users/dtjld/workspace/AIoT/src/LiteOS_Lab/iot_link/network/dtls/mbedtls/mbedtls-2.16.2/library\oid.c **** #endif /* MBEDTLS_ECP_DP_BP256R1_ENABLED */
 515:C:/Users/dtjld/workspace/AIoT/src/LiteOS_Lab/iot_link/network/dtls/mbedtls/mbedtls-2.16.2/library\oid.c **** #if defined(MBEDTLS_ECP_DP_BP384R1_ENABLED)
 516:C:/Users/dtjld/workspace/AIoT/src/LiteOS_Lab/iot_link/network/dtls/mbedtls/mbedtls-2.16.2/library\oid.c ****     {
 517:C:/Users/dtjld/workspace/AIoT/src/LiteOS_Lab/iot_link/network/dtls/mbedtls/mbedtls-2.16.2/library\oid.c ****         { ADD_LEN( MBEDTLS_OID_EC_GRP_BP384R1 ),   "brainpoolP384r1","brainpool384r1" },
 518:C:/Users/dtjld/workspace/AIoT/src/LiteOS_Lab/iot_link/network/dtls/mbedtls/mbedtls-2.16.2/library\oid.c ****         MBEDTLS_ECP_DP_BP384R1,
 519:C:/Users/dtjld/workspace/AIoT/src/LiteOS_Lab/iot_link/network/dtls/mbedtls/mbedtls-2.16.2/library\oid.c ****     },
 520:C:/Users/dtjld/workspace/AIoT/src/LiteOS_Lab/iot_link/network/dtls/mbedtls/mbedtls-2.16.2/library\oid.c **** #endif /* MBEDTLS_ECP_DP_BP384R1_ENABLED */
 521:C:/Users/dtjld/workspace/AIoT/src/LiteOS_Lab/iot_link/network/dtls/mbedtls/mbedtls-2.16.2/library\oid.c **** #if defined(MBEDTLS_ECP_DP_BP512R1_ENABLED)
 522:C:/Users/dtjld/workspace/AIoT/src/LiteOS_Lab/iot_link/network/dtls/mbedtls/mbedtls-2.16.2/library\oid.c ****     {
 523:C:/Users/dtjld/workspace/AIoT/src/LiteOS_Lab/iot_link/network/dtls/mbedtls/mbedtls-2.16.2/library\oid.c ****         { ADD_LEN( MBEDTLS_OID_EC_GRP_BP512R1 ),   "brainpoolP512r1","brainpool512r1" },
 524:C:/Users/dtjld/workspace/AIoT/src/LiteOS_Lab/iot_link/network/dtls/mbedtls/mbedtls-2.16.2/library\oid.c ****         MBEDTLS_ECP_DP_BP512R1,
 525:C:/Users/dtjld/workspace/AIoT/src/LiteOS_Lab/iot_link/network/dtls/mbedtls/mbedtls-2.16.2/library\oid.c ****     },
 526:C:/Users/dtjld/workspace/AIoT/src/LiteOS_Lab/iot_link/network/dtls/mbedtls/mbedtls-2.16.2/library\oid.c **** #endif /* MBEDTLS_ECP_DP_BP512R1_ENABLED */
 527:C:/Users/dtjld/workspace/AIoT/src/LiteOS_Lab/iot_link/network/dtls/mbedtls/mbedtls-2.16.2/library\oid.c ****     {
 528:C:/Users/dtjld/workspace/AIoT/src/LiteOS_Lab/iot_link/network/dtls/mbedtls/mbedtls-2.16.2/library\oid.c ****         { NULL, 0, NULL, NULL },
 529:C:/Users/dtjld/workspace/AIoT/src/LiteOS_Lab/iot_link/network/dtls/mbedtls/mbedtls-2.16.2/library\oid.c ****         MBEDTLS_ECP_DP_NONE,
 530:C:/Users/dtjld/workspace/AIoT/src/LiteOS_Lab/iot_link/network/dtls/mbedtls/mbedtls-2.16.2/library\oid.c ****     },
 531:C:/Users/dtjld/workspace/AIoT/src/LiteOS_Lab/iot_link/network/dtls/mbedtls/mbedtls-2.16.2/library\oid.c **** };
 532:C:/Users/dtjld/workspace/AIoT/src/LiteOS_Lab/iot_link/network/dtls/mbedtls/mbedtls-2.16.2/library\oid.c **** 
 533:C:/Users/dtjld/workspace/AIoT/src/LiteOS_Lab/iot_link/network/dtls/mbedtls/mbedtls-2.16.2/library\oid.c **** FN_OID_TYPED_FROM_ASN1(oid_ecp_grp_t, grp_id, oid_ecp_grp)
 1967              		.loc 1 533 0 is_stmt 1
 1968              		.cfi_startproc
 1969              		@ args = 0, pretend = 0, frame = 16
 1970              		@ frame_needed = 1, uses_anonymous_args = 0
 1971 0000 80B5     		push	{r7, lr}
 1972              	.LCFI67:
 1973              		.cfi_def_cfa_offset 8
 1974              		.cfi_offset 7, -8
 1975              		.cfi_offset 14, -4
 1976 0002 84B0     		sub	sp, sp, #16
 1977              	.LCFI68:
 1978              		.cfi_def_cfa_offset 24
 1979 0004 00AF     		add	r7, sp, #0
 1980              	.LCFI69:
 1981              		.cfi_def_cfa_register 7
 1982 0006 7860     		str	r0, [r7, #4]
 1983              		.loc 1 533 0
 1984 0008 164B     		ldr	r3, .L85
 1985 000a FB60     		str	r3, [r7, #12]
 1986 000c FB68     		ldr	r3, [r7, #12]
 1987 000e BB60     		str	r3, [r7, #8]
 1988 0010 FB68     		ldr	r3, [r7, #12]
 1989 0012 002B     		cmp	r3, #0
 1990 0014 02D0     		beq	.L79
 1991              		.loc 1 533 0 is_stmt 0 discriminator 2
 1992 0016 7B68     		ldr	r3, [r7, #4]
 1993 0018 002B     		cmp	r3, #0
 1994 001a 1AD1     		bne	.L82
 1995              	.L79:
 1996              		.loc 1 533 0 discriminator 3
 1997 001c 0023     		movs	r3, #0
 1998 001e 1DE0     		b	.L81
 1999              	.L84:
 2000              		.loc 1 533 0 discriminator 9
 2001 0020 BB68     		ldr	r3, [r7, #8]
ARM GAS  C:\Users\dtjld\AppData\Local\Temp\ccSrLLKC.s 			page 52


 2002 0022 5A68     		ldr	r2, [r3, #4]
 2003 0024 7B68     		ldr	r3, [r7, #4]
 2004 0026 5B68     		ldr	r3, [r3, #4]
 2005 0028 9A42     		cmp	r2, r3
 2006 002a 0DD1     		bne	.L83
 2007              		.loc 1 533 0 discriminator 4
 2008 002c BB68     		ldr	r3, [r7, #8]
 2009 002e 1868     		ldr	r0, [r3]
 2010 0030 7B68     		ldr	r3, [r7, #4]
 2011 0032 9968     		ldr	r1, [r3, #8]
 2012 0034 7B68     		ldr	r3, [r7, #4]
 2013 0036 5B68     		ldr	r3, [r3, #4]
 2014 0038 1A46     		mov	r2, r3
 2015 003a FFF7FEFF 		bl	memcmp
 2016 003e 0346     		mov	r3, r0
 2017 0040 002B     		cmp	r3, #0
 2018 0042 01D1     		bne	.L83
 2019              		.loc 1 533 0 discriminator 6
 2020 0044 FB68     		ldr	r3, [r7, #12]
 2021 0046 09E0     		b	.L81
 2022              	.L83:
 2023              		.loc 1 533 0 discriminator 7
 2024 0048 FB68     		ldr	r3, [r7, #12]
 2025 004a 1433     		adds	r3, r3, #20
 2026 004c FB60     		str	r3, [r7, #12]
 2027 004e FB68     		ldr	r3, [r7, #12]
 2028 0050 BB60     		str	r3, [r7, #8]
 2029              	.L82:
 2030              		.loc 1 533 0 discriminator 8
 2031 0052 BB68     		ldr	r3, [r7, #8]
 2032 0054 1B68     		ldr	r3, [r3]
 2033 0056 002B     		cmp	r3, #0
 2034 0058 E2D1     		bne	.L84
 2035              		.loc 1 533 0 discriminator 10
 2036 005a 0023     		movs	r3, #0
 2037              	.L81:
 2038              		.loc 1 533 0
 2039 005c 1846     		mov	r0, r3
 2040 005e 1037     		adds	r7, r7, #16
 2041              	.LCFI70:
 2042              		.cfi_def_cfa_offset 8
 2043 0060 BD46     		mov	sp, r7
 2044              	.LCFI71:
 2045              		.cfi_def_cfa_register 13
 2046              		@ sp needed
 2047 0062 80BD     		pop	{r7, pc}
 2048              	.L86:
 2049              		.align	2
 2050              	.L85:
 2051 0064 00000000 		.word	oid_ecp_grp
 2052              		.cfi_endproc
 2053              	.LFE26:
 2055              		.section	.text.mbedtls_oid_get_ec_grp,"ax",%progbits
 2056              		.align	1
 2057              		.global	mbedtls_oid_get_ec_grp
 2058              		.syntax unified
 2059              		.thumb
ARM GAS  C:\Users\dtjld\AppData\Local\Temp\ccSrLLKC.s 			page 53


 2060              		.thumb_func
 2061              		.fpu fpv4-sp-d16
 2063              	mbedtls_oid_get_ec_grp:
 2064              	.LFB27:
 534:C:/Users/dtjld/workspace/AIoT/src/LiteOS_Lab/iot_link/network/dtls/mbedtls/mbedtls-2.16.2/library\oid.c **** FN_OID_GET_ATTR1(mbedtls_oid_get_ec_grp, oid_ecp_grp_t, grp_id, mbedtls_ecp_group_id, grp_id)
 2065              		.loc 1 534 0 is_stmt 1
 2066              		.cfi_startproc
 2067              		@ args = 0, pretend = 0, frame = 16
 2068              		@ frame_needed = 1, uses_anonymous_args = 0
 2069 0000 80B5     		push	{r7, lr}
 2070              	.LCFI72:
 2071              		.cfi_def_cfa_offset 8
 2072              		.cfi_offset 7, -8
 2073              		.cfi_offset 14, -4
 2074 0002 84B0     		sub	sp, sp, #16
 2075              	.LCFI73:
 2076              		.cfi_def_cfa_offset 24
 2077 0004 00AF     		add	r7, sp, #0
 2078              	.LCFI74:
 2079              		.cfi_def_cfa_register 7
 2080 0006 7860     		str	r0, [r7, #4]
 2081 0008 3960     		str	r1, [r7]
 2082              		.loc 1 534 0
 2083 000a 7868     		ldr	r0, [r7, #4]
 2084 000c FFF7FEFF 		bl	oid_grp_id_from_asn1
 2085 0010 F860     		str	r0, [r7, #12]
 2086 0012 FB68     		ldr	r3, [r7, #12]
 2087 0014 002B     		cmp	r3, #0
 2088 0016 02D1     		bne	.L88
 2089              		.loc 1 534 0 is_stmt 0 discriminator 1
 2090 0018 6FF02D03 		mvn	r3, #45
 2091 001c 04E0     		b	.L89
 2092              	.L88:
 2093              		.loc 1 534 0 discriminator 2
 2094 001e FB68     		ldr	r3, [r7, #12]
 2095 0020 1A7C     		ldrb	r2, [r3, #16]	@ zero_extendqisi2
 2096 0022 3B68     		ldr	r3, [r7]
 2097 0024 1A70     		strb	r2, [r3]
 2098 0026 0023     		movs	r3, #0
 2099              	.L89:
 2100              		.loc 1 534 0
 2101 0028 1846     		mov	r0, r3
 2102 002a 1037     		adds	r7, r7, #16
 2103              	.LCFI75:
 2104              		.cfi_def_cfa_offset 8
 2105 002c BD46     		mov	sp, r7
 2106              	.LCFI76:
 2107              		.cfi_def_cfa_register 13
 2108              		@ sp needed
 2109 002e 80BD     		pop	{r7, pc}
 2110              		.cfi_endproc
 2111              	.LFE27:
 2113              		.section	.text.mbedtls_oid_get_oid_by_ec_grp,"ax",%progbits
 2114              		.align	1
 2115              		.global	mbedtls_oid_get_oid_by_ec_grp
 2116              		.syntax unified
 2117              		.thumb
ARM GAS  C:\Users\dtjld\AppData\Local\Temp\ccSrLLKC.s 			page 54


 2118              		.thumb_func
 2119              		.fpu fpv4-sp-d16
 2121              	mbedtls_oid_get_oid_by_ec_grp:
 2122              	.LFB28:
 535:C:/Users/dtjld/workspace/AIoT/src/LiteOS_Lab/iot_link/network/dtls/mbedtls/mbedtls-2.16.2/library\oid.c **** FN_OID_GET_OID_BY_ATTR1(mbedtls_oid_get_oid_by_ec_grp, oid_ecp_grp_t, oid_ecp_grp, mbedtls_ecp_grou
 2123              		.loc 1 535 0 is_stmt 1
 2124              		.cfi_startproc
 2125              		@ args = 0, pretend = 0, frame = 24
 2126              		@ frame_needed = 1, uses_anonymous_args = 0
 2127              		@ link register save eliminated.
 2128 0000 80B4     		push	{r7}
 2129              	.LCFI77:
 2130              		.cfi_def_cfa_offset 4
 2131              		.cfi_offset 7, -4
 2132 0002 87B0     		sub	sp, sp, #28
 2133              	.LCFI78:
 2134              		.cfi_def_cfa_offset 32
 2135 0004 00AF     		add	r7, sp, #0
 2136              	.LCFI79:
 2137              		.cfi_def_cfa_register 7
 2138 0006 0346     		mov	r3, r0
 2139 0008 B960     		str	r1, [r7, #8]
 2140 000a 7A60     		str	r2, [r7, #4]
 2141 000c FB73     		strb	r3, [r7, #15]
 2142              		.loc 1 535 0
 2143 000e 104B     		ldr	r3, .L95
 2144 0010 7B61     		str	r3, [r7, #20]
 2145 0012 11E0     		b	.L91
 2146              	.L94:
 2147              		.loc 1 535 0 is_stmt 0 discriminator 5
 2148 0014 7B69     		ldr	r3, [r7, #20]
 2149 0016 1B7C     		ldrb	r3, [r3, #16]	@ zero_extendqisi2
 2150 0018 FA7B     		ldrb	r2, [r7, #15]	@ zero_extendqisi2
 2151 001a 9A42     		cmp	r2, r3
 2152 001c 09D1     		bne	.L92
 2153              		.loc 1 535 0 discriminator 2
 2154 001e 7B69     		ldr	r3, [r7, #20]
 2155 0020 1A68     		ldr	r2, [r3]
 2156 0022 BB68     		ldr	r3, [r7, #8]
 2157 0024 1A60     		str	r2, [r3]
 2158 0026 7B69     		ldr	r3, [r7, #20]
 2159 0028 5A68     		ldr	r2, [r3, #4]
 2160 002a 7B68     		ldr	r3, [r7, #4]
 2161 002c 1A60     		str	r2, [r3]
 2162 002e 0023     		movs	r3, #0
 2163 0030 08E0     		b	.L93
 2164              	.L92:
 2165              		.loc 1 535 0 discriminator 3
 2166 0032 7B69     		ldr	r3, [r7, #20]
 2167 0034 1433     		adds	r3, r3, #20
 2168 0036 7B61     		str	r3, [r7, #20]
 2169              	.L91:
 2170              		.loc 1 535 0 discriminator 4
 2171 0038 7B69     		ldr	r3, [r7, #20]
 2172 003a 1B68     		ldr	r3, [r3]
 2173 003c 002B     		cmp	r3, #0
 2174 003e E9D1     		bne	.L94
ARM GAS  C:\Users\dtjld\AppData\Local\Temp\ccSrLLKC.s 			page 55


 2175              		.loc 1 535 0 discriminator 6
 2176 0040 6FF02D03 		mvn	r3, #45
 2177              	.L93:
 2178              		.loc 1 535 0
 2179 0044 1846     		mov	r0, r3
 2180 0046 1C37     		adds	r7, r7, #28
 2181              	.LCFI80:
 2182              		.cfi_def_cfa_offset 4
 2183 0048 BD46     		mov	sp, r7
 2184              	.LCFI81:
 2185              		.cfi_def_cfa_register 13
 2186              		@ sp needed
 2187 004a 5DF8047B 		ldr	r7, [sp], #4
 2188              	.LCFI82:
 2189              		.cfi_restore 7
 2190              		.cfi_def_cfa_offset 0
 2191 004e 7047     		bx	lr
 2192              	.L96:
 2193              		.align	2
 2194              	.L95:
 2195 0050 00000000 		.word	oid_ecp_grp
 2196              		.cfi_endproc
 2197              	.LFE28:
 2199              		.section	.rodata
 2200 09ab 00       		.align	2
 2201              	.LC178:
 2202 09ac 2B0E0302 		.ascii	"+\016\003\002\007\000"
 2202      0700
 2203 09b2 0000     		.align	2
 2204              	.LC179:
 2205 09b4 64657343 		.ascii	"desCBC\000"
 2205      424300
 2206 09bb 00       		.align	2
 2207              	.LC180:
 2208 09bc 4445532D 		.ascii	"DES-CBC\000"
 2208      43424300 
 2209              		.align	2
 2210              	.LC181:
 2211 09c4 2A864886 		.ascii	"*\206H\206\367\015\003\007\000"
 2211      F70D0307 
 2211      00
 2212 09cd 000000   		.align	2
 2213              	.LC182:
 2214 09d0 6465732D 		.ascii	"des-ede3-cbc\000"
 2214      65646533 
 2214      2D636263 
 2214      00
 2215 09dd 000000   		.align	2
 2216              	.LC183:
 2217 09e0 4445532D 		.ascii	"DES-EDE3-CBC\000"
 2217      45444533 
 2217      2D434243 
 2217      00
 2218              		.section	.rodata.oid_cipher_alg,"a",%progbits
 2219              		.align	2
 2222              	oid_cipher_alg:
 2223 0000 AC090000 		.word	.LC178
ARM GAS  C:\Users\dtjld\AppData\Local\Temp\ccSrLLKC.s 			page 56


 2224 0004 05000000 		.word	5
 2225 0008 B4090000 		.word	.LC179
 2226 000c BC090000 		.word	.LC180
 2227 0010 21       		.byte	33
 2228 0011 000000   		.space	3
 2229 0014 C4090000 		.word	.LC181
 2230 0018 08000000 		.word	8
 2231 001c D0090000 		.word	.LC182
 2232 0020 E0090000 		.word	.LC183
 2233 0024 25       		.byte	37
 2234 0025 000000   		.space	3
 2235 0028 00000000 		.word	0
 2236 002c 00000000 		.word	0
 2237 0030 00000000 		.word	0
 2238 0034 00000000 		.word	0
 2239 0038 00       		.byte	0
 2240 0039 000000   		.space	3
 2241              		.section	.text.oid_cipher_alg_from_asn1,"ax",%progbits
 2242              		.align	1
 2243              		.syntax unified
 2244              		.thumb
 2245              		.thumb_func
 2246              		.fpu fpv4-sp-d16
 2248              	oid_cipher_alg_from_asn1:
 2249              	.LFB29:
 536:C:/Users/dtjld/workspace/AIoT/src/LiteOS_Lab/iot_link/network/dtls/mbedtls/mbedtls-2.16.2/library\oid.c **** #endif /* MBEDTLS_ECP_C */
 537:C:/Users/dtjld/workspace/AIoT/src/LiteOS_Lab/iot_link/network/dtls/mbedtls/mbedtls-2.16.2/library\oid.c **** 
 538:C:/Users/dtjld/workspace/AIoT/src/LiteOS_Lab/iot_link/network/dtls/mbedtls/mbedtls-2.16.2/library\oid.c **** #if defined(MBEDTLS_CIPHER_C)
 539:C:/Users/dtjld/workspace/AIoT/src/LiteOS_Lab/iot_link/network/dtls/mbedtls/mbedtls-2.16.2/library\oid.c **** /*
 540:C:/Users/dtjld/workspace/AIoT/src/LiteOS_Lab/iot_link/network/dtls/mbedtls/mbedtls-2.16.2/library\oid.c ****  * For PKCS#5 PBES2 encryption algorithm
 541:C:/Users/dtjld/workspace/AIoT/src/LiteOS_Lab/iot_link/network/dtls/mbedtls/mbedtls-2.16.2/library\oid.c ****  */
 542:C:/Users/dtjld/workspace/AIoT/src/LiteOS_Lab/iot_link/network/dtls/mbedtls/mbedtls-2.16.2/library\oid.c **** typedef struct {
 543:C:/Users/dtjld/workspace/AIoT/src/LiteOS_Lab/iot_link/network/dtls/mbedtls/mbedtls-2.16.2/library\oid.c ****     mbedtls_oid_descriptor_t    descriptor;
 544:C:/Users/dtjld/workspace/AIoT/src/LiteOS_Lab/iot_link/network/dtls/mbedtls/mbedtls-2.16.2/library\oid.c ****     mbedtls_cipher_type_t       cipher_alg;
 545:C:/Users/dtjld/workspace/AIoT/src/LiteOS_Lab/iot_link/network/dtls/mbedtls/mbedtls-2.16.2/library\oid.c **** } oid_cipher_alg_t;
 546:C:/Users/dtjld/workspace/AIoT/src/LiteOS_Lab/iot_link/network/dtls/mbedtls/mbedtls-2.16.2/library\oid.c **** 
 547:C:/Users/dtjld/workspace/AIoT/src/LiteOS_Lab/iot_link/network/dtls/mbedtls/mbedtls-2.16.2/library\oid.c **** static const oid_cipher_alg_t oid_cipher_alg[] =
 548:C:/Users/dtjld/workspace/AIoT/src/LiteOS_Lab/iot_link/network/dtls/mbedtls/mbedtls-2.16.2/library\oid.c **** {
 549:C:/Users/dtjld/workspace/AIoT/src/LiteOS_Lab/iot_link/network/dtls/mbedtls/mbedtls-2.16.2/library\oid.c ****     {
 550:C:/Users/dtjld/workspace/AIoT/src/LiteOS_Lab/iot_link/network/dtls/mbedtls/mbedtls-2.16.2/library\oid.c ****         { ADD_LEN( MBEDTLS_OID_DES_CBC ),              "desCBC",       "DES-CBC" },
 551:C:/Users/dtjld/workspace/AIoT/src/LiteOS_Lab/iot_link/network/dtls/mbedtls/mbedtls-2.16.2/library\oid.c ****         MBEDTLS_CIPHER_DES_CBC,
 552:C:/Users/dtjld/workspace/AIoT/src/LiteOS_Lab/iot_link/network/dtls/mbedtls/mbedtls-2.16.2/library\oid.c ****     },
 553:C:/Users/dtjld/workspace/AIoT/src/LiteOS_Lab/iot_link/network/dtls/mbedtls/mbedtls-2.16.2/library\oid.c ****     {
 554:C:/Users/dtjld/workspace/AIoT/src/LiteOS_Lab/iot_link/network/dtls/mbedtls/mbedtls-2.16.2/library\oid.c ****         { ADD_LEN( MBEDTLS_OID_DES_EDE3_CBC ),         "des-ede3-cbc", "DES-EDE3-CBC" },
 555:C:/Users/dtjld/workspace/AIoT/src/LiteOS_Lab/iot_link/network/dtls/mbedtls/mbedtls-2.16.2/library\oid.c ****         MBEDTLS_CIPHER_DES_EDE3_CBC,
 556:C:/Users/dtjld/workspace/AIoT/src/LiteOS_Lab/iot_link/network/dtls/mbedtls/mbedtls-2.16.2/library\oid.c ****     },
 557:C:/Users/dtjld/workspace/AIoT/src/LiteOS_Lab/iot_link/network/dtls/mbedtls/mbedtls-2.16.2/library\oid.c ****     {
 558:C:/Users/dtjld/workspace/AIoT/src/LiteOS_Lab/iot_link/network/dtls/mbedtls/mbedtls-2.16.2/library\oid.c ****         { NULL, 0, NULL, NULL },
 559:C:/Users/dtjld/workspace/AIoT/src/LiteOS_Lab/iot_link/network/dtls/mbedtls/mbedtls-2.16.2/library\oid.c ****         MBEDTLS_CIPHER_NONE,
 560:C:/Users/dtjld/workspace/AIoT/src/LiteOS_Lab/iot_link/network/dtls/mbedtls/mbedtls-2.16.2/library\oid.c ****     },
 561:C:/Users/dtjld/workspace/AIoT/src/LiteOS_Lab/iot_link/network/dtls/mbedtls/mbedtls-2.16.2/library\oid.c **** };
 562:C:/Users/dtjld/workspace/AIoT/src/LiteOS_Lab/iot_link/network/dtls/mbedtls/mbedtls-2.16.2/library\oid.c **** 
 563:C:/Users/dtjld/workspace/AIoT/src/LiteOS_Lab/iot_link/network/dtls/mbedtls/mbedtls-2.16.2/library\oid.c **** FN_OID_TYPED_FROM_ASN1(oid_cipher_alg_t, cipher_alg, oid_cipher_alg)
 2250              		.loc 1 563 0 is_stmt 1
 2251              		.cfi_startproc
 2252              		@ args = 0, pretend = 0, frame = 16
 2253              		@ frame_needed = 1, uses_anonymous_args = 0
ARM GAS  C:\Users\dtjld\AppData\Local\Temp\ccSrLLKC.s 			page 57


 2254 0000 80B5     		push	{r7, lr}
 2255              	.LCFI83:
 2256              		.cfi_def_cfa_offset 8
 2257              		.cfi_offset 7, -8
 2258              		.cfi_offset 14, -4
 2259 0002 84B0     		sub	sp, sp, #16
 2260              	.LCFI84:
 2261              		.cfi_def_cfa_offset 24
 2262 0004 00AF     		add	r7, sp, #0
 2263              	.LCFI85:
 2264              		.cfi_def_cfa_register 7
 2265 0006 7860     		str	r0, [r7, #4]
 2266              		.loc 1 563 0
 2267 0008 164B     		ldr	r3, .L104
 2268 000a FB60     		str	r3, [r7, #12]
 2269 000c FB68     		ldr	r3, [r7, #12]
 2270 000e BB60     		str	r3, [r7, #8]
 2271 0010 FB68     		ldr	r3, [r7, #12]
 2272 0012 002B     		cmp	r3, #0
 2273 0014 02D0     		beq	.L98
 2274              		.loc 1 563 0 is_stmt 0 discriminator 2
 2275 0016 7B68     		ldr	r3, [r7, #4]
 2276 0018 002B     		cmp	r3, #0
 2277 001a 1AD1     		bne	.L101
 2278              	.L98:
 2279              		.loc 1 563 0 discriminator 3
 2280 001c 0023     		movs	r3, #0
 2281 001e 1DE0     		b	.L100
 2282              	.L103:
 2283              		.loc 1 563 0 discriminator 9
 2284 0020 BB68     		ldr	r3, [r7, #8]
 2285 0022 5A68     		ldr	r2, [r3, #4]
 2286 0024 7B68     		ldr	r3, [r7, #4]
 2287 0026 5B68     		ldr	r3, [r3, #4]
 2288 0028 9A42     		cmp	r2, r3
 2289 002a 0DD1     		bne	.L102
 2290              		.loc 1 563 0 discriminator 4
 2291 002c BB68     		ldr	r3, [r7, #8]
 2292 002e 1868     		ldr	r0, [r3]
 2293 0030 7B68     		ldr	r3, [r7, #4]
 2294 0032 9968     		ldr	r1, [r3, #8]
 2295 0034 7B68     		ldr	r3, [r7, #4]
 2296 0036 5B68     		ldr	r3, [r3, #4]
 2297 0038 1A46     		mov	r2, r3
 2298 003a FFF7FEFF 		bl	memcmp
 2299 003e 0346     		mov	r3, r0
 2300 0040 002B     		cmp	r3, #0
 2301 0042 01D1     		bne	.L102
 2302              		.loc 1 563 0 discriminator 6
 2303 0044 FB68     		ldr	r3, [r7, #12]
 2304 0046 09E0     		b	.L100
 2305              	.L102:
 2306              		.loc 1 563 0 discriminator 7
 2307 0048 FB68     		ldr	r3, [r7, #12]
 2308 004a 1433     		adds	r3, r3, #20
 2309 004c FB60     		str	r3, [r7, #12]
 2310 004e FB68     		ldr	r3, [r7, #12]
ARM GAS  C:\Users\dtjld\AppData\Local\Temp\ccSrLLKC.s 			page 58


 2311 0050 BB60     		str	r3, [r7, #8]
 2312              	.L101:
 2313              		.loc 1 563 0 discriminator 8
 2314 0052 BB68     		ldr	r3, [r7, #8]
 2315 0054 1B68     		ldr	r3, [r3]
 2316 0056 002B     		cmp	r3, #0
 2317 0058 E2D1     		bne	.L103
 2318              		.loc 1 563 0 discriminator 10
 2319 005a 0023     		movs	r3, #0
 2320              	.L100:
 2321              		.loc 1 563 0
 2322 005c 1846     		mov	r0, r3
 2323 005e 1037     		adds	r7, r7, #16
 2324              	.LCFI86:
 2325              		.cfi_def_cfa_offset 8
 2326 0060 BD46     		mov	sp, r7
 2327              	.LCFI87:
 2328              		.cfi_def_cfa_register 13
 2329              		@ sp needed
 2330 0062 80BD     		pop	{r7, pc}
 2331              	.L105:
 2332              		.align	2
 2333              	.L104:
 2334 0064 00000000 		.word	oid_cipher_alg
 2335              		.cfi_endproc
 2336              	.LFE29:
 2338              		.section	.text.mbedtls_oid_get_cipher_alg,"ax",%progbits
 2339              		.align	1
 2340              		.global	mbedtls_oid_get_cipher_alg
 2341              		.syntax unified
 2342              		.thumb
 2343              		.thumb_func
 2344              		.fpu fpv4-sp-d16
 2346              	mbedtls_oid_get_cipher_alg:
 2347              	.LFB30:
 564:C:/Users/dtjld/workspace/AIoT/src/LiteOS_Lab/iot_link/network/dtls/mbedtls/mbedtls-2.16.2/library\oid.c **** FN_OID_GET_ATTR1(mbedtls_oid_get_cipher_alg, oid_cipher_alg_t, cipher_alg, mbedtls_cipher_type_t, c
 2348              		.loc 1 564 0 is_stmt 1
 2349              		.cfi_startproc
 2350              		@ args = 0, pretend = 0, frame = 16
 2351              		@ frame_needed = 1, uses_anonymous_args = 0
 2352 0000 80B5     		push	{r7, lr}
 2353              	.LCFI88:
 2354              		.cfi_def_cfa_offset 8
 2355              		.cfi_offset 7, -8
 2356              		.cfi_offset 14, -4
 2357 0002 84B0     		sub	sp, sp, #16
 2358              	.LCFI89:
 2359              		.cfi_def_cfa_offset 24
 2360 0004 00AF     		add	r7, sp, #0
 2361              	.LCFI90:
 2362              		.cfi_def_cfa_register 7
 2363 0006 7860     		str	r0, [r7, #4]
 2364 0008 3960     		str	r1, [r7]
 2365              		.loc 1 564 0
 2366 000a 7868     		ldr	r0, [r7, #4]
 2367 000c FFF7FEFF 		bl	oid_cipher_alg_from_asn1
 2368 0010 F860     		str	r0, [r7, #12]
ARM GAS  C:\Users\dtjld\AppData\Local\Temp\ccSrLLKC.s 			page 59


 2369 0012 FB68     		ldr	r3, [r7, #12]
 2370 0014 002B     		cmp	r3, #0
 2371 0016 02D1     		bne	.L107
 2372              		.loc 1 564 0 is_stmt 0 discriminator 1
 2373 0018 6FF02D03 		mvn	r3, #45
 2374 001c 04E0     		b	.L108
 2375              	.L107:
 2376              		.loc 1 564 0 discriminator 2
 2377 001e FB68     		ldr	r3, [r7, #12]
 2378 0020 1A7C     		ldrb	r2, [r3, #16]	@ zero_extendqisi2
 2379 0022 3B68     		ldr	r3, [r7]
 2380 0024 1A70     		strb	r2, [r3]
 2381 0026 0023     		movs	r3, #0
 2382              	.L108:
 2383              		.loc 1 564 0
 2384 0028 1846     		mov	r0, r3
 2385 002a 1037     		adds	r7, r7, #16
 2386              	.LCFI91:
 2387              		.cfi_def_cfa_offset 8
 2388 002c BD46     		mov	sp, r7
 2389              	.LCFI92:
 2390              		.cfi_def_cfa_register 13
 2391              		@ sp needed
 2392 002e 80BD     		pop	{r7, pc}
 2393              		.cfi_endproc
 2394              	.LFE30:
 2396              		.section	.rodata
 2397 09ed 000000   		.align	2
 2398              	.LC184:
 2399 09f0 2A864886 		.ascii	"*\206H\206\367\015\002\005\000"
 2399      F70D0205 
 2399      00
 2400 09f9 000000   		.align	2
 2401              	.LC185:
 2402 09fc 69642D6D 		.ascii	"id-md5\000"
 2402      643500
 2403 0a03 00       		.align	2
 2404              	.LC186:
 2405 0a04 4D443500 		.ascii	"MD5\000"
 2406              		.align	2
 2407              	.LC187:
 2408 0a08 2B0E0302 		.ascii	"+\016\003\002\032\000"
 2408      1A00
 2409 0a0e 0000     		.align	2
 2410              	.LC188:
 2411 0a10 69642D73 		.ascii	"id-sha1\000"
 2411      68613100 
 2412              		.align	2
 2413              	.LC189:
 2414 0a18 5348412D 		.ascii	"SHA-1\000"
 2414      3100
 2415 0a1e 0000     		.align	2
 2416              	.LC190:
 2417 0a20 60864801 		.ascii	"`\206H\001e\003\004\002\004\000"
 2417      65030402 
 2417      0400
 2418 0a2a 0000     		.align	2
ARM GAS  C:\Users\dtjld\AppData\Local\Temp\ccSrLLKC.s 			page 60


 2419              	.LC191:
 2420 0a2c 69642D73 		.ascii	"id-sha224\000"
 2420      68613232 
 2420      3400
 2421 0a36 0000     		.align	2
 2422              	.LC192:
 2423 0a38 5348412D 		.ascii	"SHA-224\000"
 2423      32323400 
 2424              		.align	2
 2425              	.LC193:
 2426 0a40 60864801 		.ascii	"`\206H\001e\003\004\002\001\000"
 2426      65030402 
 2426      0100
 2427 0a4a 0000     		.align	2
 2428              	.LC194:
 2429 0a4c 69642D73 		.ascii	"id-sha256\000"
 2429      68613235 
 2429      3600
 2430 0a56 0000     		.align	2
 2431              	.LC195:
 2432 0a58 5348412D 		.ascii	"SHA-256\000"
 2432      32353600 
 2433              		.align	2
 2434              	.LC196:
 2435 0a60 60864801 		.ascii	"`\206H\001e\003\004\002\002\000"
 2435      65030402 
 2435      0200
 2436 0a6a 0000     		.align	2
 2437              	.LC197:
 2438 0a6c 69642D73 		.ascii	"id-sha384\000"
 2438      68613338 
 2438      3400
 2439 0a76 0000     		.align	2
 2440              	.LC198:
 2441 0a78 5348412D 		.ascii	"SHA-384\000"
 2441      33383400 
 2442              		.align	2
 2443              	.LC199:
 2444 0a80 60864801 		.ascii	"`\206H\001e\003\004\002\003\000"
 2444      65030402 
 2444      0300
 2445 0a8a 0000     		.align	2
 2446              	.LC200:
 2447 0a8c 69642D73 		.ascii	"id-sha512\000"
 2447      68613531 
 2447      3200
 2448 0a96 0000     		.align	2
 2449              	.LC201:
 2450 0a98 5348412D 		.ascii	"SHA-512\000"
 2450      35313200 
 2451              		.section	.rodata.oid_md_alg,"a",%progbits
 2452              		.align	2
 2455              	oid_md_alg:
 2456 0000 F0090000 		.word	.LC184
 2457 0004 08000000 		.word	8
 2458 0008 FC090000 		.word	.LC185
 2459 000c 040A0000 		.word	.LC186
ARM GAS  C:\Users\dtjld\AppData\Local\Temp\ccSrLLKC.s 			page 61


 2460 0010 03       		.byte	3
 2461 0011 000000   		.space	3
 2462 0014 080A0000 		.word	.LC187
 2463 0018 05000000 		.word	5
 2464 001c 100A0000 		.word	.LC188
 2465 0020 180A0000 		.word	.LC189
 2466 0024 04       		.byte	4
 2467 0025 000000   		.space	3
 2468 0028 200A0000 		.word	.LC190
 2469 002c 09000000 		.word	9
 2470 0030 2C0A0000 		.word	.LC191
 2471 0034 380A0000 		.word	.LC192
 2472 0038 05       		.byte	5
 2473 0039 000000   		.space	3
 2474 003c 400A0000 		.word	.LC193
 2475 0040 09000000 		.word	9
 2476 0044 4C0A0000 		.word	.LC194
 2477 0048 580A0000 		.word	.LC195
 2478 004c 06       		.byte	6
 2479 004d 000000   		.space	3
 2480 0050 600A0000 		.word	.LC196
 2481 0054 09000000 		.word	9
 2482 0058 6C0A0000 		.word	.LC197
 2483 005c 780A0000 		.word	.LC198
 2484 0060 07       		.byte	7
 2485 0061 000000   		.space	3
 2486 0064 800A0000 		.word	.LC199
 2487 0068 09000000 		.word	9
 2488 006c 8C0A0000 		.word	.LC200
 2489 0070 980A0000 		.word	.LC201
 2490 0074 08       		.byte	8
 2491 0075 000000   		.space	3
 2492 0078 00000000 		.word	0
 2493 007c 00000000 		.word	0
 2494 0080 00000000 		.word	0
 2495 0084 00000000 		.word	0
 2496 0088 00       		.byte	0
 2497 0089 000000   		.space	3
 2498              		.section	.text.oid_md_alg_from_asn1,"ax",%progbits
 2499              		.align	1
 2500              		.syntax unified
 2501              		.thumb
 2502              		.thumb_func
 2503              		.fpu fpv4-sp-d16
 2505              	oid_md_alg_from_asn1:
 2506              	.LFB31:
 565:C:/Users/dtjld/workspace/AIoT/src/LiteOS_Lab/iot_link/network/dtls/mbedtls/mbedtls-2.16.2/library\oid.c **** #endif /* MBEDTLS_CIPHER_C */
 566:C:/Users/dtjld/workspace/AIoT/src/LiteOS_Lab/iot_link/network/dtls/mbedtls/mbedtls-2.16.2/library\oid.c **** 
 567:C:/Users/dtjld/workspace/AIoT/src/LiteOS_Lab/iot_link/network/dtls/mbedtls/mbedtls-2.16.2/library\oid.c **** #if defined(MBEDTLS_MD_C)
 568:C:/Users/dtjld/workspace/AIoT/src/LiteOS_Lab/iot_link/network/dtls/mbedtls/mbedtls-2.16.2/library\oid.c **** /*
 569:C:/Users/dtjld/workspace/AIoT/src/LiteOS_Lab/iot_link/network/dtls/mbedtls/mbedtls-2.16.2/library\oid.c ****  * For digestAlgorithm
 570:C:/Users/dtjld/workspace/AIoT/src/LiteOS_Lab/iot_link/network/dtls/mbedtls/mbedtls-2.16.2/library\oid.c ****  */
 571:C:/Users/dtjld/workspace/AIoT/src/LiteOS_Lab/iot_link/network/dtls/mbedtls/mbedtls-2.16.2/library\oid.c **** typedef struct {
 572:C:/Users/dtjld/workspace/AIoT/src/LiteOS_Lab/iot_link/network/dtls/mbedtls/mbedtls-2.16.2/library\oid.c ****     mbedtls_oid_descriptor_t    descriptor;
 573:C:/Users/dtjld/workspace/AIoT/src/LiteOS_Lab/iot_link/network/dtls/mbedtls/mbedtls-2.16.2/library\oid.c ****     mbedtls_md_type_t           md_alg;
 574:C:/Users/dtjld/workspace/AIoT/src/LiteOS_Lab/iot_link/network/dtls/mbedtls/mbedtls-2.16.2/library\oid.c **** } oid_md_alg_t;
 575:C:/Users/dtjld/workspace/AIoT/src/LiteOS_Lab/iot_link/network/dtls/mbedtls/mbedtls-2.16.2/library\oid.c **** 
ARM GAS  C:\Users\dtjld\AppData\Local\Temp\ccSrLLKC.s 			page 62


 576:C:/Users/dtjld/workspace/AIoT/src/LiteOS_Lab/iot_link/network/dtls/mbedtls/mbedtls-2.16.2/library\oid.c **** static const oid_md_alg_t oid_md_alg[] =
 577:C:/Users/dtjld/workspace/AIoT/src/LiteOS_Lab/iot_link/network/dtls/mbedtls/mbedtls-2.16.2/library\oid.c **** {
 578:C:/Users/dtjld/workspace/AIoT/src/LiteOS_Lab/iot_link/network/dtls/mbedtls/mbedtls-2.16.2/library\oid.c **** #if defined(MBEDTLS_MD2_C)
 579:C:/Users/dtjld/workspace/AIoT/src/LiteOS_Lab/iot_link/network/dtls/mbedtls/mbedtls-2.16.2/library\oid.c ****     {
 580:C:/Users/dtjld/workspace/AIoT/src/LiteOS_Lab/iot_link/network/dtls/mbedtls/mbedtls-2.16.2/library\oid.c ****         { ADD_LEN( MBEDTLS_OID_DIGEST_ALG_MD2 ),       "id-md2",       "MD2" },
 581:C:/Users/dtjld/workspace/AIoT/src/LiteOS_Lab/iot_link/network/dtls/mbedtls/mbedtls-2.16.2/library\oid.c ****         MBEDTLS_MD_MD2,
 582:C:/Users/dtjld/workspace/AIoT/src/LiteOS_Lab/iot_link/network/dtls/mbedtls/mbedtls-2.16.2/library\oid.c ****     },
 583:C:/Users/dtjld/workspace/AIoT/src/LiteOS_Lab/iot_link/network/dtls/mbedtls/mbedtls-2.16.2/library\oid.c **** #endif /* MBEDTLS_MD2_C */
 584:C:/Users/dtjld/workspace/AIoT/src/LiteOS_Lab/iot_link/network/dtls/mbedtls/mbedtls-2.16.2/library\oid.c **** #if defined(MBEDTLS_MD4_C)
 585:C:/Users/dtjld/workspace/AIoT/src/LiteOS_Lab/iot_link/network/dtls/mbedtls/mbedtls-2.16.2/library\oid.c ****     {
 586:C:/Users/dtjld/workspace/AIoT/src/LiteOS_Lab/iot_link/network/dtls/mbedtls/mbedtls-2.16.2/library\oid.c ****         { ADD_LEN( MBEDTLS_OID_DIGEST_ALG_MD4 ),       "id-md4",       "MD4" },
 587:C:/Users/dtjld/workspace/AIoT/src/LiteOS_Lab/iot_link/network/dtls/mbedtls/mbedtls-2.16.2/library\oid.c ****         MBEDTLS_MD_MD4,
 588:C:/Users/dtjld/workspace/AIoT/src/LiteOS_Lab/iot_link/network/dtls/mbedtls/mbedtls-2.16.2/library\oid.c ****     },
 589:C:/Users/dtjld/workspace/AIoT/src/LiteOS_Lab/iot_link/network/dtls/mbedtls/mbedtls-2.16.2/library\oid.c **** #endif /* MBEDTLS_MD4_C */
 590:C:/Users/dtjld/workspace/AIoT/src/LiteOS_Lab/iot_link/network/dtls/mbedtls/mbedtls-2.16.2/library\oid.c **** #if defined(MBEDTLS_MD5_C)
 591:C:/Users/dtjld/workspace/AIoT/src/LiteOS_Lab/iot_link/network/dtls/mbedtls/mbedtls-2.16.2/library\oid.c ****     {
 592:C:/Users/dtjld/workspace/AIoT/src/LiteOS_Lab/iot_link/network/dtls/mbedtls/mbedtls-2.16.2/library\oid.c ****         { ADD_LEN( MBEDTLS_OID_DIGEST_ALG_MD5 ),       "id-md5",       "MD5" },
 593:C:/Users/dtjld/workspace/AIoT/src/LiteOS_Lab/iot_link/network/dtls/mbedtls/mbedtls-2.16.2/library\oid.c ****         MBEDTLS_MD_MD5,
 594:C:/Users/dtjld/workspace/AIoT/src/LiteOS_Lab/iot_link/network/dtls/mbedtls/mbedtls-2.16.2/library\oid.c ****     },
 595:C:/Users/dtjld/workspace/AIoT/src/LiteOS_Lab/iot_link/network/dtls/mbedtls/mbedtls-2.16.2/library\oid.c **** #endif /* MBEDTLS_MD5_C */
 596:C:/Users/dtjld/workspace/AIoT/src/LiteOS_Lab/iot_link/network/dtls/mbedtls/mbedtls-2.16.2/library\oid.c **** #if defined(MBEDTLS_SHA1_C)
 597:C:/Users/dtjld/workspace/AIoT/src/LiteOS_Lab/iot_link/network/dtls/mbedtls/mbedtls-2.16.2/library\oid.c ****     {
 598:C:/Users/dtjld/workspace/AIoT/src/LiteOS_Lab/iot_link/network/dtls/mbedtls/mbedtls-2.16.2/library\oid.c ****         { ADD_LEN( MBEDTLS_OID_DIGEST_ALG_SHA1 ),      "id-sha1",      "SHA-1" },
 599:C:/Users/dtjld/workspace/AIoT/src/LiteOS_Lab/iot_link/network/dtls/mbedtls/mbedtls-2.16.2/library\oid.c ****         MBEDTLS_MD_SHA1,
 600:C:/Users/dtjld/workspace/AIoT/src/LiteOS_Lab/iot_link/network/dtls/mbedtls/mbedtls-2.16.2/library\oid.c ****     },
 601:C:/Users/dtjld/workspace/AIoT/src/LiteOS_Lab/iot_link/network/dtls/mbedtls/mbedtls-2.16.2/library\oid.c **** #endif /* MBEDTLS_SHA1_C */
 602:C:/Users/dtjld/workspace/AIoT/src/LiteOS_Lab/iot_link/network/dtls/mbedtls/mbedtls-2.16.2/library\oid.c **** #if defined(MBEDTLS_SHA256_C)
 603:C:/Users/dtjld/workspace/AIoT/src/LiteOS_Lab/iot_link/network/dtls/mbedtls/mbedtls-2.16.2/library\oid.c ****     {
 604:C:/Users/dtjld/workspace/AIoT/src/LiteOS_Lab/iot_link/network/dtls/mbedtls/mbedtls-2.16.2/library\oid.c ****         { ADD_LEN( MBEDTLS_OID_DIGEST_ALG_SHA224 ),    "id-sha224",    "SHA-224" },
 605:C:/Users/dtjld/workspace/AIoT/src/LiteOS_Lab/iot_link/network/dtls/mbedtls/mbedtls-2.16.2/library\oid.c ****         MBEDTLS_MD_SHA224,
 606:C:/Users/dtjld/workspace/AIoT/src/LiteOS_Lab/iot_link/network/dtls/mbedtls/mbedtls-2.16.2/library\oid.c ****     },
 607:C:/Users/dtjld/workspace/AIoT/src/LiteOS_Lab/iot_link/network/dtls/mbedtls/mbedtls-2.16.2/library\oid.c ****     {
 608:C:/Users/dtjld/workspace/AIoT/src/LiteOS_Lab/iot_link/network/dtls/mbedtls/mbedtls-2.16.2/library\oid.c ****         { ADD_LEN( MBEDTLS_OID_DIGEST_ALG_SHA256 ),    "id-sha256",    "SHA-256" },
 609:C:/Users/dtjld/workspace/AIoT/src/LiteOS_Lab/iot_link/network/dtls/mbedtls/mbedtls-2.16.2/library\oid.c ****         MBEDTLS_MD_SHA256,
 610:C:/Users/dtjld/workspace/AIoT/src/LiteOS_Lab/iot_link/network/dtls/mbedtls/mbedtls-2.16.2/library\oid.c ****     },
 611:C:/Users/dtjld/workspace/AIoT/src/LiteOS_Lab/iot_link/network/dtls/mbedtls/mbedtls-2.16.2/library\oid.c **** #endif /* MBEDTLS_SHA256_C */
 612:C:/Users/dtjld/workspace/AIoT/src/LiteOS_Lab/iot_link/network/dtls/mbedtls/mbedtls-2.16.2/library\oid.c **** #if defined(MBEDTLS_SHA512_C)
 613:C:/Users/dtjld/workspace/AIoT/src/LiteOS_Lab/iot_link/network/dtls/mbedtls/mbedtls-2.16.2/library\oid.c ****     {
 614:C:/Users/dtjld/workspace/AIoT/src/LiteOS_Lab/iot_link/network/dtls/mbedtls/mbedtls-2.16.2/library\oid.c ****         { ADD_LEN( MBEDTLS_OID_DIGEST_ALG_SHA384 ),    "id-sha384",    "SHA-384" },
 615:C:/Users/dtjld/workspace/AIoT/src/LiteOS_Lab/iot_link/network/dtls/mbedtls/mbedtls-2.16.2/library\oid.c ****         MBEDTLS_MD_SHA384,
 616:C:/Users/dtjld/workspace/AIoT/src/LiteOS_Lab/iot_link/network/dtls/mbedtls/mbedtls-2.16.2/library\oid.c ****     },
 617:C:/Users/dtjld/workspace/AIoT/src/LiteOS_Lab/iot_link/network/dtls/mbedtls/mbedtls-2.16.2/library\oid.c ****     {
 618:C:/Users/dtjld/workspace/AIoT/src/LiteOS_Lab/iot_link/network/dtls/mbedtls/mbedtls-2.16.2/library\oid.c ****         { ADD_LEN( MBEDTLS_OID_DIGEST_ALG_SHA512 ),    "id-sha512",    "SHA-512" },
 619:C:/Users/dtjld/workspace/AIoT/src/LiteOS_Lab/iot_link/network/dtls/mbedtls/mbedtls-2.16.2/library\oid.c ****         MBEDTLS_MD_SHA512,
 620:C:/Users/dtjld/workspace/AIoT/src/LiteOS_Lab/iot_link/network/dtls/mbedtls/mbedtls-2.16.2/library\oid.c ****     },
 621:C:/Users/dtjld/workspace/AIoT/src/LiteOS_Lab/iot_link/network/dtls/mbedtls/mbedtls-2.16.2/library\oid.c **** #endif /* MBEDTLS_SHA512_C */
 622:C:/Users/dtjld/workspace/AIoT/src/LiteOS_Lab/iot_link/network/dtls/mbedtls/mbedtls-2.16.2/library\oid.c ****     {
 623:C:/Users/dtjld/workspace/AIoT/src/LiteOS_Lab/iot_link/network/dtls/mbedtls/mbedtls-2.16.2/library\oid.c ****         { NULL, 0, NULL, NULL },
 624:C:/Users/dtjld/workspace/AIoT/src/LiteOS_Lab/iot_link/network/dtls/mbedtls/mbedtls-2.16.2/library\oid.c ****         MBEDTLS_MD_NONE,
 625:C:/Users/dtjld/workspace/AIoT/src/LiteOS_Lab/iot_link/network/dtls/mbedtls/mbedtls-2.16.2/library\oid.c ****     },
 626:C:/Users/dtjld/workspace/AIoT/src/LiteOS_Lab/iot_link/network/dtls/mbedtls/mbedtls-2.16.2/library\oid.c **** };
 627:C:/Users/dtjld/workspace/AIoT/src/LiteOS_Lab/iot_link/network/dtls/mbedtls/mbedtls-2.16.2/library\oid.c **** 
 628:C:/Users/dtjld/workspace/AIoT/src/LiteOS_Lab/iot_link/network/dtls/mbedtls/mbedtls-2.16.2/library\oid.c **** FN_OID_TYPED_FROM_ASN1(oid_md_alg_t, md_alg, oid_md_alg)
 2507              		.loc 1 628 0 is_stmt 1
 2508              		.cfi_startproc
 2509              		@ args = 0, pretend = 0, frame = 16
 2510              		@ frame_needed = 1, uses_anonymous_args = 0
ARM GAS  C:\Users\dtjld\AppData\Local\Temp\ccSrLLKC.s 			page 63


 2511 0000 80B5     		push	{r7, lr}
 2512              	.LCFI93:
 2513              		.cfi_def_cfa_offset 8
 2514              		.cfi_offset 7, -8
 2515              		.cfi_offset 14, -4
 2516 0002 84B0     		sub	sp, sp, #16
 2517              	.LCFI94:
 2518              		.cfi_def_cfa_offset 24
 2519 0004 00AF     		add	r7, sp, #0
 2520              	.LCFI95:
 2521              		.cfi_def_cfa_register 7
 2522 0006 7860     		str	r0, [r7, #4]
 2523              		.loc 1 628 0
 2524 0008 164B     		ldr	r3, .L116
 2525 000a FB60     		str	r3, [r7, #12]
 2526 000c FB68     		ldr	r3, [r7, #12]
 2527 000e BB60     		str	r3, [r7, #8]
 2528 0010 FB68     		ldr	r3, [r7, #12]
 2529 0012 002B     		cmp	r3, #0
 2530 0014 02D0     		beq	.L110
 2531              		.loc 1 628 0 is_stmt 0 discriminator 2
 2532 0016 7B68     		ldr	r3, [r7, #4]
 2533 0018 002B     		cmp	r3, #0
 2534 001a 1AD1     		bne	.L113
 2535              	.L110:
 2536              		.loc 1 628 0 discriminator 3
 2537 001c 0023     		movs	r3, #0
 2538 001e 1DE0     		b	.L112
 2539              	.L115:
 2540              		.loc 1 628 0 discriminator 9
 2541 0020 BB68     		ldr	r3, [r7, #8]
 2542 0022 5A68     		ldr	r2, [r3, #4]
 2543 0024 7B68     		ldr	r3, [r7, #4]
 2544 0026 5B68     		ldr	r3, [r3, #4]
 2545 0028 9A42     		cmp	r2, r3
 2546 002a 0DD1     		bne	.L114
 2547              		.loc 1 628 0 discriminator 4
 2548 002c BB68     		ldr	r3, [r7, #8]
 2549 002e 1868     		ldr	r0, [r3]
 2550 0030 7B68     		ldr	r3, [r7, #4]
 2551 0032 9968     		ldr	r1, [r3, #8]
 2552 0034 7B68     		ldr	r3, [r7, #4]
 2553 0036 5B68     		ldr	r3, [r3, #4]
 2554 0038 1A46     		mov	r2, r3
 2555 003a FFF7FEFF 		bl	memcmp
 2556 003e 0346     		mov	r3, r0
 2557 0040 002B     		cmp	r3, #0
 2558 0042 01D1     		bne	.L114
 2559              		.loc 1 628 0 discriminator 6
 2560 0044 FB68     		ldr	r3, [r7, #12]
 2561 0046 09E0     		b	.L112
 2562              	.L114:
 2563              		.loc 1 628 0 discriminator 7
 2564 0048 FB68     		ldr	r3, [r7, #12]
 2565 004a 1433     		adds	r3, r3, #20
 2566 004c FB60     		str	r3, [r7, #12]
 2567 004e FB68     		ldr	r3, [r7, #12]
ARM GAS  C:\Users\dtjld\AppData\Local\Temp\ccSrLLKC.s 			page 64


 2568 0050 BB60     		str	r3, [r7, #8]
 2569              	.L113:
 2570              		.loc 1 628 0 discriminator 8
 2571 0052 BB68     		ldr	r3, [r7, #8]
 2572 0054 1B68     		ldr	r3, [r3]
 2573 0056 002B     		cmp	r3, #0
 2574 0058 E2D1     		bne	.L115
 2575              		.loc 1 628 0 discriminator 10
 2576 005a 0023     		movs	r3, #0
 2577              	.L112:
 2578              		.loc 1 628 0
 2579 005c 1846     		mov	r0, r3
 2580 005e 1037     		adds	r7, r7, #16
 2581              	.LCFI96:
 2582              		.cfi_def_cfa_offset 8
 2583 0060 BD46     		mov	sp, r7
 2584              	.LCFI97:
 2585              		.cfi_def_cfa_register 13
 2586              		@ sp needed
 2587 0062 80BD     		pop	{r7, pc}
 2588              	.L117:
 2589              		.align	2
 2590              	.L116:
 2591 0064 00000000 		.word	oid_md_alg
 2592              		.cfi_endproc
 2593              	.LFE31:
 2595              		.section	.text.mbedtls_oid_get_md_alg,"ax",%progbits
 2596              		.align	1
 2597              		.global	mbedtls_oid_get_md_alg
 2598              		.syntax unified
 2599              		.thumb
 2600              		.thumb_func
 2601              		.fpu fpv4-sp-d16
 2603              	mbedtls_oid_get_md_alg:
 2604              	.LFB32:
 629:C:/Users/dtjld/workspace/AIoT/src/LiteOS_Lab/iot_link/network/dtls/mbedtls/mbedtls-2.16.2/library\oid.c **** FN_OID_GET_ATTR1(mbedtls_oid_get_md_alg, oid_md_alg_t, md_alg, mbedtls_md_type_t, md_alg)
 2605              		.loc 1 629 0 is_stmt 1
 2606              		.cfi_startproc
 2607              		@ args = 0, pretend = 0, frame = 16
 2608              		@ frame_needed = 1, uses_anonymous_args = 0
 2609 0000 80B5     		push	{r7, lr}
 2610              	.LCFI98:
 2611              		.cfi_def_cfa_offset 8
 2612              		.cfi_offset 7, -8
 2613              		.cfi_offset 14, -4
 2614 0002 84B0     		sub	sp, sp, #16
 2615              	.LCFI99:
 2616              		.cfi_def_cfa_offset 24
 2617 0004 00AF     		add	r7, sp, #0
 2618              	.LCFI100:
 2619              		.cfi_def_cfa_register 7
 2620 0006 7860     		str	r0, [r7, #4]
 2621 0008 3960     		str	r1, [r7]
 2622              		.loc 1 629 0
 2623 000a 7868     		ldr	r0, [r7, #4]
 2624 000c FFF7FEFF 		bl	oid_md_alg_from_asn1
 2625 0010 F860     		str	r0, [r7, #12]
ARM GAS  C:\Users\dtjld\AppData\Local\Temp\ccSrLLKC.s 			page 65


 2626 0012 FB68     		ldr	r3, [r7, #12]
 2627 0014 002B     		cmp	r3, #0
 2628 0016 02D1     		bne	.L119
 2629              		.loc 1 629 0 is_stmt 0 discriminator 1
 2630 0018 6FF02D03 		mvn	r3, #45
 2631 001c 04E0     		b	.L120
 2632              	.L119:
 2633              		.loc 1 629 0 discriminator 2
 2634 001e FB68     		ldr	r3, [r7, #12]
 2635 0020 1A7C     		ldrb	r2, [r3, #16]	@ zero_extendqisi2
 2636 0022 3B68     		ldr	r3, [r7]
 2637 0024 1A70     		strb	r2, [r3]
 2638 0026 0023     		movs	r3, #0
 2639              	.L120:
 2640              		.loc 1 629 0
 2641 0028 1846     		mov	r0, r3
 2642 002a 1037     		adds	r7, r7, #16
 2643              	.LCFI101:
 2644              		.cfi_def_cfa_offset 8
 2645 002c BD46     		mov	sp, r7
 2646              	.LCFI102:
 2647              		.cfi_def_cfa_register 13
 2648              		@ sp needed
 2649 002e 80BD     		pop	{r7, pc}
 2650              		.cfi_endproc
 2651              	.LFE32:
 2653              		.section	.text.mbedtls_oid_get_oid_by_md,"ax",%progbits
 2654              		.align	1
 2655              		.global	mbedtls_oid_get_oid_by_md
 2656              		.syntax unified
 2657              		.thumb
 2658              		.thumb_func
 2659              		.fpu fpv4-sp-d16
 2661              	mbedtls_oid_get_oid_by_md:
 2662              	.LFB33:
 630:C:/Users/dtjld/workspace/AIoT/src/LiteOS_Lab/iot_link/network/dtls/mbedtls/mbedtls-2.16.2/library\oid.c **** FN_OID_GET_OID_BY_ATTR1(mbedtls_oid_get_oid_by_md, oid_md_alg_t, oid_md_alg, mbedtls_md_type_t, md_
 2663              		.loc 1 630 0 is_stmt 1
 2664              		.cfi_startproc
 2665              		@ args = 0, pretend = 0, frame = 24
 2666              		@ frame_needed = 1, uses_anonymous_args = 0
 2667              		@ link register save eliminated.
 2668 0000 80B4     		push	{r7}
 2669              	.LCFI103:
 2670              		.cfi_def_cfa_offset 4
 2671              		.cfi_offset 7, -4
 2672 0002 87B0     		sub	sp, sp, #28
 2673              	.LCFI104:
 2674              		.cfi_def_cfa_offset 32
 2675 0004 00AF     		add	r7, sp, #0
 2676              	.LCFI105:
 2677              		.cfi_def_cfa_register 7
 2678 0006 0346     		mov	r3, r0
 2679 0008 B960     		str	r1, [r7, #8]
 2680 000a 7A60     		str	r2, [r7, #4]
 2681 000c FB73     		strb	r3, [r7, #15]
 2682              		.loc 1 630 0
 2683 000e 104B     		ldr	r3, .L126
ARM GAS  C:\Users\dtjld\AppData\Local\Temp\ccSrLLKC.s 			page 66


 2684 0010 7B61     		str	r3, [r7, #20]
 2685 0012 11E0     		b	.L122
 2686              	.L125:
 2687              		.loc 1 630 0 is_stmt 0 discriminator 5
 2688 0014 7B69     		ldr	r3, [r7, #20]
 2689 0016 1B7C     		ldrb	r3, [r3, #16]	@ zero_extendqisi2
 2690 0018 FA7B     		ldrb	r2, [r7, #15]	@ zero_extendqisi2
 2691 001a 9A42     		cmp	r2, r3
 2692 001c 09D1     		bne	.L123
 2693              		.loc 1 630 0 discriminator 2
 2694 001e 7B69     		ldr	r3, [r7, #20]
 2695 0020 1A68     		ldr	r2, [r3]
 2696 0022 BB68     		ldr	r3, [r7, #8]
 2697 0024 1A60     		str	r2, [r3]
 2698 0026 7B69     		ldr	r3, [r7, #20]
 2699 0028 5A68     		ldr	r2, [r3, #4]
 2700 002a 7B68     		ldr	r3, [r7, #4]
 2701 002c 1A60     		str	r2, [r3]
 2702 002e 0023     		movs	r3, #0
 2703 0030 08E0     		b	.L124
 2704              	.L123:
 2705              		.loc 1 630 0 discriminator 3
 2706 0032 7B69     		ldr	r3, [r7, #20]
 2707 0034 1433     		adds	r3, r3, #20
 2708 0036 7B61     		str	r3, [r7, #20]
 2709              	.L122:
 2710              		.loc 1 630 0 discriminator 4
 2711 0038 7B69     		ldr	r3, [r7, #20]
 2712 003a 1B68     		ldr	r3, [r3]
 2713 003c 002B     		cmp	r3, #0
 2714 003e E9D1     		bne	.L125
 2715              		.loc 1 630 0 discriminator 6
 2716 0040 6FF02D03 		mvn	r3, #45
 2717              	.L124:
 2718              		.loc 1 630 0
 2719 0044 1846     		mov	r0, r3
 2720 0046 1C37     		adds	r7, r7, #28
 2721              	.LCFI106:
 2722              		.cfi_def_cfa_offset 4
 2723 0048 BD46     		mov	sp, r7
 2724              	.LCFI107:
 2725              		.cfi_def_cfa_register 13
 2726              		@ sp needed
 2727 004a 5DF8047B 		ldr	r7, [sp], #4
 2728              	.LCFI108:
 2729              		.cfi_restore 7
 2730              		.cfi_def_cfa_offset 0
 2731 004e 7047     		bx	lr
 2732              	.L127:
 2733              		.align	2
 2734              	.L126:
 2735 0050 00000000 		.word	oid_md_alg
 2736              		.cfi_endproc
 2737              	.LFE33:
 2739              		.section	.rodata
 2740              		.align	2
 2741              	.LC202:
ARM GAS  C:\Users\dtjld\AppData\Local\Temp\ccSrLLKC.s 			page 67


 2742 0aa0 2A864886 		.ascii	"*\206H\206\367\015\002\007\000"
 2742      F70D0207 
 2742      00
 2743 0aa9 000000   		.align	2
 2744              	.LC203:
 2745 0aac 686D6163 		.ascii	"hmacSHA1\000"
 2745      53484131 
 2745      00
 2746 0ab5 000000   		.align	2
 2747              	.LC204:
 2748 0ab8 484D4143 		.ascii	"HMAC-SHA-1\000"
 2748      2D534841 
 2748      2D3100
 2749 0ac3 00       		.align	2
 2750              	.LC205:
 2751 0ac4 2A864886 		.ascii	"*\206H\206\367\015\002\010\000"
 2751      F70D0208 
 2751      00
 2752 0acd 000000   		.align	2
 2753              	.LC206:
 2754 0ad0 686D6163 		.ascii	"hmacSHA224\000"
 2754      53484132 
 2754      323400
 2755 0adb 00       		.align	2
 2756              	.LC207:
 2757 0adc 484D4143 		.ascii	"HMAC-SHA-224\000"
 2757      2D534841 
 2757      2D323234 
 2757      00
 2758 0ae9 000000   		.align	2
 2759              	.LC208:
 2760 0aec 2A864886 		.ascii	"*\206H\206\367\015\002\011\000"
 2760      F70D0209 
 2760      00
 2761 0af5 000000   		.align	2
 2762              	.LC209:
 2763 0af8 686D6163 		.ascii	"hmacSHA256\000"
 2763      53484132 
 2763      353600
 2764 0b03 00       		.align	2
 2765              	.LC210:
 2766 0b04 484D4143 		.ascii	"HMAC-SHA-256\000"
 2766      2D534841 
 2766      2D323536 
 2766      00
 2767 0b11 000000   		.align	2
 2768              	.LC211:
 2769 0b14 2A864886 		.ascii	"*\206H\206\367\015\002\012\000"
 2769      F70D020A 
 2769      00
 2770 0b1d 000000   		.align	2
 2771              	.LC212:
 2772 0b20 686D6163 		.ascii	"hmacSHA384\000"
 2772      53484133 
 2772      383400
 2773 0b2b 00       		.align	2
 2774              	.LC213:
ARM GAS  C:\Users\dtjld\AppData\Local\Temp\ccSrLLKC.s 			page 68


 2775 0b2c 484D4143 		.ascii	"HMAC-SHA-384\000"
 2775      2D534841 
 2775      2D333834 
 2775      00
 2776 0b39 000000   		.align	2
 2777              	.LC214:
 2778 0b3c 2A864886 		.ascii	"*\206H\206\367\015\002\013\000"
 2778      F70D020B 
 2778      00
 2779 0b45 000000   		.align	2
 2780              	.LC215:
 2781 0b48 686D6163 		.ascii	"hmacSHA512\000"
 2781      53484135 
 2781      313200
 2782 0b53 00       		.align	2
 2783              	.LC216:
 2784 0b54 484D4143 		.ascii	"HMAC-SHA-512\000"
 2784      2D534841 
 2784      2D353132 
 2784      00
 2785              		.section	.rodata.oid_md_hmac,"a",%progbits
 2786              		.align	2
 2789              	oid_md_hmac:
 2790 0000 A00A0000 		.word	.LC202
 2791 0004 08000000 		.word	8
 2792 0008 AC0A0000 		.word	.LC203
 2793 000c B80A0000 		.word	.LC204
 2794 0010 04       		.byte	4
 2795 0011 000000   		.space	3
 2796 0014 C40A0000 		.word	.LC205
 2797 0018 08000000 		.word	8
 2798 001c D00A0000 		.word	.LC206
 2799 0020 DC0A0000 		.word	.LC207
 2800 0024 05       		.byte	5
 2801 0025 000000   		.space	3
 2802 0028 EC0A0000 		.word	.LC208
 2803 002c 08000000 		.word	8
 2804 0030 F80A0000 		.word	.LC209
 2805 0034 040B0000 		.word	.LC210
 2806 0038 06       		.byte	6
 2807 0039 000000   		.space	3
 2808 003c 140B0000 		.word	.LC211
 2809 0040 08000000 		.word	8
 2810 0044 200B0000 		.word	.LC212
 2811 0048 2C0B0000 		.word	.LC213
 2812 004c 07       		.byte	7
 2813 004d 000000   		.space	3
 2814 0050 3C0B0000 		.word	.LC214
 2815 0054 08000000 		.word	8
 2816 0058 480B0000 		.word	.LC215
 2817 005c 540B0000 		.word	.LC216
 2818 0060 08       		.byte	8
 2819 0061 000000   		.space	3
 2820 0064 00000000 		.word	0
 2821 0068 00000000 		.word	0
 2822 006c 00000000 		.word	0
 2823 0070 00000000 		.word	0
ARM GAS  C:\Users\dtjld\AppData\Local\Temp\ccSrLLKC.s 			page 69


 2824 0074 00       		.byte	0
 2825 0075 000000   		.space	3
 2826              		.section	.text.oid_md_hmac_from_asn1,"ax",%progbits
 2827              		.align	1
 2828              		.syntax unified
 2829              		.thumb
 2830              		.thumb_func
 2831              		.fpu fpv4-sp-d16
 2833              	oid_md_hmac_from_asn1:
 2834              	.LFB34:
 631:C:/Users/dtjld/workspace/AIoT/src/LiteOS_Lab/iot_link/network/dtls/mbedtls/mbedtls-2.16.2/library\oid.c **** 
 632:C:/Users/dtjld/workspace/AIoT/src/LiteOS_Lab/iot_link/network/dtls/mbedtls/mbedtls-2.16.2/library\oid.c **** /*
 633:C:/Users/dtjld/workspace/AIoT/src/LiteOS_Lab/iot_link/network/dtls/mbedtls/mbedtls-2.16.2/library\oid.c ****  * For HMAC digestAlgorithm
 634:C:/Users/dtjld/workspace/AIoT/src/LiteOS_Lab/iot_link/network/dtls/mbedtls/mbedtls-2.16.2/library\oid.c ****  */
 635:C:/Users/dtjld/workspace/AIoT/src/LiteOS_Lab/iot_link/network/dtls/mbedtls/mbedtls-2.16.2/library\oid.c **** typedef struct {
 636:C:/Users/dtjld/workspace/AIoT/src/LiteOS_Lab/iot_link/network/dtls/mbedtls/mbedtls-2.16.2/library\oid.c ****     mbedtls_oid_descriptor_t    descriptor;
 637:C:/Users/dtjld/workspace/AIoT/src/LiteOS_Lab/iot_link/network/dtls/mbedtls/mbedtls-2.16.2/library\oid.c ****     mbedtls_md_type_t           md_hmac;
 638:C:/Users/dtjld/workspace/AIoT/src/LiteOS_Lab/iot_link/network/dtls/mbedtls/mbedtls-2.16.2/library\oid.c **** } oid_md_hmac_t;
 639:C:/Users/dtjld/workspace/AIoT/src/LiteOS_Lab/iot_link/network/dtls/mbedtls/mbedtls-2.16.2/library\oid.c **** 
 640:C:/Users/dtjld/workspace/AIoT/src/LiteOS_Lab/iot_link/network/dtls/mbedtls/mbedtls-2.16.2/library\oid.c **** static const oid_md_hmac_t oid_md_hmac[] =
 641:C:/Users/dtjld/workspace/AIoT/src/LiteOS_Lab/iot_link/network/dtls/mbedtls/mbedtls-2.16.2/library\oid.c **** {
 642:C:/Users/dtjld/workspace/AIoT/src/LiteOS_Lab/iot_link/network/dtls/mbedtls/mbedtls-2.16.2/library\oid.c **** #if defined(MBEDTLS_SHA1_C)
 643:C:/Users/dtjld/workspace/AIoT/src/LiteOS_Lab/iot_link/network/dtls/mbedtls/mbedtls-2.16.2/library\oid.c ****     {
 644:C:/Users/dtjld/workspace/AIoT/src/LiteOS_Lab/iot_link/network/dtls/mbedtls/mbedtls-2.16.2/library\oid.c ****         { ADD_LEN( MBEDTLS_OID_HMAC_SHA1 ),      "hmacSHA1",      "HMAC-SHA-1" },
 645:C:/Users/dtjld/workspace/AIoT/src/LiteOS_Lab/iot_link/network/dtls/mbedtls/mbedtls-2.16.2/library\oid.c ****         MBEDTLS_MD_SHA1,
 646:C:/Users/dtjld/workspace/AIoT/src/LiteOS_Lab/iot_link/network/dtls/mbedtls/mbedtls-2.16.2/library\oid.c ****     },
 647:C:/Users/dtjld/workspace/AIoT/src/LiteOS_Lab/iot_link/network/dtls/mbedtls/mbedtls-2.16.2/library\oid.c **** #endif /* MBEDTLS_SHA1_C */
 648:C:/Users/dtjld/workspace/AIoT/src/LiteOS_Lab/iot_link/network/dtls/mbedtls/mbedtls-2.16.2/library\oid.c **** #if defined(MBEDTLS_SHA256_C)
 649:C:/Users/dtjld/workspace/AIoT/src/LiteOS_Lab/iot_link/network/dtls/mbedtls/mbedtls-2.16.2/library\oid.c ****     {
 650:C:/Users/dtjld/workspace/AIoT/src/LiteOS_Lab/iot_link/network/dtls/mbedtls/mbedtls-2.16.2/library\oid.c ****         { ADD_LEN( MBEDTLS_OID_HMAC_SHA224 ),    "hmacSHA224",    "HMAC-SHA-224" },
 651:C:/Users/dtjld/workspace/AIoT/src/LiteOS_Lab/iot_link/network/dtls/mbedtls/mbedtls-2.16.2/library\oid.c ****         MBEDTLS_MD_SHA224,
 652:C:/Users/dtjld/workspace/AIoT/src/LiteOS_Lab/iot_link/network/dtls/mbedtls/mbedtls-2.16.2/library\oid.c ****     },
 653:C:/Users/dtjld/workspace/AIoT/src/LiteOS_Lab/iot_link/network/dtls/mbedtls/mbedtls-2.16.2/library\oid.c ****     {
 654:C:/Users/dtjld/workspace/AIoT/src/LiteOS_Lab/iot_link/network/dtls/mbedtls/mbedtls-2.16.2/library\oid.c ****         { ADD_LEN( MBEDTLS_OID_HMAC_SHA256 ),    "hmacSHA256",    "HMAC-SHA-256" },
 655:C:/Users/dtjld/workspace/AIoT/src/LiteOS_Lab/iot_link/network/dtls/mbedtls/mbedtls-2.16.2/library\oid.c ****         MBEDTLS_MD_SHA256,
 656:C:/Users/dtjld/workspace/AIoT/src/LiteOS_Lab/iot_link/network/dtls/mbedtls/mbedtls-2.16.2/library\oid.c ****     },
 657:C:/Users/dtjld/workspace/AIoT/src/LiteOS_Lab/iot_link/network/dtls/mbedtls/mbedtls-2.16.2/library\oid.c **** #endif /* MBEDTLS_SHA256_C */
 658:C:/Users/dtjld/workspace/AIoT/src/LiteOS_Lab/iot_link/network/dtls/mbedtls/mbedtls-2.16.2/library\oid.c **** #if defined(MBEDTLS_SHA512_C)
 659:C:/Users/dtjld/workspace/AIoT/src/LiteOS_Lab/iot_link/network/dtls/mbedtls/mbedtls-2.16.2/library\oid.c ****     {
 660:C:/Users/dtjld/workspace/AIoT/src/LiteOS_Lab/iot_link/network/dtls/mbedtls/mbedtls-2.16.2/library\oid.c ****         { ADD_LEN( MBEDTLS_OID_HMAC_SHA384 ),    "hmacSHA384",    "HMAC-SHA-384" },
 661:C:/Users/dtjld/workspace/AIoT/src/LiteOS_Lab/iot_link/network/dtls/mbedtls/mbedtls-2.16.2/library\oid.c ****         MBEDTLS_MD_SHA384,
 662:C:/Users/dtjld/workspace/AIoT/src/LiteOS_Lab/iot_link/network/dtls/mbedtls/mbedtls-2.16.2/library\oid.c ****     },
 663:C:/Users/dtjld/workspace/AIoT/src/LiteOS_Lab/iot_link/network/dtls/mbedtls/mbedtls-2.16.2/library\oid.c ****     {
 664:C:/Users/dtjld/workspace/AIoT/src/LiteOS_Lab/iot_link/network/dtls/mbedtls/mbedtls-2.16.2/library\oid.c ****         { ADD_LEN( MBEDTLS_OID_HMAC_SHA512 ),    "hmacSHA512",    "HMAC-SHA-512" },
 665:C:/Users/dtjld/workspace/AIoT/src/LiteOS_Lab/iot_link/network/dtls/mbedtls/mbedtls-2.16.2/library\oid.c ****         MBEDTLS_MD_SHA512,
 666:C:/Users/dtjld/workspace/AIoT/src/LiteOS_Lab/iot_link/network/dtls/mbedtls/mbedtls-2.16.2/library\oid.c ****     },
 667:C:/Users/dtjld/workspace/AIoT/src/LiteOS_Lab/iot_link/network/dtls/mbedtls/mbedtls-2.16.2/library\oid.c **** #endif /* MBEDTLS_SHA512_C */
 668:C:/Users/dtjld/workspace/AIoT/src/LiteOS_Lab/iot_link/network/dtls/mbedtls/mbedtls-2.16.2/library\oid.c ****     {
 669:C:/Users/dtjld/workspace/AIoT/src/LiteOS_Lab/iot_link/network/dtls/mbedtls/mbedtls-2.16.2/library\oid.c ****         { NULL, 0, NULL, NULL },
 670:C:/Users/dtjld/workspace/AIoT/src/LiteOS_Lab/iot_link/network/dtls/mbedtls/mbedtls-2.16.2/library\oid.c ****         MBEDTLS_MD_NONE,
 671:C:/Users/dtjld/workspace/AIoT/src/LiteOS_Lab/iot_link/network/dtls/mbedtls/mbedtls-2.16.2/library\oid.c ****     },
 672:C:/Users/dtjld/workspace/AIoT/src/LiteOS_Lab/iot_link/network/dtls/mbedtls/mbedtls-2.16.2/library\oid.c **** };
 673:C:/Users/dtjld/workspace/AIoT/src/LiteOS_Lab/iot_link/network/dtls/mbedtls/mbedtls-2.16.2/library\oid.c **** 
 674:C:/Users/dtjld/workspace/AIoT/src/LiteOS_Lab/iot_link/network/dtls/mbedtls/mbedtls-2.16.2/library\oid.c **** FN_OID_TYPED_FROM_ASN1(oid_md_hmac_t, md_hmac, oid_md_hmac)
 2835              		.loc 1 674 0 is_stmt 1
 2836              		.cfi_startproc
 2837              		@ args = 0, pretend = 0, frame = 16
ARM GAS  C:\Users\dtjld\AppData\Local\Temp\ccSrLLKC.s 			page 70


 2838              		@ frame_needed = 1, uses_anonymous_args = 0
 2839 0000 80B5     		push	{r7, lr}
 2840              	.LCFI109:
 2841              		.cfi_def_cfa_offset 8
 2842              		.cfi_offset 7, -8
 2843              		.cfi_offset 14, -4
 2844 0002 84B0     		sub	sp, sp, #16
 2845              	.LCFI110:
 2846              		.cfi_def_cfa_offset 24
 2847 0004 00AF     		add	r7, sp, #0
 2848              	.LCFI111:
 2849              		.cfi_def_cfa_register 7
 2850 0006 7860     		str	r0, [r7, #4]
 2851              		.loc 1 674 0
 2852 0008 164B     		ldr	r3, .L135
 2853 000a FB60     		str	r3, [r7, #12]
 2854 000c FB68     		ldr	r3, [r7, #12]
 2855 000e BB60     		str	r3, [r7, #8]
 2856 0010 FB68     		ldr	r3, [r7, #12]
 2857 0012 002B     		cmp	r3, #0
 2858 0014 02D0     		beq	.L129
 2859              		.loc 1 674 0 is_stmt 0 discriminator 2
 2860 0016 7B68     		ldr	r3, [r7, #4]
 2861 0018 002B     		cmp	r3, #0
 2862 001a 1AD1     		bne	.L132
 2863              	.L129:
 2864              		.loc 1 674 0 discriminator 3
 2865 001c 0023     		movs	r3, #0
 2866 001e 1DE0     		b	.L131
 2867              	.L134:
 2868              		.loc 1 674 0 discriminator 9
 2869 0020 BB68     		ldr	r3, [r7, #8]
 2870 0022 5A68     		ldr	r2, [r3, #4]
 2871 0024 7B68     		ldr	r3, [r7, #4]
 2872 0026 5B68     		ldr	r3, [r3, #4]
 2873 0028 9A42     		cmp	r2, r3
 2874 002a 0DD1     		bne	.L133
 2875              		.loc 1 674 0 discriminator 4
 2876 002c BB68     		ldr	r3, [r7, #8]
 2877 002e 1868     		ldr	r0, [r3]
 2878 0030 7B68     		ldr	r3, [r7, #4]
 2879 0032 9968     		ldr	r1, [r3, #8]
 2880 0034 7B68     		ldr	r3, [r7, #4]
 2881 0036 5B68     		ldr	r3, [r3, #4]
 2882 0038 1A46     		mov	r2, r3
 2883 003a FFF7FEFF 		bl	memcmp
 2884 003e 0346     		mov	r3, r0
 2885 0040 002B     		cmp	r3, #0
 2886 0042 01D1     		bne	.L133
 2887              		.loc 1 674 0 discriminator 6
 2888 0044 FB68     		ldr	r3, [r7, #12]
 2889 0046 09E0     		b	.L131
 2890              	.L133:
 2891              		.loc 1 674 0 discriminator 7
 2892 0048 FB68     		ldr	r3, [r7, #12]
 2893 004a 1433     		adds	r3, r3, #20
 2894 004c FB60     		str	r3, [r7, #12]
ARM GAS  C:\Users\dtjld\AppData\Local\Temp\ccSrLLKC.s 			page 71


 2895 004e FB68     		ldr	r3, [r7, #12]
 2896 0050 BB60     		str	r3, [r7, #8]
 2897              	.L132:
 2898              		.loc 1 674 0 discriminator 8
 2899 0052 BB68     		ldr	r3, [r7, #8]
 2900 0054 1B68     		ldr	r3, [r3]
 2901 0056 002B     		cmp	r3, #0
 2902 0058 E2D1     		bne	.L134
 2903              		.loc 1 674 0 discriminator 10
 2904 005a 0023     		movs	r3, #0
 2905              	.L131:
 2906              		.loc 1 674 0
 2907 005c 1846     		mov	r0, r3
 2908 005e 1037     		adds	r7, r7, #16
 2909              	.LCFI112:
 2910              		.cfi_def_cfa_offset 8
 2911 0060 BD46     		mov	sp, r7
 2912              	.LCFI113:
 2913              		.cfi_def_cfa_register 13
 2914              		@ sp needed
 2915 0062 80BD     		pop	{r7, pc}
 2916              	.L136:
 2917              		.align	2
 2918              	.L135:
 2919 0064 00000000 		.word	oid_md_hmac
 2920              		.cfi_endproc
 2921              	.LFE34:
 2923              		.section	.text.mbedtls_oid_get_md_hmac,"ax",%progbits
 2924              		.align	1
 2925              		.global	mbedtls_oid_get_md_hmac
 2926              		.syntax unified
 2927              		.thumb
 2928              		.thumb_func
 2929              		.fpu fpv4-sp-d16
 2931              	mbedtls_oid_get_md_hmac:
 2932              	.LFB35:
 675:C:/Users/dtjld/workspace/AIoT/src/LiteOS_Lab/iot_link/network/dtls/mbedtls/mbedtls-2.16.2/library\oid.c **** FN_OID_GET_ATTR1(mbedtls_oid_get_md_hmac, oid_md_hmac_t, md_hmac, mbedtls_md_type_t, md_hmac)
 2933              		.loc 1 675 0 is_stmt 1
 2934              		.cfi_startproc
 2935              		@ args = 0, pretend = 0, frame = 16
 2936              		@ frame_needed = 1, uses_anonymous_args = 0
 2937 0000 80B5     		push	{r7, lr}
 2938              	.LCFI114:
 2939              		.cfi_def_cfa_offset 8
 2940              		.cfi_offset 7, -8
 2941              		.cfi_offset 14, -4
 2942 0002 84B0     		sub	sp, sp, #16
 2943              	.LCFI115:
 2944              		.cfi_def_cfa_offset 24
 2945 0004 00AF     		add	r7, sp, #0
 2946              	.LCFI116:
 2947              		.cfi_def_cfa_register 7
 2948 0006 7860     		str	r0, [r7, #4]
 2949 0008 3960     		str	r1, [r7]
 2950              		.loc 1 675 0
 2951 000a 7868     		ldr	r0, [r7, #4]
 2952 000c FFF7FEFF 		bl	oid_md_hmac_from_asn1
ARM GAS  C:\Users\dtjld\AppData\Local\Temp\ccSrLLKC.s 			page 72


 2953 0010 F860     		str	r0, [r7, #12]
 2954 0012 FB68     		ldr	r3, [r7, #12]
 2955 0014 002B     		cmp	r3, #0
 2956 0016 02D1     		bne	.L138
 2957              		.loc 1 675 0 is_stmt 0 discriminator 1
 2958 0018 6FF02D03 		mvn	r3, #45
 2959 001c 04E0     		b	.L139
 2960              	.L138:
 2961              		.loc 1 675 0 discriminator 2
 2962 001e FB68     		ldr	r3, [r7, #12]
 2963 0020 1A7C     		ldrb	r2, [r3, #16]	@ zero_extendqisi2
 2964 0022 3B68     		ldr	r3, [r7]
 2965 0024 1A70     		strb	r2, [r3]
 2966 0026 0023     		movs	r3, #0
 2967              	.L139:
 2968              		.loc 1 675 0
 2969 0028 1846     		mov	r0, r3
 2970 002a 1037     		adds	r7, r7, #16
 2971              	.LCFI117:
 2972              		.cfi_def_cfa_offset 8
 2973 002c BD46     		mov	sp, r7
 2974              	.LCFI118:
 2975              		.cfi_def_cfa_register 13
 2976              		@ sp needed
 2977 002e 80BD     		pop	{r7, pc}
 2978              		.cfi_endproc
 2979              	.LFE35:
 2981              		.section	.rodata
 2982 0b61 000000   		.align	2
 2983              	.LC217:
 2984 0b64 2A864886 		.ascii	"*\206H\206\367\015\001\014\001\003\000"
 2984      F70D010C 
 2984      010300
 2985 0b6f 00       		.align	2
 2986              	.LC218:
 2987 0b70 70626557 		.ascii	"pbeWithSHAAnd3-KeyTripleDES-CBC\000"
 2987      69746853 
 2987      4841416E 
 2987      64332D4B 
 2987      65795472 
 2988              		.align	2
 2989              	.LC219:
 2990 0b90 50424520 		.ascii	"PBE with SHA1 and 3-Key 3DES\000"
 2990      77697468 
 2990      20534841 
 2990      3120616E 
 2990      6420332D 
 2991 0bad 000000   		.align	2
 2992              	.LC220:
 2993 0bb0 2A864886 		.ascii	"*\206H\206\367\015\001\014\001\004\000"
 2993      F70D010C 
 2993      010400
 2994 0bbb 00       		.align	2
 2995              	.LC221:
 2996 0bbc 70626557 		.ascii	"pbeWithSHAAnd2-KeyTripleDES-CBC\000"
 2996      69746853 
 2996      4841416E 
ARM GAS  C:\Users\dtjld\AppData\Local\Temp\ccSrLLKC.s 			page 73


 2996      64322D4B 
 2996      65795472 
 2997              		.align	2
 2998              	.LC222:
 2999 0bdc 50424520 		.ascii	"PBE with SHA1 and 2-Key 3DES\000"
 2999      77697468 
 2999      20534841 
 2999      3120616E 
 2999      6420322D 
 3000              		.section	.rodata.oid_pkcs12_pbe_alg,"a",%progbits
 3001              		.align	2
 3004              	oid_pkcs12_pbe_alg:
 3005 0000 640B0000 		.word	.LC217
 3006 0004 0A000000 		.word	10
 3007 0008 700B0000 		.word	.LC218
 3008 000c 900B0000 		.word	.LC219
 3009 0010 04       		.byte	4
 3010 0011 25       		.byte	37
 3011 0012 0000     		.space	2
 3012 0014 B00B0000 		.word	.LC220
 3013 0018 0A000000 		.word	10
 3014 001c BC0B0000 		.word	.LC221
 3015 0020 DC0B0000 		.word	.LC222
 3016 0024 04       		.byte	4
 3017 0025 23       		.byte	35
 3018 0026 0000     		.space	2
 3019 0028 00000000 		.word	0
 3020 002c 00000000 		.word	0
 3021 0030 00000000 		.word	0
 3022 0034 00000000 		.word	0
 3023 0038 00       		.byte	0
 3024 0039 00       		.byte	0
 3025 003a 0000     		.space	2
 3026              		.section	.text.oid_pkcs12_pbe_alg_from_asn1,"ax",%progbits
 3027              		.align	1
 3028              		.syntax unified
 3029              		.thumb
 3030              		.thumb_func
 3031              		.fpu fpv4-sp-d16
 3033              	oid_pkcs12_pbe_alg_from_asn1:
 3034              	.LFB36:
 676:C:/Users/dtjld/workspace/AIoT/src/LiteOS_Lab/iot_link/network/dtls/mbedtls/mbedtls-2.16.2/library\oid.c **** #endif /* MBEDTLS_MD_C */
 677:C:/Users/dtjld/workspace/AIoT/src/LiteOS_Lab/iot_link/network/dtls/mbedtls/mbedtls-2.16.2/library\oid.c **** 
 678:C:/Users/dtjld/workspace/AIoT/src/LiteOS_Lab/iot_link/network/dtls/mbedtls/mbedtls-2.16.2/library\oid.c **** #if defined(MBEDTLS_PKCS12_C)
 679:C:/Users/dtjld/workspace/AIoT/src/LiteOS_Lab/iot_link/network/dtls/mbedtls/mbedtls-2.16.2/library\oid.c **** /*
 680:C:/Users/dtjld/workspace/AIoT/src/LiteOS_Lab/iot_link/network/dtls/mbedtls/mbedtls-2.16.2/library\oid.c ****  * For PKCS#12 PBEs
 681:C:/Users/dtjld/workspace/AIoT/src/LiteOS_Lab/iot_link/network/dtls/mbedtls/mbedtls-2.16.2/library\oid.c ****  */
 682:C:/Users/dtjld/workspace/AIoT/src/LiteOS_Lab/iot_link/network/dtls/mbedtls/mbedtls-2.16.2/library\oid.c **** typedef struct {
 683:C:/Users/dtjld/workspace/AIoT/src/LiteOS_Lab/iot_link/network/dtls/mbedtls/mbedtls-2.16.2/library\oid.c ****     mbedtls_oid_descriptor_t    descriptor;
 684:C:/Users/dtjld/workspace/AIoT/src/LiteOS_Lab/iot_link/network/dtls/mbedtls/mbedtls-2.16.2/library\oid.c ****     mbedtls_md_type_t           md_alg;
 685:C:/Users/dtjld/workspace/AIoT/src/LiteOS_Lab/iot_link/network/dtls/mbedtls/mbedtls-2.16.2/library\oid.c ****     mbedtls_cipher_type_t       cipher_alg;
 686:C:/Users/dtjld/workspace/AIoT/src/LiteOS_Lab/iot_link/network/dtls/mbedtls/mbedtls-2.16.2/library\oid.c **** } oid_pkcs12_pbe_alg_t;
 687:C:/Users/dtjld/workspace/AIoT/src/LiteOS_Lab/iot_link/network/dtls/mbedtls/mbedtls-2.16.2/library\oid.c **** 
 688:C:/Users/dtjld/workspace/AIoT/src/LiteOS_Lab/iot_link/network/dtls/mbedtls/mbedtls-2.16.2/library\oid.c **** static const oid_pkcs12_pbe_alg_t oid_pkcs12_pbe_alg[] =
 689:C:/Users/dtjld/workspace/AIoT/src/LiteOS_Lab/iot_link/network/dtls/mbedtls/mbedtls-2.16.2/library\oid.c **** {
 690:C:/Users/dtjld/workspace/AIoT/src/LiteOS_Lab/iot_link/network/dtls/mbedtls/mbedtls-2.16.2/library\oid.c ****     {
 691:C:/Users/dtjld/workspace/AIoT/src/LiteOS_Lab/iot_link/network/dtls/mbedtls/mbedtls-2.16.2/library\oid.c ****         { ADD_LEN( MBEDTLS_OID_PKCS12_PBE_SHA1_DES3_EDE_CBC ), "pbeWithSHAAnd3-KeyTripleDES-CBC", "
ARM GAS  C:\Users\dtjld\AppData\Local\Temp\ccSrLLKC.s 			page 74


 692:C:/Users/dtjld/workspace/AIoT/src/LiteOS_Lab/iot_link/network/dtls/mbedtls/mbedtls-2.16.2/library\oid.c ****         MBEDTLS_MD_SHA1,      MBEDTLS_CIPHER_DES_EDE3_CBC,
 693:C:/Users/dtjld/workspace/AIoT/src/LiteOS_Lab/iot_link/network/dtls/mbedtls/mbedtls-2.16.2/library\oid.c ****     },
 694:C:/Users/dtjld/workspace/AIoT/src/LiteOS_Lab/iot_link/network/dtls/mbedtls/mbedtls-2.16.2/library\oid.c ****     {
 695:C:/Users/dtjld/workspace/AIoT/src/LiteOS_Lab/iot_link/network/dtls/mbedtls/mbedtls-2.16.2/library\oid.c ****         { ADD_LEN( MBEDTLS_OID_PKCS12_PBE_SHA1_DES2_EDE_CBC ), "pbeWithSHAAnd2-KeyTripleDES-CBC", "
 696:C:/Users/dtjld/workspace/AIoT/src/LiteOS_Lab/iot_link/network/dtls/mbedtls/mbedtls-2.16.2/library\oid.c ****         MBEDTLS_MD_SHA1,      MBEDTLS_CIPHER_DES_EDE_CBC,
 697:C:/Users/dtjld/workspace/AIoT/src/LiteOS_Lab/iot_link/network/dtls/mbedtls/mbedtls-2.16.2/library\oid.c ****     },
 698:C:/Users/dtjld/workspace/AIoT/src/LiteOS_Lab/iot_link/network/dtls/mbedtls/mbedtls-2.16.2/library\oid.c ****     {
 699:C:/Users/dtjld/workspace/AIoT/src/LiteOS_Lab/iot_link/network/dtls/mbedtls/mbedtls-2.16.2/library\oid.c ****         { NULL, 0, NULL, NULL },
 700:C:/Users/dtjld/workspace/AIoT/src/LiteOS_Lab/iot_link/network/dtls/mbedtls/mbedtls-2.16.2/library\oid.c ****         MBEDTLS_MD_NONE, MBEDTLS_CIPHER_NONE,
 701:C:/Users/dtjld/workspace/AIoT/src/LiteOS_Lab/iot_link/network/dtls/mbedtls/mbedtls-2.16.2/library\oid.c ****     },
 702:C:/Users/dtjld/workspace/AIoT/src/LiteOS_Lab/iot_link/network/dtls/mbedtls/mbedtls-2.16.2/library\oid.c **** };
 703:C:/Users/dtjld/workspace/AIoT/src/LiteOS_Lab/iot_link/network/dtls/mbedtls/mbedtls-2.16.2/library\oid.c **** 
 704:C:/Users/dtjld/workspace/AIoT/src/LiteOS_Lab/iot_link/network/dtls/mbedtls/mbedtls-2.16.2/library\oid.c **** FN_OID_TYPED_FROM_ASN1(oid_pkcs12_pbe_alg_t, pkcs12_pbe_alg, oid_pkcs12_pbe_alg)
 3035              		.loc 1 704 0 is_stmt 1
 3036              		.cfi_startproc
 3037              		@ args = 0, pretend = 0, frame = 16
 3038              		@ frame_needed = 1, uses_anonymous_args = 0
 3039 0000 80B5     		push	{r7, lr}
 3040              	.LCFI119:
 3041              		.cfi_def_cfa_offset 8
 3042              		.cfi_offset 7, -8
 3043              		.cfi_offset 14, -4
 3044 0002 84B0     		sub	sp, sp, #16
 3045              	.LCFI120:
 3046              		.cfi_def_cfa_offset 24
 3047 0004 00AF     		add	r7, sp, #0
 3048              	.LCFI121:
 3049              		.cfi_def_cfa_register 7
 3050 0006 7860     		str	r0, [r7, #4]
 3051              		.loc 1 704 0
 3052 0008 164B     		ldr	r3, .L147
 3053 000a FB60     		str	r3, [r7, #12]
 3054 000c FB68     		ldr	r3, [r7, #12]
 3055 000e BB60     		str	r3, [r7, #8]
 3056 0010 FB68     		ldr	r3, [r7, #12]
 3057 0012 002B     		cmp	r3, #0
 3058 0014 02D0     		beq	.L141
 3059              		.loc 1 704 0 is_stmt 0 discriminator 2
 3060 0016 7B68     		ldr	r3, [r7, #4]
 3061 0018 002B     		cmp	r3, #0
 3062 001a 1AD1     		bne	.L144
 3063              	.L141:
 3064              		.loc 1 704 0 discriminator 3
 3065 001c 0023     		movs	r3, #0
 3066 001e 1DE0     		b	.L143
 3067              	.L146:
 3068              		.loc 1 704 0 discriminator 9
 3069 0020 BB68     		ldr	r3, [r7, #8]
 3070 0022 5A68     		ldr	r2, [r3, #4]
 3071 0024 7B68     		ldr	r3, [r7, #4]
 3072 0026 5B68     		ldr	r3, [r3, #4]
 3073 0028 9A42     		cmp	r2, r3
 3074 002a 0DD1     		bne	.L145
 3075              		.loc 1 704 0 discriminator 4
 3076 002c BB68     		ldr	r3, [r7, #8]
 3077 002e 1868     		ldr	r0, [r3]
 3078 0030 7B68     		ldr	r3, [r7, #4]
ARM GAS  C:\Users\dtjld\AppData\Local\Temp\ccSrLLKC.s 			page 75


 3079 0032 9968     		ldr	r1, [r3, #8]
 3080 0034 7B68     		ldr	r3, [r7, #4]
 3081 0036 5B68     		ldr	r3, [r3, #4]
 3082 0038 1A46     		mov	r2, r3
 3083 003a FFF7FEFF 		bl	memcmp
 3084 003e 0346     		mov	r3, r0
 3085 0040 002B     		cmp	r3, #0
 3086 0042 01D1     		bne	.L145
 3087              		.loc 1 704 0 discriminator 6
 3088 0044 FB68     		ldr	r3, [r7, #12]
 3089 0046 09E0     		b	.L143
 3090              	.L145:
 3091              		.loc 1 704 0 discriminator 7
 3092 0048 FB68     		ldr	r3, [r7, #12]
 3093 004a 1433     		adds	r3, r3, #20
 3094 004c FB60     		str	r3, [r7, #12]
 3095 004e FB68     		ldr	r3, [r7, #12]
 3096 0050 BB60     		str	r3, [r7, #8]
 3097              	.L144:
 3098              		.loc 1 704 0 discriminator 8
 3099 0052 BB68     		ldr	r3, [r7, #8]
 3100 0054 1B68     		ldr	r3, [r3]
 3101 0056 002B     		cmp	r3, #0
 3102 0058 E2D1     		bne	.L146
 3103              		.loc 1 704 0 discriminator 10
 3104 005a 0023     		movs	r3, #0
 3105              	.L143:
 3106              		.loc 1 704 0
 3107 005c 1846     		mov	r0, r3
 3108 005e 1037     		adds	r7, r7, #16
 3109              	.LCFI122:
 3110              		.cfi_def_cfa_offset 8
 3111 0060 BD46     		mov	sp, r7
 3112              	.LCFI123:
 3113              		.cfi_def_cfa_register 13
 3114              		@ sp needed
 3115 0062 80BD     		pop	{r7, pc}
 3116              	.L148:
 3117              		.align	2
 3118              	.L147:
 3119 0064 00000000 		.word	oid_pkcs12_pbe_alg
 3120              		.cfi_endproc
 3121              	.LFE36:
 3123              		.section	.text.mbedtls_oid_get_pkcs12_pbe_alg,"ax",%progbits
 3124              		.align	1
 3125              		.global	mbedtls_oid_get_pkcs12_pbe_alg
 3126              		.syntax unified
 3127              		.thumb
 3128              		.thumb_func
 3129              		.fpu fpv4-sp-d16
 3131              	mbedtls_oid_get_pkcs12_pbe_alg:
 3132              	.LFB37:
 705:C:/Users/dtjld/workspace/AIoT/src/LiteOS_Lab/iot_link/network/dtls/mbedtls/mbedtls-2.16.2/library\oid.c **** FN_OID_GET_ATTR2(mbedtls_oid_get_pkcs12_pbe_alg, oid_pkcs12_pbe_alg_t, pkcs12_pbe_alg, mbedtls_md_t
 3133              		.loc 1 705 0 is_stmt 1
 3134              		.cfi_startproc
 3135              		@ args = 0, pretend = 0, frame = 24
 3136              		@ frame_needed = 1, uses_anonymous_args = 0
ARM GAS  C:\Users\dtjld\AppData\Local\Temp\ccSrLLKC.s 			page 76


 3137 0000 80B5     		push	{r7, lr}
 3138              	.LCFI124:
 3139              		.cfi_def_cfa_offset 8
 3140              		.cfi_offset 7, -8
 3141              		.cfi_offset 14, -4
 3142 0002 86B0     		sub	sp, sp, #24
 3143              	.LCFI125:
 3144              		.cfi_def_cfa_offset 32
 3145 0004 00AF     		add	r7, sp, #0
 3146              	.LCFI126:
 3147              		.cfi_def_cfa_register 7
 3148 0006 F860     		str	r0, [r7, #12]
 3149 0008 B960     		str	r1, [r7, #8]
 3150 000a 7A60     		str	r2, [r7, #4]
 3151              		.loc 1 705 0
 3152 000c F868     		ldr	r0, [r7, #12]
 3153 000e FFF7FEFF 		bl	oid_pkcs12_pbe_alg_from_asn1
 3154 0012 7861     		str	r0, [r7, #20]
 3155 0014 7B69     		ldr	r3, [r7, #20]
 3156 0016 002B     		cmp	r3, #0
 3157 0018 02D1     		bne	.L150
 3158              		.loc 1 705 0 is_stmt 0 discriminator 1
 3159 001a 6FF02D03 		mvn	r3, #45
 3160 001e 08E0     		b	.L151
 3161              	.L150:
 3162              		.loc 1 705 0 discriminator 2
 3163 0020 7B69     		ldr	r3, [r7, #20]
 3164 0022 1A7C     		ldrb	r2, [r3, #16]	@ zero_extendqisi2
 3165 0024 BB68     		ldr	r3, [r7, #8]
 3166 0026 1A70     		strb	r2, [r3]
 3167 0028 7B69     		ldr	r3, [r7, #20]
 3168 002a 5A7C     		ldrb	r2, [r3, #17]	@ zero_extendqisi2
 3169 002c 7B68     		ldr	r3, [r7, #4]
 3170 002e 1A70     		strb	r2, [r3]
 3171 0030 0023     		movs	r3, #0
 3172              	.L151:
 3173              		.loc 1 705 0
 3174 0032 1846     		mov	r0, r3
 3175 0034 1837     		adds	r7, r7, #24
 3176              	.LCFI127:
 3177              		.cfi_def_cfa_offset 8
 3178 0036 BD46     		mov	sp, r7
 3179              	.LCFI128:
 3180              		.cfi_def_cfa_register 13
 3181              		@ sp needed
 3182 0038 80BD     		pop	{r7, pc}
 3183              		.cfi_endproc
 3184              	.LFE37:
 3186              		.section	.rodata
 3187 0bf9 000000   		.align	2
 3188              	.LC223:
 3189 0bfc 25642E25 		.ascii	"%d.%d\000"
 3189      6400
 3190 0c02 0000     		.align	2
 3191              	.LC224:
 3192 0c04 2E256400 		.ascii	".%d\000"
 3193              		.section	.text.mbedtls_oid_get_numeric_string,"ax",%progbits
ARM GAS  C:\Users\dtjld\AppData\Local\Temp\ccSrLLKC.s 			page 77


 3194              		.align	1
 3195              		.global	mbedtls_oid_get_numeric_string
 3196              		.syntax unified
 3197              		.thumb
 3198              		.thumb_func
 3199              		.fpu fpv4-sp-d16
 3201              	mbedtls_oid_get_numeric_string:
 3202              	.LFB38:
 706:C:/Users/dtjld/workspace/AIoT/src/LiteOS_Lab/iot_link/network/dtls/mbedtls/mbedtls-2.16.2/library\oid.c **** #endif /* MBEDTLS_PKCS12_C */
 707:C:/Users/dtjld/workspace/AIoT/src/LiteOS_Lab/iot_link/network/dtls/mbedtls/mbedtls-2.16.2/library\oid.c **** 
 708:C:/Users/dtjld/workspace/AIoT/src/LiteOS_Lab/iot_link/network/dtls/mbedtls/mbedtls-2.16.2/library\oid.c **** #define OID_SAFE_SNPRINTF                               \
 709:C:/Users/dtjld/workspace/AIoT/src/LiteOS_Lab/iot_link/network/dtls/mbedtls/mbedtls-2.16.2/library\oid.c ****     do {                                                \
 710:C:/Users/dtjld/workspace/AIoT/src/LiteOS_Lab/iot_link/network/dtls/mbedtls/mbedtls-2.16.2/library\oid.c ****         if( ret < 0 || (size_t) ret >= n )              \
 711:C:/Users/dtjld/workspace/AIoT/src/LiteOS_Lab/iot_link/network/dtls/mbedtls/mbedtls-2.16.2/library\oid.c ****             return( MBEDTLS_ERR_OID_BUF_TOO_SMALL );    \
 712:C:/Users/dtjld/workspace/AIoT/src/LiteOS_Lab/iot_link/network/dtls/mbedtls/mbedtls-2.16.2/library\oid.c ****                                                         \
 713:C:/Users/dtjld/workspace/AIoT/src/LiteOS_Lab/iot_link/network/dtls/mbedtls/mbedtls-2.16.2/library\oid.c ****         n -= (size_t) ret;                              \
 714:C:/Users/dtjld/workspace/AIoT/src/LiteOS_Lab/iot_link/network/dtls/mbedtls/mbedtls-2.16.2/library\oid.c ****         p += (size_t) ret;                              \
 715:C:/Users/dtjld/workspace/AIoT/src/LiteOS_Lab/iot_link/network/dtls/mbedtls/mbedtls-2.16.2/library\oid.c ****     } while( 0 )
 716:C:/Users/dtjld/workspace/AIoT/src/LiteOS_Lab/iot_link/network/dtls/mbedtls/mbedtls-2.16.2/library\oid.c **** 
 717:C:/Users/dtjld/workspace/AIoT/src/LiteOS_Lab/iot_link/network/dtls/mbedtls/mbedtls-2.16.2/library\oid.c **** /* Return the x.y.z.... style numeric string for the given OID */
 718:C:/Users/dtjld/workspace/AIoT/src/LiteOS_Lab/iot_link/network/dtls/mbedtls/mbedtls-2.16.2/library\oid.c **** int mbedtls_oid_get_numeric_string( char *buf, size_t size,
 719:C:/Users/dtjld/workspace/AIoT/src/LiteOS_Lab/iot_link/network/dtls/mbedtls/mbedtls-2.16.2/library\oid.c ****                             const mbedtls_asn1_buf *oid )
 720:C:/Users/dtjld/workspace/AIoT/src/LiteOS_Lab/iot_link/network/dtls/mbedtls/mbedtls-2.16.2/library\oid.c **** {
 3203              		.loc 1 720 0 is_stmt 1
 3204              		.cfi_startproc
 3205              		@ args = 0, pretend = 0, frame = 40
 3206              		@ frame_needed = 1, uses_anonymous_args = 0
 3207 0000 90B5     		push	{r4, r7, lr}
 3208              	.LCFI129:
 3209              		.cfi_def_cfa_offset 12
 3210              		.cfi_offset 4, -12
 3211              		.cfi_offset 7, -8
 3212              		.cfi_offset 14, -4
 3213 0002 8DB0     		sub	sp, sp, #52
 3214              	.LCFI130:
 3215              		.cfi_def_cfa_offset 64
 3216 0004 02AF     		add	r7, sp, #8
 3217              	.LCFI131:
 3218              		.cfi_def_cfa 7, 56
 3219 0006 F860     		str	r0, [r7, #12]
 3220 0008 B960     		str	r1, [r7, #8]
 3221 000a 7A60     		str	r2, [r7, #4]
 721:C:/Users/dtjld/workspace/AIoT/src/LiteOS_Lab/iot_link/network/dtls/mbedtls/mbedtls-2.16.2/library\oid.c ****     int ret;
 722:C:/Users/dtjld/workspace/AIoT/src/LiteOS_Lab/iot_link/network/dtls/mbedtls/mbedtls-2.16.2/library\oid.c ****     size_t i, n;
 723:C:/Users/dtjld/workspace/AIoT/src/LiteOS_Lab/iot_link/network/dtls/mbedtls/mbedtls-2.16.2/library\oid.c ****     unsigned int value;
 724:C:/Users/dtjld/workspace/AIoT/src/LiteOS_Lab/iot_link/network/dtls/mbedtls/mbedtls-2.16.2/library\oid.c ****     char *p;
 725:C:/Users/dtjld/workspace/AIoT/src/LiteOS_Lab/iot_link/network/dtls/mbedtls/mbedtls-2.16.2/library\oid.c **** 
 726:C:/Users/dtjld/workspace/AIoT/src/LiteOS_Lab/iot_link/network/dtls/mbedtls/mbedtls-2.16.2/library\oid.c ****     p = buf;
 3222              		.loc 1 726 0
 3223 000c FB68     		ldr	r3, [r7, #12]
 3224 000e BB61     		str	r3, [r7, #24]
 727:C:/Users/dtjld/workspace/AIoT/src/LiteOS_Lab/iot_link/network/dtls/mbedtls/mbedtls-2.16.2/library\oid.c ****     n = size;
 3225              		.loc 1 727 0
 3226 0010 BB68     		ldr	r3, [r7, #8]
 3227 0012 3B62     		str	r3, [r7, #32]
 728:C:/Users/dtjld/workspace/AIoT/src/LiteOS_Lab/iot_link/network/dtls/mbedtls/mbedtls-2.16.2/library\oid.c **** 
 729:C:/Users/dtjld/workspace/AIoT/src/LiteOS_Lab/iot_link/network/dtls/mbedtls/mbedtls-2.16.2/library\oid.c ****     /* First byte contains first two dots */
ARM GAS  C:\Users\dtjld\AppData\Local\Temp\ccSrLLKC.s 			page 78


 730:C:/Users/dtjld/workspace/AIoT/src/LiteOS_Lab/iot_link/network/dtls/mbedtls/mbedtls-2.16.2/library\oid.c ****     if( oid->len > 0 )
 3228              		.loc 1 730 0
 3229 0014 7B68     		ldr	r3, [r7, #4]
 3230 0016 5B68     		ldr	r3, [r3, #4]
 3231 0018 002B     		cmp	r3, #0
 3232 001a 30D0     		beq	.L153
 731:C:/Users/dtjld/workspace/AIoT/src/LiteOS_Lab/iot_link/network/dtls/mbedtls/mbedtls-2.16.2/library\oid.c ****     {
 732:C:/Users/dtjld/workspace/AIoT/src/LiteOS_Lab/iot_link/network/dtls/mbedtls/mbedtls-2.16.2/library\oid.c ****         ret = mbedtls_snprintf( p, n, "%d.%d", oid->p[0] / 40, oid->p[0] % 40 );
 3233              		.loc 1 732 0
 3234 001c 3F4B     		ldr	r3, .L163
 3235 001e 1C68     		ldr	r4, [r3]
 3236 0020 7B68     		ldr	r3, [r7, #4]
 3237 0022 9B68     		ldr	r3, [r3, #8]
 3238 0024 1B78     		ldrb	r3, [r3]	@ zero_extendqisi2
 3239 0026 3E4A     		ldr	r2, .L163+4
 3240 0028 A2FB0323 		umull	r2, r3, r2, r3
 3241 002c 5B09     		lsrs	r3, r3, #5
 3242 002e DBB2     		uxtb	r3, r3
 3243 0030 1846     		mov	r0, r3
 3244 0032 7B68     		ldr	r3, [r7, #4]
 3245 0034 9B68     		ldr	r3, [r3, #8]
 3246 0036 1A78     		ldrb	r2, [r3]	@ zero_extendqisi2
 3247 0038 394B     		ldr	r3, .L163+4
 3248 003a A3FB0213 		umull	r1, r3, r3, r2
 3249 003e 5909     		lsrs	r1, r3, #5
 3250 0040 0B46     		mov	r3, r1
 3251 0042 9B00     		lsls	r3, r3, #2
 3252 0044 0B44     		add	r3, r3, r1
 3253 0046 DB00     		lsls	r3, r3, #3
 3254 0048 D31A     		subs	r3, r2, r3
 3255 004a DBB2     		uxtb	r3, r3
 3256 004c 0093     		str	r3, [sp]
 3257 004e 0346     		mov	r3, r0
 3258 0050 344A     		ldr	r2, .L163+8
 3259 0052 396A     		ldr	r1, [r7, #32]
 3260 0054 B869     		ldr	r0, [r7, #24]
 3261 0056 A047     		blx	r4
 3262              	.LVL0:
 3263 0058 7861     		str	r0, [r7, #20]
 733:C:/Users/dtjld/workspace/AIoT/src/LiteOS_Lab/iot_link/network/dtls/mbedtls/mbedtls-2.16.2/library\oid.c ****         OID_SAFE_SNPRINTF;
 3264              		.loc 1 733 0
 3265 005a 7B69     		ldr	r3, [r7, #20]
 3266 005c 002B     		cmp	r3, #0
 3267 005e 03DB     		blt	.L154
 3268              		.loc 1 733 0 is_stmt 0 discriminator 2
 3269 0060 7B69     		ldr	r3, [r7, #20]
 3270 0062 3A6A     		ldr	r2, [r7, #32]
 3271 0064 9A42     		cmp	r2, r3
 3272 0066 02D8     		bhi	.L155
 3273              	.L154:
 3274              		.loc 1 733 0 discriminator 3
 3275 0068 6FF00A03 		mvn	r3, #10
 3276 006c 51E0     		b	.L156
 3277              	.L155:
 3278              		.loc 1 733 0 discriminator 4
 3279 006e 7B69     		ldr	r3, [r7, #20]
 3280 0070 3A6A     		ldr	r2, [r7, #32]
ARM GAS  C:\Users\dtjld\AppData\Local\Temp\ccSrLLKC.s 			page 79


 3281 0072 D31A     		subs	r3, r2, r3
 3282 0074 3B62     		str	r3, [r7, #32]
 3283 0076 7B69     		ldr	r3, [r7, #20]
 3284 0078 BA69     		ldr	r2, [r7, #24]
 3285 007a 1344     		add	r3, r3, r2
 3286 007c BB61     		str	r3, [r7, #24]
 3287              	.L153:
 734:C:/Users/dtjld/workspace/AIoT/src/LiteOS_Lab/iot_link/network/dtls/mbedtls/mbedtls-2.16.2/library\oid.c ****     }
 735:C:/Users/dtjld/workspace/AIoT/src/LiteOS_Lab/iot_link/network/dtls/mbedtls/mbedtls-2.16.2/library\oid.c **** 
 736:C:/Users/dtjld/workspace/AIoT/src/LiteOS_Lab/iot_link/network/dtls/mbedtls/mbedtls-2.16.2/library\oid.c ****     value = 0;
 3288              		.loc 1 736 0 is_stmt 1
 3289 007e 0023     		movs	r3, #0
 3290 0080 FB61     		str	r3, [r7, #28]
 737:C:/Users/dtjld/workspace/AIoT/src/LiteOS_Lab/iot_link/network/dtls/mbedtls/mbedtls-2.16.2/library\oid.c ****     for( i = 1; i < oid->len; i++ )
 3291              		.loc 1 737 0
 3292 0082 0123     		movs	r3, #1
 3293 0084 7B62     		str	r3, [r7, #36]
 3294 0086 3CE0     		b	.L157
 3295              	.L162:
 738:C:/Users/dtjld/workspace/AIoT/src/LiteOS_Lab/iot_link/network/dtls/mbedtls/mbedtls-2.16.2/library\oid.c ****     {
 739:C:/Users/dtjld/workspace/AIoT/src/LiteOS_Lab/iot_link/network/dtls/mbedtls/mbedtls-2.16.2/library\oid.c ****         /* Prevent overflow in value. */
 740:C:/Users/dtjld/workspace/AIoT/src/LiteOS_Lab/iot_link/network/dtls/mbedtls/mbedtls-2.16.2/library\oid.c ****         if( ( ( value << 7 ) >> 7 ) != value )
 3296              		.loc 1 740 0
 3297 0088 FB69     		ldr	r3, [r7, #28]
 3298 008a 23F07E43 		bic	r3, r3, #-33554432
 3299 008e FA69     		ldr	r2, [r7, #28]
 3300 0090 9A42     		cmp	r2, r3
 3301 0092 02D0     		beq	.L158
 741:C:/Users/dtjld/workspace/AIoT/src/LiteOS_Lab/iot_link/network/dtls/mbedtls/mbedtls-2.16.2/library\oid.c ****             return( MBEDTLS_ERR_OID_BUF_TOO_SMALL );
 3302              		.loc 1 741 0
 3303 0094 6FF00A03 		mvn	r3, #10
 3304 0098 3BE0     		b	.L156
 3305              	.L158:
 742:C:/Users/dtjld/workspace/AIoT/src/LiteOS_Lab/iot_link/network/dtls/mbedtls/mbedtls-2.16.2/library\oid.c **** 
 743:C:/Users/dtjld/workspace/AIoT/src/LiteOS_Lab/iot_link/network/dtls/mbedtls/mbedtls-2.16.2/library\oid.c ****         value <<= 7;
 3306              		.loc 1 743 0
 3307 009a FB69     		ldr	r3, [r7, #28]
 3308 009c DB01     		lsls	r3, r3, #7
 3309 009e FB61     		str	r3, [r7, #28]
 744:C:/Users/dtjld/workspace/AIoT/src/LiteOS_Lab/iot_link/network/dtls/mbedtls/mbedtls-2.16.2/library\oid.c ****         value += oid->p[i] & 0x7F;
 3310              		.loc 1 744 0
 3311 00a0 7B68     		ldr	r3, [r7, #4]
 3312 00a2 9A68     		ldr	r2, [r3, #8]
 3313 00a4 7B6A     		ldr	r3, [r7, #36]
 3314 00a6 1344     		add	r3, r3, r2
 3315 00a8 1B78     		ldrb	r3, [r3]	@ zero_extendqisi2
 3316 00aa 03F07F03 		and	r3, r3, #127
 3317 00ae FA69     		ldr	r2, [r7, #28]
 3318 00b0 1344     		add	r3, r3, r2
 3319 00b2 FB61     		str	r3, [r7, #28]
 745:C:/Users/dtjld/workspace/AIoT/src/LiteOS_Lab/iot_link/network/dtls/mbedtls/mbedtls-2.16.2/library\oid.c **** 
 746:C:/Users/dtjld/workspace/AIoT/src/LiteOS_Lab/iot_link/network/dtls/mbedtls/mbedtls-2.16.2/library\oid.c ****         if( !( oid->p[i] & 0x80 ) )
 3320              		.loc 1 746 0
 3321 00b4 7B68     		ldr	r3, [r7, #4]
 3322 00b6 9A68     		ldr	r2, [r3, #8]
 3323 00b8 7B6A     		ldr	r3, [r7, #36]
 3324 00ba 1344     		add	r3, r3, r2
ARM GAS  C:\Users\dtjld\AppData\Local\Temp\ccSrLLKC.s 			page 80


 3325 00bc 1B78     		ldrb	r3, [r3]	@ zero_extendqisi2
 3326 00be 5BB2     		sxtb	r3, r3
 3327 00c0 002B     		cmp	r3, #0
 3328 00c2 1BDB     		blt	.L159
 747:C:/Users/dtjld/workspace/AIoT/src/LiteOS_Lab/iot_link/network/dtls/mbedtls/mbedtls-2.16.2/library\oid.c ****         {
 748:C:/Users/dtjld/workspace/AIoT/src/LiteOS_Lab/iot_link/network/dtls/mbedtls/mbedtls-2.16.2/library\oid.c ****             /* Last byte */
 749:C:/Users/dtjld/workspace/AIoT/src/LiteOS_Lab/iot_link/network/dtls/mbedtls/mbedtls-2.16.2/library\oid.c ****             ret = mbedtls_snprintf( p, n, ".%d", value );
 3329              		.loc 1 749 0
 3330 00c4 154B     		ldr	r3, .L163
 3331 00c6 1C68     		ldr	r4, [r3]
 3332 00c8 FB69     		ldr	r3, [r7, #28]
 3333 00ca 174A     		ldr	r2, .L163+12
 3334 00cc 396A     		ldr	r1, [r7, #32]
 3335 00ce B869     		ldr	r0, [r7, #24]
 3336 00d0 A047     		blx	r4
 3337              	.LVL1:
 3338 00d2 7861     		str	r0, [r7, #20]
 750:C:/Users/dtjld/workspace/AIoT/src/LiteOS_Lab/iot_link/network/dtls/mbedtls/mbedtls-2.16.2/library\oid.c ****             OID_SAFE_SNPRINTF;
 3339              		.loc 1 750 0
 3340 00d4 7B69     		ldr	r3, [r7, #20]
 3341 00d6 002B     		cmp	r3, #0
 3342 00d8 03DB     		blt	.L160
 3343              		.loc 1 750 0 is_stmt 0 discriminator 2
 3344 00da 7B69     		ldr	r3, [r7, #20]
 3345 00dc 3A6A     		ldr	r2, [r7, #32]
 3346 00de 9A42     		cmp	r2, r3
 3347 00e0 02D8     		bhi	.L161
 3348              	.L160:
 3349              		.loc 1 750 0 discriminator 3
 3350 00e2 6FF00A03 		mvn	r3, #10
 3351 00e6 14E0     		b	.L156
 3352              	.L161:
 3353              		.loc 1 750 0 discriminator 4
 3354 00e8 7B69     		ldr	r3, [r7, #20]
 3355 00ea 3A6A     		ldr	r2, [r7, #32]
 3356 00ec D31A     		subs	r3, r2, r3
 3357 00ee 3B62     		str	r3, [r7, #32]
 3358 00f0 7B69     		ldr	r3, [r7, #20]
 3359 00f2 BA69     		ldr	r2, [r7, #24]
 3360 00f4 1344     		add	r3, r3, r2
 3361 00f6 BB61     		str	r3, [r7, #24]
 751:C:/Users/dtjld/workspace/AIoT/src/LiteOS_Lab/iot_link/network/dtls/mbedtls/mbedtls-2.16.2/library\oid.c ****             value = 0;
 3362              		.loc 1 751 0 is_stmt 1 discriminator 4
 3363 00f8 0023     		movs	r3, #0
 3364 00fa FB61     		str	r3, [r7, #28]
 3365              	.L159:
 737:C:/Users/dtjld/workspace/AIoT/src/LiteOS_Lab/iot_link/network/dtls/mbedtls/mbedtls-2.16.2/library\oid.c ****     {
 3366              		.loc 1 737 0 discriminator 2
 3367 00fc 7B6A     		ldr	r3, [r7, #36]
 3368 00fe 0133     		adds	r3, r3, #1
 3369 0100 7B62     		str	r3, [r7, #36]
 3370              	.L157:
 737:C:/Users/dtjld/workspace/AIoT/src/LiteOS_Lab/iot_link/network/dtls/mbedtls/mbedtls-2.16.2/library\oid.c ****     {
 3371              		.loc 1 737 0 is_stmt 0 discriminator 1
 3372 0102 7B68     		ldr	r3, [r7, #4]
 3373 0104 5B68     		ldr	r3, [r3, #4]
 3374 0106 7A6A     		ldr	r2, [r7, #36]
ARM GAS  C:\Users\dtjld\AppData\Local\Temp\ccSrLLKC.s 			page 81


 3375 0108 9A42     		cmp	r2, r3
 3376 010a BDD3     		bcc	.L162
 752:C:/Users/dtjld/workspace/AIoT/src/LiteOS_Lab/iot_link/network/dtls/mbedtls/mbedtls-2.16.2/library\oid.c ****         }
 753:C:/Users/dtjld/workspace/AIoT/src/LiteOS_Lab/iot_link/network/dtls/mbedtls/mbedtls-2.16.2/library\oid.c ****     }
 754:C:/Users/dtjld/workspace/AIoT/src/LiteOS_Lab/iot_link/network/dtls/mbedtls/mbedtls-2.16.2/library\oid.c **** 
 755:C:/Users/dtjld/workspace/AIoT/src/LiteOS_Lab/iot_link/network/dtls/mbedtls/mbedtls-2.16.2/library\oid.c ****     return( (int) ( size - n ) );
 3377              		.loc 1 755 0 is_stmt 1
 3378 010c BA68     		ldr	r2, [r7, #8]
 3379 010e 3B6A     		ldr	r3, [r7, #32]
 3380 0110 D31A     		subs	r3, r2, r3
 3381              	.L156:
 756:C:/Users/dtjld/workspace/AIoT/src/LiteOS_Lab/iot_link/network/dtls/mbedtls/mbedtls-2.16.2/library\oid.c **** }
 3382              		.loc 1 756 0
 3383 0112 1846     		mov	r0, r3
 3384 0114 2C37     		adds	r7, r7, #44
 3385              	.LCFI132:
 3386              		.cfi_def_cfa_offset 12
 3387 0116 BD46     		mov	sp, r7
 3388              	.LCFI133:
 3389              		.cfi_def_cfa_register 13
 3390              		@ sp needed
