ARM GAS  C:\Users\dtjld\AppData\Local\Temp\ccZrCbvi.s 			page 1


   1              		.cpu cortex-m4
   2              		.eabi_attribute 27, 1
   3              		.eabi_attribute 28, 1
   4              		.eabi_attribute 20, 1
   5              		.eabi_attribute 21, 1
   6              		.eabi_attribute 23, 3
   7              		.eabi_attribute 24, 1
   8              		.eabi_attribute 25, 1
   9              		.eabi_attribute 26, 1
  10              		.eabi_attribute 30, 6
  11              		.eabi_attribute 34, 1
  12              		.eabi_attribute 18, 4
  13              		.file	"paho_mqtt_port.c"
  14              		.text
  15              	.Ltext0:
  16              		.cfi_sections	.debug_frame
  17              		.section	.text.MQTTIsConnected,"ax",%progbits
  18              		.align	1
  19              		.syntax unified
  20              		.thumb
  21              		.thumb_func
  22              		.fpu fpv4-sp-d16
  24              	MQTTIsConnected:
  25              	.LFB3:
  26              		.file 1 "C:/Users/dtjld/workspace/AIoT/src/LiteOS_Lab/iot_link/network/mqtt/paho_mqtt/paho/MQTTCli
   1:C:/Users/dtjld/workspace/AIoT/src/LiteOS_Lab/iot_link/network/mqtt/paho_mqtt/paho/MQTTClient-C/src\MQTTClient.h **** /*******************************************************************************
   2:C:/Users/dtjld/workspace/AIoT/src/LiteOS_Lab/iot_link/network/mqtt/paho_mqtt/paho/MQTTClient-C/src\MQTTClient.h ****  * Copyright (c) 2014, 2017 IBM Corp.
   3:C:/Users/dtjld/workspace/AIoT/src/LiteOS_Lab/iot_link/network/mqtt/paho_mqtt/paho/MQTTClient-C/src\MQTTClient.h ****  *
   4:C:/Users/dtjld/workspace/AIoT/src/LiteOS_Lab/iot_link/network/mqtt/paho_mqtt/paho/MQTTClient-C/src\MQTTClient.h ****  * All rights reserved. This program and the accompanying materials
   5:C:/Users/dtjld/workspace/AIoT/src/LiteOS_Lab/iot_link/network/mqtt/paho_mqtt/paho/MQTTClient-C/src\MQTTClient.h ****  * are made available under the terms of the Eclipse Public License v1.0
   6:C:/Users/dtjld/workspace/AIoT/src/LiteOS_Lab/iot_link/network/mqtt/paho_mqtt/paho/MQTTClient-C/src\MQTTClient.h ****  * and Eclipse Distribution License v1.0 which accompany this distribution.
   7:C:/Users/dtjld/workspace/AIoT/src/LiteOS_Lab/iot_link/network/mqtt/paho_mqtt/paho/MQTTClient-C/src\MQTTClient.h ****  *
   8:C:/Users/dtjld/workspace/AIoT/src/LiteOS_Lab/iot_link/network/mqtt/paho_mqtt/paho/MQTTClient-C/src\MQTTClient.h ****  * The Eclipse Public License is available at
   9:C:/Users/dtjld/workspace/AIoT/src/LiteOS_Lab/iot_link/network/mqtt/paho_mqtt/paho/MQTTClient-C/src\MQTTClient.h ****  *    http://www.eclipse.org/legal/epl-v10.html
  10:C:/Users/dtjld/workspace/AIoT/src/LiteOS_Lab/iot_link/network/mqtt/paho_mqtt/paho/MQTTClient-C/src\MQTTClient.h ****  * and the Eclipse Distribution License is available at
  11:C:/Users/dtjld/workspace/AIoT/src/LiteOS_Lab/iot_link/network/mqtt/paho_mqtt/paho/MQTTClient-C/src\MQTTClient.h ****  *   http://www.eclipse.org/org/documents/edl-v10.php.
  12:C:/Users/dtjld/workspace/AIoT/src/LiteOS_Lab/iot_link/network/mqtt/paho_mqtt/paho/MQTTClient-C/src\MQTTClient.h ****  *
  13:C:/Users/dtjld/workspace/AIoT/src/LiteOS_Lab/iot_link/network/mqtt/paho_mqtt/paho/MQTTClient-C/src\MQTTClient.h ****  * Contributors:
  14:C:/Users/dtjld/workspace/AIoT/src/LiteOS_Lab/iot_link/network/mqtt/paho_mqtt/paho/MQTTClient-C/src\MQTTClient.h ****  *    Allan Stockdill-Mander/Ian Craggs - initial API and implementation and/or initial documentati
  15:C:/Users/dtjld/workspace/AIoT/src/LiteOS_Lab/iot_link/network/mqtt/paho_mqtt/paho/MQTTClient-C/src\MQTTClient.h ****  *    Ian Craggs - documentation and platform specific header
  16:C:/Users/dtjld/workspace/AIoT/src/LiteOS_Lab/iot_link/network/mqtt/paho_mqtt/paho/MQTTClient-C/src\MQTTClient.h ****  *    Ian Craggs - add setMessageHandler function
  17:C:/Users/dtjld/workspace/AIoT/src/LiteOS_Lab/iot_link/network/mqtt/paho_mqtt/paho/MQTTClient-C/src\MQTTClient.h ****  *******************************************************************************/
  18:C:/Users/dtjld/workspace/AIoT/src/LiteOS_Lab/iot_link/network/mqtt/paho_mqtt/paho/MQTTClient-C/src\MQTTClient.h **** 
  19:C:/Users/dtjld/workspace/AIoT/src/LiteOS_Lab/iot_link/network/mqtt/paho_mqtt/paho/MQTTClient-C/src\MQTTClient.h **** #if !defined(__MQTT_CLIENT_C_)
  20:C:/Users/dtjld/workspace/AIoT/src/LiteOS_Lab/iot_link/network/mqtt/paho_mqtt/paho/MQTTClient-C/src\MQTTClient.h **** #define __MQTT_CLIENT_C_
  21:C:/Users/dtjld/workspace/AIoT/src/LiteOS_Lab/iot_link/network/mqtt/paho_mqtt/paho/MQTTClient-C/src\MQTTClient.h **** 
  22:C:/Users/dtjld/workspace/AIoT/src/LiteOS_Lab/iot_link/network/mqtt/paho_mqtt/paho/MQTTClient-C/src\MQTTClient.h **** #if defined(__cplusplus)
  23:C:/Users/dtjld/workspace/AIoT/src/LiteOS_Lab/iot_link/network/mqtt/paho_mqtt/paho/MQTTClient-C/src\MQTTClient.h ****  extern "C" {
  24:C:/Users/dtjld/workspace/AIoT/src/LiteOS_Lab/iot_link/network/mqtt/paho_mqtt/paho/MQTTClient-C/src\MQTTClient.h **** #endif
  25:C:/Users/dtjld/workspace/AIoT/src/LiteOS_Lab/iot_link/network/mqtt/paho_mqtt/paho/MQTTClient-C/src\MQTTClient.h **** 
  26:C:/Users/dtjld/workspace/AIoT/src/LiteOS_Lab/iot_link/network/mqtt/paho_mqtt/paho/MQTTClient-C/src\MQTTClient.h **** #if defined(WIN32_DLL) || defined(WIN64_DLL)
  27:C:/Users/dtjld/workspace/AIoT/src/LiteOS_Lab/iot_link/network/mqtt/paho_mqtt/paho/MQTTClient-C/src\MQTTClient.h ****   #define DLLImport __declspec(dllimport)
  28:C:/Users/dtjld/workspace/AIoT/src/LiteOS_Lab/iot_link/network/mqtt/paho_mqtt/paho/MQTTClient-C/src\MQTTClient.h ****   #define DLLExport __declspec(dllexport)
  29:C:/Users/dtjld/workspace/AIoT/src/LiteOS_Lab/iot_link/network/mqtt/paho_mqtt/paho/MQTTClient-C/src\MQTTClient.h **** #elif defined(LINUX_SO)
  30:C:/Users/dtjld/workspace/AIoT/src/LiteOS_Lab/iot_link/network/mqtt/paho_mqtt/paho/MQTTClient-C/src\MQTTClient.h ****   #define DLLImport extern
  31:C:/Users/dtjld/workspace/AIoT/src/LiteOS_Lab/iot_link/network/mqtt/paho_mqtt/paho/MQTTClient-C/src\MQTTClient.h ****   #define DLLExport  __attribute__ ((visibility ("default")))
  32:C:/Users/dtjld/workspace/AIoT/src/LiteOS_Lab/iot_link/network/mqtt/paho_mqtt/paho/MQTTClient-C/src\MQTTClient.h **** #else
ARM GAS  C:\Users\dtjld\AppData\Local\Temp\ccZrCbvi.s 			page 2


  33:C:/Users/dtjld/workspace/AIoT/src/LiteOS_Lab/iot_link/network/mqtt/paho_mqtt/paho/MQTTClient-C/src\MQTTClient.h ****   #define DLLImport
  34:C:/Users/dtjld/workspace/AIoT/src/LiteOS_Lab/iot_link/network/mqtt/paho_mqtt/paho/MQTTClient-C/src\MQTTClient.h ****   #define DLLExport
  35:C:/Users/dtjld/workspace/AIoT/src/LiteOS_Lab/iot_link/network/mqtt/paho_mqtt/paho/MQTTClient-C/src\MQTTClient.h **** #endif
  36:C:/Users/dtjld/workspace/AIoT/src/LiteOS_Lab/iot_link/network/mqtt/paho_mqtt/paho/MQTTClient-C/src\MQTTClient.h **** 
  37:C:/Users/dtjld/workspace/AIoT/src/LiteOS_Lab/iot_link/network/mqtt/paho_mqtt/paho/MQTTClient-C/src\MQTTClient.h **** #include "MQTTPacket.h"
  38:C:/Users/dtjld/workspace/AIoT/src/LiteOS_Lab/iot_link/network/mqtt/paho_mqtt/paho/MQTTClient-C/src\MQTTClient.h **** #include "stdio.h"
  39:C:/Users/dtjld/workspace/AIoT/src/LiteOS_Lab/iot_link/network/mqtt/paho_mqtt/paho/MQTTClient-C/src\MQTTClient.h **** 
  40:C:/Users/dtjld/workspace/AIoT/src/LiteOS_Lab/iot_link/network/mqtt/paho_mqtt/paho/MQTTClient-C/src\MQTTClient.h **** #if defined(MQTTCLIENT_PLATFORM_HEADER)
  41:C:/Users/dtjld/workspace/AIoT/src/LiteOS_Lab/iot_link/network/mqtt/paho_mqtt/paho/MQTTClient-C/src\MQTTClient.h **** /* The following sequence of macros converts the MQTTCLIENT_PLATFORM_HEADER value
  42:C:/Users/dtjld/workspace/AIoT/src/LiteOS_Lab/iot_link/network/mqtt/paho_mqtt/paho/MQTTClient-C/src\MQTTClient.h ****  * into a string constant suitable for use with include.
  43:C:/Users/dtjld/workspace/AIoT/src/LiteOS_Lab/iot_link/network/mqtt/paho_mqtt/paho/MQTTClient-C/src\MQTTClient.h ****  */
  44:C:/Users/dtjld/workspace/AIoT/src/LiteOS_Lab/iot_link/network/mqtt/paho_mqtt/paho/MQTTClient-C/src\MQTTClient.h **** #define xstr(s) str(s)
  45:C:/Users/dtjld/workspace/AIoT/src/LiteOS_Lab/iot_link/network/mqtt/paho_mqtt/paho/MQTTClient-C/src\MQTTClient.h **** #define str(s) #s
  46:C:/Users/dtjld/workspace/AIoT/src/LiteOS_Lab/iot_link/network/mqtt/paho_mqtt/paho/MQTTClient-C/src\MQTTClient.h **** #include xstr(MQTTCLIENT_PLATFORM_HEADER)
  47:C:/Users/dtjld/workspace/AIoT/src/LiteOS_Lab/iot_link/network/mqtt/paho_mqtt/paho/MQTTClient-C/src\MQTTClient.h **** #endif
  48:C:/Users/dtjld/workspace/AIoT/src/LiteOS_Lab/iot_link/network/mqtt/paho_mqtt/paho/MQTTClient-C/src\MQTTClient.h **** 
  49:C:/Users/dtjld/workspace/AIoT/src/LiteOS_Lab/iot_link/network/mqtt/paho_mqtt/paho/MQTTClient-C/src\MQTTClient.h **** #define MAX_PACKET_ID 65535 /* according to the MQTT specification - do not change! */
  50:C:/Users/dtjld/workspace/AIoT/src/LiteOS_Lab/iot_link/network/mqtt/paho_mqtt/paho/MQTTClient-C/src\MQTTClient.h **** 
  51:C:/Users/dtjld/workspace/AIoT/src/LiteOS_Lab/iot_link/network/mqtt/paho_mqtt/paho/MQTTClient-C/src\MQTTClient.h **** #if !defined(MAX_MESSAGE_HANDLERS)
  52:C:/Users/dtjld/workspace/AIoT/src/LiteOS_Lab/iot_link/network/mqtt/paho_mqtt/paho/MQTTClient-C/src\MQTTClient.h **** #define MAX_MESSAGE_HANDLERS 5 /* redefinable - how many subscriptions do you want? */
  53:C:/Users/dtjld/workspace/AIoT/src/LiteOS_Lab/iot_link/network/mqtt/paho_mqtt/paho/MQTTClient-C/src\MQTTClient.h **** #endif
  54:C:/Users/dtjld/workspace/AIoT/src/LiteOS_Lab/iot_link/network/mqtt/paho_mqtt/paho/MQTTClient-C/src\MQTTClient.h **** 
  55:C:/Users/dtjld/workspace/AIoT/src/LiteOS_Lab/iot_link/network/mqtt/paho_mqtt/paho/MQTTClient-C/src\MQTTClient.h **** enum QoS { QOS0, QOS1, QOS2, SUBFAIL=0x80 };
  56:C:/Users/dtjld/workspace/AIoT/src/LiteOS_Lab/iot_link/network/mqtt/paho_mqtt/paho/MQTTClient-C/src\MQTTClient.h **** 
  57:C:/Users/dtjld/workspace/AIoT/src/LiteOS_Lab/iot_link/network/mqtt/paho_mqtt/paho/MQTTClient-C/src\MQTTClient.h **** /* all failure return codes must be negative */
  58:C:/Users/dtjld/workspace/AIoT/src/LiteOS_Lab/iot_link/network/mqtt/paho_mqtt/paho/MQTTClient-C/src\MQTTClient.h **** enum returnCode { BUFFER_OVERFLOW = -2, FAILURE = -1, MQTT_SUCCESS = 0 };
  59:C:/Users/dtjld/workspace/AIoT/src/LiteOS_Lab/iot_link/network/mqtt/paho_mqtt/paho/MQTTClient-C/src\MQTTClient.h **** 
  60:C:/Users/dtjld/workspace/AIoT/src/LiteOS_Lab/iot_link/network/mqtt/paho_mqtt/paho/MQTTClient-C/src\MQTTClient.h **** /* The Platform specific header must define the Network and Timer structures and functions
  61:C:/Users/dtjld/workspace/AIoT/src/LiteOS_Lab/iot_link/network/mqtt/paho_mqtt/paho/MQTTClient-C/src\MQTTClient.h ****  * which operate on them.
  62:C:/Users/dtjld/workspace/AIoT/src/LiteOS_Lab/iot_link/network/mqtt/paho_mqtt/paho/MQTTClient-C/src\MQTTClient.h ****  *
  63:C:/Users/dtjld/workspace/AIoT/src/LiteOS_Lab/iot_link/network/mqtt/paho_mqtt/paho/MQTTClient-C/src\MQTTClient.h **** typedef struct Network
  64:C:/Users/dtjld/workspace/AIoT/src/LiteOS_Lab/iot_link/network/mqtt/paho_mqtt/paho/MQTTClient-C/src\MQTTClient.h **** {
  65:C:/Users/dtjld/workspace/AIoT/src/LiteOS_Lab/iot_link/network/mqtt/paho_mqtt/paho/MQTTClient-C/src\MQTTClient.h **** 	int (*mqttread)(Network*, unsigned char* read_buffer, int, int);
  66:C:/Users/dtjld/workspace/AIoT/src/LiteOS_Lab/iot_link/network/mqtt/paho_mqtt/paho/MQTTClient-C/src\MQTTClient.h **** 	int (*mqttwrite)(Network*, unsigned char* send_buffer, int, int);
  67:C:/Users/dtjld/workspace/AIoT/src/LiteOS_Lab/iot_link/network/mqtt/paho_mqtt/paho/MQTTClient-C/src\MQTTClient.h **** } Network;*/
  68:C:/Users/dtjld/workspace/AIoT/src/LiteOS_Lab/iot_link/network/mqtt/paho_mqtt/paho/MQTTClient-C/src\MQTTClient.h **** 
  69:C:/Users/dtjld/workspace/AIoT/src/LiteOS_Lab/iot_link/network/mqtt/paho_mqtt/paho/MQTTClient-C/src\MQTTClient.h **** /* The Timer structure must be defined in the platform specific header,
  70:C:/Users/dtjld/workspace/AIoT/src/LiteOS_Lab/iot_link/network/mqtt/paho_mqtt/paho/MQTTClient-C/src\MQTTClient.h ****  * and have the following functions to operate on it.  */
  71:C:/Users/dtjld/workspace/AIoT/src/LiteOS_Lab/iot_link/network/mqtt/paho_mqtt/paho/MQTTClient-C/src\MQTTClient.h **** extern void TimerInit(Timer*);
  72:C:/Users/dtjld/workspace/AIoT/src/LiteOS_Lab/iot_link/network/mqtt/paho_mqtt/paho/MQTTClient-C/src\MQTTClient.h **** extern char TimerIsExpired(Timer*);
  73:C:/Users/dtjld/workspace/AIoT/src/LiteOS_Lab/iot_link/network/mqtt/paho_mqtt/paho/MQTTClient-C/src\MQTTClient.h **** extern void TimerCountdownMS(Timer*, unsigned int);
  74:C:/Users/dtjld/workspace/AIoT/src/LiteOS_Lab/iot_link/network/mqtt/paho_mqtt/paho/MQTTClient-C/src\MQTTClient.h **** extern void TimerCountdown(Timer*, unsigned int);
  75:C:/Users/dtjld/workspace/AIoT/src/LiteOS_Lab/iot_link/network/mqtt/paho_mqtt/paho/MQTTClient-C/src\MQTTClient.h **** extern int TimerLeftMS(Timer*);
  76:C:/Users/dtjld/workspace/AIoT/src/LiteOS_Lab/iot_link/network/mqtt/paho_mqtt/paho/MQTTClient-C/src\MQTTClient.h **** 
  77:C:/Users/dtjld/workspace/AIoT/src/LiteOS_Lab/iot_link/network/mqtt/paho_mqtt/paho/MQTTClient-C/src\MQTTClient.h **** typedef struct MQTTMessage
  78:C:/Users/dtjld/workspace/AIoT/src/LiteOS_Lab/iot_link/network/mqtt/paho_mqtt/paho/MQTTClient-C/src\MQTTClient.h **** {
  79:C:/Users/dtjld/workspace/AIoT/src/LiteOS_Lab/iot_link/network/mqtt/paho_mqtt/paho/MQTTClient-C/src\MQTTClient.h ****     enum QoS qos;
  80:C:/Users/dtjld/workspace/AIoT/src/LiteOS_Lab/iot_link/network/mqtt/paho_mqtt/paho/MQTTClient-C/src\MQTTClient.h ****     unsigned char retained;
  81:C:/Users/dtjld/workspace/AIoT/src/LiteOS_Lab/iot_link/network/mqtt/paho_mqtt/paho/MQTTClient-C/src\MQTTClient.h ****     unsigned char dup;
  82:C:/Users/dtjld/workspace/AIoT/src/LiteOS_Lab/iot_link/network/mqtt/paho_mqtt/paho/MQTTClient-C/src\MQTTClient.h ****     unsigned short id;
  83:C:/Users/dtjld/workspace/AIoT/src/LiteOS_Lab/iot_link/network/mqtt/paho_mqtt/paho/MQTTClient-C/src\MQTTClient.h ****     void *payload;
  84:C:/Users/dtjld/workspace/AIoT/src/LiteOS_Lab/iot_link/network/mqtt/paho_mqtt/paho/MQTTClient-C/src\MQTTClient.h ****     size_t payloadlen;
  85:C:/Users/dtjld/workspace/AIoT/src/LiteOS_Lab/iot_link/network/mqtt/paho_mqtt/paho/MQTTClient-C/src\MQTTClient.h **** } MQTTMessage;
  86:C:/Users/dtjld/workspace/AIoT/src/LiteOS_Lab/iot_link/network/mqtt/paho_mqtt/paho/MQTTClient-C/src\MQTTClient.h **** 
  87:C:/Users/dtjld/workspace/AIoT/src/LiteOS_Lab/iot_link/network/mqtt/paho_mqtt/paho/MQTTClient-C/src\MQTTClient.h **** typedef struct MessageData
  88:C:/Users/dtjld/workspace/AIoT/src/LiteOS_Lab/iot_link/network/mqtt/paho_mqtt/paho/MQTTClient-C/src\MQTTClient.h **** {
  89:C:/Users/dtjld/workspace/AIoT/src/LiteOS_Lab/iot_link/network/mqtt/paho_mqtt/paho/MQTTClient-C/src\MQTTClient.h ****     MQTTMessage* message;
ARM GAS  C:\Users\dtjld\AppData\Local\Temp\ccZrCbvi.s 			page 3


  90:C:/Users/dtjld/workspace/AIoT/src/LiteOS_Lab/iot_link/network/mqtt/paho_mqtt/paho/MQTTClient-C/src\MQTTClient.h ****     MQTTString* topicName;
  91:C:/Users/dtjld/workspace/AIoT/src/LiteOS_Lab/iot_link/network/mqtt/paho_mqtt/paho/MQTTClient-C/src\MQTTClient.h ****     void        *arg;
  92:C:/Users/dtjld/workspace/AIoT/src/LiteOS_Lab/iot_link/network/mqtt/paho_mqtt/paho/MQTTClient-C/src\MQTTClient.h **** } MessageData;
  93:C:/Users/dtjld/workspace/AIoT/src/LiteOS_Lab/iot_link/network/mqtt/paho_mqtt/paho/MQTTClient-C/src\MQTTClient.h **** 
  94:C:/Users/dtjld/workspace/AIoT/src/LiteOS_Lab/iot_link/network/mqtt/paho_mqtt/paho/MQTTClient-C/src\MQTTClient.h **** typedef struct MQTTConnackData
  95:C:/Users/dtjld/workspace/AIoT/src/LiteOS_Lab/iot_link/network/mqtt/paho_mqtt/paho/MQTTClient-C/src\MQTTClient.h **** {
  96:C:/Users/dtjld/workspace/AIoT/src/LiteOS_Lab/iot_link/network/mqtt/paho_mqtt/paho/MQTTClient-C/src\MQTTClient.h ****     unsigned char rc;
  97:C:/Users/dtjld/workspace/AIoT/src/LiteOS_Lab/iot_link/network/mqtt/paho_mqtt/paho/MQTTClient-C/src\MQTTClient.h ****     unsigned char sessionPresent;
  98:C:/Users/dtjld/workspace/AIoT/src/LiteOS_Lab/iot_link/network/mqtt/paho_mqtt/paho/MQTTClient-C/src\MQTTClient.h **** } MQTTConnackData;
  99:C:/Users/dtjld/workspace/AIoT/src/LiteOS_Lab/iot_link/network/mqtt/paho_mqtt/paho/MQTTClient-C/src\MQTTClient.h **** 
 100:C:/Users/dtjld/workspace/AIoT/src/LiteOS_Lab/iot_link/network/mqtt/paho_mqtt/paho/MQTTClient-C/src\MQTTClient.h **** typedef struct MQTTSubackData
 101:C:/Users/dtjld/workspace/AIoT/src/LiteOS_Lab/iot_link/network/mqtt/paho_mqtt/paho/MQTTClient-C/src\MQTTClient.h **** {
 102:C:/Users/dtjld/workspace/AIoT/src/LiteOS_Lab/iot_link/network/mqtt/paho_mqtt/paho/MQTTClient-C/src\MQTTClient.h ****     enum QoS grantedQoS;
 103:C:/Users/dtjld/workspace/AIoT/src/LiteOS_Lab/iot_link/network/mqtt/paho_mqtt/paho/MQTTClient-C/src\MQTTClient.h **** } MQTTSubackData;
 104:C:/Users/dtjld/workspace/AIoT/src/LiteOS_Lab/iot_link/network/mqtt/paho_mqtt/paho/MQTTClient-C/src\MQTTClient.h **** 
 105:C:/Users/dtjld/workspace/AIoT/src/LiteOS_Lab/iot_link/network/mqtt/paho_mqtt/paho/MQTTClient-C/src\MQTTClient.h **** typedef void (*messageHandler)(MessageData*);
 106:C:/Users/dtjld/workspace/AIoT/src/LiteOS_Lab/iot_link/network/mqtt/paho_mqtt/paho/MQTTClient-C/src\MQTTClient.h **** 
 107:C:/Users/dtjld/workspace/AIoT/src/LiteOS_Lab/iot_link/network/mqtt/paho_mqtt/paho/MQTTClient-C/src\MQTTClient.h **** typedef struct MQTTClient
 108:C:/Users/dtjld/workspace/AIoT/src/LiteOS_Lab/iot_link/network/mqtt/paho_mqtt/paho/MQTTClient-C/src\MQTTClient.h **** {
 109:C:/Users/dtjld/workspace/AIoT/src/LiteOS_Lab/iot_link/network/mqtt/paho_mqtt/paho/MQTTClient-C/src\MQTTClient.h ****     unsigned int next_packetid,
 110:C:/Users/dtjld/workspace/AIoT/src/LiteOS_Lab/iot_link/network/mqtt/paho_mqtt/paho/MQTTClient-C/src\MQTTClient.h ****       command_timeout_ms;
 111:C:/Users/dtjld/workspace/AIoT/src/LiteOS_Lab/iot_link/network/mqtt/paho_mqtt/paho/MQTTClient-C/src\MQTTClient.h ****     size_t buf_size,
 112:C:/Users/dtjld/workspace/AIoT/src/LiteOS_Lab/iot_link/network/mqtt/paho_mqtt/paho/MQTTClient-C/src\MQTTClient.h ****       readbuf_size;
 113:C:/Users/dtjld/workspace/AIoT/src/LiteOS_Lab/iot_link/network/mqtt/paho_mqtt/paho/MQTTClient-C/src\MQTTClient.h ****     unsigned char *buf,
 114:C:/Users/dtjld/workspace/AIoT/src/LiteOS_Lab/iot_link/network/mqtt/paho_mqtt/paho/MQTTClient-C/src\MQTTClient.h ****       *readbuf;
 115:C:/Users/dtjld/workspace/AIoT/src/LiteOS_Lab/iot_link/network/mqtt/paho_mqtt/paho/MQTTClient-C/src\MQTTClient.h ****     unsigned int keepAliveInterval;
 116:C:/Users/dtjld/workspace/AIoT/src/LiteOS_Lab/iot_link/network/mqtt/paho_mqtt/paho/MQTTClient-C/src\MQTTClient.h ****     char ping_outstanding;
 117:C:/Users/dtjld/workspace/AIoT/src/LiteOS_Lab/iot_link/network/mqtt/paho_mqtt/paho/MQTTClient-C/src\MQTTClient.h ****     int isconnected;
 118:C:/Users/dtjld/workspace/AIoT/src/LiteOS_Lab/iot_link/network/mqtt/paho_mqtt/paho/MQTTClient-C/src\MQTTClient.h ****     int cleansession;
 119:C:/Users/dtjld/workspace/AIoT/src/LiteOS_Lab/iot_link/network/mqtt/paho_mqtt/paho/MQTTClient-C/src\MQTTClient.h **** 
 120:C:/Users/dtjld/workspace/AIoT/src/LiteOS_Lab/iot_link/network/mqtt/paho_mqtt/paho/MQTTClient-C/src\MQTTClient.h ****     struct MessageHandlers
 121:C:/Users/dtjld/workspace/AIoT/src/LiteOS_Lab/iot_link/network/mqtt/paho_mqtt/paho/MQTTClient-C/src\MQTTClient.h ****     {
 122:C:/Users/dtjld/workspace/AIoT/src/LiteOS_Lab/iot_link/network/mqtt/paho_mqtt/paho/MQTTClient-C/src\MQTTClient.h ****         const char* topicFilter;
 123:C:/Users/dtjld/workspace/AIoT/src/LiteOS_Lab/iot_link/network/mqtt/paho_mqtt/paho/MQTTClient-C/src\MQTTClient.h ****         void (*fp) (MessageData*);
 124:C:/Users/dtjld/workspace/AIoT/src/LiteOS_Lab/iot_link/network/mqtt/paho_mqtt/paho/MQTTClient-C/src\MQTTClient.h ****         void  *arg;
 125:C:/Users/dtjld/workspace/AIoT/src/LiteOS_Lab/iot_link/network/mqtt/paho_mqtt/paho/MQTTClient-C/src\MQTTClient.h ****     } messageHandlers[MAX_MESSAGE_HANDLERS];      /* Message handlers are indexed by subscription t
 126:C:/Users/dtjld/workspace/AIoT/src/LiteOS_Lab/iot_link/network/mqtt/paho_mqtt/paho/MQTTClient-C/src\MQTTClient.h **** 
 127:C:/Users/dtjld/workspace/AIoT/src/LiteOS_Lab/iot_link/network/mqtt/paho_mqtt/paho/MQTTClient-C/src\MQTTClient.h ****     void (*defaultMessageHandler) (MessageData*);
 128:C:/Users/dtjld/workspace/AIoT/src/LiteOS_Lab/iot_link/network/mqtt/paho_mqtt/paho/MQTTClient-C/src\MQTTClient.h **** 
 129:C:/Users/dtjld/workspace/AIoT/src/LiteOS_Lab/iot_link/network/mqtt/paho_mqtt/paho/MQTTClient-C/src\MQTTClient.h ****     Network* ipstack;
 130:C:/Users/dtjld/workspace/AIoT/src/LiteOS_Lab/iot_link/network/mqtt/paho_mqtt/paho/MQTTClient-C/src\MQTTClient.h ****     Timer last_sent, last_received;
 131:C:/Users/dtjld/workspace/AIoT/src/LiteOS_Lab/iot_link/network/mqtt/paho_mqtt/paho/MQTTClient-C/src\MQTTClient.h **** #if defined(MQTT_TASK)
 132:C:/Users/dtjld/workspace/AIoT/src/LiteOS_Lab/iot_link/network/mqtt/paho_mqtt/paho/MQTTClient-C/src\MQTTClient.h ****     Mutex mutex;
 133:C:/Users/dtjld/workspace/AIoT/src/LiteOS_Lab/iot_link/network/mqtt/paho_mqtt/paho/MQTTClient-C/src\MQTTClient.h ****     Thread thread;
 134:C:/Users/dtjld/workspace/AIoT/src/LiteOS_Lab/iot_link/network/mqtt/paho_mqtt/paho/MQTTClient-C/src\MQTTClient.h **** #endif
 135:C:/Users/dtjld/workspace/AIoT/src/LiteOS_Lab/iot_link/network/mqtt/paho_mqtt/paho/MQTTClient-C/src\MQTTClient.h **** } MQTTClient;
 136:C:/Users/dtjld/workspace/AIoT/src/LiteOS_Lab/iot_link/network/mqtt/paho_mqtt/paho/MQTTClient-C/src\MQTTClient.h **** 
 137:C:/Users/dtjld/workspace/AIoT/src/LiteOS_Lab/iot_link/network/mqtt/paho_mqtt/paho/MQTTClient-C/src\MQTTClient.h **** #define DefaultClient {0, 0, 0, 0, NULL, NULL, 0, 0, 0}
 138:C:/Users/dtjld/workspace/AIoT/src/LiteOS_Lab/iot_link/network/mqtt/paho_mqtt/paho/MQTTClient-C/src\MQTTClient.h **** 
 139:C:/Users/dtjld/workspace/AIoT/src/LiteOS_Lab/iot_link/network/mqtt/paho_mqtt/paho/MQTTClient-C/src\MQTTClient.h **** 
 140:C:/Users/dtjld/workspace/AIoT/src/LiteOS_Lab/iot_link/network/mqtt/paho_mqtt/paho/MQTTClient-C/src\MQTTClient.h **** /**
 141:C:/Users/dtjld/workspace/AIoT/src/LiteOS_Lab/iot_link/network/mqtt/paho_mqtt/paho/MQTTClient-C/src\MQTTClient.h ****  * Create an MQTT client object
 142:C:/Users/dtjld/workspace/AIoT/src/LiteOS_Lab/iot_link/network/mqtt/paho_mqtt/paho/MQTTClient-C/src\MQTTClient.h ****  * @param client
 143:C:/Users/dtjld/workspace/AIoT/src/LiteOS_Lab/iot_link/network/mqtt/paho_mqtt/paho/MQTTClient-C/src\MQTTClient.h ****  * @param network
 144:C:/Users/dtjld/workspace/AIoT/src/LiteOS_Lab/iot_link/network/mqtt/paho_mqtt/paho/MQTTClient-C/src\MQTTClient.h ****  * @param command_timeout_ms
 145:C:/Users/dtjld/workspace/AIoT/src/LiteOS_Lab/iot_link/network/mqtt/paho_mqtt/paho/MQTTClient-C/src\MQTTClient.h ****  * @param
 146:C:/Users/dtjld/workspace/AIoT/src/LiteOS_Lab/iot_link/network/mqtt/paho_mqtt/paho/MQTTClient-C/src\MQTTClient.h ****  */
ARM GAS  C:\Users\dtjld\AppData\Local\Temp\ccZrCbvi.s 			page 4


 147:C:/Users/dtjld/workspace/AIoT/src/LiteOS_Lab/iot_link/network/mqtt/paho_mqtt/paho/MQTTClient-C/src\MQTTClient.h **** DLLExport int MQTTClientInit(MQTTClient* client, Network* network, unsigned int command_timeout_ms,
 148:C:/Users/dtjld/workspace/AIoT/src/LiteOS_Lab/iot_link/network/mqtt/paho_mqtt/paho/MQTTClient-C/src\MQTTClient.h **** 		unsigned char* sendbuf, size_t sendbuf_size, unsigned char* readbuf, size_t readbuf_size);
 149:C:/Users/dtjld/workspace/AIoT/src/LiteOS_Lab/iot_link/network/mqtt/paho_mqtt/paho/MQTTClient-C/src\MQTTClient.h **** DLLExport void MQTTClientDeInit(MQTTClient* c);
 150:C:/Users/dtjld/workspace/AIoT/src/LiteOS_Lab/iot_link/network/mqtt/paho_mqtt/paho/MQTTClient-C/src\MQTTClient.h **** 
 151:C:/Users/dtjld/workspace/AIoT/src/LiteOS_Lab/iot_link/network/mqtt/paho_mqtt/paho/MQTTClient-C/src\MQTTClient.h **** /** MQTT Connect - send an MQTT connect packet down the network and wait for a Connack
 152:C:/Users/dtjld/workspace/AIoT/src/LiteOS_Lab/iot_link/network/mqtt/paho_mqtt/paho/MQTTClient-C/src\MQTTClient.h ****  *  The nework object must be connected to the network endpoint before calling this
 153:C:/Users/dtjld/workspace/AIoT/src/LiteOS_Lab/iot_link/network/mqtt/paho_mqtt/paho/MQTTClient-C/src\MQTTClient.h ****  *  @param options - connect options
 154:C:/Users/dtjld/workspace/AIoT/src/LiteOS_Lab/iot_link/network/mqtt/paho_mqtt/paho/MQTTClient-C/src\MQTTClient.h ****  *  @return success code
 155:C:/Users/dtjld/workspace/AIoT/src/LiteOS_Lab/iot_link/network/mqtt/paho_mqtt/paho/MQTTClient-C/src\MQTTClient.h ****  */
 156:C:/Users/dtjld/workspace/AIoT/src/LiteOS_Lab/iot_link/network/mqtt/paho_mqtt/paho/MQTTClient-C/src\MQTTClient.h **** DLLExport int MQTTConnectWithResults(MQTTClient* client, MQTTPacket_connectData* options,
 157:C:/Users/dtjld/workspace/AIoT/src/LiteOS_Lab/iot_link/network/mqtt/paho_mqtt/paho/MQTTClient-C/src\MQTTClient.h ****     MQTTConnackData* data);
 158:C:/Users/dtjld/workspace/AIoT/src/LiteOS_Lab/iot_link/network/mqtt/paho_mqtt/paho/MQTTClient-C/src\MQTTClient.h **** 
 159:C:/Users/dtjld/workspace/AIoT/src/LiteOS_Lab/iot_link/network/mqtt/paho_mqtt/paho/MQTTClient-C/src\MQTTClient.h **** /** MQTT Connect - send an MQTT connect packet down the network and wait for a Connack
 160:C:/Users/dtjld/workspace/AIoT/src/LiteOS_Lab/iot_link/network/mqtt/paho_mqtt/paho/MQTTClient-C/src\MQTTClient.h ****  *  The nework object must be connected to the network endpoint before calling this
 161:C:/Users/dtjld/workspace/AIoT/src/LiteOS_Lab/iot_link/network/mqtt/paho_mqtt/paho/MQTTClient-C/src\MQTTClient.h ****  *  @param options - connect options
 162:C:/Users/dtjld/workspace/AIoT/src/LiteOS_Lab/iot_link/network/mqtt/paho_mqtt/paho/MQTTClient-C/src\MQTTClient.h ****  *  @return success code
 163:C:/Users/dtjld/workspace/AIoT/src/LiteOS_Lab/iot_link/network/mqtt/paho_mqtt/paho/MQTTClient-C/src\MQTTClient.h ****  */
 164:C:/Users/dtjld/workspace/AIoT/src/LiteOS_Lab/iot_link/network/mqtt/paho_mqtt/paho/MQTTClient-C/src\MQTTClient.h **** DLLExport int MQTTConnect(MQTTClient* client, MQTTPacket_connectData* options);
 165:C:/Users/dtjld/workspace/AIoT/src/LiteOS_Lab/iot_link/network/mqtt/paho_mqtt/paho/MQTTClient-C/src\MQTTClient.h **** 
 166:C:/Users/dtjld/workspace/AIoT/src/LiteOS_Lab/iot_link/network/mqtt/paho_mqtt/paho/MQTTClient-C/src\MQTTClient.h **** /** MQTT Publish - send an MQTT publish packet and wait for all acks to complete for all QoSs
 167:C:/Users/dtjld/workspace/AIoT/src/LiteOS_Lab/iot_link/network/mqtt/paho_mqtt/paho/MQTTClient-C/src\MQTTClient.h ****  *  @param client - the client object to use
 168:C:/Users/dtjld/workspace/AIoT/src/LiteOS_Lab/iot_link/network/mqtt/paho_mqtt/paho/MQTTClient-C/src\MQTTClient.h ****  *  @param topic - the topic to publish to
 169:C:/Users/dtjld/workspace/AIoT/src/LiteOS_Lab/iot_link/network/mqtt/paho_mqtt/paho/MQTTClient-C/src\MQTTClient.h ****  *  @param message - the message to send
 170:C:/Users/dtjld/workspace/AIoT/src/LiteOS_Lab/iot_link/network/mqtt/paho_mqtt/paho/MQTTClient-C/src\MQTTClient.h ****  *  @return success code
 171:C:/Users/dtjld/workspace/AIoT/src/LiteOS_Lab/iot_link/network/mqtt/paho_mqtt/paho/MQTTClient-C/src\MQTTClient.h ****  */
 172:C:/Users/dtjld/workspace/AIoT/src/LiteOS_Lab/iot_link/network/mqtt/paho_mqtt/paho/MQTTClient-C/src\MQTTClient.h **** DLLExport int MQTTPublish(MQTTClient* client, const char*, MQTTMessage*);
 173:C:/Users/dtjld/workspace/AIoT/src/LiteOS_Lab/iot_link/network/mqtt/paho_mqtt/paho/MQTTClient-C/src\MQTTClient.h **** 
 174:C:/Users/dtjld/workspace/AIoT/src/LiteOS_Lab/iot_link/network/mqtt/paho_mqtt/paho/MQTTClient-C/src\MQTTClient.h **** /** MQTT SetMessageHandler - set or remove a per topic message handler
 175:C:/Users/dtjld/workspace/AIoT/src/LiteOS_Lab/iot_link/network/mqtt/paho_mqtt/paho/MQTTClient-C/src\MQTTClient.h ****  *  @param client - the client object to use
 176:C:/Users/dtjld/workspace/AIoT/src/LiteOS_Lab/iot_link/network/mqtt/paho_mqtt/paho/MQTTClient-C/src\MQTTClient.h ****  *  @param topicFilter - the topic filter set the message handler for
 177:C:/Users/dtjld/workspace/AIoT/src/LiteOS_Lab/iot_link/network/mqtt/paho_mqtt/paho/MQTTClient-C/src\MQTTClient.h ****  *  @param messageHandler - pointer to the message handler function or NULL to remove
 178:C:/Users/dtjld/workspace/AIoT/src/LiteOS_Lab/iot_link/network/mqtt/paho_mqtt/paho/MQTTClient-C/src\MQTTClient.h ****  *  @return success code
 179:C:/Users/dtjld/workspace/AIoT/src/LiteOS_Lab/iot_link/network/mqtt/paho_mqtt/paho/MQTTClient-C/src\MQTTClient.h ****  */
 180:C:/Users/dtjld/workspace/AIoT/src/LiteOS_Lab/iot_link/network/mqtt/paho_mqtt/paho/MQTTClient-C/src\MQTTClient.h **** DLLExport int MQTTSetMessageHandler(MQTTClient* c, const char* topicFilter, messageHandler messageH
 181:C:/Users/dtjld/workspace/AIoT/src/LiteOS_Lab/iot_link/network/mqtt/paho_mqtt/paho/MQTTClient-C/src\MQTTClient.h **** 
 182:C:/Users/dtjld/workspace/AIoT/src/LiteOS_Lab/iot_link/network/mqtt/paho_mqtt/paho/MQTTClient-C/src\MQTTClient.h **** /** MQTT Subscribe - send an MQTT subscribe packet and wait for suback before returning.
 183:C:/Users/dtjld/workspace/AIoT/src/LiteOS_Lab/iot_link/network/mqtt/paho_mqtt/paho/MQTTClient-C/src\MQTTClient.h ****  *  @param client - the client object to use
 184:C:/Users/dtjld/workspace/AIoT/src/LiteOS_Lab/iot_link/network/mqtt/paho_mqtt/paho/MQTTClient-C/src\MQTTClient.h ****  *  @param topicFilter - the topic filter to subscribe to
 185:C:/Users/dtjld/workspace/AIoT/src/LiteOS_Lab/iot_link/network/mqtt/paho_mqtt/paho/MQTTClient-C/src\MQTTClient.h ****  *  @param message - the message to send
 186:C:/Users/dtjld/workspace/AIoT/src/LiteOS_Lab/iot_link/network/mqtt/paho_mqtt/paho/MQTTClient-C/src\MQTTClient.h ****  *  @return success code
 187:C:/Users/dtjld/workspace/AIoT/src/LiteOS_Lab/iot_link/network/mqtt/paho_mqtt/paho/MQTTClient-C/src\MQTTClient.h ****  */
 188:C:/Users/dtjld/workspace/AIoT/src/LiteOS_Lab/iot_link/network/mqtt/paho_mqtt/paho/MQTTClient-C/src\MQTTClient.h **** DLLExport int MQTTSubscribe(MQTTClient* client, const char* topicFilter, enum QoS, messageHandler);
 189:C:/Users/dtjld/workspace/AIoT/src/LiteOS_Lab/iot_link/network/mqtt/paho_mqtt/paho/MQTTClient-C/src\MQTTClient.h **** 
 190:C:/Users/dtjld/workspace/AIoT/src/LiteOS_Lab/iot_link/network/mqtt/paho_mqtt/paho/MQTTClient-C/src\MQTTClient.h **** /** MQTT Subscribe - send an MQTT subscribe packet and wait for suback before returning.
 191:C:/Users/dtjld/workspace/AIoT/src/LiteOS_Lab/iot_link/network/mqtt/paho_mqtt/paho/MQTTClient-C/src\MQTTClient.h ****  *  @param client - the client object to use
 192:C:/Users/dtjld/workspace/AIoT/src/LiteOS_Lab/iot_link/network/mqtt/paho_mqtt/paho/MQTTClient-C/src\MQTTClient.h ****  *  @param topicFilter - the topic filter to subscribe to
 193:C:/Users/dtjld/workspace/AIoT/src/LiteOS_Lab/iot_link/network/mqtt/paho_mqtt/paho/MQTTClient-C/src\MQTTClient.h ****  *  @param message - the message to send
 194:C:/Users/dtjld/workspace/AIoT/src/LiteOS_Lab/iot_link/network/mqtt/paho_mqtt/paho/MQTTClient-C/src\MQTTClient.h ****  *  @param data - suback granted QoS returned
 195:C:/Users/dtjld/workspace/AIoT/src/LiteOS_Lab/iot_link/network/mqtt/paho_mqtt/paho/MQTTClient-C/src\MQTTClient.h ****  *  @return success code
 196:C:/Users/dtjld/workspace/AIoT/src/LiteOS_Lab/iot_link/network/mqtt/paho_mqtt/paho/MQTTClient-C/src\MQTTClient.h ****  */
 197:C:/Users/dtjld/workspace/AIoT/src/LiteOS_Lab/iot_link/network/mqtt/paho_mqtt/paho/MQTTClient-C/src\MQTTClient.h **** DLLExport int MQTTSubscribeWithResults(MQTTClient* client, const char* topicFilter, enum QoS, messa
 198:C:/Users/dtjld/workspace/AIoT/src/LiteOS_Lab/iot_link/network/mqtt/paho_mqtt/paho/MQTTClient-C/src\MQTTClient.h **** 
 199:C:/Users/dtjld/workspace/AIoT/src/LiteOS_Lab/iot_link/network/mqtt/paho_mqtt/paho/MQTTClient-C/src\MQTTClient.h **** /** MQTT Subscribe - send an MQTT subscribe packet and wait for suback before returning.
 200:C:/Users/dtjld/workspace/AIoT/src/LiteOS_Lab/iot_link/network/mqtt/paho_mqtt/paho/MQTTClient-C/src\MQTTClient.h ****  *  @param client - the client object to use
 201:C:/Users/dtjld/workspace/AIoT/src/LiteOS_Lab/iot_link/network/mqtt/paho_mqtt/paho/MQTTClient-C/src\MQTTClient.h ****  *  @param topicFilter - the topic filter to subscribe to
 202:C:/Users/dtjld/workspace/AIoT/src/LiteOS_Lab/iot_link/network/mqtt/paho_mqtt/paho/MQTTClient-C/src\MQTTClient.h ****  *  @param message - the message to send
 203:C:/Users/dtjld/workspace/AIoT/src/LiteOS_Lab/iot_link/network/mqtt/paho_mqtt/paho/MQTTClient-C/src\MQTTClient.h ****  *  @param data - suback granted QoS returned
ARM GAS  C:\Users\dtjld\AppData\Local\Temp\ccZrCbvi.s 			page 5


 204:C:/Users/dtjld/workspace/AIoT/src/LiteOS_Lab/iot_link/network/mqtt/paho_mqtt/paho/MQTTClient-C/src\MQTTClient.h ****  *  @param arg  - which used for the messageHandler£¬
 205:C:/Users/dtjld/workspace/AIoT/src/LiteOS_Lab/iot_link/network/mqtt/paho_mqtt/paho/MQTTClient-C/src\MQTTClient.h ****  *  @return success code
 206:C:/Users/dtjld/workspace/AIoT/src/LiteOS_Lab/iot_link/network/mqtt/paho_mqtt/paho/MQTTClient-C/src\MQTTClient.h ****  */
 207:C:/Users/dtjld/workspace/AIoT/src/LiteOS_Lab/iot_link/network/mqtt/paho_mqtt/paho/MQTTClient-C/src\MQTTClient.h **** DLLExport int MQTTSubscribeWithResultsArgs(MQTTClient* client, const char* topicFilter, enum QoS, m
 208:C:/Users/dtjld/workspace/AIoT/src/LiteOS_Lab/iot_link/network/mqtt/paho_mqtt/paho/MQTTClient-C/src\MQTTClient.h **** 
 209:C:/Users/dtjld/workspace/AIoT/src/LiteOS_Lab/iot_link/network/mqtt/paho_mqtt/paho/MQTTClient-C/src\MQTTClient.h **** 
 210:C:/Users/dtjld/workspace/AIoT/src/LiteOS_Lab/iot_link/network/mqtt/paho_mqtt/paho/MQTTClient-C/src\MQTTClient.h **** /** MQTT Subscribe - send an MQTT unsubscribe packet and wait for unsuback before returning.
 211:C:/Users/dtjld/workspace/AIoT/src/LiteOS_Lab/iot_link/network/mqtt/paho_mqtt/paho/MQTTClient-C/src\MQTTClient.h ****  *  @param client - the client object to use
 212:C:/Users/dtjld/workspace/AIoT/src/LiteOS_Lab/iot_link/network/mqtt/paho_mqtt/paho/MQTTClient-C/src\MQTTClient.h ****  *  @param topicFilter - the topic filter to unsubscribe from
 213:C:/Users/dtjld/workspace/AIoT/src/LiteOS_Lab/iot_link/network/mqtt/paho_mqtt/paho/MQTTClient-C/src\MQTTClient.h ****  *  @return success code
 214:C:/Users/dtjld/workspace/AIoT/src/LiteOS_Lab/iot_link/network/mqtt/paho_mqtt/paho/MQTTClient-C/src\MQTTClient.h ****  */
 215:C:/Users/dtjld/workspace/AIoT/src/LiteOS_Lab/iot_link/network/mqtt/paho_mqtt/paho/MQTTClient-C/src\MQTTClient.h **** DLLExport int MQTTUnsubscribe(MQTTClient* client, const char* topicFilter);
 216:C:/Users/dtjld/workspace/AIoT/src/LiteOS_Lab/iot_link/network/mqtt/paho_mqtt/paho/MQTTClient-C/src\MQTTClient.h **** 
 217:C:/Users/dtjld/workspace/AIoT/src/LiteOS_Lab/iot_link/network/mqtt/paho_mqtt/paho/MQTTClient-C/src\MQTTClient.h **** /** MQTT Disconnect - send an MQTT disconnect packet and close the connection
 218:C:/Users/dtjld/workspace/AIoT/src/LiteOS_Lab/iot_link/network/mqtt/paho_mqtt/paho/MQTTClient-C/src\MQTTClient.h ****  *  @param client - the client object to use
 219:C:/Users/dtjld/workspace/AIoT/src/LiteOS_Lab/iot_link/network/mqtt/paho_mqtt/paho/MQTTClient-C/src\MQTTClient.h ****  *  @return success code
 220:C:/Users/dtjld/workspace/AIoT/src/LiteOS_Lab/iot_link/network/mqtt/paho_mqtt/paho/MQTTClient-C/src\MQTTClient.h ****  */
 221:C:/Users/dtjld/workspace/AIoT/src/LiteOS_Lab/iot_link/network/mqtt/paho_mqtt/paho/MQTTClient-C/src\MQTTClient.h **** DLLExport int MQTTDisconnect(MQTTClient* client);
 222:C:/Users/dtjld/workspace/AIoT/src/LiteOS_Lab/iot_link/network/mqtt/paho_mqtt/paho/MQTTClient-C/src\MQTTClient.h **** 
 223:C:/Users/dtjld/workspace/AIoT/src/LiteOS_Lab/iot_link/network/mqtt/paho_mqtt/paho/MQTTClient-C/src\MQTTClient.h **** /** MQTT Yield - MQTT background
 224:C:/Users/dtjld/workspace/AIoT/src/LiteOS_Lab/iot_link/network/mqtt/paho_mqtt/paho/MQTTClient-C/src\MQTTClient.h ****  *  @param client - the client object to use
 225:C:/Users/dtjld/workspace/AIoT/src/LiteOS_Lab/iot_link/network/mqtt/paho_mqtt/paho/MQTTClient-C/src\MQTTClient.h ****  *  @param time - the time, in milliseconds, to yield for
 226:C:/Users/dtjld/workspace/AIoT/src/LiteOS_Lab/iot_link/network/mqtt/paho_mqtt/paho/MQTTClient-C/src\MQTTClient.h ****  *  @return success code
 227:C:/Users/dtjld/workspace/AIoT/src/LiteOS_Lab/iot_link/network/mqtt/paho_mqtt/paho/MQTTClient-C/src\MQTTClient.h ****  */
 228:C:/Users/dtjld/workspace/AIoT/src/LiteOS_Lab/iot_link/network/mqtt/paho_mqtt/paho/MQTTClient-C/src\MQTTClient.h **** DLLExport int MQTTYield(MQTTClient* client, int time);
 229:C:/Users/dtjld/workspace/AIoT/src/LiteOS_Lab/iot_link/network/mqtt/paho_mqtt/paho/MQTTClient-C/src\MQTTClient.h **** 
 230:C:/Users/dtjld/workspace/AIoT/src/LiteOS_Lab/iot_link/network/mqtt/paho_mqtt/paho/MQTTClient-C/src\MQTTClient.h **** /** MQTT isConnected
 231:C:/Users/dtjld/workspace/AIoT/src/LiteOS_Lab/iot_link/network/mqtt/paho_mqtt/paho/MQTTClient-C/src\MQTTClient.h ****  *  @param client - the client object to use
 232:C:/Users/dtjld/workspace/AIoT/src/LiteOS_Lab/iot_link/network/mqtt/paho_mqtt/paho/MQTTClient-C/src\MQTTClient.h ****  *  @return truth value indicating whether the client is connected to the server
 233:C:/Users/dtjld/workspace/AIoT/src/LiteOS_Lab/iot_link/network/mqtt/paho_mqtt/paho/MQTTClient-C/src\MQTTClient.h ****  */
 234:C:/Users/dtjld/workspace/AIoT/src/LiteOS_Lab/iot_link/network/mqtt/paho_mqtt/paho/MQTTClient-C/src\MQTTClient.h **** static inline DLLExport int MQTTIsConnected(MQTTClient* client)
 235:C:/Users/dtjld/workspace/AIoT/src/LiteOS_Lab/iot_link/network/mqtt/paho_mqtt/paho/MQTTClient-C/src\MQTTClient.h **** {
  27              		.loc 1 235 0
  28              		.cfi_startproc
  29              		@ args = 0, pretend = 0, frame = 8
  30              		@ frame_needed = 1, uses_anonymous_args = 0
  31              		@ link register save eliminated.
  32 0000 80B4     		push	{r7}
  33              	.LCFI0:
  34              		.cfi_def_cfa_offset 4
  35              		.cfi_offset 7, -4
  36 0002 83B0     		sub	sp, sp, #12
  37              	.LCFI1:
  38              		.cfi_def_cfa_offset 16
  39 0004 00AF     		add	r7, sp, #0
  40              	.LCFI2:
  41              		.cfi_def_cfa_register 7
  42 0006 7860     		str	r0, [r7, #4]
 236:C:/Users/dtjld/workspace/AIoT/src/LiteOS_Lab/iot_link/network/mqtt/paho_mqtt/paho/MQTTClient-C/src\MQTTClient.h ****   return client->isconnected;
  43              		.loc 1 236 0
  44 0008 7B68     		ldr	r3, [r7, #4]
  45 000a 1B6A     		ldr	r3, [r3, #32]
 237:C:/Users/dtjld/workspace/AIoT/src/LiteOS_Lab/iot_link/network/mqtt/paho_mqtt/paho/MQTTClient-C/src\MQTTClient.h **** }
  46              		.loc 1 237 0
  47 000c 1846     		mov	r0, r3
  48 000e 0C37     		adds	r7, r7, #12
  49              	.LCFI3:
ARM GAS  C:\Users\dtjld\AppData\Local\Temp\ccZrCbvi.s 			page 6


  50              		.cfi_def_cfa_offset 4
  51 0010 BD46     		mov	sp, r7
  52              	.LCFI4:
  53              		.cfi_def_cfa_register 13
  54              		@ sp needed
  55 0012 5DF8047B 		ldr	r7, [sp], #4
  56              	.LCFI5:
  57              		.cfi_restore 7
  58              		.cfi_def_cfa_offset 0
  59 0016 7047     		bx	lr
  60              		.cfi_endproc
  61              	.LFE3:
  63              		.section	.text.__tls_read,"ax",%progbits
  64              		.align	1
  65              		.syntax unified
  66              		.thumb
  67              		.thumb_func
  68              		.fpu fpv4-sp-d16
  70              	__tls_read:
  71              	.LFB21:
  72              		.file 2 "C:/Users/dtjld/workspace/AIoT/src/LiteOS_Lab/iot_link/network/mqtt/paho_mqtt/port/paho_mq
   1:C:/Users/dtjld/workspace/AIoT/src/LiteOS_Lab/iot_link/network/mqtt/paho_mqtt/port\paho_mqtt_port.c **** /*----------------------------------------------------------------------------
   2:C:/Users/dtjld/workspace/AIoT/src/LiteOS_Lab/iot_link/network/mqtt/paho_mqtt/port\paho_mqtt_port.c ****  * Copyright (c) <2016-2018>, <Huawei Technologies Co., Ltd>
   3:C:/Users/dtjld/workspace/AIoT/src/LiteOS_Lab/iot_link/network/mqtt/paho_mqtt/port\paho_mqtt_port.c ****  * All rights reserved.
   4:C:/Users/dtjld/workspace/AIoT/src/LiteOS_Lab/iot_link/network/mqtt/paho_mqtt/port\paho_mqtt_port.c ****  * Redistribution and use in source and binary forms, with or without modification,
   5:C:/Users/dtjld/workspace/AIoT/src/LiteOS_Lab/iot_link/network/mqtt/paho_mqtt/port\paho_mqtt_port.c ****  * are permitted provided that the following conditions are met:
   6:C:/Users/dtjld/workspace/AIoT/src/LiteOS_Lab/iot_link/network/mqtt/paho_mqtt/port\paho_mqtt_port.c ****  * 1. Redistributions of source code must retain the above copyright notice, this list of
   7:C:/Users/dtjld/workspace/AIoT/src/LiteOS_Lab/iot_link/network/mqtt/paho_mqtt/port\paho_mqtt_port.c ****  * conditions and the following disclaimer.
   8:C:/Users/dtjld/workspace/AIoT/src/LiteOS_Lab/iot_link/network/mqtt/paho_mqtt/port\paho_mqtt_port.c ****  * 2. Redistributions in binary form must reproduce the above copyright notice, this list
   9:C:/Users/dtjld/workspace/AIoT/src/LiteOS_Lab/iot_link/network/mqtt/paho_mqtt/port\paho_mqtt_port.c ****  * of conditions and the following disclaimer in the documentation and/or other materials
  10:C:/Users/dtjld/workspace/AIoT/src/LiteOS_Lab/iot_link/network/mqtt/paho_mqtt/port\paho_mqtt_port.c ****  * provided with the distribution.
  11:C:/Users/dtjld/workspace/AIoT/src/LiteOS_Lab/iot_link/network/mqtt/paho_mqtt/port\paho_mqtt_port.c ****  * 3. Neither the name of the copyright holder nor the names of its contributors may be used
  12:C:/Users/dtjld/workspace/AIoT/src/LiteOS_Lab/iot_link/network/mqtt/paho_mqtt/port\paho_mqtt_port.c ****  * to endorse or promote products derived from this software without specific prior written
  13:C:/Users/dtjld/workspace/AIoT/src/LiteOS_Lab/iot_link/network/mqtt/paho_mqtt/port\paho_mqtt_port.c ****  * permission.
  14:C:/Users/dtjld/workspace/AIoT/src/LiteOS_Lab/iot_link/network/mqtt/paho_mqtt/port\paho_mqtt_port.c ****  * THIS SOFTWARE IS PROVIDED BY THE COPYRIGHT HOLDERS AND CONTRIBUTORS
  15:C:/Users/dtjld/workspace/AIoT/src/LiteOS_Lab/iot_link/network/mqtt/paho_mqtt/port\paho_mqtt_port.c ****  * "AS IS" AND ANY EXPRESS OR IMPLIED WARRANTIES, INCLUDING, BUT NOT LIMITED TO,
  16:C:/Users/dtjld/workspace/AIoT/src/LiteOS_Lab/iot_link/network/mqtt/paho_mqtt/port\paho_mqtt_port.c ****  * THE IMPLIED WARRANTIES OF MERCHANTABILITY AND FITNESS FOR A PARTICULAR
  17:C:/Users/dtjld/workspace/AIoT/src/LiteOS_Lab/iot_link/network/mqtt/paho_mqtt/port\paho_mqtt_port.c ****  * PURPOSE ARE DISCLAIMED. IN NO EVENT SHALL THE COPYRIGHT HOLDER OR
  18:C:/Users/dtjld/workspace/AIoT/src/LiteOS_Lab/iot_link/network/mqtt/paho_mqtt/port\paho_mqtt_port.c ****  * CONTRIBUTORS BE LIABLE FOR ANY DIRECT, INDIRECT, INCIDENTAL, SPECIAL,
  19:C:/Users/dtjld/workspace/AIoT/src/LiteOS_Lab/iot_link/network/mqtt/paho_mqtt/port\paho_mqtt_port.c ****  * EXEMPLARY, OR CONSEQUENTIAL DAMAGES (INCLUDING, BUT NOT LIMITED TO,
  20:C:/Users/dtjld/workspace/AIoT/src/LiteOS_Lab/iot_link/network/mqtt/paho_mqtt/port\paho_mqtt_port.c ****  * PROCUREMENT OF SUBSTITUTE GOODS OR SERVICES; LOSS OF USE, DATA, OR PROFITS;
  21:C:/Users/dtjld/workspace/AIoT/src/LiteOS_Lab/iot_link/network/mqtt/paho_mqtt/port\paho_mqtt_port.c ****  * OR BUSINESS INTERRUPTION) HOWEVER CAUSED AND ON ANY THEORY OF LIABILITY,
  22:C:/Users/dtjld/workspace/AIoT/src/LiteOS_Lab/iot_link/network/mqtt/paho_mqtt/port\paho_mqtt_port.c ****  * WHETHER IN CONTRACT, STRICT LIABILITY, OR TORT (INCLUDING NEGLIGENCE OR
  23:C:/Users/dtjld/workspace/AIoT/src/LiteOS_Lab/iot_link/network/mqtt/paho_mqtt/port\paho_mqtt_port.c ****  * OTHERWISE) ARISING IN ANY WAY OUT OF THE USE OF THIS SOFTWARE, EVEN IF
  24:C:/Users/dtjld/workspace/AIoT/src/LiteOS_Lab/iot_link/network/mqtt/paho_mqtt/port\paho_mqtt_port.c ****  * ADVISED OF THE POSSIBILITY OF SUCH DAMAGE.
  25:C:/Users/dtjld/workspace/AIoT/src/LiteOS_Lab/iot_link/network/mqtt/paho_mqtt/port\paho_mqtt_port.c ****  *---------------------------------------------------------------------------*/
  26:C:/Users/dtjld/workspace/AIoT/src/LiteOS_Lab/iot_link/network/mqtt/paho_mqtt/port\paho_mqtt_port.c **** /*----------------------------------------------------------------------------
  27:C:/Users/dtjld/workspace/AIoT/src/LiteOS_Lab/iot_link/network/mqtt/paho_mqtt/port\paho_mqtt_port.c ****  * Notice of Export Control Law
  28:C:/Users/dtjld/workspace/AIoT/src/LiteOS_Lab/iot_link/network/mqtt/paho_mqtt/port\paho_mqtt_port.c ****  * ===============================================
  29:C:/Users/dtjld/workspace/AIoT/src/LiteOS_Lab/iot_link/network/mqtt/paho_mqtt/port\paho_mqtt_port.c ****  * Huawei LiteOS may be subject to applicable export control laws and regulations, which might
  30:C:/Users/dtjld/workspace/AIoT/src/LiteOS_Lab/iot_link/network/mqtt/paho_mqtt/port\paho_mqtt_port.c ****  * include those applicable to Huawei LiteOS of U.S. and the country in which you are located.
  31:C:/Users/dtjld/workspace/AIoT/src/LiteOS_Lab/iot_link/network/mqtt/paho_mqtt/port\paho_mqtt_port.c ****  * Import, export and usage of Huawei LiteOS in any manner by you shall be in compliance with such
  32:C:/Users/dtjld/workspace/AIoT/src/LiteOS_Lab/iot_link/network/mqtt/paho_mqtt/port\paho_mqtt_port.c ****  * applicable export control laws and regulations.
  33:C:/Users/dtjld/workspace/AIoT/src/LiteOS_Lab/iot_link/network/mqtt/paho_mqtt/port\paho_mqtt_port.c ****  *---------------------------------------------------------------------------*/
  34:C:/Users/dtjld/workspace/AIoT/src/LiteOS_Lab/iot_link/network/mqtt/paho_mqtt/port\paho_mqtt_port.c **** #include "MQTTClient.h"
  35:C:/Users/dtjld/workspace/AIoT/src/LiteOS_Lab/iot_link/network/mqtt/paho_mqtt/port\paho_mqtt_port.c **** 
  36:C:/Users/dtjld/workspace/AIoT/src/LiteOS_Lab/iot_link/network/mqtt/paho_mqtt/port\paho_mqtt_port.c **** #ifdef WITH_DTLS
ARM GAS  C:\Users\dtjld\AppData\Local\Temp\ccZrCbvi.s 			page 7


  37:C:/Users/dtjld/workspace/AIoT/src/LiteOS_Lab/iot_link/network/mqtt/paho_mqtt/port\paho_mqtt_port.c **** #include "dtls_interface.h"
  38:C:/Users/dtjld/workspace/AIoT/src/LiteOS_Lab/iot_link/network/mqtt/paho_mqtt/port\paho_mqtt_port.c **** #endif
  39:C:/Users/dtjld/workspace/AIoT/src/LiteOS_Lab/iot_link/network/mqtt/paho_mqtt/port\paho_mqtt_port.c **** 
  40:C:/Users/dtjld/workspace/AIoT/src/LiteOS_Lab/iot_link/network/mqtt/paho_mqtt/port\paho_mqtt_port.c **** #include <time.h>
  41:C:/Users/dtjld/workspace/AIoT/src/LiteOS_Lab/iot_link/network/mqtt/paho_mqtt/port\paho_mqtt_port.c **** #include <sal.h>
  42:C:/Users/dtjld/workspace/AIoT/src/LiteOS_Lab/iot_link/network/mqtt/paho_mqtt/port\paho_mqtt_port.c **** #include <mqtt_al.h>
  43:C:/Users/dtjld/workspace/AIoT/src/LiteOS_Lab/iot_link/network/mqtt/paho_mqtt/port\paho_mqtt_port.c **** #include <paho_mqtt_port.h>
  44:C:/Users/dtjld/workspace/AIoT/src/LiteOS_Lab/iot_link/network/mqtt/paho_mqtt/port\paho_mqtt_port.c **** 
  45:C:/Users/dtjld/workspace/AIoT/src/LiteOS_Lab/iot_link/network/mqtt/paho_mqtt/port\paho_mqtt_port.c **** #define cn_mqtt_cmd_timeout_ms (10 * 1000)
  46:C:/Users/dtjld/workspace/AIoT/src/LiteOS_Lab/iot_link/network/mqtt/paho_mqtt/port\paho_mqtt_port.c **** #define cn_mqtt_events_handle_period_ms (1*1000)
  47:C:/Users/dtjld/workspace/AIoT/src/LiteOS_Lab/iot_link/network/mqtt/paho_mqtt/port\paho_mqtt_port.c **** #define cn_mqtt_keepalive_interval_s (100)
  48:C:/Users/dtjld/workspace/AIoT/src/LiteOS_Lab/iot_link/network/mqtt/paho_mqtt/port\paho_mqtt_port.c **** #define cn_mqtt_sndbuf_size (1024 * 2)
  49:C:/Users/dtjld/workspace/AIoT/src/LiteOS_Lab/iot_link/network/mqtt/paho_mqtt/port\paho_mqtt_port.c **** #define cn_mqtt_rcvbuf_size (1024 * 2)
  50:C:/Users/dtjld/workspace/AIoT/src/LiteOS_Lab/iot_link/network/mqtt/paho_mqtt/port\paho_mqtt_port.c **** 
  51:C:/Users/dtjld/workspace/AIoT/src/LiteOS_Lab/iot_link/network/mqtt/paho_mqtt/port\paho_mqtt_port.c **** typedef struct
  52:C:/Users/dtjld/workspace/AIoT/src/LiteOS_Lab/iot_link/network/mqtt/paho_mqtt/port\paho_mqtt_port.c **** {
  53:C:/Users/dtjld/workspace/AIoT/src/LiteOS_Lab/iot_link/network/mqtt/paho_mqtt/port\paho_mqtt_port.c ****     Network        network;
  54:C:/Users/dtjld/workspace/AIoT/src/LiteOS_Lab/iot_link/network/mqtt/paho_mqtt/port\paho_mqtt_port.c ****     MQTTClient       client;
  55:C:/Users/dtjld/workspace/AIoT/src/LiteOS_Lab/iot_link/network/mqtt/paho_mqtt/port\paho_mqtt_port.c ****     void          *task;    //create a task for this client
  56:C:/Users/dtjld/workspace/AIoT/src/LiteOS_Lab/iot_link/network/mqtt/paho_mqtt/port\paho_mqtt_port.c ****     void          *rcvbuf;  //for the mqtt engine used
  57:C:/Users/dtjld/workspace/AIoT/src/LiteOS_Lab/iot_link/network/mqtt/paho_mqtt/port\paho_mqtt_port.c ****     void          *sndbuf;
  58:C:/Users/dtjld/workspace/AIoT/src/LiteOS_Lab/iot_link/network/mqtt/paho_mqtt/port\paho_mqtt_port.c **** }paho_mqtt_cb_t;
  59:C:/Users/dtjld/workspace/AIoT/src/LiteOS_Lab/iot_link/network/mqtt/paho_mqtt/port\paho_mqtt_port.c **** 
  60:C:/Users/dtjld/workspace/AIoT/src/LiteOS_Lab/iot_link/network/mqtt/paho_mqtt/port\paho_mqtt_port.c **** ///< waring: the paho mqtt has the opposite return code with normal socket read and write
  61:C:/Users/dtjld/workspace/AIoT/src/LiteOS_Lab/iot_link/network/mqtt/paho_mqtt/port\paho_mqtt_port.c **** 
  62:C:/Users/dtjld/workspace/AIoT/src/LiteOS_Lab/iot_link/network/mqtt/paho_mqtt/port\paho_mqtt_port.c **** 
  63:C:/Users/dtjld/workspace/AIoT/src/LiteOS_Lab/iot_link/network/mqtt/paho_mqtt/port\paho_mqtt_port.c **** #ifdef WITH_DTLS
  64:C:/Users/dtjld/workspace/AIoT/src/LiteOS_Lab/iot_link/network/mqtt/paho_mqtt/port\paho_mqtt_port.c **** 
  65:C:/Users/dtjld/workspace/AIoT/src/LiteOS_Lab/iot_link/network/mqtt/paho_mqtt/port\paho_mqtt_port.c **** static int __tls_read(mbedtls_ssl_context *ssl, unsigned char *buffer, int len, int timeout)
  66:C:/Users/dtjld/workspace/AIoT/src/LiteOS_Lab/iot_link/network/mqtt/paho_mqtt/port\paho_mqtt_port.c **** {
  73              		.loc 2 66 0
  74              		.cfi_startproc
  75              		@ args = 0, pretend = 0, frame = 24
  76              		@ frame_needed = 1, uses_anonymous_args = 0
  77 0000 80B5     		push	{r7, lr}
  78              	.LCFI6:
  79              		.cfi_def_cfa_offset 8
  80              		.cfi_offset 7, -8
  81              		.cfi_offset 14, -4
  82 0002 86B0     		sub	sp, sp, #24
  83              	.LCFI7:
  84              		.cfi_def_cfa_offset 32
  85 0004 00AF     		add	r7, sp, #0
  86              	.LCFI8:
  87              		.cfi_def_cfa_register 7
  88 0006 F860     		str	r0, [r7, #12]
  89 0008 B960     		str	r1, [r7, #8]
  90 000a 7A60     		str	r2, [r7, #4]
  91 000c 3B60     		str	r3, [r7]
  67:C:/Users/dtjld/workspace/AIoT/src/LiteOS_Lab/iot_link/network/mqtt/paho_mqtt/port\paho_mqtt_port.c ****     int ret= -1;
  92              		.loc 2 67 0
  93 000e 4FF0FF33 		mov	r3, #-1
  94 0012 7B61     		str	r3, [r7, #20]
  68:C:/Users/dtjld/workspace/AIoT/src/LiteOS_Lab/iot_link/network/mqtt/paho_mqtt/port\paho_mqtt_port.c ****     int rcvlen = -1;
  95              		.loc 2 68 0
  96 0014 4FF0FF33 		mov	r3, #-1
  97 0018 3B61     		str	r3, [r7, #16]
ARM GAS  C:\Users\dtjld\AppData\Local\Temp\ccZrCbvi.s 			page 8


  69:C:/Users/dtjld/workspace/AIoT/src/LiteOS_Lab/iot_link/network/mqtt/paho_mqtt/port\paho_mqtt_port.c **** 
  70:C:/Users/dtjld/workspace/AIoT/src/LiteOS_Lab/iot_link/network/mqtt/paho_mqtt/port\paho_mqtt_port.c ****     if(NULL == ssl || NULL == buffer)
  98              		.loc 2 70 0
  99 001a FB68     		ldr	r3, [r7, #12]
 100 001c 002B     		cmp	r3, #0
 101 001e 02D0     		beq	.L4
 102              		.loc 2 70 0 is_stmt 0 discriminator 1
 103 0020 BB68     		ldr	r3, [r7, #8]
 104 0022 002B     		cmp	r3, #0
 105 0024 02D1     		bne	.L5
 106              	.L4:
  71:C:/Users/dtjld/workspace/AIoT/src/LiteOS_Lab/iot_link/network/mqtt/paho_mqtt/port\paho_mqtt_port.c ****     {
  72:C:/Users/dtjld/workspace/AIoT/src/LiteOS_Lab/iot_link/network/mqtt/paho_mqtt/port\paho_mqtt_port.c ****         return -1;
 107              		.loc 2 72 0 is_stmt 1
 108 0026 4FF0FF33 		mov	r3, #-1
 109 002a 16E0     		b	.L6
 110              	.L5:
  73:C:/Users/dtjld/workspace/AIoT/src/LiteOS_Lab/iot_link/network/mqtt/paho_mqtt/port\paho_mqtt_port.c ****     }
  74:C:/Users/dtjld/workspace/AIoT/src/LiteOS_Lab/iot_link/network/mqtt/paho_mqtt/port\paho_mqtt_port.c **** 
  75:C:/Users/dtjld/workspace/AIoT/src/LiteOS_Lab/iot_link/network/mqtt/paho_mqtt/port\paho_mqtt_port.c ****     rcvlen = dtls_read(ssl,buffer,len, timeout);
 111              		.loc 2 75 0
 112 002c 7A68     		ldr	r2, [r7, #4]
 113 002e 3B68     		ldr	r3, [r7]
 114 0030 B968     		ldr	r1, [r7, #8]
 115 0032 F868     		ldr	r0, [r7, #12]
 116 0034 FFF7FEFF 		bl	dtls_read
 117 0038 3861     		str	r0, [r7, #16]
  76:C:/Users/dtjld/workspace/AIoT/src/LiteOS_Lab/iot_link/network/mqtt/paho_mqtt/port\paho_mqtt_port.c **** 
  77:C:/Users/dtjld/workspace/AIoT/src/LiteOS_Lab/iot_link/network/mqtt/paho_mqtt/port\paho_mqtt_port.c ****     if(rcvlen == 0)
 118              		.loc 2 77 0
 119 003a 3B69     		ldr	r3, [r7, #16]
 120 003c 002B     		cmp	r3, #0
 121 003e 03D1     		bne	.L7
  78:C:/Users/dtjld/workspace/AIoT/src/LiteOS_Lab/iot_link/network/mqtt/paho_mqtt/port\paho_mqtt_port.c ****     {
  79:C:/Users/dtjld/workspace/AIoT/src/LiteOS_Lab/iot_link/network/mqtt/paho_mqtt/port\paho_mqtt_port.c ****         ret = -1;
 122              		.loc 2 79 0
 123 0040 4FF0FF33 		mov	r3, #-1
 124 0044 7B61     		str	r3, [r7, #20]
 125 0046 07E0     		b	.L8
 126              	.L7:
  80:C:/Users/dtjld/workspace/AIoT/src/LiteOS_Lab/iot_link/network/mqtt/paho_mqtt/port\paho_mqtt_port.c ****     }
  81:C:/Users/dtjld/workspace/AIoT/src/LiteOS_Lab/iot_link/network/mqtt/paho_mqtt/port\paho_mqtt_port.c ****     else if(rcvlen < 0)
 127              		.loc 2 81 0
 128 0048 3B69     		ldr	r3, [r7, #16]
 129 004a 002B     		cmp	r3, #0
 130 004c 02DA     		bge	.L9
  82:C:/Users/dtjld/workspace/AIoT/src/LiteOS_Lab/iot_link/network/mqtt/paho_mqtt/port\paho_mqtt_port.c ****     {
  83:C:/Users/dtjld/workspace/AIoT/src/LiteOS_Lab/iot_link/network/mqtt/paho_mqtt/port\paho_mqtt_port.c ****         ret = 0;
 131              		.loc 2 83 0
 132 004e 0023     		movs	r3, #0
 133 0050 7B61     		str	r3, [r7, #20]
 134 0052 01E0     		b	.L8
 135              	.L9:
  84:C:/Users/dtjld/workspace/AIoT/src/LiteOS_Lab/iot_link/network/mqtt/paho_mqtt/port\paho_mqtt_port.c ****     }
  85:C:/Users/dtjld/workspace/AIoT/src/LiteOS_Lab/iot_link/network/mqtt/paho_mqtt/port\paho_mqtt_port.c ****     else
  86:C:/Users/dtjld/workspace/AIoT/src/LiteOS_Lab/iot_link/network/mqtt/paho_mqtt/port\paho_mqtt_port.c ****     {
  87:C:/Users/dtjld/workspace/AIoT/src/LiteOS_Lab/iot_link/network/mqtt/paho_mqtt/port\paho_mqtt_port.c ****         ret = rcvlen;
ARM GAS  C:\Users\dtjld\AppData\Local\Temp\ccZrCbvi.s 			page 9


 136              		.loc 2 87 0
 137 0054 3B69     		ldr	r3, [r7, #16]
 138 0056 7B61     		str	r3, [r7, #20]
 139              	.L8:
  88:C:/Users/dtjld/workspace/AIoT/src/LiteOS_Lab/iot_link/network/mqtt/paho_mqtt/port\paho_mqtt_port.c ****     }
  89:C:/Users/dtjld/workspace/AIoT/src/LiteOS_Lab/iot_link/network/mqtt/paho_mqtt/port\paho_mqtt_port.c **** 
  90:C:/Users/dtjld/workspace/AIoT/src/LiteOS_Lab/iot_link/network/mqtt/paho_mqtt/port\paho_mqtt_port.c ****     return ret;
 140              		.loc 2 90 0
 141 0058 7B69     		ldr	r3, [r7, #20]
 142              	.L6:
  91:C:/Users/dtjld/workspace/AIoT/src/LiteOS_Lab/iot_link/network/mqtt/paho_mqtt/port\paho_mqtt_port.c **** }
 143              		.loc 2 91 0
 144 005a 1846     		mov	r0, r3
 145 005c 1837     		adds	r7, r7, #24
 146              	.LCFI9:
 147              		.cfi_def_cfa_offset 8
 148 005e BD46     		mov	sp, r7
 149              	.LCFI10:
 150              		.cfi_def_cfa_register 13
 151              		@ sp needed
 152 0060 80BD     		pop	{r7, pc}
 153              		.cfi_endproc
 154              	.LFE21:
 156              		.section	.text.__tls_write,"ax",%progbits
 157              		.align	1
 158              		.syntax unified
 159              		.thumb
 160              		.thumb_func
 161              		.fpu fpv4-sp-d16
 163              	__tls_write:
 164              	.LFB22:
  92:C:/Users/dtjld/workspace/AIoT/src/LiteOS_Lab/iot_link/network/mqtt/paho_mqtt/port\paho_mqtt_port.c **** static int __tls_write(mbedtls_ssl_context *ssl, unsigned char *buffer, int len, int timeout)
  93:C:/Users/dtjld/workspace/AIoT/src/LiteOS_Lab/iot_link/network/mqtt/paho_mqtt/port\paho_mqtt_port.c **** {
 165              		.loc 2 93 0
 166              		.cfi_startproc
 167              		@ args = 0, pretend = 0, frame = 24
 168              		@ frame_needed = 1, uses_anonymous_args = 0
 169 0000 80B5     		push	{r7, lr}
 170              	.LCFI11:
 171              		.cfi_def_cfa_offset 8
 172              		.cfi_offset 7, -8
 173              		.cfi_offset 14, -4
 174 0002 86B0     		sub	sp, sp, #24
 175              	.LCFI12:
 176              		.cfi_def_cfa_offset 32
 177 0004 00AF     		add	r7, sp, #0
 178              	.LCFI13:
 179              		.cfi_def_cfa_register 7
 180 0006 F860     		str	r0, [r7, #12]
 181 0008 B960     		str	r1, [r7, #8]
 182 000a 7A60     		str	r2, [r7, #4]
 183 000c 3B60     		str	r3, [r7]
  94:C:/Users/dtjld/workspace/AIoT/src/LiteOS_Lab/iot_link/network/mqtt/paho_mqtt/port\paho_mqtt_port.c ****     int ret= -1;
 184              		.loc 2 94 0
 185 000e 4FF0FF33 		mov	r3, #-1
 186 0012 7B61     		str	r3, [r7, #20]
  95:C:/Users/dtjld/workspace/AIoT/src/LiteOS_Lab/iot_link/network/mqtt/paho_mqtt/port\paho_mqtt_port.c ****     int sndlen = -1;
ARM GAS  C:\Users\dtjld\AppData\Local\Temp\ccZrCbvi.s 			page 10


 187              		.loc 2 95 0
 188 0014 4FF0FF33 		mov	r3, #-1
 189 0018 3B61     		str	r3, [r7, #16]
  96:C:/Users/dtjld/workspace/AIoT/src/LiteOS_Lab/iot_link/network/mqtt/paho_mqtt/port\paho_mqtt_port.c **** 
  97:C:/Users/dtjld/workspace/AIoT/src/LiteOS_Lab/iot_link/network/mqtt/paho_mqtt/port\paho_mqtt_port.c ****     if(NULL == ssl || NULL == buffer)
 190              		.loc 2 97 0
 191 001a FB68     		ldr	r3, [r7, #12]
 192 001c 002B     		cmp	r3, #0
 193 001e 02D0     		beq	.L11
 194              		.loc 2 97 0 is_stmt 0 discriminator 1
 195 0020 BB68     		ldr	r3, [r7, #8]
 196 0022 002B     		cmp	r3, #0
 197 0024 02D1     		bne	.L12
 198              	.L11:
  98:C:/Users/dtjld/workspace/AIoT/src/LiteOS_Lab/iot_link/network/mqtt/paho_mqtt/port\paho_mqtt_port.c ****     {
  99:C:/Users/dtjld/workspace/AIoT/src/LiteOS_Lab/iot_link/network/mqtt/paho_mqtt/port\paho_mqtt_port.c ****         return -1;
 199              		.loc 2 99 0 is_stmt 1
 200 0026 4FF0FF33 		mov	r3, #-1
 201 002a 16E0     		b	.L13
 202              	.L12:
 100:C:/Users/dtjld/workspace/AIoT/src/LiteOS_Lab/iot_link/network/mqtt/paho_mqtt/port\paho_mqtt_port.c ****     }
 101:C:/Users/dtjld/workspace/AIoT/src/LiteOS_Lab/iot_link/network/mqtt/paho_mqtt/port\paho_mqtt_port.c **** 
 102:C:/Users/dtjld/workspace/AIoT/src/LiteOS_Lab/iot_link/network/mqtt/paho_mqtt/port\paho_mqtt_port.c ****     sndlen = dtls_write(ssl,buffer,len);
 203              		.loc 2 102 0
 204 002c 7B68     		ldr	r3, [r7, #4]
 205 002e 1A46     		mov	r2, r3
 206 0030 B968     		ldr	r1, [r7, #8]
 207 0032 F868     		ldr	r0, [r7, #12]
 208 0034 FFF7FEFF 		bl	dtls_write
 209 0038 3861     		str	r0, [r7, #16]
 103:C:/Users/dtjld/workspace/AIoT/src/LiteOS_Lab/iot_link/network/mqtt/paho_mqtt/port\paho_mqtt_port.c **** 
 104:C:/Users/dtjld/workspace/AIoT/src/LiteOS_Lab/iot_link/network/mqtt/paho_mqtt/port\paho_mqtt_port.c ****     if(sndlen == 0)
 210              		.loc 2 104 0
 211 003a 3B69     		ldr	r3, [r7, #16]
 212 003c 002B     		cmp	r3, #0
 213 003e 03D1     		bne	.L14
 105:C:/Users/dtjld/workspace/AIoT/src/LiteOS_Lab/iot_link/network/mqtt/paho_mqtt/port\paho_mqtt_port.c ****     {
 106:C:/Users/dtjld/workspace/AIoT/src/LiteOS_Lab/iot_link/network/mqtt/paho_mqtt/port\paho_mqtt_port.c ****         ret = -1;
 214              		.loc 2 106 0
 215 0040 4FF0FF33 		mov	r3, #-1
 216 0044 7B61     		str	r3, [r7, #20]
 217 0046 07E0     		b	.L15
 218              	.L14:
 107:C:/Users/dtjld/workspace/AIoT/src/LiteOS_Lab/iot_link/network/mqtt/paho_mqtt/port\paho_mqtt_port.c ****     }
 108:C:/Users/dtjld/workspace/AIoT/src/LiteOS_Lab/iot_link/network/mqtt/paho_mqtt/port\paho_mqtt_port.c ****     else if(sndlen < 0)
 219              		.loc 2 108 0
 220 0048 3B69     		ldr	r3, [r7, #16]
 221 004a 002B     		cmp	r3, #0
 222 004c 02DA     		bge	.L16
 109:C:/Users/dtjld/workspace/AIoT/src/LiteOS_Lab/iot_link/network/mqtt/paho_mqtt/port\paho_mqtt_port.c ****     {
 110:C:/Users/dtjld/workspace/AIoT/src/LiteOS_Lab/iot_link/network/mqtt/paho_mqtt/port\paho_mqtt_port.c ****         ret = 0;
 223              		.loc 2 110 0
 224 004e 0023     		movs	r3, #0
 225 0050 7B61     		str	r3, [r7, #20]
 226 0052 01E0     		b	.L15
 227              	.L16:
 111:C:/Users/dtjld/workspace/AIoT/src/LiteOS_Lab/iot_link/network/mqtt/paho_mqtt/port\paho_mqtt_port.c ****     }
ARM GAS  C:\Users\dtjld\AppData\Local\Temp\ccZrCbvi.s 			page 11


 112:C:/Users/dtjld/workspace/AIoT/src/LiteOS_Lab/iot_link/network/mqtt/paho_mqtt/port\paho_mqtt_port.c ****     else
 113:C:/Users/dtjld/workspace/AIoT/src/LiteOS_Lab/iot_link/network/mqtt/paho_mqtt/port\paho_mqtt_port.c ****     {
 114:C:/Users/dtjld/workspace/AIoT/src/LiteOS_Lab/iot_link/network/mqtt/paho_mqtt/port\paho_mqtt_port.c ****         ret = sndlen;
 228              		.loc 2 114 0
 229 0054 3B69     		ldr	r3, [r7, #16]
 230 0056 7B61     		str	r3, [r7, #20]
 231              	.L15:
 115:C:/Users/dtjld/workspace/AIoT/src/LiteOS_Lab/iot_link/network/mqtt/paho_mqtt/port\paho_mqtt_port.c ****     }
 116:C:/Users/dtjld/workspace/AIoT/src/LiteOS_Lab/iot_link/network/mqtt/paho_mqtt/port\paho_mqtt_port.c **** 
 117:C:/Users/dtjld/workspace/AIoT/src/LiteOS_Lab/iot_link/network/mqtt/paho_mqtt/port\paho_mqtt_port.c ****     return ret;
 232              		.loc 2 117 0
 233 0058 7B69     		ldr	r3, [r7, #20]
 234              	.L13:
 118:C:/Users/dtjld/workspace/AIoT/src/LiteOS_Lab/iot_link/network/mqtt/paho_mqtt/port\paho_mqtt_port.c **** }
 235              		.loc 2 118 0
 236 005a 1846     		mov	r0, r3
 237 005c 1837     		adds	r7, r7, #24
 238              	.LCFI14:
 239              		.cfi_def_cfa_offset 8
 240 005e BD46     		mov	sp, r7
 241              	.LCFI15:
 242              		.cfi_def_cfa_register 13
 243              		@ sp needed
 244 0060 80BD     		pop	{r7, pc}
 245              		.cfi_endproc
 246              	.LFE22:
 248              		.section	.rodata
 249              		.align	2
 250              	.LC2:
 251 0000 256400   		.ascii	"%d\000"
 252              		.section	.text.__tls_connect,"ax",%progbits
 253              		.align	1
 254              		.syntax unified
 255              		.thumb
 256              		.thumb_func
 257              		.fpu fpv4-sp-d16
 259              	__tls_connect:
 260              	.LFB23:
 119:C:/Users/dtjld/workspace/AIoT/src/LiteOS_Lab/iot_link/network/mqtt/paho_mqtt/port\paho_mqtt_port.c **** 
 120:C:/Users/dtjld/workspace/AIoT/src/LiteOS_Lab/iot_link/network/mqtt/paho_mqtt/port\paho_mqtt_port.c **** #define PORT_BUF_LEN 16
 121:C:/Users/dtjld/workspace/AIoT/src/LiteOS_Lab/iot_link/network/mqtt/paho_mqtt/port\paho_mqtt_port.c **** static int __tls_connect(Network *n, char *addr, int port)
 122:C:/Users/dtjld/workspace/AIoT/src/LiteOS_Lab/iot_link/network/mqtt/paho_mqtt/port\paho_mqtt_port.c **** {
 261              		.loc 2 122 0
 262              		.cfi_startproc
 263              		@ args = 0, pretend = 0, frame = 96
 264              		@ frame_needed = 1, uses_anonymous_args = 0
 265 0000 80B5     		push	{r7, lr}
 266              	.LCFI16:
 267              		.cfi_def_cfa_offset 8
 268              		.cfi_offset 7, -8
 269              		.cfi_offset 14, -4
 270 0002 98B0     		sub	sp, sp, #96
 271              	.LCFI17:
 272              		.cfi_def_cfa_offset 104
 273 0004 00AF     		add	r7, sp, #0
 274              	.LCFI18:
 275              		.cfi_def_cfa_register 7
ARM GAS  C:\Users\dtjld\AppData\Local\Temp\ccZrCbvi.s 			page 12


 276 0006 F860     		str	r0, [r7, #12]
 277 0008 B960     		str	r1, [r7, #8]
 278 000a 7A60     		str	r2, [r7, #4]
 123:C:/Users/dtjld/workspace/AIoT/src/LiteOS_Lab/iot_link/network/mqtt/paho_mqtt/port\paho_mqtt_port.c ****     int ret;
 124:C:/Users/dtjld/workspace/AIoT/src/LiteOS_Lab/iot_link/network/mqtt/paho_mqtt/port\paho_mqtt_port.c ****     mbedtls_ssl_context *ssl;
 125:C:/Users/dtjld/workspace/AIoT/src/LiteOS_Lab/iot_link/network/mqtt/paho_mqtt/port\paho_mqtt_port.c ****     dtls_shakehand_info_s shakehand_info;
 126:C:/Users/dtjld/workspace/AIoT/src/LiteOS_Lab/iot_link/network/mqtt/paho_mqtt/port\paho_mqtt_port.c ****     dtls_establish_info_s establish_info;
 127:C:/Users/dtjld/workspace/AIoT/src/LiteOS_Lab/iot_link/network/mqtt/paho_mqtt/port\paho_mqtt_port.c ****     char port_buf[PORT_BUF_LEN];
 128:C:/Users/dtjld/workspace/AIoT/src/LiteOS_Lab/iot_link/network/mqtt/paho_mqtt/port\paho_mqtt_port.c **** 
 129:C:/Users/dtjld/workspace/AIoT/src/LiteOS_Lab/iot_link/network/mqtt/paho_mqtt/port\paho_mqtt_port.c ****     memset(&shakehand_info, 0, sizeof(dtls_shakehand_info_s));
 279              		.loc 2 129 0
 280 000c 07F13403 		add	r3, r7, #52
 281 0010 2422     		movs	r2, #36
 282 0012 0021     		movs	r1, #0
 283 0014 1846     		mov	r0, r3
 284 0016 FFF7FEFF 		bl	memset
 130:C:/Users/dtjld/workspace/AIoT/src/LiteOS_Lab/iot_link/network/mqtt/paho_mqtt/port\paho_mqtt_port.c **** 
 131:C:/Users/dtjld/workspace/AIoT/src/LiteOS_Lab/iot_link/network/mqtt/paho_mqtt/port\paho_mqtt_port.c ****     if (n->arg.type == en_mqtt_al_security_psk)
 285              		.loc 2 131 0
 286 001a FB68     		ldr	r3, [r7, #12]
 287 001c 1B79     		ldrb	r3, [r3, #4]	@ zero_extendqisi2
 288 001e 012B     		cmp	r3, #1
 289 0020 0FD1     		bne	.L18
 132:C:/Users/dtjld/workspace/AIoT/src/LiteOS_Lab/iot_link/network/mqtt/paho_mqtt/port\paho_mqtt_port.c ****     {
 133:C:/Users/dtjld/workspace/AIoT/src/LiteOS_Lab/iot_link/network/mqtt/paho_mqtt/port\paho_mqtt_port.c ****         establish_info.psk_or_cert = VERIFY_WITH_PSK;
 290              		.loc 2 133 0
 291 0022 0023     		movs	r3, #0
 292 0024 87F82C30 		strb	r3, [r7, #44]
 134:C:/Users/dtjld/workspace/AIoT/src/LiteOS_Lab/iot_link/network/mqtt/paho_mqtt/port\paho_mqtt_port.c ****         establish_info.v.p.psk =(const unsigned char *) n->arg.u.psk.psk_key.data;
 293              		.loc 2 134 0
 294 0028 FB68     		ldr	r3, [r7, #12]
 295 002a 1B69     		ldr	r3, [r3, #16]
 296 002c 3B62     		str	r3, [r7, #32]
 135:C:/Users/dtjld/workspace/AIoT/src/LiteOS_Lab/iot_link/network/mqtt/paho_mqtt/port\paho_mqtt_port.c ****         establish_info.v.p.psk_len = n->arg.u.psk.psk_key.len;
 297              		.loc 2 135 0
 298 002e FB68     		ldr	r3, [r7, #12]
 299 0030 5B69     		ldr	r3, [r3, #20]
 300 0032 7B62     		str	r3, [r7, #36]
 136:C:/Users/dtjld/workspace/AIoT/src/LiteOS_Lab/iot_link/network/mqtt/paho_mqtt/port\paho_mqtt_port.c ****         establish_info.v.p.psk_identity = (unsigned char *)n->arg.u.psk.psk_id.data;
 301              		.loc 2 136 0
 302 0034 FB68     		ldr	r3, [r7, #12]
 303 0036 9B68     		ldr	r3, [r3, #8]
 304 0038 BB62     		str	r3, [r7, #40]
 137:C:/Users/dtjld/workspace/AIoT/src/LiteOS_Lab/iot_link/network/mqtt/paho_mqtt/port\paho_mqtt_port.c **** 
 138:C:/Users/dtjld/workspace/AIoT/src/LiteOS_Lab/iot_link/network/mqtt/paho_mqtt/port\paho_mqtt_port.c ****         shakehand_info.psk_or_cert = VERIFY_WITH_PSK;
 305              		.loc 2 138 0
 306 003a 0023     		movs	r3, #0
 307 003c 87F84830 		strb	r3, [r7, #72]
 308 0040 0FE0     		b	.L19
 309              	.L18:
 139:C:/Users/dtjld/workspace/AIoT/src/LiteOS_Lab/iot_link/network/mqtt/paho_mqtt/port\paho_mqtt_port.c **** 
 140:C:/Users/dtjld/workspace/AIoT/src/LiteOS_Lab/iot_link/network/mqtt/paho_mqtt/port\paho_mqtt_port.c **** 
 141:C:/Users/dtjld/workspace/AIoT/src/LiteOS_Lab/iot_link/network/mqtt/paho_mqtt/port\paho_mqtt_port.c ****     }
 142:C:/Users/dtjld/workspace/AIoT/src/LiteOS_Lab/iot_link/network/mqtt/paho_mqtt/port\paho_mqtt_port.c ****     else if(n->arg.type == en_mqtt_al_security_cas)
 310              		.loc 2 142 0
 311 0042 FB68     		ldr	r3, [r7, #12]
 312 0044 1B79     		ldrb	r3, [r3, #4]	@ zero_extendqisi2
ARM GAS  C:\Users\dtjld\AppData\Local\Temp\ccZrCbvi.s 			page 13


 313 0046 022B     		cmp	r3, #2
 314 0048 0BD1     		bne	.L19
 143:C:/Users/dtjld/workspace/AIoT/src/LiteOS_Lab/iot_link/network/mqtt/paho_mqtt/port\paho_mqtt_port.c ****     {
 144:C:/Users/dtjld/workspace/AIoT/src/LiteOS_Lab/iot_link/network/mqtt/paho_mqtt/port\paho_mqtt_port.c ****         establish_info.psk_or_cert = VERIFY_WITH_CERT;
 315              		.loc 2 144 0
 316 004a 0123     		movs	r3, #1
 317 004c 87F82C30 		strb	r3, [r7, #44]
 145:C:/Users/dtjld/workspace/AIoT/src/LiteOS_Lab/iot_link/network/mqtt/paho_mqtt/port\paho_mqtt_port.c ****         establish_info.v.c.ca_cert = (const unsigned char *)n->arg.u.cas.ca_crt.data;
 318              		.loc 2 145 0
 319 0050 FB68     		ldr	r3, [r7, #12]
 320 0052 9B68     		ldr	r3, [r3, #8]
 321 0054 3B62     		str	r3, [r7, #32]
 146:C:/Users/dtjld/workspace/AIoT/src/LiteOS_Lab/iot_link/network/mqtt/paho_mqtt/port\paho_mqtt_port.c ****         establish_info.v.c.cert_len = n->arg.u.cas.ca_crt.len;
 322              		.loc 2 146 0
 323 0056 FB68     		ldr	r3, [r7, #12]
 324 0058 DB68     		ldr	r3, [r3, #12]
 325 005a 7B62     		str	r3, [r7, #36]
 147:C:/Users/dtjld/workspace/AIoT/src/LiteOS_Lab/iot_link/network/mqtt/paho_mqtt/port\paho_mqtt_port.c ****         shakehand_info.psk_or_cert = VERIFY_WITH_CERT;
 326              		.loc 2 147 0
 327 005c 0123     		movs	r3, #1
 328 005e 87F84830 		strb	r3, [r7, #72]
 329              	.L19:
 148:C:/Users/dtjld/workspace/AIoT/src/LiteOS_Lab/iot_link/network/mqtt/paho_mqtt/port\paho_mqtt_port.c ****     }
 149:C:/Users/dtjld/workspace/AIoT/src/LiteOS_Lab/iot_link/network/mqtt/paho_mqtt/port\paho_mqtt_port.c ****     establish_info.udp_or_tcp = MBEDTLS_NET_PROTO_TCP;
 330              		.loc 2 149 0
 331 0062 0023     		movs	r3, #0
 332 0064 3B63     		str	r3, [r7, #48]
 150:C:/Users/dtjld/workspace/AIoT/src/LiteOS_Lab/iot_link/network/mqtt/paho_mqtt/port\paho_mqtt_port.c **** 
 151:C:/Users/dtjld/workspace/AIoT/src/LiteOS_Lab/iot_link/network/mqtt/paho_mqtt/port\paho_mqtt_port.c ****     ssl = (void *)dtls_ssl_new(&establish_info, MBEDTLS_SSL_IS_CLIENT);
 333              		.loc 2 151 0
 334 0066 07F12003 		add	r3, r7, #32
 335 006a 0021     		movs	r1, #0
 336 006c 1846     		mov	r0, r3
 337 006e FFF7FEFF 		bl	dtls_ssl_new
 338 0072 F865     		str	r0, [r7, #92]
 152:C:/Users/dtjld/workspace/AIoT/src/LiteOS_Lab/iot_link/network/mqtt/paho_mqtt/port\paho_mqtt_port.c ****     if (NULL == ssl)
 339              		.loc 2 152 0
 340 0074 FB6D     		ldr	r3, [r7, #92]
 341 0076 002B     		cmp	r3, #0
 342 0078 1ED0     		beq	.L25
 153:C:/Users/dtjld/workspace/AIoT/src/LiteOS_Lab/iot_link/network/mqtt/paho_mqtt/port\paho_mqtt_port.c ****     {
 154:C:/Users/dtjld/workspace/AIoT/src/LiteOS_Lab/iot_link/network/mqtt/paho_mqtt/port\paho_mqtt_port.c ****         goto exit;
 155:C:/Users/dtjld/workspace/AIoT/src/LiteOS_Lab/iot_link/network/mqtt/paho_mqtt/port\paho_mqtt_port.c ****     }
 156:C:/Users/dtjld/workspace/AIoT/src/LiteOS_Lab/iot_link/network/mqtt/paho_mqtt/port\paho_mqtt_port.c **** 
 157:C:/Users/dtjld/workspace/AIoT/src/LiteOS_Lab/iot_link/network/mqtt/paho_mqtt/port\paho_mqtt_port.c ****     shakehand_info.client_or_server = MBEDTLS_SSL_IS_CLIENT;
 343              		.loc 2 157 0
 344 007a 0023     		movs	r3, #0
 345 007c 3B64     		str	r3, [r7, #64]
 158:C:/Users/dtjld/workspace/AIoT/src/LiteOS_Lab/iot_link/network/mqtt/paho_mqtt/port\paho_mqtt_port.c ****     shakehand_info.udp_or_tcp = MBEDTLS_NET_PROTO_TCP;
 346              		.loc 2 158 0
 347 007e 0023     		movs	r3, #0
 348 0080 7B64     		str	r3, [r7, #68]
 159:C:/Users/dtjld/workspace/AIoT/src/LiteOS_Lab/iot_link/network/mqtt/paho_mqtt/port\paho_mqtt_port.c ****     shakehand_info.u.c.host = addr;
 349              		.loc 2 159 0
 350 0082 BB68     		ldr	r3, [r7, #8]
 351 0084 7B63     		str	r3, [r7, #52]
 160:C:/Users/dtjld/workspace/AIoT/src/LiteOS_Lab/iot_link/network/mqtt/paho_mqtt/port\paho_mqtt_port.c ****     snprintf(port_buf, PORT_BUF_LEN, "%d", port);
ARM GAS  C:\Users\dtjld\AppData\Local\Temp\ccZrCbvi.s 			page 14


 352              		.loc 2 160 0
 353 0086 07F11000 		add	r0, r7, #16
 354 008a 7B68     		ldr	r3, [r7, #4]
 355 008c 104A     		ldr	r2, .L27
 356 008e 1021     		movs	r1, #16
 357 0090 FFF7FEFF 		bl	snprintf
 161:C:/Users/dtjld/workspace/AIoT/src/LiteOS_Lab/iot_link/network/mqtt/paho_mqtt/port\paho_mqtt_port.c ****     shakehand_info.u.c.port = port_buf;
 358              		.loc 2 161 0
 359 0094 07F11003 		add	r3, r7, #16
 360 0098 BB63     		str	r3, [r7, #56]
 162:C:/Users/dtjld/workspace/AIoT/src/LiteOS_Lab/iot_link/network/mqtt/paho_mqtt/port\paho_mqtt_port.c **** 
 163:C:/Users/dtjld/workspace/AIoT/src/LiteOS_Lab/iot_link/network/mqtt/paho_mqtt/port\paho_mqtt_port.c ****     ret = dtls_shakehand(ssl, &shakehand_info);
 361              		.loc 2 163 0
 362 009a 07F13403 		add	r3, r7, #52
 363 009e 1946     		mov	r1, r3
 364 00a0 F86D     		ldr	r0, [r7, #92]
 365 00a2 FFF7FEFF 		bl	dtls_shakehand
 366 00a6 B865     		str	r0, [r7, #88]
 164:C:/Users/dtjld/workspace/AIoT/src/LiteOS_Lab/iot_link/network/mqtt/paho_mqtt/port\paho_mqtt_port.c ****     if (ret != 0)
 367              		.loc 2 164 0
 368 00a8 BB6D     		ldr	r3, [r7, #88]
 369 00aa 002B     		cmp	r3, #0
 370 00ac 06D1     		bne	.L26
 165:C:/Users/dtjld/workspace/AIoT/src/LiteOS_Lab/iot_link/network/mqtt/paho_mqtt/port\paho_mqtt_port.c ****     {
 166:C:/Users/dtjld/workspace/AIoT/src/LiteOS_Lab/iot_link/network/mqtt/paho_mqtt/port\paho_mqtt_port.c ****         goto exit;
 167:C:/Users/dtjld/workspace/AIoT/src/LiteOS_Lab/iot_link/network/mqtt/paho_mqtt/port\paho_mqtt_port.c ****     }
 168:C:/Users/dtjld/workspace/AIoT/src/LiteOS_Lab/iot_link/network/mqtt/paho_mqtt/port\paho_mqtt_port.c **** 
 169:C:/Users/dtjld/workspace/AIoT/src/LiteOS_Lab/iot_link/network/mqtt/paho_mqtt/port\paho_mqtt_port.c ****     n->ctx = ssl;
 371              		.loc 2 169 0
 372 00ae FB68     		ldr	r3, [r7, #12]
 373 00b0 FA6D     		ldr	r2, [r7, #92]
 374 00b2 1A60     		str	r2, [r3]
 170:C:/Users/dtjld/workspace/AIoT/src/LiteOS_Lab/iot_link/network/mqtt/paho_mqtt/port\paho_mqtt_port.c ****     return 0;
 375              		.loc 2 170 0
 376 00b4 0023     		movs	r3, #0
 377 00b6 07E0     		b	.L24
 378              	.L25:
 154:C:/Users/dtjld/workspace/AIoT/src/LiteOS_Lab/iot_link/network/mqtt/paho_mqtt/port\paho_mqtt_port.c ****     }
 379              		.loc 2 154 0
 380 00b8 00BF     		nop
 381 00ba 00E0     		b	.L21
 382              	.L26:
 166:C:/Users/dtjld/workspace/AIoT/src/LiteOS_Lab/iot_link/network/mqtt/paho_mqtt/port\paho_mqtt_port.c ****     }
 383              		.loc 2 166 0
 384 00bc 00BF     		nop
 385              	.L21:
 171:C:/Users/dtjld/workspace/AIoT/src/LiteOS_Lab/iot_link/network/mqtt/paho_mqtt/port\paho_mqtt_port.c **** exit:
 172:C:/Users/dtjld/workspace/AIoT/src/LiteOS_Lab/iot_link/network/mqtt/paho_mqtt/port\paho_mqtt_port.c ****     dtls_ssl_destroy(ssl);
 386              		.loc 2 172 0
 387 00be F86D     		ldr	r0, [r7, #92]
 388 00c0 FFF7FEFF 		bl	dtls_ssl_destroy
 173:C:/Users/dtjld/workspace/AIoT/src/LiteOS_Lab/iot_link/network/mqtt/paho_mqtt/port\paho_mqtt_port.c ****     return -1;
 389              		.loc 2 173 0
 390 00c4 4FF0FF33 		mov	r3, #-1
 391              	.L24:
 174:C:/Users/dtjld/workspace/AIoT/src/LiteOS_Lab/iot_link/network/mqtt/paho_mqtt/port\paho_mqtt_port.c **** }
 392              		.loc 2 174 0 discriminator 1
ARM GAS  C:\Users\dtjld\AppData\Local\Temp\ccZrCbvi.s 			page 15


 393 00c8 1846     		mov	r0, r3
 394 00ca 6037     		adds	r7, r7, #96
 395              	.LCFI19:
 396              		.cfi_def_cfa_offset 8
 397 00cc BD46     		mov	sp, r7
 398              	.LCFI20:
 399              		.cfi_def_cfa_register 13
 400              		@ sp needed
 401 00ce 80BD     		pop	{r7, pc}
 402              	.L28:
 403              		.align	2
 404              	.L27:
 405 00d0 00000000 		.word	.LC2
 406              		.cfi_endproc
 407              	.LFE23:
 409              		.section	.text.__tls_disconnect,"ax",%progbits
 410              		.align	1
 411              		.syntax unified
 412              		.thumb
 413              		.thumb_func
 414              		.fpu fpv4-sp-d16
 416              	__tls_disconnect:
 417              	.LFB24:
 175:C:/Users/dtjld/workspace/AIoT/src/LiteOS_Lab/iot_link/network/mqtt/paho_mqtt/port\paho_mqtt_port.c **** 
 176:C:/Users/dtjld/workspace/AIoT/src/LiteOS_Lab/iot_link/network/mqtt/paho_mqtt/port\paho_mqtt_port.c **** static void __tls_disconnect(void *ctx)
 177:C:/Users/dtjld/workspace/AIoT/src/LiteOS_Lab/iot_link/network/mqtt/paho_mqtt/port\paho_mqtt_port.c **** {
 418              		.loc 2 177 0
 419              		.cfi_startproc
 420              		@ args = 0, pretend = 0, frame = 8
 421              		@ frame_needed = 1, uses_anonymous_args = 0
 422 0000 80B5     		push	{r7, lr}
 423              	.LCFI21:
 424              		.cfi_def_cfa_offset 8
 425              		.cfi_offset 7, -8
 426              		.cfi_offset 14, -4
 427 0002 82B0     		sub	sp, sp, #8
 428              	.LCFI22:
 429              		.cfi_def_cfa_offset 16
 430 0004 00AF     		add	r7, sp, #0
 431              	.LCFI23:
 432              		.cfi_def_cfa_register 7
 433 0006 7860     		str	r0, [r7, #4]
 178:C:/Users/dtjld/workspace/AIoT/src/LiteOS_Lab/iot_link/network/mqtt/paho_mqtt/port\paho_mqtt_port.c ****     if(NULL != ctx)
 434              		.loc 2 178 0
 435 0008 7B68     		ldr	r3, [r7, #4]
 436 000a 002B     		cmp	r3, #0
 437 000c 03D0     		beq	.L32
 179:C:/Users/dtjld/workspace/AIoT/src/LiteOS_Lab/iot_link/network/mqtt/paho_mqtt/port\paho_mqtt_port.c ****     {
 180:C:/Users/dtjld/workspace/AIoT/src/LiteOS_Lab/iot_link/network/mqtt/paho_mqtt/port\paho_mqtt_port.c ****         dtls_ssl_destroy(ctx);
 438              		.loc 2 180 0
 439 000e 7868     		ldr	r0, [r7, #4]
 440 0010 FFF7FEFF 		bl	dtls_ssl_destroy
 181:C:/Users/dtjld/workspace/AIoT/src/LiteOS_Lab/iot_link/network/mqtt/paho_mqtt/port\paho_mqtt_port.c ****     }
 182:C:/Users/dtjld/workspace/AIoT/src/LiteOS_Lab/iot_link/network/mqtt/paho_mqtt/port\paho_mqtt_port.c **** 
 183:C:/Users/dtjld/workspace/AIoT/src/LiteOS_Lab/iot_link/network/mqtt/paho_mqtt/port\paho_mqtt_port.c ****     return;
 441              		.loc 2 183 0
 442 0014 00BF     		nop
ARM GAS  C:\Users\dtjld\AppData\Local\Temp\ccZrCbvi.s 			page 16


 443              	.L32:
 444 0016 00BF     		nop
 184:C:/Users/dtjld/workspace/AIoT/src/LiteOS_Lab/iot_link/network/mqtt/paho_mqtt/port\paho_mqtt_port.c **** }
 445              		.loc 2 184 0
 446 0018 0837     		adds	r7, r7, #8
 447              	.LCFI24:
 448              		.cfi_def_cfa_offset 8
 449 001a BD46     		mov	sp, r7
 450              	.LCFI25:
 451              		.cfi_def_cfa_register 13
 452              		@ sp needed
 453 001c 80BD     		pop	{r7, pc}
 454              		.cfi_endproc
 455              	.LFE24:
 457              		.section	.text.__socket_read,"ax",%progbits
 458              		.align	1
 459              		.syntax unified
 460              		.thumb
 461              		.thumb_func
 462              		.fpu fpv4-sp-d16
 464              	__socket_read:
 465              	.LFB25:
 185:C:/Users/dtjld/workspace/AIoT/src/LiteOS_Lab/iot_link/network/mqtt/paho_mqtt/port\paho_mqtt_port.c **** 
 186:C:/Users/dtjld/workspace/AIoT/src/LiteOS_Lab/iot_link/network/mqtt/paho_mqtt/port\paho_mqtt_port.c **** 
 187:C:/Users/dtjld/workspace/AIoT/src/LiteOS_Lab/iot_link/network/mqtt/paho_mqtt/port\paho_mqtt_port.c **** #endif
 188:C:/Users/dtjld/workspace/AIoT/src/LiteOS_Lab/iot_link/network/mqtt/paho_mqtt/port\paho_mqtt_port.c **** 
 189:C:/Users/dtjld/workspace/AIoT/src/LiteOS_Lab/iot_link/network/mqtt/paho_mqtt/port\paho_mqtt_port.c **** ///< receve function: return code:0 means timeout -1:failed  > receive length
 190:C:/Users/dtjld/workspace/AIoT/src/LiteOS_Lab/iot_link/network/mqtt/paho_mqtt/port\paho_mqtt_port.c **** static int __socket_read(void *ctx, unsigned char *buf, int len, int timeout)
 191:C:/Users/dtjld/workspace/AIoT/src/LiteOS_Lab/iot_link/network/mqtt/paho_mqtt/port\paho_mqtt_port.c **** {
 466              		.loc 2 191 0
 467              		.cfi_startproc
 468              		@ args = 0, pretend = 0, frame = 48
 469              		@ frame_needed = 1, uses_anonymous_args = 0
 470 0000 90B5     		push	{r4, r7, lr}
 471              	.LCFI26:
 472              		.cfi_def_cfa_offset 12
 473              		.cfi_offset 4, -12
 474              		.cfi_offset 7, -8
 475              		.cfi_offset 14, -4
 476 0002 8FB0     		sub	sp, sp, #60
 477              	.LCFI27:
 478              		.cfi_def_cfa_offset 72
 479 0004 02AF     		add	r7, sp, #8
 480              	.LCFI28:
 481              		.cfi_def_cfa 7, 64
 482 0006 F860     		str	r0, [r7, #12]
 483 0008 B960     		str	r1, [r7, #8]
 484 000a 7A60     		str	r2, [r7, #4]
 485 000c 3B60     		str	r3, [r7]
 192:C:/Users/dtjld/workspace/AIoT/src/LiteOS_Lab/iot_link/network/mqtt/paho_mqtt/port\paho_mqtt_port.c ****     int fd;
 193:C:/Users/dtjld/workspace/AIoT/src/LiteOS_Lab/iot_link/network/mqtt/paho_mqtt/port\paho_mqtt_port.c ****     int ret = 0;
 486              		.loc 2 193 0
 487 000e 0023     		movs	r3, #0
 488 0010 FB62     		str	r3, [r7, #44]
 194:C:/Users/dtjld/workspace/AIoT/src/LiteOS_Lab/iot_link/network/mqtt/paho_mqtt/port\paho_mqtt_port.c ****     int rcvlen = -1;
 489              		.loc 2 194 0
 490 0012 4FF0FF33 		mov	r3, #-1
ARM GAS  C:\Users\dtjld\AppData\Local\Temp\ccZrCbvi.s 			page 17


 491 0016 BB62     		str	r3, [r7, #40]
 195:C:/Users/dtjld/workspace/AIoT/src/LiteOS_Lab/iot_link/network/mqtt/paho_mqtt/port\paho_mqtt_port.c **** 
 196:C:/Users/dtjld/workspace/AIoT/src/LiteOS_Lab/iot_link/network/mqtt/paho_mqtt/port\paho_mqtt_port.c ****     struct timeval timedelay;
 197:C:/Users/dtjld/workspace/AIoT/src/LiteOS_Lab/iot_link/network/mqtt/paho_mqtt/port\paho_mqtt_port.c **** 
 198:C:/Users/dtjld/workspace/AIoT/src/LiteOS_Lab/iot_link/network/mqtt/paho_mqtt/port\paho_mqtt_port.c ****     if((NULL == ctx)||(NULL== buf))
 492              		.loc 2 198 0
 493 0018 FB68     		ldr	r3, [r7, #12]
 494 001a 002B     		cmp	r3, #0
 495 001c 02D0     		beq	.L34
 496              		.loc 2 198 0 is_stmt 0 discriminator 1
 497 001e BB68     		ldr	r3, [r7, #8]
 498 0020 002B     		cmp	r3, #0
 499 0022 01D1     		bne	.L35
 500              	.L34:
 199:C:/Users/dtjld/workspace/AIoT/src/LiteOS_Lab/iot_link/network/mqtt/paho_mqtt/port\paho_mqtt_port.c ****     {
 200:C:/Users/dtjld/workspace/AIoT/src/LiteOS_Lab/iot_link/network/mqtt/paho_mqtt/port\paho_mqtt_port.c ****         return ret;
 501              		.loc 2 200 0 is_stmt 1
 502 0024 FB6A     		ldr	r3, [r7, #44]
 503 0026 45E0     		b	.L41
 504              	.L35:
 201:C:/Users/dtjld/workspace/AIoT/src/LiteOS_Lab/iot_link/network/mqtt/paho_mqtt/port\paho_mqtt_port.c ****     }
 202:C:/Users/dtjld/workspace/AIoT/src/LiteOS_Lab/iot_link/network/mqtt/paho_mqtt/port\paho_mqtt_port.c **** 
 203:C:/Users/dtjld/workspace/AIoT/src/LiteOS_Lab/iot_link/network/mqtt/paho_mqtt/port\paho_mqtt_port.c ****     fd = (int)ctx;
 505              		.loc 2 203 0
 506 0028 FB68     		ldr	r3, [r7, #12]
 507 002a 7B62     		str	r3, [r7, #36]
 204:C:/Users/dtjld/workspace/AIoT/src/LiteOS_Lab/iot_link/network/mqtt/paho_mqtt/port\paho_mqtt_port.c **** 
 205:C:/Users/dtjld/workspace/AIoT/src/LiteOS_Lab/iot_link/network/mqtt/paho_mqtt/port\paho_mqtt_port.c ****     timedelay.tv_sec = timeout/1000;
 508              		.loc 2 205 0
 509 002c 3B68     		ldr	r3, [r7]
 510 002e 234A     		ldr	r2, .L42
 511 0030 82FB0312 		smull	r1, r2, r2, r3
 512 0034 9211     		asrs	r2, r2, #6
 513 0036 DB17     		asrs	r3, r3, #31
 514 0038 D31A     		subs	r3, r2, r3
 515 003a 4FEAE374 		asr	r4, r3, #31
 516 003e C7E90434 		strd	r3, [r7, #16]
 206:C:/Users/dtjld/workspace/AIoT/src/LiteOS_Lab/iot_link/network/mqtt/paho_mqtt/port\paho_mqtt_port.c ****     timedelay.tv_usec = (timeout%1000)*1000;
 517              		.loc 2 206 0
 518 0042 3A68     		ldr	r2, [r7]
 519 0044 1D4B     		ldr	r3, .L42
 520 0046 83FB0213 		smull	r1, r3, r3, r2
 521 004a 9911     		asrs	r1, r3, #6
 522 004c D317     		asrs	r3, r2, #31
 523 004e CB1A     		subs	r3, r1, r3
 524 0050 4FF47A71 		mov	r1, #1000
 525 0054 01FB03F3 		mul	r3, r1, r3
 526 0058 D31A     		subs	r3, r2, r3
 527 005a 4FF47A72 		mov	r2, #1000
 528 005e 02FB03F3 		mul	r3, r2, r3
 529 0062 BB61     		str	r3, [r7, #24]
 207:C:/Users/dtjld/workspace/AIoT/src/LiteOS_Lab/iot_link/network/mqtt/paho_mqtt/port\paho_mqtt_port.c **** 
 208:C:/Users/dtjld/workspace/AIoT/src/LiteOS_Lab/iot_link/network/mqtt/paho_mqtt/port\paho_mqtt_port.c ****     ///< set the recv timeout
 209:C:/Users/dtjld/workspace/AIoT/src/LiteOS_Lab/iot_link/network/mqtt/paho_mqtt/port\paho_mqtt_port.c ****     if(0 != sal_setsockopt(fd,SOL_SOCKET,SO_RCVTIMEO,&timedelay,sizeof(timedelay)))
 530              		.loc 2 209 0
 531 0064 07F11002 		add	r2, r7, #16
 532 0068 1023     		movs	r3, #16
ARM GAS  C:\Users\dtjld\AppData\Local\Temp\ccZrCbvi.s 			page 18


 533 006a 0093     		str	r3, [sp]
 534 006c 1346     		mov	r3, r2
 535 006e 41F20602 		movw	r2, #4102
 536 0072 4FF6FF71 		movw	r1, #65535
 537 0076 786A     		ldr	r0, [r7, #36]
 538 0078 FFF7FEFF 		bl	sal_setsockopt
 539 007c 0346     		mov	r3, r0
 540 007e 002B     		cmp	r3, #0
 541 0080 01D0     		beq	.L37
 210:C:/Users/dtjld/workspace/AIoT/src/LiteOS_Lab/iot_link/network/mqtt/paho_mqtt/port\paho_mqtt_port.c ****     {
 211:C:/Users/dtjld/workspace/AIoT/src/LiteOS_Lab/iot_link/network/mqtt/paho_mqtt/port\paho_mqtt_port.c ****         return ret;  //could not support the rcv timeout
 542              		.loc 2 211 0
 543 0082 FB6A     		ldr	r3, [r7, #44]
 544 0084 16E0     		b	.L41
 545              	.L37:
 212:C:/Users/dtjld/workspace/AIoT/src/LiteOS_Lab/iot_link/network/mqtt/paho_mqtt/port\paho_mqtt_port.c ****     }
 213:C:/Users/dtjld/workspace/AIoT/src/LiteOS_Lab/iot_link/network/mqtt/paho_mqtt/port\paho_mqtt_port.c **** 
 214:C:/Users/dtjld/workspace/AIoT/src/LiteOS_Lab/iot_link/network/mqtt/paho_mqtt/port\paho_mqtt_port.c ****     rcvlen = sal_recv(fd,buf,len,0);
 546              		.loc 2 214 0
 547 0086 7A68     		ldr	r2, [r7, #4]
 548 0088 0023     		movs	r3, #0
 549 008a B968     		ldr	r1, [r7, #8]
 550 008c 786A     		ldr	r0, [r7, #36]
 551 008e FFF7FEFF 		bl	sal_recv
 552 0092 B862     		str	r0, [r7, #40]
 215:C:/Users/dtjld/workspace/AIoT/src/LiteOS_Lab/iot_link/network/mqtt/paho_mqtt/port\paho_mqtt_port.c ****     if(rcvlen == 0)
 553              		.loc 2 215 0
 554 0094 BB6A     		ldr	r3, [r7, #40]
 555 0096 002B     		cmp	r3, #0
 556 0098 03D1     		bne	.L38
 216:C:/Users/dtjld/workspace/AIoT/src/LiteOS_Lab/iot_link/network/mqtt/paho_mqtt/port\paho_mqtt_port.c ****     {
 217:C:/Users/dtjld/workspace/AIoT/src/LiteOS_Lab/iot_link/network/mqtt/paho_mqtt/port\paho_mqtt_port.c ****         ret = -1;
 557              		.loc 2 217 0
 558 009a 4FF0FF33 		mov	r3, #-1
 559 009e FB62     		str	r3, [r7, #44]
 560 00a0 07E0     		b	.L39
 561              	.L38:
 218:C:/Users/dtjld/workspace/AIoT/src/LiteOS_Lab/iot_link/network/mqtt/paho_mqtt/port\paho_mqtt_port.c ****     }
 219:C:/Users/dtjld/workspace/AIoT/src/LiteOS_Lab/iot_link/network/mqtt/paho_mqtt/port\paho_mqtt_port.c ****     else if(rcvlen < 0)
 562              		.loc 2 219 0
 563 00a2 BB6A     		ldr	r3, [r7, #40]
 564 00a4 002B     		cmp	r3, #0
 565 00a6 02DA     		bge	.L40
 220:C:/Users/dtjld/workspace/AIoT/src/LiteOS_Lab/iot_link/network/mqtt/paho_mqtt/port\paho_mqtt_port.c ****     {
 221:C:/Users/dtjld/workspace/AIoT/src/LiteOS_Lab/iot_link/network/mqtt/paho_mqtt/port\paho_mqtt_port.c ****         ret = 0;
 566              		.loc 2 221 0
 567 00a8 0023     		movs	r3, #0
 568 00aa FB62     		str	r3, [r7, #44]
 569 00ac 01E0     		b	.L39
 570              	.L40:
 222:C:/Users/dtjld/workspace/AIoT/src/LiteOS_Lab/iot_link/network/mqtt/paho_mqtt/port\paho_mqtt_port.c ****     }
 223:C:/Users/dtjld/workspace/AIoT/src/LiteOS_Lab/iot_link/network/mqtt/paho_mqtt/port\paho_mqtt_port.c ****     else
 224:C:/Users/dtjld/workspace/AIoT/src/LiteOS_Lab/iot_link/network/mqtt/paho_mqtt/port\paho_mqtt_port.c ****     {
 225:C:/Users/dtjld/workspace/AIoT/src/LiteOS_Lab/iot_link/network/mqtt/paho_mqtt/port\paho_mqtt_port.c ****         ret = rcvlen;
 571              		.loc 2 225 0
 572 00ae BB6A     		ldr	r3, [r7, #40]
 573 00b0 FB62     		str	r3, [r7, #44]
ARM GAS  C:\Users\dtjld\AppData\Local\Temp\ccZrCbvi.s 			page 19


 574              	.L39:
 226:C:/Users/dtjld/workspace/AIoT/src/LiteOS_Lab/iot_link/network/mqtt/paho_mqtt/port\paho_mqtt_port.c ****     }
 227:C:/Users/dtjld/workspace/AIoT/src/LiteOS_Lab/iot_link/network/mqtt/paho_mqtt/port\paho_mqtt_port.c ****     return ret;
 575              		.loc 2 227 0
 576 00b2 FB6A     		ldr	r3, [r7, #44]
 577              	.L41:
 228:C:/Users/dtjld/workspace/AIoT/src/LiteOS_Lab/iot_link/network/mqtt/paho_mqtt/port\paho_mqtt_port.c **** }
 578              		.loc 2 228 0 discriminator 1
 579 00b4 1846     		mov	r0, r3
 580 00b6 3437     		adds	r7, r7, #52
 581              	.LCFI29:
 582              		.cfi_def_cfa_offset 12
 583 00b8 BD46     		mov	sp, r7
 584              	.LCFI30:
 585              		.cfi_def_cfa_register 13
 586              		@ sp needed
 587 00ba 90BD     		pop	{r4, r7, pc}
 588              	.L43:
 589              		.align	2
 590              	.L42:
 591 00bc D34D6210 		.word	274877907
 592              		.cfi_endproc
 593              	.LFE25:
 595              		.section	.text.__socket_write,"ax",%progbits
 596              		.align	1
 597              		.syntax unified
 598              		.thumb
 599              		.thumb_func
 600              		.fpu fpv4-sp-d16
 602              	__socket_write:
 603              	.LFB26:
 229:C:/Users/dtjld/workspace/AIoT/src/LiteOS_Lab/iot_link/network/mqtt/paho_mqtt/port\paho_mqtt_port.c **** 
 230:C:/Users/dtjld/workspace/AIoT/src/LiteOS_Lab/iot_link/network/mqtt/paho_mqtt/port\paho_mqtt_port.c **** 
 231:C:/Users/dtjld/workspace/AIoT/src/LiteOS_Lab/iot_link/network/mqtt/paho_mqtt/port\paho_mqtt_port.c **** ///< receve function: return code:0 means timeout -1:failed  > receive length
 232:C:/Users/dtjld/workspace/AIoT/src/LiteOS_Lab/iot_link/network/mqtt/paho_mqtt/port\paho_mqtt_port.c **** static int __socket_write(void *ctx, unsigned char *buf, int len, int timeout)
 233:C:/Users/dtjld/workspace/AIoT/src/LiteOS_Lab/iot_link/network/mqtt/paho_mqtt/port\paho_mqtt_port.c **** {
 604              		.loc 2 233 0
 605              		.cfi_startproc
 606              		@ args = 0, pretend = 0, frame = 48
 607              		@ frame_needed = 1, uses_anonymous_args = 0
 608 0000 90B5     		push	{r4, r7, lr}
 609              	.LCFI31:
 610              		.cfi_def_cfa_offset 12
 611              		.cfi_offset 4, -12
 612              		.cfi_offset 7, -8
 613              		.cfi_offset 14, -4
 614 0002 8FB0     		sub	sp, sp, #60
 615              	.LCFI32:
 616              		.cfi_def_cfa_offset 72
 617 0004 02AF     		add	r7, sp, #8
 618              	.LCFI33:
 619              		.cfi_def_cfa 7, 64
 620 0006 F860     		str	r0, [r7, #12]
 621 0008 B960     		str	r1, [r7, #8]
 622 000a 7A60     		str	r2, [r7, #4]
 623 000c 3B60     		str	r3, [r7]
 234:C:/Users/dtjld/workspace/AIoT/src/LiteOS_Lab/iot_link/network/mqtt/paho_mqtt/port\paho_mqtt_port.c ****     int fd;
ARM GAS  C:\Users\dtjld\AppData\Local\Temp\ccZrCbvi.s 			page 20


 235:C:/Users/dtjld/workspace/AIoT/src/LiteOS_Lab/iot_link/network/mqtt/paho_mqtt/port\paho_mqtt_port.c ****     int ret = 0;
 624              		.loc 2 235 0
 625 000e 0023     		movs	r3, #0
 626 0010 FB62     		str	r3, [r7, #44]
 236:C:/Users/dtjld/workspace/AIoT/src/LiteOS_Lab/iot_link/network/mqtt/paho_mqtt/port\paho_mqtt_port.c ****     int sndlen = -1;
 627              		.loc 2 236 0
 628 0012 4FF0FF33 		mov	r3, #-1
 629 0016 BB62     		str	r3, [r7, #40]
 237:C:/Users/dtjld/workspace/AIoT/src/LiteOS_Lab/iot_link/network/mqtt/paho_mqtt/port\paho_mqtt_port.c **** 
 238:C:/Users/dtjld/workspace/AIoT/src/LiteOS_Lab/iot_link/network/mqtt/paho_mqtt/port\paho_mqtt_port.c ****     struct timeval timedelay;
 239:C:/Users/dtjld/workspace/AIoT/src/LiteOS_Lab/iot_link/network/mqtt/paho_mqtt/port\paho_mqtt_port.c **** 
 240:C:/Users/dtjld/workspace/AIoT/src/LiteOS_Lab/iot_link/network/mqtt/paho_mqtt/port\paho_mqtt_port.c ****     if((NULL == ctx)||(NULL== buf))
 630              		.loc 2 240 0
 631 0018 FB68     		ldr	r3, [r7, #12]
 632 001a 002B     		cmp	r3, #0
 633 001c 02D0     		beq	.L45
 634              		.loc 2 240 0 is_stmt 0 discriminator 1
 635 001e BB68     		ldr	r3, [r7, #8]
 636 0020 002B     		cmp	r3, #0
 637 0022 01D1     		bne	.L46
 638              	.L45:
 241:C:/Users/dtjld/workspace/AIoT/src/LiteOS_Lab/iot_link/network/mqtt/paho_mqtt/port\paho_mqtt_port.c ****     {
 242:C:/Users/dtjld/workspace/AIoT/src/LiteOS_Lab/iot_link/network/mqtt/paho_mqtt/port\paho_mqtt_port.c ****         return ret;
 639              		.loc 2 242 0 is_stmt 1
 640 0024 FB6A     		ldr	r3, [r7, #44]
 641 0026 45E0     		b	.L52
 642              	.L46:
 243:C:/Users/dtjld/workspace/AIoT/src/LiteOS_Lab/iot_link/network/mqtt/paho_mqtt/port\paho_mqtt_port.c ****     }
 244:C:/Users/dtjld/workspace/AIoT/src/LiteOS_Lab/iot_link/network/mqtt/paho_mqtt/port\paho_mqtt_port.c **** 
 245:C:/Users/dtjld/workspace/AIoT/src/LiteOS_Lab/iot_link/network/mqtt/paho_mqtt/port\paho_mqtt_port.c ****     fd = (int)ctx;
 643              		.loc 2 245 0
 644 0028 FB68     		ldr	r3, [r7, #12]
 645 002a 7B62     		str	r3, [r7, #36]
 246:C:/Users/dtjld/workspace/AIoT/src/LiteOS_Lab/iot_link/network/mqtt/paho_mqtt/port\paho_mqtt_port.c **** 
 247:C:/Users/dtjld/workspace/AIoT/src/LiteOS_Lab/iot_link/network/mqtt/paho_mqtt/port\paho_mqtt_port.c ****     timedelay.tv_sec = timeout/1000;
 646              		.loc 2 247 0
 647 002c 3B68     		ldr	r3, [r7]
 648 002e 234A     		ldr	r2, .L53
 649 0030 82FB0312 		smull	r1, r2, r2, r3
 650 0034 9211     		asrs	r2, r2, #6
 651 0036 DB17     		asrs	r3, r3, #31
 652 0038 D31A     		subs	r3, r2, r3
 653 003a 4FEAE374 		asr	r4, r3, #31
 654 003e C7E90434 		strd	r3, [r7, #16]
 248:C:/Users/dtjld/workspace/AIoT/src/LiteOS_Lab/iot_link/network/mqtt/paho_mqtt/port\paho_mqtt_port.c ****     timedelay.tv_usec = (timeout%1000)*1000;
 655              		.loc 2 248 0
 656 0042 3A68     		ldr	r2, [r7]
 657 0044 1D4B     		ldr	r3, .L53
 658 0046 83FB0213 		smull	r1, r3, r3, r2
 659 004a 9911     		asrs	r1, r3, #6
 660 004c D317     		asrs	r3, r2, #31
 661 004e CB1A     		subs	r3, r1, r3
 662 0050 4FF47A71 		mov	r1, #1000
 663 0054 01FB03F3 		mul	r3, r1, r3
 664 0058 D31A     		subs	r3, r2, r3
 665 005a 4FF47A72 		mov	r2, #1000
 666 005e 02FB03F3 		mul	r3, r2, r3
ARM GAS  C:\Users\dtjld\AppData\Local\Temp\ccZrCbvi.s 			page 21


 667 0062 BB61     		str	r3, [r7, #24]
 249:C:/Users/dtjld/workspace/AIoT/src/LiteOS_Lab/iot_link/network/mqtt/paho_mqtt/port\paho_mqtt_port.c **** 
 250:C:/Users/dtjld/workspace/AIoT/src/LiteOS_Lab/iot_link/network/mqtt/paho_mqtt/port\paho_mqtt_port.c ****     ///< set the recv timeout
 251:C:/Users/dtjld/workspace/AIoT/src/LiteOS_Lab/iot_link/network/mqtt/paho_mqtt/port\paho_mqtt_port.c ****     if(0 != sal_setsockopt(fd,SOL_SOCKET,SO_SNDTIMEO,&timedelay,sizeof(timedelay)))
 668              		.loc 2 251 0
 669 0064 07F11002 		add	r2, r7, #16
 670 0068 1023     		movs	r3, #16
 671 006a 0093     		str	r3, [sp]
 672 006c 1346     		mov	r3, r2
 673 006e 41F20502 		movw	r2, #4101
 674 0072 4FF6FF71 		movw	r1, #65535
 675 0076 786A     		ldr	r0, [r7, #36]
 676 0078 FFF7FEFF 		bl	sal_setsockopt
 677 007c 0346     		mov	r3, r0
 678 007e 002B     		cmp	r3, #0
 679 0080 01D0     		beq	.L48
 252:C:/Users/dtjld/workspace/AIoT/src/LiteOS_Lab/iot_link/network/mqtt/paho_mqtt/port\paho_mqtt_port.c ****     {
 253:C:/Users/dtjld/workspace/AIoT/src/LiteOS_Lab/iot_link/network/mqtt/paho_mqtt/port\paho_mqtt_port.c ****         return ret;  //could not support the rcv timeout
 680              		.loc 2 253 0
 681 0082 FB6A     		ldr	r3, [r7, #44]
 682 0084 16E0     		b	.L52
 683              	.L48:
 254:C:/Users/dtjld/workspace/AIoT/src/LiteOS_Lab/iot_link/network/mqtt/paho_mqtt/port\paho_mqtt_port.c ****     }
 255:C:/Users/dtjld/workspace/AIoT/src/LiteOS_Lab/iot_link/network/mqtt/paho_mqtt/port\paho_mqtt_port.c **** 
 256:C:/Users/dtjld/workspace/AIoT/src/LiteOS_Lab/iot_link/network/mqtt/paho_mqtt/port\paho_mqtt_port.c ****     sndlen = sal_send(fd,buf,len,0);
 684              		.loc 2 256 0
 685 0086 7A68     		ldr	r2, [r7, #4]
 686 0088 0023     		movs	r3, #0
 687 008a B968     		ldr	r1, [r7, #8]
 688 008c 786A     		ldr	r0, [r7, #36]
 689 008e FFF7FEFF 		bl	sal_send
 690 0092 B862     		str	r0, [r7, #40]
 257:C:/Users/dtjld/workspace/AIoT/src/LiteOS_Lab/iot_link/network/mqtt/paho_mqtt/port\paho_mqtt_port.c ****     if(sndlen == 0)
 691              		.loc 2 257 0
 692 0094 BB6A     		ldr	r3, [r7, #40]
 693 0096 002B     		cmp	r3, #0
 694 0098 03D1     		bne	.L49
 258:C:/Users/dtjld/workspace/AIoT/src/LiteOS_Lab/iot_link/network/mqtt/paho_mqtt/port\paho_mqtt_port.c ****     {
 259:C:/Users/dtjld/workspace/AIoT/src/LiteOS_Lab/iot_link/network/mqtt/paho_mqtt/port\paho_mqtt_port.c ****         ret = -1;
 695              		.loc 2 259 0
 696 009a 4FF0FF33 		mov	r3, #-1
 697 009e FB62     		str	r3, [r7, #44]
 698 00a0 07E0     		b	.L50
 699              	.L49:
 260:C:/Users/dtjld/workspace/AIoT/src/LiteOS_Lab/iot_link/network/mqtt/paho_mqtt/port\paho_mqtt_port.c ****     }
 261:C:/Users/dtjld/workspace/AIoT/src/LiteOS_Lab/iot_link/network/mqtt/paho_mqtt/port\paho_mqtt_port.c ****     else if(sndlen < 0)
 700              		.loc 2 261 0
 701 00a2 BB6A     		ldr	r3, [r7, #40]
 702 00a4 002B     		cmp	r3, #0
 703 00a6 02DA     		bge	.L51
 262:C:/Users/dtjld/workspace/AIoT/src/LiteOS_Lab/iot_link/network/mqtt/paho_mqtt/port\paho_mqtt_port.c ****     {
 263:C:/Users/dtjld/workspace/AIoT/src/LiteOS_Lab/iot_link/network/mqtt/paho_mqtt/port\paho_mqtt_port.c ****         ret = 0;
 704              		.loc 2 263 0
 705 00a8 0023     		movs	r3, #0
 706 00aa FB62     		str	r3, [r7, #44]
 707 00ac 01E0     		b	.L50
 708              	.L51:
ARM GAS  C:\Users\dtjld\AppData\Local\Temp\ccZrCbvi.s 			page 22


 264:C:/Users/dtjld/workspace/AIoT/src/LiteOS_Lab/iot_link/network/mqtt/paho_mqtt/port\paho_mqtt_port.c ****     }
 265:C:/Users/dtjld/workspace/AIoT/src/LiteOS_Lab/iot_link/network/mqtt/paho_mqtt/port\paho_mqtt_port.c ****     else
 266:C:/Users/dtjld/workspace/AIoT/src/LiteOS_Lab/iot_link/network/mqtt/paho_mqtt/port\paho_mqtt_port.c ****     {
 267:C:/Users/dtjld/workspace/AIoT/src/LiteOS_Lab/iot_link/network/mqtt/paho_mqtt/port\paho_mqtt_port.c ****         ret = sndlen;
 709              		.loc 2 267 0
 710 00ae BB6A     		ldr	r3, [r7, #40]
 711 00b0 FB62     		str	r3, [r7, #44]
 712              	.L50:
 268:C:/Users/dtjld/workspace/AIoT/src/LiteOS_Lab/iot_link/network/mqtt/paho_mqtt/port\paho_mqtt_port.c ****     }
 269:C:/Users/dtjld/workspace/AIoT/src/LiteOS_Lab/iot_link/network/mqtt/paho_mqtt/port\paho_mqtt_port.c ****     return ret;
 713              		.loc 2 269 0
 714 00b2 FB6A     		ldr	r3, [r7, #44]
 715              	.L52:
 270:C:/Users/dtjld/workspace/AIoT/src/LiteOS_Lab/iot_link/network/mqtt/paho_mqtt/port\paho_mqtt_port.c **** }
 716              		.loc 2 270 0 discriminator 1
 717 00b4 1846     		mov	r0, r3
 718 00b6 3437     		adds	r7, r7, #52
 719              	.LCFI34:
 720              		.cfi_def_cfa_offset 12
 721 00b8 BD46     		mov	sp, r7
 722              	.LCFI35:
 723              		.cfi_def_cfa_register 13
 724              		@ sp needed
 725 00ba 90BD     		pop	{r4, r7, pc}
 726              	.L54:
 727              		.align	2
 728              	.L53:
 729 00bc D34D6210 		.word	274877907
 730              		.cfi_endproc
 731              	.LFE26:
 733              		.section	.text.__socket_disconnect,"ax",%progbits
 734              		.align	1
 735              		.syntax unified
 736              		.thumb
 737              		.thumb_func
 738              		.fpu fpv4-sp-d16
 740              	__socket_disconnect:
 741              	.LFB27:
 271:C:/Users/dtjld/workspace/AIoT/src/LiteOS_Lab/iot_link/network/mqtt/paho_mqtt/port\paho_mqtt_port.c **** static void __socket_disconnect(void *ctx)
 272:C:/Users/dtjld/workspace/AIoT/src/LiteOS_Lab/iot_link/network/mqtt/paho_mqtt/port\paho_mqtt_port.c **** {
 742              		.loc 2 272 0
 743              		.cfi_startproc
 744              		@ args = 0, pretend = 0, frame = 8
 745              		@ frame_needed = 1, uses_anonymous_args = 0
 746 0000 80B5     		push	{r7, lr}
 747              	.LCFI36:
 748              		.cfi_def_cfa_offset 8
 749              		.cfi_offset 7, -8
 750              		.cfi_offset 14, -4
 751 0002 82B0     		sub	sp, sp, #8
 752              	.LCFI37:
 753              		.cfi_def_cfa_offset 16
 754 0004 00AF     		add	r7, sp, #0
 755              	.LCFI38:
 756              		.cfi_def_cfa_register 7
 757 0006 7860     		str	r0, [r7, #4]
 273:C:/Users/dtjld/workspace/AIoT/src/LiteOS_Lab/iot_link/network/mqtt/paho_mqtt/port\paho_mqtt_port.c ****     sal_closesocket((int)ctx);
ARM GAS  C:\Users\dtjld\AppData\Local\Temp\ccZrCbvi.s 			page 23


 758              		.loc 2 273 0
 759 0008 7B68     		ldr	r3, [r7, #4]
 760 000a 1846     		mov	r0, r3
 761 000c FFF7FEFF 		bl	sal_closesocket
 274:C:/Users/dtjld/workspace/AIoT/src/LiteOS_Lab/iot_link/network/mqtt/paho_mqtt/port\paho_mqtt_port.c ****     return;
 762              		.loc 2 274 0
 763 0010 00BF     		nop
 275:C:/Users/dtjld/workspace/AIoT/src/LiteOS_Lab/iot_link/network/mqtt/paho_mqtt/port\paho_mqtt_port.c **** }
 764              		.loc 2 275 0
 765 0012 0837     		adds	r7, r7, #8
 766              	.LCFI39:
 767              		.cfi_def_cfa_offset 8
 768 0014 BD46     		mov	sp, r7
 769              	.LCFI40:
 770              		.cfi_def_cfa_register 13
 771              		@ sp needed
 772 0016 80BD     		pop	{r7, pc}
 773              		.cfi_endproc
 774              	.LFE27:
 776              		.section	.text.__socket_connect,"ax",%progbits
 777              		.align	1
 778              		.syntax unified
 779              		.thumb
 780              		.thumb_func
 781              		.fpu fpv4-sp-d16
 783              	__socket_connect:
 784              	.LFB28:
 276:C:/Users/dtjld/workspace/AIoT/src/LiteOS_Lab/iot_link/network/mqtt/paho_mqtt/port\paho_mqtt_port.c **** static int __socket_connect(Network *n, char *host, int port)
 277:C:/Users/dtjld/workspace/AIoT/src/LiteOS_Lab/iot_link/network/mqtt/paho_mqtt/port\paho_mqtt_port.c **** {
 785              		.loc 2 277 0
 786              		.cfi_startproc
 787              		@ args = 0, pretend = 0, frame = 48
 788              		@ frame_needed = 1, uses_anonymous_args = 0
 789 0000 80B5     		push	{r7, lr}
 790              	.LCFI41:
 791              		.cfi_def_cfa_offset 8
 792              		.cfi_offset 7, -8
 793              		.cfi_offset 14, -4
 794 0002 8CB0     		sub	sp, sp, #48
 795              	.LCFI42:
 796              		.cfi_def_cfa_offset 56
 797 0004 00AF     		add	r7, sp, #0
 798              	.LCFI43:
 799              		.cfi_def_cfa_register 7
 800 0006 F860     		str	r0, [r7, #12]
 801 0008 B960     		str	r1, [r7, #8]
 802 000a 7A60     		str	r2, [r7, #4]
 278:C:/Users/dtjld/workspace/AIoT/src/LiteOS_Lab/iot_link/network/mqtt/paho_mqtt/port\paho_mqtt_port.c ****     int ret = -1;
 803              		.loc 2 278 0
 804 000c 4FF0FF33 		mov	r3, #-1
 805 0010 FB62     		str	r3, [r7, #44]
 279:C:/Users/dtjld/workspace/AIoT/src/LiteOS_Lab/iot_link/network/mqtt/paho_mqtt/port\paho_mqtt_port.c ****     int fd = -1;
 806              		.loc 2 279 0
 807 0012 4FF0FF33 		mov	r3, #-1
 808 0016 BB62     		str	r3, [r7, #40]
 280:C:/Users/dtjld/workspace/AIoT/src/LiteOS_Lab/iot_link/network/mqtt/paho_mqtt/port\paho_mqtt_port.c ****     struct sockaddr_in addr;
 281:C:/Users/dtjld/workspace/AIoT/src/LiteOS_Lab/iot_link/network/mqtt/paho_mqtt/port\paho_mqtt_port.c **** 
ARM GAS  C:\Users\dtjld\AppData\Local\Temp\ccZrCbvi.s 			page 24


 282:C:/Users/dtjld/workspace/AIoT/src/LiteOS_Lab/iot_link/network/mqtt/paho_mqtt/port\paho_mqtt_port.c ****     ///< first we try use the gethostbyname to get the ip address, the host maybe a domain name
 283:C:/Users/dtjld/workspace/AIoT/src/LiteOS_Lab/iot_link/network/mqtt/paho_mqtt/port\paho_mqtt_port.c ****     struct hostent* entry = NULL;
 809              		.loc 2 283 0
 810 0018 0023     		movs	r3, #0
 811 001a 7B62     		str	r3, [r7, #36]
 284:C:/Users/dtjld/workspace/AIoT/src/LiteOS_Lab/iot_link/network/mqtt/paho_mqtt/port\paho_mqtt_port.c ****     entry = sal_gethostbyname(host);
 812              		.loc 2 284 0
 813 001c B868     		ldr	r0, [r7, #8]
 814 001e FFF7FEFF 		bl	sal_gethostbyname
 815 0022 7862     		str	r0, [r7, #36]
 285:C:/Users/dtjld/workspace/AIoT/src/LiteOS_Lab/iot_link/network/mqtt/paho_mqtt/port\paho_mqtt_port.c ****     if( !(entry && entry->h_addr_list[0] && (entry->h_addrtype == AF_INET)))
 816              		.loc 2 285 0
 817 0024 7B6A     		ldr	r3, [r7, #36]
 818 0026 002B     		cmp	r3, #0
 819 0028 08D0     		beq	.L58
 820              		.loc 2 285 0 is_stmt 0 discriminator 1
 821 002a 7B6A     		ldr	r3, [r7, #36]
 822 002c 1B69     		ldr	r3, [r3, #16]
 823 002e 1B68     		ldr	r3, [r3]
 824 0030 002B     		cmp	r3, #0
 825 0032 03D0     		beq	.L58
 826              		.loc 2 285 0 discriminator 2
 827 0034 7B6A     		ldr	r3, [r7, #36]
 828 0036 9B68     		ldr	r3, [r3, #8]
 829 0038 022B     		cmp	r3, #2
 830 003a 01D0     		beq	.L59
 831              	.L58:
 286:C:/Users/dtjld/workspace/AIoT/src/LiteOS_Lab/iot_link/network/mqtt/paho_mqtt/port\paho_mqtt_port.c ****     {
 287:C:/Users/dtjld/workspace/AIoT/src/LiteOS_Lab/iot_link/network/mqtt/paho_mqtt/port\paho_mqtt_port.c ****        return ret;
 832              		.loc 2 287 0 is_stmt 1
 833 003c FB6A     		ldr	r3, [r7, #44]
 834 003e 3AE0     		b	.L64
 835              	.L59:
 288:C:/Users/dtjld/workspace/AIoT/src/LiteOS_Lab/iot_link/network/mqtt/paho_mqtt/port\paho_mqtt_port.c ****     }
 289:C:/Users/dtjld/workspace/AIoT/src/LiteOS_Lab/iot_link/network/mqtt/paho_mqtt/port\paho_mqtt_port.c **** 
 290:C:/Users/dtjld/workspace/AIoT/src/LiteOS_Lab/iot_link/network/mqtt/paho_mqtt/port\paho_mqtt_port.c ****     fd = sal_socket(AF_INET,SOCK_STREAM,0);
 836              		.loc 2 290 0
 837 0040 0022     		movs	r2, #0
 838 0042 0121     		movs	r1, #1
 839 0044 0220     		movs	r0, #2
 840 0046 FFF7FEFF 		bl	sal_socket
 841 004a B862     		str	r0, [r7, #40]
 291:C:/Users/dtjld/workspace/AIoT/src/LiteOS_Lab/iot_link/network/mqtt/paho_mqtt/port\paho_mqtt_port.c ****     if(fd == -1)
 842              		.loc 2 291 0
 843 004c BB6A     		ldr	r3, [r7, #40]
 844 004e B3F1FF3F 		cmp	r3, #-1
 845 0052 01D1     		bne	.L61
 292:C:/Users/dtjld/workspace/AIoT/src/LiteOS_Lab/iot_link/network/mqtt/paho_mqtt/port\paho_mqtt_port.c ****     {
 293:C:/Users/dtjld/workspace/AIoT/src/LiteOS_Lab/iot_link/network/mqtt/paho_mqtt/port\paho_mqtt_port.c ****         return ret;
 846              		.loc 2 293 0
 847 0054 FB6A     		ldr	r3, [r7, #44]
 848 0056 2EE0     		b	.L64
 849              	.L61:
 294:C:/Users/dtjld/workspace/AIoT/src/LiteOS_Lab/iot_link/network/mqtt/paho_mqtt/port\paho_mqtt_port.c ****     }
 295:C:/Users/dtjld/workspace/AIoT/src/LiteOS_Lab/iot_link/network/mqtt/paho_mqtt/port\paho_mqtt_port.c **** 
 296:C:/Users/dtjld/workspace/AIoT/src/LiteOS_Lab/iot_link/network/mqtt/paho_mqtt/port\paho_mqtt_port.c **** 
 297:C:/Users/dtjld/workspace/AIoT/src/LiteOS_Lab/iot_link/network/mqtt/paho_mqtt/port\paho_mqtt_port.c ****     memset(&addr,0,sizeof(addr));
ARM GAS  C:\Users\dtjld\AppData\Local\Temp\ccZrCbvi.s 			page 25


 850              		.loc 2 297 0
 851 0058 07F11403 		add	r3, r7, #20
 852 005c 1022     		movs	r2, #16
 853 005e 0021     		movs	r1, #0
 854 0060 1846     		mov	r0, r3
 855 0062 FFF7FEFF 		bl	memset
 298:C:/Users/dtjld/workspace/AIoT/src/LiteOS_Lab/iot_link/network/mqtt/paho_mqtt/port\paho_mqtt_port.c ****     addr.sin_family = AF_INET;
 856              		.loc 2 298 0
 857 0066 0223     		movs	r3, #2
 858 0068 BB82     		strh	r3, [r7, #20]	@ movhi
 299:C:/Users/dtjld/workspace/AIoT/src/LiteOS_Lab/iot_link/network/mqtt/paho_mqtt/port\paho_mqtt_port.c ****     memcpy(&addr.sin_addr.s_addr,entry->h_addr_list[0],sizeof(addr.sin_addr.s_addr));
 859              		.loc 2 299 0
 860 006a 7B6A     		ldr	r3, [r7, #36]
 861 006c 1B69     		ldr	r3, [r3, #16]
 862 006e 1B68     		ldr	r3, [r3]
 863 0070 1B68     		ldr	r3, [r3]	@ unaligned
 864 0072 BB61     		str	r3, [r7, #24]
 300:C:/Users/dtjld/workspace/AIoT/src/LiteOS_Lab/iot_link/network/mqtt/paho_mqtt/port\paho_mqtt_port.c ****     addr.sin_port = htons(port);
 865              		.loc 2 300 0
 866 0074 7B68     		ldr	r3, [r7, #4]
 867 0076 1B12     		asrs	r3, r3, #8
 868 0078 1BB2     		sxth	r3, r3
 869 007a DBB2     		uxtb	r3, r3
 870 007c 1AB2     		sxth	r2, r3
 871 007e 7B68     		ldr	r3, [r7, #4]
 872 0080 1B02     		lsls	r3, r3, #8
 873 0082 1BB2     		sxth	r3, r3
 874 0084 1343     		orrs	r3, r3, r2
 875 0086 1BB2     		sxth	r3, r3
 876 0088 9BB2     		uxth	r3, r3
 877 008a FB82     		strh	r3, [r7, #22]	@ movhi
 301:C:/Users/dtjld/workspace/AIoT/src/LiteOS_Lab/iot_link/network/mqtt/paho_mqtt/port\paho_mqtt_port.c **** 
 302:C:/Users/dtjld/workspace/AIoT/src/LiteOS_Lab/iot_link/network/mqtt/paho_mqtt/port\paho_mqtt_port.c ****     if(-1 == sal_connect(fd,(struct sockaddr *)&addr,sizeof(addr)))
 878              		.loc 2 302 0
 879 008c 07F11403 		add	r3, r7, #20
 880 0090 1022     		movs	r2, #16
 881 0092 1946     		mov	r1, r3
 882 0094 B86A     		ldr	r0, [r7, #40]
 883 0096 FFF7FEFF 		bl	sal_connect
 884 009a 0346     		mov	r3, r0
 885 009c B3F1FF3F 		cmp	r3, #-1
 886 00a0 03D1     		bne	.L62
 303:C:/Users/dtjld/workspace/AIoT/src/LiteOS_Lab/iot_link/network/mqtt/paho_mqtt/port\paho_mqtt_port.c ****     {
 304:C:/Users/dtjld/workspace/AIoT/src/LiteOS_Lab/iot_link/network/mqtt/paho_mqtt/port\paho_mqtt_port.c ****         sal_closesocket(fd);
 887              		.loc 2 304 0
 888 00a2 B86A     		ldr	r0, [r7, #40]
 889 00a4 FFF7FEFF 		bl	sal_closesocket
 890 00a8 04E0     		b	.L63
 891              	.L62:
 305:C:/Users/dtjld/workspace/AIoT/src/LiteOS_Lab/iot_link/network/mqtt/paho_mqtt/port\paho_mqtt_port.c ****     }
 306:C:/Users/dtjld/workspace/AIoT/src/LiteOS_Lab/iot_link/network/mqtt/paho_mqtt/port\paho_mqtt_port.c ****     else
 307:C:/Users/dtjld/workspace/AIoT/src/LiteOS_Lab/iot_link/network/mqtt/paho_mqtt/port\paho_mqtt_port.c ****     {
 308:C:/Users/dtjld/workspace/AIoT/src/LiteOS_Lab/iot_link/network/mqtt/paho_mqtt/port\paho_mqtt_port.c ****         ret = 0;
 892              		.loc 2 308 0
 893 00aa 0023     		movs	r3, #0
 894 00ac FB62     		str	r3, [r7, #44]
 309:C:/Users/dtjld/workspace/AIoT/src/LiteOS_Lab/iot_link/network/mqtt/paho_mqtt/port\paho_mqtt_port.c ****         n->ctx = (void *)fd;
ARM GAS  C:\Users\dtjld\AppData\Local\Temp\ccZrCbvi.s 			page 26


 895              		.loc 2 309 0
 896 00ae BA6A     		ldr	r2, [r7, #40]
 897 00b0 FB68     		ldr	r3, [r7, #12]
 898 00b2 1A60     		str	r2, [r3]
 899              	.L63:
 310:C:/Users/dtjld/workspace/AIoT/src/LiteOS_Lab/iot_link/network/mqtt/paho_mqtt/port\paho_mqtt_port.c ****     }
 311:C:/Users/dtjld/workspace/AIoT/src/LiteOS_Lab/iot_link/network/mqtt/paho_mqtt/port\paho_mqtt_port.c **** 
 312:C:/Users/dtjld/workspace/AIoT/src/LiteOS_Lab/iot_link/network/mqtt/paho_mqtt/port\paho_mqtt_port.c ****     return ret;
 900              		.loc 2 312 0
 901 00b4 FB6A     		ldr	r3, [r7, #44]
 902              	.L64:
 313:C:/Users/dtjld/workspace/AIoT/src/LiteOS_Lab/iot_link/network/mqtt/paho_mqtt/port\paho_mqtt_port.c **** }
 903              		.loc 2 313 0 discriminator 1
 904 00b6 1846     		mov	r0, r3
 905 00b8 3037     		adds	r7, r7, #48
 906              	.LCFI44:
 907              		.cfi_def_cfa_offset 8
 908 00ba BD46     		mov	sp, r7
 909              	.LCFI45:
 910              		.cfi_def_cfa_register 13
 911              		@ sp needed
 912 00bc 80BD     		pop	{r7, pc}
 913              		.cfi_endproc
 914              	.LFE28:
 916              		.section	.text.__io_read,"ax",%progbits
 917              		.align	1
 918              		.syntax unified
 919              		.thumb
 920              		.thumb_func
 921              		.fpu fpv4-sp-d16
 923              	__io_read:
 924              	.LFB29:
 314:C:/Users/dtjld/workspace/AIoT/src/LiteOS_Lab/iot_link/network/mqtt/paho_mqtt/port\paho_mqtt_port.c **** 
 315:C:/Users/dtjld/workspace/AIoT/src/LiteOS_Lab/iot_link/network/mqtt/paho_mqtt/port\paho_mqtt_port.c **** static int __io_read(Network *n, unsigned char *buffer, int len, int timeout_ms)
 316:C:/Users/dtjld/workspace/AIoT/src/LiteOS_Lab/iot_link/network/mqtt/paho_mqtt/port\paho_mqtt_port.c **** {
 925              		.loc 2 316 0
 926              		.cfi_startproc
 927              		@ args = 0, pretend = 0, frame = 24
 928              		@ frame_needed = 1, uses_anonymous_args = 0
 929 0000 80B5     		push	{r7, lr}
 930              	.LCFI46:
 931              		.cfi_def_cfa_offset 8
 932              		.cfi_offset 7, -8
 933              		.cfi_offset 14, -4
 934 0002 86B0     		sub	sp, sp, #24
 935              	.LCFI47:
 936              		.cfi_def_cfa_offset 32
 937 0004 00AF     		add	r7, sp, #0
 938              	.LCFI48:
 939              		.cfi_def_cfa_register 7
 940 0006 F860     		str	r0, [r7, #12]
 941 0008 B960     		str	r1, [r7, #8]
 942 000a 7A60     		str	r2, [r7, #4]
 943 000c 3B60     		str	r3, [r7]
 317:C:/Users/dtjld/workspace/AIoT/src/LiteOS_Lab/iot_link/network/mqtt/paho_mqtt/port\paho_mqtt_port.c ****     int ret = -1;
 944              		.loc 2 317 0
 945 000e 4FF0FF33 		mov	r3, #-1
ARM GAS  C:\Users\dtjld\AppData\Local\Temp\ccZrCbvi.s 			page 27


 946 0012 7B61     		str	r3, [r7, #20]
 318:C:/Users/dtjld/workspace/AIoT/src/LiteOS_Lab/iot_link/network/mqtt/paho_mqtt/port\paho_mqtt_port.c **** 
 319:C:/Users/dtjld/workspace/AIoT/src/LiteOS_Lab/iot_link/network/mqtt/paho_mqtt/port\paho_mqtt_port.c ****     if((NULL == n) || (NULL == buffer ))
 947              		.loc 2 319 0
 948 0014 FB68     		ldr	r3, [r7, #12]
 949 0016 002B     		cmp	r3, #0
 950 0018 02D0     		beq	.L66
 951              		.loc 2 319 0 is_stmt 0 discriminator 1
 952 001a BB68     		ldr	r3, [r7, #8]
 953 001c 002B     		cmp	r3, #0
 954 001e 01D1     		bne	.L67
 955              	.L66:
 320:C:/Users/dtjld/workspace/AIoT/src/LiteOS_Lab/iot_link/network/mqtt/paho_mqtt/port\paho_mqtt_port.c ****     {
 321:C:/Users/dtjld/workspace/AIoT/src/LiteOS_Lab/iot_link/network/mqtt/paho_mqtt/port\paho_mqtt_port.c ****         return ret;
 956              		.loc 2 321 0 is_stmt 1
 957 0020 7B69     		ldr	r3, [r7, #20]
 958 0022 23E0     		b	.L68
 959              	.L67:
 322:C:/Users/dtjld/workspace/AIoT/src/LiteOS_Lab/iot_link/network/mqtt/paho_mqtt/port\paho_mqtt_port.c ****     }
 323:C:/Users/dtjld/workspace/AIoT/src/LiteOS_Lab/iot_link/network/mqtt/paho_mqtt/port\paho_mqtt_port.c **** 
 324:C:/Users/dtjld/workspace/AIoT/src/LiteOS_Lab/iot_link/network/mqtt/paho_mqtt/port\paho_mqtt_port.c ****     switch(n->arg.type)
 960              		.loc 2 324 0
 961 0024 FB68     		ldr	r3, [r7, #12]
 962 0026 1B79     		ldrb	r3, [r3, #4]	@ zero_extendqisi2
 963 0028 032B     		cmp	r3, #3
 964 002a 1DD8     		bhi	.L75
 965 002c 01A2     		adr	r2, .L71
 966 002e 52F823F0 		ldr	pc, [r2, r3, lsl #2]
 967 0032 00BF     		.p2align 2
 968              	.L71:
 969 0034 45000000 		.word	.L70+1
 970 0038 57000000 		.word	.L72+1
 971 003c 57000000 		.word	.L72+1
 972 0040 69000000 		.word	.L75+1
 973              		.p2align 1
 974              	.L70:
 325:C:/Users/dtjld/workspace/AIoT/src/LiteOS_Lab/iot_link/network/mqtt/paho_mqtt/port\paho_mqtt_port.c ****     {
 326:C:/Users/dtjld/workspace/AIoT/src/LiteOS_Lab/iot_link/network/mqtt/paho_mqtt/port\paho_mqtt_port.c ****         case en_mqtt_al_security_none :
 327:C:/Users/dtjld/workspace/AIoT/src/LiteOS_Lab/iot_link/network/mqtt/paho_mqtt/port\paho_mqtt_port.c ****             ret = __socket_read(n->ctx, buffer, len, timeout_ms);
 975              		.loc 2 327 0
 976 0044 FB68     		ldr	r3, [r7, #12]
 977 0046 1868     		ldr	r0, [r3]
 978 0048 3B68     		ldr	r3, [r7]
 979 004a 7A68     		ldr	r2, [r7, #4]
 980 004c B968     		ldr	r1, [r7, #8]
 981 004e FFF7FEFF 		bl	__socket_read
 982 0052 7861     		str	r0, [r7, #20]
 328:C:/Users/dtjld/workspace/AIoT/src/LiteOS_Lab/iot_link/network/mqtt/paho_mqtt/port\paho_mqtt_port.c ****             break;
 983              		.loc 2 328 0
 984 0054 09E0     		b	.L74
 985              	.L72:
 329:C:/Users/dtjld/workspace/AIoT/src/LiteOS_Lab/iot_link/network/mqtt/paho_mqtt/port\paho_mqtt_port.c **** #ifdef WITH_DTLS
 330:C:/Users/dtjld/workspace/AIoT/src/LiteOS_Lab/iot_link/network/mqtt/paho_mqtt/port\paho_mqtt_port.c ****         case en_mqtt_al_security_psk:
 331:C:/Users/dtjld/workspace/AIoT/src/LiteOS_Lab/iot_link/network/mqtt/paho_mqtt/port\paho_mqtt_port.c ****         case en_mqtt_al_security_cas:
 332:C:/Users/dtjld/workspace/AIoT/src/LiteOS_Lab/iot_link/network/mqtt/paho_mqtt/port\paho_mqtt_port.c ****             ret = __tls_read(n->ctx, buffer, len, timeout_ms);
 986              		.loc 2 332 0
 987 0056 FB68     		ldr	r3, [r7, #12]
ARM GAS  C:\Users\dtjld\AppData\Local\Temp\ccZrCbvi.s 			page 28


 988 0058 1868     		ldr	r0, [r3]
 989 005a 3B68     		ldr	r3, [r7]
 990 005c 7A68     		ldr	r2, [r7, #4]
 991 005e B968     		ldr	r1, [r7, #8]
 992 0060 FFF7FEFF 		bl	__tls_read
 993 0064 7861     		str	r0, [r7, #20]
 333:C:/Users/dtjld/workspace/AIoT/src/LiteOS_Lab/iot_link/network/mqtt/paho_mqtt/port\paho_mqtt_port.c ****             break;
 994              		.loc 2 333 0
 995 0066 00E0     		b	.L74
 996              	.L75:
 334:C:/Users/dtjld/workspace/AIoT/src/LiteOS_Lab/iot_link/network/mqtt/paho_mqtt/port\paho_mqtt_port.c ****         case en_mqtt_al_security_cacs:
 335:C:/Users/dtjld/workspace/AIoT/src/LiteOS_Lab/iot_link/network/mqtt/paho_mqtt/port\paho_mqtt_port.c ****             break;    // TODO -- NOT IMPLEMENT YET
 336:C:/Users/dtjld/workspace/AIoT/src/LiteOS_Lab/iot_link/network/mqtt/paho_mqtt/port\paho_mqtt_port.c **** #endif
 337:C:/Users/dtjld/workspace/AIoT/src/LiteOS_Lab/iot_link/network/mqtt/paho_mqtt/port\paho_mqtt_port.c ****         default :
 338:C:/Users/dtjld/workspace/AIoT/src/LiteOS_Lab/iot_link/network/mqtt/paho_mqtt/port\paho_mqtt_port.c ****             break;
 997              		.loc 2 338 0
 998 0068 00BF     		nop
 999              	.L74:
 339:C:/Users/dtjld/workspace/AIoT/src/LiteOS_Lab/iot_link/network/mqtt/paho_mqtt/port\paho_mqtt_port.c ****     }
 340:C:/Users/dtjld/workspace/AIoT/src/LiteOS_Lab/iot_link/network/mqtt/paho_mqtt/port\paho_mqtt_port.c ****     return ret;
 1000              		.loc 2 340 0
 1001 006a 7B69     		ldr	r3, [r7, #20]
 1002              	.L68:
 341:C:/Users/dtjld/workspace/AIoT/src/LiteOS_Lab/iot_link/network/mqtt/paho_mqtt/port\paho_mqtt_port.c **** }
 1003              		.loc 2 341 0
 1004 006c 1846     		mov	r0, r3
 1005 006e 1837     		adds	r7, r7, #24
 1006              	.LCFI49:
 1007              		.cfi_def_cfa_offset 8
 1008 0070 BD46     		mov	sp, r7
 1009              	.LCFI50:
 1010              		.cfi_def_cfa_register 13
 1011              		@ sp needed
 1012 0072 80BD     		pop	{r7, pc}
 1013              		.cfi_endproc
 1014              	.LFE29:
 1016              		.section	.text.__io_write,"ax",%progbits
 1017              		.align	1
 1018              		.syntax unified
 1019              		.thumb
 1020              		.thumb_func
 1021              		.fpu fpv4-sp-d16
 1023              	__io_write:
 1024              	.LFB30:
 342:C:/Users/dtjld/workspace/AIoT/src/LiteOS_Lab/iot_link/network/mqtt/paho_mqtt/port\paho_mqtt_port.c **** 
 343:C:/Users/dtjld/workspace/AIoT/src/LiteOS_Lab/iot_link/network/mqtt/paho_mqtt/port\paho_mqtt_port.c **** static int __io_write(Network *n, unsigned char *buffer, int len, int timeout_ms)
 344:C:/Users/dtjld/workspace/AIoT/src/LiteOS_Lab/iot_link/network/mqtt/paho_mqtt/port\paho_mqtt_port.c **** {
 1025              		.loc 2 344 0
 1026              		.cfi_startproc
 1027              		@ args = 0, pretend = 0, frame = 24
 1028              		@ frame_needed = 1, uses_anonymous_args = 0
 1029 0000 80B5     		push	{r7, lr}
 1030              	.LCFI51:
 1031              		.cfi_def_cfa_offset 8
 1032              		.cfi_offset 7, -8
 1033              		.cfi_offset 14, -4
 1034 0002 86B0     		sub	sp, sp, #24
ARM GAS  C:\Users\dtjld\AppData\Local\Temp\ccZrCbvi.s 			page 29


 1035              	.LCFI52:
 1036              		.cfi_def_cfa_offset 32
 1037 0004 00AF     		add	r7, sp, #0
 1038              	.LCFI53:
 1039              		.cfi_def_cfa_register 7
 1040 0006 F860     		str	r0, [r7, #12]
 1041 0008 B960     		str	r1, [r7, #8]
 1042 000a 7A60     		str	r2, [r7, #4]
 1043 000c 3B60     		str	r3, [r7]
 345:C:/Users/dtjld/workspace/AIoT/src/LiteOS_Lab/iot_link/network/mqtt/paho_mqtt/port\paho_mqtt_port.c ****     int ret = -1;
 1044              		.loc 2 345 0
 1045 000e 4FF0FF33 		mov	r3, #-1
 1046 0012 7B61     		str	r3, [r7, #20]
 346:C:/Users/dtjld/workspace/AIoT/src/LiteOS_Lab/iot_link/network/mqtt/paho_mqtt/port\paho_mqtt_port.c **** 
 347:C:/Users/dtjld/workspace/AIoT/src/LiteOS_Lab/iot_link/network/mqtt/paho_mqtt/port\paho_mqtt_port.c ****     if((NULL == n) || (NULL == buffer ))
 1047              		.loc 2 347 0
 1048 0014 FB68     		ldr	r3, [r7, #12]
 1049 0016 002B     		cmp	r3, #0
 1050 0018 02D0     		beq	.L77
 1051              		.loc 2 347 0 is_stmt 0 discriminator 1
 1052 001a BB68     		ldr	r3, [r7, #8]
 1053 001c 002B     		cmp	r3, #0
 1054 001e 02D1     		bne	.L78
 1055              	.L77:
 348:C:/Users/dtjld/workspace/AIoT/src/LiteOS_Lab/iot_link/network/mqtt/paho_mqtt/port\paho_mqtt_port.c ****     {
 349:C:/Users/dtjld/workspace/AIoT/src/LiteOS_Lab/iot_link/network/mqtt/paho_mqtt/port\paho_mqtt_port.c ****         return -1;
 1056              		.loc 2 349 0 is_stmt 1
 1057 0020 4FF0FF33 		mov	r3, #-1
 1058 0024 22E0     		b	.L79
 1059              	.L78:
 350:C:/Users/dtjld/workspace/AIoT/src/LiteOS_Lab/iot_link/network/mqtt/paho_mqtt/port\paho_mqtt_port.c ****     }
 351:C:/Users/dtjld/workspace/AIoT/src/LiteOS_Lab/iot_link/network/mqtt/paho_mqtt/port\paho_mqtt_port.c **** 
 352:C:/Users/dtjld/workspace/AIoT/src/LiteOS_Lab/iot_link/network/mqtt/paho_mqtt/port\paho_mqtt_port.c ****     switch(n->arg.type)
 1060              		.loc 2 352 0
 1061 0026 FB68     		ldr	r3, [r7, #12]
 1062 0028 1B79     		ldrb	r3, [r3, #4]	@ zero_extendqisi2
 1063 002a 032B     		cmp	r3, #3
 1064 002c 1CD8     		bhi	.L86
 1065 002e 01A2     		adr	r2, .L82
 1066 0030 52F823F0 		ldr	pc, [r2, r3, lsl #2]
 1067              		.p2align 2
 1068              	.L82:
 1069 0034 45000000 		.word	.L81+1
 1070 0038 57000000 		.word	.L83+1
 1071 003c 57000000 		.word	.L83+1
 1072 0040 69000000 		.word	.L86+1
 1073              		.p2align 1
 1074              	.L81:
 353:C:/Users/dtjld/workspace/AIoT/src/LiteOS_Lab/iot_link/network/mqtt/paho_mqtt/port\paho_mqtt_port.c ****     {
 354:C:/Users/dtjld/workspace/AIoT/src/LiteOS_Lab/iot_link/network/mqtt/paho_mqtt/port\paho_mqtt_port.c ****     case en_mqtt_al_security_none :
 355:C:/Users/dtjld/workspace/AIoT/src/LiteOS_Lab/iot_link/network/mqtt/paho_mqtt/port\paho_mqtt_port.c ****         ret = __socket_write(n->ctx, buffer, len, timeout_ms);
 1075              		.loc 2 355 0
 1076 0044 FB68     		ldr	r3, [r7, #12]
 1077 0046 1868     		ldr	r0, [r3]
 1078 0048 3B68     		ldr	r3, [r7]
 1079 004a 7A68     		ldr	r2, [r7, #4]
 1080 004c B968     		ldr	r1, [r7, #8]
ARM GAS  C:\Users\dtjld\AppData\Local\Temp\ccZrCbvi.s 			page 30


 1081 004e FFF7FEFF 		bl	__socket_write
 1082 0052 7861     		str	r0, [r7, #20]
 356:C:/Users/dtjld/workspace/AIoT/src/LiteOS_Lab/iot_link/network/mqtt/paho_mqtt/port\paho_mqtt_port.c ****         break;
 1083              		.loc 2 356 0
 1084 0054 09E0     		b	.L85
 1085              	.L83:
 357:C:/Users/dtjld/workspace/AIoT/src/LiteOS_Lab/iot_link/network/mqtt/paho_mqtt/port\paho_mqtt_port.c **** #ifdef WITH_DTLS
 358:C:/Users/dtjld/workspace/AIoT/src/LiteOS_Lab/iot_link/network/mqtt/paho_mqtt/port\paho_mqtt_port.c ****     case en_mqtt_al_security_psk:
 359:C:/Users/dtjld/workspace/AIoT/src/LiteOS_Lab/iot_link/network/mqtt/paho_mqtt/port\paho_mqtt_port.c ****     case en_mqtt_al_security_cas:
 360:C:/Users/dtjld/workspace/AIoT/src/LiteOS_Lab/iot_link/network/mqtt/paho_mqtt/port\paho_mqtt_port.c ****         ret = __tls_write(n->ctx, buffer, len,timeout_ms);
 1086              		.loc 2 360 0
 1087 0056 FB68     		ldr	r3, [r7, #12]
 1088 0058 1868     		ldr	r0, [r3]
 1089 005a 3B68     		ldr	r3, [r7]
 1090 005c 7A68     		ldr	r2, [r7, #4]
 1091 005e B968     		ldr	r1, [r7, #8]
 1092 0060 FFF7FEFF 		bl	__tls_write
 1093 0064 7861     		str	r0, [r7, #20]
 361:C:/Users/dtjld/workspace/AIoT/src/LiteOS_Lab/iot_link/network/mqtt/paho_mqtt/port\paho_mqtt_port.c ****         break;
 1094              		.loc 2 361 0
 1095 0066 00E0     		b	.L85
 1096              	.L86:
 362:C:/Users/dtjld/workspace/AIoT/src/LiteOS_Lab/iot_link/network/mqtt/paho_mqtt/port\paho_mqtt_port.c ****     case en_mqtt_al_security_cacs:
 363:C:/Users/dtjld/workspace/AIoT/src/LiteOS_Lab/iot_link/network/mqtt/paho_mqtt/port\paho_mqtt_port.c ****         break;    // TODO -- NOT IMPLEMENT YET
 364:C:/Users/dtjld/workspace/AIoT/src/LiteOS_Lab/iot_link/network/mqtt/paho_mqtt/port\paho_mqtt_port.c **** #endif
 365:C:/Users/dtjld/workspace/AIoT/src/LiteOS_Lab/iot_link/network/mqtt/paho_mqtt/port\paho_mqtt_port.c ****     default :
 366:C:/Users/dtjld/workspace/AIoT/src/LiteOS_Lab/iot_link/network/mqtt/paho_mqtt/port\paho_mqtt_port.c ****         break;
 1097              		.loc 2 366 0
 1098 0068 00BF     		nop
 1099              	.L85:
 367:C:/Users/dtjld/workspace/AIoT/src/LiteOS_Lab/iot_link/network/mqtt/paho_mqtt/port\paho_mqtt_port.c ****     }
 368:C:/Users/dtjld/workspace/AIoT/src/LiteOS_Lab/iot_link/network/mqtt/paho_mqtt/port\paho_mqtt_port.c **** 
 369:C:/Users/dtjld/workspace/AIoT/src/LiteOS_Lab/iot_link/network/mqtt/paho_mqtt/port\paho_mqtt_port.c ****     return ret;
 1100              		.loc 2 369 0
 1101 006a 7B69     		ldr	r3, [r7, #20]
 1102              	.L79:
 370:C:/Users/dtjld/workspace/AIoT/src/LiteOS_Lab/iot_link/network/mqtt/paho_mqtt/port\paho_mqtt_port.c **** }
 1103              		.loc 2 370 0
 1104 006c 1846     		mov	r0, r3
 1105 006e 1837     		adds	r7, r7, #24
 1106              	.LCFI54:
 1107              		.cfi_def_cfa_offset 8
 1108 0070 BD46     		mov	sp, r7
 1109              	.LCFI55:
 1110              		.cfi_def_cfa_register 13
 1111              		@ sp needed
 1112 0072 80BD     		pop	{r7, pc}
 1113              		.cfi_endproc
 1114              	.LFE30:
 1116              		.section	.text.__io_connect,"ax",%progbits
 1117              		.align	1
 1118              		.syntax unified
 1119              		.thumb
 1120              		.thumb_func
 1121              		.fpu fpv4-sp-d16
 1123              	__io_connect:
 1124              	.LFB31:
ARM GAS  C:\Users\dtjld\AppData\Local\Temp\ccZrCbvi.s 			page 31


 371:C:/Users/dtjld/workspace/AIoT/src/LiteOS_Lab/iot_link/network/mqtt/paho_mqtt/port\paho_mqtt_port.c **** 
 372:C:/Users/dtjld/workspace/AIoT/src/LiteOS_Lab/iot_link/network/mqtt/paho_mqtt/port\paho_mqtt_port.c **** static int __io_connect(Network *n, char *addr, int port)
 373:C:/Users/dtjld/workspace/AIoT/src/LiteOS_Lab/iot_link/network/mqtt/paho_mqtt/port\paho_mqtt_port.c **** {
 1125              		.loc 2 373 0
 1126              		.cfi_startproc
 1127              		@ args = 0, pretend = 0, frame = 24
 1128              		@ frame_needed = 1, uses_anonymous_args = 0
 1129 0000 80B5     		push	{r7, lr}
 1130              	.LCFI56:
 1131              		.cfi_def_cfa_offset 8
 1132              		.cfi_offset 7, -8
 1133              		.cfi_offset 14, -4
 1134 0002 86B0     		sub	sp, sp, #24
 1135              	.LCFI57:
 1136              		.cfi_def_cfa_offset 32
 1137 0004 00AF     		add	r7, sp, #0
 1138              	.LCFI58:
 1139              		.cfi_def_cfa_register 7
 1140 0006 F860     		str	r0, [r7, #12]
 1141 0008 B960     		str	r1, [r7, #8]
 1142 000a 7A60     		str	r2, [r7, #4]
 374:C:/Users/dtjld/workspace/AIoT/src/LiteOS_Lab/iot_link/network/mqtt/paho_mqtt/port\paho_mqtt_port.c ****     int ret = -1;
 1143              		.loc 2 374 0
 1144 000c 4FF0FF33 		mov	r3, #-1
 1145 0010 7B61     		str	r3, [r7, #20]
 375:C:/Users/dtjld/workspace/AIoT/src/LiteOS_Lab/iot_link/network/mqtt/paho_mqtt/port\paho_mqtt_port.c **** 
 376:C:/Users/dtjld/workspace/AIoT/src/LiteOS_Lab/iot_link/network/mqtt/paho_mqtt/port\paho_mqtt_port.c ****     if((NULL == n) || (NULL == addr ))
 1146              		.loc 2 376 0
 1147 0012 FB68     		ldr	r3, [r7, #12]
 1148 0014 002B     		cmp	r3, #0
 1149 0016 02D0     		beq	.L88
 1150              		.loc 2 376 0 is_stmt 0 discriminator 1
 1151 0018 BB68     		ldr	r3, [r7, #8]
 1152 001a 002B     		cmp	r3, #0
 1153 001c 02D1     		bne	.L89
 1154              	.L88:
 377:C:/Users/dtjld/workspace/AIoT/src/LiteOS_Lab/iot_link/network/mqtt/paho_mqtt/port\paho_mqtt_port.c ****     {
 378:C:/Users/dtjld/workspace/AIoT/src/LiteOS_Lab/iot_link/network/mqtt/paho_mqtt/port\paho_mqtt_port.c ****         return -1;
 1155              		.loc 2 378 0 is_stmt 1
 1156 001e 4FF0FF33 		mov	r3, #-1
 1157 0022 1FE0     		b	.L90
 1158              	.L89:
 379:C:/Users/dtjld/workspace/AIoT/src/LiteOS_Lab/iot_link/network/mqtt/paho_mqtt/port\paho_mqtt_port.c ****     }
 380:C:/Users/dtjld/workspace/AIoT/src/LiteOS_Lab/iot_link/network/mqtt/paho_mqtt/port\paho_mqtt_port.c **** 
 381:C:/Users/dtjld/workspace/AIoT/src/LiteOS_Lab/iot_link/network/mqtt/paho_mqtt/port\paho_mqtt_port.c ****     switch(n->arg.type)
 1159              		.loc 2 381 0
 1160 0024 FB68     		ldr	r3, [r7, #12]
 1161 0026 1B79     		ldrb	r3, [r3, #4]	@ zero_extendqisi2
 1162 0028 032B     		cmp	r3, #3
 1163 002a 19D8     		bhi	.L97
 1164 002c 01A2     		adr	r2, .L93
 1165 002e 52F823F0 		ldr	pc, [r2, r3, lsl #2]
 1166 0032 00BF     		.p2align 2
 1167              	.L93:
 1168 0034 45000000 		.word	.L92+1
 1169 0038 53000000 		.word	.L94+1
 1170 003c 53000000 		.word	.L94+1
ARM GAS  C:\Users\dtjld\AppData\Local\Temp\ccZrCbvi.s 			page 32


 1171 0040 61000000 		.word	.L97+1
 1172              		.p2align 1
 1173              	.L92:
 382:C:/Users/dtjld/workspace/AIoT/src/LiteOS_Lab/iot_link/network/mqtt/paho_mqtt/port\paho_mqtt_port.c ****     {
 383:C:/Users/dtjld/workspace/AIoT/src/LiteOS_Lab/iot_link/network/mqtt/paho_mqtt/port\paho_mqtt_port.c ****     case en_mqtt_al_security_none :
 384:C:/Users/dtjld/workspace/AIoT/src/LiteOS_Lab/iot_link/network/mqtt/paho_mqtt/port\paho_mqtt_port.c ****         ret = __socket_connect(n, addr, port);
 1174              		.loc 2 384 0
 1175 0044 7A68     		ldr	r2, [r7, #4]
 1176 0046 B968     		ldr	r1, [r7, #8]
 1177 0048 F868     		ldr	r0, [r7, #12]
 1178 004a FFF7FEFF 		bl	__socket_connect
 1179 004e 7861     		str	r0, [r7, #20]
 385:C:/Users/dtjld/workspace/AIoT/src/LiteOS_Lab/iot_link/network/mqtt/paho_mqtt/port\paho_mqtt_port.c ****         break;
 1180              		.loc 2 385 0
 1181 0050 07E0     		b	.L96
 1182              	.L94:
 386:C:/Users/dtjld/workspace/AIoT/src/LiteOS_Lab/iot_link/network/mqtt/paho_mqtt/port\paho_mqtt_port.c **** #ifdef WITH_DTLS
 387:C:/Users/dtjld/workspace/AIoT/src/LiteOS_Lab/iot_link/network/mqtt/paho_mqtt/port\paho_mqtt_port.c ****     case en_mqtt_al_security_psk:
 388:C:/Users/dtjld/workspace/AIoT/src/LiteOS_Lab/iot_link/network/mqtt/paho_mqtt/port\paho_mqtt_port.c ****     case en_mqtt_al_security_cas:
 389:C:/Users/dtjld/workspace/AIoT/src/LiteOS_Lab/iot_link/network/mqtt/paho_mqtt/port\paho_mqtt_port.c ****         ret = __tls_connect(n, addr, port);
 1183              		.loc 2 389 0
 1184 0052 7A68     		ldr	r2, [r7, #4]
 1185 0054 B968     		ldr	r1, [r7, #8]
 1186 0056 F868     		ldr	r0, [r7, #12]
 1187 0058 FFF7FEFF 		bl	__tls_connect
 1188 005c 7861     		str	r0, [r7, #20]
 390:C:/Users/dtjld/workspace/AIoT/src/LiteOS_Lab/iot_link/network/mqtt/paho_mqtt/port\paho_mqtt_port.c ****         break;
 1189              		.loc 2 390 0
 1190 005e 00E0     		b	.L96
 1191              	.L97:
 391:C:/Users/dtjld/workspace/AIoT/src/LiteOS_Lab/iot_link/network/mqtt/paho_mqtt/port\paho_mqtt_port.c ****     case en_mqtt_al_security_cacs:
 392:C:/Users/dtjld/workspace/AIoT/src/LiteOS_Lab/iot_link/network/mqtt/paho_mqtt/port\paho_mqtt_port.c ****         break ;   //not implement yet
 393:C:/Users/dtjld/workspace/AIoT/src/LiteOS_Lab/iot_link/network/mqtt/paho_mqtt/port\paho_mqtt_port.c **** #endif
 394:C:/Users/dtjld/workspace/AIoT/src/LiteOS_Lab/iot_link/network/mqtt/paho_mqtt/port\paho_mqtt_port.c ****     default :
 395:C:/Users/dtjld/workspace/AIoT/src/LiteOS_Lab/iot_link/network/mqtt/paho_mqtt/port\paho_mqtt_port.c ****         break;
 1192              		.loc 2 395 0
 1193 0060 00BF     		nop
 1194              	.L96:
 396:C:/Users/dtjld/workspace/AIoT/src/LiteOS_Lab/iot_link/network/mqtt/paho_mqtt/port\paho_mqtt_port.c ****     }
 397:C:/Users/dtjld/workspace/AIoT/src/LiteOS_Lab/iot_link/network/mqtt/paho_mqtt/port\paho_mqtt_port.c **** 
 398:C:/Users/dtjld/workspace/AIoT/src/LiteOS_Lab/iot_link/network/mqtt/paho_mqtt/port\paho_mqtt_port.c ****     return ret;
 1195              		.loc 2 398 0
 1196 0062 7B69     		ldr	r3, [r7, #20]
 1197              	.L90:
 399:C:/Users/dtjld/workspace/AIoT/src/LiteOS_Lab/iot_link/network/mqtt/paho_mqtt/port\paho_mqtt_port.c **** }
 1198              		.loc 2 399 0
 1199 0064 1846     		mov	r0, r3
 1200 0066 1837     		adds	r7, r7, #24
 1201              	.LCFI59:
 1202              		.cfi_def_cfa_offset 8
 1203 0068 BD46     		mov	sp, r7
 1204              	.LCFI60:
 1205              		.cfi_def_cfa_register 13
 1206              		@ sp needed
 1207 006a 80BD     		pop	{r7, pc}
 1208              		.cfi_endproc
 1209              	.LFE31:
ARM GAS  C:\Users\dtjld\AppData\Local\Temp\ccZrCbvi.s 			page 33


 1211              		.section	.text.__io_disconnect,"ax",%progbits
 1212              		.align	1
 1213              		.syntax unified
 1214              		.thumb
 1215              		.thumb_func
 1216              		.fpu fpv4-sp-d16
 1218              	__io_disconnect:
 1219              	.LFB32:
 400:C:/Users/dtjld/workspace/AIoT/src/LiteOS_Lab/iot_link/network/mqtt/paho_mqtt/port\paho_mqtt_port.c **** 
 401:C:/Users/dtjld/workspace/AIoT/src/LiteOS_Lab/iot_link/network/mqtt/paho_mqtt/port\paho_mqtt_port.c **** 
 402:C:/Users/dtjld/workspace/AIoT/src/LiteOS_Lab/iot_link/network/mqtt/paho_mqtt/port\paho_mqtt_port.c **** 
 403:C:/Users/dtjld/workspace/AIoT/src/LiteOS_Lab/iot_link/network/mqtt/paho_mqtt/port\paho_mqtt_port.c **** static void __io_disconnect(Network *n)
 404:C:/Users/dtjld/workspace/AIoT/src/LiteOS_Lab/iot_link/network/mqtt/paho_mqtt/port\paho_mqtt_port.c **** {
 1220              		.loc 2 404 0
 1221              		.cfi_startproc
 1222              		@ args = 0, pretend = 0, frame = 8
 1223              		@ frame_needed = 1, uses_anonymous_args = 0
 1224 0000 80B5     		push	{r7, lr}
 1225              	.LCFI61:
 1226              		.cfi_def_cfa_offset 8
 1227              		.cfi_offset 7, -8
 1228              		.cfi_offset 14, -4
 1229 0002 82B0     		sub	sp, sp, #8
 1230              	.LCFI62:
 1231              		.cfi_def_cfa_offset 16
 1232 0004 00AF     		add	r7, sp, #0
 1233              	.LCFI63:
 1234              		.cfi_def_cfa_register 7
 1235 0006 7860     		str	r0, [r7, #4]
 405:C:/Users/dtjld/workspace/AIoT/src/LiteOS_Lab/iot_link/network/mqtt/paho_mqtt/port\paho_mqtt_port.c ****     switch(n->arg.type)
 1236              		.loc 2 405 0
 1237 0008 7B68     		ldr	r3, [r7, #4]
 1238 000a 1B79     		ldrb	r3, [r3, #4]	@ zero_extendqisi2
 1239 000c 002B     		cmp	r3, #0
 1240 000e 04D0     		beq	.L100
 1241 0010 002B     		cmp	r3, #0
 1242 0012 0EDB     		blt	.L105
 1243 0014 022B     		cmp	r3, #2
 1244 0016 0CDC     		bgt	.L105
 1245 0018 05E0     		b	.L104
 1246              	.L100:
 406:C:/Users/dtjld/workspace/AIoT/src/LiteOS_Lab/iot_link/network/mqtt/paho_mqtt/port\paho_mqtt_port.c ****     {
 407:C:/Users/dtjld/workspace/AIoT/src/LiteOS_Lab/iot_link/network/mqtt/paho_mqtt/port\paho_mqtt_port.c ****         case en_mqtt_al_security_none :
 408:C:/Users/dtjld/workspace/AIoT/src/LiteOS_Lab/iot_link/network/mqtt/paho_mqtt/port\paho_mqtt_port.c ****             __socket_disconnect(n->ctx);
 1247              		.loc 2 408 0
 1248 001a 7B68     		ldr	r3, [r7, #4]
 1249 001c 1B68     		ldr	r3, [r3]
 1250 001e 1846     		mov	r0, r3
 1251 0020 FFF7FEFF 		bl	__socket_disconnect
 409:C:/Users/dtjld/workspace/AIoT/src/LiteOS_Lab/iot_link/network/mqtt/paho_mqtt/port\paho_mqtt_port.c ****             break;
 1252              		.loc 2 409 0
 1253 0024 06E0     		b	.L102
 1254              	.L104:
 410:C:/Users/dtjld/workspace/AIoT/src/LiteOS_Lab/iot_link/network/mqtt/paho_mqtt/port\paho_mqtt_port.c ****     #ifdef WITH_DTLS
 411:C:/Users/dtjld/workspace/AIoT/src/LiteOS_Lab/iot_link/network/mqtt/paho_mqtt/port\paho_mqtt_port.c ****         case en_mqtt_al_security_psk:
 412:C:/Users/dtjld/workspace/AIoT/src/LiteOS_Lab/iot_link/network/mqtt/paho_mqtt/port\paho_mqtt_port.c ****         case en_mqtt_al_security_cas:
 413:C:/Users/dtjld/workspace/AIoT/src/LiteOS_Lab/iot_link/network/mqtt/paho_mqtt/port\paho_mqtt_port.c ****             __tls_disconnect(n->ctx);
ARM GAS  C:\Users\dtjld\AppData\Local\Temp\ccZrCbvi.s 			page 34


 1255              		.loc 2 413 0
 1256 0026 7B68     		ldr	r3, [r7, #4]
 1257 0028 1B68     		ldr	r3, [r3]
 1258 002a 1846     		mov	r0, r3
 1259 002c FFF7FEFF 		bl	__tls_disconnect
 414:C:/Users/dtjld/workspace/AIoT/src/LiteOS_Lab/iot_link/network/mqtt/paho_mqtt/port\paho_mqtt_port.c ****             break;
 1260              		.loc 2 414 0
 1261 0030 00E0     		b	.L102
 1262              	.L105:
 415:C:/Users/dtjld/workspace/AIoT/src/LiteOS_Lab/iot_link/network/mqtt/paho_mqtt/port\paho_mqtt_port.c ****     #endif
 416:C:/Users/dtjld/workspace/AIoT/src/LiteOS_Lab/iot_link/network/mqtt/paho_mqtt/port\paho_mqtt_port.c ****         default :
 417:C:/Users/dtjld/workspace/AIoT/src/LiteOS_Lab/iot_link/network/mqtt/paho_mqtt/port\paho_mqtt_port.c ****             break;
 1263              		.loc 2 417 0
 1264 0032 00BF     		nop
 1265              	.L102:
 418:C:/Users/dtjld/workspace/AIoT/src/LiteOS_Lab/iot_link/network/mqtt/paho_mqtt/port\paho_mqtt_port.c ****     }
 419:C:/Users/dtjld/workspace/AIoT/src/LiteOS_Lab/iot_link/network/mqtt/paho_mqtt/port\paho_mqtt_port.c **** 
 420:C:/Users/dtjld/workspace/AIoT/src/LiteOS_Lab/iot_link/network/mqtt/paho_mqtt/port\paho_mqtt_port.c ****     n->ctx = NULL;
 1266              		.loc 2 420 0
 1267 0034 7B68     		ldr	r3, [r7, #4]
 1268 0036 0022     		movs	r2, #0
 1269 0038 1A60     		str	r2, [r3]
 421:C:/Users/dtjld/workspace/AIoT/src/LiteOS_Lab/iot_link/network/mqtt/paho_mqtt/port\paho_mqtt_port.c **** 
 422:C:/Users/dtjld/workspace/AIoT/src/LiteOS_Lab/iot_link/network/mqtt/paho_mqtt/port\paho_mqtt_port.c ****     return;
 1270              		.loc 2 422 0
 1271 003a 00BF     		nop
 423:C:/Users/dtjld/workspace/AIoT/src/LiteOS_Lab/iot_link/network/mqtt/paho_mqtt/port\paho_mqtt_port.c **** }
 1272              		.loc 2 423 0
 1273 003c 0837     		adds	r7, r7, #8
 1274              	.LCFI64:
 1275              		.cfi_def_cfa_offset 8
 1276 003e BD46     		mov	sp, r7
 1277              	.LCFI65:
 1278              		.cfi_def_cfa_register 13
 1279              		@ sp needed
 1280 0040 80BD     		pop	{r7, pc}
 1281              		.cfi_endproc
 1282              	.LFE32:
 1284              		.section	.text.__loop_entry,"ax",%progbits
 1285              		.align	1
 1286              		.syntax unified
 1287              		.thumb
 1288              		.thumb_func
 1289              		.fpu fpv4-sp-d16
 1291              	__loop_entry:
 1292              	.LFB33:
 424:C:/Users/dtjld/workspace/AIoT/src/LiteOS_Lab/iot_link/network/mqtt/paho_mqtt/port\paho_mqtt_port.c **** 
 425:C:/Users/dtjld/workspace/AIoT/src/LiteOS_Lab/iot_link/network/mqtt/paho_mqtt/port\paho_mqtt_port.c **** ///////////////////////CREATE THE API FOR THE MQTT_AL///////////////////////////
 426:C:/Users/dtjld/workspace/AIoT/src/LiteOS_Lab/iot_link/network/mqtt/paho_mqtt/port\paho_mqtt_port.c **** static  int __loop_entry(void *arg)
 427:C:/Users/dtjld/workspace/AIoT/src/LiteOS_Lab/iot_link/network/mqtt/paho_mqtt/port\paho_mqtt_port.c **** {
 1293              		.loc 2 427 0
 1294              		.cfi_startproc
 1295              		@ args = 0, pretend = 0, frame = 16
 1296              		@ frame_needed = 1, uses_anonymous_args = 0
 1297 0000 80B5     		push	{r7, lr}
 1298              	.LCFI66:
 1299              		.cfi_def_cfa_offset 8
ARM GAS  C:\Users\dtjld\AppData\Local\Temp\ccZrCbvi.s 			page 35


 1300              		.cfi_offset 7, -8
 1301              		.cfi_offset 14, -4
 1302 0002 84B0     		sub	sp, sp, #16
 1303              	.LCFI67:
 1304              		.cfi_def_cfa_offset 24
 1305 0004 00AF     		add	r7, sp, #0
 1306              	.LCFI68:
 1307              		.cfi_def_cfa_register 7
 1308 0006 7860     		str	r0, [r7, #4]
 428:C:/Users/dtjld/workspace/AIoT/src/LiteOS_Lab/iot_link/network/mqtt/paho_mqtt/port\paho_mqtt_port.c ****     paho_mqtt_cb_t *cb;
 429:C:/Users/dtjld/workspace/AIoT/src/LiteOS_Lab/iot_link/network/mqtt/paho_mqtt/port\paho_mqtt_port.c ****     cb = arg;
 1309              		.loc 2 429 0
 1310 0008 7B68     		ldr	r3, [r7, #4]
 1311 000a FB60     		str	r3, [r7, #12]
 1312              	.L109:
 430:C:/Users/dtjld/workspace/AIoT/src/LiteOS_Lab/iot_link/network/mqtt/paho_mqtt/port\paho_mqtt_port.c ****     while(1)
 431:C:/Users/dtjld/workspace/AIoT/src/LiteOS_Lab/iot_link/network/mqtt/paho_mqtt/port\paho_mqtt_port.c ****     {
 432:C:/Users/dtjld/workspace/AIoT/src/LiteOS_Lab/iot_link/network/mqtt/paho_mqtt/port\paho_mqtt_port.c ****         if((NULL != cb) && MQTTIsConnected(&cb->client))
 1313              		.loc 2 432 0
 1314 000c FB68     		ldr	r3, [r7, #12]
 1315 000e 002B     		cmp	r3, #0
 1316 0010 0FD0     		beq	.L107
 1317              		.loc 2 432 0 is_stmt 0 discriminator 1
 1318 0012 FB68     		ldr	r3, [r7, #12]
 1319 0014 3033     		adds	r3, r3, #48
 1320 0016 1846     		mov	r0, r3
 1321 0018 FFF7FEFF 		bl	MQTTIsConnected
 1322 001c 0346     		mov	r3, r0
 1323 001e 002B     		cmp	r3, #0
 1324 0020 07D0     		beq	.L107
 433:C:/Users/dtjld/workspace/AIoT/src/LiteOS_Lab/iot_link/network/mqtt/paho_mqtt/port\paho_mqtt_port.c ****         {
 434:C:/Users/dtjld/workspace/AIoT/src/LiteOS_Lab/iot_link/network/mqtt/paho_mqtt/port\paho_mqtt_port.c ****             MQTTYield(&cb->client,1000);
 1325              		.loc 2 434 0 is_stmt 1
 1326 0022 FB68     		ldr	r3, [r7, #12]
 1327 0024 3033     		adds	r3, r3, #48
 1328 0026 4FF47A71 		mov	r1, #1000
 1329 002a 1846     		mov	r0, r3
 1330 002c FFF7FEFF 		bl	MQTTYield
 1331 0030 02E0     		b	.L108
 1332              	.L107:
 435:C:/Users/dtjld/workspace/AIoT/src/LiteOS_Lab/iot_link/network/mqtt/paho_mqtt/port\paho_mqtt_port.c ****         }
 436:C:/Users/dtjld/workspace/AIoT/src/LiteOS_Lab/iot_link/network/mqtt/paho_mqtt/port\paho_mqtt_port.c ****         else
 437:C:/Users/dtjld/workspace/AIoT/src/LiteOS_Lab/iot_link/network/mqtt/paho_mqtt/port\paho_mqtt_port.c ****         {
 438:C:/Users/dtjld/workspace/AIoT/src/LiteOS_Lab/iot_link/network/mqtt/paho_mqtt/port\paho_mqtt_port.c ****             osal_task_sleep(1);///< when disconnect, this has been killed
 1333              		.loc 2 438 0
 1334 0032 0120     		movs	r0, #1
 1335 0034 FFF7FEFF 		bl	osal_task_sleep
 1336              	.L108:
 432:C:/Users/dtjld/workspace/AIoT/src/LiteOS_Lab/iot_link/network/mqtt/paho_mqtt/port\paho_mqtt_port.c ****         {
 1337              		.loc 2 432 0
 1338 0038 E8E7     		b	.L109
 1339              		.cfi_endproc
 1340              	.LFE33:
 1342              		.section	.bss.s_static_client_debug,"aw",%nobits
 1343              		.align	2
 1346              	s_static_client_debug:
 1347 0000 00000000 		.space	4
ARM GAS  C:\Users\dtjld\AppData\Local\Temp\ccZrCbvi.s 			page 36


 1348              		.section	.rodata
 1349 0003 00       		.align	2
 1350              	.LC3:
 1351 0004 7061686F 		.ascii	"paho\000"
 1351      00
 1352 0009 000000   		.align	2
 1353              	.LC0:
 1354 000c 4D       		.byte	77
 1355 000d 51       		.byte	81
 1356 000e 54       		.byte	84
 1357 000f 43       		.byte	67
 1358 0010 00000000 		.word	0
 1359 0014 04       		.byte	4
 1360 0015 000000   		.space	3
 1361 0018 00000000 		.word	0
 1362 001c 00000000 		.word	0
 1363 0020 00000000 		.word	0
 1364 0024 3C00     		.short	60
 1365 0026 01       		.byte	1
 1366 0027 00       		.byte	0
 1367 0028 4D       		.byte	77
 1368 0029 51       		.byte	81
 1369 002a 54       		.byte	84
 1370 002b 57       		.byte	87
 1371 002c 00000000 		.word	0
 1372 0030 00000000 		.word	0
 1373 0034 00000000 		.word	0
 1374 0038 00000000 		.word	0
 1375 003c 00000000 		.word	0
 1376 0040 00000000 		.word	0
 1377 0044 00000000 		.word	0
 1378 0048 00       		.byte	0
 1379 0049 00       		.byte	0
 1380 004a 0000     		.space	2
 1381 004c 00000000 		.word	0
 1382 0050 00000000 		.word	0
 1383 0054 00000000 		.word	0
 1384 0058 00000000 		.word	0
 1385 005c 00000000 		.word	0
 1386 0060 00000000 		.word	0
 1387              		.section	.text.__connect,"ax",%progbits
 1388              		.align	1
 1389              		.syntax unified
 1390              		.thumb
 1391              		.thumb_func
 1392              		.fpu fpv4-sp-d16
 1394              	__connect:
 1395              	.LFB34:
 439:C:/Users/dtjld/workspace/AIoT/src/LiteOS_Lab/iot_link/network/mqtt/paho_mqtt/port\paho_mqtt_port.c ****         }
 440:C:/Users/dtjld/workspace/AIoT/src/LiteOS_Lab/iot_link/network/mqtt/paho_mqtt/port\paho_mqtt_port.c ****     }
 441:C:/Users/dtjld/workspace/AIoT/src/LiteOS_Lab/iot_link/network/mqtt/paho_mqtt/port\paho_mqtt_port.c ****     return 0;
 442:C:/Users/dtjld/workspace/AIoT/src/LiteOS_Lab/iot_link/network/mqtt/paho_mqtt/port\paho_mqtt_port.c **** }
 443:C:/Users/dtjld/workspace/AIoT/src/LiteOS_Lab/iot_link/network/mqtt/paho_mqtt/port\paho_mqtt_port.c **** 
 444:C:/Users/dtjld/workspace/AIoT/src/LiteOS_Lab/iot_link/network/mqtt/paho_mqtt/port\paho_mqtt_port.c **** 
 445:C:/Users/dtjld/workspace/AIoT/src/LiteOS_Lab/iot_link/network/mqtt/paho_mqtt/port\paho_mqtt_port.c **** static     MQTTClient       *s_static_client_debug = NULL;
 446:C:/Users/dtjld/workspace/AIoT/src/LiteOS_Lab/iot_link/network/mqtt/paho_mqtt/port\paho_mqtt_port.c **** static void * __connect(mqtt_al_conpara_t *conparam)
 447:C:/Users/dtjld/workspace/AIoT/src/LiteOS_Lab/iot_link/network/mqtt/paho_mqtt/port\paho_mqtt_port.c **** {
ARM GAS  C:\Users\dtjld\AppData\Local\Temp\ccZrCbvi.s 			page 37


 1396              		.loc 2 447 0
 1397              		.cfi_startproc
 1398              		@ args = 0, pretend = 0, frame = 120
 1399              		@ frame_needed = 1, uses_anonymous_args = 0
 1400 0000 B0B5     		push	{r4, r5, r7, lr}
 1401              	.LCFI69:
 1402              		.cfi_def_cfa_offset 16
 1403              		.cfi_offset 4, -16
 1404              		.cfi_offset 5, -12
 1405              		.cfi_offset 7, -8
 1406              		.cfi_offset 14, -4
 1407 0002 A2B0     		sub	sp, sp, #136
 1408              	.LCFI70:
 1409              		.cfi_def_cfa_offset 152
 1410 0004 04AF     		add	r7, sp, #16
 1411              	.LCFI71:
 1412              		.cfi_def_cfa 7, 136
 1413 0006 7860     		str	r0, [r7, #4]
 448:C:/Users/dtjld/workspace/AIoT/src/LiteOS_Lab/iot_link/network/mqtt/paho_mqtt/port\paho_mqtt_port.c **** 
 449:C:/Users/dtjld/workspace/AIoT/src/LiteOS_Lab/iot_link/network/mqtt/paho_mqtt/port\paho_mqtt_port.c ****     void             *ret  = NULL;
 1414              		.loc 2 449 0
 1415 0008 0023     		movs	r3, #0
 1416 000a 7B67     		str	r3, [r7, #116]
 450:C:/Users/dtjld/workspace/AIoT/src/LiteOS_Lab/iot_link/network/mqtt/paho_mqtt/port\paho_mqtt_port.c ****     Network          *n = NULL;
 1417              		.loc 2 450 0
 1418 000c 0023     		movs	r3, #0
 1419 000e 3B67     		str	r3, [r7, #112]
 451:C:/Users/dtjld/workspace/AIoT/src/LiteOS_Lab/iot_link/network/mqtt/paho_mqtt/port\paho_mqtt_port.c ****     MQTTClient       *c = NULL;
 1420              		.loc 2 451 0
 1421 0010 0023     		movs	r3, #0
 1422 0012 FB66     		str	r3, [r7, #108]
 452:C:/Users/dtjld/workspace/AIoT/src/LiteOS_Lab/iot_link/network/mqtt/paho_mqtt/port\paho_mqtt_port.c ****     paho_mqtt_cb_t   *cb = NULL;
 1423              		.loc 2 452 0
 1424 0014 0023     		movs	r3, #0
 1425 0016 BB66     		str	r3, [r7, #104]
 453:C:/Users/dtjld/workspace/AIoT/src/LiteOS_Lab/iot_link/network/mqtt/paho_mqtt/port\paho_mqtt_port.c **** 
 454:C:/Users/dtjld/workspace/AIoT/src/LiteOS_Lab/iot_link/network/mqtt/paho_mqtt/port\paho_mqtt_port.c ****     MQTTPacket_connectData option = MQTTPacket_connectData_initializer;
 1426              		.loc 2 454 0
 1427 0018 8E4A     		ldr	r2, .L136
 1428 001a 07F11003 		add	r3, r7, #16
 1429 001e 1146     		mov	r1, r2
 1430 0020 5822     		movs	r2, #88
 1431 0022 1846     		mov	r0, r3
 1432 0024 FFF7FEFF 		bl	memcpy
 455:C:/Users/dtjld/workspace/AIoT/src/LiteOS_Lab/iot_link/network/mqtt/paho_mqtt/port\paho_mqtt_port.c ****     MQTTConnackData conack;
 456:C:/Users/dtjld/workspace/AIoT/src/LiteOS_Lab/iot_link/network/mqtt/paho_mqtt/port\paho_mqtt_port.c ****     //malloc a handle
 457:C:/Users/dtjld/workspace/AIoT/src/LiteOS_Lab/iot_link/network/mqtt/paho_mqtt/port\paho_mqtt_port.c ****     cb = osal_malloc(sizeof(paho_mqtt_cb_t));
 1433              		.loc 2 457 0
 1434 0028 C820     		movs	r0, #200
 1435 002a FFF7FEFF 		bl	osal_malloc
 1436 002e B866     		str	r0, [r7, #104]
 458:C:/Users/dtjld/workspace/AIoT/src/LiteOS_Lab/iot_link/network/mqtt/paho_mqtt/port\paho_mqtt_port.c ****     if(NULL == cb)
 1437              		.loc 2 458 0
 1438 0030 BB6E     		ldr	r3, [r7, #104]
 1439 0032 002B     		cmp	r3, #0
 1440 0034 04D1     		bne	.L111
 459:C:/Users/dtjld/workspace/AIoT/src/LiteOS_Lab/iot_link/network/mqtt/paho_mqtt/port\paho_mqtt_port.c ****     {
ARM GAS  C:\Users\dtjld\AppData\Local\Temp\ccZrCbvi.s 			page 38


 460:C:/Users/dtjld/workspace/AIoT/src/LiteOS_Lab/iot_link/network/mqtt/paho_mqtt/port\paho_mqtt_port.c ****         conparam->conret = cn_mqtt_al_con_code_err_unkown;
 1441              		.loc 2 460 0
 1442 0036 7B68     		ldr	r3, [r7, #4]
 1443 0038 FF22     		movs	r2, #255
 1444 003a 83F83620 		strb	r2, [r3, #54]
 461:C:/Users/dtjld/workspace/AIoT/src/LiteOS_Lab/iot_link/network/mqtt/paho_mqtt/port\paho_mqtt_port.c ****         goto EXIT_CB_MEM_ERR;
 1445              		.loc 2 461 0
 1446 003e 03E1     		b	.L112
 1447              	.L111:
 462:C:/Users/dtjld/workspace/AIoT/src/LiteOS_Lab/iot_link/network/mqtt/paho_mqtt/port\paho_mqtt_port.c ****     }
 463:C:/Users/dtjld/workspace/AIoT/src/LiteOS_Lab/iot_link/network/mqtt/paho_mqtt/port\paho_mqtt_port.c **** 
 464:C:/Users/dtjld/workspace/AIoT/src/LiteOS_Lab/iot_link/network/mqtt/paho_mqtt/port\paho_mqtt_port.c ****     memset(cb,0,sizeof(paho_mqtt_cb_t));
 1448              		.loc 2 464 0
 1449 0040 C822     		movs	r2, #200
 1450 0042 0021     		movs	r1, #0
 1451 0044 B86E     		ldr	r0, [r7, #104]
 1452 0046 FFF7FEFF 		bl	memset
 465:C:/Users/dtjld/workspace/AIoT/src/LiteOS_Lab/iot_link/network/mqtt/paho_mqtt/port\paho_mqtt_port.c ****     cb->task = NULL;
 1453              		.loc 2 465 0
 1454 004a BB6E     		ldr	r3, [r7, #104]
 1455 004c 0022     		movs	r2, #0
 1456 004e C3F8B820 		str	r2, [r3, #184]
 466:C:/Users/dtjld/workspace/AIoT/src/LiteOS_Lab/iot_link/network/mqtt/paho_mqtt/port\paho_mqtt_port.c ****     conparam->conret = cn_mqtt_al_con_code_err_unkown;
 1457              		.loc 2 466 0
 1458 0052 7B68     		ldr	r3, [r7, #4]
 1459 0054 FF22     		movs	r2, #255
 1460 0056 83F83620 		strb	r2, [r3, #54]
 467:C:/Users/dtjld/workspace/AIoT/src/LiteOS_Lab/iot_link/network/mqtt/paho_mqtt/port\paho_mqtt_port.c **** 
 468:C:/Users/dtjld/workspace/AIoT/src/LiteOS_Lab/iot_link/network/mqtt/paho_mqtt/port\paho_mqtt_port.c ****     //do the net connect
 469:C:/Users/dtjld/workspace/AIoT/src/LiteOS_Lab/iot_link/network/mqtt/paho_mqtt/port\paho_mqtt_port.c ****     n = &cb->network;
 1461              		.loc 2 469 0
 1462 005a BB6E     		ldr	r3, [r7, #104]
 1463 005c 3B67     		str	r3, [r7, #112]
 470:C:/Users/dtjld/workspace/AIoT/src/LiteOS_Lab/iot_link/network/mqtt/paho_mqtt/port\paho_mqtt_port.c ****     n->mqttread = __io_read;
 1464              		.loc 2 470 0
 1465 005e 3B6F     		ldr	r3, [r7, #112]
 1466 0060 7D4A     		ldr	r2, .L136+4
 1467 0062 9A62     		str	r2, [r3, #40]
 471:C:/Users/dtjld/workspace/AIoT/src/LiteOS_Lab/iot_link/network/mqtt/paho_mqtt/port\paho_mqtt_port.c ****     n->mqttwrite = __io_write;
 1468              		.loc 2 471 0
 1469 0064 3B6F     		ldr	r3, [r7, #112]
 1470 0066 7D4A     		ldr	r2, .L136+8
 1471 0068 DA62     		str	r2, [r3, #44]
 472:C:/Users/dtjld/workspace/AIoT/src/LiteOS_Lab/iot_link/network/mqtt/paho_mqtt/port\paho_mqtt_port.c **** 
 473:C:/Users/dtjld/workspace/AIoT/src/LiteOS_Lab/iot_link/network/mqtt/paho_mqtt/port\paho_mqtt_port.c ****     if(NULL == conparam->security)
 1472              		.loc 2 473 0
 1473 006a 7B68     		ldr	r3, [r7, #4]
 1474 006c DB68     		ldr	r3, [r3, #12]
 1475 006e 002B     		cmp	r3, #0
 1476 0070 03D1     		bne	.L113
 474:C:/Users/dtjld/workspace/AIoT/src/LiteOS_Lab/iot_link/network/mqtt/paho_mqtt/port\paho_mqtt_port.c ****     {
 475:C:/Users/dtjld/workspace/AIoT/src/LiteOS_Lab/iot_link/network/mqtt/paho_mqtt/port\paho_mqtt_port.c ****         n->arg.type = en_mqtt_al_security_none;
 1477              		.loc 2 475 0
 1478 0072 3B6F     		ldr	r3, [r7, #112]
 1479 0074 0022     		movs	r2, #0
 1480 0076 1A71     		strb	r2, [r3, #4]
 1481 0078 0AE0     		b	.L114
ARM GAS  C:\Users\dtjld\AppData\Local\Temp\ccZrCbvi.s 			page 39


 1482              	.L113:
 476:C:/Users/dtjld/workspace/AIoT/src/LiteOS_Lab/iot_link/network/mqtt/paho_mqtt/port\paho_mqtt_port.c ****     }
 477:C:/Users/dtjld/workspace/AIoT/src/LiteOS_Lab/iot_link/network/mqtt/paho_mqtt/port\paho_mqtt_port.c ****     else
 478:C:/Users/dtjld/workspace/AIoT/src/LiteOS_Lab/iot_link/network/mqtt/paho_mqtt/port\paho_mqtt_port.c ****     {
 479:C:/Users/dtjld/workspace/AIoT/src/LiteOS_Lab/iot_link/network/mqtt/paho_mqtt/port\paho_mqtt_port.c ****         n->arg = *conparam->security;
 1483              		.loc 2 479 0
 1484 007a 7B68     		ldr	r3, [r7, #4]
 1485 007c DA68     		ldr	r2, [r3, #12]
 1486 007e 3B6F     		ldr	r3, [r7, #112]
 1487 0080 1C1D     		adds	r4, r3, #4
 1488 0082 1546     		mov	r5, r2
 1489 0084 0FCD     		ldmia	r5!, {r0, r1, r2, r3}
 1490 0086 0FC4     		stmia	r4!, {r0, r1, r2, r3}
 1491 0088 0FCD     		ldmia	r5!, {r0, r1, r2, r3}
 1492 008a 0FC4     		stmia	r4!, {r0, r1, r2, r3}
 1493 008c 2B68     		ldr	r3, [r5]
 1494 008e 2360     		str	r3, [r4]
 1495              	.L114:
 480:C:/Users/dtjld/workspace/AIoT/src/LiteOS_Lab/iot_link/network/mqtt/paho_mqtt/port\paho_mqtt_port.c ****     }
 481:C:/Users/dtjld/workspace/AIoT/src/LiteOS_Lab/iot_link/network/mqtt/paho_mqtt/port\paho_mqtt_port.c ****     if(0 != __io_connect(n,conparam->serveraddr.data,conparam->serverport))
 1496              		.loc 2 481 0
 1497 0090 7B68     		ldr	r3, [r7, #4]
 1498 0092 1968     		ldr	r1, [r3]
 1499 0094 7B68     		ldr	r3, [r7, #4]
 1500 0096 9B68     		ldr	r3, [r3, #8]
 1501 0098 1A46     		mov	r2, r3
 1502 009a 386F     		ldr	r0, [r7, #112]
 1503 009c FFF7FEFF 		bl	__io_connect
 1504 00a0 0346     		mov	r3, r0
 1505 00a2 002B     		cmp	r3, #0
 1506 00a4 04D0     		beq	.L115
 482:C:/Users/dtjld/workspace/AIoT/src/LiteOS_Lab/iot_link/network/mqtt/paho_mqtt/port\paho_mqtt_port.c ****     {
 483:C:/Users/dtjld/workspace/AIoT/src/LiteOS_Lab/iot_link/network/mqtt/paho_mqtt/port\paho_mqtt_port.c ****         conparam->conret = cn_mqtt_al_con_code_err_network;
 1507              		.loc 2 483 0
 1508 00a6 7B68     		ldr	r3, [r7, #4]
 1509 00a8 8022     		movs	r2, #128
 1510 00aa 83F83620 		strb	r2, [r3, #54]
 484:C:/Users/dtjld/workspace/AIoT/src/LiteOS_Lab/iot_link/network/mqtt/paho_mqtt/port\paho_mqtt_port.c **** 
 485:C:/Users/dtjld/workspace/AIoT/src/LiteOS_Lab/iot_link/network/mqtt/paho_mqtt/port\paho_mqtt_port.c ****         goto EXIT_NET_CONNECT_ERR;
 1511              		.loc 2 485 0
 1512 00ae C8E0     		b	.L116
 1513              	.L115:
 486:C:/Users/dtjld/workspace/AIoT/src/LiteOS_Lab/iot_link/network/mqtt/paho_mqtt/port\paho_mqtt_port.c ****     }
 487:C:/Users/dtjld/workspace/AIoT/src/LiteOS_Lab/iot_link/network/mqtt/paho_mqtt/port\paho_mqtt_port.c ****     //then do the mqtt config
 488:C:/Users/dtjld/workspace/AIoT/src/LiteOS_Lab/iot_link/network/mqtt/paho_mqtt/port\paho_mqtt_port.c ****     cb->rcvbuf = osal_malloc(cn_mqtt_rcvbuf_size) ;
 1514              		.loc 2 488 0
 1515 00b0 4FF40060 		mov	r0, #2048
 1516 00b4 FFF7FEFF 		bl	osal_malloc
 1517 00b8 0246     		mov	r2, r0
 1518 00ba BB6E     		ldr	r3, [r7, #104]
 1519 00bc C3F8BC20 		str	r2, [r3, #188]
 489:C:/Users/dtjld/workspace/AIoT/src/LiteOS_Lab/iot_link/network/mqtt/paho_mqtt/port\paho_mqtt_port.c ****     cb->sndbuf = osal_malloc(cn_mqtt_sndbuf_size) ;
 1520              		.loc 2 489 0
 1521 00c0 4FF40060 		mov	r0, #2048
 1522 00c4 FFF7FEFF 		bl	osal_malloc
 1523 00c8 0246     		mov	r2, r0
 1524 00ca BB6E     		ldr	r3, [r7, #104]
ARM GAS  C:\Users\dtjld\AppData\Local\Temp\ccZrCbvi.s 			page 40


 1525 00cc C3F8C020 		str	r2, [r3, #192]
 490:C:/Users/dtjld/workspace/AIoT/src/LiteOS_Lab/iot_link/network/mqtt/paho_mqtt/port\paho_mqtt_port.c ****     if((NULL == cb->rcvbuf) || (NULL == cb->sndbuf))
 1526              		.loc 2 490 0
 1527 00d0 BB6E     		ldr	r3, [r7, #104]
 1528 00d2 D3F8BC30 		ldr	r3, [r3, #188]
 1529 00d6 002B     		cmp	r3, #0
 1530 00d8 04D0     		beq	.L117
 1531              		.loc 2 490 0 is_stmt 0 discriminator 1
 1532 00da BB6E     		ldr	r3, [r7, #104]
 1533 00dc D3F8C030 		ldr	r3, [r3, #192]
 1534 00e0 002B     		cmp	r3, #0
 1535 00e2 04D1     		bne	.L118
 1536              	.L117:
 491:C:/Users/dtjld/workspace/AIoT/src/LiteOS_Lab/iot_link/network/mqtt/paho_mqtt/port\paho_mqtt_port.c ****     {
 492:C:/Users/dtjld/workspace/AIoT/src/LiteOS_Lab/iot_link/network/mqtt/paho_mqtt/port\paho_mqtt_port.c ****         conparam->conret = cn_mqtt_al_con_code_err_unkown;
 1537              		.loc 2 492 0 is_stmt 1
 1538 00e4 7B68     		ldr	r3, [r7, #4]
 1539 00e6 FF22     		movs	r2, #255
 1540 00e8 83F83620 		strb	r2, [r3, #54]
 493:C:/Users/dtjld/workspace/AIoT/src/LiteOS_Lab/iot_link/network/mqtt/paho_mqtt/port\paho_mqtt_port.c ****         goto EIXT_BUF_MEM_ERR;
 1541              		.loc 2 493 0
 1542 00ec 9AE0     		b	.L131
 1543              	.L118:
 494:C:/Users/dtjld/workspace/AIoT/src/LiteOS_Lab/iot_link/network/mqtt/paho_mqtt/port\paho_mqtt_port.c ****     }
 495:C:/Users/dtjld/workspace/AIoT/src/LiteOS_Lab/iot_link/network/mqtt/paho_mqtt/port\paho_mqtt_port.c ****     c = &cb->client;
 1544              		.loc 2 495 0
 1545 00ee BB6E     		ldr	r3, [r7, #104]
 1546 00f0 3033     		adds	r3, r3, #48
 1547 00f2 FB66     		str	r3, [r7, #108]
 496:C:/Users/dtjld/workspace/AIoT/src/LiteOS_Lab/iot_link/network/mqtt/paho_mqtt/port\paho_mqtt_port.c ****     if(MQTT_SUCCESS != MQTTClientInit(c, n, cn_mqtt_cmd_timeout_ms,\
 497:C:/Users/dtjld/workspace/AIoT/src/LiteOS_Lab/iot_link/network/mqtt/paho_mqtt/port\paho_mqtt_port.c ****             cb->sndbuf, cn_mqtt_sndbuf_size, cb->rcvbuf, cn_mqtt_rcvbuf_size))
 1548              		.loc 2 497 0
 1549 00f4 BB6E     		ldr	r3, [r7, #104]
 1550 00f6 D3F8C010 		ldr	r1, [r3, #192]
 1551 00fa BB6E     		ldr	r3, [r7, #104]
 1552 00fc D3F8BC30 		ldr	r3, [r3, #188]
 496:C:/Users/dtjld/workspace/AIoT/src/LiteOS_Lab/iot_link/network/mqtt/paho_mqtt/port\paho_mqtt_port.c ****     if(MQTT_SUCCESS != MQTTClientInit(c, n, cn_mqtt_cmd_timeout_ms,\
 1553              		.loc 2 496 0
 1554 0100 4FF40062 		mov	r2, #2048
 1555 0104 0292     		str	r2, [sp, #8]
 1556 0106 0193     		str	r3, [sp, #4]
 1557 0108 4FF40063 		mov	r3, #2048
 1558 010c 0093     		str	r3, [sp]
 1559 010e 0B46     		mov	r3, r1
 1560 0110 42F21072 		movw	r2, #10000
 1561 0114 396F     		ldr	r1, [r7, #112]
 1562 0116 F86E     		ldr	r0, [r7, #108]
 1563 0118 FFF7FEFF 		bl	MQTTClientInit
 1564 011c 0346     		mov	r3, r0
 1565 011e 002B     		cmp	r3, #0
 1566 0120 7FD1     		bne	.L134
 498:C:/Users/dtjld/workspace/AIoT/src/LiteOS_Lab/iot_link/network/mqtt/paho_mqtt/port\paho_mqtt_port.c ****     {
 499:C:/Users/dtjld/workspace/AIoT/src/LiteOS_Lab/iot_link/network/mqtt/paho_mqtt/port\paho_mqtt_port.c ****         goto EXIT_MQTT_INIT;
 500:C:/Users/dtjld/workspace/AIoT/src/LiteOS_Lab/iot_link/network/mqtt/paho_mqtt/port\paho_mqtt_port.c ****     }
 501:C:/Users/dtjld/workspace/AIoT/src/LiteOS_Lab/iot_link/network/mqtt/paho_mqtt/port\paho_mqtt_port.c ****     //then do make the mqtt connect param
 502:C:/Users/dtjld/workspace/AIoT/src/LiteOS_Lab/iot_link/network/mqtt/paho_mqtt/port\paho_mqtt_port.c ****     if(conparam->version == en_mqtt_al_version_3_1_0)
 1567              		.loc 2 502 0
ARM GAS  C:\Users\dtjld\AppData\Local\Temp\ccZrCbvi.s 			page 41


 1568 0122 7B68     		ldr	r3, [r7, #4]
 1569 0124 1B7C     		ldrb	r3, [r3, #16]	@ zero_extendqisi2
 1570 0126 002B     		cmp	r3, #0
 1571 0128 02D1     		bne	.L121
 503:C:/Users/dtjld/workspace/AIoT/src/LiteOS_Lab/iot_link/network/mqtt/paho_mqtt/port\paho_mqtt_port.c ****     {
 504:C:/Users/dtjld/workspace/AIoT/src/LiteOS_Lab/iot_link/network/mqtt/paho_mqtt/port\paho_mqtt_port.c ****         option.MQTTVersion = 3 ;
 1572              		.loc 2 504 0
 1573 012a 0323     		movs	r3, #3
 1574 012c 3B76     		strb	r3, [r7, #24]
 1575 012e 01E0     		b	.L122
 1576              	.L121:
 505:C:/Users/dtjld/workspace/AIoT/src/LiteOS_Lab/iot_link/network/mqtt/paho_mqtt/port\paho_mqtt_port.c ****     }
 506:C:/Users/dtjld/workspace/AIoT/src/LiteOS_Lab/iot_link/network/mqtt/paho_mqtt/port\paho_mqtt_port.c ****     else
 507:C:/Users/dtjld/workspace/AIoT/src/LiteOS_Lab/iot_link/network/mqtt/paho_mqtt/port\paho_mqtt_port.c ****     {
 508:C:/Users/dtjld/workspace/AIoT/src/LiteOS_Lab/iot_link/network/mqtt/paho_mqtt/port\paho_mqtt_port.c ****         option.MQTTVersion = 4 ;
 1577              		.loc 2 508 0
 1578 0130 0423     		movs	r3, #4
 1579 0132 3B76     		strb	r3, [r7, #24]
 1580              	.L122:
 509:C:/Users/dtjld/workspace/AIoT/src/LiteOS_Lab/iot_link/network/mqtt/paho_mqtt/port\paho_mqtt_port.c ****     }
 510:C:/Users/dtjld/workspace/AIoT/src/LiteOS_Lab/iot_link/network/mqtt/paho_mqtt/port\paho_mqtt_port.c **** 
 511:C:/Users/dtjld/workspace/AIoT/src/LiteOS_Lab/iot_link/network/mqtt/paho_mqtt/port\paho_mqtt_port.c ****     option.clientID.lenstring.len = conparam->clientid.len;
 1581              		.loc 2 511 0
 1582 0134 7B68     		ldr	r3, [r7, #4]
 1583 0136 9B69     		ldr	r3, [r3, #24]
 1584 0138 3B62     		str	r3, [r7, #32]
 512:C:/Users/dtjld/workspace/AIoT/src/LiteOS_Lab/iot_link/network/mqtt/paho_mqtt/port\paho_mqtt_port.c ****     option.clientID.lenstring.data = conparam->clientid.data;
 1585              		.loc 2 512 0
 1586 013a 7B68     		ldr	r3, [r7, #4]
 1587 013c 5B69     		ldr	r3, [r3, #20]
 1588 013e 7B62     		str	r3, [r7, #36]
 513:C:/Users/dtjld/workspace/AIoT/src/LiteOS_Lab/iot_link/network/mqtt/paho_mqtt/port\paho_mqtt_port.c **** 
 514:C:/Users/dtjld/workspace/AIoT/src/LiteOS_Lab/iot_link/network/mqtt/paho_mqtt/port\paho_mqtt_port.c ****     option.keepAliveInterval = conparam->keepalivetime;
 1589              		.loc 2 514 0
 1590 0140 7B68     		ldr	r3, [r7, #4]
 1591 0142 9B8E     		ldrh	r3, [r3, #52]
 1592 0144 3B85     		strh	r3, [r7, #40]	@ movhi
 515:C:/Users/dtjld/workspace/AIoT/src/LiteOS_Lab/iot_link/network/mqtt/paho_mqtt/port\paho_mqtt_port.c **** 
 516:C:/Users/dtjld/workspace/AIoT/src/LiteOS_Lab/iot_link/network/mqtt/paho_mqtt/port\paho_mqtt_port.c ****     option.cleansession = conparam->cleansession;
 1593              		.loc 2 516 0
 1594 0146 7B68     		ldr	r3, [r7, #4]
 1595 0148 DB6A     		ldr	r3, [r3, #44]
 1596 014a DBB2     		uxtb	r3, r3
 1597 014c 87F82A30 		strb	r3, [r7, #42]
 517:C:/Users/dtjld/workspace/AIoT/src/LiteOS_Lab/iot_link/network/mqtt/paho_mqtt/port\paho_mqtt_port.c **** 
 518:C:/Users/dtjld/workspace/AIoT/src/LiteOS_Lab/iot_link/network/mqtt/paho_mqtt/port\paho_mqtt_port.c ****     if(NULL != conparam->willmsg)
 1598              		.loc 2 518 0
 1599 0150 7B68     		ldr	r3, [r7, #4]
 1600 0152 1B6B     		ldr	r3, [r3, #48]
 1601 0154 002B     		cmp	r3, #0
 1602 0156 1ED0     		beq	.L123
 519:C:/Users/dtjld/workspace/AIoT/src/LiteOS_Lab/iot_link/network/mqtt/paho_mqtt/port\paho_mqtt_port.c ****     {
 520:C:/Users/dtjld/workspace/AIoT/src/LiteOS_Lab/iot_link/network/mqtt/paho_mqtt/port\paho_mqtt_port.c **** 
 521:C:/Users/dtjld/workspace/AIoT/src/LiteOS_Lab/iot_link/network/mqtt/paho_mqtt/port\paho_mqtt_port.c ****         option.willFlag = 1;
 1603              		.loc 2 521 0
 1604 0158 0123     		movs	r3, #1
 1605 015a 87F82B30 		strb	r3, [r7, #43]
ARM GAS  C:\Users\dtjld\AppData\Local\Temp\ccZrCbvi.s 			page 42


 522:C:/Users/dtjld/workspace/AIoT/src/LiteOS_Lab/iot_link/network/mqtt/paho_mqtt/port\paho_mqtt_port.c ****         option.will.qos = conparam->willmsg->qos;
 1606              		.loc 2 522 0
 1607 015e 7B68     		ldr	r3, [r7, #4]
 1608 0160 1B6B     		ldr	r3, [r3, #48]
 1609 0162 1B7C     		ldrb	r3, [r3, #16]	@ zero_extendqisi2
 1610 0164 87F84D30 		strb	r3, [r7, #77]
 523:C:/Users/dtjld/workspace/AIoT/src/LiteOS_Lab/iot_link/network/mqtt/paho_mqtt/port\paho_mqtt_port.c ****         option.will.retained = conparam->willmsg->retain;
 1611              		.loc 2 523 0
 1612 0168 7B68     		ldr	r3, [r7, #4]
 1613 016a 1B6B     		ldr	r3, [r3, #48]
 1614 016c 5B69     		ldr	r3, [r3, #20]
 1615 016e DBB2     		uxtb	r3, r3
 1616 0170 87F84C30 		strb	r3, [r7, #76]
 524:C:/Users/dtjld/workspace/AIoT/src/LiteOS_Lab/iot_link/network/mqtt/paho_mqtt/port\paho_mqtt_port.c **** 
 525:C:/Users/dtjld/workspace/AIoT/src/LiteOS_Lab/iot_link/network/mqtt/paho_mqtt/port\paho_mqtt_port.c ****         option.will.topicName.lenstring.len = conparam->willmsg->topic.len;
 1617              		.loc 2 525 0
 1618 0174 7B68     		ldr	r3, [r7, #4]
 1619 0176 1B6B     		ldr	r3, [r3, #48]
 1620 0178 5B68     		ldr	r3, [r3, #4]
 1621 017a BB63     		str	r3, [r7, #56]
 526:C:/Users/dtjld/workspace/AIoT/src/LiteOS_Lab/iot_link/network/mqtt/paho_mqtt/port\paho_mqtt_port.c ****         option.will.topicName.lenstring.data = conparam->willmsg->topic.data;
 1622              		.loc 2 526 0
 1623 017c 7B68     		ldr	r3, [r7, #4]
 1624 017e 1B6B     		ldr	r3, [r3, #48]
 1625 0180 1B68     		ldr	r3, [r3]
 1626 0182 FB63     		str	r3, [r7, #60]
 527:C:/Users/dtjld/workspace/AIoT/src/LiteOS_Lab/iot_link/network/mqtt/paho_mqtt/port\paho_mqtt_port.c **** 
 528:C:/Users/dtjld/workspace/AIoT/src/LiteOS_Lab/iot_link/network/mqtt/paho_mqtt/port\paho_mqtt_port.c ****         option.will.message.lenstring.len =conparam->willmsg->msg.len;
 1627              		.loc 2 528 0
 1628 0184 7B68     		ldr	r3, [r7, #4]
 1629 0186 1B6B     		ldr	r3, [r3, #48]
 1630 0188 DB68     		ldr	r3, [r3, #12]
 1631 018a 7B64     		str	r3, [r7, #68]
 529:C:/Users/dtjld/workspace/AIoT/src/LiteOS_Lab/iot_link/network/mqtt/paho_mqtt/port\paho_mqtt_port.c ****         option.will.message.lenstring.data =conparam->willmsg->msg.data;
 1632              		.loc 2 529 0
 1633 018c 7B68     		ldr	r3, [r7, #4]
 1634 018e 1B6B     		ldr	r3, [r3, #48]
 1635 0190 9B68     		ldr	r3, [r3, #8]
 1636 0192 BB64     		str	r3, [r7, #72]
 1637 0194 02E0     		b	.L124
 1638              	.L123:
 530:C:/Users/dtjld/workspace/AIoT/src/LiteOS_Lab/iot_link/network/mqtt/paho_mqtt/port\paho_mqtt_port.c **** 
 531:C:/Users/dtjld/workspace/AIoT/src/LiteOS_Lab/iot_link/network/mqtt/paho_mqtt/port\paho_mqtt_port.c ****     }
 532:C:/Users/dtjld/workspace/AIoT/src/LiteOS_Lab/iot_link/network/mqtt/paho_mqtt/port\paho_mqtt_port.c ****     else
 533:C:/Users/dtjld/workspace/AIoT/src/LiteOS_Lab/iot_link/network/mqtt/paho_mqtt/port\paho_mqtt_port.c ****     {
 534:C:/Users/dtjld/workspace/AIoT/src/LiteOS_Lab/iot_link/network/mqtt/paho_mqtt/port\paho_mqtt_port.c ****         option.willFlag = 0;
 1639              		.loc 2 534 0
 1640 0196 0023     		movs	r3, #0
 1641 0198 87F82B30 		strb	r3, [r7, #43]
 1642              	.L124:
 535:C:/Users/dtjld/workspace/AIoT/src/LiteOS_Lab/iot_link/network/mqtt/paho_mqtt/port\paho_mqtt_port.c ****     }
 536:C:/Users/dtjld/workspace/AIoT/src/LiteOS_Lab/iot_link/network/mqtt/paho_mqtt/port\paho_mqtt_port.c **** 
 537:C:/Users/dtjld/workspace/AIoT/src/LiteOS_Lab/iot_link/network/mqtt/paho_mqtt/port\paho_mqtt_port.c ****     option.username.lenstring.len = conparam->user.len;
 1643              		.loc 2 537 0
 1644 019c 7B68     		ldr	r3, [r7, #4]
 1645 019e 1B6A     		ldr	r3, [r3, #32]
 1646 01a0 7B65     		str	r3, [r7, #84]
ARM GAS  C:\Users\dtjld\AppData\Local\Temp\ccZrCbvi.s 			page 43


 538:C:/Users/dtjld/workspace/AIoT/src/LiteOS_Lab/iot_link/network/mqtt/paho_mqtt/port\paho_mqtt_port.c ****     option.username.lenstring.data = conparam->user.data;
 1647              		.loc 2 538 0
 1648 01a2 7B68     		ldr	r3, [r7, #4]
 1649 01a4 DB69     		ldr	r3, [r3, #28]
 1650 01a6 BB65     		str	r3, [r7, #88]
 539:C:/Users/dtjld/workspace/AIoT/src/LiteOS_Lab/iot_link/network/mqtt/paho_mqtt/port\paho_mqtt_port.c **** 
 540:C:/Users/dtjld/workspace/AIoT/src/LiteOS_Lab/iot_link/network/mqtt/paho_mqtt/port\paho_mqtt_port.c ****     option.password.lenstring.len = conparam->passwd.len;
 1651              		.loc 2 540 0
 1652 01a8 7B68     		ldr	r3, [r7, #4]
 1653 01aa 9B6A     		ldr	r3, [r3, #40]
 1654 01ac 3B66     		str	r3, [r7, #96]
 541:C:/Users/dtjld/workspace/AIoT/src/LiteOS_Lab/iot_link/network/mqtt/paho_mqtt/port\paho_mqtt_port.c ****     option.password.lenstring.data = conparam->passwd.data;
 1655              		.loc 2 541 0
 1656 01ae 7B68     		ldr	r3, [r7, #4]
 1657 01b0 5B6A     		ldr	r3, [r3, #36]
 1658 01b2 7B66     		str	r3, [r7, #100]
 542:C:/Users/dtjld/workspace/AIoT/src/LiteOS_Lab/iot_link/network/mqtt/paho_mqtt/port\paho_mqtt_port.c **** 
 543:C:/Users/dtjld/workspace/AIoT/src/LiteOS_Lab/iot_link/network/mqtt/paho_mqtt/port\paho_mqtt_port.c ****     if((MQTT_SUCCESS != MQTTConnectWithResults(c, &option,&conack)) || \
 1659              		.loc 2 543 0
 1660 01b4 07F10C02 		add	r2, r7, #12
 1661 01b8 07F11003 		add	r3, r7, #16
 1662 01bc 1946     		mov	r1, r3
 1663 01be F86E     		ldr	r0, [r7, #108]
 1664 01c0 FFF7FEFF 		bl	MQTTConnectWithResults
 1665 01c4 0346     		mov	r3, r0
 1666 01c6 002B     		cmp	r3, #0
 1667 01c8 02D1     		bne	.L125
 544:C:/Users/dtjld/workspace/AIoT/src/LiteOS_Lab/iot_link/network/mqtt/paho_mqtt/port\paho_mqtt_port.c ****          (conack.rc != cn_mqtt_al_con_code_ok))
 1668              		.loc 2 544 0 discriminator 1
 1669 01ca 3B7B     		ldrb	r3, [r7, #12]	@ zero_extendqisi2
 543:C:/Users/dtjld/workspace/AIoT/src/LiteOS_Lab/iot_link/network/mqtt/paho_mqtt/port\paho_mqtt_port.c ****          (conack.rc != cn_mqtt_al_con_code_ok))
 1670              		.loc 2 543 0 discriminator 1
 1671 01cc 002B     		cmp	r3, #0
 1672 01ce 04D0     		beq	.L126
 1673              	.L125:
 545:C:/Users/dtjld/workspace/AIoT/src/LiteOS_Lab/iot_link/network/mqtt/paho_mqtt/port\paho_mqtt_port.c ****     {
 546:C:/Users/dtjld/workspace/AIoT/src/LiteOS_Lab/iot_link/network/mqtt/paho_mqtt/port\paho_mqtt_port.c ****         conparam->conret = conack.rc;
 1674              		.loc 2 546 0
 1675 01d0 3A7B     		ldrb	r2, [r7, #12]	@ zero_extendqisi2
 1676 01d2 7B68     		ldr	r3, [r7, #4]
 1677 01d4 83F83620 		strb	r2, [r3, #54]
 547:C:/Users/dtjld/workspace/AIoT/src/LiteOS_Lab/iot_link/network/mqtt/paho_mqtt/port\paho_mqtt_port.c ****         goto EXIT_MQTT_CONNECT;
 1678              		.loc 2 547 0
 1679 01d8 24E0     		b	.L131
 1680              	.L126:
 548:C:/Users/dtjld/workspace/AIoT/src/LiteOS_Lab/iot_link/network/mqtt/paho_mqtt/port\paho_mqtt_port.c ****     }
 549:C:/Users/dtjld/workspace/AIoT/src/LiteOS_Lab/iot_link/network/mqtt/paho_mqtt/port\paho_mqtt_port.c ****     else
 550:C:/Users/dtjld/workspace/AIoT/src/LiteOS_Lab/iot_link/network/mqtt/paho_mqtt/port\paho_mqtt_port.c ****     {
 551:C:/Users/dtjld/workspace/AIoT/src/LiteOS_Lab/iot_link/network/mqtt/paho_mqtt/port\paho_mqtt_port.c ****         conparam->conret = conack.rc;
 1681              		.loc 2 551 0
 1682 01da 3A7B     		ldrb	r2, [r7, #12]	@ zero_extendqisi2
 1683 01dc 7B68     		ldr	r3, [r7, #4]
 1684 01de 83F83620 		strb	r2, [r3, #54]
 552:C:/Users/dtjld/workspace/AIoT/src/LiteOS_Lab/iot_link/network/mqtt/paho_mqtt/port\paho_mqtt_port.c ****     }
 553:C:/Users/dtjld/workspace/AIoT/src/LiteOS_Lab/iot_link/network/mqtt/paho_mqtt/port\paho_mqtt_port.c ****     //create the loop task here
 554:C:/Users/dtjld/workspace/AIoT/src/LiteOS_Lab/iot_link/network/mqtt/paho_mqtt/port\paho_mqtt_port.c ****     cb->task = osal_task_create("paho",__loop_entry,cb,0x800,NULL,4);
 1685              		.loc 2 554 0
ARM GAS  C:\Users\dtjld\AppData\Local\Temp\ccZrCbvi.s 			page 44


 1686 01e2 0423     		movs	r3, #4
 1687 01e4 0193     		str	r3, [sp, #4]
 1688 01e6 0023     		movs	r3, #0
 1689 01e8 0093     		str	r3, [sp]
 1690 01ea 4FF40063 		mov	r3, #2048
 1691 01ee BA6E     		ldr	r2, [r7, #104]
 1692 01f0 1B49     		ldr	r1, .L136+12
 1693 01f2 1C48     		ldr	r0, .L136+16
 1694 01f4 FFF7FEFF 		bl	osal_task_create
 1695 01f8 0246     		mov	r2, r0
 1696 01fa BB6E     		ldr	r3, [r7, #104]
 1697 01fc C3F8B820 		str	r2, [r3, #184]
 555:C:/Users/dtjld/workspace/AIoT/src/LiteOS_Lab/iot_link/network/mqtt/paho_mqtt/port\paho_mqtt_port.c ****     if(NULL == cb->task)
 1698              		.loc 2 555 0
 1699 0200 BB6E     		ldr	r3, [r7, #104]
 1700 0202 D3F8B830 		ldr	r3, [r3, #184]
 1701 0206 002B     		cmp	r3, #0
 1702 0208 06D0     		beq	.L135
 556:C:/Users/dtjld/workspace/AIoT/src/LiteOS_Lab/iot_link/network/mqtt/paho_mqtt/port\paho_mqtt_port.c ****     {
 557:C:/Users/dtjld/workspace/AIoT/src/LiteOS_Lab/iot_link/network/mqtt/paho_mqtt/port\paho_mqtt_port.c ****         goto EXIT_MQTT_MAINTASK;
 558:C:/Users/dtjld/workspace/AIoT/src/LiteOS_Lab/iot_link/network/mqtt/paho_mqtt/port\paho_mqtt_port.c ****     }
 559:C:/Users/dtjld/workspace/AIoT/src/LiteOS_Lab/iot_link/network/mqtt/paho_mqtt/port\paho_mqtt_port.c ****     s_static_client_debug = c;
 1703              		.loc 2 559 0
 1704 020a 174A     		ldr	r2, .L136+20
 1705 020c FB6E     		ldr	r3, [r7, #108]
 1706 020e 1360     		str	r3, [r2]
 560:C:/Users/dtjld/workspace/AIoT/src/LiteOS_Lab/iot_link/network/mqtt/paho_mqtt/port\paho_mqtt_port.c **** 
 561:C:/Users/dtjld/workspace/AIoT/src/LiteOS_Lab/iot_link/network/mqtt/paho_mqtt/port\paho_mqtt_port.c ****     ret = cb;
 1707              		.loc 2 561 0
 1708 0210 BB6E     		ldr	r3, [r7, #104]
 1709 0212 7B67     		str	r3, [r7, #116]
 562:C:/Users/dtjld/workspace/AIoT/src/LiteOS_Lab/iot_link/network/mqtt/paho_mqtt/port\paho_mqtt_port.c ****     return ret;
 1710              		.loc 2 562 0
 1711 0214 7B6F     		ldr	r3, [r7, #116]
 1712 0216 18E0     		b	.L132
 1713              	.L135:
 557:C:/Users/dtjld/workspace/AIoT/src/LiteOS_Lab/iot_link/network/mqtt/paho_mqtt/port\paho_mqtt_port.c ****     }
 1714              		.loc 2 557 0
 1715 0218 00BF     		nop
 1716              	.L128:
 563:C:/Users/dtjld/workspace/AIoT/src/LiteOS_Lab/iot_link/network/mqtt/paho_mqtt/port\paho_mqtt_port.c **** 
 564:C:/Users/dtjld/workspace/AIoT/src/LiteOS_Lab/iot_link/network/mqtt/paho_mqtt/port\paho_mqtt_port.c **** EXIT_MQTT_MAINTASK:
 565:C:/Users/dtjld/workspace/AIoT/src/LiteOS_Lab/iot_link/network/mqtt/paho_mqtt/port\paho_mqtt_port.c ****     MQTTDisconnect(c);
 1717              		.loc 2 565 0
 1718 021a F86E     		ldr	r0, [r7, #108]
 1719 021c FFF7FEFF 		bl	MQTTDisconnect
 1720 0220 00E0     		b	.L131
 1721              	.L119:
 1722              	.L130:
 1723              	.L134:
 499:C:/Users/dtjld/workspace/AIoT/src/LiteOS_Lab/iot_link/network/mqtt/paho_mqtt/port\paho_mqtt_port.c ****     }
 1724              		.loc 2 499 0
 1725 0222 00BF     		nop
 1726              	.L131:
 566:C:/Users/dtjld/workspace/AIoT/src/LiteOS_Lab/iot_link/network/mqtt/paho_mqtt/port\paho_mqtt_port.c **** EXIT_MQTT_CONNECT:
 567:C:/Users/dtjld/workspace/AIoT/src/LiteOS_Lab/iot_link/network/mqtt/paho_mqtt/port\paho_mqtt_port.c **** EXIT_MQTT_INIT:
 568:C:/Users/dtjld/workspace/AIoT/src/LiteOS_Lab/iot_link/network/mqtt/paho_mqtt/port\paho_mqtt_port.c **** EIXT_BUF_MEM_ERR:
ARM GAS  C:\Users\dtjld\AppData\Local\Temp\ccZrCbvi.s 			page 45


 569:C:/Users/dtjld/workspace/AIoT/src/LiteOS_Lab/iot_link/network/mqtt/paho_mqtt/port\paho_mqtt_port.c ****     __io_disconnect(n);
 1727              		.loc 2 569 0
 1728 0224 386F     		ldr	r0, [r7, #112]
 1729 0226 FFF7FEFF 		bl	__io_disconnect
 570:C:/Users/dtjld/workspace/AIoT/src/LiteOS_Lab/iot_link/network/mqtt/paho_mqtt/port\paho_mqtt_port.c ****     osal_free(cb->rcvbuf);
 1730              		.loc 2 570 0
 1731 022a BB6E     		ldr	r3, [r7, #104]
 1732 022c D3F8BC30 		ldr	r3, [r3, #188]
 1733 0230 1846     		mov	r0, r3
 1734 0232 FFF7FEFF 		bl	osal_free
 571:C:/Users/dtjld/workspace/AIoT/src/LiteOS_Lab/iot_link/network/mqtt/paho_mqtt/port\paho_mqtt_port.c ****     osal_free(cb->sndbuf);
 1735              		.loc 2 571 0
 1736 0236 BB6E     		ldr	r3, [r7, #104]
 1737 0238 D3F8C030 		ldr	r3, [r3, #192]
 1738 023c 1846     		mov	r0, r3
 1739 023e FFF7FEFF 		bl	osal_free
 1740              	.L116:
 572:C:/Users/dtjld/workspace/AIoT/src/LiteOS_Lab/iot_link/network/mqtt/paho_mqtt/port\paho_mqtt_port.c **** 
 573:C:/Users/dtjld/workspace/AIoT/src/LiteOS_Lab/iot_link/network/mqtt/paho_mqtt/port\paho_mqtt_port.c **** EXIT_NET_CONNECT_ERR:
 574:C:/Users/dtjld/workspace/AIoT/src/LiteOS_Lab/iot_link/network/mqtt/paho_mqtt/port\paho_mqtt_port.c ****     osal_free(cb);
 1741              		.loc 2 574 0
 1742 0242 B86E     		ldr	r0, [r7, #104]
 1743 0244 FFF7FEFF 		bl	osal_free
 1744              	.L112:
 575:C:/Users/dtjld/workspace/AIoT/src/LiteOS_Lab/iot_link/network/mqtt/paho_mqtt/port\paho_mqtt_port.c **** EXIT_CB_MEM_ERR:
 576:C:/Users/dtjld/workspace/AIoT/src/LiteOS_Lab/iot_link/network/mqtt/paho_mqtt/port\paho_mqtt_port.c ****     return NULL;
 1745              		.loc 2 576 0
 1746 0248 0023     		movs	r3, #0
 1747              	.L132:
 577:C:/Users/dtjld/workspace/AIoT/src/LiteOS_Lab/iot_link/network/mqtt/paho_mqtt/port\paho_mqtt_port.c **** }
 1748              		.loc 2 577 0 discriminator 1
 1749 024a 1846     		mov	r0, r3
 1750 024c 7837     		adds	r7, r7, #120
 1751              	.LCFI72:
 1752              		.cfi_def_cfa_offset 16
 1753 024e BD46     		mov	sp, r7
 1754              	.LCFI73:
 1755              		.cfi_def_cfa_register 13
 1756              		@ sp needed
 1757 0250 B0BD     		pop	{r4, r5, r7, pc}
 1758              	.L137:
 1759 0252 00BF     		.align	2
 1760              	.L136:
 1761 0254 0C000000 		.word	.LC0
 1762 0258 00000000 		.word	__io_read
 1763 025c 00000000 		.word	__io_write
 1764 0260 00000000 		.word	__loop_entry
 1765 0264 04000000 		.word	.LC3
 1766 0268 00000000 		.word	s_static_client_debug
 1767              		.cfi_endproc
 1768              	.LFE34:
 1770              		.section	.text.__disconnect,"ax",%progbits
 1771              		.align	1
 1772              		.syntax unified
 1773              		.thumb
 1774              		.thumb_func
 1775              		.fpu fpv4-sp-d16
ARM GAS  C:\Users\dtjld\AppData\Local\Temp\ccZrCbvi.s 			page 46


 1777              	__disconnect:
 1778              	.LFB35:
 578:C:/Users/dtjld/workspace/AIoT/src/LiteOS_Lab/iot_link/network/mqtt/paho_mqtt/port\paho_mqtt_port.c **** 
 579:C:/Users/dtjld/workspace/AIoT/src/LiteOS_Lab/iot_link/network/mqtt/paho_mqtt/port\paho_mqtt_port.c **** static int __disconnect(void *handle)
 580:C:/Users/dtjld/workspace/AIoT/src/LiteOS_Lab/iot_link/network/mqtt/paho_mqtt/port\paho_mqtt_port.c **** {
 1779              		.loc 2 580 0
 1780              		.cfi_startproc
 1781              		@ args = 0, pretend = 0, frame = 24
 1782              		@ frame_needed = 1, uses_anonymous_args = 0
 1783 0000 80B5     		push	{r7, lr}
 1784              	.LCFI74:
 1785              		.cfi_def_cfa_offset 8
 1786              		.cfi_offset 7, -8
 1787              		.cfi_offset 14, -4
 1788 0002 86B0     		sub	sp, sp, #24
 1789              	.LCFI75:
 1790              		.cfi_def_cfa_offset 32
 1791 0004 00AF     		add	r7, sp, #0
 1792              	.LCFI76:
 1793              		.cfi_def_cfa_register 7
 1794 0006 7860     		str	r0, [r7, #4]
 581:C:/Users/dtjld/workspace/AIoT/src/LiteOS_Lab/iot_link/network/mqtt/paho_mqtt/port\paho_mqtt_port.c ****     int ret = -1;
 1795              		.loc 2 581 0
 1796 0008 4FF0FF33 		mov	r3, #-1
 1797 000c 7B61     		str	r3, [r7, #20]
 582:C:/Users/dtjld/workspace/AIoT/src/LiteOS_Lab/iot_link/network/mqtt/paho_mqtt/port\paho_mqtt_port.c **** 
 583:C:/Users/dtjld/workspace/AIoT/src/LiteOS_Lab/iot_link/network/mqtt/paho_mqtt/port\paho_mqtt_port.c ****     Network          *n = NULL;
 1798              		.loc 2 583 0
 1799 000e 0023     		movs	r3, #0
 1800 0010 3B61     		str	r3, [r7, #16]
 584:C:/Users/dtjld/workspace/AIoT/src/LiteOS_Lab/iot_link/network/mqtt/paho_mqtt/port\paho_mqtt_port.c ****     MQTTClient       *c = NULL;
 1801              		.loc 2 584 0
 1802 0012 0023     		movs	r3, #0
 1803 0014 FB60     		str	r3, [r7, #12]
 585:C:/Users/dtjld/workspace/AIoT/src/LiteOS_Lab/iot_link/network/mqtt/paho_mqtt/port\paho_mqtt_port.c ****     paho_mqtt_cb_t   *cb = NULL;
 1804              		.loc 2 585 0
 1805 0016 0023     		movs	r3, #0
 1806 0018 BB60     		str	r3, [r7, #8]
 586:C:/Users/dtjld/workspace/AIoT/src/LiteOS_Lab/iot_link/network/mqtt/paho_mqtt/port\paho_mqtt_port.c **** 
 587:C:/Users/dtjld/workspace/AIoT/src/LiteOS_Lab/iot_link/network/mqtt/paho_mqtt/port\paho_mqtt_port.c **** 
 588:C:/Users/dtjld/workspace/AIoT/src/LiteOS_Lab/iot_link/network/mqtt/paho_mqtt/port\paho_mqtt_port.c ****     if (NULL == handle)
 1807              		.loc 2 588 0
 1808 001a 7B68     		ldr	r3, [r7, #4]
 1809 001c 002B     		cmp	r3, #0
 1810 001e 01D1     		bne	.L139
 589:C:/Users/dtjld/workspace/AIoT/src/LiteOS_Lab/iot_link/network/mqtt/paho_mqtt/port\paho_mqtt_port.c ****     {
 590:C:/Users/dtjld/workspace/AIoT/src/LiteOS_Lab/iot_link/network/mqtt/paho_mqtt/port\paho_mqtt_port.c ****         return ret;
 1811              		.loc 2 590 0
 1812 0020 7B69     		ldr	r3, [r7, #20]
 1813 0022 25E0     		b	.L140
 1814              	.L139:
 591:C:/Users/dtjld/workspace/AIoT/src/LiteOS_Lab/iot_link/network/mqtt/paho_mqtt/port\paho_mqtt_port.c ****     }
 592:C:/Users/dtjld/workspace/AIoT/src/LiteOS_Lab/iot_link/network/mqtt/paho_mqtt/port\paho_mqtt_port.c **** 
 593:C:/Users/dtjld/workspace/AIoT/src/LiteOS_Lab/iot_link/network/mqtt/paho_mqtt/port\paho_mqtt_port.c ****     cb = handle;
 1815              		.loc 2 593 0
 1816 0024 7B68     		ldr	r3, [r7, #4]
 1817 0026 BB60     		str	r3, [r7, #8]
ARM GAS  C:\Users\dtjld\AppData\Local\Temp\ccZrCbvi.s 			page 47


 594:C:/Users/dtjld/workspace/AIoT/src/LiteOS_Lab/iot_link/network/mqtt/paho_mqtt/port\paho_mqtt_port.c **** 
 595:C:/Users/dtjld/workspace/AIoT/src/LiteOS_Lab/iot_link/network/mqtt/paho_mqtt/port\paho_mqtt_port.c ****     c = &cb->client;
 1818              		.loc 2 595 0
 1819 0028 BB68     		ldr	r3, [r7, #8]
 1820 002a 3033     		adds	r3, r3, #48
 1821 002c FB60     		str	r3, [r7, #12]
 596:C:/Users/dtjld/workspace/AIoT/src/LiteOS_Lab/iot_link/network/mqtt/paho_mqtt/port\paho_mqtt_port.c ****     n = &cb->network;
 1822              		.loc 2 596 0
 1823 002e BB68     		ldr	r3, [r7, #8]
 1824 0030 3B61     		str	r3, [r7, #16]
 597:C:/Users/dtjld/workspace/AIoT/src/LiteOS_Lab/iot_link/network/mqtt/paho_mqtt/port\paho_mqtt_port.c ****     //mqtt disconnect
 598:C:/Users/dtjld/workspace/AIoT/src/LiteOS_Lab/iot_link/network/mqtt/paho_mqtt/port\paho_mqtt_port.c ****     MQTTDisconnect(c);
 1825              		.loc 2 598 0
 1826 0032 F868     		ldr	r0, [r7, #12]
 1827 0034 FFF7FEFF 		bl	MQTTDisconnect
 599:C:/Users/dtjld/workspace/AIoT/src/LiteOS_Lab/iot_link/network/mqtt/paho_mqtt/port\paho_mqtt_port.c ****     //net disconnect
 600:C:/Users/dtjld/workspace/AIoT/src/LiteOS_Lab/iot_link/network/mqtt/paho_mqtt/port\paho_mqtt_port.c ****     __io_disconnect(n);
 1828              		.loc 2 600 0
 1829 0038 3869     		ldr	r0, [r7, #16]
 1830 003a FFF7FEFF 		bl	__io_disconnect
 601:C:/Users/dtjld/workspace/AIoT/src/LiteOS_Lab/iot_link/network/mqtt/paho_mqtt/port\paho_mqtt_port.c ****     //kill the thread
 602:C:/Users/dtjld/workspace/AIoT/src/LiteOS_Lab/iot_link/network/mqtt/paho_mqtt/port\paho_mqtt_port.c ****     osal_task_kill(cb->task);
 1831              		.loc 2 602 0
 1832 003e BB68     		ldr	r3, [r7, #8]
 1833 0040 D3F8B830 		ldr	r3, [r3, #184]
 1834 0044 1846     		mov	r0, r3
 1835 0046 FFF7FEFF 		bl	osal_task_kill
 603:C:/Users/dtjld/workspace/AIoT/src/LiteOS_Lab/iot_link/network/mqtt/paho_mqtt/port\paho_mqtt_port.c ****     //deinit the mqtt
 604:C:/Users/dtjld/workspace/AIoT/src/LiteOS_Lab/iot_link/network/mqtt/paho_mqtt/port\paho_mqtt_port.c ****     MQTTClientDeInit(c);
 1836              		.loc 2 604 0
 1837 004a F868     		ldr	r0, [r7, #12]
 1838 004c FFF7FEFF 		bl	MQTTClientDeInit
 605:C:/Users/dtjld/workspace/AIoT/src/LiteOS_Lab/iot_link/network/mqtt/paho_mqtt/port\paho_mqtt_port.c ****     //free the memory
 606:C:/Users/dtjld/workspace/AIoT/src/LiteOS_Lab/iot_link/network/mqtt/paho_mqtt/port\paho_mqtt_port.c ****     osal_free(cb->rcvbuf);
 1839              		.loc 2 606 0
 1840 0050 BB68     		ldr	r3, [r7, #8]
 1841 0052 D3F8BC30 		ldr	r3, [r3, #188]
 1842 0056 1846     		mov	r0, r3
 1843 0058 FFF7FEFF 		bl	osal_free
 607:C:/Users/dtjld/workspace/AIoT/src/LiteOS_Lab/iot_link/network/mqtt/paho_mqtt/port\paho_mqtt_port.c ****     osal_free(cb->sndbuf);
 1844              		.loc 2 607 0
 1845 005c BB68     		ldr	r3, [r7, #8]
 1846 005e D3F8C030 		ldr	r3, [r3, #192]
 1847 0062 1846     		mov	r0, r3
 1848 0064 FFF7FEFF 		bl	osal_free
 608:C:/Users/dtjld/workspace/AIoT/src/LiteOS_Lab/iot_link/network/mqtt/paho_mqtt/port\paho_mqtt_port.c ****     osal_free(cb);
 1849              		.loc 2 608 0
 1850 0068 B868     		ldr	r0, [r7, #8]
 1851 006a FFF7FEFF 		bl	osal_free
 609:C:/Users/dtjld/workspace/AIoT/src/LiteOS_Lab/iot_link/network/mqtt/paho_mqtt/port\paho_mqtt_port.c **** 
 610:C:/Users/dtjld/workspace/AIoT/src/LiteOS_Lab/iot_link/network/mqtt/paho_mqtt/port\paho_mqtt_port.c ****     return 0;
 1852              		.loc 2 610 0
 1853 006e 0023     		movs	r3, #0
 1854              	.L140:
 611:C:/Users/dtjld/workspace/AIoT/src/LiteOS_Lab/iot_link/network/mqtt/paho_mqtt/port\paho_mqtt_port.c **** }
 1855              		.loc 2 611 0
 1856 0070 1846     		mov	r0, r3
ARM GAS  C:\Users\dtjld\AppData\Local\Temp\ccZrCbvi.s 			page 48


 1857 0072 1837     		adds	r7, r7, #24
 1858              	.LCFI77:
 1859              		.cfi_def_cfa_offset 8
 1860 0074 BD46     		mov	sp, r7
 1861              	.LCFI78:
 1862              		.cfi_def_cfa_register 13
 1863              		@ sp needed
 1864 0076 80BD     		pop	{r7, pc}
 1865              		.cfi_endproc
 1866              	.LFE35:
 1868              		.section	.text.general_dealer,"ax",%progbits
 1869              		.align	1
 1870              		.syntax unified
 1871              		.thumb
 1872              		.thumb_func
 1873              		.fpu fpv4-sp-d16
 1875              	general_dealer:
 1876              	.LFB36:
 612:C:/Users/dtjld/workspace/AIoT/src/LiteOS_Lab/iot_link/network/mqtt/paho_mqtt/port\paho_mqtt_port.c **** 
 613:C:/Users/dtjld/workspace/AIoT/src/LiteOS_Lab/iot_link/network/mqtt/paho_mqtt/port\paho_mqtt_port.c **** /**
 614:C:/Users/dtjld/workspace/AIoT/src/LiteOS_Lab/iot_link/network/mqtt/paho_mqtt/port\paho_mqtt_port.c ****  * Copyright (c) 2009-2018 Roger Light <roger@atchoo.org>
 615:C:/Users/dtjld/workspace/AIoT/src/LiteOS_Lab/iot_link/network/mqtt/paho_mqtt/port\paho_mqtt_port.c ****  * licensed under the Eclipse Public License 1.0 and the Eclipse Distribution License 1.0
 616:C:/Users/dtjld/workspace/AIoT/src/LiteOS_Lab/iot_link/network/mqtt/paho_mqtt/port\paho_mqtt_port.c ****  */
 617:C:/Users/dtjld/workspace/AIoT/src/LiteOS_Lab/iot_link/network/mqtt/paho_mqtt/port\paho_mqtt_port.c **** ///< we changge the lib to support the args
 618:C:/Users/dtjld/workspace/AIoT/src/LiteOS_Lab/iot_link/network/mqtt/paho_mqtt/port\paho_mqtt_port.c **** static void general_dealer(MessageData *data)
 619:C:/Users/dtjld/workspace/AIoT/src/LiteOS_Lab/iot_link/network/mqtt/paho_mqtt/port\paho_mqtt_port.c **** {
 1877              		.loc 2 619 0
 1878              		.cfi_startproc
 1879              		@ args = 0, pretend = 0, frame = 40
 1880              		@ frame_needed = 1, uses_anonymous_args = 0
 1881 0000 80B5     		push	{r7, lr}
 1882              	.LCFI79:
 1883              		.cfi_def_cfa_offset 8
 1884              		.cfi_offset 7, -8
 1885              		.cfi_offset 14, -4
 1886 0002 8AB0     		sub	sp, sp, #40
 1887              	.LCFI80:
 1888              		.cfi_def_cfa_offset 48
 1889 0004 00AF     		add	r7, sp, #0
 1890              	.LCFI81:
 1891              		.cfi_def_cfa_register 7
 1892 0006 7860     		str	r0, [r7, #4]
 620:C:/Users/dtjld/workspace/AIoT/src/LiteOS_Lab/iot_link/network/mqtt/paho_mqtt/port\paho_mqtt_port.c ****     mqtt_al_msgrcv_t   msg;
 621:C:/Users/dtjld/workspace/AIoT/src/LiteOS_Lab/iot_link/network/mqtt/paho_mqtt/port\paho_mqtt_port.c ****     fn_msg_dealer      dealer;
 622:C:/Users/dtjld/workspace/AIoT/src/LiteOS_Lab/iot_link/network/mqtt/paho_mqtt/port\paho_mqtt_port.c ****     msg.dup = data->message->dup;
 1893              		.loc 2 622 0
 1894 0008 7B68     		ldr	r3, [r7, #4]
 1895 000a 1B68     		ldr	r3, [r3]
 1896 000c 9B78     		ldrb	r3, [r3, #2]	@ zero_extendqisi2
 1897 000e FB61     		str	r3, [r7, #28]
 623:C:/Users/dtjld/workspace/AIoT/src/LiteOS_Lab/iot_link/network/mqtt/paho_mqtt/port\paho_mqtt_port.c ****     msg.qos = data->message->qos;
 1898              		.loc 2 623 0
 1899 0010 7B68     		ldr	r3, [r7, #4]
 1900 0012 1B68     		ldr	r3, [r3]
 1901 0014 1B78     		ldrb	r3, [r3]	@ zero_extendqisi2
 1902 0016 3B76     		strb	r3, [r7, #24]
 624:C:/Users/dtjld/workspace/AIoT/src/LiteOS_Lab/iot_link/network/mqtt/paho_mqtt/port\paho_mqtt_port.c ****     msg.retain = data->message->retained;
ARM GAS  C:\Users\dtjld\AppData\Local\Temp\ccZrCbvi.s 			page 49


 1903              		.loc 2 624 0
 1904 0018 7B68     		ldr	r3, [r7, #4]
 1905 001a 1B68     		ldr	r3, [r3]
 1906 001c 5B78     		ldrb	r3, [r3, #1]	@ zero_extendqisi2
 1907 001e 3B62     		str	r3, [r7, #32]
 625:C:/Users/dtjld/workspace/AIoT/src/LiteOS_Lab/iot_link/network/mqtt/paho_mqtt/port\paho_mqtt_port.c ****     msg.msg.len = data->message->payloadlen;
 1908              		.loc 2 625 0
 1909 0020 7B68     		ldr	r3, [r7, #4]
 1910 0022 1B68     		ldr	r3, [r3]
 1911 0024 DB68     		ldr	r3, [r3, #12]
 1912 0026 7B61     		str	r3, [r7, #20]
 626:C:/Users/dtjld/workspace/AIoT/src/LiteOS_Lab/iot_link/network/mqtt/paho_mqtt/port\paho_mqtt_port.c ****     msg.msg.data = data->message->payload;
 1913              		.loc 2 626 0
 1914 0028 7B68     		ldr	r3, [r7, #4]
 1915 002a 1B68     		ldr	r3, [r3]
 1916 002c 9B68     		ldr	r3, [r3, #8]
 1917 002e 3B61     		str	r3, [r7, #16]
 627:C:/Users/dtjld/workspace/AIoT/src/LiteOS_Lab/iot_link/network/mqtt/paho_mqtt/port\paho_mqtt_port.c **** 
 628:C:/Users/dtjld/workspace/AIoT/src/LiteOS_Lab/iot_link/network/mqtt/paho_mqtt/port\paho_mqtt_port.c ****     if(data->topicName->lenstring.len)
 1918              		.loc 2 628 0
 1919 0030 7B68     		ldr	r3, [r7, #4]
 1920 0032 5B68     		ldr	r3, [r3, #4]
 1921 0034 5B68     		ldr	r3, [r3, #4]
 1922 0036 002B     		cmp	r3, #0
 1923 0038 08D0     		beq	.L142
 629:C:/Users/dtjld/workspace/AIoT/src/LiteOS_Lab/iot_link/network/mqtt/paho_mqtt/port\paho_mqtt_port.c ****     {
 630:C:/Users/dtjld/workspace/AIoT/src/LiteOS_Lab/iot_link/network/mqtt/paho_mqtt/port\paho_mqtt_port.c ****         msg.topic.data = data->topicName->lenstring.data;
 1924              		.loc 2 630 0
 1925 003a 7B68     		ldr	r3, [r7, #4]
 1926 003c 5B68     		ldr	r3, [r3, #4]
 1927 003e 9B68     		ldr	r3, [r3, #8]
 1928 0040 BB60     		str	r3, [r7, #8]
 631:C:/Users/dtjld/workspace/AIoT/src/LiteOS_Lab/iot_link/network/mqtt/paho_mqtt/port\paho_mqtt_port.c ****         msg.topic.len = data->topicName->lenstring.len;
 1929              		.loc 2 631 0
 1930 0042 7B68     		ldr	r3, [r7, #4]
 1931 0044 5B68     		ldr	r3, [r3, #4]
 1932 0046 5B68     		ldr	r3, [r3, #4]
 1933 0048 FB60     		str	r3, [r7, #12]
 1934 004a 0BE0     		b	.L143
 1935              	.L142:
 632:C:/Users/dtjld/workspace/AIoT/src/LiteOS_Lab/iot_link/network/mqtt/paho_mqtt/port\paho_mqtt_port.c ****     }
 633:C:/Users/dtjld/workspace/AIoT/src/LiteOS_Lab/iot_link/network/mqtt/paho_mqtt/port\paho_mqtt_port.c ****     else
 634:C:/Users/dtjld/workspace/AIoT/src/LiteOS_Lab/iot_link/network/mqtt/paho_mqtt/port\paho_mqtt_port.c ****     {
 635:C:/Users/dtjld/workspace/AIoT/src/LiteOS_Lab/iot_link/network/mqtt/paho_mqtt/port\paho_mqtt_port.c ****         msg.topic.data = data->topicName->cstring;
 1936              		.loc 2 635 0
 1937 004c 7B68     		ldr	r3, [r7, #4]
 1938 004e 5B68     		ldr	r3, [r3, #4]
 1939 0050 1B68     		ldr	r3, [r3]
 1940 0052 BB60     		str	r3, [r7, #8]
 636:C:/Users/dtjld/workspace/AIoT/src/LiteOS_Lab/iot_link/network/mqtt/paho_mqtt/port\paho_mqtt_port.c ****         msg.topic.len = strlen(data->topicName->cstring);
 1941              		.loc 2 636 0
 1942 0054 7B68     		ldr	r3, [r7, #4]
 1943 0056 5B68     		ldr	r3, [r3, #4]
 1944 0058 1B68     		ldr	r3, [r3]
 1945 005a 1846     		mov	r0, r3
 1946 005c FFF7FEFF 		bl	strlen
 1947 0060 0346     		mov	r3, r0
ARM GAS  C:\Users\dtjld\AppData\Local\Temp\ccZrCbvi.s 			page 50


 1948 0062 FB60     		str	r3, [r7, #12]
 1949              	.L143:
 637:C:/Users/dtjld/workspace/AIoT/src/LiteOS_Lab/iot_link/network/mqtt/paho_mqtt/port\paho_mqtt_port.c ****     }
 638:C:/Users/dtjld/workspace/AIoT/src/LiteOS_Lab/iot_link/network/mqtt/paho_mqtt/port\paho_mqtt_port.c **** 
 639:C:/Users/dtjld/workspace/AIoT/src/LiteOS_Lab/iot_link/network/mqtt/paho_mqtt/port\paho_mqtt_port.c ****     if(NULL != data->arg)
 1950              		.loc 2 639 0
 1951 0064 7B68     		ldr	r3, [r7, #4]
 1952 0066 9B68     		ldr	r3, [r3, #8]
 1953 0068 002B     		cmp	r3, #0
 1954 006a 08D0     		beq	.L145
 640:C:/Users/dtjld/workspace/AIoT/src/LiteOS_Lab/iot_link/network/mqtt/paho_mqtt/port\paho_mqtt_port.c ****     {
 641:C:/Users/dtjld/workspace/AIoT/src/LiteOS_Lab/iot_link/network/mqtt/paho_mqtt/port\paho_mqtt_port.c ****         dealer = data->arg;
 1955              		.loc 2 641 0
 1956 006c 7B68     		ldr	r3, [r7, #4]
 1957 006e 9B68     		ldr	r3, [r3, #8]
 1958 0070 7B62     		str	r3, [r7, #36]
 642:C:/Users/dtjld/workspace/AIoT/src/LiteOS_Lab/iot_link/network/mqtt/paho_mqtt/port\paho_mqtt_port.c ****         dealer(NULL,&msg);  ///<   the args not implement yet
 1959              		.loc 2 642 0
 1960 0072 07F10802 		add	r2, r7, #8
 1961 0076 7B6A     		ldr	r3, [r7, #36]
 1962 0078 1146     		mov	r1, r2
 1963 007a 0020     		movs	r0, #0
 1964 007c 9847     		blx	r3
 1965              	.LVL0:
 1966              	.L145:
 643:C:/Users/dtjld/workspace/AIoT/src/LiteOS_Lab/iot_link/network/mqtt/paho_mqtt/port\paho_mqtt_port.c ****     }
 644:C:/Users/dtjld/workspace/AIoT/src/LiteOS_Lab/iot_link/network/mqtt/paho_mqtt/port\paho_mqtt_port.c **** }
 1967              		.loc 2 644 0
 1968 007e 00BF     		nop
 1969 0080 2837     		adds	r7, r7, #40
 1970              	.LCFI82:
 1971              		.cfi_def_cfa_offset 8
 1972 0082 BD46     		mov	sp, r7
 1973              	.LCFI83:
 1974              		.cfi_def_cfa_register 13
 1975              		@ sp needed
 1976 0084 80BD     		pop	{r7, pc}
 1977              		.cfi_endproc
 1978              	.LFE36:
 1980              		.section	.text.__subscribe,"ax",%progbits
 1981              		.align	1
 1982              		.syntax unified
 1983              		.thumb
 1984              		.thumb_func
 1985              		.fpu fpv4-sp-d16
 1987              	__subscribe:
 1988              	.LFB37:
 645:C:/Users/dtjld/workspace/AIoT/src/LiteOS_Lab/iot_link/network/mqtt/paho_mqtt/port\paho_mqtt_port.c **** 
 646:C:/Users/dtjld/workspace/AIoT/src/LiteOS_Lab/iot_link/network/mqtt/paho_mqtt/port\paho_mqtt_port.c **** 
 647:C:/Users/dtjld/workspace/AIoT/src/LiteOS_Lab/iot_link/network/mqtt/paho_mqtt/port\paho_mqtt_port.c **** //////////////////////END --PATCH FOR PAHO MQTT/////////////////////////////////
 648:C:/Users/dtjld/workspace/AIoT/src/LiteOS_Lab/iot_link/network/mqtt/paho_mqtt/port\paho_mqtt_port.c **** static int __subscribe(void *handle,mqtt_al_subpara_t *para)
 649:C:/Users/dtjld/workspace/AIoT/src/LiteOS_Lab/iot_link/network/mqtt/paho_mqtt/port\paho_mqtt_port.c **** {
 1989              		.loc 2 649 0
 1990              		.cfi_startproc
 1991              		@ args = 0, pretend = 0, frame = 24
 1992              		@ frame_needed = 1, uses_anonymous_args = 0
 1993 0000 80B5     		push	{r7, lr}
ARM GAS  C:\Users\dtjld\AppData\Local\Temp\ccZrCbvi.s 			page 51


 1994              	.LCFI84:
 1995              		.cfi_def_cfa_offset 8
 1996              		.cfi_offset 7, -8
 1997              		.cfi_offset 14, -4
 1998 0002 88B0     		sub	sp, sp, #32
 1999              	.LCFI85:
 2000              		.cfi_def_cfa_offset 40
 2001 0004 02AF     		add	r7, sp, #8
 2002              	.LCFI86:
 2003              		.cfi_def_cfa 7, 32
 2004 0006 7860     		str	r0, [r7, #4]
 2005 0008 3960     		str	r1, [r7]
 650:C:/Users/dtjld/workspace/AIoT/src/LiteOS_Lab/iot_link/network/mqtt/paho_mqtt/port\paho_mqtt_port.c ****     int ret = -1;
 2006              		.loc 2 650 0
 2007 000a 4FF0FF33 		mov	r3, #-1
 2008 000e 7B61     		str	r3, [r7, #20]
 651:C:/Users/dtjld/workspace/AIoT/src/LiteOS_Lab/iot_link/network/mqtt/paho_mqtt/port\paho_mqtt_port.c ****     MQTTClient       *c = NULL;
 2009              		.loc 2 651 0
 2010 0010 0023     		movs	r3, #0
 2011 0012 3B61     		str	r3, [r7, #16]
 652:C:/Users/dtjld/workspace/AIoT/src/LiteOS_Lab/iot_link/network/mqtt/paho_mqtt/port\paho_mqtt_port.c ****     paho_mqtt_cb_t   *cb = NULL;
 2012              		.loc 2 652 0
 2013 0014 0023     		movs	r3, #0
 2014 0016 FB60     		str	r3, [r7, #12]
 653:C:/Users/dtjld/workspace/AIoT/src/LiteOS_Lab/iot_link/network/mqtt/paho_mqtt/port\paho_mqtt_port.c **** 
 654:C:/Users/dtjld/workspace/AIoT/src/LiteOS_Lab/iot_link/network/mqtt/paho_mqtt/port\paho_mqtt_port.c ****     MQTTSubackData   ack;
 655:C:/Users/dtjld/workspace/AIoT/src/LiteOS_Lab/iot_link/network/mqtt/paho_mqtt/port\paho_mqtt_port.c **** 
 656:C:/Users/dtjld/workspace/AIoT/src/LiteOS_Lab/iot_link/network/mqtt/paho_mqtt/port\paho_mqtt_port.c ****     if((NULL == handle) ||(NULL == para))
 2015              		.loc 2 656 0
 2016 0018 7B68     		ldr	r3, [r7, #4]
 2017 001a 002B     		cmp	r3, #0
 2018 001c 02D0     		beq	.L147
 2019              		.loc 2 656 0 is_stmt 0 discriminator 1
 2020 001e 3B68     		ldr	r3, [r7]
 2021 0020 002B     		cmp	r3, #0
 2022 0022 01D1     		bne	.L148
 2023              	.L147:
 657:C:/Users/dtjld/workspace/AIoT/src/LiteOS_Lab/iot_link/network/mqtt/paho_mqtt/port\paho_mqtt_port.c ****     {
 658:C:/Users/dtjld/workspace/AIoT/src/LiteOS_Lab/iot_link/network/mqtt/paho_mqtt/port\paho_mqtt_port.c ****         return ret;
 2024              		.loc 2 658 0 is_stmt 1
 2025 0024 7B69     		ldr	r3, [r7, #20]
 2026 0026 1BE0     		b	.L151
 2027              	.L148:
 659:C:/Users/dtjld/workspace/AIoT/src/LiteOS_Lab/iot_link/network/mqtt/paho_mqtt/port\paho_mqtt_port.c ****     }
 660:C:/Users/dtjld/workspace/AIoT/src/LiteOS_Lab/iot_link/network/mqtt/paho_mqtt/port\paho_mqtt_port.c **** 
 661:C:/Users/dtjld/workspace/AIoT/src/LiteOS_Lab/iot_link/network/mqtt/paho_mqtt/port\paho_mqtt_port.c ****     cb = handle;
 2028              		.loc 2 661 0
 2029 0028 7B68     		ldr	r3, [r7, #4]
 2030 002a FB60     		str	r3, [r7, #12]
 662:C:/Users/dtjld/workspace/AIoT/src/LiteOS_Lab/iot_link/network/mqtt/paho_mqtt/port\paho_mqtt_port.c ****     c = &cb->client;
 2031              		.loc 2 662 0
 2032 002c FB68     		ldr	r3, [r7, #12]
 2033 002e 3033     		adds	r3, r3, #48
 2034 0030 3B61     		str	r3, [r7, #16]
 663:C:/Users/dtjld/workspace/AIoT/src/LiteOS_Lab/iot_link/network/mqtt/paho_mqtt/port\paho_mqtt_port.c **** 
 664:C:/Users/dtjld/workspace/AIoT/src/LiteOS_Lab/iot_link/network/mqtt/paho_mqtt/port\paho_mqtt_port.c ****     if(MQTT_SUCCESS == MQTTSubscribeWithResultsArgs(c,para->topic.data,para->qos,\
 2035              		.loc 2 664 0
ARM GAS  C:\Users\dtjld\AppData\Local\Temp\ccZrCbvi.s 			page 52


 2036 0032 3B68     		ldr	r3, [r7]
 2037 0034 1968     		ldr	r1, [r3]
 2038 0036 3B68     		ldr	r3, [r7]
 2039 0038 1A7A     		ldrb	r2, [r3, #8]	@ zero_extendqisi2
 665:C:/Users/dtjld/workspace/AIoT/src/LiteOS_Lab/iot_link/network/mqtt/paho_mqtt/port\paho_mqtt_port.c ****             general_dealer,&ack,para->dealer))
 2040              		.loc 2 665 0
 2041 003a 3B68     		ldr	r3, [r7]
 2042 003c DB68     		ldr	r3, [r3, #12]
 664:C:/Users/dtjld/workspace/AIoT/src/LiteOS_Lab/iot_link/network/mqtt/paho_mqtt/port\paho_mqtt_port.c ****             general_dealer,&ack,para->dealer))
 2043              		.loc 2 664 0
 2044 003e 0193     		str	r3, [sp, #4]
 2045 0040 07F10803 		add	r3, r7, #8
 2046 0044 0093     		str	r3, [sp]
 2047 0046 084B     		ldr	r3, .L152
 2048 0048 3869     		ldr	r0, [r7, #16]
 2049 004a FFF7FEFF 		bl	MQTTSubscribeWithResultsArgs
 2050 004e 0346     		mov	r3, r0
 2051 0050 002B     		cmp	r3, #0
 2052 0052 04D1     		bne	.L150
 666:C:/Users/dtjld/workspace/AIoT/src/LiteOS_Lab/iot_link/network/mqtt/paho_mqtt/port\paho_mqtt_port.c ****     {
 667:C:/Users/dtjld/workspace/AIoT/src/LiteOS_Lab/iot_link/network/mqtt/paho_mqtt/port\paho_mqtt_port.c ****         para->subret = ack.grantedQoS;
 2053              		.loc 2 667 0
 2054 0054 3A7A     		ldrb	r2, [r7, #8]	@ zero_extendqisi2
 2055 0056 3B68     		ldr	r3, [r7]
 2056 0058 1A75     		strb	r2, [r3, #20]
 668:C:/Users/dtjld/workspace/AIoT/src/LiteOS_Lab/iot_link/network/mqtt/paho_mqtt/port\paho_mqtt_port.c ****         ret = 0;
 2057              		.loc 2 668 0
 2058 005a 0023     		movs	r3, #0
 2059 005c 7B61     		str	r3, [r7, #20]
 2060              	.L150:
 669:C:/Users/dtjld/workspace/AIoT/src/LiteOS_Lab/iot_link/network/mqtt/paho_mqtt/port\paho_mqtt_port.c ****     }
 670:C:/Users/dtjld/workspace/AIoT/src/LiteOS_Lab/iot_link/network/mqtt/paho_mqtt/port\paho_mqtt_port.c **** 
 671:C:/Users/dtjld/workspace/AIoT/src/LiteOS_Lab/iot_link/network/mqtt/paho_mqtt/port\paho_mqtt_port.c ****     return ret;
 2061              		.loc 2 671 0
 2062 005e 7B69     		ldr	r3, [r7, #20]
 2063              	.L151:
 672:C:/Users/dtjld/workspace/AIoT/src/LiteOS_Lab/iot_link/network/mqtt/paho_mqtt/port\paho_mqtt_port.c **** }
 2064              		.loc 2 672 0 discriminator 1
 2065 0060 1846     		mov	r0, r3
 2066 0062 1837     		adds	r7, r7, #24
 2067              	.LCFI87:
 2068              		.cfi_def_cfa_offset 8
 2069 0064 BD46     		mov	sp, r7
 2070              	.LCFI88:
 2071              		.cfi_def_cfa_register 13
 2072              		@ sp needed
 2073 0066 80BD     		pop	{r7, pc}
 2074              	.L153:
 2075              		.align	2
 2076              	.L152:
 2077 0068 00000000 		.word	general_dealer
 2078              		.cfi_endproc
 2079              	.LFE37:
 2081              		.section	.text.__unsubscribe,"ax",%progbits
 2082              		.align	1
 2083              		.syntax unified
 2084              		.thumb
ARM GAS  C:\Users\dtjld\AppData\Local\Temp\ccZrCbvi.s 			page 53


 2085              		.thumb_func
 2086              		.fpu fpv4-sp-d16
 2088              	__unsubscribe:
 2089              	.LFB38:
 673:C:/Users/dtjld/workspace/AIoT/src/LiteOS_Lab/iot_link/network/mqtt/paho_mqtt/port\paho_mqtt_port.c **** 
 674:C:/Users/dtjld/workspace/AIoT/src/LiteOS_Lab/iot_link/network/mqtt/paho_mqtt/port\paho_mqtt_port.c **** static int __unsubscribe(void *handle,mqtt_al_unsubpara_t *para)
 675:C:/Users/dtjld/workspace/AIoT/src/LiteOS_Lab/iot_link/network/mqtt/paho_mqtt/port\paho_mqtt_port.c **** {
 2090              		.loc 2 675 0
 2091              		.cfi_startproc
 2092              		@ args = 0, pretend = 0, frame = 24
 2093              		@ frame_needed = 1, uses_anonymous_args = 0
 2094 0000 80B5     		push	{r7, lr}
 2095              	.LCFI89:
 2096              		.cfi_def_cfa_offset 8
 2097              		.cfi_offset 7, -8
 2098              		.cfi_offset 14, -4
 2099 0002 86B0     		sub	sp, sp, #24
 2100              	.LCFI90:
 2101              		.cfi_def_cfa_offset 32
 2102 0004 00AF     		add	r7, sp, #0
 2103              	.LCFI91:
 2104              		.cfi_def_cfa_register 7
 2105 0006 7860     		str	r0, [r7, #4]
 2106 0008 3960     		str	r1, [r7]
 676:C:/Users/dtjld/workspace/AIoT/src/LiteOS_Lab/iot_link/network/mqtt/paho_mqtt/port\paho_mqtt_port.c ****     int ret = -1;
 2107              		.loc 2 676 0
 2108 000a 4FF0FF33 		mov	r3, #-1
 2109 000e 7B61     		str	r3, [r7, #20]
 677:C:/Users/dtjld/workspace/AIoT/src/LiteOS_Lab/iot_link/network/mqtt/paho_mqtt/port\paho_mqtt_port.c ****     MQTTClient       *c = NULL;
 2110              		.loc 2 677 0
 2111 0010 0023     		movs	r3, #0
 2112 0012 3B61     		str	r3, [r7, #16]
 678:C:/Users/dtjld/workspace/AIoT/src/LiteOS_Lab/iot_link/network/mqtt/paho_mqtt/port\paho_mqtt_port.c ****     paho_mqtt_cb_t   *cb = NULL;
 2113              		.loc 2 678 0
 2114 0014 0023     		movs	r3, #0
 2115 0016 FB60     		str	r3, [r7, #12]
 679:C:/Users/dtjld/workspace/AIoT/src/LiteOS_Lab/iot_link/network/mqtt/paho_mqtt/port\paho_mqtt_port.c **** 
 680:C:/Users/dtjld/workspace/AIoT/src/LiteOS_Lab/iot_link/network/mqtt/paho_mqtt/port\paho_mqtt_port.c ****     if((NULL == handle) ||(NULL == para))
 2116              		.loc 2 680 0
 2117 0018 7B68     		ldr	r3, [r7, #4]
 2118 001a 002B     		cmp	r3, #0
 2119 001c 02D0     		beq	.L155
 2120              		.loc 2 680 0 is_stmt 0 discriminator 1
 2121 001e 3B68     		ldr	r3, [r7]
 2122 0020 002B     		cmp	r3, #0
 2123 0022 01D1     		bne	.L156
 2124              	.L155:
 681:C:/Users/dtjld/workspace/AIoT/src/LiteOS_Lab/iot_link/network/mqtt/paho_mqtt/port\paho_mqtt_port.c ****     {
 682:C:/Users/dtjld/workspace/AIoT/src/LiteOS_Lab/iot_link/network/mqtt/paho_mqtt/port\paho_mqtt_port.c ****         return ret;
 2125              		.loc 2 682 0 is_stmt 1
 2126 0024 7B69     		ldr	r3, [r7, #20]
 2127 0026 10E0     		b	.L157
 2128              	.L156:
 683:C:/Users/dtjld/workspace/AIoT/src/LiteOS_Lab/iot_link/network/mqtt/paho_mqtt/port\paho_mqtt_port.c ****     }
 684:C:/Users/dtjld/workspace/AIoT/src/LiteOS_Lab/iot_link/network/mqtt/paho_mqtt/port\paho_mqtt_port.c **** 
 685:C:/Users/dtjld/workspace/AIoT/src/LiteOS_Lab/iot_link/network/mqtt/paho_mqtt/port\paho_mqtt_port.c ****     cb = handle;
 2129              		.loc 2 685 0
ARM GAS  C:\Users\dtjld\AppData\Local\Temp\ccZrCbvi.s 			page 54


 2130 0028 7B68     		ldr	r3, [r7, #4]
 2131 002a FB60     		str	r3, [r7, #12]
 686:C:/Users/dtjld/workspace/AIoT/src/LiteOS_Lab/iot_link/network/mqtt/paho_mqtt/port\paho_mqtt_port.c ****     c = &cb->client;
 2132              		.loc 2 686 0
 2133 002c FB68     		ldr	r3, [r7, #12]
 2134 002e 3033     		adds	r3, r3, #48
 2135 0030 3B61     		str	r3, [r7, #16]
 687:C:/Users/dtjld/workspace/AIoT/src/LiteOS_Lab/iot_link/network/mqtt/paho_mqtt/port\paho_mqtt_port.c **** 
 688:C:/Users/dtjld/workspace/AIoT/src/LiteOS_Lab/iot_link/network/mqtt/paho_mqtt/port\paho_mqtt_port.c ****     if(MQTT_SUCCESS == MQTTUnsubscribe(c,para->topic.data))
 2136              		.loc 2 688 0
 2137 0032 3B68     		ldr	r3, [r7]
 2138 0034 1B68     		ldr	r3, [r3]
 2139 0036 1946     		mov	r1, r3
 2140 0038 3869     		ldr	r0, [r7, #16]
 2141 003a FFF7FEFF 		bl	MQTTUnsubscribe
 2142 003e 0346     		mov	r3, r0
 2143 0040 002B     		cmp	r3, #0
 2144 0042 01D1     		bne	.L158
 689:C:/Users/dtjld/workspace/AIoT/src/LiteOS_Lab/iot_link/network/mqtt/paho_mqtt/port\paho_mqtt_port.c ****     {
 690:C:/Users/dtjld/workspace/AIoT/src/LiteOS_Lab/iot_link/network/mqtt/paho_mqtt/port\paho_mqtt_port.c ****         ret = 0;
 2145              		.loc 2 690 0
 2146 0044 0023     		movs	r3, #0
 2147 0046 7B61     		str	r3, [r7, #20]
 2148              	.L158:
 691:C:/Users/dtjld/workspace/AIoT/src/LiteOS_Lab/iot_link/network/mqtt/paho_mqtt/port\paho_mqtt_port.c ****     }
 692:C:/Users/dtjld/workspace/AIoT/src/LiteOS_Lab/iot_link/network/mqtt/paho_mqtt/port\paho_mqtt_port.c **** 
 693:C:/Users/dtjld/workspace/AIoT/src/LiteOS_Lab/iot_link/network/mqtt/paho_mqtt/port\paho_mqtt_port.c ****     return ret;
 2149              		.loc 2 693 0
 2150 0048 7B69     		ldr	r3, [r7, #20]
 2151              	.L157:
 694:C:/Users/dtjld/workspace/AIoT/src/LiteOS_Lab/iot_link/network/mqtt/paho_mqtt/port\paho_mqtt_port.c **** 
 695:C:/Users/dtjld/workspace/AIoT/src/LiteOS_Lab/iot_link/network/mqtt/paho_mqtt/port\paho_mqtt_port.c **** }
 2152              		.loc 2 695 0
 2153 004a 1846     		mov	r0, r3
 2154 004c 1837     		adds	r7, r7, #24
 2155              	.LCFI92:
 2156              		.cfi_def_cfa_offset 8
 2157 004e BD46     		mov	sp, r7
 2158              	.LCFI93:
 2159              		.cfi_def_cfa_register 13
 2160              		@ sp needed
 2161 0050 80BD     		pop	{r7, pc}
 2162              		.cfi_endproc
 2163              	.LFE38:
 2165              		.section	.text.__publish,"ax",%progbits
 2166              		.align	1
 2167              		.syntax unified
 2168              		.thumb
 2169              		.thumb_func
 2170              		.fpu fpv4-sp-d16
 2172              	__publish:
 2173              	.LFB39:
 696:C:/Users/dtjld/workspace/AIoT/src/LiteOS_Lab/iot_link/network/mqtt/paho_mqtt/port\paho_mqtt_port.c **** 
 697:C:/Users/dtjld/workspace/AIoT/src/LiteOS_Lab/iot_link/network/mqtt/paho_mqtt/port\paho_mqtt_port.c **** static int __publish(void *handle, mqtt_al_pubpara_t *para)
 698:C:/Users/dtjld/workspace/AIoT/src/LiteOS_Lab/iot_link/network/mqtt/paho_mqtt/port\paho_mqtt_port.c **** {
 2174              		.loc 2 698 0
 2175              		.cfi_startproc
ARM GAS  C:\Users\dtjld\AppData\Local\Temp\ccZrCbvi.s 			page 55


 2176              		@ args = 0, pretend = 0, frame = 40
 2177              		@ frame_needed = 1, uses_anonymous_args = 0
 2178 0000 80B5     		push	{r7, lr}
 2179              	.LCFI94:
 2180              		.cfi_def_cfa_offset 8
 2181              		.cfi_offset 7, -8
 2182              		.cfi_offset 14, -4
 2183 0002 8AB0     		sub	sp, sp, #40
 2184              	.LCFI95:
 2185              		.cfi_def_cfa_offset 48
 2186 0004 00AF     		add	r7, sp, #0
 2187              	.LCFI96:
 2188              		.cfi_def_cfa_register 7
 2189 0006 7860     		str	r0, [r7, #4]
 2190 0008 3960     		str	r1, [r7]
 699:C:/Users/dtjld/workspace/AIoT/src/LiteOS_Lab/iot_link/network/mqtt/paho_mqtt/port\paho_mqtt_port.c ****     MQTTMessage  msg;
 700:C:/Users/dtjld/workspace/AIoT/src/LiteOS_Lab/iot_link/network/mqtt/paho_mqtt/port\paho_mqtt_port.c ****     int ret = -1;
 2191              		.loc 2 700 0
 2192 000a 4FF0FF33 		mov	r3, #-1
 2193 000e 7B62     		str	r3, [r7, #36]
 701:C:/Users/dtjld/workspace/AIoT/src/LiteOS_Lab/iot_link/network/mqtt/paho_mqtt/port\paho_mqtt_port.c ****     MQTTClient       *c = NULL;
 2194              		.loc 2 701 0
 2195 0010 0023     		movs	r3, #0
 2196 0012 3B62     		str	r3, [r7, #32]
 702:C:/Users/dtjld/workspace/AIoT/src/LiteOS_Lab/iot_link/network/mqtt/paho_mqtt/port\paho_mqtt_port.c ****     paho_mqtt_cb_t   *cb = NULL;
 2197              		.loc 2 702 0
 2198 0014 0023     		movs	r3, #0
 2199 0016 FB61     		str	r3, [r7, #28]
 703:C:/Users/dtjld/workspace/AIoT/src/LiteOS_Lab/iot_link/network/mqtt/paho_mqtt/port\paho_mqtt_port.c **** 
 704:C:/Users/dtjld/workspace/AIoT/src/LiteOS_Lab/iot_link/network/mqtt/paho_mqtt/port\paho_mqtt_port.c ****     if((NULL == handle) ||(NULL == para))
 2200              		.loc 2 704 0
 2201 0018 7B68     		ldr	r3, [r7, #4]
 2202 001a 002B     		cmp	r3, #0
 2203 001c 02D0     		beq	.L160
 2204              		.loc 2 704 0 is_stmt 0 discriminator 1
 2205 001e 3B68     		ldr	r3, [r7]
 2206 0020 002B     		cmp	r3, #0
 2207 0022 01D1     		bne	.L161
 2208              	.L160:
 705:C:/Users/dtjld/workspace/AIoT/src/LiteOS_Lab/iot_link/network/mqtt/paho_mqtt/port\paho_mqtt_port.c ****     {
 706:C:/Users/dtjld/workspace/AIoT/src/LiteOS_Lab/iot_link/network/mqtt/paho_mqtt/port\paho_mqtt_port.c ****         return ret;
 2209              		.loc 2 706 0 is_stmt 1
 2210 0024 7B6A     		ldr	r3, [r7, #36]
 2211 0026 26E0     		b	.L164
 2212              	.L161:
 707:C:/Users/dtjld/workspace/AIoT/src/LiteOS_Lab/iot_link/network/mqtt/paho_mqtt/port\paho_mqtt_port.c ****     }
 708:C:/Users/dtjld/workspace/AIoT/src/LiteOS_Lab/iot_link/network/mqtt/paho_mqtt/port\paho_mqtt_port.c **** 
 709:C:/Users/dtjld/workspace/AIoT/src/LiteOS_Lab/iot_link/network/mqtt/paho_mqtt/port\paho_mqtt_port.c ****     cb = handle;
 2213              		.loc 2 709 0
 2214 0028 7B68     		ldr	r3, [r7, #4]
 2215 002a FB61     		str	r3, [r7, #28]
 710:C:/Users/dtjld/workspace/AIoT/src/LiteOS_Lab/iot_link/network/mqtt/paho_mqtt/port\paho_mqtt_port.c ****     c = &cb->client;
 2216              		.loc 2 710 0
 2217 002c FB69     		ldr	r3, [r7, #28]
 2218 002e 3033     		adds	r3, r3, #48
 2219 0030 3B62     		str	r3, [r7, #32]
 711:C:/Users/dtjld/workspace/AIoT/src/LiteOS_Lab/iot_link/network/mqtt/paho_mqtt/port\paho_mqtt_port.c **** 
ARM GAS  C:\Users\dtjld\AppData\Local\Temp\ccZrCbvi.s 			page 56


 712:C:/Users/dtjld/workspace/AIoT/src/LiteOS_Lab/iot_link/network/mqtt/paho_mqtt/port\paho_mqtt_port.c ****     memset(&msg,0,sizeof(msg));
 2220              		.loc 2 712 0
 2221 0032 07F10C03 		add	r3, r7, #12
 2222 0036 1022     		movs	r2, #16
 2223 0038 0021     		movs	r1, #0
 2224 003a 1846     		mov	r0, r3
 2225 003c FFF7FEFF 		bl	memset
 713:C:/Users/dtjld/workspace/AIoT/src/LiteOS_Lab/iot_link/network/mqtt/paho_mqtt/port\paho_mqtt_port.c ****     msg.retained = para->retain;
 2226              		.loc 2 713 0
 2227 0040 3B68     		ldr	r3, [r7]
 2228 0042 5B69     		ldr	r3, [r3, #20]
 2229 0044 DBB2     		uxtb	r3, r3
 2230 0046 7B73     		strb	r3, [r7, #13]
 714:C:/Users/dtjld/workspace/AIoT/src/LiteOS_Lab/iot_link/network/mqtt/paho_mqtt/port\paho_mqtt_port.c ****     msg.qos = QOS0 + para->qos;
 2231              		.loc 2 714 0
 2232 0048 3B68     		ldr	r3, [r7]
 2233 004a 1B7C     		ldrb	r3, [r3, #16]	@ zero_extendqisi2
 2234 004c 3B73     		strb	r3, [r7, #12]
 715:C:/Users/dtjld/workspace/AIoT/src/LiteOS_Lab/iot_link/network/mqtt/paho_mqtt/port\paho_mqtt_port.c ****     msg.payload = para->msg.data;
 2235              		.loc 2 715 0
 2236 004e 3B68     		ldr	r3, [r7]
 2237 0050 9B68     		ldr	r3, [r3, #8]
 2238 0052 7B61     		str	r3, [r7, #20]
 716:C:/Users/dtjld/workspace/AIoT/src/LiteOS_Lab/iot_link/network/mqtt/paho_mqtt/port\paho_mqtt_port.c ****     msg.payloadlen = para->msg.len;
 2239              		.loc 2 716 0
 2240 0054 3B68     		ldr	r3, [r7]
 2241 0056 DB68     		ldr	r3, [r3, #12]
 2242 0058 BB61     		str	r3, [r7, #24]
 717:C:/Users/dtjld/workspace/AIoT/src/LiteOS_Lab/iot_link/network/mqtt/paho_mqtt/port\paho_mqtt_port.c ****     if(MQTT_SUCCESS ==  MQTTPublish(c, para->topic.data, &msg))
 2243              		.loc 2 717 0
 2244 005a 3B68     		ldr	r3, [r7]
 2245 005c 1B68     		ldr	r3, [r3]
 2246 005e 07F10C02 		add	r2, r7, #12
 2247 0062 1946     		mov	r1, r3
 2248 0064 386A     		ldr	r0, [r7, #32]
 2249 0066 FFF7FEFF 		bl	MQTTPublish
 2250 006a 0346     		mov	r3, r0
 2251 006c 002B     		cmp	r3, #0
 2252 006e 01D1     		bne	.L163
 718:C:/Users/dtjld/workspace/AIoT/src/LiteOS_Lab/iot_link/network/mqtt/paho_mqtt/port\paho_mqtt_port.c ****     {
 719:C:/Users/dtjld/workspace/AIoT/src/LiteOS_Lab/iot_link/network/mqtt/paho_mqtt/port\paho_mqtt_port.c ****         ret = 0;
 2253              		.loc 2 719 0
 2254 0070 0023     		movs	r3, #0
 2255 0072 7B62     		str	r3, [r7, #36]
 2256              	.L163:
 720:C:/Users/dtjld/workspace/AIoT/src/LiteOS_Lab/iot_link/network/mqtt/paho_mqtt/port\paho_mqtt_port.c ****     }
 721:C:/Users/dtjld/workspace/AIoT/src/LiteOS_Lab/iot_link/network/mqtt/paho_mqtt/port\paho_mqtt_port.c **** 
 722:C:/Users/dtjld/workspace/AIoT/src/LiteOS_Lab/iot_link/network/mqtt/paho_mqtt/port\paho_mqtt_port.c ****     return ret;
 2257              		.loc 2 722 0
 2258 0074 7B6A     		ldr	r3, [r7, #36]
 2259              	.L164:
 723:C:/Users/dtjld/workspace/AIoT/src/LiteOS_Lab/iot_link/network/mqtt/paho_mqtt/port\paho_mqtt_port.c **** }
 2260              		.loc 2 723 0 discriminator 1
 2261 0076 1846     		mov	r0, r3
 2262 0078 2837     		adds	r7, r7, #40
 2263              	.LCFI97:
 2264              		.cfi_def_cfa_offset 8
ARM GAS  C:\Users\dtjld\AppData\Local\Temp\ccZrCbvi.s 			page 57


 2265 007a BD46     		mov	sp, r7
 2266              	.LCFI98:
 2267              		.cfi_def_cfa_register 13
 2268              		@ sp needed
 2269 007c 80BD     		pop	{r7, pc}
 2270              		.cfi_endproc
 2271              	.LFE39:
 2273              		.section	.text.__check_status,"ax",%progbits
 2274              		.align	1
 2275              		.syntax unified
 2276              		.thumb
 2277              		.thumb_func
 2278              		.fpu fpv4-sp-d16
 2280              	__check_status:
 2281              	.LFB40:
 724:C:/Users/dtjld/workspace/AIoT/src/LiteOS_Lab/iot_link/network/mqtt/paho_mqtt/port\paho_mqtt_port.c **** 
 725:C:/Users/dtjld/workspace/AIoT/src/LiteOS_Lab/iot_link/network/mqtt/paho_mqtt/port\paho_mqtt_port.c **** static en_mqtt_al_connect_state __check_status(void *handle)
 726:C:/Users/dtjld/workspace/AIoT/src/LiteOS_Lab/iot_link/network/mqtt/paho_mqtt/port\paho_mqtt_port.c **** {
 2282              		.loc 2 726 0
 2283              		.cfi_startproc
 2284              		@ args = 0, pretend = 0, frame = 24
 2285              		@ frame_needed = 1, uses_anonymous_args = 0
 2286 0000 80B5     		push	{r7, lr}
 2287              	.LCFI99:
 2288              		.cfi_def_cfa_offset 8
 2289              		.cfi_offset 7, -8
 2290              		.cfi_offset 14, -4
 2291 0002 86B0     		sub	sp, sp, #24
 2292              	.LCFI100:
 2293              		.cfi_def_cfa_offset 32
 2294 0004 00AF     		add	r7, sp, #0
 2295              	.LCFI101:
 2296              		.cfi_def_cfa_register 7
 2297 0006 7860     		str	r0, [r7, #4]
 727:C:/Users/dtjld/workspace/AIoT/src/LiteOS_Lab/iot_link/network/mqtt/paho_mqtt/port\paho_mqtt_port.c ****     int ret = en_mqtt_al_connect_err;
 2298              		.loc 2 727 0
 2299 0008 0123     		movs	r3, #1
 2300 000a 7B61     		str	r3, [r7, #20]
 728:C:/Users/dtjld/workspace/AIoT/src/LiteOS_Lab/iot_link/network/mqtt/paho_mqtt/port\paho_mqtt_port.c ****     MQTTClient       *c = NULL;
 2301              		.loc 2 728 0
 2302 000c 0023     		movs	r3, #0
 2303 000e 3B61     		str	r3, [r7, #16]
 729:C:/Users/dtjld/workspace/AIoT/src/LiteOS_Lab/iot_link/network/mqtt/paho_mqtt/port\paho_mqtt_port.c ****     paho_mqtt_cb_t   *cb = NULL;
 2304              		.loc 2 729 0
 2305 0010 0023     		movs	r3, #0
 2306 0012 FB60     		str	r3, [r7, #12]
 730:C:/Users/dtjld/workspace/AIoT/src/LiteOS_Lab/iot_link/network/mqtt/paho_mqtt/port\paho_mqtt_port.c **** 
 731:C:/Users/dtjld/workspace/AIoT/src/LiteOS_Lab/iot_link/network/mqtt/paho_mqtt/port\paho_mqtt_port.c ****     if(NULL == handle)
 2307              		.loc 2 731 0
 2308 0014 7B68     		ldr	r3, [r7, #4]
 2309 0016 002B     		cmp	r3, #0
 2310 0018 02D1     		bne	.L166
 732:C:/Users/dtjld/workspace/AIoT/src/LiteOS_Lab/iot_link/network/mqtt/paho_mqtt/port\paho_mqtt_port.c ****     {
 733:C:/Users/dtjld/workspace/AIoT/src/LiteOS_Lab/iot_link/network/mqtt/paho_mqtt/port\paho_mqtt_port.c ****         return ret;
 2311              		.loc 2 733 0
 2312 001a 7B69     		ldr	r3, [r7, #20]
 2313 001c DBB2     		uxtb	r3, r3
ARM GAS  C:\Users\dtjld\AppData\Local\Temp\ccZrCbvi.s 			page 58


 2314 001e 0EE0     		b	.L167
 2315              	.L166:
 734:C:/Users/dtjld/workspace/AIoT/src/LiteOS_Lab/iot_link/network/mqtt/paho_mqtt/port\paho_mqtt_port.c ****     }
 735:C:/Users/dtjld/workspace/AIoT/src/LiteOS_Lab/iot_link/network/mqtt/paho_mqtt/port\paho_mqtt_port.c **** 
 736:C:/Users/dtjld/workspace/AIoT/src/LiteOS_Lab/iot_link/network/mqtt/paho_mqtt/port\paho_mqtt_port.c ****     cb = handle;
 2316              		.loc 2 736 0
 2317 0020 7B68     		ldr	r3, [r7, #4]
 2318 0022 FB60     		str	r3, [r7, #12]
 737:C:/Users/dtjld/workspace/AIoT/src/LiteOS_Lab/iot_link/network/mqtt/paho_mqtt/port\paho_mqtt_port.c ****     c = &cb->client;
 2319              		.loc 2 737 0
 2320 0024 FB68     		ldr	r3, [r7, #12]
 2321 0026 3033     		adds	r3, r3, #48
 2322 0028 3B61     		str	r3, [r7, #16]
 738:C:/Users/dtjld/workspace/AIoT/src/LiteOS_Lab/iot_link/network/mqtt/paho_mqtt/port\paho_mqtt_port.c **** 
 739:C:/Users/dtjld/workspace/AIoT/src/LiteOS_Lab/iot_link/network/mqtt/paho_mqtt/port\paho_mqtt_port.c ****     if(MQTTIsConnected(c))
 2323              		.loc 2 739 0
 2324 002a 3869     		ldr	r0, [r7, #16]
 2325 002c FFF7FEFF 		bl	MQTTIsConnected
 2326 0030 0346     		mov	r3, r0
 2327 0032 002B     		cmp	r3, #0
 2328 0034 01D0     		beq	.L168
 740:C:/Users/dtjld/workspace/AIoT/src/LiteOS_Lab/iot_link/network/mqtt/paho_mqtt/port\paho_mqtt_port.c ****     {
 741:C:/Users/dtjld/workspace/AIoT/src/LiteOS_Lab/iot_link/network/mqtt/paho_mqtt/port\paho_mqtt_port.c ****         ret = en_mqtt_al_connect_ok;
 2329              		.loc 2 741 0
 2330 0036 0023     		movs	r3, #0
 2331 0038 7B61     		str	r3, [r7, #20]
 2332              	.L168:
 742:C:/Users/dtjld/workspace/AIoT/src/LiteOS_Lab/iot_link/network/mqtt/paho_mqtt/port\paho_mqtt_port.c ****     }
 743:C:/Users/dtjld/workspace/AIoT/src/LiteOS_Lab/iot_link/network/mqtt/paho_mqtt/port\paho_mqtt_port.c **** 
 744:C:/Users/dtjld/workspace/AIoT/src/LiteOS_Lab/iot_link/network/mqtt/paho_mqtt/port\paho_mqtt_port.c ****     return ret;
 2333              		.loc 2 744 0
 2334 003a 7B69     		ldr	r3, [r7, #20]
 2335 003c DBB2     		uxtb	r3, r3
 2336              	.L167:
 745:C:/Users/dtjld/workspace/AIoT/src/LiteOS_Lab/iot_link/network/mqtt/paho_mqtt/port\paho_mqtt_port.c **** }
 2337              		.loc 2 745 0
 2338 003e 1846     		mov	r0, r3
 2339 0040 1837     		adds	r7, r7, #24
 2340              	.LCFI102:
 2341              		.cfi_def_cfa_offset 8
 2342 0042 BD46     		mov	sp, r7
 2343              	.LCFI103:
 2344              		.cfi_def_cfa_register 13
 2345              		@ sp needed
 2346 0044 80BD     		pop	{r7, pc}
 2347              		.cfi_endproc
 2348              	.LFE40:
 2350              		.section	.rodata
 2351              		.align	2
 2352              	.LC1:
 2353 0064 00000000 		.word	__connect
 2354 0068 00000000 		.word	__disconnect
 2355 006c 00000000 		.word	__publish
 2356 0070 00000000 		.word	__subscribe
 2357 0074 00000000 		.word	__unsubscribe
 2358 0078 00000000 		.word	__check_status
 2359              		.section	.text.mqtt_install_pahomqtt,"ax",%progbits
ARM GAS  C:\Users\dtjld\AppData\Local\Temp\ccZrCbvi.s 			page 59


 2360              		.align	1
 2361              		.global	mqtt_install_pahomqtt
 2362              		.syntax unified
 2363              		.thumb
 2364              		.thumb_func
 2365              		.fpu fpv4-sp-d16
 2367              	mqtt_install_pahomqtt:
 2368              	.LFB41:
 746:C:/Users/dtjld/workspace/AIoT/src/LiteOS_Lab/iot_link/network/mqtt/paho_mqtt/port\paho_mqtt_port.c **** 
 747:C:/Users/dtjld/workspace/AIoT/src/LiteOS_Lab/iot_link/network/mqtt/paho_mqtt/port\paho_mqtt_port.c **** 
 748:C:/Users/dtjld/workspace/AIoT/src/LiteOS_Lab/iot_link/network/mqtt/paho_mqtt/port\paho_mqtt_port.c **** int mqtt_install_pahomqtt()
 749:C:/Users/dtjld/workspace/AIoT/src/LiteOS_Lab/iot_link/network/mqtt/paho_mqtt/port\paho_mqtt_port.c **** {
 2369              		.loc 2 749 0
 2370              		.cfi_startproc
 2371              		@ args = 0, pretend = 0, frame = 32
 2372              		@ frame_needed = 1, uses_anonymous_args = 0
 2373 0000 B0B5     		push	{r4, r5, r7, lr}
 2374              	.LCFI104:
 2375              		.cfi_def_cfa_offset 16
 2376              		.cfi_offset 4, -16
 2377              		.cfi_offset 5, -12
 2378              		.cfi_offset 7, -8
 2379              		.cfi_offset 14, -4
 2380 0002 88B0     		sub	sp, sp, #32
 2381              	.LCFI105:
 2382              		.cfi_def_cfa_offset 48
 2383 0004 00AF     		add	r7, sp, #0
 2384              	.LCFI106:
 2385              		.cfi_def_cfa_register 7
 750:C:/Users/dtjld/workspace/AIoT/src/LiteOS_Lab/iot_link/network/mqtt/paho_mqtt/port\paho_mqtt_port.c ****     int ret = -1;
 2386              		.loc 2 750 0
 2387 0006 4FF0FF33 		mov	r3, #-1
 2388 000a FB61     		str	r3, [r7, #28]
 751:C:/Users/dtjld/workspace/AIoT/src/LiteOS_Lab/iot_link/network/mqtt/paho_mqtt/port\paho_mqtt_port.c **** 
 752:C:/Users/dtjld/workspace/AIoT/src/LiteOS_Lab/iot_link/network/mqtt/paho_mqtt/port\paho_mqtt_port.c ****     mqtt_al_op_t paho_mqtt_op =
 2389              		.loc 2 752 0
 2390 000c 094B     		ldr	r3, .L171
 2391 000e 3C1D     		adds	r4, r7, #4
 2392 0010 1D46     		mov	r5, r3
 2393 0012 0FCD     		ldmia	r5!, {r0, r1, r2, r3}
 2394 0014 0FC4     		stmia	r4!, {r0, r1, r2, r3}
 2395 0016 95E80300 		ldm	r5, {r0, r1}
 2396 001a 84E80300 		stm	r4, {r0, r1}
 753:C:/Users/dtjld/workspace/AIoT/src/LiteOS_Lab/iot_link/network/mqtt/paho_mqtt/port\paho_mqtt_port.c ****     {
 754:C:/Users/dtjld/workspace/AIoT/src/LiteOS_Lab/iot_link/network/mqtt/paho_mqtt/port\paho_mqtt_port.c ****         .connect = __connect,
 755:C:/Users/dtjld/workspace/AIoT/src/LiteOS_Lab/iot_link/network/mqtt/paho_mqtt/port\paho_mqtt_port.c ****         .disconnect = __disconnect,
 756:C:/Users/dtjld/workspace/AIoT/src/LiteOS_Lab/iot_link/network/mqtt/paho_mqtt/port\paho_mqtt_port.c ****         .subscribe = __subscribe,
 757:C:/Users/dtjld/workspace/AIoT/src/LiteOS_Lab/iot_link/network/mqtt/paho_mqtt/port\paho_mqtt_port.c ****         .unsubscribe = __unsubscribe,
 758:C:/Users/dtjld/workspace/AIoT/src/LiteOS_Lab/iot_link/network/mqtt/paho_mqtt/port\paho_mqtt_port.c ****         .publish = __publish,
 759:C:/Users/dtjld/workspace/AIoT/src/LiteOS_Lab/iot_link/network/mqtt/paho_mqtt/port\paho_mqtt_port.c ****         .check_status = __check_status,
 760:C:/Users/dtjld/workspace/AIoT/src/LiteOS_Lab/iot_link/network/mqtt/paho_mqtt/port\paho_mqtt_port.c ****     };
 761:C:/Users/dtjld/workspace/AIoT/src/LiteOS_Lab/iot_link/network/mqtt/paho_mqtt/port\paho_mqtt_port.c **** 
 762:C:/Users/dtjld/workspace/AIoT/src/LiteOS_Lab/iot_link/network/mqtt/paho_mqtt/port\paho_mqtt_port.c ****     ret = mqtt_al_install(&paho_mqtt_op);
 2397              		.loc 2 762 0
 2398 001e 3B1D     		adds	r3, r7, #4
 2399 0020 1846     		mov	r0, r3
 2400 0022 FFF7FEFF 		bl	mqtt_al_install
ARM GAS  C:\Users\dtjld\AppData\Local\Temp\ccZrCbvi.s 			page 60


 2401 0026 F861     		str	r0, [r7, #28]
 763:C:/Users/dtjld/workspace/AIoT/src/LiteOS_Lab/iot_link/network/mqtt/paho_mqtt/port\paho_mqtt_port.c **** 
 764:C:/Users/dtjld/workspace/AIoT/src/LiteOS_Lab/iot_link/network/mqtt/paho_mqtt/port\paho_mqtt_port.c ****     return ret;
 2402              		.loc 2 764 0
 2403 0028 FB69     		ldr	r3, [r7, #28]
 765:C:/Users/dtjld/workspace/AIoT/src/LiteOS_Lab/iot_link/network/mqtt/paho_mqtt/port\paho_mqtt_port.c **** }
 2404              		.loc 2 765 0
 2405 002a 1846     		mov	r0, r3
 2406 002c 2037     		adds	r7, r7, #32
 2407              	.LCFI107:
 2408              		.cfi_def_cfa_offset 16
 2409 002e BD46     		mov	sp, r7
 2410              	.LCFI108:
 2411              		.cfi_def_cfa_register 13
 2412              		@ sp needed
 2413 0030 B0BD     		pop	{r4, r5, r7, pc}
 2414              	.L172:
 2415 0032 00BF     		.align	2
 2416              	.L171:
 2417 0034 64000000 		.word	.LC1
 2418              		.cfi_endproc
 2419              	.LFE41:
 2421              		.text
 2422              	.Letext0:
 2423              		.file 3 "C:/Users/dtjld/workspace/AIoT/src/LiteOS_Lab/iot_link/network/mqtt/paho_mqtt/paho/MQTTPac
 2424              		.file 4 "C:/Users/dtjld/workspace/AIoT/src/LiteOS_Lab/iot_link/network/mqtt/paho_mqtt/paho/MQTTPac
 2425              		.file 5 "c:\\ac6\\systemworkbench\\plugins\\fr.ac6.mcu.externaltools.arm-none.win32_1.16.0.2018071
 2426              		.file 6 "c:\\ac6\\systemworkbench\\plugins\\fr.ac6.mcu.externaltools.arm-none.win32_1.16.0.2018071
 2427              		.file 7 "c:\\ac6\\systemworkbench\\plugins\\fr.ac6.mcu.externaltools.arm-none.win32_1.16.0.2018071
 2428              		.file 8 "c:\\ac6\\systemworkbench\\plugins\\fr.ac6.mcu.externaltools.arm-none.win32_1.16.0.2018071
 2429              		.file 9 "c:\\ac6\\systemworkbench\\plugins\\fr.ac6.mcu.externaltools.arm-none.win32_1.16.0.2018071
 2430              		.file 10 "c:\\ac6\\systemworkbench\\plugins\\fr.ac6.mcu.externaltools.arm-none.win32_1.16.0.201807
 2431              		.file 11 "c:\\ac6\\systemworkbench\\plugins\\fr.ac6.mcu.externaltools.arm-none.win32_1.16.0.201807
 2432              		.file 12 "c:\\ac6\\systemworkbench\\plugins\\fr.ac6.mcu.externaltools.arm-none.win32_1.16.0.201807
 2433              		.file 13 "C:/Users/dtjld/workspace/AIoT/src/LiteOS_Lab/iot_link/os/osal/osal_types.h"
 2434              		.file 14 "C:/Users/dtjld/workspace/AIoT/src/LiteOS_Lab/iot_link/network/mqtt/mqtt_al/mqtt_al.h"
 2435              		.file 15 "C:/Users/dtjld/workspace/AIoT/src/LiteOS_Lab/iot_link/network/mqtt/paho_mqtt/port/paho_o
 2436              		.file 16 "c:\\ac6\\systemworkbench\\plugins\\fr.ac6.mcu.externaltools.arm-none.win32_1.16.0.201807
 2437              		.file 17 "C:/Users/dtjld/workspace/AIoT/src/LiteOS_Lab/iot_link/network/dtls/mbedtls/mbedtls-2.16.
 2438              		.file 18 "C:/Users/dtjld/workspace/AIoT/src/LiteOS_Lab/iot_link/network/dtls/mbedtls/mbedtls-2.16.
 2439              		.file 19 "C:/Users/dtjld/workspace/AIoT/src/LiteOS_Lab/iot_link/network/dtls/mbedtls/mbedtls-2.16.
 2440              		.file 20 "C:/Users/dtjld/workspace/AIoT/src/LiteOS_Lab/iot_link/network/dtls/mbedtls/mbedtls-2.16.
 2441              		.file 21 "C:/Users/dtjld/workspace/AIoT/src/LiteOS_Lab/iot_link/network/dtls/mbedtls/mbedtls-2.16.
 2442              		.file 22 "C:/Users/dtjld/workspace/AIoT/src/LiteOS_Lab/iot_link/network/dtls/mbedtls/mbedtls-2.16.
 2443              		.file 23 "C:/Users/dtjld/workspace/AIoT/src/LiteOS_Lab/iot_link/network/dtls/mbedtls/mbedtls-2.16.
 2444              		.file 24 "C:/Users/dtjld/workspace/AIoT/src/LiteOS_Lab/iot_link/network/dtls/mbedtls/mbedtls-2.16.
 2445              		.file 25 "C:/Users/dtjld/workspace/AIoT/src/LiteOS_Lab/iot_link/network/dtls/mbedtls/mbedtls-2.16.
 2446              		.file 26 "C:/Users/dtjld/workspace/AIoT/src/LiteOS_Lab/iot_link/network/dtls/mbedtls/mbedtls-2.16.
 2447              		.file 27 "C:/Users/dtjld/workspace/AIoT/src/LiteOS_Lab/iot_link/network/dtls/mbedtls/mbedtls-2.16.
 2448              		.file 28 "C:/Users/dtjld/workspace/AIoT/src/LiteOS_Lab/iot_link/network/dtls/mbedtls/mbedtls_port/
 2449              		.file 29 "C:/Users/dtjld/workspace/AIoT/src/LiteOS_Lab/iot_link/inc/sal_types.h"
ARM GAS  C:\Users\dtjld\AppData\Local\Temp\ccZrCbvi.s 			page 61

