ARM GAS  C:\Users\dtjld\AppData\Local\Temp\cctLUSig.s 			page 1


   1              		.cpu cortex-m4
   2              		.eabi_attribute 27, 1
   3              		.eabi_attribute 28, 1
   4              		.eabi_attribute 20, 1
   5              		.eabi_attribute 21, 1
   6              		.eabi_attribute 23, 3
   7              		.eabi_attribute 24, 1
   8              		.eabi_attribute 25, 1
   9              		.eabi_attribute 26, 1
  10              		.eabi_attribute 30, 6
  11              		.eabi_attribute 34, 1
  12              		.eabi_attribute 18, 4
  13              		.file	"registration.c"
  14              		.text
  15              	.Ltext0:
  16              		.cfi_sections	.debug_frame
  17              		.section	.text.prv_getRegistrationQueryLength,"ax",%progbits
  18              		.align	1
  19              		.syntax unified
  20              		.thumb
  21              		.thumb_func
  22              		.fpu fpv4-sp-d16
  24              	prv_getRegistrationQueryLength:
  25              	.LFB4:
  26              		.file 1 "C:/Users/dtjld/Desktop/AIoT_software/LiteOS_Lab_overseas/LiteOS_Lab/iot_link/network/lwm2
   1:C:/Users/dtjld/Desktop/AIoT_software/LiteOS_Lab_overseas/LiteOS_Lab/iot_link/network/lwm2m/wakaama_lwm2m/core\registration.c **** /*----------------------------------------------------------------------------
   2:C:/Users/dtjld/Desktop/AIoT_software/LiteOS_Lab_overseas/LiteOS_Lab/iot_link/network/lwm2m/wakaama_lwm2m/core\registration.c ****  * Copyright (c) <2016-2018>, <Huawei Technologies Co., Ltd>
   3:C:/Users/dtjld/Desktop/AIoT_software/LiteOS_Lab_overseas/LiteOS_Lab/iot_link/network/lwm2m/wakaama_lwm2m/core\registration.c ****  * All rights reserved.
   4:C:/Users/dtjld/Desktop/AIoT_software/LiteOS_Lab_overseas/LiteOS_Lab/iot_link/network/lwm2m/wakaama_lwm2m/core\registration.c ****  * Redistribution and use in source and binary forms, with or without modification,
   5:C:/Users/dtjld/Desktop/AIoT_software/LiteOS_Lab_overseas/LiteOS_Lab/iot_link/network/lwm2m/wakaama_lwm2m/core\registration.c ****  * are permitted provided that the following conditions are met:
   6:C:/Users/dtjld/Desktop/AIoT_software/LiteOS_Lab_overseas/LiteOS_Lab/iot_link/network/lwm2m/wakaama_lwm2m/core\registration.c ****  * 1. Redistributions of source code must retain the above copyright notice, this list of
   7:C:/Users/dtjld/Desktop/AIoT_software/LiteOS_Lab_overseas/LiteOS_Lab/iot_link/network/lwm2m/wakaama_lwm2m/core\registration.c ****  * conditions and the following disclaimer.
   8:C:/Users/dtjld/Desktop/AIoT_software/LiteOS_Lab_overseas/LiteOS_Lab/iot_link/network/lwm2m/wakaama_lwm2m/core\registration.c ****  * 2. Redistributions in binary form must reproduce the above copyright notice, this list
   9:C:/Users/dtjld/Desktop/AIoT_software/LiteOS_Lab_overseas/LiteOS_Lab/iot_link/network/lwm2m/wakaama_lwm2m/core\registration.c ****  * of conditions and the following disclaimer in the documentation and/or other materials
  10:C:/Users/dtjld/Desktop/AIoT_software/LiteOS_Lab_overseas/LiteOS_Lab/iot_link/network/lwm2m/wakaama_lwm2m/core\registration.c ****  * provided with the distribution.
  11:C:/Users/dtjld/Desktop/AIoT_software/LiteOS_Lab_overseas/LiteOS_Lab/iot_link/network/lwm2m/wakaama_lwm2m/core\registration.c ****  * 3. Neither the name of the copyright holder nor the names of its contributors may be used
  12:C:/Users/dtjld/Desktop/AIoT_software/LiteOS_Lab_overseas/LiteOS_Lab/iot_link/network/lwm2m/wakaama_lwm2m/core\registration.c ****  * to endorse or promote products derived from this software without specific prior written
  13:C:/Users/dtjld/Desktop/AIoT_software/LiteOS_Lab_overseas/LiteOS_Lab/iot_link/network/lwm2m/wakaama_lwm2m/core\registration.c ****  * permission.
  14:C:/Users/dtjld/Desktop/AIoT_software/LiteOS_Lab_overseas/LiteOS_Lab/iot_link/network/lwm2m/wakaama_lwm2m/core\registration.c ****  * THIS SOFTWARE IS PROVIDED BY THE COPYRIGHT HOLDERS AND CONTRIBUTORS
  15:C:/Users/dtjld/Desktop/AIoT_software/LiteOS_Lab_overseas/LiteOS_Lab/iot_link/network/lwm2m/wakaama_lwm2m/core\registration.c ****  * "AS IS" AND ANY EXPRESS OR IMPLIED WARRANTIES, INCLUDING, BUT NOT LIMITED TO,
  16:C:/Users/dtjld/Desktop/AIoT_software/LiteOS_Lab_overseas/LiteOS_Lab/iot_link/network/lwm2m/wakaama_lwm2m/core\registration.c ****  * THE IMPLIED WARRANTIES OF MERCHANTABILITY AND FITNESS FOR A PARTICULAR
  17:C:/Users/dtjld/Desktop/AIoT_software/LiteOS_Lab_overseas/LiteOS_Lab/iot_link/network/lwm2m/wakaama_lwm2m/core\registration.c ****  * PURPOSE ARE DISCLAIMED. IN NO EVENT SHALL THE COPYRIGHT HOLDER OR
  18:C:/Users/dtjld/Desktop/AIoT_software/LiteOS_Lab_overseas/LiteOS_Lab/iot_link/network/lwm2m/wakaama_lwm2m/core\registration.c ****  * CONTRIBUTORS BE LIABLE FOR ANY DIRECT, INDIRECT, INCIDENTAL, SPECIAL,
  19:C:/Users/dtjld/Desktop/AIoT_software/LiteOS_Lab_overseas/LiteOS_Lab/iot_link/network/lwm2m/wakaama_lwm2m/core\registration.c ****  * EXEMPLARY, OR CONSEQUENTIAL DAMAGES (INCLUDING, BUT NOT LIMITED TO,
  20:C:/Users/dtjld/Desktop/AIoT_software/LiteOS_Lab_overseas/LiteOS_Lab/iot_link/network/lwm2m/wakaama_lwm2m/core\registration.c ****  * PROCUREMENT OF SUBSTITUTE GOODS OR SERVICES; LOSS OF USE, DATA, OR PROFITS;
  21:C:/Users/dtjld/Desktop/AIoT_software/LiteOS_Lab_overseas/LiteOS_Lab/iot_link/network/lwm2m/wakaama_lwm2m/core\registration.c ****  * OR BUSINESS INTERRUPTION) HOWEVER CAUSED AND ON ANY THEORY OF LIABILITY,
  22:C:/Users/dtjld/Desktop/AIoT_software/LiteOS_Lab_overseas/LiteOS_Lab/iot_link/network/lwm2m/wakaama_lwm2m/core\registration.c ****  * WHETHER IN CONTRACT, STRICT LIABILITY, OR TORT (INCLUDING NEGLIGENCE OR
  23:C:/Users/dtjld/Desktop/AIoT_software/LiteOS_Lab_overseas/LiteOS_Lab/iot_link/network/lwm2m/wakaama_lwm2m/core\registration.c ****  * OTHERWISE) ARISING IN ANY WAY OUT OF THE USE OF THIS SOFTWARE, EVEN IF
  24:C:/Users/dtjld/Desktop/AIoT_software/LiteOS_Lab_overseas/LiteOS_Lab/iot_link/network/lwm2m/wakaama_lwm2m/core\registration.c ****  * ADVISED OF THE POSSIBILITY OF SUCH DAMAGE.
  25:C:/Users/dtjld/Desktop/AIoT_software/LiteOS_Lab_overseas/LiteOS_Lab/iot_link/network/lwm2m/wakaama_lwm2m/core\registration.c ****  *---------------------------------------------------------------------------*/
  26:C:/Users/dtjld/Desktop/AIoT_software/LiteOS_Lab_overseas/LiteOS_Lab/iot_link/network/lwm2m/wakaama_lwm2m/core\registration.c **** /*----------------------------------------------------------------------------
  27:C:/Users/dtjld/Desktop/AIoT_software/LiteOS_Lab_overseas/LiteOS_Lab/iot_link/network/lwm2m/wakaama_lwm2m/core\registration.c ****  * Notice of Export Control Law
  28:C:/Users/dtjld/Desktop/AIoT_software/LiteOS_Lab_overseas/LiteOS_Lab/iot_link/network/lwm2m/wakaama_lwm2m/core\registration.c ****  * ===============================================
  29:C:/Users/dtjld/Desktop/AIoT_software/LiteOS_Lab_overseas/LiteOS_Lab/iot_link/network/lwm2m/wakaama_lwm2m/core\registration.c ****  * Huawei LiteOS may be subject to applicable export control laws and regulations, which might
  30:C:/Users/dtjld/Desktop/AIoT_software/LiteOS_Lab_overseas/LiteOS_Lab/iot_link/network/lwm2m/wakaama_lwm2m/core\registration.c ****  * include those applicable to Huawei LiteOS of U.S. and the country in which you are located.
  31:C:/Users/dtjld/Desktop/AIoT_software/LiteOS_Lab_overseas/LiteOS_Lab/iot_link/network/lwm2m/wakaama_lwm2m/core\registration.c ****  * Import, export and usage of Huawei LiteOS in any manner by you shall be in compliance with such
  32:C:/Users/dtjld/Desktop/AIoT_software/LiteOS_Lab_overseas/LiteOS_Lab/iot_link/network/lwm2m/wakaama_lwm2m/core\registration.c ****  * applicable export control laws and regulations.
ARM GAS  C:\Users\dtjld\AppData\Local\Temp\cctLUSig.s 			page 2


  33:C:/Users/dtjld/Desktop/AIoT_software/LiteOS_Lab_overseas/LiteOS_Lab/iot_link/network/lwm2m/wakaama_lwm2m/core\registration.c ****  *---------------------------------------------------------------------------*/
  34:C:/Users/dtjld/Desktop/AIoT_software/LiteOS_Lab_overseas/LiteOS_Lab/iot_link/network/lwm2m/wakaama_lwm2m/core\registration.c **** 
  35:C:/Users/dtjld/Desktop/AIoT_software/LiteOS_Lab_overseas/LiteOS_Lab/iot_link/network/lwm2m/wakaama_lwm2m/core\registration.c **** /*******************************************************************************
  36:C:/Users/dtjld/Desktop/AIoT_software/LiteOS_Lab_overseas/LiteOS_Lab/iot_link/network/lwm2m/wakaama_lwm2m/core\registration.c ****  *
  37:C:/Users/dtjld/Desktop/AIoT_software/LiteOS_Lab_overseas/LiteOS_Lab/iot_link/network/lwm2m/wakaama_lwm2m/core\registration.c ****  * Copyright (c) 2013, 2014 Intel Corporation and others.
  38:C:/Users/dtjld/Desktop/AIoT_software/LiteOS_Lab_overseas/LiteOS_Lab/iot_link/network/lwm2m/wakaama_lwm2m/core\registration.c ****  * All rights reserved. This program and the accompanying materials
  39:C:/Users/dtjld/Desktop/AIoT_software/LiteOS_Lab_overseas/LiteOS_Lab/iot_link/network/lwm2m/wakaama_lwm2m/core\registration.c ****  * are made available under the terms of the Eclipse Public License v1.0
  40:C:/Users/dtjld/Desktop/AIoT_software/LiteOS_Lab_overseas/LiteOS_Lab/iot_link/network/lwm2m/wakaama_lwm2m/core\registration.c ****  * and Eclipse Distribution License v1.0 which accompany this distribution.
  41:C:/Users/dtjld/Desktop/AIoT_software/LiteOS_Lab_overseas/LiteOS_Lab/iot_link/network/lwm2m/wakaama_lwm2m/core\registration.c ****  *
  42:C:/Users/dtjld/Desktop/AIoT_software/LiteOS_Lab_overseas/LiteOS_Lab/iot_link/network/lwm2m/wakaama_lwm2m/core\registration.c ****  * The Eclipse Public License is available at
  43:C:/Users/dtjld/Desktop/AIoT_software/LiteOS_Lab_overseas/LiteOS_Lab/iot_link/network/lwm2m/wakaama_lwm2m/core\registration.c ****  *    http://www.eclipse.org/legal/epl-v10.html
  44:C:/Users/dtjld/Desktop/AIoT_software/LiteOS_Lab_overseas/LiteOS_Lab/iot_link/network/lwm2m/wakaama_lwm2m/core\registration.c ****  * The Eclipse Distribution License is available at
  45:C:/Users/dtjld/Desktop/AIoT_software/LiteOS_Lab_overseas/LiteOS_Lab/iot_link/network/lwm2m/wakaama_lwm2m/core\registration.c ****  *    http://www.eclipse.org/org/documents/edl-v10.php.
  46:C:/Users/dtjld/Desktop/AIoT_software/LiteOS_Lab_overseas/LiteOS_Lab/iot_link/network/lwm2m/wakaama_lwm2m/core\registration.c ****  *
  47:C:/Users/dtjld/Desktop/AIoT_software/LiteOS_Lab_overseas/LiteOS_Lab/iot_link/network/lwm2m/wakaama_lwm2m/core\registration.c ****  * Contributors:
  48:C:/Users/dtjld/Desktop/AIoT_software/LiteOS_Lab_overseas/LiteOS_Lab/iot_link/network/lwm2m/wakaama_lwm2m/core\registration.c ****  *    David Navarro, Intel Corporation - initial API and implementation
  49:C:/Users/dtjld/Desktop/AIoT_software/LiteOS_Lab_overseas/LiteOS_Lab/iot_link/network/lwm2m/wakaama_lwm2m/core\registration.c ****  *    domedambrosio - Please refer to git log
  50:C:/Users/dtjld/Desktop/AIoT_software/LiteOS_Lab_overseas/LiteOS_Lab/iot_link/network/lwm2m/wakaama_lwm2m/core\registration.c ****  *    Fabien Fleutot - Please refer to git log
  51:C:/Users/dtjld/Desktop/AIoT_software/LiteOS_Lab_overseas/LiteOS_Lab/iot_link/network/lwm2m/wakaama_lwm2m/core\registration.c ****  *    Simon Bernard - Please refer to git log
  52:C:/Users/dtjld/Desktop/AIoT_software/LiteOS_Lab_overseas/LiteOS_Lab/iot_link/network/lwm2m/wakaama_lwm2m/core\registration.c ****  *    Toby Jaffey - Please refer to git log
  53:C:/Users/dtjld/Desktop/AIoT_software/LiteOS_Lab_overseas/LiteOS_Lab/iot_link/network/lwm2m/wakaama_lwm2m/core\registration.c ****  *    Manuel Sangoi - Please refer to git log
  54:C:/Users/dtjld/Desktop/AIoT_software/LiteOS_Lab_overseas/LiteOS_Lab/iot_link/network/lwm2m/wakaama_lwm2m/core\registration.c ****  *    Julien Vermillard - Please refer to git log
  55:C:/Users/dtjld/Desktop/AIoT_software/LiteOS_Lab_overseas/LiteOS_Lab/iot_link/network/lwm2m/wakaama_lwm2m/core\registration.c ****  *    Bosch Software Innovations GmbH - Please refer to git log
  56:C:/Users/dtjld/Desktop/AIoT_software/LiteOS_Lab_overseas/LiteOS_Lab/iot_link/network/lwm2m/wakaama_lwm2m/core\registration.c ****  *    Pascal Rieux - Please refer to git log
  57:C:/Users/dtjld/Desktop/AIoT_software/LiteOS_Lab_overseas/LiteOS_Lab/iot_link/network/lwm2m/wakaama_lwm2m/core\registration.c ****  *    Scott Bertin - Please refer to git log
  58:C:/Users/dtjld/Desktop/AIoT_software/LiteOS_Lab_overseas/LiteOS_Lab/iot_link/network/lwm2m/wakaama_lwm2m/core\registration.c ****  *
  59:C:/Users/dtjld/Desktop/AIoT_software/LiteOS_Lab_overseas/LiteOS_Lab/iot_link/network/lwm2m/wakaama_lwm2m/core\registration.c ****  *******************************************************************************/
  60:C:/Users/dtjld/Desktop/AIoT_software/LiteOS_Lab_overseas/LiteOS_Lab/iot_link/network/lwm2m/wakaama_lwm2m/core\registration.c **** 
  61:C:/Users/dtjld/Desktop/AIoT_software/LiteOS_Lab_overseas/LiteOS_Lab/iot_link/network/lwm2m/wakaama_lwm2m/core\registration.c **** /*
  62:C:/Users/dtjld/Desktop/AIoT_software/LiteOS_Lab_overseas/LiteOS_Lab/iot_link/network/lwm2m/wakaama_lwm2m/core\registration.c ****  Copyright (c) 2013, 2014 Intel Corporation
  63:C:/Users/dtjld/Desktop/AIoT_software/LiteOS_Lab_overseas/LiteOS_Lab/iot_link/network/lwm2m/wakaama_lwm2m/core\registration.c **** 
  64:C:/Users/dtjld/Desktop/AIoT_software/LiteOS_Lab_overseas/LiteOS_Lab/iot_link/network/lwm2m/wakaama_lwm2m/core\registration.c ****  Redistribution and use in source and binary forms, with or without modification,
  65:C:/Users/dtjld/Desktop/AIoT_software/LiteOS_Lab_overseas/LiteOS_Lab/iot_link/network/lwm2m/wakaama_lwm2m/core\registration.c ****  are permitted provided that the following conditions are met:
  66:C:/Users/dtjld/Desktop/AIoT_software/LiteOS_Lab_overseas/LiteOS_Lab/iot_link/network/lwm2m/wakaama_lwm2m/core\registration.c **** 
  67:C:/Users/dtjld/Desktop/AIoT_software/LiteOS_Lab_overseas/LiteOS_Lab/iot_link/network/lwm2m/wakaama_lwm2m/core\registration.c ****      * Redistributions of source code must retain the above copyright notice,
  68:C:/Users/dtjld/Desktop/AIoT_software/LiteOS_Lab_overseas/LiteOS_Lab/iot_link/network/lwm2m/wakaama_lwm2m/core\registration.c ****        this list of conditions and the following disclaimer.
  69:C:/Users/dtjld/Desktop/AIoT_software/LiteOS_Lab_overseas/LiteOS_Lab/iot_link/network/lwm2m/wakaama_lwm2m/core\registration.c ****      * Redistributions in binary form must reproduce the above copyright notice,
  70:C:/Users/dtjld/Desktop/AIoT_software/LiteOS_Lab_overseas/LiteOS_Lab/iot_link/network/lwm2m/wakaama_lwm2m/core\registration.c ****        this list of conditions and the following disclaimer in the documentation
  71:C:/Users/dtjld/Desktop/AIoT_software/LiteOS_Lab_overseas/LiteOS_Lab/iot_link/network/lwm2m/wakaama_lwm2m/core\registration.c ****        and/or other materials provided with the distribution.
  72:C:/Users/dtjld/Desktop/AIoT_software/LiteOS_Lab_overseas/LiteOS_Lab/iot_link/network/lwm2m/wakaama_lwm2m/core\registration.c ****      * Neither the name of Intel Corporation nor the names of its contributors
  73:C:/Users/dtjld/Desktop/AIoT_software/LiteOS_Lab_overseas/LiteOS_Lab/iot_link/network/lwm2m/wakaama_lwm2m/core\registration.c ****        may be used to endorse or promote products derived from this software
  74:C:/Users/dtjld/Desktop/AIoT_software/LiteOS_Lab_overseas/LiteOS_Lab/iot_link/network/lwm2m/wakaama_lwm2m/core\registration.c ****        without specific prior written permission.
  75:C:/Users/dtjld/Desktop/AIoT_software/LiteOS_Lab_overseas/LiteOS_Lab/iot_link/network/lwm2m/wakaama_lwm2m/core\registration.c **** 
  76:C:/Users/dtjld/Desktop/AIoT_software/LiteOS_Lab_overseas/LiteOS_Lab/iot_link/network/lwm2m/wakaama_lwm2m/core\registration.c ****  THIS SOFTWARE IS PROVIDED BY THE COPYRIGHT HOLDERS AND CONTRIBUTORS "AS IS" AND
  77:C:/Users/dtjld/Desktop/AIoT_software/LiteOS_Lab_overseas/LiteOS_Lab/iot_link/network/lwm2m/wakaama_lwm2m/core\registration.c ****  ANY EXPRESS OR IMPLIED WARRANTIES, INCLUDING, BUT NOT LIMITED TO, THE IMPLIED
  78:C:/Users/dtjld/Desktop/AIoT_software/LiteOS_Lab_overseas/LiteOS_Lab/iot_link/network/lwm2m/wakaama_lwm2m/core\registration.c ****  WARRANTIES OF MERCHANTABILITY AND FITNESS FOR A PARTICULAR PURPOSE ARE DISCLAIMED.
  79:C:/Users/dtjld/Desktop/AIoT_software/LiteOS_Lab_overseas/LiteOS_Lab/iot_link/network/lwm2m/wakaama_lwm2m/core\registration.c ****  IN NO EVENT SHALL THE COPYRIGHT OWNER OR CONTRIBUTORS BE LIABLE FOR ANY DIRECT,
  80:C:/Users/dtjld/Desktop/AIoT_software/LiteOS_Lab_overseas/LiteOS_Lab/iot_link/network/lwm2m/wakaama_lwm2m/core\registration.c ****  INDIRECT, INCIDENTAL, SPECIAL, EXEMPLARY, OR CONSEQUENTIAL DAMAGES (INCLUDING,
  81:C:/Users/dtjld/Desktop/AIoT_software/LiteOS_Lab_overseas/LiteOS_Lab/iot_link/network/lwm2m/wakaama_lwm2m/core\registration.c ****  BUT NOT LIMITED TO, PROCUREMENT OF SUBSTITUTE GOODS OR SERVICES; LOSS OF USE,
  82:C:/Users/dtjld/Desktop/AIoT_software/LiteOS_Lab_overseas/LiteOS_Lab/iot_link/network/lwm2m/wakaama_lwm2m/core\registration.c ****  DATA, OR PROFITS; OR BUSINESS INTERRUPTION) HOWEVER CAUSED AND ON ANY THEORY OF
  83:C:/Users/dtjld/Desktop/AIoT_software/LiteOS_Lab_overseas/LiteOS_Lab/iot_link/network/lwm2m/wakaama_lwm2m/core\registration.c ****  LIABILITY, WHETHER IN CONTRACT, STRICT LIABILITY, OR TORT (INCLUDING NEGLIGENCE OR
  84:C:/Users/dtjld/Desktop/AIoT_software/LiteOS_Lab_overseas/LiteOS_Lab/iot_link/network/lwm2m/wakaama_lwm2m/core\registration.c ****  OTHERWISE) ARISING IN ANY WAY OUT OF THE USE OF THIS SOFTWARE, EVEN IF ADVISED OF
  85:C:/Users/dtjld/Desktop/AIoT_software/LiteOS_Lab_overseas/LiteOS_Lab/iot_link/network/lwm2m/wakaama_lwm2m/core\registration.c ****  THE POSSIBILITY OF SUCH DAMAGE.
  86:C:/Users/dtjld/Desktop/AIoT_software/LiteOS_Lab_overseas/LiteOS_Lab/iot_link/network/lwm2m/wakaama_lwm2m/core\registration.c **** 
  87:C:/Users/dtjld/Desktop/AIoT_software/LiteOS_Lab_overseas/LiteOS_Lab/iot_link/network/lwm2m/wakaama_lwm2m/core\registration.c ****  David Navarro <david.navarro@intel.com>
  88:C:/Users/dtjld/Desktop/AIoT_software/LiteOS_Lab_overseas/LiteOS_Lab/iot_link/network/lwm2m/wakaama_lwm2m/core\registration.c **** 
  89:C:/Users/dtjld/Desktop/AIoT_software/LiteOS_Lab_overseas/LiteOS_Lab/iot_link/network/lwm2m/wakaama_lwm2m/core\registration.c **** */
ARM GAS  C:\Users\dtjld\AppData\Local\Temp\cctLUSig.s 			page 3


  90:C:/Users/dtjld/Desktop/AIoT_software/LiteOS_Lab_overseas/LiteOS_Lab/iot_link/network/lwm2m/wakaama_lwm2m/core\registration.c **** 
  91:C:/Users/dtjld/Desktop/AIoT_software/LiteOS_Lab_overseas/LiteOS_Lab/iot_link/network/lwm2m/wakaama_lwm2m/core\registration.c **** #include "internals.h"
  92:C:/Users/dtjld/Desktop/AIoT_software/LiteOS_Lab_overseas/LiteOS_Lab/iot_link/network/lwm2m/wakaama_lwm2m/core\registration.c **** 
  93:C:/Users/dtjld/Desktop/AIoT_software/LiteOS_Lab_overseas/LiteOS_Lab/iot_link/network/lwm2m/wakaama_lwm2m/core\registration.c **** #include <stdlib.h>
  94:C:/Users/dtjld/Desktop/AIoT_software/LiteOS_Lab_overseas/LiteOS_Lab/iot_link/network/lwm2m/wakaama_lwm2m/core\registration.c **** #include <string.h>
  95:C:/Users/dtjld/Desktop/AIoT_software/LiteOS_Lab_overseas/LiteOS_Lab/iot_link/network/lwm2m/wakaama_lwm2m/core\registration.c **** #include <stdio.h>
  96:C:/Users/dtjld/Desktop/AIoT_software/LiteOS_Lab_overseas/LiteOS_Lab/iot_link/network/lwm2m/wakaama_lwm2m/core\registration.c **** 
  97:C:/Users/dtjld/Desktop/AIoT_software/LiteOS_Lab_overseas/LiteOS_Lab/iot_link/network/lwm2m/wakaama_lwm2m/core\registration.c **** #define MAX_LOCATION_LENGTH 10      // strlen("/rd/65534") + 1
  98:C:/Users/dtjld/Desktop/AIoT_software/LiteOS_Lab_overseas/LiteOS_Lab/iot_link/network/lwm2m/wakaama_lwm2m/core\registration.c **** 
  99:C:/Users/dtjld/Desktop/AIoT_software/LiteOS_Lab_overseas/LiteOS_Lab/iot_link/network/lwm2m/wakaama_lwm2m/core\registration.c **** #ifdef LWM2M_CLIENT_MODE
 100:C:/Users/dtjld/Desktop/AIoT_software/LiteOS_Lab_overseas/LiteOS_Lab/iot_link/network/lwm2m/wakaama_lwm2m/core\registration.c **** 
 101:C:/Users/dtjld/Desktop/AIoT_software/LiteOS_Lab_overseas/LiteOS_Lab/iot_link/network/lwm2m/wakaama_lwm2m/core\registration.c **** static int prv_getRegistrationQueryLength(lwm2m_context_t *contextP,
 102:C:/Users/dtjld/Desktop/AIoT_software/LiteOS_Lab_overseas/LiteOS_Lab/iot_link/network/lwm2m/wakaama_lwm2m/core\registration.c ****         lwm2m_server_t *server)
 103:C:/Users/dtjld/Desktop/AIoT_software/LiteOS_Lab_overseas/LiteOS_Lab/iot_link/network/lwm2m/wakaama_lwm2m/core\registration.c **** {
  27              		.loc 1 103 0
  28              		.cfi_startproc
  29              		@ args = 0, pretend = 0, frame = 40
  30              		@ frame_needed = 1, uses_anonymous_args = 0
  31 0000 90B5     		push	{r4, r7, lr}
  32              	.LCFI0:
  33              		.cfi_def_cfa_offset 12
  34              		.cfi_offset 4, -12
  35              		.cfi_offset 7, -8
  36              		.cfi_offset 14, -4
  37 0002 8BB0     		sub	sp, sp, #44
  38              	.LCFI1:
  39              		.cfi_def_cfa_offset 56
  40 0004 00AF     		add	r7, sp, #0
  41              	.LCFI2:
  42              		.cfi_def_cfa_register 7
  43 0006 7860     		str	r0, [r7, #4]
  44 0008 3960     		str	r1, [r7]
 104:C:/Users/dtjld/Desktop/AIoT_software/LiteOS_Lab_overseas/LiteOS_Lab/iot_link/network/lwm2m/wakaama_lwm2m/core\registration.c ****     int index;
 105:C:/Users/dtjld/Desktop/AIoT_software/LiteOS_Lab_overseas/LiteOS_Lab/iot_link/network/lwm2m/wakaama_lwm2m/core\registration.c ****     int res;
 106:C:/Users/dtjld/Desktop/AIoT_software/LiteOS_Lab_overseas/LiteOS_Lab/iot_link/network/lwm2m/wakaama_lwm2m/core\registration.c ****     char buffer[21];
 107:C:/Users/dtjld/Desktop/AIoT_software/LiteOS_Lab_overseas/LiteOS_Lab/iot_link/network/lwm2m/wakaama_lwm2m/core\registration.c **** 
 108:C:/Users/dtjld/Desktop/AIoT_software/LiteOS_Lab_overseas/LiteOS_Lab/iot_link/network/lwm2m/wakaama_lwm2m/core\registration.c ****     index = strlen(QUERY_STARTER QUERY_VERSION_FULL QUERY_DELIMITER QUERY_NAME);//?1.0&ep=
  45              		.loc 1 108 0
  46 000a 0E23     		movs	r3, #14
  47 000c 7B62     		str	r3, [r7, #36]
 109:C:/Users/dtjld/Desktop/AIoT_software/LiteOS_Lab_overseas/LiteOS_Lab/iot_link/network/lwm2m/wakaama_lwm2m/core\registration.c ****     index += strlen(contextP->endpointName);
  48              		.loc 1 109 0
  49 000e 7B68     		ldr	r3, [r7, #4]
  50 0010 5B68     		ldr	r3, [r3, #4]
  51 0012 1846     		mov	r0, r3
  52 0014 FFF7FEFF 		bl	strlen
  53 0018 0246     		mov	r2, r0
  54 001a 7B6A     		ldr	r3, [r7, #36]
  55 001c 1344     		add	r3, r3, r2
  56 001e 7B62     		str	r3, [r7, #36]
 110:C:/Users/dtjld/Desktop/AIoT_software/LiteOS_Lab_overseas/LiteOS_Lab/iot_link/network/lwm2m/wakaama_lwm2m/core\registration.c **** 
 111:C:/Users/dtjld/Desktop/AIoT_software/LiteOS_Lab_overseas/LiteOS_Lab/iot_link/network/lwm2m/wakaama_lwm2m/core\registration.c ****     if (NULL != contextP->msisdn)
  57              		.loc 1 111 0
  58 0020 7B68     		ldr	r3, [r7, #4]
  59 0022 9B68     		ldr	r3, [r3, #8]
  60 0024 002B     		cmp	r3, #0
  61 0026 0BD0     		beq	.L2
ARM GAS  C:\Users\dtjld\AppData\Local\Temp\cctLUSig.s 			page 4


 112:C:/Users/dtjld/Desktop/AIoT_software/LiteOS_Lab_overseas/LiteOS_Lab/iot_link/network/lwm2m/wakaama_lwm2m/core\registration.c ****     {
 113:C:/Users/dtjld/Desktop/AIoT_software/LiteOS_Lab_overseas/LiteOS_Lab/iot_link/network/lwm2m/wakaama_lwm2m/core\registration.c ****         index += strlen(QUERY_DELIMITER QUERY_SMS);
  62              		.loc 1 113 0
  63 0028 7B6A     		ldr	r3, [r7, #36]
  64 002a 0533     		adds	r3, r3, #5
  65 002c 7B62     		str	r3, [r7, #36]
 114:C:/Users/dtjld/Desktop/AIoT_software/LiteOS_Lab_overseas/LiteOS_Lab/iot_link/network/lwm2m/wakaama_lwm2m/core\registration.c ****         index += strlen(contextP->msisdn);
  66              		.loc 1 114 0
  67 002e 7B68     		ldr	r3, [r7, #4]
  68 0030 9B68     		ldr	r3, [r3, #8]
  69 0032 1846     		mov	r0, r3
  70 0034 FFF7FEFF 		bl	strlen
  71 0038 0246     		mov	r2, r0
  72 003a 7B6A     		ldr	r3, [r7, #36]
  73 003c 1344     		add	r3, r3, r2
  74 003e 7B62     		str	r3, [r7, #36]
  75              	.L2:
 115:C:/Users/dtjld/Desktop/AIoT_software/LiteOS_Lab_overseas/LiteOS_Lab/iot_link/network/lwm2m/wakaama_lwm2m/core\registration.c ****     }
 116:C:/Users/dtjld/Desktop/AIoT_software/LiteOS_Lab_overseas/LiteOS_Lab/iot_link/network/lwm2m/wakaama_lwm2m/core\registration.c **** 
 117:C:/Users/dtjld/Desktop/AIoT_software/LiteOS_Lab_overseas/LiteOS_Lab/iot_link/network/lwm2m/wakaama_lwm2m/core\registration.c ****     switch (server->binding)
  76              		.loc 1 117 0
  77 0040 3B68     		ldr	r3, [r7]
  78 0042 1B7E     		ldrb	r3, [r3, #24]	@ zero_extendqisi2
  79 0044 013B     		subs	r3, r3, #1
  80 0046 052B     		cmp	r3, #5
  81 0048 26D8     		bhi	.L3
  82 004a 01A2     		adr	r2, .L5
  83 004c 52F823F0 		ldr	pc, [r2, r3, lsl #2]
  84              		.p2align 2
  85              	.L5:
  86 0050 69000000 		.word	.L4+1
  87 0054 71000000 		.word	.L6+1
  88 0058 79000000 		.word	.L7+1
  89 005c 81000000 		.word	.L8+1
  90 0060 89000000 		.word	.L9+1
  91 0064 91000000 		.word	.L10+1
  92              		.p2align 1
  93              	.L4:
 118:C:/Users/dtjld/Desktop/AIoT_software/LiteOS_Lab_overseas/LiteOS_Lab/iot_link/network/lwm2m/wakaama_lwm2m/core\registration.c ****     {
 119:C:/Users/dtjld/Desktop/AIoT_software/LiteOS_Lab_overseas/LiteOS_Lab/iot_link/network/lwm2m/wakaama_lwm2m/core\registration.c ****     case BINDING_U:
 120:C:/Users/dtjld/Desktop/AIoT_software/LiteOS_Lab_overseas/LiteOS_Lab/iot_link/network/lwm2m/wakaama_lwm2m/core\registration.c ****         index += strlen("&b=U");
  94              		.loc 1 120 0
  95 0068 7B6A     		ldr	r3, [r7, #36]
  96 006a 0433     		adds	r3, r3, #4
  97 006c 7B62     		str	r3, [r7, #36]
 121:C:/Users/dtjld/Desktop/AIoT_software/LiteOS_Lab_overseas/LiteOS_Lab/iot_link/network/lwm2m/wakaama_lwm2m/core\registration.c ****         break;
  98              		.loc 1 121 0
  99 006e 15E0     		b	.L11
 100              	.L6:
 122:C:/Users/dtjld/Desktop/AIoT_software/LiteOS_Lab_overseas/LiteOS_Lab/iot_link/network/lwm2m/wakaama_lwm2m/core\registration.c ****     case BINDING_UQ:
 123:C:/Users/dtjld/Desktop/AIoT_software/LiteOS_Lab_overseas/LiteOS_Lab/iot_link/network/lwm2m/wakaama_lwm2m/core\registration.c ****         index += strlen("&b=UQ");
 101              		.loc 1 123 0
 102 0070 7B6A     		ldr	r3, [r7, #36]
 103 0072 0533     		adds	r3, r3, #5
 104 0074 7B62     		str	r3, [r7, #36]
 124:C:/Users/dtjld/Desktop/AIoT_software/LiteOS_Lab_overseas/LiteOS_Lab/iot_link/network/lwm2m/wakaama_lwm2m/core\registration.c ****         break;
 105              		.loc 1 124 0
ARM GAS  C:\Users\dtjld\AppData\Local\Temp\cctLUSig.s 			page 5


 106 0076 11E0     		b	.L11
 107              	.L7:
 125:C:/Users/dtjld/Desktop/AIoT_software/LiteOS_Lab_overseas/LiteOS_Lab/iot_link/network/lwm2m/wakaama_lwm2m/core\registration.c ****     case BINDING_S:
 126:C:/Users/dtjld/Desktop/AIoT_software/LiteOS_Lab_overseas/LiteOS_Lab/iot_link/network/lwm2m/wakaama_lwm2m/core\registration.c ****         index += strlen("&b=S");
 108              		.loc 1 126 0
 109 0078 7B6A     		ldr	r3, [r7, #36]
 110 007a 0433     		adds	r3, r3, #4
 111 007c 7B62     		str	r3, [r7, #36]
 127:C:/Users/dtjld/Desktop/AIoT_software/LiteOS_Lab_overseas/LiteOS_Lab/iot_link/network/lwm2m/wakaama_lwm2m/core\registration.c ****         break;
 112              		.loc 1 127 0
 113 007e 0DE0     		b	.L11
 114              	.L8:
 128:C:/Users/dtjld/Desktop/AIoT_software/LiteOS_Lab_overseas/LiteOS_Lab/iot_link/network/lwm2m/wakaama_lwm2m/core\registration.c ****     case BINDING_SQ:
 129:C:/Users/dtjld/Desktop/AIoT_software/LiteOS_Lab_overseas/LiteOS_Lab/iot_link/network/lwm2m/wakaama_lwm2m/core\registration.c ****         index += strlen("&b=SQ");
 115              		.loc 1 129 0
 116 0080 7B6A     		ldr	r3, [r7, #36]
 117 0082 0533     		adds	r3, r3, #5
 118 0084 7B62     		str	r3, [r7, #36]
 130:C:/Users/dtjld/Desktop/AIoT_software/LiteOS_Lab_overseas/LiteOS_Lab/iot_link/network/lwm2m/wakaama_lwm2m/core\registration.c ****         break;
 119              		.loc 1 130 0
 120 0086 09E0     		b	.L11
 121              	.L9:
 131:C:/Users/dtjld/Desktop/AIoT_software/LiteOS_Lab_overseas/LiteOS_Lab/iot_link/network/lwm2m/wakaama_lwm2m/core\registration.c ****     case BINDING_US:
 132:C:/Users/dtjld/Desktop/AIoT_software/LiteOS_Lab_overseas/LiteOS_Lab/iot_link/network/lwm2m/wakaama_lwm2m/core\registration.c ****         index += strlen("&b=US");
 122              		.loc 1 132 0
 123 0088 7B6A     		ldr	r3, [r7, #36]
 124 008a 0533     		adds	r3, r3, #5
 125 008c 7B62     		str	r3, [r7, #36]
 133:C:/Users/dtjld/Desktop/AIoT_software/LiteOS_Lab_overseas/LiteOS_Lab/iot_link/network/lwm2m/wakaama_lwm2m/core\registration.c ****         break;
 126              		.loc 1 133 0
 127 008e 05E0     		b	.L11
 128              	.L10:
 134:C:/Users/dtjld/Desktop/AIoT_software/LiteOS_Lab_overseas/LiteOS_Lab/iot_link/network/lwm2m/wakaama_lwm2m/core\registration.c ****     case BINDING_UQS:
 135:C:/Users/dtjld/Desktop/AIoT_software/LiteOS_Lab_overseas/LiteOS_Lab/iot_link/network/lwm2m/wakaama_lwm2m/core\registration.c ****         index += strlen("&b=UQS");
 129              		.loc 1 135 0
 130 0090 7B6A     		ldr	r3, [r7, #36]
 131 0092 0633     		adds	r3, r3, #6
 132 0094 7B62     		str	r3, [r7, #36]
 136:C:/Users/dtjld/Desktop/AIoT_software/LiteOS_Lab_overseas/LiteOS_Lab/iot_link/network/lwm2m/wakaama_lwm2m/core\registration.c ****         break;
 133              		.loc 1 136 0
 134 0096 01E0     		b	.L11
 135              	.L3:
 137:C:/Users/dtjld/Desktop/AIoT_software/LiteOS_Lab_overseas/LiteOS_Lab/iot_link/network/lwm2m/wakaama_lwm2m/core\registration.c ****     default:
 138:C:/Users/dtjld/Desktop/AIoT_software/LiteOS_Lab_overseas/LiteOS_Lab/iot_link/network/lwm2m/wakaama_lwm2m/core\registration.c ****         return 0;
 136              		.loc 1 138 0
 137 0098 0023     		movs	r3, #0
 138 009a 1CE0     		b	.L15
 139              	.L11:
 139:C:/Users/dtjld/Desktop/AIoT_software/LiteOS_Lab_overseas/LiteOS_Lab/iot_link/network/lwm2m/wakaama_lwm2m/core\registration.c ****     }
 140:C:/Users/dtjld/Desktop/AIoT_software/LiteOS_Lab_overseas/LiteOS_Lab/iot_link/network/lwm2m/wakaama_lwm2m/core\registration.c **** 
 141:C:/Users/dtjld/Desktop/AIoT_software/LiteOS_Lab_overseas/LiteOS_Lab/iot_link/network/lwm2m/wakaama_lwm2m/core\registration.c ****     if (0 != server->lifetime)
 140              		.loc 1 141 0
 141 009c 3B68     		ldr	r3, [r7]
 142 009e D3E90234 		ldrd	r3, [r3, #8]
 143 00a2 2343     		orrs	r3, r3, r4
 144 00a4 15D0     		beq	.L13
 142:C:/Users/dtjld/Desktop/AIoT_software/LiteOS_Lab_overseas/LiteOS_Lab/iot_link/network/lwm2m/wakaama_lwm2m/core\registration.c ****     {
ARM GAS  C:\Users\dtjld\AppData\Local\Temp\cctLUSig.s 			page 6


 143:C:/Users/dtjld/Desktop/AIoT_software/LiteOS_Lab_overseas/LiteOS_Lab/iot_link/network/lwm2m/wakaama_lwm2m/core\registration.c ****         index += strlen(QUERY_DELIMITER QUERY_LIFETIME);//&lt=
 145              		.loc 1 143 0
 146 00a6 7B6A     		ldr	r3, [r7, #36]
 147 00a8 0433     		adds	r3, r3, #4
 148 00aa 7B62     		str	r3, [r7, #36]
 144:C:/Users/dtjld/Desktop/AIoT_software/LiteOS_Lab_overseas/LiteOS_Lab/iot_link/network/lwm2m/wakaama_lwm2m/core\registration.c ****         res = utils_intToText(server->lifetime, (uint8_t *)buffer, sizeof(buffer));
 149              		.loc 1 144 0
 150 00ac 3B68     		ldr	r3, [r7]
 151 00ae D3E90201 		ldrd	r0, [r3, #8]
 152 00b2 07F10802 		add	r2, r7, #8
 153 00b6 1523     		movs	r3, #21
 154 00b8 FFF7FEFF 		bl	utils_intToText
 155 00bc 0346     		mov	r3, r0
 156 00be 3B62     		str	r3, [r7, #32]
 145:C:/Users/dtjld/Desktop/AIoT_software/LiteOS_Lab_overseas/LiteOS_Lab/iot_link/network/lwm2m/wakaama_lwm2m/core\registration.c ****         if (res == 0) return 0;
 157              		.loc 1 145 0
 158 00c0 3B6A     		ldr	r3, [r7, #32]
 159 00c2 002B     		cmp	r3, #0
 160 00c4 01D1     		bne	.L14
 161              		.loc 1 145 0 is_stmt 0 discriminator 1
 162 00c6 0023     		movs	r3, #0
 163 00c8 05E0     		b	.L15
 164              	.L14:
 146:C:/Users/dtjld/Desktop/AIoT_software/LiteOS_Lab_overseas/LiteOS_Lab/iot_link/network/lwm2m/wakaama_lwm2m/core\registration.c ****         index += res;
 165              		.loc 1 146 0 is_stmt 1
 166 00ca 7A6A     		ldr	r2, [r7, #36]
 167 00cc 3B6A     		ldr	r3, [r7, #32]
 168 00ce 1344     		add	r3, r3, r2
 169 00d0 7B62     		str	r3, [r7, #36]
 170              	.L13:
 147:C:/Users/dtjld/Desktop/AIoT_software/LiteOS_Lab_overseas/LiteOS_Lab/iot_link/network/lwm2m/wakaama_lwm2m/core\registration.c ****     }
 148:C:/Users/dtjld/Desktop/AIoT_software/LiteOS_Lab_overseas/LiteOS_Lab/iot_link/network/lwm2m/wakaama_lwm2m/core\registration.c **** 
 149:C:/Users/dtjld/Desktop/AIoT_software/LiteOS_Lab_overseas/LiteOS_Lab/iot_link/network/lwm2m/wakaama_lwm2m/core\registration.c ****     return index + 1;
 171              		.loc 1 149 0
 172 00d2 7B6A     		ldr	r3, [r7, #36]
 173 00d4 0133     		adds	r3, r3, #1
 174              	.L15:
 150:C:/Users/dtjld/Desktop/AIoT_software/LiteOS_Lab_overseas/LiteOS_Lab/iot_link/network/lwm2m/wakaama_lwm2m/core\registration.c **** }
 175              		.loc 1 150 0 discriminator 1
 176 00d6 1846     		mov	r0, r3
 177 00d8 2C37     		adds	r7, r7, #44
 178              	.LCFI3:
 179              		.cfi_def_cfa_offset 12
 180 00da BD46     		mov	sp, r7
 181              	.LCFI4:
 182              		.cfi_def_cfa_register 13
 183              		@ sp needed
 184 00dc 90BD     		pop	{r4, r7, pc}
 185              		.cfi_endproc
 186              	.LFE4:
 188 00de 00BF     		.section	.rodata
 189              		.align	2
 190              	.LC0:
 191 0000 3F6C776D 		.ascii	"?lwm2m=1.0&ep=\000"
 191      326D3D31 
 191      2E302665 
 191      703D00
ARM GAS  C:\Users\dtjld\AppData\Local\Temp\cctLUSig.s 			page 7


 192 000f 00       		.align	2
 193              	.LC1:
 194 0010 26736D73 		.ascii	"&sms=\000"
 194      3D00
 195 0016 0000     		.align	2
 196              	.LC2:
 197 0018 26623D55 		.ascii	"&b=U\000"
 197      00
 198 001d 000000   		.align	2
 199              	.LC3:
 200 0020 26623D55 		.ascii	"&b=UQ\000"
 200      5100
 201 0026 0000     		.align	2
 202              	.LC4:
 203 0028 26623D53 		.ascii	"&b=S\000"
 203      00
 204 002d 000000   		.align	2
 205              	.LC5:
 206 0030 26623D53 		.ascii	"&b=SQ\000"
 206      5100
 207 0036 0000     		.align	2
 208              	.LC6:
 209 0038 26623D55 		.ascii	"&b=US\000"
 209      5300
 210 003e 0000     		.align	2
 211              	.LC7:
 212 0040 26623D55 		.ascii	"&b=UQS\000"
 212      515300
 213 0047 00       		.align	2
 214              	.LC8:
 215 0048 266C743D 		.ascii	"&lt=\000"
 215      00
 216              		.section	.text.prv_getRegistrationQuery,"ax",%progbits
 217              		.align	1
 218              		.syntax unified
 219              		.thumb
 220              		.thumb_func
 221              		.fpu fpv4-sp-d16
 223              	prv_getRegistrationQuery:
 224              	.LFB5:
 151:C:/Users/dtjld/Desktop/AIoT_software/LiteOS_Lab_overseas/LiteOS_Lab/iot_link/network/lwm2m/wakaama_lwm2m/core\registration.c **** 
 152:C:/Users/dtjld/Desktop/AIoT_software/LiteOS_Lab_overseas/LiteOS_Lab/iot_link/network/lwm2m/wakaama_lwm2m/core\registration.c **** static int prv_getRegistrationQuery(lwm2m_context_t *contextP,
 153:C:/Users/dtjld/Desktop/AIoT_software/LiteOS_Lab_overseas/LiteOS_Lab/iot_link/network/lwm2m/wakaama_lwm2m/core\registration.c ****                                     lwm2m_server_t *server,
 154:C:/Users/dtjld/Desktop/AIoT_software/LiteOS_Lab_overseas/LiteOS_Lab/iot_link/network/lwm2m/wakaama_lwm2m/core\registration.c ****                                     char *buffer,
 155:C:/Users/dtjld/Desktop/AIoT_software/LiteOS_Lab_overseas/LiteOS_Lab/iot_link/network/lwm2m/wakaama_lwm2m/core\registration.c ****                                     size_t length)
 156:C:/Users/dtjld/Desktop/AIoT_software/LiteOS_Lab_overseas/LiteOS_Lab/iot_link/network/lwm2m/wakaama_lwm2m/core\registration.c **** {
 225              		.loc 1 156 0
 226              		.cfi_startproc
 227              		@ args = 0, pretend = 0, frame = 24
 228              		@ frame_needed = 1, uses_anonymous_args = 0
 229 0000 90B5     		push	{r4, r7, lr}
 230              	.LCFI5:
 231              		.cfi_def_cfa_offset 12
 232              		.cfi_offset 4, -12
 233              		.cfi_offset 7, -8
 234              		.cfi_offset 14, -4
 235 0002 87B0     		sub	sp, sp, #28
ARM GAS  C:\Users\dtjld\AppData\Local\Temp\cctLUSig.s 			page 8


 236              	.LCFI6:
 237              		.cfi_def_cfa_offset 40
 238 0004 00AF     		add	r7, sp, #0
 239              	.LCFI7:
 240              		.cfi_def_cfa_register 7
 241 0006 F860     		str	r0, [r7, #12]
 242 0008 B960     		str	r1, [r7, #8]
 243 000a 7A60     		str	r2, [r7, #4]
 244 000c 3B60     		str	r3, [r7]
 157:C:/Users/dtjld/Desktop/AIoT_software/LiteOS_Lab_overseas/LiteOS_Lab/iot_link/network/lwm2m/wakaama_lwm2m/core\registration.c ****     int index;
 158:C:/Users/dtjld/Desktop/AIoT_software/LiteOS_Lab_overseas/LiteOS_Lab/iot_link/network/lwm2m/wakaama_lwm2m/core\registration.c ****     int res;
 159:C:/Users/dtjld/Desktop/AIoT_software/LiteOS_Lab_overseas/LiteOS_Lab/iot_link/network/lwm2m/wakaama_lwm2m/core\registration.c **** 
 160:C:/Users/dtjld/Desktop/AIoT_software/LiteOS_Lab_overseas/LiteOS_Lab/iot_link/network/lwm2m/wakaama_lwm2m/core\registration.c ****     index = utils_stringCopy(buffer, length, QUERY_STARTER QUERY_VERSION_FULL QUERY_DELIMITER QUERY
 245              		.loc 1 160 0
 246 000e 7C4A     		ldr	r2, .L38
 247 0010 3968     		ldr	r1, [r7]
 248 0012 7868     		ldr	r0, [r7, #4]
 249 0014 FFF7FEFF 		bl	utils_stringCopy
 250 0018 7861     		str	r0, [r7, #20]
 161:C:/Users/dtjld/Desktop/AIoT_software/LiteOS_Lab_overseas/LiteOS_Lab/iot_link/network/lwm2m/wakaama_lwm2m/core\registration.c ****     if (index < 0) return 0;
 251              		.loc 1 161 0
 252 001a 7B69     		ldr	r3, [r7, #20]
 253 001c 002B     		cmp	r3, #0
 254 001e 01DA     		bge	.L17
 255              		.loc 1 161 0 is_stmt 0 discriminator 1
 256 0020 0023     		movs	r3, #0
 257 0022 E8E0     		b	.L18
 258              	.L17:
 162:C:/Users/dtjld/Desktop/AIoT_software/LiteOS_Lab_overseas/LiteOS_Lab/iot_link/network/lwm2m/wakaama_lwm2m/core\registration.c ****     res = utils_stringCopy(buffer + index, length - index, contextP->endpointName);
 259              		.loc 1 162 0 is_stmt 1
 260 0024 7B69     		ldr	r3, [r7, #20]
 261 0026 7A68     		ldr	r2, [r7, #4]
 262 0028 D018     		adds	r0, r2, r3
 263 002a 7B69     		ldr	r3, [r7, #20]
 264 002c 3A68     		ldr	r2, [r7]
 265 002e D11A     		subs	r1, r2, r3
 266 0030 FB68     		ldr	r3, [r7, #12]
 267 0032 5B68     		ldr	r3, [r3, #4]
 268 0034 1A46     		mov	r2, r3
 269 0036 FFF7FEFF 		bl	utils_stringCopy
 270 003a 3861     		str	r0, [r7, #16]
 163:C:/Users/dtjld/Desktop/AIoT_software/LiteOS_Lab_overseas/LiteOS_Lab/iot_link/network/lwm2m/wakaama_lwm2m/core\registration.c ****     if (res < 0) return 0;
 271              		.loc 1 163 0
 272 003c 3B69     		ldr	r3, [r7, #16]
 273 003e 002B     		cmp	r3, #0
 274 0040 01DA     		bge	.L19
 275              		.loc 1 163 0 is_stmt 0 discriminator 1
 276 0042 0023     		movs	r3, #0
 277 0044 D7E0     		b	.L18
 278              	.L19:
 164:C:/Users/dtjld/Desktop/AIoT_software/LiteOS_Lab_overseas/LiteOS_Lab/iot_link/network/lwm2m/wakaama_lwm2m/core\registration.c ****     index += res;
 279              		.loc 1 164 0 is_stmt 1
 280 0046 7A69     		ldr	r2, [r7, #20]
 281 0048 3B69     		ldr	r3, [r7, #16]
 282 004a 1344     		add	r3, r3, r2
 283 004c 7B61     		str	r3, [r7, #20]
 165:C:/Users/dtjld/Desktop/AIoT_software/LiteOS_Lab_overseas/LiteOS_Lab/iot_link/network/lwm2m/wakaama_lwm2m/core\registration.c **** 
ARM GAS  C:\Users\dtjld\AppData\Local\Temp\cctLUSig.s 			page 9


 166:C:/Users/dtjld/Desktop/AIoT_software/LiteOS_Lab_overseas/LiteOS_Lab/iot_link/network/lwm2m/wakaama_lwm2m/core\registration.c ****     if (NULL != contextP->msisdn)
 284              		.loc 1 166 0
 285 004e FB68     		ldr	r3, [r7, #12]
 286 0050 9B68     		ldr	r3, [r3, #8]
 287 0052 002B     		cmp	r3, #0
 288 0054 28D0     		beq	.L20
 167:C:/Users/dtjld/Desktop/AIoT_software/LiteOS_Lab_overseas/LiteOS_Lab/iot_link/network/lwm2m/wakaama_lwm2m/core\registration.c ****     {
 168:C:/Users/dtjld/Desktop/AIoT_software/LiteOS_Lab_overseas/LiteOS_Lab/iot_link/network/lwm2m/wakaama_lwm2m/core\registration.c ****         res = utils_stringCopy(buffer + index, length - index, QUERY_DELIMITER QUERY_SMS);
 289              		.loc 1 168 0
 290 0056 7B69     		ldr	r3, [r7, #20]
 291 0058 7A68     		ldr	r2, [r7, #4]
 292 005a D018     		adds	r0, r2, r3
 293 005c 7B69     		ldr	r3, [r7, #20]
 294 005e 3A68     		ldr	r2, [r7]
 295 0060 D31A     		subs	r3, r2, r3
 296 0062 684A     		ldr	r2, .L38+4
 297 0064 1946     		mov	r1, r3
 298 0066 FFF7FEFF 		bl	utils_stringCopy
 299 006a 3861     		str	r0, [r7, #16]
 169:C:/Users/dtjld/Desktop/AIoT_software/LiteOS_Lab_overseas/LiteOS_Lab/iot_link/network/lwm2m/wakaama_lwm2m/core\registration.c ****         if (res < 0) return 0;
 300              		.loc 1 169 0
 301 006c 3B69     		ldr	r3, [r7, #16]
 302 006e 002B     		cmp	r3, #0
 303 0070 01DA     		bge	.L21
 304              		.loc 1 169 0 is_stmt 0 discriminator 1
 305 0072 0023     		movs	r3, #0
 306 0074 BFE0     		b	.L18
 307              	.L21:
 170:C:/Users/dtjld/Desktop/AIoT_software/LiteOS_Lab_overseas/LiteOS_Lab/iot_link/network/lwm2m/wakaama_lwm2m/core\registration.c ****         index += res;
 308              		.loc 1 170 0 is_stmt 1
 309 0076 7A69     		ldr	r2, [r7, #20]
 310 0078 3B69     		ldr	r3, [r7, #16]
 311 007a 1344     		add	r3, r3, r2
 312 007c 7B61     		str	r3, [r7, #20]
 171:C:/Users/dtjld/Desktop/AIoT_software/LiteOS_Lab_overseas/LiteOS_Lab/iot_link/network/lwm2m/wakaama_lwm2m/core\registration.c ****         res = utils_stringCopy(buffer + index, length - index, contextP->msisdn);
 313              		.loc 1 171 0
 314 007e 7B69     		ldr	r3, [r7, #20]
 315 0080 7A68     		ldr	r2, [r7, #4]
 316 0082 D018     		adds	r0, r2, r3
 317 0084 7B69     		ldr	r3, [r7, #20]
 318 0086 3A68     		ldr	r2, [r7]
 319 0088 D11A     		subs	r1, r2, r3
 320 008a FB68     		ldr	r3, [r7, #12]
 321 008c 9B68     		ldr	r3, [r3, #8]
 322 008e 1A46     		mov	r2, r3
 323 0090 FFF7FEFF 		bl	utils_stringCopy
 324 0094 3861     		str	r0, [r7, #16]
 172:C:/Users/dtjld/Desktop/AIoT_software/LiteOS_Lab_overseas/LiteOS_Lab/iot_link/network/lwm2m/wakaama_lwm2m/core\registration.c ****         if (res < 0) return 0;
 325              		.loc 1 172 0
 326 0096 3B69     		ldr	r3, [r7, #16]
 327 0098 002B     		cmp	r3, #0
 328 009a 01DA     		bge	.L22
 329              		.loc 1 172 0 is_stmt 0 discriminator 1
 330 009c 0023     		movs	r3, #0
 331 009e AAE0     		b	.L18
 332              	.L22:
 173:C:/Users/dtjld/Desktop/AIoT_software/LiteOS_Lab_overseas/LiteOS_Lab/iot_link/network/lwm2m/wakaama_lwm2m/core\registration.c ****         index += res;
ARM GAS  C:\Users\dtjld\AppData\Local\Temp\cctLUSig.s 			page 10


 333              		.loc 1 173 0 is_stmt 1
 334 00a0 7A69     		ldr	r2, [r7, #20]
 335 00a2 3B69     		ldr	r3, [r7, #16]
 336 00a4 1344     		add	r3, r3, r2
 337 00a6 7B61     		str	r3, [r7, #20]
 338              	.L20:
 174:C:/Users/dtjld/Desktop/AIoT_software/LiteOS_Lab_overseas/LiteOS_Lab/iot_link/network/lwm2m/wakaama_lwm2m/core\registration.c ****     }
 175:C:/Users/dtjld/Desktop/AIoT_software/LiteOS_Lab_overseas/LiteOS_Lab/iot_link/network/lwm2m/wakaama_lwm2m/core\registration.c **** 
 176:C:/Users/dtjld/Desktop/AIoT_software/LiteOS_Lab_overseas/LiteOS_Lab/iot_link/network/lwm2m/wakaama_lwm2m/core\registration.c ****     switch (server->binding)
 339              		.loc 1 176 0
 340 00a8 BB68     		ldr	r3, [r7, #8]
 341 00aa 1B7E     		ldrb	r3, [r3, #24]	@ zero_extendqisi2
 342 00ac 013B     		subs	r3, r3, #1
 343 00ae 052B     		cmp	r3, #5
 344 00b0 56D8     		bhi	.L23
 345 00b2 01A2     		adr	r2, .L25
 346 00b4 52F823F0 		ldr	pc, [r2, r3, lsl #2]
 347              		.p2align 2
 348              	.L25:
 349 00b8 D1000000 		.word	.L24+1
 350 00bc E9000000 		.word	.L26+1
 351 00c0 01010000 		.word	.L27+1
 352 00c4 19010000 		.word	.L28+1
 353 00c8 31010000 		.word	.L29+1
 354 00cc 49010000 		.word	.L30+1
 355              		.p2align 1
 356              	.L24:
 177:C:/Users/dtjld/Desktop/AIoT_software/LiteOS_Lab_overseas/LiteOS_Lab/iot_link/network/lwm2m/wakaama_lwm2m/core\registration.c ****     {
 178:C:/Users/dtjld/Desktop/AIoT_software/LiteOS_Lab_overseas/LiteOS_Lab/iot_link/network/lwm2m/wakaama_lwm2m/core\registration.c ****     case BINDING_U:
 179:C:/Users/dtjld/Desktop/AIoT_software/LiteOS_Lab_overseas/LiteOS_Lab/iot_link/network/lwm2m/wakaama_lwm2m/core\registration.c ****         res = utils_stringCopy(buffer + index, length - index, "&b=U");
 357              		.loc 1 179 0
 358 00d0 7B69     		ldr	r3, [r7, #20]
 359 00d2 7A68     		ldr	r2, [r7, #4]
 360 00d4 D018     		adds	r0, r2, r3
 361 00d6 7B69     		ldr	r3, [r7, #20]
 362 00d8 3A68     		ldr	r2, [r7]
 363 00da D31A     		subs	r3, r2, r3
 364 00dc 4A4A     		ldr	r2, .L38+8
 365 00de 1946     		mov	r1, r3
 366 00e0 FFF7FEFF 		bl	utils_stringCopy
 367 00e4 3861     		str	r0, [r7, #16]
 180:C:/Users/dtjld/Desktop/AIoT_software/LiteOS_Lab_overseas/LiteOS_Lab/iot_link/network/lwm2m/wakaama_lwm2m/core\registration.c ****         break;
 368              		.loc 1 180 0
 369 00e6 3EE0     		b	.L31
 370              	.L26:
 181:C:/Users/dtjld/Desktop/AIoT_software/LiteOS_Lab_overseas/LiteOS_Lab/iot_link/network/lwm2m/wakaama_lwm2m/core\registration.c ****     case BINDING_UQ:
 182:C:/Users/dtjld/Desktop/AIoT_software/LiteOS_Lab_overseas/LiteOS_Lab/iot_link/network/lwm2m/wakaama_lwm2m/core\registration.c ****         res = utils_stringCopy(buffer + index, length - index, "&b=UQ");
 371              		.loc 1 182 0
 372 00e8 7B69     		ldr	r3, [r7, #20]
 373 00ea 7A68     		ldr	r2, [r7, #4]
 374 00ec D018     		adds	r0, r2, r3
 375 00ee 7B69     		ldr	r3, [r7, #20]
 376 00f0 3A68     		ldr	r2, [r7]
 377 00f2 D31A     		subs	r3, r2, r3
 378 00f4 454A     		ldr	r2, .L38+12
 379 00f6 1946     		mov	r1, r3
 380 00f8 FFF7FEFF 		bl	utils_stringCopy
ARM GAS  C:\Users\dtjld\AppData\Local\Temp\cctLUSig.s 			page 11


 381 00fc 3861     		str	r0, [r7, #16]
 183:C:/Users/dtjld/Desktop/AIoT_software/LiteOS_Lab_overseas/LiteOS_Lab/iot_link/network/lwm2m/wakaama_lwm2m/core\registration.c ****         break;
 382              		.loc 1 183 0
 383 00fe 32E0     		b	.L31
 384              	.L27:
 184:C:/Users/dtjld/Desktop/AIoT_software/LiteOS_Lab_overseas/LiteOS_Lab/iot_link/network/lwm2m/wakaama_lwm2m/core\registration.c ****     case BINDING_S:
 185:C:/Users/dtjld/Desktop/AIoT_software/LiteOS_Lab_overseas/LiteOS_Lab/iot_link/network/lwm2m/wakaama_lwm2m/core\registration.c ****         res = utils_stringCopy(buffer + index, length - index, "&b=S");
 385              		.loc 1 185 0
 386 0100 7B69     		ldr	r3, [r7, #20]
 387 0102 7A68     		ldr	r2, [r7, #4]
 388 0104 D018     		adds	r0, r2, r3
 389 0106 7B69     		ldr	r3, [r7, #20]
 390 0108 3A68     		ldr	r2, [r7]
 391 010a D31A     		subs	r3, r2, r3
 392 010c 404A     		ldr	r2, .L38+16
 393 010e 1946     		mov	r1, r3
 394 0110 FFF7FEFF 		bl	utils_stringCopy
 395 0114 3861     		str	r0, [r7, #16]
 186:C:/Users/dtjld/Desktop/AIoT_software/LiteOS_Lab_overseas/LiteOS_Lab/iot_link/network/lwm2m/wakaama_lwm2m/core\registration.c ****         break;
 396              		.loc 1 186 0
 397 0116 26E0     		b	.L31
 398              	.L28:
 187:C:/Users/dtjld/Desktop/AIoT_software/LiteOS_Lab_overseas/LiteOS_Lab/iot_link/network/lwm2m/wakaama_lwm2m/core\registration.c ****     case BINDING_SQ:
 188:C:/Users/dtjld/Desktop/AIoT_software/LiteOS_Lab_overseas/LiteOS_Lab/iot_link/network/lwm2m/wakaama_lwm2m/core\registration.c ****         res = utils_stringCopy(buffer + index, length - index, "&b=SQ");
 399              		.loc 1 188 0
 400 0118 7B69     		ldr	r3, [r7, #20]
 401 011a 7A68     		ldr	r2, [r7, #4]
 402 011c D018     		adds	r0, r2, r3
 403 011e 7B69     		ldr	r3, [r7, #20]
 404 0120 3A68     		ldr	r2, [r7]
 405 0122 D31A     		subs	r3, r2, r3
 406 0124 3B4A     		ldr	r2, .L38+20
 407 0126 1946     		mov	r1, r3
 408 0128 FFF7FEFF 		bl	utils_stringCopy
 409 012c 3861     		str	r0, [r7, #16]
 189:C:/Users/dtjld/Desktop/AIoT_software/LiteOS_Lab_overseas/LiteOS_Lab/iot_link/network/lwm2m/wakaama_lwm2m/core\registration.c ****         break;
 410              		.loc 1 189 0
 411 012e 1AE0     		b	.L31
 412              	.L29:
 190:C:/Users/dtjld/Desktop/AIoT_software/LiteOS_Lab_overseas/LiteOS_Lab/iot_link/network/lwm2m/wakaama_lwm2m/core\registration.c ****     case BINDING_US:
 191:C:/Users/dtjld/Desktop/AIoT_software/LiteOS_Lab_overseas/LiteOS_Lab/iot_link/network/lwm2m/wakaama_lwm2m/core\registration.c ****         res = utils_stringCopy(buffer + index, length - index, "&b=US");
 413              		.loc 1 191 0
 414 0130 7B69     		ldr	r3, [r7, #20]
 415 0132 7A68     		ldr	r2, [r7, #4]
 416 0134 D018     		adds	r0, r2, r3
 417 0136 7B69     		ldr	r3, [r7, #20]
 418 0138 3A68     		ldr	r2, [r7]
 419 013a D31A     		subs	r3, r2, r3
 420 013c 364A     		ldr	r2, .L38+24
 421 013e 1946     		mov	r1, r3
 422 0140 FFF7FEFF 		bl	utils_stringCopy
 423 0144 3861     		str	r0, [r7, #16]
 192:C:/Users/dtjld/Desktop/AIoT_software/LiteOS_Lab_overseas/LiteOS_Lab/iot_link/network/lwm2m/wakaama_lwm2m/core\registration.c ****         break;
 424              		.loc 1 192 0
 425 0146 0EE0     		b	.L31
 426              	.L30:
 193:C:/Users/dtjld/Desktop/AIoT_software/LiteOS_Lab_overseas/LiteOS_Lab/iot_link/network/lwm2m/wakaama_lwm2m/core\registration.c ****     case BINDING_UQS:
ARM GAS  C:\Users\dtjld\AppData\Local\Temp\cctLUSig.s 			page 12


 194:C:/Users/dtjld/Desktop/AIoT_software/LiteOS_Lab_overseas/LiteOS_Lab/iot_link/network/lwm2m/wakaama_lwm2m/core\registration.c ****         res = utils_stringCopy(buffer + index, length - index, "&b=UQS");
 427              		.loc 1 194 0
 428 0148 7B69     		ldr	r3, [r7, #20]
 429 014a 7A68     		ldr	r2, [r7, #4]
 430 014c D018     		adds	r0, r2, r3
 431 014e 7B69     		ldr	r3, [r7, #20]
 432 0150 3A68     		ldr	r2, [r7]
 433 0152 D31A     		subs	r3, r2, r3
 434 0154 314A     		ldr	r2, .L38+28
 435 0156 1946     		mov	r1, r3
 436 0158 FFF7FEFF 		bl	utils_stringCopy
 437 015c 3861     		str	r0, [r7, #16]
 195:C:/Users/dtjld/Desktop/AIoT_software/LiteOS_Lab_overseas/LiteOS_Lab/iot_link/network/lwm2m/wakaama_lwm2m/core\registration.c ****         break;
 438              		.loc 1 195 0
 439 015e 02E0     		b	.L31
 440              	.L23:
 196:C:/Users/dtjld/Desktop/AIoT_software/LiteOS_Lab_overseas/LiteOS_Lab/iot_link/network/lwm2m/wakaama_lwm2m/core\registration.c ****     default:
 197:C:/Users/dtjld/Desktop/AIoT_software/LiteOS_Lab_overseas/LiteOS_Lab/iot_link/network/lwm2m/wakaama_lwm2m/core\registration.c ****         res = -1;
 441              		.loc 1 197 0
 442 0160 4FF0FF33 		mov	r3, #-1
 443 0164 3B61     		str	r3, [r7, #16]
 444              	.L31:
 198:C:/Users/dtjld/Desktop/AIoT_software/LiteOS_Lab_overseas/LiteOS_Lab/iot_link/network/lwm2m/wakaama_lwm2m/core\registration.c ****     }
 199:C:/Users/dtjld/Desktop/AIoT_software/LiteOS_Lab_overseas/LiteOS_Lab/iot_link/network/lwm2m/wakaama_lwm2m/core\registration.c ****     if (res < 0) return 0;
 445              		.loc 1 199 0
 446 0166 3B69     		ldr	r3, [r7, #16]
 447 0168 002B     		cmp	r3, #0
 448 016a 01DA     		bge	.L32
 449              		.loc 1 199 0 is_stmt 0 discriminator 1
 450 016c 0023     		movs	r3, #0
 451 016e 42E0     		b	.L18
 452              	.L32:
 200:C:/Users/dtjld/Desktop/AIoT_software/LiteOS_Lab_overseas/LiteOS_Lab/iot_link/network/lwm2m/wakaama_lwm2m/core\registration.c ****     index += res;
 453              		.loc 1 200 0 is_stmt 1
 454 0170 7A69     		ldr	r2, [r7, #20]
 455 0172 3B69     		ldr	r3, [r7, #16]
 456 0174 1344     		add	r3, r3, r2
 457 0176 7B61     		str	r3, [r7, #20]
 201:C:/Users/dtjld/Desktop/AIoT_software/LiteOS_Lab_overseas/LiteOS_Lab/iot_link/network/lwm2m/wakaama_lwm2m/core\registration.c **** 
 202:C:/Users/dtjld/Desktop/AIoT_software/LiteOS_Lab_overseas/LiteOS_Lab/iot_link/network/lwm2m/wakaama_lwm2m/core\registration.c ****     if (0 != server->lifetime)
 458              		.loc 1 202 0
 459 0178 BB68     		ldr	r3, [r7, #8]
 460 017a D3E90234 		ldrd	r3, [r3, #8]
 461 017e 2343     		orrs	r3, r3, r4
 462 0180 2AD0     		beq	.L33
 203:C:/Users/dtjld/Desktop/AIoT_software/LiteOS_Lab_overseas/LiteOS_Lab/iot_link/network/lwm2m/wakaama_lwm2m/core\registration.c ****     {
 204:C:/Users/dtjld/Desktop/AIoT_software/LiteOS_Lab_overseas/LiteOS_Lab/iot_link/network/lwm2m/wakaama_lwm2m/core\registration.c ****         res = utils_stringCopy(buffer + index, length - index, QUERY_DELIMITER QUERY_LIFETIME);
 463              		.loc 1 204 0
 464 0182 7B69     		ldr	r3, [r7, #20]
 465 0184 7A68     		ldr	r2, [r7, #4]
 466 0186 D018     		adds	r0, r2, r3
 467 0188 7B69     		ldr	r3, [r7, #20]
 468 018a 3A68     		ldr	r2, [r7]
 469 018c D31A     		subs	r3, r2, r3
 470 018e 244A     		ldr	r2, .L38+32
 471 0190 1946     		mov	r1, r3
 472 0192 FFF7FEFF 		bl	utils_stringCopy
ARM GAS  C:\Users\dtjld\AppData\Local\Temp\cctLUSig.s 			page 13


 473 0196 3861     		str	r0, [r7, #16]
 205:C:/Users/dtjld/Desktop/AIoT_software/LiteOS_Lab_overseas/LiteOS_Lab/iot_link/network/lwm2m/wakaama_lwm2m/core\registration.c ****         if (res < 0) return 0;
 474              		.loc 1 205 0
 475 0198 3B69     		ldr	r3, [r7, #16]
 476 019a 002B     		cmp	r3, #0
 477 019c 01DA     		bge	.L34
 478              		.loc 1 205 0 is_stmt 0 discriminator 1
 479 019e 0023     		movs	r3, #0
 480 01a0 29E0     		b	.L18
 481              	.L34:
 206:C:/Users/dtjld/Desktop/AIoT_software/LiteOS_Lab_overseas/LiteOS_Lab/iot_link/network/lwm2m/wakaama_lwm2m/core\registration.c ****         index += res;
 482              		.loc 1 206 0 is_stmt 1
 483 01a2 7A69     		ldr	r2, [r7, #20]
 484 01a4 3B69     		ldr	r3, [r7, #16]
 485 01a6 1344     		add	r3, r3, r2
 486 01a8 7B61     		str	r3, [r7, #20]
 207:C:/Users/dtjld/Desktop/AIoT_software/LiteOS_Lab_overseas/LiteOS_Lab/iot_link/network/lwm2m/wakaama_lwm2m/core\registration.c ****         res = utils_intToText(server->lifetime, (uint8_t *)buffer + index, length - index);
 487              		.loc 1 207 0
 488 01aa BB68     		ldr	r3, [r7, #8]
 489 01ac D3E90201 		ldrd	r0, [r3, #8]
 490 01b0 7B69     		ldr	r3, [r7, #20]
 491 01b2 7A68     		ldr	r2, [r7, #4]
 492 01b4 D418     		adds	r4, r2, r3
 493 01b6 7B69     		ldr	r3, [r7, #20]
 494 01b8 3A68     		ldr	r2, [r7]
 495 01ba D31A     		subs	r3, r2, r3
 496 01bc 2246     		mov	r2, r4
 497 01be FFF7FEFF 		bl	utils_intToText
 498 01c2 0346     		mov	r3, r0
 499 01c4 3B61     		str	r3, [r7, #16]
 208:C:/Users/dtjld/Desktop/AIoT_software/LiteOS_Lab_overseas/LiteOS_Lab/iot_link/network/lwm2m/wakaama_lwm2m/core\registration.c ****         if (res == 0) return 0;
 500              		.loc 1 208 0
 501 01c6 3B69     		ldr	r3, [r7, #16]
 502 01c8 002B     		cmp	r3, #0
 503 01ca 01D1     		bne	.L35
 504              		.loc 1 208 0 is_stmt 0 discriminator 1
 505 01cc 0023     		movs	r3, #0
 506 01ce 12E0     		b	.L18
 507              	.L35:
 209:C:/Users/dtjld/Desktop/AIoT_software/LiteOS_Lab_overseas/LiteOS_Lab/iot_link/network/lwm2m/wakaama_lwm2m/core\registration.c ****         index += res;
 508              		.loc 1 209 0 is_stmt 1
 509 01d0 7A69     		ldr	r2, [r7, #20]
 510 01d2 3B69     		ldr	r3, [r7, #16]
 511 01d4 1344     		add	r3, r3, r2
 512 01d6 7B61     		str	r3, [r7, #20]
 513              	.L33:
 210:C:/Users/dtjld/Desktop/AIoT_software/LiteOS_Lab_overseas/LiteOS_Lab/iot_link/network/lwm2m/wakaama_lwm2m/core\registration.c ****     }
 211:C:/Users/dtjld/Desktop/AIoT_software/LiteOS_Lab_overseas/LiteOS_Lab/iot_link/network/lwm2m/wakaama_lwm2m/core\registration.c **** 
 212:C:/Users/dtjld/Desktop/AIoT_software/LiteOS_Lab_overseas/LiteOS_Lab/iot_link/network/lwm2m/wakaama_lwm2m/core\registration.c ****     if(index < (int)length)
 514              		.loc 1 212 0
 515 01d8 3B68     		ldr	r3, [r7]
 516 01da 7A69     		ldr	r2, [r7, #20]
 517 01dc 9A42     		cmp	r2, r3
 518 01de 09DA     		bge	.L36
 213:C:/Users/dtjld/Desktop/AIoT_software/LiteOS_Lab_overseas/LiteOS_Lab/iot_link/network/lwm2m/wakaama_lwm2m/core\registration.c ****     {
 214:C:/Users/dtjld/Desktop/AIoT_software/LiteOS_Lab_overseas/LiteOS_Lab/iot_link/network/lwm2m/wakaama_lwm2m/core\registration.c ****         buffer[index++] = '\0';
 519              		.loc 1 214 0
ARM GAS  C:\Users\dtjld\AppData\Local\Temp\cctLUSig.s 			page 14


 520 01e0 7B69     		ldr	r3, [r7, #20]
 521 01e2 5A1C     		adds	r2, r3, #1
 522 01e4 7A61     		str	r2, [r7, #20]
 523 01e6 1A46     		mov	r2, r3
 524 01e8 7B68     		ldr	r3, [r7, #4]
 525 01ea 1344     		add	r3, r3, r2
 526 01ec 0022     		movs	r2, #0
 527 01ee 1A70     		strb	r2, [r3]
 215:C:/Users/dtjld/Desktop/AIoT_software/LiteOS_Lab_overseas/LiteOS_Lab/iot_link/network/lwm2m/wakaama_lwm2m/core\registration.c ****     }
 216:C:/Users/dtjld/Desktop/AIoT_software/LiteOS_Lab_overseas/LiteOS_Lab/iot_link/network/lwm2m/wakaama_lwm2m/core\registration.c ****     else
 217:C:/Users/dtjld/Desktop/AIoT_software/LiteOS_Lab_overseas/LiteOS_Lab/iot_link/network/lwm2m/wakaama_lwm2m/core\registration.c ****     {
 218:C:/Users/dtjld/Desktop/AIoT_software/LiteOS_Lab_overseas/LiteOS_Lab/iot_link/network/lwm2m/wakaama_lwm2m/core\registration.c ****         return 0;
 219:C:/Users/dtjld/Desktop/AIoT_software/LiteOS_Lab_overseas/LiteOS_Lab/iot_link/network/lwm2m/wakaama_lwm2m/core\registration.c ****     }
 220:C:/Users/dtjld/Desktop/AIoT_software/LiteOS_Lab_overseas/LiteOS_Lab/iot_link/network/lwm2m/wakaama_lwm2m/core\registration.c **** 
 221:C:/Users/dtjld/Desktop/AIoT_software/LiteOS_Lab_overseas/LiteOS_Lab/iot_link/network/lwm2m/wakaama_lwm2m/core\registration.c ****     return index;
 528              		.loc 1 221 0
 529 01f0 7B69     		ldr	r3, [r7, #20]
 530 01f2 00E0     		b	.L18
 531              	.L36:
 218:C:/Users/dtjld/Desktop/AIoT_software/LiteOS_Lab_overseas/LiteOS_Lab/iot_link/network/lwm2m/wakaama_lwm2m/core\registration.c ****     }
 532              		.loc 1 218 0
 533 01f4 0023     		movs	r3, #0
 534              	.L18:
 222:C:/Users/dtjld/Desktop/AIoT_software/LiteOS_Lab_overseas/LiteOS_Lab/iot_link/network/lwm2m/wakaama_lwm2m/core\registration.c **** }
 535              		.loc 1 222 0
 536 01f6 1846     		mov	r0, r3
 537 01f8 1C37     		adds	r7, r7, #28
 538              	.LCFI8:
 539              		.cfi_def_cfa_offset 12
 540 01fa BD46     		mov	sp, r7
 541              	.LCFI9:
 542              		.cfi_def_cfa_register 13
 543              		@ sp needed
 544 01fc 90BD     		pop	{r4, r7, pc}
 545              	.L39:
 546 01fe 00BF     		.align	2
 547              	.L38:
 548 0200 00000000 		.word	.LC0
 549 0204 10000000 		.word	.LC1
 550 0208 18000000 		.word	.LC2
 551 020c 20000000 		.word	.LC3
 552 0210 28000000 		.word	.LC4
 553 0214 30000000 		.word	.LC5
 554 0218 38000000 		.word	.LC6
 555 021c 40000000 		.word	.LC7
 556 0220 48000000 		.word	.LC8
 557              		.cfi_endproc
 558              	.LFE5:
 560              		.section	.rodata
 561 004d 000000   		.align	2
 562              	.LC9:
 563 0050 5B25645D 		.ascii	"[%d][%s:%d] come into  prv_handleRegistrationReply!"
 563      5B25733A 
 563      25645D20 
 563      636F6D65 
 563      20696E74 
 564 0083 210D0A00 		.ascii	"!\015\012\000"
ARM GAS  C:\Users\dtjld\AppData\Local\Temp\cctLUSig.s 			page 15


 565 0087 00       		.align	2
 566              	.LC10:
 567 0088 5B25645D 		.ascii	"[%d][%s:%d] Registration successful\015\012\000"
 567      5B25733A 
 567      25645D20 
 567      52656769 
 567      73747261 
 568 00ae 0000     		.align	2
 569              	.LC11:
 570 00b0 5B25645D 		.ascii	"[%d][%s:%d] Registration failed\015\012\000"
 570      5B25733A 
 570      25645D20 
 570      52656769 
 570      73747261 
 571              		.section	.text.prv_handleRegistrationReply,"ax",%progbits
 572              		.align	1
 573              		.syntax unified
 574              		.thumb
 575              		.thumb_func
 576              		.fpu fpv4-sp-d16
 578              	prv_handleRegistrationReply:
 579              	.LFB6:
 223:C:/Users/dtjld/Desktop/AIoT_software/LiteOS_Lab_overseas/LiteOS_Lab/iot_link/network/lwm2m/wakaama_lwm2m/core\registration.c **** 
 224:C:/Users/dtjld/Desktop/AIoT_software/LiteOS_Lab_overseas/LiteOS_Lab/iot_link/network/lwm2m/wakaama_lwm2m/core\registration.c **** static void prv_handleRegistrationReply(lwm2m_transaction_t *transacP,
 225:C:/Users/dtjld/Desktop/AIoT_software/LiteOS_Lab_overseas/LiteOS_Lab/iot_link/network/lwm2m/wakaama_lwm2m/core\registration.c ****                                         void *message)
 226:C:/Users/dtjld/Desktop/AIoT_software/LiteOS_Lab_overseas/LiteOS_Lab/iot_link/network/lwm2m/wakaama_lwm2m/core\registration.c **** {
 580              		.loc 1 226 0
 581              		.cfi_startproc
 582              		@ args = 0, pretend = 0, frame = 24
 583              		@ frame_needed = 1, uses_anonymous_args = 0
 584 0000 90B5     		push	{r4, r7, lr}
 585              	.LCFI10:
 586              		.cfi_def_cfa_offset 12
 587              		.cfi_offset 4, -12
 588              		.cfi_offset 7, -8
 589              		.cfi_offset 14, -4
 590 0002 87B0     		sub	sp, sp, #28
 591              	.LCFI11:
 592              		.cfi_def_cfa_offset 40
 593 0004 00AF     		add	r7, sp, #0
 594              	.LCFI12:
 595              		.cfi_def_cfa_register 7
 596 0006 7860     		str	r0, [r7, #4]
 597 0008 3960     		str	r1, [r7]
 227:C:/Users/dtjld/Desktop/AIoT_software/LiteOS_Lab_overseas/LiteOS_Lab/iot_link/network/lwm2m/wakaama_lwm2m/core\registration.c ****     coap_packet_t *packet = (coap_packet_t *)message;
 598              		.loc 1 227 0
 599 000a 3B68     		ldr	r3, [r7]
 600 000c 7B61     		str	r3, [r7, #20]
 228:C:/Users/dtjld/Desktop/AIoT_software/LiteOS_Lab_overseas/LiteOS_Lab/iot_link/network/lwm2m/wakaama_lwm2m/core\registration.c ****     lwm2m_server_t *targetP = (lwm2m_server_t *)(transacP->userData);
 601              		.loc 1 228 0
 602 000e 7B68     		ldr	r3, [r7, #4]
 603 0010 5B6C     		ldr	r3, [r3, #68]
 604 0012 3B61     		str	r3, [r7, #16]
 229:C:/Users/dtjld/Desktop/AIoT_software/LiteOS_Lab_overseas/LiteOS_Lab/iot_link/network/lwm2m/wakaama_lwm2m/core\registration.c **** 
 230:C:/Users/dtjld/Desktop/AIoT_software/LiteOS_Lab_overseas/LiteOS_Lab/iot_link/network/lwm2m/wakaama_lwm2m/core\registration.c ****     LOG("come into  prv_handleRegistrationReply!!");
 605              		.loc 1 230 0
 606 0014 FFF7FEFF 		bl	lwm2m_gettime
ARM GAS  C:\Users\dtjld\AppData\Local\Temp\cctLUSig.s 			page 16


 607 0018 0346     		mov	r3, r0
 608 001a 0C46     		mov	r4, r1
 609 001c 1946     		mov	r1, r3
 610 001e E623     		movs	r3, #230
 611 0020 274A     		ldr	r2, .L46
 612 0022 2848     		ldr	r0, .L46+4
 613 0024 FFF7FEFF 		bl	atiny_printf
 231:C:/Users/dtjld/Desktop/AIoT_software/LiteOS_Lab_overseas/LiteOS_Lab/iot_link/network/lwm2m/wakaama_lwm2m/core\registration.c ****     if (targetP->status == STATE_REG_PENDING)
 614              		.loc 1 231 0
 615 0028 3B69     		ldr	r3, [r7, #16]
 616 002a 93F82030 		ldrb	r3, [r3, #32]	@ zero_extendqisi2
 617 002e 012B     		cmp	r3, #1
 618 0030 41D1     		bne	.L45
 619              	.LBB2:
 232:C:/Users/dtjld/Desktop/AIoT_software/LiteOS_Lab_overseas/LiteOS_Lab/iot_link/network/lwm2m/wakaama_lwm2m/core\registration.c ****     {
 233:C:/Users/dtjld/Desktop/AIoT_software/LiteOS_Lab_overseas/LiteOS_Lab/iot_link/network/lwm2m/wakaama_lwm2m/core\registration.c ****         time_t tv_sec = lwm2m_gettime();
 620              		.loc 1 233 0
 621 0032 FFF7FEFF 		bl	lwm2m_gettime
 622 0036 C7E90201 		strd	r0, [r7, #8]
 234:C:/Users/dtjld/Desktop/AIoT_software/LiteOS_Lab_overseas/LiteOS_Lab/iot_link/network/lwm2m/wakaama_lwm2m/core\registration.c ****         if (tv_sec)
 623              		.loc 1 234 0
 624 003a D7E90234 		ldrd	r3, [r7, #8]
 625 003e 2343     		orrs	r3, r3, r4
 626 0040 04D0     		beq	.L42
 235:C:/Users/dtjld/Desktop/AIoT_software/LiteOS_Lab_overseas/LiteOS_Lab/iot_link/network/lwm2m/wakaama_lwm2m/core\registration.c ****         {
 236:C:/Users/dtjld/Desktop/AIoT_software/LiteOS_Lab_overseas/LiteOS_Lab/iot_link/network/lwm2m/wakaama_lwm2m/core\registration.c ****             targetP->registration = tv_sec;
 627              		.loc 1 236 0
 628 0042 3A69     		ldr	r2, [r7, #16]
 629 0044 D7E90234 		ldrd	r3, [r7, #8]
 630 0048 C2E90434 		strd	r3, [r2, #16]
 631              	.L42:
 237:C:/Users/dtjld/Desktop/AIoT_software/LiteOS_Lab_overseas/LiteOS_Lab/iot_link/network/lwm2m/wakaama_lwm2m/core\registration.c ****         }
 238:C:/Users/dtjld/Desktop/AIoT_software/LiteOS_Lab_overseas/LiteOS_Lab/iot_link/network/lwm2m/wakaama_lwm2m/core\registration.c ****         if (packet != NULL && packet->code == COAP_201_CREATED)
 632              		.loc 1 238 0
 633 004c 7B69     		ldr	r3, [r7, #20]
 634 004e 002B     		cmp	r3, #0
 635 0050 23D0     		beq	.L43
 636              		.loc 1 238 0 is_stmt 0 discriminator 1
 637 0052 7B69     		ldr	r3, [r7, #20]
 638 0054 9B79     		ldrb	r3, [r3, #6]	@ zero_extendqisi2
 639 0056 412B     		cmp	r3, #65
 640 0058 1FD1     		bne	.L43
 239:C:/Users/dtjld/Desktop/AIoT_software/LiteOS_Lab_overseas/LiteOS_Lab/iot_link/network/lwm2m/wakaama_lwm2m/core\registration.c ****         {
 240:C:/Users/dtjld/Desktop/AIoT_software/LiteOS_Lab_overseas/LiteOS_Lab/iot_link/network/lwm2m/wakaama_lwm2m/core\registration.c ****             targetP->status = STATE_REGISTERED;
 641              		.loc 1 240 0 is_stmt 1
 642 005a 3B69     		ldr	r3, [r7, #16]
 643 005c 0222     		movs	r2, #2
 644 005e 83F82020 		strb	r2, [r3, #32]
 241:C:/Users/dtjld/Desktop/AIoT_software/LiteOS_Lab_overseas/LiteOS_Lab/iot_link/network/lwm2m/wakaama_lwm2m/core\registration.c ****             if (NULL != targetP->location)
 645              		.loc 1 241 0
 646 0062 3B69     		ldr	r3, [r7, #16]
 647 0064 5B6A     		ldr	r3, [r3, #36]
 648 0066 002B     		cmp	r3, #0
 649 0068 04D0     		beq	.L44
 242:C:/Users/dtjld/Desktop/AIoT_software/LiteOS_Lab_overseas/LiteOS_Lab/iot_link/network/lwm2m/wakaama_lwm2m/core\registration.c ****             {
 243:C:/Users/dtjld/Desktop/AIoT_software/LiteOS_Lab_overseas/LiteOS_Lab/iot_link/network/lwm2m/wakaama_lwm2m/core\registration.c ****                 lwm2m_free(targetP->location);
 650              		.loc 1 243 0
ARM GAS  C:\Users\dtjld\AppData\Local\Temp\cctLUSig.s 			page 17


 651 006a 3B69     		ldr	r3, [r7, #16]
 652 006c 5B6A     		ldr	r3, [r3, #36]
 653 006e 1846     		mov	r0, r3
 654 0070 FFF7FEFF 		bl	lwm2m_free
 655              	.L44:
 244:C:/Users/dtjld/Desktop/AIoT_software/LiteOS_Lab_overseas/LiteOS_Lab/iot_link/network/lwm2m/wakaama_lwm2m/core\registration.c ****             }
 245:C:/Users/dtjld/Desktop/AIoT_software/LiteOS_Lab_overseas/LiteOS_Lab/iot_link/network/lwm2m/wakaama_lwm2m/core\registration.c ****             targetP->location = coap_get_multi_option_as_string(packet->location_path);
 656              		.loc 1 245 0
 657 0074 7B69     		ldr	r3, [r7, #20]
 658 0076 5B6B     		ldr	r3, [r3, #52]
 659 0078 1846     		mov	r0, r3
 660 007a FFF7FEFF 		bl	coap_get_multi_option_as_string
 661 007e 0246     		mov	r2, r0
 662 0080 3B69     		ldr	r3, [r7, #16]
 663 0082 5A62     		str	r2, [r3, #36]
 246:C:/Users/dtjld/Desktop/AIoT_software/LiteOS_Lab_overseas/LiteOS_Lab/iot_link/network/lwm2m/wakaama_lwm2m/core\registration.c **** 
 247:C:/Users/dtjld/Desktop/AIoT_software/LiteOS_Lab_overseas/LiteOS_Lab/iot_link/network/lwm2m/wakaama_lwm2m/core\registration.c ****             LOG("Registration successful");
 664              		.loc 1 247 0
 665 0084 FFF7FEFF 		bl	lwm2m_gettime
 666 0088 0346     		mov	r3, r0
 667 008a 0C46     		mov	r4, r1
 668 008c 1946     		mov	r1, r3
 669 008e F723     		movs	r3, #247
 670 0090 0B4A     		ldr	r2, .L46
 671 0092 0D48     		ldr	r0, .L46+8
 672 0094 FFF7FEFF 		bl	atiny_printf
 673              	.LBE2:
 248:C:/Users/dtjld/Desktop/AIoT_software/LiteOS_Lab_overseas/LiteOS_Lab/iot_link/network/lwm2m/wakaama_lwm2m/core\registration.c ****         }
 249:C:/Users/dtjld/Desktop/AIoT_software/LiteOS_Lab_overseas/LiteOS_Lab/iot_link/network/lwm2m/wakaama_lwm2m/core\registration.c ****         else
 250:C:/Users/dtjld/Desktop/AIoT_software/LiteOS_Lab_overseas/LiteOS_Lab/iot_link/network/lwm2m/wakaama_lwm2m/core\registration.c ****         {
 251:C:/Users/dtjld/Desktop/AIoT_software/LiteOS_Lab_overseas/LiteOS_Lab/iot_link/network/lwm2m/wakaama_lwm2m/core\registration.c ****             targetP->status = STATE_REG_FAILED;
 252:C:/Users/dtjld/Desktop/AIoT_software/LiteOS_Lab_overseas/LiteOS_Lab/iot_link/network/lwm2m/wakaama_lwm2m/core\registration.c ****             LOG("Registration failed");
 253:C:/Users/dtjld/Desktop/AIoT_software/LiteOS_Lab_overseas/LiteOS_Lab/iot_link/network/lwm2m/wakaama_lwm2m/core\registration.c ****         }
 254:C:/Users/dtjld/Desktop/AIoT_software/LiteOS_Lab_overseas/LiteOS_Lab/iot_link/network/lwm2m/wakaama_lwm2m/core\registration.c ****     }
 255:C:/Users/dtjld/Desktop/AIoT_software/LiteOS_Lab_overseas/LiteOS_Lab/iot_link/network/lwm2m/wakaama_lwm2m/core\registration.c **** }
 674              		.loc 1 255 0
 675 0098 0DE0     		b	.L45
 676              	.L43:
 677              	.LBB3:
 251:C:/Users/dtjld/Desktop/AIoT_software/LiteOS_Lab_overseas/LiteOS_Lab/iot_link/network/lwm2m/wakaama_lwm2m/core\registration.c ****             LOG("Registration failed");
 678              		.loc 1 251 0
 679 009a 3B69     		ldr	r3, [r7, #16]
 680 009c 0322     		movs	r2, #3
 681 009e 83F82020 		strb	r2, [r3, #32]
 252:C:/Users/dtjld/Desktop/AIoT_software/LiteOS_Lab_overseas/LiteOS_Lab/iot_link/network/lwm2m/wakaama_lwm2m/core\registration.c ****         }
 682              		.loc 1 252 0
 683 00a2 FFF7FEFF 		bl	lwm2m_gettime
 684 00a6 0346     		mov	r3, r0
 685 00a8 0C46     		mov	r4, r1
 686 00aa 1946     		mov	r1, r3
 687 00ac FC23     		movs	r3, #252
 688 00ae 044A     		ldr	r2, .L46
 689 00b0 0648     		ldr	r0, .L46+12
 690 00b2 FFF7FEFF 		bl	atiny_printf
 691              	.L45:
 692              	.LBE3:
 693              		.loc 1 255 0
ARM GAS  C:\Users\dtjld\AppData\Local\Temp\cctLUSig.s 			page 18


 694 00b6 00BF     		nop
 695 00b8 1C37     		adds	r7, r7, #28
 696              	.LCFI13:
 697              		.cfi_def_cfa_offset 12
 698 00ba BD46     		mov	sp, r7
 699              	.LCFI14:
 700              		.cfi_def_cfa_register 13
 701              		@ sp needed
 702 00bc 90BD     		pop	{r4, r7, pc}
 703              	.L47:
 704 00be 00BF     		.align	2
 705              	.L46:
 706 00c0 00000000 		.word	__func__.8540
 707 00c4 50000000 		.word	.LC9
 708 00c8 88000000 		.word	.LC10
 709 00cc B0000000 		.word	.LC11
 710              		.cfi_endproc
 711              	.LFE6:
 713              		.section	.rodata
 714 00d2 0000     		.align	2
 715              	.LC12:
 716 00d4 2F726400 		.ascii	"/rd\000"
 717              		.section	.text.prv_register,"ax",%progbits
 718              		.align	1
 719              		.syntax unified
 720              		.thumb
 721              		.thumb_func
 722              		.fpu fpv4-sp-d16
 724              	prv_register:
 725              	.LFB7:
 256:C:/Users/dtjld/Desktop/AIoT_software/LiteOS_Lab_overseas/LiteOS_Lab/iot_link/network/lwm2m/wakaama_lwm2m/core\registration.c **** 
 257:C:/Users/dtjld/Desktop/AIoT_software/LiteOS_Lab_overseas/LiteOS_Lab/iot_link/network/lwm2m/wakaama_lwm2m/core\registration.c **** // send the registration for a single server
 258:C:/Users/dtjld/Desktop/AIoT_software/LiteOS_Lab_overseas/LiteOS_Lab/iot_link/network/lwm2m/wakaama_lwm2m/core\registration.c **** static uint8_t prv_register(lwm2m_context_t *contextP,
 259:C:/Users/dtjld/Desktop/AIoT_software/LiteOS_Lab_overseas/LiteOS_Lab/iot_link/network/lwm2m/wakaama_lwm2m/core\registration.c ****                             lwm2m_server_t *server)
 260:C:/Users/dtjld/Desktop/AIoT_software/LiteOS_Lab_overseas/LiteOS_Lab/iot_link/network/lwm2m/wakaama_lwm2m/core\registration.c **** {
 726              		.loc 1 260 0
 727              		.cfi_startproc
 728              		@ args = 0, pretend = 0, frame = 32
 729              		@ frame_needed = 1, uses_anonymous_args = 0
 730 0000 80B5     		push	{r7, lr}
 731              	.LCFI15:
 732              		.cfi_def_cfa_offset 8
 733              		.cfi_offset 7, -8
 734              		.cfi_offset 14, -4
 735 0002 8CB0     		sub	sp, sp, #48
 736              	.LCFI16:
 737              		.cfi_def_cfa_offset 56
 738 0004 04AF     		add	r7, sp, #16
 739              	.LCFI17:
 740              		.cfi_def_cfa 7, 40
 741 0006 7860     		str	r0, [r7, #4]
 742 0008 3960     		str	r1, [r7]
 261:C:/Users/dtjld/Desktop/AIoT_software/LiteOS_Lab_overseas/LiteOS_Lab/iot_link/network/lwm2m/wakaama_lwm2m/core\registration.c ****     char *query;
 262:C:/Users/dtjld/Desktop/AIoT_software/LiteOS_Lab_overseas/LiteOS_Lab/iot_link/network/lwm2m/wakaama_lwm2m/core\registration.c ****     int query_length;
 263:C:/Users/dtjld/Desktop/AIoT_software/LiteOS_Lab_overseas/LiteOS_Lab/iot_link/network/lwm2m/wakaama_lwm2m/core\registration.c ****     uint8_t *payload;
 264:C:/Users/dtjld/Desktop/AIoT_software/LiteOS_Lab_overseas/LiteOS_Lab/iot_link/network/lwm2m/wakaama_lwm2m/core\registration.c ****     int payload_length;
 265:C:/Users/dtjld/Desktop/AIoT_software/LiteOS_Lab_overseas/LiteOS_Lab/iot_link/network/lwm2m/wakaama_lwm2m/core\registration.c ****     lwm2m_transaction_t *transaction;
ARM GAS  C:\Users\dtjld\AppData\Local\Temp\cctLUSig.s 			page 19


 266:C:/Users/dtjld/Desktop/AIoT_software/LiteOS_Lab_overseas/LiteOS_Lab/iot_link/network/lwm2m/wakaama_lwm2m/core\registration.c **** 
 267:C:/Users/dtjld/Desktop/AIoT_software/LiteOS_Lab_overseas/LiteOS_Lab/iot_link/network/lwm2m/wakaama_lwm2m/core\registration.c ****     payload_length = object_getRegisterPayloadBufferLength(contextP);
 743              		.loc 1 267 0
 744 000a 7868     		ldr	r0, [r7, #4]
 745 000c FFF7FEFF 		bl	object_getRegisterPayloadBufferLength
 746 0010 F861     		str	r0, [r7, #28]
 268:C:/Users/dtjld/Desktop/AIoT_software/LiteOS_Lab_overseas/LiteOS_Lab/iot_link/network/lwm2m/wakaama_lwm2m/core\registration.c ****     if(payload_length == 0) return COAP_500_INTERNAL_SERVER_ERROR;
 747              		.loc 1 268 0
 748 0012 FB69     		ldr	r3, [r7, #28]
 749 0014 002B     		cmp	r3, #0
 750 0016 01D1     		bne	.L49
 751              		.loc 1 268 0 is_stmt 0 discriminator 1
 752 0018 A023     		movs	r3, #160
 753 001a BFE0     		b	.L50
 754              	.L49:
 269:C:/Users/dtjld/Desktop/AIoT_software/LiteOS_Lab_overseas/LiteOS_Lab/iot_link/network/lwm2m/wakaama_lwm2m/core\registration.c ****     payload = lwm2m_malloc(payload_length);
 755              		.loc 1 269 0 is_stmt 1
 756 001c FB69     		ldr	r3, [r7, #28]
 757 001e 1846     		mov	r0, r3
 758 0020 FFF7FEFF 		bl	lwm2m_malloc
 759 0024 B861     		str	r0, [r7, #24]
 270:C:/Users/dtjld/Desktop/AIoT_software/LiteOS_Lab_overseas/LiteOS_Lab/iot_link/network/lwm2m/wakaama_lwm2m/core\registration.c ****     if(!payload) return COAP_500_INTERNAL_SERVER_ERROR;
 760              		.loc 1 270 0
 761 0026 BB69     		ldr	r3, [r7, #24]
 762 0028 002B     		cmp	r3, #0
 763 002a 01D1     		bne	.L51
 764              		.loc 1 270 0 is_stmt 0 discriminator 1
 765 002c A023     		movs	r3, #160
 766 002e B5E0     		b	.L50
 767              	.L51:
 271:C:/Users/dtjld/Desktop/AIoT_software/LiteOS_Lab_overseas/LiteOS_Lab/iot_link/network/lwm2m/wakaama_lwm2m/core\registration.c ****     payload_length = object_getRegisterPayload(contextP, payload, payload_length);
 768              		.loc 1 271 0 is_stmt 1
 769 0030 FB69     		ldr	r3, [r7, #28]
 770 0032 1A46     		mov	r2, r3
 771 0034 B969     		ldr	r1, [r7, #24]
 772 0036 7868     		ldr	r0, [r7, #4]
 773 0038 FFF7FEFF 		bl	object_getRegisterPayload
 774 003c F861     		str	r0, [r7, #28]
 272:C:/Users/dtjld/Desktop/AIoT_software/LiteOS_Lab_overseas/LiteOS_Lab/iot_link/network/lwm2m/wakaama_lwm2m/core\registration.c ****     if(payload_length == 0)
 775              		.loc 1 272 0
 776 003e FB69     		ldr	r3, [r7, #28]
 777 0040 002B     		cmp	r3, #0
 778 0042 04D1     		bne	.L52
 273:C:/Users/dtjld/Desktop/AIoT_software/LiteOS_Lab_overseas/LiteOS_Lab/iot_link/network/lwm2m/wakaama_lwm2m/core\registration.c ****     {
 274:C:/Users/dtjld/Desktop/AIoT_software/LiteOS_Lab_overseas/LiteOS_Lab/iot_link/network/lwm2m/wakaama_lwm2m/core\registration.c ****         lwm2m_free(payload);
 779              		.loc 1 274 0
 780 0044 B869     		ldr	r0, [r7, #24]
 781 0046 FFF7FEFF 		bl	lwm2m_free
 275:C:/Users/dtjld/Desktop/AIoT_software/LiteOS_Lab_overseas/LiteOS_Lab/iot_link/network/lwm2m/wakaama_lwm2m/core\registration.c ****         return COAP_500_INTERNAL_SERVER_ERROR;
 782              		.loc 1 275 0
 783 004a A023     		movs	r3, #160
 784 004c A6E0     		b	.L50
 785              	.L52:
 276:C:/Users/dtjld/Desktop/AIoT_software/LiteOS_Lab_overseas/LiteOS_Lab/iot_link/network/lwm2m/wakaama_lwm2m/core\registration.c ****     }
 277:C:/Users/dtjld/Desktop/AIoT_software/LiteOS_Lab_overseas/LiteOS_Lab/iot_link/network/lwm2m/wakaama_lwm2m/core\registration.c **** 
 278:C:/Users/dtjld/Desktop/AIoT_software/LiteOS_Lab_overseas/LiteOS_Lab/iot_link/network/lwm2m/wakaama_lwm2m/core\registration.c ****     query_length = prv_getRegistrationQueryLength(contextP, server);
 786              		.loc 1 278 0
ARM GAS  C:\Users\dtjld\AppData\Local\Temp\cctLUSig.s 			page 20


 787 004e 3968     		ldr	r1, [r7]
 788 0050 7868     		ldr	r0, [r7, #4]
 789 0052 FFF7FEFF 		bl	prv_getRegistrationQueryLength
 790 0056 7861     		str	r0, [r7, #20]
 279:C:/Users/dtjld/Desktop/AIoT_software/LiteOS_Lab_overseas/LiteOS_Lab/iot_link/network/lwm2m/wakaama_lwm2m/core\registration.c ****     if(query_length == 0)
 791              		.loc 1 279 0
 792 0058 7B69     		ldr	r3, [r7, #20]
 793 005a 002B     		cmp	r3, #0
 794 005c 04D1     		bne	.L53
 280:C:/Users/dtjld/Desktop/AIoT_software/LiteOS_Lab_overseas/LiteOS_Lab/iot_link/network/lwm2m/wakaama_lwm2m/core\registration.c ****     {
 281:C:/Users/dtjld/Desktop/AIoT_software/LiteOS_Lab_overseas/LiteOS_Lab/iot_link/network/lwm2m/wakaama_lwm2m/core\registration.c ****         lwm2m_free(payload);
 795              		.loc 1 281 0
 796 005e B869     		ldr	r0, [r7, #24]
 797 0060 FFF7FEFF 		bl	lwm2m_free
 282:C:/Users/dtjld/Desktop/AIoT_software/LiteOS_Lab_overseas/LiteOS_Lab/iot_link/network/lwm2m/wakaama_lwm2m/core\registration.c ****         return COAP_500_INTERNAL_SERVER_ERROR;
 798              		.loc 1 282 0
 799 0064 A023     		movs	r3, #160
 800 0066 99E0     		b	.L50
 801              	.L53:
 283:C:/Users/dtjld/Desktop/AIoT_software/LiteOS_Lab_overseas/LiteOS_Lab/iot_link/network/lwm2m/wakaama_lwm2m/core\registration.c ****     }
 284:C:/Users/dtjld/Desktop/AIoT_software/LiteOS_Lab_overseas/LiteOS_Lab/iot_link/network/lwm2m/wakaama_lwm2m/core\registration.c ****     query = lwm2m_malloc(query_length);
 802              		.loc 1 284 0
 803 0068 7B69     		ldr	r3, [r7, #20]
 804 006a 1846     		mov	r0, r3
 805 006c FFF7FEFF 		bl	lwm2m_malloc
 806 0070 3861     		str	r0, [r7, #16]
 285:C:/Users/dtjld/Desktop/AIoT_software/LiteOS_Lab_overseas/LiteOS_Lab/iot_link/network/lwm2m/wakaama_lwm2m/core\registration.c ****     if(!query)
 807              		.loc 1 285 0
 808 0072 3B69     		ldr	r3, [r7, #16]
 809 0074 002B     		cmp	r3, #0
 810 0076 04D1     		bne	.L54
 286:C:/Users/dtjld/Desktop/AIoT_software/LiteOS_Lab_overseas/LiteOS_Lab/iot_link/network/lwm2m/wakaama_lwm2m/core\registration.c ****     {
 287:C:/Users/dtjld/Desktop/AIoT_software/LiteOS_Lab_overseas/LiteOS_Lab/iot_link/network/lwm2m/wakaama_lwm2m/core\registration.c ****         lwm2m_free(payload);
 811              		.loc 1 287 0
 812 0078 B869     		ldr	r0, [r7, #24]
 813 007a FFF7FEFF 		bl	lwm2m_free
 288:C:/Users/dtjld/Desktop/AIoT_software/LiteOS_Lab_overseas/LiteOS_Lab/iot_link/network/lwm2m/wakaama_lwm2m/core\registration.c ****         return COAP_500_INTERNAL_SERVER_ERROR;
 814              		.loc 1 288 0
 815 007e A023     		movs	r3, #160
 816 0080 8CE0     		b	.L50
 817              	.L54:
 289:C:/Users/dtjld/Desktop/AIoT_software/LiteOS_Lab_overseas/LiteOS_Lab/iot_link/network/lwm2m/wakaama_lwm2m/core\registration.c ****     }
 290:C:/Users/dtjld/Desktop/AIoT_software/LiteOS_Lab_overseas/LiteOS_Lab/iot_link/network/lwm2m/wakaama_lwm2m/core\registration.c ****     if(prv_getRegistrationQuery(contextP, server, query, query_length) != query_length)
 818              		.loc 1 290 0
 819 0082 7B69     		ldr	r3, [r7, #20]
 820 0084 3A69     		ldr	r2, [r7, #16]
 821 0086 3968     		ldr	r1, [r7]
 822 0088 7868     		ldr	r0, [r7, #4]
 823 008a FFF7FEFF 		bl	prv_getRegistrationQuery
 824 008e 0246     		mov	r2, r0
 825 0090 7B69     		ldr	r3, [r7, #20]
 826 0092 9342     		cmp	r3, r2
 827 0094 07D0     		beq	.L55
 291:C:/Users/dtjld/Desktop/AIoT_software/LiteOS_Lab_overseas/LiteOS_Lab/iot_link/network/lwm2m/wakaama_lwm2m/core\registration.c ****     {
 292:C:/Users/dtjld/Desktop/AIoT_software/LiteOS_Lab_overseas/LiteOS_Lab/iot_link/network/lwm2m/wakaama_lwm2m/core\registration.c ****         lwm2m_free(payload);
 828              		.loc 1 292 0
 829 0096 B869     		ldr	r0, [r7, #24]
ARM GAS  C:\Users\dtjld\AppData\Local\Temp\cctLUSig.s 			page 21


 830 0098 FFF7FEFF 		bl	lwm2m_free
 293:C:/Users/dtjld/Desktop/AIoT_software/LiteOS_Lab_overseas/LiteOS_Lab/iot_link/network/lwm2m/wakaama_lwm2m/core\registration.c ****         lwm2m_free(query);
 831              		.loc 1 293 0
 832 009c 3869     		ldr	r0, [r7, #16]
 833 009e FFF7FEFF 		bl	lwm2m_free
 294:C:/Users/dtjld/Desktop/AIoT_software/LiteOS_Lab_overseas/LiteOS_Lab/iot_link/network/lwm2m/wakaama_lwm2m/core\registration.c ****         return COAP_500_INTERNAL_SERVER_ERROR;
 834              		.loc 1 294 0
 835 00a2 A023     		movs	r3, #160
 836 00a4 7AE0     		b	.L50
 837              	.L55:
 295:C:/Users/dtjld/Desktop/AIoT_software/LiteOS_Lab_overseas/LiteOS_Lab/iot_link/network/lwm2m/wakaama_lwm2m/core\registration.c ****     }
 296:C:/Users/dtjld/Desktop/AIoT_software/LiteOS_Lab_overseas/LiteOS_Lab/iot_link/network/lwm2m/wakaama_lwm2m/core\registration.c **** 
 297:C:/Users/dtjld/Desktop/AIoT_software/LiteOS_Lab_overseas/LiteOS_Lab/iot_link/network/lwm2m/wakaama_lwm2m/core\registration.c ****     if (server->sessionH == NULL)
 838              		.loc 1 297 0
 839 00a6 3B68     		ldr	r3, [r7]
 840 00a8 DB69     		ldr	r3, [r3, #28]
 841 00aa 002B     		cmp	r3, #0
 842 00ac 0AD1     		bne	.L56
 298:C:/Users/dtjld/Desktop/AIoT_software/LiteOS_Lab_overseas/LiteOS_Lab/iot_link/network/lwm2m/wakaama_lwm2m/core\registration.c ****     {
 299:C:/Users/dtjld/Desktop/AIoT_software/LiteOS_Lab_overseas/LiteOS_Lab/iot_link/network/lwm2m/wakaama_lwm2m/core\registration.c ****         server->sessionH = lwm2m_connect_server(server->secObjInstID, contextP->userData, false);
 843              		.loc 1 299 0
 844 00ae 3B68     		ldr	r3, [r7]
 845 00b0 9888     		ldrh	r0, [r3, #4]
 846 00b2 7B68     		ldr	r3, [r7, #4]
 847 00b4 5B6B     		ldr	r3, [r3, #52]
 848 00b6 0022     		movs	r2, #0
 849 00b8 1946     		mov	r1, r3
 850 00ba FFF7FEFF 		bl	lwm2m_connect_server
 851 00be 0246     		mov	r2, r0
 852 00c0 3B68     		ldr	r3, [r7]
 853 00c2 DA61     		str	r2, [r3, #28]
 854              	.L56:
 300:C:/Users/dtjld/Desktop/AIoT_software/LiteOS_Lab_overseas/LiteOS_Lab/iot_link/network/lwm2m/wakaama_lwm2m/core\registration.c ****     }
 301:C:/Users/dtjld/Desktop/AIoT_software/LiteOS_Lab_overseas/LiteOS_Lab/iot_link/network/lwm2m/wakaama_lwm2m/core\registration.c **** 
 302:C:/Users/dtjld/Desktop/AIoT_software/LiteOS_Lab_overseas/LiteOS_Lab/iot_link/network/lwm2m/wakaama_lwm2m/core\registration.c ****     if (NULL == server->sessionH)
 855              		.loc 1 302 0
 856 00c4 3B68     		ldr	r3, [r7]
 857 00c6 DB69     		ldr	r3, [r3, #28]
 858 00c8 002B     		cmp	r3, #0
 859 00ca 07D1     		bne	.L57
 303:C:/Users/dtjld/Desktop/AIoT_software/LiteOS_Lab_overseas/LiteOS_Lab/iot_link/network/lwm2m/wakaama_lwm2m/core\registration.c ****     {
 304:C:/Users/dtjld/Desktop/AIoT_software/LiteOS_Lab_overseas/LiteOS_Lab/iot_link/network/lwm2m/wakaama_lwm2m/core\registration.c ****         lwm2m_free(payload);
 860              		.loc 1 304 0
 861 00cc B869     		ldr	r0, [r7, #24]
 862 00ce FFF7FEFF 		bl	lwm2m_free
 305:C:/Users/dtjld/Desktop/AIoT_software/LiteOS_Lab_overseas/LiteOS_Lab/iot_link/network/lwm2m/wakaama_lwm2m/core\registration.c ****         lwm2m_free(query);
 863              		.loc 1 305 0
 864 00d2 3869     		ldr	r0, [r7, #16]
 865 00d4 FFF7FEFF 		bl	lwm2m_free
 306:C:/Users/dtjld/Desktop/AIoT_software/LiteOS_Lab_overseas/LiteOS_Lab/iot_link/network/lwm2m/wakaama_lwm2m/core\registration.c ****         return COAP_503_SERVICE_UNAVAILABLE;
 866              		.loc 1 306 0
 867 00d8 A323     		movs	r3, #163
 868 00da 5FE0     		b	.L50
 869              	.L57:
 307:C:/Users/dtjld/Desktop/AIoT_software/LiteOS_Lab_overseas/LiteOS_Lab/iot_link/network/lwm2m/wakaama_lwm2m/core\registration.c ****     }
 308:C:/Users/dtjld/Desktop/AIoT_software/LiteOS_Lab_overseas/LiteOS_Lab/iot_link/network/lwm2m/wakaama_lwm2m/core\registration.c **** 
 309:C:/Users/dtjld/Desktop/AIoT_software/LiteOS_Lab_overseas/LiteOS_Lab/iot_link/network/lwm2m/wakaama_lwm2m/core\registration.c ****     transaction = transaction_new(server->sessionH, COAP_POST, NULL, NULL, contextP->nextMID++, 4, 
ARM GAS  C:\Users\dtjld\AppData\Local\Temp\cctLUSig.s 			page 22


 870              		.loc 1 309 0
 871 00dc 3B68     		ldr	r3, [r7]
 872 00de D869     		ldr	r0, [r3, #28]
 873 00e0 7B68     		ldr	r3, [r7, #4]
 874 00e2 9B8D     		ldrh	r3, [r3, #44]
 875 00e4 5A1C     		adds	r2, r3, #1
 876 00e6 91B2     		uxth	r1, r2
 877 00e8 7A68     		ldr	r2, [r7, #4]
 878 00ea 9185     		strh	r1, [r2, #44]	@ movhi
 879 00ec 0022     		movs	r2, #0
 880 00ee 0292     		str	r2, [sp, #8]
 881 00f0 0422     		movs	r2, #4
 882 00f2 0192     		str	r2, [sp, #4]
 883 00f4 0093     		str	r3, [sp]
 884 00f6 0023     		movs	r3, #0
 885 00f8 0022     		movs	r2, #0
 886 00fa 0221     		movs	r1, #2
 887 00fc FFF7FEFF 		bl	transaction_new
 888 0100 F860     		str	r0, [r7, #12]
 310:C:/Users/dtjld/Desktop/AIoT_software/LiteOS_Lab_overseas/LiteOS_Lab/iot_link/network/lwm2m/wakaama_lwm2m/core\registration.c ****     if (transaction == NULL)
 889              		.loc 1 310 0
 890 0102 FB68     		ldr	r3, [r7, #12]
 891 0104 002B     		cmp	r3, #0
 892 0106 07D1     		bne	.L58
 311:C:/Users/dtjld/Desktop/AIoT_software/LiteOS_Lab_overseas/LiteOS_Lab/iot_link/network/lwm2m/wakaama_lwm2m/core\registration.c ****     {
 312:C:/Users/dtjld/Desktop/AIoT_software/LiteOS_Lab_overseas/LiteOS_Lab/iot_link/network/lwm2m/wakaama_lwm2m/core\registration.c ****         lwm2m_free(payload);
 893              		.loc 1 312 0
 894 0108 B869     		ldr	r0, [r7, #24]
 895 010a FFF7FEFF 		bl	lwm2m_free
 313:C:/Users/dtjld/Desktop/AIoT_software/LiteOS_Lab_overseas/LiteOS_Lab/iot_link/network/lwm2m/wakaama_lwm2m/core\registration.c ****         lwm2m_free(query);
 896              		.loc 1 313 0
 897 010e 3869     		ldr	r0, [r7, #16]
 898 0110 FFF7FEFF 		bl	lwm2m_free
 314:C:/Users/dtjld/Desktop/AIoT_software/LiteOS_Lab_overseas/LiteOS_Lab/iot_link/network/lwm2m/wakaama_lwm2m/core\registration.c ****         return COAP_503_SERVICE_UNAVAILABLE;
 899              		.loc 1 314 0
 900 0114 A323     		movs	r3, #163
 901 0116 41E0     		b	.L50
 902              	.L58:
 315:C:/Users/dtjld/Desktop/AIoT_software/LiteOS_Lab_overseas/LiteOS_Lab/iot_link/network/lwm2m/wakaama_lwm2m/core\registration.c ****     }
 316:C:/Users/dtjld/Desktop/AIoT_software/LiteOS_Lab_overseas/LiteOS_Lab/iot_link/network/lwm2m/wakaama_lwm2m/core\registration.c ****     //    coap_pdu_t *pdu = (coap_pdu_t *)(transaction->message);
 317:C:/Users/dtjld/Desktop/AIoT_software/LiteOS_Lab_overseas/LiteOS_Lab/iot_link/network/lwm2m/wakaama_lwm2m/core\registration.c **** 
 318:C:/Users/dtjld/Desktop/AIoT_software/LiteOS_Lab_overseas/LiteOS_Lab/iot_link/network/lwm2m/wakaama_lwm2m/core\registration.c ****     coap_set_header_uri_path(transaction->message, "/"URI_REGISTRATION_SEGMENT);
 903              		.loc 1 318 0
 904 0118 FB68     		ldr	r3, [r7, #12]
 905 011a 9B6A     		ldr	r3, [r3, #40]
 906 011c 2149     		ldr	r1, .L60
 907 011e 1846     		mov	r0, r3
 908 0120 FFF7FEFF 		bl	coap_set_header_uri_path
 319:C:/Users/dtjld/Desktop/AIoT_software/LiteOS_Lab_overseas/LiteOS_Lab/iot_link/network/lwm2m/wakaama_lwm2m/core\registration.c ****     coap_set_header_uri_query(transaction->message, query);
 909              		.loc 1 319 0
 910 0124 FB68     		ldr	r3, [r7, #12]
 911 0126 9B6A     		ldr	r3, [r3, #40]
 912 0128 3969     		ldr	r1, [r7, #16]
 913 012a 1846     		mov	r0, r3
 914 012c FFF7FEFF 		bl	coap_set_header_uri_query
 320:C:/Users/dtjld/Desktop/AIoT_software/LiteOS_Lab_overseas/LiteOS_Lab/iot_link/network/lwm2m/wakaama_lwm2m/core\registration.c ****     coap_set_header_content_type(transaction->message, LWM2M_CONTENT_LINK);
 915              		.loc 1 320 0
ARM GAS  C:\Users\dtjld\AppData\Local\Temp\cctLUSig.s 			page 23


 916 0130 FB68     		ldr	r3, [r7, #12]
 917 0132 9B6A     		ldr	r3, [r3, #40]
 918 0134 2821     		movs	r1, #40
 919 0136 1846     		mov	r0, r3
 920 0138 FFF7FEFF 		bl	coap_set_header_content_type
 321:C:/Users/dtjld/Desktop/AIoT_software/LiteOS_Lab_overseas/LiteOS_Lab/iot_link/network/lwm2m/wakaama_lwm2m/core\registration.c ****     coap_set_payload(transaction->message, payload, payload_length);
 921              		.loc 1 321 0
 922 013c FB68     		ldr	r3, [r7, #12]
 923 013e 9B6A     		ldr	r3, [r3, #40]
 924 0140 FA69     		ldr	r2, [r7, #28]
 925 0142 B969     		ldr	r1, [r7, #24]
 926 0144 1846     		mov	r0, r3
 927 0146 FFF7FEFF 		bl	coap_set_payload
 322:C:/Users/dtjld/Desktop/AIoT_software/LiteOS_Lab_overseas/LiteOS_Lab/iot_link/network/lwm2m/wakaama_lwm2m/core\registration.c **** 
 323:C:/Users/dtjld/Desktop/AIoT_software/LiteOS_Lab_overseas/LiteOS_Lab/iot_link/network/lwm2m/wakaama_lwm2m/core\registration.c ****     transaction->callback = prv_handleRegistrationReply;
 928              		.loc 1 323 0
 929 014a FB68     		ldr	r3, [r7, #12]
 930 014c 164A     		ldr	r2, .L60+4
 931 014e 1A64     		str	r2, [r3, #64]
 324:C:/Users/dtjld/Desktop/AIoT_software/LiteOS_Lab_overseas/LiteOS_Lab/iot_link/network/lwm2m/wakaama_lwm2m/core\registration.c ****     transaction->userData = (void *) server;
 932              		.loc 1 324 0
 933 0150 FB68     		ldr	r3, [r7, #12]
 934 0152 3A68     		ldr	r2, [r7]
 935 0154 5A64     		str	r2, [r3, #68]
 325:C:/Users/dtjld/Desktop/AIoT_software/LiteOS_Lab_overseas/LiteOS_Lab/iot_link/network/lwm2m/wakaama_lwm2m/core\registration.c **** 
 326:C:/Users/dtjld/Desktop/AIoT_software/LiteOS_Lab_overseas/LiteOS_Lab/iot_link/network/lwm2m/wakaama_lwm2m/core\registration.c ****     contextP->transactionList = (lwm2m_transaction_t *)LWM2M_LIST_ADD(contextP->transactionList, tr
 936              		.loc 1 326 0
 937 0156 7B68     		ldr	r3, [r7, #4]
 938 0158 1B6B     		ldr	r3, [r3, #48]
 939 015a F968     		ldr	r1, [r7, #12]
 940 015c 1846     		mov	r0, r3
 941 015e FFF7FEFF 		bl	lwm2m_list_add
 942 0162 0246     		mov	r2, r0
 943 0164 7B68     		ldr	r3, [r7, #4]
 944 0166 1A63     		str	r2, [r3, #48]
 327:C:/Users/dtjld/Desktop/AIoT_software/LiteOS_Lab_overseas/LiteOS_Lab/iot_link/network/lwm2m/wakaama_lwm2m/core\registration.c ****     if (transaction_send(contextP, transaction) != 0)
 945              		.loc 1 327 0
 946 0168 F968     		ldr	r1, [r7, #12]
 947 016a 7868     		ldr	r0, [r7, #4]
 948 016c FFF7FEFF 		bl	transaction_send
 949 0170 0346     		mov	r3, r0
 950 0172 002B     		cmp	r3, #0
 951 0174 07D0     		beq	.L59
 328:C:/Users/dtjld/Desktop/AIoT_software/LiteOS_Lab_overseas/LiteOS_Lab/iot_link/network/lwm2m/wakaama_lwm2m/core\registration.c ****     {
 329:C:/Users/dtjld/Desktop/AIoT_software/LiteOS_Lab_overseas/LiteOS_Lab/iot_link/network/lwm2m/wakaama_lwm2m/core\registration.c ****         lwm2m_free(payload);
 952              		.loc 1 329 0
 953 0176 B869     		ldr	r0, [r7, #24]
 954 0178 FFF7FEFF 		bl	lwm2m_free
 330:C:/Users/dtjld/Desktop/AIoT_software/LiteOS_Lab_overseas/LiteOS_Lab/iot_link/network/lwm2m/wakaama_lwm2m/core\registration.c ****         lwm2m_free(query);
 955              		.loc 1 330 0
 956 017c 3869     		ldr	r0, [r7, #16]
 957 017e FFF7FEFF 		bl	lwm2m_free
 331:C:/Users/dtjld/Desktop/AIoT_software/LiteOS_Lab_overseas/LiteOS_Lab/iot_link/network/lwm2m/wakaama_lwm2m/core\registration.c ****         return COAP_503_SERVICE_UNAVAILABLE;
 958              		.loc 1 331 0
 959 0182 A323     		movs	r3, #163
 960 0184 0AE0     		b	.L50
 961              	.L59:
ARM GAS  C:\Users\dtjld\AppData\Local\Temp\cctLUSig.s 			page 24


 332:C:/Users/dtjld/Desktop/AIoT_software/LiteOS_Lab_overseas/LiteOS_Lab/iot_link/network/lwm2m/wakaama_lwm2m/core\registration.c ****     }
 333:C:/Users/dtjld/Desktop/AIoT_software/LiteOS_Lab_overseas/LiteOS_Lab/iot_link/network/lwm2m/wakaama_lwm2m/core\registration.c **** 
 334:C:/Users/dtjld/Desktop/AIoT_software/LiteOS_Lab_overseas/LiteOS_Lab/iot_link/network/lwm2m/wakaama_lwm2m/core\registration.c ****     lwm2m_free(payload);
 962              		.loc 1 334 0
 963 0186 B869     		ldr	r0, [r7, #24]
 964 0188 FFF7FEFF 		bl	lwm2m_free
 335:C:/Users/dtjld/Desktop/AIoT_software/LiteOS_Lab_overseas/LiteOS_Lab/iot_link/network/lwm2m/wakaama_lwm2m/core\registration.c ****     lwm2m_free(query);
 965              		.loc 1 335 0
 966 018c 3869     		ldr	r0, [r7, #16]
 967 018e FFF7FEFF 		bl	lwm2m_free
 336:C:/Users/dtjld/Desktop/AIoT_software/LiteOS_Lab_overseas/LiteOS_Lab/iot_link/network/lwm2m/wakaama_lwm2m/core\registration.c **** 
 337:C:/Users/dtjld/Desktop/AIoT_software/LiteOS_Lab_overseas/LiteOS_Lab/iot_link/network/lwm2m/wakaama_lwm2m/core\registration.c ****     server->status = STATE_REG_PENDING;
 968              		.loc 1 337 0
 969 0192 3B68     		ldr	r3, [r7]
 970 0194 0122     		movs	r2, #1
 971 0196 83F82020 		strb	r2, [r3, #32]
 338:C:/Users/dtjld/Desktop/AIoT_software/LiteOS_Lab_overseas/LiteOS_Lab/iot_link/network/lwm2m/wakaama_lwm2m/core\registration.c **** 
 339:C:/Users/dtjld/Desktop/AIoT_software/LiteOS_Lab_overseas/LiteOS_Lab/iot_link/network/lwm2m/wakaama_lwm2m/core\registration.c ****     return COAP_NO_ERROR;
 972              		.loc 1 339 0
 973 019a 0023     		movs	r3, #0
 974              	.L50:
 340:C:/Users/dtjld/Desktop/AIoT_software/LiteOS_Lab_overseas/LiteOS_Lab/iot_link/network/lwm2m/wakaama_lwm2m/core\registration.c **** }
 975              		.loc 1 340 0
 976 019c 1846     		mov	r0, r3
 977 019e 2037     		adds	r7, r7, #32
 978              	.LCFI18:
 979              		.cfi_def_cfa_offset 8
 980 01a0 BD46     		mov	sp, r7
 981              	.LCFI19:
 982              		.cfi_def_cfa_register 13
 983              		@ sp needed
 984 01a2 80BD     		pop	{r7, pc}
 985              	.L61:
 986              		.align	2
 987              	.L60:
 988 01a4 D4000000 		.word	.LC12
 989 01a8 00000000 		.word	prv_handleRegistrationReply
 990              		.cfi_endproc
 991              	.LFE7:
 993              		.section	.rodata
 994              		.align	2
 995              	.LC13:
 996 00d8 5B25645D 		.ascii	"[%d][%s:%d] Registration update successful\015\012\000"
 996      5B25733A 
 996      25645D20 
 996      52656769 
 996      73747261 
 997 0105 000000   		.align	2
 998              	.LC14:
 999 0108 5B25645D 		.ascii	"[%d][%s:%d] Registration update failed\015\012\000"
 999      5B25733A 
 999      25645D20 
 999      52656769 
 999      73747261 
 1000              		.section	.text.prv_handleRegistrationUpdateReply,"ax",%progbits
 1001              		.align	1
 1002              		.syntax unified
ARM GAS  C:\Users\dtjld\AppData\Local\Temp\cctLUSig.s 			page 25


 1003              		.thumb
 1004              		.thumb_func
 1005              		.fpu fpv4-sp-d16
 1007              	prv_handleRegistrationUpdateReply:
 1008              	.LFB8:
 341:C:/Users/dtjld/Desktop/AIoT_software/LiteOS_Lab_overseas/LiteOS_Lab/iot_link/network/lwm2m/wakaama_lwm2m/core\registration.c **** 
 342:C:/Users/dtjld/Desktop/AIoT_software/LiteOS_Lab_overseas/LiteOS_Lab/iot_link/network/lwm2m/wakaama_lwm2m/core\registration.c **** static void prv_handleRegistrationUpdateReply(lwm2m_transaction_t *transacP,
 343:C:/Users/dtjld/Desktop/AIoT_software/LiteOS_Lab_overseas/LiteOS_Lab/iot_link/network/lwm2m/wakaama_lwm2m/core\registration.c ****         void *message)
 344:C:/Users/dtjld/Desktop/AIoT_software/LiteOS_Lab_overseas/LiteOS_Lab/iot_link/network/lwm2m/wakaama_lwm2m/core\registration.c **** {
 1009              		.loc 1 344 0
 1010              		.cfi_startproc
 1011              		@ args = 0, pretend = 0, frame = 24
 1012              		@ frame_needed = 1, uses_anonymous_args = 0
 1013 0000 90B5     		push	{r4, r7, lr}
 1014              	.LCFI20:
 1015              		.cfi_def_cfa_offset 12
 1016              		.cfi_offset 4, -12
 1017              		.cfi_offset 7, -8
 1018              		.cfi_offset 14, -4
 1019 0002 87B0     		sub	sp, sp, #28
 1020              	.LCFI21:
 1021              		.cfi_def_cfa_offset 40
 1022 0004 00AF     		add	r7, sp, #0
 1023              	.LCFI22:
 1024              		.cfi_def_cfa_register 7
 1025 0006 7860     		str	r0, [r7, #4]
 1026 0008 3960     		str	r1, [r7]
 345:C:/Users/dtjld/Desktop/AIoT_software/LiteOS_Lab_overseas/LiteOS_Lab/iot_link/network/lwm2m/wakaama_lwm2m/core\registration.c ****     coap_packet_t *packet = (coap_packet_t *)message;
 1027              		.loc 1 345 0
 1028 000a 3B68     		ldr	r3, [r7]
 1029 000c 7B61     		str	r3, [r7, #20]
 346:C:/Users/dtjld/Desktop/AIoT_software/LiteOS_Lab_overseas/LiteOS_Lab/iot_link/network/lwm2m/wakaama_lwm2m/core\registration.c ****     lwm2m_server_t *targetP = (lwm2m_server_t *)(transacP->userData);
 1030              		.loc 1 346 0
 1031 000e 7B68     		ldr	r3, [r7, #4]
 1032 0010 5B6C     		ldr	r3, [r3, #68]
 1033 0012 3B61     		str	r3, [r7, #16]
 347:C:/Users/dtjld/Desktop/AIoT_software/LiteOS_Lab_overseas/LiteOS_Lab/iot_link/network/lwm2m/wakaama_lwm2m/core\registration.c **** 
 348:C:/Users/dtjld/Desktop/AIoT_software/LiteOS_Lab_overseas/LiteOS_Lab/iot_link/network/lwm2m/wakaama_lwm2m/core\registration.c ****     if (targetP->status == STATE_REG_UPDATE_PENDING)
 1034              		.loc 1 348 0
 1035 0014 3B69     		ldr	r3, [r7, #16]
 1036 0016 93F82030 		ldrb	r3, [r3, #32]	@ zero_extendqisi2
 1037 001a 042B     		cmp	r3, #4
 1038 001c 32D1     		bne	.L66
 1039              	.LBB4:
 349:C:/Users/dtjld/Desktop/AIoT_software/LiteOS_Lab_overseas/LiteOS_Lab/iot_link/network/lwm2m/wakaama_lwm2m/core\registration.c ****     {
 350:C:/Users/dtjld/Desktop/AIoT_software/LiteOS_Lab_overseas/LiteOS_Lab/iot_link/network/lwm2m/wakaama_lwm2m/core\registration.c ****         time_t tv_sec = lwm2m_gettime();
 1040              		.loc 1 350 0
 1041 001e FFF7FEFF 		bl	lwm2m_gettime
 1042 0022 C7E90201 		strd	r0, [r7, #8]
 351:C:/Users/dtjld/Desktop/AIoT_software/LiteOS_Lab_overseas/LiteOS_Lab/iot_link/network/lwm2m/wakaama_lwm2m/core\registration.c ****         if (tv_sec )
 1043              		.loc 1 351 0
 1044 0026 D7E90234 		ldrd	r3, [r7, #8]
 1045 002a 2343     		orrs	r3, r3, r4
 1046 002c 04D0     		beq	.L64
 352:C:/Users/dtjld/Desktop/AIoT_software/LiteOS_Lab_overseas/LiteOS_Lab/iot_link/network/lwm2m/wakaama_lwm2m/core\registration.c ****         {
 353:C:/Users/dtjld/Desktop/AIoT_software/LiteOS_Lab_overseas/LiteOS_Lab/iot_link/network/lwm2m/wakaama_lwm2m/core\registration.c ****             targetP->registration = tv_sec;
 1047              		.loc 1 353 0
ARM GAS  C:\Users\dtjld\AppData\Local\Temp\cctLUSig.s 			page 26


 1048 002e 3A69     		ldr	r2, [r7, #16]
 1049 0030 D7E90234 		ldrd	r3, [r7, #8]
 1050 0034 C2E90434 		strd	r3, [r2, #16]
 1051              	.L64:
 354:C:/Users/dtjld/Desktop/AIoT_software/LiteOS_Lab_overseas/LiteOS_Lab/iot_link/network/lwm2m/wakaama_lwm2m/core\registration.c ****         }
 355:C:/Users/dtjld/Desktop/AIoT_software/LiteOS_Lab_overseas/LiteOS_Lab/iot_link/network/lwm2m/wakaama_lwm2m/core\registration.c ****         if (packet != NULL && packet->code == COAP_204_CHANGED)
 1052              		.loc 1 355 0
 1053 0038 7B69     		ldr	r3, [r7, #20]
 1054 003a 002B     		cmp	r3, #0
 1055 003c 13D0     		beq	.L65
 1056              		.loc 1 355 0 is_stmt 0 discriminator 1
 1057 003e 7B69     		ldr	r3, [r7, #20]
 1058 0040 9B79     		ldrb	r3, [r3, #6]	@ zero_extendqisi2
 1059 0042 442B     		cmp	r3, #68
 1060 0044 0FD1     		bne	.L65
 356:C:/Users/dtjld/Desktop/AIoT_software/LiteOS_Lab_overseas/LiteOS_Lab/iot_link/network/lwm2m/wakaama_lwm2m/core\registration.c ****         {
 357:C:/Users/dtjld/Desktop/AIoT_software/LiteOS_Lab_overseas/LiteOS_Lab/iot_link/network/lwm2m/wakaama_lwm2m/core\registration.c ****             targetP->status = STATE_REGISTERED;
 1061              		.loc 1 357 0 is_stmt 1
 1062 0046 3B69     		ldr	r3, [r7, #16]
 1063 0048 0222     		movs	r2, #2
 1064 004a 83F82020 		strb	r2, [r3, #32]
 358:C:/Users/dtjld/Desktop/AIoT_software/LiteOS_Lab_overseas/LiteOS_Lab/iot_link/network/lwm2m/wakaama_lwm2m/core\registration.c ****             LOG("Registration update successful");
 1065              		.loc 1 358 0
 1066 004e FFF7FEFF 		bl	lwm2m_gettime
 1067 0052 0346     		mov	r3, r0
 1068 0054 0C46     		mov	r4, r1
 1069 0056 1946     		mov	r1, r3
 1070 0058 4FF4B373 		mov	r3, #358
 1071 005c 0B4A     		ldr	r2, .L67
 1072 005e 0C48     		ldr	r0, .L67+4
 1073 0060 FFF7FEFF 		bl	atiny_printf
 1074              	.LBE4:
 359:C:/Users/dtjld/Desktop/AIoT_software/LiteOS_Lab_overseas/LiteOS_Lab/iot_link/network/lwm2m/wakaama_lwm2m/core\registration.c ****         }
 360:C:/Users/dtjld/Desktop/AIoT_software/LiteOS_Lab_overseas/LiteOS_Lab/iot_link/network/lwm2m/wakaama_lwm2m/core\registration.c ****         else
 361:C:/Users/dtjld/Desktop/AIoT_software/LiteOS_Lab_overseas/LiteOS_Lab/iot_link/network/lwm2m/wakaama_lwm2m/core\registration.c ****         {
 362:C:/Users/dtjld/Desktop/AIoT_software/LiteOS_Lab_overseas/LiteOS_Lab/iot_link/network/lwm2m/wakaama_lwm2m/core\registration.c ****             targetP->status = STATE_REG_FAILED;
 363:C:/Users/dtjld/Desktop/AIoT_software/LiteOS_Lab_overseas/LiteOS_Lab/iot_link/network/lwm2m/wakaama_lwm2m/core\registration.c ****             LOG("Registration update failed");
 364:C:/Users/dtjld/Desktop/AIoT_software/LiteOS_Lab_overseas/LiteOS_Lab/iot_link/network/lwm2m/wakaama_lwm2m/core\registration.c ****         }
 365:C:/Users/dtjld/Desktop/AIoT_software/LiteOS_Lab_overseas/LiteOS_Lab/iot_link/network/lwm2m/wakaama_lwm2m/core\registration.c ****     }
 366:C:/Users/dtjld/Desktop/AIoT_software/LiteOS_Lab_overseas/LiteOS_Lab/iot_link/network/lwm2m/wakaama_lwm2m/core\registration.c **** }
 1075              		.loc 1 366 0
 1076 0064 0EE0     		b	.L66
 1077              	.L65:
 1078              	.LBB5:
 362:C:/Users/dtjld/Desktop/AIoT_software/LiteOS_Lab_overseas/LiteOS_Lab/iot_link/network/lwm2m/wakaama_lwm2m/core\registration.c ****             LOG("Registration update failed");
 1079              		.loc 1 362 0
 1080 0066 3B69     		ldr	r3, [r7, #16]
 1081 0068 0322     		movs	r2, #3
 1082 006a 83F82020 		strb	r2, [r3, #32]
 363:C:/Users/dtjld/Desktop/AIoT_software/LiteOS_Lab_overseas/LiteOS_Lab/iot_link/network/lwm2m/wakaama_lwm2m/core\registration.c ****         }
 1083              		.loc 1 363 0
 1084 006e FFF7FEFF 		bl	lwm2m_gettime
 1085 0072 0346     		mov	r3, r0
 1086 0074 0C46     		mov	r4, r1
 1087 0076 1946     		mov	r1, r3
 1088 0078 40F26B13 		movw	r3, #363
 1089 007c 034A     		ldr	r2, .L67
ARM GAS  C:\Users\dtjld\AppData\Local\Temp\cctLUSig.s 			page 27


 1090 007e 0548     		ldr	r0, .L67+8
 1091 0080 FFF7FEFF 		bl	atiny_printf
 1092              	.L66:
 1093              	.LBE5:
 1094              		.loc 1 366 0
 1095 0084 00BF     		nop
 1096 0086 1C37     		adds	r7, r7, #28
 1097              	.LCFI23:
 1098              		.cfi_def_cfa_offset 12
 1099 0088 BD46     		mov	sp, r7
 1100              	.LCFI24:
 1101              		.cfi_def_cfa_register 13
 1102              		@ sp needed
 1103 008a 90BD     		pop	{r4, r7, pc}
 1104              	.L68:
 1105              		.align	2
 1106              	.L67:
 1107 008c 00000000 		.word	__func__.8558
 1108 0090 D8000000 		.word	.LC13
 1109 0094 08010000 		.word	.LC14
 1110              		.cfi_endproc
 1111              	.LFE8:
 1113              		.section	.text.prv_updateRegistration,"ax",%progbits
 1114              		.align	1
 1115              		.syntax unified
 1116              		.thumb
 1117              		.thumb_func
 1118              		.fpu fpv4-sp-d16
 1120              	prv_updateRegistration:
 1121              	.LFB9:
 367:C:/Users/dtjld/Desktop/AIoT_software/LiteOS_Lab_overseas/LiteOS_Lab/iot_link/network/lwm2m/wakaama_lwm2m/core\registration.c **** 
 368:C:/Users/dtjld/Desktop/AIoT_software/LiteOS_Lab_overseas/LiteOS_Lab/iot_link/network/lwm2m/wakaama_lwm2m/core\registration.c **** static int prv_updateRegistration(lwm2m_context_t *contextP,
 369:C:/Users/dtjld/Desktop/AIoT_software/LiteOS_Lab_overseas/LiteOS_Lab/iot_link/network/lwm2m/wakaama_lwm2m/core\registration.c ****                                   lwm2m_server_t *server,
 370:C:/Users/dtjld/Desktop/AIoT_software/LiteOS_Lab_overseas/LiteOS_Lab/iot_link/network/lwm2m/wakaama_lwm2m/core\registration.c ****                                   bool withObjects)
 371:C:/Users/dtjld/Desktop/AIoT_software/LiteOS_Lab_overseas/LiteOS_Lab/iot_link/network/lwm2m/wakaama_lwm2m/core\registration.c **** {
 1122              		.loc 1 371 0
 1123              		.cfi_startproc
 1124              		@ args = 0, pretend = 0, frame = 32
 1125              		@ frame_needed = 1, uses_anonymous_args = 0
 1126 0000 80B5     		push	{r7, lr}
 1127              	.LCFI25:
 1128              		.cfi_def_cfa_offset 8
 1129              		.cfi_offset 7, -8
 1130              		.cfi_offset 14, -4
 1131 0002 8CB0     		sub	sp, sp, #48
 1132              	.LCFI26:
 1133              		.cfi_def_cfa_offset 56
 1134 0004 04AF     		add	r7, sp, #16
 1135              	.LCFI27:
 1136              		.cfi_def_cfa 7, 40
 1137 0006 F860     		str	r0, [r7, #12]
 1138 0008 B960     		str	r1, [r7, #8]
 1139 000a 1346     		mov	r3, r2
 1140 000c FB71     		strb	r3, [r7, #7]
 372:C:/Users/dtjld/Desktop/AIoT_software/LiteOS_Lab_overseas/LiteOS_Lab/iot_link/network/lwm2m/wakaama_lwm2m/core\registration.c ****     lwm2m_transaction_t *transaction;
 373:C:/Users/dtjld/Desktop/AIoT_software/LiteOS_Lab_overseas/LiteOS_Lab/iot_link/network/lwm2m/wakaama_lwm2m/core\registration.c ****     uint8_t *payload = NULL;
 1141              		.loc 1 373 0
ARM GAS  C:\Users\dtjld\AppData\Local\Temp\cctLUSig.s 			page 28


 1142 000e 0023     		movs	r3, #0
 1143 0010 FB61     		str	r3, [r7, #28]
 374:C:/Users/dtjld/Desktop/AIoT_software/LiteOS_Lab_overseas/LiteOS_Lab/iot_link/network/lwm2m/wakaama_lwm2m/core\registration.c ****     int payload_length;
 375:C:/Users/dtjld/Desktop/AIoT_software/LiteOS_Lab_overseas/LiteOS_Lab/iot_link/network/lwm2m/wakaama_lwm2m/core\registration.c **** 
 376:C:/Users/dtjld/Desktop/AIoT_software/LiteOS_Lab_overseas/LiteOS_Lab/iot_link/network/lwm2m/wakaama_lwm2m/core\registration.c ****     transaction = transaction_new(server->sessionH, COAP_POST, NULL, NULL, contextP->nextMID++, 4, 
 1144              		.loc 1 376 0
 1145 0012 BB68     		ldr	r3, [r7, #8]
 1146 0014 D869     		ldr	r0, [r3, #28]
 1147 0016 FB68     		ldr	r3, [r7, #12]
 1148 0018 9B8D     		ldrh	r3, [r3, #44]
 1149 001a 5A1C     		adds	r2, r3, #1
 1150 001c 91B2     		uxth	r1, r2
 1151 001e FA68     		ldr	r2, [r7, #12]
 1152 0020 9185     		strh	r1, [r2, #44]	@ movhi
 1153 0022 0022     		movs	r2, #0
 1154 0024 0292     		str	r2, [sp, #8]
 1155 0026 0422     		movs	r2, #4
 1156 0028 0192     		str	r2, [sp, #4]
 1157 002a 0093     		str	r3, [sp]
 1158 002c 0023     		movs	r3, #0
 1159 002e 0022     		movs	r2, #0
 1160 0030 0221     		movs	r1, #2
 1161 0032 FFF7FEFF 		bl	transaction_new
 1162 0036 B861     		str	r0, [r7, #24]
 377:C:/Users/dtjld/Desktop/AIoT_software/LiteOS_Lab_overseas/LiteOS_Lab/iot_link/network/lwm2m/wakaama_lwm2m/core\registration.c ****     if (transaction == NULL) return COAP_500_INTERNAL_SERVER_ERROR;
 1163              		.loc 1 377 0
 1164 0038 BB69     		ldr	r3, [r7, #24]
 1165 003a 002B     		cmp	r3, #0
 1166 003c 01D1     		bne	.L70
 1167              		.loc 1 377 0 is_stmt 0 discriminator 1
 1168 003e A023     		movs	r3, #160
 1169 0040 5DE0     		b	.L71
 1170              	.L70:
 378:C:/Users/dtjld/Desktop/AIoT_software/LiteOS_Lab_overseas/LiteOS_Lab/iot_link/network/lwm2m/wakaama_lwm2m/core\registration.c **** 
 379:C:/Users/dtjld/Desktop/AIoT_software/LiteOS_Lab_overseas/LiteOS_Lab/iot_link/network/lwm2m/wakaama_lwm2m/core\registration.c ****     coap_set_header_uri_path(transaction->message, server->location);
 1171              		.loc 1 379 0 is_stmt 1
 1172 0042 BB69     		ldr	r3, [r7, #24]
 1173 0044 9A6A     		ldr	r2, [r3, #40]
 1174 0046 BB68     		ldr	r3, [r7, #8]
 1175 0048 5B6A     		ldr	r3, [r3, #36]
 1176 004a 1946     		mov	r1, r3
 1177 004c 1046     		mov	r0, r2
 1178 004e FFF7FEFF 		bl	coap_set_header_uri_path
 380:C:/Users/dtjld/Desktop/AIoT_software/LiteOS_Lab_overseas/LiteOS_Lab/iot_link/network/lwm2m/wakaama_lwm2m/core\registration.c **** 
 381:C:/Users/dtjld/Desktop/AIoT_software/LiteOS_Lab_overseas/LiteOS_Lab/iot_link/network/lwm2m/wakaama_lwm2m/core\registration.c ****     if (withObjects == true)
 1179              		.loc 1 381 0
 1180 0052 FB79     		ldrb	r3, [r7, #7]	@ zero_extendqisi2
 1181 0054 002B     		cmp	r3, #0
 1182 0056 31D0     		beq	.L72
 382:C:/Users/dtjld/Desktop/AIoT_software/LiteOS_Lab_overseas/LiteOS_Lab/iot_link/network/lwm2m/wakaama_lwm2m/core\registration.c ****     {
 383:C:/Users/dtjld/Desktop/AIoT_software/LiteOS_Lab_overseas/LiteOS_Lab/iot_link/network/lwm2m/wakaama_lwm2m/core\registration.c ****         payload_length = object_getRegisterPayloadBufferLength(contextP);
 1183              		.loc 1 383 0
 1184 0058 F868     		ldr	r0, [r7, #12]
 1185 005a FFF7FEFF 		bl	object_getRegisterPayloadBufferLength
 1186 005e 7861     		str	r0, [r7, #20]
 384:C:/Users/dtjld/Desktop/AIoT_software/LiteOS_Lab_overseas/LiteOS_Lab/iot_link/network/lwm2m/wakaama_lwm2m/core\registration.c ****         if(payload_length == 0)
 1187              		.loc 1 384 0
ARM GAS  C:\Users\dtjld\AppData\Local\Temp\cctLUSig.s 			page 29


 1188 0060 7B69     		ldr	r3, [r7, #20]
 1189 0062 002B     		cmp	r3, #0
 1190 0064 04D1     		bne	.L73
 385:C:/Users/dtjld/Desktop/AIoT_software/LiteOS_Lab_overseas/LiteOS_Lab/iot_link/network/lwm2m/wakaama_lwm2m/core\registration.c ****         {
 386:C:/Users/dtjld/Desktop/AIoT_software/LiteOS_Lab_overseas/LiteOS_Lab/iot_link/network/lwm2m/wakaama_lwm2m/core\registration.c ****             transaction_free(transaction);
 1191              		.loc 1 386 0
 1192 0066 B869     		ldr	r0, [r7, #24]
 1193 0068 FFF7FEFF 		bl	transaction_free
 387:C:/Users/dtjld/Desktop/AIoT_software/LiteOS_Lab_overseas/LiteOS_Lab/iot_link/network/lwm2m/wakaama_lwm2m/core\registration.c ****             return COAP_500_INTERNAL_SERVER_ERROR;
 1194              		.loc 1 387 0
 1195 006c A023     		movs	r3, #160
 1196 006e 46E0     		b	.L71
 1197              	.L73:
 388:C:/Users/dtjld/Desktop/AIoT_software/LiteOS_Lab_overseas/LiteOS_Lab/iot_link/network/lwm2m/wakaama_lwm2m/core\registration.c ****         }
 389:C:/Users/dtjld/Desktop/AIoT_software/LiteOS_Lab_overseas/LiteOS_Lab/iot_link/network/lwm2m/wakaama_lwm2m/core\registration.c **** 
 390:C:/Users/dtjld/Desktop/AIoT_software/LiteOS_Lab_overseas/LiteOS_Lab/iot_link/network/lwm2m/wakaama_lwm2m/core\registration.c ****         payload = lwm2m_malloc(payload_length);
 1198              		.loc 1 390 0
 1199 0070 7B69     		ldr	r3, [r7, #20]
 1200 0072 1846     		mov	r0, r3
 1201 0074 FFF7FEFF 		bl	lwm2m_malloc
 1202 0078 F861     		str	r0, [r7, #28]
 391:C:/Users/dtjld/Desktop/AIoT_software/LiteOS_Lab_overseas/LiteOS_Lab/iot_link/network/lwm2m/wakaama_lwm2m/core\registration.c ****         if(!payload)
 1203              		.loc 1 391 0
 1204 007a FB69     		ldr	r3, [r7, #28]
 1205 007c 002B     		cmp	r3, #0
 1206 007e 04D1     		bne	.L74
 392:C:/Users/dtjld/Desktop/AIoT_software/LiteOS_Lab_overseas/LiteOS_Lab/iot_link/network/lwm2m/wakaama_lwm2m/core\registration.c ****         {
 393:C:/Users/dtjld/Desktop/AIoT_software/LiteOS_Lab_overseas/LiteOS_Lab/iot_link/network/lwm2m/wakaama_lwm2m/core\registration.c ****             transaction_free(transaction);
 1207              		.loc 1 393 0
 1208 0080 B869     		ldr	r0, [r7, #24]
 1209 0082 FFF7FEFF 		bl	transaction_free
 394:C:/Users/dtjld/Desktop/AIoT_software/LiteOS_Lab_overseas/LiteOS_Lab/iot_link/network/lwm2m/wakaama_lwm2m/core\registration.c ****             return COAP_500_INTERNAL_SERVER_ERROR;
 1210              		.loc 1 394 0
 1211 0086 A023     		movs	r3, #160
 1212 0088 39E0     		b	.L71
 1213              	.L74:
 395:C:/Users/dtjld/Desktop/AIoT_software/LiteOS_Lab_overseas/LiteOS_Lab/iot_link/network/lwm2m/wakaama_lwm2m/core\registration.c ****         }
 396:C:/Users/dtjld/Desktop/AIoT_software/LiteOS_Lab_overseas/LiteOS_Lab/iot_link/network/lwm2m/wakaama_lwm2m/core\registration.c **** 
 397:C:/Users/dtjld/Desktop/AIoT_software/LiteOS_Lab_overseas/LiteOS_Lab/iot_link/network/lwm2m/wakaama_lwm2m/core\registration.c ****         payload_length = object_getRegisterPayload(contextP, payload, payload_length);
 1214              		.loc 1 397 0
 1215 008a 7B69     		ldr	r3, [r7, #20]
 1216 008c 1A46     		mov	r2, r3
 1217 008e F969     		ldr	r1, [r7, #28]
 1218 0090 F868     		ldr	r0, [r7, #12]
 1219 0092 FFF7FEFF 		bl	object_getRegisterPayload
 1220 0096 7861     		str	r0, [r7, #20]
 398:C:/Users/dtjld/Desktop/AIoT_software/LiteOS_Lab_overseas/LiteOS_Lab/iot_link/network/lwm2m/wakaama_lwm2m/core\registration.c ****         if(payload_length == 0)
 1221              		.loc 1 398 0
 1222 0098 7B69     		ldr	r3, [r7, #20]
 1223 009a 002B     		cmp	r3, #0
 1224 009c 07D1     		bne	.L75
 399:C:/Users/dtjld/Desktop/AIoT_software/LiteOS_Lab_overseas/LiteOS_Lab/iot_link/network/lwm2m/wakaama_lwm2m/core\registration.c ****         {
 400:C:/Users/dtjld/Desktop/AIoT_software/LiteOS_Lab_overseas/LiteOS_Lab/iot_link/network/lwm2m/wakaama_lwm2m/core\registration.c ****             transaction_free(transaction);
 1225              		.loc 1 400 0
 1226 009e B869     		ldr	r0, [r7, #24]
 1227 00a0 FFF7FEFF 		bl	transaction_free
 401:C:/Users/dtjld/Desktop/AIoT_software/LiteOS_Lab_overseas/LiteOS_Lab/iot_link/network/lwm2m/wakaama_lwm2m/core\registration.c ****             lwm2m_free(payload);
ARM GAS  C:\Users\dtjld\AppData\Local\Temp\cctLUSig.s 			page 30


 1228              		.loc 1 401 0
 1229 00a4 F869     		ldr	r0, [r7, #28]
 1230 00a6 FFF7FEFF 		bl	lwm2m_free
 402:C:/Users/dtjld/Desktop/AIoT_software/LiteOS_Lab_overseas/LiteOS_Lab/iot_link/network/lwm2m/wakaama_lwm2m/core\registration.c ****             return COAP_500_INTERNAL_SERVER_ERROR;
 1231              		.loc 1 402 0
 1232 00aa A023     		movs	r3, #160
 1233 00ac 27E0     		b	.L71
 1234              	.L75:
 403:C:/Users/dtjld/Desktop/AIoT_software/LiteOS_Lab_overseas/LiteOS_Lab/iot_link/network/lwm2m/wakaama_lwm2m/core\registration.c ****         }
 404:C:/Users/dtjld/Desktop/AIoT_software/LiteOS_Lab_overseas/LiteOS_Lab/iot_link/network/lwm2m/wakaama_lwm2m/core\registration.c ****         coap_set_payload(transaction->message, payload, payload_length);
 1235              		.loc 1 404 0
 1236 00ae BB69     		ldr	r3, [r7, #24]
 1237 00b0 9B6A     		ldr	r3, [r3, #40]
 1238 00b2 7A69     		ldr	r2, [r7, #20]
 1239 00b4 F969     		ldr	r1, [r7, #28]
 1240 00b6 1846     		mov	r0, r3
 1241 00b8 FFF7FEFF 		bl	coap_set_payload
 1242              	.L72:
 405:C:/Users/dtjld/Desktop/AIoT_software/LiteOS_Lab_overseas/LiteOS_Lab/iot_link/network/lwm2m/wakaama_lwm2m/core\registration.c ****     }
 406:C:/Users/dtjld/Desktop/AIoT_software/LiteOS_Lab_overseas/LiteOS_Lab/iot_link/network/lwm2m/wakaama_lwm2m/core\registration.c **** 
 407:C:/Users/dtjld/Desktop/AIoT_software/LiteOS_Lab_overseas/LiteOS_Lab/iot_link/network/lwm2m/wakaama_lwm2m/core\registration.c ****     transaction->callback = prv_handleRegistrationUpdateReply;
 1243              		.loc 1 407 0
 1244 00bc BB69     		ldr	r3, [r7, #24]
 1245 00be 124A     		ldr	r2, .L78
 1246 00c0 1A64     		str	r2, [r3, #64]
 408:C:/Users/dtjld/Desktop/AIoT_software/LiteOS_Lab_overseas/LiteOS_Lab/iot_link/network/lwm2m/wakaama_lwm2m/core\registration.c ****     transaction->userData = (void *) server;
 1247              		.loc 1 408 0
 1248 00c2 BB69     		ldr	r3, [r7, #24]
 1249 00c4 BA68     		ldr	r2, [r7, #8]
 1250 00c6 5A64     		str	r2, [r3, #68]
 409:C:/Users/dtjld/Desktop/AIoT_software/LiteOS_Lab_overseas/LiteOS_Lab/iot_link/network/lwm2m/wakaama_lwm2m/core\registration.c **** 
 410:C:/Users/dtjld/Desktop/AIoT_software/LiteOS_Lab_overseas/LiteOS_Lab/iot_link/network/lwm2m/wakaama_lwm2m/core\registration.c ****     contextP->transactionList = (lwm2m_transaction_t *)LWM2M_LIST_ADD(contextP->transactionList, tr
 1251              		.loc 1 410 0
 1252 00c8 FB68     		ldr	r3, [r7, #12]
 1253 00ca 1B6B     		ldr	r3, [r3, #48]
 1254 00cc B969     		ldr	r1, [r7, #24]
 1255 00ce 1846     		mov	r0, r3
 1256 00d0 FFF7FEFF 		bl	lwm2m_list_add
 1257 00d4 0246     		mov	r2, r0
 1258 00d6 FB68     		ldr	r3, [r7, #12]
 1259 00d8 1A63     		str	r2, [r3, #48]
 411:C:/Users/dtjld/Desktop/AIoT_software/LiteOS_Lab_overseas/LiteOS_Lab/iot_link/network/lwm2m/wakaama_lwm2m/core\registration.c **** 
 412:C:/Users/dtjld/Desktop/AIoT_software/LiteOS_Lab_overseas/LiteOS_Lab/iot_link/network/lwm2m/wakaama_lwm2m/core\registration.c ****     if (transaction_send(contextP, transaction) == 0)
 1260              		.loc 1 412 0
 1261 00da B969     		ldr	r1, [r7, #24]
 1262 00dc F868     		ldr	r0, [r7, #12]
 1263 00de FFF7FEFF 		bl	transaction_send
 1264 00e2 0346     		mov	r3, r0
 1265 00e4 002B     		cmp	r3, #0
 1266 00e6 03D1     		bne	.L76
 413:C:/Users/dtjld/Desktop/AIoT_software/LiteOS_Lab_overseas/LiteOS_Lab/iot_link/network/lwm2m/wakaama_lwm2m/core\registration.c ****     {
 414:C:/Users/dtjld/Desktop/AIoT_software/LiteOS_Lab_overseas/LiteOS_Lab/iot_link/network/lwm2m/wakaama_lwm2m/core\registration.c ****         server->status = STATE_REG_UPDATE_PENDING;
 1267              		.loc 1 414 0
 1268 00e8 BB68     		ldr	r3, [r7, #8]
 1269 00ea 0422     		movs	r2, #4
 1270 00ec 83F82020 		strb	r2, [r3, #32]
 1271              	.L76:
ARM GAS  C:\Users\dtjld\AppData\Local\Temp\cctLUSig.s 			page 31


 415:C:/Users/dtjld/Desktop/AIoT_software/LiteOS_Lab_overseas/LiteOS_Lab/iot_link/network/lwm2m/wakaama_lwm2m/core\registration.c ****     }
 416:C:/Users/dtjld/Desktop/AIoT_software/LiteOS_Lab_overseas/LiteOS_Lab/iot_link/network/lwm2m/wakaama_lwm2m/core\registration.c **** 
 417:C:/Users/dtjld/Desktop/AIoT_software/LiteOS_Lab_overseas/LiteOS_Lab/iot_link/network/lwm2m/wakaama_lwm2m/core\registration.c ****     if (withObjects == true)
 1272              		.loc 1 417 0
 1273 00f0 FB79     		ldrb	r3, [r7, #7]	@ zero_extendqisi2
 1274 00f2 002B     		cmp	r3, #0
 1275 00f4 02D0     		beq	.L77
 418:C:/Users/dtjld/Desktop/AIoT_software/LiteOS_Lab_overseas/LiteOS_Lab/iot_link/network/lwm2m/wakaama_lwm2m/core\registration.c ****     {
 419:C:/Users/dtjld/Desktop/AIoT_software/LiteOS_Lab_overseas/LiteOS_Lab/iot_link/network/lwm2m/wakaama_lwm2m/core\registration.c ****         lwm2m_free(payload);
 1276              		.loc 1 419 0
 1277 00f6 F869     		ldr	r0, [r7, #28]
 1278 00f8 FFF7FEFF 		bl	lwm2m_free
 1279              	.L77:
 420:C:/Users/dtjld/Desktop/AIoT_software/LiteOS_Lab_overseas/LiteOS_Lab/iot_link/network/lwm2m/wakaama_lwm2m/core\registration.c ****     }
 421:C:/Users/dtjld/Desktop/AIoT_software/LiteOS_Lab_overseas/LiteOS_Lab/iot_link/network/lwm2m/wakaama_lwm2m/core\registration.c **** 
 422:C:/Users/dtjld/Desktop/AIoT_software/LiteOS_Lab_overseas/LiteOS_Lab/iot_link/network/lwm2m/wakaama_lwm2m/core\registration.c ****     return COAP_NO_ERROR;
 1280              		.loc 1 422 0
 1281 00fc 0023     		movs	r3, #0
 1282              	.L71:
 423:C:/Users/dtjld/Desktop/AIoT_software/LiteOS_Lab_overseas/LiteOS_Lab/iot_link/network/lwm2m/wakaama_lwm2m/core\registration.c **** }
 1283              		.loc 1 423 0
 1284 00fe 1846     		mov	r0, r3
 1285 0100 2037     		adds	r7, r7, #32
 1286              	.LCFI28:
 1287              		.cfi_def_cfa_offset 8
 1288 0102 BD46     		mov	sp, r7
 1289              	.LCFI29:
 1290              		.cfi_def_cfa_register 13
 1291              		@ sp needed
 1292 0104 80BD     		pop	{r7, pc}
 1293              	.L79:
 1294 0106 00BF     		.align	2
 1295              	.L78:
 1296 0108 00000000 		.word	prv_handleRegistrationUpdateReply
 1297              		.cfi_endproc
 1298              	.LFE9:
 1300              		.section	.rodata
 1301 0131 000000   		.align	2
 1302              	.LC15:
 1303 0134 53544154 		.ascii	"STATE_READY\000"
 1303      455F5245 
 1303      41445900 
 1304              		.align	2
 1305              	.LC16:
 1306 0140 556E6B6E 		.ascii	"Unknown\000"
 1306      6F776E00 
 1307              		.align	2
 1308              	.LC17:
 1309 0148 53544154 		.ascii	"STATE_REGISTERING\000"
 1309      455F5245 
 1309      47495354 
 1309      4552494E 
 1309      4700
 1310 015a 0000     		.align	2
 1311              	.LC18:
 1312 015c 53544154 		.ascii	"STATE_REGISTER_REQUIRED\000"
 1312      455F5245 
ARM GAS  C:\Users\dtjld\AppData\Local\Temp\cctLUSig.s 			page 32


 1312      47495354 
 1312      45525F52 
 1312      45515549 
 1313              		.align	2
 1314              	.LC19:
 1315 0174 53544154 		.ascii	"STATE_BOOTSTRAPPING\000"
 1315      455F424F 
 1315      4F545354 
 1315      52415050 
 1315      494E4700 
 1316              		.align	2
 1317              	.LC20:
 1318 0188 53544154 		.ascii	"STATE_BOOTSTRAP_REQUIRED\000"
 1318      455F424F 
 1318      4F545354 
 1318      5241505F 
 1318      52455155 
 1319 01a1 000000   		.align	2
 1320              	.LC21:
 1321 01a4 53544154 		.ascii	"STATE_INITIAL\000"
 1321      455F494E 
 1321      49544941 
 1321      4C00
 1322 01b2 0000     		.align	2
 1323              	.LC22:
 1324 01b4 5B25645D 		.ascii	"[%d][%s:%d] State: %s, shortServerID: %d\015\012\000"
 1324      5B25733A 
 1324      25645D20 
 1324      53746174 
 1324      653A2025 
 1325 01df 00       		.align	2
 1326              	.LC23:
 1327 01e0 5B25645D 		.ascii	"[%d][%s:%d] No server found\015\012\000"
 1327      5B25733A 
 1327      25645D20 
 1327      4E6F2073 
 1327      65727665 
 1328              		.section	.text.lwm2m_update_registration,"ax",%progbits
 1329              		.align	1
 1330              		.global	lwm2m_update_registration
 1331              		.syntax unified
 1332              		.thumb
 1333              		.thumb_func
 1334              		.fpu fpv4-sp-d16
 1336              	lwm2m_update_registration:
 1337              	.LFB10:
 424:C:/Users/dtjld/Desktop/AIoT_software/LiteOS_Lab_overseas/LiteOS_Lab/iot_link/network/lwm2m/wakaama_lwm2m/core\registration.c **** 
 425:C:/Users/dtjld/Desktop/AIoT_software/LiteOS_Lab_overseas/LiteOS_Lab/iot_link/network/lwm2m/wakaama_lwm2m/core\registration.c **** // update the registration of a given server
 426:C:/Users/dtjld/Desktop/AIoT_software/LiteOS_Lab_overseas/LiteOS_Lab/iot_link/network/lwm2m/wakaama_lwm2m/core\registration.c **** int lwm2m_update_registration(lwm2m_context_t *contextP,
 427:C:/Users/dtjld/Desktop/AIoT_software/LiteOS_Lab_overseas/LiteOS_Lab/iot_link/network/lwm2m/wakaama_lwm2m/core\registration.c ****                               uint16_t shortServerID,
 428:C:/Users/dtjld/Desktop/AIoT_software/LiteOS_Lab_overseas/LiteOS_Lab/iot_link/network/lwm2m/wakaama_lwm2m/core\registration.c ****                               bool withObjects)
 429:C:/Users/dtjld/Desktop/AIoT_software/LiteOS_Lab_overseas/LiteOS_Lab/iot_link/network/lwm2m/wakaama_lwm2m/core\registration.c **** {
 1338              		.loc 1 429 0
 1339              		.cfi_startproc
 1340              		@ args = 0, pretend = 0, frame = 16
 1341              		@ frame_needed = 1, uses_anonymous_args = 0
 1342 0000 90B5     		push	{r4, r7, lr}
ARM GAS  C:\Users\dtjld\AppData\Local\Temp\cctLUSig.s 			page 33


 1343              	.LCFI30:
 1344              		.cfi_def_cfa_offset 12
 1345              		.cfi_offset 4, -12
 1346              		.cfi_offset 7, -8
 1347              		.cfi_offset 14, -4
 1348 0002 87B0     		sub	sp, sp, #28
 1349              	.LCFI31:
 1350              		.cfi_def_cfa_offset 40
 1351 0004 02AF     		add	r7, sp, #8
 1352              	.LCFI32:
 1353              		.cfi_def_cfa 7, 32
 1354 0006 7860     		str	r0, [r7, #4]
 1355 0008 0B46     		mov	r3, r1
 1356 000a 7B80     		strh	r3, [r7, #2]	@ movhi
 1357 000c 1346     		mov	r3, r2
 1358 000e 7B70     		strb	r3, [r7, #1]
 430:C:/Users/dtjld/Desktop/AIoT_software/LiteOS_Lab_overseas/LiteOS_Lab/iot_link/network/lwm2m/wakaama_lwm2m/core\registration.c ****     lwm2m_server_t *targetP;
 431:C:/Users/dtjld/Desktop/AIoT_software/LiteOS_Lab_overseas/LiteOS_Lab/iot_link/network/lwm2m/wakaama_lwm2m/core\registration.c ****     uint8_t result;
 432:C:/Users/dtjld/Desktop/AIoT_software/LiteOS_Lab_overseas/LiteOS_Lab/iot_link/network/lwm2m/wakaama_lwm2m/core\registration.c **** 
 433:C:/Users/dtjld/Desktop/AIoT_software/LiteOS_Lab_overseas/LiteOS_Lab/iot_link/network/lwm2m/wakaama_lwm2m/core\registration.c ****     LOG_ARG("State: %s, shortServerID: %d", STR_STATE(contextP->state), shortServerID);
 1359              		.loc 1 433 0
 1360 0010 FFF7FEFF 		bl	lwm2m_gettime
 1361 0014 0346     		mov	r3, r0
 1362 0016 0C46     		mov	r4, r1
 1363 0018 1946     		mov	r1, r3
 1364 001a 7B68     		ldr	r3, [r7, #4]
 1365 001c 1B78     		ldrb	r3, [r3]	@ zero_extendqisi2
 1366 001e 002B     		cmp	r3, #0
 1367 0020 1FD0     		beq	.L81
 1368              		.loc 1 433 0 is_stmt 0 discriminator 1
 1369 0022 7B68     		ldr	r3, [r7, #4]
 1370 0024 1B78     		ldrb	r3, [r3]	@ zero_extendqisi2
 1371 0026 012B     		cmp	r3, #1
 1372 0028 19D0     		beq	.L82
 1373              		.loc 1 433 0 discriminator 3
 1374 002a 7B68     		ldr	r3, [r7, #4]
 1375 002c 1B78     		ldrb	r3, [r3]	@ zero_extendqisi2
 1376 002e 022B     		cmp	r3, #2
 1377 0030 13D0     		beq	.L83
 1378              		.loc 1 433 0 discriminator 5
 1379 0032 7B68     		ldr	r3, [r7, #4]
 1380 0034 1B78     		ldrb	r3, [r3]	@ zero_extendqisi2
 1381 0036 032B     		cmp	r3, #3
 1382 0038 0DD0     		beq	.L84
 1383              		.loc 1 433 0 discriminator 7
 1384 003a 7B68     		ldr	r3, [r7, #4]
 1385 003c 1B78     		ldrb	r3, [r3]	@ zero_extendqisi2
 1386 003e 042B     		cmp	r3, #4
 1387 0040 07D0     		beq	.L85
 1388              		.loc 1 433 0 discriminator 9
 1389 0042 7B68     		ldr	r3, [r7, #4]
 1390 0044 1B78     		ldrb	r3, [r3]	@ zero_extendqisi2
 1391 0046 052B     		cmp	r3, #5
 1392 0048 01D1     		bne	.L86
 1393              		.loc 1 433 0 discriminator 11
 1394 004a 4A4B     		ldr	r3, .L110
 1395 004c 0AE0     		b	.L92
ARM GAS  C:\Users\dtjld\AppData\Local\Temp\cctLUSig.s 			page 34


 1396              	.L86:
 1397              		.loc 1 433 0 discriminator 12
 1398 004e 4A4B     		ldr	r3, .L110+4
 1399 0050 08E0     		b	.L92
 1400              	.L85:
 1401              		.loc 1 433 0 discriminator 10
 1402 0052 4A4B     		ldr	r3, .L110+8
 1403 0054 06E0     		b	.L92
 1404              	.L84:
 1405              		.loc 1 433 0 discriminator 8
 1406 0056 4A4B     		ldr	r3, .L110+12
 1407 0058 04E0     		b	.L92
 1408              	.L83:
 1409              		.loc 1 433 0 discriminator 6
 1410 005a 4A4B     		ldr	r3, .L110+16
 1411 005c 02E0     		b	.L92
 1412              	.L82:
 1413              		.loc 1 433 0 discriminator 4
 1414 005e 4A4B     		ldr	r3, .L110+20
 1415 0060 00E0     		b	.L92
 1416              	.L81:
 1417              		.loc 1 433 0 discriminator 2
 1418 0062 4A4B     		ldr	r3, .L110+24
 1419              	.L92:
 1420              		.loc 1 433 0 discriminator 24
 1421 0064 7A88     		ldrh	r2, [r7, #2]
 1422 0066 0192     		str	r2, [sp, #4]
 1423 0068 0093     		str	r3, [sp]
 1424 006a 40F2B113 		movw	r3, #433
 1425 006e 484A     		ldr	r2, .L110+28
 1426 0070 4848     		ldr	r0, .L110+32
 1427 0072 FFF7FEFF 		bl	atiny_printf
 434:C:/Users/dtjld/Desktop/AIoT_software/LiteOS_Lab_overseas/LiteOS_Lab/iot_link/network/lwm2m/wakaama_lwm2m/core\registration.c **** 
 435:C:/Users/dtjld/Desktop/AIoT_software/LiteOS_Lab_overseas/LiteOS_Lab/iot_link/network/lwm2m/wakaama_lwm2m/core\registration.c ****     result = COAP_NO_ERROR;
 1428              		.loc 1 435 0 is_stmt 1 discriminator 24
 1429 0076 0023     		movs	r3, #0
 1430 0078 FB72     		strb	r3, [r7, #11]
 436:C:/Users/dtjld/Desktop/AIoT_software/LiteOS_Lab_overseas/LiteOS_Lab/iot_link/network/lwm2m/wakaama_lwm2m/core\registration.c **** 
 437:C:/Users/dtjld/Desktop/AIoT_software/LiteOS_Lab_overseas/LiteOS_Lab/iot_link/network/lwm2m/wakaama_lwm2m/core\registration.c ****     targetP = contextP->serverList;
 1431              		.loc 1 437 0 discriminator 24
 1432 007a 7B68     		ldr	r3, [r7, #4]
 1433 007c 5B69     		ldr	r3, [r3, #20]
 1434 007e FB60     		str	r3, [r7, #12]
 438:C:/Users/dtjld/Desktop/AIoT_software/LiteOS_Lab_overseas/LiteOS_Lab/iot_link/network/lwm2m/wakaama_lwm2m/core\registration.c ****     if (targetP == NULL)
 1435              		.loc 1 438 0 discriminator 24
 1436 0080 FB68     		ldr	r3, [r7, #12]
 1437 0082 002B     		cmp	r3, #0
 1438 0084 62D1     		bne	.L95
 439:C:/Users/dtjld/Desktop/AIoT_software/LiteOS_Lab_overseas/LiteOS_Lab/iot_link/network/lwm2m/wakaama_lwm2m/core\registration.c ****     {
 440:C:/Users/dtjld/Desktop/AIoT_software/LiteOS_Lab_overseas/LiteOS_Lab/iot_link/network/lwm2m/wakaama_lwm2m/core\registration.c ****         if (object_getServers(contextP, false) == -1)
 1439              		.loc 1 440 0
 1440 0086 0021     		movs	r1, #0
 1441 0088 7868     		ldr	r0, [r7, #4]
 1442 008a FFF7FEFF 		bl	object_getServers
 1443 008e 0346     		mov	r3, r0
 1444 0090 B3F1FF3F 		cmp	r3, #-1
 1445 0094 5AD1     		bne	.L95
ARM GAS  C:\Users\dtjld\AppData\Local\Temp\cctLUSig.s 			page 35


 441:C:/Users/dtjld/Desktop/AIoT_software/LiteOS_Lab_overseas/LiteOS_Lab/iot_link/network/lwm2m/wakaama_lwm2m/core\registration.c ****         {
 442:C:/Users/dtjld/Desktop/AIoT_software/LiteOS_Lab_overseas/LiteOS_Lab/iot_link/network/lwm2m/wakaama_lwm2m/core\registration.c ****             LOG("No server found");
 1446              		.loc 1 442 0
 1447 0096 FFF7FEFF 		bl	lwm2m_gettime
 1448 009a 0346     		mov	r3, r0
 1449 009c 0C46     		mov	r4, r1
 1450 009e 1946     		mov	r1, r3
 1451 00a0 4FF4DD73 		mov	r3, #442
 1452 00a4 3A4A     		ldr	r2, .L110+28
 1453 00a6 3C48     		ldr	r0, .L110+36
 1454 00a8 FFF7FEFF 		bl	atiny_printf
 443:C:/Users/dtjld/Desktop/AIoT_software/LiteOS_Lab_overseas/LiteOS_Lab/iot_link/network/lwm2m/wakaama_lwm2m/core\registration.c ****             return COAP_404_NOT_FOUND;
 1455              		.loc 1 443 0
 1456 00ac 8423     		movs	r3, #132
 1457 00ae 5CE0     		b	.L94
 1458              	.L108:
 444:C:/Users/dtjld/Desktop/AIoT_software/LiteOS_Lab_overseas/LiteOS_Lab/iot_link/network/lwm2m/wakaama_lwm2m/core\registration.c ****         }
 445:C:/Users/dtjld/Desktop/AIoT_software/LiteOS_Lab_overseas/LiteOS_Lab/iot_link/network/lwm2m/wakaama_lwm2m/core\registration.c ****     }
 446:C:/Users/dtjld/Desktop/AIoT_software/LiteOS_Lab_overseas/LiteOS_Lab/iot_link/network/lwm2m/wakaama_lwm2m/core\registration.c ****     while (targetP != NULL && result == COAP_NO_ERROR)
 447:C:/Users/dtjld/Desktop/AIoT_software/LiteOS_Lab_overseas/LiteOS_Lab/iot_link/network/lwm2m/wakaama_lwm2m/core\registration.c ****     {
 448:C:/Users/dtjld/Desktop/AIoT_software/LiteOS_Lab_overseas/LiteOS_Lab/iot_link/network/lwm2m/wakaama_lwm2m/core\registration.c ****         if (shortServerID != 0)
 1459              		.loc 1 448 0
 1460 00b0 7B88     		ldrh	r3, [r7, #2]
 1461 00b2 002B     		cmp	r3, #0
 1462 00b4 31D0     		beq	.L96
 449:C:/Users/dtjld/Desktop/AIoT_software/LiteOS_Lab_overseas/LiteOS_Lab/iot_link/network/lwm2m/wakaama_lwm2m/core\registration.c ****         {
 450:C:/Users/dtjld/Desktop/AIoT_software/LiteOS_Lab_overseas/LiteOS_Lab/iot_link/network/lwm2m/wakaama_lwm2m/core\registration.c ****             if (targetP->shortID == shortServerID)
 1463              		.loc 1 450 0
 1464 00b6 FB68     		ldr	r3, [r7, #12]
 1465 00b8 DB88     		ldrh	r3, [r3, #6]
 1466 00ba 7A88     		ldrh	r2, [r7, #2]
 1467 00bc 9A42     		cmp	r2, r3
 1468 00be 42D1     		bne	.L97
 451:C:/Users/dtjld/Desktop/AIoT_software/LiteOS_Lab_overseas/LiteOS_Lab/iot_link/network/lwm2m/wakaama_lwm2m/core\registration.c ****             {
 452:C:/Users/dtjld/Desktop/AIoT_software/LiteOS_Lab_overseas/LiteOS_Lab/iot_link/network/lwm2m/wakaama_lwm2m/core\registration.c ****                 // found the server, trigger the update transaction
 453:C:/Users/dtjld/Desktop/AIoT_software/LiteOS_Lab_overseas/LiteOS_Lab/iot_link/network/lwm2m/wakaama_lwm2m/core\registration.c ****                 if (targetP->status == STATE_REGISTERED
 1469              		.loc 1 453 0
 1470 00c0 FB68     		ldr	r3, [r7, #12]
 1471 00c2 93F82030 		ldrb	r3, [r3, #32]	@ zero_extendqisi2
 1472 00c6 022B     		cmp	r3, #2
 1473 00c8 04D0     		beq	.L98
 454:C:/Users/dtjld/Desktop/AIoT_software/LiteOS_Lab_overseas/LiteOS_Lab/iot_link/network/lwm2m/wakaama_lwm2m/core\registration.c ****                         || targetP->status == STATE_REG_UPDATE_PENDING)
 1474              		.loc 1 454 0
 1475 00ca FB68     		ldr	r3, [r7, #12]
 1476 00cc 93F82030 		ldrb	r3, [r3, #32]	@ zero_extendqisi2
 1477 00d0 042B     		cmp	r3, #4
 1478 00d2 0DD1     		bne	.L99
 1479              	.L98:
 455:C:/Users/dtjld/Desktop/AIoT_software/LiteOS_Lab_overseas/LiteOS_Lab/iot_link/network/lwm2m/wakaama_lwm2m/core\registration.c ****                 {
 456:C:/Users/dtjld/Desktop/AIoT_software/LiteOS_Lab_overseas/LiteOS_Lab/iot_link/network/lwm2m/wakaama_lwm2m/core\registration.c ****                     if (withObjects == true)
 1480              		.loc 1 456 0
 1481 00d4 7B78     		ldrb	r3, [r7, #1]	@ zero_extendqisi2
 1482 00d6 002B     		cmp	r3, #0
 1483 00d8 04D0     		beq	.L100
 457:C:/Users/dtjld/Desktop/AIoT_software/LiteOS_Lab_overseas/LiteOS_Lab/iot_link/network/lwm2m/wakaama_lwm2m/core\registration.c ****                     {
 458:C:/Users/dtjld/Desktop/AIoT_software/LiteOS_Lab_overseas/LiteOS_Lab/iot_link/network/lwm2m/wakaama_lwm2m/core\registration.c ****                         targetP->status = STATE_REG_FULL_UPDATE_NEEDED;
 1484              		.loc 1 458 0
ARM GAS  C:\Users\dtjld\AppData\Local\Temp\cctLUSig.s 			page 36


 1485 00da FB68     		ldr	r3, [r7, #12]
 1486 00dc 0622     		movs	r2, #6
 1487 00de 83F82020 		strb	r2, [r3, #32]
 1488 00e2 03E0     		b	.L101
 1489              	.L100:
 459:C:/Users/dtjld/Desktop/AIoT_software/LiteOS_Lab_overseas/LiteOS_Lab/iot_link/network/lwm2m/wakaama_lwm2m/core\registration.c ****                     }
 460:C:/Users/dtjld/Desktop/AIoT_software/LiteOS_Lab_overseas/LiteOS_Lab/iot_link/network/lwm2m/wakaama_lwm2m/core\registration.c ****                     else
 461:C:/Users/dtjld/Desktop/AIoT_software/LiteOS_Lab_overseas/LiteOS_Lab/iot_link/network/lwm2m/wakaama_lwm2m/core\registration.c ****                     {
 462:C:/Users/dtjld/Desktop/AIoT_software/LiteOS_Lab_overseas/LiteOS_Lab/iot_link/network/lwm2m/wakaama_lwm2m/core\registration.c ****                         targetP->status = STATE_REG_UPDATE_NEEDED;
 1490              		.loc 1 462 0
 1491 00e4 FB68     		ldr	r3, [r7, #12]
 1492 00e6 0522     		movs	r2, #5
 1493 00e8 83F82020 		strb	r2, [r3, #32]
 1494              	.L101:
 463:C:/Users/dtjld/Desktop/AIoT_software/LiteOS_Lab_overseas/LiteOS_Lab/iot_link/network/lwm2m/wakaama_lwm2m/core\registration.c ****                     }
 464:C:/Users/dtjld/Desktop/AIoT_software/LiteOS_Lab_overseas/LiteOS_Lab/iot_link/network/lwm2m/wakaama_lwm2m/core\registration.c ****                     return COAP_NO_ERROR;
 1495              		.loc 1 464 0
 1496 00ec 0023     		movs	r3, #0
 1497 00ee 3CE0     		b	.L94
 1498              	.L99:
 465:C:/Users/dtjld/Desktop/AIoT_software/LiteOS_Lab_overseas/LiteOS_Lab/iot_link/network/lwm2m/wakaama_lwm2m/core\registration.c ****                 }
 466:C:/Users/dtjld/Desktop/AIoT_software/LiteOS_Lab_overseas/LiteOS_Lab/iot_link/network/lwm2m/wakaama_lwm2m/core\registration.c ****                 else if ((targetP->status == STATE_REG_FULL_UPDATE_NEEDED)
 1499              		.loc 1 466 0
 1500 00f0 FB68     		ldr	r3, [r7, #12]
 1501 00f2 93F82030 		ldrb	r3, [r3, #32]	@ zero_extendqisi2
 1502 00f6 062B     		cmp	r3, #6
 1503 00f8 04D0     		beq	.L102
 467:C:/Users/dtjld/Desktop/AIoT_software/LiteOS_Lab_overseas/LiteOS_Lab/iot_link/network/lwm2m/wakaama_lwm2m/core\registration.c ****                          || (targetP->status == STATE_REG_UPDATE_NEEDED))
 1504              		.loc 1 467 0
 1505 00fa FB68     		ldr	r3, [r7, #12]
 1506 00fc 93F82030 		ldrb	r3, [r3, #32]	@ zero_extendqisi2
 1507 0100 052B     		cmp	r3, #5
 1508 0102 08D1     		bne	.L103
 1509              	.L102:
 468:C:/Users/dtjld/Desktop/AIoT_software/LiteOS_Lab_overseas/LiteOS_Lab/iot_link/network/lwm2m/wakaama_lwm2m/core\registration.c ****                 {
 469:C:/Users/dtjld/Desktop/AIoT_software/LiteOS_Lab_overseas/LiteOS_Lab/iot_link/network/lwm2m/wakaama_lwm2m/core\registration.c ****                     // if REG (FULL) UPDATE is already set, returns COAP_NO_ERROR
 470:C:/Users/dtjld/Desktop/AIoT_software/LiteOS_Lab_overseas/LiteOS_Lab/iot_link/network/lwm2m/wakaama_lwm2m/core\registration.c ****                     if (withObjects == true)
 1510              		.loc 1 470 0
 1511 0104 7B78     		ldrb	r3, [r7, #1]	@ zero_extendqisi2
 1512 0106 002B     		cmp	r3, #0
 1513 0108 03D0     		beq	.L104
 471:C:/Users/dtjld/Desktop/AIoT_software/LiteOS_Lab_overseas/LiteOS_Lab/iot_link/network/lwm2m/wakaama_lwm2m/core\registration.c ****                     {
 472:C:/Users/dtjld/Desktop/AIoT_software/LiteOS_Lab_overseas/LiteOS_Lab/iot_link/network/lwm2m/wakaama_lwm2m/core\registration.c ****                         targetP->status = STATE_REG_FULL_UPDATE_NEEDED;
 1514              		.loc 1 472 0
 1515 010a FB68     		ldr	r3, [r7, #12]
 1516 010c 0622     		movs	r2, #6
 1517 010e 83F82020 		strb	r2, [r3, #32]
 1518              	.L104:
 473:C:/Users/dtjld/Desktop/AIoT_software/LiteOS_Lab_overseas/LiteOS_Lab/iot_link/network/lwm2m/wakaama_lwm2m/core\registration.c ****                     }
 474:C:/Users/dtjld/Desktop/AIoT_software/LiteOS_Lab_overseas/LiteOS_Lab/iot_link/network/lwm2m/wakaama_lwm2m/core\registration.c ****                     return COAP_NO_ERROR;
 1519              		.loc 1 474 0
 1520 0112 0023     		movs	r3, #0
 1521 0114 29E0     		b	.L94
 1522              	.L103:
 475:C:/Users/dtjld/Desktop/AIoT_software/LiteOS_Lab_overseas/LiteOS_Lab/iot_link/network/lwm2m/wakaama_lwm2m/core\registration.c ****                 }
 476:C:/Users/dtjld/Desktop/AIoT_software/LiteOS_Lab_overseas/LiteOS_Lab/iot_link/network/lwm2m/wakaama_lwm2m/core\registration.c ****                 else
 477:C:/Users/dtjld/Desktop/AIoT_software/LiteOS_Lab_overseas/LiteOS_Lab/iot_link/network/lwm2m/wakaama_lwm2m/core\registration.c ****                 {
ARM GAS  C:\Users\dtjld\AppData\Local\Temp\cctLUSig.s 			page 37


 478:C:/Users/dtjld/Desktop/AIoT_software/LiteOS_Lab_overseas/LiteOS_Lab/iot_link/network/lwm2m/wakaama_lwm2m/core\registration.c ****                     return COAP_400_BAD_REQUEST;
 1523              		.loc 1 478 0
 1524 0116 8023     		movs	r3, #128
 1525 0118 27E0     		b	.L94
 1526              	.L96:
 479:C:/Users/dtjld/Desktop/AIoT_software/LiteOS_Lab_overseas/LiteOS_Lab/iot_link/network/lwm2m/wakaama_lwm2m/core\registration.c ****                 }
 480:C:/Users/dtjld/Desktop/AIoT_software/LiteOS_Lab_overseas/LiteOS_Lab/iot_link/network/lwm2m/wakaama_lwm2m/core\registration.c ****             }
 481:C:/Users/dtjld/Desktop/AIoT_software/LiteOS_Lab_overseas/LiteOS_Lab/iot_link/network/lwm2m/wakaama_lwm2m/core\registration.c ****         }
 482:C:/Users/dtjld/Desktop/AIoT_software/LiteOS_Lab_overseas/LiteOS_Lab/iot_link/network/lwm2m/wakaama_lwm2m/core\registration.c ****         else
 483:C:/Users/dtjld/Desktop/AIoT_software/LiteOS_Lab_overseas/LiteOS_Lab/iot_link/network/lwm2m/wakaama_lwm2m/core\registration.c ****         {
 484:C:/Users/dtjld/Desktop/AIoT_software/LiteOS_Lab_overseas/LiteOS_Lab/iot_link/network/lwm2m/wakaama_lwm2m/core\registration.c ****             if (targetP->status == STATE_REGISTERED
 1527              		.loc 1 484 0
 1528 011a FB68     		ldr	r3, [r7, #12]
 1529 011c 93F82030 		ldrb	r3, [r3, #32]	@ zero_extendqisi2
 1530 0120 022B     		cmp	r3, #2
 1531 0122 04D0     		beq	.L105
 485:C:/Users/dtjld/Desktop/AIoT_software/LiteOS_Lab_overseas/LiteOS_Lab/iot_link/network/lwm2m/wakaama_lwm2m/core\registration.c ****                     || targetP->status == STATE_REG_UPDATE_PENDING)
 1532              		.loc 1 485 0
 1533 0124 FB68     		ldr	r3, [r7, #12]
 1534 0126 93F82030 		ldrb	r3, [r3, #32]	@ zero_extendqisi2
 1535 012a 042B     		cmp	r3, #4
 1536 012c 0BD1     		bne	.L97
 1537              	.L105:
 486:C:/Users/dtjld/Desktop/AIoT_software/LiteOS_Lab_overseas/LiteOS_Lab/iot_link/network/lwm2m/wakaama_lwm2m/core\registration.c ****             {
 487:C:/Users/dtjld/Desktop/AIoT_software/LiteOS_Lab_overseas/LiteOS_Lab/iot_link/network/lwm2m/wakaama_lwm2m/core\registration.c ****                 if (withObjects == true)
 1538              		.loc 1 487 0
 1539 012e 7B78     		ldrb	r3, [r7, #1]	@ zero_extendqisi2
 1540 0130 002B     		cmp	r3, #0
 1541 0132 04D0     		beq	.L106
 488:C:/Users/dtjld/Desktop/AIoT_software/LiteOS_Lab_overseas/LiteOS_Lab/iot_link/network/lwm2m/wakaama_lwm2m/core\registration.c ****                 {
 489:C:/Users/dtjld/Desktop/AIoT_software/LiteOS_Lab_overseas/LiteOS_Lab/iot_link/network/lwm2m/wakaama_lwm2m/core\registration.c ****                     targetP->status = STATE_REG_FULL_UPDATE_NEEDED;
 1542              		.loc 1 489 0
 1543 0134 FB68     		ldr	r3, [r7, #12]
 1544 0136 0622     		movs	r2, #6
 1545 0138 83F82020 		strb	r2, [r3, #32]
 1546 013c 03E0     		b	.L97
 1547              	.L106:
 490:C:/Users/dtjld/Desktop/AIoT_software/LiteOS_Lab_overseas/LiteOS_Lab/iot_link/network/lwm2m/wakaama_lwm2m/core\registration.c ****                 }
 491:C:/Users/dtjld/Desktop/AIoT_software/LiteOS_Lab_overseas/LiteOS_Lab/iot_link/network/lwm2m/wakaama_lwm2m/core\registration.c ****                 else
 492:C:/Users/dtjld/Desktop/AIoT_software/LiteOS_Lab_overseas/LiteOS_Lab/iot_link/network/lwm2m/wakaama_lwm2m/core\registration.c ****                 {
 493:C:/Users/dtjld/Desktop/AIoT_software/LiteOS_Lab_overseas/LiteOS_Lab/iot_link/network/lwm2m/wakaama_lwm2m/core\registration.c ****                     targetP->status = STATE_REG_UPDATE_NEEDED;
 1548              		.loc 1 493 0
 1549 013e FB68     		ldr	r3, [r7, #12]
 1550 0140 0522     		movs	r2, #5
 1551 0142 83F82020 		strb	r2, [r3, #32]
 1552              	.L97:
 494:C:/Users/dtjld/Desktop/AIoT_software/LiteOS_Lab_overseas/LiteOS_Lab/iot_link/network/lwm2m/wakaama_lwm2m/core\registration.c ****                 }
 495:C:/Users/dtjld/Desktop/AIoT_software/LiteOS_Lab_overseas/LiteOS_Lab/iot_link/network/lwm2m/wakaama_lwm2m/core\registration.c ****             }
 496:C:/Users/dtjld/Desktop/AIoT_software/LiteOS_Lab_overseas/LiteOS_Lab/iot_link/network/lwm2m/wakaama_lwm2m/core\registration.c ****         }
 497:C:/Users/dtjld/Desktop/AIoT_software/LiteOS_Lab_overseas/LiteOS_Lab/iot_link/network/lwm2m/wakaama_lwm2m/core\registration.c ****         targetP = targetP->next;
 1553              		.loc 1 497 0
 1554 0146 FB68     		ldr	r3, [r7, #12]
 1555 0148 1B68     		ldr	r3, [r3]
 1556 014a FB60     		str	r3, [r7, #12]
 1557              	.L95:
 446:C:/Users/dtjld/Desktop/AIoT_software/LiteOS_Lab_overseas/LiteOS_Lab/iot_link/network/lwm2m/wakaama_lwm2m/core\registration.c ****     {
 1558              		.loc 1 446 0
ARM GAS  C:\Users\dtjld\AppData\Local\Temp\cctLUSig.s 			page 38


 1559 014c FB68     		ldr	r3, [r7, #12]
 1560 014e 002B     		cmp	r3, #0
 1561 0150 02D0     		beq	.L107
 446:C:/Users/dtjld/Desktop/AIoT_software/LiteOS_Lab_overseas/LiteOS_Lab/iot_link/network/lwm2m/wakaama_lwm2m/core\registration.c ****     {
 1562              		.loc 1 446 0 is_stmt 0 discriminator 1
 1563 0152 FB7A     		ldrb	r3, [r7, #11]	@ zero_extendqisi2
 1564 0154 002B     		cmp	r3, #0
 1565 0156 ABD0     		beq	.L108
 1566              	.L107:
 498:C:/Users/dtjld/Desktop/AIoT_software/LiteOS_Lab_overseas/LiteOS_Lab/iot_link/network/lwm2m/wakaama_lwm2m/core\registration.c ****     }
 499:C:/Users/dtjld/Desktop/AIoT_software/LiteOS_Lab_overseas/LiteOS_Lab/iot_link/network/lwm2m/wakaama_lwm2m/core\registration.c **** 
 500:C:/Users/dtjld/Desktop/AIoT_software/LiteOS_Lab_overseas/LiteOS_Lab/iot_link/network/lwm2m/wakaama_lwm2m/core\registration.c ****     if (shortServerID != 0
 1567              		.loc 1 500 0 is_stmt 1
 1568 0158 7B88     		ldrh	r3, [r7, #2]
 1569 015a 002B     		cmp	r3, #0
 1570 015c 04D0     		beq	.L109
 501:C:/Users/dtjld/Desktop/AIoT_software/LiteOS_Lab_overseas/LiteOS_Lab/iot_link/network/lwm2m/wakaama_lwm2m/core\registration.c ****             && targetP == NULL)
 1571              		.loc 1 501 0
 1572 015e FB68     		ldr	r3, [r7, #12]
 1573 0160 002B     		cmp	r3, #0
 1574 0162 01D1     		bne	.L109
 502:C:/Users/dtjld/Desktop/AIoT_software/LiteOS_Lab_overseas/LiteOS_Lab/iot_link/network/lwm2m/wakaama_lwm2m/core\registration.c ****     {
 503:C:/Users/dtjld/Desktop/AIoT_software/LiteOS_Lab_overseas/LiteOS_Lab/iot_link/network/lwm2m/wakaama_lwm2m/core\registration.c ****         // no server found
 504:C:/Users/dtjld/Desktop/AIoT_software/LiteOS_Lab_overseas/LiteOS_Lab/iot_link/network/lwm2m/wakaama_lwm2m/core\registration.c ****         result = COAP_404_NOT_FOUND;
 1575              		.loc 1 504 0
 1576 0164 8423     		movs	r3, #132
 1577 0166 FB72     		strb	r3, [r7, #11]
 1578              	.L109:
 505:C:/Users/dtjld/Desktop/AIoT_software/LiteOS_Lab_overseas/LiteOS_Lab/iot_link/network/lwm2m/wakaama_lwm2m/core\registration.c ****     }
 506:C:/Users/dtjld/Desktop/AIoT_software/LiteOS_Lab_overseas/LiteOS_Lab/iot_link/network/lwm2m/wakaama_lwm2m/core\registration.c **** 
 507:C:/Users/dtjld/Desktop/AIoT_software/LiteOS_Lab_overseas/LiteOS_Lab/iot_link/network/lwm2m/wakaama_lwm2m/core\registration.c ****     return result;
 1579              		.loc 1 507 0
 1580 0168 FB7A     		ldrb	r3, [r7, #11]	@ zero_extendqisi2
 1581              	.L94:
 508:C:/Users/dtjld/Desktop/AIoT_software/LiteOS_Lab_overseas/LiteOS_Lab/iot_link/network/lwm2m/wakaama_lwm2m/core\registration.c **** }
 1582              		.loc 1 508 0
 1583 016a 1846     		mov	r0, r3
 1584 016c 1437     		adds	r7, r7, #20
 1585              	.LCFI33:
 1586              		.cfi_def_cfa_offset 12
 1587 016e BD46     		mov	sp, r7
 1588              	.LCFI34:
 1589              		.cfi_def_cfa_register 13
 1590              		@ sp needed
 1591 0170 90BD     		pop	{r4, r7, pc}
 1592              	.L111:
 1593 0172 00BF     		.align	2
 1594              	.L110:
 1595 0174 34010000 		.word	.LC15
 1596 0178 40010000 		.word	.LC16
 1597 017c 48010000 		.word	.LC17
 1598 0180 5C010000 		.word	.LC18
 1599 0184 74010000 		.word	.LC19
 1600 0188 88010000 		.word	.LC20
 1601 018c A4010000 		.word	.LC21
 1602 0190 00000000 		.word	__func__.8574
 1603 0194 B4010000 		.word	.LC22
ARM GAS  C:\Users\dtjld\AppData\Local\Temp\cctLUSig.s 			page 39


 1604 0198 E0010000 		.word	.LC23
 1605              		.cfi_endproc
 1606              	.LFE10:
 1608              		.section	.rodata
 1609 01fe 0000     		.align	2
 1610              	.LC24:
 1611 0200 5B25645D 		.ascii	"[%d][%s:%d] State: %s\015\012\000"
 1611      5B25733A 
 1611      25645D20 
 1611      53746174 
 1611      653A2025 
 1612              		.section	.text.registration_start,"ax",%progbits
 1613              		.align	1
 1614              		.global	registration_start
 1615              		.syntax unified
 1616              		.thumb
 1617              		.thumb_func
 1618              		.fpu fpv4-sp-d16
 1620              	registration_start:
 1621              	.LFB11:
 509:C:/Users/dtjld/Desktop/AIoT_software/LiteOS_Lab_overseas/LiteOS_Lab/iot_link/network/lwm2m/wakaama_lwm2m/core\registration.c **** //serverlistobjectlist
 510:C:/Users/dtjld/Desktop/AIoT_software/LiteOS_Lab_overseas/LiteOS_Lab/iot_link/network/lwm2m/wakaama_lwm2m/core\registration.c **** uint8_t registration_start(lwm2m_context_t *contextP)
 511:C:/Users/dtjld/Desktop/AIoT_software/LiteOS_Lab_overseas/LiteOS_Lab/iot_link/network/lwm2m/wakaama_lwm2m/core\registration.c **** {
 1622              		.loc 1 511 0
 1623              		.cfi_startproc
 1624              		@ args = 0, pretend = 0, frame = 16
 1625              		@ frame_needed = 1, uses_anonymous_args = 0
 1626 0000 90B5     		push	{r4, r7, lr}
 1627              	.LCFI35:
 1628              		.cfi_def_cfa_offset 12
 1629              		.cfi_offset 4, -12
 1630              		.cfi_offset 7, -8
 1631              		.cfi_offset 14, -4
 1632 0002 87B0     		sub	sp, sp, #28
 1633              	.LCFI36:
 1634              		.cfi_def_cfa_offset 40
 1635 0004 02AF     		add	r7, sp, #8
 1636              	.LCFI37:
 1637              		.cfi_def_cfa 7, 32
 1638 0006 7860     		str	r0, [r7, #4]
 512:C:/Users/dtjld/Desktop/AIoT_software/LiteOS_Lab_overseas/LiteOS_Lab/iot_link/network/lwm2m/wakaama_lwm2m/core\registration.c ****     lwm2m_server_t *targetP;
 513:C:/Users/dtjld/Desktop/AIoT_software/LiteOS_Lab_overseas/LiteOS_Lab/iot_link/network/lwm2m/wakaama_lwm2m/core\registration.c ****     uint8_t result;
 514:C:/Users/dtjld/Desktop/AIoT_software/LiteOS_Lab_overseas/LiteOS_Lab/iot_link/network/lwm2m/wakaama_lwm2m/core\registration.c **** 
 515:C:/Users/dtjld/Desktop/AIoT_software/LiteOS_Lab_overseas/LiteOS_Lab/iot_link/network/lwm2m/wakaama_lwm2m/core\registration.c ****     LOG_ARG("State: %s", STR_STATE(contextP->state));
 1639              		.loc 1 515 0
 1640 0008 FFF7FEFF 		bl	lwm2m_gettime
 1641 000c 0346     		mov	r3, r0
 1642 000e 0C46     		mov	r4, r1
 1643 0010 1946     		mov	r1, r3
 1644 0012 7B68     		ldr	r3, [r7, #4]
 1645 0014 1B78     		ldrb	r3, [r3]	@ zero_extendqisi2
 1646 0016 002B     		cmp	r3, #0
 1647 0018 1FD0     		beq	.L113
 1648              		.loc 1 515 0 is_stmt 0 discriminator 1
 1649 001a 7B68     		ldr	r3, [r7, #4]
 1650 001c 1B78     		ldrb	r3, [r3]	@ zero_extendqisi2
 1651 001e 012B     		cmp	r3, #1
ARM GAS  C:\Users\dtjld\AppData\Local\Temp\cctLUSig.s 			page 40


 1652 0020 19D0     		beq	.L114
 1653              		.loc 1 515 0 discriminator 3
 1654 0022 7B68     		ldr	r3, [r7, #4]
 1655 0024 1B78     		ldrb	r3, [r3]	@ zero_extendqisi2
 1656 0026 022B     		cmp	r3, #2
 1657 0028 13D0     		beq	.L115
 1658              		.loc 1 515 0 discriminator 5
 1659 002a 7B68     		ldr	r3, [r7, #4]
 1660 002c 1B78     		ldrb	r3, [r3]	@ zero_extendqisi2
 1661 002e 032B     		cmp	r3, #3
 1662 0030 0DD0     		beq	.L116
 1663              		.loc 1 515 0 discriminator 7
 1664 0032 7B68     		ldr	r3, [r7, #4]
 1665 0034 1B78     		ldrb	r3, [r3]	@ zero_extendqisi2
 1666 0036 042B     		cmp	r3, #4
 1667 0038 07D0     		beq	.L117
 1668              		.loc 1 515 0 discriminator 9
 1669 003a 7B68     		ldr	r3, [r7, #4]
 1670 003c 1B78     		ldrb	r3, [r3]	@ zero_extendqisi2
 1671 003e 052B     		cmp	r3, #5
 1672 0040 01D1     		bne	.L118
 1673              		.loc 1 515 0 discriminator 11
 1674 0042 1C4B     		ldr	r3, .L131
 1675 0044 0AE0     		b	.L124
 1676              	.L118:
 1677              		.loc 1 515 0 discriminator 12
 1678 0046 1C4B     		ldr	r3, .L131+4
 1679 0048 08E0     		b	.L124
 1680              	.L117:
 1681              		.loc 1 515 0 discriminator 10
 1682 004a 1C4B     		ldr	r3, .L131+8
 1683 004c 06E0     		b	.L124
 1684              	.L116:
 1685              		.loc 1 515 0 discriminator 8
 1686 004e 1C4B     		ldr	r3, .L131+12
 1687 0050 04E0     		b	.L124
 1688              	.L115:
 1689              		.loc 1 515 0 discriminator 6
 1690 0052 1C4B     		ldr	r3, .L131+16
 1691 0054 02E0     		b	.L124
 1692              	.L114:
 1693              		.loc 1 515 0 discriminator 4
 1694 0056 1C4B     		ldr	r3, .L131+20
 1695 0058 00E0     		b	.L124
 1696              	.L113:
 1697              		.loc 1 515 0 discriminator 2
 1698 005a 1C4B     		ldr	r3, .L131+24
 1699              	.L124:
 1700              		.loc 1 515 0 discriminator 24
 1701 005c 0093     		str	r3, [sp]
 1702 005e 40F20323 		movw	r3, #515
 1703 0062 1B4A     		ldr	r2, .L131+28
 1704 0064 1B48     		ldr	r0, .L131+32
 1705 0066 FFF7FEFF 		bl	atiny_printf
 516:C:/Users/dtjld/Desktop/AIoT_software/LiteOS_Lab_overseas/LiteOS_Lab/iot_link/network/lwm2m/wakaama_lwm2m/core\registration.c **** 
 517:C:/Users/dtjld/Desktop/AIoT_software/LiteOS_Lab_overseas/LiteOS_Lab/iot_link/network/lwm2m/wakaama_lwm2m/core\registration.c ****     result = COAP_NO_ERROR;
 1706              		.loc 1 517 0 is_stmt 1 discriminator 24
ARM GAS  C:\Users\dtjld\AppData\Local\Temp\cctLUSig.s 			page 41


 1707 006a 0023     		movs	r3, #0
 1708 006c FB72     		strb	r3, [r7, #11]
 518:C:/Users/dtjld/Desktop/AIoT_software/LiteOS_Lab_overseas/LiteOS_Lab/iot_link/network/lwm2m/wakaama_lwm2m/core\registration.c **** 
 519:C:/Users/dtjld/Desktop/AIoT_software/LiteOS_Lab_overseas/LiteOS_Lab/iot_link/network/lwm2m/wakaama_lwm2m/core\registration.c ****     targetP = contextP->serverList;
 1709              		.loc 1 519 0 discriminator 24
 1710 006e 7B68     		ldr	r3, [r7, #4]
 1711 0070 5B69     		ldr	r3, [r3, #20]
 1712 0072 FB60     		str	r3, [r7, #12]
 520:C:/Users/dtjld/Desktop/AIoT_software/LiteOS_Lab_overseas/LiteOS_Lab/iot_link/network/lwm2m/wakaama_lwm2m/core\registration.c ****     while (targetP != NULL && result == COAP_NO_ERROR)
 1713              		.loc 1 520 0 discriminator 24
 1714 0074 12E0     		b	.L125
 1715              	.L129:
 521:C:/Users/dtjld/Desktop/AIoT_software/LiteOS_Lab_overseas/LiteOS_Lab/iot_link/network/lwm2m/wakaama_lwm2m/core\registration.c ****     {
 522:C:/Users/dtjld/Desktop/AIoT_software/LiteOS_Lab_overseas/LiteOS_Lab/iot_link/network/lwm2m/wakaama_lwm2m/core\registration.c ****         if (targetP->status == STATE_DEREGISTERED
 1716              		.loc 1 522 0
 1717 0076 FB68     		ldr	r3, [r7, #12]
 1718 0078 93F82030 		ldrb	r3, [r3, #32]	@ zero_extendqisi2
 1719 007c 002B     		cmp	r3, #0
 1720 007e 04D0     		beq	.L126
 523:C:/Users/dtjld/Desktop/AIoT_software/LiteOS_Lab_overseas/LiteOS_Lab/iot_link/network/lwm2m/wakaama_lwm2m/core\registration.c ****                 || targetP->status == STATE_REG_FAILED)
 1721              		.loc 1 523 0
 1722 0080 FB68     		ldr	r3, [r7, #12]
 1723 0082 93F82030 		ldrb	r3, [r3, #32]	@ zero_extendqisi2
 1724 0086 032B     		cmp	r3, #3
 1725 0088 05D1     		bne	.L127
 1726              	.L126:
 524:C:/Users/dtjld/Desktop/AIoT_software/LiteOS_Lab_overseas/LiteOS_Lab/iot_link/network/lwm2m/wakaama_lwm2m/core\registration.c ****         {
 525:C:/Users/dtjld/Desktop/AIoT_software/LiteOS_Lab_overseas/LiteOS_Lab/iot_link/network/lwm2m/wakaama_lwm2m/core\registration.c ****             result = prv_register(contextP, targetP);
 1727              		.loc 1 525 0
 1728 008a F968     		ldr	r1, [r7, #12]
 1729 008c 7868     		ldr	r0, [r7, #4]
 1730 008e FFF7FEFF 		bl	prv_register
 1731 0092 0346     		mov	r3, r0
 1732 0094 FB72     		strb	r3, [r7, #11]
 1733              	.L127:
 526:C:/Users/dtjld/Desktop/AIoT_software/LiteOS_Lab_overseas/LiteOS_Lab/iot_link/network/lwm2m/wakaama_lwm2m/core\registration.c ****         }
 527:C:/Users/dtjld/Desktop/AIoT_software/LiteOS_Lab_overseas/LiteOS_Lab/iot_link/network/lwm2m/wakaama_lwm2m/core\registration.c ****         targetP = targetP->next;
 1734              		.loc 1 527 0
 1735 0096 FB68     		ldr	r3, [r7, #12]
 1736 0098 1B68     		ldr	r3, [r3]
 1737 009a FB60     		str	r3, [r7, #12]
 1738              	.L125:
 520:C:/Users/dtjld/Desktop/AIoT_software/LiteOS_Lab_overseas/LiteOS_Lab/iot_link/network/lwm2m/wakaama_lwm2m/core\registration.c ****     {
 1739              		.loc 1 520 0
 1740 009c FB68     		ldr	r3, [r7, #12]
 1741 009e 002B     		cmp	r3, #0
 1742 00a0 02D0     		beq	.L128
 520:C:/Users/dtjld/Desktop/AIoT_software/LiteOS_Lab_overseas/LiteOS_Lab/iot_link/network/lwm2m/wakaama_lwm2m/core\registration.c ****     {
 1743              		.loc 1 520 0 is_stmt 0 discriminator 1
 1744 00a2 FB7A     		ldrb	r3, [r7, #11]	@ zero_extendqisi2
 1745 00a4 002B     		cmp	r3, #0
 1746 00a6 E6D0     		beq	.L129
 1747              	.L128:
 528:C:/Users/dtjld/Desktop/AIoT_software/LiteOS_Lab_overseas/LiteOS_Lab/iot_link/network/lwm2m/wakaama_lwm2m/core\registration.c ****     }
 529:C:/Users/dtjld/Desktop/AIoT_software/LiteOS_Lab_overseas/LiteOS_Lab/iot_link/network/lwm2m/wakaama_lwm2m/core\registration.c **** 
 530:C:/Users/dtjld/Desktop/AIoT_software/LiteOS_Lab_overseas/LiteOS_Lab/iot_link/network/lwm2m/wakaama_lwm2m/core\registration.c ****     return result;
 1748              		.loc 1 530 0 is_stmt 1
ARM GAS  C:\Users\dtjld\AppData\Local\Temp\cctLUSig.s 			page 42


 1749 00a8 FB7A     		ldrb	r3, [r7, #11]	@ zero_extendqisi2
 531:C:/Users/dtjld/Desktop/AIoT_software/LiteOS_Lab_overseas/LiteOS_Lab/iot_link/network/lwm2m/wakaama_lwm2m/core\registration.c **** }
 1750              		.loc 1 531 0
 1751 00aa 1846     		mov	r0, r3
 1752 00ac 1437     		adds	r7, r7, #20
 1753              	.LCFI38:
 1754              		.cfi_def_cfa_offset 12
 1755 00ae BD46     		mov	sp, r7
 1756              	.LCFI39:
 1757              		.cfi_def_cfa_register 13
 1758              		@ sp needed
 1759 00b0 90BD     		pop	{r4, r7, pc}
 1760              	.L132:
 1761 00b2 00BF     		.align	2
 1762              	.L131:
 1763 00b4 34010000 		.word	.LC15
 1764 00b8 40010000 		.word	.LC16
 1765 00bc 48010000 		.word	.LC17
 1766 00c0 5C010000 		.word	.LC18
 1767 00c4 74010000 		.word	.LC19
 1768 00c8 88010000 		.word	.LC20
 1769 00cc A4010000 		.word	.LC21
 1770 00d0 00000000 		.word	__func__.8583
 1771 00d4 00020000 		.word	.LC24
 1772              		.cfi_endproc
 1773              	.LFE11:
 1775              		.section	.rodata
 1776              		.align	2
 1777              	.LC25:
 1778 0218 53544154 		.ascii	"STATE_BS_FAILED\000"
 1778      455F4253 
 1778      5F464149 
 1778      4C454400 
 1779              		.align	2
 1780              	.LC26:
 1781 0228 53544154 		.ascii	"STATE_BS_FAILING\000"
 1781      455F4253 
 1781      5F464149 
 1781      4C494E47 
 1781      00
 1782 0239 000000   		.align	2
 1783              	.LC27:
 1784 023c 53544154 		.ascii	"STATE_BS_FINISHING\000"
 1784      455F4253 
 1784      5F46494E 
 1784      49534849 
 1784      4E4700
 1785 024f 00       		.align	2
 1786              	.LC28:
 1787 0250 53544154 		.ascii	"STATE_BS_FINISHED\000"
 1787      455F4253 
 1787      5F46494E 
 1787      49534845 
 1787      4400
 1788 0262 0000     		.align	2
 1789              	.LC29:
 1790 0264 53544154 		.ascii	"STATE_BS_PENDING\000"
ARM GAS  C:\Users\dtjld\AppData\Local\Temp\cctLUSig.s 			page 43


 1790      455F4253 
 1790      5F50454E 
 1790      44494E47 
 1790      00
 1791 0275 000000   		.align	2
 1792              	.LC30:
 1793 0278 53544154 		.ascii	"STATE_BS_INITIATED\000"
 1793      455F4253 
 1793      5F494E49 
 1793      54494154 
 1793      454400
 1794 028b 00       		.align	2
 1795              	.LC31:
 1796 028c 53544154 		.ascii	"STATE_BS_HOLD_OFF\000"
 1796      455F4253 
 1796      5F484F4C 
 1796      445F4F46 
 1796      4600
 1797 029e 0000     		.align	2
 1798              	.LC32:
 1799 02a0 53544154 		.ascii	"STATE_DEREG_PENDING\000"
 1799      455F4445 
 1799      5245475F 
 1799      50454E44 
 1799      494E4700 
 1800              		.align	2
 1801              	.LC33:
 1802 02b4 53544154 		.ascii	"STATE_REG_FULL_UPDATE_NEEDED\000"
 1802      455F5245 
 1802      475F4655 
 1802      4C4C5F55 
 1802      50444154 
 1803 02d1 000000   		.align	2
 1804              	.LC34:
 1805 02d4 53544154 		.ascii	"STATE_REG_UPDATE_NEEDED\000"
 1805      455F5245 
 1805      475F5550 
 1805      44415445 
 1805      5F4E4545 
 1806              		.align	2
 1807              	.LC35:
 1808 02ec 53544154 		.ascii	"STATE_REG_UPDATE_PENDING\000"
 1808      455F5245 
 1808      475F5550 
 1808      44415445 
 1808      5F50454E 
 1809 0305 000000   		.align	2
 1810              	.LC36:
 1811 0308 53544154 		.ascii	"STATE_REG_FAILED\000"
 1811      455F5245 
 1811      475F4641 
 1811      494C4544 
 1811      00
 1812 0319 000000   		.align	2
 1813              	.LC37:
 1814 031c 53544154 		.ascii	"STATE_REGISTERED\000"
 1814      455F5245 
ARM GAS  C:\Users\dtjld\AppData\Local\Temp\cctLUSig.s 			page 44


 1814      47495354 
 1814      45524544 
 1814      00
 1815 032d 000000   		.align	2
 1816              	.LC38:
 1817 0330 53544154 		.ascii	"STATE_REG_PENDING\000"
 1817      455F5245 
 1817      475F5045 
 1817      4E44494E 
 1817      4700
 1818 0342 0000     		.align	2
 1819              	.LC39:
 1820 0344 53544154 		.ascii	"STATE_DEREGISTERED\000"
 1820      455F4445 
 1820      52454749 
 1820      53544552 
 1820      454400
 1821 0357 00       		.align	2
 1822              	.LC40:
 1823 0358 5B25645D 		.ascii	"[%d][%s:%d] targetP->status: %s\015\012\000"
 1823      5B25733A 
 1823      25645D20 
 1823      74617267 
 1823      6574502D 
 1824 037a 0000     		.align	2
 1825              	.LC41:
 1826 037c 5B25645D 		.ascii	"[%d][%s:%d] reg_status: %s\015\012\000"
 1826      5B25733A 
 1826      25645D20 
 1826      7265675F 
 1826      73746174 
 1827              		.section	.text.registration_getStatus,"ax",%progbits
 1828              		.align	1
 1829              		.global	registration_getStatus
 1830              		.syntax unified
 1831              		.thumb
 1832              		.thumb_func
 1833              		.fpu fpv4-sp-d16
 1835              	registration_getStatus:
 1836              	.LFB12:
 532:C:/Users/dtjld/Desktop/AIoT_software/LiteOS_Lab_overseas/LiteOS_Lab/iot_link/network/lwm2m/wakaama_lwm2m/core\registration.c **** 
 533:C:/Users/dtjld/Desktop/AIoT_software/LiteOS_Lab_overseas/LiteOS_Lab/iot_link/network/lwm2m/wakaama_lwm2m/core\registration.c **** 
 534:C:/Users/dtjld/Desktop/AIoT_software/LiteOS_Lab_overseas/LiteOS_Lab/iot_link/network/lwm2m/wakaama_lwm2m/core\registration.c **** /*
 535:C:/Users/dtjld/Desktop/AIoT_software/LiteOS_Lab_overseas/LiteOS_Lab/iot_link/network/lwm2m/wakaama_lwm2m/core\registration.c ****  * Returns STATE_REG_PENDING if at least one registration is still pending
 536:C:/Users/dtjld/Desktop/AIoT_software/LiteOS_Lab_overseas/LiteOS_Lab/iot_link/network/lwm2m/wakaama_lwm2m/core\registration.c ****  * Returns STATE_REGISTERED if no registration is pending and there is at least one server the clie
 537:C:/Users/dtjld/Desktop/AIoT_software/LiteOS_Lab_overseas/LiteOS_Lab/iot_link/network/lwm2m/wakaama_lwm2m/core\registration.c ****  * Returns STATE_REG_FAILED if all registration failed.
 538:C:/Users/dtjld/Desktop/AIoT_software/LiteOS_Lab_overseas/LiteOS_Lab/iot_link/network/lwm2m/wakaama_lwm2m/core\registration.c ****  */
 539:C:/Users/dtjld/Desktop/AIoT_software/LiteOS_Lab_overseas/LiteOS_Lab/iot_link/network/lwm2m/wakaama_lwm2m/core\registration.c **** lwm2m_status_t registration_getStatus(lwm2m_context_t *contextP)
 540:C:/Users/dtjld/Desktop/AIoT_software/LiteOS_Lab_overseas/LiteOS_Lab/iot_link/network/lwm2m/wakaama_lwm2m/core\registration.c **** {
 1837              		.loc 1 540 0
 1838              		.cfi_startproc
 1839              		@ args = 0, pretend = 0, frame = 16
 1840              		@ frame_needed = 1, uses_anonymous_args = 0
 1841 0000 90B5     		push	{r4, r7, lr}
 1842              	.LCFI40:
 1843              		.cfi_def_cfa_offset 12
 1844              		.cfi_offset 4, -12
ARM GAS  C:\Users\dtjld\AppData\Local\Temp\cctLUSig.s 			page 45


 1845              		.cfi_offset 7, -8
 1846              		.cfi_offset 14, -4
 1847 0002 87B0     		sub	sp, sp, #28
 1848              	.LCFI41:
 1849              		.cfi_def_cfa_offset 40
 1850 0004 02AF     		add	r7, sp, #8
 1851              	.LCFI42:
 1852              		.cfi_def_cfa 7, 32
 1853 0006 7860     		str	r0, [r7, #4]
 541:C:/Users/dtjld/Desktop/AIoT_software/LiteOS_Lab_overseas/LiteOS_Lab/iot_link/network/lwm2m/wakaama_lwm2m/core\registration.c ****     lwm2m_server_t *targetP;
 542:C:/Users/dtjld/Desktop/AIoT_software/LiteOS_Lab_overseas/LiteOS_Lab/iot_link/network/lwm2m/wakaama_lwm2m/core\registration.c ****     lwm2m_status_t reg_status;
 543:C:/Users/dtjld/Desktop/AIoT_software/LiteOS_Lab_overseas/LiteOS_Lab/iot_link/network/lwm2m/wakaama_lwm2m/core\registration.c **** 
 544:C:/Users/dtjld/Desktop/AIoT_software/LiteOS_Lab_overseas/LiteOS_Lab/iot_link/network/lwm2m/wakaama_lwm2m/core\registration.c ****     LOG_ARG("State: %s", STR_STATE(contextP->state));
 1854              		.loc 1 544 0
 1855 0008 FFF7FEFF 		bl	lwm2m_gettime
 1856 000c 0346     		mov	r3, r0
 1857 000e 0C46     		mov	r4, r1
 1858 0010 1946     		mov	r1, r3
 1859 0012 7B68     		ldr	r3, [r7, #4]
 1860 0014 1B78     		ldrb	r3, [r3]	@ zero_extendqisi2
 1861 0016 002B     		cmp	r3, #0
 1862 0018 1FD0     		beq	.L134
 1863              		.loc 1 544 0 is_stmt 0 discriminator 1
 1864 001a 7B68     		ldr	r3, [r7, #4]
 1865 001c 1B78     		ldrb	r3, [r3]	@ zero_extendqisi2
 1866 001e 012B     		cmp	r3, #1
 1867 0020 19D0     		beq	.L135
 1868              		.loc 1 544 0 discriminator 3
 1869 0022 7B68     		ldr	r3, [r7, #4]
 1870 0024 1B78     		ldrb	r3, [r3]	@ zero_extendqisi2
 1871 0026 022B     		cmp	r3, #2
 1872 0028 13D0     		beq	.L136
 1873              		.loc 1 544 0 discriminator 5
 1874 002a 7B68     		ldr	r3, [r7, #4]
 1875 002c 1B78     		ldrb	r3, [r3]	@ zero_extendqisi2
 1876 002e 032B     		cmp	r3, #3
 1877 0030 0DD0     		beq	.L137
 1878              		.loc 1 544 0 discriminator 7
 1879 0032 7B68     		ldr	r3, [r7, #4]
 1880 0034 1B78     		ldrb	r3, [r3]	@ zero_extendqisi2
 1881 0036 042B     		cmp	r3, #4
 1882 0038 07D0     		beq	.L138
 1883              		.loc 1 544 0 discriminator 9
 1884 003a 7B68     		ldr	r3, [r7, #4]
 1885 003c 1B78     		ldrb	r3, [r3]	@ zero_extendqisi2
 1886 003e 052B     		cmp	r3, #5
 1887 0040 01D1     		bne	.L139
 1888              		.loc 1 544 0 discriminator 11
 1889 0042 8A4B     		ldr	r3, .L217
 1890 0044 0AE0     		b	.L145
 1891              	.L139:
 1892              		.loc 1 544 0 discriminator 12
 1893 0046 8A4B     		ldr	r3, .L217+4
 1894 0048 08E0     		b	.L145
 1895              	.L138:
 1896              		.loc 1 544 0 discriminator 10
 1897 004a 8A4B     		ldr	r3, .L217+8
ARM GAS  C:\Users\dtjld\AppData\Local\Temp\cctLUSig.s 			page 46


 1898 004c 06E0     		b	.L145
 1899              	.L137:
 1900              		.loc 1 544 0 discriminator 8
 1901 004e 8A4B     		ldr	r3, .L217+12
 1902 0050 04E0     		b	.L145
 1903              	.L136:
 1904              		.loc 1 544 0 discriminator 6
 1905 0052 8A4B     		ldr	r3, .L217+16
 1906 0054 02E0     		b	.L145
 1907              	.L135:
 1908              		.loc 1 544 0 discriminator 4
 1909 0056 8A4B     		ldr	r3, .L217+20
 1910 0058 00E0     		b	.L145
 1911              	.L134:
 1912              		.loc 1 544 0 discriminator 2
 1913 005a 8A4B     		ldr	r3, .L217+24
 1914              	.L145:
 1915              		.loc 1 544 0 discriminator 24
 1916 005c 0093     		str	r3, [sp]
 1917 005e 4FF40873 		mov	r3, #544
 1918 0062 894A     		ldr	r2, .L217+28
 1919 0064 8948     		ldr	r0, .L217+32
 1920 0066 FFF7FEFF 		bl	atiny_printf
 545:C:/Users/dtjld/Desktop/AIoT_software/LiteOS_Lab_overseas/LiteOS_Lab/iot_link/network/lwm2m/wakaama_lwm2m/core\registration.c **** 
 546:C:/Users/dtjld/Desktop/AIoT_software/LiteOS_Lab_overseas/LiteOS_Lab/iot_link/network/lwm2m/wakaama_lwm2m/core\registration.c ****     targetP = contextP->serverList;
 1921              		.loc 1 546 0 is_stmt 1 discriminator 24
 1922 006a 7B68     		ldr	r3, [r7, #4]
 1923 006c 5B69     		ldr	r3, [r3, #20]
 1924 006e FB60     		str	r3, [r7, #12]
 547:C:/Users/dtjld/Desktop/AIoT_software/LiteOS_Lab_overseas/LiteOS_Lab/iot_link/network/lwm2m/wakaama_lwm2m/core\registration.c ****     reg_status = STATE_REG_FAILED;
 1925              		.loc 1 547 0 discriminator 24
 1926 0070 0323     		movs	r3, #3
 1927 0072 FB72     		strb	r3, [r7, #11]
 548:C:/Users/dtjld/Desktop/AIoT_software/LiteOS_Lab_overseas/LiteOS_Lab/iot_link/network/lwm2m/wakaama_lwm2m/core\registration.c **** 
 549:C:/Users/dtjld/Desktop/AIoT_software/LiteOS_Lab_overseas/LiteOS_Lab/iot_link/network/lwm2m/wakaama_lwm2m/core\registration.c ****     while (targetP != NULL)
 1928              		.loc 1 549 0 discriminator 24
 1929 0074 F1E0     		b	.L146
 1930              	.L213:
 550:C:/Users/dtjld/Desktop/AIoT_software/LiteOS_Lab_overseas/LiteOS_Lab/iot_link/network/lwm2m/wakaama_lwm2m/core\registration.c ****     {
 551:C:/Users/dtjld/Desktop/AIoT_software/LiteOS_Lab_overseas/LiteOS_Lab/iot_link/network/lwm2m/wakaama_lwm2m/core\registration.c ****         LOG_ARG("targetP->status: %s", STR_STATUS(targetP->status));
 1931              		.loc 1 551 0
 1932 0076 FFF7FEFF 		bl	lwm2m_gettime
 1933 007a 0346     		mov	r3, r0
 1934 007c 0C46     		mov	r4, r1
 1935 007e 1946     		mov	r1, r3
 1936 0080 FB68     		ldr	r3, [r7, #12]
 1937 0082 93F82030 		ldrb	r3, [r3, #32]	@ zero_extendqisi2
 1938 0086 002B     		cmp	r3, #0
 1939 0088 63D0     		beq	.L147
 1940              		.loc 1 551 0 is_stmt 0 discriminator 1
 1941 008a FB68     		ldr	r3, [r7, #12]
 1942 008c 93F82030 		ldrb	r3, [r3, #32]	@ zero_extendqisi2
 1943 0090 012B     		cmp	r3, #1
 1944 0092 5CD0     		beq	.L148
 1945              		.loc 1 551 0 discriminator 3
 1946 0094 FB68     		ldr	r3, [r7, #12]
 1947 0096 93F82030 		ldrb	r3, [r3, #32]	@ zero_extendqisi2
ARM GAS  C:\Users\dtjld\AppData\Local\Temp\cctLUSig.s 			page 47


 1948 009a 022B     		cmp	r3, #2
 1949 009c 55D0     		beq	.L149
 1950              		.loc 1 551 0 discriminator 5
 1951 009e FB68     		ldr	r3, [r7, #12]
 1952 00a0 93F82030 		ldrb	r3, [r3, #32]	@ zero_extendqisi2
 1953 00a4 032B     		cmp	r3, #3
 1954 00a6 4ED0     		beq	.L150
 1955              		.loc 1 551 0 discriminator 7
 1956 00a8 FB68     		ldr	r3, [r7, #12]
 1957 00aa 93F82030 		ldrb	r3, [r3, #32]	@ zero_extendqisi2
 1958 00ae 042B     		cmp	r3, #4
 1959 00b0 47D0     		beq	.L151
 1960              		.loc 1 551 0 discriminator 9
 1961 00b2 FB68     		ldr	r3, [r7, #12]
 1962 00b4 93F82030 		ldrb	r3, [r3, #32]	@ zero_extendqisi2
 1963 00b8 052B     		cmp	r3, #5
 1964 00ba 40D0     		beq	.L152
 1965              		.loc 1 551 0 discriminator 11
 1966 00bc FB68     		ldr	r3, [r7, #12]
 1967 00be 93F82030 		ldrb	r3, [r3, #32]	@ zero_extendqisi2
 1968 00c2 062B     		cmp	r3, #6
 1969 00c4 39D0     		beq	.L153
 1970              		.loc 1 551 0 discriminator 13
 1971 00c6 FB68     		ldr	r3, [r7, #12]
 1972 00c8 93F82030 		ldrb	r3, [r3, #32]	@ zero_extendqisi2
 1973 00cc 072B     		cmp	r3, #7
 1974 00ce 32D0     		beq	.L154
 1975              		.loc 1 551 0 discriminator 15
 1976 00d0 FB68     		ldr	r3, [r7, #12]
 1977 00d2 93F82030 		ldrb	r3, [r3, #32]	@ zero_extendqisi2
 1978 00d6 082B     		cmp	r3, #8
 1979 00d8 2BD0     		beq	.L155
 1980              		.loc 1 551 0 discriminator 17
 1981 00da FB68     		ldr	r3, [r7, #12]
 1982 00dc 93F82030 		ldrb	r3, [r3, #32]	@ zero_extendqisi2
 1983 00e0 092B     		cmp	r3, #9
 1984 00e2 24D0     		beq	.L156
 1985              		.loc 1 551 0 discriminator 19
 1986 00e4 FB68     		ldr	r3, [r7, #12]
 1987 00e6 93F82030 		ldrb	r3, [r3, #32]	@ zero_extendqisi2
 1988 00ea 0A2B     		cmp	r3, #10
 1989 00ec 1DD0     		beq	.L157
 1990              		.loc 1 551 0 discriminator 21
 1991 00ee FB68     		ldr	r3, [r7, #12]
 1992 00f0 93F82030 		ldrb	r3, [r3, #32]	@ zero_extendqisi2
 1993 00f4 0C2B     		cmp	r3, #12
 1994 00f6 16D0     		beq	.L158
 1995              		.loc 1 551 0 discriminator 23
 1996 00f8 FB68     		ldr	r3, [r7, #12]
 1997 00fa 93F82030 		ldrb	r3, [r3, #32]	@ zero_extendqisi2
 1998 00fe 0B2B     		cmp	r3, #11
 1999 0100 0FD0     		beq	.L159
 2000              		.loc 1 551 0 discriminator 25
 2001 0102 FB68     		ldr	r3, [r7, #12]
 2002 0104 93F82030 		ldrb	r3, [r3, #32]	@ zero_extendqisi2
 2003 0108 0D2B     		cmp	r3, #13
 2004 010a 08D0     		beq	.L160
ARM GAS  C:\Users\dtjld\AppData\Local\Temp\cctLUSig.s 			page 48


 2005              		.loc 1 551 0 discriminator 27
 2006 010c FB68     		ldr	r3, [r7, #12]
 2007 010e 93F82030 		ldrb	r3, [r3, #32]	@ zero_extendqisi2
 2008 0112 0E2B     		cmp	r3, #14
 2009 0114 01D1     		bne	.L161
 2010              		.loc 1 551 0 discriminator 29
 2011 0116 5E4B     		ldr	r3, .L217+36
 2012 0118 1CE0     		b	.L176
 2013              	.L161:
 2014              		.loc 1 551 0 discriminator 30
 2015 011a 554B     		ldr	r3, .L217+4
 2016 011c 1AE0     		b	.L176
 2017              	.L160:
 2018              		.loc 1 551 0 discriminator 28
 2019 011e 5D4B     		ldr	r3, .L217+40
 2020 0120 18E0     		b	.L176
 2021              	.L159:
 2022              		.loc 1 551 0 discriminator 26
 2023 0122 5D4B     		ldr	r3, .L217+44
 2024 0124 16E0     		b	.L176
 2025              	.L158:
 2026              		.loc 1 551 0 discriminator 24
 2027 0126 5D4B     		ldr	r3, .L217+48
 2028 0128 14E0     		b	.L176
 2029              	.L157:
 2030              		.loc 1 551 0 discriminator 22
 2031 012a 5D4B     		ldr	r3, .L217+52
 2032 012c 12E0     		b	.L176
 2033              	.L156:
 2034              		.loc 1 551 0 discriminator 20
 2035 012e 5D4B     		ldr	r3, .L217+56
 2036 0130 10E0     		b	.L176
 2037              	.L155:
 2038              		.loc 1 551 0 discriminator 18
 2039 0132 5D4B     		ldr	r3, .L217+60
 2040 0134 0EE0     		b	.L176
 2041              	.L154:
 2042              		.loc 1 551 0 discriminator 16
 2043 0136 5D4B     		ldr	r3, .L217+64
 2044 0138 0CE0     		b	.L176
 2045              	.L153:
 2046              		.loc 1 551 0 discriminator 14
 2047 013a 5D4B     		ldr	r3, .L217+68
 2048 013c 0AE0     		b	.L176
 2049              	.L152:
 2050              		.loc 1 551 0 discriminator 12
 2051 013e 5D4B     		ldr	r3, .L217+72
 2052 0140 08E0     		b	.L176
 2053              	.L151:
 2054              		.loc 1 551 0 discriminator 10
 2055 0142 5D4B     		ldr	r3, .L217+76
 2056 0144 06E0     		b	.L176
 2057              	.L150:
 2058              		.loc 1 551 0 discriminator 8
 2059 0146 5D4B     		ldr	r3, .L217+80
 2060 0148 04E0     		b	.L176
 2061              	.L149:
ARM GAS  C:\Users\dtjld\AppData\Local\Temp\cctLUSig.s 			page 49


 2062              		.loc 1 551 0 discriminator 6
 2063 014a 5D4B     		ldr	r3, .L217+84
 2064 014c 02E0     		b	.L176
 2065              	.L148:
 2066              		.loc 1 551 0 discriminator 4
 2067 014e 5D4B     		ldr	r3, .L217+88
 2068 0150 00E0     		b	.L176
 2069              	.L147:
 2070              		.loc 1 551 0 discriminator 2
 2071 0152 5D4B     		ldr	r3, .L217+92
 2072              	.L176:
 2073              		.loc 1 551 0 discriminator 60
 2074 0154 0093     		str	r3, [sp]
 2075 0156 40F22723 		movw	r3, #551
 2076 015a 4B4A     		ldr	r2, .L217+28
 2077 015c 5B48     		ldr	r0, .L217+96
 2078 015e FFF7FEFF 		bl	atiny_printf
 552:C:/Users/dtjld/Desktop/AIoT_software/LiteOS_Lab_overseas/LiteOS_Lab/iot_link/network/lwm2m/wakaama_lwm2m/core\registration.c ****         switch (targetP->status)
 2079              		.loc 1 552 0 is_stmt 1 discriminator 60
 2080 0162 FB68     		ldr	r3, [r7, #12]
 2081 0164 93F82030 		ldrb	r3, [r3, #32]	@ zero_extendqisi2
 2082 0168 013B     		subs	r3, r3, #1
 2083 016a 052B     		cmp	r3, #5
 2084 016c 17D8     		bhi	.L215
 2085 016e 01A2     		adr	r2, .L179
 2086 0170 52F823F0 		ldr	pc, [r2, r3, lsl #2]
 2087              		.p2align 2
 2088              	.L179:
 2089 0174 99010000 		.word	.L178+1
 2090 0178 8D010000 		.word	.L180+1
 2091 017c 9F010000 		.word	.L215+1
 2092 0180 8D010000 		.word	.L180+1
 2093 0184 8D010000 		.word	.L180+1
 2094 0188 8D010000 		.word	.L180+1
 2095              		.p2align 1
 2096              	.L180:
 553:C:/Users/dtjld/Desktop/AIoT_software/LiteOS_Lab_overseas/LiteOS_Lab/iot_link/network/lwm2m/wakaama_lwm2m/core\registration.c ****         {
 554:C:/Users/dtjld/Desktop/AIoT_software/LiteOS_Lab_overseas/LiteOS_Lab/iot_link/network/lwm2m/wakaama_lwm2m/core\registration.c ****         case STATE_REGISTERED:
 555:C:/Users/dtjld/Desktop/AIoT_software/LiteOS_Lab_overseas/LiteOS_Lab/iot_link/network/lwm2m/wakaama_lwm2m/core\registration.c ****         case STATE_REG_UPDATE_NEEDED:
 556:C:/Users/dtjld/Desktop/AIoT_software/LiteOS_Lab_overseas/LiteOS_Lab/iot_link/network/lwm2m/wakaama_lwm2m/core\registration.c ****         case STATE_REG_FULL_UPDATE_NEEDED:
 557:C:/Users/dtjld/Desktop/AIoT_software/LiteOS_Lab_overseas/LiteOS_Lab/iot_link/network/lwm2m/wakaama_lwm2m/core\registration.c ****         case STATE_REG_UPDATE_PENDING:
 558:C:/Users/dtjld/Desktop/AIoT_software/LiteOS_Lab_overseas/LiteOS_Lab/iot_link/network/lwm2m/wakaama_lwm2m/core\registration.c ****             if (reg_status == STATE_REG_FAILED)
 2097              		.loc 1 558 0
 2098 018c FB7A     		ldrb	r3, [r7, #11]	@ zero_extendqisi2
 2099 018e 032B     		cmp	r3, #3
 2100 0190 07D1     		bne	.L216
 559:C:/Users/dtjld/Desktop/AIoT_software/LiteOS_Lab_overseas/LiteOS_Lab/iot_link/network/lwm2m/wakaama_lwm2m/core\registration.c ****             {
 560:C:/Users/dtjld/Desktop/AIoT_software/LiteOS_Lab_overseas/LiteOS_Lab/iot_link/network/lwm2m/wakaama_lwm2m/core\registration.c ****                 reg_status = STATE_REGISTERED;
 2101              		.loc 1 560 0
 2102 0192 0223     		movs	r3, #2
 2103 0194 FB72     		strb	r3, [r7, #11]
 561:C:/Users/dtjld/Desktop/AIoT_software/LiteOS_Lab_overseas/LiteOS_Lab/iot_link/network/lwm2m/wakaama_lwm2m/core\registration.c ****             }
 562:C:/Users/dtjld/Desktop/AIoT_software/LiteOS_Lab_overseas/LiteOS_Lab/iot_link/network/lwm2m/wakaama_lwm2m/core\registration.c ****             break;
 2104              		.loc 1 562 0
 2105 0196 04E0     		b	.L216
 2106              	.L178:
 563:C:/Users/dtjld/Desktop/AIoT_software/LiteOS_Lab_overseas/LiteOS_Lab/iot_link/network/lwm2m/wakaama_lwm2m/core\registration.c **** 
ARM GAS  C:\Users\dtjld\AppData\Local\Temp\cctLUSig.s 			page 50


 564:C:/Users/dtjld/Desktop/AIoT_software/LiteOS_Lab_overseas/LiteOS_Lab/iot_link/network/lwm2m/wakaama_lwm2m/core\registration.c ****         case STATE_REG_PENDING:
 565:C:/Users/dtjld/Desktop/AIoT_software/LiteOS_Lab_overseas/LiteOS_Lab/iot_link/network/lwm2m/wakaama_lwm2m/core\registration.c ****             reg_status = STATE_REG_PENDING;
 2107              		.loc 1 565 0
 2108 0198 0123     		movs	r3, #1
 2109 019a FB72     		strb	r3, [r7, #11]
 566:C:/Users/dtjld/Desktop/AIoT_software/LiteOS_Lab_overseas/LiteOS_Lab/iot_link/network/lwm2m/wakaama_lwm2m/core\registration.c ****             break;
 2110              		.loc 1 566 0
 2111 019c 02E0     		b	.L182
 2112              	.L215:
 567:C:/Users/dtjld/Desktop/AIoT_software/LiteOS_Lab_overseas/LiteOS_Lab/iot_link/network/lwm2m/wakaama_lwm2m/core\registration.c **** 
 568:C:/Users/dtjld/Desktop/AIoT_software/LiteOS_Lab_overseas/LiteOS_Lab/iot_link/network/lwm2m/wakaama_lwm2m/core\registration.c ****         case STATE_REG_FAILED:
 569:C:/Users/dtjld/Desktop/AIoT_software/LiteOS_Lab_overseas/LiteOS_Lab/iot_link/network/lwm2m/wakaama_lwm2m/core\registration.c ****         case STATE_DEREG_PENDING:
 570:C:/Users/dtjld/Desktop/AIoT_software/LiteOS_Lab_overseas/LiteOS_Lab/iot_link/network/lwm2m/wakaama_lwm2m/core\registration.c ****         case STATE_DEREGISTERED:
 571:C:/Users/dtjld/Desktop/AIoT_software/LiteOS_Lab_overseas/LiteOS_Lab/iot_link/network/lwm2m/wakaama_lwm2m/core\registration.c ****         default:
 572:C:/Users/dtjld/Desktop/AIoT_software/LiteOS_Lab_overseas/LiteOS_Lab/iot_link/network/lwm2m/wakaama_lwm2m/core\registration.c ****             break;
 2113              		.loc 1 572 0
 2114 019e 00BF     		nop
 2115 01a0 00E0     		b	.L182
 2116              	.L216:
 562:C:/Users/dtjld/Desktop/AIoT_software/LiteOS_Lab_overseas/LiteOS_Lab/iot_link/network/lwm2m/wakaama_lwm2m/core\registration.c **** 
 2117              		.loc 1 562 0
 2118 01a2 00BF     		nop
 2119              	.L182:
 573:C:/Users/dtjld/Desktop/AIoT_software/LiteOS_Lab_overseas/LiteOS_Lab/iot_link/network/lwm2m/wakaama_lwm2m/core\registration.c ****         }
 574:C:/Users/dtjld/Desktop/AIoT_software/LiteOS_Lab_overseas/LiteOS_Lab/iot_link/network/lwm2m/wakaama_lwm2m/core\registration.c ****         LOG_ARG("reg_status: %s", STR_STATUS(reg_status));
 2120              		.loc 1 574 0
 2121 01a4 FFF7FEFF 		bl	lwm2m_gettime
 2122 01a8 0346     		mov	r3, r0
 2123 01aa 0C46     		mov	r4, r1
 2124 01ac 1946     		mov	r1, r3
 2125 01ae FB7A     		ldrb	r3, [r7, #11]	@ zero_extendqisi2
 2126 01b0 002B     		cmp	r3, #0
 2127 01b2 47D0     		beq	.L183
 2128              		.loc 1 574 0 is_stmt 0 discriminator 1
 2129 01b4 FB7A     		ldrb	r3, [r7, #11]	@ zero_extendqisi2
 2130 01b6 012B     		cmp	r3, #1
 2131 01b8 42D0     		beq	.L184
 2132              		.loc 1 574 0 discriminator 3
 2133 01ba FB7A     		ldrb	r3, [r7, #11]	@ zero_extendqisi2
 2134 01bc 022B     		cmp	r3, #2
 2135 01be 3DD0     		beq	.L185
 2136              		.loc 1 574 0 discriminator 5
 2137 01c0 FB7A     		ldrb	r3, [r7, #11]	@ zero_extendqisi2
 2138 01c2 032B     		cmp	r3, #3
 2139 01c4 38D0     		beq	.L186
 2140              		.loc 1 574 0 discriminator 7
 2141 01c6 FB7A     		ldrb	r3, [r7, #11]	@ zero_extendqisi2
 2142 01c8 042B     		cmp	r3, #4
 2143 01ca 33D0     		beq	.L187
 2144              		.loc 1 574 0 discriminator 9
 2145 01cc FB7A     		ldrb	r3, [r7, #11]	@ zero_extendqisi2
 2146 01ce 052B     		cmp	r3, #5
 2147 01d0 2ED0     		beq	.L188
 2148              		.loc 1 574 0 discriminator 11
 2149 01d2 FB7A     		ldrb	r3, [r7, #11]	@ zero_extendqisi2
 2150 01d4 062B     		cmp	r3, #6
 2151 01d6 29D0     		beq	.L189
ARM GAS  C:\Users\dtjld\AppData\Local\Temp\cctLUSig.s 			page 51


 2152              		.loc 1 574 0 discriminator 13
 2153 01d8 FB7A     		ldrb	r3, [r7, #11]	@ zero_extendqisi2
 2154 01da 072B     		cmp	r3, #7
 2155 01dc 24D0     		beq	.L190
 2156              		.loc 1 574 0 discriminator 15
 2157 01de FB7A     		ldrb	r3, [r7, #11]	@ zero_extendqisi2
 2158 01e0 082B     		cmp	r3, #8
 2159 01e2 1FD0     		beq	.L191
 2160              		.loc 1 574 0 discriminator 17
 2161 01e4 FB7A     		ldrb	r3, [r7, #11]	@ zero_extendqisi2
 2162 01e6 092B     		cmp	r3, #9
 2163 01e8 1AD0     		beq	.L192
 2164              		.loc 1 574 0 discriminator 19
 2165 01ea FB7A     		ldrb	r3, [r7, #11]	@ zero_extendqisi2
 2166 01ec 0A2B     		cmp	r3, #10
 2167 01ee 15D0     		beq	.L193
 2168              		.loc 1 574 0 discriminator 21
 2169 01f0 FB7A     		ldrb	r3, [r7, #11]	@ zero_extendqisi2
 2170 01f2 0C2B     		cmp	r3, #12
 2171 01f4 10D0     		beq	.L194
 2172              		.loc 1 574 0 discriminator 23
 2173 01f6 FB7A     		ldrb	r3, [r7, #11]	@ zero_extendqisi2
 2174 01f8 0B2B     		cmp	r3, #11
 2175 01fa 0BD0     		beq	.L195
 2176              		.loc 1 574 0 discriminator 25
 2177 01fc FB7A     		ldrb	r3, [r7, #11]	@ zero_extendqisi2
 2178 01fe 0D2B     		cmp	r3, #13
 2179 0200 06D0     		beq	.L196
 2180              		.loc 1 574 0 discriminator 27
 2181 0202 FB7A     		ldrb	r3, [r7, #11]	@ zero_extendqisi2
 2182 0204 0E2B     		cmp	r3, #14
 2183 0206 01D1     		bne	.L197
 2184              		.loc 1 574 0 discriminator 29
 2185 0208 214B     		ldr	r3, .L217+36
 2186 020a 1CE0     		b	.L212
 2187              	.L197:
 2188              		.loc 1 574 0 discriminator 30
 2189 020c 184B     		ldr	r3, .L217+4
 2190 020e 1AE0     		b	.L212
 2191              	.L196:
 2192              		.loc 1 574 0 discriminator 28
 2193 0210 204B     		ldr	r3, .L217+40
 2194 0212 18E0     		b	.L212
 2195              	.L195:
 2196              		.loc 1 574 0 discriminator 26
 2197 0214 204B     		ldr	r3, .L217+44
 2198 0216 16E0     		b	.L212
 2199              	.L194:
 2200              		.loc 1 574 0 discriminator 24
 2201 0218 204B     		ldr	r3, .L217+48
 2202 021a 14E0     		b	.L212
 2203              	.L193:
 2204              		.loc 1 574 0 discriminator 22
 2205 021c 204B     		ldr	r3, .L217+52
 2206 021e 12E0     		b	.L212
 2207              	.L192:
 2208              		.loc 1 574 0 discriminator 20
ARM GAS  C:\Users\dtjld\AppData\Local\Temp\cctLUSig.s 			page 52


 2209 0220 204B     		ldr	r3, .L217+56
 2210 0222 10E0     		b	.L212
 2211              	.L191:
 2212              		.loc 1 574 0 discriminator 18
 2213 0224 204B     		ldr	r3, .L217+60
 2214 0226 0EE0     		b	.L212
 2215              	.L190:
 2216              		.loc 1 574 0 discriminator 16
 2217 0228 204B     		ldr	r3, .L217+64
 2218 022a 0CE0     		b	.L212
 2219              	.L189:
 2220              		.loc 1 574 0 discriminator 14
 2221 022c 204B     		ldr	r3, .L217+68
 2222 022e 0AE0     		b	.L212
 2223              	.L188:
 2224              		.loc 1 574 0 discriminator 12
 2225 0230 204B     		ldr	r3, .L217+72
 2226 0232 08E0     		b	.L212
 2227              	.L187:
 2228              		.loc 1 574 0 discriminator 10
 2229 0234 204B     		ldr	r3, .L217+76
 2230 0236 06E0     		b	.L212
 2231              	.L186:
 2232              		.loc 1 574 0 discriminator 8
 2233 0238 204B     		ldr	r3, .L217+80
 2234 023a 04E0     		b	.L212
 2235              	.L185:
 2236              		.loc 1 574 0 discriminator 6
 2237 023c 204B     		ldr	r3, .L217+84
 2238 023e 02E0     		b	.L212
 2239              	.L184:
 2240              		.loc 1 574 0 discriminator 4
 2241 0240 204B     		ldr	r3, .L217+88
 2242 0242 00E0     		b	.L212
 2243              	.L183:
 2244              		.loc 1 574 0 discriminator 2
 2245 0244 204B     		ldr	r3, .L217+92
 2246              	.L212:
 2247              		.loc 1 574 0 discriminator 60
 2248 0246 0093     		str	r3, [sp]
 2249 0248 40F23E23 		movw	r3, #574
 2250 024c 0E4A     		ldr	r2, .L217+28
 2251 024e 2048     		ldr	r0, .L217+100
 2252 0250 FFF7FEFF 		bl	atiny_printf
 575:C:/Users/dtjld/Desktop/AIoT_software/LiteOS_Lab_overseas/LiteOS_Lab/iot_link/network/lwm2m/wakaama_lwm2m/core\registration.c **** 
 576:C:/Users/dtjld/Desktop/AIoT_software/LiteOS_Lab_overseas/LiteOS_Lab/iot_link/network/lwm2m/wakaama_lwm2m/core\registration.c ****         targetP = targetP->next;
 2253              		.loc 1 576 0 is_stmt 1 discriminator 60
 2254 0254 FB68     		ldr	r3, [r7, #12]
 2255 0256 1B68     		ldr	r3, [r3]
 2256 0258 FB60     		str	r3, [r7, #12]
 2257              	.L146:
 549:C:/Users/dtjld/Desktop/AIoT_software/LiteOS_Lab_overseas/LiteOS_Lab/iot_link/network/lwm2m/wakaama_lwm2m/core\registration.c ****     {
 2258              		.loc 1 549 0
 2259 025a FB68     		ldr	r3, [r7, #12]
 2260 025c 002B     		cmp	r3, #0
 2261 025e 7FF40AAF 		bne	.L213
 577:C:/Users/dtjld/Desktop/AIoT_software/LiteOS_Lab_overseas/LiteOS_Lab/iot_link/network/lwm2m/wakaama_lwm2m/core\registration.c ****     }
ARM GAS  C:\Users\dtjld\AppData\Local\Temp\cctLUSig.s 			page 53


 578:C:/Users/dtjld/Desktop/AIoT_software/LiteOS_Lab_overseas/LiteOS_Lab/iot_link/network/lwm2m/wakaama_lwm2m/core\registration.c **** 
 579:C:/Users/dtjld/Desktop/AIoT_software/LiteOS_Lab_overseas/LiteOS_Lab/iot_link/network/lwm2m/wakaama_lwm2m/core\registration.c ****     return reg_status;
 2262              		.loc 1 579 0
 2263 0262 FB7A     		ldrb	r3, [r7, #11]	@ zero_extendqisi2
 580:C:/Users/dtjld/Desktop/AIoT_software/LiteOS_Lab_overseas/LiteOS_Lab/iot_link/network/lwm2m/wakaama_lwm2m/core\registration.c **** }
 2264              		.loc 1 580 0
 2265 0264 1846     		mov	r0, r3
 2266 0266 1437     		adds	r7, r7, #20
 2267              	.LCFI43:
 2268              		.cfi_def_cfa_offset 12
 2269 0268 BD46     		mov	sp, r7
 2270              	.LCFI44:
 2271              		.cfi_def_cfa_register 13
 2272              		@ sp needed
 2273 026a 90BD     		pop	{r4, r7, pc}
 2274              	.L218:
 2275              		.align	2
 2276              	.L217:
 2277 026c 34010000 		.word	.LC15
 2278 0270 40010000 		.word	.LC16
 2279 0274 48010000 		.word	.LC17
 2280 0278 5C010000 		.word	.LC18
 2281 027c 74010000 		.word	.LC19
 2282 0280 88010000 		.word	.LC20
 2283 0284 A4010000 		.word	.LC21
 2284 0288 00000000 		.word	__func__.8592
 2285 028c 00020000 		.word	.LC24
 2286 0290 18020000 		.word	.LC25
 2287 0294 28020000 		.word	.LC26
 2288 0298 3C020000 		.word	.LC27
 2289 029c 50020000 		.word	.LC28
 2290 02a0 64020000 		.word	.LC29
 2291 02a4 78020000 		.word	.LC30
 2292 02a8 8C020000 		.word	.LC31
 2293 02ac A0020000 		.word	.LC32
 2294 02b0 B4020000 		.word	.LC33
 2295 02b4 D4020000 		.word	.LC34
 2296 02b8 EC020000 		.word	.LC35
 2297 02bc 08030000 		.word	.LC36
 2298 02c0 1C030000 		.word	.LC37
 2299 02c4 30030000 		.word	.LC38
 2300 02c8 44030000 		.word	.LC39
 2301 02cc 58030000 		.word	.LC40
 2302 02d0 7C030000 		.word	.LC41
 2303              		.cfi_endproc
 2304              	.LFE12:
 2306              		.section	.text.prv_handleDeregistrationReply,"ax",%progbits
 2307              		.align	1
 2308              		.syntax unified
 2309              		.thumb
 2310              		.thumb_func
 2311              		.fpu fpv4-sp-d16
 2313              	prv_handleDeregistrationReply:
 2314              	.LFB13:
 581:C:/Users/dtjld/Desktop/AIoT_software/LiteOS_Lab_overseas/LiteOS_Lab/iot_link/network/lwm2m/wakaama_lwm2m/core\registration.c **** 
 582:C:/Users/dtjld/Desktop/AIoT_software/LiteOS_Lab_overseas/LiteOS_Lab/iot_link/network/lwm2m/wakaama_lwm2m/core\registration.c **** static void prv_handleDeregistrationReply(lwm2m_transaction_t *transacP,
 583:C:/Users/dtjld/Desktop/AIoT_software/LiteOS_Lab_overseas/LiteOS_Lab/iot_link/network/lwm2m/wakaama_lwm2m/core\registration.c ****         void *message)
ARM GAS  C:\Users\dtjld\AppData\Local\Temp\cctLUSig.s 			page 54


 584:C:/Users/dtjld/Desktop/AIoT_software/LiteOS_Lab_overseas/LiteOS_Lab/iot_link/network/lwm2m/wakaama_lwm2m/core\registration.c **** {
 2315              		.loc 1 584 0
 2316              		.cfi_startproc
 2317              		@ args = 0, pretend = 0, frame = 16
 2318              		@ frame_needed = 1, uses_anonymous_args = 0
 2319              		@ link register save eliminated.
 2320 0000 80B4     		push	{r7}
 2321              	.LCFI45:
 2322              		.cfi_def_cfa_offset 4
 2323              		.cfi_offset 7, -4
 2324 0002 85B0     		sub	sp, sp, #20
 2325              	.LCFI46:
 2326              		.cfi_def_cfa_offset 24
 2327 0004 00AF     		add	r7, sp, #0
 2328              	.LCFI47:
 2329              		.cfi_def_cfa_register 7
 2330 0006 7860     		str	r0, [r7, #4]
 2331 0008 3960     		str	r1, [r7]
 585:C:/Users/dtjld/Desktop/AIoT_software/LiteOS_Lab_overseas/LiteOS_Lab/iot_link/network/lwm2m/wakaama_lwm2m/core\registration.c ****     lwm2m_server_t *targetP;
 586:C:/Users/dtjld/Desktop/AIoT_software/LiteOS_Lab_overseas/LiteOS_Lab/iot_link/network/lwm2m/wakaama_lwm2m/core\registration.c **** 
 587:C:/Users/dtjld/Desktop/AIoT_software/LiteOS_Lab_overseas/LiteOS_Lab/iot_link/network/lwm2m/wakaama_lwm2m/core\registration.c ****     targetP = (lwm2m_server_t *)(transacP->userData);
 2332              		.loc 1 587 0
 2333 000a 7B68     		ldr	r3, [r7, #4]
 2334 000c 5B6C     		ldr	r3, [r3, #68]
 2335 000e FB60     		str	r3, [r7, #12]
 588:C:/Users/dtjld/Desktop/AIoT_software/LiteOS_Lab_overseas/LiteOS_Lab/iot_link/network/lwm2m/wakaama_lwm2m/core\registration.c ****     if (NULL != targetP)
 2336              		.loc 1 588 0
 2337 0010 FB68     		ldr	r3, [r7, #12]
 2338 0012 002B     		cmp	r3, #0
 2339 0014 08D0     		beq	.L221
 589:C:/Users/dtjld/Desktop/AIoT_software/LiteOS_Lab_overseas/LiteOS_Lab/iot_link/network/lwm2m/wakaama_lwm2m/core\registration.c ****     {
 590:C:/Users/dtjld/Desktop/AIoT_software/LiteOS_Lab_overseas/LiteOS_Lab/iot_link/network/lwm2m/wakaama_lwm2m/core\registration.c ****         if (targetP->status == STATE_DEREG_PENDING)
 2340              		.loc 1 590 0
 2341 0016 FB68     		ldr	r3, [r7, #12]
 2342 0018 93F82030 		ldrb	r3, [r3, #32]	@ zero_extendqisi2
 2343 001c 072B     		cmp	r3, #7
 2344 001e 03D1     		bne	.L221
 591:C:/Users/dtjld/Desktop/AIoT_software/LiteOS_Lab_overseas/LiteOS_Lab/iot_link/network/lwm2m/wakaama_lwm2m/core\registration.c ****         {
 592:C:/Users/dtjld/Desktop/AIoT_software/LiteOS_Lab_overseas/LiteOS_Lab/iot_link/network/lwm2m/wakaama_lwm2m/core\registration.c ****             targetP->status = STATE_DEREGISTERED;
 2345              		.loc 1 592 0
 2346 0020 FB68     		ldr	r3, [r7, #12]
 2347 0022 0022     		movs	r2, #0
 2348 0024 83F82020 		strb	r2, [r3, #32]
 2349              	.L221:
 593:C:/Users/dtjld/Desktop/AIoT_software/LiteOS_Lab_overseas/LiteOS_Lab/iot_link/network/lwm2m/wakaama_lwm2m/core\registration.c ****         }
 594:C:/Users/dtjld/Desktop/AIoT_software/LiteOS_Lab_overseas/LiteOS_Lab/iot_link/network/lwm2m/wakaama_lwm2m/core\registration.c ****     }
 595:C:/Users/dtjld/Desktop/AIoT_software/LiteOS_Lab_overseas/LiteOS_Lab/iot_link/network/lwm2m/wakaama_lwm2m/core\registration.c **** }
 2350              		.loc 1 595 0
 2351 0028 00BF     		nop
 2352 002a 1437     		adds	r7, r7, #20
 2353              	.LCFI48:
 2354              		.cfi_def_cfa_offset 4
 2355 002c BD46     		mov	sp, r7
 2356              	.LCFI49:
 2357              		.cfi_def_cfa_register 13
 2358              		@ sp needed
 2359 002e 5DF8047B 		ldr	r7, [sp], #4
ARM GAS  C:\Users\dtjld\AppData\Local\Temp\cctLUSig.s 			page 55


 2360              	.LCFI50:
 2361              		.cfi_restore 7
 2362              		.cfi_def_cfa_offset 0
 2363 0032 7047     		bx	lr
 2364              		.cfi_endproc
 2365              	.LFE13:
 2367              		.section	.rodata
 2368 0399 000000   		.align	2
 2369              	.LC42:
 2370 039c 5B25645D 		.ascii	"[%d][%s:%d] State: %s, serverP->status: %s\015\012\000"
 2370      5B25733A 
 2370      25645D20 
 2370      53746174 
 2370      653A2025 
 2371              		.section	.text.registration_deregister,"ax",%progbits
 2372              		.align	1
 2373              		.global	registration_deregister
 2374              		.syntax unified
 2375              		.thumb
 2376              		.thumb_func
 2377              		.fpu fpv4-sp-d16
 2379              	registration_deregister:
 2380              	.LFB14:
 596:C:/Users/dtjld/Desktop/AIoT_software/LiteOS_Lab_overseas/LiteOS_Lab/iot_link/network/lwm2m/wakaama_lwm2m/core\registration.c **** 
 597:C:/Users/dtjld/Desktop/AIoT_software/LiteOS_Lab_overseas/LiteOS_Lab/iot_link/network/lwm2m/wakaama_lwm2m/core\registration.c **** void registration_deregister(lwm2m_context_t *contextP,
 598:C:/Users/dtjld/Desktop/AIoT_software/LiteOS_Lab_overseas/LiteOS_Lab/iot_link/network/lwm2m/wakaama_lwm2m/core\registration.c ****                              lwm2m_server_t *serverP)
 599:C:/Users/dtjld/Desktop/AIoT_software/LiteOS_Lab_overseas/LiteOS_Lab/iot_link/network/lwm2m/wakaama_lwm2m/core\registration.c **** {
 2381              		.loc 1 599 0
 2382              		.cfi_startproc
 2383              		@ args = 0, pretend = 0, frame = 16
 2384              		@ frame_needed = 1, uses_anonymous_args = 0
 2385 0000 90B5     		push	{r4, r7, lr}
 2386              	.LCFI51:
 2387              		.cfi_def_cfa_offset 12
 2388              		.cfi_offset 4, -12
 2389              		.cfi_offset 7, -8
 2390              		.cfi_offset 14, -4
 2391 0002 89B0     		sub	sp, sp, #36
 2392              	.LCFI52:
 2393              		.cfi_def_cfa_offset 48
 2394 0004 04AF     		add	r7, sp, #16
 2395              	.LCFI53:
 2396              		.cfi_def_cfa 7, 32
 2397 0006 7860     		str	r0, [r7, #4]
 2398 0008 3960     		str	r1, [r7]
 600:C:/Users/dtjld/Desktop/AIoT_software/LiteOS_Lab_overseas/LiteOS_Lab/iot_link/network/lwm2m/wakaama_lwm2m/core\registration.c ****     lwm2m_transaction_t *transaction;
 601:C:/Users/dtjld/Desktop/AIoT_software/LiteOS_Lab_overseas/LiteOS_Lab/iot_link/network/lwm2m/wakaama_lwm2m/core\registration.c **** 
 602:C:/Users/dtjld/Desktop/AIoT_software/LiteOS_Lab_overseas/LiteOS_Lab/iot_link/network/lwm2m/wakaama_lwm2m/core\registration.c ****     LOG_ARG("State: %s, serverP->status: %s", STR_STATE(contextP->state), STR_STATUS(serverP->statu
 2399              		.loc 1 602 0
 2400 000a FFF7FEFF 		bl	lwm2m_gettime
 2401 000e 0346     		mov	r3, r0
 2402 0010 0C46     		mov	r4, r1
 2403 0012 1946     		mov	r1, r3
 2404 0014 7B68     		ldr	r3, [r7, #4]
 2405 0016 1B78     		ldrb	r3, [r3]	@ zero_extendqisi2
 2406 0018 002B     		cmp	r3, #0
 2407 001a 1FD0     		beq	.L223
ARM GAS  C:\Users\dtjld\AppData\Local\Temp\cctLUSig.s 			page 56


 2408              		.loc 1 602 0 is_stmt 0 discriminator 1
 2409 001c 7B68     		ldr	r3, [r7, #4]
 2410 001e 1B78     		ldrb	r3, [r3]	@ zero_extendqisi2
 2411 0020 012B     		cmp	r3, #1
 2412 0022 19D0     		beq	.L224
 2413              		.loc 1 602 0 discriminator 3
 2414 0024 7B68     		ldr	r3, [r7, #4]
 2415 0026 1B78     		ldrb	r3, [r3]	@ zero_extendqisi2
 2416 0028 022B     		cmp	r3, #2
 2417 002a 13D0     		beq	.L225
 2418              		.loc 1 602 0 discriminator 5
 2419 002c 7B68     		ldr	r3, [r7, #4]
 2420 002e 1B78     		ldrb	r3, [r3]	@ zero_extendqisi2
 2421 0030 032B     		cmp	r3, #3
 2422 0032 0DD0     		beq	.L226
 2423              		.loc 1 602 0 discriminator 7
 2424 0034 7B68     		ldr	r3, [r7, #4]
 2425 0036 1B78     		ldrb	r3, [r3]	@ zero_extendqisi2
 2426 0038 042B     		cmp	r3, #4
 2427 003a 07D0     		beq	.L227
 2428              		.loc 1 602 0 discriminator 9
 2429 003c 7B68     		ldr	r3, [r7, #4]
 2430 003e 1B78     		ldrb	r3, [r3]	@ zero_extendqisi2
 2431 0040 052B     		cmp	r3, #5
 2432 0042 01D1     		bne	.L228
 2433              		.loc 1 602 0 discriminator 11
 2434 0044 6A4A     		ldr	r2, .L271
 2435 0046 0AE0     		b	.L234
 2436              	.L228:
 2437              		.loc 1 602 0 discriminator 12
 2438 0048 6A4A     		ldr	r2, .L271+4
 2439 004a 08E0     		b	.L234
 2440              	.L227:
 2441              		.loc 1 602 0 discriminator 10
 2442 004c 6A4A     		ldr	r2, .L271+8
 2443 004e 06E0     		b	.L234
 2444              	.L226:
 2445              		.loc 1 602 0 discriminator 8
 2446 0050 6A4A     		ldr	r2, .L271+12
 2447 0052 04E0     		b	.L234
 2448              	.L225:
 2449              		.loc 1 602 0 discriminator 6
 2450 0054 6A4A     		ldr	r2, .L271+16
 2451 0056 02E0     		b	.L234
 2452              	.L224:
 2453              		.loc 1 602 0 discriminator 4
 2454 0058 6A4A     		ldr	r2, .L271+20
 2455 005a 00E0     		b	.L234
 2456              	.L223:
 2457              		.loc 1 602 0 discriminator 2
 2458 005c 6A4A     		ldr	r2, .L271+24
 2459              	.L234:
 2460              		.loc 1 602 0 discriminator 24
 2461 005e 3B68     		ldr	r3, [r7]
 2462 0060 93F82030 		ldrb	r3, [r3, #32]	@ zero_extendqisi2
 2463 0064 002B     		cmp	r3, #0
 2464 0066 63D0     		beq	.L235
ARM GAS  C:\Users\dtjld\AppData\Local\Temp\cctLUSig.s 			page 57


 2465              		.loc 1 602 0 discriminator 25
 2466 0068 3B68     		ldr	r3, [r7]
 2467 006a 93F82030 		ldrb	r3, [r3, #32]	@ zero_extendqisi2
 2468 006e 012B     		cmp	r3, #1
 2469 0070 5CD0     		beq	.L236
 2470              		.loc 1 602 0 discriminator 27
 2471 0072 3B68     		ldr	r3, [r7]
 2472 0074 93F82030 		ldrb	r3, [r3, #32]	@ zero_extendqisi2
 2473 0078 022B     		cmp	r3, #2
 2474 007a 55D0     		beq	.L237
 2475              		.loc 1 602 0 discriminator 29
 2476 007c 3B68     		ldr	r3, [r7]
 2477 007e 93F82030 		ldrb	r3, [r3, #32]	@ zero_extendqisi2
 2478 0082 032B     		cmp	r3, #3
 2479 0084 4ED0     		beq	.L238
 2480              		.loc 1 602 0 discriminator 31
 2481 0086 3B68     		ldr	r3, [r7]
 2482 0088 93F82030 		ldrb	r3, [r3, #32]	@ zero_extendqisi2
 2483 008c 042B     		cmp	r3, #4
 2484 008e 47D0     		beq	.L239
 2485              		.loc 1 602 0 discriminator 33
 2486 0090 3B68     		ldr	r3, [r7]
 2487 0092 93F82030 		ldrb	r3, [r3, #32]	@ zero_extendqisi2
 2488 0096 052B     		cmp	r3, #5
 2489 0098 40D0     		beq	.L240
 2490              		.loc 1 602 0 discriminator 35
 2491 009a 3B68     		ldr	r3, [r7]
 2492 009c 93F82030 		ldrb	r3, [r3, #32]	@ zero_extendqisi2
 2493 00a0 062B     		cmp	r3, #6
 2494 00a2 39D0     		beq	.L241
 2495              		.loc 1 602 0 discriminator 37
 2496 00a4 3B68     		ldr	r3, [r7]
 2497 00a6 93F82030 		ldrb	r3, [r3, #32]	@ zero_extendqisi2
 2498 00aa 072B     		cmp	r3, #7
 2499 00ac 32D0     		beq	.L242
 2500              		.loc 1 602 0 discriminator 39
 2501 00ae 3B68     		ldr	r3, [r7]
 2502 00b0 93F82030 		ldrb	r3, [r3, #32]	@ zero_extendqisi2
 2503 00b4 082B     		cmp	r3, #8
 2504 00b6 2BD0     		beq	.L243
 2505              		.loc 1 602 0 discriminator 41
 2506 00b8 3B68     		ldr	r3, [r7]
 2507 00ba 93F82030 		ldrb	r3, [r3, #32]	@ zero_extendqisi2
 2508 00be 092B     		cmp	r3, #9
 2509 00c0 24D0     		beq	.L244
 2510              		.loc 1 602 0 discriminator 43
 2511 00c2 3B68     		ldr	r3, [r7]
 2512 00c4 93F82030 		ldrb	r3, [r3, #32]	@ zero_extendqisi2
 2513 00c8 0A2B     		cmp	r3, #10
 2514 00ca 1DD0     		beq	.L245
 2515              		.loc 1 602 0 discriminator 45
 2516 00cc 3B68     		ldr	r3, [r7]
 2517 00ce 93F82030 		ldrb	r3, [r3, #32]	@ zero_extendqisi2
 2518 00d2 0C2B     		cmp	r3, #12
 2519 00d4 16D0     		beq	.L246
 2520              		.loc 1 602 0 discriminator 47
 2521 00d6 3B68     		ldr	r3, [r7]
ARM GAS  C:\Users\dtjld\AppData\Local\Temp\cctLUSig.s 			page 58


 2522 00d8 93F82030 		ldrb	r3, [r3, #32]	@ zero_extendqisi2
 2523 00dc 0B2B     		cmp	r3, #11
 2524 00de 0FD0     		beq	.L247
 2525              		.loc 1 602 0 discriminator 49
 2526 00e0 3B68     		ldr	r3, [r7]
 2527 00e2 93F82030 		ldrb	r3, [r3, #32]	@ zero_extendqisi2
 2528 00e6 0D2B     		cmp	r3, #13
 2529 00e8 08D0     		beq	.L248
 2530              		.loc 1 602 0 discriminator 51
 2531 00ea 3B68     		ldr	r3, [r7]
 2532 00ec 93F82030 		ldrb	r3, [r3, #32]	@ zero_extendqisi2
 2533 00f0 0E2B     		cmp	r3, #14
 2534 00f2 01D1     		bne	.L249
 2535              		.loc 1 602 0 discriminator 53
 2536 00f4 454B     		ldr	r3, .L271+28
 2537 00f6 1CE0     		b	.L264
 2538              	.L249:
 2539              		.loc 1 602 0 discriminator 54
 2540 00f8 3E4B     		ldr	r3, .L271+4
 2541 00fa 1AE0     		b	.L264
 2542              	.L248:
 2543              		.loc 1 602 0 discriminator 52
 2544 00fc 444B     		ldr	r3, .L271+32
 2545 00fe 18E0     		b	.L264
 2546              	.L247:
 2547              		.loc 1 602 0 discriminator 50
 2548 0100 444B     		ldr	r3, .L271+36
 2549 0102 16E0     		b	.L264
 2550              	.L246:
 2551              		.loc 1 602 0 discriminator 48
 2552 0104 444B     		ldr	r3, .L271+40
 2553 0106 14E0     		b	.L264
 2554              	.L245:
 2555              		.loc 1 602 0 discriminator 46
 2556 0108 444B     		ldr	r3, .L271+44
 2557 010a 12E0     		b	.L264
 2558              	.L244:
 2559              		.loc 1 602 0 discriminator 44
 2560 010c 444B     		ldr	r3, .L271+48
 2561 010e 10E0     		b	.L264
 2562              	.L243:
 2563              		.loc 1 602 0 discriminator 42
 2564 0110 444B     		ldr	r3, .L271+52
 2565 0112 0EE0     		b	.L264
 2566              	.L242:
 2567              		.loc 1 602 0 discriminator 40
 2568 0114 444B     		ldr	r3, .L271+56
 2569 0116 0CE0     		b	.L264
 2570              	.L241:
 2571              		.loc 1 602 0 discriminator 38
 2572 0118 444B     		ldr	r3, .L271+60
 2573 011a 0AE0     		b	.L264
 2574              	.L240:
 2575              		.loc 1 602 0 discriminator 36
 2576 011c 444B     		ldr	r3, .L271+64
 2577 011e 08E0     		b	.L264
 2578              	.L239:
ARM GAS  C:\Users\dtjld\AppData\Local\Temp\cctLUSig.s 			page 59


 2579              		.loc 1 602 0 discriminator 34
 2580 0120 444B     		ldr	r3, .L271+68
 2581 0122 06E0     		b	.L264
 2582              	.L238:
 2583              		.loc 1 602 0 discriminator 32
 2584 0124 444B     		ldr	r3, .L271+72
 2585 0126 04E0     		b	.L264
 2586              	.L237:
 2587              		.loc 1 602 0 discriminator 30
 2588 0128 444B     		ldr	r3, .L271+76
 2589 012a 02E0     		b	.L264
 2590              	.L236:
 2591              		.loc 1 602 0 discriminator 28
 2592 012c 444B     		ldr	r3, .L271+80
 2593 012e 00E0     		b	.L264
 2594              	.L235:
 2595              		.loc 1 602 0 discriminator 26
 2596 0130 444B     		ldr	r3, .L271+84
 2597              	.L264:
 2598              		.loc 1 602 0 discriminator 84
 2599 0132 0193     		str	r3, [sp, #4]
 2600 0134 0092     		str	r2, [sp]
 2601 0136 40F25A23 		movw	r3, #602
 2602 013a 434A     		ldr	r2, .L271+88
 2603 013c 4348     		ldr	r0, .L271+92
 2604 013e FFF7FEFF 		bl	atiny_printf
 603:C:/Users/dtjld/Desktop/AIoT_software/LiteOS_Lab_overseas/LiteOS_Lab/iot_link/network/lwm2m/wakaama_lwm2m/core\registration.c **** 
 604:C:/Users/dtjld/Desktop/AIoT_software/LiteOS_Lab_overseas/LiteOS_Lab/iot_link/network/lwm2m/wakaama_lwm2m/core\registration.c ****     if (serverP->status == STATE_DEREGISTERED
 2605              		.loc 1 604 0 is_stmt 1 discriminator 84
 2606 0142 3B68     		ldr	r3, [r7]
 2607 0144 93F82030 		ldrb	r3, [r3, #32]	@ zero_extendqisi2
 2608 0148 002B     		cmp	r3, #0
 2609 014a 4BD0     		beq	.L269
 605:C:/Users/dtjld/Desktop/AIoT_software/LiteOS_Lab_overseas/LiteOS_Lab/iot_link/network/lwm2m/wakaama_lwm2m/core\registration.c ****             || serverP->status == STATE_REG_PENDING
 2610              		.loc 1 605 0
 2611 014c 3B68     		ldr	r3, [r7]
 2612 014e 93F82030 		ldrb	r3, [r3, #32]	@ zero_extendqisi2
 2613 0152 012B     		cmp	r3, #1
 2614 0154 46D0     		beq	.L269
 606:C:/Users/dtjld/Desktop/AIoT_software/LiteOS_Lab_overseas/LiteOS_Lab/iot_link/network/lwm2m/wakaama_lwm2m/core\registration.c ****             || serverP->status == STATE_DEREG_PENDING
 2615              		.loc 1 606 0
 2616 0156 3B68     		ldr	r3, [r7]
 2617 0158 93F82030 		ldrb	r3, [r3, #32]	@ zero_extendqisi2
 2618 015c 072B     		cmp	r3, #7
 2619 015e 41D0     		beq	.L269
 607:C:/Users/dtjld/Desktop/AIoT_software/LiteOS_Lab_overseas/LiteOS_Lab/iot_link/network/lwm2m/wakaama_lwm2m/core\registration.c ****             || serverP->status == STATE_REG_FAILED
 2620              		.loc 1 607 0
 2621 0160 3B68     		ldr	r3, [r7]
 2622 0162 93F82030 		ldrb	r3, [r3, #32]	@ zero_extendqisi2
 2623 0166 032B     		cmp	r3, #3
 2624 0168 3CD0     		beq	.L269
 608:C:/Users/dtjld/Desktop/AIoT_software/LiteOS_Lab_overseas/LiteOS_Lab/iot_link/network/lwm2m/wakaama_lwm2m/core\registration.c ****             || serverP->location == NULL)
 2625              		.loc 1 608 0
 2626 016a 3B68     		ldr	r3, [r7]
 2627 016c 5B6A     		ldr	r3, [r3, #36]
 2628 016e 002B     		cmp	r3, #0
 2629 0170 38D0     		beq	.L269
ARM GAS  C:\Users\dtjld\AppData\Local\Temp\cctLUSig.s 			page 60


 609:C:/Users/dtjld/Desktop/AIoT_software/LiteOS_Lab_overseas/LiteOS_Lab/iot_link/network/lwm2m/wakaama_lwm2m/core\registration.c ****     {
 610:C:/Users/dtjld/Desktop/AIoT_software/LiteOS_Lab_overseas/LiteOS_Lab/iot_link/network/lwm2m/wakaama_lwm2m/core\registration.c ****         return;
 611:C:/Users/dtjld/Desktop/AIoT_software/LiteOS_Lab_overseas/LiteOS_Lab/iot_link/network/lwm2m/wakaama_lwm2m/core\registration.c ****     }
 612:C:/Users/dtjld/Desktop/AIoT_software/LiteOS_Lab_overseas/LiteOS_Lab/iot_link/network/lwm2m/wakaama_lwm2m/core\registration.c **** 
 613:C:/Users/dtjld/Desktop/AIoT_software/LiteOS_Lab_overseas/LiteOS_Lab/iot_link/network/lwm2m/wakaama_lwm2m/core\registration.c ****     transaction = transaction_new(serverP->sessionH, COAP_DELETE, NULL, NULL, contextP->nextMID++, 
 2630              		.loc 1 613 0
 2631 0172 3B68     		ldr	r3, [r7]
 2632 0174 D869     		ldr	r0, [r3, #28]
 2633 0176 7B68     		ldr	r3, [r7, #4]
 2634 0178 9B8D     		ldrh	r3, [r3, #44]
 2635 017a 5A1C     		adds	r2, r3, #1
 2636 017c 91B2     		uxth	r1, r2
 2637 017e 7A68     		ldr	r2, [r7, #4]
 2638 0180 9185     		strh	r1, [r2, #44]	@ movhi
 2639 0182 0022     		movs	r2, #0
 2640 0184 0292     		str	r2, [sp, #8]
 2641 0186 0422     		movs	r2, #4
 2642 0188 0192     		str	r2, [sp, #4]
 2643 018a 0093     		str	r3, [sp]
 2644 018c 0023     		movs	r3, #0
 2645 018e 0022     		movs	r2, #0
 2646 0190 0421     		movs	r1, #4
 2647 0192 FFF7FEFF 		bl	transaction_new
 2648 0196 F860     		str	r0, [r7, #12]
 614:C:/Users/dtjld/Desktop/AIoT_software/LiteOS_Lab_overseas/LiteOS_Lab/iot_link/network/lwm2m/wakaama_lwm2m/core\registration.c ****     if (transaction == NULL) return;
 2649              		.loc 1 614 0
 2650 0198 FB68     		ldr	r3, [r7, #12]
 2651 019a 002B     		cmp	r3, #0
 2652 019c 24D0     		beq	.L270
 615:C:/Users/dtjld/Desktop/AIoT_software/LiteOS_Lab_overseas/LiteOS_Lab/iot_link/network/lwm2m/wakaama_lwm2m/core\registration.c **** 
 616:C:/Users/dtjld/Desktop/AIoT_software/LiteOS_Lab_overseas/LiteOS_Lab/iot_link/network/lwm2m/wakaama_lwm2m/core\registration.c ****     coap_set_header_uri_path(transaction->message, serverP->location);
 2653              		.loc 1 616 0
 2654 019e FB68     		ldr	r3, [r7, #12]
 2655 01a0 9A6A     		ldr	r2, [r3, #40]
 2656 01a2 3B68     		ldr	r3, [r7]
 2657 01a4 5B6A     		ldr	r3, [r3, #36]
 2658 01a6 1946     		mov	r1, r3
 2659 01a8 1046     		mov	r0, r2
 2660 01aa FFF7FEFF 		bl	coap_set_header_uri_path
 617:C:/Users/dtjld/Desktop/AIoT_software/LiteOS_Lab_overseas/LiteOS_Lab/iot_link/network/lwm2m/wakaama_lwm2m/core\registration.c **** 
 618:C:/Users/dtjld/Desktop/AIoT_software/LiteOS_Lab_overseas/LiteOS_Lab/iot_link/network/lwm2m/wakaama_lwm2m/core\registration.c ****     transaction->callback = prv_handleDeregistrationReply;
 2661              		.loc 1 618 0
 2662 01ae FB68     		ldr	r3, [r7, #12]
 2663 01b0 274A     		ldr	r2, .L271+96
 2664 01b2 1A64     		str	r2, [r3, #64]
 619:C:/Users/dtjld/Desktop/AIoT_software/LiteOS_Lab_overseas/LiteOS_Lab/iot_link/network/lwm2m/wakaama_lwm2m/core\registration.c ****     transaction->userData = (void *) serverP;
 2665              		.loc 1 619 0
 2666 01b4 FB68     		ldr	r3, [r7, #12]
 2667 01b6 3A68     		ldr	r2, [r7]
 2668 01b8 5A64     		str	r2, [r3, #68]
 620:C:/Users/dtjld/Desktop/AIoT_software/LiteOS_Lab_overseas/LiteOS_Lab/iot_link/network/lwm2m/wakaama_lwm2m/core\registration.c **** 
 621:C:/Users/dtjld/Desktop/AIoT_software/LiteOS_Lab_overseas/LiteOS_Lab/iot_link/network/lwm2m/wakaama_lwm2m/core\registration.c ****     contextP->transactionList = (lwm2m_transaction_t *)LWM2M_LIST_ADD(contextP->transactionList, tr
 2669              		.loc 1 621 0
 2670 01ba 7B68     		ldr	r3, [r7, #4]
 2671 01bc 1B6B     		ldr	r3, [r3, #48]
 2672 01be F968     		ldr	r1, [r7, #12]
 2673 01c0 1846     		mov	r0, r3
ARM GAS  C:\Users\dtjld\AppData\Local\Temp\cctLUSig.s 			page 61


 2674 01c2 FFF7FEFF 		bl	lwm2m_list_add
 2675 01c6 0246     		mov	r2, r0
 2676 01c8 7B68     		ldr	r3, [r7, #4]
 2677 01ca 1A63     		str	r2, [r3, #48]
 622:C:/Users/dtjld/Desktop/AIoT_software/LiteOS_Lab_overseas/LiteOS_Lab/iot_link/network/lwm2m/wakaama_lwm2m/core\registration.c ****     if (transaction_send(contextP, transaction) == 0)
 2678              		.loc 1 622 0
 2679 01cc F968     		ldr	r1, [r7, #12]
 2680 01ce 7868     		ldr	r0, [r7, #4]
 2681 01d0 FFF7FEFF 		bl	transaction_send
 2682 01d4 0346     		mov	r3, r0
 2683 01d6 002B     		cmp	r3, #0
 2684 01d8 07D1     		bne	.L222
 623:C:/Users/dtjld/Desktop/AIoT_software/LiteOS_Lab_overseas/LiteOS_Lab/iot_link/network/lwm2m/wakaama_lwm2m/core\registration.c ****     {
 624:C:/Users/dtjld/Desktop/AIoT_software/LiteOS_Lab_overseas/LiteOS_Lab/iot_link/network/lwm2m/wakaama_lwm2m/core\registration.c ****         serverP->status = STATE_DEREG_PENDING;
 2685              		.loc 1 624 0
 2686 01da 3B68     		ldr	r3, [r7]
 2687 01dc 0722     		movs	r2, #7
 2688 01de 83F82020 		strb	r2, [r3, #32]
 2689 01e2 02E0     		b	.L222
 2690              	.L269:
 610:C:/Users/dtjld/Desktop/AIoT_software/LiteOS_Lab_overseas/LiteOS_Lab/iot_link/network/lwm2m/wakaama_lwm2m/core\registration.c ****     }
 2691              		.loc 1 610 0
 2692 01e4 00BF     		nop
 2693 01e6 00E0     		b	.L222
 2694              	.L270:
 614:C:/Users/dtjld/Desktop/AIoT_software/LiteOS_Lab_overseas/LiteOS_Lab/iot_link/network/lwm2m/wakaama_lwm2m/core\registration.c **** 
 2695              		.loc 1 614 0
 2696 01e8 00BF     		nop
 2697              	.L222:
 625:C:/Users/dtjld/Desktop/AIoT_software/LiteOS_Lab_overseas/LiteOS_Lab/iot_link/network/lwm2m/wakaama_lwm2m/core\registration.c ****     }
 626:C:/Users/dtjld/Desktop/AIoT_software/LiteOS_Lab_overseas/LiteOS_Lab/iot_link/network/lwm2m/wakaama_lwm2m/core\registration.c **** }
 2698              		.loc 1 626 0
 2699 01ea 1437     		adds	r7, r7, #20
 2700              	.LCFI54:
 2701              		.cfi_def_cfa_offset 12
 2702 01ec BD46     		mov	sp, r7
 2703              	.LCFI55:
 2704              		.cfi_def_cfa_register 13
 2705              		@ sp needed
 2706 01ee 90BD     		pop	{r4, r7, pc}
 2707              	.L272:
 2708              		.align	2
 2709              	.L271:
 2710 01f0 34010000 		.word	.LC15
 2711 01f4 40010000 		.word	.LC16
 2712 01f8 48010000 		.word	.LC17
 2713 01fc 5C010000 		.word	.LC18
 2714 0200 74010000 		.word	.LC19
 2715 0204 88010000 		.word	.LC20
 2716 0208 A4010000 		.word	.LC21
 2717 020c 18020000 		.word	.LC25
 2718 0210 28020000 		.word	.LC26
 2719 0214 3C020000 		.word	.LC27
 2720 0218 50020000 		.word	.LC28
 2721 021c 64020000 		.word	.LC29
 2722 0220 78020000 		.word	.LC30
 2723 0224 8C020000 		.word	.LC31
ARM GAS  C:\Users\dtjld\AppData\Local\Temp\cctLUSig.s 			page 62


 2724 0228 A0020000 		.word	.LC32
 2725 022c B4020000 		.word	.LC33
 2726 0230 D4020000 		.word	.LC34
 2727 0234 EC020000 		.word	.LC35
 2728 0238 08030000 		.word	.LC36
 2729 023c 1C030000 		.word	.LC37
 2730 0240 30030000 		.word	.LC38
 2731 0244 44030000 		.word	.LC39
 2732 0248 00000000 		.word	__func__.8616
 2733 024c 9C030000 		.word	.LC42
 2734 0250 00000000 		.word	prv_handleDeregistrationReply
 2735              		.cfi_endproc
 2736              	.LFE14:
 2738              		.section	.text.registration_reset,"ax",%progbits
 2739              		.align	1
 2740              		.global	registration_reset
 2741              		.syntax unified
 2742              		.thumb
 2743              		.thumb_func
 2744              		.fpu fpv4-sp-d16
 2746              	registration_reset:
 2747              	.LFB15:
 627:C:/Users/dtjld/Desktop/AIoT_software/LiteOS_Lab_overseas/LiteOS_Lab/iot_link/network/lwm2m/wakaama_lwm2m/core\registration.c **** 
 628:C:/Users/dtjld/Desktop/AIoT_software/LiteOS_Lab_overseas/LiteOS_Lab/iot_link/network/lwm2m/wakaama_lwm2m/core\registration.c **** void registration_reset(lwm2m_context_t *contextP,
 629:C:/Users/dtjld/Desktop/AIoT_software/LiteOS_Lab_overseas/LiteOS_Lab/iot_link/network/lwm2m/wakaama_lwm2m/core\registration.c ****                         lwm2m_server_t *serverP)
 630:C:/Users/dtjld/Desktop/AIoT_software/LiteOS_Lab_overseas/LiteOS_Lab/iot_link/network/lwm2m/wakaama_lwm2m/core\registration.c **** {
 2748              		.loc 1 630 0
 2749              		.cfi_startproc
 2750              		@ args = 0, pretend = 0, frame = 8
 2751              		@ frame_needed = 1, uses_anonymous_args = 0
 2752 0000 80B5     		push	{r7, lr}
 2753              	.LCFI56:
 2754              		.cfi_def_cfa_offset 8
 2755              		.cfi_offset 7, -8
 2756              		.cfi_offset 14, -4
 2757 0002 82B0     		sub	sp, sp, #8
 2758              	.LCFI57:
 2759              		.cfi_def_cfa_offset 16
 2760 0004 00AF     		add	r7, sp, #0
 2761              	.LCFI58:
 2762              		.cfi_def_cfa_register 7
 2763 0006 7860     		str	r0, [r7, #4]
 2764 0008 3960     		str	r1, [r7]
 631:C:/Users/dtjld/Desktop/AIoT_software/LiteOS_Lab_overseas/LiteOS_Lab/iot_link/network/lwm2m/wakaama_lwm2m/core\registration.c ****     //registration_deregister(contextP, serverP);
 632:C:/Users/dtjld/Desktop/AIoT_software/LiteOS_Lab_overseas/LiteOS_Lab/iot_link/network/lwm2m/wakaama_lwm2m/core\registration.c ****     if (serverP->sessionH != NULL)
 2765              		.loc 1 632 0
 2766 000a 3B68     		ldr	r3, [r7]
 2767 000c DB69     		ldr	r3, [r3, #28]
 2768 000e 002B     		cmp	r3, #0
 2769 0010 0AD0     		beq	.L274
 633:C:/Users/dtjld/Desktop/AIoT_software/LiteOS_Lab_overseas/LiteOS_Lab/iot_link/network/lwm2m/wakaama_lwm2m/core\registration.c ****     {
 634:C:/Users/dtjld/Desktop/AIoT_software/LiteOS_Lab_overseas/LiteOS_Lab/iot_link/network/lwm2m/wakaama_lwm2m/core\registration.c ****         lwm2m_close_connection(serverP->sessionH, contextP->userData);
 2770              		.loc 1 634 0
 2771 0012 3B68     		ldr	r3, [r7]
 2772 0014 DA69     		ldr	r2, [r3, #28]
 2773 0016 7B68     		ldr	r3, [r7, #4]
 2774 0018 5B6B     		ldr	r3, [r3, #52]
ARM GAS  C:\Users\dtjld\AppData\Local\Temp\cctLUSig.s 			page 63


 2775 001a 1946     		mov	r1, r3
 2776 001c 1046     		mov	r0, r2
 2777 001e FFF7FEFF 		bl	lwm2m_close_connection
 635:C:/Users/dtjld/Desktop/AIoT_software/LiteOS_Lab_overseas/LiteOS_Lab/iot_link/network/lwm2m/wakaama_lwm2m/core\registration.c ****         serverP->sessionH = NULL;
 2778              		.loc 1 635 0
 2779 0022 3B68     		ldr	r3, [r7]
 2780 0024 0022     		movs	r2, #0
 2781 0026 DA61     		str	r2, [r3, #28]
 2782              	.L274:
 636:C:/Users/dtjld/Desktop/AIoT_software/LiteOS_Lab_overseas/LiteOS_Lab/iot_link/network/lwm2m/wakaama_lwm2m/core\registration.c ****     }
 637:C:/Users/dtjld/Desktop/AIoT_software/LiteOS_Lab_overseas/LiteOS_Lab/iot_link/network/lwm2m/wakaama_lwm2m/core\registration.c ****     serverP->status = STATE_DEREGISTERED;
 2783              		.loc 1 637 0
 2784 0028 3B68     		ldr	r3, [r7]
 2785 002a 0022     		movs	r2, #0
 2786 002c 83F82020 		strb	r2, [r3, #32]
 638:C:/Users/dtjld/Desktop/AIoT_software/LiteOS_Lab_overseas/LiteOS_Lab/iot_link/network/lwm2m/wakaama_lwm2m/core\registration.c **** }
 2787              		.loc 1 638 0
 2788 0030 00BF     		nop
 2789 0032 0837     		adds	r7, r7, #8
 2790              	.LCFI59:
 2791              		.cfi_def_cfa_offset 8
 2792 0034 BD46     		mov	sp, r7
 2793              	.LCFI60:
 2794              		.cfi_def_cfa_register 13
 2795              		@ sp needed
 2796 0036 80BD     		pop	{r7, pc}
 2797              		.cfi_endproc
 2798              	.LFE15:
 2800              		.section	.rodata
 2801 03c9 000000   		.align	2
 2802              	.LC43:
 2803 03cc 5B25645D 		.ascii	"[%d][%s:%d] null pointer\015\012\000"
 2803      5B25733A 
 2803      25645D20 
 2803      6E756C6C 
 2803      20706F69 
 2804              		.section	.text.registration_get_registered_server,"ax",%progbits
 2805              		.align	1
 2806              		.global	registration_get_registered_server
 2807              		.syntax unified
 2808              		.thumb
 2809              		.thumb_func
 2810              		.fpu fpv4-sp-d16
 2812              	registration_get_registered_server:
 2813              	.LFB16:
 639:C:/Users/dtjld/Desktop/AIoT_software/LiteOS_Lab_overseas/LiteOS_Lab/iot_link/network/lwm2m/wakaama_lwm2m/core\registration.c **** 
 640:C:/Users/dtjld/Desktop/AIoT_software/LiteOS_Lab_overseas/LiteOS_Lab/iot_link/network/lwm2m/wakaama_lwm2m/core\registration.c **** lwm2m_server_t *registration_get_registered_server(lwm2m_context_t *contextP)
 641:C:/Users/dtjld/Desktop/AIoT_software/LiteOS_Lab_overseas/LiteOS_Lab/iot_link/network/lwm2m/wakaama_lwm2m/core\registration.c **** {
 2814              		.loc 1 641 0
 2815              		.cfi_startproc
 2816              		@ args = 0, pretend = 0, frame = 16
 2817              		@ frame_needed = 1, uses_anonymous_args = 0
 2818 0000 90B5     		push	{r4, r7, lr}
 2819              	.LCFI61:
 2820              		.cfi_def_cfa_offset 12
 2821              		.cfi_offset 4, -12
 2822              		.cfi_offset 7, -8
ARM GAS  C:\Users\dtjld\AppData\Local\Temp\cctLUSig.s 			page 64


 2823              		.cfi_offset 14, -4
 2824 0002 85B0     		sub	sp, sp, #20
 2825              	.LCFI62:
 2826              		.cfi_def_cfa_offset 32
 2827 0004 00AF     		add	r7, sp, #0
 2828              	.LCFI63:
 2829              		.cfi_def_cfa_register 7
 2830 0006 7860     		str	r0, [r7, #4]
 642:C:/Users/dtjld/Desktop/AIoT_software/LiteOS_Lab_overseas/LiteOS_Lab/iot_link/network/lwm2m/wakaama_lwm2m/core\registration.c ****     lwm2m_server_t *targetP;
 643:C:/Users/dtjld/Desktop/AIoT_software/LiteOS_Lab_overseas/LiteOS_Lab/iot_link/network/lwm2m/wakaama_lwm2m/core\registration.c **** 
 644:C:/Users/dtjld/Desktop/AIoT_software/LiteOS_Lab_overseas/LiteOS_Lab/iot_link/network/lwm2m/wakaama_lwm2m/core\registration.c ****     if(NULL == contextP)
 2831              		.loc 1 644 0
 2832 0008 7B68     		ldr	r3, [r7, #4]
 2833 000a 002B     		cmp	r3, #0
 2834 000c 0CD1     		bne	.L276
 645:C:/Users/dtjld/Desktop/AIoT_software/LiteOS_Lab_overseas/LiteOS_Lab/iot_link/network/lwm2m/wakaama_lwm2m/core\registration.c ****     {
 646:C:/Users/dtjld/Desktop/AIoT_software/LiteOS_Lab_overseas/LiteOS_Lab/iot_link/network/lwm2m/wakaama_lwm2m/core\registration.c ****         LOG("null pointer");
 2835              		.loc 1 646 0
 2836 000e FFF7FEFF 		bl	lwm2m_gettime
 2837 0012 0346     		mov	r3, r0
 2838 0014 0C46     		mov	r4, r1
 2839 0016 1946     		mov	r1, r3
 2840 0018 40F28623 		movw	r3, #646
 2841 001c 154A     		ldr	r2, .L282
 2842 001e 1648     		ldr	r0, .L282+4
 2843 0020 FFF7FEFF 		bl	atiny_printf
 647:C:/Users/dtjld/Desktop/AIoT_software/LiteOS_Lab_overseas/LiteOS_Lab/iot_link/network/lwm2m/wakaama_lwm2m/core\registration.c ****         return NULL;
 2844              		.loc 1 647 0
 2845 0024 0023     		movs	r3, #0
 2846 0026 20E0     		b	.L277
 2847              	.L276:
 648:C:/Users/dtjld/Desktop/AIoT_software/LiteOS_Lab_overseas/LiteOS_Lab/iot_link/network/lwm2m/wakaama_lwm2m/core\registration.c ****     }
 649:C:/Users/dtjld/Desktop/AIoT_software/LiteOS_Lab_overseas/LiteOS_Lab/iot_link/network/lwm2m/wakaama_lwm2m/core\registration.c **** 
 650:C:/Users/dtjld/Desktop/AIoT_software/LiteOS_Lab_overseas/LiteOS_Lab/iot_link/network/lwm2m/wakaama_lwm2m/core\registration.c ****     targetP = contextP->serverList;
 2848              		.loc 1 650 0
 2849 0028 7B68     		ldr	r3, [r7, #4]
 2850 002a 5B69     		ldr	r3, [r3, #20]
 2851 002c FB60     		str	r3, [r7, #12]
 651:C:/Users/dtjld/Desktop/AIoT_software/LiteOS_Lab_overseas/LiteOS_Lab/iot_link/network/lwm2m/wakaama_lwm2m/core\registration.c ****     while (targetP != NULL)
 2852              		.loc 1 651 0
 2853 002e 18E0     		b	.L278
 2854              	.L281:
 652:C:/Users/dtjld/Desktop/AIoT_software/LiteOS_Lab_overseas/LiteOS_Lab/iot_link/network/lwm2m/wakaama_lwm2m/core\registration.c ****     {
 653:C:/Users/dtjld/Desktop/AIoT_software/LiteOS_Lab_overseas/LiteOS_Lab/iot_link/network/lwm2m/wakaama_lwm2m/core\registration.c ****         if ((STATE_REGISTERED == targetP->status)
 2855              		.loc 1 653 0
 2856 0030 FB68     		ldr	r3, [r7, #12]
 2857 0032 93F82030 		ldrb	r3, [r3, #32]	@ zero_extendqisi2
 2858 0036 022B     		cmp	r3, #2
 2859 0038 0ED0     		beq	.L279
 654:C:/Users/dtjld/Desktop/AIoT_software/LiteOS_Lab_overseas/LiteOS_Lab/iot_link/network/lwm2m/wakaama_lwm2m/core\registration.c ****                 || (STATE_REG_UPDATE_PENDING == targetP->status)
 2860              		.loc 1 654 0
 2861 003a FB68     		ldr	r3, [r7, #12]
 2862 003c 93F82030 		ldrb	r3, [r3, #32]	@ zero_extendqisi2
 2863 0040 042B     		cmp	r3, #4
 2864 0042 09D0     		beq	.L279
 655:C:/Users/dtjld/Desktop/AIoT_software/LiteOS_Lab_overseas/LiteOS_Lab/iot_link/network/lwm2m/wakaama_lwm2m/core\registration.c ****                 || (STATE_REG_UPDATE_NEEDED == targetP->status)
 2865              		.loc 1 655 0
ARM GAS  C:\Users\dtjld\AppData\Local\Temp\cctLUSig.s 			page 65


 2866 0044 FB68     		ldr	r3, [r7, #12]
 2867 0046 93F82030 		ldrb	r3, [r3, #32]	@ zero_extendqisi2
 2868 004a 052B     		cmp	r3, #5
 2869 004c 04D0     		beq	.L279
 656:C:/Users/dtjld/Desktop/AIoT_software/LiteOS_Lab_overseas/LiteOS_Lab/iot_link/network/lwm2m/wakaama_lwm2m/core\registration.c ****                 || (STATE_REG_FULL_UPDATE_NEEDED == targetP->status))
 2870              		.loc 1 656 0
 2871 004e FB68     		ldr	r3, [r7, #12]
 2872 0050 93F82030 		ldrb	r3, [r3, #32]	@ zero_extendqisi2
 2873 0054 062B     		cmp	r3, #6
 2874 0056 01D1     		bne	.L280
 2875              	.L279:
 657:C:/Users/dtjld/Desktop/AIoT_software/LiteOS_Lab_overseas/LiteOS_Lab/iot_link/network/lwm2m/wakaama_lwm2m/core\registration.c ****         {
 658:C:/Users/dtjld/Desktop/AIoT_software/LiteOS_Lab_overseas/LiteOS_Lab/iot_link/network/lwm2m/wakaama_lwm2m/core\registration.c ****             return targetP;
 2876              		.loc 1 658 0
 2877 0058 FB68     		ldr	r3, [r7, #12]
 2878 005a 06E0     		b	.L277
 2879              	.L280:
 659:C:/Users/dtjld/Desktop/AIoT_software/LiteOS_Lab_overseas/LiteOS_Lab/iot_link/network/lwm2m/wakaama_lwm2m/core\registration.c ****         }
 660:C:/Users/dtjld/Desktop/AIoT_software/LiteOS_Lab_overseas/LiteOS_Lab/iot_link/network/lwm2m/wakaama_lwm2m/core\registration.c ****         targetP = targetP->next;
 2880              		.loc 1 660 0
 2881 005c FB68     		ldr	r3, [r7, #12]
 2882 005e 1B68     		ldr	r3, [r3]
 2883 0060 FB60     		str	r3, [r7, #12]
 2884              	.L278:
 651:C:/Users/dtjld/Desktop/AIoT_software/LiteOS_Lab_overseas/LiteOS_Lab/iot_link/network/lwm2m/wakaama_lwm2m/core\registration.c ****     {
 2885              		.loc 1 651 0
 2886 0062 FB68     		ldr	r3, [r7, #12]
 2887 0064 002B     		cmp	r3, #0
 2888 0066 E3D1     		bne	.L281
 661:C:/Users/dtjld/Desktop/AIoT_software/LiteOS_Lab_overseas/LiteOS_Lab/iot_link/network/lwm2m/wakaama_lwm2m/core\registration.c ****     }
 662:C:/Users/dtjld/Desktop/AIoT_software/LiteOS_Lab_overseas/LiteOS_Lab/iot_link/network/lwm2m/wakaama_lwm2m/core\registration.c **** 
 663:C:/Users/dtjld/Desktop/AIoT_software/LiteOS_Lab_overseas/LiteOS_Lab/iot_link/network/lwm2m/wakaama_lwm2m/core\registration.c ****     return NULL;
 2889              		.loc 1 663 0
 2890 0068 0023     		movs	r3, #0
 2891              	.L277:
 664:C:/Users/dtjld/Desktop/AIoT_software/LiteOS_Lab_overseas/LiteOS_Lab/iot_link/network/lwm2m/wakaama_lwm2m/core\registration.c **** }
 2892              		.loc 1 664 0
 2893 006a 1846     		mov	r0, r3
 2894 006c 1437     		adds	r7, r7, #20
 2895              	.LCFI64:
 2896              		.cfi_def_cfa_offset 12
 2897 006e BD46     		mov	sp, r7
 2898              	.LCFI65:
 2899              		.cfi_def_cfa_register 13
 2900              		@ sp needed
 2901 0070 90BD     		pop	{r4, r7, pc}
 2902              	.L283:
 2903 0072 00BF     		.align	2
 2904              	.L282:
 2905 0074 00000000 		.word	__func__.8625
 2906 0078 CC030000 		.word	.LC43
 2907              		.cfi_endproc
 2908              	.LFE16:
 2910              		.section	.rodata
 2911 03e7 00       		.align	2
 2912              	.LC44:
 2913 03e8 5B25645D 		.ascii	"[%d][%s:%d] contextP State: %s\015\012\000"
ARM GAS  C:\Users\dtjld\AppData\Local\Temp\cctLUSig.s 			page 66


 2913      5B25733A 
 2913      25645D20 
 2913      636F6E74 
 2913      65787450 
 2914 0409 000000   		.align	2
 2915              	.LC45:
 2916 040c 5B25645D 		.ascii	"[%d][%s:%d] targetP Status: %s\015\012\000"
 2916      5B25733A 
 2916      25645D20 
 2916      74617267 
 2916      65745020 
 2917              		.global	__aeabi_l2d
 2918              		.global	__aeabi_dcmpgt
 2919              		.global	__aeabi_dsub
 2920              		.global	__aeabi_d2lz
 2921 042d 000000   		.align	2
 2922              	.LC46:
 2923 0430 5B25645D 		.ascii	"[%d][%s:%d] Updating registration\015\012\000"
 2923      5B25733A 
 2923      25645D20 
 2923      55706461 
 2923      74696E67 
 2924              		.section	.text.registration_step,"ax",%progbits
 2925              		.align	1
 2926              		.global	registration_step
 2927              		.syntax unified
 2928              		.thumb
 2929              		.thumb_func
 2930              		.fpu fpv4-sp-d16
 2932              	registration_step:
 2933              	.LFB17:
 665:C:/Users/dtjld/Desktop/AIoT_software/LiteOS_Lab_overseas/LiteOS_Lab/iot_link/network/lwm2m/wakaama_lwm2m/core\registration.c **** 
 666:C:/Users/dtjld/Desktop/AIoT_software/LiteOS_Lab_overseas/LiteOS_Lab/iot_link/network/lwm2m/wakaama_lwm2m/core\registration.c **** #endif
 667:C:/Users/dtjld/Desktop/AIoT_software/LiteOS_Lab_overseas/LiteOS_Lab/iot_link/network/lwm2m/wakaama_lwm2m/core\registration.c **** 
 668:C:/Users/dtjld/Desktop/AIoT_software/LiteOS_Lab_overseas/LiteOS_Lab/iot_link/network/lwm2m/wakaama_lwm2m/core\registration.c **** #ifdef LWM2M_SERVER_MODE
 669:C:/Users/dtjld/Desktop/AIoT_software/LiteOS_Lab_overseas/LiteOS_Lab/iot_link/network/lwm2m/wakaama_lwm2m/core\registration.c **** static void prv_freeClientObjectList(lwm2m_client_object_t *objects)
 670:C:/Users/dtjld/Desktop/AIoT_software/LiteOS_Lab_overseas/LiteOS_Lab/iot_link/network/lwm2m/wakaama_lwm2m/core\registration.c **** {
 671:C:/Users/dtjld/Desktop/AIoT_software/LiteOS_Lab_overseas/LiteOS_Lab/iot_link/network/lwm2m/wakaama_lwm2m/core\registration.c ****     while (objects != NULL)
 672:C:/Users/dtjld/Desktop/AIoT_software/LiteOS_Lab_overseas/LiteOS_Lab/iot_link/network/lwm2m/wakaama_lwm2m/core\registration.c ****     {
 673:C:/Users/dtjld/Desktop/AIoT_software/LiteOS_Lab_overseas/LiteOS_Lab/iot_link/network/lwm2m/wakaama_lwm2m/core\registration.c ****         lwm2m_client_object_t *objP;
 674:C:/Users/dtjld/Desktop/AIoT_software/LiteOS_Lab_overseas/LiteOS_Lab/iot_link/network/lwm2m/wakaama_lwm2m/core\registration.c **** 
 675:C:/Users/dtjld/Desktop/AIoT_software/LiteOS_Lab_overseas/LiteOS_Lab/iot_link/network/lwm2m/wakaama_lwm2m/core\registration.c ****         while (objects->instanceList != NULL)
 676:C:/Users/dtjld/Desktop/AIoT_software/LiteOS_Lab_overseas/LiteOS_Lab/iot_link/network/lwm2m/wakaama_lwm2m/core\registration.c ****         {
 677:C:/Users/dtjld/Desktop/AIoT_software/LiteOS_Lab_overseas/LiteOS_Lab/iot_link/network/lwm2m/wakaama_lwm2m/core\registration.c ****             lwm2m_list_t *target;
 678:C:/Users/dtjld/Desktop/AIoT_software/LiteOS_Lab_overseas/LiteOS_Lab/iot_link/network/lwm2m/wakaama_lwm2m/core\registration.c **** 
 679:C:/Users/dtjld/Desktop/AIoT_software/LiteOS_Lab_overseas/LiteOS_Lab/iot_link/network/lwm2m/wakaama_lwm2m/core\registration.c ****             target = objects->instanceList;
 680:C:/Users/dtjld/Desktop/AIoT_software/LiteOS_Lab_overseas/LiteOS_Lab/iot_link/network/lwm2m/wakaama_lwm2m/core\registration.c ****             objects->instanceList = objects->instanceList->next;
 681:C:/Users/dtjld/Desktop/AIoT_software/LiteOS_Lab_overseas/LiteOS_Lab/iot_link/network/lwm2m/wakaama_lwm2m/core\registration.c ****             lwm2m_free(target);
 682:C:/Users/dtjld/Desktop/AIoT_software/LiteOS_Lab_overseas/LiteOS_Lab/iot_link/network/lwm2m/wakaama_lwm2m/core\registration.c ****         }
 683:C:/Users/dtjld/Desktop/AIoT_software/LiteOS_Lab_overseas/LiteOS_Lab/iot_link/network/lwm2m/wakaama_lwm2m/core\registration.c **** 
 684:C:/Users/dtjld/Desktop/AIoT_software/LiteOS_Lab_overseas/LiteOS_Lab/iot_link/network/lwm2m/wakaama_lwm2m/core\registration.c ****         objP = objects;
 685:C:/Users/dtjld/Desktop/AIoT_software/LiteOS_Lab_overseas/LiteOS_Lab/iot_link/network/lwm2m/wakaama_lwm2m/core\registration.c ****         objects = objects->next;
 686:C:/Users/dtjld/Desktop/AIoT_software/LiteOS_Lab_overseas/LiteOS_Lab/iot_link/network/lwm2m/wakaama_lwm2m/core\registration.c ****         lwm2m_free(objP);
 687:C:/Users/dtjld/Desktop/AIoT_software/LiteOS_Lab_overseas/LiteOS_Lab/iot_link/network/lwm2m/wakaama_lwm2m/core\registration.c ****     }
 688:C:/Users/dtjld/Desktop/AIoT_software/LiteOS_Lab_overseas/LiteOS_Lab/iot_link/network/lwm2m/wakaama_lwm2m/core\registration.c **** }
 689:C:/Users/dtjld/Desktop/AIoT_software/LiteOS_Lab_overseas/LiteOS_Lab/iot_link/network/lwm2m/wakaama_lwm2m/core\registration.c **** 
 690:C:/Users/dtjld/Desktop/AIoT_software/LiteOS_Lab_overseas/LiteOS_Lab/iot_link/network/lwm2m/wakaama_lwm2m/core\registration.c **** static int prv_getParameters(multi_option_t *query,
ARM GAS  C:\Users\dtjld\AppData\Local\Temp\cctLUSig.s 			page 67


 691:C:/Users/dtjld/Desktop/AIoT_software/LiteOS_Lab_overseas/LiteOS_Lab/iot_link/network/lwm2m/wakaama_lwm2m/core\registration.c ****                              char **nameP,
 692:C:/Users/dtjld/Desktop/AIoT_software/LiteOS_Lab_overseas/LiteOS_Lab/iot_link/network/lwm2m/wakaama_lwm2m/core\registration.c ****                              uint32_t *lifetimeP,
 693:C:/Users/dtjld/Desktop/AIoT_software/LiteOS_Lab_overseas/LiteOS_Lab/iot_link/network/lwm2m/wakaama_lwm2m/core\registration.c ****                              char **msisdnP,
 694:C:/Users/dtjld/Desktop/AIoT_software/LiteOS_Lab_overseas/LiteOS_Lab/iot_link/network/lwm2m/wakaama_lwm2m/core\registration.c ****                              lwm2m_binding_t *bindingP,
 695:C:/Users/dtjld/Desktop/AIoT_software/LiteOS_Lab_overseas/LiteOS_Lab/iot_link/network/lwm2m/wakaama_lwm2m/core\registration.c ****                              char **versionP)
 696:C:/Users/dtjld/Desktop/AIoT_software/LiteOS_Lab_overseas/LiteOS_Lab/iot_link/network/lwm2m/wakaama_lwm2m/core\registration.c **** {
 697:C:/Users/dtjld/Desktop/AIoT_software/LiteOS_Lab_overseas/LiteOS_Lab/iot_link/network/lwm2m/wakaama_lwm2m/core\registration.c ****     *nameP = NULL;
 698:C:/Users/dtjld/Desktop/AIoT_software/LiteOS_Lab_overseas/LiteOS_Lab/iot_link/network/lwm2m/wakaama_lwm2m/core\registration.c ****     *lifetimeP = 0;
 699:C:/Users/dtjld/Desktop/AIoT_software/LiteOS_Lab_overseas/LiteOS_Lab/iot_link/network/lwm2m/wakaama_lwm2m/core\registration.c ****     *msisdnP = NULL;
 700:C:/Users/dtjld/Desktop/AIoT_software/LiteOS_Lab_overseas/LiteOS_Lab/iot_link/network/lwm2m/wakaama_lwm2m/core\registration.c ****     *bindingP = BINDING_UNKNOWN;
 701:C:/Users/dtjld/Desktop/AIoT_software/LiteOS_Lab_overseas/LiteOS_Lab/iot_link/network/lwm2m/wakaama_lwm2m/core\registration.c ****     *versionP = NULL;
 702:C:/Users/dtjld/Desktop/AIoT_software/LiteOS_Lab_overseas/LiteOS_Lab/iot_link/network/lwm2m/wakaama_lwm2m/core\registration.c **** 
 703:C:/Users/dtjld/Desktop/AIoT_software/LiteOS_Lab_overseas/LiteOS_Lab/iot_link/network/lwm2m/wakaama_lwm2m/core\registration.c ****     while (query != NULL)
 704:C:/Users/dtjld/Desktop/AIoT_software/LiteOS_Lab_overseas/LiteOS_Lab/iot_link/network/lwm2m/wakaama_lwm2m/core\registration.c ****     {
 705:C:/Users/dtjld/Desktop/AIoT_software/LiteOS_Lab_overseas/LiteOS_Lab/iot_link/network/lwm2m/wakaama_lwm2m/core\registration.c ****         if (lwm2m_strncmp((char *)query->data, QUERY_NAME, QUERY_NAME_LEN) == 0)
 706:C:/Users/dtjld/Desktop/AIoT_software/LiteOS_Lab_overseas/LiteOS_Lab/iot_link/network/lwm2m/wakaama_lwm2m/core\registration.c ****         {
 707:C:/Users/dtjld/Desktop/AIoT_software/LiteOS_Lab_overseas/LiteOS_Lab/iot_link/network/lwm2m/wakaama_lwm2m/core\registration.c ****             if (*nameP != NULL) goto error;
 708:C:/Users/dtjld/Desktop/AIoT_software/LiteOS_Lab_overseas/LiteOS_Lab/iot_link/network/lwm2m/wakaama_lwm2m/core\registration.c ****             if (query->len == QUERY_NAME_LEN) goto error;
 709:C:/Users/dtjld/Desktop/AIoT_software/LiteOS_Lab_overseas/LiteOS_Lab/iot_link/network/lwm2m/wakaama_lwm2m/core\registration.c **** 
 710:C:/Users/dtjld/Desktop/AIoT_software/LiteOS_Lab_overseas/LiteOS_Lab/iot_link/network/lwm2m/wakaama_lwm2m/core\registration.c ****             *nameP = (char *)lwm2m_malloc(query->len - QUERY_NAME_LEN + 1);
 711:C:/Users/dtjld/Desktop/AIoT_software/LiteOS_Lab_overseas/LiteOS_Lab/iot_link/network/lwm2m/wakaama_lwm2m/core\registration.c ****             if (*nameP != NULL)
 712:C:/Users/dtjld/Desktop/AIoT_software/LiteOS_Lab_overseas/LiteOS_Lab/iot_link/network/lwm2m/wakaama_lwm2m/core\registration.c ****             {
 713:C:/Users/dtjld/Desktop/AIoT_software/LiteOS_Lab_overseas/LiteOS_Lab/iot_link/network/lwm2m/wakaama_lwm2m/core\registration.c ****                 memcpy(*nameP, query->data + QUERY_NAME_LEN, query->len - QUERY_NAME_LEN);
 714:C:/Users/dtjld/Desktop/AIoT_software/LiteOS_Lab_overseas/LiteOS_Lab/iot_link/network/lwm2m/wakaama_lwm2m/core\registration.c ****                 (*nameP)[query->len - QUERY_NAME_LEN] = 0;
 715:C:/Users/dtjld/Desktop/AIoT_software/LiteOS_Lab_overseas/LiteOS_Lab/iot_link/network/lwm2m/wakaama_lwm2m/core\registration.c ****             }
 716:C:/Users/dtjld/Desktop/AIoT_software/LiteOS_Lab_overseas/LiteOS_Lab/iot_link/network/lwm2m/wakaama_lwm2m/core\registration.c ****         }
 717:C:/Users/dtjld/Desktop/AIoT_software/LiteOS_Lab_overseas/LiteOS_Lab/iot_link/network/lwm2m/wakaama_lwm2m/core\registration.c ****         else if (lwm2m_strncmp((char *)query->data, QUERY_SMS, QUERY_SMS_LEN) == 0)
 718:C:/Users/dtjld/Desktop/AIoT_software/LiteOS_Lab_overseas/LiteOS_Lab/iot_link/network/lwm2m/wakaama_lwm2m/core\registration.c ****         {
 719:C:/Users/dtjld/Desktop/AIoT_software/LiteOS_Lab_overseas/LiteOS_Lab/iot_link/network/lwm2m/wakaama_lwm2m/core\registration.c ****             if (*msisdnP != NULL) goto error;
 720:C:/Users/dtjld/Desktop/AIoT_software/LiteOS_Lab_overseas/LiteOS_Lab/iot_link/network/lwm2m/wakaama_lwm2m/core\registration.c ****             if (query->len == QUERY_SMS_LEN) goto error;
 721:C:/Users/dtjld/Desktop/AIoT_software/LiteOS_Lab_overseas/LiteOS_Lab/iot_link/network/lwm2m/wakaama_lwm2m/core\registration.c **** 
 722:C:/Users/dtjld/Desktop/AIoT_software/LiteOS_Lab_overseas/LiteOS_Lab/iot_link/network/lwm2m/wakaama_lwm2m/core\registration.c ****             *msisdnP = (char *)lwm2m_malloc(query->len - QUERY_SMS_LEN + 1);
 723:C:/Users/dtjld/Desktop/AIoT_software/LiteOS_Lab_overseas/LiteOS_Lab/iot_link/network/lwm2m/wakaama_lwm2m/core\registration.c ****             if (*msisdnP != NULL)
 724:C:/Users/dtjld/Desktop/AIoT_software/LiteOS_Lab_overseas/LiteOS_Lab/iot_link/network/lwm2m/wakaama_lwm2m/core\registration.c ****             {
 725:C:/Users/dtjld/Desktop/AIoT_software/LiteOS_Lab_overseas/LiteOS_Lab/iot_link/network/lwm2m/wakaama_lwm2m/core\registration.c ****                 memcpy(*msisdnP, query->data + QUERY_SMS_LEN, query->len - QUERY_SMS_LEN);
 726:C:/Users/dtjld/Desktop/AIoT_software/LiteOS_Lab_overseas/LiteOS_Lab/iot_link/network/lwm2m/wakaama_lwm2m/core\registration.c ****                 (*msisdnP)[query->len - QUERY_SMS_LEN] = 0;
 727:C:/Users/dtjld/Desktop/AIoT_software/LiteOS_Lab_overseas/LiteOS_Lab/iot_link/network/lwm2m/wakaama_lwm2m/core\registration.c ****             }
 728:C:/Users/dtjld/Desktop/AIoT_software/LiteOS_Lab_overseas/LiteOS_Lab/iot_link/network/lwm2m/wakaama_lwm2m/core\registration.c ****         }
 729:C:/Users/dtjld/Desktop/AIoT_software/LiteOS_Lab_overseas/LiteOS_Lab/iot_link/network/lwm2m/wakaama_lwm2m/core\registration.c ****         else if (lwm2m_strncmp((char *)query->data, QUERY_LIFETIME, QUERY_LIFETIME_LEN) == 0)
 730:C:/Users/dtjld/Desktop/AIoT_software/LiteOS_Lab_overseas/LiteOS_Lab/iot_link/network/lwm2m/wakaama_lwm2m/core\registration.c ****         {
 731:C:/Users/dtjld/Desktop/AIoT_software/LiteOS_Lab_overseas/LiteOS_Lab/iot_link/network/lwm2m/wakaama_lwm2m/core\registration.c ****             int i;
 732:C:/Users/dtjld/Desktop/AIoT_software/LiteOS_Lab_overseas/LiteOS_Lab/iot_link/network/lwm2m/wakaama_lwm2m/core\registration.c **** 
 733:C:/Users/dtjld/Desktop/AIoT_software/LiteOS_Lab_overseas/LiteOS_Lab/iot_link/network/lwm2m/wakaama_lwm2m/core\registration.c ****             if (*lifetimeP != 0) goto error;
 734:C:/Users/dtjld/Desktop/AIoT_software/LiteOS_Lab_overseas/LiteOS_Lab/iot_link/network/lwm2m/wakaama_lwm2m/core\registration.c ****             if (query->len == QUERY_LIFETIME_LEN) goto error;
 735:C:/Users/dtjld/Desktop/AIoT_software/LiteOS_Lab_overseas/LiteOS_Lab/iot_link/network/lwm2m/wakaama_lwm2m/core\registration.c **** 
 736:C:/Users/dtjld/Desktop/AIoT_software/LiteOS_Lab_overseas/LiteOS_Lab/iot_link/network/lwm2m/wakaama_lwm2m/core\registration.c ****             for (i = QUERY_LIFETIME_LEN ; i < query->len ; i++)
 737:C:/Users/dtjld/Desktop/AIoT_software/LiteOS_Lab_overseas/LiteOS_Lab/iot_link/network/lwm2m/wakaama_lwm2m/core\registration.c ****             {
 738:C:/Users/dtjld/Desktop/AIoT_software/LiteOS_Lab_overseas/LiteOS_Lab/iot_link/network/lwm2m/wakaama_lwm2m/core\registration.c ****                 if (query->data[i] < '0' || query->data[i] > '9') goto error;
 739:C:/Users/dtjld/Desktop/AIoT_software/LiteOS_Lab_overseas/LiteOS_Lab/iot_link/network/lwm2m/wakaama_lwm2m/core\registration.c ****                 *lifetimeP = (*lifetimeP * 10) + (query->data[i] - '0');
 740:C:/Users/dtjld/Desktop/AIoT_software/LiteOS_Lab_overseas/LiteOS_Lab/iot_link/network/lwm2m/wakaama_lwm2m/core\registration.c ****             }
 741:C:/Users/dtjld/Desktop/AIoT_software/LiteOS_Lab_overseas/LiteOS_Lab/iot_link/network/lwm2m/wakaama_lwm2m/core\registration.c ****         }
 742:C:/Users/dtjld/Desktop/AIoT_software/LiteOS_Lab_overseas/LiteOS_Lab/iot_link/network/lwm2m/wakaama_lwm2m/core\registration.c ****         else if (lwm2m_strncmp((char *)query->data, QUERY_VERSION, QUERY_VERSION_LEN) == 0)
 743:C:/Users/dtjld/Desktop/AIoT_software/LiteOS_Lab_overseas/LiteOS_Lab/iot_link/network/lwm2m/wakaama_lwm2m/core\registration.c ****         {
 744:C:/Users/dtjld/Desktop/AIoT_software/LiteOS_Lab_overseas/LiteOS_Lab/iot_link/network/lwm2m/wakaama_lwm2m/core\registration.c ****             if (*versionP != NULL) goto error;
 745:C:/Users/dtjld/Desktop/AIoT_software/LiteOS_Lab_overseas/LiteOS_Lab/iot_link/network/lwm2m/wakaama_lwm2m/core\registration.c ****             if (query->len == QUERY_VERSION_LEN) goto error;
 746:C:/Users/dtjld/Desktop/AIoT_software/LiteOS_Lab_overseas/LiteOS_Lab/iot_link/network/lwm2m/wakaama_lwm2m/core\registration.c **** 
 747:C:/Users/dtjld/Desktop/AIoT_software/LiteOS_Lab_overseas/LiteOS_Lab/iot_link/network/lwm2m/wakaama_lwm2m/core\registration.c ****             *versionP = (char *)lwm2m_malloc(query->len - QUERY_VERSION_LEN + 1);
ARM GAS  C:\Users\dtjld\AppData\Local\Temp\cctLUSig.s 			page 68


 748:C:/Users/dtjld/Desktop/AIoT_software/LiteOS_Lab_overseas/LiteOS_Lab/iot_link/network/lwm2m/wakaama_lwm2m/core\registration.c ****             if (*versionP != NULL)
 749:C:/Users/dtjld/Desktop/AIoT_software/LiteOS_Lab_overseas/LiteOS_Lab/iot_link/network/lwm2m/wakaama_lwm2m/core\registration.c ****             {
 750:C:/Users/dtjld/Desktop/AIoT_software/LiteOS_Lab_overseas/LiteOS_Lab/iot_link/network/lwm2m/wakaama_lwm2m/core\registration.c ****                 memcpy(*versionP, query->data + QUERY_VERSION_LEN, query->len - QUERY_VERSION_LEN);
 751:C:/Users/dtjld/Desktop/AIoT_software/LiteOS_Lab_overseas/LiteOS_Lab/iot_link/network/lwm2m/wakaama_lwm2m/core\registration.c ****                 (*versionP)[query->len - QUERY_VERSION_LEN] = 0;
 752:C:/Users/dtjld/Desktop/AIoT_software/LiteOS_Lab_overseas/LiteOS_Lab/iot_link/network/lwm2m/wakaama_lwm2m/core\registration.c ****             }
 753:C:/Users/dtjld/Desktop/AIoT_software/LiteOS_Lab_overseas/LiteOS_Lab/iot_link/network/lwm2m/wakaama_lwm2m/core\registration.c ****         }
 754:C:/Users/dtjld/Desktop/AIoT_software/LiteOS_Lab_overseas/LiteOS_Lab/iot_link/network/lwm2m/wakaama_lwm2m/core\registration.c ****         else if (lwm2m_strncmp((char *)query->data, QUERY_BINDING, QUERY_BINDING_LEN) == 0)
 755:C:/Users/dtjld/Desktop/AIoT_software/LiteOS_Lab_overseas/LiteOS_Lab/iot_link/network/lwm2m/wakaama_lwm2m/core\registration.c ****         {
 756:C:/Users/dtjld/Desktop/AIoT_software/LiteOS_Lab_overseas/LiteOS_Lab/iot_link/network/lwm2m/wakaama_lwm2m/core\registration.c ****             if (*bindingP != BINDING_UNKNOWN) goto error;
 757:C:/Users/dtjld/Desktop/AIoT_software/LiteOS_Lab_overseas/LiteOS_Lab/iot_link/network/lwm2m/wakaama_lwm2m/core\registration.c ****             if (query->len == QUERY_BINDING_LEN) goto error;
 758:C:/Users/dtjld/Desktop/AIoT_software/LiteOS_Lab_overseas/LiteOS_Lab/iot_link/network/lwm2m/wakaama_lwm2m/core\registration.c **** 
 759:C:/Users/dtjld/Desktop/AIoT_software/LiteOS_Lab_overseas/LiteOS_Lab/iot_link/network/lwm2m/wakaama_lwm2m/core\registration.c ****             *bindingP = utils_stringToBinding(query->data + QUERY_BINDING_LEN, query->len - QUERY_B
 760:C:/Users/dtjld/Desktop/AIoT_software/LiteOS_Lab_overseas/LiteOS_Lab/iot_link/network/lwm2m/wakaama_lwm2m/core\registration.c ****         }
 761:C:/Users/dtjld/Desktop/AIoT_software/LiteOS_Lab_overseas/LiteOS_Lab/iot_link/network/lwm2m/wakaama_lwm2m/core\registration.c ****         query = query->next;
 762:C:/Users/dtjld/Desktop/AIoT_software/LiteOS_Lab_overseas/LiteOS_Lab/iot_link/network/lwm2m/wakaama_lwm2m/core\registration.c ****     }
 763:C:/Users/dtjld/Desktop/AIoT_software/LiteOS_Lab_overseas/LiteOS_Lab/iot_link/network/lwm2m/wakaama_lwm2m/core\registration.c **** 
 764:C:/Users/dtjld/Desktop/AIoT_software/LiteOS_Lab_overseas/LiteOS_Lab/iot_link/network/lwm2m/wakaama_lwm2m/core\registration.c ****     return 0;
 765:C:/Users/dtjld/Desktop/AIoT_software/LiteOS_Lab_overseas/LiteOS_Lab/iot_link/network/lwm2m/wakaama_lwm2m/core\registration.c **** 
 766:C:/Users/dtjld/Desktop/AIoT_software/LiteOS_Lab_overseas/LiteOS_Lab/iot_link/network/lwm2m/wakaama_lwm2m/core\registration.c **** error:
 767:C:/Users/dtjld/Desktop/AIoT_software/LiteOS_Lab_overseas/LiteOS_Lab/iot_link/network/lwm2m/wakaama_lwm2m/core\registration.c ****     if (*nameP != NULL) lwm2m_free(*nameP);
 768:C:/Users/dtjld/Desktop/AIoT_software/LiteOS_Lab_overseas/LiteOS_Lab/iot_link/network/lwm2m/wakaama_lwm2m/core\registration.c ****     if (*msisdnP != NULL) lwm2m_free(*msisdnP);
 769:C:/Users/dtjld/Desktop/AIoT_software/LiteOS_Lab_overseas/LiteOS_Lab/iot_link/network/lwm2m/wakaama_lwm2m/core\registration.c ****     if (*versionP != NULL) lwm2m_free(*versionP);
 770:C:/Users/dtjld/Desktop/AIoT_software/LiteOS_Lab_overseas/LiteOS_Lab/iot_link/network/lwm2m/wakaama_lwm2m/core\registration.c **** 
 771:C:/Users/dtjld/Desktop/AIoT_software/LiteOS_Lab_overseas/LiteOS_Lab/iot_link/network/lwm2m/wakaama_lwm2m/core\registration.c ****     return -1;
 772:C:/Users/dtjld/Desktop/AIoT_software/LiteOS_Lab_overseas/LiteOS_Lab/iot_link/network/lwm2m/wakaama_lwm2m/core\registration.c **** }
 773:C:/Users/dtjld/Desktop/AIoT_software/LiteOS_Lab_overseas/LiteOS_Lab/iot_link/network/lwm2m/wakaama_lwm2m/core\registration.c **** 
 774:C:/Users/dtjld/Desktop/AIoT_software/LiteOS_Lab_overseas/LiteOS_Lab/iot_link/network/lwm2m/wakaama_lwm2m/core\registration.c **** static uint16_t prv_splitLinkAttribute(uint8_t *data,
 775:C:/Users/dtjld/Desktop/AIoT_software/LiteOS_Lab_overseas/LiteOS_Lab/iot_link/network/lwm2m/wakaama_lwm2m/core\registration.c ****                                        uint16_t length,
 776:C:/Users/dtjld/Desktop/AIoT_software/LiteOS_Lab_overseas/LiteOS_Lab/iot_link/network/lwm2m/wakaama_lwm2m/core\registration.c ****                                        uint16_t *keyStart,
 777:C:/Users/dtjld/Desktop/AIoT_software/LiteOS_Lab_overseas/LiteOS_Lab/iot_link/network/lwm2m/wakaama_lwm2m/core\registration.c ****                                        uint16_t *keyLength,
 778:C:/Users/dtjld/Desktop/AIoT_software/LiteOS_Lab_overseas/LiteOS_Lab/iot_link/network/lwm2m/wakaama_lwm2m/core\registration.c ****                                        uint16_t *valueStart,
 779:C:/Users/dtjld/Desktop/AIoT_software/LiteOS_Lab_overseas/LiteOS_Lab/iot_link/network/lwm2m/wakaama_lwm2m/core\registration.c ****                                        uint16_t *valueLength)
 780:C:/Users/dtjld/Desktop/AIoT_software/LiteOS_Lab_overseas/LiteOS_Lab/iot_link/network/lwm2m/wakaama_lwm2m/core\registration.c **** {
 781:C:/Users/dtjld/Desktop/AIoT_software/LiteOS_Lab_overseas/LiteOS_Lab/iot_link/network/lwm2m/wakaama_lwm2m/core\registration.c ****     uint16_t index;
 782:C:/Users/dtjld/Desktop/AIoT_software/LiteOS_Lab_overseas/LiteOS_Lab/iot_link/network/lwm2m/wakaama_lwm2m/core\registration.c ****     uint16_t end;
 783:C:/Users/dtjld/Desktop/AIoT_software/LiteOS_Lab_overseas/LiteOS_Lab/iot_link/network/lwm2m/wakaama_lwm2m/core\registration.c **** 
 784:C:/Users/dtjld/Desktop/AIoT_software/LiteOS_Lab_overseas/LiteOS_Lab/iot_link/network/lwm2m/wakaama_lwm2m/core\registration.c ****     index = 0;
 785:C:/Users/dtjld/Desktop/AIoT_software/LiteOS_Lab_overseas/LiteOS_Lab/iot_link/network/lwm2m/wakaama_lwm2m/core\registration.c ****     while (index < length && data[index] == ' ') index++;
 786:C:/Users/dtjld/Desktop/AIoT_software/LiteOS_Lab_overseas/LiteOS_Lab/iot_link/network/lwm2m/wakaama_lwm2m/core\registration.c ****     if (index == length) return 0;
 787:C:/Users/dtjld/Desktop/AIoT_software/LiteOS_Lab_overseas/LiteOS_Lab/iot_link/network/lwm2m/wakaama_lwm2m/core\registration.c **** 
 788:C:/Users/dtjld/Desktop/AIoT_software/LiteOS_Lab_overseas/LiteOS_Lab/iot_link/network/lwm2m/wakaama_lwm2m/core\registration.c ****     if (data[index] == REG_ATTR_SEPARATOR)
