ARM GAS  C:\Users\dtjld\AppData\Local\Temp\cccTkoKh.s 			page 1


   1              		.cpu cortex-m4
   2              		.eabi_attribute 27, 1
   3              		.eabi_attribute 28, 1
   4              		.eabi_attribute 20, 1
   5              		.eabi_attribute 21, 1
   6              		.eabi_attribute 23, 3
   7              		.eabi_attribute 24, 1
   8              		.eabi_attribute 25, 1
   9              		.eabi_attribute 26, 1
  10              		.eabi_attribute 30, 6
  11              		.eabi_attribute 34, 1
  12              		.eabi_attribute 18, 4
  13              		.file	"ripemd160.c"
  14              		.text
  15              	.Ltext0:
  16              		.cfi_sections	.debug_frame
  17              		.section	.text.mbedtls_ripemd160_init,"ax",%progbits
  18              		.align	1
  19              		.global	mbedtls_ripemd160_init
  20              		.syntax unified
  21              		.thumb
  22              		.thumb_func
  23              		.fpu fpv4-sp-d16
  25              	mbedtls_ripemd160_init:
  26              	.LFB3:
  27              		.file 1 "C:/Users/dtjld/workspace/AIoT/src/LiteOS_Lab/iot_link/network/dtls/mbedtls/mbedtls-2.16.2
   1:C:/Users/dtjld/workspace/AIoT/src/LiteOS_Lab/iot_link/network/dtls/mbedtls/mbedtls-2.16.2/library\ripemd160.c **** /*
   2:C:/Users/dtjld/workspace/AIoT/src/LiteOS_Lab/iot_link/network/dtls/mbedtls/mbedtls-2.16.2/library\ripemd160.c ****  *  RIPE MD-160 implementation
   3:C:/Users/dtjld/workspace/AIoT/src/LiteOS_Lab/iot_link/network/dtls/mbedtls/mbedtls-2.16.2/library\ripemd160.c ****  *
   4:C:/Users/dtjld/workspace/AIoT/src/LiteOS_Lab/iot_link/network/dtls/mbedtls/mbedtls-2.16.2/library\ripemd160.c ****  *  Copyright (C) 2006-2015, ARM Limited, All Rights Reserved
   5:C:/Users/dtjld/workspace/AIoT/src/LiteOS_Lab/iot_link/network/dtls/mbedtls/mbedtls-2.16.2/library\ripemd160.c ****  *  SPDX-License-Identifier: Apache-2.0
   6:C:/Users/dtjld/workspace/AIoT/src/LiteOS_Lab/iot_link/network/dtls/mbedtls/mbedtls-2.16.2/library\ripemd160.c ****  *
   7:C:/Users/dtjld/workspace/AIoT/src/LiteOS_Lab/iot_link/network/dtls/mbedtls/mbedtls-2.16.2/library\ripemd160.c ****  *  Licensed under the Apache License, Version 2.0 (the "License"); you may
   8:C:/Users/dtjld/workspace/AIoT/src/LiteOS_Lab/iot_link/network/dtls/mbedtls/mbedtls-2.16.2/library\ripemd160.c ****  *  not use this file except in compliance with the License.
   9:C:/Users/dtjld/workspace/AIoT/src/LiteOS_Lab/iot_link/network/dtls/mbedtls/mbedtls-2.16.2/library\ripemd160.c ****  *  You may obtain a copy of the License at
  10:C:/Users/dtjld/workspace/AIoT/src/LiteOS_Lab/iot_link/network/dtls/mbedtls/mbedtls-2.16.2/library\ripemd160.c ****  *
  11:C:/Users/dtjld/workspace/AIoT/src/LiteOS_Lab/iot_link/network/dtls/mbedtls/mbedtls-2.16.2/library\ripemd160.c ****  *  http://www.apache.org/licenses/LICENSE-2.0
  12:C:/Users/dtjld/workspace/AIoT/src/LiteOS_Lab/iot_link/network/dtls/mbedtls/mbedtls-2.16.2/library\ripemd160.c ****  *
  13:C:/Users/dtjld/workspace/AIoT/src/LiteOS_Lab/iot_link/network/dtls/mbedtls/mbedtls-2.16.2/library\ripemd160.c ****  *  Unless required by applicable law or agreed to in writing, software
  14:C:/Users/dtjld/workspace/AIoT/src/LiteOS_Lab/iot_link/network/dtls/mbedtls/mbedtls-2.16.2/library\ripemd160.c ****  *  distributed under the License is distributed on an "AS IS" BASIS, WITHOUT
  15:C:/Users/dtjld/workspace/AIoT/src/LiteOS_Lab/iot_link/network/dtls/mbedtls/mbedtls-2.16.2/library\ripemd160.c ****  *  WARRANTIES OR CONDITIONS OF ANY KIND, either express or implied.
  16:C:/Users/dtjld/workspace/AIoT/src/LiteOS_Lab/iot_link/network/dtls/mbedtls/mbedtls-2.16.2/library\ripemd160.c ****  *  See the License for the specific language governing permissions and
  17:C:/Users/dtjld/workspace/AIoT/src/LiteOS_Lab/iot_link/network/dtls/mbedtls/mbedtls-2.16.2/library\ripemd160.c ****  *  limitations under the License.
  18:C:/Users/dtjld/workspace/AIoT/src/LiteOS_Lab/iot_link/network/dtls/mbedtls/mbedtls-2.16.2/library\ripemd160.c ****  *
  19:C:/Users/dtjld/workspace/AIoT/src/LiteOS_Lab/iot_link/network/dtls/mbedtls/mbedtls-2.16.2/library\ripemd160.c ****  *  This file is part of mbed TLS (https://tls.mbed.org)
  20:C:/Users/dtjld/workspace/AIoT/src/LiteOS_Lab/iot_link/network/dtls/mbedtls/mbedtls-2.16.2/library\ripemd160.c ****  */
  21:C:/Users/dtjld/workspace/AIoT/src/LiteOS_Lab/iot_link/network/dtls/mbedtls/mbedtls-2.16.2/library\ripemd160.c **** 
  22:C:/Users/dtjld/workspace/AIoT/src/LiteOS_Lab/iot_link/network/dtls/mbedtls/mbedtls-2.16.2/library\ripemd160.c **** /*
  23:C:/Users/dtjld/workspace/AIoT/src/LiteOS_Lab/iot_link/network/dtls/mbedtls/mbedtls-2.16.2/library\ripemd160.c ****  *  The RIPEMD-160 algorithm was designed by RIPE in 1996
  24:C:/Users/dtjld/workspace/AIoT/src/LiteOS_Lab/iot_link/network/dtls/mbedtls/mbedtls-2.16.2/library\ripemd160.c ****  *  http://homes.esat.kuleuven.be/~bosselae/mbedtls_ripemd160.html
  25:C:/Users/dtjld/workspace/AIoT/src/LiteOS_Lab/iot_link/network/dtls/mbedtls/mbedtls-2.16.2/library\ripemd160.c ****  *  http://ehash.iaik.tugraz.at/wiki/RIPEMD-160
  26:C:/Users/dtjld/workspace/AIoT/src/LiteOS_Lab/iot_link/network/dtls/mbedtls/mbedtls-2.16.2/library\ripemd160.c ****  */
  27:C:/Users/dtjld/workspace/AIoT/src/LiteOS_Lab/iot_link/network/dtls/mbedtls/mbedtls-2.16.2/library\ripemd160.c **** 
  28:C:/Users/dtjld/workspace/AIoT/src/LiteOS_Lab/iot_link/network/dtls/mbedtls/mbedtls-2.16.2/library\ripemd160.c **** #if !defined(MBEDTLS_CONFIG_FILE)
  29:C:/Users/dtjld/workspace/AIoT/src/LiteOS_Lab/iot_link/network/dtls/mbedtls/mbedtls-2.16.2/library\ripemd160.c **** #include "mbedtls/config.h"
  30:C:/Users/dtjld/workspace/AIoT/src/LiteOS_Lab/iot_link/network/dtls/mbedtls/mbedtls-2.16.2/library\ripemd160.c **** #else
  31:C:/Users/dtjld/workspace/AIoT/src/LiteOS_Lab/iot_link/network/dtls/mbedtls/mbedtls-2.16.2/library\ripemd160.c **** #include MBEDTLS_CONFIG_FILE
ARM GAS  C:\Users\dtjld\AppData\Local\Temp\cccTkoKh.s 			page 2


  32:C:/Users/dtjld/workspace/AIoT/src/LiteOS_Lab/iot_link/network/dtls/mbedtls/mbedtls-2.16.2/library\ripemd160.c **** #endif
  33:C:/Users/dtjld/workspace/AIoT/src/LiteOS_Lab/iot_link/network/dtls/mbedtls/mbedtls-2.16.2/library\ripemd160.c **** 
  34:C:/Users/dtjld/workspace/AIoT/src/LiteOS_Lab/iot_link/network/dtls/mbedtls/mbedtls-2.16.2/library\ripemd160.c **** #if defined(MBEDTLS_RIPEMD160_C)
  35:C:/Users/dtjld/workspace/AIoT/src/LiteOS_Lab/iot_link/network/dtls/mbedtls/mbedtls-2.16.2/library\ripemd160.c **** 
  36:C:/Users/dtjld/workspace/AIoT/src/LiteOS_Lab/iot_link/network/dtls/mbedtls/mbedtls-2.16.2/library\ripemd160.c **** #include "mbedtls/ripemd160.h"
  37:C:/Users/dtjld/workspace/AIoT/src/LiteOS_Lab/iot_link/network/dtls/mbedtls/mbedtls-2.16.2/library\ripemd160.c **** #include "mbedtls/platform_util.h"
  38:C:/Users/dtjld/workspace/AIoT/src/LiteOS_Lab/iot_link/network/dtls/mbedtls/mbedtls-2.16.2/library\ripemd160.c **** 
  39:C:/Users/dtjld/workspace/AIoT/src/LiteOS_Lab/iot_link/network/dtls/mbedtls/mbedtls-2.16.2/library\ripemd160.c **** #include <string.h>
  40:C:/Users/dtjld/workspace/AIoT/src/LiteOS_Lab/iot_link/network/dtls/mbedtls/mbedtls-2.16.2/library\ripemd160.c **** 
  41:C:/Users/dtjld/workspace/AIoT/src/LiteOS_Lab/iot_link/network/dtls/mbedtls/mbedtls-2.16.2/library\ripemd160.c **** #if defined(MBEDTLS_SELF_TEST)
  42:C:/Users/dtjld/workspace/AIoT/src/LiteOS_Lab/iot_link/network/dtls/mbedtls/mbedtls-2.16.2/library\ripemd160.c **** #if defined(MBEDTLS_PLATFORM_C)
  43:C:/Users/dtjld/workspace/AIoT/src/LiteOS_Lab/iot_link/network/dtls/mbedtls/mbedtls-2.16.2/library\ripemd160.c **** #include "mbedtls/platform.h"
  44:C:/Users/dtjld/workspace/AIoT/src/LiteOS_Lab/iot_link/network/dtls/mbedtls/mbedtls-2.16.2/library\ripemd160.c **** #else
  45:C:/Users/dtjld/workspace/AIoT/src/LiteOS_Lab/iot_link/network/dtls/mbedtls/mbedtls-2.16.2/library\ripemd160.c **** #include <stdio.h>
  46:C:/Users/dtjld/workspace/AIoT/src/LiteOS_Lab/iot_link/network/dtls/mbedtls/mbedtls-2.16.2/library\ripemd160.c **** #define mbedtls_printf printf
  47:C:/Users/dtjld/workspace/AIoT/src/LiteOS_Lab/iot_link/network/dtls/mbedtls/mbedtls-2.16.2/library\ripemd160.c **** #endif /* MBEDTLS_PLATFORM_C */
  48:C:/Users/dtjld/workspace/AIoT/src/LiteOS_Lab/iot_link/network/dtls/mbedtls/mbedtls-2.16.2/library\ripemd160.c **** #endif /* MBEDTLS_SELF_TEST */
  49:C:/Users/dtjld/workspace/AIoT/src/LiteOS_Lab/iot_link/network/dtls/mbedtls/mbedtls-2.16.2/library\ripemd160.c **** 
  50:C:/Users/dtjld/workspace/AIoT/src/LiteOS_Lab/iot_link/network/dtls/mbedtls/mbedtls-2.16.2/library\ripemd160.c **** #if !defined(MBEDTLS_RIPEMD160_ALT)
  51:C:/Users/dtjld/workspace/AIoT/src/LiteOS_Lab/iot_link/network/dtls/mbedtls/mbedtls-2.16.2/library\ripemd160.c **** 
  52:C:/Users/dtjld/workspace/AIoT/src/LiteOS_Lab/iot_link/network/dtls/mbedtls/mbedtls-2.16.2/library\ripemd160.c **** /*
  53:C:/Users/dtjld/workspace/AIoT/src/LiteOS_Lab/iot_link/network/dtls/mbedtls/mbedtls-2.16.2/library\ripemd160.c ****  * 32-bit integer manipulation macros (little endian)
  54:C:/Users/dtjld/workspace/AIoT/src/LiteOS_Lab/iot_link/network/dtls/mbedtls/mbedtls-2.16.2/library\ripemd160.c ****  */
  55:C:/Users/dtjld/workspace/AIoT/src/LiteOS_Lab/iot_link/network/dtls/mbedtls/mbedtls-2.16.2/library\ripemd160.c **** #ifndef GET_UINT32_LE
  56:C:/Users/dtjld/workspace/AIoT/src/LiteOS_Lab/iot_link/network/dtls/mbedtls/mbedtls-2.16.2/library\ripemd160.c **** #define GET_UINT32_LE(n,b,i)                            \
  57:C:/Users/dtjld/workspace/AIoT/src/LiteOS_Lab/iot_link/network/dtls/mbedtls/mbedtls-2.16.2/library\ripemd160.c **** {                                                       \
  58:C:/Users/dtjld/workspace/AIoT/src/LiteOS_Lab/iot_link/network/dtls/mbedtls/mbedtls-2.16.2/library\ripemd160.c ****     (n) = ( (uint32_t) (b)[(i)    ]       )             \
  59:C:/Users/dtjld/workspace/AIoT/src/LiteOS_Lab/iot_link/network/dtls/mbedtls/mbedtls-2.16.2/library\ripemd160.c ****         | ( (uint32_t) (b)[(i) + 1] <<  8 )             \
  60:C:/Users/dtjld/workspace/AIoT/src/LiteOS_Lab/iot_link/network/dtls/mbedtls/mbedtls-2.16.2/library\ripemd160.c ****         | ( (uint32_t) (b)[(i) + 2] << 16 )             \
  61:C:/Users/dtjld/workspace/AIoT/src/LiteOS_Lab/iot_link/network/dtls/mbedtls/mbedtls-2.16.2/library\ripemd160.c ****         | ( (uint32_t) (b)[(i) + 3] << 24 );            \
  62:C:/Users/dtjld/workspace/AIoT/src/LiteOS_Lab/iot_link/network/dtls/mbedtls/mbedtls-2.16.2/library\ripemd160.c **** }
  63:C:/Users/dtjld/workspace/AIoT/src/LiteOS_Lab/iot_link/network/dtls/mbedtls/mbedtls-2.16.2/library\ripemd160.c **** #endif
  64:C:/Users/dtjld/workspace/AIoT/src/LiteOS_Lab/iot_link/network/dtls/mbedtls/mbedtls-2.16.2/library\ripemd160.c **** 
  65:C:/Users/dtjld/workspace/AIoT/src/LiteOS_Lab/iot_link/network/dtls/mbedtls/mbedtls-2.16.2/library\ripemd160.c **** #ifndef PUT_UINT32_LE
  66:C:/Users/dtjld/workspace/AIoT/src/LiteOS_Lab/iot_link/network/dtls/mbedtls/mbedtls-2.16.2/library\ripemd160.c **** #define PUT_UINT32_LE(n,b,i)                                    \
  67:C:/Users/dtjld/workspace/AIoT/src/LiteOS_Lab/iot_link/network/dtls/mbedtls/mbedtls-2.16.2/library\ripemd160.c **** {                                                               \
  68:C:/Users/dtjld/workspace/AIoT/src/LiteOS_Lab/iot_link/network/dtls/mbedtls/mbedtls-2.16.2/library\ripemd160.c ****     (b)[(i)    ] = (unsigned char) ( ( (n)       ) & 0xFF );    \
  69:C:/Users/dtjld/workspace/AIoT/src/LiteOS_Lab/iot_link/network/dtls/mbedtls/mbedtls-2.16.2/library\ripemd160.c ****     (b)[(i) + 1] = (unsigned char) ( ( (n) >>  8 ) & 0xFF );    \
  70:C:/Users/dtjld/workspace/AIoT/src/LiteOS_Lab/iot_link/network/dtls/mbedtls/mbedtls-2.16.2/library\ripemd160.c ****     (b)[(i) + 2] = (unsigned char) ( ( (n) >> 16 ) & 0xFF );    \
  71:C:/Users/dtjld/workspace/AIoT/src/LiteOS_Lab/iot_link/network/dtls/mbedtls/mbedtls-2.16.2/library\ripemd160.c ****     (b)[(i) + 3] = (unsigned char) ( ( (n) >> 24 ) & 0xFF );    \
  72:C:/Users/dtjld/workspace/AIoT/src/LiteOS_Lab/iot_link/network/dtls/mbedtls/mbedtls-2.16.2/library\ripemd160.c **** }
  73:C:/Users/dtjld/workspace/AIoT/src/LiteOS_Lab/iot_link/network/dtls/mbedtls/mbedtls-2.16.2/library\ripemd160.c **** #endif
  74:C:/Users/dtjld/workspace/AIoT/src/LiteOS_Lab/iot_link/network/dtls/mbedtls/mbedtls-2.16.2/library\ripemd160.c **** 
  75:C:/Users/dtjld/workspace/AIoT/src/LiteOS_Lab/iot_link/network/dtls/mbedtls/mbedtls-2.16.2/library\ripemd160.c **** void mbedtls_ripemd160_init( mbedtls_ripemd160_context *ctx )
  76:C:/Users/dtjld/workspace/AIoT/src/LiteOS_Lab/iot_link/network/dtls/mbedtls/mbedtls-2.16.2/library\ripemd160.c **** {
  28              		.loc 1 76 0
  29              		.cfi_startproc
  30              		@ args = 0, pretend = 0, frame = 8
  31              		@ frame_needed = 1, uses_anonymous_args = 0
  32 0000 80B5     		push	{r7, lr}
  33              	.LCFI0:
  34              		.cfi_def_cfa_offset 8
  35              		.cfi_offset 7, -8
  36              		.cfi_offset 14, -4
  37 0002 82B0     		sub	sp, sp, #8
  38              	.LCFI1:
  39              		.cfi_def_cfa_offset 16
ARM GAS  C:\Users\dtjld\AppData\Local\Temp\cccTkoKh.s 			page 3


  40 0004 00AF     		add	r7, sp, #0
  41              	.LCFI2:
  42              		.cfi_def_cfa_register 7
  43 0006 7860     		str	r0, [r7, #4]
  77:C:/Users/dtjld/workspace/AIoT/src/LiteOS_Lab/iot_link/network/dtls/mbedtls/mbedtls-2.16.2/library\ripemd160.c ****     memset( ctx, 0, sizeof( mbedtls_ripemd160_context ) );
  44              		.loc 1 77 0
  45 0008 5C22     		movs	r2, #92
  46 000a 0021     		movs	r1, #0
  47 000c 7868     		ldr	r0, [r7, #4]
  48 000e FFF7FEFF 		bl	memset
  78:C:/Users/dtjld/workspace/AIoT/src/LiteOS_Lab/iot_link/network/dtls/mbedtls/mbedtls-2.16.2/library\ripemd160.c **** }
  49              		.loc 1 78 0
  50 0012 00BF     		nop
  51 0014 0837     		adds	r7, r7, #8
  52              	.LCFI3:
  53              		.cfi_def_cfa_offset 8
  54 0016 BD46     		mov	sp, r7
  55              	.LCFI4:
  56              		.cfi_def_cfa_register 13
  57              		@ sp needed
  58 0018 80BD     		pop	{r7, pc}
  59              		.cfi_endproc
  60              	.LFE3:
  62              		.section	.text.mbedtls_ripemd160_free,"ax",%progbits
  63              		.align	1
  64              		.global	mbedtls_ripemd160_free
  65              		.syntax unified
  66              		.thumb
  67              		.thumb_func
  68              		.fpu fpv4-sp-d16
  70              	mbedtls_ripemd160_free:
  71              	.LFB4:
  79:C:/Users/dtjld/workspace/AIoT/src/LiteOS_Lab/iot_link/network/dtls/mbedtls/mbedtls-2.16.2/library\ripemd160.c **** 
  80:C:/Users/dtjld/workspace/AIoT/src/LiteOS_Lab/iot_link/network/dtls/mbedtls/mbedtls-2.16.2/library\ripemd160.c **** void mbedtls_ripemd160_free( mbedtls_ripemd160_context *ctx )
  81:C:/Users/dtjld/workspace/AIoT/src/LiteOS_Lab/iot_link/network/dtls/mbedtls/mbedtls-2.16.2/library\ripemd160.c **** {
  72              		.loc 1 81 0
  73              		.cfi_startproc
  74              		@ args = 0, pretend = 0, frame = 8
  75              		@ frame_needed = 1, uses_anonymous_args = 0
  76 0000 80B5     		push	{r7, lr}
  77              	.LCFI5:
  78              		.cfi_def_cfa_offset 8
  79              		.cfi_offset 7, -8
  80              		.cfi_offset 14, -4
  81 0002 82B0     		sub	sp, sp, #8
  82              	.LCFI6:
  83              		.cfi_def_cfa_offset 16
  84 0004 00AF     		add	r7, sp, #0
  85              	.LCFI7:
  86              		.cfi_def_cfa_register 7
  87 0006 7860     		str	r0, [r7, #4]
  82:C:/Users/dtjld/workspace/AIoT/src/LiteOS_Lab/iot_link/network/dtls/mbedtls/mbedtls-2.16.2/library\ripemd160.c ****     if( ctx == NULL )
  88              		.loc 1 82 0
  89 0008 7B68     		ldr	r3, [r7, #4]
  90 000a 002B     		cmp	r3, #0
  91 000c 04D0     		beq	.L5
  83:C:/Users/dtjld/workspace/AIoT/src/LiteOS_Lab/iot_link/network/dtls/mbedtls/mbedtls-2.16.2/library\ripemd160.c ****         return;
ARM GAS  C:\Users\dtjld\AppData\Local\Temp\cccTkoKh.s 			page 4


  84:C:/Users/dtjld/workspace/AIoT/src/LiteOS_Lab/iot_link/network/dtls/mbedtls/mbedtls-2.16.2/library\ripemd160.c **** 
  85:C:/Users/dtjld/workspace/AIoT/src/LiteOS_Lab/iot_link/network/dtls/mbedtls/mbedtls-2.16.2/library\ripemd160.c ****     mbedtls_platform_zeroize( ctx, sizeof( mbedtls_ripemd160_context ) );
  92              		.loc 1 85 0
  93 000e 5C21     		movs	r1, #92
  94 0010 7868     		ldr	r0, [r7, #4]
  95 0012 FFF7FEFF 		bl	mbedtls_platform_zeroize
  96 0016 00E0     		b	.L2
  97              	.L5:
  83:C:/Users/dtjld/workspace/AIoT/src/LiteOS_Lab/iot_link/network/dtls/mbedtls/mbedtls-2.16.2/library\ripemd160.c ****         return;
  98              		.loc 1 83 0
  99 0018 00BF     		nop
 100              	.L2:
  86:C:/Users/dtjld/workspace/AIoT/src/LiteOS_Lab/iot_link/network/dtls/mbedtls/mbedtls-2.16.2/library\ripemd160.c **** }
 101              		.loc 1 86 0
 102 001a 0837     		adds	r7, r7, #8
 103              	.LCFI8:
 104              		.cfi_def_cfa_offset 8
 105 001c BD46     		mov	sp, r7
 106              	.LCFI9:
 107              		.cfi_def_cfa_register 13
 108              		@ sp needed
 109 001e 80BD     		pop	{r7, pc}
 110              		.cfi_endproc
 111              	.LFE4:
 113              		.section	.text.mbedtls_ripemd160_clone,"ax",%progbits
 114              		.align	1
 115              		.global	mbedtls_ripemd160_clone
 116              		.syntax unified
 117              		.thumb
 118              		.thumb_func
 119              		.fpu fpv4-sp-d16
 121              	mbedtls_ripemd160_clone:
 122              	.LFB5:
  87:C:/Users/dtjld/workspace/AIoT/src/LiteOS_Lab/iot_link/network/dtls/mbedtls/mbedtls-2.16.2/library\ripemd160.c **** 
  88:C:/Users/dtjld/workspace/AIoT/src/LiteOS_Lab/iot_link/network/dtls/mbedtls/mbedtls-2.16.2/library\ripemd160.c **** void mbedtls_ripemd160_clone( mbedtls_ripemd160_context *dst,
  89:C:/Users/dtjld/workspace/AIoT/src/LiteOS_Lab/iot_link/network/dtls/mbedtls/mbedtls-2.16.2/library\ripemd160.c ****                         const mbedtls_ripemd160_context *src )
  90:C:/Users/dtjld/workspace/AIoT/src/LiteOS_Lab/iot_link/network/dtls/mbedtls/mbedtls-2.16.2/library\ripemd160.c **** {
 123              		.loc 1 90 0
 124              		.cfi_startproc
 125              		@ args = 0, pretend = 0, frame = 8
 126              		@ frame_needed = 1, uses_anonymous_args = 0
 127 0000 80B5     		push	{r7, lr}
 128              	.LCFI10:
 129              		.cfi_def_cfa_offset 8
 130              		.cfi_offset 7, -8
 131              		.cfi_offset 14, -4
 132 0002 82B0     		sub	sp, sp, #8
 133              	.LCFI11:
 134              		.cfi_def_cfa_offset 16
 135 0004 00AF     		add	r7, sp, #0
 136              	.LCFI12:
 137              		.cfi_def_cfa_register 7
 138 0006 7860     		str	r0, [r7, #4]
 139 0008 3960     		str	r1, [r7]
  91:C:/Users/dtjld/workspace/AIoT/src/LiteOS_Lab/iot_link/network/dtls/mbedtls/mbedtls-2.16.2/library\ripemd160.c ****     *dst = *src;
 140              		.loc 1 91 0
 141 000a 7A68     		ldr	r2, [r7, #4]
ARM GAS  C:\Users\dtjld\AppData\Local\Temp\cccTkoKh.s 			page 5


 142 000c 3B68     		ldr	r3, [r7]
 143 000e 1046     		mov	r0, r2
 144 0010 1946     		mov	r1, r3
 145 0012 5C23     		movs	r3, #92
 146 0014 1A46     		mov	r2, r3
 147 0016 FFF7FEFF 		bl	memcpy
  92:C:/Users/dtjld/workspace/AIoT/src/LiteOS_Lab/iot_link/network/dtls/mbedtls/mbedtls-2.16.2/library\ripemd160.c **** }
 148              		.loc 1 92 0
 149 001a 00BF     		nop
 150 001c 0837     		adds	r7, r7, #8
 151              	.LCFI13:
 152              		.cfi_def_cfa_offset 8
 153 001e BD46     		mov	sp, r7
 154              	.LCFI14:
 155              		.cfi_def_cfa_register 13
 156              		@ sp needed
 157 0020 80BD     		pop	{r7, pc}
 158              		.cfi_endproc
 159              	.LFE5:
 161              		.section	.text.mbedtls_ripemd160_starts_ret,"ax",%progbits
 162              		.align	1
 163              		.global	mbedtls_ripemd160_starts_ret
 164              		.syntax unified
 165              		.thumb
 166              		.thumb_func
 167              		.fpu fpv4-sp-d16
 169              	mbedtls_ripemd160_starts_ret:
 170              	.LFB6:
  93:C:/Users/dtjld/workspace/AIoT/src/LiteOS_Lab/iot_link/network/dtls/mbedtls/mbedtls-2.16.2/library\ripemd160.c **** 
  94:C:/Users/dtjld/workspace/AIoT/src/LiteOS_Lab/iot_link/network/dtls/mbedtls/mbedtls-2.16.2/library\ripemd160.c **** /*
  95:C:/Users/dtjld/workspace/AIoT/src/LiteOS_Lab/iot_link/network/dtls/mbedtls/mbedtls-2.16.2/library\ripemd160.c ****  * RIPEMD-160 context setup
  96:C:/Users/dtjld/workspace/AIoT/src/LiteOS_Lab/iot_link/network/dtls/mbedtls/mbedtls-2.16.2/library\ripemd160.c ****  */
  97:C:/Users/dtjld/workspace/AIoT/src/LiteOS_Lab/iot_link/network/dtls/mbedtls/mbedtls-2.16.2/library\ripemd160.c **** int mbedtls_ripemd160_starts_ret( mbedtls_ripemd160_context *ctx )
  98:C:/Users/dtjld/workspace/AIoT/src/LiteOS_Lab/iot_link/network/dtls/mbedtls/mbedtls-2.16.2/library\ripemd160.c **** {
 171              		.loc 1 98 0
 172              		.cfi_startproc
 173              		@ args = 0, pretend = 0, frame = 8
 174              		@ frame_needed = 1, uses_anonymous_args = 0
 175              		@ link register save eliminated.
 176 0000 80B4     		push	{r7}
 177              	.LCFI15:
 178              		.cfi_def_cfa_offset 4
 179              		.cfi_offset 7, -4
 180 0002 83B0     		sub	sp, sp, #12
 181              	.LCFI16:
 182              		.cfi_def_cfa_offset 16
 183 0004 00AF     		add	r7, sp, #0
 184              	.LCFI17:
 185              		.cfi_def_cfa_register 7
 186 0006 7860     		str	r0, [r7, #4]
  99:C:/Users/dtjld/workspace/AIoT/src/LiteOS_Lab/iot_link/network/dtls/mbedtls/mbedtls-2.16.2/library\ripemd160.c ****     ctx->total[0] = 0;
 187              		.loc 1 99 0
 188 0008 7B68     		ldr	r3, [r7, #4]
 189 000a 0022     		movs	r2, #0
 190 000c 1A60     		str	r2, [r3]
 100:C:/Users/dtjld/workspace/AIoT/src/LiteOS_Lab/iot_link/network/dtls/mbedtls/mbedtls-2.16.2/library\ripemd160.c ****     ctx->total[1] = 0;
 191              		.loc 1 100 0
ARM GAS  C:\Users\dtjld\AppData\Local\Temp\cccTkoKh.s 			page 6


 192 000e 7B68     		ldr	r3, [r7, #4]
 193 0010 0022     		movs	r2, #0
 194 0012 5A60     		str	r2, [r3, #4]
 101:C:/Users/dtjld/workspace/AIoT/src/LiteOS_Lab/iot_link/network/dtls/mbedtls/mbedtls-2.16.2/library\ripemd160.c **** 
 102:C:/Users/dtjld/workspace/AIoT/src/LiteOS_Lab/iot_link/network/dtls/mbedtls/mbedtls-2.16.2/library\ripemd160.c ****     ctx->state[0] = 0x67452301;
 195              		.loc 1 102 0
 196 0014 7B68     		ldr	r3, [r7, #4]
 197 0016 0A4A     		ldr	r2, .L9
 198 0018 9A60     		str	r2, [r3, #8]
 103:C:/Users/dtjld/workspace/AIoT/src/LiteOS_Lab/iot_link/network/dtls/mbedtls/mbedtls-2.16.2/library\ripemd160.c ****     ctx->state[1] = 0xEFCDAB89;
 199              		.loc 1 103 0
 200 001a 7B68     		ldr	r3, [r7, #4]
 201 001c 094A     		ldr	r2, .L9+4
 202 001e DA60     		str	r2, [r3, #12]
 104:C:/Users/dtjld/workspace/AIoT/src/LiteOS_Lab/iot_link/network/dtls/mbedtls/mbedtls-2.16.2/library\ripemd160.c ****     ctx->state[2] = 0x98BADCFE;
 203              		.loc 1 104 0
 204 0020 7B68     		ldr	r3, [r7, #4]
 205 0022 094A     		ldr	r2, .L9+8
 206 0024 1A61     		str	r2, [r3, #16]
 105:C:/Users/dtjld/workspace/AIoT/src/LiteOS_Lab/iot_link/network/dtls/mbedtls/mbedtls-2.16.2/library\ripemd160.c ****     ctx->state[3] = 0x10325476;
 207              		.loc 1 105 0
 208 0026 7B68     		ldr	r3, [r7, #4]
 209 0028 084A     		ldr	r2, .L9+12
 210 002a 5A61     		str	r2, [r3, #20]
 106:C:/Users/dtjld/workspace/AIoT/src/LiteOS_Lab/iot_link/network/dtls/mbedtls/mbedtls-2.16.2/library\ripemd160.c ****     ctx->state[4] = 0xC3D2E1F0;
 211              		.loc 1 106 0
 212 002c 7B68     		ldr	r3, [r7, #4]
 213 002e 084A     		ldr	r2, .L9+16
 214 0030 9A61     		str	r2, [r3, #24]
 107:C:/Users/dtjld/workspace/AIoT/src/LiteOS_Lab/iot_link/network/dtls/mbedtls/mbedtls-2.16.2/library\ripemd160.c **** 
 108:C:/Users/dtjld/workspace/AIoT/src/LiteOS_Lab/iot_link/network/dtls/mbedtls/mbedtls-2.16.2/library\ripemd160.c ****     return( 0 );
 215              		.loc 1 108 0
 216 0032 0023     		movs	r3, #0
 109:C:/Users/dtjld/workspace/AIoT/src/LiteOS_Lab/iot_link/network/dtls/mbedtls/mbedtls-2.16.2/library\ripemd160.c **** }
 217              		.loc 1 109 0
 218 0034 1846     		mov	r0, r3
 219 0036 0C37     		adds	r7, r7, #12
 220              	.LCFI18:
 221              		.cfi_def_cfa_offset 4
 222 0038 BD46     		mov	sp, r7
 223              	.LCFI19:
 224              		.cfi_def_cfa_register 13
 225              		@ sp needed
 226 003a 5DF8047B 		ldr	r7, [sp], #4
 227              	.LCFI20:
 228              		.cfi_restore 7
 229              		.cfi_def_cfa_offset 0
 230 003e 7047     		bx	lr
 231              	.L10:
 232              		.align	2
 233              	.L9:
 234 0040 01234567 		.word	1732584193
 235 0044 89ABCDEF 		.word	-271733879
 236 0048 FEDCBA98 		.word	-1732584194
 237 004c 76543210 		.word	271733878
 238 0050 F0E1D2C3 		.word	-1009589776
 239              		.cfi_endproc
ARM GAS  C:\Users\dtjld\AppData\Local\Temp\cccTkoKh.s 			page 7


 240              	.LFE6:
 242              		.section	.text.mbedtls_ripemd160_starts,"ax",%progbits
 243              		.align	1
 244              		.global	mbedtls_ripemd160_starts
 245              		.syntax unified
 246              		.thumb
 247              		.thumb_func
 248              		.fpu fpv4-sp-d16
 250              	mbedtls_ripemd160_starts:
 251              	.LFB7:
 110:C:/Users/dtjld/workspace/AIoT/src/LiteOS_Lab/iot_link/network/dtls/mbedtls/mbedtls-2.16.2/library\ripemd160.c **** 
 111:C:/Users/dtjld/workspace/AIoT/src/LiteOS_Lab/iot_link/network/dtls/mbedtls/mbedtls-2.16.2/library\ripemd160.c **** #if !defined(MBEDTLS_DEPRECATED_REMOVED)
 112:C:/Users/dtjld/workspace/AIoT/src/LiteOS_Lab/iot_link/network/dtls/mbedtls/mbedtls-2.16.2/library\ripemd160.c **** void mbedtls_ripemd160_starts( mbedtls_ripemd160_context *ctx )
 113:C:/Users/dtjld/workspace/AIoT/src/LiteOS_Lab/iot_link/network/dtls/mbedtls/mbedtls-2.16.2/library\ripemd160.c **** {
 252              		.loc 1 113 0
 253              		.cfi_startproc
 254              		@ args = 0, pretend = 0, frame = 8
 255              		@ frame_needed = 1, uses_anonymous_args = 0
 256 0000 80B5     		push	{r7, lr}
 257              	.LCFI21:
 258              		.cfi_def_cfa_offset 8
 259              		.cfi_offset 7, -8
 260              		.cfi_offset 14, -4
 261 0002 82B0     		sub	sp, sp, #8
 262              	.LCFI22:
 263              		.cfi_def_cfa_offset 16
 264 0004 00AF     		add	r7, sp, #0
 265              	.LCFI23:
 266              		.cfi_def_cfa_register 7
 267 0006 7860     		str	r0, [r7, #4]
 114:C:/Users/dtjld/workspace/AIoT/src/LiteOS_Lab/iot_link/network/dtls/mbedtls/mbedtls-2.16.2/library\ripemd160.c ****     mbedtls_ripemd160_starts_ret( ctx );
 268              		.loc 1 114 0
 269 0008 7868     		ldr	r0, [r7, #4]
 270 000a FFF7FEFF 		bl	mbedtls_ripemd160_starts_ret
 115:C:/Users/dtjld/workspace/AIoT/src/LiteOS_Lab/iot_link/network/dtls/mbedtls/mbedtls-2.16.2/library\ripemd160.c **** }
 271              		.loc 1 115 0
 272 000e 00BF     		nop
 273 0010 0837     		adds	r7, r7, #8
 274              	.LCFI24:
 275              		.cfi_def_cfa_offset 8
 276 0012 BD46     		mov	sp, r7
 277              	.LCFI25:
 278              		.cfi_def_cfa_register 13
 279              		@ sp needed
 280 0014 80BD     		pop	{r7, pc}
 281              		.cfi_endproc
 282              	.LFE7:
 284              		.section	.text.mbedtls_internal_ripemd160_process,"ax",%progbits
 285              		.align	1
 286              		.global	mbedtls_internal_ripemd160_process
 287              		.syntax unified
 288              		.thumb
 289              		.thumb_func
 290              		.fpu fpv4-sp-d16
 292              	mbedtls_internal_ripemd160_process:
 293              	.LFB8:
 116:C:/Users/dtjld/workspace/AIoT/src/LiteOS_Lab/iot_link/network/dtls/mbedtls/mbedtls-2.16.2/library\ripemd160.c **** #endif
ARM GAS  C:\Users\dtjld\AppData\Local\Temp\cccTkoKh.s 			page 8


 117:C:/Users/dtjld/workspace/AIoT/src/LiteOS_Lab/iot_link/network/dtls/mbedtls/mbedtls-2.16.2/library\ripemd160.c **** 
 118:C:/Users/dtjld/workspace/AIoT/src/LiteOS_Lab/iot_link/network/dtls/mbedtls/mbedtls-2.16.2/library\ripemd160.c **** #if !defined(MBEDTLS_RIPEMD160_PROCESS_ALT)
 119:C:/Users/dtjld/workspace/AIoT/src/LiteOS_Lab/iot_link/network/dtls/mbedtls/mbedtls-2.16.2/library\ripemd160.c **** /*
 120:C:/Users/dtjld/workspace/AIoT/src/LiteOS_Lab/iot_link/network/dtls/mbedtls/mbedtls-2.16.2/library\ripemd160.c ****  * Process one block
 121:C:/Users/dtjld/workspace/AIoT/src/LiteOS_Lab/iot_link/network/dtls/mbedtls/mbedtls-2.16.2/library\ripemd160.c ****  */
 122:C:/Users/dtjld/workspace/AIoT/src/LiteOS_Lab/iot_link/network/dtls/mbedtls/mbedtls-2.16.2/library\ripemd160.c **** int mbedtls_internal_ripemd160_process( mbedtls_ripemd160_context *ctx,
 123:C:/Users/dtjld/workspace/AIoT/src/LiteOS_Lab/iot_link/network/dtls/mbedtls/mbedtls-2.16.2/library\ripemd160.c ****                                         const unsigned char data[64] )
 124:C:/Users/dtjld/workspace/AIoT/src/LiteOS_Lab/iot_link/network/dtls/mbedtls/mbedtls-2.16.2/library\ripemd160.c **** {
 294              		.loc 1 124 0
 295              		.cfi_startproc
 296              		@ args = 0, pretend = 0, frame = 112
 297              		@ frame_needed = 1, uses_anonymous_args = 0
 298              		@ link register save eliminated.
 299 0000 80B4     		push	{r7}
 300              	.LCFI26:
 301              		.cfi_def_cfa_offset 4
 302              		.cfi_offset 7, -4
 303 0002 9DB0     		sub	sp, sp, #116
 304              	.LCFI27:
 305              		.cfi_def_cfa_offset 120
 306 0004 00AF     		add	r7, sp, #0
 307              	.LCFI28:
 308              		.cfi_def_cfa_register 7
 309 0006 7860     		str	r0, [r7, #4]
 310 0008 3960     		str	r1, [r7]
 125:C:/Users/dtjld/workspace/AIoT/src/LiteOS_Lab/iot_link/network/dtls/mbedtls/mbedtls-2.16.2/library\ripemd160.c ****     uint32_t A, B, C, D, E, Ap, Bp, Cp, Dp, Ep, X[16];
 126:C:/Users/dtjld/workspace/AIoT/src/LiteOS_Lab/iot_link/network/dtls/mbedtls/mbedtls-2.16.2/library\ripemd160.c **** 
 127:C:/Users/dtjld/workspace/AIoT/src/LiteOS_Lab/iot_link/network/dtls/mbedtls/mbedtls-2.16.2/library\ripemd160.c ****     GET_UINT32_LE( X[ 0], data,  0 );
 311              		.loc 1 127 0
 312 000a 3B68     		ldr	r3, [r7]
 313 000c 1B78     		ldrb	r3, [r3]	@ zero_extendqisi2
 314 000e 1A46     		mov	r2, r3
 315 0010 3B68     		ldr	r3, [r7]
 316 0012 0133     		adds	r3, r3, #1
 317 0014 1B78     		ldrb	r3, [r3]	@ zero_extendqisi2
 318 0016 1B02     		lsls	r3, r3, #8
 319 0018 1A43     		orrs	r2, r2, r3
 320 001a 3B68     		ldr	r3, [r7]
 321 001c 0233     		adds	r3, r3, #2
 322 001e 1B78     		ldrb	r3, [r3]	@ zero_extendqisi2
 323 0020 1B04     		lsls	r3, r3, #16
 324 0022 1A43     		orrs	r2, r2, r3
 325 0024 3B68     		ldr	r3, [r7]
 326 0026 0333     		adds	r3, r3, #3
 327 0028 1B78     		ldrb	r3, [r3]	@ zero_extendqisi2
 328 002a 1B06     		lsls	r3, r3, #24
 329 002c 1343     		orrs	r3, r3, r2
 330 002e BB60     		str	r3, [r7, #8]
 128:C:/Users/dtjld/workspace/AIoT/src/LiteOS_Lab/iot_link/network/dtls/mbedtls/mbedtls-2.16.2/library\ripemd160.c ****     GET_UINT32_LE( X[ 1], data,  4 );
 331              		.loc 1 128 0
 332 0030 3B68     		ldr	r3, [r7]
 333 0032 0433     		adds	r3, r3, #4
 334 0034 1B78     		ldrb	r3, [r3]	@ zero_extendqisi2
 335 0036 1A46     		mov	r2, r3
 336 0038 3B68     		ldr	r3, [r7]
 337 003a 0533     		adds	r3, r3, #5
 338 003c 1B78     		ldrb	r3, [r3]	@ zero_extendqisi2
ARM GAS  C:\Users\dtjld\AppData\Local\Temp\cccTkoKh.s 			page 9


 339 003e 1B02     		lsls	r3, r3, #8
 340 0040 1A43     		orrs	r2, r2, r3
 341 0042 3B68     		ldr	r3, [r7]
 342 0044 0633     		adds	r3, r3, #6
 343 0046 1B78     		ldrb	r3, [r3]	@ zero_extendqisi2
 344 0048 1B04     		lsls	r3, r3, #16
 345 004a 1A43     		orrs	r2, r2, r3
 346 004c 3B68     		ldr	r3, [r7]
 347 004e 0733     		adds	r3, r3, #7
 348 0050 1B78     		ldrb	r3, [r3]	@ zero_extendqisi2
 349 0052 1B06     		lsls	r3, r3, #24
 350 0054 1343     		orrs	r3, r3, r2
 351 0056 FB60     		str	r3, [r7, #12]
 129:C:/Users/dtjld/workspace/AIoT/src/LiteOS_Lab/iot_link/network/dtls/mbedtls/mbedtls-2.16.2/library\ripemd160.c ****     GET_UINT32_LE( X[ 2], data,  8 );
 352              		.loc 1 129 0
 353 0058 3B68     		ldr	r3, [r7]
 354 005a 0833     		adds	r3, r3, #8
 355 005c 1B78     		ldrb	r3, [r3]	@ zero_extendqisi2
 356 005e 1A46     		mov	r2, r3
 357 0060 3B68     		ldr	r3, [r7]
 358 0062 0933     		adds	r3, r3, #9
 359 0064 1B78     		ldrb	r3, [r3]	@ zero_extendqisi2
 360 0066 1B02     		lsls	r3, r3, #8
 361 0068 1A43     		orrs	r2, r2, r3
 362 006a 3B68     		ldr	r3, [r7]
 363 006c 0A33     		adds	r3, r3, #10
 364 006e 1B78     		ldrb	r3, [r3]	@ zero_extendqisi2
 365 0070 1B04     		lsls	r3, r3, #16
 366 0072 1A43     		orrs	r2, r2, r3
 367 0074 3B68     		ldr	r3, [r7]
 368 0076 0B33     		adds	r3, r3, #11
 369 0078 1B78     		ldrb	r3, [r3]	@ zero_extendqisi2
 370 007a 1B06     		lsls	r3, r3, #24
 371 007c 1343     		orrs	r3, r3, r2
 372 007e 3B61     		str	r3, [r7, #16]
 130:C:/Users/dtjld/workspace/AIoT/src/LiteOS_Lab/iot_link/network/dtls/mbedtls/mbedtls-2.16.2/library\ripemd160.c ****     GET_UINT32_LE( X[ 3], data, 12 );
 373              		.loc 1 130 0
 374 0080 3B68     		ldr	r3, [r7]
 375 0082 0C33     		adds	r3, r3, #12
 376 0084 1B78     		ldrb	r3, [r3]	@ zero_extendqisi2
 377 0086 1A46     		mov	r2, r3
 378 0088 3B68     		ldr	r3, [r7]
 379 008a 0D33     		adds	r3, r3, #13
 380 008c 1B78     		ldrb	r3, [r3]	@ zero_extendqisi2
 381 008e 1B02     		lsls	r3, r3, #8
 382 0090 1A43     		orrs	r2, r2, r3
 383 0092 3B68     		ldr	r3, [r7]
 384 0094 0E33     		adds	r3, r3, #14
 385 0096 1B78     		ldrb	r3, [r3]	@ zero_extendqisi2
 386 0098 1B04     		lsls	r3, r3, #16
 387 009a 1A43     		orrs	r2, r2, r3
 388 009c 3B68     		ldr	r3, [r7]
 389 009e 0F33     		adds	r3, r3, #15
 390 00a0 1B78     		ldrb	r3, [r3]	@ zero_extendqisi2
 391 00a2 1B06     		lsls	r3, r3, #24
 392 00a4 1343     		orrs	r3, r3, r2
 393 00a6 7B61     		str	r3, [r7, #20]
ARM GAS  C:\Users\dtjld\AppData\Local\Temp\cccTkoKh.s 			page 10


 131:C:/Users/dtjld/workspace/AIoT/src/LiteOS_Lab/iot_link/network/dtls/mbedtls/mbedtls-2.16.2/library\ripemd160.c ****     GET_UINT32_LE( X[ 4], data, 16 );
 394              		.loc 1 131 0
 395 00a8 3B68     		ldr	r3, [r7]
 396 00aa 1033     		adds	r3, r3, #16
 397 00ac 1B78     		ldrb	r3, [r3]	@ zero_extendqisi2
 398 00ae 1A46     		mov	r2, r3
 399 00b0 3B68     		ldr	r3, [r7]
 400 00b2 1133     		adds	r3, r3, #17
 401 00b4 1B78     		ldrb	r3, [r3]	@ zero_extendqisi2
 402 00b6 1B02     		lsls	r3, r3, #8
 403 00b8 1A43     		orrs	r2, r2, r3
 404 00ba 3B68     		ldr	r3, [r7]
 405 00bc 1233     		adds	r3, r3, #18
 406 00be 1B78     		ldrb	r3, [r3]	@ zero_extendqisi2
 407 00c0 1B04     		lsls	r3, r3, #16
 408 00c2 1A43     		orrs	r2, r2, r3
 409 00c4 3B68     		ldr	r3, [r7]
 410 00c6 1333     		adds	r3, r3, #19
 411 00c8 1B78     		ldrb	r3, [r3]	@ zero_extendqisi2
 412 00ca 1B06     		lsls	r3, r3, #24
 413 00cc 1343     		orrs	r3, r3, r2
 414 00ce BB61     		str	r3, [r7, #24]
 132:C:/Users/dtjld/workspace/AIoT/src/LiteOS_Lab/iot_link/network/dtls/mbedtls/mbedtls-2.16.2/library\ripemd160.c ****     GET_UINT32_LE( X[ 5], data, 20 );
 415              		.loc 1 132 0
 416 00d0 3B68     		ldr	r3, [r7]
 417 00d2 1433     		adds	r3, r3, #20
 418 00d4 1B78     		ldrb	r3, [r3]	@ zero_extendqisi2
 419 00d6 1A46     		mov	r2, r3
 420 00d8 3B68     		ldr	r3, [r7]
 421 00da 1533     		adds	r3, r3, #21
 422 00dc 1B78     		ldrb	r3, [r3]	@ zero_extendqisi2
 423 00de 1B02     		lsls	r3, r3, #8
 424 00e0 1A43     		orrs	r2, r2, r3
 425 00e2 3B68     		ldr	r3, [r7]
 426 00e4 1633     		adds	r3, r3, #22
 427 00e6 1B78     		ldrb	r3, [r3]	@ zero_extendqisi2
 428 00e8 1B04     		lsls	r3, r3, #16
 429 00ea 1A43     		orrs	r2, r2, r3
 430 00ec 3B68     		ldr	r3, [r7]
 431 00ee 1733     		adds	r3, r3, #23
 432 00f0 1B78     		ldrb	r3, [r3]	@ zero_extendqisi2
 433 00f2 1B06     		lsls	r3, r3, #24
 434 00f4 1343     		orrs	r3, r3, r2
 435 00f6 FB61     		str	r3, [r7, #28]
 133:C:/Users/dtjld/workspace/AIoT/src/LiteOS_Lab/iot_link/network/dtls/mbedtls/mbedtls-2.16.2/library\ripemd160.c ****     GET_UINT32_LE( X[ 6], data, 24 );
 436              		.loc 1 133 0
 437 00f8 3B68     		ldr	r3, [r7]
 438 00fa 1833     		adds	r3, r3, #24
 439 00fc 1B78     		ldrb	r3, [r3]	@ zero_extendqisi2
 440 00fe 1A46     		mov	r2, r3
 441 0100 3B68     		ldr	r3, [r7]
 442 0102 1933     		adds	r3, r3, #25
 443 0104 1B78     		ldrb	r3, [r3]	@ zero_extendqisi2
 444 0106 1B02     		lsls	r3, r3, #8
 445 0108 1A43     		orrs	r2, r2, r3
 446 010a 3B68     		ldr	r3, [r7]
 447 010c 1A33     		adds	r3, r3, #26
ARM GAS  C:\Users\dtjld\AppData\Local\Temp\cccTkoKh.s 			page 11


 448 010e 1B78     		ldrb	r3, [r3]	@ zero_extendqisi2
 449 0110 1B04     		lsls	r3, r3, #16
 450 0112 1A43     		orrs	r2, r2, r3
 451 0114 3B68     		ldr	r3, [r7]
 452 0116 1B33     		adds	r3, r3, #27
 453 0118 1B78     		ldrb	r3, [r3]	@ zero_extendqisi2
 454 011a 1B06     		lsls	r3, r3, #24
 455 011c 1343     		orrs	r3, r3, r2
 456 011e 3B62     		str	r3, [r7, #32]
 134:C:/Users/dtjld/workspace/AIoT/src/LiteOS_Lab/iot_link/network/dtls/mbedtls/mbedtls-2.16.2/library\ripemd160.c ****     GET_UINT32_LE( X[ 7], data, 28 );
 457              		.loc 1 134 0
 458 0120 3B68     		ldr	r3, [r7]
 459 0122 1C33     		adds	r3, r3, #28
 460 0124 1B78     		ldrb	r3, [r3]	@ zero_extendqisi2
 461 0126 1A46     		mov	r2, r3
 462 0128 3B68     		ldr	r3, [r7]
 463 012a 1D33     		adds	r3, r3, #29
 464 012c 1B78     		ldrb	r3, [r3]	@ zero_extendqisi2
 465 012e 1B02     		lsls	r3, r3, #8
 466 0130 1A43     		orrs	r2, r2, r3
 467 0132 3B68     		ldr	r3, [r7]
 468 0134 1E33     		adds	r3, r3, #30
 469 0136 1B78     		ldrb	r3, [r3]	@ zero_extendqisi2
 470 0138 1B04     		lsls	r3, r3, #16
 471 013a 1A43     		orrs	r2, r2, r3
 472 013c 3B68     		ldr	r3, [r7]
 473 013e 1F33     		adds	r3, r3, #31
 474 0140 1B78     		ldrb	r3, [r3]	@ zero_extendqisi2
 475 0142 1B06     		lsls	r3, r3, #24
 476 0144 1343     		orrs	r3, r3, r2
 477 0146 7B62     		str	r3, [r7, #36]
 135:C:/Users/dtjld/workspace/AIoT/src/LiteOS_Lab/iot_link/network/dtls/mbedtls/mbedtls-2.16.2/library\ripemd160.c ****     GET_UINT32_LE( X[ 8], data, 32 );
 478              		.loc 1 135 0
 479 0148 3B68     		ldr	r3, [r7]
 480 014a 2033     		adds	r3, r3, #32
 481 014c 1B78     		ldrb	r3, [r3]	@ zero_extendqisi2
 482 014e 1A46     		mov	r2, r3
 483 0150 3B68     		ldr	r3, [r7]
 484 0152 2133     		adds	r3, r3, #33
 485 0154 1B78     		ldrb	r3, [r3]	@ zero_extendqisi2
 486 0156 1B02     		lsls	r3, r3, #8
 487 0158 1A43     		orrs	r2, r2, r3
 488 015a 3B68     		ldr	r3, [r7]
 489 015c 2233     		adds	r3, r3, #34
 490 015e 1B78     		ldrb	r3, [r3]	@ zero_extendqisi2
 491 0160 1B04     		lsls	r3, r3, #16
 492 0162 1A43     		orrs	r2, r2, r3
 493 0164 3B68     		ldr	r3, [r7]
 494 0166 2333     		adds	r3, r3, #35
 495 0168 1B78     		ldrb	r3, [r3]	@ zero_extendqisi2
 496 016a 1B06     		lsls	r3, r3, #24
 497 016c 1343     		orrs	r3, r3, r2
 498 016e BB62     		str	r3, [r7, #40]
 136:C:/Users/dtjld/workspace/AIoT/src/LiteOS_Lab/iot_link/network/dtls/mbedtls/mbedtls-2.16.2/library\ripemd160.c ****     GET_UINT32_LE( X[ 9], data, 36 );
 499              		.loc 1 136 0
 500 0170 3B68     		ldr	r3, [r7]
 501 0172 2433     		adds	r3, r3, #36
ARM GAS  C:\Users\dtjld\AppData\Local\Temp\cccTkoKh.s 			page 12


 502 0174 1B78     		ldrb	r3, [r3]	@ zero_extendqisi2
 503 0176 1A46     		mov	r2, r3
 504 0178 3B68     		ldr	r3, [r7]
 505 017a 2533     		adds	r3, r3, #37
 506 017c 1B78     		ldrb	r3, [r3]	@ zero_extendqisi2
 507 017e 1B02     		lsls	r3, r3, #8
 508 0180 1A43     		orrs	r2, r2, r3
 509 0182 3B68     		ldr	r3, [r7]
 510 0184 2633     		adds	r3, r3, #38
 511 0186 1B78     		ldrb	r3, [r3]	@ zero_extendqisi2
 512 0188 1B04     		lsls	r3, r3, #16
 513 018a 1A43     		orrs	r2, r2, r3
 514 018c 3B68     		ldr	r3, [r7]
 515 018e 2733     		adds	r3, r3, #39
 516 0190 1B78     		ldrb	r3, [r3]	@ zero_extendqisi2
 517 0192 1B06     		lsls	r3, r3, #24
 518 0194 1343     		orrs	r3, r3, r2
 519 0196 FB62     		str	r3, [r7, #44]
 137:C:/Users/dtjld/workspace/AIoT/src/LiteOS_Lab/iot_link/network/dtls/mbedtls/mbedtls-2.16.2/library\ripemd160.c ****     GET_UINT32_LE( X[10], data, 40 );
 520              		.loc 1 137 0
 521 0198 3B68     		ldr	r3, [r7]
 522 019a 2833     		adds	r3, r3, #40
 523 019c 1B78     		ldrb	r3, [r3]	@ zero_extendqisi2
 524 019e 1A46     		mov	r2, r3
 525 01a0 3B68     		ldr	r3, [r7]
 526 01a2 2933     		adds	r3, r3, #41
 527 01a4 1B78     		ldrb	r3, [r3]	@ zero_extendqisi2
 528 01a6 1B02     		lsls	r3, r3, #8
 529 01a8 1A43     		orrs	r2, r2, r3
 530 01aa 3B68     		ldr	r3, [r7]
 531 01ac 2A33     		adds	r3, r3, #42
 532 01ae 1B78     		ldrb	r3, [r3]	@ zero_extendqisi2
 533 01b0 1B04     		lsls	r3, r3, #16
 534 01b2 1A43     		orrs	r2, r2, r3
 535 01b4 3B68     		ldr	r3, [r7]
 536 01b6 2B33     		adds	r3, r3, #43
 537 01b8 1B78     		ldrb	r3, [r3]	@ zero_extendqisi2
 538 01ba 1B06     		lsls	r3, r3, #24
 539 01bc 1343     		orrs	r3, r3, r2
 540 01be 3B63     		str	r3, [r7, #48]
 138:C:/Users/dtjld/workspace/AIoT/src/LiteOS_Lab/iot_link/network/dtls/mbedtls/mbedtls-2.16.2/library\ripemd160.c ****     GET_UINT32_LE( X[11], data, 44 );
 541              		.loc 1 138 0
 542 01c0 3B68     		ldr	r3, [r7]
 543 01c2 2C33     		adds	r3, r3, #44
 544 01c4 1B78     		ldrb	r3, [r3]	@ zero_extendqisi2
 545 01c6 1A46     		mov	r2, r3
 546 01c8 3B68     		ldr	r3, [r7]
 547 01ca 2D33     		adds	r3, r3, #45
 548 01cc 1B78     		ldrb	r3, [r3]	@ zero_extendqisi2
 549 01ce 1B02     		lsls	r3, r3, #8
 550 01d0 1A43     		orrs	r2, r2, r3
 551 01d2 3B68     		ldr	r3, [r7]
 552 01d4 2E33     		adds	r3, r3, #46
 553 01d6 1B78     		ldrb	r3, [r3]	@ zero_extendqisi2
 554 01d8 1B04     		lsls	r3, r3, #16
 555 01da 1A43     		orrs	r2, r2, r3
 556 01dc 3B68     		ldr	r3, [r7]
ARM GAS  C:\Users\dtjld\AppData\Local\Temp\cccTkoKh.s 			page 13


 557 01de 2F33     		adds	r3, r3, #47
 558 01e0 1B78     		ldrb	r3, [r3]	@ zero_extendqisi2
 559 01e2 1B06     		lsls	r3, r3, #24
 560 01e4 1343     		orrs	r3, r3, r2
 561 01e6 7B63     		str	r3, [r7, #52]
 139:C:/Users/dtjld/workspace/AIoT/src/LiteOS_Lab/iot_link/network/dtls/mbedtls/mbedtls-2.16.2/library\ripemd160.c ****     GET_UINT32_LE( X[12], data, 48 );
 562              		.loc 1 139 0
 563 01e8 3B68     		ldr	r3, [r7]
 564 01ea 3033     		adds	r3, r3, #48
 565 01ec 1B78     		ldrb	r3, [r3]	@ zero_extendqisi2
 566 01ee 1A46     		mov	r2, r3
 567 01f0 3B68     		ldr	r3, [r7]
 568 01f2 3133     		adds	r3, r3, #49
 569 01f4 1B78     		ldrb	r3, [r3]	@ zero_extendqisi2
 570 01f6 1B02     		lsls	r3, r3, #8
 571 01f8 1A43     		orrs	r2, r2, r3
 572 01fa 3B68     		ldr	r3, [r7]
 573 01fc 3233     		adds	r3, r3, #50
 574 01fe 1B78     		ldrb	r3, [r3]	@ zero_extendqisi2
 575 0200 1B04     		lsls	r3, r3, #16
 576 0202 1A43     		orrs	r2, r2, r3
 577 0204 3B68     		ldr	r3, [r7]
 578 0206 3333     		adds	r3, r3, #51
 579 0208 1B78     		ldrb	r3, [r3]	@ zero_extendqisi2
 580 020a 1B06     		lsls	r3, r3, #24
 581 020c 1343     		orrs	r3, r3, r2
 582 020e BB63     		str	r3, [r7, #56]
 140:C:/Users/dtjld/workspace/AIoT/src/LiteOS_Lab/iot_link/network/dtls/mbedtls/mbedtls-2.16.2/library\ripemd160.c ****     GET_UINT32_LE( X[13], data, 52 );
 583              		.loc 1 140 0
 584 0210 3B68     		ldr	r3, [r7]
 585 0212 3433     		adds	r3, r3, #52
 586 0214 1B78     		ldrb	r3, [r3]	@ zero_extendqisi2
 587 0216 1A46     		mov	r2, r3
 588 0218 3B68     		ldr	r3, [r7]
 589 021a 3533     		adds	r3, r3, #53
 590 021c 1B78     		ldrb	r3, [r3]	@ zero_extendqisi2
 591 021e 1B02     		lsls	r3, r3, #8
 592 0220 1A43     		orrs	r2, r2, r3
 593 0222 3B68     		ldr	r3, [r7]
 594 0224 3633     		adds	r3, r3, #54
 595 0226 1B78     		ldrb	r3, [r3]	@ zero_extendqisi2
 596 0228 1B04     		lsls	r3, r3, #16
 597 022a 1A43     		orrs	r2, r2, r3
 598 022c 3B68     		ldr	r3, [r7]
 599 022e 3733     		adds	r3, r3, #55
 600 0230 1B78     		ldrb	r3, [r3]	@ zero_extendqisi2
 601 0232 1B06     		lsls	r3, r3, #24
 602 0234 1343     		orrs	r3, r3, r2
 603 0236 FB63     		str	r3, [r7, #60]
 141:C:/Users/dtjld/workspace/AIoT/src/LiteOS_Lab/iot_link/network/dtls/mbedtls/mbedtls-2.16.2/library\ripemd160.c ****     GET_UINT32_LE( X[14], data, 56 );
 604              		.loc 1 141 0
 605 0238 3B68     		ldr	r3, [r7]
 606 023a 3833     		adds	r3, r3, #56
 607 023c 1B78     		ldrb	r3, [r3]	@ zero_extendqisi2
 608 023e 1A46     		mov	r2, r3
 609 0240 3B68     		ldr	r3, [r7]
 610 0242 3933     		adds	r3, r3, #57
ARM GAS  C:\Users\dtjld\AppData\Local\Temp\cccTkoKh.s 			page 14


 611 0244 1B78     		ldrb	r3, [r3]	@ zero_extendqisi2
 612 0246 1B02     		lsls	r3, r3, #8
 613 0248 1A43     		orrs	r2, r2, r3
 614 024a 3B68     		ldr	r3, [r7]
 615 024c 3A33     		adds	r3, r3, #58
 616 024e 1B78     		ldrb	r3, [r3]	@ zero_extendqisi2
 617 0250 1B04     		lsls	r3, r3, #16
 618 0252 1A43     		orrs	r2, r2, r3
 619 0254 3B68     		ldr	r3, [r7]
 620 0256 3B33     		adds	r3, r3, #59
 621 0258 1B78     		ldrb	r3, [r3]	@ zero_extendqisi2
 622 025a 1B06     		lsls	r3, r3, #24
 623 025c 1343     		orrs	r3, r3, r2
 624 025e 3B64     		str	r3, [r7, #64]
 142:C:/Users/dtjld/workspace/AIoT/src/LiteOS_Lab/iot_link/network/dtls/mbedtls/mbedtls-2.16.2/library\ripemd160.c ****     GET_UINT32_LE( X[15], data, 60 );
 625              		.loc 1 142 0
 626 0260 3B68     		ldr	r3, [r7]
 627 0262 3C33     		adds	r3, r3, #60
 628 0264 1B78     		ldrb	r3, [r3]	@ zero_extendqisi2
 629 0266 1A46     		mov	r2, r3
 630 0268 3B68     		ldr	r3, [r7]
 631 026a 3D33     		adds	r3, r3, #61
 632 026c 1B78     		ldrb	r3, [r3]	@ zero_extendqisi2
 633 026e 1B02     		lsls	r3, r3, #8
 634 0270 1A43     		orrs	r2, r2, r3
 635 0272 3B68     		ldr	r3, [r7]
 636 0274 3E33     		adds	r3, r3, #62
 637 0276 1B78     		ldrb	r3, [r3]	@ zero_extendqisi2
 638 0278 1B04     		lsls	r3, r3, #16
 639 027a 1A43     		orrs	r2, r2, r3
 640 027c 3B68     		ldr	r3, [r7]
 641 027e 3F33     		adds	r3, r3, #63
 642 0280 1B78     		ldrb	r3, [r3]	@ zero_extendqisi2
 643 0282 1B06     		lsls	r3, r3, #24
 644 0284 1343     		orrs	r3, r3, r2
 645 0286 7B64     		str	r3, [r7, #68]
 143:C:/Users/dtjld/workspace/AIoT/src/LiteOS_Lab/iot_link/network/dtls/mbedtls/mbedtls-2.16.2/library\ripemd160.c **** 
 144:C:/Users/dtjld/workspace/AIoT/src/LiteOS_Lab/iot_link/network/dtls/mbedtls/mbedtls-2.16.2/library\ripemd160.c ****     A = Ap = ctx->state[0];
 646              		.loc 1 144 0
 647 0288 7B68     		ldr	r3, [r7, #4]
 648 028a 9B68     		ldr	r3, [r3, #8]
 649 028c FB66     		str	r3, [r7, #108]
 650 028e FB6E     		ldr	r3, [r7, #108]
 651 0290 BB66     		str	r3, [r7, #104]
 145:C:/Users/dtjld/workspace/AIoT/src/LiteOS_Lab/iot_link/network/dtls/mbedtls/mbedtls-2.16.2/library\ripemd160.c ****     B = Bp = ctx->state[1];
 652              		.loc 1 145 0
 653 0292 7B68     		ldr	r3, [r7, #4]
 654 0294 DB68     		ldr	r3, [r3, #12]
 655 0296 7B66     		str	r3, [r7, #100]
 656 0298 7B6E     		ldr	r3, [r7, #100]
 657 029a 3B66     		str	r3, [r7, #96]
 146:C:/Users/dtjld/workspace/AIoT/src/LiteOS_Lab/iot_link/network/dtls/mbedtls/mbedtls-2.16.2/library\ripemd160.c ****     C = Cp = ctx->state[2];
 658              		.loc 1 146 0
 659 029c 7B68     		ldr	r3, [r7, #4]
 660 029e 1B69     		ldr	r3, [r3, #16]
 661 02a0 FB65     		str	r3, [r7, #92]
 662 02a2 FB6D     		ldr	r3, [r7, #92]
ARM GAS  C:\Users\dtjld\AppData\Local\Temp\cccTkoKh.s 			page 15


 663 02a4 BB65     		str	r3, [r7, #88]
 147:C:/Users/dtjld/workspace/AIoT/src/LiteOS_Lab/iot_link/network/dtls/mbedtls/mbedtls-2.16.2/library\ripemd160.c ****     D = Dp = ctx->state[3];
 664              		.loc 1 147 0
 665 02a6 7B68     		ldr	r3, [r7, #4]
 666 02a8 5B69     		ldr	r3, [r3, #20]
 667 02aa 7B65     		str	r3, [r7, #84]
 668 02ac 7B6D     		ldr	r3, [r7, #84]
 669 02ae 3B65     		str	r3, [r7, #80]
 148:C:/Users/dtjld/workspace/AIoT/src/LiteOS_Lab/iot_link/network/dtls/mbedtls/mbedtls-2.16.2/library\ripemd160.c ****     E = Ep = ctx->state[4];
 670              		.loc 1 148 0
 671 02b0 7B68     		ldr	r3, [r7, #4]
 672 02b2 9B69     		ldr	r3, [r3, #24]
 673 02b4 FB64     		str	r3, [r7, #76]
 674 02b6 FB6C     		ldr	r3, [r7, #76]
 675 02b8 BB64     		str	r3, [r7, #72]
 149:C:/Users/dtjld/workspace/AIoT/src/LiteOS_Lab/iot_link/network/dtls/mbedtls/mbedtls-2.16.2/library\ripemd160.c **** 
 150:C:/Users/dtjld/workspace/AIoT/src/LiteOS_Lab/iot_link/network/dtls/mbedtls/mbedtls-2.16.2/library\ripemd160.c **** #define F1( x, y, z )   ( (x) ^ (y) ^ (z) )
 151:C:/Users/dtjld/workspace/AIoT/src/LiteOS_Lab/iot_link/network/dtls/mbedtls/mbedtls-2.16.2/library\ripemd160.c **** #define F2( x, y, z )   ( ( (x) & (y) ) | ( ~(x) & (z) ) )
 152:C:/Users/dtjld/workspace/AIoT/src/LiteOS_Lab/iot_link/network/dtls/mbedtls/mbedtls-2.16.2/library\ripemd160.c **** #define F3( x, y, z )   ( ( (x) | ~(y) ) ^ (z) )
 153:C:/Users/dtjld/workspace/AIoT/src/LiteOS_Lab/iot_link/network/dtls/mbedtls/mbedtls-2.16.2/library\ripemd160.c **** #define F4( x, y, z )   ( ( (x) & (z) ) | ( (y) & ~(z) ) )
 154:C:/Users/dtjld/workspace/AIoT/src/LiteOS_Lab/iot_link/network/dtls/mbedtls/mbedtls-2.16.2/library\ripemd160.c **** #define F5( x, y, z )   ( (x) ^ ( (y) | ~(z) ) )
 155:C:/Users/dtjld/workspace/AIoT/src/LiteOS_Lab/iot_link/network/dtls/mbedtls/mbedtls-2.16.2/library\ripemd160.c **** 
 156:C:/Users/dtjld/workspace/AIoT/src/LiteOS_Lab/iot_link/network/dtls/mbedtls/mbedtls-2.16.2/library\ripemd160.c **** #define S( x, n ) ( ( (x) << (n) ) | ( (x) >> (32 - (n)) ) )
 157:C:/Users/dtjld/workspace/AIoT/src/LiteOS_Lab/iot_link/network/dtls/mbedtls/mbedtls-2.16.2/library\ripemd160.c **** 
 158:C:/Users/dtjld/workspace/AIoT/src/LiteOS_Lab/iot_link/network/dtls/mbedtls/mbedtls-2.16.2/library\ripemd160.c **** #define P( a, b, c, d, e, r, s, f, k )                \
 159:C:/Users/dtjld/workspace/AIoT/src/LiteOS_Lab/iot_link/network/dtls/mbedtls/mbedtls-2.16.2/library\ripemd160.c ****     do                                                \
 160:C:/Users/dtjld/workspace/AIoT/src/LiteOS_Lab/iot_link/network/dtls/mbedtls/mbedtls-2.16.2/library\ripemd160.c ****     {                                                 \
 161:C:/Users/dtjld/workspace/AIoT/src/LiteOS_Lab/iot_link/network/dtls/mbedtls/mbedtls-2.16.2/library\ripemd160.c ****         (a) += f( (b), (c), (d) ) + X[r] + (k);       \
 162:C:/Users/dtjld/workspace/AIoT/src/LiteOS_Lab/iot_link/network/dtls/mbedtls/mbedtls-2.16.2/library\ripemd160.c ****         (a) = S( (a), (s) ) + (e);                    \
 163:C:/Users/dtjld/workspace/AIoT/src/LiteOS_Lab/iot_link/network/dtls/mbedtls/mbedtls-2.16.2/library\ripemd160.c ****         (c) = S( (c), 10 );                           \
 164:C:/Users/dtjld/workspace/AIoT/src/LiteOS_Lab/iot_link/network/dtls/mbedtls/mbedtls-2.16.2/library\ripemd160.c ****     } while( 0 )
 165:C:/Users/dtjld/workspace/AIoT/src/LiteOS_Lab/iot_link/network/dtls/mbedtls/mbedtls-2.16.2/library\ripemd160.c **** 
 166:C:/Users/dtjld/workspace/AIoT/src/LiteOS_Lab/iot_link/network/dtls/mbedtls/mbedtls-2.16.2/library\ripemd160.c **** #define P2( a, b, c, d, e, r, s, rp, sp )                               \
 167:C:/Users/dtjld/workspace/AIoT/src/LiteOS_Lab/iot_link/network/dtls/mbedtls/mbedtls-2.16.2/library\ripemd160.c ****     do                                                                  \
 168:C:/Users/dtjld/workspace/AIoT/src/LiteOS_Lab/iot_link/network/dtls/mbedtls/mbedtls-2.16.2/library\ripemd160.c ****     {                                                                   \
 169:C:/Users/dtjld/workspace/AIoT/src/LiteOS_Lab/iot_link/network/dtls/mbedtls/mbedtls-2.16.2/library\ripemd160.c ****         P( (a), (b), (c), (d), (e), (r), (s), F, K );                   \
 170:C:/Users/dtjld/workspace/AIoT/src/LiteOS_Lab/iot_link/network/dtls/mbedtls/mbedtls-2.16.2/library\ripemd160.c ****         P( a ## p, b ## p, c ## p, d ## p, e ## p,                      \
 171:C:/Users/dtjld/workspace/AIoT/src/LiteOS_Lab/iot_link/network/dtls/mbedtls/mbedtls-2.16.2/library\ripemd160.c ****            (rp), (sp), Fp, Kp );                                        \
 172:C:/Users/dtjld/workspace/AIoT/src/LiteOS_Lab/iot_link/network/dtls/mbedtls/mbedtls-2.16.2/library\ripemd160.c ****     } while( 0 )
 173:C:/Users/dtjld/workspace/AIoT/src/LiteOS_Lab/iot_link/network/dtls/mbedtls/mbedtls-2.16.2/library\ripemd160.c **** 
 174:C:/Users/dtjld/workspace/AIoT/src/LiteOS_Lab/iot_link/network/dtls/mbedtls/mbedtls-2.16.2/library\ripemd160.c **** #define F   F1
 175:C:/Users/dtjld/workspace/AIoT/src/LiteOS_Lab/iot_link/network/dtls/mbedtls/mbedtls-2.16.2/library\ripemd160.c **** #define K   0x00000000
 176:C:/Users/dtjld/workspace/AIoT/src/LiteOS_Lab/iot_link/network/dtls/mbedtls/mbedtls-2.16.2/library\ripemd160.c **** #define Fp  F5
 177:C:/Users/dtjld/workspace/AIoT/src/LiteOS_Lab/iot_link/network/dtls/mbedtls/mbedtls-2.16.2/library\ripemd160.c **** #define Kp  0x50A28BE6
 178:C:/Users/dtjld/workspace/AIoT/src/LiteOS_Lab/iot_link/network/dtls/mbedtls/mbedtls-2.16.2/library\ripemd160.c ****     P2( A, B, C, D, E,  0, 11,  5,  8 );
 676              		.loc 1 178 0
 677 02ba 3A6E     		ldr	r2, [r7, #96]
 678 02bc BB6D     		ldr	r3, [r7, #88]
 679 02be 5A40     		eors	r2, r2, r3
 680 02c0 3B6D     		ldr	r3, [r7, #80]
 681 02c2 5A40     		eors	r2, r2, r3
 682 02c4 BB68     		ldr	r3, [r7, #8]
 683 02c6 1344     		add	r3, r3, r2
 684 02c8 BA6E     		ldr	r2, [r7, #104]
 685 02ca 1344     		add	r3, r3, r2
 686 02cc BB66     		str	r3, [r7, #104]
 687 02ce BB6E     		ldr	r3, [r7, #104]
ARM GAS  C:\Users\dtjld\AppData\Local\Temp\cccTkoKh.s 			page 16


 688 02d0 4FEA7353 		ror	r3, r3, #21
 689 02d4 BA6C     		ldr	r2, [r7, #72]
 690 02d6 1344     		add	r3, r3, r2
 691 02d8 BB66     		str	r3, [r7, #104]
 692 02da BB6D     		ldr	r3, [r7, #88]
 693 02dc 4FEAB353 		ror	r3, r3, #22
 694 02e0 BB65     		str	r3, [r7, #88]
 695 02e2 7B6D     		ldr	r3, [r7, #84]
 696 02e4 DA43     		mvns	r2, r3
 697 02e6 FB6D     		ldr	r3, [r7, #92]
 698 02e8 1A43     		orrs	r2, r2, r3
 699 02ea 7B6E     		ldr	r3, [r7, #100]
 700 02ec 5A40     		eors	r2, r2, r3
 701 02ee FB69     		ldr	r3, [r7, #28]
 702 02f0 1A44     		add	r2, r2, r3
 703 02f2 FB6E     		ldr	r3, [r7, #108]
 704 02f4 1A44     		add	r2, r2, r3
 705 02f6 A54B     		ldr	r3, .L14
 706 02f8 1344     		add	r3, r3, r2
 707 02fa FB66     		str	r3, [r7, #108]
 708 02fc FB6E     		ldr	r3, [r7, #108]
 709 02fe 4FEA3363 		ror	r3, r3, #24
 710 0302 FA6C     		ldr	r2, [r7, #76]
 711 0304 1344     		add	r3, r3, r2
 712 0306 FB66     		str	r3, [r7, #108]
 713 0308 FB6D     		ldr	r3, [r7, #92]
 714 030a 4FEAB353 		ror	r3, r3, #22
 715 030e FB65     		str	r3, [r7, #92]
 179:C:/Users/dtjld/workspace/AIoT/src/LiteOS_Lab/iot_link/network/dtls/mbedtls/mbedtls-2.16.2/library\ripemd160.c ****     P2( E, A, B, C, D,  1, 14, 14,  9 );
 716              		.loc 1 179 0
 717 0310 BA6E     		ldr	r2, [r7, #104]
 718 0312 3B6E     		ldr	r3, [r7, #96]
 719 0314 5A40     		eors	r2, r2, r3
 720 0316 BB6D     		ldr	r3, [r7, #88]
 721 0318 5A40     		eors	r2, r2, r3
 722 031a FB68     		ldr	r3, [r7, #12]
 723 031c 1344     		add	r3, r3, r2
 724 031e BA6C     		ldr	r2, [r7, #72]
 725 0320 1344     		add	r3, r3, r2
 726 0322 BB64     		str	r3, [r7, #72]
 727 0324 BB6C     		ldr	r3, [r7, #72]
 728 0326 4FEAB343 		ror	r3, r3, #18
 729 032a 3A6D     		ldr	r2, [r7, #80]
 730 032c 1344     		add	r3, r3, r2
 731 032e BB64     		str	r3, [r7, #72]
 732 0330 3B6E     		ldr	r3, [r7, #96]
 733 0332 4FEAB353 		ror	r3, r3, #22
 734 0336 3B66     		str	r3, [r7, #96]
 735 0338 FB6D     		ldr	r3, [r7, #92]
 736 033a DA43     		mvns	r2, r3
 737 033c 7B6E     		ldr	r3, [r7, #100]
 738 033e 1A43     		orrs	r2, r2, r3
 739 0340 FB6E     		ldr	r3, [r7, #108]
 740 0342 5A40     		eors	r2, r2, r3
 741 0344 3B6C     		ldr	r3, [r7, #64]
 742 0346 1A44     		add	r2, r2, r3
 743 0348 FB6C     		ldr	r3, [r7, #76]
ARM GAS  C:\Users\dtjld\AppData\Local\Temp\cccTkoKh.s 			page 17


 744 034a 1A44     		add	r2, r2, r3
 745 034c 8F4B     		ldr	r3, .L14
 746 034e 1344     		add	r3, r3, r2
 747 0350 FB64     		str	r3, [r7, #76]
 748 0352 FB6C     		ldr	r3, [r7, #76]
 749 0354 4FEAF353 		ror	r3, r3, #23
 750 0358 7A6D     		ldr	r2, [r7, #84]
 751 035a 1344     		add	r3, r3, r2
 752 035c FB64     		str	r3, [r7, #76]
 753 035e 7B6E     		ldr	r3, [r7, #100]
 754 0360 4FEAB353 		ror	r3, r3, #22
 755 0364 7B66     		str	r3, [r7, #100]
 180:C:/Users/dtjld/workspace/AIoT/src/LiteOS_Lab/iot_link/network/dtls/mbedtls/mbedtls-2.16.2/library\ripemd160.c ****     P2( D, E, A, B, C,  2, 15,  7,  9 );
 756              		.loc 1 180 0
 757 0366 BA6C     		ldr	r2, [r7, #72]
 758 0368 BB6E     		ldr	r3, [r7, #104]
 759 036a 5A40     		eors	r2, r2, r3
 760 036c 3B6E     		ldr	r3, [r7, #96]
 761 036e 5A40     		eors	r2, r2, r3
 762 0370 3B69     		ldr	r3, [r7, #16]
 763 0372 1344     		add	r3, r3, r2
 764 0374 3A6D     		ldr	r2, [r7, #80]
 765 0376 1344     		add	r3, r3, r2
 766 0378 3B65     		str	r3, [r7, #80]
 767 037a 3B6D     		ldr	r3, [r7, #80]
 768 037c 4FEA7343 		ror	r3, r3, #17
 769 0380 BA6D     		ldr	r2, [r7, #88]
 770 0382 1344     		add	r3, r3, r2
 771 0384 3B65     		str	r3, [r7, #80]
 772 0386 BB6E     		ldr	r3, [r7, #104]
 773 0388 4FEAB353 		ror	r3, r3, #22
 774 038c BB66     		str	r3, [r7, #104]
 775 038e 7B6E     		ldr	r3, [r7, #100]
 776 0390 DA43     		mvns	r2, r3
 777 0392 FB6E     		ldr	r3, [r7, #108]
 778 0394 1A43     		orrs	r2, r2, r3
 779 0396 FB6C     		ldr	r3, [r7, #76]
 780 0398 5A40     		eors	r2, r2, r3
 781 039a 7B6A     		ldr	r3, [r7, #36]
 782 039c 1A44     		add	r2, r2, r3
 783 039e 7B6D     		ldr	r3, [r7, #84]
 784 03a0 1A44     		add	r2, r2, r3
 785 03a2 7A4B     		ldr	r3, .L14
 786 03a4 1344     		add	r3, r3, r2
 787 03a6 7B65     		str	r3, [r7, #84]
 788 03a8 7B6D     		ldr	r3, [r7, #84]
 789 03aa 4FEAF353 		ror	r3, r3, #23
 790 03ae FA6D     		ldr	r2, [r7, #92]
 791 03b0 1344     		add	r3, r3, r2
 792 03b2 7B65     		str	r3, [r7, #84]
 793 03b4 FB6E     		ldr	r3, [r7, #108]
 794 03b6 4FEAB353 		ror	r3, r3, #22
 795 03ba FB66     		str	r3, [r7, #108]
 181:C:/Users/dtjld/workspace/AIoT/src/LiteOS_Lab/iot_link/network/dtls/mbedtls/mbedtls-2.16.2/library\ripemd160.c ****     P2( C, D, E, A, B,  3, 12,  0, 11 );
 796              		.loc 1 181 0
 797 03bc 3A6D     		ldr	r2, [r7, #80]
 798 03be BB6C     		ldr	r3, [r7, #72]
ARM GAS  C:\Users\dtjld\AppData\Local\Temp\cccTkoKh.s 			page 18


 799 03c0 5A40     		eors	r2, r2, r3
 800 03c2 BB6E     		ldr	r3, [r7, #104]
 801 03c4 5A40     		eors	r2, r2, r3
 802 03c6 7B69     		ldr	r3, [r7, #20]
 803 03c8 1344     		add	r3, r3, r2
 804 03ca BA6D     		ldr	r2, [r7, #88]
 805 03cc 1344     		add	r3, r3, r2
 806 03ce BB65     		str	r3, [r7, #88]
 807 03d0 BB6D     		ldr	r3, [r7, #88]
 808 03d2 4FEA3353 		ror	r3, r3, #20
 809 03d6 3A6E     		ldr	r2, [r7, #96]
 810 03d8 1344     		add	r3, r3, r2
 811 03da BB65     		str	r3, [r7, #88]
 812 03dc BB6C     		ldr	r3, [r7, #72]
 813 03de 4FEAB353 		ror	r3, r3, #22
 814 03e2 BB64     		str	r3, [r7, #72]
 815 03e4 FB6E     		ldr	r3, [r7, #108]
 816 03e6 DA43     		mvns	r2, r3
 817 03e8 FB6C     		ldr	r3, [r7, #76]
 818 03ea 1A43     		orrs	r2, r2, r3
 819 03ec 7B6D     		ldr	r3, [r7, #84]
 820 03ee 5A40     		eors	r2, r2, r3
 821 03f0 BB68     		ldr	r3, [r7, #8]
 822 03f2 1A44     		add	r2, r2, r3
 823 03f4 FB6D     		ldr	r3, [r7, #92]
 824 03f6 1A44     		add	r2, r2, r3
 825 03f8 644B     		ldr	r3, .L14
 826 03fa 1344     		add	r3, r3, r2
 827 03fc FB65     		str	r3, [r7, #92]
 828 03fe FB6D     		ldr	r3, [r7, #92]
 829 0400 4FEA7353 		ror	r3, r3, #21
 830 0404 7A6E     		ldr	r2, [r7, #100]
 831 0406 1344     		add	r3, r3, r2
 832 0408 FB65     		str	r3, [r7, #92]
 833 040a FB6C     		ldr	r3, [r7, #76]
 834 040c 4FEAB353 		ror	r3, r3, #22
 835 0410 FB64     		str	r3, [r7, #76]
 182:C:/Users/dtjld/workspace/AIoT/src/LiteOS_Lab/iot_link/network/dtls/mbedtls/mbedtls-2.16.2/library\ripemd160.c ****     P2( B, C, D, E, A,  4,  5,  9, 13 );
 836              		.loc 1 182 0
 837 0412 BA6D     		ldr	r2, [r7, #88]
 838 0414 3B6D     		ldr	r3, [r7, #80]
 839 0416 5A40     		eors	r2, r2, r3
 840 0418 BB6C     		ldr	r3, [r7, #72]
 841 041a 5A40     		eors	r2, r2, r3
 842 041c BB69     		ldr	r3, [r7, #24]
 843 041e 1344     		add	r3, r3, r2
 844 0420 3A6E     		ldr	r2, [r7, #96]
 845 0422 1344     		add	r3, r3, r2
 846 0424 3B66     		str	r3, [r7, #96]
 847 0426 3B6E     		ldr	r3, [r7, #96]
 848 0428 4FEAF363 		ror	r3, r3, #27
 849 042c BA6E     		ldr	r2, [r7, #104]
 850 042e 1344     		add	r3, r3, r2
 851 0430 3B66     		str	r3, [r7, #96]
 852 0432 3B6D     		ldr	r3, [r7, #80]
 853 0434 4FEAB353 		ror	r3, r3, #22
 854 0438 3B65     		str	r3, [r7, #80]
ARM GAS  C:\Users\dtjld\AppData\Local\Temp\cccTkoKh.s 			page 19


 855 043a FB6C     		ldr	r3, [r7, #76]
 856 043c DA43     		mvns	r2, r3
 857 043e 7B6D     		ldr	r3, [r7, #84]
 858 0440 1A43     		orrs	r2, r2, r3
 859 0442 FB6D     		ldr	r3, [r7, #92]
 860 0444 5A40     		eors	r2, r2, r3
 861 0446 FB6A     		ldr	r3, [r7, #44]
 862 0448 1A44     		add	r2, r2, r3
 863 044a 7B6E     		ldr	r3, [r7, #100]
 864 044c 1A44     		add	r2, r2, r3
 865 044e 4F4B     		ldr	r3, .L14
 866 0450 1344     		add	r3, r3, r2
 867 0452 7B66     		str	r3, [r7, #100]
 868 0454 7B6E     		ldr	r3, [r7, #100]
 869 0456 4FEAF343 		ror	r3, r3, #19
 870 045a FA6E     		ldr	r2, [r7, #108]
 871 045c 1344     		add	r3, r3, r2
 872 045e 7B66     		str	r3, [r7, #100]
 873 0460 7B6D     		ldr	r3, [r7, #84]
 874 0462 4FEAB353 		ror	r3, r3, #22
 875 0466 7B65     		str	r3, [r7, #84]
 183:C:/Users/dtjld/workspace/AIoT/src/LiteOS_Lab/iot_link/network/dtls/mbedtls/mbedtls-2.16.2/library\ripemd160.c ****     P2( A, B, C, D, E,  5,  8,  2, 15 );
 876              		.loc 1 183 0
 877 0468 3A6E     		ldr	r2, [r7, #96]
 878 046a BB6D     		ldr	r3, [r7, #88]
 879 046c 5A40     		eors	r2, r2, r3
 880 046e 3B6D     		ldr	r3, [r7, #80]
 881 0470 5A40     		eors	r2, r2, r3
 882 0472 FB69     		ldr	r3, [r7, #28]
 883 0474 1344     		add	r3, r3, r2
 884 0476 BA6E     		ldr	r2, [r7, #104]
 885 0478 1344     		add	r3, r3, r2
 886 047a BB66     		str	r3, [r7, #104]
 887 047c BB6E     		ldr	r3, [r7, #104]
 888 047e 4FEA3363 		ror	r3, r3, #24
 889 0482 BA6C     		ldr	r2, [r7, #72]
 890 0484 1344     		add	r3, r3, r2
 891 0486 BB66     		str	r3, [r7, #104]
 892 0488 BB6D     		ldr	r3, [r7, #88]
 893 048a 4FEAB353 		ror	r3, r3, #22
 894 048e BB65     		str	r3, [r7, #88]
 895 0490 7B6D     		ldr	r3, [r7, #84]
 896 0492 DA43     		mvns	r2, r3
 897 0494 FB6D     		ldr	r3, [r7, #92]
 898 0496 1A43     		orrs	r2, r2, r3
 899 0498 7B6E     		ldr	r3, [r7, #100]
 900 049a 5A40     		eors	r2, r2, r3
 901 049c 3B69     		ldr	r3, [r7, #16]
 902 049e 1A44     		add	r2, r2, r3
 903 04a0 FB6E     		ldr	r3, [r7, #108]
 904 04a2 1A44     		add	r2, r2, r3
 905 04a4 394B     		ldr	r3, .L14
 906 04a6 1344     		add	r3, r3, r2
 907 04a8 FB66     		str	r3, [r7, #108]
 908 04aa FB6E     		ldr	r3, [r7, #108]
 909 04ac 4FEA7343 		ror	r3, r3, #17
 910 04b0 FA6C     		ldr	r2, [r7, #76]
ARM GAS  C:\Users\dtjld\AppData\Local\Temp\cccTkoKh.s 			page 20


 911 04b2 1344     		add	r3, r3, r2
 912 04b4 FB66     		str	r3, [r7, #108]
 913 04b6 FB6D     		ldr	r3, [r7, #92]
 914 04b8 4FEAB353 		ror	r3, r3, #22
 915 04bc FB65     		str	r3, [r7, #92]
 184:C:/Users/dtjld/workspace/AIoT/src/LiteOS_Lab/iot_link/network/dtls/mbedtls/mbedtls-2.16.2/library\ripemd160.c ****     P2( E, A, B, C, D,  6,  7, 11, 15 );
 916              		.loc 1 184 0
 917 04be BA6E     		ldr	r2, [r7, #104]
 918 04c0 3B6E     		ldr	r3, [r7, #96]
 919 04c2 5A40     		eors	r2, r2, r3
 920 04c4 BB6D     		ldr	r3, [r7, #88]
 921 04c6 5A40     		eors	r2, r2, r3
 922 04c8 3B6A     		ldr	r3, [r7, #32]
 923 04ca 1344     		add	r3, r3, r2
 924 04cc BA6C     		ldr	r2, [r7, #72]
 925 04ce 1344     		add	r3, r3, r2
 926 04d0 BB64     		str	r3, [r7, #72]
 927 04d2 BB6C     		ldr	r3, [r7, #72]
 928 04d4 4FEA7363 		ror	r3, r3, #25
 929 04d8 3A6D     		ldr	r2, [r7, #80]
 930 04da 1344     		add	r3, r3, r2
 931 04dc BB64     		str	r3, [r7, #72]
 932 04de 3B6E     		ldr	r3, [r7, #96]
 933 04e0 4FEAB353 		ror	r3, r3, #22
 934 04e4 3B66     		str	r3, [r7, #96]
 935 04e6 FB6D     		ldr	r3, [r7, #92]
 936 04e8 DA43     		mvns	r2, r3
 937 04ea 7B6E     		ldr	r3, [r7, #100]
 938 04ec 1A43     		orrs	r2, r2, r3
 939 04ee FB6E     		ldr	r3, [r7, #108]
 940 04f0 5A40     		eors	r2, r2, r3
 941 04f2 7B6B     		ldr	r3, [r7, #52]
 942 04f4 1A44     		add	r2, r2, r3
 943 04f6 FB6C     		ldr	r3, [r7, #76]
 944 04f8 1A44     		add	r2, r2, r3
 945 04fa 244B     		ldr	r3, .L14
 946 04fc 1344     		add	r3, r3, r2
 947 04fe FB64     		str	r3, [r7, #76]
 948 0500 FB6C     		ldr	r3, [r7, #76]
 949 0502 4FEA7343 		ror	r3, r3, #17
 950 0506 7A6D     		ldr	r2, [r7, #84]
 951 0508 1344     		add	r3, r3, r2
 952 050a FB64     		str	r3, [r7, #76]
 953 050c 7B6E     		ldr	r3, [r7, #100]
 954 050e 4FEAB353 		ror	r3, r3, #22
 955 0512 7B66     		str	r3, [r7, #100]
 185:C:/Users/dtjld/workspace/AIoT/src/LiteOS_Lab/iot_link/network/dtls/mbedtls/mbedtls-2.16.2/library\ripemd160.c ****     P2( D, E, A, B, C,  7,  9,  4,  5 );
 956              		.loc 1 185 0
 957 0514 BA6C     		ldr	r2, [r7, #72]
 958 0516 BB6E     		ldr	r3, [r7, #104]
 959 0518 5A40     		eors	r2, r2, r3
 960 051a 3B6E     		ldr	r3, [r7, #96]
 961 051c 5A40     		eors	r2, r2, r3
 962 051e 7B6A     		ldr	r3, [r7, #36]
 963 0520 1344     		add	r3, r3, r2
 964 0522 3A6D     		ldr	r2, [r7, #80]
 965 0524 1344     		add	r3, r3, r2
ARM GAS  C:\Users\dtjld\AppData\Local\Temp\cccTkoKh.s 			page 21


 966 0526 3B65     		str	r3, [r7, #80]
 967 0528 3B6D     		ldr	r3, [r7, #80]
 968 052a 4FEAF353 		ror	r3, r3, #23
 969 052e BA6D     		ldr	r2, [r7, #88]
 970 0530 1344     		add	r3, r3, r2
 971 0532 3B65     		str	r3, [r7, #80]
 972 0534 BB6E     		ldr	r3, [r7, #104]
 973 0536 4FEAB353 		ror	r3, r3, #22
 974 053a BB66     		str	r3, [r7, #104]
 975 053c 7B6E     		ldr	r3, [r7, #100]
 976 053e DA43     		mvns	r2, r3
 977 0540 FB6E     		ldr	r3, [r7, #108]
 978 0542 1A43     		orrs	r2, r2, r3
 979 0544 FB6C     		ldr	r3, [r7, #76]
 980 0546 5A40     		eors	r2, r2, r3
 981 0548 BB69     		ldr	r3, [r7, #24]
 982 054a 1A44     		add	r2, r2, r3
 983 054c 7B6D     		ldr	r3, [r7, #84]
 984 054e 1A44     		add	r2, r2, r3
 985 0550 0E4B     		ldr	r3, .L14
 986 0552 1344     		add	r3, r3, r2
 987 0554 7B65     		str	r3, [r7, #84]
 988 0556 7B6D     		ldr	r3, [r7, #84]
 989 0558 4FEAF363 		ror	r3, r3, #27
 990 055c FA6D     		ldr	r2, [r7, #92]
 991 055e 1344     		add	r3, r3, r2
 992 0560 7B65     		str	r3, [r7, #84]
 993 0562 FB6E     		ldr	r3, [r7, #108]
 994 0564 4FEAB353 		ror	r3, r3, #22
 995 0568 FB66     		str	r3, [r7, #108]
 186:C:/Users/dtjld/workspace/AIoT/src/LiteOS_Lab/iot_link/network/dtls/mbedtls/mbedtls-2.16.2/library\ripemd160.c ****     P2( C, D, E, A, B,  8, 11, 13,  7 );
 996              		.loc 1 186 0
 997 056a 3A6D     		ldr	r2, [r7, #80]
 998 056c BB6C     		ldr	r3, [r7, #72]
 999 056e 5A40     		eors	r2, r2, r3
 1000 0570 BB6E     		ldr	r3, [r7, #104]
 1001 0572 5A40     		eors	r2, r2, r3
 1002 0574 BB6A     		ldr	r3, [r7, #40]
 1003 0576 1344     		add	r3, r3, r2
 1004 0578 BA6D     		ldr	r2, [r7, #88]
 1005 057a 1344     		add	r3, r3, r2
 1006 057c BB65     		str	r3, [r7, #88]
 1007 057e BB6D     		ldr	r3, [r7, #88]
 1008 0580 4FEA7353 		ror	r3, r3, #21
 1009 0584 3A6E     		ldr	r2, [r7, #96]
 1010 0586 1344     		add	r3, r3, r2
 1011 0588 BB65     		str	r3, [r7, #88]
 1012 058a 01E0     		b	.L15
 1013              	.L16:
 1014              		.align	2
 1015              	.L14:
 1016 058c E68BA250 		.word	1352829926
 1017              	.L15:
 1018 0590 BB6C     		ldr	r3, [r7, #72]
 1019 0592 4FEAB353 		ror	r3, r3, #22
 1020 0596 BB64     		str	r3, [r7, #72]
 1021 0598 FB6E     		ldr	r3, [r7, #108]
ARM GAS  C:\Users\dtjld\AppData\Local\Temp\cccTkoKh.s 			page 22


 1022 059a DA43     		mvns	r2, r3
 1023 059c FB6C     		ldr	r3, [r7, #76]
 1024 059e 1A43     		orrs	r2, r2, r3
 1025 05a0 7B6D     		ldr	r3, [r7, #84]
 1026 05a2 5A40     		eors	r2, r2, r3
 1027 05a4 FB6B     		ldr	r3, [r7, #60]
 1028 05a6 1A44     		add	r2, r2, r3
 1029 05a8 FB6D     		ldr	r3, [r7, #92]
 1030 05aa 1A44     		add	r2, r2, r3
 1031 05ac A54B     		ldr	r3, .L17
 1032 05ae 1344     		add	r3, r3, r2
 1033 05b0 FB65     		str	r3, [r7, #92]
 1034 05b2 FB6D     		ldr	r3, [r7, #92]
 1035 05b4 4FEA7363 		ror	r3, r3, #25
 1036 05b8 7A6E     		ldr	r2, [r7, #100]
 1037 05ba 1344     		add	r3, r3, r2
 1038 05bc FB65     		str	r3, [r7, #92]
 1039 05be FB6C     		ldr	r3, [r7, #76]
 1040 05c0 4FEAB353 		ror	r3, r3, #22
 1041 05c4 FB64     		str	r3, [r7, #76]
 187:C:/Users/dtjld/workspace/AIoT/src/LiteOS_Lab/iot_link/network/dtls/mbedtls/mbedtls-2.16.2/library\ripemd160.c ****     P2( B, C, D, E, A,  9, 13,  6,  7 );
 1042              		.loc 1 187 0
 1043 05c6 BA6D     		ldr	r2, [r7, #88]
 1044 05c8 3B6D     		ldr	r3, [r7, #80]
 1045 05ca 5A40     		eors	r2, r2, r3
 1046 05cc BB6C     		ldr	r3, [r7, #72]
 1047 05ce 5A40     		eors	r2, r2, r3
 1048 05d0 FB6A     		ldr	r3, [r7, #44]
 1049 05d2 1344     		add	r3, r3, r2
 1050 05d4 3A6E     		ldr	r2, [r7, #96]
 1051 05d6 1344     		add	r3, r3, r2
 1052 05d8 3B66     		str	r3, [r7, #96]
 1053 05da 3B6E     		ldr	r3, [r7, #96]
 1054 05dc 4FEAF343 		ror	r3, r3, #19
 1055 05e0 BA6E     		ldr	r2, [r7, #104]
 1056 05e2 1344     		add	r3, r3, r2
 1057 05e4 3B66     		str	r3, [r7, #96]
 1058 05e6 3B6D     		ldr	r3, [r7, #80]
 1059 05e8 4FEAB353 		ror	r3, r3, #22
 1060 05ec 3B65     		str	r3, [r7, #80]
 1061 05ee FB6C     		ldr	r3, [r7, #76]
 1062 05f0 DA43     		mvns	r2, r3
 1063 05f2 7B6D     		ldr	r3, [r7, #84]
 1064 05f4 1A43     		orrs	r2, r2, r3
 1065 05f6 FB6D     		ldr	r3, [r7, #92]
 1066 05f8 5A40     		eors	r2, r2, r3
 1067 05fa 3B6A     		ldr	r3, [r7, #32]
 1068 05fc 1A44     		add	r2, r2, r3
 1069 05fe 7B6E     		ldr	r3, [r7, #100]
 1070 0600 1A44     		add	r2, r2, r3
 1071 0602 904B     		ldr	r3, .L17
 1072 0604 1344     		add	r3, r3, r2
 1073 0606 7B66     		str	r3, [r7, #100]
 1074 0608 7B6E     		ldr	r3, [r7, #100]
 1075 060a 4FEA7363 		ror	r3, r3, #25
 1076 060e FA6E     		ldr	r2, [r7, #108]
 1077 0610 1344     		add	r3, r3, r2
ARM GAS  C:\Users\dtjld\AppData\Local\Temp\cccTkoKh.s 			page 23


 1078 0612 7B66     		str	r3, [r7, #100]
 1079 0614 7B6D     		ldr	r3, [r7, #84]
 1080 0616 4FEAB353 		ror	r3, r3, #22
 1081 061a 7B65     		str	r3, [r7, #84]
 188:C:/Users/dtjld/workspace/AIoT/src/LiteOS_Lab/iot_link/network/dtls/mbedtls/mbedtls-2.16.2/library\ripemd160.c ****     P2( A, B, C, D, E, 10, 14, 15,  8 );
 1082              		.loc 1 188 0
 1083 061c 3A6E     		ldr	r2, [r7, #96]
 1084 061e BB6D     		ldr	r3, [r7, #88]
 1085 0620 5A40     		eors	r2, r2, r3
 1086 0622 3B6D     		ldr	r3, [r7, #80]
 1087 0624 5A40     		eors	r2, r2, r3
 1088 0626 3B6B     		ldr	r3, [r7, #48]
 1089 0628 1344     		add	r3, r3, r2
 1090 062a BA6E     		ldr	r2, [r7, #104]
 1091 062c 1344     		add	r3, r3, r2
 1092 062e BB66     		str	r3, [r7, #104]
 1093 0630 BB6E     		ldr	r3, [r7, #104]
 1094 0632 4FEAB343 		ror	r3, r3, #18
 1095 0636 BA6C     		ldr	r2, [r7, #72]
 1096 0638 1344     		add	r3, r3, r2
 1097 063a BB66     		str	r3, [r7, #104]
 1098 063c BB6D     		ldr	r3, [r7, #88]
 1099 063e 4FEAB353 		ror	r3, r3, #22
 1100 0642 BB65     		str	r3, [r7, #88]
 1101 0644 7B6D     		ldr	r3, [r7, #84]
 1102 0646 DA43     		mvns	r2, r3
 1103 0648 FB6D     		ldr	r3, [r7, #92]
 1104 064a 1A43     		orrs	r2, r2, r3
 1105 064c 7B6E     		ldr	r3, [r7, #100]
 1106 064e 5A40     		eors	r2, r2, r3
 1107 0650 7B6C     		ldr	r3, [r7, #68]
 1108 0652 1A44     		add	r2, r2, r3
 1109 0654 FB6E     		ldr	r3, [r7, #108]
 1110 0656 1A44     		add	r2, r2, r3
 1111 0658 7A4B     		ldr	r3, .L17
 1112 065a 1344     		add	r3, r3, r2
 1113 065c FB66     		str	r3, [r7, #108]
 1114 065e FB6E     		ldr	r3, [r7, #108]
 1115 0660 4FEA3363 		ror	r3, r3, #24
 1116 0664 FA6C     		ldr	r2, [r7, #76]
 1117 0666 1344     		add	r3, r3, r2
 1118 0668 FB66     		str	r3, [r7, #108]
 1119 066a FB6D     		ldr	r3, [r7, #92]
 1120 066c 4FEAB353 		ror	r3, r3, #22
 1121 0670 FB65     		str	r3, [r7, #92]
 189:C:/Users/dtjld/workspace/AIoT/src/LiteOS_Lab/iot_link/network/dtls/mbedtls/mbedtls-2.16.2/library\ripemd160.c ****     P2( E, A, B, C, D, 11, 15,  8, 11 );
 1122              		.loc 1 189 0
 1123 0672 BA6E     		ldr	r2, [r7, #104]
 1124 0674 3B6E     		ldr	r3, [r7, #96]
 1125 0676 5A40     		eors	r2, r2, r3
 1126 0678 BB6D     		ldr	r3, [r7, #88]
 1127 067a 5A40     		eors	r2, r2, r3
 1128 067c 7B6B     		ldr	r3, [r7, #52]
 1129 067e 1344     		add	r3, r3, r2
 1130 0680 BA6C     		ldr	r2, [r7, #72]
 1131 0682 1344     		add	r3, r3, r2
 1132 0684 BB64     		str	r3, [r7, #72]
ARM GAS  C:\Users\dtjld\AppData\Local\Temp\cccTkoKh.s 			page 24


 1133 0686 BB6C     		ldr	r3, [r7, #72]
 1134 0688 4FEA7343 		ror	r3, r3, #17
 1135 068c 3A6D     		ldr	r2, [r7, #80]
 1136 068e 1344     		add	r3, r3, r2
 1137 0690 BB64     		str	r3, [r7, #72]
 1138 0692 3B6E     		ldr	r3, [r7, #96]
 1139 0694 4FEAB353 		ror	r3, r3, #22
 1140 0698 3B66     		str	r3, [r7, #96]
 1141 069a FB6D     		ldr	r3, [r7, #92]
 1142 069c DA43     		mvns	r2, r3
 1143 069e 7B6E     		ldr	r3, [r7, #100]
 1144 06a0 1A43     		orrs	r2, r2, r3
 1145 06a2 FB6E     		ldr	r3, [r7, #108]
 1146 06a4 5A40     		eors	r2, r2, r3
 1147 06a6 BB6A     		ldr	r3, [r7, #40]
 1148 06a8 1A44     		add	r2, r2, r3
 1149 06aa FB6C     		ldr	r3, [r7, #76]
 1150 06ac 1A44     		add	r2, r2, r3
 1151 06ae 654B     		ldr	r3, .L17
 1152 06b0 1344     		add	r3, r3, r2
 1153 06b2 FB64     		str	r3, [r7, #76]
 1154 06b4 FB6C     		ldr	r3, [r7, #76]
 1155 06b6 4FEA7353 		ror	r3, r3, #21
 1156 06ba 7A6D     		ldr	r2, [r7, #84]
 1157 06bc 1344     		add	r3, r3, r2
 1158 06be FB64     		str	r3, [r7, #76]
 1159 06c0 7B6E     		ldr	r3, [r7, #100]
 1160 06c2 4FEAB353 		ror	r3, r3, #22
 1161 06c6 7B66     		str	r3, [r7, #100]
 190:C:/Users/dtjld/workspace/AIoT/src/LiteOS_Lab/iot_link/network/dtls/mbedtls/mbedtls-2.16.2/library\ripemd160.c ****     P2( D, E, A, B, C, 12,  6,  1, 14 );
 1162              		.loc 1 190 0
 1163 06c8 BA6C     		ldr	r2, [r7, #72]
 1164 06ca BB6E     		ldr	r3, [r7, #104]
 1165 06cc 5A40     		eors	r2, r2, r3
 1166 06ce 3B6E     		ldr	r3, [r7, #96]
 1167 06d0 5A40     		eors	r2, r2, r3
 1168 06d2 BB6B     		ldr	r3, [r7, #56]
 1169 06d4 1344     		add	r3, r3, r2
 1170 06d6 3A6D     		ldr	r2, [r7, #80]
 1171 06d8 1344     		add	r3, r3, r2
 1172 06da 3B65     		str	r3, [r7, #80]
 1173 06dc 3B6D     		ldr	r3, [r7, #80]
 1174 06de 4FEAB363 		ror	r3, r3, #26
 1175 06e2 BA6D     		ldr	r2, [r7, #88]
 1176 06e4 1344     		add	r3, r3, r2
 1177 06e6 3B65     		str	r3, [r7, #80]
 1178 06e8 BB6E     		ldr	r3, [r7, #104]
 1179 06ea 4FEAB353 		ror	r3, r3, #22
 1180 06ee BB66     		str	r3, [r7, #104]
 1181 06f0 7B6E     		ldr	r3, [r7, #100]
 1182 06f2 DA43     		mvns	r2, r3
 1183 06f4 FB6E     		ldr	r3, [r7, #108]
 1184 06f6 1A43     		orrs	r2, r2, r3
 1185 06f8 FB6C     		ldr	r3, [r7, #76]
 1186 06fa 5A40     		eors	r2, r2, r3
 1187 06fc FB68     		ldr	r3, [r7, #12]
 1188 06fe 1A44     		add	r2, r2, r3
ARM GAS  C:\Users\dtjld\AppData\Local\Temp\cccTkoKh.s 			page 25


 1189 0700 7B6D     		ldr	r3, [r7, #84]
 1190 0702 1A44     		add	r2, r2, r3
 1191 0704 4F4B     		ldr	r3, .L17
 1192 0706 1344     		add	r3, r3, r2
 1193 0708 7B65     		str	r3, [r7, #84]
 1194 070a 7B6D     		ldr	r3, [r7, #84]
 1195 070c 4FEAB343 		ror	r3, r3, #18
 1196 0710 FA6D     		ldr	r2, [r7, #92]
 1197 0712 1344     		add	r3, r3, r2
 1198 0714 7B65     		str	r3, [r7, #84]
 1199 0716 FB6E     		ldr	r3, [r7, #108]
 1200 0718 4FEAB353 		ror	r3, r3, #22
 1201 071c FB66     		str	r3, [r7, #108]
 191:C:/Users/dtjld/workspace/AIoT/src/LiteOS_Lab/iot_link/network/dtls/mbedtls/mbedtls-2.16.2/library\ripemd160.c ****     P2( C, D, E, A, B, 13,  7, 10, 14 );
 1202              		.loc 1 191 0
 1203 071e 3A6D     		ldr	r2, [r7, #80]
 1204 0720 BB6C     		ldr	r3, [r7, #72]
 1205 0722 5A40     		eors	r2, r2, r3
 1206 0724 BB6E     		ldr	r3, [r7, #104]
 1207 0726 5A40     		eors	r2, r2, r3
 1208 0728 FB6B     		ldr	r3, [r7, #60]
 1209 072a 1344     		add	r3, r3, r2
 1210 072c BA6D     		ldr	r2, [r7, #88]
 1211 072e 1344     		add	r3, r3, r2
 1212 0730 BB65     		str	r3, [r7, #88]
 1213 0732 BB6D     		ldr	r3, [r7, #88]
 1214 0734 4FEA7363 		ror	r3, r3, #25
 1215 0738 3A6E     		ldr	r2, [r7, #96]
 1216 073a 1344     		add	r3, r3, r2
 1217 073c BB65     		str	r3, [r7, #88]
 1218 073e BB6C     		ldr	r3, [r7, #72]
 1219 0740 4FEAB353 		ror	r3, r3, #22
 1220 0744 BB64     		str	r3, [r7, #72]
 1221 0746 FB6E     		ldr	r3, [r7, #108]
 1222 0748 DA43     		mvns	r2, r3
 1223 074a FB6C     		ldr	r3, [r7, #76]
 1224 074c 1A43     		orrs	r2, r2, r3
 1225 074e 7B6D     		ldr	r3, [r7, #84]
 1226 0750 5A40     		eors	r2, r2, r3
 1227 0752 3B6B     		ldr	r3, [r7, #48]
 1228 0754 1A44     		add	r2, r2, r3
 1229 0756 FB6D     		ldr	r3, [r7, #92]
 1230 0758 1A44     		add	r2, r2, r3
 1231 075a 3A4B     		ldr	r3, .L17
 1232 075c 1344     		add	r3, r3, r2
 1233 075e FB65     		str	r3, [r7, #92]
 1234 0760 FB6D     		ldr	r3, [r7, #92]
 1235 0762 4FEAB343 		ror	r3, r3, #18
 1236 0766 7A6E     		ldr	r2, [r7, #100]
 1237 0768 1344     		add	r3, r3, r2
 1238 076a FB65     		str	r3, [r7, #92]
 1239 076c FB6C     		ldr	r3, [r7, #76]
 1240 076e 4FEAB353 		ror	r3, r3, #22
 1241 0772 FB64     		str	r3, [r7, #76]
 192:C:/Users/dtjld/workspace/AIoT/src/LiteOS_Lab/iot_link/network/dtls/mbedtls/mbedtls-2.16.2/library\ripemd160.c ****     P2( B, C, D, E, A, 14,  9,  3, 12 );
 1242              		.loc 1 192 0
 1243 0774 BA6D     		ldr	r2, [r7, #88]
ARM GAS  C:\Users\dtjld\AppData\Local\Temp\cccTkoKh.s 			page 26


 1244 0776 3B6D     		ldr	r3, [r7, #80]
 1245 0778 5A40     		eors	r2, r2, r3
 1246 077a BB6C     		ldr	r3, [r7, #72]
 1247 077c 5A40     		eors	r2, r2, r3
 1248 077e 3B6C     		ldr	r3, [r7, #64]
 1249 0780 1344     		add	r3, r3, r2
 1250 0782 3A6E     		ldr	r2, [r7, #96]
 1251 0784 1344     		add	r3, r3, r2
 1252 0786 3B66     		str	r3, [r7, #96]
 1253 0788 3B6E     		ldr	r3, [r7, #96]
 1254 078a 4FEAF353 		ror	r3, r3, #23
 1255 078e BA6E     		ldr	r2, [r7, #104]
 1256 0790 1344     		add	r3, r3, r2
 1257 0792 3B66     		str	r3, [r7, #96]
 1258 0794 3B6D     		ldr	r3, [r7, #80]
 1259 0796 4FEAB353 		ror	r3, r3, #22
 1260 079a 3B65     		str	r3, [r7, #80]
 1261 079c FB6C     		ldr	r3, [r7, #76]
 1262 079e DA43     		mvns	r2, r3
 1263 07a0 7B6D     		ldr	r3, [r7, #84]
 1264 07a2 1A43     		orrs	r2, r2, r3
 1265 07a4 FB6D     		ldr	r3, [r7, #92]
 1266 07a6 5A40     		eors	r2, r2, r3
 1267 07a8 7B69     		ldr	r3, [r7, #20]
 1268 07aa 1A44     		add	r2, r2, r3
 1269 07ac 7B6E     		ldr	r3, [r7, #100]
 1270 07ae 1A44     		add	r2, r2, r3
 1271 07b0 244B     		ldr	r3, .L17
 1272 07b2 1344     		add	r3, r3, r2
 1273 07b4 7B66     		str	r3, [r7, #100]
 1274 07b6 7B6E     		ldr	r3, [r7, #100]
 1275 07b8 4FEA3353 		ror	r3, r3, #20
 1276 07bc FA6E     		ldr	r2, [r7, #108]
 1277 07be 1344     		add	r3, r3, r2
 1278 07c0 7B66     		str	r3, [r7, #100]
 1279 07c2 7B6D     		ldr	r3, [r7, #84]
 1280 07c4 4FEAB353 		ror	r3, r3, #22
 1281 07c8 7B65     		str	r3, [r7, #84]
 193:C:/Users/dtjld/workspace/AIoT/src/LiteOS_Lab/iot_link/network/dtls/mbedtls/mbedtls-2.16.2/library\ripemd160.c ****     P2( A, B, C, D, E, 15,  8, 12,  6 );
 1282              		.loc 1 193 0
 1283 07ca 3A6E     		ldr	r2, [r7, #96]
 1284 07cc BB6D     		ldr	r3, [r7, #88]
 1285 07ce 5A40     		eors	r2, r2, r3
 1286 07d0 3B6D     		ldr	r3, [r7, #80]
 1287 07d2 5A40     		eors	r2, r2, r3
 1288 07d4 7B6C     		ldr	r3, [r7, #68]
 1289 07d6 1344     		add	r3, r3, r2
 1290 07d8 BA6E     		ldr	r2, [r7, #104]
 1291 07da 1344     		add	r3, r3, r2
 1292 07dc BB66     		str	r3, [r7, #104]
 1293 07de BB6E     		ldr	r3, [r7, #104]
 1294 07e0 4FEA3363 		ror	r3, r3, #24
 1295 07e4 BA6C     		ldr	r2, [r7, #72]
 1296 07e6 1344     		add	r3, r3, r2
 1297 07e8 BB66     		str	r3, [r7, #104]
 1298 07ea BB6D     		ldr	r3, [r7, #88]
 1299 07ec 4FEAB353 		ror	r3, r3, #22
ARM GAS  C:\Users\dtjld\AppData\Local\Temp\cccTkoKh.s 			page 27


 1300 07f0 BB65     		str	r3, [r7, #88]
 1301 07f2 7B6D     		ldr	r3, [r7, #84]
 1302 07f4 DA43     		mvns	r2, r3
 1303 07f6 FB6D     		ldr	r3, [r7, #92]
 1304 07f8 1A43     		orrs	r2, r2, r3
 1305 07fa 7B6E     		ldr	r3, [r7, #100]
 1306 07fc 5A40     		eors	r2, r2, r3
 1307 07fe BB6B     		ldr	r3, [r7, #56]
 1308 0800 1A44     		add	r2, r2, r3
 1309 0802 FB6E     		ldr	r3, [r7, #108]
 1310 0804 1A44     		add	r2, r2, r3
 1311 0806 0F4B     		ldr	r3, .L17
 1312 0808 1344     		add	r3, r3, r2
 1313 080a FB66     		str	r3, [r7, #108]
 1314 080c FB6E     		ldr	r3, [r7, #108]
 1315 080e 4FEAB363 		ror	r3, r3, #26
 1316 0812 FA6C     		ldr	r2, [r7, #76]
 1317 0814 1344     		add	r3, r3, r2
 1318 0816 FB66     		str	r3, [r7, #108]
 1319 0818 FB6D     		ldr	r3, [r7, #92]
 1320 081a 4FEAB353 		ror	r3, r3, #22
 1321 081e FB65     		str	r3, [r7, #92]
 194:C:/Users/dtjld/workspace/AIoT/src/LiteOS_Lab/iot_link/network/dtls/mbedtls/mbedtls-2.16.2/library\ripemd160.c **** #undef F
 195:C:/Users/dtjld/workspace/AIoT/src/LiteOS_Lab/iot_link/network/dtls/mbedtls/mbedtls-2.16.2/library\ripemd160.c **** #undef K
 196:C:/Users/dtjld/workspace/AIoT/src/LiteOS_Lab/iot_link/network/dtls/mbedtls/mbedtls-2.16.2/library\ripemd160.c **** #undef Fp
 197:C:/Users/dtjld/workspace/AIoT/src/LiteOS_Lab/iot_link/network/dtls/mbedtls/mbedtls-2.16.2/library\ripemd160.c **** #undef Kp
 198:C:/Users/dtjld/workspace/AIoT/src/LiteOS_Lab/iot_link/network/dtls/mbedtls/mbedtls-2.16.2/library\ripemd160.c **** 
 199:C:/Users/dtjld/workspace/AIoT/src/LiteOS_Lab/iot_link/network/dtls/mbedtls/mbedtls-2.16.2/library\ripemd160.c **** #define F   F2
 200:C:/Users/dtjld/workspace/AIoT/src/LiteOS_Lab/iot_link/network/dtls/mbedtls/mbedtls-2.16.2/library\ripemd160.c **** #define K   0x5A827999
 201:C:/Users/dtjld/workspace/AIoT/src/LiteOS_Lab/iot_link/network/dtls/mbedtls/mbedtls-2.16.2/library\ripemd160.c **** #define Fp  F4
 202:C:/Users/dtjld/workspace/AIoT/src/LiteOS_Lab/iot_link/network/dtls/mbedtls/mbedtls-2.16.2/library\ripemd160.c **** #define Kp  0x5C4DD124
 203:C:/Users/dtjld/workspace/AIoT/src/LiteOS_Lab/iot_link/network/dtls/mbedtls/mbedtls-2.16.2/library\ripemd160.c ****     P2( E, A, B, C, D,  7,  7,  6,  9 );
 1322              		.loc 1 203 0
 1323 0820 BA6E     		ldr	r2, [r7, #104]
 1324 0822 3B6E     		ldr	r3, [r7, #96]
 1325 0824 1A40     		ands	r2, r2, r3
 1326 0826 BB6E     		ldr	r3, [r7, #104]
 1327 0828 D943     		mvns	r1, r3
 1328 082a BB6D     		ldr	r3, [r7, #88]
 1329 082c 0B40     		ands	r3, r3, r1
 1330 082e 1A43     		orrs	r2, r2, r3
 1331 0830 7B6A     		ldr	r3, [r7, #36]
 1332 0832 1A44     		add	r2, r2, r3
 1333 0834 BB6C     		ldr	r3, [r7, #72]
 1334 0836 1A44     		add	r2, r2, r3
 1335 0838 034B     		ldr	r3, .L17+4
 1336 083a 1344     		add	r3, r3, r2
 1337 083c BB64     		str	r3, [r7, #72]
 1338 083e BB6C     		ldr	r3, [r7, #72]
 1339 0840 04E0     		b	.L18
 1340              	.L19:
 1341 0842 00BF     		.align	2
 1342              	.L17:
 1343 0844 E68BA250 		.word	1352829926
 1344 0848 9979825A 		.word	1518500249
 1345              	.L18:
 1346 084c 4FEA7363 		ror	r3, r3, #25
ARM GAS  C:\Users\dtjld\AppData\Local\Temp\cccTkoKh.s 			page 28


 1347 0850 3A6D     		ldr	r2, [r7, #80]
 1348 0852 1344     		add	r3, r3, r2
 1349 0854 BB64     		str	r3, [r7, #72]
 1350 0856 3B6E     		ldr	r3, [r7, #96]
 1351 0858 4FEAB353 		ror	r3, r3, #22
 1352 085c 3B66     		str	r3, [r7, #96]
 1353 085e FA6E     		ldr	r2, [r7, #108]
 1354 0860 FB6D     		ldr	r3, [r7, #92]
 1355 0862 1A40     		ands	r2, r2, r3
 1356 0864 FB6D     		ldr	r3, [r7, #92]
 1357 0866 D943     		mvns	r1, r3
 1358 0868 7B6E     		ldr	r3, [r7, #100]
 1359 086a 0B40     		ands	r3, r3, r1
 1360 086c 1A43     		orrs	r2, r2, r3
 1361 086e 3B6A     		ldr	r3, [r7, #32]
 1362 0870 1A44     		add	r2, r2, r3
 1363 0872 FB6C     		ldr	r3, [r7, #76]
 1364 0874 1A44     		add	r2, r2, r3
 1365 0876 A74B     		ldr	r3, .L20
 1366 0878 1344     		add	r3, r3, r2
 1367 087a FB64     		str	r3, [r7, #76]
 1368 087c FB6C     		ldr	r3, [r7, #76]
 1369 087e 4FEAF353 		ror	r3, r3, #23
 1370 0882 7A6D     		ldr	r2, [r7, #84]
 1371 0884 1344     		add	r3, r3, r2
 1372 0886 FB64     		str	r3, [r7, #76]
 1373 0888 7B6E     		ldr	r3, [r7, #100]
 1374 088a 4FEAB353 		ror	r3, r3, #22
 1375 088e 7B66     		str	r3, [r7, #100]
 204:C:/Users/dtjld/workspace/AIoT/src/LiteOS_Lab/iot_link/network/dtls/mbedtls/mbedtls-2.16.2/library\ripemd160.c ****     P2( D, E, A, B, C,  4,  6, 11, 13 );
 1376              		.loc 1 204 0
 1377 0890 BA6C     		ldr	r2, [r7, #72]
 1378 0892 BB6E     		ldr	r3, [r7, #104]
 1379 0894 1A40     		ands	r2, r2, r3
 1380 0896 BB6C     		ldr	r3, [r7, #72]
 1381 0898 D943     		mvns	r1, r3
 1382 089a 3B6E     		ldr	r3, [r7, #96]
 1383 089c 0B40     		ands	r3, r3, r1
 1384 089e 1A43     		orrs	r2, r2, r3
 1385 08a0 BB69     		ldr	r3, [r7, #24]
 1386 08a2 1A44     		add	r2, r2, r3
 1387 08a4 3B6D     		ldr	r3, [r7, #80]
 1388 08a6 1A44     		add	r2, r2, r3
 1389 08a8 9B4B     		ldr	r3, .L20+4
 1390 08aa 1344     		add	r3, r3, r2
 1391 08ac 3B65     		str	r3, [r7, #80]
 1392 08ae 3B6D     		ldr	r3, [r7, #80]
 1393 08b0 4FEAB363 		ror	r3, r3, #26
 1394 08b4 BA6D     		ldr	r2, [r7, #88]
 1395 08b6 1344     		add	r3, r3, r2
 1396 08b8 3B65     		str	r3, [r7, #80]
 1397 08ba BB6E     		ldr	r3, [r7, #104]
 1398 08bc 4FEAB353 		ror	r3, r3, #22
 1399 08c0 BB66     		str	r3, [r7, #104]
 1400 08c2 FA6C     		ldr	r2, [r7, #76]
 1401 08c4 7B6E     		ldr	r3, [r7, #100]
 1402 08c6 1A40     		ands	r2, r2, r3
ARM GAS  C:\Users\dtjld\AppData\Local\Temp\cccTkoKh.s 			page 29


 1403 08c8 7B6E     		ldr	r3, [r7, #100]
 1404 08ca D943     		mvns	r1, r3
 1405 08cc FB6E     		ldr	r3, [r7, #108]
 1406 08ce 0B40     		ands	r3, r3, r1
 1407 08d0 1A43     		orrs	r2, r2, r3
 1408 08d2 7B6B     		ldr	r3, [r7, #52]
 1409 08d4 1A44     		add	r2, r2, r3
 1410 08d6 7B6D     		ldr	r3, [r7, #84]
 1411 08d8 1A44     		add	r2, r2, r3
 1412 08da 8E4B     		ldr	r3, .L20
 1413 08dc 1344     		add	r3, r3, r2
 1414 08de 7B65     		str	r3, [r7, #84]
 1415 08e0 7B6D     		ldr	r3, [r7, #84]
 1416 08e2 4FEAF343 		ror	r3, r3, #19
 1417 08e6 FA6D     		ldr	r2, [r7, #92]
 1418 08e8 1344     		add	r3, r3, r2
 1419 08ea 7B65     		str	r3, [r7, #84]
 1420 08ec FB6E     		ldr	r3, [r7, #108]
 1421 08ee 4FEAB353 		ror	r3, r3, #22
 1422 08f2 FB66     		str	r3, [r7, #108]
 205:C:/Users/dtjld/workspace/AIoT/src/LiteOS_Lab/iot_link/network/dtls/mbedtls/mbedtls-2.16.2/library\ripemd160.c ****     P2( C, D, E, A, B, 13,  8,  3, 15 );
 1423              		.loc 1 205 0
 1424 08f4 3A6D     		ldr	r2, [r7, #80]
 1425 08f6 BB6C     		ldr	r3, [r7, #72]
 1426 08f8 1A40     		ands	r2, r2, r3
 1427 08fa 3B6D     		ldr	r3, [r7, #80]
 1428 08fc D943     		mvns	r1, r3
 1429 08fe BB6E     		ldr	r3, [r7, #104]
 1430 0900 0B40     		ands	r3, r3, r1
 1431 0902 1A43     		orrs	r2, r2, r3
 1432 0904 FB6B     		ldr	r3, [r7, #60]
 1433 0906 1A44     		add	r2, r2, r3
 1434 0908 BB6D     		ldr	r3, [r7, #88]
 1435 090a 1A44     		add	r2, r2, r3
 1436 090c 824B     		ldr	r3, .L20+4
 1437 090e 1344     		add	r3, r3, r2
 1438 0910 BB65     		str	r3, [r7, #88]
 1439 0912 BB6D     		ldr	r3, [r7, #88]
 1440 0914 4FEA3363 		ror	r3, r3, #24
 1441 0918 3A6E     		ldr	r2, [r7, #96]
 1442 091a 1344     		add	r3, r3, r2
 1443 091c BB65     		str	r3, [r7, #88]
 1444 091e BB6C     		ldr	r3, [r7, #72]
 1445 0920 4FEAB353 		ror	r3, r3, #22
 1446 0924 BB64     		str	r3, [r7, #72]
 1447 0926 7A6D     		ldr	r2, [r7, #84]
 1448 0928 FB6E     		ldr	r3, [r7, #108]
 1449 092a 1A40     		ands	r2, r2, r3
 1450 092c FB6E     		ldr	r3, [r7, #108]
 1451 092e D943     		mvns	r1, r3
 1452 0930 FB6C     		ldr	r3, [r7, #76]
 1453 0932 0B40     		ands	r3, r3, r1
 1454 0934 1A43     		orrs	r2, r2, r3
 1455 0936 7B69     		ldr	r3, [r7, #20]
 1456 0938 1A44     		add	r2, r2, r3
 1457 093a FB6D     		ldr	r3, [r7, #92]
 1458 093c 1A44     		add	r2, r2, r3
ARM GAS  C:\Users\dtjld\AppData\Local\Temp\cccTkoKh.s 			page 30


 1459 093e 754B     		ldr	r3, .L20
 1460 0940 1344     		add	r3, r3, r2
 1461 0942 FB65     		str	r3, [r7, #92]
 1462 0944 FB6D     		ldr	r3, [r7, #92]
 1463 0946 4FEA7343 		ror	r3, r3, #17
 1464 094a 7A6E     		ldr	r2, [r7, #100]
 1465 094c 1344     		add	r3, r3, r2
 1466 094e FB65     		str	r3, [r7, #92]
 1467 0950 FB6C     		ldr	r3, [r7, #76]
 1468 0952 4FEAB353 		ror	r3, r3, #22
 1469 0956 FB64     		str	r3, [r7, #76]
 206:C:/Users/dtjld/workspace/AIoT/src/LiteOS_Lab/iot_link/network/dtls/mbedtls/mbedtls-2.16.2/library\ripemd160.c ****     P2( B, C, D, E, A,  1, 13,  7,  7 );
 1470              		.loc 1 206 0
 1471 0958 BA6D     		ldr	r2, [r7, #88]
 1472 095a 3B6D     		ldr	r3, [r7, #80]
 1473 095c 1A40     		ands	r2, r2, r3
 1474 095e BB6D     		ldr	r3, [r7, #88]
 1475 0960 D943     		mvns	r1, r3
 1476 0962 BB6C     		ldr	r3, [r7, #72]
 1477 0964 0B40     		ands	r3, r3, r1
 1478 0966 1A43     		orrs	r2, r2, r3
 1479 0968 FB68     		ldr	r3, [r7, #12]
 1480 096a 1A44     		add	r2, r2, r3
 1481 096c 3B6E     		ldr	r3, [r7, #96]
 1482 096e 1A44     		add	r2, r2, r3
 1483 0970 694B     		ldr	r3, .L20+4
 1484 0972 1344     		add	r3, r3, r2
 1485 0974 3B66     		str	r3, [r7, #96]
 1486 0976 3B6E     		ldr	r3, [r7, #96]
 1487 0978 4FEAF343 		ror	r3, r3, #19
 1488 097c BA6E     		ldr	r2, [r7, #104]
 1489 097e 1344     		add	r3, r3, r2
 1490 0980 3B66     		str	r3, [r7, #96]
 1491 0982 3B6D     		ldr	r3, [r7, #80]
 1492 0984 4FEAB353 		ror	r3, r3, #22
 1493 0988 3B65     		str	r3, [r7, #80]
 1494 098a FA6D     		ldr	r2, [r7, #92]
 1495 098c FB6C     		ldr	r3, [r7, #76]
 1496 098e 1A40     		ands	r2, r2, r3
 1497 0990 FB6C     		ldr	r3, [r7, #76]
 1498 0992 D943     		mvns	r1, r3
 1499 0994 7B6D     		ldr	r3, [r7, #84]
 1500 0996 0B40     		ands	r3, r3, r1
 1501 0998 1A43     		orrs	r2, r2, r3
 1502 099a 7B6A     		ldr	r3, [r7, #36]
 1503 099c 1A44     		add	r2, r2, r3
 1504 099e 7B6E     		ldr	r3, [r7, #100]
 1505 09a0 1A44     		add	r2, r2, r3
 1506 09a2 5C4B     		ldr	r3, .L20
 1507 09a4 1344     		add	r3, r3, r2
 1508 09a6 7B66     		str	r3, [r7, #100]
 1509 09a8 7B6E     		ldr	r3, [r7, #100]
 1510 09aa 4FEA7363 		ror	r3, r3, #25
 1511 09ae FA6E     		ldr	r2, [r7, #108]
 1512 09b0 1344     		add	r3, r3, r2
 1513 09b2 7B66     		str	r3, [r7, #100]
 1514 09b4 7B6D     		ldr	r3, [r7, #84]
ARM GAS  C:\Users\dtjld\AppData\Local\Temp\cccTkoKh.s 			page 31


 1515 09b6 4FEAB353 		ror	r3, r3, #22
 1516 09ba 7B65     		str	r3, [r7, #84]
 207:C:/Users/dtjld/workspace/AIoT/src/LiteOS_Lab/iot_link/network/dtls/mbedtls/mbedtls-2.16.2/library\ripemd160.c ****     P2( A, B, C, D, E, 10, 11,  0, 12 );
 1517              		.loc 1 207 0
 1518 09bc 3A6E     		ldr	r2, [r7, #96]
 1519 09be BB6D     		ldr	r3, [r7, #88]
 1520 09c0 1A40     		ands	r2, r2, r3
 1521 09c2 3B6E     		ldr	r3, [r7, #96]
 1522 09c4 D943     		mvns	r1, r3
 1523 09c6 3B6D     		ldr	r3, [r7, #80]
 1524 09c8 0B40     		ands	r3, r3, r1
 1525 09ca 1A43     		orrs	r2, r2, r3
 1526 09cc 3B6B     		ldr	r3, [r7, #48]
 1527 09ce 1A44     		add	r2, r2, r3
 1528 09d0 BB6E     		ldr	r3, [r7, #104]
 1529 09d2 1A44     		add	r2, r2, r3
 1530 09d4 504B     		ldr	r3, .L20+4
 1531 09d6 1344     		add	r3, r3, r2
 1532 09d8 BB66     		str	r3, [r7, #104]
 1533 09da BB6E     		ldr	r3, [r7, #104]
 1534 09dc 4FEA7353 		ror	r3, r3, #21
 1535 09e0 BA6C     		ldr	r2, [r7, #72]
 1536 09e2 1344     		add	r3, r3, r2
 1537 09e4 BB66     		str	r3, [r7, #104]
 1538 09e6 BB6D     		ldr	r3, [r7, #88]
 1539 09e8 4FEAB353 		ror	r3, r3, #22
 1540 09ec BB65     		str	r3, [r7, #88]
 1541 09ee 7A6E     		ldr	r2, [r7, #100]
 1542 09f0 7B6D     		ldr	r3, [r7, #84]
 1543 09f2 1A40     		ands	r2, r2, r3
 1544 09f4 7B6D     		ldr	r3, [r7, #84]
 1545 09f6 D943     		mvns	r1, r3
 1546 09f8 FB6D     		ldr	r3, [r7, #92]
 1547 09fa 0B40     		ands	r3, r3, r1
 1548 09fc 1A43     		orrs	r2, r2, r3
 1549 09fe BB68     		ldr	r3, [r7, #8]
 1550 0a00 1A44     		add	r2, r2, r3
 1551 0a02 FB6E     		ldr	r3, [r7, #108]
 1552 0a04 1A44     		add	r2, r2, r3
 1553 0a06 434B     		ldr	r3, .L20
 1554 0a08 1344     		add	r3, r3, r2
 1555 0a0a FB66     		str	r3, [r7, #108]
 1556 0a0c FB6E     		ldr	r3, [r7, #108]
 1557 0a0e 4FEA3353 		ror	r3, r3, #20
 1558 0a12 FA6C     		ldr	r2, [r7, #76]
 1559 0a14 1344     		add	r3, r3, r2
 1560 0a16 FB66     		str	r3, [r7, #108]
 1561 0a18 FB6D     		ldr	r3, [r7, #92]
 1562 0a1a 4FEAB353 		ror	r3, r3, #22
 1563 0a1e FB65     		str	r3, [r7, #92]
 208:C:/Users/dtjld/workspace/AIoT/src/LiteOS_Lab/iot_link/network/dtls/mbedtls/mbedtls-2.16.2/library\ripemd160.c ****     P2( E, A, B, C, D,  6,  9, 13,  8 );
 1564              		.loc 1 208 0
 1565 0a20 BA6E     		ldr	r2, [r7, #104]
 1566 0a22 3B6E     		ldr	r3, [r7, #96]
 1567 0a24 1A40     		ands	r2, r2, r3
 1568 0a26 BB6E     		ldr	r3, [r7, #104]
 1569 0a28 D943     		mvns	r1, r3
ARM GAS  C:\Users\dtjld\AppData\Local\Temp\cccTkoKh.s 			page 32


 1570 0a2a BB6D     		ldr	r3, [r7, #88]
 1571 0a2c 0B40     		ands	r3, r3, r1
 1572 0a2e 1A43     		orrs	r2, r2, r3
 1573 0a30 3B6A     		ldr	r3, [r7, #32]
 1574 0a32 1A44     		add	r2, r2, r3
 1575 0a34 BB6C     		ldr	r3, [r7, #72]
 1576 0a36 1A44     		add	r2, r2, r3
 1577 0a38 374B     		ldr	r3, .L20+4
 1578 0a3a 1344     		add	r3, r3, r2
 1579 0a3c BB64     		str	r3, [r7, #72]
 1580 0a3e BB6C     		ldr	r3, [r7, #72]
 1581 0a40 4FEAF353 		ror	r3, r3, #23
 1582 0a44 3A6D     		ldr	r2, [r7, #80]
 1583 0a46 1344     		add	r3, r3, r2
 1584 0a48 BB64     		str	r3, [r7, #72]
 1585 0a4a 3B6E     		ldr	r3, [r7, #96]
 1586 0a4c 4FEAB353 		ror	r3, r3, #22
 1587 0a50 3B66     		str	r3, [r7, #96]
 1588 0a52 FA6E     		ldr	r2, [r7, #108]
 1589 0a54 FB6D     		ldr	r3, [r7, #92]
 1590 0a56 1A40     		ands	r2, r2, r3
 1591 0a58 FB6D     		ldr	r3, [r7, #92]
 1592 0a5a D943     		mvns	r1, r3
 1593 0a5c 7B6E     		ldr	r3, [r7, #100]
 1594 0a5e 0B40     		ands	r3, r3, r1
 1595 0a60 1A43     		orrs	r2, r2, r3
 1596 0a62 FB6B     		ldr	r3, [r7, #60]
 1597 0a64 1A44     		add	r2, r2, r3
 1598 0a66 FB6C     		ldr	r3, [r7, #76]
 1599 0a68 1A44     		add	r2, r2, r3
 1600 0a6a 2A4B     		ldr	r3, .L20
 1601 0a6c 1344     		add	r3, r3, r2
 1602 0a6e FB64     		str	r3, [r7, #76]
 1603 0a70 FB6C     		ldr	r3, [r7, #76]
 1604 0a72 4FEA3363 		ror	r3, r3, #24
 1605 0a76 7A6D     		ldr	r2, [r7, #84]
 1606 0a78 1344     		add	r3, r3, r2
 1607 0a7a FB64     		str	r3, [r7, #76]
 1608 0a7c 7B6E     		ldr	r3, [r7, #100]
 1609 0a7e 4FEAB353 		ror	r3, r3, #22
 1610 0a82 7B66     		str	r3, [r7, #100]
 209:C:/Users/dtjld/workspace/AIoT/src/LiteOS_Lab/iot_link/network/dtls/mbedtls/mbedtls-2.16.2/library\ripemd160.c ****     P2( D, E, A, B, C, 15,  7,  5,  9 );
 1611              		.loc 1 209 0
 1612 0a84 BA6C     		ldr	r2, [r7, #72]
 1613 0a86 BB6E     		ldr	r3, [r7, #104]
 1614 0a88 1A40     		ands	r2, r2, r3
 1615 0a8a BB6C     		ldr	r3, [r7, #72]
 1616 0a8c D943     		mvns	r1, r3
 1617 0a8e 3B6E     		ldr	r3, [r7, #96]
 1618 0a90 0B40     		ands	r3, r3, r1
 1619 0a92 1A43     		orrs	r2, r2, r3
 1620 0a94 7B6C     		ldr	r3, [r7, #68]
 1621 0a96 1A44     		add	r2, r2, r3
 1622 0a98 3B6D     		ldr	r3, [r7, #80]
 1623 0a9a 1A44     		add	r2, r2, r3
 1624 0a9c 1E4B     		ldr	r3, .L20+4
 1625 0a9e 1344     		add	r3, r3, r2
ARM GAS  C:\Users\dtjld\AppData\Local\Temp\cccTkoKh.s 			page 33


 1626 0aa0 3B65     		str	r3, [r7, #80]
 1627 0aa2 3B6D     		ldr	r3, [r7, #80]
 1628 0aa4 4FEA7363 		ror	r3, r3, #25
 1629 0aa8 BA6D     		ldr	r2, [r7, #88]
 1630 0aaa 1344     		add	r3, r3, r2
 1631 0aac 3B65     		str	r3, [r7, #80]
 1632 0aae BB6E     		ldr	r3, [r7, #104]
 1633 0ab0 4FEAB353 		ror	r3, r3, #22
 1634 0ab4 BB66     		str	r3, [r7, #104]
 1635 0ab6 FA6C     		ldr	r2, [r7, #76]
 1636 0ab8 7B6E     		ldr	r3, [r7, #100]
 1637 0aba 1A40     		ands	r2, r2, r3
 1638 0abc 7B6E     		ldr	r3, [r7, #100]
 1639 0abe D943     		mvns	r1, r3
 1640 0ac0 FB6E     		ldr	r3, [r7, #108]
 1641 0ac2 0B40     		ands	r3, r3, r1
 1642 0ac4 1A43     		orrs	r2, r2, r3
 1643 0ac6 FB69     		ldr	r3, [r7, #28]
 1644 0ac8 1A44     		add	r2, r2, r3
 1645 0aca 7B6D     		ldr	r3, [r7, #84]
 1646 0acc 1A44     		add	r2, r2, r3
 1647 0ace 114B     		ldr	r3, .L20
 1648 0ad0 1344     		add	r3, r3, r2
 1649 0ad2 7B65     		str	r3, [r7, #84]
 1650 0ad4 7B6D     		ldr	r3, [r7, #84]
 1651 0ad6 4FEAF353 		ror	r3, r3, #23
 1652 0ada FA6D     		ldr	r2, [r7, #92]
 1653 0adc 1344     		add	r3, r3, r2
 1654 0ade 7B65     		str	r3, [r7, #84]
 1655 0ae0 FB6E     		ldr	r3, [r7, #108]
 1656 0ae2 4FEAB353 		ror	r3, r3, #22
 1657 0ae6 FB66     		str	r3, [r7, #108]
 210:C:/Users/dtjld/workspace/AIoT/src/LiteOS_Lab/iot_link/network/dtls/mbedtls/mbedtls-2.16.2/library\ripemd160.c ****     P2( C, D, E, A, B,  3, 15, 10, 11 );
 1658              		.loc 1 210 0
 1659 0ae8 3A6D     		ldr	r2, [r7, #80]
 1660 0aea BB6C     		ldr	r3, [r7, #72]
 1661 0aec 1A40     		ands	r2, r2, r3
 1662 0aee 3B6D     		ldr	r3, [r7, #80]
 1663 0af0 D943     		mvns	r1, r3
 1664 0af2 BB6E     		ldr	r3, [r7, #104]
 1665 0af4 0B40     		ands	r3, r3, r1
 1666 0af6 1A43     		orrs	r2, r2, r3
 1667 0af8 7B69     		ldr	r3, [r7, #20]
 1668 0afa 1A44     		add	r2, r2, r3
 1669 0afc BB6D     		ldr	r3, [r7, #88]
 1670 0afe 1A44     		add	r2, r2, r3
 1671 0b00 054B     		ldr	r3, .L20+4
 1672 0b02 1344     		add	r3, r3, r2
 1673 0b04 BB65     		str	r3, [r7, #88]
 1674 0b06 BB6D     		ldr	r3, [r7, #88]
 1675 0b08 4FEA7343 		ror	r3, r3, #17
 1676 0b0c 3A6E     		ldr	r2, [r7, #96]
 1677 0b0e 1344     		add	r3, r3, r2
 1678 0b10 BB65     		str	r3, [r7, #88]
 1679 0b12 03E0     		b	.L21
 1680              	.L22:
 1681              		.align	2
ARM GAS  C:\Users\dtjld\AppData\Local\Temp\cccTkoKh.s 			page 34


 1682              	.L20:
 1683 0b14 24D14D5C 		.word	1548603684
 1684 0b18 9979825A 		.word	1518500249
 1685              	.L21:
 1686 0b1c BB6C     		ldr	r3, [r7, #72]
 1687 0b1e 4FEAB353 		ror	r3, r3, #22
 1688 0b22 BB64     		str	r3, [r7, #72]
 1689 0b24 7A6D     		ldr	r2, [r7, #84]
 1690 0b26 FB6E     		ldr	r3, [r7, #108]
 1691 0b28 1A40     		ands	r2, r2, r3
 1692 0b2a FB6E     		ldr	r3, [r7, #108]
 1693 0b2c D943     		mvns	r1, r3
 1694 0b2e FB6C     		ldr	r3, [r7, #76]
 1695 0b30 0B40     		ands	r3, r3, r1
 1696 0b32 1A43     		orrs	r2, r2, r3
 1697 0b34 3B6B     		ldr	r3, [r7, #48]
 1698 0b36 1A44     		add	r2, r2, r3
 1699 0b38 FB6D     		ldr	r3, [r7, #92]
 1700 0b3a 1A44     		add	r2, r2, r3
 1701 0b3c A74B     		ldr	r3, .L23
 1702 0b3e 1344     		add	r3, r3, r2
 1703 0b40 FB65     		str	r3, [r7, #92]
 1704 0b42 FB6D     		ldr	r3, [r7, #92]
 1705 0b44 4FEA7353 		ror	r3, r3, #21
 1706 0b48 7A6E     		ldr	r2, [r7, #100]
 1707 0b4a 1344     		add	r3, r3, r2
 1708 0b4c FB65     		str	r3, [r7, #92]
 1709 0b4e FB6C     		ldr	r3, [r7, #76]
 1710 0b50 4FEAB353 		ror	r3, r3, #22
 1711 0b54 FB64     		str	r3, [r7, #76]
 211:C:/Users/dtjld/workspace/AIoT/src/LiteOS_Lab/iot_link/network/dtls/mbedtls/mbedtls-2.16.2/library\ripemd160.c ****     P2( B, C, D, E, A, 12,  7, 14,  7 );
 1712              		.loc 1 211 0
 1713 0b56 BA6D     		ldr	r2, [r7, #88]
 1714 0b58 3B6D     		ldr	r3, [r7, #80]
 1715 0b5a 1A40     		ands	r2, r2, r3
 1716 0b5c BB6D     		ldr	r3, [r7, #88]
 1717 0b5e D943     		mvns	r1, r3
 1718 0b60 BB6C     		ldr	r3, [r7, #72]
 1719 0b62 0B40     		ands	r3, r3, r1
 1720 0b64 1A43     		orrs	r2, r2, r3
 1721 0b66 BB6B     		ldr	r3, [r7, #56]
 1722 0b68 1A44     		add	r2, r2, r3
 1723 0b6a 3B6E     		ldr	r3, [r7, #96]
 1724 0b6c 1A44     		add	r2, r2, r3
 1725 0b6e 9C4B     		ldr	r3, .L23+4
 1726 0b70 1344     		add	r3, r3, r2
 1727 0b72 3B66     		str	r3, [r7, #96]
 1728 0b74 3B6E     		ldr	r3, [r7, #96]
 1729 0b76 4FEA7363 		ror	r3, r3, #25
 1730 0b7a BA6E     		ldr	r2, [r7, #104]
 1731 0b7c 1344     		add	r3, r3, r2
 1732 0b7e 3B66     		str	r3, [r7, #96]
 1733 0b80 3B6D     		ldr	r3, [r7, #80]
 1734 0b82 4FEAB353 		ror	r3, r3, #22
 1735 0b86 3B65     		str	r3, [r7, #80]
 1736 0b88 FA6D     		ldr	r2, [r7, #92]
 1737 0b8a FB6C     		ldr	r3, [r7, #76]
ARM GAS  C:\Users\dtjld\AppData\Local\Temp\cccTkoKh.s 			page 35


 1738 0b8c 1A40     		ands	r2, r2, r3
 1739 0b8e FB6C     		ldr	r3, [r7, #76]
 1740 0b90 D943     		mvns	r1, r3
 1741 0b92 7B6D     		ldr	r3, [r7, #84]
 1742 0b94 0B40     		ands	r3, r3, r1
 1743 0b96 1A43     		orrs	r2, r2, r3
 1744 0b98 3B6C     		ldr	r3, [r7, #64]
 1745 0b9a 1A44     		add	r2, r2, r3
 1746 0b9c 7B6E     		ldr	r3, [r7, #100]
 1747 0b9e 1A44     		add	r2, r2, r3
 1748 0ba0 8E4B     		ldr	r3, .L23
 1749 0ba2 1344     		add	r3, r3, r2
 1750 0ba4 7B66     		str	r3, [r7, #100]
 1751 0ba6 7B6E     		ldr	r3, [r7, #100]
 1752 0ba8 4FEA7363 		ror	r3, r3, #25
 1753 0bac FA6E     		ldr	r2, [r7, #108]
 1754 0bae 1344     		add	r3, r3, r2
 1755 0bb0 7B66     		str	r3, [r7, #100]
 1756 0bb2 7B6D     		ldr	r3, [r7, #84]
 1757 0bb4 4FEAB353 		ror	r3, r3, #22
 1758 0bb8 7B65     		str	r3, [r7, #84]
 212:C:/Users/dtjld/workspace/AIoT/src/LiteOS_Lab/iot_link/network/dtls/mbedtls/mbedtls-2.16.2/library\ripemd160.c ****     P2( A, B, C, D, E,  0, 12, 15,  7 );
 1759              		.loc 1 212 0
 1760 0bba 3A6E     		ldr	r2, [r7, #96]
 1761 0bbc BB6D     		ldr	r3, [r7, #88]
 1762 0bbe 1A40     		ands	r2, r2, r3
 1763 0bc0 3B6E     		ldr	r3, [r7, #96]
 1764 0bc2 D943     		mvns	r1, r3
 1765 0bc4 3B6D     		ldr	r3, [r7, #80]
 1766 0bc6 0B40     		ands	r3, r3, r1
 1767 0bc8 1A43     		orrs	r2, r2, r3
 1768 0bca BB68     		ldr	r3, [r7, #8]
 1769 0bcc 1A44     		add	r2, r2, r3
 1770 0bce BB6E     		ldr	r3, [r7, #104]
 1771 0bd0 1A44     		add	r2, r2, r3
 1772 0bd2 834B     		ldr	r3, .L23+4
 1773 0bd4 1344     		add	r3, r3, r2
 1774 0bd6 BB66     		str	r3, [r7, #104]
 1775 0bd8 BB6E     		ldr	r3, [r7, #104]
 1776 0bda 4FEA3353 		ror	r3, r3, #20
 1777 0bde BA6C     		ldr	r2, [r7, #72]
 1778 0be0 1344     		add	r3, r3, r2
 1779 0be2 BB66     		str	r3, [r7, #104]
 1780 0be4 BB6D     		ldr	r3, [r7, #88]
 1781 0be6 4FEAB353 		ror	r3, r3, #22
 1782 0bea BB65     		str	r3, [r7, #88]
 1783 0bec 7A6E     		ldr	r2, [r7, #100]
 1784 0bee 7B6D     		ldr	r3, [r7, #84]
 1785 0bf0 1A40     		ands	r2, r2, r3
 1786 0bf2 7B6D     		ldr	r3, [r7, #84]
 1787 0bf4 D943     		mvns	r1, r3
 1788 0bf6 FB6D     		ldr	r3, [r7, #92]
 1789 0bf8 0B40     		ands	r3, r3, r1
 1790 0bfa 1A43     		orrs	r2, r2, r3
 1791 0bfc 7B6C     		ldr	r3, [r7, #68]
 1792 0bfe 1A44     		add	r2, r2, r3
 1793 0c00 FB6E     		ldr	r3, [r7, #108]
ARM GAS  C:\Users\dtjld\AppData\Local\Temp\cccTkoKh.s 			page 36


 1794 0c02 1A44     		add	r2, r2, r3
 1795 0c04 754B     		ldr	r3, .L23
 1796 0c06 1344     		add	r3, r3, r2
 1797 0c08 FB66     		str	r3, [r7, #108]
 1798 0c0a FB6E     		ldr	r3, [r7, #108]
 1799 0c0c 4FEA7363 		ror	r3, r3, #25
 1800 0c10 FA6C     		ldr	r2, [r7, #76]
 1801 0c12 1344     		add	r3, r3, r2
 1802 0c14 FB66     		str	r3, [r7, #108]
 1803 0c16 FB6D     		ldr	r3, [r7, #92]
 1804 0c18 4FEAB353 		ror	r3, r3, #22
 1805 0c1c FB65     		str	r3, [r7, #92]
 213:C:/Users/dtjld/workspace/AIoT/src/LiteOS_Lab/iot_link/network/dtls/mbedtls/mbedtls-2.16.2/library\ripemd160.c ****     P2( E, A, B, C, D,  9, 15,  8, 12 );
 1806              		.loc 1 213 0
 1807 0c1e BA6E     		ldr	r2, [r7, #104]
 1808 0c20 3B6E     		ldr	r3, [r7, #96]
 1809 0c22 1A40     		ands	r2, r2, r3
 1810 0c24 BB6E     		ldr	r3, [r7, #104]
 1811 0c26 D943     		mvns	r1, r3
 1812 0c28 BB6D     		ldr	r3, [r7, #88]
 1813 0c2a 0B40     		ands	r3, r3, r1
 1814 0c2c 1A43     		orrs	r2, r2, r3
 1815 0c2e FB6A     		ldr	r3, [r7, #44]
 1816 0c30 1A44     		add	r2, r2, r3
 1817 0c32 BB6C     		ldr	r3, [r7, #72]
 1818 0c34 1A44     		add	r2, r2, r3
 1819 0c36 6A4B     		ldr	r3, .L23+4
 1820 0c38 1344     		add	r3, r3, r2
 1821 0c3a BB64     		str	r3, [r7, #72]
 1822 0c3c BB6C     		ldr	r3, [r7, #72]
 1823 0c3e 4FEA7343 		ror	r3, r3, #17
 1824 0c42 3A6D     		ldr	r2, [r7, #80]
 1825 0c44 1344     		add	r3, r3, r2
 1826 0c46 BB64     		str	r3, [r7, #72]
 1827 0c48 3B6E     		ldr	r3, [r7, #96]
 1828 0c4a 4FEAB353 		ror	r3, r3, #22
 1829 0c4e 3B66     		str	r3, [r7, #96]
 1830 0c50 FA6E     		ldr	r2, [r7, #108]
 1831 0c52 FB6D     		ldr	r3, [r7, #92]
 1832 0c54 1A40     		ands	r2, r2, r3
 1833 0c56 FB6D     		ldr	r3, [r7, #92]
 1834 0c58 D943     		mvns	r1, r3
 1835 0c5a 7B6E     		ldr	r3, [r7, #100]
 1836 0c5c 0B40     		ands	r3, r3, r1
 1837 0c5e 1A43     		orrs	r2, r2, r3
 1838 0c60 BB6A     		ldr	r3, [r7, #40]
 1839 0c62 1A44     		add	r2, r2, r3
 1840 0c64 FB6C     		ldr	r3, [r7, #76]
 1841 0c66 1A44     		add	r2, r2, r3
 1842 0c68 5C4B     		ldr	r3, .L23
 1843 0c6a 1344     		add	r3, r3, r2
 1844 0c6c FB64     		str	r3, [r7, #76]
 1845 0c6e FB6C     		ldr	r3, [r7, #76]
 1846 0c70 4FEA3353 		ror	r3, r3, #20
 1847 0c74 7A6D     		ldr	r2, [r7, #84]
 1848 0c76 1344     		add	r3, r3, r2
 1849 0c78 FB64     		str	r3, [r7, #76]
ARM GAS  C:\Users\dtjld\AppData\Local\Temp\cccTkoKh.s 			page 37


 1850 0c7a 7B6E     		ldr	r3, [r7, #100]
 1851 0c7c 4FEAB353 		ror	r3, r3, #22
 1852 0c80 7B66     		str	r3, [r7, #100]
 214:C:/Users/dtjld/workspace/AIoT/src/LiteOS_Lab/iot_link/network/dtls/mbedtls/mbedtls-2.16.2/library\ripemd160.c ****     P2( D, E, A, B, C,  5,  9, 12,  7 );
 1853              		.loc 1 214 0
 1854 0c82 BA6C     		ldr	r2, [r7, #72]
 1855 0c84 BB6E     		ldr	r3, [r7, #104]
 1856 0c86 1A40     		ands	r2, r2, r3
 1857 0c88 BB6C     		ldr	r3, [r7, #72]
 1858 0c8a D943     		mvns	r1, r3
 1859 0c8c 3B6E     		ldr	r3, [r7, #96]
 1860 0c8e 0B40     		ands	r3, r3, r1
 1861 0c90 1A43     		orrs	r2, r2, r3
 1862 0c92 FB69     		ldr	r3, [r7, #28]
 1863 0c94 1A44     		add	r2, r2, r3
 1864 0c96 3B6D     		ldr	r3, [r7, #80]
 1865 0c98 1A44     		add	r2, r2, r3
 1866 0c9a 514B     		ldr	r3, .L23+4
 1867 0c9c 1344     		add	r3, r3, r2
 1868 0c9e 3B65     		str	r3, [r7, #80]
 1869 0ca0 3B6D     		ldr	r3, [r7, #80]
 1870 0ca2 4FEAF353 		ror	r3, r3, #23
 1871 0ca6 BA6D     		ldr	r2, [r7, #88]
 1872 0ca8 1344     		add	r3, r3, r2
 1873 0caa 3B65     		str	r3, [r7, #80]
 1874 0cac BB6E     		ldr	r3, [r7, #104]
 1875 0cae 4FEAB353 		ror	r3, r3, #22
 1876 0cb2 BB66     		str	r3, [r7, #104]
 1877 0cb4 FA6C     		ldr	r2, [r7, #76]
 1878 0cb6 7B6E     		ldr	r3, [r7, #100]
 1879 0cb8 1A40     		ands	r2, r2, r3
 1880 0cba 7B6E     		ldr	r3, [r7, #100]
 1881 0cbc D943     		mvns	r1, r3
 1882 0cbe FB6E     		ldr	r3, [r7, #108]
 1883 0cc0 0B40     		ands	r3, r3, r1
 1884 0cc2 1A43     		orrs	r2, r2, r3
 1885 0cc4 BB6B     		ldr	r3, [r7, #56]
 1886 0cc6 1A44     		add	r2, r2, r3
 1887 0cc8 7B6D     		ldr	r3, [r7, #84]
 1888 0cca 1A44     		add	r2, r2, r3
 1889 0ccc 434B     		ldr	r3, .L23
 1890 0cce 1344     		add	r3, r3, r2
 1891 0cd0 7B65     		str	r3, [r7, #84]
 1892 0cd2 7B6D     		ldr	r3, [r7, #84]
 1893 0cd4 4FEA7363 		ror	r3, r3, #25
 1894 0cd8 FA6D     		ldr	r2, [r7, #92]
 1895 0cda 1344     		add	r3, r3, r2
 1896 0cdc 7B65     		str	r3, [r7, #84]
 1897 0cde FB6E     		ldr	r3, [r7, #108]
 1898 0ce0 4FEAB353 		ror	r3, r3, #22
 1899 0ce4 FB66     		str	r3, [r7, #108]
 215:C:/Users/dtjld/workspace/AIoT/src/LiteOS_Lab/iot_link/network/dtls/mbedtls/mbedtls-2.16.2/library\ripemd160.c ****     P2( C, D, E, A, B,  2, 11,  4,  6 );
 1900              		.loc 1 215 0
 1901 0ce6 3A6D     		ldr	r2, [r7, #80]
 1902 0ce8 BB6C     		ldr	r3, [r7, #72]
 1903 0cea 1A40     		ands	r2, r2, r3
 1904 0cec 3B6D     		ldr	r3, [r7, #80]
ARM GAS  C:\Users\dtjld\AppData\Local\Temp\cccTkoKh.s 			page 38


 1905 0cee D943     		mvns	r1, r3
 1906 0cf0 BB6E     		ldr	r3, [r7, #104]
 1907 0cf2 0B40     		ands	r3, r3, r1
 1908 0cf4 1A43     		orrs	r2, r2, r3
 1909 0cf6 3B69     		ldr	r3, [r7, #16]
 1910 0cf8 1A44     		add	r2, r2, r3
 1911 0cfa BB6D     		ldr	r3, [r7, #88]
 1912 0cfc 1A44     		add	r2, r2, r3
 1913 0cfe 384B     		ldr	r3, .L23+4
 1914 0d00 1344     		add	r3, r3, r2
 1915 0d02 BB65     		str	r3, [r7, #88]
 1916 0d04 BB6D     		ldr	r3, [r7, #88]
 1917 0d06 4FEA7353 		ror	r3, r3, #21
 1918 0d0a 3A6E     		ldr	r2, [r7, #96]
 1919 0d0c 1344     		add	r3, r3, r2
 1920 0d0e BB65     		str	r3, [r7, #88]
 1921 0d10 BB6C     		ldr	r3, [r7, #72]
 1922 0d12 4FEAB353 		ror	r3, r3, #22
 1923 0d16 BB64     		str	r3, [r7, #72]
 1924 0d18 7A6D     		ldr	r2, [r7, #84]
 1925 0d1a FB6E     		ldr	r3, [r7, #108]
 1926 0d1c 1A40     		ands	r2, r2, r3
 1927 0d1e FB6E     		ldr	r3, [r7, #108]
 1928 0d20 D943     		mvns	r1, r3
 1929 0d22 FB6C     		ldr	r3, [r7, #76]
 1930 0d24 0B40     		ands	r3, r3, r1
 1931 0d26 1A43     		orrs	r2, r2, r3
 1932 0d28 BB69     		ldr	r3, [r7, #24]
 1933 0d2a 1A44     		add	r2, r2, r3
 1934 0d2c FB6D     		ldr	r3, [r7, #92]
 1935 0d2e 1A44     		add	r2, r2, r3
 1936 0d30 2A4B     		ldr	r3, .L23
 1937 0d32 1344     		add	r3, r3, r2
 1938 0d34 FB65     		str	r3, [r7, #92]
 1939 0d36 FB6D     		ldr	r3, [r7, #92]
 1940 0d38 4FEAB363 		ror	r3, r3, #26
 1941 0d3c 7A6E     		ldr	r2, [r7, #100]
 1942 0d3e 1344     		add	r3, r3, r2
 1943 0d40 FB65     		str	r3, [r7, #92]
 1944 0d42 FB6C     		ldr	r3, [r7, #76]
 1945 0d44 4FEAB353 		ror	r3, r3, #22
 1946 0d48 FB64     		str	r3, [r7, #76]
 216:C:/Users/dtjld/workspace/AIoT/src/LiteOS_Lab/iot_link/network/dtls/mbedtls/mbedtls-2.16.2/library\ripemd160.c ****     P2( B, C, D, E, A, 14,  7,  9, 15 );
 1947              		.loc 1 216 0
 1948 0d4a BA6D     		ldr	r2, [r7, #88]
 1949 0d4c 3B6D     		ldr	r3, [r7, #80]
 1950 0d4e 1A40     		ands	r2, r2, r3
 1951 0d50 BB6D     		ldr	r3, [r7, #88]
 1952 0d52 D943     		mvns	r1, r3
 1953 0d54 BB6C     		ldr	r3, [r7, #72]
 1954 0d56 0B40     		ands	r3, r3, r1
 1955 0d58 1A43     		orrs	r2, r2, r3
 1956 0d5a 3B6C     		ldr	r3, [r7, #64]
 1957 0d5c 1A44     		add	r2, r2, r3
 1958 0d5e 3B6E     		ldr	r3, [r7, #96]
 1959 0d60 1A44     		add	r2, r2, r3
 1960 0d62 1F4B     		ldr	r3, .L23+4
ARM GAS  C:\Users\dtjld\AppData\Local\Temp\cccTkoKh.s 			page 39


 1961 0d64 1344     		add	r3, r3, r2
 1962 0d66 3B66     		str	r3, [r7, #96]
 1963 0d68 3B6E     		ldr	r3, [r7, #96]
 1964 0d6a 4FEA7363 		ror	r3, r3, #25
 1965 0d6e BA6E     		ldr	r2, [r7, #104]
 1966 0d70 1344     		add	r3, r3, r2
 1967 0d72 3B66     		str	r3, [r7, #96]
 1968 0d74 3B6D     		ldr	r3, [r7, #80]
 1969 0d76 4FEAB353 		ror	r3, r3, #22
 1970 0d7a 3B65     		str	r3, [r7, #80]
 1971 0d7c FA6D     		ldr	r2, [r7, #92]
 1972 0d7e FB6C     		ldr	r3, [r7, #76]
 1973 0d80 1A40     		ands	r2, r2, r3
 1974 0d82 FB6C     		ldr	r3, [r7, #76]
 1975 0d84 D943     		mvns	r1, r3
 1976 0d86 7B6D     		ldr	r3, [r7, #84]
 1977 0d88 0B40     		ands	r3, r3, r1
 1978 0d8a 1A43     		orrs	r2, r2, r3
 1979 0d8c FB6A     		ldr	r3, [r7, #44]
 1980 0d8e 1A44     		add	r2, r2, r3
 1981 0d90 7B6E     		ldr	r3, [r7, #100]
 1982 0d92 1A44     		add	r2, r2, r3
 1983 0d94 114B     		ldr	r3, .L23
 1984 0d96 1344     		add	r3, r3, r2
 1985 0d98 7B66     		str	r3, [r7, #100]
 1986 0d9a 7B6E     		ldr	r3, [r7, #100]
 1987 0d9c 4FEA7343 		ror	r3, r3, #17
 1988 0da0 FA6E     		ldr	r2, [r7, #108]
 1989 0da2 1344     		add	r3, r3, r2
 1990 0da4 7B66     		str	r3, [r7, #100]
 1991 0da6 7B6D     		ldr	r3, [r7, #84]
 1992 0da8 4FEAB353 		ror	r3, r3, #22
 1993 0dac 7B65     		str	r3, [r7, #84]
 217:C:/Users/dtjld/workspace/AIoT/src/LiteOS_Lab/iot_link/network/dtls/mbedtls/mbedtls-2.16.2/library\ripemd160.c ****     P2( A, B, C, D, E, 11, 13,  1, 13 );
 1994              		.loc 1 217 0
 1995 0dae 3A6E     		ldr	r2, [r7, #96]
 1996 0db0 BB6D     		ldr	r3, [r7, #88]
 1997 0db2 1A40     		ands	r2, r2, r3
 1998 0db4 3B6E     		ldr	r3, [r7, #96]
 1999 0db6 D943     		mvns	r1, r3
 2000 0db8 3B6D     		ldr	r3, [r7, #80]
 2001 0dba 0B40     		ands	r3, r3, r1
 2002 0dbc 1A43     		orrs	r2, r2, r3
 2003 0dbe 7B6B     		ldr	r3, [r7, #52]
 2004 0dc0 1A44     		add	r2, r2, r3
 2005 0dc2 BB6E     		ldr	r3, [r7, #104]
 2006 0dc4 1A44     		add	r2, r2, r3
 2007 0dc6 064B     		ldr	r3, .L23+4
 2008 0dc8 1344     		add	r3, r3, r2
 2009 0dca BB66     		str	r3, [r7, #104]
 2010 0dcc BB6E     		ldr	r3, [r7, #104]
 2011 0dce 4FEAF343 		ror	r3, r3, #19
 2012 0dd2 BA6C     		ldr	r2, [r7, #72]
 2013 0dd4 1344     		add	r3, r3, r2
 2014 0dd6 BB66     		str	r3, [r7, #104]
 2015 0dd8 04E0     		b	.L24
 2016              	.L25:
ARM GAS  C:\Users\dtjld\AppData\Local\Temp\cccTkoKh.s 			page 40


 2017 0dda 00BF     		.align	2
 2018              	.L23:
 2019 0ddc 24D14D5C 		.word	1548603684
 2020 0de0 9979825A 		.word	1518500249
 2021              	.L24:
 2022 0de4 BB6D     		ldr	r3, [r7, #88]
 2023 0de6 4FEAB353 		ror	r3, r3, #22
 2024 0dea BB65     		str	r3, [r7, #88]
 2025 0dec 7A6E     		ldr	r2, [r7, #100]
 2026 0dee 7B6D     		ldr	r3, [r7, #84]
 2027 0df0 1A40     		ands	r2, r2, r3
 2028 0df2 7B6D     		ldr	r3, [r7, #84]
 2029 0df4 D943     		mvns	r1, r3
 2030 0df6 FB6D     		ldr	r3, [r7, #92]
 2031 0df8 0B40     		ands	r3, r3, r1
 2032 0dfa 1A43     		orrs	r2, r2, r3
 2033 0dfc FB68     		ldr	r3, [r7, #12]
 2034 0dfe 1A44     		add	r2, r2, r3
 2035 0e00 FB6E     		ldr	r3, [r7, #108]
 2036 0e02 1A44     		add	r2, r2, r3
 2037 0e04 A74B     		ldr	r3, .L26
 2038 0e06 1344     		add	r3, r3, r2
 2039 0e08 FB66     		str	r3, [r7, #108]
 2040 0e0a FB6E     		ldr	r3, [r7, #108]
 2041 0e0c 4FEAF343 		ror	r3, r3, #19
 2042 0e10 FA6C     		ldr	r2, [r7, #76]
 2043 0e12 1344     		add	r3, r3, r2
 2044 0e14 FB66     		str	r3, [r7, #108]
 2045 0e16 FB6D     		ldr	r3, [r7, #92]
 2046 0e18 4FEAB353 		ror	r3, r3, #22
 2047 0e1c FB65     		str	r3, [r7, #92]
 218:C:/Users/dtjld/workspace/AIoT/src/LiteOS_Lab/iot_link/network/dtls/mbedtls/mbedtls-2.16.2/library\ripemd160.c ****     P2( E, A, B, C, D,  8, 12,  2, 11 );
 2048              		.loc 1 218 0
 2049 0e1e BA6E     		ldr	r2, [r7, #104]
 2050 0e20 3B6E     		ldr	r3, [r7, #96]
 2051 0e22 1A40     		ands	r2, r2, r3
 2052 0e24 BB6E     		ldr	r3, [r7, #104]
 2053 0e26 D943     		mvns	r1, r3
 2054 0e28 BB6D     		ldr	r3, [r7, #88]
 2055 0e2a 0B40     		ands	r3, r3, r1
 2056 0e2c 1A43     		orrs	r2, r2, r3
 2057 0e2e BB6A     		ldr	r3, [r7, #40]
 2058 0e30 1A44     		add	r2, r2, r3
 2059 0e32 BB6C     		ldr	r3, [r7, #72]
 2060 0e34 1A44     		add	r2, r2, r3
 2061 0e36 9C4B     		ldr	r3, .L26+4
 2062 0e38 1344     		add	r3, r3, r2
 2063 0e3a BB64     		str	r3, [r7, #72]
 2064 0e3c BB6C     		ldr	r3, [r7, #72]
 2065 0e3e 4FEA3353 		ror	r3, r3, #20
 2066 0e42 3A6D     		ldr	r2, [r7, #80]
 2067 0e44 1344     		add	r3, r3, r2
 2068 0e46 BB64     		str	r3, [r7, #72]
 2069 0e48 3B6E     		ldr	r3, [r7, #96]
 2070 0e4a 4FEAB353 		ror	r3, r3, #22
 2071 0e4e 3B66     		str	r3, [r7, #96]
 2072 0e50 FA6E     		ldr	r2, [r7, #108]
ARM GAS  C:\Users\dtjld\AppData\Local\Temp\cccTkoKh.s 			page 41


 2073 0e52 FB6D     		ldr	r3, [r7, #92]
 2074 0e54 1A40     		ands	r2, r2, r3
 2075 0e56 FB6D     		ldr	r3, [r7, #92]
 2076 0e58 D943     		mvns	r1, r3
 2077 0e5a 7B6E     		ldr	r3, [r7, #100]
 2078 0e5c 0B40     		ands	r3, r3, r1
 2079 0e5e 1A43     		orrs	r2, r2, r3
 2080 0e60 3B69     		ldr	r3, [r7, #16]
 2081 0e62 1A44     		add	r2, r2, r3
 2082 0e64 FB6C     		ldr	r3, [r7, #76]
 2083 0e66 1A44     		add	r2, r2, r3
 2084 0e68 8E4B     		ldr	r3, .L26
 2085 0e6a 1344     		add	r3, r3, r2
 2086 0e6c FB64     		str	r3, [r7, #76]
 2087 0e6e FB6C     		ldr	r3, [r7, #76]
 2088 0e70 4FEA7353 		ror	r3, r3, #21
 2089 0e74 7A6D     		ldr	r2, [r7, #84]
 2090 0e76 1344     		add	r3, r3, r2
 2091 0e78 FB64     		str	r3, [r7, #76]
 2092 0e7a 7B6E     		ldr	r3, [r7, #100]
 2093 0e7c 4FEAB353 		ror	r3, r3, #22
 2094 0e80 7B66     		str	r3, [r7, #100]
 219:C:/Users/dtjld/workspace/AIoT/src/LiteOS_Lab/iot_link/network/dtls/mbedtls/mbedtls-2.16.2/library\ripemd160.c **** #undef F
 220:C:/Users/dtjld/workspace/AIoT/src/LiteOS_Lab/iot_link/network/dtls/mbedtls/mbedtls-2.16.2/library\ripemd160.c **** #undef K
 221:C:/Users/dtjld/workspace/AIoT/src/LiteOS_Lab/iot_link/network/dtls/mbedtls/mbedtls-2.16.2/library\ripemd160.c **** #undef Fp
 222:C:/Users/dtjld/workspace/AIoT/src/LiteOS_Lab/iot_link/network/dtls/mbedtls/mbedtls-2.16.2/library\ripemd160.c **** #undef Kp
 223:C:/Users/dtjld/workspace/AIoT/src/LiteOS_Lab/iot_link/network/dtls/mbedtls/mbedtls-2.16.2/library\ripemd160.c **** 
 224:C:/Users/dtjld/workspace/AIoT/src/LiteOS_Lab/iot_link/network/dtls/mbedtls/mbedtls-2.16.2/library\ripemd160.c **** #define F   F3
 225:C:/Users/dtjld/workspace/AIoT/src/LiteOS_Lab/iot_link/network/dtls/mbedtls/mbedtls-2.16.2/library\ripemd160.c **** #define K   0x6ED9EBA1
 226:C:/Users/dtjld/workspace/AIoT/src/LiteOS_Lab/iot_link/network/dtls/mbedtls/mbedtls-2.16.2/library\ripemd160.c **** #define Fp  F3
 227:C:/Users/dtjld/workspace/AIoT/src/LiteOS_Lab/iot_link/network/dtls/mbedtls/mbedtls-2.16.2/library\ripemd160.c **** #define Kp  0x6D703EF3
 228:C:/Users/dtjld/workspace/AIoT/src/LiteOS_Lab/iot_link/network/dtls/mbedtls/mbedtls-2.16.2/library\ripemd160.c ****     P2( D, E, A, B, C,  3, 11, 15,  9 );
 2095              		.loc 1 228 0
 2096 0e82 BB6E     		ldr	r3, [r7, #104]
 2097 0e84 DA43     		mvns	r2, r3
 2098 0e86 BB6C     		ldr	r3, [r7, #72]
 2099 0e88 1A43     		orrs	r2, r2, r3
 2100 0e8a 3B6E     		ldr	r3, [r7, #96]
 2101 0e8c 5A40     		eors	r2, r2, r3
 2102 0e8e 7B69     		ldr	r3, [r7, #20]
 2103 0e90 1A44     		add	r2, r2, r3
 2104 0e92 3B6D     		ldr	r3, [r7, #80]
 2105 0e94 1A44     		add	r2, r2, r3
 2106 0e96 854B     		ldr	r3, .L26+8
 2107 0e98 1344     		add	r3, r3, r2
 2108 0e9a 3B65     		str	r3, [r7, #80]
 2109 0e9c 3B6D     		ldr	r3, [r7, #80]
 2110 0e9e 4FEA7353 		ror	r3, r3, #21
 2111 0ea2 BA6D     		ldr	r2, [r7, #88]
 2112 0ea4 1344     		add	r3, r3, r2
 2113 0ea6 3B65     		str	r3, [r7, #80]
 2114 0ea8 BB6E     		ldr	r3, [r7, #104]
 2115 0eaa 4FEAB353 		ror	r3, r3, #22
 2116 0eae BB66     		str	r3, [r7, #104]
 2117 0eb0 FB6E     		ldr	r3, [r7, #108]
 2118 0eb2 DA43     		mvns	r2, r3
 2119 0eb4 FB6C     		ldr	r3, [r7, #76]
ARM GAS  C:\Users\dtjld\AppData\Local\Temp\cccTkoKh.s 			page 42


 2120 0eb6 1A43     		orrs	r2, r2, r3
 2121 0eb8 7B6E     		ldr	r3, [r7, #100]
 2122 0eba 5A40     		eors	r2, r2, r3
 2123 0ebc 7B6C     		ldr	r3, [r7, #68]
 2124 0ebe 1A44     		add	r2, r2, r3
 2125 0ec0 7B6D     		ldr	r3, [r7, #84]
 2126 0ec2 1A44     		add	r2, r2, r3
 2127 0ec4 7A4B     		ldr	r3, .L26+12
 2128 0ec6 1344     		add	r3, r3, r2
 2129 0ec8 7B65     		str	r3, [r7, #84]
 2130 0eca 7B6D     		ldr	r3, [r7, #84]
 2131 0ecc 4FEAF353 		ror	r3, r3, #23
 2132 0ed0 FA6D     		ldr	r2, [r7, #92]
 2133 0ed2 1344     		add	r3, r3, r2
 2134 0ed4 7B65     		str	r3, [r7, #84]
 2135 0ed6 FB6E     		ldr	r3, [r7, #108]
 2136 0ed8 4FEAB353 		ror	r3, r3, #22
 2137 0edc FB66     		str	r3, [r7, #108]
 229:C:/Users/dtjld/workspace/AIoT/src/LiteOS_Lab/iot_link/network/dtls/mbedtls/mbedtls-2.16.2/library\ripemd160.c ****     P2( C, D, E, A, B, 10, 13,  5,  7 );
 2138              		.loc 1 229 0
 2139 0ede BB6C     		ldr	r3, [r7, #72]
 2140 0ee0 DA43     		mvns	r2, r3
 2141 0ee2 3B6D     		ldr	r3, [r7, #80]
 2142 0ee4 1A43     		orrs	r2, r2, r3
 2143 0ee6 BB6E     		ldr	r3, [r7, #104]
 2144 0ee8 5A40     		eors	r2, r2, r3
 2145 0eea 3B6B     		ldr	r3, [r7, #48]
 2146 0eec 1A44     		add	r2, r2, r3
 2147 0eee BB6D     		ldr	r3, [r7, #88]
 2148 0ef0 1A44     		add	r2, r2, r3
 2149 0ef2 6E4B     		ldr	r3, .L26+8
 2150 0ef4 1344     		add	r3, r3, r2
 2151 0ef6 BB65     		str	r3, [r7, #88]
 2152 0ef8 BB6D     		ldr	r3, [r7, #88]
 2153 0efa 4FEAF343 		ror	r3, r3, #19
 2154 0efe 3A6E     		ldr	r2, [r7, #96]
 2155 0f00 1344     		add	r3, r3, r2
 2156 0f02 BB65     		str	r3, [r7, #88]
 2157 0f04 BB6C     		ldr	r3, [r7, #72]
 2158 0f06 4FEAB353 		ror	r3, r3, #22
 2159 0f0a BB64     		str	r3, [r7, #72]
 2160 0f0c FB6C     		ldr	r3, [r7, #76]
 2161 0f0e DA43     		mvns	r2, r3
 2162 0f10 7B6D     		ldr	r3, [r7, #84]
 2163 0f12 1A43     		orrs	r2, r2, r3
 2164 0f14 FB6E     		ldr	r3, [r7, #108]
 2165 0f16 5A40     		eors	r2, r2, r3
 2166 0f18 FB69     		ldr	r3, [r7, #28]
 2167 0f1a 1A44     		add	r2, r2, r3
 2168 0f1c FB6D     		ldr	r3, [r7, #92]
 2169 0f1e 1A44     		add	r2, r2, r3
 2170 0f20 634B     		ldr	r3, .L26+12
 2171 0f22 1344     		add	r3, r3, r2
 2172 0f24 FB65     		str	r3, [r7, #92]
 2173 0f26 FB6D     		ldr	r3, [r7, #92]
 2174 0f28 4FEA7363 		ror	r3, r3, #25
 2175 0f2c 7A6E     		ldr	r2, [r7, #100]
ARM GAS  C:\Users\dtjld\AppData\Local\Temp\cccTkoKh.s 			page 43


 2176 0f2e 1344     		add	r3, r3, r2
 2177 0f30 FB65     		str	r3, [r7, #92]
 2178 0f32 FB6C     		ldr	r3, [r7, #76]
 2179 0f34 4FEAB353 		ror	r3, r3, #22
 2180 0f38 FB64     		str	r3, [r7, #76]
 230:C:/Users/dtjld/workspace/AIoT/src/LiteOS_Lab/iot_link/network/dtls/mbedtls/mbedtls-2.16.2/library\ripemd160.c ****     P2( B, C, D, E, A, 14,  6,  1, 15 );
 2181              		.loc 1 230 0
 2182 0f3a 3B6D     		ldr	r3, [r7, #80]
 2183 0f3c DA43     		mvns	r2, r3
 2184 0f3e BB6D     		ldr	r3, [r7, #88]
 2185 0f40 1A43     		orrs	r2, r2, r3
 2186 0f42 BB6C     		ldr	r3, [r7, #72]
 2187 0f44 5A40     		eors	r2, r2, r3
 2188 0f46 3B6C     		ldr	r3, [r7, #64]
 2189 0f48 1A44     		add	r2, r2, r3
 2190 0f4a 3B6E     		ldr	r3, [r7, #96]
 2191 0f4c 1A44     		add	r2, r2, r3
 2192 0f4e 574B     		ldr	r3, .L26+8
 2193 0f50 1344     		add	r3, r3, r2
 2194 0f52 3B66     		str	r3, [r7, #96]
 2195 0f54 3B6E     		ldr	r3, [r7, #96]
 2196 0f56 4FEAB363 		ror	r3, r3, #26
 2197 0f5a BA6E     		ldr	r2, [r7, #104]
 2198 0f5c 1344     		add	r3, r3, r2
 2199 0f5e 3B66     		str	r3, [r7, #96]
 2200 0f60 3B6D     		ldr	r3, [r7, #80]
 2201 0f62 4FEAB353 		ror	r3, r3, #22
 2202 0f66 3B65     		str	r3, [r7, #80]
 2203 0f68 7B6D     		ldr	r3, [r7, #84]
 2204 0f6a DA43     		mvns	r2, r3
 2205 0f6c FB6D     		ldr	r3, [r7, #92]
 2206 0f6e 1A43     		orrs	r2, r2, r3
 2207 0f70 FB6C     		ldr	r3, [r7, #76]
 2208 0f72 5A40     		eors	r2, r2, r3
 2209 0f74 FB68     		ldr	r3, [r7, #12]
 2210 0f76 1A44     		add	r2, r2, r3
 2211 0f78 7B6E     		ldr	r3, [r7, #100]
 2212 0f7a 1A44     		add	r2, r2, r3
 2213 0f7c 4C4B     		ldr	r3, .L26+12
 2214 0f7e 1344     		add	r3, r3, r2
 2215 0f80 7B66     		str	r3, [r7, #100]
 2216 0f82 7B6E     		ldr	r3, [r7, #100]
 2217 0f84 4FEA7343 		ror	r3, r3, #17
 2218 0f88 FA6E     		ldr	r2, [r7, #108]
 2219 0f8a 1344     		add	r3, r3, r2
 2220 0f8c 7B66     		str	r3, [r7, #100]
 2221 0f8e 7B6D     		ldr	r3, [r7, #84]
 2222 0f90 4FEAB353 		ror	r3, r3, #22
 2223 0f94 7B65     		str	r3, [r7, #84]
 231:C:/Users/dtjld/workspace/AIoT/src/LiteOS_Lab/iot_link/network/dtls/mbedtls/mbedtls-2.16.2/library\ripemd160.c ****     P2( A, B, C, D, E,  4,  7,  3, 11 );
 2224              		.loc 1 231 0
 2225 0f96 BB6D     		ldr	r3, [r7, #88]
 2226 0f98 DA43     		mvns	r2, r3
 2227 0f9a 3B6E     		ldr	r3, [r7, #96]
 2228 0f9c 1A43     		orrs	r2, r2, r3
 2229 0f9e 3B6D     		ldr	r3, [r7, #80]
 2230 0fa0 5A40     		eors	r2, r2, r3
ARM GAS  C:\Users\dtjld\AppData\Local\Temp\cccTkoKh.s 			page 44


 2231 0fa2 BB69     		ldr	r3, [r7, #24]
 2232 0fa4 1A44     		add	r2, r2, r3
 2233 0fa6 BB6E     		ldr	r3, [r7, #104]
 2234 0fa8 1A44     		add	r2, r2, r3
 2235 0faa 404B     		ldr	r3, .L26+8
 2236 0fac 1344     		add	r3, r3, r2
 2237 0fae BB66     		str	r3, [r7, #104]
 2238 0fb0 BB6E     		ldr	r3, [r7, #104]
 2239 0fb2 4FEA7363 		ror	r3, r3, #25
 2240 0fb6 BA6C     		ldr	r2, [r7, #72]
 2241 0fb8 1344     		add	r3, r3, r2
 2242 0fba BB66     		str	r3, [r7, #104]
 2243 0fbc BB6D     		ldr	r3, [r7, #88]
 2244 0fbe 4FEAB353 		ror	r3, r3, #22
 2245 0fc2 BB65     		str	r3, [r7, #88]
 2246 0fc4 FB6D     		ldr	r3, [r7, #92]
 2247 0fc6 DA43     		mvns	r2, r3
 2248 0fc8 7B6E     		ldr	r3, [r7, #100]
 2249 0fca 1A43     		orrs	r2, r2, r3
 2250 0fcc 7B6D     		ldr	r3, [r7, #84]
 2251 0fce 5A40     		eors	r2, r2, r3
 2252 0fd0 7B69     		ldr	r3, [r7, #20]
 2253 0fd2 1A44     		add	r2, r2, r3
 2254 0fd4 FB6E     		ldr	r3, [r7, #108]
 2255 0fd6 1A44     		add	r2, r2, r3
 2256 0fd8 354B     		ldr	r3, .L26+12
 2257 0fda 1344     		add	r3, r3, r2
 2258 0fdc FB66     		str	r3, [r7, #108]
 2259 0fde FB6E     		ldr	r3, [r7, #108]
 2260 0fe0 4FEA7353 		ror	r3, r3, #21
 2261 0fe4 FA6C     		ldr	r2, [r7, #76]
 2262 0fe6 1344     		add	r3, r3, r2
 2263 0fe8 FB66     		str	r3, [r7, #108]
 2264 0fea FB6D     		ldr	r3, [r7, #92]
 2265 0fec 4FEAB353 		ror	r3, r3, #22
 2266 0ff0 FB65     		str	r3, [r7, #92]
 232:C:/Users/dtjld/workspace/AIoT/src/LiteOS_Lab/iot_link/network/dtls/mbedtls/mbedtls-2.16.2/library\ripemd160.c ****     P2( E, A, B, C, D,  9, 14,  7,  8 );
 2267              		.loc 1 232 0
 2268 0ff2 3B6E     		ldr	r3, [r7, #96]
 2269 0ff4 DA43     		mvns	r2, r3
 2270 0ff6 BB6E     		ldr	r3, [r7, #104]
 2271 0ff8 1A43     		orrs	r2, r2, r3
 2272 0ffa BB6D     		ldr	r3, [r7, #88]
 2273 0ffc 5A40     		eors	r2, r2, r3
 2274 0ffe FB6A     		ldr	r3, [r7, #44]
 2275 1000 1A44     		add	r2, r2, r3
 2276 1002 BB6C     		ldr	r3, [r7, #72]
 2277 1004 1A44     		add	r2, r2, r3
 2278 1006 294B     		ldr	r3, .L26+8
 2279 1008 1344     		add	r3, r3, r2
 2280 100a BB64     		str	r3, [r7, #72]
 2281 100c BB6C     		ldr	r3, [r7, #72]
 2282 100e 4FEAB343 		ror	r3, r3, #18
 2283 1012 3A6D     		ldr	r2, [r7, #80]
 2284 1014 1344     		add	r3, r3, r2
 2285 1016 BB64     		str	r3, [r7, #72]
 2286 1018 3B6E     		ldr	r3, [r7, #96]
ARM GAS  C:\Users\dtjld\AppData\Local\Temp\cccTkoKh.s 			page 45


 2287 101a 4FEAB353 		ror	r3, r3, #22
 2288 101e 3B66     		str	r3, [r7, #96]
 2289 1020 7B6E     		ldr	r3, [r7, #100]
 2290 1022 DA43     		mvns	r2, r3
 2291 1024 FB6E     		ldr	r3, [r7, #108]
 2292 1026 1A43     		orrs	r2, r2, r3
 2293 1028 FB6D     		ldr	r3, [r7, #92]
 2294 102a 5A40     		eors	r2, r2, r3
 2295 102c 7B6A     		ldr	r3, [r7, #36]
 2296 102e 1A44     		add	r2, r2, r3
 2297 1030 FB6C     		ldr	r3, [r7, #76]
 2298 1032 1A44     		add	r2, r2, r3
 2299 1034 1E4B     		ldr	r3, .L26+12
 2300 1036 1344     		add	r3, r3, r2
 2301 1038 FB64     		str	r3, [r7, #76]
 2302 103a FB6C     		ldr	r3, [r7, #76]
 2303 103c 4FEA3363 		ror	r3, r3, #24
 2304 1040 7A6D     		ldr	r2, [r7, #84]
 2305 1042 1344     		add	r3, r3, r2
 2306 1044 FB64     		str	r3, [r7, #76]
 2307 1046 7B6E     		ldr	r3, [r7, #100]
 2308 1048 4FEAB353 		ror	r3, r3, #22
 2309 104c 7B66     		str	r3, [r7, #100]
 233:C:/Users/dtjld/workspace/AIoT/src/LiteOS_Lab/iot_link/network/dtls/mbedtls/mbedtls-2.16.2/library\ripemd160.c ****     P2( D, E, A, B, C, 15,  9, 14,  6 );
 2310              		.loc 1 233 0
 2311 104e BB6E     		ldr	r3, [r7, #104]
 2312 1050 DA43     		mvns	r2, r3
 2313 1052 BB6C     		ldr	r3, [r7, #72]
 2314 1054 1A43     		orrs	r2, r2, r3
 2315 1056 3B6E     		ldr	r3, [r7, #96]
 2316 1058 5A40     		eors	r2, r2, r3
 2317 105a 7B6C     		ldr	r3, [r7, #68]
 2318 105c 1A44     		add	r2, r2, r3
 2319 105e 3B6D     		ldr	r3, [r7, #80]
 2320 1060 1A44     		add	r2, r2, r3
 2321 1062 124B     		ldr	r3, .L26+8
 2322 1064 1344     		add	r3, r3, r2
 2323 1066 3B65     		str	r3, [r7, #80]
 2324 1068 3B6D     		ldr	r3, [r7, #80]
 2325 106a 4FEAF353 		ror	r3, r3, #23
 2326 106e BA6D     		ldr	r2, [r7, #88]
 2327 1070 1344     		add	r3, r3, r2
 2328 1072 3B65     		str	r3, [r7, #80]
 2329 1074 BB6E     		ldr	r3, [r7, #104]
 2330 1076 4FEAB353 		ror	r3, r3, #22
 2331 107a BB66     		str	r3, [r7, #104]
 2332 107c FB6E     		ldr	r3, [r7, #108]
 2333 107e DA43     		mvns	r2, r3
 2334 1080 FB6C     		ldr	r3, [r7, #76]
 2335 1082 1A43     		orrs	r2, r2, r3
 2336 1084 7B6E     		ldr	r3, [r7, #100]
 2337 1086 5A40     		eors	r2, r2, r3
 2338 1088 3B6C     		ldr	r3, [r7, #64]
 2339 108a 1A44     		add	r2, r2, r3
 2340 108c 7B6D     		ldr	r3, [r7, #84]
 2341 108e 1A44     		add	r2, r2, r3
 2342 1090 074B     		ldr	r3, .L26+12
ARM GAS  C:\Users\dtjld\AppData\Local\Temp\cccTkoKh.s 			page 46


 2343 1092 1344     		add	r3, r3, r2
 2344 1094 7B65     		str	r3, [r7, #84]
 2345 1096 7B6D     		ldr	r3, [r7, #84]
 2346 1098 4FEAB363 		ror	r3, r3, #26
 2347 109c FA6D     		ldr	r2, [r7, #92]
 2348 109e 1344     		add	r3, r3, r2
 2349 10a0 08E0     		b	.L27
 2350              	.L28:
 2351 10a2 00BF     		.align	2
 2352              	.L26:
 2353 10a4 24D14D5C 		.word	1548603684
 2354 10a8 9979825A 		.word	1518500249
 2355 10ac A1EBD96E 		.word	1859775393
 2356 10b0 F33E706D 		.word	1836072691
 2357              	.L27:
 2358 10b4 7B65     		str	r3, [r7, #84]
 2359 10b6 FB6E     		ldr	r3, [r7, #108]
 2360 10b8 4FEAB353 		ror	r3, r3, #22
 2361 10bc FB66     		str	r3, [r7, #108]
 234:C:/Users/dtjld/workspace/AIoT/src/LiteOS_Lab/iot_link/network/dtls/mbedtls/mbedtls-2.16.2/library\ripemd160.c ****     P2( C, D, E, A, B,  8, 13,  6,  6 );
 2362              		.loc 1 234 0
 2363 10be BB6C     		ldr	r3, [r7, #72]
 2364 10c0 DA43     		mvns	r2, r3
 2365 10c2 3B6D     		ldr	r3, [r7, #80]
 2366 10c4 1A43     		orrs	r2, r2, r3
 2367 10c6 BB6E     		ldr	r3, [r7, #104]
 2368 10c8 5A40     		eors	r2, r2, r3
 2369 10ca BB6A     		ldr	r3, [r7, #40]
 2370 10cc 1A44     		add	r2, r2, r3
 2371 10ce BB6D     		ldr	r3, [r7, #88]
 2372 10d0 1A44     		add	r2, r2, r3
 2373 10d2 A74B     		ldr	r3, .L29
 2374 10d4 1344     		add	r3, r3, r2
 2375 10d6 BB65     		str	r3, [r7, #88]
 2376 10d8 BB6D     		ldr	r3, [r7, #88]
 2377 10da 4FEAF343 		ror	r3, r3, #19
 2378 10de 3A6E     		ldr	r2, [r7, #96]
 2379 10e0 1344     		add	r3, r3, r2
 2380 10e2 BB65     		str	r3, [r7, #88]
 2381 10e4 BB6C     		ldr	r3, [r7, #72]
 2382 10e6 4FEAB353 		ror	r3, r3, #22
 2383 10ea BB64     		str	r3, [r7, #72]
 2384 10ec FB6C     		ldr	r3, [r7, #76]
 2385 10ee DA43     		mvns	r2, r3
 2386 10f0 7B6D     		ldr	r3, [r7, #84]
 2387 10f2 1A43     		orrs	r2, r2, r3
 2388 10f4 FB6E     		ldr	r3, [r7, #108]
 2389 10f6 5A40     		eors	r2, r2, r3
 2390 10f8 3B6A     		ldr	r3, [r7, #32]
 2391 10fa 1A44     		add	r2, r2, r3
 2392 10fc FB6D     		ldr	r3, [r7, #92]
 2393 10fe 1A44     		add	r2, r2, r3
 2394 1100 9C4B     		ldr	r3, .L29+4
 2395 1102 1344     		add	r3, r3, r2
 2396 1104 FB65     		str	r3, [r7, #92]
 2397 1106 FB6D     		ldr	r3, [r7, #92]
 2398 1108 4FEAB363 		ror	r3, r3, #26
ARM GAS  C:\Users\dtjld\AppData\Local\Temp\cccTkoKh.s 			page 47


 2399 110c 7A6E     		ldr	r2, [r7, #100]
 2400 110e 1344     		add	r3, r3, r2
 2401 1110 FB65     		str	r3, [r7, #92]
 2402 1112 FB6C     		ldr	r3, [r7, #76]
 2403 1114 4FEAB353 		ror	r3, r3, #22
 2404 1118 FB64     		str	r3, [r7, #76]
 235:C:/Users/dtjld/workspace/AIoT/src/LiteOS_Lab/iot_link/network/dtls/mbedtls/mbedtls-2.16.2/library\ripemd160.c ****     P2( B, C, D, E, A,  1, 15,  9, 14 );
 2405              		.loc 1 235 0
 2406 111a 3B6D     		ldr	r3, [r7, #80]
 2407 111c DA43     		mvns	r2, r3
 2408 111e BB6D     		ldr	r3, [r7, #88]
 2409 1120 1A43     		orrs	r2, r2, r3
 2410 1122 BB6C     		ldr	r3, [r7, #72]
 2411 1124 5A40     		eors	r2, r2, r3
 2412 1126 FB68     		ldr	r3, [r7, #12]
 2413 1128 1A44     		add	r2, r2, r3
 2414 112a 3B6E     		ldr	r3, [r7, #96]
 2415 112c 1A44     		add	r2, r2, r3
 2416 112e 904B     		ldr	r3, .L29
 2417 1130 1344     		add	r3, r3, r2
 2418 1132 3B66     		str	r3, [r7, #96]
 2419 1134 3B6E     		ldr	r3, [r7, #96]
 2420 1136 4FEA7343 		ror	r3, r3, #17
 2421 113a BA6E     		ldr	r2, [r7, #104]
 2422 113c 1344     		add	r3, r3, r2
 2423 113e 3B66     		str	r3, [r7, #96]
 2424 1140 3B6D     		ldr	r3, [r7, #80]
 2425 1142 4FEAB353 		ror	r3, r3, #22
 2426 1146 3B65     		str	r3, [r7, #80]
 2427 1148 7B6D     		ldr	r3, [r7, #84]
 2428 114a DA43     		mvns	r2, r3
 2429 114c FB6D     		ldr	r3, [r7, #92]
 2430 114e 1A43     		orrs	r2, r2, r3
 2431 1150 FB6C     		ldr	r3, [r7, #76]
 2432 1152 5A40     		eors	r2, r2, r3
 2433 1154 FB6A     		ldr	r3, [r7, #44]
 2434 1156 1A44     		add	r2, r2, r3
 2435 1158 7B6E     		ldr	r3, [r7, #100]
 2436 115a 1A44     		add	r2, r2, r3
 2437 115c 854B     		ldr	r3, .L29+4
 2438 115e 1344     		add	r3, r3, r2
 2439 1160 7B66     		str	r3, [r7, #100]
 2440 1162 7B6E     		ldr	r3, [r7, #100]
 2441 1164 4FEAB343 		ror	r3, r3, #18
 2442 1168 FA6E     		ldr	r2, [r7, #108]
 2443 116a 1344     		add	r3, r3, r2
 2444 116c 7B66     		str	r3, [r7, #100]
 2445 116e 7B6D     		ldr	r3, [r7, #84]
 2446 1170 4FEAB353 		ror	r3, r3, #22
 2447 1174 7B65     		str	r3, [r7, #84]
 236:C:/Users/dtjld/workspace/AIoT/src/LiteOS_Lab/iot_link/network/dtls/mbedtls/mbedtls-2.16.2/library\ripemd160.c ****     P2( A, B, C, D, E,  2, 14, 11, 12 );
 2448              		.loc 1 236 0
 2449 1176 BB6D     		ldr	r3, [r7, #88]
 2450 1178 DA43     		mvns	r2, r3
 2451 117a 3B6E     		ldr	r3, [r7, #96]
 2452 117c 1A43     		orrs	r2, r2, r3
 2453 117e 3B6D     		ldr	r3, [r7, #80]
ARM GAS  C:\Users\dtjld\AppData\Local\Temp\cccTkoKh.s 			page 48


 2454 1180 5A40     		eors	r2, r2, r3
 2455 1182 3B69     		ldr	r3, [r7, #16]
 2456 1184 1A44     		add	r2, r2, r3
 2457 1186 BB6E     		ldr	r3, [r7, #104]
 2458 1188 1A44     		add	r2, r2, r3
 2459 118a 794B     		ldr	r3, .L29
 2460 118c 1344     		add	r3, r3, r2
 2461 118e BB66     		str	r3, [r7, #104]
 2462 1190 BB6E     		ldr	r3, [r7, #104]
 2463 1192 4FEAB343 		ror	r3, r3, #18
 2464 1196 BA6C     		ldr	r2, [r7, #72]
 2465 1198 1344     		add	r3, r3, r2
 2466 119a BB66     		str	r3, [r7, #104]
 2467 119c BB6D     		ldr	r3, [r7, #88]
 2468 119e 4FEAB353 		ror	r3, r3, #22
 2469 11a2 BB65     		str	r3, [r7, #88]
 2470 11a4 FB6D     		ldr	r3, [r7, #92]
 2471 11a6 DA43     		mvns	r2, r3
 2472 11a8 7B6E     		ldr	r3, [r7, #100]
 2473 11aa 1A43     		orrs	r2, r2, r3
 2474 11ac 7B6D     		ldr	r3, [r7, #84]
 2475 11ae 5A40     		eors	r2, r2, r3
 2476 11b0 7B6B     		ldr	r3, [r7, #52]
 2477 11b2 1A44     		add	r2, r2, r3
 2478 11b4 FB6E     		ldr	r3, [r7, #108]
 2479 11b6 1A44     		add	r2, r2, r3
 2480 11b8 6E4B     		ldr	r3, .L29+4
 2481 11ba 1344     		add	r3, r3, r2
 2482 11bc FB66     		str	r3, [r7, #108]
 2483 11be FB6E     		ldr	r3, [r7, #108]
 2484 11c0 4FEA3353 		ror	r3, r3, #20
 2485 11c4 FA6C     		ldr	r2, [r7, #76]
 2486 11c6 1344     		add	r3, r3, r2
 2487 11c8 FB66     		str	r3, [r7, #108]
 2488 11ca FB6D     		ldr	r3, [r7, #92]
 2489 11cc 4FEAB353 		ror	r3, r3, #22
 2490 11d0 FB65     		str	r3, [r7, #92]
 237:C:/Users/dtjld/workspace/AIoT/src/LiteOS_Lab/iot_link/network/dtls/mbedtls/mbedtls-2.16.2/library\ripemd160.c ****     P2( E, A, B, C, D,  7,  8,  8, 13 );
 2491              		.loc 1 237 0
 2492 11d2 3B6E     		ldr	r3, [r7, #96]
 2493 11d4 DA43     		mvns	r2, r3
 2494 11d6 BB6E     		ldr	r3, [r7, #104]
 2495 11d8 1A43     		orrs	r2, r2, r3
 2496 11da BB6D     		ldr	r3, [r7, #88]
 2497 11dc 5A40     		eors	r2, r2, r3
 2498 11de 7B6A     		ldr	r3, [r7, #36]
 2499 11e0 1A44     		add	r2, r2, r3
 2500 11e2 BB6C     		ldr	r3, [r7, #72]
 2501 11e4 1A44     		add	r2, r2, r3
 2502 11e6 624B     		ldr	r3, .L29
 2503 11e8 1344     		add	r3, r3, r2
 2504 11ea BB64     		str	r3, [r7, #72]
 2505 11ec BB6C     		ldr	r3, [r7, #72]
 2506 11ee 4FEA3363 		ror	r3, r3, #24
 2507 11f2 3A6D     		ldr	r2, [r7, #80]
 2508 11f4 1344     		add	r3, r3, r2
 2509 11f6 BB64     		str	r3, [r7, #72]
ARM GAS  C:\Users\dtjld\AppData\Local\Temp\cccTkoKh.s 			page 49


 2510 11f8 3B6E     		ldr	r3, [r7, #96]
 2511 11fa 4FEAB353 		ror	r3, r3, #22
 2512 11fe 3B66     		str	r3, [r7, #96]
 2513 1200 7B6E     		ldr	r3, [r7, #100]
 2514 1202 DA43     		mvns	r2, r3
 2515 1204 FB6E     		ldr	r3, [r7, #108]
 2516 1206 1A43     		orrs	r2, r2, r3
 2517 1208 FB6D     		ldr	r3, [r7, #92]
 2518 120a 5A40     		eors	r2, r2, r3
 2519 120c BB6A     		ldr	r3, [r7, #40]
 2520 120e 1A44     		add	r2, r2, r3
 2521 1210 FB6C     		ldr	r3, [r7, #76]
 2522 1212 1A44     		add	r2, r2, r3
 2523 1214 574B     		ldr	r3, .L29+4
 2524 1216 1344     		add	r3, r3, r2
 2525 1218 FB64     		str	r3, [r7, #76]
 2526 121a FB6C     		ldr	r3, [r7, #76]
 2527 121c 4FEAF343 		ror	r3, r3, #19
 2528 1220 7A6D     		ldr	r2, [r7, #84]
 2529 1222 1344     		add	r3, r3, r2
 2530 1224 FB64     		str	r3, [r7, #76]
 2531 1226 7B6E     		ldr	r3, [r7, #100]
 2532 1228 4FEAB353 		ror	r3, r3, #22
 2533 122c 7B66     		str	r3, [r7, #100]
 238:C:/Users/dtjld/workspace/AIoT/src/LiteOS_Lab/iot_link/network/dtls/mbedtls/mbedtls-2.16.2/library\ripemd160.c ****     P2( D, E, A, B, C,  0, 13, 12,  5 );
 2534              		.loc 1 238 0
 2535 122e BB6E     		ldr	r3, [r7, #104]
 2536 1230 DA43     		mvns	r2, r3
 2537 1232 BB6C     		ldr	r3, [r7, #72]
 2538 1234 1A43     		orrs	r2, r2, r3
 2539 1236 3B6E     		ldr	r3, [r7, #96]
 2540 1238 5A40     		eors	r2, r2, r3
 2541 123a BB68     		ldr	r3, [r7, #8]
 2542 123c 1A44     		add	r2, r2, r3
 2543 123e 3B6D     		ldr	r3, [r7, #80]
 2544 1240 1A44     		add	r2, r2, r3
 2545 1242 4B4B     		ldr	r3, .L29
 2546 1244 1344     		add	r3, r3, r2
 2547 1246 3B65     		str	r3, [r7, #80]
 2548 1248 3B6D     		ldr	r3, [r7, #80]
 2549 124a 4FEAF343 		ror	r3, r3, #19
 2550 124e BA6D     		ldr	r2, [r7, #88]
 2551 1250 1344     		add	r3, r3, r2
 2552 1252 3B65     		str	r3, [r7, #80]
 2553 1254 BB6E     		ldr	r3, [r7, #104]
 2554 1256 4FEAB353 		ror	r3, r3, #22
 2555 125a BB66     		str	r3, [r7, #104]
 2556 125c FB6E     		ldr	r3, [r7, #108]
 2557 125e DA43     		mvns	r2, r3
 2558 1260 FB6C     		ldr	r3, [r7, #76]
 2559 1262 1A43     		orrs	r2, r2, r3
 2560 1264 7B6E     		ldr	r3, [r7, #100]
 2561 1266 5A40     		eors	r2, r2, r3
 2562 1268 BB6B     		ldr	r3, [r7, #56]
 2563 126a 1A44     		add	r2, r2, r3
 2564 126c 7B6D     		ldr	r3, [r7, #84]
 2565 126e 1A44     		add	r2, r2, r3
ARM GAS  C:\Users\dtjld\AppData\Local\Temp\cccTkoKh.s 			page 50


 2566 1270 404B     		ldr	r3, .L29+4
 2567 1272 1344     		add	r3, r3, r2
 2568 1274 7B65     		str	r3, [r7, #84]
 2569 1276 7B6D     		ldr	r3, [r7, #84]
 2570 1278 4FEAF363 		ror	r3, r3, #27
 2571 127c FA6D     		ldr	r2, [r7, #92]
 2572 127e 1344     		add	r3, r3, r2
 2573 1280 7B65     		str	r3, [r7, #84]
 2574 1282 FB6E     		ldr	r3, [r7, #108]
 2575 1284 4FEAB353 		ror	r3, r3, #22
 2576 1288 FB66     		str	r3, [r7, #108]
 239:C:/Users/dtjld/workspace/AIoT/src/LiteOS_Lab/iot_link/network/dtls/mbedtls/mbedtls-2.16.2/library\ripemd160.c ****     P2( C, D, E, A, B,  6,  6,  2, 14 );
 2577              		.loc 1 239 0
 2578 128a BB6C     		ldr	r3, [r7, #72]
 2579 128c DA43     		mvns	r2, r3
 2580 128e 3B6D     		ldr	r3, [r7, #80]
 2581 1290 1A43     		orrs	r2, r2, r3
 2582 1292 BB6E     		ldr	r3, [r7, #104]
 2583 1294 5A40     		eors	r2, r2, r3
 2584 1296 3B6A     		ldr	r3, [r7, #32]
 2585 1298 1A44     		add	r2, r2, r3
 2586 129a BB6D     		ldr	r3, [r7, #88]
 2587 129c 1A44     		add	r2, r2, r3
 2588 129e 344B     		ldr	r3, .L29
 2589 12a0 1344     		add	r3, r3, r2
 2590 12a2 BB65     		str	r3, [r7, #88]
 2591 12a4 BB6D     		ldr	r3, [r7, #88]
 2592 12a6 4FEAB363 		ror	r3, r3, #26
 2593 12aa 3A6E     		ldr	r2, [r7, #96]
 2594 12ac 1344     		add	r3, r3, r2
 2595 12ae BB65     		str	r3, [r7, #88]
 2596 12b0 BB6C     		ldr	r3, [r7, #72]
 2597 12b2 4FEAB353 		ror	r3, r3, #22
 2598 12b6 BB64     		str	r3, [r7, #72]
 2599 12b8 FB6C     		ldr	r3, [r7, #76]
 2600 12ba DA43     		mvns	r2, r3
 2601 12bc 7B6D     		ldr	r3, [r7, #84]
 2602 12be 1A43     		orrs	r2, r2, r3
 2603 12c0 FB6E     		ldr	r3, [r7, #108]
 2604 12c2 5A40     		eors	r2, r2, r3
 2605 12c4 3B69     		ldr	r3, [r7, #16]
 2606 12c6 1A44     		add	r2, r2, r3
 2607 12c8 FB6D     		ldr	r3, [r7, #92]
 2608 12ca 1A44     		add	r2, r2, r3
 2609 12cc 294B     		ldr	r3, .L29+4
 2610 12ce 1344     		add	r3, r3, r2
 2611 12d0 FB65     		str	r3, [r7, #92]
 2612 12d2 FB6D     		ldr	r3, [r7, #92]
 2613 12d4 4FEAB343 		ror	r3, r3, #18
 2614 12d8 7A6E     		ldr	r2, [r7, #100]
 2615 12da 1344     		add	r3, r3, r2
 2616 12dc FB65     		str	r3, [r7, #92]
 2617 12de FB6C     		ldr	r3, [r7, #76]
 2618 12e0 4FEAB353 		ror	r3, r3, #22
 2619 12e4 FB64     		str	r3, [r7, #76]
 240:C:/Users/dtjld/workspace/AIoT/src/LiteOS_Lab/iot_link/network/dtls/mbedtls/mbedtls-2.16.2/library\ripemd160.c ****     P2( B, C, D, E, A, 13,  5, 10, 13 );
 2620              		.loc 1 240 0
ARM GAS  C:\Users\dtjld\AppData\Local\Temp\cccTkoKh.s 			page 51


 2621 12e6 3B6D     		ldr	r3, [r7, #80]
 2622 12e8 DA43     		mvns	r2, r3
 2623 12ea BB6D     		ldr	r3, [r7, #88]
 2624 12ec 1A43     		orrs	r2, r2, r3
 2625 12ee BB6C     		ldr	r3, [r7, #72]
 2626 12f0 5A40     		eors	r2, r2, r3
 2627 12f2 FB6B     		ldr	r3, [r7, #60]
 2628 12f4 1A44     		add	r2, r2, r3
 2629 12f6 3B6E     		ldr	r3, [r7, #96]
 2630 12f8 1A44     		add	r2, r2, r3
 2631 12fa 1D4B     		ldr	r3, .L29
 2632 12fc 1344     		add	r3, r3, r2
 2633 12fe 3B66     		str	r3, [r7, #96]
 2634 1300 3B6E     		ldr	r3, [r7, #96]
 2635 1302 4FEAF363 		ror	r3, r3, #27
 2636 1306 BA6E     		ldr	r2, [r7, #104]
 2637 1308 1344     		add	r3, r3, r2
 2638 130a 3B66     		str	r3, [r7, #96]
 2639 130c 3B6D     		ldr	r3, [r7, #80]
 2640 130e 4FEAB353 		ror	r3, r3, #22
 2641 1312 3B65     		str	r3, [r7, #80]
 2642 1314 7B6D     		ldr	r3, [r7, #84]
 2643 1316 DA43     		mvns	r2, r3
 2644 1318 FB6D     		ldr	r3, [r7, #92]
 2645 131a 1A43     		orrs	r2, r2, r3
 2646 131c FB6C     		ldr	r3, [r7, #76]
 2647 131e 5A40     		eors	r2, r2, r3
 2648 1320 3B6B     		ldr	r3, [r7, #48]
 2649 1322 1A44     		add	r2, r2, r3
 2650 1324 7B6E     		ldr	r3, [r7, #100]
 2651 1326 1A44     		add	r2, r2, r3
 2652 1328 124B     		ldr	r3, .L29+4
 2653 132a 1344     		add	r3, r3, r2
 2654 132c 7B66     		str	r3, [r7, #100]
 2655 132e 7B6E     		ldr	r3, [r7, #100]
 2656 1330 4FEAF343 		ror	r3, r3, #19
 2657 1334 FA6E     		ldr	r2, [r7, #108]
 2658 1336 1344     		add	r3, r3, r2
 2659 1338 7B66     		str	r3, [r7, #100]
 2660 133a 7B6D     		ldr	r3, [r7, #84]
 2661 133c 4FEAB353 		ror	r3, r3, #22
 2662 1340 7B65     		str	r3, [r7, #84]
 241:C:/Users/dtjld/workspace/AIoT/src/LiteOS_Lab/iot_link/network/dtls/mbedtls/mbedtls-2.16.2/library\ripemd160.c ****     P2( A, B, C, D, E, 11, 12,  0, 13 );
 2663              		.loc 1 241 0
 2664 1342 BB6D     		ldr	r3, [r7, #88]
 2665 1344 DA43     		mvns	r2, r3
 2666 1346 3B6E     		ldr	r3, [r7, #96]
 2667 1348 1A43     		orrs	r2, r2, r3
 2668 134a 3B6D     		ldr	r3, [r7, #80]
 2669 134c 5A40     		eors	r2, r2, r3
 2670 134e 7B6B     		ldr	r3, [r7, #52]
 2671 1350 1A44     		add	r2, r2, r3
 2672 1352 BB6E     		ldr	r3, [r7, #104]
 2673 1354 1A44     		add	r2, r2, r3
 2674 1356 064B     		ldr	r3, .L29
 2675 1358 1344     		add	r3, r3, r2
 2676 135a BB66     		str	r3, [r7, #104]
ARM GAS  C:\Users\dtjld\AppData\Local\Temp\cccTkoKh.s 			page 52


 2677 135c BB6E     		ldr	r3, [r7, #104]
 2678 135e 4FEA3353 		ror	r3, r3, #20
 2679 1362 BA6C     		ldr	r2, [r7, #72]
 2680 1364 1344     		add	r3, r3, r2
 2681 1366 BB66     		str	r3, [r7, #104]
 2682 1368 BB6D     		ldr	r3, [r7, #88]
 2683 136a 4FEAB353 		ror	r3, r3, #22
 2684 136e 03E0     		b	.L30
 2685              	.L31:
 2686              		.align	2
 2687              	.L29:
 2688 1370 A1EBD96E 		.word	1859775393
 2689 1374 F33E706D 		.word	1836072691
 2690              	.L30:
 2691 1378 BB65     		str	r3, [r7, #88]
 2692 137a FB6D     		ldr	r3, [r7, #92]
 2693 137c DA43     		mvns	r2, r3
 2694 137e 7B6E     		ldr	r3, [r7, #100]
 2695 1380 1A43     		orrs	r2, r2, r3
 2696 1382 7B6D     		ldr	r3, [r7, #84]
 2697 1384 5A40     		eors	r2, r2, r3
 2698 1386 BB68     		ldr	r3, [r7, #8]
 2699 1388 1A44     		add	r2, r2, r3
 2700 138a FB6E     		ldr	r3, [r7, #108]
 2701 138c 1A44     		add	r2, r2, r3
 2702 138e A74B     		ldr	r3, .L32
 2703 1390 1344     		add	r3, r3, r2
 2704 1392 FB66     		str	r3, [r7, #108]
 2705 1394 FB6E     		ldr	r3, [r7, #108]
 2706 1396 4FEAF343 		ror	r3, r3, #19
 2707 139a FA6C     		ldr	r2, [r7, #76]
 2708 139c 1344     		add	r3, r3, r2
 2709 139e FB66     		str	r3, [r7, #108]
 2710 13a0 FB6D     		ldr	r3, [r7, #92]
 2711 13a2 4FEAB353 		ror	r3, r3, #22
 2712 13a6 FB65     		str	r3, [r7, #92]
 242:C:/Users/dtjld/workspace/AIoT/src/LiteOS_Lab/iot_link/network/dtls/mbedtls/mbedtls-2.16.2/library\ripemd160.c ****     P2( E, A, B, C, D,  5,  7,  4,  7 );
 2713              		.loc 1 242 0
 2714 13a8 3B6E     		ldr	r3, [r7, #96]
 2715 13aa DA43     		mvns	r2, r3
 2716 13ac BB6E     		ldr	r3, [r7, #104]
 2717 13ae 1A43     		orrs	r2, r2, r3
 2718 13b0 BB6D     		ldr	r3, [r7, #88]
 2719 13b2 5A40     		eors	r2, r2, r3
 2720 13b4 FB69     		ldr	r3, [r7, #28]
 2721 13b6 1A44     		add	r2, r2, r3
 2722 13b8 BB6C     		ldr	r3, [r7, #72]
 2723 13ba 1A44     		add	r2, r2, r3
 2724 13bc 9C4B     		ldr	r3, .L32+4
 2725 13be 1344     		add	r3, r3, r2
 2726 13c0 BB64     		str	r3, [r7, #72]
 2727 13c2 BB6C     		ldr	r3, [r7, #72]
 2728 13c4 4FEA7363 		ror	r3, r3, #25
 2729 13c8 3A6D     		ldr	r2, [r7, #80]
 2730 13ca 1344     		add	r3, r3, r2
 2731 13cc BB64     		str	r3, [r7, #72]
 2732 13ce 3B6E     		ldr	r3, [r7, #96]
ARM GAS  C:\Users\dtjld\AppData\Local\Temp\cccTkoKh.s 			page 53


 2733 13d0 4FEAB353 		ror	r3, r3, #22
 2734 13d4 3B66     		str	r3, [r7, #96]
 2735 13d6 7B6E     		ldr	r3, [r7, #100]
 2736 13d8 DA43     		mvns	r2, r3
 2737 13da FB6E     		ldr	r3, [r7, #108]
 2738 13dc 1A43     		orrs	r2, r2, r3
 2739 13de FB6D     		ldr	r3, [r7, #92]
 2740 13e0 5A40     		eors	r2, r2, r3
 2741 13e2 BB69     		ldr	r3, [r7, #24]
 2742 13e4 1A44     		add	r2, r2, r3
 2743 13e6 FB6C     		ldr	r3, [r7, #76]
 2744 13e8 1A44     		add	r2, r2, r3
 2745 13ea 904B     		ldr	r3, .L32
 2746 13ec 1344     		add	r3, r3, r2
 2747 13ee FB64     		str	r3, [r7, #76]
 2748 13f0 FB6C     		ldr	r3, [r7, #76]
 2749 13f2 4FEA7363 		ror	r3, r3, #25
 2750 13f6 7A6D     		ldr	r2, [r7, #84]
 2751 13f8 1344     		add	r3, r3, r2
 2752 13fa FB64     		str	r3, [r7, #76]
 2753 13fc 7B6E     		ldr	r3, [r7, #100]
 2754 13fe 4FEAB353 		ror	r3, r3, #22
 2755 1402 7B66     		str	r3, [r7, #100]
 243:C:/Users/dtjld/workspace/AIoT/src/LiteOS_Lab/iot_link/network/dtls/mbedtls/mbedtls-2.16.2/library\ripemd160.c ****     P2( D, E, A, B, C, 12,  5, 13,  5 );
 2756              		.loc 1 243 0
 2757 1404 BB6E     		ldr	r3, [r7, #104]
 2758 1406 DA43     		mvns	r2, r3
 2759 1408 BB6C     		ldr	r3, [r7, #72]
 2760 140a 1A43     		orrs	r2, r2, r3
 2761 140c 3B6E     		ldr	r3, [r7, #96]
 2762 140e 5A40     		eors	r2, r2, r3
 2763 1410 BB6B     		ldr	r3, [r7, #56]
 2764 1412 1A44     		add	r2, r2, r3
 2765 1414 3B6D     		ldr	r3, [r7, #80]
 2766 1416 1A44     		add	r2, r2, r3
 2767 1418 854B     		ldr	r3, .L32+4
 2768 141a 1344     		add	r3, r3, r2
 2769 141c 3B65     		str	r3, [r7, #80]
 2770 141e 3B6D     		ldr	r3, [r7, #80]
 2771 1420 4FEAF363 		ror	r3, r3, #27
 2772 1424 BA6D     		ldr	r2, [r7, #88]
 2773 1426 1344     		add	r3, r3, r2
 2774 1428 3B65     		str	r3, [r7, #80]
 2775 142a BB6E     		ldr	r3, [r7, #104]
 2776 142c 4FEAB353 		ror	r3, r3, #22
 2777 1430 BB66     		str	r3, [r7, #104]
 2778 1432 FB6E     		ldr	r3, [r7, #108]
 2779 1434 DA43     		mvns	r2, r3
 2780 1436 FB6C     		ldr	r3, [r7, #76]
 2781 1438 1A43     		orrs	r2, r2, r3
 2782 143a 7B6E     		ldr	r3, [r7, #100]
 2783 143c 5A40     		eors	r2, r2, r3
 2784 143e FB6B     		ldr	r3, [r7, #60]
 2785 1440 1A44     		add	r2, r2, r3
 2786 1442 7B6D     		ldr	r3, [r7, #84]
 2787 1444 1A44     		add	r2, r2, r3
 2788 1446 794B     		ldr	r3, .L32
ARM GAS  C:\Users\dtjld\AppData\Local\Temp\cccTkoKh.s 			page 54


 2789 1448 1344     		add	r3, r3, r2
 2790 144a 7B65     		str	r3, [r7, #84]
 2791 144c 7B6D     		ldr	r3, [r7, #84]
 2792 144e 4FEAF363 		ror	r3, r3, #27
 2793 1452 FA6D     		ldr	r2, [r7, #92]
 2794 1454 1344     		add	r3, r3, r2
 2795 1456 7B65     		str	r3, [r7, #84]
 2796 1458 FB6E     		ldr	r3, [r7, #108]
 2797 145a 4FEAB353 		ror	r3, r3, #22
 2798 145e FB66     		str	r3, [r7, #108]
 244:C:/Users/dtjld/workspace/AIoT/src/LiteOS_Lab/iot_link/network/dtls/mbedtls/mbedtls-2.16.2/library\ripemd160.c **** #undef F
 245:C:/Users/dtjld/workspace/AIoT/src/LiteOS_Lab/iot_link/network/dtls/mbedtls/mbedtls-2.16.2/library\ripemd160.c **** #undef K
 246:C:/Users/dtjld/workspace/AIoT/src/LiteOS_Lab/iot_link/network/dtls/mbedtls/mbedtls-2.16.2/library\ripemd160.c **** #undef Fp
 247:C:/Users/dtjld/workspace/AIoT/src/LiteOS_Lab/iot_link/network/dtls/mbedtls/mbedtls-2.16.2/library\ripemd160.c **** #undef Kp
 248:C:/Users/dtjld/workspace/AIoT/src/LiteOS_Lab/iot_link/network/dtls/mbedtls/mbedtls-2.16.2/library\ripemd160.c **** 
 249:C:/Users/dtjld/workspace/AIoT/src/LiteOS_Lab/iot_link/network/dtls/mbedtls/mbedtls-2.16.2/library\ripemd160.c **** #define F   F4
 250:C:/Users/dtjld/workspace/AIoT/src/LiteOS_Lab/iot_link/network/dtls/mbedtls/mbedtls-2.16.2/library\ripemd160.c **** #define K   0x8F1BBCDC
 251:C:/Users/dtjld/workspace/AIoT/src/LiteOS_Lab/iot_link/network/dtls/mbedtls/mbedtls-2.16.2/library\ripemd160.c **** #define Fp  F2
 252:C:/Users/dtjld/workspace/AIoT/src/LiteOS_Lab/iot_link/network/dtls/mbedtls/mbedtls-2.16.2/library\ripemd160.c **** #define Kp  0x7A6D76E9
 253:C:/Users/dtjld/workspace/AIoT/src/LiteOS_Lab/iot_link/network/dtls/mbedtls/mbedtls-2.16.2/library\ripemd160.c ****     P2( C, D, E, A, B,  1, 11,  8, 15 );
 2799              		.loc 1 253 0
 2800 1460 3A6D     		ldr	r2, [r7, #80]
 2801 1462 BB6E     		ldr	r3, [r7, #104]
 2802 1464 1A40     		ands	r2, r2, r3
 2803 1466 BB6E     		ldr	r3, [r7, #104]
 2804 1468 D943     		mvns	r1, r3
 2805 146a BB6C     		ldr	r3, [r7, #72]
 2806 146c 0B40     		ands	r3, r3, r1
 2807 146e 1A43     		orrs	r2, r2, r3
 2808 1470 FB68     		ldr	r3, [r7, #12]
 2809 1472 1A44     		add	r2, r2, r3
 2810 1474 BB6D     		ldr	r3, [r7, #88]
 2811 1476 1A44     		add	r2, r2, r3
 2812 1478 6E4B     		ldr	r3, .L32+8
 2813 147a 1344     		add	r3, r3, r2
 2814 147c BB65     		str	r3, [r7, #88]
 2815 147e BB6D     		ldr	r3, [r7, #88]
 2816 1480 4FEA7353 		ror	r3, r3, #21
 2817 1484 3A6E     		ldr	r2, [r7, #96]
 2818 1486 1344     		add	r3, r3, r2
 2819 1488 BB65     		str	r3, [r7, #88]
 2820 148a BB6C     		ldr	r3, [r7, #72]
 2821 148c 4FEAB353 		ror	r3, r3, #22
 2822 1490 BB64     		str	r3, [r7, #72]
 2823 1492 7A6D     		ldr	r2, [r7, #84]
 2824 1494 FB6C     		ldr	r3, [r7, #76]
 2825 1496 1A40     		ands	r2, r2, r3
 2826 1498 7B6D     		ldr	r3, [r7, #84]
 2827 149a D943     		mvns	r1, r3
 2828 149c FB6E     		ldr	r3, [r7, #108]
 2829 149e 0B40     		ands	r3, r3, r1
 2830 14a0 1A43     		orrs	r2, r2, r3
 2831 14a2 BB6A     		ldr	r3, [r7, #40]
 2832 14a4 1A44     		add	r2, r2, r3
 2833 14a6 FB6D     		ldr	r3, [r7, #92]
 2834 14a8 1A44     		add	r2, r2, r3
 2835 14aa 634B     		ldr	r3, .L32+12
ARM GAS  C:\Users\dtjld\AppData\Local\Temp\cccTkoKh.s 			page 55


 2836 14ac 1344     		add	r3, r3, r2
 2837 14ae FB65     		str	r3, [r7, #92]
 2838 14b0 FB6D     		ldr	r3, [r7, #92]
 2839 14b2 4FEA7343 		ror	r3, r3, #17
 2840 14b6 7A6E     		ldr	r2, [r7, #100]
 2841 14b8 1344     		add	r3, r3, r2
 2842 14ba FB65     		str	r3, [r7, #92]
 2843 14bc FB6C     		ldr	r3, [r7, #76]
 2844 14be 4FEAB353 		ror	r3, r3, #22
 2845 14c2 FB64     		str	r3, [r7, #76]
 254:C:/Users/dtjld/workspace/AIoT/src/LiteOS_Lab/iot_link/network/dtls/mbedtls/mbedtls-2.16.2/library\ripemd160.c ****     P2( B, C, D, E, A,  9, 12,  6,  5 );
 2846              		.loc 1 254 0
 2847 14c4 BA6D     		ldr	r2, [r7, #88]
 2848 14c6 BB6C     		ldr	r3, [r7, #72]
 2849 14c8 1A40     		ands	r2, r2, r3
 2850 14ca BB6C     		ldr	r3, [r7, #72]
 2851 14cc D943     		mvns	r1, r3
 2852 14ce 3B6D     		ldr	r3, [r7, #80]
 2853 14d0 0B40     		ands	r3, r3, r1
 2854 14d2 1A43     		orrs	r2, r2, r3
 2855 14d4 FB6A     		ldr	r3, [r7, #44]
 2856 14d6 1A44     		add	r2, r2, r3
 2857 14d8 3B6E     		ldr	r3, [r7, #96]
 2858 14da 1A44     		add	r2, r2, r3
 2859 14dc 554B     		ldr	r3, .L32+8
 2860 14de 1344     		add	r3, r3, r2
 2861 14e0 3B66     		str	r3, [r7, #96]
 2862 14e2 3B6E     		ldr	r3, [r7, #96]
 2863 14e4 4FEA3353 		ror	r3, r3, #20
 2864 14e8 BA6E     		ldr	r2, [r7, #104]
 2865 14ea 1344     		add	r3, r3, r2
 2866 14ec 3B66     		str	r3, [r7, #96]
 2867 14ee 3B6D     		ldr	r3, [r7, #80]
 2868 14f0 4FEAB353 		ror	r3, r3, #22
 2869 14f4 3B65     		str	r3, [r7, #80]
 2870 14f6 FA6D     		ldr	r2, [r7, #92]
 2871 14f8 7B6D     		ldr	r3, [r7, #84]
 2872 14fa 1A40     		ands	r2, r2, r3
 2873 14fc FB6D     		ldr	r3, [r7, #92]
 2874 14fe D943     		mvns	r1, r3
 2875 1500 FB6C     		ldr	r3, [r7, #76]
 2876 1502 0B40     		ands	r3, r3, r1
 2877 1504 1A43     		orrs	r2, r2, r3
 2878 1506 3B6A     		ldr	r3, [r7, #32]
 2879 1508 1A44     		add	r2, r2, r3
 2880 150a 7B6E     		ldr	r3, [r7, #100]
 2881 150c 1A44     		add	r2, r2, r3
 2882 150e 4A4B     		ldr	r3, .L32+12
 2883 1510 1344     		add	r3, r3, r2
 2884 1512 7B66     		str	r3, [r7, #100]
 2885 1514 7B6E     		ldr	r3, [r7, #100]
 2886 1516 4FEAF363 		ror	r3, r3, #27
 2887 151a FA6E     		ldr	r2, [r7, #108]
 2888 151c 1344     		add	r3, r3, r2
 2889 151e 7B66     		str	r3, [r7, #100]
 2890 1520 7B6D     		ldr	r3, [r7, #84]
 2891 1522 4FEAB353 		ror	r3, r3, #22
ARM GAS  C:\Users\dtjld\AppData\Local\Temp\cccTkoKh.s 			page 56


 2892 1526 7B65     		str	r3, [r7, #84]
 255:C:/Users/dtjld/workspace/AIoT/src/LiteOS_Lab/iot_link/network/dtls/mbedtls/mbedtls-2.16.2/library\ripemd160.c ****     P2( A, B, C, D, E, 11, 14,  4,  8 );
 2893              		.loc 1 255 0
 2894 1528 3A6E     		ldr	r2, [r7, #96]
 2895 152a 3B6D     		ldr	r3, [r7, #80]
 2896 152c 1A40     		ands	r2, r2, r3
 2897 152e 3B6D     		ldr	r3, [r7, #80]
 2898 1530 D943     		mvns	r1, r3
 2899 1532 BB6D     		ldr	r3, [r7, #88]
 2900 1534 0B40     		ands	r3, r3, r1
 2901 1536 1A43     		orrs	r2, r2, r3
 2902 1538 7B6B     		ldr	r3, [r7, #52]
 2903 153a 1A44     		add	r2, r2, r3
 2904 153c BB6E     		ldr	r3, [r7, #104]
 2905 153e 1A44     		add	r2, r2, r3
 2906 1540 3C4B     		ldr	r3, .L32+8
 2907 1542 1344     		add	r3, r3, r2
 2908 1544 BB66     		str	r3, [r7, #104]
 2909 1546 BB6E     		ldr	r3, [r7, #104]
 2910 1548 4FEAB343 		ror	r3, r3, #18
 2911 154c BA6C     		ldr	r2, [r7, #72]
 2912 154e 1344     		add	r3, r3, r2
 2913 1550 BB66     		str	r3, [r7, #104]
 2914 1552 BB6D     		ldr	r3, [r7, #88]
 2915 1554 4FEAB353 		ror	r3, r3, #22
 2916 1558 BB65     		str	r3, [r7, #88]
 2917 155a 7A6E     		ldr	r2, [r7, #100]
 2918 155c FB6D     		ldr	r3, [r7, #92]
 2919 155e 1A40     		ands	r2, r2, r3
 2920 1560 7B6E     		ldr	r3, [r7, #100]
 2921 1562 D943     		mvns	r1, r3
 2922 1564 7B6D     		ldr	r3, [r7, #84]
 2923 1566 0B40     		ands	r3, r3, r1
 2924 1568 1A43     		orrs	r2, r2, r3
 2925 156a BB69     		ldr	r3, [r7, #24]
 2926 156c 1A44     		add	r2, r2, r3
 2927 156e FB6E     		ldr	r3, [r7, #108]
 2928 1570 1A44     		add	r2, r2, r3
 2929 1572 314B     		ldr	r3, .L32+12
 2930 1574 1344     		add	r3, r3, r2
 2931 1576 FB66     		str	r3, [r7, #108]
 2932 1578 FB6E     		ldr	r3, [r7, #108]
 2933 157a 4FEA3363 		ror	r3, r3, #24
 2934 157e FA6C     		ldr	r2, [r7, #76]
 2935 1580 1344     		add	r3, r3, r2
 2936 1582 FB66     		str	r3, [r7, #108]
 2937 1584 FB6D     		ldr	r3, [r7, #92]
 2938 1586 4FEAB353 		ror	r3, r3, #22
 2939 158a FB65     		str	r3, [r7, #92]
 256:C:/Users/dtjld/workspace/AIoT/src/LiteOS_Lab/iot_link/network/dtls/mbedtls/mbedtls-2.16.2/library\ripemd160.c ****     P2( E, A, B, C, D, 10, 15,  1, 11 );
 2940              		.loc 1 256 0
 2941 158c BA6E     		ldr	r2, [r7, #104]
 2942 158e BB6D     		ldr	r3, [r7, #88]
 2943 1590 1A40     		ands	r2, r2, r3
 2944 1592 BB6D     		ldr	r3, [r7, #88]
 2945 1594 D943     		mvns	r1, r3
 2946 1596 3B6E     		ldr	r3, [r7, #96]
ARM GAS  C:\Users\dtjld\AppData\Local\Temp\cccTkoKh.s 			page 57


 2947 1598 0B40     		ands	r3, r3, r1
 2948 159a 1A43     		orrs	r2, r2, r3
 2949 159c 3B6B     		ldr	r3, [r7, #48]
 2950 159e 1A44     		add	r2, r2, r3
 2951 15a0 BB6C     		ldr	r3, [r7, #72]
 2952 15a2 1A44     		add	r2, r2, r3
 2953 15a4 234B     		ldr	r3, .L32+8
 2954 15a6 1344     		add	r3, r3, r2
 2955 15a8 BB64     		str	r3, [r7, #72]
 2956 15aa BB6C     		ldr	r3, [r7, #72]
 2957 15ac 4FEA7343 		ror	r3, r3, #17
 2958 15b0 3A6D     		ldr	r2, [r7, #80]
 2959 15b2 1344     		add	r3, r3, r2
 2960 15b4 BB64     		str	r3, [r7, #72]
 2961 15b6 3B6E     		ldr	r3, [r7, #96]
 2962 15b8 4FEAB353 		ror	r3, r3, #22
 2963 15bc 3B66     		str	r3, [r7, #96]
 2964 15be FA6E     		ldr	r2, [r7, #108]
 2965 15c0 7B6E     		ldr	r3, [r7, #100]
 2966 15c2 1A40     		ands	r2, r2, r3
 2967 15c4 FB6E     		ldr	r3, [r7, #108]
 2968 15c6 D943     		mvns	r1, r3
 2969 15c8 FB6D     		ldr	r3, [r7, #92]
 2970 15ca 0B40     		ands	r3, r3, r1
 2971 15cc 1A43     		orrs	r2, r2, r3
 2972 15ce FB68     		ldr	r3, [r7, #12]
 2973 15d0 1A44     		add	r2, r2, r3
 2974 15d2 FB6C     		ldr	r3, [r7, #76]
 2975 15d4 1A44     		add	r2, r2, r3
 2976 15d6 184B     		ldr	r3, .L32+12
 2977 15d8 1344     		add	r3, r3, r2
 2978 15da FB64     		str	r3, [r7, #76]
 2979 15dc FB6C     		ldr	r3, [r7, #76]
 2980 15de 4FEA7353 		ror	r3, r3, #21
 2981 15e2 7A6D     		ldr	r2, [r7, #84]
 2982 15e4 1344     		add	r3, r3, r2
 2983 15e6 FB64     		str	r3, [r7, #76]
 2984 15e8 7B6E     		ldr	r3, [r7, #100]
 2985 15ea 4FEAB353 		ror	r3, r3, #22
 2986 15ee 7B66     		str	r3, [r7, #100]
 257:C:/Users/dtjld/workspace/AIoT/src/LiteOS_Lab/iot_link/network/dtls/mbedtls/mbedtls-2.16.2/library\ripemd160.c ****     P2( D, E, A, B, C,  0, 14,  3, 14 );
 2987              		.loc 1 257 0
 2988 15f0 BA6C     		ldr	r2, [r7, #72]
 2989 15f2 3B6E     		ldr	r3, [r7, #96]
 2990 15f4 1A40     		ands	r2, r2, r3
 2991 15f6 3B6E     		ldr	r3, [r7, #96]
 2992 15f8 D943     		mvns	r1, r3
 2993 15fa BB6E     		ldr	r3, [r7, #104]
 2994 15fc 0B40     		ands	r3, r3, r1
 2995 15fe 1A43     		orrs	r2, r2, r3
 2996 1600 BB68     		ldr	r3, [r7, #8]
 2997 1602 1A44     		add	r2, r2, r3
 2998 1604 3B6D     		ldr	r3, [r7, #80]
 2999 1606 1A44     		add	r2, r2, r3
 3000 1608 0A4B     		ldr	r3, .L32+8
 3001 160a 1344     		add	r3, r3, r2
 3002 160c 3B65     		str	r3, [r7, #80]
ARM GAS  C:\Users\dtjld\AppData\Local\Temp\cccTkoKh.s 			page 58


 3003 160e 3B6D     		ldr	r3, [r7, #80]
 3004 1610 4FEAB343 		ror	r3, r3, #18
 3005 1614 BA6D     		ldr	r2, [r7, #88]
 3006 1616 1344     		add	r3, r3, r2
 3007 1618 3B65     		str	r3, [r7, #80]
 3008 161a BB6E     		ldr	r3, [r7, #104]
 3009 161c 4FEAB353 		ror	r3, r3, #22
 3010 1620 BB66     		str	r3, [r7, #104]
 3011 1622 FA6C     		ldr	r2, [r7, #76]
 3012 1624 FB6E     		ldr	r3, [r7, #108]
 3013 1626 1A40     		ands	r2, r2, r3
 3014 1628 08E0     		b	.L33
 3015              	.L34:
 3016 162a 00BF     		.align	2
 3017              	.L32:
 3018 162c F33E706D 		.word	1836072691
 3019 1630 A1EBD96E 		.word	1859775393
 3020 1634 DCBC1B8F 		.word	-1894007588
 3021 1638 E9766D7A 		.word	2053994217
 3022              	.L33:
 3023 163c FB6C     		ldr	r3, [r7, #76]
 3024 163e D943     		mvns	r1, r3
 3025 1640 7B6E     		ldr	r3, [r7, #100]
 3026 1642 0B40     		ands	r3, r3, r1
 3027 1644 1A43     		orrs	r2, r2, r3
 3028 1646 7B69     		ldr	r3, [r7, #20]
 3029 1648 1A44     		add	r2, r2, r3
 3030 164a 7B6D     		ldr	r3, [r7, #84]
 3031 164c 1A44     		add	r2, r2, r3
 3032 164e A74B     		ldr	r3, .L35
 3033 1650 1344     		add	r3, r3, r2
 3034 1652 7B65     		str	r3, [r7, #84]
 3035 1654 7B6D     		ldr	r3, [r7, #84]
 3036 1656 4FEAB343 		ror	r3, r3, #18
 3037 165a FA6D     		ldr	r2, [r7, #92]
 3038 165c 1344     		add	r3, r3, r2
 3039 165e 7B65     		str	r3, [r7, #84]
 3040 1660 FB6E     		ldr	r3, [r7, #108]
 3041 1662 4FEAB353 		ror	r3, r3, #22
 3042 1666 FB66     		str	r3, [r7, #108]
 258:C:/Users/dtjld/workspace/AIoT/src/LiteOS_Lab/iot_link/network/dtls/mbedtls/mbedtls-2.16.2/library\ripemd160.c ****     P2( C, D, E, A, B,  8, 15, 11, 14 );
 3043              		.loc 1 258 0
 3044 1668 3A6D     		ldr	r2, [r7, #80]
 3045 166a BB6E     		ldr	r3, [r7, #104]
 3046 166c 1A40     		ands	r2, r2, r3
 3047 166e BB6E     		ldr	r3, [r7, #104]
 3048 1670 D943     		mvns	r1, r3
 3049 1672 BB6C     		ldr	r3, [r7, #72]
 3050 1674 0B40     		ands	r3, r3, r1
 3051 1676 1A43     		orrs	r2, r2, r3
 3052 1678 BB6A     		ldr	r3, [r7, #40]
 3053 167a 1A44     		add	r2, r2, r3
 3054 167c BB6D     		ldr	r3, [r7, #88]
 3055 167e 1A44     		add	r2, r2, r3
 3056 1680 9B4B     		ldr	r3, .L35+4
 3057 1682 1344     		add	r3, r3, r2
 3058 1684 BB65     		str	r3, [r7, #88]
ARM GAS  C:\Users\dtjld\AppData\Local\Temp\cccTkoKh.s 			page 59


 3059 1686 BB6D     		ldr	r3, [r7, #88]
 3060 1688 4FEA7343 		ror	r3, r3, #17
 3061 168c 3A6E     		ldr	r2, [r7, #96]
 3062 168e 1344     		add	r3, r3, r2
 3063 1690 BB65     		str	r3, [r7, #88]
 3064 1692 BB6C     		ldr	r3, [r7, #72]
 3065 1694 4FEAB353 		ror	r3, r3, #22
 3066 1698 BB64     		str	r3, [r7, #72]
 3067 169a 7A6D     		ldr	r2, [r7, #84]
 3068 169c FB6C     		ldr	r3, [r7, #76]
 3069 169e 1A40     		ands	r2, r2, r3
 3070 16a0 7B6D     		ldr	r3, [r7, #84]
 3071 16a2 D943     		mvns	r1, r3
 3072 16a4 FB6E     		ldr	r3, [r7, #108]
 3073 16a6 0B40     		ands	r3, r3, r1
 3074 16a8 1A43     		orrs	r2, r2, r3
 3075 16aa 7B6B     		ldr	r3, [r7, #52]
 3076 16ac 1A44     		add	r2, r2, r3
 3077 16ae FB6D     		ldr	r3, [r7, #92]
 3078 16b0 1A44     		add	r2, r2, r3
 3079 16b2 8E4B     		ldr	r3, .L35
 3080 16b4 1344     		add	r3, r3, r2
 3081 16b6 FB65     		str	r3, [r7, #92]
 3082 16b8 FB6D     		ldr	r3, [r7, #92]
 3083 16ba 4FEAB343 		ror	r3, r3, #18
 3084 16be 7A6E     		ldr	r2, [r7, #100]
 3085 16c0 1344     		add	r3, r3, r2
 3086 16c2 FB65     		str	r3, [r7, #92]
 3087 16c4 FB6C     		ldr	r3, [r7, #76]
 3088 16c6 4FEAB353 		ror	r3, r3, #22
 3089 16ca FB64     		str	r3, [r7, #76]
 259:C:/Users/dtjld/workspace/AIoT/src/LiteOS_Lab/iot_link/network/dtls/mbedtls/mbedtls-2.16.2/library\ripemd160.c ****     P2( B, C, D, E, A, 12,  9, 15,  6 );
 3090              		.loc 1 259 0
 3091 16cc BA6D     		ldr	r2, [r7, #88]
 3092 16ce BB6C     		ldr	r3, [r7, #72]
 3093 16d0 1A40     		ands	r2, r2, r3
 3094 16d2 BB6C     		ldr	r3, [r7, #72]
 3095 16d4 D943     		mvns	r1, r3
 3096 16d6 3B6D     		ldr	r3, [r7, #80]
 3097 16d8 0B40     		ands	r3, r3, r1
 3098 16da 1A43     		orrs	r2, r2, r3
 3099 16dc BB6B     		ldr	r3, [r7, #56]
 3100 16de 1A44     		add	r2, r2, r3
 3101 16e0 3B6E     		ldr	r3, [r7, #96]
 3102 16e2 1A44     		add	r2, r2, r3
 3103 16e4 824B     		ldr	r3, .L35+4
 3104 16e6 1344     		add	r3, r3, r2
 3105 16e8 3B66     		str	r3, [r7, #96]
 3106 16ea 3B6E     		ldr	r3, [r7, #96]
 3107 16ec 4FEAF353 		ror	r3, r3, #23
 3108 16f0 BA6E     		ldr	r2, [r7, #104]
 3109 16f2 1344     		add	r3, r3, r2
 3110 16f4 3B66     		str	r3, [r7, #96]
 3111 16f6 3B6D     		ldr	r3, [r7, #80]
 3112 16f8 4FEAB353 		ror	r3, r3, #22
 3113 16fc 3B65     		str	r3, [r7, #80]
 3114 16fe FA6D     		ldr	r2, [r7, #92]
ARM GAS  C:\Users\dtjld\AppData\Local\Temp\cccTkoKh.s 			page 60


 3115 1700 7B6D     		ldr	r3, [r7, #84]
 3116 1702 1A40     		ands	r2, r2, r3
 3117 1704 FB6D     		ldr	r3, [r7, #92]
 3118 1706 D943     		mvns	r1, r3
 3119 1708 FB6C     		ldr	r3, [r7, #76]
 3120 170a 0B40     		ands	r3, r3, r1
 3121 170c 1A43     		orrs	r2, r2, r3
 3122 170e 7B6C     		ldr	r3, [r7, #68]
 3123 1710 1A44     		add	r2, r2, r3
 3124 1712 7B6E     		ldr	r3, [r7, #100]
 3125 1714 1A44     		add	r2, r2, r3
 3126 1716 754B     		ldr	r3, .L35
 3127 1718 1344     		add	r3, r3, r2
 3128 171a 7B66     		str	r3, [r7, #100]
 3129 171c 7B6E     		ldr	r3, [r7, #100]
 3130 171e 4FEAB363 		ror	r3, r3, #26
 3131 1722 FA6E     		ldr	r2, [r7, #108]
 3132 1724 1344     		add	r3, r3, r2
 3133 1726 7B66     		str	r3, [r7, #100]
 3134 1728 7B6D     		ldr	r3, [r7, #84]
 3135 172a 4FEAB353 		ror	r3, r3, #22
 3136 172e 7B65     		str	r3, [r7, #84]
 260:C:/Users/dtjld/workspace/AIoT/src/LiteOS_Lab/iot_link/network/dtls/mbedtls/mbedtls-2.16.2/library\ripemd160.c ****     P2( A, B, C, D, E,  4,  8,  0, 14 );
 3137              		.loc 1 260 0
 3138 1730 3A6E     		ldr	r2, [r7, #96]
 3139 1732 3B6D     		ldr	r3, [r7, #80]
 3140 1734 1A40     		ands	r2, r2, r3
 3141 1736 3B6D     		ldr	r3, [r7, #80]
 3142 1738 D943     		mvns	r1, r3
 3143 173a BB6D     		ldr	r3, [r7, #88]
 3144 173c 0B40     		ands	r3, r3, r1
 3145 173e 1A43     		orrs	r2, r2, r3
 3146 1740 BB69     		ldr	r3, [r7, #24]
 3147 1742 1A44     		add	r2, r2, r3
 3148 1744 BB6E     		ldr	r3, [r7, #104]
 3149 1746 1A44     		add	r2, r2, r3
 3150 1748 694B     		ldr	r3, .L35+4
 3151 174a 1344     		add	r3, r3, r2
 3152 174c BB66     		str	r3, [r7, #104]
 3153 174e BB6E     		ldr	r3, [r7, #104]
 3154 1750 4FEA3363 		ror	r3, r3, #24
 3155 1754 BA6C     		ldr	r2, [r7, #72]
 3156 1756 1344     		add	r3, r3, r2
 3157 1758 BB66     		str	r3, [r7, #104]
 3158 175a BB6D     		ldr	r3, [r7, #88]
 3159 175c 4FEAB353 		ror	r3, r3, #22
 3160 1760 BB65     		str	r3, [r7, #88]
 3161 1762 7A6E     		ldr	r2, [r7, #100]
 3162 1764 FB6D     		ldr	r3, [r7, #92]
 3163 1766 1A40     		ands	r2, r2, r3
 3164 1768 7B6E     		ldr	r3, [r7, #100]
 3165 176a D943     		mvns	r1, r3
 3166 176c 7B6D     		ldr	r3, [r7, #84]
 3167 176e 0B40     		ands	r3, r3, r1
 3168 1770 1A43     		orrs	r2, r2, r3
 3169 1772 BB68     		ldr	r3, [r7, #8]
 3170 1774 1A44     		add	r2, r2, r3
ARM GAS  C:\Users\dtjld\AppData\Local\Temp\cccTkoKh.s 			page 61


 3171 1776 FB6E     		ldr	r3, [r7, #108]
 3172 1778 1A44     		add	r2, r2, r3
 3173 177a 5C4B     		ldr	r3, .L35
 3174 177c 1344     		add	r3, r3, r2
 3175 177e FB66     		str	r3, [r7, #108]
 3176 1780 FB6E     		ldr	r3, [r7, #108]
 3177 1782 4FEAB343 		ror	r3, r3, #18
 3178 1786 FA6C     		ldr	r2, [r7, #76]
 3179 1788 1344     		add	r3, r3, r2
 3180 178a FB66     		str	r3, [r7, #108]
 3181 178c FB6D     		ldr	r3, [r7, #92]
 3182 178e 4FEAB353 		ror	r3, r3, #22
 3183 1792 FB65     		str	r3, [r7, #92]
 261:C:/Users/dtjld/workspace/AIoT/src/LiteOS_Lab/iot_link/network/dtls/mbedtls/mbedtls-2.16.2/library\ripemd160.c ****     P2( E, A, B, C, D, 13,  9,  5,  6 );
 3184              		.loc 1 261 0
 3185 1794 BA6E     		ldr	r2, [r7, #104]
 3186 1796 BB6D     		ldr	r3, [r7, #88]
 3187 1798 1A40     		ands	r2, r2, r3
 3188 179a BB6D     		ldr	r3, [r7, #88]
 3189 179c D943     		mvns	r1, r3
 3190 179e 3B6E     		ldr	r3, [r7, #96]
 3191 17a0 0B40     		ands	r3, r3, r1
 3192 17a2 1A43     		orrs	r2, r2, r3
 3193 17a4 FB6B     		ldr	r3, [r7, #60]
 3194 17a6 1A44     		add	r2, r2, r3
 3195 17a8 BB6C     		ldr	r3, [r7, #72]
 3196 17aa 1A44     		add	r2, r2, r3
 3197 17ac 504B     		ldr	r3, .L35+4
 3198 17ae 1344     		add	r3, r3, r2
 3199 17b0 BB64     		str	r3, [r7, #72]
 3200 17b2 BB6C     		ldr	r3, [r7, #72]
 3201 17b4 4FEAF353 		ror	r3, r3, #23
 3202 17b8 3A6D     		ldr	r2, [r7, #80]
 3203 17ba 1344     		add	r3, r3, r2
 3204 17bc BB64     		str	r3, [r7, #72]
 3205 17be 3B6E     		ldr	r3, [r7, #96]
 3206 17c0 4FEAB353 		ror	r3, r3, #22
 3207 17c4 3B66     		str	r3, [r7, #96]
 3208 17c6 FA6E     		ldr	r2, [r7, #108]
 3209 17c8 7B6E     		ldr	r3, [r7, #100]
 3210 17ca 1A40     		ands	r2, r2, r3
 3211 17cc FB6E     		ldr	r3, [r7, #108]
 3212 17ce D943     		mvns	r1, r3
 3213 17d0 FB6D     		ldr	r3, [r7, #92]
 3214 17d2 0B40     		ands	r3, r3, r1
 3215 17d4 1A43     		orrs	r2, r2, r3
 3216 17d6 FB69     		ldr	r3, [r7, #28]
 3217 17d8 1A44     		add	r2, r2, r3
 3218 17da FB6C     		ldr	r3, [r7, #76]
 3219 17dc 1A44     		add	r2, r2, r3
 3220 17de 434B     		ldr	r3, .L35
 3221 17e0 1344     		add	r3, r3, r2
 3222 17e2 FB64     		str	r3, [r7, #76]
 3223 17e4 FB6C     		ldr	r3, [r7, #76]
 3224 17e6 4FEAB363 		ror	r3, r3, #26
 3225 17ea 7A6D     		ldr	r2, [r7, #84]
 3226 17ec 1344     		add	r3, r3, r2
ARM GAS  C:\Users\dtjld\AppData\Local\Temp\cccTkoKh.s 			page 62


 3227 17ee FB64     		str	r3, [r7, #76]
 3228 17f0 7B6E     		ldr	r3, [r7, #100]
 3229 17f2 4FEAB353 		ror	r3, r3, #22
 3230 17f6 7B66     		str	r3, [r7, #100]
 262:C:/Users/dtjld/workspace/AIoT/src/LiteOS_Lab/iot_link/network/dtls/mbedtls/mbedtls-2.16.2/library\ripemd160.c ****     P2( D, E, A, B, C,  3, 14, 12,  9 );
 3231              		.loc 1 262 0
 3232 17f8 BA6C     		ldr	r2, [r7, #72]
 3233 17fa 3B6E     		ldr	r3, [r7, #96]
 3234 17fc 1A40     		ands	r2, r2, r3
 3235 17fe 3B6E     		ldr	r3, [r7, #96]
 3236 1800 D943     		mvns	r1, r3
 3237 1802 BB6E     		ldr	r3, [r7, #104]
 3238 1804 0B40     		ands	r3, r3, r1
 3239 1806 1A43     		orrs	r2, r2, r3
 3240 1808 7B69     		ldr	r3, [r7, #20]
 3241 180a 1A44     		add	r2, r2, r3
 3242 180c 3B6D     		ldr	r3, [r7, #80]
 3243 180e 1A44     		add	r2, r2, r3
 3244 1810 374B     		ldr	r3, .L35+4
 3245 1812 1344     		add	r3, r3, r2
 3246 1814 3B65     		str	r3, [r7, #80]
 3247 1816 3B6D     		ldr	r3, [r7, #80]
 3248 1818 4FEAB343 		ror	r3, r3, #18
 3249 181c BA6D     		ldr	r2, [r7, #88]
 3250 181e 1344     		add	r3, r3, r2
 3251 1820 3B65     		str	r3, [r7, #80]
 3252 1822 BB6E     		ldr	r3, [r7, #104]
 3253 1824 4FEAB353 		ror	r3, r3, #22
 3254 1828 BB66     		str	r3, [r7, #104]
 3255 182a FA6C     		ldr	r2, [r7, #76]
 3256 182c FB6E     		ldr	r3, [r7, #108]
 3257 182e 1A40     		ands	r2, r2, r3
 3258 1830 FB6C     		ldr	r3, [r7, #76]
 3259 1832 D943     		mvns	r1, r3
 3260 1834 7B6E     		ldr	r3, [r7, #100]
 3261 1836 0B40     		ands	r3, r3, r1
 3262 1838 1A43     		orrs	r2, r2, r3
 3263 183a BB6B     		ldr	r3, [r7, #56]
 3264 183c 1A44     		add	r2, r2, r3
 3265 183e 7B6D     		ldr	r3, [r7, #84]
 3266 1840 1A44     		add	r2, r2, r3
 3267 1842 2A4B     		ldr	r3, .L35
 3268 1844 1344     		add	r3, r3, r2
 3269 1846 7B65     		str	r3, [r7, #84]
 3270 1848 7B6D     		ldr	r3, [r7, #84]
 3271 184a 4FEAF353 		ror	r3, r3, #23
 3272 184e FA6D     		ldr	r2, [r7, #92]
 3273 1850 1344     		add	r3, r3, r2
 3274 1852 7B65     		str	r3, [r7, #84]
 3275 1854 FB6E     		ldr	r3, [r7, #108]
 3276 1856 4FEAB353 		ror	r3, r3, #22
 3277 185a FB66     		str	r3, [r7, #108]
 263:C:/Users/dtjld/workspace/AIoT/src/LiteOS_Lab/iot_link/network/dtls/mbedtls/mbedtls-2.16.2/library\ripemd160.c ****     P2( C, D, E, A, B,  7,  5,  2, 12 );
 3278              		.loc 1 263 0
 3279 185c 3A6D     		ldr	r2, [r7, #80]
 3280 185e BB6E     		ldr	r3, [r7, #104]
 3281 1860 1A40     		ands	r2, r2, r3
ARM GAS  C:\Users\dtjld\AppData\Local\Temp\cccTkoKh.s 			page 63


 3282 1862 BB6E     		ldr	r3, [r7, #104]
 3283 1864 D943     		mvns	r1, r3
 3284 1866 BB6C     		ldr	r3, [r7, #72]
 3285 1868 0B40     		ands	r3, r3, r1
 3286 186a 1A43     		orrs	r2, r2, r3
 3287 186c 7B6A     		ldr	r3, [r7, #36]
 3288 186e 1A44     		add	r2, r2, r3
 3289 1870 BB6D     		ldr	r3, [r7, #88]
 3290 1872 1A44     		add	r2, r2, r3
 3291 1874 1E4B     		ldr	r3, .L35+4
 3292 1876 1344     		add	r3, r3, r2
 3293 1878 BB65     		str	r3, [r7, #88]
 3294 187a BB6D     		ldr	r3, [r7, #88]
 3295 187c 4FEAF363 		ror	r3, r3, #27
 3296 1880 3A6E     		ldr	r2, [r7, #96]
 3297 1882 1344     		add	r3, r3, r2
 3298 1884 BB65     		str	r3, [r7, #88]
 3299 1886 BB6C     		ldr	r3, [r7, #72]
 3300 1888 4FEAB353 		ror	r3, r3, #22
 3301 188c BB64     		str	r3, [r7, #72]
 3302 188e 7A6D     		ldr	r2, [r7, #84]
 3303 1890 FB6C     		ldr	r3, [r7, #76]
 3304 1892 1A40     		ands	r2, r2, r3
 3305 1894 7B6D     		ldr	r3, [r7, #84]
 3306 1896 D943     		mvns	r1, r3
 3307 1898 FB6E     		ldr	r3, [r7, #108]
 3308 189a 0B40     		ands	r3, r3, r1
 3309 189c 1A43     		orrs	r2, r2, r3
 3310 189e 3B69     		ldr	r3, [r7, #16]
 3311 18a0 1A44     		add	r2, r2, r3
 3312 18a2 FB6D     		ldr	r3, [r7, #92]
 3313 18a4 1A44     		add	r2, r2, r3
 3314 18a6 114B     		ldr	r3, .L35
 3315 18a8 1344     		add	r3, r3, r2
 3316 18aa FB65     		str	r3, [r7, #92]
 3317 18ac FB6D     		ldr	r3, [r7, #92]
 3318 18ae 4FEA3353 		ror	r3, r3, #20
 3319 18b2 7A6E     		ldr	r2, [r7, #100]
 3320 18b4 1344     		add	r3, r3, r2
 3321 18b6 FB65     		str	r3, [r7, #92]
 3322 18b8 FB6C     		ldr	r3, [r7, #76]
 3323 18ba 4FEAB353 		ror	r3, r3, #22
 3324 18be FB64     		str	r3, [r7, #76]
 264:C:/Users/dtjld/workspace/AIoT/src/LiteOS_Lab/iot_link/network/dtls/mbedtls/mbedtls-2.16.2/library\ripemd160.c ****     P2( B, C, D, E, A, 15,  6, 13,  9 );
 3325              		.loc 1 264 0
 3326 18c0 BA6D     		ldr	r2, [r7, #88]
 3327 18c2 BB6C     		ldr	r3, [r7, #72]
 3328 18c4 1A40     		ands	r2, r2, r3
 3329 18c6 BB6C     		ldr	r3, [r7, #72]
 3330 18c8 D943     		mvns	r1, r3
 3331 18ca 3B6D     		ldr	r3, [r7, #80]
 3332 18cc 0B40     		ands	r3, r3, r1
 3333 18ce 1A43     		orrs	r2, r2, r3
 3334 18d0 7B6C     		ldr	r3, [r7, #68]
 3335 18d2 1A44     		add	r2, r2, r3
 3336 18d4 3B6E     		ldr	r3, [r7, #96]
 3337 18d6 1A44     		add	r2, r2, r3
ARM GAS  C:\Users\dtjld\AppData\Local\Temp\cccTkoKh.s 			page 64


 3338 18d8 054B     		ldr	r3, .L35+4
 3339 18da 1344     		add	r3, r3, r2
 3340 18dc 3B66     		str	r3, [r7, #96]
 3341 18de 3B6E     		ldr	r3, [r7, #96]
 3342 18e0 4FEAB363 		ror	r3, r3, #26
 3343 18e4 BA6E     		ldr	r2, [r7, #104]
 3344 18e6 1344     		add	r3, r3, r2
 3345 18e8 3B66     		str	r3, [r7, #96]
 3346 18ea 03E0     		b	.L36
 3347              	.L37:
 3348              		.align	2
 3349              	.L35:
 3350 18ec E9766D7A 		.word	2053994217
 3351 18f0 DCBC1B8F 		.word	-1894007588
 3352              	.L36:
 3353 18f4 3B6D     		ldr	r3, [r7, #80]
 3354 18f6 4FEAB353 		ror	r3, r3, #22
 3355 18fa 3B65     		str	r3, [r7, #80]
 3356 18fc FA6D     		ldr	r2, [r7, #92]
 3357 18fe 7B6D     		ldr	r3, [r7, #84]
 3358 1900 1A40     		ands	r2, r2, r3
 3359 1902 FB6D     		ldr	r3, [r7, #92]
 3360 1904 D943     		mvns	r1, r3
 3361 1906 FB6C     		ldr	r3, [r7, #76]
 3362 1908 0B40     		ands	r3, r3, r1
 3363 190a 1A43     		orrs	r2, r2, r3
 3364 190c FB6B     		ldr	r3, [r7, #60]
 3365 190e 1A44     		add	r2, r2, r3
 3366 1910 7B6E     		ldr	r3, [r7, #100]
 3367 1912 1A44     		add	r2, r2, r3
 3368 1914 A64B     		ldr	r3, .L38
 3369 1916 1344     		add	r3, r3, r2
 3370 1918 7B66     		str	r3, [r7, #100]
 3371 191a 7B6E     		ldr	r3, [r7, #100]
 3372 191c 4FEAF353 		ror	r3, r3, #23
 3373 1920 FA6E     		ldr	r2, [r7, #108]
 3374 1922 1344     		add	r3, r3, r2
 3375 1924 7B66     		str	r3, [r7, #100]
 3376 1926 7B6D     		ldr	r3, [r7, #84]
 3377 1928 4FEAB353 		ror	r3, r3, #22
 3378 192c 7B65     		str	r3, [r7, #84]
 265:C:/Users/dtjld/workspace/AIoT/src/LiteOS_Lab/iot_link/network/dtls/mbedtls/mbedtls-2.16.2/library\ripemd160.c ****     P2( A, B, C, D, E, 14,  8,  9, 12 );
 3379              		.loc 1 265 0
 3380 192e 3A6E     		ldr	r2, [r7, #96]
 3381 1930 3B6D     		ldr	r3, [r7, #80]
 3382 1932 1A40     		ands	r2, r2, r3
 3383 1934 3B6D     		ldr	r3, [r7, #80]
 3384 1936 D943     		mvns	r1, r3
 3385 1938 BB6D     		ldr	r3, [r7, #88]
 3386 193a 0B40     		ands	r3, r3, r1
 3387 193c 1A43     		orrs	r2, r2, r3
 3388 193e 3B6C     		ldr	r3, [r7, #64]
 3389 1940 1A44     		add	r2, r2, r3
 3390 1942 BB6E     		ldr	r3, [r7, #104]
 3391 1944 1A44     		add	r2, r2, r3
 3392 1946 9B4B     		ldr	r3, .L38+4
 3393 1948 1344     		add	r3, r3, r2
ARM GAS  C:\Users\dtjld\AppData\Local\Temp\cccTkoKh.s 			page 65


 3394 194a BB66     		str	r3, [r7, #104]
 3395 194c BB6E     		ldr	r3, [r7, #104]
 3396 194e 4FEA3363 		ror	r3, r3, #24
 3397 1952 BA6C     		ldr	r2, [r7, #72]
 3398 1954 1344     		add	r3, r3, r2
 3399 1956 BB66     		str	r3, [r7, #104]
 3400 1958 BB6D     		ldr	r3, [r7, #88]
 3401 195a 4FEAB353 		ror	r3, r3, #22
 3402 195e BB65     		str	r3, [r7, #88]
 3403 1960 7A6E     		ldr	r2, [r7, #100]
 3404 1962 FB6D     		ldr	r3, [r7, #92]
 3405 1964 1A40     		ands	r2, r2, r3
 3406 1966 7B6E     		ldr	r3, [r7, #100]
 3407 1968 D943     		mvns	r1, r3
 3408 196a 7B6D     		ldr	r3, [r7, #84]
 3409 196c 0B40     		ands	r3, r3, r1
 3410 196e 1A43     		orrs	r2, r2, r3
 3411 1970 FB6A     		ldr	r3, [r7, #44]
 3412 1972 1A44     		add	r2, r2, r3
 3413 1974 FB6E     		ldr	r3, [r7, #108]
 3414 1976 1A44     		add	r2, r2, r3
 3415 1978 8D4B     		ldr	r3, .L38
 3416 197a 1344     		add	r3, r3, r2
 3417 197c FB66     		str	r3, [r7, #108]
 3418 197e FB6E     		ldr	r3, [r7, #108]
 3419 1980 4FEA3353 		ror	r3, r3, #20
 3420 1984 FA6C     		ldr	r2, [r7, #76]
 3421 1986 1344     		add	r3, r3, r2
 3422 1988 FB66     		str	r3, [r7, #108]
 3423 198a FB6D     		ldr	r3, [r7, #92]
 3424 198c 4FEAB353 		ror	r3, r3, #22
 3425 1990 FB65     		str	r3, [r7, #92]
 266:C:/Users/dtjld/workspace/AIoT/src/LiteOS_Lab/iot_link/network/dtls/mbedtls/mbedtls-2.16.2/library\ripemd160.c ****     P2( E, A, B, C, D,  5,  6,  7,  5 );
 3426              		.loc 1 266 0
 3427 1992 BA6E     		ldr	r2, [r7, #104]
 3428 1994 BB6D     		ldr	r3, [r7, #88]
 3429 1996 1A40     		ands	r2, r2, r3
 3430 1998 BB6D     		ldr	r3, [r7, #88]
 3431 199a D943     		mvns	r1, r3
 3432 199c 3B6E     		ldr	r3, [r7, #96]
 3433 199e 0B40     		ands	r3, r3, r1
 3434 19a0 1A43     		orrs	r2, r2, r3
 3435 19a2 FB69     		ldr	r3, [r7, #28]
 3436 19a4 1A44     		add	r2, r2, r3
 3437 19a6 BB6C     		ldr	r3, [r7, #72]
 3438 19a8 1A44     		add	r2, r2, r3
 3439 19aa 824B     		ldr	r3, .L38+4
 3440 19ac 1344     		add	r3, r3, r2
 3441 19ae BB64     		str	r3, [r7, #72]
 3442 19b0 BB6C     		ldr	r3, [r7, #72]
 3443 19b2 4FEAB363 		ror	r3, r3, #26
 3444 19b6 3A6D     		ldr	r2, [r7, #80]
 3445 19b8 1344     		add	r3, r3, r2
 3446 19ba BB64     		str	r3, [r7, #72]
 3447 19bc 3B6E     		ldr	r3, [r7, #96]
 3448 19be 4FEAB353 		ror	r3, r3, #22
 3449 19c2 3B66     		str	r3, [r7, #96]
ARM GAS  C:\Users\dtjld\AppData\Local\Temp\cccTkoKh.s 			page 66


 3450 19c4 FA6E     		ldr	r2, [r7, #108]
 3451 19c6 7B6E     		ldr	r3, [r7, #100]
 3452 19c8 1A40     		ands	r2, r2, r3
 3453 19ca FB6E     		ldr	r3, [r7, #108]
 3454 19cc D943     		mvns	r1, r3
 3455 19ce FB6D     		ldr	r3, [r7, #92]
 3456 19d0 0B40     		ands	r3, r3, r1
 3457 19d2 1A43     		orrs	r2, r2, r3
 3458 19d4 7B6A     		ldr	r3, [r7, #36]
 3459 19d6 1A44     		add	r2, r2, r3
 3460 19d8 FB6C     		ldr	r3, [r7, #76]
 3461 19da 1A44     		add	r2, r2, r3
 3462 19dc 744B     		ldr	r3, .L38
 3463 19de 1344     		add	r3, r3, r2
 3464 19e0 FB64     		str	r3, [r7, #76]
 3465 19e2 FB6C     		ldr	r3, [r7, #76]
 3466 19e4 4FEAF363 		ror	r3, r3, #27
 3467 19e8 7A6D     		ldr	r2, [r7, #84]
 3468 19ea 1344     		add	r3, r3, r2
 3469 19ec FB64     		str	r3, [r7, #76]
 3470 19ee 7B6E     		ldr	r3, [r7, #100]
 3471 19f0 4FEAB353 		ror	r3, r3, #22
 3472 19f4 7B66     		str	r3, [r7, #100]
 267:C:/Users/dtjld/workspace/AIoT/src/LiteOS_Lab/iot_link/network/dtls/mbedtls/mbedtls-2.16.2/library\ripemd160.c ****     P2( D, E, A, B, C,  6,  5, 10, 15 );
 3473              		.loc 1 267 0
 3474 19f6 BA6C     		ldr	r2, [r7, #72]
 3475 19f8 3B6E     		ldr	r3, [r7, #96]
 3476 19fa 1A40     		ands	r2, r2, r3
 3477 19fc 3B6E     		ldr	r3, [r7, #96]
 3478 19fe D943     		mvns	r1, r3
 3479 1a00 BB6E     		ldr	r3, [r7, #104]
 3480 1a02 0B40     		ands	r3, r3, r1
 3481 1a04 1A43     		orrs	r2, r2, r3
 3482 1a06 3B6A     		ldr	r3, [r7, #32]
 3483 1a08 1A44     		add	r2, r2, r3
 3484 1a0a 3B6D     		ldr	r3, [r7, #80]
 3485 1a0c 1A44     		add	r2, r2, r3
 3486 1a0e 694B     		ldr	r3, .L38+4
 3487 1a10 1344     		add	r3, r3, r2
 3488 1a12 3B65     		str	r3, [r7, #80]
 3489 1a14 3B6D     		ldr	r3, [r7, #80]
 3490 1a16 4FEAF363 		ror	r3, r3, #27
 3491 1a1a BA6D     		ldr	r2, [r7, #88]
 3492 1a1c 1344     		add	r3, r3, r2
 3493 1a1e 3B65     		str	r3, [r7, #80]
 3494 1a20 BB6E     		ldr	r3, [r7, #104]
 3495 1a22 4FEAB353 		ror	r3, r3, #22
 3496 1a26 BB66     		str	r3, [r7, #104]
 3497 1a28 FA6C     		ldr	r2, [r7, #76]
 3498 1a2a FB6E     		ldr	r3, [r7, #108]
 3499 1a2c 1A40     		ands	r2, r2, r3
 3500 1a2e FB6C     		ldr	r3, [r7, #76]
 3501 1a30 D943     		mvns	r1, r3
 3502 1a32 7B6E     		ldr	r3, [r7, #100]
 3503 1a34 0B40     		ands	r3, r3, r1
 3504 1a36 1A43     		orrs	r2, r2, r3
 3505 1a38 3B6B     		ldr	r3, [r7, #48]
ARM GAS  C:\Users\dtjld\AppData\Local\Temp\cccTkoKh.s 			page 67


 3506 1a3a 1A44     		add	r2, r2, r3
 3507 1a3c 7B6D     		ldr	r3, [r7, #84]
 3508 1a3e 1A44     		add	r2, r2, r3
 3509 1a40 5B4B     		ldr	r3, .L38
 3510 1a42 1344     		add	r3, r3, r2
 3511 1a44 7B65     		str	r3, [r7, #84]
 3512 1a46 7B6D     		ldr	r3, [r7, #84]
 3513 1a48 4FEA7343 		ror	r3, r3, #17
 3514 1a4c FA6D     		ldr	r2, [r7, #92]
 3515 1a4e 1344     		add	r3, r3, r2
 3516 1a50 7B65     		str	r3, [r7, #84]
 3517 1a52 FB6E     		ldr	r3, [r7, #108]
 3518 1a54 4FEAB353 		ror	r3, r3, #22
 3519 1a58 FB66     		str	r3, [r7, #108]
 268:C:/Users/dtjld/workspace/AIoT/src/LiteOS_Lab/iot_link/network/dtls/mbedtls/mbedtls-2.16.2/library\ripemd160.c ****     P2( C, D, E, A, B,  2, 12, 14,  8 );
 3520              		.loc 1 268 0
 3521 1a5a 3A6D     		ldr	r2, [r7, #80]
 3522 1a5c BB6E     		ldr	r3, [r7, #104]
 3523 1a5e 1A40     		ands	r2, r2, r3
 3524 1a60 BB6E     		ldr	r3, [r7, #104]
 3525 1a62 D943     		mvns	r1, r3
 3526 1a64 BB6C     		ldr	r3, [r7, #72]
 3527 1a66 0B40     		ands	r3, r3, r1
 3528 1a68 1A43     		orrs	r2, r2, r3
 3529 1a6a 3B69     		ldr	r3, [r7, #16]
 3530 1a6c 1A44     		add	r2, r2, r3
 3531 1a6e BB6D     		ldr	r3, [r7, #88]
 3532 1a70 1A44     		add	r2, r2, r3
 3533 1a72 504B     		ldr	r3, .L38+4
 3534 1a74 1344     		add	r3, r3, r2
 3535 1a76 BB65     		str	r3, [r7, #88]
 3536 1a78 BB6D     		ldr	r3, [r7, #88]
 3537 1a7a 4FEA3353 		ror	r3, r3, #20
 3538 1a7e 3A6E     		ldr	r2, [r7, #96]
 3539 1a80 1344     		add	r3, r3, r2
 3540 1a82 BB65     		str	r3, [r7, #88]
 3541 1a84 BB6C     		ldr	r3, [r7, #72]
 3542 1a86 4FEAB353 		ror	r3, r3, #22
 3543 1a8a BB64     		str	r3, [r7, #72]
 3544 1a8c 7A6D     		ldr	r2, [r7, #84]
 3545 1a8e FB6C     		ldr	r3, [r7, #76]
 3546 1a90 1A40     		ands	r2, r2, r3
 3547 1a92 7B6D     		ldr	r3, [r7, #84]
 3548 1a94 D943     		mvns	r1, r3
 3549 1a96 FB6E     		ldr	r3, [r7, #108]
 3550 1a98 0B40     		ands	r3, r3, r1
 3551 1a9a 1A43     		orrs	r2, r2, r3
 3552 1a9c 3B6C     		ldr	r3, [r7, #64]
 3553 1a9e 1A44     		add	r2, r2, r3
 3554 1aa0 FB6D     		ldr	r3, [r7, #92]
 3555 1aa2 1A44     		add	r2, r2, r3
 3556 1aa4 424B     		ldr	r3, .L38
 3557 1aa6 1344     		add	r3, r3, r2
 3558 1aa8 FB65     		str	r3, [r7, #92]
 3559 1aaa FB6D     		ldr	r3, [r7, #92]
 3560 1aac 4FEA3363 		ror	r3, r3, #24
 3561 1ab0 7A6E     		ldr	r2, [r7, #100]
ARM GAS  C:\Users\dtjld\AppData\Local\Temp\cccTkoKh.s 			page 68


 3562 1ab2 1344     		add	r3, r3, r2
 3563 1ab4 FB65     		str	r3, [r7, #92]
 3564 1ab6 FB6C     		ldr	r3, [r7, #76]
 3565 1ab8 4FEAB353 		ror	r3, r3, #22
 3566 1abc FB64     		str	r3, [r7, #76]
 269:C:/Users/dtjld/workspace/AIoT/src/LiteOS_Lab/iot_link/network/dtls/mbedtls/mbedtls-2.16.2/library\ripemd160.c **** #undef F
 270:C:/Users/dtjld/workspace/AIoT/src/LiteOS_Lab/iot_link/network/dtls/mbedtls/mbedtls-2.16.2/library\ripemd160.c **** #undef K
 271:C:/Users/dtjld/workspace/AIoT/src/LiteOS_Lab/iot_link/network/dtls/mbedtls/mbedtls-2.16.2/library\ripemd160.c **** #undef Fp
 272:C:/Users/dtjld/workspace/AIoT/src/LiteOS_Lab/iot_link/network/dtls/mbedtls/mbedtls-2.16.2/library\ripemd160.c **** #undef Kp
 273:C:/Users/dtjld/workspace/AIoT/src/LiteOS_Lab/iot_link/network/dtls/mbedtls/mbedtls-2.16.2/library\ripemd160.c **** 
 274:C:/Users/dtjld/workspace/AIoT/src/LiteOS_Lab/iot_link/network/dtls/mbedtls/mbedtls-2.16.2/library\ripemd160.c **** #define F   F5
 275:C:/Users/dtjld/workspace/AIoT/src/LiteOS_Lab/iot_link/network/dtls/mbedtls/mbedtls-2.16.2/library\ripemd160.c **** #define K   0xA953FD4E
 276:C:/Users/dtjld/workspace/AIoT/src/LiteOS_Lab/iot_link/network/dtls/mbedtls/mbedtls-2.16.2/library\ripemd160.c **** #define Fp  F1
 277:C:/Users/dtjld/workspace/AIoT/src/LiteOS_Lab/iot_link/network/dtls/mbedtls/mbedtls-2.16.2/library\ripemd160.c **** #define Kp  0x00000000
 278:C:/Users/dtjld/workspace/AIoT/src/LiteOS_Lab/iot_link/network/dtls/mbedtls/mbedtls-2.16.2/library\ripemd160.c ****     P2( B, C, D, E, A,  4,  9, 12,  8 );
 3567              		.loc 1 278 0
 3568 1abe BB6C     		ldr	r3, [r7, #72]
 3569 1ac0 DA43     		mvns	r2, r3
 3570 1ac2 3B6D     		ldr	r3, [r7, #80]
 3571 1ac4 1A43     		orrs	r2, r2, r3
 3572 1ac6 BB6D     		ldr	r3, [r7, #88]
 3573 1ac8 5A40     		eors	r2, r2, r3
 3574 1aca BB69     		ldr	r3, [r7, #24]
 3575 1acc 1A44     		add	r2, r2, r3
 3576 1ace 3B6E     		ldr	r3, [r7, #96]
 3577 1ad0 1A44     		add	r2, r2, r3
 3578 1ad2 394B     		ldr	r3, .L38+8
 3579 1ad4 1344     		add	r3, r3, r2
 3580 1ad6 3B66     		str	r3, [r7, #96]
 3581 1ad8 3B6E     		ldr	r3, [r7, #96]
 3582 1ada 4FEAF353 		ror	r3, r3, #23
 3583 1ade BA6E     		ldr	r2, [r7, #104]
 3584 1ae0 1344     		add	r3, r3, r2
 3585 1ae2 3B66     		str	r3, [r7, #96]
 3586 1ae4 3B6D     		ldr	r3, [r7, #80]
 3587 1ae6 4FEAB353 		ror	r3, r3, #22
 3588 1aea 3B65     		str	r3, [r7, #80]
 3589 1aec FA6D     		ldr	r2, [r7, #92]
 3590 1aee 7B6D     		ldr	r3, [r7, #84]
 3591 1af0 5A40     		eors	r2, r2, r3
 3592 1af2 FB6C     		ldr	r3, [r7, #76]
 3593 1af4 5A40     		eors	r2, r2, r3
 3594 1af6 BB6B     		ldr	r3, [r7, #56]
 3595 1af8 1344     		add	r3, r3, r2
 3596 1afa 7A6E     		ldr	r2, [r7, #100]
 3597 1afc 1344     		add	r3, r3, r2
 3598 1afe 7B66     		str	r3, [r7, #100]
 3599 1b00 7B6E     		ldr	r3, [r7, #100]
 3600 1b02 4FEA3363 		ror	r3, r3, #24
 3601 1b06 FA6E     		ldr	r2, [r7, #108]
 3602 1b08 1344     		add	r3, r3, r2
 3603 1b0a 7B66     		str	r3, [r7, #100]
 3604 1b0c 7B6D     		ldr	r3, [r7, #84]
 3605 1b0e 4FEAB353 		ror	r3, r3, #22
 3606 1b12 7B65     		str	r3, [r7, #84]
 279:C:/Users/dtjld/workspace/AIoT/src/LiteOS_Lab/iot_link/network/dtls/mbedtls/mbedtls-2.16.2/library\ripemd160.c ****     P2( A, B, C, D, E,  0, 15, 15,  5 );
 3607              		.loc 1 279 0
ARM GAS  C:\Users\dtjld\AppData\Local\Temp\cccTkoKh.s 			page 69


 3608 1b14 3B6D     		ldr	r3, [r7, #80]
 3609 1b16 DA43     		mvns	r2, r3
 3610 1b18 BB6D     		ldr	r3, [r7, #88]
 3611 1b1a 1A43     		orrs	r2, r2, r3
 3612 1b1c 3B6E     		ldr	r3, [r7, #96]
 3613 1b1e 5A40     		eors	r2, r2, r3
 3614 1b20 BB68     		ldr	r3, [r7, #8]
 3615 1b22 1A44     		add	r2, r2, r3
 3616 1b24 BB6E     		ldr	r3, [r7, #104]
 3617 1b26 1A44     		add	r2, r2, r3
 3618 1b28 234B     		ldr	r3, .L38+8
 3619 1b2a 1344     		add	r3, r3, r2
 3620 1b2c BB66     		str	r3, [r7, #104]
 3621 1b2e BB6E     		ldr	r3, [r7, #104]
 3622 1b30 4FEA7343 		ror	r3, r3, #17
 3623 1b34 BA6C     		ldr	r2, [r7, #72]
 3624 1b36 1344     		add	r3, r3, r2
 3625 1b38 BB66     		str	r3, [r7, #104]
 3626 1b3a BB6D     		ldr	r3, [r7, #88]
 3627 1b3c 4FEAB353 		ror	r3, r3, #22
 3628 1b40 BB65     		str	r3, [r7, #88]
 3629 1b42 7A6E     		ldr	r2, [r7, #100]
 3630 1b44 FB6D     		ldr	r3, [r7, #92]
 3631 1b46 5A40     		eors	r2, r2, r3
 3632 1b48 7B6D     		ldr	r3, [r7, #84]
 3633 1b4a 5A40     		eors	r2, r2, r3
 3634 1b4c 7B6C     		ldr	r3, [r7, #68]
 3635 1b4e 1344     		add	r3, r3, r2
 3636 1b50 FA6E     		ldr	r2, [r7, #108]
 3637 1b52 1344     		add	r3, r3, r2
 3638 1b54 FB66     		str	r3, [r7, #108]
 3639 1b56 FB6E     		ldr	r3, [r7, #108]
 3640 1b58 4FEAF363 		ror	r3, r3, #27
 3641 1b5c FA6C     		ldr	r2, [r7, #76]
 3642 1b5e 1344     		add	r3, r3, r2
 3643 1b60 FB66     		str	r3, [r7, #108]
 3644 1b62 FB6D     		ldr	r3, [r7, #92]
 3645 1b64 4FEAB353 		ror	r3, r3, #22
 3646 1b68 FB65     		str	r3, [r7, #92]
 280:C:/Users/dtjld/workspace/AIoT/src/LiteOS_Lab/iot_link/network/dtls/mbedtls/mbedtls-2.16.2/library\ripemd160.c ****     P2( E, A, B, C, D,  5,  5, 10, 12 );
 3647              		.loc 1 280 0
 3648 1b6a BB6D     		ldr	r3, [r7, #88]
 3649 1b6c DA43     		mvns	r2, r3
 3650 1b6e 3B6E     		ldr	r3, [r7, #96]
 3651 1b70 1A43     		orrs	r2, r2, r3
 3652 1b72 BB6E     		ldr	r3, [r7, #104]
 3653 1b74 5A40     		eors	r2, r2, r3
 3654 1b76 FB69     		ldr	r3, [r7, #28]
 3655 1b78 1A44     		add	r2, r2, r3
 3656 1b7a BB6C     		ldr	r3, [r7, #72]
 3657 1b7c 1A44     		add	r2, r2, r3
 3658 1b7e 0E4B     		ldr	r3, .L38+8
 3659 1b80 1344     		add	r3, r3, r2
 3660 1b82 BB64     		str	r3, [r7, #72]
 3661 1b84 BB6C     		ldr	r3, [r7, #72]
 3662 1b86 4FEAF363 		ror	r3, r3, #27
 3663 1b8a 3A6D     		ldr	r2, [r7, #80]
ARM GAS  C:\Users\dtjld\AppData\Local\Temp\cccTkoKh.s 			page 70


 3664 1b8c 1344     		add	r3, r3, r2
 3665 1b8e BB64     		str	r3, [r7, #72]
 3666 1b90 3B6E     		ldr	r3, [r7, #96]
 3667 1b92 4FEAB353 		ror	r3, r3, #22
 3668 1b96 3B66     		str	r3, [r7, #96]
 3669 1b98 FA6E     		ldr	r2, [r7, #108]
 3670 1b9a 7B6E     		ldr	r3, [r7, #100]
 3671 1b9c 5A40     		eors	r2, r2, r3
 3672 1b9e FB6D     		ldr	r3, [r7, #92]
 3673 1ba0 5A40     		eors	r2, r2, r3
 3674 1ba2 3B6B     		ldr	r3, [r7, #48]
 3675 1ba4 1344     		add	r3, r3, r2
 3676 1ba6 FA6C     		ldr	r2, [r7, #76]
 3677 1ba8 1344     		add	r3, r3, r2
 3678 1baa FB64     		str	r3, [r7, #76]
 3679 1bac 06E0     		b	.L39
 3680              	.L40:
 3681 1bae 00BF     		.align	2
 3682              	.L38:
 3683 1bb0 E9766D7A 		.word	2053994217
 3684 1bb4 DCBC1B8F 		.word	-1894007588
 3685 1bb8 4EFD53A9 		.word	-1454113458
 3686              	.L39:
 3687 1bbc FB6C     		ldr	r3, [r7, #76]
 3688 1bbe 4FEA3353 		ror	r3, r3, #20
 3689 1bc2 7A6D     		ldr	r2, [r7, #84]
 3690 1bc4 1344     		add	r3, r3, r2
 3691 1bc6 FB64     		str	r3, [r7, #76]
 3692 1bc8 7B6E     		ldr	r3, [r7, #100]
 3693 1bca 4FEAB353 		ror	r3, r3, #22
 3694 1bce 7B66     		str	r3, [r7, #100]
 281:C:/Users/dtjld/workspace/AIoT/src/LiteOS_Lab/iot_link/network/dtls/mbedtls/mbedtls-2.16.2/library\ripemd160.c ****     P2( D, E, A, B, C,  9, 11,  4,  9 );
 3695              		.loc 1 281 0
 3696 1bd0 3B6E     		ldr	r3, [r7, #96]
 3697 1bd2 DA43     		mvns	r2, r3
 3698 1bd4 BB6E     		ldr	r3, [r7, #104]
 3699 1bd6 1A43     		orrs	r2, r2, r3
 3700 1bd8 BB6C     		ldr	r3, [r7, #72]
 3701 1bda 5A40     		eors	r2, r2, r3
 3702 1bdc FB6A     		ldr	r3, [r7, #44]
 3703 1bde 1A44     		add	r2, r2, r3
 3704 1be0 3B6D     		ldr	r3, [r7, #80]
 3705 1be2 1A44     		add	r2, r2, r3
 3706 1be4 A54B     		ldr	r3, .L41
 3707 1be6 1344     		add	r3, r3, r2
 3708 1be8 3B65     		str	r3, [r7, #80]
 3709 1bea 3B6D     		ldr	r3, [r7, #80]
 3710 1bec 4FEA7353 		ror	r3, r3, #21
 3711 1bf0 BA6D     		ldr	r2, [r7, #88]
 3712 1bf2 1344     		add	r3, r3, r2
 3713 1bf4 3B65     		str	r3, [r7, #80]
 3714 1bf6 BB6E     		ldr	r3, [r7, #104]
 3715 1bf8 4FEAB353 		ror	r3, r3, #22
 3716 1bfc BB66     		str	r3, [r7, #104]
 3717 1bfe FA6C     		ldr	r2, [r7, #76]
 3718 1c00 FB6E     		ldr	r3, [r7, #108]
 3719 1c02 5A40     		eors	r2, r2, r3
ARM GAS  C:\Users\dtjld\AppData\Local\Temp\cccTkoKh.s 			page 71


 3720 1c04 7B6E     		ldr	r3, [r7, #100]
 3721 1c06 5A40     		eors	r2, r2, r3
 3722 1c08 BB69     		ldr	r3, [r7, #24]
 3723 1c0a 1344     		add	r3, r3, r2
 3724 1c0c 7A6D     		ldr	r2, [r7, #84]
 3725 1c0e 1344     		add	r3, r3, r2
 3726 1c10 7B65     		str	r3, [r7, #84]
 3727 1c12 7B6D     		ldr	r3, [r7, #84]
 3728 1c14 4FEAF353 		ror	r3, r3, #23
 3729 1c18 FA6D     		ldr	r2, [r7, #92]
 3730 1c1a 1344     		add	r3, r3, r2
 3731 1c1c 7B65     		str	r3, [r7, #84]
 3732 1c1e FB6E     		ldr	r3, [r7, #108]
 3733 1c20 4FEAB353 		ror	r3, r3, #22
 3734 1c24 FB66     		str	r3, [r7, #108]
 282:C:/Users/dtjld/workspace/AIoT/src/LiteOS_Lab/iot_link/network/dtls/mbedtls/mbedtls-2.16.2/library\ripemd160.c ****     P2( C, D, E, A, B,  7,  6,  1, 12 );
 3735              		.loc 1 282 0
 3736 1c26 BB6E     		ldr	r3, [r7, #104]
 3737 1c28 DA43     		mvns	r2, r3
 3738 1c2a BB6C     		ldr	r3, [r7, #72]
 3739 1c2c 1A43     		orrs	r2, r2, r3
 3740 1c2e 3B6D     		ldr	r3, [r7, #80]
 3741 1c30 5A40     		eors	r2, r2, r3
 3742 1c32 7B6A     		ldr	r3, [r7, #36]
 3743 1c34 1A44     		add	r2, r2, r3
 3744 1c36 BB6D     		ldr	r3, [r7, #88]
 3745 1c38 1A44     		add	r2, r2, r3
 3746 1c3a 904B     		ldr	r3, .L41
 3747 1c3c 1344     		add	r3, r3, r2
 3748 1c3e BB65     		str	r3, [r7, #88]
 3749 1c40 BB6D     		ldr	r3, [r7, #88]
 3750 1c42 4FEAB363 		ror	r3, r3, #26
 3751 1c46 3A6E     		ldr	r2, [r7, #96]
 3752 1c48 1344     		add	r3, r3, r2
 3753 1c4a BB65     		str	r3, [r7, #88]
 3754 1c4c BB6C     		ldr	r3, [r7, #72]
 3755 1c4e 4FEAB353 		ror	r3, r3, #22
 3756 1c52 BB64     		str	r3, [r7, #72]
 3757 1c54 7A6D     		ldr	r2, [r7, #84]
 3758 1c56 FB6C     		ldr	r3, [r7, #76]
 3759 1c58 5A40     		eors	r2, r2, r3
 3760 1c5a FB6E     		ldr	r3, [r7, #108]
 3761 1c5c 5A40     		eors	r2, r2, r3
 3762 1c5e FB68     		ldr	r3, [r7, #12]
 3763 1c60 1344     		add	r3, r3, r2
 3764 1c62 FA6D     		ldr	r2, [r7, #92]
 3765 1c64 1344     		add	r3, r3, r2
 3766 1c66 FB65     		str	r3, [r7, #92]
 3767 1c68 FB6D     		ldr	r3, [r7, #92]
 3768 1c6a 4FEA3353 		ror	r3, r3, #20
 3769 1c6e 7A6E     		ldr	r2, [r7, #100]
 3770 1c70 1344     		add	r3, r3, r2
 3771 1c72 FB65     		str	r3, [r7, #92]
 3772 1c74 FB6C     		ldr	r3, [r7, #76]
 3773 1c76 4FEAB353 		ror	r3, r3, #22
 3774 1c7a FB64     		str	r3, [r7, #76]
 283:C:/Users/dtjld/workspace/AIoT/src/LiteOS_Lab/iot_link/network/dtls/mbedtls/mbedtls-2.16.2/library\ripemd160.c ****     P2( B, C, D, E, A, 12,  8,  5,  5 );
ARM GAS  C:\Users\dtjld\AppData\Local\Temp\cccTkoKh.s 			page 72


 3775              		.loc 1 283 0
 3776 1c7c BB6C     		ldr	r3, [r7, #72]
 3777 1c7e DA43     		mvns	r2, r3
 3778 1c80 3B6D     		ldr	r3, [r7, #80]
 3779 1c82 1A43     		orrs	r2, r2, r3
 3780 1c84 BB6D     		ldr	r3, [r7, #88]
 3781 1c86 5A40     		eors	r2, r2, r3
 3782 1c88 BB6B     		ldr	r3, [r7, #56]
 3783 1c8a 1A44     		add	r2, r2, r3
 3784 1c8c 3B6E     		ldr	r3, [r7, #96]
 3785 1c8e 1A44     		add	r2, r2, r3
 3786 1c90 7A4B     		ldr	r3, .L41
 3787 1c92 1344     		add	r3, r3, r2
 3788 1c94 3B66     		str	r3, [r7, #96]
 3789 1c96 3B6E     		ldr	r3, [r7, #96]
 3790 1c98 4FEA3363 		ror	r3, r3, #24
 3791 1c9c BA6E     		ldr	r2, [r7, #104]
 3792 1c9e 1344     		add	r3, r3, r2
 3793 1ca0 3B66     		str	r3, [r7, #96]
 3794 1ca2 3B6D     		ldr	r3, [r7, #80]
 3795 1ca4 4FEAB353 		ror	r3, r3, #22
 3796 1ca8 3B65     		str	r3, [r7, #80]
 3797 1caa FA6D     		ldr	r2, [r7, #92]
 3798 1cac 7B6D     		ldr	r3, [r7, #84]
 3799 1cae 5A40     		eors	r2, r2, r3
 3800 1cb0 FB6C     		ldr	r3, [r7, #76]
 3801 1cb2 5A40     		eors	r2, r2, r3
 3802 1cb4 FB69     		ldr	r3, [r7, #28]
 3803 1cb6 1344     		add	r3, r3, r2
 3804 1cb8 7A6E     		ldr	r2, [r7, #100]
 3805 1cba 1344     		add	r3, r3, r2
 3806 1cbc 7B66     		str	r3, [r7, #100]
 3807 1cbe 7B6E     		ldr	r3, [r7, #100]
 3808 1cc0 4FEAF363 		ror	r3, r3, #27
 3809 1cc4 FA6E     		ldr	r2, [r7, #108]
 3810 1cc6 1344     		add	r3, r3, r2
 3811 1cc8 7B66     		str	r3, [r7, #100]
 3812 1cca 7B6D     		ldr	r3, [r7, #84]
 3813 1ccc 4FEAB353 		ror	r3, r3, #22
 3814 1cd0 7B65     		str	r3, [r7, #84]
 284:C:/Users/dtjld/workspace/AIoT/src/LiteOS_Lab/iot_link/network/dtls/mbedtls/mbedtls-2.16.2/library\ripemd160.c ****     P2( A, B, C, D, E,  2, 13,  8, 14 );
 3815              		.loc 1 284 0
 3816 1cd2 3B6D     		ldr	r3, [r7, #80]
 3817 1cd4 DA43     		mvns	r2, r3
 3818 1cd6 BB6D     		ldr	r3, [r7, #88]
 3819 1cd8 1A43     		orrs	r2, r2, r3
 3820 1cda 3B6E     		ldr	r3, [r7, #96]
 3821 1cdc 5A40     		eors	r2, r2, r3
 3822 1cde 3B69     		ldr	r3, [r7, #16]
 3823 1ce0 1A44     		add	r2, r2, r3
 3824 1ce2 BB6E     		ldr	r3, [r7, #104]
 3825 1ce4 1A44     		add	r2, r2, r3
 3826 1ce6 654B     		ldr	r3, .L41
 3827 1ce8 1344     		add	r3, r3, r2
 3828 1cea BB66     		str	r3, [r7, #104]
 3829 1cec BB6E     		ldr	r3, [r7, #104]
 3830 1cee 4FEAF343 		ror	r3, r3, #19
ARM GAS  C:\Users\dtjld\AppData\Local\Temp\cccTkoKh.s 			page 73


 3831 1cf2 BA6C     		ldr	r2, [r7, #72]
 3832 1cf4 1344     		add	r3, r3, r2
 3833 1cf6 BB66     		str	r3, [r7, #104]
 3834 1cf8 BB6D     		ldr	r3, [r7, #88]
 3835 1cfa 4FEAB353 		ror	r3, r3, #22
 3836 1cfe BB65     		str	r3, [r7, #88]
 3837 1d00 7A6E     		ldr	r2, [r7, #100]
 3838 1d02 FB6D     		ldr	r3, [r7, #92]
 3839 1d04 5A40     		eors	r2, r2, r3
 3840 1d06 7B6D     		ldr	r3, [r7, #84]
 3841 1d08 5A40     		eors	r2, r2, r3
 3842 1d0a BB6A     		ldr	r3, [r7, #40]
 3843 1d0c 1344     		add	r3, r3, r2
 3844 1d0e FA6E     		ldr	r2, [r7, #108]
 3845 1d10 1344     		add	r3, r3, r2
 3846 1d12 FB66     		str	r3, [r7, #108]
 3847 1d14 FB6E     		ldr	r3, [r7, #108]
 3848 1d16 4FEAB343 		ror	r3, r3, #18
 3849 1d1a FA6C     		ldr	r2, [r7, #76]
 3850 1d1c 1344     		add	r3, r3, r2
 3851 1d1e FB66     		str	r3, [r7, #108]
 3852 1d20 FB6D     		ldr	r3, [r7, #92]
 3853 1d22 4FEAB353 		ror	r3, r3, #22
 3854 1d26 FB65     		str	r3, [r7, #92]
 285:C:/Users/dtjld/workspace/AIoT/src/LiteOS_Lab/iot_link/network/dtls/mbedtls/mbedtls-2.16.2/library\ripemd160.c ****     P2( E, A, B, C, D, 10, 12,  7,  6 );
 3855              		.loc 1 285 0
 3856 1d28 BB6D     		ldr	r3, [r7, #88]
 3857 1d2a DA43     		mvns	r2, r3
 3858 1d2c 3B6E     		ldr	r3, [r7, #96]
 3859 1d2e 1A43     		orrs	r2, r2, r3
 3860 1d30 BB6E     		ldr	r3, [r7, #104]
 3861 1d32 5A40     		eors	r2, r2, r3
 3862 1d34 3B6B     		ldr	r3, [r7, #48]
 3863 1d36 1A44     		add	r2, r2, r3
 3864 1d38 BB6C     		ldr	r3, [r7, #72]
 3865 1d3a 1A44     		add	r2, r2, r3
 3866 1d3c 4F4B     		ldr	r3, .L41
 3867 1d3e 1344     		add	r3, r3, r2
 3868 1d40 BB64     		str	r3, [r7, #72]
 3869 1d42 BB6C     		ldr	r3, [r7, #72]
 3870 1d44 4FEA3353 		ror	r3, r3, #20
 3871 1d48 3A6D     		ldr	r2, [r7, #80]
 3872 1d4a 1344     		add	r3, r3, r2
 3873 1d4c BB64     		str	r3, [r7, #72]
 3874 1d4e 3B6E     		ldr	r3, [r7, #96]
 3875 1d50 4FEAB353 		ror	r3, r3, #22
 3876 1d54 3B66     		str	r3, [r7, #96]
 3877 1d56 FA6E     		ldr	r2, [r7, #108]
 3878 1d58 7B6E     		ldr	r3, [r7, #100]
 3879 1d5a 5A40     		eors	r2, r2, r3
 3880 1d5c FB6D     		ldr	r3, [r7, #92]
 3881 1d5e 5A40     		eors	r2, r2, r3
 3882 1d60 7B6A     		ldr	r3, [r7, #36]
 3883 1d62 1344     		add	r3, r3, r2
 3884 1d64 FA6C     		ldr	r2, [r7, #76]
 3885 1d66 1344     		add	r3, r3, r2
 3886 1d68 FB64     		str	r3, [r7, #76]
ARM GAS  C:\Users\dtjld\AppData\Local\Temp\cccTkoKh.s 			page 74


 3887 1d6a FB6C     		ldr	r3, [r7, #76]
 3888 1d6c 4FEAB363 		ror	r3, r3, #26
 3889 1d70 7A6D     		ldr	r2, [r7, #84]
 3890 1d72 1344     		add	r3, r3, r2
 3891 1d74 FB64     		str	r3, [r7, #76]
 3892 1d76 7B6E     		ldr	r3, [r7, #100]
 3893 1d78 4FEAB353 		ror	r3, r3, #22
 3894 1d7c 7B66     		str	r3, [r7, #100]
 286:C:/Users/dtjld/workspace/AIoT/src/LiteOS_Lab/iot_link/network/dtls/mbedtls/mbedtls-2.16.2/library\ripemd160.c ****     P2( D, E, A, B, C, 14,  5,  6,  8 );
 3895              		.loc 1 286 0
 3896 1d7e 3B6E     		ldr	r3, [r7, #96]
 3897 1d80 DA43     		mvns	r2, r3
 3898 1d82 BB6E     		ldr	r3, [r7, #104]
 3899 1d84 1A43     		orrs	r2, r2, r3
 3900 1d86 BB6C     		ldr	r3, [r7, #72]
 3901 1d88 5A40     		eors	r2, r2, r3
 3902 1d8a 3B6C     		ldr	r3, [r7, #64]
 3903 1d8c 1A44     		add	r2, r2, r3
 3904 1d8e 3B6D     		ldr	r3, [r7, #80]
 3905 1d90 1A44     		add	r2, r2, r3
 3906 1d92 3A4B     		ldr	r3, .L41
 3907 1d94 1344     		add	r3, r3, r2
 3908 1d96 3B65     		str	r3, [r7, #80]
 3909 1d98 3B6D     		ldr	r3, [r7, #80]
 3910 1d9a 4FEAF363 		ror	r3, r3, #27
 3911 1d9e BA6D     		ldr	r2, [r7, #88]
 3912 1da0 1344     		add	r3, r3, r2
 3913 1da2 3B65     		str	r3, [r7, #80]
 3914 1da4 BB6E     		ldr	r3, [r7, #104]
 3915 1da6 4FEAB353 		ror	r3, r3, #22
 3916 1daa BB66     		str	r3, [r7, #104]
 3917 1dac FA6C     		ldr	r2, [r7, #76]
 3918 1dae FB6E     		ldr	r3, [r7, #108]
 3919 1db0 5A40     		eors	r2, r2, r3
 3920 1db2 7B6E     		ldr	r3, [r7, #100]
 3921 1db4 5A40     		eors	r2, r2, r3
 3922 1db6 3B6A     		ldr	r3, [r7, #32]
 3923 1db8 1344     		add	r3, r3, r2
 3924 1dba 7A6D     		ldr	r2, [r7, #84]
 3925 1dbc 1344     		add	r3, r3, r2
 3926 1dbe 7B65     		str	r3, [r7, #84]
 3927 1dc0 7B6D     		ldr	r3, [r7, #84]
 3928 1dc2 4FEA3363 		ror	r3, r3, #24
 3929 1dc6 FA6D     		ldr	r2, [r7, #92]
 3930 1dc8 1344     		add	r3, r3, r2
 3931 1dca 7B65     		str	r3, [r7, #84]
 3932 1dcc FB6E     		ldr	r3, [r7, #108]
 3933 1dce 4FEAB353 		ror	r3, r3, #22
 3934 1dd2 FB66     		str	r3, [r7, #108]
 287:C:/Users/dtjld/workspace/AIoT/src/LiteOS_Lab/iot_link/network/dtls/mbedtls/mbedtls-2.16.2/library\ripemd160.c ****     P2( C, D, E, A, B,  1, 12,  2, 13 );
 3935              		.loc 1 287 0
 3936 1dd4 BB6E     		ldr	r3, [r7, #104]
 3937 1dd6 DA43     		mvns	r2, r3
 3938 1dd8 BB6C     		ldr	r3, [r7, #72]
 3939 1dda 1A43     		orrs	r2, r2, r3
 3940 1ddc 3B6D     		ldr	r3, [r7, #80]
 3941 1dde 5A40     		eors	r2, r2, r3
ARM GAS  C:\Users\dtjld\AppData\Local\Temp\cccTkoKh.s 			page 75


 3942 1de0 FB68     		ldr	r3, [r7, #12]
 3943 1de2 1A44     		add	r2, r2, r3
 3944 1de4 BB6D     		ldr	r3, [r7, #88]
 3945 1de6 1A44     		add	r2, r2, r3
 3946 1de8 244B     		ldr	r3, .L41
 3947 1dea 1344     		add	r3, r3, r2
 3948 1dec BB65     		str	r3, [r7, #88]
 3949 1dee BB6D     		ldr	r3, [r7, #88]
 3950 1df0 4FEA3353 		ror	r3, r3, #20
 3951 1df4 3A6E     		ldr	r2, [r7, #96]
 3952 1df6 1344     		add	r3, r3, r2
 3953 1df8 BB65     		str	r3, [r7, #88]
 3954 1dfa BB6C     		ldr	r3, [r7, #72]
 3955 1dfc 4FEAB353 		ror	r3, r3, #22
 3956 1e00 BB64     		str	r3, [r7, #72]
 3957 1e02 7A6D     		ldr	r2, [r7, #84]
 3958 1e04 FB6C     		ldr	r3, [r7, #76]
 3959 1e06 5A40     		eors	r2, r2, r3
 3960 1e08 FB6E     		ldr	r3, [r7, #108]
 3961 1e0a 5A40     		eors	r2, r2, r3
 3962 1e0c 3B69     		ldr	r3, [r7, #16]
 3963 1e0e 1344     		add	r3, r3, r2
 3964 1e10 FA6D     		ldr	r2, [r7, #92]
 3965 1e12 1344     		add	r3, r3, r2
 3966 1e14 FB65     		str	r3, [r7, #92]
 3967 1e16 FB6D     		ldr	r3, [r7, #92]
 3968 1e18 4FEAF343 		ror	r3, r3, #19
 3969 1e1c 7A6E     		ldr	r2, [r7, #100]
 3970 1e1e 1344     		add	r3, r3, r2
 3971 1e20 FB65     		str	r3, [r7, #92]
 3972 1e22 FB6C     		ldr	r3, [r7, #76]
 3973 1e24 4FEAB353 		ror	r3, r3, #22
 3974 1e28 FB64     		str	r3, [r7, #76]
 288:C:/Users/dtjld/workspace/AIoT/src/LiteOS_Lab/iot_link/network/dtls/mbedtls/mbedtls-2.16.2/library\ripemd160.c ****     P2( B, C, D, E, A,  3, 13, 13,  6 );
 3975              		.loc 1 288 0
 3976 1e2a BB6C     		ldr	r3, [r7, #72]
 3977 1e2c DA43     		mvns	r2, r3
 3978 1e2e 3B6D     		ldr	r3, [r7, #80]
 3979 1e30 1A43     		orrs	r2, r2, r3
 3980 1e32 BB6D     		ldr	r3, [r7, #88]
 3981 1e34 5A40     		eors	r2, r2, r3
 3982 1e36 7B69     		ldr	r3, [r7, #20]
 3983 1e38 1A44     		add	r2, r2, r3
 3984 1e3a 3B6E     		ldr	r3, [r7, #96]
 3985 1e3c 1A44     		add	r2, r2, r3
 3986 1e3e 0F4B     		ldr	r3, .L41
 3987 1e40 1344     		add	r3, r3, r2
 3988 1e42 3B66     		str	r3, [r7, #96]
 3989 1e44 3B6E     		ldr	r3, [r7, #96]
 3990 1e46 4FEAF343 		ror	r3, r3, #19
 3991 1e4a BA6E     		ldr	r2, [r7, #104]
 3992 1e4c 1344     		add	r3, r3, r2
 3993 1e4e 3B66     		str	r3, [r7, #96]
 3994 1e50 3B6D     		ldr	r3, [r7, #80]
 3995 1e52 4FEAB353 		ror	r3, r3, #22
 3996 1e56 3B65     		str	r3, [r7, #80]
 3997 1e58 FA6D     		ldr	r2, [r7, #92]
ARM GAS  C:\Users\dtjld\AppData\Local\Temp\cccTkoKh.s 			page 76


 3998 1e5a 7B6D     		ldr	r3, [r7, #84]
 3999 1e5c 5A40     		eors	r2, r2, r3
 4000 1e5e FB6C     		ldr	r3, [r7, #76]
 4001 1e60 5A40     		eors	r2, r2, r3
 4002 1e62 FB6B     		ldr	r3, [r7, #60]
 4003 1e64 1344     		add	r3, r3, r2
 4004 1e66 7A6E     		ldr	r2, [r7, #100]
 4005 1e68 1344     		add	r3, r3, r2
 4006 1e6a 7B66     		str	r3, [r7, #100]
 4007 1e6c 7B6E     		ldr	r3, [r7, #100]
 4008 1e6e 4FEAB363 		ror	r3, r3, #26
 4009 1e72 FA6E     		ldr	r2, [r7, #108]
 4010 1e74 1344     		add	r3, r3, r2
 4011 1e76 7B66     		str	r3, [r7, #100]
 4012 1e78 02E0     		b	.L42
 4013              	.L43:
 4014 1e7a 00BF     		.align	2
 4015              	.L41:
 4016 1e7c 4EFD53A9 		.word	-1454113458
 4017              	.L42:
 4018 1e80 7B6D     		ldr	r3, [r7, #84]
 4019 1e82 4FEAB353 		ror	r3, r3, #22
 4020 1e86 7B65     		str	r3, [r7, #84]
 289:C:/Users/dtjld/workspace/AIoT/src/LiteOS_Lab/iot_link/network/dtls/mbedtls/mbedtls-2.16.2/library\ripemd160.c ****     P2( A, B, C, D, E,  8, 14, 14,  5 );
 4021              		.loc 1 289 0
 4022 1e88 3B6D     		ldr	r3, [r7, #80]
 4023 1e8a DA43     		mvns	r2, r3
 4024 1e8c BB6D     		ldr	r3, [r7, #88]
 4025 1e8e 1A43     		orrs	r2, r2, r3
 4026 1e90 3B6E     		ldr	r3, [r7, #96]
 4027 1e92 5A40     		eors	r2, r2, r3
 4028 1e94 BB6A     		ldr	r3, [r7, #40]
 4029 1e96 1A44     		add	r2, r2, r3
 4030 1e98 BB6E     		ldr	r3, [r7, #104]
 4031 1e9a 1A44     		add	r2, r2, r3
 4032 1e9c 7E4B     		ldr	r3, .L44
 4033 1e9e 1344     		add	r3, r3, r2
 4034 1ea0 BB66     		str	r3, [r7, #104]
 4035 1ea2 BB6E     		ldr	r3, [r7, #104]
 4036 1ea4 4FEAB343 		ror	r3, r3, #18
 4037 1ea8 BA6C     		ldr	r2, [r7, #72]
 4038 1eaa 1344     		add	r3, r3, r2
 4039 1eac BB66     		str	r3, [r7, #104]
 4040 1eae BB6D     		ldr	r3, [r7, #88]
 4041 1eb0 4FEAB353 		ror	r3, r3, #22
 4042 1eb4 BB65     		str	r3, [r7, #88]
 4043 1eb6 7A6E     		ldr	r2, [r7, #100]
 4044 1eb8 FB6D     		ldr	r3, [r7, #92]
 4045 1eba 5A40     		eors	r2, r2, r3
 4046 1ebc 7B6D     		ldr	r3, [r7, #84]
 4047 1ebe 5A40     		eors	r2, r2, r3
 4048 1ec0 3B6C     		ldr	r3, [r7, #64]
 4049 1ec2 1344     		add	r3, r3, r2
 4050 1ec4 FA6E     		ldr	r2, [r7, #108]
 4051 1ec6 1344     		add	r3, r3, r2
 4052 1ec8 FB66     		str	r3, [r7, #108]
 4053 1eca FB6E     		ldr	r3, [r7, #108]
ARM GAS  C:\Users\dtjld\AppData\Local\Temp\cccTkoKh.s 			page 77


 4054 1ecc 4FEAF363 		ror	r3, r3, #27
 4055 1ed0 FA6C     		ldr	r2, [r7, #76]
 4056 1ed2 1344     		add	r3, r3, r2
 4057 1ed4 FB66     		str	r3, [r7, #108]
 4058 1ed6 FB6D     		ldr	r3, [r7, #92]
 4059 1ed8 4FEAB353 		ror	r3, r3, #22
 4060 1edc FB65     		str	r3, [r7, #92]
 290:C:/Users/dtjld/workspace/AIoT/src/LiteOS_Lab/iot_link/network/dtls/mbedtls/mbedtls-2.16.2/library\ripemd160.c ****     P2( E, A, B, C, D, 11, 11,  0, 15 );
 4061              		.loc 1 290 0
 4062 1ede BB6D     		ldr	r3, [r7, #88]
 4063 1ee0 DA43     		mvns	r2, r3
 4064 1ee2 3B6E     		ldr	r3, [r7, #96]
 4065 1ee4 1A43     		orrs	r2, r2, r3
 4066 1ee6 BB6E     		ldr	r3, [r7, #104]
 4067 1ee8 5A40     		eors	r2, r2, r3
 4068 1eea 7B6B     		ldr	r3, [r7, #52]
 4069 1eec 1A44     		add	r2, r2, r3
 4070 1eee BB6C     		ldr	r3, [r7, #72]
 4071 1ef0 1A44     		add	r2, r2, r3
 4072 1ef2 694B     		ldr	r3, .L44
 4073 1ef4 1344     		add	r3, r3, r2
 4074 1ef6 BB64     		str	r3, [r7, #72]
 4075 1ef8 BB6C     		ldr	r3, [r7, #72]
 4076 1efa 4FEA7353 		ror	r3, r3, #21
 4077 1efe 3A6D     		ldr	r2, [r7, #80]
 4078 1f00 1344     		add	r3, r3, r2
 4079 1f02 BB64     		str	r3, [r7, #72]
 4080 1f04 3B6E     		ldr	r3, [r7, #96]
 4081 1f06 4FEAB353 		ror	r3, r3, #22
 4082 1f0a 3B66     		str	r3, [r7, #96]
 4083 1f0c FA6E     		ldr	r2, [r7, #108]
 4084 1f0e 7B6E     		ldr	r3, [r7, #100]
 4085 1f10 5A40     		eors	r2, r2, r3
 4086 1f12 FB6D     		ldr	r3, [r7, #92]
 4087 1f14 5A40     		eors	r2, r2, r3
 4088 1f16 BB68     		ldr	r3, [r7, #8]
 4089 1f18 1344     		add	r3, r3, r2
 4090 1f1a FA6C     		ldr	r2, [r7, #76]
 4091 1f1c 1344     		add	r3, r3, r2
 4092 1f1e FB64     		str	r3, [r7, #76]
 4093 1f20 FB6C     		ldr	r3, [r7, #76]
 4094 1f22 4FEA7343 		ror	r3, r3, #17
 4095 1f26 7A6D     		ldr	r2, [r7, #84]
 4096 1f28 1344     		add	r3, r3, r2
 4097 1f2a FB64     		str	r3, [r7, #76]
 4098 1f2c 7B6E     		ldr	r3, [r7, #100]
 4099 1f2e 4FEAB353 		ror	r3, r3, #22
 4100 1f32 7B66     		str	r3, [r7, #100]
 291:C:/Users/dtjld/workspace/AIoT/src/LiteOS_Lab/iot_link/network/dtls/mbedtls/mbedtls-2.16.2/library\ripemd160.c ****     P2( D, E, A, B, C,  6,  8,  3, 13 );
 4101              		.loc 1 291 0
 4102 1f34 3B6E     		ldr	r3, [r7, #96]
 4103 1f36 DA43     		mvns	r2, r3
 4104 1f38 BB6E     		ldr	r3, [r7, #104]
 4105 1f3a 1A43     		orrs	r2, r2, r3
 4106 1f3c BB6C     		ldr	r3, [r7, #72]
 4107 1f3e 5A40     		eors	r2, r2, r3
 4108 1f40 3B6A     		ldr	r3, [r7, #32]
ARM GAS  C:\Users\dtjld\AppData\Local\Temp\cccTkoKh.s 			page 78


 4109 1f42 1A44     		add	r2, r2, r3
 4110 1f44 3B6D     		ldr	r3, [r7, #80]
 4111 1f46 1A44     		add	r2, r2, r3
 4112 1f48 534B     		ldr	r3, .L44
 4113 1f4a 1344     		add	r3, r3, r2
 4114 1f4c 3B65     		str	r3, [r7, #80]
 4115 1f4e 3B6D     		ldr	r3, [r7, #80]
 4116 1f50 4FEA3363 		ror	r3, r3, #24
 4117 1f54 BA6D     		ldr	r2, [r7, #88]
 4118 1f56 1344     		add	r3, r3, r2
 4119 1f58 3B65     		str	r3, [r7, #80]
 4120 1f5a BB6E     		ldr	r3, [r7, #104]
 4121 1f5c 4FEAB353 		ror	r3, r3, #22
 4122 1f60 BB66     		str	r3, [r7, #104]
 4123 1f62 FA6C     		ldr	r2, [r7, #76]
 4124 1f64 FB6E     		ldr	r3, [r7, #108]
 4125 1f66 5A40     		eors	r2, r2, r3
 4126 1f68 7B6E     		ldr	r3, [r7, #100]
 4127 1f6a 5A40     		eors	r2, r2, r3
 4128 1f6c 7B69     		ldr	r3, [r7, #20]
 4129 1f6e 1344     		add	r3, r3, r2
 4130 1f70 7A6D     		ldr	r2, [r7, #84]
 4131 1f72 1344     		add	r3, r3, r2
 4132 1f74 7B65     		str	r3, [r7, #84]
 4133 1f76 7B6D     		ldr	r3, [r7, #84]
 4134 1f78 4FEAF343 		ror	r3, r3, #19
 4135 1f7c FA6D     		ldr	r2, [r7, #92]
 4136 1f7e 1344     		add	r3, r3, r2
 4137 1f80 7B65     		str	r3, [r7, #84]
 4138 1f82 FB6E     		ldr	r3, [r7, #108]
 4139 1f84 4FEAB353 		ror	r3, r3, #22
 4140 1f88 FB66     		str	r3, [r7, #108]
 292:C:/Users/dtjld/workspace/AIoT/src/LiteOS_Lab/iot_link/network/dtls/mbedtls/mbedtls-2.16.2/library\ripemd160.c ****     P2( C, D, E, A, B, 15,  5,  9, 11 );
 4141              		.loc 1 292 0
 4142 1f8a BB6E     		ldr	r3, [r7, #104]
 4143 1f8c DA43     		mvns	r2, r3
 4144 1f8e BB6C     		ldr	r3, [r7, #72]
 4145 1f90 1A43     		orrs	r2, r2, r3
 4146 1f92 3B6D     		ldr	r3, [r7, #80]
 4147 1f94 5A40     		eors	r2, r2, r3
 4148 1f96 7B6C     		ldr	r3, [r7, #68]
 4149 1f98 1A44     		add	r2, r2, r3
 4150 1f9a BB6D     		ldr	r3, [r7, #88]
 4151 1f9c 1A44     		add	r2, r2, r3
 4152 1f9e 3E4B     		ldr	r3, .L44
 4153 1fa0 1344     		add	r3, r3, r2
 4154 1fa2 BB65     		str	r3, [r7, #88]
 4155 1fa4 BB6D     		ldr	r3, [r7, #88]
 4156 1fa6 4FEAF363 		ror	r3, r3, #27
 4157 1faa 3A6E     		ldr	r2, [r7, #96]
 4158 1fac 1344     		add	r3, r3, r2
 4159 1fae BB65     		str	r3, [r7, #88]
 4160 1fb0 BB6C     		ldr	r3, [r7, #72]
 4161 1fb2 4FEAB353 		ror	r3, r3, #22
 4162 1fb6 BB64     		str	r3, [r7, #72]
 4163 1fb8 7A6D     		ldr	r2, [r7, #84]
 4164 1fba FB6C     		ldr	r3, [r7, #76]
ARM GAS  C:\Users\dtjld\AppData\Local\Temp\cccTkoKh.s 			page 79


 4165 1fbc 5A40     		eors	r2, r2, r3
 4166 1fbe FB6E     		ldr	r3, [r7, #108]
 4167 1fc0 5A40     		eors	r2, r2, r3
 4168 1fc2 FB6A     		ldr	r3, [r7, #44]
 4169 1fc4 1344     		add	r3, r3, r2
 4170 1fc6 FA6D     		ldr	r2, [r7, #92]
 4171 1fc8 1344     		add	r3, r3, r2
 4172 1fca FB65     		str	r3, [r7, #92]
 4173 1fcc FB6D     		ldr	r3, [r7, #92]
 4174 1fce 4FEA7353 		ror	r3, r3, #21
 4175 1fd2 7A6E     		ldr	r2, [r7, #100]
 4176 1fd4 1344     		add	r3, r3, r2
 4177 1fd6 FB65     		str	r3, [r7, #92]
 4178 1fd8 FB6C     		ldr	r3, [r7, #76]
 4179 1fda 4FEAB353 		ror	r3, r3, #22
 4180 1fde FB64     		str	r3, [r7, #76]
 293:C:/Users/dtjld/workspace/AIoT/src/LiteOS_Lab/iot_link/network/dtls/mbedtls/mbedtls-2.16.2/library\ripemd160.c ****     P2( B, C, D, E, A, 13,  6, 11, 11 );
 4181              		.loc 1 293 0
 4182 1fe0 BB6C     		ldr	r3, [r7, #72]
 4183 1fe2 DA43     		mvns	r2, r3
 4184 1fe4 3B6D     		ldr	r3, [r7, #80]
 4185 1fe6 1A43     		orrs	r2, r2, r3
 4186 1fe8 BB6D     		ldr	r3, [r7, #88]
 4187 1fea 5A40     		eors	r2, r2, r3
 4188 1fec FB6B     		ldr	r3, [r7, #60]
 4189 1fee 1A44     		add	r2, r2, r3
 4190 1ff0 3B6E     		ldr	r3, [r7, #96]
 4191 1ff2 1A44     		add	r2, r2, r3
 4192 1ff4 284B     		ldr	r3, .L44
 4193 1ff6 1344     		add	r3, r3, r2
 4194 1ff8 3B66     		str	r3, [r7, #96]
 4195 1ffa 3B6E     		ldr	r3, [r7, #96]
 4196 1ffc 4FEAB363 		ror	r3, r3, #26
 4197 2000 BA6E     		ldr	r2, [r7, #104]
 4198 2002 1344     		add	r3, r3, r2
 4199 2004 3B66     		str	r3, [r7, #96]
 4200 2006 3B6D     		ldr	r3, [r7, #80]
 4201 2008 4FEAB353 		ror	r3, r3, #22
 4202 200c 3B65     		str	r3, [r7, #80]
 4203 200e FA6D     		ldr	r2, [r7, #92]
 4204 2010 7B6D     		ldr	r3, [r7, #84]
 4205 2012 5A40     		eors	r2, r2, r3
 4206 2014 FB6C     		ldr	r3, [r7, #76]
 4207 2016 5A40     		eors	r2, r2, r3
 4208 2018 7B6B     		ldr	r3, [r7, #52]
 4209 201a 1344     		add	r3, r3, r2
 4210 201c 7A6E     		ldr	r2, [r7, #100]
 4211 201e 1344     		add	r3, r3, r2
 4212 2020 7B66     		str	r3, [r7, #100]
 4213 2022 7B6E     		ldr	r3, [r7, #100]
 4214 2024 4FEA7353 		ror	r3, r3, #21
 4215 2028 FA6E     		ldr	r2, [r7, #108]
 4216 202a 1344     		add	r3, r3, r2
 4217 202c 7B66     		str	r3, [r7, #100]
 4218 202e 7B6D     		ldr	r3, [r7, #84]
 4219 2030 4FEAB353 		ror	r3, r3, #22
 4220 2034 7B65     		str	r3, [r7, #84]
ARM GAS  C:\Users\dtjld\AppData\Local\Temp\cccTkoKh.s 			page 80


 294:C:/Users/dtjld/workspace/AIoT/src/LiteOS_Lab/iot_link/network/dtls/mbedtls/mbedtls-2.16.2/library\ripemd160.c **** #undef F
 295:C:/Users/dtjld/workspace/AIoT/src/LiteOS_Lab/iot_link/network/dtls/mbedtls/mbedtls-2.16.2/library\ripemd160.c **** #undef K
 296:C:/Users/dtjld/workspace/AIoT/src/LiteOS_Lab/iot_link/network/dtls/mbedtls/mbedtls-2.16.2/library\ripemd160.c **** #undef Fp
 297:C:/Users/dtjld/workspace/AIoT/src/LiteOS_Lab/iot_link/network/dtls/mbedtls/mbedtls-2.16.2/library\ripemd160.c **** #undef Kp
 298:C:/Users/dtjld/workspace/AIoT/src/LiteOS_Lab/iot_link/network/dtls/mbedtls/mbedtls-2.16.2/library\ripemd160.c **** 
 299:C:/Users/dtjld/workspace/AIoT/src/LiteOS_Lab/iot_link/network/dtls/mbedtls/mbedtls-2.16.2/library\ripemd160.c ****     C             = ctx->state[1] + C + Dp;
 4221              		.loc 1 299 0
 4222 2036 7B68     		ldr	r3, [r7, #4]
 4223 2038 DA68     		ldr	r2, [r3, #12]
 4224 203a BB6D     		ldr	r3, [r7, #88]
 4225 203c 1344     		add	r3, r3, r2
 4226 203e 7A6D     		ldr	r2, [r7, #84]
 4227 2040 1344     		add	r3, r3, r2
 4228 2042 BB65     		str	r3, [r7, #88]
 300:C:/Users/dtjld/workspace/AIoT/src/LiteOS_Lab/iot_link/network/dtls/mbedtls/mbedtls-2.16.2/library\ripemd160.c ****     ctx->state[1] = ctx->state[2] + D + Ep;
 4229              		.loc 1 300 0
 4230 2044 7B68     		ldr	r3, [r7, #4]
 4231 2046 1A69     		ldr	r2, [r3, #16]
 4232 2048 3B6D     		ldr	r3, [r7, #80]
 4233 204a 1A44     		add	r2, r2, r3
 4234 204c FB6C     		ldr	r3, [r7, #76]
 4235 204e 1A44     		add	r2, r2, r3
 4236 2050 7B68     		ldr	r3, [r7, #4]
 4237 2052 DA60     		str	r2, [r3, #12]
 301:C:/Users/dtjld/workspace/AIoT/src/LiteOS_Lab/iot_link/network/dtls/mbedtls/mbedtls-2.16.2/library\ripemd160.c ****     ctx->state[2] = ctx->state[3] + E + Ap;
 4238              		.loc 1 301 0
 4239 2054 7B68     		ldr	r3, [r7, #4]
 4240 2056 5A69     		ldr	r2, [r3, #20]
 4241 2058 BB6C     		ldr	r3, [r7, #72]
 4242 205a 1A44     		add	r2, r2, r3
 4243 205c FB6E     		ldr	r3, [r7, #108]
 4244 205e 1A44     		add	r2, r2, r3
 4245 2060 7B68     		ldr	r3, [r7, #4]
 4246 2062 1A61     		str	r2, [r3, #16]
 302:C:/Users/dtjld/workspace/AIoT/src/LiteOS_Lab/iot_link/network/dtls/mbedtls/mbedtls-2.16.2/library\ripemd160.c ****     ctx->state[3] = ctx->state[4] + A + Bp;
 4247              		.loc 1 302 0
 4248 2064 7B68     		ldr	r3, [r7, #4]
 4249 2066 9A69     		ldr	r2, [r3, #24]
 4250 2068 BB6E     		ldr	r3, [r7, #104]
 4251 206a 1A44     		add	r2, r2, r3
 4252 206c 7B6E     		ldr	r3, [r7, #100]
 4253 206e 1A44     		add	r2, r2, r3
 4254 2070 7B68     		ldr	r3, [r7, #4]
 4255 2072 5A61     		str	r2, [r3, #20]
 303:C:/Users/dtjld/workspace/AIoT/src/LiteOS_Lab/iot_link/network/dtls/mbedtls/mbedtls-2.16.2/library\ripemd160.c ****     ctx->state[4] = ctx->state[0] + B + Cp;
 4256              		.loc 1 303 0
 4257 2074 7B68     		ldr	r3, [r7, #4]
 4258 2076 9A68     		ldr	r2, [r3, #8]
 4259 2078 3B6E     		ldr	r3, [r7, #96]
 4260 207a 1A44     		add	r2, r2, r3
 4261 207c FB6D     		ldr	r3, [r7, #92]
 4262 207e 1A44     		add	r2, r2, r3
 4263 2080 7B68     		ldr	r3, [r7, #4]
 4264 2082 9A61     		str	r2, [r3, #24]
 304:C:/Users/dtjld/workspace/AIoT/src/LiteOS_Lab/iot_link/network/dtls/mbedtls/mbedtls-2.16.2/library\ripemd160.c ****     ctx->state[0] = C;
 4265              		.loc 1 304 0
 4266 2084 7B68     		ldr	r3, [r7, #4]
ARM GAS  C:\Users\dtjld\AppData\Local\Temp\cccTkoKh.s 			page 81


 4267 2086 BA6D     		ldr	r2, [r7, #88]
 4268 2088 9A60     		str	r2, [r3, #8]
 305:C:/Users/dtjld/workspace/AIoT/src/LiteOS_Lab/iot_link/network/dtls/mbedtls/mbedtls-2.16.2/library\ripemd160.c **** 
 306:C:/Users/dtjld/workspace/AIoT/src/LiteOS_Lab/iot_link/network/dtls/mbedtls/mbedtls-2.16.2/library\ripemd160.c ****     return( 0 );
 4269              		.loc 1 306 0
 4270 208a 0023     		movs	r3, #0
 307:C:/Users/dtjld/workspace/AIoT/src/LiteOS_Lab/iot_link/network/dtls/mbedtls/mbedtls-2.16.2/library\ripemd160.c **** }
 4271              		.loc 1 307 0
 4272 208c 1846     		mov	r0, r3
 4273 208e 7437     		adds	r7, r7, #116
 4274              	.LCFI29:
 4275              		.cfi_def_cfa_offset 4
 4276 2090 BD46     		mov	sp, r7
 4277              	.LCFI30:
 4278              		.cfi_def_cfa_register 13
 4279              		@ sp needed
 4280 2092 5DF8047B 		ldr	r7, [sp], #4
 4281              	.LCFI31:
 4282              		.cfi_restore 7
 4283              		.cfi_def_cfa_offset 0
 4284 2096 7047     		bx	lr
 4285              	.L45:
 4286              		.align	2
 4287              	.L44:
 4288 2098 4EFD53A9 		.word	-1454113458
 4289              		.cfi_endproc
 4290              	.LFE8:
 4292              		.section	.text.mbedtls_ripemd160_process,"ax",%progbits
 4293              		.align	1
 4294              		.global	mbedtls_ripemd160_process
 4295              		.syntax unified
 4296              		.thumb
 4297              		.thumb_func
 4298              		.fpu fpv4-sp-d16
 4300              	mbedtls_ripemd160_process:
 4301              	.LFB9:
 308:C:/Users/dtjld/workspace/AIoT/src/LiteOS_Lab/iot_link/network/dtls/mbedtls/mbedtls-2.16.2/library\ripemd160.c **** 
 309:C:/Users/dtjld/workspace/AIoT/src/LiteOS_Lab/iot_link/network/dtls/mbedtls/mbedtls-2.16.2/library\ripemd160.c **** #if !defined(MBEDTLS_DEPRECATED_REMOVED)
 310:C:/Users/dtjld/workspace/AIoT/src/LiteOS_Lab/iot_link/network/dtls/mbedtls/mbedtls-2.16.2/library\ripemd160.c **** void mbedtls_ripemd160_process( mbedtls_ripemd160_context *ctx,
 311:C:/Users/dtjld/workspace/AIoT/src/LiteOS_Lab/iot_link/network/dtls/mbedtls/mbedtls-2.16.2/library\ripemd160.c ****                                 const unsigned char data[64] )
 312:C:/Users/dtjld/workspace/AIoT/src/LiteOS_Lab/iot_link/network/dtls/mbedtls/mbedtls-2.16.2/library\ripemd160.c **** {
 4302              		.loc 1 312 0
 4303              		.cfi_startproc
 4304              		@ args = 0, pretend = 0, frame = 8
 4305              		@ frame_needed = 1, uses_anonymous_args = 0
 4306 0000 80B5     		push	{r7, lr}
 4307              	.LCFI32:
 4308              		.cfi_def_cfa_offset 8
 4309              		.cfi_offset 7, -8
 4310              		.cfi_offset 14, -4
 4311 0002 82B0     		sub	sp, sp, #8
 4312              	.LCFI33:
 4313              		.cfi_def_cfa_offset 16
 4314 0004 00AF     		add	r7, sp, #0
 4315              	.LCFI34:
 4316              		.cfi_def_cfa_register 7
 4317 0006 7860     		str	r0, [r7, #4]
ARM GAS  C:\Users\dtjld\AppData\Local\Temp\cccTkoKh.s 			page 82


 4318 0008 3960     		str	r1, [r7]
 313:C:/Users/dtjld/workspace/AIoT/src/LiteOS_Lab/iot_link/network/dtls/mbedtls/mbedtls-2.16.2/library\ripemd160.c ****     mbedtls_internal_ripemd160_process( ctx, data );
 4319              		.loc 1 313 0
 4320 000a 3968     		ldr	r1, [r7]
 4321 000c 7868     		ldr	r0, [r7, #4]
 4322 000e FFF7FEFF 		bl	mbedtls_internal_ripemd160_process
 314:C:/Users/dtjld/workspace/AIoT/src/LiteOS_Lab/iot_link/network/dtls/mbedtls/mbedtls-2.16.2/library\ripemd160.c **** }
 4323              		.loc 1 314 0
 4324 0012 00BF     		nop
 4325 0014 0837     		adds	r7, r7, #8
 4326              	.LCFI35:
 4327              		.cfi_def_cfa_offset 8
 4328 0016 BD46     		mov	sp, r7
 4329              	.LCFI36:
 4330              		.cfi_def_cfa_register 13
 4331              		@ sp needed
 4332 0018 80BD     		pop	{r7, pc}
 4333              		.cfi_endproc
 4334              	.LFE9:
 4336              		.section	.text.mbedtls_ripemd160_update_ret,"ax",%progbits
 4337              		.align	1
 4338              		.global	mbedtls_ripemd160_update_ret
 4339              		.syntax unified
 4340              		.thumb
 4341              		.thumb_func
 4342              		.fpu fpv4-sp-d16
 4344              	mbedtls_ripemd160_update_ret:
 4345              	.LFB10:
 315:C:/Users/dtjld/workspace/AIoT/src/LiteOS_Lab/iot_link/network/dtls/mbedtls/mbedtls-2.16.2/library\ripemd160.c **** #endif
 316:C:/Users/dtjld/workspace/AIoT/src/LiteOS_Lab/iot_link/network/dtls/mbedtls/mbedtls-2.16.2/library\ripemd160.c **** #endif /* !MBEDTLS_RIPEMD160_PROCESS_ALT */
 317:C:/Users/dtjld/workspace/AIoT/src/LiteOS_Lab/iot_link/network/dtls/mbedtls/mbedtls-2.16.2/library\ripemd160.c **** 
 318:C:/Users/dtjld/workspace/AIoT/src/LiteOS_Lab/iot_link/network/dtls/mbedtls/mbedtls-2.16.2/library\ripemd160.c **** /*
 319:C:/Users/dtjld/workspace/AIoT/src/LiteOS_Lab/iot_link/network/dtls/mbedtls/mbedtls-2.16.2/library\ripemd160.c ****  * RIPEMD-160 process buffer
 320:C:/Users/dtjld/workspace/AIoT/src/LiteOS_Lab/iot_link/network/dtls/mbedtls/mbedtls-2.16.2/library\ripemd160.c ****  */
 321:C:/Users/dtjld/workspace/AIoT/src/LiteOS_Lab/iot_link/network/dtls/mbedtls/mbedtls-2.16.2/library\ripemd160.c **** int mbedtls_ripemd160_update_ret( mbedtls_ripemd160_context *ctx,
 322:C:/Users/dtjld/workspace/AIoT/src/LiteOS_Lab/iot_link/network/dtls/mbedtls/mbedtls-2.16.2/library\ripemd160.c ****                                   const unsigned char *input,
 323:C:/Users/dtjld/workspace/AIoT/src/LiteOS_Lab/iot_link/network/dtls/mbedtls/mbedtls-2.16.2/library\ripemd160.c ****                                   size_t ilen )
 324:C:/Users/dtjld/workspace/AIoT/src/LiteOS_Lab/iot_link/network/dtls/mbedtls/mbedtls-2.16.2/library\ripemd160.c **** {
 4346              		.loc 1 324 0
 4347              		.cfi_startproc
 4348              		@ args = 0, pretend = 0, frame = 32
 4349              		@ frame_needed = 1, uses_anonymous_args = 0
 4350 0000 80B5     		push	{r7, lr}
 4351              	.LCFI37:
 4352              		.cfi_def_cfa_offset 8
 4353              		.cfi_offset 7, -8
 4354              		.cfi_offset 14, -4
 4355 0002 88B0     		sub	sp, sp, #32
 4356              	.LCFI38:
 4357              		.cfi_def_cfa_offset 40
 4358 0004 00AF     		add	r7, sp, #0
 4359              	.LCFI39:
 4360              		.cfi_def_cfa_register 7
 4361 0006 F860     		str	r0, [r7, #12]
 4362 0008 B960     		str	r1, [r7, #8]
 4363 000a 7A60     		str	r2, [r7, #4]
 325:C:/Users/dtjld/workspace/AIoT/src/LiteOS_Lab/iot_link/network/dtls/mbedtls/mbedtls-2.16.2/library\ripemd160.c ****     int ret;
ARM GAS  C:\Users\dtjld\AppData\Local\Temp\cccTkoKh.s 			page 83


 326:C:/Users/dtjld/workspace/AIoT/src/LiteOS_Lab/iot_link/network/dtls/mbedtls/mbedtls-2.16.2/library\ripemd160.c ****     size_t fill;
 327:C:/Users/dtjld/workspace/AIoT/src/LiteOS_Lab/iot_link/network/dtls/mbedtls/mbedtls-2.16.2/library\ripemd160.c ****     uint32_t left;
 328:C:/Users/dtjld/workspace/AIoT/src/LiteOS_Lab/iot_link/network/dtls/mbedtls/mbedtls-2.16.2/library\ripemd160.c **** 
 329:C:/Users/dtjld/workspace/AIoT/src/LiteOS_Lab/iot_link/network/dtls/mbedtls/mbedtls-2.16.2/library\ripemd160.c ****     if( ilen == 0 )
 4364              		.loc 1 329 0
 4365 000c 7B68     		ldr	r3, [r7, #4]
 4366 000e 002B     		cmp	r3, #0
 4367 0010 01D1     		bne	.L48
 330:C:/Users/dtjld/workspace/AIoT/src/LiteOS_Lab/iot_link/network/dtls/mbedtls/mbedtls-2.16.2/library\ripemd160.c ****         return( 0 );
 4368              		.loc 1 330 0
 4369 0012 0023     		movs	r3, #0
 4370 0014 65E0     		b	.L49
 4371              	.L48:
 331:C:/Users/dtjld/workspace/AIoT/src/LiteOS_Lab/iot_link/network/dtls/mbedtls/mbedtls-2.16.2/library\ripemd160.c **** 
 332:C:/Users/dtjld/workspace/AIoT/src/LiteOS_Lab/iot_link/network/dtls/mbedtls/mbedtls-2.16.2/library\ripemd160.c ****     left = ctx->total[0] & 0x3F;
 4372              		.loc 1 332 0
 4373 0016 FB68     		ldr	r3, [r7, #12]
 4374 0018 1B68     		ldr	r3, [r3]
 4375 001a 03F03F03 		and	r3, r3, #63
 4376 001e FB61     		str	r3, [r7, #28]
 333:C:/Users/dtjld/workspace/AIoT/src/LiteOS_Lab/iot_link/network/dtls/mbedtls/mbedtls-2.16.2/library\ripemd160.c ****     fill = 64 - left;
 4377              		.loc 1 333 0
 4378 0020 FB69     		ldr	r3, [r7, #28]
 4379 0022 C3F14003 		rsb	r3, r3, #64
 4380 0026 BB61     		str	r3, [r7, #24]
 334:C:/Users/dtjld/workspace/AIoT/src/LiteOS_Lab/iot_link/network/dtls/mbedtls/mbedtls-2.16.2/library\ripemd160.c **** 
 335:C:/Users/dtjld/workspace/AIoT/src/LiteOS_Lab/iot_link/network/dtls/mbedtls/mbedtls-2.16.2/library\ripemd160.c ****     ctx->total[0] += (uint32_t) ilen;
 4381              		.loc 1 335 0
 4382 0028 FB68     		ldr	r3, [r7, #12]
 4383 002a 1A68     		ldr	r2, [r3]
 4384 002c 7B68     		ldr	r3, [r7, #4]
 4385 002e 1A44     		add	r2, r2, r3
 4386 0030 FB68     		ldr	r3, [r7, #12]
 4387 0032 1A60     		str	r2, [r3]
 336:C:/Users/dtjld/workspace/AIoT/src/LiteOS_Lab/iot_link/network/dtls/mbedtls/mbedtls-2.16.2/library\ripemd160.c ****     ctx->total[0] &= 0xFFFFFFFF;
 4388              		.loc 1 336 0
 4389 0034 FB68     		ldr	r3, [r7, #12]
 4390 0036 1A68     		ldr	r2, [r3]
 4391 0038 FB68     		ldr	r3, [r7, #12]
 4392 003a 1A60     		str	r2, [r3]
 337:C:/Users/dtjld/workspace/AIoT/src/LiteOS_Lab/iot_link/network/dtls/mbedtls/mbedtls-2.16.2/library\ripemd160.c **** 
 338:C:/Users/dtjld/workspace/AIoT/src/LiteOS_Lab/iot_link/network/dtls/mbedtls/mbedtls-2.16.2/library\ripemd160.c ****     if( ctx->total[0] < (uint32_t) ilen )
 4393              		.loc 1 338 0
 4394 003c FB68     		ldr	r3, [r7, #12]
 4395 003e 1B68     		ldr	r3, [r3]
 4396 0040 7A68     		ldr	r2, [r7, #4]
 4397 0042 9A42     		cmp	r2, r3
 4398 0044 04D9     		bls	.L50
 339:C:/Users/dtjld/workspace/AIoT/src/LiteOS_Lab/iot_link/network/dtls/mbedtls/mbedtls-2.16.2/library\ripemd160.c ****         ctx->total[1]++;
 4399              		.loc 1 339 0
 4400 0046 FB68     		ldr	r3, [r7, #12]
 4401 0048 5B68     		ldr	r3, [r3, #4]
 4402 004a 5A1C     		adds	r2, r3, #1
 4403 004c FB68     		ldr	r3, [r7, #12]
 4404 004e 5A60     		str	r2, [r3, #4]
 4405              	.L50:
 340:C:/Users/dtjld/workspace/AIoT/src/LiteOS_Lab/iot_link/network/dtls/mbedtls/mbedtls-2.16.2/library\ripemd160.c **** 
ARM GAS  C:\Users\dtjld\AppData\Local\Temp\cccTkoKh.s 			page 84


 341:C:/Users/dtjld/workspace/AIoT/src/LiteOS_Lab/iot_link/network/dtls/mbedtls/mbedtls-2.16.2/library\ripemd160.c ****     if( left && ilen >= fill )
 4406              		.loc 1 341 0
 4407 0050 FB69     		ldr	r3, [r7, #28]
 4408 0052 002B     		cmp	r3, #0
 4409 0054 34D0     		beq	.L53
 4410              		.loc 1 341 0 is_stmt 0 discriminator 1
 4411 0056 7A68     		ldr	r2, [r7, #4]
 4412 0058 BB69     		ldr	r3, [r7, #24]
 4413 005a 9A42     		cmp	r2, r3
 4414 005c 30D3     		bcc	.L53
 342:C:/Users/dtjld/workspace/AIoT/src/LiteOS_Lab/iot_link/network/dtls/mbedtls/mbedtls-2.16.2/library\ripemd160.c ****     {
 343:C:/Users/dtjld/workspace/AIoT/src/LiteOS_Lab/iot_link/network/dtls/mbedtls/mbedtls-2.16.2/library\ripemd160.c ****         memcpy( (void *) (ctx->buffer + left), input, fill );
 4415              		.loc 1 343 0 is_stmt 1
 4416 005e FB68     		ldr	r3, [r7, #12]
 4417 0060 03F11C02 		add	r2, r3, #28
 4418 0064 FB69     		ldr	r3, [r7, #28]
 4419 0066 1344     		add	r3, r3, r2
 4420 0068 BA69     		ldr	r2, [r7, #24]
 4421 006a B968     		ldr	r1, [r7, #8]
 4422 006c 1846     		mov	r0, r3
 4423 006e FFF7FEFF 		bl	memcpy
 344:C:/Users/dtjld/workspace/AIoT/src/LiteOS_Lab/iot_link/network/dtls/mbedtls/mbedtls-2.16.2/library\ripemd160.c **** 
 345:C:/Users/dtjld/workspace/AIoT/src/LiteOS_Lab/iot_link/network/dtls/mbedtls/mbedtls-2.16.2/library\ripemd160.c ****         if( ( ret = mbedtls_internal_ripemd160_process( ctx, ctx->buffer ) ) != 0 )
 4424              		.loc 1 345 0
 4425 0072 FB68     		ldr	r3, [r7, #12]
 4426 0074 1C33     		adds	r3, r3, #28
 4427 0076 1946     		mov	r1, r3
 4428 0078 F868     		ldr	r0, [r7, #12]
 4429 007a FFF7FEFF 		bl	mbedtls_internal_ripemd160_process
 4430 007e 7861     		str	r0, [r7, #20]
 4431 0080 7B69     		ldr	r3, [r7, #20]
 4432 0082 002B     		cmp	r3, #0
 4433 0084 01D0     		beq	.L52
 346:C:/Users/dtjld/workspace/AIoT/src/LiteOS_Lab/iot_link/network/dtls/mbedtls/mbedtls-2.16.2/library\ripemd160.c ****             return( ret );
 4434              		.loc 1 346 0
 4435 0086 7B69     		ldr	r3, [r7, #20]
 4436 0088 2BE0     		b	.L49
 4437              	.L52:
 347:C:/Users/dtjld/workspace/AIoT/src/LiteOS_Lab/iot_link/network/dtls/mbedtls/mbedtls-2.16.2/library\ripemd160.c **** 
 348:C:/Users/dtjld/workspace/AIoT/src/LiteOS_Lab/iot_link/network/dtls/mbedtls/mbedtls-2.16.2/library\ripemd160.c ****         input += fill;
 4438              		.loc 1 348 0
 4439 008a BA68     		ldr	r2, [r7, #8]
 4440 008c BB69     		ldr	r3, [r7, #24]
 4441 008e 1344     		add	r3, r3, r2
 4442 0090 BB60     		str	r3, [r7, #8]
 349:C:/Users/dtjld/workspace/AIoT/src/LiteOS_Lab/iot_link/network/dtls/mbedtls/mbedtls-2.16.2/library\ripemd160.c ****         ilen  -= fill;
 4443              		.loc 1 349 0
 4444 0092 7A68     		ldr	r2, [r7, #4]
 4445 0094 BB69     		ldr	r3, [r7, #24]
 4446 0096 D31A     		subs	r3, r2, r3
 4447 0098 7B60     		str	r3, [r7, #4]
 350:C:/Users/dtjld/workspace/AIoT/src/LiteOS_Lab/iot_link/network/dtls/mbedtls/mbedtls-2.16.2/library\ripemd160.c ****         left = 0;
 4448              		.loc 1 350 0
 4449 009a 0023     		movs	r3, #0
 4450 009c FB61     		str	r3, [r7, #28]
 351:C:/Users/dtjld/workspace/AIoT/src/LiteOS_Lab/iot_link/network/dtls/mbedtls/mbedtls-2.16.2/library\ripemd160.c ****     }
 352:C:/Users/dtjld/workspace/AIoT/src/LiteOS_Lab/iot_link/network/dtls/mbedtls/mbedtls-2.16.2/library\ripemd160.c **** 
ARM GAS  C:\Users\dtjld\AppData\Local\Temp\cccTkoKh.s 			page 85


 353:C:/Users/dtjld/workspace/AIoT/src/LiteOS_Lab/iot_link/network/dtls/mbedtls/mbedtls-2.16.2/library\ripemd160.c ****     while( ilen >= 64 )
 4451              		.loc 1 353 0
 4452 009e 0FE0     		b	.L53
 4453              	.L55:
 354:C:/Users/dtjld/workspace/AIoT/src/LiteOS_Lab/iot_link/network/dtls/mbedtls/mbedtls-2.16.2/library\ripemd160.c ****     {
 355:C:/Users/dtjld/workspace/AIoT/src/LiteOS_Lab/iot_link/network/dtls/mbedtls/mbedtls-2.16.2/library\ripemd160.c ****         if( ( ret = mbedtls_internal_ripemd160_process( ctx, input ) ) != 0 )
 4454              		.loc 1 355 0
 4455 00a0 B968     		ldr	r1, [r7, #8]
 4456 00a2 F868     		ldr	r0, [r7, #12]
 4457 00a4 FFF7FEFF 		bl	mbedtls_internal_ripemd160_process
 4458 00a8 7861     		str	r0, [r7, #20]
 4459 00aa 7B69     		ldr	r3, [r7, #20]
 4460 00ac 002B     		cmp	r3, #0
 4461 00ae 01D0     		beq	.L54
 356:C:/Users/dtjld/workspace/AIoT/src/LiteOS_Lab/iot_link/network/dtls/mbedtls/mbedtls-2.16.2/library\ripemd160.c ****             return( ret );
 4462              		.loc 1 356 0
 4463 00b0 7B69     		ldr	r3, [r7, #20]
 4464 00b2 16E0     		b	.L49
 4465              	.L54:
 357:C:/Users/dtjld/workspace/AIoT/src/LiteOS_Lab/iot_link/network/dtls/mbedtls/mbedtls-2.16.2/library\ripemd160.c **** 
 358:C:/Users/dtjld/workspace/AIoT/src/LiteOS_Lab/iot_link/network/dtls/mbedtls/mbedtls-2.16.2/library\ripemd160.c ****         input += 64;
 4466              		.loc 1 358 0
 4467 00b4 BB68     		ldr	r3, [r7, #8]
 4468 00b6 4033     		adds	r3, r3, #64
 4469 00b8 BB60     		str	r3, [r7, #8]
 359:C:/Users/dtjld/workspace/AIoT/src/LiteOS_Lab/iot_link/network/dtls/mbedtls/mbedtls-2.16.2/library\ripemd160.c ****         ilen  -= 64;
 4470              		.loc 1 359 0
 4471 00ba 7B68     		ldr	r3, [r7, #4]
 4472 00bc 403B     		subs	r3, r3, #64
 4473 00be 7B60     		str	r3, [r7, #4]
 4474              	.L53:
 353:C:/Users/dtjld/workspace/AIoT/src/LiteOS_Lab/iot_link/network/dtls/mbedtls/mbedtls-2.16.2/library\ripemd160.c ****     {
 4475              		.loc 1 353 0
 4476 00c0 7B68     		ldr	r3, [r7, #4]
 4477 00c2 3F2B     		cmp	r3, #63
 4478 00c4 ECD8     		bhi	.L55
 360:C:/Users/dtjld/workspace/AIoT/src/LiteOS_Lab/iot_link/network/dtls/mbedtls/mbedtls-2.16.2/library\ripemd160.c ****     }
 361:C:/Users/dtjld/workspace/AIoT/src/LiteOS_Lab/iot_link/network/dtls/mbedtls/mbedtls-2.16.2/library\ripemd160.c **** 
 362:C:/Users/dtjld/workspace/AIoT/src/LiteOS_Lab/iot_link/network/dtls/mbedtls/mbedtls-2.16.2/library\ripemd160.c ****     if( ilen > 0 )
 4479              		.loc 1 362 0
 4480 00c6 7B68     		ldr	r3, [r7, #4]
 4481 00c8 002B     		cmp	r3, #0
 4482 00ca 09D0     		beq	.L56
 363:C:/Users/dtjld/workspace/AIoT/src/LiteOS_Lab/iot_link/network/dtls/mbedtls/mbedtls-2.16.2/library\ripemd160.c ****     {
 364:C:/Users/dtjld/workspace/AIoT/src/LiteOS_Lab/iot_link/network/dtls/mbedtls/mbedtls-2.16.2/library\ripemd160.c ****         memcpy( (void *) (ctx->buffer + left), input, ilen );
 4483              		.loc 1 364 0
 4484 00cc FB68     		ldr	r3, [r7, #12]
 4485 00ce 03F11C02 		add	r2, r3, #28
 4486 00d2 FB69     		ldr	r3, [r7, #28]
 4487 00d4 1344     		add	r3, r3, r2
 4488 00d6 7A68     		ldr	r2, [r7, #4]
 4489 00d8 B968     		ldr	r1, [r7, #8]
 4490 00da 1846     		mov	r0, r3
 4491 00dc FFF7FEFF 		bl	memcpy
 4492              	.L56:
 365:C:/Users/dtjld/workspace/AIoT/src/LiteOS_Lab/iot_link/network/dtls/mbedtls/mbedtls-2.16.2/library\ripemd160.c ****     }
 366:C:/Users/dtjld/workspace/AIoT/src/LiteOS_Lab/iot_link/network/dtls/mbedtls/mbedtls-2.16.2/library\ripemd160.c **** 
ARM GAS  C:\Users\dtjld\AppData\Local\Temp\cccTkoKh.s 			page 86


 367:C:/Users/dtjld/workspace/AIoT/src/LiteOS_Lab/iot_link/network/dtls/mbedtls/mbedtls-2.16.2/library\ripemd160.c ****     return( 0 );
 4493              		.loc 1 367 0
 4494 00e0 0023     		movs	r3, #0
 4495              	.L49:
 368:C:/Users/dtjld/workspace/AIoT/src/LiteOS_Lab/iot_link/network/dtls/mbedtls/mbedtls-2.16.2/library\ripemd160.c **** }
 4496              		.loc 1 368 0
 4497 00e2 1846     		mov	r0, r3
 4498 00e4 2037     		adds	r7, r7, #32
 4499              	.LCFI40:
 4500              		.cfi_def_cfa_offset 8
 4501 00e6 BD46     		mov	sp, r7
 4502              	.LCFI41:
 4503              		.cfi_def_cfa_register 13
 4504              		@ sp needed
 4505 00e8 80BD     		pop	{r7, pc}
 4506              		.cfi_endproc
 4507              	.LFE10:
 4509              		.section	.text.mbedtls_ripemd160_update,"ax",%progbits
 4510              		.align	1
 4511              		.global	mbedtls_ripemd160_update
 4512              		.syntax unified
 4513              		.thumb
 4514              		.thumb_func
 4515              		.fpu fpv4-sp-d16
 4517              	mbedtls_ripemd160_update:
 4518              	.LFB11:
 369:C:/Users/dtjld/workspace/AIoT/src/LiteOS_Lab/iot_link/network/dtls/mbedtls/mbedtls-2.16.2/library\ripemd160.c **** 
 370:C:/Users/dtjld/workspace/AIoT/src/LiteOS_Lab/iot_link/network/dtls/mbedtls/mbedtls-2.16.2/library\ripemd160.c **** #if !defined(MBEDTLS_DEPRECATED_REMOVED)
 371:C:/Users/dtjld/workspace/AIoT/src/LiteOS_Lab/iot_link/network/dtls/mbedtls/mbedtls-2.16.2/library\ripemd160.c **** void mbedtls_ripemd160_update( mbedtls_ripemd160_context *ctx,
 372:C:/Users/dtjld/workspace/AIoT/src/LiteOS_Lab/iot_link/network/dtls/mbedtls/mbedtls-2.16.2/library\ripemd160.c ****                                const unsigned char *input,
 373:C:/Users/dtjld/workspace/AIoT/src/LiteOS_Lab/iot_link/network/dtls/mbedtls/mbedtls-2.16.2/library\ripemd160.c ****                                size_t ilen )
 374:C:/Users/dtjld/workspace/AIoT/src/LiteOS_Lab/iot_link/network/dtls/mbedtls/mbedtls-2.16.2/library\ripemd160.c **** {
 4519              		.loc 1 374 0
 4520              		.cfi_startproc
 4521              		@ args = 0, pretend = 0, frame = 16
 4522              		@ frame_needed = 1, uses_anonymous_args = 0
 4523 0000 80B5     		push	{r7, lr}
 4524              	.LCFI42:
 4525              		.cfi_def_cfa_offset 8
 4526              		.cfi_offset 7, -8
 4527              		.cfi_offset 14, -4
 4528 0002 84B0     		sub	sp, sp, #16
 4529              	.LCFI43:
 4530              		.cfi_def_cfa_offset 24
 4531 0004 00AF     		add	r7, sp, #0
 4532              	.LCFI44:
 4533              		.cfi_def_cfa_register 7
 4534 0006 F860     		str	r0, [r7, #12]
 4535 0008 B960     		str	r1, [r7, #8]
 4536 000a 7A60     		str	r2, [r7, #4]
 375:C:/Users/dtjld/workspace/AIoT/src/LiteOS_Lab/iot_link/network/dtls/mbedtls/mbedtls-2.16.2/library\ripemd160.c ****     mbedtls_ripemd160_update_ret( ctx, input, ilen );
 4537              		.loc 1 375 0
 4538 000c 7A68     		ldr	r2, [r7, #4]
 4539 000e B968     		ldr	r1, [r7, #8]
 4540 0010 F868     		ldr	r0, [r7, #12]
 4541 0012 FFF7FEFF 		bl	mbedtls_ripemd160_update_ret
 376:C:/Users/dtjld/workspace/AIoT/src/LiteOS_Lab/iot_link/network/dtls/mbedtls/mbedtls-2.16.2/library\ripemd160.c **** }
ARM GAS  C:\Users\dtjld\AppData\Local\Temp\cccTkoKh.s 			page 87


 4542              		.loc 1 376 0
 4543 0016 00BF     		nop
 4544 0018 1037     		adds	r7, r7, #16
 4545              	.LCFI45:
 4546              		.cfi_def_cfa_offset 8
 4547 001a BD46     		mov	sp, r7
 4548              	.LCFI46:
 4549              		.cfi_def_cfa_register 13
 4550              		@ sp needed
 4551 001c 80BD     		pop	{r7, pc}
 4552              		.cfi_endproc
 4553              	.LFE11:
 4555              		.section	.rodata.ripemd160_padding,"a",%progbits
 4556              		.align	2
 4559              	ripemd160_padding:
 4560 0000 80       		.byte	-128
 4561 0001 00       		.byte	0
 4562 0002 00       		.byte	0
 4563 0003 00       		.byte	0
 4564 0004 00       		.byte	0
 4565 0005 00       		.byte	0
 4566 0006 00       		.byte	0
 4567 0007 00       		.byte	0
 4568 0008 00       		.byte	0
 4569 0009 00       		.byte	0
 4570 000a 00       		.byte	0
 4571 000b 00       		.byte	0
 4572 000c 00       		.byte	0
 4573 000d 00       		.byte	0
 4574 000e 00       		.byte	0
 4575 000f 00       		.byte	0
 4576 0010 00       		.byte	0
 4577 0011 00       		.byte	0
 4578 0012 00       		.byte	0
 4579 0013 00       		.byte	0
 4580 0014 00       		.byte	0
 4581 0015 00       		.byte	0
 4582 0016 00       		.byte	0
 4583 0017 00       		.byte	0
 4584 0018 00       		.byte	0
 4585 0019 00       		.byte	0
 4586 001a 00       		.byte	0
 4587 001b 00       		.byte	0
 4588 001c 00       		.byte	0
 4589 001d 00       		.byte	0
 4590 001e 00       		.byte	0
 4591 001f 00       		.byte	0
 4592 0020 00       		.byte	0
 4593 0021 00       		.byte	0
 4594 0022 00       		.byte	0
 4595 0023 00       		.byte	0
 4596 0024 00       		.byte	0
 4597 0025 00       		.byte	0
 4598 0026 00       		.byte	0
 4599 0027 00       		.byte	0
 4600 0028 00       		.byte	0
 4601 0029 00       		.byte	0
ARM GAS  C:\Users\dtjld\AppData\Local\Temp\cccTkoKh.s 			page 88


 4602 002a 00       		.byte	0
 4603 002b 00       		.byte	0
 4604 002c 00       		.byte	0
 4605 002d 00       		.byte	0
 4606 002e 00       		.byte	0
 4607 002f 00       		.byte	0
 4608 0030 00       		.byte	0
 4609 0031 00       		.byte	0
 4610 0032 00       		.byte	0
 4611 0033 00       		.byte	0
 4612 0034 00       		.byte	0
 4613 0035 00       		.byte	0
 4614 0036 00       		.byte	0
 4615 0037 00       		.byte	0
 4616 0038 00       		.byte	0
 4617 0039 00       		.byte	0
 4618 003a 00       		.byte	0
 4619 003b 00       		.byte	0
 4620 003c 00       		.byte	0
 4621 003d 00       		.byte	0
 4622 003e 00       		.byte	0
 4623 003f 00       		.byte	0
 4624              		.section	.text.mbedtls_ripemd160_finish_ret,"ax",%progbits
 4625              		.align	1
 4626              		.global	mbedtls_ripemd160_finish_ret
 4627              		.syntax unified
 4628              		.thumb
 4629              		.thumb_func
 4630              		.fpu fpv4-sp-d16
 4632              	mbedtls_ripemd160_finish_ret:
 4633              	.LFB12:
 377:C:/Users/dtjld/workspace/AIoT/src/LiteOS_Lab/iot_link/network/dtls/mbedtls/mbedtls-2.16.2/library\ripemd160.c **** #endif
 378:C:/Users/dtjld/workspace/AIoT/src/LiteOS_Lab/iot_link/network/dtls/mbedtls/mbedtls-2.16.2/library\ripemd160.c **** 
 379:C:/Users/dtjld/workspace/AIoT/src/LiteOS_Lab/iot_link/network/dtls/mbedtls/mbedtls-2.16.2/library\ripemd160.c **** static const unsigned char ripemd160_padding[64] =
 380:C:/Users/dtjld/workspace/AIoT/src/LiteOS_Lab/iot_link/network/dtls/mbedtls/mbedtls-2.16.2/library\ripemd160.c **** {
 381:C:/Users/dtjld/workspace/AIoT/src/LiteOS_Lab/iot_link/network/dtls/mbedtls/mbedtls-2.16.2/library\ripemd160.c ****  0x80, 0, 0, 0, 0, 0, 0, 0, 0, 0, 0, 0, 0, 0, 0, 0,
 382:C:/Users/dtjld/workspace/AIoT/src/LiteOS_Lab/iot_link/network/dtls/mbedtls/mbedtls-2.16.2/library\ripemd160.c ****     0, 0, 0, 0, 0, 0, 0, 0, 0, 0, 0, 0, 0, 0, 0, 0,
 383:C:/Users/dtjld/workspace/AIoT/src/LiteOS_Lab/iot_link/network/dtls/mbedtls/mbedtls-2.16.2/library\ripemd160.c ****     0, 0, 0, 0, 0, 0, 0, 0, 0, 0, 0, 0, 0, 0, 0, 0,
 384:C:/Users/dtjld/workspace/AIoT/src/LiteOS_Lab/iot_link/network/dtls/mbedtls/mbedtls-2.16.2/library\ripemd160.c ****     0, 0, 0, 0, 0, 0, 0, 0, 0, 0, 0, 0, 0, 0, 0, 0
 385:C:/Users/dtjld/workspace/AIoT/src/LiteOS_Lab/iot_link/network/dtls/mbedtls/mbedtls-2.16.2/library\ripemd160.c **** };
 386:C:/Users/dtjld/workspace/AIoT/src/LiteOS_Lab/iot_link/network/dtls/mbedtls/mbedtls-2.16.2/library\ripemd160.c **** 
 387:C:/Users/dtjld/workspace/AIoT/src/LiteOS_Lab/iot_link/network/dtls/mbedtls/mbedtls-2.16.2/library\ripemd160.c **** /*
 388:C:/Users/dtjld/workspace/AIoT/src/LiteOS_Lab/iot_link/network/dtls/mbedtls/mbedtls-2.16.2/library\ripemd160.c ****  * RIPEMD-160 final digest
 389:C:/Users/dtjld/workspace/AIoT/src/LiteOS_Lab/iot_link/network/dtls/mbedtls/mbedtls-2.16.2/library\ripemd160.c ****  */
 390:C:/Users/dtjld/workspace/AIoT/src/LiteOS_Lab/iot_link/network/dtls/mbedtls/mbedtls-2.16.2/library\ripemd160.c **** int mbedtls_ripemd160_finish_ret( mbedtls_ripemd160_context *ctx,
 391:C:/Users/dtjld/workspace/AIoT/src/LiteOS_Lab/iot_link/network/dtls/mbedtls/mbedtls-2.16.2/library\ripemd160.c ****                                   unsigned char output[20] )
 392:C:/Users/dtjld/workspace/AIoT/src/LiteOS_Lab/iot_link/network/dtls/mbedtls/mbedtls-2.16.2/library\ripemd160.c **** {
 4634              		.loc 1 392 0
 4635              		.cfi_startproc
 4636              		@ args = 0, pretend = 0, frame = 40
 4637              		@ frame_needed = 1, uses_anonymous_args = 0
 4638 0000 80B5     		push	{r7, lr}
 4639              	.LCFI47:
 4640              		.cfi_def_cfa_offset 8
 4641              		.cfi_offset 7, -8
 4642              		.cfi_offset 14, -4
 4643 0002 8AB0     		sub	sp, sp, #40
ARM GAS  C:\Users\dtjld\AppData\Local\Temp\cccTkoKh.s 			page 89


 4644              	.LCFI48:
 4645              		.cfi_def_cfa_offset 48
 4646 0004 00AF     		add	r7, sp, #0
 4647              	.LCFI49:
 4648              		.cfi_def_cfa_register 7
 4649 0006 7860     		str	r0, [r7, #4]
 4650 0008 3960     		str	r1, [r7]
 393:C:/Users/dtjld/workspace/AIoT/src/LiteOS_Lab/iot_link/network/dtls/mbedtls/mbedtls-2.16.2/library\ripemd160.c ****     int ret;
 394:C:/Users/dtjld/workspace/AIoT/src/LiteOS_Lab/iot_link/network/dtls/mbedtls/mbedtls-2.16.2/library\ripemd160.c ****     uint32_t last, padn;
 395:C:/Users/dtjld/workspace/AIoT/src/LiteOS_Lab/iot_link/network/dtls/mbedtls/mbedtls-2.16.2/library\ripemd160.c ****     uint32_t high, low;
 396:C:/Users/dtjld/workspace/AIoT/src/LiteOS_Lab/iot_link/network/dtls/mbedtls/mbedtls-2.16.2/library\ripemd160.c ****     unsigned char msglen[8];
 397:C:/Users/dtjld/workspace/AIoT/src/LiteOS_Lab/iot_link/network/dtls/mbedtls/mbedtls-2.16.2/library\ripemd160.c **** 
 398:C:/Users/dtjld/workspace/AIoT/src/LiteOS_Lab/iot_link/network/dtls/mbedtls/mbedtls-2.16.2/library\ripemd160.c ****     high = ( ctx->total[0] >> 29 )
 4651              		.loc 1 398 0
 4652 000a 7B68     		ldr	r3, [r7, #4]
 4653 000c 1B68     		ldr	r3, [r3]
 4654 000e 5A0F     		lsrs	r2, r3, #29
 399:C:/Users/dtjld/workspace/AIoT/src/LiteOS_Lab/iot_link/network/dtls/mbedtls/mbedtls-2.16.2/library\ripemd160.c ****          | ( ctx->total[1] <<  3 );
 4655              		.loc 1 399 0
 4656 0010 7B68     		ldr	r3, [r7, #4]
 4657 0012 5B68     		ldr	r3, [r3, #4]
 4658 0014 DB00     		lsls	r3, r3, #3
 398:C:/Users/dtjld/workspace/AIoT/src/LiteOS_Lab/iot_link/network/dtls/mbedtls/mbedtls-2.16.2/library\ripemd160.c ****          | ( ctx->total[1] <<  3 );
 4659              		.loc 1 398 0
 4660 0016 1343     		orrs	r3, r3, r2
 4661 0018 7B62     		str	r3, [r7, #36]
 400:C:/Users/dtjld/workspace/AIoT/src/LiteOS_Lab/iot_link/network/dtls/mbedtls/mbedtls-2.16.2/library\ripemd160.c ****     low  = ( ctx->total[0] <<  3 );
 4662              		.loc 1 400 0
 4663 001a 7B68     		ldr	r3, [r7, #4]
 4664 001c 1B68     		ldr	r3, [r3]
 4665 001e DB00     		lsls	r3, r3, #3
 4666 0020 3B62     		str	r3, [r7, #32]
 401:C:/Users/dtjld/workspace/AIoT/src/LiteOS_Lab/iot_link/network/dtls/mbedtls/mbedtls-2.16.2/library\ripemd160.c **** 
 402:C:/Users/dtjld/workspace/AIoT/src/LiteOS_Lab/iot_link/network/dtls/mbedtls/mbedtls-2.16.2/library\ripemd160.c ****     PUT_UINT32_LE( low,  msglen, 0 );
 4667              		.loc 1 402 0
 4668 0022 3B6A     		ldr	r3, [r7, #32]
 4669 0024 DBB2     		uxtb	r3, r3
 4670 0026 3B73     		strb	r3, [r7, #12]
 4671 0028 3B6A     		ldr	r3, [r7, #32]
 4672 002a 1B0A     		lsrs	r3, r3, #8
 4673 002c DBB2     		uxtb	r3, r3
 4674 002e 7B73     		strb	r3, [r7, #13]
 4675 0030 3B6A     		ldr	r3, [r7, #32]
 4676 0032 1B0C     		lsrs	r3, r3, #16
 4677 0034 DBB2     		uxtb	r3, r3
 4678 0036 BB73     		strb	r3, [r7, #14]
 4679 0038 3B6A     		ldr	r3, [r7, #32]
 4680 003a 1B0E     		lsrs	r3, r3, #24
 4681 003c DBB2     		uxtb	r3, r3
 4682 003e FB73     		strb	r3, [r7, #15]
 403:C:/Users/dtjld/workspace/AIoT/src/LiteOS_Lab/iot_link/network/dtls/mbedtls/mbedtls-2.16.2/library\ripemd160.c ****     PUT_UINT32_LE( high, msglen, 4 );
 4683              		.loc 1 403 0
 4684 0040 7B6A     		ldr	r3, [r7, #36]
 4685 0042 DBB2     		uxtb	r3, r3
 4686 0044 3B74     		strb	r3, [r7, #16]
 4687 0046 7B6A     		ldr	r3, [r7, #36]
 4688 0048 1B0A     		lsrs	r3, r3, #8
ARM GAS  C:\Users\dtjld\AppData\Local\Temp\cccTkoKh.s 			page 90


 4689 004a DBB2     		uxtb	r3, r3
 4690 004c 7B74     		strb	r3, [r7, #17]
 4691 004e 7B6A     		ldr	r3, [r7, #36]
 4692 0050 1B0C     		lsrs	r3, r3, #16
 4693 0052 DBB2     		uxtb	r3, r3
 4694 0054 BB74     		strb	r3, [r7, #18]
 4695 0056 7B6A     		ldr	r3, [r7, #36]
 4696 0058 1B0E     		lsrs	r3, r3, #24
 4697 005a DBB2     		uxtb	r3, r3
 4698 005c FB74     		strb	r3, [r7, #19]
 404:C:/Users/dtjld/workspace/AIoT/src/LiteOS_Lab/iot_link/network/dtls/mbedtls/mbedtls-2.16.2/library\ripemd160.c **** 
 405:C:/Users/dtjld/workspace/AIoT/src/LiteOS_Lab/iot_link/network/dtls/mbedtls/mbedtls-2.16.2/library\ripemd160.c ****     last = ctx->total[0] & 0x3F;
 4699              		.loc 1 405 0
 4700 005e 7B68     		ldr	r3, [r7, #4]
 4701 0060 1B68     		ldr	r3, [r3]
 4702 0062 03F03F03 		and	r3, r3, #63
 4703 0066 FB61     		str	r3, [r7, #28]
 406:C:/Users/dtjld/workspace/AIoT/src/LiteOS_Lab/iot_link/network/dtls/mbedtls/mbedtls-2.16.2/library\ripemd160.c ****     padn = ( last < 56 ) ? ( 56 - last ) : ( 120 - last );
 4704              		.loc 1 406 0
 4705 0068 FB69     		ldr	r3, [r7, #28]
 4706 006a 372B     		cmp	r3, #55
 4707 006c 03D8     		bhi	.L59
 4708              		.loc 1 406 0 is_stmt 0 discriminator 1
 4709 006e FB69     		ldr	r3, [r7, #28]
 4710 0070 C3F13803 		rsb	r3, r3, #56
 4711 0074 02E0     		b	.L60
 4712              	.L59:
 4713              		.loc 1 406 0 discriminator 2
 4714 0076 FB69     		ldr	r3, [r7, #28]
 4715 0078 C3F17803 		rsb	r3, r3, #120
 4716              	.L60:
 4717              		.loc 1 406 0 discriminator 4
 4718 007c BB61     		str	r3, [r7, #24]
 407:C:/Users/dtjld/workspace/AIoT/src/LiteOS_Lab/iot_link/network/dtls/mbedtls/mbedtls-2.16.2/library\ripemd160.c **** 
 408:C:/Users/dtjld/workspace/AIoT/src/LiteOS_Lab/iot_link/network/dtls/mbedtls/mbedtls-2.16.2/library\ripemd160.c ****     ret = mbedtls_ripemd160_update_ret( ctx, ripemd160_padding, padn );
 4719              		.loc 1 408 0 is_stmt 1 discriminator 4
 4720 007e BA69     		ldr	r2, [r7, #24]
 4721 0080 5049     		ldr	r1, .L65
 4722 0082 7868     		ldr	r0, [r7, #4]
 4723 0084 FFF7FEFF 		bl	mbedtls_ripemd160_update_ret
 4724 0088 7861     		str	r0, [r7, #20]
 409:C:/Users/dtjld/workspace/AIoT/src/LiteOS_Lab/iot_link/network/dtls/mbedtls/mbedtls-2.16.2/library\ripemd160.c ****     if( ret != 0 )
 4725              		.loc 1 409 0 discriminator 4
 4726 008a 7B69     		ldr	r3, [r7, #20]
 4727 008c 002B     		cmp	r3, #0
 4728 008e 01D0     		beq	.L61
 410:C:/Users/dtjld/workspace/AIoT/src/LiteOS_Lab/iot_link/network/dtls/mbedtls/mbedtls-2.16.2/library\ripemd160.c ****         return( ret );
 4729              		.loc 1 410 0
 4730 0090 7B69     		ldr	r3, [r7, #20]
 4731 0092 93E0     		b	.L64
 4732              	.L61:
 411:C:/Users/dtjld/workspace/AIoT/src/LiteOS_Lab/iot_link/network/dtls/mbedtls/mbedtls-2.16.2/library\ripemd160.c **** 
 412:C:/Users/dtjld/workspace/AIoT/src/LiteOS_Lab/iot_link/network/dtls/mbedtls/mbedtls-2.16.2/library\ripemd160.c ****     ret = mbedtls_ripemd160_update_ret( ctx, msglen, 8 );
 4733              		.loc 1 412 0
 4734 0094 07F10C03 		add	r3, r7, #12
 4735 0098 0822     		movs	r2, #8
 4736 009a 1946     		mov	r1, r3
ARM GAS  C:\Users\dtjld\AppData\Local\Temp\cccTkoKh.s 			page 91


 4737 009c 7868     		ldr	r0, [r7, #4]
 4738 009e FFF7FEFF 		bl	mbedtls_ripemd160_update_ret
 4739 00a2 7861     		str	r0, [r7, #20]
 413:C:/Users/dtjld/workspace/AIoT/src/LiteOS_Lab/iot_link/network/dtls/mbedtls/mbedtls-2.16.2/library\ripemd160.c ****     if( ret != 0 )
 4740              		.loc 1 413 0
 4741 00a4 7B69     		ldr	r3, [r7, #20]
 4742 00a6 002B     		cmp	r3, #0
 4743 00a8 01D0     		beq	.L63
 414:C:/Users/dtjld/workspace/AIoT/src/LiteOS_Lab/iot_link/network/dtls/mbedtls/mbedtls-2.16.2/library\ripemd160.c ****         return( ret );
 4744              		.loc 1 414 0
 4745 00aa 7B69     		ldr	r3, [r7, #20]
 4746 00ac 86E0     		b	.L64
 4747              	.L63:
 415:C:/Users/dtjld/workspace/AIoT/src/LiteOS_Lab/iot_link/network/dtls/mbedtls/mbedtls-2.16.2/library\ripemd160.c **** 
 416:C:/Users/dtjld/workspace/AIoT/src/LiteOS_Lab/iot_link/network/dtls/mbedtls/mbedtls-2.16.2/library\ripemd160.c ****     PUT_UINT32_LE( ctx->state[0], output,  0 );
 4748              		.loc 1 416 0
 4749 00ae 7B68     		ldr	r3, [r7, #4]
 4750 00b0 9B68     		ldr	r3, [r3, #8]
 4751 00b2 DAB2     		uxtb	r2, r3
 4752 00b4 3B68     		ldr	r3, [r7]
 4753 00b6 1A70     		strb	r2, [r3]
 4754 00b8 7B68     		ldr	r3, [r7, #4]
 4755 00ba 9B68     		ldr	r3, [r3, #8]
 4756 00bc 1A0A     		lsrs	r2, r3, #8
