ARM GAS  C:\Users\dtjld\AppData\Local\Temp\cck1fUMg.s 			page 1


   1              		.cpu cortex-m4
   2              		.eabi_attribute 27, 1
   3              		.eabi_attribute 28, 1
   4              		.eabi_attribute 20, 1
   5              		.eabi_attribute 21, 1
   6              		.eabi_attribute 23, 3
   7              		.eabi_attribute 24, 1
   8              		.eabi_attribute 25, 1
   9              		.eabi_attribute 26, 1
  10              		.eabi_attribute 30, 6
  11              		.eabi_attribute 34, 1
  12              		.eabi_attribute 18, 4
  13              		.file	"rsa.c"
  14              		.text
  15              	.Ltext0:
  16              		.cfi_sections	.debug_frame
  17              		.section	.text.mbedtls_safer_memcmp,"ax",%progbits
  18              		.align	1
  19              		.syntax unified
  20              		.thumb
  21              		.thumb_func
  22              		.fpu fpv4-sp-d16
  24              	mbedtls_safer_memcmp:
  25              	.LFB13:
  26              		.file 1 "C:/Users/dtjld/workspace/AIoT/src/LiteOS_Lab/iot_link/network/dtls/mbedtls/mbedtls-2.16.2
   1:C:/Users/dtjld/workspace/AIoT/src/LiteOS_Lab/iot_link/network/dtls/mbedtls/mbedtls-2.16.2/library\rsa.c **** /*
   2:C:/Users/dtjld/workspace/AIoT/src/LiteOS_Lab/iot_link/network/dtls/mbedtls/mbedtls-2.16.2/library\rsa.c ****  *  The RSA public-key cryptosystem
   3:C:/Users/dtjld/workspace/AIoT/src/LiteOS_Lab/iot_link/network/dtls/mbedtls/mbedtls-2.16.2/library\rsa.c ****  *
   4:C:/Users/dtjld/workspace/AIoT/src/LiteOS_Lab/iot_link/network/dtls/mbedtls/mbedtls-2.16.2/library\rsa.c ****  *  Copyright (C) 2006-2015, ARM Limited, All Rights Reserved
   5:C:/Users/dtjld/workspace/AIoT/src/LiteOS_Lab/iot_link/network/dtls/mbedtls/mbedtls-2.16.2/library\rsa.c ****  *  SPDX-License-Identifier: Apache-2.0
   6:C:/Users/dtjld/workspace/AIoT/src/LiteOS_Lab/iot_link/network/dtls/mbedtls/mbedtls-2.16.2/library\rsa.c ****  *
   7:C:/Users/dtjld/workspace/AIoT/src/LiteOS_Lab/iot_link/network/dtls/mbedtls/mbedtls-2.16.2/library\rsa.c ****  *  Licensed under the Apache License, Version 2.0 (the "License"); you may
   8:C:/Users/dtjld/workspace/AIoT/src/LiteOS_Lab/iot_link/network/dtls/mbedtls/mbedtls-2.16.2/library\rsa.c ****  *  not use this file except in compliance with the License.
   9:C:/Users/dtjld/workspace/AIoT/src/LiteOS_Lab/iot_link/network/dtls/mbedtls/mbedtls-2.16.2/library\rsa.c ****  *  You may obtain a copy of the License at
  10:C:/Users/dtjld/workspace/AIoT/src/LiteOS_Lab/iot_link/network/dtls/mbedtls/mbedtls-2.16.2/library\rsa.c ****  *
  11:C:/Users/dtjld/workspace/AIoT/src/LiteOS_Lab/iot_link/network/dtls/mbedtls/mbedtls-2.16.2/library\rsa.c ****  *  http://www.apache.org/licenses/LICENSE-2.0
  12:C:/Users/dtjld/workspace/AIoT/src/LiteOS_Lab/iot_link/network/dtls/mbedtls/mbedtls-2.16.2/library\rsa.c ****  *
  13:C:/Users/dtjld/workspace/AIoT/src/LiteOS_Lab/iot_link/network/dtls/mbedtls/mbedtls-2.16.2/library\rsa.c ****  *  Unless required by applicable law or agreed to in writing, software
  14:C:/Users/dtjld/workspace/AIoT/src/LiteOS_Lab/iot_link/network/dtls/mbedtls/mbedtls-2.16.2/library\rsa.c ****  *  distributed under the License is distributed on an "AS IS" BASIS, WITHOUT
  15:C:/Users/dtjld/workspace/AIoT/src/LiteOS_Lab/iot_link/network/dtls/mbedtls/mbedtls-2.16.2/library\rsa.c ****  *  WARRANTIES OR CONDITIONS OF ANY KIND, either express or implied.
  16:C:/Users/dtjld/workspace/AIoT/src/LiteOS_Lab/iot_link/network/dtls/mbedtls/mbedtls-2.16.2/library\rsa.c ****  *  See the License for the specific language governing permissions and
  17:C:/Users/dtjld/workspace/AIoT/src/LiteOS_Lab/iot_link/network/dtls/mbedtls/mbedtls-2.16.2/library\rsa.c ****  *  limitations under the License.
  18:C:/Users/dtjld/workspace/AIoT/src/LiteOS_Lab/iot_link/network/dtls/mbedtls/mbedtls-2.16.2/library\rsa.c ****  *
  19:C:/Users/dtjld/workspace/AIoT/src/LiteOS_Lab/iot_link/network/dtls/mbedtls/mbedtls-2.16.2/library\rsa.c ****  *  This file is part of mbed TLS (https://tls.mbed.org)
  20:C:/Users/dtjld/workspace/AIoT/src/LiteOS_Lab/iot_link/network/dtls/mbedtls/mbedtls-2.16.2/library\rsa.c ****  */
  21:C:/Users/dtjld/workspace/AIoT/src/LiteOS_Lab/iot_link/network/dtls/mbedtls/mbedtls-2.16.2/library\rsa.c **** 
  22:C:/Users/dtjld/workspace/AIoT/src/LiteOS_Lab/iot_link/network/dtls/mbedtls/mbedtls-2.16.2/library\rsa.c **** /*
  23:C:/Users/dtjld/workspace/AIoT/src/LiteOS_Lab/iot_link/network/dtls/mbedtls/mbedtls-2.16.2/library\rsa.c ****  *  The following sources were referenced in the design of this implementation
  24:C:/Users/dtjld/workspace/AIoT/src/LiteOS_Lab/iot_link/network/dtls/mbedtls/mbedtls-2.16.2/library\rsa.c ****  *  of the RSA algorithm:
  25:C:/Users/dtjld/workspace/AIoT/src/LiteOS_Lab/iot_link/network/dtls/mbedtls/mbedtls-2.16.2/library\rsa.c ****  *
  26:C:/Users/dtjld/workspace/AIoT/src/LiteOS_Lab/iot_link/network/dtls/mbedtls/mbedtls-2.16.2/library\rsa.c ****  *  [1] A method for obtaining digital signatures and public-key cryptosystems
  27:C:/Users/dtjld/workspace/AIoT/src/LiteOS_Lab/iot_link/network/dtls/mbedtls/mbedtls-2.16.2/library\rsa.c ****  *      R Rivest, A Shamir, and L Adleman
  28:C:/Users/dtjld/workspace/AIoT/src/LiteOS_Lab/iot_link/network/dtls/mbedtls/mbedtls-2.16.2/library\rsa.c ****  *      http://people.csail.mit.edu/rivest/pubs.html#RSA78
  29:C:/Users/dtjld/workspace/AIoT/src/LiteOS_Lab/iot_link/network/dtls/mbedtls/mbedtls-2.16.2/library\rsa.c ****  *
  30:C:/Users/dtjld/workspace/AIoT/src/LiteOS_Lab/iot_link/network/dtls/mbedtls/mbedtls-2.16.2/library\rsa.c ****  *  [2] Handbook of Applied Cryptography - 1997, Chapter 8
  31:C:/Users/dtjld/workspace/AIoT/src/LiteOS_Lab/iot_link/network/dtls/mbedtls/mbedtls-2.16.2/library\rsa.c ****  *      Menezes, van Oorschot and Vanstone
  32:C:/Users/dtjld/workspace/AIoT/src/LiteOS_Lab/iot_link/network/dtls/mbedtls/mbedtls-2.16.2/library\rsa.c ****  *
ARM GAS  C:\Users\dtjld\AppData\Local\Temp\cck1fUMg.s 			page 2


  33:C:/Users/dtjld/workspace/AIoT/src/LiteOS_Lab/iot_link/network/dtls/mbedtls/mbedtls-2.16.2/library\rsa.c ****  *  [3] Malware Guard Extension: Using SGX to Conceal Cache Attacks
  34:C:/Users/dtjld/workspace/AIoT/src/LiteOS_Lab/iot_link/network/dtls/mbedtls/mbedtls-2.16.2/library\rsa.c ****  *      Michael Schwarz, Samuel Weiser, Daniel Gruss, Clémentine Maurice and
  35:C:/Users/dtjld/workspace/AIoT/src/LiteOS_Lab/iot_link/network/dtls/mbedtls/mbedtls-2.16.2/library\rsa.c ****  *      Stefan Mangard
  36:C:/Users/dtjld/workspace/AIoT/src/LiteOS_Lab/iot_link/network/dtls/mbedtls/mbedtls-2.16.2/library\rsa.c ****  *      https://arxiv.org/abs/1702.08719v2
  37:C:/Users/dtjld/workspace/AIoT/src/LiteOS_Lab/iot_link/network/dtls/mbedtls/mbedtls-2.16.2/library\rsa.c ****  *
  38:C:/Users/dtjld/workspace/AIoT/src/LiteOS_Lab/iot_link/network/dtls/mbedtls/mbedtls-2.16.2/library\rsa.c ****  */
  39:C:/Users/dtjld/workspace/AIoT/src/LiteOS_Lab/iot_link/network/dtls/mbedtls/mbedtls-2.16.2/library\rsa.c **** 
  40:C:/Users/dtjld/workspace/AIoT/src/LiteOS_Lab/iot_link/network/dtls/mbedtls/mbedtls-2.16.2/library\rsa.c **** #if !defined(MBEDTLS_CONFIG_FILE)
  41:C:/Users/dtjld/workspace/AIoT/src/LiteOS_Lab/iot_link/network/dtls/mbedtls/mbedtls-2.16.2/library\rsa.c **** #include "mbedtls/config.h"
  42:C:/Users/dtjld/workspace/AIoT/src/LiteOS_Lab/iot_link/network/dtls/mbedtls/mbedtls-2.16.2/library\rsa.c **** #else
  43:C:/Users/dtjld/workspace/AIoT/src/LiteOS_Lab/iot_link/network/dtls/mbedtls/mbedtls-2.16.2/library\rsa.c **** #include MBEDTLS_CONFIG_FILE
  44:C:/Users/dtjld/workspace/AIoT/src/LiteOS_Lab/iot_link/network/dtls/mbedtls/mbedtls-2.16.2/library\rsa.c **** #endif
  45:C:/Users/dtjld/workspace/AIoT/src/LiteOS_Lab/iot_link/network/dtls/mbedtls/mbedtls-2.16.2/library\rsa.c **** 
  46:C:/Users/dtjld/workspace/AIoT/src/LiteOS_Lab/iot_link/network/dtls/mbedtls/mbedtls-2.16.2/library\rsa.c **** #if defined(MBEDTLS_RSA_C)
  47:C:/Users/dtjld/workspace/AIoT/src/LiteOS_Lab/iot_link/network/dtls/mbedtls/mbedtls-2.16.2/library\rsa.c **** 
  48:C:/Users/dtjld/workspace/AIoT/src/LiteOS_Lab/iot_link/network/dtls/mbedtls/mbedtls-2.16.2/library\rsa.c **** #include "mbedtls/rsa.h"
  49:C:/Users/dtjld/workspace/AIoT/src/LiteOS_Lab/iot_link/network/dtls/mbedtls/mbedtls-2.16.2/library\rsa.c **** #include "mbedtls/rsa_internal.h"
  50:C:/Users/dtjld/workspace/AIoT/src/LiteOS_Lab/iot_link/network/dtls/mbedtls/mbedtls-2.16.2/library\rsa.c **** #include "mbedtls/oid.h"
  51:C:/Users/dtjld/workspace/AIoT/src/LiteOS_Lab/iot_link/network/dtls/mbedtls/mbedtls-2.16.2/library\rsa.c **** #include "mbedtls/platform_util.h"
  52:C:/Users/dtjld/workspace/AIoT/src/LiteOS_Lab/iot_link/network/dtls/mbedtls/mbedtls-2.16.2/library\rsa.c **** 
  53:C:/Users/dtjld/workspace/AIoT/src/LiteOS_Lab/iot_link/network/dtls/mbedtls/mbedtls-2.16.2/library\rsa.c **** #include <string.h>
  54:C:/Users/dtjld/workspace/AIoT/src/LiteOS_Lab/iot_link/network/dtls/mbedtls/mbedtls-2.16.2/library\rsa.c **** 
  55:C:/Users/dtjld/workspace/AIoT/src/LiteOS_Lab/iot_link/network/dtls/mbedtls/mbedtls-2.16.2/library\rsa.c **** #if defined(MBEDTLS_PKCS1_V21)
  56:C:/Users/dtjld/workspace/AIoT/src/LiteOS_Lab/iot_link/network/dtls/mbedtls/mbedtls-2.16.2/library\rsa.c **** #include "mbedtls/md.h"
  57:C:/Users/dtjld/workspace/AIoT/src/LiteOS_Lab/iot_link/network/dtls/mbedtls/mbedtls-2.16.2/library\rsa.c **** #endif
  58:C:/Users/dtjld/workspace/AIoT/src/LiteOS_Lab/iot_link/network/dtls/mbedtls/mbedtls-2.16.2/library\rsa.c **** 
  59:C:/Users/dtjld/workspace/AIoT/src/LiteOS_Lab/iot_link/network/dtls/mbedtls/mbedtls-2.16.2/library\rsa.c **** #if defined(MBEDTLS_PKCS1_V15) && !defined(__OpenBSD__)
  60:C:/Users/dtjld/workspace/AIoT/src/LiteOS_Lab/iot_link/network/dtls/mbedtls/mbedtls-2.16.2/library\rsa.c **** #include <stdlib.h>
  61:C:/Users/dtjld/workspace/AIoT/src/LiteOS_Lab/iot_link/network/dtls/mbedtls/mbedtls-2.16.2/library\rsa.c **** #endif
  62:C:/Users/dtjld/workspace/AIoT/src/LiteOS_Lab/iot_link/network/dtls/mbedtls/mbedtls-2.16.2/library\rsa.c **** 
  63:C:/Users/dtjld/workspace/AIoT/src/LiteOS_Lab/iot_link/network/dtls/mbedtls/mbedtls-2.16.2/library\rsa.c **** #if defined(MBEDTLS_PLATFORM_C)
  64:C:/Users/dtjld/workspace/AIoT/src/LiteOS_Lab/iot_link/network/dtls/mbedtls/mbedtls-2.16.2/library\rsa.c **** #include "mbedtls/platform.h"
  65:C:/Users/dtjld/workspace/AIoT/src/LiteOS_Lab/iot_link/network/dtls/mbedtls/mbedtls-2.16.2/library\rsa.c **** #else
  66:C:/Users/dtjld/workspace/AIoT/src/LiteOS_Lab/iot_link/network/dtls/mbedtls/mbedtls-2.16.2/library\rsa.c **** #include <stdio.h>
  67:C:/Users/dtjld/workspace/AIoT/src/LiteOS_Lab/iot_link/network/dtls/mbedtls/mbedtls-2.16.2/library\rsa.c **** #define mbedtls_printf printf
  68:C:/Users/dtjld/workspace/AIoT/src/LiteOS_Lab/iot_link/network/dtls/mbedtls/mbedtls-2.16.2/library\rsa.c **** #define mbedtls_calloc calloc
  69:C:/Users/dtjld/workspace/AIoT/src/LiteOS_Lab/iot_link/network/dtls/mbedtls/mbedtls-2.16.2/library\rsa.c **** #define mbedtls_free   free
  70:C:/Users/dtjld/workspace/AIoT/src/LiteOS_Lab/iot_link/network/dtls/mbedtls/mbedtls-2.16.2/library\rsa.c **** #endif
  71:C:/Users/dtjld/workspace/AIoT/src/LiteOS_Lab/iot_link/network/dtls/mbedtls/mbedtls-2.16.2/library\rsa.c **** 
  72:C:/Users/dtjld/workspace/AIoT/src/LiteOS_Lab/iot_link/network/dtls/mbedtls/mbedtls-2.16.2/library\rsa.c **** #if !defined(MBEDTLS_RSA_ALT)
  73:C:/Users/dtjld/workspace/AIoT/src/LiteOS_Lab/iot_link/network/dtls/mbedtls/mbedtls-2.16.2/library\rsa.c **** 
  74:C:/Users/dtjld/workspace/AIoT/src/LiteOS_Lab/iot_link/network/dtls/mbedtls/mbedtls-2.16.2/library\rsa.c **** /* Parameter validation macros */
  75:C:/Users/dtjld/workspace/AIoT/src/LiteOS_Lab/iot_link/network/dtls/mbedtls/mbedtls-2.16.2/library\rsa.c **** #define RSA_VALIDATE_RET( cond )                                       \
  76:C:/Users/dtjld/workspace/AIoT/src/LiteOS_Lab/iot_link/network/dtls/mbedtls/mbedtls-2.16.2/library\rsa.c ****     MBEDTLS_INTERNAL_VALIDATE_RET( cond, MBEDTLS_ERR_RSA_BAD_INPUT_DATA )
  77:C:/Users/dtjld/workspace/AIoT/src/LiteOS_Lab/iot_link/network/dtls/mbedtls/mbedtls-2.16.2/library\rsa.c **** #define RSA_VALIDATE( cond )                                           \
  78:C:/Users/dtjld/workspace/AIoT/src/LiteOS_Lab/iot_link/network/dtls/mbedtls/mbedtls-2.16.2/library\rsa.c ****     MBEDTLS_INTERNAL_VALIDATE( cond )
  79:C:/Users/dtjld/workspace/AIoT/src/LiteOS_Lab/iot_link/network/dtls/mbedtls/mbedtls-2.16.2/library\rsa.c **** 
  80:C:/Users/dtjld/workspace/AIoT/src/LiteOS_Lab/iot_link/network/dtls/mbedtls/mbedtls-2.16.2/library\rsa.c **** #if defined(MBEDTLS_PKCS1_V15)
  81:C:/Users/dtjld/workspace/AIoT/src/LiteOS_Lab/iot_link/network/dtls/mbedtls/mbedtls-2.16.2/library\rsa.c **** /* constant-time buffer comparison */
  82:C:/Users/dtjld/workspace/AIoT/src/LiteOS_Lab/iot_link/network/dtls/mbedtls/mbedtls-2.16.2/library\rsa.c **** static inline int mbedtls_safer_memcmp( const void *a, const void *b, size_t n )
  83:C:/Users/dtjld/workspace/AIoT/src/LiteOS_Lab/iot_link/network/dtls/mbedtls/mbedtls-2.16.2/library\rsa.c **** {
  27              		.loc 1 83 0
  28              		.cfi_startproc
  29              		@ args = 0, pretend = 0, frame = 32
  30              		@ frame_needed = 1, uses_anonymous_args = 0
  31              		@ link register save eliminated.
  32 0000 80B4     		push	{r7}
ARM GAS  C:\Users\dtjld\AppData\Local\Temp\cck1fUMg.s 			page 3


  33              	.LCFI0:
  34              		.cfi_def_cfa_offset 4
  35              		.cfi_offset 7, -4
  36 0002 89B0     		sub	sp, sp, #36
  37              	.LCFI1:
  38              		.cfi_def_cfa_offset 40
  39 0004 00AF     		add	r7, sp, #0
  40              	.LCFI2:
  41              		.cfi_def_cfa_register 7
  42 0006 F860     		str	r0, [r7, #12]
  43 0008 B960     		str	r1, [r7, #8]
  44 000a 7A60     		str	r2, [r7, #4]
  84:C:/Users/dtjld/workspace/AIoT/src/LiteOS_Lab/iot_link/network/dtls/mbedtls/mbedtls-2.16.2/library\rsa.c ****     size_t i;
  85:C:/Users/dtjld/workspace/AIoT/src/LiteOS_Lab/iot_link/network/dtls/mbedtls/mbedtls-2.16.2/library\rsa.c ****     const unsigned char *A = (const unsigned char *) a;
  45              		.loc 1 85 0
  46 000c FB68     		ldr	r3, [r7, #12]
  47 000e 7B61     		str	r3, [r7, #20]
  86:C:/Users/dtjld/workspace/AIoT/src/LiteOS_Lab/iot_link/network/dtls/mbedtls/mbedtls-2.16.2/library\rsa.c ****     const unsigned char *B = (const unsigned char *) b;
  48              		.loc 1 86 0
  49 0010 BB68     		ldr	r3, [r7, #8]
  50 0012 3B61     		str	r3, [r7, #16]
  87:C:/Users/dtjld/workspace/AIoT/src/LiteOS_Lab/iot_link/network/dtls/mbedtls/mbedtls-2.16.2/library\rsa.c ****     unsigned char diff = 0;
  51              		.loc 1 87 0
  52 0014 0023     		movs	r3, #0
  53 0016 FB76     		strb	r3, [r7, #27]
  88:C:/Users/dtjld/workspace/AIoT/src/LiteOS_Lab/iot_link/network/dtls/mbedtls/mbedtls-2.16.2/library\rsa.c **** 
  89:C:/Users/dtjld/workspace/AIoT/src/LiteOS_Lab/iot_link/network/dtls/mbedtls/mbedtls-2.16.2/library\rsa.c ****     for( i = 0; i < n; i++ )
  54              		.loc 1 89 0
  55 0018 0023     		movs	r3, #0
  56 001a FB61     		str	r3, [r7, #28]
  57 001c 0FE0     		b	.L2
  58              	.L3:
  90:C:/Users/dtjld/workspace/AIoT/src/LiteOS_Lab/iot_link/network/dtls/mbedtls/mbedtls-2.16.2/library\rsa.c ****         diff |= A[i] ^ B[i];
  59              		.loc 1 90 0 discriminator 3
  60 001e 7A69     		ldr	r2, [r7, #20]
  61 0020 FB69     		ldr	r3, [r7, #28]
  62 0022 1344     		add	r3, r3, r2
  63 0024 1A78     		ldrb	r2, [r3]	@ zero_extendqisi2
  64 0026 3969     		ldr	r1, [r7, #16]
  65 0028 FB69     		ldr	r3, [r7, #28]
  66 002a 0B44     		add	r3, r3, r1
  67 002c 1B78     		ldrb	r3, [r3]	@ zero_extendqisi2
  68 002e 5340     		eors	r3, r3, r2
  69 0030 DAB2     		uxtb	r2, r3
  70 0032 FB7E     		ldrb	r3, [r7, #27]
  71 0034 1343     		orrs	r3, r3, r2
  72 0036 FB76     		strb	r3, [r7, #27]
  89:C:/Users/dtjld/workspace/AIoT/src/LiteOS_Lab/iot_link/network/dtls/mbedtls/mbedtls-2.16.2/library\rsa.c ****         diff |= A[i] ^ B[i];
  73              		.loc 1 89 0 discriminator 3
  74 0038 FB69     		ldr	r3, [r7, #28]
  75 003a 0133     		adds	r3, r3, #1
  76 003c FB61     		str	r3, [r7, #28]
  77              	.L2:
  89:C:/Users/dtjld/workspace/AIoT/src/LiteOS_Lab/iot_link/network/dtls/mbedtls/mbedtls-2.16.2/library\rsa.c ****         diff |= A[i] ^ B[i];
  78              		.loc 1 89 0 is_stmt 0 discriminator 1
  79 003e FA69     		ldr	r2, [r7, #28]
  80 0040 7B68     		ldr	r3, [r7, #4]
ARM GAS  C:\Users\dtjld\AppData\Local\Temp\cck1fUMg.s 			page 4


  81 0042 9A42     		cmp	r2, r3
  82 0044 EBD3     		bcc	.L3
  91:C:/Users/dtjld/workspace/AIoT/src/LiteOS_Lab/iot_link/network/dtls/mbedtls/mbedtls-2.16.2/library\rsa.c **** 
  92:C:/Users/dtjld/workspace/AIoT/src/LiteOS_Lab/iot_link/network/dtls/mbedtls/mbedtls-2.16.2/library\rsa.c ****     return( diff );
  83              		.loc 1 92 0 is_stmt 1
  84 0046 FB7E     		ldrb	r3, [r7, #27]	@ zero_extendqisi2
  93:C:/Users/dtjld/workspace/AIoT/src/LiteOS_Lab/iot_link/network/dtls/mbedtls/mbedtls-2.16.2/library\rsa.c **** }
  85              		.loc 1 93 0
  86 0048 1846     		mov	r0, r3
  87 004a 2437     		adds	r7, r7, #36
  88              	.LCFI3:
  89              		.cfi_def_cfa_offset 4
  90 004c BD46     		mov	sp, r7
  91              	.LCFI4:
  92              		.cfi_def_cfa_register 13
  93              		@ sp needed
  94 004e 5DF8047B 		ldr	r7, [sp], #4
  95              	.LCFI5:
  96              		.cfi_restore 7
  97              		.cfi_def_cfa_offset 0
  98 0052 7047     		bx	lr
  99              		.cfi_endproc
 100              	.LFE13:
 102              		.section	.text.mbedtls_rsa_import,"ax",%progbits
 103              		.align	1
 104              		.global	mbedtls_rsa_import
 105              		.syntax unified
 106              		.thumb
 107              		.thumb_func
 108              		.fpu fpv4-sp-d16
 110              	mbedtls_rsa_import:
 111              	.LFB14:
  94:C:/Users/dtjld/workspace/AIoT/src/LiteOS_Lab/iot_link/network/dtls/mbedtls/mbedtls-2.16.2/library\rsa.c **** #endif /* MBEDTLS_PKCS1_V15 */
  95:C:/Users/dtjld/workspace/AIoT/src/LiteOS_Lab/iot_link/network/dtls/mbedtls/mbedtls-2.16.2/library\rsa.c **** 
  96:C:/Users/dtjld/workspace/AIoT/src/LiteOS_Lab/iot_link/network/dtls/mbedtls/mbedtls-2.16.2/library\rsa.c **** int mbedtls_rsa_import( mbedtls_rsa_context *ctx,
  97:C:/Users/dtjld/workspace/AIoT/src/LiteOS_Lab/iot_link/network/dtls/mbedtls/mbedtls-2.16.2/library\rsa.c ****                         const mbedtls_mpi *N,
  98:C:/Users/dtjld/workspace/AIoT/src/LiteOS_Lab/iot_link/network/dtls/mbedtls/mbedtls-2.16.2/library\rsa.c ****                         const mbedtls_mpi *P, const mbedtls_mpi *Q,
  99:C:/Users/dtjld/workspace/AIoT/src/LiteOS_Lab/iot_link/network/dtls/mbedtls/mbedtls-2.16.2/library\rsa.c ****                         const mbedtls_mpi *D, const mbedtls_mpi *E )
 100:C:/Users/dtjld/workspace/AIoT/src/LiteOS_Lab/iot_link/network/dtls/mbedtls/mbedtls-2.16.2/library\rsa.c **** {
 112              		.loc 1 100 0
 113              		.cfi_startproc
 114              		@ args = 8, pretend = 0, frame = 24
 115              		@ frame_needed = 1, uses_anonymous_args = 0
 116 0000 80B5     		push	{r7, lr}
 117              	.LCFI6:
 118              		.cfi_def_cfa_offset 8
 119              		.cfi_offset 7, -8
 120              		.cfi_offset 14, -4
 121 0002 86B0     		sub	sp, sp, #24
 122              	.LCFI7:
 123              		.cfi_def_cfa_offset 32
 124 0004 00AF     		add	r7, sp, #0
 125              	.LCFI8:
 126              		.cfi_def_cfa_register 7
 127 0006 F860     		str	r0, [r7, #12]
 128 0008 B960     		str	r1, [r7, #8]
 129 000a 7A60     		str	r2, [r7, #4]
ARM GAS  C:\Users\dtjld\AppData\Local\Temp\cck1fUMg.s 			page 5


 130 000c 3B60     		str	r3, [r7]
 101:C:/Users/dtjld/workspace/AIoT/src/LiteOS_Lab/iot_link/network/dtls/mbedtls/mbedtls-2.16.2/library\rsa.c ****     int ret;
 102:C:/Users/dtjld/workspace/AIoT/src/LiteOS_Lab/iot_link/network/dtls/mbedtls/mbedtls-2.16.2/library\rsa.c ****     RSA_VALIDATE_RET( ctx != NULL );
 103:C:/Users/dtjld/workspace/AIoT/src/LiteOS_Lab/iot_link/network/dtls/mbedtls/mbedtls-2.16.2/library\rsa.c **** 
 104:C:/Users/dtjld/workspace/AIoT/src/LiteOS_Lab/iot_link/network/dtls/mbedtls/mbedtls-2.16.2/library\rsa.c ****     if( ( N != NULL && ( ret = mbedtls_mpi_copy( &ctx->N, N ) ) != 0 ) ||
 131              		.loc 1 104 0
 132 000e BB68     		ldr	r3, [r7, #8]
 133 0010 002B     		cmp	r3, #0
 134 0012 09D0     		beq	.L6
 135              		.loc 1 104 0 is_stmt 0 discriminator 1
 136 0014 FB68     		ldr	r3, [r7, #12]
 137 0016 0833     		adds	r3, r3, #8
 138 0018 B968     		ldr	r1, [r7, #8]
 139 001a 1846     		mov	r0, r3
 140 001c FFF7FEFF 		bl	mbedtls_mpi_copy
 141 0020 7861     		str	r0, [r7, #20]
 142 0022 7B69     		ldr	r3, [r7, #20]
 143 0024 002B     		cmp	r3, #0
 144 0026 33D1     		bne	.L7
 145              	.L6:
 146              		.loc 1 104 0 discriminator 3
 147 0028 7B68     		ldr	r3, [r7, #4]
 148 002a 002B     		cmp	r3, #0
 149 002c 09D0     		beq	.L8
 105:C:/Users/dtjld/workspace/AIoT/src/LiteOS_Lab/iot_link/network/dtls/mbedtls/mbedtls-2.16.2/library\rsa.c ****         ( P != NULL && ( ret = mbedtls_mpi_copy( &ctx->P, P ) ) != 0 ) ||
 150              		.loc 1 105 0 is_stmt 1
 151 002e FB68     		ldr	r3, [r7, #12]
 152 0030 2C33     		adds	r3, r3, #44
 153 0032 7968     		ldr	r1, [r7, #4]
 154 0034 1846     		mov	r0, r3
 155 0036 FFF7FEFF 		bl	mbedtls_mpi_copy
 156 003a 7861     		str	r0, [r7, #20]
 157 003c 7B69     		ldr	r3, [r7, #20]
 158 003e 002B     		cmp	r3, #0
 159 0040 26D1     		bne	.L7
 160              	.L8:
 161              		.loc 1 105 0 is_stmt 0 discriminator 1
 162 0042 3B68     		ldr	r3, [r7]
 163 0044 002B     		cmp	r3, #0
 164 0046 09D0     		beq	.L9
 106:C:/Users/dtjld/workspace/AIoT/src/LiteOS_Lab/iot_link/network/dtls/mbedtls/mbedtls-2.16.2/library\rsa.c ****         ( Q != NULL && ( ret = mbedtls_mpi_copy( &ctx->Q, Q ) ) != 0 ) ||
 165              		.loc 1 106 0 is_stmt 1
 166 0048 FB68     		ldr	r3, [r7, #12]
 167 004a 3833     		adds	r3, r3, #56
 168 004c 3968     		ldr	r1, [r7]
 169 004e 1846     		mov	r0, r3
 170 0050 FFF7FEFF 		bl	mbedtls_mpi_copy
 171 0054 7861     		str	r0, [r7, #20]
 172 0056 7B69     		ldr	r3, [r7, #20]
 173 0058 002B     		cmp	r3, #0
 174 005a 19D1     		bne	.L7
 175              	.L9:
 176              		.loc 1 106 0 is_stmt 0 discriminator 1
 177 005c 3B6A     		ldr	r3, [r7, #32]
 178 005e 002B     		cmp	r3, #0
 179 0060 09D0     		beq	.L10
 107:C:/Users/dtjld/workspace/AIoT/src/LiteOS_Lab/iot_link/network/dtls/mbedtls/mbedtls-2.16.2/library\rsa.c ****         ( D != NULL && ( ret = mbedtls_mpi_copy( &ctx->D, D ) ) != 0 ) ||
ARM GAS  C:\Users\dtjld\AppData\Local\Temp\cck1fUMg.s 			page 6


 180              		.loc 1 107 0 is_stmt 1
 181 0062 FB68     		ldr	r3, [r7, #12]
 182 0064 2033     		adds	r3, r3, #32
 183 0066 396A     		ldr	r1, [r7, #32]
 184 0068 1846     		mov	r0, r3
 185 006a FFF7FEFF 		bl	mbedtls_mpi_copy
 186 006e 7861     		str	r0, [r7, #20]
 187 0070 7B69     		ldr	r3, [r7, #20]
 188 0072 002B     		cmp	r3, #0
 189 0074 0CD1     		bne	.L7
 190              	.L10:
 191              		.loc 1 107 0 is_stmt 0 discriminator 1
 192 0076 7B6A     		ldr	r3, [r7, #36]
 193 0078 002B     		cmp	r3, #0
 194 007a 0DD0     		beq	.L11
 108:C:/Users/dtjld/workspace/AIoT/src/LiteOS_Lab/iot_link/network/dtls/mbedtls/mbedtls-2.16.2/library\rsa.c ****         ( E != NULL && ( ret = mbedtls_mpi_copy( &ctx->E, E ) ) != 0 ) )
 195              		.loc 1 108 0 is_stmt 1
 196 007c FB68     		ldr	r3, [r7, #12]
 197 007e 1433     		adds	r3, r3, #20
 198 0080 796A     		ldr	r1, [r7, #36]
 199 0082 1846     		mov	r0, r3
 200 0084 FFF7FEFF 		bl	mbedtls_mpi_copy
 201 0088 7861     		str	r0, [r7, #20]
 202 008a 7B69     		ldr	r3, [r7, #20]
 203 008c 002B     		cmp	r3, #0
 204 008e 03D0     		beq	.L11
 205              	.L7:
 109:C:/Users/dtjld/workspace/AIoT/src/LiteOS_Lab/iot_link/network/dtls/mbedtls/mbedtls-2.16.2/library\rsa.c ****     {
 110:C:/Users/dtjld/workspace/AIoT/src/LiteOS_Lab/iot_link/network/dtls/mbedtls/mbedtls-2.16.2/library\rsa.c ****         return( MBEDTLS_ERR_RSA_BAD_INPUT_DATA + ret );
 206              		.loc 1 110 0
 207 0090 7B69     		ldr	r3, [r7, #20]
 208 0092 A3F58143 		sub	r3, r3, #16512
 209 0096 0BE0     		b	.L12
 210              	.L11:
 111:C:/Users/dtjld/workspace/AIoT/src/LiteOS_Lab/iot_link/network/dtls/mbedtls/mbedtls-2.16.2/library\rsa.c ****     }
 112:C:/Users/dtjld/workspace/AIoT/src/LiteOS_Lab/iot_link/network/dtls/mbedtls/mbedtls-2.16.2/library\rsa.c **** 
 113:C:/Users/dtjld/workspace/AIoT/src/LiteOS_Lab/iot_link/network/dtls/mbedtls/mbedtls-2.16.2/library\rsa.c ****     if( N != NULL )
 211              		.loc 1 113 0
 212 0098 BB68     		ldr	r3, [r7, #8]
 213 009a 002B     		cmp	r3, #0
 214 009c 07D0     		beq	.L13
 114:C:/Users/dtjld/workspace/AIoT/src/LiteOS_Lab/iot_link/network/dtls/mbedtls/mbedtls-2.16.2/library\rsa.c ****         ctx->len = mbedtls_mpi_size( &ctx->N );
 215              		.loc 1 114 0
 216 009e FB68     		ldr	r3, [r7, #12]
 217 00a0 0833     		adds	r3, r3, #8
 218 00a2 1846     		mov	r0, r3
 219 00a4 FFF7FEFF 		bl	mbedtls_mpi_size
 220 00a8 0246     		mov	r2, r0
 221 00aa FB68     		ldr	r3, [r7, #12]
 222 00ac 5A60     		str	r2, [r3, #4]
 223              	.L13:
 115:C:/Users/dtjld/workspace/AIoT/src/LiteOS_Lab/iot_link/network/dtls/mbedtls/mbedtls-2.16.2/library\rsa.c **** 
 116:C:/Users/dtjld/workspace/AIoT/src/LiteOS_Lab/iot_link/network/dtls/mbedtls/mbedtls-2.16.2/library\rsa.c ****     return( 0 );
 224              		.loc 1 116 0
 225 00ae 0023     		movs	r3, #0
 226              	.L12:
 117:C:/Users/dtjld/workspace/AIoT/src/LiteOS_Lab/iot_link/network/dtls/mbedtls/mbedtls-2.16.2/library\rsa.c **** }
ARM GAS  C:\Users\dtjld\AppData\Local\Temp\cck1fUMg.s 			page 7


 227              		.loc 1 117 0
 228 00b0 1846     		mov	r0, r3
 229 00b2 1837     		adds	r7, r7, #24
 230              	.LCFI9:
 231              		.cfi_def_cfa_offset 8
 232 00b4 BD46     		mov	sp, r7
 233              	.LCFI10:
 234              		.cfi_def_cfa_register 13
 235              		@ sp needed
 236 00b6 80BD     		pop	{r7, pc}
 237              		.cfi_endproc
 238              	.LFE14:
 240              		.section	.text.mbedtls_rsa_import_raw,"ax",%progbits
 241              		.align	1
 242              		.global	mbedtls_rsa_import_raw
 243              		.syntax unified
 244              		.thumb
 245              		.thumb_func
 246              		.fpu fpv4-sp-d16
 248              	mbedtls_rsa_import_raw:
 249              	.LFB15:
 118:C:/Users/dtjld/workspace/AIoT/src/LiteOS_Lab/iot_link/network/dtls/mbedtls/mbedtls-2.16.2/library\rsa.c **** 
 119:C:/Users/dtjld/workspace/AIoT/src/LiteOS_Lab/iot_link/network/dtls/mbedtls/mbedtls-2.16.2/library\rsa.c **** int mbedtls_rsa_import_raw( mbedtls_rsa_context *ctx,
 120:C:/Users/dtjld/workspace/AIoT/src/LiteOS_Lab/iot_link/network/dtls/mbedtls/mbedtls-2.16.2/library\rsa.c ****                             unsigned char const *N, size_t N_len,
 121:C:/Users/dtjld/workspace/AIoT/src/LiteOS_Lab/iot_link/network/dtls/mbedtls/mbedtls-2.16.2/library\rsa.c ****                             unsigned char const *P, size_t P_len,
 122:C:/Users/dtjld/workspace/AIoT/src/LiteOS_Lab/iot_link/network/dtls/mbedtls/mbedtls-2.16.2/library\rsa.c ****                             unsigned char const *Q, size_t Q_len,
 123:C:/Users/dtjld/workspace/AIoT/src/LiteOS_Lab/iot_link/network/dtls/mbedtls/mbedtls-2.16.2/library\rsa.c ****                             unsigned char const *D, size_t D_len,
 124:C:/Users/dtjld/workspace/AIoT/src/LiteOS_Lab/iot_link/network/dtls/mbedtls/mbedtls-2.16.2/library\rsa.c ****                             unsigned char const *E, size_t E_len )
 125:C:/Users/dtjld/workspace/AIoT/src/LiteOS_Lab/iot_link/network/dtls/mbedtls/mbedtls-2.16.2/library\rsa.c **** {
 250              		.loc 1 125 0
 251              		.cfi_startproc
 252              		@ args = 28, pretend = 0, frame = 24
 253              		@ frame_needed = 1, uses_anonymous_args = 0
 254 0000 80B5     		push	{r7, lr}
 255              	.LCFI11:
 256              		.cfi_def_cfa_offset 8
 257              		.cfi_offset 7, -8
 258              		.cfi_offset 14, -4
 259 0002 86B0     		sub	sp, sp, #24
 260              	.LCFI12:
 261              		.cfi_def_cfa_offset 32
 262 0004 00AF     		add	r7, sp, #0
 263              	.LCFI13:
 264              		.cfi_def_cfa_register 7
 265 0006 F860     		str	r0, [r7, #12]
 266 0008 B960     		str	r1, [r7, #8]
 267 000a 7A60     		str	r2, [r7, #4]
 268 000c 3B60     		str	r3, [r7]
 126:C:/Users/dtjld/workspace/AIoT/src/LiteOS_Lab/iot_link/network/dtls/mbedtls/mbedtls-2.16.2/library\rsa.c ****     int ret = 0;
 269              		.loc 1 126 0
 270 000e 0023     		movs	r3, #0
 271 0010 7B61     		str	r3, [r7, #20]
 127:C:/Users/dtjld/workspace/AIoT/src/LiteOS_Lab/iot_link/network/dtls/mbedtls/mbedtls-2.16.2/library\rsa.c ****     RSA_VALIDATE_RET( ctx != NULL );
 128:C:/Users/dtjld/workspace/AIoT/src/LiteOS_Lab/iot_link/network/dtls/mbedtls/mbedtls-2.16.2/library\rsa.c **** 
 129:C:/Users/dtjld/workspace/AIoT/src/LiteOS_Lab/iot_link/network/dtls/mbedtls/mbedtls-2.16.2/library\rsa.c ****     if( N != NULL )
 272              		.loc 1 129 0
 273 0012 BB68     		ldr	r3, [r7, #8]
ARM GAS  C:\Users\dtjld\AppData\Local\Temp\cck1fUMg.s 			page 8


 274 0014 002B     		cmp	r3, #0
 275 0016 12D0     		beq	.L15
 130:C:/Users/dtjld/workspace/AIoT/src/LiteOS_Lab/iot_link/network/dtls/mbedtls/mbedtls-2.16.2/library\rsa.c ****     {
 131:C:/Users/dtjld/workspace/AIoT/src/LiteOS_Lab/iot_link/network/dtls/mbedtls/mbedtls-2.16.2/library\rsa.c ****         MBEDTLS_MPI_CHK( mbedtls_mpi_read_binary( &ctx->N, N, N_len ) );
 276              		.loc 1 131 0
 277 0018 FB68     		ldr	r3, [r7, #12]
 278 001a 0833     		adds	r3, r3, #8
 279 001c 7A68     		ldr	r2, [r7, #4]
 280 001e B968     		ldr	r1, [r7, #8]
 281 0020 1846     		mov	r0, r3
 282 0022 FFF7FEFF 		bl	mbedtls_mpi_read_binary
 283 0026 7861     		str	r0, [r7, #20]
 284 0028 7B69     		ldr	r3, [r7, #20]
 285 002a 002B     		cmp	r3, #0
 286 002c 3FD1     		bne	.L23
 132:C:/Users/dtjld/workspace/AIoT/src/LiteOS_Lab/iot_link/network/dtls/mbedtls/mbedtls-2.16.2/library\rsa.c ****         ctx->len = mbedtls_mpi_size( &ctx->N );
 287              		.loc 1 132 0
 288 002e FB68     		ldr	r3, [r7, #12]
 289 0030 0833     		adds	r3, r3, #8
 290 0032 1846     		mov	r0, r3
 291 0034 FFF7FEFF 		bl	mbedtls_mpi_size
 292 0038 0246     		mov	r2, r0
 293 003a FB68     		ldr	r3, [r7, #12]
 294 003c 5A60     		str	r2, [r3, #4]
 295              	.L15:
 133:C:/Users/dtjld/workspace/AIoT/src/LiteOS_Lab/iot_link/network/dtls/mbedtls/mbedtls-2.16.2/library\rsa.c ****     }
 134:C:/Users/dtjld/workspace/AIoT/src/LiteOS_Lab/iot_link/network/dtls/mbedtls/mbedtls-2.16.2/library\rsa.c **** 
 135:C:/Users/dtjld/workspace/AIoT/src/LiteOS_Lab/iot_link/network/dtls/mbedtls/mbedtls-2.16.2/library\rsa.c ****     if( P != NULL )
 296              		.loc 1 135 0
 297 003e 3B68     		ldr	r3, [r7]
 298 0040 002B     		cmp	r3, #0
 299 0042 0AD0     		beq	.L18
 136:C:/Users/dtjld/workspace/AIoT/src/LiteOS_Lab/iot_link/network/dtls/mbedtls/mbedtls-2.16.2/library\rsa.c ****         MBEDTLS_MPI_CHK( mbedtls_mpi_read_binary( &ctx->P, P, P_len ) );
 300              		.loc 1 136 0
 301 0044 FB68     		ldr	r3, [r7, #12]
 302 0046 2C33     		adds	r3, r3, #44
 303 0048 3A6A     		ldr	r2, [r7, #32]
 304 004a 3968     		ldr	r1, [r7]
 305 004c 1846     		mov	r0, r3
 306 004e FFF7FEFF 		bl	mbedtls_mpi_read_binary
 307 0052 7861     		str	r0, [r7, #20]
 308 0054 7B69     		ldr	r3, [r7, #20]
 309 0056 002B     		cmp	r3, #0
 310 0058 2BD1     		bne	.L24
 311              	.L18:
 137:C:/Users/dtjld/workspace/AIoT/src/LiteOS_Lab/iot_link/network/dtls/mbedtls/mbedtls-2.16.2/library\rsa.c **** 
 138:C:/Users/dtjld/workspace/AIoT/src/LiteOS_Lab/iot_link/network/dtls/mbedtls/mbedtls-2.16.2/library\rsa.c ****     if( Q != NULL )
 312              		.loc 1 138 0
 313 005a 7B6A     		ldr	r3, [r7, #36]
 314 005c 002B     		cmp	r3, #0
 315 005e 0AD0     		beq	.L19
 139:C:/Users/dtjld/workspace/AIoT/src/LiteOS_Lab/iot_link/network/dtls/mbedtls/mbedtls-2.16.2/library\rsa.c ****         MBEDTLS_MPI_CHK( mbedtls_mpi_read_binary( &ctx->Q, Q, Q_len ) );
 316              		.loc 1 139 0
 317 0060 FB68     		ldr	r3, [r7, #12]
 318 0062 3833     		adds	r3, r3, #56
 319 0064 BA6A     		ldr	r2, [r7, #40]
 320 0066 796A     		ldr	r1, [r7, #36]
ARM GAS  C:\Users\dtjld\AppData\Local\Temp\cck1fUMg.s 			page 9


 321 0068 1846     		mov	r0, r3
 322 006a FFF7FEFF 		bl	mbedtls_mpi_read_binary
 323 006e 7861     		str	r0, [r7, #20]
 324 0070 7B69     		ldr	r3, [r7, #20]
 325 0072 002B     		cmp	r3, #0
 326 0074 1FD1     		bne	.L25
 327              	.L19:
 140:C:/Users/dtjld/workspace/AIoT/src/LiteOS_Lab/iot_link/network/dtls/mbedtls/mbedtls-2.16.2/library\rsa.c **** 
 141:C:/Users/dtjld/workspace/AIoT/src/LiteOS_Lab/iot_link/network/dtls/mbedtls/mbedtls-2.16.2/library\rsa.c ****     if( D != NULL )
 328              		.loc 1 141 0
 329 0076 FB6A     		ldr	r3, [r7, #44]
 330 0078 002B     		cmp	r3, #0
 331 007a 0AD0     		beq	.L20
 142:C:/Users/dtjld/workspace/AIoT/src/LiteOS_Lab/iot_link/network/dtls/mbedtls/mbedtls-2.16.2/library\rsa.c ****         MBEDTLS_MPI_CHK( mbedtls_mpi_read_binary( &ctx->D, D, D_len ) );
 332              		.loc 1 142 0
 333 007c FB68     		ldr	r3, [r7, #12]
 334 007e 2033     		adds	r3, r3, #32
 335 0080 3A6B     		ldr	r2, [r7, #48]
 336 0082 F96A     		ldr	r1, [r7, #44]
 337 0084 1846     		mov	r0, r3
 338 0086 FFF7FEFF 		bl	mbedtls_mpi_read_binary
 339 008a 7861     		str	r0, [r7, #20]
 340 008c 7B69     		ldr	r3, [r7, #20]
 341 008e 002B     		cmp	r3, #0
 342 0090 13D1     		bne	.L26
 343              	.L20:
 143:C:/Users/dtjld/workspace/AIoT/src/LiteOS_Lab/iot_link/network/dtls/mbedtls/mbedtls-2.16.2/library\rsa.c **** 
 144:C:/Users/dtjld/workspace/AIoT/src/LiteOS_Lab/iot_link/network/dtls/mbedtls/mbedtls-2.16.2/library\rsa.c ****     if( E != NULL )
 344              		.loc 1 144 0
 345 0092 7B6B     		ldr	r3, [r7, #52]
 346 0094 002B     		cmp	r3, #0
 347 0096 12D0     		beq	.L27
 145:C:/Users/dtjld/workspace/AIoT/src/LiteOS_Lab/iot_link/network/dtls/mbedtls/mbedtls-2.16.2/library\rsa.c ****         MBEDTLS_MPI_CHK( mbedtls_mpi_read_binary( &ctx->E, E, E_len ) );
 348              		.loc 1 145 0
 349 0098 FB68     		ldr	r3, [r7, #12]
 350 009a 1433     		adds	r3, r3, #20
 351 009c BA6B     		ldr	r2, [r7, #56]
 352 009e 796B     		ldr	r1, [r7, #52]
 353 00a0 1846     		mov	r0, r3
 354 00a2 FFF7FEFF 		bl	mbedtls_mpi_read_binary
 355 00a6 7861     		str	r0, [r7, #20]
 356 00a8 7B69     		ldr	r3, [r7, #20]
 357 00aa 002B     		cmp	r3, #0
 146:C:/Users/dtjld/workspace/AIoT/src/LiteOS_Lab/iot_link/network/dtls/mbedtls/mbedtls-2.16.2/library\rsa.c **** 
 147:C:/Users/dtjld/workspace/AIoT/src/LiteOS_Lab/iot_link/network/dtls/mbedtls/mbedtls-2.16.2/library\rsa.c **** cleanup:
 358              		.loc 1 147 0
 359 00ac 07E0     		b	.L27
 360              	.L23:
 131:C:/Users/dtjld/workspace/AIoT/src/LiteOS_Lab/iot_link/network/dtls/mbedtls/mbedtls-2.16.2/library\rsa.c ****         ctx->len = mbedtls_mpi_size( &ctx->N );
 361              		.loc 1 131 0
 362 00ae 00BF     		nop
 363 00b0 06E0     		b	.L17
 364              	.L24:
 136:C:/Users/dtjld/workspace/AIoT/src/LiteOS_Lab/iot_link/network/dtls/mbedtls/mbedtls-2.16.2/library\rsa.c **** 
 365              		.loc 1 136 0
 366 00b2 00BF     		nop
 367 00b4 04E0     		b	.L17
ARM GAS  C:\Users\dtjld\AppData\Local\Temp\cck1fUMg.s 			page 10


 368              	.L25:
 139:C:/Users/dtjld/workspace/AIoT/src/LiteOS_Lab/iot_link/network/dtls/mbedtls/mbedtls-2.16.2/library\rsa.c **** 
 369              		.loc 1 139 0
 370 00b6 00BF     		nop
 371 00b8 02E0     		b	.L17
 372              	.L26:
 142:C:/Users/dtjld/workspace/AIoT/src/LiteOS_Lab/iot_link/network/dtls/mbedtls/mbedtls-2.16.2/library\rsa.c **** 
 373              		.loc 1 142 0
 374 00ba 00BF     		nop
 375 00bc 00E0     		b	.L17
 376              	.L27:
 377              		.loc 1 147 0
 378 00be 00BF     		nop
 379              	.L17:
 148:C:/Users/dtjld/workspace/AIoT/src/LiteOS_Lab/iot_link/network/dtls/mbedtls/mbedtls-2.16.2/library\rsa.c **** 
 149:C:/Users/dtjld/workspace/AIoT/src/LiteOS_Lab/iot_link/network/dtls/mbedtls/mbedtls-2.16.2/library\rsa.c ****     if( ret != 0 )
 380              		.loc 1 149 0
 381 00c0 7B69     		ldr	r3, [r7, #20]
 382 00c2 002B     		cmp	r3, #0
 383 00c4 03D0     		beq	.L21
 150:C:/Users/dtjld/workspace/AIoT/src/LiteOS_Lab/iot_link/network/dtls/mbedtls/mbedtls-2.16.2/library\rsa.c ****         return( MBEDTLS_ERR_RSA_BAD_INPUT_DATA + ret );
 384              		.loc 1 150 0
 385 00c6 7B69     		ldr	r3, [r7, #20]
 386 00c8 A3F58143 		sub	r3, r3, #16512
 387 00cc 00E0     		b	.L22
 388              	.L21:
 151:C:/Users/dtjld/workspace/AIoT/src/LiteOS_Lab/iot_link/network/dtls/mbedtls/mbedtls-2.16.2/library\rsa.c **** 
 152:C:/Users/dtjld/workspace/AIoT/src/LiteOS_Lab/iot_link/network/dtls/mbedtls/mbedtls-2.16.2/library\rsa.c ****     return( 0 );
 389              		.loc 1 152 0
 390 00ce 0023     		movs	r3, #0
 391              	.L22:
 153:C:/Users/dtjld/workspace/AIoT/src/LiteOS_Lab/iot_link/network/dtls/mbedtls/mbedtls-2.16.2/library\rsa.c **** }
 392              		.loc 1 153 0
 393 00d0 1846     		mov	r0, r3
 394 00d2 1837     		adds	r7, r7, #24
 395              	.LCFI14:
 396              		.cfi_def_cfa_offset 8
 397 00d4 BD46     		mov	sp, r7
 398              	.LCFI15:
 399              		.cfi_def_cfa_register 13
 400              		@ sp needed
 401 00d6 80BD     		pop	{r7, pc}
 402              		.cfi_endproc
 403              	.LFE15:
 405              		.section	.text.rsa_check_context,"ax",%progbits
 406              		.align	1
 407              		.syntax unified
 408              		.thumb
 409              		.thumb_func
 410              		.fpu fpv4-sp-d16
 412              	rsa_check_context:
 413              	.LFB16:
 154:C:/Users/dtjld/workspace/AIoT/src/LiteOS_Lab/iot_link/network/dtls/mbedtls/mbedtls-2.16.2/library\rsa.c **** 
 155:C:/Users/dtjld/workspace/AIoT/src/LiteOS_Lab/iot_link/network/dtls/mbedtls/mbedtls-2.16.2/library\rsa.c **** /*
 156:C:/Users/dtjld/workspace/AIoT/src/LiteOS_Lab/iot_link/network/dtls/mbedtls/mbedtls-2.16.2/library\rsa.c ****  * Checks whether the context fields are set in such a way
 157:C:/Users/dtjld/workspace/AIoT/src/LiteOS_Lab/iot_link/network/dtls/mbedtls/mbedtls-2.16.2/library\rsa.c ****  * that the RSA primitives will be able to execute without error.
 158:C:/Users/dtjld/workspace/AIoT/src/LiteOS_Lab/iot_link/network/dtls/mbedtls/mbedtls-2.16.2/library\rsa.c ****  * It does *not* make guarantees for consistency of the parameters.
ARM GAS  C:\Users\dtjld\AppData\Local\Temp\cck1fUMg.s 			page 11


 159:C:/Users/dtjld/workspace/AIoT/src/LiteOS_Lab/iot_link/network/dtls/mbedtls/mbedtls-2.16.2/library\rsa.c ****  */
 160:C:/Users/dtjld/workspace/AIoT/src/LiteOS_Lab/iot_link/network/dtls/mbedtls/mbedtls-2.16.2/library\rsa.c **** static int rsa_check_context( mbedtls_rsa_context const *ctx, int is_priv,
 161:C:/Users/dtjld/workspace/AIoT/src/LiteOS_Lab/iot_link/network/dtls/mbedtls/mbedtls-2.16.2/library\rsa.c ****                               int blinding_needed )
 162:C:/Users/dtjld/workspace/AIoT/src/LiteOS_Lab/iot_link/network/dtls/mbedtls/mbedtls-2.16.2/library\rsa.c **** {
 414              		.loc 1 162 0
 415              		.cfi_startproc
 416              		@ args = 0, pretend = 0, frame = 16
 417              		@ frame_needed = 1, uses_anonymous_args = 0
 418 0000 90B5     		push	{r4, r7, lr}
 419              	.LCFI16:
 420              		.cfi_def_cfa_offset 12
 421              		.cfi_offset 4, -12
 422              		.cfi_offset 7, -8
 423              		.cfi_offset 14, -4
 424 0002 85B0     		sub	sp, sp, #20
 425              	.LCFI17:
 426              		.cfi_def_cfa_offset 32
 427 0004 00AF     		add	r7, sp, #0
 428              	.LCFI18:
 429              		.cfi_def_cfa_register 7
 430 0006 F860     		str	r0, [r7, #12]
 431 0008 B960     		str	r1, [r7, #8]
 432 000a 7A60     		str	r2, [r7, #4]
 163:C:/Users/dtjld/workspace/AIoT/src/LiteOS_Lab/iot_link/network/dtls/mbedtls/mbedtls-2.16.2/library\rsa.c **** #if !defined(MBEDTLS_RSA_NO_CRT)
 164:C:/Users/dtjld/workspace/AIoT/src/LiteOS_Lab/iot_link/network/dtls/mbedtls/mbedtls-2.16.2/library\rsa.c ****     /* blinding_needed is only used for NO_CRT to decide whether
 165:C:/Users/dtjld/workspace/AIoT/src/LiteOS_Lab/iot_link/network/dtls/mbedtls/mbedtls-2.16.2/library\rsa.c ****      * P,Q need to be present or not. */
 166:C:/Users/dtjld/workspace/AIoT/src/LiteOS_Lab/iot_link/network/dtls/mbedtls/mbedtls-2.16.2/library\rsa.c ****     ((void) blinding_needed);
 167:C:/Users/dtjld/workspace/AIoT/src/LiteOS_Lab/iot_link/network/dtls/mbedtls/mbedtls-2.16.2/library\rsa.c **** #endif
 168:C:/Users/dtjld/workspace/AIoT/src/LiteOS_Lab/iot_link/network/dtls/mbedtls/mbedtls-2.16.2/library\rsa.c **** 
 169:C:/Users/dtjld/workspace/AIoT/src/LiteOS_Lab/iot_link/network/dtls/mbedtls/mbedtls-2.16.2/library\rsa.c ****     if( ctx->len != mbedtls_mpi_size( &ctx->N ) ||
 433              		.loc 1 169 0
 434 000c FB68     		ldr	r3, [r7, #12]
 435 000e 5C68     		ldr	r4, [r3, #4]
 436 0010 FB68     		ldr	r3, [r7, #12]
 437 0012 0833     		adds	r3, r3, #8
 438 0014 1846     		mov	r0, r3
 439 0016 FFF7FEFF 		bl	mbedtls_mpi_size
 440 001a 0346     		mov	r3, r0
 441 001c 9C42     		cmp	r4, r3
 442 001e 04D1     		bne	.L29
 170:C:/Users/dtjld/workspace/AIoT/src/LiteOS_Lab/iot_link/network/dtls/mbedtls/mbedtls-2.16.2/library\rsa.c ****         ctx->len > MBEDTLS_MPI_MAX_SIZE )
 443              		.loc 1 170 0 discriminator 1
 444 0020 FB68     		ldr	r3, [r7, #12]
 445 0022 5B68     		ldr	r3, [r3, #4]
 169:C:/Users/dtjld/workspace/AIoT/src/LiteOS_Lab/iot_link/network/dtls/mbedtls/mbedtls-2.16.2/library\rsa.c ****         ctx->len > MBEDTLS_MPI_MAX_SIZE )
 446              		.loc 1 169 0 discriminator 1
 447 0024 B3F5806F 		cmp	r3, #1024
 448 0028 01D9     		bls	.L30
 449              	.L29:
 171:C:/Users/dtjld/workspace/AIoT/src/LiteOS_Lab/iot_link/network/dtls/mbedtls/mbedtls-2.16.2/library\rsa.c ****     {
 172:C:/Users/dtjld/workspace/AIoT/src/LiteOS_Lab/iot_link/network/dtls/mbedtls/mbedtls-2.16.2/library\rsa.c ****         return( MBEDTLS_ERR_RSA_BAD_INPUT_DATA );
 450              		.loc 1 172 0
 451 002a 3A4B     		ldr	r3, .L40
 452 002c 6DE0     		b	.L31
 453              	.L30:
 173:C:/Users/dtjld/workspace/AIoT/src/LiteOS_Lab/iot_link/network/dtls/mbedtls/mbedtls-2.16.2/library\rsa.c ****     }
 174:C:/Users/dtjld/workspace/AIoT/src/LiteOS_Lab/iot_link/network/dtls/mbedtls/mbedtls-2.16.2/library\rsa.c **** 
ARM GAS  C:\Users\dtjld\AppData\Local\Temp\cck1fUMg.s 			page 12


 175:C:/Users/dtjld/workspace/AIoT/src/LiteOS_Lab/iot_link/network/dtls/mbedtls/mbedtls-2.16.2/library\rsa.c ****     /*
 176:C:/Users/dtjld/workspace/AIoT/src/LiteOS_Lab/iot_link/network/dtls/mbedtls/mbedtls-2.16.2/library\rsa.c ****      * 1. Modular exponentiation needs positive, odd moduli.
 177:C:/Users/dtjld/workspace/AIoT/src/LiteOS_Lab/iot_link/network/dtls/mbedtls/mbedtls-2.16.2/library\rsa.c ****      */
 178:C:/Users/dtjld/workspace/AIoT/src/LiteOS_Lab/iot_link/network/dtls/mbedtls/mbedtls-2.16.2/library\rsa.c **** 
 179:C:/Users/dtjld/workspace/AIoT/src/LiteOS_Lab/iot_link/network/dtls/mbedtls/mbedtls-2.16.2/library\rsa.c ****     /* Modular exponentiation wrt. N is always used for
 180:C:/Users/dtjld/workspace/AIoT/src/LiteOS_Lab/iot_link/network/dtls/mbedtls/mbedtls-2.16.2/library\rsa.c ****      * RSA public key operations. */
 181:C:/Users/dtjld/workspace/AIoT/src/LiteOS_Lab/iot_link/network/dtls/mbedtls/mbedtls-2.16.2/library\rsa.c ****     if( mbedtls_mpi_cmp_int( &ctx->N, 0 ) <= 0 ||
 454              		.loc 1 181 0
 455 002e FB68     		ldr	r3, [r7, #12]
 456 0030 0833     		adds	r3, r3, #8
 457 0032 0021     		movs	r1, #0
 458 0034 1846     		mov	r0, r3
 459 0036 FFF7FEFF 		bl	mbedtls_mpi_cmp_int
 460 003a 0346     		mov	r3, r0
 461 003c 002B     		cmp	r3, #0
 462 003e 08DD     		ble	.L32
 182:C:/Users/dtjld/workspace/AIoT/src/LiteOS_Lab/iot_link/network/dtls/mbedtls/mbedtls-2.16.2/library\rsa.c ****         mbedtls_mpi_get_bit( &ctx->N, 0 ) == 0  )
 463              		.loc 1 182 0 discriminator 1
 464 0040 FB68     		ldr	r3, [r7, #12]
 465 0042 0833     		adds	r3, r3, #8
 466 0044 0021     		movs	r1, #0
 467 0046 1846     		mov	r0, r3
 468 0048 FFF7FEFF 		bl	mbedtls_mpi_get_bit
 469 004c 0346     		mov	r3, r0
 181:C:/Users/dtjld/workspace/AIoT/src/LiteOS_Lab/iot_link/network/dtls/mbedtls/mbedtls-2.16.2/library\rsa.c ****         mbedtls_mpi_get_bit( &ctx->N, 0 ) == 0  )
 470              		.loc 1 181 0 discriminator 1
 471 004e 002B     		cmp	r3, #0
 472 0050 01D1     		bne	.L33
 473              	.L32:
 183:C:/Users/dtjld/workspace/AIoT/src/LiteOS_Lab/iot_link/network/dtls/mbedtls/mbedtls-2.16.2/library\rsa.c ****     {
 184:C:/Users/dtjld/workspace/AIoT/src/LiteOS_Lab/iot_link/network/dtls/mbedtls/mbedtls-2.16.2/library\rsa.c ****         return( MBEDTLS_ERR_RSA_BAD_INPUT_DATA );
 474              		.loc 1 184 0
 475 0052 304B     		ldr	r3, .L40
 476 0054 59E0     		b	.L31
 477              	.L33:
 185:C:/Users/dtjld/workspace/AIoT/src/LiteOS_Lab/iot_link/network/dtls/mbedtls/mbedtls-2.16.2/library\rsa.c ****     }
 186:C:/Users/dtjld/workspace/AIoT/src/LiteOS_Lab/iot_link/network/dtls/mbedtls/mbedtls-2.16.2/library\rsa.c **** 
 187:C:/Users/dtjld/workspace/AIoT/src/LiteOS_Lab/iot_link/network/dtls/mbedtls/mbedtls-2.16.2/library\rsa.c **** #if !defined(MBEDTLS_RSA_NO_CRT)
 188:C:/Users/dtjld/workspace/AIoT/src/LiteOS_Lab/iot_link/network/dtls/mbedtls/mbedtls-2.16.2/library\rsa.c ****     /* Modular exponentiation for P and Q is only
 189:C:/Users/dtjld/workspace/AIoT/src/LiteOS_Lab/iot_link/network/dtls/mbedtls/mbedtls-2.16.2/library\rsa.c ****      * used for private key operations and if CRT
 190:C:/Users/dtjld/workspace/AIoT/src/LiteOS_Lab/iot_link/network/dtls/mbedtls/mbedtls-2.16.2/library\rsa.c ****      * is used. */
 191:C:/Users/dtjld/workspace/AIoT/src/LiteOS_Lab/iot_link/network/dtls/mbedtls/mbedtls-2.16.2/library\rsa.c ****     if( is_priv &&
 478              		.loc 1 191 0
 479 0056 BB68     		ldr	r3, [r7, #8]
 480 0058 002B     		cmp	r3, #0
 481 005a 25D0     		beq	.L34
 192:C:/Users/dtjld/workspace/AIoT/src/LiteOS_Lab/iot_link/network/dtls/mbedtls/mbedtls-2.16.2/library\rsa.c ****         ( mbedtls_mpi_cmp_int( &ctx->P, 0 ) <= 0 ||
 482              		.loc 1 192 0 discriminator 1
 483 005c FB68     		ldr	r3, [r7, #12]
 484 005e 2C33     		adds	r3, r3, #44
 485 0060 0021     		movs	r1, #0
 486 0062 1846     		mov	r0, r3
 487 0064 FFF7FEFF 		bl	mbedtls_mpi_cmp_int
 488 0068 0346     		mov	r3, r0
 191:C:/Users/dtjld/workspace/AIoT/src/LiteOS_Lab/iot_link/network/dtls/mbedtls/mbedtls-2.16.2/library\rsa.c ****         ( mbedtls_mpi_cmp_int( &ctx->P, 0 ) <= 0 ||
 489              		.loc 1 191 0 discriminator 1
 490 006a 002B     		cmp	r3, #0
ARM GAS  C:\Users\dtjld\AppData\Local\Temp\cck1fUMg.s 			page 13


 491 006c 1ADD     		ble	.L35
 193:C:/Users/dtjld/workspace/AIoT/src/LiteOS_Lab/iot_link/network/dtls/mbedtls/mbedtls-2.16.2/library\rsa.c ****           mbedtls_mpi_get_bit( &ctx->P, 0 ) == 0 ||
 492              		.loc 1 193 0
 493 006e FB68     		ldr	r3, [r7, #12]
 494 0070 2C33     		adds	r3, r3, #44
 495 0072 0021     		movs	r1, #0
 496 0074 1846     		mov	r0, r3
 497 0076 FFF7FEFF 		bl	mbedtls_mpi_get_bit
 498 007a 0346     		mov	r3, r0
 192:C:/Users/dtjld/workspace/AIoT/src/LiteOS_Lab/iot_link/network/dtls/mbedtls/mbedtls-2.16.2/library\rsa.c ****         ( mbedtls_mpi_cmp_int( &ctx->P, 0 ) <= 0 ||
 499              		.loc 1 192 0
 500 007c 002B     		cmp	r3, #0
 501 007e 11D0     		beq	.L35
 194:C:/Users/dtjld/workspace/AIoT/src/LiteOS_Lab/iot_link/network/dtls/mbedtls/mbedtls-2.16.2/library\rsa.c ****           mbedtls_mpi_cmp_int( &ctx->Q, 0 ) <= 0 ||
 502              		.loc 1 194 0
 503 0080 FB68     		ldr	r3, [r7, #12]
 504 0082 3833     		adds	r3, r3, #56
 505 0084 0021     		movs	r1, #0
 506 0086 1846     		mov	r0, r3
 507 0088 FFF7FEFF 		bl	mbedtls_mpi_cmp_int
 508 008c 0346     		mov	r3, r0
 193:C:/Users/dtjld/workspace/AIoT/src/LiteOS_Lab/iot_link/network/dtls/mbedtls/mbedtls-2.16.2/library\rsa.c ****           mbedtls_mpi_get_bit( &ctx->P, 0 ) == 0 ||
 509              		.loc 1 193 0
 510 008e 002B     		cmp	r3, #0
 511 0090 08DD     		ble	.L35
 195:C:/Users/dtjld/workspace/AIoT/src/LiteOS_Lab/iot_link/network/dtls/mbedtls/mbedtls-2.16.2/library\rsa.c ****           mbedtls_mpi_get_bit( &ctx->Q, 0 ) == 0  ) )
 512              		.loc 1 195 0
 513 0092 FB68     		ldr	r3, [r7, #12]
 514 0094 3833     		adds	r3, r3, #56
 515 0096 0021     		movs	r1, #0
 516 0098 1846     		mov	r0, r3
 517 009a FFF7FEFF 		bl	mbedtls_mpi_get_bit
 518 009e 0346     		mov	r3, r0
 194:C:/Users/dtjld/workspace/AIoT/src/LiteOS_Lab/iot_link/network/dtls/mbedtls/mbedtls-2.16.2/library\rsa.c ****           mbedtls_mpi_cmp_int( &ctx->Q, 0 ) <= 0 ||
 519              		.loc 1 194 0
 520 00a0 002B     		cmp	r3, #0
 521 00a2 01D1     		bne	.L34
 522              	.L35:
 196:C:/Users/dtjld/workspace/AIoT/src/LiteOS_Lab/iot_link/network/dtls/mbedtls/mbedtls-2.16.2/library\rsa.c ****     {
 197:C:/Users/dtjld/workspace/AIoT/src/LiteOS_Lab/iot_link/network/dtls/mbedtls/mbedtls-2.16.2/library\rsa.c ****         return( MBEDTLS_ERR_RSA_BAD_INPUT_DATA );
 523              		.loc 1 197 0
 524 00a4 1B4B     		ldr	r3, .L40
 525 00a6 30E0     		b	.L31
 526              	.L34:
 198:C:/Users/dtjld/workspace/AIoT/src/LiteOS_Lab/iot_link/network/dtls/mbedtls/mbedtls-2.16.2/library\rsa.c ****     }
 199:C:/Users/dtjld/workspace/AIoT/src/LiteOS_Lab/iot_link/network/dtls/mbedtls/mbedtls-2.16.2/library\rsa.c **** #endif /* !MBEDTLS_RSA_NO_CRT */
 200:C:/Users/dtjld/workspace/AIoT/src/LiteOS_Lab/iot_link/network/dtls/mbedtls/mbedtls-2.16.2/library\rsa.c **** 
 201:C:/Users/dtjld/workspace/AIoT/src/LiteOS_Lab/iot_link/network/dtls/mbedtls/mbedtls-2.16.2/library\rsa.c ****     /*
 202:C:/Users/dtjld/workspace/AIoT/src/LiteOS_Lab/iot_link/network/dtls/mbedtls/mbedtls-2.16.2/library\rsa.c ****      * 2. Exponents must be positive
 203:C:/Users/dtjld/workspace/AIoT/src/LiteOS_Lab/iot_link/network/dtls/mbedtls/mbedtls-2.16.2/library\rsa.c ****      */
 204:C:/Users/dtjld/workspace/AIoT/src/LiteOS_Lab/iot_link/network/dtls/mbedtls/mbedtls-2.16.2/library\rsa.c **** 
 205:C:/Users/dtjld/workspace/AIoT/src/LiteOS_Lab/iot_link/network/dtls/mbedtls/mbedtls-2.16.2/library\rsa.c ****     /* Always need E for public key operations */
 206:C:/Users/dtjld/workspace/AIoT/src/LiteOS_Lab/iot_link/network/dtls/mbedtls/mbedtls-2.16.2/library\rsa.c ****     if( mbedtls_mpi_cmp_int( &ctx->E, 0 ) <= 0 )
 527              		.loc 1 206 0
 528 00a8 FB68     		ldr	r3, [r7, #12]
 529 00aa 1433     		adds	r3, r3, #20
 530 00ac 0021     		movs	r1, #0
ARM GAS  C:\Users\dtjld\AppData\Local\Temp\cck1fUMg.s 			page 14


 531 00ae 1846     		mov	r0, r3
 532 00b0 FFF7FEFF 		bl	mbedtls_mpi_cmp_int
 533 00b4 0346     		mov	r3, r0
 534 00b6 002B     		cmp	r3, #0
 535 00b8 01DC     		bgt	.L36
 207:C:/Users/dtjld/workspace/AIoT/src/LiteOS_Lab/iot_link/network/dtls/mbedtls/mbedtls-2.16.2/library\rsa.c ****         return( MBEDTLS_ERR_RSA_BAD_INPUT_DATA );
 536              		.loc 1 207 0
 537 00ba 164B     		ldr	r3, .L40
 538 00bc 25E0     		b	.L31
 539              	.L36:
 208:C:/Users/dtjld/workspace/AIoT/src/LiteOS_Lab/iot_link/network/dtls/mbedtls/mbedtls-2.16.2/library\rsa.c **** 
 209:C:/Users/dtjld/workspace/AIoT/src/LiteOS_Lab/iot_link/network/dtls/mbedtls/mbedtls-2.16.2/library\rsa.c **** #if defined(MBEDTLS_RSA_NO_CRT)
 210:C:/Users/dtjld/workspace/AIoT/src/LiteOS_Lab/iot_link/network/dtls/mbedtls/mbedtls-2.16.2/library\rsa.c ****     /* For private key operations, use D or DP & DQ
 211:C:/Users/dtjld/workspace/AIoT/src/LiteOS_Lab/iot_link/network/dtls/mbedtls/mbedtls-2.16.2/library\rsa.c ****      * as (unblinded) exponents. */
 212:C:/Users/dtjld/workspace/AIoT/src/LiteOS_Lab/iot_link/network/dtls/mbedtls/mbedtls-2.16.2/library\rsa.c ****     if( is_priv && mbedtls_mpi_cmp_int( &ctx->D, 0 ) <= 0 )
 213:C:/Users/dtjld/workspace/AIoT/src/LiteOS_Lab/iot_link/network/dtls/mbedtls/mbedtls-2.16.2/library\rsa.c ****         return( MBEDTLS_ERR_RSA_BAD_INPUT_DATA );
 214:C:/Users/dtjld/workspace/AIoT/src/LiteOS_Lab/iot_link/network/dtls/mbedtls/mbedtls-2.16.2/library\rsa.c **** #else
 215:C:/Users/dtjld/workspace/AIoT/src/LiteOS_Lab/iot_link/network/dtls/mbedtls/mbedtls-2.16.2/library\rsa.c ****     if( is_priv &&
 540              		.loc 1 215 0
 541 00be BB68     		ldr	r3, [r7, #8]
 542 00c0 002B     		cmp	r3, #0
 543 00c2 13D0     		beq	.L37
 216:C:/Users/dtjld/workspace/AIoT/src/LiteOS_Lab/iot_link/network/dtls/mbedtls/mbedtls-2.16.2/library\rsa.c ****         ( mbedtls_mpi_cmp_int( &ctx->DP, 0 ) <= 0 ||
 544              		.loc 1 216 0 discriminator 1
 545 00c4 FB68     		ldr	r3, [r7, #12]
 546 00c6 4433     		adds	r3, r3, #68
 547 00c8 0021     		movs	r1, #0
 548 00ca 1846     		mov	r0, r3
 549 00cc FFF7FEFF 		bl	mbedtls_mpi_cmp_int
 550 00d0 0346     		mov	r3, r0
 215:C:/Users/dtjld/workspace/AIoT/src/LiteOS_Lab/iot_link/network/dtls/mbedtls/mbedtls-2.16.2/library\rsa.c ****         ( mbedtls_mpi_cmp_int( &ctx->DP, 0 ) <= 0 ||
 551              		.loc 1 215 0 discriminator 1
 552 00d2 002B     		cmp	r3, #0
 553 00d4 08DD     		ble	.L38
 217:C:/Users/dtjld/workspace/AIoT/src/LiteOS_Lab/iot_link/network/dtls/mbedtls/mbedtls-2.16.2/library\rsa.c ****           mbedtls_mpi_cmp_int( &ctx->DQ, 0 ) <= 0  ) )
 554              		.loc 1 217 0
 555 00d6 FB68     		ldr	r3, [r7, #12]
 556 00d8 5033     		adds	r3, r3, #80
 557 00da 0021     		movs	r1, #0
 558 00dc 1846     		mov	r0, r3
 559 00de FFF7FEFF 		bl	mbedtls_mpi_cmp_int
 560 00e2 0346     		mov	r3, r0
 216:C:/Users/dtjld/workspace/AIoT/src/LiteOS_Lab/iot_link/network/dtls/mbedtls/mbedtls-2.16.2/library\rsa.c ****         ( mbedtls_mpi_cmp_int( &ctx->DP, 0 ) <= 0 ||
 561              		.loc 1 216 0
 562 00e4 002B     		cmp	r3, #0
 563 00e6 01DC     		bgt	.L37
 564              	.L38:
 218:C:/Users/dtjld/workspace/AIoT/src/LiteOS_Lab/iot_link/network/dtls/mbedtls/mbedtls-2.16.2/library\rsa.c ****     {
 219:C:/Users/dtjld/workspace/AIoT/src/LiteOS_Lab/iot_link/network/dtls/mbedtls/mbedtls-2.16.2/library\rsa.c ****         return( MBEDTLS_ERR_RSA_BAD_INPUT_DATA );
 565              		.loc 1 219 0
 566 00e8 0A4B     		ldr	r3, .L40
 567 00ea 0EE0     		b	.L31
 568              	.L37:
 220:C:/Users/dtjld/workspace/AIoT/src/LiteOS_Lab/iot_link/network/dtls/mbedtls/mbedtls-2.16.2/library\rsa.c ****     }
 221:C:/Users/dtjld/workspace/AIoT/src/LiteOS_Lab/iot_link/network/dtls/mbedtls/mbedtls-2.16.2/library\rsa.c **** #endif /* MBEDTLS_RSA_NO_CRT */
 222:C:/Users/dtjld/workspace/AIoT/src/LiteOS_Lab/iot_link/network/dtls/mbedtls/mbedtls-2.16.2/library\rsa.c **** 
 223:C:/Users/dtjld/workspace/AIoT/src/LiteOS_Lab/iot_link/network/dtls/mbedtls/mbedtls-2.16.2/library\rsa.c ****     /* Blinding shouldn't make exponents negative either,
ARM GAS  C:\Users\dtjld\AppData\Local\Temp\cck1fUMg.s 			page 15


 224:C:/Users/dtjld/workspace/AIoT/src/LiteOS_Lab/iot_link/network/dtls/mbedtls/mbedtls-2.16.2/library\rsa.c ****      * so check that P, Q >= 1 if that hasn't yet been
 225:C:/Users/dtjld/workspace/AIoT/src/LiteOS_Lab/iot_link/network/dtls/mbedtls/mbedtls-2.16.2/library\rsa.c ****      * done as part of 1. */
 226:C:/Users/dtjld/workspace/AIoT/src/LiteOS_Lab/iot_link/network/dtls/mbedtls/mbedtls-2.16.2/library\rsa.c **** #if defined(MBEDTLS_RSA_NO_CRT)
 227:C:/Users/dtjld/workspace/AIoT/src/LiteOS_Lab/iot_link/network/dtls/mbedtls/mbedtls-2.16.2/library\rsa.c ****     if( is_priv && blinding_needed &&
 228:C:/Users/dtjld/workspace/AIoT/src/LiteOS_Lab/iot_link/network/dtls/mbedtls/mbedtls-2.16.2/library\rsa.c ****         ( mbedtls_mpi_cmp_int( &ctx->P, 0 ) <= 0 ||
 229:C:/Users/dtjld/workspace/AIoT/src/LiteOS_Lab/iot_link/network/dtls/mbedtls/mbedtls-2.16.2/library\rsa.c ****           mbedtls_mpi_cmp_int( &ctx->Q, 0 ) <= 0 ) )
 230:C:/Users/dtjld/workspace/AIoT/src/LiteOS_Lab/iot_link/network/dtls/mbedtls/mbedtls-2.16.2/library\rsa.c ****     {
 231:C:/Users/dtjld/workspace/AIoT/src/LiteOS_Lab/iot_link/network/dtls/mbedtls/mbedtls-2.16.2/library\rsa.c ****         return( MBEDTLS_ERR_RSA_BAD_INPUT_DATA );
 232:C:/Users/dtjld/workspace/AIoT/src/LiteOS_Lab/iot_link/network/dtls/mbedtls/mbedtls-2.16.2/library\rsa.c ****     }
 233:C:/Users/dtjld/workspace/AIoT/src/LiteOS_Lab/iot_link/network/dtls/mbedtls/mbedtls-2.16.2/library\rsa.c **** #endif
 234:C:/Users/dtjld/workspace/AIoT/src/LiteOS_Lab/iot_link/network/dtls/mbedtls/mbedtls-2.16.2/library\rsa.c **** 
 235:C:/Users/dtjld/workspace/AIoT/src/LiteOS_Lab/iot_link/network/dtls/mbedtls/mbedtls-2.16.2/library\rsa.c ****     /* It wouldn't lead to an error if it wasn't satisfied,
 236:C:/Users/dtjld/workspace/AIoT/src/LiteOS_Lab/iot_link/network/dtls/mbedtls/mbedtls-2.16.2/library\rsa.c ****      * but check for QP >= 1 nonetheless. */
 237:C:/Users/dtjld/workspace/AIoT/src/LiteOS_Lab/iot_link/network/dtls/mbedtls/mbedtls-2.16.2/library\rsa.c **** #if !defined(MBEDTLS_RSA_NO_CRT)
 238:C:/Users/dtjld/workspace/AIoT/src/LiteOS_Lab/iot_link/network/dtls/mbedtls/mbedtls-2.16.2/library\rsa.c ****     if( is_priv &&
 569              		.loc 1 238 0
 570 00ec BB68     		ldr	r3, [r7, #8]
 571 00ee 002B     		cmp	r3, #0
 572 00f0 0AD0     		beq	.L39
 239:C:/Users/dtjld/workspace/AIoT/src/LiteOS_Lab/iot_link/network/dtls/mbedtls/mbedtls-2.16.2/library\rsa.c ****         mbedtls_mpi_cmp_int( &ctx->QP, 0 ) <= 0 )
 573              		.loc 1 239 0 discriminator 1
 574 00f2 FB68     		ldr	r3, [r7, #12]
 575 00f4 5C33     		adds	r3, r3, #92
 576 00f6 0021     		movs	r1, #0
 577 00f8 1846     		mov	r0, r3
 578 00fa FFF7FEFF 		bl	mbedtls_mpi_cmp_int
 579 00fe 0346     		mov	r3, r0
 238:C:/Users/dtjld/workspace/AIoT/src/LiteOS_Lab/iot_link/network/dtls/mbedtls/mbedtls-2.16.2/library\rsa.c ****         mbedtls_mpi_cmp_int( &ctx->QP, 0 ) <= 0 )
 580              		.loc 1 238 0 discriminator 1
 581 0100 002B     		cmp	r3, #0
 582 0102 01DC     		bgt	.L39
 240:C:/Users/dtjld/workspace/AIoT/src/LiteOS_Lab/iot_link/network/dtls/mbedtls/mbedtls-2.16.2/library\rsa.c ****     {
 241:C:/Users/dtjld/workspace/AIoT/src/LiteOS_Lab/iot_link/network/dtls/mbedtls/mbedtls-2.16.2/library\rsa.c ****         return( MBEDTLS_ERR_RSA_BAD_INPUT_DATA );
 583              		.loc 1 241 0
 584 0104 034B     		ldr	r3, .L40
 585 0106 00E0     		b	.L31
 586              	.L39:
 242:C:/Users/dtjld/workspace/AIoT/src/LiteOS_Lab/iot_link/network/dtls/mbedtls/mbedtls-2.16.2/library\rsa.c ****     }
 243:C:/Users/dtjld/workspace/AIoT/src/LiteOS_Lab/iot_link/network/dtls/mbedtls/mbedtls-2.16.2/library\rsa.c **** #endif
 244:C:/Users/dtjld/workspace/AIoT/src/LiteOS_Lab/iot_link/network/dtls/mbedtls/mbedtls-2.16.2/library\rsa.c **** 
 245:C:/Users/dtjld/workspace/AIoT/src/LiteOS_Lab/iot_link/network/dtls/mbedtls/mbedtls-2.16.2/library\rsa.c ****     return( 0 );
 587              		.loc 1 245 0
 588 0108 0023     		movs	r3, #0
 589              	.L31:
 246:C:/Users/dtjld/workspace/AIoT/src/LiteOS_Lab/iot_link/network/dtls/mbedtls/mbedtls-2.16.2/library\rsa.c **** }
 590              		.loc 1 246 0
 591 010a 1846     		mov	r0, r3
 592 010c 1437     		adds	r7, r7, #20
 593              	.LCFI19:
 594              		.cfi_def_cfa_offset 12
 595 010e BD46     		mov	sp, r7
 596              	.LCFI20:
 597              		.cfi_def_cfa_register 13
 598              		@ sp needed
 599 0110 90BD     		pop	{r4, r7, pc}
 600              	.L41:
 601 0112 00BF     		.align	2
ARM GAS  C:\Users\dtjld\AppData\Local\Temp\cck1fUMg.s 			page 16


 602              	.L40:
 603 0114 80BFFFFF 		.word	-16512
 604              		.cfi_endproc
 605              	.LFE16:
 607              		.section	.text.mbedtls_rsa_complete,"ax",%progbits
 608              		.align	1
 609              		.global	mbedtls_rsa_complete
 610              		.syntax unified
 611              		.thumb
 612              		.thumb_func
 613              		.fpu fpv4-sp-d16
 615              	mbedtls_rsa_complete:
 616              	.LFB17:
 247:C:/Users/dtjld/workspace/AIoT/src/LiteOS_Lab/iot_link/network/dtls/mbedtls/mbedtls-2.16.2/library\rsa.c **** 
 248:C:/Users/dtjld/workspace/AIoT/src/LiteOS_Lab/iot_link/network/dtls/mbedtls/mbedtls-2.16.2/library\rsa.c **** int mbedtls_rsa_complete( mbedtls_rsa_context *ctx )
 249:C:/Users/dtjld/workspace/AIoT/src/LiteOS_Lab/iot_link/network/dtls/mbedtls/mbedtls-2.16.2/library\rsa.c **** {
 617              		.loc 1 249 0
 618              		.cfi_startproc
 619              		@ args = 0, pretend = 0, frame = 56
 620              		@ frame_needed = 1, uses_anonymous_args = 0
 621 0000 B0B5     		push	{r4, r5, r7, lr}
 622              	.LCFI21:
 623              		.cfi_def_cfa_offset 16
 624              		.cfi_offset 4, -16
 625              		.cfi_offset 5, -12
 626              		.cfi_offset 7, -8
 627              		.cfi_offset 14, -4
 628 0002 90B0     		sub	sp, sp, #64
 629              	.LCFI22:
 630              		.cfi_def_cfa_offset 80
 631 0004 02AF     		add	r7, sp, #8
 632              	.LCFI23:
 633              		.cfi_def_cfa 7, 72
 634 0006 7860     		str	r0, [r7, #4]
 250:C:/Users/dtjld/workspace/AIoT/src/LiteOS_Lab/iot_link/network/dtls/mbedtls/mbedtls-2.16.2/library\rsa.c ****     int ret = 0;
 635              		.loc 1 250 0
 636 0008 0023     		movs	r3, #0
 637 000a 7B63     		str	r3, [r7, #52]
 251:C:/Users/dtjld/workspace/AIoT/src/LiteOS_Lab/iot_link/network/dtls/mbedtls/mbedtls-2.16.2/library\rsa.c ****     int have_N, have_P, have_Q, have_D, have_E;
 252:C:/Users/dtjld/workspace/AIoT/src/LiteOS_Lab/iot_link/network/dtls/mbedtls/mbedtls-2.16.2/library\rsa.c ****     int n_missing, pq_missing, d_missing, is_pub, is_priv;
 253:C:/Users/dtjld/workspace/AIoT/src/LiteOS_Lab/iot_link/network/dtls/mbedtls/mbedtls-2.16.2/library\rsa.c **** 
 254:C:/Users/dtjld/workspace/AIoT/src/LiteOS_Lab/iot_link/network/dtls/mbedtls/mbedtls-2.16.2/library\rsa.c ****     RSA_VALIDATE_RET( ctx != NULL );
 255:C:/Users/dtjld/workspace/AIoT/src/LiteOS_Lab/iot_link/network/dtls/mbedtls/mbedtls-2.16.2/library\rsa.c **** 
 256:C:/Users/dtjld/workspace/AIoT/src/LiteOS_Lab/iot_link/network/dtls/mbedtls/mbedtls-2.16.2/library\rsa.c ****     have_N = ( mbedtls_mpi_cmp_int( &ctx->N, 0 ) != 0 );
 638              		.loc 1 256 0
 639 000c 7B68     		ldr	r3, [r7, #4]
 640 000e 0833     		adds	r3, r3, #8
 641 0010 0021     		movs	r1, #0
 642 0012 1846     		mov	r0, r3
 643 0014 FFF7FEFF 		bl	mbedtls_mpi_cmp_int
 644 0018 0346     		mov	r3, r0
 645 001a 002B     		cmp	r3, #0
 646 001c 14BF     		ite	ne
 647 001e 0123     		movne	r3, #1
 648 0020 0023     		moveq	r3, #0
 649 0022 DBB2     		uxtb	r3, r3
 650 0024 3B63     		str	r3, [r7, #48]
ARM GAS  C:\Users\dtjld\AppData\Local\Temp\cck1fUMg.s 			page 17


 257:C:/Users/dtjld/workspace/AIoT/src/LiteOS_Lab/iot_link/network/dtls/mbedtls/mbedtls-2.16.2/library\rsa.c ****     have_P = ( mbedtls_mpi_cmp_int( &ctx->P, 0 ) != 0 );
 651              		.loc 1 257 0
 652 0026 7B68     		ldr	r3, [r7, #4]
 653 0028 2C33     		adds	r3, r3, #44
 654 002a 0021     		movs	r1, #0
 655 002c 1846     		mov	r0, r3
 656 002e FFF7FEFF 		bl	mbedtls_mpi_cmp_int
 657 0032 0346     		mov	r3, r0
 658 0034 002B     		cmp	r3, #0
 659 0036 14BF     		ite	ne
 660 0038 0123     		movne	r3, #1
 661 003a 0023     		moveq	r3, #0
 662 003c DBB2     		uxtb	r3, r3
 663 003e FB62     		str	r3, [r7, #44]
 258:C:/Users/dtjld/workspace/AIoT/src/LiteOS_Lab/iot_link/network/dtls/mbedtls/mbedtls-2.16.2/library\rsa.c ****     have_Q = ( mbedtls_mpi_cmp_int( &ctx->Q, 0 ) != 0 );
 664              		.loc 1 258 0
 665 0040 7B68     		ldr	r3, [r7, #4]
 666 0042 3833     		adds	r3, r3, #56
 667 0044 0021     		movs	r1, #0
 668 0046 1846     		mov	r0, r3
 669 0048 FFF7FEFF 		bl	mbedtls_mpi_cmp_int
 670 004c 0346     		mov	r3, r0
 671 004e 002B     		cmp	r3, #0
 672 0050 14BF     		ite	ne
 673 0052 0123     		movne	r3, #1
 674 0054 0023     		moveq	r3, #0
 675 0056 DBB2     		uxtb	r3, r3
 676 0058 BB62     		str	r3, [r7, #40]
 259:C:/Users/dtjld/workspace/AIoT/src/LiteOS_Lab/iot_link/network/dtls/mbedtls/mbedtls-2.16.2/library\rsa.c ****     have_D = ( mbedtls_mpi_cmp_int( &ctx->D, 0 ) != 0 );
 677              		.loc 1 259 0
 678 005a 7B68     		ldr	r3, [r7, #4]
 679 005c 2033     		adds	r3, r3, #32
 680 005e 0021     		movs	r1, #0
 681 0060 1846     		mov	r0, r3
 682 0062 FFF7FEFF 		bl	mbedtls_mpi_cmp_int
 683 0066 0346     		mov	r3, r0
 684 0068 002B     		cmp	r3, #0
 685 006a 14BF     		ite	ne
 686 006c 0123     		movne	r3, #1
 687 006e 0023     		moveq	r3, #0
 688 0070 DBB2     		uxtb	r3, r3
 689 0072 7B62     		str	r3, [r7, #36]
 260:C:/Users/dtjld/workspace/AIoT/src/LiteOS_Lab/iot_link/network/dtls/mbedtls/mbedtls-2.16.2/library\rsa.c ****     have_E = ( mbedtls_mpi_cmp_int( &ctx->E, 0 ) != 0 );
 690              		.loc 1 260 0
 691 0074 7B68     		ldr	r3, [r7, #4]
 692 0076 1433     		adds	r3, r3, #20
 693 0078 0021     		movs	r1, #0
 694 007a 1846     		mov	r0, r3
 695 007c FFF7FEFF 		bl	mbedtls_mpi_cmp_int
 696 0080 0346     		mov	r3, r0
 697 0082 002B     		cmp	r3, #0
 698 0084 14BF     		ite	ne
 699 0086 0123     		movne	r3, #1
 700 0088 0023     		moveq	r3, #0
 701 008a DBB2     		uxtb	r3, r3
 702 008c 3B62     		str	r3, [r7, #32]
 261:C:/Users/dtjld/workspace/AIoT/src/LiteOS_Lab/iot_link/network/dtls/mbedtls/mbedtls-2.16.2/library\rsa.c **** 
ARM GAS  C:\Users\dtjld\AppData\Local\Temp\cck1fUMg.s 			page 18


 262:C:/Users/dtjld/workspace/AIoT/src/LiteOS_Lab/iot_link/network/dtls/mbedtls/mbedtls-2.16.2/library\rsa.c ****     /*
 263:C:/Users/dtjld/workspace/AIoT/src/LiteOS_Lab/iot_link/network/dtls/mbedtls/mbedtls-2.16.2/library\rsa.c ****      * Check whether provided parameters are enough
 264:C:/Users/dtjld/workspace/AIoT/src/LiteOS_Lab/iot_link/network/dtls/mbedtls/mbedtls-2.16.2/library\rsa.c ****      * to deduce all others. The following incomplete
 265:C:/Users/dtjld/workspace/AIoT/src/LiteOS_Lab/iot_link/network/dtls/mbedtls/mbedtls-2.16.2/library\rsa.c ****      * parameter sets for private keys are supported:
 266:C:/Users/dtjld/workspace/AIoT/src/LiteOS_Lab/iot_link/network/dtls/mbedtls/mbedtls-2.16.2/library\rsa.c ****      *
 267:C:/Users/dtjld/workspace/AIoT/src/LiteOS_Lab/iot_link/network/dtls/mbedtls/mbedtls-2.16.2/library\rsa.c ****      * (1) P, Q missing.
 268:C:/Users/dtjld/workspace/AIoT/src/LiteOS_Lab/iot_link/network/dtls/mbedtls/mbedtls-2.16.2/library\rsa.c ****      * (2) D and potentially N missing.
 269:C:/Users/dtjld/workspace/AIoT/src/LiteOS_Lab/iot_link/network/dtls/mbedtls/mbedtls-2.16.2/library\rsa.c ****      *
 270:C:/Users/dtjld/workspace/AIoT/src/LiteOS_Lab/iot_link/network/dtls/mbedtls/mbedtls-2.16.2/library\rsa.c ****      */
 271:C:/Users/dtjld/workspace/AIoT/src/LiteOS_Lab/iot_link/network/dtls/mbedtls/mbedtls-2.16.2/library\rsa.c **** 
 272:C:/Users/dtjld/workspace/AIoT/src/LiteOS_Lab/iot_link/network/dtls/mbedtls/mbedtls-2.16.2/library\rsa.c ****     n_missing  =              have_P &&  have_Q &&  have_D && have_E;
 703              		.loc 1 272 0
 704 008e FB6A     		ldr	r3, [r7, #44]
 705 0090 002B     		cmp	r3, #0
 706 0092 0AD0     		beq	.L43
 707              		.loc 1 272 0 is_stmt 0 discriminator 1
 708 0094 BB6A     		ldr	r3, [r7, #40]
 709 0096 002B     		cmp	r3, #0
 710 0098 07D0     		beq	.L43
 711              		.loc 1 272 0 discriminator 3
 712 009a 7B6A     		ldr	r3, [r7, #36]
 713 009c 002B     		cmp	r3, #0
 714 009e 04D0     		beq	.L43
 715              		.loc 1 272 0 discriminator 5
 716 00a0 3B6A     		ldr	r3, [r7, #32]
 717 00a2 002B     		cmp	r3, #0
 718 00a4 01D0     		beq	.L43
 719              		.loc 1 272 0 discriminator 7
 720 00a6 0123     		movs	r3, #1
 721 00a8 00E0     		b	.L44
 722              	.L43:
 723              		.loc 1 272 0 discriminator 8
 724 00aa 0023     		movs	r3, #0
 725              	.L44:
 726              		.loc 1 272 0 discriminator 10
 727 00ac FB61     		str	r3, [r7, #28]
 273:C:/Users/dtjld/workspace/AIoT/src/LiteOS_Lab/iot_link/network/dtls/mbedtls/mbedtls-2.16.2/library\rsa.c ****     pq_missing =   have_N && !have_P && !have_Q &&  have_D && have_E;
 728              		.loc 1 273 0 is_stmt 1 discriminator 10
 729 00ae 3B6B     		ldr	r3, [r7, #48]
 730 00b0 002B     		cmp	r3, #0
 731 00b2 0DD0     		beq	.L45
 732              		.loc 1 273 0 is_stmt 0 discriminator 1
 733 00b4 FB6A     		ldr	r3, [r7, #44]
 734 00b6 002B     		cmp	r3, #0
 735 00b8 0AD1     		bne	.L45
 736              		.loc 1 273 0 discriminator 3
 737 00ba BB6A     		ldr	r3, [r7, #40]
 738 00bc 002B     		cmp	r3, #0
 739 00be 07D1     		bne	.L45
 740              		.loc 1 273 0 discriminator 5
 741 00c0 7B6A     		ldr	r3, [r7, #36]
 742 00c2 002B     		cmp	r3, #0
 743 00c4 04D0     		beq	.L45
 744              		.loc 1 273 0 discriminator 7
 745 00c6 3B6A     		ldr	r3, [r7, #32]
 746 00c8 002B     		cmp	r3, #0
 747 00ca 01D0     		beq	.L45
ARM GAS  C:\Users\dtjld\AppData\Local\Temp\cck1fUMg.s 			page 19


 748              		.loc 1 273 0 discriminator 9
 749 00cc 0123     		movs	r3, #1
 750 00ce 00E0     		b	.L46
 751              	.L45:
 752              		.loc 1 273 0 discriminator 10
 753 00d0 0023     		movs	r3, #0
 754              	.L46:
 755              		.loc 1 273 0 discriminator 12
 756 00d2 BB61     		str	r3, [r7, #24]
 274:C:/Users/dtjld/workspace/AIoT/src/LiteOS_Lab/iot_link/network/dtls/mbedtls/mbedtls-2.16.2/library\rsa.c ****     d_missing  =              have_P &&  have_Q && !have_D && have_E;
 757              		.loc 1 274 0 is_stmt 1 discriminator 12
 758 00d4 FB6A     		ldr	r3, [r7, #44]
 759 00d6 002B     		cmp	r3, #0
 760 00d8 0AD0     		beq	.L47
 761              		.loc 1 274 0 is_stmt 0 discriminator 1
 762 00da BB6A     		ldr	r3, [r7, #40]
 763 00dc 002B     		cmp	r3, #0
 764 00de 07D0     		beq	.L47
 765              		.loc 1 274 0 discriminator 3
 766 00e0 7B6A     		ldr	r3, [r7, #36]
 767 00e2 002B     		cmp	r3, #0
 768 00e4 04D1     		bne	.L47
 769              		.loc 1 274 0 discriminator 5
 770 00e6 3B6A     		ldr	r3, [r7, #32]
 771 00e8 002B     		cmp	r3, #0
 772 00ea 01D0     		beq	.L47
 773              		.loc 1 274 0 discriminator 7
 774 00ec 0123     		movs	r3, #1
 775 00ee 00E0     		b	.L48
 776              	.L47:
 777              		.loc 1 274 0 discriminator 8
 778 00f0 0023     		movs	r3, #0
 779              	.L48:
 780              		.loc 1 274 0 discriminator 10
 781 00f2 7B61     		str	r3, [r7, #20]
 275:C:/Users/dtjld/workspace/AIoT/src/LiteOS_Lab/iot_link/network/dtls/mbedtls/mbedtls-2.16.2/library\rsa.c ****     is_pub     =   have_N && !have_P && !have_Q && !have_D && have_E;
 782              		.loc 1 275 0 is_stmt 1 discriminator 10
 783 00f4 3B6B     		ldr	r3, [r7, #48]
 784 00f6 002B     		cmp	r3, #0
 785 00f8 0DD0     		beq	.L49
 786              		.loc 1 275 0 is_stmt 0 discriminator 1
 787 00fa FB6A     		ldr	r3, [r7, #44]
 788 00fc 002B     		cmp	r3, #0
 789 00fe 0AD1     		bne	.L49
 790              		.loc 1 275 0 discriminator 3
 791 0100 BB6A     		ldr	r3, [r7, #40]
 792 0102 002B     		cmp	r3, #0
 793 0104 07D1     		bne	.L49
 794              		.loc 1 275 0 discriminator 5
 795 0106 7B6A     		ldr	r3, [r7, #36]
 796 0108 002B     		cmp	r3, #0
 797 010a 04D1     		bne	.L49
 798              		.loc 1 275 0 discriminator 7
 799 010c 3B6A     		ldr	r3, [r7, #32]
 800 010e 002B     		cmp	r3, #0
 801 0110 01D0     		beq	.L49
 802              		.loc 1 275 0 discriminator 9
ARM GAS  C:\Users\dtjld\AppData\Local\Temp\cck1fUMg.s 			page 20


 803 0112 0123     		movs	r3, #1
 804 0114 00E0     		b	.L50
 805              	.L49:
 806              		.loc 1 275 0 discriminator 10
 807 0116 0023     		movs	r3, #0
 808              	.L50:
 809              		.loc 1 275 0 discriminator 12
 810 0118 3B61     		str	r3, [r7, #16]
 276:C:/Users/dtjld/workspace/AIoT/src/LiteOS_Lab/iot_link/network/dtls/mbedtls/mbedtls-2.16.2/library\rsa.c **** 
 277:C:/Users/dtjld/workspace/AIoT/src/LiteOS_Lab/iot_link/network/dtls/mbedtls/mbedtls-2.16.2/library\rsa.c ****     /* These three alternatives are mutually exclusive */
 278:C:/Users/dtjld/workspace/AIoT/src/LiteOS_Lab/iot_link/network/dtls/mbedtls/mbedtls-2.16.2/library\rsa.c ****     is_priv = n_missing || pq_missing || d_missing;
 811              		.loc 1 278 0 is_stmt 1 discriminator 12
 812 011a FB69     		ldr	r3, [r7, #28]
 813 011c 002B     		cmp	r3, #0
 814 011e 05D1     		bne	.L51
 815              		.loc 1 278 0 is_stmt 0 discriminator 2
 816 0120 BB69     		ldr	r3, [r7, #24]
 817 0122 002B     		cmp	r3, #0
 818 0124 02D1     		bne	.L51
 819              		.loc 1 278 0 discriminator 4
 820 0126 7B69     		ldr	r3, [r7, #20]
 821 0128 002B     		cmp	r3, #0
 822 012a 01D0     		beq	.L52
 823              	.L51:
 824              		.loc 1 278 0 discriminator 5
 825 012c 0123     		movs	r3, #1
 826 012e 00E0     		b	.L53
 827              	.L52:
 828              		.loc 1 278 0 discriminator 6
 829 0130 0023     		movs	r3, #0
 830              	.L53:
 831              		.loc 1 278 0 discriminator 8
 832 0132 FB60     		str	r3, [r7, #12]
 279:C:/Users/dtjld/workspace/AIoT/src/LiteOS_Lab/iot_link/network/dtls/mbedtls/mbedtls-2.16.2/library\rsa.c **** 
 280:C:/Users/dtjld/workspace/AIoT/src/LiteOS_Lab/iot_link/network/dtls/mbedtls/mbedtls-2.16.2/library\rsa.c ****     if( !is_priv && !is_pub )
 833              		.loc 1 280 0 is_stmt 1 discriminator 8
 834 0134 FB68     		ldr	r3, [r7, #12]
 835 0136 002B     		cmp	r3, #0
 836 0138 04D1     		bne	.L54
 837              		.loc 1 280 0 is_stmt 0 discriminator 1
 838 013a 3B69     		ldr	r3, [r7, #16]
 839 013c 002B     		cmp	r3, #0
 840 013e 01D1     		bne	.L54
 281:C:/Users/dtjld/workspace/AIoT/src/LiteOS_Lab/iot_link/network/dtls/mbedtls/mbedtls-2.16.2/library\rsa.c ****         return( MBEDTLS_ERR_RSA_BAD_INPUT_DATA );
 841              		.loc 1 281 0 is_stmt 1
 842 0140 424B     		ldr	r3, .L61
 843 0142 7FE0     		b	.L55
 844              	.L54:
 282:C:/Users/dtjld/workspace/AIoT/src/LiteOS_Lab/iot_link/network/dtls/mbedtls/mbedtls-2.16.2/library\rsa.c **** 
 283:C:/Users/dtjld/workspace/AIoT/src/LiteOS_Lab/iot_link/network/dtls/mbedtls/mbedtls-2.16.2/library\rsa.c ****     /*
 284:C:/Users/dtjld/workspace/AIoT/src/LiteOS_Lab/iot_link/network/dtls/mbedtls/mbedtls-2.16.2/library\rsa.c ****      * Step 1: Deduce N if P, Q are provided.
 285:C:/Users/dtjld/workspace/AIoT/src/LiteOS_Lab/iot_link/network/dtls/mbedtls/mbedtls-2.16.2/library\rsa.c ****      */
 286:C:/Users/dtjld/workspace/AIoT/src/LiteOS_Lab/iot_link/network/dtls/mbedtls/mbedtls-2.16.2/library\rsa.c **** 
 287:C:/Users/dtjld/workspace/AIoT/src/LiteOS_Lab/iot_link/network/dtls/mbedtls/mbedtls-2.16.2/library\rsa.c ****     if( !have_N && have_P && have_Q )
 845              		.loc 1 287 0
 846 0144 3B6B     		ldr	r3, [r7, #48]
 847 0146 002B     		cmp	r3, #0
ARM GAS  C:\Users\dtjld\AppData\Local\Temp\cck1fUMg.s 			page 21


 848 0148 20D1     		bne	.L56
 849              		.loc 1 287 0 is_stmt 0 discriminator 1
 850 014a FB6A     		ldr	r3, [r7, #44]
 851 014c 002B     		cmp	r3, #0
 852 014e 1DD0     		beq	.L56
 853              		.loc 1 287 0 discriminator 2
 854 0150 BB6A     		ldr	r3, [r7, #40]
 855 0152 002B     		cmp	r3, #0
 856 0154 1AD0     		beq	.L56
 288:C:/Users/dtjld/workspace/AIoT/src/LiteOS_Lab/iot_link/network/dtls/mbedtls/mbedtls-2.16.2/library\rsa.c ****     {
 289:C:/Users/dtjld/workspace/AIoT/src/LiteOS_Lab/iot_link/network/dtls/mbedtls/mbedtls-2.16.2/library\rsa.c ****         if( ( ret = mbedtls_mpi_mul_mpi( &ctx->N, &ctx->P,
 857              		.loc 1 289 0 is_stmt 1
 858 0156 7B68     		ldr	r3, [r7, #4]
 859 0158 03F10800 		add	r0, r3, #8
 860 015c 7B68     		ldr	r3, [r7, #4]
 861 015e 03F12C01 		add	r1, r3, #44
 290:C:/Users/dtjld/workspace/AIoT/src/LiteOS_Lab/iot_link/network/dtls/mbedtls/mbedtls-2.16.2/library\rsa.c ****                                          &ctx->Q ) ) != 0 )
 862              		.loc 1 290 0
 863 0162 7B68     		ldr	r3, [r7, #4]
 864 0164 3833     		adds	r3, r3, #56
 289:C:/Users/dtjld/workspace/AIoT/src/LiteOS_Lab/iot_link/network/dtls/mbedtls/mbedtls-2.16.2/library\rsa.c ****                                          &ctx->Q ) ) != 0 )
 865              		.loc 1 289 0
 866 0166 1A46     		mov	r2, r3
 867 0168 FFF7FEFF 		bl	mbedtls_mpi_mul_mpi
 868 016c 7863     		str	r0, [r7, #52]
 869 016e 7B6B     		ldr	r3, [r7, #52]
 870 0170 002B     		cmp	r3, #0
 871 0172 03D0     		beq	.L57
 291:C:/Users/dtjld/workspace/AIoT/src/LiteOS_Lab/iot_link/network/dtls/mbedtls/mbedtls-2.16.2/library\rsa.c ****         {
 292:C:/Users/dtjld/workspace/AIoT/src/LiteOS_Lab/iot_link/network/dtls/mbedtls/mbedtls-2.16.2/library\rsa.c ****             return( MBEDTLS_ERR_RSA_BAD_INPUT_DATA + ret );
 872              		.loc 1 292 0
 873 0174 7B6B     		ldr	r3, [r7, #52]
 874 0176 A3F58143 		sub	r3, r3, #16512
 875 017a 63E0     		b	.L55
 876              	.L57:
 293:C:/Users/dtjld/workspace/AIoT/src/LiteOS_Lab/iot_link/network/dtls/mbedtls/mbedtls-2.16.2/library\rsa.c ****         }
 294:C:/Users/dtjld/workspace/AIoT/src/LiteOS_Lab/iot_link/network/dtls/mbedtls/mbedtls-2.16.2/library\rsa.c **** 
 295:C:/Users/dtjld/workspace/AIoT/src/LiteOS_Lab/iot_link/network/dtls/mbedtls/mbedtls-2.16.2/library\rsa.c ****         ctx->len = mbedtls_mpi_size( &ctx->N );
 877              		.loc 1 295 0
 878 017c 7B68     		ldr	r3, [r7, #4]
 879 017e 0833     		adds	r3, r3, #8
 880 0180 1846     		mov	r0, r3
 881 0182 FFF7FEFF 		bl	mbedtls_mpi_size
 882 0186 0246     		mov	r2, r0
 883 0188 7B68     		ldr	r3, [r7, #4]
 884 018a 5A60     		str	r2, [r3, #4]
 885              	.L56:
 296:C:/Users/dtjld/workspace/AIoT/src/LiteOS_Lab/iot_link/network/dtls/mbedtls/mbedtls-2.16.2/library\rsa.c ****     }
 297:C:/Users/dtjld/workspace/AIoT/src/LiteOS_Lab/iot_link/network/dtls/mbedtls/mbedtls-2.16.2/library\rsa.c **** 
 298:C:/Users/dtjld/workspace/AIoT/src/LiteOS_Lab/iot_link/network/dtls/mbedtls/mbedtls-2.16.2/library\rsa.c ****     /*
 299:C:/Users/dtjld/workspace/AIoT/src/LiteOS_Lab/iot_link/network/dtls/mbedtls/mbedtls-2.16.2/library\rsa.c ****      * Step 2: Deduce and verify all remaining core parameters.
 300:C:/Users/dtjld/workspace/AIoT/src/LiteOS_Lab/iot_link/network/dtls/mbedtls/mbedtls-2.16.2/library\rsa.c ****      */
 301:C:/Users/dtjld/workspace/AIoT/src/LiteOS_Lab/iot_link/network/dtls/mbedtls/mbedtls-2.16.2/library\rsa.c **** 
 302:C:/Users/dtjld/workspace/AIoT/src/LiteOS_Lab/iot_link/network/dtls/mbedtls/mbedtls-2.16.2/library\rsa.c ****     if( pq_missing )
 886              		.loc 1 302 0
 887 018c BB69     		ldr	r3, [r7, #24]
 888 018e 002B     		cmp	r3, #0
ARM GAS  C:\Users\dtjld\AppData\Local\Temp\cck1fUMg.s 			page 22


 889 0190 19D0     		beq	.L58
 303:C:/Users/dtjld/workspace/AIoT/src/LiteOS_Lab/iot_link/network/dtls/mbedtls/mbedtls-2.16.2/library\rsa.c ****     {
 304:C:/Users/dtjld/workspace/AIoT/src/LiteOS_Lab/iot_link/network/dtls/mbedtls/mbedtls-2.16.2/library\rsa.c ****         ret = mbedtls_rsa_deduce_primes( &ctx->N, &ctx->E, &ctx->D,
 890              		.loc 1 304 0
 891 0192 7B68     		ldr	r3, [r7, #4]
 892 0194 03F10800 		add	r0, r3, #8
 893 0198 7B68     		ldr	r3, [r7, #4]
 894 019a 03F11401 		add	r1, r3, #20
 895 019e 7B68     		ldr	r3, [r7, #4]
 896 01a0 03F12002 		add	r2, r3, #32
 897 01a4 7B68     		ldr	r3, [r7, #4]
 898 01a6 03F12C04 		add	r4, r3, #44
 899 01aa 7B68     		ldr	r3, [r7, #4]
 900 01ac 3833     		adds	r3, r3, #56
 901 01ae 0093     		str	r3, [sp]
 902 01b0 2346     		mov	r3, r4
 903 01b2 FFF7FEFF 		bl	mbedtls_rsa_deduce_primes
 904 01b6 7863     		str	r0, [r7, #52]
 305:C:/Users/dtjld/workspace/AIoT/src/LiteOS_Lab/iot_link/network/dtls/mbedtls/mbedtls-2.16.2/library\rsa.c ****                                          &ctx->P, &ctx->Q );
 306:C:/Users/dtjld/workspace/AIoT/src/LiteOS_Lab/iot_link/network/dtls/mbedtls/mbedtls-2.16.2/library\rsa.c ****         if( ret != 0 )
 905              		.loc 1 306 0
 906 01b8 7B6B     		ldr	r3, [r7, #52]
 907 01ba 002B     		cmp	r3, #0
 908 01bc 1BD0     		beq	.L59
 307:C:/Users/dtjld/workspace/AIoT/src/LiteOS_Lab/iot_link/network/dtls/mbedtls/mbedtls-2.16.2/library\rsa.c ****             return( MBEDTLS_ERR_RSA_BAD_INPUT_DATA + ret );
 909              		.loc 1 307 0
 910 01be 7B6B     		ldr	r3, [r7, #52]
 911 01c0 A3F58143 		sub	r3, r3, #16512
 912 01c4 3EE0     		b	.L55
 913              	.L58:
 308:C:/Users/dtjld/workspace/AIoT/src/LiteOS_Lab/iot_link/network/dtls/mbedtls/mbedtls-2.16.2/library\rsa.c **** 
 309:C:/Users/dtjld/workspace/AIoT/src/LiteOS_Lab/iot_link/network/dtls/mbedtls/mbedtls-2.16.2/library\rsa.c ****     }
 310:C:/Users/dtjld/workspace/AIoT/src/LiteOS_Lab/iot_link/network/dtls/mbedtls/mbedtls-2.16.2/library\rsa.c ****     else if( d_missing )
 914              		.loc 1 310 0
 915 01c6 7B69     		ldr	r3, [r7, #20]
 916 01c8 002B     		cmp	r3, #0
 917 01ca 14D0     		beq	.L59
 311:C:/Users/dtjld/workspace/AIoT/src/LiteOS_Lab/iot_link/network/dtls/mbedtls/mbedtls-2.16.2/library\rsa.c ****     {
 312:C:/Users/dtjld/workspace/AIoT/src/LiteOS_Lab/iot_link/network/dtls/mbedtls/mbedtls-2.16.2/library\rsa.c ****         if( ( ret = mbedtls_rsa_deduce_private_exponent( &ctx->P,
 918              		.loc 1 312 0
 919 01cc 7B68     		ldr	r3, [r7, #4]
 920 01ce 03F12C00 		add	r0, r3, #44
 313:C:/Users/dtjld/workspace/AIoT/src/LiteOS_Lab/iot_link/network/dtls/mbedtls/mbedtls-2.16.2/library\rsa.c ****                                                          &ctx->Q,
 921              		.loc 1 313 0
 922 01d2 7B68     		ldr	r3, [r7, #4]
 923 01d4 03F13801 		add	r1, r3, #56
 314:C:/Users/dtjld/workspace/AIoT/src/LiteOS_Lab/iot_link/network/dtls/mbedtls/mbedtls-2.16.2/library\rsa.c ****                                                          &ctx->E,
 924              		.loc 1 314 0
 925 01d8 7B68     		ldr	r3, [r7, #4]
 926 01da 03F11402 		add	r2, r3, #20
 312:C:/Users/dtjld/workspace/AIoT/src/LiteOS_Lab/iot_link/network/dtls/mbedtls/mbedtls-2.16.2/library\rsa.c ****                                                          &ctx->Q,
 927              		.loc 1 312 0
 928 01de 7B68     		ldr	r3, [r7, #4]
 929 01e0 2033     		adds	r3, r3, #32
 930 01e2 FFF7FEFF 		bl	mbedtls_rsa_deduce_private_exponent
 931 01e6 7863     		str	r0, [r7, #52]
 932 01e8 7B6B     		ldr	r3, [r7, #52]
ARM GAS  C:\Users\dtjld\AppData\Local\Temp\cck1fUMg.s 			page 23


 933 01ea 002B     		cmp	r3, #0
 934 01ec 03D0     		beq	.L59
 315:C:/Users/dtjld/workspace/AIoT/src/LiteOS_Lab/iot_link/network/dtls/mbedtls/mbedtls-2.16.2/library\rsa.c ****                                                          &ctx->D ) ) != 0 )
 316:C:/Users/dtjld/workspace/AIoT/src/LiteOS_Lab/iot_link/network/dtls/mbedtls/mbedtls-2.16.2/library\rsa.c ****         {
 317:C:/Users/dtjld/workspace/AIoT/src/LiteOS_Lab/iot_link/network/dtls/mbedtls/mbedtls-2.16.2/library\rsa.c ****             return( MBEDTLS_ERR_RSA_BAD_INPUT_DATA + ret );
 935              		.loc 1 317 0
 936 01ee 7B6B     		ldr	r3, [r7, #52]
 937 01f0 A3F58143 		sub	r3, r3, #16512
 938 01f4 26E0     		b	.L55
 939              	.L59:
 318:C:/Users/dtjld/workspace/AIoT/src/LiteOS_Lab/iot_link/network/dtls/mbedtls/mbedtls-2.16.2/library\rsa.c ****         }
 319:C:/Users/dtjld/workspace/AIoT/src/LiteOS_Lab/iot_link/network/dtls/mbedtls/mbedtls-2.16.2/library\rsa.c ****     }
 320:C:/Users/dtjld/workspace/AIoT/src/LiteOS_Lab/iot_link/network/dtls/mbedtls/mbedtls-2.16.2/library\rsa.c **** 
 321:C:/Users/dtjld/workspace/AIoT/src/LiteOS_Lab/iot_link/network/dtls/mbedtls/mbedtls-2.16.2/library\rsa.c ****     /*
 322:C:/Users/dtjld/workspace/AIoT/src/LiteOS_Lab/iot_link/network/dtls/mbedtls/mbedtls-2.16.2/library\rsa.c ****      * Step 3: Deduce all additional parameters specific
 323:C:/Users/dtjld/workspace/AIoT/src/LiteOS_Lab/iot_link/network/dtls/mbedtls/mbedtls-2.16.2/library\rsa.c ****      *         to our current RSA implementation.
 324:C:/Users/dtjld/workspace/AIoT/src/LiteOS_Lab/iot_link/network/dtls/mbedtls/mbedtls-2.16.2/library\rsa.c ****      */
 325:C:/Users/dtjld/workspace/AIoT/src/LiteOS_Lab/iot_link/network/dtls/mbedtls/mbedtls-2.16.2/library\rsa.c **** 
 326:C:/Users/dtjld/workspace/AIoT/src/LiteOS_Lab/iot_link/network/dtls/mbedtls/mbedtls-2.16.2/library\rsa.c **** #if !defined(MBEDTLS_RSA_NO_CRT)
 327:C:/Users/dtjld/workspace/AIoT/src/LiteOS_Lab/iot_link/network/dtls/mbedtls/mbedtls-2.16.2/library\rsa.c ****     if( is_priv )
 940              		.loc 1 327 0
 941 01f6 FB68     		ldr	r3, [r7, #12]
 942 01f8 002B     		cmp	r3, #0
 943 01fa 1DD0     		beq	.L60
 328:C:/Users/dtjld/workspace/AIoT/src/LiteOS_Lab/iot_link/network/dtls/mbedtls/mbedtls-2.16.2/library\rsa.c ****     {
 329:C:/Users/dtjld/workspace/AIoT/src/LiteOS_Lab/iot_link/network/dtls/mbedtls/mbedtls-2.16.2/library\rsa.c ****         ret = mbedtls_rsa_deduce_crt( &ctx->P,  &ctx->Q,  &ctx->D,
 944              		.loc 1 329 0
 945 01fc 7B68     		ldr	r3, [r7, #4]
 946 01fe 03F12C00 		add	r0, r3, #44
 947 0202 7B68     		ldr	r3, [r7, #4]
 948 0204 03F13801 		add	r1, r3, #56
 949 0208 7B68     		ldr	r3, [r7, #4]
 950 020a 03F12004 		add	r4, r3, #32
 951 020e 7B68     		ldr	r3, [r7, #4]
 952 0210 03F14405 		add	r5, r3, #68
 953 0214 7B68     		ldr	r3, [r7, #4]
 954 0216 5033     		adds	r3, r3, #80
 955 0218 7A68     		ldr	r2, [r7, #4]
 956 021a 5C32     		adds	r2, r2, #92
 957 021c 0192     		str	r2, [sp, #4]
 958 021e 0093     		str	r3, [sp]
 959 0220 2B46     		mov	r3, r5
 960 0222 2246     		mov	r2, r4
 961 0224 FFF7FEFF 		bl	mbedtls_rsa_deduce_crt
 962 0228 7863     		str	r0, [r7, #52]
 330:C:/Users/dtjld/workspace/AIoT/src/LiteOS_Lab/iot_link/network/dtls/mbedtls/mbedtls-2.16.2/library\rsa.c ****                                       &ctx->DP, &ctx->DQ, &ctx->QP );
 331:C:/Users/dtjld/workspace/AIoT/src/LiteOS_Lab/iot_link/network/dtls/mbedtls/mbedtls-2.16.2/library\rsa.c ****         if( ret != 0 )
 963              		.loc 1 331 0
 964 022a 7B6B     		ldr	r3, [r7, #52]
 965 022c 002B     		cmp	r3, #0
 966 022e 03D0     		beq	.L60
 332:C:/Users/dtjld/workspace/AIoT/src/LiteOS_Lab/iot_link/network/dtls/mbedtls/mbedtls-2.16.2/library\rsa.c ****             return( MBEDTLS_ERR_RSA_BAD_INPUT_DATA + ret );
 967              		.loc 1 332 0
 968 0230 7B6B     		ldr	r3, [r7, #52]
 969 0232 A3F58143 		sub	r3, r3, #16512
 970 0236 05E0     		b	.L55
 971              	.L60:
ARM GAS  C:\Users\dtjld\AppData\Local\Temp\cck1fUMg.s 			page 24


 333:C:/Users/dtjld/workspace/AIoT/src/LiteOS_Lab/iot_link/network/dtls/mbedtls/mbedtls-2.16.2/library\rsa.c ****     }
 334:C:/Users/dtjld/workspace/AIoT/src/LiteOS_Lab/iot_link/network/dtls/mbedtls/mbedtls-2.16.2/library\rsa.c **** #endif /* MBEDTLS_RSA_NO_CRT */
 335:C:/Users/dtjld/workspace/AIoT/src/LiteOS_Lab/iot_link/network/dtls/mbedtls/mbedtls-2.16.2/library\rsa.c **** 
 336:C:/Users/dtjld/workspace/AIoT/src/LiteOS_Lab/iot_link/network/dtls/mbedtls/mbedtls-2.16.2/library\rsa.c ****     /*
 337:C:/Users/dtjld/workspace/AIoT/src/LiteOS_Lab/iot_link/network/dtls/mbedtls/mbedtls-2.16.2/library\rsa.c ****      * Step 3: Basic sanity checks
 338:C:/Users/dtjld/workspace/AIoT/src/LiteOS_Lab/iot_link/network/dtls/mbedtls/mbedtls-2.16.2/library\rsa.c ****      */
 339:C:/Users/dtjld/workspace/AIoT/src/LiteOS_Lab/iot_link/network/dtls/mbedtls/mbedtls-2.16.2/library\rsa.c **** 
 340:C:/Users/dtjld/workspace/AIoT/src/LiteOS_Lab/iot_link/network/dtls/mbedtls/mbedtls-2.16.2/library\rsa.c ****     return( rsa_check_context( ctx, is_priv, 1 ) );
 972              		.loc 1 340 0
 973 0238 0122     		movs	r2, #1
 974 023a F968     		ldr	r1, [r7, #12]
 975 023c 7868     		ldr	r0, [r7, #4]
 976 023e FFF7FEFF 		bl	rsa_check_context
 977 0242 0346     		mov	r3, r0
 978              	.L55:
 341:C:/Users/dtjld/workspace/AIoT/src/LiteOS_Lab/iot_link/network/dtls/mbedtls/mbedtls-2.16.2/library\rsa.c **** }
 979              		.loc 1 341 0
 980 0244 1846     		mov	r0, r3
 981 0246 3837     		adds	r7, r7, #56
 982              	.LCFI24:
 983              		.cfi_def_cfa_offset 16
 984 0248 BD46     		mov	sp, r7
 985              	.LCFI25:
 986              		.cfi_def_cfa_register 13
 987              		@ sp needed
 988 024a B0BD     		pop	{r4, r5, r7, pc}
 989              	.L62:
 990              		.align	2
 991              	.L61:
 992 024c 80BFFFFF 		.word	-16512
 993              		.cfi_endproc
 994              	.LFE17:
 996              		.section	.text.mbedtls_rsa_export_raw,"ax",%progbits
 997              		.align	1
 998              		.global	mbedtls_rsa_export_raw
 999              		.syntax unified
 1000              		.thumb
 1001              		.thumb_func
 1002              		.fpu fpv4-sp-d16
 1004              	mbedtls_rsa_export_raw:
 1005              	.LFB18:
 342:C:/Users/dtjld/workspace/AIoT/src/LiteOS_Lab/iot_link/network/dtls/mbedtls/mbedtls-2.16.2/library\rsa.c **** 
 343:C:/Users/dtjld/workspace/AIoT/src/LiteOS_Lab/iot_link/network/dtls/mbedtls/mbedtls-2.16.2/library\rsa.c **** int mbedtls_rsa_export_raw( const mbedtls_rsa_context *ctx,
 344:C:/Users/dtjld/workspace/AIoT/src/LiteOS_Lab/iot_link/network/dtls/mbedtls/mbedtls-2.16.2/library\rsa.c ****                             unsigned char *N, size_t N_len,
 345:C:/Users/dtjld/workspace/AIoT/src/LiteOS_Lab/iot_link/network/dtls/mbedtls/mbedtls-2.16.2/library\rsa.c ****                             unsigned char *P, size_t P_len,
 346:C:/Users/dtjld/workspace/AIoT/src/LiteOS_Lab/iot_link/network/dtls/mbedtls/mbedtls-2.16.2/library\rsa.c ****                             unsigned char *Q, size_t Q_len,
 347:C:/Users/dtjld/workspace/AIoT/src/LiteOS_Lab/iot_link/network/dtls/mbedtls/mbedtls-2.16.2/library\rsa.c ****                             unsigned char *D, size_t D_len,
 348:C:/Users/dtjld/workspace/AIoT/src/LiteOS_Lab/iot_link/network/dtls/mbedtls/mbedtls-2.16.2/library\rsa.c ****                             unsigned char *E, size_t E_len )
 349:C:/Users/dtjld/workspace/AIoT/src/LiteOS_Lab/iot_link/network/dtls/mbedtls/mbedtls-2.16.2/library\rsa.c **** {
 1006              		.loc 1 349 0
 1007              		.cfi_startproc
 1008              		@ args = 28, pretend = 0, frame = 24
 1009              		@ frame_needed = 1, uses_anonymous_args = 0
 1010 0000 80B5     		push	{r7, lr}
 1011              	.LCFI26:
 1012              		.cfi_def_cfa_offset 8
 1013              		.cfi_offset 7, -8
ARM GAS  C:\Users\dtjld\AppData\Local\Temp\cck1fUMg.s 			page 25


 1014              		.cfi_offset 14, -4
 1015 0002 86B0     		sub	sp, sp, #24
 1016              	.LCFI27:
 1017              		.cfi_def_cfa_offset 32
 1018 0004 00AF     		add	r7, sp, #0
 1019              	.LCFI28:
 1020              		.cfi_def_cfa_register 7
 1021 0006 F860     		str	r0, [r7, #12]
 1022 0008 B960     		str	r1, [r7, #8]
 1023 000a 7A60     		str	r2, [r7, #4]
 1024 000c 3B60     		str	r3, [r7]
 350:C:/Users/dtjld/workspace/AIoT/src/LiteOS_Lab/iot_link/network/dtls/mbedtls/mbedtls-2.16.2/library\rsa.c ****     int ret = 0;
 1025              		.loc 1 350 0
 1026 000e 0023     		movs	r3, #0
 1027 0010 7B61     		str	r3, [r7, #20]
 351:C:/Users/dtjld/workspace/AIoT/src/LiteOS_Lab/iot_link/network/dtls/mbedtls/mbedtls-2.16.2/library\rsa.c ****     int is_priv;
 352:C:/Users/dtjld/workspace/AIoT/src/LiteOS_Lab/iot_link/network/dtls/mbedtls/mbedtls-2.16.2/library\rsa.c ****     RSA_VALIDATE_RET( ctx != NULL );
 353:C:/Users/dtjld/workspace/AIoT/src/LiteOS_Lab/iot_link/network/dtls/mbedtls/mbedtls-2.16.2/library\rsa.c **** 
 354:C:/Users/dtjld/workspace/AIoT/src/LiteOS_Lab/iot_link/network/dtls/mbedtls/mbedtls-2.16.2/library\rsa.c ****     /* Check if key is private or public */
 355:C:/Users/dtjld/workspace/AIoT/src/LiteOS_Lab/iot_link/network/dtls/mbedtls/mbedtls-2.16.2/library\rsa.c ****     is_priv =
 356:C:/Users/dtjld/workspace/AIoT/src/LiteOS_Lab/iot_link/network/dtls/mbedtls/mbedtls-2.16.2/library\rsa.c ****         mbedtls_mpi_cmp_int( &ctx->N, 0 ) != 0 &&
 1028              		.loc 1 356 0
 1029 0012 FB68     		ldr	r3, [r7, #12]
 1030 0014 0833     		adds	r3, r3, #8
 1031 0016 0021     		movs	r1, #0
 1032 0018 1846     		mov	r0, r3
 1033 001a FFF7FEFF 		bl	mbedtls_mpi_cmp_int
 1034 001e 0346     		mov	r3, r0
 357:C:/Users/dtjld/workspace/AIoT/src/LiteOS_Lab/iot_link/network/dtls/mbedtls/mbedtls-2.16.2/library\rsa.c ****         mbedtls_mpi_cmp_int( &ctx->P, 0 ) != 0 &&
 358:C:/Users/dtjld/workspace/AIoT/src/LiteOS_Lab/iot_link/network/dtls/mbedtls/mbedtls-2.16.2/library\rsa.c ****         mbedtls_mpi_cmp_int( &ctx->Q, 0 ) != 0 &&
 359:C:/Users/dtjld/workspace/AIoT/src/LiteOS_Lab/iot_link/network/dtls/mbedtls/mbedtls-2.16.2/library\rsa.c ****         mbedtls_mpi_cmp_int( &ctx->D, 0 ) != 0 &&
 1035              		.loc 1 359 0
 1036 0020 002B     		cmp	r3, #0
 1037 0022 25D0     		beq	.L64
 357:C:/Users/dtjld/workspace/AIoT/src/LiteOS_Lab/iot_link/network/dtls/mbedtls/mbedtls-2.16.2/library\rsa.c ****         mbedtls_mpi_cmp_int( &ctx->P, 0 ) != 0 &&
 1038              		.loc 1 357 0
 1039 0024 FB68     		ldr	r3, [r7, #12]
 1040 0026 2C33     		adds	r3, r3, #44
 1041 0028 0021     		movs	r1, #0
 1042 002a 1846     		mov	r0, r3
 1043 002c FFF7FEFF 		bl	mbedtls_mpi_cmp_int
 1044 0030 0346     		mov	r3, r0
 356:C:/Users/dtjld/workspace/AIoT/src/LiteOS_Lab/iot_link/network/dtls/mbedtls/mbedtls-2.16.2/library\rsa.c ****         mbedtls_mpi_cmp_int( &ctx->P, 0 ) != 0 &&
 1045              		.loc 1 356 0
 1046 0032 002B     		cmp	r3, #0
 1047 0034 1CD0     		beq	.L64
 358:C:/Users/dtjld/workspace/AIoT/src/LiteOS_Lab/iot_link/network/dtls/mbedtls/mbedtls-2.16.2/library\rsa.c ****         mbedtls_mpi_cmp_int( &ctx->D, 0 ) != 0 &&
 1048              		.loc 1 358 0
 1049 0036 FB68     		ldr	r3, [r7, #12]
 1050 0038 3833     		adds	r3, r3, #56
 1051 003a 0021     		movs	r1, #0
 1052 003c 1846     		mov	r0, r3
 1053 003e FFF7FEFF 		bl	mbedtls_mpi_cmp_int
 1054 0042 0346     		mov	r3, r0
 357:C:/Users/dtjld/workspace/AIoT/src/LiteOS_Lab/iot_link/network/dtls/mbedtls/mbedtls-2.16.2/library\rsa.c ****         mbedtls_mpi_cmp_int( &ctx->P, 0 ) != 0 &&
 1055              		.loc 1 357 0
 1056 0044 002B     		cmp	r3, #0
ARM GAS  C:\Users\dtjld\AppData\Local\Temp\cck1fUMg.s 			page 26


 1057 0046 13D0     		beq	.L64
 1058              		.loc 1 359 0
 1059 0048 FB68     		ldr	r3, [r7, #12]
 1060 004a 2033     		adds	r3, r3, #32
 1061 004c 0021     		movs	r1, #0
 1062 004e 1846     		mov	r0, r3
 1063 0050 FFF7FEFF 		bl	mbedtls_mpi_cmp_int
 1064 0054 0346     		mov	r3, r0
 358:C:/Users/dtjld/workspace/AIoT/src/LiteOS_Lab/iot_link/network/dtls/mbedtls/mbedtls-2.16.2/library\rsa.c ****         mbedtls_mpi_cmp_int( &ctx->D, 0 ) != 0 &&
 1065              		.loc 1 358 0
 1066 0056 002B     		cmp	r3, #0
 1067 0058 0AD0     		beq	.L64
 360:C:/Users/dtjld/workspace/AIoT/src/LiteOS_Lab/iot_link/network/dtls/mbedtls/mbedtls-2.16.2/library\rsa.c ****         mbedtls_mpi_cmp_int( &ctx->E, 0 ) != 0;
 1068              		.loc 1 360 0 discriminator 3
 1069 005a FB68     		ldr	r3, [r7, #12]
 1070 005c 1433     		adds	r3, r3, #20
 1071 005e 0021     		movs	r1, #0
 1072 0060 1846     		mov	r0, r3
 1073 0062 FFF7FEFF 		bl	mbedtls_mpi_cmp_int
 1074 0066 0346     		mov	r3, r0
 359:C:/Users/dtjld/workspace/AIoT/src/LiteOS_Lab/iot_link/network/dtls/mbedtls/mbedtls-2.16.2/library\rsa.c ****         mbedtls_mpi_cmp_int( &ctx->E, 0 ) != 0;
 1075              		.loc 1 359 0 discriminator 3
 1076 0068 002B     		cmp	r3, #0
 1077 006a 01D0     		beq	.L64
 359:C:/Users/dtjld/workspace/AIoT/src/LiteOS_Lab/iot_link/network/dtls/mbedtls/mbedtls-2.16.2/library\rsa.c ****         mbedtls_mpi_cmp_int( &ctx->E, 0 ) != 0;
 1078              		.loc 1 359 0 is_stmt 0 discriminator 2
 1079 006c 0123     		movs	r3, #1
 1080 006e 00E0     		b	.L65
 1081              	.L64:
 359:C:/Users/dtjld/workspace/AIoT/src/LiteOS_Lab/iot_link/network/dtls/mbedtls/mbedtls-2.16.2/library\rsa.c ****         mbedtls_mpi_cmp_int( &ctx->E, 0 ) != 0;
 1082              		.loc 1 359 0 discriminator 1
 1083 0070 0023     		movs	r3, #0
 1084              	.L65:
 355:C:/Users/dtjld/workspace/AIoT/src/LiteOS_Lab/iot_link/network/dtls/mbedtls/mbedtls-2.16.2/library\rsa.c ****         mbedtls_mpi_cmp_int( &ctx->N, 0 ) != 0 &&
 1085              		.loc 1 355 0 is_stmt 1
 1086 0072 3B61     		str	r3, [r7, #16]
 361:C:/Users/dtjld/workspace/AIoT/src/LiteOS_Lab/iot_link/network/dtls/mbedtls/mbedtls-2.16.2/library\rsa.c **** 
 362:C:/Users/dtjld/workspace/AIoT/src/LiteOS_Lab/iot_link/network/dtls/mbedtls/mbedtls-2.16.2/library\rsa.c ****     if( !is_priv )
 1087              		.loc 1 362 0
 1088 0074 3B69     		ldr	r3, [r7, #16]
 1089 0076 002B     		cmp	r3, #0
 1090 0078 0AD1     		bne	.L66
 363:C:/Users/dtjld/workspace/AIoT/src/LiteOS_Lab/iot_link/network/dtls/mbedtls/mbedtls-2.16.2/library\rsa.c ****     {
 364:C:/Users/dtjld/workspace/AIoT/src/LiteOS_Lab/iot_link/network/dtls/mbedtls/mbedtls-2.16.2/library\rsa.c ****         /* If we're trying to export private parameters for a public key,
 365:C:/Users/dtjld/workspace/AIoT/src/LiteOS_Lab/iot_link/network/dtls/mbedtls/mbedtls-2.16.2/library\rsa.c ****          * something must be wrong. */
 366:C:/Users/dtjld/workspace/AIoT/src/LiteOS_Lab/iot_link/network/dtls/mbedtls/mbedtls-2.16.2/library\rsa.c ****         if( P != NULL || Q != NULL || D != NULL )
 1091              		.loc 1 366 0
 1092 007a 3B68     		ldr	r3, [r7]
 1093 007c 002B     		cmp	r3, #0
 1094 007e 05D1     		bne	.L67
 1095              		.loc 1 366 0 is_stmt 0 discriminator 1
 1096 0080 7B6A     		ldr	r3, [r7, #36]
 1097 0082 002B     		cmp	r3, #0
 1098 0084 02D1     		bne	.L67
 1099              		.loc 1 366 0 discriminator 2
 1100 0086 FB6A     		ldr	r3, [r7, #44]
 1101 0088 002B     		cmp	r3, #0
ARM GAS  C:\Users\dtjld\AppData\Local\Temp\cck1fUMg.s 			page 27


 1102 008a 01D0     		beq	.L66
 1103              	.L67:
 367:C:/Users/dtjld/workspace/AIoT/src/LiteOS_Lab/iot_link/network/dtls/mbedtls/mbedtls-2.16.2/library\rsa.c ****             return( MBEDTLS_ERR_RSA_BAD_INPUT_DATA );
 1104              		.loc 1 367 0 is_stmt 1
 1105 008c 2A4B     		ldr	r3, .L79
 1106 008e 4FE0     		b	.L68
 1107              	.L66:
 368:C:/Users/dtjld/workspace/AIoT/src/LiteOS_Lab/iot_link/network/dtls/mbedtls/mbedtls-2.16.2/library\rsa.c **** 
 369:C:/Users/dtjld/workspace/AIoT/src/LiteOS_Lab/iot_link/network/dtls/mbedtls/mbedtls-2.16.2/library\rsa.c ****     }
 370:C:/Users/dtjld/workspace/AIoT/src/LiteOS_Lab/iot_link/network/dtls/mbedtls/mbedtls-2.16.2/library\rsa.c **** 
 371:C:/Users/dtjld/workspace/AIoT/src/LiteOS_Lab/iot_link/network/dtls/mbedtls/mbedtls-2.16.2/library\rsa.c ****     if( N != NULL )
 1108              		.loc 1 371 0
 1109 0090 BB68     		ldr	r3, [r7, #8]
 1110 0092 002B     		cmp	r3, #0
 1111 0094 0AD0     		beq	.L69
 372:C:/Users/dtjld/workspace/AIoT/src/LiteOS_Lab/iot_link/network/dtls/mbedtls/mbedtls-2.16.2/library\rsa.c ****         MBEDTLS_MPI_CHK( mbedtls_mpi_write_binary( &ctx->N, N, N_len ) );
 1112              		.loc 1 372 0
 1113 0096 FB68     		ldr	r3, [r7, #12]
 1114 0098 0833     		adds	r3, r3, #8
 1115 009a 7A68     		ldr	r2, [r7, #4]
 1116 009c B968     		ldr	r1, [r7, #8]
 1117 009e 1846     		mov	r0, r3
 1118 00a0 FFF7FEFF 		bl	mbedtls_mpi_write_binary
 1119 00a4 7861     		str	r0, [r7, #20]
 1120 00a6 7B69     		ldr	r3, [r7, #20]
 1121 00a8 002B     		cmp	r3, #0
 1122 00aa 37D1     		bne	.L74
 1123              	.L69:
 373:C:/Users/dtjld/workspace/AIoT/src/LiteOS_Lab/iot_link/network/dtls/mbedtls/mbedtls-2.16.2/library\rsa.c **** 
 374:C:/Users/dtjld/workspace/AIoT/src/LiteOS_Lab/iot_link/network/dtls/mbedtls/mbedtls-2.16.2/library\rsa.c ****     if( P != NULL )
 1124              		.loc 1 374 0
 1125 00ac 3B68     		ldr	r3, [r7]
 1126 00ae 002B     		cmp	r3, #0
 1127 00b0 0AD0     		beq	.L71
 375:C:/Users/dtjld/workspace/AIoT/src/LiteOS_Lab/iot_link/network/dtls/mbedtls/mbedtls-2.16.2/library\rsa.c ****         MBEDTLS_MPI_CHK( mbedtls_mpi_write_binary( &ctx->P, P, P_len ) );
 1128              		.loc 1 375 0
 1129 00b2 FB68     		ldr	r3, [r7, #12]
 1130 00b4 2C33     		adds	r3, r3, #44
 1131 00b6 3A6A     		ldr	r2, [r7, #32]
 1132 00b8 3968     		ldr	r1, [r7]
 1133 00ba 1846     		mov	r0, r3
 1134 00bc FFF7FEFF 		bl	mbedtls_mpi_write_binary
 1135 00c0 7861     		str	r0, [r7, #20]
 1136 00c2 7B69     		ldr	r3, [r7, #20]
 1137 00c4 002B     		cmp	r3, #0
 1138 00c6 2BD1     		bne	.L75
 1139              	.L71:
 376:C:/Users/dtjld/workspace/AIoT/src/LiteOS_Lab/iot_link/network/dtls/mbedtls/mbedtls-2.16.2/library\rsa.c **** 
 377:C:/Users/dtjld/workspace/AIoT/src/LiteOS_Lab/iot_link/network/dtls/mbedtls/mbedtls-2.16.2/library\rsa.c ****     if( Q != NULL )
 1140              		.loc 1 377 0
 1141 00c8 7B6A     		ldr	r3, [r7, #36]
 1142 00ca 002B     		cmp	r3, #0
 1143 00cc 0AD0     		beq	.L72
 378:C:/Users/dtjld/workspace/AIoT/src/LiteOS_Lab/iot_link/network/dtls/mbedtls/mbedtls-2.16.2/library\rsa.c ****         MBEDTLS_MPI_CHK( mbedtls_mpi_write_binary( &ctx->Q, Q, Q_len ) );
 1144              		.loc 1 378 0
 1145 00ce FB68     		ldr	r3, [r7, #12]
 1146 00d0 3833     		adds	r3, r3, #56
ARM GAS  C:\Users\dtjld\AppData\Local\Temp\cck1fUMg.s 			page 28


 1147 00d2 BA6A     		ldr	r2, [r7, #40]
 1148 00d4 796A     		ldr	r1, [r7, #36]
 1149 00d6 1846     		mov	r0, r3
 1150 00d8 FFF7FEFF 		bl	mbedtls_mpi_write_binary
 1151 00dc 7861     		str	r0, [r7, #20]
 1152 00de 7B69     		ldr	r3, [r7, #20]
 1153 00e0 002B     		cmp	r3, #0
 1154 00e2 1FD1     		bne	.L76
 1155              	.L72:
 379:C:/Users/dtjld/workspace/AIoT/src/LiteOS_Lab/iot_link/network/dtls/mbedtls/mbedtls-2.16.2/library\rsa.c **** 
 380:C:/Users/dtjld/workspace/AIoT/src/LiteOS_Lab/iot_link/network/dtls/mbedtls/mbedtls-2.16.2/library\rsa.c ****     if( D != NULL )
 1156              		.loc 1 380 0
 1157 00e4 FB6A     		ldr	r3, [r7, #44]
 1158 00e6 002B     		cmp	r3, #0
 1159 00e8 0AD0     		beq	.L73
 381:C:/Users/dtjld/workspace/AIoT/src/LiteOS_Lab/iot_link/network/dtls/mbedtls/mbedtls-2.16.2/library\rsa.c ****         MBEDTLS_MPI_CHK( mbedtls_mpi_write_binary( &ctx->D, D, D_len ) );
 1160              		.loc 1 381 0
 1161 00ea FB68     		ldr	r3, [r7, #12]
 1162 00ec 2033     		adds	r3, r3, #32
 1163 00ee 3A6B     		ldr	r2, [r7, #48]
 1164 00f0 F96A     		ldr	r1, [r7, #44]
 1165 00f2 1846     		mov	r0, r3
 1166 00f4 FFF7FEFF 		bl	mbedtls_mpi_write_binary
 1167 00f8 7861     		str	r0, [r7, #20]
 1168 00fa 7B69     		ldr	r3, [r7, #20]
 1169 00fc 002B     		cmp	r3, #0
 1170 00fe 13D1     		bne	.L77
 1171              	.L73:
 382:C:/Users/dtjld/workspace/AIoT/src/LiteOS_Lab/iot_link/network/dtls/mbedtls/mbedtls-2.16.2/library\rsa.c **** 
 383:C:/Users/dtjld/workspace/AIoT/src/LiteOS_Lab/iot_link/network/dtls/mbedtls/mbedtls-2.16.2/library\rsa.c ****     if( E != NULL )
 1172              		.loc 1 383 0
 1173 0100 7B6B     		ldr	r3, [r7, #52]
 1174 0102 002B     		cmp	r3, #0
 1175 0104 12D0     		beq	.L78
 384:C:/Users/dtjld/workspace/AIoT/src/LiteOS_Lab/iot_link/network/dtls/mbedtls/mbedtls-2.16.2/library\rsa.c ****         MBEDTLS_MPI_CHK( mbedtls_mpi_write_binary( &ctx->E, E, E_len ) );
 1176              		.loc 1 384 0
 1177 0106 FB68     		ldr	r3, [r7, #12]
 1178 0108 1433     		adds	r3, r3, #20
 1179 010a BA6B     		ldr	r2, [r7, #56]
 1180 010c 796B     		ldr	r1, [r7, #52]
 1181 010e 1846     		mov	r0, r3
 1182 0110 FFF7FEFF 		bl	mbedtls_mpi_write_binary
 1183 0114 7861     		str	r0, [r7, #20]
 1184 0116 7B69     		ldr	r3, [r7, #20]
 1185 0118 002B     		cmp	r3, #0
 385:C:/Users/dtjld/workspace/AIoT/src/LiteOS_Lab/iot_link/network/dtls/mbedtls/mbedtls-2.16.2/library\rsa.c **** 
 386:C:/Users/dtjld/workspace/AIoT/src/LiteOS_Lab/iot_link/network/dtls/mbedtls/mbedtls-2.16.2/library\rsa.c **** cleanup:
 1186              		.loc 1 386 0
 1187 011a 07E0     		b	.L78
 1188              	.L74:
 372:C:/Users/dtjld/workspace/AIoT/src/LiteOS_Lab/iot_link/network/dtls/mbedtls/mbedtls-2.16.2/library\rsa.c **** 
 1189              		.loc 1 372 0
 1190 011c 00BF     		nop
 1191 011e 06E0     		b	.L70
 1192              	.L75:
 375:C:/Users/dtjld/workspace/AIoT/src/LiteOS_Lab/iot_link/network/dtls/mbedtls/mbedtls-2.16.2/library\rsa.c **** 
 1193              		.loc 1 375 0
ARM GAS  C:\Users\dtjld\AppData\Local\Temp\cck1fUMg.s 			page 29


 1194 0120 00BF     		nop
 1195 0122 04E0     		b	.L70
 1196              	.L76:
 378:C:/Users/dtjld/workspace/AIoT/src/LiteOS_Lab/iot_link/network/dtls/mbedtls/mbedtls-2.16.2/library\rsa.c **** 
 1197              		.loc 1 378 0
 1198 0124 00BF     		nop
 1199 0126 02E0     		b	.L70
 1200              	.L77:
 381:C:/Users/dtjld/workspace/AIoT/src/LiteOS_Lab/iot_link/network/dtls/mbedtls/mbedtls-2.16.2/library\rsa.c **** 
 1201              		.loc 1 381 0
 1202 0128 00BF     		nop
 1203 012a 00E0     		b	.L70
 1204              	.L78:
 1205              		.loc 1 386 0
 1206 012c 00BF     		nop
 1207              	.L70:
 387:C:/Users/dtjld/workspace/AIoT/src/LiteOS_Lab/iot_link/network/dtls/mbedtls/mbedtls-2.16.2/library\rsa.c **** 
 388:C:/Users/dtjld/workspace/AIoT/src/LiteOS_Lab/iot_link/network/dtls/mbedtls/mbedtls-2.16.2/library\rsa.c ****     return( ret );
 1208              		.loc 1 388 0
 1209 012e 7B69     		ldr	r3, [r7, #20]
 1210              	.L68:
 389:C:/Users/dtjld/workspace/AIoT/src/LiteOS_Lab/iot_link/network/dtls/mbedtls/mbedtls-2.16.2/library\rsa.c **** }
 1211              		.loc 1 389 0
 1212 0130 1846     		mov	r0, r3
 1213 0132 1837     		adds	r7, r7, #24
 1214              	.LCFI29:
 1215              		.cfi_def_cfa_offset 8
 1216 0134 BD46     		mov	sp, r7
 1217              	.LCFI30:
 1218              		.cfi_def_cfa_register 13
 1219              		@ sp needed
 1220 0136 80BD     		pop	{r7, pc}
 1221              	.L80:
 1222              		.align	2
 1223              	.L79:
 1224 0138 80BFFFFF 		.word	-16512
 1225              		.cfi_endproc
 1226              	.LFE18:
 1228              		.section	.text.mbedtls_rsa_export,"ax",%progbits
 1229              		.align	1
 1230              		.global	mbedtls_rsa_export
 1231              		.syntax unified
 1232              		.thumb
 1233              		.thumb_func
 1234              		.fpu fpv4-sp-d16
 1236              	mbedtls_rsa_export:
 1237              	.LFB19:
 390:C:/Users/dtjld/workspace/AIoT/src/LiteOS_Lab/iot_link/network/dtls/mbedtls/mbedtls-2.16.2/library\rsa.c **** 
 391:C:/Users/dtjld/workspace/AIoT/src/LiteOS_Lab/iot_link/network/dtls/mbedtls/mbedtls-2.16.2/library\rsa.c **** int mbedtls_rsa_export( const mbedtls_rsa_context *ctx,
 392:C:/Users/dtjld/workspace/AIoT/src/LiteOS_Lab/iot_link/network/dtls/mbedtls/mbedtls-2.16.2/library\rsa.c ****                         mbedtls_mpi *N, mbedtls_mpi *P, mbedtls_mpi *Q,
 393:C:/Users/dtjld/workspace/AIoT/src/LiteOS_Lab/iot_link/network/dtls/mbedtls/mbedtls-2.16.2/library\rsa.c ****                         mbedtls_mpi *D, mbedtls_mpi *E )
 394:C:/Users/dtjld/workspace/AIoT/src/LiteOS_Lab/iot_link/network/dtls/mbedtls/mbedtls-2.16.2/library\rsa.c **** {
 1238              		.loc 1 394 0
 1239              		.cfi_startproc
 1240              		@ args = 8, pretend = 0, frame = 24
 1241              		@ frame_needed = 1, uses_anonymous_args = 0
 1242 0000 80B5     		push	{r7, lr}
ARM GAS  C:\Users\dtjld\AppData\Local\Temp\cck1fUMg.s 			page 30


 1243              	.LCFI31:
 1244              		.cfi_def_cfa_offset 8
 1245              		.cfi_offset 7, -8
 1246              		.cfi_offset 14, -4
 1247 0002 86B0     		sub	sp, sp, #24
 1248              	.LCFI32:
 1249              		.cfi_def_cfa_offset 32
 1250 0004 00AF     		add	r7, sp, #0
 1251              	.LCFI33:
 1252              		.cfi_def_cfa_register 7
 1253 0006 F860     		str	r0, [r7, #12]
 1254 0008 B960     		str	r1, [r7, #8]
 1255 000a 7A60     		str	r2, [r7, #4]
 1256 000c 3B60     		str	r3, [r7]
 395:C:/Users/dtjld/workspace/AIoT/src/LiteOS_Lab/iot_link/network/dtls/mbedtls/mbedtls-2.16.2/library\rsa.c ****     int ret;
 396:C:/Users/dtjld/workspace/AIoT/src/LiteOS_Lab/iot_link/network/dtls/mbedtls/mbedtls-2.16.2/library\rsa.c ****     int is_priv;
 397:C:/Users/dtjld/workspace/AIoT/src/LiteOS_Lab/iot_link/network/dtls/mbedtls/mbedtls-2.16.2/library\rsa.c ****     RSA_VALIDATE_RET( ctx != NULL );
 398:C:/Users/dtjld/workspace/AIoT/src/LiteOS_Lab/iot_link/network/dtls/mbedtls/mbedtls-2.16.2/library\rsa.c **** 
 399:C:/Users/dtjld/workspace/AIoT/src/LiteOS_Lab/iot_link/network/dtls/mbedtls/mbedtls-2.16.2/library\rsa.c ****     /* Check if key is private or public */
 400:C:/Users/dtjld/workspace/AIoT/src/LiteOS_Lab/iot_link/network/dtls/mbedtls/mbedtls-2.16.2/library\rsa.c ****     is_priv =
 401:C:/Users/dtjld/workspace/AIoT/src/LiteOS_Lab/iot_link/network/dtls/mbedtls/mbedtls-2.16.2/library\rsa.c ****         mbedtls_mpi_cmp_int( &ctx->N, 0 ) != 0 &&
 1257              		.loc 1 401 0
 1258 000e FB68     		ldr	r3, [r7, #12]
 1259 0010 0833     		adds	r3, r3, #8
 1260 0012 0021     		movs	r1, #0
 1261 0014 1846     		mov	r0, r3
 1262 0016 FFF7FEFF 		bl	mbedtls_mpi_cmp_int
 1263 001a 0346     		mov	r3, r0
 402:C:/Users/dtjld/workspace/AIoT/src/LiteOS_Lab/iot_link/network/dtls/mbedtls/mbedtls-2.16.2/library\rsa.c ****         mbedtls_mpi_cmp_int( &ctx->P, 0 ) != 0 &&
 403:C:/Users/dtjld/workspace/AIoT/src/LiteOS_Lab/iot_link/network/dtls/mbedtls/mbedtls-2.16.2/library\rsa.c ****         mbedtls_mpi_cmp_int( &ctx->Q, 0 ) != 0 &&
 404:C:/Users/dtjld/workspace/AIoT/src/LiteOS_Lab/iot_link/network/dtls/mbedtls/mbedtls-2.16.2/library\rsa.c ****         mbedtls_mpi_cmp_int( &ctx->D, 0 ) != 0 &&
 1264              		.loc 1 404 0
 1265 001c 002B     		cmp	r3, #0
 1266 001e 25D0     		beq	.L82
 402:C:/Users/dtjld/workspace/AIoT/src/LiteOS_Lab/iot_link/network/dtls/mbedtls/mbedtls-2.16.2/library\rsa.c ****         mbedtls_mpi_cmp_int( &ctx->P, 0 ) != 0 &&
 1267              		.loc 1 402 0
 1268 0020 FB68     		ldr	r3, [r7, #12]
 1269 0022 2C33     		adds	r3, r3, #44
 1270 0024 0021     		movs	r1, #0
 1271 0026 1846     		mov	r0, r3
 1272 0028 FFF7FEFF 		bl	mbedtls_mpi_cmp_int
 1273 002c 0346     		mov	r3, r0
 401:C:/Users/dtjld/workspace/AIoT/src/LiteOS_Lab/iot_link/network/dtls/mbedtls/mbedtls-2.16.2/library\rsa.c ****         mbedtls_mpi_cmp_int( &ctx->P, 0 ) != 0 &&
 1274              		.loc 1 401 0
 1275 002e 002B     		cmp	r3, #0
 1276 0030 1CD0     		beq	.L82
 403:C:/Users/dtjld/workspace/AIoT/src/LiteOS_Lab/iot_link/network/dtls/mbedtls/mbedtls-2.16.2/library\rsa.c ****         mbedtls_mpi_cmp_int( &ctx->D, 0 ) != 0 &&
 1277              		.loc 1 403 0
 1278 0032 FB68     		ldr	r3, [r7, #12]
 1279 0034 3833     		adds	r3, r3, #56
 1280 0036 0021     		movs	r1, #0
 1281 0038 1846     		mov	r0, r3
 1282 003a FFF7FEFF 		bl	mbedtls_mpi_cmp_int
 1283 003e 0346     		mov	r3, r0
 402:C:/Users/dtjld/workspace/AIoT/src/LiteOS_Lab/iot_link/network/dtls/mbedtls/mbedtls-2.16.2/library\rsa.c ****         mbedtls_mpi_cmp_int( &ctx->P, 0 ) != 0 &&
 1284              		.loc 1 402 0
 1285 0040 002B     		cmp	r3, #0
ARM GAS  C:\Users\dtjld\AppData\Local\Temp\cck1fUMg.s 			page 31


 1286 0042 13D0     		beq	.L82
 1287              		.loc 1 404 0
 1288 0044 FB68     		ldr	r3, [r7, #12]
 1289 0046 2033     		adds	r3, r3, #32
 1290 0048 0021     		movs	r1, #0
 1291 004a 1846     		mov	r0, r3
 1292 004c FFF7FEFF 		bl	mbedtls_mpi_cmp_int
 1293 0050 0346     		mov	r3, r0
 403:C:/Users/dtjld/workspace/AIoT/src/LiteOS_Lab/iot_link/network/dtls/mbedtls/mbedtls-2.16.2/library\rsa.c ****         mbedtls_mpi_cmp_int( &ctx->D, 0 ) != 0 &&
 1294              		.loc 1 403 0
 1295 0052 002B     		cmp	r3, #0
 1296 0054 0AD0     		beq	.L82
 405:C:/Users/dtjld/workspace/AIoT/src/LiteOS_Lab/iot_link/network/dtls/mbedtls/mbedtls-2.16.2/library\rsa.c ****         mbedtls_mpi_cmp_int( &ctx->E, 0 ) != 0;
 1297              		.loc 1 405 0 discriminator 3
 1298 0056 FB68     		ldr	r3, [r7, #12]
 1299 0058 1433     		adds	r3, r3, #20
 1300 005a 0021     		movs	r1, #0
 1301 005c 1846     		mov	r0, r3
 1302 005e FFF7FEFF 		bl	mbedtls_mpi_cmp_int
 1303 0062 0346     		mov	r3, r0
 404:C:/Users/dtjld/workspace/AIoT/src/LiteOS_Lab/iot_link/network/dtls/mbedtls/mbedtls-2.16.2/library\rsa.c ****         mbedtls_mpi_cmp_int( &ctx->E, 0 ) != 0;
 1304              		.loc 1 404 0 discriminator 3
 1305 0064 002B     		cmp	r3, #0
 1306 0066 01D0     		beq	.L82
 404:C:/Users/dtjld/workspace/AIoT/src/LiteOS_Lab/iot_link/network/dtls/mbedtls/mbedtls-2.16.2/library\rsa.c ****         mbedtls_mpi_cmp_int( &ctx->E, 0 ) != 0;
 1307              		.loc 1 404 0 is_stmt 0 discriminator 2
 1308 0068 0123     		movs	r3, #1
 1309 006a 00E0     		b	.L83
 1310              	.L82:
 404:C:/Users/dtjld/workspace/AIoT/src/LiteOS_Lab/iot_link/network/dtls/mbedtls/mbedtls-2.16.2/library\rsa.c ****         mbedtls_mpi_cmp_int( &ctx->E, 0 ) != 0;
 1311              		.loc 1 404 0 discriminator 1
 1312 006c 0023     		movs	r3, #0
 1313              	.L83:
 400:C:/Users/dtjld/workspace/AIoT/src/LiteOS_Lab/iot_link/network/dtls/mbedtls/mbedtls-2.16.2/library\rsa.c ****         mbedtls_mpi_cmp_int( &ctx->N, 0 ) != 0 &&
 1314              		.loc 1 400 0 is_stmt 1
 1315 006e 3B61     		str	r3, [r7, #16]
 406:C:/Users/dtjld/workspace/AIoT/src/LiteOS_Lab/iot_link/network/dtls/mbedtls/mbedtls-2.16.2/library\rsa.c **** 
 407:C:/Users/dtjld/workspace/AIoT/src/LiteOS_Lab/iot_link/network/dtls/mbedtls/mbedtls-2.16.2/library\rsa.c ****     if( !is_priv )
 1316              		.loc 1 407 0
 1317 0070 3B69     		ldr	r3, [r7, #16]
 1318 0072 002B     		cmp	r3, #0
 1319 0074 0AD1     		bne	.L84
 408:C:/Users/dtjld/workspace/AIoT/src/LiteOS_Lab/iot_link/network/dtls/mbedtls/mbedtls-2.16.2/library\rsa.c ****     {
 409:C:/Users/dtjld/workspace/AIoT/src/LiteOS_Lab/iot_link/network/dtls/mbedtls/mbedtls-2.16.2/library\rsa.c ****         /* If we're trying to export private parameters for a public key,
 410:C:/Users/dtjld/workspace/AIoT/src/LiteOS_Lab/iot_link/network/dtls/mbedtls/mbedtls-2.16.2/library\rsa.c ****          * something must be wrong. */
 411:C:/Users/dtjld/workspace/AIoT/src/LiteOS_Lab/iot_link/network/dtls/mbedtls/mbedtls-2.16.2/library\rsa.c ****         if( P != NULL || Q != NULL || D != NULL )
 1320              		.loc 1 411 0
 1321 0076 7B68     		ldr	r3, [r7, #4]
 1322 0078 002B     		cmp	r3, #0
 1323 007a 05D1     		bne	.L85
 1324              		.loc 1 411 0 is_stmt 0 discriminator 1
 1325 007c 3B68     		ldr	r3, [r7]
 1326 007e 002B     		cmp	r3, #0
 1327 0080 02D1     		bne	.L85
 1328              		.loc 1 411 0 discriminator 2
 1329 0082 3B6A     		ldr	r3, [r7, #32]
 1330 0084 002B     		cmp	r3, #0
ARM GAS  C:\Users\dtjld\AppData\Local\Temp\cck1fUMg.s 			page 32


 1331 0086 01D0     		beq	.L84
 1332              	.L85:
 412:C:/Users/dtjld/workspace/AIoT/src/LiteOS_Lab/iot_link/network/dtls/mbedtls/mbedtls-2.16.2/library\rsa.c ****             return( MBEDTLS_ERR_RSA_BAD_INPUT_DATA );
 1333              		.loc 1 412 0 is_stmt 1
 1334 0088 244B     		ldr	r3, .L93
 1335 008a 43E0     		b	.L86
 1336              	.L84:
 413:C:/Users/dtjld/workspace/AIoT/src/LiteOS_Lab/iot_link/network/dtls/mbedtls/mbedtls-2.16.2/library\rsa.c **** 
 414:C:/Users/dtjld/workspace/AIoT/src/LiteOS_Lab/iot_link/network/dtls/mbedtls/mbedtls-2.16.2/library\rsa.c ****     }
 415:C:/Users/dtjld/workspace/AIoT/src/LiteOS_Lab/iot_link/network/dtls/mbedtls/mbedtls-2.16.2/library\rsa.c **** 
 416:C:/Users/dtjld/workspace/AIoT/src/LiteOS_Lab/iot_link/network/dtls/mbedtls/mbedtls-2.16.2/library\rsa.c ****     /* Export all requested core parameters. */
 417:C:/Users/dtjld/workspace/AIoT/src/LiteOS_Lab/iot_link/network/dtls/mbedtls/mbedtls-2.16.2/library\rsa.c **** 
 418:C:/Users/dtjld/workspace/AIoT/src/LiteOS_Lab/iot_link/network/dtls/mbedtls/mbedtls-2.16.2/library\rsa.c ****     if( ( N != NULL && ( ret = mbedtls_mpi_copy( N, &ctx->N ) ) != 0 ) ||
 1337              		.loc 1 418 0
 1338 008c BB68     		ldr	r3, [r7, #8]
 1339 008e 002B     		cmp	r3, #0
 1340 0090 09D0     		beq	.L87
 1341              		.loc 1 418 0 is_stmt 0 discriminator 1
 1342 0092 FB68     		ldr	r3, [r7, #12]
 1343 0094 0833     		adds	r3, r3, #8
 1344 0096 1946     		mov	r1, r3
 1345 0098 B868     		ldr	r0, [r7, #8]
 1346 009a FFF7FEFF 		bl	mbedtls_mpi_copy
 1347 009e 7861     		str	r0, [r7, #20]
 1348 00a0 7B69     		ldr	r3, [r7, #20]
 1349 00a2 002B     		cmp	r3, #0
 1350 00a4 33D1     		bne	.L88
 1351              	.L87:
 1352              		.loc 1 418 0 discriminator 3
 1353 00a6 7B68     		ldr	r3, [r7, #4]
 1354 00a8 002B     		cmp	r3, #0
 1355 00aa 09D0     		beq	.L89
 419:C:/Users/dtjld/workspace/AIoT/src/LiteOS_Lab/iot_link/network/dtls/mbedtls/mbedtls-2.16.2/library\rsa.c ****         ( P != NULL && ( ret = mbedtls_mpi_copy( P, &ctx->P ) ) != 0 ) ||
 1356              		.loc 1 419 0 is_stmt 1
 1357 00ac FB68     		ldr	r3, [r7, #12]
 1358 00ae 2C33     		adds	r3, r3, #44
 1359 00b0 1946     		mov	r1, r3
 1360 00b2 7868     		ldr	r0, [r7, #4]
 1361 00b4 FFF7FEFF 		bl	mbedtls_mpi_copy
 1362 00b8 7861     		str	r0, [r7, #20]
 1363 00ba 7B69     		ldr	r3, [r7, #20]
 1364 00bc 002B     		cmp	r3, #0
 1365 00be 26D1     		bne	.L88
 1366              	.L89:
 1367              		.loc 1 419 0 is_stmt 0 discriminator 1
 1368 00c0 3B68     		ldr	r3, [r7]
 1369 00c2 002B     		cmp	r3, #0
 1370 00c4 09D0     		beq	.L90
 420:C:/Users/dtjld/workspace/AIoT/src/LiteOS_Lab/iot_link/network/dtls/mbedtls/mbedtls-2.16.2/library\rsa.c ****         ( Q != NULL && ( ret = mbedtls_mpi_copy( Q, &ctx->Q ) ) != 0 ) ||
 1371              		.loc 1 420 0 is_stmt 1
 1372 00c6 FB68     		ldr	r3, [r7, #12]
 1373 00c8 3833     		adds	r3, r3, #56
 1374 00ca 1946     		mov	r1, r3
 1375 00cc 3868     		ldr	r0, [r7]
 1376 00ce FFF7FEFF 		bl	mbedtls_mpi_copy
 1377 00d2 7861     		str	r0, [r7, #20]
 1378 00d4 7B69     		ldr	r3, [r7, #20]
ARM GAS  C:\Users\dtjld\AppData\Local\Temp\cck1fUMg.s 			page 33


 1379 00d6 002B     		cmp	r3, #0
 1380 00d8 19D1     		bne	.L88
 1381              	.L90:
 1382              		.loc 1 420 0 is_stmt 0 discriminator 1
 1383 00da 3B6A     		ldr	r3, [r7, #32]
 1384 00dc 002B     		cmp	r3, #0
 1385 00de 09D0     		beq	.L91
 421:C:/Users/dtjld/workspace/AIoT/src/LiteOS_Lab/iot_link/network/dtls/mbedtls/mbedtls-2.16.2/library\rsa.c ****         ( D != NULL && ( ret = mbedtls_mpi_copy( D, &ctx->D ) ) != 0 ) ||
 1386              		.loc 1 421 0 is_stmt 1
 1387 00e0 FB68     		ldr	r3, [r7, #12]
 1388 00e2 2033     		adds	r3, r3, #32
 1389 00e4 1946     		mov	r1, r3
 1390 00e6 386A     		ldr	r0, [r7, #32]
 1391 00e8 FFF7FEFF 		bl	mbedtls_mpi_copy
 1392 00ec 7861     		str	r0, [r7, #20]
 1393 00ee 7B69     		ldr	r3, [r7, #20]
 1394 00f0 002B     		cmp	r3, #0
 1395 00f2 0CD1     		bne	.L88
 1396              	.L91:
 1397              		.loc 1 421 0 is_stmt 0 discriminator 1
 1398 00f4 7B6A     		ldr	r3, [r7, #36]
 1399 00f6 002B     		cmp	r3, #0
 1400 00f8 0BD0     		beq	.L92
 422:C:/Users/dtjld/workspace/AIoT/src/LiteOS_Lab/iot_link/network/dtls/mbedtls/mbedtls-2.16.2/library\rsa.c ****         ( E != NULL && ( ret = mbedtls_mpi_copy( E, &ctx->E ) ) != 0 ) )
 1401              		.loc 1 422 0 is_stmt 1
 1402 00fa FB68     		ldr	r3, [r7, #12]
 1403 00fc 1433     		adds	r3, r3, #20
 1404 00fe 1946     		mov	r1, r3
 1405 0100 786A     		ldr	r0, [r7, #36]
 1406 0102 FFF7FEFF 		bl	mbedtls_mpi_copy
 1407 0106 7861     		str	r0, [r7, #20]
 1408 0108 7B69     		ldr	r3, [r7, #20]
 1409 010a 002B     		cmp	r3, #0
 1410 010c 01D0     		beq	.L92
 1411              	.L88:
 423:C:/Users/dtjld/workspace/AIoT/src/LiteOS_Lab/iot_link/network/dtls/mbedtls/mbedtls-2.16.2/library\rsa.c ****     {
 424:C:/Users/dtjld/workspace/AIoT/src/LiteOS_Lab/iot_link/network/dtls/mbedtls/mbedtls-2.16.2/library\rsa.c ****         return( ret );
 1412              		.loc 1 424 0
 1413 010e 7B69     		ldr	r3, [r7, #20]
 1414 0110 00E0     		b	.L86
 1415              	.L92:
 425:C:/Users/dtjld/workspace/AIoT/src/LiteOS_Lab/iot_link/network/dtls/mbedtls/mbedtls-2.16.2/library\rsa.c ****     }
 426:C:/Users/dtjld/workspace/AIoT/src/LiteOS_Lab/iot_link/network/dtls/mbedtls/mbedtls-2.16.2/library\rsa.c **** 
 427:C:/Users/dtjld/workspace/AIoT/src/LiteOS_Lab/iot_link/network/dtls/mbedtls/mbedtls-2.16.2/library\rsa.c ****     return( 0 );
 1416              		.loc 1 427 0
 1417 0112 0023     		movs	r3, #0
 1418              	.L86:
 428:C:/Users/dtjld/workspace/AIoT/src/LiteOS_Lab/iot_link/network/dtls/mbedtls/mbedtls-2.16.2/library\rsa.c **** }
 1419              		.loc 1 428 0
 1420 0114 1846     		mov	r0, r3
 1421 0116 1837     		adds	r7, r7, #24
 1422              	.LCFI34:
 1423              		.cfi_def_cfa_offset 8
 1424 0118 BD46     		mov	sp, r7
 1425              	.LCFI35:
 1426              		.cfi_def_cfa_register 13
 1427              		@ sp needed
ARM GAS  C:\Users\dtjld\AppData\Local\Temp\cck1fUMg.s 			page 34


 1428 011a 80BD     		pop	{r7, pc}
 1429              	.L94:
 1430              		.align	2
 1431              	.L93:
 1432 011c 80BFFFFF 		.word	-16512
 1433              		.cfi_endproc
 1434              	.LFE19:
 1436              		.section	.text.mbedtls_rsa_export_crt,"ax",%progbits
 1437              		.align	1
 1438              		.global	mbedtls_rsa_export_crt
 1439              		.syntax unified
 1440              		.thumb
 1441              		.thumb_func
 1442              		.fpu fpv4-sp-d16
 1444              	mbedtls_rsa_export_crt:
 1445              	.LFB20:
 429:C:/Users/dtjld/workspace/AIoT/src/LiteOS_Lab/iot_link/network/dtls/mbedtls/mbedtls-2.16.2/library\rsa.c **** 
 430:C:/Users/dtjld/workspace/AIoT/src/LiteOS_Lab/iot_link/network/dtls/mbedtls/mbedtls-2.16.2/library\rsa.c **** /*
 431:C:/Users/dtjld/workspace/AIoT/src/LiteOS_Lab/iot_link/network/dtls/mbedtls/mbedtls-2.16.2/library\rsa.c ****  * Export CRT parameters
 432:C:/Users/dtjld/workspace/AIoT/src/LiteOS_Lab/iot_link/network/dtls/mbedtls/mbedtls-2.16.2/library\rsa.c ****  * This must also be implemented if CRT is not used, for being able to
 433:C:/Users/dtjld/workspace/AIoT/src/LiteOS_Lab/iot_link/network/dtls/mbedtls/mbedtls-2.16.2/library\rsa.c ****  * write DER encoded RSA keys. The helper function mbedtls_rsa_deduce_crt
 434:C:/Users/dtjld/workspace/AIoT/src/LiteOS_Lab/iot_link/network/dtls/mbedtls/mbedtls-2.16.2/library\rsa.c ****  * can be used in this case.
 435:C:/Users/dtjld/workspace/AIoT/src/LiteOS_Lab/iot_link/network/dtls/mbedtls/mbedtls-2.16.2/library\rsa.c ****  */
 436:C:/Users/dtjld/workspace/AIoT/src/LiteOS_Lab/iot_link/network/dtls/mbedtls/mbedtls-2.16.2/library\rsa.c **** int mbedtls_rsa_export_crt( const mbedtls_rsa_context *ctx,
 437:C:/Users/dtjld/workspace/AIoT/src/LiteOS_Lab/iot_link/network/dtls/mbedtls/mbedtls-2.16.2/library\rsa.c ****                             mbedtls_mpi *DP, mbedtls_mpi *DQ, mbedtls_mpi *QP )
 438:C:/Users/dtjld/workspace/AIoT/src/LiteOS_Lab/iot_link/network/dtls/mbedtls/mbedtls-2.16.2/library\rsa.c **** {
 1446              		.loc 1 438 0
 1447              		.cfi_startproc
 1448              		@ args = 0, pretend = 0, frame = 24
 1449              		@ frame_needed = 1, uses_anonymous_args = 0
 1450 0000 80B5     		push	{r7, lr}
 1451              	.LCFI36:
 1452              		.cfi_def_cfa_offset 8
 1453              		.cfi_offset 7, -8
 1454              		.cfi_offset 14, -4
 1455 0002 86B0     		sub	sp, sp, #24
 1456              	.LCFI37:
 1457              		.cfi_def_cfa_offset 32
 1458 0004 00AF     		add	r7, sp, #0
 1459              	.LCFI38:
 1460              		.cfi_def_cfa_register 7
 1461 0006 F860     		str	r0, [r7, #12]
 1462 0008 B960     		str	r1, [r7, #8]
 1463 000a 7A60     		str	r2, [r7, #4]
 1464 000c 3B60     		str	r3, [r7]
 439:C:/Users/dtjld/workspace/AIoT/src/LiteOS_Lab/iot_link/network/dtls/mbedtls/mbedtls-2.16.2/library\rsa.c ****     int ret;
 440:C:/Users/dtjld/workspace/AIoT/src/LiteOS_Lab/iot_link/network/dtls/mbedtls/mbedtls-2.16.2/library\rsa.c ****     int is_priv;
 441:C:/Users/dtjld/workspace/AIoT/src/LiteOS_Lab/iot_link/network/dtls/mbedtls/mbedtls-2.16.2/library\rsa.c ****     RSA_VALIDATE_RET( ctx != NULL );
 442:C:/Users/dtjld/workspace/AIoT/src/LiteOS_Lab/iot_link/network/dtls/mbedtls/mbedtls-2.16.2/library\rsa.c **** 
 443:C:/Users/dtjld/workspace/AIoT/src/LiteOS_Lab/iot_link/network/dtls/mbedtls/mbedtls-2.16.2/library\rsa.c ****     /* Check if key is private or public */
 444:C:/Users/dtjld/workspace/AIoT/src/LiteOS_Lab/iot_link/network/dtls/mbedtls/mbedtls-2.16.2/library\rsa.c ****     is_priv =
 445:C:/Users/dtjld/workspace/AIoT/src/LiteOS_Lab/iot_link/network/dtls/mbedtls/mbedtls-2.16.2/library\rsa.c ****         mbedtls_mpi_cmp_int( &ctx->N, 0 ) != 0 &&
 1465              		.loc 1 445 0
 1466 000e FB68     		ldr	r3, [r7, #12]
 1467 0010 0833     		adds	r3, r3, #8
 1468 0012 0021     		movs	r1, #0
 1469 0014 1846     		mov	r0, r3
ARM GAS  C:\Users\dtjld\AppData\Local\Temp\cck1fUMg.s 			page 35


 1470 0016 FFF7FEFF 		bl	mbedtls_mpi_cmp_int
 1471 001a 0346     		mov	r3, r0
 446:C:/Users/dtjld/workspace/AIoT/src/LiteOS_Lab/iot_link/network/dtls/mbedtls/mbedtls-2.16.2/library\rsa.c ****         mbedtls_mpi_cmp_int( &ctx->P, 0 ) != 0 &&
 447:C:/Users/dtjld/workspace/AIoT/src/LiteOS_Lab/iot_link/network/dtls/mbedtls/mbedtls-2.16.2/library\rsa.c ****         mbedtls_mpi_cmp_int( &ctx->Q, 0 ) != 0 &&
 448:C:/Users/dtjld/workspace/AIoT/src/LiteOS_Lab/iot_link/network/dtls/mbedtls/mbedtls-2.16.2/library\rsa.c ****         mbedtls_mpi_cmp_int( &ctx->D, 0 ) != 0 &&
 1472              		.loc 1 448 0
 1473 001c 002B     		cmp	r3, #0
 1474 001e 25D0     		beq	.L96
 446:C:/Users/dtjld/workspace/AIoT/src/LiteOS_Lab/iot_link/network/dtls/mbedtls/mbedtls-2.16.2/library\rsa.c ****         mbedtls_mpi_cmp_int( &ctx->P, 0 ) != 0 &&
 1475              		.loc 1 446 0
 1476 0020 FB68     		ldr	r3, [r7, #12]
 1477 0022 2C33     		adds	r3, r3, #44
 1478 0024 0021     		movs	r1, #0
 1479 0026 1846     		mov	r0, r3
 1480 0028 FFF7FEFF 		bl	mbedtls_mpi_cmp_int
 1481 002c 0346     		mov	r3, r0
 445:C:/Users/dtjld/workspace/AIoT/src/LiteOS_Lab/iot_link/network/dtls/mbedtls/mbedtls-2.16.2/library\rsa.c ****         mbedtls_mpi_cmp_int( &ctx->P, 0 ) != 0 &&
 1482              		.loc 1 445 0
 1483 002e 002B     		cmp	r3, #0
 1484 0030 1CD0     		beq	.L96
 447:C:/Users/dtjld/workspace/AIoT/src/LiteOS_Lab/iot_link/network/dtls/mbedtls/mbedtls-2.16.2/library\rsa.c ****         mbedtls_mpi_cmp_int( &ctx->D, 0 ) != 0 &&
 1485              		.loc 1 447 0
 1486 0032 FB68     		ldr	r3, [r7, #12]
 1487 0034 3833     		adds	r3, r3, #56
 1488 0036 0021     		movs	r1, #0
 1489 0038 1846     		mov	r0, r3
 1490 003a FFF7FEFF 		bl	mbedtls_mpi_cmp_int
 1491 003e 0346     		mov	r3, r0
 446:C:/Users/dtjld/workspace/AIoT/src/LiteOS_Lab/iot_link/network/dtls/mbedtls/mbedtls-2.16.2/library\rsa.c ****         mbedtls_mpi_cmp_int( &ctx->P, 0 ) != 0 &&
 1492              		.loc 1 446 0
 1493 0040 002B     		cmp	r3, #0
 1494 0042 13D0     		beq	.L96
 1495              		.loc 1 448 0
 1496 0044 FB68     		ldr	r3, [r7, #12]
 1497 0046 2033     		adds	r3, r3, #32
 1498 0048 0021     		movs	r1, #0
 1499 004a 1846     		mov	r0, r3
 1500 004c FFF7FEFF 		bl	mbedtls_mpi_cmp_int
 1501 0050 0346     		mov	r3, r0
 447:C:/Users/dtjld/workspace/AIoT/src/LiteOS_Lab/iot_link/network/dtls/mbedtls/mbedtls-2.16.2/library\rsa.c ****         mbedtls_mpi_cmp_int( &ctx->D, 0 ) != 0 &&
 1502              		.loc 1 447 0
 1503 0052 002B     		cmp	r3, #0
 1504 0054 0AD0     		beq	.L96
 449:C:/Users/dtjld/workspace/AIoT/src/LiteOS_Lab/iot_link/network/dtls/mbedtls/mbedtls-2.16.2/library\rsa.c ****         mbedtls_mpi_cmp_int( &ctx->E, 0 ) != 0;
 1505              		.loc 1 449 0 discriminator 3
 1506 0056 FB68     		ldr	r3, [r7, #12]
 1507 0058 1433     		adds	r3, r3, #20
 1508 005a 0021     		movs	r1, #0
 1509 005c 1846     		mov	r0, r3
 1510 005e FFF7FEFF 		bl	mbedtls_mpi_cmp_int
 1511 0062 0346     		mov	r3, r0
 448:C:/Users/dtjld/workspace/AIoT/src/LiteOS_Lab/iot_link/network/dtls/mbedtls/mbedtls-2.16.2/library\rsa.c ****         mbedtls_mpi_cmp_int( &ctx->E, 0 ) != 0;
 1512              		.loc 1 448 0 discriminator 3
 1513 0064 002B     		cmp	r3, #0
 1514 0066 01D0     		beq	.L96
 448:C:/Users/dtjld/workspace/AIoT/src/LiteOS_Lab/iot_link/network/dtls/mbedtls/mbedtls-2.16.2/library\rsa.c ****         mbedtls_mpi_cmp_int( &ctx->E, 0 ) != 0;
 1515              		.loc 1 448 0 is_stmt 0 discriminator 2
ARM GAS  C:\Users\dtjld\AppData\Local\Temp\cck1fUMg.s 			page 36


 1516 0068 0123     		movs	r3, #1
 1517 006a 00E0     		b	.L97
 1518              	.L96:
 448:C:/Users/dtjld/workspace/AIoT/src/LiteOS_Lab/iot_link/network/dtls/mbedtls/mbedtls-2.16.2/library\rsa.c ****         mbedtls_mpi_cmp_int( &ctx->E, 0 ) != 0;
 1519              		.loc 1 448 0 discriminator 1
 1520 006c 0023     		movs	r3, #0
 1521              	.L97:
 444:C:/Users/dtjld/workspace/AIoT/src/LiteOS_Lab/iot_link/network/dtls/mbedtls/mbedtls-2.16.2/library\rsa.c ****         mbedtls_mpi_cmp_int( &ctx->N, 0 ) != 0 &&
 1522              		.loc 1 444 0 is_stmt 1
 1523 006e 3B61     		str	r3, [r7, #16]
 450:C:/Users/dtjld/workspace/AIoT/src/LiteOS_Lab/iot_link/network/dtls/mbedtls/mbedtls-2.16.2/library\rsa.c **** 
 451:C:/Users/dtjld/workspace/AIoT/src/LiteOS_Lab/iot_link/network/dtls/mbedtls/mbedtls-2.16.2/library\rsa.c ****     if( !is_priv )
 1524              		.loc 1 451 0
 1525 0070 3B69     		ldr	r3, [r7, #16]
 1526 0072 002B     		cmp	r3, #0
 1527 0074 01D1     		bne	.L98
 452:C:/Users/dtjld/workspace/AIoT/src/LiteOS_Lab/iot_link/network/dtls/mbedtls/mbedtls-2.16.2/library\rsa.c ****         return( MBEDTLS_ERR_RSA_BAD_INPUT_DATA );
 1528              		.loc 1 452 0
 1529 0076 194B     		ldr	r3, .L104
 1530 0078 2BE0     		b	.L99
 1531              	.L98:
 453:C:/Users/dtjld/workspace/AIoT/src/LiteOS_Lab/iot_link/network/dtls/mbedtls/mbedtls-2.16.2/library\rsa.c **** 
 454:C:/Users/dtjld/workspace/AIoT/src/LiteOS_Lab/iot_link/network/dtls/mbedtls/mbedtls-2.16.2/library\rsa.c **** #if !defined(MBEDTLS_RSA_NO_CRT)
 455:C:/Users/dtjld/workspace/AIoT/src/LiteOS_Lab/iot_link/network/dtls/mbedtls/mbedtls-2.16.2/library\rsa.c ****     /* Export all requested blinding parameters. */
 456:C:/Users/dtjld/workspace/AIoT/src/LiteOS_Lab/iot_link/network/dtls/mbedtls/mbedtls-2.16.2/library\rsa.c ****     if( ( DP != NULL && ( ret = mbedtls_mpi_copy( DP, &ctx->DP ) ) != 0 ) ||
 1532              		.loc 1 456 0
 1533 007a BB68     		ldr	r3, [r7, #8]
 1534 007c 002B     		cmp	r3, #0
 1535 007e 09D0     		beq	.L100
 1536              		.loc 1 456 0 is_stmt 0 discriminator 1
 1537 0080 FB68     		ldr	r3, [r7, #12]
 1538 0082 4433     		adds	r3, r3, #68
 1539 0084 1946     		mov	r1, r3
 1540 0086 B868     		ldr	r0, [r7, #8]
 1541 0088 FFF7FEFF 		bl	mbedtls_mpi_copy
 1542 008c 7861     		str	r0, [r7, #20]
 1543 008e 7B69     		ldr	r3, [r7, #20]
 1544 0090 002B     		cmp	r3, #0
 1545 0092 19D1     		bne	.L101
 1546              	.L100:
 1547              		.loc 1 456 0 discriminator 3
 1548 0094 7B68     		ldr	r3, [r7, #4]
 1549 0096 002B     		cmp	r3, #0
 1550 0098 09D0     		beq	.L102
 457:C:/Users/dtjld/workspace/AIoT/src/LiteOS_Lab/iot_link/network/dtls/mbedtls/mbedtls-2.16.2/library\rsa.c ****         ( DQ != NULL && ( ret = mbedtls_mpi_copy( DQ, &ctx->DQ ) ) != 0 ) ||
 1551              		.loc 1 457 0 is_stmt 1
 1552 009a FB68     		ldr	r3, [r7, #12]
 1553 009c 5033     		adds	r3, r3, #80
 1554 009e 1946     		mov	r1, r3
 1555 00a0 7868     		ldr	r0, [r7, #4]
 1556 00a2 FFF7FEFF 		bl	mbedtls_mpi_copy
 1557 00a6 7861     		str	r0, [r7, #20]
 1558 00a8 7B69     		ldr	r3, [r7, #20]
 1559 00aa 002B     		cmp	r3, #0
 1560 00ac 0CD1     		bne	.L101
 1561              	.L102:
 1562              		.loc 1 457 0 is_stmt 0 discriminator 1
ARM GAS  C:\Users\dtjld\AppData\Local\Temp\cck1fUMg.s 			page 37


 1563 00ae 3B68     		ldr	r3, [r7]
 1564 00b0 002B     		cmp	r3, #0
 1565 00b2 0DD0     		beq	.L103
 458:C:/Users/dtjld/workspace/AIoT/src/LiteOS_Lab/iot_link/network/dtls/mbedtls/mbedtls-2.16.2/library\rsa.c ****         ( QP != NULL && ( ret = mbedtls_mpi_copy( QP, &ctx->QP ) ) != 0 ) )
 1566              		.loc 1 458 0 is_stmt 1
 1567 00b4 FB68     		ldr	r3, [r7, #12]
 1568 00b6 5C33     		adds	r3, r3, #92
 1569 00b8 1946     		mov	r1, r3
 1570 00ba 3868     		ldr	r0, [r7]
 1571 00bc FFF7FEFF 		bl	mbedtls_mpi_copy
 1572 00c0 7861     		str	r0, [r7, #20]
 1573 00c2 7B69     		ldr	r3, [r7, #20]
 1574 00c4 002B     		cmp	r3, #0
 1575 00c6 03D0     		beq	.L103
 1576              	.L101:
 459:C:/Users/dtjld/workspace/AIoT/src/LiteOS_Lab/iot_link/network/dtls/mbedtls/mbedtls-2.16.2/library\rsa.c ****     {
 460:C:/Users/dtjld/workspace/AIoT/src/LiteOS_Lab/iot_link/network/dtls/mbedtls/mbedtls-2.16.2/library\rsa.c ****         return( MBEDTLS_ERR_RSA_BAD_INPUT_DATA + ret );
 1577              		.loc 1 460 0
 1578 00c8 7B69     		ldr	r3, [r7, #20]
 1579 00ca A3F58143 		sub	r3, r3, #16512
 1580 00ce 00E0     		b	.L99
 1581              	.L103:
 461:C:/Users/dtjld/workspace/AIoT/src/LiteOS_Lab/iot_link/network/dtls/mbedtls/mbedtls-2.16.2/library\rsa.c ****     }
 462:C:/Users/dtjld/workspace/AIoT/src/LiteOS_Lab/iot_link/network/dtls/mbedtls/mbedtls-2.16.2/library\rsa.c **** #else
 463:C:/Users/dtjld/workspace/AIoT/src/LiteOS_Lab/iot_link/network/dtls/mbedtls/mbedtls-2.16.2/library\rsa.c ****     if( ( ret = mbedtls_rsa_deduce_crt( &ctx->P, &ctx->Q, &ctx->D,
 464:C:/Users/dtjld/workspace/AIoT/src/LiteOS_Lab/iot_link/network/dtls/mbedtls/mbedtls-2.16.2/library\rsa.c ****                                         DP, DQ, QP ) ) != 0 )
 465:C:/Users/dtjld/workspace/AIoT/src/LiteOS_Lab/iot_link/network/dtls/mbedtls/mbedtls-2.16.2/library\rsa.c ****     {
 466:C:/Users/dtjld/workspace/AIoT/src/LiteOS_Lab/iot_link/network/dtls/mbedtls/mbedtls-2.16.2/library\rsa.c ****         return( MBEDTLS_ERR_RSA_BAD_INPUT_DATA + ret );
 467:C:/Users/dtjld/workspace/AIoT/src/LiteOS_Lab/iot_link/network/dtls/mbedtls/mbedtls-2.16.2/library\rsa.c ****     }
 468:C:/Users/dtjld/workspace/AIoT/src/LiteOS_Lab/iot_link/network/dtls/mbedtls/mbedtls-2.16.2/library\rsa.c **** #endif
 469:C:/Users/dtjld/workspace/AIoT/src/LiteOS_Lab/iot_link/network/dtls/mbedtls/mbedtls-2.16.2/library\rsa.c **** 
 470:C:/Users/dtjld/workspace/AIoT/src/LiteOS_Lab/iot_link/network/dtls/mbedtls/mbedtls-2.16.2/library\rsa.c ****     return( 0 );
 1582              		.loc 1 470 0
 1583 00d0 0023     		movs	r3, #0
 1584              	.L99:
 471:C:/Users/dtjld/workspace/AIoT/src/LiteOS_Lab/iot_link/network/dtls/mbedtls/mbedtls-2.16.2/library\rsa.c **** }
 1585              		.loc 1 471 0
 1586 00d2 1846     		mov	r0, r3
 1587 00d4 1837     		adds	r7, r7, #24
 1588              	.LCFI39:
 1589              		.cfi_def_cfa_offset 8
 1590 00d6 BD46     		mov	sp, r7
 1591              	.LCFI40:
 1592              		.cfi_def_cfa_register 13
 1593              		@ sp needed
 1594 00d8 80BD     		pop	{r7, pc}
 1595              	.L105:
 1596 00da 00BF     		.align	2
 1597              	.L104:
 1598 00dc 80BFFFFF 		.word	-16512
 1599              		.cfi_endproc
 1600              	.LFE20:
 1602              		.section	.text.mbedtls_rsa_init,"ax",%progbits
 1603              		.align	1
 1604              		.global	mbedtls_rsa_init
 1605              		.syntax unified
 1606              		.thumb
ARM GAS  C:\Users\dtjld\AppData\Local\Temp\cck1fUMg.s 			page 38


 1607              		.thumb_func
 1608              		.fpu fpv4-sp-d16
 1610              	mbedtls_rsa_init:
 1611              	.LFB21:
 472:C:/Users/dtjld/workspace/AIoT/src/LiteOS_Lab/iot_link/network/dtls/mbedtls/mbedtls-2.16.2/library\rsa.c **** 
 473:C:/Users/dtjld/workspace/AIoT/src/LiteOS_Lab/iot_link/network/dtls/mbedtls/mbedtls-2.16.2/library\rsa.c **** /*
 474:C:/Users/dtjld/workspace/AIoT/src/LiteOS_Lab/iot_link/network/dtls/mbedtls/mbedtls-2.16.2/library\rsa.c ****  * Initialize an RSA context
 475:C:/Users/dtjld/workspace/AIoT/src/LiteOS_Lab/iot_link/network/dtls/mbedtls/mbedtls-2.16.2/library\rsa.c ****  */
 476:C:/Users/dtjld/workspace/AIoT/src/LiteOS_Lab/iot_link/network/dtls/mbedtls/mbedtls-2.16.2/library\rsa.c **** void mbedtls_rsa_init( mbedtls_rsa_context *ctx,
 477:C:/Users/dtjld/workspace/AIoT/src/LiteOS_Lab/iot_link/network/dtls/mbedtls/mbedtls-2.16.2/library\rsa.c ****                int padding,
 478:C:/Users/dtjld/workspace/AIoT/src/LiteOS_Lab/iot_link/network/dtls/mbedtls/mbedtls-2.16.2/library\rsa.c ****                int hash_id )
 479:C:/Users/dtjld/workspace/AIoT/src/LiteOS_Lab/iot_link/network/dtls/mbedtls/mbedtls-2.16.2/library\rsa.c **** {
 1612              		.loc 1 479 0
 1613              		.cfi_startproc
 1614              		@ args = 0, pretend = 0, frame = 16
 1615              		@ frame_needed = 1, uses_anonymous_args = 0
 1616 0000 80B5     		push	{r7, lr}
 1617              	.LCFI41:
 1618              		.cfi_def_cfa_offset 8
 1619              		.cfi_offset 7, -8
 1620              		.cfi_offset 14, -4
 1621 0002 84B0     		sub	sp, sp, #16
 1622              	.LCFI42:
 1623              		.cfi_def_cfa_offset 24
 1624 0004 00AF     		add	r7, sp, #0
 1625              	.LCFI43:
 1626              		.cfi_def_cfa_register 7
 1627 0006 F860     		str	r0, [r7, #12]
 1628 0008 B960     		str	r1, [r7, #8]
 1629 000a 7A60     		str	r2, [r7, #4]
 480:C:/Users/dtjld/workspace/AIoT/src/LiteOS_Lab/iot_link/network/dtls/mbedtls/mbedtls-2.16.2/library\rsa.c ****     RSA_VALIDATE( ctx != NULL );
 481:C:/Users/dtjld/workspace/AIoT/src/LiteOS_Lab/iot_link/network/dtls/mbedtls/mbedtls-2.16.2/library\rsa.c ****     RSA_VALIDATE( padding == MBEDTLS_RSA_PKCS_V15 ||
 482:C:/Users/dtjld/workspace/AIoT/src/LiteOS_Lab/iot_link/network/dtls/mbedtls/mbedtls-2.16.2/library\rsa.c ****                   padding == MBEDTLS_RSA_PKCS_V21 );
 483:C:/Users/dtjld/workspace/AIoT/src/LiteOS_Lab/iot_link/network/dtls/mbedtls/mbedtls-2.16.2/library\rsa.c **** 
 484:C:/Users/dtjld/workspace/AIoT/src/LiteOS_Lab/iot_link/network/dtls/mbedtls/mbedtls-2.16.2/library\rsa.c ****     memset( ctx, 0, sizeof( mbedtls_rsa_context ) );
 1630              		.loc 1 484 0
 1631 000c AC22     		movs	r2, #172
 1632 000e 0021     		movs	r1, #0
 1633 0010 F868     		ldr	r0, [r7, #12]
 1634 0012 FFF7FEFF 		bl	memset
 485:C:/Users/dtjld/workspace/AIoT/src/LiteOS_Lab/iot_link/network/dtls/mbedtls/mbedtls-2.16.2/library\rsa.c **** 
 486:C:/Users/dtjld/workspace/AIoT/src/LiteOS_Lab/iot_link/network/dtls/mbedtls/mbedtls-2.16.2/library\rsa.c ****     mbedtls_rsa_set_padding( ctx, padding, hash_id );
 1635              		.loc 1 486 0
 1636 0016 7A68     		ldr	r2, [r7, #4]
 1637 0018 B968     		ldr	r1, [r7, #8]
 1638 001a F868     		ldr	r0, [r7, #12]
 1639 001c FFF7FEFF 		bl	mbedtls_rsa_set_padding
 487:C:/Users/dtjld/workspace/AIoT/src/LiteOS_Lab/iot_link/network/dtls/mbedtls/mbedtls-2.16.2/library\rsa.c **** 
 488:C:/Users/dtjld/workspace/AIoT/src/LiteOS_Lab/iot_link/network/dtls/mbedtls/mbedtls-2.16.2/library\rsa.c **** #if defined(MBEDTLS_THREADING_C)
 489:C:/Users/dtjld/workspace/AIoT/src/LiteOS_Lab/iot_link/network/dtls/mbedtls/mbedtls-2.16.2/library\rsa.c ****     mbedtls_mutex_init( &ctx->mutex );
 490:C:/Users/dtjld/workspace/AIoT/src/LiteOS_Lab/iot_link/network/dtls/mbedtls/mbedtls-2.16.2/library\rsa.c **** #endif
 491:C:/Users/dtjld/workspace/AIoT/src/LiteOS_Lab/iot_link/network/dtls/mbedtls/mbedtls-2.16.2/library\rsa.c **** }
 1640              		.loc 1 491 0
 1641 0020 00BF     		nop
 1642 0022 1037     		adds	r7, r7, #16
 1643              	.LCFI44:
 1644              		.cfi_def_cfa_offset 8
ARM GAS  C:\Users\dtjld\AppData\Local\Temp\cck1fUMg.s 			page 39


 1645 0024 BD46     		mov	sp, r7
 1646              	.LCFI45:
 1647              		.cfi_def_cfa_register 13
 1648              		@ sp needed
 1649 0026 80BD     		pop	{r7, pc}
 1650              		.cfi_endproc
 1651              	.LFE21:
 1653              		.section	.text.mbedtls_rsa_set_padding,"ax",%progbits
 1654              		.align	1
 1655              		.global	mbedtls_rsa_set_padding
 1656              		.syntax unified
 1657              		.thumb
 1658              		.thumb_func
 1659              		.fpu fpv4-sp-d16
 1661              	mbedtls_rsa_set_padding:
 1662              	.LFB22:
 492:C:/Users/dtjld/workspace/AIoT/src/LiteOS_Lab/iot_link/network/dtls/mbedtls/mbedtls-2.16.2/library\rsa.c **** 
 493:C:/Users/dtjld/workspace/AIoT/src/LiteOS_Lab/iot_link/network/dtls/mbedtls/mbedtls-2.16.2/library\rsa.c **** /*
 494:C:/Users/dtjld/workspace/AIoT/src/LiteOS_Lab/iot_link/network/dtls/mbedtls/mbedtls-2.16.2/library\rsa.c ****  * Set padding for an existing RSA context
 495:C:/Users/dtjld/workspace/AIoT/src/LiteOS_Lab/iot_link/network/dtls/mbedtls/mbedtls-2.16.2/library\rsa.c ****  */
 496:C:/Users/dtjld/workspace/AIoT/src/LiteOS_Lab/iot_link/network/dtls/mbedtls/mbedtls-2.16.2/library\rsa.c **** void mbedtls_rsa_set_padding( mbedtls_rsa_context *ctx, int padding,
 497:C:/Users/dtjld/workspace/AIoT/src/LiteOS_Lab/iot_link/network/dtls/mbedtls/mbedtls-2.16.2/library\rsa.c ****                               int hash_id )
 498:C:/Users/dtjld/workspace/AIoT/src/LiteOS_Lab/iot_link/network/dtls/mbedtls/mbedtls-2.16.2/library\rsa.c **** {
 1663              		.loc 1 498 0
 1664              		.cfi_startproc
 1665              		@ args = 0, pretend = 0, frame = 16
 1666              		@ frame_needed = 1, uses_anonymous_args = 0
 1667              		@ link register save eliminated.
 1668 0000 80B4     		push	{r7}
 1669              	.LCFI46:
 1670              		.cfi_def_cfa_offset 4
 1671              		.cfi_offset 7, -4
 1672 0002 85B0     		sub	sp, sp, #20
 1673              	.LCFI47:
 1674              		.cfi_def_cfa_offset 24
 1675 0004 00AF     		add	r7, sp, #0
 1676              	.LCFI48:
 1677              		.cfi_def_cfa_register 7
 1678 0006 F860     		str	r0, [r7, #12]
 1679 0008 B960     		str	r1, [r7, #8]
 1680 000a 7A60     		str	r2, [r7, #4]
 499:C:/Users/dtjld/workspace/AIoT/src/LiteOS_Lab/iot_link/network/dtls/mbedtls/mbedtls-2.16.2/library\rsa.c ****     RSA_VALIDATE( ctx != NULL );
 500:C:/Users/dtjld/workspace/AIoT/src/LiteOS_Lab/iot_link/network/dtls/mbedtls/mbedtls-2.16.2/library\rsa.c ****     RSA_VALIDATE( padding == MBEDTLS_RSA_PKCS_V15 ||
 501:C:/Users/dtjld/workspace/AIoT/src/LiteOS_Lab/iot_link/network/dtls/mbedtls/mbedtls-2.16.2/library\rsa.c ****                   padding == MBEDTLS_RSA_PKCS_V21 );
 502:C:/Users/dtjld/workspace/AIoT/src/LiteOS_Lab/iot_link/network/dtls/mbedtls/mbedtls-2.16.2/library\rsa.c **** 
 503:C:/Users/dtjld/workspace/AIoT/src/LiteOS_Lab/iot_link/network/dtls/mbedtls/mbedtls-2.16.2/library\rsa.c ****     ctx->padding = padding;
 1681              		.loc 1 503 0
 1682 000c FB68     		ldr	r3, [r7, #12]
 1683 000e BA68     		ldr	r2, [r7, #8]
 1684 0010 C3F8A420 		str	r2, [r3, #164]
 504:C:/Users/dtjld/workspace/AIoT/src/LiteOS_Lab/iot_link/network/dtls/mbedtls/mbedtls-2.16.2/library\rsa.c ****     ctx->hash_id = hash_id;
 1685              		.loc 1 504 0
 1686 0014 FB68     		ldr	r3, [r7, #12]
 1687 0016 7A68     		ldr	r2, [r7, #4]
 1688 0018 C3F8A820 		str	r2, [r3, #168]
 505:C:/Users/dtjld/workspace/AIoT/src/LiteOS_Lab/iot_link/network/dtls/mbedtls/mbedtls-2.16.2/library\rsa.c **** }
 1689              		.loc 1 505 0
ARM GAS  C:\Users\dtjld\AppData\Local\Temp\cck1fUMg.s 			page 40


 1690 001c 00BF     		nop
 1691 001e 1437     		adds	r7, r7, #20
 1692              	.LCFI49:
 1693              		.cfi_def_cfa_offset 4
 1694 0020 BD46     		mov	sp, r7
 1695              	.LCFI50:
 1696              		.cfi_def_cfa_register 13
 1697              		@ sp needed
 1698 0022 5DF8047B 		ldr	r7, [sp], #4
 1699              	.LCFI51:
 1700              		.cfi_restore 7
 1701              		.cfi_def_cfa_offset 0
 1702 0026 7047     		bx	lr
 1703              		.cfi_endproc
 1704              	.LFE22:
 1706              		.section	.text.mbedtls_rsa_get_len,"ax",%progbits
 1707              		.align	1
 1708              		.global	mbedtls_rsa_get_len
 1709              		.syntax unified
 1710              		.thumb
 1711              		.thumb_func
 1712              		.fpu fpv4-sp-d16
 1714              	mbedtls_rsa_get_len:
 1715              	.LFB23:
 506:C:/Users/dtjld/workspace/AIoT/src/LiteOS_Lab/iot_link/network/dtls/mbedtls/mbedtls-2.16.2/library\rsa.c **** 
 507:C:/Users/dtjld/workspace/AIoT/src/LiteOS_Lab/iot_link/network/dtls/mbedtls/mbedtls-2.16.2/library\rsa.c **** /*
 508:C:/Users/dtjld/workspace/AIoT/src/LiteOS_Lab/iot_link/network/dtls/mbedtls/mbedtls-2.16.2/library\rsa.c ****  * Get length in bytes of RSA modulus
 509:C:/Users/dtjld/workspace/AIoT/src/LiteOS_Lab/iot_link/network/dtls/mbedtls/mbedtls-2.16.2/library\rsa.c ****  */
 510:C:/Users/dtjld/workspace/AIoT/src/LiteOS_Lab/iot_link/network/dtls/mbedtls/mbedtls-2.16.2/library\rsa.c **** 
 511:C:/Users/dtjld/workspace/AIoT/src/LiteOS_Lab/iot_link/network/dtls/mbedtls/mbedtls-2.16.2/library\rsa.c **** size_t mbedtls_rsa_get_len( const mbedtls_rsa_context *ctx )
 512:C:/Users/dtjld/workspace/AIoT/src/LiteOS_Lab/iot_link/network/dtls/mbedtls/mbedtls-2.16.2/library\rsa.c **** {
 1716              		.loc 1 512 0
 1717              		.cfi_startproc
 1718              		@ args = 0, pretend = 0, frame = 8
 1719              		@ frame_needed = 1, uses_anonymous_args = 0
 1720              		@ link register save eliminated.
 1721 0000 80B4     		push	{r7}
 1722              	.LCFI52:
 1723              		.cfi_def_cfa_offset 4
 1724              		.cfi_offset 7, -4
 1725 0002 83B0     		sub	sp, sp, #12
 1726              	.LCFI53:
 1727              		.cfi_def_cfa_offset 16
 1728 0004 00AF     		add	r7, sp, #0
 1729              	.LCFI54:
 1730              		.cfi_def_cfa_register 7
 1731 0006 7860     		str	r0, [r7, #4]
 513:C:/Users/dtjld/workspace/AIoT/src/LiteOS_Lab/iot_link/network/dtls/mbedtls/mbedtls-2.16.2/library\rsa.c ****     return( ctx->len );
 1732              		.loc 1 513 0
 1733 0008 7B68     		ldr	r3, [r7, #4]
 1734 000a 5B68     		ldr	r3, [r3, #4]
 514:C:/Users/dtjld/workspace/AIoT/src/LiteOS_Lab/iot_link/network/dtls/mbedtls/mbedtls-2.16.2/library\rsa.c **** }
 1735              		.loc 1 514 0
 1736 000c 1846     		mov	r0, r3
 1737 000e 0C37     		adds	r7, r7, #12
 1738              	.LCFI55:
 1739              		.cfi_def_cfa_offset 4
ARM GAS  C:\Users\dtjld\AppData\Local\Temp\cck1fUMg.s 			page 41


 1740 0010 BD46     		mov	sp, r7
 1741              	.LCFI56:
 1742              		.cfi_def_cfa_register 13
 1743              		@ sp needed
 1744 0012 5DF8047B 		ldr	r7, [sp], #4
 1745              	.LCFI57:
 1746              		.cfi_restore 7
 1747              		.cfi_def_cfa_offset 0
 1748 0016 7047     		bx	lr
 1749              		.cfi_endproc
 1750              	.LFE23:
 1752              		.section	.text.mbedtls_rsa_gen_key,"ax",%progbits
 1753              		.align	1
 1754              		.global	mbedtls_rsa_gen_key
 1755              		.syntax unified
 1756              		.thumb
 1757              		.thumb_func
 1758              		.fpu fpv4-sp-d16
 1760              	mbedtls_rsa_gen_key:
 1761              	.LFB24:
 515:C:/Users/dtjld/workspace/AIoT/src/LiteOS_Lab/iot_link/network/dtls/mbedtls/mbedtls-2.16.2/library\rsa.c **** 
 516:C:/Users/dtjld/workspace/AIoT/src/LiteOS_Lab/iot_link/network/dtls/mbedtls/mbedtls-2.16.2/library\rsa.c **** 
 517:C:/Users/dtjld/workspace/AIoT/src/LiteOS_Lab/iot_link/network/dtls/mbedtls/mbedtls-2.16.2/library\rsa.c **** #if defined(MBEDTLS_GENPRIME)
 518:C:/Users/dtjld/workspace/AIoT/src/LiteOS_Lab/iot_link/network/dtls/mbedtls/mbedtls-2.16.2/library\rsa.c **** 
 519:C:/Users/dtjld/workspace/AIoT/src/LiteOS_Lab/iot_link/network/dtls/mbedtls/mbedtls-2.16.2/library\rsa.c **** /*
 520:C:/Users/dtjld/workspace/AIoT/src/LiteOS_Lab/iot_link/network/dtls/mbedtls/mbedtls-2.16.2/library\rsa.c ****  * Generate an RSA keypair
 521:C:/Users/dtjld/workspace/AIoT/src/LiteOS_Lab/iot_link/network/dtls/mbedtls/mbedtls-2.16.2/library\rsa.c ****  *
 522:C:/Users/dtjld/workspace/AIoT/src/LiteOS_Lab/iot_link/network/dtls/mbedtls/mbedtls-2.16.2/library\rsa.c ****  * This generation method follows the RSA key pair generation procedure of
 523:C:/Users/dtjld/workspace/AIoT/src/LiteOS_Lab/iot_link/network/dtls/mbedtls/mbedtls-2.16.2/library\rsa.c ****  * FIPS 186-4 if 2^16 < exponent < 2^256 and nbits = 2048 or nbits = 3072.
 524:C:/Users/dtjld/workspace/AIoT/src/LiteOS_Lab/iot_link/network/dtls/mbedtls/mbedtls-2.16.2/library\rsa.c ****  */
 525:C:/Users/dtjld/workspace/AIoT/src/LiteOS_Lab/iot_link/network/dtls/mbedtls/mbedtls-2.16.2/library\rsa.c **** int mbedtls_rsa_gen_key( mbedtls_rsa_context *ctx,
 526:C:/Users/dtjld/workspace/AIoT/src/LiteOS_Lab/iot_link/network/dtls/mbedtls/mbedtls-2.16.2/library\rsa.c ****                  int (*f_rng)(void *, unsigned char *, size_t),
 527:C:/Users/dtjld/workspace/AIoT/src/LiteOS_Lab/iot_link/network/dtls/mbedtls/mbedtls-2.16.2/library\rsa.c ****                  void *p_rng,
 528:C:/Users/dtjld/workspace/AIoT/src/LiteOS_Lab/iot_link/network/dtls/mbedtls/mbedtls-2.16.2/library\rsa.c ****                  unsigned int nbits, int exponent )
 529:C:/Users/dtjld/workspace/AIoT/src/LiteOS_Lab/iot_link/network/dtls/mbedtls/mbedtls-2.16.2/library\rsa.c **** {
 1762              		.loc 1 529 0
 1763              		.cfi_startproc
 1764              		@ args = 4, pretend = 0, frame = 64
 1765              		@ frame_needed = 1, uses_anonymous_args = 0
 1766 0000 B0B5     		push	{r4, r5, r7, lr}
 1767              	.LCFI58:
 1768              		.cfi_def_cfa_offset 16
 1769              		.cfi_offset 4, -16
 1770              		.cfi_offset 5, -12
 1771              		.cfi_offset 7, -8
 1772              		.cfi_offset 14, -4
 1773 0002 92B0     		sub	sp, sp, #72
 1774              	.LCFI59:
 1775              		.cfi_def_cfa_offset 88
 1776 0004 02AF     		add	r7, sp, #8
 1777              	.LCFI60:
 1778              		.cfi_def_cfa 7, 80
 1779 0006 F860     		str	r0, [r7, #12]
 1780 0008 B960     		str	r1, [r7, #8]
 1781 000a 7A60     		str	r2, [r7, #4]
 1782 000c 3B60     		str	r3, [r7]
 530:C:/Users/dtjld/workspace/AIoT/src/LiteOS_Lab/iot_link/network/dtls/mbedtls/mbedtls-2.16.2/library\rsa.c ****     int ret;
ARM GAS  C:\Users\dtjld\AppData\Local\Temp\cck1fUMg.s 			page 42


 531:C:/Users/dtjld/workspace/AIoT/src/LiteOS_Lab/iot_link/network/dtls/mbedtls/mbedtls-2.16.2/library\rsa.c ****     mbedtls_mpi H, G, L;
 532:C:/Users/dtjld/workspace/AIoT/src/LiteOS_Lab/iot_link/network/dtls/mbedtls/mbedtls-2.16.2/library\rsa.c ****     int prime_quality = 0;
 1783              		.loc 1 532 0
 1784 000e 0023     		movs	r3, #0
 1785 0010 BB63     		str	r3, [r7, #56]
 533:C:/Users/dtjld/workspace/AIoT/src/LiteOS_Lab/iot_link/network/dtls/mbedtls/mbedtls-2.16.2/library\rsa.c ****     RSA_VALIDATE_RET( ctx != NULL );
 534:C:/Users/dtjld/workspace/AIoT/src/LiteOS_Lab/iot_link/network/dtls/mbedtls/mbedtls-2.16.2/library\rsa.c ****     RSA_VALIDATE_RET( f_rng != NULL );
 535:C:/Users/dtjld/workspace/AIoT/src/LiteOS_Lab/iot_link/network/dtls/mbedtls/mbedtls-2.16.2/library\rsa.c **** 
 536:C:/Users/dtjld/workspace/AIoT/src/LiteOS_Lab/iot_link/network/dtls/mbedtls/mbedtls-2.16.2/library\rsa.c ****     if( nbits < 128 || exponent < 3 || nbits % 2 != 0 )
 1786              		.loc 1 536 0
 1787 0012 3B68     		ldr	r3, [r7]
 1788 0014 7F2B     		cmp	r3, #127
 1789 0016 07D9     		bls	.L111
 1790              		.loc 1 536 0 is_stmt 0 discriminator 1
 1791 0018 3B6D     		ldr	r3, [r7, #80]
 1792 001a 022B     		cmp	r3, #2
 1793 001c 04DD     		ble	.L111
 1794              		.loc 1 536 0 discriminator 2
 1795 001e 3B68     		ldr	r3, [r7]
 1796 0020 03F00103 		and	r3, r3, #1
 1797 0024 002B     		cmp	r3, #0
 1798 0026 01D0     		beq	.L112
 1799              	.L111:
 537:C:/Users/dtjld/workspace/AIoT/src/LiteOS_Lab/iot_link/network/dtls/mbedtls/mbedtls-2.16.2/library\rsa.c ****         return( MBEDTLS_ERR_RSA_BAD_INPUT_DATA );
 1800              		.loc 1 537 0 is_stmt 1
 1801 0028 BE4B     		ldr	r3, .L159
 1802 002a 76E1     		b	.L140
 1803              	.L112:
 538:C:/Users/dtjld/workspace/AIoT/src/LiteOS_Lab/iot_link/network/dtls/mbedtls/mbedtls-2.16.2/library\rsa.c **** 
 539:C:/Users/dtjld/workspace/AIoT/src/LiteOS_Lab/iot_link/network/dtls/mbedtls/mbedtls-2.16.2/library\rsa.c ****     /*
 540:C:/Users/dtjld/workspace/AIoT/src/LiteOS_Lab/iot_link/network/dtls/mbedtls/mbedtls-2.16.2/library\rsa.c ****      * If the modulus is 1024 bit long or shorter, then the security strength of
 541:C:/Users/dtjld/workspace/AIoT/src/LiteOS_Lab/iot_link/network/dtls/mbedtls/mbedtls-2.16.2/library\rsa.c ****      * the RSA algorithm is less than or equal to 80 bits and therefore an error
 542:C:/Users/dtjld/workspace/AIoT/src/LiteOS_Lab/iot_link/network/dtls/mbedtls/mbedtls-2.16.2/library\rsa.c ****      * rate of 2^-80 is sufficient.
 543:C:/Users/dtjld/workspace/AIoT/src/LiteOS_Lab/iot_link/network/dtls/mbedtls/mbedtls-2.16.2/library\rsa.c ****      */
 544:C:/Users/dtjld/workspace/AIoT/src/LiteOS_Lab/iot_link/network/dtls/mbedtls/mbedtls-2.16.2/library\rsa.c ****     if( nbits > 1024 )
 1804              		.loc 1 544 0
 1805 002c 3B68     		ldr	r3, [r7]
 1806 002e B3F5806F 		cmp	r3, #1024
 1807 0032 01D9     		bls	.L114
 545:C:/Users/dtjld/workspace/AIoT/src/LiteOS_Lab/iot_link/network/dtls/mbedtls/mbedtls-2.16.2/library\rsa.c ****         prime_quality = MBEDTLS_MPI_GEN_PRIME_FLAG_LOW_ERR;
 1808              		.loc 1 545 0
 1809 0034 0223     		movs	r3, #2
 1810 0036 BB63     		str	r3, [r7, #56]
 1811              	.L114:
 546:C:/Users/dtjld/workspace/AIoT/src/LiteOS_Lab/iot_link/network/dtls/mbedtls/mbedtls-2.16.2/library\rsa.c **** 
 547:C:/Users/dtjld/workspace/AIoT/src/LiteOS_Lab/iot_link/network/dtls/mbedtls/mbedtls-2.16.2/library\rsa.c ****     mbedtls_mpi_init( &H );
 1812              		.loc 1 547 0
 1813 0038 07F12C03 		add	r3, r7, #44
 1814 003c 1846     		mov	r0, r3
 1815 003e FFF7FEFF 		bl	mbedtls_mpi_init
 548:C:/Users/dtjld/workspace/AIoT/src/LiteOS_Lab/iot_link/network/dtls/mbedtls/mbedtls-2.16.2/library\rsa.c ****     mbedtls_mpi_init( &G );
 1816              		.loc 1 548 0
 1817 0042 07F12003 		add	r3, r7, #32
 1818 0046 1846     		mov	r0, r3
 1819 0048 FFF7FEFF 		bl	mbedtls_mpi_init
 549:C:/Users/dtjld/workspace/AIoT/src/LiteOS_Lab/iot_link/network/dtls/mbedtls/mbedtls-2.16.2/library\rsa.c ****     mbedtls_mpi_init( &L );
 1820              		.loc 1 549 0
ARM GAS  C:\Users\dtjld\AppData\Local\Temp\cck1fUMg.s 			page 43


 1821 004c 07F11403 		add	r3, r7, #20
 1822 0050 1846     		mov	r0, r3
 1823 0052 FFF7FEFF 		bl	mbedtls_mpi_init
 550:C:/Users/dtjld/workspace/AIoT/src/LiteOS_Lab/iot_link/network/dtls/mbedtls/mbedtls-2.16.2/library\rsa.c **** 
 551:C:/Users/dtjld/workspace/AIoT/src/LiteOS_Lab/iot_link/network/dtls/mbedtls/mbedtls-2.16.2/library\rsa.c ****     /*
 552:C:/Users/dtjld/workspace/AIoT/src/LiteOS_Lab/iot_link/network/dtls/mbedtls/mbedtls-2.16.2/library\rsa.c ****      * find primes P and Q with Q < P so that:
 553:C:/Users/dtjld/workspace/AIoT/src/LiteOS_Lab/iot_link/network/dtls/mbedtls/mbedtls-2.16.2/library\rsa.c ****      * 1.  |P-Q| > 2^( nbits / 2 - 100 )
 554:C:/Users/dtjld/workspace/AIoT/src/LiteOS_Lab/iot_link/network/dtls/mbedtls/mbedtls-2.16.2/library\rsa.c ****      * 2.  GCD( E, (P-1)*(Q-1) ) == 1
 555:C:/Users/dtjld/workspace/AIoT/src/LiteOS_Lab/iot_link/network/dtls/mbedtls/mbedtls-2.16.2/library\rsa.c ****      * 3.  E^-1 mod LCM(P-1, Q-1) > 2^( nbits / 2 )
 556:C:/Users/dtjld/workspace/AIoT/src/LiteOS_Lab/iot_link/network/dtls/mbedtls/mbedtls-2.16.2/library\rsa.c ****      */
 557:C:/Users/dtjld/workspace/AIoT/src/LiteOS_Lab/iot_link/network/dtls/mbedtls/mbedtls-2.16.2/library\rsa.c ****     MBEDTLS_MPI_CHK( mbedtls_mpi_lset( &ctx->E, exponent ) );
 1824              		.loc 1 557 0
 1825 0056 FB68     		ldr	r3, [r7, #12]
 1826 0058 1433     		adds	r3, r3, #20
 1827 005a 396D     		ldr	r1, [r7, #80]
 1828 005c 1846     		mov	r0, r3
 1829 005e FFF7FEFF 		bl	mbedtls_mpi_lset
 1830 0062 F863     		str	r0, [r7, #60]
 1831 0064 FB6B     		ldr	r3, [r7, #60]
 1832 0066 002B     		cmp	r3, #0
 1833 0068 40F02081 		bne	.L141
 1834              	.L115:
 558:C:/Users/dtjld/workspace/AIoT/src/LiteOS_Lab/iot_link/network/dtls/mbedtls/mbedtls-2.16.2/library\rsa.c **** 
 559:C:/Users/dtjld/workspace/AIoT/src/LiteOS_Lab/iot_link/network/dtls/mbedtls/mbedtls-2.16.2/library\rsa.c ****     do
 560:C:/Users/dtjld/workspace/AIoT/src/LiteOS_Lab/iot_link/network/dtls/mbedtls/mbedtls-2.16.2/library\rsa.c ****     {
 561:C:/Users/dtjld/workspace/AIoT/src/LiteOS_Lab/iot_link/network/dtls/mbedtls/mbedtls-2.16.2/library\rsa.c ****         MBEDTLS_MPI_CHK( mbedtls_mpi_gen_prime( &ctx->P, nbits >> 1,
 1835              		.loc 1 561 0
 1836 006c FB68     		ldr	r3, [r7, #12]
 1837 006e 03F12C00 		add	r0, r3, #44
 1838 0072 3B68     		ldr	r3, [r7]
 1839 0074 5908     		lsrs	r1, r3, #1
 1840 0076 7B68     		ldr	r3, [r7, #4]
 1841 0078 0093     		str	r3, [sp]
 1842 007a BB68     		ldr	r3, [r7, #8]
 1843 007c BA6B     		ldr	r2, [r7, #56]
 1844 007e FFF7FEFF 		bl	mbedtls_mpi_gen_prime
 1845 0082 F863     		str	r0, [r7, #60]
 1846 0084 FB6B     		ldr	r3, [r7, #60]
 1847 0086 002B     		cmp	r3, #0
 1848 0088 40F01281 		bne	.L142
 562:C:/Users/dtjld/workspace/AIoT/src/LiteOS_Lab/iot_link/network/dtls/mbedtls/mbedtls-2.16.2/library\rsa.c ****                                                 prime_quality, f_rng, p_rng ) );
 563:C:/Users/dtjld/workspace/AIoT/src/LiteOS_Lab/iot_link/network/dtls/mbedtls/mbedtls-2.16.2/library\rsa.c **** 
 564:C:/Users/dtjld/workspace/AIoT/src/LiteOS_Lab/iot_link/network/dtls/mbedtls/mbedtls-2.16.2/library\rsa.c ****         MBEDTLS_MPI_CHK( mbedtls_mpi_gen_prime( &ctx->Q, nbits >> 1,
 1849              		.loc 1 564 0
 1850 008c FB68     		ldr	r3, [r7, #12]
 1851 008e 03F13800 		add	r0, r3, #56
 1852 0092 3B68     		ldr	r3, [r7]
 1853 0094 5908     		lsrs	r1, r3, #1
 1854 0096 7B68     		ldr	r3, [r7, #4]
 1855 0098 0093     		str	r3, [sp]
 1856 009a BB68     		ldr	r3, [r7, #8]
 1857 009c BA6B     		ldr	r2, [r7, #56]
 1858 009e FFF7FEFF 		bl	mbedtls_mpi_gen_prime
 1859 00a2 F863     		str	r0, [r7, #60]
 1860 00a4 FB6B     		ldr	r3, [r7, #60]
 1861 00a6 002B     		cmp	r3, #0
 1862 00a8 40F00481 		bne	.L143
ARM GAS  C:\Users\dtjld\AppData\Local\Temp\cck1fUMg.s 			page 44


 565:C:/Users/dtjld/workspace/AIoT/src/LiteOS_Lab/iot_link/network/dtls/mbedtls/mbedtls-2.16.2/library\rsa.c ****                                                 prime_quality, f_rng, p_rng ) );
 566:C:/Users/dtjld/workspace/AIoT/src/LiteOS_Lab/iot_link/network/dtls/mbedtls/mbedtls-2.16.2/library\rsa.c **** 
 567:C:/Users/dtjld/workspace/AIoT/src/LiteOS_Lab/iot_link/network/dtls/mbedtls/mbedtls-2.16.2/library\rsa.c ****         /* make sure the difference between p and q is not too small (FIPS 186-4 §B.3.3 step 5.4) 
 568:C:/Users/dtjld/workspace/AIoT/src/LiteOS_Lab/iot_link/network/dtls/mbedtls/mbedtls-2.16.2/library\rsa.c ****         MBEDTLS_MPI_CHK( mbedtls_mpi_sub_mpi( &H, &ctx->P, &ctx->Q ) );
 1863              		.loc 1 568 0
 1864 00ac FB68     		ldr	r3, [r7, #12]
 1865 00ae 03F12C01 		add	r1, r3, #44
 1866 00b2 FB68     		ldr	r3, [r7, #12]
 1867 00b4 03F13802 		add	r2, r3, #56
 1868 00b8 07F12C03 		add	r3, r7, #44
 1869 00bc 1846     		mov	r0, r3
 1870 00be FFF7FEFF 		bl	mbedtls_mpi_sub_mpi
 1871 00c2 F863     		str	r0, [r7, #60]
 1872 00c4 FB6B     		ldr	r3, [r7, #60]
 1873 00c6 002B     		cmp	r3, #0
 1874 00c8 40F0F680 		bne	.L144
 569:C:/Users/dtjld/workspace/AIoT/src/LiteOS_Lab/iot_link/network/dtls/mbedtls/mbedtls-2.16.2/library\rsa.c ****         if( mbedtls_mpi_bitlen( &H ) <= ( ( nbits >= 200 ) ? ( ( nbits >> 1 ) - 99 ) : 0 ) )
 1875              		.loc 1 569 0
 1876 00cc 07F12C03 		add	r3, r7, #44
 1877 00d0 1846     		mov	r0, r3
 1878 00d2 FFF7FEFF 		bl	mbedtls_mpi_bitlen
 1879 00d6 0246     		mov	r2, r0
 1880 00d8 3B68     		ldr	r3, [r7]
 1881 00da C72B     		cmp	r3, #199
 1882 00dc 03D9     		bls	.L120
 1883              		.loc 1 569 0 is_stmt 0 discriminator 1
 1884 00de 3B68     		ldr	r3, [r7]
 1885 00e0 5B08     		lsrs	r3, r3, #1
 1886 00e2 633B     		subs	r3, r3, #99
 1887 00e4 00E0     		b	.L121
 1888              	.L120:
 1889              		.loc 1 569 0 discriminator 2
 1890 00e6 0023     		movs	r3, #0
 1891              	.L121:
 1892              		.loc 1 569 0 discriminator 4
 1893 00e8 9342     		cmp	r3, r2
 1894 00ea 80F08880 		bcs	.L145
 570:C:/Users/dtjld/workspace/AIoT/src/LiteOS_Lab/iot_link/network/dtls/mbedtls/mbedtls-2.16.2/library\rsa.c ****             continue;
 571:C:/Users/dtjld/workspace/AIoT/src/LiteOS_Lab/iot_link/network/dtls/mbedtls/mbedtls-2.16.2/library\rsa.c **** 
 572:C:/Users/dtjld/workspace/AIoT/src/LiteOS_Lab/iot_link/network/dtls/mbedtls/mbedtls-2.16.2/library\rsa.c ****         /* not required by any standards, but some users rely on the fact that P > Q */
 573:C:/Users/dtjld/workspace/AIoT/src/LiteOS_Lab/iot_link/network/dtls/mbedtls/mbedtls-2.16.2/library\rsa.c ****         if( H.s < 0 )
 1895              		.loc 1 573 0 is_stmt 1
 1896 00ee FB6A     		ldr	r3, [r7, #44]
 1897 00f0 002B     		cmp	r3, #0
 1898 00f2 08DA     		bge	.L124
 574:C:/Users/dtjld/workspace/AIoT/src/LiteOS_Lab/iot_link/network/dtls/mbedtls/mbedtls-2.16.2/library\rsa.c ****             mbedtls_mpi_swap( &ctx->P, &ctx->Q );
 1899              		.loc 1 574 0
 1900 00f4 FB68     		ldr	r3, [r7, #12]
 1901 00f6 03F12C02 		add	r2, r3, #44
 1902 00fa FB68     		ldr	r3, [r7, #12]
 1903 00fc 3833     		adds	r3, r3, #56
 1904 00fe 1946     		mov	r1, r3
 1905 0100 1046     		mov	r0, r2
 1906 0102 FFF7FEFF 		bl	mbedtls_mpi_swap
 1907              	.L124:
 575:C:/Users/dtjld/workspace/AIoT/src/LiteOS_Lab/iot_link/network/dtls/mbedtls/mbedtls-2.16.2/library\rsa.c **** 
 576:C:/Users/dtjld/workspace/AIoT/src/LiteOS_Lab/iot_link/network/dtls/mbedtls/mbedtls-2.16.2/library\rsa.c ****         /* Temporarily replace P,Q by P-1, Q-1 */
ARM GAS  C:\Users\dtjld\AppData\Local\Temp\cck1fUMg.s 			page 45


 577:C:/Users/dtjld/workspace/AIoT/src/LiteOS_Lab/iot_link/network/dtls/mbedtls/mbedtls-2.16.2/library\rsa.c ****         MBEDTLS_MPI_CHK( mbedtls_mpi_sub_int( &ctx->P, &ctx->P, 1 ) );
 1908              		.loc 1 577 0
 1909 0106 FB68     		ldr	r3, [r7, #12]
 1910 0108 03F12C00 		add	r0, r3, #44
 1911 010c FB68     		ldr	r3, [r7, #12]
 1912 010e 2C33     		adds	r3, r3, #44
 1913 0110 0122     		movs	r2, #1
 1914 0112 1946     		mov	r1, r3
 1915 0114 FFF7FEFF 		bl	mbedtls_mpi_sub_int
 1916 0118 F863     		str	r0, [r7, #60]
 1917 011a FB6B     		ldr	r3, [r7, #60]
 1918 011c 002B     		cmp	r3, #0
 1919 011e 40F0CD80 		bne	.L146
 578:C:/Users/dtjld/workspace/AIoT/src/LiteOS_Lab/iot_link/network/dtls/mbedtls/mbedtls-2.16.2/library\rsa.c ****         MBEDTLS_MPI_CHK( mbedtls_mpi_sub_int( &ctx->Q, &ctx->Q, 1 ) );
 1920              		.loc 1 578 0
 1921 0122 FB68     		ldr	r3, [r7, #12]
 1922 0124 03F13800 		add	r0, r3, #56
 1923 0128 FB68     		ldr	r3, [r7, #12]
 1924 012a 3833     		adds	r3, r3, #56
 1925 012c 0122     		movs	r2, #1
 1926 012e 1946     		mov	r1, r3
 1927 0130 FFF7FEFF 		bl	mbedtls_mpi_sub_int
 1928 0134 F863     		str	r0, [r7, #60]
 1929 0136 FB6B     		ldr	r3, [r7, #60]
 1930 0138 002B     		cmp	r3, #0
 1931 013a 40F0C180 		bne	.L147
 579:C:/Users/dtjld/workspace/AIoT/src/LiteOS_Lab/iot_link/network/dtls/mbedtls/mbedtls-2.16.2/library\rsa.c ****         MBEDTLS_MPI_CHK( mbedtls_mpi_mul_mpi( &H, &ctx->P, &ctx->Q ) );
 1932              		.loc 1 579 0
 1933 013e FB68     		ldr	r3, [r7, #12]
 1934 0140 03F12C01 		add	r1, r3, #44
 1935 0144 FB68     		ldr	r3, [r7, #12]
 1936 0146 03F13802 		add	r2, r3, #56
 1937 014a 07F12C03 		add	r3, r7, #44
 1938 014e 1846     		mov	r0, r3
 1939 0150 FFF7FEFF 		bl	mbedtls_mpi_mul_mpi
 1940 0154 F863     		str	r0, [r7, #60]
 1941 0156 FB6B     		ldr	r3, [r7, #60]
 1942 0158 002B     		cmp	r3, #0
 1943 015a 40F0B380 		bne	.L148
 580:C:/Users/dtjld/workspace/AIoT/src/LiteOS_Lab/iot_link/network/dtls/mbedtls/mbedtls-2.16.2/library\rsa.c **** 
 581:C:/Users/dtjld/workspace/AIoT/src/LiteOS_Lab/iot_link/network/dtls/mbedtls/mbedtls-2.16.2/library\rsa.c ****         /* check GCD( E, (P-1)*(Q-1) ) == 1 (FIPS 186-4 §B.3.1 criterion 2(a)) */
 582:C:/Users/dtjld/workspace/AIoT/src/LiteOS_Lab/iot_link/network/dtls/mbedtls/mbedtls-2.16.2/library\rsa.c ****         MBEDTLS_MPI_CHK( mbedtls_mpi_gcd( &G, &ctx->E, &H  ) );
 1944              		.loc 1 582 0
 1945 015e FB68     		ldr	r3, [r7, #12]
 1946 0160 03F11401 		add	r1, r3, #20
 1947 0164 07F12C02 		add	r2, r7, #44
 1948 0168 07F12003 		add	r3, r7, #32
 1949 016c 1846     		mov	r0, r3
 1950 016e FFF7FEFF 		bl	mbedtls_mpi_gcd
 1951 0172 F863     		str	r0, [r7, #60]
 1952 0174 FB6B     		ldr	r3, [r7, #60]
 1953 0176 002B     		cmp	r3, #0
 1954 0178 40F0A680 		bne	.L149
 583:C:/Users/dtjld/workspace/AIoT/src/LiteOS_Lab/iot_link/network/dtls/mbedtls/mbedtls-2.16.2/library\rsa.c ****         if( mbedtls_mpi_cmp_int( &G, 1 ) != 0 )
 1955              		.loc 1 583 0
 1956 017c 07F12003 		add	r3, r7, #32
 1957 0180 0121     		movs	r1, #1
ARM GAS  C:\Users\dtjld\AppData\Local\Temp\cck1fUMg.s 			page 46


 1958 0182 1846     		mov	r0, r3
 1959 0184 FFF7FEFF 		bl	mbedtls_mpi_cmp_int
 1960 0188 0346     		mov	r3, r0
 1961 018a 002B     		cmp	r3, #0
 1962 018c 39D1     		bne	.L150
 584:C:/Users/dtjld/workspace/AIoT/src/LiteOS_Lab/iot_link/network/dtls/mbedtls/mbedtls-2.16.2/library\rsa.c ****             continue;
 585:C:/Users/dtjld/workspace/AIoT/src/LiteOS_Lab/iot_link/network/dtls/mbedtls/mbedtls-2.16.2/library\rsa.c **** 
 586:C:/Users/dtjld/workspace/AIoT/src/LiteOS_Lab/iot_link/network/dtls/mbedtls/mbedtls-2.16.2/library\rsa.c ****         /* compute smallest possible D = E^-1 mod LCM(P-1, Q-1) (FIPS 186-4 §B.3.1 criterion 3(b))
 587:C:/Users/dtjld/workspace/AIoT/src/LiteOS_Lab/iot_link/network/dtls/mbedtls/mbedtls-2.16.2/library\rsa.c ****         MBEDTLS_MPI_CHK( mbedtls_mpi_gcd( &G, &ctx->P, &ctx->Q ) );
 1963              		.loc 1 587 0
 1964 018e FB68     		ldr	r3, [r7, #12]
 1965 0190 03F12C01 		add	r1, r3, #44
 1966 0194 FB68     		ldr	r3, [r7, #12]
 1967 0196 03F13802 		add	r2, r3, #56
 1968 019a 07F12003 		add	r3, r7, #32
 1969 019e 1846     		mov	r0, r3
 1970 01a0 FFF7FEFF 		bl	mbedtls_mpi_gcd
 1971 01a4 F863     		str	r0, [r7, #60]
 1972 01a6 FB6B     		ldr	r3, [r7, #60]
 1973 01a8 002B     		cmp	r3, #0
 1974 01aa 40F08F80 		bne	.L151
 588:C:/Users/dtjld/workspace/AIoT/src/LiteOS_Lab/iot_link/network/dtls/mbedtls/mbedtls-2.16.2/library\rsa.c ****         MBEDTLS_MPI_CHK( mbedtls_mpi_div_mpi( &L, NULL, &H, &G ) );
 1975              		.loc 1 588 0
 1976 01ae 07F12003 		add	r3, r7, #32
 1977 01b2 07F12C02 		add	r2, r7, #44
 1978 01b6 07F11400 		add	r0, r7, #20
 1979 01ba 0021     		movs	r1, #0
 1980 01bc FFF7FEFF 		bl	mbedtls_mpi_div_mpi
 1981 01c0 F863     		str	r0, [r7, #60]
 1982 01c2 FB6B     		ldr	r3, [r7, #60]
 1983 01c4 002B     		cmp	r3, #0
 1984 01c6 40F08380 		bne	.L152
 589:C:/Users/dtjld/workspace/AIoT/src/LiteOS_Lab/iot_link/network/dtls/mbedtls/mbedtls-2.16.2/library\rsa.c ****         MBEDTLS_MPI_CHK( mbedtls_mpi_inv_mod( &ctx->D, &ctx->E, &L ) );
 1985              		.loc 1 589 0
 1986 01ca FB68     		ldr	r3, [r7, #12]
 1987 01cc 03F12000 		add	r0, r3, #32
 1988 01d0 FB68     		ldr	r3, [r7, #12]
 1989 01d2 1433     		adds	r3, r3, #20
 1990 01d4 07F11402 		add	r2, r7, #20
 1991 01d8 1946     		mov	r1, r3
 1992 01da FFF7FEFF 		bl	mbedtls_mpi_inv_mod
 1993 01de F863     		str	r0, [r7, #60]
 1994 01e0 FB6B     		ldr	r3, [r7, #60]
 1995 01e2 002B     		cmp	r3, #0
 1996 01e4 76D1     		bne	.L153
 590:C:/Users/dtjld/workspace/AIoT/src/LiteOS_Lab/iot_link/network/dtls/mbedtls/mbedtls-2.16.2/library\rsa.c **** 
 591:C:/Users/dtjld/workspace/AIoT/src/LiteOS_Lab/iot_link/network/dtls/mbedtls/mbedtls-2.16.2/library\rsa.c ****         if( mbedtls_mpi_bitlen( &ctx->D ) <= ( ( nbits + 1 ) / 2 ) ) // (FIPS 186-4 §B.3.1 criteri
 1997              		.loc 1 591 0
 1998 01e6 FB68     		ldr	r3, [r7, #12]
 1999 01e8 2033     		adds	r3, r3, #32
 2000 01ea 1846     		mov	r0, r3
 2001 01ec FFF7FEFF 		bl	mbedtls_mpi_bitlen
 2002 01f0 0246     		mov	r2, r0
 2003 01f2 3B68     		ldr	r3, [r7]
 2004 01f4 0133     		adds	r3, r3, #1
 2005 01f6 5B08     		lsrs	r3, r3, #1
 2006 01f8 9A42     		cmp	r2, r3
ARM GAS  C:\Users\dtjld\AppData\Local\Temp\cck1fUMg.s 			page 47


 2007 01fa 04D8     		bhi	.L154
 592:C:/Users/dtjld/workspace/AIoT/src/LiteOS_Lab/iot_link/network/dtls/mbedtls/mbedtls-2.16.2/library\rsa.c ****             continue;
 2008              		.loc 1 592 0
 2009 01fc 02E0     		b	.L123
 2010              	.L145:
 570:C:/Users/dtjld/workspace/AIoT/src/LiteOS_Lab/iot_link/network/dtls/mbedtls/mbedtls-2.16.2/library\rsa.c **** 
 2011              		.loc 1 570 0
 2012 01fe 00BF     		nop
 2013 0200 34E7     		b	.L115
 2014              	.L150:
 584:C:/Users/dtjld/workspace/AIoT/src/LiteOS_Lab/iot_link/network/dtls/mbedtls/mbedtls-2.16.2/library\rsa.c **** 
 2015              		.loc 1 584 0
 2016 0202 00BF     		nop
 2017              	.L123:
 561:C:/Users/dtjld/workspace/AIoT/src/LiteOS_Lab/iot_link/network/dtls/mbedtls/mbedtls-2.16.2/library\rsa.c ****                                                 prime_quality, f_rng, p_rng ) );
 2018              		.loc 1 561 0
 2019 0204 32E7     		b	.L115
 2020              	.L154:
 593:C:/Users/dtjld/workspace/AIoT/src/LiteOS_Lab/iot_link/network/dtls/mbedtls/mbedtls-2.16.2/library\rsa.c **** 
 594:C:/Users/dtjld/workspace/AIoT/src/LiteOS_Lab/iot_link/network/dtls/mbedtls/mbedtls-2.16.2/library\rsa.c ****         break;
 2021              		.loc 1 594 0
 2022 0206 00BF     		nop
 595:C:/Users/dtjld/workspace/AIoT/src/LiteOS_Lab/iot_link/network/dtls/mbedtls/mbedtls-2.16.2/library\rsa.c ****     }
 596:C:/Users/dtjld/workspace/AIoT/src/LiteOS_Lab/iot_link/network/dtls/mbedtls/mbedtls-2.16.2/library\rsa.c ****     while( 1 );
 597:C:/Users/dtjld/workspace/AIoT/src/LiteOS_Lab/iot_link/network/dtls/mbedtls/mbedtls-2.16.2/library\rsa.c **** 
 598:C:/Users/dtjld/workspace/AIoT/src/LiteOS_Lab/iot_link/network/dtls/mbedtls/mbedtls-2.16.2/library\rsa.c ****     /* Restore P,Q */
 599:C:/Users/dtjld/workspace/AIoT/src/LiteOS_Lab/iot_link/network/dtls/mbedtls/mbedtls-2.16.2/library\rsa.c ****     MBEDTLS_MPI_CHK( mbedtls_mpi_add_int( &ctx->P,  &ctx->P, 1 ) );
 2023              		.loc 1 599 0
 2024 0208 FB68     		ldr	r3, [r7, #12]
 2025 020a 03F12C00 		add	r0, r3, #44
 2026 020e FB68     		ldr	r3, [r7, #12]
 2027 0210 2C33     		adds	r3, r3, #44
 2028 0212 0122     		movs	r2, #1
 2029 0214 1946     		mov	r1, r3
 2030 0216 FFF7FEFF 		bl	mbedtls_mpi_add_int
 2031 021a F863     		str	r0, [r7, #60]
 2032 021c FB6B     		ldr	r3, [r7, #60]
 2033 021e 002B     		cmp	r3, #0
 2034 0220 5AD1     		bne	.L155
 600:C:/Users/dtjld/workspace/AIoT/src/LiteOS_Lab/iot_link/network/dtls/mbedtls/mbedtls-2.16.2/library\rsa.c ****     MBEDTLS_MPI_CHK( mbedtls_mpi_add_int( &ctx->Q,  &ctx->Q, 1 ) );
 2035              		.loc 1 600 0
 2036 0222 FB68     		ldr	r3, [r7, #12]
 2037 0224 03F13800 		add	r0, r3, #56
 2038 0228 FB68     		ldr	r3, [r7, #12]
 2039 022a 3833     		adds	r3, r3, #56
 2040 022c 0122     		movs	r2, #1
 2041 022e 1946     		mov	r1, r3
 2042 0230 FFF7FEFF 		bl	mbedtls_mpi_add_int
 2043 0234 F863     		str	r0, [r7, #60]
 2044 0236 FB6B     		ldr	r3, [r7, #60]
 2045 0238 002B     		cmp	r3, #0
 2046 023a 4FD1     		bne	.L156
 601:C:/Users/dtjld/workspace/AIoT/src/LiteOS_Lab/iot_link/network/dtls/mbedtls/mbedtls-2.16.2/library\rsa.c **** 
 602:C:/Users/dtjld/workspace/AIoT/src/LiteOS_Lab/iot_link/network/dtls/mbedtls/mbedtls-2.16.2/library\rsa.c ****     MBEDTLS_MPI_CHK( mbedtls_mpi_mul_mpi( &ctx->N, &ctx->P, &ctx->Q ) );
 2047              		.loc 1 602 0
 2048 023c FB68     		ldr	r3, [r7, #12]
 2049 023e 03F10800 		add	r0, r3, #8
ARM GAS  C:\Users\dtjld\AppData\Local\Temp\cck1fUMg.s 			page 48


 2050 0242 FB68     		ldr	r3, [r7, #12]
 2051 0244 03F12C01 		add	r1, r3, #44
 2052 0248 FB68     		ldr	r3, [r7, #12]
 2053 024a 3833     		adds	r3, r3, #56
 2054 024c 1A46     		mov	r2, r3
 2055 024e FFF7FEFF 		bl	mbedtls_mpi_mul_mpi
 2056 0252 F863     		str	r0, [r7, #60]
 2057 0254 FB6B     		ldr	r3, [r7, #60]
 2058 0256 002B     		cmp	r3, #0
 2059 0258 42D1     		bne	.L157
 603:C:/Users/dtjld/workspace/AIoT/src/LiteOS_Lab/iot_link/network/dtls/mbedtls/mbedtls-2.16.2/library\rsa.c **** 
 604:C:/Users/dtjld/workspace/AIoT/src/LiteOS_Lab/iot_link/network/dtls/mbedtls/mbedtls-2.16.2/library\rsa.c ****     ctx->len = mbedtls_mpi_size( &ctx->N );
 2060              		.loc 1 604 0
 2061 025a FB68     		ldr	r3, [r7, #12]
 2062 025c 0833     		adds	r3, r3, #8
 2063 025e 1846     		mov	r0, r3
 2064 0260 FFF7FEFF 		bl	mbedtls_mpi_size
 2065 0264 0246     		mov	r2, r0
 2066 0266 FB68     		ldr	r3, [r7, #12]
 2067 0268 5A60     		str	r2, [r3, #4]
 605:C:/Users/dtjld/workspace/AIoT/src/LiteOS_Lab/iot_link/network/dtls/mbedtls/mbedtls-2.16.2/library\rsa.c **** 
 606:C:/Users/dtjld/workspace/AIoT/src/LiteOS_Lab/iot_link/network/dtls/mbedtls/mbedtls-2.16.2/library\rsa.c **** #if !defined(MBEDTLS_RSA_NO_CRT)
 607:C:/Users/dtjld/workspace/AIoT/src/LiteOS_Lab/iot_link/network/dtls/mbedtls/mbedtls-2.16.2/library\rsa.c ****     /*
 608:C:/Users/dtjld/workspace/AIoT/src/LiteOS_Lab/iot_link/network/dtls/mbedtls/mbedtls-2.16.2/library\rsa.c ****      * DP = D mod (P - 1)
 609:C:/Users/dtjld/workspace/AIoT/src/LiteOS_Lab/iot_link/network/dtls/mbedtls/mbedtls-2.16.2/library\rsa.c ****      * DQ = D mod (Q - 1)
 610:C:/Users/dtjld/workspace/AIoT/src/LiteOS_Lab/iot_link/network/dtls/mbedtls/mbedtls-2.16.2/library\rsa.c ****      * QP = Q^-1 mod P
 611:C:/Users/dtjld/workspace/AIoT/src/LiteOS_Lab/iot_link/network/dtls/mbedtls/mbedtls-2.16.2/library\rsa.c ****      */
 612:C:/Users/dtjld/workspace/AIoT/src/LiteOS_Lab/iot_link/network/dtls/mbedtls/mbedtls-2.16.2/library\rsa.c ****     MBEDTLS_MPI_CHK( mbedtls_rsa_deduce_crt( &ctx->P, &ctx->Q, &ctx->D,
 2068              		.loc 1 612 0
 2069 026a FB68     		ldr	r3, [r7, #12]
 2070 026c 03F12C00 		add	r0, r3, #44
 2071 0270 FB68     		ldr	r3, [r7, #12]
 2072 0272 03F13801 		add	r1, r3, #56
 2073 0276 FB68     		ldr	r3, [r7, #12]
 2074 0278 03F12004 		add	r4, r3, #32
 2075 027c FB68     		ldr	r3, [r7, #12]
 2076 027e 03F14405 		add	r5, r3, #68
 2077 0282 FB68     		ldr	r3, [r7, #12]
 2078 0284 5033     		adds	r3, r3, #80
 2079 0286 FA68     		ldr	r2, [r7, #12]
 2080 0288 5C32     		adds	r2, r2, #92
 2081 028a 0192     		str	r2, [sp, #4]
 2082 028c 0093     		str	r3, [sp]
 2083 028e 2B46     		mov	r3, r5
 2084 0290 2246     		mov	r2, r4
 2085 0292 FFF7FEFF 		bl	mbedtls_rsa_deduce_crt
 2086 0296 F863     		str	r0, [r7, #60]
 2087 0298 FB6B     		ldr	r3, [r7, #60]
 2088 029a 002B     		cmp	r3, #0
 2089 029c 22D1     		bne	.L158
 613:C:/Users/dtjld/workspace/AIoT/src/LiteOS_Lab/iot_link/network/dtls/mbedtls/mbedtls-2.16.2/library\rsa.c ****                                              &ctx->DP, &ctx->DQ, &ctx->QP ) );
 614:C:/Users/dtjld/workspace/AIoT/src/LiteOS_Lab/iot_link/network/dtls/mbedtls/mbedtls-2.16.2/library\rsa.c **** #endif /* MBEDTLS_RSA_NO_CRT */
 615:C:/Users/dtjld/workspace/AIoT/src/LiteOS_Lab/iot_link/network/dtls/mbedtls/mbedtls-2.16.2/library\rsa.c **** 
 616:C:/Users/dtjld/workspace/AIoT/src/LiteOS_Lab/iot_link/network/dtls/mbedtls/mbedtls-2.16.2/library\rsa.c ****     /* Double-check */
 617:C:/Users/dtjld/workspace/AIoT/src/LiteOS_Lab/iot_link/network/dtls/mbedtls/mbedtls-2.16.2/library\rsa.c ****     MBEDTLS_MPI_CHK( mbedtls_rsa_check_privkey( ctx ) );
 2090              		.loc 1 617 0
 2091 029e F868     		ldr	r0, [r7, #12]
ARM GAS  C:\Users\dtjld\AppData\Local\Temp\cck1fUMg.s 			page 49


 2092 02a0 FFF7FEFF 		bl	mbedtls_rsa_check_privkey
 2093 02a4 F863     		str	r0, [r7, #60]
 2094 02a6 FB6B     		ldr	r3, [r7, #60]
 2095 02a8 002B     		cmp	r3, #0
 618:C:/Users/dtjld/workspace/AIoT/src/LiteOS_Lab/iot_link/network/dtls/mbedtls/mbedtls-2.16.2/library\rsa.c **** 
 619:C:/Users/dtjld/workspace/AIoT/src/LiteOS_Lab/iot_link/network/dtls/mbedtls/mbedtls-2.16.2/library\rsa.c **** cleanup:
 2096              		.loc 1 619 0
 2097 02aa 1CE0     		b	.L116
 2098              	.L141:
 557:C:/Users/dtjld/workspace/AIoT/src/LiteOS_Lab/iot_link/network/dtls/mbedtls/mbedtls-2.16.2/library\rsa.c **** 
 2099              		.loc 1 557 0
 2100 02ac 00BF     		nop
 2101 02ae 1AE0     		b	.L116
 2102              	.L142:
 561:C:/Users/dtjld/workspace/AIoT/src/LiteOS_Lab/iot_link/network/dtls/mbedtls/mbedtls-2.16.2/library\rsa.c ****                                                 prime_quality, f_rng, p_rng ) );
 2103              		.loc 1 561 0
 2104 02b0 00BF     		nop
 2105 02b2 18E0     		b	.L116
 2106              	.L143:
 564:C:/Users/dtjld/workspace/AIoT/src/LiteOS_Lab/iot_link/network/dtls/mbedtls/mbedtls-2.16.2/library\rsa.c ****                                                 prime_quality, f_rng, p_rng ) );
 2107              		.loc 1 564 0
 2108 02b4 00BF     		nop
 2109 02b6 16E0     		b	.L116
 2110              	.L144:
 568:C:/Users/dtjld/workspace/AIoT/src/LiteOS_Lab/iot_link/network/dtls/mbedtls/mbedtls-2.16.2/library\rsa.c ****         if( mbedtls_mpi_bitlen( &H ) <= ( ( nbits >= 200 ) ? ( ( nbits >> 1 ) - 99 ) : 0 ) )
 2111              		.loc 1 568 0
 2112 02b8 00BF     		nop
 2113 02ba 14E0     		b	.L116
 2114              	.L146:
 577:C:/Users/dtjld/workspace/AIoT/src/LiteOS_Lab/iot_link/network/dtls/mbedtls/mbedtls-2.16.2/library\rsa.c ****         MBEDTLS_MPI_CHK( mbedtls_mpi_sub_int( &ctx->Q, &ctx->Q, 1 ) );
 2115              		.loc 1 577 0
 2116 02bc 00BF     		nop
 2117 02be 12E0     		b	.L116
 2118              	.L147:
 578:C:/Users/dtjld/workspace/AIoT/src/LiteOS_Lab/iot_link/network/dtls/mbedtls/mbedtls-2.16.2/library\rsa.c ****         MBEDTLS_MPI_CHK( mbedtls_mpi_mul_mpi( &H, &ctx->P, &ctx->Q ) );
 2119              		.loc 1 578 0
 2120 02c0 00BF     		nop
 2121 02c2 10E0     		b	.L116
 2122              	.L148:
 579:C:/Users/dtjld/workspace/AIoT/src/LiteOS_Lab/iot_link/network/dtls/mbedtls/mbedtls-2.16.2/library\rsa.c **** 
 2123              		.loc 1 579 0
 2124 02c4 00BF     		nop
 2125 02c6 0EE0     		b	.L116
 2126              	.L149:
 582:C:/Users/dtjld/workspace/AIoT/src/LiteOS_Lab/iot_link/network/dtls/mbedtls/mbedtls-2.16.2/library\rsa.c ****         if( mbedtls_mpi_cmp_int( &G, 1 ) != 0 )
 2127              		.loc 1 582 0
 2128 02c8 00BF     		nop
 2129 02ca 0CE0     		b	.L116
 2130              	.L151:
 587:C:/Users/dtjld/workspace/AIoT/src/LiteOS_Lab/iot_link/network/dtls/mbedtls/mbedtls-2.16.2/library\rsa.c ****         MBEDTLS_MPI_CHK( mbedtls_mpi_div_mpi( &L, NULL, &H, &G ) );
 2131              		.loc 1 587 0
 2132 02cc 00BF     		nop
 2133 02ce 0AE0     		b	.L116
 2134              	.L152:
 588:C:/Users/dtjld/workspace/AIoT/src/LiteOS_Lab/iot_link/network/dtls/mbedtls/mbedtls-2.16.2/library\rsa.c ****         MBEDTLS_MPI_CHK( mbedtls_mpi_inv_mod( &ctx->D, &ctx->E, &L ) );
 2135              		.loc 1 588 0
 2136 02d0 00BF     		nop
ARM GAS  C:\Users\dtjld\AppData\Local\Temp\cck1fUMg.s 			page 50


 2137 02d2 08E0     		b	.L116
 2138              	.L153:
 589:C:/Users/dtjld/workspace/AIoT/src/LiteOS_Lab/iot_link/network/dtls/mbedtls/mbedtls-2.16.2/library\rsa.c **** 
 2139              		.loc 1 589 0
 2140 02d4 00BF     		nop
 2141 02d6 06E0     		b	.L116
 2142              	.L155:
 599:C:/Users/dtjld/workspace/AIoT/src/LiteOS_Lab/iot_link/network/dtls/mbedtls/mbedtls-2.16.2/library\rsa.c ****     MBEDTLS_MPI_CHK( mbedtls_mpi_add_int( &ctx->Q,  &ctx->Q, 1 ) );
 2143              		.loc 1 599 0
 2144 02d8 00BF     		nop
 2145 02da 04E0     		b	.L116
 2146              	.L156:
 600:C:/Users/dtjld/workspace/AIoT/src/LiteOS_Lab/iot_link/network/dtls/mbedtls/mbedtls-2.16.2/library\rsa.c **** 
 2147              		.loc 1 600 0
 2148 02dc 00BF     		nop
 2149 02de 02E0     		b	.L116
 2150              	.L157:
 602:C:/Users/dtjld/workspace/AIoT/src/LiteOS_Lab/iot_link/network/dtls/mbedtls/mbedtls-2.16.2/library\rsa.c **** 
 2151              		.loc 1 602 0
 2152 02e0 00BF     		nop
 2153 02e2 00E0     		b	.L116
 2154              	.L158:
 612:C:/Users/dtjld/workspace/AIoT/src/LiteOS_Lab/iot_link/network/dtls/mbedtls/mbedtls-2.16.2/library\rsa.c ****                                              &ctx->DP, &ctx->DQ, &ctx->QP ) );
 2155              		.loc 1 612 0
 2156 02e4 00BF     		nop
 2157              	.L116:
 620:C:/Users/dtjld/workspace/AIoT/src/LiteOS_Lab/iot_link/network/dtls/mbedtls/mbedtls-2.16.2/library\rsa.c **** 
 621:C:/Users/dtjld/workspace/AIoT/src/LiteOS_Lab/iot_link/network/dtls/mbedtls/mbedtls-2.16.2/library\rsa.c ****     mbedtls_mpi_free( &H );
 2158              		.loc 1 621 0
 2159 02e6 07F12C03 		add	r3, r7, #44
 2160 02ea 1846     		mov	r0, r3
 2161 02ec FFF7FEFF 		bl	mbedtls_mpi_free
 622:C:/Users/dtjld/workspace/AIoT/src/LiteOS_Lab/iot_link/network/dtls/mbedtls/mbedtls-2.16.2/library\rsa.c ****     mbedtls_mpi_free( &G );
 2162              		.loc 1 622 0
 2163 02f0 07F12003 		add	r3, r7, #32
 2164 02f4 1846     		mov	r0, r3
 2165 02f6 FFF7FEFF 		bl	mbedtls_mpi_free
 623:C:/Users/dtjld/workspace/AIoT/src/LiteOS_Lab/iot_link/network/dtls/mbedtls/mbedtls-2.16.2/library\rsa.c ****     mbedtls_mpi_free( &L );
 2166              		.loc 1 623 0
 2167 02fa 07F11403 		add	r3, r7, #20
 2168 02fe 1846     		mov	r0, r3
 2169 0300 FFF7FEFF 		bl	mbedtls_mpi_free
 624:C:/Users/dtjld/workspace/AIoT/src/LiteOS_Lab/iot_link/network/dtls/mbedtls/mbedtls-2.16.2/library\rsa.c **** 
 625:C:/Users/dtjld/workspace/AIoT/src/LiteOS_Lab/iot_link/network/dtls/mbedtls/mbedtls-2.16.2/library\rsa.c ****     if( ret != 0 )
 2170              		.loc 1 625 0
 2171 0304 FB6B     		ldr	r3, [r7, #60]
 2172 0306 002B     		cmp	r3, #0
 2173 0308 06D0     		beq	.L139
 626:C:/Users/dtjld/workspace/AIoT/src/LiteOS_Lab/iot_link/network/dtls/mbedtls/mbedtls-2.16.2/library\rsa.c ****     {
 627:C:/Users/dtjld/workspace/AIoT/src/LiteOS_Lab/iot_link/network/dtls/mbedtls/mbedtls-2.16.2/library\rsa.c ****         mbedtls_rsa_free( ctx );
 2174              		.loc 1 627 0
 2175 030a F868     		ldr	r0, [r7, #12]
 2176 030c FFF7FEFF 		bl	mbedtls_rsa_free
 628:C:/Users/dtjld/workspace/AIoT/src/LiteOS_Lab/iot_link/network/dtls/mbedtls/mbedtls-2.16.2/library\rsa.c ****         return( MBEDTLS_ERR_RSA_KEY_GEN_FAILED + ret );
 2177              		.loc 1 628 0
 2178 0310 FB6B     		ldr	r3, [r7, #60]
 2179 0312 A3F58343 		sub	r3, r3, #16768
ARM GAS  C:\Users\dtjld\AppData\Local\Temp\cck1fUMg.s 			page 51


 2180 0316 00E0     		b	.L140
 2181              	.L139:
 629:C:/Users/dtjld/workspace/AIoT/src/LiteOS_Lab/iot_link/network/dtls/mbedtls/mbedtls-2.16.2/library\rsa.c ****     }
 630:C:/Users/dtjld/workspace/AIoT/src/LiteOS_Lab/iot_link/network/dtls/mbedtls/mbedtls-2.16.2/library\rsa.c **** 
 631:C:/Users/dtjld/workspace/AIoT/src/LiteOS_Lab/iot_link/network/dtls/mbedtls/mbedtls-2.16.2/library\rsa.c ****     return( 0 );
 2182              		.loc 1 631 0
 2183 0318 0023     		movs	r3, #0
 2184              	.L140:
 632:C:/Users/dtjld/workspace/AIoT/src/LiteOS_Lab/iot_link/network/dtls/mbedtls/mbedtls-2.16.2/library\rsa.c **** }
 2185              		.loc 1 632 0 discriminator 1
 2186 031a 1846     		mov	r0, r3
 2187 031c 4037     		adds	r7, r7, #64
 2188              	.LCFI61:
 2189              		.cfi_def_cfa_offset 16
 2190 031e BD46     		mov	sp, r7
 2191              	.LCFI62:
 2192              		.cfi_def_cfa_register 13
 2193              		@ sp needed
 2194 0320 B0BD     		pop	{r4, r5, r7, pc}
 2195              	.L160:
 2196 0322 00BF     		.align	2
 2197              	.L159:
 2198 0324 80BFFFFF 		.word	-16512
 2199              		.cfi_endproc
 2200              	.LFE24:
 2202              		.section	.text.mbedtls_rsa_check_pubkey,"ax",%progbits
 2203              		.align	1
 2204              		.global	mbedtls_rsa_check_pubkey
 2205              		.syntax unified
 2206              		.thumb
 2207              		.thumb_func
 2208              		.fpu fpv4-sp-d16
 2210              	mbedtls_rsa_check_pubkey:
 2211              	.LFB25:
 633:C:/Users/dtjld/workspace/AIoT/src/LiteOS_Lab/iot_link/network/dtls/mbedtls/mbedtls-2.16.2/library\rsa.c **** 
 634:C:/Users/dtjld/workspace/AIoT/src/LiteOS_Lab/iot_link/network/dtls/mbedtls/mbedtls-2.16.2/library\rsa.c **** #endif /* MBEDTLS_GENPRIME */
 635:C:/Users/dtjld/workspace/AIoT/src/LiteOS_Lab/iot_link/network/dtls/mbedtls/mbedtls-2.16.2/library\rsa.c **** 
 636:C:/Users/dtjld/workspace/AIoT/src/LiteOS_Lab/iot_link/network/dtls/mbedtls/mbedtls-2.16.2/library\rsa.c **** /*
 637:C:/Users/dtjld/workspace/AIoT/src/LiteOS_Lab/iot_link/network/dtls/mbedtls/mbedtls-2.16.2/library\rsa.c ****  * Check a public RSA key
 638:C:/Users/dtjld/workspace/AIoT/src/LiteOS_Lab/iot_link/network/dtls/mbedtls/mbedtls-2.16.2/library\rsa.c ****  */
 639:C:/Users/dtjld/workspace/AIoT/src/LiteOS_Lab/iot_link/network/dtls/mbedtls/mbedtls-2.16.2/library\rsa.c **** int mbedtls_rsa_check_pubkey( const mbedtls_rsa_context *ctx )
 640:C:/Users/dtjld/workspace/AIoT/src/LiteOS_Lab/iot_link/network/dtls/mbedtls/mbedtls-2.16.2/library\rsa.c **** {
 2212              		.loc 1 640 0
 2213              		.cfi_startproc
 2214              		@ args = 0, pretend = 0, frame = 8
 2215              		@ frame_needed = 1, uses_anonymous_args = 0
 2216 0000 80B5     		push	{r7, lr}
 2217              	.LCFI63:
 2218              		.cfi_def_cfa_offset 8
 2219              		.cfi_offset 7, -8
 2220              		.cfi_offset 14, -4
 2221 0002 82B0     		sub	sp, sp, #8
 2222              	.LCFI64:
 2223              		.cfi_def_cfa_offset 16
 2224 0004 00AF     		add	r7, sp, #0
 2225              	.LCFI65:
 2226              		.cfi_def_cfa_register 7
ARM GAS  C:\Users\dtjld\AppData\Local\Temp\cck1fUMg.s 			page 52


 2227 0006 7860     		str	r0, [r7, #4]
 641:C:/Users/dtjld/workspace/AIoT/src/LiteOS_Lab/iot_link/network/dtls/mbedtls/mbedtls-2.16.2/library\rsa.c ****     RSA_VALIDATE_RET( ctx != NULL );
 642:C:/Users/dtjld/workspace/AIoT/src/LiteOS_Lab/iot_link/network/dtls/mbedtls/mbedtls-2.16.2/library\rsa.c **** 
 643:C:/Users/dtjld/workspace/AIoT/src/LiteOS_Lab/iot_link/network/dtls/mbedtls/mbedtls-2.16.2/library\rsa.c ****     if( rsa_check_context( ctx, 0 /* public */, 0 /* no blinding */ ) != 0 )
 2228              		.loc 1 643 0
 2229 0008 0022     		movs	r2, #0
 2230 000a 0021     		movs	r1, #0
 2231 000c 7868     		ldr	r0, [r7, #4]
 2232 000e FFF7FEFF 		bl	rsa_check_context
 2233 0012 0346     		mov	r3, r0
 2234 0014 002B     		cmp	r3, #0
 2235 0016 01D0     		beq	.L162
 644:C:/Users/dtjld/workspace/AIoT/src/LiteOS_Lab/iot_link/network/dtls/mbedtls/mbedtls-2.16.2/library\rsa.c ****         return( MBEDTLS_ERR_RSA_KEY_CHECK_FAILED );
 2236              		.loc 1 644 0
 2237 0018 174B     		ldr	r3, .L167
 2238 001a 29E0     		b	.L163
 2239              	.L162:
 645:C:/Users/dtjld/workspace/AIoT/src/LiteOS_Lab/iot_link/network/dtls/mbedtls/mbedtls-2.16.2/library\rsa.c **** 
 646:C:/Users/dtjld/workspace/AIoT/src/LiteOS_Lab/iot_link/network/dtls/mbedtls/mbedtls-2.16.2/library\rsa.c ****     if( mbedtls_mpi_bitlen( &ctx->N ) < 128 )
 2240              		.loc 1 646 0
 2241 001c 7B68     		ldr	r3, [r7, #4]
 2242 001e 0833     		adds	r3, r3, #8
 2243 0020 1846     		mov	r0, r3
 2244 0022 FFF7FEFF 		bl	mbedtls_mpi_bitlen
 2245 0026 0346     		mov	r3, r0
 2246 0028 7F2B     		cmp	r3, #127
 2247 002a 01D8     		bhi	.L164
 647:C:/Users/dtjld/workspace/AIoT/src/LiteOS_Lab/iot_link/network/dtls/mbedtls/mbedtls-2.16.2/library\rsa.c ****     {
 648:C:/Users/dtjld/workspace/AIoT/src/LiteOS_Lab/iot_link/network/dtls/mbedtls/mbedtls-2.16.2/library\rsa.c ****         return( MBEDTLS_ERR_RSA_KEY_CHECK_FAILED );
 2248              		.loc 1 648 0
 2249 002c 124B     		ldr	r3, .L167
 2250 002e 1FE0     		b	.L163
 2251              	.L164:
 649:C:/Users/dtjld/workspace/AIoT/src/LiteOS_Lab/iot_link/network/dtls/mbedtls/mbedtls-2.16.2/library\rsa.c ****     }
 650:C:/Users/dtjld/workspace/AIoT/src/LiteOS_Lab/iot_link/network/dtls/mbedtls/mbedtls-2.16.2/library\rsa.c **** 
 651:C:/Users/dtjld/workspace/AIoT/src/LiteOS_Lab/iot_link/network/dtls/mbedtls/mbedtls-2.16.2/library\rsa.c ****     if( mbedtls_mpi_get_bit( &ctx->E, 0 ) == 0 ||
 2252              		.loc 1 651 0
 2253 0030 7B68     		ldr	r3, [r7, #4]
 2254 0032 1433     		adds	r3, r3, #20
 2255 0034 0021     		movs	r1, #0
 2256 0036 1846     		mov	r0, r3
 2257 0038 FFF7FEFF 		bl	mbedtls_mpi_get_bit
 2258 003c 0346     		mov	r3, r0
 2259 003e 002B     		cmp	r3, #0
 2260 0040 13D0     		beq	.L165
 652:C:/Users/dtjld/workspace/AIoT/src/LiteOS_Lab/iot_link/network/dtls/mbedtls/mbedtls-2.16.2/library\rsa.c ****         mbedtls_mpi_bitlen( &ctx->E )     < 2  ||
 2261              		.loc 1 652 0 discriminator 1
 2262 0042 7B68     		ldr	r3, [r7, #4]
 2263 0044 1433     		adds	r3, r3, #20
 2264 0046 1846     		mov	r0, r3
 2265 0048 FFF7FEFF 		bl	mbedtls_mpi_bitlen
 2266 004c 0346     		mov	r3, r0
 651:C:/Users/dtjld/workspace/AIoT/src/LiteOS_Lab/iot_link/network/dtls/mbedtls/mbedtls-2.16.2/library\rsa.c ****         mbedtls_mpi_bitlen( &ctx->E )     < 2  ||
 2267              		.loc 1 651 0 discriminator 1
 2268 004e 012B     		cmp	r3, #1
 2269 0050 0BD9     		bls	.L165
 653:C:/Users/dtjld/workspace/AIoT/src/LiteOS_Lab/iot_link/network/dtls/mbedtls/mbedtls-2.16.2/library\rsa.c ****         mbedtls_mpi_cmp_mpi( &ctx->E, &ctx->N ) >= 0 )
ARM GAS  C:\Users\dtjld\AppData\Local\Temp\cck1fUMg.s 			page 53


 2270              		.loc 1 653 0
 2271 0052 7B68     		ldr	r3, [r7, #4]
 2272 0054 03F11402 		add	r2, r3, #20
 2273 0058 7B68     		ldr	r3, [r7, #4]
 2274 005a 0833     		adds	r3, r3, #8
 2275 005c 1946     		mov	r1, r3
 2276 005e 1046     		mov	r0, r2
 2277 0060 FFF7FEFF 		bl	mbedtls_mpi_cmp_mpi
 2278 0064 0346     		mov	r3, r0
 652:C:/Users/dtjld/workspace/AIoT/src/LiteOS_Lab/iot_link/network/dtls/mbedtls/mbedtls-2.16.2/library\rsa.c ****         mbedtls_mpi_bitlen( &ctx->E )     < 2  ||
 2279              		.loc 1 652 0
 2280 0066 002B     		cmp	r3, #0
 2281 0068 01DB     		blt	.L166
 2282              	.L165:
 654:C:/Users/dtjld/workspace/AIoT/src/LiteOS_Lab/iot_link/network/dtls/mbedtls/mbedtls-2.16.2/library\rsa.c ****     {
 655:C:/Users/dtjld/workspace/AIoT/src/LiteOS_Lab/iot_link/network/dtls/mbedtls/mbedtls-2.16.2/library\rsa.c ****         return( MBEDTLS_ERR_RSA_KEY_CHECK_FAILED );
 2283              		.loc 1 655 0
 2284 006a 034B     		ldr	r3, .L167
 2285 006c 00E0     		b	.L163
 2286              	.L166:
 656:C:/Users/dtjld/workspace/AIoT/src/LiteOS_Lab/iot_link/network/dtls/mbedtls/mbedtls-2.16.2/library\rsa.c ****     }
 657:C:/Users/dtjld/workspace/AIoT/src/LiteOS_Lab/iot_link/network/dtls/mbedtls/mbedtls-2.16.2/library\rsa.c **** 
 658:C:/Users/dtjld/workspace/AIoT/src/LiteOS_Lab/iot_link/network/dtls/mbedtls/mbedtls-2.16.2/library\rsa.c ****     return( 0 );
 2287              		.loc 1 658 0
 2288 006e 0023     		movs	r3, #0
 2289              	.L163:
 659:C:/Users/dtjld/workspace/AIoT/src/LiteOS_Lab/iot_link/network/dtls/mbedtls/mbedtls-2.16.2/library\rsa.c **** }
 2290              		.loc 1 659 0
 2291 0070 1846     		mov	r0, r3
 2292 0072 0837     		adds	r7, r7, #8
 2293              	.LCFI66:
 2294              		.cfi_def_cfa_offset 8
 2295 0074 BD46     		mov	sp, r7
 2296              	.LCFI67:
 2297              		.cfi_def_cfa_register 13
 2298              		@ sp needed
 2299 0076 80BD     		pop	{r7, pc}
 2300              	.L168:
 2301              		.align	2
 2302              	.L167:
 2303 0078 00BEFFFF 		.word	-16896
 2304              		.cfi_endproc
 2305              	.LFE25:
 2307              		.section	.text.mbedtls_rsa_check_privkey,"ax",%progbits
 2308              		.align	1
 2309              		.global	mbedtls_rsa_check_privkey
 2310              		.syntax unified
 2311              		.thumb
 2312              		.thumb_func
 2313              		.fpu fpv4-sp-d16
 2315              	mbedtls_rsa_check_privkey:
 2316              	.LFB26:
 660:C:/Users/dtjld/workspace/AIoT/src/LiteOS_Lab/iot_link/network/dtls/mbedtls/mbedtls-2.16.2/library\rsa.c **** 
 661:C:/Users/dtjld/workspace/AIoT/src/LiteOS_Lab/iot_link/network/dtls/mbedtls/mbedtls-2.16.2/library\rsa.c **** /*
 662:C:/Users/dtjld/workspace/AIoT/src/LiteOS_Lab/iot_link/network/dtls/mbedtls/mbedtls-2.16.2/library\rsa.c ****  * Check for the consistency of all fields in an RSA private key context
 663:C:/Users/dtjld/workspace/AIoT/src/LiteOS_Lab/iot_link/network/dtls/mbedtls/mbedtls-2.16.2/library\rsa.c ****  */
 664:C:/Users/dtjld/workspace/AIoT/src/LiteOS_Lab/iot_link/network/dtls/mbedtls/mbedtls-2.16.2/library\rsa.c **** int mbedtls_rsa_check_privkey( const mbedtls_rsa_context *ctx )
ARM GAS  C:\Users\dtjld\AppData\Local\Temp\cck1fUMg.s 			page 54


 665:C:/Users/dtjld/workspace/AIoT/src/LiteOS_Lab/iot_link/network/dtls/mbedtls/mbedtls-2.16.2/library\rsa.c **** {
 2317              		.loc 1 665 0
 2318              		.cfi_startproc
 2319              		@ args = 0, pretend = 0, frame = 8
 2320              		@ frame_needed = 1, uses_anonymous_args = 0
 2321 0000 B0B5     		push	{r4, r5, r7, lr}
 2322              	.LCFI68:
 2323              		.cfi_def_cfa_offset 16
 2324              		.cfi_offset 4, -16
 2325              		.cfi_offset 5, -12
 2326              		.cfi_offset 7, -8
 2327              		.cfi_offset 14, -4
 2328 0002 86B0     		sub	sp, sp, #24
 2329              	.LCFI69:
 2330              		.cfi_def_cfa_offset 40
 2331 0004 04AF     		add	r7, sp, #16
 2332              	.LCFI70:
 2333              		.cfi_def_cfa 7, 24
 2334 0006 7860     		str	r0, [r7, #4]
 666:C:/Users/dtjld/workspace/AIoT/src/LiteOS_Lab/iot_link/network/dtls/mbedtls/mbedtls-2.16.2/library\rsa.c ****     RSA_VALIDATE_RET( ctx != NULL );
 667:C:/Users/dtjld/workspace/AIoT/src/LiteOS_Lab/iot_link/network/dtls/mbedtls/mbedtls-2.16.2/library\rsa.c **** 
 668:C:/Users/dtjld/workspace/AIoT/src/LiteOS_Lab/iot_link/network/dtls/mbedtls/mbedtls-2.16.2/library\rsa.c ****     if( mbedtls_rsa_check_pubkey( ctx ) != 0 ||
 2335              		.loc 1 668 0
 2336 0008 7868     		ldr	r0, [r7, #4]
 2337 000a FFF7FEFF 		bl	mbedtls_rsa_check_pubkey
 2338 000e 0346     		mov	r3, r0
 2339 0010 002B     		cmp	r3, #0
 2340 0012 07D1     		bne	.L170
 669:C:/Users/dtjld/workspace/AIoT/src/LiteOS_Lab/iot_link/network/dtls/mbedtls/mbedtls-2.16.2/library\rsa.c ****         rsa_check_context( ctx, 1 /* private */, 1 /* blinding */ ) != 0 )
 2341              		.loc 1 669 0 discriminator 1
 2342 0014 0122     		movs	r2, #1
 2343 0016 0121     		movs	r1, #1
 2344 0018 7868     		ldr	r0, [r7, #4]
 2345 001a FFF7FEFF 		bl	rsa_check_context
 2346 001e 0346     		mov	r3, r0
 668:C:/Users/dtjld/workspace/AIoT/src/LiteOS_Lab/iot_link/network/dtls/mbedtls/mbedtls-2.16.2/library\rsa.c ****         rsa_check_context( ctx, 1 /* private */, 1 /* blinding */ ) != 0 )
 2347              		.loc 1 668 0 discriminator 1
 2348 0020 002B     		cmp	r3, #0
 2349 0022 01D0     		beq	.L171
 2350              	.L170:
 670:C:/Users/dtjld/workspace/AIoT/src/LiteOS_Lab/iot_link/network/dtls/mbedtls/mbedtls-2.16.2/library\rsa.c ****     {
 671:C:/Users/dtjld/workspace/AIoT/src/LiteOS_Lab/iot_link/network/dtls/mbedtls/mbedtls-2.16.2/library\rsa.c ****         return( MBEDTLS_ERR_RSA_KEY_CHECK_FAILED );
 2351              		.loc 1 671 0
 2352 0024 1E4B     		ldr	r3, .L175
 2353 0026 37E0     		b	.L172
 2354              	.L171:
 672:C:/Users/dtjld/workspace/AIoT/src/LiteOS_Lab/iot_link/network/dtls/mbedtls/mbedtls-2.16.2/library\rsa.c ****     }
 673:C:/Users/dtjld/workspace/AIoT/src/LiteOS_Lab/iot_link/network/dtls/mbedtls/mbedtls-2.16.2/library\rsa.c **** 
 674:C:/Users/dtjld/workspace/AIoT/src/LiteOS_Lab/iot_link/network/dtls/mbedtls/mbedtls-2.16.2/library\rsa.c ****     if( mbedtls_rsa_validate_params( &ctx->N, &ctx->P, &ctx->Q,
 2355              		.loc 1 674 0
 2356 0028 7B68     		ldr	r3, [r7, #4]
 2357 002a 03F10800 		add	r0, r3, #8
 2358 002e 7B68     		ldr	r3, [r7, #4]
 2359 0030 03F12C01 		add	r1, r3, #44
 2360 0034 7B68     		ldr	r3, [r7, #4]
 2361 0036 03F13804 		add	r4, r3, #56
 2362 003a 7B68     		ldr	r3, [r7, #4]
ARM GAS  C:\Users\dtjld\AppData\Local\Temp\cck1fUMg.s 			page 55


 2363 003c 03F12005 		add	r5, r3, #32
 2364 0040 7B68     		ldr	r3, [r7, #4]
 2365 0042 1433     		adds	r3, r3, #20
 2366 0044 0022     		movs	r2, #0
 2367 0046 0292     		str	r2, [sp, #8]
 2368 0048 0022     		movs	r2, #0
 2369 004a 0192     		str	r2, [sp, #4]
 2370 004c 0093     		str	r3, [sp]
 2371 004e 2B46     		mov	r3, r5
 2372 0050 2246     		mov	r2, r4
 2373 0052 FFF7FEFF 		bl	mbedtls_rsa_validate_params
 2374 0056 0346     		mov	r3, r0
 2375 0058 002B     		cmp	r3, #0
 2376 005a 01D0     		beq	.L173
 675:C:/Users/dtjld/workspace/AIoT/src/LiteOS_Lab/iot_link/network/dtls/mbedtls/mbedtls-2.16.2/library\rsa.c ****                                      &ctx->D, &ctx->E, NULL, NULL ) != 0 )
 676:C:/Users/dtjld/workspace/AIoT/src/LiteOS_Lab/iot_link/network/dtls/mbedtls/mbedtls-2.16.2/library\rsa.c ****     {
 677:C:/Users/dtjld/workspace/AIoT/src/LiteOS_Lab/iot_link/network/dtls/mbedtls/mbedtls-2.16.2/library\rsa.c ****         return( MBEDTLS_ERR_RSA_KEY_CHECK_FAILED );
 2377              		.loc 1 677 0
 2378 005c 104B     		ldr	r3, .L175
 2379 005e 1BE0     		b	.L172
 2380              	.L173:
 678:C:/Users/dtjld/workspace/AIoT/src/LiteOS_Lab/iot_link/network/dtls/mbedtls/mbedtls-2.16.2/library\rsa.c ****     }
 679:C:/Users/dtjld/workspace/AIoT/src/LiteOS_Lab/iot_link/network/dtls/mbedtls/mbedtls-2.16.2/library\rsa.c **** 
 680:C:/Users/dtjld/workspace/AIoT/src/LiteOS_Lab/iot_link/network/dtls/mbedtls/mbedtls-2.16.2/library\rsa.c **** #if !defined(MBEDTLS_RSA_NO_CRT)
 681:C:/Users/dtjld/workspace/AIoT/src/LiteOS_Lab/iot_link/network/dtls/mbedtls/mbedtls-2.16.2/library\rsa.c ****     else if( mbedtls_rsa_validate_crt( &ctx->P, &ctx->Q, &ctx->D,
 2381              		.loc 1 681 0
 2382 0060 7B68     		ldr	r3, [r7, #4]
 2383 0062 03F12C00 		add	r0, r3, #44
 2384 0066 7B68     		ldr	r3, [r7, #4]
 2385 0068 03F13801 		add	r1, r3, #56
 2386 006c 7B68     		ldr	r3, [r7, #4]
 2387 006e 03F12004 		add	r4, r3, #32
 2388 0072 7B68     		ldr	r3, [r7, #4]
 2389 0074 03F14405 		add	r5, r3, #68
 2390 0078 7B68     		ldr	r3, [r7, #4]
 2391 007a 5033     		adds	r3, r3, #80
 2392 007c 7A68     		ldr	r2, [r7, #4]
 2393 007e 5C32     		adds	r2, r2, #92
 2394 0080 0192     		str	r2, [sp, #4]
 2395 0082 0093     		str	r3, [sp]
 2396 0084 2B46     		mov	r3, r5
 2397 0086 2246     		mov	r2, r4
 2398 0088 FFF7FEFF 		bl	mbedtls_rsa_validate_crt
 2399 008c 0346     		mov	r3, r0
 2400 008e 002B     		cmp	r3, #0
 2401 0090 01D0     		beq	.L174
 682:C:/Users/dtjld/workspace/AIoT/src/LiteOS_Lab/iot_link/network/dtls/mbedtls/mbedtls-2.16.2/library\rsa.c ****                                        &ctx->DP, &ctx->DQ, &ctx->QP ) != 0 )
 683:C:/Users/dtjld/workspace/AIoT/src/LiteOS_Lab/iot_link/network/dtls/mbedtls/mbedtls-2.16.2/library\rsa.c ****     {
 684:C:/Users/dtjld/workspace/AIoT/src/LiteOS_Lab/iot_link/network/dtls/mbedtls/mbedtls-2.16.2/library\rsa.c ****         return( MBEDTLS_ERR_RSA_KEY_CHECK_FAILED );
 2402              		.loc 1 684 0
 2403 0092 034B     		ldr	r3, .L175
 2404 0094 00E0     		b	.L172
 2405              	.L174:
 685:C:/Users/dtjld/workspace/AIoT/src/LiteOS_Lab/iot_link/network/dtls/mbedtls/mbedtls-2.16.2/library\rsa.c ****     }
 686:C:/Users/dtjld/workspace/AIoT/src/LiteOS_Lab/iot_link/network/dtls/mbedtls/mbedtls-2.16.2/library\rsa.c **** #endif
 687:C:/Users/dtjld/workspace/AIoT/src/LiteOS_Lab/iot_link/network/dtls/mbedtls/mbedtls-2.16.2/library\rsa.c **** 
 688:C:/Users/dtjld/workspace/AIoT/src/LiteOS_Lab/iot_link/network/dtls/mbedtls/mbedtls-2.16.2/library\rsa.c ****     return( 0 );
ARM GAS  C:\Users\dtjld\AppData\Local\Temp\cck1fUMg.s 			page 56


 2406              		.loc 1 688 0
 2407 0096 0023     		movs	r3, #0
 2408              	.L172:
 689:C:/Users/dtjld/workspace/AIoT/src/LiteOS_Lab/iot_link/network/dtls/mbedtls/mbedtls-2.16.2/library\rsa.c **** }
 2409              		.loc 1 689 0
 2410 0098 1846     		mov	r0, r3
 2411 009a 0837     		adds	r7, r7, #8
 2412              	.LCFI71:
 2413              		.cfi_def_cfa_offset 16
 2414 009c BD46     		mov	sp, r7
 2415              	.LCFI72:
 2416              		.cfi_def_cfa_register 13
 2417              		@ sp needed
 2418 009e B0BD     		pop	{r4, r5, r7, pc}
 2419              	.L176:
 2420              		.align	2
 2421              	.L175:
 2422 00a0 00BEFFFF 		.word	-16896
 2423              		.cfi_endproc
 2424              	.LFE26:
 2426              		.section	.text.mbedtls_rsa_check_pub_priv,"ax",%progbits
 2427              		.align	1
 2428              		.global	mbedtls_rsa_check_pub_priv
 2429              		.syntax unified
 2430              		.thumb
 2431              		.thumb_func
 2432              		.fpu fpv4-sp-d16
 2434              	mbedtls_rsa_check_pub_priv:
 2435              	.LFB27:
 690:C:/Users/dtjld/workspace/AIoT/src/LiteOS_Lab/iot_link/network/dtls/mbedtls/mbedtls-2.16.2/library\rsa.c **** 
 691:C:/Users/dtjld/workspace/AIoT/src/LiteOS_Lab/iot_link/network/dtls/mbedtls/mbedtls-2.16.2/library\rsa.c **** /*
 692:C:/Users/dtjld/workspace/AIoT/src/LiteOS_Lab/iot_link/network/dtls/mbedtls/mbedtls-2.16.2/library\rsa.c ****  * Check if contexts holding a public and private key match
 693:C:/Users/dtjld/workspace/AIoT/src/LiteOS_Lab/iot_link/network/dtls/mbedtls/mbedtls-2.16.2/library\rsa.c ****  */
 694:C:/Users/dtjld/workspace/AIoT/src/LiteOS_Lab/iot_link/network/dtls/mbedtls/mbedtls-2.16.2/library\rsa.c **** int mbedtls_rsa_check_pub_priv( const mbedtls_rsa_context *pub,
 695:C:/Users/dtjld/workspace/AIoT/src/LiteOS_Lab/iot_link/network/dtls/mbedtls/mbedtls-2.16.2/library\rsa.c ****                                 const mbedtls_rsa_context *prv )
 696:C:/Users/dtjld/workspace/AIoT/src/LiteOS_Lab/iot_link/network/dtls/mbedtls/mbedtls-2.16.2/library\rsa.c **** {
 2436              		.loc 1 696 0
 2437              		.cfi_startproc
 2438              		@ args = 0, pretend = 0, frame = 8
 2439              		@ frame_needed = 1, uses_anonymous_args = 0
 2440 0000 80B5     		push	{r7, lr}
 2441              	.LCFI73:
 2442              		.cfi_def_cfa_offset 8
 2443              		.cfi_offset 7, -8
 2444              		.cfi_offset 14, -4
 2445 0002 82B0     		sub	sp, sp, #8
 2446              	.LCFI74:
 2447              		.cfi_def_cfa_offset 16
 2448 0004 00AF     		add	r7, sp, #0
 2449              	.LCFI75:
 2450              		.cfi_def_cfa_register 7
 2451 0006 7860     		str	r0, [r7, #4]
 2452 0008 3960     		str	r1, [r7]
 697:C:/Users/dtjld/workspace/AIoT/src/LiteOS_Lab/iot_link/network/dtls/mbedtls/mbedtls-2.16.2/library\rsa.c ****     RSA_VALIDATE_RET( pub != NULL );
 698:C:/Users/dtjld/workspace/AIoT/src/LiteOS_Lab/iot_link/network/dtls/mbedtls/mbedtls-2.16.2/library\rsa.c ****     RSA_VALIDATE_RET( prv != NULL );
 699:C:/Users/dtjld/workspace/AIoT/src/LiteOS_Lab/iot_link/network/dtls/mbedtls/mbedtls-2.16.2/library\rsa.c **** 
 700:C:/Users/dtjld/workspace/AIoT/src/LiteOS_Lab/iot_link/network/dtls/mbedtls/mbedtls-2.16.2/library\rsa.c ****     if( mbedtls_rsa_check_pubkey( pub )  != 0 ||
ARM GAS  C:\Users\dtjld\AppData\Local\Temp\cck1fUMg.s 			page 57


 2453              		.loc 1 700 0
 2454 000a 7868     		ldr	r0, [r7, #4]
 2455 000c FFF7FEFF 		bl	mbedtls_rsa_check_pubkey
 2456 0010 0346     		mov	r3, r0
 2457 0012 002B     		cmp	r3, #0
 2458 0014 05D1     		bne	.L178
 701:C:/Users/dtjld/workspace/AIoT/src/LiteOS_Lab/iot_link/network/dtls/mbedtls/mbedtls-2.16.2/library\rsa.c ****         mbedtls_rsa_check_privkey( prv ) != 0 )
 2459              		.loc 1 701 0 discriminator 1
 2460 0016 3868     		ldr	r0, [r7]
 2461 0018 FFF7FEFF 		bl	mbedtls_rsa_check_privkey
 2462 001c 0346     		mov	r3, r0
 700:C:/Users/dtjld/workspace/AIoT/src/LiteOS_Lab/iot_link/network/dtls/mbedtls/mbedtls-2.16.2/library\rsa.c ****         mbedtls_rsa_check_privkey( prv ) != 0 )
 2463              		.loc 1 700 0 discriminator 1
 2464 001e 002B     		cmp	r3, #0
 2465 0020 01D0     		beq	.L179
 2466              	.L178:
 702:C:/Users/dtjld/workspace/AIoT/src/LiteOS_Lab/iot_link/network/dtls/mbedtls/mbedtls-2.16.2/library\rsa.c ****     {
 703:C:/Users/dtjld/workspace/AIoT/src/LiteOS_Lab/iot_link/network/dtls/mbedtls/mbedtls-2.16.2/library\rsa.c ****         return( MBEDTLS_ERR_RSA_KEY_CHECK_FAILED );
 2467              		.loc 1 703 0
 2468 0022 104B     		ldr	r3, .L183
 2469 0024 1AE0     		b	.L180
 2470              	.L179:
 704:C:/Users/dtjld/workspace/AIoT/src/LiteOS_Lab/iot_link/network/dtls/mbedtls/mbedtls-2.16.2/library\rsa.c ****     }
 705:C:/Users/dtjld/workspace/AIoT/src/LiteOS_Lab/iot_link/network/dtls/mbedtls/mbedtls-2.16.2/library\rsa.c **** 
 706:C:/Users/dtjld/workspace/AIoT/src/LiteOS_Lab/iot_link/network/dtls/mbedtls/mbedtls-2.16.2/library\rsa.c ****     if( mbedtls_mpi_cmp_mpi( &pub->N, &prv->N ) != 0 ||
 2471              		.loc 1 706 0
 2472 0026 7B68     		ldr	r3, [r7, #4]
 2473 0028 03F10802 		add	r2, r3, #8
 2474 002c 3B68     		ldr	r3, [r7]
 2475 002e 0833     		adds	r3, r3, #8
 2476 0030 1946     		mov	r1, r3
 2477 0032 1046     		mov	r0, r2
 2478 0034 FFF7FEFF 		bl	mbedtls_mpi_cmp_mpi
 2479 0038 0346     		mov	r3, r0
 2480 003a 002B     		cmp	r3, #0
 2481 003c 0BD1     		bne	.L181
 707:C:/Users/dtjld/workspace/AIoT/src/LiteOS_Lab/iot_link/network/dtls/mbedtls/mbedtls-2.16.2/library\rsa.c ****         mbedtls_mpi_cmp_mpi( &pub->E, &prv->E ) != 0 )
 2482              		.loc 1 707 0 discriminator 1
 2483 003e 7B68     		ldr	r3, [r7, #4]
 2484 0040 03F11402 		add	r2, r3, #20
 2485 0044 3B68     		ldr	r3, [r7]
 2486 0046 1433     		adds	r3, r3, #20
 2487 0048 1946     		mov	r1, r3
 2488 004a 1046     		mov	r0, r2
 2489 004c FFF7FEFF 		bl	mbedtls_mpi_cmp_mpi
 2490 0050 0346     		mov	r3, r0
 706:C:/Users/dtjld/workspace/AIoT/src/LiteOS_Lab/iot_link/network/dtls/mbedtls/mbedtls-2.16.2/library\rsa.c ****         mbedtls_mpi_cmp_mpi( &pub->E, &prv->E ) != 0 )
 2491              		.loc 1 706 0 discriminator 1
 2492 0052 002B     		cmp	r3, #0
 2493 0054 01D0     		beq	.L182
 2494              	.L181:
 708:C:/Users/dtjld/workspace/AIoT/src/LiteOS_Lab/iot_link/network/dtls/mbedtls/mbedtls-2.16.2/library\rsa.c ****     {
 709:C:/Users/dtjld/workspace/AIoT/src/LiteOS_Lab/iot_link/network/dtls/mbedtls/mbedtls-2.16.2/library\rsa.c ****         return( MBEDTLS_ERR_RSA_KEY_CHECK_FAILED );
 2495              		.loc 1 709 0
 2496 0056 034B     		ldr	r3, .L183
 2497 0058 00E0     		b	.L180
 2498              	.L182:
ARM GAS  C:\Users\dtjld\AppData\Local\Temp\cck1fUMg.s 			page 58


 710:C:/Users/dtjld/workspace/AIoT/src/LiteOS_Lab/iot_link/network/dtls/mbedtls/mbedtls-2.16.2/library\rsa.c ****     }
 711:C:/Users/dtjld/workspace/AIoT/src/LiteOS_Lab/iot_link/network/dtls/mbedtls/mbedtls-2.16.2/library\rsa.c **** 
 712:C:/Users/dtjld/workspace/AIoT/src/LiteOS_Lab/iot_link/network/dtls/mbedtls/mbedtls-2.16.2/library\rsa.c ****     return( 0 );
 2499              		.loc 1 712 0
 2500 005a 0023     		movs	r3, #0
 2501              	.L180:
 713:C:/Users/dtjld/workspace/AIoT/src/LiteOS_Lab/iot_link/network/dtls/mbedtls/mbedtls-2.16.2/library\rsa.c **** }
 2502              		.loc 1 713 0
 2503 005c 1846     		mov	r0, r3
 2504 005e 0837     		adds	r7, r7, #8
 2505              	.LCFI76:
 2506              		.cfi_def_cfa_offset 8
 2507 0060 BD46     		mov	sp, r7
 2508              	.LCFI77:
 2509              		.cfi_def_cfa_register 13
 2510              		@ sp needed
 2511 0062 80BD     		pop	{r7, pc}
 2512              	.L184:
 2513              		.align	2
 2514              	.L183:
 2515 0064 00BEFFFF 		.word	-16896
 2516              		.cfi_endproc
 2517              	.LFE27:
 2519              		.section	.text.mbedtls_rsa_public,"ax",%progbits
 2520              		.align	1
 2521              		.global	mbedtls_rsa_public
 2522              		.syntax unified
 2523              		.thumb
 2524              		.thumb_func
 2525              		.fpu fpv4-sp-d16
 2527              	mbedtls_rsa_public:
 2528              	.LFB28:
 714:C:/Users/dtjld/workspace/AIoT/src/LiteOS_Lab/iot_link/network/dtls/mbedtls/mbedtls-2.16.2/library\rsa.c **** 
 715:C:/Users/dtjld/workspace/AIoT/src/LiteOS_Lab/iot_link/network/dtls/mbedtls/mbedtls-2.16.2/library\rsa.c **** /*
 716:C:/Users/dtjld/workspace/AIoT/src/LiteOS_Lab/iot_link/network/dtls/mbedtls/mbedtls-2.16.2/library\rsa.c ****  * Do an RSA public key operation
 717:C:/Users/dtjld/workspace/AIoT/src/LiteOS_Lab/iot_link/network/dtls/mbedtls/mbedtls-2.16.2/library\rsa.c ****  */
 718:C:/Users/dtjld/workspace/AIoT/src/LiteOS_Lab/iot_link/network/dtls/mbedtls/mbedtls-2.16.2/library\rsa.c **** int mbedtls_rsa_public( mbedtls_rsa_context *ctx,
 719:C:/Users/dtjld/workspace/AIoT/src/LiteOS_Lab/iot_link/network/dtls/mbedtls/mbedtls-2.16.2/library\rsa.c ****                 const unsigned char *input,
 720:C:/Users/dtjld/workspace/AIoT/src/LiteOS_Lab/iot_link/network/dtls/mbedtls/mbedtls-2.16.2/library\rsa.c ****                 unsigned char *output )
 721:C:/Users/dtjld/workspace/AIoT/src/LiteOS_Lab/iot_link/network/dtls/mbedtls/mbedtls-2.16.2/library\rsa.c **** {
 2529              		.loc 1 721 0
 2530              		.cfi_startproc
 2531              		@ args = 0, pretend = 0, frame = 40
 2532              		@ frame_needed = 1, uses_anonymous_args = 0
 2533 0000 90B5     		push	{r4, r7, lr}
 2534              	.LCFI78:
 2535              		.cfi_def_cfa_offset 12
 2536              		.cfi_offset 4, -12
 2537              		.cfi_offset 7, -8
 2538              		.cfi_offset 14, -4
 2539 0002 8DB0     		sub	sp, sp, #52
 2540              	.LCFI79:
 2541              		.cfi_def_cfa_offset 64
 2542 0004 02AF     		add	r7, sp, #8
 2543              	.LCFI80:
 2544              		.cfi_def_cfa 7, 56
 2545 0006 F860     		str	r0, [r7, #12]
ARM GAS  C:\Users\dtjld\AppData\Local\Temp\cck1fUMg.s 			page 59


 2546 0008 B960     		str	r1, [r7, #8]
 2547 000a 7A60     		str	r2, [r7, #4]
 722:C:/Users/dtjld/workspace/AIoT/src/LiteOS_Lab/iot_link/network/dtls/mbedtls/mbedtls-2.16.2/library\rsa.c ****     int ret;
 723:C:/Users/dtjld/workspace/AIoT/src/LiteOS_Lab/iot_link/network/dtls/mbedtls/mbedtls-2.16.2/library\rsa.c ****     size_t olen;
 724:C:/Users/dtjld/workspace/AIoT/src/LiteOS_Lab/iot_link/network/dtls/mbedtls/mbedtls-2.16.2/library\rsa.c ****     mbedtls_mpi T;
 725:C:/Users/dtjld/workspace/AIoT/src/LiteOS_Lab/iot_link/network/dtls/mbedtls/mbedtls-2.16.2/library\rsa.c ****     RSA_VALIDATE_RET( ctx != NULL );
 726:C:/Users/dtjld/workspace/AIoT/src/LiteOS_Lab/iot_link/network/dtls/mbedtls/mbedtls-2.16.2/library\rsa.c ****     RSA_VALIDATE_RET( input != NULL );
 727:C:/Users/dtjld/workspace/AIoT/src/LiteOS_Lab/iot_link/network/dtls/mbedtls/mbedtls-2.16.2/library\rsa.c ****     RSA_VALIDATE_RET( output != NULL );
 728:C:/Users/dtjld/workspace/AIoT/src/LiteOS_Lab/iot_link/network/dtls/mbedtls/mbedtls-2.16.2/library\rsa.c **** 
 729:C:/Users/dtjld/workspace/AIoT/src/LiteOS_Lab/iot_link/network/dtls/mbedtls/mbedtls-2.16.2/library\rsa.c ****     if( rsa_check_context( ctx, 0 /* public */, 0 /* no blinding */ ) )
 2548              		.loc 1 729 0
 2549 000c 0022     		movs	r2, #0
 2550 000e 0021     		movs	r1, #0
 2551 0010 F868     		ldr	r0, [r7, #12]
 2552 0012 FFF7FEFF 		bl	rsa_check_context
 2553 0016 0346     		mov	r3, r0
 2554 0018 002B     		cmp	r3, #0
 2555 001a 01D0     		beq	.L186
 730:C:/Users/dtjld/workspace/AIoT/src/LiteOS_Lab/iot_link/network/dtls/mbedtls/mbedtls-2.16.2/library\rsa.c ****         return( MBEDTLS_ERR_RSA_BAD_INPUT_DATA );
 2556              		.loc 1 730 0
 2557 001c 2C4B     		ldr	r3, .L196
 2558 001e 52E0     		b	.L193
 2559              	.L186:
 731:C:/Users/dtjld/workspace/AIoT/src/LiteOS_Lab/iot_link/network/dtls/mbedtls/mbedtls-2.16.2/library\rsa.c **** 
 732:C:/Users/dtjld/workspace/AIoT/src/LiteOS_Lab/iot_link/network/dtls/mbedtls/mbedtls-2.16.2/library\rsa.c ****     mbedtls_mpi_init( &T );
 2560              		.loc 1 732 0
 2561 0020 07F11403 		add	r3, r7, #20
 2562 0024 1846     		mov	r0, r3
 2563 0026 FFF7FEFF 		bl	mbedtls_mpi_init
 733:C:/Users/dtjld/workspace/AIoT/src/LiteOS_Lab/iot_link/network/dtls/mbedtls/mbedtls-2.16.2/library\rsa.c **** 
 734:C:/Users/dtjld/workspace/AIoT/src/LiteOS_Lab/iot_link/network/dtls/mbedtls/mbedtls-2.16.2/library\rsa.c **** #if defined(MBEDTLS_THREADING_C)
 735:C:/Users/dtjld/workspace/AIoT/src/LiteOS_Lab/iot_link/network/dtls/mbedtls/mbedtls-2.16.2/library\rsa.c ****     if( ( ret = mbedtls_mutex_lock( &ctx->mutex ) ) != 0 )
 736:C:/Users/dtjld/workspace/AIoT/src/LiteOS_Lab/iot_link/network/dtls/mbedtls/mbedtls-2.16.2/library\rsa.c ****         return( ret );
 737:C:/Users/dtjld/workspace/AIoT/src/LiteOS_Lab/iot_link/network/dtls/mbedtls/mbedtls-2.16.2/library\rsa.c **** #endif
 738:C:/Users/dtjld/workspace/AIoT/src/LiteOS_Lab/iot_link/network/dtls/mbedtls/mbedtls-2.16.2/library\rsa.c **** 
 739:C:/Users/dtjld/workspace/AIoT/src/LiteOS_Lab/iot_link/network/dtls/mbedtls/mbedtls-2.16.2/library\rsa.c ****     MBEDTLS_MPI_CHK( mbedtls_mpi_read_binary( &T, input, ctx->len ) );
 2564              		.loc 1 739 0
 2565 002a FB68     		ldr	r3, [r7, #12]
 2566 002c 5A68     		ldr	r2, [r3, #4]
 2567 002e 07F11403 		add	r3, r7, #20
 2568 0032 B968     		ldr	r1, [r7, #8]
 2569 0034 1846     		mov	r0, r3
 2570 0036 FFF7FEFF 		bl	mbedtls_mpi_read_binary
 2571 003a 7862     		str	r0, [r7, #36]
 2572 003c 7B6A     		ldr	r3, [r7, #36]
 2573 003e 002B     		cmp	r3, #0
 2574 0040 31D1     		bne	.L194
 740:C:/Users/dtjld/workspace/AIoT/src/LiteOS_Lab/iot_link/network/dtls/mbedtls/mbedtls-2.16.2/library\rsa.c **** 
 741:C:/Users/dtjld/workspace/AIoT/src/LiteOS_Lab/iot_link/network/dtls/mbedtls/mbedtls-2.16.2/library\rsa.c ****     if( mbedtls_mpi_cmp_mpi( &T, &ctx->N ) >= 0 )
 2575              		.loc 1 741 0
 2576 0042 FB68     		ldr	r3, [r7, #12]
 2577 0044 03F10802 		add	r2, r3, #8
 2578 0048 07F11403 		add	r3, r7, #20
 2579 004c 1146     		mov	r1, r2
 2580 004e 1846     		mov	r0, r3
 2581 0050 FFF7FEFF 		bl	mbedtls_mpi_cmp_mpi
 2582 0054 0346     		mov	r3, r0
ARM GAS  C:\Users\dtjld\AppData\Local\Temp\cck1fUMg.s 			page 60


 2583 0056 002B     		cmp	r3, #0
 2584 0058 03DB     		blt	.L190
 742:C:/Users/dtjld/workspace/AIoT/src/LiteOS_Lab/iot_link/network/dtls/mbedtls/mbedtls-2.16.2/library\rsa.c ****     {
 743:C:/Users/dtjld/workspace/AIoT/src/LiteOS_Lab/iot_link/network/dtls/mbedtls/mbedtls-2.16.2/library\rsa.c ****         ret = MBEDTLS_ERR_MPI_BAD_INPUT_DATA;
 2585              		.loc 1 743 0
 2586 005a 6FF00303 		mvn	r3, #3
 2587 005e 7B62     		str	r3, [r7, #36]
 744:C:/Users/dtjld/workspace/AIoT/src/LiteOS_Lab/iot_link/network/dtls/mbedtls/mbedtls-2.16.2/library\rsa.c ****         goto cleanup;
 2588              		.loc 1 744 0
 2589 0060 24E0     		b	.L189
 2590              	.L190:
 745:C:/Users/dtjld/workspace/AIoT/src/LiteOS_Lab/iot_link/network/dtls/mbedtls/mbedtls-2.16.2/library\rsa.c ****     }
 746:C:/Users/dtjld/workspace/AIoT/src/LiteOS_Lab/iot_link/network/dtls/mbedtls/mbedtls-2.16.2/library\rsa.c **** 
 747:C:/Users/dtjld/workspace/AIoT/src/LiteOS_Lab/iot_link/network/dtls/mbedtls/mbedtls-2.16.2/library\rsa.c ****     olen = ctx->len;
 2591              		.loc 1 747 0
 2592 0062 FB68     		ldr	r3, [r7, #12]
 2593 0064 5B68     		ldr	r3, [r3, #4]
 2594 0066 3B62     		str	r3, [r7, #32]
 748:C:/Users/dtjld/workspace/AIoT/src/LiteOS_Lab/iot_link/network/dtls/mbedtls/mbedtls-2.16.2/library\rsa.c ****     MBEDTLS_MPI_CHK( mbedtls_mpi_exp_mod( &T, &T, &ctx->E, &ctx->N, &ctx->RN ) );
 2595              		.loc 1 748 0
 2596 0068 FB68     		ldr	r3, [r7, #12]
 2597 006a 03F11402 		add	r2, r3, #20
 2598 006e FB68     		ldr	r3, [r7, #12]
 2599 0070 03F10804 		add	r4, r3, #8
 2600 0074 FB68     		ldr	r3, [r7, #12]
 2601 0076 6833     		adds	r3, r3, #104
 2602 0078 07F11401 		add	r1, r7, #20
 2603 007c 07F11400 		add	r0, r7, #20
 2604 0080 0093     		str	r3, [sp]
 2605 0082 2346     		mov	r3, r4
 2606 0084 FFF7FEFF 		bl	mbedtls_mpi_exp_mod
 2607 0088 7862     		str	r0, [r7, #36]
 2608 008a 7B6A     		ldr	r3, [r7, #36]
 2609 008c 002B     		cmp	r3, #0
 2610 008e 0CD1     		bne	.L195
 749:C:/Users/dtjld/workspace/AIoT/src/LiteOS_Lab/iot_link/network/dtls/mbedtls/mbedtls-2.16.2/library\rsa.c ****     MBEDTLS_MPI_CHK( mbedtls_mpi_write_binary( &T, output, olen ) );
 2611              		.loc 1 749 0
 2612 0090 07F11403 		add	r3, r7, #20
 2613 0094 3A6A     		ldr	r2, [r7, #32]
 2614 0096 7968     		ldr	r1, [r7, #4]
 2615 0098 1846     		mov	r0, r3
 2616 009a FFF7FEFF 		bl	mbedtls_mpi_write_binary
 2617 009e 7862     		str	r0, [r7, #36]
 2618 00a0 7B6A     		ldr	r3, [r7, #36]
 2619 00a2 002B     		cmp	r3, #0
 750:C:/Users/dtjld/workspace/AIoT/src/LiteOS_Lab/iot_link/network/dtls/mbedtls/mbedtls-2.16.2/library\rsa.c **** 
 751:C:/Users/dtjld/workspace/AIoT/src/LiteOS_Lab/iot_link/network/dtls/mbedtls/mbedtls-2.16.2/library\rsa.c **** cleanup:
 2620              		.loc 1 751 0
 2621 00a4 02E0     		b	.L189
 2622              	.L194:
 739:C:/Users/dtjld/workspace/AIoT/src/LiteOS_Lab/iot_link/network/dtls/mbedtls/mbedtls-2.16.2/library\rsa.c **** 
 2623              		.loc 1 739 0
 2624 00a6 00BF     		nop
 2625 00a8 00E0     		b	.L189
 2626              	.L195:
 748:C:/Users/dtjld/workspace/AIoT/src/LiteOS_Lab/iot_link/network/dtls/mbedtls/mbedtls-2.16.2/library\rsa.c ****     MBEDTLS_MPI_CHK( mbedtls_mpi_write_binary( &T, output, olen ) );
 2627              		.loc 1 748 0
ARM GAS  C:\Users\dtjld\AppData\Local\Temp\cck1fUMg.s 			page 61


 2628 00aa 00BF     		nop
 2629              	.L189:
 752:C:/Users/dtjld/workspace/AIoT/src/LiteOS_Lab/iot_link/network/dtls/mbedtls/mbedtls-2.16.2/library\rsa.c **** #if defined(MBEDTLS_THREADING_C)
 753:C:/Users/dtjld/workspace/AIoT/src/LiteOS_Lab/iot_link/network/dtls/mbedtls/mbedtls-2.16.2/library\rsa.c ****     if( mbedtls_mutex_unlock( &ctx->mutex ) != 0 )
 754:C:/Users/dtjld/workspace/AIoT/src/LiteOS_Lab/iot_link/network/dtls/mbedtls/mbedtls-2.16.2/library\rsa.c ****         return( MBEDTLS_ERR_THREADING_MUTEX_ERROR );
 755:C:/Users/dtjld/workspace/AIoT/src/LiteOS_Lab/iot_link/network/dtls/mbedtls/mbedtls-2.16.2/library\rsa.c **** #endif
 756:C:/Users/dtjld/workspace/AIoT/src/LiteOS_Lab/iot_link/network/dtls/mbedtls/mbedtls-2.16.2/library\rsa.c **** 
 757:C:/Users/dtjld/workspace/AIoT/src/LiteOS_Lab/iot_link/network/dtls/mbedtls/mbedtls-2.16.2/library\rsa.c ****     mbedtls_mpi_free( &T );
 2630              		.loc 1 757 0
 2631 00ac 07F11403 		add	r3, r7, #20
 2632 00b0 1846     		mov	r0, r3
 2633 00b2 FFF7FEFF 		bl	mbedtls_mpi_free
 758:C:/Users/dtjld/workspace/AIoT/src/LiteOS_Lab/iot_link/network/dtls/mbedtls/mbedtls-2.16.2/library\rsa.c **** 
 759:C:/Users/dtjld/workspace/AIoT/src/LiteOS_Lab/iot_link/network/dtls/mbedtls/mbedtls-2.16.2/library\rsa.c ****     if( ret != 0 )
 2634              		.loc 1 759 0
 2635 00b6 7B6A     		ldr	r3, [r7, #36]
 2636 00b8 002B     		cmp	r3, #0
 2637 00ba 03D0     		beq	.L192
 760:C:/Users/dtjld/workspace/AIoT/src/LiteOS_Lab/iot_link/network/dtls/mbedtls/mbedtls-2.16.2/library\rsa.c ****         return( MBEDTLS_ERR_RSA_PUBLIC_FAILED + ret );
 2638              		.loc 1 760 0
 2639 00bc 7B6A     		ldr	r3, [r7, #36]
 2640 00be A3F58543 		sub	r3, r3, #17024
 2641 00c2 00E0     		b	.L193
 2642              	.L192:
 761:C:/Users/dtjld/workspace/AIoT/src/LiteOS_Lab/iot_link/network/dtls/mbedtls/mbedtls-2.16.2/library\rsa.c **** 
 762:C:/Users/dtjld/workspace/AIoT/src/LiteOS_Lab/iot_link/network/dtls/mbedtls/mbedtls-2.16.2/library\rsa.c ****     return( 0 );
 2643              		.loc 1 762 0
 2644 00c4 0023     		movs	r3, #0
 2645              	.L193:
 763:C:/Users/dtjld/workspace/AIoT/src/LiteOS_Lab/iot_link/network/dtls/mbedtls/mbedtls-2.16.2/library\rsa.c **** }
 2646              		.loc 1 763 0 discriminator 1
 2647 00c6 1846     		mov	r0, r3
 2648 00c8 2C37     		adds	r7, r7, #44
 2649              	.LCFI81:
 2650              		.cfi_def_cfa_offset 12
 2651 00ca BD46     		mov	sp, r7
 2652              	.LCFI82:
 2653              		.cfi_def_cfa_register 13
 2654              		@ sp needed
 2655 00cc 90BD     		pop	{r4, r7, pc}
 2656              	.L197:
 2657 00ce 00BF     		.align	2
 2658              	.L196:
 2659 00d0 80BFFFFF 		.word	-16512
 2660              		.cfi_endproc
 2661              	.LFE28:
 2663              		.section	.text.rsa_prepare_blinding,"ax",%progbits
 2664              		.align	1
 2665              		.syntax unified
 2666              		.thumb
 2667              		.thumb_func
 2668              		.fpu fpv4-sp-d16
 2670              	rsa_prepare_blinding:
 2671              	.LFB29:
 764:C:/Users/dtjld/workspace/AIoT/src/LiteOS_Lab/iot_link/network/dtls/mbedtls/mbedtls-2.16.2/library\rsa.c **** 
 765:C:/Users/dtjld/workspace/AIoT/src/LiteOS_Lab/iot_link/network/dtls/mbedtls/mbedtls-2.16.2/library\rsa.c **** /*
 766:C:/Users/dtjld/workspace/AIoT/src/LiteOS_Lab/iot_link/network/dtls/mbedtls/mbedtls-2.16.2/library\rsa.c ****  * Generate or update blinding values, see section 10 of:
ARM GAS  C:\Users\dtjld\AppData\Local\Temp\cck1fUMg.s 			page 62


 767:C:/Users/dtjld/workspace/AIoT/src/LiteOS_Lab/iot_link/network/dtls/mbedtls/mbedtls-2.16.2/library\rsa.c ****  *  KOCHER, Paul C. Timing attacks on implementations of Diffie-Hellman, RSA,
 768:C:/Users/dtjld/workspace/AIoT/src/LiteOS_Lab/iot_link/network/dtls/mbedtls/mbedtls-2.16.2/library\rsa.c ****  *  DSS, and other systems. In : Advances in Cryptology-CRYPTO'96. Springer
 769:C:/Users/dtjld/workspace/AIoT/src/LiteOS_Lab/iot_link/network/dtls/mbedtls/mbedtls-2.16.2/library\rsa.c ****  *  Berlin Heidelberg, 1996. p. 104-113.
 770:C:/Users/dtjld/workspace/AIoT/src/LiteOS_Lab/iot_link/network/dtls/mbedtls/mbedtls-2.16.2/library\rsa.c ****  */
 771:C:/Users/dtjld/workspace/AIoT/src/LiteOS_Lab/iot_link/network/dtls/mbedtls/mbedtls-2.16.2/library\rsa.c **** static int rsa_prepare_blinding( mbedtls_rsa_context *ctx,
 772:C:/Users/dtjld/workspace/AIoT/src/LiteOS_Lab/iot_link/network/dtls/mbedtls/mbedtls-2.16.2/library\rsa.c ****                  int (*f_rng)(void *, unsigned char *, size_t), void *p_rng )
 773:C:/Users/dtjld/workspace/AIoT/src/LiteOS_Lab/iot_link/network/dtls/mbedtls/mbedtls-2.16.2/library\rsa.c **** {
 2672              		.loc 1 773 0
 2673              		.cfi_startproc
 2674              		@ args = 0, pretend = 0, frame = 24
 2675              		@ frame_needed = 1, uses_anonymous_args = 0
 2676 0000 90B5     		push	{r4, r7, lr}
 2677              	.LCFI83:
 2678              		.cfi_def_cfa_offset 12
 2679              		.cfi_offset 4, -12
 2680              		.cfi_offset 7, -8
 2681              		.cfi_offset 14, -4
 2682 0002 89B0     		sub	sp, sp, #36
 2683              	.LCFI84:
 2684              		.cfi_def_cfa_offset 48
 2685 0004 02AF     		add	r7, sp, #8
 2686              	.LCFI85:
 2687              		.cfi_def_cfa 7, 40
 2688 0006 F860     		str	r0, [r7, #12]
 2689 0008 B960     		str	r1, [r7, #8]
 2690 000a 7A60     		str	r2, [r7, #4]
 774:C:/Users/dtjld/workspace/AIoT/src/LiteOS_Lab/iot_link/network/dtls/mbedtls/mbedtls-2.16.2/library\rsa.c ****     int ret, count = 0;
 2691              		.loc 1 774 0
 2692 000c 0023     		movs	r3, #0
 2693 000e 3B61     		str	r3, [r7, #16]
 775:C:/Users/dtjld/workspace/AIoT/src/LiteOS_Lab/iot_link/network/dtls/mbedtls/mbedtls-2.16.2/library\rsa.c **** 
 776:C:/Users/dtjld/workspace/AIoT/src/LiteOS_Lab/iot_link/network/dtls/mbedtls/mbedtls-2.16.2/library\rsa.c ****     if( ctx->Vf.p != NULL )
 2694              		.loc 1 776 0
 2695 0010 FB68     		ldr	r3, [r7, #12]
 2696 0012 D3F8A030 		ldr	r3, [r3, #160]
 2697 0016 002B     		cmp	r3, #0
 2698 0018 3BD0     		beq	.L199
 777:C:/Users/dtjld/workspace/AIoT/src/LiteOS_Lab/iot_link/network/dtls/mbedtls/mbedtls-2.16.2/library\rsa.c ****     {
 778:C:/Users/dtjld/workspace/AIoT/src/LiteOS_Lab/iot_link/network/dtls/mbedtls/mbedtls-2.16.2/library\rsa.c ****         /* We already have blinding values, just update them by squaring */
 779:C:/Users/dtjld/workspace/AIoT/src/LiteOS_Lab/iot_link/network/dtls/mbedtls/mbedtls-2.16.2/library\rsa.c ****         MBEDTLS_MPI_CHK( mbedtls_mpi_mul_mpi( &ctx->Vi, &ctx->Vi, &ctx->Vi ) );
 2699              		.loc 1 779 0
 2700 001a FB68     		ldr	r3, [r7, #12]
 2701 001c 03F18C00 		add	r0, r3, #140
 2702 0020 FB68     		ldr	r3, [r7, #12]
 2703 0022 03F18C01 		add	r1, r3, #140
 2704 0026 FB68     		ldr	r3, [r7, #12]
 2705 0028 8C33     		adds	r3, r3, #140
 2706 002a 1A46     		mov	r2, r3
 2707 002c FFF7FEFF 		bl	mbedtls_mpi_mul_mpi
 2708 0030 7861     		str	r0, [r7, #20]
 2709 0032 7B69     		ldr	r3, [r7, #20]
 2710 0034 002B     		cmp	r3, #0
 2711 0036 7ED1     		bne	.L210
 780:C:/Users/dtjld/workspace/AIoT/src/LiteOS_Lab/iot_link/network/dtls/mbedtls/mbedtls-2.16.2/library\rsa.c ****         MBEDTLS_MPI_CHK( mbedtls_mpi_mod_mpi( &ctx->Vi, &ctx->Vi, &ctx->N ) );
 2712              		.loc 1 780 0
 2713 0038 FB68     		ldr	r3, [r7, #12]
 2714 003a 03F18C00 		add	r0, r3, #140
ARM GAS  C:\Users\dtjld\AppData\Local\Temp\cck1fUMg.s 			page 63


 2715 003e FB68     		ldr	r3, [r7, #12]
 2716 0040 03F18C01 		add	r1, r3, #140
 2717 0044 FB68     		ldr	r3, [r7, #12]
 2718 0046 0833     		adds	r3, r3, #8
 2719 0048 1A46     		mov	r2, r3
 2720 004a FFF7FEFF 		bl	mbedtls_mpi_mod_mpi
 2721 004e 7861     		str	r0, [r7, #20]
 2722 0050 7B69     		ldr	r3, [r7, #20]
 2723 0052 002B     		cmp	r3, #0
 2724 0054 71D1     		bne	.L211
 781:C:/Users/dtjld/workspace/AIoT/src/LiteOS_Lab/iot_link/network/dtls/mbedtls/mbedtls-2.16.2/library\rsa.c ****         MBEDTLS_MPI_CHK( mbedtls_mpi_mul_mpi( &ctx->Vf, &ctx->Vf, &ctx->Vf ) );
 2725              		.loc 1 781 0
 2726 0056 FB68     		ldr	r3, [r7, #12]
 2727 0058 03F19800 		add	r0, r3, #152
 2728 005c FB68     		ldr	r3, [r7, #12]
 2729 005e 03F19801 		add	r1, r3, #152
 2730 0062 FB68     		ldr	r3, [r7, #12]
 2731 0064 9833     		adds	r3, r3, #152
 2732 0066 1A46     		mov	r2, r3
 2733 0068 FFF7FEFF 		bl	mbedtls_mpi_mul_mpi
 2734 006c 7861     		str	r0, [r7, #20]
 2735 006e 7B69     		ldr	r3, [r7, #20]
 2736 0070 002B     		cmp	r3, #0
 2737 0072 64D1     		bne	.L212
 782:C:/Users/dtjld/workspace/AIoT/src/LiteOS_Lab/iot_link/network/dtls/mbedtls/mbedtls-2.16.2/library\rsa.c ****         MBEDTLS_MPI_CHK( mbedtls_mpi_mod_mpi( &ctx->Vf, &ctx->Vf, &ctx->N ) );
 2738              		.loc 1 782 0
 2739 0074 FB68     		ldr	r3, [r7, #12]
 2740 0076 03F19800 		add	r0, r3, #152
 2741 007a FB68     		ldr	r3, [r7, #12]
 2742 007c 03F19801 		add	r1, r3, #152
 2743 0080 FB68     		ldr	r3, [r7, #12]
 2744 0082 0833     		adds	r3, r3, #8
 2745 0084 1A46     		mov	r2, r3
 2746 0086 FFF7FEFF 		bl	mbedtls_mpi_mod_mpi
 2747 008a 7861     		str	r0, [r7, #20]
 2748 008c 7B69     		ldr	r3, [r7, #20]
 2749 008e 002B     		cmp	r3, #0
 783:C:/Users/dtjld/workspace/AIoT/src/LiteOS_Lab/iot_link/network/dtls/mbedtls/mbedtls-2.16.2/library\rsa.c **** 
 784:C:/Users/dtjld/workspace/AIoT/src/LiteOS_Lab/iot_link/network/dtls/mbedtls/mbedtls-2.16.2/library\rsa.c ****         goto cleanup;
 2750              		.loc 1 784 0
 2751 0090 5CE0     		b	.L201
 2752              	.L199:
 785:C:/Users/dtjld/workspace/AIoT/src/LiteOS_Lab/iot_link/network/dtls/mbedtls/mbedtls-2.16.2/library\rsa.c ****     }
 786:C:/Users/dtjld/workspace/AIoT/src/LiteOS_Lab/iot_link/network/dtls/mbedtls/mbedtls-2.16.2/library\rsa.c **** 
 787:C:/Users/dtjld/workspace/AIoT/src/LiteOS_Lab/iot_link/network/dtls/mbedtls/mbedtls-2.16.2/library\rsa.c ****     /* Unblinding value: Vf = random number, invertible mod N */
 788:C:/Users/dtjld/workspace/AIoT/src/LiteOS_Lab/iot_link/network/dtls/mbedtls/mbedtls-2.16.2/library\rsa.c ****     do {
 789:C:/Users/dtjld/workspace/AIoT/src/LiteOS_Lab/iot_link/network/dtls/mbedtls/mbedtls-2.16.2/library\rsa.c ****         if( count++ > 10 )
 2753              		.loc 1 789 0
 2754 0092 3B69     		ldr	r3, [r7, #16]
 2755 0094 5A1C     		adds	r2, r3, #1
 2756 0096 3A61     		str	r2, [r7, #16]
 2757 0098 0A2B     		cmp	r3, #10
 2758 009a 01DD     		ble	.L205
 790:C:/Users/dtjld/workspace/AIoT/src/LiteOS_Lab/iot_link/network/dtls/mbedtls/mbedtls-2.16.2/library\rsa.c ****             return( MBEDTLS_ERR_RSA_RNG_FAILED );
 2759              		.loc 1 790 0
 2760 009c 2E4B     		ldr	r3, .L216
 2761 009e 56E0     		b	.L206
ARM GAS  C:\Users\dtjld\AppData\Local\Temp\cck1fUMg.s 			page 64


 2762              	.L205:
 791:C:/Users/dtjld/workspace/AIoT/src/LiteOS_Lab/iot_link/network/dtls/mbedtls/mbedtls-2.16.2/library\rsa.c **** 
 792:C:/Users/dtjld/workspace/AIoT/src/LiteOS_Lab/iot_link/network/dtls/mbedtls/mbedtls-2.16.2/library\rsa.c ****         MBEDTLS_MPI_CHK( mbedtls_mpi_fill_random( &ctx->Vf, ctx->len - 1, f_rng, p_rng ) );
 2763              		.loc 1 792 0
 2764 00a0 FB68     		ldr	r3, [r7, #12]
 2765 00a2 03F19800 		add	r0, r3, #152
 2766 00a6 FB68     		ldr	r3, [r7, #12]
 2767 00a8 5B68     		ldr	r3, [r3, #4]
 2768 00aa 591E     		subs	r1, r3, #1
 2769 00ac 7B68     		ldr	r3, [r7, #4]
 2770 00ae BA68     		ldr	r2, [r7, #8]
 2771 00b0 FFF7FEFF 		bl	mbedtls_mpi_fill_random
 2772 00b4 7861     		str	r0, [r7, #20]
 2773 00b6 7B69     		ldr	r3, [r7, #20]
 2774 00b8 002B     		cmp	r3, #0
 2775 00ba 42D1     		bne	.L213
 793:C:/Users/dtjld/workspace/AIoT/src/LiteOS_Lab/iot_link/network/dtls/mbedtls/mbedtls-2.16.2/library\rsa.c ****         MBEDTLS_MPI_CHK( mbedtls_mpi_gcd( &ctx->Vi, &ctx->Vf, &ctx->N ) );
 2776              		.loc 1 793 0
 2777 00bc FB68     		ldr	r3, [r7, #12]
 2778 00be 03F18C00 		add	r0, r3, #140
 2779 00c2 FB68     		ldr	r3, [r7, #12]
 2780 00c4 03F19801 		add	r1, r3, #152
 2781 00c8 FB68     		ldr	r3, [r7, #12]
 2782 00ca 0833     		adds	r3, r3, #8
 2783 00cc 1A46     		mov	r2, r3
 2784 00ce FFF7FEFF 		bl	mbedtls_mpi_gcd
 2785 00d2 7861     		str	r0, [r7, #20]
 2786 00d4 7B69     		ldr	r3, [r7, #20]
 2787 00d6 002B     		cmp	r3, #0
 2788 00d8 35D1     		bne	.L214
 794:C:/Users/dtjld/workspace/AIoT/src/LiteOS_Lab/iot_link/network/dtls/mbedtls/mbedtls-2.16.2/library\rsa.c ****     } while( mbedtls_mpi_cmp_int( &ctx->Vi, 1 ) != 0 );
 2789              		.loc 1 794 0
 2790 00da FB68     		ldr	r3, [r7, #12]
 2791 00dc 8C33     		adds	r3, r3, #140
 2792 00de 0121     		movs	r1, #1
 2793 00e0 1846     		mov	r0, r3
 2794 00e2 FFF7FEFF 		bl	mbedtls_mpi_cmp_int
 2795 00e6 0346     		mov	r3, r0
 2796 00e8 002B     		cmp	r3, #0
 2797 00ea D2D1     		bne	.L199
 795:C:/Users/dtjld/workspace/AIoT/src/LiteOS_Lab/iot_link/network/dtls/mbedtls/mbedtls-2.16.2/library\rsa.c **** 
 796:C:/Users/dtjld/workspace/AIoT/src/LiteOS_Lab/iot_link/network/dtls/mbedtls/mbedtls-2.16.2/library\rsa.c ****     /* Blinding value: Vi =  Vf^(-e) mod N */
 797:C:/Users/dtjld/workspace/AIoT/src/LiteOS_Lab/iot_link/network/dtls/mbedtls/mbedtls-2.16.2/library\rsa.c ****     MBEDTLS_MPI_CHK( mbedtls_mpi_inv_mod( &ctx->Vi, &ctx->Vf, &ctx->N ) );
 2798              		.loc 1 797 0
 2799 00ec FB68     		ldr	r3, [r7, #12]
 2800 00ee 03F18C00 		add	r0, r3, #140
 2801 00f2 FB68     		ldr	r3, [r7, #12]
 2802 00f4 03F19801 		add	r1, r3, #152
 2803 00f8 FB68     		ldr	r3, [r7, #12]
 2804 00fa 0833     		adds	r3, r3, #8
 2805 00fc 1A46     		mov	r2, r3
 2806 00fe FFF7FEFF 		bl	mbedtls_mpi_inv_mod
 2807 0102 7861     		str	r0, [r7, #20]
 2808 0104 7B69     		ldr	r3, [r7, #20]
 2809 0106 002B     		cmp	r3, #0
 2810 0108 1FD1     		bne	.L215
 798:C:/Users/dtjld/workspace/AIoT/src/LiteOS_Lab/iot_link/network/dtls/mbedtls/mbedtls-2.16.2/library\rsa.c ****     MBEDTLS_MPI_CHK( mbedtls_mpi_exp_mod( &ctx->Vi, &ctx->Vi, &ctx->E, &ctx->N, &ctx->RN ) );
ARM GAS  C:\Users\dtjld\AppData\Local\Temp\cck1fUMg.s 			page 65


 2811              		.loc 1 798 0
 2812 010a FB68     		ldr	r3, [r7, #12]
 2813 010c 03F18C00 		add	r0, r3, #140
 2814 0110 FB68     		ldr	r3, [r7, #12]
 2815 0112 03F18C01 		add	r1, r3, #140
 2816 0116 FB68     		ldr	r3, [r7, #12]
 2817 0118 03F11402 		add	r2, r3, #20
 2818 011c FB68     		ldr	r3, [r7, #12]
 2819 011e 03F10804 		add	r4, r3, #8
 2820 0122 FB68     		ldr	r3, [r7, #12]
 2821 0124 6833     		adds	r3, r3, #104
 2822 0126 0093     		str	r3, [sp]
 2823 0128 2346     		mov	r3, r4
 2824 012a FFF7FEFF 		bl	mbedtls_mpi_exp_mod
 2825 012e 7861     		str	r0, [r7, #20]
 2826 0130 7B69     		ldr	r3, [r7, #20]
 2827 0132 002B     		cmp	r3, #0
 799:C:/Users/dtjld/workspace/AIoT/src/LiteOS_Lab/iot_link/network/dtls/mbedtls/mbedtls-2.16.2/library\rsa.c **** 
 800:C:/Users/dtjld/workspace/AIoT/src/LiteOS_Lab/iot_link/network/dtls/mbedtls/mbedtls-2.16.2/library\rsa.c **** 
 801:C:/Users/dtjld/workspace/AIoT/src/LiteOS_Lab/iot_link/network/dtls/mbedtls/mbedtls-2.16.2/library\rsa.c **** cleanup:
 2828              		.loc 1 801 0
 2829 0134 0AE0     		b	.L201
 2830              	.L210:
 779:C:/Users/dtjld/workspace/AIoT/src/LiteOS_Lab/iot_link/network/dtls/mbedtls/mbedtls-2.16.2/library\rsa.c ****         MBEDTLS_MPI_CHK( mbedtls_mpi_mod_mpi( &ctx->Vi, &ctx->Vi, &ctx->N ) );
 2831              		.loc 1 779 0
 2832 0136 00BF     		nop
 2833 0138 08E0     		b	.L201
 2834              	.L211:
 780:C:/Users/dtjld/workspace/AIoT/src/LiteOS_Lab/iot_link/network/dtls/mbedtls/mbedtls-2.16.2/library\rsa.c ****         MBEDTLS_MPI_CHK( mbedtls_mpi_mul_mpi( &ctx->Vf, &ctx->Vf, &ctx->Vf ) );
 2835              		.loc 1 780 0
 2836 013a 00BF     		nop
 2837 013c 06E0     		b	.L201
 2838              	.L212:
 781:C:/Users/dtjld/workspace/AIoT/src/LiteOS_Lab/iot_link/network/dtls/mbedtls/mbedtls-2.16.2/library\rsa.c ****         MBEDTLS_MPI_CHK( mbedtls_mpi_mod_mpi( &ctx->Vf, &ctx->Vf, &ctx->N ) );
 2839              		.loc 1 781 0
 2840 013e 00BF     		nop
 2841 0140 04E0     		b	.L201
 2842              	.L213:
 792:C:/Users/dtjld/workspace/AIoT/src/LiteOS_Lab/iot_link/network/dtls/mbedtls/mbedtls-2.16.2/library\rsa.c ****         MBEDTLS_MPI_CHK( mbedtls_mpi_gcd( &ctx->Vi, &ctx->Vf, &ctx->N ) );
 2843              		.loc 1 792 0
 2844 0142 00BF     		nop
 2845 0144 02E0     		b	.L201
 2846              	.L214:
 793:C:/Users/dtjld/workspace/AIoT/src/LiteOS_Lab/iot_link/network/dtls/mbedtls/mbedtls-2.16.2/library\rsa.c ****     } while( mbedtls_mpi_cmp_int( &ctx->Vi, 1 ) != 0 );
 2847              		.loc 1 793 0
 2848 0146 00BF     		nop
 2849 0148 00E0     		b	.L201
 2850              	.L215:
 797:C:/Users/dtjld/workspace/AIoT/src/LiteOS_Lab/iot_link/network/dtls/mbedtls/mbedtls-2.16.2/library\rsa.c ****     MBEDTLS_MPI_CHK( mbedtls_mpi_exp_mod( &ctx->Vi, &ctx->Vi, &ctx->E, &ctx->N, &ctx->RN ) );
 2851              		.loc 1 797 0
 2852 014a 00BF     		nop
 2853              	.L201:
 802:C:/Users/dtjld/workspace/AIoT/src/LiteOS_Lab/iot_link/network/dtls/mbedtls/mbedtls-2.16.2/library\rsa.c ****     return( ret );
 2854              		.loc 1 802 0
 2855 014c 7B69     		ldr	r3, [r7, #20]
 2856              	.L206:
 803:C:/Users/dtjld/workspace/AIoT/src/LiteOS_Lab/iot_link/network/dtls/mbedtls/mbedtls-2.16.2/library\rsa.c **** }
ARM GAS  C:\Users\dtjld\AppData\Local\Temp\cck1fUMg.s 			page 66


 2857              		.loc 1 803 0
 2858 014e 1846     		mov	r0, r3
 2859 0150 1C37     		adds	r7, r7, #28
 2860              	.LCFI86:
 2861              		.cfi_def_cfa_offset 12
 2862 0152 BD46     		mov	sp, r7
 2863              	.LCFI87:
 2864              		.cfi_def_cfa_register 13
 2865              		@ sp needed
 2866 0154 90BD     		pop	{r4, r7, pc}
 2867              	.L217:
 2868 0156 00BF     		.align	2
 2869              	.L216:
 2870 0158 80BBFFFF 		.word	-17536
 2871              		.cfi_endproc
 2872              	.LFE29:
 2874              		.section	.text.mbedtls_rsa_private,"ax",%progbits
 2875              		.align	1
 2876              		.global	mbedtls_rsa_private
 2877              		.syntax unified
 2878              		.thumb
 2879              		.thumb_func
 2880              		.fpu fpv4-sp-d16
 2882              	mbedtls_rsa_private:
 2883              	.LFB30:
 804:C:/Users/dtjld/workspace/AIoT/src/LiteOS_Lab/iot_link/network/dtls/mbedtls/mbedtls-2.16.2/library\rsa.c **** 
 805:C:/Users/dtjld/workspace/AIoT/src/LiteOS_Lab/iot_link/network/dtls/mbedtls/mbedtls-2.16.2/library\rsa.c **** /*
 806:C:/Users/dtjld/workspace/AIoT/src/LiteOS_Lab/iot_link/network/dtls/mbedtls/mbedtls-2.16.2/library\rsa.c ****  * Exponent blinding supposed to prevent side-channel attacks using multiple
 807:C:/Users/dtjld/workspace/AIoT/src/LiteOS_Lab/iot_link/network/dtls/mbedtls/mbedtls-2.16.2/library\rsa.c ****  * traces of measurements to recover the RSA key. The more collisions are there,
 808:C:/Users/dtjld/workspace/AIoT/src/LiteOS_Lab/iot_link/network/dtls/mbedtls/mbedtls-2.16.2/library\rsa.c ****  * the more bits of the key can be recovered. See [3].
 809:C:/Users/dtjld/workspace/AIoT/src/LiteOS_Lab/iot_link/network/dtls/mbedtls/mbedtls-2.16.2/library\rsa.c ****  *
 810:C:/Users/dtjld/workspace/AIoT/src/LiteOS_Lab/iot_link/network/dtls/mbedtls/mbedtls-2.16.2/library\rsa.c ****  * Collecting n collisions with m bit long blinding value requires 2^(m-m/n)
 811:C:/Users/dtjld/workspace/AIoT/src/LiteOS_Lab/iot_link/network/dtls/mbedtls/mbedtls-2.16.2/library\rsa.c ****  * observations on avarage.
 812:C:/Users/dtjld/workspace/AIoT/src/LiteOS_Lab/iot_link/network/dtls/mbedtls/mbedtls-2.16.2/library\rsa.c ****  *
 813:C:/Users/dtjld/workspace/AIoT/src/LiteOS_Lab/iot_link/network/dtls/mbedtls/mbedtls-2.16.2/library\rsa.c ****  * For example with 28 byte blinding to achieve 2 collisions the adversary has
 814:C:/Users/dtjld/workspace/AIoT/src/LiteOS_Lab/iot_link/network/dtls/mbedtls/mbedtls-2.16.2/library\rsa.c ****  * to make 2^112 observations on avarage.
 815:C:/Users/dtjld/workspace/AIoT/src/LiteOS_Lab/iot_link/network/dtls/mbedtls/mbedtls-2.16.2/library\rsa.c ****  *
 816:C:/Users/dtjld/workspace/AIoT/src/LiteOS_Lab/iot_link/network/dtls/mbedtls/mbedtls-2.16.2/library\rsa.c ****  * (With the currently (as of 2017 April) known best algorithms breaking 2048
 817:C:/Users/dtjld/workspace/AIoT/src/LiteOS_Lab/iot_link/network/dtls/mbedtls/mbedtls-2.16.2/library\rsa.c ****  * bit RSA requires approximately as much time as trying out 2^112 random keys.
 818:C:/Users/dtjld/workspace/AIoT/src/LiteOS_Lab/iot_link/network/dtls/mbedtls/mbedtls-2.16.2/library\rsa.c ****  * Thus in this sense with 28 byte blinding the security is not reduced by
 819:C:/Users/dtjld/workspace/AIoT/src/LiteOS_Lab/iot_link/network/dtls/mbedtls/mbedtls-2.16.2/library\rsa.c ****  * side-channel attacks like the one in [3])
 820:C:/Users/dtjld/workspace/AIoT/src/LiteOS_Lab/iot_link/network/dtls/mbedtls/mbedtls-2.16.2/library\rsa.c ****  *
 821:C:/Users/dtjld/workspace/AIoT/src/LiteOS_Lab/iot_link/network/dtls/mbedtls/mbedtls-2.16.2/library\rsa.c ****  * This countermeasure does not help if the key recovery is possible with a
 822:C:/Users/dtjld/workspace/AIoT/src/LiteOS_Lab/iot_link/network/dtls/mbedtls/mbedtls-2.16.2/library\rsa.c ****  * single trace.
 823:C:/Users/dtjld/workspace/AIoT/src/LiteOS_Lab/iot_link/network/dtls/mbedtls/mbedtls-2.16.2/library\rsa.c ****  */
 824:C:/Users/dtjld/workspace/AIoT/src/LiteOS_Lab/iot_link/network/dtls/mbedtls/mbedtls-2.16.2/library\rsa.c **** #define RSA_EXPONENT_BLINDING 28
 825:C:/Users/dtjld/workspace/AIoT/src/LiteOS_Lab/iot_link/network/dtls/mbedtls/mbedtls-2.16.2/library\rsa.c **** 
 826:C:/Users/dtjld/workspace/AIoT/src/LiteOS_Lab/iot_link/network/dtls/mbedtls/mbedtls-2.16.2/library\rsa.c **** /*
 827:C:/Users/dtjld/workspace/AIoT/src/LiteOS_Lab/iot_link/network/dtls/mbedtls/mbedtls-2.16.2/library\rsa.c ****  * Do an RSA private key operation
 828:C:/Users/dtjld/workspace/AIoT/src/LiteOS_Lab/iot_link/network/dtls/mbedtls/mbedtls-2.16.2/library\rsa.c ****  */
 829:C:/Users/dtjld/workspace/AIoT/src/LiteOS_Lab/iot_link/network/dtls/mbedtls/mbedtls-2.16.2/library\rsa.c **** int mbedtls_rsa_private( mbedtls_rsa_context *ctx,
 830:C:/Users/dtjld/workspace/AIoT/src/LiteOS_Lab/iot_link/network/dtls/mbedtls/mbedtls-2.16.2/library\rsa.c ****                  int (*f_rng)(void *, unsigned char *, size_t),
 831:C:/Users/dtjld/workspace/AIoT/src/LiteOS_Lab/iot_link/network/dtls/mbedtls/mbedtls-2.16.2/library\rsa.c ****                  void *p_rng,
 832:C:/Users/dtjld/workspace/AIoT/src/LiteOS_Lab/iot_link/network/dtls/mbedtls/mbedtls-2.16.2/library\rsa.c ****                  const unsigned char *input,
 833:C:/Users/dtjld/workspace/AIoT/src/LiteOS_Lab/iot_link/network/dtls/mbedtls/mbedtls-2.16.2/library\rsa.c ****                  unsigned char *output )
 834:C:/Users/dtjld/workspace/AIoT/src/LiteOS_Lab/iot_link/network/dtls/mbedtls/mbedtls-2.16.2/library\rsa.c **** {
 2884              		.loc 1 834 0
ARM GAS  C:\Users\dtjld\AppData\Local\Temp\cck1fUMg.s 			page 67


 2885              		.cfi_startproc
 2886              		@ args = 4, pretend = 0, frame = 152
 2887              		@ frame_needed = 1, uses_anonymous_args = 0
 2888 0000 90B5     		push	{r4, r7, lr}
 2889              	.LCFI88:
 2890              		.cfi_def_cfa_offset 12
 2891              		.cfi_offset 4, -12
 2892              		.cfi_offset 7, -8
 2893              		.cfi_offset 14, -4
 2894 0002 A9B0     		sub	sp, sp, #164
 2895              	.LCFI89:
 2896              		.cfi_def_cfa_offset 176
 2897 0004 02AF     		add	r7, sp, #8
 2898              	.LCFI90:
 2899              		.cfi_def_cfa 7, 168
 2900 0006 F860     		str	r0, [r7, #12]
 2901 0008 B960     		str	r1, [r7, #8]
 2902 000a 7A60     		str	r2, [r7, #4]
 2903 000c 3B60     		str	r3, [r7]
 835:C:/Users/dtjld/workspace/AIoT/src/LiteOS_Lab/iot_link/network/dtls/mbedtls/mbedtls-2.16.2/library\rsa.c ****     int ret;
 836:C:/Users/dtjld/workspace/AIoT/src/LiteOS_Lab/iot_link/network/dtls/mbedtls/mbedtls-2.16.2/library\rsa.c ****     size_t olen;
 837:C:/Users/dtjld/workspace/AIoT/src/LiteOS_Lab/iot_link/network/dtls/mbedtls/mbedtls-2.16.2/library\rsa.c **** 
 838:C:/Users/dtjld/workspace/AIoT/src/LiteOS_Lab/iot_link/network/dtls/mbedtls/mbedtls-2.16.2/library\rsa.c ****     /* Temporary holding the result */
 839:C:/Users/dtjld/workspace/AIoT/src/LiteOS_Lab/iot_link/network/dtls/mbedtls/mbedtls-2.16.2/library\rsa.c ****     mbedtls_mpi T;
 840:C:/Users/dtjld/workspace/AIoT/src/LiteOS_Lab/iot_link/network/dtls/mbedtls/mbedtls-2.16.2/library\rsa.c **** 
 841:C:/Users/dtjld/workspace/AIoT/src/LiteOS_Lab/iot_link/network/dtls/mbedtls/mbedtls-2.16.2/library\rsa.c ****     /* Temporaries holding P-1, Q-1 and the
 842:C:/Users/dtjld/workspace/AIoT/src/LiteOS_Lab/iot_link/network/dtls/mbedtls/mbedtls-2.16.2/library\rsa.c ****      * exponent blinding factor, respectively. */
 843:C:/Users/dtjld/workspace/AIoT/src/LiteOS_Lab/iot_link/network/dtls/mbedtls/mbedtls-2.16.2/library\rsa.c ****     mbedtls_mpi P1, Q1, R;
 844:C:/Users/dtjld/workspace/AIoT/src/LiteOS_Lab/iot_link/network/dtls/mbedtls/mbedtls-2.16.2/library\rsa.c **** 
 845:C:/Users/dtjld/workspace/AIoT/src/LiteOS_Lab/iot_link/network/dtls/mbedtls/mbedtls-2.16.2/library\rsa.c **** #if !defined(MBEDTLS_RSA_NO_CRT)
 846:C:/Users/dtjld/workspace/AIoT/src/LiteOS_Lab/iot_link/network/dtls/mbedtls/mbedtls-2.16.2/library\rsa.c ****     /* Temporaries holding the results mod p resp. mod q. */
 847:C:/Users/dtjld/workspace/AIoT/src/LiteOS_Lab/iot_link/network/dtls/mbedtls/mbedtls-2.16.2/library\rsa.c ****     mbedtls_mpi TP, TQ;
 848:C:/Users/dtjld/workspace/AIoT/src/LiteOS_Lab/iot_link/network/dtls/mbedtls/mbedtls-2.16.2/library\rsa.c **** 
 849:C:/Users/dtjld/workspace/AIoT/src/LiteOS_Lab/iot_link/network/dtls/mbedtls/mbedtls-2.16.2/library\rsa.c ****     /* Temporaries holding the blinded exponents for
 850:C:/Users/dtjld/workspace/AIoT/src/LiteOS_Lab/iot_link/network/dtls/mbedtls/mbedtls-2.16.2/library\rsa.c ****      * the mod p resp. mod q computation (if used). */
 851:C:/Users/dtjld/workspace/AIoT/src/LiteOS_Lab/iot_link/network/dtls/mbedtls/mbedtls-2.16.2/library\rsa.c ****     mbedtls_mpi DP_blind, DQ_blind;
 852:C:/Users/dtjld/workspace/AIoT/src/LiteOS_Lab/iot_link/network/dtls/mbedtls/mbedtls-2.16.2/library\rsa.c **** 
 853:C:/Users/dtjld/workspace/AIoT/src/LiteOS_Lab/iot_link/network/dtls/mbedtls/mbedtls-2.16.2/library\rsa.c ****     /* Pointers to actual exponents to be used - either the unblinded
 854:C:/Users/dtjld/workspace/AIoT/src/LiteOS_Lab/iot_link/network/dtls/mbedtls/mbedtls-2.16.2/library\rsa.c ****      * or the blinded ones, depending on the presence of a PRNG. */
 855:C:/Users/dtjld/workspace/AIoT/src/LiteOS_Lab/iot_link/network/dtls/mbedtls/mbedtls-2.16.2/library\rsa.c ****     mbedtls_mpi *DP = &ctx->DP;
 2904              		.loc 1 855 0
 2905 000e FB68     		ldr	r3, [r7, #12]
 2906 0010 4433     		adds	r3, r3, #68
 2907 0012 C7F89030 		str	r3, [r7, #144]
 856:C:/Users/dtjld/workspace/AIoT/src/LiteOS_Lab/iot_link/network/dtls/mbedtls/mbedtls-2.16.2/library\rsa.c ****     mbedtls_mpi *DQ = &ctx->DQ;
 2908              		.loc 1 856 0
 2909 0016 FB68     		ldr	r3, [r7, #12]
 2910 0018 5033     		adds	r3, r3, #80
 2911 001a C7F88C30 		str	r3, [r7, #140]
 857:C:/Users/dtjld/workspace/AIoT/src/LiteOS_Lab/iot_link/network/dtls/mbedtls/mbedtls-2.16.2/library\rsa.c **** #else
 858:C:/Users/dtjld/workspace/AIoT/src/LiteOS_Lab/iot_link/network/dtls/mbedtls/mbedtls-2.16.2/library\rsa.c ****     /* Temporary holding the blinded exponent (if used). */
 859:C:/Users/dtjld/workspace/AIoT/src/LiteOS_Lab/iot_link/network/dtls/mbedtls/mbedtls-2.16.2/library\rsa.c ****     mbedtls_mpi D_blind;
 860:C:/Users/dtjld/workspace/AIoT/src/LiteOS_Lab/iot_link/network/dtls/mbedtls/mbedtls-2.16.2/library\rsa.c **** 
 861:C:/Users/dtjld/workspace/AIoT/src/LiteOS_Lab/iot_link/network/dtls/mbedtls/mbedtls-2.16.2/library\rsa.c ****     /* Pointer to actual exponent to be used - either the unblinded
 862:C:/Users/dtjld/workspace/AIoT/src/LiteOS_Lab/iot_link/network/dtls/mbedtls/mbedtls-2.16.2/library\rsa.c ****      * or the blinded one, depending on the presence of a PRNG. */
 863:C:/Users/dtjld/workspace/AIoT/src/LiteOS_Lab/iot_link/network/dtls/mbedtls/mbedtls-2.16.2/library\rsa.c ****     mbedtls_mpi *D = &ctx->D;
 864:C:/Users/dtjld/workspace/AIoT/src/LiteOS_Lab/iot_link/network/dtls/mbedtls/mbedtls-2.16.2/library\rsa.c **** #endif /* MBEDTLS_RSA_NO_CRT */
ARM GAS  C:\Users\dtjld\AppData\Local\Temp\cck1fUMg.s 			page 68


 865:C:/Users/dtjld/workspace/AIoT/src/LiteOS_Lab/iot_link/network/dtls/mbedtls/mbedtls-2.16.2/library\rsa.c **** 
 866:C:/Users/dtjld/workspace/AIoT/src/LiteOS_Lab/iot_link/network/dtls/mbedtls/mbedtls-2.16.2/library\rsa.c ****     /* Temporaries holding the initial input and the double
 867:C:/Users/dtjld/workspace/AIoT/src/LiteOS_Lab/iot_link/network/dtls/mbedtls/mbedtls-2.16.2/library\rsa.c ****      * checked result; should be the same in the end. */
 868:C:/Users/dtjld/workspace/AIoT/src/LiteOS_Lab/iot_link/network/dtls/mbedtls/mbedtls-2.16.2/library\rsa.c ****     mbedtls_mpi I, C;
 869:C:/Users/dtjld/workspace/AIoT/src/LiteOS_Lab/iot_link/network/dtls/mbedtls/mbedtls-2.16.2/library\rsa.c **** 
 870:C:/Users/dtjld/workspace/AIoT/src/LiteOS_Lab/iot_link/network/dtls/mbedtls/mbedtls-2.16.2/library\rsa.c ****     RSA_VALIDATE_RET( ctx != NULL );
 871:C:/Users/dtjld/workspace/AIoT/src/LiteOS_Lab/iot_link/network/dtls/mbedtls/mbedtls-2.16.2/library\rsa.c ****     RSA_VALIDATE_RET( input  != NULL );
 872:C:/Users/dtjld/workspace/AIoT/src/LiteOS_Lab/iot_link/network/dtls/mbedtls/mbedtls-2.16.2/library\rsa.c ****     RSA_VALIDATE_RET( output != NULL );
 873:C:/Users/dtjld/workspace/AIoT/src/LiteOS_Lab/iot_link/network/dtls/mbedtls/mbedtls-2.16.2/library\rsa.c **** 
 874:C:/Users/dtjld/workspace/AIoT/src/LiteOS_Lab/iot_link/network/dtls/mbedtls/mbedtls-2.16.2/library\rsa.c ****     if( rsa_check_context( ctx, 1             /* private key checks */,
 2912              		.loc 1 874 0
 2913 001e BB68     		ldr	r3, [r7, #8]
 2914 0020 002B     		cmp	r3, #0
 2915 0022 14BF     		ite	ne
 2916 0024 0123     		movne	r3, #1
 2917 0026 0023     		moveq	r3, #0
 2918 0028 DBB2     		uxtb	r3, r3
 2919 002a 1A46     		mov	r2, r3
 2920 002c 0121     		movs	r1, #1
 2921 002e F868     		ldr	r0, [r7, #12]
 2922 0030 FFF7FEFF 		bl	rsa_check_context
 2923 0034 0346     		mov	r3, r0
 2924 0036 002B     		cmp	r3, #0
 2925 0038 01D0     		beq	.L219
 875:C:/Users/dtjld/workspace/AIoT/src/LiteOS_Lab/iot_link/network/dtls/mbedtls/mbedtls-2.16.2/library\rsa.c ****                                 f_rng != NULL /* blinding y/n       */ ) != 0 )
 876:C:/Users/dtjld/workspace/AIoT/src/LiteOS_Lab/iot_link/network/dtls/mbedtls/mbedtls-2.16.2/library\rsa.c ****     {
 877:C:/Users/dtjld/workspace/AIoT/src/LiteOS_Lab/iot_link/network/dtls/mbedtls/mbedtls-2.16.2/library\rsa.c ****         return( MBEDTLS_ERR_RSA_BAD_INPUT_DATA );
 2926              		.loc 1 877 0
 2927 003a 2B4B     		ldr	r3, .L275
 2928 003c 63E2     		b	.L251
 2929              	.L219:
 878:C:/Users/dtjld/workspace/AIoT/src/LiteOS_Lab/iot_link/network/dtls/mbedtls/mbedtls-2.16.2/library\rsa.c ****     }
 879:C:/Users/dtjld/workspace/AIoT/src/LiteOS_Lab/iot_link/network/dtls/mbedtls/mbedtls-2.16.2/library\rsa.c **** 
 880:C:/Users/dtjld/workspace/AIoT/src/LiteOS_Lab/iot_link/network/dtls/mbedtls/mbedtls-2.16.2/library\rsa.c **** #if defined(MBEDTLS_THREADING_C)
 881:C:/Users/dtjld/workspace/AIoT/src/LiteOS_Lab/iot_link/network/dtls/mbedtls/mbedtls-2.16.2/library\rsa.c ****     if( ( ret = mbedtls_mutex_lock( &ctx->mutex ) ) != 0 )
 882:C:/Users/dtjld/workspace/AIoT/src/LiteOS_Lab/iot_link/network/dtls/mbedtls/mbedtls-2.16.2/library\rsa.c ****         return( ret );
 883:C:/Users/dtjld/workspace/AIoT/src/LiteOS_Lab/iot_link/network/dtls/mbedtls/mbedtls-2.16.2/library\rsa.c **** #endif
 884:C:/Users/dtjld/workspace/AIoT/src/LiteOS_Lab/iot_link/network/dtls/mbedtls/mbedtls-2.16.2/library\rsa.c **** 
 885:C:/Users/dtjld/workspace/AIoT/src/LiteOS_Lab/iot_link/network/dtls/mbedtls/mbedtls-2.16.2/library\rsa.c ****     /* MPI Initialization */
 886:C:/Users/dtjld/workspace/AIoT/src/LiteOS_Lab/iot_link/network/dtls/mbedtls/mbedtls-2.16.2/library\rsa.c ****     mbedtls_mpi_init( &T );
 2930              		.loc 1 886 0
 2931 003e 07F17C03 		add	r3, r7, #124
 2932 0042 1846     		mov	r0, r3
 2933 0044 FFF7FEFF 		bl	mbedtls_mpi_init
 887:C:/Users/dtjld/workspace/AIoT/src/LiteOS_Lab/iot_link/network/dtls/mbedtls/mbedtls-2.16.2/library\rsa.c **** 
 888:C:/Users/dtjld/workspace/AIoT/src/LiteOS_Lab/iot_link/network/dtls/mbedtls/mbedtls-2.16.2/library\rsa.c ****     mbedtls_mpi_init( &P1 );
 2934              		.loc 1 888 0
 2935 0048 07F17003 		add	r3, r7, #112
 2936 004c 1846     		mov	r0, r3
 2937 004e FFF7FEFF 		bl	mbedtls_mpi_init
 889:C:/Users/dtjld/workspace/AIoT/src/LiteOS_Lab/iot_link/network/dtls/mbedtls/mbedtls-2.16.2/library\rsa.c ****     mbedtls_mpi_init( &Q1 );
 2938              		.loc 1 889 0
 2939 0052 07F16403 		add	r3, r7, #100
 2940 0056 1846     		mov	r0, r3
 2941 0058 FFF7FEFF 		bl	mbedtls_mpi_init
 890:C:/Users/dtjld/workspace/AIoT/src/LiteOS_Lab/iot_link/network/dtls/mbedtls/mbedtls-2.16.2/library\rsa.c ****     mbedtls_mpi_init( &R );
 2942              		.loc 1 890 0
ARM GAS  C:\Users\dtjld\AppData\Local\Temp\cck1fUMg.s 			page 69


 2943 005c 07F15803 		add	r3, r7, #88
 2944 0060 1846     		mov	r0, r3
 2945 0062 FFF7FEFF 		bl	mbedtls_mpi_init
 891:C:/Users/dtjld/workspace/AIoT/src/LiteOS_Lab/iot_link/network/dtls/mbedtls/mbedtls-2.16.2/library\rsa.c **** 
 892:C:/Users/dtjld/workspace/AIoT/src/LiteOS_Lab/iot_link/network/dtls/mbedtls/mbedtls-2.16.2/library\rsa.c ****     if( f_rng != NULL )
 2946              		.loc 1 892 0
 2947 0066 BB68     		ldr	r3, [r7, #8]
 2948 0068 002B     		cmp	r3, #0
 2949 006a 09D0     		beq	.L221
 893:C:/Users/dtjld/workspace/AIoT/src/LiteOS_Lab/iot_link/network/dtls/mbedtls/mbedtls-2.16.2/library\rsa.c ****     {
 894:C:/Users/dtjld/workspace/AIoT/src/LiteOS_Lab/iot_link/network/dtls/mbedtls/mbedtls-2.16.2/library\rsa.c **** #if defined(MBEDTLS_RSA_NO_CRT)
 895:C:/Users/dtjld/workspace/AIoT/src/LiteOS_Lab/iot_link/network/dtls/mbedtls/mbedtls-2.16.2/library\rsa.c ****         mbedtls_mpi_init( &D_blind );
 896:C:/Users/dtjld/workspace/AIoT/src/LiteOS_Lab/iot_link/network/dtls/mbedtls/mbedtls-2.16.2/library\rsa.c **** #else
 897:C:/Users/dtjld/workspace/AIoT/src/LiteOS_Lab/iot_link/network/dtls/mbedtls/mbedtls-2.16.2/library\rsa.c ****         mbedtls_mpi_init( &DP_blind );
 2950              		.loc 1 897 0
 2951 006c 07F13403 		add	r3, r7, #52
 2952 0070 1846     		mov	r0, r3
 2953 0072 FFF7FEFF 		bl	mbedtls_mpi_init
 898:C:/Users/dtjld/workspace/AIoT/src/LiteOS_Lab/iot_link/network/dtls/mbedtls/mbedtls-2.16.2/library\rsa.c ****         mbedtls_mpi_init( &DQ_blind );
 2954              		.loc 1 898 0
 2955 0076 07F12803 		add	r3, r7, #40
 2956 007a 1846     		mov	r0, r3
 2957 007c FFF7FEFF 		bl	mbedtls_mpi_init
 2958              	.L221:
 899:C:/Users/dtjld/workspace/AIoT/src/LiteOS_Lab/iot_link/network/dtls/mbedtls/mbedtls-2.16.2/library\rsa.c **** #endif
 900:C:/Users/dtjld/workspace/AIoT/src/LiteOS_Lab/iot_link/network/dtls/mbedtls/mbedtls-2.16.2/library\rsa.c ****     }
 901:C:/Users/dtjld/workspace/AIoT/src/LiteOS_Lab/iot_link/network/dtls/mbedtls/mbedtls-2.16.2/library\rsa.c **** 
 902:C:/Users/dtjld/workspace/AIoT/src/LiteOS_Lab/iot_link/network/dtls/mbedtls/mbedtls-2.16.2/library\rsa.c **** #if !defined(MBEDTLS_RSA_NO_CRT)
 903:C:/Users/dtjld/workspace/AIoT/src/LiteOS_Lab/iot_link/network/dtls/mbedtls/mbedtls-2.16.2/library\rsa.c ****     mbedtls_mpi_init( &TP ); mbedtls_mpi_init( &TQ );
 2959              		.loc 1 903 0
 2960 0080 07F14C03 		add	r3, r7, #76
 2961 0084 1846     		mov	r0, r3
 2962 0086 FFF7FEFF 		bl	mbedtls_mpi_init
 2963 008a 07F14003 		add	r3, r7, #64
 2964 008e 1846     		mov	r0, r3
 2965 0090 FFF7FEFF 		bl	mbedtls_mpi_init
 904:C:/Users/dtjld/workspace/AIoT/src/LiteOS_Lab/iot_link/network/dtls/mbedtls/mbedtls-2.16.2/library\rsa.c **** #endif
 905:C:/Users/dtjld/workspace/AIoT/src/LiteOS_Lab/iot_link/network/dtls/mbedtls/mbedtls-2.16.2/library\rsa.c **** 
 906:C:/Users/dtjld/workspace/AIoT/src/LiteOS_Lab/iot_link/network/dtls/mbedtls/mbedtls-2.16.2/library\rsa.c ****     mbedtls_mpi_init( &I );
 2966              		.loc 1 906 0
 2967 0094 07F11C03 		add	r3, r7, #28
 2968 0098 1846     		mov	r0, r3
 2969 009a FFF7FEFF 		bl	mbedtls_mpi_init
 907:C:/Users/dtjld/workspace/AIoT/src/LiteOS_Lab/iot_link/network/dtls/mbedtls/mbedtls-2.16.2/library\rsa.c ****     mbedtls_mpi_init( &C );
 2970              		.loc 1 907 0
 2971 009e 07F11003 		add	r3, r7, #16
 2972 00a2 1846     		mov	r0, r3
 2973 00a4 FFF7FEFF 		bl	mbedtls_mpi_init
 908:C:/Users/dtjld/workspace/AIoT/src/LiteOS_Lab/iot_link/network/dtls/mbedtls/mbedtls-2.16.2/library\rsa.c **** 
 909:C:/Users/dtjld/workspace/AIoT/src/LiteOS_Lab/iot_link/network/dtls/mbedtls/mbedtls-2.16.2/library\rsa.c ****     /* End of MPI initialization */
 910:C:/Users/dtjld/workspace/AIoT/src/LiteOS_Lab/iot_link/network/dtls/mbedtls/mbedtls-2.16.2/library\rsa.c **** 
 911:C:/Users/dtjld/workspace/AIoT/src/LiteOS_Lab/iot_link/network/dtls/mbedtls/mbedtls-2.16.2/library\rsa.c ****     MBEDTLS_MPI_CHK( mbedtls_mpi_read_binary( &T, input, ctx->len ) );
 2974              		.loc 1 911 0
 2975 00a8 FB68     		ldr	r3, [r7, #12]
 2976 00aa 5A68     		ldr	r2, [r3, #4]
 2977 00ac 07F17C03 		add	r3, r7, #124
 2978 00b0 3968     		ldr	r1, [r7]
ARM GAS  C:\Users\dtjld\AppData\Local\Temp\cck1fUMg.s 			page 70


 2979 00b2 1846     		mov	r0, r3
 2980 00b4 FFF7FEFF 		bl	mbedtls_mpi_read_binary
 2981 00b8 C7F89400 		str	r0, [r7, #148]
 2982 00bc D7F89430 		ldr	r3, [r7, #148]
 2983 00c0 002B     		cmp	r3, #0
 2984 00c2 40F0B481 		bne	.L252
 912:C:/Users/dtjld/workspace/AIoT/src/LiteOS_Lab/iot_link/network/dtls/mbedtls/mbedtls-2.16.2/library\rsa.c ****     if( mbedtls_mpi_cmp_mpi( &T, &ctx->N ) >= 0 )
 2985              		.loc 1 912 0
 2986 00c6 FB68     		ldr	r3, [r7, #12]
 2987 00c8 03F10802 		add	r2, r3, #8
 2988 00cc 07F17C03 		add	r3, r7, #124
 2989 00d0 1146     		mov	r1, r2
 2990 00d2 1846     		mov	r0, r3
 2991 00d4 FFF7FEFF 		bl	mbedtls_mpi_cmp_mpi
 2992 00d8 0346     		mov	r3, r0
 2993 00da 002B     		cmp	r3, #0
 2994 00dc 06DB     		blt	.L224
 913:C:/Users/dtjld/workspace/AIoT/src/LiteOS_Lab/iot_link/network/dtls/mbedtls/mbedtls-2.16.2/library\rsa.c ****     {
 914:C:/Users/dtjld/workspace/AIoT/src/LiteOS_Lab/iot_link/network/dtls/mbedtls/mbedtls-2.16.2/library\rsa.c ****         ret = MBEDTLS_ERR_MPI_BAD_INPUT_DATA;
 2995              		.loc 1 914 0
 2996 00de 6FF00303 		mvn	r3, #3
 2997 00e2 C7F89430 		str	r3, [r7, #148]
 915:C:/Users/dtjld/workspace/AIoT/src/LiteOS_Lab/iot_link/network/dtls/mbedtls/mbedtls-2.16.2/library\rsa.c ****         goto cleanup;
 2998              		.loc 1 915 0
 2999 00e6 CFE1     		b	.L223
 3000              	.L276:
 3001              		.align	2
 3002              	.L275:
 3003 00e8 80BFFFFF 		.word	-16512
 3004              	.L224:
 916:C:/Users/dtjld/workspace/AIoT/src/LiteOS_Lab/iot_link/network/dtls/mbedtls/mbedtls-2.16.2/library\rsa.c ****     }
 917:C:/Users/dtjld/workspace/AIoT/src/LiteOS_Lab/iot_link/network/dtls/mbedtls/mbedtls-2.16.2/library\rsa.c **** 
 918:C:/Users/dtjld/workspace/AIoT/src/LiteOS_Lab/iot_link/network/dtls/mbedtls/mbedtls-2.16.2/library\rsa.c ****     MBEDTLS_MPI_CHK( mbedtls_mpi_copy( &I, &T ) );
 3005              		.loc 1 918 0
 3006 00ec 07F17C02 		add	r2, r7, #124
 3007 00f0 07F11C03 		add	r3, r7, #28
 3008 00f4 1146     		mov	r1, r2
 3009 00f6 1846     		mov	r0, r3
 3010 00f8 FFF7FEFF 		bl	mbedtls_mpi_copy
 3011 00fc C7F89400 		str	r0, [r7, #148]
 3012 0100 D7F89430 		ldr	r3, [r7, #148]
 3013 0104 002B     		cmp	r3, #0
 3014 0106 40F09481 		bne	.L253
 919:C:/Users/dtjld/workspace/AIoT/src/LiteOS_Lab/iot_link/network/dtls/mbedtls/mbedtls-2.16.2/library\rsa.c **** 
 920:C:/Users/dtjld/workspace/AIoT/src/LiteOS_Lab/iot_link/network/dtls/mbedtls/mbedtls-2.16.2/library\rsa.c ****     if( f_rng != NULL )
 3015              		.loc 1 920 0
 3016 010a BB68     		ldr	r3, [r7, #8]
 3017 010c 002B     		cmp	r3, #0
 3018 010e 00F0B480 		beq	.L226
 921:C:/Users/dtjld/workspace/AIoT/src/LiteOS_Lab/iot_link/network/dtls/mbedtls/mbedtls-2.16.2/library\rsa.c ****     {
 922:C:/Users/dtjld/workspace/AIoT/src/LiteOS_Lab/iot_link/network/dtls/mbedtls/mbedtls-2.16.2/library\rsa.c ****         /*
 923:C:/Users/dtjld/workspace/AIoT/src/LiteOS_Lab/iot_link/network/dtls/mbedtls/mbedtls-2.16.2/library\rsa.c ****          * Blinding
 924:C:/Users/dtjld/workspace/AIoT/src/LiteOS_Lab/iot_link/network/dtls/mbedtls/mbedtls-2.16.2/library\rsa.c ****          * T = T * Vi mod N
 925:C:/Users/dtjld/workspace/AIoT/src/LiteOS_Lab/iot_link/network/dtls/mbedtls/mbedtls-2.16.2/library\rsa.c ****          */
 926:C:/Users/dtjld/workspace/AIoT/src/LiteOS_Lab/iot_link/network/dtls/mbedtls/mbedtls-2.16.2/library\rsa.c ****         MBEDTLS_MPI_CHK( rsa_prepare_blinding( ctx, f_rng, p_rng ) );
 3019              		.loc 1 926 0
 3020 0112 7A68     		ldr	r2, [r7, #4]
ARM GAS  C:\Users\dtjld\AppData\Local\Temp\cck1fUMg.s 			page 71


 3021 0114 B968     		ldr	r1, [r7, #8]
 3022 0116 F868     		ldr	r0, [r7, #12]
 3023 0118 FFF7FEFF 		bl	rsa_prepare_blinding
 3024 011c C7F89400 		str	r0, [r7, #148]
 3025 0120 D7F89430 		ldr	r3, [r7, #148]
 3026 0124 002B     		cmp	r3, #0
 3027 0126 40F08681 		bne	.L254
 927:C:/Users/dtjld/workspace/AIoT/src/LiteOS_Lab/iot_link/network/dtls/mbedtls/mbedtls-2.16.2/library\rsa.c ****         MBEDTLS_MPI_CHK( mbedtls_mpi_mul_mpi( &T, &T, &ctx->Vi ) );
 3028              		.loc 1 927 0
 3029 012a FB68     		ldr	r3, [r7, #12]
 3030 012c 03F18C02 		add	r2, r3, #140
 3031 0130 07F17C01 		add	r1, r7, #124
 3032 0134 07F17C03 		add	r3, r7, #124
 3033 0138 1846     		mov	r0, r3
 3034 013a FFF7FEFF 		bl	mbedtls_mpi_mul_mpi
 3035 013e C7F89400 		str	r0, [r7, #148]
 3036 0142 D7F89430 		ldr	r3, [r7, #148]
 3037 0146 002B     		cmp	r3, #0
 3038 0148 40F07781 		bne	.L255
 928:C:/Users/dtjld/workspace/AIoT/src/LiteOS_Lab/iot_link/network/dtls/mbedtls/mbedtls-2.16.2/library\rsa.c ****         MBEDTLS_MPI_CHK( mbedtls_mpi_mod_mpi( &T, &T, &ctx->N ) );
 3039              		.loc 1 928 0
 3040 014c FB68     		ldr	r3, [r7, #12]
 3041 014e 03F10802 		add	r2, r3, #8
 3042 0152 07F17C01 		add	r1, r7, #124
 3043 0156 07F17C03 		add	r3, r7, #124
 3044 015a 1846     		mov	r0, r3
 3045 015c FFF7FEFF 		bl	mbedtls_mpi_mod_mpi
 3046 0160 C7F89400 		str	r0, [r7, #148]
 3047 0164 D7F89430 		ldr	r3, [r7, #148]
 3048 0168 002B     		cmp	r3, #0
 3049 016a 40F06881 		bne	.L256
 929:C:/Users/dtjld/workspace/AIoT/src/LiteOS_Lab/iot_link/network/dtls/mbedtls/mbedtls-2.16.2/library\rsa.c **** 
 930:C:/Users/dtjld/workspace/AIoT/src/LiteOS_Lab/iot_link/network/dtls/mbedtls/mbedtls-2.16.2/library\rsa.c ****         /*
 931:C:/Users/dtjld/workspace/AIoT/src/LiteOS_Lab/iot_link/network/dtls/mbedtls/mbedtls-2.16.2/library\rsa.c ****          * Exponent blinding
 932:C:/Users/dtjld/workspace/AIoT/src/LiteOS_Lab/iot_link/network/dtls/mbedtls/mbedtls-2.16.2/library\rsa.c ****          */
 933:C:/Users/dtjld/workspace/AIoT/src/LiteOS_Lab/iot_link/network/dtls/mbedtls/mbedtls-2.16.2/library\rsa.c ****         MBEDTLS_MPI_CHK( mbedtls_mpi_sub_int( &P1, &ctx->P, 1 ) );
 3050              		.loc 1 933 0
 3051 016e FB68     		ldr	r3, [r7, #12]
 3052 0170 03F12C01 		add	r1, r3, #44
 3053 0174 07F17003 		add	r3, r7, #112
 3054 0178 0122     		movs	r2, #1
 3055 017a 1846     		mov	r0, r3
 3056 017c FFF7FEFF 		bl	mbedtls_mpi_sub_int
 3057 0180 C7F89400 		str	r0, [r7, #148]
 3058 0184 D7F89430 		ldr	r3, [r7, #148]
 3059 0188 002B     		cmp	r3, #0
 3060 018a 40F05A81 		bne	.L257
 934:C:/Users/dtjld/workspace/AIoT/src/LiteOS_Lab/iot_link/network/dtls/mbedtls/mbedtls-2.16.2/library\rsa.c ****         MBEDTLS_MPI_CHK( mbedtls_mpi_sub_int( &Q1, &ctx->Q, 1 ) );
 3061              		.loc 1 934 0
 3062 018e FB68     		ldr	r3, [r7, #12]
 3063 0190 03F13801 		add	r1, r3, #56
 3064 0194 07F16403 		add	r3, r7, #100
 3065 0198 0122     		movs	r2, #1
 3066 019a 1846     		mov	r0, r3
 3067 019c FFF7FEFF 		bl	mbedtls_mpi_sub_int
 3068 01a0 C7F89400 		str	r0, [r7, #148]
 3069 01a4 D7F89430 		ldr	r3, [r7, #148]
ARM GAS  C:\Users\dtjld\AppData\Local\Temp\cck1fUMg.s 			page 72


 3070 01a8 002B     		cmp	r3, #0
 3071 01aa 40F04C81 		bne	.L258
 935:C:/Users/dtjld/workspace/AIoT/src/LiteOS_Lab/iot_link/network/dtls/mbedtls/mbedtls-2.16.2/library\rsa.c **** 
 936:C:/Users/dtjld/workspace/AIoT/src/LiteOS_Lab/iot_link/network/dtls/mbedtls/mbedtls-2.16.2/library\rsa.c **** #if defined(MBEDTLS_RSA_NO_CRT)
 937:C:/Users/dtjld/workspace/AIoT/src/LiteOS_Lab/iot_link/network/dtls/mbedtls/mbedtls-2.16.2/library\rsa.c ****         /*
 938:C:/Users/dtjld/workspace/AIoT/src/LiteOS_Lab/iot_link/network/dtls/mbedtls/mbedtls-2.16.2/library\rsa.c ****          * D_blind = ( P - 1 ) * ( Q - 1 ) * R + D
 939:C:/Users/dtjld/workspace/AIoT/src/LiteOS_Lab/iot_link/network/dtls/mbedtls/mbedtls-2.16.2/library\rsa.c ****          */
 940:C:/Users/dtjld/workspace/AIoT/src/LiteOS_Lab/iot_link/network/dtls/mbedtls/mbedtls-2.16.2/library\rsa.c ****         MBEDTLS_MPI_CHK( mbedtls_mpi_fill_random( &R, RSA_EXPONENT_BLINDING,
 941:C:/Users/dtjld/workspace/AIoT/src/LiteOS_Lab/iot_link/network/dtls/mbedtls/mbedtls-2.16.2/library\rsa.c ****                          f_rng, p_rng ) );
 942:C:/Users/dtjld/workspace/AIoT/src/LiteOS_Lab/iot_link/network/dtls/mbedtls/mbedtls-2.16.2/library\rsa.c ****         MBEDTLS_MPI_CHK( mbedtls_mpi_mul_mpi( &D_blind, &P1, &Q1 ) );
 943:C:/Users/dtjld/workspace/AIoT/src/LiteOS_Lab/iot_link/network/dtls/mbedtls/mbedtls-2.16.2/library\rsa.c ****         MBEDTLS_MPI_CHK( mbedtls_mpi_mul_mpi( &D_blind, &D_blind, &R ) );
 944:C:/Users/dtjld/workspace/AIoT/src/LiteOS_Lab/iot_link/network/dtls/mbedtls/mbedtls-2.16.2/library\rsa.c ****         MBEDTLS_MPI_CHK( mbedtls_mpi_add_mpi( &D_blind, &D_blind, &ctx->D ) );
 945:C:/Users/dtjld/workspace/AIoT/src/LiteOS_Lab/iot_link/network/dtls/mbedtls/mbedtls-2.16.2/library\rsa.c **** 
 946:C:/Users/dtjld/workspace/AIoT/src/LiteOS_Lab/iot_link/network/dtls/mbedtls/mbedtls-2.16.2/library\rsa.c ****         D = &D_blind;
 947:C:/Users/dtjld/workspace/AIoT/src/LiteOS_Lab/iot_link/network/dtls/mbedtls/mbedtls-2.16.2/library\rsa.c **** #else
 948:C:/Users/dtjld/workspace/AIoT/src/LiteOS_Lab/iot_link/network/dtls/mbedtls/mbedtls-2.16.2/library\rsa.c ****         /*
 949:C:/Users/dtjld/workspace/AIoT/src/LiteOS_Lab/iot_link/network/dtls/mbedtls/mbedtls-2.16.2/library\rsa.c ****          * DP_blind = ( P - 1 ) * R + DP
 950:C:/Users/dtjld/workspace/AIoT/src/LiteOS_Lab/iot_link/network/dtls/mbedtls/mbedtls-2.16.2/library\rsa.c ****          */
 951:C:/Users/dtjld/workspace/AIoT/src/LiteOS_Lab/iot_link/network/dtls/mbedtls/mbedtls-2.16.2/library\rsa.c ****         MBEDTLS_MPI_CHK( mbedtls_mpi_fill_random( &R, RSA_EXPONENT_BLINDING,
 3072              		.loc 1 951 0
 3073 01ae 07F15800 		add	r0, r7, #88
 3074 01b2 7B68     		ldr	r3, [r7, #4]
 3075 01b4 BA68     		ldr	r2, [r7, #8]
 3076 01b6 1C21     		movs	r1, #28
 3077 01b8 FFF7FEFF 		bl	mbedtls_mpi_fill_random
 3078 01bc C7F89400 		str	r0, [r7, #148]
 3079 01c0 D7F89430 		ldr	r3, [r7, #148]
 3080 01c4 002B     		cmp	r3, #0
 3081 01c6 40F04081 		bne	.L259
 952:C:/Users/dtjld/workspace/AIoT/src/LiteOS_Lab/iot_link/network/dtls/mbedtls/mbedtls-2.16.2/library\rsa.c ****                          f_rng, p_rng ) );
 953:C:/Users/dtjld/workspace/AIoT/src/LiteOS_Lab/iot_link/network/dtls/mbedtls/mbedtls-2.16.2/library\rsa.c ****         MBEDTLS_MPI_CHK( mbedtls_mpi_mul_mpi( &DP_blind, &P1, &R ) );
 3082              		.loc 1 953 0
 3083 01ca 07F15802 		add	r2, r7, #88
 3084 01ce 07F17001 		add	r1, r7, #112
 3085 01d2 07F13403 		add	r3, r7, #52
 3086 01d6 1846     		mov	r0, r3
 3087 01d8 FFF7FEFF 		bl	mbedtls_mpi_mul_mpi
 3088 01dc C7F89400 		str	r0, [r7, #148]
 3089 01e0 D7F89430 		ldr	r3, [r7, #148]
 3090 01e4 002B     		cmp	r3, #0
 3091 01e6 40F03281 		bne	.L260
 954:C:/Users/dtjld/workspace/AIoT/src/LiteOS_Lab/iot_link/network/dtls/mbedtls/mbedtls-2.16.2/library\rsa.c ****         MBEDTLS_MPI_CHK( mbedtls_mpi_add_mpi( &DP_blind, &DP_blind,
 3092              		.loc 1 954 0
 3093 01ea FB68     		ldr	r3, [r7, #12]
 3094 01ec 03F14402 		add	r2, r3, #68
 3095 01f0 07F13401 		add	r1, r7, #52
 3096 01f4 07F13403 		add	r3, r7, #52
 3097 01f8 1846     		mov	r0, r3
 3098 01fa FFF7FEFF 		bl	mbedtls_mpi_add_mpi
 3099 01fe C7F89400 		str	r0, [r7, #148]
 3100 0202 D7F89430 		ldr	r3, [r7, #148]
 3101 0206 002B     		cmp	r3, #0
 3102 0208 40F02381 		bne	.L261
 955:C:/Users/dtjld/workspace/AIoT/src/LiteOS_Lab/iot_link/network/dtls/mbedtls/mbedtls-2.16.2/library\rsa.c ****                     &ctx->DP ) );
 956:C:/Users/dtjld/workspace/AIoT/src/LiteOS_Lab/iot_link/network/dtls/mbedtls/mbedtls-2.16.2/library\rsa.c **** 
 957:C:/Users/dtjld/workspace/AIoT/src/LiteOS_Lab/iot_link/network/dtls/mbedtls/mbedtls-2.16.2/library\rsa.c ****         DP = &DP_blind;
 3103              		.loc 1 957 0
ARM GAS  C:\Users\dtjld\AppData\Local\Temp\cck1fUMg.s 			page 73


 3104 020c 07F13403 		add	r3, r7, #52
 3105 0210 C7F89030 		str	r3, [r7, #144]
 958:C:/Users/dtjld/workspace/AIoT/src/LiteOS_Lab/iot_link/network/dtls/mbedtls/mbedtls-2.16.2/library\rsa.c **** 
 959:C:/Users/dtjld/workspace/AIoT/src/LiteOS_Lab/iot_link/network/dtls/mbedtls/mbedtls-2.16.2/library\rsa.c ****         /*
 960:C:/Users/dtjld/workspace/AIoT/src/LiteOS_Lab/iot_link/network/dtls/mbedtls/mbedtls-2.16.2/library\rsa.c ****          * DQ_blind = ( Q - 1 ) * R + DQ
 961:C:/Users/dtjld/workspace/AIoT/src/LiteOS_Lab/iot_link/network/dtls/mbedtls/mbedtls-2.16.2/library\rsa.c ****          */
 962:C:/Users/dtjld/workspace/AIoT/src/LiteOS_Lab/iot_link/network/dtls/mbedtls/mbedtls-2.16.2/library\rsa.c ****         MBEDTLS_MPI_CHK( mbedtls_mpi_fill_random( &R, RSA_EXPONENT_BLINDING,
 3106              		.loc 1 962 0
 3107 0214 07F15800 		add	r0, r7, #88
 3108 0218 7B68     		ldr	r3, [r7, #4]
 3109 021a BA68     		ldr	r2, [r7, #8]
 3110 021c 1C21     		movs	r1, #28
 3111 021e FFF7FEFF 		bl	mbedtls_mpi_fill_random
 3112 0222 C7F89400 		str	r0, [r7, #148]
 3113 0226 D7F89430 		ldr	r3, [r7, #148]
 3114 022a 002B     		cmp	r3, #0
 3115 022c 40F01381 		bne	.L262
 963:C:/Users/dtjld/workspace/AIoT/src/LiteOS_Lab/iot_link/network/dtls/mbedtls/mbedtls-2.16.2/library\rsa.c ****                          f_rng, p_rng ) );
 964:C:/Users/dtjld/workspace/AIoT/src/LiteOS_Lab/iot_link/network/dtls/mbedtls/mbedtls-2.16.2/library\rsa.c ****         MBEDTLS_MPI_CHK( mbedtls_mpi_mul_mpi( &DQ_blind, &Q1, &R ) );
 3116              		.loc 1 964 0
 3117 0230 07F15802 		add	r2, r7, #88
 3118 0234 07F16401 		add	r1, r7, #100
 3119 0238 07F12803 		add	r3, r7, #40
 3120 023c 1846     		mov	r0, r3
 3121 023e FFF7FEFF 		bl	mbedtls_mpi_mul_mpi
 3122 0242 C7F89400 		str	r0, [r7, #148]
 3123 0246 D7F89430 		ldr	r3, [r7, #148]
 3124 024a 002B     		cmp	r3, #0
 3125 024c 40F00581 		bne	.L263
 965:C:/Users/dtjld/workspace/AIoT/src/LiteOS_Lab/iot_link/network/dtls/mbedtls/mbedtls-2.16.2/library\rsa.c ****         MBEDTLS_MPI_CHK( mbedtls_mpi_add_mpi( &DQ_blind, &DQ_blind,
 3126              		.loc 1 965 0
 3127 0250 FB68     		ldr	r3, [r7, #12]
 3128 0252 03F15002 		add	r2, r3, #80
 3129 0256 07F12801 		add	r1, r7, #40
 3130 025a 07F12803 		add	r3, r7, #40
 3131 025e 1846     		mov	r0, r3
 3132 0260 FFF7FEFF 		bl	mbedtls_mpi_add_mpi
 3133 0264 C7F89400 		str	r0, [r7, #148]
 3134 0268 D7F89430 		ldr	r3, [r7, #148]
 3135 026c 002B     		cmp	r3, #0
 3136 026e 40F0F680 		bne	.L264
 966:C:/Users/dtjld/workspace/AIoT/src/LiteOS_Lab/iot_link/network/dtls/mbedtls/mbedtls-2.16.2/library\rsa.c ****                     &ctx->DQ ) );
 967:C:/Users/dtjld/workspace/AIoT/src/LiteOS_Lab/iot_link/network/dtls/mbedtls/mbedtls-2.16.2/library\rsa.c **** 
 968:C:/Users/dtjld/workspace/AIoT/src/LiteOS_Lab/iot_link/network/dtls/mbedtls/mbedtls-2.16.2/library\rsa.c ****         DQ = &DQ_blind;
 3137              		.loc 1 968 0
 3138 0272 07F12803 		add	r3, r7, #40
 3139 0276 C7F88C30 		str	r3, [r7, #140]
 3140              	.L226:
 969:C:/Users/dtjld/workspace/AIoT/src/LiteOS_Lab/iot_link/network/dtls/mbedtls/mbedtls-2.16.2/library\rsa.c **** #endif /* MBEDTLS_RSA_NO_CRT */
 970:C:/Users/dtjld/workspace/AIoT/src/LiteOS_Lab/iot_link/network/dtls/mbedtls/mbedtls-2.16.2/library\rsa.c ****     }
 971:C:/Users/dtjld/workspace/AIoT/src/LiteOS_Lab/iot_link/network/dtls/mbedtls/mbedtls-2.16.2/library\rsa.c **** 
 972:C:/Users/dtjld/workspace/AIoT/src/LiteOS_Lab/iot_link/network/dtls/mbedtls/mbedtls-2.16.2/library\rsa.c **** #if defined(MBEDTLS_RSA_NO_CRT)
 973:C:/Users/dtjld/workspace/AIoT/src/LiteOS_Lab/iot_link/network/dtls/mbedtls/mbedtls-2.16.2/library\rsa.c ****     MBEDTLS_MPI_CHK( mbedtls_mpi_exp_mod( &T, &T, D, &ctx->N, &ctx->RN ) );
 974:C:/Users/dtjld/workspace/AIoT/src/LiteOS_Lab/iot_link/network/dtls/mbedtls/mbedtls-2.16.2/library\rsa.c **** #else
 975:C:/Users/dtjld/workspace/AIoT/src/LiteOS_Lab/iot_link/network/dtls/mbedtls/mbedtls-2.16.2/library\rsa.c ****     /*
 976:C:/Users/dtjld/workspace/AIoT/src/LiteOS_Lab/iot_link/network/dtls/mbedtls/mbedtls-2.16.2/library\rsa.c ****      * Faster decryption using the CRT
 977:C:/Users/dtjld/workspace/AIoT/src/LiteOS_Lab/iot_link/network/dtls/mbedtls/mbedtls-2.16.2/library\rsa.c ****      *
ARM GAS  C:\Users\dtjld\AppData\Local\Temp\cck1fUMg.s 			page 74


 978:C:/Users/dtjld/workspace/AIoT/src/LiteOS_Lab/iot_link/network/dtls/mbedtls/mbedtls-2.16.2/library\rsa.c ****      * TP = input ^ dP mod P
 979:C:/Users/dtjld/workspace/AIoT/src/LiteOS_Lab/iot_link/network/dtls/mbedtls/mbedtls-2.16.2/library\rsa.c ****      * TQ = input ^ dQ mod Q
 980:C:/Users/dtjld/workspace/AIoT/src/LiteOS_Lab/iot_link/network/dtls/mbedtls/mbedtls-2.16.2/library\rsa.c ****      */
 981:C:/Users/dtjld/workspace/AIoT/src/LiteOS_Lab/iot_link/network/dtls/mbedtls/mbedtls-2.16.2/library\rsa.c **** 
 982:C:/Users/dtjld/workspace/AIoT/src/LiteOS_Lab/iot_link/network/dtls/mbedtls/mbedtls-2.16.2/library\rsa.c ****     MBEDTLS_MPI_CHK( mbedtls_mpi_exp_mod( &TP, &T, DP, &ctx->P, &ctx->RP ) );
 3141              		.loc 1 982 0
 3142 027a FB68     		ldr	r3, [r7, #12]
 3143 027c 03F12C02 		add	r2, r3, #44
 3144 0280 FB68     		ldr	r3, [r7, #12]
 3145 0282 7433     		adds	r3, r3, #116
 3146 0284 07F17C01 		add	r1, r7, #124
 3147 0288 07F14C00 		add	r0, r7, #76
 3148 028c 0093     		str	r3, [sp]
 3149 028e 1346     		mov	r3, r2
 3150 0290 D7F89020 		ldr	r2, [r7, #144]
 3151 0294 FFF7FEFF 		bl	mbedtls_mpi_exp_mod
 3152 0298 C7F89400 		str	r0, [r7, #148]
 3153 029c D7F89430 		ldr	r3, [r7, #148]
 3154 02a0 002B     		cmp	r3, #0
 3155 02a2 40F0DE80 		bne	.L265
 983:C:/Users/dtjld/workspace/AIoT/src/LiteOS_Lab/iot_link/network/dtls/mbedtls/mbedtls-2.16.2/library\rsa.c ****     MBEDTLS_MPI_CHK( mbedtls_mpi_exp_mod( &TQ, &T, DQ, &ctx->Q, &ctx->RQ ) );
 3156              		.loc 1 983 0
 3157 02a6 FB68     		ldr	r3, [r7, #12]
 3158 02a8 03F13802 		add	r2, r3, #56
 3159 02ac FB68     		ldr	r3, [r7, #12]
 3160 02ae 8033     		adds	r3, r3, #128
 3161 02b0 07F17C01 		add	r1, r7, #124
 3162 02b4 07F14000 		add	r0, r7, #64
 3163 02b8 0093     		str	r3, [sp]
 3164 02ba 1346     		mov	r3, r2
 3165 02bc D7F88C20 		ldr	r2, [r7, #140]
 3166 02c0 FFF7FEFF 		bl	mbedtls_mpi_exp_mod
 3167 02c4 C7F89400 		str	r0, [r7, #148]
 3168 02c8 D7F89430 		ldr	r3, [r7, #148]
 3169 02cc 002B     		cmp	r3, #0
 3170 02ce 40F0CA80 		bne	.L266
 984:C:/Users/dtjld/workspace/AIoT/src/LiteOS_Lab/iot_link/network/dtls/mbedtls/mbedtls-2.16.2/library\rsa.c **** 
 985:C:/Users/dtjld/workspace/AIoT/src/LiteOS_Lab/iot_link/network/dtls/mbedtls/mbedtls-2.16.2/library\rsa.c ****     /*
 986:C:/Users/dtjld/workspace/AIoT/src/LiteOS_Lab/iot_link/network/dtls/mbedtls/mbedtls-2.16.2/library\rsa.c ****      * T = (TP - TQ) * (Q^-1 mod P) mod P
 987:C:/Users/dtjld/workspace/AIoT/src/LiteOS_Lab/iot_link/network/dtls/mbedtls/mbedtls-2.16.2/library\rsa.c ****      */
 988:C:/Users/dtjld/workspace/AIoT/src/LiteOS_Lab/iot_link/network/dtls/mbedtls/mbedtls-2.16.2/library\rsa.c ****     MBEDTLS_MPI_CHK( mbedtls_mpi_sub_mpi( &T, &TP, &TQ ) );
 3171              		.loc 1 988 0
 3172 02d2 07F14002 		add	r2, r7, #64
 3173 02d6 07F14C01 		add	r1, r7, #76
 3174 02da 07F17C03 		add	r3, r7, #124
 3175 02de 1846     		mov	r0, r3
 3176 02e0 FFF7FEFF 		bl	mbedtls_mpi_sub_mpi
 3177 02e4 C7F89400 		str	r0, [r7, #148]
 3178 02e8 D7F89430 		ldr	r3, [r7, #148]
 3179 02ec 002B     		cmp	r3, #0
 3180 02ee 40F0BC80 		bne	.L267
 989:C:/Users/dtjld/workspace/AIoT/src/LiteOS_Lab/iot_link/network/dtls/mbedtls/mbedtls-2.16.2/library\rsa.c ****     MBEDTLS_MPI_CHK( mbedtls_mpi_mul_mpi( &TP, &T, &ctx->QP ) );
 3181              		.loc 1 989 0
 3182 02f2 FB68     		ldr	r3, [r7, #12]
 3183 02f4 03F15C02 		add	r2, r3, #92
 3184 02f8 07F17C01 		add	r1, r7, #124
 3185 02fc 07F14C03 		add	r3, r7, #76
ARM GAS  C:\Users\dtjld\AppData\Local\Temp\cck1fUMg.s 			page 75


 3186 0300 1846     		mov	r0, r3
 3187 0302 FFF7FEFF 		bl	mbedtls_mpi_mul_mpi
 3188 0306 C7F89400 		str	r0, [r7, #148]
 3189 030a D7F89430 		ldr	r3, [r7, #148]
 3190 030e 002B     		cmp	r3, #0
 3191 0310 40F0AD80 		bne	.L268
 990:C:/Users/dtjld/workspace/AIoT/src/LiteOS_Lab/iot_link/network/dtls/mbedtls/mbedtls-2.16.2/library\rsa.c ****     MBEDTLS_MPI_CHK( mbedtls_mpi_mod_mpi( &T, &TP, &ctx->P ) );
 3192              		.loc 1 990 0
 3193 0314 FB68     		ldr	r3, [r7, #12]
 3194 0316 03F12C02 		add	r2, r3, #44
 3195 031a 07F14C01 		add	r1, r7, #76
 3196 031e 07F17C03 		add	r3, r7, #124
 3197 0322 1846     		mov	r0, r3
 3198 0324 FFF7FEFF 		bl	mbedtls_mpi_mod_mpi
 3199 0328 C7F89400 		str	r0, [r7, #148]
 3200 032c D7F89430 		ldr	r3, [r7, #148]
 3201 0330 002B     		cmp	r3, #0
 3202 0332 40F09E80 		bne	.L269
 991:C:/Users/dtjld/workspace/AIoT/src/LiteOS_Lab/iot_link/network/dtls/mbedtls/mbedtls-2.16.2/library\rsa.c **** 
 992:C:/Users/dtjld/workspace/AIoT/src/LiteOS_Lab/iot_link/network/dtls/mbedtls/mbedtls-2.16.2/library\rsa.c ****     /*
 993:C:/Users/dtjld/workspace/AIoT/src/LiteOS_Lab/iot_link/network/dtls/mbedtls/mbedtls-2.16.2/library\rsa.c ****      * T = TQ + T * Q
 994:C:/Users/dtjld/workspace/AIoT/src/LiteOS_Lab/iot_link/network/dtls/mbedtls/mbedtls-2.16.2/library\rsa.c ****      */
 995:C:/Users/dtjld/workspace/AIoT/src/LiteOS_Lab/iot_link/network/dtls/mbedtls/mbedtls-2.16.2/library\rsa.c ****     MBEDTLS_MPI_CHK( mbedtls_mpi_mul_mpi( &TP, &T, &ctx->Q ) );
 3203              		.loc 1 995 0
 3204 0336 FB68     		ldr	r3, [r7, #12]
 3205 0338 03F13802 		add	r2, r3, #56
 3206 033c 07F17C01 		add	r1, r7, #124
 3207 0340 07F14C03 		add	r3, r7, #76
 3208 0344 1846     		mov	r0, r3
 3209 0346 FFF7FEFF 		bl	mbedtls_mpi_mul_mpi
 3210 034a C7F89400 		str	r0, [r7, #148]
 3211 034e D7F89430 		ldr	r3, [r7, #148]
 3212 0352 002B     		cmp	r3, #0
 3213 0354 40F08F80 		bne	.L270
 996:C:/Users/dtjld/workspace/AIoT/src/LiteOS_Lab/iot_link/network/dtls/mbedtls/mbedtls-2.16.2/library\rsa.c ****     MBEDTLS_MPI_CHK( mbedtls_mpi_add_mpi( &T, &TQ, &TP ) );
 3214              		.loc 1 996 0
 3215 0358 07F14C02 		add	r2, r7, #76
 3216 035c 07F14001 		add	r1, r7, #64
 3217 0360 07F17C03 		add	r3, r7, #124
 3218 0364 1846     		mov	r0, r3
 3219 0366 FFF7FEFF 		bl	mbedtls_mpi_add_mpi
 3220 036a C7F89400 		str	r0, [r7, #148]
 3221 036e D7F89430 		ldr	r3, [r7, #148]
 3222 0372 002B     		cmp	r3, #0
 3223 0374 40F08180 		bne	.L271
 997:C:/Users/dtjld/workspace/AIoT/src/LiteOS_Lab/iot_link/network/dtls/mbedtls/mbedtls-2.16.2/library\rsa.c **** #endif /* MBEDTLS_RSA_NO_CRT */
 998:C:/Users/dtjld/workspace/AIoT/src/LiteOS_Lab/iot_link/network/dtls/mbedtls/mbedtls-2.16.2/library\rsa.c **** 
 999:C:/Users/dtjld/workspace/AIoT/src/LiteOS_Lab/iot_link/network/dtls/mbedtls/mbedtls-2.16.2/library\rsa.c ****     if( f_rng != NULL )
 3224              		.loc 1 999 0
 3225 0378 BB68     		ldr	r3, [r7, #8]
 3226 037a 002B     		cmp	r3, #0
 3227 037c 1FD0     		beq	.L245
1000:C:/Users/dtjld/workspace/AIoT/src/LiteOS_Lab/iot_link/network/dtls/mbedtls/mbedtls-2.16.2/library\rsa.c ****     {
1001:C:/Users/dtjld/workspace/AIoT/src/LiteOS_Lab/iot_link/network/dtls/mbedtls/mbedtls-2.16.2/library\rsa.c ****         /*
1002:C:/Users/dtjld/workspace/AIoT/src/LiteOS_Lab/iot_link/network/dtls/mbedtls/mbedtls-2.16.2/library\rsa.c ****          * Unblind
1003:C:/Users/dtjld/workspace/AIoT/src/LiteOS_Lab/iot_link/network/dtls/mbedtls/mbedtls-2.16.2/library\rsa.c ****          * T = T * Vf mod N
1004:C:/Users/dtjld/workspace/AIoT/src/LiteOS_Lab/iot_link/network/dtls/mbedtls/mbedtls-2.16.2/library\rsa.c ****          */
ARM GAS  C:\Users\dtjld\AppData\Local\Temp\cck1fUMg.s 			page 76


1005:C:/Users/dtjld/workspace/AIoT/src/LiteOS_Lab/iot_link/network/dtls/mbedtls/mbedtls-2.16.2/library\rsa.c ****         MBEDTLS_MPI_CHK( mbedtls_mpi_mul_mpi( &T, &T, &ctx->Vf ) );
 3228              		.loc 1 1005 0
 3229 037e FB68     		ldr	r3, [r7, #12]
 3230 0380 03F19802 		add	r2, r3, #152
 3231 0384 07F17C01 		add	r1, r7, #124
 3232 0388 07F17C03 		add	r3, r7, #124
 3233 038c 1846     		mov	r0, r3
 3234 038e FFF7FEFF 		bl	mbedtls_mpi_mul_mpi
 3235 0392 C7F89400 		str	r0, [r7, #148]
 3236 0396 D7F89430 		ldr	r3, [r7, #148]
 3237 039a 002B     		cmp	r3, #0
 3238 039c 6FD1     		bne	.L272
1006:C:/Users/dtjld/workspace/AIoT/src/LiteOS_Lab/iot_link/network/dtls/mbedtls/mbedtls-2.16.2/library\rsa.c ****         MBEDTLS_MPI_CHK( mbedtls_mpi_mod_mpi( &T, &T, &ctx->N ) );
 3239              		.loc 1 1006 0
 3240 039e FB68     		ldr	r3, [r7, #12]
 3241 03a0 03F10802 		add	r2, r3, #8
 3242 03a4 07F17C01 		add	r1, r7, #124
 3243 03a8 07F17C03 		add	r3, r7, #124
 3244 03ac 1846     		mov	r0, r3
 3245 03ae FFF7FEFF 		bl	mbedtls_mpi_mod_mpi
 3246 03b2 C7F89400 		str	r0, [r7, #148]
 3247 03b6 D7F89430 		ldr	r3, [r7, #148]
 3248 03ba 002B     		cmp	r3, #0
 3249 03bc 61D1     		bne	.L273
 3250              	.L245:
1007:C:/Users/dtjld/workspace/AIoT/src/LiteOS_Lab/iot_link/network/dtls/mbedtls/mbedtls-2.16.2/library\rsa.c ****     }
1008:C:/Users/dtjld/workspace/AIoT/src/LiteOS_Lab/iot_link/network/dtls/mbedtls/mbedtls-2.16.2/library\rsa.c **** 
1009:C:/Users/dtjld/workspace/AIoT/src/LiteOS_Lab/iot_link/network/dtls/mbedtls/mbedtls-2.16.2/library\rsa.c ****     /* Verify the result to prevent glitching attacks. */
1010:C:/Users/dtjld/workspace/AIoT/src/LiteOS_Lab/iot_link/network/dtls/mbedtls/mbedtls-2.16.2/library\rsa.c ****     MBEDTLS_MPI_CHK( mbedtls_mpi_exp_mod( &C, &T, &ctx->E,
 3251              		.loc 1 1010 0
 3252 03be FB68     		ldr	r3, [r7, #12]
 3253 03c0 03F11402 		add	r2, r3, #20
 3254 03c4 FB68     		ldr	r3, [r7, #12]
 3255 03c6 03F10804 		add	r4, r3, #8
 3256 03ca FB68     		ldr	r3, [r7, #12]
 3257 03cc 6833     		adds	r3, r3, #104
 3258 03ce 07F17C01 		add	r1, r7, #124
 3259 03d2 07F11000 		add	r0, r7, #16
 3260 03d6 0093     		str	r3, [sp]
 3261 03d8 2346     		mov	r3, r4
 3262 03da FFF7FEFF 		bl	mbedtls_mpi_exp_mod
 3263 03de C7F89400 		str	r0, [r7, #148]
 3264 03e2 D7F89430 		ldr	r3, [r7, #148]
 3265 03e6 002B     		cmp	r3, #0
 3266 03e8 4DD1     		bne	.L274
1011:C:/Users/dtjld/workspace/AIoT/src/LiteOS_Lab/iot_link/network/dtls/mbedtls/mbedtls-2.16.2/library\rsa.c ****                                           &ctx->N, &ctx->RN ) );
1012:C:/Users/dtjld/workspace/AIoT/src/LiteOS_Lab/iot_link/network/dtls/mbedtls/mbedtls-2.16.2/library\rsa.c ****     if( mbedtls_mpi_cmp_mpi( &C, &I ) != 0 )
 3267              		.loc 1 1012 0
 3268 03ea 07F11C02 		add	r2, r7, #28
 3269 03ee 07F11003 		add	r3, r7, #16
 3270 03f2 1146     		mov	r1, r2
 3271 03f4 1846     		mov	r0, r3
 3272 03f6 FFF7FEFF 		bl	mbedtls_mpi_cmp_mpi
 3273 03fa 0346     		mov	r3, r0
 3274 03fc 002B     		cmp	r3, #0
 3275 03fe 03D0     		beq	.L248
1013:C:/Users/dtjld/workspace/AIoT/src/LiteOS_Lab/iot_link/network/dtls/mbedtls/mbedtls-2.16.2/library\rsa.c ****     {
ARM GAS  C:\Users\dtjld\AppData\Local\Temp\cck1fUMg.s 			page 77


1014:C:/Users/dtjld/workspace/AIoT/src/LiteOS_Lab/iot_link/network/dtls/mbedtls/mbedtls-2.16.2/library\rsa.c ****         ret = MBEDTLS_ERR_RSA_VERIFY_FAILED;
 3276              		.loc 1 1014 0
 3277 0400 434B     		ldr	r3, .L277
 3278 0402 C7F89430 		str	r3, [r7, #148]
1015:C:/Users/dtjld/workspace/AIoT/src/LiteOS_Lab/iot_link/network/dtls/mbedtls/mbedtls-2.16.2/library\rsa.c ****         goto cleanup;
 3279              		.loc 1 1015 0
 3280 0406 3FE0     		b	.L223
 3281              	.L248:
1016:C:/Users/dtjld/workspace/AIoT/src/LiteOS_Lab/iot_link/network/dtls/mbedtls/mbedtls-2.16.2/library\rsa.c ****     }
1017:C:/Users/dtjld/workspace/AIoT/src/LiteOS_Lab/iot_link/network/dtls/mbedtls/mbedtls-2.16.2/library\rsa.c **** 
1018:C:/Users/dtjld/workspace/AIoT/src/LiteOS_Lab/iot_link/network/dtls/mbedtls/mbedtls-2.16.2/library\rsa.c ****     olen = ctx->len;
 3282              		.loc 1 1018 0
 3283 0408 FB68     		ldr	r3, [r7, #12]
 3284 040a 5B68     		ldr	r3, [r3, #4]
 3285 040c C7F88830 		str	r3, [r7, #136]
1019:C:/Users/dtjld/workspace/AIoT/src/LiteOS_Lab/iot_link/network/dtls/mbedtls/mbedtls-2.16.2/library\rsa.c ****     MBEDTLS_MPI_CHK( mbedtls_mpi_write_binary( &T, output, olen ) );
 3286              		.loc 1 1019 0
 3287 0410 07F17C03 		add	r3, r7, #124
 3288 0414 D7F88820 		ldr	r2, [r7, #136]
 3289 0418 D7F8A810 		ldr	r1, [r7, #168]
 3290 041c 1846     		mov	r0, r3
 3291 041e FFF7FEFF 		bl	mbedtls_mpi_write_binary
 3292 0422 C7F89400 		str	r0, [r7, #148]
 3293 0426 D7F89430 		ldr	r3, [r7, #148]
 3294 042a 002B     		cmp	r3, #0
1020:C:/Users/dtjld/workspace/AIoT/src/LiteOS_Lab/iot_link/network/dtls/mbedtls/mbedtls-2.16.2/library\rsa.c **** 
1021:C:/Users/dtjld/workspace/AIoT/src/LiteOS_Lab/iot_link/network/dtls/mbedtls/mbedtls-2.16.2/library\rsa.c **** cleanup:
 3295              		.loc 1 1021 0
 3296 042c 2CE0     		b	.L223
 3297              	.L252:
 911:C:/Users/dtjld/workspace/AIoT/src/LiteOS_Lab/iot_link/network/dtls/mbedtls/mbedtls-2.16.2/library\rsa.c ****     if( mbedtls_mpi_cmp_mpi( &T, &ctx->N ) >= 0 )
 3298              		.loc 1 911 0
 3299 042e 00BF     		nop
 3300 0430 2AE0     		b	.L223
 3301              	.L253:
 918:C:/Users/dtjld/workspace/AIoT/src/LiteOS_Lab/iot_link/network/dtls/mbedtls/mbedtls-2.16.2/library\rsa.c **** 
 3302              		.loc 1 918 0
 3303 0432 00BF     		nop
 3304 0434 28E0     		b	.L223
 3305              	.L254:
 926:C:/Users/dtjld/workspace/AIoT/src/LiteOS_Lab/iot_link/network/dtls/mbedtls/mbedtls-2.16.2/library\rsa.c ****         MBEDTLS_MPI_CHK( mbedtls_mpi_mul_mpi( &T, &T, &ctx->Vi ) );
 3306              		.loc 1 926 0
 3307 0436 00BF     		nop
 3308 0438 26E0     		b	.L223
 3309              	.L255:
 927:C:/Users/dtjld/workspace/AIoT/src/LiteOS_Lab/iot_link/network/dtls/mbedtls/mbedtls-2.16.2/library\rsa.c ****         MBEDTLS_MPI_CHK( mbedtls_mpi_mod_mpi( &T, &T, &ctx->N ) );
 3310              		.loc 1 927 0
 3311 043a 00BF     		nop
 3312 043c 24E0     		b	.L223
 3313              	.L256:
 928:C:/Users/dtjld/workspace/AIoT/src/LiteOS_Lab/iot_link/network/dtls/mbedtls/mbedtls-2.16.2/library\rsa.c **** 
 3314              		.loc 1 928 0
 3315 043e 00BF     		nop
 3316 0440 22E0     		b	.L223
 3317              	.L257:
 933:C:/Users/dtjld/workspace/AIoT/src/LiteOS_Lab/iot_link/network/dtls/mbedtls/mbedtls-2.16.2/library\rsa.c ****         MBEDTLS_MPI_CHK( mbedtls_mpi_sub_int( &Q1, &ctx->Q, 1 ) );
 3318              		.loc 1 933 0
ARM GAS  C:\Users\dtjld\AppData\Local\Temp\cck1fUMg.s 			page 78


 3319 0442 00BF     		nop
 3320 0444 20E0     		b	.L223
 3321              	.L258:
 934:C:/Users/dtjld/workspace/AIoT/src/LiteOS_Lab/iot_link/network/dtls/mbedtls/mbedtls-2.16.2/library\rsa.c **** 
 3322              		.loc 1 934 0
 3323 0446 00BF     		nop
 3324 0448 1EE0     		b	.L223
 3325              	.L259:
 951:C:/Users/dtjld/workspace/AIoT/src/LiteOS_Lab/iot_link/network/dtls/mbedtls/mbedtls-2.16.2/library\rsa.c ****                          f_rng, p_rng ) );
 3326              		.loc 1 951 0
 3327 044a 00BF     		nop
 3328 044c 1CE0     		b	.L223
 3329              	.L260:
 953:C:/Users/dtjld/workspace/AIoT/src/LiteOS_Lab/iot_link/network/dtls/mbedtls/mbedtls-2.16.2/library\rsa.c ****         MBEDTLS_MPI_CHK( mbedtls_mpi_add_mpi( &DP_blind, &DP_blind,
 3330              		.loc 1 953 0
 3331 044e 00BF     		nop
 3332 0450 1AE0     		b	.L223
 3333              	.L261:
 954:C:/Users/dtjld/workspace/AIoT/src/LiteOS_Lab/iot_link/network/dtls/mbedtls/mbedtls-2.16.2/library\rsa.c ****                     &ctx->DP ) );
 3334              		.loc 1 954 0
 3335 0452 00BF     		nop
 3336 0454 18E0     		b	.L223
 3337              	.L262:
 962:C:/Users/dtjld/workspace/AIoT/src/LiteOS_Lab/iot_link/network/dtls/mbedtls/mbedtls-2.16.2/library\rsa.c ****                          f_rng, p_rng ) );
 3338              		.loc 1 962 0
 3339 0456 00BF     		nop
 3340 0458 16E0     		b	.L223
 3341              	.L263:
 964:C:/Users/dtjld/workspace/AIoT/src/LiteOS_Lab/iot_link/network/dtls/mbedtls/mbedtls-2.16.2/library\rsa.c ****         MBEDTLS_MPI_CHK( mbedtls_mpi_add_mpi( &DQ_blind, &DQ_blind,
 3342              		.loc 1 964 0
 3343 045a 00BF     		nop
 3344 045c 14E0     		b	.L223
 3345              	.L264:
 965:C:/Users/dtjld/workspace/AIoT/src/LiteOS_Lab/iot_link/network/dtls/mbedtls/mbedtls-2.16.2/library\rsa.c ****                     &ctx->DQ ) );
 3346              		.loc 1 965 0
 3347 045e 00BF     		nop
 3348 0460 12E0     		b	.L223
 3349              	.L265:
 982:C:/Users/dtjld/workspace/AIoT/src/LiteOS_Lab/iot_link/network/dtls/mbedtls/mbedtls-2.16.2/library\rsa.c ****     MBEDTLS_MPI_CHK( mbedtls_mpi_exp_mod( &TQ, &T, DQ, &ctx->Q, &ctx->RQ ) );
 3350              		.loc 1 982 0
 3351 0462 00BF     		nop
 3352 0464 10E0     		b	.L223
 3353              	.L266:
 983:C:/Users/dtjld/workspace/AIoT/src/LiteOS_Lab/iot_link/network/dtls/mbedtls/mbedtls-2.16.2/library\rsa.c **** 
 3354              		.loc 1 983 0
 3355 0466 00BF     		nop
 3356 0468 0EE0     		b	.L223
 3357              	.L267:
 988:C:/Users/dtjld/workspace/AIoT/src/LiteOS_Lab/iot_link/network/dtls/mbedtls/mbedtls-2.16.2/library\rsa.c ****     MBEDTLS_MPI_CHK( mbedtls_mpi_mul_mpi( &TP, &T, &ctx->QP ) );
 3358              		.loc 1 988 0
 3359 046a 00BF     		nop
 3360 046c 0CE0     		b	.L223
 3361              	.L268:
 989:C:/Users/dtjld/workspace/AIoT/src/LiteOS_Lab/iot_link/network/dtls/mbedtls/mbedtls-2.16.2/library\rsa.c ****     MBEDTLS_MPI_CHK( mbedtls_mpi_mod_mpi( &T, &TP, &ctx->P ) );
 3362              		.loc 1 989 0
 3363 046e 00BF     		nop
 3364 0470 0AE0     		b	.L223
ARM GAS  C:\Users\dtjld\AppData\Local\Temp\cck1fUMg.s 			page 79


 3365              	.L269:
 990:C:/Users/dtjld/workspace/AIoT/src/LiteOS_Lab/iot_link/network/dtls/mbedtls/mbedtls-2.16.2/library\rsa.c **** 
 3366              		.loc 1 990 0
 3367 0472 00BF     		nop
 3368 0474 08E0     		b	.L223
 3369              	.L270:
 995:C:/Users/dtjld/workspace/AIoT/src/LiteOS_Lab/iot_link/network/dtls/mbedtls/mbedtls-2.16.2/library\rsa.c ****     MBEDTLS_MPI_CHK( mbedtls_mpi_add_mpi( &T, &TQ, &TP ) );
 3370              		.loc 1 995 0
 3371 0476 00BF     		nop
 3372 0478 06E0     		b	.L223
 3373              	.L271:
 996:C:/Users/dtjld/workspace/AIoT/src/LiteOS_Lab/iot_link/network/dtls/mbedtls/mbedtls-2.16.2/library\rsa.c **** #endif /* MBEDTLS_RSA_NO_CRT */
 3374              		.loc 1 996 0
 3375 047a 00BF     		nop
 3376 047c 04E0     		b	.L223
 3377              	.L272:
1005:C:/Users/dtjld/workspace/AIoT/src/LiteOS_Lab/iot_link/network/dtls/mbedtls/mbedtls-2.16.2/library\rsa.c ****         MBEDTLS_MPI_CHK( mbedtls_mpi_mod_mpi( &T, &T, &ctx->N ) );
 3378              		.loc 1 1005 0
 3379 047e 00BF     		nop
 3380 0480 02E0     		b	.L223
 3381              	.L273:
1006:C:/Users/dtjld/workspace/AIoT/src/LiteOS_Lab/iot_link/network/dtls/mbedtls/mbedtls-2.16.2/library\rsa.c ****     }
 3382              		.loc 1 1006 0
 3383 0482 00BF     		nop
 3384 0484 00E0     		b	.L223
 3385              	.L274:
1010:C:/Users/dtjld/workspace/AIoT/src/LiteOS_Lab/iot_link/network/dtls/mbedtls/mbedtls-2.16.2/library\rsa.c ****                                           &ctx->N, &ctx->RN ) );
 3386              		.loc 1 1010 0
 3387 0486 00BF     		nop
 3388              	.L223:
1022:C:/Users/dtjld/workspace/AIoT/src/LiteOS_Lab/iot_link/network/dtls/mbedtls/mbedtls-2.16.2/library\rsa.c **** #if defined(MBEDTLS_THREADING_C)
1023:C:/Users/dtjld/workspace/AIoT/src/LiteOS_Lab/iot_link/network/dtls/mbedtls/mbedtls-2.16.2/library\rsa.c ****     if( mbedtls_mutex_unlock( &ctx->mutex ) != 0 )
1024:C:/Users/dtjld/workspace/AIoT/src/LiteOS_Lab/iot_link/network/dtls/mbedtls/mbedtls-2.16.2/library\rsa.c ****         return( MBEDTLS_ERR_THREADING_MUTEX_ERROR );
1025:C:/Users/dtjld/workspace/AIoT/src/LiteOS_Lab/iot_link/network/dtls/mbedtls/mbedtls-2.16.2/library\rsa.c **** #endif
1026:C:/Users/dtjld/workspace/AIoT/src/LiteOS_Lab/iot_link/network/dtls/mbedtls/mbedtls-2.16.2/library\rsa.c **** 
1027:C:/Users/dtjld/workspace/AIoT/src/LiteOS_Lab/iot_link/network/dtls/mbedtls/mbedtls-2.16.2/library\rsa.c ****     mbedtls_mpi_free( &P1 );
 3389              		.loc 1 1027 0
 3390 0488 07F17003 		add	r3, r7, #112
 3391 048c 1846     		mov	r0, r3
 3392 048e FFF7FEFF 		bl	mbedtls_mpi_free
1028:C:/Users/dtjld/workspace/AIoT/src/LiteOS_Lab/iot_link/network/dtls/mbedtls/mbedtls-2.16.2/library\rsa.c ****     mbedtls_mpi_free( &Q1 );
 3393              		.loc 1 1028 0
 3394 0492 07F16403 		add	r3, r7, #100
 3395 0496 1846     		mov	r0, r3
 3396 0498 FFF7FEFF 		bl	mbedtls_mpi_free
1029:C:/Users/dtjld/workspace/AIoT/src/LiteOS_Lab/iot_link/network/dtls/mbedtls/mbedtls-2.16.2/library\rsa.c ****     mbedtls_mpi_free( &R );
 3397              		.loc 1 1029 0
 3398 049c 07F15803 		add	r3, r7, #88
 3399 04a0 1846     		mov	r0, r3
 3400 04a2 FFF7FEFF 		bl	mbedtls_mpi_free
1030:C:/Users/dtjld/workspace/AIoT/src/LiteOS_Lab/iot_link/network/dtls/mbedtls/mbedtls-2.16.2/library\rsa.c **** 
1031:C:/Users/dtjld/workspace/AIoT/src/LiteOS_Lab/iot_link/network/dtls/mbedtls/mbedtls-2.16.2/library\rsa.c ****     if( f_rng != NULL )
 3401              		.loc 1 1031 0
 3402 04a6 BB68     		ldr	r3, [r7, #8]
 3403 04a8 002B     		cmp	r3, #0
 3404 04aa 09D0     		beq	.L249
1032:C:/Users/dtjld/workspace/AIoT/src/LiteOS_Lab/iot_link/network/dtls/mbedtls/mbedtls-2.16.2/library\rsa.c ****     {
ARM GAS  C:\Users\dtjld\AppData\Local\Temp\cck1fUMg.s 			page 80


1033:C:/Users/dtjld/workspace/AIoT/src/LiteOS_Lab/iot_link/network/dtls/mbedtls/mbedtls-2.16.2/library\rsa.c **** #if defined(MBEDTLS_RSA_NO_CRT)
1034:C:/Users/dtjld/workspace/AIoT/src/LiteOS_Lab/iot_link/network/dtls/mbedtls/mbedtls-2.16.2/library\rsa.c ****         mbedtls_mpi_free( &D_blind );
1035:C:/Users/dtjld/workspace/AIoT/src/LiteOS_Lab/iot_link/network/dtls/mbedtls/mbedtls-2.16.2/library\rsa.c **** #else
1036:C:/Users/dtjld/workspace/AIoT/src/LiteOS_Lab/iot_link/network/dtls/mbedtls/mbedtls-2.16.2/library\rsa.c ****         mbedtls_mpi_free( &DP_blind );
 3405              		.loc 1 1036 0
 3406 04ac 07F13403 		add	r3, r7, #52
 3407 04b0 1846     		mov	r0, r3
 3408 04b2 FFF7FEFF 		bl	mbedtls_mpi_free
1037:C:/Users/dtjld/workspace/AIoT/src/LiteOS_Lab/iot_link/network/dtls/mbedtls/mbedtls-2.16.2/library\rsa.c ****         mbedtls_mpi_free( &DQ_blind );
 3409              		.loc 1 1037 0
 3410 04b6 07F12803 		add	r3, r7, #40
 3411 04ba 1846     		mov	r0, r3
 3412 04bc FFF7FEFF 		bl	mbedtls_mpi_free
 3413              	.L249:
1038:C:/Users/dtjld/workspace/AIoT/src/LiteOS_Lab/iot_link/network/dtls/mbedtls/mbedtls-2.16.2/library\rsa.c **** #endif
1039:C:/Users/dtjld/workspace/AIoT/src/LiteOS_Lab/iot_link/network/dtls/mbedtls/mbedtls-2.16.2/library\rsa.c ****     }
1040:C:/Users/dtjld/workspace/AIoT/src/LiteOS_Lab/iot_link/network/dtls/mbedtls/mbedtls-2.16.2/library\rsa.c **** 
1041:C:/Users/dtjld/workspace/AIoT/src/LiteOS_Lab/iot_link/network/dtls/mbedtls/mbedtls-2.16.2/library\rsa.c ****     mbedtls_mpi_free( &T );
 3414              		.loc 1 1041 0
 3415 04c0 07F17C03 		add	r3, r7, #124
 3416 04c4 1846     		mov	r0, r3
 3417 04c6 FFF7FEFF 		bl	mbedtls_mpi_free
1042:C:/Users/dtjld/workspace/AIoT/src/LiteOS_Lab/iot_link/network/dtls/mbedtls/mbedtls-2.16.2/library\rsa.c **** 
1043:C:/Users/dtjld/workspace/AIoT/src/LiteOS_Lab/iot_link/network/dtls/mbedtls/mbedtls-2.16.2/library\rsa.c **** #if !defined(MBEDTLS_RSA_NO_CRT)
1044:C:/Users/dtjld/workspace/AIoT/src/LiteOS_Lab/iot_link/network/dtls/mbedtls/mbedtls-2.16.2/library\rsa.c ****     mbedtls_mpi_free( &TP ); mbedtls_mpi_free( &TQ );
 3418              		.loc 1 1044 0
 3419 04ca 07F14C03 		add	r3, r7, #76
 3420 04ce 1846     		mov	r0, r3
 3421 04d0 FFF7FEFF 		bl	mbedtls_mpi_free
 3422 04d4 07F14003 		add	r3, r7, #64
 3423 04d8 1846     		mov	r0, r3
 3424 04da FFF7FEFF 		bl	mbedtls_mpi_free
1045:C:/Users/dtjld/workspace/AIoT/src/LiteOS_Lab/iot_link/network/dtls/mbedtls/mbedtls-2.16.2/library\rsa.c **** #endif
1046:C:/Users/dtjld/workspace/AIoT/src/LiteOS_Lab/iot_link/network/dtls/mbedtls/mbedtls-2.16.2/library\rsa.c **** 
1047:C:/Users/dtjld/workspace/AIoT/src/LiteOS_Lab/iot_link/network/dtls/mbedtls/mbedtls-2.16.2/library\rsa.c ****     mbedtls_mpi_free( &C );
 3425              		.loc 1 1047 0
 3426 04de 07F11003 		add	r3, r7, #16
 3427 04e2 1846     		mov	r0, r3
 3428 04e4 FFF7FEFF 		bl	mbedtls_mpi_free
1048:C:/Users/dtjld/workspace/AIoT/src/LiteOS_Lab/iot_link/network/dtls/mbedtls/mbedtls-2.16.2/library\rsa.c ****     mbedtls_mpi_free( &I );
 3429              		.loc 1 1048 0
 3430 04e8 07F11C03 		add	r3, r7, #28
 3431 04ec 1846     		mov	r0, r3
 3432 04ee FFF7FEFF 		bl	mbedtls_mpi_free
1049:C:/Users/dtjld/workspace/AIoT/src/LiteOS_Lab/iot_link/network/dtls/mbedtls/mbedtls-2.16.2/library\rsa.c **** 
1050:C:/Users/dtjld/workspace/AIoT/src/LiteOS_Lab/iot_link/network/dtls/mbedtls/mbedtls-2.16.2/library\rsa.c ****     if( ret != 0 )
 3433              		.loc 1 1050 0
 3434 04f2 D7F89430 		ldr	r3, [r7, #148]
 3435 04f6 002B     		cmp	r3, #0
 3436 04f8 04D0     		beq	.L250
1051:C:/Users/dtjld/workspace/AIoT/src/LiteOS_Lab/iot_link/network/dtls/mbedtls/mbedtls-2.16.2/library\rsa.c ****         return( MBEDTLS_ERR_RSA_PRIVATE_FAILED + ret );
 3437              		.loc 1 1051 0
 3438 04fa D7F89430 		ldr	r3, [r7, #148]
 3439 04fe A3F58643 		sub	r3, r3, #17152
 3440 0502 00E0     		b	.L251
 3441              	.L250:
1052:C:/Users/dtjld/workspace/AIoT/src/LiteOS_Lab/iot_link/network/dtls/mbedtls/mbedtls-2.16.2/library\rsa.c **** 
ARM GAS  C:\Users\dtjld\AppData\Local\Temp\cck1fUMg.s 			page 81


1053:C:/Users/dtjld/workspace/AIoT/src/LiteOS_Lab/iot_link/network/dtls/mbedtls/mbedtls-2.16.2/library\rsa.c ****     return( 0 );
 3442              		.loc 1 1053 0
 3443 0504 0023     		movs	r3, #0
 3444              	.L251:
1054:C:/Users/dtjld/workspace/AIoT/src/LiteOS_Lab/iot_link/network/dtls/mbedtls/mbedtls-2.16.2/library\rsa.c **** }
 3445              		.loc 1 1054 0 discriminator 1
 3446 0506 1846     		mov	r0, r3
 3447 0508 9C37     		adds	r7, r7, #156
 3448              	.LCFI91:
 3449              		.cfi_def_cfa_offset 12
 3450 050a BD46     		mov	sp, r7
 3451              	.LCFI92:
 3452              		.cfi_def_cfa_register 13
 3453              		@ sp needed
 3454 050c 90BD     		pop	{r4, r7, pc}
 3455              	.L278:
 3456 050e 00BF     		.align	2
 3457              	.L277:
 3458 0510 80BCFFFF 		.word	-17280
 3459              		.cfi_endproc
 3460              	.LFE30:
 3462              		.section	.text.mgf_mask,"ax",%progbits
 3463              		.align	1
 3464              		.syntax unified
 3465              		.thumb
 3466              		.thumb_func
 3467              		.fpu fpv4-sp-d16
 3469              	mgf_mask:
 3470              	.LFB31:
1055:C:/Users/dtjld/workspace/AIoT/src/LiteOS_Lab/iot_link/network/dtls/mbedtls/mbedtls-2.16.2/library\rsa.c **** 
1056:C:/Users/dtjld/workspace/AIoT/src/LiteOS_Lab/iot_link/network/dtls/mbedtls/mbedtls-2.16.2/library\rsa.c **** #if defined(MBEDTLS_PKCS1_V21)
1057:C:/Users/dtjld/workspace/AIoT/src/LiteOS_Lab/iot_link/network/dtls/mbedtls/mbedtls-2.16.2/library\rsa.c **** /**
1058:C:/Users/dtjld/workspace/AIoT/src/LiteOS_Lab/iot_link/network/dtls/mbedtls/mbedtls-2.16.2/library\rsa.c ****  * Generate and apply the MGF1 operation (from PKCS#1 v2.1) to a buffer.
1059:C:/Users/dtjld/workspace/AIoT/src/LiteOS_Lab/iot_link/network/dtls/mbedtls/mbedtls-2.16.2/library\rsa.c ****  *
1060:C:/Users/dtjld/workspace/AIoT/src/LiteOS_Lab/iot_link/network/dtls/mbedtls/mbedtls-2.16.2/library\rsa.c ****  * \param dst       buffer to mask
1061:C:/Users/dtjld/workspace/AIoT/src/LiteOS_Lab/iot_link/network/dtls/mbedtls/mbedtls-2.16.2/library\rsa.c ****  * \param dlen      length of destination buffer
1062:C:/Users/dtjld/workspace/AIoT/src/LiteOS_Lab/iot_link/network/dtls/mbedtls/mbedtls-2.16.2/library\rsa.c ****  * \param src       source of the mask generation
1063:C:/Users/dtjld/workspace/AIoT/src/LiteOS_Lab/iot_link/network/dtls/mbedtls/mbedtls-2.16.2/library\rsa.c ****  * \param slen      length of the source buffer
1064:C:/Users/dtjld/workspace/AIoT/src/LiteOS_Lab/iot_link/network/dtls/mbedtls/mbedtls-2.16.2/library\rsa.c ****  * \param md_ctx    message digest context to use
1065:C:/Users/dtjld/workspace/AIoT/src/LiteOS_Lab/iot_link/network/dtls/mbedtls/mbedtls-2.16.2/library\rsa.c ****  */
1066:C:/Users/dtjld/workspace/AIoT/src/LiteOS_Lab/iot_link/network/dtls/mbedtls/mbedtls-2.16.2/library\rsa.c **** static int mgf_mask( unsigned char *dst, size_t dlen, unsigned char *src,
1067:C:/Users/dtjld/workspace/AIoT/src/LiteOS_Lab/iot_link/network/dtls/mbedtls/mbedtls-2.16.2/library\rsa.c ****                       size_t slen, mbedtls_md_context_t *md_ctx )
1068:C:/Users/dtjld/workspace/AIoT/src/LiteOS_Lab/iot_link/network/dtls/mbedtls/mbedtls-2.16.2/library\rsa.c **** {
 3471              		.loc 1 1068 0
 3472              		.cfi_startproc
 3473              		@ args = 4, pretend = 0, frame = 104
 3474              		@ frame_needed = 1, uses_anonymous_args = 0
 3475 0000 80B5     		push	{r7, lr}
 3476              	.LCFI93:
 3477              		.cfi_def_cfa_offset 8
 3478              		.cfi_offset 7, -8
 3479              		.cfi_offset 14, -4
 3480 0002 9AB0     		sub	sp, sp, #104
 3481              	.LCFI94:
 3482              		.cfi_def_cfa_offset 112
 3483 0004 00AF     		add	r7, sp, #0
 3484              	.LCFI95:
ARM GAS  C:\Users\dtjld\AppData\Local\Temp\cck1fUMg.s 			page 82


 3485              		.cfi_def_cfa_register 7
 3486 0006 F860     		str	r0, [r7, #12]
 3487 0008 B960     		str	r1, [r7, #8]
 3488 000a 7A60     		str	r2, [r7, #4]
 3489 000c 3B60     		str	r3, [r7]
1069:C:/Users/dtjld/workspace/AIoT/src/LiteOS_Lab/iot_link/network/dtls/mbedtls/mbedtls-2.16.2/library\rsa.c ****     unsigned char mask[MBEDTLS_MD_MAX_SIZE];
1070:C:/Users/dtjld/workspace/AIoT/src/LiteOS_Lab/iot_link/network/dtls/mbedtls/mbedtls-2.16.2/library\rsa.c ****     unsigned char counter[4];
1071:C:/Users/dtjld/workspace/AIoT/src/LiteOS_Lab/iot_link/network/dtls/mbedtls/mbedtls-2.16.2/library\rsa.c ****     unsigned char *p;
1072:C:/Users/dtjld/workspace/AIoT/src/LiteOS_Lab/iot_link/network/dtls/mbedtls/mbedtls-2.16.2/library\rsa.c ****     unsigned int hlen;
1073:C:/Users/dtjld/workspace/AIoT/src/LiteOS_Lab/iot_link/network/dtls/mbedtls/mbedtls-2.16.2/library\rsa.c ****     size_t i, use_len;
1074:C:/Users/dtjld/workspace/AIoT/src/LiteOS_Lab/iot_link/network/dtls/mbedtls/mbedtls-2.16.2/library\rsa.c ****     int ret = 0;
 3490              		.loc 1 1074 0
 3491 000e 0023     		movs	r3, #0
 3492 0010 BB65     		str	r3, [r7, #88]
1075:C:/Users/dtjld/workspace/AIoT/src/LiteOS_Lab/iot_link/network/dtls/mbedtls/mbedtls-2.16.2/library\rsa.c **** 
1076:C:/Users/dtjld/workspace/AIoT/src/LiteOS_Lab/iot_link/network/dtls/mbedtls/mbedtls-2.16.2/library\rsa.c ****     memset( mask, 0, MBEDTLS_MD_MAX_SIZE );
 3493              		.loc 1 1076 0
 3494 0012 07F11403 		add	r3, r7, #20
 3495 0016 4022     		movs	r2, #64
 3496 0018 0021     		movs	r1, #0
 3497 001a 1846     		mov	r0, r3
 3498 001c FFF7FEFF 		bl	memset
1077:C:/Users/dtjld/workspace/AIoT/src/LiteOS_Lab/iot_link/network/dtls/mbedtls/mbedtls-2.16.2/library\rsa.c ****     memset( counter, 0, 4 );
 3499              		.loc 1 1077 0
 3500 0020 07F11003 		add	r3, r7, #16
 3501 0024 0422     		movs	r2, #4
 3502 0026 0021     		movs	r1, #0
 3503 0028 1846     		mov	r0, r3
 3504 002a FFF7FEFF 		bl	memset
1078:C:/Users/dtjld/workspace/AIoT/src/LiteOS_Lab/iot_link/network/dtls/mbedtls/mbedtls-2.16.2/library\rsa.c **** 
1079:C:/Users/dtjld/workspace/AIoT/src/LiteOS_Lab/iot_link/network/dtls/mbedtls/mbedtls-2.16.2/library\rsa.c ****     hlen = mbedtls_md_get_size( md_ctx->md_info );
 3505              		.loc 1 1079 0
 3506 002e 3B6F     		ldr	r3, [r7, #112]
 3507 0030 1B68     		ldr	r3, [r3]
 3508 0032 1846     		mov	r0, r3
 3509 0034 FFF7FEFF 		bl	mbedtls_md_get_size
 3510 0038 0346     		mov	r3, r0
 3511 003a 7B65     		str	r3, [r7, #84]
1080:C:/Users/dtjld/workspace/AIoT/src/LiteOS_Lab/iot_link/network/dtls/mbedtls/mbedtls-2.16.2/library\rsa.c **** 
1081:C:/Users/dtjld/workspace/AIoT/src/LiteOS_Lab/iot_link/network/dtls/mbedtls/mbedtls-2.16.2/library\rsa.c ****     /* Generate and apply dbMask */
1082:C:/Users/dtjld/workspace/AIoT/src/LiteOS_Lab/iot_link/network/dtls/mbedtls/mbedtls-2.16.2/library\rsa.c ****     p = dst;
 3512              		.loc 1 1082 0
 3513 003c FB68     		ldr	r3, [r7, #12]
 3514 003e 7B66     		str	r3, [r7, #100]
1083:C:/Users/dtjld/workspace/AIoT/src/LiteOS_Lab/iot_link/network/dtls/mbedtls/mbedtls-2.16.2/library\rsa.c **** 
1084:C:/Users/dtjld/workspace/AIoT/src/LiteOS_Lab/iot_link/network/dtls/mbedtls/mbedtls-2.16.2/library\rsa.c ****     while( dlen > 0 )
 3515              		.loc 1 1084 0
 3516 0040 4AE0     		b	.L280
 3517              	.L289:
1085:C:/Users/dtjld/workspace/AIoT/src/LiteOS_Lab/iot_link/network/dtls/mbedtls/mbedtls-2.16.2/library\rsa.c ****     {
1086:C:/Users/dtjld/workspace/AIoT/src/LiteOS_Lab/iot_link/network/dtls/mbedtls/mbedtls-2.16.2/library\rsa.c ****         use_len = hlen;
 3518              		.loc 1 1086 0
 3519 0042 7B6D     		ldr	r3, [r7, #84]
 3520 0044 FB65     		str	r3, [r7, #92]
1087:C:/Users/dtjld/workspace/AIoT/src/LiteOS_Lab/iot_link/network/dtls/mbedtls/mbedtls-2.16.2/library\rsa.c ****         if( dlen < hlen )
 3521              		.loc 1 1087 0
 3522 0046 BA68     		ldr	r2, [r7, #8]
ARM GAS  C:\Users\dtjld\AppData\Local\Temp\cck1fUMg.s 			page 83


 3523 0048 7B6D     		ldr	r3, [r7, #84]
 3524 004a 9A42     		cmp	r2, r3
 3525 004c 01D2     		bcs	.L281
1088:C:/Users/dtjld/workspace/AIoT/src/LiteOS_Lab/iot_link/network/dtls/mbedtls/mbedtls-2.16.2/library\rsa.c ****             use_len = dlen;
 3526              		.loc 1 1088 0
 3527 004e BB68     		ldr	r3, [r7, #8]
 3528 0050 FB65     		str	r3, [r7, #92]
 3529              	.L281:
1089:C:/Users/dtjld/workspace/AIoT/src/LiteOS_Lab/iot_link/network/dtls/mbedtls/mbedtls-2.16.2/library\rsa.c **** 
1090:C:/Users/dtjld/workspace/AIoT/src/LiteOS_Lab/iot_link/network/dtls/mbedtls/mbedtls-2.16.2/library\rsa.c ****         if( ( ret = mbedtls_md_starts( md_ctx ) ) != 0 )
 3530              		.loc 1 1090 0
 3531 0052 386F     		ldr	r0, [r7, #112]
 3532 0054 FFF7FEFF 		bl	mbedtls_md_starts
 3533 0058 B865     		str	r0, [r7, #88]
 3534 005a BB6D     		ldr	r3, [r7, #88]
 3535 005c 002B     		cmp	r3, #0
 3536 005e 3FD1     		bne	.L291
1091:C:/Users/dtjld/workspace/AIoT/src/LiteOS_Lab/iot_link/network/dtls/mbedtls/mbedtls-2.16.2/library\rsa.c ****             goto exit;
1092:C:/Users/dtjld/workspace/AIoT/src/LiteOS_Lab/iot_link/network/dtls/mbedtls/mbedtls-2.16.2/library\rsa.c ****         if( ( ret = mbedtls_md_update( md_ctx, src, slen ) ) != 0 )
 3537              		.loc 1 1092 0
 3538 0060 3A68     		ldr	r2, [r7]
 3539 0062 7968     		ldr	r1, [r7, #4]
 3540 0064 386F     		ldr	r0, [r7, #112]
 3541 0066 FFF7FEFF 		bl	mbedtls_md_update
 3542 006a B865     		str	r0, [r7, #88]
 3543 006c BB6D     		ldr	r3, [r7, #88]
 3544 006e 002B     		cmp	r3, #0
 3545 0070 38D1     		bne	.L292
1093:C:/Users/dtjld/workspace/AIoT/src/LiteOS_Lab/iot_link/network/dtls/mbedtls/mbedtls-2.16.2/library\rsa.c ****             goto exit;
1094:C:/Users/dtjld/workspace/AIoT/src/LiteOS_Lab/iot_link/network/dtls/mbedtls/mbedtls-2.16.2/library\rsa.c ****         if( ( ret = mbedtls_md_update( md_ctx, counter, 4 ) ) != 0 )
 3546              		.loc 1 1094 0
 3547 0072 07F11003 		add	r3, r7, #16
 3548 0076 0422     		movs	r2, #4
 3549 0078 1946     		mov	r1, r3
 3550 007a 386F     		ldr	r0, [r7, #112]
 3551 007c FFF7FEFF 		bl	mbedtls_md_update
 3552 0080 B865     		str	r0, [r7, #88]
 3553 0082 BB6D     		ldr	r3, [r7, #88]
 3554 0084 002B     		cmp	r3, #0
 3555 0086 2FD1     		bne	.L293
1095:C:/Users/dtjld/workspace/AIoT/src/LiteOS_Lab/iot_link/network/dtls/mbedtls/mbedtls-2.16.2/library\rsa.c ****             goto exit;
1096:C:/Users/dtjld/workspace/AIoT/src/LiteOS_Lab/iot_link/network/dtls/mbedtls/mbedtls-2.16.2/library\rsa.c ****         if( ( ret = mbedtls_md_finish( md_ctx, mask ) ) != 0 )
 3556              		.loc 1 1096 0
 3557 0088 07F11403 		add	r3, r7, #20
 3558 008c 1946     		mov	r1, r3
 3559 008e 386F     		ldr	r0, [r7, #112]
 3560 0090 FFF7FEFF 		bl	mbedtls_md_finish
 3561 0094 B865     		str	r0, [r7, #88]
 3562 0096 BB6D     		ldr	r3, [r7, #88]
 3563 0098 002B     		cmp	r3, #0
 3564 009a 27D1     		bne	.L294
1097:C:/Users/dtjld/workspace/AIoT/src/LiteOS_Lab/iot_link/network/dtls/mbedtls/mbedtls-2.16.2/library\rsa.c ****             goto exit;
1098:C:/Users/dtjld/workspace/AIoT/src/LiteOS_Lab/iot_link/network/dtls/mbedtls/mbedtls-2.16.2/library\rsa.c **** 
1099:C:/Users/dtjld/workspace/AIoT/src/LiteOS_Lab/iot_link/network/dtls/mbedtls/mbedtls-2.16.2/library\rsa.c ****         for( i = 0; i < use_len; ++i )
 3565              		.loc 1 1099 0
 3566 009c 0023     		movs	r3, #0
 3567 009e 3B66     		str	r3, [r7, #96]
ARM GAS  C:\Users\dtjld\AppData\Local\Temp\cck1fUMg.s 			page 84


 3568 00a0 0EE0     		b	.L287
 3569              	.L288:
1100:C:/Users/dtjld/workspace/AIoT/src/LiteOS_Lab/iot_link/network/dtls/mbedtls/mbedtls-2.16.2/library\rsa.c ****             *p++ ^= mask[i];
 3570              		.loc 1 1100 0 discriminator 3
 3571 00a2 7B6E     		ldr	r3, [r7, #100]
 3572 00a4 5A1C     		adds	r2, r3, #1
 3573 00a6 7A66     		str	r2, [r7, #100]
 3574 00a8 1978     		ldrb	r1, [r3]	@ zero_extendqisi2
 3575 00aa 07F11400 		add	r0, r7, #20
 3576 00ae 3A6E     		ldr	r2, [r7, #96]
 3577 00b0 0244     		add	r2, r2, r0
 3578 00b2 1278     		ldrb	r2, [r2]	@ zero_extendqisi2
 3579 00b4 4A40     		eors	r2, r2, r1
 3580 00b6 D2B2     		uxtb	r2, r2
 3581 00b8 1A70     		strb	r2, [r3]
1099:C:/Users/dtjld/workspace/AIoT/src/LiteOS_Lab/iot_link/network/dtls/mbedtls/mbedtls-2.16.2/library\rsa.c ****             *p++ ^= mask[i];
 3582              		.loc 1 1099 0 discriminator 3
 3583 00ba 3B6E     		ldr	r3, [r7, #96]
 3584 00bc 0133     		adds	r3, r3, #1
 3585 00be 3B66     		str	r3, [r7, #96]
 3586              	.L287:
1099:C:/Users/dtjld/workspace/AIoT/src/LiteOS_Lab/iot_link/network/dtls/mbedtls/mbedtls-2.16.2/library\rsa.c ****             *p++ ^= mask[i];
 3587              		.loc 1 1099 0 is_stmt 0 discriminator 1
 3588 00c0 3A6E     		ldr	r2, [r7, #96]
 3589 00c2 FB6D     		ldr	r3, [r7, #92]
 3590 00c4 9A42     		cmp	r2, r3
 3591 00c6 ECD3     		bcc	.L288
1101:C:/Users/dtjld/workspace/AIoT/src/LiteOS_Lab/iot_link/network/dtls/mbedtls/mbedtls-2.16.2/library\rsa.c **** 
1102:C:/Users/dtjld/workspace/AIoT/src/LiteOS_Lab/iot_link/network/dtls/mbedtls/mbedtls-2.16.2/library\rsa.c ****         counter[3]++;
 3592              		.loc 1 1102 0 is_stmt 1
 3593 00c8 FB7C     		ldrb	r3, [r7, #19]	@ zero_extendqisi2
 3594 00ca 0133     		adds	r3, r3, #1
 3595 00cc DBB2     		uxtb	r3, r3
 3596 00ce FB74     		strb	r3, [r7, #19]
1103:C:/Users/dtjld/workspace/AIoT/src/LiteOS_Lab/iot_link/network/dtls/mbedtls/mbedtls-2.16.2/library\rsa.c **** 
1104:C:/Users/dtjld/workspace/AIoT/src/LiteOS_Lab/iot_link/network/dtls/mbedtls/mbedtls-2.16.2/library\rsa.c ****         dlen -= use_len;
 3597              		.loc 1 1104 0
 3598 00d0 BA68     		ldr	r2, [r7, #8]
 3599 00d2 FB6D     		ldr	r3, [r7, #92]
 3600 00d4 D31A     		subs	r3, r2, r3
 3601 00d6 BB60     		str	r3, [r7, #8]
 3602              	.L280:
1084:C:/Users/dtjld/workspace/AIoT/src/LiteOS_Lab/iot_link/network/dtls/mbedtls/mbedtls-2.16.2/library\rsa.c ****     {
 3603              		.loc 1 1084 0
 3604 00d8 BB68     		ldr	r3, [r7, #8]
 3605 00da 002B     		cmp	r3, #0
 3606 00dc B1D1     		bne	.L289
1105:C:/Users/dtjld/workspace/AIoT/src/LiteOS_Lab/iot_link/network/dtls/mbedtls/mbedtls-2.16.2/library\rsa.c ****     }
1106:C:/Users/dtjld/workspace/AIoT/src/LiteOS_Lab/iot_link/network/dtls/mbedtls/mbedtls-2.16.2/library\rsa.c **** 
1107:C:/Users/dtjld/workspace/AIoT/src/LiteOS_Lab/iot_link/network/dtls/mbedtls/mbedtls-2.16.2/library\rsa.c **** exit:
 3607              		.loc 1 1107 0
 3608 00de 06E0     		b	.L283
 3609              	.L291:
1091:C:/Users/dtjld/workspace/AIoT/src/LiteOS_Lab/iot_link/network/dtls/mbedtls/mbedtls-2.16.2/library\rsa.c ****         if( ( ret = mbedtls_md_update( md_ctx, src, slen ) ) != 0 )
 3610              		.loc 1 1091 0
 3611 00e0 00BF     		nop
 3612 00e2 04E0     		b	.L283
ARM GAS  C:\Users\dtjld\AppData\Local\Temp\cck1fUMg.s 			page 85


 3613              	.L292:
1093:C:/Users/dtjld/workspace/AIoT/src/LiteOS_Lab/iot_link/network/dtls/mbedtls/mbedtls-2.16.2/library\rsa.c ****         if( ( ret = mbedtls_md_update( md_ctx, counter, 4 ) ) != 0 )
 3614              		.loc 1 1093 0
 3615 00e4 00BF     		nop
 3616 00e6 02E0     		b	.L283
 3617              	.L293:
1095:C:/Users/dtjld/workspace/AIoT/src/LiteOS_Lab/iot_link/network/dtls/mbedtls/mbedtls-2.16.2/library\rsa.c ****         if( ( ret = mbedtls_md_finish( md_ctx, mask ) ) != 0 )
 3618              		.loc 1 1095 0
 3619 00e8 00BF     		nop
 3620 00ea 00E0     		b	.L283
 3621              	.L294:
1097:C:/Users/dtjld/workspace/AIoT/src/LiteOS_Lab/iot_link/network/dtls/mbedtls/mbedtls-2.16.2/library\rsa.c **** 
 3622              		.loc 1 1097 0
 3623 00ec 00BF     		nop
 3624              	.L283:
1108:C:/Users/dtjld/workspace/AIoT/src/LiteOS_Lab/iot_link/network/dtls/mbedtls/mbedtls-2.16.2/library\rsa.c ****     mbedtls_platform_zeroize( mask, sizeof( mask ) );
 3625              		.loc 1 1108 0
 3626 00ee 07F11403 		add	r3, r7, #20
 3627 00f2 4021     		movs	r1, #64
 3628 00f4 1846     		mov	r0, r3
 3629 00f6 FFF7FEFF 		bl	mbedtls_platform_zeroize
1109:C:/Users/dtjld/workspace/AIoT/src/LiteOS_Lab/iot_link/network/dtls/mbedtls/mbedtls-2.16.2/library\rsa.c **** 
1110:C:/Users/dtjld/workspace/AIoT/src/LiteOS_Lab/iot_link/network/dtls/mbedtls/mbedtls-2.16.2/library\rsa.c ****     return( ret );
 3630              		.loc 1 1110 0
 3631 00fa BB6D     		ldr	r3, [r7, #88]
1111:C:/Users/dtjld/workspace/AIoT/src/LiteOS_Lab/iot_link/network/dtls/mbedtls/mbedtls-2.16.2/library\rsa.c **** }
 3632              		.loc 1 1111 0
 3633 00fc 1846     		mov	r0, r3
 3634 00fe 6837     		adds	r7, r7, #104
 3635              	.LCFI96:
 3636              		.cfi_def_cfa_offset 8
 3637 0100 BD46     		mov	sp, r7
 3638              	.LCFI97:
 3639              		.cfi_def_cfa_register 13
 3640              		@ sp needed
 3641 0102 80BD     		pop	{r7, pc}
 3642              		.cfi_endproc
 3643              	.LFE31:
 3645              		.section	.text.mbedtls_rsa_rsaes_oaep_encrypt,"ax",%progbits
 3646              		.align	1
 3647              		.global	mbedtls_rsa_rsaes_oaep_encrypt
 3648              		.syntax unified
 3649              		.thumb
 3650              		.thumb_func
 3651              		.fpu fpv4-sp-d16
 3653              	mbedtls_rsa_rsaes_oaep_encrypt:
 3654              	.LFB32:
1112:C:/Users/dtjld/workspace/AIoT/src/LiteOS_Lab/iot_link/network/dtls/mbedtls/mbedtls-2.16.2/library\rsa.c **** #endif /* MBEDTLS_PKCS1_V21 */
1113:C:/Users/dtjld/workspace/AIoT/src/LiteOS_Lab/iot_link/network/dtls/mbedtls/mbedtls-2.16.2/library\rsa.c **** 
1114:C:/Users/dtjld/workspace/AIoT/src/LiteOS_Lab/iot_link/network/dtls/mbedtls/mbedtls-2.16.2/library\rsa.c **** #if defined(MBEDTLS_PKCS1_V21)
1115:C:/Users/dtjld/workspace/AIoT/src/LiteOS_Lab/iot_link/network/dtls/mbedtls/mbedtls-2.16.2/library\rsa.c **** /*
1116:C:/Users/dtjld/workspace/AIoT/src/LiteOS_Lab/iot_link/network/dtls/mbedtls/mbedtls-2.16.2/library\rsa.c ****  * Implementation of the PKCS#1 v2.1 RSAES-OAEP-ENCRYPT function
1117:C:/Users/dtjld/workspace/AIoT/src/LiteOS_Lab/iot_link/network/dtls/mbedtls/mbedtls-2.16.2/library\rsa.c ****  */
1118:C:/Users/dtjld/workspace/AIoT/src/LiteOS_Lab/iot_link/network/dtls/mbedtls/mbedtls-2.16.2/library\rsa.c **** int mbedtls_rsa_rsaes_oaep_encrypt( mbedtls_rsa_context *ctx,
1119:C:/Users/dtjld/workspace/AIoT/src/LiteOS_Lab/iot_link/network/dtls/mbedtls/mbedtls-2.16.2/library\rsa.c ****                             int (*f_rng)(void *, unsigned char *, size_t),
1120:C:/Users/dtjld/workspace/AIoT/src/LiteOS_Lab/iot_link/network/dtls/mbedtls/mbedtls-2.16.2/library\rsa.c ****                             void *p_rng,
1121:C:/Users/dtjld/workspace/AIoT/src/LiteOS_Lab/iot_link/network/dtls/mbedtls/mbedtls-2.16.2/library\rsa.c ****                             int mode,
ARM GAS  C:\Users\dtjld\AppData\Local\Temp\cck1fUMg.s 			page 86


1122:C:/Users/dtjld/workspace/AIoT/src/LiteOS_Lab/iot_link/network/dtls/mbedtls/mbedtls-2.16.2/library\rsa.c ****                             const unsigned char *label, size_t label_len,
1123:C:/Users/dtjld/workspace/AIoT/src/LiteOS_Lab/iot_link/network/dtls/mbedtls/mbedtls-2.16.2/library\rsa.c ****                             size_t ilen,
1124:C:/Users/dtjld/workspace/AIoT/src/LiteOS_Lab/iot_link/network/dtls/mbedtls/mbedtls-2.16.2/library\rsa.c ****                             const unsigned char *input,
1125:C:/Users/dtjld/workspace/AIoT/src/LiteOS_Lab/iot_link/network/dtls/mbedtls/mbedtls-2.16.2/library\rsa.c ****                             unsigned char *output )
1126:C:/Users/dtjld/workspace/AIoT/src/LiteOS_Lab/iot_link/network/dtls/mbedtls/mbedtls-2.16.2/library\rsa.c **** {
 3655              		.loc 1 1126 0
 3656              		.cfi_startproc
 3657              		@ args = 20, pretend = 0, frame = 48
 3658              		@ frame_needed = 1, uses_anonymous_args = 0
 3659 0000 80B5     		push	{r7, lr}
 3660              	.LCFI98:
 3661              		.cfi_def_cfa_offset 8
 3662              		.cfi_offset 7, -8
 3663              		.cfi_offset 14, -4
 3664 0002 8EB0     		sub	sp, sp, #56
 3665              	.LCFI99:
 3666              		.cfi_def_cfa_offset 64
 3667 0004 02AF     		add	r7, sp, #8
 3668              	.LCFI100:
 3669              		.cfi_def_cfa 7, 56
 3670 0006 F860     		str	r0, [r7, #12]
 3671 0008 B960     		str	r1, [r7, #8]
 3672 000a 7A60     		str	r2, [r7, #4]
 3673 000c 3B60     		str	r3, [r7]
1127:C:/Users/dtjld/workspace/AIoT/src/LiteOS_Lab/iot_link/network/dtls/mbedtls/mbedtls-2.16.2/library\rsa.c ****     size_t olen;
1128:C:/Users/dtjld/workspace/AIoT/src/LiteOS_Lab/iot_link/network/dtls/mbedtls/mbedtls-2.16.2/library\rsa.c ****     int ret;
1129:C:/Users/dtjld/workspace/AIoT/src/LiteOS_Lab/iot_link/network/dtls/mbedtls/mbedtls-2.16.2/library\rsa.c ****     unsigned char *p = output;
 3674              		.loc 1 1129 0
 3675 000e BB6C     		ldr	r3, [r7, #72]
 3676 0010 BB62     		str	r3, [r7, #40]
1130:C:/Users/dtjld/workspace/AIoT/src/LiteOS_Lab/iot_link/network/dtls/mbedtls/mbedtls-2.16.2/library\rsa.c ****     unsigned int hlen;
1131:C:/Users/dtjld/workspace/AIoT/src/LiteOS_Lab/iot_link/network/dtls/mbedtls/mbedtls-2.16.2/library\rsa.c ****     const mbedtls_md_info_t *md_info;
1132:C:/Users/dtjld/workspace/AIoT/src/LiteOS_Lab/iot_link/network/dtls/mbedtls/mbedtls-2.16.2/library\rsa.c ****     mbedtls_md_context_t md_ctx;
1133:C:/Users/dtjld/workspace/AIoT/src/LiteOS_Lab/iot_link/network/dtls/mbedtls/mbedtls-2.16.2/library\rsa.c **** 
1134:C:/Users/dtjld/workspace/AIoT/src/LiteOS_Lab/iot_link/network/dtls/mbedtls/mbedtls-2.16.2/library\rsa.c ****     RSA_VALIDATE_RET( ctx != NULL );
1135:C:/Users/dtjld/workspace/AIoT/src/LiteOS_Lab/iot_link/network/dtls/mbedtls/mbedtls-2.16.2/library\rsa.c ****     RSA_VALIDATE_RET( mode == MBEDTLS_RSA_PRIVATE ||
1136:C:/Users/dtjld/workspace/AIoT/src/LiteOS_Lab/iot_link/network/dtls/mbedtls/mbedtls-2.16.2/library\rsa.c ****                       mode == MBEDTLS_RSA_PUBLIC );
1137:C:/Users/dtjld/workspace/AIoT/src/LiteOS_Lab/iot_link/network/dtls/mbedtls/mbedtls-2.16.2/library\rsa.c ****     RSA_VALIDATE_RET( output != NULL );
1138:C:/Users/dtjld/workspace/AIoT/src/LiteOS_Lab/iot_link/network/dtls/mbedtls/mbedtls-2.16.2/library\rsa.c ****     RSA_VALIDATE_RET( input != NULL );
1139:C:/Users/dtjld/workspace/AIoT/src/LiteOS_Lab/iot_link/network/dtls/mbedtls/mbedtls-2.16.2/library\rsa.c ****     RSA_VALIDATE_RET( label_len == 0 || label != NULL );
1140:C:/Users/dtjld/workspace/AIoT/src/LiteOS_Lab/iot_link/network/dtls/mbedtls/mbedtls-2.16.2/library\rsa.c **** 
1141:C:/Users/dtjld/workspace/AIoT/src/LiteOS_Lab/iot_link/network/dtls/mbedtls/mbedtls-2.16.2/library\rsa.c ****     if( mode == MBEDTLS_RSA_PRIVATE && ctx->padding != MBEDTLS_RSA_PKCS_V21 )
 3677              		.loc 1 1141 0
 3678 0012 3B68     		ldr	r3, [r7]
 3679 0014 012B     		cmp	r3, #1
 3680 0016 06D1     		bne	.L296
 3681              		.loc 1 1141 0 is_stmt 0 discriminator 1
 3682 0018 FB68     		ldr	r3, [r7, #12]
 3683 001a D3F8A430 		ldr	r3, [r3, #164]
 3684 001e 012B     		cmp	r3, #1
 3685 0020 01D0     		beq	.L296
1142:C:/Users/dtjld/workspace/AIoT/src/LiteOS_Lab/iot_link/network/dtls/mbedtls/mbedtls-2.16.2/library\rsa.c ****         return( MBEDTLS_ERR_RSA_BAD_INPUT_DATA );
 3686              		.loc 1 1142 0 is_stmt 1
 3687 0022 654B     		ldr	r3, .L313
 3688 0024 C4E0     		b	.L310
 3689              	.L296:
1143:C:/Users/dtjld/workspace/AIoT/src/LiteOS_Lab/iot_link/network/dtls/mbedtls/mbedtls-2.16.2/library\rsa.c **** 
ARM GAS  C:\Users\dtjld\AppData\Local\Temp\cck1fUMg.s 			page 87


1144:C:/Users/dtjld/workspace/AIoT/src/LiteOS_Lab/iot_link/network/dtls/mbedtls/mbedtls-2.16.2/library\rsa.c ****     if( f_rng == NULL )
 3690              		.loc 1 1144 0
 3691 0026 BB68     		ldr	r3, [r7, #8]
 3692 0028 002B     		cmp	r3, #0
 3693 002a 01D1     		bne	.L298
1145:C:/Users/dtjld/workspace/AIoT/src/LiteOS_Lab/iot_link/network/dtls/mbedtls/mbedtls-2.16.2/library\rsa.c ****         return( MBEDTLS_ERR_RSA_BAD_INPUT_DATA );
 3694              		.loc 1 1145 0
 3695 002c 624B     		ldr	r3, .L313
 3696 002e BFE0     		b	.L310
 3697              	.L298:
1146:C:/Users/dtjld/workspace/AIoT/src/LiteOS_Lab/iot_link/network/dtls/mbedtls/mbedtls-2.16.2/library\rsa.c **** 
1147:C:/Users/dtjld/workspace/AIoT/src/LiteOS_Lab/iot_link/network/dtls/mbedtls/mbedtls-2.16.2/library\rsa.c ****     md_info = mbedtls_md_info_from_type( (mbedtls_md_type_t) ctx->hash_id );
 3698              		.loc 1 1147 0
 3699 0030 FB68     		ldr	r3, [r7, #12]
 3700 0032 D3F8A830 		ldr	r3, [r3, #168]
 3701 0036 DBB2     		uxtb	r3, r3
 3702 0038 1846     		mov	r0, r3
 3703 003a FFF7FEFF 		bl	mbedtls_md_info_from_type
 3704 003e 7862     		str	r0, [r7, #36]
1148:C:/Users/dtjld/workspace/AIoT/src/LiteOS_Lab/iot_link/network/dtls/mbedtls/mbedtls-2.16.2/library\rsa.c ****     if( md_info == NULL )
 3705              		.loc 1 1148 0
 3706 0040 7B6A     		ldr	r3, [r7, #36]
 3707 0042 002B     		cmp	r3, #0
 3708 0044 01D1     		bne	.L299
1149:C:/Users/dtjld/workspace/AIoT/src/LiteOS_Lab/iot_link/network/dtls/mbedtls/mbedtls-2.16.2/library\rsa.c ****         return( MBEDTLS_ERR_RSA_BAD_INPUT_DATA );
 3709              		.loc 1 1149 0
 3710 0046 5C4B     		ldr	r3, .L313
 3711 0048 B2E0     		b	.L310
 3712              	.L299:
1150:C:/Users/dtjld/workspace/AIoT/src/LiteOS_Lab/iot_link/network/dtls/mbedtls/mbedtls-2.16.2/library\rsa.c **** 
1151:C:/Users/dtjld/workspace/AIoT/src/LiteOS_Lab/iot_link/network/dtls/mbedtls/mbedtls-2.16.2/library\rsa.c ****     olen = ctx->len;
 3713              		.loc 1 1151 0
 3714 004a FB68     		ldr	r3, [r7, #12]
 3715 004c 5B68     		ldr	r3, [r3, #4]
 3716 004e 3B62     		str	r3, [r7, #32]
1152:C:/Users/dtjld/workspace/AIoT/src/LiteOS_Lab/iot_link/network/dtls/mbedtls/mbedtls-2.16.2/library\rsa.c ****     hlen = mbedtls_md_get_size( md_info );
 3717              		.loc 1 1152 0
 3718 0050 786A     		ldr	r0, [r7, #36]
 3719 0052 FFF7FEFF 		bl	mbedtls_md_get_size
 3720 0056 0346     		mov	r3, r0
 3721 0058 FB61     		str	r3, [r7, #28]
1153:C:/Users/dtjld/workspace/AIoT/src/LiteOS_Lab/iot_link/network/dtls/mbedtls/mbedtls-2.16.2/library\rsa.c **** 
1154:C:/Users/dtjld/workspace/AIoT/src/LiteOS_Lab/iot_link/network/dtls/mbedtls/mbedtls-2.16.2/library\rsa.c ****     /* first comparison checks for overflow */
1155:C:/Users/dtjld/workspace/AIoT/src/LiteOS_Lab/iot_link/network/dtls/mbedtls/mbedtls-2.16.2/library\rsa.c ****     if( ilen + 2 * hlen + 2 < ilen || olen < ilen + 2 * hlen + 2 )
 3722              		.loc 1 1155 0
 3723 005a FB69     		ldr	r3, [r7, #28]
 3724 005c 5A00     		lsls	r2, r3, #1
 3725 005e 3B6C     		ldr	r3, [r7, #64]
 3726 0060 1344     		add	r3, r3, r2
 3727 0062 0233     		adds	r3, r3, #2
 3728 0064 3A6C     		ldr	r2, [r7, #64]
 3729 0066 9A42     		cmp	r2, r3
 3730 0068 07D8     		bhi	.L300
 3731              		.loc 1 1155 0 is_stmt 0 discriminator 1
 3732 006a FB69     		ldr	r3, [r7, #28]
 3733 006c 5A00     		lsls	r2, r3, #1
 3734 006e 3B6C     		ldr	r3, [r7, #64]
ARM GAS  C:\Users\dtjld\AppData\Local\Temp\cck1fUMg.s 			page 88


 3735 0070 1344     		add	r3, r3, r2
 3736 0072 0233     		adds	r3, r3, #2
 3737 0074 3A6A     		ldr	r2, [r7, #32]
 3738 0076 9A42     		cmp	r2, r3
 3739 0078 01D2     		bcs	.L301
 3740              	.L300:
1156:C:/Users/dtjld/workspace/AIoT/src/LiteOS_Lab/iot_link/network/dtls/mbedtls/mbedtls-2.16.2/library\rsa.c ****         return( MBEDTLS_ERR_RSA_BAD_INPUT_DATA );
 3741              		.loc 1 1156 0 is_stmt 1
 3742 007a 4F4B     		ldr	r3, .L313
 3743 007c 98E0     		b	.L310
 3744              	.L301:
1157:C:/Users/dtjld/workspace/AIoT/src/LiteOS_Lab/iot_link/network/dtls/mbedtls/mbedtls-2.16.2/library\rsa.c **** 
1158:C:/Users/dtjld/workspace/AIoT/src/LiteOS_Lab/iot_link/network/dtls/mbedtls/mbedtls-2.16.2/library\rsa.c ****     memset( output, 0, olen );
 3745              		.loc 1 1158 0
 3746 007e 3A6A     		ldr	r2, [r7, #32]
 3747 0080 0021     		movs	r1, #0
 3748 0082 B86C     		ldr	r0, [r7, #72]
 3749 0084 FFF7FEFF 		bl	memset
1159:C:/Users/dtjld/workspace/AIoT/src/LiteOS_Lab/iot_link/network/dtls/mbedtls/mbedtls-2.16.2/library\rsa.c **** 
1160:C:/Users/dtjld/workspace/AIoT/src/LiteOS_Lab/iot_link/network/dtls/mbedtls/mbedtls-2.16.2/library\rsa.c ****     *p++ = 0;
 3750              		.loc 1 1160 0
 3751 0088 BB6A     		ldr	r3, [r7, #40]
 3752 008a 5A1C     		adds	r2, r3, #1
 3753 008c BA62     		str	r2, [r7, #40]
 3754 008e 0022     		movs	r2, #0
 3755 0090 1A70     		strb	r2, [r3]
1161:C:/Users/dtjld/workspace/AIoT/src/LiteOS_Lab/iot_link/network/dtls/mbedtls/mbedtls-2.16.2/library\rsa.c **** 
1162:C:/Users/dtjld/workspace/AIoT/src/LiteOS_Lab/iot_link/network/dtls/mbedtls/mbedtls-2.16.2/library\rsa.c ****     /* Generate a random octet string seed */
1163:C:/Users/dtjld/workspace/AIoT/src/LiteOS_Lab/iot_link/network/dtls/mbedtls/mbedtls-2.16.2/library\rsa.c ****     if( ( ret = f_rng( p_rng, p, hlen ) ) != 0 )
 3756              		.loc 1 1163 0
 3757 0092 BB68     		ldr	r3, [r7, #8]
 3758 0094 FA69     		ldr	r2, [r7, #28]
 3759 0096 B96A     		ldr	r1, [r7, #40]
 3760 0098 7868     		ldr	r0, [r7, #4]
 3761 009a 9847     		blx	r3
 3762              	.LVL0:
 3763 009c F862     		str	r0, [r7, #44]
 3764 009e FB6A     		ldr	r3, [r7, #44]
 3765 00a0 002B     		cmp	r3, #0
 3766 00a2 03D0     		beq	.L302
1164:C:/Users/dtjld/workspace/AIoT/src/LiteOS_Lab/iot_link/network/dtls/mbedtls/mbedtls-2.16.2/library\rsa.c ****         return( MBEDTLS_ERR_RSA_RNG_FAILED + ret );
 3767              		.loc 1 1164 0
 3768 00a4 FB6A     		ldr	r3, [r7, #44]
 3769 00a6 A3F58943 		sub	r3, r3, #17536
 3770 00aa 81E0     		b	.L310
 3771              	.L302:
1165:C:/Users/dtjld/workspace/AIoT/src/LiteOS_Lab/iot_link/network/dtls/mbedtls/mbedtls-2.16.2/library\rsa.c **** 
1166:C:/Users/dtjld/workspace/AIoT/src/LiteOS_Lab/iot_link/network/dtls/mbedtls/mbedtls-2.16.2/library\rsa.c ****     p += hlen;
 3772              		.loc 1 1166 0
 3773 00ac BA6A     		ldr	r2, [r7, #40]
 3774 00ae FB69     		ldr	r3, [r7, #28]
 3775 00b0 1344     		add	r3, r3, r2
 3776 00b2 BB62     		str	r3, [r7, #40]
1167:C:/Users/dtjld/workspace/AIoT/src/LiteOS_Lab/iot_link/network/dtls/mbedtls/mbedtls-2.16.2/library\rsa.c **** 
1168:C:/Users/dtjld/workspace/AIoT/src/LiteOS_Lab/iot_link/network/dtls/mbedtls/mbedtls-2.16.2/library\rsa.c ****     /* Construct DB */
1169:C:/Users/dtjld/workspace/AIoT/src/LiteOS_Lab/iot_link/network/dtls/mbedtls/mbedtls-2.16.2/library\rsa.c ****     if( ( ret = mbedtls_md( md_info, label, label_len, p ) ) != 0 )
 3777              		.loc 1 1169 0
ARM GAS  C:\Users\dtjld\AppData\Local\Temp\cck1fUMg.s 			page 89


 3778 00b4 BB6A     		ldr	r3, [r7, #40]
 3779 00b6 FA6B     		ldr	r2, [r7, #60]
 3780 00b8 B96B     		ldr	r1, [r7, #56]
 3781 00ba 786A     		ldr	r0, [r7, #36]
 3782 00bc FFF7FEFF 		bl	mbedtls_md
 3783 00c0 F862     		str	r0, [r7, #44]
 3784 00c2 FB6A     		ldr	r3, [r7, #44]
 3785 00c4 002B     		cmp	r3, #0
 3786 00c6 01D0     		beq	.L303
1170:C:/Users/dtjld/workspace/AIoT/src/LiteOS_Lab/iot_link/network/dtls/mbedtls/mbedtls-2.16.2/library\rsa.c ****         return( ret );
 3787              		.loc 1 1170 0
 3788 00c8 FB6A     		ldr	r3, [r7, #44]
 3789 00ca 71E0     		b	.L310
 3790              	.L303:
1171:C:/Users/dtjld/workspace/AIoT/src/LiteOS_Lab/iot_link/network/dtls/mbedtls/mbedtls-2.16.2/library\rsa.c ****     p += hlen;
 3791              		.loc 1 1171 0
 3792 00cc BA6A     		ldr	r2, [r7, #40]
 3793 00ce FB69     		ldr	r3, [r7, #28]
 3794 00d0 1344     		add	r3, r3, r2
 3795 00d2 BB62     		str	r3, [r7, #40]
1172:C:/Users/dtjld/workspace/AIoT/src/LiteOS_Lab/iot_link/network/dtls/mbedtls/mbedtls-2.16.2/library\rsa.c ****     p += olen - 2 * hlen - 2 - ilen;
 3796              		.loc 1 1172 0
 3797 00d4 FB69     		ldr	r3, [r7, #28]
 3798 00d6 5B00     		lsls	r3, r3, #1
 3799 00d8 3A6A     		ldr	r2, [r7, #32]
 3800 00da D21A     		subs	r2, r2, r3
 3801 00dc 3B6C     		ldr	r3, [r7, #64]
 3802 00de D31A     		subs	r3, r2, r3
 3803 00e0 023B     		subs	r3, r3, #2
 3804 00e2 BA6A     		ldr	r2, [r7, #40]
 3805 00e4 1344     		add	r3, r3, r2
 3806 00e6 BB62     		str	r3, [r7, #40]
1173:C:/Users/dtjld/workspace/AIoT/src/LiteOS_Lab/iot_link/network/dtls/mbedtls/mbedtls-2.16.2/library\rsa.c ****     *p++ = 1;
 3807              		.loc 1 1173 0
 3808 00e8 BB6A     		ldr	r3, [r7, #40]
 3809 00ea 5A1C     		adds	r2, r3, #1
 3810 00ec BA62     		str	r2, [r7, #40]
 3811 00ee 0122     		movs	r2, #1
 3812 00f0 1A70     		strb	r2, [r3]
1174:C:/Users/dtjld/workspace/AIoT/src/LiteOS_Lab/iot_link/network/dtls/mbedtls/mbedtls-2.16.2/library\rsa.c ****     memcpy( p, input, ilen );
 3813              		.loc 1 1174 0
 3814 00f2 3A6C     		ldr	r2, [r7, #64]
 3815 00f4 796C     		ldr	r1, [r7, #68]
 3816 00f6 B86A     		ldr	r0, [r7, #40]
 3817 00f8 FFF7FEFF 		bl	memcpy
1175:C:/Users/dtjld/workspace/AIoT/src/LiteOS_Lab/iot_link/network/dtls/mbedtls/mbedtls-2.16.2/library\rsa.c **** 
1176:C:/Users/dtjld/workspace/AIoT/src/LiteOS_Lab/iot_link/network/dtls/mbedtls/mbedtls-2.16.2/library\rsa.c ****     mbedtls_md_init( &md_ctx );
 3818              		.loc 1 1176 0
 3819 00fc 07F11003 		add	r3, r7, #16
 3820 0100 1846     		mov	r0, r3
 3821 0102 FFF7FEFF 		bl	mbedtls_md_init
1177:C:/Users/dtjld/workspace/AIoT/src/LiteOS_Lab/iot_link/network/dtls/mbedtls/mbedtls-2.16.2/library\rsa.c ****     if( ( ret = mbedtls_md_setup( &md_ctx, md_info, 0 ) ) != 0 )
 3822              		.loc 1 1177 0
 3823 0106 07F11003 		add	r3, r7, #16
 3824 010a 0022     		movs	r2, #0
 3825 010c 796A     		ldr	r1, [r7, #36]
 3826 010e 1846     		mov	r0, r3
ARM GAS  C:\Users\dtjld\AppData\Local\Temp\cck1fUMg.s 			page 90


 3827 0110 FFF7FEFF 		bl	mbedtls_md_setup
 3828 0114 F862     		str	r0, [r7, #44]
 3829 0116 FB6A     		ldr	r3, [r7, #44]
 3830 0118 002B     		cmp	r3, #0
 3831 011a 29D1     		bne	.L311
1178:C:/Users/dtjld/workspace/AIoT/src/LiteOS_Lab/iot_link/network/dtls/mbedtls/mbedtls-2.16.2/library\rsa.c ****         goto exit;
1179:C:/Users/dtjld/workspace/AIoT/src/LiteOS_Lab/iot_link/network/dtls/mbedtls/mbedtls-2.16.2/library\rsa.c **** 
1180:C:/Users/dtjld/workspace/AIoT/src/LiteOS_Lab/iot_link/network/dtls/mbedtls/mbedtls-2.16.2/library\rsa.c ****     /* maskedDB: Apply dbMask to DB */
1181:C:/Users/dtjld/workspace/AIoT/src/LiteOS_Lab/iot_link/network/dtls/mbedtls/mbedtls-2.16.2/library\rsa.c ****     if( ( ret = mgf_mask( output + hlen + 1, olen - hlen - 1, output + 1, hlen,
 3832              		.loc 1 1181 0
 3833 011c FB69     		ldr	r3, [r7, #28]
 3834 011e 0133     		adds	r3, r3, #1
 3835 0120 BA6C     		ldr	r2, [r7, #72]
 3836 0122 D018     		adds	r0, r2, r3
 3837 0124 3A6A     		ldr	r2, [r7, #32]
 3838 0126 FB69     		ldr	r3, [r7, #28]
 3839 0128 D31A     		subs	r3, r2, r3
 3840 012a 591E     		subs	r1, r3, #1
 3841 012c BB6C     		ldr	r3, [r7, #72]
 3842 012e 5A1C     		adds	r2, r3, #1
 3843 0130 07F11003 		add	r3, r7, #16
 3844 0134 0093     		str	r3, [sp]
 3845 0136 FB69     		ldr	r3, [r7, #28]
 3846 0138 FFF7FEFF 		bl	mgf_mask
 3847 013c F862     		str	r0, [r7, #44]
 3848 013e FB6A     		ldr	r3, [r7, #44]
 3849 0140 002B     		cmp	r3, #0
 3850 0142 17D1     		bne	.L312
1182:C:/Users/dtjld/workspace/AIoT/src/LiteOS_Lab/iot_link/network/dtls/mbedtls/mbedtls-2.16.2/library\rsa.c ****                           &md_ctx ) ) != 0 )
1183:C:/Users/dtjld/workspace/AIoT/src/LiteOS_Lab/iot_link/network/dtls/mbedtls/mbedtls-2.16.2/library\rsa.c ****         goto exit;
1184:C:/Users/dtjld/workspace/AIoT/src/LiteOS_Lab/iot_link/network/dtls/mbedtls/mbedtls-2.16.2/library\rsa.c **** 
1185:C:/Users/dtjld/workspace/AIoT/src/LiteOS_Lab/iot_link/network/dtls/mbedtls/mbedtls-2.16.2/library\rsa.c ****     /* maskedSeed: Apply seedMask to seed */
1186:C:/Users/dtjld/workspace/AIoT/src/LiteOS_Lab/iot_link/network/dtls/mbedtls/mbedtls-2.16.2/library\rsa.c ****     if( ( ret = mgf_mask( output + 1, hlen, output + hlen + 1, olen - hlen - 1,
 3851              		.loc 1 1186 0
 3852 0144 BB6C     		ldr	r3, [r7, #72]
 3853 0146 581C     		adds	r0, r3, #1
 3854 0148 FB69     		ldr	r3, [r7, #28]
 3855 014a 0133     		adds	r3, r3, #1
 3856 014c BA6C     		ldr	r2, [r7, #72]
 3857 014e D118     		adds	r1, r2, r3
 3858 0150 3A6A     		ldr	r2, [r7, #32]
 3859 0152 FB69     		ldr	r3, [r7, #28]
 3860 0154 D31A     		subs	r3, r2, r3
 3861 0156 5A1E     		subs	r2, r3, #1
 3862 0158 07F11003 		add	r3, r7, #16
 3863 015c 0093     		str	r3, [sp]
 3864 015e 1346     		mov	r3, r2
 3865 0160 0A46     		mov	r2, r1
 3866 0162 F969     		ldr	r1, [r7, #28]
 3867 0164 FFF7FEFF 		bl	mgf_mask
 3868 0168 F862     		str	r0, [r7, #44]
 3869 016a FB6A     		ldr	r3, [r7, #44]
 3870 016c 002B     		cmp	r3, #0
1187:C:/Users/dtjld/workspace/AIoT/src/LiteOS_Lab/iot_link/network/dtls/mbedtls/mbedtls-2.16.2/library\rsa.c ****                           &md_ctx ) ) != 0 )
1188:C:/Users/dtjld/workspace/AIoT/src/LiteOS_Lab/iot_link/network/dtls/mbedtls/mbedtls-2.16.2/library\rsa.c ****         goto exit;
1189:C:/Users/dtjld/workspace/AIoT/src/LiteOS_Lab/iot_link/network/dtls/mbedtls/mbedtls-2.16.2/library\rsa.c **** 
1190:C:/Users/dtjld/workspace/AIoT/src/LiteOS_Lab/iot_link/network/dtls/mbedtls/mbedtls-2.16.2/library\rsa.c **** exit:
ARM GAS  C:\Users\dtjld\AppData\Local\Temp\cck1fUMg.s 			page 91


 3871              		.loc 1 1190 0
 3872 016e 02E0     		b	.L305
 3873              	.L311:
1178:C:/Users/dtjld/workspace/AIoT/src/LiteOS_Lab/iot_link/network/dtls/mbedtls/mbedtls-2.16.2/library\rsa.c **** 
 3874              		.loc 1 1178 0
 3875 0170 00BF     		nop
 3876 0172 00E0     		b	.L305
 3877              	.L312:
1183:C:/Users/dtjld/workspace/AIoT/src/LiteOS_Lab/iot_link/network/dtls/mbedtls/mbedtls-2.16.2/library\rsa.c **** 
 3878              		.loc 1 1183 0
 3879 0174 00BF     		nop
 3880              	.L305:
1191:C:/Users/dtjld/workspace/AIoT/src/LiteOS_Lab/iot_link/network/dtls/mbedtls/mbedtls-2.16.2/library\rsa.c ****     mbedtls_md_free( &md_ctx );
 3881              		.loc 1 1191 0
 3882 0176 07F11003 		add	r3, r7, #16
 3883 017a 1846     		mov	r0, r3
 3884 017c FFF7FEFF 		bl	mbedtls_md_free
1192:C:/Users/dtjld/workspace/AIoT/src/LiteOS_Lab/iot_link/network/dtls/mbedtls/mbedtls-2.16.2/library\rsa.c **** 
1193:C:/Users/dtjld/workspace/AIoT/src/LiteOS_Lab/iot_link/network/dtls/mbedtls/mbedtls-2.16.2/library\rsa.c ****     if( ret != 0 )
 3885              		.loc 1 1193 0
 3886 0180 FB6A     		ldr	r3, [r7, #44]
 3887 0182 002B     		cmp	r3, #0
 3888 0184 01D0     		beq	.L307
1194:C:/Users/dtjld/workspace/AIoT/src/LiteOS_Lab/iot_link/network/dtls/mbedtls/mbedtls-2.16.2/library\rsa.c ****         return( ret );
 3889              		.loc 1 1194 0
 3890 0186 FB6A     		ldr	r3, [r7, #44]
 3891 0188 12E0     		b	.L310
 3892              	.L307:
1195:C:/Users/dtjld/workspace/AIoT/src/LiteOS_Lab/iot_link/network/dtls/mbedtls/mbedtls-2.16.2/library\rsa.c **** 
1196:C:/Users/dtjld/workspace/AIoT/src/LiteOS_Lab/iot_link/network/dtls/mbedtls/mbedtls-2.16.2/library\rsa.c ****     return( ( mode == MBEDTLS_RSA_PUBLIC )
1197:C:/Users/dtjld/workspace/AIoT/src/LiteOS_Lab/iot_link/network/dtls/mbedtls/mbedtls-2.16.2/library\rsa.c ****             ? mbedtls_rsa_public(  ctx, output, output )
1198:C:/Users/dtjld/workspace/AIoT/src/LiteOS_Lab/iot_link/network/dtls/mbedtls/mbedtls-2.16.2/library\rsa.c ****             : mbedtls_rsa_private( ctx, f_rng, p_rng, output, output ) );
 3893              		.loc 1 1198 0
 3894 018a 3B68     		ldr	r3, [r7]
 3895 018c 002B     		cmp	r3, #0
 3896 018e 06D1     		bne	.L308
 3897              		.loc 1 1198 0 is_stmt 0 discriminator 1
 3898 0190 BA6C     		ldr	r2, [r7, #72]
 3899 0192 B96C     		ldr	r1, [r7, #72]
 3900 0194 F868     		ldr	r0, [r7, #12]
 3901 0196 FFF7FEFF 		bl	mbedtls_rsa_public
 3902 019a 0346     		mov	r3, r0
 3903 019c 08E0     		b	.L310
 3904              	.L308:
 3905              		.loc 1 1198 0 discriminator 2
 3906 019e BB6C     		ldr	r3, [r7, #72]
 3907 01a0 0093     		str	r3, [sp]
 3908 01a2 BB6C     		ldr	r3, [r7, #72]
 3909 01a4 7A68     		ldr	r2, [r7, #4]
 3910 01a6 B968     		ldr	r1, [r7, #8]
 3911 01a8 F868     		ldr	r0, [r7, #12]
 3912 01aa FFF7FEFF 		bl	mbedtls_rsa_private
 3913 01ae 0346     		mov	r3, r0
 3914              	.L310:
1199:C:/Users/dtjld/workspace/AIoT/src/LiteOS_Lab/iot_link/network/dtls/mbedtls/mbedtls-2.16.2/library\rsa.c **** }
 3915              		.loc 1 1199 0 is_stmt 1 discriminator 1
 3916 01b0 1846     		mov	r0, r3
ARM GAS  C:\Users\dtjld\AppData\Local\Temp\cck1fUMg.s 			page 92


 3917 01b2 3037     		adds	r7, r7, #48
 3918              	.LCFI101:
 3919              		.cfi_def_cfa_offset 8
 3920 01b4 BD46     		mov	sp, r7
 3921              	.LCFI102:
 3922              		.cfi_def_cfa_register 13
 3923              		@ sp needed
 3924 01b6 80BD     		pop	{r7, pc}
 3925              	.L314:
 3926              		.align	2
 3927              	.L313:
 3928 01b8 80BFFFFF 		.word	-16512
 3929              		.cfi_endproc
 3930              	.LFE32:
 3932              		.section	.text.mbedtls_rsa_rsaes_pkcs1_v15_encrypt,"ax",%progbits
 3933              		.align	1
 3934              		.global	mbedtls_rsa_rsaes_pkcs1_v15_encrypt
 3935              		.syntax unified
 3936              		.thumb
 3937              		.thumb_func
 3938              		.fpu fpv4-sp-d16
 3940              	mbedtls_rsa_rsaes_pkcs1_v15_encrypt:
 3941              	.LFB33:
1200:C:/Users/dtjld/workspace/AIoT/src/LiteOS_Lab/iot_link/network/dtls/mbedtls/mbedtls-2.16.2/library\rsa.c **** #endif /* MBEDTLS_PKCS1_V21 */
1201:C:/Users/dtjld/workspace/AIoT/src/LiteOS_Lab/iot_link/network/dtls/mbedtls/mbedtls-2.16.2/library\rsa.c **** 
1202:C:/Users/dtjld/workspace/AIoT/src/LiteOS_Lab/iot_link/network/dtls/mbedtls/mbedtls-2.16.2/library\rsa.c **** #if defined(MBEDTLS_PKCS1_V15)
1203:C:/Users/dtjld/workspace/AIoT/src/LiteOS_Lab/iot_link/network/dtls/mbedtls/mbedtls-2.16.2/library\rsa.c **** /*
1204:C:/Users/dtjld/workspace/AIoT/src/LiteOS_Lab/iot_link/network/dtls/mbedtls/mbedtls-2.16.2/library\rsa.c ****  * Implementation of the PKCS#1 v2.1 RSAES-PKCS1-V1_5-ENCRYPT function
1205:C:/Users/dtjld/workspace/AIoT/src/LiteOS_Lab/iot_link/network/dtls/mbedtls/mbedtls-2.16.2/library\rsa.c ****  */
1206:C:/Users/dtjld/workspace/AIoT/src/LiteOS_Lab/iot_link/network/dtls/mbedtls/mbedtls-2.16.2/library\rsa.c **** int mbedtls_rsa_rsaes_pkcs1_v15_encrypt( mbedtls_rsa_context *ctx,
1207:C:/Users/dtjld/workspace/AIoT/src/LiteOS_Lab/iot_link/network/dtls/mbedtls/mbedtls-2.16.2/library\rsa.c ****                                  int (*f_rng)(void *, unsigned char *, size_t),
1208:C:/Users/dtjld/workspace/AIoT/src/LiteOS_Lab/iot_link/network/dtls/mbedtls/mbedtls-2.16.2/library\rsa.c ****                                  void *p_rng,
1209:C:/Users/dtjld/workspace/AIoT/src/LiteOS_Lab/iot_link/network/dtls/mbedtls/mbedtls-2.16.2/library\rsa.c ****                                  int mode, size_t ilen,
1210:C:/Users/dtjld/workspace/AIoT/src/LiteOS_Lab/iot_link/network/dtls/mbedtls/mbedtls-2.16.2/library\rsa.c ****                                  const unsigned char *input,
1211:C:/Users/dtjld/workspace/AIoT/src/LiteOS_Lab/iot_link/network/dtls/mbedtls/mbedtls-2.16.2/library\rsa.c ****                                  unsigned char *output )
1212:C:/Users/dtjld/workspace/AIoT/src/LiteOS_Lab/iot_link/network/dtls/mbedtls/mbedtls-2.16.2/library\rsa.c **** {
 3942              		.loc 1 1212 0
 3943              		.cfi_startproc
 3944              		@ args = 12, pretend = 0, frame = 40
 3945              		@ frame_needed = 1, uses_anonymous_args = 0
 3946 0000 80B5     		push	{r7, lr}
 3947              	.LCFI103:
 3948              		.cfi_def_cfa_offset 8
 3949              		.cfi_offset 7, -8
 3950              		.cfi_offset 14, -4
 3951 0002 8CB0     		sub	sp, sp, #48
 3952              	.LCFI104:
 3953              		.cfi_def_cfa_offset 56
 3954 0004 02AF     		add	r7, sp, #8
 3955              	.LCFI105:
 3956              		.cfi_def_cfa 7, 48
 3957 0006 F860     		str	r0, [r7, #12]
 3958 0008 B960     		str	r1, [r7, #8]
 3959 000a 7A60     		str	r2, [r7, #4]
 3960 000c 3B60     		str	r3, [r7]
1213:C:/Users/dtjld/workspace/AIoT/src/LiteOS_Lab/iot_link/network/dtls/mbedtls/mbedtls-2.16.2/library\rsa.c ****     size_t nb_pad, olen;
1214:C:/Users/dtjld/workspace/AIoT/src/LiteOS_Lab/iot_link/network/dtls/mbedtls/mbedtls-2.16.2/library\rsa.c ****     int ret;
ARM GAS  C:\Users\dtjld\AppData\Local\Temp\cck1fUMg.s 			page 93


1215:C:/Users/dtjld/workspace/AIoT/src/LiteOS_Lab/iot_link/network/dtls/mbedtls/mbedtls-2.16.2/library\rsa.c ****     unsigned char *p = output;
 3961              		.loc 1 1215 0
 3962 000e BB6B     		ldr	r3, [r7, #56]
 3963 0010 3B62     		str	r3, [r7, #32]
1216:C:/Users/dtjld/workspace/AIoT/src/LiteOS_Lab/iot_link/network/dtls/mbedtls/mbedtls-2.16.2/library\rsa.c **** 
1217:C:/Users/dtjld/workspace/AIoT/src/LiteOS_Lab/iot_link/network/dtls/mbedtls/mbedtls-2.16.2/library\rsa.c ****     RSA_VALIDATE_RET( ctx != NULL );
1218:C:/Users/dtjld/workspace/AIoT/src/LiteOS_Lab/iot_link/network/dtls/mbedtls/mbedtls-2.16.2/library\rsa.c ****     RSA_VALIDATE_RET( mode == MBEDTLS_RSA_PRIVATE ||
1219:C:/Users/dtjld/workspace/AIoT/src/LiteOS_Lab/iot_link/network/dtls/mbedtls/mbedtls-2.16.2/library\rsa.c ****                       mode == MBEDTLS_RSA_PUBLIC );
1220:C:/Users/dtjld/workspace/AIoT/src/LiteOS_Lab/iot_link/network/dtls/mbedtls/mbedtls-2.16.2/library\rsa.c ****     RSA_VALIDATE_RET( output != NULL );
1221:C:/Users/dtjld/workspace/AIoT/src/LiteOS_Lab/iot_link/network/dtls/mbedtls/mbedtls-2.16.2/library\rsa.c ****     RSA_VALIDATE_RET( input != NULL );
1222:C:/Users/dtjld/workspace/AIoT/src/LiteOS_Lab/iot_link/network/dtls/mbedtls/mbedtls-2.16.2/library\rsa.c **** 
1223:C:/Users/dtjld/workspace/AIoT/src/LiteOS_Lab/iot_link/network/dtls/mbedtls/mbedtls-2.16.2/library\rsa.c ****     if( mode == MBEDTLS_RSA_PRIVATE && ctx->padding != MBEDTLS_RSA_PKCS_V15 )
 3964              		.loc 1 1223 0
 3965 0012 3B68     		ldr	r3, [r7]
 3966 0014 012B     		cmp	r3, #1
 3967 0016 06D1     		bne	.L316
 3968              		.loc 1 1223 0 is_stmt 0 discriminator 1
 3969 0018 FB68     		ldr	r3, [r7, #12]
 3970 001a D3F8A430 		ldr	r3, [r3, #164]
 3971 001e 002B     		cmp	r3, #0
 3972 0020 01D0     		beq	.L316
1224:C:/Users/dtjld/workspace/AIoT/src/LiteOS_Lab/iot_link/network/dtls/mbedtls/mbedtls-2.16.2/library\rsa.c ****         return( MBEDTLS_ERR_RSA_BAD_INPUT_DATA );
 3973              		.loc 1 1224 0 is_stmt 1
 3974 0022 404B     		ldr	r3, .L333
 3975 0024 7AE0     		b	.L317
 3976              	.L316:
1225:C:/Users/dtjld/workspace/AIoT/src/LiteOS_Lab/iot_link/network/dtls/mbedtls/mbedtls-2.16.2/library\rsa.c **** 
1226:C:/Users/dtjld/workspace/AIoT/src/LiteOS_Lab/iot_link/network/dtls/mbedtls/mbedtls-2.16.2/library\rsa.c ****     olen = ctx->len;
 3977              		.loc 1 1226 0
 3978 0026 FB68     		ldr	r3, [r7, #12]
 3979 0028 5B68     		ldr	r3, [r3, #4]
 3980 002a BB61     		str	r3, [r7, #24]
1227:C:/Users/dtjld/workspace/AIoT/src/LiteOS_Lab/iot_link/network/dtls/mbedtls/mbedtls-2.16.2/library\rsa.c **** 
1228:C:/Users/dtjld/workspace/AIoT/src/LiteOS_Lab/iot_link/network/dtls/mbedtls/mbedtls-2.16.2/library\rsa.c ****     /* first comparison checks for overflow */
1229:C:/Users/dtjld/workspace/AIoT/src/LiteOS_Lab/iot_link/network/dtls/mbedtls/mbedtls-2.16.2/library\rsa.c ****     if( ilen + 11 < ilen || olen < ilen + 11 )
 3981              		.loc 1 1229 0
 3982 002c 3B6B     		ldr	r3, [r7, #48]
 3983 002e 13F10C0F 		cmn	r3, #12
 3984 0032 04D8     		bhi	.L318
 3985              		.loc 1 1229 0 is_stmt 0 discriminator 1
 3986 0034 3B6B     		ldr	r3, [r7, #48]
 3987 0036 0B33     		adds	r3, r3, #11
 3988 0038 BA69     		ldr	r2, [r7, #24]
 3989 003a 9A42     		cmp	r2, r3
 3990 003c 01D2     		bcs	.L319
 3991              	.L318:
1230:C:/Users/dtjld/workspace/AIoT/src/LiteOS_Lab/iot_link/network/dtls/mbedtls/mbedtls-2.16.2/library\rsa.c ****         return( MBEDTLS_ERR_RSA_BAD_INPUT_DATA );
 3992              		.loc 1 1230 0 is_stmt 1
 3993 003e 394B     		ldr	r3, .L333
 3994 0040 6CE0     		b	.L317
 3995              	.L319:
1231:C:/Users/dtjld/workspace/AIoT/src/LiteOS_Lab/iot_link/network/dtls/mbedtls/mbedtls-2.16.2/library\rsa.c **** 
1232:C:/Users/dtjld/workspace/AIoT/src/LiteOS_Lab/iot_link/network/dtls/mbedtls/mbedtls-2.16.2/library\rsa.c ****     nb_pad = olen - 3 - ilen;
 3996              		.loc 1 1232 0
 3997 0042 BA69     		ldr	r2, [r7, #24]
 3998 0044 3B6B     		ldr	r3, [r7, #48]
 3999 0046 D31A     		subs	r3, r2, r3
ARM GAS  C:\Users\dtjld\AppData\Local\Temp\cck1fUMg.s 			page 94


 4000 0048 033B     		subs	r3, r3, #3
 4001 004a 7B62     		str	r3, [r7, #36]
1233:C:/Users/dtjld/workspace/AIoT/src/LiteOS_Lab/iot_link/network/dtls/mbedtls/mbedtls-2.16.2/library\rsa.c **** 
1234:C:/Users/dtjld/workspace/AIoT/src/LiteOS_Lab/iot_link/network/dtls/mbedtls/mbedtls-2.16.2/library\rsa.c ****     *p++ = 0;
 4002              		.loc 1 1234 0
 4003 004c 3B6A     		ldr	r3, [r7, #32]
 4004 004e 5A1C     		adds	r2, r3, #1
 4005 0050 3A62     		str	r2, [r7, #32]
 4006 0052 0022     		movs	r2, #0
 4007 0054 1A70     		strb	r2, [r3]
1235:C:/Users/dtjld/workspace/AIoT/src/LiteOS_Lab/iot_link/network/dtls/mbedtls/mbedtls-2.16.2/library\rsa.c ****     if( mode == MBEDTLS_RSA_PUBLIC )
 4008              		.loc 1 1235 0
 4009 0056 3B68     		ldr	r3, [r7]
 4010 0058 002B     		cmp	r3, #0
 4011 005a 32D1     		bne	.L320
1236:C:/Users/dtjld/workspace/AIoT/src/LiteOS_Lab/iot_link/network/dtls/mbedtls/mbedtls-2.16.2/library\rsa.c ****     {
1237:C:/Users/dtjld/workspace/AIoT/src/LiteOS_Lab/iot_link/network/dtls/mbedtls/mbedtls-2.16.2/library\rsa.c ****         if( f_rng == NULL )
 4012              		.loc 1 1237 0
 4013 005c BB68     		ldr	r3, [r7, #8]
 4014 005e 002B     		cmp	r3, #0
 4015 0060 01D1     		bne	.L321
1238:C:/Users/dtjld/workspace/AIoT/src/LiteOS_Lab/iot_link/network/dtls/mbedtls/mbedtls-2.16.2/library\rsa.c ****             return( MBEDTLS_ERR_RSA_BAD_INPUT_DATA );
 4016              		.loc 1 1238 0
 4017 0062 304B     		ldr	r3, .L333
 4018 0064 5AE0     		b	.L317
 4019              	.L321:
1239:C:/Users/dtjld/workspace/AIoT/src/LiteOS_Lab/iot_link/network/dtls/mbedtls/mbedtls-2.16.2/library\rsa.c **** 
1240:C:/Users/dtjld/workspace/AIoT/src/LiteOS_Lab/iot_link/network/dtls/mbedtls/mbedtls-2.16.2/library\rsa.c ****         *p++ = MBEDTLS_RSA_CRYPT;
 4020              		.loc 1 1240 0
 4021 0066 3B6A     		ldr	r3, [r7, #32]
 4022 0068 5A1C     		adds	r2, r3, #1
 4023 006a 3A62     		str	r2, [r7, #32]
 4024 006c 0222     		movs	r2, #2
 4025 006e 1A70     		strb	r2, [r3]
1241:C:/Users/dtjld/workspace/AIoT/src/LiteOS_Lab/iot_link/network/dtls/mbedtls/mbedtls-2.16.2/library\rsa.c **** 
1242:C:/Users/dtjld/workspace/AIoT/src/LiteOS_Lab/iot_link/network/dtls/mbedtls/mbedtls-2.16.2/library\rsa.c ****         while( nb_pad-- > 0 )
 4026              		.loc 1 1242 0
 4027 0070 21E0     		b	.L322
 4028              	.L327:
 4029              	.LBB2:
1243:C:/Users/dtjld/workspace/AIoT/src/LiteOS_Lab/iot_link/network/dtls/mbedtls/mbedtls-2.16.2/library\rsa.c ****         {
1244:C:/Users/dtjld/workspace/AIoT/src/LiteOS_Lab/iot_link/network/dtls/mbedtls/mbedtls-2.16.2/library\rsa.c ****             int rng_dl = 100;
 4030              		.loc 1 1244 0
 4031 0072 6423     		movs	r3, #100
 4032 0074 FB61     		str	r3, [r7, #28]
 4033              	.L324:
1245:C:/Users/dtjld/workspace/AIoT/src/LiteOS_Lab/iot_link/network/dtls/mbedtls/mbedtls-2.16.2/library\rsa.c **** 
1246:C:/Users/dtjld/workspace/AIoT/src/LiteOS_Lab/iot_link/network/dtls/mbedtls/mbedtls-2.16.2/library\rsa.c ****             do {
1247:C:/Users/dtjld/workspace/AIoT/src/LiteOS_Lab/iot_link/network/dtls/mbedtls/mbedtls-2.16.2/library\rsa.c ****                 ret = f_rng( p_rng, p, 1 );
 4034              		.loc 1 1247 0 discriminator 3
 4035 0076 BB68     		ldr	r3, [r7, #8]
 4036 0078 0122     		movs	r2, #1
 4037 007a 396A     		ldr	r1, [r7, #32]
 4038 007c 7868     		ldr	r0, [r7, #4]
 4039 007e 9847     		blx	r3
 4040              	.LVL1:
 4041 0080 7861     		str	r0, [r7, #20]
ARM GAS  C:\Users\dtjld\AppData\Local\Temp\cck1fUMg.s 			page 95


1248:C:/Users/dtjld/workspace/AIoT/src/LiteOS_Lab/iot_link/network/dtls/mbedtls/mbedtls-2.16.2/library\rsa.c ****             } while( *p == 0 && --rng_dl && ret == 0 );
 4042              		.loc 1 1248 0 discriminator 3
 4043 0082 3B6A     		ldr	r3, [r7, #32]
 4044 0084 1B78     		ldrb	r3, [r3]	@ zero_extendqisi2
 4045 0086 002B     		cmp	r3, #0
 4046 0088 08D1     		bne	.L323
 4047              		.loc 1 1248 0 is_stmt 0 discriminator 1
 4048 008a FB69     		ldr	r3, [r7, #28]
 4049 008c 013B     		subs	r3, r3, #1
 4050 008e FB61     		str	r3, [r7, #28]
 4051 0090 FB69     		ldr	r3, [r7, #28]
 4052 0092 002B     		cmp	r3, #0
 4053 0094 02D0     		beq	.L323
 4054              		.loc 1 1248 0 discriminator 2
 4055 0096 7B69     		ldr	r3, [r7, #20]
 4056 0098 002B     		cmp	r3, #0
 4057 009a ECD0     		beq	.L324
 4058              	.L323:
1249:C:/Users/dtjld/workspace/AIoT/src/LiteOS_Lab/iot_link/network/dtls/mbedtls/mbedtls-2.16.2/library\rsa.c **** 
1250:C:/Users/dtjld/workspace/AIoT/src/LiteOS_Lab/iot_link/network/dtls/mbedtls/mbedtls-2.16.2/library\rsa.c ****             /* Check if RNG failed to generate data */
1251:C:/Users/dtjld/workspace/AIoT/src/LiteOS_Lab/iot_link/network/dtls/mbedtls/mbedtls-2.16.2/library\rsa.c ****             if( rng_dl == 0 || ret != 0 )
 4059              		.loc 1 1251 0 is_stmt 1
 4060 009c FB69     		ldr	r3, [r7, #28]
 4061 009e 002B     		cmp	r3, #0
 4062 00a0 02D0     		beq	.L325
 4063              		.loc 1 1251 0 is_stmt 0 discriminator 1
 4064 00a2 7B69     		ldr	r3, [r7, #20]
 4065 00a4 002B     		cmp	r3, #0
 4066 00a6 03D0     		beq	.L326
 4067              	.L325:
1252:C:/Users/dtjld/workspace/AIoT/src/LiteOS_Lab/iot_link/network/dtls/mbedtls/mbedtls-2.16.2/library\rsa.c ****                 return( MBEDTLS_ERR_RSA_RNG_FAILED + ret );
 4068              		.loc 1 1252 0 is_stmt 1
 4069 00a8 7B69     		ldr	r3, [r7, #20]
 4070 00aa A3F58943 		sub	r3, r3, #17536
 4071 00ae 35E0     		b	.L317
 4072              	.L326:
1253:C:/Users/dtjld/workspace/AIoT/src/LiteOS_Lab/iot_link/network/dtls/mbedtls/mbedtls-2.16.2/library\rsa.c **** 
1254:C:/Users/dtjld/workspace/AIoT/src/LiteOS_Lab/iot_link/network/dtls/mbedtls/mbedtls-2.16.2/library\rsa.c ****             p++;
 4073              		.loc 1 1254 0
 4074 00b0 3B6A     		ldr	r3, [r7, #32]
 4075 00b2 0133     		adds	r3, r3, #1
 4076 00b4 3B62     		str	r3, [r7, #32]
 4077              	.L322:
 4078              	.LBE2:
1242:C:/Users/dtjld/workspace/AIoT/src/LiteOS_Lab/iot_link/network/dtls/mbedtls/mbedtls-2.16.2/library\rsa.c ****         {
 4079              		.loc 1 1242 0
 4080 00b6 7B6A     		ldr	r3, [r7, #36]
 4081 00b8 5A1E     		subs	r2, r3, #1
 4082 00ba 7A62     		str	r2, [r7, #36]
 4083 00bc 002B     		cmp	r3, #0
 4084 00be D8D1     		bne	.L327
 4085 00c0 0FE0     		b	.L328
 4086              	.L320:
1255:C:/Users/dtjld/workspace/AIoT/src/LiteOS_Lab/iot_link/network/dtls/mbedtls/mbedtls-2.16.2/library\rsa.c ****         }
1256:C:/Users/dtjld/workspace/AIoT/src/LiteOS_Lab/iot_link/network/dtls/mbedtls/mbedtls-2.16.2/library\rsa.c ****     }
1257:C:/Users/dtjld/workspace/AIoT/src/LiteOS_Lab/iot_link/network/dtls/mbedtls/mbedtls-2.16.2/library\rsa.c ****     else
1258:C:/Users/dtjld/workspace/AIoT/src/LiteOS_Lab/iot_link/network/dtls/mbedtls/mbedtls-2.16.2/library\rsa.c ****     {
ARM GAS  C:\Users\dtjld\AppData\Local\Temp\cck1fUMg.s 			page 96


1259:C:/Users/dtjld/workspace/AIoT/src/LiteOS_Lab/iot_link/network/dtls/mbedtls/mbedtls-2.16.2/library\rsa.c ****         *p++ = MBEDTLS_RSA_SIGN;
 4087              		.loc 1 1259 0
 4088 00c2 3B6A     		ldr	r3, [r7, #32]
 4089 00c4 5A1C     		adds	r2, r3, #1
 4090 00c6 3A62     		str	r2, [r7, #32]
 4091 00c8 0122     		movs	r2, #1
 4092 00ca 1A70     		strb	r2, [r3]
1260:C:/Users/dtjld/workspace/AIoT/src/LiteOS_Lab/iot_link/network/dtls/mbedtls/mbedtls-2.16.2/library\rsa.c **** 
1261:C:/Users/dtjld/workspace/AIoT/src/LiteOS_Lab/iot_link/network/dtls/mbedtls/mbedtls-2.16.2/library\rsa.c ****         while( nb_pad-- > 0 )
 4093              		.loc 1 1261 0
 4094 00cc 04E0     		b	.L329
 4095              	.L330:
1262:C:/Users/dtjld/workspace/AIoT/src/LiteOS_Lab/iot_link/network/dtls/mbedtls/mbedtls-2.16.2/library\rsa.c ****             *p++ = 0xFF;
 4096              		.loc 1 1262 0
 4097 00ce 3B6A     		ldr	r3, [r7, #32]
 4098 00d0 5A1C     		adds	r2, r3, #1
 4099 00d2 3A62     		str	r2, [r7, #32]
 4100 00d4 FF22     		movs	r2, #255
 4101 00d6 1A70     		strb	r2, [r3]
 4102              	.L329:
1261:C:/Users/dtjld/workspace/AIoT/src/LiteOS_Lab/iot_link/network/dtls/mbedtls/mbedtls-2.16.2/library\rsa.c ****             *p++ = 0xFF;
 4103              		.loc 1 1261 0
 4104 00d8 7B6A     		ldr	r3, [r7, #36]
 4105 00da 5A1E     		subs	r2, r3, #1
 4106 00dc 7A62     		str	r2, [r7, #36]
 4107 00de 002B     		cmp	r3, #0
 4108 00e0 F5D1     		bne	.L330
 4109              	.L328:
1263:C:/Users/dtjld/workspace/AIoT/src/LiteOS_Lab/iot_link/network/dtls/mbedtls/mbedtls-2.16.2/library\rsa.c ****     }
1264:C:/Users/dtjld/workspace/AIoT/src/LiteOS_Lab/iot_link/network/dtls/mbedtls/mbedtls-2.16.2/library\rsa.c **** 
1265:C:/Users/dtjld/workspace/AIoT/src/LiteOS_Lab/iot_link/network/dtls/mbedtls/mbedtls-2.16.2/library\rsa.c ****     *p++ = 0;
 4110              		.loc 1 1265 0
 4111 00e2 3B6A     		ldr	r3, [r7, #32]
 4112 00e4 5A1C     		adds	r2, r3, #1
 4113 00e6 3A62     		str	r2, [r7, #32]
 4114 00e8 0022     		movs	r2, #0
 4115 00ea 1A70     		strb	r2, [r3]
1266:C:/Users/dtjld/workspace/AIoT/src/LiteOS_Lab/iot_link/network/dtls/mbedtls/mbedtls-2.16.2/library\rsa.c ****     memcpy( p, input, ilen );
 4116              		.loc 1 1266 0
 4117 00ec 3A6B     		ldr	r2, [r7, #48]
 4118 00ee 796B     		ldr	r1, [r7, #52]
 4119 00f0 386A     		ldr	r0, [r7, #32]
 4120 00f2 FFF7FEFF 		bl	memcpy
1267:C:/Users/dtjld/workspace/AIoT/src/LiteOS_Lab/iot_link/network/dtls/mbedtls/mbedtls-2.16.2/library\rsa.c **** 
1268:C:/Users/dtjld/workspace/AIoT/src/LiteOS_Lab/iot_link/network/dtls/mbedtls/mbedtls-2.16.2/library\rsa.c ****     return( ( mode == MBEDTLS_RSA_PUBLIC )
1269:C:/Users/dtjld/workspace/AIoT/src/LiteOS_Lab/iot_link/network/dtls/mbedtls/mbedtls-2.16.2/library\rsa.c ****             ? mbedtls_rsa_public(  ctx, output, output )
1270:C:/Users/dtjld/workspace/AIoT/src/LiteOS_Lab/iot_link/network/dtls/mbedtls/mbedtls-2.16.2/library\rsa.c ****             : mbedtls_rsa_private( ctx, f_rng, p_rng, output, output ) );
 4121              		.loc 1 1270 0
 4122 00f6 3B68     		ldr	r3, [r7]
 4123 00f8 002B     		cmp	r3, #0
 4124 00fa 06D1     		bne	.L331
 4125              		.loc 1 1270 0 is_stmt 0 discriminator 1
 4126 00fc BA6B     		ldr	r2, [r7, #56]
 4127 00fe B96B     		ldr	r1, [r7, #56]
 4128 0100 F868     		ldr	r0, [r7, #12]
 4129 0102 FFF7FEFF 		bl	mbedtls_rsa_public
 4130 0106 0346     		mov	r3, r0
ARM GAS  C:\Users\dtjld\AppData\Local\Temp\cck1fUMg.s 			page 97


 4131 0108 08E0     		b	.L317
 4132              	.L331:
 4133              		.loc 1 1270 0 discriminator 2
 4134 010a BB6B     		ldr	r3, [r7, #56]
 4135 010c 0093     		str	r3, [sp]
 4136 010e BB6B     		ldr	r3, [r7, #56]
 4137 0110 7A68     		ldr	r2, [r7, #4]
 4138 0112 B968     		ldr	r1, [r7, #8]
 4139 0114 F868     		ldr	r0, [r7, #12]
 4140 0116 FFF7FEFF 		bl	mbedtls_rsa_private
 4141 011a 0346     		mov	r3, r0
 4142              	.L317:
1271:C:/Users/dtjld/workspace/AIoT/src/LiteOS_Lab/iot_link/network/dtls/mbedtls/mbedtls-2.16.2/library\rsa.c **** }
 4143              		.loc 1 1271 0 is_stmt 1
 4144 011c 1846     		mov	r0, r3
 4145 011e 2837     		adds	r7, r7, #40
 4146              	.LCFI106:
 4147              		.cfi_def_cfa_offset 8
 4148 0120 BD46     		mov	sp, r7
 4149              	.LCFI107:
 4150              		.cfi_def_cfa_register 13
 4151              		@ sp needed
 4152 0122 80BD     		pop	{r7, pc}
 4153              	.L334:
 4154              		.align	2
 4155              	.L333:
 4156 0124 80BFFFFF 		.word	-16512
 4157              		.cfi_endproc
 4158              	.LFE33:
 4160              		.section	.text.mbedtls_rsa_pkcs1_encrypt,"ax",%progbits
 4161              		.align	1
 4162              		.global	mbedtls_rsa_pkcs1_encrypt
 4163              		.syntax unified
 4164              		.thumb
 4165              		.thumb_func
 4166              		.fpu fpv4-sp-d16
 4168              	mbedtls_rsa_pkcs1_encrypt:
 4169              	.LFB34:
1272:C:/Users/dtjld/workspace/AIoT/src/LiteOS_Lab/iot_link/network/dtls/mbedtls/mbedtls-2.16.2/library\rsa.c **** #endif /* MBEDTLS_PKCS1_V15 */
1273:C:/Users/dtjld/workspace/AIoT/src/LiteOS_Lab/iot_link/network/dtls/mbedtls/mbedtls-2.16.2/library\rsa.c **** 
1274:C:/Users/dtjld/workspace/AIoT/src/LiteOS_Lab/iot_link/network/dtls/mbedtls/mbedtls-2.16.2/library\rsa.c **** /*
1275:C:/Users/dtjld/workspace/AIoT/src/LiteOS_Lab/iot_link/network/dtls/mbedtls/mbedtls-2.16.2/library\rsa.c ****  * Add the message padding, then do an RSA operation
1276:C:/Users/dtjld/workspace/AIoT/src/LiteOS_Lab/iot_link/network/dtls/mbedtls/mbedtls-2.16.2/library\rsa.c ****  */
1277:C:/Users/dtjld/workspace/AIoT/src/LiteOS_Lab/iot_link/network/dtls/mbedtls/mbedtls-2.16.2/library\rsa.c **** int mbedtls_rsa_pkcs1_encrypt( mbedtls_rsa_context *ctx,
1278:C:/Users/dtjld/workspace/AIoT/src/LiteOS_Lab/iot_link/network/dtls/mbedtls/mbedtls-2.16.2/library\rsa.c ****                        int (*f_rng)(void *, unsigned char *, size_t),
1279:C:/Users/dtjld/workspace/AIoT/src/LiteOS_Lab/iot_link/network/dtls/mbedtls/mbedtls-2.16.2/library\rsa.c ****                        void *p_rng,
1280:C:/Users/dtjld/workspace/AIoT/src/LiteOS_Lab/iot_link/network/dtls/mbedtls/mbedtls-2.16.2/library\rsa.c ****                        int mode, size_t ilen,
1281:C:/Users/dtjld/workspace/AIoT/src/LiteOS_Lab/iot_link/network/dtls/mbedtls/mbedtls-2.16.2/library\rsa.c ****                        const unsigned char *input,
1282:C:/Users/dtjld/workspace/AIoT/src/LiteOS_Lab/iot_link/network/dtls/mbedtls/mbedtls-2.16.2/library\rsa.c ****                        unsigned char *output )
1283:C:/Users/dtjld/workspace/AIoT/src/LiteOS_Lab/iot_link/network/dtls/mbedtls/mbedtls-2.16.2/library\rsa.c **** {
 4170              		.loc 1 1283 0
 4171              		.cfi_startproc
 4172              		@ args = 12, pretend = 0, frame = 16
 4173              		@ frame_needed = 1, uses_anonymous_args = 0
 4174 0000 80B5     		push	{r7, lr}
 4175              	.LCFI108:
 4176              		.cfi_def_cfa_offset 8
ARM GAS  C:\Users\dtjld\AppData\Local\Temp\cck1fUMg.s 			page 98


 4177              		.cfi_offset 7, -8
 4178              		.cfi_offset 14, -4
 4179 0002 8AB0     		sub	sp, sp, #40
 4180              	.LCFI109:
 4181              		.cfi_def_cfa_offset 48
 4182 0004 06AF     		add	r7, sp, #24
 4183              	.LCFI110:
 4184              		.cfi_def_cfa 7, 24
 4185 0006 F860     		str	r0, [r7, #12]
 4186 0008 B960     		str	r1, [r7, #8]
 4187 000a 7A60     		str	r2, [r7, #4]
 4188 000c 3B60     		str	r3, [r7]
1284:C:/Users/dtjld/workspace/AIoT/src/LiteOS_Lab/iot_link/network/dtls/mbedtls/mbedtls-2.16.2/library\rsa.c ****     RSA_VALIDATE_RET( ctx != NULL );
1285:C:/Users/dtjld/workspace/AIoT/src/LiteOS_Lab/iot_link/network/dtls/mbedtls/mbedtls-2.16.2/library\rsa.c ****     RSA_VALIDATE_RET( mode == MBEDTLS_RSA_PRIVATE ||
1286:C:/Users/dtjld/workspace/AIoT/src/LiteOS_Lab/iot_link/network/dtls/mbedtls/mbedtls-2.16.2/library\rsa.c ****                       mode == MBEDTLS_RSA_PUBLIC );
1287:C:/Users/dtjld/workspace/AIoT/src/LiteOS_Lab/iot_link/network/dtls/mbedtls/mbedtls-2.16.2/library\rsa.c ****     RSA_VALIDATE_RET( output != NULL );
1288:C:/Users/dtjld/workspace/AIoT/src/LiteOS_Lab/iot_link/network/dtls/mbedtls/mbedtls-2.16.2/library\rsa.c ****     RSA_VALIDATE_RET( input != NULL );
1289:C:/Users/dtjld/workspace/AIoT/src/LiteOS_Lab/iot_link/network/dtls/mbedtls/mbedtls-2.16.2/library\rsa.c **** 
1290:C:/Users/dtjld/workspace/AIoT/src/LiteOS_Lab/iot_link/network/dtls/mbedtls/mbedtls-2.16.2/library\rsa.c ****     switch( ctx->padding )
 4189              		.loc 1 1290 0
 4190 000e FB68     		ldr	r3, [r7, #12]
 4191 0010 D3F8A430 		ldr	r3, [r3, #164]
 4192 0014 002B     		cmp	r3, #0
 4193 0016 02D0     		beq	.L337
 4194 0018 012B     		cmp	r3, #1
 4195 001a 0ED0     		beq	.L338
 4196 001c 1FE0     		b	.L340
 4197              	.L337:
1291:C:/Users/dtjld/workspace/AIoT/src/LiteOS_Lab/iot_link/network/dtls/mbedtls/mbedtls-2.16.2/library\rsa.c ****     {
1292:C:/Users/dtjld/workspace/AIoT/src/LiteOS_Lab/iot_link/network/dtls/mbedtls/mbedtls-2.16.2/library\rsa.c **** #if defined(MBEDTLS_PKCS1_V15)
1293:C:/Users/dtjld/workspace/AIoT/src/LiteOS_Lab/iot_link/network/dtls/mbedtls/mbedtls-2.16.2/library\rsa.c ****         case MBEDTLS_RSA_PKCS_V15:
1294:C:/Users/dtjld/workspace/AIoT/src/LiteOS_Lab/iot_link/network/dtls/mbedtls/mbedtls-2.16.2/library\rsa.c ****             return mbedtls_rsa_rsaes_pkcs1_v15_encrypt( ctx, f_rng, p_rng, mode, ilen,
 4198              		.loc 1 1294 0
 4199 001e 3B6A     		ldr	r3, [r7, #32]
 4200 0020 0293     		str	r3, [sp, #8]
 4201 0022 FB69     		ldr	r3, [r7, #28]
 4202 0024 0193     		str	r3, [sp, #4]
 4203 0026 BB69     		ldr	r3, [r7, #24]
 4204 0028 0093     		str	r3, [sp]
 4205 002a 3B68     		ldr	r3, [r7]
 4206 002c 7A68     		ldr	r2, [r7, #4]
 4207 002e B968     		ldr	r1, [r7, #8]
 4208 0030 F868     		ldr	r0, [r7, #12]
 4209 0032 FFF7FEFF 		bl	mbedtls_rsa_rsaes_pkcs1_v15_encrypt
 4210 0036 0346     		mov	r3, r0
 4211 0038 12E0     		b	.L339
 4212              	.L338:
1295:C:/Users/dtjld/workspace/AIoT/src/LiteOS_Lab/iot_link/network/dtls/mbedtls/mbedtls-2.16.2/library\rsa.c ****                                                 input, output );
1296:C:/Users/dtjld/workspace/AIoT/src/LiteOS_Lab/iot_link/network/dtls/mbedtls/mbedtls-2.16.2/library\rsa.c **** #endif
1297:C:/Users/dtjld/workspace/AIoT/src/LiteOS_Lab/iot_link/network/dtls/mbedtls/mbedtls-2.16.2/library\rsa.c **** 
1298:C:/Users/dtjld/workspace/AIoT/src/LiteOS_Lab/iot_link/network/dtls/mbedtls/mbedtls-2.16.2/library\rsa.c **** #if defined(MBEDTLS_PKCS1_V21)
1299:C:/Users/dtjld/workspace/AIoT/src/LiteOS_Lab/iot_link/network/dtls/mbedtls/mbedtls-2.16.2/library\rsa.c ****         case MBEDTLS_RSA_PKCS_V21:
1300:C:/Users/dtjld/workspace/AIoT/src/LiteOS_Lab/iot_link/network/dtls/mbedtls/mbedtls-2.16.2/library\rsa.c ****             return mbedtls_rsa_rsaes_oaep_encrypt( ctx, f_rng, p_rng, mode, NULL, 0,
 4213              		.loc 1 1300 0
 4214 003a 3B6A     		ldr	r3, [r7, #32]
 4215 003c 0493     		str	r3, [sp, #16]
 4216 003e FB69     		ldr	r3, [r7, #28]
ARM GAS  C:\Users\dtjld\AppData\Local\Temp\cck1fUMg.s 			page 99


 4217 0040 0393     		str	r3, [sp, #12]
 4218 0042 BB69     		ldr	r3, [r7, #24]
 4219 0044 0293     		str	r3, [sp, #8]
 4220 0046 0023     		movs	r3, #0
 4221 0048 0193     		str	r3, [sp, #4]
 4222 004a 0023     		movs	r3, #0
 4223 004c 0093     		str	r3, [sp]
 4224 004e 3B68     		ldr	r3, [r7]
 4225 0050 7A68     		ldr	r2, [r7, #4]
 4226 0052 B968     		ldr	r1, [r7, #8]
 4227 0054 F868     		ldr	r0, [r7, #12]
 4228 0056 FFF7FEFF 		bl	mbedtls_rsa_rsaes_oaep_encrypt
 4229 005a 0346     		mov	r3, r0
 4230 005c 00E0     		b	.L339
 4231              	.L340:
1301:C:/Users/dtjld/workspace/AIoT/src/LiteOS_Lab/iot_link/network/dtls/mbedtls/mbedtls-2.16.2/library\rsa.c ****                                            ilen, input, output );
1302:C:/Users/dtjld/workspace/AIoT/src/LiteOS_Lab/iot_link/network/dtls/mbedtls/mbedtls-2.16.2/library\rsa.c **** #endif
1303:C:/Users/dtjld/workspace/AIoT/src/LiteOS_Lab/iot_link/network/dtls/mbedtls/mbedtls-2.16.2/library\rsa.c **** 
1304:C:/Users/dtjld/workspace/AIoT/src/LiteOS_Lab/iot_link/network/dtls/mbedtls/mbedtls-2.16.2/library\rsa.c ****         default:
1305:C:/Users/dtjld/workspace/AIoT/src/LiteOS_Lab/iot_link/network/dtls/mbedtls/mbedtls-2.16.2/library\rsa.c ****             return( MBEDTLS_ERR_RSA_INVALID_PADDING );
 4232              		.loc 1 1305 0
 4233 005e 024B     		ldr	r3, .L341
 4234              	.L339:
1306:C:/Users/dtjld/workspace/AIoT/src/LiteOS_Lab/iot_link/network/dtls/mbedtls/mbedtls-2.16.2/library\rsa.c ****     }
1307:C:/Users/dtjld/workspace/AIoT/src/LiteOS_Lab/iot_link/network/dtls/mbedtls/mbedtls-2.16.2/library\rsa.c **** }
 4235              		.loc 1 1307 0
 4236 0060 1846     		mov	r0, r3
 4237 0062 1037     		adds	r7, r7, #16
 4238              	.LCFI111:
 4239              		.cfi_def_cfa_offset 8
 4240 0064 BD46     		mov	sp, r7
 4241              	.LCFI112:
 4242              		.cfi_def_cfa_register 13
 4243              		@ sp needed
 4244 0066 80BD     		pop	{r7, pc}
 4245              	.L342:
 4246              		.align	2
 4247              	.L341:
 4248 0068 00BFFFFF 		.word	-16640
 4249              		.cfi_endproc
 4250              	.LFE34:
 4252              		.section	.text.mbedtls_rsa_rsaes_oaep_decrypt,"ax",%progbits
 4253              		.align	1
 4254              		.global	mbedtls_rsa_rsaes_oaep_decrypt
 4255              		.syntax unified
 4256              		.thumb
 4257              		.thumb_func
 4258              		.fpu fpv4-sp-d16
 4260              	mbedtls_rsa_rsaes_oaep_decrypt:
 4261              	.LFB35:
1308:C:/Users/dtjld/workspace/AIoT/src/LiteOS_Lab/iot_link/network/dtls/mbedtls/mbedtls-2.16.2/library\rsa.c **** 
1309:C:/Users/dtjld/workspace/AIoT/src/LiteOS_Lab/iot_link/network/dtls/mbedtls/mbedtls-2.16.2/library\rsa.c **** #if defined(MBEDTLS_PKCS1_V21)
1310:C:/Users/dtjld/workspace/AIoT/src/LiteOS_Lab/iot_link/network/dtls/mbedtls/mbedtls-2.16.2/library\rsa.c **** /*
1311:C:/Users/dtjld/workspace/AIoT/src/LiteOS_Lab/iot_link/network/dtls/mbedtls/mbedtls-2.16.2/library\rsa.c ****  * Implementation of the PKCS#1 v2.1 RSAES-OAEP-DECRYPT function
1312:C:/Users/dtjld/workspace/AIoT/src/LiteOS_Lab/iot_link/network/dtls/mbedtls/mbedtls-2.16.2/library\rsa.c ****  */
1313:C:/Users/dtjld/workspace/AIoT/src/LiteOS_Lab/iot_link/network/dtls/mbedtls/mbedtls-2.16.2/library\rsa.c **** int mbedtls_rsa_rsaes_oaep_decrypt( mbedtls_rsa_context *ctx,
1314:C:/Users/dtjld/workspace/AIoT/src/LiteOS_Lab/iot_link/network/dtls/mbedtls/mbedtls-2.16.2/library\rsa.c ****                             int (*f_rng)(void *, unsigned char *, size_t),
ARM GAS  C:\Users\dtjld\AppData\Local\Temp\cck1fUMg.s 			page 100


1315:C:/Users/dtjld/workspace/AIoT/src/LiteOS_Lab/iot_link/network/dtls/mbedtls/mbedtls-2.16.2/library\rsa.c ****                             void *p_rng,
1316:C:/Users/dtjld/workspace/AIoT/src/LiteOS_Lab/iot_link/network/dtls/mbedtls/mbedtls-2.16.2/library\rsa.c ****                             int mode,
1317:C:/Users/dtjld/workspace/AIoT/src/LiteOS_Lab/iot_link/network/dtls/mbedtls/mbedtls-2.16.2/library\rsa.c ****                             const unsigned char *label, size_t label_len,
1318:C:/Users/dtjld/workspace/AIoT/src/LiteOS_Lab/iot_link/network/dtls/mbedtls/mbedtls-2.16.2/library\rsa.c ****                             size_t *olen,
1319:C:/Users/dtjld/workspace/AIoT/src/LiteOS_Lab/iot_link/network/dtls/mbedtls/mbedtls-2.16.2/library\rsa.c ****                             const unsigned char *input,
1320:C:/Users/dtjld/workspace/AIoT/src/LiteOS_Lab/iot_link/network/dtls/mbedtls/mbedtls-2.16.2/library\rsa.c ****                             unsigned char *output,
1321:C:/Users/dtjld/workspace/AIoT/src/LiteOS_Lab/iot_link/network/dtls/mbedtls/mbedtls-2.16.2/library\rsa.c ****                             size_t output_max_len )
1322:C:/Users/dtjld/workspace/AIoT/src/LiteOS_Lab/iot_link/network/dtls/mbedtls/mbedtls-2.16.2/library\rsa.c **** {
 4262              		.loc 1 1322 0
 4263              		.cfi_startproc
 4264              		@ args = 24, pretend = 0, frame = 1152
 4265              		@ frame_needed = 1, uses_anonymous_args = 0
 4266 0000 90B5     		push	{r4, r7, lr}
 4267              	.LCFI113:
 4268              		.cfi_def_cfa_offset 12
 4269              		.cfi_offset 4, -12
 4270              		.cfi_offset 7, -8
 4271              		.cfi_offset 14, -4
 4272 0002 ADF28C4D 		subw	sp, sp, #1164
 4273              	.LCFI114:
 4274              		.cfi_def_cfa_offset 1176
 4275 0006 02AF     		add	r7, sp, #8
 4276              	.LCFI115:
 4277              		.cfi_def_cfa 7, 1168
 4278 0008 07F10C04 		add	r4, r7, #12
 4279 000c 2060     		str	r0, [r4]
 4280 000e 07F10800 		add	r0, r7, #8
 4281 0012 0160     		str	r1, [r0]
 4282 0014 391D     		adds	r1, r7, #4
 4283 0016 0A60     		str	r2, [r1]
 4284 0018 3A46     		mov	r2, r7
 4285 001a 1360     		str	r3, [r2]
1323:C:/Users/dtjld/workspace/AIoT/src/LiteOS_Lab/iot_link/network/dtls/mbedtls/mbedtls-2.16.2/library\rsa.c ****     int ret;
1324:C:/Users/dtjld/workspace/AIoT/src/LiteOS_Lab/iot_link/network/dtls/mbedtls/mbedtls-2.16.2/library\rsa.c ****     size_t ilen, i, pad_len;
1325:C:/Users/dtjld/workspace/AIoT/src/LiteOS_Lab/iot_link/network/dtls/mbedtls/mbedtls-2.16.2/library\rsa.c ****     unsigned char *p, bad, pad_done;
1326:C:/Users/dtjld/workspace/AIoT/src/LiteOS_Lab/iot_link/network/dtls/mbedtls/mbedtls-2.16.2/library\rsa.c ****     unsigned char buf[MBEDTLS_MPI_MAX_SIZE];
1327:C:/Users/dtjld/workspace/AIoT/src/LiteOS_Lab/iot_link/network/dtls/mbedtls/mbedtls-2.16.2/library\rsa.c ****     unsigned char lhash[MBEDTLS_MD_MAX_SIZE];
1328:C:/Users/dtjld/workspace/AIoT/src/LiteOS_Lab/iot_link/network/dtls/mbedtls/mbedtls-2.16.2/library\rsa.c ****     unsigned int hlen;
1329:C:/Users/dtjld/workspace/AIoT/src/LiteOS_Lab/iot_link/network/dtls/mbedtls/mbedtls-2.16.2/library\rsa.c ****     const mbedtls_md_info_t *md_info;
1330:C:/Users/dtjld/workspace/AIoT/src/LiteOS_Lab/iot_link/network/dtls/mbedtls/mbedtls-2.16.2/library\rsa.c ****     mbedtls_md_context_t md_ctx;
1331:C:/Users/dtjld/workspace/AIoT/src/LiteOS_Lab/iot_link/network/dtls/mbedtls/mbedtls-2.16.2/library\rsa.c **** 
1332:C:/Users/dtjld/workspace/AIoT/src/LiteOS_Lab/iot_link/network/dtls/mbedtls/mbedtls-2.16.2/library\rsa.c ****     RSA_VALIDATE_RET( ctx != NULL );
1333:C:/Users/dtjld/workspace/AIoT/src/LiteOS_Lab/iot_link/network/dtls/mbedtls/mbedtls-2.16.2/library\rsa.c ****     RSA_VALIDATE_RET( mode == MBEDTLS_RSA_PRIVATE ||
1334:C:/Users/dtjld/workspace/AIoT/src/LiteOS_Lab/iot_link/network/dtls/mbedtls/mbedtls-2.16.2/library\rsa.c ****                       mode == MBEDTLS_RSA_PUBLIC );
1335:C:/Users/dtjld/workspace/AIoT/src/LiteOS_Lab/iot_link/network/dtls/mbedtls/mbedtls-2.16.2/library\rsa.c ****     RSA_VALIDATE_RET( output_max_len == 0 || output != NULL );
1336:C:/Users/dtjld/workspace/AIoT/src/LiteOS_Lab/iot_link/network/dtls/mbedtls/mbedtls-2.16.2/library\rsa.c ****     RSA_VALIDATE_RET( label_len == 0 || label != NULL );
1337:C:/Users/dtjld/workspace/AIoT/src/LiteOS_Lab/iot_link/network/dtls/mbedtls/mbedtls-2.16.2/library\rsa.c ****     RSA_VALIDATE_RET( input != NULL );
1338:C:/Users/dtjld/workspace/AIoT/src/LiteOS_Lab/iot_link/network/dtls/mbedtls/mbedtls-2.16.2/library\rsa.c ****     RSA_VALIDATE_RET( olen != NULL );
1339:C:/Users/dtjld/workspace/AIoT/src/LiteOS_Lab/iot_link/network/dtls/mbedtls/mbedtls-2.16.2/library\rsa.c **** 
1340:C:/Users/dtjld/workspace/AIoT/src/LiteOS_Lab/iot_link/network/dtls/mbedtls/mbedtls-2.16.2/library\rsa.c ****     /*
1341:C:/Users/dtjld/workspace/AIoT/src/LiteOS_Lab/iot_link/network/dtls/mbedtls/mbedtls-2.16.2/library\rsa.c ****      * Parameters sanity checks
1342:C:/Users/dtjld/workspace/AIoT/src/LiteOS_Lab/iot_link/network/dtls/mbedtls/mbedtls-2.16.2/library\rsa.c ****      */
1343:C:/Users/dtjld/workspace/AIoT/src/LiteOS_Lab/iot_link/network/dtls/mbedtls/mbedtls-2.16.2/library\rsa.c ****     if( mode == MBEDTLS_RSA_PRIVATE && ctx->padding != MBEDTLS_RSA_PKCS_V21 )
 4286              		.loc 1 1343 0
 4287 001c 3B46     		mov	r3, r7
 4288 001e 1B68     		ldr	r3, [r3]
 4289 0020 012B     		cmp	r3, #1
ARM GAS  C:\Users\dtjld\AppData\Local\Temp\cck1fUMg.s 			page 101


 4290 0022 08D1     		bne	.L344
 4291              		.loc 1 1343 0 is_stmt 0 discriminator 1
 4292 0024 07F10C03 		add	r3, r7, #12
 4293 0028 1B68     		ldr	r3, [r3]
 4294 002a D3F8A430 		ldr	r3, [r3, #164]
 4295 002e 012B     		cmp	r3, #1
 4296 0030 01D0     		beq	.L344
1344:C:/Users/dtjld/workspace/AIoT/src/LiteOS_Lab/iot_link/network/dtls/mbedtls/mbedtls-2.16.2/library\rsa.c ****         return( MBEDTLS_ERR_RSA_BAD_INPUT_DATA );
 4297              		.loc 1 1344 0 is_stmt 1
 4298 0032 D04B     		ldr	r3, .L367
 4299 0034 98E1     		b	.L364
 4300              	.L344:
1345:C:/Users/dtjld/workspace/AIoT/src/LiteOS_Lab/iot_link/network/dtls/mbedtls/mbedtls-2.16.2/library\rsa.c **** 
1346:C:/Users/dtjld/workspace/AIoT/src/LiteOS_Lab/iot_link/network/dtls/mbedtls/mbedtls-2.16.2/library\rsa.c ****     ilen = ctx->len;
 4301              		.loc 1 1346 0
 4302 0036 07F10C03 		add	r3, r7, #12
 4303 003a 1B68     		ldr	r3, [r3]
 4304 003c 5B68     		ldr	r3, [r3, #4]
 4305 003e C7F86834 		str	r3, [r7, #1128]
1347:C:/Users/dtjld/workspace/AIoT/src/LiteOS_Lab/iot_link/network/dtls/mbedtls/mbedtls-2.16.2/library\rsa.c **** 
1348:C:/Users/dtjld/workspace/AIoT/src/LiteOS_Lab/iot_link/network/dtls/mbedtls/mbedtls-2.16.2/library\rsa.c ****     if( ilen < 16 || ilen > sizeof( buf ) )
 4306              		.loc 1 1348 0
 4307 0042 D7F86834 		ldr	r3, [r7, #1128]
 4308 0046 0F2B     		cmp	r3, #15
 4309 0048 04D9     		bls	.L346
 4310              		.loc 1 1348 0 is_stmt 0 discriminator 1
 4311 004a D7F86834 		ldr	r3, [r7, #1128]
 4312 004e B3F5806F 		cmp	r3, #1024
 4313 0052 01D9     		bls	.L347
 4314              	.L346:
1349:C:/Users/dtjld/workspace/AIoT/src/LiteOS_Lab/iot_link/network/dtls/mbedtls/mbedtls-2.16.2/library\rsa.c ****         return( MBEDTLS_ERR_RSA_BAD_INPUT_DATA );
 4315              		.loc 1 1349 0 is_stmt 1
 4316 0054 C74B     		ldr	r3, .L367
 4317 0056 87E1     		b	.L364
 4318              	.L347:
1350:C:/Users/dtjld/workspace/AIoT/src/LiteOS_Lab/iot_link/network/dtls/mbedtls/mbedtls-2.16.2/library\rsa.c **** 
1351:C:/Users/dtjld/workspace/AIoT/src/LiteOS_Lab/iot_link/network/dtls/mbedtls/mbedtls-2.16.2/library\rsa.c ****     md_info = mbedtls_md_info_from_type( (mbedtls_md_type_t) ctx->hash_id );
 4319              		.loc 1 1351 0
 4320 0058 07F10C03 		add	r3, r7, #12
 4321 005c 1B68     		ldr	r3, [r3]
 4322 005e D3F8A830 		ldr	r3, [r3, #168]
 4323 0062 DBB2     		uxtb	r3, r3
 4324 0064 1846     		mov	r0, r3
 4325 0066 FFF7FEFF 		bl	mbedtls_md_info_from_type
 4326 006a C7F86404 		str	r0, [r7, #1124]
1352:C:/Users/dtjld/workspace/AIoT/src/LiteOS_Lab/iot_link/network/dtls/mbedtls/mbedtls-2.16.2/library\rsa.c ****     if( md_info == NULL )
 4327              		.loc 1 1352 0
 4328 006e D7F86434 		ldr	r3, [r7, #1124]
 4329 0072 002B     		cmp	r3, #0
 4330 0074 01D1     		bne	.L348
1353:C:/Users/dtjld/workspace/AIoT/src/LiteOS_Lab/iot_link/network/dtls/mbedtls/mbedtls-2.16.2/library\rsa.c ****         return( MBEDTLS_ERR_RSA_BAD_INPUT_DATA );
 4331              		.loc 1 1353 0
 4332 0076 BF4B     		ldr	r3, .L367
 4333 0078 76E1     		b	.L364
 4334              	.L348:
1354:C:/Users/dtjld/workspace/AIoT/src/LiteOS_Lab/iot_link/network/dtls/mbedtls/mbedtls-2.16.2/library\rsa.c **** 
1355:C:/Users/dtjld/workspace/AIoT/src/LiteOS_Lab/iot_link/network/dtls/mbedtls/mbedtls-2.16.2/library\rsa.c ****     hlen = mbedtls_md_get_size( md_info );
ARM GAS  C:\Users\dtjld\AppData\Local\Temp\cck1fUMg.s 			page 102


 4335              		.loc 1 1355 0
 4336 007a D7F86404 		ldr	r0, [r7, #1124]
 4337 007e FFF7FEFF 		bl	mbedtls_md_get_size
 4338 0082 0346     		mov	r3, r0
 4339 0084 C7F86034 		str	r3, [r7, #1120]
1356:C:/Users/dtjld/workspace/AIoT/src/LiteOS_Lab/iot_link/network/dtls/mbedtls/mbedtls-2.16.2/library\rsa.c **** 
1357:C:/Users/dtjld/workspace/AIoT/src/LiteOS_Lab/iot_link/network/dtls/mbedtls/mbedtls-2.16.2/library\rsa.c ****     // checking for integer underflow
1358:C:/Users/dtjld/workspace/AIoT/src/LiteOS_Lab/iot_link/network/dtls/mbedtls/mbedtls-2.16.2/library\rsa.c ****     if( 2 * hlen + 2 > ilen )
 4340              		.loc 1 1358 0
 4341 0088 D7F86034 		ldr	r3, [r7, #1120]
 4342 008c 0133     		adds	r3, r3, #1
 4343 008e 5B00     		lsls	r3, r3, #1
 4344 0090 D7F86824 		ldr	r2, [r7, #1128]
 4345 0094 9A42     		cmp	r2, r3
 4346 0096 01D2     		bcs	.L349
1359:C:/Users/dtjld/workspace/AIoT/src/LiteOS_Lab/iot_link/network/dtls/mbedtls/mbedtls-2.16.2/library\rsa.c ****         return( MBEDTLS_ERR_RSA_BAD_INPUT_DATA );
 4347              		.loc 1 1359 0
 4348 0098 B64B     		ldr	r3, .L367
 4349 009a 65E1     		b	.L364
 4350              	.L349:
1360:C:/Users/dtjld/workspace/AIoT/src/LiteOS_Lab/iot_link/network/dtls/mbedtls/mbedtls-2.16.2/library\rsa.c **** 
1361:C:/Users/dtjld/workspace/AIoT/src/LiteOS_Lab/iot_link/network/dtls/mbedtls/mbedtls-2.16.2/library\rsa.c ****     /*
1362:C:/Users/dtjld/workspace/AIoT/src/LiteOS_Lab/iot_link/network/dtls/mbedtls/mbedtls-2.16.2/library\rsa.c ****      * RSA operation
1363:C:/Users/dtjld/workspace/AIoT/src/LiteOS_Lab/iot_link/network/dtls/mbedtls/mbedtls-2.16.2/library\rsa.c ****      */
1364:C:/Users/dtjld/workspace/AIoT/src/LiteOS_Lab/iot_link/network/dtls/mbedtls/mbedtls-2.16.2/library\rsa.c ****     ret = ( mode == MBEDTLS_RSA_PUBLIC )
1365:C:/Users/dtjld/workspace/AIoT/src/LiteOS_Lab/iot_link/network/dtls/mbedtls/mbedtls-2.16.2/library\rsa.c ****           ? mbedtls_rsa_public(  ctx, input, buf )
1366:C:/Users/dtjld/workspace/AIoT/src/LiteOS_Lab/iot_link/network/dtls/mbedtls/mbedtls-2.16.2/library\rsa.c ****           : mbedtls_rsa_private( ctx, f_rng, p_rng, input, buf );
 4351              		.loc 1 1366 0
 4352 009c 3B46     		mov	r3, r7
 4353 009e 1B68     		ldr	r3, [r3]
 4354 00a0 002B     		cmp	r3, #0
 4355 00a2 0AD1     		bne	.L350
 4356              		.loc 1 1366 0 is_stmt 0 discriminator 1
 4357 00a4 07F16002 		add	r2, r7, #96
 4358 00a8 07F10C03 		add	r3, r7, #12
 4359 00ac D7F89C14 		ldr	r1, [r7, #1180]
 4360 00b0 1868     		ldr	r0, [r3]
 4361 00b2 FFF7FEFF 		bl	mbedtls_rsa_public
 4362 00b6 0346     		mov	r3, r0
 4363 00b8 0FE0     		b	.L351
 4364              	.L350:
 4365              		.loc 1 1366 0 discriminator 2
 4366 00ba 3A1D     		adds	r2, r7, #4
 4367 00bc 07F10801 		add	r1, r7, #8
 4368 00c0 07F10C00 		add	r0, r7, #12
 4369 00c4 07F16003 		add	r3, r7, #96
 4370 00c8 0093     		str	r3, [sp]
 4371 00ca D7F89C34 		ldr	r3, [r7, #1180]
 4372 00ce 1268     		ldr	r2, [r2]
 4373 00d0 0968     		ldr	r1, [r1]
 4374 00d2 0068     		ldr	r0, [r0]
 4375 00d4 FFF7FEFF 		bl	mbedtls_rsa_private
 4376 00d8 0346     		mov	r3, r0
 4377              	.L351:
1364:C:/Users/dtjld/workspace/AIoT/src/LiteOS_Lab/iot_link/network/dtls/mbedtls/mbedtls-2.16.2/library\rsa.c ****           ? mbedtls_rsa_public(  ctx, input, buf )
 4378              		.loc 1 1364 0 is_stmt 1
 4379 00da C7F87C34 		str	r3, [r7, #1148]
ARM GAS  C:\Users\dtjld\AppData\Local\Temp\cck1fUMg.s 			page 103


1367:C:/Users/dtjld/workspace/AIoT/src/LiteOS_Lab/iot_link/network/dtls/mbedtls/mbedtls-2.16.2/library\rsa.c **** 
1368:C:/Users/dtjld/workspace/AIoT/src/LiteOS_Lab/iot_link/network/dtls/mbedtls/mbedtls-2.16.2/library\rsa.c ****     if( ret != 0 )
 4380              		.loc 1 1368 0
 4381 00de D7F87C34 		ldr	r3, [r7, #1148]
 4382 00e2 002B     		cmp	r3, #0
 4383 00e4 40F02E81 		bne	.L365
1369:C:/Users/dtjld/workspace/AIoT/src/LiteOS_Lab/iot_link/network/dtls/mbedtls/mbedtls-2.16.2/library\rsa.c ****         goto cleanup;
1370:C:/Users/dtjld/workspace/AIoT/src/LiteOS_Lab/iot_link/network/dtls/mbedtls/mbedtls-2.16.2/library\rsa.c **** 
1371:C:/Users/dtjld/workspace/AIoT/src/LiteOS_Lab/iot_link/network/dtls/mbedtls/mbedtls-2.16.2/library\rsa.c ****     /*
1372:C:/Users/dtjld/workspace/AIoT/src/LiteOS_Lab/iot_link/network/dtls/mbedtls/mbedtls-2.16.2/library\rsa.c ****      * Unmask data and generate lHash
1373:C:/Users/dtjld/workspace/AIoT/src/LiteOS_Lab/iot_link/network/dtls/mbedtls/mbedtls-2.16.2/library\rsa.c ****      */
1374:C:/Users/dtjld/workspace/AIoT/src/LiteOS_Lab/iot_link/network/dtls/mbedtls/mbedtls-2.16.2/library\rsa.c ****     mbedtls_md_init( &md_ctx );
 4384              		.loc 1 1374 0
 4385 00e8 07F11403 		add	r3, r7, #20
 4386 00ec 1846     		mov	r0, r3
 4387 00ee FFF7FEFF 		bl	mbedtls_md_init
1375:C:/Users/dtjld/workspace/AIoT/src/LiteOS_Lab/iot_link/network/dtls/mbedtls/mbedtls-2.16.2/library\rsa.c ****     if( ( ret = mbedtls_md_setup( &md_ctx, md_info, 0 ) ) != 0 )
 4388              		.loc 1 1375 0
 4389 00f2 07F11403 		add	r3, r7, #20
 4390 00f6 0022     		movs	r2, #0
 4391 00f8 D7F86414 		ldr	r1, [r7, #1124]
 4392 00fc 1846     		mov	r0, r3
 4393 00fe FFF7FEFF 		bl	mbedtls_md_setup
 4394 0102 C7F87C04 		str	r0, [r7, #1148]
 4395 0106 D7F87C34 		ldr	r3, [r7, #1148]
 4396 010a 002B     		cmp	r3, #0
 4397 010c 05D0     		beq	.L354
1376:C:/Users/dtjld/workspace/AIoT/src/LiteOS_Lab/iot_link/network/dtls/mbedtls/mbedtls-2.16.2/library\rsa.c ****     {
1377:C:/Users/dtjld/workspace/AIoT/src/LiteOS_Lab/iot_link/network/dtls/mbedtls/mbedtls-2.16.2/library\rsa.c ****         mbedtls_md_free( &md_ctx );
 4398              		.loc 1 1377 0
 4399 010e 07F11403 		add	r3, r7, #20
 4400 0112 1846     		mov	r0, r3
 4401 0114 FFF7FEFF 		bl	mbedtls_md_free
1378:C:/Users/dtjld/workspace/AIoT/src/LiteOS_Lab/iot_link/network/dtls/mbedtls/mbedtls-2.16.2/library\rsa.c ****         goto cleanup;
 4402              		.loc 1 1378 0
 4403 0118 17E1     		b	.L353
 4404              	.L354:
1379:C:/Users/dtjld/workspace/AIoT/src/LiteOS_Lab/iot_link/network/dtls/mbedtls/mbedtls-2.16.2/library\rsa.c ****     }
1380:C:/Users/dtjld/workspace/AIoT/src/LiteOS_Lab/iot_link/network/dtls/mbedtls/mbedtls-2.16.2/library\rsa.c **** 
1381:C:/Users/dtjld/workspace/AIoT/src/LiteOS_Lab/iot_link/network/dtls/mbedtls/mbedtls-2.16.2/library\rsa.c ****     /* seed: Apply seedMask to maskedSeed */
1382:C:/Users/dtjld/workspace/AIoT/src/LiteOS_Lab/iot_link/network/dtls/mbedtls/mbedtls-2.16.2/library\rsa.c ****     if( ( ret = mgf_mask( buf + 1, hlen, buf + hlen + 1, ilen - hlen - 1,
 4405              		.loc 1 1382 0
 4406 011a 07F16000 		add	r0, r7, #96
 4407 011e 0130     		adds	r0, r0, #1
 4408 0120 D7F86034 		ldr	r3, [r7, #1120]
 4409 0124 0133     		adds	r3, r3, #1
 4410 0126 07F16002 		add	r2, r7, #96
 4411 012a D118     		adds	r1, r2, r3
 4412 012c D7F86824 		ldr	r2, [r7, #1128]
 4413 0130 D7F86034 		ldr	r3, [r7, #1120]
 4414 0134 D31A     		subs	r3, r2, r3
 4415 0136 5A1E     		subs	r2, r3, #1
 4416 0138 07F11403 		add	r3, r7, #20
 4417 013c 0093     		str	r3, [sp]
 4418 013e 1346     		mov	r3, r2
 4419 0140 0A46     		mov	r2, r1
 4420 0142 D7F86014 		ldr	r1, [r7, #1120]
ARM GAS  C:\Users\dtjld\AppData\Local\Temp\cck1fUMg.s 			page 104


 4421 0146 FFF7FEFF 		bl	mgf_mask
 4422 014a C7F87C04 		str	r0, [r7, #1148]
 4423 014e D7F87C34 		ldr	r3, [r7, #1148]
 4424 0152 002B     		cmp	r3, #0
 4425 0154 1BD1     		bne	.L355
1383:C:/Users/dtjld/workspace/AIoT/src/LiteOS_Lab/iot_link/network/dtls/mbedtls/mbedtls-2.16.2/library\rsa.c ****                           &md_ctx ) ) != 0 ||
1384:C:/Users/dtjld/workspace/AIoT/src/LiteOS_Lab/iot_link/network/dtls/mbedtls/mbedtls-2.16.2/library\rsa.c ****     /* DB: Apply dbMask to maskedDB */
1385:C:/Users/dtjld/workspace/AIoT/src/LiteOS_Lab/iot_link/network/dtls/mbedtls/mbedtls-2.16.2/library\rsa.c ****         ( ret = mgf_mask( buf + hlen + 1, ilen - hlen - 1, buf + 1, hlen,
 4426              		.loc 1 1385 0
 4427 0156 D7F86034 		ldr	r3, [r7, #1120]
 4428 015a 0133     		adds	r3, r3, #1
 4429 015c 07F16002 		add	r2, r7, #96
 4430 0160 D018     		adds	r0, r2, r3
 4431 0162 D7F86824 		ldr	r2, [r7, #1128]
 4432 0166 D7F86034 		ldr	r3, [r7, #1120]
 4433 016a D31A     		subs	r3, r2, r3
 4434 016c 591E     		subs	r1, r3, #1
 4435 016e 07F16002 		add	r2, r7, #96
 4436 0172 0132     		adds	r2, r2, #1
1383:C:/Users/dtjld/workspace/AIoT/src/LiteOS_Lab/iot_link/network/dtls/mbedtls/mbedtls-2.16.2/library\rsa.c ****                           &md_ctx ) ) != 0 ||
 4437              		.loc 1 1383 0
 4438 0174 07F11403 		add	r3, r7, #20
 4439 0178 0093     		str	r3, [sp]
 4440 017a D7F86034 		ldr	r3, [r7, #1120]
 4441 017e FFF7FEFF 		bl	mgf_mask
 4442 0182 C7F87C04 		str	r0, [r7, #1148]
 4443 0186 D7F87C34 		ldr	r3, [r7, #1148]
 4444 018a 002B     		cmp	r3, #0
 4445 018c 05D0     		beq	.L356
 4446              	.L355:
1386:C:/Users/dtjld/workspace/AIoT/src/LiteOS_Lab/iot_link/network/dtls/mbedtls/mbedtls-2.16.2/library\rsa.c ****                           &md_ctx ) ) != 0 )
1387:C:/Users/dtjld/workspace/AIoT/src/LiteOS_Lab/iot_link/network/dtls/mbedtls/mbedtls-2.16.2/library\rsa.c ****     {
1388:C:/Users/dtjld/workspace/AIoT/src/LiteOS_Lab/iot_link/network/dtls/mbedtls/mbedtls-2.16.2/library\rsa.c ****         mbedtls_md_free( &md_ctx );
 4447              		.loc 1 1388 0
 4448 018e 07F11403 		add	r3, r7, #20
 4449 0192 1846     		mov	r0, r3
 4450 0194 FFF7FEFF 		bl	mbedtls_md_free
1389:C:/Users/dtjld/workspace/AIoT/src/LiteOS_Lab/iot_link/network/dtls/mbedtls/mbedtls-2.16.2/library\rsa.c ****         goto cleanup;
 4451              		.loc 1 1389 0
 4452 0198 D7E0     		b	.L353
 4453              	.L356:
1390:C:/Users/dtjld/workspace/AIoT/src/LiteOS_Lab/iot_link/network/dtls/mbedtls/mbedtls-2.16.2/library\rsa.c ****     }
1391:C:/Users/dtjld/workspace/AIoT/src/LiteOS_Lab/iot_link/network/dtls/mbedtls/mbedtls-2.16.2/library\rsa.c **** 
1392:C:/Users/dtjld/workspace/AIoT/src/LiteOS_Lab/iot_link/network/dtls/mbedtls/mbedtls-2.16.2/library\rsa.c ****     mbedtls_md_free( &md_ctx );
 4454              		.loc 1 1392 0
 4455 019a 07F11403 		add	r3, r7, #20
 4456 019e 1846     		mov	r0, r3
 4457 01a0 FFF7FEFF 		bl	mbedtls_md_free
1393:C:/Users/dtjld/workspace/AIoT/src/LiteOS_Lab/iot_link/network/dtls/mbedtls/mbedtls-2.16.2/library\rsa.c **** 
1394:C:/Users/dtjld/workspace/AIoT/src/LiteOS_Lab/iot_link/network/dtls/mbedtls/mbedtls-2.16.2/library\rsa.c ****     /* Generate lHash */
1395:C:/Users/dtjld/workspace/AIoT/src/LiteOS_Lab/iot_link/network/dtls/mbedtls/mbedtls-2.16.2/library\rsa.c ****     if( ( ret = mbedtls_md( md_info, label, label_len, lhash ) ) != 0 )
 4458              		.loc 1 1395 0
 4459 01a4 07F12003 		add	r3, r7, #32
 4460 01a8 D7F89424 		ldr	r2, [r7, #1172]
 4461 01ac D7F89014 		ldr	r1, [r7, #1168]
 4462 01b0 D7F86404 		ldr	r0, [r7, #1124]
 4463 01b4 FFF7FEFF 		bl	mbedtls_md
ARM GAS  C:\Users\dtjld\AppData\Local\Temp\cck1fUMg.s 			page 105


 4464 01b8 C7F87C04 		str	r0, [r7, #1148]
 4465 01bc D7F87C34 		ldr	r3, [r7, #1148]
 4466 01c0 002B     		cmp	r3, #0
 4467 01c2 40F0C180 		bne	.L366
1396:C:/Users/dtjld/workspace/AIoT/src/LiteOS_Lab/iot_link/network/dtls/mbedtls/mbedtls-2.16.2/library\rsa.c ****         goto cleanup;
1397:C:/Users/dtjld/workspace/AIoT/src/LiteOS_Lab/iot_link/network/dtls/mbedtls/mbedtls-2.16.2/library\rsa.c **** 
1398:C:/Users/dtjld/workspace/AIoT/src/LiteOS_Lab/iot_link/network/dtls/mbedtls/mbedtls-2.16.2/library\rsa.c ****     /*
1399:C:/Users/dtjld/workspace/AIoT/src/LiteOS_Lab/iot_link/network/dtls/mbedtls/mbedtls-2.16.2/library\rsa.c ****      * Check contents, in "constant-time"
1400:C:/Users/dtjld/workspace/AIoT/src/LiteOS_Lab/iot_link/network/dtls/mbedtls/mbedtls-2.16.2/library\rsa.c ****      */
1401:C:/Users/dtjld/workspace/AIoT/src/LiteOS_Lab/iot_link/network/dtls/mbedtls/mbedtls-2.16.2/library\rsa.c ****     p = buf;
 4468              		.loc 1 1401 0
 4469 01c6 07F16003 		add	r3, r7, #96
 4470 01ca C7F87034 		str	r3, [r7, #1136]
1402:C:/Users/dtjld/workspace/AIoT/src/LiteOS_Lab/iot_link/network/dtls/mbedtls/mbedtls-2.16.2/library\rsa.c ****     bad = 0;
 4471              		.loc 1 1402 0
 4472 01ce 0023     		movs	r3, #0
 4473 01d0 87F86F34 		strb	r3, [r7, #1135]
1403:C:/Users/dtjld/workspace/AIoT/src/LiteOS_Lab/iot_link/network/dtls/mbedtls/mbedtls-2.16.2/library\rsa.c **** 
1404:C:/Users/dtjld/workspace/AIoT/src/LiteOS_Lab/iot_link/network/dtls/mbedtls/mbedtls-2.16.2/library\rsa.c ****     bad |= *p++; /* First byte must be 0 */
 4474              		.loc 1 1404 0
 4475 01d4 D7F87034 		ldr	r3, [r7, #1136]
 4476 01d8 5A1C     		adds	r2, r3, #1
 4477 01da C7F87024 		str	r2, [r7, #1136]
 4478 01de 1A78     		ldrb	r2, [r3]	@ zero_extendqisi2
 4479 01e0 97F86F34 		ldrb	r3, [r7, #1135]
 4480 01e4 1343     		orrs	r3, r3, r2
 4481 01e6 87F86F34 		strb	r3, [r7, #1135]
1405:C:/Users/dtjld/workspace/AIoT/src/LiteOS_Lab/iot_link/network/dtls/mbedtls/mbedtls-2.16.2/library\rsa.c **** 
1406:C:/Users/dtjld/workspace/AIoT/src/LiteOS_Lab/iot_link/network/dtls/mbedtls/mbedtls-2.16.2/library\rsa.c ****     p += hlen; /* Skip seed */
 4482              		.loc 1 1406 0
 4483 01ea D7F87024 		ldr	r2, [r7, #1136]
 4484 01ee D7F86034 		ldr	r3, [r7, #1120]
 4485 01f2 1344     		add	r3, r3, r2
 4486 01f4 C7F87034 		str	r3, [r7, #1136]
1407:C:/Users/dtjld/workspace/AIoT/src/LiteOS_Lab/iot_link/network/dtls/mbedtls/mbedtls-2.16.2/library\rsa.c **** 
1408:C:/Users/dtjld/workspace/AIoT/src/LiteOS_Lab/iot_link/network/dtls/mbedtls/mbedtls-2.16.2/library\rsa.c ****     /* Check lHash */
1409:C:/Users/dtjld/workspace/AIoT/src/LiteOS_Lab/iot_link/network/dtls/mbedtls/mbedtls-2.16.2/library\rsa.c ****     for( i = 0; i < hlen; i++ )
 4487              		.loc 1 1409 0
 4488 01f8 0023     		movs	r3, #0
 4489 01fa C7F87834 		str	r3, [r7, #1144]
 4490 01fe 19E0     		b	.L358
 4491              	.L359:
1410:C:/Users/dtjld/workspace/AIoT/src/LiteOS_Lab/iot_link/network/dtls/mbedtls/mbedtls-2.16.2/library\rsa.c ****         bad |= lhash[i] ^ *p++;
 4492              		.loc 1 1410 0 discriminator 3
 4493 0200 07F12002 		add	r2, r7, #32
 4494 0204 D7F87834 		ldr	r3, [r7, #1144]
 4495 0208 1344     		add	r3, r3, r2
 4496 020a 1A78     		ldrb	r2, [r3]	@ zero_extendqisi2
 4497 020c D7F87034 		ldr	r3, [r7, #1136]
 4498 0210 591C     		adds	r1, r3, #1
 4499 0212 C7F87014 		str	r1, [r7, #1136]
 4500 0216 1B78     		ldrb	r3, [r3]	@ zero_extendqisi2
 4501 0218 5340     		eors	r3, r3, r2
 4502 021a DBB2     		uxtb	r3, r3
 4503 021c 5AB2     		sxtb	r2, r3
 4504 021e 97F96F34 		ldrsb	r3, [r7, #1135]
 4505 0222 1343     		orrs	r3, r3, r2
ARM GAS  C:\Users\dtjld\AppData\Local\Temp\cck1fUMg.s 			page 106


 4506 0224 5BB2     		sxtb	r3, r3
 4507 0226 87F86F34 		strb	r3, [r7, #1135]
1409:C:/Users/dtjld/workspace/AIoT/src/LiteOS_Lab/iot_link/network/dtls/mbedtls/mbedtls-2.16.2/library\rsa.c ****         bad |= lhash[i] ^ *p++;
 4508              		.loc 1 1409 0 discriminator 3
 4509 022a D7F87834 		ldr	r3, [r7, #1144]
 4510 022e 0133     		adds	r3, r3, #1
 4511 0230 C7F87834 		str	r3, [r7, #1144]
 4512              	.L358:
1409:C:/Users/dtjld/workspace/AIoT/src/LiteOS_Lab/iot_link/network/dtls/mbedtls/mbedtls-2.16.2/library\rsa.c ****         bad |= lhash[i] ^ *p++;
 4513              		.loc 1 1409 0 is_stmt 0 discriminator 1
 4514 0234 D7F87824 		ldr	r2, [r7, #1144]
 4515 0238 D7F86034 		ldr	r3, [r7, #1120]
 4516 023c 9A42     		cmp	r2, r3
 4517 023e DFD3     		bcc	.L359
1411:C:/Users/dtjld/workspace/AIoT/src/LiteOS_Lab/iot_link/network/dtls/mbedtls/mbedtls-2.16.2/library\rsa.c **** 
1412:C:/Users/dtjld/workspace/AIoT/src/LiteOS_Lab/iot_link/network/dtls/mbedtls/mbedtls-2.16.2/library\rsa.c ****     /* Get zero-padding len, but always read till end of buffer
1413:C:/Users/dtjld/workspace/AIoT/src/LiteOS_Lab/iot_link/network/dtls/mbedtls/mbedtls-2.16.2/library\rsa.c ****      * (minus one, for the 01 byte) */
1414:C:/Users/dtjld/workspace/AIoT/src/LiteOS_Lab/iot_link/network/dtls/mbedtls/mbedtls-2.16.2/library\rsa.c ****     pad_len = 0;
 4518              		.loc 1 1414 0 is_stmt 1
 4519 0240 0023     		movs	r3, #0
 4520 0242 C7F87434 		str	r3, [r7, #1140]
1415:C:/Users/dtjld/workspace/AIoT/src/LiteOS_Lab/iot_link/network/dtls/mbedtls/mbedtls-2.16.2/library\rsa.c ****     pad_done = 0;
 4521              		.loc 1 1415 0
 4522 0246 0023     		movs	r3, #0
 4523 0248 87F86E34 		strb	r3, [r7, #1134]
1416:C:/Users/dtjld/workspace/AIoT/src/LiteOS_Lab/iot_link/network/dtls/mbedtls/mbedtls-2.16.2/library\rsa.c ****     for( i = 0; i < ilen - 2 * hlen - 2; i++ )
 4524              		.loc 1 1416 0
 4525 024c 0023     		movs	r3, #0
 4526 024e C7F87834 		str	r3, [r7, #1144]
 4527 0252 22E0     		b	.L360
 4528              	.L361:
1417:C:/Users/dtjld/workspace/AIoT/src/LiteOS_Lab/iot_link/network/dtls/mbedtls/mbedtls-2.16.2/library\rsa.c ****     {
1418:C:/Users/dtjld/workspace/AIoT/src/LiteOS_Lab/iot_link/network/dtls/mbedtls/mbedtls-2.16.2/library\rsa.c ****         pad_done |= p[i];
 4529              		.loc 1 1418 0 discriminator 3
 4530 0254 D7F87024 		ldr	r2, [r7, #1136]
 4531 0258 D7F87834 		ldr	r3, [r7, #1144]
 4532 025c 1344     		add	r3, r3, r2
 4533 025e 1A78     		ldrb	r2, [r3]	@ zero_extendqisi2
 4534 0260 97F86E34 		ldrb	r3, [r7, #1134]
 4535 0264 1343     		orrs	r3, r3, r2
 4536 0266 87F86E34 		strb	r3, [r7, #1134]
1419:C:/Users/dtjld/workspace/AIoT/src/LiteOS_Lab/iot_link/network/dtls/mbedtls/mbedtls-2.16.2/library\rsa.c ****         pad_len += ((pad_done | (unsigned char)-pad_done) >> 7) ^ 1;
 4537              		.loc 1 1419 0 discriminator 3
 4538 026a 97F86E34 		ldrb	r3, [r7, #1134]
 4539 026e 5B42     		negs	r3, r3
 4540 0270 DAB2     		uxtb	r2, r3
 4541 0272 97F86E34 		ldrb	r3, [r7, #1134]
 4542 0276 1343     		orrs	r3, r3, r2
 4543 0278 DBB2     		uxtb	r3, r3
 4544 027a DB09     		lsrs	r3, r3, #7
 4545 027c DBB2     		uxtb	r3, r3
 4546 027e 83F00103 		eor	r3, r3, #1
 4547 0282 DBB2     		uxtb	r3, r3
 4548 0284 1A46     		mov	r2, r3
 4549 0286 D7F87434 		ldr	r3, [r7, #1140]
 4550 028a 1344     		add	r3, r3, r2
 4551 028c C7F87434 		str	r3, [r7, #1140]
ARM GAS  C:\Users\dtjld\AppData\Local\Temp\cck1fUMg.s 			page 107


1416:C:/Users/dtjld/workspace/AIoT/src/LiteOS_Lab/iot_link/network/dtls/mbedtls/mbedtls-2.16.2/library\rsa.c ****     for( i = 0; i < ilen - 2 * hlen - 2; i++ )
 4552              		.loc 1 1416 0 discriminator 3
 4553 0290 D7F87834 		ldr	r3, [r7, #1144]
 4554 0294 0133     		adds	r3, r3, #1
 4555 0296 C7F87834 		str	r3, [r7, #1144]
 4556              	.L360:
1416:C:/Users/dtjld/workspace/AIoT/src/LiteOS_Lab/iot_link/network/dtls/mbedtls/mbedtls-2.16.2/library\rsa.c ****     for( i = 0; i < ilen - 2 * hlen - 2; i++ )
 4557              		.loc 1 1416 0 is_stmt 0 discriminator 1
 4558 029a D7F86034 		ldr	r3, [r7, #1120]
 4559 029e 5B00     		lsls	r3, r3, #1
 4560 02a0 D7F86824 		ldr	r2, [r7, #1128]
 4561 02a4 D31A     		subs	r3, r2, r3
 4562 02a6 023B     		subs	r3, r3, #2
 4563 02a8 D7F87824 		ldr	r2, [r7, #1144]
 4564 02ac 9A42     		cmp	r2, r3
 4565 02ae D1D3     		bcc	.L361
1420:C:/Users/dtjld/workspace/AIoT/src/LiteOS_Lab/iot_link/network/dtls/mbedtls/mbedtls-2.16.2/library\rsa.c ****     }
1421:C:/Users/dtjld/workspace/AIoT/src/LiteOS_Lab/iot_link/network/dtls/mbedtls/mbedtls-2.16.2/library\rsa.c **** 
1422:C:/Users/dtjld/workspace/AIoT/src/LiteOS_Lab/iot_link/network/dtls/mbedtls/mbedtls-2.16.2/library\rsa.c ****     p += pad_len;
 4566              		.loc 1 1422 0 is_stmt 1
 4567 02b0 D7F87024 		ldr	r2, [r7, #1136]
 4568 02b4 D7F87434 		ldr	r3, [r7, #1140]
 4569 02b8 1344     		add	r3, r3, r2
 4570 02ba C7F87034 		str	r3, [r7, #1136]
1423:C:/Users/dtjld/workspace/AIoT/src/LiteOS_Lab/iot_link/network/dtls/mbedtls/mbedtls-2.16.2/library\rsa.c ****     bad |= *p++ ^ 0x01;
 4571              		.loc 1 1423 0
 4572 02be D7F87034 		ldr	r3, [r7, #1136]
 4573 02c2 5A1C     		adds	r2, r3, #1
 4574 02c4 C7F87024 		str	r2, [r7, #1136]
 4575 02c8 1B78     		ldrb	r3, [r3]	@ zero_extendqisi2
 4576 02ca 83F00103 		eor	r3, r3, #1
 4577 02ce DBB2     		uxtb	r3, r3
 4578 02d0 5AB2     		sxtb	r2, r3
 4579 02d2 97F96F34 		ldrsb	r3, [r7, #1135]
 4580 02d6 1343     		orrs	r3, r3, r2
 4581 02d8 5BB2     		sxtb	r3, r3
 4582 02da 87F86F34 		strb	r3, [r7, #1135]
1424:C:/Users/dtjld/workspace/AIoT/src/LiteOS_Lab/iot_link/network/dtls/mbedtls/mbedtls-2.16.2/library\rsa.c **** 
1425:C:/Users/dtjld/workspace/AIoT/src/LiteOS_Lab/iot_link/network/dtls/mbedtls/mbedtls-2.16.2/library\rsa.c ****     /*
1426:C:/Users/dtjld/workspace/AIoT/src/LiteOS_Lab/iot_link/network/dtls/mbedtls/mbedtls-2.16.2/library\rsa.c ****      * The only information "leaked" is whether the padding was correct or not
1427:C:/Users/dtjld/workspace/AIoT/src/LiteOS_Lab/iot_link/network/dtls/mbedtls/mbedtls-2.16.2/library\rsa.c ****      * (eg, no data is copied if it was not correct). This meets the
1428:C:/Users/dtjld/workspace/AIoT/src/LiteOS_Lab/iot_link/network/dtls/mbedtls/mbedtls-2.16.2/library\rsa.c ****      * recommendations in PKCS#1 v2.2: an opponent cannot distinguish between
1429:C:/Users/dtjld/workspace/AIoT/src/LiteOS_Lab/iot_link/network/dtls/mbedtls/mbedtls-2.16.2/library\rsa.c ****      * the different error conditions.
1430:C:/Users/dtjld/workspace/AIoT/src/LiteOS_Lab/iot_link/network/dtls/mbedtls/mbedtls-2.16.2/library\rsa.c ****      */
1431:C:/Users/dtjld/workspace/AIoT/src/LiteOS_Lab/iot_link/network/dtls/mbedtls/mbedtls-2.16.2/library\rsa.c ****     if( bad != 0 )
 4583              		.loc 1 1431 0
 4584 02de 97F86F34 		ldrb	r3, [r7, #1135]	@ zero_extendqisi2
 4585 02e2 002B     		cmp	r3, #0
 4586 02e4 03D0     		beq	.L362
1432:C:/Users/dtjld/workspace/AIoT/src/LiteOS_Lab/iot_link/network/dtls/mbedtls/mbedtls-2.16.2/library\rsa.c ****     {
1433:C:/Users/dtjld/workspace/AIoT/src/LiteOS_Lab/iot_link/network/dtls/mbedtls/mbedtls-2.16.2/library\rsa.c ****         ret = MBEDTLS_ERR_RSA_INVALID_PADDING;
 4587              		.loc 1 1433 0
 4588 02e6 244B     		ldr	r3, .L367+4
 4589 02e8 C7F87C34 		str	r3, [r7, #1148]
1434:C:/Users/dtjld/workspace/AIoT/src/LiteOS_Lab/iot_link/network/dtls/mbedtls/mbedtls-2.16.2/library\rsa.c ****         goto cleanup;
 4590              		.loc 1 1434 0
 4591 02ec 2DE0     		b	.L353
ARM GAS  C:\Users\dtjld\AppData\Local\Temp\cck1fUMg.s 			page 108


 4592              	.L362:
1435:C:/Users/dtjld/workspace/AIoT/src/LiteOS_Lab/iot_link/network/dtls/mbedtls/mbedtls-2.16.2/library\rsa.c ****     }
1436:C:/Users/dtjld/workspace/AIoT/src/LiteOS_Lab/iot_link/network/dtls/mbedtls/mbedtls-2.16.2/library\rsa.c **** 
1437:C:/Users/dtjld/workspace/AIoT/src/LiteOS_Lab/iot_link/network/dtls/mbedtls/mbedtls-2.16.2/library\rsa.c ****     if( ilen - ( p - buf ) > output_max_len )
 4593              		.loc 1 1437 0
 4594 02ee D7F87024 		ldr	r2, [r7, #1136]
 4595 02f2 07F16003 		add	r3, r7, #96
 4596 02f6 D31A     		subs	r3, r2, r3
 4597 02f8 1A46     		mov	r2, r3
 4598 02fa D7F86834 		ldr	r3, [r7, #1128]
 4599 02fe 9B1A     		subs	r3, r3, r2
 4600 0300 D7F8A424 		ldr	r2, [r7, #1188]
 4601 0304 9A42     		cmp	r2, r3
 4602 0306 03D2     		bcs	.L363
1438:C:/Users/dtjld/workspace/AIoT/src/LiteOS_Lab/iot_link/network/dtls/mbedtls/mbedtls-2.16.2/library\rsa.c ****     {
1439:C:/Users/dtjld/workspace/AIoT/src/LiteOS_Lab/iot_link/network/dtls/mbedtls/mbedtls-2.16.2/library\rsa.c ****         ret = MBEDTLS_ERR_RSA_OUTPUT_TOO_LARGE;
 4603              		.loc 1 1439 0
 4604 0308 1C4B     		ldr	r3, .L367+8
 4605 030a C7F87C34 		str	r3, [r7, #1148]
1440:C:/Users/dtjld/workspace/AIoT/src/LiteOS_Lab/iot_link/network/dtls/mbedtls/mbedtls-2.16.2/library\rsa.c ****         goto cleanup;
 4606              		.loc 1 1440 0
 4607 030e 1CE0     		b	.L353
 4608              	.L363:
1441:C:/Users/dtjld/workspace/AIoT/src/LiteOS_Lab/iot_link/network/dtls/mbedtls/mbedtls-2.16.2/library\rsa.c ****     }
1442:C:/Users/dtjld/workspace/AIoT/src/LiteOS_Lab/iot_link/network/dtls/mbedtls/mbedtls-2.16.2/library\rsa.c **** 
1443:C:/Users/dtjld/workspace/AIoT/src/LiteOS_Lab/iot_link/network/dtls/mbedtls/mbedtls-2.16.2/library\rsa.c ****     *olen = ilen - (p - buf);
 4609              		.loc 1 1443 0
 4610 0310 D7F87024 		ldr	r2, [r7, #1136]
 4611 0314 07F16003 		add	r3, r7, #96
 4612 0318 D31A     		subs	r3, r2, r3
 4613 031a 1A46     		mov	r2, r3
 4614 031c D7F86834 		ldr	r3, [r7, #1128]
 4615 0320 9A1A     		subs	r2, r3, r2
 4616 0322 D7F89834 		ldr	r3, [r7, #1176]
 4617 0326 1A60     		str	r2, [r3]
1444:C:/Users/dtjld/workspace/AIoT/src/LiteOS_Lab/iot_link/network/dtls/mbedtls/mbedtls-2.16.2/library\rsa.c ****     memcpy( output, p, *olen );
 4618              		.loc 1 1444 0
 4619 0328 D7F89834 		ldr	r3, [r7, #1176]
 4620 032c 1B68     		ldr	r3, [r3]
 4621 032e 1A46     		mov	r2, r3
 4622 0330 D7F87014 		ldr	r1, [r7, #1136]
 4623 0334 D7F8A004 		ldr	r0, [r7, #1184]
 4624 0338 FFF7FEFF 		bl	memcpy
1445:C:/Users/dtjld/workspace/AIoT/src/LiteOS_Lab/iot_link/network/dtls/mbedtls/mbedtls-2.16.2/library\rsa.c ****     ret = 0;
 4625              		.loc 1 1445 0
 4626 033c 0023     		movs	r3, #0
 4627 033e C7F87C34 		str	r3, [r7, #1148]
 4628 0342 02E0     		b	.L353
 4629              	.L365:
1369:C:/Users/dtjld/workspace/AIoT/src/LiteOS_Lab/iot_link/network/dtls/mbedtls/mbedtls-2.16.2/library\rsa.c **** 
 4630              		.loc 1 1369 0
 4631 0344 00BF     		nop
 4632 0346 00E0     		b	.L353
 4633              	.L366:
1396:C:/Users/dtjld/workspace/AIoT/src/LiteOS_Lab/iot_link/network/dtls/mbedtls/mbedtls-2.16.2/library\rsa.c **** 
 4634              		.loc 1 1396 0
 4635 0348 00BF     		nop
ARM GAS  C:\Users\dtjld\AppData\Local\Temp\cck1fUMg.s 			page 109


 4636              	.L353:
1446:C:/Users/dtjld/workspace/AIoT/src/LiteOS_Lab/iot_link/network/dtls/mbedtls/mbedtls-2.16.2/library\rsa.c **** 
1447:C:/Users/dtjld/workspace/AIoT/src/LiteOS_Lab/iot_link/network/dtls/mbedtls/mbedtls-2.16.2/library\rsa.c **** cleanup:
1448:C:/Users/dtjld/workspace/AIoT/src/LiteOS_Lab/iot_link/network/dtls/mbedtls/mbedtls-2.16.2/library\rsa.c ****     mbedtls_platform_zeroize( buf, sizeof( buf ) );
 4637              		.loc 1 1448 0
 4638 034a 07F16003 		add	r3, r7, #96
 4639 034e 4FF48061 		mov	r1, #1024
 4640 0352 1846     		mov	r0, r3
 4641 0354 FFF7FEFF 		bl	mbedtls_platform_zeroize
1449:C:/Users/dtjld/workspace/AIoT/src/LiteOS_Lab/iot_link/network/dtls/mbedtls/mbedtls-2.16.2/library\rsa.c ****     mbedtls_platform_zeroize( lhash, sizeof( lhash ) );
 4642              		.loc 1 1449 0
 4643 0358 07F12003 		add	r3, r7, #32
 4644 035c 4021     		movs	r1, #64
 4645 035e 1846     		mov	r0, r3
 4646 0360 FFF7FEFF 		bl	mbedtls_platform_zeroize
1450:C:/Users/dtjld/workspace/AIoT/src/LiteOS_Lab/iot_link/network/dtls/mbedtls/mbedtls-2.16.2/library\rsa.c **** 
1451:C:/Users/dtjld/workspace/AIoT/src/LiteOS_Lab/iot_link/network/dtls/mbedtls/mbedtls-2.16.2/library\rsa.c ****     return( ret );
 4647              		.loc 1 1451 0
 4648 0364 D7F87C34 		ldr	r3, [r7, #1148]
 4649              	.L364:
1452:C:/Users/dtjld/workspace/AIoT/src/LiteOS_Lab/iot_link/network/dtls/mbedtls/mbedtls-2.16.2/library\rsa.c **** }
 4650              		.loc 1 1452 0 discriminator 1
 4651 0368 1846     		mov	r0, r3
 4652 036a 07F28447 		addw	r7, r7, #1156
 4653              	.LCFI116:
 4654              		.cfi_def_cfa_offset 12
 4655 036e BD46     		mov	sp, r7
 4656              	.LCFI117:
 4657              		.cfi_def_cfa_register 13
 4658              		@ sp needed
 4659 0370 90BD     		pop	{r4, r7, pc}
 4660              	.L368:
 4661 0372 00BF     		.align	2
 4662              	.L367:
 4663 0374 80BFFFFF 		.word	-16512
 4664 0378 00BFFFFF 		.word	-16640
 4665 037c 00BCFFFF 		.word	-17408
 4666              		.cfi_endproc
 4667              	.LFE35:
 4669              		.section	.text.all_or_nothing_int,"ax",%progbits
 4670              		.align	1
 4671              		.syntax unified
 4672              		.thumb
 4673              		.thumb_func
 4674              		.fpu fpv4-sp-d16
 4676              	all_or_nothing_int:
 4677              	.LFB36:
1453:C:/Users/dtjld/workspace/AIoT/src/LiteOS_Lab/iot_link/network/dtls/mbedtls/mbedtls-2.16.2/library\rsa.c **** #endif /* MBEDTLS_PKCS1_V21 */
1454:C:/Users/dtjld/workspace/AIoT/src/LiteOS_Lab/iot_link/network/dtls/mbedtls/mbedtls-2.16.2/library\rsa.c **** 
1455:C:/Users/dtjld/workspace/AIoT/src/LiteOS_Lab/iot_link/network/dtls/mbedtls/mbedtls-2.16.2/library\rsa.c **** #if defined(MBEDTLS_PKCS1_V15)
1456:C:/Users/dtjld/workspace/AIoT/src/LiteOS_Lab/iot_link/network/dtls/mbedtls/mbedtls-2.16.2/library\rsa.c **** /** Turn zero-or-nonzero into zero-or-all-bits-one, without branches.
1457:C:/Users/dtjld/workspace/AIoT/src/LiteOS_Lab/iot_link/network/dtls/mbedtls/mbedtls-2.16.2/library\rsa.c ****  *
1458:C:/Users/dtjld/workspace/AIoT/src/LiteOS_Lab/iot_link/network/dtls/mbedtls/mbedtls-2.16.2/library\rsa.c ****  * \param value     The value to analyze.
1459:C:/Users/dtjld/workspace/AIoT/src/LiteOS_Lab/iot_link/network/dtls/mbedtls/mbedtls-2.16.2/library\rsa.c ****  * \return          Zero if \p value is zero, otherwise all-bits-one.
1460:C:/Users/dtjld/workspace/AIoT/src/LiteOS_Lab/iot_link/network/dtls/mbedtls/mbedtls-2.16.2/library\rsa.c ****  */
1461:C:/Users/dtjld/workspace/AIoT/src/LiteOS_Lab/iot_link/network/dtls/mbedtls/mbedtls-2.16.2/library\rsa.c **** static unsigned all_or_nothing_int( unsigned value )
1462:C:/Users/dtjld/workspace/AIoT/src/LiteOS_Lab/iot_link/network/dtls/mbedtls/mbedtls-2.16.2/library\rsa.c **** {
ARM GAS  C:\Users\dtjld\AppData\Local\Temp\cck1fUMg.s 			page 110


 4678              		.loc 1 1462 0
 4679              		.cfi_startproc
 4680              		@ args = 0, pretend = 0, frame = 8
 4681              		@ frame_needed = 1, uses_anonymous_args = 0
 4682              		@ link register save eliminated.
 4683 0000 80B4     		push	{r7}
 4684              	.LCFI118:
 4685              		.cfi_def_cfa_offset 4
 4686              		.cfi_offset 7, -4
 4687 0002 83B0     		sub	sp, sp, #12
 4688              	.LCFI119:
 4689              		.cfi_def_cfa_offset 16
 4690 0004 00AF     		add	r7, sp, #0
 4691              	.LCFI120:
 4692              		.cfi_def_cfa_register 7
 4693 0006 7860     		str	r0, [r7, #4]
1463:C:/Users/dtjld/workspace/AIoT/src/LiteOS_Lab/iot_link/network/dtls/mbedtls/mbedtls-2.16.2/library\rsa.c ****     /* MSVC has a warning about unary minus on unsigned, but this is
1464:C:/Users/dtjld/workspace/AIoT/src/LiteOS_Lab/iot_link/network/dtls/mbedtls/mbedtls-2.16.2/library\rsa.c ****      * well-defined and precisely what we want to do here */
1465:C:/Users/dtjld/workspace/AIoT/src/LiteOS_Lab/iot_link/network/dtls/mbedtls/mbedtls-2.16.2/library\rsa.c **** #if defined(_MSC_VER)
1466:C:/Users/dtjld/workspace/AIoT/src/LiteOS_Lab/iot_link/network/dtls/mbedtls/mbedtls-2.16.2/library\rsa.c **** #pragma warning( push )
1467:C:/Users/dtjld/workspace/AIoT/src/LiteOS_Lab/iot_link/network/dtls/mbedtls/mbedtls-2.16.2/library\rsa.c **** #pragma warning( disable : 4146 )
1468:C:/Users/dtjld/workspace/AIoT/src/LiteOS_Lab/iot_link/network/dtls/mbedtls/mbedtls-2.16.2/library\rsa.c **** #endif
1469:C:/Users/dtjld/workspace/AIoT/src/LiteOS_Lab/iot_link/network/dtls/mbedtls/mbedtls-2.16.2/library\rsa.c ****     return( - ( ( value | - value ) >> ( sizeof( value ) * 8 - 1 ) ) );
 4694              		.loc 1 1469 0
 4695 0008 7B68     		ldr	r3, [r7, #4]
 4696 000a 5A42     		negs	r2, r3
 4697 000c 7B68     		ldr	r3, [r7, #4]
 4698 000e 1343     		orrs	r3, r3, r2
 4699 0010 DB17     		asrs	r3, r3, #31
1470:C:/Users/dtjld/workspace/AIoT/src/LiteOS_Lab/iot_link/network/dtls/mbedtls/mbedtls-2.16.2/library\rsa.c **** #if defined(_MSC_VER)
1471:C:/Users/dtjld/workspace/AIoT/src/LiteOS_Lab/iot_link/network/dtls/mbedtls/mbedtls-2.16.2/library\rsa.c **** #pragma warning( pop )
1472:C:/Users/dtjld/workspace/AIoT/src/LiteOS_Lab/iot_link/network/dtls/mbedtls/mbedtls-2.16.2/library\rsa.c **** #endif
1473:C:/Users/dtjld/workspace/AIoT/src/LiteOS_Lab/iot_link/network/dtls/mbedtls/mbedtls-2.16.2/library\rsa.c **** }
 4700              		.loc 1 1473 0
 4701 0012 1846     		mov	r0, r3
 4702 0014 0C37     		adds	r7, r7, #12
 4703              	.LCFI121:
 4704              		.cfi_def_cfa_offset 4
 4705 0016 BD46     		mov	sp, r7
 4706              	.LCFI122:
 4707              		.cfi_def_cfa_register 13
 4708              		@ sp needed
 4709 0018 5DF8047B 		ldr	r7, [sp], #4
 4710              	.LCFI123:
 4711              		.cfi_restore 7
 4712              		.cfi_def_cfa_offset 0
 4713 001c 7047     		bx	lr
 4714              		.cfi_endproc
 4715              	.LFE36:
 4717              		.section	.text.size_greater_than,"ax",%progbits
 4718              		.align	1
 4719              		.syntax unified
 4720              		.thumb
 4721              		.thumb_func
 4722              		.fpu fpv4-sp-d16
 4724              	size_greater_than:
 4725              	.LFB37:
ARM GAS  C:\Users\dtjld\AppData\Local\Temp\cck1fUMg.s 			page 111


1474:C:/Users/dtjld/workspace/AIoT/src/LiteOS_Lab/iot_link/network/dtls/mbedtls/mbedtls-2.16.2/library\rsa.c **** 
1475:C:/Users/dtjld/workspace/AIoT/src/LiteOS_Lab/iot_link/network/dtls/mbedtls/mbedtls-2.16.2/library\rsa.c **** /** Check whether a size is out of bounds, without branches.
1476:C:/Users/dtjld/workspace/AIoT/src/LiteOS_Lab/iot_link/network/dtls/mbedtls/mbedtls-2.16.2/library\rsa.c ****  *
1477:C:/Users/dtjld/workspace/AIoT/src/LiteOS_Lab/iot_link/network/dtls/mbedtls/mbedtls-2.16.2/library\rsa.c ****  * This is equivalent to `size > max`, but is likely to be compiled to
1478:C:/Users/dtjld/workspace/AIoT/src/LiteOS_Lab/iot_link/network/dtls/mbedtls/mbedtls-2.16.2/library\rsa.c ****  * to code using bitwise operation rather than a branch.
1479:C:/Users/dtjld/workspace/AIoT/src/LiteOS_Lab/iot_link/network/dtls/mbedtls/mbedtls-2.16.2/library\rsa.c ****  *
1480:C:/Users/dtjld/workspace/AIoT/src/LiteOS_Lab/iot_link/network/dtls/mbedtls/mbedtls-2.16.2/library\rsa.c ****  * \param size      Size to check.
1481:C:/Users/dtjld/workspace/AIoT/src/LiteOS_Lab/iot_link/network/dtls/mbedtls/mbedtls-2.16.2/library\rsa.c ****  * \param max       Maximum desired value for \p size.
1482:C:/Users/dtjld/workspace/AIoT/src/LiteOS_Lab/iot_link/network/dtls/mbedtls/mbedtls-2.16.2/library\rsa.c ****  * \return          \c 0 if `size <= max`.
1483:C:/Users/dtjld/workspace/AIoT/src/LiteOS_Lab/iot_link/network/dtls/mbedtls/mbedtls-2.16.2/library\rsa.c ****  * \return          \c 1 if `size > max`.
1484:C:/Users/dtjld/workspace/AIoT/src/LiteOS_Lab/iot_link/network/dtls/mbedtls/mbedtls-2.16.2/library\rsa.c ****  */
1485:C:/Users/dtjld/workspace/AIoT/src/LiteOS_Lab/iot_link/network/dtls/mbedtls/mbedtls-2.16.2/library\rsa.c **** static unsigned size_greater_than( size_t size, size_t max )
1486:C:/Users/dtjld/workspace/AIoT/src/LiteOS_Lab/iot_link/network/dtls/mbedtls/mbedtls-2.16.2/library\rsa.c **** {
 4726              		.loc 1 1486 0
 4727              		.cfi_startproc
 4728              		@ args = 0, pretend = 0, frame = 8
 4729              		@ frame_needed = 1, uses_anonymous_args = 0
 4730              		@ link register save eliminated.
 4731 0000 80B4     		push	{r7}
 4732              	.LCFI124:
 4733              		.cfi_def_cfa_offset 4
 4734              		.cfi_offset 7, -4
 4735 0002 83B0     		sub	sp, sp, #12
 4736              	.LCFI125:
 4737              		.cfi_def_cfa_offset 16
 4738 0004 00AF     		add	r7, sp, #0
 4739              	.LCFI126:
 4740              		.cfi_def_cfa_register 7
 4741 0006 7860     		str	r0, [r7, #4]
 4742 0008 3960     		str	r1, [r7]
1487:C:/Users/dtjld/workspace/AIoT/src/LiteOS_Lab/iot_link/network/dtls/mbedtls/mbedtls-2.16.2/library\rsa.c ****     /* Return the sign bit (1 for negative) of (max - size). */
1488:C:/Users/dtjld/workspace/AIoT/src/LiteOS_Lab/iot_link/network/dtls/mbedtls/mbedtls-2.16.2/library\rsa.c ****     return( ( max - size ) >> ( sizeof( size_t ) * 8 - 1 ) );
 4743              		.loc 1 1488 0
 4744 000a 3A68     		ldr	r2, [r7]
 4745 000c 7B68     		ldr	r3, [r7, #4]
 4746 000e D31A     		subs	r3, r2, r3
 4747 0010 DB0F     		lsrs	r3, r3, #31
1489:C:/Users/dtjld/workspace/AIoT/src/LiteOS_Lab/iot_link/network/dtls/mbedtls/mbedtls-2.16.2/library\rsa.c **** }
 4748              		.loc 1 1489 0
 4749 0012 1846     		mov	r0, r3
 4750 0014 0C37     		adds	r7, r7, #12
 4751              	.LCFI127:
 4752              		.cfi_def_cfa_offset 4
 4753 0016 BD46     		mov	sp, r7
 4754              	.LCFI128:
 4755              		.cfi_def_cfa_register 13
 4756              		@ sp needed
 4757 0018 5DF8047B 		ldr	r7, [sp], #4
 4758              	.LCFI129:
 4759              		.cfi_restore 7
 4760              		.cfi_def_cfa_offset 0
 4761 001c 7047     		bx	lr
 4762              		.cfi_endproc
 4763              	.LFE37:
 4765              		.section	.text.if_int,"ax",%progbits
 4766              		.align	1
 4767              		.syntax unified
ARM GAS  C:\Users\dtjld\AppData\Local\Temp\cck1fUMg.s 			page 112


 4768              		.thumb
 4769              		.thumb_func
 4770              		.fpu fpv4-sp-d16
 4772              	if_int:
 4773              	.LFB38:
1490:C:/Users/dtjld/workspace/AIoT/src/LiteOS_Lab/iot_link/network/dtls/mbedtls/mbedtls-2.16.2/library\rsa.c **** 
1491:C:/Users/dtjld/workspace/AIoT/src/LiteOS_Lab/iot_link/network/dtls/mbedtls/mbedtls-2.16.2/library\rsa.c **** /** Choose between two integer values, without branches.
1492:C:/Users/dtjld/workspace/AIoT/src/LiteOS_Lab/iot_link/network/dtls/mbedtls/mbedtls-2.16.2/library\rsa.c ****  *
1493:C:/Users/dtjld/workspace/AIoT/src/LiteOS_Lab/iot_link/network/dtls/mbedtls/mbedtls-2.16.2/library\rsa.c ****  * This is equivalent to `cond ? if1 : if0`, but is likely to be compiled
1494:C:/Users/dtjld/workspace/AIoT/src/LiteOS_Lab/iot_link/network/dtls/mbedtls/mbedtls-2.16.2/library\rsa.c ****  * to code using bitwise operation rather than a branch.
1495:C:/Users/dtjld/workspace/AIoT/src/LiteOS_Lab/iot_link/network/dtls/mbedtls/mbedtls-2.16.2/library\rsa.c ****  *
1496:C:/Users/dtjld/workspace/AIoT/src/LiteOS_Lab/iot_link/network/dtls/mbedtls/mbedtls-2.16.2/library\rsa.c ****  * \param cond      Condition to test.
1497:C:/Users/dtjld/workspace/AIoT/src/LiteOS_Lab/iot_link/network/dtls/mbedtls/mbedtls-2.16.2/library\rsa.c ****  * \param if1       Value to use if \p cond is nonzero.
1498:C:/Users/dtjld/workspace/AIoT/src/LiteOS_Lab/iot_link/network/dtls/mbedtls/mbedtls-2.16.2/library\rsa.c ****  * \param if0       Value to use if \p cond is zero.
1499:C:/Users/dtjld/workspace/AIoT/src/LiteOS_Lab/iot_link/network/dtls/mbedtls/mbedtls-2.16.2/library\rsa.c ****  * \return          \c if1 if \p cond is nonzero, otherwise \c if0.
1500:C:/Users/dtjld/workspace/AIoT/src/LiteOS_Lab/iot_link/network/dtls/mbedtls/mbedtls-2.16.2/library\rsa.c ****  */
1501:C:/Users/dtjld/workspace/AIoT/src/LiteOS_Lab/iot_link/network/dtls/mbedtls/mbedtls-2.16.2/library\rsa.c **** static unsigned if_int( unsigned cond, unsigned if1, unsigned if0 )
1502:C:/Users/dtjld/workspace/AIoT/src/LiteOS_Lab/iot_link/network/dtls/mbedtls/mbedtls-2.16.2/library\rsa.c **** {
 4774              		.loc 1 1502 0
 4775              		.cfi_startproc
 4776              		@ args = 0, pretend = 0, frame = 24
 4777              		@ frame_needed = 1, uses_anonymous_args = 0
 4778 0000 80B5     		push	{r7, lr}
 4779              	.LCFI130:
 4780              		.cfi_def_cfa_offset 8
 4781              		.cfi_offset 7, -8
 4782              		.cfi_offset 14, -4
 4783 0002 86B0     		sub	sp, sp, #24
 4784              	.LCFI131:
 4785              		.cfi_def_cfa_offset 32
 4786 0004 00AF     		add	r7, sp, #0
 4787              	.LCFI132:
 4788              		.cfi_def_cfa_register 7
 4789 0006 F860     		str	r0, [r7, #12]
 4790 0008 B960     		str	r1, [r7, #8]
 4791 000a 7A60     		str	r2, [r7, #4]
1503:C:/Users/dtjld/workspace/AIoT/src/LiteOS_Lab/iot_link/network/dtls/mbedtls/mbedtls-2.16.2/library\rsa.c ****     unsigned mask = all_or_nothing_int( cond );
 4792              		.loc 1 1503 0
 4793 000c F868     		ldr	r0, [r7, #12]
 4794 000e FFF7FEFF 		bl	all_or_nothing_int
 4795 0012 7861     		str	r0, [r7, #20]
1504:C:/Users/dtjld/workspace/AIoT/src/LiteOS_Lab/iot_link/network/dtls/mbedtls/mbedtls-2.16.2/library\rsa.c ****     return( ( mask & if1 ) | (~mask & if0 ) );
 4796              		.loc 1 1504 0
 4797 0014 7A69     		ldr	r2, [r7, #20]
 4798 0016 BB68     		ldr	r3, [r7, #8]
 4799 0018 1A40     		ands	r2, r2, r3
 4800 001a 7B69     		ldr	r3, [r7, #20]
 4801 001c D943     		mvns	r1, r3
 4802 001e 7B68     		ldr	r3, [r7, #4]
 4803 0020 0B40     		ands	r3, r3, r1
 4804 0022 1343     		orrs	r3, r3, r2
1505:C:/Users/dtjld/workspace/AIoT/src/LiteOS_Lab/iot_link/network/dtls/mbedtls/mbedtls-2.16.2/library\rsa.c **** }
 4805              		.loc 1 1505 0
 4806 0024 1846     		mov	r0, r3
 4807 0026 1837     		adds	r7, r7, #24
 4808              	.LCFI133:
 4809              		.cfi_def_cfa_offset 8
ARM GAS  C:\Users\dtjld\AppData\Local\Temp\cck1fUMg.s 			page 113


 4810 0028 BD46     		mov	sp, r7
 4811              	.LCFI134:
 4812              		.cfi_def_cfa_register 13
 4813              		@ sp needed
 4814 002a 80BD     		pop	{r7, pc}
 4815              		.cfi_endproc
 4816              	.LFE38:
 4818              		.section	.text.mem_move_to_left,"ax",%progbits
 4819              		.align	1
 4820              		.syntax unified
 4821              		.thumb
 4822              		.thumb_func
 4823              		.fpu fpv4-sp-d16
 4825              	mem_move_to_left:
 4826              	.LFB39:
1506:C:/Users/dtjld/workspace/AIoT/src/LiteOS_Lab/iot_link/network/dtls/mbedtls/mbedtls-2.16.2/library\rsa.c **** 
1507:C:/Users/dtjld/workspace/AIoT/src/LiteOS_Lab/iot_link/network/dtls/mbedtls/mbedtls-2.16.2/library\rsa.c **** /** Shift some data towards the left inside a buffer without leaking
1508:C:/Users/dtjld/workspace/AIoT/src/LiteOS_Lab/iot_link/network/dtls/mbedtls/mbedtls-2.16.2/library\rsa.c ****  * the length of the data through side channels.
1509:C:/Users/dtjld/workspace/AIoT/src/LiteOS_Lab/iot_link/network/dtls/mbedtls/mbedtls-2.16.2/library\rsa.c ****  *
1510:C:/Users/dtjld/workspace/AIoT/src/LiteOS_Lab/iot_link/network/dtls/mbedtls/mbedtls-2.16.2/library\rsa.c ****  * `mem_move_to_left(start, total, offset)` is functionally equivalent to
1511:C:/Users/dtjld/workspace/AIoT/src/LiteOS_Lab/iot_link/network/dtls/mbedtls/mbedtls-2.16.2/library\rsa.c ****  * ```
1512:C:/Users/dtjld/workspace/AIoT/src/LiteOS_Lab/iot_link/network/dtls/mbedtls/mbedtls-2.16.2/library\rsa.c ****  * memmove(start, start + offset, total - offset);
1513:C:/Users/dtjld/workspace/AIoT/src/LiteOS_Lab/iot_link/network/dtls/mbedtls/mbedtls-2.16.2/library\rsa.c ****  * memset(start + offset, 0, total - offset);
1514:C:/Users/dtjld/workspace/AIoT/src/LiteOS_Lab/iot_link/network/dtls/mbedtls/mbedtls-2.16.2/library\rsa.c ****  * ```
1515:C:/Users/dtjld/workspace/AIoT/src/LiteOS_Lab/iot_link/network/dtls/mbedtls/mbedtls-2.16.2/library\rsa.c ****  * but it strives to use a memory access pattern (and thus total timing)
1516:C:/Users/dtjld/workspace/AIoT/src/LiteOS_Lab/iot_link/network/dtls/mbedtls/mbedtls-2.16.2/library\rsa.c ****  * that does not depend on \p offset. This timing independence comes at
1517:C:/Users/dtjld/workspace/AIoT/src/LiteOS_Lab/iot_link/network/dtls/mbedtls/mbedtls-2.16.2/library\rsa.c ****  * the expense of performance.
1518:C:/Users/dtjld/workspace/AIoT/src/LiteOS_Lab/iot_link/network/dtls/mbedtls/mbedtls-2.16.2/library\rsa.c ****  *
1519:C:/Users/dtjld/workspace/AIoT/src/LiteOS_Lab/iot_link/network/dtls/mbedtls/mbedtls-2.16.2/library\rsa.c ****  * \param start     Pointer to the start of the buffer.
1520:C:/Users/dtjld/workspace/AIoT/src/LiteOS_Lab/iot_link/network/dtls/mbedtls/mbedtls-2.16.2/library\rsa.c ****  * \param total     Total size of the buffer.
1521:C:/Users/dtjld/workspace/AIoT/src/LiteOS_Lab/iot_link/network/dtls/mbedtls/mbedtls-2.16.2/library\rsa.c ****  * \param offset    Offset from which to copy \p total - \p offset bytes.
1522:C:/Users/dtjld/workspace/AIoT/src/LiteOS_Lab/iot_link/network/dtls/mbedtls/mbedtls-2.16.2/library\rsa.c ****  */
1523:C:/Users/dtjld/workspace/AIoT/src/LiteOS_Lab/iot_link/network/dtls/mbedtls/mbedtls-2.16.2/library\rsa.c **** static void mem_move_to_left( void *start,
1524:C:/Users/dtjld/workspace/AIoT/src/LiteOS_Lab/iot_link/network/dtls/mbedtls/mbedtls-2.16.2/library\rsa.c ****                               size_t total,
1525:C:/Users/dtjld/workspace/AIoT/src/LiteOS_Lab/iot_link/network/dtls/mbedtls/mbedtls-2.16.2/library\rsa.c ****                               size_t offset )
1526:C:/Users/dtjld/workspace/AIoT/src/LiteOS_Lab/iot_link/network/dtls/mbedtls/mbedtls-2.16.2/library\rsa.c **** {
 4827              		.loc 1 1526 0
 4828              		.cfi_startproc
 4829              		@ args = 0, pretend = 0, frame = 40
 4830              		@ frame_needed = 1, uses_anonymous_args = 0
 4831 0000 80B5     		push	{r7, lr}
 4832              	.LCFI135:
 4833              		.cfi_def_cfa_offset 8
 4834              		.cfi_offset 7, -8
 4835              		.cfi_offset 14, -4
 4836 0002 8AB0     		sub	sp, sp, #40
 4837              	.LCFI136:
 4838              		.cfi_def_cfa_offset 48
 4839 0004 00AF     		add	r7, sp, #0
 4840              	.LCFI137:
 4841              		.cfi_def_cfa_register 7
 4842 0006 F860     		str	r0, [r7, #12]
 4843 0008 B960     		str	r1, [r7, #8]
 4844 000a 7A60     		str	r2, [r7, #4]
1527:C:/Users/dtjld/workspace/AIoT/src/LiteOS_Lab/iot_link/network/dtls/mbedtls/mbedtls-2.16.2/library\rsa.c ****     volatile unsigned char *buf = start;
 4845              		.loc 1 1527 0
 4846 000c FB68     		ldr	r3, [r7, #12]
ARM GAS  C:\Users\dtjld\AppData\Local\Temp\cck1fUMg.s 			page 114


 4847 000e FB61     		str	r3, [r7, #28]
1528:C:/Users/dtjld/workspace/AIoT/src/LiteOS_Lab/iot_link/network/dtls/mbedtls/mbedtls-2.16.2/library\rsa.c ****     size_t i, n;
1529:C:/Users/dtjld/workspace/AIoT/src/LiteOS_Lab/iot_link/network/dtls/mbedtls/mbedtls-2.16.2/library\rsa.c ****     if( total == 0 )
 4848              		.loc 1 1529 0
 4849 0010 BB68     		ldr	r3, [r7, #8]
 4850 0012 002B     		cmp	r3, #0
 4851 0014 46D0     		beq	.L382
1530:C:/Users/dtjld/workspace/AIoT/src/LiteOS_Lab/iot_link/network/dtls/mbedtls/mbedtls-2.16.2/library\rsa.c ****         return;
1531:C:/Users/dtjld/workspace/AIoT/src/LiteOS_Lab/iot_link/network/dtls/mbedtls/mbedtls-2.16.2/library\rsa.c ****     for( i = 0; i < total; i++ )
 4852              		.loc 1 1531 0
 4853 0016 0023     		movs	r3, #0
 4854 0018 7B62     		str	r3, [r7, #36]
 4855 001a 3EE0     		b	.L378
 4856              	.L381:
 4857              	.LBB3:
1532:C:/Users/dtjld/workspace/AIoT/src/LiteOS_Lab/iot_link/network/dtls/mbedtls/mbedtls-2.16.2/library\rsa.c ****     {
1533:C:/Users/dtjld/workspace/AIoT/src/LiteOS_Lab/iot_link/network/dtls/mbedtls/mbedtls-2.16.2/library\rsa.c ****         unsigned no_op = size_greater_than( total - offset, i );
 4858              		.loc 1 1533 0
 4859 001c BA68     		ldr	r2, [r7, #8]
 4860 001e 7B68     		ldr	r3, [r7, #4]
 4861 0020 D31A     		subs	r3, r2, r3
 4862 0022 796A     		ldr	r1, [r7, #36]
 4863 0024 1846     		mov	r0, r3
 4864 0026 FFF7FEFF 		bl	size_greater_than
 4865 002a B861     		str	r0, [r7, #24]
1534:C:/Users/dtjld/workspace/AIoT/src/LiteOS_Lab/iot_link/network/dtls/mbedtls/mbedtls-2.16.2/library\rsa.c ****         /* The first `total - offset` passes are a no-op. The last
1535:C:/Users/dtjld/workspace/AIoT/src/LiteOS_Lab/iot_link/network/dtls/mbedtls/mbedtls-2.16.2/library\rsa.c ****          * `offset` passes shift the data one byte to the left and
1536:C:/Users/dtjld/workspace/AIoT/src/LiteOS_Lab/iot_link/network/dtls/mbedtls/mbedtls-2.16.2/library\rsa.c ****          * zero out the last byte. */
1537:C:/Users/dtjld/workspace/AIoT/src/LiteOS_Lab/iot_link/network/dtls/mbedtls/mbedtls-2.16.2/library\rsa.c ****         for( n = 0; n < total - 1; n++ )
 4866              		.loc 1 1537 0
 4867 002c 0023     		movs	r3, #0
 4868 002e 3B62     		str	r3, [r7, #32]
 4869 0030 19E0     		b	.L379
 4870              	.L380:
 4871              	.LBB4:
1538:C:/Users/dtjld/workspace/AIoT/src/LiteOS_Lab/iot_link/network/dtls/mbedtls/mbedtls-2.16.2/library\rsa.c ****         {
1539:C:/Users/dtjld/workspace/AIoT/src/LiteOS_Lab/iot_link/network/dtls/mbedtls/mbedtls-2.16.2/library\rsa.c ****             unsigned char current = buf[n];
 4872              		.loc 1 1539 0 discriminator 3
 4873 0032 FA69     		ldr	r2, [r7, #28]
 4874 0034 3B6A     		ldr	r3, [r7, #32]
 4875 0036 1344     		add	r3, r3, r2
 4876 0038 1B78     		ldrb	r3, [r3]
 4877 003a FB75     		strb	r3, [r7, #23]
1540:C:/Users/dtjld/workspace/AIoT/src/LiteOS_Lab/iot_link/network/dtls/mbedtls/mbedtls-2.16.2/library\rsa.c ****             unsigned char next = buf[n+1];
 4878              		.loc 1 1540 0 discriminator 3
 4879 003c 3B6A     		ldr	r3, [r7, #32]
 4880 003e 0133     		adds	r3, r3, #1
 4881 0040 FA69     		ldr	r2, [r7, #28]
 4882 0042 1344     		add	r3, r3, r2
 4883 0044 1B78     		ldrb	r3, [r3]
 4884 0046 BB75     		strb	r3, [r7, #22]
1541:C:/Users/dtjld/workspace/AIoT/src/LiteOS_Lab/iot_link/network/dtls/mbedtls/mbedtls-2.16.2/library\rsa.c ****             buf[n] = if_int( no_op, current, next );
 4885              		.loc 1 1541 0 discriminator 3
 4886 0048 FB7D     		ldrb	r3, [r7, #23]	@ zero_extendqisi2
 4887 004a BA7D     		ldrb	r2, [r7, #22]	@ zero_extendqisi2
 4888 004c 1946     		mov	r1, r3
 4889 004e B869     		ldr	r0, [r7, #24]
ARM GAS  C:\Users\dtjld\AppData\Local\Temp\cck1fUMg.s 			page 115


 4890 0050 FFF7FEFF 		bl	if_int
 4891 0054 0146     		mov	r1, r0
 4892 0056 FA69     		ldr	r2, [r7, #28]
 4893 0058 3B6A     		ldr	r3, [r7, #32]
 4894 005a 1344     		add	r3, r3, r2
 4895 005c CAB2     		uxtb	r2, r1
 4896 005e 1A70     		strb	r2, [r3]
 4897              	.LBE4:
1537:C:/Users/dtjld/workspace/AIoT/src/LiteOS_Lab/iot_link/network/dtls/mbedtls/mbedtls-2.16.2/library\rsa.c ****         {
 4898              		.loc 1 1537 0 discriminator 3
 4899 0060 3B6A     		ldr	r3, [r7, #32]
 4900 0062 0133     		adds	r3, r3, #1
 4901 0064 3B62     		str	r3, [r7, #32]
 4902              	.L379:
1537:C:/Users/dtjld/workspace/AIoT/src/LiteOS_Lab/iot_link/network/dtls/mbedtls/mbedtls-2.16.2/library\rsa.c ****         {
 4903              		.loc 1 1537 0 is_stmt 0 discriminator 1
 4904 0066 BB68     		ldr	r3, [r7, #8]
 4905 0068 013B     		subs	r3, r3, #1
 4906 006a 3A6A     		ldr	r2, [r7, #32]
 4907 006c 9A42     		cmp	r2, r3
 4908 006e E0D3     		bcc	.L380
1542:C:/Users/dtjld/workspace/AIoT/src/LiteOS_Lab/iot_link/network/dtls/mbedtls/mbedtls-2.16.2/library\rsa.c ****         }
1543:C:/Users/dtjld/workspace/AIoT/src/LiteOS_Lab/iot_link/network/dtls/mbedtls/mbedtls-2.16.2/library\rsa.c ****         buf[total-1] = if_int( no_op, buf[total-1], 0 );
 4909              		.loc 1 1543 0 is_stmt 1 discriminator 2
 4910 0070 BB68     		ldr	r3, [r7, #8]
 4911 0072 013B     		subs	r3, r3, #1
 4912 0074 FA69     		ldr	r2, [r7, #28]
 4913 0076 1344     		add	r3, r3, r2
 4914 0078 1B78     		ldrb	r3, [r3]
 4915 007a DBB2     		uxtb	r3, r3
 4916 007c 0022     		movs	r2, #0
 4917 007e 1946     		mov	r1, r3
 4918 0080 B869     		ldr	r0, [r7, #24]
 4919 0082 FFF7FEFF 		bl	if_int
 4920 0086 0146     		mov	r1, r0
 4921 0088 BB68     		ldr	r3, [r7, #8]
 4922 008a 013B     		subs	r3, r3, #1
 4923 008c FA69     		ldr	r2, [r7, #28]
 4924 008e 1344     		add	r3, r3, r2
 4925 0090 CAB2     		uxtb	r2, r1
 4926 0092 1A70     		strb	r2, [r3]
 4927              	.LBE3:
1531:C:/Users/dtjld/workspace/AIoT/src/LiteOS_Lab/iot_link/network/dtls/mbedtls/mbedtls-2.16.2/library\rsa.c ****     {
 4928              		.loc 1 1531 0 discriminator 2
 4929 0094 7B6A     		ldr	r3, [r7, #36]
 4930 0096 0133     		adds	r3, r3, #1
 4931 0098 7B62     		str	r3, [r7, #36]
 4932              	.L378:
1531:C:/Users/dtjld/workspace/AIoT/src/LiteOS_Lab/iot_link/network/dtls/mbedtls/mbedtls-2.16.2/library\rsa.c ****     {
 4933              		.loc 1 1531 0 is_stmt 0 discriminator 1
 4934 009a 7A6A     		ldr	r2, [r7, #36]
 4935 009c BB68     		ldr	r3, [r7, #8]
 4936 009e 9A42     		cmp	r2, r3
 4937 00a0 BCD3     		bcc	.L381
 4938 00a2 00E0     		b	.L375
 4939              	.L382:
1530:C:/Users/dtjld/workspace/AIoT/src/LiteOS_Lab/iot_link/network/dtls/mbedtls/mbedtls-2.16.2/library\rsa.c ****     for( i = 0; i < total; i++ )
ARM GAS  C:\Users\dtjld\AppData\Local\Temp\cck1fUMg.s 			page 116


 4940              		.loc 1 1530 0 is_stmt 1
 4941 00a4 00BF     		nop
 4942              	.L375:
1544:C:/Users/dtjld/workspace/AIoT/src/LiteOS_Lab/iot_link/network/dtls/mbedtls/mbedtls-2.16.2/library\rsa.c ****     }
1545:C:/Users/dtjld/workspace/AIoT/src/LiteOS_Lab/iot_link/network/dtls/mbedtls/mbedtls-2.16.2/library\rsa.c **** }
 4943              		.loc 1 1545 0
 4944 00a6 2837     		adds	r7, r7, #40
 4945              	.LCFI138:
 4946              		.cfi_def_cfa_offset 8
 4947 00a8 BD46     		mov	sp, r7
 4948              	.LCFI139:
 4949              		.cfi_def_cfa_register 13
 4950              		@ sp needed
 4951 00aa 80BD     		pop	{r7, pc}
 4952              		.cfi_endproc
 4953              	.LFE39:
 4955              		.section	.text.mbedtls_rsa_rsaes_pkcs1_v15_decrypt,"ax",%progbits
 4956              		.align	1
 4957              		.global	mbedtls_rsa_rsaes_pkcs1_v15_decrypt
 4958              		.syntax unified
 4959              		.thumb
 4960              		.thumb_func
 4961              		.fpu fpv4-sp-d16
 4963              	mbedtls_rsa_rsaes_pkcs1_v15_decrypt:
 4964              	.LFB40:
1546:C:/Users/dtjld/workspace/AIoT/src/LiteOS_Lab/iot_link/network/dtls/mbedtls/mbedtls-2.16.2/library\rsa.c **** 
1547:C:/Users/dtjld/workspace/AIoT/src/LiteOS_Lab/iot_link/network/dtls/mbedtls/mbedtls-2.16.2/library\rsa.c **** /*
1548:C:/Users/dtjld/workspace/AIoT/src/LiteOS_Lab/iot_link/network/dtls/mbedtls/mbedtls-2.16.2/library\rsa.c ****  * Implementation of the PKCS#1 v2.1 RSAES-PKCS1-V1_5-DECRYPT function
1549:C:/Users/dtjld/workspace/AIoT/src/LiteOS_Lab/iot_link/network/dtls/mbedtls/mbedtls-2.16.2/library\rsa.c ****  */
1550:C:/Users/dtjld/workspace/AIoT/src/LiteOS_Lab/iot_link/network/dtls/mbedtls/mbedtls-2.16.2/library\rsa.c **** int mbedtls_rsa_rsaes_pkcs1_v15_decrypt( mbedtls_rsa_context *ctx,
1551:C:/Users/dtjld/workspace/AIoT/src/LiteOS_Lab/iot_link/network/dtls/mbedtls/mbedtls-2.16.2/library\rsa.c ****                                  int (*f_rng)(void *, unsigned char *, size_t),
1552:C:/Users/dtjld/workspace/AIoT/src/LiteOS_Lab/iot_link/network/dtls/mbedtls/mbedtls-2.16.2/library\rsa.c ****                                  void *p_rng,
1553:C:/Users/dtjld/workspace/AIoT/src/LiteOS_Lab/iot_link/network/dtls/mbedtls/mbedtls-2.16.2/library\rsa.c ****                                  int mode, size_t *olen,
1554:C:/Users/dtjld/workspace/AIoT/src/LiteOS_Lab/iot_link/network/dtls/mbedtls/mbedtls-2.16.2/library\rsa.c ****                                  const unsigned char *input,
1555:C:/Users/dtjld/workspace/AIoT/src/LiteOS_Lab/iot_link/network/dtls/mbedtls/mbedtls-2.16.2/library\rsa.c ****                                  unsigned char *output,
1556:C:/Users/dtjld/workspace/AIoT/src/LiteOS_Lab/iot_link/network/dtls/mbedtls/mbedtls-2.16.2/library\rsa.c ****                                  size_t output_max_len )
1557:C:/Users/dtjld/workspace/AIoT/src/LiteOS_Lab/iot_link/network/dtls/mbedtls/mbedtls-2.16.2/library\rsa.c **** {
 4965              		.loc 1 1557 0
 4966              		.cfi_startproc
 4967              		@ args = 16, pretend = 0, frame = 1080
 4968              		@ frame_needed = 1, uses_anonymous_args = 0
 4969 0000 90B5     		push	{r4, r7, lr}
 4970              	.LCFI140:
 4971              		.cfi_def_cfa_offset 12
 4972              		.cfi_offset 4, -12
 4973              		.cfi_offset 7, -8
 4974              		.cfi_offset 14, -4
 4975 0002 ADF2444D 		subw	sp, sp, #1092
 4976              	.LCFI141:
 4977              		.cfi_def_cfa_offset 1104
 4978 0006 02AF     		add	r7, sp, #8
 4979              	.LCFI142:
 4980              		.cfi_def_cfa 7, 1096
 4981 0008 07F10C04 		add	r4, r7, #12
 4982 000c 2060     		str	r0, [r4]
 4983 000e 07F10800 		add	r0, r7, #8
 4984 0012 0160     		str	r1, [r0]
ARM GAS  C:\Users\dtjld\AppData\Local\Temp\cck1fUMg.s 			page 117


 4985 0014 391D     		adds	r1, r7, #4
 4986 0016 0A60     		str	r2, [r1]
 4987 0018 3A46     		mov	r2, r7
 4988 001a 1360     		str	r3, [r2]
1558:C:/Users/dtjld/workspace/AIoT/src/LiteOS_Lab/iot_link/network/dtls/mbedtls/mbedtls-2.16.2/library\rsa.c ****     int ret;
1559:C:/Users/dtjld/workspace/AIoT/src/LiteOS_Lab/iot_link/network/dtls/mbedtls/mbedtls-2.16.2/library\rsa.c ****     size_t ilen, i, plaintext_max_size;
1560:C:/Users/dtjld/workspace/AIoT/src/LiteOS_Lab/iot_link/network/dtls/mbedtls/mbedtls-2.16.2/library\rsa.c ****     unsigned char buf[MBEDTLS_MPI_MAX_SIZE];
1561:C:/Users/dtjld/workspace/AIoT/src/LiteOS_Lab/iot_link/network/dtls/mbedtls/mbedtls-2.16.2/library\rsa.c ****     /* The following variables take sensitive values: their value must
1562:C:/Users/dtjld/workspace/AIoT/src/LiteOS_Lab/iot_link/network/dtls/mbedtls/mbedtls-2.16.2/library\rsa.c ****      * not leak into the observable behavior of the function other than
1563:C:/Users/dtjld/workspace/AIoT/src/LiteOS_Lab/iot_link/network/dtls/mbedtls/mbedtls-2.16.2/library\rsa.c ****      * the designated outputs (output, olen, return value). Otherwise
1564:C:/Users/dtjld/workspace/AIoT/src/LiteOS_Lab/iot_link/network/dtls/mbedtls/mbedtls-2.16.2/library\rsa.c ****      * this would open the execution of the function to
1565:C:/Users/dtjld/workspace/AIoT/src/LiteOS_Lab/iot_link/network/dtls/mbedtls/mbedtls-2.16.2/library\rsa.c ****      * side-channel-based variants of the Bleichenbacher padding oracle
1566:C:/Users/dtjld/workspace/AIoT/src/LiteOS_Lab/iot_link/network/dtls/mbedtls/mbedtls-2.16.2/library\rsa.c ****      * attack. Potential side channels include overall timing, memory
1567:C:/Users/dtjld/workspace/AIoT/src/LiteOS_Lab/iot_link/network/dtls/mbedtls/mbedtls-2.16.2/library\rsa.c ****      * access patterns (especially visible to an adversary who has access
1568:C:/Users/dtjld/workspace/AIoT/src/LiteOS_Lab/iot_link/network/dtls/mbedtls/mbedtls-2.16.2/library\rsa.c ****      * to a shared memory cache), and branches (especially visible to
1569:C:/Users/dtjld/workspace/AIoT/src/LiteOS_Lab/iot_link/network/dtls/mbedtls/mbedtls-2.16.2/library\rsa.c ****      * an adversary who has access to a shared code cache or to a shared
1570:C:/Users/dtjld/workspace/AIoT/src/LiteOS_Lab/iot_link/network/dtls/mbedtls/mbedtls-2.16.2/library\rsa.c ****      * branch predictor). */
1571:C:/Users/dtjld/workspace/AIoT/src/LiteOS_Lab/iot_link/network/dtls/mbedtls/mbedtls-2.16.2/library\rsa.c ****     size_t pad_count = 0;
 4989              		.loc 1 1571 0
 4990 001c 0023     		movs	r3, #0
 4991 001e C7F82C34 		str	r3, [r7, #1068]
1572:C:/Users/dtjld/workspace/AIoT/src/LiteOS_Lab/iot_link/network/dtls/mbedtls/mbedtls-2.16.2/library\rsa.c ****     unsigned bad = 0;
 4992              		.loc 1 1572 0
 4993 0022 0023     		movs	r3, #0
 4994 0024 C7F82834 		str	r3, [r7, #1064]
1573:C:/Users/dtjld/workspace/AIoT/src/LiteOS_Lab/iot_link/network/dtls/mbedtls/mbedtls-2.16.2/library\rsa.c ****     unsigned char pad_done = 0;
 4995              		.loc 1 1573 0
 4996 0028 0023     		movs	r3, #0
 4997 002a 87F82734 		strb	r3, [r7, #1063]
1574:C:/Users/dtjld/workspace/AIoT/src/LiteOS_Lab/iot_link/network/dtls/mbedtls/mbedtls-2.16.2/library\rsa.c ****     size_t plaintext_size = 0;
 4998              		.loc 1 1574 0
 4999 002e 0023     		movs	r3, #0
 5000 0030 C7F82034 		str	r3, [r7, #1056]
1575:C:/Users/dtjld/workspace/AIoT/src/LiteOS_Lab/iot_link/network/dtls/mbedtls/mbedtls-2.16.2/library\rsa.c ****     unsigned output_too_large;
1576:C:/Users/dtjld/workspace/AIoT/src/LiteOS_Lab/iot_link/network/dtls/mbedtls/mbedtls-2.16.2/library\rsa.c **** 
1577:C:/Users/dtjld/workspace/AIoT/src/LiteOS_Lab/iot_link/network/dtls/mbedtls/mbedtls-2.16.2/library\rsa.c ****     RSA_VALIDATE_RET( ctx != NULL );
1578:C:/Users/dtjld/workspace/AIoT/src/LiteOS_Lab/iot_link/network/dtls/mbedtls/mbedtls-2.16.2/library\rsa.c ****     RSA_VALIDATE_RET( mode == MBEDTLS_RSA_PRIVATE ||
1579:C:/Users/dtjld/workspace/AIoT/src/LiteOS_Lab/iot_link/network/dtls/mbedtls/mbedtls-2.16.2/library\rsa.c ****                       mode == MBEDTLS_RSA_PUBLIC );
1580:C:/Users/dtjld/workspace/AIoT/src/LiteOS_Lab/iot_link/network/dtls/mbedtls/mbedtls-2.16.2/library\rsa.c ****     RSA_VALIDATE_RET( output_max_len == 0 || output != NULL );
1581:C:/Users/dtjld/workspace/AIoT/src/LiteOS_Lab/iot_link/network/dtls/mbedtls/mbedtls-2.16.2/library\rsa.c ****     RSA_VALIDATE_RET( input != NULL );
1582:C:/Users/dtjld/workspace/AIoT/src/LiteOS_Lab/iot_link/network/dtls/mbedtls/mbedtls-2.16.2/library\rsa.c ****     RSA_VALIDATE_RET( olen != NULL );
1583:C:/Users/dtjld/workspace/AIoT/src/LiteOS_Lab/iot_link/network/dtls/mbedtls/mbedtls-2.16.2/library\rsa.c **** 
1584:C:/Users/dtjld/workspace/AIoT/src/LiteOS_Lab/iot_link/network/dtls/mbedtls/mbedtls-2.16.2/library\rsa.c ****     ilen = ctx->len;
 5001              		.loc 1 1584 0
 5002 0034 07F10C03 		add	r3, r7, #12
 5003 0038 1B68     		ldr	r3, [r3]
 5004 003a 5B68     		ldr	r3, [r3, #4]
 5005 003c C7F81C34 		str	r3, [r7, #1052]
1585:C:/Users/dtjld/workspace/AIoT/src/LiteOS_Lab/iot_link/network/dtls/mbedtls/mbedtls-2.16.2/library\rsa.c ****     plaintext_max_size = ( output_max_len > ilen - 11 ?
 5006              		.loc 1 1585 0
 5007 0040 D7F81C34 		ldr	r3, [r7, #1052]
 5008 0044 0B3B     		subs	r3, r3, #11
 5009 0046 D7F85424 		ldr	r2, [r7, #1108]
 5010 004a 9342     		cmp	r3, r2
 5011 004c 28BF     		it	cs
 5012 004e 1346     		movcs	r3, r2
 5013 0050 C7F81834 		str	r3, [r7, #1048]
ARM GAS  C:\Users\dtjld\AppData\Local\Temp\cck1fUMg.s 			page 118


1586:C:/Users/dtjld/workspace/AIoT/src/LiteOS_Lab/iot_link/network/dtls/mbedtls/mbedtls-2.16.2/library\rsa.c ****                            ilen - 11 :
1587:C:/Users/dtjld/workspace/AIoT/src/LiteOS_Lab/iot_link/network/dtls/mbedtls/mbedtls-2.16.2/library\rsa.c ****                            output_max_len );
1588:C:/Users/dtjld/workspace/AIoT/src/LiteOS_Lab/iot_link/network/dtls/mbedtls/mbedtls-2.16.2/library\rsa.c **** 
1589:C:/Users/dtjld/workspace/AIoT/src/LiteOS_Lab/iot_link/network/dtls/mbedtls/mbedtls-2.16.2/library\rsa.c ****     if( mode == MBEDTLS_RSA_PRIVATE && ctx->padding != MBEDTLS_RSA_PKCS_V15 )
 5014              		.loc 1 1589 0
 5015 0054 3B46     		mov	r3, r7
 5016 0056 1B68     		ldr	r3, [r3]
 5017 0058 012B     		cmp	r3, #1
 5018 005a 08D1     		bne	.L384
 5019              		.loc 1 1589 0 is_stmt 0 discriminator 1
 5020 005c 07F10C03 		add	r3, r7, #12
 5021 0060 1B68     		ldr	r3, [r3]
 5022 0062 D3F8A430 		ldr	r3, [r3, #164]
 5023 0066 002B     		cmp	r3, #0
 5024 0068 01D0     		beq	.L384
1590:C:/Users/dtjld/workspace/AIoT/src/LiteOS_Lab/iot_link/network/dtls/mbedtls/mbedtls-2.16.2/library\rsa.c ****         return( MBEDTLS_ERR_RSA_BAD_INPUT_DATA );
 5025              		.loc 1 1590 0 is_stmt 1
 5026 006a C34B     		ldr	r3, .L402
 5027 006c 7EE1     		b	.L400
 5028              	.L384:
1591:C:/Users/dtjld/workspace/AIoT/src/LiteOS_Lab/iot_link/network/dtls/mbedtls/mbedtls-2.16.2/library\rsa.c **** 
1592:C:/Users/dtjld/workspace/AIoT/src/LiteOS_Lab/iot_link/network/dtls/mbedtls/mbedtls-2.16.2/library\rsa.c ****     if( ilen < 16 || ilen > sizeof( buf ) )
 5029              		.loc 1 1592 0
 5030 006e D7F81C34 		ldr	r3, [r7, #1052]
 5031 0072 0F2B     		cmp	r3, #15
 5032 0074 04D9     		bls	.L386
 5033              		.loc 1 1592 0 is_stmt 0 discriminator 1
 5034 0076 D7F81C34 		ldr	r3, [r7, #1052]
 5035 007a B3F5806F 		cmp	r3, #1024
 5036 007e 01D9     		bls	.L387
 5037              	.L386:
1593:C:/Users/dtjld/workspace/AIoT/src/LiteOS_Lab/iot_link/network/dtls/mbedtls/mbedtls-2.16.2/library\rsa.c ****         return( MBEDTLS_ERR_RSA_BAD_INPUT_DATA );
 5038              		.loc 1 1593 0 is_stmt 1
 5039 0080 BD4B     		ldr	r3, .L402
 5040 0082 73E1     		b	.L400
 5041              	.L387:
1594:C:/Users/dtjld/workspace/AIoT/src/LiteOS_Lab/iot_link/network/dtls/mbedtls/mbedtls-2.16.2/library\rsa.c **** 
1595:C:/Users/dtjld/workspace/AIoT/src/LiteOS_Lab/iot_link/network/dtls/mbedtls/mbedtls-2.16.2/library\rsa.c ****     ret = ( mode == MBEDTLS_RSA_PUBLIC )
1596:C:/Users/dtjld/workspace/AIoT/src/LiteOS_Lab/iot_link/network/dtls/mbedtls/mbedtls-2.16.2/library\rsa.c ****           ? mbedtls_rsa_public(  ctx, input, buf )
1597:C:/Users/dtjld/workspace/AIoT/src/LiteOS_Lab/iot_link/network/dtls/mbedtls/mbedtls-2.16.2/library\rsa.c ****           : mbedtls_rsa_private( ctx, f_rng, p_rng, input, buf );
 5042              		.loc 1 1597 0
 5043 0084 3B46     		mov	r3, r7
 5044 0086 1B68     		ldr	r3, [r3]
 5045 0088 002B     		cmp	r3, #0
 5046 008a 0AD1     		bne	.L388
 5047              		.loc 1 1597 0 is_stmt 0 discriminator 1
 5048 008c 07F11402 		add	r2, r7, #20
 5049 0090 07F10C03 		add	r3, r7, #12
 5050 0094 D7F84C14 		ldr	r1, [r7, #1100]
 5051 0098 1868     		ldr	r0, [r3]
 5052 009a FFF7FEFF 		bl	mbedtls_rsa_public
 5053 009e 0346     		mov	r3, r0
 5054 00a0 0FE0     		b	.L389
 5055              	.L388:
 5056              		.loc 1 1597 0 discriminator 2
 5057 00a2 3A1D     		adds	r2, r7, #4
 5058 00a4 07F10801 		add	r1, r7, #8
ARM GAS  C:\Users\dtjld\AppData\Local\Temp\cck1fUMg.s 			page 119


 5059 00a8 07F10C00 		add	r0, r7, #12
 5060 00ac 07F11403 		add	r3, r7, #20
 5061 00b0 0093     		str	r3, [sp]
 5062 00b2 D7F84C34 		ldr	r3, [r7, #1100]
 5063 00b6 1268     		ldr	r2, [r2]
 5064 00b8 0968     		ldr	r1, [r1]
 5065 00ba 0068     		ldr	r0, [r0]
 5066 00bc FFF7FEFF 		bl	mbedtls_rsa_private
 5067 00c0 0346     		mov	r3, r0
 5068              	.L389:
1595:C:/Users/dtjld/workspace/AIoT/src/LiteOS_Lab/iot_link/network/dtls/mbedtls/mbedtls-2.16.2/library\rsa.c ****           ? mbedtls_rsa_public(  ctx, input, buf )
 5069              		.loc 1 1595 0 is_stmt 1
 5070 00c2 C7F83434 		str	r3, [r7, #1076]
1598:C:/Users/dtjld/workspace/AIoT/src/LiteOS_Lab/iot_link/network/dtls/mbedtls/mbedtls-2.16.2/library\rsa.c **** 
1599:C:/Users/dtjld/workspace/AIoT/src/LiteOS_Lab/iot_link/network/dtls/mbedtls/mbedtls-2.16.2/library\rsa.c ****     if( ret != 0 )
 5071              		.loc 1 1599 0
 5072 00c6 D7F83434 		ldr	r3, [r7, #1076]
 5073 00ca 002B     		cmp	r3, #0
 5074 00cc 40F04481 		bne	.L401
1600:C:/Users/dtjld/workspace/AIoT/src/LiteOS_Lab/iot_link/network/dtls/mbedtls/mbedtls-2.16.2/library\rsa.c ****         goto cleanup;
1601:C:/Users/dtjld/workspace/AIoT/src/LiteOS_Lab/iot_link/network/dtls/mbedtls/mbedtls-2.16.2/library\rsa.c **** 
1602:C:/Users/dtjld/workspace/AIoT/src/LiteOS_Lab/iot_link/network/dtls/mbedtls/mbedtls-2.16.2/library\rsa.c ****     /* Check and get padding length in constant time and constant
1603:C:/Users/dtjld/workspace/AIoT/src/LiteOS_Lab/iot_link/network/dtls/mbedtls/mbedtls-2.16.2/library\rsa.c ****      * memory trace. The first byte must be 0. */
1604:C:/Users/dtjld/workspace/AIoT/src/LiteOS_Lab/iot_link/network/dtls/mbedtls/mbedtls-2.16.2/library\rsa.c ****     bad |= buf[0];
 5075              		.loc 1 1604 0
 5076 00d0 07F11403 		add	r3, r7, #20
 5077 00d4 1B78     		ldrb	r3, [r3]	@ zero_extendqisi2
 5078 00d6 1A46     		mov	r2, r3
 5079 00d8 D7F82834 		ldr	r3, [r7, #1064]
 5080 00dc 1343     		orrs	r3, r3, r2
 5081 00de C7F82834 		str	r3, [r7, #1064]
1605:C:/Users/dtjld/workspace/AIoT/src/LiteOS_Lab/iot_link/network/dtls/mbedtls/mbedtls-2.16.2/library\rsa.c **** 
1606:C:/Users/dtjld/workspace/AIoT/src/LiteOS_Lab/iot_link/network/dtls/mbedtls/mbedtls-2.16.2/library\rsa.c ****     if( mode == MBEDTLS_RSA_PRIVATE )
 5082              		.loc 1 1606 0
 5083 00e2 3B46     		mov	r3, r7
 5084 00e4 1B68     		ldr	r3, [r3]
 5085 00e6 012B     		cmp	r3, #1
 5086 00e8 48D1     		bne	.L392
1607:C:/Users/dtjld/workspace/AIoT/src/LiteOS_Lab/iot_link/network/dtls/mbedtls/mbedtls-2.16.2/library\rsa.c ****     {
1608:C:/Users/dtjld/workspace/AIoT/src/LiteOS_Lab/iot_link/network/dtls/mbedtls/mbedtls-2.16.2/library\rsa.c ****         /* Decode EME-PKCS1-v1_5 padding: 0x00 || 0x02 || PS || 0x00
1609:C:/Users/dtjld/workspace/AIoT/src/LiteOS_Lab/iot_link/network/dtls/mbedtls/mbedtls-2.16.2/library\rsa.c ****          * where PS must be at least 8 nonzero bytes. */
1610:C:/Users/dtjld/workspace/AIoT/src/LiteOS_Lab/iot_link/network/dtls/mbedtls/mbedtls-2.16.2/library\rsa.c ****         bad |= buf[1] ^ MBEDTLS_RSA_CRYPT;
 5087              		.loc 1 1610 0
 5088 00ea 07F11403 		add	r3, r7, #20
 5089 00ee 5B78     		ldrb	r3, [r3, #1]	@ zero_extendqisi2
 5090 00f0 83F00203 		eor	r3, r3, #2
 5091 00f4 DBB2     		uxtb	r3, r3
 5092 00f6 1A46     		mov	r2, r3
 5093 00f8 D7F82834 		ldr	r3, [r7, #1064]
 5094 00fc 1343     		orrs	r3, r3, r2
 5095 00fe C7F82834 		str	r3, [r7, #1064]
1611:C:/Users/dtjld/workspace/AIoT/src/LiteOS_Lab/iot_link/network/dtls/mbedtls/mbedtls-2.16.2/library\rsa.c **** 
1612:C:/Users/dtjld/workspace/AIoT/src/LiteOS_Lab/iot_link/network/dtls/mbedtls/mbedtls-2.16.2/library\rsa.c ****         /* Read the whole buffer. Set pad_done to nonzero if we find
1613:C:/Users/dtjld/workspace/AIoT/src/LiteOS_Lab/iot_link/network/dtls/mbedtls/mbedtls-2.16.2/library\rsa.c ****          * the 0x00 byte and remember the padding length in pad_count. */
1614:C:/Users/dtjld/workspace/AIoT/src/LiteOS_Lab/iot_link/network/dtls/mbedtls/mbedtls-2.16.2/library\rsa.c ****         for( i = 2; i < ilen; i++ )
 5096              		.loc 1 1614 0
 5097 0102 0223     		movs	r3, #2
ARM GAS  C:\Users\dtjld\AppData\Local\Temp\cck1fUMg.s 			page 120


 5098 0104 C7F83034 		str	r3, [r7, #1072]
 5099 0108 31E0     		b	.L393
 5100              	.L394:
1615:C:/Users/dtjld/workspace/AIoT/src/LiteOS_Lab/iot_link/network/dtls/mbedtls/mbedtls-2.16.2/library\rsa.c ****         {
1616:C:/Users/dtjld/workspace/AIoT/src/LiteOS_Lab/iot_link/network/dtls/mbedtls/mbedtls-2.16.2/library\rsa.c ****             pad_done  |= ((buf[i] | (unsigned char)-buf[i]) >> 7) ^ 1;
 5101              		.loc 1 1616 0 discriminator 3
 5102 010a 07F11402 		add	r2, r7, #20
 5103 010e D7F83034 		ldr	r3, [r7, #1072]
 5104 0112 1344     		add	r3, r3, r2
 5105 0114 1A78     		ldrb	r2, [r3]	@ zero_extendqisi2
 5106 0116 07F11401 		add	r1, r7, #20
 5107 011a D7F83034 		ldr	r3, [r7, #1072]
 5108 011e 0B44     		add	r3, r3, r1
 5109 0120 1B78     		ldrb	r3, [r3]	@ zero_extendqisi2
 5110 0122 5B42     		negs	r3, r3
 5111 0124 DBB2     		uxtb	r3, r3
 5112 0126 1343     		orrs	r3, r3, r2
 5113 0128 DBB2     		uxtb	r3, r3
 5114 012a DB09     		lsrs	r3, r3, #7
 5115 012c DBB2     		uxtb	r3, r3
 5116 012e 83F00103 		eor	r3, r3, #1
 5117 0132 DAB2     		uxtb	r2, r3
 5118 0134 97F82734 		ldrb	r3, [r7, #1063]
 5119 0138 1343     		orrs	r3, r3, r2
 5120 013a 87F82734 		strb	r3, [r7, #1063]
1617:C:/Users/dtjld/workspace/AIoT/src/LiteOS_Lab/iot_link/network/dtls/mbedtls/mbedtls-2.16.2/library\rsa.c ****             pad_count += ((pad_done | (unsigned char)-pad_done) >> 7) ^ 1;
 5121              		.loc 1 1617 0 discriminator 3
 5122 013e 97F82734 		ldrb	r3, [r7, #1063]
 5123 0142 5B42     		negs	r3, r3
 5124 0144 DAB2     		uxtb	r2, r3
 5125 0146 97F82734 		ldrb	r3, [r7, #1063]
 5126 014a 1343     		orrs	r3, r3, r2
 5127 014c DBB2     		uxtb	r3, r3
 5128 014e DB09     		lsrs	r3, r3, #7
 5129 0150 DBB2     		uxtb	r3, r3
 5130 0152 83F00103 		eor	r3, r3, #1
 5131 0156 DBB2     		uxtb	r3, r3
 5132 0158 1A46     		mov	r2, r3
 5133 015a D7F82C34 		ldr	r3, [r7, #1068]
 5134 015e 1344     		add	r3, r3, r2
 5135 0160 C7F82C34 		str	r3, [r7, #1068]
1614:C:/Users/dtjld/workspace/AIoT/src/LiteOS_Lab/iot_link/network/dtls/mbedtls/mbedtls-2.16.2/library\rsa.c ****         {
 5136              		.loc 1 1614 0 discriminator 3
 5137 0164 D7F83034 		ldr	r3, [r7, #1072]
 5138 0168 0133     		adds	r3, r3, #1
 5139 016a C7F83034 		str	r3, [r7, #1072]
 5140              	.L393:
1614:C:/Users/dtjld/workspace/AIoT/src/LiteOS_Lab/iot_link/network/dtls/mbedtls/mbedtls-2.16.2/library\rsa.c ****         {
 5141              		.loc 1 1614 0 is_stmt 0 discriminator 1
 5142 016e D7F83024 		ldr	r2, [r7, #1072]
 5143 0172 D7F81C34 		ldr	r3, [r7, #1052]
 5144 0176 9A42     		cmp	r2, r3
 5145 0178 C7D3     		bcc	.L394
 5146 017a 4DE0     		b	.L395
 5147              	.L392:
1618:C:/Users/dtjld/workspace/AIoT/src/LiteOS_Lab/iot_link/network/dtls/mbedtls/mbedtls-2.16.2/library\rsa.c ****         }
1619:C:/Users/dtjld/workspace/AIoT/src/LiteOS_Lab/iot_link/network/dtls/mbedtls/mbedtls-2.16.2/library\rsa.c ****     }
ARM GAS  C:\Users\dtjld\AppData\Local\Temp\cck1fUMg.s 			page 121


1620:C:/Users/dtjld/workspace/AIoT/src/LiteOS_Lab/iot_link/network/dtls/mbedtls/mbedtls-2.16.2/library\rsa.c ****     else
1621:C:/Users/dtjld/workspace/AIoT/src/LiteOS_Lab/iot_link/network/dtls/mbedtls/mbedtls-2.16.2/library\rsa.c ****     {
1622:C:/Users/dtjld/workspace/AIoT/src/LiteOS_Lab/iot_link/network/dtls/mbedtls/mbedtls-2.16.2/library\rsa.c ****         /* Decode EMSA-PKCS1-v1_5 padding: 0x00 || 0x01 || PS || 0x00
1623:C:/Users/dtjld/workspace/AIoT/src/LiteOS_Lab/iot_link/network/dtls/mbedtls/mbedtls-2.16.2/library\rsa.c ****          * where PS must be at least 8 bytes with the value 0xFF. */
1624:C:/Users/dtjld/workspace/AIoT/src/LiteOS_Lab/iot_link/network/dtls/mbedtls/mbedtls-2.16.2/library\rsa.c ****         bad |= buf[1] ^ MBEDTLS_RSA_SIGN;
 5148              		.loc 1 1624 0 is_stmt 1
 5149 017c 07F11403 		add	r3, r7, #20
 5150 0180 5B78     		ldrb	r3, [r3, #1]	@ zero_extendqisi2
 5151 0182 83F00103 		eor	r3, r3, #1
 5152 0186 DBB2     		uxtb	r3, r3
 5153 0188 1A46     		mov	r2, r3
 5154 018a D7F82834 		ldr	r3, [r7, #1064]
 5155 018e 1343     		orrs	r3, r3, r2
 5156 0190 C7F82834 		str	r3, [r7, #1064]
1625:C:/Users/dtjld/workspace/AIoT/src/LiteOS_Lab/iot_link/network/dtls/mbedtls/mbedtls-2.16.2/library\rsa.c **** 
1626:C:/Users/dtjld/workspace/AIoT/src/LiteOS_Lab/iot_link/network/dtls/mbedtls/mbedtls-2.16.2/library\rsa.c ****         /* Read the whole buffer. Set pad_done to nonzero if we find
1627:C:/Users/dtjld/workspace/AIoT/src/LiteOS_Lab/iot_link/network/dtls/mbedtls/mbedtls-2.16.2/library\rsa.c ****          * the 0x00 byte and remember the padding length in pad_count.
1628:C:/Users/dtjld/workspace/AIoT/src/LiteOS_Lab/iot_link/network/dtls/mbedtls/mbedtls-2.16.2/library\rsa.c ****          * If there's a non-0xff byte in the padding, the padding is bad. */
1629:C:/Users/dtjld/workspace/AIoT/src/LiteOS_Lab/iot_link/network/dtls/mbedtls/mbedtls-2.16.2/library\rsa.c ****         for( i = 2; i < ilen; i++ )
 5157              		.loc 1 1629 0
 5158 0194 0223     		movs	r3, #2
 5159 0196 C7F83034 		str	r3, [r7, #1072]
 5160 019a 37E0     		b	.L396
 5161              	.L397:
1630:C:/Users/dtjld/workspace/AIoT/src/LiteOS_Lab/iot_link/network/dtls/mbedtls/mbedtls-2.16.2/library\rsa.c ****         {
1631:C:/Users/dtjld/workspace/AIoT/src/LiteOS_Lab/iot_link/network/dtls/mbedtls/mbedtls-2.16.2/library\rsa.c ****             pad_done |= if_int( buf[i], 0, 1 );
 5162              		.loc 1 1631 0 discriminator 3
 5163 019c 07F11402 		add	r2, r7, #20
 5164 01a0 D7F83034 		ldr	r3, [r7, #1072]
 5165 01a4 1344     		add	r3, r3, r2
 5166 01a6 1B78     		ldrb	r3, [r3]	@ zero_extendqisi2
 5167 01a8 0122     		movs	r2, #1
 5168 01aa 0021     		movs	r1, #0
 5169 01ac 1846     		mov	r0, r3
 5170 01ae FFF7FEFF 		bl	if_int
 5171 01b2 0346     		mov	r3, r0
 5172 01b4 DAB2     		uxtb	r2, r3
 5173 01b6 97F82734 		ldrb	r3, [r7, #1063]
 5174 01ba 1343     		orrs	r3, r3, r2
 5175 01bc 87F82734 		strb	r3, [r7, #1063]
1632:C:/Users/dtjld/workspace/AIoT/src/LiteOS_Lab/iot_link/network/dtls/mbedtls/mbedtls-2.16.2/library\rsa.c ****             pad_count += if_int( pad_done, 0, 1 );
 5176              		.loc 1 1632 0 discriminator 3
 5177 01c0 97F82734 		ldrb	r3, [r7, #1063]	@ zero_extendqisi2
 5178 01c4 0122     		movs	r2, #1
 5179 01c6 0021     		movs	r1, #0
 5180 01c8 1846     		mov	r0, r3
 5181 01ca FFF7FEFF 		bl	if_int
 5182 01ce 0246     		mov	r2, r0
 5183 01d0 D7F82C34 		ldr	r3, [r7, #1068]
 5184 01d4 1344     		add	r3, r3, r2
 5185 01d6 C7F82C34 		str	r3, [r7, #1068]
1633:C:/Users/dtjld/workspace/AIoT/src/LiteOS_Lab/iot_link/network/dtls/mbedtls/mbedtls-2.16.2/library\rsa.c ****             bad |= if_int( pad_done, 0, buf[i] ^ 0xFF );
 5186              		.loc 1 1633 0 discriminator 3
 5187 01da 97F82704 		ldrb	r0, [r7, #1063]	@ zero_extendqisi2
 5188 01de 07F11402 		add	r2, r7, #20
 5189 01e2 D7F83034 		ldr	r3, [r7, #1072]
 5190 01e6 1344     		add	r3, r3, r2
ARM GAS  C:\Users\dtjld\AppData\Local\Temp\cck1fUMg.s 			page 122


 5191 01e8 1B78     		ldrb	r3, [r3]	@ zero_extendqisi2
 5192 01ea DB43     		mvns	r3, r3
 5193 01ec DBB2     		uxtb	r3, r3
 5194 01ee 1A46     		mov	r2, r3
 5195 01f0 0021     		movs	r1, #0
 5196 01f2 FFF7FEFF 		bl	if_int
 5197 01f6 0246     		mov	r2, r0
 5198 01f8 D7F82834 		ldr	r3, [r7, #1064]
 5199 01fc 1343     		orrs	r3, r3, r2
 5200 01fe C7F82834 		str	r3, [r7, #1064]
1629:C:/Users/dtjld/workspace/AIoT/src/LiteOS_Lab/iot_link/network/dtls/mbedtls/mbedtls-2.16.2/library\rsa.c ****         {
 5201              		.loc 1 1629 0 discriminator 3
 5202 0202 D7F83034 		ldr	r3, [r7, #1072]
 5203 0206 0133     		adds	r3, r3, #1
 5204 0208 C7F83034 		str	r3, [r7, #1072]
 5205              	.L396:
1629:C:/Users/dtjld/workspace/AIoT/src/LiteOS_Lab/iot_link/network/dtls/mbedtls/mbedtls-2.16.2/library\rsa.c ****         {
 5206              		.loc 1 1629 0 is_stmt 0 discriminator 1
 5207 020c D7F83024 		ldr	r2, [r7, #1072]
 5208 0210 D7F81C34 		ldr	r3, [r7, #1052]
 5209 0214 9A42     		cmp	r2, r3
 5210 0216 C1D3     		bcc	.L397
 5211              	.L395:
1634:C:/Users/dtjld/workspace/AIoT/src/LiteOS_Lab/iot_link/network/dtls/mbedtls/mbedtls-2.16.2/library\rsa.c ****         }
1635:C:/Users/dtjld/workspace/AIoT/src/LiteOS_Lab/iot_link/network/dtls/mbedtls/mbedtls-2.16.2/library\rsa.c ****     }
1636:C:/Users/dtjld/workspace/AIoT/src/LiteOS_Lab/iot_link/network/dtls/mbedtls/mbedtls-2.16.2/library\rsa.c **** 
1637:C:/Users/dtjld/workspace/AIoT/src/LiteOS_Lab/iot_link/network/dtls/mbedtls/mbedtls-2.16.2/library\rsa.c ****     /* If pad_done is still zero, there's no data, only unfinished padding. */
1638:C:/Users/dtjld/workspace/AIoT/src/LiteOS_Lab/iot_link/network/dtls/mbedtls/mbedtls-2.16.2/library\rsa.c ****     bad |= if_int( pad_done, 0, 1 );
 5212              		.loc 1 1638 0 is_stmt 1
 5213 0218 97F82734 		ldrb	r3, [r7, #1063]	@ zero_extendqisi2
 5214 021c 0122     		movs	r2, #1
 5215 021e 0021     		movs	r1, #0
 5216 0220 1846     		mov	r0, r3
 5217 0222 FFF7FEFF 		bl	if_int
 5218 0226 0246     		mov	r2, r0
 5219 0228 D7F82834 		ldr	r3, [r7, #1064]
 5220 022c 1343     		orrs	r3, r3, r2
 5221 022e C7F82834 		str	r3, [r7, #1064]
1639:C:/Users/dtjld/workspace/AIoT/src/LiteOS_Lab/iot_link/network/dtls/mbedtls/mbedtls-2.16.2/library\rsa.c **** 
1640:C:/Users/dtjld/workspace/AIoT/src/LiteOS_Lab/iot_link/network/dtls/mbedtls/mbedtls-2.16.2/library\rsa.c ****     /* There must be at least 8 bytes of padding. */
1641:C:/Users/dtjld/workspace/AIoT/src/LiteOS_Lab/iot_link/network/dtls/mbedtls/mbedtls-2.16.2/library\rsa.c ****     bad |= size_greater_than( 8, pad_count );
 5222              		.loc 1 1641 0
 5223 0232 D7F82C14 		ldr	r1, [r7, #1068]
 5224 0236 0820     		movs	r0, #8
 5225 0238 FFF7FEFF 		bl	size_greater_than
 5226 023c 0246     		mov	r2, r0
 5227 023e D7F82834 		ldr	r3, [r7, #1064]
 5228 0242 1343     		orrs	r3, r3, r2
 5229 0244 C7F82834 		str	r3, [r7, #1064]
1642:C:/Users/dtjld/workspace/AIoT/src/LiteOS_Lab/iot_link/network/dtls/mbedtls/mbedtls-2.16.2/library\rsa.c **** 
1643:C:/Users/dtjld/workspace/AIoT/src/LiteOS_Lab/iot_link/network/dtls/mbedtls/mbedtls-2.16.2/library\rsa.c ****     /* If the padding is valid, set plaintext_size to the number of
1644:C:/Users/dtjld/workspace/AIoT/src/LiteOS_Lab/iot_link/network/dtls/mbedtls/mbedtls-2.16.2/library\rsa.c ****      * remaining bytes after stripping the padding. If the padding
1645:C:/Users/dtjld/workspace/AIoT/src/LiteOS_Lab/iot_link/network/dtls/mbedtls/mbedtls-2.16.2/library\rsa.c ****      * is invalid, avoid leaking this fact through the size of the
1646:C:/Users/dtjld/workspace/AIoT/src/LiteOS_Lab/iot_link/network/dtls/mbedtls/mbedtls-2.16.2/library\rsa.c ****      * output: use the maximum message size that fits in the output
1647:C:/Users/dtjld/workspace/AIoT/src/LiteOS_Lab/iot_link/network/dtls/mbedtls/mbedtls-2.16.2/library\rsa.c ****      * buffer. Do it without branches to avoid leaking the padding
1648:C:/Users/dtjld/workspace/AIoT/src/LiteOS_Lab/iot_link/network/dtls/mbedtls/mbedtls-2.16.2/library\rsa.c ****      * validity through timing. RSA keys are small enough that all the
1649:C:/Users/dtjld/workspace/AIoT/src/LiteOS_Lab/iot_link/network/dtls/mbedtls/mbedtls-2.16.2/library\rsa.c ****      * size_t values involved fit in unsigned int. */
ARM GAS  C:\Users\dtjld\AppData\Local\Temp\cck1fUMg.s 			page 123


1650:C:/Users/dtjld/workspace/AIoT/src/LiteOS_Lab/iot_link/network/dtls/mbedtls/mbedtls-2.16.2/library\rsa.c ****     plaintext_size = if_int( bad,
1651:C:/Users/dtjld/workspace/AIoT/src/LiteOS_Lab/iot_link/network/dtls/mbedtls/mbedtls-2.16.2/library\rsa.c ****                              (unsigned) plaintext_max_size,
1652:C:/Users/dtjld/workspace/AIoT/src/LiteOS_Lab/iot_link/network/dtls/mbedtls/mbedtls-2.16.2/library\rsa.c ****                              (unsigned) ( ilen - pad_count - 3 ) );
 5230              		.loc 1 1652 0
 5231 0248 D7F81C24 		ldr	r2, [r7, #1052]
 5232 024c D7F82C34 		ldr	r3, [r7, #1068]
 5233 0250 D31A     		subs	r3, r2, r3
 5234 0252 033B     		subs	r3, r3, #3
1650:C:/Users/dtjld/workspace/AIoT/src/LiteOS_Lab/iot_link/network/dtls/mbedtls/mbedtls-2.16.2/library\rsa.c ****                              (unsigned) plaintext_max_size,
 5235              		.loc 1 1650 0
 5236 0254 1A46     		mov	r2, r3
 5237 0256 D7F81814 		ldr	r1, [r7, #1048]
 5238 025a D7F82804 		ldr	r0, [r7, #1064]
 5239 025e FFF7FEFF 		bl	if_int
 5240 0262 C7F82004 		str	r0, [r7, #1056]
1653:C:/Users/dtjld/workspace/AIoT/src/LiteOS_Lab/iot_link/network/dtls/mbedtls/mbedtls-2.16.2/library\rsa.c **** 
1654:C:/Users/dtjld/workspace/AIoT/src/LiteOS_Lab/iot_link/network/dtls/mbedtls/mbedtls-2.16.2/library\rsa.c ****     /* Set output_too_large to 0 if the plaintext fits in the output
1655:C:/Users/dtjld/workspace/AIoT/src/LiteOS_Lab/iot_link/network/dtls/mbedtls/mbedtls-2.16.2/library\rsa.c ****      * buffer and to 1 otherwise. */
1656:C:/Users/dtjld/workspace/AIoT/src/LiteOS_Lab/iot_link/network/dtls/mbedtls/mbedtls-2.16.2/library\rsa.c ****     output_too_large = size_greater_than( plaintext_size,
 5241              		.loc 1 1656 0
 5242 0266 D7F81814 		ldr	r1, [r7, #1048]
 5243 026a D7F82004 		ldr	r0, [r7, #1056]
 5244 026e FFF7FEFF 		bl	size_greater_than
 5245 0272 C7F81404 		str	r0, [r7, #1044]
1657:C:/Users/dtjld/workspace/AIoT/src/LiteOS_Lab/iot_link/network/dtls/mbedtls/mbedtls-2.16.2/library\rsa.c ****                                           plaintext_max_size );
1658:C:/Users/dtjld/workspace/AIoT/src/LiteOS_Lab/iot_link/network/dtls/mbedtls/mbedtls-2.16.2/library\rsa.c **** 
1659:C:/Users/dtjld/workspace/AIoT/src/LiteOS_Lab/iot_link/network/dtls/mbedtls/mbedtls-2.16.2/library\rsa.c ****     /* Set ret without branches to avoid timing attacks. Return:
1660:C:/Users/dtjld/workspace/AIoT/src/LiteOS_Lab/iot_link/network/dtls/mbedtls/mbedtls-2.16.2/library\rsa.c ****      * - INVALID_PADDING if the padding is bad (bad != 0).
1661:C:/Users/dtjld/workspace/AIoT/src/LiteOS_Lab/iot_link/network/dtls/mbedtls/mbedtls-2.16.2/library\rsa.c ****      * - OUTPUT_TOO_LARGE if the padding is good but the decrypted
1662:C:/Users/dtjld/workspace/AIoT/src/LiteOS_Lab/iot_link/network/dtls/mbedtls/mbedtls-2.16.2/library\rsa.c ****      *   plaintext does not fit in the output buffer.
1663:C:/Users/dtjld/workspace/AIoT/src/LiteOS_Lab/iot_link/network/dtls/mbedtls/mbedtls-2.16.2/library\rsa.c ****      * - 0 if the padding is correct. */
1664:C:/Users/dtjld/workspace/AIoT/src/LiteOS_Lab/iot_link/network/dtls/mbedtls/mbedtls-2.16.2/library\rsa.c ****     ret = - (int) if_int( bad, - MBEDTLS_ERR_RSA_INVALID_PADDING,
 5246              		.loc 1 1664 0
 5247 0276 0022     		movs	r2, #0
 5248 0278 4FF48841 		mov	r1, #17408
 5249 027c D7F81404 		ldr	r0, [r7, #1044]
 5250 0280 FFF7FEFF 		bl	if_int
 5251 0284 0346     		mov	r3, r0
 5252 0286 1A46     		mov	r2, r3
 5253 0288 4FF48241 		mov	r1, #16640
 5254 028c D7F82804 		ldr	r0, [r7, #1064]
 5255 0290 FFF7FEFF 		bl	if_int
 5256 0294 0346     		mov	r3, r0
 5257 0296 5B42     		negs	r3, r3
 5258 0298 C7F83434 		str	r3, [r7, #1076]
1665:C:/Users/dtjld/workspace/AIoT/src/LiteOS_Lab/iot_link/network/dtls/mbedtls/mbedtls-2.16.2/library\rsa.c ****                   if_int( output_too_large, - MBEDTLS_ERR_RSA_OUTPUT_TOO_LARGE,
1666:C:/Users/dtjld/workspace/AIoT/src/LiteOS_Lab/iot_link/network/dtls/mbedtls/mbedtls-2.16.2/library\rsa.c ****                           0 ) );
1667:C:/Users/dtjld/workspace/AIoT/src/LiteOS_Lab/iot_link/network/dtls/mbedtls/mbedtls-2.16.2/library\rsa.c **** 
1668:C:/Users/dtjld/workspace/AIoT/src/LiteOS_Lab/iot_link/network/dtls/mbedtls/mbedtls-2.16.2/library\rsa.c ****     /* If the padding is bad or the plaintext is too large, zero the
1669:C:/Users/dtjld/workspace/AIoT/src/LiteOS_Lab/iot_link/network/dtls/mbedtls/mbedtls-2.16.2/library\rsa.c ****      * data that we're about to copy to the output buffer.
1670:C:/Users/dtjld/workspace/AIoT/src/LiteOS_Lab/iot_link/network/dtls/mbedtls/mbedtls-2.16.2/library\rsa.c ****      * We need to copy the same amount of data
1671:C:/Users/dtjld/workspace/AIoT/src/LiteOS_Lab/iot_link/network/dtls/mbedtls/mbedtls-2.16.2/library\rsa.c ****      * from the same buffer whether the padding is good or not to
1672:C:/Users/dtjld/workspace/AIoT/src/LiteOS_Lab/iot_link/network/dtls/mbedtls/mbedtls-2.16.2/library\rsa.c ****      * avoid leaking the padding validity through overall timing or
1673:C:/Users/dtjld/workspace/AIoT/src/LiteOS_Lab/iot_link/network/dtls/mbedtls/mbedtls-2.16.2/library\rsa.c ****      * through memory or cache access patterns. */
1674:C:/Users/dtjld/workspace/AIoT/src/LiteOS_Lab/iot_link/network/dtls/mbedtls/mbedtls-2.16.2/library\rsa.c ****     bad = all_or_nothing_int( bad | output_too_large );
 5259              		.loc 1 1674 0
 5260 029c D7F82824 		ldr	r2, [r7, #1064]
ARM GAS  C:\Users\dtjld\AppData\Local\Temp\cck1fUMg.s 			page 124


 5261 02a0 D7F81434 		ldr	r3, [r7, #1044]
 5262 02a4 1343     		orrs	r3, r3, r2
 5263 02a6 1846     		mov	r0, r3
 5264 02a8 FFF7FEFF 		bl	all_or_nothing_int
 5265 02ac C7F82804 		str	r0, [r7, #1064]
1675:C:/Users/dtjld/workspace/AIoT/src/LiteOS_Lab/iot_link/network/dtls/mbedtls/mbedtls-2.16.2/library\rsa.c ****     for( i = 11; i < ilen; i++ )
 5266              		.loc 1 1675 0
 5267 02b0 0B23     		movs	r3, #11
 5268 02b2 C7F83034 		str	r3, [r7, #1072]
 5269 02b6 18E0     		b	.L398
 5270              	.L399:
1676:C:/Users/dtjld/workspace/AIoT/src/LiteOS_Lab/iot_link/network/dtls/mbedtls/mbedtls-2.16.2/library\rsa.c ****         buf[i] &= ~bad;
 5271              		.loc 1 1676 0 discriminator 3
 5272 02b8 07F11402 		add	r2, r7, #20
 5273 02bc D7F83034 		ldr	r3, [r7, #1072]
 5274 02c0 1344     		add	r3, r3, r2
 5275 02c2 1A78     		ldrb	r2, [r3]	@ zero_extendqisi2
 5276 02c4 D7F82834 		ldr	r3, [r7, #1064]
 5277 02c8 DBB2     		uxtb	r3, r3
 5278 02ca DB43     		mvns	r3, r3
 5279 02cc DBB2     		uxtb	r3, r3
 5280 02ce 1340     		ands	r3, r3, r2
 5281 02d0 D9B2     		uxtb	r1, r3
 5282 02d2 07F11402 		add	r2, r7, #20
 5283 02d6 D7F83034 		ldr	r3, [r7, #1072]
 5284 02da 1344     		add	r3, r3, r2
 5285 02dc 0A46     		mov	r2, r1
 5286 02de 1A70     		strb	r2, [r3]
1675:C:/Users/dtjld/workspace/AIoT/src/LiteOS_Lab/iot_link/network/dtls/mbedtls/mbedtls-2.16.2/library\rsa.c ****     for( i = 11; i < ilen; i++ )
 5287              		.loc 1 1675 0 discriminator 3
 5288 02e0 D7F83034 		ldr	r3, [r7, #1072]
 5289 02e4 0133     		adds	r3, r3, #1
 5290 02e6 C7F83034 		str	r3, [r7, #1072]
 5291              	.L398:
1675:C:/Users/dtjld/workspace/AIoT/src/LiteOS_Lab/iot_link/network/dtls/mbedtls/mbedtls-2.16.2/library\rsa.c ****     for( i = 11; i < ilen; i++ )
 5292              		.loc 1 1675 0 is_stmt 0 discriminator 1
 5293 02ea D7F83024 		ldr	r2, [r7, #1072]
 5294 02ee D7F81C34 		ldr	r3, [r7, #1052]
 5295 02f2 9A42     		cmp	r2, r3
 5296 02f4 E0D3     		bcc	.L399
1677:C:/Users/dtjld/workspace/AIoT/src/LiteOS_Lab/iot_link/network/dtls/mbedtls/mbedtls-2.16.2/library\rsa.c **** 
1678:C:/Users/dtjld/workspace/AIoT/src/LiteOS_Lab/iot_link/network/dtls/mbedtls/mbedtls-2.16.2/library\rsa.c ****     /* If the plaintext is too large, truncate it to the buffer size.
1679:C:/Users/dtjld/workspace/AIoT/src/LiteOS_Lab/iot_link/network/dtls/mbedtls/mbedtls-2.16.2/library\rsa.c ****      * Copy anyway to avoid revealing the length through timing, because
1680:C:/Users/dtjld/workspace/AIoT/src/LiteOS_Lab/iot_link/network/dtls/mbedtls/mbedtls-2.16.2/library\rsa.c ****      * revealing the length is as bad as revealing the padding validity
1681:C:/Users/dtjld/workspace/AIoT/src/LiteOS_Lab/iot_link/network/dtls/mbedtls/mbedtls-2.16.2/library\rsa.c ****      * for a Bleichenbacher attack. */
1682:C:/Users/dtjld/workspace/AIoT/src/LiteOS_Lab/iot_link/network/dtls/mbedtls/mbedtls-2.16.2/library\rsa.c ****     plaintext_size = if_int( output_too_large,
 5297              		.loc 1 1682 0 is_stmt 1
 5298 02f6 D7F82024 		ldr	r2, [r7, #1056]
 5299 02fa D7F81814 		ldr	r1, [r7, #1048]
 5300 02fe D7F81404 		ldr	r0, [r7, #1044]
 5301 0302 FFF7FEFF 		bl	if_int
 5302 0306 C7F82004 		str	r0, [r7, #1056]
1683:C:/Users/dtjld/workspace/AIoT/src/LiteOS_Lab/iot_link/network/dtls/mbedtls/mbedtls-2.16.2/library\rsa.c ****                              (unsigned) plaintext_max_size,
1684:C:/Users/dtjld/workspace/AIoT/src/LiteOS_Lab/iot_link/network/dtls/mbedtls/mbedtls-2.16.2/library\rsa.c ****                              (unsigned) plaintext_size );
1685:C:/Users/dtjld/workspace/AIoT/src/LiteOS_Lab/iot_link/network/dtls/mbedtls/mbedtls-2.16.2/library\rsa.c **** 
1686:C:/Users/dtjld/workspace/AIoT/src/LiteOS_Lab/iot_link/network/dtls/mbedtls/mbedtls-2.16.2/library\rsa.c ****     /* Move the plaintext to the leftmost position where it can start in
1687:C:/Users/dtjld/workspace/AIoT/src/LiteOS_Lab/iot_link/network/dtls/mbedtls/mbedtls-2.16.2/library\rsa.c ****      * the working buffer, i.e. make it start plaintext_max_size from
ARM GAS  C:\Users\dtjld\AppData\Local\Temp\cck1fUMg.s 			page 125


1688:C:/Users/dtjld/workspace/AIoT/src/LiteOS_Lab/iot_link/network/dtls/mbedtls/mbedtls-2.16.2/library\rsa.c ****      * the end of the buffer. Do this with a memory access trace that
1689:C:/Users/dtjld/workspace/AIoT/src/LiteOS_Lab/iot_link/network/dtls/mbedtls/mbedtls-2.16.2/library\rsa.c ****      * does not depend on the plaintext size. After this move, the
1690:C:/Users/dtjld/workspace/AIoT/src/LiteOS_Lab/iot_link/network/dtls/mbedtls/mbedtls-2.16.2/library\rsa.c ****      * starting location of the plaintext is no longer sensitive
1691:C:/Users/dtjld/workspace/AIoT/src/LiteOS_Lab/iot_link/network/dtls/mbedtls/mbedtls-2.16.2/library\rsa.c ****      * information. */
1692:C:/Users/dtjld/workspace/AIoT/src/LiteOS_Lab/iot_link/network/dtls/mbedtls/mbedtls-2.16.2/library\rsa.c ****     mem_move_to_left( buf + ilen - plaintext_max_size,
 5303              		.loc 1 1692 0
 5304 030a D7F81C24 		ldr	r2, [r7, #1052]
 5305 030e D7F81834 		ldr	r3, [r7, #1048]
 5306 0312 D31A     		subs	r3, r2, r3
 5307 0314 07F11402 		add	r2, r7, #20
 5308 0318 D018     		adds	r0, r2, r3
 5309 031a D7F81824 		ldr	r2, [r7, #1048]
 5310 031e D7F82034 		ldr	r3, [r7, #1056]
 5311 0322 D31A     		subs	r3, r2, r3
 5312 0324 1A46     		mov	r2, r3
 5313 0326 D7F81814 		ldr	r1, [r7, #1048]
 5314 032a FFF7FEFF 		bl	mem_move_to_left
1693:C:/Users/dtjld/workspace/AIoT/src/LiteOS_Lab/iot_link/network/dtls/mbedtls/mbedtls-2.16.2/library\rsa.c ****                       plaintext_max_size,
1694:C:/Users/dtjld/workspace/AIoT/src/LiteOS_Lab/iot_link/network/dtls/mbedtls/mbedtls-2.16.2/library\rsa.c ****                       plaintext_max_size - plaintext_size );
1695:C:/Users/dtjld/workspace/AIoT/src/LiteOS_Lab/iot_link/network/dtls/mbedtls/mbedtls-2.16.2/library\rsa.c **** 
1696:C:/Users/dtjld/workspace/AIoT/src/LiteOS_Lab/iot_link/network/dtls/mbedtls/mbedtls-2.16.2/library\rsa.c ****     /* Finally copy the decrypted plaintext plus trailing zeros
1697:C:/Users/dtjld/workspace/AIoT/src/LiteOS_Lab/iot_link/network/dtls/mbedtls/mbedtls-2.16.2/library\rsa.c ****      * into the output buffer. */
1698:C:/Users/dtjld/workspace/AIoT/src/LiteOS_Lab/iot_link/network/dtls/mbedtls/mbedtls-2.16.2/library\rsa.c ****     memcpy( output, buf + ilen - plaintext_max_size, plaintext_max_size );
 5315              		.loc 1 1698 0
 5316 032e D7F81C24 		ldr	r2, [r7, #1052]
 5317 0332 D7F81834 		ldr	r3, [r7, #1048]
 5318 0336 D31A     		subs	r3, r2, r3
 5319 0338 07F11402 		add	r2, r7, #20
 5320 033c 1344     		add	r3, r3, r2
 5321 033e D7F81824 		ldr	r2, [r7, #1048]
 5322 0342 1946     		mov	r1, r3
 5323 0344 D7F85004 		ldr	r0, [r7, #1104]
 5324 0348 FFF7FEFF 		bl	memcpy
1699:C:/Users/dtjld/workspace/AIoT/src/LiteOS_Lab/iot_link/network/dtls/mbedtls/mbedtls-2.16.2/library\rsa.c **** 
1700:C:/Users/dtjld/workspace/AIoT/src/LiteOS_Lab/iot_link/network/dtls/mbedtls/mbedtls-2.16.2/library\rsa.c ****     /* Report the amount of data we copied to the output buffer. In case
1701:C:/Users/dtjld/workspace/AIoT/src/LiteOS_Lab/iot_link/network/dtls/mbedtls/mbedtls-2.16.2/library\rsa.c ****      * of errors (bad padding or output too large), the value of *olen
1702:C:/Users/dtjld/workspace/AIoT/src/LiteOS_Lab/iot_link/network/dtls/mbedtls/mbedtls-2.16.2/library\rsa.c ****      * when this function returns is not specified. Making it equivalent
1703:C:/Users/dtjld/workspace/AIoT/src/LiteOS_Lab/iot_link/network/dtls/mbedtls/mbedtls-2.16.2/library\rsa.c ****      * to the good case limits the risks of leaking the padding validity. */
1704:C:/Users/dtjld/workspace/AIoT/src/LiteOS_Lab/iot_link/network/dtls/mbedtls/mbedtls-2.16.2/library\rsa.c ****     *olen = plaintext_size;
 5325              		.loc 1 1704 0
 5326 034c D7F84834 		ldr	r3, [r7, #1096]
 5327 0350 D7F82024 		ldr	r2, [r7, #1056]
 5328 0354 1A60     		str	r2, [r3]
 5329 0356 00E0     		b	.L391
 5330              	.L401:
1600:C:/Users/dtjld/workspace/AIoT/src/LiteOS_Lab/iot_link/network/dtls/mbedtls/mbedtls-2.16.2/library\rsa.c **** 
 5331              		.loc 1 1600 0
 5332 0358 00BF     		nop
 5333              	.L391:
1705:C:/Users/dtjld/workspace/AIoT/src/LiteOS_Lab/iot_link/network/dtls/mbedtls/mbedtls-2.16.2/library\rsa.c **** 
1706:C:/Users/dtjld/workspace/AIoT/src/LiteOS_Lab/iot_link/network/dtls/mbedtls/mbedtls-2.16.2/library\rsa.c **** cleanup:
1707:C:/Users/dtjld/workspace/AIoT/src/LiteOS_Lab/iot_link/network/dtls/mbedtls/mbedtls-2.16.2/library\rsa.c ****     mbedtls_platform_zeroize( buf, sizeof( buf ) );
 5334              		.loc 1 1707 0
 5335 035a 07F11403 		add	r3, r7, #20
 5336 035e 4FF48061 		mov	r1, #1024
 5337 0362 1846     		mov	r0, r3
 5338 0364 FFF7FEFF 		bl	mbedtls_platform_zeroize
ARM GAS  C:\Users\dtjld\AppData\Local\Temp\cck1fUMg.s 			page 126


1708:C:/Users/dtjld/workspace/AIoT/src/LiteOS_Lab/iot_link/network/dtls/mbedtls/mbedtls-2.16.2/library\rsa.c **** 
1709:C:/Users/dtjld/workspace/AIoT/src/LiteOS_Lab/iot_link/network/dtls/mbedtls/mbedtls-2.16.2/library\rsa.c ****     return( ret );
 5339              		.loc 1 1709 0
 5340 0368 D7F83434 		ldr	r3, [r7, #1076]
 5341              	.L400:
1710:C:/Users/dtjld/workspace/AIoT/src/LiteOS_Lab/iot_link/network/dtls/mbedtls/mbedtls-2.16.2/library\rsa.c **** }
 5342              		.loc 1 1710 0 discriminator 1
 5343 036c 1846     		mov	r0, r3
 5344 036e 07F23C47 		addw	r7, r7, #1084
 5345              	.LCFI143:
 5346              		.cfi_def_cfa_offset 12
 5347 0372 BD46     		mov	sp, r7
 5348              	.LCFI144:
 5349              		.cfi_def_cfa_register 13
 5350              		@ sp needed
 5351 0374 90BD     		pop	{r4, r7, pc}
 5352              	.L403:
 5353 0376 00BF     		.align	2
 5354              	.L402:
 5355 0378 80BFFFFF 		.word	-16512
 5356              		.cfi_endproc
 5357              	.LFE40:
 5359              		.section	.text.mbedtls_rsa_pkcs1_decrypt,"ax",%progbits
 5360              		.align	1
 5361              		.global	mbedtls_rsa_pkcs1_decrypt
 5362              		.syntax unified
 5363              		.thumb
 5364              		.thumb_func
 5365              		.fpu fpv4-sp-d16
 5367              	mbedtls_rsa_pkcs1_decrypt:
 5368              	.LFB41:
1711:C:/Users/dtjld/workspace/AIoT/src/LiteOS_Lab/iot_link/network/dtls/mbedtls/mbedtls-2.16.2/library\rsa.c **** #endif /* MBEDTLS_PKCS1_V15 */
1712:C:/Users/dtjld/workspace/AIoT/src/LiteOS_Lab/iot_link/network/dtls/mbedtls/mbedtls-2.16.2/library\rsa.c **** 
1713:C:/Users/dtjld/workspace/AIoT/src/LiteOS_Lab/iot_link/network/dtls/mbedtls/mbedtls-2.16.2/library\rsa.c **** /*
1714:C:/Users/dtjld/workspace/AIoT/src/LiteOS_Lab/iot_link/network/dtls/mbedtls/mbedtls-2.16.2/library\rsa.c ****  * Do an RSA operation, then remove the message padding
1715:C:/Users/dtjld/workspace/AIoT/src/LiteOS_Lab/iot_link/network/dtls/mbedtls/mbedtls-2.16.2/library\rsa.c ****  */
1716:C:/Users/dtjld/workspace/AIoT/src/LiteOS_Lab/iot_link/network/dtls/mbedtls/mbedtls-2.16.2/library\rsa.c **** int mbedtls_rsa_pkcs1_decrypt( mbedtls_rsa_context *ctx,
1717:C:/Users/dtjld/workspace/AIoT/src/LiteOS_Lab/iot_link/network/dtls/mbedtls/mbedtls-2.16.2/library\rsa.c ****                        int (*f_rng)(void *, unsigned char *, size_t),
1718:C:/Users/dtjld/workspace/AIoT/src/LiteOS_Lab/iot_link/network/dtls/mbedtls/mbedtls-2.16.2/library\rsa.c ****                        void *p_rng,
1719:C:/Users/dtjld/workspace/AIoT/src/LiteOS_Lab/iot_link/network/dtls/mbedtls/mbedtls-2.16.2/library\rsa.c ****                        int mode, size_t *olen,
1720:C:/Users/dtjld/workspace/AIoT/src/LiteOS_Lab/iot_link/network/dtls/mbedtls/mbedtls-2.16.2/library\rsa.c ****                        const unsigned char *input,
1721:C:/Users/dtjld/workspace/AIoT/src/LiteOS_Lab/iot_link/network/dtls/mbedtls/mbedtls-2.16.2/library\rsa.c ****                        unsigned char *output,
1722:C:/Users/dtjld/workspace/AIoT/src/LiteOS_Lab/iot_link/network/dtls/mbedtls/mbedtls-2.16.2/library\rsa.c ****                        size_t output_max_len)
1723:C:/Users/dtjld/workspace/AIoT/src/LiteOS_Lab/iot_link/network/dtls/mbedtls/mbedtls-2.16.2/library\rsa.c **** {
 5369              		.loc 1 1723 0
 5370              		.cfi_startproc
 5371              		@ args = 16, pretend = 0, frame = 16
 5372              		@ frame_needed = 1, uses_anonymous_args = 0
 5373 0000 80B5     		push	{r7, lr}
 5374              	.LCFI145:
 5375              		.cfi_def_cfa_offset 8
 5376              		.cfi_offset 7, -8
 5377              		.cfi_offset 14, -4
 5378 0002 8AB0     		sub	sp, sp, #40
 5379              	.LCFI146:
 5380              		.cfi_def_cfa_offset 48
 5381 0004 06AF     		add	r7, sp, #24
ARM GAS  C:\Users\dtjld\AppData\Local\Temp\cck1fUMg.s 			page 127


 5382              	.LCFI147:
 5383              		.cfi_def_cfa 7, 24
 5384 0006 F860     		str	r0, [r7, #12]
 5385 0008 B960     		str	r1, [r7, #8]
 5386 000a 7A60     		str	r2, [r7, #4]
 5387 000c 3B60     		str	r3, [r7]
1724:C:/Users/dtjld/workspace/AIoT/src/LiteOS_Lab/iot_link/network/dtls/mbedtls/mbedtls-2.16.2/library\rsa.c ****     RSA_VALIDATE_RET( ctx != NULL );
1725:C:/Users/dtjld/workspace/AIoT/src/LiteOS_Lab/iot_link/network/dtls/mbedtls/mbedtls-2.16.2/library\rsa.c ****     RSA_VALIDATE_RET( mode == MBEDTLS_RSA_PRIVATE ||
1726:C:/Users/dtjld/workspace/AIoT/src/LiteOS_Lab/iot_link/network/dtls/mbedtls/mbedtls-2.16.2/library\rsa.c ****                       mode == MBEDTLS_RSA_PUBLIC );
1727:C:/Users/dtjld/workspace/AIoT/src/LiteOS_Lab/iot_link/network/dtls/mbedtls/mbedtls-2.16.2/library\rsa.c ****     RSA_VALIDATE_RET( output_max_len == 0 || output != NULL );
1728:C:/Users/dtjld/workspace/AIoT/src/LiteOS_Lab/iot_link/network/dtls/mbedtls/mbedtls-2.16.2/library\rsa.c ****     RSA_VALIDATE_RET( input != NULL );
1729:C:/Users/dtjld/workspace/AIoT/src/LiteOS_Lab/iot_link/network/dtls/mbedtls/mbedtls-2.16.2/library\rsa.c ****     RSA_VALIDATE_RET( olen != NULL );
1730:C:/Users/dtjld/workspace/AIoT/src/LiteOS_Lab/iot_link/network/dtls/mbedtls/mbedtls-2.16.2/library\rsa.c **** 
1731:C:/Users/dtjld/workspace/AIoT/src/LiteOS_Lab/iot_link/network/dtls/mbedtls/mbedtls-2.16.2/library\rsa.c ****     switch( ctx->padding )
 5388              		.loc 1 1731 0
 5389 000e FB68     		ldr	r3, [r7, #12]
 5390 0010 D3F8A430 		ldr	r3, [r3, #164]
 5391 0014 002B     		cmp	r3, #0
 5392 0016 02D0     		beq	.L406
 5393 0018 012B     		cmp	r3, #1
 5394 001a 10D0     		beq	.L407
 5395 001c 23E0     		b	.L409
 5396              	.L406:
1732:C:/Users/dtjld/workspace/AIoT/src/LiteOS_Lab/iot_link/network/dtls/mbedtls/mbedtls-2.16.2/library\rsa.c ****     {
1733:C:/Users/dtjld/workspace/AIoT/src/LiteOS_Lab/iot_link/network/dtls/mbedtls/mbedtls-2.16.2/library\rsa.c **** #if defined(MBEDTLS_PKCS1_V15)
1734:C:/Users/dtjld/workspace/AIoT/src/LiteOS_Lab/iot_link/network/dtls/mbedtls/mbedtls-2.16.2/library\rsa.c ****         case MBEDTLS_RSA_PKCS_V15:
1735:C:/Users/dtjld/workspace/AIoT/src/LiteOS_Lab/iot_link/network/dtls/mbedtls/mbedtls-2.16.2/library\rsa.c ****             return mbedtls_rsa_rsaes_pkcs1_v15_decrypt( ctx, f_rng, p_rng, mode, olen,
 5397              		.loc 1 1735 0
 5398 001e 7B6A     		ldr	r3, [r7, #36]
 5399 0020 0393     		str	r3, [sp, #12]
 5400 0022 3B6A     		ldr	r3, [r7, #32]
 5401 0024 0293     		str	r3, [sp, #8]
 5402 0026 FB69     		ldr	r3, [r7, #28]
 5403 0028 0193     		str	r3, [sp, #4]
 5404 002a BB69     		ldr	r3, [r7, #24]
 5405 002c 0093     		str	r3, [sp]
 5406 002e 3B68     		ldr	r3, [r7]
 5407 0030 7A68     		ldr	r2, [r7, #4]
 5408 0032 B968     		ldr	r1, [r7, #8]
 5409 0034 F868     		ldr	r0, [r7, #12]
 5410 0036 FFF7FEFF 		bl	mbedtls_rsa_rsaes_pkcs1_v15_decrypt
 5411 003a 0346     		mov	r3, r0
 5412 003c 14E0     		b	.L408
 5413              	.L407:
1736:C:/Users/dtjld/workspace/AIoT/src/LiteOS_Lab/iot_link/network/dtls/mbedtls/mbedtls-2.16.2/library\rsa.c ****                                                 input, output, output_max_len );
1737:C:/Users/dtjld/workspace/AIoT/src/LiteOS_Lab/iot_link/network/dtls/mbedtls/mbedtls-2.16.2/library\rsa.c **** #endif
1738:C:/Users/dtjld/workspace/AIoT/src/LiteOS_Lab/iot_link/network/dtls/mbedtls/mbedtls-2.16.2/library\rsa.c **** 
1739:C:/Users/dtjld/workspace/AIoT/src/LiteOS_Lab/iot_link/network/dtls/mbedtls/mbedtls-2.16.2/library\rsa.c **** #if defined(MBEDTLS_PKCS1_V21)
1740:C:/Users/dtjld/workspace/AIoT/src/LiteOS_Lab/iot_link/network/dtls/mbedtls/mbedtls-2.16.2/library\rsa.c ****         case MBEDTLS_RSA_PKCS_V21:
1741:C:/Users/dtjld/workspace/AIoT/src/LiteOS_Lab/iot_link/network/dtls/mbedtls/mbedtls-2.16.2/library\rsa.c ****             return mbedtls_rsa_rsaes_oaep_decrypt( ctx, f_rng, p_rng, mode, NULL, 0,
 5414              		.loc 1 1741 0
 5415 003e 7B6A     		ldr	r3, [r7, #36]
 5416 0040 0593     		str	r3, [sp, #20]
 5417 0042 3B6A     		ldr	r3, [r7, #32]
 5418 0044 0493     		str	r3, [sp, #16]
 5419 0046 FB69     		ldr	r3, [r7, #28]
 5420 0048 0393     		str	r3, [sp, #12]
ARM GAS  C:\Users\dtjld\AppData\Local\Temp\cck1fUMg.s 			page 128


 5421 004a BB69     		ldr	r3, [r7, #24]
 5422 004c 0293     		str	r3, [sp, #8]
 5423 004e 0023     		movs	r3, #0
 5424 0050 0193     		str	r3, [sp, #4]
 5425 0052 0023     		movs	r3, #0
 5426 0054 0093     		str	r3, [sp]
 5427 0056 3B68     		ldr	r3, [r7]
 5428 0058 7A68     		ldr	r2, [r7, #4]
 5429 005a B968     		ldr	r1, [r7, #8]
 5430 005c F868     		ldr	r0, [r7, #12]
 5431 005e FFF7FEFF 		bl	mbedtls_rsa_rsaes_oaep_decrypt
 5432 0062 0346     		mov	r3, r0
 5433 0064 00E0     		b	.L408
 5434              	.L409:
1742:C:/Users/dtjld/workspace/AIoT/src/LiteOS_Lab/iot_link/network/dtls/mbedtls/mbedtls-2.16.2/library\rsa.c ****                                            olen, input, output,
1743:C:/Users/dtjld/workspace/AIoT/src/LiteOS_Lab/iot_link/network/dtls/mbedtls/mbedtls-2.16.2/library\rsa.c ****                                            output_max_len );
1744:C:/Users/dtjld/workspace/AIoT/src/LiteOS_Lab/iot_link/network/dtls/mbedtls/mbedtls-2.16.2/library\rsa.c **** #endif
1745:C:/Users/dtjld/workspace/AIoT/src/LiteOS_Lab/iot_link/network/dtls/mbedtls/mbedtls-2.16.2/library\rsa.c **** 
1746:C:/Users/dtjld/workspace/AIoT/src/LiteOS_Lab/iot_link/network/dtls/mbedtls/mbedtls-2.16.2/library\rsa.c ****         default:
1747:C:/Users/dtjld/workspace/AIoT/src/LiteOS_Lab/iot_link/network/dtls/mbedtls/mbedtls-2.16.2/library\rsa.c ****             return( MBEDTLS_ERR_RSA_INVALID_PADDING );
 5435              		.loc 1 1747 0
 5436 0066 024B     		ldr	r3, .L410
 5437              	.L408:
1748:C:/Users/dtjld/workspace/AIoT/src/LiteOS_Lab/iot_link/network/dtls/mbedtls/mbedtls-2.16.2/library\rsa.c ****     }
1749:C:/Users/dtjld/workspace/AIoT/src/LiteOS_Lab/iot_link/network/dtls/mbedtls/mbedtls-2.16.2/library\rsa.c **** }
 5438              		.loc 1 1749 0
 5439 0068 1846     		mov	r0, r3
 5440 006a 1037     		adds	r7, r7, #16
 5441              	.LCFI148:
 5442              		.cfi_def_cfa_offset 8
 5443 006c BD46     		mov	sp, r7
 5444              	.LCFI149:
 5445              		.cfi_def_cfa_register 13
 5446              		@ sp needed
 5447 006e 80BD     		pop	{r7, pc}
 5448              	.L411:
 5449              		.align	2
 5450              	.L410:
 5451 0070 00BFFFFF 		.word	-16640
 5452              		.cfi_endproc
 5453              	.LFE41:
 5455              		.section	.text.mbedtls_rsa_rsassa_pss_sign,"ax",%progbits
 5456              		.align	1
 5457              		.global	mbedtls_rsa_rsassa_pss_sign
 5458              		.syntax unified
 5459              		.thumb
 5460              		.thumb_func
 5461              		.fpu fpv4-sp-d16
 5463              	mbedtls_rsa_rsassa_pss_sign:
 5464              	.LFB42:
1750:C:/Users/dtjld/workspace/AIoT/src/LiteOS_Lab/iot_link/network/dtls/mbedtls/mbedtls-2.16.2/library\rsa.c **** 
1751:C:/Users/dtjld/workspace/AIoT/src/LiteOS_Lab/iot_link/network/dtls/mbedtls/mbedtls-2.16.2/library\rsa.c **** #if defined(MBEDTLS_PKCS1_V21)
1752:C:/Users/dtjld/workspace/AIoT/src/LiteOS_Lab/iot_link/network/dtls/mbedtls/mbedtls-2.16.2/library\rsa.c **** /*
1753:C:/Users/dtjld/workspace/AIoT/src/LiteOS_Lab/iot_link/network/dtls/mbedtls/mbedtls-2.16.2/library\rsa.c ****  * Implementation of the PKCS#1 v2.1 RSASSA-PSS-SIGN function
1754:C:/Users/dtjld/workspace/AIoT/src/LiteOS_Lab/iot_link/network/dtls/mbedtls/mbedtls-2.16.2/library\rsa.c ****  */
1755:C:/Users/dtjld/workspace/AIoT/src/LiteOS_Lab/iot_link/network/dtls/mbedtls/mbedtls-2.16.2/library\rsa.c **** int mbedtls_rsa_rsassa_pss_sign( mbedtls_rsa_context *ctx,
1756:C:/Users/dtjld/workspace/AIoT/src/LiteOS_Lab/iot_link/network/dtls/mbedtls/mbedtls-2.16.2/library\rsa.c ****                          int (*f_rng)(void *, unsigned char *, size_t),
ARM GAS  C:\Users\dtjld\AppData\Local\Temp\cck1fUMg.s 			page 129


1757:C:/Users/dtjld/workspace/AIoT/src/LiteOS_Lab/iot_link/network/dtls/mbedtls/mbedtls-2.16.2/library\rsa.c ****                          void *p_rng,
1758:C:/Users/dtjld/workspace/AIoT/src/LiteOS_Lab/iot_link/network/dtls/mbedtls/mbedtls-2.16.2/library\rsa.c ****                          int mode,
1759:C:/Users/dtjld/workspace/AIoT/src/LiteOS_Lab/iot_link/network/dtls/mbedtls/mbedtls-2.16.2/library\rsa.c ****                          mbedtls_md_type_t md_alg,
1760:C:/Users/dtjld/workspace/AIoT/src/LiteOS_Lab/iot_link/network/dtls/mbedtls/mbedtls-2.16.2/library\rsa.c ****                          unsigned int hashlen,
1761:C:/Users/dtjld/workspace/AIoT/src/LiteOS_Lab/iot_link/network/dtls/mbedtls/mbedtls-2.16.2/library\rsa.c ****                          const unsigned char *hash,
1762:C:/Users/dtjld/workspace/AIoT/src/LiteOS_Lab/iot_link/network/dtls/mbedtls/mbedtls-2.16.2/library\rsa.c ****                          unsigned char *sig )
1763:C:/Users/dtjld/workspace/AIoT/src/LiteOS_Lab/iot_link/network/dtls/mbedtls/mbedtls-2.16.2/library\rsa.c **** {
 5465              		.loc 1 1763 0
 5466              		.cfi_startproc
 5467              		@ args = 16, pretend = 0, frame = 128
 5468              		@ frame_needed = 1, uses_anonymous_args = 0
 5469 0000 80B5     		push	{r7, lr}
 5470              	.LCFI150:
 5471              		.cfi_def_cfa_offset 8
 5472              		.cfi_offset 7, -8
 5473              		.cfi_offset 14, -4
 5474 0002 A2B0     		sub	sp, sp, #136
 5475              	.LCFI151:
 5476              		.cfi_def_cfa_offset 144
 5477 0004 02AF     		add	r7, sp, #8
 5478              	.LCFI152:
 5479              		.cfi_def_cfa 7, 136
 5480 0006 F860     		str	r0, [r7, #12]
 5481 0008 B960     		str	r1, [r7, #8]
 5482 000a 7A60     		str	r2, [r7, #4]
 5483 000c 3B60     		str	r3, [r7]
1764:C:/Users/dtjld/workspace/AIoT/src/LiteOS_Lab/iot_link/network/dtls/mbedtls/mbedtls-2.16.2/library\rsa.c ****     size_t olen;
1765:C:/Users/dtjld/workspace/AIoT/src/LiteOS_Lab/iot_link/network/dtls/mbedtls/mbedtls-2.16.2/library\rsa.c ****     unsigned char *p = sig;
 5484              		.loc 1 1765 0
 5485 000e D7F89430 		ldr	r3, [r7, #148]
 5486 0012 3B67     		str	r3, [r7, #112]
1766:C:/Users/dtjld/workspace/AIoT/src/LiteOS_Lab/iot_link/network/dtls/mbedtls/mbedtls-2.16.2/library\rsa.c ****     unsigned char salt[MBEDTLS_MD_MAX_SIZE];
1767:C:/Users/dtjld/workspace/AIoT/src/LiteOS_Lab/iot_link/network/dtls/mbedtls/mbedtls-2.16.2/library\rsa.c ****     size_t slen, min_slen, hlen, offset = 0;
 5487              		.loc 1 1767 0
 5488 0014 0023     		movs	r3, #0
 5489 0016 BB67     		str	r3, [r7, #120]
1768:C:/Users/dtjld/workspace/AIoT/src/LiteOS_Lab/iot_link/network/dtls/mbedtls/mbedtls-2.16.2/library\rsa.c ****     int ret;
1769:C:/Users/dtjld/workspace/AIoT/src/LiteOS_Lab/iot_link/network/dtls/mbedtls/mbedtls-2.16.2/library\rsa.c ****     size_t msb;
1770:C:/Users/dtjld/workspace/AIoT/src/LiteOS_Lab/iot_link/network/dtls/mbedtls/mbedtls-2.16.2/library\rsa.c ****     const mbedtls_md_info_t *md_info;
1771:C:/Users/dtjld/workspace/AIoT/src/LiteOS_Lab/iot_link/network/dtls/mbedtls/mbedtls-2.16.2/library\rsa.c ****     mbedtls_md_context_t md_ctx;
1772:C:/Users/dtjld/workspace/AIoT/src/LiteOS_Lab/iot_link/network/dtls/mbedtls/mbedtls-2.16.2/library\rsa.c ****     RSA_VALIDATE_RET( ctx != NULL );
1773:C:/Users/dtjld/workspace/AIoT/src/LiteOS_Lab/iot_link/network/dtls/mbedtls/mbedtls-2.16.2/library\rsa.c ****     RSA_VALIDATE_RET( mode == MBEDTLS_RSA_PRIVATE ||
1774:C:/Users/dtjld/workspace/AIoT/src/LiteOS_Lab/iot_link/network/dtls/mbedtls/mbedtls-2.16.2/library\rsa.c ****                       mode == MBEDTLS_RSA_PUBLIC );
1775:C:/Users/dtjld/workspace/AIoT/src/LiteOS_Lab/iot_link/network/dtls/mbedtls/mbedtls-2.16.2/library\rsa.c ****     RSA_VALIDATE_RET( ( md_alg  == MBEDTLS_MD_NONE &&
1776:C:/Users/dtjld/workspace/AIoT/src/LiteOS_Lab/iot_link/network/dtls/mbedtls/mbedtls-2.16.2/library\rsa.c ****                         hashlen == 0 ) ||
1777:C:/Users/dtjld/workspace/AIoT/src/LiteOS_Lab/iot_link/network/dtls/mbedtls/mbedtls-2.16.2/library\rsa.c ****                       hash != NULL );
1778:C:/Users/dtjld/workspace/AIoT/src/LiteOS_Lab/iot_link/network/dtls/mbedtls/mbedtls-2.16.2/library\rsa.c ****     RSA_VALIDATE_RET( sig != NULL );
1779:C:/Users/dtjld/workspace/AIoT/src/LiteOS_Lab/iot_link/network/dtls/mbedtls/mbedtls-2.16.2/library\rsa.c **** 
1780:C:/Users/dtjld/workspace/AIoT/src/LiteOS_Lab/iot_link/network/dtls/mbedtls/mbedtls-2.16.2/library\rsa.c ****     if( mode == MBEDTLS_RSA_PRIVATE && ctx->padding != MBEDTLS_RSA_PKCS_V21 )
 5490              		.loc 1 1780 0
 5491 0018 3B68     		ldr	r3, [r7]
 5492 001a 012B     		cmp	r3, #1
 5493 001c 06D1     		bne	.L413
 5494              		.loc 1 1780 0 is_stmt 0 discriminator 1
 5495 001e FB68     		ldr	r3, [r7, #12]
 5496 0020 D3F8A430 		ldr	r3, [r3, #164]
 5497 0024 012B     		cmp	r3, #1
ARM GAS  C:\Users\dtjld\AppData\Local\Temp\cck1fUMg.s 			page 130


 5498 0026 01D0     		beq	.L413
1781:C:/Users/dtjld/workspace/AIoT/src/LiteOS_Lab/iot_link/network/dtls/mbedtls/mbedtls-2.16.2/library\rsa.c ****         return( MBEDTLS_ERR_RSA_BAD_INPUT_DATA );
 5499              		.loc 1 1781 0 is_stmt 1
 5500 0028 9F4B     		ldr	r3, .L443
 5501 002a 38E1     		b	.L435
 5502              	.L413:
1782:C:/Users/dtjld/workspace/AIoT/src/LiteOS_Lab/iot_link/network/dtls/mbedtls/mbedtls-2.16.2/library\rsa.c **** 
1783:C:/Users/dtjld/workspace/AIoT/src/LiteOS_Lab/iot_link/network/dtls/mbedtls/mbedtls-2.16.2/library\rsa.c ****     if( f_rng == NULL )
 5503              		.loc 1 1783 0
 5504 002c BB68     		ldr	r3, [r7, #8]
 5505 002e 002B     		cmp	r3, #0
 5506 0030 01D1     		bne	.L415
1784:C:/Users/dtjld/workspace/AIoT/src/LiteOS_Lab/iot_link/network/dtls/mbedtls/mbedtls-2.16.2/library\rsa.c ****         return( MBEDTLS_ERR_RSA_BAD_INPUT_DATA );
 5507              		.loc 1 1784 0
 5508 0032 9D4B     		ldr	r3, .L443
 5509 0034 33E1     		b	.L435
 5510              	.L415:
1785:C:/Users/dtjld/workspace/AIoT/src/LiteOS_Lab/iot_link/network/dtls/mbedtls/mbedtls-2.16.2/library\rsa.c **** 
1786:C:/Users/dtjld/workspace/AIoT/src/LiteOS_Lab/iot_link/network/dtls/mbedtls/mbedtls-2.16.2/library\rsa.c ****     olen = ctx->len;
 5511              		.loc 1 1786 0
 5512 0036 FB68     		ldr	r3, [r7, #12]
 5513 0038 5B68     		ldr	r3, [r3, #4]
 5514 003a FB66     		str	r3, [r7, #108]
1787:C:/Users/dtjld/workspace/AIoT/src/LiteOS_Lab/iot_link/network/dtls/mbedtls/mbedtls-2.16.2/library\rsa.c **** 
1788:C:/Users/dtjld/workspace/AIoT/src/LiteOS_Lab/iot_link/network/dtls/mbedtls/mbedtls-2.16.2/library\rsa.c ****     if( md_alg != MBEDTLS_MD_NONE )
 5515              		.loc 1 1788 0
 5516 003c 97F88830 		ldrb	r3, [r7, #136]	@ zero_extendqisi2
 5517 0040 002B     		cmp	r3, #0
 5518 0042 10D0     		beq	.L416
1789:C:/Users/dtjld/workspace/AIoT/src/LiteOS_Lab/iot_link/network/dtls/mbedtls/mbedtls-2.16.2/library\rsa.c ****     {
1790:C:/Users/dtjld/workspace/AIoT/src/LiteOS_Lab/iot_link/network/dtls/mbedtls/mbedtls-2.16.2/library\rsa.c ****         /* Gather length of hash to sign */
1791:C:/Users/dtjld/workspace/AIoT/src/LiteOS_Lab/iot_link/network/dtls/mbedtls/mbedtls-2.16.2/library\rsa.c ****         md_info = mbedtls_md_info_from_type( md_alg );
 5519              		.loc 1 1791 0
 5520 0044 97F88830 		ldrb	r3, [r7, #136]	@ zero_extendqisi2
 5521 0048 1846     		mov	r0, r3
 5522 004a FFF7FEFF 		bl	mbedtls_md_info_from_type
 5523 004e B866     		str	r0, [r7, #104]
1792:C:/Users/dtjld/workspace/AIoT/src/LiteOS_Lab/iot_link/network/dtls/mbedtls/mbedtls-2.16.2/library\rsa.c ****         if( md_info == NULL )
 5524              		.loc 1 1792 0
 5525 0050 BB6E     		ldr	r3, [r7, #104]
 5526 0052 002B     		cmp	r3, #0
 5527 0054 01D1     		bne	.L417
1793:C:/Users/dtjld/workspace/AIoT/src/LiteOS_Lab/iot_link/network/dtls/mbedtls/mbedtls-2.16.2/library\rsa.c ****             return( MBEDTLS_ERR_RSA_BAD_INPUT_DATA );
 5528              		.loc 1 1793 0
 5529 0056 944B     		ldr	r3, .L443
 5530 0058 21E1     		b	.L435
 5531              	.L417:
1794:C:/Users/dtjld/workspace/AIoT/src/LiteOS_Lab/iot_link/network/dtls/mbedtls/mbedtls-2.16.2/library\rsa.c **** 
1795:C:/Users/dtjld/workspace/AIoT/src/LiteOS_Lab/iot_link/network/dtls/mbedtls/mbedtls-2.16.2/library\rsa.c ****         hashlen = mbedtls_md_get_size( md_info );
 5532              		.loc 1 1795 0
 5533 005a B86E     		ldr	r0, [r7, #104]
 5534 005c FFF7FEFF 		bl	mbedtls_md_get_size
 5535 0060 0346     		mov	r3, r0
 5536 0062 C7F88C30 		str	r3, [r7, #140]
 5537              	.L416:
1796:C:/Users/dtjld/workspace/AIoT/src/LiteOS_Lab/iot_link/network/dtls/mbedtls/mbedtls-2.16.2/library\rsa.c ****     }
1797:C:/Users/dtjld/workspace/AIoT/src/LiteOS_Lab/iot_link/network/dtls/mbedtls/mbedtls-2.16.2/library\rsa.c **** 
ARM GAS  C:\Users\dtjld\AppData\Local\Temp\cck1fUMg.s 			page 131


1798:C:/Users/dtjld/workspace/AIoT/src/LiteOS_Lab/iot_link/network/dtls/mbedtls/mbedtls-2.16.2/library\rsa.c ****     md_info = mbedtls_md_info_from_type( (mbedtls_md_type_t) ctx->hash_id );
 5538              		.loc 1 1798 0
 5539 0066 FB68     		ldr	r3, [r7, #12]
 5540 0068 D3F8A830 		ldr	r3, [r3, #168]
 5541 006c DBB2     		uxtb	r3, r3
 5542 006e 1846     		mov	r0, r3
 5543 0070 FFF7FEFF 		bl	mbedtls_md_info_from_type
 5544 0074 B866     		str	r0, [r7, #104]
1799:C:/Users/dtjld/workspace/AIoT/src/LiteOS_Lab/iot_link/network/dtls/mbedtls/mbedtls-2.16.2/library\rsa.c ****     if( md_info == NULL )
 5545              		.loc 1 1799 0
 5546 0076 BB6E     		ldr	r3, [r7, #104]
 5547 0078 002B     		cmp	r3, #0
 5548 007a 01D1     		bne	.L418
1800:C:/Users/dtjld/workspace/AIoT/src/LiteOS_Lab/iot_link/network/dtls/mbedtls/mbedtls-2.16.2/library\rsa.c ****         return( MBEDTLS_ERR_RSA_BAD_INPUT_DATA );
 5549              		.loc 1 1800 0
 5550 007c 8A4B     		ldr	r3, .L443
 5551 007e 0EE1     		b	.L435
 5552              	.L418:
1801:C:/Users/dtjld/workspace/AIoT/src/LiteOS_Lab/iot_link/network/dtls/mbedtls/mbedtls-2.16.2/library\rsa.c **** 
1802:C:/Users/dtjld/workspace/AIoT/src/LiteOS_Lab/iot_link/network/dtls/mbedtls/mbedtls-2.16.2/library\rsa.c ****     hlen = mbedtls_md_get_size( md_info );
 5553              		.loc 1 1802 0
 5554 0080 B86E     		ldr	r0, [r7, #104]
 5555 0082 FFF7FEFF 		bl	mbedtls_md_get_size
 5556 0086 0346     		mov	r3, r0
 5557 0088 7B66     		str	r3, [r7, #100]
1803:C:/Users/dtjld/workspace/AIoT/src/LiteOS_Lab/iot_link/network/dtls/mbedtls/mbedtls-2.16.2/library\rsa.c **** 
1804:C:/Users/dtjld/workspace/AIoT/src/LiteOS_Lab/iot_link/network/dtls/mbedtls/mbedtls-2.16.2/library\rsa.c ****     /* Calculate the largest possible salt length. Normally this is the hash
1805:C:/Users/dtjld/workspace/AIoT/src/LiteOS_Lab/iot_link/network/dtls/mbedtls/mbedtls-2.16.2/library\rsa.c ****      * length, which is the maximum length the salt can have. If there is not
1806:C:/Users/dtjld/workspace/AIoT/src/LiteOS_Lab/iot_link/network/dtls/mbedtls/mbedtls-2.16.2/library\rsa.c ****      * enough room, use the maximum salt length that fits. The constraint is
1807:C:/Users/dtjld/workspace/AIoT/src/LiteOS_Lab/iot_link/network/dtls/mbedtls/mbedtls-2.16.2/library\rsa.c ****      * that the hash length plus the salt length plus 2 bytes must be at most
1808:C:/Users/dtjld/workspace/AIoT/src/LiteOS_Lab/iot_link/network/dtls/mbedtls/mbedtls-2.16.2/library\rsa.c ****      * the key length. This complies with FIPS 186-4 §5.5 (e) and RFC 8017
1809:C:/Users/dtjld/workspace/AIoT/src/LiteOS_Lab/iot_link/network/dtls/mbedtls/mbedtls-2.16.2/library\rsa.c ****      * (PKCS#1 v2.2) §9.1.1 step 3. */
1810:C:/Users/dtjld/workspace/AIoT/src/LiteOS_Lab/iot_link/network/dtls/mbedtls/mbedtls-2.16.2/library\rsa.c ****     min_slen = hlen - 2;
 5558              		.loc 1 1810 0
 5559 008a 7B6E     		ldr	r3, [r7, #100]
 5560 008c 023B     		subs	r3, r3, #2
 5561 008e 3B66     		str	r3, [r7, #96]
1811:C:/Users/dtjld/workspace/AIoT/src/LiteOS_Lab/iot_link/network/dtls/mbedtls/mbedtls-2.16.2/library\rsa.c ****     if( olen < hlen + min_slen + 2 )
 5562              		.loc 1 1811 0
 5563 0090 7A6E     		ldr	r2, [r7, #100]
 5564 0092 3B6E     		ldr	r3, [r7, #96]
 5565 0094 1344     		add	r3, r3, r2
 5566 0096 0233     		adds	r3, r3, #2
 5567 0098 FA6E     		ldr	r2, [r7, #108]
 5568 009a 9A42     		cmp	r2, r3
 5569 009c 01D2     		bcs	.L419
1812:C:/Users/dtjld/workspace/AIoT/src/LiteOS_Lab/iot_link/network/dtls/mbedtls/mbedtls-2.16.2/library\rsa.c ****         return( MBEDTLS_ERR_RSA_BAD_INPUT_DATA );
 5570              		.loc 1 1812 0
 5571 009e 824B     		ldr	r3, .L443
 5572 00a0 FDE0     		b	.L435
 5573              	.L419:
1813:C:/Users/dtjld/workspace/AIoT/src/LiteOS_Lab/iot_link/network/dtls/mbedtls/mbedtls-2.16.2/library\rsa.c ****     else if( olen >= hlen + hlen + 2 )
 5574              		.loc 1 1813 0
 5575 00a2 7B6E     		ldr	r3, [r7, #100]
 5576 00a4 0133     		adds	r3, r3, #1
 5577 00a6 5B00     		lsls	r3, r3, #1
 5578 00a8 FA6E     		ldr	r2, [r7, #108]
ARM GAS  C:\Users\dtjld\AppData\Local\Temp\cck1fUMg.s 			page 132


 5579 00aa 9A42     		cmp	r2, r3
 5580 00ac 02D3     		bcc	.L420
1814:C:/Users/dtjld/workspace/AIoT/src/LiteOS_Lab/iot_link/network/dtls/mbedtls/mbedtls-2.16.2/library\rsa.c ****         slen = hlen;
 5581              		.loc 1 1814 0
 5582 00ae 7B6E     		ldr	r3, [r7, #100]
 5583 00b0 FB67     		str	r3, [r7, #124]
 5584 00b2 04E0     		b	.L421
 5585              	.L420:
1815:C:/Users/dtjld/workspace/AIoT/src/LiteOS_Lab/iot_link/network/dtls/mbedtls/mbedtls-2.16.2/library\rsa.c ****     else
1816:C:/Users/dtjld/workspace/AIoT/src/LiteOS_Lab/iot_link/network/dtls/mbedtls/mbedtls-2.16.2/library\rsa.c ****         slen = olen - hlen - 2;
 5586              		.loc 1 1816 0
 5587 00b4 FA6E     		ldr	r2, [r7, #108]
 5588 00b6 7B6E     		ldr	r3, [r7, #100]
 5589 00b8 D31A     		subs	r3, r2, r3
 5590 00ba 023B     		subs	r3, r3, #2
 5591 00bc FB67     		str	r3, [r7, #124]
 5592              	.L421:
1817:C:/Users/dtjld/workspace/AIoT/src/LiteOS_Lab/iot_link/network/dtls/mbedtls/mbedtls-2.16.2/library\rsa.c **** 
1818:C:/Users/dtjld/workspace/AIoT/src/LiteOS_Lab/iot_link/network/dtls/mbedtls/mbedtls-2.16.2/library\rsa.c ****     memset( sig, 0, olen );
 5593              		.loc 1 1818 0
 5594 00be FA6E     		ldr	r2, [r7, #108]
 5595 00c0 0021     		movs	r1, #0
 5596 00c2 D7F89400 		ldr	r0, [r7, #148]
 5597 00c6 FFF7FEFF 		bl	memset
1819:C:/Users/dtjld/workspace/AIoT/src/LiteOS_Lab/iot_link/network/dtls/mbedtls/mbedtls-2.16.2/library\rsa.c **** 
1820:C:/Users/dtjld/workspace/AIoT/src/LiteOS_Lab/iot_link/network/dtls/mbedtls/mbedtls-2.16.2/library\rsa.c ****     /* Generate salt of length slen */
1821:C:/Users/dtjld/workspace/AIoT/src/LiteOS_Lab/iot_link/network/dtls/mbedtls/mbedtls-2.16.2/library\rsa.c ****     if( ( ret = f_rng( p_rng, salt, slen ) ) != 0 )
 5598              		.loc 1 1821 0
 5599 00ca 07F11C01 		add	r1, r7, #28
 5600 00ce BB68     		ldr	r3, [r7, #8]
 5601 00d0 FA6F     		ldr	r2, [r7, #124]
 5602 00d2 7868     		ldr	r0, [r7, #4]
 5603 00d4 9847     		blx	r3
 5604              	.LVL2:
 5605 00d6 7867     		str	r0, [r7, #116]
 5606 00d8 7B6F     		ldr	r3, [r7, #116]
 5607 00da 002B     		cmp	r3, #0
 5608 00dc 03D0     		beq	.L422
1822:C:/Users/dtjld/workspace/AIoT/src/LiteOS_Lab/iot_link/network/dtls/mbedtls/mbedtls-2.16.2/library\rsa.c ****         return( MBEDTLS_ERR_RSA_RNG_FAILED + ret );
 5609              		.loc 1 1822 0
 5610 00de 7B6F     		ldr	r3, [r7, #116]
 5611 00e0 A3F58943 		sub	r3, r3, #17536
 5612 00e4 DBE0     		b	.L435
 5613              	.L422:
1823:C:/Users/dtjld/workspace/AIoT/src/LiteOS_Lab/iot_link/network/dtls/mbedtls/mbedtls-2.16.2/library\rsa.c **** 
1824:C:/Users/dtjld/workspace/AIoT/src/LiteOS_Lab/iot_link/network/dtls/mbedtls/mbedtls-2.16.2/library\rsa.c ****     /* Note: EMSA-PSS encoding is over the length of N - 1 bits */
1825:C:/Users/dtjld/workspace/AIoT/src/LiteOS_Lab/iot_link/network/dtls/mbedtls/mbedtls-2.16.2/library\rsa.c ****     msb = mbedtls_mpi_bitlen( &ctx->N ) - 1;
 5614              		.loc 1 1825 0
 5615 00e6 FB68     		ldr	r3, [r7, #12]
 5616 00e8 0833     		adds	r3, r3, #8
 5617 00ea 1846     		mov	r0, r3
 5618 00ec FFF7FEFF 		bl	mbedtls_mpi_bitlen
 5619 00f0 0346     		mov	r3, r0
 5620 00f2 013B     		subs	r3, r3, #1
 5621 00f4 FB65     		str	r3, [r7, #92]
1826:C:/Users/dtjld/workspace/AIoT/src/LiteOS_Lab/iot_link/network/dtls/mbedtls/mbedtls-2.16.2/library\rsa.c ****     p += olen - hlen - slen - 2;
 5622              		.loc 1 1826 0
ARM GAS  C:\Users\dtjld\AppData\Local\Temp\cck1fUMg.s 			page 133


 5623 00f6 FA6E     		ldr	r2, [r7, #108]
 5624 00f8 7B6E     		ldr	r3, [r7, #100]
 5625 00fa D21A     		subs	r2, r2, r3
 5626 00fc FB6F     		ldr	r3, [r7, #124]
 5627 00fe D31A     		subs	r3, r2, r3
 5628 0100 023B     		subs	r3, r3, #2
 5629 0102 3A6F     		ldr	r2, [r7, #112]
 5630 0104 1344     		add	r3, r3, r2
 5631 0106 3B67     		str	r3, [r7, #112]
1827:C:/Users/dtjld/workspace/AIoT/src/LiteOS_Lab/iot_link/network/dtls/mbedtls/mbedtls-2.16.2/library\rsa.c ****     *p++ = 0x01;
 5632              		.loc 1 1827 0
 5633 0108 3B6F     		ldr	r3, [r7, #112]
 5634 010a 5A1C     		adds	r2, r3, #1
 5635 010c 3A67     		str	r2, [r7, #112]
 5636 010e 0122     		movs	r2, #1
 5637 0110 1A70     		strb	r2, [r3]
1828:C:/Users/dtjld/workspace/AIoT/src/LiteOS_Lab/iot_link/network/dtls/mbedtls/mbedtls-2.16.2/library\rsa.c ****     memcpy( p, salt, slen );
 5638              		.loc 1 1828 0
 5639 0112 07F11C03 		add	r3, r7, #28
 5640 0116 FA6F     		ldr	r2, [r7, #124]
 5641 0118 1946     		mov	r1, r3
 5642 011a 386F     		ldr	r0, [r7, #112]
 5643 011c FFF7FEFF 		bl	memcpy
1829:C:/Users/dtjld/workspace/AIoT/src/LiteOS_Lab/iot_link/network/dtls/mbedtls/mbedtls-2.16.2/library\rsa.c ****     p += slen;
 5644              		.loc 1 1829 0
 5645 0120 3A6F     		ldr	r2, [r7, #112]
 5646 0122 FB6F     		ldr	r3, [r7, #124]
 5647 0124 1344     		add	r3, r3, r2
 5648 0126 3B67     		str	r3, [r7, #112]
1830:C:/Users/dtjld/workspace/AIoT/src/LiteOS_Lab/iot_link/network/dtls/mbedtls/mbedtls-2.16.2/library\rsa.c **** 
1831:C:/Users/dtjld/workspace/AIoT/src/LiteOS_Lab/iot_link/network/dtls/mbedtls/mbedtls-2.16.2/library\rsa.c ****     mbedtls_md_init( &md_ctx );
 5649              		.loc 1 1831 0
 5650 0128 07F11003 		add	r3, r7, #16
 5651 012c 1846     		mov	r0, r3
 5652 012e FFF7FEFF 		bl	mbedtls_md_init
1832:C:/Users/dtjld/workspace/AIoT/src/LiteOS_Lab/iot_link/network/dtls/mbedtls/mbedtls-2.16.2/library\rsa.c ****     if( ( ret = mbedtls_md_setup( &md_ctx, md_info, 0 ) ) != 0 )
 5653              		.loc 1 1832 0
 5654 0132 07F11003 		add	r3, r7, #16
 5655 0136 0022     		movs	r2, #0
 5656 0138 B96E     		ldr	r1, [r7, #104]
 5657 013a 1846     		mov	r0, r3
 5658 013c FFF7FEFF 		bl	mbedtls_md_setup
 5659 0140 7867     		str	r0, [r7, #116]
 5660 0142 7B6F     		ldr	r3, [r7, #116]
 5661 0144 002B     		cmp	r3, #0
 5662 0146 7CD1     		bne	.L436
1833:C:/Users/dtjld/workspace/AIoT/src/LiteOS_Lab/iot_link/network/dtls/mbedtls/mbedtls-2.16.2/library\rsa.c ****         goto exit;
1834:C:/Users/dtjld/workspace/AIoT/src/LiteOS_Lab/iot_link/network/dtls/mbedtls/mbedtls-2.16.2/library\rsa.c **** 
1835:C:/Users/dtjld/workspace/AIoT/src/LiteOS_Lab/iot_link/network/dtls/mbedtls/mbedtls-2.16.2/library\rsa.c ****     /* Generate H = Hash( M' ) */
1836:C:/Users/dtjld/workspace/AIoT/src/LiteOS_Lab/iot_link/network/dtls/mbedtls/mbedtls-2.16.2/library\rsa.c ****     if( ( ret = mbedtls_md_starts( &md_ctx ) ) != 0 )
 5663              		.loc 1 1836 0
 5664 0148 07F11003 		add	r3, r7, #16
 5665 014c 1846     		mov	r0, r3
 5666 014e FFF7FEFF 		bl	mbedtls_md_starts
 5667 0152 7867     		str	r0, [r7, #116]
 5668 0154 7B6F     		ldr	r3, [r7, #116]
 5669 0156 002B     		cmp	r3, #0
ARM GAS  C:\Users\dtjld\AppData\Local\Temp\cck1fUMg.s 			page 134


 5670 0158 75D1     		bne	.L437
1837:C:/Users/dtjld/workspace/AIoT/src/LiteOS_Lab/iot_link/network/dtls/mbedtls/mbedtls-2.16.2/library\rsa.c ****         goto exit;
1838:C:/Users/dtjld/workspace/AIoT/src/LiteOS_Lab/iot_link/network/dtls/mbedtls/mbedtls-2.16.2/library\rsa.c ****     if( ( ret = mbedtls_md_update( &md_ctx, p, 8 ) ) != 0 )
 5671              		.loc 1 1838 0
 5672 015a 07F11003 		add	r3, r7, #16
 5673 015e 0822     		movs	r2, #8
 5674 0160 396F     		ldr	r1, [r7, #112]
 5675 0162 1846     		mov	r0, r3
 5676 0164 FFF7FEFF 		bl	mbedtls_md_update
 5677 0168 7867     		str	r0, [r7, #116]
 5678 016a 7B6F     		ldr	r3, [r7, #116]
 5679 016c 002B     		cmp	r3, #0
 5680 016e 6CD1     		bne	.L438
1839:C:/Users/dtjld/workspace/AIoT/src/LiteOS_Lab/iot_link/network/dtls/mbedtls/mbedtls-2.16.2/library\rsa.c ****         goto exit;
1840:C:/Users/dtjld/workspace/AIoT/src/LiteOS_Lab/iot_link/network/dtls/mbedtls/mbedtls-2.16.2/library\rsa.c ****     if( ( ret = mbedtls_md_update( &md_ctx, hash, hashlen ) ) != 0 )
 5681              		.loc 1 1840 0
 5682 0170 07F11003 		add	r3, r7, #16
 5683 0174 D7F88C20 		ldr	r2, [r7, #140]
 5684 0178 D7F89010 		ldr	r1, [r7, #144]
 5685 017c 1846     		mov	r0, r3
 5686 017e FFF7FEFF 		bl	mbedtls_md_update
 5687 0182 7867     		str	r0, [r7, #116]
 5688 0184 7B6F     		ldr	r3, [r7, #116]
 5689 0186 002B     		cmp	r3, #0
 5690 0188 61D1     		bne	.L439
1841:C:/Users/dtjld/workspace/AIoT/src/LiteOS_Lab/iot_link/network/dtls/mbedtls/mbedtls-2.16.2/library\rsa.c ****         goto exit;
1842:C:/Users/dtjld/workspace/AIoT/src/LiteOS_Lab/iot_link/network/dtls/mbedtls/mbedtls-2.16.2/library\rsa.c ****     if( ( ret = mbedtls_md_update( &md_ctx, salt, slen ) ) != 0 )
 5691              		.loc 1 1842 0
 5692 018a 07F11C01 		add	r1, r7, #28
 5693 018e 07F11003 		add	r3, r7, #16
 5694 0192 FA6F     		ldr	r2, [r7, #124]
 5695 0194 1846     		mov	r0, r3
 5696 0196 FFF7FEFF 		bl	mbedtls_md_update
 5697 019a 7867     		str	r0, [r7, #116]
 5698 019c 7B6F     		ldr	r3, [r7, #116]
 5699 019e 002B     		cmp	r3, #0
 5700 01a0 57D1     		bne	.L440
1843:C:/Users/dtjld/workspace/AIoT/src/LiteOS_Lab/iot_link/network/dtls/mbedtls/mbedtls-2.16.2/library\rsa.c ****         goto exit;
1844:C:/Users/dtjld/workspace/AIoT/src/LiteOS_Lab/iot_link/network/dtls/mbedtls/mbedtls-2.16.2/library\rsa.c ****     if( ( ret = mbedtls_md_finish( &md_ctx, p ) ) != 0 )
 5701              		.loc 1 1844 0
 5702 01a2 07F11003 		add	r3, r7, #16
 5703 01a6 396F     		ldr	r1, [r7, #112]
 5704 01a8 1846     		mov	r0, r3
 5705 01aa FFF7FEFF 		bl	mbedtls_md_finish
 5706 01ae 7867     		str	r0, [r7, #116]
 5707 01b0 7B6F     		ldr	r3, [r7, #116]
 5708 01b2 002B     		cmp	r3, #0
 5709 01b4 4FD1     		bne	.L441
1845:C:/Users/dtjld/workspace/AIoT/src/LiteOS_Lab/iot_link/network/dtls/mbedtls/mbedtls-2.16.2/library\rsa.c ****         goto exit;
1846:C:/Users/dtjld/workspace/AIoT/src/LiteOS_Lab/iot_link/network/dtls/mbedtls/mbedtls-2.16.2/library\rsa.c **** 
1847:C:/Users/dtjld/workspace/AIoT/src/LiteOS_Lab/iot_link/network/dtls/mbedtls/mbedtls-2.16.2/library\rsa.c ****     /* Compensate for boundary condition when applying mask */
1848:C:/Users/dtjld/workspace/AIoT/src/LiteOS_Lab/iot_link/network/dtls/mbedtls/mbedtls-2.16.2/library\rsa.c ****     if( msb % 8 == 0 )
 5710              		.loc 1 1848 0
 5711 01b6 FB6D     		ldr	r3, [r7, #92]
 5712 01b8 03F00703 		and	r3, r3, #7
 5713 01bc 002B     		cmp	r3, #0
 5714 01be 01D1     		bne	.L430
ARM GAS  C:\Users\dtjld\AppData\Local\Temp\cck1fUMg.s 			page 135


1849:C:/Users/dtjld/workspace/AIoT/src/LiteOS_Lab/iot_link/network/dtls/mbedtls/mbedtls-2.16.2/library\rsa.c ****         offset = 1;
 5715              		.loc 1 1849 0
 5716 01c0 0123     		movs	r3, #1
 5717 01c2 BB67     		str	r3, [r7, #120]
 5718              	.L430:
1850:C:/Users/dtjld/workspace/AIoT/src/LiteOS_Lab/iot_link/network/dtls/mbedtls/mbedtls-2.16.2/library\rsa.c **** 
1851:C:/Users/dtjld/workspace/AIoT/src/LiteOS_Lab/iot_link/network/dtls/mbedtls/mbedtls-2.16.2/library\rsa.c ****     /* maskedDB: Apply dbMask to DB */
1852:C:/Users/dtjld/workspace/AIoT/src/LiteOS_Lab/iot_link/network/dtls/mbedtls/mbedtls-2.16.2/library\rsa.c ****     if( ( ret = mgf_mask( sig + offset, olen - hlen - 1 - offset, p, hlen,
 5719              		.loc 1 1852 0
 5720 01c4 D7F89420 		ldr	r2, [r7, #148]
 5721 01c8 BB6F     		ldr	r3, [r7, #120]
 5722 01ca D018     		adds	r0, r2, r3
 5723 01cc FA6E     		ldr	r2, [r7, #108]
 5724 01ce 7B6E     		ldr	r3, [r7, #100]
 5725 01d0 D21A     		subs	r2, r2, r3
 5726 01d2 BB6F     		ldr	r3, [r7, #120]
 5727 01d4 D31A     		subs	r3, r2, r3
 5728 01d6 591E     		subs	r1, r3, #1
 5729 01d8 07F11003 		add	r3, r7, #16
 5730 01dc 0093     		str	r3, [sp]
 5731 01de 7B6E     		ldr	r3, [r7, #100]
 5732 01e0 3A6F     		ldr	r2, [r7, #112]
 5733 01e2 FFF7FEFF 		bl	mgf_mask
 5734 01e6 7867     		str	r0, [r7, #116]
 5735 01e8 7B6F     		ldr	r3, [r7, #116]
 5736 01ea 002B     		cmp	r3, #0
 5737 01ec 35D1     		bne	.L442
1853:C:/Users/dtjld/workspace/AIoT/src/LiteOS_Lab/iot_link/network/dtls/mbedtls/mbedtls-2.16.2/library\rsa.c ****                           &md_ctx ) ) != 0 )
1854:C:/Users/dtjld/workspace/AIoT/src/LiteOS_Lab/iot_link/network/dtls/mbedtls/mbedtls-2.16.2/library\rsa.c ****         goto exit;
1855:C:/Users/dtjld/workspace/AIoT/src/LiteOS_Lab/iot_link/network/dtls/mbedtls/mbedtls-2.16.2/library\rsa.c **** 
1856:C:/Users/dtjld/workspace/AIoT/src/LiteOS_Lab/iot_link/network/dtls/mbedtls/mbedtls-2.16.2/library\rsa.c ****     msb = mbedtls_mpi_bitlen( &ctx->N ) - 1;
 5738              		.loc 1 1856 0
 5739 01ee FB68     		ldr	r3, [r7, #12]
 5740 01f0 0833     		adds	r3, r3, #8
 5741 01f2 1846     		mov	r0, r3
 5742 01f4 FFF7FEFF 		bl	mbedtls_mpi_bitlen
 5743 01f8 0346     		mov	r3, r0
 5744 01fa 013B     		subs	r3, r3, #1
 5745 01fc FB65     		str	r3, [r7, #92]
1857:C:/Users/dtjld/workspace/AIoT/src/LiteOS_Lab/iot_link/network/dtls/mbedtls/mbedtls-2.16.2/library\rsa.c ****     sig[0] &= 0xFF >> ( olen * 8 - msb );
 5746              		.loc 1 1857 0
 5747 01fe D7F89430 		ldr	r3, [r7, #148]
 5748 0202 1B78     		ldrb	r3, [r3]	@ zero_extendqisi2
 5749 0204 5AB2     		sxtb	r2, r3
 5750 0206 FB6E     		ldr	r3, [r7, #108]
 5751 0208 D900     		lsls	r1, r3, #3
 5752 020a FB6D     		ldr	r3, [r7, #92]
 5753 020c CB1A     		subs	r3, r1, r3
 5754 020e FF21     		movs	r1, #255
 5755 0210 41FA03F3 		asr	r3, r1, r3
 5756 0214 5BB2     		sxtb	r3, r3
 5757 0216 1340     		ands	r3, r3, r2
 5758 0218 5BB2     		sxtb	r3, r3
 5759 021a DAB2     		uxtb	r2, r3
 5760 021c D7F89430 		ldr	r3, [r7, #148]
 5761 0220 1A70     		strb	r2, [r3]
1858:C:/Users/dtjld/workspace/AIoT/src/LiteOS_Lab/iot_link/network/dtls/mbedtls/mbedtls-2.16.2/library\rsa.c **** 
ARM GAS  C:\Users\dtjld\AppData\Local\Temp\cck1fUMg.s 			page 136


1859:C:/Users/dtjld/workspace/AIoT/src/LiteOS_Lab/iot_link/network/dtls/mbedtls/mbedtls-2.16.2/library\rsa.c ****     p += hlen;
 5762              		.loc 1 1859 0
 5763 0222 3A6F     		ldr	r2, [r7, #112]
 5764 0224 7B6E     		ldr	r3, [r7, #100]
 5765 0226 1344     		add	r3, r3, r2
 5766 0228 3B67     		str	r3, [r7, #112]
1860:C:/Users/dtjld/workspace/AIoT/src/LiteOS_Lab/iot_link/network/dtls/mbedtls/mbedtls-2.16.2/library\rsa.c ****     *p++ = 0xBC;
 5767              		.loc 1 1860 0
 5768 022a 3B6F     		ldr	r3, [r7, #112]
 5769 022c 5A1C     		adds	r2, r3, #1
 5770 022e 3A67     		str	r2, [r7, #112]
 5771 0230 BC22     		movs	r2, #188
 5772 0232 1A70     		strb	r2, [r3]
1861:C:/Users/dtjld/workspace/AIoT/src/LiteOS_Lab/iot_link/network/dtls/mbedtls/mbedtls-2.16.2/library\rsa.c **** 
1862:C:/Users/dtjld/workspace/AIoT/src/LiteOS_Lab/iot_link/network/dtls/mbedtls/mbedtls-2.16.2/library\rsa.c ****     mbedtls_platform_zeroize( salt, sizeof( salt ) );
 5773              		.loc 1 1862 0
 5774 0234 07F11C03 		add	r3, r7, #28
 5775 0238 4021     		movs	r1, #64
 5776 023a 1846     		mov	r0, r3
 5777 023c FFF7FEFF 		bl	mbedtls_platform_zeroize
 5778 0240 0CE0     		b	.L424
 5779              	.L436:
1833:C:/Users/dtjld/workspace/AIoT/src/LiteOS_Lab/iot_link/network/dtls/mbedtls/mbedtls-2.16.2/library\rsa.c **** 
 5780              		.loc 1 1833 0
 5781 0242 00BF     		nop
 5782 0244 0AE0     		b	.L424
 5783              	.L437:
1837:C:/Users/dtjld/workspace/AIoT/src/LiteOS_Lab/iot_link/network/dtls/mbedtls/mbedtls-2.16.2/library\rsa.c ****     if( ( ret = mbedtls_md_update( &md_ctx, p, 8 ) ) != 0 )
 5784              		.loc 1 1837 0
 5785 0246 00BF     		nop
 5786 0248 08E0     		b	.L424
 5787              	.L438:
1839:C:/Users/dtjld/workspace/AIoT/src/LiteOS_Lab/iot_link/network/dtls/mbedtls/mbedtls-2.16.2/library\rsa.c ****     if( ( ret = mbedtls_md_update( &md_ctx, hash, hashlen ) ) != 0 )
 5788              		.loc 1 1839 0
 5789 024a 00BF     		nop
 5790 024c 06E0     		b	.L424
 5791              	.L439:
1841:C:/Users/dtjld/workspace/AIoT/src/LiteOS_Lab/iot_link/network/dtls/mbedtls/mbedtls-2.16.2/library\rsa.c ****     if( ( ret = mbedtls_md_update( &md_ctx, salt, slen ) ) != 0 )
 5792              		.loc 1 1841 0
 5793 024e 00BF     		nop
 5794 0250 04E0     		b	.L424
 5795              	.L440:
1843:C:/Users/dtjld/workspace/AIoT/src/LiteOS_Lab/iot_link/network/dtls/mbedtls/mbedtls-2.16.2/library\rsa.c ****     if( ( ret = mbedtls_md_finish( &md_ctx, p ) ) != 0 )
 5796              		.loc 1 1843 0
 5797 0252 00BF     		nop
 5798 0254 02E0     		b	.L424
 5799              	.L441:
1845:C:/Users/dtjld/workspace/AIoT/src/LiteOS_Lab/iot_link/network/dtls/mbedtls/mbedtls-2.16.2/library\rsa.c **** 
 5800              		.loc 1 1845 0
 5801 0256 00BF     		nop
 5802 0258 00E0     		b	.L424
 5803              	.L442:
1854:C:/Users/dtjld/workspace/AIoT/src/LiteOS_Lab/iot_link/network/dtls/mbedtls/mbedtls-2.16.2/library\rsa.c **** 
 5804              		.loc 1 1854 0
 5805 025a 00BF     		nop
 5806              	.L424:
1863:C:/Users/dtjld/workspace/AIoT/src/LiteOS_Lab/iot_link/network/dtls/mbedtls/mbedtls-2.16.2/library\rsa.c **** 
ARM GAS  C:\Users\dtjld\AppData\Local\Temp\cck1fUMg.s 			page 137


1864:C:/Users/dtjld/workspace/AIoT/src/LiteOS_Lab/iot_link/network/dtls/mbedtls/mbedtls-2.16.2/library\rsa.c **** exit:
1865:C:/Users/dtjld/workspace/AIoT/src/LiteOS_Lab/iot_link/network/dtls/mbedtls/mbedtls-2.16.2/library\rsa.c ****     mbedtls_md_free( &md_ctx );
 5807              		.loc 1 1865 0
 5808 025c 07F11003 		add	r3, r7, #16
 5809 0260 1846     		mov	r0, r3
 5810 0262 FFF7FEFF 		bl	mbedtls_md_free
1866:C:/Users/dtjld/workspace/AIoT/src/LiteOS_Lab/iot_link/network/dtls/mbedtls/mbedtls-2.16.2/library\rsa.c **** 
1867:C:/Users/dtjld/workspace/AIoT/src/LiteOS_Lab/iot_link/network/dtls/mbedtls/mbedtls-2.16.2/library\rsa.c ****     if( ret != 0 )
 5811              		.loc 1 1867 0
 5812 0266 7B6F     		ldr	r3, [r7, #116]
 5813 0268 002B     		cmp	r3, #0
 5814 026a 01D0     		beq	.L432
1868:C:/Users/dtjld/workspace/AIoT/src/LiteOS_Lab/iot_link/network/dtls/mbedtls/mbedtls-2.16.2/library\rsa.c ****         return( ret );
 5815              		.loc 1 1868 0
 5816 026c 7B6F     		ldr	r3, [r7, #116]
 5817 026e 16E0     		b	.L435
 5818              	.L432:
1869:C:/Users/dtjld/workspace/AIoT/src/LiteOS_Lab/iot_link/network/dtls/mbedtls/mbedtls-2.16.2/library\rsa.c **** 
1870:C:/Users/dtjld/workspace/AIoT/src/LiteOS_Lab/iot_link/network/dtls/mbedtls/mbedtls-2.16.2/library\rsa.c ****     return( ( mode == MBEDTLS_RSA_PUBLIC )
1871:C:/Users/dtjld/workspace/AIoT/src/LiteOS_Lab/iot_link/network/dtls/mbedtls/mbedtls-2.16.2/library\rsa.c ****             ? mbedtls_rsa_public(  ctx, sig, sig )
1872:C:/Users/dtjld/workspace/AIoT/src/LiteOS_Lab/iot_link/network/dtls/mbedtls/mbedtls-2.16.2/library\rsa.c ****             : mbedtls_rsa_private( ctx, f_rng, p_rng, sig, sig ) );
 5819              		.loc 1 1872 0
 5820 0270 3B68     		ldr	r3, [r7]
 5821 0272 002B     		cmp	r3, #0
 5822 0274 08D1     		bne	.L433
 5823              		.loc 1 1872 0 is_stmt 0 discriminator 1
 5824 0276 D7F89420 		ldr	r2, [r7, #148]
 5825 027a D7F89410 		ldr	r1, [r7, #148]
 5826 027e F868     		ldr	r0, [r7, #12]
 5827 0280 FFF7FEFF 		bl	mbedtls_rsa_public
 5828 0284 0346     		mov	r3, r0
 5829 0286 0AE0     		b	.L435
 5830              	.L433:
 5831              		.loc 1 1872 0 discriminator 2
 5832 0288 D7F89430 		ldr	r3, [r7, #148]
 5833 028c 0093     		str	r3, [sp]
 5834 028e D7F89430 		ldr	r3, [r7, #148]
 5835 0292 7A68     		ldr	r2, [r7, #4]
 5836 0294 B968     		ldr	r1, [r7, #8]
 5837 0296 F868     		ldr	r0, [r7, #12]
 5838 0298 FFF7FEFF 		bl	mbedtls_rsa_private
 5839 029c 0346     		mov	r3, r0
 5840              	.L435:
1873:C:/Users/dtjld/workspace/AIoT/src/LiteOS_Lab/iot_link/network/dtls/mbedtls/mbedtls-2.16.2/library\rsa.c **** }
 5841              		.loc 1 1873 0 is_stmt 1 discriminator 1
 5842 029e 1846     		mov	r0, r3
 5843 02a0 8037     		adds	r7, r7, #128
 5844              	.LCFI153:
 5845              		.cfi_def_cfa_offset 8
 5846 02a2 BD46     		mov	sp, r7
 5847              	.LCFI154:
 5848              		.cfi_def_cfa_register 13
 5849              		@ sp needed
 5850 02a4 80BD     		pop	{r7, pc}
 5851              	.L444:
 5852 02a6 00BF     		.align	2
 5853              	.L443:
ARM GAS  C:\Users\dtjld\AppData\Local\Temp\cck1fUMg.s 			page 138


 5854 02a8 80BFFFFF 		.word	-16512
 5855              		.cfi_endproc
 5856              	.LFE42:
 5858              		.section	.text.rsa_rsassa_pkcs1_v15_encode,"ax",%progbits
 5859              		.align	1
 5860              		.syntax unified
 5861              		.thumb
 5862              		.thumb_func
 5863              		.fpu fpv4-sp-d16
 5865              	rsa_rsassa_pkcs1_v15_encode:
 5866              	.LFB43:
1874:C:/Users/dtjld/workspace/AIoT/src/LiteOS_Lab/iot_link/network/dtls/mbedtls/mbedtls-2.16.2/library\rsa.c **** #endif /* MBEDTLS_PKCS1_V21 */
1875:C:/Users/dtjld/workspace/AIoT/src/LiteOS_Lab/iot_link/network/dtls/mbedtls/mbedtls-2.16.2/library\rsa.c **** 
1876:C:/Users/dtjld/workspace/AIoT/src/LiteOS_Lab/iot_link/network/dtls/mbedtls/mbedtls-2.16.2/library\rsa.c **** #if defined(MBEDTLS_PKCS1_V15)
1877:C:/Users/dtjld/workspace/AIoT/src/LiteOS_Lab/iot_link/network/dtls/mbedtls/mbedtls-2.16.2/library\rsa.c **** /*
1878:C:/Users/dtjld/workspace/AIoT/src/LiteOS_Lab/iot_link/network/dtls/mbedtls/mbedtls-2.16.2/library\rsa.c ****  * Implementation of the PKCS#1 v2.1 RSASSA-PKCS1-V1_5-SIGN function
1879:C:/Users/dtjld/workspace/AIoT/src/LiteOS_Lab/iot_link/network/dtls/mbedtls/mbedtls-2.16.2/library\rsa.c ****  */
1880:C:/Users/dtjld/workspace/AIoT/src/LiteOS_Lab/iot_link/network/dtls/mbedtls/mbedtls-2.16.2/library\rsa.c **** 
1881:C:/Users/dtjld/workspace/AIoT/src/LiteOS_Lab/iot_link/network/dtls/mbedtls/mbedtls-2.16.2/library\rsa.c **** /* Construct a PKCS v1.5 encoding of a hashed message
1882:C:/Users/dtjld/workspace/AIoT/src/LiteOS_Lab/iot_link/network/dtls/mbedtls/mbedtls-2.16.2/library\rsa.c ****  *
1883:C:/Users/dtjld/workspace/AIoT/src/LiteOS_Lab/iot_link/network/dtls/mbedtls/mbedtls-2.16.2/library\rsa.c ****  * This is used both for signature generation and verification.
1884:C:/Users/dtjld/workspace/AIoT/src/LiteOS_Lab/iot_link/network/dtls/mbedtls/mbedtls-2.16.2/library\rsa.c ****  *
1885:C:/Users/dtjld/workspace/AIoT/src/LiteOS_Lab/iot_link/network/dtls/mbedtls/mbedtls-2.16.2/library\rsa.c ****  * Parameters:
1886:C:/Users/dtjld/workspace/AIoT/src/LiteOS_Lab/iot_link/network/dtls/mbedtls/mbedtls-2.16.2/library\rsa.c ****  * - md_alg:  Identifies the hash algorithm used to generate the given hash;
1887:C:/Users/dtjld/workspace/AIoT/src/LiteOS_Lab/iot_link/network/dtls/mbedtls/mbedtls-2.16.2/library\rsa.c ****  *            MBEDTLS_MD_NONE if raw data is signed.
1888:C:/Users/dtjld/workspace/AIoT/src/LiteOS_Lab/iot_link/network/dtls/mbedtls/mbedtls-2.16.2/library\rsa.c ****  * - hashlen: Length of hash in case hashlen is MBEDTLS_MD_NONE.
1889:C:/Users/dtjld/workspace/AIoT/src/LiteOS_Lab/iot_link/network/dtls/mbedtls/mbedtls-2.16.2/library\rsa.c ****  * - hash:    Buffer containing the hashed message or the raw data.
1890:C:/Users/dtjld/workspace/AIoT/src/LiteOS_Lab/iot_link/network/dtls/mbedtls/mbedtls-2.16.2/library\rsa.c ****  * - dst_len: Length of the encoded message.
1891:C:/Users/dtjld/workspace/AIoT/src/LiteOS_Lab/iot_link/network/dtls/mbedtls/mbedtls-2.16.2/library\rsa.c ****  * - dst:     Buffer to hold the encoded message.
1892:C:/Users/dtjld/workspace/AIoT/src/LiteOS_Lab/iot_link/network/dtls/mbedtls/mbedtls-2.16.2/library\rsa.c ****  *
1893:C:/Users/dtjld/workspace/AIoT/src/LiteOS_Lab/iot_link/network/dtls/mbedtls/mbedtls-2.16.2/library\rsa.c ****  * Assumptions:
1894:C:/Users/dtjld/workspace/AIoT/src/LiteOS_Lab/iot_link/network/dtls/mbedtls/mbedtls-2.16.2/library\rsa.c ****  * - hash has size hashlen if md_alg == MBEDTLS_MD_NONE.
1895:C:/Users/dtjld/workspace/AIoT/src/LiteOS_Lab/iot_link/network/dtls/mbedtls/mbedtls-2.16.2/library\rsa.c ****  * - hash has size corresponding to md_alg if md_alg != MBEDTLS_MD_NONE.
1896:C:/Users/dtjld/workspace/AIoT/src/LiteOS_Lab/iot_link/network/dtls/mbedtls/mbedtls-2.16.2/library\rsa.c ****  * - dst points to a buffer of size at least dst_len.
1897:C:/Users/dtjld/workspace/AIoT/src/LiteOS_Lab/iot_link/network/dtls/mbedtls/mbedtls-2.16.2/library\rsa.c ****  *
1898:C:/Users/dtjld/workspace/AIoT/src/LiteOS_Lab/iot_link/network/dtls/mbedtls/mbedtls-2.16.2/library\rsa.c ****  */
1899:C:/Users/dtjld/workspace/AIoT/src/LiteOS_Lab/iot_link/network/dtls/mbedtls/mbedtls-2.16.2/library\rsa.c **** static int rsa_rsassa_pkcs1_v15_encode( mbedtls_md_type_t md_alg,
1900:C:/Users/dtjld/workspace/AIoT/src/LiteOS_Lab/iot_link/network/dtls/mbedtls/mbedtls-2.16.2/library\rsa.c ****                                         unsigned int hashlen,
1901:C:/Users/dtjld/workspace/AIoT/src/LiteOS_Lab/iot_link/network/dtls/mbedtls/mbedtls-2.16.2/library\rsa.c ****                                         const unsigned char *hash,
1902:C:/Users/dtjld/workspace/AIoT/src/LiteOS_Lab/iot_link/network/dtls/mbedtls/mbedtls-2.16.2/library\rsa.c ****                                         size_t dst_len,
1903:C:/Users/dtjld/workspace/AIoT/src/LiteOS_Lab/iot_link/network/dtls/mbedtls/mbedtls-2.16.2/library\rsa.c ****                                         unsigned char *dst )
1904:C:/Users/dtjld/workspace/AIoT/src/LiteOS_Lab/iot_link/network/dtls/mbedtls/mbedtls-2.16.2/library\rsa.c **** {
 5867              		.loc 1 1904 0
 5868              		.cfi_startproc
 5869              		@ args = 4, pretend = 0, frame = 40
 5870              		@ frame_needed = 1, uses_anonymous_args = 0
 5871 0000 80B5     		push	{r7, lr}
 5872              	.LCFI155:
 5873              		.cfi_def_cfa_offset 8
 5874              		.cfi_offset 7, -8
 5875              		.cfi_offset 14, -4
 5876 0002 8AB0     		sub	sp, sp, #40
 5877              	.LCFI156:
 5878              		.cfi_def_cfa_offset 48
 5879 0004 00AF     		add	r7, sp, #0
 5880              	.LCFI157:
 5881              		.cfi_def_cfa_register 7
ARM GAS  C:\Users\dtjld\AppData\Local\Temp\cck1fUMg.s 			page 139


 5882 0006 B960     		str	r1, [r7, #8]
 5883 0008 7A60     		str	r2, [r7, #4]
 5884 000a 3B60     		str	r3, [r7]
 5885 000c 0346     		mov	r3, r0
 5886 000e FB73     		strb	r3, [r7, #15]
1905:C:/Users/dtjld/workspace/AIoT/src/LiteOS_Lab/iot_link/network/dtls/mbedtls/mbedtls-2.16.2/library\rsa.c ****     size_t oid_size  = 0;
 5887              		.loc 1 1905 0
 5888 0010 0023     		movs	r3, #0
 5889 0012 BB61     		str	r3, [r7, #24]
1906:C:/Users/dtjld/workspace/AIoT/src/LiteOS_Lab/iot_link/network/dtls/mbedtls/mbedtls-2.16.2/library\rsa.c ****     size_t nb_pad    = dst_len;
 5890              		.loc 1 1906 0
 5891 0014 3B68     		ldr	r3, [r7]
 5892 0016 7B62     		str	r3, [r7, #36]
1907:C:/Users/dtjld/workspace/AIoT/src/LiteOS_Lab/iot_link/network/dtls/mbedtls/mbedtls-2.16.2/library\rsa.c ****     unsigned char *p = dst;
 5893              		.loc 1 1907 0
 5894 0018 3B6B     		ldr	r3, [r7, #48]
 5895 001a 3B62     		str	r3, [r7, #32]
1908:C:/Users/dtjld/workspace/AIoT/src/LiteOS_Lab/iot_link/network/dtls/mbedtls/mbedtls-2.16.2/library\rsa.c ****     const char *oid  = NULL;
 5896              		.loc 1 1908 0
 5897 001c 0023     		movs	r3, #0
 5898 001e 7B61     		str	r3, [r7, #20]
1909:C:/Users/dtjld/workspace/AIoT/src/LiteOS_Lab/iot_link/network/dtls/mbedtls/mbedtls-2.16.2/library\rsa.c **** 
1910:C:/Users/dtjld/workspace/AIoT/src/LiteOS_Lab/iot_link/network/dtls/mbedtls/mbedtls-2.16.2/library\rsa.c ****     /* Are we signing hashed or raw data? */
1911:C:/Users/dtjld/workspace/AIoT/src/LiteOS_Lab/iot_link/network/dtls/mbedtls/mbedtls-2.16.2/library\rsa.c ****     if( md_alg != MBEDTLS_MD_NONE )
 5899              		.loc 1 1911 0
 5900 0020 FB7B     		ldrb	r3, [r7, #15]	@ zero_extendqisi2
 5901 0022 002B     		cmp	r3, #0
 5902 0024 41D0     		beq	.L446
 5903              	.LBB5:
1912:C:/Users/dtjld/workspace/AIoT/src/LiteOS_Lab/iot_link/network/dtls/mbedtls/mbedtls-2.16.2/library\rsa.c ****     {
1913:C:/Users/dtjld/workspace/AIoT/src/LiteOS_Lab/iot_link/network/dtls/mbedtls/mbedtls-2.16.2/library\rsa.c ****         const mbedtls_md_info_t *md_info = mbedtls_md_info_from_type( md_alg );
 5904              		.loc 1 1913 0
 5905 0026 FB7B     		ldrb	r3, [r7, #15]	@ zero_extendqisi2
 5906 0028 1846     		mov	r0, r3
 5907 002a FFF7FEFF 		bl	mbedtls_md_info_from_type
 5908 002e F861     		str	r0, [r7, #28]
1914:C:/Users/dtjld/workspace/AIoT/src/LiteOS_Lab/iot_link/network/dtls/mbedtls/mbedtls-2.16.2/library\rsa.c ****         if( md_info == NULL )
 5909              		.loc 1 1914 0
 5910 0030 FB69     		ldr	r3, [r7, #28]
 5911 0032 002B     		cmp	r3, #0
 5912 0034 01D1     		bne	.L447
1915:C:/Users/dtjld/workspace/AIoT/src/LiteOS_Lab/iot_link/network/dtls/mbedtls/mbedtls-2.16.2/library\rsa.c ****             return( MBEDTLS_ERR_RSA_BAD_INPUT_DATA );
 5913              		.loc 1 1915 0
 5914 0036 684B     		ldr	r3, .L459
 5915 0038 C9E0     		b	.L458
 5916              	.L447:
1916:C:/Users/dtjld/workspace/AIoT/src/LiteOS_Lab/iot_link/network/dtls/mbedtls/mbedtls-2.16.2/library\rsa.c **** 
1917:C:/Users/dtjld/workspace/AIoT/src/LiteOS_Lab/iot_link/network/dtls/mbedtls/mbedtls-2.16.2/library\rsa.c ****         if( mbedtls_oid_get_oid_by_md( md_alg, &oid, &oid_size ) != 0 )
 5917              		.loc 1 1917 0
 5918 003a 07F11802 		add	r2, r7, #24
 5919 003e 07F11401 		add	r1, r7, #20
 5920 0042 FB7B     		ldrb	r3, [r7, #15]	@ zero_extendqisi2
 5921 0044 1846     		mov	r0, r3
 5922 0046 FFF7FEFF 		bl	mbedtls_oid_get_oid_by_md
 5923 004a 0346     		mov	r3, r0
 5924 004c 002B     		cmp	r3, #0
 5925 004e 01D0     		beq	.L449
ARM GAS  C:\Users\dtjld\AppData\Local\Temp\cck1fUMg.s 			page 140


1918:C:/Users/dtjld/workspace/AIoT/src/LiteOS_Lab/iot_link/network/dtls/mbedtls/mbedtls-2.16.2/library\rsa.c ****             return( MBEDTLS_ERR_RSA_BAD_INPUT_DATA );
 5926              		.loc 1 1918 0
 5927 0050 614B     		ldr	r3, .L459
 5928 0052 BCE0     		b	.L458
 5929              	.L449:
1919:C:/Users/dtjld/workspace/AIoT/src/LiteOS_Lab/iot_link/network/dtls/mbedtls/mbedtls-2.16.2/library\rsa.c **** 
1920:C:/Users/dtjld/workspace/AIoT/src/LiteOS_Lab/iot_link/network/dtls/mbedtls/mbedtls-2.16.2/library\rsa.c ****         hashlen = mbedtls_md_get_size( md_info );
 5930              		.loc 1 1920 0
 5931 0054 F869     		ldr	r0, [r7, #28]
 5932 0056 FFF7FEFF 		bl	mbedtls_md_get_size
 5933 005a 0346     		mov	r3, r0
 5934 005c BB60     		str	r3, [r7, #8]
1921:C:/Users/dtjld/workspace/AIoT/src/LiteOS_Lab/iot_link/network/dtls/mbedtls/mbedtls-2.16.2/library\rsa.c **** 
1922:C:/Users/dtjld/workspace/AIoT/src/LiteOS_Lab/iot_link/network/dtls/mbedtls/mbedtls-2.16.2/library\rsa.c ****         /* Double-check that 8 + hashlen + oid_size can be used as a
1923:C:/Users/dtjld/workspace/AIoT/src/LiteOS_Lab/iot_link/network/dtls/mbedtls/mbedtls-2.16.2/library\rsa.c ****          * 1-byte ASN.1 length encoding and that there's no overflow. */
1924:C:/Users/dtjld/workspace/AIoT/src/LiteOS_Lab/iot_link/network/dtls/mbedtls/mbedtls-2.16.2/library\rsa.c ****         if( 8 + hashlen + oid_size  >= 0x80         ||
 5935              		.loc 1 1924 0
 5936 005e BA69     		ldr	r2, [r7, #24]
 5937 0060 BB68     		ldr	r3, [r7, #8]
 5938 0062 1344     		add	r3, r3, r2
 5939 0064 0833     		adds	r3, r3, #8
 5940 0066 7F2B     		cmp	r3, #127
 5941 0068 0CD8     		bhi	.L450
 5942              		.loc 1 1924 0 is_stmt 0 discriminator 1
 5943 006a BB68     		ldr	r3, [r7, #8]
 5944 006c 13F10B0F 		cmn	r3, #11
 5945 0070 08D8     		bhi	.L450
1925:C:/Users/dtjld/workspace/AIoT/src/LiteOS_Lab/iot_link/network/dtls/mbedtls/mbedtls-2.16.2/library\rsa.c ****             10 + hashlen            <  hashlen      ||
1926:C:/Users/dtjld/workspace/AIoT/src/LiteOS_Lab/iot_link/network/dtls/mbedtls/mbedtls-2.16.2/library\rsa.c ****             10 + hashlen + oid_size <  10 + hashlen )
 5946              		.loc 1 1926 0 is_stmt 1
 5947 0072 BA69     		ldr	r2, [r7, #24]
 5948 0074 BB68     		ldr	r3, [r7, #8]
 5949 0076 1344     		add	r3, r3, r2
 5950 0078 03F10A02 		add	r2, r3, #10
 5951 007c BB68     		ldr	r3, [r7, #8]
 5952 007e 0A33     		adds	r3, r3, #10
1925:C:/Users/dtjld/workspace/AIoT/src/LiteOS_Lab/iot_link/network/dtls/mbedtls/mbedtls-2.16.2/library\rsa.c ****             10 + hashlen            <  hashlen      ||
 5953              		.loc 1 1925 0
 5954 0080 9A42     		cmp	r2, r3
 5955 0082 01D2     		bcs	.L451
 5956              	.L450:
1927:C:/Users/dtjld/workspace/AIoT/src/LiteOS_Lab/iot_link/network/dtls/mbedtls/mbedtls-2.16.2/library\rsa.c ****             return( MBEDTLS_ERR_RSA_BAD_INPUT_DATA );
 5957              		.loc 1 1927 0
 5958 0084 544B     		ldr	r3, .L459
 5959 0086 A2E0     		b	.L458
 5960              	.L451:
1928:C:/Users/dtjld/workspace/AIoT/src/LiteOS_Lab/iot_link/network/dtls/mbedtls/mbedtls-2.16.2/library\rsa.c **** 
1929:C:/Users/dtjld/workspace/AIoT/src/LiteOS_Lab/iot_link/network/dtls/mbedtls/mbedtls-2.16.2/library\rsa.c ****         /*
1930:C:/Users/dtjld/workspace/AIoT/src/LiteOS_Lab/iot_link/network/dtls/mbedtls/mbedtls-2.16.2/library\rsa.c ****          * Static bounds check:
1931:C:/Users/dtjld/workspace/AIoT/src/LiteOS_Lab/iot_link/network/dtls/mbedtls/mbedtls-2.16.2/library\rsa.c ****          * - Need 10 bytes for five tag-length pairs.
1932:C:/Users/dtjld/workspace/AIoT/src/LiteOS_Lab/iot_link/network/dtls/mbedtls/mbedtls-2.16.2/library\rsa.c ****          *   (Insist on 1-byte length encodings to protect against variants of
1933:C:/Users/dtjld/workspace/AIoT/src/LiteOS_Lab/iot_link/network/dtls/mbedtls/mbedtls-2.16.2/library\rsa.c ****          *    Bleichenbacher's forgery attack against lax PKCS#1v1.5 verification)
1934:C:/Users/dtjld/workspace/AIoT/src/LiteOS_Lab/iot_link/network/dtls/mbedtls/mbedtls-2.16.2/library\rsa.c ****          * - Need hashlen bytes for hash
1935:C:/Users/dtjld/workspace/AIoT/src/LiteOS_Lab/iot_link/network/dtls/mbedtls/mbedtls-2.16.2/library\rsa.c ****          * - Need oid_size bytes for hash alg OID.
1936:C:/Users/dtjld/workspace/AIoT/src/LiteOS_Lab/iot_link/network/dtls/mbedtls/mbedtls-2.16.2/library\rsa.c ****          */
1937:C:/Users/dtjld/workspace/AIoT/src/LiteOS_Lab/iot_link/network/dtls/mbedtls/mbedtls-2.16.2/library\rsa.c ****         if( nb_pad < 10 + hashlen + oid_size )
 5961              		.loc 1 1937 0
ARM GAS  C:\Users\dtjld\AppData\Local\Temp\cck1fUMg.s 			page 141


 5962 0088 BA69     		ldr	r2, [r7, #24]
 5963 008a BB68     		ldr	r3, [r7, #8]
 5964 008c 1344     		add	r3, r3, r2
 5965 008e 0A33     		adds	r3, r3, #10
 5966 0090 7A6A     		ldr	r2, [r7, #36]
 5967 0092 9A42     		cmp	r2, r3
 5968 0094 01D2     		bcs	.L452
1938:C:/Users/dtjld/workspace/AIoT/src/LiteOS_Lab/iot_link/network/dtls/mbedtls/mbedtls-2.16.2/library\rsa.c ****             return( MBEDTLS_ERR_RSA_BAD_INPUT_DATA );
 5969              		.loc 1 1938 0
 5970 0096 504B     		ldr	r3, .L459
 5971 0098 99E0     		b	.L458
 5972              	.L452:
1939:C:/Users/dtjld/workspace/AIoT/src/LiteOS_Lab/iot_link/network/dtls/mbedtls/mbedtls-2.16.2/library\rsa.c ****         nb_pad -= 10 + hashlen + oid_size;
 5973              		.loc 1 1939 0
 5974 009a BA69     		ldr	r2, [r7, #24]
 5975 009c BB68     		ldr	r3, [r7, #8]
 5976 009e 1344     		add	r3, r3, r2
 5977 00a0 7A6A     		ldr	r2, [r7, #36]
 5978 00a2 D31A     		subs	r3, r2, r3
 5979 00a4 0A3B     		subs	r3, r3, #10
 5980 00a6 7B62     		str	r3, [r7, #36]
 5981              	.LBE5:
 5982 00a8 09E0     		b	.L453
 5983              	.L446:
1940:C:/Users/dtjld/workspace/AIoT/src/LiteOS_Lab/iot_link/network/dtls/mbedtls/mbedtls-2.16.2/library\rsa.c ****     }
1941:C:/Users/dtjld/workspace/AIoT/src/LiteOS_Lab/iot_link/network/dtls/mbedtls/mbedtls-2.16.2/library\rsa.c ****     else
1942:C:/Users/dtjld/workspace/AIoT/src/LiteOS_Lab/iot_link/network/dtls/mbedtls/mbedtls-2.16.2/library\rsa.c ****     {
1943:C:/Users/dtjld/workspace/AIoT/src/LiteOS_Lab/iot_link/network/dtls/mbedtls/mbedtls-2.16.2/library\rsa.c ****         if( nb_pad < hashlen )
 5984              		.loc 1 1943 0
 5985 00aa 7A6A     		ldr	r2, [r7, #36]
 5986 00ac BB68     		ldr	r3, [r7, #8]
 5987 00ae 9A42     		cmp	r2, r3
 5988 00b0 01D2     		bcs	.L454
1944:C:/Users/dtjld/workspace/AIoT/src/LiteOS_Lab/iot_link/network/dtls/mbedtls/mbedtls-2.16.2/library\rsa.c ****             return( MBEDTLS_ERR_RSA_BAD_INPUT_DATA );
 5989              		.loc 1 1944 0
 5990 00b2 494B     		ldr	r3, .L459
 5991 00b4 8BE0     		b	.L458
 5992              	.L454:
1945:C:/Users/dtjld/workspace/AIoT/src/LiteOS_Lab/iot_link/network/dtls/mbedtls/mbedtls-2.16.2/library\rsa.c **** 
1946:C:/Users/dtjld/workspace/AIoT/src/LiteOS_Lab/iot_link/network/dtls/mbedtls/mbedtls-2.16.2/library\rsa.c ****         nb_pad -= hashlen;
 5993              		.loc 1 1946 0
 5994 00b6 7A6A     		ldr	r2, [r7, #36]
 5995 00b8 BB68     		ldr	r3, [r7, #8]
 5996 00ba D31A     		subs	r3, r2, r3
 5997 00bc 7B62     		str	r3, [r7, #36]
 5998              	.L453:
1947:C:/Users/dtjld/workspace/AIoT/src/LiteOS_Lab/iot_link/network/dtls/mbedtls/mbedtls-2.16.2/library\rsa.c ****     }
1948:C:/Users/dtjld/workspace/AIoT/src/LiteOS_Lab/iot_link/network/dtls/mbedtls/mbedtls-2.16.2/library\rsa.c **** 
1949:C:/Users/dtjld/workspace/AIoT/src/LiteOS_Lab/iot_link/network/dtls/mbedtls/mbedtls-2.16.2/library\rsa.c ****     /* Need space for signature header and padding delimiter (3 bytes),
1950:C:/Users/dtjld/workspace/AIoT/src/LiteOS_Lab/iot_link/network/dtls/mbedtls/mbedtls-2.16.2/library\rsa.c ****      * and 8 bytes for the minimal padding */
1951:C:/Users/dtjld/workspace/AIoT/src/LiteOS_Lab/iot_link/network/dtls/mbedtls/mbedtls-2.16.2/library\rsa.c ****     if( nb_pad < 3 + 8 )
 5999              		.loc 1 1951 0
 6000 00be 7B6A     		ldr	r3, [r7, #36]
 6001 00c0 0A2B     		cmp	r3, #10
 6002 00c2 01D8     		bhi	.L455
1952:C:/Users/dtjld/workspace/AIoT/src/LiteOS_Lab/iot_link/network/dtls/mbedtls/mbedtls-2.16.2/library\rsa.c ****         return( MBEDTLS_ERR_RSA_BAD_INPUT_DATA );
 6003              		.loc 1 1952 0
ARM GAS  C:\Users\dtjld\AppData\Local\Temp\cck1fUMg.s 			page 142


 6004 00c4 444B     		ldr	r3, .L459
 6005 00c6 82E0     		b	.L458
 6006              	.L455:
1953:C:/Users/dtjld/workspace/AIoT/src/LiteOS_Lab/iot_link/network/dtls/mbedtls/mbedtls-2.16.2/library\rsa.c ****     nb_pad -= 3;
 6007              		.loc 1 1953 0
 6008 00c8 7B6A     		ldr	r3, [r7, #36]
 6009 00ca 033B     		subs	r3, r3, #3
 6010 00cc 7B62     		str	r3, [r7, #36]
1954:C:/Users/dtjld/workspace/AIoT/src/LiteOS_Lab/iot_link/network/dtls/mbedtls/mbedtls-2.16.2/library\rsa.c **** 
1955:C:/Users/dtjld/workspace/AIoT/src/LiteOS_Lab/iot_link/network/dtls/mbedtls/mbedtls-2.16.2/library\rsa.c ****     /* Now nb_pad is the amount of memory to be filled
1956:C:/Users/dtjld/workspace/AIoT/src/LiteOS_Lab/iot_link/network/dtls/mbedtls/mbedtls-2.16.2/library\rsa.c ****      * with padding, and at least 8 bytes long. */
1957:C:/Users/dtjld/workspace/AIoT/src/LiteOS_Lab/iot_link/network/dtls/mbedtls/mbedtls-2.16.2/library\rsa.c **** 
1958:C:/Users/dtjld/workspace/AIoT/src/LiteOS_Lab/iot_link/network/dtls/mbedtls/mbedtls-2.16.2/library\rsa.c ****     /* Write signature header and padding */
1959:C:/Users/dtjld/workspace/AIoT/src/LiteOS_Lab/iot_link/network/dtls/mbedtls/mbedtls-2.16.2/library\rsa.c ****     *p++ = 0;
 6011              		.loc 1 1959 0
 6012 00ce 3B6A     		ldr	r3, [r7, #32]
 6013 00d0 5A1C     		adds	r2, r3, #1
 6014 00d2 3A62     		str	r2, [r7, #32]
 6015 00d4 0022     		movs	r2, #0
 6016 00d6 1A70     		strb	r2, [r3]
1960:C:/Users/dtjld/workspace/AIoT/src/LiteOS_Lab/iot_link/network/dtls/mbedtls/mbedtls-2.16.2/library\rsa.c ****     *p++ = MBEDTLS_RSA_SIGN;
 6017              		.loc 1 1960 0
 6018 00d8 3B6A     		ldr	r3, [r7, #32]
 6019 00da 5A1C     		adds	r2, r3, #1
 6020 00dc 3A62     		str	r2, [r7, #32]
 6021 00de 0122     		movs	r2, #1
 6022 00e0 1A70     		strb	r2, [r3]
1961:C:/Users/dtjld/workspace/AIoT/src/LiteOS_Lab/iot_link/network/dtls/mbedtls/mbedtls-2.16.2/library\rsa.c ****     memset( p, 0xFF, nb_pad );
 6023              		.loc 1 1961 0
 6024 00e2 7A6A     		ldr	r2, [r7, #36]
 6025 00e4 FF21     		movs	r1, #255
 6026 00e6 386A     		ldr	r0, [r7, #32]
 6027 00e8 FFF7FEFF 		bl	memset
1962:C:/Users/dtjld/workspace/AIoT/src/LiteOS_Lab/iot_link/network/dtls/mbedtls/mbedtls-2.16.2/library\rsa.c ****     p += nb_pad;
 6028              		.loc 1 1962 0
 6029 00ec 3A6A     		ldr	r2, [r7, #32]
 6030 00ee 7B6A     		ldr	r3, [r7, #36]
 6031 00f0 1344     		add	r3, r3, r2
 6032 00f2 3B62     		str	r3, [r7, #32]
1963:C:/Users/dtjld/workspace/AIoT/src/LiteOS_Lab/iot_link/network/dtls/mbedtls/mbedtls-2.16.2/library\rsa.c ****     *p++ = 0;
 6033              		.loc 1 1963 0
 6034 00f4 3B6A     		ldr	r3, [r7, #32]
 6035 00f6 5A1C     		adds	r2, r3, #1
 6036 00f8 3A62     		str	r2, [r7, #32]
 6037 00fa 0022     		movs	r2, #0
 6038 00fc 1A70     		strb	r2, [r3]
1964:C:/Users/dtjld/workspace/AIoT/src/LiteOS_Lab/iot_link/network/dtls/mbedtls/mbedtls-2.16.2/library\rsa.c **** 
1965:C:/Users/dtjld/workspace/AIoT/src/LiteOS_Lab/iot_link/network/dtls/mbedtls/mbedtls-2.16.2/library\rsa.c ****     /* Are we signing raw data? */
1966:C:/Users/dtjld/workspace/AIoT/src/LiteOS_Lab/iot_link/network/dtls/mbedtls/mbedtls-2.16.2/library\rsa.c ****     if( md_alg == MBEDTLS_MD_NONE )
 6039              		.loc 1 1966 0
 6040 00fe FB7B     		ldrb	r3, [r7, #15]	@ zero_extendqisi2
 6041 0100 002B     		cmp	r3, #0
 6042 0102 06D1     		bne	.L456
1967:C:/Users/dtjld/workspace/AIoT/src/LiteOS_Lab/iot_link/network/dtls/mbedtls/mbedtls-2.16.2/library\rsa.c ****     {
1968:C:/Users/dtjld/workspace/AIoT/src/LiteOS_Lab/iot_link/network/dtls/mbedtls/mbedtls-2.16.2/library\rsa.c ****         memcpy( p, hash, hashlen );
 6043              		.loc 1 1968 0
 6044 0104 BA68     		ldr	r2, [r7, #8]
ARM GAS  C:\Users\dtjld\AppData\Local\Temp\cck1fUMg.s 			page 143


 6045 0106 7968     		ldr	r1, [r7, #4]
 6046 0108 386A     		ldr	r0, [r7, #32]
 6047 010a FFF7FEFF 		bl	memcpy
1969:C:/Users/dtjld/workspace/AIoT/src/LiteOS_Lab/iot_link/network/dtls/mbedtls/mbedtls-2.16.2/library\rsa.c ****         return( 0 );
 6048              		.loc 1 1969 0
 6049 010e 0023     		movs	r3, #0
 6050 0110 5DE0     		b	.L458
 6051              	.L456:
1970:C:/Users/dtjld/workspace/AIoT/src/LiteOS_Lab/iot_link/network/dtls/mbedtls/mbedtls-2.16.2/library\rsa.c ****     }
1971:C:/Users/dtjld/workspace/AIoT/src/LiteOS_Lab/iot_link/network/dtls/mbedtls/mbedtls-2.16.2/library\rsa.c **** 
1972:C:/Users/dtjld/workspace/AIoT/src/LiteOS_Lab/iot_link/network/dtls/mbedtls/mbedtls-2.16.2/library\rsa.c ****     /* Signing hashed data, add corresponding ASN.1 structure
1973:C:/Users/dtjld/workspace/AIoT/src/LiteOS_Lab/iot_link/network/dtls/mbedtls/mbedtls-2.16.2/library\rsa.c ****      *
1974:C:/Users/dtjld/workspace/AIoT/src/LiteOS_Lab/iot_link/network/dtls/mbedtls/mbedtls-2.16.2/library\rsa.c ****      * DigestInfo ::= SEQUENCE {
1975:C:/Users/dtjld/workspace/AIoT/src/LiteOS_Lab/iot_link/network/dtls/mbedtls/mbedtls-2.16.2/library\rsa.c ****      *   digestAlgorithm DigestAlgorithmIdentifier,
1976:C:/Users/dtjld/workspace/AIoT/src/LiteOS_Lab/iot_link/network/dtls/mbedtls/mbedtls-2.16.2/library\rsa.c ****      *   digest Digest }
1977:C:/Users/dtjld/workspace/AIoT/src/LiteOS_Lab/iot_link/network/dtls/mbedtls/mbedtls-2.16.2/library\rsa.c ****      * DigestAlgorithmIdentifier ::= AlgorithmIdentifier
1978:C:/Users/dtjld/workspace/AIoT/src/LiteOS_Lab/iot_link/network/dtls/mbedtls/mbedtls-2.16.2/library\rsa.c ****      * Digest ::= OCTET STRING
1979:C:/Users/dtjld/workspace/AIoT/src/LiteOS_Lab/iot_link/network/dtls/mbedtls/mbedtls-2.16.2/library\rsa.c ****      *
1980:C:/Users/dtjld/workspace/AIoT/src/LiteOS_Lab/iot_link/network/dtls/mbedtls/mbedtls-2.16.2/library\rsa.c ****      * Schematic:
1981:C:/Users/dtjld/workspace/AIoT/src/LiteOS_Lab/iot_link/network/dtls/mbedtls/mbedtls-2.16.2/library\rsa.c ****      * TAG-SEQ + LEN [ TAG-SEQ + LEN [ TAG-OID  + LEN [ OID  ]
1982:C:/Users/dtjld/workspace/AIoT/src/LiteOS_Lab/iot_link/network/dtls/mbedtls/mbedtls-2.16.2/library\rsa.c ****      *                                 TAG-NULL + LEN [ NULL ] ]
1983:C:/Users/dtjld/workspace/AIoT/src/LiteOS_Lab/iot_link/network/dtls/mbedtls/mbedtls-2.16.2/library\rsa.c ****      *                 TAG-OCTET + LEN [ HASH ] ]
1984:C:/Users/dtjld/workspace/AIoT/src/LiteOS_Lab/iot_link/network/dtls/mbedtls/mbedtls-2.16.2/library\rsa.c ****      */
1985:C:/Users/dtjld/workspace/AIoT/src/LiteOS_Lab/iot_link/network/dtls/mbedtls/mbedtls-2.16.2/library\rsa.c ****     *p++ = MBEDTLS_ASN1_SEQUENCE | MBEDTLS_ASN1_CONSTRUCTED;
 6052              		.loc 1 1985 0
 6053 0112 3B6A     		ldr	r3, [r7, #32]
 6054 0114 5A1C     		adds	r2, r3, #1
 6055 0116 3A62     		str	r2, [r7, #32]
 6056 0118 3022     		movs	r2, #48
 6057 011a 1A70     		strb	r2, [r3]
1986:C:/Users/dtjld/workspace/AIoT/src/LiteOS_Lab/iot_link/network/dtls/mbedtls/mbedtls-2.16.2/library\rsa.c ****     *p++ = (unsigned char)( 0x08 + oid_size + hashlen );
 6058              		.loc 1 1986 0
 6059 011c BB69     		ldr	r3, [r7, #24]
 6060 011e DAB2     		uxtb	r2, r3
 6061 0120 BB68     		ldr	r3, [r7, #8]
 6062 0122 DBB2     		uxtb	r3, r3
 6063 0124 1344     		add	r3, r3, r2
 6064 0126 DAB2     		uxtb	r2, r3
 6065 0128 3B6A     		ldr	r3, [r7, #32]
 6066 012a 591C     		adds	r1, r3, #1
 6067 012c 3962     		str	r1, [r7, #32]
 6068 012e 0832     		adds	r2, r2, #8
 6069 0130 D2B2     		uxtb	r2, r2
 6070 0132 1A70     		strb	r2, [r3]
1987:C:/Users/dtjld/workspace/AIoT/src/LiteOS_Lab/iot_link/network/dtls/mbedtls/mbedtls-2.16.2/library\rsa.c ****     *p++ = MBEDTLS_ASN1_SEQUENCE | MBEDTLS_ASN1_CONSTRUCTED;
 6071              		.loc 1 1987 0
 6072 0134 3B6A     		ldr	r3, [r7, #32]
 6073 0136 5A1C     		adds	r2, r3, #1
 6074 0138 3A62     		str	r2, [r7, #32]
 6075 013a 3022     		movs	r2, #48
 6076 013c 1A70     		strb	r2, [r3]
1988:C:/Users/dtjld/workspace/AIoT/src/LiteOS_Lab/iot_link/network/dtls/mbedtls/mbedtls-2.16.2/library\rsa.c ****     *p++ = (unsigned char)( 0x04 + oid_size );
 6077              		.loc 1 1988 0
 6078 013e BB69     		ldr	r3, [r7, #24]
 6079 0140 DAB2     		uxtb	r2, r3
 6080 0142 3B6A     		ldr	r3, [r7, #32]
 6081 0144 591C     		adds	r1, r3, #1
ARM GAS  C:\Users\dtjld\AppData\Local\Temp\cck1fUMg.s 			page 144


 6082 0146 3962     		str	r1, [r7, #32]
 6083 0148 0432     		adds	r2, r2, #4
 6084 014a D2B2     		uxtb	r2, r2
 6085 014c 1A70     		strb	r2, [r3]
1989:C:/Users/dtjld/workspace/AIoT/src/LiteOS_Lab/iot_link/network/dtls/mbedtls/mbedtls-2.16.2/library\rsa.c ****     *p++ = MBEDTLS_ASN1_OID;
 6086              		.loc 1 1989 0
 6087 014e 3B6A     		ldr	r3, [r7, #32]
 6088 0150 5A1C     		adds	r2, r3, #1
 6089 0152 3A62     		str	r2, [r7, #32]
 6090 0154 0622     		movs	r2, #6
 6091 0156 1A70     		strb	r2, [r3]
1990:C:/Users/dtjld/workspace/AIoT/src/LiteOS_Lab/iot_link/network/dtls/mbedtls/mbedtls-2.16.2/library\rsa.c ****     *p++ = (unsigned char) oid_size;
 6092              		.loc 1 1990 0
 6093 0158 B969     		ldr	r1, [r7, #24]
 6094 015a 3B6A     		ldr	r3, [r7, #32]
 6095 015c 5A1C     		adds	r2, r3, #1
 6096 015e 3A62     		str	r2, [r7, #32]
 6097 0160 CAB2     		uxtb	r2, r1
 6098 0162 1A70     		strb	r2, [r3]
1991:C:/Users/dtjld/workspace/AIoT/src/LiteOS_Lab/iot_link/network/dtls/mbedtls/mbedtls-2.16.2/library\rsa.c ****     memcpy( p, oid, oid_size );
 6099              		.loc 1 1991 0
 6100 0164 7B69     		ldr	r3, [r7, #20]
 6101 0166 BA69     		ldr	r2, [r7, #24]
 6102 0168 1946     		mov	r1, r3
 6103 016a 386A     		ldr	r0, [r7, #32]
 6104 016c FFF7FEFF 		bl	memcpy
1992:C:/Users/dtjld/workspace/AIoT/src/LiteOS_Lab/iot_link/network/dtls/mbedtls/mbedtls-2.16.2/library\rsa.c ****     p += oid_size;
 6105              		.loc 1 1992 0
 6106 0170 BB69     		ldr	r3, [r7, #24]
 6107 0172 3A6A     		ldr	r2, [r7, #32]
 6108 0174 1344     		add	r3, r3, r2
 6109 0176 3B62     		str	r3, [r7, #32]
1993:C:/Users/dtjld/workspace/AIoT/src/LiteOS_Lab/iot_link/network/dtls/mbedtls/mbedtls-2.16.2/library\rsa.c ****     *p++ = MBEDTLS_ASN1_NULL;
 6110              		.loc 1 1993 0
 6111 0178 3B6A     		ldr	r3, [r7, #32]
 6112 017a 5A1C     		adds	r2, r3, #1
 6113 017c 3A62     		str	r2, [r7, #32]
 6114 017e 0522     		movs	r2, #5
 6115 0180 1A70     		strb	r2, [r3]
1994:C:/Users/dtjld/workspace/AIoT/src/LiteOS_Lab/iot_link/network/dtls/mbedtls/mbedtls-2.16.2/library\rsa.c ****     *p++ = 0x00;
 6116              		.loc 1 1994 0
 6117 0182 3B6A     		ldr	r3, [r7, #32]
 6118 0184 5A1C     		adds	r2, r3, #1
 6119 0186 3A62     		str	r2, [r7, #32]
 6120 0188 0022     		movs	r2, #0
 6121 018a 1A70     		strb	r2, [r3]
1995:C:/Users/dtjld/workspace/AIoT/src/LiteOS_Lab/iot_link/network/dtls/mbedtls/mbedtls-2.16.2/library\rsa.c ****     *p++ = MBEDTLS_ASN1_OCTET_STRING;
 6122              		.loc 1 1995 0
 6123 018c 3B6A     		ldr	r3, [r7, #32]
 6124 018e 5A1C     		adds	r2, r3, #1
 6125 0190 3A62     		str	r2, [r7, #32]
 6126 0192 0422     		movs	r2, #4
 6127 0194 1A70     		strb	r2, [r3]
1996:C:/Users/dtjld/workspace/AIoT/src/LiteOS_Lab/iot_link/network/dtls/mbedtls/mbedtls-2.16.2/library\rsa.c ****     *p++ = (unsigned char) hashlen;
 6128              		.loc 1 1996 0
 6129 0196 3B6A     		ldr	r3, [r7, #32]
 6130 0198 5A1C     		adds	r2, r3, #1
ARM GAS  C:\Users\dtjld\AppData\Local\Temp\cck1fUMg.s 			page 145


 6131 019a 3A62     		str	r2, [r7, #32]
 6132 019c BA68     		ldr	r2, [r7, #8]
 6133 019e D2B2     		uxtb	r2, r2
 6134 01a0 1A70     		strb	r2, [r3]
1997:C:/Users/dtjld/workspace/AIoT/src/LiteOS_Lab/iot_link/network/dtls/mbedtls/mbedtls-2.16.2/library\rsa.c ****     memcpy( p, hash, hashlen );
 6135              		.loc 1 1997 0
 6136 01a2 BA68     		ldr	r2, [r7, #8]
 6137 01a4 7968     		ldr	r1, [r7, #4]
 6138 01a6 386A     		ldr	r0, [r7, #32]
 6139 01a8 FFF7FEFF 		bl	memcpy
1998:C:/Users/dtjld/workspace/AIoT/src/LiteOS_Lab/iot_link/network/dtls/mbedtls/mbedtls-2.16.2/library\rsa.c ****     p += hashlen;
 6140              		.loc 1 1998 0
 6141 01ac 3A6A     		ldr	r2, [r7, #32]
 6142 01ae BB68     		ldr	r3, [r7, #8]
 6143 01b0 1344     		add	r3, r3, r2
 6144 01b2 3B62     		str	r3, [r7, #32]
1999:C:/Users/dtjld/workspace/AIoT/src/LiteOS_Lab/iot_link/network/dtls/mbedtls/mbedtls-2.16.2/library\rsa.c **** 
2000:C:/Users/dtjld/workspace/AIoT/src/LiteOS_Lab/iot_link/network/dtls/mbedtls/mbedtls-2.16.2/library\rsa.c ****     /* Just a sanity-check, should be automatic
2001:C:/Users/dtjld/workspace/AIoT/src/LiteOS_Lab/iot_link/network/dtls/mbedtls/mbedtls-2.16.2/library\rsa.c ****      * after the initial bounds check. */
2002:C:/Users/dtjld/workspace/AIoT/src/LiteOS_Lab/iot_link/network/dtls/mbedtls/mbedtls-2.16.2/library\rsa.c ****     if( p != dst + dst_len )
 6145              		.loc 1 2002 0
 6146 01b4 3A6B     		ldr	r2, [r7, #48]
 6147 01b6 3B68     		ldr	r3, [r7]
 6148 01b8 1344     		add	r3, r3, r2
 6149 01ba 3A6A     		ldr	r2, [r7, #32]
 6150 01bc 9A42     		cmp	r2, r3
 6151 01be 05D0     		beq	.L457
2003:C:/Users/dtjld/workspace/AIoT/src/LiteOS_Lab/iot_link/network/dtls/mbedtls/mbedtls-2.16.2/library\rsa.c ****     {
2004:C:/Users/dtjld/workspace/AIoT/src/LiteOS_Lab/iot_link/network/dtls/mbedtls/mbedtls-2.16.2/library\rsa.c ****         mbedtls_platform_zeroize( dst, dst_len );
 6152              		.loc 1 2004 0
 6153 01c0 3968     		ldr	r1, [r7]
 6154 01c2 386B     		ldr	r0, [r7, #48]
 6155 01c4 FFF7FEFF 		bl	mbedtls_platform_zeroize
2005:C:/Users/dtjld/workspace/AIoT/src/LiteOS_Lab/iot_link/network/dtls/mbedtls/mbedtls-2.16.2/library\rsa.c ****         return( MBEDTLS_ERR_RSA_BAD_INPUT_DATA );
 6156              		.loc 1 2005 0
 6157 01c8 034B     		ldr	r3, .L459
 6158 01ca 00E0     		b	.L458
 6159              	.L457:
2006:C:/Users/dtjld/workspace/AIoT/src/LiteOS_Lab/iot_link/network/dtls/mbedtls/mbedtls-2.16.2/library\rsa.c ****     }
2007:C:/Users/dtjld/workspace/AIoT/src/LiteOS_Lab/iot_link/network/dtls/mbedtls/mbedtls-2.16.2/library\rsa.c **** 
2008:C:/Users/dtjld/workspace/AIoT/src/LiteOS_Lab/iot_link/network/dtls/mbedtls/mbedtls-2.16.2/library\rsa.c ****     return( 0 );
 6160              		.loc 1 2008 0
 6161 01cc 0023     		movs	r3, #0
 6162              	.L458:
2009:C:/Users/dtjld/workspace/AIoT/src/LiteOS_Lab/iot_link/network/dtls/mbedtls/mbedtls-2.16.2/library\rsa.c **** }
 6163              		.loc 1 2009 0 discriminator 1
 6164 01ce 1846     		mov	r0, r3
 6165 01d0 2837     		adds	r7, r7, #40
 6166              	.LCFI158:
 6167              		.cfi_def_cfa_offset 8
 6168 01d2 BD46     		mov	sp, r7
 6169              	.LCFI159:
 6170              		.cfi_def_cfa_register 13
 6171              		@ sp needed
 6172 01d4 80BD     		pop	{r7, pc}
 6173              	.L460:
 6174 01d6 00BF     		.align	2
ARM GAS  C:\Users\dtjld\AppData\Local\Temp\cck1fUMg.s 			page 146


 6175              	.L459:
 6176 01d8 80BFFFFF 		.word	-16512
 6177              		.cfi_endproc
 6178              	.LFE43:
 6180              		.section	.text.mbedtls_rsa_rsassa_pkcs1_v15_sign,"ax",%progbits
 6181              		.align	1
 6182              		.global	mbedtls_rsa_rsassa_pkcs1_v15_sign
 6183              		.syntax unified
 6184              		.thumb
 6185              		.thumb_func
 6186              		.fpu fpv4-sp-d16
 6188              	mbedtls_rsa_rsassa_pkcs1_v15_sign:
 6189              	.LFB44:
2010:C:/Users/dtjld/workspace/AIoT/src/LiteOS_Lab/iot_link/network/dtls/mbedtls/mbedtls-2.16.2/library\rsa.c **** 
2011:C:/Users/dtjld/workspace/AIoT/src/LiteOS_Lab/iot_link/network/dtls/mbedtls/mbedtls-2.16.2/library\rsa.c **** /*
2012:C:/Users/dtjld/workspace/AIoT/src/LiteOS_Lab/iot_link/network/dtls/mbedtls/mbedtls-2.16.2/library\rsa.c ****  * Do an RSA operation to sign the message digest
2013:C:/Users/dtjld/workspace/AIoT/src/LiteOS_Lab/iot_link/network/dtls/mbedtls/mbedtls-2.16.2/library\rsa.c ****  */
2014:C:/Users/dtjld/workspace/AIoT/src/LiteOS_Lab/iot_link/network/dtls/mbedtls/mbedtls-2.16.2/library\rsa.c **** int mbedtls_rsa_rsassa_pkcs1_v15_sign( mbedtls_rsa_context *ctx,
2015:C:/Users/dtjld/workspace/AIoT/src/LiteOS_Lab/iot_link/network/dtls/mbedtls/mbedtls-2.16.2/library\rsa.c ****                                int (*f_rng)(void *, unsigned char *, size_t),
2016:C:/Users/dtjld/workspace/AIoT/src/LiteOS_Lab/iot_link/network/dtls/mbedtls/mbedtls-2.16.2/library\rsa.c ****                                void *p_rng,
2017:C:/Users/dtjld/workspace/AIoT/src/LiteOS_Lab/iot_link/network/dtls/mbedtls/mbedtls-2.16.2/library\rsa.c ****                                int mode,
2018:C:/Users/dtjld/workspace/AIoT/src/LiteOS_Lab/iot_link/network/dtls/mbedtls/mbedtls-2.16.2/library\rsa.c ****                                mbedtls_md_type_t md_alg,
2019:C:/Users/dtjld/workspace/AIoT/src/LiteOS_Lab/iot_link/network/dtls/mbedtls/mbedtls-2.16.2/library\rsa.c ****                                unsigned int hashlen,
2020:C:/Users/dtjld/workspace/AIoT/src/LiteOS_Lab/iot_link/network/dtls/mbedtls/mbedtls-2.16.2/library\rsa.c ****                                const unsigned char *hash,
2021:C:/Users/dtjld/workspace/AIoT/src/LiteOS_Lab/iot_link/network/dtls/mbedtls/mbedtls-2.16.2/library\rsa.c ****                                unsigned char *sig )
2022:C:/Users/dtjld/workspace/AIoT/src/LiteOS_Lab/iot_link/network/dtls/mbedtls/mbedtls-2.16.2/library\rsa.c **** {
 6190              		.loc 1 2022 0
 6191              		.cfi_startproc
 6192              		@ args = 16, pretend = 0, frame = 32
 6193              		@ frame_needed = 1, uses_anonymous_args = 0
 6194 0000 80B5     		push	{r7, lr}
 6195              	.LCFI160:
 6196              		.cfi_def_cfa_offset 8
 6197              		.cfi_offset 7, -8
 6198              		.cfi_offset 14, -4
 6199 0002 8AB0     		sub	sp, sp, #40
 6200              	.LCFI161:
 6201              		.cfi_def_cfa_offset 48
 6202 0004 02AF     		add	r7, sp, #8
 6203              	.LCFI162:
 6204              		.cfi_def_cfa 7, 40
 6205 0006 F860     		str	r0, [r7, #12]
 6206 0008 B960     		str	r1, [r7, #8]
 6207 000a 7A60     		str	r2, [r7, #4]
 6208 000c 3B60     		str	r3, [r7]
2023:C:/Users/dtjld/workspace/AIoT/src/LiteOS_Lab/iot_link/network/dtls/mbedtls/mbedtls-2.16.2/library\rsa.c ****     int ret;
2024:C:/Users/dtjld/workspace/AIoT/src/LiteOS_Lab/iot_link/network/dtls/mbedtls/mbedtls-2.16.2/library\rsa.c ****     unsigned char *sig_try = NULL, *verif = NULL;
 6209              		.loc 1 2024 0
 6210 000e 0023     		movs	r3, #0
 6211 0010 BB61     		str	r3, [r7, #24]
 6212 0012 0023     		movs	r3, #0
 6213 0014 7B61     		str	r3, [r7, #20]
2025:C:/Users/dtjld/workspace/AIoT/src/LiteOS_Lab/iot_link/network/dtls/mbedtls/mbedtls-2.16.2/library\rsa.c **** 
2026:C:/Users/dtjld/workspace/AIoT/src/LiteOS_Lab/iot_link/network/dtls/mbedtls/mbedtls-2.16.2/library\rsa.c ****     RSA_VALIDATE_RET( ctx != NULL );
2027:C:/Users/dtjld/workspace/AIoT/src/LiteOS_Lab/iot_link/network/dtls/mbedtls/mbedtls-2.16.2/library\rsa.c ****     RSA_VALIDATE_RET( mode == MBEDTLS_RSA_PRIVATE ||
2028:C:/Users/dtjld/workspace/AIoT/src/LiteOS_Lab/iot_link/network/dtls/mbedtls/mbedtls-2.16.2/library\rsa.c ****                       mode == MBEDTLS_RSA_PUBLIC );
2029:C:/Users/dtjld/workspace/AIoT/src/LiteOS_Lab/iot_link/network/dtls/mbedtls/mbedtls-2.16.2/library\rsa.c ****     RSA_VALIDATE_RET( ( md_alg  == MBEDTLS_MD_NONE &&
ARM GAS  C:\Users\dtjld\AppData\Local\Temp\cck1fUMg.s 			page 147


2030:C:/Users/dtjld/workspace/AIoT/src/LiteOS_Lab/iot_link/network/dtls/mbedtls/mbedtls-2.16.2/library\rsa.c ****                         hashlen == 0 ) ||
2031:C:/Users/dtjld/workspace/AIoT/src/LiteOS_Lab/iot_link/network/dtls/mbedtls/mbedtls-2.16.2/library\rsa.c ****                       hash != NULL );
2032:C:/Users/dtjld/workspace/AIoT/src/LiteOS_Lab/iot_link/network/dtls/mbedtls/mbedtls-2.16.2/library\rsa.c ****     RSA_VALIDATE_RET( sig != NULL );
2033:C:/Users/dtjld/workspace/AIoT/src/LiteOS_Lab/iot_link/network/dtls/mbedtls/mbedtls-2.16.2/library\rsa.c **** 
2034:C:/Users/dtjld/workspace/AIoT/src/LiteOS_Lab/iot_link/network/dtls/mbedtls/mbedtls-2.16.2/library\rsa.c ****     if( mode == MBEDTLS_RSA_PRIVATE && ctx->padding != MBEDTLS_RSA_PKCS_V15 )
 6214              		.loc 1 2034 0
 6215 0016 3B68     		ldr	r3, [r7]
 6216 0018 012B     		cmp	r3, #1
 6217 001a 06D1     		bne	.L462
 6218              		.loc 1 2034 0 is_stmt 0 discriminator 1
 6219 001c FB68     		ldr	r3, [r7, #12]
 6220 001e D3F8A430 		ldr	r3, [r3, #164]
 6221 0022 002B     		cmp	r3, #0
 6222 0024 01D0     		beq	.L462
2035:C:/Users/dtjld/workspace/AIoT/src/LiteOS_Lab/iot_link/network/dtls/mbedtls/mbedtls-2.16.2/library\rsa.c ****         return( MBEDTLS_ERR_RSA_BAD_INPUT_DATA );
 6223              		.loc 1 2035 0 is_stmt 1
 6224 0026 394B     		ldr	r3, .L474
 6225 0028 6BE0     		b	.L463
 6226              	.L462:
2036:C:/Users/dtjld/workspace/AIoT/src/LiteOS_Lab/iot_link/network/dtls/mbedtls/mbedtls-2.16.2/library\rsa.c **** 
2037:C:/Users/dtjld/workspace/AIoT/src/LiteOS_Lab/iot_link/network/dtls/mbedtls/mbedtls-2.16.2/library\rsa.c ****     /*
2038:C:/Users/dtjld/workspace/AIoT/src/LiteOS_Lab/iot_link/network/dtls/mbedtls/mbedtls-2.16.2/library\rsa.c ****      * Prepare PKCS1-v1.5 encoding (padding and hash identifier)
2039:C:/Users/dtjld/workspace/AIoT/src/LiteOS_Lab/iot_link/network/dtls/mbedtls/mbedtls-2.16.2/library\rsa.c ****      */
2040:C:/Users/dtjld/workspace/AIoT/src/LiteOS_Lab/iot_link/network/dtls/mbedtls/mbedtls-2.16.2/library\rsa.c **** 
2041:C:/Users/dtjld/workspace/AIoT/src/LiteOS_Lab/iot_link/network/dtls/mbedtls/mbedtls-2.16.2/library\rsa.c ****     if( ( ret = rsa_rsassa_pkcs1_v15_encode( md_alg, hashlen, hash,
 6227              		.loc 1 2041 0
 6228 002a FB68     		ldr	r3, [r7, #12]
 6229 002c 5A68     		ldr	r2, [r3, #4]
 6230 002e 97F82800 		ldrb	r0, [r7, #40]	@ zero_extendqisi2
 6231 0032 7B6B     		ldr	r3, [r7, #52]
 6232 0034 0093     		str	r3, [sp]
 6233 0036 1346     		mov	r3, r2
 6234 0038 3A6B     		ldr	r2, [r7, #48]
 6235 003a F96A     		ldr	r1, [r7, #44]
 6236 003c FFF7FEFF 		bl	rsa_rsassa_pkcs1_v15_encode
 6237 0040 F861     		str	r0, [r7, #28]
 6238 0042 FB69     		ldr	r3, [r7, #28]
 6239 0044 002B     		cmp	r3, #0
 6240 0046 01D0     		beq	.L464
2042:C:/Users/dtjld/workspace/AIoT/src/LiteOS_Lab/iot_link/network/dtls/mbedtls/mbedtls-2.16.2/library\rsa.c ****                                              ctx->len, sig ) ) != 0 )
2043:C:/Users/dtjld/workspace/AIoT/src/LiteOS_Lab/iot_link/network/dtls/mbedtls/mbedtls-2.16.2/library\rsa.c ****         return( ret );
 6241              		.loc 1 2043 0
 6242 0048 FB69     		ldr	r3, [r7, #28]
 6243 004a 5AE0     		b	.L463
 6244              	.L464:
2044:C:/Users/dtjld/workspace/AIoT/src/LiteOS_Lab/iot_link/network/dtls/mbedtls/mbedtls-2.16.2/library\rsa.c **** 
2045:C:/Users/dtjld/workspace/AIoT/src/LiteOS_Lab/iot_link/network/dtls/mbedtls/mbedtls-2.16.2/library\rsa.c ****     /*
2046:C:/Users/dtjld/workspace/AIoT/src/LiteOS_Lab/iot_link/network/dtls/mbedtls/mbedtls-2.16.2/library\rsa.c ****      * Call respective RSA primitive
2047:C:/Users/dtjld/workspace/AIoT/src/LiteOS_Lab/iot_link/network/dtls/mbedtls/mbedtls-2.16.2/library\rsa.c ****      */
2048:C:/Users/dtjld/workspace/AIoT/src/LiteOS_Lab/iot_link/network/dtls/mbedtls/mbedtls-2.16.2/library\rsa.c **** 
2049:C:/Users/dtjld/workspace/AIoT/src/LiteOS_Lab/iot_link/network/dtls/mbedtls/mbedtls-2.16.2/library\rsa.c ****     if( mode == MBEDTLS_RSA_PUBLIC )
 6245              		.loc 1 2049 0
 6246 004c 3B68     		ldr	r3, [r7]
 6247 004e 002B     		cmp	r3, #0
 6248 0050 06D1     		bne	.L465
2050:C:/Users/dtjld/workspace/AIoT/src/LiteOS_Lab/iot_link/network/dtls/mbedtls/mbedtls-2.16.2/library\rsa.c ****     {
2051:C:/Users/dtjld/workspace/AIoT/src/LiteOS_Lab/iot_link/network/dtls/mbedtls/mbedtls-2.16.2/library\rsa.c ****         /* Skip verification on a public key operation */
ARM GAS  C:\Users\dtjld\AppData\Local\Temp\cck1fUMg.s 			page 148


2052:C:/Users/dtjld/workspace/AIoT/src/LiteOS_Lab/iot_link/network/dtls/mbedtls/mbedtls-2.16.2/library\rsa.c ****         return( mbedtls_rsa_public( ctx, sig, sig ) );
 6249              		.loc 1 2052 0
 6250 0052 7A6B     		ldr	r2, [r7, #52]
 6251 0054 796B     		ldr	r1, [r7, #52]
 6252 0056 F868     		ldr	r0, [r7, #12]
 6253 0058 FFF7FEFF 		bl	mbedtls_rsa_public
 6254 005c 0346     		mov	r3, r0
 6255 005e 50E0     		b	.L463
 6256              	.L465:
2053:C:/Users/dtjld/workspace/AIoT/src/LiteOS_Lab/iot_link/network/dtls/mbedtls/mbedtls-2.16.2/library\rsa.c ****     }
2054:C:/Users/dtjld/workspace/AIoT/src/LiteOS_Lab/iot_link/network/dtls/mbedtls/mbedtls-2.16.2/library\rsa.c **** 
2055:C:/Users/dtjld/workspace/AIoT/src/LiteOS_Lab/iot_link/network/dtls/mbedtls/mbedtls-2.16.2/library\rsa.c ****     /* Private key operation
2056:C:/Users/dtjld/workspace/AIoT/src/LiteOS_Lab/iot_link/network/dtls/mbedtls/mbedtls-2.16.2/library\rsa.c ****      *
2057:C:/Users/dtjld/workspace/AIoT/src/LiteOS_Lab/iot_link/network/dtls/mbedtls/mbedtls-2.16.2/library\rsa.c ****      * In order to prevent Lenstra's attack, make the signature in a
2058:C:/Users/dtjld/workspace/AIoT/src/LiteOS_Lab/iot_link/network/dtls/mbedtls/mbedtls-2.16.2/library\rsa.c ****      * temporary buffer and check it before returning it.
2059:C:/Users/dtjld/workspace/AIoT/src/LiteOS_Lab/iot_link/network/dtls/mbedtls/mbedtls-2.16.2/library\rsa.c ****      */
2060:C:/Users/dtjld/workspace/AIoT/src/LiteOS_Lab/iot_link/network/dtls/mbedtls/mbedtls-2.16.2/library\rsa.c **** 
2061:C:/Users/dtjld/workspace/AIoT/src/LiteOS_Lab/iot_link/network/dtls/mbedtls/mbedtls-2.16.2/library\rsa.c ****     sig_try = mbedtls_calloc( 1, ctx->len );
 6257              		.loc 1 2061 0
 6258 0060 FB68     		ldr	r3, [r7, #12]
 6259 0062 5B68     		ldr	r3, [r3, #4]
 6260 0064 1946     		mov	r1, r3
 6261 0066 0120     		movs	r0, #1
 6262 0068 FFF7FEFF 		bl	mbedtls_calloc
 6263 006c B861     		str	r0, [r7, #24]
2062:C:/Users/dtjld/workspace/AIoT/src/LiteOS_Lab/iot_link/network/dtls/mbedtls/mbedtls-2.16.2/library\rsa.c ****     if( sig_try == NULL )
 6264              		.loc 1 2062 0
 6265 006e BB69     		ldr	r3, [r7, #24]
 6266 0070 002B     		cmp	r3, #0
 6267 0072 02D1     		bne	.L466
2063:C:/Users/dtjld/workspace/AIoT/src/LiteOS_Lab/iot_link/network/dtls/mbedtls/mbedtls-2.16.2/library\rsa.c ****         return( MBEDTLS_ERR_MPI_ALLOC_FAILED );
 6268              		.loc 1 2063 0
 6269 0074 6FF00F03 		mvn	r3, #15
 6270 0078 43E0     		b	.L463
 6271              	.L466:
2064:C:/Users/dtjld/workspace/AIoT/src/LiteOS_Lab/iot_link/network/dtls/mbedtls/mbedtls-2.16.2/library\rsa.c **** 
2065:C:/Users/dtjld/workspace/AIoT/src/LiteOS_Lab/iot_link/network/dtls/mbedtls/mbedtls-2.16.2/library\rsa.c ****     verif = mbedtls_calloc( 1, ctx->len );
 6272              		.loc 1 2065 0
 6273 007a FB68     		ldr	r3, [r7, #12]
 6274 007c 5B68     		ldr	r3, [r3, #4]
 6275 007e 1946     		mov	r1, r3
 6276 0080 0120     		movs	r0, #1
 6277 0082 FFF7FEFF 		bl	mbedtls_calloc
 6278 0086 7861     		str	r0, [r7, #20]
2066:C:/Users/dtjld/workspace/AIoT/src/LiteOS_Lab/iot_link/network/dtls/mbedtls/mbedtls-2.16.2/library\rsa.c ****     if( verif == NULL )
 6279              		.loc 1 2066 0
 6280 0088 7B69     		ldr	r3, [r7, #20]
 6281 008a 002B     		cmp	r3, #0
 6282 008c 05D1     		bne	.L467
2067:C:/Users/dtjld/workspace/AIoT/src/LiteOS_Lab/iot_link/network/dtls/mbedtls/mbedtls-2.16.2/library\rsa.c ****     {
2068:C:/Users/dtjld/workspace/AIoT/src/LiteOS_Lab/iot_link/network/dtls/mbedtls/mbedtls-2.16.2/library\rsa.c ****         mbedtls_free( sig_try );
 6283              		.loc 1 2068 0
 6284 008e B869     		ldr	r0, [r7, #24]
 6285 0090 FFF7FEFF 		bl	mbedtls_free
2069:C:/Users/dtjld/workspace/AIoT/src/LiteOS_Lab/iot_link/network/dtls/mbedtls/mbedtls-2.16.2/library\rsa.c ****         return( MBEDTLS_ERR_MPI_ALLOC_FAILED );
 6286              		.loc 1 2069 0
 6287 0094 6FF00F03 		mvn	r3, #15
ARM GAS  C:\Users\dtjld\AppData\Local\Temp\cck1fUMg.s 			page 149


 6288 0098 33E0     		b	.L463
 6289              	.L467:
2070:C:/Users/dtjld/workspace/AIoT/src/LiteOS_Lab/iot_link/network/dtls/mbedtls/mbedtls-2.16.2/library\rsa.c ****     }
2071:C:/Users/dtjld/workspace/AIoT/src/LiteOS_Lab/iot_link/network/dtls/mbedtls/mbedtls-2.16.2/library\rsa.c **** 
2072:C:/Users/dtjld/workspace/AIoT/src/LiteOS_Lab/iot_link/network/dtls/mbedtls/mbedtls-2.16.2/library\rsa.c ****     MBEDTLS_MPI_CHK( mbedtls_rsa_private( ctx, f_rng, p_rng, sig, sig_try ) );
 6290              		.loc 1 2072 0
 6291 009a BB69     		ldr	r3, [r7, #24]
 6292 009c 0093     		str	r3, [sp]
 6293 009e 7B6B     		ldr	r3, [r7, #52]
 6294 00a0 7A68     		ldr	r2, [r7, #4]
 6295 00a2 B968     		ldr	r1, [r7, #8]
 6296 00a4 F868     		ldr	r0, [r7, #12]
 6297 00a6 FFF7FEFF 		bl	mbedtls_rsa_private
 6298 00aa F861     		str	r0, [r7, #28]
 6299 00ac FB69     		ldr	r3, [r7, #28]
 6300 00ae 002B     		cmp	r3, #0
 6301 00b0 1DD1     		bne	.L472
2073:C:/Users/dtjld/workspace/AIoT/src/LiteOS_Lab/iot_link/network/dtls/mbedtls/mbedtls-2.16.2/library\rsa.c ****     MBEDTLS_MPI_CHK( mbedtls_rsa_public( ctx, sig_try, verif ) );
 6302              		.loc 1 2073 0
 6303 00b2 7A69     		ldr	r2, [r7, #20]
 6304 00b4 B969     		ldr	r1, [r7, #24]
 6305 00b6 F868     		ldr	r0, [r7, #12]
 6306 00b8 FFF7FEFF 		bl	mbedtls_rsa_public
 6307 00bc F861     		str	r0, [r7, #28]
 6308 00be FB69     		ldr	r3, [r7, #28]
 6309 00c0 002B     		cmp	r3, #0
 6310 00c2 16D1     		bne	.L473
2074:C:/Users/dtjld/workspace/AIoT/src/LiteOS_Lab/iot_link/network/dtls/mbedtls/mbedtls-2.16.2/library\rsa.c **** 
2075:C:/Users/dtjld/workspace/AIoT/src/LiteOS_Lab/iot_link/network/dtls/mbedtls/mbedtls-2.16.2/library\rsa.c ****     if( mbedtls_safer_memcmp( verif, sig, ctx->len ) != 0 )
 6311              		.loc 1 2075 0
 6312 00c4 FB68     		ldr	r3, [r7, #12]
 6313 00c6 5B68     		ldr	r3, [r3, #4]
 6314 00c8 1A46     		mov	r2, r3
 6315 00ca 796B     		ldr	r1, [r7, #52]
 6316 00cc 7869     		ldr	r0, [r7, #20]
 6317 00ce FFF7FEFF 		bl	mbedtls_safer_memcmp
 6318 00d2 0346     		mov	r3, r0
 6319 00d4 002B     		cmp	r3, #0
 6320 00d6 02D0     		beq	.L471
2076:C:/Users/dtjld/workspace/AIoT/src/LiteOS_Lab/iot_link/network/dtls/mbedtls/mbedtls-2.16.2/library\rsa.c ****     {
2077:C:/Users/dtjld/workspace/AIoT/src/LiteOS_Lab/iot_link/network/dtls/mbedtls/mbedtls-2.16.2/library\rsa.c ****         ret = MBEDTLS_ERR_RSA_PRIVATE_FAILED;
 6321              		.loc 1 2077 0
 6322 00d8 0D4B     		ldr	r3, .L474+4
 6323 00da FB61     		str	r3, [r7, #28]
2078:C:/Users/dtjld/workspace/AIoT/src/LiteOS_Lab/iot_link/network/dtls/mbedtls/mbedtls-2.16.2/library\rsa.c ****         goto cleanup;
 6324              		.loc 1 2078 0
 6325 00dc 0AE0     		b	.L469
 6326              	.L471:
2079:C:/Users/dtjld/workspace/AIoT/src/LiteOS_Lab/iot_link/network/dtls/mbedtls/mbedtls-2.16.2/library\rsa.c ****     }
2080:C:/Users/dtjld/workspace/AIoT/src/LiteOS_Lab/iot_link/network/dtls/mbedtls/mbedtls-2.16.2/library\rsa.c **** 
2081:C:/Users/dtjld/workspace/AIoT/src/LiteOS_Lab/iot_link/network/dtls/mbedtls/mbedtls-2.16.2/library\rsa.c ****     memcpy( sig, sig_try, ctx->len );
 6327              		.loc 1 2081 0
 6328 00de FB68     		ldr	r3, [r7, #12]
 6329 00e0 5B68     		ldr	r3, [r3, #4]
 6330 00e2 1A46     		mov	r2, r3
 6331 00e4 B969     		ldr	r1, [r7, #24]
 6332 00e6 786B     		ldr	r0, [r7, #52]
ARM GAS  C:\Users\dtjld\AppData\Local\Temp\cck1fUMg.s 			page 150


 6333 00e8 FFF7FEFF 		bl	memcpy
 6334 00ec 02E0     		b	.L469
 6335              	.L472:
2072:C:/Users/dtjld/workspace/AIoT/src/LiteOS_Lab/iot_link/network/dtls/mbedtls/mbedtls-2.16.2/library\rsa.c ****     MBEDTLS_MPI_CHK( mbedtls_rsa_public( ctx, sig_try, verif ) );
 6336              		.loc 1 2072 0
 6337 00ee 00BF     		nop
 6338 00f0 00E0     		b	.L469
 6339              	.L473:
2073:C:/Users/dtjld/workspace/AIoT/src/LiteOS_Lab/iot_link/network/dtls/mbedtls/mbedtls-2.16.2/library\rsa.c **** 
 6340              		.loc 1 2073 0
 6341 00f2 00BF     		nop
 6342              	.L469:
2082:C:/Users/dtjld/workspace/AIoT/src/LiteOS_Lab/iot_link/network/dtls/mbedtls/mbedtls-2.16.2/library\rsa.c **** 
2083:C:/Users/dtjld/workspace/AIoT/src/LiteOS_Lab/iot_link/network/dtls/mbedtls/mbedtls-2.16.2/library\rsa.c **** cleanup:
2084:C:/Users/dtjld/workspace/AIoT/src/LiteOS_Lab/iot_link/network/dtls/mbedtls/mbedtls-2.16.2/library\rsa.c ****     mbedtls_free( sig_try );
 6343              		.loc 1 2084 0
 6344 00f4 B869     		ldr	r0, [r7, #24]
 6345 00f6 FFF7FEFF 		bl	mbedtls_free
2085:C:/Users/dtjld/workspace/AIoT/src/LiteOS_Lab/iot_link/network/dtls/mbedtls/mbedtls-2.16.2/library\rsa.c ****     mbedtls_free( verif );
 6346              		.loc 1 2085 0
 6347 00fa 7869     		ldr	r0, [r7, #20]
 6348 00fc FFF7FEFF 		bl	mbedtls_free
2086:C:/Users/dtjld/workspace/AIoT/src/LiteOS_Lab/iot_link/network/dtls/mbedtls/mbedtls-2.16.2/library\rsa.c **** 
2087:C:/Users/dtjld/workspace/AIoT/src/LiteOS_Lab/iot_link/network/dtls/mbedtls/mbedtls-2.16.2/library\rsa.c ****     return( ret );
 6349              		.loc 1 2087 0
 6350 0100 FB69     		ldr	r3, [r7, #28]
 6351              	.L463:
2088:C:/Users/dtjld/workspace/AIoT/src/LiteOS_Lab/iot_link/network/dtls/mbedtls/mbedtls-2.16.2/library\rsa.c **** }
 6352              		.loc 1 2088 0
 6353 0102 1846     		mov	r0, r3
 6354 0104 2037     		adds	r7, r7, #32
 6355              	.LCFI163:
 6356              		.cfi_def_cfa_offset 8
 6357 0106 BD46     		mov	sp, r7
 6358              	.LCFI164:
 6359              		.cfi_def_cfa_register 13
 6360              		@ sp needed
 6361 0108 80BD     		pop	{r7, pc}
 6362              	.L475:
 6363 010a 00BF     		.align	2
 6364              	.L474:
 6365 010c 80BFFFFF 		.word	-16512
 6366 0110 00BDFFFF 		.word	-17152
 6367              		.cfi_endproc
 6368              	.LFE44:
 6370              		.section	.text.mbedtls_rsa_pkcs1_sign,"ax",%progbits
 6371              		.align	1
 6372              		.global	mbedtls_rsa_pkcs1_sign
 6373              		.syntax unified
 6374              		.thumb
 6375              		.thumb_func
 6376              		.fpu fpv4-sp-d16
 6378              	mbedtls_rsa_pkcs1_sign:
 6379              	.LFB45:
2089:C:/Users/dtjld/workspace/AIoT/src/LiteOS_Lab/iot_link/network/dtls/mbedtls/mbedtls-2.16.2/library\rsa.c **** #endif /* MBEDTLS_PKCS1_V15 */
2090:C:/Users/dtjld/workspace/AIoT/src/LiteOS_Lab/iot_link/network/dtls/mbedtls/mbedtls-2.16.2/library\rsa.c **** 
2091:C:/Users/dtjld/workspace/AIoT/src/LiteOS_Lab/iot_link/network/dtls/mbedtls/mbedtls-2.16.2/library\rsa.c **** /*
ARM GAS  C:\Users\dtjld\AppData\Local\Temp\cck1fUMg.s 			page 151


2092:C:/Users/dtjld/workspace/AIoT/src/LiteOS_Lab/iot_link/network/dtls/mbedtls/mbedtls-2.16.2/library\rsa.c ****  * Do an RSA operation to sign the message digest
2093:C:/Users/dtjld/workspace/AIoT/src/LiteOS_Lab/iot_link/network/dtls/mbedtls/mbedtls-2.16.2/library\rsa.c ****  */
2094:C:/Users/dtjld/workspace/AIoT/src/LiteOS_Lab/iot_link/network/dtls/mbedtls/mbedtls-2.16.2/library\rsa.c **** int mbedtls_rsa_pkcs1_sign( mbedtls_rsa_context *ctx,
2095:C:/Users/dtjld/workspace/AIoT/src/LiteOS_Lab/iot_link/network/dtls/mbedtls/mbedtls-2.16.2/library\rsa.c ****                     int (*f_rng)(void *, unsigned char *, size_t),
2096:C:/Users/dtjld/workspace/AIoT/src/LiteOS_Lab/iot_link/network/dtls/mbedtls/mbedtls-2.16.2/library\rsa.c ****                     void *p_rng,
2097:C:/Users/dtjld/workspace/AIoT/src/LiteOS_Lab/iot_link/network/dtls/mbedtls/mbedtls-2.16.2/library\rsa.c ****                     int mode,
2098:C:/Users/dtjld/workspace/AIoT/src/LiteOS_Lab/iot_link/network/dtls/mbedtls/mbedtls-2.16.2/library\rsa.c ****                     mbedtls_md_type_t md_alg,
2099:C:/Users/dtjld/workspace/AIoT/src/LiteOS_Lab/iot_link/network/dtls/mbedtls/mbedtls-2.16.2/library\rsa.c ****                     unsigned int hashlen,
2100:C:/Users/dtjld/workspace/AIoT/src/LiteOS_Lab/iot_link/network/dtls/mbedtls/mbedtls-2.16.2/library\rsa.c ****                     const unsigned char *hash,
2101:C:/Users/dtjld/workspace/AIoT/src/LiteOS_Lab/iot_link/network/dtls/mbedtls/mbedtls-2.16.2/library\rsa.c ****                     unsigned char *sig )
2102:C:/Users/dtjld/workspace/AIoT/src/LiteOS_Lab/iot_link/network/dtls/mbedtls/mbedtls-2.16.2/library\rsa.c **** {
 6380              		.loc 1 2102 0
 6381              		.cfi_startproc
 6382              		@ args = 16, pretend = 0, frame = 16
 6383              		@ frame_needed = 1, uses_anonymous_args = 0
 6384 0000 80B5     		push	{r7, lr}
 6385              	.LCFI165:
 6386              		.cfi_def_cfa_offset 8
 6387              		.cfi_offset 7, -8
 6388              		.cfi_offset 14, -4
 6389 0002 88B0     		sub	sp, sp, #32
 6390              	.LCFI166:
 6391              		.cfi_def_cfa_offset 40
 6392 0004 04AF     		add	r7, sp, #16
 6393              	.LCFI167:
 6394              		.cfi_def_cfa 7, 24
 6395 0006 F860     		str	r0, [r7, #12]
 6396 0008 B960     		str	r1, [r7, #8]
 6397 000a 7A60     		str	r2, [r7, #4]
 6398 000c 3B60     		str	r3, [r7]
2103:C:/Users/dtjld/workspace/AIoT/src/LiteOS_Lab/iot_link/network/dtls/mbedtls/mbedtls-2.16.2/library\rsa.c ****     RSA_VALIDATE_RET( ctx != NULL );
2104:C:/Users/dtjld/workspace/AIoT/src/LiteOS_Lab/iot_link/network/dtls/mbedtls/mbedtls-2.16.2/library\rsa.c ****     RSA_VALIDATE_RET( mode == MBEDTLS_RSA_PRIVATE ||
2105:C:/Users/dtjld/workspace/AIoT/src/LiteOS_Lab/iot_link/network/dtls/mbedtls/mbedtls-2.16.2/library\rsa.c ****                       mode == MBEDTLS_RSA_PUBLIC );
2106:C:/Users/dtjld/workspace/AIoT/src/LiteOS_Lab/iot_link/network/dtls/mbedtls/mbedtls-2.16.2/library\rsa.c ****     RSA_VALIDATE_RET( ( md_alg  == MBEDTLS_MD_NONE &&
2107:C:/Users/dtjld/workspace/AIoT/src/LiteOS_Lab/iot_link/network/dtls/mbedtls/mbedtls-2.16.2/library\rsa.c ****                         hashlen == 0 ) ||
2108:C:/Users/dtjld/workspace/AIoT/src/LiteOS_Lab/iot_link/network/dtls/mbedtls/mbedtls-2.16.2/library\rsa.c ****                       hash != NULL );
2109:C:/Users/dtjld/workspace/AIoT/src/LiteOS_Lab/iot_link/network/dtls/mbedtls/mbedtls-2.16.2/library\rsa.c ****     RSA_VALIDATE_RET( sig != NULL );
2110:C:/Users/dtjld/workspace/AIoT/src/LiteOS_Lab/iot_link/network/dtls/mbedtls/mbedtls-2.16.2/library\rsa.c **** 
2111:C:/Users/dtjld/workspace/AIoT/src/LiteOS_Lab/iot_link/network/dtls/mbedtls/mbedtls-2.16.2/library\rsa.c ****     switch( ctx->padding )
 6399              		.loc 1 2111 0
 6400 000e FB68     		ldr	r3, [r7, #12]
 6401 0010 D3F8A430 		ldr	r3, [r3, #164]
 6402 0014 002B     		cmp	r3, #0
 6403 0016 02D0     		beq	.L478
 6404 0018 012B     		cmp	r3, #1
 6405 001a 10D0     		beq	.L479
 6406 001c 1FE0     		b	.L481
 6407              	.L478:
2112:C:/Users/dtjld/workspace/AIoT/src/LiteOS_Lab/iot_link/network/dtls/mbedtls/mbedtls-2.16.2/library\rsa.c ****     {
2113:C:/Users/dtjld/workspace/AIoT/src/LiteOS_Lab/iot_link/network/dtls/mbedtls/mbedtls-2.16.2/library\rsa.c **** #if defined(MBEDTLS_PKCS1_V15)
2114:C:/Users/dtjld/workspace/AIoT/src/LiteOS_Lab/iot_link/network/dtls/mbedtls/mbedtls-2.16.2/library\rsa.c ****         case MBEDTLS_RSA_PKCS_V15:
2115:C:/Users/dtjld/workspace/AIoT/src/LiteOS_Lab/iot_link/network/dtls/mbedtls/mbedtls-2.16.2/library\rsa.c ****             return mbedtls_rsa_rsassa_pkcs1_v15_sign( ctx, f_rng, p_rng, mode, md_alg,
 6408              		.loc 1 2115 0
 6409 001e 7B6A     		ldr	r3, [r7, #36]
 6410 0020 0393     		str	r3, [sp, #12]
 6411 0022 3B6A     		ldr	r3, [r7, #32]
 6412 0024 0293     		str	r3, [sp, #8]
ARM GAS  C:\Users\dtjld\AppData\Local\Temp\cck1fUMg.s 			page 152


 6413 0026 FB69     		ldr	r3, [r7, #28]
 6414 0028 0193     		str	r3, [sp, #4]
 6415 002a 3B7E     		ldrb	r3, [r7, #24]	@ zero_extendqisi2
 6416 002c 0093     		str	r3, [sp]
 6417 002e 3B68     		ldr	r3, [r7]
 6418 0030 7A68     		ldr	r2, [r7, #4]
 6419 0032 B968     		ldr	r1, [r7, #8]
 6420 0034 F868     		ldr	r0, [r7, #12]
 6421 0036 FFF7FEFF 		bl	mbedtls_rsa_rsassa_pkcs1_v15_sign
 6422 003a 0346     		mov	r3, r0
 6423 003c 10E0     		b	.L480
 6424              	.L479:
2116:C:/Users/dtjld/workspace/AIoT/src/LiteOS_Lab/iot_link/network/dtls/mbedtls/mbedtls-2.16.2/library\rsa.c ****                                               hashlen, hash, sig );
2117:C:/Users/dtjld/workspace/AIoT/src/LiteOS_Lab/iot_link/network/dtls/mbedtls/mbedtls-2.16.2/library\rsa.c **** #endif
2118:C:/Users/dtjld/workspace/AIoT/src/LiteOS_Lab/iot_link/network/dtls/mbedtls/mbedtls-2.16.2/library\rsa.c **** 
2119:C:/Users/dtjld/workspace/AIoT/src/LiteOS_Lab/iot_link/network/dtls/mbedtls/mbedtls-2.16.2/library\rsa.c **** #if defined(MBEDTLS_PKCS1_V21)
2120:C:/Users/dtjld/workspace/AIoT/src/LiteOS_Lab/iot_link/network/dtls/mbedtls/mbedtls-2.16.2/library\rsa.c ****         case MBEDTLS_RSA_PKCS_V21:
2121:C:/Users/dtjld/workspace/AIoT/src/LiteOS_Lab/iot_link/network/dtls/mbedtls/mbedtls-2.16.2/library\rsa.c ****             return mbedtls_rsa_rsassa_pss_sign( ctx, f_rng, p_rng, mode, md_alg,
 6425              		.loc 1 2121 0
 6426 003e 7B6A     		ldr	r3, [r7, #36]
 6427 0040 0393     		str	r3, [sp, #12]
 6428 0042 3B6A     		ldr	r3, [r7, #32]
 6429 0044 0293     		str	r3, [sp, #8]
 6430 0046 FB69     		ldr	r3, [r7, #28]
 6431 0048 0193     		str	r3, [sp, #4]
 6432 004a 3B7E     		ldrb	r3, [r7, #24]	@ zero_extendqisi2
 6433 004c 0093     		str	r3, [sp]
 6434 004e 3B68     		ldr	r3, [r7]
 6435 0050 7A68     		ldr	r2, [r7, #4]
 6436 0052 B968     		ldr	r1, [r7, #8]
 6437 0054 F868     		ldr	r0, [r7, #12]
 6438 0056 FFF7FEFF 		bl	mbedtls_rsa_rsassa_pss_sign
 6439 005a 0346     		mov	r3, r0
 6440 005c 00E0     		b	.L480
 6441              	.L481:
2122:C:/Users/dtjld/workspace/AIoT/src/LiteOS_Lab/iot_link/network/dtls/mbedtls/mbedtls-2.16.2/library\rsa.c ****                                         hashlen, hash, sig );
2123:C:/Users/dtjld/workspace/AIoT/src/LiteOS_Lab/iot_link/network/dtls/mbedtls/mbedtls-2.16.2/library\rsa.c **** #endif
2124:C:/Users/dtjld/workspace/AIoT/src/LiteOS_Lab/iot_link/network/dtls/mbedtls/mbedtls-2.16.2/library\rsa.c **** 
2125:C:/Users/dtjld/workspace/AIoT/src/LiteOS_Lab/iot_link/network/dtls/mbedtls/mbedtls-2.16.2/library\rsa.c ****         default:
2126:C:/Users/dtjld/workspace/AIoT/src/LiteOS_Lab/iot_link/network/dtls/mbedtls/mbedtls-2.16.2/library\rsa.c ****             return( MBEDTLS_ERR_RSA_INVALID_PADDING );
 6442              		.loc 1 2126 0
 6443 005e 024B     		ldr	r3, .L482
 6444              	.L480:
2127:C:/Users/dtjld/workspace/AIoT/src/LiteOS_Lab/iot_link/network/dtls/mbedtls/mbedtls-2.16.2/library\rsa.c ****     }
2128:C:/Users/dtjld/workspace/AIoT/src/LiteOS_Lab/iot_link/network/dtls/mbedtls/mbedtls-2.16.2/library\rsa.c **** }
 6445              		.loc 1 2128 0
 6446 0060 1846     		mov	r0, r3
 6447 0062 1037     		adds	r7, r7, #16
 6448              	.LCFI168:
 6449              		.cfi_def_cfa_offset 8
 6450 0064 BD46     		mov	sp, r7
 6451              	.LCFI169:
 6452              		.cfi_def_cfa_register 13
 6453              		@ sp needed
 6454 0066 80BD     		pop	{r7, pc}
 6455              	.L483:
 6456              		.align	2
ARM GAS  C:\Users\dtjld\AppData\Local\Temp\cck1fUMg.s 			page 153


 6457              	.L482:
 6458 0068 00BFFFFF 		.word	-16640
 6459              		.cfi_endproc
 6460              	.LFE45:
 6462              		.section	.text.mbedtls_rsa_rsassa_pss_verify_ext,"ax",%progbits
 6463              		.align	1
 6464              		.global	mbedtls_rsa_rsassa_pss_verify_ext
 6465              		.syntax unified
 6466              		.thumb
 6467              		.thumb_func
 6468              		.fpu fpv4-sp-d16
 6470              	mbedtls_rsa_rsassa_pss_verify_ext:
 6471              	.LFB46:
2129:C:/Users/dtjld/workspace/AIoT/src/LiteOS_Lab/iot_link/network/dtls/mbedtls/mbedtls-2.16.2/library\rsa.c **** 
2130:C:/Users/dtjld/workspace/AIoT/src/LiteOS_Lab/iot_link/network/dtls/mbedtls/mbedtls-2.16.2/library\rsa.c **** #if defined(MBEDTLS_PKCS1_V21)
2131:C:/Users/dtjld/workspace/AIoT/src/LiteOS_Lab/iot_link/network/dtls/mbedtls/mbedtls-2.16.2/library\rsa.c **** /*
2132:C:/Users/dtjld/workspace/AIoT/src/LiteOS_Lab/iot_link/network/dtls/mbedtls/mbedtls-2.16.2/library\rsa.c ****  * Implementation of the PKCS#1 v2.1 RSASSA-PSS-VERIFY function
2133:C:/Users/dtjld/workspace/AIoT/src/LiteOS_Lab/iot_link/network/dtls/mbedtls/mbedtls-2.16.2/library\rsa.c ****  */
2134:C:/Users/dtjld/workspace/AIoT/src/LiteOS_Lab/iot_link/network/dtls/mbedtls/mbedtls-2.16.2/library\rsa.c **** int mbedtls_rsa_rsassa_pss_verify_ext( mbedtls_rsa_context *ctx,
2135:C:/Users/dtjld/workspace/AIoT/src/LiteOS_Lab/iot_link/network/dtls/mbedtls/mbedtls-2.16.2/library\rsa.c ****                                int (*f_rng)(void *, unsigned char *, size_t),
2136:C:/Users/dtjld/workspace/AIoT/src/LiteOS_Lab/iot_link/network/dtls/mbedtls/mbedtls-2.16.2/library\rsa.c ****                                void *p_rng,
2137:C:/Users/dtjld/workspace/AIoT/src/LiteOS_Lab/iot_link/network/dtls/mbedtls/mbedtls-2.16.2/library\rsa.c ****                                int mode,
2138:C:/Users/dtjld/workspace/AIoT/src/LiteOS_Lab/iot_link/network/dtls/mbedtls/mbedtls-2.16.2/library\rsa.c ****                                mbedtls_md_type_t md_alg,
2139:C:/Users/dtjld/workspace/AIoT/src/LiteOS_Lab/iot_link/network/dtls/mbedtls/mbedtls-2.16.2/library\rsa.c ****                                unsigned int hashlen,
2140:C:/Users/dtjld/workspace/AIoT/src/LiteOS_Lab/iot_link/network/dtls/mbedtls/mbedtls-2.16.2/library\rsa.c ****                                const unsigned char *hash,
2141:C:/Users/dtjld/workspace/AIoT/src/LiteOS_Lab/iot_link/network/dtls/mbedtls/mbedtls-2.16.2/library\rsa.c ****                                mbedtls_md_type_t mgf1_hash_id,
2142:C:/Users/dtjld/workspace/AIoT/src/LiteOS_Lab/iot_link/network/dtls/mbedtls/mbedtls-2.16.2/library\rsa.c ****                                int expected_salt_len,
2143:C:/Users/dtjld/workspace/AIoT/src/LiteOS_Lab/iot_link/network/dtls/mbedtls/mbedtls-2.16.2/library\rsa.c ****                                const unsigned char *sig )
2144:C:/Users/dtjld/workspace/AIoT/src/LiteOS_Lab/iot_link/network/dtls/mbedtls/mbedtls-2.16.2/library\rsa.c **** {
 6472              		.loc 1 2144 0
 6473              		.cfi_startproc
 6474              		@ args = 24, pretend = 0, frame = 1160
 6475              		@ frame_needed = 1, uses_anonymous_args = 0
 6476 0000 90B5     		push	{r4, r7, lr}
 6477              	.LCFI170:
 6478              		.cfi_def_cfa_offset 12
 6479              		.cfi_offset 4, -12
 6480              		.cfi_offset 7, -8
 6481              		.cfi_offset 14, -4
 6482 0002 ADF2944D 		subw	sp, sp, #1172
 6483              	.LCFI171:
 6484              		.cfi_def_cfa_offset 1184
 6485 0006 02AF     		add	r7, sp, #8
 6486              	.LCFI172:
 6487              		.cfi_def_cfa 7, 1176
 6488 0008 07F10C04 		add	r4, r7, #12
 6489 000c 2060     		str	r0, [r4]
 6490 000e 07F10800 		add	r0, r7, #8
 6491 0012 0160     		str	r1, [r0]
 6492 0014 391D     		adds	r1, r7, #4
 6493 0016 0A60     		str	r2, [r1]
 6494 0018 3A46     		mov	r2, r7
 6495 001a 1360     		str	r3, [r2]
2145:C:/Users/dtjld/workspace/AIoT/src/LiteOS_Lab/iot_link/network/dtls/mbedtls/mbedtls-2.16.2/library\rsa.c ****     int ret;
2146:C:/Users/dtjld/workspace/AIoT/src/LiteOS_Lab/iot_link/network/dtls/mbedtls/mbedtls-2.16.2/library\rsa.c ****     size_t siglen;
2147:C:/Users/dtjld/workspace/AIoT/src/LiteOS_Lab/iot_link/network/dtls/mbedtls/mbedtls-2.16.2/library\rsa.c ****     unsigned char *p;
2148:C:/Users/dtjld/workspace/AIoT/src/LiteOS_Lab/iot_link/network/dtls/mbedtls/mbedtls-2.16.2/library\rsa.c ****     unsigned char *hash_start;
ARM GAS  C:\Users\dtjld\AppData\Local\Temp\cck1fUMg.s 			page 154


2149:C:/Users/dtjld/workspace/AIoT/src/LiteOS_Lab/iot_link/network/dtls/mbedtls/mbedtls-2.16.2/library\rsa.c ****     unsigned char result[MBEDTLS_MD_MAX_SIZE];
2150:C:/Users/dtjld/workspace/AIoT/src/LiteOS_Lab/iot_link/network/dtls/mbedtls/mbedtls-2.16.2/library\rsa.c ****     unsigned char zeros[8];
2151:C:/Users/dtjld/workspace/AIoT/src/LiteOS_Lab/iot_link/network/dtls/mbedtls/mbedtls-2.16.2/library\rsa.c ****     unsigned int hlen;
2152:C:/Users/dtjld/workspace/AIoT/src/LiteOS_Lab/iot_link/network/dtls/mbedtls/mbedtls-2.16.2/library\rsa.c ****     size_t observed_salt_len, msb;
2153:C:/Users/dtjld/workspace/AIoT/src/LiteOS_Lab/iot_link/network/dtls/mbedtls/mbedtls-2.16.2/library\rsa.c ****     const mbedtls_md_info_t *md_info;
2154:C:/Users/dtjld/workspace/AIoT/src/LiteOS_Lab/iot_link/network/dtls/mbedtls/mbedtls-2.16.2/library\rsa.c ****     mbedtls_md_context_t md_ctx;
2155:C:/Users/dtjld/workspace/AIoT/src/LiteOS_Lab/iot_link/network/dtls/mbedtls/mbedtls-2.16.2/library\rsa.c ****     unsigned char buf[MBEDTLS_MPI_MAX_SIZE];
2156:C:/Users/dtjld/workspace/AIoT/src/LiteOS_Lab/iot_link/network/dtls/mbedtls/mbedtls-2.16.2/library\rsa.c **** 
2157:C:/Users/dtjld/workspace/AIoT/src/LiteOS_Lab/iot_link/network/dtls/mbedtls/mbedtls-2.16.2/library\rsa.c ****     RSA_VALIDATE_RET( ctx != NULL );
2158:C:/Users/dtjld/workspace/AIoT/src/LiteOS_Lab/iot_link/network/dtls/mbedtls/mbedtls-2.16.2/library\rsa.c ****     RSA_VALIDATE_RET( mode == MBEDTLS_RSA_PRIVATE ||
2159:C:/Users/dtjld/workspace/AIoT/src/LiteOS_Lab/iot_link/network/dtls/mbedtls/mbedtls-2.16.2/library\rsa.c ****                       mode == MBEDTLS_RSA_PUBLIC );
2160:C:/Users/dtjld/workspace/AIoT/src/LiteOS_Lab/iot_link/network/dtls/mbedtls/mbedtls-2.16.2/library\rsa.c ****     RSA_VALIDATE_RET( sig != NULL );
2161:C:/Users/dtjld/workspace/AIoT/src/LiteOS_Lab/iot_link/network/dtls/mbedtls/mbedtls-2.16.2/library\rsa.c ****     RSA_VALIDATE_RET( ( md_alg  == MBEDTLS_MD_NONE &&
2162:C:/Users/dtjld/workspace/AIoT/src/LiteOS_Lab/iot_link/network/dtls/mbedtls/mbedtls-2.16.2/library\rsa.c ****                         hashlen == 0 ) ||
2163:C:/Users/dtjld/workspace/AIoT/src/LiteOS_Lab/iot_link/network/dtls/mbedtls/mbedtls-2.16.2/library\rsa.c ****                       hash != NULL );
2164:C:/Users/dtjld/workspace/AIoT/src/LiteOS_Lab/iot_link/network/dtls/mbedtls/mbedtls-2.16.2/library\rsa.c **** 
2165:C:/Users/dtjld/workspace/AIoT/src/LiteOS_Lab/iot_link/network/dtls/mbedtls/mbedtls-2.16.2/library\rsa.c ****     if( mode == MBEDTLS_RSA_PRIVATE && ctx->padding != MBEDTLS_RSA_PKCS_V21 )
 6496              		.loc 1 2165 0
 6497 001c 3B46     		mov	r3, r7
 6498 001e 1B68     		ldr	r3, [r3]
 6499 0020 012B     		cmp	r3, #1
 6500 0022 08D1     		bne	.L485
 6501              		.loc 1 2165 0 is_stmt 0 discriminator 1
 6502 0024 07F10C03 		add	r3, r7, #12
 6503 0028 1B68     		ldr	r3, [r3]
 6504 002a D3F8A430 		ldr	r3, [r3, #164]
 6505 002e 012B     		cmp	r3, #1
 6506 0030 01D0     		beq	.L485
2166:C:/Users/dtjld/workspace/AIoT/src/LiteOS_Lab/iot_link/network/dtls/mbedtls/mbedtls-2.16.2/library\rsa.c ****         return( MBEDTLS_ERR_RSA_BAD_INPUT_DATA );
 6507              		.loc 1 2166 0 is_stmt 1
 6508 0032 D24B     		ldr	r3, .L521
 6509 0034 9CE1     		b	.L512
 6510              	.L485:
2167:C:/Users/dtjld/workspace/AIoT/src/LiteOS_Lab/iot_link/network/dtls/mbedtls/mbedtls-2.16.2/library\rsa.c **** 
2168:C:/Users/dtjld/workspace/AIoT/src/LiteOS_Lab/iot_link/network/dtls/mbedtls/mbedtls-2.16.2/library\rsa.c ****     siglen = ctx->len;
 6511              		.loc 1 2168 0
 6512 0036 07F10C03 		add	r3, r7, #12
 6513 003a 1B68     		ldr	r3, [r3]
 6514 003c 5B68     		ldr	r3, [r3, #4]
 6515 003e C7F88034 		str	r3, [r7, #1152]
2169:C:/Users/dtjld/workspace/AIoT/src/LiteOS_Lab/iot_link/network/dtls/mbedtls/mbedtls-2.16.2/library\rsa.c **** 
2170:C:/Users/dtjld/workspace/AIoT/src/LiteOS_Lab/iot_link/network/dtls/mbedtls/mbedtls-2.16.2/library\rsa.c ****     if( siglen < 16 || siglen > sizeof( buf ) )
 6516              		.loc 1 2170 0
 6517 0042 D7F88034 		ldr	r3, [r7, #1152]
 6518 0046 0F2B     		cmp	r3, #15
 6519 0048 04D9     		bls	.L487
 6520              		.loc 1 2170 0 is_stmt 0 discriminator 1
 6521 004a D7F88034 		ldr	r3, [r7, #1152]
 6522 004e B3F5806F 		cmp	r3, #1024
 6523 0052 01D9     		bls	.L488
 6524              	.L487:
2171:C:/Users/dtjld/workspace/AIoT/src/LiteOS_Lab/iot_link/network/dtls/mbedtls/mbedtls-2.16.2/library\rsa.c ****         return( MBEDTLS_ERR_RSA_BAD_INPUT_DATA );
 6525              		.loc 1 2171 0 is_stmt 1
 6526 0054 C94B     		ldr	r3, .L521
 6527 0056 8BE1     		b	.L512
 6528              	.L488:
2172:C:/Users/dtjld/workspace/AIoT/src/LiteOS_Lab/iot_link/network/dtls/mbedtls/mbedtls-2.16.2/library\rsa.c **** 
ARM GAS  C:\Users\dtjld\AppData\Local\Temp\cck1fUMg.s 			page 155


2173:C:/Users/dtjld/workspace/AIoT/src/LiteOS_Lab/iot_link/network/dtls/mbedtls/mbedtls-2.16.2/library\rsa.c ****     ret = ( mode == MBEDTLS_RSA_PUBLIC )
2174:C:/Users/dtjld/workspace/AIoT/src/LiteOS_Lab/iot_link/network/dtls/mbedtls/mbedtls-2.16.2/library\rsa.c ****           ? mbedtls_rsa_public(  ctx, sig, buf )
2175:C:/Users/dtjld/workspace/AIoT/src/LiteOS_Lab/iot_link/network/dtls/mbedtls/mbedtls-2.16.2/library\rsa.c ****           : mbedtls_rsa_private( ctx, f_rng, p_rng, sig, buf );
 6529              		.loc 1 2175 0
 6530 0058 3B46     		mov	r3, r7
 6531 005a 1B68     		ldr	r3, [r3]
 6532 005c 002B     		cmp	r3, #0
 6533 005e 0AD1     		bne	.L489
 6534              		.loc 1 2175 0 is_stmt 0 discriminator 1
 6535 0060 07F11402 		add	r2, r7, #20
 6536 0064 07F10C03 		add	r3, r7, #12
 6537 0068 D7F8AC14 		ldr	r1, [r7, #1196]
 6538 006c 1868     		ldr	r0, [r3]
 6539 006e FFF7FEFF 		bl	mbedtls_rsa_public
 6540 0072 0346     		mov	r3, r0
 6541 0074 0FE0     		b	.L490
 6542              	.L489:
 6543              		.loc 1 2175 0 discriminator 2
 6544 0076 3A1D     		adds	r2, r7, #4
 6545 0078 07F10801 		add	r1, r7, #8
 6546 007c 07F10C00 		add	r0, r7, #12
 6547 0080 07F11403 		add	r3, r7, #20
 6548 0084 0093     		str	r3, [sp]
 6549 0086 D7F8AC34 		ldr	r3, [r7, #1196]
 6550 008a 1268     		ldr	r2, [r2]
 6551 008c 0968     		ldr	r1, [r1]
 6552 008e 0068     		ldr	r0, [r0]
 6553 0090 FFF7FEFF 		bl	mbedtls_rsa_private
 6554 0094 0346     		mov	r3, r0
 6555              	.L490:
2173:C:/Users/dtjld/workspace/AIoT/src/LiteOS_Lab/iot_link/network/dtls/mbedtls/mbedtls-2.16.2/library\rsa.c ****           ? mbedtls_rsa_public(  ctx, sig, buf )
 6556              		.loc 1 2173 0 is_stmt 1
 6557 0096 C7F88434 		str	r3, [r7, #1156]
2176:C:/Users/dtjld/workspace/AIoT/src/LiteOS_Lab/iot_link/network/dtls/mbedtls/mbedtls-2.16.2/library\rsa.c **** 
2177:C:/Users/dtjld/workspace/AIoT/src/LiteOS_Lab/iot_link/network/dtls/mbedtls/mbedtls-2.16.2/library\rsa.c ****     if( ret != 0 )
 6558              		.loc 1 2177 0
 6559 009a D7F88434 		ldr	r3, [r7, #1156]
 6560 009e 002B     		cmp	r3, #0
 6561 00a0 02D0     		beq	.L491
2178:C:/Users/dtjld/workspace/AIoT/src/LiteOS_Lab/iot_link/network/dtls/mbedtls/mbedtls-2.16.2/library\rsa.c ****         return( ret );
 6562              		.loc 1 2178 0
 6563 00a2 D7F88434 		ldr	r3, [r7, #1156]
 6564 00a6 63E1     		b	.L512
 6565              	.L491:
2179:C:/Users/dtjld/workspace/AIoT/src/LiteOS_Lab/iot_link/network/dtls/mbedtls/mbedtls-2.16.2/library\rsa.c **** 
2180:C:/Users/dtjld/workspace/AIoT/src/LiteOS_Lab/iot_link/network/dtls/mbedtls/mbedtls-2.16.2/library\rsa.c ****     p = buf;
 6566              		.loc 1 2180 0
 6567 00a8 07F11403 		add	r3, r7, #20
 6568 00ac C7F87C34 		str	r3, [r7, #1148]
2181:C:/Users/dtjld/workspace/AIoT/src/LiteOS_Lab/iot_link/network/dtls/mbedtls/mbedtls-2.16.2/library\rsa.c **** 
2182:C:/Users/dtjld/workspace/AIoT/src/LiteOS_Lab/iot_link/network/dtls/mbedtls/mbedtls-2.16.2/library\rsa.c ****     if( buf[siglen - 1] != 0xBC )
 6569              		.loc 1 2182 0
 6570 00b0 D7F88034 		ldr	r3, [r7, #1152]
 6571 00b4 013B     		subs	r3, r3, #1
 6572 00b6 07F11402 		add	r2, r7, #20
 6573 00ba D35C     		ldrb	r3, [r2, r3]	@ zero_extendqisi2
 6574 00bc BC2B     		cmp	r3, #188
ARM GAS  C:\Users\dtjld\AppData\Local\Temp\cck1fUMg.s 			page 156


 6575 00be 01D0     		beq	.L492
2183:C:/Users/dtjld/workspace/AIoT/src/LiteOS_Lab/iot_link/network/dtls/mbedtls/mbedtls-2.16.2/library\rsa.c ****         return( MBEDTLS_ERR_RSA_INVALID_PADDING );
 6576              		.loc 1 2183 0
 6577 00c0 AF4B     		ldr	r3, .L521+4
 6578 00c2 55E1     		b	.L512
 6579              	.L492:
2184:C:/Users/dtjld/workspace/AIoT/src/LiteOS_Lab/iot_link/network/dtls/mbedtls/mbedtls-2.16.2/library\rsa.c **** 
2185:C:/Users/dtjld/workspace/AIoT/src/LiteOS_Lab/iot_link/network/dtls/mbedtls/mbedtls-2.16.2/library\rsa.c ****     if( md_alg != MBEDTLS_MD_NONE )
 6580              		.loc 1 2185 0
 6581 00c4 97F89834 		ldrb	r3, [r7, #1176]	@ zero_extendqisi2
 6582 00c8 002B     		cmp	r3, #0
 6583 00ca 13D0     		beq	.L493
2186:C:/Users/dtjld/workspace/AIoT/src/LiteOS_Lab/iot_link/network/dtls/mbedtls/mbedtls-2.16.2/library\rsa.c ****     {
2187:C:/Users/dtjld/workspace/AIoT/src/LiteOS_Lab/iot_link/network/dtls/mbedtls/mbedtls-2.16.2/library\rsa.c ****         /* Gather length of hash to sign */
2188:C:/Users/dtjld/workspace/AIoT/src/LiteOS_Lab/iot_link/network/dtls/mbedtls/mbedtls-2.16.2/library\rsa.c ****         md_info = mbedtls_md_info_from_type( md_alg );
 6584              		.loc 1 2188 0
 6585 00cc 97F89834 		ldrb	r3, [r7, #1176]	@ zero_extendqisi2
 6586 00d0 1846     		mov	r0, r3
 6587 00d2 FFF7FEFF 		bl	mbedtls_md_info_from_type
 6588 00d6 C7F87804 		str	r0, [r7, #1144]
2189:C:/Users/dtjld/workspace/AIoT/src/LiteOS_Lab/iot_link/network/dtls/mbedtls/mbedtls-2.16.2/library\rsa.c ****         if( md_info == NULL )
 6589              		.loc 1 2189 0
 6590 00da D7F87834 		ldr	r3, [r7, #1144]
 6591 00de 002B     		cmp	r3, #0
 6592 00e0 01D1     		bne	.L494
2190:C:/Users/dtjld/workspace/AIoT/src/LiteOS_Lab/iot_link/network/dtls/mbedtls/mbedtls-2.16.2/library\rsa.c ****             return( MBEDTLS_ERR_RSA_BAD_INPUT_DATA );
 6593              		.loc 1 2190 0
 6594 00e2 A64B     		ldr	r3, .L521
 6595 00e4 44E1     		b	.L512
 6596              	.L494:
2191:C:/Users/dtjld/workspace/AIoT/src/LiteOS_Lab/iot_link/network/dtls/mbedtls/mbedtls-2.16.2/library\rsa.c **** 
2192:C:/Users/dtjld/workspace/AIoT/src/LiteOS_Lab/iot_link/network/dtls/mbedtls/mbedtls-2.16.2/library\rsa.c ****         hashlen = mbedtls_md_get_size( md_info );
 6597              		.loc 1 2192 0
 6598 00e6 D7F87804 		ldr	r0, [r7, #1144]
 6599 00ea FFF7FEFF 		bl	mbedtls_md_get_size
 6600 00ee 0346     		mov	r3, r0
 6601 00f0 C7F89C34 		str	r3, [r7, #1180]
 6602              	.L493:
2193:C:/Users/dtjld/workspace/AIoT/src/LiteOS_Lab/iot_link/network/dtls/mbedtls/mbedtls-2.16.2/library\rsa.c ****     }
2194:C:/Users/dtjld/workspace/AIoT/src/LiteOS_Lab/iot_link/network/dtls/mbedtls/mbedtls-2.16.2/library\rsa.c **** 
2195:C:/Users/dtjld/workspace/AIoT/src/LiteOS_Lab/iot_link/network/dtls/mbedtls/mbedtls-2.16.2/library\rsa.c ****     md_info = mbedtls_md_info_from_type( mgf1_hash_id );
 6603              		.loc 1 2195 0
 6604 00f4 97F8A434 		ldrb	r3, [r7, #1188]	@ zero_extendqisi2
 6605 00f8 1846     		mov	r0, r3
 6606 00fa FFF7FEFF 		bl	mbedtls_md_info_from_type
 6607 00fe C7F87804 		str	r0, [r7, #1144]
2196:C:/Users/dtjld/workspace/AIoT/src/LiteOS_Lab/iot_link/network/dtls/mbedtls/mbedtls-2.16.2/library\rsa.c ****     if( md_info == NULL )
 6608              		.loc 1 2196 0
 6609 0102 D7F87834 		ldr	r3, [r7, #1144]
 6610 0106 002B     		cmp	r3, #0
 6611 0108 01D1     		bne	.L495
2197:C:/Users/dtjld/workspace/AIoT/src/LiteOS_Lab/iot_link/network/dtls/mbedtls/mbedtls-2.16.2/library\rsa.c ****         return( MBEDTLS_ERR_RSA_BAD_INPUT_DATA );
 6612              		.loc 1 2197 0
 6613 010a 9C4B     		ldr	r3, .L521
 6614 010c 30E1     		b	.L512
 6615              	.L495:
2198:C:/Users/dtjld/workspace/AIoT/src/LiteOS_Lab/iot_link/network/dtls/mbedtls/mbedtls-2.16.2/library\rsa.c **** 
ARM GAS  C:\Users\dtjld\AppData\Local\Temp\cck1fUMg.s 			page 157


2199:C:/Users/dtjld/workspace/AIoT/src/LiteOS_Lab/iot_link/network/dtls/mbedtls/mbedtls-2.16.2/library\rsa.c ****     hlen = mbedtls_md_get_size( md_info );
 6616              		.loc 1 2199 0
 6617 010e D7F87804 		ldr	r0, [r7, #1144]
 6618 0112 FFF7FEFF 		bl	mbedtls_md_get_size
 6619 0116 0346     		mov	r3, r0
 6620 0118 C7F87434 		str	r3, [r7, #1140]
2200:C:/Users/dtjld/workspace/AIoT/src/LiteOS_Lab/iot_link/network/dtls/mbedtls/mbedtls-2.16.2/library\rsa.c **** 
2201:C:/Users/dtjld/workspace/AIoT/src/LiteOS_Lab/iot_link/network/dtls/mbedtls/mbedtls-2.16.2/library\rsa.c ****     memset( zeros, 0, 8 );
 6621              		.loc 1 2201 0
 6622 011c 07F58463 		add	r3, r7, #1056
 6623 0120 0822     		movs	r2, #8
 6624 0122 0021     		movs	r1, #0
 6625 0124 1846     		mov	r0, r3
 6626 0126 FFF7FEFF 		bl	memset
2202:C:/Users/dtjld/workspace/AIoT/src/LiteOS_Lab/iot_link/network/dtls/mbedtls/mbedtls-2.16.2/library\rsa.c **** 
2203:C:/Users/dtjld/workspace/AIoT/src/LiteOS_Lab/iot_link/network/dtls/mbedtls/mbedtls-2.16.2/library\rsa.c ****     /*
2204:C:/Users/dtjld/workspace/AIoT/src/LiteOS_Lab/iot_link/network/dtls/mbedtls/mbedtls-2.16.2/library\rsa.c ****      * Note: EMSA-PSS verification is over the length of N - 1 bits
2205:C:/Users/dtjld/workspace/AIoT/src/LiteOS_Lab/iot_link/network/dtls/mbedtls/mbedtls-2.16.2/library\rsa.c ****      */
2206:C:/Users/dtjld/workspace/AIoT/src/LiteOS_Lab/iot_link/network/dtls/mbedtls/mbedtls-2.16.2/library\rsa.c ****     msb = mbedtls_mpi_bitlen( &ctx->N ) - 1;
 6627              		.loc 1 2206 0
 6628 012a 07F10C03 		add	r3, r7, #12
 6629 012e 1B68     		ldr	r3, [r3]
 6630 0130 0833     		adds	r3, r3, #8
 6631 0132 1846     		mov	r0, r3
 6632 0134 FFF7FEFF 		bl	mbedtls_mpi_bitlen
 6633 0138 0346     		mov	r3, r0
 6634 013a 013B     		subs	r3, r3, #1
 6635 013c C7F87034 		str	r3, [r7, #1136]
2207:C:/Users/dtjld/workspace/AIoT/src/LiteOS_Lab/iot_link/network/dtls/mbedtls/mbedtls-2.16.2/library\rsa.c **** 
2208:C:/Users/dtjld/workspace/AIoT/src/LiteOS_Lab/iot_link/network/dtls/mbedtls/mbedtls-2.16.2/library\rsa.c ****     if( buf[0] >> ( 8 - siglen * 8 + msb ) )
 6636              		.loc 1 2208 0
 6637 0140 07F11403 		add	r3, r7, #20
 6638 0144 1B78     		ldrb	r3, [r3]	@ zero_extendqisi2
 6639 0146 1946     		mov	r1, r3
 6640 0148 D7F88024 		ldr	r2, [r7, #1152]
 6641 014c 1346     		mov	r3, r2
 6642 014e 5B07     		lsls	r3, r3, #29
 6643 0150 9B1A     		subs	r3, r3, r2
 6644 0152 DB00     		lsls	r3, r3, #3
 6645 0154 1A46     		mov	r2, r3
 6646 0156 D7F87034 		ldr	r3, [r7, #1136]
 6647 015a 1344     		add	r3, r3, r2
 6648 015c 0833     		adds	r3, r3, #8
 6649 015e 41FA03F3 		asr	r3, r1, r3
 6650 0162 002B     		cmp	r3, #0
 6651 0164 01D0     		beq	.L496
2209:C:/Users/dtjld/workspace/AIoT/src/LiteOS_Lab/iot_link/network/dtls/mbedtls/mbedtls-2.16.2/library\rsa.c ****         return( MBEDTLS_ERR_RSA_BAD_INPUT_DATA );
 6652              		.loc 1 2209 0
 6653 0166 854B     		ldr	r3, .L521
 6654 0168 02E1     		b	.L512
 6655              	.L496:
2210:C:/Users/dtjld/workspace/AIoT/src/LiteOS_Lab/iot_link/network/dtls/mbedtls/mbedtls-2.16.2/library\rsa.c **** 
2211:C:/Users/dtjld/workspace/AIoT/src/LiteOS_Lab/iot_link/network/dtls/mbedtls/mbedtls-2.16.2/library\rsa.c ****     /* Compensate for boundary condition when applying mask */
2212:C:/Users/dtjld/workspace/AIoT/src/LiteOS_Lab/iot_link/network/dtls/mbedtls/mbedtls-2.16.2/library\rsa.c ****     if( msb % 8 == 0 )
 6656              		.loc 1 2212 0
 6657 016a D7F87034 		ldr	r3, [r7, #1136]
 6658 016e 03F00703 		and	r3, r3, #7
ARM GAS  C:\Users\dtjld\AppData\Local\Temp\cck1fUMg.s 			page 158


 6659 0172 002B     		cmp	r3, #0
 6660 0174 09D1     		bne	.L497
2213:C:/Users/dtjld/workspace/AIoT/src/LiteOS_Lab/iot_link/network/dtls/mbedtls/mbedtls-2.16.2/library\rsa.c ****     {
2214:C:/Users/dtjld/workspace/AIoT/src/LiteOS_Lab/iot_link/network/dtls/mbedtls/mbedtls-2.16.2/library\rsa.c ****         p++;
 6661              		.loc 1 2214 0
 6662 0176 D7F87C34 		ldr	r3, [r7, #1148]
 6663 017a 0133     		adds	r3, r3, #1
 6664 017c C7F87C34 		str	r3, [r7, #1148]
2215:C:/Users/dtjld/workspace/AIoT/src/LiteOS_Lab/iot_link/network/dtls/mbedtls/mbedtls-2.16.2/library\rsa.c ****         siglen -= 1;
 6665              		.loc 1 2215 0
 6666 0180 D7F88034 		ldr	r3, [r7, #1152]
 6667 0184 013B     		subs	r3, r3, #1
 6668 0186 C7F88034 		str	r3, [r7, #1152]
 6669              	.L497:
2216:C:/Users/dtjld/workspace/AIoT/src/LiteOS_Lab/iot_link/network/dtls/mbedtls/mbedtls-2.16.2/library\rsa.c ****     }
2217:C:/Users/dtjld/workspace/AIoT/src/LiteOS_Lab/iot_link/network/dtls/mbedtls/mbedtls-2.16.2/library\rsa.c **** 
2218:C:/Users/dtjld/workspace/AIoT/src/LiteOS_Lab/iot_link/network/dtls/mbedtls/mbedtls-2.16.2/library\rsa.c ****     if( siglen < hlen + 2 )
 6670              		.loc 1 2218 0
 6671 018a D7F87434 		ldr	r3, [r7, #1140]
 6672 018e 0233     		adds	r3, r3, #2
 6673 0190 D7F88024 		ldr	r2, [r7, #1152]
 6674 0194 9A42     		cmp	r2, r3
 6675 0196 01D2     		bcs	.L498
2219:C:/Users/dtjld/workspace/AIoT/src/LiteOS_Lab/iot_link/network/dtls/mbedtls/mbedtls-2.16.2/library\rsa.c ****         return( MBEDTLS_ERR_RSA_BAD_INPUT_DATA );
 6676              		.loc 1 2219 0
 6677 0198 784B     		ldr	r3, .L521
 6678 019a E9E0     		b	.L512
 6679              	.L498:
2220:C:/Users/dtjld/workspace/AIoT/src/LiteOS_Lab/iot_link/network/dtls/mbedtls/mbedtls-2.16.2/library\rsa.c ****     hash_start = p + siglen - hlen - 1;
 6680              		.loc 1 2220 0
 6681 019c D7F88024 		ldr	r2, [r7, #1152]
 6682 01a0 D7F87434 		ldr	r3, [r7, #1140]
 6683 01a4 D31A     		subs	r3, r2, r3
 6684 01a6 013B     		subs	r3, r3, #1
 6685 01a8 D7F87C24 		ldr	r2, [r7, #1148]
 6686 01ac 1344     		add	r3, r3, r2
 6687 01ae C7F86C34 		str	r3, [r7, #1132]
2221:C:/Users/dtjld/workspace/AIoT/src/LiteOS_Lab/iot_link/network/dtls/mbedtls/mbedtls-2.16.2/library\rsa.c **** 
2222:C:/Users/dtjld/workspace/AIoT/src/LiteOS_Lab/iot_link/network/dtls/mbedtls/mbedtls-2.16.2/library\rsa.c ****     mbedtls_md_init( &md_ctx );
 6688              		.loc 1 2222 0
 6689 01b2 07F21443 		addw	r3, r7, #1044
 6690 01b6 1846     		mov	r0, r3
 6691 01b8 FFF7FEFF 		bl	mbedtls_md_init
2223:C:/Users/dtjld/workspace/AIoT/src/LiteOS_Lab/iot_link/network/dtls/mbedtls/mbedtls-2.16.2/library\rsa.c ****     if( ( ret = mbedtls_md_setup( &md_ctx, md_info, 0 ) ) != 0 )
 6692              		.loc 1 2223 0
 6693 01bc 07F21443 		addw	r3, r7, #1044
 6694 01c0 0022     		movs	r2, #0
 6695 01c2 D7F87814 		ldr	r1, [r7, #1144]
 6696 01c6 1846     		mov	r0, r3
 6697 01c8 FFF7FEFF 		bl	mbedtls_md_setup
 6698 01cc C7F88404 		str	r0, [r7, #1156]
 6699 01d0 D7F88434 		ldr	r3, [r7, #1156]
 6700 01d4 002B     		cmp	r3, #0
 6701 01d6 40F0B580 		bne	.L513
2224:C:/Users/dtjld/workspace/AIoT/src/LiteOS_Lab/iot_link/network/dtls/mbedtls/mbedtls-2.16.2/library\rsa.c ****         goto exit;
2225:C:/Users/dtjld/workspace/AIoT/src/LiteOS_Lab/iot_link/network/dtls/mbedtls/mbedtls-2.16.2/library\rsa.c **** 
2226:C:/Users/dtjld/workspace/AIoT/src/LiteOS_Lab/iot_link/network/dtls/mbedtls/mbedtls-2.16.2/library\rsa.c ****     ret = mgf_mask( p, siglen - hlen - 1, hash_start, hlen, &md_ctx );
ARM GAS  C:\Users\dtjld\AppData\Local\Temp\cck1fUMg.s 			page 159


 6702              		.loc 1 2226 0
 6703 01da D7F88024 		ldr	r2, [r7, #1152]
 6704 01de D7F87434 		ldr	r3, [r7, #1140]
 6705 01e2 D31A     		subs	r3, r2, r3
 6706 01e4 591E     		subs	r1, r3, #1
 6707 01e6 07F21443 		addw	r3, r7, #1044
 6708 01ea 0093     		str	r3, [sp]
 6709 01ec D7F87434 		ldr	r3, [r7, #1140]
 6710 01f0 D7F86C24 		ldr	r2, [r7, #1132]
 6711 01f4 D7F87C04 		ldr	r0, [r7, #1148]
 6712 01f8 FFF7FEFF 		bl	mgf_mask
 6713 01fc C7F88404 		str	r0, [r7, #1156]
2227:C:/Users/dtjld/workspace/AIoT/src/LiteOS_Lab/iot_link/network/dtls/mbedtls/mbedtls-2.16.2/library\rsa.c ****     if( ret != 0 )
 6714              		.loc 1 2227 0
 6715 0200 D7F88434 		ldr	r3, [r7, #1156]
 6716 0204 002B     		cmp	r3, #0
 6717 0206 40F09F80 		bne	.L514
2228:C:/Users/dtjld/workspace/AIoT/src/LiteOS_Lab/iot_link/network/dtls/mbedtls/mbedtls-2.16.2/library\rsa.c ****         goto exit;
2229:C:/Users/dtjld/workspace/AIoT/src/LiteOS_Lab/iot_link/network/dtls/mbedtls/mbedtls-2.16.2/library\rsa.c **** 
2230:C:/Users/dtjld/workspace/AIoT/src/LiteOS_Lab/iot_link/network/dtls/mbedtls/mbedtls-2.16.2/library\rsa.c ****     buf[0] &= 0xFF >> ( siglen * 8 - msb );
 6718              		.loc 1 2230 0
 6719 020a 07F11403 		add	r3, r7, #20
 6720 020e 1B78     		ldrb	r3, [r3]	@ zero_extendqisi2
 6721 0210 5AB2     		sxtb	r2, r3
 6722 0212 D7F88034 		ldr	r3, [r7, #1152]
 6723 0216 D900     		lsls	r1, r3, #3
 6724 0218 D7F87034 		ldr	r3, [r7, #1136]
 6725 021c CB1A     		subs	r3, r1, r3
 6726 021e FF21     		movs	r1, #255
 6727 0220 41FA03F3 		asr	r3, r1, r3
 6728 0224 5BB2     		sxtb	r3, r3
 6729 0226 1340     		ands	r3, r3, r2
 6730 0228 5BB2     		sxtb	r3, r3
 6731 022a DAB2     		uxtb	r2, r3
 6732 022c 07F11403 		add	r3, r7, #20
 6733 0230 1A70     		strb	r2, [r3]
2231:C:/Users/dtjld/workspace/AIoT/src/LiteOS_Lab/iot_link/network/dtls/mbedtls/mbedtls-2.16.2/library\rsa.c **** 
2232:C:/Users/dtjld/workspace/AIoT/src/LiteOS_Lab/iot_link/network/dtls/mbedtls/mbedtls-2.16.2/library\rsa.c ****     while( p < hash_start - 1 && *p == 0 )
 6734              		.loc 1 2232 0
 6735 0232 04E0     		b	.L502
 6736              	.L504:
2233:C:/Users/dtjld/workspace/AIoT/src/LiteOS_Lab/iot_link/network/dtls/mbedtls/mbedtls-2.16.2/library\rsa.c ****         p++;
 6737              		.loc 1 2233 0
 6738 0234 D7F87C34 		ldr	r3, [r7, #1148]
 6739 0238 0133     		adds	r3, r3, #1
 6740 023a C7F87C34 		str	r3, [r7, #1148]
 6741              	.L502:
2232:C:/Users/dtjld/workspace/AIoT/src/LiteOS_Lab/iot_link/network/dtls/mbedtls/mbedtls-2.16.2/library\rsa.c ****         p++;
 6742              		.loc 1 2232 0
 6743 023e D7F86C34 		ldr	r3, [r7, #1132]
 6744 0242 013B     		subs	r3, r3, #1
 6745 0244 D7F87C24 		ldr	r2, [r7, #1148]
 6746 0248 9A42     		cmp	r2, r3
 6747 024a 04D2     		bcs	.L503
2232:C:/Users/dtjld/workspace/AIoT/src/LiteOS_Lab/iot_link/network/dtls/mbedtls/mbedtls-2.16.2/library\rsa.c ****         p++;
 6748              		.loc 1 2232 0 is_stmt 0 discriminator 1
 6749 024c D7F87C34 		ldr	r3, [r7, #1148]
ARM GAS  C:\Users\dtjld\AppData\Local\Temp\cck1fUMg.s 			page 160


 6750 0250 1B78     		ldrb	r3, [r3]	@ zero_extendqisi2
 6751 0252 002B     		cmp	r3, #0
 6752 0254 EED0     		beq	.L504
 6753              	.L503:
2234:C:/Users/dtjld/workspace/AIoT/src/LiteOS_Lab/iot_link/network/dtls/mbedtls/mbedtls-2.16.2/library\rsa.c **** 
2235:C:/Users/dtjld/workspace/AIoT/src/LiteOS_Lab/iot_link/network/dtls/mbedtls/mbedtls-2.16.2/library\rsa.c ****     if( *p++ != 0x01 )
 6754              		.loc 1 2235 0 is_stmt 1
 6755 0256 D7F87C34 		ldr	r3, [r7, #1148]
 6756 025a 5A1C     		adds	r2, r3, #1
 6757 025c C7F87C24 		str	r2, [r7, #1148]
 6758 0260 1B78     		ldrb	r3, [r3]	@ zero_extendqisi2
 6759 0262 012B     		cmp	r3, #1
 6760 0264 03D0     		beq	.L505
2236:C:/Users/dtjld/workspace/AIoT/src/LiteOS_Lab/iot_link/network/dtls/mbedtls/mbedtls-2.16.2/library\rsa.c ****     {
2237:C:/Users/dtjld/workspace/AIoT/src/LiteOS_Lab/iot_link/network/dtls/mbedtls/mbedtls-2.16.2/library\rsa.c ****         ret = MBEDTLS_ERR_RSA_INVALID_PADDING;
 6761              		.loc 1 2237 0
 6762 0266 464B     		ldr	r3, .L521+4
 6763 0268 C7F88434 		str	r3, [r7, #1156]
2238:C:/Users/dtjld/workspace/AIoT/src/LiteOS_Lab/iot_link/network/dtls/mbedtls/mbedtls-2.16.2/library\rsa.c ****         goto exit;
 6764              		.loc 1 2238 0
 6765 026c 79E0     		b	.L500
 6766              	.L505:
2239:C:/Users/dtjld/workspace/AIoT/src/LiteOS_Lab/iot_link/network/dtls/mbedtls/mbedtls-2.16.2/library\rsa.c ****     }
2240:C:/Users/dtjld/workspace/AIoT/src/LiteOS_Lab/iot_link/network/dtls/mbedtls/mbedtls-2.16.2/library\rsa.c **** 
2241:C:/Users/dtjld/workspace/AIoT/src/LiteOS_Lab/iot_link/network/dtls/mbedtls/mbedtls-2.16.2/library\rsa.c ****     observed_salt_len = hash_start - p;
 6767              		.loc 1 2241 0
 6768 026e D7F86C24 		ldr	r2, [r7, #1132]
 6769 0272 D7F87C34 		ldr	r3, [r7, #1148]
 6770 0276 D31A     		subs	r3, r2, r3
 6771 0278 C7F86834 		str	r3, [r7, #1128]
2242:C:/Users/dtjld/workspace/AIoT/src/LiteOS_Lab/iot_link/network/dtls/mbedtls/mbedtls-2.16.2/library\rsa.c **** 
2243:C:/Users/dtjld/workspace/AIoT/src/LiteOS_Lab/iot_link/network/dtls/mbedtls/mbedtls-2.16.2/library\rsa.c ****     if( expected_salt_len != MBEDTLS_RSA_SALT_LEN_ANY &&
 6772              		.loc 1 2243 0
 6773 027c D7F8A834 		ldr	r3, [r7, #1192]
 6774 0280 B3F1FF3F 		cmp	r3, #-1
 6775 0284 09D0     		beq	.L506
2244:C:/Users/dtjld/workspace/AIoT/src/LiteOS_Lab/iot_link/network/dtls/mbedtls/mbedtls-2.16.2/library\rsa.c ****         observed_salt_len != (size_t) expected_salt_len )
 6776              		.loc 1 2244 0 discriminator 1
 6777 0286 D7F8A834 		ldr	r3, [r7, #1192]
2243:C:/Users/dtjld/workspace/AIoT/src/LiteOS_Lab/iot_link/network/dtls/mbedtls/mbedtls-2.16.2/library\rsa.c ****         observed_salt_len != (size_t) expected_salt_len )
 6778              		.loc 1 2243 0 discriminator 1
 6779 028a D7F86824 		ldr	r2, [r7, #1128]
 6780 028e 9A42     		cmp	r2, r3
 6781 0290 03D0     		beq	.L506
2245:C:/Users/dtjld/workspace/AIoT/src/LiteOS_Lab/iot_link/network/dtls/mbedtls/mbedtls-2.16.2/library\rsa.c ****     {
2246:C:/Users/dtjld/workspace/AIoT/src/LiteOS_Lab/iot_link/network/dtls/mbedtls/mbedtls-2.16.2/library\rsa.c ****         ret = MBEDTLS_ERR_RSA_INVALID_PADDING;
 6782              		.loc 1 2246 0
 6783 0292 3B4B     		ldr	r3, .L521+4
 6784 0294 C7F88434 		str	r3, [r7, #1156]
2247:C:/Users/dtjld/workspace/AIoT/src/LiteOS_Lab/iot_link/network/dtls/mbedtls/mbedtls-2.16.2/library\rsa.c ****         goto exit;
 6785              		.loc 1 2247 0
 6786 0298 63E0     		b	.L500
 6787              	.L506:
2248:C:/Users/dtjld/workspace/AIoT/src/LiteOS_Lab/iot_link/network/dtls/mbedtls/mbedtls-2.16.2/library\rsa.c ****     }
2249:C:/Users/dtjld/workspace/AIoT/src/LiteOS_Lab/iot_link/network/dtls/mbedtls/mbedtls-2.16.2/library\rsa.c **** 
2250:C:/Users/dtjld/workspace/AIoT/src/LiteOS_Lab/iot_link/network/dtls/mbedtls/mbedtls-2.16.2/library\rsa.c ****     /*
2251:C:/Users/dtjld/workspace/AIoT/src/LiteOS_Lab/iot_link/network/dtls/mbedtls/mbedtls-2.16.2/library\rsa.c ****      * Generate H = Hash( M' )
ARM GAS  C:\Users\dtjld\AppData\Local\Temp\cck1fUMg.s 			page 161


2252:C:/Users/dtjld/workspace/AIoT/src/LiteOS_Lab/iot_link/network/dtls/mbedtls/mbedtls-2.16.2/library\rsa.c ****      */
2253:C:/Users/dtjld/workspace/AIoT/src/LiteOS_Lab/iot_link/network/dtls/mbedtls/mbedtls-2.16.2/library\rsa.c ****     ret = mbedtls_md_starts( &md_ctx );
 6788              		.loc 1 2253 0
 6789 029a 07F21443 		addw	r3, r7, #1044
 6790 029e 1846     		mov	r0, r3
 6791 02a0 FFF7FEFF 		bl	mbedtls_md_starts
 6792 02a4 C7F88404 		str	r0, [r7, #1156]
2254:C:/Users/dtjld/workspace/AIoT/src/LiteOS_Lab/iot_link/network/dtls/mbedtls/mbedtls-2.16.2/library\rsa.c ****     if ( ret != 0 )
 6793              		.loc 1 2254 0
 6794 02a8 D7F88434 		ldr	r3, [r7, #1156]
 6795 02ac 002B     		cmp	r3, #0
 6796 02ae 4DD1     		bne	.L515
2255:C:/Users/dtjld/workspace/AIoT/src/LiteOS_Lab/iot_link/network/dtls/mbedtls/mbedtls-2.16.2/library\rsa.c ****         goto exit;
2256:C:/Users/dtjld/workspace/AIoT/src/LiteOS_Lab/iot_link/network/dtls/mbedtls/mbedtls-2.16.2/library\rsa.c ****     ret = mbedtls_md_update( &md_ctx, zeros, 8 );
 6797              		.loc 1 2256 0
 6798 02b0 07F58461 		add	r1, r7, #1056
 6799 02b4 07F21443 		addw	r3, r7, #1044
 6800 02b8 0822     		movs	r2, #8
 6801 02ba 1846     		mov	r0, r3
 6802 02bc FFF7FEFF 		bl	mbedtls_md_update
 6803 02c0 C7F88404 		str	r0, [r7, #1156]
2257:C:/Users/dtjld/workspace/AIoT/src/LiteOS_Lab/iot_link/network/dtls/mbedtls/mbedtls-2.16.2/library\rsa.c ****     if ( ret != 0 )
 6804              		.loc 1 2257 0
 6805 02c4 D7F88434 		ldr	r3, [r7, #1156]
 6806 02c8 002B     		cmp	r3, #0
 6807 02ca 41D1     		bne	.L516
2258:C:/Users/dtjld/workspace/AIoT/src/LiteOS_Lab/iot_link/network/dtls/mbedtls/mbedtls-2.16.2/library\rsa.c ****         goto exit;
2259:C:/Users/dtjld/workspace/AIoT/src/LiteOS_Lab/iot_link/network/dtls/mbedtls/mbedtls-2.16.2/library\rsa.c ****     ret = mbedtls_md_update( &md_ctx, hash, hashlen );
 6808              		.loc 1 2259 0
 6809 02cc 07F21443 		addw	r3, r7, #1044
 6810 02d0 D7F89C24 		ldr	r2, [r7, #1180]
 6811 02d4 D7F8A014 		ldr	r1, [r7, #1184]
 6812 02d8 1846     		mov	r0, r3
 6813 02da FFF7FEFF 		bl	mbedtls_md_update
 6814 02de C7F88404 		str	r0, [r7, #1156]
2260:C:/Users/dtjld/workspace/AIoT/src/LiteOS_Lab/iot_link/network/dtls/mbedtls/mbedtls-2.16.2/library\rsa.c ****     if ( ret != 0 )
 6815              		.loc 1 2260 0
 6816 02e2 D7F88434 		ldr	r3, [r7, #1156]
 6817 02e6 002B     		cmp	r3, #0
 6818 02e8 34D1     		bne	.L517
2261:C:/Users/dtjld/workspace/AIoT/src/LiteOS_Lab/iot_link/network/dtls/mbedtls/mbedtls-2.16.2/library\rsa.c ****         goto exit;
2262:C:/Users/dtjld/workspace/AIoT/src/LiteOS_Lab/iot_link/network/dtls/mbedtls/mbedtls-2.16.2/library\rsa.c ****     ret = mbedtls_md_update( &md_ctx, p, observed_salt_len );
 6819              		.loc 1 2262 0
 6820 02ea 07F21443 		addw	r3, r7, #1044
 6821 02ee D7F86824 		ldr	r2, [r7, #1128]
 6822 02f2 D7F87C14 		ldr	r1, [r7, #1148]
 6823 02f6 1846     		mov	r0, r3
 6824 02f8 FFF7FEFF 		bl	mbedtls_md_update
 6825 02fc C7F88404 		str	r0, [r7, #1156]
2263:C:/Users/dtjld/workspace/AIoT/src/LiteOS_Lab/iot_link/network/dtls/mbedtls/mbedtls-2.16.2/library\rsa.c ****     if ( ret != 0 )
 6826              		.loc 1 2263 0
 6827 0300 D7F88434 		ldr	r3, [r7, #1156]
 6828 0304 002B     		cmp	r3, #0
 6829 0306 27D1     		bne	.L518
2264:C:/Users/dtjld/workspace/AIoT/src/LiteOS_Lab/iot_link/network/dtls/mbedtls/mbedtls-2.16.2/library\rsa.c ****         goto exit;
2265:C:/Users/dtjld/workspace/AIoT/src/LiteOS_Lab/iot_link/network/dtls/mbedtls/mbedtls-2.16.2/library\rsa.c ****     ret = mbedtls_md_finish( &md_ctx, result );
 6830              		.loc 1 2265 0
ARM GAS  C:\Users\dtjld\AppData\Local\Temp\cck1fUMg.s 			page 162


 6831 0308 07F58562 		add	r2, r7, #1064
 6832 030c 07F21443 		addw	r3, r7, #1044
 6833 0310 1146     		mov	r1, r2
 6834 0312 1846     		mov	r0, r3
 6835 0314 FFF7FEFF 		bl	mbedtls_md_finish
 6836 0318 C7F88404 		str	r0, [r7, #1156]
2266:C:/Users/dtjld/workspace/AIoT/src/LiteOS_Lab/iot_link/network/dtls/mbedtls/mbedtls-2.16.2/library\rsa.c ****     if ( ret != 0 )
 6837              		.loc 1 2266 0
 6838 031c D7F88434 		ldr	r3, [r7, #1156]
 6839 0320 002B     		cmp	r3, #0
 6840 0322 1BD1     		bne	.L519
2267:C:/Users/dtjld/workspace/AIoT/src/LiteOS_Lab/iot_link/network/dtls/mbedtls/mbedtls-2.16.2/library\rsa.c ****         goto exit;
2268:C:/Users/dtjld/workspace/AIoT/src/LiteOS_Lab/iot_link/network/dtls/mbedtls/mbedtls-2.16.2/library\rsa.c **** 
2269:C:/Users/dtjld/workspace/AIoT/src/LiteOS_Lab/iot_link/network/dtls/mbedtls/mbedtls-2.16.2/library\rsa.c ****     if( memcmp( hash_start, result, hlen ) != 0 )
 6841              		.loc 1 2269 0
 6842 0324 07F58563 		add	r3, r7, #1064
 6843 0328 D7F87424 		ldr	r2, [r7, #1140]
 6844 032c 1946     		mov	r1, r3
 6845 032e D7F86C04 		ldr	r0, [r7, #1132]
 6846 0332 FFF7FEFF 		bl	memcmp
 6847 0336 0346     		mov	r3, r0
 6848 0338 002B     		cmp	r3, #0
 6849 033a 11D0     		beq	.L520
2270:C:/Users/dtjld/workspace/AIoT/src/LiteOS_Lab/iot_link/network/dtls/mbedtls/mbedtls-2.16.2/library\rsa.c ****     {
2271:C:/Users/dtjld/workspace/AIoT/src/LiteOS_Lab/iot_link/network/dtls/mbedtls/mbedtls-2.16.2/library\rsa.c ****         ret = MBEDTLS_ERR_RSA_VERIFY_FAILED;
 6850              		.loc 1 2271 0
 6851 033c 114B     		ldr	r3, .L521+8
 6852 033e C7F88434 		str	r3, [r7, #1156]
2272:C:/Users/dtjld/workspace/AIoT/src/LiteOS_Lab/iot_link/network/dtls/mbedtls/mbedtls-2.16.2/library\rsa.c ****         goto exit;
 6853              		.loc 1 2272 0
 6854 0342 0EE0     		b	.L500
 6855              	.L513:
2224:C:/Users/dtjld/workspace/AIoT/src/LiteOS_Lab/iot_link/network/dtls/mbedtls/mbedtls-2.16.2/library\rsa.c **** 
 6856              		.loc 1 2224 0
 6857 0344 00BF     		nop
 6858 0346 0CE0     		b	.L500
 6859              	.L514:
2228:C:/Users/dtjld/workspace/AIoT/src/LiteOS_Lab/iot_link/network/dtls/mbedtls/mbedtls-2.16.2/library\rsa.c **** 
 6860              		.loc 1 2228 0
 6861 0348 00BF     		nop
 6862 034a 0AE0     		b	.L500
 6863              	.L515:
2255:C:/Users/dtjld/workspace/AIoT/src/LiteOS_Lab/iot_link/network/dtls/mbedtls/mbedtls-2.16.2/library\rsa.c ****     ret = mbedtls_md_update( &md_ctx, zeros, 8 );
 6864              		.loc 1 2255 0
 6865 034c 00BF     		nop
 6866 034e 08E0     		b	.L500
 6867              	.L516:
2258:C:/Users/dtjld/workspace/AIoT/src/LiteOS_Lab/iot_link/network/dtls/mbedtls/mbedtls-2.16.2/library\rsa.c ****     ret = mbedtls_md_update( &md_ctx, hash, hashlen );
 6868              		.loc 1 2258 0
 6869 0350 00BF     		nop
 6870 0352 06E0     		b	.L500
 6871              	.L517:
2261:C:/Users/dtjld/workspace/AIoT/src/LiteOS_Lab/iot_link/network/dtls/mbedtls/mbedtls-2.16.2/library\rsa.c ****     ret = mbedtls_md_update( &md_ctx, p, observed_salt_len );
 6872              		.loc 1 2261 0
 6873 0354 00BF     		nop
 6874 0356 04E0     		b	.L500
 6875              	.L518:
ARM GAS  C:\Users\dtjld\AppData\Local\Temp\cck1fUMg.s 			page 163


2264:C:/Users/dtjld/workspace/AIoT/src/LiteOS_Lab/iot_link/network/dtls/mbedtls/mbedtls-2.16.2/library\rsa.c ****     ret = mbedtls_md_finish( &md_ctx, result );
 6876              		.loc 1 2264 0
 6877 0358 00BF     		nop
 6878 035a 02E0     		b	.L500
 6879              	.L519:
2267:C:/Users/dtjld/workspace/AIoT/src/LiteOS_Lab/iot_link/network/dtls/mbedtls/mbedtls-2.16.2/library\rsa.c **** 
 6880              		.loc 1 2267 0
 6881 035c 00BF     		nop
 6882 035e 00E0     		b	.L500
 6883              	.L520:
2273:C:/Users/dtjld/workspace/AIoT/src/LiteOS_Lab/iot_link/network/dtls/mbedtls/mbedtls-2.16.2/library\rsa.c ****     }
2274:C:/Users/dtjld/workspace/AIoT/src/LiteOS_Lab/iot_link/network/dtls/mbedtls/mbedtls-2.16.2/library\rsa.c **** 
2275:C:/Users/dtjld/workspace/AIoT/src/LiteOS_Lab/iot_link/network/dtls/mbedtls/mbedtls-2.16.2/library\rsa.c **** exit:
 6884              		.loc 1 2275 0
 6885 0360 00BF     		nop
 6886              	.L500:
2276:C:/Users/dtjld/workspace/AIoT/src/LiteOS_Lab/iot_link/network/dtls/mbedtls/mbedtls-2.16.2/library\rsa.c ****     mbedtls_md_free( &md_ctx );
 6887              		.loc 1 2276 0
 6888 0362 07F21443 		addw	r3, r7, #1044
 6889 0366 1846     		mov	r0, r3
 6890 0368 FFF7FEFF 		bl	mbedtls_md_free
2277:C:/Users/dtjld/workspace/AIoT/src/LiteOS_Lab/iot_link/network/dtls/mbedtls/mbedtls-2.16.2/library\rsa.c **** 
2278:C:/Users/dtjld/workspace/AIoT/src/LiteOS_Lab/iot_link/network/dtls/mbedtls/mbedtls-2.16.2/library\rsa.c ****     return( ret );
 6891              		.loc 1 2278 0
 6892 036c D7F88434 		ldr	r3, [r7, #1156]
 6893              	.L512:
2279:C:/Users/dtjld/workspace/AIoT/src/LiteOS_Lab/iot_link/network/dtls/mbedtls/mbedtls-2.16.2/library\rsa.c **** }
 6894              		.loc 1 2279 0 discriminator 1
 6895 0370 1846     		mov	r0, r3
 6896 0372 07F28C47 		addw	r7, r7, #1164
 6897              	.LCFI173:
 6898              		.cfi_def_cfa_offset 12
 6899 0376 BD46     		mov	sp, r7
 6900              	.LCFI174:
 6901              		.cfi_def_cfa_register 13
 6902              		@ sp needed
 6903 0378 90BD     		pop	{r4, r7, pc}
 6904              	.L522:
 6905 037a 00BF     		.align	2
 6906              	.L521:
 6907 037c 80BFFFFF 		.word	-16512
 6908 0380 00BFFFFF 		.word	-16640
 6909 0384 80BCFFFF 		.word	-17280
 6910              		.cfi_endproc
 6911              	.LFE46:
 6913              		.section	.text.mbedtls_rsa_rsassa_pss_verify,"ax",%progbits
 6914              		.align	1
 6915              		.global	mbedtls_rsa_rsassa_pss_verify
 6916              		.syntax unified
 6917              		.thumb
 6918              		.thumb_func
 6919              		.fpu fpv4-sp-d16
 6921              	mbedtls_rsa_rsassa_pss_verify:
 6922              	.LFB47:
2280:C:/Users/dtjld/workspace/AIoT/src/LiteOS_Lab/iot_link/network/dtls/mbedtls/mbedtls-2.16.2/library\rsa.c **** 
2281:C:/Users/dtjld/workspace/AIoT/src/LiteOS_Lab/iot_link/network/dtls/mbedtls/mbedtls-2.16.2/library\rsa.c **** /*
2282:C:/Users/dtjld/workspace/AIoT/src/LiteOS_Lab/iot_link/network/dtls/mbedtls/mbedtls-2.16.2/library\rsa.c ****  * Simplified PKCS#1 v2.1 RSASSA-PSS-VERIFY function
ARM GAS  C:\Users\dtjld\AppData\Local\Temp\cck1fUMg.s 			page 164


2283:C:/Users/dtjld/workspace/AIoT/src/LiteOS_Lab/iot_link/network/dtls/mbedtls/mbedtls-2.16.2/library\rsa.c ****  */
2284:C:/Users/dtjld/workspace/AIoT/src/LiteOS_Lab/iot_link/network/dtls/mbedtls/mbedtls-2.16.2/library\rsa.c **** int mbedtls_rsa_rsassa_pss_verify( mbedtls_rsa_context *ctx,
2285:C:/Users/dtjld/workspace/AIoT/src/LiteOS_Lab/iot_link/network/dtls/mbedtls/mbedtls-2.16.2/library\rsa.c ****                            int (*f_rng)(void *, unsigned char *, size_t),
2286:C:/Users/dtjld/workspace/AIoT/src/LiteOS_Lab/iot_link/network/dtls/mbedtls/mbedtls-2.16.2/library\rsa.c ****                            void *p_rng,
2287:C:/Users/dtjld/workspace/AIoT/src/LiteOS_Lab/iot_link/network/dtls/mbedtls/mbedtls-2.16.2/library\rsa.c ****                            int mode,
2288:C:/Users/dtjld/workspace/AIoT/src/LiteOS_Lab/iot_link/network/dtls/mbedtls/mbedtls-2.16.2/library\rsa.c ****                            mbedtls_md_type_t md_alg,
2289:C:/Users/dtjld/workspace/AIoT/src/LiteOS_Lab/iot_link/network/dtls/mbedtls/mbedtls-2.16.2/library\rsa.c ****                            unsigned int hashlen,
2290:C:/Users/dtjld/workspace/AIoT/src/LiteOS_Lab/iot_link/network/dtls/mbedtls/mbedtls-2.16.2/library\rsa.c ****                            const unsigned char *hash,
2291:C:/Users/dtjld/workspace/AIoT/src/LiteOS_Lab/iot_link/network/dtls/mbedtls/mbedtls-2.16.2/library\rsa.c ****                            const unsigned char *sig )
2292:C:/Users/dtjld/workspace/AIoT/src/LiteOS_Lab/iot_link/network/dtls/mbedtls/mbedtls-2.16.2/library\rsa.c **** {
 6923              		.loc 1 2292 0
 6924              		.cfi_startproc
 6925              		@ args = 16, pretend = 0, frame = 24
 6926              		@ frame_needed = 1, uses_anonymous_args = 0
 6927 0000 80B5     		push	{r7, lr}
 6928              	.LCFI175:
 6929              		.cfi_def_cfa_offset 8
 6930              		.cfi_offset 7, -8
 6931              		.cfi_offset 14, -4
 6932 0002 8CB0     		sub	sp, sp, #48
 6933              	.LCFI176:
 6934              		.cfi_def_cfa_offset 56
 6935 0004 06AF     		add	r7, sp, #24
 6936              	.LCFI177:
 6937              		.cfi_def_cfa 7, 32
 6938 0006 F860     		str	r0, [r7, #12]
 6939 0008 B960     		str	r1, [r7, #8]
 6940 000a 7A60     		str	r2, [r7, #4]
 6941 000c 3B60     		str	r3, [r7]
2293:C:/Users/dtjld/workspace/AIoT/src/LiteOS_Lab/iot_link/network/dtls/mbedtls/mbedtls-2.16.2/library\rsa.c ****     mbedtls_md_type_t mgf1_hash_id;
2294:C:/Users/dtjld/workspace/AIoT/src/LiteOS_Lab/iot_link/network/dtls/mbedtls/mbedtls-2.16.2/library\rsa.c ****     RSA_VALIDATE_RET( ctx != NULL );
2295:C:/Users/dtjld/workspace/AIoT/src/LiteOS_Lab/iot_link/network/dtls/mbedtls/mbedtls-2.16.2/library\rsa.c ****     RSA_VALIDATE_RET( mode == MBEDTLS_RSA_PRIVATE ||
2296:C:/Users/dtjld/workspace/AIoT/src/LiteOS_Lab/iot_link/network/dtls/mbedtls/mbedtls-2.16.2/library\rsa.c ****                       mode == MBEDTLS_RSA_PUBLIC );
2297:C:/Users/dtjld/workspace/AIoT/src/LiteOS_Lab/iot_link/network/dtls/mbedtls/mbedtls-2.16.2/library\rsa.c ****     RSA_VALIDATE_RET( sig != NULL );
2298:C:/Users/dtjld/workspace/AIoT/src/LiteOS_Lab/iot_link/network/dtls/mbedtls/mbedtls-2.16.2/library\rsa.c ****     RSA_VALIDATE_RET( ( md_alg  == MBEDTLS_MD_NONE &&
2299:C:/Users/dtjld/workspace/AIoT/src/LiteOS_Lab/iot_link/network/dtls/mbedtls/mbedtls-2.16.2/library\rsa.c ****                         hashlen == 0 ) ||
2300:C:/Users/dtjld/workspace/AIoT/src/LiteOS_Lab/iot_link/network/dtls/mbedtls/mbedtls-2.16.2/library\rsa.c ****                       hash != NULL );
2301:C:/Users/dtjld/workspace/AIoT/src/LiteOS_Lab/iot_link/network/dtls/mbedtls/mbedtls-2.16.2/library\rsa.c **** 
2302:C:/Users/dtjld/workspace/AIoT/src/LiteOS_Lab/iot_link/network/dtls/mbedtls/mbedtls-2.16.2/library\rsa.c ****     mgf1_hash_id = ( ctx->hash_id != MBEDTLS_MD_NONE )
 6942              		.loc 1 2302 0
 6943 000e FB68     		ldr	r3, [r7, #12]
 6944 0010 D3F8A830 		ldr	r3, [r3, #168]
2303:C:/Users/dtjld/workspace/AIoT/src/LiteOS_Lab/iot_link/network/dtls/mbedtls/mbedtls-2.16.2/library\rsa.c ****                              ? (mbedtls_md_type_t) ctx->hash_id
2304:C:/Users/dtjld/workspace/AIoT/src/LiteOS_Lab/iot_link/network/dtls/mbedtls/mbedtls-2.16.2/library\rsa.c ****                              : md_alg;
 6945              		.loc 1 2304 0
 6946 0014 002B     		cmp	r3, #0
 6947 0016 04D0     		beq	.L524
2303:C:/Users/dtjld/workspace/AIoT/src/LiteOS_Lab/iot_link/network/dtls/mbedtls/mbedtls-2.16.2/library\rsa.c ****                              ? (mbedtls_md_type_t) ctx->hash_id
 6948              		.loc 1 2303 0 discriminator 1
 6949 0018 FB68     		ldr	r3, [r7, #12]
 6950 001a D3F8A830 		ldr	r3, [r3, #168]
 6951              		.loc 1 2304 0 discriminator 1
 6952 001e DBB2     		uxtb	r3, r3
 6953 0020 01E0     		b	.L525
 6954              	.L524:
 6955              		.loc 1 2304 0 is_stmt 0 discriminator 2
 6956 0022 97F82030 		ldrb	r3, [r7, #32]	@ zero_extendqisi2
ARM GAS  C:\Users\dtjld\AppData\Local\Temp\cck1fUMg.s 			page 165


 6957              	.L525:
2302:C:/Users/dtjld/workspace/AIoT/src/LiteOS_Lab/iot_link/network/dtls/mbedtls/mbedtls-2.16.2/library\rsa.c ****                              ? (mbedtls_md_type_t) ctx->hash_id
 6958              		.loc 1 2302 0 is_stmt 1
 6959 0026 FB75     		strb	r3, [r7, #23]
2305:C:/Users/dtjld/workspace/AIoT/src/LiteOS_Lab/iot_link/network/dtls/mbedtls/mbedtls-2.16.2/library\rsa.c **** 
2306:C:/Users/dtjld/workspace/AIoT/src/LiteOS_Lab/iot_link/network/dtls/mbedtls/mbedtls-2.16.2/library\rsa.c ****     return( mbedtls_rsa_rsassa_pss_verify_ext( ctx, f_rng, p_rng, mode,
 6960              		.loc 1 2306 0
 6961 0028 FB6A     		ldr	r3, [r7, #44]
 6962 002a 0593     		str	r3, [sp, #20]
 6963 002c 4FF0FF33 		mov	r3, #-1
 6964 0030 0493     		str	r3, [sp, #16]
 6965 0032 FB7D     		ldrb	r3, [r7, #23]	@ zero_extendqisi2
 6966 0034 0393     		str	r3, [sp, #12]
 6967 0036 BB6A     		ldr	r3, [r7, #40]
 6968 0038 0293     		str	r3, [sp, #8]
 6969 003a 7B6A     		ldr	r3, [r7, #36]
 6970 003c 0193     		str	r3, [sp, #4]
 6971 003e 97F82030 		ldrb	r3, [r7, #32]	@ zero_extendqisi2
 6972 0042 0093     		str	r3, [sp]
 6973 0044 3B68     		ldr	r3, [r7]
 6974 0046 7A68     		ldr	r2, [r7, #4]
 6975 0048 B968     		ldr	r1, [r7, #8]
 6976 004a F868     		ldr	r0, [r7, #12]
 6977 004c FFF7FEFF 		bl	mbedtls_rsa_rsassa_pss_verify_ext
 6978 0050 0346     		mov	r3, r0
2307:C:/Users/dtjld/workspace/AIoT/src/LiteOS_Lab/iot_link/network/dtls/mbedtls/mbedtls-2.16.2/library\rsa.c ****                                        md_alg, hashlen, hash,
2308:C:/Users/dtjld/workspace/AIoT/src/LiteOS_Lab/iot_link/network/dtls/mbedtls/mbedtls-2.16.2/library\rsa.c ****                                        mgf1_hash_id, MBEDTLS_RSA_SALT_LEN_ANY,
2309:C:/Users/dtjld/workspace/AIoT/src/LiteOS_Lab/iot_link/network/dtls/mbedtls/mbedtls-2.16.2/library\rsa.c ****                                        sig ) );
2310:C:/Users/dtjld/workspace/AIoT/src/LiteOS_Lab/iot_link/network/dtls/mbedtls/mbedtls-2.16.2/library\rsa.c **** 
2311:C:/Users/dtjld/workspace/AIoT/src/LiteOS_Lab/iot_link/network/dtls/mbedtls/mbedtls-2.16.2/library\rsa.c **** }
 6979              		.loc 1 2311 0
 6980 0052 1846     		mov	r0, r3
 6981 0054 1837     		adds	r7, r7, #24
 6982              	.LCFI178:
 6983              		.cfi_def_cfa_offset 8
 6984 0056 BD46     		mov	sp, r7
 6985              	.LCFI179:
 6986              		.cfi_def_cfa_register 13
 6987              		@ sp needed
 6988 0058 80BD     		pop	{r7, pc}
 6989              		.cfi_endproc
 6990              	.LFE47:
 6992              		.section	.text.mbedtls_rsa_rsassa_pkcs1_v15_verify,"ax",%progbits
 6993              		.align	1
 6994              		.global	mbedtls_rsa_rsassa_pkcs1_v15_verify
 6995              		.syntax unified
 6996              		.thumb
 6997              		.thumb_func
 6998              		.fpu fpv4-sp-d16
 7000              	mbedtls_rsa_rsassa_pkcs1_v15_verify:
 7001              	.LFB48:
2312:C:/Users/dtjld/workspace/AIoT/src/LiteOS_Lab/iot_link/network/dtls/mbedtls/mbedtls-2.16.2/library\rsa.c **** #endif /* MBEDTLS_PKCS1_V21 */
2313:C:/Users/dtjld/workspace/AIoT/src/LiteOS_Lab/iot_link/network/dtls/mbedtls/mbedtls-2.16.2/library\rsa.c **** 
2314:C:/Users/dtjld/workspace/AIoT/src/LiteOS_Lab/iot_link/network/dtls/mbedtls/mbedtls-2.16.2/library\rsa.c **** #if defined(MBEDTLS_PKCS1_V15)
2315:C:/Users/dtjld/workspace/AIoT/src/LiteOS_Lab/iot_link/network/dtls/mbedtls/mbedtls-2.16.2/library\rsa.c **** /*
2316:C:/Users/dtjld/workspace/AIoT/src/LiteOS_Lab/iot_link/network/dtls/mbedtls/mbedtls-2.16.2/library\rsa.c ****  * Implementation of the PKCS#1 v2.1 RSASSA-PKCS1-v1_5-VERIFY function
2317:C:/Users/dtjld/workspace/AIoT/src/LiteOS_Lab/iot_link/network/dtls/mbedtls/mbedtls-2.16.2/library\rsa.c ****  */
ARM GAS  C:\Users\dtjld\AppData\Local\Temp\cck1fUMg.s 			page 166


2318:C:/Users/dtjld/workspace/AIoT/src/LiteOS_Lab/iot_link/network/dtls/mbedtls/mbedtls-2.16.2/library\rsa.c **** int mbedtls_rsa_rsassa_pkcs1_v15_verify( mbedtls_rsa_context *ctx,
2319:C:/Users/dtjld/workspace/AIoT/src/LiteOS_Lab/iot_link/network/dtls/mbedtls/mbedtls-2.16.2/library\rsa.c ****                                  int (*f_rng)(void *, unsigned char *, size_t),
2320:C:/Users/dtjld/workspace/AIoT/src/LiteOS_Lab/iot_link/network/dtls/mbedtls/mbedtls-2.16.2/library\rsa.c ****                                  void *p_rng,
2321:C:/Users/dtjld/workspace/AIoT/src/LiteOS_Lab/iot_link/network/dtls/mbedtls/mbedtls-2.16.2/library\rsa.c ****                                  int mode,
2322:C:/Users/dtjld/workspace/AIoT/src/LiteOS_Lab/iot_link/network/dtls/mbedtls/mbedtls-2.16.2/library\rsa.c ****                                  mbedtls_md_type_t md_alg,
2323:C:/Users/dtjld/workspace/AIoT/src/LiteOS_Lab/iot_link/network/dtls/mbedtls/mbedtls-2.16.2/library\rsa.c ****                                  unsigned int hashlen,
2324:C:/Users/dtjld/workspace/AIoT/src/LiteOS_Lab/iot_link/network/dtls/mbedtls/mbedtls-2.16.2/library\rsa.c ****                                  const unsigned char *hash,
2325:C:/Users/dtjld/workspace/AIoT/src/LiteOS_Lab/iot_link/network/dtls/mbedtls/mbedtls-2.16.2/library\rsa.c ****                                  const unsigned char *sig )
2326:C:/Users/dtjld/workspace/AIoT/src/LiteOS_Lab/iot_link/network/dtls/mbedtls/mbedtls-2.16.2/library\rsa.c **** {
 7002              		.loc 1 2326 0
 7003              		.cfi_startproc
 7004              		@ args = 16, pretend = 0, frame = 32
 7005              		@ frame_needed = 1, uses_anonymous_args = 0
 7006 0000 80B5     		push	{r7, lr}
 7007              	.LCFI180:
 7008              		.cfi_def_cfa_offset 8
 7009              		.cfi_offset 7, -8
 7010              		.cfi_offset 14, -4
 7011 0002 8AB0     		sub	sp, sp, #40
 7012              	.LCFI181:
 7013              		.cfi_def_cfa_offset 48
 7014 0004 02AF     		add	r7, sp, #8
 7015              	.LCFI182:
 7016              		.cfi_def_cfa 7, 40
 7017 0006 F860     		str	r0, [r7, #12]
 7018 0008 B960     		str	r1, [r7, #8]
 7019 000a 7A60     		str	r2, [r7, #4]
 7020 000c 3B60     		str	r3, [r7]
2327:C:/Users/dtjld/workspace/AIoT/src/LiteOS_Lab/iot_link/network/dtls/mbedtls/mbedtls-2.16.2/library\rsa.c ****     int ret = 0;
 7021              		.loc 1 2327 0
 7022 000e 0023     		movs	r3, #0
 7023 0010 FB61     		str	r3, [r7, #28]
2328:C:/Users/dtjld/workspace/AIoT/src/LiteOS_Lab/iot_link/network/dtls/mbedtls/mbedtls-2.16.2/library\rsa.c ****     size_t sig_len;
2329:C:/Users/dtjld/workspace/AIoT/src/LiteOS_Lab/iot_link/network/dtls/mbedtls/mbedtls-2.16.2/library\rsa.c ****     unsigned char *encoded = NULL, *encoded_expected = NULL;
 7024              		.loc 1 2329 0
 7025 0012 0023     		movs	r3, #0
 7026 0014 7B61     		str	r3, [r7, #20]
 7027 0016 0023     		movs	r3, #0
 7028 0018 BB61     		str	r3, [r7, #24]
2330:C:/Users/dtjld/workspace/AIoT/src/LiteOS_Lab/iot_link/network/dtls/mbedtls/mbedtls-2.16.2/library\rsa.c **** 
2331:C:/Users/dtjld/workspace/AIoT/src/LiteOS_Lab/iot_link/network/dtls/mbedtls/mbedtls-2.16.2/library\rsa.c ****     RSA_VALIDATE_RET( ctx != NULL );
2332:C:/Users/dtjld/workspace/AIoT/src/LiteOS_Lab/iot_link/network/dtls/mbedtls/mbedtls-2.16.2/library\rsa.c ****     RSA_VALIDATE_RET( mode == MBEDTLS_RSA_PRIVATE ||
2333:C:/Users/dtjld/workspace/AIoT/src/LiteOS_Lab/iot_link/network/dtls/mbedtls/mbedtls-2.16.2/library\rsa.c ****                       mode == MBEDTLS_RSA_PUBLIC );
2334:C:/Users/dtjld/workspace/AIoT/src/LiteOS_Lab/iot_link/network/dtls/mbedtls/mbedtls-2.16.2/library\rsa.c ****     RSA_VALIDATE_RET( sig != NULL );
2335:C:/Users/dtjld/workspace/AIoT/src/LiteOS_Lab/iot_link/network/dtls/mbedtls/mbedtls-2.16.2/library\rsa.c ****     RSA_VALIDATE_RET( ( md_alg  == MBEDTLS_MD_NONE &&
2336:C:/Users/dtjld/workspace/AIoT/src/LiteOS_Lab/iot_link/network/dtls/mbedtls/mbedtls-2.16.2/library\rsa.c ****                         hashlen == 0 ) ||
2337:C:/Users/dtjld/workspace/AIoT/src/LiteOS_Lab/iot_link/network/dtls/mbedtls/mbedtls-2.16.2/library\rsa.c ****                       hash != NULL );
2338:C:/Users/dtjld/workspace/AIoT/src/LiteOS_Lab/iot_link/network/dtls/mbedtls/mbedtls-2.16.2/library\rsa.c **** 
2339:C:/Users/dtjld/workspace/AIoT/src/LiteOS_Lab/iot_link/network/dtls/mbedtls/mbedtls-2.16.2/library\rsa.c ****     sig_len = ctx->len;
 7029              		.loc 1 2339 0
 7030 001a FB68     		ldr	r3, [r7, #12]
 7031 001c 5B68     		ldr	r3, [r3, #4]
 7032 001e 3B61     		str	r3, [r7, #16]
2340:C:/Users/dtjld/workspace/AIoT/src/LiteOS_Lab/iot_link/network/dtls/mbedtls/mbedtls-2.16.2/library\rsa.c **** 
2341:C:/Users/dtjld/workspace/AIoT/src/LiteOS_Lab/iot_link/network/dtls/mbedtls/mbedtls-2.16.2/library\rsa.c ****     if( mode == MBEDTLS_RSA_PRIVATE && ctx->padding != MBEDTLS_RSA_PKCS_V15 )
 7033              		.loc 1 2341 0
 7034 0020 3B68     		ldr	r3, [r7]
ARM GAS  C:\Users\dtjld\AppData\Local\Temp\cck1fUMg.s 			page 167


 7035 0022 012B     		cmp	r3, #1
 7036 0024 06D1     		bne	.L528
 7037              		.loc 1 2341 0 is_stmt 0 discriminator 1
 7038 0026 FB68     		ldr	r3, [r7, #12]
 7039 0028 D3F8A430 		ldr	r3, [r3, #164]
 7040 002c 002B     		cmp	r3, #0
 7041 002e 01D0     		beq	.L528
2342:C:/Users/dtjld/workspace/AIoT/src/LiteOS_Lab/iot_link/network/dtls/mbedtls/mbedtls-2.16.2/library\rsa.c ****         return( MBEDTLS_ERR_RSA_BAD_INPUT_DATA );
 7042              		.loc 1 2342 0 is_stmt 1
 7043 0030 314B     		ldr	r3, .L542
 7044 0032 5DE0     		b	.L529
 7045              	.L528:
2343:C:/Users/dtjld/workspace/AIoT/src/LiteOS_Lab/iot_link/network/dtls/mbedtls/mbedtls-2.16.2/library\rsa.c **** 
2344:C:/Users/dtjld/workspace/AIoT/src/LiteOS_Lab/iot_link/network/dtls/mbedtls/mbedtls-2.16.2/library\rsa.c ****     /*
2345:C:/Users/dtjld/workspace/AIoT/src/LiteOS_Lab/iot_link/network/dtls/mbedtls/mbedtls-2.16.2/library\rsa.c ****      * Prepare expected PKCS1 v1.5 encoding of hash.
2346:C:/Users/dtjld/workspace/AIoT/src/LiteOS_Lab/iot_link/network/dtls/mbedtls/mbedtls-2.16.2/library\rsa.c ****      */
2347:C:/Users/dtjld/workspace/AIoT/src/LiteOS_Lab/iot_link/network/dtls/mbedtls/mbedtls-2.16.2/library\rsa.c **** 
2348:C:/Users/dtjld/workspace/AIoT/src/LiteOS_Lab/iot_link/network/dtls/mbedtls/mbedtls-2.16.2/library\rsa.c ****     if( ( encoded          = mbedtls_calloc( 1, sig_len ) ) == NULL ||
 7046              		.loc 1 2348 0
 7047 0034 3969     		ldr	r1, [r7, #16]
 7048 0036 0120     		movs	r0, #1
 7049 0038 FFF7FEFF 		bl	mbedtls_calloc
 7050 003c 7861     		str	r0, [r7, #20]
 7051 003e 7B69     		ldr	r3, [r7, #20]
 7052 0040 002B     		cmp	r3, #0
 7053 0042 07D0     		beq	.L530
 7054              		.loc 1 2348 0 is_stmt 0 discriminator 1
 7055 0044 3969     		ldr	r1, [r7, #16]
 7056 0046 0120     		movs	r0, #1
 7057 0048 FFF7FEFF 		bl	mbedtls_calloc
 7058 004c B861     		str	r0, [r7, #24]
 7059 004e BB69     		ldr	r3, [r7, #24]
 7060 0050 002B     		cmp	r3, #0
 7061 0052 03D1     		bne	.L531
 7062              	.L530:
2349:C:/Users/dtjld/workspace/AIoT/src/LiteOS_Lab/iot_link/network/dtls/mbedtls/mbedtls-2.16.2/library\rsa.c ****         ( encoded_expected = mbedtls_calloc( 1, sig_len ) ) == NULL )
2350:C:/Users/dtjld/workspace/AIoT/src/LiteOS_Lab/iot_link/network/dtls/mbedtls/mbedtls-2.16.2/library\rsa.c ****     {
2351:C:/Users/dtjld/workspace/AIoT/src/LiteOS_Lab/iot_link/network/dtls/mbedtls/mbedtls-2.16.2/library\rsa.c ****         ret = MBEDTLS_ERR_MPI_ALLOC_FAILED;
 7063              		.loc 1 2351 0 is_stmt 1
 7064 0054 6FF00F03 		mvn	r3, #15
 7065 0058 FB61     		str	r3, [r7, #28]
2352:C:/Users/dtjld/workspace/AIoT/src/LiteOS_Lab/iot_link/network/dtls/mbedtls/mbedtls-2.16.2/library\rsa.c ****         goto cleanup;
 7066              		.loc 1 2352 0
 7067 005a 34E0     		b	.L532
 7068              	.L531:
2353:C:/Users/dtjld/workspace/AIoT/src/LiteOS_Lab/iot_link/network/dtls/mbedtls/mbedtls-2.16.2/library\rsa.c ****     }
2354:C:/Users/dtjld/workspace/AIoT/src/LiteOS_Lab/iot_link/network/dtls/mbedtls/mbedtls-2.16.2/library\rsa.c **** 
2355:C:/Users/dtjld/workspace/AIoT/src/LiteOS_Lab/iot_link/network/dtls/mbedtls/mbedtls-2.16.2/library\rsa.c ****     if( ( ret = rsa_rsassa_pkcs1_v15_encode( md_alg, hashlen, hash, sig_len,
 7069              		.loc 1 2355 0
 7070 005c 97F82800 		ldrb	r0, [r7, #40]	@ zero_extendqisi2
 7071 0060 BB69     		ldr	r3, [r7, #24]
 7072 0062 0093     		str	r3, [sp]
 7073 0064 3B69     		ldr	r3, [r7, #16]
 7074 0066 3A6B     		ldr	r2, [r7, #48]
 7075 0068 F96A     		ldr	r1, [r7, #44]
 7076 006a FFF7FEFF 		bl	rsa_rsassa_pkcs1_v15_encode
 7077 006e F861     		str	r0, [r7, #28]
ARM GAS  C:\Users\dtjld\AppData\Local\Temp\cck1fUMg.s 			page 168


 7078 0070 FB69     		ldr	r3, [r7, #28]
 7079 0072 002B     		cmp	r3, #0
 7080 0074 22D1     		bne	.L539
2356:C:/Users/dtjld/workspace/AIoT/src/LiteOS_Lab/iot_link/network/dtls/mbedtls/mbedtls-2.16.2/library\rsa.c ****                                              encoded_expected ) ) != 0 )
2357:C:/Users/dtjld/workspace/AIoT/src/LiteOS_Lab/iot_link/network/dtls/mbedtls/mbedtls-2.16.2/library\rsa.c ****         goto cleanup;
2358:C:/Users/dtjld/workspace/AIoT/src/LiteOS_Lab/iot_link/network/dtls/mbedtls/mbedtls-2.16.2/library\rsa.c **** 
2359:C:/Users/dtjld/workspace/AIoT/src/LiteOS_Lab/iot_link/network/dtls/mbedtls/mbedtls-2.16.2/library\rsa.c ****     /*
2360:C:/Users/dtjld/workspace/AIoT/src/LiteOS_Lab/iot_link/network/dtls/mbedtls/mbedtls-2.16.2/library\rsa.c ****      * Apply RSA primitive to get what should be PKCS1 encoded hash.
2361:C:/Users/dtjld/workspace/AIoT/src/LiteOS_Lab/iot_link/network/dtls/mbedtls/mbedtls-2.16.2/library\rsa.c ****      */
2362:C:/Users/dtjld/workspace/AIoT/src/LiteOS_Lab/iot_link/network/dtls/mbedtls/mbedtls-2.16.2/library\rsa.c **** 
2363:C:/Users/dtjld/workspace/AIoT/src/LiteOS_Lab/iot_link/network/dtls/mbedtls/mbedtls-2.16.2/library\rsa.c ****     ret = ( mode == MBEDTLS_RSA_PUBLIC )
2364:C:/Users/dtjld/workspace/AIoT/src/LiteOS_Lab/iot_link/network/dtls/mbedtls/mbedtls-2.16.2/library\rsa.c ****           ? mbedtls_rsa_public(  ctx, sig, encoded )
2365:C:/Users/dtjld/workspace/AIoT/src/LiteOS_Lab/iot_link/network/dtls/mbedtls/mbedtls-2.16.2/library\rsa.c ****           : mbedtls_rsa_private( ctx, f_rng, p_rng, sig, encoded );
 7081              		.loc 1 2365 0
 7082 0076 3B68     		ldr	r3, [r7]
 7083 0078 002B     		cmp	r3, #0
 7084 007a 06D1     		bne	.L534
 7085              		.loc 1 2365 0 is_stmt 0 discriminator 1
 7086 007c 7A69     		ldr	r2, [r7, #20]
 7087 007e 796B     		ldr	r1, [r7, #52]
 7088 0080 F868     		ldr	r0, [r7, #12]
 7089 0082 FFF7FEFF 		bl	mbedtls_rsa_public
 7090 0086 0346     		mov	r3, r0
 7091 0088 08E0     		b	.L535
 7092              	.L534:
 7093              		.loc 1 2365 0 discriminator 2
 7094 008a 7B69     		ldr	r3, [r7, #20]
 7095 008c 0093     		str	r3, [sp]
 7096 008e 7B6B     		ldr	r3, [r7, #52]
 7097 0090 7A68     		ldr	r2, [r7, #4]
 7098 0092 B968     		ldr	r1, [r7, #8]
 7099 0094 F868     		ldr	r0, [r7, #12]
 7100 0096 FFF7FEFF 		bl	mbedtls_rsa_private
 7101 009a 0346     		mov	r3, r0
 7102              	.L535:
2363:C:/Users/dtjld/workspace/AIoT/src/LiteOS_Lab/iot_link/network/dtls/mbedtls/mbedtls-2.16.2/library\rsa.c ****           ? mbedtls_rsa_public(  ctx, sig, encoded )
 7103              		.loc 1 2363 0 is_stmt 1
 7104 009c FB61     		str	r3, [r7, #28]
2366:C:/Users/dtjld/workspace/AIoT/src/LiteOS_Lab/iot_link/network/dtls/mbedtls/mbedtls-2.16.2/library\rsa.c ****     if( ret != 0 )
 7105              		.loc 1 2366 0
 7106 009e FB69     		ldr	r3, [r7, #28]
 7107 00a0 002B     		cmp	r3, #0
 7108 00a2 0DD1     		bne	.L540
2367:C:/Users/dtjld/workspace/AIoT/src/LiteOS_Lab/iot_link/network/dtls/mbedtls/mbedtls-2.16.2/library\rsa.c ****         goto cleanup;
2368:C:/Users/dtjld/workspace/AIoT/src/LiteOS_Lab/iot_link/network/dtls/mbedtls/mbedtls-2.16.2/library\rsa.c **** 
2369:C:/Users/dtjld/workspace/AIoT/src/LiteOS_Lab/iot_link/network/dtls/mbedtls/mbedtls-2.16.2/library\rsa.c ****     /*
2370:C:/Users/dtjld/workspace/AIoT/src/LiteOS_Lab/iot_link/network/dtls/mbedtls/mbedtls-2.16.2/library\rsa.c ****      * Compare
2371:C:/Users/dtjld/workspace/AIoT/src/LiteOS_Lab/iot_link/network/dtls/mbedtls/mbedtls-2.16.2/library\rsa.c ****      */
2372:C:/Users/dtjld/workspace/AIoT/src/LiteOS_Lab/iot_link/network/dtls/mbedtls/mbedtls-2.16.2/library\rsa.c **** 
2373:C:/Users/dtjld/workspace/AIoT/src/LiteOS_Lab/iot_link/network/dtls/mbedtls/mbedtls-2.16.2/library\rsa.c ****     if( ( ret = mbedtls_safer_memcmp( encoded, encoded_expected,
 7109              		.loc 1 2373 0
 7110 00a4 3A69     		ldr	r2, [r7, #16]
 7111 00a6 B969     		ldr	r1, [r7, #24]
 7112 00a8 7869     		ldr	r0, [r7, #20]
 7113 00aa FFF7FEFF 		bl	mbedtls_safer_memcmp
 7114 00ae F861     		str	r0, [r7, #28]
 7115 00b0 FB69     		ldr	r3, [r7, #28]
ARM GAS  C:\Users\dtjld\AppData\Local\Temp\cck1fUMg.s 			page 169


 7116 00b2 002B     		cmp	r3, #0
 7117 00b4 06D0     		beq	.L541
2374:C:/Users/dtjld/workspace/AIoT/src/LiteOS_Lab/iot_link/network/dtls/mbedtls/mbedtls-2.16.2/library\rsa.c ****                                       sig_len ) ) != 0 )
2375:C:/Users/dtjld/workspace/AIoT/src/LiteOS_Lab/iot_link/network/dtls/mbedtls/mbedtls-2.16.2/library\rsa.c ****     {
2376:C:/Users/dtjld/workspace/AIoT/src/LiteOS_Lab/iot_link/network/dtls/mbedtls/mbedtls-2.16.2/library\rsa.c ****         ret = MBEDTLS_ERR_RSA_VERIFY_FAILED;
 7118              		.loc 1 2376 0
 7119 00b6 114B     		ldr	r3, .L542+4
 7120 00b8 FB61     		str	r3, [r7, #28]
2377:C:/Users/dtjld/workspace/AIoT/src/LiteOS_Lab/iot_link/network/dtls/mbedtls/mbedtls-2.16.2/library\rsa.c ****         goto cleanup;
 7121              		.loc 1 2377 0
 7122 00ba 04E0     		b	.L532
 7123              	.L539:
2357:C:/Users/dtjld/workspace/AIoT/src/LiteOS_Lab/iot_link/network/dtls/mbedtls/mbedtls-2.16.2/library\rsa.c **** 
 7124              		.loc 1 2357 0
 7125 00bc 00BF     		nop
 7126 00be 02E0     		b	.L532
 7127              	.L540:
2367:C:/Users/dtjld/workspace/AIoT/src/LiteOS_Lab/iot_link/network/dtls/mbedtls/mbedtls-2.16.2/library\rsa.c **** 
 7128              		.loc 1 2367 0
 7129 00c0 00BF     		nop
 7130 00c2 00E0     		b	.L532
 7131              	.L541:
2378:C:/Users/dtjld/workspace/AIoT/src/LiteOS_Lab/iot_link/network/dtls/mbedtls/mbedtls-2.16.2/library\rsa.c ****     }
2379:C:/Users/dtjld/workspace/AIoT/src/LiteOS_Lab/iot_link/network/dtls/mbedtls/mbedtls-2.16.2/library\rsa.c **** 
2380:C:/Users/dtjld/workspace/AIoT/src/LiteOS_Lab/iot_link/network/dtls/mbedtls/mbedtls-2.16.2/library\rsa.c **** cleanup:
 7132              		.loc 1 2380 0
 7133 00c4 00BF     		nop
 7134              	.L532:
2381:C:/Users/dtjld/workspace/AIoT/src/LiteOS_Lab/iot_link/network/dtls/mbedtls/mbedtls-2.16.2/library\rsa.c **** 
2382:C:/Users/dtjld/workspace/AIoT/src/LiteOS_Lab/iot_link/network/dtls/mbedtls/mbedtls-2.16.2/library\rsa.c ****     if( encoded != NULL )
 7135              		.loc 1 2382 0
 7136 00c6 7B69     		ldr	r3, [r7, #20]
 7137 00c8 002B     		cmp	r3, #0
 7138 00ca 06D0     		beq	.L537
2383:C:/Users/dtjld/workspace/AIoT/src/LiteOS_Lab/iot_link/network/dtls/mbedtls/mbedtls-2.16.2/library\rsa.c ****     {
2384:C:/Users/dtjld/workspace/AIoT/src/LiteOS_Lab/iot_link/network/dtls/mbedtls/mbedtls-2.16.2/library\rsa.c ****         mbedtls_platform_zeroize( encoded, sig_len );
 7139              		.loc 1 2384 0
 7140 00cc 3969     		ldr	r1, [r7, #16]
 7141 00ce 7869     		ldr	r0, [r7, #20]
 7142 00d0 FFF7FEFF 		bl	mbedtls_platform_zeroize
2385:C:/Users/dtjld/workspace/AIoT/src/LiteOS_Lab/iot_link/network/dtls/mbedtls/mbedtls-2.16.2/library\rsa.c ****         mbedtls_free( encoded );
 7143              		.loc 1 2385 0
 7144 00d4 7869     		ldr	r0, [r7, #20]
 7145 00d6 FFF7FEFF 		bl	mbedtls_free
 7146              	.L537:
2386:C:/Users/dtjld/workspace/AIoT/src/LiteOS_Lab/iot_link/network/dtls/mbedtls/mbedtls-2.16.2/library\rsa.c ****     }
2387:C:/Users/dtjld/workspace/AIoT/src/LiteOS_Lab/iot_link/network/dtls/mbedtls/mbedtls-2.16.2/library\rsa.c **** 
2388:C:/Users/dtjld/workspace/AIoT/src/LiteOS_Lab/iot_link/network/dtls/mbedtls/mbedtls-2.16.2/library\rsa.c ****     if( encoded_expected != NULL )
 7147              		.loc 1 2388 0
 7148 00da BB69     		ldr	r3, [r7, #24]
 7149 00dc 002B     		cmp	r3, #0
 7150 00de 06D0     		beq	.L538
2389:C:/Users/dtjld/workspace/AIoT/src/LiteOS_Lab/iot_link/network/dtls/mbedtls/mbedtls-2.16.2/library\rsa.c ****     {
2390:C:/Users/dtjld/workspace/AIoT/src/LiteOS_Lab/iot_link/network/dtls/mbedtls/mbedtls-2.16.2/library\rsa.c ****         mbedtls_platform_zeroize( encoded_expected, sig_len );
 7151              		.loc 1 2390 0
 7152 00e0 3969     		ldr	r1, [r7, #16]
 7153 00e2 B869     		ldr	r0, [r7, #24]
ARM GAS  C:\Users\dtjld\AppData\Local\Temp\cck1fUMg.s 			page 170


 7154 00e4 FFF7FEFF 		bl	mbedtls_platform_zeroize
2391:C:/Users/dtjld/workspace/AIoT/src/LiteOS_Lab/iot_link/network/dtls/mbedtls/mbedtls-2.16.2/library\rsa.c ****         mbedtls_free( encoded_expected );
 7155              		.loc 1 2391 0
 7156 00e8 B869     		ldr	r0, [r7, #24]
 7157 00ea FFF7FEFF 		bl	mbedtls_free
 7158              	.L538:
2392:C:/Users/dtjld/workspace/AIoT/src/LiteOS_Lab/iot_link/network/dtls/mbedtls/mbedtls-2.16.2/library\rsa.c ****     }
2393:C:/Users/dtjld/workspace/AIoT/src/LiteOS_Lab/iot_link/network/dtls/mbedtls/mbedtls-2.16.2/library\rsa.c **** 
2394:C:/Users/dtjld/workspace/AIoT/src/LiteOS_Lab/iot_link/network/dtls/mbedtls/mbedtls-2.16.2/library\rsa.c ****     return( ret );
 7159              		.loc 1 2394 0
 7160 00ee FB69     		ldr	r3, [r7, #28]
 7161              	.L529:
2395:C:/Users/dtjld/workspace/AIoT/src/LiteOS_Lab/iot_link/network/dtls/mbedtls/mbedtls-2.16.2/library\rsa.c **** }
 7162              		.loc 1 2395 0
 7163 00f0 1846     		mov	r0, r3
 7164 00f2 2037     		adds	r7, r7, #32
 7165              	.LCFI183:
 7166              		.cfi_def_cfa_offset 8
 7167 00f4 BD46     		mov	sp, r7
 7168              	.LCFI184:
 7169              		.cfi_def_cfa_register 13
 7170              		@ sp needed
 7171 00f6 80BD     		pop	{r7, pc}
 7172              	.L543:
 7173              		.align	2
 7174              	.L542:
 7175 00f8 80BFFFFF 		.word	-16512
 7176 00fc 80BCFFFF 		.word	-17280
 7177              		.cfi_endproc
 7178              	.LFE48:
 7180              		.section	.text.mbedtls_rsa_pkcs1_verify,"ax",%progbits
 7181              		.align	1
 7182              		.global	mbedtls_rsa_pkcs1_verify
 7183              		.syntax unified
 7184              		.thumb
 7185              		.thumb_func
 7186              		.fpu fpv4-sp-d16
 7188              	mbedtls_rsa_pkcs1_verify:
 7189              	.LFB49:
2396:C:/Users/dtjld/workspace/AIoT/src/LiteOS_Lab/iot_link/network/dtls/mbedtls/mbedtls-2.16.2/library\rsa.c **** #endif /* MBEDTLS_PKCS1_V15 */
2397:C:/Users/dtjld/workspace/AIoT/src/LiteOS_Lab/iot_link/network/dtls/mbedtls/mbedtls-2.16.2/library\rsa.c **** 
2398:C:/Users/dtjld/workspace/AIoT/src/LiteOS_Lab/iot_link/network/dtls/mbedtls/mbedtls-2.16.2/library\rsa.c **** /*
2399:C:/Users/dtjld/workspace/AIoT/src/LiteOS_Lab/iot_link/network/dtls/mbedtls/mbedtls-2.16.2/library\rsa.c ****  * Do an RSA operation and check the message digest
2400:C:/Users/dtjld/workspace/AIoT/src/LiteOS_Lab/iot_link/network/dtls/mbedtls/mbedtls-2.16.2/library\rsa.c ****  */
2401:C:/Users/dtjld/workspace/AIoT/src/LiteOS_Lab/iot_link/network/dtls/mbedtls/mbedtls-2.16.2/library\rsa.c **** int mbedtls_rsa_pkcs1_verify( mbedtls_rsa_context *ctx,
2402:C:/Users/dtjld/workspace/AIoT/src/LiteOS_Lab/iot_link/network/dtls/mbedtls/mbedtls-2.16.2/library\rsa.c ****                       int (*f_rng)(void *, unsigned char *, size_t),
2403:C:/Users/dtjld/workspace/AIoT/src/LiteOS_Lab/iot_link/network/dtls/mbedtls/mbedtls-2.16.2/library\rsa.c ****                       void *p_rng,
2404:C:/Users/dtjld/workspace/AIoT/src/LiteOS_Lab/iot_link/network/dtls/mbedtls/mbedtls-2.16.2/library\rsa.c ****                       int mode,
2405:C:/Users/dtjld/workspace/AIoT/src/LiteOS_Lab/iot_link/network/dtls/mbedtls/mbedtls-2.16.2/library\rsa.c ****                       mbedtls_md_type_t md_alg,
2406:C:/Users/dtjld/workspace/AIoT/src/LiteOS_Lab/iot_link/network/dtls/mbedtls/mbedtls-2.16.2/library\rsa.c ****                       unsigned int hashlen,
2407:C:/Users/dtjld/workspace/AIoT/src/LiteOS_Lab/iot_link/network/dtls/mbedtls/mbedtls-2.16.2/library\rsa.c ****                       const unsigned char *hash,
2408:C:/Users/dtjld/workspace/AIoT/src/LiteOS_Lab/iot_link/network/dtls/mbedtls/mbedtls-2.16.2/library\rsa.c ****                       const unsigned char *sig )
2409:C:/Users/dtjld/workspace/AIoT/src/LiteOS_Lab/iot_link/network/dtls/mbedtls/mbedtls-2.16.2/library\rsa.c **** {
 7190              		.loc 1 2409 0
 7191              		.cfi_startproc
 7192              		@ args = 16, pretend = 0, frame = 16
 7193              		@ frame_needed = 1, uses_anonymous_args = 0
ARM GAS  C:\Users\dtjld\AppData\Local\Temp\cck1fUMg.s 			page 171


 7194 0000 80B5     		push	{r7, lr}
 7195              	.LCFI185:
 7196              		.cfi_def_cfa_offset 8
 7197              		.cfi_offset 7, -8
 7198              		.cfi_offset 14, -4
 7199 0002 88B0     		sub	sp, sp, #32
 7200              	.LCFI186:
 7201              		.cfi_def_cfa_offset 40
 7202 0004 04AF     		add	r7, sp, #16
 7203              	.LCFI187:
 7204              		.cfi_def_cfa 7, 24
 7205 0006 F860     		str	r0, [r7, #12]
 7206 0008 B960     		str	r1, [r7, #8]
 7207 000a 7A60     		str	r2, [r7, #4]
 7208 000c 3B60     		str	r3, [r7]
2410:C:/Users/dtjld/workspace/AIoT/src/LiteOS_Lab/iot_link/network/dtls/mbedtls/mbedtls-2.16.2/library\rsa.c ****     RSA_VALIDATE_RET( ctx != NULL );
2411:C:/Users/dtjld/workspace/AIoT/src/LiteOS_Lab/iot_link/network/dtls/mbedtls/mbedtls-2.16.2/library\rsa.c ****     RSA_VALIDATE_RET( mode == MBEDTLS_RSA_PRIVATE ||
2412:C:/Users/dtjld/workspace/AIoT/src/LiteOS_Lab/iot_link/network/dtls/mbedtls/mbedtls-2.16.2/library\rsa.c ****                       mode == MBEDTLS_RSA_PUBLIC );
2413:C:/Users/dtjld/workspace/AIoT/src/LiteOS_Lab/iot_link/network/dtls/mbedtls/mbedtls-2.16.2/library\rsa.c ****     RSA_VALIDATE_RET( sig != NULL );
2414:C:/Users/dtjld/workspace/AIoT/src/LiteOS_Lab/iot_link/network/dtls/mbedtls/mbedtls-2.16.2/library\rsa.c ****     RSA_VALIDATE_RET( ( md_alg  == MBEDTLS_MD_NONE &&
2415:C:/Users/dtjld/workspace/AIoT/src/LiteOS_Lab/iot_link/network/dtls/mbedtls/mbedtls-2.16.2/library\rsa.c ****                         hashlen == 0 ) ||
2416:C:/Users/dtjld/workspace/AIoT/src/LiteOS_Lab/iot_link/network/dtls/mbedtls/mbedtls-2.16.2/library\rsa.c ****                       hash != NULL );
2417:C:/Users/dtjld/workspace/AIoT/src/LiteOS_Lab/iot_link/network/dtls/mbedtls/mbedtls-2.16.2/library\rsa.c **** 
2418:C:/Users/dtjld/workspace/AIoT/src/LiteOS_Lab/iot_link/network/dtls/mbedtls/mbedtls-2.16.2/library\rsa.c ****     switch( ctx->padding )
 7209              		.loc 1 2418 0
 7210 000e FB68     		ldr	r3, [r7, #12]
 7211 0010 D3F8A430 		ldr	r3, [r3, #164]
 7212 0014 002B     		cmp	r3, #0
 7213 0016 02D0     		beq	.L546
 7214 0018 012B     		cmp	r3, #1
 7215 001a 10D0     		beq	.L547
 7216 001c 1FE0     		b	.L549
 7217              	.L546:
2419:C:/Users/dtjld/workspace/AIoT/src/LiteOS_Lab/iot_link/network/dtls/mbedtls/mbedtls-2.16.2/library\rsa.c ****     {
2420:C:/Users/dtjld/workspace/AIoT/src/LiteOS_Lab/iot_link/network/dtls/mbedtls/mbedtls-2.16.2/library\rsa.c **** #if defined(MBEDTLS_PKCS1_V15)
2421:C:/Users/dtjld/workspace/AIoT/src/LiteOS_Lab/iot_link/network/dtls/mbedtls/mbedtls-2.16.2/library\rsa.c ****         case MBEDTLS_RSA_PKCS_V15:
2422:C:/Users/dtjld/workspace/AIoT/src/LiteOS_Lab/iot_link/network/dtls/mbedtls/mbedtls-2.16.2/library\rsa.c ****             return mbedtls_rsa_rsassa_pkcs1_v15_verify( ctx, f_rng, p_rng, mode, md_alg,
 7218              		.loc 1 2422 0
 7219 001e 7B6A     		ldr	r3, [r7, #36]
 7220 0020 0393     		str	r3, [sp, #12]
 7221 0022 3B6A     		ldr	r3, [r7, #32]
 7222 0024 0293     		str	r3, [sp, #8]
 7223 0026 FB69     		ldr	r3, [r7, #28]
 7224 0028 0193     		str	r3, [sp, #4]
 7225 002a 3B7E     		ldrb	r3, [r7, #24]	@ zero_extendqisi2
 7226 002c 0093     		str	r3, [sp]
 7227 002e 3B68     		ldr	r3, [r7]
 7228 0030 7A68     		ldr	r2, [r7, #4]
 7229 0032 B968     		ldr	r1, [r7, #8]
 7230 0034 F868     		ldr	r0, [r7, #12]
 7231 0036 FFF7FEFF 		bl	mbedtls_rsa_rsassa_pkcs1_v15_verify
 7232 003a 0346     		mov	r3, r0
 7233 003c 10E0     		b	.L548
 7234              	.L547:
2423:C:/Users/dtjld/workspace/AIoT/src/LiteOS_Lab/iot_link/network/dtls/mbedtls/mbedtls-2.16.2/library\rsa.c ****                                                 hashlen, hash, sig );
2424:C:/Users/dtjld/workspace/AIoT/src/LiteOS_Lab/iot_link/network/dtls/mbedtls/mbedtls-2.16.2/library\rsa.c **** #endif
2425:C:/Users/dtjld/workspace/AIoT/src/LiteOS_Lab/iot_link/network/dtls/mbedtls/mbedtls-2.16.2/library\rsa.c **** 
ARM GAS  C:\Users\dtjld\AppData\Local\Temp\cck1fUMg.s 			page 172


2426:C:/Users/dtjld/workspace/AIoT/src/LiteOS_Lab/iot_link/network/dtls/mbedtls/mbedtls-2.16.2/library\rsa.c **** #if defined(MBEDTLS_PKCS1_V21)
2427:C:/Users/dtjld/workspace/AIoT/src/LiteOS_Lab/iot_link/network/dtls/mbedtls/mbedtls-2.16.2/library\rsa.c ****         case MBEDTLS_RSA_PKCS_V21:
2428:C:/Users/dtjld/workspace/AIoT/src/LiteOS_Lab/iot_link/network/dtls/mbedtls/mbedtls-2.16.2/library\rsa.c ****             return mbedtls_rsa_rsassa_pss_verify( ctx, f_rng, p_rng, mode, md_alg,
 7235              		.loc 1 2428 0
 7236 003e 7B6A     		ldr	r3, [r7, #36]
 7237 0040 0393     		str	r3, [sp, #12]
 7238 0042 3B6A     		ldr	r3, [r7, #32]
 7239 0044 0293     		str	r3, [sp, #8]
 7240 0046 FB69     		ldr	r3, [r7, #28]
 7241 0048 0193     		str	r3, [sp, #4]
 7242 004a 3B7E     		ldrb	r3, [r7, #24]	@ zero_extendqisi2
 7243 004c 0093     		str	r3, [sp]
 7244 004e 3B68     		ldr	r3, [r7]
 7245 0050 7A68     		ldr	r2, [r7, #4]
 7246 0052 B968     		ldr	r1, [r7, #8]
 7247 0054 F868     		ldr	r0, [r7, #12]
 7248 0056 FFF7FEFF 		bl	mbedtls_rsa_rsassa_pss_verify
 7249 005a 0346     		mov	r3, r0
 7250 005c 00E0     		b	.L548
 7251              	.L549:
2429:C:/Users/dtjld/workspace/AIoT/src/LiteOS_Lab/iot_link/network/dtls/mbedtls/mbedtls-2.16.2/library\rsa.c ****                                           hashlen, hash, sig );
2430:C:/Users/dtjld/workspace/AIoT/src/LiteOS_Lab/iot_link/network/dtls/mbedtls/mbedtls-2.16.2/library\rsa.c **** #endif
2431:C:/Users/dtjld/workspace/AIoT/src/LiteOS_Lab/iot_link/network/dtls/mbedtls/mbedtls-2.16.2/library\rsa.c **** 
2432:C:/Users/dtjld/workspace/AIoT/src/LiteOS_Lab/iot_link/network/dtls/mbedtls/mbedtls-2.16.2/library\rsa.c ****         default:
2433:C:/Users/dtjld/workspace/AIoT/src/LiteOS_Lab/iot_link/network/dtls/mbedtls/mbedtls-2.16.2/library\rsa.c ****             return( MBEDTLS_ERR_RSA_INVALID_PADDING );
 7252              		.loc 1 2433 0
 7253 005e 024B     		ldr	r3, .L550
 7254              	.L548:
2434:C:/Users/dtjld/workspace/AIoT/src/LiteOS_Lab/iot_link/network/dtls/mbedtls/mbedtls-2.16.2/library\rsa.c ****     }
2435:C:/Users/dtjld/workspace/AIoT/src/LiteOS_Lab/iot_link/network/dtls/mbedtls/mbedtls-2.16.2/library\rsa.c **** }
 7255              		.loc 1 2435 0
 7256 0060 1846     		mov	r0, r3
 7257 0062 1037     		adds	r7, r7, #16
 7258              	.LCFI188:
 7259              		.cfi_def_cfa_offset 8
 7260 0064 BD46     		mov	sp, r7
 7261              	.LCFI189:
 7262              		.cfi_def_cfa_register 13
 7263              		@ sp needed
 7264 0066 80BD     		pop	{r7, pc}
 7265              	.L551:
 7266              		.align	2
 7267              	.L550:
 7268 0068 00BFFFFF 		.word	-16640
 7269              		.cfi_endproc
 7270              	.LFE49:
 7272              		.section	.text.mbedtls_rsa_copy,"ax",%progbits
 7273              		.align	1
 7274              		.global	mbedtls_rsa_copy
 7275              		.syntax unified
 7276              		.thumb
 7277              		.thumb_func
 7278              		.fpu fpv4-sp-d16
 7280              	mbedtls_rsa_copy:
 7281              	.LFB50:
2436:C:/Users/dtjld/workspace/AIoT/src/LiteOS_Lab/iot_link/network/dtls/mbedtls/mbedtls-2.16.2/library\rsa.c **** 
2437:C:/Users/dtjld/workspace/AIoT/src/LiteOS_Lab/iot_link/network/dtls/mbedtls/mbedtls-2.16.2/library\rsa.c **** /*
ARM GAS  C:\Users\dtjld\AppData\Local\Temp\cck1fUMg.s 			page 173


2438:C:/Users/dtjld/workspace/AIoT/src/LiteOS_Lab/iot_link/network/dtls/mbedtls/mbedtls-2.16.2/library\rsa.c ****  * Copy the components of an RSA key
2439:C:/Users/dtjld/workspace/AIoT/src/LiteOS_Lab/iot_link/network/dtls/mbedtls/mbedtls-2.16.2/library\rsa.c ****  */
2440:C:/Users/dtjld/workspace/AIoT/src/LiteOS_Lab/iot_link/network/dtls/mbedtls/mbedtls-2.16.2/library\rsa.c **** int mbedtls_rsa_copy( mbedtls_rsa_context *dst, const mbedtls_rsa_context *src )
2441:C:/Users/dtjld/workspace/AIoT/src/LiteOS_Lab/iot_link/network/dtls/mbedtls/mbedtls-2.16.2/library\rsa.c **** {
 7282              		.loc 1 2441 0
 7283              		.cfi_startproc
 7284              		@ args = 0, pretend = 0, frame = 16
 7285              		@ frame_needed = 1, uses_anonymous_args = 0
 7286 0000 80B5     		push	{r7, lr}
 7287              	.LCFI190:
 7288              		.cfi_def_cfa_offset 8
 7289              		.cfi_offset 7, -8
 7290              		.cfi_offset 14, -4
 7291 0002 84B0     		sub	sp, sp, #16
 7292              	.LCFI191:
 7293              		.cfi_def_cfa_offset 24
 7294 0004 00AF     		add	r7, sp, #0
 7295              	.LCFI192:
 7296              		.cfi_def_cfa_register 7
 7297 0006 7860     		str	r0, [r7, #4]
 7298 0008 3960     		str	r1, [r7]
2442:C:/Users/dtjld/workspace/AIoT/src/LiteOS_Lab/iot_link/network/dtls/mbedtls/mbedtls-2.16.2/library\rsa.c ****     int ret;
2443:C:/Users/dtjld/workspace/AIoT/src/LiteOS_Lab/iot_link/network/dtls/mbedtls/mbedtls-2.16.2/library\rsa.c ****     RSA_VALIDATE_RET( dst != NULL );
2444:C:/Users/dtjld/workspace/AIoT/src/LiteOS_Lab/iot_link/network/dtls/mbedtls/mbedtls-2.16.2/library\rsa.c ****     RSA_VALIDATE_RET( src != NULL );
2445:C:/Users/dtjld/workspace/AIoT/src/LiteOS_Lab/iot_link/network/dtls/mbedtls/mbedtls-2.16.2/library\rsa.c **** 
2446:C:/Users/dtjld/workspace/AIoT/src/LiteOS_Lab/iot_link/network/dtls/mbedtls/mbedtls-2.16.2/library\rsa.c ****     dst->ver = src->ver;
 7299              		.loc 1 2446 0
 7300 000a 3B68     		ldr	r3, [r7]
 7301 000c 1A68     		ldr	r2, [r3]
 7302 000e 7B68     		ldr	r3, [r7, #4]
 7303 0010 1A60     		str	r2, [r3]
2447:C:/Users/dtjld/workspace/AIoT/src/LiteOS_Lab/iot_link/network/dtls/mbedtls/mbedtls-2.16.2/library\rsa.c ****     dst->len = src->len;
 7304              		.loc 1 2447 0
 7305 0012 3B68     		ldr	r3, [r7]
 7306 0014 5A68     		ldr	r2, [r3, #4]
 7307 0016 7B68     		ldr	r3, [r7, #4]
 7308 0018 5A60     		str	r2, [r3, #4]
2448:C:/Users/dtjld/workspace/AIoT/src/LiteOS_Lab/iot_link/network/dtls/mbedtls/mbedtls-2.16.2/library\rsa.c **** 
2449:C:/Users/dtjld/workspace/AIoT/src/LiteOS_Lab/iot_link/network/dtls/mbedtls/mbedtls-2.16.2/library\rsa.c ****     MBEDTLS_MPI_CHK( mbedtls_mpi_copy( &dst->N, &src->N ) );
 7309              		.loc 1 2449 0
 7310 001a 7B68     		ldr	r3, [r7, #4]
 7311 001c 03F10802 		add	r2, r3, #8
 7312 0020 3B68     		ldr	r3, [r7]
 7313 0022 0833     		adds	r3, r3, #8
 7314 0024 1946     		mov	r1, r3
 7315 0026 1046     		mov	r0, r2
 7316 0028 FFF7FEFF 		bl	mbedtls_mpi_copy
 7317 002c F860     		str	r0, [r7, #12]
 7318 002e FB68     		ldr	r3, [r7, #12]
 7319 0030 002B     		cmp	r3, #0
 7320 0032 40F0AC80 		bne	.L569
2450:C:/Users/dtjld/workspace/AIoT/src/LiteOS_Lab/iot_link/network/dtls/mbedtls/mbedtls-2.16.2/library\rsa.c ****     MBEDTLS_MPI_CHK( mbedtls_mpi_copy( &dst->E, &src->E ) );
 7321              		.loc 1 2450 0
 7322 0036 7B68     		ldr	r3, [r7, #4]
 7323 0038 03F11402 		add	r2, r3, #20
 7324 003c 3B68     		ldr	r3, [r7]
 7325 003e 1433     		adds	r3, r3, #20
ARM GAS  C:\Users\dtjld\AppData\Local\Temp\cck1fUMg.s 			page 174


 7326 0040 1946     		mov	r1, r3
 7327 0042 1046     		mov	r0, r2
 7328 0044 FFF7FEFF 		bl	mbedtls_mpi_copy
 7329 0048 F860     		str	r0, [r7, #12]
 7330 004a FB68     		ldr	r3, [r7, #12]
 7331 004c 002B     		cmp	r3, #0
 7332 004e 40F0A080 		bne	.L570
2451:C:/Users/dtjld/workspace/AIoT/src/LiteOS_Lab/iot_link/network/dtls/mbedtls/mbedtls-2.16.2/library\rsa.c **** 
2452:C:/Users/dtjld/workspace/AIoT/src/LiteOS_Lab/iot_link/network/dtls/mbedtls/mbedtls-2.16.2/library\rsa.c ****     MBEDTLS_MPI_CHK( mbedtls_mpi_copy( &dst->D, &src->D ) );
 7333              		.loc 1 2452 0
 7334 0052 7B68     		ldr	r3, [r7, #4]
 7335 0054 03F12002 		add	r2, r3, #32
 7336 0058 3B68     		ldr	r3, [r7]
 7337 005a 2033     		adds	r3, r3, #32
 7338 005c 1946     		mov	r1, r3
 7339 005e 1046     		mov	r0, r2
 7340 0060 FFF7FEFF 		bl	mbedtls_mpi_copy
 7341 0064 F860     		str	r0, [r7, #12]
 7342 0066 FB68     		ldr	r3, [r7, #12]
 7343 0068 002B     		cmp	r3, #0
 7344 006a 40F09480 		bne	.L571
2453:C:/Users/dtjld/workspace/AIoT/src/LiteOS_Lab/iot_link/network/dtls/mbedtls/mbedtls-2.16.2/library\rsa.c ****     MBEDTLS_MPI_CHK( mbedtls_mpi_copy( &dst->P, &src->P ) );
 7345              		.loc 1 2453 0
 7346 006e 7B68     		ldr	r3, [r7, #4]
 7347 0070 03F12C02 		add	r2, r3, #44
 7348 0074 3B68     		ldr	r3, [r7]
 7349 0076 2C33     		adds	r3, r3, #44
 7350 0078 1946     		mov	r1, r3
 7351 007a 1046     		mov	r0, r2
 7352 007c FFF7FEFF 		bl	mbedtls_mpi_copy
 7353 0080 F860     		str	r0, [r7, #12]
 7354 0082 FB68     		ldr	r3, [r7, #12]
 7355 0084 002B     		cmp	r3, #0
 7356 0086 40F08880 		bne	.L572
2454:C:/Users/dtjld/workspace/AIoT/src/LiteOS_Lab/iot_link/network/dtls/mbedtls/mbedtls-2.16.2/library\rsa.c ****     MBEDTLS_MPI_CHK( mbedtls_mpi_copy( &dst->Q, &src->Q ) );
 7357              		.loc 1 2454 0
 7358 008a 7B68     		ldr	r3, [r7, #4]
 7359 008c 03F13802 		add	r2, r3, #56
 7360 0090 3B68     		ldr	r3, [r7]
 7361 0092 3833     		adds	r3, r3, #56
 7362 0094 1946     		mov	r1, r3
 7363 0096 1046     		mov	r0, r2
 7364 0098 FFF7FEFF 		bl	mbedtls_mpi_copy
 7365 009c F860     		str	r0, [r7, #12]
 7366 009e FB68     		ldr	r3, [r7, #12]
 7367 00a0 002B     		cmp	r3, #0
 7368 00a2 7CD1     		bne	.L573
2455:C:/Users/dtjld/workspace/AIoT/src/LiteOS_Lab/iot_link/network/dtls/mbedtls/mbedtls-2.16.2/library\rsa.c **** 
2456:C:/Users/dtjld/workspace/AIoT/src/LiteOS_Lab/iot_link/network/dtls/mbedtls/mbedtls-2.16.2/library\rsa.c **** #if !defined(MBEDTLS_RSA_NO_CRT)
2457:C:/Users/dtjld/workspace/AIoT/src/LiteOS_Lab/iot_link/network/dtls/mbedtls/mbedtls-2.16.2/library\rsa.c ****     MBEDTLS_MPI_CHK( mbedtls_mpi_copy( &dst->DP, &src->DP ) );
 7369              		.loc 1 2457 0
 7370 00a4 7B68     		ldr	r3, [r7, #4]
 7371 00a6 03F14402 		add	r2, r3, #68
 7372 00aa 3B68     		ldr	r3, [r7]
 7373 00ac 4433     		adds	r3, r3, #68
 7374 00ae 1946     		mov	r1, r3
 7375 00b0 1046     		mov	r0, r2
ARM GAS  C:\Users\dtjld\AppData\Local\Temp\cck1fUMg.s 			page 175


 7376 00b2 FFF7FEFF 		bl	mbedtls_mpi_copy
 7377 00b6 F860     		str	r0, [r7, #12]
 7378 00b8 FB68     		ldr	r3, [r7, #12]
 7379 00ba 002B     		cmp	r3, #0
 7380 00bc 71D1     		bne	.L574
2458:C:/Users/dtjld/workspace/AIoT/src/LiteOS_Lab/iot_link/network/dtls/mbedtls/mbedtls-2.16.2/library\rsa.c ****     MBEDTLS_MPI_CHK( mbedtls_mpi_copy( &dst->DQ, &src->DQ ) );
 7381              		.loc 1 2458 0
 7382 00be 7B68     		ldr	r3, [r7, #4]
 7383 00c0 03F15002 		add	r2, r3, #80
 7384 00c4 3B68     		ldr	r3, [r7]
 7385 00c6 5033     		adds	r3, r3, #80
 7386 00c8 1946     		mov	r1, r3
 7387 00ca 1046     		mov	r0, r2
 7388 00cc FFF7FEFF 		bl	mbedtls_mpi_copy
 7389 00d0 F860     		str	r0, [r7, #12]
 7390 00d2 FB68     		ldr	r3, [r7, #12]
 7391 00d4 002B     		cmp	r3, #0
 7392 00d6 66D1     		bne	.L575
2459:C:/Users/dtjld/workspace/AIoT/src/LiteOS_Lab/iot_link/network/dtls/mbedtls/mbedtls-2.16.2/library\rsa.c ****     MBEDTLS_MPI_CHK( mbedtls_mpi_copy( &dst->QP, &src->QP ) );
 7393              		.loc 1 2459 0
 7394 00d8 7B68     		ldr	r3, [r7, #4]
 7395 00da 03F15C02 		add	r2, r3, #92
 7396 00de 3B68     		ldr	r3, [r7]
 7397 00e0 5C33     		adds	r3, r3, #92
 7398 00e2 1946     		mov	r1, r3
 7399 00e4 1046     		mov	r0, r2
 7400 00e6 FFF7FEFF 		bl	mbedtls_mpi_copy
 7401 00ea F860     		str	r0, [r7, #12]
 7402 00ec FB68     		ldr	r3, [r7, #12]
 7403 00ee 002B     		cmp	r3, #0
 7404 00f0 5BD1     		bne	.L576
2460:C:/Users/dtjld/workspace/AIoT/src/LiteOS_Lab/iot_link/network/dtls/mbedtls/mbedtls-2.16.2/library\rsa.c ****     MBEDTLS_MPI_CHK( mbedtls_mpi_copy( &dst->RP, &src->RP ) );
 7405              		.loc 1 2460 0
 7406 00f2 7B68     		ldr	r3, [r7, #4]
 7407 00f4 03F17402 		add	r2, r3, #116
 7408 00f8 3B68     		ldr	r3, [r7]
 7409 00fa 7433     		adds	r3, r3, #116
 7410 00fc 1946     		mov	r1, r3
 7411 00fe 1046     		mov	r0, r2
 7412 0100 FFF7FEFF 		bl	mbedtls_mpi_copy
 7413 0104 F860     		str	r0, [r7, #12]
 7414 0106 FB68     		ldr	r3, [r7, #12]
 7415 0108 002B     		cmp	r3, #0
 7416 010a 50D1     		bne	.L577
2461:C:/Users/dtjld/workspace/AIoT/src/LiteOS_Lab/iot_link/network/dtls/mbedtls/mbedtls-2.16.2/library\rsa.c ****     MBEDTLS_MPI_CHK( mbedtls_mpi_copy( &dst->RQ, &src->RQ ) );
 7417              		.loc 1 2461 0
 7418 010c 7B68     		ldr	r3, [r7, #4]
 7419 010e 03F18002 		add	r2, r3, #128
 7420 0112 3B68     		ldr	r3, [r7]
 7421 0114 8033     		adds	r3, r3, #128
 7422 0116 1946     		mov	r1, r3
 7423 0118 1046     		mov	r0, r2
 7424 011a FFF7FEFF 		bl	mbedtls_mpi_copy
 7425 011e F860     		str	r0, [r7, #12]
 7426 0120 FB68     		ldr	r3, [r7, #12]
 7427 0122 002B     		cmp	r3, #0
 7428 0124 45D1     		bne	.L578
ARM GAS  C:\Users\dtjld\AppData\Local\Temp\cck1fUMg.s 			page 176


2462:C:/Users/dtjld/workspace/AIoT/src/LiteOS_Lab/iot_link/network/dtls/mbedtls/mbedtls-2.16.2/library\rsa.c **** #endif
2463:C:/Users/dtjld/workspace/AIoT/src/LiteOS_Lab/iot_link/network/dtls/mbedtls/mbedtls-2.16.2/library\rsa.c **** 
2464:C:/Users/dtjld/workspace/AIoT/src/LiteOS_Lab/iot_link/network/dtls/mbedtls/mbedtls-2.16.2/library\rsa.c ****     MBEDTLS_MPI_CHK( mbedtls_mpi_copy( &dst->RN, &src->RN ) );
 7429              		.loc 1 2464 0
 7430 0126 7B68     		ldr	r3, [r7, #4]
 7431 0128 03F16802 		add	r2, r3, #104
 7432 012c 3B68     		ldr	r3, [r7]
 7433 012e 6833     		adds	r3, r3, #104
 7434 0130 1946     		mov	r1, r3
 7435 0132 1046     		mov	r0, r2
 7436 0134 FFF7FEFF 		bl	mbedtls_mpi_copy
 7437 0138 F860     		str	r0, [r7, #12]
 7438 013a FB68     		ldr	r3, [r7, #12]
 7439 013c 002B     		cmp	r3, #0
 7440 013e 3AD1     		bne	.L579
2465:C:/Users/dtjld/workspace/AIoT/src/LiteOS_Lab/iot_link/network/dtls/mbedtls/mbedtls-2.16.2/library\rsa.c **** 
2466:C:/Users/dtjld/workspace/AIoT/src/LiteOS_Lab/iot_link/network/dtls/mbedtls/mbedtls-2.16.2/library\rsa.c ****     MBEDTLS_MPI_CHK( mbedtls_mpi_copy( &dst->Vi, &src->Vi ) );
 7441              		.loc 1 2466 0
 7442 0140 7B68     		ldr	r3, [r7, #4]
 7443 0142 03F18C02 		add	r2, r3, #140
 7444 0146 3B68     		ldr	r3, [r7]
 7445 0148 8C33     		adds	r3, r3, #140
 7446 014a 1946     		mov	r1, r3
 7447 014c 1046     		mov	r0, r2
 7448 014e FFF7FEFF 		bl	mbedtls_mpi_copy
 7449 0152 F860     		str	r0, [r7, #12]
 7450 0154 FB68     		ldr	r3, [r7, #12]
 7451 0156 002B     		cmp	r3, #0
 7452 0158 2FD1     		bne	.L580
2467:C:/Users/dtjld/workspace/AIoT/src/LiteOS_Lab/iot_link/network/dtls/mbedtls/mbedtls-2.16.2/library\rsa.c ****     MBEDTLS_MPI_CHK( mbedtls_mpi_copy( &dst->Vf, &src->Vf ) );
 7453              		.loc 1 2467 0
 7454 015a 7B68     		ldr	r3, [r7, #4]
 7455 015c 03F19802 		add	r2, r3, #152
 7456 0160 3B68     		ldr	r3, [r7]
 7457 0162 9833     		adds	r3, r3, #152
 7458 0164 1946     		mov	r1, r3
 7459 0166 1046     		mov	r0, r2
 7460 0168 FFF7FEFF 		bl	mbedtls_mpi_copy
 7461 016c F860     		str	r0, [r7, #12]
 7462 016e FB68     		ldr	r3, [r7, #12]
 7463 0170 002B     		cmp	r3, #0
 7464 0172 24D1     		bne	.L581
2468:C:/Users/dtjld/workspace/AIoT/src/LiteOS_Lab/iot_link/network/dtls/mbedtls/mbedtls-2.16.2/library\rsa.c **** 
2469:C:/Users/dtjld/workspace/AIoT/src/LiteOS_Lab/iot_link/network/dtls/mbedtls/mbedtls-2.16.2/library\rsa.c ****     dst->padding = src->padding;
 7465              		.loc 1 2469 0
 7466 0174 3B68     		ldr	r3, [r7]
 7467 0176 D3F8A420 		ldr	r2, [r3, #164]
 7468 017a 7B68     		ldr	r3, [r7, #4]
 7469 017c C3F8A420 		str	r2, [r3, #164]
2470:C:/Users/dtjld/workspace/AIoT/src/LiteOS_Lab/iot_link/network/dtls/mbedtls/mbedtls-2.16.2/library\rsa.c ****     dst->hash_id = src->hash_id;
 7470              		.loc 1 2470 0
 7471 0180 3B68     		ldr	r3, [r7]
 7472 0182 D3F8A820 		ldr	r2, [r3, #168]
 7473 0186 7B68     		ldr	r3, [r7, #4]
 7474 0188 C3F8A820 		str	r2, [r3, #168]
 7475 018c 18E0     		b	.L554
 7476              	.L569:
ARM GAS  C:\Users\dtjld\AppData\Local\Temp\cck1fUMg.s 			page 177


2449:C:/Users/dtjld/workspace/AIoT/src/LiteOS_Lab/iot_link/network/dtls/mbedtls/mbedtls-2.16.2/library\rsa.c ****     MBEDTLS_MPI_CHK( mbedtls_mpi_copy( &dst->E, &src->E ) );
 7477              		.loc 1 2449 0
 7478 018e 00BF     		nop
 7479 0190 16E0     		b	.L554
 7480              	.L570:
2450:C:/Users/dtjld/workspace/AIoT/src/LiteOS_Lab/iot_link/network/dtls/mbedtls/mbedtls-2.16.2/library\rsa.c **** 
 7481              		.loc 1 2450 0
 7482 0192 00BF     		nop
 7483 0194 14E0     		b	.L554
 7484              	.L571:
2452:C:/Users/dtjld/workspace/AIoT/src/LiteOS_Lab/iot_link/network/dtls/mbedtls/mbedtls-2.16.2/library\rsa.c ****     MBEDTLS_MPI_CHK( mbedtls_mpi_copy( &dst->P, &src->P ) );
 7485              		.loc 1 2452 0
 7486 0196 00BF     		nop
 7487 0198 12E0     		b	.L554
 7488              	.L572:
2453:C:/Users/dtjld/workspace/AIoT/src/LiteOS_Lab/iot_link/network/dtls/mbedtls/mbedtls-2.16.2/library\rsa.c ****     MBEDTLS_MPI_CHK( mbedtls_mpi_copy( &dst->Q, &src->Q ) );
 7489              		.loc 1 2453 0
 7490 019a 00BF     		nop
 7491 019c 10E0     		b	.L554
 7492              	.L573:
2454:C:/Users/dtjld/workspace/AIoT/src/LiteOS_Lab/iot_link/network/dtls/mbedtls/mbedtls-2.16.2/library\rsa.c **** 
 7493              		.loc 1 2454 0
 7494 019e 00BF     		nop
 7495 01a0 0EE0     		b	.L554
 7496              	.L574:
2457:C:/Users/dtjld/workspace/AIoT/src/LiteOS_Lab/iot_link/network/dtls/mbedtls/mbedtls-2.16.2/library\rsa.c ****     MBEDTLS_MPI_CHK( mbedtls_mpi_copy( &dst->DQ, &src->DQ ) );
 7497              		.loc 1 2457 0
 7498 01a2 00BF     		nop
 7499 01a4 0CE0     		b	.L554
 7500              	.L575:
2458:C:/Users/dtjld/workspace/AIoT/src/LiteOS_Lab/iot_link/network/dtls/mbedtls/mbedtls-2.16.2/library\rsa.c ****     MBEDTLS_MPI_CHK( mbedtls_mpi_copy( &dst->QP, &src->QP ) );
 7501              		.loc 1 2458 0
 7502 01a6 00BF     		nop
 7503 01a8 0AE0     		b	.L554
 7504              	.L576:
2459:C:/Users/dtjld/workspace/AIoT/src/LiteOS_Lab/iot_link/network/dtls/mbedtls/mbedtls-2.16.2/library\rsa.c ****     MBEDTLS_MPI_CHK( mbedtls_mpi_copy( &dst->RP, &src->RP ) );
 7505              		.loc 1 2459 0
 7506 01aa 00BF     		nop
 7507 01ac 08E0     		b	.L554
 7508              	.L577:
2460:C:/Users/dtjld/workspace/AIoT/src/LiteOS_Lab/iot_link/network/dtls/mbedtls/mbedtls-2.16.2/library\rsa.c ****     MBEDTLS_MPI_CHK( mbedtls_mpi_copy( &dst->RQ, &src->RQ ) );
 7509              		.loc 1 2460 0
 7510 01ae 00BF     		nop
 7511 01b0 06E0     		b	.L554
 7512              	.L578:
2461:C:/Users/dtjld/workspace/AIoT/src/LiteOS_Lab/iot_link/network/dtls/mbedtls/mbedtls-2.16.2/library\rsa.c **** #endif
 7513              		.loc 1 2461 0
 7514 01b2 00BF     		nop
 7515 01b4 04E0     		b	.L554
 7516              	.L579:
2464:C:/Users/dtjld/workspace/AIoT/src/LiteOS_Lab/iot_link/network/dtls/mbedtls/mbedtls-2.16.2/library\rsa.c **** 
 7517              		.loc 1 2464 0
 7518 01b6 00BF     		nop
 7519 01b8 02E0     		b	.L554
 7520              	.L580:
2466:C:/Users/dtjld/workspace/AIoT/src/LiteOS_Lab/iot_link/network/dtls/mbedtls/mbedtls-2.16.2/library\rsa.c ****     MBEDTLS_MPI_CHK( mbedtls_mpi_copy( &dst->Vf, &src->Vf ) );
 7521              		.loc 1 2466 0
ARM GAS  C:\Users\dtjld\AppData\Local\Temp\cck1fUMg.s 			page 178


 7522 01ba 00BF     		nop
 7523 01bc 00E0     		b	.L554
 7524              	.L581:
2467:C:/Users/dtjld/workspace/AIoT/src/LiteOS_Lab/iot_link/network/dtls/mbedtls/mbedtls-2.16.2/library\rsa.c **** 
 7525              		.loc 1 2467 0
 7526 01be 00BF     		nop
 7527              	.L554:
2471:C:/Users/dtjld/workspace/AIoT/src/LiteOS_Lab/iot_link/network/dtls/mbedtls/mbedtls-2.16.2/library\rsa.c **** 
2472:C:/Users/dtjld/workspace/AIoT/src/LiteOS_Lab/iot_link/network/dtls/mbedtls/mbedtls-2.16.2/library\rsa.c **** cleanup:
2473:C:/Users/dtjld/workspace/AIoT/src/LiteOS_Lab/iot_link/network/dtls/mbedtls/mbedtls-2.16.2/library\rsa.c ****     if( ret != 0 )
 7528              		.loc 1 2473 0
 7529 01c0 FB68     		ldr	r3, [r7, #12]
 7530 01c2 002B     		cmp	r3, #0
 7531 01c4 02D0     		beq	.L567
2474:C:/Users/dtjld/workspace/AIoT/src/LiteOS_Lab/iot_link/network/dtls/mbedtls/mbedtls-2.16.2/library\rsa.c ****         mbedtls_rsa_free( dst );
 7532              		.loc 1 2474 0
 7533 01c6 7868     		ldr	r0, [r7, #4]
 7534 01c8 FFF7FEFF 		bl	mbedtls_rsa_free
 7535              	.L567:
2475:C:/Users/dtjld/workspace/AIoT/src/LiteOS_Lab/iot_link/network/dtls/mbedtls/mbedtls-2.16.2/library\rsa.c **** 
2476:C:/Users/dtjld/workspace/AIoT/src/LiteOS_Lab/iot_link/network/dtls/mbedtls/mbedtls-2.16.2/library\rsa.c ****     return( ret );
 7536              		.loc 1 2476 0
 7537 01cc FB68     		ldr	r3, [r7, #12]
2477:C:/Users/dtjld/workspace/AIoT/src/LiteOS_Lab/iot_link/network/dtls/mbedtls/mbedtls-2.16.2/library\rsa.c **** }
 7538              		.loc 1 2477 0
 7539 01ce 1846     		mov	r0, r3
 7540 01d0 1037     		adds	r7, r7, #16
 7541              	.LCFI193:
 7542              		.cfi_def_cfa_offset 8
 7543 01d2 BD46     		mov	sp, r7
 7544              	.LCFI194:
 7545              		.cfi_def_cfa_register 13
 7546              		@ sp needed
 7547 01d4 80BD     		pop	{r7, pc}
 7548              		.cfi_endproc
 7549              	.LFE50:
 7551              		.section	.text.mbedtls_rsa_free,"ax",%progbits
 7552              		.align	1
 7553              		.global	mbedtls_rsa_free
 7554              		.syntax unified
 7555              		.thumb
 7556              		.thumb_func
 7557              		.fpu fpv4-sp-d16
 7559              	mbedtls_rsa_free:
 7560              	.LFB51:
2478:C:/Users/dtjld/workspace/AIoT/src/LiteOS_Lab/iot_link/network/dtls/mbedtls/mbedtls-2.16.2/library\rsa.c **** 
2479:C:/Users/dtjld/workspace/AIoT/src/LiteOS_Lab/iot_link/network/dtls/mbedtls/mbedtls-2.16.2/library\rsa.c **** /*
2480:C:/Users/dtjld/workspace/AIoT/src/LiteOS_Lab/iot_link/network/dtls/mbedtls/mbedtls-2.16.2/library\rsa.c ****  * Free the components of an RSA key
2481:C:/Users/dtjld/workspace/AIoT/src/LiteOS_Lab/iot_link/network/dtls/mbedtls/mbedtls-2.16.2/library\rsa.c ****  */
2482:C:/Users/dtjld/workspace/AIoT/src/LiteOS_Lab/iot_link/network/dtls/mbedtls/mbedtls-2.16.2/library\rsa.c **** void mbedtls_rsa_free( mbedtls_rsa_context *ctx )
2483:C:/Users/dtjld/workspace/AIoT/src/LiteOS_Lab/iot_link/network/dtls/mbedtls/mbedtls-2.16.2/library\rsa.c **** {
 7561              		.loc 1 2483 0
 7562              		.cfi_startproc
 7563              		@ args = 0, pretend = 0, frame = 8
 7564              		@ frame_needed = 1, uses_anonymous_args = 0
 7565 0000 80B5     		push	{r7, lr}
 7566              	.LCFI195:
ARM GAS  C:\Users\dtjld\AppData\Local\Temp\cck1fUMg.s 			page 179


 7567              		.cfi_def_cfa_offset 8
 7568              		.cfi_offset 7, -8
 7569              		.cfi_offset 14, -4
 7570 0002 82B0     		sub	sp, sp, #8
 7571              	.LCFI196:
 7572              		.cfi_def_cfa_offset 16
 7573 0004 00AF     		add	r7, sp, #0
 7574              	.LCFI197:
 7575              		.cfi_def_cfa_register 7
 7576 0006 7860     		str	r0, [r7, #4]
2484:C:/Users/dtjld/workspace/AIoT/src/LiteOS_Lab/iot_link/network/dtls/mbedtls/mbedtls-2.16.2/library\rsa.c ****     if( ctx == NULL )
 7577              		.loc 1 2484 0
 7578 0008 7B68     		ldr	r3, [r7, #4]
 7579 000a 002B     		cmp	r3, #0
 7580 000c 41D0     		beq	.L585
2485:C:/Users/dtjld/workspace/AIoT/src/LiteOS_Lab/iot_link/network/dtls/mbedtls/mbedtls-2.16.2/library\rsa.c ****         return;
2486:C:/Users/dtjld/workspace/AIoT/src/LiteOS_Lab/iot_link/network/dtls/mbedtls/mbedtls-2.16.2/library\rsa.c **** 
2487:C:/Users/dtjld/workspace/AIoT/src/LiteOS_Lab/iot_link/network/dtls/mbedtls/mbedtls-2.16.2/library\rsa.c ****     mbedtls_mpi_free( &ctx->Vi );
 7581              		.loc 1 2487 0
 7582 000e 7B68     		ldr	r3, [r7, #4]
 7583 0010 8C33     		adds	r3, r3, #140
 7584 0012 1846     		mov	r0, r3
 7585 0014 FFF7FEFF 		bl	mbedtls_mpi_free
2488:C:/Users/dtjld/workspace/AIoT/src/LiteOS_Lab/iot_link/network/dtls/mbedtls/mbedtls-2.16.2/library\rsa.c ****     mbedtls_mpi_free( &ctx->Vf );
 7586              		.loc 1 2488 0
 7587 0018 7B68     		ldr	r3, [r7, #4]
 7588 001a 9833     		adds	r3, r3, #152
 7589 001c 1846     		mov	r0, r3
 7590 001e FFF7FEFF 		bl	mbedtls_mpi_free
2489:C:/Users/dtjld/workspace/AIoT/src/LiteOS_Lab/iot_link/network/dtls/mbedtls/mbedtls-2.16.2/library\rsa.c ****     mbedtls_mpi_free( &ctx->RN );
 7591              		.loc 1 2489 0
 7592 0022 7B68     		ldr	r3, [r7, #4]
 7593 0024 6833     		adds	r3, r3, #104
 7594 0026 1846     		mov	r0, r3
 7595 0028 FFF7FEFF 		bl	mbedtls_mpi_free
2490:C:/Users/dtjld/workspace/AIoT/src/LiteOS_Lab/iot_link/network/dtls/mbedtls/mbedtls-2.16.2/library\rsa.c ****     mbedtls_mpi_free( &ctx->D  );
 7596              		.loc 1 2490 0
 7597 002c 7B68     		ldr	r3, [r7, #4]
 7598 002e 2033     		adds	r3, r3, #32
 7599 0030 1846     		mov	r0, r3
 7600 0032 FFF7FEFF 		bl	mbedtls_mpi_free
2491:C:/Users/dtjld/workspace/AIoT/src/LiteOS_Lab/iot_link/network/dtls/mbedtls/mbedtls-2.16.2/library\rsa.c ****     mbedtls_mpi_free( &ctx->Q  );
 7601              		.loc 1 2491 0
 7602 0036 7B68     		ldr	r3, [r7, #4]
 7603 0038 3833     		adds	r3, r3, #56
 7604 003a 1846     		mov	r0, r3
 7605 003c FFF7FEFF 		bl	mbedtls_mpi_free
2492:C:/Users/dtjld/workspace/AIoT/src/LiteOS_Lab/iot_link/network/dtls/mbedtls/mbedtls-2.16.2/library\rsa.c ****     mbedtls_mpi_free( &ctx->P  );
 7606              		.loc 1 2492 0
 7607 0040 7B68     		ldr	r3, [r7, #4]
 7608 0042 2C33     		adds	r3, r3, #44
 7609 0044 1846     		mov	r0, r3
 7610 0046 FFF7FEFF 		bl	mbedtls_mpi_free
2493:C:/Users/dtjld/workspace/AIoT/src/LiteOS_Lab/iot_link/network/dtls/mbedtls/mbedtls-2.16.2/library\rsa.c ****     mbedtls_mpi_free( &ctx->E  );
 7611              		.loc 1 2493 0
 7612 004a 7B68     		ldr	r3, [r7, #4]
 7613 004c 1433     		adds	r3, r3, #20
ARM GAS  C:\Users\dtjld\AppData\Local\Temp\cck1fUMg.s 			page 180


 7614 004e 1846     		mov	r0, r3
 7615 0050 FFF7FEFF 		bl	mbedtls_mpi_free
2494:C:/Users/dtjld/workspace/AIoT/src/LiteOS_Lab/iot_link/network/dtls/mbedtls/mbedtls-2.16.2/library\rsa.c ****     mbedtls_mpi_free( &ctx->N  );
 7616              		.loc 1 2494 0
 7617 0054 7B68     		ldr	r3, [r7, #4]
 7618 0056 0833     		adds	r3, r3, #8
 7619 0058 1846     		mov	r0, r3
 7620 005a FFF7FEFF 		bl	mbedtls_mpi_free
2495:C:/Users/dtjld/workspace/AIoT/src/LiteOS_Lab/iot_link/network/dtls/mbedtls/mbedtls-2.16.2/library\rsa.c **** 
2496:C:/Users/dtjld/workspace/AIoT/src/LiteOS_Lab/iot_link/network/dtls/mbedtls/mbedtls-2.16.2/library\rsa.c **** #if !defined(MBEDTLS_RSA_NO_CRT)
2497:C:/Users/dtjld/workspace/AIoT/src/LiteOS_Lab/iot_link/network/dtls/mbedtls/mbedtls-2.16.2/library\rsa.c ****     mbedtls_mpi_free( &ctx->RQ );
 7621              		.loc 1 2497 0
 7622 005e 7B68     		ldr	r3, [r7, #4]
 7623 0060 8033     		adds	r3, r3, #128
 7624 0062 1846     		mov	r0, r3
 7625 0064 FFF7FEFF 		bl	mbedtls_mpi_free
2498:C:/Users/dtjld/workspace/AIoT/src/LiteOS_Lab/iot_link/network/dtls/mbedtls/mbedtls-2.16.2/library\rsa.c ****     mbedtls_mpi_free( &ctx->RP );
 7626              		.loc 1 2498 0
 7627 0068 7B68     		ldr	r3, [r7, #4]
 7628 006a 7433     		adds	r3, r3, #116
 7629 006c 1846     		mov	r0, r3
 7630 006e FFF7FEFF 		bl	mbedtls_mpi_free
2499:C:/Users/dtjld/workspace/AIoT/src/LiteOS_Lab/iot_link/network/dtls/mbedtls/mbedtls-2.16.2/library\rsa.c ****     mbedtls_mpi_free( &ctx->QP );
 7631              		.loc 1 2499 0
 7632 0072 7B68     		ldr	r3, [r7, #4]
 7633 0074 5C33     		adds	r3, r3, #92
 7634 0076 1846     		mov	r0, r3
 7635 0078 FFF7FEFF 		bl	mbedtls_mpi_free
2500:C:/Users/dtjld/workspace/AIoT/src/LiteOS_Lab/iot_link/network/dtls/mbedtls/mbedtls-2.16.2/library\rsa.c ****     mbedtls_mpi_free( &ctx->DQ );
 7636              		.loc 1 2500 0
 7637 007c 7B68     		ldr	r3, [r7, #4]
 7638 007e 5033     		adds	r3, r3, #80
 7639 0080 1846     		mov	r0, r3
 7640 0082 FFF7FEFF 		bl	mbedtls_mpi_free
2501:C:/Users/dtjld/workspace/AIoT/src/LiteOS_Lab/iot_link/network/dtls/mbedtls/mbedtls-2.16.2/library\rsa.c ****     mbedtls_mpi_free( &ctx->DP );
 7641              		.loc 1 2501 0
 7642 0086 7B68     		ldr	r3, [r7, #4]
 7643 0088 4433     		adds	r3, r3, #68
 7644 008a 1846     		mov	r0, r3
 7645 008c FFF7FEFF 		bl	mbedtls_mpi_free
 7646 0090 00E0     		b	.L582
 7647              	.L585:
2485:C:/Users/dtjld/workspace/AIoT/src/LiteOS_Lab/iot_link/network/dtls/mbedtls/mbedtls-2.16.2/library\rsa.c **** 
 7648              		.loc 1 2485 0
 7649 0092 00BF     		nop
 7650              	.L582:
2502:C:/Users/dtjld/workspace/AIoT/src/LiteOS_Lab/iot_link/network/dtls/mbedtls/mbedtls-2.16.2/library\rsa.c **** #endif /* MBEDTLS_RSA_NO_CRT */
2503:C:/Users/dtjld/workspace/AIoT/src/LiteOS_Lab/iot_link/network/dtls/mbedtls/mbedtls-2.16.2/library\rsa.c **** 
2504:C:/Users/dtjld/workspace/AIoT/src/LiteOS_Lab/iot_link/network/dtls/mbedtls/mbedtls-2.16.2/library\rsa.c **** #if defined(MBEDTLS_THREADING_C)
2505:C:/Users/dtjld/workspace/AIoT/src/LiteOS_Lab/iot_link/network/dtls/mbedtls/mbedtls-2.16.2/library\rsa.c ****     mbedtls_mutex_free( &ctx->mutex );
2506:C:/Users/dtjld/workspace/AIoT/src/LiteOS_Lab/iot_link/network/dtls/mbedtls/mbedtls-2.16.2/library\rsa.c **** #endif
2507:C:/Users/dtjld/workspace/AIoT/src/LiteOS_Lab/iot_link/network/dtls/mbedtls/mbedtls-2.16.2/library\rsa.c **** }
 7651              		.loc 1 2507 0
 7652 0094 0837     		adds	r7, r7, #8
 7653              	.LCFI198:
 7654              		.cfi_def_cfa_offset 8
 7655 0096 BD46     		mov	sp, r7
ARM GAS  C:\Users\dtjld\AppData\Local\Temp\cck1fUMg.s 			page 181


 7656              	.LCFI199:
 7657              		.cfi_def_cfa_register 13
 7658              		@ sp needed
 7659 0098 80BD     		pop	{r7, pc}
 7660              		.cfi_endproc
 7661              	.LFE51:
 7663              		.section	.text.myrand,"ax",%progbits
 7664              		.align	1
 7665              		.syntax unified
 7666              		.thumb
 7667              		.thumb_func
 7668              		.fpu fpv4-sp-d16
 7670              	myrand:
 7671              	.LFB52:
2508:C:/Users/dtjld/workspace/AIoT/src/LiteOS_Lab/iot_link/network/dtls/mbedtls/mbedtls-2.16.2/library\rsa.c **** 
2509:C:/Users/dtjld/workspace/AIoT/src/LiteOS_Lab/iot_link/network/dtls/mbedtls/mbedtls-2.16.2/library\rsa.c **** #endif /* !MBEDTLS_RSA_ALT */
2510:C:/Users/dtjld/workspace/AIoT/src/LiteOS_Lab/iot_link/network/dtls/mbedtls/mbedtls-2.16.2/library\rsa.c **** 
2511:C:/Users/dtjld/workspace/AIoT/src/LiteOS_Lab/iot_link/network/dtls/mbedtls/mbedtls-2.16.2/library\rsa.c **** #if defined(MBEDTLS_SELF_TEST)
2512:C:/Users/dtjld/workspace/AIoT/src/LiteOS_Lab/iot_link/network/dtls/mbedtls/mbedtls-2.16.2/library\rsa.c **** 
2513:C:/Users/dtjld/workspace/AIoT/src/LiteOS_Lab/iot_link/network/dtls/mbedtls/mbedtls-2.16.2/library\rsa.c **** #include "mbedtls/sha1.h"
2514:C:/Users/dtjld/workspace/AIoT/src/LiteOS_Lab/iot_link/network/dtls/mbedtls/mbedtls-2.16.2/library\rsa.c **** 
2515:C:/Users/dtjld/workspace/AIoT/src/LiteOS_Lab/iot_link/network/dtls/mbedtls/mbedtls-2.16.2/library\rsa.c **** /*
2516:C:/Users/dtjld/workspace/AIoT/src/LiteOS_Lab/iot_link/network/dtls/mbedtls/mbedtls-2.16.2/library\rsa.c ****  * Example RSA-1024 keypair, for test purposes
2517:C:/Users/dtjld/workspace/AIoT/src/LiteOS_Lab/iot_link/network/dtls/mbedtls/mbedtls-2.16.2/library\rsa.c ****  */
2518:C:/Users/dtjld/workspace/AIoT/src/LiteOS_Lab/iot_link/network/dtls/mbedtls/mbedtls-2.16.2/library\rsa.c **** #define KEY_LEN 128
2519:C:/Users/dtjld/workspace/AIoT/src/LiteOS_Lab/iot_link/network/dtls/mbedtls/mbedtls-2.16.2/library\rsa.c **** 
2520:C:/Users/dtjld/workspace/AIoT/src/LiteOS_Lab/iot_link/network/dtls/mbedtls/mbedtls-2.16.2/library\rsa.c **** #define RSA_N   "9292758453063D803DD603D5E777D788" \
2521:C:/Users/dtjld/workspace/AIoT/src/LiteOS_Lab/iot_link/network/dtls/mbedtls/mbedtls-2.16.2/library\rsa.c ****                 "8ED1D5BF35786190FA2F23EBC0848AEA" \
2522:C:/Users/dtjld/workspace/AIoT/src/LiteOS_Lab/iot_link/network/dtls/mbedtls/mbedtls-2.16.2/library\rsa.c ****                 "DDA92CA6C3D80B32C4D109BE0F36D6AE" \
2523:C:/Users/dtjld/workspace/AIoT/src/LiteOS_Lab/iot_link/network/dtls/mbedtls/mbedtls-2.16.2/library\rsa.c ****                 "7130B9CED7ACDF54CFC7555AC14EEBAB" \
2524:C:/Users/dtjld/workspace/AIoT/src/LiteOS_Lab/iot_link/network/dtls/mbedtls/mbedtls-2.16.2/library\rsa.c ****                 "93A89813FBF3C4F8066D2D800F7C38A8" \
2525:C:/Users/dtjld/workspace/AIoT/src/LiteOS_Lab/iot_link/network/dtls/mbedtls/mbedtls-2.16.2/library\rsa.c ****                 "1AE31942917403FF4946B0A83D3D3E05" \
2526:C:/Users/dtjld/workspace/AIoT/src/LiteOS_Lab/iot_link/network/dtls/mbedtls/mbedtls-2.16.2/library\rsa.c ****                 "EE57C6F5F5606FB5D4BC6CD34EE0801A" \
2527:C:/Users/dtjld/workspace/AIoT/src/LiteOS_Lab/iot_link/network/dtls/mbedtls/mbedtls-2.16.2/library\rsa.c ****                 "5E94BB77B07507233A0BC7BAC8F90F79"
2528:C:/Users/dtjld/workspace/AIoT/src/LiteOS_Lab/iot_link/network/dtls/mbedtls/mbedtls-2.16.2/library\rsa.c **** 
2529:C:/Users/dtjld/workspace/AIoT/src/LiteOS_Lab/iot_link/network/dtls/mbedtls/mbedtls-2.16.2/library\rsa.c **** #define RSA_E   "10001"
2530:C:/Users/dtjld/workspace/AIoT/src/LiteOS_Lab/iot_link/network/dtls/mbedtls/mbedtls-2.16.2/library\rsa.c **** 
2531:C:/Users/dtjld/workspace/AIoT/src/LiteOS_Lab/iot_link/network/dtls/mbedtls/mbedtls-2.16.2/library\rsa.c **** #define RSA_D   "24BF6185468786FDD303083D25E64EFC" \
2532:C:/Users/dtjld/workspace/AIoT/src/LiteOS_Lab/iot_link/network/dtls/mbedtls/mbedtls-2.16.2/library\rsa.c ****                 "66CA472BC44D253102F8B4A9D3BFA750" \
2533:C:/Users/dtjld/workspace/AIoT/src/LiteOS_Lab/iot_link/network/dtls/mbedtls/mbedtls-2.16.2/library\rsa.c ****                 "91386C0077937FE33FA3252D28855837" \
2534:C:/Users/dtjld/workspace/AIoT/src/LiteOS_Lab/iot_link/network/dtls/mbedtls/mbedtls-2.16.2/library\rsa.c ****                 "AE1B484A8A9A45F7EE8C0C634F99E8CD" \
2535:C:/Users/dtjld/workspace/AIoT/src/LiteOS_Lab/iot_link/network/dtls/mbedtls/mbedtls-2.16.2/library\rsa.c ****                 "DF79C5CE07EE72C7F123142198164234" \
2536:C:/Users/dtjld/workspace/AIoT/src/LiteOS_Lab/iot_link/network/dtls/mbedtls/mbedtls-2.16.2/library\rsa.c ****                 "CABB724CF78B8173B9F880FC86322407" \
2537:C:/Users/dtjld/workspace/AIoT/src/LiteOS_Lab/iot_link/network/dtls/mbedtls/mbedtls-2.16.2/library\rsa.c ****                 "AF1FEDFDDE2BEB674CA15F3E81A1521E" \
2538:C:/Users/dtjld/workspace/AIoT/src/LiteOS_Lab/iot_link/network/dtls/mbedtls/mbedtls-2.16.2/library\rsa.c ****                 "071513A1E85B5DFA031F21ECAE91A34D"
2539:C:/Users/dtjld/workspace/AIoT/src/LiteOS_Lab/iot_link/network/dtls/mbedtls/mbedtls-2.16.2/library\rsa.c **** 
2540:C:/Users/dtjld/workspace/AIoT/src/LiteOS_Lab/iot_link/network/dtls/mbedtls/mbedtls-2.16.2/library\rsa.c **** #define RSA_P   "C36D0EB7FCD285223CFB5AABA5BDA3D8" \
2541:C:/Users/dtjld/workspace/AIoT/src/LiteOS_Lab/iot_link/network/dtls/mbedtls/mbedtls-2.16.2/library\rsa.c ****                 "2C01CAD19EA484A87EA4377637E75500" \
2542:C:/Users/dtjld/workspace/AIoT/src/LiteOS_Lab/iot_link/network/dtls/mbedtls/mbedtls-2.16.2/library\rsa.c ****                 "FCB2005C5C7DD6EC4AC023CDA285D796" \
2543:C:/Users/dtjld/workspace/AIoT/src/LiteOS_Lab/iot_link/network/dtls/mbedtls/mbedtls-2.16.2/library\rsa.c ****                 "C3D9E75E1EFC42488BB4F1D13AC30A57"
2544:C:/Users/dtjld/workspace/AIoT/src/LiteOS_Lab/iot_link/network/dtls/mbedtls/mbedtls-2.16.2/library\rsa.c **** 
2545:C:/Users/dtjld/workspace/AIoT/src/LiteOS_Lab/iot_link/network/dtls/mbedtls/mbedtls-2.16.2/library\rsa.c **** #define RSA_Q   "C000DF51A7C77AE8D7C7370C1FF55B69" \
2546:C:/Users/dtjld/workspace/AIoT/src/LiteOS_Lab/iot_link/network/dtls/mbedtls/mbedtls-2.16.2/library\rsa.c ****                 "E211C2B9E5DB1ED0BF61D0D9899620F4" \
2547:C:/Users/dtjld/workspace/AIoT/src/LiteOS_Lab/iot_link/network/dtls/mbedtls/mbedtls-2.16.2/library\rsa.c ****                 "910E4168387E3C30AA1E00C339A79508" \
2548:C:/Users/dtjld/workspace/AIoT/src/LiteOS_Lab/iot_link/network/dtls/mbedtls/mbedtls-2.16.2/library\rsa.c ****                 "8452DD96A9A5EA5D9DCA68DA636032AF"
2549:C:/Users/dtjld/workspace/AIoT/src/LiteOS_Lab/iot_link/network/dtls/mbedtls/mbedtls-2.16.2/library\rsa.c **** 
2550:C:/Users/dtjld/workspace/AIoT/src/LiteOS_Lab/iot_link/network/dtls/mbedtls/mbedtls-2.16.2/library\rsa.c **** #define PT_LEN  24
ARM GAS  C:\Users\dtjld\AppData\Local\Temp\cck1fUMg.s 			page 182


2551:C:/Users/dtjld/workspace/AIoT/src/LiteOS_Lab/iot_link/network/dtls/mbedtls/mbedtls-2.16.2/library\rsa.c **** #define RSA_PT  "\xAA\xBB\xCC\x03\x02\x01\x00\xFF\xFF\xFF\xFF\xFF" \
2552:C:/Users/dtjld/workspace/AIoT/src/LiteOS_Lab/iot_link/network/dtls/mbedtls/mbedtls-2.16.2/library\rsa.c ****                 "\x11\x22\x33\x0A\x0B\x0C\xCC\xDD\xDD\xDD\xDD\xDD"
2553:C:/Users/dtjld/workspace/AIoT/src/LiteOS_Lab/iot_link/network/dtls/mbedtls/mbedtls-2.16.2/library\rsa.c **** 
2554:C:/Users/dtjld/workspace/AIoT/src/LiteOS_Lab/iot_link/network/dtls/mbedtls/mbedtls-2.16.2/library\rsa.c **** #if defined(MBEDTLS_PKCS1_V15)
2555:C:/Users/dtjld/workspace/AIoT/src/LiteOS_Lab/iot_link/network/dtls/mbedtls/mbedtls-2.16.2/library\rsa.c **** static int myrand( void *rng_state, unsigned char *output, size_t len )
2556:C:/Users/dtjld/workspace/AIoT/src/LiteOS_Lab/iot_link/network/dtls/mbedtls/mbedtls-2.16.2/library\rsa.c **** {
 7672              		.loc 1 2556 0
 7673              		.cfi_startproc
 7674              		@ args = 0, pretend = 0, frame = 24
 7675              		@ frame_needed = 1, uses_anonymous_args = 0
 7676 0000 80B5     		push	{r7, lr}
 7677              	.LCFI200:
 7678              		.cfi_def_cfa_offset 8
 7679              		.cfi_offset 7, -8
 7680              		.cfi_offset 14, -4
 7681 0002 86B0     		sub	sp, sp, #24
 7682              	.LCFI201:
 7683              		.cfi_def_cfa_offset 32
 7684 0004 00AF     		add	r7, sp, #0
 7685              	.LCFI202:
 7686              		.cfi_def_cfa_register 7
 7687 0006 F860     		str	r0, [r7, #12]
 7688 0008 B960     		str	r1, [r7, #8]
 7689 000a 7A60     		str	r2, [r7, #4]
2557:C:/Users/dtjld/workspace/AIoT/src/LiteOS_Lab/iot_link/network/dtls/mbedtls/mbedtls-2.16.2/library\rsa.c **** #if !defined(__OpenBSD__)
2558:C:/Users/dtjld/workspace/AIoT/src/LiteOS_Lab/iot_link/network/dtls/mbedtls/mbedtls-2.16.2/library\rsa.c ****     size_t i;
2559:C:/Users/dtjld/workspace/AIoT/src/LiteOS_Lab/iot_link/network/dtls/mbedtls/mbedtls-2.16.2/library\rsa.c **** 
2560:C:/Users/dtjld/workspace/AIoT/src/LiteOS_Lab/iot_link/network/dtls/mbedtls/mbedtls-2.16.2/library\rsa.c ****     if( rng_state != NULL )
 7690              		.loc 1 2560 0
 7691 000c FB68     		ldr	r3, [r7, #12]
 7692 000e 002B     		cmp	r3, #0
 7693 0010 01D0     		beq	.L587
2561:C:/Users/dtjld/workspace/AIoT/src/LiteOS_Lab/iot_link/network/dtls/mbedtls/mbedtls-2.16.2/library\rsa.c ****         rng_state  = NULL;
 7694              		.loc 1 2561 0
 7695 0012 0023     		movs	r3, #0
 7696 0014 FB60     		str	r3, [r7, #12]
 7697              	.L587:
2562:C:/Users/dtjld/workspace/AIoT/src/LiteOS_Lab/iot_link/network/dtls/mbedtls/mbedtls-2.16.2/library\rsa.c **** 
2563:C:/Users/dtjld/workspace/AIoT/src/LiteOS_Lab/iot_link/network/dtls/mbedtls/mbedtls-2.16.2/library\rsa.c ****     for( i = 0; i < len; ++i )
 7698              		.loc 1 2563 0
 7699 0016 0023     		movs	r3, #0
 7700 0018 7B61     		str	r3, [r7, #20]
 7701 001a 0AE0     		b	.L588
 7702              	.L589:
2564:C:/Users/dtjld/workspace/AIoT/src/LiteOS_Lab/iot_link/network/dtls/mbedtls/mbedtls-2.16.2/library\rsa.c ****         output[i] = rand();
 7703              		.loc 1 2564 0 discriminator 3
 7704 001c FFF7FEFF 		bl	rand
 7705 0020 0146     		mov	r1, r0
 7706 0022 BA68     		ldr	r2, [r7, #8]
 7707 0024 7B69     		ldr	r3, [r7, #20]
 7708 0026 1344     		add	r3, r3, r2
 7709 0028 CAB2     		uxtb	r2, r1
 7710 002a 1A70     		strb	r2, [r3]
2563:C:/Users/dtjld/workspace/AIoT/src/LiteOS_Lab/iot_link/network/dtls/mbedtls/mbedtls-2.16.2/library\rsa.c ****         output[i] = rand();
 7711              		.loc 1 2563 0 discriminator 3
 7712 002c 7B69     		ldr	r3, [r7, #20]
 7713 002e 0133     		adds	r3, r3, #1
ARM GAS  C:\Users\dtjld\AppData\Local\Temp\cck1fUMg.s 			page 183


 7714 0030 7B61     		str	r3, [r7, #20]
 7715              	.L588:
2563:C:/Users/dtjld/workspace/AIoT/src/LiteOS_Lab/iot_link/network/dtls/mbedtls/mbedtls-2.16.2/library\rsa.c ****         output[i] = rand();
 7716              		.loc 1 2563 0 is_stmt 0 discriminator 1
 7717 0032 7A69     		ldr	r2, [r7, #20]
 7718 0034 7B68     		ldr	r3, [r7, #4]
 7719 0036 9A42     		cmp	r2, r3
 7720 0038 F0D3     		bcc	.L589
2565:C:/Users/dtjld/workspace/AIoT/src/LiteOS_Lab/iot_link/network/dtls/mbedtls/mbedtls-2.16.2/library\rsa.c **** #else
2566:C:/Users/dtjld/workspace/AIoT/src/LiteOS_Lab/iot_link/network/dtls/mbedtls/mbedtls-2.16.2/library\rsa.c ****     if( rng_state != NULL )
2567:C:/Users/dtjld/workspace/AIoT/src/LiteOS_Lab/iot_link/network/dtls/mbedtls/mbedtls-2.16.2/library\rsa.c ****         rng_state = NULL;
2568:C:/Users/dtjld/workspace/AIoT/src/LiteOS_Lab/iot_link/network/dtls/mbedtls/mbedtls-2.16.2/library\rsa.c **** 
2569:C:/Users/dtjld/workspace/AIoT/src/LiteOS_Lab/iot_link/network/dtls/mbedtls/mbedtls-2.16.2/library\rsa.c ****     arc4random_buf( output, len );
2570:C:/Users/dtjld/workspace/AIoT/src/LiteOS_Lab/iot_link/network/dtls/mbedtls/mbedtls-2.16.2/library\rsa.c **** #endif /* !OpenBSD */
2571:C:/Users/dtjld/workspace/AIoT/src/LiteOS_Lab/iot_link/network/dtls/mbedtls/mbedtls-2.16.2/library\rsa.c **** 
2572:C:/Users/dtjld/workspace/AIoT/src/LiteOS_Lab/iot_link/network/dtls/mbedtls/mbedtls-2.16.2/library\rsa.c ****     return( 0 );
 7721              		.loc 1 2572 0 is_stmt 1
 7722 003a 0023     		movs	r3, #0
2573:C:/Users/dtjld/workspace/AIoT/src/LiteOS_Lab/iot_link/network/dtls/mbedtls/mbedtls-2.16.2/library\rsa.c **** }
 7723              		.loc 1 2573 0
 7724 003c 1846     		mov	r0, r3
 7725 003e 1837     		adds	r7, r7, #24
 7726              	.LCFI203:
 7727              		.cfi_def_cfa_offset 8
 7728 0040 BD46     		mov	sp, r7
 7729              	.LCFI204:
 7730              		.cfi_def_cfa_register 13
 7731              		@ sp needed
 7732 0042 80BD     		pop	{r7, pc}
 7733              		.cfi_endproc
 7734              	.LFE52:
 7736              		.section	.rodata
 7737              		.align	2
 7738              	.LC0:
 7739 0000 39323932 		.ascii	"9292758453063D803DD603D5E777D7888ED1D5BF35786190FA2"
 7739      37353834 
 7739      35333036 
 7739      33443830 
 7739      33444436 
 7740 0033 46323345 		.ascii	"F23EBC0848AEADDA92CA6C3D80B32C4D109BE0F36D6AE7130B9"
 7740      42433038 
 7740      34384145 
 7740      41444441 
 7740      39324341 
 7741 0066 43454437 		.ascii	"CED7ACDF54CFC7555AC14EEBAB93A89813FBF3C4F8066D2D800"
 7741      41434446 
 7741      35344346 
 7741      43373535 
 7741      35414331 
 7742 0099 46374333 		.ascii	"F7C38A81AE31942917403FF4946B0A83D3D3E05EE57C6F5F560"
 7742      38413831 
 7742      41453331 
 7742      39343239 
 7742      31373430 
 7743 00cc 36464235 		.ascii	"6FB5D4BC6CD34EE0801A5E94BB77B07507233A0BC7BAC8F90F7"
 7743      44344243 
 7743      36434433 
ARM GAS  C:\Users\dtjld\AppData\Local\Temp\cck1fUMg.s 			page 184


 7743      34454530 
 7743      38303141 
 7744 00ff 3900     		.ascii	"9\000"
 7745 0101 000000   		.align	2
 7746              	.LC1:
 7747 0104 43333644 		.ascii	"C36D0EB7FCD285223CFB5AABA5BDA3D82C01CAD19EA484A87EA"
 7747      30454237 
 7747      46434432 
 7747      38353232 
 7747      33434642 
 7748 0137 34333737 		.ascii	"4377637E75500FCB2005C5C7DD6EC4AC023CDA285D796C3D9E7"
 7748      36333745 
 7748      37353530 
 7748      30464342 
 7748      32303035 
 7749 016a 35453145 		.ascii	"5E1EFC42488BB4F1D13AC30A57\000"
 7749      46433432 
 7749      34383842 
 7749      42344631 
 7749      44313341 
 7750 0185 000000   		.align	2
 7751              	.LC2:
 7752 0188 43303030 		.ascii	"C000DF51A7C77AE8D7C7370C1FF55B69E211C2B9E5DB1ED0BF6"
 7752      44463531 
 7752      41374337 
 7752      37414538 
 7752      44374337 
 7753 01bb 31443044 		.ascii	"1D0D9899620F4910E4168387E3C30AA1E00C339A795088452DD"
 7753      39383939 
 7753      36323046 
 7753      34393130 
 7753      45343136 
 7754 01ee 39364139 		.ascii	"96A9A5EA5D9DCA68DA636032AF\000"
 7754      41354541 
 7754      35443944 
 7754      43413638 
 7754      44413633 
 7755 0209 000000   		.align	2
 7756              	.LC3:
 7757 020c 32344246 		.ascii	"24BF6185468786FDD303083D25E64EFC66CA472BC44D253102F"
 7757      36313835 
 7757      34363837 
 7757      38364644 
 7757      44333033 
 7758 023f 38423441 		.ascii	"8B4A9D3BFA75091386C0077937FE33FA3252D28855837AE1B48"
 7758      39443342 
 7758      46413735 
 7758      30393133 
 7758      38364330 
 7759 0272 34413841 		.ascii	"4A8A9A45F7EE8C0C634F99E8CDDF79C5CE07EE72C7F12314219"
 7759      39413435 
 7759      46374545 
 7759      38433043 
 7759      36333446 
 7760 02a5 38313634 		.ascii	"8164234CABB724CF78B8173B9F880FC86322407AF1FEDFDDE2B"
 7760      32333443 
 7760      41424237 
ARM GAS  C:\Users\dtjld\AppData\Local\Temp\cck1fUMg.s 			page 185


 7760      32344346 
 7760      37384238 
 7761 02d8 45423637 		.ascii	"EB674CA15F3E81A1521E071513A1E85B5DFA031F21ECAE91A34"
 7761      34434131 
 7761      35463345 
 7761      38314131 
 7761      35323145 
 7762 030b 4400     		.ascii	"D\000"
 7763 030d 000000   		.align	2
 7764              	.LC4:
 7765 0310 31303030 		.ascii	"10001\000"
 7765      3100
 7766 0316 0000     		.align	2
 7767              	.LC5:
 7768 0318 20205253 		.ascii	"  RSA key validation: \000"
 7768      41206B65 
 7768      79207661 
 7768      6C696461 
 7768      74696F6E 
 7769 032f 00       		.align	2
 7770              	.LC6:
 7771 0330 6661696C 		.ascii	"failed\012\000"
 7771      65640A00 
 7772              		.align	2
 7773              	.LC7:
 7774 0338 70617373 		.ascii	"passed\012  PKCS#1 encryption : \000"
 7774      65640A20 
 7774      20504B43 
 7774      53233120 
 7774      656E6372 
 7775 0356 0000     		.align	2
 7776              	.LC8:
 7777 0358 AABBCC03 		.ascii	"\252\273\314\003\002\001\000\377\377\377\377\377\021"
 7777      020100FF 
 7777      FFFFFFFF 
 7777      11
 7778 0365 22330A0B 		.ascii	"\"3\012\013\014\314\335\335\335\335\335\000"
 7778      0CCCDDDD 
 7778      DDDDDD00 
 7779 0371 000000   		.align	2
 7780              	.LC9:
 7781 0374 70617373 		.ascii	"passed\012  PKCS#1 decryption : \000"
 7781      65640A20 
 7781      20504B43 
 7781      53233120 
 7781      64656372 
 7782 0392 0000     		.align	2
 7783              	.LC10:
 7784 0394 70617373 		.ascii	"passed\012\000"
 7784      65640A00 
 7785              		.align	2
 7786              	.LC11:
 7787 039c 2020504B 		.ascii	"  PKCS#1 data sign  : \000"
 7787      43532331 
 7787      20646174 
 7787      61207369 
 7787      676E2020 
ARM GAS  C:\Users\dtjld\AppData\Local\Temp\cck1fUMg.s 			page 186


 7788 03b3 00       		.align	2
 7789              	.LC12:
 7790 03b4 70617373 		.ascii	"passed\012  PKCS#1 sig. verify: \000"
 7790      65640A20 
 7790      20504B43 
 7790      53233120 
 7790      7369672E 
 7791 03d2 0000     		.align	2
 7792              	.LC13:
 7793 03d4 0A00     		.ascii	"\012\000"
 7794              		.section	.text.mbedtls_rsa_self_test,"ax",%progbits
 7795              		.align	1
 7796              		.global	mbedtls_rsa_self_test
 7797              		.syntax unified
 7798              		.thumb
 7799              		.thumb_func
 7800              		.fpu fpv4-sp-d16
 7802              	mbedtls_rsa_self_test:
 7803              	.LFB53:
2574:C:/Users/dtjld/workspace/AIoT/src/LiteOS_Lab/iot_link/network/dtls/mbedtls/mbedtls-2.16.2/library\rsa.c **** #endif /* MBEDTLS_PKCS1_V15 */
2575:C:/Users/dtjld/workspace/AIoT/src/LiteOS_Lab/iot_link/network/dtls/mbedtls/mbedtls-2.16.2/library\rsa.c **** 
2576:C:/Users/dtjld/workspace/AIoT/src/LiteOS_Lab/iot_link/network/dtls/mbedtls/mbedtls-2.16.2/library\rsa.c **** /*
2577:C:/Users/dtjld/workspace/AIoT/src/LiteOS_Lab/iot_link/network/dtls/mbedtls/mbedtls-2.16.2/library\rsa.c ****  * Checkup routine
2578:C:/Users/dtjld/workspace/AIoT/src/LiteOS_Lab/iot_link/network/dtls/mbedtls/mbedtls-2.16.2/library\rsa.c ****  */
2579:C:/Users/dtjld/workspace/AIoT/src/LiteOS_Lab/iot_link/network/dtls/mbedtls/mbedtls-2.16.2/library\rsa.c **** int mbedtls_rsa_self_test( int verbose )
2580:C:/Users/dtjld/workspace/AIoT/src/LiteOS_Lab/iot_link/network/dtls/mbedtls/mbedtls-2.16.2/library\rsa.c **** {
 7804              		.loc 1 2580 0
 7805              		.cfi_startproc
 7806              		@ args = 0, pretend = 0, frame = 400
 7807              		@ frame_needed = 1, uses_anonymous_args = 0
 7808 0000 B0B5     		push	{r4, r5, r7, lr}
 7809              	.LCFI205:
 7810              		.cfi_def_cfa_offset 16
 7811              		.cfi_offset 4, -16
 7812              		.cfi_offset 5, -12
 7813              		.cfi_offset 7, -8
 7814              		.cfi_offset 14, -4
 7815 0002 E8B0     		sub	sp, sp, #416
 7816              	.LCFI206:
 7817              		.cfi_def_cfa_offset 432
 7818 0004 04AF     		add	r7, sp, #16
 7819              	.LCFI207:
 7820              		.cfi_def_cfa 7, 416
 7821 0006 3B1D     		adds	r3, r7, #4
 7822 0008 1860     		str	r0, [r3]
2581:C:/Users/dtjld/workspace/AIoT/src/LiteOS_Lab/iot_link/network/dtls/mbedtls/mbedtls-2.16.2/library\rsa.c ****     int ret = 0;
 7823              		.loc 1 2581 0
 7824 000a 0023     		movs	r3, #0
 7825 000c C7F88C31 		str	r3, [r7, #396]
2582:C:/Users/dtjld/workspace/AIoT/src/LiteOS_Lab/iot_link/network/dtls/mbedtls/mbedtls-2.16.2/library\rsa.c **** #if defined(MBEDTLS_PKCS1_V15)
2583:C:/Users/dtjld/workspace/AIoT/src/LiteOS_Lab/iot_link/network/dtls/mbedtls/mbedtls-2.16.2/library\rsa.c ****     size_t len;
2584:C:/Users/dtjld/workspace/AIoT/src/LiteOS_Lab/iot_link/network/dtls/mbedtls/mbedtls-2.16.2/library\rsa.c ****     mbedtls_rsa_context rsa;
2585:C:/Users/dtjld/workspace/AIoT/src/LiteOS_Lab/iot_link/network/dtls/mbedtls/mbedtls-2.16.2/library\rsa.c ****     unsigned char rsa_plaintext[PT_LEN];
2586:C:/Users/dtjld/workspace/AIoT/src/LiteOS_Lab/iot_link/network/dtls/mbedtls/mbedtls-2.16.2/library\rsa.c ****     unsigned char rsa_decrypted[PT_LEN];
2587:C:/Users/dtjld/workspace/AIoT/src/LiteOS_Lab/iot_link/network/dtls/mbedtls/mbedtls-2.16.2/library\rsa.c ****     unsigned char rsa_ciphertext[KEY_LEN];
2588:C:/Users/dtjld/workspace/AIoT/src/LiteOS_Lab/iot_link/network/dtls/mbedtls/mbedtls-2.16.2/library\rsa.c **** #if defined(MBEDTLS_SHA1_C)
2589:C:/Users/dtjld/workspace/AIoT/src/LiteOS_Lab/iot_link/network/dtls/mbedtls/mbedtls-2.16.2/library\rsa.c ****     unsigned char sha1sum[20];
ARM GAS  C:\Users\dtjld\AppData\Local\Temp\cck1fUMg.s 			page 187


2590:C:/Users/dtjld/workspace/AIoT/src/LiteOS_Lab/iot_link/network/dtls/mbedtls/mbedtls-2.16.2/library\rsa.c **** #endif
2591:C:/Users/dtjld/workspace/AIoT/src/LiteOS_Lab/iot_link/network/dtls/mbedtls/mbedtls-2.16.2/library\rsa.c **** 
2592:C:/Users/dtjld/workspace/AIoT/src/LiteOS_Lab/iot_link/network/dtls/mbedtls/mbedtls-2.16.2/library\rsa.c ****     mbedtls_mpi K;
2593:C:/Users/dtjld/workspace/AIoT/src/LiteOS_Lab/iot_link/network/dtls/mbedtls/mbedtls-2.16.2/library\rsa.c **** 
2594:C:/Users/dtjld/workspace/AIoT/src/LiteOS_Lab/iot_link/network/dtls/mbedtls/mbedtls-2.16.2/library\rsa.c ****     mbedtls_mpi_init( &K );
 7826              		.loc 1 2594 0
 7827 0010 07F10C03 		add	r3, r7, #12
 7828 0014 1846     		mov	r0, r3
 7829 0016 FFF7FEFF 		bl	mbedtls_mpi_init
2595:C:/Users/dtjld/workspace/AIoT/src/LiteOS_Lab/iot_link/network/dtls/mbedtls/mbedtls-2.16.2/library\rsa.c ****     mbedtls_rsa_init( &rsa, MBEDTLS_RSA_PKCS_V15, 0 );
 7830              		.loc 1 2595 0
 7831 001a 07F1DC03 		add	r3, r7, #220
 7832 001e 0022     		movs	r2, #0
 7833 0020 0021     		movs	r1, #0
 7834 0022 1846     		mov	r0, r3
 7835 0024 FFF7FEFF 		bl	mbedtls_rsa_init
2596:C:/Users/dtjld/workspace/AIoT/src/LiteOS_Lab/iot_link/network/dtls/mbedtls/mbedtls-2.16.2/library\rsa.c **** 
2597:C:/Users/dtjld/workspace/AIoT/src/LiteOS_Lab/iot_link/network/dtls/mbedtls/mbedtls-2.16.2/library\rsa.c ****     MBEDTLS_MPI_CHK( mbedtls_mpi_read_string( &K, 16, RSA_N  ) );
 7836              		.loc 1 2597 0
 7837 0028 07F10C03 		add	r3, r7, #12
 7838 002c C44A     		ldr	r2, .L640
 7839 002e 1021     		movs	r1, #16
 7840 0030 1846     		mov	r0, r3
 7841 0032 FFF7FEFF 		bl	mbedtls_mpi_read_string
 7842 0036 C7F88C01 		str	r0, [r7, #396]
 7843 003a D7F88C31 		ldr	r3, [r7, #396]
 7844 003e 002B     		cmp	r3, #0
 7845 0040 40F0D381 		bne	.L628
2598:C:/Users/dtjld/workspace/AIoT/src/LiteOS_Lab/iot_link/network/dtls/mbedtls/mbedtls-2.16.2/library\rsa.c ****     MBEDTLS_MPI_CHK( mbedtls_rsa_import( &rsa, &K, NULL, NULL, NULL, NULL ) );
 7846              		.loc 1 2598 0
 7847 0044 07F10C01 		add	r1, r7, #12
 7848 0048 07F1DC00 		add	r0, r7, #220
 7849 004c 0023     		movs	r3, #0
 7850 004e 0193     		str	r3, [sp, #4]
 7851 0050 0023     		movs	r3, #0
 7852 0052 0093     		str	r3, [sp]
 7853 0054 0023     		movs	r3, #0
 7854 0056 0022     		movs	r2, #0
 7855 0058 FFF7FEFF 		bl	mbedtls_rsa_import
 7856 005c C7F88C01 		str	r0, [r7, #396]
 7857 0060 D7F88C31 		ldr	r3, [r7, #396]
 7858 0064 002B     		cmp	r3, #0
 7859 0066 40F0C281 		bne	.L629
2599:C:/Users/dtjld/workspace/AIoT/src/LiteOS_Lab/iot_link/network/dtls/mbedtls/mbedtls-2.16.2/library\rsa.c ****     MBEDTLS_MPI_CHK( mbedtls_mpi_read_string( &K, 16, RSA_P  ) );
 7860              		.loc 1 2599 0
 7861 006a 07F10C03 		add	r3, r7, #12
 7862 006e B54A     		ldr	r2, .L640+4
 7863 0070 1021     		movs	r1, #16
 7864 0072 1846     		mov	r0, r3
 7865 0074 FFF7FEFF 		bl	mbedtls_mpi_read_string
 7866 0078 C7F88C01 		str	r0, [r7, #396]
 7867 007c D7F88C31 		ldr	r3, [r7, #396]
 7868 0080 002B     		cmp	r3, #0
 7869 0082 40F0B681 		bne	.L630
2600:C:/Users/dtjld/workspace/AIoT/src/LiteOS_Lab/iot_link/network/dtls/mbedtls/mbedtls-2.16.2/library\rsa.c ****     MBEDTLS_MPI_CHK( mbedtls_rsa_import( &rsa, NULL, &K, NULL, NULL, NULL ) );
 7870              		.loc 1 2600 0
 7871 0086 07F10C02 		add	r2, r7, #12
ARM GAS  C:\Users\dtjld\AppData\Local\Temp\cck1fUMg.s 			page 188


 7872 008a 07F1DC00 		add	r0, r7, #220
 7873 008e 0023     		movs	r3, #0
 7874 0090 0193     		str	r3, [sp, #4]
 7875 0092 0023     		movs	r3, #0
 7876 0094 0093     		str	r3, [sp]
 7877 0096 0023     		movs	r3, #0
 7878 0098 0021     		movs	r1, #0
 7879 009a FFF7FEFF 		bl	mbedtls_rsa_import
 7880 009e C7F88C01 		str	r0, [r7, #396]
 7881 00a2 D7F88C31 		ldr	r3, [r7, #396]
 7882 00a6 002B     		cmp	r3, #0
 7883 00a8 40F0A581 		bne	.L631
2601:C:/Users/dtjld/workspace/AIoT/src/LiteOS_Lab/iot_link/network/dtls/mbedtls/mbedtls-2.16.2/library\rsa.c ****     MBEDTLS_MPI_CHK( mbedtls_mpi_read_string( &K, 16, RSA_Q  ) );
 7884              		.loc 1 2601 0
 7885 00ac 07F10C03 		add	r3, r7, #12
 7886 00b0 A54A     		ldr	r2, .L640+8
 7887 00b2 1021     		movs	r1, #16
 7888 00b4 1846     		mov	r0, r3
 7889 00b6 FFF7FEFF 		bl	mbedtls_mpi_read_string
 7890 00ba C7F88C01 		str	r0, [r7, #396]
 7891 00be D7F88C31 		ldr	r3, [r7, #396]
 7892 00c2 002B     		cmp	r3, #0
 7893 00c4 40F09981 		bne	.L632
2602:C:/Users/dtjld/workspace/AIoT/src/LiteOS_Lab/iot_link/network/dtls/mbedtls/mbedtls-2.16.2/library\rsa.c ****     MBEDTLS_MPI_CHK( mbedtls_rsa_import( &rsa, NULL, NULL, &K, NULL, NULL ) );
 7894              		.loc 1 2602 0
 7895 00c8 07F10C02 		add	r2, r7, #12
 7896 00cc 07F1DC00 		add	r0, r7, #220
 7897 00d0 0023     		movs	r3, #0
 7898 00d2 0193     		str	r3, [sp, #4]
 7899 00d4 0023     		movs	r3, #0
 7900 00d6 0093     		str	r3, [sp]
 7901 00d8 1346     		mov	r3, r2
 7902 00da 0022     		movs	r2, #0
 7903 00dc 0021     		movs	r1, #0
 7904 00de FFF7FEFF 		bl	mbedtls_rsa_import
 7905 00e2 C7F88C01 		str	r0, [r7, #396]
 7906 00e6 D7F88C31 		ldr	r3, [r7, #396]
 7907 00ea 002B     		cmp	r3, #0
 7908 00ec 40F08781 		bne	.L633
2603:C:/Users/dtjld/workspace/AIoT/src/LiteOS_Lab/iot_link/network/dtls/mbedtls/mbedtls-2.16.2/library\rsa.c ****     MBEDTLS_MPI_CHK( mbedtls_mpi_read_string( &K, 16, RSA_D  ) );
 7909              		.loc 1 2603 0
 7910 00f0 07F10C03 		add	r3, r7, #12
 7911 00f4 954A     		ldr	r2, .L640+12
 7912 00f6 1021     		movs	r1, #16
 7913 00f8 1846     		mov	r0, r3
 7914 00fa FFF7FEFF 		bl	mbedtls_mpi_read_string
 7915 00fe C7F88C01 		str	r0, [r7, #396]
 7916 0102 D7F88C31 		ldr	r3, [r7, #396]
 7917 0106 002B     		cmp	r3, #0
 7918 0108 40F07B81 		bne	.L634
2604:C:/Users/dtjld/workspace/AIoT/src/LiteOS_Lab/iot_link/network/dtls/mbedtls/mbedtls-2.16.2/library\rsa.c ****     MBEDTLS_MPI_CHK( mbedtls_rsa_import( &rsa, NULL, NULL, NULL, &K, NULL ) );
 7919              		.loc 1 2604 0
 7920 010c 07F1DC00 		add	r0, r7, #220
 7921 0110 0023     		movs	r3, #0
 7922 0112 0193     		str	r3, [sp, #4]
 7923 0114 07F10C03 		add	r3, r7, #12
 7924 0118 0093     		str	r3, [sp]
ARM GAS  C:\Users\dtjld\AppData\Local\Temp\cck1fUMg.s 			page 189


 7925 011a 0023     		movs	r3, #0
 7926 011c 0022     		movs	r2, #0
 7927 011e 0021     		movs	r1, #0
 7928 0120 FFF7FEFF 		bl	mbedtls_rsa_import
 7929 0124 C7F88C01 		str	r0, [r7, #396]
 7930 0128 D7F88C31 		ldr	r3, [r7, #396]
 7931 012c 002B     		cmp	r3, #0
 7932 012e 40F06A81 		bne	.L635
2605:C:/Users/dtjld/workspace/AIoT/src/LiteOS_Lab/iot_link/network/dtls/mbedtls/mbedtls-2.16.2/library\rsa.c ****     MBEDTLS_MPI_CHK( mbedtls_mpi_read_string( &K, 16, RSA_E  ) );
 7933              		.loc 1 2605 0
 7934 0132 07F10C03 		add	r3, r7, #12
 7935 0136 864A     		ldr	r2, .L640+16
 7936 0138 1021     		movs	r1, #16
 7937 013a 1846     		mov	r0, r3
 7938 013c FFF7FEFF 		bl	mbedtls_mpi_read_string
 7939 0140 C7F88C01 		str	r0, [r7, #396]
 7940 0144 D7F88C31 		ldr	r3, [r7, #396]
 7941 0148 002B     		cmp	r3, #0
 7942 014a 40F05E81 		bne	.L636
2606:C:/Users/dtjld/workspace/AIoT/src/LiteOS_Lab/iot_link/network/dtls/mbedtls/mbedtls-2.16.2/library\rsa.c ****     MBEDTLS_MPI_CHK( mbedtls_rsa_import( &rsa, NULL, NULL, NULL, NULL, &K ) );
 7943              		.loc 1 2606 0
 7944 014e 07F1DC00 		add	r0, r7, #220
 7945 0152 07F10C03 		add	r3, r7, #12
 7946 0156 0193     		str	r3, [sp, #4]
 7947 0158 0023     		movs	r3, #0
 7948 015a 0093     		str	r3, [sp]
 7949 015c 0023     		movs	r3, #0
 7950 015e 0022     		movs	r2, #0
 7951 0160 0021     		movs	r1, #0
 7952 0162 FFF7FEFF 		bl	mbedtls_rsa_import
 7953 0166 C7F88C01 		str	r0, [r7, #396]
 7954 016a D7F88C31 		ldr	r3, [r7, #396]
 7955 016e 002B     		cmp	r3, #0
 7956 0170 40F04D81 		bne	.L637
2607:C:/Users/dtjld/workspace/AIoT/src/LiteOS_Lab/iot_link/network/dtls/mbedtls/mbedtls-2.16.2/library\rsa.c **** 
2608:C:/Users/dtjld/workspace/AIoT/src/LiteOS_Lab/iot_link/network/dtls/mbedtls/mbedtls-2.16.2/library\rsa.c ****     MBEDTLS_MPI_CHK( mbedtls_rsa_complete( &rsa ) );
 7957              		.loc 1 2608 0
 7958 0174 07F1DC03 		add	r3, r7, #220
 7959 0178 1846     		mov	r0, r3
 7960 017a FFF7FEFF 		bl	mbedtls_rsa_complete
 7961 017e C7F88C01 		str	r0, [r7, #396]
 7962 0182 D7F88C31 		ldr	r3, [r7, #396]
 7963 0186 002B     		cmp	r3, #0
 7964 0188 40F04381 		bne	.L638
2609:C:/Users/dtjld/workspace/AIoT/src/LiteOS_Lab/iot_link/network/dtls/mbedtls/mbedtls-2.16.2/library\rsa.c **** 
2610:C:/Users/dtjld/workspace/AIoT/src/LiteOS_Lab/iot_link/network/dtls/mbedtls/mbedtls-2.16.2/library\rsa.c ****     if( verbose != 0 )
 7965              		.loc 1 2610 0
 7966 018c 3B1D     		adds	r3, r7, #4
 7967 018e 1B68     		ldr	r3, [r3]
 7968 0190 002B     		cmp	r3, #0
 7969 0192 03D0     		beq	.L604
2611:C:/Users/dtjld/workspace/AIoT/src/LiteOS_Lab/iot_link/network/dtls/mbedtls/mbedtls-2.16.2/library\rsa.c ****         mbedtls_printf( "  RSA key validation: " );
 7970              		.loc 1 2611 0
 7971 0194 6F4B     		ldr	r3, .L640+20
 7972 0196 1B68     		ldr	r3, [r3]
 7973 0198 6F48     		ldr	r0, .L640+24
 7974 019a 9847     		blx	r3
ARM GAS  C:\Users\dtjld\AppData\Local\Temp\cck1fUMg.s 			page 190


 7975              	.LVL3:
 7976              	.L604:
2612:C:/Users/dtjld/workspace/AIoT/src/LiteOS_Lab/iot_link/network/dtls/mbedtls/mbedtls-2.16.2/library\rsa.c **** 
2613:C:/Users/dtjld/workspace/AIoT/src/LiteOS_Lab/iot_link/network/dtls/mbedtls/mbedtls-2.16.2/library\rsa.c ****     if( mbedtls_rsa_check_pubkey(  &rsa ) != 0 ||
 7977              		.loc 1 2613 0
 7978 019c 07F1DC03 		add	r3, r7, #220
 7979 01a0 1846     		mov	r0, r3
 7980 01a2 FFF7FEFF 		bl	mbedtls_rsa_check_pubkey
 7981 01a6 0346     		mov	r3, r0
 7982 01a8 002B     		cmp	r3, #0
 7983 01aa 07D1     		bne	.L605
2614:C:/Users/dtjld/workspace/AIoT/src/LiteOS_Lab/iot_link/network/dtls/mbedtls/mbedtls-2.16.2/library\rsa.c ****         mbedtls_rsa_check_privkey( &rsa ) != 0 )
 7984              		.loc 1 2614 0 discriminator 1
 7985 01ac 07F1DC03 		add	r3, r7, #220
 7986 01b0 1846     		mov	r0, r3
 7987 01b2 FFF7FEFF 		bl	mbedtls_rsa_check_privkey
 7988 01b6 0346     		mov	r3, r0
2613:C:/Users/dtjld/workspace/AIoT/src/LiteOS_Lab/iot_link/network/dtls/mbedtls/mbedtls-2.16.2/library\rsa.c ****         mbedtls_rsa_check_privkey( &rsa ) != 0 )
 7989              		.loc 1 2613 0 discriminator 1
 7990 01b8 002B     		cmp	r3, #0
 7991 01ba 0BD0     		beq	.L606
 7992              	.L605:
2615:C:/Users/dtjld/workspace/AIoT/src/LiteOS_Lab/iot_link/network/dtls/mbedtls/mbedtls-2.16.2/library\rsa.c ****     {
2616:C:/Users/dtjld/workspace/AIoT/src/LiteOS_Lab/iot_link/network/dtls/mbedtls/mbedtls-2.16.2/library\rsa.c ****         if( verbose != 0 )
 7993              		.loc 1 2616 0
 7994 01bc 3B1D     		adds	r3, r7, #4
 7995 01be 1B68     		ldr	r3, [r3]
 7996 01c0 002B     		cmp	r3, #0
 7997 01c2 03D0     		beq	.L607
2617:C:/Users/dtjld/workspace/AIoT/src/LiteOS_Lab/iot_link/network/dtls/mbedtls/mbedtls-2.16.2/library\rsa.c ****             mbedtls_printf( "failed\n" );
 7998              		.loc 1 2617 0
 7999 01c4 634B     		ldr	r3, .L640+20
 8000 01c6 1B68     		ldr	r3, [r3]
 8001 01c8 6448     		ldr	r0, .L640+28
 8002 01ca 9847     		blx	r3
 8003              	.LVL4:
 8004              	.L607:
2618:C:/Users/dtjld/workspace/AIoT/src/LiteOS_Lab/iot_link/network/dtls/mbedtls/mbedtls-2.16.2/library\rsa.c **** 
2619:C:/Users/dtjld/workspace/AIoT/src/LiteOS_Lab/iot_link/network/dtls/mbedtls/mbedtls-2.16.2/library\rsa.c ****         ret = 1;
 8005              		.loc 1 2619 0
 8006 01cc 0123     		movs	r3, #1
 8007 01ce C7F88C31 		str	r3, [r7, #396]
2620:C:/Users/dtjld/workspace/AIoT/src/LiteOS_Lab/iot_link/network/dtls/mbedtls/mbedtls-2.16.2/library\rsa.c ****         goto cleanup;
 8008              		.loc 1 2620 0
 8009 01d2 21E1     		b	.L593
 8010              	.L606:
2621:C:/Users/dtjld/workspace/AIoT/src/LiteOS_Lab/iot_link/network/dtls/mbedtls/mbedtls-2.16.2/library\rsa.c ****     }
2622:C:/Users/dtjld/workspace/AIoT/src/LiteOS_Lab/iot_link/network/dtls/mbedtls/mbedtls-2.16.2/library\rsa.c **** 
2623:C:/Users/dtjld/workspace/AIoT/src/LiteOS_Lab/iot_link/network/dtls/mbedtls/mbedtls-2.16.2/library\rsa.c ****     if( verbose != 0 )
 8011              		.loc 1 2623 0
 8012 01d4 3B1D     		adds	r3, r7, #4
 8013 01d6 1B68     		ldr	r3, [r3]
 8014 01d8 002B     		cmp	r3, #0
 8015 01da 03D0     		beq	.L608
2624:C:/Users/dtjld/workspace/AIoT/src/LiteOS_Lab/iot_link/network/dtls/mbedtls/mbedtls-2.16.2/library\rsa.c ****         mbedtls_printf( "passed\n  PKCS#1 encryption : " );
 8016              		.loc 1 2624 0
 8017 01dc 5D4B     		ldr	r3, .L640+20
ARM GAS  C:\Users\dtjld\AppData\Local\Temp\cck1fUMg.s 			page 191


 8018 01de 1B68     		ldr	r3, [r3]
 8019 01e0 5F48     		ldr	r0, .L640+32
 8020 01e2 9847     		blx	r3
 8021              	.LVL5:
 8022              	.L608:
2625:C:/Users/dtjld/workspace/AIoT/src/LiteOS_Lab/iot_link/network/dtls/mbedtls/mbedtls-2.16.2/library\rsa.c **** 
2626:C:/Users/dtjld/workspace/AIoT/src/LiteOS_Lab/iot_link/network/dtls/mbedtls/mbedtls-2.16.2/library\rsa.c ****     memcpy( rsa_plaintext, RSA_PT, PT_LEN );
 8023              		.loc 1 2626 0
 8024 01e4 5F4B     		ldr	r3, .L640+36
 8025 01e6 07F1C404 		add	r4, r7, #196
 8026 01ea 1D46     		mov	r5, r3
 8027 01ec 0FCD     		ldmia	r5!, {r0, r1, r2, r3}
 8028 01ee 0FC4     		stmia	r4!, {r0, r1, r2, r3}
 8029 01f0 95E80300 		ldm	r5, {r0, r1}
 8030 01f4 84E80300 		stm	r4, {r0, r1}
2627:C:/Users/dtjld/workspace/AIoT/src/LiteOS_Lab/iot_link/network/dtls/mbedtls/mbedtls-2.16.2/library\rsa.c **** 
2628:C:/Users/dtjld/workspace/AIoT/src/LiteOS_Lab/iot_link/network/dtls/mbedtls/mbedtls-2.16.2/library\rsa.c ****     if( mbedtls_rsa_pkcs1_encrypt( &rsa, myrand, NULL, MBEDTLS_RSA_PUBLIC,
 8031              		.loc 1 2628 0
 8032 01f8 07F1DC00 		add	r0, r7, #220
 8033 01fc 07F12C03 		add	r3, r7, #44
 8034 0200 0293     		str	r3, [sp, #8]
 8035 0202 07F1C403 		add	r3, r7, #196
 8036 0206 0193     		str	r3, [sp, #4]
 8037 0208 1823     		movs	r3, #24
 8038 020a 0093     		str	r3, [sp]
 8039 020c 0023     		movs	r3, #0
 8040 020e 0022     		movs	r2, #0
 8041 0210 5549     		ldr	r1, .L640+40
 8042 0212 FFF7FEFF 		bl	mbedtls_rsa_pkcs1_encrypt
 8043 0216 0346     		mov	r3, r0
 8044 0218 002B     		cmp	r3, #0
 8045 021a 0BD0     		beq	.L609
2629:C:/Users/dtjld/workspace/AIoT/src/LiteOS_Lab/iot_link/network/dtls/mbedtls/mbedtls-2.16.2/library\rsa.c ****                                    PT_LEN, rsa_plaintext,
2630:C:/Users/dtjld/workspace/AIoT/src/LiteOS_Lab/iot_link/network/dtls/mbedtls/mbedtls-2.16.2/library\rsa.c ****                                    rsa_ciphertext ) != 0 )
2631:C:/Users/dtjld/workspace/AIoT/src/LiteOS_Lab/iot_link/network/dtls/mbedtls/mbedtls-2.16.2/library\rsa.c ****     {
2632:C:/Users/dtjld/workspace/AIoT/src/LiteOS_Lab/iot_link/network/dtls/mbedtls/mbedtls-2.16.2/library\rsa.c ****         if( verbose != 0 )
 8046              		.loc 1 2632 0
 8047 021c 3B1D     		adds	r3, r7, #4
 8048 021e 1B68     		ldr	r3, [r3]
 8049 0220 002B     		cmp	r3, #0
 8050 0222 03D0     		beq	.L610
2633:C:/Users/dtjld/workspace/AIoT/src/LiteOS_Lab/iot_link/network/dtls/mbedtls/mbedtls-2.16.2/library\rsa.c ****             mbedtls_printf( "failed\n" );
 8051              		.loc 1 2633 0
 8052 0224 4B4B     		ldr	r3, .L640+20
 8053 0226 1B68     		ldr	r3, [r3]
 8054 0228 4C48     		ldr	r0, .L640+28
 8055 022a 9847     		blx	r3
 8056              	.LVL6:
 8057              	.L610:
2634:C:/Users/dtjld/workspace/AIoT/src/LiteOS_Lab/iot_link/network/dtls/mbedtls/mbedtls-2.16.2/library\rsa.c **** 
2635:C:/Users/dtjld/workspace/AIoT/src/LiteOS_Lab/iot_link/network/dtls/mbedtls/mbedtls-2.16.2/library\rsa.c ****         ret = 1;
 8058              		.loc 1 2635 0
 8059 022c 0123     		movs	r3, #1
 8060 022e C7F88C31 		str	r3, [r7, #396]
2636:C:/Users/dtjld/workspace/AIoT/src/LiteOS_Lab/iot_link/network/dtls/mbedtls/mbedtls-2.16.2/library\rsa.c ****         goto cleanup;
 8061              		.loc 1 2636 0
 8062 0232 F1E0     		b	.L593
ARM GAS  C:\Users\dtjld\AppData\Local\Temp\cck1fUMg.s 			page 192


 8063              	.L609:
2637:C:/Users/dtjld/workspace/AIoT/src/LiteOS_Lab/iot_link/network/dtls/mbedtls/mbedtls-2.16.2/library\rsa.c ****     }
2638:C:/Users/dtjld/workspace/AIoT/src/LiteOS_Lab/iot_link/network/dtls/mbedtls/mbedtls-2.16.2/library\rsa.c **** 
2639:C:/Users/dtjld/workspace/AIoT/src/LiteOS_Lab/iot_link/network/dtls/mbedtls/mbedtls-2.16.2/library\rsa.c ****     if( verbose != 0 )
 8064              		.loc 1 2639 0
 8065 0234 3B1D     		adds	r3, r7, #4
 8066 0236 1B68     		ldr	r3, [r3]
 8067 0238 002B     		cmp	r3, #0
 8068 023a 03D0     		beq	.L611
2640:C:/Users/dtjld/workspace/AIoT/src/LiteOS_Lab/iot_link/network/dtls/mbedtls/mbedtls-2.16.2/library\rsa.c ****         mbedtls_printf( "passed\n  PKCS#1 decryption : " );
 8069              		.loc 1 2640 0
 8070 023c 454B     		ldr	r3, .L640+20
 8071 023e 1B68     		ldr	r3, [r3]
 8072 0240 4A48     		ldr	r0, .L640+44
 8073 0242 9847     		blx	r3
 8074              	.LVL7:
 8075              	.L611:
2641:C:/Users/dtjld/workspace/AIoT/src/LiteOS_Lab/iot_link/network/dtls/mbedtls/mbedtls-2.16.2/library\rsa.c **** 
2642:C:/Users/dtjld/workspace/AIoT/src/LiteOS_Lab/iot_link/network/dtls/mbedtls/mbedtls-2.16.2/library\rsa.c ****     if( mbedtls_rsa_pkcs1_decrypt( &rsa, myrand, NULL, MBEDTLS_RSA_PRIVATE,
 8076              		.loc 1 2642 0
 8077 0244 07F1DC00 		add	r0, r7, #220
 8078 0248 1823     		movs	r3, #24
 8079 024a 0393     		str	r3, [sp, #12]
 8080 024c 07F1AC03 		add	r3, r7, #172
 8081 0250 0293     		str	r3, [sp, #8]
 8082 0252 07F12C03 		add	r3, r7, #44
 8083 0256 0193     		str	r3, [sp, #4]
 8084 0258 07F5C473 		add	r3, r7, #392
 8085 025c 0093     		str	r3, [sp]
 8086 025e 0123     		movs	r3, #1
 8087 0260 0022     		movs	r2, #0
 8088 0262 4149     		ldr	r1, .L640+40
 8089 0264 FFF7FEFF 		bl	mbedtls_rsa_pkcs1_decrypt
 8090 0268 0346     		mov	r3, r0
 8091 026a 002B     		cmp	r3, #0
 8092 026c 0BD0     		beq	.L612
2643:C:/Users/dtjld/workspace/AIoT/src/LiteOS_Lab/iot_link/network/dtls/mbedtls/mbedtls-2.16.2/library\rsa.c ****                                    &len, rsa_ciphertext, rsa_decrypted,
2644:C:/Users/dtjld/workspace/AIoT/src/LiteOS_Lab/iot_link/network/dtls/mbedtls/mbedtls-2.16.2/library\rsa.c ****                                    sizeof(rsa_decrypted) ) != 0 )
2645:C:/Users/dtjld/workspace/AIoT/src/LiteOS_Lab/iot_link/network/dtls/mbedtls/mbedtls-2.16.2/library\rsa.c ****     {
2646:C:/Users/dtjld/workspace/AIoT/src/LiteOS_Lab/iot_link/network/dtls/mbedtls/mbedtls-2.16.2/library\rsa.c ****         if( verbose != 0 )
 8093              		.loc 1 2646 0
 8094 026e 3B1D     		adds	r3, r7, #4
 8095 0270 1B68     		ldr	r3, [r3]
 8096 0272 002B     		cmp	r3, #0
 8097 0274 03D0     		beq	.L613
2647:C:/Users/dtjld/workspace/AIoT/src/LiteOS_Lab/iot_link/network/dtls/mbedtls/mbedtls-2.16.2/library\rsa.c ****             mbedtls_printf( "failed\n" );
 8098              		.loc 1 2647 0
 8099 0276 374B     		ldr	r3, .L640+20
 8100 0278 1B68     		ldr	r3, [r3]
 8101 027a 3848     		ldr	r0, .L640+28
 8102 027c 9847     		blx	r3
 8103              	.LVL8:
 8104              	.L613:
2648:C:/Users/dtjld/workspace/AIoT/src/LiteOS_Lab/iot_link/network/dtls/mbedtls/mbedtls-2.16.2/library\rsa.c **** 
2649:C:/Users/dtjld/workspace/AIoT/src/LiteOS_Lab/iot_link/network/dtls/mbedtls/mbedtls-2.16.2/library\rsa.c ****         ret = 1;
 8105              		.loc 1 2649 0
 8106 027e 0123     		movs	r3, #1
ARM GAS  C:\Users\dtjld\AppData\Local\Temp\cck1fUMg.s 			page 193


 8107 0280 C7F88C31 		str	r3, [r7, #396]
2650:C:/Users/dtjld/workspace/AIoT/src/LiteOS_Lab/iot_link/network/dtls/mbedtls/mbedtls-2.16.2/library\rsa.c ****         goto cleanup;
 8108              		.loc 1 2650 0
 8109 0284 C8E0     		b	.L593
 8110              	.L612:
2651:C:/Users/dtjld/workspace/AIoT/src/LiteOS_Lab/iot_link/network/dtls/mbedtls/mbedtls-2.16.2/library\rsa.c ****     }
2652:C:/Users/dtjld/workspace/AIoT/src/LiteOS_Lab/iot_link/network/dtls/mbedtls/mbedtls-2.16.2/library\rsa.c **** 
2653:C:/Users/dtjld/workspace/AIoT/src/LiteOS_Lab/iot_link/network/dtls/mbedtls/mbedtls-2.16.2/library\rsa.c ****     if( memcmp( rsa_decrypted, rsa_plaintext, len ) != 0 )
 8111              		.loc 1 2653 0
 8112 0286 D7F88821 		ldr	r2, [r7, #392]
 8113 028a 07F1C401 		add	r1, r7, #196
 8114 028e 07F1AC03 		add	r3, r7, #172
 8115 0292 1846     		mov	r0, r3
 8116 0294 FFF7FEFF 		bl	memcmp
 8117 0298 0346     		mov	r3, r0
 8118 029a 002B     		cmp	r3, #0
 8119 029c 0BD0     		beq	.L614
2654:C:/Users/dtjld/workspace/AIoT/src/LiteOS_Lab/iot_link/network/dtls/mbedtls/mbedtls-2.16.2/library\rsa.c ****     {
2655:C:/Users/dtjld/workspace/AIoT/src/LiteOS_Lab/iot_link/network/dtls/mbedtls/mbedtls-2.16.2/library\rsa.c ****         if( verbose != 0 )
 8120              		.loc 1 2655 0
 8121 029e 3B1D     		adds	r3, r7, #4
 8122 02a0 1B68     		ldr	r3, [r3]
 8123 02a2 002B     		cmp	r3, #0
 8124 02a4 03D0     		beq	.L615
2656:C:/Users/dtjld/workspace/AIoT/src/LiteOS_Lab/iot_link/network/dtls/mbedtls/mbedtls-2.16.2/library\rsa.c ****             mbedtls_printf( "failed\n" );
 8125              		.loc 1 2656 0
 8126 02a6 2B4B     		ldr	r3, .L640+20
 8127 02a8 1B68     		ldr	r3, [r3]
 8128 02aa 2C48     		ldr	r0, .L640+28
 8129 02ac 9847     		blx	r3
 8130              	.LVL9:
 8131              	.L615:
2657:C:/Users/dtjld/workspace/AIoT/src/LiteOS_Lab/iot_link/network/dtls/mbedtls/mbedtls-2.16.2/library\rsa.c **** 
2658:C:/Users/dtjld/workspace/AIoT/src/LiteOS_Lab/iot_link/network/dtls/mbedtls/mbedtls-2.16.2/library\rsa.c ****         ret = 1;
 8132              		.loc 1 2658 0
 8133 02ae 0123     		movs	r3, #1
 8134 02b0 C7F88C31 		str	r3, [r7, #396]
2659:C:/Users/dtjld/workspace/AIoT/src/LiteOS_Lab/iot_link/network/dtls/mbedtls/mbedtls-2.16.2/library\rsa.c ****         goto cleanup;
 8135              		.loc 1 2659 0
 8136 02b4 B0E0     		b	.L593
 8137              	.L614:
2660:C:/Users/dtjld/workspace/AIoT/src/LiteOS_Lab/iot_link/network/dtls/mbedtls/mbedtls-2.16.2/library\rsa.c ****     }
2661:C:/Users/dtjld/workspace/AIoT/src/LiteOS_Lab/iot_link/network/dtls/mbedtls/mbedtls-2.16.2/library\rsa.c **** 
2662:C:/Users/dtjld/workspace/AIoT/src/LiteOS_Lab/iot_link/network/dtls/mbedtls/mbedtls-2.16.2/library\rsa.c ****     if( verbose != 0 )
 8138              		.loc 1 2662 0
 8139 02b6 3B1D     		adds	r3, r7, #4
 8140 02b8 1B68     		ldr	r3, [r3]
 8141 02ba 002B     		cmp	r3, #0
 8142 02bc 03D0     		beq	.L616
2663:C:/Users/dtjld/workspace/AIoT/src/LiteOS_Lab/iot_link/network/dtls/mbedtls/mbedtls-2.16.2/library\rsa.c ****         mbedtls_printf( "passed\n" );
 8143              		.loc 1 2663 0
 8144 02be 254B     		ldr	r3, .L640+20
 8145 02c0 1B68     		ldr	r3, [r3]
 8146 02c2 2B48     		ldr	r0, .L640+48
 8147 02c4 9847     		blx	r3
 8148              	.LVL10:
 8149              	.L616:
ARM GAS  C:\Users\dtjld\AppData\Local\Temp\cck1fUMg.s 			page 194


2664:C:/Users/dtjld/workspace/AIoT/src/LiteOS_Lab/iot_link/network/dtls/mbedtls/mbedtls-2.16.2/library\rsa.c **** 
2665:C:/Users/dtjld/workspace/AIoT/src/LiteOS_Lab/iot_link/network/dtls/mbedtls/mbedtls-2.16.2/library\rsa.c **** #if defined(MBEDTLS_SHA1_C)
2666:C:/Users/dtjld/workspace/AIoT/src/LiteOS_Lab/iot_link/network/dtls/mbedtls/mbedtls-2.16.2/library\rsa.c ****     if( verbose != 0 )
 8150              		.loc 1 2666 0
 8151 02c6 3B1D     		adds	r3, r7, #4
 8152 02c8 1B68     		ldr	r3, [r3]
 8153 02ca 002B     		cmp	r3, #0
 8154 02cc 03D0     		beq	.L617
2667:C:/Users/dtjld/workspace/AIoT/src/LiteOS_Lab/iot_link/network/dtls/mbedtls/mbedtls-2.16.2/library\rsa.c ****         mbedtls_printf( "  PKCS#1 data sign  : " );
 8155              		.loc 1 2667 0
 8156 02ce 214B     		ldr	r3, .L640+20
 8157 02d0 1B68     		ldr	r3, [r3]
 8158 02d2 2848     		ldr	r0, .L640+52
 8159 02d4 9847     		blx	r3
 8160              	.LVL11:
 8161              	.L617:
2668:C:/Users/dtjld/workspace/AIoT/src/LiteOS_Lab/iot_link/network/dtls/mbedtls/mbedtls-2.16.2/library\rsa.c **** 
2669:C:/Users/dtjld/workspace/AIoT/src/LiteOS_Lab/iot_link/network/dtls/mbedtls/mbedtls-2.16.2/library\rsa.c ****     if( mbedtls_sha1_ret( rsa_plaintext, PT_LEN, sha1sum ) != 0 )
 8162              		.loc 1 2669 0
 8163 02d6 07F11802 		add	r2, r7, #24
 8164 02da 07F1C403 		add	r3, r7, #196
 8165 02de 1821     		movs	r1, #24
 8166 02e0 1846     		mov	r0, r3
 8167 02e2 FFF7FEFF 		bl	mbedtls_sha1_ret
 8168 02e6 0346     		mov	r3, r0
 8169 02e8 002B     		cmp	r3, #0
 8170 02ea 09D0     		beq	.L618
2670:C:/Users/dtjld/workspace/AIoT/src/LiteOS_Lab/iot_link/network/dtls/mbedtls/mbedtls-2.16.2/library\rsa.c ****     {
2671:C:/Users/dtjld/workspace/AIoT/src/LiteOS_Lab/iot_link/network/dtls/mbedtls/mbedtls-2.16.2/library\rsa.c ****         if( verbose != 0 )
 8171              		.loc 1 2671 0
 8172 02ec 3B1D     		adds	r3, r7, #4
 8173 02ee 1B68     		ldr	r3, [r3]
 8174 02f0 002B     		cmp	r3, #0
 8175 02f2 03D0     		beq	.L619
2672:C:/Users/dtjld/workspace/AIoT/src/LiteOS_Lab/iot_link/network/dtls/mbedtls/mbedtls-2.16.2/library\rsa.c ****             mbedtls_printf( "failed\n" );
 8176              		.loc 1 2672 0
 8177 02f4 174B     		ldr	r3, .L640+20
 8178 02f6 1B68     		ldr	r3, [r3]
 8179 02f8 1848     		ldr	r0, .L640+28
 8180 02fa 9847     		blx	r3
 8181              	.LVL12:
 8182              	.L619:
2673:C:/Users/dtjld/workspace/AIoT/src/LiteOS_Lab/iot_link/network/dtls/mbedtls/mbedtls-2.16.2/library\rsa.c **** 
2674:C:/Users/dtjld/workspace/AIoT/src/LiteOS_Lab/iot_link/network/dtls/mbedtls/mbedtls-2.16.2/library\rsa.c ****         return( 1 );
 8183              		.loc 1 2674 0
 8184 02fc 0123     		movs	r3, #1
 8185 02fe 97E0     		b	.L627
 8186              	.L618:
2675:C:/Users/dtjld/workspace/AIoT/src/LiteOS_Lab/iot_link/network/dtls/mbedtls/mbedtls-2.16.2/library\rsa.c ****     }
2676:C:/Users/dtjld/workspace/AIoT/src/LiteOS_Lab/iot_link/network/dtls/mbedtls/mbedtls-2.16.2/library\rsa.c **** 
2677:C:/Users/dtjld/workspace/AIoT/src/LiteOS_Lab/iot_link/network/dtls/mbedtls/mbedtls-2.16.2/library\rsa.c ****     if( mbedtls_rsa_pkcs1_sign( &rsa, myrand, NULL,
 8187              		.loc 1 2677 0
 8188 0300 07F1DC00 		add	r0, r7, #220
 8189 0304 07F12C03 		add	r3, r7, #44
 8190 0308 0393     		str	r3, [sp, #12]
 8191 030a 07F11803 		add	r3, r7, #24
 8192 030e 0293     		str	r3, [sp, #8]
ARM GAS  C:\Users\dtjld\AppData\Local\Temp\cck1fUMg.s 			page 195


 8193 0310 0023     		movs	r3, #0
 8194 0312 0193     		str	r3, [sp, #4]
 8195 0314 0423     		movs	r3, #4
 8196 0316 0093     		str	r3, [sp]
 8197 0318 0123     		movs	r3, #1
 8198 031a 0022     		movs	r2, #0
 8199 031c 1249     		ldr	r1, .L640+40
 8200 031e FFF7FEFF 		bl	mbedtls_rsa_pkcs1_sign
 8201 0322 0346     		mov	r3, r0
 8202 0324 002B     		cmp	r3, #0
 8203 0326 27D0     		beq	.L621
2678:C:/Users/dtjld/workspace/AIoT/src/LiteOS_Lab/iot_link/network/dtls/mbedtls/mbedtls-2.16.2/library\rsa.c ****                                 MBEDTLS_RSA_PRIVATE, MBEDTLS_MD_SHA1, 0,
2679:C:/Users/dtjld/workspace/AIoT/src/LiteOS_Lab/iot_link/network/dtls/mbedtls/mbedtls-2.16.2/library\rsa.c ****                                 sha1sum, rsa_ciphertext ) != 0 )
2680:C:/Users/dtjld/workspace/AIoT/src/LiteOS_Lab/iot_link/network/dtls/mbedtls/mbedtls-2.16.2/library\rsa.c ****     {
2681:C:/Users/dtjld/workspace/AIoT/src/LiteOS_Lab/iot_link/network/dtls/mbedtls/mbedtls-2.16.2/library\rsa.c ****         if( verbose != 0 )
 8204              		.loc 1 2681 0
 8205 0328 3B1D     		adds	r3, r7, #4
 8206 032a 1B68     		ldr	r3, [r3]
 8207 032c 002B     		cmp	r3, #0
 8208 032e 03D0     		beq	.L622
2682:C:/Users/dtjld/workspace/AIoT/src/LiteOS_Lab/iot_link/network/dtls/mbedtls/mbedtls-2.16.2/library\rsa.c ****             mbedtls_printf( "failed\n" );
 8209              		.loc 1 2682 0
 8210 0330 084B     		ldr	r3, .L640+20
 8211 0332 1B68     		ldr	r3, [r3]
 8212 0334 0948     		ldr	r0, .L640+28
 8213 0336 9847     		blx	r3
 8214              	.LVL13:
 8215              	.L622:
2683:C:/Users/dtjld/workspace/AIoT/src/LiteOS_Lab/iot_link/network/dtls/mbedtls/mbedtls-2.16.2/library\rsa.c **** 
2684:C:/Users/dtjld/workspace/AIoT/src/LiteOS_Lab/iot_link/network/dtls/mbedtls/mbedtls-2.16.2/library\rsa.c ****         ret = 1;
 8216              		.loc 1 2684 0
 8217 0338 0123     		movs	r3, #1
 8218 033a C7F88C31 		str	r3, [r7, #396]
2685:C:/Users/dtjld/workspace/AIoT/src/LiteOS_Lab/iot_link/network/dtls/mbedtls/mbedtls-2.16.2/library\rsa.c ****         goto cleanup;
 8219              		.loc 1 2685 0
 8220 033e 6BE0     		b	.L593
 8221              	.L641:
 8222              		.align	2
 8223              	.L640:
 8224 0340 00000000 		.word	.LC0
 8225 0344 04010000 		.word	.LC1
 8226 0348 88010000 		.word	.LC2
 8227 034c 0C020000 		.word	.LC3
 8228 0350 10030000 		.word	.LC4
 8229 0354 00000000 		.word	mbedtls_printf
 8230 0358 18030000 		.word	.LC5
 8231 035c 30030000 		.word	.LC6
 8232 0360 38030000 		.word	.LC7
 8233 0364 58030000 		.word	.LC8
 8234 0368 00000000 		.word	myrand
 8235 036c 74030000 		.word	.LC9
 8236 0370 94030000 		.word	.LC10
 8237 0374 9C030000 		.word	.LC11
 8238              	.L621:
2686:C:/Users/dtjld/workspace/AIoT/src/LiteOS_Lab/iot_link/network/dtls/mbedtls/mbedtls-2.16.2/library\rsa.c ****     }
2687:C:/Users/dtjld/workspace/AIoT/src/LiteOS_Lab/iot_link/network/dtls/mbedtls/mbedtls-2.16.2/library\rsa.c **** 
2688:C:/Users/dtjld/workspace/AIoT/src/LiteOS_Lab/iot_link/network/dtls/mbedtls/mbedtls-2.16.2/library\rsa.c ****     if( verbose != 0 )
ARM GAS  C:\Users\dtjld\AppData\Local\Temp\cck1fUMg.s 			page 196


 8239              		.loc 1 2688 0
 8240 0378 3B1D     		adds	r3, r7, #4
 8241 037a 1B68     		ldr	r3, [r3]
 8242 037c 002B     		cmp	r3, #0
 8243 037e 03D0     		beq	.L623
2689:C:/Users/dtjld/workspace/AIoT/src/LiteOS_Lab/iot_link/network/dtls/mbedtls/mbedtls-2.16.2/library\rsa.c ****         mbedtls_printf( "passed\n  PKCS#1 sig. verify: " );
 8244              		.loc 1 2689 0
 8245 0380 2E4B     		ldr	r3, .L642
 8246 0382 1B68     		ldr	r3, [r3]
 8247 0384 2E48     		ldr	r0, .L642+4
 8248 0386 9847     		blx	r3
 8249              	.LVL14:
 8250              	.L623:
2690:C:/Users/dtjld/workspace/AIoT/src/LiteOS_Lab/iot_link/network/dtls/mbedtls/mbedtls-2.16.2/library\rsa.c **** 
2691:C:/Users/dtjld/workspace/AIoT/src/LiteOS_Lab/iot_link/network/dtls/mbedtls/mbedtls-2.16.2/library\rsa.c ****     if( mbedtls_rsa_pkcs1_verify( &rsa, NULL, NULL,
 8251              		.loc 1 2691 0
 8252 0388 07F1DC00 		add	r0, r7, #220
 8253 038c 07F12C03 		add	r3, r7, #44
 8254 0390 0393     		str	r3, [sp, #12]
 8255 0392 07F11803 		add	r3, r7, #24
 8256 0396 0293     		str	r3, [sp, #8]
 8257 0398 0023     		movs	r3, #0
 8258 039a 0193     		str	r3, [sp, #4]
 8259 039c 0423     		movs	r3, #4
 8260 039e 0093     		str	r3, [sp]
 8261 03a0 0023     		movs	r3, #0
 8262 03a2 0022     		movs	r2, #0
 8263 03a4 0021     		movs	r1, #0
 8264 03a6 FFF7FEFF 		bl	mbedtls_rsa_pkcs1_verify
 8265 03aa 0346     		mov	r3, r0
 8266 03ac 002B     		cmp	r3, #0
 8267 03ae 0BD0     		beq	.L624
2692:C:/Users/dtjld/workspace/AIoT/src/LiteOS_Lab/iot_link/network/dtls/mbedtls/mbedtls-2.16.2/library\rsa.c ****                                   MBEDTLS_RSA_PUBLIC, MBEDTLS_MD_SHA1, 0,
2693:C:/Users/dtjld/workspace/AIoT/src/LiteOS_Lab/iot_link/network/dtls/mbedtls/mbedtls-2.16.2/library\rsa.c ****                                   sha1sum, rsa_ciphertext ) != 0 )
2694:C:/Users/dtjld/workspace/AIoT/src/LiteOS_Lab/iot_link/network/dtls/mbedtls/mbedtls-2.16.2/library\rsa.c ****     {
2695:C:/Users/dtjld/workspace/AIoT/src/LiteOS_Lab/iot_link/network/dtls/mbedtls/mbedtls-2.16.2/library\rsa.c ****         if( verbose != 0 )
 8268              		.loc 1 2695 0
 8269 03b0 3B1D     		adds	r3, r7, #4
 8270 03b2 1B68     		ldr	r3, [r3]
 8271 03b4 002B     		cmp	r3, #0
 8272 03b6 03D0     		beq	.L625
2696:C:/Users/dtjld/workspace/AIoT/src/LiteOS_Lab/iot_link/network/dtls/mbedtls/mbedtls-2.16.2/library\rsa.c ****             mbedtls_printf( "failed\n" );
 8273              		.loc 1 2696 0
 8274 03b8 204B     		ldr	r3, .L642
 8275 03ba 1B68     		ldr	r3, [r3]
 8276 03bc 2148     		ldr	r0, .L642+8
 8277 03be 9847     		blx	r3
 8278              	.LVL15:
 8279              	.L625:
2697:C:/Users/dtjld/workspace/AIoT/src/LiteOS_Lab/iot_link/network/dtls/mbedtls/mbedtls-2.16.2/library\rsa.c **** 
2698:C:/Users/dtjld/workspace/AIoT/src/LiteOS_Lab/iot_link/network/dtls/mbedtls/mbedtls-2.16.2/library\rsa.c ****         ret = 1;
 8280              		.loc 1 2698 0
 8281 03c0 0123     		movs	r3, #1
 8282 03c2 C7F88C31 		str	r3, [r7, #396]
2699:C:/Users/dtjld/workspace/AIoT/src/LiteOS_Lab/iot_link/network/dtls/mbedtls/mbedtls-2.16.2/library\rsa.c ****         goto cleanup;
 8283              		.loc 1 2699 0
 8284 03c6 27E0     		b	.L593
ARM GAS  C:\Users\dtjld\AppData\Local\Temp\cck1fUMg.s 			page 197


 8285              	.L624:
2700:C:/Users/dtjld/workspace/AIoT/src/LiteOS_Lab/iot_link/network/dtls/mbedtls/mbedtls-2.16.2/library\rsa.c ****     }
2701:C:/Users/dtjld/workspace/AIoT/src/LiteOS_Lab/iot_link/network/dtls/mbedtls/mbedtls-2.16.2/library\rsa.c **** 
2702:C:/Users/dtjld/workspace/AIoT/src/LiteOS_Lab/iot_link/network/dtls/mbedtls/mbedtls-2.16.2/library\rsa.c ****     if( verbose != 0 )
 8286              		.loc 1 2702 0
 8287 03c8 3B1D     		adds	r3, r7, #4
 8288 03ca 1B68     		ldr	r3, [r3]
 8289 03cc 002B     		cmp	r3, #0
 8290 03ce 03D0     		beq	.L626
2703:C:/Users/dtjld/workspace/AIoT/src/LiteOS_Lab/iot_link/network/dtls/mbedtls/mbedtls-2.16.2/library\rsa.c ****         mbedtls_printf( "passed\n" );
 8291              		.loc 1 2703 0
 8292 03d0 1A4B     		ldr	r3, .L642
 8293 03d2 1B68     		ldr	r3, [r3]
 8294 03d4 1C48     		ldr	r0, .L642+12
 8295 03d6 9847     		blx	r3
 8296              	.LVL16:
 8297              	.L626:
2704:C:/Users/dtjld/workspace/AIoT/src/LiteOS_Lab/iot_link/network/dtls/mbedtls/mbedtls-2.16.2/library\rsa.c **** #endif /* MBEDTLS_SHA1_C */
2705:C:/Users/dtjld/workspace/AIoT/src/LiteOS_Lab/iot_link/network/dtls/mbedtls/mbedtls-2.16.2/library\rsa.c **** 
2706:C:/Users/dtjld/workspace/AIoT/src/LiteOS_Lab/iot_link/network/dtls/mbedtls/mbedtls-2.16.2/library\rsa.c ****     if( verbose != 0 )
 8298              		.loc 1 2706 0
 8299 03d8 3B1D     		adds	r3, r7, #4
 8300 03da 1B68     		ldr	r3, [r3]
 8301 03dc 002B     		cmp	r3, #0
 8302 03de 1AD0     		beq	.L639
2707:C:/Users/dtjld/workspace/AIoT/src/LiteOS_Lab/iot_link/network/dtls/mbedtls/mbedtls-2.16.2/library\rsa.c ****         mbedtls_printf( "\n" );
 8303              		.loc 1 2707 0
 8304 03e0 164B     		ldr	r3, .L642
 8305 03e2 1B68     		ldr	r3, [r3]
 8306 03e4 1948     		ldr	r0, .L642+16
 8307 03e6 9847     		blx	r3
 8308              	.LVL17:
 8309 03e8 16E0     		b	.L593
 8310              	.L628:
2597:C:/Users/dtjld/workspace/AIoT/src/LiteOS_Lab/iot_link/network/dtls/mbedtls/mbedtls-2.16.2/library\rsa.c ****     MBEDTLS_MPI_CHK( mbedtls_rsa_import( &rsa, &K, NULL, NULL, NULL, NULL ) );
 8311              		.loc 1 2597 0
 8312 03ea 00BF     		nop
 8313 03ec 14E0     		b	.L593
 8314              	.L629:
2598:C:/Users/dtjld/workspace/AIoT/src/LiteOS_Lab/iot_link/network/dtls/mbedtls/mbedtls-2.16.2/library\rsa.c ****     MBEDTLS_MPI_CHK( mbedtls_mpi_read_string( &K, 16, RSA_P  ) );
 8315              		.loc 1 2598 0
 8316 03ee 00BF     		nop
 8317 03f0 12E0     		b	.L593
 8318              	.L630:
2599:C:/Users/dtjld/workspace/AIoT/src/LiteOS_Lab/iot_link/network/dtls/mbedtls/mbedtls-2.16.2/library\rsa.c ****     MBEDTLS_MPI_CHK( mbedtls_rsa_import( &rsa, NULL, &K, NULL, NULL, NULL ) );
 8319              		.loc 1 2599 0
 8320 03f2 00BF     		nop
 8321 03f4 10E0     		b	.L593
 8322              	.L631:
2600:C:/Users/dtjld/workspace/AIoT/src/LiteOS_Lab/iot_link/network/dtls/mbedtls/mbedtls-2.16.2/library\rsa.c ****     MBEDTLS_MPI_CHK( mbedtls_mpi_read_string( &K, 16, RSA_Q  ) );
 8323              		.loc 1 2600 0
 8324 03f6 00BF     		nop
 8325 03f8 0EE0     		b	.L593
 8326              	.L632:
2601:C:/Users/dtjld/workspace/AIoT/src/LiteOS_Lab/iot_link/network/dtls/mbedtls/mbedtls-2.16.2/library\rsa.c ****     MBEDTLS_MPI_CHK( mbedtls_rsa_import( &rsa, NULL, NULL, &K, NULL, NULL ) );
 8327              		.loc 1 2601 0
 8328 03fa 00BF     		nop
ARM GAS  C:\Users\dtjld\AppData\Local\Temp\cck1fUMg.s 			page 198


 8329 03fc 0CE0     		b	.L593
 8330              	.L633:
2602:C:/Users/dtjld/workspace/AIoT/src/LiteOS_Lab/iot_link/network/dtls/mbedtls/mbedtls-2.16.2/library\rsa.c ****     MBEDTLS_MPI_CHK( mbedtls_mpi_read_string( &K, 16, RSA_D  ) );
 8331              		.loc 1 2602 0
 8332 03fe 00BF     		nop
 8333 0400 0AE0     		b	.L593
 8334              	.L634:
2603:C:/Users/dtjld/workspace/AIoT/src/LiteOS_Lab/iot_link/network/dtls/mbedtls/mbedtls-2.16.2/library\rsa.c ****     MBEDTLS_MPI_CHK( mbedtls_rsa_import( &rsa, NULL, NULL, NULL, &K, NULL ) );
 8335              		.loc 1 2603 0
 8336 0402 00BF     		nop
 8337 0404 08E0     		b	.L593
 8338              	.L635:
2604:C:/Users/dtjld/workspace/AIoT/src/LiteOS_Lab/iot_link/network/dtls/mbedtls/mbedtls-2.16.2/library\rsa.c ****     MBEDTLS_MPI_CHK( mbedtls_mpi_read_string( &K, 16, RSA_E  ) );
 8339              		.loc 1 2604 0
 8340 0406 00BF     		nop
 8341 0408 06E0     		b	.L593
 8342              	.L636:
2605:C:/Users/dtjld/workspace/AIoT/src/LiteOS_Lab/iot_link/network/dtls/mbedtls/mbedtls-2.16.2/library\rsa.c ****     MBEDTLS_MPI_CHK( mbedtls_rsa_import( &rsa, NULL, NULL, NULL, NULL, &K ) );
 8343              		.loc 1 2605 0
 8344 040a 00BF     		nop
 8345 040c 04E0     		b	.L593
 8346              	.L637:
2606:C:/Users/dtjld/workspace/AIoT/src/LiteOS_Lab/iot_link/network/dtls/mbedtls/mbedtls-2.16.2/library\rsa.c **** 
 8347              		.loc 1 2606 0
 8348 040e 00BF     		nop
 8349 0410 02E0     		b	.L593
 8350              	.L638:
2608:C:/Users/dtjld/workspace/AIoT/src/LiteOS_Lab/iot_link/network/dtls/mbedtls/mbedtls-2.16.2/library\rsa.c **** 
 8351              		.loc 1 2608 0
 8352 0412 00BF     		nop
 8353 0414 00E0     		b	.L593
 8354              	.L639:
2708:C:/Users/dtjld/workspace/AIoT/src/LiteOS_Lab/iot_link/network/dtls/mbedtls/mbedtls-2.16.2/library\rsa.c **** 
2709:C:/Users/dtjld/workspace/AIoT/src/LiteOS_Lab/iot_link/network/dtls/mbedtls/mbedtls-2.16.2/library\rsa.c **** cleanup:
 8355              		.loc 1 2709 0
 8356 0416 00BF     		nop
 8357              	.L593:
2710:C:/Users/dtjld/workspace/AIoT/src/LiteOS_Lab/iot_link/network/dtls/mbedtls/mbedtls-2.16.2/library\rsa.c ****     mbedtls_mpi_free( &K );
 8358              		.loc 1 2710 0
 8359 0418 07F10C03 		add	r3, r7, #12
 8360 041c 1846     		mov	r0, r3
 8361 041e FFF7FEFF 		bl	mbedtls_mpi_free
2711:C:/Users/dtjld/workspace/AIoT/src/LiteOS_Lab/iot_link/network/dtls/mbedtls/mbedtls-2.16.2/library\rsa.c ****     mbedtls_rsa_free( &rsa );
 8362              		.loc 1 2711 0
 8363 0422 07F1DC03 		add	r3, r7, #220
 8364 0426 1846     		mov	r0, r3
 8365 0428 FFF7FEFF 		bl	mbedtls_rsa_free
2712:C:/Users/dtjld/workspace/AIoT/src/LiteOS_Lab/iot_link/network/dtls/mbedtls/mbedtls-2.16.2/library\rsa.c **** #else /* MBEDTLS_PKCS1_V15 */
2713:C:/Users/dtjld/workspace/AIoT/src/LiteOS_Lab/iot_link/network/dtls/mbedtls/mbedtls-2.16.2/library\rsa.c ****     ((void) verbose);
2714:C:/Users/dtjld/workspace/AIoT/src/LiteOS_Lab/iot_link/network/dtls/mbedtls/mbedtls-2.16.2/library\rsa.c **** #endif /* MBEDTLS_PKCS1_V15 */
2715:C:/Users/dtjld/workspace/AIoT/src/LiteOS_Lab/iot_link/network/dtls/mbedtls/mbedtls-2.16.2/library\rsa.c ****     return( ret );
 8366              		.loc 1 2715 0
 8367 042c D7F88C31 		ldr	r3, [r7, #396]
 8368              	.L627:
2716:C:/Users/dtjld/workspace/AIoT/src/LiteOS_Lab/iot_link/network/dtls/mbedtls/mbedtls-2.16.2/library\rsa.c **** }
 8369              		.loc 1 2716 0 discriminator 1
 8370 0430 1846     		mov	r0, r3
ARM GAS  C:\Users\dtjld\AppData\Local\Temp\cck1fUMg.s 			page 199


 8371 0432 07F5C877 		add	r7, r7, #400
 8372              	.LCFI208:
 8373              		.cfi_def_cfa_offset 16
 8374 0436 BD46     		mov	sp, r7
 8375              	.LCFI209:
 8376              		.cfi_def_cfa_register 13
 8377              		@ sp needed
 8378 0438 B0BD     		pop	{r4, r5, r7, pc}
 8379              	.L643:
 8380 043a 00BF     		.align	2
 8381              	.L642:
 8382 043c 00000000 		.word	mbedtls_printf
 8383 0440 B4030000 		.word	.LC12
 8384 0444 30030000 		.word	.LC6
 8385 0448 94030000 		.word	.LC10
 8386 044c D4030000 		.word	.LC13
 8387              		.cfi_endproc
 8388              	.LFE53:
 8390              		.text
 8391              	.Letext0:
 8392              		.file 2 "c:\\ac6\\systemworkbench\\plugins\\fr.ac6.mcu.externaltools.arm-none.win32_1.16.0.2018071
 8393              		.file 3 "c:\\ac6\\systemworkbench\\plugins\\fr.ac6.mcu.externaltools.arm-none.win32_1.16.0.2018071
 8394              		.file 4 "c:\\ac6\\systemworkbench\\plugins\\fr.ac6.mcu.externaltools.arm-none.win32_1.16.0.2018071
 8395              		.file 5 "C:/Users/dtjld/workspace/AIoT/src/LiteOS_Lab/iot_link/network/dtls/mbedtls/mbedtls-2.16.2
 8396              		.file 6 "C:/Users/dtjld/workspace/AIoT/src/LiteOS_Lab/iot_link/network/dtls/mbedtls/mbedtls-2.16.2
 8397              		.file 7 "C:/Users/dtjld/workspace/AIoT/src/LiteOS_Lab/iot_link/network/dtls/mbedtls/mbedtls-2.16.2
 8398              		.file 8 "c:\\ac6\\systemworkbench\\plugins\\fr.ac6.mcu.externaltools.arm-none.win32_1.16.0.2018071
 8399              		.file 9 "c:\\ac6\\systemworkbench\\plugins\\fr.ac6.mcu.externaltools.arm-none.win32_1.16.0.2018071
 8400              		.file 10 "c:\\ac6\\systemworkbench\\plugins\\fr.ac6.mcu.externaltools.arm-none.win32_1.16.0.201807
 8401              		.file 11 "c:\\ac6\\systemworkbench\\plugins\\fr.ac6.mcu.externaltools.arm-none.win32_1.16.0.201807
 8402              		.file 12 "c:\\ac6\\systemworkbench\\plugins\\fr.ac6.mcu.externaltools.arm-none.win32_1.16.0.201807
 8403              		.file 13 "C:/Users/dtjld/workspace/AIoT/src/LiteOS_Lab/iot_link/network/dtls/mbedtls/mbedtls-2.16.
ARM GAS  C:\Users\dtjld\AppData\Local\Temp\cck1fUMg.s 			page 200


DEFINED SYMBOLS
                            *ABS*:00000000 rsa.c
C:\Users\dtjld\AppData\Local\Temp\cck1fUMg.s:18     .text.mbedtls_safer_memcmp:00000000 $t
C:\Users\dtjld\AppData\Local\Temp\cck1fUMg.s:24     .text.mbedtls_safer_memcmp:00000000 mbedtls_safer_memcmp
C:\Users\dtjld\AppData\Local\Temp\cck1fUMg.s:103    .text.mbedtls_rsa_import:00000000 $t
C:\Users\dtjld\AppData\Local\Temp\cck1fUMg.s:110    .text.mbedtls_rsa_import:00000000 mbedtls_rsa_import
C:\Users\dtjld\AppData\Local\Temp\cck1fUMg.s:241    .text.mbedtls_rsa_import_raw:00000000 $t
C:\Users\dtjld\AppData\Local\Temp\cck1fUMg.s:248    .text.mbedtls_rsa_import_raw:00000000 mbedtls_rsa_import_raw
C:\Users\dtjld\AppData\Local\Temp\cck1fUMg.s:406    .text.rsa_check_context:00000000 $t
C:\Users\dtjld\AppData\Local\Temp\cck1fUMg.s:412    .text.rsa_check_context:00000000 rsa_check_context
C:\Users\dtjld\AppData\Local\Temp\cck1fUMg.s:603    .text.rsa_check_context:00000114 $d
C:\Users\dtjld\AppData\Local\Temp\cck1fUMg.s:608    .text.mbedtls_rsa_complete:00000000 $t
C:\Users\dtjld\AppData\Local\Temp\cck1fUMg.s:615    .text.mbedtls_rsa_complete:00000000 mbedtls_rsa_complete
C:\Users\dtjld\AppData\Local\Temp\cck1fUMg.s:992    .text.mbedtls_rsa_complete:0000024c $d
C:\Users\dtjld\AppData\Local\Temp\cck1fUMg.s:997    .text.mbedtls_rsa_export_raw:00000000 $t
C:\Users\dtjld\AppData\Local\Temp\cck1fUMg.s:1004   .text.mbedtls_rsa_export_raw:00000000 mbedtls_rsa_export_raw
C:\Users\dtjld\AppData\Local\Temp\cck1fUMg.s:1224   .text.mbedtls_rsa_export_raw:00000138 $d
C:\Users\dtjld\AppData\Local\Temp\cck1fUMg.s:1229   .text.mbedtls_rsa_export:00000000 $t
C:\Users\dtjld\AppData\Local\Temp\cck1fUMg.s:1236   .text.mbedtls_rsa_export:00000000 mbedtls_rsa_export
C:\Users\dtjld\AppData\Local\Temp\cck1fUMg.s:1432   .text.mbedtls_rsa_export:0000011c $d
C:\Users\dtjld\AppData\Local\Temp\cck1fUMg.s:1437   .text.mbedtls_rsa_export_crt:00000000 $t
C:\Users\dtjld\AppData\Local\Temp\cck1fUMg.s:1444   .text.mbedtls_rsa_export_crt:00000000 mbedtls_rsa_export_crt
C:\Users\dtjld\AppData\Local\Temp\cck1fUMg.s:1598   .text.mbedtls_rsa_export_crt:000000dc $d
C:\Users\dtjld\AppData\Local\Temp\cck1fUMg.s:1603   .text.mbedtls_rsa_init:00000000 $t
C:\Users\dtjld\AppData\Local\Temp\cck1fUMg.s:1610   .text.mbedtls_rsa_init:00000000 mbedtls_rsa_init
C:\Users\dtjld\AppData\Local\Temp\cck1fUMg.s:1661   .text.mbedtls_rsa_set_padding:00000000 mbedtls_rsa_set_padding
C:\Users\dtjld\AppData\Local\Temp\cck1fUMg.s:1654   .text.mbedtls_rsa_set_padding:00000000 $t
C:\Users\dtjld\AppData\Local\Temp\cck1fUMg.s:1707   .text.mbedtls_rsa_get_len:00000000 $t
C:\Users\dtjld\AppData\Local\Temp\cck1fUMg.s:1714   .text.mbedtls_rsa_get_len:00000000 mbedtls_rsa_get_len
C:\Users\dtjld\AppData\Local\Temp\cck1fUMg.s:1753   .text.mbedtls_rsa_gen_key:00000000 $t
C:\Users\dtjld\AppData\Local\Temp\cck1fUMg.s:1760   .text.mbedtls_rsa_gen_key:00000000 mbedtls_rsa_gen_key
C:\Users\dtjld\AppData\Local\Temp\cck1fUMg.s:2315   .text.mbedtls_rsa_check_privkey:00000000 mbedtls_rsa_check_privkey
C:\Users\dtjld\AppData\Local\Temp\cck1fUMg.s:7559   .text.mbedtls_rsa_free:00000000 mbedtls_rsa_free
C:\Users\dtjld\AppData\Local\Temp\cck1fUMg.s:2198   .text.mbedtls_rsa_gen_key:00000324 $d
C:\Users\dtjld\AppData\Local\Temp\cck1fUMg.s:2203   .text.mbedtls_rsa_check_pubkey:00000000 $t
C:\Users\dtjld\AppData\Local\Temp\cck1fUMg.s:2210   .text.mbedtls_rsa_check_pubkey:00000000 mbedtls_rsa_check_pubkey
C:\Users\dtjld\AppData\Local\Temp\cck1fUMg.s:2303   .text.mbedtls_rsa_check_pubkey:00000078 $d
C:\Users\dtjld\AppData\Local\Temp\cck1fUMg.s:2308   .text.mbedtls_rsa_check_privkey:00000000 $t
C:\Users\dtjld\AppData\Local\Temp\cck1fUMg.s:2422   .text.mbedtls_rsa_check_privkey:000000a0 $d
C:\Users\dtjld\AppData\Local\Temp\cck1fUMg.s:2427   .text.mbedtls_rsa_check_pub_priv:00000000 $t
C:\Users\dtjld\AppData\Local\Temp\cck1fUMg.s:2434   .text.mbedtls_rsa_check_pub_priv:00000000 mbedtls_rsa_check_pub_priv
C:\Users\dtjld\AppData\Local\Temp\cck1fUMg.s:2515   .text.mbedtls_rsa_check_pub_priv:00000064 $d
C:\Users\dtjld\AppData\Local\Temp\cck1fUMg.s:2520   .text.mbedtls_rsa_public:00000000 $t
C:\Users\dtjld\AppData\Local\Temp\cck1fUMg.s:2527   .text.mbedtls_rsa_public:00000000 mbedtls_rsa_public
C:\Users\dtjld\AppData\Local\Temp\cck1fUMg.s:2659   .text.mbedtls_rsa_public:000000d0 $d
C:\Users\dtjld\AppData\Local\Temp\cck1fUMg.s:2664   .text.rsa_prepare_blinding:00000000 $t
C:\Users\dtjld\AppData\Local\Temp\cck1fUMg.s:2670   .text.rsa_prepare_blinding:00000000 rsa_prepare_blinding
C:\Users\dtjld\AppData\Local\Temp\cck1fUMg.s:2870   .text.rsa_prepare_blinding:00000158 $d
C:\Users\dtjld\AppData\Local\Temp\cck1fUMg.s:2875   .text.mbedtls_rsa_private:00000000 $t
C:\Users\dtjld\AppData\Local\Temp\cck1fUMg.s:2882   .text.mbedtls_rsa_private:00000000 mbedtls_rsa_private
C:\Users\dtjld\AppData\Local\Temp\cck1fUMg.s:3003   .text.mbedtls_rsa_private:000000e8 $d
C:\Users\dtjld\AppData\Local\Temp\cck1fUMg.s:3006   .text.mbedtls_rsa_private:000000ec $t
C:\Users\dtjld\AppData\Local\Temp\cck1fUMg.s:3458   .text.mbedtls_rsa_private:00000510 $d
C:\Users\dtjld\AppData\Local\Temp\cck1fUMg.s:3463   .text.mgf_mask:00000000 $t
C:\Users\dtjld\AppData\Local\Temp\cck1fUMg.s:3469   .text.mgf_mask:00000000 mgf_mask
C:\Users\dtjld\AppData\Local\Temp\cck1fUMg.s:3646   .text.mbedtls_rsa_rsaes_oaep_encrypt:00000000 $t
C:\Users\dtjld\AppData\Local\Temp\cck1fUMg.s:3653   .text.mbedtls_rsa_rsaes_oaep_encrypt:00000000 mbedtls_rsa_rsaes_oaep_encrypt
ARM GAS  C:\Users\dtjld\AppData\Local\Temp\cck1fUMg.s 			page 201


C:\Users\dtjld\AppData\Local\Temp\cck1fUMg.s:3928   .text.mbedtls_rsa_rsaes_oaep_encrypt:000001b8 $d
C:\Users\dtjld\AppData\Local\Temp\cck1fUMg.s:3933   .text.mbedtls_rsa_rsaes_pkcs1_v15_encrypt:00000000 $t
C:\Users\dtjld\AppData\Local\Temp\cck1fUMg.s:3940   .text.mbedtls_rsa_rsaes_pkcs1_v15_encrypt:00000000 mbedtls_rsa_rsaes_pkcs1_v15_encrypt
C:\Users\dtjld\AppData\Local\Temp\cck1fUMg.s:4156   .text.mbedtls_rsa_rsaes_pkcs1_v15_encrypt:00000124 $d
C:\Users\dtjld\AppData\Local\Temp\cck1fUMg.s:4161   .text.mbedtls_rsa_pkcs1_encrypt:00000000 $t
C:\Users\dtjld\AppData\Local\Temp\cck1fUMg.s:4168   .text.mbedtls_rsa_pkcs1_encrypt:00000000 mbedtls_rsa_pkcs1_encrypt
C:\Users\dtjld\AppData\Local\Temp\cck1fUMg.s:4248   .text.mbedtls_rsa_pkcs1_encrypt:00000068 $d
C:\Users\dtjld\AppData\Local\Temp\cck1fUMg.s:4253   .text.mbedtls_rsa_rsaes_oaep_decrypt:00000000 $t
C:\Users\dtjld\AppData\Local\Temp\cck1fUMg.s:4260   .text.mbedtls_rsa_rsaes_oaep_decrypt:00000000 mbedtls_rsa_rsaes_oaep_decrypt
C:\Users\dtjld\AppData\Local\Temp\cck1fUMg.s:4663   .text.mbedtls_rsa_rsaes_oaep_decrypt:00000374 $d
C:\Users\dtjld\AppData\Local\Temp\cck1fUMg.s:4670   .text.all_or_nothing_int:00000000 $t
C:\Users\dtjld\AppData\Local\Temp\cck1fUMg.s:4676   .text.all_or_nothing_int:00000000 all_or_nothing_int
C:\Users\dtjld\AppData\Local\Temp\cck1fUMg.s:4718   .text.size_greater_than:00000000 $t
C:\Users\dtjld\AppData\Local\Temp\cck1fUMg.s:4724   .text.size_greater_than:00000000 size_greater_than
C:\Users\dtjld\AppData\Local\Temp\cck1fUMg.s:4766   .text.if_int:00000000 $t
C:\Users\dtjld\AppData\Local\Temp\cck1fUMg.s:4772   .text.if_int:00000000 if_int
C:\Users\dtjld\AppData\Local\Temp\cck1fUMg.s:4819   .text.mem_move_to_left:00000000 $t
C:\Users\dtjld\AppData\Local\Temp\cck1fUMg.s:4825   .text.mem_move_to_left:00000000 mem_move_to_left
C:\Users\dtjld\AppData\Local\Temp\cck1fUMg.s:4956   .text.mbedtls_rsa_rsaes_pkcs1_v15_decrypt:00000000 $t
C:\Users\dtjld\AppData\Local\Temp\cck1fUMg.s:4963   .text.mbedtls_rsa_rsaes_pkcs1_v15_decrypt:00000000 mbedtls_rsa_rsaes_pkcs1_v15_decrypt
C:\Users\dtjld\AppData\Local\Temp\cck1fUMg.s:5355   .text.mbedtls_rsa_rsaes_pkcs1_v15_decrypt:00000378 $d
C:\Users\dtjld\AppData\Local\Temp\cck1fUMg.s:5360   .text.mbedtls_rsa_pkcs1_decrypt:00000000 $t
C:\Users\dtjld\AppData\Local\Temp\cck1fUMg.s:5367   .text.mbedtls_rsa_pkcs1_decrypt:00000000 mbedtls_rsa_pkcs1_decrypt
C:\Users\dtjld\AppData\Local\Temp\cck1fUMg.s:5451   .text.mbedtls_rsa_pkcs1_decrypt:00000070 $d
C:\Users\dtjld\AppData\Local\Temp\cck1fUMg.s:5456   .text.mbedtls_rsa_rsassa_pss_sign:00000000 $t
C:\Users\dtjld\AppData\Local\Temp\cck1fUMg.s:5463   .text.mbedtls_rsa_rsassa_pss_sign:00000000 mbedtls_rsa_rsassa_pss_sign
C:\Users\dtjld\AppData\Local\Temp\cck1fUMg.s:5854   .text.mbedtls_rsa_rsassa_pss_sign:000002a8 $d
C:\Users\dtjld\AppData\Local\Temp\cck1fUMg.s:5859   .text.rsa_rsassa_pkcs1_v15_encode:00000000 $t
C:\Users\dtjld\AppData\Local\Temp\cck1fUMg.s:5865   .text.rsa_rsassa_pkcs1_v15_encode:00000000 rsa_rsassa_pkcs1_v15_encode
C:\Users\dtjld\AppData\Local\Temp\cck1fUMg.s:6176   .text.rsa_rsassa_pkcs1_v15_encode:000001d8 $d
C:\Users\dtjld\AppData\Local\Temp\cck1fUMg.s:6181   .text.mbedtls_rsa_rsassa_pkcs1_v15_sign:00000000 $t
C:\Users\dtjld\AppData\Local\Temp\cck1fUMg.s:6188   .text.mbedtls_rsa_rsassa_pkcs1_v15_sign:00000000 mbedtls_rsa_rsassa_pkcs1_v15_sign
C:\Users\dtjld\AppData\Local\Temp\cck1fUMg.s:6365   .text.mbedtls_rsa_rsassa_pkcs1_v15_sign:0000010c $d
C:\Users\dtjld\AppData\Local\Temp\cck1fUMg.s:6371   .text.mbedtls_rsa_pkcs1_sign:00000000 $t
C:\Users\dtjld\AppData\Local\Temp\cck1fUMg.s:6378   .text.mbedtls_rsa_pkcs1_sign:00000000 mbedtls_rsa_pkcs1_sign
C:\Users\dtjld\AppData\Local\Temp\cck1fUMg.s:6458   .text.mbedtls_rsa_pkcs1_sign:00000068 $d
C:\Users\dtjld\AppData\Local\Temp\cck1fUMg.s:6463   .text.mbedtls_rsa_rsassa_pss_verify_ext:00000000 $t
C:\Users\dtjld\AppData\Local\Temp\cck1fUMg.s:6470   .text.mbedtls_rsa_rsassa_pss_verify_ext:00000000 mbedtls_rsa_rsassa_pss_verify_ext
C:\Users\dtjld\AppData\Local\Temp\cck1fUMg.s:6907   .text.mbedtls_rsa_rsassa_pss_verify_ext:0000037c $d
C:\Users\dtjld\AppData\Local\Temp\cck1fUMg.s:6914   .text.mbedtls_rsa_rsassa_pss_verify:00000000 $t
C:\Users\dtjld\AppData\Local\Temp\cck1fUMg.s:6921   .text.mbedtls_rsa_rsassa_pss_verify:00000000 mbedtls_rsa_rsassa_pss_verify
C:\Users\dtjld\AppData\Local\Temp\cck1fUMg.s:6993   .text.mbedtls_rsa_rsassa_pkcs1_v15_verify:00000000 $t
C:\Users\dtjld\AppData\Local\Temp\cck1fUMg.s:7000   .text.mbedtls_rsa_rsassa_pkcs1_v15_verify:00000000 mbedtls_rsa_rsassa_pkcs1_v15_verify
C:\Users\dtjld\AppData\Local\Temp\cck1fUMg.s:7175   .text.mbedtls_rsa_rsassa_pkcs1_v15_verify:000000f8 $d
C:\Users\dtjld\AppData\Local\Temp\cck1fUMg.s:7181   .text.mbedtls_rsa_pkcs1_verify:00000000 $t
C:\Users\dtjld\AppData\Local\Temp\cck1fUMg.s:7188   .text.mbedtls_rsa_pkcs1_verify:00000000 mbedtls_rsa_pkcs1_verify
C:\Users\dtjld\AppData\Local\Temp\cck1fUMg.s:7268   .text.mbedtls_rsa_pkcs1_verify:00000068 $d
C:\Users\dtjld\AppData\Local\Temp\cck1fUMg.s:7273   .text.mbedtls_rsa_copy:00000000 $t
C:\Users\dtjld\AppData\Local\Temp\cck1fUMg.s:7280   .text.mbedtls_rsa_copy:00000000 mbedtls_rsa_copy
C:\Users\dtjld\AppData\Local\Temp\cck1fUMg.s:7552   .text.mbedtls_rsa_free:00000000 $t
C:\Users\dtjld\AppData\Local\Temp\cck1fUMg.s:7664   .text.myrand:00000000 $t
C:\Users\dtjld\AppData\Local\Temp\cck1fUMg.s:7670   .text.myrand:00000000 myrand
C:\Users\dtjld\AppData\Local\Temp\cck1fUMg.s:7737   .rodata:00000000 $d
C:\Users\dtjld\AppData\Local\Temp\cck1fUMg.s:7795   .text.mbedtls_rsa_self_test:00000000 $t
C:\Users\dtjld\AppData\Local\Temp\cck1fUMg.s:7802   .text.mbedtls_rsa_self_test:00000000 mbedtls_rsa_self_test
C:\Users\dtjld\AppData\Local\Temp\cck1fUMg.s:8224   .text.mbedtls_rsa_self_test:00000340 $d
C:\Users\dtjld\AppData\Local\Temp\cck1fUMg.s:8240   .text.mbedtls_rsa_self_test:00000378 $t
ARM GAS  C:\Users\dtjld\AppData\Local\Temp\cck1fUMg.s 			page 202


C:\Users\dtjld\AppData\Local\Temp\cck1fUMg.s:8382   .text.mbedtls_rsa_self_test:0000043c $d

UNDEFINED SYMBOLS
mbedtls_mpi_copy
mbedtls_mpi_size
mbedtls_mpi_read_binary
mbedtls_mpi_cmp_int
mbedtls_mpi_get_bit
mbedtls_mpi_mul_mpi
mbedtls_rsa_deduce_primes
mbedtls_rsa_deduce_private_exponent
mbedtls_rsa_deduce_crt
mbedtls_mpi_write_binary
memset
mbedtls_mpi_init
mbedtls_mpi_lset
mbedtls_mpi_gen_prime
mbedtls_mpi_sub_mpi
mbedtls_mpi_bitlen
mbedtls_mpi_swap
mbedtls_mpi_sub_int
mbedtls_mpi_gcd
mbedtls_mpi_div_mpi
mbedtls_mpi_inv_mod
mbedtls_mpi_add_int
mbedtls_mpi_free
mbedtls_mpi_cmp_mpi
mbedtls_rsa_validate_params
mbedtls_rsa_validate_crt
mbedtls_mpi_exp_mod
mbedtls_mpi_mod_mpi
mbedtls_mpi_fill_random
mbedtls_mpi_add_mpi
mbedtls_md_get_size
mbedtls_md_starts
mbedtls_md_update
mbedtls_md_finish
mbedtls_platform_zeroize
mbedtls_md_info_from_type
mbedtls_md
memcpy
mbedtls_md_init
mbedtls_md_setup
mbedtls_md_free
mbedtls_oid_get_oid_by_md
mbedtls_calloc
mbedtls_free
memcmp
rand
mbedtls_mpi_read_string
mbedtls_sha1_ret
mbedtls_printf
