ARM GAS  C:\Users\dtjld\AppData\Local\Temp\cck1fUMg.s 			page 1


   1              		.cpu cortex-m4
   2              		.eabi_attribute 27, 1
   3              		.eabi_attribute 28, 1
   4              		.eabi_attribute 20, 1
   5              		.eabi_attribute 21, 1
   6              		.eabi_attribute 23, 3
   7              		.eabi_attribute 24, 1
   8              		.eabi_attribute 25, 1
   9              		.eabi_attribute 26, 1
  10              		.eabi_attribute 30, 6
  11              		.eabi_attribute 34, 1
  12              		.eabi_attribute 18, 4
  13              		.file	"rsa.c"
  14              		.text
  15              	.Ltext0:
  16              		.cfi_sections	.debug_frame
  17              		.section	.text.mbedtls_safer_memcmp,"ax",%progbits
  18              		.align	1
  19              		.syntax unified
  20              		.thumb
  21              		.thumb_func
  22              		.fpu fpv4-sp-d16
  24              	mbedtls_safer_memcmp:
  25              	.LFB13:
  26              		.file 1 "C:/Users/dtjld/workspace/AIoT/src/LiteOS_Lab/iot_link/network/dtls/mbedtls/mbedtls-2.16.2
   1:C:/Users/dtjld/workspace/AIoT/src/LiteOS_Lab/iot_link/network/dtls/mbedtls/mbedtls-2.16.2/library\rsa.c **** /*
   2:C:/Users/dtjld/workspace/AIoT/src/LiteOS_Lab/iot_link/network/dtls/mbedtls/mbedtls-2.16.2/library\rsa.c ****  *  The RSA public-key cryptosystem
   3:C:/Users/dtjld/workspace/AIoT/src/LiteOS_Lab/iot_link/network/dtls/mbedtls/mbedtls-2.16.2/library\rsa.c ****  *
   4:C:/Users/dtjld/workspace/AIoT/src/LiteOS_Lab/iot_link/network/dtls/mbedtls/mbedtls-2.16.2/library\rsa.c ****  *  Copyright (C) 2006-2015, ARM Limited, All Rights Reserved
   5:C:/Users/dtjld/workspace/AIoT/src/LiteOS_Lab/iot_link/network/dtls/mbedtls/mbedtls-2.16.2/library\rsa.c ****  *  SPDX-License-Identifier: Apache-2.0
   6:C:/Users/dtjld/workspace/AIoT/src/LiteOS_Lab/iot_link/network/dtls/mbedtls/mbedtls-2.16.2/library\rsa.c ****  *
   7:C:/Users/dtjld/workspace/AIoT/src/LiteOS_Lab/iot_link/network/dtls/mbedtls/mbedtls-2.16.2/library\rsa.c ****  *  Licensed under the Apache License, Version 2.0 (the "License"); you may
   8:C:/Users/dtjld/workspace/AIoT/src/LiteOS_Lab/iot_link/network/dtls/mbedtls/mbedtls-2.16.2/library\rsa.c ****  *  not use this file except in compliance with the License.
   9:C:/Users/dtjld/workspace/AIoT/src/LiteOS_Lab/iot_link/network/dtls/mbedtls/mbedtls-2.16.2/library\rsa.c ****  *  You may obtain a copy of the License at
  10:C:/Users/dtjld/workspace/AIoT/src/LiteOS_Lab/iot_link/network/dtls/mbedtls/mbedtls-2.16.2/library\rsa.c ****  *
  11:C:/Users/dtjld/workspace/AIoT/src/LiteOS_Lab/iot_link/network/dtls/mbedtls/mbedtls-2.16.2/library\rsa.c ****  *  http://www.apache.org/licenses/LICENSE-2.0
  12:C:/Users/dtjld/workspace/AIoT/src/LiteOS_Lab/iot_link/network/dtls/mbedtls/mbedtls-2.16.2/library\rsa.c ****  *
  13:C:/Users/dtjld/workspace/AIoT/src/LiteOS_Lab/iot_link/network/dtls/mbedtls/mbedtls-2.16.2/library\rsa.c ****  *  Unless required by applicable law or agreed to in writing, software
  14:C:/Users/dtjld/workspace/AIoT/src/LiteOS_Lab/iot_link/network/dtls/mbedtls/mbedtls-2.16.2/library\rsa.c ****  *  distributed under the License is distributed on an "AS IS" BASIS, WITHOUT
  15:C:/Users/dtjld/workspace/AIoT/src/LiteOS_Lab/iot_link/network/dtls/mbedtls/mbedtls-2.16.2/library\rsa.c ****  *  WARRANTIES OR CONDITIONS OF ANY KIND, either express or implied.
  16:C:/Users/dtjld/workspace/AIoT/src/LiteOS_Lab/iot_link/network/dtls/mbedtls/mbedtls-2.16.2/library\rsa.c ****  *  See the License for the specific language governing permissions and
  17:C:/Users/dtjld/workspace/AIoT/src/LiteOS_Lab/iot_link/network/dtls/mbedtls/mbedtls-2.16.2/library\rsa.c ****  *  limitations under the License.
  18:C:/Users/dtjld/workspace/AIoT/src/LiteOS_Lab/iot_link/network/dtls/mbedtls/mbedtls-2.16.2/library\rsa.c ****  *
  19:C:/Users/dtjld/workspace/AIoT/src/LiteOS_Lab/iot_link/network/dtls/mbedtls/mbedtls-2.16.2/library\rsa.c ****  *  This file is part of mbed TLS (https://tls.mbed.org)
  20:C:/Users/dtjld/workspace/AIoT/src/LiteOS_Lab/iot_link/network/dtls/mbedtls/mbedtls-2.16.2/library\rsa.c ****  */
  21:C:/Users/dtjld/workspace/AIoT/src/LiteOS_Lab/iot_link/network/dtls/mbedtls/mbedtls-2.16.2/library\rsa.c **** 
  22:C:/Users/dtjld/workspace/AIoT/src/LiteOS_Lab/iot_link/network/dtls/mbedtls/mbedtls-2.16.2/library\rsa.c **** /*
  23:C:/Users/dtjld/workspace/AIoT/src/LiteOS_Lab/iot_link/network/dtls/mbedtls/mbedtls-2.16.2/library\rsa.c ****  *  The following sources were referenced in the design of this implementation
  24:C:/Users/dtjld/workspace/AIoT/src/LiteOS_Lab/iot_link/network/dtls/mbedtls/mbedtls-2.16.2/library\rsa.c ****  *  of the RSA algorithm:
  25:C:/Users/dtjld/workspace/AIoT/src/LiteOS_Lab/iot_link/network/dtls/mbedtls/mbedtls-2.16.2/library\rsa.c ****  *
  26:C:/Users/dtjld/workspace/AIoT/src/LiteOS_Lab/iot_link/network/dtls/mbedtls/mbedtls-2.16.2/library\rsa.c ****  *  [1] A method for obtaining digital signatures and public-key cryptosystems
  27:C:/Users/dtjld/workspace/AIoT/src/LiteOS_Lab/iot_link/network/dtls/mbedtls/mbedtls-2.16.2/library\rsa.c ****  *      R Rivest, A Shamir, and L Adleman
  28:C:/Users/dtjld/workspace/AIoT/src/LiteOS_Lab/iot_link/network/dtls/mbedtls/mbedtls-2.16.2/library\rsa.c ****  *      http://people.csail.mit.edu/rivest/pubs.html#RSA78
  29:C:/Users/dtjld/workspace/AIoT/src/LiteOS_Lab/iot_link/network/dtls/mbedtls/mbedtls-2.16.2/library\rsa.c ****  *
  30:C:/Users/dtjld/workspace/AIoT/src/LiteOS_Lab/iot_link/network/dtls/mbedtls/mbedtls-2.16.2/library\rsa.c ****  *  [2] Handbook of Applied Cryptography - 1997, Chapter 8
  31:C:/Users/dtjld/workspace/AIoT/src/LiteOS_Lab/iot_link/network/dtls/mbedtls/mbedtls-2.16.2/library\rsa.c ****  *      Menezes, van Oorschot and Vanstone
  32:C:/Users/dtjld/workspace/AIoT/src/LiteOS_Lab/iot_link/network/dtls/mbedtls/mbedtls-2.16.2/library\rsa.c ****  *
ARM GAS  C:\Users\dtjld\AppData\Local\Temp\cck1fUMg.s 			page 2


  33:C:/Users/dtjld/workspace/AIoT/src/LiteOS_Lab/iot_link/network/dtls/mbedtls/mbedtls-2.16.2/library\rsa.c ****  *  [3] Malware Guard Extension: Using SGX to Conceal Cache Attacks
  34:C:/Users/dtjld/workspace/AIoT/src/LiteOS_Lab/iot_link/network/dtls/mbedtls/mbedtls-2.16.2/library\rsa.c ****  *      Michael Schwarz, Samuel Weiser, Daniel Gruss, Clémentine Maurice and
  35:C:/Users/dtjld/workspace/AIoT/src/LiteOS_Lab/iot_link/network/dtls/mbedtls/mbedtls-2.16.2/library\rsa.c ****  *      Stefan Mangard
  36:C:/Users/dtjld/workspace/AIoT/src/LiteOS_Lab/iot_link/network/dtls/mbedtls/mbedtls-2.16.2/library\rsa.c ****  *      https://arxiv.org/abs/1702.08719v2
  37:C:/Users/dtjld/workspace/AIoT/src/LiteOS_Lab/iot_link/network/dtls/mbedtls/mbedtls-2.16.2/library\rsa.c ****  *
  38:C:/Users/dtjld/workspace/AIoT/src/LiteOS_Lab/iot_link/network/dtls/mbedtls/mbedtls-2.16.2/library\rsa.c ****  */
  39:C:/Users/dtjld/workspace/AIoT/src/LiteOS_Lab/iot_link/network/dtls/mbedtls/mbedtls-2.16.2/library\rsa.c **** 
  40:C:/Users/dtjld/workspace/AIoT/src/LiteOS_Lab/iot_link/network/dtls/mbedtls/mbedtls-2.16.2/library\rsa.c **** #if !defined(MBEDTLS_CONFIG_FILE)
  41:C:/Users/dtjld/workspace/AIoT/src/LiteOS_Lab/iot_link/network/dtls/mbedtls/mbedtls-2.16.2/library\rsa.c **** #include "mbedtls/config.h"
  42:C:/Users/dtjld/workspace/AIoT/src/LiteOS_Lab/iot_link/network/dtls/mbedtls/mbedtls-2.16.2/library\rsa.c **** #else
  43:C:/Users/dtjld/workspace/AIoT/src/LiteOS_Lab/iot_link/network/dtls/mbedtls/mbedtls-2.16.2/library\rsa.c **** #include MBEDTLS_CONFIG_FILE
  44:C:/Users/dtjld/workspace/AIoT/src/LiteOS_Lab/iot_link/network/dtls/mbedtls/mbedtls-2.16.2/library\rsa.c **** #endif
  45:C:/Users/dtjld/workspace/AIoT/src/LiteOS_Lab/iot_link/network/dtls/mbedtls/mbedtls-2.16.2/library\rsa.c **** 
  46:C:/Users/dtjld/workspace/AIoT/src/LiteOS_Lab/iot_link/network/dtls/mbedtls/mbedtls-2.16.2/library\rsa.c **** #if defined(MBEDTLS_RSA_C)
  47:C:/Users/dtjld/workspace/AIoT/src/LiteOS_Lab/iot_link/network/dtls/mbedtls/mbedtls-2.16.2/library\rsa.c **** 
  48:C:/Users/dtjld/workspace/AIoT/src/LiteOS_Lab/iot_link/network/dtls/mbedtls/mbedtls-2.16.2/library\rsa.c **** #include "mbedtls/rsa.h"
  49:C:/Users/dtjld/workspace/AIoT/src/LiteOS_Lab/iot_link/network/dtls/mbedtls/mbedtls-2.16.2/library\rsa.c **** #include "mbedtls/rsa_internal.h"
  50:C:/Users/dtjld/workspace/AIoT/src/LiteOS_Lab/iot_link/network/dtls/mbedtls/mbedtls-2.16.2/library\rsa.c **** #include "mbedtls/oid.h"
  51:C:/Users/dtjld/workspace/AIoT/src/LiteOS_Lab/iot_link/network/dtls/mbedtls/mbedtls-2.16.2/library\rsa.c **** #include "mbedtls/platform_util.h"
  52:C:/Users/dtjld/workspace/AIoT/src/LiteOS_Lab/iot_link/network/dtls/mbedtls/mbedtls-2.16.2/library\rsa.c **** 
  53:C:/Users/dtjld/workspace/AIoT/src/LiteOS_Lab/iot_link/network/dtls/mbedtls/mbedtls-2.16.2/library\rsa.c **** #include <string.h>
  54:C:/Users/dtjld/workspace/AIoT/src/LiteOS_Lab/iot_link/network/dtls/mbedtls/mbedtls-2.16.2/library\rsa.c **** 
  55:C:/Users/dtjld/workspace/AIoT/src/LiteOS_Lab/iot_link/network/dtls/mbedtls/mbedtls-2.16.2/library\rsa.c **** #if defined(MBEDTLS_PKCS1_V21)
  56:C:/Users/dtjld/workspace/AIoT/src/LiteOS_Lab/iot_link/network/dtls/mbedtls/mbedtls-2.16.2/library\rsa.c **** #include "mbedtls/md.h"
  57:C:/Users/dtjld/workspace/AIoT/src/LiteOS_Lab/iot_link/network/dtls/mbedtls/mbedtls-2.16.2/library\rsa.c **** #endif
  58:C:/Users/dtjld/workspace/AIoT/src/LiteOS_Lab/iot_link/network/dtls/mbedtls/mbedtls-2.16.2/library\rsa.c **** 
  59:C:/Users/dtjld/workspace/AIoT/src/LiteOS_Lab/iot_link/network/dtls/mbedtls/mbedtls-2.16.2/library\rsa.c **** #if defined(MBEDTLS_PKCS1_V15) && !defined(__OpenBSD__)
  60:C:/Users/dtjld/workspace/AIoT/src/LiteOS_Lab/iot_link/network/dtls/mbedtls/mbedtls-2.16.2/library\rsa.c **** #include <stdlib.h>
  61:C:/Users/dtjld/workspace/AIoT/src/LiteOS_Lab/iot_link/network/dtls/mbedtls/mbedtls-2.16.2/library\rsa.c **** #endif
  62:C:/Users/dtjld/workspace/AIoT/src/LiteOS_Lab/iot_link/network/dtls/mbedtls/mbedtls-2.16.2/library\rsa.c **** 
  63:C:/Users/dtjld/workspace/AIoT/src/LiteOS_Lab/iot_link/network/dtls/mbedtls/mbedtls-2.16.2/library\rsa.c **** #if defined(MBEDTLS_PLATFORM_C)
  64:C:/Users/dtjld/workspace/AIoT/src/LiteOS_Lab/iot_link/network/dtls/mbedtls/mbedtls-2.16.2/library\rsa.c **** #include "mbedtls/platform.h"
  65:C:/Users/dtjld/workspace/AIoT/src/LiteOS_Lab/iot_link/network/dtls/mbedtls/mbedtls-2.16.2/library\rsa.c **** #else
  66:C:/Users/dtjld/workspace/AIoT/src/LiteOS_Lab/iot_link/network/dtls/mbedtls/mbedtls-2.16.2/library\rsa.c **** #include <stdio.h>
  67:C:/Users/dtjld/workspace/AIoT/src/LiteOS_Lab/iot_link/network/dtls/mbedtls/mbedtls-2.16.2/library\rsa.c **** #define mbedtls_printf printf
  68:C:/Users/dtjld/workspace/AIoT/src/LiteOS_Lab/iot_link/network/dtls/mbedtls/mbedtls-2.16.2/library\rsa.c **** #define mbedtls_calloc calloc
  69:C:/Users/dtjld/workspace/AIoT/src/LiteOS_Lab/iot_link/network/dtls/mbedtls/mbedtls-2.16.2/library\rsa.c **** #define mbedtls_free   free
  70:C:/Users/dtjld/workspace/AIoT/src/LiteOS_Lab/iot_link/network/dtls/mbedtls/mbedtls-2.16.2/library\rsa.c **** #endif
  71:C:/Users/dtjld/workspace/AIoT/src/LiteOS_Lab/iot_link/network/dtls/mbedtls/mbedtls-2.16.2/library\rsa.c **** 
  72:C:/Users/dtjld/workspace/AIoT/src/LiteOS_Lab/iot_link/network/dtls/mbedtls/mbedtls-2.16.2/library\rsa.c **** #if !defined(MBEDTLS_RSA_ALT)
  73:C:/Users/dtjld/workspace/AIoT/src/LiteOS_Lab/iot_link/network/dtls/mbedtls/mbedtls-2.16.2/library\rsa.c **** 
  74:C:/Users/dtjld/workspace/AIoT/src/LiteOS_Lab/iot_link/network/dtls/mbedtls/mbedtls-2.16.2/library\rsa.c **** /* Parameter validation macros */
  75:C:/Users/dtjld/workspace/AIoT/src/LiteOS_Lab/iot_link/network/dtls/mbedtls/mbedtls-2.16.2/library\rsa.c **** #define RSA_VALIDATE_RET( cond )                                       \
  76:C:/Users/dtjld/workspace/AIoT/src/LiteOS_Lab/iot_link/network/dtls/mbedtls/mbedtls-2.16.2/library\rsa.c ****     MBEDTLS_INTERNAL_VALIDATE_RET( cond, MBEDTLS_ERR_RSA_BAD_INPUT_DATA )
  77:C:/Users/dtjld/workspace/AIoT/src/LiteOS_Lab/iot_link/network/dtls/mbedtls/mbedtls-2.16.2/library\rsa.c **** #define RSA_VALIDATE( cond )                                           \
  78:C:/Users/dtjld/workspace/AIoT/src/LiteOS_Lab/iot_link/network/dtls/mbedtls/mbedtls-2.16.2/library\rsa.c ****     MBEDTLS_INTERNAL_VALIDATE( cond )
  79:C:/Users/dtjld/workspace/AIoT/src/LiteOS_Lab/iot_link/network/dtls/mbedtls/mbedtls-2.16.2/library\rsa.c **** 
  80:C:/Users/dtjld/workspace/AIoT/src/LiteOS_Lab/iot_link/network/dtls/mbedtls/mbedtls-2.16.2/library\rsa.c **** #if defined(MBEDTLS_PKCS1_V15)
  81:C:/Users/dtjld/workspace/AIoT/src/LiteOS_Lab/iot_link/network/dtls/mbedtls/mbedtls-2.16.2/library\rsa.c **** /* constant-time buffer comparison */
  82:C:/Users/dtjld/workspace/AIoT/src/LiteOS_Lab/iot_link/network/dtls/mbedtls/mbedtls-2.16.2/library\rsa.c **** static inline int mbedtls_safer_memcmp( const void *a, const void *b, size_t n )
  83:C:/Users/dtjld/workspace/AIoT/src/LiteOS_Lab/iot_link/network/dtls/mbedtls/mbedtls-2.16.2/library\rsa.c **** {
  27              		.loc 1 83 0
  28              		.cfi_startproc
  29              		@ args = 0, pretend = 0, frame = 32
  30              		@ frame_needed = 1, uses_anonymous_args = 0
  31              		@ link register save eliminated.
  32 0000 80B4     		push	{r7}
ARM GAS  C:\Users\dtjld\AppData\Local\Temp\cck1fUMg.s 			page 3


  33              	.LCFI0:
  34              		.cfi_def_cfa_offset 4
  35              		.cfi_offset 7, -4
  36 0002 89B0     		sub	sp, sp, #36
  37              	.LCFI1:
  38              		.cfi_def_cfa_offset 40
  39 0004 00AF     		add	r7, sp, #0
  40              	.LCFI2:
  41              		.cfi_def_cfa_register 7
  42 0006 F860     		str	r0, [r7, #12]
  43 0008 B960     		str	r1, [r7, #8]
  44 000a 7A60     		str	r2, [r7, #4]
  84:C:/Users/dtjld/workspace/AIoT/src/LiteOS_Lab/iot_link/network/dtls/mbedtls/mbedtls-2.16.2/library\rsa.c ****     size_t i;
  85:C:/Users/dtjld/workspace/AIoT/src/LiteOS_Lab/iot_link/network/dtls/mbedtls/mbedtls-2.16.2/library\rsa.c ****     const unsigned char *A = (const unsigned char *) a;
  45              		.loc 1 85 0
  46 000c FB68     		ldr	r3, [r7, #12]
  47 000e 7B61     		str	r3, [r7, #20]
  86:C:/Users/dtjld/workspace/AIoT/src/LiteOS_Lab/iot_link/network/dtls/mbedtls/mbedtls-2.16.2/library\rsa.c ****     const unsigned char *B = (const unsigned char *) b;
  48              		.loc 1 86 0
  49 0010 BB68     		ldr	r3, [r7, #8]
  50 0012 3B61     		str	r3, [r7, #16]
  87:C:/Users/dtjld/workspace/AIoT/src/LiteOS_Lab/iot_link/network/dtls/mbedtls/mbedtls-2.16.2/library\rsa.c ****     unsigned char diff = 0;
  51              		.loc 1 87 0
  52 0014 0023     		movs	r3, #0
  53 0016 FB76     		strb	r3, [r7, #27]
  88:C:/Users/dtjld/workspace/AIoT/src/LiteOS_Lab/iot_link/network/dtls/mbedtls/mbedtls-2.16.2/library\rsa.c **** 
  89:C:/Users/dtjld/workspace/AIoT/src/LiteOS_Lab/iot_link/network/dtls/mbedtls/mbedtls-2.16.2/library\rsa.c ****     for( i = 0; i < n; i++ )
  54              		.loc 1 89 0
  55 0018 0023     		movs	r3, #0
  56 001a FB61     		str	r3, [r7, #28]
  57 001c 0FE0     		b	.L2
  58              	.L3:
  90:C:/Users/dtjld/workspace/AIoT/src/LiteOS_Lab/iot_link/network/dtls/mbedtls/mbedtls-2.16.2/library\rsa.c ****         diff |= A[i] ^ B[i];
  59              		.loc 1 90 0 discriminator 3
  60 001e 7A69     		ldr	r2, [r7, #20]
  61 0020 FB69     		ldr	r3, [r7, #28]
  62 0022 1344     		add	r3, r3, r2
  63 0024 1A78     		ldrb	r2, [r3]	@ zero_extendqisi2
  64 0026 3969     		ldr	r1, [r7, #16]
  65 0028 FB69     		ldr	r3, [r7, #28]
  66 002a 0B44     		add	r3, r3, r1
  67 002c 1B78     		ldrb	r3, [r3]	@ zero_extendqisi2
  68 002e 5340     		eors	r3, r3, r2
  69 0030 DAB2     		uxtb	r2, r3
  70 0032 FB7E     		ldrb	r3, [r7, #27]
  71 0034 1343     		orrs	r3, r3, r2
  72 0036 FB76     		strb	r3, [r7, #27]
  89:C:/Users/dtjld/workspace/AIoT/src/LiteOS_Lab/iot_link/network/dtls/mbedtls/mbedtls-2.16.2/library\rsa.c ****         diff |= A[i] ^ B[i];
  73              		.loc 1 89 0 discriminator 3
  74 0038 FB69     		ldr	r3, [r7, #28]
  75 003a 0133     		adds	r3, r3, #1
  76 003c FB61     		str	r3, [r7, #28]
  77              	.L2:
  89:C:/Users/dtjld/workspace/AIoT/src/LiteOS_Lab/iot_link/network/dtls/mbedtls/mbedtls-2.16.2/library\rsa.c ****         diff |= A[i] ^ B[i];
  78              		.loc 1 89 0 is_stmt 0 discriminator 1
  79 003e FA69     		ldr	r2, [r7, #28]
  80 0040 7B68     		ldr	r3, [r7, #4]
ARM GAS  C:\Users\dtjld\AppData\Local\Temp\cck1fUMg.s 			page 4


  81 0042 9A42     		cmp	r2, r3
  82 0044 EBD3     		bcc	.L3
  91:C:/Users/dtjld/workspace/AIoT/src/LiteOS_Lab/iot_link/network/dtls/mbedtls/mbedtls-2.16.2/library\rsa.c **** 
  92:C:/Users/dtjld/workspace/AIoT/src/LiteOS_Lab/iot_link/network/dtls/mbedtls/mbedtls-2.16.2/library\rsa.c ****     return( diff );
  83              		.loc 1 92 0 is_stmt 1
  84 0046 FB7E     		ldrb	r3, [r7, #27]	@ zero_extendqisi2
  93:C:/Users/dtjld/workspace/AIoT/src/LiteOS_Lab/iot_link/network/dtls/mbedtls/mbedtls-2.16.2/library\rsa.c **** }
  85              		.loc 1 93 0
  86 0048 1846     		mov	r0, r3
  87 004a 2437     		adds	r7, r7, #36
  88              	.LCFI3:
  89              		.cfi_def_cfa_offset 4
  90 004c BD46     		mov	sp, r7
  91              	.LCFI4:
  92              		.cfi_def_cfa_register 13
  93              		@ sp needed
  94 004e 5DF8047B 		ldr	r7, [sp], #4
  95              	.LCFI5:
  96              		.cfi_restore 7
  97              		.cfi_def_cfa_offset 0
  98 0052 7047     		bx	lr
  99              		.cfi_endproc
 100              	.LFE13:
 102              		.section	.text.mbedtls_rsa_import,"ax",%progbits
 103              		.align	1
 104              		.global	mbedtls_rsa_import
 105              		.syntax unified
 106              		.thumb
 107              		.thumb_func
 108              		.fpu fpv4-sp-d16
 110              	mbedtls_rsa_import:
 111              	.LFB14:
  94:C:/Users/dtjld/workspace/AIoT/src/LiteOS_Lab/iot_link/network/dtls/mbedtls/mbedtls-2.16.2/library\rsa.c **** #endif /* MBEDTLS_PKCS1_V15 */
  95:C:/Users/dtjld/workspace/AIoT/src/LiteOS_Lab/iot_link/network/dtls/mbedtls/mbedtls-2.16.2/library\rsa.c **** 
  96:C:/Users/dtjld/workspace/AIoT/src/LiteOS_Lab/iot_link/network/dtls/mbedtls/mbedtls-2.16.2/library\rsa.c **** int mbedtls_rsa_import( mbedtls_rsa_context *ctx,
  97:C:/Users/dtjld/workspace/AIoT/src/LiteOS_Lab/iot_link/network/dtls/mbedtls/mbedtls-2.16.2/library\rsa.c ****                         const mbedtls_mpi *N,
  98:C:/Users/dtjld/workspace/AIoT/src/LiteOS_Lab/iot_link/network/dtls/mbedtls/mbedtls-2.16.2/library\rsa.c ****                         const mbedtls_mpi *P, const mbedtls_mpi *Q,
  99:C:/Users/dtjld/workspace/AIoT/src/LiteOS_Lab/iot_link/network/dtls/mbedtls/mbedtls-2.16.2/library\rsa.c ****                         const mbedtls_mpi *D, const mbedtls_mpi *E )
 100:C:/Users/dtjld/workspace/AIoT/src/LiteOS_Lab/iot_link/network/dtls/mbedtls/mbedtls-2.16.2/library\rsa.c **** {
 112              		.loc 1 100 0
 113              		.cfi_startproc
 114              		@ args = 8, pretend = 0, frame = 24
 115              		@ frame_needed = 1, uses_anonymous_args = 0
 116 0000 80B5     		push	{r7, lr}
 117              	.LCFI6:
 118              		.cfi_def_cfa_offset 8
 119              		.cfi_offset 7, -8
 120              		.cfi_offset 14, -4
 121 0002 86B0     		sub	sp, sp, #24
 122              	.LCFI7:
 123              		.cfi_def_cfa_offset 32
 124 0004 00AF     		add	r7, sp, #0
 125              	.LCFI8:
 126              		.cfi_def_cfa_register 7
 127 0006 F860     		str	r0, [r7, #12]
 128 0008 B960     		str	r1, [r7, #8]
 129 000a 7A60     		str	r2, [r7, #4]
ARM GAS  C:\Users\dtjld\AppData\Local\Temp\cck1fUMg.s 			page 5


 130 000c 3B60     		str	r3, [r7]
 101:C:/Users/dtjld/workspace/AIoT/src/LiteOS_Lab/iot_link/network/dtls/mbedtls/mbedtls-2.16.2/library\rsa.c ****     int ret;
 102:C:/Users/dtjld/workspace/AIoT/src/LiteOS_Lab/iot_link/network/dtls/mbedtls/mbedtls-2.16.2/library\rsa.c ****     RSA_VALIDATE_RET( ctx != NULL );
 103:C:/Users/dtjld/workspace/AIoT/src/LiteOS_Lab/iot_link/network/dtls/mbedtls/mbedtls-2.16.2/library\rsa.c **** 
 104:C:/Users/dtjld/workspace/AIoT/src/LiteOS_Lab/iot_link/network/dtls/mbedtls/mbedtls-2.16.2/library\rsa.c ****     if( ( N != NULL && ( ret = mbedtls_mpi_copy( &ctx->N, N ) ) != 0 ) ||
 131              		.loc 1 104 0
 132 000e BB68     		ldr	r3, [r7, #8]
 133 0010 002B     		cmp	r3, #0
 134 0012 09D0     		beq	.L6
 135              		.loc 1 104 0 is_stmt 0 discriminator 1
 136 0014 FB68     		ldr	r3, [r7, #12]
 137 0016 0833     		adds	r3, r3, #8
 138 0018 B968     		ldr	r1, [r7, #8]
 139 001a 1846     		mov	r0, r3
 140 001c FFF7FEFF 		bl	mbedtls_mpi_copy
 141 0020 7861     		str	r0, [r7, #20]
 142 0022 7B69     		ldr	r3, [r7, #20]
 143 0024 002B     		cmp	r3, #0
 144 0026 33D1     		bne	.L7
 145              	.L6:
 146              		.loc 1 104 0 discriminator 3
 147 0028 7B68     		ldr	r3, [r7, #4]
 148 002a 002B     		cmp	r3, #0
 149 002c 09D0     		beq	.L8
 105:C:/Users/dtjld/workspace/AIoT/src/LiteOS_Lab/iot_link/network/dtls/mbedtls/mbedtls-2.16.2/library\rsa.c ****         ( P != NULL && ( ret = mbedtls_mpi_copy( &ctx->P, P ) ) != 0 ) ||
 150              		.loc 1 105 0 is_stmt 1
 151 002e FB68     		ldr	r3, [r7, #12]
 152 0030 2C33     		adds	r3, r3, #44
 153 0032 7968     		ldr	r1, [r7, #4]
 154 0034 1846     		mov	r0, r3
 155 0036 FFF7FEFF 		bl	mbedtls_mpi_copy
 156 003a 7861     		str	r0, [r7, #20]
 157 003c 7B69     		ldr	r3, [r7, #20]
 158 003e 002B     		cmp	r3, #0
 159 0040 26D1     		bne	.L7
 160              	.L8:
 161              		.loc 1 105 0 is_stmt 0 discriminator 1
 162 0042 3B68     		ldr	r3, [r7]
 163 0044 002B     		cmp	r3, #0
 164 0046 09D0     		beq	.L9
 106:C:/Users/dtjld/workspace/AIoT/src/LiteOS_Lab/iot_link/network/dtls/mbedtls/mbedtls-2.16.2/library\rsa.c ****         ( Q != NULL && ( ret = mbedtls_mpi_copy( &ctx->Q, Q ) ) != 0 ) ||
 165              		.loc 1 106 0 is_stmt 1
 166 0048 FB68     		ldr	r3, [r7, #12]
 167 004a 3833     		adds	r3, r3, #56
 168 004c 3968     		ldr	r1, [r7]
 169 004e 1846     		mov	r0, r3
 170 0050 FFF7FEFF 		bl	mbedtls_mpi_copy
 171 0054 7861     		str	r0, [r7, #20]
 172 0056 7B69     		ldr	r3, [r7, #20]
 173 0058 002B     		cmp	r3, #0
 174 005a 19D1     		bne	.L7
 175              	.L9:
 176              		.loc 1 106 0 is_stmt 0 discriminator 1
 177 005c 3B6A     		ldr	r3, [r7, #32]
 178 005e 002B     		cmp	r3, #0
 179 0060 09D0     		beq	.L10
 107:C:/Users/dtjld/workspace/AIoT/src/LiteOS_Lab/iot_link/network/dtls/mbedtls/mbedtls-2.16.2/library\rsa.c ****         ( D != NULL && ( ret = mbedtls_mpi_copy( &ctx->D, D ) ) != 0 ) ||
ARM GAS  C:\Users\dtjld\AppData\Local\Temp\cck1fUMg.s 			page 6


 180              		.loc 1 107 0 is_stmt 1
 181 0062 FB68     		ldr	r3, [r7, #12]
 182 0064 2033     		adds	r3, r3, #32
 183 0066 396A     		ldr	r1, [r7, #32]
 184 0068 1846     		mov	r0, r3
 185 006a FFF7FEFF 		bl	mbedtls_mpi_copy
 186 006e 7861     		str	r0, [r7, #20]
 187 0070 7B69     		ldr	r3, [r7, #20]
 188 0072 002B     		cmp	r3, #0
 189 0074 0CD1     		bne	.L7
 190              	.L10:
 191              		.loc 1 107 0 is_stmt 0 discriminator 1
 192 0076 7B6A     		ldr	r3, [r7, #36]
 193 0078 002B     		cmp	r3, #0
 194 007a 0DD0     		beq	.L11
 108:C:/Users/dtjld/workspace/AIoT/src/LiteOS_Lab/iot_link/network/dtls/mbedtls/mbedtls-2.16.2/library\rsa.c ****         ( E != NULL && ( ret = mbedtls_mpi_copy( &ctx->E, E ) ) != 0 ) )
 195              		.loc 1 108 0 is_stmt 1
 196 007c FB68     		ldr	r3, [r7, #12]
 197 007e 1433     		adds	r3, r3, #20
 198 0080 796A     		ldr	r1, [r7, #36]
 199 0082 1846     		mov	r0, r3
 200 0084 FFF7FEFF 		bl	mbedtls_mpi_copy
 201 0088 7861     		str	r0, [r7, #20]
 202 008a 7B69     		ldr	r3, [r7, #20]
 203 008c 002B     		cmp	r3, #0
 204 008e 03D0     		beq	.L11
 205              	.L7:
 109:C:/Users/dtjld/workspace/AIoT/src/LiteOS_Lab/iot_link/network/dtls/mbedtls/mbedtls-2.16.2/library\rsa.c ****     {
 110:C:/Users/dtjld/workspace/AIoT/src/LiteOS_Lab/iot_link/network/dtls/mbedtls/mbedtls-2.16.2/library\rsa.c ****         return( MBEDTLS_ERR_RSA_BAD_INPUT_DATA + ret );
 206              		.loc 1 110 0
 207 0090 7B69     		ldr	r3, [r7, #20]
 208 0092 A3F58143 		sub	r3, r3, #16512
 209 0096 0BE0     		b	.L12
 210              	.L11:
 111:C:/Users/dtjld/workspace/AIoT/src/LiteOS_Lab/iot_link/network/dtls/mbedtls/mbedtls-2.16.2/library\rsa.c ****     }
 112:C:/Users/dtjld/workspace/AIoT/src/LiteOS_Lab/iot_link/network/dtls/mbedtls/mbedtls-2.16.2/library\rsa.c **** 
 113:C:/Users/dtjld/workspace/AIoT/src/LiteOS_Lab/iot_link/network/dtls/mbedtls/mbedtls-2.16.2/library\rsa.c ****     if( N != NULL )
 211              		.loc 1 113 0
 212 0098 BB68     		ldr	r3, [r7, #8]
 213 009a 002B     		cmp	r3, #0
 214 009c 07D0     		beq	.L13
 114:C:/Users/dtjld/workspace/AIoT/src/LiteOS_Lab/iot_link/network/dtls/mbedtls/mbedtls-2.16.2/library\rsa.c ****         ctx->len = mbedtls_mpi_size( &ctx->N );
 215              		.loc 1 114 0
 216 009e FB68     		ldr	r3, [r7, #12]
 217 00a0 0833     		adds	r3, r3, #8
 218 00a2 1846     		mov	r0, r3
 219 00a4 FFF7FEFF 		bl	mbedtls_mpi_size
 220 00a8 0246     		mov	r2, r0
 221 00aa FB68     		ldr	r3, [r7, #12]
 222 00ac 5A60     		str	r2, [r3, #4]
 223              	.L13:
 115:C:/Users/dtjld/workspace/AIoT/src/LiteOS_Lab/iot_link/network/dtls/mbedtls/mbedtls-2.16.2/library\rsa.c **** 
 116:C:/Users/dtjld/workspace/AIoT/src/LiteOS_Lab/iot_link/network/dtls/mbedtls/mbedtls-2.16.2/library\rsa.c ****     return( 0 );
 224              		.loc 1 116 0
 225 00ae 0023     		movs	r3, #0
 226              	.L12:
 117:C:/Users/dtjld/workspace/AIoT/src/LiteOS_Lab/iot_link/network/dtls/mbedtls/mbedtls-2.16.2/library\rsa.c **** }
ARM GAS  C:\Users\dtjld\AppData\Local\Temp\cck1fUMg.s 			page 7


 227              		.loc 1 117 0
 228 00b0 1846     		mov	r0, r3
 229 00b2 1837     		adds	r7, r7, #24
 230              	.LCFI9:
 231              		.cfi_def_cfa_offset 8
 232 00b4 BD46     		mov	sp, r7
 233              	.LCFI10:
 234              		.cfi_def_cfa_register 13
 235              		@ sp needed
 236 00b6 80BD     		pop	{r7, pc}
 237              		.cfi_endproc
 238              	.LFE14:
 240              		.section	.text.mbedtls_rsa_import_raw,"ax",%progbits
 241              		.align	1
 242              		.global	mbedtls_rsa_import_raw
 243              		.syntax unified
 244              		.thumb
 245              		.thumb_func
 246              		.fpu fpv4-sp-d16
 248              	mbedtls_rsa_import_raw:
 249              	.LFB15:
 118:C:/Users/dtjld/workspace/AIoT/src/LiteOS_Lab/iot_link/network/dtls/mbedtls/mbedtls-2.16.2/library\rsa.c **** 
 119:C:/Users/dtjld/workspace/AIoT/src/LiteOS_Lab/iot_link/network/dtls/mbedtls/mbedtls-2.16.2/library\rsa.c **** int mbedtls_rsa_import_raw( mbedtls_rsa_context *ctx,
 120:C:/Users/dtjld/workspace/AIoT/src/LiteOS_Lab/iot_link/network/dtls/mbedtls/mbedtls-2.16.2/library\rsa.c ****                             unsigned char const *N, size_t N_len,
 121:C:/Users/dtjld/workspace/AIoT/src/LiteOS_Lab/iot_link/network/dtls/mbedtls/mbedtls-2.16.2/library\rsa.c ****                             unsigned char const *P, size_t P_len,
 122:C:/Users/dtjld/workspace/AIoT/src/LiteOS_Lab/iot_link/network/dtls/mbedtls/mbedtls-2.16.2/library\rsa.c ****                             unsigned char const *Q, size_t Q_len,
 123:C:/Users/dtjld/workspace/AIoT/src/LiteOS_Lab/iot_link/network/dtls/mbedtls/mbedtls-2.16.2/library\rsa.c ****                             unsigned char const *D, size_t D_len,
 124:C:/Users/dtjld/workspace/AIoT/src/LiteOS_Lab/iot_link/network/dtls/mbedtls/mbedtls-2.16.2/library\rsa.c ****                             unsigned char const *E, size_t E_len )
 125:C:/Users/dtjld/workspace/AIoT/src/LiteOS_Lab/iot_link/network/dtls/mbedtls/mbedtls-2.16.2/library\rsa.c **** {
 250              		.loc 1 125 0
 251              		.cfi_startproc
 252              		@ args = 28, pretend = 0, frame = 24
 253              		@ frame_needed = 1, uses_anonymous_args = 0
 254 0000 80B5     		push	{r7, lr}
 255              	.LCFI11:
 256              		.cfi_def_cfa_offset 8
 257              		.cfi_offset 7, -8
 258              		.cfi_offset 14, -4
 259 0002 86B0     		sub	sp, sp, #24
 260              	.LCFI12:
 261              		.cfi_def_cfa_offset 32
 262 0004 00AF     		add	r7, sp, #0
 263              	.LCFI13:
 264              		.cfi_def_cfa_register 7
 265 0006 F860     		str	r0, [r7, #12]
 266 0008 B960     		str	r1, [r7, #8]
 267 000a 7A60     		str	r2, [r7, #4]
 268 000c 3B60     		str	r3, [r7]
 126:C:/Users/dtjld/workspace/AIoT/src/LiteOS_Lab/iot_link/network/dtls/mbedtls/mbedtls-2.16.2/library\rsa.c ****     int ret = 0;
 269              		.loc 1 126 0
 270 000e 0023     		movs	r3, #0
 271 0010 7B61     		str	r3, [r7, #20]
 127:C:/Users/dtjld/workspace/AIoT/src/LiteOS_Lab/iot_link/network/dtls/mbedtls/mbedtls-2.16.2/library\rsa.c ****     RSA_VALIDATE_RET( ctx != NULL );
 128:C:/Users/dtjld/workspace/AIoT/src/LiteOS_Lab/iot_link/network/dtls/mbedtls/mbedtls-2.16.2/library\rsa.c **** 
 129:C:/Users/dtjld/workspace/AIoT/src/LiteOS_Lab/iot_link/network/dtls/mbedtls/mbedtls-2.16.2/library\rsa.c ****     if( N != NULL )
 272              		.loc 1 129 0
 273 0012 BB68     		ldr	r3, [r7, #8]
ARM GAS  C:\Users\dtjld\AppData\Local\Temp\cck1fUMg.s 			page 8


 274 0014 002B     		cmp	r3, #0
 275 0016 12D0     		beq	.L15
 130:C:/Users/dtjld/workspace/AIoT/src/LiteOS_Lab/iot_link/network/dtls/mbedtls/mbedtls-2.16.2/library\rsa.c ****     {
 131:C:/Users/dtjld/workspace/AIoT/src/LiteOS_Lab/iot_link/network/dtls/mbedtls/mbedtls-2.16.2/library\rsa.c ****         MBEDTLS_MPI_CHK( mbedtls_mpi_read_binary( &ctx->N, N, N_len ) );
 276              		.loc 1 131 0
 277 0018 FB68     		ldr	r3, [r7, #12]
 278 001a 0833     		adds	r3, r3, #8
 279 001c 7A68     		ldr	r2, [r7, #4]
 280 001e B968     		ldr	r1, [r7, #8]
 281 0020 1846     		mov	r0, r3
 282 0022 FFF7FEFF 		bl	mbedtls_mpi_read_binary
 283 0026 7861     		str	r0, [r7, #20]
 284 0028 7B69     		ldr	r3, [r7, #20]
 285 002a 002B     		cmp	r3, #0
 286 002c 3FD1     		bne	.L23
 132:C:/Users/dtjld/workspace/AIoT/src/LiteOS_Lab/iot_link/network/dtls/mbedtls/mbedtls-2.16.2/library\rsa.c ****         ctx->len = mbedtls_mpi_size( &ctx->N );
 287              		.loc 1 132 0
 288 002e FB68     		ldr	r3, [r7, #12]
 289 0030 0833     		adds	r3, r3, #8
 290 0032 1846     		mov	r0, r3
 291 0034 FFF7FEFF 		bl	mbedtls_mpi_size
 292 0038 0246     		mov	r2, r0
 293 003a FB68     		ldr	r3, [r7, #12]
 294 003c 5A60     		str	r2, [r3, #4]
 295              	.L15:
 133:C:/Users/dtjld/workspace/AIoT/src/LiteOS_Lab/iot_link/network/dtls/mbedtls/mbedtls-2.16.2/library\rsa.c ****     }
 134:C:/Users/dtjld/workspace/AIoT/src/LiteOS_Lab/iot_link/network/dtls/mbedtls/mbedtls-2.16.2/library\rsa.c **** 
 135:C:/Users/dtjld/workspace/AIoT/src/LiteOS_Lab/iot_link/network/dtls/mbedtls/mbedtls-2.16.2/library\rsa.c ****     if( P != NULL )
 296              		.loc 1 135 0
 297 003e 3B68     		ldr	r3, [r7]
 298 0040 002B     		cmp	r3, #0
 299 0042 0AD0     		beq	.L18
 136:C:/Users/dtjld/workspace/AIoT/src/LiteOS_Lab/iot_link/network/dtls/mbedtls/mbedtls-2.16.2/library\rsa.c ****         MBEDTLS_MPI_CHK( mbedtls_mpi_read_binary( &ctx->P, P, P_len ) );
 300              		.loc 1 136 0
 301 0044 FB68     		ldr	r3, [r7, #12]
 302 0046 2C33     		adds	r3, r3, #44
 303 0048 3A6A     		ldr	r2, [r7, #32]
 304 004a 3968     		ldr	r1, [r7]
 305 004c 1846     		mov	r0, r3
 306 004e FFF7FEFF 		bl	mbedtls_mpi_read_binary
 307 0052 7861     		str	r0, [r7, #20]
 308 0054 7B69     		ldr	r3, [r7, #20]
 309 0056 002B     		cmp	r3, #0
 310 0058 2BD1     		bne	.L24
 311              	.L18:
 137:C:/Users/dtjld/workspace/AIoT/src/LiteOS_Lab/iot_link/network/dtls/mbedtls/mbedtls-2.16.2/library\rsa.c **** 
 138:C:/Users/dtjld/workspace/AIoT/src/LiteOS_Lab/iot_link/network/dtls/mbedtls/mbedtls-2.16.2/library\rsa.c ****     if( Q != NULL )
 312              		.loc 1 138 0
 313 005a 7B6A     		ldr	r3, [r7, #36]
 314 005c 002B     		cmp	r3, #0
 315 005e 0AD0     		beq	.L19
 139:C:/Users/dtjld/workspace/AIoT/src/LiteOS_Lab/iot_link/network/dtls/mbedtls/mbedtls-2.16.2/library\rsa.c ****         MBEDTLS_MPI_CHK( mbedtls_mpi_read_binary( &ctx->Q, Q, Q_len ) );
 316              		.loc 1 139 0
 317 0060 FB68     		ldr	r3, [r7, #12]
 318 0062 3833     		adds	r3, r3, #56
 319 0064 BA6A     		ldr	r2, [r7, #40]
 320 0066 796A     		ldr	r1, [r7, #36]
ARM GAS  C:\Users\dtjld\AppData\Local\Temp\cck1fUMg.s 			page 9


 321 0068 1846     		mov	r0, r3
 322 006a FFF7FEFF 		bl	mbedtls_mpi_read_binary
 323 006e 7861     		str	r0, [r7, #20]
 324 0070 7B69     		ldr	r3, [r7, #20]
 325 0072 002B     		cmp	r3, #0
 326 0074 1FD1     		bne	.L25
 327              	.L19:
 140:C:/Users/dtjld/workspace/AIoT/src/LiteOS_Lab/iot_link/network/dtls/mbedtls/mbedtls-2.16.2/library\rsa.c **** 
 141:C:/Users/dtjld/workspace/AIoT/src/LiteOS_Lab/iot_link/network/dtls/mbedtls/mbedtls-2.16.2/library\rsa.c ****     if( D != NULL )
 328              		.loc 1 141 0
 329 0076 FB6A     		ldr	r3, [r7, #44]
 330 0078 002B     		cmp	r3, #0
 331 007a 0AD0     		beq	.L20
 142:C:/Users/dtjld/workspace/AIoT/src/LiteOS_Lab/iot_link/network/dtls/mbedtls/mbedtls-2.16.2/library\rsa.c ****         MBEDTLS_MPI_CHK( mbedtls_mpi_read_binary( &ctx->D, D, D_len ) );
 332              		.loc 1 142 0
 333 007c FB68     		ldr	r3, [r7, #12]
 334 007e 2033     		adds	r3, r3, #32
 335 0080 3A6B     		ldr	r2, [r7, #48]
 336 0082 F96A     		ldr	r1, [r7, #44]
 337 0084 1846     		mov	r0, r3
 338 0086 FFF7FEFF 		bl	mbedtls_mpi_read_binary
 339 008a 7861     		str	r0, [r7, #20]
 340 008c 7B69     		ldr	r3, [r7, #20]
 341 008e 002B     		cmp	r3, #0
 342 0090 13D1     		bne	.L26
 343              	.L20:
 143:C:/Users/dtjld/workspace/AIoT/src/LiteOS_Lab/iot_link/network/dtls/mbedtls/mbedtls-2.16.2/library\rsa.c **** 
 144:C:/Users/dtjld/workspace/AIoT/src/LiteOS_Lab/iot_link/network/dtls/mbedtls/mbedtls-2.16.2/library\rsa.c ****     if( E != NULL )
 344              		.loc 1 144 0
 345 0092 7B6B     		ldr	r3, [r7, #52]
 346 0094 002B     		cmp	r3, #0
 347 0096 12D0     		beq	.L27
 145:C:/Users/dtjld/workspace/AIoT/src/LiteOS_Lab/iot_link/network/dtls/mbedtls/mbedtls-2.16.2/library\rsa.c ****         MBEDTLS_MPI_CHK( mbedtls_mpi_read_binary( &ctx->E, E, E_len ) );
 348              		.loc 1 145 0
 349 0098 FB68     		ldr	r3, [r7, #12]
 350 009a 1433     		adds	r3, r3, #20
 351 009c BA6B     		ldr	r2, [r7, #56]
 352 009e 796B     		ldr	r1, [r7, #52]
 353 00a0 1846     		mov	r0, r3
 354 00a2 FFF7FEFF 		bl	mbedtls_mpi_read_binary
 355 00a6 7861     		str	r0, [r7, #20]
 356 00a8 7B69     		ldr	r3, [r7, #20]
 357 00aa 002B     		cmp	r3, #0
 146:C:/Users/dtjld/workspace/AIoT/src/LiteOS_Lab/iot_link/network/dtls/mbedtls/mbedtls-2.16.2/library\rsa.c **** 
 147:C:/Users/dtjld/workspace/AIoT/src/LiteOS_Lab/iot_link/network/dtls/mbedtls/mbedtls-2.16.2/library\rsa.c **** cleanup:
 358              		.loc 1 147 0
 359 00ac 07E0     		b	.L27
 360              	.L23:
 131:C:/Users/dtjld/workspace/AIoT/src/LiteOS_Lab/iot_link/network/dtls/mbedtls/mbedtls-2.16.2/library\rsa.c ****         ctx->len = mbedtls_mpi_size( &ctx->N );
 361              		.loc 1 131 0
 362 00ae 00BF     		nop
 363 00b0 06E0     		b	.L17
 364              	.L24:
 136:C:/Users/dtjld/workspace/AIoT/src/LiteOS_Lab/iot_link/network/dtls/mbedtls/mbedtls-2.16.2/library\rsa.c **** 
 365              		.loc 1 136 0
 366 00b2 00BF     		nop
 367 00b4 04E0     		b	.L17
ARM GAS  C:\Users\dtjld\AppData\Local\Temp\cck1fUMg.s 			page 10


 368              	.L25:
 139:C:/Users/dtjld/workspace/AIoT/src/LiteOS_Lab/iot_link/network/dtls/mbedtls/mbedtls-2.16.2/library\rsa.c **** 
 369              		.loc 1 139 0
 370 00b6 00BF     		nop
 371 00b8 02E0     		b	.L17
 372              	.L26:
 142:C:/Users/dtjld/workspace/AIoT/src/LiteOS_Lab/iot_link/network/dtls/mbedtls/mbedtls-2.16.2/library\rsa.c **** 
 373              		.loc 1 142 0
 374 00ba 00BF     		nop
 375 00bc 00E0     		b	.L17
 376              	.L27:
 377              		.loc 1 147 0
 378 00be 00BF     		nop
 379              	.L17:
 148:C:/Users/dtjld/workspace/AIoT/src/LiteOS_Lab/iot_link/network/dtls/mbedtls/mbedtls-2.16.2/library\rsa.c **** 
 149:C:/Users/dtjld/workspace/AIoT/src/LiteOS_Lab/iot_link/network/dtls/mbedtls/mbedtls-2.16.2/library\rsa.c ****     if( ret != 0 )
 380              		.loc 1 149 0
 381 00c0 7B69     		ldr	r3, [r7, #20]
 382 00c2 002B     		cmp	r3, #0
 383 00c4 03D0     		beq	.L21
 150:C:/Users/dtjld/workspace/AIoT/src/LiteOS_Lab/iot_link/network/dtls/mbedtls/mbedtls-2.16.2/library\rsa.c ****         return( MBEDTLS_ERR_RSA_BAD_INPUT_DATA + ret );
 384              		.loc 1 150 0
 385 00c6 7B69     		ldr	r3, [r7, #20]
 386 00c8 A3F58143 		sub	r3, r3, #16512
 387 00cc 00E0     		b	.L22
 388              	.L21:
 151:C:/Users/dtjld/workspace/AIoT/src/LiteOS_Lab/iot_link/network/dtls/mbedtls/mbedtls-2.16.2/library\rsa.c **** 
 152:C:/Users/dtjld/workspace/AIoT/src/LiteOS_Lab/iot_link/network/dtls/mbedtls/mbedtls-2.16.2/library\rsa.c ****     return( 0 );
 389              		.loc 1 152 0
 390 00ce 0023     		movs	r3, #0
 391              	.L22:
 153:C:/Users/dtjld/workspace/AIoT/src/LiteOS_Lab/iot_link/network/dtls/mbedtls/mbedtls-2.16.2/library\rsa.c **** }
 392              		.loc 1 153 0
 393 00d0 1846     		mov	r0, r3
 394 00d2 1837     		adds	r7, r7, #24
 395              	.LCFI14:
 396              		.cfi_def_cfa_offset 8
 397 00d4 BD46     		mov	sp, r7
 398              	.LCFI15:
 399              		.cfi_def_cfa_register 13
 400              		@ sp needed
 401 00d6 80BD     		pop	{r7, pc}
 402              		.cfi_endproc
 403              	.LFE15:
 405              		.section	.text.rsa_check_context,"ax",%progbits
 406              		.align	1
 407              		.syntax unified
 408              		.thumb
 409              		.thumb_func
 410              		.fpu fpv4-sp-d16
 412              	rsa_check_context:
 413              	.LFB16:
 154:C:/Users/dtjld/workspace/AIoT/src/LiteOS_Lab/iot_link/network/dtls/mbedtls/mbedtls-2.16.2/library\rsa.c **** 
 155:C:/Users/dtjld/workspace/AIoT/src/LiteOS_Lab/iot_link/network/dtls/mbedtls/mbedtls-2.16.2/library\rsa.c **** /*
 156:C:/Users/dtjld/workspace/AIoT/src/LiteOS_Lab/iot_link/network/dtls/mbedtls/mbedtls-2.16.2/library\rsa.c ****  * Checks whether the context fields are set in such a way
 157:C:/Users/dtjld/workspace/AIoT/src/LiteOS_Lab/iot_link/network/dtls/mbedtls/mbedtls-2.16.2/library\rsa.c ****  * that the RSA primitives will be able to execute without error.
 158:C:/Users/dtjld/workspace/AIoT/src/LiteOS_Lab/iot_link/network/dtls/mbedtls/mbedtls-2.16.2/library\rsa.c ****  * It does *not* make guarantees for consistency of the parameters.
ARM GAS  C:\Users\dtjld\AppData\Local\Temp\cck1fUMg.s 			page 11


 159:C:/Users/dtjld/workspace/AIoT/src/LiteOS_Lab/iot_link/network/dtls/mbedtls/mbedtls-2.16.2/library\rsa.c ****  */
 160:C:/Users/dtjld/workspace/AIoT/src/LiteOS_Lab/iot_link/network/dtls/mbedtls/mbedtls-2.16.2/library\rsa.c **** static int rsa_check_context( mbedtls_rsa_context const *ctx, int is_priv,
 161:C:/Users/dtjld/workspace/AIoT/src/LiteOS_Lab/iot_link/network/dtls/mbedtls/mbedtls-2.16.2/library\rsa.c ****                               int blinding_needed )
 162:C:/Users/dtjld/workspace/AIoT/src/LiteOS_Lab/iot_link/network/dtls/mbedtls/mbedtls-2.16.2/library\rsa.c **** {
 414              		.loc 1 162 0
 415              		.cfi_startproc
 416              		@ args = 0, pretend = 0, frame = 16
 417              		@ frame_needed = 1, uses_anonymous_args = 0
 418 0000 90B5     		push	{r4, r7, lr}
 419              	.LCFI16:
 420              		.cfi_def_cfa_offset 12
 421              		.cfi_offset 4, -12
 422              		.cfi_offset 7, -8
 423              		.cfi_offset 14, -4
 424 0002 85B0     		sub	sp, sp, #20
 425              	.LCFI17:
 426              		.cfi_def_cfa_offset 32
 427 0004 00AF     		add	r7, sp, #0
 428              	.LCFI18:
 429              		.cfi_def_cfa_register 7
 430 0006 F860     		str	r0, [r7, #12]
 431 0008 B960     		str	r1, [r7, #8]
 432 000a 7A60     		str	r2, [r7, #4]
 163:C:/Users/dtjld/workspace/AIoT/src/LiteOS_Lab/iot_link/network/dtls/mbedtls/mbedtls-2.16.2/library\rsa.c **** #if !defined(MBEDTLS_RSA_NO_CRT)
 164:C:/Users/dtjld/workspace/AIoT/src/LiteOS_Lab/iot_link/network/dtls/mbedtls/mbedtls-2.16.2/library\rsa.c ****     /* blinding_needed is only used for NO_CRT to decide whether
 165:C:/Users/dtjld/workspace/AIoT/src/LiteOS_Lab/iot_link/network/dtls/mbedtls/mbedtls-2.16.2/library\rsa.c ****      * P,Q need to be present or not. */
 166:C:/Users/dtjld/workspace/AIoT/src/LiteOS_Lab/iot_link/network/dtls/mbedtls/mbedtls-2.16.2/library\rsa.c ****     ((void) blinding_needed);
 167:C:/Users/dtjld/workspace/AIoT/src/LiteOS_Lab/iot_link/network/dtls/mbedtls/mbedtls-2.16.2/library\rsa.c **** #endif
 168:C:/Users/dtjld/workspace/AIoT/src/LiteOS_Lab/iot_link/network/dtls/mbedtls/mbedtls-2.16.2/library\rsa.c **** 
 169:C:/Users/dtjld/workspace/AIoT/src/LiteOS_Lab/iot_link/network/dtls/mbedtls/mbedtls-2.16.2/library\rsa.c ****     if( ctx->len != mbedtls_mpi_size( &ctx->N ) ||
 433              		.loc 1 169 0
 434 000c FB68     		ldr	r3, [r7, #12]
 435 000e 5C68     		ldr	r4, [r3, #4]
 436 0010 FB68     		ldr	r3, [r7, #12]
 437 0012 0833     		adds	r3, r3, #8
 438 0014 1846     		mov	r0, r3
 439 0016 FFF7FEFF 		bl	mbedtls_mpi_size
 440 001a 0346     		mov	r3, r0
 441 001c 9C42     		cmp	r4, r3
 442 001e 04D1     		bne	.L29
 170:C:/Users/dtjld/workspace/AIoT/src/LiteOS_Lab/iot_link/network/dtls/mbedtls/mbedtls-2.16.2/library\rsa.c ****         ctx->len > MBEDTLS_MPI_MAX_SIZE )
 443              		.loc 1 170 0 discriminator 1
 444 0020 FB68     		ldr	r3, [r7, #12]
 445 0022 5B68     		ldr	r3, [r3, #4]
 169:C:/Users/dtjld/workspace/AIoT/src/LiteOS_Lab/iot_link/network/dtls/mbedtls/mbedtls-2.16.2/library\rsa.c ****         ctx->len > MBEDTLS_MPI_MAX_SIZE )
 446              		.loc 1 169 0 discriminator 1
 447 0024 B3F5806F 		cmp	r3, #1024
 448 0028 01D9     		bls	.L30
 449              	.L29:
 171:C:/Users/dtjld/workspace/AIoT/src/LiteOS_Lab/iot_link/network/dtls/mbedtls/mbedtls-2.16.2/library\rsa.c ****     {
 172:C:/Users/dtjld/workspace/AIoT/src/LiteOS_Lab/iot_link/network/dtls/mbedtls/mbedtls-2.16.2/library\rsa.c ****         return( MBEDTLS_ERR_RSA_BAD_INPUT_DATA );
 450              		.loc 1 172 0
 451 002a 3A4B     		ldr	r3, .L40
 452 002c 6DE0     		b	.L31
 453              	.L30:
 173:C:/Users/dtjld/workspace/AIoT/src/LiteOS_Lab/iot_link/network/dtls/mbedtls/mbedtls-2.16.2/library\rsa.c ****     }
 174:C:/Users/dtjld/workspace/AIoT/src/LiteOS_Lab/iot_link/network/dtls/mbedtls/mbedtls-2.16.2/library\rsa.c **** 
ARM GAS  C:\Users\dtjld\AppData\Local\Temp\cck1fUMg.s 			page 12


 175:C:/Users/dtjld/workspace/AIoT/src/LiteOS_Lab/iot_link/network/dtls/mbedtls/mbedtls-2.16.2/library\rsa.c ****     /*
 176:C:/Users/dtjld/workspace/AIoT/src/LiteOS_Lab/iot_link/network/dtls/mbedtls/mbedtls-2.16.2/library\rsa.c ****      * 1. Modular exponentiation needs positive, odd moduli.
 177:C:/Users/dtjld/workspace/AIoT/src/LiteOS_Lab/iot_link/network/dtls/mbedtls/mbedtls-2.16.2/library\rsa.c ****      */
 178:C:/Users/dtjld/workspace/AIoT/src/LiteOS_Lab/iot_link/network/dtls/mbedtls/mbedtls-2.16.2/library\rsa.c **** 
 179:C:/Users/dtjld/workspace/AIoT/src/LiteOS_Lab/iot_link/network/dtls/mbedtls/mbedtls-2.16.2/library\rsa.c ****     /* Modular exponentiation wrt. N is always used for
 180:C:/Users/dtjld/workspace/AIoT/src/LiteOS_Lab/iot_link/network/dtls/mbedtls/mbedtls-2.16.2/library\rsa.c ****      * RSA public key operations. */
 181:C:/Users/dtjld/workspace/AIoT/src/LiteOS_Lab/iot_link/network/dtls/mbedtls/mbedtls-2.16.2/library\rsa.c ****     if( mbedtls_mpi_cmp_int( &ctx->N, 0 ) <= 0 ||
 454              		.loc 1 181 0
 455 002e FB68     		ldr	r3, [r7, #12]
 456 0030 0833     		adds	r3, r3, #8
 457 0032 0021     		movs	r1, #0
 458 0034 1846     		mov	r0, r3
 459 0036 FFF7FEFF 		bl	mbedtls_mpi_cmp_int
 460 003a 0346     		mov	r3, r0
 461 003c 002B     		cmp	r3, #0
 462 003e 08DD     		ble	.L32
 182:C:/Users/dtjld/workspace/AIoT/src/LiteOS_Lab/iot_link/network/dtls/mbedtls/mbedtls-2.16.2/library\rsa.c ****         mbedtls_mpi_get_bit( &ctx->N, 0 ) == 0  )
 463              		.loc 1 182 0 discriminator 1
 464 0040 FB68     		ldr	r3, [r7, #12]
 465 0042 0833     		adds	r3, r3, #8
 466 0044 0021     		movs	r1, #0
 467 0046 1846     		mov	r0, r3
 468 0048 FFF7FEFF 		bl	mbedtls_mpi_get_bit
 469 004c 0346     		mov	r3, r0
 181:C:/Users/dtjld/workspace/AIoT/src/LiteOS_Lab/iot_link/network/dtls/mbedtls/mbedtls-2.16.2/library\rsa.c ****         mbedtls_mpi_get_bit( &ctx->N, 0 ) == 0  )
 470              		.loc 1 181 0 discriminator 1
 471 004e 002B     		cmp	r3, #0
 472 0050 01D1     		bne	.L33
 473              	.L32:
 183:C:/Users/dtjld/workspace/AIoT/src/LiteOS_Lab/iot_link/network/dtls/mbedtls/mbedtls-2.16.2/library\rsa.c ****     {
 184:C:/Users/dtjld/workspace/AIoT/src/LiteOS_Lab/iot_link/network/dtls/mbedtls/mbedtls-2.16.2/library\rsa.c ****         return( MBEDTLS_ERR_RSA_BAD_INPUT_DATA );
 474              		.loc 1 184 0
 475 0052 304B     		ldr	r3, .L40
 476 0054 59E0     		b	.L31
 477              	.L33:
 185:C:/Users/dtjld/workspace/AIoT/src/LiteOS_Lab/iot_link/network/dtls/mbedtls/mbedtls-2.16.2/library\rsa.c ****     }
 186:C:/Users/dtjld/workspace/AIoT/src/LiteOS_Lab/iot_link/network/dtls/mbedtls/mbedtls-2.16.2/library\rsa.c **** 
 187:C:/Users/dtjld/workspace/AIoT/src/LiteOS_Lab/iot_link/network/dtls/mbedtls/mbedtls-2.16.2/library\rsa.c **** #if !defined(MBEDTLS_RSA_NO_CRT)
 188:C:/Users/dtjld/workspace/AIoT/src/LiteOS_Lab/iot_link/network/dtls/mbedtls/mbedtls-2.16.2/library\rsa.c ****     /* Modular exponentiation for P and Q is only
 189:C:/Users/dtjld/workspace/AIoT/src/LiteOS_Lab/iot_link/network/dtls/mbedtls/mbedtls-2.16.2/library\rsa.c ****      * used for private key operations and if CRT
 190:C:/Users/dtjld/workspace/AIoT/src/LiteOS_Lab/iot_link/network/dtls/mbedtls/mbedtls-2.16.2/library\rsa.c ****      * is used. */
 191:C:/Users/dtjld/workspace/AIoT/src/LiteOS_Lab/iot_link/network/dtls/mbedtls/mbedtls-2.16.2/library\rsa.c ****     if( is_priv &&
 478              		.loc 1 191 0
 479 0056 BB68     		ldr	r3, [r7, #8]
 480 0058 002B     		cmp	r3, #0
 481 005a 25D0     		beq	.L34
 192:C:/Users/dtjld/workspace/AIoT/src/LiteOS_Lab/iot_link/network/dtls/mbedtls/mbedtls-2.16.2/library\rsa.c ****         ( mbedtls_mpi_cmp_int( &ctx->P, 0 ) <= 0 ||
 482              		.loc 1 192 0 discriminator 1
 483 005c FB68     		ldr	r3, [r7, #12]
 484 005e 2C33     		adds	r3, r3, #44
 485 0060 0021     		movs	r1, #0
 486 0062 1846     		mov	r0, r3
 487 0064 FFF7FEFF 		bl	mbedtls_mpi_cmp_int
 488 0068 0346     		mov	r3, r0
 191:C:/Users/dtjld/workspace/AIoT/src/LiteOS_Lab/iot_link/network/dtls/mbedtls/mbedtls-2.16.2/library\rsa.c ****         ( mbedtls_mpi_cmp_int( &ctx->P, 0 ) <= 0 ||
 489              		.loc 1 191 0 discriminator 1
 490 006a 002B     		cmp	r3, #0
ARM GAS  C:\Users\dtjld\AppData\Local\Temp\cck1fUMg.s 			page 13


 491 006c 1ADD     		ble	.L35
 193:C:/Users/dtjld/workspace/AIoT/src/LiteOS_Lab/iot_link/network/dtls/mbedtls/mbedtls-2.16.2/library\rsa.c ****           mbedtls_mpi_get_bit( &ctx->P, 0 ) == 0 ||
 492              		.loc 1 193 0
 493 006e FB68     		ldr	r3, [r7, #12]
 494 0070 2C33     		adds	r3, r3, #44
 495 0072 0021     		movs	r1, #0
 496 0074 1846     		mov	r0, r3
 497 0076 FFF7FEFF 		bl	mbedtls_mpi_get_bit
 498 007a 0346     		mov	r3, r0
 192:C:/Users/dtjld/workspace/AIoT/src/LiteOS_Lab/iot_link/network/dtls/mbedtls/mbedtls-2.16.2/library\rsa.c ****         ( mbedtls_mpi_cmp_int( &ctx->P, 0 ) <= 0 ||
 499              		.loc 1 192 0
 500 007c 002B     		cmp	r3, #0
 501 007e 11D0     		beq	.L35
 194:C:/Users/dtjld/workspace/AIoT/src/LiteOS_Lab/iot_link/network/dtls/mbedtls/mbedtls-2.16.2/library\rsa.c ****           mbedtls_mpi_cmp_int( &ctx->Q, 0 ) <= 0 ||
 502              		.loc 1 194 0
 503 0080 FB68     		ldr	r3, [r7, #12]
 504 0082 3833     		adds	r3, r3, #56
 505 0084 0021     		movs	r1, #0
 506 0086 1846     		mov	r0, r3
 507 0088 FFF7FEFF 		bl	mbedtls_mpi_cmp_int
 508 008c 0346     		mov	r3, r0
 193:C:/Users/dtjld/workspace/AIoT/src/LiteOS_Lab/iot_link/network/dtls/mbedtls/mbedtls-2.16.2/library\rsa.c ****           mbedtls_mpi_get_bit( &ctx->P, 0 ) == 0 ||
 509              		.loc 1 193 0
 510 008e 002B     		cmp	r3, #0
 511 0090 08DD     		ble	.L35
 195:C:/Users/dtjld/workspace/AIoT/src/LiteOS_Lab/iot_link/network/dtls/mbedtls/mbedtls-2.16.2/library\rsa.c ****           mbedtls_mpi_get_bit( &ctx->Q, 0 ) == 0  ) )
 512              		.loc 1 195 0
 513 0092 FB68     		ldr	r3, [r7, #12]
 514 0094 3833     		adds	r3, r3, #56
 515 0096 0021     		movs	r1, #0
 516 0098 1846     		mov	r0, r3
 517 009a FFF7FEFF 		bl	mbedtls_mpi_get_bit
 518 009e 0346     		mov	r3, r0
 194:C:/Users/dtjld/workspace/AIoT/src/LiteOS_Lab/iot_link/network/dtls/mbedtls/mbedtls-2.16.2/library\rsa.c ****           mbedtls_mpi_cmp_int( &ctx->Q, 0 ) <= 0 ||
 519              		.loc 1 194 0
 520 00a0 002B     		cmp	r3, #0
 521 00a2 01D1     		bne	.L34
 522              	.L35:
 196:C:/Users/dtjld/workspace/AIoT/src/LiteOS_Lab/iot_link/network/dtls/mbedtls/mbedtls-2.16.2/library\rsa.c ****     {
 197:C:/Users/dtjld/workspace/AIoT/src/LiteOS_Lab/iot_link/network/dtls/mbedtls/mbedtls-2.16.2/library\rsa.c ****         return( MBEDTLS_ERR_RSA_BAD_INPUT_DATA );
 523              		.loc 1 197 0
 524 00a4 1B4B     		ldr	r3, .L40
 525 00a6 30E0     		b	.L31
 526              	.L34:
 198:C:/Users/dtjld/workspace/AIoT/src/LiteOS_Lab/iot_link/network/dtls/mbedtls/mbedtls-2.16.2/library\rsa.c ****     }
 199:C:/Users/dtjld/workspace/AIoT/src/LiteOS_Lab/iot_link/network/dtls/mbedtls/mbedtls-2.16.2/library\rsa.c **** #endif /* !MBEDTLS_RSA_NO_CRT */
 200:C:/Users/dtjld/workspace/AIoT/src/LiteOS_Lab/iot_link/network/dtls/mbedtls/mbedtls-2.16.2/library\rsa.c **** 
 201:C:/Users/dtjld/workspace/AIoT/src/LiteOS_Lab/iot_link/network/dtls/mbedtls/mbedtls-2.16.2/library\rsa.c ****     /*
 202:C:/Users/dtjld/workspace/AIoT/src/LiteOS_Lab/iot_link/network/dtls/mbedtls/mbedtls-2.16.2/library\rsa.c ****      * 2. Exponents must be positive
 203:C:/Users/dtjld/workspace/AIoT/src/LiteOS_Lab/iot_link/network/dtls/mbedtls/mbedtls-2.16.2/library\rsa.c ****      */
 204:C:/Users/dtjld/workspace/AIoT/src/LiteOS_Lab/iot_link/network/dtls/mbedtls/mbedtls-2.16.2/library\rsa.c **** 
 205:C:/Users/dtjld/workspace/AIoT/src/LiteOS_Lab/iot_link/network/dtls/mbedtls/mbedtls-2.16.2/library\rsa.c ****     /* Always need E for public key operations */
 206:C:/Users/dtjld/workspace/AIoT/src/LiteOS_Lab/iot_link/network/dtls/mbedtls/mbedtls-2.16.2/library\rsa.c ****     if( mbedtls_mpi_cmp_int( &ctx->E, 0 ) <= 0 )
 527              		.loc 1 206 0
 528 00a8 FB68     		ldr	r3, [r7, #12]
 529 00aa 1433     		adds	r3, r3, #20
 530 00ac 0021     		movs	r1, #0
ARM GAS  C:\Users\dtjld\AppData\Local\Temp\cck1fUMg.s 			page 14


 531 00ae 1846     		mov	r0, r3
 532 00b0 FFF7FEFF 		bl	mbedtls_mpi_cmp_int
 533 00b4 0346     		mov	r3, r0
 534 00b6 002B     		cmp	r3, #0
 535 00b8 01DC     		bgt	.L36
 207:C:/Users/dtjld/workspace/AIoT/src/LiteOS_Lab/iot_link/network/dtls/mbedtls/mbedtls-2.16.2/library\rsa.c ****         return( MBEDTLS_ERR_RSA_BAD_INPUT_DATA );
 536              		.loc 1 207 0
 537 00ba 164B     		ldr	r3, .L40
 538 00bc 25E0     		b	.L31
 539              	.L36:
 208:C:/Users/dtjld/workspace/AIoT/src/LiteOS_Lab/iot_link/network/dtls/mbedtls/mbedtls-2.16.2/library\rsa.c **** 
 209:C:/Users/dtjld/workspace/AIoT/src/LiteOS_Lab/iot_link/network/dtls/mbedtls/mbedtls-2.16.2/library\rsa.c **** #if defined(MBEDTLS_RSA_NO_CRT)
 210:C:/Users/dtjld/workspace/AIoT/src/LiteOS_Lab/iot_link/network/dtls/mbedtls/mbedtls-2.16.2/library\rsa.c ****     /* For private key operations, use D or DP & DQ
 211:C:/Users/dtjld/workspace/AIoT/src/LiteOS_Lab/iot_link/network/dtls/mbedtls/mbedtls-2.16.2/library\rsa.c ****      * as (unblinded) exponents. */
 212:C:/Users/dtjld/workspace/AIoT/src/LiteOS_Lab/iot_link/network/dtls/mbedtls/mbedtls-2.16.2/library\rsa.c ****     if( is_priv && mbedtls_mpi_cmp_int( &ctx->D, 0 ) <= 0 )
 213:C:/Users/dtjld/workspace/AIoT/src/LiteOS_Lab/iot_link/network/dtls/mbedtls/mbedtls-2.16.2/library\rsa.c ****         return( MBEDTLS_ERR_RSA_BAD_INPUT_DATA );
 214:C:/Users/dtjld/workspace/AIoT/src/LiteOS_Lab/iot_link/network/dtls/mbedtls/mbedtls-2.16.2/library\rsa.c **** #else
 215:C:/Users/dtjld/workspace/AIoT/src/LiteOS_Lab/iot_link/network/dtls/mbedtls/mbedtls-2.16.2/library\rsa.c ****     if( is_priv &&
 540              		.loc 1 215 0
 541 00be BB68     		ldr	r3, [r7, #8]
 542 00c0 002B     		cmp	r3, #0
 543 00c2 13D0     		beq	.L37
 216:C:/Users/dtjld/workspace/AIoT/src/LiteOS_Lab/iot_link/network/dtls/mbedtls/mbedtls-2.16.2/library\rsa.c ****         ( mbedtls_mpi_cmp_int( &ctx->DP, 0 ) <= 0 ||
 544              		.loc 1 216 0 discriminator 1
 545 00c4 FB68     		ldr	r3, [r7, #12]
 546 00c6 4433     		adds	r3, r3, #68
 547 00c8 0021     		movs	r1, #0
 548 00ca 1846     		mov	r0, r3
 549 00cc FFF7FEFF 		bl	mbedtls_mpi_cmp_int
 550 00d0 0346     		mov	r3, r0
 215:C:/Users/dtjld/workspace/AIoT/src/LiteOS_Lab/iot_link/network/dtls/mbedtls/mbedtls-2.16.2/library\rsa.c ****         ( mbedtls_mpi_cmp_int( &ctx->DP, 0 ) <= 0 ||
 551              		.loc 1 215 0 discriminator 1
 552 00d2 002B     		cmp	r3, #0
 553 00d4 08DD     		ble	.L38
 217:C:/Users/dtjld/workspace/AIoT/src/LiteOS_Lab/iot_link/network/dtls/mbedtls/mbedtls-2.16.2/library\rsa.c ****           mbedtls_mpi_cmp_int( &ctx->DQ, 0 ) <= 0  ) )
 554              		.loc 1 217 0
 555 00d6 FB68     		ldr	r3, [r7, #12]
 556 00d8 5033     		adds	r3, r3, #80
 557 00da 0021     		movs	r1, #0
 558 00dc 1846     		mov	r0, r3
 559 00de FFF7FEFF 		bl	mbedtls_mpi_cmp_int
 560 00e2 0346     		mov	r3, r0
 216:C:/Users/dtjld/workspace/AIoT/src/LiteOS_Lab/iot_link/network/dtls/mbedtls/mbedtls-2.16.2/library\rsa.c ****         ( mbedtls_mpi_cmp_int( &ctx->DP, 0 ) <= 0 ||
 561              		.loc 1 216 0
 562 00e4 002B     		cmp	r3, #0
 563 00e6 01DC     		bgt	.L37
 564              	.L38:
 218:C:/Users/dtjld/workspace/AIoT/src/LiteOS_Lab/iot_link/network/dtls/mbedtls/mbedtls-2.16.2/library\rsa.c ****     {
 219:C:/Users/dtjld/workspace/AIoT/src/LiteOS_Lab/iot_link/network/dtls/mbedtls/mbedtls-2.16.2/library\rsa.c ****         return( MBEDTLS_ERR_RSA_BAD_INPUT_DATA );
 565              		.loc 1 219 0
 566 00e8 0A4B     		ldr	r3, .L40
 567 00ea 0EE0     		b	.L31
 568              	.L37:
 220:C:/Users/dtjld/workspace/AIoT/src/LiteOS_Lab/iot_link/network/dtls/mbedtls/mbedtls-2.16.2/library\rsa.c ****     }
 221:C:/Users/dtjld/workspace/AIoT/src/LiteOS_Lab/iot_link/network/dtls/mbedtls/mbedtls-2.16.2/library\rsa.c **** #endif /* MBEDTLS_RSA_NO_CRT */
 222:C:/Users/dtjld/workspace/AIoT/src/LiteOS_Lab/iot_link/network/dtls/mbedtls/mbedtls-2.16.2/library\rsa.c **** 
 223:C:/Users/dtjld/workspace/AIoT/src/LiteOS_Lab/iot_link/network/dtls/mbedtls/mbedtls-2.16.2/library\rsa.c ****     /* Blinding shouldn't make exponents negative either,
ARM GAS  C:\Users\dtjld\AppData\Local\Temp\cck1fUMg.s 			page 15


 224:C:/Users/dtjld/workspace/AIoT/src/LiteOS_Lab/iot_link/network/dtls/mbedtls/mbedtls-2.16.2/library\rsa.c ****      * so check that P, Q >= 1 if that hasn't yet been
 225:C:/Users/dtjld/workspace/AIoT/src/LiteOS_Lab/iot_link/network/dtls/mbedtls/mbedtls-2.16.2/library\rsa.c ****      * done as part of 1. */
 226:C:/Users/dtjld/workspace/AIoT/src/LiteOS_Lab/iot_link/network/dtls/mbedtls/mbedtls-2.16.2/library\rsa.c **** #if defined(MBEDTLS_RSA_NO_CRT)
 227:C:/Users/dtjld/workspace/AIoT/src/LiteOS_Lab/iot_link/network/dtls/mbedtls/mbedtls-2.16.2/library\rsa.c ****     if( is_priv && blinding_needed &&
 228:C:/Users/dtjld/workspace/AIoT/src/LiteOS_Lab/iot_link/network/dtls/mbedtls/mbedtls-2.16.2/library\rsa.c ****         ( mbedtls_mpi_cmp_int( &ctx->P, 0 ) <= 0 ||
 229:C:/Users/dtjld/workspace/AIoT/src/LiteOS_Lab/iot_link/network/dtls/mbedtls/mbedtls-2.16.2/library\rsa.c ****           mbedtls_mpi_cmp_int( &ctx->Q, 0 ) <= 0 ) )
 230:C:/Users/dtjld/workspace/AIoT/src/LiteOS_Lab/iot_link/network/dtls/mbedtls/mbedtls-2.16.2/library\rsa.c ****     {
 231:C:/Users/dtjld/workspace/AIoT/src/LiteOS_Lab/iot_link/network/dtls/mbedtls/mbedtls-2.16.2/library\rsa.c ****         return( MBEDTLS_ERR_RSA_BAD_INPUT_DATA );
 232:C:/Users/dtjld/workspace/AIoT/src/LiteOS_Lab/iot_link/network/dtls/mbedtls/mbedtls-2.16.2/library\rsa.c ****     }
 233:C:/Users/dtjld/workspace/AIoT/src/LiteOS_Lab/iot_link/network/dtls/mbedtls/mbedtls-2.16.2/library\rsa.c **** #endif
 234:C:/Users/dtjld/workspace/AIoT/src/LiteOS_Lab/iot_link/network/dtls/mbedtls/mbedtls-2.16.2/library\rsa.c **** 
 235:C:/Users/dtjld/workspace/AIoT/src/LiteOS_Lab/iot_link/network/dtls/mbedtls/mbedtls-2.16.2/library\rsa.c ****     /* It wouldn't lead to an error if it wasn't satisfied,
 236:C:/Users/dtjld/workspace/AIoT/src/LiteOS_Lab/iot_link/network/dtls/mbedtls/mbedtls-2.16.2/library\rsa.c ****      * but check for QP >= 1 nonetheless. */
 237:C:/Users/dtjld/workspace/AIoT/src/LiteOS_Lab/iot_link/network/dtls/mbedtls/mbedtls-2.16.2/library\rsa.c **** #if !defined(MBEDTLS_RSA_NO_CRT)
 238:C:/Users/dtjld/workspace/AIoT/src/LiteOS_Lab/iot_link/network/dtls/mbedtls/mbedtls-2.16.2/library\rsa.c ****     if( is_priv &&
 569              		.loc 1 238 0
 570 00ec BB68     		ldr	r3, [r7, #8]
 571 00ee 002B     		cmp	r3, #0
 572 00f0 0AD0     		beq	.L39
 239:C:/Users/dtjld/workspace/AIoT/src/LiteOS_Lab/iot_link/network/dtls/mbedtls/mbedtls-2.16.2/library\rsa.c ****         mbedtls_mpi_cmp_int( &ctx->QP, 0 ) <= 0 )
 573              		.loc 1 239 0 discriminator 1
 574 00f2 FB68     		ldr	r3, [r7, #12]
 575 00f4 5C33     		adds	r3, r3, #92
 576 00f6 0021     		movs	r1, #0
 577 00f8 1846     		mov	r0, r3
 578 00fa FFF7FEFF 		bl	mbedtls_mpi_cmp_int
 579 00fe 0346     		mov	r3, r0
 238:C:/Users/dtjld/workspace/AIoT/src/LiteOS_Lab/iot_link/network/dtls/mbedtls/mbedtls-2.16.2/library\rsa.c ****         mbedtls_mpi_cmp_int( &ctx->QP, 0 ) <= 0 )
 580              		.loc 1 238 0 discriminator 1
 581 0100 002B     		cmp	r3, #0
 582 0102 01DC     		bgt	.L39
 240:C:/Users/dtjld/workspace/AIoT/src/LiteOS_Lab/iot_link/network/dtls/mbedtls/mbedtls-2.16.2/library\rsa.c ****     {
 241:C:/Users/dtjld/workspace/AIoT/src/LiteOS_Lab/iot_link/network/dtls/mbedtls/mbedtls-2.16.2/library\rsa.c ****         return( MBEDTLS_ERR_RSA_BAD_INPUT_DATA );
 583              		.loc 1 241 0
 584 0104 034B     		ldr	r3, .L40
 585 0106 00E0     		b	.L31
 586              	.L39:
 242:C:/Users/dtjld/workspace/AIoT/src/LiteOS_Lab/iot_link/network/dtls/mbedtls/mbedtls-2.16.2/library\rsa.c ****     }
 243:C:/Users/dtjld/workspace/AIoT/src/LiteOS_Lab/iot_link/network/dtls/mbedtls/mbedtls-2.16.2/library\rsa.c **** #endif
 244:C:/Users/dtjld/workspace/AIoT/src/LiteOS_Lab/iot_link/network/dtls/mbedtls/mbedtls-2.16.2/library\rsa.c **** 
 245:C:/Users/dtjld/workspace/AIoT/src/LiteOS_Lab/iot_link/network/dtls/mbedtls/mbedtls-2.16.2/library\rsa.c ****     return( 0 );
 587              		.loc 1 245 0
 588 0108 0023     		movs	r3, #0
 589              	.L31:
 246:C:/Users/dtjld/workspace/AIoT/src/LiteOS_Lab/iot_link/network/dtls/mbedtls/mbedtls-2.16.2/library\rsa.c **** }
 590              		.loc 1 246 0
 591 010a 1846     		mov	r0, r3
 592 010c 1437     		adds	r7, r7, #20
 593              	.LCFI19:
 594              		.cfi_def_cfa_offset 12
 595 010e BD46     		mov	sp, r7
 596              	.LCFI20:
 597              		.cfi_def_cfa_register 13
 598              		@ sp needed
 599 0110 90BD     		pop	{r4, r7, pc}
 600              	.L41:
 601 0112 00BF     		.align	2
ARM GAS  C:\Users\dtjld\AppData\Local\Temp\cck1fUMg.s 			page 16


 602              	.L40:
 603 0114 80BFFFFF 		.word	-16512
 604              		.cfi_endproc
 605              	.LFE16:
 607              		.section	.text.mbedtls_rsa_complete,"ax",%progbits
 608              		.align	1
 609              		.global	mbedtls_rsa_complete
 610              		.syntax unified
 611              		.thumb
 612              		.thumb_func
 613              		.fpu fpv4-sp-d16
 615              	mbedtls_rsa_complete:
 616              	.LFB17:
 247:C:/Users/dtjld/workspace/AIoT/src/LiteOS_Lab/iot_link/network/dtls/mbedtls/mbedtls-2.16.2/library\rsa.c **** 
 248:C:/Users/dtjld/workspace/AIoT/src/LiteOS_Lab/iot_link/network/dtls/mbedtls/mbedtls-2.16.2/library\rsa.c **** int mbedtls_rsa_complete( mbedtls_rsa_context *ctx )
 249:C:/Users/dtjld/workspace/AIoT/src/LiteOS_Lab/iot_link/network/dtls/mbedtls/mbedtls-2.16.2/library\rsa.c **** {
 617              		.loc 1 249 0
 618              		.cfi_startproc
 619              		@ args = 0, pretend = 0, frame = 56
 620              		@ frame_needed = 1, uses_anonymous_args = 0
 621 0000 B0B5     		push	{r4, r5, r7, lr}
 622              	.LCFI21:
 623              		.cfi_def_cfa_offset 16
 624              		.cfi_offset 4, -16
 625              		.cfi_offset 5, -12
 626              		.cfi_offset 7, -8
 627              		.cfi_offset 14, -4
 628 0002 90B0     		sub	sp, sp, #64
 629              	.LCFI22:
 630              		.cfi_def_cfa_offset 80
 631 0004 02AF     		add	r7, sp, #8
 632              	.LCFI23:
 633              		.cfi_def_cfa 7, 72
 634 0006 7860     		str	r0, [r7, #4]
 250:C:/Users/dtjld/workspace/AIoT/src/LiteOS_Lab/iot_link/network/dtls/mbedtls/mbedtls-2.16.2/library\rsa.c ****     int ret = 0;
 635              		.loc 1 250 0
 636 0008 0023     		movs	r3, #0
 637 000a 7B63     		str	r3, [r7, #52]
 251:C:/Users/dtjld/workspace/AIoT/src/LiteOS_Lab/iot_link/network/dtls/mbedtls/mbedtls-2.16.2/library\rsa.c ****     int have_N, have_P, have_Q, have_D, have_E;
 252:C:/Users/dtjld/workspace/AIoT/src/LiteOS_Lab/iot_link/network/dtls/mbedtls/mbedtls-2.16.2/library\rsa.c ****     int n_missing, pq_missing, d_missing, is_pub, is_priv;
 253:C:/Users/dtjld/workspace/AIoT/src/LiteOS_Lab/iot_link/network/dtls/mbedtls/mbedtls-2.16.2/library\rsa.c **** 
 254:C:/Users/dtjld/workspace/AIoT/src/LiteOS_Lab/iot_link/network/dtls/mbedtls/mbedtls-2.16.2/library\rsa.c ****     RSA_VALIDATE_RET( ctx != NULL );
 255:C:/Users/dtjld/workspace/AIoT/src/LiteOS_Lab/iot_link/network/dtls/mbedtls/mbedtls-2.16.2/library\rsa.c **** 
 256:C:/Users/dtjld/workspace/AIoT/src/LiteOS_Lab/iot_link/network/dtls/mbedtls/mbedtls-2.16.2/library\rsa.c ****     have_N = ( mbedtls_mpi_cmp_int( &ctx->N, 0 ) != 0 );
 638              		.loc 1 256 0
 639 000c 7B68     		ldr	r3, [r7, #4]
 640 000e 0833     		adds	r3, r3, #8
 641 0010 0021     		movs	r1, #0
 642 0012 1846     		mov	r0, r3
 643 0014 FFF7FEFF 		bl	mbedtls_mpi_cmp_int
 644 0018 0346     		mov	r3, r0
 645 001a 002B     		cmp	r3, #0
 646 001c 14BF     		ite	ne
 647 001e 0123     		movne	r3, #1
 648 0020 0023     		moveq	r3, #0
 649 0022 DBB2     		uxtb	r3, r3
 650 0024 3B63     		str	r3, [r7, #48]
ARM GAS  C:\Users\dtjld\AppData\Local\Temp\cck1fUMg.s 			page 17


 257:C:/Users/dtjld/workspace/AIoT/src/LiteOS_Lab/iot_link/network/dtls/mbedtls/mbedtls-2.16.2/library\rsa.c ****     have_P = ( mbedtls_mpi_cmp_int( &ctx->P, 0 ) != 0 );
 651              		.loc 1 257 0
 652 0026 7B68     		ldr	r3, [r7, #4]
 653 0028 2C33     		adds	r3, r3, #44
 654 002a 0021     		movs	r1, #0
 655 002c 1846     		mov	r0, r3
 656 002e FFF7FEFF 		bl	mbedtls_mpi_cmp_int
 657 0032 0346     		mov	r3, r0
 658 0034 002B     		cmp	r3, #0
 659 0036 14BF     		ite	ne
 660 0038 0123     		movne	r3, #1
 661 003a 0023     		moveq	r3, #0
 662 003c DBB2     		uxtb	r3, r3
 663 003e FB62     		str	r3, [r7, #44]
 258:C:/Users/dtjld/workspace/AIoT/src/LiteOS_Lab/iot_link/network/dtls/mbedtls/mbedtls-2.16.2/library\rsa.c ****     have_Q = ( mbedtls_mpi_cmp_int( &ctx->Q, 0 ) != 0 );
 664              		.loc 1 258 0
 665 0040 7B68     		ldr	r3, [r7, #4]
 666 0042 3833     		adds	r3, r3, #56
 667 0044 0021     		movs	r1, #0
 668 0046 1846     		mov	r0, r3
 669 0048 FFF7FEFF 		bl	mbedtls_mpi_cmp_int
 670 004c 0346     		mov	r3, r0
 671 004e 002B     		cmp	r3, #0
 672 0050 14BF     		ite	ne
 673 0052 0123     		movne	r3, #1
 674 0054 0023     		moveq	r3, #0
 675 0056 DBB2     		uxtb	r3, r3
 676 0058 BB62     		str	r3, [r7, #40]
 259:C:/Users/dtjld/workspace/AIoT/src/LiteOS_Lab/iot_link/network/dtls/mbedtls/mbedtls-2.16.2/library\rsa.c ****     have_D = ( mbedtls_mpi_cmp_int( &ctx->D, 0 ) != 0 );
 677              		.loc 1 259 0
 678 005a 7B68     		ldr	r3, [r7, #4]
 679 005c 2033     		adds	r3, r3, #32
 680 005e 0021     		movs	r1, #0
 681 0060 1846     		mov	r0, r3
 682 0062 FFF7FEFF 		bl	mbedtls_mpi_cmp_int
 683 0066 0346     		mov	r3, r0
 684 0068 002B     		cmp	r3, #0
 685 006a 14BF     		ite	ne
 686 006c 0123     		movne	r3, #1
 687 006e 0023     		moveq	r3, #0
 688 0070 DBB2     		uxtb	r3, r3
 689 0072 7B62     		str	r3, [r7, #36]
 260:C:/Users/dtjld/workspace/AIoT/src/LiteOS_Lab/iot_link/network/dtls/mbedtls/mbedtls-2.16.2/library\rsa.c ****     have_E = ( mbedtls_mpi_cmp_int( &ctx->E, 0 ) != 0 );
 690              		.loc 1 260 0
 691 0074 7B68     		ldr	r3, [r7, #4]
 692 0076 1433     		adds	r3, r3, #20
 693 0078 0021     		movs	r1, #0
 694 007a 1846     		mov	r0, r3
 695 007c FFF7FEFF 		bl	mbedtls_mpi_cmp_int
 696 0080 0346     		mov	r3, r0
 697 0082 002B     		cmp	r3, #0
 698 0084 14BF     		ite	ne
 699 0086 0123     		movne	r3, #1
 700 0088 0023     		moveq	r3, #0
 701 008a DBB2     		uxtb	r3, r3
 702 008c 3B62     		str	r3, [r7, #32]
 261:C:/Users/dtjld/workspace/AIoT/src/LiteOS_Lab/iot_link/network/dtls/mbedtls/mbedtls-2.16.2/library\rsa.c **** 
ARM GAS  C:\Users\dtjld\AppData\Local\Temp\cck1fUMg.s 			page 18


 262:C:/Users/dtjld/workspace/AIoT/src/LiteOS_Lab/iot_link/network/dtls/mbedtls/mbedtls-2.16.2/library\rsa.c ****     /*
 263:C:/Users/dtjld/workspace/AIoT/src/LiteOS_Lab/iot_link/network/dtls/mbedtls/mbedtls-2.16.2/library\rsa.c ****      * Check whether provided parameters are enough
 264:C:/Users/dtjld/workspace/AIoT/src/LiteOS_Lab/iot_link/network/dtls/mbedtls/mbedtls-2.16.2/library\rsa.c ****      * to deduce all others. The following incomplete
 265:C:/Users/dtjld/workspace/AIoT/src/LiteOS_Lab/iot_link/network/dtls/mbedtls/mbedtls-2.16.2/library\rsa.c ****      * parameter sets for private keys are supported:
 266:C:/Users/dtjld/workspace/AIoT/src/LiteOS_Lab/iot_link/network/dtls/mbedtls/mbedtls-2.16.2/library\rsa.c ****      *
 267:C:/Users/dtjld/workspace/AIoT/src/LiteOS_Lab/iot_link/network/dtls/mbedtls/mbedtls-2.16.2/library\rsa.c ****      * (1) P, Q missing.
 268:C:/Users/dtjld/workspace/AIoT/src/LiteOS_Lab/iot_link/network/dtls/mbedtls/mbedtls-2.16.2/library\rsa.c ****      * (2) D and potentially N missing.
 269:C:/Users/dtjld/workspace/AIoT/src/LiteOS_Lab/iot_link/network/dtls/mbedtls/mbedtls-2.16.2/library\rsa.c ****      *
 270:C:/Users/dtjld/workspace/AIoT/src/LiteOS_Lab/iot_link/network/dtls/mbedtls/mbedtls-2.16.2/library\rsa.c ****      */
 271:C:/Users/dtjld/workspace/AIoT/src/LiteOS_Lab/iot_link/network/dtls/mbedtls/mbedtls-2.16.2/library\rsa.c **** 
 272:C:/Users/dtjld/workspace/AIoT/src/LiteOS_Lab/iot_link/network/dtls/mbedtls/mbedtls-2.16.2/library\rsa.c ****     n_missing  =              have_P &&  have_Q &&  have_D && have_E;
 703              		.loc 1 272 0
 704 008e FB6A     		ldr	r3, [r7, #44]
 705 0090 002B     		cmp	r3, #0
 706 0092 0AD0     		beq	.L43
 707              		.loc 1 272 0 is_stmt 0 discriminator 1
 708 0094 BB6A     		ldr	r3, [r7, #40]
 709 0096 002B     		cmp	r3, #0
 710 0098 07D0     		beq	.L43
 711              		.loc 1 272 0 discriminator 3
 712 009a 7B6A     		ldr	r3, [r7, #36]
 713 009c 002B     		cmp	r3, #0
 714 009e 04D0     		beq	.L43
 715              		.loc 1 272 0 discriminator 5
 716 00a0 3B6A     		ldr	r3, [r7, #32]
 717 00a2 002B     		cmp	r3, #0
 718 00a4 01D0     		beq	.L43
 719              		.loc 1 272 0 discriminator 7
 720 00a6 0123     		movs	r3, #1
 721 00a8 00E0     		b	.L44
 722              	.L43:
 723              		.loc 1 272 0 discriminator 8
 724 00aa 0023     		movs	r3, #0
 725              	.L44:
 726              		.loc 1 272 0 discriminator 10
 727 00ac FB61     		str	r3, [r7, #28]
 273:C:/Users/dtjld/workspace/AIoT/src/LiteOS_Lab/iot_link/network/dtls/mbedtls/mbedtls-2.16.2/library\rsa.c ****     pq_missing =   have_N && !have_P && !have_Q &&  have_D && have_E;
 728              		.loc 1 273 0 is_stmt 1 discriminator 10
 729 00ae 3B6B     		ldr	r3, [r7, #48]
 730 00b0 002B     		cmp	r3, #0
 731 00b2 0DD0     		beq	.L45
 732              		.loc 1 273 0 is_stmt 0 discriminator 1
 733 00b4 FB6A     		ldr	r3, [r7, #44]
 734 00b6 002B     		cmp	r3, #0
 735 00b8 0AD1     		bne	.L45
 736              		.loc 1 273 0 discriminator 3
 737 00ba BB6A     		ldr	r3, [r7, #40]
 738 00bc 002B     		cmp	r3, #0
 739 00be 07D1     		bne	.L45
 740              		.loc 1 273 0 discriminator 5
 741 00c0 7B6A     		ldr	r3, [r7, #36]
 742 00c2 002B     		cmp	r3, #0
 743 00c4 04D0     		beq	.L45
 744              		.loc 1 273 0 discriminator 7
 745 00c6 3B6A     		ldr	r3, [r7, #32]
 746 00c8 002B     		cmp	r3, #0
 747 00ca 01D0     		beq	.L45
ARM GAS  C:\Users\dtjld\AppData\Local\Temp\cck1fUMg.s 			page 19


 748              		.loc 1 273 0 discriminator 9
 749 00cc 0123     		movs	r3, #1
 750 00ce 00E0     		b	.L46
 751              	.L45:
 752              		.loc 1 273 0 discriminator 10
 753 00d0 0023     		movs	r3, #0
 754              	.L46:
 755              		.loc 1 273 0 discriminator 12
 756 00d2 BB61     		str	r3, [r7, #24]
 274:C:/Users/dtjld/workspace/AIoT/src/LiteOS_Lab/iot_link/network/dtls/mbedtls/mbedtls-2.16.2/library\rsa.c ****     d_missing  =              have_P &&  have_Q && !have_D && have_E;
 757              		.loc 1 274 0 is_stmt 1 discriminator 12
 758 00d4 FB6A     		ldr	r3, [r7, #44]
 759 00d6 002B     		cmp	r3, #0
 760 00d8 0AD0     		beq	.L47
 761              		.loc 1 274 0 is_stmt 0 discriminator 1
 762 00da BB6A     		ldr	r3, [r7, #40]
 763 00dc 002B     		cmp	r3, #0
 764 00de 07D0     		beq	.L47
 765              		.loc 1 274 0 discriminator 3
 766 00e0 7B6A     		ldr	r3, [r7, #36]
 767 00e2 002B     		cmp	r3, #0
 768 00e4 04D1     		bne	.L47
 769              		.loc 1 274 0 discriminator 5
 770 00e6 3B6A     		ldr	r3, [r7, #32]
 771 00e8 002B     		cmp	r3, #0
 772 00ea 01D0     		beq	.L47
 773              		.loc 1 274 0 discriminator 7
 774 00ec 0123     		movs	r3, #1
 775 00ee 00E0     		b	.L48
 776              	.L47:
 777              		.loc 1 274 0 discriminator 8
 778 00f0 0023     		movs	r3, #0
 779              	.L48:
 780              		.loc 1 274 0 discriminator 10
 781 00f2 7B61     		str	r3, [r7, #20]
 275:C:/Users/dtjld/workspace/AIoT/src/LiteOS_Lab/iot_link/network/dtls/mbedtls/mbedtls-2.16.2/library\rsa.c ****     is_pub     =   have_N && !have_P && !have_Q && !have_D && have_E;
 782              		.loc 1 275 0 is_stmt 1 discriminator 10
 783 00f4 3B6B     		ldr	r3, [r7, #48]
 784 00f6 002B     		cmp	r3, #0
 785 00f8 0DD0     		beq	.L49
 786              		.loc 1 275 0 is_stmt 0 discriminator 1
 787 00fa FB6A     		ldr	r3, [r7, #44]
 788 00fc 002B     		cmp	r3, #0
 789 00fe 0AD1     		bne	.L49
 790              		.loc 1 275 0 discriminator 3
 791 0100 BB6A     		ldr	r3, [r7, #40]
 792 0102 002B     		cmp	r3, #0
 793 0104 07D1     		bne	.L49
 794              		.loc 1 275 0 discriminator 5
 795 0106 7B6A     		ldr	r3, [r7, #36]
 796 0108 002B     		cmp	r3, #0
 797 010a 04D1     		bne	.L49
 798              		.loc 1 275 0 discriminator 7
 799 010c 3B6A     		ldr	r3, [r7, #32]
 800 010e 002B     		cmp	r3, #0
 801 0110 01D0     		beq	.L49
 802              		.loc 1 275 0 discriminator 9
ARM GAS  C:\Users\dtjld\AppData\Local\Temp\cck1fUMg.s 			page 20


 803 0112 0123     		movs	r3, #1
 804 0114 00E0     		b	.L50
 805              	.L49:
 806              		.loc 1 275 0 discriminator 10
 807 0116 0023     		movs	r3, #0
 808              	.L50:
 809              		.loc 1 275 0 discriminator 12
 810 0118 3B61     		str	r3, [r7, #16]
 276:C:/Users/dtjld/workspace/AIoT/src/LiteOS_Lab/iot_link/network/dtls/mbedtls/mbedtls-2.16.2/library\rsa.c **** 
 277:C:/Users/dtjld/workspace/AIoT/src/LiteOS_Lab/iot_link/network/dtls/mbedtls/mbedtls-2.16.2/library\rsa.c ****     /* These three alternatives are mutually exclusive */
 278:C:/Users/dtjld/workspace/AIoT/src/LiteOS_Lab/iot_link/network/dtls/mbedtls/mbedtls-2.16.2/library\rsa.c ****     is_priv = n_missing || pq_missing || d_missing;
 811              		.loc 1 278 0 is_stmt 1 discriminator 12
 812 011a FB69     		ldr	r3, [r7, #28]
 813 011c 002B     		cmp	r3, #0
 814 011e 05D1     		bne	.L51
 815              		.loc 1 278 0 is_stmt 0 discriminator 2
 816 0120 BB69     		ldr	r3, [r7, #24]
 817 0122 002B     		cmp	r3, #0
 818 0124 02D1     		bne	.L51
 819              		.loc 1 278 0 discriminator 4
 820 0126 7B69     		ldr	r3, [r7, #20]
 821 0128 002B     		cmp	r3, #0
 822 012a 01D0     		beq	.L52
 823              	.L51:
 824              		.loc 1 278 0 discriminator 5
 825 012c 0123     		movs	r3, #1
 826 012e 00E0     		b	.L53
 827              	.L52:
 828              		.loc 1 278 0 discriminator 6
 829 0130 0023     		movs	r3, #0
 830              	.L53:
 831              		.loc 1 278 0 discriminator 8
 832 0132 FB60     		str	r3, [r7, #12]
 279:C:/Users/dtjld/workspace/AIoT/src/LiteOS_Lab/iot_link/network/dtls/mbedtls/mbedtls-2.16.2/library\rsa.c **** 
 280:C:/Users/dtjld/workspace/AIoT/src/LiteOS_Lab/iot_link/network/dtls/mbedtls/mbedtls-2.16.2/library\rsa.c ****     if( !is_priv && !is_pub )
 833              		.loc 1 280 0 is_stmt 1 discriminator 8
 834 0134 FB68     		ldr	r3, [r7, #12]
 835 0136 002B     		cmp	r3, #0
 836 0138 04D1     		bne	.L54
 837              		.loc 1 280 0 is_stmt 0 discriminator 1
 838 013a 3B69     		ldr	r3, [r7, #16]
 839 013c 002B     		cmp	r3, #0
 840 013e 01D1     		bne	.L54
 281:C:/Users/dtjld/workspace/AIoT/src/LiteOS_Lab/iot_link/network/dtls/mbedtls/mbedtls-2.16.2/library\rsa.c ****         return( MBEDTLS_ERR_RSA_BAD_INPUT_DATA );
 841              		.loc 1 281 0 is_stmt 1
 842 0140 424B     		ldr	r3, .L61
 843 0142 7FE0     		b	.L55
 844              	.L54:
 282:C:/Users/dtjld/workspace/AIoT/src/LiteOS_Lab/iot_link/network/dtls/mbedtls/mbedtls-2.16.2/library\rsa.c **** 
 283:C:/Users/dtjld/workspace/AIoT/src/LiteOS_Lab/iot_link/network/dtls/mbedtls/mbedtls-2.16.2/library\rsa.c ****     /*
 284:C:/Users/dtjld/workspace/AIoT/src/LiteOS_Lab/iot_link/network/dtls/mbedtls/mbedtls-2.16.2/library\rsa.c ****      * Step 1: Deduce N if P, Q are provided.
 285:C:/Users/dtjld/workspace/AIoT/src/LiteOS_Lab/iot_link/network/dtls/mbedtls/mbedtls-2.16.2/library\rsa.c ****      */
 286:C:/Users/dtjld/workspace/AIoT/src/LiteOS_Lab/iot_link/network/dtls/mbedtls/mbedtls-2.16.2/library\rsa.c **** 
 287:C:/Users/dtjld/workspace/AIoT/src/LiteOS_Lab/iot_link/network/dtls/mbedtls/mbedtls-2.16.2/library\rsa.c ****     if( !have_N && have_P && have_Q )
 845              		.loc 1 287 0
 846 0144 3B6B     		ldr	r3, [r7, #48]
 847 0146 002B     		cmp	r3, #0
ARM GAS  C:\Users\dtjld\AppData\Local\Temp\cck1fUMg.s 			page 21


 848 0148 20D1     		bne	.L56
 849              		.loc 1 287 0 is_stmt 0 discriminator 1
 850 014a FB6A     		ldr	r3, [r7, #44]
 851 014c 002B     		cmp	r3, #0
 852 014e 1DD0     		beq	.L56
 853              		.loc 1 287 0 discriminator 2
 854 0150 BB6A     		ldr	r3, [r7, #40]
 855 0152 002B     		cmp	r3, #0
 856 0154 1AD0     		beq	.L56
 288:C:/Users/dtjld/workspace/AIoT/src/LiteOS_Lab/iot_link/network/dtls/mbedtls/mbedtls-2.16.2/library\rsa.c ****     {
 289:C:/Users/dtjld/workspace/AIoT/src/LiteOS_Lab/iot_link/network/dtls/mbedtls/mbedtls-2.16.2/library\rsa.c ****         if( ( ret = mbedtls_mpi_mul_mpi( &ctx->N, &ctx->P,
 857              		.loc 1 289 0 is_stmt 1
 858 0156 7B68     		ldr	r3, [r7, #4]
 859 0158 03F10800 		add	r0, r3, #8
 860 015c 7B68     		ldr	r3, [r7, #4]
 861 015e 03F12C01 		add	r1, r3, #44
 290:C:/Users/dtjld/workspace/AIoT/src/LiteOS_Lab/iot_link/network/dtls/mbedtls/mbedtls-2.16.2/library\rsa.c ****                                          &ctx->Q ) ) != 0 )
 862              		.loc 1 290 0
 863 0162 7B68     		ldr	r3, [r7, #4]
 864 0164 3833     		adds	r3, r3, #56
 289:C:/Users/dtjld/workspace/AIoT/src/LiteOS_Lab/iot_link/network/dtls/mbedtls/mbedtls-2.16.2/library\rsa.c ****                                          &ctx->Q ) ) != 0 )
 865              		.loc 1 289 0
 866 0166 1A46     		mov	r2, r3
 867 0168 FFF7FEFF 		bl	mbedtls_mpi_mul_mpi
 868 016c 7863     		str	r0, [r7, #52]
 869 016e 7B6B     		ldr	r3, [r7, #52]
 870 0170 002B     		cmp	r3, #0
 871 0172 03D0     		beq	.L57
 291:C:/Users/dtjld/workspace/AIoT/src/LiteOS_Lab/iot_link/network/dtls/mbedtls/mbedtls-2.16.2/library\rsa.c ****         {
 292:C:/Users/dtjld/workspace/AIoT/src/LiteOS_Lab/iot_link/network/dtls/mbedtls/mbedtls-2.16.2/library\rsa.c ****             return( MBEDTLS_ERR_RSA_BAD_INPUT_DATA + ret );
 872              		.loc 1 292 0
 873 0174 7B6B     		ldr	r3, [r7, #52]
 874 0176 A3F58143 		sub	r3, r3, #16512
 875 017a 63E0     		b	.L55
 876              	.L57:
 293:C:/Users/dtjld/workspace/AIoT/src/LiteOS_Lab/iot_link/network/dtls/mbedtls/mbedtls-2.16.2/library\rsa.c ****         }
 294:C:/Users/dtjld/workspace/AIoT/src/LiteOS_Lab/iot_link/network/dtls/mbedtls/mbedtls-2.16.2/library\rsa.c **** 
 295:C:/Users/dtjld/workspace/AIoT/src/LiteOS_Lab/iot_link/network/dtls/mbedtls/mbedtls-2.16.2/library\rsa.c ****         ctx->len = mbedtls_mpi_size( &ctx->N );
 877              		.loc 1 295 0
 878 017c 7B68     		ldr	r3, [r7, #4]
 879 017e 0833     		adds	r3, r3, #8
 880 0180 1846     		mov	r0, r3
 881 0182 FFF7FEFF 		bl	mbedtls_mpi_size
 882 0186 0246     		mov	r2, r0
 883 0188 7B68     		ldr	r3, [r7, #4]
 884 018a 5A60     		str	r2, [r3, #4]
 885              	.L56:
 296:C:/Users/dtjld/workspace/AIoT/src/LiteOS_Lab/iot_link/network/dtls/mbedtls/mbedtls-2.16.2/library\rsa.c ****     }
 297:C:/Users/dtjld/workspace/AIoT/src/LiteOS_Lab/iot_link/network/dtls/mbedtls/mbedtls-2.16.2/library\rsa.c **** 
 298:C:/Users/dtjld/workspace/AIoT/src/LiteOS_Lab/iot_link/network/dtls/mbedtls/mbedtls-2.16.2/library\rsa.c ****     /*
 299:C:/Users/dtjld/workspace/AIoT/src/LiteOS_Lab/iot_link/network/dtls/mbedtls/mbedtls-2.16.2/library\rsa.c ****      * Step 2: Deduce and verify all remaining core parameters.
 300:C:/Users/dtjld/workspace/AIoT/src/LiteOS_Lab/iot_link/network/dtls/mbedtls/mbedtls-2.16.2/library\rsa.c ****      */
 301:C:/Users/dtjld/workspace/AIoT/src/LiteOS_Lab/iot_link/network/dtls/mbedtls/mbedtls-2.16.2/library\rsa.c **** 
 302:C:/Users/dtjld/workspace/AIoT/src/LiteOS_Lab/iot_link/network/dtls/mbedtls/mbedtls-2.16.2/library\rsa.c ****     if( pq_missing )
 886              		.loc 1 302 0
 887 018c BB69     		ldr	r3, [r7, #24]
 888 018e 002B     		cmp	r3, #0
ARM GAS  C:\Users\dtjld\AppData\Local\Temp\cck1fUMg.s 			page 22


 889 0190 19D0     		beq	.L58
 303:C:/Users/dtjld/workspace/AIoT/src/LiteOS_Lab/iot_link/network/dtls/mbedtls/mbedtls-2.16.2/library\rsa.c ****     {
 304:C:/Users/dtjld/workspace/AIoT/src/LiteOS_Lab/iot_link/network/dtls/mbedtls/mbedtls-2.16.2/library\rsa.c ****         ret = mbedtls_rsa_deduce_primes( &ctx->N, &ctx->E, &ctx->D,
 890              		.loc 1 304 0
 891 0192 7B68     		ldr	r3, [r7, #4]
 892 0194 03F10800 		add	r0, r3, #8
 893 0198 7B68     		ldr	r3, [r7, #4]
 894 019a 03F11401 		add	r1, r3, #20
 895 019e 7B68     		ldr	r3, [r7, #4]
 896 01a0 03F12002 		add	r2, r3, #32
 897 01a4 7B68     		ldr	r3, [r7, #4]
 898 01a6 03F12C04 		add	r4, r3, #44
 899 01aa 7B68     		ldr	r3, [r7, #4]
 900 01ac 3833     		adds	r3, r3, #56
 901 01ae 0093     		str	r3, [sp]
 902 01b0 2346     		mov	r3, r4
 903 01b2 FFF7FEFF 		bl	mbedtls_rsa_deduce_primes
 904 01b6 7863     		str	r0, [r7, #52]
 305:C:/Users/dtjld/workspace/AIoT/src/LiteOS_Lab/iot_link/network/dtls/mbedtls/mbedtls-2.16.2/library\rsa.c ****                                          &ctx->P, &ctx->Q );
 306:C:/Users/dtjld/workspace/AIoT/src/LiteOS_Lab/iot_link/network/dtls/mbedtls/mbedtls-2.16.2/library\rsa.c ****         if( ret != 0 )
 905              		.loc 1 306 0
 906 01b8 7B6B     		ldr	r3, [r7, #52]
 907 01ba 002B     		cmp	r3, #0
 908 01bc 1BD0     		beq	.L59
 307:C:/Users/dtjld/workspace/AIoT/src/LiteOS_Lab/iot_link/network/dtls/mbedtls/mbedtls-2.16.2/library\rsa.c ****             return( MBEDTLS_ERR_RSA_BAD_INPUT_DATA + ret );
 909              		.loc 1 307 0
 910 01be 7B6B     		ldr	r3, [r7, #52]
 911 01c0 A3F58143 		sub	r3, r3, #16512
 912 01c4 3EE0     		b	.L55
 913              	.L58:
 308:C:/Users/dtjld/workspace/AIoT/src/LiteOS_Lab/iot_link/network/dtls/mbedtls/mbedtls-2.16.2/library\rsa.c **** 
 309:C:/Users/dtjld/workspace/AIoT/src/LiteOS_Lab/iot_link/network/dtls/mbedtls/mbedtls-2.16.2/library\rsa.c ****     }
 310:C:/Users/dtjld/workspace/AIoT/src/LiteOS_Lab/iot_link/network/dtls/mbedtls/mbedtls-2.16.2/library\rsa.c ****     else if( d_missing )
 914              		.loc 1 310 0
 915 01c6 7B69     		ldr	r3, [r7, #20]
 916 01c8 002B     		cmp	r3, #0
 917 01ca 14D0     		beq	.L59
 311:C:/Users/dtjld/workspace/AIoT/src/LiteOS_Lab/iot_link/network/dtls/mbedtls/mbedtls-2.16.2/library\rsa.c ****     {
 312:C:/Users/dtjld/workspace/AIoT/src/LiteOS_Lab/iot_link/network/dtls/mbedtls/mbedtls-2.16.2/library\rsa.c ****         if( ( ret = mbedtls_rsa_deduce_private_exponent( &ctx->P,
 918              		.loc 1 312 0
 919 01cc 7B68     		ldr	r3, [r7, #4]
 920 01ce 03F12C00 		add	r0, r3, #44
 313:C:/Users/dtjld/workspace/AIoT/src/LiteOS_Lab/iot_link/network/dtls/mbedtls/mbedtls-2.16.2/library\rsa.c ****                                                          &ctx->Q,
 921              		.loc 1 313 0
 922 01d2 7B68     		ldr	r3, [r7, #4]
 923 01d4 03F13801 		add	r1, r3, #56
 314:C:/Users/dtjld/workspace/AIoT/src/LiteOS_Lab/iot_link/network/dtls/mbedtls/mbedtls-2.16.2/library\rsa.c ****                                                          &ctx->E,
 924              		.loc 1 314 0
 925 01d8 7B68     		ldr	r3, [r7, #4]
 926 01da 03F11402 		add	r2, r3, #20
 312:C:/Users/dtjld/workspace/AIoT/src/LiteOS_Lab/iot_link/network/dtls/mbedtls/mbedtls-2.16.2/library\rsa.c ****                                                          &ctx->Q,
 927              		.loc 1 312 0
 928 01de 7B68     		ldr	r3, [r7, #4]
 929 01e0 2033     		adds	r3, r3, #32
 930 01e2 FFF7FEFF 		bl	mbedtls_rsa_deduce_private_exponent
 931 01e6 7863     		str	r0, [r7, #52]
 932 01e8 7B6B     		ldr	r3, [r7, #52]
ARM GAS  C:\Users\dtjld\AppData\Local\Temp\cck1fUMg.s 			page 23


 933 01ea 002B     		cmp	r3, #0
 934 01ec 03D0     		beq	.L59
 315:C:/Users/dtjld/workspace/AIoT/src/LiteOS_Lab/iot_link/network/dtls/mbedtls/mbedtls-2.16.2/library\rsa.c ****                                                          &ctx->D ) ) != 0 )
 316:C:/Users/dtjld/workspace/AIoT/src/LiteOS_Lab/iot_link/network/dtls/mbedtls/mbedtls-2.16.2/library\rsa.c ****         {
 317:C:/Users/dtjld/workspace/AIoT/src/LiteOS_Lab/iot_link/network/dtls/mbedtls/mbedtls-2.16.2/library\rsa.c ****             return( MBEDTLS_ERR_RSA_BAD_INPUT_DATA + ret );
 935              		.loc 1 317 0
 936 01ee 7B6B     		ldr	r3, [r7, #52]
 937 01f0 A3F58143 		sub	r3, r3, #16512
 938 01f4 26E0     		b	.L55
 939              	.L59:
 318:C:/Users/dtjld/workspace/AIoT/src/LiteOS_Lab/iot_link/network/dtls/mbedtls/mbedtls-2.16.2/library\rsa.c ****         }
 319:C:/Users/dtjld/workspace/AIoT/src/LiteOS_Lab/iot_link/network/dtls/mbedtls/mbedtls-2.16.2/library\rsa.c ****     }
 320:C:/Users/dtjld/workspace/AIoT/src/LiteOS_Lab/iot_link/network/dtls/mbedtls/mbedtls-2.16.2/library\rsa.c **** 
 321:C:/Users/dtjld/workspace/AIoT/src/LiteOS_Lab/iot_link/network/dtls/mbedtls/mbedtls-2.16.2/library\rsa.c ****     /*
 322:C:/Users/dtjld/workspace/AIoT/src/LiteOS_Lab/iot_link/network/dtls/mbedtls/mbedtls-2.16.2/library\rsa.c ****      * Step 3: Deduce all additional parameters specific
 323:C:/Users/dtjld/workspace/AIoT/src/LiteOS_Lab/iot_link/network/dtls/mbedtls/mbedtls-2.16.2/library\rsa.c ****      *         to our current RSA implementation.
 324:C:/Users/dtjld/workspace/AIoT/src/LiteOS_Lab/iot_link/network/dtls/mbedtls/mbedtls-2.16.2/library\rsa.c ****      */
 325:C:/Users/dtjld/workspace/AIoT/src/LiteOS_Lab/iot_link/network/dtls/mbedtls/mbedtls-2.16.2/library\rsa.c **** 
 326:C:/Users/dtjld/workspace/AIoT/src/LiteOS_Lab/iot_link/network/dtls/mbedtls/mbedtls-2.16.2/library\rsa.c **** #if !defined(MBEDTLS_RSA_NO_CRT)
 327:C:/Users/dtjld/workspace/AIoT/src/LiteOS_Lab/iot_link/network/dtls/mbedtls/mbedtls-2.16.2/library\rsa.c ****     if( is_priv )
 940              		.loc 1 327 0
 941 01f6 FB68     		ldr	r3, [r7, #12]
 942 01f8 002B     		cmp	r3, #0
 943 01fa 1DD0     		beq	.L60
 328:C:/Users/dtjld/workspace/AIoT/src/LiteOS_Lab/iot_link/network/dtls/mbedtls/mbedtls-2.16.2/library\rsa.c ****     {
 329:C:/Users/dtjld/workspace/AIoT/src/LiteOS_Lab/iot_link/network/dtls/mbedtls/mbedtls-2.16.2/library\rsa.c ****         ret = mbedtls_rsa_deduce_crt( &ctx->P,  &ctx->Q,  &ctx->D,
 944              		.loc 1 329 0
 945 01fc 7B68     		ldr	r3, [r7, #4]
 946 01fe 03F12C00 		add	r0, r3, #44
 947 0202 7B68     		ldr	r3, [r7, #4]
 948 0204 03F13801 		add	r1, r3, #56
 949 0208 7B68     		ldr	r3, [r7, #4]
 950 020a 03F12004 		add	r4, r3, #32
 951 020e 7B68     		ldr	r3, [r7, #4]
 952 0210 03F14405 		add	r5, r3, #68
 953 0214 7B68     		ldr	r3, [r7, #4]
 954 0216 5033     		adds	r3, r3, #80
 955 0218 7A68     		ldr	r2, [r7, #4]
 956 021a 5C32     		adds	r2, r2, #92
 957 021c 0192     		str	r2, [sp, #4]
 958 021e 0093     		str	r3, [sp]
 959 0220 2B46     		mov	r3, r5
 960 0222 2246     		mov	r2, r4
 961 0224 FFF7FEFF 		bl	mbedtls_rsa_deduce_crt
 962 0228 7863     		str	r0, [r7, #52]
 330:C:/Users/dtjld/workspace/AIoT/src/LiteOS_Lab/iot_link/network/dtls/mbedtls/mbedtls-2.16.2/library\rsa.c ****                                       &ctx->DP, &ctx->DQ, &ctx->QP );
 331:C:/Users/dtjld/workspace/AIoT/src/LiteOS_Lab/iot_link/network/dtls/mbedtls/mbedtls-2.16.2/library\rsa.c ****         if( ret != 0 )
 963              		.loc 1 331 0
 964 022a 7B6B     		ldr	r3, [r7, #52]
 965 022c 002B     		cmp	r3, #0
 966 022e 03D0     		beq	.L60
 332:C:/Users/dtjld/workspace/AIoT/src/LiteOS_Lab/iot_link/network/dtls/mbedtls/mbedtls-2.16.2/library\rsa.c ****             return( MBEDTLS_ERR_RSA_BAD_INPUT_DATA + ret );
 967              		.loc 1 332 0
 968 0230 7B6B     		ldr	r3, [r7, #52]
 969 0232 A3F58143 		sub	r3, r3, #16512
 970 0236 05E0     		b	.L55
 971              	.L60:
ARM GAS  C:\Users\dtjld\AppData\Local\Temp\cck1fUMg.s 			page 24


 333:C:/Users/dtjld/workspace/AIoT/src/LiteOS_Lab/iot_link/network/dtls/mbedtls/mbedtls-2.16.2/library\rsa.c ****     }
 334:C:/Users/dtjld/workspace/AIoT/src/LiteOS_Lab/iot_link/network/dtls/mbedtls/mbedtls-2.16.2/library\rsa.c **** #endif /* MBEDTLS_RSA_NO_CRT */
 335:C:/Users/dtjld/workspace/AIoT/src/LiteOS_Lab/iot_link/network/dtls/mbedtls/mbedtls-2.16.2/library\rsa.c **** 
 336:C:/Users/dtjld/workspace/AIoT/src/LiteOS_Lab/iot_link/network/dtls/mbedtls/mbedtls-2.16.2/library\rsa.c ****     /*
 337:C:/Users/dtjld/workspace/AIoT/src/LiteOS_Lab/iot_link/network/dtls/mbedtls/mbedtls-2.16.2/library\rsa.c ****      * Step 3: Basic sanity checks
 338:C:/Users/dtjld/workspace/AIoT/src/LiteOS_Lab/iot_link/network/dtls/mbedtls/mbedtls-2.16.2/library\rsa.c ****      */
 339:C:/Users/dtjld/workspace/AIoT/src/LiteOS_Lab/iot_link/network/dtls/mbedtls/mbedtls-2.16.2/library\rsa.c **** 
 340:C:/Users/dtjld/workspace/AIoT/src/LiteOS_Lab/iot_link/network/dtls/mbedtls/mbedtls-2.16.2/library\rsa.c ****     return( rsa_check_context( ctx, is_priv, 1 ) );
 972              		.loc 1 340 0
 973 0238 0122     		movs	r2, #1
 974 023a F968     		ldr	r1, [r7, #12]
 975 023c 7868     		ldr	r0, [r7, #4]
 976 023e FFF7FEFF 		bl	rsa_check_context
 977 0242 0346     		mov	r3, r0
 978              	.L55:
 341:C:/Users/dtjld/workspace/AIoT/src/LiteOS_Lab/iot_link/network/dtls/mbedtls/mbedtls-2.16.2/library\rsa.c **** }
 979              		.loc 1 341 0
 980 0244 1846     		mov	r0, r3
 981 0246 3837     		adds	r7, r7, #56
 982              	.LCFI24:
 983              		.cfi_def_cfa_offset 16
 984 0248 BD46     		mov	sp, r7
 985              	.LCFI25:
 986              		.cfi_def_cfa_register 13
 987              		@ sp needed
 988 024a B0BD     		pop	{r4, r5, r7, pc}
 989              	.L62:
 990              		.align	2
 991              	.L61:
 992 024c 80BFFFFF 		.word	-16512
 993              		.cfi_endproc
 994              	.LFE17:
 996              		.section	.text.mbedtls_rsa_export_raw,"ax",%progbits
 997              		.align	1
 998              		.global	mbedtls_rsa_export_raw
 999              		.syntax unified
 1000              		.thumb
 1001              		.thumb_func
 1002              		.fpu fpv4-sp-d16
 1004              	mbedtls_rsa_export_raw:
 1005              	.LFB18:
 342:C:/Users/dtjld/workspace/AIoT/src/LiteOS_Lab/iot_link/network/dtls/mbedtls/mbedtls-2.16.2/library\rsa.c **** 
 343:C:/Users/dtjld/workspace/AIoT/src/LiteOS_Lab/iot_link/network/dtls/mbedtls/mbedtls-2.16.2/library\rsa.c **** int mbedtls_rsa_export_raw( const mbedtls_rsa_context *ctx,
 344:C:/Users/dtjld/workspace/AIoT/src/LiteOS_Lab/iot_link/network/dtls/mbedtls/mbedtls-2.16.2/library\rsa.c ****                             unsigned char *N, size_t N_len,
 345:C:/Users/dtjld/workspace/AIoT/src/LiteOS_Lab/iot_link/network/dtls/mbedtls/mbedtls-2.16.2/library\rsa.c ****                             unsigned char *P, size_t P_len,
 346:C:/Users/dtjld/workspace/AIoT/src/LiteOS_Lab/iot_link/network/dtls/mbedtls/mbedtls-2.16.2/library\rsa.c ****                             unsigned char *Q, size_t Q_len,
 347:C:/Users/dtjld/workspace/AIoT/src/LiteOS_Lab/iot_link/network/dtls/mbedtls/mbedtls-2.16.2/library\rsa.c ****                             unsigned char *D, size_t D_len,
 348:C:/Users/dtjld/workspace/AIoT/src/LiteOS_Lab/iot_link/network/dtls/mbedtls/mbedtls-2.16.2/library\rsa.c ****                             unsigned char *E, size_t E_len )
 349:C:/Users/dtjld/workspace/AIoT/src/LiteOS_Lab/iot_link/network/dtls/mbedtls/mbedtls-2.16.2/library\rsa.c **** {
 1006              		.loc 1 349 0
 1007              		.cfi_startproc
 1008              		@ args = 28, pretend = 0, frame = 24
 1009              		@ frame_needed = 1, uses_anonymous_args = 0
 1010 0000 80B5     		push	{r7, lr}
 1011              	.LCFI26:
 1012              		.cfi_def_cfa_offset 8
 1013              		.cfi_offset 7, -8
ARM GAS  C:\Users\dtjld\AppData\Local\Temp\cck1fUMg.s 			page 25


 1014              		.cfi_offset 14, -4
 1015 0002 86B0     		sub	sp, sp, #24
 1016              	.LCFI27:
 1017              		.cfi_def_cfa_offset 32
 1018 0004 00AF     		add	r7, sp, #0
 1019              	.LCFI28:
 1020              		.cfi_def_cfa_register 7
 1021 0006 F860     		str	r0, [r7, #12]
 1022 0008 B960     		str	r1, [r7, #8]
 1023 000a 7A60     		str	r2, [r7, #4]
 1024 000c 3B60     		str	r3, [r7]
 350:C:/Users/dtjld/workspace/AIoT/src/LiteOS_Lab/iot_link/network/dtls/mbedtls/mbedtls-2.16.2/library\rsa.c ****     int ret = 0;
 1025              		.loc 1 350 0
 1026 000e 0023     		movs	r3, #0
 1027 0010 7B61     		str	r3, [r7, #20]
 351:C:/Users/dtjld/workspace/AIoT/src/LiteOS_Lab/iot_link/network/dtls/mbedtls/mbedtls-2.16.2/library\rsa.c ****     int is_priv;
 352:C:/Users/dtjld/workspace/AIoT/src/LiteOS_Lab/iot_link/network/dtls/mbedtls/mbedtls-2.16.2/library\rsa.c ****     RSA_VALIDATE_RET( ctx != NULL );
 353:C:/Users/dtjld/workspace/AIoT/src/LiteOS_Lab/iot_link/network/dtls/mbedtls/mbedtls-2.16.2/library\rsa.c **** 
 354:C:/Users/dtjld/workspace/AIoT/src/LiteOS_Lab/iot_link/network/dtls/mbedtls/mbedtls-2.16.2/library\rsa.c ****     /* Check if key is private or public */
 355:C:/Users/dtjld/workspace/AIoT/src/LiteOS_Lab/iot_link/network/dtls/mbedtls/mbedtls-2.16.2/library\rsa.c ****     is_priv =
 356:C:/Users/dtjld/workspace/AIoT/src/LiteOS_Lab/iot_link/network/dtls/mbedtls/mbedtls-2.16.2/library\rsa.c ****         mbedtls_mpi_cmp_int( &ctx->N, 0 ) != 0 &&
 1028              		.loc 1 356 0
 1029 0012 FB68     		ldr	r3, [r7, #12]
 1030 0014 0833     		adds	r3, r3, #8
 1031 0016 0021     		movs	r1, #0
 1032 0018 1846     		mov	r0, r3
 1033 001a FFF7FEFF 		bl	mbedtls_mpi_cmp_int
 1034 001e 0346     		mov	r3, r0
 357:C:/Users/dtjld/workspace/AIoT/src/LiteOS_Lab/iot_link/network/dtls/mbedtls/mbedtls-2.16.2/library\rsa.c ****         mbedtls_mpi_cmp_int( &ctx->P, 0 ) != 0 &&
 358:C:/Users/dtjld/workspace/AIoT/src/LiteOS_Lab/iot_link/network/dtls/mbedtls/mbedtls-2.16.2/library\rsa.c ****         mbedtls_mpi_cmp_int( &ctx->Q, 0 ) != 0 &&
 359:C:/Users/dtjld/workspace/AIoT/src/LiteOS_Lab/iot_link/network/dtls/mbedtls/mbedtls-2.16.2/library\rsa.c ****         mbedtls_mpi_cmp_int( &ctx->D, 0 ) != 0 &&
 1035              		.loc 1 359 0
 1036 0020 002B     		cmp	r3, #0
 1037 0022 25D0     		beq	.L64
 357:C:/Users/dtjld/workspace/AIoT/src/LiteOS_Lab/iot_link/network/dtls/mbedtls/mbedtls-2.16.2/library\rsa.c ****         mbedtls_mpi_cmp_int( &ctx->P, 0 ) != 0 &&
 1038              		.loc 1 357 0
 1039 0024 FB68     		ldr	r3, [r7, #12]
 1040 0026 2C33     		adds	r3, r3, #44
 1041 0028 0021     		movs	r1, #0
 1042 002a 1846     		mov	r0, r3
 1043 002c FFF7FEFF 		bl	mbedtls_mpi_cmp_int
 1044 0030 0346     		mov	r3, r0
 356:C:/Users/dtjld/workspace/AIoT/src/LiteOS_Lab/iot_link/network/dtls/mbedtls/mbedtls-2.16.2/library\rsa.c ****         mbedtls_mpi_cmp_int( &ctx->P, 0 ) != 0 &&
 1045              		.loc 1 356 0
 1046 0032 002B     		cmp	r3, #0
 1047 0034 1CD0     		beq	.L64
 358:C:/Users/dtjld/workspace/AIoT/src/LiteOS_Lab/iot_link/network/dtls/mbedtls/mbedtls-2.16.2/library\rsa.c ****         mbedtls_mpi_cmp_int( &ctx->D, 0 ) != 0 &&
 1048              		.loc 1 358 0
 1049 0036 FB68     		ldr	r3, [r7, #12]
 1050 0038 3833     		adds	r3, r3, #56
 1051 003a 0021     		movs	r1, #0
 1052 003c 1846     		mov	r0, r3
 1053 003e FFF7FEFF 		bl	mbedtls_mpi_cmp_int
 1054 0042 0346     		mov	r3, r0
 357:C:/Users/dtjld/workspace/AIoT/src/LiteOS_Lab/iot_link/network/dtls/mbedtls/mbedtls-2.16.2/library\rsa.c ****         mbedtls_mpi_cmp_int( &ctx->P, 0 ) != 0 &&
 1055              		.loc 1 357 0
 1056 0044 002B     		cmp	r3, #0
ARM GAS  C:\Users\dtjld\AppData\Local\Temp\cck1fUMg.s 			page 26


 1057 0046 13D0     		beq	.L64
 1058              		.loc 1 359 0
 1059 0048 FB68     		ldr	r3, [r7, #12]
 1060 004a 2033     		adds	r3, r3, #32
 1061 004c 0021     		movs	r1, #0
 1062 004e 1846     		mov	r0, r3
 1063 0050 FFF7FEFF 		bl	mbedtls_mpi_cmp_int
 1064 0054 0346     		mov	r3, r0
 358:C:/Users/dtjld/workspace/AIoT/src/LiteOS_Lab/iot_link/network/dtls/mbedtls/mbedtls-2.16.2/library\rsa.c ****         mbedtls_mpi_cmp_int( &ctx->D, 0 ) != 0 &&
 1065              		.loc 1 358 0
 1066 0056 002B     		cmp	r3, #0
 1067 0058 0AD0     		beq	.L64
 360:C:/Users/dtjld/workspace/AIoT/src/LiteOS_Lab/iot_link/network/dtls/mbedtls/mbedtls-2.16.2/library\rsa.c ****         mbedtls_mpi_cmp_int( &ctx->E, 0 ) != 0;
 1068              		.loc 1 360 0 discriminator 3
 1069 005a FB68     		ldr	r3, [r7, #12]
 1070 005c 1433     		adds	r3, r3, #20
 1071 005e 0021     		movs	r1, #0
 1072 0060 1846     		mov	r0, r3
 1073 0062 FFF7FEFF 		bl	mbedtls_mpi_cmp_int
 1074 0066 0346     		mov	r3, r0
 359:C:/Users/dtjld/workspace/AIoT/src/LiteOS_Lab/iot_link/network/dtls/mbedtls/mbedtls-2.16.2/library\rsa.c ****         mbedtls_mpi_cmp_int( &ctx->E, 0 ) != 0;
 1075              		.loc 1 359 0 discriminator 3
 1076 0068 002B     		cmp	r3, #0
 1077 006a 01D0     		beq	.L64
 359:C:/Users/dtjld/workspace/AIoT/src/LiteOS_Lab/iot_link/network/dtls/mbedtls/mbedtls-2.16.2/library\rsa.c ****         mbedtls_mpi_cmp_int( &ctx->E, 0 ) != 0;
 1078              		.loc 1 359 0 is_stmt 0 discriminator 2
 1079 006c 0123     		movs	r3, #1
 1080 006e 00E0     		b	.L65
 1081              	.L64:
 359:C:/Users/dtjld/workspace/AIoT/src/LiteOS_Lab/iot_link/network/dtls/mbedtls/mbedtls-2.16.2/library\rsa.c ****         mbedtls_mpi_cmp_int( &ctx->E, 0 ) != 0;
 1082              		.loc 1 359 0 discriminator 1
 1083 0070 0023     		movs	r3, #0
 1084              	.L65:
 355:C:/Users/dtjld/workspace/AIoT/src/LiteOS_Lab/iot_link/network/dtls/mbedtls/mbedtls-2.16.2/library\rsa.c ****         mbedtls_mpi_cmp_int( &ctx->N, 0 ) != 0 &&
 1085              		.loc 1 355 0 is_stmt 1
 1086 0072 3B61     		str	r3, [r7, #16]
 361:C:/Users/dtjld/workspace/AIoT/src/LiteOS_Lab/iot_link/network/dtls/mbedtls/mbedtls-2.16.2/library\rsa.c **** 
 362:C:/Users/dtjld/workspace/AIoT/src/LiteOS_Lab/iot_link/network/dtls/mbedtls/mbedtls-2.16.2/library\rsa.c ****     if( !is_priv )
 1087              		.loc 1 362 0
 1088 0074 3B69     		ldr	r3, [r7, #16]
 1089 0076 002B     		cmp	r3, #0
 1090 0078 0AD1     		bne	.L66
 363:C:/Users/dtjld/workspace/AIoT/src/LiteOS_Lab/iot_link/network/dtls/mbedtls/mbedtls-2.16.2/library\rsa.c ****     {
 364:C:/Users/dtjld/workspace/AIoT/src/LiteOS_Lab/iot_link/network/dtls/mbedtls/mbedtls-2.16.2/library\rsa.c ****         /* If we're trying to export private parameters for a public key,
 365:C:/Users/dtjld/workspace/AIoT/src/LiteOS_Lab/iot_link/network/dtls/mbedtls/mbedtls-2.16.2/library\rsa.c ****          * something must be wrong. */
 366:C:/Users/dtjld/workspace/AIoT/src/LiteOS_Lab/iot_link/network/dtls/mbedtls/mbedtls-2.16.2/library\rsa.c ****         if( P != NULL || Q != NULL || D != NULL )
 1091              		.loc 1 366 0
 1092 007a 3B68     		ldr	r3, [r7]
 1093 007c 002B     		cmp	r3, #0
 1094 007e 05D1     		bne	.L67
 1095              		.loc 1 366 0 is_stmt 0 discriminator 1
 1096 0080 7B6A     		ldr	r3, [r7, #36]
 1097 0082 002B     		cmp	r3, #0
 1098 0084 02D1     		bne	.L67
 1099              		.loc 1 366 0 discriminator 2
 1100 0086 FB6A     		ldr	r3, [r7, #44]
 1101 0088 002B     		cmp	r3, #0
ARM GAS  C:\Users\dtjld\AppData\Local\Temp\cck1fUMg.s 			page 27


 1102 008a 01D0     		beq	.L66
 1103              	.L67:
 367:C:/Users/dtjld/workspace/AIoT/src/LiteOS_Lab/iot_link/network/dtls/mbedtls/mbedtls-2.16.2/library\rsa.c ****             return( MBEDTLS_ERR_RSA_BAD_INPUT_DATA );
 1104              		.loc 1 367 0 is_stmt 1
 1105 008c 2A4B     		ldr	r3, .L79
 1106 008e 4FE0     		b	.L68
 1107              	.L66:
 368:C:/Users/dtjld/workspace/AIoT/src/LiteOS_Lab/iot_link/network/dtls/mbedtls/mbedtls-2.16.2/library\rsa.c **** 
 369:C:/Users/dtjld/workspace/AIoT/src/LiteOS_Lab/iot_link/network/dtls/mbedtls/mbedtls-2.16.2/library\rsa.c ****     }
 370:C:/Users/dtjld/workspace/AIoT/src/LiteOS_Lab/iot_link/network/dtls/mbedtls/mbedtls-2.16.2/library\rsa.c **** 
 371:C:/Users/dtjld/workspace/AIoT/src/LiteOS_Lab/iot_link/network/dtls/mbedtls/mbedtls-2.16.2/library\rsa.c ****     if( N != NULL )
 1108              		.loc 1 371 0
 1109 0090 BB68     		ldr	r3, [r7, #8]
 1110 0092 002B     		cmp	r3, #0
 1111 0094 0AD0     		beq	.L69
 372:C:/Users/dtjld/workspace/AIoT/src/LiteOS_Lab/iot_link/network/dtls/mbedtls/mbedtls-2.16.2/library\rsa.c ****         MBEDTLS_MPI_CHK( mbedtls_mpi_write_binary( &ctx->N, N, N_len ) );
 1112              		.loc 1 372 0
 1113 0096 FB68     		ldr	r3, [r7, #12]
 1114 0098 0833     		adds	r3, r3, #8
 1115 009a 7A68     		ldr	r2, [r7, #4]
 1116 009c B968     		ldr	r1, [r7, #8]
 1117 009e 1846     		mov	r0, r3
 1118 00a0 FFF7FEFF 		bl	mbedtls_mpi_write_binary
 1119 00a4 7861     		str	r0, [r7, #20]
 1120 00a6 7B69     		ldr	r3, [r7, #20]
 1121 00a8 002B     		cmp	r3, #0
 1122 00aa 37D1     		bne	.L74
 1123              	.L69:
 373:C:/Users/dtjld/workspace/AIoT/src/LiteOS_Lab/iot_link/network/dtls/mbedtls/mbedtls-2.16.2/library\rsa.c **** 
 374:C:/Users/dtjld/workspace/AIoT/src/LiteOS_Lab/iot_link/network/dtls/mbedtls/mbedtls-2.16.2/library\rsa.c ****     if( P != NULL )
 1124              		.loc 1 374 0
 1125 00ac 3B68     		ldr	r3, [r7]
 1126 00ae 002B     		cmp	r3, #0
 1127 00b0 0AD0     		beq	.L71
 375:C:/Users/dtjld/workspace/AIoT/src/LiteOS_Lab/iot_link/network/dtls/mbedtls/mbedtls-2.16.2/library\rsa.c ****         MBEDTLS_MPI_CHK( mbedtls_mpi_write_binary( &ctx->P, P, P_len ) );
 1128              		.loc 1 375 0
 1129 00b2 FB68     		ldr	r3, [r7, #12]
 1130 00b4 2C33     		adds	r3, r3, #44
 1131 00b6 3A6A     		ldr	r2, [r7, #32]
 1132 00b8 3968     		ldr	r1, [r7]
 1133 00ba 1846     		mov	r0, r3
 1134 00bc FFF7FEFF 		bl	mbedtls_mpi_write_binary
 1135 00c0 7861     		str	r0, [r7, #20]
 1136 00c2 7B69     		ldr	r3, [r7, #20]
 1137 00c4 002B     		cmp	r3, #0
 1138 00c6 2BD1     		bne	.L75
 1139              	.L71:
 376:C:/Users/dtjld/workspace/AIoT/src/LiteOS_Lab/iot_link/network/dtls/mbedtls/mbedtls-2.16.2/library\rsa.c **** 
 377:C:/Users/dtjld/workspace/AIoT/src/LiteOS_Lab/iot_link/network/dtls/mbedtls/mbedtls-2.16.2/library\rsa.c ****     if( Q != NULL )
 1140              		.loc 1 377 0
 1141 00c8 7B6A     		ldr	r3, [r7, #36]
 1142 00ca 002B     		cmp	r3, #0
 1143 00cc 0AD0     		beq	.L72
 378:C:/Users/dtjld/workspace/AIoT/src/LiteOS_Lab/iot_link/network/dtls/mbedtls/mbedtls-2.16.2/library\rsa.c ****         MBEDTLS_MPI_CHK( mbedtls_mpi_write_binary( &ctx->Q, Q, Q_len ) );
 1144              		.loc 1 378 0
 1145 00ce FB68     		ldr	r3, [r7, #12]
 1146 00d0 3833     		adds	r3, r3, #56
ARM GAS  C:\Users\dtjld\AppData\Local\Temp\cck1fUMg.s 			page 28


 1147 00d2 BA6A     		ldr	r2, [r7, #40]
 1148 00d4 796A     		ldr	r1, [r7, #36]
 1149 00d6 1846     		mov	r0, r3
 1150 00d8 FFF7FEFF 		bl	mbedtls_mpi_write_binary
 1151 00dc 7861     		str	r0, [r7, #20]
 1152 00de 7B69     		ldr	r3, [r7, #20]
 1153 00e0 002B     		cmp	r3, #0
 1154 00e2 1FD1     		bne	.L76
 1155              	.L72:
 379:C:/Users/dtjld/workspace/AIoT/src/LiteOS_Lab/iot_link/network/dtls/mbedtls/mbedtls-2.16.2/library\rsa.c **** 
 380:C:/Users/dtjld/workspace/AIoT/src/LiteOS_Lab/iot_link/network/dtls/mbedtls/mbedtls-2.16.2/library\rsa.c ****     if( D != NULL )
 1156              		.loc 1 380 0
 1157 00e4 FB6A     		ldr	r3, [r7, #44]
 1158 00e6 002B     		cmp	r3, #0
 1159 00e8 0AD0     		beq	.L73
 381:C:/Users/dtjld/workspace/AIoT/src/LiteOS_Lab/iot_link/network/dtls/mbedtls/mbedtls-2.16.2/library\rsa.c ****         MBEDTLS_MPI_CHK( mbedtls_mpi_write_binary( &ctx->D, D, D_len ) );
 1160              		.loc 1 381 0
 1161 00ea FB68     		ldr	r3, [r7, #12]
 1162 00ec 2033     		adds	r3, r3, #32
 1163 00ee 3A6B     		ldr	r2, [r7, #48]
 1164 00f0 F96A     		ldr	r1, [r7, #44]
 1165 00f2 1846     		mov	r0, r3
 1166 00f4 FFF7FEFF 		bl	mbedtls_mpi_write_binary
 1167 00f8 7861     		str	r0, [r7, #20]
 1168 00fa 7B69     		ldr	r3, [r7, #20]
 1169 00fc 002B     		cmp	r3, #0
 1170 00fe 13D1     		bne	.L77
 1171              	.L73:
 382:C:/Users/dtjld/workspace/AIoT/src/LiteOS_Lab/iot_link/network/dtls/mbedtls/mbedtls-2.16.2/library\rsa.c **** 
 383:C:/Users/dtjld/workspace/AIoT/src/LiteOS_Lab/iot_link/network/dtls/mbedtls/mbedtls-2.16.2/library\rsa.c ****     if( E != NULL )
 1172              		.loc 1 383 0
 1173 0100 7B6B     		ldr	r3, [r7, #52]
 1174 0102 002B     		cmp	r3, #0
 1175 0104 12D0     		beq	.L78
 384:C:/Users/dtjld/workspace/AIoT/src/LiteOS_Lab/iot_link/network/dtls/mbedtls/mbedtls-2.16.2/library\rsa.c ****         MBEDTLS_MPI_CHK( mbedtls_mpi_write_binary( &ctx->E, E, E_len ) );
 1176              		.loc 1 384 0
 1177 0106 FB68     		ldr	r3, [r7, #12]
 1178 0108 1433     		adds	r3, r3, #20
 1179 010a BA6B     		ldr	r2, [r7, #56]
 1180 010c 796B     		ldr	r1, [r7, #52]
 1181 010e 1846     		mov	r0, r3
 1182 0110 FFF7FEFF 		bl	mbedtls_mpi_write_binary
 1183 0114 7861     		str	r0, [r7, #20]
 1184 0116 7B69     		ldr	r3, [r7, #20]
 1185 0118 002B     		cmp	r3, #0
 385:C:/Users/dtjld/workspace/AIoT/src/LiteOS_Lab/iot_link/network/dtls/mbedtls/mbedtls-2.16.2/library\rsa.c **** 
 386:C:/Users/dtjld/workspace/AIoT/src/LiteOS_Lab/iot_link/network/dtls/mbedtls/mbedtls-2.16.2/library\rsa.c **** cleanup:
 1186              		.loc 1 386 0
 1187 011a 07E0     		b	.L78
 1188              	.L74:
 372:C:/Users/dtjld/workspace/AIoT/src/LiteOS_Lab/iot_link/network/dtls/mbedtls/mbedtls-2.16.2/library\rsa.c **** 
 1189              		.loc 1 372 0
 1190 011c 00BF     		nop
 1191 011e 06E0     		b	.L70
 1192              	.L75:
 375:C:/Users/dtjld/workspace/AIoT/src/LiteOS_Lab/iot_link/network/dtls/mbedtls/mbedtls-2.16.2/library\rsa.c **** 
 1193              		.loc 1 375 0
ARM GAS  C:\Users\dtjld\AppData\Local\Temp\cck1fUMg.s 			page 29


 1194 0120 00BF     		nop
 1195 0122 04E0     		b	.L70
 1196              	.L76:
 378:C:/Users/dtjld/workspace/AIoT/src/LiteOS_Lab/iot_link/network/dtls/mbedtls/mbedtls-2.16.2/library\rsa.c **** 
 1197              		.loc 1 378 0
 1198 0124 00BF     		nop
 1199 0126 02E0     		b	.L70
 1200              	.L77:
 381:C:/Users/dtjld/workspace/AIoT/src/LiteOS_Lab/iot_link/network/dtls/mbedtls/mbedtls-2.16.2/library\rsa.c **** 
 1201              		.loc 1 381 0
 1202 0128 00BF     		nop
 1203 012a 00E0     		b	.L70
 1204              	.L78:
 1205              		.loc 1 386 0
 1206 012c 00BF     		nop
 1207              	.L70:
 387:C:/Users/dtjld/workspace/AIoT/src/LiteOS_Lab/iot_link/network/dtls/mbedtls/mbedtls-2.16.2/library\rsa.c **** 
 388:C:/Users/dtjld/workspace/AIoT/src/LiteOS_Lab/iot_link/network/dtls/mbedtls/mbedtls-2.16.2/library\rsa.c ****     return( ret );
 1208              		.loc 1 388 0
 1209 012e 7B69     		ldr	r3, [r7, #20]
 1210              	.L68:
 389:C:/Users/dtjld/workspace/AIoT/src/LiteOS_Lab/iot_link/network/dtls/mbedtls/mbedtls-2.16.2/library\rsa.c **** }
 1211              		.loc 1 389 0
 1212 0130 1846     		mov	r0, r3
 1213 0132 1837     		adds	r7, r7, #24
 1214              	.LCFI29:
 1215              		.cfi_def_cfa_offset 8
 1216 0134 BD46     		mov	sp, r7
 1217              	.LCFI30:
 1218              		.cfi_def_cfa_register 13
 1219              		@ sp needed
 1220 0136 80BD     		pop	{r7, pc}
 1221              	.L80:
 1222              		.align	2
 1223              	.L79:
 1224 0138 80BFFFFF 		.word	-16512
 1225              		.cfi_endproc
 1226              	.LFE18:
 1228              		.section	.text.mbedtls_rsa_export,"ax",%progbits
 1229              		.align	1
 1230              		.global	mbedtls_rsa_export
 1231              		.syntax unified
 1232              		.thumb
 1233              		.thumb_func
 1234              		.fpu fpv4-sp-d16
 1236              	mbedtls_rsa_export:
 1237              	.LFB19:
 390:C:/Users/dtjld/workspace/AIoT/src/LiteOS_Lab/iot_link/network/dtls/mbedtls/mbedtls-2.16.2/library\rsa.c **** 
 391:C:/Users/dtjld/workspace/AIoT/src/LiteOS_Lab/iot_link/network/dtls/mbedtls/mbedtls-2.16.2/library\rsa.c **** int mbedtls_rsa_export( const mbedtls_rsa_context *ctx,
 392:C:/Users/dtjld/workspace/AIoT/src/LiteOS_Lab/iot_link/network/dtls/mbedtls/mbedtls-2.16.2/library\rsa.c ****                         mbedtls_mpi *N, mbedtls_mpi *P, mbedtls_mpi *Q,
 393:C:/Users/dtjld/workspace/AIoT/src/LiteOS_Lab/iot_link/network/dtls/mbedtls/mbedtls-2.16.2/library\rsa.c ****                         mbedtls_mpi *D, mbedtls_mpi *E )
 394:C:/Users/dtjld/workspace/AIoT/src/LiteOS_Lab/iot_link/network/dtls/mbedtls/mbedtls-2.16.2/library\rsa.c **** {
 1238              		.loc 1 394 0
 1239              		.cfi_startproc
 1240              		@ args = 8, pretend = 0, frame = 24
 1241              		@ frame_needed = 1, uses_anonymous_args = 0
 1242 0000 80B5     		push	{r7, lr}
ARM GAS  C:\Users\dtjld\AppData\Local\Temp\cck1fUMg.s 			page 30


 1243              	.LCFI31:
 1244              		.cfi_def_cfa_offset 8
 1245              		.cfi_offset 7, -8
 1246              		.cfi_offset 14, -4
 1247 0002 86B0     		sub	sp, sp, #24
 1248              	.LCFI32:
 1249              		.cfi_def_cfa_offset 32
 1250 0004 00AF     		add	r7, sp, #0
 1251              	.LCFI33:
 1252              		.cfi_def_cfa_register 7
 1253 0006 F860     		str	r0, [r7, #12]
 1254 0008 B960     		str	r1, [r7, #8]
 1255 000a 7A60     		str	r2, [r7, #4]
 1256 000c 3B60     		str	r3, [r7]
 395:C:/Users/dtjld/workspace/AIoT/src/LiteOS_Lab/iot_link/network/dtls/mbedtls/mbedtls-2.16.2/library\rsa.c ****     int ret;
 396:C:/Users/dtjld/workspace/AIoT/src/LiteOS_Lab/iot_link/network/dtls/mbedtls/mbedtls-2.16.2/library\rsa.c ****     int is_priv;
 397:C:/Users/dtjld/workspace/AIoT/src/LiteOS_Lab/iot_link/network/dtls/mbedtls/mbedtls-2.16.2/library\rsa.c ****     RSA_VALIDATE_RET( ctx != NULL );
 398:C:/Users/dtjld/workspace/AIoT/src/LiteOS_Lab/iot_link/network/dtls/mbedtls/mbedtls-2.16.2/library\rsa.c **** 
 399:C:/Users/dtjld/workspace/AIoT/src/LiteOS_Lab/iot_link/network/dtls/mbedtls/mbedtls-2.16.2/library\rsa.c ****     /* Check if key is private or public */
 400:C:/Users/dtjld/workspace/AIoT/src/LiteOS_Lab/iot_link/network/dtls/mbedtls/mbedtls-2.16.2/library\rsa.c ****     is_priv =
 401:C:/Users/dtjld/workspace/AIoT/src/LiteOS_Lab/iot_link/network/dtls/mbedtls/mbedtls-2.16.2/library\rsa.c ****         mbedtls_mpi_cmp_int( &ctx->N, 0 ) != 0 &&
 1257              		.loc 1 401 0
 1258 000e FB68     		ldr	r3, [r7, #12]
 1259 0010 0833     		adds	r3, r3, #8
 1260 0012 0021     		movs	r1, #0
 1261 0014 1846     		mov	r0, r3
 1262 0016 FFF7FEFF 		bl	mbedtls_mpi_cmp_int
 1263 001a 0346     		mov	r3, r0
 402:C:/Users/dtjld/workspace/AIoT/src/LiteOS_Lab/iot_link/network/dtls/mbedtls/mbedtls-2.16.2/library\rsa.c ****         mbedtls_mpi_cmp_int( &ctx->P, 0 ) != 0 &&
 403:C:/Users/dtjld/workspace/AIoT/src/LiteOS_Lab/iot_link/network/dtls/mbedtls/mbedtls-2.16.2/library\rsa.c ****         mbedtls_mpi_cmp_int( &ctx->Q, 0 ) != 0 &&
 404:C:/Users/dtjld/workspace/AIoT/src/LiteOS_Lab/iot_link/network/dtls/mbedtls/mbedtls-2.16.2/library\rsa.c ****         mbedtls_mpi_cmp_int( &ctx->D, 0 ) != 0 &&
 1264              		.loc 1 404 0
 1265 001c 002B     		cmp	r3, #0
 1266 001e 25D0     		beq	.L82
 402:C:/Users/dtjld/workspace/AIoT/src/LiteOS_Lab/iot_link/network/dtls/mbedtls/mbedtls-2.16.2/library\rsa.c ****         mbedtls_mpi_cmp_int( &ctx->P, 0 ) != 0 &&
 1267              		.loc 1 402 0
 1268 0020 FB68     		ldr	r3, [r7, #12]
 1269 0022 2C33     		adds	r3, r3, #44
 1270 0024 0021     		movs	r1, #0
 1271 0026 1846     		mov	r0, r3
 1272 0028 FFF7FEFF 		bl	mbedtls_mpi_cmp_int
 1273 002c 0346     		mov	r3, r0
 401:C:/Users/dtjld/workspace/AIoT/src/LiteOS_Lab/iot_link/network/dtls/mbedtls/mbedtls-2.16.2/library\rsa.c ****         mbedtls_mpi_cmp_int( &ctx->P, 0 ) != 0 &&
 1274              		.loc 1 401 0
 1275 002e 002B     		cmp	r3, #0
 1276 0030 1CD0     		beq	.L82
 403:C:/Users/dtjld/workspace/AIoT/src/LiteOS_Lab/iot_link/network/dtls/mbedtls/mbedtls-2.16.2/library\rsa.c ****         mbedtls_mpi_cmp_int( &ctx->D, 0 ) != 0 &&
 1277              		.loc 1 403 0
 1278 0032 FB68     		ldr	r3, [r7, #12]
 1279 0034 3833     		adds	r3, r3, #56
 1280 0036 0021     		movs	r1, #0
 1281 0038 1846     		mov	r0, r3
 1282 003a FFF7FEFF 		bl	mbedtls_mpi_cmp_int
 1283 003e 0346     		mov	r3, r0
 402:C:/Users/dtjld/workspace/AIoT/src/LiteOS_Lab/iot_link/network/dtls/mbedtls/mbedtls-2.16.2/library\rsa.c ****         mbedtls_mpi_cmp_int( &ctx->P, 0 ) != 0 &&
 1284              		.loc 1 402 0
 1285 0040 002B     		cmp	r3, #0
ARM GAS  C:\Users\dtjld\AppData\Local\Temp\cck1fUMg.s 			page 31


 1286 0042 13D0     		beq	.L82
 1287              		.loc 1 404 0
 1288 0044 FB68     		ldr	r3, [r7, #12]
 1289 0046 2033     		adds	r3, r3, #32
 1290 0048 0021     		movs	r1, #0
 1291 004a 1846     		mov	r0, r3
 1292 004c FFF7FEFF 		bl	mbedtls_mpi_cmp_int
 1293 0050 0346     		mov	r3, r0
 403:C:/Users/dtjld/workspace/AIoT/src/LiteOS_Lab/iot_link/network/dtls/mbedtls/mbedtls-2.16.2/library\rsa.c ****         mbedtls_mpi_cmp_int( &ctx->D, 0 ) != 0 &&
 1294              		.loc 1 403 0
 1295 0052 002B     		cmp	r3, #0
 1296 0054 0AD0     		beq	.L82
 405:C:/Users/dtjld/workspace/AIoT/src/LiteOS_Lab/iot_link/network/dtls/mbedtls/mbedtls-2.16.2/library\rsa.c ****         mbedtls_mpi_cmp_int( &ctx->E, 0 ) != 0;
 1297              		.loc 1 405 0 discriminator 3
 1298 0056 FB68     		ldr	r3, [r7, #12]
 1299 0058 1433     		adds	r3, r3, #20
 1300 005a 0021     		movs	r1, #0
 1301 005c 1846     		mov	r0, r3
 1302 005e FFF7FEFF 		bl	mbedtls_mpi_cmp_int
 1303 0062 0346     		mov	r3, r0
 404:C:/Users/dtjld/workspace/AIoT/src/LiteOS_Lab/iot_link/network/dtls/mbedtls/mbedtls-2.16.2/library\rsa.c ****         mbedtls_mpi_cmp_int( &ctx->E, 0 ) != 0;
 1304              		.loc 1 404 0 discriminator 3
 1305 0064 002B     		cmp	r3, #0
 1306 0066 01D0     		beq	.L82
 404:C:/Users/dtjld/workspace/AIoT/src/LiteOS_Lab/iot_link/network/dtls/mbedtls/mbedtls-2.16.2/library\rsa.c ****         mbedtls_mpi_cmp_int( &ctx->E, 0 ) != 0;
 1307              		.loc 1 404 0 is_stmt 0 discriminator 2
 1308 0068 0123     		movs	r3, #1
 1309 006a 00E0     		b	.L83
 1310              	.L82:
 404:C:/Users/dtjld/workspace/AIoT/src/LiteOS_Lab/iot_link/network/dtls/mbedtls/mbedtls-2.16.2/library\rsa.c ****         mbedtls_mpi_cmp_int( &ctx->E, 0 ) != 0;
 1311              		.loc 1 404 0 discriminator 1
 1312 006c 0023     		movs	r3, #0
 1313              	.L83:
 400:C:/Users/dtjld/workspace/AIoT/src/LiteOS_Lab/iot_link/network/dtls/mbedtls/mbedtls-2.16.2/library\rsa.c ****         mbedtls_mpi_cmp_int( &ctx->N, 0 ) != 0 &&
 1314              		.loc 1 400 0 is_stmt 1
 1315 006e 3B61     		str	r3, [r7, #16]
 406:C:/Users/dtjld/workspace/AIoT/src/LiteOS_Lab/iot_link/network/dtls/mbedtls/mbedtls-2.16.2/library\rsa.c **** 
 407:C:/Users/dtjld/workspace/AIoT/src/LiteOS_Lab/iot_link/network/dtls/mbedtls/mbedtls-2.16.2/library\rsa.c ****     if( !is_priv )
 1316              		.loc 1 407 0
 1317 0070 3B69     		ldr	r3, [r7, #16]
 1318 0072 002B     		cmp	r3, #0
 1319 0074 0AD1     		bne	.L84
 408:C:/Users/dtjld/workspace/AIoT/src/LiteOS_Lab/iot_link/network/dtls/mbedtls/mbedtls-2.16.2/library\rsa.c ****     {
 409:C:/Users/dtjld/workspace/AIoT/src/LiteOS_Lab/iot_link/network/dtls/mbedtls/mbedtls-2.16.2/library\rsa.c ****         /* If we're trying to export private parameters for a public key,
 410:C:/Users/dtjld/workspace/AIoT/src/LiteOS_Lab/iot_link/network/dtls/mbedtls/mbedtls-2.16.2/library\rsa.c ****          * something must be wrong. */
 411:C:/Users/dtjld/workspace/AIoT/src/LiteOS_Lab/iot_link/network/dtls/mbedtls/mbedtls-2.16.2/library\rsa.c ****         if( P != NULL || Q != NULL || D != NULL )
 1320              		.loc 1 411 0
 1321 0076 7B68     		ldr	r3, [r7, #4]
 1322 0078 002B     		cmp	r3, #0
 1323 007a 05D1     		bne	.L85
 1324              		.loc 1 411 0 is_stmt 0 discriminator 1
 1325 007c 3B68     		ldr	r3, [r7]
 1326 007e 002B     		cmp	r3, #0
 1327 0080 02D1     		bne	.L85
 1328              		.loc 1 411 0 discriminator 2
 1329 0082 3B6A     		ldr	r3, [r7, #32]
 1330 0084 002B     		cmp	r3, #0
ARM GAS  C:\Users\dtjld\AppData\Local\Temp\cck1fUMg.s 			page 32


 1331 0086 01D0     		beq	.L84
 1332              	.L85:
 412:C:/Users/dtjld/workspace/AIoT/src/LiteOS_Lab/iot_link/network/dtls/mbedtls/mbedtls-2.16.2/library\rsa.c ****             return( MBEDTLS_ERR_RSA_BAD_INPUT_DATA );
 1333              		.loc 1 412 0 is_stmt 1
 1334 0088 244B     		ldr	r3, .L93
 1335 008a 43E0     		b	.L86
 1336              	.L84:
 413:C:/Users/dtjld/workspace/AIoT/src/LiteOS_Lab/iot_link/network/dtls/mbedtls/mbedtls-2.16.2/library\rsa.c **** 
 414:C:/Users/dtjld/workspace/AIoT/src/LiteOS_Lab/iot_link/network/dtls/mbedtls/mbedtls-2.16.2/library\rsa.c ****     }
 415:C:/Users/dtjld/workspace/AIoT/src/LiteOS_Lab/iot_link/network/dtls/mbedtls/mbedtls-2.16.2/library\rsa.c **** 
 416:C:/Users/dtjld/workspace/AIoT/src/LiteOS_Lab/iot_link/network/dtls/mbedtls/mbedtls-2.16.2/library\rsa.c ****     /* Export all requested core parameters. */
 417:C:/Users/dtjld/workspace/AIoT/src/LiteOS_Lab/iot_link/network/dtls/mbedtls/mbedtls-2.16.2/library\rsa.c **** 
 418:C:/Users/dtjld/workspace/AIoT/src/LiteOS_Lab/iot_link/network/dtls/mbedtls/mbedtls-2.16.2/library\rsa.c ****     if( ( N != NULL && ( ret = mbedtls_mpi_copy( N, &ctx->N ) ) != 0 ) ||
 1337              		.loc 1 418 0
 1338 008c BB68     		ldr	r3, [r7, #8]
 1339 008e 002B     		cmp	r3, #0
 1340 0090 09D0     		beq	.L87
 1341              		.loc 1 418 0 is_stmt 0 discriminator 1
 1342 0092 FB68     		ldr	r3, [r7, #12]
 1343 0094 0833     		adds	r3, r3, #8
 1344 0096 1946     		mov	r1, r3
 1345 0098 B868     		ldr	r0, [r7, #8]
 1346 009a FFF7FEFF 		bl	mbedtls_mpi_copy
 1347 009e 7861     		str	r0, [r7, #20]
 1348 00a0 7B69     		ldr	r3, [r7, #20]
 1349 00a2 002B     		cmp	r3, #0
 1350 00a4 33D1     		bne	.L88
 1351              	.L87:
 1352              		.loc 1 418 0 discriminator 3
 1353 00a6 7B68     		ldr	r3, [r7, #4]
 1354 00a8 002B     		cmp	r3, #0
 1355 00aa 09D0     		beq	.L89
 419:C:/Users/dtjld/workspace/AIoT/src/LiteOS_Lab/iot_link/network/dtls/mbedtls/mbedtls-2.16.2/library\rsa.c ****         ( P != NULL && ( ret = mbedtls_mpi_copy( P, &ctx->P ) ) != 0 ) ||
 1356              		.loc 1 419 0 is_stmt 1
 1357 00ac FB68     		ldr	r3, [r7, #12]
 1358 00ae 2C33     		adds	r3, r3, #44
 1359 00b0 1946     		mov	r1, r3
 1360 00b2 7868     		ldr	r0, [r7, #4]
 1361 00b4 FFF7FEFF 		bl	mbedtls_mpi_copy
 1362 00b8 7861     		str	r0, [r7, #20]
 1363 00ba 7B69     		ldr	r3, [r7, #20]
 1364 00bc 002B     		cmp	r3, #0
 1365 00be 26D1     		bne	.L88
 1366              	.L89:
 1367              		.loc 1 419 0 is_stmt 0 discriminator 1
 1368 00c0 3B68     		ldr	r3, [r7]
 1369 00c2 002B     		cmp	r3, #0
 1370 00c4 09D0     		beq	.L90
 420:C:/Users/dtjld/workspace/AIoT/src/LiteOS_Lab/iot_link/network/dtls/mbedtls/mbedtls-2.16.2/library\rsa.c ****         ( Q != NULL && ( ret = mbedtls_mpi_copy( Q, &ctx->Q ) ) != 0 ) ||
 1371              		.loc 1 420 0 is_stmt 1
 1372 00c6 FB68     		ldr	r3, [r7, #12]
 1373 00c8 3833     		adds	r3, r3, #56
 1374 00ca 1946     		mov	r1, r3
 1375 00cc 3868     		ldr	r0, [r7]
 1376 00ce FFF7FEFF 		bl	mbedtls_mpi_copy
 1377 00d2 7861     		str	r0, [r7, #20]
 1378 00d4 7B69     		ldr	r3, [r7, #20]
ARM GAS  C:\Users\dtjld\AppData\Local\Temp\cck1fUMg.s 			page 33


 1379 00d6 002B     		cmp	r3, #0
 1380 00d8 19D1     		bne	.L88
 1381              	.L90:
 1382              		.loc 1 420 0 is_stmt 0 discriminator 1
 1383 00da 3B6A     		ldr	r3, [r7, #32]
 1384 00dc 002B     		cmp	r3, #0
 1385 00de 09D0     		beq	.L91
 421:C:/Users/dtjld/workspace/AIoT/src/LiteOS_Lab/iot_link/network/dtls/mbedtls/mbedtls-2.16.2/library\rsa.c ****         ( D != NULL && ( ret = mbedtls_mpi_copy( D, &ctx->D ) ) != 0 ) ||
 1386              		.loc 1 421 0 is_stmt 1
 1387 00e0 FB68     		ldr	r3, [r7, #12]
 1388 00e2 2033     		adds	r3, r3, #32
 1389 00e4 1946     		mov	r1, r3
 1390 00e6 386A     		ldr	r0, [r7, #32]
 1391 00e8 FFF7FEFF 		bl	mbedtls_mpi_copy
 1392 00ec 7861     		str	r0, [r7, #20]
 1393 00ee 7B69     		ldr	r3, [r7, #20]
 1394 00f0 002B     		cmp	r3, #0
 1395 00f2 0CD1     		bne	.L88
 1396              	.L91:
 1397              		.loc 1 421 0 is_stmt 0 discriminator 1
 1398 00f4 7B6A     		ldr	r3, [r7, #36]
 1399 00f6 002B     		cmp	r3, #0
 1400 00f8 0BD0     		beq	.L92
 422:C:/Users/dtjld/workspace/AIoT/src/LiteOS_Lab/iot_link/network/dtls/mbedtls/mbedtls-2.16.2/library\rsa.c ****         ( E != NULL && ( ret = mbedtls_mpi_copy( E, &ctx->E ) ) != 0 ) )
 1401              		.loc 1 422 0 is_stmt 1
 1402 00fa FB68     		ldr	r3, [r7, #12]
 1403 00fc 1433     		adds	r3, r3, #20
 1404 00fe 1946     		mov	r1, r3
 1405 0100 786A     		ldr	r0, [r7, #36]
 1406 0102 FFF7FEFF 		bl	mbedtls_mpi_copy
 1407 0106 7861     		str	r0, [r7, #20]
 1408 0108 7B69     		ldr	r3, [r7, #20]
 1409 010a 002B     		cmp	r3, #0
 1410 010c 01D0     		beq	.L92
 1411              	.L88:
 423:C:/Users/dtjld/workspace/AIoT/src/LiteOS_Lab/iot_link/network/dtls/mbedtls/mbedtls-2.16.2/library\rsa.c ****     {
 424:C:/Users/dtjld/workspace/AIoT/src/LiteOS_Lab/iot_link/network/dtls/mbedtls/mbedtls-2.16.2/library\rsa.c ****         return( ret );
 1412              		.loc 1 424 0
 1413 010e 7B69     		ldr	r3, [r7, #20]
 1414 0110 00E0     		b	.L86
 1415              	.L92:
 425:C:/Users/dtjld/workspace/AIoT/src/LiteOS_Lab/iot_link/network/dtls/mbedtls/mbedtls-2.16.2/library\rsa.c ****     }
 426:C:/Users/dtjld/workspace/AIoT/src/LiteOS_Lab/iot_link/network/dtls/mbedtls/mbedtls-2.16.2/library\rsa.c **** 
 427:C:/Users/dtjld/workspace/AIoT/src/LiteOS_Lab/iot_link/network/dtls/mbedtls/mbedtls-2.16.2/library\rsa.c ****     return( 0 );
 1416              		.loc 1 427 0
 1417 0112 0023     		movs	r3, #0
 1418              	.L86:
 428:C:/Users/dtjld/workspace/AIoT/src/LiteOS_Lab/iot_link/network/dtls/mbedtls/mbedtls-2.16.2/library\rsa.c **** }
 1419              		.loc 1 428 0
 1420 0114 1846     		mov	r0, r3
 1421 0116 1837     		adds	r7, r7, #24
 1422              	.LCFI34:
 1423              		.cfi_def_cfa_offset 8
 1424 0118 BD46     		mov	sp, r7
 1425              	.LCFI35:
 1426              		.cfi_def_cfa_register 13
 1427              		@ sp needed
ARM GAS  C:\Users\dtjld\AppData\Local\Temp\cck1fUMg.s 			page 34


 1428 011a 80BD     		pop	{r7, pc}
 1429              	.L94:
 1430              		.align	2
 1431              	.L93:
 1432 011c 80BFFFFF 		.word	-16512
 1433              		.cfi_endproc
 1434              	.LFE19:
 1436              		.section	.text.mbedtls_rsa_export_crt,"ax",%progbits
 1437              		.align	1
 1438              		.global	mbedtls_rsa_export_crt
 1439              		.syntax unified
 1440              		.thumb
 1441              		.thumb_func
 1442              		.fpu fpv4-sp-d16
 1444              	mbedtls_rsa_export_crt:
 1445              	.LFB20:
 429:C:/Users/dtjld/workspace/AIoT/src/LiteOS_Lab/iot_link/network/dtls/mbedtls/mbedtls-2.16.2/library\rsa.c **** 
 430:C:/Users/dtjld/workspace/AIoT/src/LiteOS_Lab/iot_link/network/dtls/mbedtls/mbedtls-2.16.2/library\rsa.c **** /*
 431:C:/Users/dtjld/workspace/AIoT/src/LiteOS_Lab/iot_link/network/dtls/mbedtls/mbedtls-2.16.2/library\rsa.c ****  * Export CRT parameters
 432:C:/Users/dtjld/workspace/AIoT/src/LiteOS_Lab/iot_link/network/dtls/mbedtls/mbedtls-2.16.2/library\rsa.c ****  * This must also be implemented if CRT is not used, for being able to
 433:C:/Users/dtjld/workspace/AIoT/src/LiteOS_Lab/iot_link/network/dtls/mbedtls/mbedtls-2.16.2/library\rsa.c ****  * write DER encoded RSA keys. The helper function mbedtls_rsa_deduce_crt
 434:C:/Users/dtjld/workspace/AIoT/src/LiteOS_Lab/iot_link/network/dtls/mbedtls/mbedtls-2.16.2/library\rsa.c ****  * can be used in this case.
 435:C:/Users/dtjld/workspace/AIoT/src/LiteOS_Lab/iot_link/network/dtls/mbedtls/mbedtls-2.16.2/library\rsa.c ****  */
 436:C:/Users/dtjld/workspace/AIoT/src/LiteOS_Lab/iot_link/network/dtls/mbedtls/mbedtls-2.16.2/library\rsa.c **** int mbedtls_rsa_export_crt( const mbedtls_rsa_context *ctx,
 437:C:/Users/dtjld/workspace/AIoT/src/LiteOS_Lab/iot_link/network/dtls/mbedtls/mbedtls-2.16.2/library\rsa.c ****                             mbedtls_mpi *DP, mbedtls_mpi *DQ, mbedtls_mpi *QP )
 438:C:/Users/dtjld/workspace/AIoT/src/LiteOS_Lab/iot_link/network/dtls/mbedtls/mbedtls-2.16.2/library\rsa.c **** {
 1446              		.loc 1 438 0
 1447              		.cfi_startproc
 1448              		@ args = 0, pretend = 0, frame = 24
 1449              		@ frame_needed = 1, uses_anonymous_args = 0
 1450 0000 80B5     		push	{r7, lr}
 1451              	.LCFI36:
 1452              		.cfi_def_cfa_offset 8
 1453              		.cfi_offset 7, -8
 1454              		.cfi_offset 14, -4
 1455 0002 86B0     		sub	sp, sp, #24
 1456              	.LCFI37:
 1457              		.cfi_def_cfa_offset 32
 1458 0004 00AF     		add	r7, sp, #0
 1459              	.LCFI38:
 1460              		.cfi_def_cfa_register 7
 1461 0006 F860     		str	r0, [r7, #12]
 1462 0008 B960     		str	r1, [r7, #8]
 1463 000a 7A60     		str	r2, [r7, #4]
 1464 000c 3B60     		str	r3, [r7]
 439:C:/Users/dtjld/workspace/AIoT/src/LiteOS_Lab/iot_link/network/dtls/mbedtls/mbedtls-2.16.2/library\rsa.c ****     int ret;
 440:C:/Users/dtjld/workspace/AIoT/src/LiteOS_Lab/iot_link/network/dtls/mbedtls/mbedtls-2.16.2/library\rsa.c ****     int is_priv;
 441:C:/Users/dtjld/workspace/AIoT/src/LiteOS_Lab/iot_link/network/dtls/mbedtls/mbedtls-2.16.2/library\rsa.c ****     RSA_VALIDATE_RET( ctx != NULL );
 442:C:/Users/dtjld/workspace/AIoT/src/LiteOS_Lab/iot_link/network/dtls/mbedtls/mbedtls-2.16.2/library\rsa.c **** 
 443:C:/Users/dtjld/workspace/AIoT/src/LiteOS_Lab/iot_link/network/dtls/mbedtls/mbedtls-2.16.2/library\rsa.c ****     /* Check if key is private or public */
 444:C:/Users/dtjld/workspace/AIoT/src/LiteOS_Lab/iot_link/network/dtls/mbedtls/mbedtls-2.16.2/library\rsa.c ****     is_priv =
 445:C:/Users/dtjld/workspace/AIoT/src/LiteOS_Lab/iot_link/network/dtls/mbedtls/mbedtls-2.16.2/library\rsa.c ****         mbedtls_mpi_cmp_int( &ctx->N, 0 ) != 0 &&
 1465              		.loc 1 445 0
 1466 000e FB68     		ldr	r3, [r7, #12]
 1467 0010 0833     		adds	r3, r3, #8
 1468 0012 0021     		movs	r1, #0
 1469 0014 1846     		mov	r0, r3
ARM GAS  C:\Users\dtjld\AppData\Local\Temp\cck1fUMg.s 			page 35


 1470 0016 FFF7FEFF 		bl	mbedtls_mpi_cmp_int
 1471 001a 0346     		mov	r3, r0
 446:C:/Users/dtjld/workspace/AIoT/src/LiteOS_Lab/iot_link/network/dtls/mbedtls/mbedtls-2.16.2/library\rsa.c ****         mbedtls_mpi_cmp_int( &ctx->P, 0 ) != 0 &&
 447:C:/Users/dtjld/workspace/AIoT/src/LiteOS_Lab/iot_link/network/dtls/mbedtls/mbedtls-2.16.2/library\rsa.c ****         mbedtls_mpi_cmp_int( &ctx->Q, 0 ) != 0 &&
 448:C:/Users/dtjld/workspace/AIoT/src/LiteOS_Lab/iot_link/network/dtls/mbedtls/mbedtls-2.16.2/library\rsa.c ****         mbedtls_mpi_cmp_int( &ctx->D, 0 ) != 0 &&
 1472              		.loc 1 448 0
 1473 001c 002B     		cmp	r3, #0
 1474 001e 25D0     		beq	.L96
 446:C:/Users/dtjld/workspace/AIoT/src/LiteOS_Lab/iot_link/network/dtls/mbedtls/mbedtls-2.16.2/library\rsa.c ****         mbedtls_mpi_cmp_int( &ctx->P, 0 ) != 0 &&
 1475              		.loc 1 446 0
 1476 0020 FB68     		ldr	r3, [r7, #12]
 1477 0022 2C33     		adds	r3, r3, #44
 1478 0024 0021     		movs	r1, #0
 1479 0026 1846     		mov	r0, r3
 1480 0028 FFF7FEFF 		bl	mbedtls_mpi_cmp_int
 1481 002c 0346     		mov	r3, r0
 445:C:/Users/dtjld/workspace/AIoT/src/LiteOS_Lab/iot_link/network/dtls/mbedtls/mbedtls-2.16.2/library\rsa.c ****         mbedtls_mpi_cmp_int( &ctx->P, 0 ) != 0 &&
 1482              		.loc 1 445 0
 1483 002e 002B     		cmp	r3, #0
 1484 0030 1CD0     		beq	.L96
 447:C:/Users/dtjld/workspace/AIoT/src/LiteOS_Lab/iot_link/network/dtls/mbedtls/mbedtls-2.16.2/library\rsa.c ****         mbedtls_mpi_cmp_int( &ctx->D, 0 ) != 0 &&
 1485              		.loc 1 447 0
 1486 0032 FB68     		ldr	r3, [r7, #12]
 1487 0034 3833     		adds	r3, r3, #56
 1488 0036 0021     		movs	r1, #0
 1489 0038 1846     		mov	r0, r3
 1490 003a FFF7FEFF 		bl	mbedtls_mpi_cmp_int
 1491 003e 0346     		mov	r3, r0
 446:C:/Users/dtjld/workspace/AIoT/src/LiteOS_Lab/iot_link/network/dtls/mbedtls/mbedtls-2.16.2/library\rsa.c ****         mbedtls_mpi_cmp_int( &ctx->P, 0 ) != 0 &&
 1492              		.loc 1 446 0
 1493 0040 002B     		cmp	r3, #0
 1494 0042 13D0     		beq	.L96
 1495              		.loc 1 448 0
 1496 0044 FB68     		ldr	r3, [r7, #12]
 1497 0046 2033     		adds	r3, r3, #32
 1498 0048 0021     		movs	r1, #0
 1499 004a 1846     		mov	r0, r3
 1500 004c FFF7FEFF 		bl	mbedtls_mpi_cmp_int
 1501 0050 0346     		mov	r3, r0
 447:C:/Users/dtjld/workspace/AIoT/src/LiteOS_Lab/iot_link/network/dtls/mbedtls/mbedtls-2.16.2/library\rsa.c ****         mbedtls_mpi_cmp_int( &ctx->D, 0 ) != 0 &&
 1502              		.loc 1 447 0
 1503 0052 002B     		cmp	r3, #0
 1504 0054 0AD0     		beq	.L96
 449:C:/Users/dtjld/workspace/AIoT/src/LiteOS_Lab/iot_link/network/dtls/mbedtls/mbedtls-2.16.2/library\rsa.c ****         mbedtls_mpi_cmp_int( &ctx->E, 0 ) != 0;
 1505              		.loc 1 449 0 discriminator 3
 1506 0056 FB68     		ldr	r3, [r7, #12]
 1507 0058 1433     		adds	r3, r3, #20
 1508 005a 0021     		movs	r1, #0
 1509 005c 1846     		mov	r0, r3
 1510 005e FFF7FEFF 		bl	mbedtls_mpi_cmp_int
 1511 0062 0346     		mov	r3, r0
 448:C:/Users/dtjld/workspace/AIoT/src/LiteOS_Lab/iot_link/network/dtls/mbedtls/mbedtls-2.16.2/library\rsa.c ****         mbedtls_mpi_cmp_int( &ctx->E, 0 ) != 0;
 1512              		.loc 1 448 0 discriminator 3
 1513 0064 002B     		cmp	r3, #0
 1514 0066 01D0     		beq	.L96
 448:C:/Users/dtjld/workspace/AIoT/src/LiteOS_Lab/iot_link/network/dtls/mbedtls/mbedtls-2.16.2/library\rsa.c ****         mbedtls_mpi_cmp_int( &ctx->E, 0 ) != 0;
 1515              		.loc 1 448 0 is_stmt 0 discriminator 2
ARM GAS  C:\Users\dtjld\AppData\Local\Temp\cck1fUMg.s 			page 36


 1516 0068 0123     		movs	r3, #1
 1517 006a 00E0     		b	.L97
 1518              	.L96:
 448:C:/Users/dtjld/workspace/AIoT/src/LiteOS_Lab/iot_link/network/dtls/mbedtls/mbedtls-2.16.2/library\rsa.c ****         mbedtls_mpi_cmp_int( &ctx->E, 0 ) != 0;
 1519              		.loc 1 448 0 discriminator 1
 1520 006c 0023     		movs	r3, #0
 1521              	.L97:
 444:C:/Users/dtjld/workspace/AIoT/src/LiteOS_Lab/iot_link/network/dtls/mbedtls/mbedtls-2.16.2/library\rsa.c ****         mbedtls_mpi_cmp_int( &ctx->N, 0 ) != 0 &&
 1522              		.loc 1 444 0 is_stmt 1
 1523 006e 3B61     		str	r3, [r7, #16]
 450:C:/Users/dtjld/workspace/AIoT/src/LiteOS_Lab/iot_link/network/dtls/mbedtls/mbedtls-2.16.2/library\rsa.c **** 
 451:C:/Users/dtjld/workspace/AIoT/src/LiteOS_Lab/iot_link/network/dtls/mbedtls/mbedtls-2.16.2/library\rsa.c ****     if( !is_priv )
 1524              		.loc 1 451 0
 1525 0070 3B69     		ldr	r3, [r7, #16]
 1526 0072 002B     		cmp	r3, #0
 1527 0074 01D1     		bne	.L98
 452:C:/Users/dtjld/workspace/AIoT/src/LiteOS_Lab/iot_link/network/dtls/mbedtls/mbedtls-2.16.2/library\rsa.c ****         return( MBEDTLS_ERR_RSA_BAD_INPUT_DATA );
 1528              		.loc 1 452 0
 1529 0076 194B     		ldr	r3, .L104
 1530 0078 2BE0     		b	.L99
 1531              	.L98:
 453:C:/Users/dtjld/workspace/AIoT/src/LiteOS_Lab/iot_link/network/dtls/mbedtls/mbedtls-2.16.2/library\rsa.c **** 
 454:C:/Users/dtjld/workspace/AIoT/src/LiteOS_Lab/iot_link/network/dtls/mbedtls/mbedtls-2.16.2/library\rsa.c **** #if !defined(MBEDTLS_RSA_NO_CRT)
 455:C:/Users/dtjld/workspace/AIoT/src/LiteOS_Lab/iot_link/network/dtls/mbedtls/mbedtls-2.16.2/library\rsa.c ****     /* Export all requested blinding parameters. */
 456:C:/Users/dtjld/workspace/AIoT/src/LiteOS_Lab/iot_link/network/dtls/mbedtls/mbedtls-2.16.2/library\rsa.c ****     if( ( DP != NULL && ( ret = mbedtls_mpi_copy( DP, &ctx->DP ) ) != 0 ) ||
 1532              		.loc 1 456 0
 1533 007a BB68     		ldr	r3, [r7, #8]
 1534 007c 002B     		cmp	r3, #0
 1535 007e 09D0     		beq	.L100
 1536              		.loc 1 456 0 is_stmt 0 discriminator 1
 1537 0080 FB68     		ldr	r3, [r7, #12]
 1538 0082 4433     		adds	r3, r3, #68
 1539 0084 1946     		mov	r1, r3
 1540 0086 B868     		ldr	r0, [r7, #8]
 1541 0088 FFF7FEFF 		bl	mbedtls_mpi_copy
 1542 008c 7861     		str	r0, [r7, #20]
 1543 008e 7B69     		ldr	r3, [r7, #20]
 1544 0090 002B     		cmp	r3, #0
 1545 0092 19D1     		bne	.L101
 1546              	.L100:
 1547              		.loc 1 456 0 discriminator 3
 1548 0094 7B68     		ldr	r3, [r7, #4]
 1549 0096 002B     		cmp	r3, #0
 1550 0098 09D0     		beq	.L102
 457:C:/Users/dtjld/workspace/AIoT/src/LiteOS_Lab/iot_link/network/dtls/mbedtls/mbedtls-2.16.2/library\rsa.c ****         ( DQ != NULL && ( ret = mbedtls_mpi_copy( DQ, &ctx->DQ ) ) != 0 ) ||
 1551              		.loc 1 457 0 is_stmt 1
 1552 009a FB68     		ldr	r3, [r7, #12]
 1553 009c 5033     		adds	r3, r3, #80
 1554 009e 1946     		mov	r1, r3
 1555 00a0 7868     		ldr	r0, [r7, #4]
 1556 00a2 FFF7FEFF 		bl	mbedtls_mpi_copy
 1557 00a6 7861     		str	r0, [r7, #20]
 1558 00a8 7B69     		ldr	r3, [r7, #20]
 1559 00aa 002B     		cmp	r3, #0
 1560 00ac 0CD1     		bne	.L101
 1561              	.L102:
 1562              		.loc 1 457 0 is_stmt 0 discriminator 1
ARM GAS  C:\Users\dtjld\AppData\Local\Temp\cck1fUMg.s 			page 37


 1563 00ae 3B68     		ldr	r3, [r7]
 1564 00b0 002B     		cmp	r3, #0
 1565 00b2 0DD0     		beq	.L103
 458:C:/Users/dtjld/workspace/AIoT/src/LiteOS_Lab/iot_link/network/dtls/mbedtls/mbedtls-2.16.2/library\rsa.c ****         ( QP != NULL && ( ret = mbedtls_mpi_copy( QP, &ctx->QP ) ) != 0 ) )
 1566              		.loc 1 458 0 is_stmt 1
 1567 00b4 FB68     		ldr	r3, [r7, #12]
 1568 00b6 5C33     		adds	r3, r3, #92
 1569 00b8 1946     		mov	r1, r3
 1570 00ba 3868     		ldr	r0, [r7]
 1571 00bc FFF7FEFF 		bl	mbedtls_mpi_copy
 1572 00c0 7861     		str	r0, [r7, #20]
 1573 00c2 7B69     		ldr	r3, [r7, #20]
 1574 00c4 002B     		cmp	r3, #0
 1575 00c6 03D0     		beq	.L103
 1576              	.L101:
 459:C:/Users/dtjld/workspace/AIoT/src/LiteOS_Lab/iot_link/network/dtls/mbedtls/mbedtls-2.16.2/library\rsa.c ****     {
 460:C:/Users/dtjld/workspace/AIoT/src/LiteOS_Lab/iot_link/network/dtls/mbedtls/mbedtls-2.16.2/library\rsa.c ****         return( MBEDTLS_ERR_RSA_BAD_INPUT_DATA + ret );
 1577              		.loc 1 460 0
 1578 00c8 7B69     		ldr	r3, [r7, #20]
 1579 00ca A3F58143 		sub	r3, r3, #16512
 1580 00ce 00E0     		b	.L99
 1581              	.L103:
 461:C:/Users/dtjld/workspace/AIoT/src/LiteOS_Lab/iot_link/network/dtls/mbedtls/mbedtls-2.16.2/library\rsa.c ****     }
 462:C:/Users/dtjld/workspace/AIoT/src/LiteOS_Lab/iot_link/network/dtls/mbedtls/mbedtls-2.16.2/library\rsa.c **** #else
 463:C:/Users/dtjld/workspace/AIoT/src/LiteOS_Lab/iot_link/network/dtls/mbedtls/mbedtls-2.16.2/library\rsa.c ****     if( ( ret = mbedtls_rsa_deduce_crt( &ctx->P, &ctx->Q, &ctx->D,
 464:C:/Users/dtjld/workspace/AIoT/src/LiteOS_Lab/iot_link/network/dtls/mbedtls/mbedtls-2.16.2/library\rsa.c ****                                         DP, DQ, QP ) ) != 0 )
 465:C:/Users/dtjld/workspace/AIoT/src/LiteOS_Lab/iot_link/network/dtls/mbedtls/mbedtls-2.16.2/library\rsa.c ****     {
 466:C:/Users/dtjld/workspace/AIoT/src/LiteOS_Lab/iot_link/network/dtls/mbedtls/mbedtls-2.16.2/library\rsa.c ****         return( MBEDTLS_ERR_RSA_BAD_INPUT_DATA + ret );
 467:C:/Users/dtjld/workspace/AIoT/src/LiteOS_Lab/iot_link/network/dtls/mbedtls/mbedtls-2.16.2/library\rsa.c ****     }
 468:C:/Users/dtjld/workspace/AIoT/src/LiteOS_Lab/iot_link/network/dtls/mbedtls/mbedtls-2.16.2/library\rsa.c **** #endif
 469:C:/Users/dtjld/workspace/AIoT/src/LiteOS_Lab/iot_link/network/dtls/mbedtls/mbedtls-2.16.2/library\rsa.c **** 
 470:C:/Users/dtjld/workspace/AIoT/src/LiteOS_Lab/iot_link/network/dtls/mbedtls/mbedtls-2.16.2/library\rsa.c ****     return( 0 );
 1582              		.loc 1 470 0
 1583 00d0 0023     		movs	r3, #0
 1584              	.L99:
 471:C:/Users/dtjld/workspace/AIoT/src/LiteOS_Lab/iot_link/network/dtls/mbedtls/mbedtls-2.16.2/library\rsa.c **** }
 1585              		.loc 1 471 0
 1586 00d2 1846     		mov	r0, r3
 1587 00d4 1837     		adds	r7, r7, #24
 1588              	.LCFI39:
 1589              		.cfi_def_cfa_offset 8
 1590 00d6 BD46     		mov	sp, r7
 1591              	.LCFI40:
 1592              		.cfi_def_cfa_register 13
 1593              		@ sp needed
 1594 00d8 80BD     		pop	{r7, pc}
 1595              	.L105:
 1596 00da 00BF     		.align	2
 1597              	.L104:
 1598 00dc 80BFFFFF 		.word	-16512
 1599              		.cfi_endproc
 1600              	.LFE20:
 1602              		.section	.text.mbedtls_rsa_init,"ax",%progbits
 1603              		.align	1
 1604              		.global	mbedtls_rsa_init
 1605              		.syntax unified
 1606              		.thumb
ARM GAS  C:\Users\dtjld\AppData\Local\Temp\cck1fUMg.s 			page 38


 1607              		.thumb_func
 1608              		.fpu fpv4-sp-d16
 1610              	mbedtls_rsa_init:
 1611              	.LFB21:
 472:C:/Users/dtjld/workspace/AIoT/src/LiteOS_Lab/iot_link/network/dtls/mbedtls/mbedtls-2.16.2/library\rsa.c **** 
 473:C:/Users/dtjld/workspace/AIoT/src/LiteOS_Lab/iot_link/network/dtls/mbedtls/mbedtls-2.16.2/library\rsa.c **** /*
 474:C:/Users/dtjld/workspace/AIoT/src/LiteOS_Lab/iot_link/network/dtls/mbedtls/mbedtls-2.16.2/library\rsa.c ****  * Initialize an RSA context
 475:C:/Users/dtjld/workspace/AIoT/src/LiteOS_Lab/iot_link/network/dtls/mbedtls/mbedtls-2.16.2/library\rsa.c ****  */
 476:C:/Users/dtjld/workspace/AIoT/src/LiteOS_Lab/iot_link/network/dtls/mbedtls/mbedtls-2.16.2/library\rsa.c **** void mbedtls_rsa_init( mbedtls_rsa_context *ctx,
 477:C:/Users/dtjld/workspace/AIoT/src/LiteOS_Lab/iot_link/network/dtls/mbedtls/mbedtls-2.16.2/library\rsa.c ****                int padding,
 478:C:/Users/dtjld/workspace/AIoT/src/LiteOS_Lab/iot_link/network/dtls/mbedtls/mbedtls-2.16.2/library\rsa.c ****                int hash_id )
 479:C:/Users/dtjld/workspace/AIoT/src/LiteOS_Lab/iot_link/network/dtls/mbedtls/mbedtls-2.16.2/library\rsa.c **** {
 1612              		.loc 1 479 0
 1613              		.cfi_startproc
 1614              		@ args = 0, pretend = 0, frame = 16
 1615              		@ frame_needed = 1, uses_anonymous_args = 0
 1616 0000 80B5     		push	{r7, lr}
 1617              	.LCFI41:
 1618              		.cfi_def_cfa_offset 8
 1619              		.cfi_offset 7, -8
 1620              		.cfi_offset 14, -4
 1621 0002 84B0     		sub	sp, sp, #16
 1622              	.LCFI42:
 1623              		.cfi_def_cfa_offset 24
 1624 0004 00AF     		add	r7, sp, #0
 1625              	.LCFI43:
 1626              		.cfi_def_cfa_register 7
 1627 0006 F860     		str	r0, [r7, #12]
 1628 0008 B960     		str	r1, [r7, #8]
 1629 000a 7A60     		str	r2, [r7, #4]
 480:C:/Users/dtjld/workspace/AIoT/src/LiteOS_Lab/iot_link/network/dtls/mbedtls/mbedtls-2.16.2/library\rsa.c ****     RSA_VALIDATE( ctx != NULL );
 481:C:/Users/dtjld/workspace/AIoT/src/LiteOS_Lab/iot_link/network/dtls/mbedtls/mbedtls-2.16.2/library\rsa.c ****     RSA_VALIDATE( padding == MBEDTLS_RSA_PKCS_V15 ||
 482:C:/Users/dtjld/workspace/AIoT/src/LiteOS_Lab/iot_link/network/dtls/mbedtls/mbedtls-2.16.2/library\rsa.c ****                   padding == MBEDTLS_RSA_PKCS_V21 );
 483:C:/Users/dtjld/workspace/AIoT/src/LiteOS_Lab/iot_link/network/dtls/mbedtls/mbedtls-2.16.2/library\rsa.c **** 
 484:C:/Users/dtjld/workspace/AIoT/src/LiteOS_Lab/iot_link/network/dtls/mbedtls/mbedtls-2.16.2/library\rsa.c ****     memset( ctx, 0, sizeof( mbedtls_rsa_context ) );
 1630              		.loc 1 484 0
 1631 000c AC22     		movs	r2, #172
 1632 000e 0021     		movs	r1, #0
 1633 0010 F868     		ldr	r0, [r7, #12]
 1634 0012 FFF7FEFF 		bl	memset
 485:C:/Users/dtjld/workspace/AIoT/src/LiteOS_Lab/iot_link/network/dtls/mbedtls/mbedtls-2.16.2/library\rsa.c **** 
 486:C:/Users/dtjld/workspace/AIoT/src/LiteOS_Lab/iot_link/network/dtls/mbedtls/mbedtls-2.16.2/library\rsa.c ****     mbedtls_rsa_set_padding( ctx, padding, hash_id );
 1635              		.loc 1 486 0
 1636 0016 7A68     		ldr	r2, [r7, #4]
 1637 0018 B968     		ldr	r1, [r7, #8]
 1638 001a F868     		ldr	r0, [r7, #12]
 1639 001c FFF7FEFF 		bl	mbedtls_rsa_set_padding
 487:C:/Users/dtjld/workspace/AIoT/src/LiteOS_Lab/iot_link/network/dtls/mbedtls/mbedtls-2.16.2/library\rsa.c **** 
 488:C:/Users/dtjld/workspace/AIoT/src/LiteOS_Lab/iot_link/network/dtls/mbedtls/mbedtls-2.16.2/library\rsa.c **** #if defined(MBEDTLS_THREADING_C)
 489:C:/Users/dtjld/workspace/AIoT/src/LiteOS_Lab/iot_link/network/dtls/mbedtls/mbedtls-2.16.2/library\rsa.c ****     mbedtls_mutex_init( &ctx->mutex );
 490:C:/Users/dtjld/workspace/AIoT/src/LiteOS_Lab/iot_link/network/dtls/mbedtls/mbedtls-2.16.2/library\rsa.c **** #endif
 491:C:/Users/dtjld/workspace/AIoT/src/LiteOS_Lab/iot_link/network/dtls/mbedtls/mbedtls-2.16.2/library\rsa.c **** }
 1640              		.loc 1 491 0
 1641 0020 00BF     		nop
 1642 0022 1037     		adds	r7, r7, #16
 1643              	.LCFI44:
 1644              		.cfi_def_cfa_offset 8
ARM GAS  C:\Users\dtjld\AppData\Local\Temp\cck1fUMg.s 			page 39


 1645 0024 BD46     		mov	sp, r7
 1646              	.LCFI45:
 1647              		.cfi_def_cfa_register 13
 1648              		@ sp needed
 1649 0026 80BD     		pop	{r7, pc}
 1650              		.cfi_endproc
 1651              	.LFE21:
 1653              		.section	.text.mbedtls_rsa_set_padding,"ax",%progbits
 1654              		.align	1
 1655              		.global	mbedtls_rsa_set_padding
 1656              		.syntax unified
 1657              		.thumb
 1658              		.thumb_func
 1659              		.fpu fpv4-sp-d16
 1661              	mbedtls_rsa_set_padding:
 1662              	.LFB22:
 492:C:/Users/dtjld/workspace/AIoT/src/LiteOS_Lab/iot_link/network/dtls/mbedtls/mbedtls-2.16.2/library\rsa.c **** 
 493:C:/Users/dtjld/workspace/AIoT/src/LiteOS_Lab/iot_link/network/dtls/mbedtls/mbedtls-2.16.2/library\rsa.c **** /*
 494:C:/Users/dtjld/workspace/AIoT/src/LiteOS_Lab/iot_link/network/dtls/mbedtls/mbedtls-2.16.2/library\rsa.c ****  * Set padding for an existing RSA context
 495:C:/Users/dtjld/workspace/AIoT/src/LiteOS_Lab/iot_link/network/dtls/mbedtls/mbedtls-2.16.2/library\rsa.c ****  */
 496:C:/Users/dtjld/workspace/AIoT/src/LiteOS_Lab/iot_link/network/dtls/mbedtls/mbedtls-2.16.2/library\rsa.c **** void mbedtls_rsa_set_padding( mbedtls_rsa_context *ctx, int padding,
 497:C:/Users/dtjld/workspace/AIoT/src/LiteOS_Lab/iot_link/network/dtls/mbedtls/mbedtls-2.16.2/library\rsa.c ****                               int hash_id )
 498:C:/Users/dtjld/workspace/AIoT/src/LiteOS_Lab/iot_link/network/dtls/mbedtls/mbedtls-2.16.2/library\rsa.c **** {
 1663              		.loc 1 498 0
 1664              		.cfi_startproc
 1665              		@ args = 0, pretend = 0, frame = 16
 1666              		@ frame_needed = 1, uses_anonymous_args = 0
 1667              		@ link register save eliminated.
 1668 0000 80B4     		push	{r7}
 1669              	.LCFI46:
 1670              		.cfi_def_cfa_offset 4
 1671              		.cfi_offset 7, -4
 1672 0002 85B0     		sub	sp, sp, #20
 1673              	.LCFI47:
 1674              		.cfi_def_cfa_offset 24
 1675 0004 00AF     		add	r7, sp, #0
 1676              	.LCFI48:
 1677              		.cfi_def_cfa_register 7
 1678 0006 F860     		str	r0, [r7, #12]
 1679 0008 B960     		str	r1, [r7, #8]
 1680 000a 7A60     		str	r2, [r7, #4]
 499:C:/Users/dtjld/workspace/AIoT/src/LiteOS_Lab/iot_link/network/dtls/mbedtls/mbedtls-2.16.2/library\rsa.c ****     RSA_VALIDATE( ctx != NULL );
 500:C:/Users/dtjld/workspace/AIoT/src/LiteOS_Lab/iot_link/network/dtls/mbedtls/mbedtls-2.16.2/library\rsa.c ****     RSA_VALIDATE( padding == MBEDTLS_RSA_PKCS_V15 ||
 501:C:/Users/dtjld/workspace/AIoT/src/LiteOS_Lab/iot_link/network/dtls/mbedtls/mbedtls-2.16.2/library\rsa.c ****                   padding == MBEDTLS_RSA_PKCS_V21 );
 502:C:/Users/dtjld/workspace/AIoT/src/LiteOS_Lab/iot_link/network/dtls/mbedtls/mbedtls-2.16.2/library\rsa.c **** 
 503:C:/Users/dtjld/workspace/AIoT/src/LiteOS_Lab/iot_link/network/dtls/mbedtls/mbedtls-2.16.2/library\rsa.c ****     ctx->padding = padding;
 1681              		.loc 1 503 0
 1682 000c FB68     		ldr	r3, [r7, #12]
 1683 000e BA68     		ldr	r2, [r7, #8]
 1684 0010 C3F8A420 		str	r2, [r3, #164]
 504:C:/Users/dtjld/workspace/AIoT/src/LiteOS_Lab/iot_link/network/dtls/mbedtls/mbedtls-2.16.2/library\rsa.c ****     ctx->hash_id = hash_id;
 1685              		.loc 1 504 0
 1686 0014 FB68     		ldr	r3, [r7, #12]
 1687 0016 7A68     		ldr	r2, [r7, #4]
 1688 0018 C3F8A820 		str	r2, [r3, #168]
 505:C:/Users/dtjld/workspace/AIoT/src/LiteOS_Lab/iot_link/network/dtls/mbedtls/mbedtls-2.16.2/library\rsa.c **** }
 1689              		.loc 1 505 0
ARM GAS  C:\Users\dtjld\AppData\Local\Temp\cck1fUMg.s 			page 40


 1690 001c 00BF     		nop
 1691 001e 1437     		adds	r7, r7, #20
 1692              	.LCFI49:
 1693              		.cfi_def_cfa_offset 4
 1694 0020 BD46     		mov	sp, r7
 1695              	.LCFI50:
 1696              		.cfi_def_cfa_register 13
 1697              		@ sp needed
 1698 0022 5DF8047B 		ldr	r7, [sp], #4
 1699              	.LCFI51:
 1700              		.cfi_restore 7
 1701              		.cfi_def_cfa_offset 0
 1702 0026 7047     		bx	lr
 1703              		.cfi_endproc
 1704              	.LFE22:
 1706              		.section	.text.mbedtls_rsa_get_len,"ax",%progbits
 1707              		.align	1
 1708              		.global	mbedtls_rsa_get_len
 1709              		.syntax unified
 1710              		.thumb
 1711              		.thumb_func
 1712              		.fpu fpv4-sp-d16
 1714              	mbedtls_rsa_get_len:
 1715              	.LFB23:
 506:C:/Users/dtjld/workspace/AIoT/src/LiteOS_Lab/iot_link/network/dtls/mbedtls/mbedtls-2.16.2/library\rsa.c **** 
 507:C:/Users/dtjld/workspace/AIoT/src/LiteOS_Lab/iot_link/network/dtls/mbedtls/mbedtls-2.16.2/library\rsa.c **** /*
 508:C:/Users/dtjld/workspace/AIoT/src/LiteOS_Lab/iot_link/network/dtls/mbedtls/mbedtls-2.16.2/library\rsa.c ****  * Get length in bytes of RSA modulus
 509:C:/Users/dtjld/workspace/AIoT/src/LiteOS_Lab/iot_link/network/dtls/mbedtls/mbedtls-2.16.2/library\rsa.c ****  */
 510:C:/Users/dtjld/workspace/AIoT/src/LiteOS_Lab/iot_link/network/dtls/mbedtls/mbedtls-2.16.2/library\rsa.c **** 
 511:C:/Users/dtjld/workspace/AIoT/src/LiteOS_Lab/iot_link/network/dtls/mbedtls/mbedtls-2.16.2/library\rsa.c **** size_t mbedtls_rsa_get_len( const mbedtls_rsa_context *ctx )
 512:C:/Users/dtjld/workspace/AIoT/src/LiteOS_Lab/iot_link/network/dtls/mbedtls/mbedtls-2.16.2/library\rsa.c **** {
 1716              		.loc 1 512 0
 1717              		.cfi_startproc
 1718              		@ args = 0, pretend = 0, frame = 8
 1719              		@ frame_needed = 1, uses_anonymous_args = 0
 1720              		@ link register save eliminated.
 1721 0000 80B4     		push	{r7}
 1722              	.LCFI52:
 1723              		.cfi_def_cfa_offset 4
 1724              		.cfi_offset 7, -4
 1725 0002 83B0     		sub	sp, sp, #12
 1726              	.LCFI53:
 1727              		.cfi_def_cfa_offset 16
 1728 0004 00AF     		add	r7, sp, #0
 1729              	.LCFI54:
 1730              		.cfi_def_cfa_register 7
 1731 0006 7860     		str	r0, [r7, #4]
 513:C:/Users/dtjld/workspace/AIoT/src/LiteOS_Lab/iot_link/network/dtls/mbedtls/mbedtls-2.16.2/library\rsa.c ****     return( ctx->len );
 1732              		.loc 1 513 0
 1733 0008 7B68     		ldr	r3, [r7, #4]
 1734 000a 5B68     		ldr	r3, [r3, #4]
 514:C:/Users/dtjld/workspace/AIoT/src/LiteOS_Lab/iot_link/network/dtls/mbedtls/mbedtls-2.16.2/library\rsa.c **** }
 1735              		.loc 1 514 0
 1736 000c 1846     		mov	r0, r3
 1737 000e 0C37     		adds	r7, r7, #12
 1738              	.LCFI55:
 1739              		.cfi_def_cfa_offset 4
ARM GAS  C:\Users\dtjld\AppData\Local\Temp\cck1fUMg.s 			page 41


 1740 0010 BD46     		mov	sp, r7
 1741              	.LCFI56:
 1742              		.cfi_def_cfa_register 13
 1743              		@ sp needed
 1744 0012 5DF8047B 		ldr	r7, [sp], #4
 1745              	.LCFI57:
 1746              		.cfi_restore 7
 1747              		.cfi_def_cfa_offset 0
 1748 0016 7047     		bx	lr
 1749              		.cfi_endproc
 1750              	.LFE23:
 1752              		.section	.text.mbedtls_rsa_gen_key,"ax",%progbits
 1753              		.align	1
 1754              		.global	mbedtls_rsa_gen_key
 1755              		.syntax unified
 1756              		.thumb
 1757              		.thumb_func
 1758              		.fpu fpv4-sp-d16
 1760              	mbedtls_rsa_gen_key:
 1761              	.LFB24:
 515:C:/Users/dtjld/workspace/AIoT/src/LiteOS_Lab/iot_link/network/dtls/mbedtls/mbedtls-2.16.2/library\rsa.c **** 
 516:C:/Users/dtjld/workspace/AIoT/src/LiteOS_Lab/iot_link/network/dtls/mbedtls/mbedtls-2.16.2/library\rsa.c **** 
 517:C:/Users/dtjld/workspace/AIoT/src/LiteOS_Lab/iot_link/network/dtls/mbedtls/mbedtls-2.16.2/library\rsa.c **** #if defined(MBEDTLS_GENPRIME)
 518:C:/Users/dtjld/workspace/AIoT/src/LiteOS_Lab/iot_link/network/dtls/mbedtls/mbedtls-2.16.2/library\rsa.c **** 
 519:C:/Users/dtjld/workspace/AIoT/src/LiteOS_Lab/iot_link/network/dtls/mbedtls/mbedtls-2.16.2/library\rsa.c **** /*
 520:C:/Users/dtjld/workspace/AIoT/src/LiteOS_Lab/iot_link/network/dtls/mbedtls/mbedtls-2.16.2/library\rsa.c ****  * Generate an RSA keypair
 521:C:/Users/dtjld/workspace/AIoT/src/LiteOS_Lab/iot_link/network/dtls/mbedtls/mbedtls-2.16.2/library\rsa.c ****  *
 522:C:/Users/dtjld/workspace/AIoT/src/LiteOS_Lab/iot_link/network/dtls/mbedtls/mbedtls-2.16.2/library\rsa.c ****  * This generation method follows the RSA key pair generation procedure of
 523:C:/Users/dtjld/workspace/AIoT/src/LiteOS_Lab/iot_link/network/dtls/mbedtls/mbedtls-2.16.2/library\rsa.c ****  * FIPS 186-4 if 2^16 < exponent < 2^256 and nbits = 2048 or nbits = 3072.
 524:C:/Users/dtjld/workspace/AIoT/src/LiteOS_Lab/iot_link/network/dtls/mbedtls/mbedtls-2.16.2/library\rsa.c ****  */
 525:C:/Users/dtjld/workspace/AIoT/src/LiteOS_Lab/iot_link/network/dtls/mbedtls/mbedtls-2.16.2/library\rsa.c **** int mbedtls_rsa_gen_key( mbedtls_rsa_context *ctx,
 526:C:/Users/dtjld/workspace/AIoT/src/LiteOS_Lab/iot_link/network/dtls/mbedtls/mbedtls-2.16.2/library\rsa.c ****                  int (*f_rng)(void *, unsigned char *, size_t),
 527:C:/Users/dtjld/workspace/AIoT/src/LiteOS_Lab/iot_link/network/dtls/mbedtls/mbedtls-2.16.2/library\rsa.c ****                  void *p_rng,
 528:C:/Users/dtjld/workspace/AIoT/src/LiteOS_Lab/iot_link/network/dtls/mbedtls/mbedtls-2.16.2/library\rsa.c ****                  unsigned int nbits, int exponent )
 529:C:/Users/dtjld/workspace/AIoT/src/LiteOS_Lab/iot_link/network/dtls/mbedtls/mbedtls-2.16.2/library\rsa.c **** {
 1762              		.loc 1 529 0
 1763              		.cfi_startproc
 1764              		@ args = 4, pretend = 0, frame = 64
 1765              		@ frame_needed = 1, uses_anonymous_args = 0
 1766 0000 B0B5     		push	{r4, r5, r7, lr}
 1767              	.LCFI58:
 1768              		.cfi_def_cfa_offset 16
 1769              		.cfi_offset 4, -16
 1770              		.cfi_offset 5, -12
 1771              		.cfi_offset 7, -8
 1772              		.cfi_offset 14, -4
 1773 0002 92B0     		sub	sp, sp, #72
 1774              	.LCFI59:
 1775              		.cfi_def_cfa_offset 88
 1776 0004 02AF     		add	r7, sp, #8
 1777              	.LCFI60:
 1778              		.cfi_def_cfa 7, 80
 1779 0006 F860     		str	r0, [r7, #12]
 1780 0008 B960     		str	r1, [r7, #8]
 1781 000a 7A60     		str	r2, [r7, #4]
 1782 000c 3B60     		str	r3, [r7]
 530:C:/Users/dtjld/workspace/AIoT/src/LiteOS_Lab/iot_link/network/dtls/mbedtls/mbedtls-2.16.2/library\rsa.c ****     int ret;
ARM GAS  C:\Users\dtjld\AppData\Local\Temp\cck1fUMg.s 			page 42


 531:C:/Users/dtjld/workspace/AIoT/src/LiteOS_Lab/iot_link/network/dtls/mbedtls/mbedtls-2.16.2/library\rsa.c ****     mbedtls_mpi H, G, L;
 532:C:/Users/dtjld/workspace/AIoT/src/LiteOS_Lab/iot_link/network/dtls/mbedtls/mbedtls-2.16.2/library\rsa.c ****     int prime_quality = 0;
 1783              		.loc 1 532 0
 1784 000e 0023     		movs	r3, #0
 1785 0010 BB63     		str	r3, [r7, #56]
 533:C:/Users/dtjld/workspace/AIoT/src/LiteOS_Lab/iot_link/network/dtls/mbedtls/mbedtls-2.16.2/library\rsa.c ****     RSA_VALIDATE_RET( ctx != NULL );
 534:C:/Users/dtjld/workspace/AIoT/src/LiteOS_Lab/iot_link/network/dtls/mbedtls/mbedtls-2.16.2/library\rsa.c ****     RSA_VALIDATE_RET( f_rng != NULL );
 535:C:/Users/dtjld/workspace/AIoT/src/LiteOS_Lab/iot_link/network/dtls/mbedtls/mbedtls-2.16.2/library\rsa.c **** 
 536:C:/Users/dtjld/workspace/AIoT/src/LiteOS_Lab/iot_link/network/dtls/mbedtls/mbedtls-2.16.2/library\rsa.c ****     if( nbits < 128 || exponent < 3 || nbits % 2 != 0 )
 1786              		.loc 1 536 0
 1787 0012 3B68     		ldr	r3, [r7]
 1788 0014 7F2B     		cmp	r3, #127
 1789 0016 07D9     		bls	.L111
 1790              		.loc 1 536 0 is_stmt 0 discriminator 1
 1791 0018 3B6D     		ldr	r3, [r7, #80]
 1792 001a 022B     		cmp	r3, #2
 1793 001c 04DD     		ble	.L111
 1794              		.loc 1 536 0 discriminator 2
 1795 001e 3B68     		ldr	r3, [r7]
 1796 0020 03F00103 		and	r3, r3, #1
 1797 0024 002B     		cmp	r3, #0
 1798 0026 01D0     		beq	.L112
 1799              	.L111:
 537:C:/Users/dtjld/workspace/AIoT/src/LiteOS_Lab/iot_link/network/dtls/mbedtls/mbedtls-2.16.2/library\rsa.c ****         return( MBEDTLS_ERR_RSA_BAD_INPUT_DATA );
 1800              		.loc 1 537 0 is_stmt 1
 1801 0028 BE4B     		ldr	r3, .L159
 1802 002a 76E1     		b	.L140
 1803              	.L112:
 538:C:/Users/dtjld/workspace/AIoT/src/LiteOS_Lab/iot_link/network/dtls/mbedtls/mbedtls-2.16.2/library\rsa.c **** 
 539:C:/Users/dtjld/workspace/AIoT/src/LiteOS_Lab/iot_link/network/dtls/mbedtls/mbedtls-2.16.2/library\rsa.c ****     /*
 540:C:/Users/dtjld/workspace/AIoT/src/LiteOS_Lab/iot_link/network/dtls/mbedtls/mbedtls-2.16.2/library\rsa.c ****      * If the modulus is 1024 bit long or shorter, then the security strength of
 541:C:/Users/dtjld/workspace/AIoT/src/LiteOS_Lab/iot_link/network/dtls/mbedtls/mbedtls-2.16.2/library\rsa.c ****      * the RSA algorithm is less than or equal to 80 bits and therefore an error
 542:C:/Users/dtjld/workspace/AIoT/src/LiteOS_Lab/iot_link/network/dtls/mbedtls/mbedtls-2.16.2/library\rsa.c ****      * rate of 2^-80 is sufficient.
 543:C:/Users/dtjld/workspace/AIoT/src/LiteOS_Lab/iot_link/network/dtls/mbedtls/mbedtls-2.16.2/library\rsa.c ****      */
 544:C:/Users/dtjld/workspace/AIoT/src/LiteOS_Lab/iot_link/network/dtls/mbedtls/mbedtls-2.16.2/library\rsa.c ****     if( nbits > 1024 )
 1804              		.loc 1 544 0
 1805 002c 3B68     		ldr	r3, [r7]
 1806 002e B3F5806F 		cmp	r3, #1024
 1807 0032 01D9     		bls	.L114
 545:C:/Users/dtjld/workspace/AIoT/src/LiteOS_Lab/iot_link/network/dtls/mbedtls/mbedtls-2.16.2/library\rsa.c ****         prime_quality = MBEDTLS_MPI_GEN_PRIME_FLAG_LOW_ERR;
 1808              		.loc 1 545 0
 1809 0034 0223     		movs	r3, #2
 1810 0036 BB63     		str	r3, [r7, #56]
 1811              	.L114:
 546:C:/Users/dtjld/workspace/AIoT/src/LiteOS_Lab/iot_link/network/dtls/mbedtls/mbedtls-2.16.2/library\rsa.c **** 
 547:C:/Users/dtjld/workspace/AIoT/src/LiteOS_Lab/iot_link/network/dtls/mbedtls/mbedtls-2.16.2/library\rsa.c ****     mbedtls_mpi_init( &H );
 1812              		.loc 1 547 0
 1813 0038 07F12C03 		add	r3, r7, #44
 1814 003c 1846     		mov	r0, r3
 1815 003e FFF7FEFF 		bl	mbedtls_mpi_init
 548:C:/Users/dtjld/workspace/AIoT/src/LiteOS_Lab/iot_link/network/dtls/mbedtls/mbedtls-2.16.2/library\rsa.c ****     mbedtls_mpi_init( &G );
 1816              		.loc 1 548 0
 1817 0042 07F12003 		add	r3, r7, #32
 1818 0046 1846     		mov	r0, r3
 1819 0048 FFF7FEFF 		bl	mbedtls_mpi_init
 549:C:/Users/dtjld/workspace/AIoT/src/LiteOS_Lab/iot_link/network/dtls/mbedtls/mbedtls-2.16.2/library\rsa.c ****     mbedtls_mpi_init( &L );
 1820              		.loc 1 549 0
ARM GAS  C:\Users\dtjld\AppData\Local\Temp\cck1fUMg.s 			page 43


 1821 004c 07F11403 		add	r3, r7, #20
 1822 0050 1846     		mov	r0, r3
 1823 0052 FFF7FEFF 		bl	mbedtls_mpi_init
 550:C:/Users/dtjld/workspace/AIoT/src/LiteOS_Lab/iot_link/network/dtls/mbedtls/mbedtls-2.16.2/library\rsa.c **** 
 551:C:/Users/dtjld/workspace/AIoT/src/LiteOS_Lab/iot_link/network/dtls/mbedtls/mbedtls-2.16.2/library\rsa.c ****     /*
 552:C:/Users/dtjld/workspace/AIoT/src/LiteOS_Lab/iot_link/network/dtls/mbedtls/mbedtls-2.16.2/library\rsa.c ****      * find primes P and Q with Q < P so that:
 553:C:/Users/dtjld/workspace/AIoT/src/LiteOS_Lab/iot_link/network/dtls/mbedtls/mbedtls-2.16.2/library\rsa.c ****      * 1.  |P-Q| > 2^( nbits / 2 - 100 )
 554:C:/Users/dtjld/workspace/AIoT/src/LiteOS_Lab/iot_link/network/dtls/mbedtls/mbedtls-2.16.2/library\rsa.c ****      * 2.  GCD( E, (P-1)*(Q-1) ) == 1
 555:C:/Users/dtjld/workspace/AIoT/src/LiteOS_Lab/iot_link/network/dtls/mbedtls/mbedtls-2.16.2/library\rsa.c ****      * 3.  E^-1 mod LCM(P-1, Q-1) > 2^( nbits / 2 )
 556:C:/Users/dtjld/workspace/AIoT/src/LiteOS_Lab/iot_link/network/dtls/mbedtls/mbedtls-2.16.2/library\rsa.c ****      */
 557:C:/Users/dtjld/workspace/AIoT/src/LiteOS_Lab/iot_link/network/dtls/mbedtls/mbedtls-2.16.2/library\rsa.c ****     MBEDTLS_MPI_CHK( mbedtls_mpi_lset( &ctx->E, exponent ) );
 1824              		.loc 1 557 0
 1825 0056 FB68     		ldr	r3, [r7, #12]
 1826 0058 1433     		adds	r3, r3, #20
 1827 005a 396D     		ldr	r1, [r7, #80]
 1828 005c 1846     		mov	r0, r3
 1829 005e FFF7FEFF 		bl	mbedtls_mpi_lset
 1830 0062 F863     		str	r0, [r7, #60]
 1831 0064 FB6B     		ldr	r3, [r7, #60]
 1832 0066 002B     		cmp	r3, #0
 1833 0068 40F02081 		bne	.L141
 1834              	.L115:
 558:C:/Users/dtjld/workspace/AIoT/src/LiteOS_Lab/iot_link/network/dtls/mbedtls/mbedtls-2.16.2/library\rsa.c **** 
 559:C:/Users/dtjld/workspace/AIoT/src/LiteOS_Lab/iot_link/network/dtls/mbedtls/mbedtls-2.16.2/library\rsa.c ****     do
 560:C:/Users/dtjld/workspace/AIoT/src/LiteOS_Lab/iot_link/network/dtls/mbedtls/mbedtls-2.16.2/library\rsa.c ****     {
 561:C:/Users/dtjld/workspace/AIoT/src/LiteOS_Lab/iot_link/network/dtls/mbedtls/mbedtls-2.16.2/library\rsa.c ****         MBEDTLS_MPI_CHK( mbedtls_mpi_gen_prime( &ctx->P, nbits >> 1,
 1835              		.loc 1 561 0
 1836 006c FB68     		ldr	r3, [r7, #12]
 1837 006e 03F12C00 		add	r0, r3, #44
 1838 0072 3B68     		ldr	r3, [r7]
 1839 0074 5908     		lsrs	r1, r3, #1
 1840 0076 7B68     		ldr	r3, [r7, #4]
 1841 0078 0093     		str	r3, [sp]
 1842 007a BB68     		ldr	r3, [r7, #8]
 1843 007c BA6B     		ldr	r2, [r7, #56]
 1844 007e FFF7FEFF 		bl	mbedtls_mpi_gen_prime
 1845 0082 F863     		str	r0, [r7, #60]
 1846 0084 FB6B     		ldr	r3, [r7, #60]
 1847 0086 002B     		cmp	r3, #0
 1848 0088 40F01281 		bne	.L142
 562:C:/Users/dtjld/workspace/AIoT/src/LiteOS_Lab/iot_link/network/dtls/mbedtls/mbedtls-2.16.2/library\rsa.c ****                                                 prime_quality, f_rng, p_rng ) );
 563:C:/Users/dtjld/workspace/AIoT/src/LiteOS_Lab/iot_link/network/dtls/mbedtls/mbedtls-2.16.2/library\rsa.c **** 
 564:C:/Users/dtjld/workspace/AIoT/src/LiteOS_Lab/iot_link/network/dtls/mbedtls/mbedtls-2.16.2/library\rsa.c ****         MBEDTLS_MPI_CHK( mbedtls_mpi_gen_prime( &ctx->Q, nbits >> 1,
 1849              		.loc 1 564 0
 1850 008c FB68     		ldr	r3, [r7, #12]
 1851 008e 03F13800 		add	r0, r3, #56
 1852 0092 3B68     		ldr	r3, [r7]
 1853 0094 5908     		lsrs	r1, r3, #1
 1854 0096 7B68     		ldr	r3, [r7, #4]
 1855 0098 0093     		str	r3, [sp]
 1856 009a BB68     		ldr	r3, [r7, #8]
 1857 009c BA6B     		ldr	r2, [r7, #56]
 1858 009e FFF7FEFF 		bl	mbedtls_mpi_gen_prime
 1859 00a2 F863     		str	r0, [r7, #60]
 1860 00a4 FB6B     		ldr	r3, [r7, #60]
 1861 00a6 002B     		cmp	r3, #0
 1862 00a8 40F00481 		bne	.L143
ARM GAS  C:\Users\dtjld\AppData\Local\Temp\cck1fUMg.s 			page 44


 565:C:/Users/dtjld/workspace/AIoT/src/LiteOS_Lab/iot_link/network/dtls/mbedtls/mbedtls-2.16.2/library\rsa.c ****                                                 prime_quality, f_rng, p_rng ) );
 566:C:/Users/dtjld/workspace/AIoT/src/LiteOS_Lab/iot_link/network/dtls/mbedtls/mbedtls-2.16.2/library\rsa.c **** 
 567:C:/Users/dtjld/workspace/AIoT/src/LiteOS_Lab/iot_link/network/dtls/mbedtls/mbedtls-2.16.2/library\rsa.c ****         /* make sure the difference between p and q is not too small (FIPS 186-4 §B.3.3 step 5.4) 
 568:C:/Users/dtjld/workspace/AIoT/src/LiteOS_Lab/iot_link/network/dtls/mbedtls/mbedtls-2.16.2/library\rsa.c ****         MBEDTLS_MPI_CHK( mbedtls_mpi_sub_mpi( &H, &ctx->P, &ctx->Q ) );
 1863              		.loc 1 568 0
 1864 00ac FB68     		ldr	r3, [r7, #12]
 1865 00ae 03F12C01 		add	r1, r3, #44
 1866 00b2 FB68     		ldr	r3, [r7, #12]
 1867 00b4 03F13802 		add	r2, r3, #56
 1868 00b8 07F12C03 		add	r3, r7, #44
 1869 00bc 1846     		mov	r0, r3
 1870 00be FFF7FEFF 		bl	mbedtls_mpi_sub_mpi
 1871 00c2 F863     		str	r0, [r7, #60]
 1872 00c4 FB6B     		ldr	r3, [r7, #60]
 1873 00c6 002B     		cmp	r3, #0
 1874 00c8 40F0F680 		bne	.L144
 569:C:/Users/dtjld/workspace/AIoT/src/LiteOS_Lab/iot_link/network/dtls/mbedtls/mbedtls-2.16.2/library\rsa.c ****         if( mbedtls_mpi_bitlen( &H ) <= ( ( nbits >= 200 ) ? ( ( nbits >> 1 ) - 99 ) : 0 ) )
 1875              		.loc 1 569 0
 1876 00cc 07F12C03 		add	r3, r7, #44
 1877 00d0 1846     		mov	r0, r3
 1878 00d2 FFF7FEFF 		bl	mbedtls_mpi_bitlen
 1879 00d6 0246     		mov	r2, r0
 1880 00d8 3B68     		ldr	r3, [r7]
 1881 00da C72B     		cmp	r3, #199
 1882 00dc 03D9     		bls	.L120
 1883              		.loc 1 569 0 is_stmt 0 discriminator 1
 1884 00de 3B68     		ldr	r3, [r7]
 1885 00e0 5B08     		lsrs	r3, r3, #1
 1886 00e2 633B     		subs	r3, r3, #99
 1887 00e4 00E0     		b	.L121
 1888              	.L120:
 1889              		.loc 1 569 0 discriminator 2
 1890 00e6 0023     		movs	r3, #0
 1891              	.L121:
 1892              		.loc 1 569 0 discriminator 4
 1893 00e8 9342     		cmp	r3, r2
 1894 00ea 80F08880 		bcs	.L145
 570:C:/Users/dtjld/workspace/AIoT/src/LiteOS_Lab/iot_link/network/dtls/mbedtls/mbedtls-2.16.2/library\rsa.c ****             continue;
 571:C:/Users/dtjld/workspace/AIoT/src/LiteOS_Lab/iot_link/network/dtls/mbedtls/mbedtls-2.16.2/library\rsa.c **** 
 572:C:/Users/dtjld/workspace/AIoT/src/LiteOS_Lab/iot_link/network/dtls/mbedtls/mbedtls-2.16.2/library\rsa.c ****         /* not required by any standards, but some users rely on the fact that P > Q */
 573:C:/Users/dtjld/workspace/AIoT/src/LiteOS_Lab/iot_link/network/dtls/mbedtls/mbedtls-2.16.2/library\rsa.c ****         if( H.s < 0 )
 1895              		.loc 1 573 0 is_stmt 1
 1896 00ee FB6A     		ldr	r3, [r7, #44]
 1897 00f0 002B     		cmp	r3, #0
 1898 00f2 08DA     		bge	.L124
 574:C:/Users/dtjld/workspace/AIoT/src/LiteOS_Lab/iot_link/network/dtls/mbedtls/mbedtls-2.16.2/library\rsa.c ****             mbedtls_mpi_swap( &ctx->P, &ctx->Q );
 1899              		.loc 1 574 0
 1900 00f4 FB68     		ldr	r3, [r7, #12]
 1901 00f6 03F12C02 		add	r2, r3, #44
 1902 00fa FB68     		ldr	r3, [r7, #12]
 1903 00fc 3833     		adds	r3, r3, #56
 1904 00fe 1946     		mov	r1, r3
 1905 0100 1046     		mov	r0, r2
 1906 0102 FFF7FEFF 		bl	mbedtls_mpi_swap
 1907              	.L124:
 575:C:/Users/dtjld/workspace/AIoT/src/LiteOS_Lab/iot_link/network/dtls/mbedtls/mbedtls-2.16.2/library\rsa.c **** 
 576:C:/Users/dtjld/workspace/AIoT/src/LiteOS_Lab/iot_link/network/dtls/mbedtls/mbedtls-2.16.2/library\rsa.c ****         /* Temporarily replace P,Q by P-1, Q-1 */
ARM GAS  C:\Users\dtjld\AppData\Local\Temp\cck1fUMg.s 			page 45


 577:C:/Users/dtjld/workspace/AIoT/src/LiteOS_Lab/iot_link/network/dtls/mbedtls/mbedtls-2.16.2/library\rsa.c ****         MBEDTLS_MPI_CHK( mbedtls_mpi_sub_int( &ctx->P, &ctx->P, 1 ) );
 1908              		.loc 1 577 0
 1909 0106 FB68     		ldr	r3, [r7, #12]
 1910 0108 03F12C00 		add	r0, r3, #44
 1911 010c FB68     		ldr	r3, [r7, #12]
 1912 010e 2C33     		adds	r3, r3, #44
 1913 0110 0122     		movs	r2, #1
 1914 0112 1946     		mov	r1, r3
 1915 0114 FFF7FEFF 		bl	mbedtls_mpi_sub_int
 1916 0118 F863     		str	r0, [r7, #60]
 1917 011a FB6B     		ldr	r3, [r7, #60]
 1918 011c 002B     		cmp	r3, #0
 1919 011e 40F0CD80 		bne	.L146
 578:C:/Users/dtjld/workspace/AIoT/src/LiteOS_Lab/iot_link/network/dtls/mbedtls/mbedtls-2.16.2/library\rsa.c ****         MBEDTLS_MPI_CHK( mbedtls_mpi_sub_int( &ctx->Q, &ctx->Q, 1 ) );
 1920              		.loc 1 578 0
 1921 0122 FB68     		ldr	r3, [r7, #12]
 1922 0124 03F13800 		add	r0, r3, #56
 1923 0128 FB68     		ldr	r3, [r7, #12]
 1924 012a 3833     		adds	r3, r3, #56
 1925 012c 0122     		movs	r2, #1
 1926 012e 1946     		mov	r1, r3
 1927 0130 FFF7FEFF 		bl	mbedtls_mpi_sub_int
 1928 0134 F863     		str	r0, [r7, #60]
 1929 0136 FB6B     		ldr	r3, [r7, #60]
 1930 0138 002B     		cmp	r3, #0
 1931 013a 40F0C180 		bne	.L147
 579:C:/Users/dtjld/workspace/AIoT/src/LiteOS_Lab/iot_link/network/dtls/mbedtls/mbedtls-2.16.2/library\rsa.c ****         MBEDTLS_MPI_CHK( mbedtls_mpi_mul_mpi( &H, &ctx->P, &ctx->Q ) );
 1932              		.loc 1 579 0
 1933 013e FB68     		ldr	r3, [r7, #12]
 1934 0140 03F12C01 		add	r1, r3, #44
 1935 0144 FB68     		ldr	r3, [r7, #12]
 1936 0146 03F13802 		add	r2, r3, #56
 1937 014a 07F12C03 		add	r3, r7, #44
 1938 014e 1846     		mov	r0, r3
 1939 0150 FFF7FEFF 		bl	mbedtls_mpi_mul_mpi
 1940 0154 F863     		str	r0, [r7, #60]
 1941 0156 FB6B     		ldr	r3, [r7, #60]
 1942 0158 002B     		cmp	r3, #0
 1943 015a 40F0B380 		bne	.L148
 580:C:/Users/dtjld/workspace/AIoT/src/LiteOS_Lab/iot_link/network/dtls/mbedtls/mbedtls-2.16.2/library\rsa.c **** 
 581:C:/Users/dtjld/workspace/AIoT/src/LiteOS_Lab/iot_link/network/dtls/mbedtls/mbedtls-2.16.2/library\rsa.c ****         /* check GCD( E, (P-1)*(Q-1) ) == 1 (FIPS 186-4 §B.3.1 criterion 2(a)) */
 582:C:/Users/dtjld/workspace/AIoT/src/LiteOS_Lab/iot_link/network/dtls/mbedtls/mbedtls-2.16.2/library\rsa.c ****         MBEDTLS_MPI_CHK( mbedtls_mpi_gcd( &G, &ctx->E, &H  ) );
 1944              		.loc 1 582 0
 1945 015e FB68     		ldr	r3, [r7, #12]
 1946 0160 03F11401 		add	r1, r3, #20
 1947 0164 07F12C02 		add	r2, r7, #44
 1948 0168 07F12003 		add	r3, r7, #32
 1949 016c 1846     		mov	r0, r3
 1950 016e FFF7FEFF 		bl	mbedtls_mpi_gcd
 1951 0172 F863     		str	r0, [r7, #60]
 1952 0174 FB6B     		ldr	r3, [r7, #60]
 1953 0176 002B     		cmp	r3, #0
 1954 0178 40F0A680 		bne	.L149
 583:C:/Users/dtjld/workspace/AIoT/src/LiteOS_Lab/iot_link/network/dtls/mbedtls/mbedtls-2.16.2/library\rsa.c ****         if( mbedtls_mpi_cmp_int( &G, 1 ) != 0 )
 1955              		.loc 1 583 0
 1956 017c 07F12003 		add	r3, r7, #32
 1957 0180 0121     		movs	r1, #1
ARM GAS  C:\Users\dtjld\AppData\Local\Temp\cck1fUMg.s 			page 46


 1958 0182 1846     		mov	r0, r3
 1959 0184 FFF7FEFF 		bl	mbedtls_mpi_cmp_int
 1960 0188 0346     		mov	r3, r0
 1961 018a 002B     		cmp	r3, #0
 1962 018c 39D1     		bne	.L150
 584:C:/Users/dtjld/workspace/AIoT/src/LiteOS_Lab/iot_link/network/dtls/mbedtls/mbedtls-2.16.2/library\rsa.c ****             continue;
 585:C:/Users/dtjld/workspace/AIoT/src/LiteOS_Lab/iot_link/network/dtls/mbedtls/mbedtls-2.16.2/library\rsa.c **** 
 586:C:/Users/dtjld/workspace/AIoT/src/LiteOS_Lab/iot_link/network/dtls/mbedtls/mbedtls-2.16.2/library\rsa.c ****         /* compute smallest possible D = E^-1 mod LCM(P-1, Q-1) (FIPS 186-4 §B.3.1 criterion 3(b))
 587:C:/Users/dtjld/workspace/AIoT/src/LiteOS_Lab/iot_link/network/dtls/mbedtls/mbedtls-2.16.2/library\rsa.c ****         MBEDTLS_MPI_CHK( mbedtls_mpi_gcd( &G, &ctx->P, &ctx->Q ) );
 1963              		.loc 1 587 0
 1964 018e FB68     		ldr	r3, [r7, #12]
 1965 0190 03F12C01 		add	r1, r3, #44
 1966 0194 FB68     		ldr	r3, [r7, #12]
 1967 0196 03F13802 		add	r2, r3, #56
 1968 019a 07F12003 		add	r3, r7, #32
 1969 019e 1846     		mov	r0, r3
 1970 01a0 FFF7FEFF 		bl	mbedtls_mpi_gcd
 1971 01a4 F863     		str	r0, [r7, #60]
 1972 01a6 FB6B     		ldr	r3, [r7, #60]
 1973 01a8 002B     		cmp	r3, #0
 1974 01aa 40F08F80 		bne	.L151
 588:C:/Users/dtjld/workspace/AIoT/src/LiteOS_Lab/iot_link/network/dtls/mbedtls/mbedtls-2.16.2/library\rsa.c ****         MBEDTLS_MPI_CHK( mbedtls_mpi_div_mpi( &L, NULL, &H, &G ) );
 1975              		.loc 1 588 0
 1976 01ae 07F12003 		add	r3, r7, #32
 1977 01b2 07F12C02 		add	r2, r7, #44
 1978 01b6 07F11400 		add	r0, r7, #20
 1979 01ba 0021     		movs	r1, #0
 1980 01bc FFF7FEFF 		bl	mbedtls_mpi_div_mpi
 1981 01c0 F863     		str	r0, [r7, #60]
 1982 01c2 FB6B     		ldr	r3, [r7, #60]
 1983 01c4 002B     		cmp	r3, #0
 1984 01c6 40F08380 		bne	.L152
 589:C:/Users/dtjld/workspace/AIoT/src/LiteOS_Lab/iot_link/network/dtls/mbedtls/mbedtls-2.16.2/library\rsa.c ****         MBEDTLS_MPI_CHK( mbedtls_mpi_inv_mod( &ctx->D, &ctx->E, &L ) );
 1985              		.loc 1 589 0
 1986 01ca FB68     		ldr	r3, [r7, #12]
 1987 01cc 03F12000 		add	r0, r3, #32
 1988 01d0 FB68     		ldr	r3, [r7, #12]
 1989 01d2 1433     		adds	r3, r3, #20
 1990 01d4 07F11402 		add	r2, r7, #20
 1991 01d8 1946     		mov	r1, r3
 1992 01da FFF7FEFF 		bl	mbedtls_mpi_inv_mod
 1993 01de F863     		str	r0, [r7, #60]
 1994 01e0 FB6B     		ldr	r3, [r7, #60]
 1995 01e2 002B     		cmp	r3, #0
 1996 01e4 76D1     		bne	.L153
 590:C:/Users/dtjld/workspace/AIoT/src/LiteOS_Lab/iot_link/network/dtls/mbedtls/mbedtls-2.16.2/library\rsa.c **** 
 591:C:/Users/dtjld/workspace/AIoT/src/LiteOS_Lab/iot_link/network/dtls/mbedtls/mbedtls-2.16.2/library\rsa.c ****         if( mbedtls_mpi_bitlen( &ctx->D ) <= ( ( nbits + 1 ) / 2 ) ) // (FIPS 186-4 §B.3.1 criteri
 1997              		.loc 1 591 0
 1998 01e6 FB68     		ldr	r3, [r7, #12]
 1999 01e8 2033     		adds	r3, r3, #32
 2000 01ea 1846     		mov	r0, r3
 2001 01ec FFF7FEFF 		bl	mbedtls_mpi_bitlen
 2002 01f0 0246     		mov	r2, r0
 2003 01f2 3B68     		ldr	r3, [r7]
 2004 01f4 0133     		adds	r3, r3, #1
 2005 01f6 5B08     		lsrs	r3, r3, #1
 2006 01f8 9A42     		cmp	r2, r3
ARM GAS  C:\Users\dtjld\AppData\Local\Temp\cck1fUMg.s 			page 47


 2007 01fa 04D8     		bhi	.L154
 592:C:/Users/dtjld/workspace/AIoT/src/LiteOS_Lab/iot_link/network/dtls/mbedtls/mbedtls-2.16.2/library\rsa.c ****             continue;
 2008              		.loc 1 592 0
 2009 01fc 02E0     		b	.L123
 2010              	.L145:
 570:C:/Users/dtjld/workspace/AIoT/src/LiteOS_Lab/iot_link/network/dtls/mbedtls/mbedtls-2.16.2/library\rsa.c **** 
 2011              		.loc 1 570 0
 2012 01fe 00BF     		nop
 2013 0200 34E7     		b	.L115
 2014              	.L150:
 584:C:/Users/dtjld/workspace/AIoT/src/LiteOS_Lab/iot_link/network/dtls/mbedtls/mbedtls-2.16.2/library\rsa.c **** 
 2015              		.loc 1 584 0
 2016 0202 00BF     		nop
 2017              	.L123:
 561:C:/Users/dtjld/workspace/AIoT/src/LiteOS_Lab/iot_link/network/dtls/mbedtls/mbedtls-2.16.2/library\rsa.c ****                                                 prime_quality, f_rng, p_rng ) );
 2018              		.loc 1 561 0
 2019 0204 32E7     		b	.L115
 2020              	.L154:
 593:C:/Users/dtjld/workspace/AIoT/src/LiteOS_Lab/iot_link/network/dtls/mbedtls/mbedtls-2.16.2/library\rsa.c **** 
 594:C:/Users/dtjld/workspace/AIoT/src/LiteOS_Lab/iot_link/network/dtls/mbedtls/mbedtls-2.16.2/library\rsa.c ****         break;
 2021              		.loc 1 594 0
 2022 0206 00BF     		nop
 595:C:/Users/dtjld/workspace/AIoT/src/LiteOS_Lab/iot_link/network/dtls/mbedtls/mbedtls-2.16.2/library\rsa.c ****     }
 596:C:/Users/dtjld/workspace/AIoT/src/LiteOS_Lab/iot_link/network/dtls/mbedtls/mbedtls-2.16.2/library\rsa.c ****     while( 1 );
 597:C:/Users/dtjld/workspace/AIoT/src/LiteOS_Lab/iot_link/network/dtls/mbedtls/mbedtls-2.16.2/library\rsa.c **** 
 598:C:/Users/dtjld/workspace/AIoT/src/LiteOS_Lab/iot_link/network/dtls/mbedtls/mbedtls-2.16.2/library\rsa.c ****     /* Restore P,Q */
 599:C:/Users/dtjld/workspace/AIoT/src/LiteOS_Lab/iot_link/network/dtls/mbedtls/mbedtls-2.16.2/library\rsa.c ****     MBEDTLS_MPI_CHK( mbedtls_mpi_add_int( &ctx->P,  &ctx->P, 1 ) );
 2023              		.loc 1 599 0
 2024 0208 FB68     		ldr	r3, [r7, #12]
 2025 020a 03F12C00 		add	r0, r3, #44
 2026 020e FB68     		ldr	r3, [r7, #12]
 2027 0210 2C33     		adds	r3, r3, #44
 2028 0212 0122     		movs	r2, #1
 2029 0214 1946     		mov	r1, r3
 2030 0216 FFF7FEFF 		bl	mbedtls_mpi_add_int
 2031 021a F863     		str	r0, [r7, #60]
 2032 021c FB6B     		ldr	r3, [r7, #60]
 2033 021e 002B     		cmp	r3, #0
 2034 0220 5AD1     		bne	.L155
 600:C:/Users/dtjld/workspace/AIoT/src/LiteOS_Lab/iot_link/network/dtls/mbedtls/mbedtls-2.16.2/library\rsa.c ****     MBEDTLS_MPI_CHK( mbedtls_mpi_add_int( &ctx->Q,  &ctx->Q, 1 ) );
 2035              		.loc 1 600 0
 2036 0222 FB68     		ldr	r3, [r7, #12]
 2037 0224 03F13800 		add	r0, r3, #56
 2038 0228 FB68     		ldr	r3, [r7, #12]
 2039 022a 3833     		adds	r3, r3, #56
 2040 022c 0122     		movs	r2, #1
 2041 022e 1946     		mov	r1, r3
 2042 0230 FFF7FEFF 		bl	mbedtls_mpi_add_int
 2043 0234 F863     		str	r0, [r7, #60]
 2044 0236 FB6B     		ldr	r3, [r7, #60]
 2045 0238 002B     		cmp	r3, #0
 2046 023a 4FD1     		bne	.L156
 601:C:/Users/dtjld/workspace/AIoT/src/LiteOS_Lab/iot_link/network/dtls/mbedtls/mbedtls-2.16.2/library\rsa.c **** 
 602:C:/Users/dtjld/workspace/AIoT/src/LiteOS_Lab/iot_link/network/dtls/mbedtls/mbedtls-2.16.2/library\rsa.c ****     MBEDTLS_MPI_CHK( mbedtls_mpi_mul_mpi( &ctx->N, &ctx->P, &ctx->Q ) );
 2047              		.loc 1 602 0
 2048 023c FB68     		ldr	r3, [r7, #12]
 2049 023e 03F10800 		add	r0, r3, #8
ARM GAS  C:\Users\dtjld\AppData\Local\Temp\cck1fUMg.s 			page 48


 2050 0242 FB68     		ldr	r3, [r7, #12]
 2051 0244 03F12C01 		add	r1, r3, #44
 2052 0248 FB68     		ldr	r3, [r7, #12]
 2053 024a 3833     		adds	r3, r3, #56
 2054 024c 1A46     		mov	r2, r3
 2055 024e FFF7FEFF 		bl	mbedtls_mpi_mul_mpi
 2056 0252 F863     		str	r0, [r7, #60]
 2057 0254 FB6B     		ldr	r3, [r7, #60]
 2058 0256 002B     		cmp	r3, #0
 2059 0258 42D1     		bne	.L157
 603:C:/Users/dtjld/workspace/AIoT/src/LiteOS_Lab/iot_link/network/dtls/mbedtls/mbedtls-2.16.2/library\rsa.c **** 
 604:C:/Users/dtjld/workspace/AIoT/src/LiteOS_Lab/iot_link/network/dtls/mbedtls/mbedtls-2.16.2/library\rsa.c ****     ctx->len = mbedtls_mpi_size( &ctx->N );
 2060              		.loc 1 604 0
 2061 025a FB68     		ldr	r3, [r7, #12]
 2062 025c 0833     		adds	r3, r3, #8
 2063 025e 1846     		mov	r0, r3
 2064 0260 FFF7FEFF 		bl	mbedtls_mpi_size
 2065 0264 0246     		mov	r2, r0
 2066 0266 FB68     		ldr	r3, [r7, #12]
 2067 0268 5A60     		str	r2, [r3, #4]
 605:C:/Users/dtjld/workspace/AIoT/src/LiteOS_Lab/iot_link/network/dtls/mbedtls/mbedtls-2.16.2/library\rsa.c **** 
 606:C:/Users/dtjld/workspace/AIoT/src/LiteOS_Lab/iot_link/network/dtls/mbedtls/mbedtls-2.16.2/library\rsa.c **** #if !defined(MBEDTLS_RSA_NO_CRT)
 607:C:/Users/dtjld/workspace/AIoT/src/LiteOS_Lab/iot_link/network/dtls/mbedtls/mbedtls-2.16.2/library\rsa.c ****     /*
 608:C:/Users/dtjld/workspace/AIoT/src/LiteOS_Lab/iot_link/network/dtls/mbedtls/mbedtls-2.16.2/library\rsa.c ****      * DP = D mod (P - 1)
 609:C:/Users/dtjld/workspace/AIoT/src/LiteOS_Lab/iot_link/network/dtls/mbedtls/mbedtls-2.16.2/library\rsa.c ****      * DQ = D mod (Q - 1)
 610:C:/Users/dtjld/workspace/AIoT/src/LiteOS_Lab/iot_link/network/dtls/mbedtls/mbedtls-2.16.2/library\rsa.c ****      * QP = Q^-1 mod P
 611:C:/Users/dtjld/workspace/AIoT/src/LiteOS_Lab/iot_link/network/dtls/mbedtls/mbedtls-2.16.2/library\rsa.c ****      */
 612:C:/Users/dtjld/workspace/AIoT/src/LiteOS_Lab/iot_link/network/dtls/mbedtls/mbedtls-2.16.2/library\rsa.c ****     MBEDTLS_MPI_CHK( mbedtls_rsa_deduce_crt( &ctx->P, &ctx->Q, &ctx->D,
 2068              		.loc 1 612 0
 2069 026a FB68     		ldr	r3, [r7, #12]
 2070 026c 03F12C00 		add	r0, r3, #44
 2071 0270 FB68     		ldr	r3, [r7, #12]
 2072 0272 03F13801 		add	r1, r3, #56
 2073 0276 FB68     		ldr	r3, [r7, #12]
 2074 0278 03F12004 		add	r4, r3, #32
 2075 027c FB68     		ldr	r3, [r7, #12]
 2076 027e 03F14405 		add	r5, r3, #68
 2077 0282 FB68     		ldr	r3, [r7, #12]
 2078 0284 5033     		adds	r3, r3, #80
 2079 0286 FA68     		ldr	r2, [r7, #12]
 2080 0288 5C32     		adds	r2, r2, #92
 2081 028a 0192     		str	r2, [sp, #4]
 2082 028c 0093     		str	r3, [sp]
 2083 028e 2B46     		mov	r3, r5
 2084 0290 2246     		mov	r2, r4
 2085 0292 FFF7FEFF 		bl	mbedtls_rsa_deduce_crt
 2086 0296 F863     		str	r0, [r7, #60]
 2087 0298 FB6B     		ldr	r3, [r7, #60]
 2088 029a 002B     		cmp	r3, #0
 2089 029c 22D1     		bne	.L158
 613:C:/Users/dtjld/workspace/AIoT/src/LiteOS_Lab/iot_link/network/dtls/mbedtls/mbedtls-2.16.2/library\rsa.c ****                                              &ctx->DP, &ctx->DQ, &ctx->QP ) );
 614:C:/Users/dtjld/workspace/AIoT/src/LiteOS_Lab/iot_link/network/dtls/mbedtls/mbedtls-2.16.2/library\rsa.c **** #endif /* MBEDTLS_RSA_NO_CRT */
 615:C:/Users/dtjld/workspace/AIoT/src/LiteOS_Lab/iot_link/network/dtls/mbedtls/mbedtls-2.16.2/library\rsa.c **** 
 616:C:/Users/dtjld/workspace/AIoT/src/LiteOS_Lab/iot_link/network/dtls/mbedtls/mbedtls-2.16.2/library\rsa.c ****     /* Double-check */
 617:C:/Users/dtjld/workspace/AIoT/src/LiteOS_Lab/iot_link/network/dtls/mbedtls/mbedtls-2.16.2/library\rsa.c ****     MBEDTLS_MPI_CHK( mbedtls_rsa_check_privkey( ctx ) );
 2090              		.loc 1 617 0
 2091 029e F868     		ldr	r0, [r7, #12]
ARM GAS  C:\Users\dtjld\AppData\Local\Temp\cck1fUMg.s 			page 49


 2092 02a0 FFF7FEFF 		bl	mbedtls_rsa_check_privkey
 2093 02a4 F863     		str	r0, [r7, #60]
 2094 02a6 FB6B     		ldr	r3, [r7, #60]
 2095 02a8 002B     		cmp	r3, #0
 618:C:/Users/dtjld/workspace/AIoT/src/LiteOS_Lab/iot_link/network/dtls/mbedtls/mbedtls-2.16.2/library\rsa.c **** 
 619:C:/Users/dtjld/workspace/AIoT/src/LiteOS_Lab/iot_link/network/dtls/mbedtls/mbedtls-2.16.2/library\rsa.c **** cleanup:
 2096              		.loc 1 619 0
 2097 02aa 1CE0     		b	.L116
 2098              	.L141:
 557:C:/Users/dtjld/workspace/AIoT/src/LiteOS_Lab/iot_link/network/dtls/mbedtls/mbedtls-2.16.2/library\rsa.c **** 
 2099              		.loc 1 557 0
 2100 02ac 00BF     		nop
 2101 02ae 1AE0     		b	.L116
 2102              	.L142:
 561:C:/Users/dtjld/workspace/AIoT/src/LiteOS_Lab/iot_link/network/dtls/mbedtls/mbedtls-2.16.2/library\rsa.c ****                                                 prime_quality, f_rng, p_rng ) );
 2103              		.loc 1 561 0
 2104 02b0 00BF     		nop
 2105 02b2 18E0     		b	.L116
 2106              	.L143:
 564:C:/Users/dtjld/workspace/AIoT/src/LiteOS_Lab/iot_link/network/dtls/mbedtls/mbedtls-2.16.2/library\rsa.c ****                                                 prime_quality, f_rng, p_rng ) );
 2107              		.loc 1 564 0
 2108 02b4 00BF     		nop
 2109 02b6 16E0     		b	.L116
 2110              	.L144:
 568:C:/Users/dtjld/workspace/AIoT/src/LiteOS_Lab/iot_link/network/dtls/mbedtls/mbedtls-2.16.2/library\rsa.c ****         if( mbedtls_mpi_bitlen( &H ) <= ( ( nbits >= 200 ) ? ( ( nbits >> 1 ) - 99 ) : 0 ) )
 2111              		.loc 1 568 0
 2112 02b8 00BF     		nop
 2113 02ba 14E0     		b	.L116
 2114              	.L146:
 577:C:/Users/dtjld/workspace/AIoT/src/LiteOS_Lab/iot_link/network/dtls/mbedtls/mbedtls-2.16.2/library\rsa.c ****         MBEDTLS_MPI_CHK( mbedtls_mpi_sub_int( &ctx->Q, &ctx->Q, 1 ) );
 2115              		.loc 1 577 0
 2116 02bc 00BF     		nop
 2117 02be 12E0     		b	.L116
 2118              	.L147:
 578:C:/Users/dtjld/workspace/AIoT/src/LiteOS_Lab/iot_link/network/dtls/mbedtls/mbedtls-2.16.2/library\rsa.c ****         MBEDTLS_MPI_CHK( mbedtls_mpi_mul_mpi( &H, &ctx->P, &ctx->Q ) );
 2119              		.loc 1 578 0
 2120 02c0 00BF     		nop
 2121 02c2 10E0     		b	.L116
 2122              	.L148:
 579:C:/Users/dtjld/workspace/AIoT/src/LiteOS_Lab/iot_link/network/dtls/mbedtls/mbedtls-2.16.2/library\rsa.c **** 
 2123              		.loc 1 579 0
 2124 02c4 00BF     		nop
 2125 02c6 0EE0     		b	.L116
 2126              	.L149:
 582:C:/Users/dtjld/workspace/AIoT/src/LiteOS_Lab/iot_link/network/dtls/mbedtls/mbedtls-2.16.2/library\rsa.c ****         if( mbedtls_mpi_cmp_int( &G, 1 ) != 0 )
 2127              		.loc 1 582 0
 2128 02c8 00BF     		nop
 2129 02ca 0CE0     		b	.L116
 2130              	.L151:
 587:C:/Users/dtjld/workspace/AIoT/src/LiteOS_Lab/iot_link/network/dtls/mbedtls/mbedtls-2.16.2/library\rsa.c ****         MBEDTLS_MPI_CHK( mbedtls_mpi_div_mpi( &L, NULL, &H, &G ) );
 2131              		.loc 1 587 0
 2132 02cc 00BF     		nop
 2133 02ce 0AE0     		b	.L116
 2134              	.L152:
 588:C:/Users/dtjld/workspace/AIoT/src/LiteOS_Lab/iot_link/network/dtls/mbedtls/mbedtls-2.16.2/library\rsa.c ****         MBEDTLS_MPI_CHK( mbedtls_mpi_inv_mod( &ctx->D, &ctx->E, &L ) );
 2135              		.loc 1 588 0
 2136 02d0 00BF     		nop
ARM GAS  C:\Users\dtjld\AppData\Local\Temp\cck1fUMg.s 			page 50


 2137 02d2 08E0     		b	.L116
 2138              	.L153:
 589:C:/Users/dtjld/workspace/AIoT/src/LiteOS_Lab/iot_link/network/dtls/mbedtls/mbedtls-2.16.2/library\rsa.c **** 
 2139              		.loc 1 589 0
 2140 02d4 00BF     		nop
 2141 02d6 06E0     		b	.L116
 2142              	.L155:
 599:C:/Users/dtjld/workspace/AIoT/src/LiteOS_Lab/iot_link/network/dtls/mbedtls/mbedtls-2.16.2/library\rsa.c ****     MBEDTLS_MPI_CHK( mbedtls_mpi_add_int( &ctx->Q,  &ctx->Q, 1 ) );
 2143              		.loc 1 599 0
 2144 02d8 00BF     		nop
 2145 02da 04E0     		b	.L116
 2146              	.L156:
 600:C:/Users/dtjld/workspace/AIoT/src/LiteOS_Lab/iot_link/network/dtls/mbedtls/mbedtls-2.16.2/library\rsa.c **** 
 2147              		.loc 1 600 0
 2148 02dc 00BF     		nop
 2149 02de 02E0     		b	.L116
 2150              	.L157:
 602:C:/Users/dtjld/workspace/AIoT/src/LiteOS_Lab/iot_link/network/dtls/mbedtls/mbedtls-2.16.2/library\rsa.c **** 
 2151              		.loc 1 602 0
 2152 02e0 00BF     		nop
 2153 02e2 00E0     		b	.L116
 2154              	.L158:
 612:C:/Users/dtjld/workspace/AIoT/src/LiteOS_Lab/iot_link/network/dtls/mbedtls/mbedtls-2.16.2/library\rsa.c ****                                              &ctx->DP, &ctx->DQ, &ctx->QP ) );
 2155              		.loc 1 612 0
 2156 02e4 00BF     		nop
 2157              	.L116:
 620:C:/Users/dtjld/workspace/AIoT/src/LiteOS_Lab/iot_link/network/dtls/mbedtls/mbedtls-2.16.2/library\rsa.c **** 
 621:C:/Users/dtjld/workspace/AIoT/src/LiteOS_Lab/iot_link/network/dtls/mbedtls/mbedtls-2.16.2/library\rsa.c ****     mbedtls_mpi_free( &H );
 2158              		.loc 1 621 0
 2159 02e6 07F12C03 		add	r3, r7, #44
 2160 02ea 1846     		mov	r0, r3
 2161 02ec FFF7FEFF 		bl	mbedtls_mpi_free
 622:C:/Users/dtjld/workspace/AIoT/src/LiteOS_Lab/iot_link/network/dtls/mbedtls/mbedtls-2.16.2/library\rsa.c ****     mbedtls_mpi_free( &G );
 2162              		.loc 1 622 0
 2163 02f0 07F12003 		add	r3, r7, #32
 2164 02f4 1846     		mov	r0, r3
 2165 02f6 FFF7FEFF 		bl	mbedtls_mpi_free
 623:C:/Users/dtjld/workspace/AIoT/src/LiteOS_Lab/iot_link/network/dtls/mbedtls/mbedtls-2.16.2/library\rsa.c ****     mbedtls_mpi_free( &L );
 2166              		.loc 1 623 0
 2167 02fa 07F11403 		add	r3, r7, #20
 2168 02fe 1846     		mov	r0, r3
 2169 0300 FFF7FEFF 		bl	mbedtls_mpi_free
 624:C:/Users/dtjld/workspace/AIoT/src/LiteOS_Lab/iot_link/network/dtls/mbedtls/mbedtls-2.16.2/library\rsa.c **** 
 625:C:/Users/dtjld/workspace/AIoT/src/LiteOS_Lab/iot_link/network/dtls/mbedtls/mbedtls-2.16.2/library\rsa.c ****     if( ret != 0 )
 2170              		.loc 1 625 0
 2171 0304 FB6B     		ldr	r3, [r7, #60]
 2172 0306 002B     		cmp	r3, #0
 2173 0308 06D0     		beq	.L139
 626:C:/Users/dtjld/workspace/AIoT/src/LiteOS_Lab/iot_link/network/dtls/mbedtls/mbedtls-2.16.2/library\rsa.c ****     {
 627:C:/Users/dtjld/workspace/AIoT/src/LiteOS_Lab/iot_link/network/dtls/mbedtls/mbedtls-2.16.2/library\rsa.c ****         mbedtls_rsa_free( ctx );
 2174              		.loc 1 627 0
 2175 030a F868     		ldr	r0, [r7, #12]
 2176 030c FFF7FEFF 		bl	mbedtls_rsa_free
 628:C:/Users/dtjld/workspace/AIoT/src/LiteOS_Lab/iot_link/network/dtls/mbedtls/mbedtls-2.16.2/library\rsa.c ****         return( MBEDTLS_ERR_RSA_KEY_GEN_FAILED + ret );
 2177              		.loc 1 628 0
 2178 0310 FB6B     		ldr	r3, [r7, #60]
 2179 0312 A3F58343 		sub	r3, r3, #16768
ARM GAS  C:\Users\dtjld\AppData\Local\Temp\cck1fUMg.s 			page 51


 2180 0316 00E0     		b	.L140
 2181              	.L139:
 629:C:/Users/dtjld/workspace/AIoT/src/LiteOS_Lab/iot_link/network/dtls/mbedtls/mbedtls-2.16.2/library\rsa.c ****     }
 630:C:/Users/dtjld/workspace/AIoT/src/LiteOS_Lab/iot_link/network/dtls/mbedtls/mbedtls-2.16.2/library\rsa.c **** 
 631:C:/Users/dtjld/workspace/AIoT/src/LiteOS_Lab/iot_link/network/dtls/mbedtls/mbedtls-2.16.2/library\rsa.c ****     return( 0 );
 2182              		.loc 1 631 0
 2183 0318 0023     		movs	r3, #0
 2184              	.L140:
 632:C:/Users/dtjld/workspace/AIoT/src/LiteOS_Lab/iot_link/network/dtls/mbedtls/mbedtls-2.16.2/library\rsa.c **** }
 2185              		.loc 1 632 0 discriminator 1
 2186 031a 1846     		mov	r0, r3
 2187 031c 4037     		adds	r7, r7, #64
 2188              	.LCFI61:
 2189              		.cfi_def_cfa_offset 16
 2190 031e BD46     		mov	sp, r7
 2191              	.LCFI62:
 2192              		.cfi_def_cfa_register 13
 2193              		@ sp needed
 2194 0320 B0BD     		pop	{r4, r5, r7, pc}
 2195              	.L160:
 2196 0322 00BF     		.align	2
 2197              	.L159:
 2198 0324 80BFFFFF 		.word	-16512
 2199              		.cfi_endproc
 2200              	.LFE24:
 2202              		.section	.text.mbedtls_rsa_check_pubkey,"ax",%progbits
 2203              		.align	1
 2204              		.global	mbedtls_rsa_check_pubkey
 2205              		.syntax unified
 2206              		.thumb
 2207              		.thumb_func
 2208              		.fpu fpv4-sp-d16
 2210              	mbedtls_rsa_check_pubkey:
 2211              	.LFB25:
 633:C:/Users/dtjld/workspace/AIoT/src/LiteOS_Lab/iot_link/network/dtls/mbedtls/mbedtls-2.16.2/library\rsa.c **** 
 634:C:/Users/dtjld/workspace/AIoT/src/LiteOS_Lab/iot_link/network/dtls/mbedtls/mbedtls-2.16.2/library\rsa.c **** #endif /* MBEDTLS_GENPRIME */
 635:C:/Users/dtjld/workspace/AIoT/src/LiteOS_Lab/iot_link/network/dtls/mbedtls/mbedtls-2.16.2/library\rsa.c **** 
 636:C:/Users/dtjld/workspace/AIoT/src/LiteOS_Lab/iot_link/network/dtls/mbedtls/mbedtls-2.16.2/library\rsa.c **** /*
 637:C:/Users/dtjld/workspace/AIoT/src/LiteOS_Lab/iot_link/network/dtls/mbedtls/mbedtls-2.16.2/library\rsa.c ****  * Check a public RSA key
 638:C:/Users/dtjld/workspace/AIoT/src/LiteOS_Lab/iot_link/network/dtls/mbedtls/mbedtls-2.16.2/library\rsa.c ****  */
 639:C:/Users/dtjld/workspace/AIoT/src/LiteOS_Lab/iot_link/network/dtls/mbedtls/mbedtls-2.16.2/library\rsa.c **** int mbedtls_rsa_check_pubkey( const mbedtls_rsa_context *ctx )
 640:C:/Users/dtjld/workspace/AIoT/src/LiteOS_Lab/iot_link/network/dtls/mbedtls/mbedtls-2.16.2/library\rsa.c **** {
 2212              		.loc 1 640 0
 2213              		.cfi_startproc
 2214              		@ args = 0, pretend = 0, frame = 8
 2215              		@ frame_needed = 1, uses_anonymous_args = 0
 2216 0000 80B5     		push	{r7, lr}
 2217              	.LCFI63:
 2218              		.cfi_def_cfa_offset 8
 2219              		.cfi_offset 7, -8
 2220              		.cfi_offset 14, -4
 2221 0002 82B0     		sub	sp, sp, #8
 2222              	.LCFI64:
 2223              		.cfi_def_cfa_offset 16
 2224 0004 00AF     		add	r7, sp, #0
 2225              	.LCFI65:
 2226              		.cfi_def_cfa_register 7
ARM GAS  C:\Users\dtjld\AppData\Local\Temp\cck1fUMg.s 			page 52


 2227 0006 7860     		str	r0, [r7, #4]
 641:C:/Users/dtjld/workspace/AIoT/src/LiteOS_Lab/iot_link/network/dtls/mbedtls/mbedtls-2.16.2/library\rsa.c ****     RSA_VALIDATE_RET( ctx != NULL );
 642:C:/Users/dtjld/workspace/AIoT/src/LiteOS_Lab/iot_link/network/dtls/mbedtls/mbedtls-2.16.2/library\rsa.c **** 
 643:C:/Users/dtjld/workspace/AIoT/src/LiteOS_Lab/iot_link/network/dtls/mbedtls/mbedtls-2.16.2/library\rsa.c ****     if( rsa_check_context( ctx, 0 /* public */, 0 /* no blinding */ ) != 0 )
 2228              		.loc 1 643 0
 2229 0008 0022     		movs	r2, #0
 2230 000a 0021     		movs	r1, #0
 2231 000c 7868     		ldr	r0, [r7, #4]
 2232 000e FFF7FEFF 		bl	rsa_check_context
 2233 0012 0346     		mov	r3, r0
 2234 0014 002B     		cmp	r3, #0
 2235 0016 01D0     		beq	.L162
 644:C:/Users/dtjld/workspace/AIoT/src/LiteOS_Lab/iot_link/network/dtls/mbedtls/mbedtls-2.16.2/library\rsa.c ****         return( MBEDTLS_ERR_RSA_KEY_CHECK_FAILED );
 2236              		.loc 1 644 0
 2237 0018 174B     		ldr	r3, .L167
 2238 001a 29E0     		b	.L163
 2239              	.L162:
 645:C:/Users/dtjld/workspace/AIoT/src/LiteOS_Lab/iot_link/network/dtls/mbedtls/mbedtls-2.16.2/library\rsa.c **** 
 646:C:/Users/dtjld/workspace/AIoT/src/LiteOS_Lab/iot_link/network/dtls/mbedtls/mbedtls-2.16.2/library\rsa.c ****     if( mbedtls_mpi_bitlen( &ctx->N ) < 128 )
 2240              		.loc 1 646 0
 2241 001c 7B68     		ldr	r3, [r7, #4]
 2242 001e 0833     		adds	r3, r3, #8
 2243 0020 1846     		mov	r0, r3
 2244 0022 FFF7FEFF 		bl	mbedtls_mpi_bitlen
 2245 0026 0346     		mov	r3, r0
 2246 0028 7F2B     		cmp	r3, #127
 2247 002a 01D8     		bhi	.L164
 647:C:/Users/dtjld/workspace/AIoT/src/LiteOS_Lab/iot_link/network/dtls/mbedtls/mbedtls-2.16.2/library\rsa.c ****     {
 648:C:/Users/dtjld/workspace/AIoT/src/LiteOS_Lab/iot_link/network/dtls/mbedtls/mbedtls-2.16.2/library\rsa.c ****         return( MBEDTLS_ERR_RSA_KEY_CHECK_FAILED );
 2248              		.loc 1 648 0
 2249 002c 124B     		ldr	r3, .L167
 2250 002e 1FE0     		b	.L163
 2251              	.L164:
 649:C:/Users/dtjld/workspace/AIoT/src/LiteOS_Lab/iot_link/network/dtls/mbedtls/mbedtls-2.16.2/library\rsa.c ****     }
 650:C:/Users/dtjld/workspace/AIoT/src/LiteOS_Lab/iot_link/network/dtls/mbedtls/mbedtls-2.16.2/library\rsa.c **** 
 651:C:/Users/dtjld/workspace/AIoT/src/LiteOS_Lab/iot_link/network/dtls/mbedtls/mbedtls-2.16.2/library\rsa.c ****     if( mbedtls_mpi_get_bit( &ctx->E, 0 ) == 0 ||
 2252              		.loc 1 651 0
 2253 0030 7B68     		ldr	r3, [r7, #4]
 2254 0032 1433     		adds	r3, r3, #20
 2255 0034 0021     		movs	r1, #0
 2256 0036 1846     		mov	r0, r3
 2257 0038 FFF7FEFF 		bl	mbedtls_mpi_get_bit
 2258 003c 0346     		mov	r3, r0
 2259 003e 002B     		cmp	r3, #0
 2260 0040 13D0     		beq	.L165
 652:C:/Users/dtjld/workspace/AIoT/src/LiteOS_Lab/iot_link/network/dtls/mbedtls/mbedtls-2.16.2/library\rsa.c ****         mbedtls_mpi_bitlen( &ctx->E )     < 2  ||
 2261              		.loc 1 652 0 discriminator 1
 2262 0042 7B68     		ldr	r3, [r7, #4]
 2263 0044 1433     		adds	r3, r3, #20
 2264 0046 1846     		mov	r0, r3
 2265 0048 FFF7FEFF 		bl	mbedtls_mpi_bitlen
 2266 004c 0346     		mov	r3, r0
 651:C:/Users/dtjld/workspace/AIoT/src/LiteOS_Lab/iot_link/network/dtls/mbedtls/mbedtls-2.16.2/library\rsa.c ****         mbedtls_mpi_bitlen( &ctx->E )     < 2  ||
 2267              		.loc 1 651 0 discriminator 1
 2268 004e 012B     		cmp	r3, #1
 2269 0050 0BD9     		bls	.L165
 653:C:/Users/dtjld/workspace/AIoT/src/LiteOS_Lab/iot_link/network/dtls/mbedtls/mbedtls-2.16.2/library\rsa.c ****         mbedtls_mpi_cmp_mpi( &ctx->E, &ctx->N ) >= 0 )
ARM GAS  C:\Users\dtjld\AppData\Local\Temp\cck1fUMg.s 			page 53


 2270              		.loc 1 653 0
 2271 0052 7B68     		ldr	r3, [r7, #4]
 2272 0054 03F11402 		add	r2, r3, #20
 2273 0058 7B68     		ldr	r3, [r7, #4]
 2274 005a 0833     		adds	r3, r3, #8
 2275 005c 1946     		mov	r1, r3
 2276 005e 1046     		mov	r0, r2
 2277 0060 FFF7FEFF 		bl	mbedtls_mpi_cmp_mpi
 2278 0064 0346     		mov	r3, r0
 652:C:/Users/dtjld/workspace/AIoT/src/LiteOS_Lab/iot_link/network/dtls/mbedtls/mbedtls-2.16.2/library\rsa.c ****         mbedtls_mpi_bitlen( &ctx->E )     < 2  ||
 2279              		.loc 1 652 0
 2280 0066 002B     		cmp	r3, #0
 2281 0068 01DB     		blt	.L166
 2282              	.L165:
 654:C:/Users/dtjld/workspace/AIoT/src/LiteOS_Lab/iot_link/network/dtls/mbedtls/mbedtls-2.16.2/library\rsa.c ****     {
 655:C:/Users/dtjld/workspace/AIoT/src/LiteOS_Lab/iot_link/network/dtls/mbedtls/mbedtls-2.16.2/library\rsa.c ****         return( MBEDTLS_ERR_RSA_KEY_CHECK_FAILED );
 2283              		.loc 1 655 0
 2284 006a 034B     		ldr	r3, .L167
 2285 006c 00E0     		b	.L163
 2286              	.L166:
 656:C:/Users/dtjld/workspace/AIoT/src/LiteOS_Lab/iot_link/network/dtls/mbedtls/mbedtls-2.16.2/library\rsa.c ****     }
 657:C:/Users/dtjld/workspace/AIoT/src/LiteOS_Lab/iot_link/network/dtls/mbedtls/mbedtls-2.16.2/library\rsa.c **** 
 658:C:/Users/dtjld/workspace/AIoT/src/LiteOS_Lab/iot_link/network/dtls/mbedtls/mbedtls-2.16.2/library\rsa.c ****     return( 0 );
 2287              		.loc 1 658 0
 2288 006e 0023     		movs	r3, #0
 2289              	.L163:
 659:C:/Users/dtjld/workspace/AIoT/src/LiteOS_Lab/iot_link/network/dtls/mbedtls/mbedtls-2.16.2/library\rsa.c **** }
 2290              		.loc 1 659 0
 2291 0070 1846     		mov	r0, r3
 2292 0072 0837     		adds	r7, r7, #8
 2293              	.LCFI66:
 2294              		.cfi_def_cfa_offset 8
 2295 0074 BD46     		mov	sp, r7
 2296              	.LCFI67:
 2297              		.cfi_def_cfa_register 13
 2298              		@ sp needed
 2299 0076 80BD     		pop	{r7, pc}
 2300              	.L168:
 2301              		.align	2
 2302              	.L167:
 2303 0078 00BEFFFF 		.word	-16896
 2304              		.cfi_endproc
 2305              	.LFE25:
 2307              		.section	.text.mbedtls_rsa_check_privkey,"ax",%progbits
 2308              		.align	1
 2309              		.global	mbedtls_rsa_check_privkey
 2310              		.syntax unified
 2311              		.thumb
 2312              		.thumb_func
 2313              		.fpu fpv4-sp-d16
 2315              	mbedtls_rsa_check_privkey:
 2316              	.LFB26:
 660:C:/Users/dtjld/workspace/AIoT/src/LiteOS_Lab/iot_link/network/dtls/mbedtls/mbedtls-2.16.2/library\rsa.c **** 
 661:C:/Users/dtjld/workspace/AIoT/src/LiteOS_Lab/iot_link/network/dtls/mbedtls/mbedtls-2.16.2/library\rsa.c **** /*
 662:C:/Users/dtjld/workspace/AIoT/src/LiteOS_Lab/iot_link/network/dtls/mbedtls/mbedtls-2.16.2/library\rsa.c ****  * Check for the consistency of all fields in an RSA private key context
 663:C:/Users/dtjld/workspace/AIoT/src/LiteOS_Lab/iot_link/network/dtls/mbedtls/mbedtls-2.16.2/library\rsa.c ****  */
 664:C:/Users/dtjld/workspace/AIoT/src/LiteOS_Lab/iot_link/network/dtls/mbedtls/mbedtls-2.16.2/library\rsa.c **** int mbedtls_rsa_check_privkey( const mbedtls_rsa_context *ctx )
ARM GAS  C:\Users\dtjld\AppData\Local\Temp\cck1fUMg.s 			page 54


 665:C:/Users/dtjld/workspace/AIoT/src/LiteOS_Lab/iot_link/network/dtls/mbedtls/mbedtls-2.16.2/library\rsa.c **** {
 2317              		.loc 1 665 0
 2318              		.cfi_startproc
 2319              		@ args = 0, pretend = 0, frame = 8
 2320              		@ frame_needed = 1, uses_anonymous_args = 0
 2321 0000 B0B5     		push	{r4, r5, r7, lr}
 2322              	.LCFI68:
 2323              		.cfi_def_cfa_offset 16
 2324              		.cfi_offset 4, -16
 2325              		.cfi_offset 5, -12
 2326              		.cfi_offset 7, -8
 2327              		.cfi_offset 14, -4
 2328 0002 86B0     		sub	sp, sp, #24
 2329              	.LCFI69:
 2330              		.cfi_def_cfa_offset 40
 2331 0004 04AF     		add	r7, sp, #16
 2332              	.LCFI70:
 2333              		.cfi_def_cfa 7, 24
 2334 0006 7860     		str	r0, [r7, #4]
 666:C:/Users/dtjld/workspace/AIoT/src/LiteOS_Lab/iot_link/network/dtls/mbedtls/mbedtls-2.16.2/library\rsa.c ****     RSA_VALIDATE_RET( ctx != NULL );
 667:C:/Users/dtjld/workspace/AIoT/src/LiteOS_Lab/iot_link/network/dtls/mbedtls/mbedtls-2.16.2/library\rsa.c **** 
 668:C:/Users/dtjld/workspace/AIoT/src/LiteOS_Lab/iot_link/network/dtls/mbedtls/mbedtls-2.16.2/library\rsa.c ****     if( mbedtls_rsa_check_pubkey( ctx ) != 0 ||
 2335              		.loc 1 668 0
 2336 0008 7868     		ldr	r0, [r7, #4]
 2337 000a FFF7FEFF 		bl	mbedtls_rsa_check_pubkey
 2338 000e 0346     		mov	r3, r0
 2339 0010 002B     		cmp	r3, #0
 2340 0012 07D1     		bne	.L170
 669:C:/Users/dtjld/workspace/AIoT/src/LiteOS_Lab/iot_link/network/dtls/mbedtls/mbedtls-2.16.2/library\rsa.c ****         rsa_check_context( ctx, 1 /* private */, 1 /* blinding */ ) != 0 )
 2341              		.loc 1 669 0 discriminator 1
 2342 0014 0122     		movs	r2, #1
 2343 0016 0121     		movs	r1, #1
 2344 0018 7868     		ldr	r0, [r7, #4]
 2345 001a FFF7FEFF 		bl	rsa_check_context
 2346 001e 0346     		mov	r3, r0
 668:C:/Users/dtjld/workspace/AIoT/src/LiteOS_Lab/iot_link/network/dtls/mbedtls/mbedtls-2.16.2/library\rsa.c ****         rsa_check_context( ctx, 1 /* private */, 1 /* blinding */ ) != 0 )
 2347              		.loc 1 668 0 discriminator 1
 2348 0020 002B     		cmp	r3, #0
 2349 0022 01D0     		beq	.L171
 2350              	.L170:
 670:C:/Users/dtjld/workspace/AIoT/src/LiteOS_Lab/iot_link/network/dtls/mbedtls/mbedtls-2.16.2/library\rsa.c ****     {
 671:C:/Users/dtjld/workspace/AIoT/src/LiteOS_Lab/iot_link/network/dtls/mbedtls/mbedtls-2.16.2/library\rsa.c ****         return( MBEDTLS_ERR_RSA_KEY_CHECK_FAILED );
 2351              		.loc 1 671 0
 2352 0024 1E4B     		ldr	r3, .L175
 2353 0026 37E0     		b	.L172
 2354              	.L171:
 672:C:/Users/dtjld/workspace/AIoT/src/LiteOS_Lab/iot_link/network/dtls/mbedtls/mbedtls-2.16.2/library\rsa.c ****     }
 673:C:/Users/dtjld/workspace/AIoT/src/LiteOS_Lab/iot_link/network/dtls/mbedtls/mbedtls-2.16.2/library\rsa.c **** 
 674:C:/Users/dtjld/workspace/AIoT/src/LiteOS_Lab/iot_link/network/dtls/mbedtls/mbedtls-2.16.2/library\rsa.c ****     if( mbedtls_rsa_validate_params( &ctx->N, &ctx->P, &ctx->Q,
 2355              		.loc 1 674 0
 2356 0028 7B68     		ldr	r3, [r7, #4]
 2357 002a 03F10800 		add	r0, r3, #8
 2358 002e 7B68     		ldr	r3, [r7, #4]
 2359 0030 03F12C01 		add	r1, r3, #44
 2360 0034 7B68     		ldr	r3, [r7, #4]
 2361 0036 03F13804 		add	r4, r3, #56
 2362 003a 7B68     		ldr	r3, [r7, #4]
ARM GAS  C:\Users\dtjld\AppData\Local\Temp\cck1fUMg.s 			page 55


 2363 003c 03F12005 		add	r5, r3, #32
 2364 0040 7B68     		ldr	r3, [r7, #4]
 2365 0042 1433     		adds	r3, r3, #20
 2366 0044 0022     		movs	r2, #0
 2367 0046 0292     		str	r2, [sp, #8]
 2368 0048 0022     		movs	r2, #0
 2369 004a 0192     		str	r2, [sp, #4]
 2370 004c 0093     		str	r3, [sp]
 2371 004e 2B46     		mov	r3, r5
 2372 0050 2246     		mov	r2, r4
 2373 0052 FFF7FEFF 		bl	mbedtls_rsa_validate_params
 2374 0056 0346     		mov	r3, r0
 2375 0058 002B     		cmp	r3, #0
 2376 005a 01D0     		beq	.L173
 675:C:/Users/dtjld/workspace/AIoT/src/LiteOS_Lab/iot_link/network/dtls/mbedtls/mbedtls-2.16.2/library\rsa.c ****                                      &ctx->D, &ctx->E, NULL, NULL ) != 0 )
 676:C:/Users/dtjld/workspace/AIoT/src/LiteOS_Lab/iot_link/network/dtls/mbedtls/mbedtls-2.16.2/library\rsa.c ****     {
 677:C:/Users/dtjld/workspace/AIoT/src/LiteOS_Lab/iot_link/network/dtls/mbedtls/mbedtls-2.16.2/library\rsa.c ****         return( MBEDTLS_ERR_RSA_KEY_CHECK_FAILED );
 2377              		.loc 1 677 0
 2378 005c 104B     		ldr	r3, .L175
 2379 005e 1BE0     		b	.L172
 2380              	.L173:
 678:C:/Users/dtjld/workspace/AIoT/src/LiteOS_Lab/iot_link/network/dtls/mbedtls/mbedtls-2.16.2/library\rsa.c ****     }
 679:C:/Users/dtjld/workspace/AIoT/src/LiteOS_Lab/iot_link/network/dtls/mbedtls/mbedtls-2.16.2/library\rsa.c **** 
 680:C:/Users/dtjld/workspace/AIoT/src/LiteOS_Lab/iot_link/network/dtls/mbedtls/mbedtls-2.16.2/library\rsa.c **** #if !defined(MBEDTLS_RSA_NO_CRT)
 681:C:/Users/dtjld/workspace/AIoT/src/LiteOS_Lab/iot_link/network/dtls/mbedtls/mbedtls-2.16.2/library\rsa.c ****     else if( mbedtls_rsa_validate_crt( &ctx->P, &ctx->Q, &ctx->D,
 2381              		.loc 1 681 0
 2382 0060 7B68     		ldr	r3, [r7, #4]
 2383 0062 03F12C00 		add	r0, r3, #44
 2384 0066 7B68     		ldr	r3, [r7, #4]
 2385 0068 03F13801 		add	r1, r3, #56
 2386 006c 7B68     		ldr	r3, [r7, #4]
 2387 006e 03F12004 		add	r4, r3, #32
 2388 0072 7B68     		ldr	r3, [r7, #4]
 2389 0074 03F14405 		add	r5, r3, #68
 2390 0078 7B68     		ldr	r3, [r7, #4]
 2391 007a 5033     		adds	r3, r3, #80
 2392 007c 7A68     		ldr	r2, [r7, #4]
 2393 007e 5C32     		adds	r2, r2, #92
 2394 0080 0192     		str	r2, [sp, #4]
 2395 0082 0093     		str	r3, [sp]
 2396 0084 2B46     		mov	r3, r5
 2397 0086 2246     		mov	r2, r4
 2398 0088 FFF7FEFF 		bl	mbedtls_rsa_validate_crt
 2399 008c 0346     		mov	r3, r0
 2400 008e 002B     		cmp	r3, #0
 2401 0090 01D0     		beq	.L174
 682:C:/Users/dtjld/workspace/AIoT/src/LiteOS_Lab/iot_link/network/dtls/mbedtls/mbedtls-2.16.2/library\rsa.c ****                                        &ctx->DP, &ctx->DQ, &ctx->QP ) != 0 )
 683:C:/Users/dtjld/workspace/AIoT/src/LiteOS_Lab/iot_link/network/dtls/mbedtls/mbedtls-2.16.2/library\rsa.c ****     {
 684:C:/Users/dtjld/workspace/AIoT/src/LiteOS_Lab/iot_link/network/dtls/mbedtls/mbedtls-2.16.2/library\rsa.c ****         return( MBEDTLS_ERR_RSA_KEY_CHECK_FAILED );
 2402              		.loc 1 684 0
 2403 0092 034B     		ldr	r3, .L175
 2404 0094 00E0     		b	.L172
 2405              	.L174:
 685:C:/Users/dtjld/workspace/AIoT/src/LiteOS_Lab/iot_link/network/dtls/mbedtls/mbedtls-2.16.2/library\rsa.c ****     }
 686:C:/Users/dtjld/workspace/AIoT/src/LiteOS_Lab/iot_link/network/dtls/mbedtls/mbedtls-2.16.2/library\rsa.c **** #endif
 687:C:/Users/dtjld/workspace/AIoT/src/LiteOS_Lab/iot_link/network/dtls/mbedtls/mbedtls-2.16.2/library\rsa.c **** 
 688:C:/Users/dtjld/workspace/AIoT/src/LiteOS_Lab/iot_link/network/dtls/mbedtls/mbedtls-2.16.2/library\rsa.c ****     return( 0 );
ARM GAS  C:\Users\dtjld\AppData\Local\Temp\cck1fUMg.s 			page 56


 2406              		.loc 1 688 0
 2407 0096 0023     		movs	r3, #0
 2408              	.L172:
 689:C:/Users/dtjld/workspace/AIoT/src/LiteOS_Lab/iot_link/network/dtls/mbedtls/mbedtls-2.16.2/library\rsa.c **** }
 2409              		.loc 1 689 0
 2410 0098 1846     		mov	r0, r3
 2411 009a 0837     		adds	r7, r7, #8
 2412              	.LCFI71:
 2413              		.cfi_def_cfa_offset 16
 2414 009c BD46     		mov	sp, r7
 2415              	.LCFI72:
 2416              		.cfi_def_cfa_register 13
 2417              		@ sp needed
 2418 009e B0BD     		pop	{r4, r5, r7, pc}
 2419              	.L176:
 2420              		.align	2
 2421              	.L175:
 2422 00a0 00BEFFFF 		.word	-16896
 2423              		.cfi_endproc
 2424              	.LFE26:
 2426              		.section	.text.mbedtls_rsa_check_pub_priv,"ax",%progbits
 2427              		.align	1
 2428              		.global	mbedtls_rsa_check_pub_priv
 2429              		.syntax unified
 2430              		.thumb
 2431              		.thumb_func
 2432              		.fpu fpv4-sp-d16
 2434              	mbedtls_rsa_check_pub_priv:
 2435              	.LFB27:
 690:C:/Users/dtjld/workspace/AIoT/src/LiteOS_Lab/iot_link/network/dtls/mbedtls/mbedtls-2.16.2/library\rsa.c **** 
 691:C:/Users/dtjld/workspace/AIoT/src/LiteOS_Lab/iot_link/network/dtls/mbedtls/mbedtls-2.16.2/library\rsa.c **** /*
 692:C:/Users/dtjld/workspace/AIoT/src/LiteOS_Lab/iot_link/network/dtls/mbedtls/mbedtls-2.16.2/library\rsa.c ****  * Check if contexts holding a public and private key match
 693:C:/Users/dtjld/workspace/AIoT/src/LiteOS_Lab/iot_link/network/dtls/mbedtls/mbedtls-2.16.2/library\rsa.c ****  */
 694:C:/Users/dtjld/workspace/AIoT/src/LiteOS_Lab/iot_link/network/dtls/mbedtls/mbedtls-2.16.2/library\rsa.c **** int mbedtls_rsa_check_pub_priv( const mbedtls_rsa_context *pub,
 695:C:/Users/dtjld/workspace/AIoT/src/LiteOS_Lab/iot_link/network/dtls/mbedtls/mbedtls-2.16.2/library\rsa.c ****                                 const mbedtls_rsa_context *prv )
 696:C:/Users/dtjld/workspace/AIoT/src/LiteOS_Lab/iot_link/network/dtls/mbedtls/mbedtls-2.16.2/library\rsa.c **** {
 2436              		.loc 1 696 0
 2437              		.cfi_startproc
 2438              		@ args = 0, pretend = 0, frame = 8
 2439              		@ frame_needed = 1, uses_anonymous_args = 0
 2440 0000 80B5     		push	{r7, lr}
 2441              	.LCFI73:
 2442              		.cfi_def_cfa_offset 8
 2443              		.cfi_offset 7, -8
 2444              		.cfi_offset 14, -4
 2445 0002 82B0     		sub	sp, sp, #8
 2446              	.LCFI74:
 2447              		.cfi_def_cfa_offset 16
 2448 0004 00AF     		add	r7, sp, #0
 2449              	.LCFI75:
 2450              		.cfi_def_cfa_register 7
 2451 0006 7860     		str	r0, [r7, #4]
 2452 0008 3960     		str	r1, [r7]
 697:C:/Users/dtjld/workspace/AIoT/src/LiteOS_Lab/iot_link/network/dtls/mbedtls/mbedtls-2.16.2/library\rsa.c ****     RSA_VALIDATE_RET( pub != NULL );
 698:C:/Users/dtjld/workspace/AIoT/src/LiteOS_Lab/iot_link/network/dtls/mbedtls/mbedtls-2.16.2/library\rsa.c ****     RSA_VALIDATE_RET( prv != NULL );
 699:C:/Users/dtjld/workspace/AIoT/src/LiteOS_Lab/iot_link/network/dtls/mbedtls/mbedtls-2.16.2/library\rsa.c **** 
 700:C:/Users/dtjld/workspace/AIoT/src/LiteOS_Lab/iot_link/network/dtls/mbedtls/mbedtls-2.16.2/library\rsa.c ****     if( mbedtls_rsa_check_pubkey( pub )  != 0 ||
ARM GAS  C:\Users\dtjld\AppData\Local\Temp\cck1fUMg.s 			page 57


 2453              		.loc 1 700 0
 2454 000a 7868     		ldr	r0, [r7, #4]
 2455 000c FFF7FEFF 		bl	mbedtls_rsa_check_pubkey
 2456 0010 0346     		mov	r3, r0
 2457 0012 002B     		cmp	r3, #0
 2458 0014 05D1     		bne	.L178
 701:C:/Users/dtjld/workspace/AIoT/src/LiteOS_Lab/iot_link/network/dtls/mbedtls/mbedtls-2.16.2/library\rsa.c ****         mbedtls_rsa_check_privkey( prv ) != 0 )
 2459              		.loc 1 701 0 discriminator 1
 2460 0016 3868     		ldr	r0, [r7]
 2461 0018 FFF7FEFF 		bl	mbedtls_rsa_check_privkey
 2462 001c 0346     		mov	r3, r0
 700:C:/Users/dtjld/workspace/AIoT/src/LiteOS_Lab/iot_link/network/dtls/mbedtls/mbedtls-2.16.2/library\rsa.c ****         mbedtls_rsa_check_privkey( prv ) != 0 )
 2463              		.loc 1 700 0 discriminator 1
 2464 001e 002B     		cmp	r3, #0
 2465 0020 01D0     		beq	.L179
 2466              	.L178:
 702:C:/Users/dtjld/workspace/AIoT/src/LiteOS_Lab/iot_link/network/dtls/mbedtls/mbedtls-2.16.2/library\rsa.c ****     {
 703:C:/Users/dtjld/workspace/AIoT/src/LiteOS_Lab/iot_link/network/dtls/mbedtls/mbedtls-2.16.2/library\rsa.c ****         return( MBEDTLS_ERR_RSA_KEY_CHECK_FAILED );
 2467              		.loc 1 703 0
 2468 0022 104B     		ldr	r3, .L183
 2469 0024 1AE0     		b	.L180
 2470              	.L179:
 704:C:/Users/dtjld/workspace/AIoT/src/LiteOS_Lab/iot_link/network/dtls/mbedtls/mbedtls-2.16.2/library\rsa.c ****     }
 705:C:/Users/dtjld/workspace/AIoT/src/LiteOS_Lab/iot_link/network/dtls/mbedtls/mbedtls-2.16.2/library\rsa.c **** 
 706:C:/Users/dtjld/workspace/AIoT/src/LiteOS_Lab/iot_link/network/dtls/mbedtls/mbedtls-2.16.2/library\rsa.c ****     if( mbedtls_mpi_cmp_mpi( &pub->N, &prv->N ) != 0 ||
 2471              		.loc 1 706 0
 2472 0026 7B68     		ldr	r3, [r7, #4]
 2473 0028 03F10802 		add	r2, r3, #8
 2474 002c 3B68     		ldr	r3, [r7]
 2475 002e 0833     		adds	r3, r3, #8
 2476 0030 1946     		mov	r1, r3
 2477 0032 1046     		mov	r0, r2
 2478 0034 FFF7FEFF 		bl	mbedtls_mpi_cmp_mpi
 2479 0038 0346     		mov	r3, r0
 2480 003a 002B     		cmp	r3, #0
 2481 003c 0BD1     		bne	.L181
 707:C:/Users/dtjld/workspace/AIoT/src/LiteOS_Lab/iot_link/network/dtls/mbedtls/mbedtls-2.16.2/library\rsa.c ****         mbedtls_mpi_cmp_mpi( &pub->E, &prv->E ) != 0 )
 2482              		.loc 1 707 0 discriminator 1
 2483 003e 7B68     		ldr	r3, [r7, #4]
 2484 0040 03F11402 		add	r2, r3, #20
 2485 0044 3B68     		ldr	r3, [r7]
 2486 0046 1433     		adds	r3, r3, #20
 2487 0048 1946     		mov	r1, r3
 2488 004a 1046     		mov	r0, r2
 2489 004c FFF7FEFF 		bl	mbedtls_mpi_cmp_mpi
 2490 0050 0346     		mov	r3, r0
 706:C:/Users/dtjld/workspace/AIoT/src/LiteOS_Lab/iot_link/network/dtls/mbedtls/mbedtls-2.16.2/library\rsa.c ****         mbedtls_mpi_cmp_mpi( &pub->E, &prv->E ) != 0 )
 2491              		.loc 1 706 0 discriminator 1
 2492 0052 002B     		cmp	r3, #0
 2493 0054 01D0     		beq	.L182
 2494              	.L181:
 708:C:/Users/dtjld/workspace/AIoT/src/LiteOS_Lab/iot_link/network/dtls/mbedtls/mbedtls-2.16.2/library\rsa.c ****     {
 709:C:/Users/dtjld/workspace/AIoT/src/LiteOS_Lab/iot_link/network/dtls/mbedtls/mbedtls-2.16.2/library\rsa.c ****         return( MBEDTLS_ERR_RSA_KEY_CHECK_FAILED );
 2495              		.loc 1 709 0
 2496 0056 034B     		ldr	r3, .L183
 2497 0058 00E0     		b	.L180
 2498              	.L182:
ARM GAS  C:\Users\dtjld\AppData\Local\Temp\cck1fUMg.s 			page 58


 710:C:/Users/dtjld/workspace/AIoT/src/LiteOS_Lab/iot_link/network/dtls/mbedtls/mbedtls-2.16.2/library\rsa.c ****     }
 711:C:/Users/dtjld/workspace/AIoT/src/LiteOS_Lab/iot_link/network/dtls/mbedtls/mbedtls-2.16.2/library\rsa.c **** 
 712:C:/Users/dtjld/workspace/AIoT/src/LiteOS_Lab/iot_link/network/dtls/mbedtls/mbedtls-2.16.2/library\rsa.c ****     return( 0 );
 2499              		.loc 1 712 0
 2500 005a 0023     		movs	r3, #0
 2501              	.L180:
 713:C:/Users/dtjld/workspace/AIoT/src/LiteOS_Lab/iot_link/network/dtls/mbedtls/mbedtls-2.16.2/library\rsa.c **** }
 2502              		.loc 1 713 0
 2503 005c 1846     		mov	r0, r3
 2504 005e 0837     		adds	r7, r7, #8
 2505              	.LCFI76:
 2506              		.cfi_def_cfa_offset 8
 2507 0060 BD46     		mov	sp, r7
 2508              	.LCFI77:
 2509              		.cfi_def_cfa_register 13
 2510              		@ sp needed
 2511 0062 80BD     		pop	{r7, pc}
 2512              	.L184:
 2513              		.align	2
 2514              	.L183:
 2515 0064 00BEFFFF 		.word	-16896
 2516              		.cfi_endproc
 2517              	.LFE27:
 2519              		.section	.text.mbedtls_rsa_public,"ax",%progbits
 2520              		.align	1
 2521              		.global	mbedtls_rsa_public
 2522              		.syntax unified
 2523              		.thumb
 2524              		.thumb_func
 2525              		.fpu fpv4-sp-d16
 2527              	mbedtls_rsa_public:
 2528              	.LFB28:
 714:C:/Users/dtjld/workspace/AIoT/src/LiteOS_Lab/iot_link/network/dtls/mbedtls/mbedtls-2.16.2/library\rsa.c **** 
 715:C:/Users/dtjld/workspace/AIoT/src/LiteOS_Lab/iot_link/network/dtls/mbedtls/mbedtls-2.16.2/library\rsa.c **** /*
 716:C:/Users/dtjld/workspace/AIoT/src/LiteOS_Lab/iot_link/network/dtls/mbedtls/mbedtls-2.16.2/library\rsa.c ****  * Do an RSA public key operation
 717:C:/Users/dtjld/workspace/AIoT/src/LiteOS_Lab/iot_link/network/dtls/mbedtls/mbedtls-2.16.2/library\rsa.c ****  */
 718:C:/Users/dtjld/workspace/AIoT/src/LiteOS_Lab/iot_link/network/dtls/mbedtls/mbedtls-2.16.2/library\rsa.c **** int mbedtls_rsa_public( mbedtls_rsa_context *ctx,
 719:C:/Users/dtjld/workspace/AIoT/src/LiteOS_Lab/iot_link/network/dtls/mbedtls/mbedtls-2.16.2/library\rsa.c ****                 const unsigned char *input,
 720:C:/Users/dtjld/workspace/AIoT/src/LiteOS_Lab/iot_link/network/dtls/mbedtls/mbedtls-2.16.2/library\rsa.c ****                 unsigned char *output )
 721:C:/Users/dtjld/workspace/AIoT/src/LiteOS_Lab/iot_link/network/dtls/mbedtls/mbedtls-2.16.2/library\rsa.c **** {
 2529              		.loc 1 721 0
 2530              		.cfi_startproc
 2531              		@ args = 0, pretend = 0, frame = 40
 2532              		@ frame_needed = 1, uses_anonymous_args = 0
 2533 0000 90B5     		push	{r4, r7, lr}
 2534              	.LCFI78:
 2535              		.cfi_def_cfa_offset 12
 2536              		.cfi_offset 4, -12
 2537              		.cfi_offset 7, -8
 2538              		.cfi_offset 14, -4
 2539 0002 8DB0     		sub	sp, sp, #52
 2540              	.LCFI79:
 2541              		.cfi_def_cfa_offset 64
 2542 0004 02AF     		add	r7, sp, #8
 2543              	.LCFI80:
 2544              		.cfi_def_cfa 7, 56
 2545 0006 F860     		str	r0, [r7, #12]
ARM GAS  C:\Users\dtjld\AppData\Local\Temp\cck1fUMg.s 			page 59


 2546 0008 B960     		str	r1, [r7, #8]
 2547 000a 7A60     		str	r2, [r7, #4]
 722:C:/Users/dtjld/workspace/AIoT/src/LiteOS_Lab/iot_link/network/dtls/mbedtls/mbedtls-2.16.2/library\rsa.c ****     int ret;
 723:C:/Users/dtjld/workspace/AIoT/src/LiteOS_Lab/iot_link/network/dtls/mbedtls/mbedtls-2.16.2/library\rsa.c ****     size_t olen;
 724:C:/Users/dtjld/workspace/AIoT/src/LiteOS_Lab/iot_link/network/dtls/mbedtls/mbedtls-2.16.2/library\rsa.c ****     mbedtls_mpi T;
 725:C:/Users/dtjld/workspace/AIoT/src/LiteOS_Lab/iot_link/network/dtls/mbedtls/mbedtls-2.16.2/library\rsa.c ****     RSA_VALIDATE_RET( ctx != NULL );
 726:C:/Users/dtjld/workspace/AIoT/src/LiteOS_Lab/iot_link/network/dtls/mbedtls/mbedtls-2.16.2/library\rsa.c ****     RSA_VALIDATE_RET( input != NULL );
 727:C:/Users/dtjld/workspace/AIoT/src/LiteOS_Lab/iot_link/network/dtls/mbedtls/mbedtls-2.16.2/library\rsa.c ****     RSA_VALIDATE_RET( output != NULL );
 728:C:/Users/dtjld/workspace/AIoT/src/LiteOS_Lab/iot_link/network/dtls/mbedtls/mbedtls-2.16.2/library\rsa.c **** 
 729:C:/Users/dtjld/workspace/AIoT/src/LiteOS_Lab/iot_link/network/dtls/mbedtls/mbedtls-2.16.2/library\rsa.c ****     if( rsa_check_context( ctx, 0 /* public */, 0 /* no blinding */ ) )
 2548              		.loc 1 729 0
 2549 000c 0022     		movs	r2, #0
 2550 000e 0021     		movs	r1, #0
 2551 0010 F868     		ldr	r0, [r7, #12]
 2552 0012 FFF7FEFF 		bl	rsa_check_context
 2553 0016 0346     		mov	r3, r0
 2554 0018 002B     		cmp	r3, #0
 2555 001a 01D0     		beq	.L186
 730:C:/Users/dtjld/workspace/AIoT/src/LiteOS_Lab/iot_link/network/dtls/mbedtls/mbedtls-2.16.2/library\rsa.c ****         return( MBEDTLS_ERR_RSA_BAD_INPUT_DATA );
 2556              		.loc 1 730 0
 2557 001c 2C4B     		ldr	r3, .L196
 2558 001e 52E0     		b	.L193
 2559              	.L186:
 731:C:/Users/dtjld/workspace/AIoT/src/LiteOS_Lab/iot_link/network/dtls/mbedtls/mbedtls-2.16.2/library\rsa.c **** 
 732:C:/Users/dtjld/workspace/AIoT/src/LiteOS_Lab/iot_link/network/dtls/mbedtls/mbedtls-2.16.2/library\rsa.c ****     mbedtls_mpi_init( &T );
 2560              		.loc 1 732 0
 2561 0020 07F11403 		add	r3, r7, #20
 2562 0024 1846     		mov	r0, r3
 2563 0026 FFF7FEFF 		bl	mbedtls_mpi_init
 733:C:/Users/dtjld/workspace/AIoT/src/LiteOS_Lab/iot_link/network/dtls/mbedtls/mbedtls-2.16.2/library\rsa.c **** 
 734:C:/Users/dtjld/workspace/AIoT/src/LiteOS_Lab/iot_link/network/dtls/mbedtls/mbedtls-2.16.2/library\rsa.c **** #if defined(MBEDTLS_THREADING_C)
 735:C:/Users/dtjld/workspace/AIoT/src/LiteOS_Lab/iot_link/network/dtls/mbedtls/mbedtls-2.16.2/library\rsa.c ****     if( ( ret = mbedtls_mutex_lock( &ctx->mutex ) ) != 0 )
 736:C:/Users/dtjld/workspace/AIoT/src/LiteOS_Lab/iot_link/network/dtls/mbedtls/mbedtls-2.16.2/library\rsa.c ****         return( ret );
 737:C:/Users/dtjld/workspace/AIoT/src/LiteOS_Lab/iot_link/network/dtls/mbedtls/mbedtls-2.16.2/library\rsa.c **** #endif
 738:C:/Users/dtjld/workspace/AIoT/src/LiteOS_Lab/iot_link/network/dtls/mbedtls/mbedtls-2.16.2/library\rsa.c **** 
 739:C:/Users/dtjld/workspace/AIoT/src/LiteOS_Lab/iot_link/network/dtls/mbedtls/mbedtls-2.16.2/library\rsa.c ****     MBEDTLS_MPI_CHK( mbedtls_mpi_read_binary( &T, input, ctx->len ) );
 2564              		.loc 1 739 0
 2565 002a FB68     		ldr	r3, [r7, #12]
 2566 002c 5A68     		ldr	r2, [r3, #4]
 2567 002e 07F11403 		add	r3, r7, #20
 2568 0032 B968     		ldr	r1, [r7, #8]
 2569 0034 1846     		mov	r0, r3
 2570 0036 FFF7FEFF 		bl	mbedtls_mpi_read_binary
 2571 003a 7862     		str	r0, [r7, #36]
 2572 003c 7B6A     		ldr	r3, [r7, #36]
 2573 003e 002B     		cmp	r3, #0
 2574 0040 31D1     		bne	.L194
 740:C:/Users/dtjld/workspace/AIoT/src/LiteOS_Lab/iot_link/network/dtls/mbedtls/mbedtls-2.16.2/library\rsa.c **** 
 741:C:/Users/dtjld/workspace/AIoT/src/LiteOS_Lab/iot_link/network/dtls/mbedtls/mbedtls-2.16.2/library\rsa.c ****     if( mbedtls_mpi_cmp_mpi( &T, &ctx->N ) >= 0 )
 2575              		.loc 1 741 0
 2576 0042 FB68     		ldr	r3, [r7, #12]
 2577 0044 03F10802 		add	r2, r3, #8
 2578 0048 07F11403 		add	r3, r7, #20
 2579 004c 1146     		mov	r1, r2
 2580 004e 1846     		mov	r0, r3
 2581 0050 FFF7FEFF 		bl	mbedtls_mpi_cmp_mpi
 2582 0054 0346     		mov	r3, r0
ARM GAS  C:\Users\dtjld\AppData\Local\Temp\cck1fUMg.s 			page 60


 2583 0056 002B     		cmp	r3, #0
 2584 0058 03DB     		blt	.L190
 742:C:/Users/dtjld/workspace/AIoT/src/LiteOS_Lab/iot_link/network/dtls/mbedtls/mbedtls-2.16.2/library\rsa.c ****     {
 743:C:/Users/dtjld/workspace/AIoT/src/LiteOS_Lab/iot_link/network/dtls/mbedtls/mbedtls-2.16.2/library\rsa.c ****         ret = MBEDTLS_ERR_MPI_BAD_INPUT_DATA;
 2585              		.loc 1 743 0
 2586 005a 6FF00303 		mvn	r3, #3
 2587 005e 7B62     		str	r3, [r7, #36]
 744:C:/Users/dtjld/workspace/AIoT/src/LiteOS_Lab/iot_link/network/dtls/mbedtls/mbedtls-2.16.2/library\rsa.c ****         goto cleanup;
 2588              		.loc 1 744 0
 2589 0060 24E0     		b	.L189
 2590              	.L190:
 745:C:/Users/dtjld/workspace/AIoT/src/LiteOS_Lab/iot_link/network/dtls/mbedtls/mbedtls-2.16.2/library\rsa.c ****     }
 746:C:/Users/dtjld/workspace/AIoT/src/LiteOS_Lab/iot_link/network/dtls/mbedtls/mbedtls-2.16.2/library\rsa.c **** 
 747:C:/Users/dtjld/workspace/AIoT/src/LiteOS_Lab/iot_link/network/dtls/mbedtls/mbedtls-2.16.2/library\rsa.c ****     olen = ctx->len;
 2591              		.loc 1 747 0
 2592 0062 FB68     		ldr	r3, [r7, #12]
 2593 0064 5B68     		ldr	r3, [r3, #4]
 2594 0066 3B62     		str	r3, [r7, #32]
 748:C:/Users/dtjld/workspace/AIoT/src/LiteOS_Lab/iot_link/network/dtls/mbedtls/mbedtls-2.16.2/library\rsa.c ****     MBEDTLS_MPI_CHK( mbedtls_mpi_exp_mod( &T, &T, &ctx->E, &ctx->N, &ctx->RN ) );
 2595              		.loc 1 748 0
 2596 0068 FB68     		ldr	r3, [r7, #12]
 2597 006a 03F11402 		add	r2, r3, #20
 2598 006e FB68     		ldr	r3, [r7, #12]
 2599 0070 03F10804 		add	r4, r3, #8
 2600 0074 FB68     		ldr	r3, [r7, #12]
 2601 0076 6833     		adds	r3, r3, #104
 2602 0078 07F11401 		add	r1, r7, #20
 2603 007c 07F11400 		add	r0, r7, #20
 2604 0080 0093     		str	r3, [sp]
 2605 0082 2346     		mov	r3, r4
 2606 0084 FFF7FEFF 		bl	mbedtls_mpi_exp_mod
 2607 0088 7862     		str	r0, [r7, #36]
 2608 008a 7B6A     		ldr	r3, [r7, #36]
 2609 008c 002B     		cmp	r3, #0
 2610 008e 0CD1     		bne	.L195
 749:C:/Users/dtjld/workspace/AIoT/src/LiteOS_Lab/iot_link/network/dtls/mbedtls/mbedtls-2.16.2/library\rsa.c ****     MBEDTLS_MPI_CHK( mbedtls_mpi_write_binary( &T, output, olen ) );
 2611              		.loc 1 749 0
 2612 0090 07F11403 		add	r3, r7, #20
 2613 0094 3A6A     		ldr	r2, [r7, #32]
 2614 0096 7968     		ldr	r1, [r7, #4]
 2615 0098 1846     		mov	r0, r3
 2616 009a FFF7FEFF 		bl	mbedtls_mpi_write_binary
 2617 009e 7862     		str	r0, [r7, #36]
 2618 00a0 7B6A     		ldr	r3, [r7, #36]
 2619 00a2 002B     		cmp	r3, #0
 750:C:/Users/dtjld/workspace/AIoT/src/LiteOS_Lab/iot_link/network/dtls/mbedtls/mbedtls-2.16.2/library\rsa.c **** 
 751:C:/Users/dtjld/workspace/AIoT/src/LiteOS_Lab/iot_link/network/dtls/mbedtls/mbedtls-2.16.2/library\rsa.c **** cleanup:
 2620              		.loc 1 751 0
 2621 00a4 02E0     		b	.L189
 2622              	.L194:
 739:C:/Users/dtjld/workspace/AIoT/src/LiteOS_Lab/iot_link/network/dtls/mbedtls/mbedtls-2.16.2/library\rsa.c **** 
 2623              		.loc 1 739 0
 2624 00a6 00BF     		nop
 2625 00a8 00E0     		b	.L189
 2626              	.L195:
 748:C:/Users/dtjld/workspace/AIoT/src/LiteOS_Lab/iot_link/network/dtls/mbedtls/mbedtls-2.16.2/library\rsa.c ****     MBEDTLS_MPI_CHK( mbedtls_mpi_write_binary( &T, output, olen ) );
 2627              		.loc 1 748 0
ARM GAS  C:\Users\dtjld\AppData\Local\Temp\cck1fUMg.s 			page 61


 2628 00aa 00BF     		nop
 2629              	.L189:
 752:C:/Users/dtjld/workspace/AIoT/src/LiteOS_Lab/iot_link/network/dtls/mbedtls/mbedtls-2.16.2/library\rsa.c **** #if defined(MBEDTLS_THREADING_C)
 753:C:/Users/dtjld/workspace/AIoT/src/LiteOS_Lab/iot_link/network/dtls/mbedtls/mbedtls-2.16.2/library\rsa.c ****     if( mbedtls_mutex_unlock( &ctx->mutex ) != 0 )
 754:C:/Users/dtjld/workspace/AIoT/src/LiteOS_Lab/iot_link/network/dtls/mbedtls/mbedtls-2.16.2/library\rsa.c ****         return( MBEDTLS_ERR_THREADING_MUTEX_ERROR );
 755:C:/Users/dtjld/workspace/AIoT/src/LiteOS_Lab/iot_link/network/dtls/mbedtls/mbedtls-2.16.2/library\rsa.c **** #endif
 756:C:/Users/dtjld/workspace/AIoT/src/LiteOS_Lab/iot_link/network/dtls/mbedtls/mbedtls-2.16.2/library\rsa.c **** 
 757:C:/Users/dtjld/workspace/AIoT/src/LiteOS_Lab/iot_link/network/dtls/mbedtls/mbedtls-2.16.2/library\rsa.c ****     mbedtls_mpi_free( &T );
 2630              		.loc 1 757 0
 2631 00ac 07F11403 		add	r3, r7, #20
 2632 00b0 1846     		mov	r0, r3
 2633 00b2 FFF7FEFF 		bl	mbedtls_mpi_free
 758:C:/Users/dtjld/workspace/AIoT/src/LiteOS_Lab/iot_link/network/dtls/mbedtls/mbedtls-2.16.2/library\rsa.c **** 
 759:C:/Users/dtjld/workspace/AIoT/src/LiteOS_Lab/iot_link/network/dtls/mbedtls/mbedtls-2.16.2/library\rsa.c ****     if( ret != 0 )
 2634              		.loc 1 759 0
 2635 00b6 7B6A     		ldr	r3, [r7, #36]
 2636 00b8 002B     		cmp	r3, #0
 2637 00ba 03D0     		beq	.L192
 760:C:/Users/dtjld/workspace/AIoT/src/LiteOS_Lab/iot_link/network/dtls/mbedtls/mbedtls-2.16.2/library\rsa.c ****         return( MBEDTLS_ERR_RSA_PUBLIC_FAILED + ret );
 2638              		.loc 1 760 0
 2639 00bc 7B6A     		ldr	r3, [r7, #36]
 2640 00be A3F58543 		sub	r3, r3, #17024
 2641 00c2 00E0     		b	.L193
 2642              	.L192:
 761:C:/Users/dtjld/workspace/AIoT/src/LiteOS_Lab/iot_link/network/dtls/mbedtls/mbedtls-2.16.2/library\rsa.c **** 
 762:C:/Users/dtjld/workspace/AIoT/src/LiteOS_Lab/iot_link/network/dtls/mbedtls/mbedtls-2.16.2/library\rsa.c ****     return( 0 );
 2643              		.loc 1 762 0
 2644 00c4 0023     		movs	r3, #0
 2645              	.L193:
 763:C:/Users/dtjld/workspace/AIoT/src/LiteOS_Lab/iot_link/network/dtls/mbedtls/mbedtls-2.16.2/library\rsa.c **** }
 2646              		.loc 1 763 0 discriminator 1
 2647 00c6 1846     		mov	r0, r3
 2648 00c8 2C37     		adds	r7, r7, #44
 2649              	.LCFI81:
 2650              		.cfi_def_cfa_offset 12
 2651 00ca BD46     		mov	sp, r7
 2652              	.LCFI82:
 2653              		.cfi_def_cfa_register 13
 2654              		@ sp needed
 2655 00cc 90BD     		pop	{r4, r7, pc}
 2656              	.L197:
 2657 00ce 00BF     		.align	2
 2658              	.L196:
 2659 00d0 80BFFFFF 		.word	-16512
 2660              		.cfi_endproc
 2661              	.LFE28:
 2663              		.section	.text.rsa_prepare_blinding,"ax",%progbits
 2664              		.align	1
 2665              		.syntax unified
 2666              		.thumb
 2667              		.thumb_func
 2668              		.fpu fpv4-sp-d16
 2670              	rsa_prepare_blinding:
 2671              	.LFB29:
 764:C:/Users/dtjld/workspace/AIoT/src/LiteOS_Lab/iot_link/network/dtls/mbedtls/mbedtls-2.16.2/library\rsa.c **** 
 765:C:/Users/dtjld/workspace/AIoT/src/LiteOS_Lab/iot_link/network/dtls/mbedtls/mbedtls-2.16.2/library\rsa.c **** /*
 766:C:/Users/dtjld/workspace/AIoT/src/LiteOS_Lab/iot_link/network/dtls/mbedtls/mbedtls-2.16.2/library\rsa.c ****  * Generate or update blinding values, see section 10 of:
ARM GAS  C:\Users\dtjld\AppData\Local\Temp\cck1fUMg.s 			page 62


 767:C:/Users/dtjld/workspace/AIoT/src/LiteOS_Lab/iot_link/network/dtls/mbedtls/mbedtls-2.16.2/library\rsa.c ****  *  KOCHER, Paul C. Timing attacks on implementations of Diffie-Hellman, RSA,
 768:C:/Users/dtjld/workspace/AIoT/src/LiteOS_Lab/iot_link/network/dtls/mbedtls/mbedtls-2.16.2/library\rsa.c ****  *  DSS, and other systems. In : Advances in Cryptology-CRYPTO'96. Springer
 769:C:/Users/dtjld/workspace/AIoT/src/LiteOS_Lab/iot_link/network/dtls/mbedtls/mbedtls-2.16.2/library\rsa.c ****  *  Berlin Heidelberg, 1996. p. 104-113.
 770:C:/Users/dtjld/workspace/AIoT/src/LiteOS_Lab/iot_link/network/dtls/mbedtls/mbedtls-2.16.2/library\rsa.c ****  */
 771:C:/Users/dtjld/workspace/AIoT/src/LiteOS_Lab/iot_link/network/dtls/mbedtls/mbedtls-2.16.2/library\rsa.c **** static int rsa_prepare_blinding( mbedtls_rsa_context *ctx,
 772:C:/Users/dtjld/workspace/AIoT/src/LiteOS_Lab/iot_link/network/dtls/mbedtls/mbedtls-2.16.2/library\rsa.c ****                  int (*f_rng)(void *, unsigned char *, size_t), void *p_rng )
 773:C:/Users/dtjld/workspace/AIoT/src/LiteOS_Lab/iot_link/network/dtls/mbedtls/mbedtls-2.16.2/library\rsa.c **** {
 2672              		.loc 1 773 0
 2673              		.cfi_startproc
 2674              		@ args = 0, pretend = 0, frame = 24
 2675              		@ frame_needed = 1, uses_anonymous_args = 0
 2676 0000 90B5     		push	{r4, r7, lr}
 2677              	.LCFI83:
 2678              		.cfi_def_cfa_offset 12
 2679              		.cfi_offset 4, -12
 2680              		.cfi_offset 7, -8
 2681              		.cfi_offset 14, -4
 2682 0002 89B0     		sub	sp, sp, #36
 2683              	.LCFI84:
 2684              		.cfi_def_cfa_offset 48
 2685 0004 02AF     		add	r7, sp, #8
 2686              	.LCFI85:
 2687              		.cfi_def_cfa 7, 40
 2688 0006 F860     		str	r0, [r7, #12]
 2689 0008 B960     		str	r1, [r7, #8]
 2690 000a 7A60     		str	r2, [r7, #4]
 774:C:/Users/dtjld/workspace/AIoT/src/LiteOS_Lab/iot_link/network/dtls/mbedtls/mbedtls-2.16.2/library\rsa.c ****     int ret, count = 0;
 2691              		.loc 1 774 0
 2692 000c 0023     		movs	r3, #0
 2693 000e 3B61     		str	r3, [r7, #16]
 775:C:/Users/dtjld/workspace/AIoT/src/LiteOS_Lab/iot_link/network/dtls/mbedtls/mbedtls-2.16.2/library\rsa.c **** 
 776:C:/Users/dtjld/workspace/AIoT/src/LiteOS_Lab/iot_link/network/dtls/mbedtls/mbedtls-2.16.2/library\rsa.c ****     if( ctx->Vf.p != NULL )
 2694              		.loc 1 776 0
 2695 0010 FB68     		ldr	r3, [r7, #12]
 2696 0012 D3F8A030 		ldr	r3, [r3, #160]
 2697 0016 002B     		cmp	r3, #0
 2698 0018 3BD0     		beq	.L199
 777:C:/Users/dtjld/workspace/AIoT/src/LiteOS_Lab/iot_link/network/dtls/mbedtls/mbedtls-2.16.2/library\rsa.c ****     {
 778:C:/Users/dtjld/workspace/AIoT/src/LiteOS_Lab/iot_link/network/dtls/mbedtls/mbedtls-2.16.2/library\rsa.c ****         /* We already have blinding values, just update them by squaring */
 779:C:/Users/dtjld/workspace/AIoT/src/LiteOS_Lab/iot_link/network/dtls/mbedtls/mbedtls-2.16.2/library\rsa.c ****         MBEDTLS_MPI_CHK( mbedtls_mpi_mul_mpi( &ctx->Vi, &ctx->Vi, &ctx->Vi ) );
 2699              		.loc 1 779 0
 2700 001a FB68     		ldr	r3, [r7, #12]
 2701 001c 03F18C00 		add	r0, r3, #140
 2702 0020 FB68     		ldr	r3, [r7, #12]
 2703 0022 03F18C01 		add	r1, r3, #140
 2704 0026 FB68     		ldr	r3, [r7, #12]
 2705 0028 8C33     		adds	r3, r3, #140
 2706 002a 1A46     		mov	r2, r3
 2707 002c FFF7FEFF 		bl	mbedtls_mpi_mul_mpi
 2708 0030 7861     		str	r0, [r7, #20]
 2709 0032 7B69     		ldr	r3, [r7, #20]
 2710 0034 002B     		cmp	r3, #0
 2711 0036 7ED1     		bne	.L210
 780:C:/Users/dtjld/workspace/AIoT/src/LiteOS_Lab/iot_link/network/dtls/mbedtls/mbedtls-2.16.2/library\rsa.c ****         MBEDTLS_MPI_CHK( mbedtls_mpi_mod_mpi( &ctx->Vi, &ctx->Vi, &ctx->N ) );
 2712              		.loc 1 780 0
 2713 0038 FB68     		ldr	r3, [r7, #12]
 2714 003a 03F18C00 		add	r0, r3, #140
ARM GAS  C:\Users\dtjld\AppData\Local\Temp\cck1fUMg.s 			page 63


 2715 003e FB68     		ldr	r3, [r7, #12]
 2716 0040 03F18C01 		add	r1, r3, #140
 2717 0044 FB68     		ldr	r3, [r7, #12]
 2718 0046 0833     		adds	r3, r3, #8
 2719 0048 1A46     		mov	r2, r3
 2720 004a FFF7FEFF 		bl	mbedtls_mpi_mod_mpi
 2721 004e 7861     		str	r0, [r7, #20]
 2722 0050 7B69     		ldr	r3, [r7, #20]
 2723 0052 002B     		cmp	r3, #0
 2724 0054 71D1     		bne	.L211
 781:C:/Users/dtjld/workspace/AIoT/src/LiteOS_Lab/iot_link/network/dtls/mbedtls/mbedtls-2.16.2/library\rsa.c ****         MBEDTLS_MPI_CHK( mbedtls_mpi_mul_mpi( &ctx->Vf, &ctx->Vf, &ctx->Vf ) );
 2725              		.loc 1 781 0
 2726 0056 FB68     		ldr	r3, [r7, #12]
 2727 0058 03F19800 		add	r0, r3, #152
 2728 005c FB68     		ldr	r3, [r7, #12]
 2729 005e 03F19801 		add	r1, r3, #152
 2730 0062 FB68     		ldr	r3, [r7, #12]
 2731 0064 9833     		adds	r3, r3, #152
 2732 0066 1A46     		mov	r2, r3
 2733 0068 FFF7FEFF 		bl	mbedtls_mpi_mul_mpi
 2734 006c 7861     		str	r0, [r7, #20]
 2735 006e 7B69     		ldr	r3, [r7, #20]
 2736 0070 002B     		cmp	r3, #0
 2737 0072 64D1     		bne	.L212
 782:C:/Users/dtjld/workspace/AIoT/src/LiteOS_Lab/iot_link/network/dtls/mbedtls/mbedtls-2.16.2/library\rsa.c ****         MBEDTLS_MPI_CHK( mbedtls_mpi_mod_mpi( &ctx->Vf, &ctx->Vf, &ctx->N ) );
 2738              		.loc 1 782 0
 2739 0074 FB68     		ldr	r3, [r7, #12]
 2740 0076 03F19800 		add	r0, r3, #152
 2741 007a FB68     		ldr	r3, [r7, #12]
 2742 007c 03F19801 		add	r1, r3, #152
 2743 0080 FB68     		ldr	r3, [r7, #12]
 2744 0082 0833     		adds	r3, r3, #8
 2745 0084 1A46     		mov	r2, r3
 2746 0086 FFF7FEFF 		bl	mbedtls_mpi_mod_mpi
 2747 008a 7861     		str	r0, [r7, #20]
 2748 008c 7B69     		ldr	r3, [r7, #20]
 2749 008e 002B     		cmp	r3, #0
 783:C:/Users/dtjld/workspace/AIoT/src/LiteOS_Lab/iot_link/network/dtls/mbedtls/mbedtls-2.16.2/library\rsa.c **** 
 784:C:/Users/dtjld/workspace/AIoT/src/LiteOS_Lab/iot_link/network/dtls/mbedtls/mbedtls-2.16.2/library\rsa.c ****         goto cleanup;
 2750              		.loc 1 784 0
 2751 0090 5CE0     		b	.L201
 2752              	.L199:
 785:C:/Users/dtjld/workspace/AIoT/src/LiteOS_Lab/iot_link/network/dtls/mbedtls/mbedtls-2.16.2/library\rsa.c ****     }
 786:C:/Users/dtjld/workspace/AIoT/src/LiteOS_Lab/iot_link/network/dtls/mbedtls/mbedtls-2.16.2/library\rsa.c **** 
 787:C:/Users/dtjld/workspace/AIoT/src/LiteOS_Lab/iot_link/network/dtls/mbedtls/mbedtls-2.16.2/library\rsa.c ****     /* Unblinding value: Vf = random number, invertible mod N */
 788:C:/Users/dtjld/workspace/AIoT/src/LiteOS_Lab/iot_link/network/dtls/mbedtls/mbedtls-2.16.2/library\rsa.c ****     do {
 789:C:/Users/dtjld/workspace/AIoT/src/LiteOS_Lab/iot_link/network/dtls/mbedtls/mbedtls-2.16.2/library\rsa.c ****         if( count++ > 10 )
 2753              		.loc 1 789 0
 2754 0092 3B69     		ldr	r3, [r7, #16]
 2755 0094 5A1C     		adds	r2, r3, #1
 2756 0096 3A61     		str	r2, [r7, #16]
 2757 0098 0A2B     		cmp	r3, #10
 2758 009a 01DD     		ble	.L205
 790:C:/Users/dtjld/workspace/AIoT/src/LiteOS_Lab/iot_link/network/dtls/mbedtls/mbedtls-2.16.2/library\rsa.c ****             return( MBEDTLS_ERR_RSA_RNG_FAILED );
 2759              		.loc 1 790 0
 2760 009c 2E4B     		ldr	r3, .L216
 2761 009e 56E0     		b	.L206
ARM GAS  C:\Users\dtjld\AppData\Local\Temp\cck1fUMg.s 			page 64


 2762              	.L205:
 791:C:/Users/dtjld/workspace/AIoT/src/LiteOS_Lab/iot_link/network/dtls/mbedtls/mbedtls-2.16.2/library\rsa.c **** 
 792:C:/Users/dtjld/workspace/AIoT/src/LiteOS_Lab/iot_link/network/dtls/mbedtls/mbedtls-2.16.2/library\rsa.c ****         MBEDTLS_MPI_CHK( mbedtls_mpi_fill_random( &ctx->Vf, ctx->len - 1, f_rng, p_rng ) );
 2763              		.loc 1 792 0
 2764 00a0 FB68     		ldr	r3, [r7, #12]
 2765 00a2 03F19800 		add	r0, r3, #152
 2766 00a6 FB68     		ldr	r3, [r7, #12]
 2767 00a8 5B68     		ldr	r3, [r3, #4]
 2768 00aa 591E     		subs	r1, r3, #1
 2769 00ac 7B68     		ldr	r3, [r7, #4]
 2770 00ae BA68     		ldr	r2, [r7, #8]
 2771 00b0 FFF7FEFF 		bl	mbedtls_mpi_fill_random
 2772 00b4 7861     		str	r0, [r7, #20]
 2773 00b6 7B69     		ldr	r3, [r7, #20]
 2774 00b8 002B     		cmp	r3, #0
 2775 00ba 42D1     		bne	.L213
 793:C:/Users/dtjld/workspace/AIoT/src/LiteOS_Lab/iot_link/network/dtls/mbedtls/mbedtls-2.16.2/library\rsa.c ****         MBEDTLS_MPI_CHK( mbedtls_mpi_gcd( &ctx->Vi, &ctx->Vf, &ctx->N ) );
 2776              		.loc 1 793 0
 2777 00bc FB68     		ldr	r3, [r7, #12]
 2778 00be 03F18C00 		add	r0, r3, #140
 2779 00c2 FB68     		ldr	r3, [r7, #12]
 2780 00c4 03F19801 		add	r1, r3, #152
 2781 00c8 FB68     		ldr	r3, [r7, #12]
 2782 00ca 0833     		adds	r3, r3, #8
 2783 00cc 1A46     		mov	r2, r3
 2784 00ce FFF7FEFF 		bl	mbedtls_mpi_gcd
 2785 00d2 7861     		str	r0, [r7, #20]
 2786 00d4 7B69     		ldr	r3, [r7, #20]
 2787 00d6 002B     		cmp	r3, #0
 2788 00d8 35D1     		bne	.L214
 794:C:/Users/dtjld/workspace/AIoT/src/LiteOS_Lab/iot_link/network/dtls/mbedtls/mbedtls-2.16.2/library\rsa.c ****     } while( mbedtls_mpi_cmp_int( &ctx->Vi, 1 ) != 0 );
 2789              		.loc 1 794 0
 2790 00da FB68     		ldr	r3, [r7, #12]
 2791 00dc 8C33     		adds	r3, r3, #140
 2792 00de 0121     		movs	r1, #1
 2793 00e0 1846     		mov	r0, r3
 2794 00e2 FFF7FEFF 		bl	mbedtls_mpi_cmp_int
 2795 00e6 0346     		mov	r3, r0
 2796 00e8 002B     		cmp	r3, #0
 2797 00ea D2D1     		bne	.L199
 795:C:/Users/dtjld/workspace/AIoT/src/LiteOS_Lab/iot_link/network/dtls/mbedtls/mbedtls-2.16.2/library\rsa.c **** 
 796:C:/Users/dtjld/workspace/AIoT/src/LiteOS_Lab/iot_link/network/dtls/mbedtls/mbedtls-2.16.2/library\rsa.c ****     /* Blinding value: Vi =  Vf^(-e) mod N */
 797:C:/Users/dtjld/workspace/AIoT/src/LiteOS_Lab/iot_link/network/dtls/mbedtls/mbedtls-2.16.2/library\rsa.c ****     MBEDTLS_MPI_CHK( mbedtls_mpi_inv_mod( &ctx->Vi, &ctx->Vf, &ctx->N ) );
 2798              		.loc 1 797 0
 2799 00ec FB68     		ldr	r3, [r7, #12]
 2800 00ee 03F18C00 		add	r0, r3, #140
 2801 00f2 FB68     		ldr	r3, [r7, #12]
 2802 00f4 03F19801 		add	r1, r3, #152
 2803 00f8 FB68     		ldr	r3, [r7, #12]
 2804 00fa 0833     		adds	r3, r3, #8
 2805 00fc 1A46     		mov	r2, r3
 2806 00fe FFF7FEFF 		bl	mbedtls_mpi_inv_mod
 2807 0102 7861     		str	r0, [r7, #20]
 2808 0104 7B69     		ldr	r3, [r7, #20]
 2809 0106 002B     		cmp	r3, #0
 2810 0108 1FD1     		bne	.L215
 798:C:/Users/dtjld/workspace/AIoT/src/LiteOS_Lab/iot_link/network/dtls/mbedtls/mbedtls-2.16.2/library\rsa.c ****     MBEDTLS_MPI_CHK( mbedtls_mpi_exp_mod( &ctx->Vi, &ctx->Vi, &ctx->E, &ctx->N, &ctx->RN ) );
ARM GAS  C:\Users\dtjld\AppData\Local\Temp\cck1fUMg.s 			page 65


 2811              		.loc 1 798 0
 2812 010a FB68     		ldr	r3, [r7, #12]
 2813 010c 03F18C00 		add	r0, r3, #140
 2814 0110 FB68     		ldr	r3, [r7, #12]
 2815 0112 03F18C01 		add	r1, r3, #140
 2816 0116 FB68     		ldr	r3, [r7, #12]
 2817 0118 03F11402 		add	r2, r3, #20
 2818 011c FB68     		ldr	r3, [r7, #12]
 2819 011e 03F10804 		add	r4, r3, #8
 2820 0122 FB68     		ldr	r3, [r7, #12]
 2821 0124 6833     		adds	r3, r3, #104
 2822 0126 0093     		str	r3, [sp]
 2823 0128 2346     		mov	r3, r4
 2824 012a FFF7FEFF 		bl	mbedtls_mpi_exp_mod
 2825 012e 7861     		str	r0, [r7, #20]
 2826 0130 7B69     		ldr	r3, [r7, #20]
 2827 0132 002B     		cmp	r3, #0
 799:C:/Users/dtjld/workspace/AIoT/src/LiteOS_Lab/iot_link/network/dtls/mbedtls/mbedtls-2.16.2/library\rsa.c **** 
 800:C:/Users/dtjld/workspace/AIoT/src/LiteOS_Lab/iot_link/network/dtls/mbedtls/mbedtls-2.16.2/library\rsa.c **** 
 801:C:/Users/dtjld/workspace/AIoT/src/LiteOS_Lab/iot_link/network/dtls/mbedtls/mbedtls-2.16.2/library\rsa.c **** cleanup:
 2828              		.loc 1 801 0
 2829 0134 0AE0     		b	.L201
 2830              	.L210:
 779:C:/Users/dtjld/workspace/AIoT/src/LiteOS_Lab/iot_link/network/dtls/mbedtls/mbedtls-2.16.2/library\rsa.c ****         MBEDTLS_MPI_CHK( mbedtls_mpi_mod_mpi( &ctx->Vi, &ctx->Vi, &ctx->N ) );
 2831              		.loc 1 779 0
 2832 0136 00BF     		nop
 2833 0138 08E0     		b	.L201
 2834              	.L211:
 780:C:/Users/dtjld/workspace/AIoT/src/LiteOS_Lab/iot_link/network/dtls/mbedtls/mbedtls-2.16.2/library\rsa.c ****         MBEDTLS_MPI_CHK( mbedtls_mpi_mul_mpi( &ctx->Vf, &ctx->Vf, &ctx->Vf ) );
 2835              		.loc 1 780 0
 2836 013a 00BF     		nop
 2837 013c 06E0     		b	.L201
 2838              	.L212:
 781:C:/Users/dtjld/workspace/AIoT/src/LiteOS_Lab/iot_link/network/dtls/mbedtls/mbedtls-2.16.2/library\rsa.c ****         MBEDTLS_MPI_CHK( mbedtls_mpi_mod_mpi( &ctx->Vf, &ctx->Vf, &ctx->N ) );
 2839              		.loc 1 781 0
 2840 013e 00BF     		nop
 2841 0140 04E0     		b	.L201
 2842              	.L213:
 792:C:/Users/dtjld/workspace/AIoT/src/LiteOS_Lab/iot_link/network/dtls/mbedtls/mbedtls-2.16.2/library\rsa.c ****         MBEDTLS_MPI_CHK( mbedtls_mpi_gcd( &ctx->Vi, &ctx->Vf, &ctx->N ) );
 2843              		.loc 1 792 0
 2844 0142 00BF     		nop
 2845 0144 02E0     		b	.L201
 2846              	.L214:
 793:C:/Users/dtjld/workspace/AIoT/src/LiteOS_Lab/iot_link/network/dtls/mbedtls/mbedtls-2.16.2/library\rsa.c ****     } while( mbedtls_mpi_cmp_int( &ctx->Vi, 1 ) != 0 );
 2847              		.loc 1 793 0
 2848 0146 00BF     		nop
 2849 0148 00E0     		b	.L201
 2850              	.L215:
 797:C:/Users/dtjld/workspace/AIoT/src/LiteOS_Lab/iot_link/network/dtls/mbedtls/mbedtls-2.16.2/library\rsa.c ****     MBEDTLS_MPI_CHK( mbedtls_mpi_exp_mod( &ctx->Vi, &ctx->Vi, &ctx->E, &ctx->N, &ctx->RN ) );
 2851              		.loc 1 797 0
 2852 014a 00BF     		nop
 2853              	.L201:
 802:C:/Users/dtjld/workspace/AIoT/src/LiteOS_Lab/iot_link/network/dtls/mbedtls/mbedtls-2.16.2/library\rsa.c ****     return( ret );
 2854              		.loc 1 802 0
 2855 014c 7B69     		ldr	r3, [r7, #20]
 2856              	.L206:
 803:C:/Users/dtjld/workspace/AIoT/src/LiteOS_Lab/iot_link/network/dtls/mbedtls/mbedtls-2.16.2/library\rsa.c **** }
ARM GAS  C:\Users\dtjld\AppData\Local\Temp\cck1fUMg.s 			page 66


 2857              		.loc 1 803 0
 2858 014e 1846     		mov	r0, r3
 2859 0150 1C37     		adds	r7, r7, #28
 2860              	.LCFI86:
 2861              		.cfi_def_cfa_offset 12
 2862 0152 BD46     		mov	sp, r7
 2863              	.LCFI87:
 2864              		.cfi_def_cfa_register 13
 2865              		@ sp needed
 2866 0154 90BD     		pop	{r4, r7, pc}
 2867              	.L217:
 2868 0156 00BF     		.align	2
 2869              	.L216:
 2870 0158 80BBFFFF 		.word	-17536
 2871              		.cfi_endproc
 2872              	.LFE29:
 2874              		.section	.text.mbedtls_rsa_private,"ax",%progbits
 2875              		.align	1
 2876              		.global	mbedtls_rsa_private
 2877              		.syntax unified
 2878              		.thumb
 2879              		.thumb_func
 2880              		.fpu fpv4-sp-d16
 2882              	mbedtls_rsa_private:
 2883              	.LFB30:
 804:C:/Users/dtjld/workspace/AIoT/src/LiteOS_Lab/iot_link/network/dtls/mbedtls/mbedtls-2.16.2/library\rsa.c **** 
 805:C:/Users/dtjld/workspace/AIoT/src/LiteOS_Lab/iot_link/network/dtls/mbedtls/mbedtls-2.16.2/library\rsa.c **** /*
 806:C:/Users/dtjld/workspace/AIoT/src/LiteOS_Lab/iot_link/network/dtls/mbedtls/mbedtls-2.16.2/library\rsa.c ****  * Exponent blinding supposed to prevent side-channel attacks using multiple
 807:C:/Users/dtjld/workspace/AIoT/src/LiteOS_Lab/iot_link/network/dtls/mbedtls/mbedtls-2.16.2/library\rsa.c ****  * traces of measurements to recover the RSA key. The more collisions are there,
 808:C:/Users/dtjld/workspace/AIoT/src/LiteOS_Lab/iot_link/network/dtls/mbedtls/mbedtls-2.16.2/library\rsa.c ****  * the more bits of the key can be recovered. See [3].
 809:C:/Users/dtjld/workspace/AIoT/src/LiteOS_Lab/iot_link/network/dtls/mbedtls/mbedtls-2.16.2/library\rsa.c ****  *
 810:C:/Users/dtjld/workspace/AIoT/src/LiteOS_Lab/iot_link/network/dtls/mbedtls/mbedtls-2.16.2/library\rsa.c ****  * Collecting n collisions with m bit long blinding value requires 2^(m-m/n)
 811:C:/Users/dtjld/workspace/AIoT/src/LiteOS_Lab/iot_link/network/dtls/mbedtls/mbedtls-2.16.2/library\rsa.c ****  * observations on avarage.
 812:C:/Users/dtjld/workspace/AIoT/src/LiteOS_Lab/iot_link/network/dtls/mbedtls/mbedtls-2.16.2/library\rsa.c ****  *
 813:C:/Users/dtjld/workspace/AIoT/src/LiteOS_Lab/iot_link/network/dtls/mbedtls/mbedtls-2.16.2/library\rsa.c ****  * For example with 28 byte blinding to achieve 2 collisions the adversary has
 814:C:/Users/dtjld/workspace/AIoT/src/LiteOS_Lab/iot_link/network/dtls/mbedtls/mbedtls-2.16.2/library\rsa.c ****  * to make 2^112 observations on avarage.
 815:C:/Users/dtjld/workspace/AIoT/src/LiteOS_Lab/iot_link/network/dtls/mbedtls/mbedtls-2.16.2/library\rsa.c ****  *
 816:C:/Users/dtjld/workspace/AIoT/src/LiteOS_Lab/iot_link/network/dtls/mbedtls/mbedtls-2.16.2/library\rsa.c ****  * (With the currently (as of 2017 April) known best algorithms breaking 2048
 817:C:/Users/dtjld/workspace/AIoT/src/LiteOS_Lab/iot_link/network/dtls/mbedtls/mbedtls-2.16.2/library\rsa.c ****  * bit RSA requires approximately as much time as trying out 2^112 random keys.
 818:C:/Users/dtjld/workspace/AIoT/src/LiteOS_Lab/iot_link/network/dtls/mbedtls/mbedtls-2.16.2/library\rsa.c ****  * Thus in this sense with 28 byte blinding the security is not reduced by
 819:C:/Users/dtjld/workspace/AIoT/src/LiteOS_Lab/iot_link/network/dtls/mbedtls/mbedtls-2.16.2/library\rsa.c ****  * side-channel attacks like the one in [3])
 820:C:/Users/dtjld/workspace/AIoT/src/LiteOS_Lab/iot_link/network/dtls/mbedtls/mbedtls-2.16.2/library\rsa.c ****  *
 821:C:/Users/dtjld/workspace/AIoT/src/LiteOS_Lab/iot_link/network/dtls/mbedtls/mbedtls-2.16.2/library\rsa.c ****  * This countermeasure does not help if the key recovery is possible with a
 822:C:/Users/dtjld/workspace/AIoT/src/LiteOS_Lab/iot_link/network/dtls/mbedtls/mbedtls-2.16.2/library\rsa.c ****  * single trace.
 823:C:/Users/dtjld/workspace/AIoT/src/LiteOS_Lab/iot_link/network/dtls/mbedtls/mbedtls-2.16.2/library\rsa.c ****  */
 824:C:/Users/dtjld/workspace/AIoT/src/LiteOS_Lab/iot_link/network/dtls/mbedtls/mbedtls-2.16.2/library\rsa.c **** #define RSA_EXPONENT_BLINDING 28
 825:C:/Users/dtjld/workspace/AIoT/src/LiteOS_Lab/iot_link/network/dtls/mbedtls/mbedtls-2.16.2/library\rsa.c **** 
 826:C:/Users/dtjld/workspace/AIoT/src/LiteOS_Lab/iot_link/network/dtls/mbedtls/mbedtls-2.16.2/library\rsa.c **** /*
 827:C:/Users/dtjld/workspace/AIoT/src/LiteOS_Lab/iot_link/network/dtls/mbedtls/mbedtls-2.16.2/library\rsa.c ****  * Do an RSA private key operation
 828:C:/Users/dtjld/workspace/AIoT/src/LiteOS_Lab/iot_link/network/dtls/mbedtls/mbedtls-2.16.2/library\rsa.c ****  */
 829:C:/Users/dtjld/workspace/AIoT/src/LiteOS_Lab/iot_link/network/dtls/mbedtls/mbedtls-2.16.2/library\rsa.c **** int mbedtls_rsa_private( mbedtls_rsa_context *ctx,
 830:C:/Users/dtjld/workspace/AIoT/src/LiteOS_Lab/iot_link/network/dtls/mbedtls/mbedtls-2.16.2/library\rsa.c ****                  int (*f_rng)(void *, unsigned char *, size_t),
 831:C:/Users/dtjld/workspace/AIoT/src/LiteOS_Lab/iot_link/network/dtls/mbedtls/mbedtls-2.16.2/library\rsa.c ****                  void *p_rng,
 832:C:/Users/dtjld/workspace/AIoT/src/LiteOS_Lab/iot_link/network/dtls/mbedtls/mbedtls-2.16.2/library\rsa.c ****                  const unsigned char *input,
 833:C:/Users/dtjld/workspace/AIoT/src/LiteOS_Lab/iot_link/network/dtls/mbedtls/mbedtls-2.16.2/library\rsa.c ****                  unsigned char *output )
 834:C:/Users/dtjld/workspace/AIoT/src/LiteOS_Lab/iot_link/network/dtls/mbedtls/mbedtls-2.16.2/library\rsa.c **** {
 2884              		.loc 1 834 0
ARM GAS  C:\Users\dtjld\AppData\Local\Temp\cck1fUMg.s 			page 67


 2885              		.cfi_startproc
 2886              		@ args = 4, pretend = 0, frame = 152
 2887              		@ frame_needed = 1, uses_anonymous_args = 0
 2888 0000 90B5     		push	{r4, r7, lr}
 2889              	.LCFI88:
 2890              		.cfi_def_cfa_offset 12
 2891              		.cfi_offset 4, -12
 2892              		.cfi_offset 7, -8
 2893              		.cfi_offset 14, -4
 2894 0002 A9B0     		sub	sp, sp, #164
 2895              	.LCFI89:
 2896              		.cfi_def_cfa_offset 176
 2897 0004 02AF     		add	r7, sp, #8
 2898              	.LCFI90:
 2899              		.cfi_def_cfa 7, 168
 2900 0006 F860     		str	r0, [r7, #12]
 2901 0008 B960     		str	r1, [r7, #8]
 2902 000a 7A60     		str	r2, [r7, #4]
 2903 000c 3B60     		str	r3, [r7]
 835:C:/Users/dtjld/workspace/AIoT/src/LiteOS_Lab/iot_link/network/dtls/mbedtls/mbedtls-2.16.2/library\rsa.c ****     int ret;
 836:C:/Users/dtjld/workspace/AIoT/src/LiteOS_Lab/iot_link/network/dtls/mbedtls/mbedtls-2.16.2/library\rsa.c ****     size_t olen;
 837:C:/Users/dtjld/workspace/AIoT/src/LiteOS_Lab/iot_link/network/dtls/mbedtls/mbedtls-2.16.2/library\rsa.c **** 
 838:C:/Users/dtjld/workspace/AIoT/src/LiteOS_Lab/iot_link/network/dtls/mbedtls/mbedtls-2.16.2/library\rsa.c ****     /* Temporary holding the result */
 839:C:/Users/dtjld/workspace/AIoT/src/LiteOS_Lab/iot_link/network/dtls/mbedtls/mbedtls-2.16.2/library\rsa.c ****     mbedtls_mpi T;
 840:C:/Users/dtjld/workspace/AIoT/src/LiteOS_Lab/iot_link/network/dtls/mbedtls/mbedtls-2.16.2/library\rsa.c **** 
 841:C:/Users/dtjld/workspace/AIoT/src/LiteOS_Lab/iot_link/network/dtls/mbedtls/mbedtls-2.16.2/library\rsa.c ****     /* Temporaries holding P-1, Q-1 and the
 842:C:/Users/dtjld/workspace/AIoT/src/LiteOS_Lab/iot_link/network/dtls/mbedtls/mbedtls-2.16.2/library\rsa.c ****      * exponent blinding factor, respectively. */
 843:C:/Users/dtjld/workspace/AIoT/src/LiteOS_Lab/iot_link/network/dtls/mbedtls/mbedtls-2.16.2/library\rsa.c ****     mbedtls_mpi P1, Q1, R;
 844:C:/Users/dtjld/workspace/AIoT/src/LiteOS_Lab/iot_link/network/dtls/mbedtls/mbedtls-2.16.2/library\rsa.c **** 
 845:C:/Users/dtjld/workspace/AIoT/src/LiteOS_Lab/iot_link/network/dtls/mbedtls/mbedtls-2.16.2/library\rsa.c **** #if !defined(MBEDTLS_RSA_NO_CRT)
 846:C:/Users/dtjld/workspace/AIoT/src/LiteOS_Lab/iot_link/network/dtls/mbedtls/mbedtls-2.16.2/library\rsa.c ****     /* Temporaries holding the results mod p resp. mod q. */
 847:C:/Users/dtjld/workspace/AIoT/src/LiteOS_Lab/iot_link/network/dtls/mbedtls/mbedtls-2.16.2/library\rsa.c ****     mbedtls_mpi TP, TQ;
 848:C:/Users/dtjld/workspace/AIoT/src/LiteOS_Lab/iot_link/network/dtls/mbedtls/mbedtls-2.16.2/library\rsa.c **** 
 849:C:/Users/dtjld/workspace/AIoT/src/LiteOS_Lab/iot_link/network/dtls/mbedtls/mbedtls-2.16.2/library\rsa.c ****     /* Temporaries holding the blinded exponents for
 850:C:/Users/dtjld/workspace/AIoT/src/LiteOS_Lab/iot_link/network/dtls/mbedtls/mbedtls-2.16.2/library\rsa.c ****      * the mod p resp. mod q computation (if used). */
 851:C:/Users/dtjld/workspace/AIoT/src/LiteOS_Lab/iot_link/network/dtls/mbedtls/mbedtls-2.16.2/library\rsa.c ****     mbedtls_mpi DP_blind, DQ_blind;
 852:C:/Users/dtjld/workspace/AIoT/src/LiteOS_Lab/iot_link/network/dtls/mbedtls/mbedtls-2.16.2/library\rsa.c **** 
 853:C:/Users/dtjld/workspace/AIoT/src/LiteOS_Lab/iot_link/network/dtls/mbedtls/mbedtls-2.16.2/library\rsa.c ****     /* Pointers to actual exponents to be used - either the unblinded
 854:C:/Users/dtjld/workspace/AIoT/src/LiteOS_Lab/iot_link/network/dtls/mbedtls/mbedtls-2.16.2/library\rsa.c ****      * or the blinded ones, depending on the presence of a PRNG. */
 855:C:/Users/dtjld/workspace/AIoT/src/LiteOS_Lab/iot_link/network/dtls/mbedtls/mbedtls-2.16.2/library\rsa.c ****     mbedtls_mpi *DP = &ctx->DP;
 2904              		.loc 1 855 0
 2905 000e FB68     		ldr	r3, [r7, #12]
 2906 0010 4433     		adds	r3, r3, #68
 2907 0012 C7F89030 		str	r3, [r7, #144]
 856:C:/Users/dtjld/workspace/AIoT/src/LiteOS_Lab/iot_link/network/dtls/mbedtls/mbedtls-2.16.2/library\rsa.c ****     mbedtls_mpi *DQ = &ctx->DQ;
 2908              		.loc 1 856 0
 2909 0016 FB68     		ldr	r3, [r7, #12]
 2910 0018 5033     		adds	r3, r3, #80
 2911 001a C7F88C30 		str	r3, [r7, #140]
 857:C:/Users/dtjld/workspace/AIoT/src/LiteOS_Lab/iot_link/network/dtls/mbedtls/mbedtls-2.16.2/library\rsa.c **** #else
 858:C:/Users/dtjld/workspace/AIoT/src/LiteOS_Lab/iot_link/network/dtls/mbedtls/mbedtls-2.16.2/library\rsa.c ****     /* Temporary holding the blinded exponent (if used). */
 859:C:/Users/dtjld/workspace/AIoT/src/LiteOS_Lab/iot_link/network/dtls/mbedtls/mbedtls-2.16.2/library\rsa.c ****     mbedtls_mpi D_blind;
 860:C:/Users/dtjld/workspace/AIoT/src/LiteOS_Lab/iot_link/network/dtls/mbedtls/mbedtls-2.16.2/library\rsa.c **** 
 861:C:/Users/dtjld/workspace/AIoT/src/LiteOS_Lab/iot_link/network/dtls/mbedtls/mbedtls-2.16.2/library\rsa.c ****     /* Pointer to actual exponent to be used - either the unblinded
 862:C:/Users/dtjld/workspace/AIoT/src/LiteOS_Lab/iot_link/network/dtls/mbedtls/mbedtls-2.16.2/library\rsa.c ****      * or the blinded one, depending on the presence of a PRNG. */
 863:C:/Users/dtjld/workspace/AIoT/src/LiteOS_Lab/iot_link/network/dtls/mbedtls/mbedtls-2.16.2/library\rsa.c ****     mbedtls_mpi *D = &ctx->D;
 864:C:/Users/dtjld/workspace/AIoT/src/LiteOS_Lab/iot_link/network/dtls/mbedtls/mbedtls-2.16.2/library\rsa.c **** #endif /* MBEDTLS_RSA_NO_CRT */
ARM GAS  C:\Users\dtjld\AppData\Local\Temp\cck1fUMg.s 			page 68


 865:C:/Users/dtjld/workspace/AIoT/src/LiteOS_Lab/iot_link/network/dtls/mbedtls/mbedtls-2.16.2/library\rsa.c **** 
 866:C:/Users/dtjld/workspace/AIoT/src/LiteOS_Lab/iot_link/network/dtls/mbedtls/mbedtls-2.16.2/library\rsa.c ****     /* Temporaries holding the initial input and the double
 867:C:/Users/dtjld/workspace/AIoT/src/LiteOS_Lab/iot_link/network/dtls/mbedtls/mbedtls-2.16.2/library\rsa.c ****      * checked result; should be the same in the end. */
 868:C:/Users/dtjld/workspace/AIoT/src/LiteOS_Lab/iot_link/network/dtls/mbedtls/mbedtls-2.16.2/library\rsa.c ****     mbedtls_mpi I, C;
 869:C:/Users/dtjld/workspace/AIoT/src/LiteOS_Lab/iot_link/network/dtls/mbedtls/mbedtls-2.16.2/library\rsa.c **** 
 870:C:/Users/dtjld/workspace/AIoT/src/LiteOS_Lab/iot_link/network/dtls/mbedtls/mbedtls-2.16.2/library\rsa.c ****     RSA_VALIDATE_RET( ctx != NULL );
 871:C:/Users/dtjld/workspace/AIoT/src/LiteOS_Lab/iot_link/network/dtls/mbedtls/mbedtls-2.16.2/library\rsa.c ****     RSA_VALIDATE_RET( input  != NULL );
 872:C:/Users/dtjld/workspace/AIoT/src/LiteOS_Lab/iot_link/network/dtls/mbedtls/mbedtls-2.16.2/library\rsa.c ****     RSA_VALIDATE_RET( output != NULL );
 873:C:/Users/dtjld/workspace/AIoT/src/LiteOS_Lab/iot_link/network/dtls/mbedtls/mbedtls-2.16.2/library\rsa.c **** 
 874:C:/Users/dtjld/workspace/AIoT/src/LiteOS_Lab/iot_link/network/dtls/mbedtls/mbedtls-2.16.2/library\rsa.c ****     if( rsa_check_context( ctx, 1             /* private key checks */,
 2912              		.loc 1 874 0
 2913 001e BB68     		ldr	r3, [r7, #8]
 2914 0020 002B     		cmp	r3, #0
 2915 0022 14BF     		ite	ne
 2916 0024 0123     		movne	r3, #1
 2917 0026 0023     		moveq	r3, #0
 2918 0028 DBB2     		uxtb	r3, r3
 2919 002a 1A46     		mov	r2, r3
 2920 002c 0121     		movs	r1, #1
 2921 002e F868     		ldr	r0, [r7, #12]
 2922 0030 FFF7FEFF 		bl	rsa_check_context
 2923 0034 0346     		mov	r3, r0
 2924 0036 002B     		cmp	r3, #0
 2925 0038 01D0     		beq	.L219
 875:C:/Users/dtjld/workspace/AIoT/src/LiteOS_Lab/iot_link/network/dtls/mbedtls/mbedtls-2.16.2/library\rsa.c ****                                 f_rng != NULL /* blinding y/n       */ ) != 0 )
 876:C:/Users/dtjld/workspace/AIoT/src/LiteOS_Lab/iot_link/network/dtls/mbedtls/mbedtls-2.16.2/library\rsa.c ****     {
 877:C:/Users/dtjld/workspace/AIoT/src/LiteOS_Lab/iot_link/network/dtls/mbedtls/mbedtls-2.16.2/library\rsa.c ****         return( MBEDTLS_ERR_RSA_BAD_INPUT_DATA );
 2926              		.loc 1 877 0
 2927 003a 2B4B     		ldr	r3, .L275
 2928 003c 63E2     		b	.L251
 2929              	.L219:
 878:C:/Users/dtjld/workspace/AIoT/src/LiteOS_Lab/iot_link/network/dtls/mbedtls/mbedtls-2.16.2/library\rsa.c ****     }
 879:C:/Users/dtjld/workspace/AIoT/src/LiteOS_Lab/iot_link/network/dtls/mbedtls/mbedtls-2.16.2/library\rsa.c **** 
 880:C:/Users/dtjld/workspace/AIoT/src/LiteOS_Lab/iot_link/network/dtls/mbedtls/mbedtls-2.16.2/library\rsa.c **** #if defined(MBEDTLS_THREADING_C)
 881:C:/Users/dtjld/workspace/AIoT/src/LiteOS_Lab/iot_link/network/dtls/mbedtls/mbedtls-2.16.2/library\rsa.c ****     if( ( ret = mbedtls_mutex_lock( &ctx->mutex ) ) != 0 )
 882:C:/Users/dtjld/workspace/AIoT/src/LiteOS_Lab/iot_link/network/dtls/mbedtls/mbedtls-2.16.2/library\rsa.c ****         return( ret );
 883:C:/Users/dtjld/workspace/AIoT/src/LiteOS_Lab/iot_link/network/dtls/mbedtls/mbedtls-2.16.2/library\rsa.c **** #endif
