ARM GAS  C:\Users\dtjld\AppData\Local\Temp\ccQby7Tk.s 			page 1


   1              		.cpu cortex-m4
   2              		.eabi_attribute 27, 1
   3              		.eabi_attribute 28, 1
   4              		.eabi_attribute 20, 1
   5              		.eabi_attribute 21, 1
   6              		.eabi_attribute 23, 3
   7              		.eabi_attribute 24, 1
   8              		.eabi_attribute 25, 1
   9              		.eabi_attribute 26, 1
  10              		.eabi_attribute 30, 6
  11              		.eabi_attribute 34, 1
  12              		.eabi_attribute 18, 4
  13              		.file	"sha1.c"
  14              		.text
  15              	.Ltext0:
  16              		.cfi_sections	.debug_frame
  17              		.section	.text.mbedtls_sha1_init,"ax",%progbits
  18              		.align	1
  19              		.global	mbedtls_sha1_init
  20              		.syntax unified
  21              		.thumb
  22              		.thumb_func
  23              		.fpu fpv4-sp-d16
  25              	mbedtls_sha1_init:
  26              	.LFB3:
  27              		.file 1 "C:/Users/dtjld/workspace/AIoT/src/LiteOS_Lab/iot_link/network/dtls/mbedtls/mbedtls-2.16.2
   1:C:/Users/dtjld/workspace/AIoT/src/LiteOS_Lab/iot_link/network/dtls/mbedtls/mbedtls-2.16.2/library\sha1.c **** /*
   2:C:/Users/dtjld/workspace/AIoT/src/LiteOS_Lab/iot_link/network/dtls/mbedtls/mbedtls-2.16.2/library\sha1.c ****  *  FIPS-180-1 compliant SHA-1 implementation
   3:C:/Users/dtjld/workspace/AIoT/src/LiteOS_Lab/iot_link/network/dtls/mbedtls/mbedtls-2.16.2/library\sha1.c ****  *
   4:C:/Users/dtjld/workspace/AIoT/src/LiteOS_Lab/iot_link/network/dtls/mbedtls/mbedtls-2.16.2/library\sha1.c ****  *  Copyright (C) 2006-2015, ARM Limited, All Rights Reserved
   5:C:/Users/dtjld/workspace/AIoT/src/LiteOS_Lab/iot_link/network/dtls/mbedtls/mbedtls-2.16.2/library\sha1.c ****  *  SPDX-License-Identifier: Apache-2.0
   6:C:/Users/dtjld/workspace/AIoT/src/LiteOS_Lab/iot_link/network/dtls/mbedtls/mbedtls-2.16.2/library\sha1.c ****  *
   7:C:/Users/dtjld/workspace/AIoT/src/LiteOS_Lab/iot_link/network/dtls/mbedtls/mbedtls-2.16.2/library\sha1.c ****  *  Licensed under the Apache License, Version 2.0 (the "License"); you may
   8:C:/Users/dtjld/workspace/AIoT/src/LiteOS_Lab/iot_link/network/dtls/mbedtls/mbedtls-2.16.2/library\sha1.c ****  *  not use this file except in compliance with the License.
   9:C:/Users/dtjld/workspace/AIoT/src/LiteOS_Lab/iot_link/network/dtls/mbedtls/mbedtls-2.16.2/library\sha1.c ****  *  You may obtain a copy of the License at
  10:C:/Users/dtjld/workspace/AIoT/src/LiteOS_Lab/iot_link/network/dtls/mbedtls/mbedtls-2.16.2/library\sha1.c ****  *
  11:C:/Users/dtjld/workspace/AIoT/src/LiteOS_Lab/iot_link/network/dtls/mbedtls/mbedtls-2.16.2/library\sha1.c ****  *  http://www.apache.org/licenses/LICENSE-2.0
  12:C:/Users/dtjld/workspace/AIoT/src/LiteOS_Lab/iot_link/network/dtls/mbedtls/mbedtls-2.16.2/library\sha1.c ****  *
  13:C:/Users/dtjld/workspace/AIoT/src/LiteOS_Lab/iot_link/network/dtls/mbedtls/mbedtls-2.16.2/library\sha1.c ****  *  Unless required by applicable law or agreed to in writing, software
  14:C:/Users/dtjld/workspace/AIoT/src/LiteOS_Lab/iot_link/network/dtls/mbedtls/mbedtls-2.16.2/library\sha1.c ****  *  distributed under the License is distributed on an "AS IS" BASIS, WITHOUT
  15:C:/Users/dtjld/workspace/AIoT/src/LiteOS_Lab/iot_link/network/dtls/mbedtls/mbedtls-2.16.2/library\sha1.c ****  *  WARRANTIES OR CONDITIONS OF ANY KIND, either express or implied.
  16:C:/Users/dtjld/workspace/AIoT/src/LiteOS_Lab/iot_link/network/dtls/mbedtls/mbedtls-2.16.2/library\sha1.c ****  *  See the License for the specific language governing permissions and
  17:C:/Users/dtjld/workspace/AIoT/src/LiteOS_Lab/iot_link/network/dtls/mbedtls/mbedtls-2.16.2/library\sha1.c ****  *  limitations under the License.
  18:C:/Users/dtjld/workspace/AIoT/src/LiteOS_Lab/iot_link/network/dtls/mbedtls/mbedtls-2.16.2/library\sha1.c ****  *
  19:C:/Users/dtjld/workspace/AIoT/src/LiteOS_Lab/iot_link/network/dtls/mbedtls/mbedtls-2.16.2/library\sha1.c ****  *  This file is part of mbed TLS (https://tls.mbed.org)
  20:C:/Users/dtjld/workspace/AIoT/src/LiteOS_Lab/iot_link/network/dtls/mbedtls/mbedtls-2.16.2/library\sha1.c ****  */
  21:C:/Users/dtjld/workspace/AIoT/src/LiteOS_Lab/iot_link/network/dtls/mbedtls/mbedtls-2.16.2/library\sha1.c **** /*
  22:C:/Users/dtjld/workspace/AIoT/src/LiteOS_Lab/iot_link/network/dtls/mbedtls/mbedtls-2.16.2/library\sha1.c ****  *  The SHA-1 standard was published by NIST in 1993.
  23:C:/Users/dtjld/workspace/AIoT/src/LiteOS_Lab/iot_link/network/dtls/mbedtls/mbedtls-2.16.2/library\sha1.c ****  *
  24:C:/Users/dtjld/workspace/AIoT/src/LiteOS_Lab/iot_link/network/dtls/mbedtls/mbedtls-2.16.2/library\sha1.c ****  *  http://www.itl.nist.gov/fipspubs/fip180-1.htm
  25:C:/Users/dtjld/workspace/AIoT/src/LiteOS_Lab/iot_link/network/dtls/mbedtls/mbedtls-2.16.2/library\sha1.c ****  */
  26:C:/Users/dtjld/workspace/AIoT/src/LiteOS_Lab/iot_link/network/dtls/mbedtls/mbedtls-2.16.2/library\sha1.c **** 
  27:C:/Users/dtjld/workspace/AIoT/src/LiteOS_Lab/iot_link/network/dtls/mbedtls/mbedtls-2.16.2/library\sha1.c **** #if !defined(MBEDTLS_CONFIG_FILE)
  28:C:/Users/dtjld/workspace/AIoT/src/LiteOS_Lab/iot_link/network/dtls/mbedtls/mbedtls-2.16.2/library\sha1.c **** #include "mbedtls/config.h"
  29:C:/Users/dtjld/workspace/AIoT/src/LiteOS_Lab/iot_link/network/dtls/mbedtls/mbedtls-2.16.2/library\sha1.c **** #else
  30:C:/Users/dtjld/workspace/AIoT/src/LiteOS_Lab/iot_link/network/dtls/mbedtls/mbedtls-2.16.2/library\sha1.c **** #include MBEDTLS_CONFIG_FILE
  31:C:/Users/dtjld/workspace/AIoT/src/LiteOS_Lab/iot_link/network/dtls/mbedtls/mbedtls-2.16.2/library\sha1.c **** #endif
ARM GAS  C:\Users\dtjld\AppData\Local\Temp\ccQby7Tk.s 			page 2


  32:C:/Users/dtjld/workspace/AIoT/src/LiteOS_Lab/iot_link/network/dtls/mbedtls/mbedtls-2.16.2/library\sha1.c **** 
  33:C:/Users/dtjld/workspace/AIoT/src/LiteOS_Lab/iot_link/network/dtls/mbedtls/mbedtls-2.16.2/library\sha1.c **** #if defined(MBEDTLS_SHA1_C)
  34:C:/Users/dtjld/workspace/AIoT/src/LiteOS_Lab/iot_link/network/dtls/mbedtls/mbedtls-2.16.2/library\sha1.c **** 
  35:C:/Users/dtjld/workspace/AIoT/src/LiteOS_Lab/iot_link/network/dtls/mbedtls/mbedtls-2.16.2/library\sha1.c **** #include "mbedtls/sha1.h"
  36:C:/Users/dtjld/workspace/AIoT/src/LiteOS_Lab/iot_link/network/dtls/mbedtls/mbedtls-2.16.2/library\sha1.c **** #include "mbedtls/platform_util.h"
  37:C:/Users/dtjld/workspace/AIoT/src/LiteOS_Lab/iot_link/network/dtls/mbedtls/mbedtls-2.16.2/library\sha1.c **** 
  38:C:/Users/dtjld/workspace/AIoT/src/LiteOS_Lab/iot_link/network/dtls/mbedtls/mbedtls-2.16.2/library\sha1.c **** #include <string.h>
  39:C:/Users/dtjld/workspace/AIoT/src/LiteOS_Lab/iot_link/network/dtls/mbedtls/mbedtls-2.16.2/library\sha1.c **** 
  40:C:/Users/dtjld/workspace/AIoT/src/LiteOS_Lab/iot_link/network/dtls/mbedtls/mbedtls-2.16.2/library\sha1.c **** #if defined(MBEDTLS_SELF_TEST)
  41:C:/Users/dtjld/workspace/AIoT/src/LiteOS_Lab/iot_link/network/dtls/mbedtls/mbedtls-2.16.2/library\sha1.c **** #if defined(MBEDTLS_PLATFORM_C)
  42:C:/Users/dtjld/workspace/AIoT/src/LiteOS_Lab/iot_link/network/dtls/mbedtls/mbedtls-2.16.2/library\sha1.c **** #include "mbedtls/platform.h"
  43:C:/Users/dtjld/workspace/AIoT/src/LiteOS_Lab/iot_link/network/dtls/mbedtls/mbedtls-2.16.2/library\sha1.c **** #else
  44:C:/Users/dtjld/workspace/AIoT/src/LiteOS_Lab/iot_link/network/dtls/mbedtls/mbedtls-2.16.2/library\sha1.c **** #include <stdio.h>
  45:C:/Users/dtjld/workspace/AIoT/src/LiteOS_Lab/iot_link/network/dtls/mbedtls/mbedtls-2.16.2/library\sha1.c **** #define mbedtls_printf printf
  46:C:/Users/dtjld/workspace/AIoT/src/LiteOS_Lab/iot_link/network/dtls/mbedtls/mbedtls-2.16.2/library\sha1.c **** #endif /* MBEDTLS_PLATFORM_C */
  47:C:/Users/dtjld/workspace/AIoT/src/LiteOS_Lab/iot_link/network/dtls/mbedtls/mbedtls-2.16.2/library\sha1.c **** #endif /* MBEDTLS_SELF_TEST */
  48:C:/Users/dtjld/workspace/AIoT/src/LiteOS_Lab/iot_link/network/dtls/mbedtls/mbedtls-2.16.2/library\sha1.c **** 
  49:C:/Users/dtjld/workspace/AIoT/src/LiteOS_Lab/iot_link/network/dtls/mbedtls/mbedtls-2.16.2/library\sha1.c **** #define SHA1_VALIDATE_RET(cond)                             \
  50:C:/Users/dtjld/workspace/AIoT/src/LiteOS_Lab/iot_link/network/dtls/mbedtls/mbedtls-2.16.2/library\sha1.c ****     MBEDTLS_INTERNAL_VALIDATE_RET( cond, MBEDTLS_ERR_SHA1_BAD_INPUT_DATA )
  51:C:/Users/dtjld/workspace/AIoT/src/LiteOS_Lab/iot_link/network/dtls/mbedtls/mbedtls-2.16.2/library\sha1.c **** 
  52:C:/Users/dtjld/workspace/AIoT/src/LiteOS_Lab/iot_link/network/dtls/mbedtls/mbedtls-2.16.2/library\sha1.c **** #define SHA1_VALIDATE(cond)  MBEDTLS_INTERNAL_VALIDATE( cond )
  53:C:/Users/dtjld/workspace/AIoT/src/LiteOS_Lab/iot_link/network/dtls/mbedtls/mbedtls-2.16.2/library\sha1.c **** 
  54:C:/Users/dtjld/workspace/AIoT/src/LiteOS_Lab/iot_link/network/dtls/mbedtls/mbedtls-2.16.2/library\sha1.c **** #if !defined(MBEDTLS_SHA1_ALT)
  55:C:/Users/dtjld/workspace/AIoT/src/LiteOS_Lab/iot_link/network/dtls/mbedtls/mbedtls-2.16.2/library\sha1.c **** 
  56:C:/Users/dtjld/workspace/AIoT/src/LiteOS_Lab/iot_link/network/dtls/mbedtls/mbedtls-2.16.2/library\sha1.c **** /*
  57:C:/Users/dtjld/workspace/AIoT/src/LiteOS_Lab/iot_link/network/dtls/mbedtls/mbedtls-2.16.2/library\sha1.c ****  * 32-bit integer manipulation macros (big endian)
  58:C:/Users/dtjld/workspace/AIoT/src/LiteOS_Lab/iot_link/network/dtls/mbedtls/mbedtls-2.16.2/library\sha1.c ****  */
  59:C:/Users/dtjld/workspace/AIoT/src/LiteOS_Lab/iot_link/network/dtls/mbedtls/mbedtls-2.16.2/library\sha1.c **** #ifndef GET_UINT32_BE
  60:C:/Users/dtjld/workspace/AIoT/src/LiteOS_Lab/iot_link/network/dtls/mbedtls/mbedtls-2.16.2/library\sha1.c **** #define GET_UINT32_BE(n,b,i)                            \
  61:C:/Users/dtjld/workspace/AIoT/src/LiteOS_Lab/iot_link/network/dtls/mbedtls/mbedtls-2.16.2/library\sha1.c **** {                                                       \
  62:C:/Users/dtjld/workspace/AIoT/src/LiteOS_Lab/iot_link/network/dtls/mbedtls/mbedtls-2.16.2/library\sha1.c ****     (n) = ( (uint32_t) (b)[(i)    ] << 24 )             \
  63:C:/Users/dtjld/workspace/AIoT/src/LiteOS_Lab/iot_link/network/dtls/mbedtls/mbedtls-2.16.2/library\sha1.c ****         | ( (uint32_t) (b)[(i) + 1] << 16 )             \
  64:C:/Users/dtjld/workspace/AIoT/src/LiteOS_Lab/iot_link/network/dtls/mbedtls/mbedtls-2.16.2/library\sha1.c ****         | ( (uint32_t) (b)[(i) + 2] <<  8 )             \
  65:C:/Users/dtjld/workspace/AIoT/src/LiteOS_Lab/iot_link/network/dtls/mbedtls/mbedtls-2.16.2/library\sha1.c ****         | ( (uint32_t) (b)[(i) + 3]       );            \
  66:C:/Users/dtjld/workspace/AIoT/src/LiteOS_Lab/iot_link/network/dtls/mbedtls/mbedtls-2.16.2/library\sha1.c **** }
  67:C:/Users/dtjld/workspace/AIoT/src/LiteOS_Lab/iot_link/network/dtls/mbedtls/mbedtls-2.16.2/library\sha1.c **** #endif
  68:C:/Users/dtjld/workspace/AIoT/src/LiteOS_Lab/iot_link/network/dtls/mbedtls/mbedtls-2.16.2/library\sha1.c **** 
  69:C:/Users/dtjld/workspace/AIoT/src/LiteOS_Lab/iot_link/network/dtls/mbedtls/mbedtls-2.16.2/library\sha1.c **** #ifndef PUT_UINT32_BE
  70:C:/Users/dtjld/workspace/AIoT/src/LiteOS_Lab/iot_link/network/dtls/mbedtls/mbedtls-2.16.2/library\sha1.c **** #define PUT_UINT32_BE(n,b,i)                            \
  71:C:/Users/dtjld/workspace/AIoT/src/LiteOS_Lab/iot_link/network/dtls/mbedtls/mbedtls-2.16.2/library\sha1.c **** {                                                       \
  72:C:/Users/dtjld/workspace/AIoT/src/LiteOS_Lab/iot_link/network/dtls/mbedtls/mbedtls-2.16.2/library\sha1.c ****     (b)[(i)    ] = (unsigned char) ( (n) >> 24 );       \
  73:C:/Users/dtjld/workspace/AIoT/src/LiteOS_Lab/iot_link/network/dtls/mbedtls/mbedtls-2.16.2/library\sha1.c ****     (b)[(i) + 1] = (unsigned char) ( (n) >> 16 );       \
  74:C:/Users/dtjld/workspace/AIoT/src/LiteOS_Lab/iot_link/network/dtls/mbedtls/mbedtls-2.16.2/library\sha1.c ****     (b)[(i) + 2] = (unsigned char) ( (n) >>  8 );       \
  75:C:/Users/dtjld/workspace/AIoT/src/LiteOS_Lab/iot_link/network/dtls/mbedtls/mbedtls-2.16.2/library\sha1.c ****     (b)[(i) + 3] = (unsigned char) ( (n)       );       \
  76:C:/Users/dtjld/workspace/AIoT/src/LiteOS_Lab/iot_link/network/dtls/mbedtls/mbedtls-2.16.2/library\sha1.c **** }
  77:C:/Users/dtjld/workspace/AIoT/src/LiteOS_Lab/iot_link/network/dtls/mbedtls/mbedtls-2.16.2/library\sha1.c **** #endif
  78:C:/Users/dtjld/workspace/AIoT/src/LiteOS_Lab/iot_link/network/dtls/mbedtls/mbedtls-2.16.2/library\sha1.c **** 
  79:C:/Users/dtjld/workspace/AIoT/src/LiteOS_Lab/iot_link/network/dtls/mbedtls/mbedtls-2.16.2/library\sha1.c **** void mbedtls_sha1_init( mbedtls_sha1_context *ctx )
  80:C:/Users/dtjld/workspace/AIoT/src/LiteOS_Lab/iot_link/network/dtls/mbedtls/mbedtls-2.16.2/library\sha1.c **** {
  28              		.loc 1 80 0
  29              		.cfi_startproc
  30              		@ args = 0, pretend = 0, frame = 8
  31              		@ frame_needed = 1, uses_anonymous_args = 0
  32 0000 80B5     		push	{r7, lr}
  33              	.LCFI0:
  34              		.cfi_def_cfa_offset 8
  35              		.cfi_offset 7, -8
ARM GAS  C:\Users\dtjld\AppData\Local\Temp\ccQby7Tk.s 			page 3


  36              		.cfi_offset 14, -4
  37 0002 82B0     		sub	sp, sp, #8
  38              	.LCFI1:
  39              		.cfi_def_cfa_offset 16
  40 0004 00AF     		add	r7, sp, #0
  41              	.LCFI2:
  42              		.cfi_def_cfa_register 7
  43 0006 7860     		str	r0, [r7, #4]
  81:C:/Users/dtjld/workspace/AIoT/src/LiteOS_Lab/iot_link/network/dtls/mbedtls/mbedtls-2.16.2/library\sha1.c ****     SHA1_VALIDATE( ctx != NULL );
  82:C:/Users/dtjld/workspace/AIoT/src/LiteOS_Lab/iot_link/network/dtls/mbedtls/mbedtls-2.16.2/library\sha1.c **** 
  83:C:/Users/dtjld/workspace/AIoT/src/LiteOS_Lab/iot_link/network/dtls/mbedtls/mbedtls-2.16.2/library\sha1.c ****     memset( ctx, 0, sizeof( mbedtls_sha1_context ) );
  44              		.loc 1 83 0
  45 0008 5C22     		movs	r2, #92
  46 000a 0021     		movs	r1, #0
  47 000c 7868     		ldr	r0, [r7, #4]
  48 000e FFF7FEFF 		bl	memset
  84:C:/Users/dtjld/workspace/AIoT/src/LiteOS_Lab/iot_link/network/dtls/mbedtls/mbedtls-2.16.2/library\sha1.c **** }
  49              		.loc 1 84 0
  50 0012 00BF     		nop
  51 0014 0837     		adds	r7, r7, #8
  52              	.LCFI3:
  53              		.cfi_def_cfa_offset 8
  54 0016 BD46     		mov	sp, r7
  55              	.LCFI4:
  56              		.cfi_def_cfa_register 13
  57              		@ sp needed
  58 0018 80BD     		pop	{r7, pc}
  59              		.cfi_endproc
  60              	.LFE3:
  62              		.section	.text.mbedtls_sha1_free,"ax",%progbits
  63              		.align	1
  64              		.global	mbedtls_sha1_free
  65              		.syntax unified
  66              		.thumb
  67              		.thumb_func
  68              		.fpu fpv4-sp-d16
  70              	mbedtls_sha1_free:
  71              	.LFB4:
  85:C:/Users/dtjld/workspace/AIoT/src/LiteOS_Lab/iot_link/network/dtls/mbedtls/mbedtls-2.16.2/library\sha1.c **** 
  86:C:/Users/dtjld/workspace/AIoT/src/LiteOS_Lab/iot_link/network/dtls/mbedtls/mbedtls-2.16.2/library\sha1.c **** void mbedtls_sha1_free( mbedtls_sha1_context *ctx )
  87:C:/Users/dtjld/workspace/AIoT/src/LiteOS_Lab/iot_link/network/dtls/mbedtls/mbedtls-2.16.2/library\sha1.c **** {
  72              		.loc 1 87 0
  73              		.cfi_startproc
  74              		@ args = 0, pretend = 0, frame = 8
  75              		@ frame_needed = 1, uses_anonymous_args = 0
  76 0000 80B5     		push	{r7, lr}
  77              	.LCFI5:
  78              		.cfi_def_cfa_offset 8
  79              		.cfi_offset 7, -8
  80              		.cfi_offset 14, -4
  81 0002 82B0     		sub	sp, sp, #8
  82              	.LCFI6:
  83              		.cfi_def_cfa_offset 16
  84 0004 00AF     		add	r7, sp, #0
  85              	.LCFI7:
  86              		.cfi_def_cfa_register 7
  87 0006 7860     		str	r0, [r7, #4]
ARM GAS  C:\Users\dtjld\AppData\Local\Temp\ccQby7Tk.s 			page 4


  88:C:/Users/dtjld/workspace/AIoT/src/LiteOS_Lab/iot_link/network/dtls/mbedtls/mbedtls-2.16.2/library\sha1.c ****     if( ctx == NULL )
  88              		.loc 1 88 0
  89 0008 7B68     		ldr	r3, [r7, #4]
  90 000a 002B     		cmp	r3, #0
  91 000c 04D0     		beq	.L5
  89:C:/Users/dtjld/workspace/AIoT/src/LiteOS_Lab/iot_link/network/dtls/mbedtls/mbedtls-2.16.2/library\sha1.c ****         return;
  90:C:/Users/dtjld/workspace/AIoT/src/LiteOS_Lab/iot_link/network/dtls/mbedtls/mbedtls-2.16.2/library\sha1.c **** 
  91:C:/Users/dtjld/workspace/AIoT/src/LiteOS_Lab/iot_link/network/dtls/mbedtls/mbedtls-2.16.2/library\sha1.c ****     mbedtls_platform_zeroize( ctx, sizeof( mbedtls_sha1_context ) );
  92              		.loc 1 91 0
  93 000e 5C21     		movs	r1, #92
  94 0010 7868     		ldr	r0, [r7, #4]
  95 0012 FFF7FEFF 		bl	mbedtls_platform_zeroize
  96 0016 00E0     		b	.L2
  97              	.L5:
  89:C:/Users/dtjld/workspace/AIoT/src/LiteOS_Lab/iot_link/network/dtls/mbedtls/mbedtls-2.16.2/library\sha1.c ****         return;
  98              		.loc 1 89 0
  99 0018 00BF     		nop
 100              	.L2:
  92:C:/Users/dtjld/workspace/AIoT/src/LiteOS_Lab/iot_link/network/dtls/mbedtls/mbedtls-2.16.2/library\sha1.c **** }
 101              		.loc 1 92 0
 102 001a 0837     		adds	r7, r7, #8
 103              	.LCFI8:
 104              		.cfi_def_cfa_offset 8
 105 001c BD46     		mov	sp, r7
 106              	.LCFI9:
 107              		.cfi_def_cfa_register 13
 108              		@ sp needed
 109 001e 80BD     		pop	{r7, pc}
 110              		.cfi_endproc
 111              	.LFE4:
 113              		.section	.text.mbedtls_sha1_clone,"ax",%progbits
 114              		.align	1
 115              		.global	mbedtls_sha1_clone
 116              		.syntax unified
 117              		.thumb
 118              		.thumb_func
 119              		.fpu fpv4-sp-d16
 121              	mbedtls_sha1_clone:
 122              	.LFB5:
  93:C:/Users/dtjld/workspace/AIoT/src/LiteOS_Lab/iot_link/network/dtls/mbedtls/mbedtls-2.16.2/library\sha1.c **** 
  94:C:/Users/dtjld/workspace/AIoT/src/LiteOS_Lab/iot_link/network/dtls/mbedtls/mbedtls-2.16.2/library\sha1.c **** void mbedtls_sha1_clone( mbedtls_sha1_context *dst,
  95:C:/Users/dtjld/workspace/AIoT/src/LiteOS_Lab/iot_link/network/dtls/mbedtls/mbedtls-2.16.2/library\sha1.c ****                          const mbedtls_sha1_context *src )
  96:C:/Users/dtjld/workspace/AIoT/src/LiteOS_Lab/iot_link/network/dtls/mbedtls/mbedtls-2.16.2/library\sha1.c **** {
 123              		.loc 1 96 0
 124              		.cfi_startproc
 125              		@ args = 0, pretend = 0, frame = 8
 126              		@ frame_needed = 1, uses_anonymous_args = 0
 127 0000 80B5     		push	{r7, lr}
 128              	.LCFI10:
 129              		.cfi_def_cfa_offset 8
 130              		.cfi_offset 7, -8
 131              		.cfi_offset 14, -4
 132 0002 82B0     		sub	sp, sp, #8
 133              	.LCFI11:
 134              		.cfi_def_cfa_offset 16
 135 0004 00AF     		add	r7, sp, #0
 136              	.LCFI12:
ARM GAS  C:\Users\dtjld\AppData\Local\Temp\ccQby7Tk.s 			page 5


 137              		.cfi_def_cfa_register 7
 138 0006 7860     		str	r0, [r7, #4]
 139 0008 3960     		str	r1, [r7]
  97:C:/Users/dtjld/workspace/AIoT/src/LiteOS_Lab/iot_link/network/dtls/mbedtls/mbedtls-2.16.2/library\sha1.c ****     SHA1_VALIDATE( dst != NULL );
  98:C:/Users/dtjld/workspace/AIoT/src/LiteOS_Lab/iot_link/network/dtls/mbedtls/mbedtls-2.16.2/library\sha1.c ****     SHA1_VALIDATE( src != NULL );
  99:C:/Users/dtjld/workspace/AIoT/src/LiteOS_Lab/iot_link/network/dtls/mbedtls/mbedtls-2.16.2/library\sha1.c **** 
 100:C:/Users/dtjld/workspace/AIoT/src/LiteOS_Lab/iot_link/network/dtls/mbedtls/mbedtls-2.16.2/library\sha1.c ****     *dst = *src;
 140              		.loc 1 100 0
 141 000a 7A68     		ldr	r2, [r7, #4]
 142 000c 3B68     		ldr	r3, [r7]
 143 000e 1046     		mov	r0, r2
 144 0010 1946     		mov	r1, r3
 145 0012 5C23     		movs	r3, #92
 146 0014 1A46     		mov	r2, r3
 147 0016 FFF7FEFF 		bl	memcpy
 101:C:/Users/dtjld/workspace/AIoT/src/LiteOS_Lab/iot_link/network/dtls/mbedtls/mbedtls-2.16.2/library\sha1.c **** }
 148              		.loc 1 101 0
 149 001a 00BF     		nop
 150 001c 0837     		adds	r7, r7, #8
 151              	.LCFI13:
 152              		.cfi_def_cfa_offset 8
 153 001e BD46     		mov	sp, r7
 154              	.LCFI14:
 155              		.cfi_def_cfa_register 13
 156              		@ sp needed
 157 0020 80BD     		pop	{r7, pc}
 158              		.cfi_endproc
 159              	.LFE5:
 161              		.section	.text.mbedtls_sha1_starts_ret,"ax",%progbits
 162              		.align	1
 163              		.global	mbedtls_sha1_starts_ret
 164              		.syntax unified
 165              		.thumb
 166              		.thumb_func
 167              		.fpu fpv4-sp-d16
 169              	mbedtls_sha1_starts_ret:
 170              	.LFB6:
 102:C:/Users/dtjld/workspace/AIoT/src/LiteOS_Lab/iot_link/network/dtls/mbedtls/mbedtls-2.16.2/library\sha1.c **** 
 103:C:/Users/dtjld/workspace/AIoT/src/LiteOS_Lab/iot_link/network/dtls/mbedtls/mbedtls-2.16.2/library\sha1.c **** /*
 104:C:/Users/dtjld/workspace/AIoT/src/LiteOS_Lab/iot_link/network/dtls/mbedtls/mbedtls-2.16.2/library\sha1.c ****  * SHA-1 context setup
 105:C:/Users/dtjld/workspace/AIoT/src/LiteOS_Lab/iot_link/network/dtls/mbedtls/mbedtls-2.16.2/library\sha1.c ****  */
 106:C:/Users/dtjld/workspace/AIoT/src/LiteOS_Lab/iot_link/network/dtls/mbedtls/mbedtls-2.16.2/library\sha1.c **** int mbedtls_sha1_starts_ret( mbedtls_sha1_context *ctx )
 107:C:/Users/dtjld/workspace/AIoT/src/LiteOS_Lab/iot_link/network/dtls/mbedtls/mbedtls-2.16.2/library\sha1.c **** {
 171              		.loc 1 107 0
 172              		.cfi_startproc
 173              		@ args = 0, pretend = 0, frame = 8
 174              		@ frame_needed = 1, uses_anonymous_args = 0
 175              		@ link register save eliminated.
 176 0000 80B4     		push	{r7}
 177              	.LCFI15:
 178              		.cfi_def_cfa_offset 4
 179              		.cfi_offset 7, -4
 180 0002 83B0     		sub	sp, sp, #12
 181              	.LCFI16:
 182              		.cfi_def_cfa_offset 16
 183 0004 00AF     		add	r7, sp, #0
 184              	.LCFI17:
ARM GAS  C:\Users\dtjld\AppData\Local\Temp\ccQby7Tk.s 			page 6


 185              		.cfi_def_cfa_register 7
 186 0006 7860     		str	r0, [r7, #4]
 108:C:/Users/dtjld/workspace/AIoT/src/LiteOS_Lab/iot_link/network/dtls/mbedtls/mbedtls-2.16.2/library\sha1.c ****     SHA1_VALIDATE_RET( ctx != NULL );
 109:C:/Users/dtjld/workspace/AIoT/src/LiteOS_Lab/iot_link/network/dtls/mbedtls/mbedtls-2.16.2/library\sha1.c **** 
 110:C:/Users/dtjld/workspace/AIoT/src/LiteOS_Lab/iot_link/network/dtls/mbedtls/mbedtls-2.16.2/library\sha1.c ****     ctx->total[0] = 0;
 187              		.loc 1 110 0
 188 0008 7B68     		ldr	r3, [r7, #4]
 189 000a 0022     		movs	r2, #0
 190 000c 1A60     		str	r2, [r3]
 111:C:/Users/dtjld/workspace/AIoT/src/LiteOS_Lab/iot_link/network/dtls/mbedtls/mbedtls-2.16.2/library\sha1.c ****     ctx->total[1] = 0;
 191              		.loc 1 111 0
 192 000e 7B68     		ldr	r3, [r7, #4]
 193 0010 0022     		movs	r2, #0
 194 0012 5A60     		str	r2, [r3, #4]
 112:C:/Users/dtjld/workspace/AIoT/src/LiteOS_Lab/iot_link/network/dtls/mbedtls/mbedtls-2.16.2/library\sha1.c **** 
 113:C:/Users/dtjld/workspace/AIoT/src/LiteOS_Lab/iot_link/network/dtls/mbedtls/mbedtls-2.16.2/library\sha1.c ****     ctx->state[0] = 0x67452301;
 195              		.loc 1 113 0
 196 0014 7B68     		ldr	r3, [r7, #4]
 197 0016 0A4A     		ldr	r2, .L9
 198 0018 9A60     		str	r2, [r3, #8]
 114:C:/Users/dtjld/workspace/AIoT/src/LiteOS_Lab/iot_link/network/dtls/mbedtls/mbedtls-2.16.2/library\sha1.c ****     ctx->state[1] = 0xEFCDAB89;
 199              		.loc 1 114 0
 200 001a 7B68     		ldr	r3, [r7, #4]
 201 001c 094A     		ldr	r2, .L9+4
 202 001e DA60     		str	r2, [r3, #12]
 115:C:/Users/dtjld/workspace/AIoT/src/LiteOS_Lab/iot_link/network/dtls/mbedtls/mbedtls-2.16.2/library\sha1.c ****     ctx->state[2] = 0x98BADCFE;
 203              		.loc 1 115 0
 204 0020 7B68     		ldr	r3, [r7, #4]
 205 0022 094A     		ldr	r2, .L9+8
 206 0024 1A61     		str	r2, [r3, #16]
 116:C:/Users/dtjld/workspace/AIoT/src/LiteOS_Lab/iot_link/network/dtls/mbedtls/mbedtls-2.16.2/library\sha1.c ****     ctx->state[3] = 0x10325476;
 207              		.loc 1 116 0
 208 0026 7B68     		ldr	r3, [r7, #4]
 209 0028 084A     		ldr	r2, .L9+12
 210 002a 5A61     		str	r2, [r3, #20]
 117:C:/Users/dtjld/workspace/AIoT/src/LiteOS_Lab/iot_link/network/dtls/mbedtls/mbedtls-2.16.2/library\sha1.c ****     ctx->state[4] = 0xC3D2E1F0;
 211              		.loc 1 117 0
 212 002c 7B68     		ldr	r3, [r7, #4]
 213 002e 084A     		ldr	r2, .L9+16
 214 0030 9A61     		str	r2, [r3, #24]
 118:C:/Users/dtjld/workspace/AIoT/src/LiteOS_Lab/iot_link/network/dtls/mbedtls/mbedtls-2.16.2/library\sha1.c **** 
 119:C:/Users/dtjld/workspace/AIoT/src/LiteOS_Lab/iot_link/network/dtls/mbedtls/mbedtls-2.16.2/library\sha1.c ****     return( 0 );
 215              		.loc 1 119 0
 216 0032 0023     		movs	r3, #0
 120:C:/Users/dtjld/workspace/AIoT/src/LiteOS_Lab/iot_link/network/dtls/mbedtls/mbedtls-2.16.2/library\sha1.c **** }
 217              		.loc 1 120 0
 218 0034 1846     		mov	r0, r3
 219 0036 0C37     		adds	r7, r7, #12
 220              	.LCFI18:
 221              		.cfi_def_cfa_offset 4
 222 0038 BD46     		mov	sp, r7
 223              	.LCFI19:
 224              		.cfi_def_cfa_register 13
 225              		@ sp needed
 226 003a 5DF8047B 		ldr	r7, [sp], #4
 227              	.LCFI20:
 228              		.cfi_restore 7
ARM GAS  C:\Users\dtjld\AppData\Local\Temp\ccQby7Tk.s 			page 7


 229              		.cfi_def_cfa_offset 0
 230 003e 7047     		bx	lr
 231              	.L10:
 232              		.align	2
 233              	.L9:
 234 0040 01234567 		.word	1732584193
 235 0044 89ABCDEF 		.word	-271733879
 236 0048 FEDCBA98 		.word	-1732584194
 237 004c 76543210 		.word	271733878
 238 0050 F0E1D2C3 		.word	-1009589776
 239              		.cfi_endproc
 240              	.LFE6:
 242              		.section	.text.mbedtls_sha1_starts,"ax",%progbits
 243              		.align	1
 244              		.global	mbedtls_sha1_starts
 245              		.syntax unified
 246              		.thumb
 247              		.thumb_func
 248              		.fpu fpv4-sp-d16
 250              	mbedtls_sha1_starts:
 251              	.LFB7:
 121:C:/Users/dtjld/workspace/AIoT/src/LiteOS_Lab/iot_link/network/dtls/mbedtls/mbedtls-2.16.2/library\sha1.c **** 
 122:C:/Users/dtjld/workspace/AIoT/src/LiteOS_Lab/iot_link/network/dtls/mbedtls/mbedtls-2.16.2/library\sha1.c **** #if !defined(MBEDTLS_DEPRECATED_REMOVED)
 123:C:/Users/dtjld/workspace/AIoT/src/LiteOS_Lab/iot_link/network/dtls/mbedtls/mbedtls-2.16.2/library\sha1.c **** void mbedtls_sha1_starts( mbedtls_sha1_context *ctx )
 124:C:/Users/dtjld/workspace/AIoT/src/LiteOS_Lab/iot_link/network/dtls/mbedtls/mbedtls-2.16.2/library\sha1.c **** {
 252              		.loc 1 124 0
 253              		.cfi_startproc
 254              		@ args = 0, pretend = 0, frame = 8
 255              		@ frame_needed = 1, uses_anonymous_args = 0
 256 0000 80B5     		push	{r7, lr}
 257              	.LCFI21:
 258              		.cfi_def_cfa_offset 8
 259              		.cfi_offset 7, -8
 260              		.cfi_offset 14, -4
 261 0002 82B0     		sub	sp, sp, #8
 262              	.LCFI22:
 263              		.cfi_def_cfa_offset 16
 264 0004 00AF     		add	r7, sp, #0
 265              	.LCFI23:
 266              		.cfi_def_cfa_register 7
 267 0006 7860     		str	r0, [r7, #4]
 125:C:/Users/dtjld/workspace/AIoT/src/LiteOS_Lab/iot_link/network/dtls/mbedtls/mbedtls-2.16.2/library\sha1.c ****     mbedtls_sha1_starts_ret( ctx );
 268              		.loc 1 125 0
 269 0008 7868     		ldr	r0, [r7, #4]
 270 000a FFF7FEFF 		bl	mbedtls_sha1_starts_ret
 126:C:/Users/dtjld/workspace/AIoT/src/LiteOS_Lab/iot_link/network/dtls/mbedtls/mbedtls-2.16.2/library\sha1.c **** }
 271              		.loc 1 126 0
 272 000e 00BF     		nop
 273 0010 0837     		adds	r7, r7, #8
 274              	.LCFI24:
 275              		.cfi_def_cfa_offset 8
 276 0012 BD46     		mov	sp, r7
 277              	.LCFI25:
 278              		.cfi_def_cfa_register 13
 279              		@ sp needed
 280 0014 80BD     		pop	{r7, pc}
 281              		.cfi_endproc
ARM GAS  C:\Users\dtjld\AppData\Local\Temp\ccQby7Tk.s 			page 8


 282              	.LFE7:
 284              		.section	.text.mbedtls_internal_sha1_process,"ax",%progbits
 285              		.align	1
 286              		.global	mbedtls_internal_sha1_process
 287              		.syntax unified
 288              		.thumb
 289              		.thumb_func
 290              		.fpu fpv4-sp-d16
 292              	mbedtls_internal_sha1_process:
 293              	.LFB8:
 127:C:/Users/dtjld/workspace/AIoT/src/LiteOS_Lab/iot_link/network/dtls/mbedtls/mbedtls-2.16.2/library\sha1.c **** #endif
 128:C:/Users/dtjld/workspace/AIoT/src/LiteOS_Lab/iot_link/network/dtls/mbedtls/mbedtls-2.16.2/library\sha1.c **** 
 129:C:/Users/dtjld/workspace/AIoT/src/LiteOS_Lab/iot_link/network/dtls/mbedtls/mbedtls-2.16.2/library\sha1.c **** #if !defined(MBEDTLS_SHA1_PROCESS_ALT)
 130:C:/Users/dtjld/workspace/AIoT/src/LiteOS_Lab/iot_link/network/dtls/mbedtls/mbedtls-2.16.2/library\sha1.c **** int mbedtls_internal_sha1_process( mbedtls_sha1_context *ctx,
 131:C:/Users/dtjld/workspace/AIoT/src/LiteOS_Lab/iot_link/network/dtls/mbedtls/mbedtls-2.16.2/library\sha1.c ****                                    const unsigned char data[64] )
 132:C:/Users/dtjld/workspace/AIoT/src/LiteOS_Lab/iot_link/network/dtls/mbedtls/mbedtls-2.16.2/library\sha1.c **** {
 294              		.loc 1 132 0
 295              		.cfi_startproc
 296              		@ args = 0, pretend = 0, frame = 96
 297              		@ frame_needed = 1, uses_anonymous_args = 0
 298              		@ link register save eliminated.
 299 0000 80B4     		push	{r7}
 300              	.LCFI26:
 301              		.cfi_def_cfa_offset 4
 302              		.cfi_offset 7, -4
 303 0002 99B0     		sub	sp, sp, #100
 304              	.LCFI27:
 305              		.cfi_def_cfa_offset 104
 306 0004 00AF     		add	r7, sp, #0
 307              	.LCFI28:
 308              		.cfi_def_cfa_register 7
 309 0006 7860     		str	r0, [r7, #4]
 310 0008 3960     		str	r1, [r7]
 133:C:/Users/dtjld/workspace/AIoT/src/LiteOS_Lab/iot_link/network/dtls/mbedtls/mbedtls-2.16.2/library\sha1.c ****     uint32_t temp, W[16], A, B, C, D, E;
 134:C:/Users/dtjld/workspace/AIoT/src/LiteOS_Lab/iot_link/network/dtls/mbedtls/mbedtls-2.16.2/library\sha1.c **** 
 135:C:/Users/dtjld/workspace/AIoT/src/LiteOS_Lab/iot_link/network/dtls/mbedtls/mbedtls-2.16.2/library\sha1.c ****     SHA1_VALIDATE_RET( ctx != NULL );
 136:C:/Users/dtjld/workspace/AIoT/src/LiteOS_Lab/iot_link/network/dtls/mbedtls/mbedtls-2.16.2/library\sha1.c ****     SHA1_VALIDATE_RET( (const unsigned char *)data != NULL );
 137:C:/Users/dtjld/workspace/AIoT/src/LiteOS_Lab/iot_link/network/dtls/mbedtls/mbedtls-2.16.2/library\sha1.c **** 
 138:C:/Users/dtjld/workspace/AIoT/src/LiteOS_Lab/iot_link/network/dtls/mbedtls/mbedtls-2.16.2/library\sha1.c ****     GET_UINT32_BE( W[ 0], data,  0 );
 311              		.loc 1 138 0
 312 000a 3B68     		ldr	r3, [r7]
 313 000c 1B78     		ldrb	r3, [r3]	@ zero_extendqisi2
 314 000e 1A06     		lsls	r2, r3, #24
 315 0010 3B68     		ldr	r3, [r7]
 316 0012 0133     		adds	r3, r3, #1
 317 0014 1B78     		ldrb	r3, [r3]	@ zero_extendqisi2
 318 0016 1B04     		lsls	r3, r3, #16
 319 0018 1A43     		orrs	r2, r2, r3
 320 001a 3B68     		ldr	r3, [r7]
 321 001c 0233     		adds	r3, r3, #2
 322 001e 1B78     		ldrb	r3, [r3]	@ zero_extendqisi2
 323 0020 1B02     		lsls	r3, r3, #8
 324 0022 1343     		orrs	r3, r3, r2
 325 0024 3A68     		ldr	r2, [r7]
 326 0026 0332     		adds	r2, r2, #3
 327 0028 1278     		ldrb	r2, [r2]	@ zero_extendqisi2
 328 002a 1343     		orrs	r3, r3, r2
ARM GAS  C:\Users\dtjld\AppData\Local\Temp\ccQby7Tk.s 			page 9


 329 002c BB60     		str	r3, [r7, #8]
 139:C:/Users/dtjld/workspace/AIoT/src/LiteOS_Lab/iot_link/network/dtls/mbedtls/mbedtls-2.16.2/library\sha1.c ****     GET_UINT32_BE( W[ 1], data,  4 );
 330              		.loc 1 139 0
 331 002e 3B68     		ldr	r3, [r7]
 332 0030 0433     		adds	r3, r3, #4
 333 0032 1B78     		ldrb	r3, [r3]	@ zero_extendqisi2
 334 0034 1A06     		lsls	r2, r3, #24
 335 0036 3B68     		ldr	r3, [r7]
 336 0038 0533     		adds	r3, r3, #5
 337 003a 1B78     		ldrb	r3, [r3]	@ zero_extendqisi2
 338 003c 1B04     		lsls	r3, r3, #16
 339 003e 1A43     		orrs	r2, r2, r3
 340 0040 3B68     		ldr	r3, [r7]
 341 0042 0633     		adds	r3, r3, #6
 342 0044 1B78     		ldrb	r3, [r3]	@ zero_extendqisi2
 343 0046 1B02     		lsls	r3, r3, #8
 344 0048 1343     		orrs	r3, r3, r2
 345 004a 3A68     		ldr	r2, [r7]
 346 004c 0732     		adds	r2, r2, #7
 347 004e 1278     		ldrb	r2, [r2]	@ zero_extendqisi2
 348 0050 1343     		orrs	r3, r3, r2
 349 0052 FB60     		str	r3, [r7, #12]
 140:C:/Users/dtjld/workspace/AIoT/src/LiteOS_Lab/iot_link/network/dtls/mbedtls/mbedtls-2.16.2/library\sha1.c ****     GET_UINT32_BE( W[ 2], data,  8 );
 350              		.loc 1 140 0
 351 0054 3B68     		ldr	r3, [r7]
 352 0056 0833     		adds	r3, r3, #8
 353 0058 1B78     		ldrb	r3, [r3]	@ zero_extendqisi2
 354 005a 1A06     		lsls	r2, r3, #24
 355 005c 3B68     		ldr	r3, [r7]
 356 005e 0933     		adds	r3, r3, #9
 357 0060 1B78     		ldrb	r3, [r3]	@ zero_extendqisi2
 358 0062 1B04     		lsls	r3, r3, #16
 359 0064 1A43     		orrs	r2, r2, r3
 360 0066 3B68     		ldr	r3, [r7]
 361 0068 0A33     		adds	r3, r3, #10
 362 006a 1B78     		ldrb	r3, [r3]	@ zero_extendqisi2
 363 006c 1B02     		lsls	r3, r3, #8
 364 006e 1343     		orrs	r3, r3, r2
 365 0070 3A68     		ldr	r2, [r7]
 366 0072 0B32     		adds	r2, r2, #11
 367 0074 1278     		ldrb	r2, [r2]	@ zero_extendqisi2
 368 0076 1343     		orrs	r3, r3, r2
 369 0078 3B61     		str	r3, [r7, #16]
 141:C:/Users/dtjld/workspace/AIoT/src/LiteOS_Lab/iot_link/network/dtls/mbedtls/mbedtls-2.16.2/library\sha1.c ****     GET_UINT32_BE( W[ 3], data, 12 );
 370              		.loc 1 141 0
 371 007a 3B68     		ldr	r3, [r7]
 372 007c 0C33     		adds	r3, r3, #12
 373 007e 1B78     		ldrb	r3, [r3]	@ zero_extendqisi2
 374 0080 1A06     		lsls	r2, r3, #24
 375 0082 3B68     		ldr	r3, [r7]
 376 0084 0D33     		adds	r3, r3, #13
 377 0086 1B78     		ldrb	r3, [r3]	@ zero_extendqisi2
 378 0088 1B04     		lsls	r3, r3, #16
 379 008a 1A43     		orrs	r2, r2, r3
 380 008c 3B68     		ldr	r3, [r7]
 381 008e 0E33     		adds	r3, r3, #14
 382 0090 1B78     		ldrb	r3, [r3]	@ zero_extendqisi2
ARM GAS  C:\Users\dtjld\AppData\Local\Temp\ccQby7Tk.s 			page 10


 383 0092 1B02     		lsls	r3, r3, #8
 384 0094 1343     		orrs	r3, r3, r2
 385 0096 3A68     		ldr	r2, [r7]
 386 0098 0F32     		adds	r2, r2, #15
 387 009a 1278     		ldrb	r2, [r2]	@ zero_extendqisi2
 388 009c 1343     		orrs	r3, r3, r2
 389 009e 7B61     		str	r3, [r7, #20]
 142:C:/Users/dtjld/workspace/AIoT/src/LiteOS_Lab/iot_link/network/dtls/mbedtls/mbedtls-2.16.2/library\sha1.c ****     GET_UINT32_BE( W[ 4], data, 16 );
 390              		.loc 1 142 0
 391 00a0 3B68     		ldr	r3, [r7]
 392 00a2 1033     		adds	r3, r3, #16
 393 00a4 1B78     		ldrb	r3, [r3]	@ zero_extendqisi2
 394 00a6 1A06     		lsls	r2, r3, #24
 395 00a8 3B68     		ldr	r3, [r7]
 396 00aa 1133     		adds	r3, r3, #17
 397 00ac 1B78     		ldrb	r3, [r3]	@ zero_extendqisi2
 398 00ae 1B04     		lsls	r3, r3, #16
 399 00b0 1A43     		orrs	r2, r2, r3
 400 00b2 3B68     		ldr	r3, [r7]
 401 00b4 1233     		adds	r3, r3, #18
 402 00b6 1B78     		ldrb	r3, [r3]	@ zero_extendqisi2
 403 00b8 1B02     		lsls	r3, r3, #8
 404 00ba 1343     		orrs	r3, r3, r2
 405 00bc 3A68     		ldr	r2, [r7]
 406 00be 1332     		adds	r2, r2, #19
 407 00c0 1278     		ldrb	r2, [r2]	@ zero_extendqisi2
 408 00c2 1343     		orrs	r3, r3, r2
 409 00c4 BB61     		str	r3, [r7, #24]
 143:C:/Users/dtjld/workspace/AIoT/src/LiteOS_Lab/iot_link/network/dtls/mbedtls/mbedtls-2.16.2/library\sha1.c ****     GET_UINT32_BE( W[ 5], data, 20 );
 410              		.loc 1 143 0
 411 00c6 3B68     		ldr	r3, [r7]
 412 00c8 1433     		adds	r3, r3, #20
 413 00ca 1B78     		ldrb	r3, [r3]	@ zero_extendqisi2
 414 00cc 1A06     		lsls	r2, r3, #24
 415 00ce 3B68     		ldr	r3, [r7]
 416 00d0 1533     		adds	r3, r3, #21
 417 00d2 1B78     		ldrb	r3, [r3]	@ zero_extendqisi2
 418 00d4 1B04     		lsls	r3, r3, #16
 419 00d6 1A43     		orrs	r2, r2, r3
 420 00d8 3B68     		ldr	r3, [r7]
 421 00da 1633     		adds	r3, r3, #22
 422 00dc 1B78     		ldrb	r3, [r3]	@ zero_extendqisi2
 423 00de 1B02     		lsls	r3, r3, #8
 424 00e0 1343     		orrs	r3, r3, r2
 425 00e2 3A68     		ldr	r2, [r7]
 426 00e4 1732     		adds	r2, r2, #23
 427 00e6 1278     		ldrb	r2, [r2]	@ zero_extendqisi2
 428 00e8 1343     		orrs	r3, r3, r2
 429 00ea FB61     		str	r3, [r7, #28]
 144:C:/Users/dtjld/workspace/AIoT/src/LiteOS_Lab/iot_link/network/dtls/mbedtls/mbedtls-2.16.2/library\sha1.c ****     GET_UINT32_BE( W[ 6], data, 24 );
 430              		.loc 1 144 0
 431 00ec 3B68     		ldr	r3, [r7]
 432 00ee 1833     		adds	r3, r3, #24
 433 00f0 1B78     		ldrb	r3, [r3]	@ zero_extendqisi2
 434 00f2 1A06     		lsls	r2, r3, #24
 435 00f4 3B68     		ldr	r3, [r7]
 436 00f6 1933     		adds	r3, r3, #25
ARM GAS  C:\Users\dtjld\AppData\Local\Temp\ccQby7Tk.s 			page 11


 437 00f8 1B78     		ldrb	r3, [r3]	@ zero_extendqisi2
 438 00fa 1B04     		lsls	r3, r3, #16
 439 00fc 1A43     		orrs	r2, r2, r3
 440 00fe 3B68     		ldr	r3, [r7]
 441 0100 1A33     		adds	r3, r3, #26
 442 0102 1B78     		ldrb	r3, [r3]	@ zero_extendqisi2
 443 0104 1B02     		lsls	r3, r3, #8
 444 0106 1343     		orrs	r3, r3, r2
 445 0108 3A68     		ldr	r2, [r7]
 446 010a 1B32     		adds	r2, r2, #27
 447 010c 1278     		ldrb	r2, [r2]	@ zero_extendqisi2
 448 010e 1343     		orrs	r3, r3, r2
 449 0110 3B62     		str	r3, [r7, #32]
 145:C:/Users/dtjld/workspace/AIoT/src/LiteOS_Lab/iot_link/network/dtls/mbedtls/mbedtls-2.16.2/library\sha1.c ****     GET_UINT32_BE( W[ 7], data, 28 );
 450              		.loc 1 145 0
 451 0112 3B68     		ldr	r3, [r7]
 452 0114 1C33     		adds	r3, r3, #28
 453 0116 1B78     		ldrb	r3, [r3]	@ zero_extendqisi2
 454 0118 1A06     		lsls	r2, r3, #24
 455 011a 3B68     		ldr	r3, [r7]
 456 011c 1D33     		adds	r3, r3, #29
 457 011e 1B78     		ldrb	r3, [r3]	@ zero_extendqisi2
 458 0120 1B04     		lsls	r3, r3, #16
 459 0122 1A43     		orrs	r2, r2, r3
 460 0124 3B68     		ldr	r3, [r7]
 461 0126 1E33     		adds	r3, r3, #30
 462 0128 1B78     		ldrb	r3, [r3]	@ zero_extendqisi2
 463 012a 1B02     		lsls	r3, r3, #8
 464 012c 1343     		orrs	r3, r3, r2
 465 012e 3A68     		ldr	r2, [r7]
 466 0130 1F32     		adds	r2, r2, #31
 467 0132 1278     		ldrb	r2, [r2]	@ zero_extendqisi2
 468 0134 1343     		orrs	r3, r3, r2
 469 0136 7B62     		str	r3, [r7, #36]
 146:C:/Users/dtjld/workspace/AIoT/src/LiteOS_Lab/iot_link/network/dtls/mbedtls/mbedtls-2.16.2/library\sha1.c ****     GET_UINT32_BE( W[ 8], data, 32 );
 470              		.loc 1 146 0
 471 0138 3B68     		ldr	r3, [r7]
 472 013a 2033     		adds	r3, r3, #32
 473 013c 1B78     		ldrb	r3, [r3]	@ zero_extendqisi2
 474 013e 1A06     		lsls	r2, r3, #24
 475 0140 3B68     		ldr	r3, [r7]
 476 0142 2133     		adds	r3, r3, #33
 477 0144 1B78     		ldrb	r3, [r3]	@ zero_extendqisi2
 478 0146 1B04     		lsls	r3, r3, #16
 479 0148 1A43     		orrs	r2, r2, r3
 480 014a 3B68     		ldr	r3, [r7]
 481 014c 2233     		adds	r3, r3, #34
 482 014e 1B78     		ldrb	r3, [r3]	@ zero_extendqisi2
 483 0150 1B02     		lsls	r3, r3, #8
 484 0152 1343     		orrs	r3, r3, r2
 485 0154 3A68     		ldr	r2, [r7]
 486 0156 2332     		adds	r2, r2, #35
 487 0158 1278     		ldrb	r2, [r2]	@ zero_extendqisi2
 488 015a 1343     		orrs	r3, r3, r2
 489 015c BB62     		str	r3, [r7, #40]
 147:C:/Users/dtjld/workspace/AIoT/src/LiteOS_Lab/iot_link/network/dtls/mbedtls/mbedtls-2.16.2/library\sha1.c ****     GET_UINT32_BE( W[ 9], data, 36 );
 490              		.loc 1 147 0
ARM GAS  C:\Users\dtjld\AppData\Local\Temp\ccQby7Tk.s 			page 12


 491 015e 3B68     		ldr	r3, [r7]
 492 0160 2433     		adds	r3, r3, #36
 493 0162 1B78     		ldrb	r3, [r3]	@ zero_extendqisi2
 494 0164 1A06     		lsls	r2, r3, #24
 495 0166 3B68     		ldr	r3, [r7]
 496 0168 2533     		adds	r3, r3, #37
 497 016a 1B78     		ldrb	r3, [r3]	@ zero_extendqisi2
 498 016c 1B04     		lsls	r3, r3, #16
 499 016e 1A43     		orrs	r2, r2, r3
 500 0170 3B68     		ldr	r3, [r7]
 501 0172 2633     		adds	r3, r3, #38
 502 0174 1B78     		ldrb	r3, [r3]	@ zero_extendqisi2
 503 0176 1B02     		lsls	r3, r3, #8
 504 0178 1343     		orrs	r3, r3, r2
 505 017a 3A68     		ldr	r2, [r7]
 506 017c 2732     		adds	r2, r2, #39
 507 017e 1278     		ldrb	r2, [r2]	@ zero_extendqisi2
 508 0180 1343     		orrs	r3, r3, r2
 509 0182 FB62     		str	r3, [r7, #44]
 148:C:/Users/dtjld/workspace/AIoT/src/LiteOS_Lab/iot_link/network/dtls/mbedtls/mbedtls-2.16.2/library\sha1.c ****     GET_UINT32_BE( W[10], data, 40 );
 510              		.loc 1 148 0
 511 0184 3B68     		ldr	r3, [r7]
 512 0186 2833     		adds	r3, r3, #40
 513 0188 1B78     		ldrb	r3, [r3]	@ zero_extendqisi2
 514 018a 1A06     		lsls	r2, r3, #24
 515 018c 3B68     		ldr	r3, [r7]
 516 018e 2933     		adds	r3, r3, #41
 517 0190 1B78     		ldrb	r3, [r3]	@ zero_extendqisi2
 518 0192 1B04     		lsls	r3, r3, #16
 519 0194 1A43     		orrs	r2, r2, r3
 520 0196 3B68     		ldr	r3, [r7]
 521 0198 2A33     		adds	r3, r3, #42
 522 019a 1B78     		ldrb	r3, [r3]	@ zero_extendqisi2
 523 019c 1B02     		lsls	r3, r3, #8
 524 019e 1343     		orrs	r3, r3, r2
 525 01a0 3A68     		ldr	r2, [r7]
 526 01a2 2B32     		adds	r2, r2, #43
 527 01a4 1278     		ldrb	r2, [r2]	@ zero_extendqisi2
 528 01a6 1343     		orrs	r3, r3, r2
 529 01a8 3B63     		str	r3, [r7, #48]
 149:C:/Users/dtjld/workspace/AIoT/src/LiteOS_Lab/iot_link/network/dtls/mbedtls/mbedtls-2.16.2/library\sha1.c ****     GET_UINT32_BE( W[11], data, 44 );
 530              		.loc 1 149 0
 531 01aa 3B68     		ldr	r3, [r7]
 532 01ac 2C33     		adds	r3, r3, #44
 533 01ae 1B78     		ldrb	r3, [r3]	@ zero_extendqisi2
 534 01b0 1A06     		lsls	r2, r3, #24
 535 01b2 3B68     		ldr	r3, [r7]
 536 01b4 2D33     		adds	r3, r3, #45
 537 01b6 1B78     		ldrb	r3, [r3]	@ zero_extendqisi2
 538 01b8 1B04     		lsls	r3, r3, #16
 539 01ba 1A43     		orrs	r2, r2, r3
 540 01bc 3B68     		ldr	r3, [r7]
 541 01be 2E33     		adds	r3, r3, #46
 542 01c0 1B78     		ldrb	r3, [r3]	@ zero_extendqisi2
 543 01c2 1B02     		lsls	r3, r3, #8
 544 01c4 1343     		orrs	r3, r3, r2
 545 01c6 3A68     		ldr	r2, [r7]
ARM GAS  C:\Users\dtjld\AppData\Local\Temp\ccQby7Tk.s 			page 13


 546 01c8 2F32     		adds	r2, r2, #47
 547 01ca 1278     		ldrb	r2, [r2]	@ zero_extendqisi2
 548 01cc 1343     		orrs	r3, r3, r2
 549 01ce 7B63     		str	r3, [r7, #52]
 150:C:/Users/dtjld/workspace/AIoT/src/LiteOS_Lab/iot_link/network/dtls/mbedtls/mbedtls-2.16.2/library\sha1.c ****     GET_UINT32_BE( W[12], data, 48 );
 550              		.loc 1 150 0
 551 01d0 3B68     		ldr	r3, [r7]
 552 01d2 3033     		adds	r3, r3, #48
 553 01d4 1B78     		ldrb	r3, [r3]	@ zero_extendqisi2
 554 01d6 1A06     		lsls	r2, r3, #24
 555 01d8 3B68     		ldr	r3, [r7]
 556 01da 3133     		adds	r3, r3, #49
 557 01dc 1B78     		ldrb	r3, [r3]	@ zero_extendqisi2
 558 01de 1B04     		lsls	r3, r3, #16
 559 01e0 1A43     		orrs	r2, r2, r3
 560 01e2 3B68     		ldr	r3, [r7]
 561 01e4 3233     		adds	r3, r3, #50
 562 01e6 1B78     		ldrb	r3, [r3]	@ zero_extendqisi2
 563 01e8 1B02     		lsls	r3, r3, #8
 564 01ea 1343     		orrs	r3, r3, r2
 565 01ec 3A68     		ldr	r2, [r7]
 566 01ee 3332     		adds	r2, r2, #51
 567 01f0 1278     		ldrb	r2, [r2]	@ zero_extendqisi2
 568 01f2 1343     		orrs	r3, r3, r2
 569 01f4 BB63     		str	r3, [r7, #56]
 151:C:/Users/dtjld/workspace/AIoT/src/LiteOS_Lab/iot_link/network/dtls/mbedtls/mbedtls-2.16.2/library\sha1.c ****     GET_UINT32_BE( W[13], data, 52 );
 570              		.loc 1 151 0
 571 01f6 3B68     		ldr	r3, [r7]
 572 01f8 3433     		adds	r3, r3, #52
 573 01fa 1B78     		ldrb	r3, [r3]	@ zero_extendqisi2
 574 01fc 1A06     		lsls	r2, r3, #24
 575 01fe 3B68     		ldr	r3, [r7]
 576 0200 3533     		adds	r3, r3, #53
 577 0202 1B78     		ldrb	r3, [r3]	@ zero_extendqisi2
 578 0204 1B04     		lsls	r3, r3, #16
 579 0206 1A43     		orrs	r2, r2, r3
 580 0208 3B68     		ldr	r3, [r7]
 581 020a 3633     		adds	r3, r3, #54
 582 020c 1B78     		ldrb	r3, [r3]	@ zero_extendqisi2
 583 020e 1B02     		lsls	r3, r3, #8
 584 0210 1343     		orrs	r3, r3, r2
 585 0212 3A68     		ldr	r2, [r7]
 586 0214 3732     		adds	r2, r2, #55
 587 0216 1278     		ldrb	r2, [r2]	@ zero_extendqisi2
 588 0218 1343     		orrs	r3, r3, r2
 589 021a FB63     		str	r3, [r7, #60]
 152:C:/Users/dtjld/workspace/AIoT/src/LiteOS_Lab/iot_link/network/dtls/mbedtls/mbedtls-2.16.2/library\sha1.c ****     GET_UINT32_BE( W[14], data, 56 );
 590              		.loc 1 152 0
 591 021c 3B68     		ldr	r3, [r7]
 592 021e 3833     		adds	r3, r3, #56
 593 0220 1B78     		ldrb	r3, [r3]	@ zero_extendqisi2
 594 0222 1A06     		lsls	r2, r3, #24
 595 0224 3B68     		ldr	r3, [r7]
 596 0226 3933     		adds	r3, r3, #57
 597 0228 1B78     		ldrb	r3, [r3]	@ zero_extendqisi2
 598 022a 1B04     		lsls	r3, r3, #16
 599 022c 1A43     		orrs	r2, r2, r3
ARM GAS  C:\Users\dtjld\AppData\Local\Temp\ccQby7Tk.s 			page 14


 600 022e 3B68     		ldr	r3, [r7]
 601 0230 3A33     		adds	r3, r3, #58
 602 0232 1B78     		ldrb	r3, [r3]	@ zero_extendqisi2
 603 0234 1B02     		lsls	r3, r3, #8
 604 0236 1343     		orrs	r3, r3, r2
 605 0238 3A68     		ldr	r2, [r7]
 606 023a 3B32     		adds	r2, r2, #59
 607 023c 1278     		ldrb	r2, [r2]	@ zero_extendqisi2
 608 023e 1343     		orrs	r3, r3, r2
 609 0240 3B64     		str	r3, [r7, #64]
 153:C:/Users/dtjld/workspace/AIoT/src/LiteOS_Lab/iot_link/network/dtls/mbedtls/mbedtls-2.16.2/library\sha1.c ****     GET_UINT32_BE( W[15], data, 60 );
 610              		.loc 1 153 0
 611 0242 3B68     		ldr	r3, [r7]
 612 0244 3C33     		adds	r3, r3, #60
 613 0246 1B78     		ldrb	r3, [r3]	@ zero_extendqisi2
 614 0248 1A06     		lsls	r2, r3, #24
 615 024a 3B68     		ldr	r3, [r7]
 616 024c 3D33     		adds	r3, r3, #61
 617 024e 1B78     		ldrb	r3, [r3]	@ zero_extendqisi2
 618 0250 1B04     		lsls	r3, r3, #16
 619 0252 1A43     		orrs	r2, r2, r3
 620 0254 3B68     		ldr	r3, [r7]
 621 0256 3E33     		adds	r3, r3, #62
 622 0258 1B78     		ldrb	r3, [r3]	@ zero_extendqisi2
 623 025a 1B02     		lsls	r3, r3, #8
 624 025c 1343     		orrs	r3, r3, r2
 625 025e 3A68     		ldr	r2, [r7]
 626 0260 3F32     		adds	r2, r2, #63
 627 0262 1278     		ldrb	r2, [r2]	@ zero_extendqisi2
 628 0264 1343     		orrs	r3, r3, r2
 629 0266 7B64     		str	r3, [r7, #68]
 154:C:/Users/dtjld/workspace/AIoT/src/LiteOS_Lab/iot_link/network/dtls/mbedtls/mbedtls-2.16.2/library\sha1.c **** 
 155:C:/Users/dtjld/workspace/AIoT/src/LiteOS_Lab/iot_link/network/dtls/mbedtls/mbedtls-2.16.2/library\sha1.c **** #define S(x,n) (((x) << (n)) | (((x) & 0xFFFFFFFF) >> (32 - (n))))
 156:C:/Users/dtjld/workspace/AIoT/src/LiteOS_Lab/iot_link/network/dtls/mbedtls/mbedtls-2.16.2/library\sha1.c **** 
 157:C:/Users/dtjld/workspace/AIoT/src/LiteOS_Lab/iot_link/network/dtls/mbedtls/mbedtls-2.16.2/library\sha1.c **** #define R(t)                                                    \
 158:C:/Users/dtjld/workspace/AIoT/src/LiteOS_Lab/iot_link/network/dtls/mbedtls/mbedtls-2.16.2/library\sha1.c ****     (                                                           \
 159:C:/Users/dtjld/workspace/AIoT/src/LiteOS_Lab/iot_link/network/dtls/mbedtls/mbedtls-2.16.2/library\sha1.c ****         temp = W[( (t) -  3 ) & 0x0F] ^ W[( (t) - 8 ) & 0x0F] ^ \
 160:C:/Users/dtjld/workspace/AIoT/src/LiteOS_Lab/iot_link/network/dtls/mbedtls/mbedtls-2.16.2/library\sha1.c ****                W[( (t) - 14 ) & 0x0F] ^ W[  (t)       & 0x0F],  \
 161:C:/Users/dtjld/workspace/AIoT/src/LiteOS_Lab/iot_link/network/dtls/mbedtls/mbedtls-2.16.2/library\sha1.c ****         ( W[(t) & 0x0F] = S(temp,1) )                           \
 162:C:/Users/dtjld/workspace/AIoT/src/LiteOS_Lab/iot_link/network/dtls/mbedtls/mbedtls-2.16.2/library\sha1.c ****     )
 163:C:/Users/dtjld/workspace/AIoT/src/LiteOS_Lab/iot_link/network/dtls/mbedtls/mbedtls-2.16.2/library\sha1.c **** 
 164:C:/Users/dtjld/workspace/AIoT/src/LiteOS_Lab/iot_link/network/dtls/mbedtls/mbedtls-2.16.2/library\sha1.c **** #define P(a,b,c,d,e,x)                                          \
 165:C:/Users/dtjld/workspace/AIoT/src/LiteOS_Lab/iot_link/network/dtls/mbedtls/mbedtls-2.16.2/library\sha1.c ****     do                                                          \
 166:C:/Users/dtjld/workspace/AIoT/src/LiteOS_Lab/iot_link/network/dtls/mbedtls/mbedtls-2.16.2/library\sha1.c ****     {                                                           \
 167:C:/Users/dtjld/workspace/AIoT/src/LiteOS_Lab/iot_link/network/dtls/mbedtls/mbedtls-2.16.2/library\sha1.c ****         (e) += S((a),5) + F((b),(c),(d)) + K + (x);             \
 168:C:/Users/dtjld/workspace/AIoT/src/LiteOS_Lab/iot_link/network/dtls/mbedtls/mbedtls-2.16.2/library\sha1.c ****         (b) = S((b),30);                                        \
 169:C:/Users/dtjld/workspace/AIoT/src/LiteOS_Lab/iot_link/network/dtls/mbedtls/mbedtls-2.16.2/library\sha1.c ****     } while( 0 )
 170:C:/Users/dtjld/workspace/AIoT/src/LiteOS_Lab/iot_link/network/dtls/mbedtls/mbedtls-2.16.2/library\sha1.c **** 
 171:C:/Users/dtjld/workspace/AIoT/src/LiteOS_Lab/iot_link/network/dtls/mbedtls/mbedtls-2.16.2/library\sha1.c ****     A = ctx->state[0];
 630              		.loc 1 171 0
 631 0268 7B68     		ldr	r3, [r7, #4]
 632 026a 9B68     		ldr	r3, [r3, #8]
 633 026c FB65     		str	r3, [r7, #92]
 172:C:/Users/dtjld/workspace/AIoT/src/LiteOS_Lab/iot_link/network/dtls/mbedtls/mbedtls-2.16.2/library\sha1.c ****     B = ctx->state[1];
 634              		.loc 1 172 0
 635 026e 7B68     		ldr	r3, [r7, #4]
 636 0270 DB68     		ldr	r3, [r3, #12]
ARM GAS  C:\Users\dtjld\AppData\Local\Temp\ccQby7Tk.s 			page 15


 637 0272 BB65     		str	r3, [r7, #88]
 173:C:/Users/dtjld/workspace/AIoT/src/LiteOS_Lab/iot_link/network/dtls/mbedtls/mbedtls-2.16.2/library\sha1.c ****     C = ctx->state[2];
 638              		.loc 1 173 0
 639 0274 7B68     		ldr	r3, [r7, #4]
 640 0276 1B69     		ldr	r3, [r3, #16]
 641 0278 7B65     		str	r3, [r7, #84]
 174:C:/Users/dtjld/workspace/AIoT/src/LiteOS_Lab/iot_link/network/dtls/mbedtls/mbedtls-2.16.2/library\sha1.c ****     D = ctx->state[3];
 642              		.loc 1 174 0
 643 027a 7B68     		ldr	r3, [r7, #4]
 644 027c 5B69     		ldr	r3, [r3, #20]
 645 027e 3B65     		str	r3, [r7, #80]
 175:C:/Users/dtjld/workspace/AIoT/src/LiteOS_Lab/iot_link/network/dtls/mbedtls/mbedtls-2.16.2/library\sha1.c ****     E = ctx->state[4];
 646              		.loc 1 175 0
 647 0280 7B68     		ldr	r3, [r7, #4]
 648 0282 9B69     		ldr	r3, [r3, #24]
 649 0284 FB64     		str	r3, [r7, #76]
 176:C:/Users/dtjld/workspace/AIoT/src/LiteOS_Lab/iot_link/network/dtls/mbedtls/mbedtls-2.16.2/library\sha1.c **** 
 177:C:/Users/dtjld/workspace/AIoT/src/LiteOS_Lab/iot_link/network/dtls/mbedtls/mbedtls-2.16.2/library\sha1.c **** #define F(x,y,z) ((z) ^ ((x) & ((y) ^ (z))))
 178:C:/Users/dtjld/workspace/AIoT/src/LiteOS_Lab/iot_link/network/dtls/mbedtls/mbedtls-2.16.2/library\sha1.c **** #define K 0x5A827999
 179:C:/Users/dtjld/workspace/AIoT/src/LiteOS_Lab/iot_link/network/dtls/mbedtls/mbedtls-2.16.2/library\sha1.c **** 
 180:C:/Users/dtjld/workspace/AIoT/src/LiteOS_Lab/iot_link/network/dtls/mbedtls/mbedtls-2.16.2/library\sha1.c ****     P( A, B, C, D, E, W[0]  );
 650              		.loc 1 180 0
 651 0286 FB6D     		ldr	r3, [r7, #92]
 652 0288 4FEAF362 		ror	r2, r3, #27
 653 028c 796D     		ldr	r1, [r7, #84]
 654 028e 3B6D     		ldr	r3, [r7, #80]
 655 0290 5940     		eors	r1, r1, r3
 656 0292 BB6D     		ldr	r3, [r7, #88]
 657 0294 1940     		ands	r1, r1, r3
 658 0296 3B6D     		ldr	r3, [r7, #80]
 659 0298 4B40     		eors	r3, r3, r1
 660 029a 1A44     		add	r2, r2, r3
 661 029c BB68     		ldr	r3, [r7, #8]
 662 029e 1A44     		add	r2, r2, r3
 663 02a0 FB6C     		ldr	r3, [r7, #76]
 664 02a2 1A44     		add	r2, r2, r3
 665 02a4 A94B     		ldr	r3, .L14
 666 02a6 1344     		add	r3, r3, r2
 667 02a8 FB64     		str	r3, [r7, #76]
 668 02aa BB6D     		ldr	r3, [r7, #88]
 669 02ac 4FEAB303 		ror	r3, r3, #2
 670 02b0 BB65     		str	r3, [r7, #88]
 181:C:/Users/dtjld/workspace/AIoT/src/LiteOS_Lab/iot_link/network/dtls/mbedtls/mbedtls-2.16.2/library\sha1.c ****     P( E, A, B, C, D, W[1]  );
 671              		.loc 1 181 0
 672 02b2 FB6C     		ldr	r3, [r7, #76]
 673 02b4 4FEAF362 		ror	r2, r3, #27
 674 02b8 B96D     		ldr	r1, [r7, #88]
 675 02ba 7B6D     		ldr	r3, [r7, #84]
 676 02bc 5940     		eors	r1, r1, r3
 677 02be FB6D     		ldr	r3, [r7, #92]
 678 02c0 1940     		ands	r1, r1, r3
 679 02c2 7B6D     		ldr	r3, [r7, #84]
 680 02c4 4B40     		eors	r3, r3, r1
 681 02c6 1A44     		add	r2, r2, r3
 682 02c8 FB68     		ldr	r3, [r7, #12]
 683 02ca 1A44     		add	r2, r2, r3
 684 02cc 3B6D     		ldr	r3, [r7, #80]
ARM GAS  C:\Users\dtjld\AppData\Local\Temp\ccQby7Tk.s 			page 16


 685 02ce 1A44     		add	r2, r2, r3
 686 02d0 9E4B     		ldr	r3, .L14
 687 02d2 1344     		add	r3, r3, r2
 688 02d4 3B65     		str	r3, [r7, #80]
 689 02d6 FB6D     		ldr	r3, [r7, #92]
 690 02d8 4FEAB303 		ror	r3, r3, #2
 691 02dc FB65     		str	r3, [r7, #92]
 182:C:/Users/dtjld/workspace/AIoT/src/LiteOS_Lab/iot_link/network/dtls/mbedtls/mbedtls-2.16.2/library\sha1.c ****     P( D, E, A, B, C, W[2]  );
 692              		.loc 1 182 0
 693 02de 3B6D     		ldr	r3, [r7, #80]
 694 02e0 4FEAF362 		ror	r2, r3, #27
 695 02e4 F96D     		ldr	r1, [r7, #92]
 696 02e6 BB6D     		ldr	r3, [r7, #88]
 697 02e8 5940     		eors	r1, r1, r3
 698 02ea FB6C     		ldr	r3, [r7, #76]
 699 02ec 1940     		ands	r1, r1, r3
 700 02ee BB6D     		ldr	r3, [r7, #88]
 701 02f0 4B40     		eors	r3, r3, r1
 702 02f2 1A44     		add	r2, r2, r3
 703 02f4 3B69     		ldr	r3, [r7, #16]
 704 02f6 1A44     		add	r2, r2, r3
 705 02f8 7B6D     		ldr	r3, [r7, #84]
 706 02fa 1A44     		add	r2, r2, r3
 707 02fc 934B     		ldr	r3, .L14
 708 02fe 1344     		add	r3, r3, r2
 709 0300 7B65     		str	r3, [r7, #84]
 710 0302 FB6C     		ldr	r3, [r7, #76]
 711 0304 4FEAB303 		ror	r3, r3, #2
 712 0308 FB64     		str	r3, [r7, #76]
 183:C:/Users/dtjld/workspace/AIoT/src/LiteOS_Lab/iot_link/network/dtls/mbedtls/mbedtls-2.16.2/library\sha1.c ****     P( C, D, E, A, B, W[3]  );
 713              		.loc 1 183 0
 714 030a 7B6D     		ldr	r3, [r7, #84]
 715 030c 4FEAF362 		ror	r2, r3, #27
 716 0310 F96C     		ldr	r1, [r7, #76]
 717 0312 FB6D     		ldr	r3, [r7, #92]
 718 0314 5940     		eors	r1, r1, r3
 719 0316 3B6D     		ldr	r3, [r7, #80]
 720 0318 1940     		ands	r1, r1, r3
 721 031a FB6D     		ldr	r3, [r7, #92]
 722 031c 4B40     		eors	r3, r3, r1
 723 031e 1A44     		add	r2, r2, r3
 724 0320 7B69     		ldr	r3, [r7, #20]
 725 0322 1A44     		add	r2, r2, r3
 726 0324 BB6D     		ldr	r3, [r7, #88]
 727 0326 1A44     		add	r2, r2, r3
 728 0328 884B     		ldr	r3, .L14
 729 032a 1344     		add	r3, r3, r2
 730 032c BB65     		str	r3, [r7, #88]
 731 032e 3B6D     		ldr	r3, [r7, #80]
 732 0330 4FEAB303 		ror	r3, r3, #2
 733 0334 3B65     		str	r3, [r7, #80]
 184:C:/Users/dtjld/workspace/AIoT/src/LiteOS_Lab/iot_link/network/dtls/mbedtls/mbedtls-2.16.2/library\sha1.c ****     P( B, C, D, E, A, W[4]  );
 734              		.loc 1 184 0
 735 0336 BB6D     		ldr	r3, [r7, #88]
 736 0338 4FEAF362 		ror	r2, r3, #27
 737 033c 396D     		ldr	r1, [r7, #80]
 738 033e FB6C     		ldr	r3, [r7, #76]
ARM GAS  C:\Users\dtjld\AppData\Local\Temp\ccQby7Tk.s 			page 17


 739 0340 5940     		eors	r1, r1, r3
 740 0342 7B6D     		ldr	r3, [r7, #84]
 741 0344 1940     		ands	r1, r1, r3
 742 0346 FB6C     		ldr	r3, [r7, #76]
 743 0348 4B40     		eors	r3, r3, r1
 744 034a 1A44     		add	r2, r2, r3
 745 034c BB69     		ldr	r3, [r7, #24]
 746 034e 1A44     		add	r2, r2, r3
 747 0350 FB6D     		ldr	r3, [r7, #92]
 748 0352 1A44     		add	r2, r2, r3
 749 0354 7D4B     		ldr	r3, .L14
 750 0356 1344     		add	r3, r3, r2
 751 0358 FB65     		str	r3, [r7, #92]
 752 035a 7B6D     		ldr	r3, [r7, #84]
 753 035c 4FEAB303 		ror	r3, r3, #2
 754 0360 7B65     		str	r3, [r7, #84]
 185:C:/Users/dtjld/workspace/AIoT/src/LiteOS_Lab/iot_link/network/dtls/mbedtls/mbedtls-2.16.2/library\sha1.c ****     P( A, B, C, D, E, W[5]  );
 755              		.loc 1 185 0
 756 0362 FB6D     		ldr	r3, [r7, #92]
 757 0364 4FEAF362 		ror	r2, r3, #27
 758 0368 796D     		ldr	r1, [r7, #84]
 759 036a 3B6D     		ldr	r3, [r7, #80]
 760 036c 5940     		eors	r1, r1, r3
 761 036e BB6D     		ldr	r3, [r7, #88]
 762 0370 1940     		ands	r1, r1, r3
 763 0372 3B6D     		ldr	r3, [r7, #80]
 764 0374 4B40     		eors	r3, r3, r1
 765 0376 1A44     		add	r2, r2, r3
 766 0378 FB69     		ldr	r3, [r7, #28]
 767 037a 1A44     		add	r2, r2, r3
 768 037c FB6C     		ldr	r3, [r7, #76]
 769 037e 1A44     		add	r2, r2, r3
 770 0380 724B     		ldr	r3, .L14
 771 0382 1344     		add	r3, r3, r2
 772 0384 FB64     		str	r3, [r7, #76]
 773 0386 BB6D     		ldr	r3, [r7, #88]
 774 0388 4FEAB303 		ror	r3, r3, #2
 775 038c BB65     		str	r3, [r7, #88]
 186:C:/Users/dtjld/workspace/AIoT/src/LiteOS_Lab/iot_link/network/dtls/mbedtls/mbedtls-2.16.2/library\sha1.c ****     P( E, A, B, C, D, W[6]  );
 776              		.loc 1 186 0
 777 038e FB6C     		ldr	r3, [r7, #76]
 778 0390 4FEAF362 		ror	r2, r3, #27
 779 0394 B96D     		ldr	r1, [r7, #88]
 780 0396 7B6D     		ldr	r3, [r7, #84]
 781 0398 5940     		eors	r1, r1, r3
 782 039a FB6D     		ldr	r3, [r7, #92]
 783 039c 1940     		ands	r1, r1, r3
 784 039e 7B6D     		ldr	r3, [r7, #84]
 785 03a0 4B40     		eors	r3, r3, r1
 786 03a2 1A44     		add	r2, r2, r3
 787 03a4 3B6A     		ldr	r3, [r7, #32]
 788 03a6 1A44     		add	r2, r2, r3
 789 03a8 3B6D     		ldr	r3, [r7, #80]
 790 03aa 1A44     		add	r2, r2, r3
 791 03ac 674B     		ldr	r3, .L14
 792 03ae 1344     		add	r3, r3, r2
 793 03b0 3B65     		str	r3, [r7, #80]
ARM GAS  C:\Users\dtjld\AppData\Local\Temp\ccQby7Tk.s 			page 18


 794 03b2 FB6D     		ldr	r3, [r7, #92]
 795 03b4 4FEAB303 		ror	r3, r3, #2
 796 03b8 FB65     		str	r3, [r7, #92]
 187:C:/Users/dtjld/workspace/AIoT/src/LiteOS_Lab/iot_link/network/dtls/mbedtls/mbedtls-2.16.2/library\sha1.c ****     P( D, E, A, B, C, W[7]  );
 797              		.loc 1 187 0
 798 03ba 3B6D     		ldr	r3, [r7, #80]
 799 03bc 4FEAF362 		ror	r2, r3, #27
 800 03c0 F96D     		ldr	r1, [r7, #92]
 801 03c2 BB6D     		ldr	r3, [r7, #88]
 802 03c4 5940     		eors	r1, r1, r3
 803 03c6 FB6C     		ldr	r3, [r7, #76]
 804 03c8 1940     		ands	r1, r1, r3
 805 03ca BB6D     		ldr	r3, [r7, #88]
 806 03cc 4B40     		eors	r3, r3, r1
 807 03ce 1A44     		add	r2, r2, r3
 808 03d0 7B6A     		ldr	r3, [r7, #36]
 809 03d2 1A44     		add	r2, r2, r3
 810 03d4 7B6D     		ldr	r3, [r7, #84]
 811 03d6 1A44     		add	r2, r2, r3
 812 03d8 5C4B     		ldr	r3, .L14
 813 03da 1344     		add	r3, r3, r2
 814 03dc 7B65     		str	r3, [r7, #84]
 815 03de FB6C     		ldr	r3, [r7, #76]
 816 03e0 4FEAB303 		ror	r3, r3, #2
 817 03e4 FB64     		str	r3, [r7, #76]
 188:C:/Users/dtjld/workspace/AIoT/src/LiteOS_Lab/iot_link/network/dtls/mbedtls/mbedtls-2.16.2/library\sha1.c ****     P( C, D, E, A, B, W[8]  );
 818              		.loc 1 188 0
 819 03e6 7B6D     		ldr	r3, [r7, #84]
 820 03e8 4FEAF362 		ror	r2, r3, #27
 821 03ec F96C     		ldr	r1, [r7, #76]
 822 03ee FB6D     		ldr	r3, [r7, #92]
 823 03f0 5940     		eors	r1, r1, r3
 824 03f2 3B6D     		ldr	r3, [r7, #80]
 825 03f4 1940     		ands	r1, r1, r3
 826 03f6 FB6D     		ldr	r3, [r7, #92]
 827 03f8 4B40     		eors	r3, r3, r1
 828 03fa 1A44     		add	r2, r2, r3
 829 03fc BB6A     		ldr	r3, [r7, #40]
 830 03fe 1A44     		add	r2, r2, r3
 831 0400 BB6D     		ldr	r3, [r7, #88]
 832 0402 1A44     		add	r2, r2, r3
 833 0404 514B     		ldr	r3, .L14
 834 0406 1344     		add	r3, r3, r2
 835 0408 BB65     		str	r3, [r7, #88]
 836 040a 3B6D     		ldr	r3, [r7, #80]
 837 040c 4FEAB303 		ror	r3, r3, #2
 838 0410 3B65     		str	r3, [r7, #80]
 189:C:/Users/dtjld/workspace/AIoT/src/LiteOS_Lab/iot_link/network/dtls/mbedtls/mbedtls-2.16.2/library\sha1.c ****     P( B, C, D, E, A, W[9]  );
 839              		.loc 1 189 0
 840 0412 BB6D     		ldr	r3, [r7, #88]
 841 0414 4FEAF362 		ror	r2, r3, #27
 842 0418 396D     		ldr	r1, [r7, #80]
 843 041a FB6C     		ldr	r3, [r7, #76]
 844 041c 5940     		eors	r1, r1, r3
 845 041e 7B6D     		ldr	r3, [r7, #84]
 846 0420 1940     		ands	r1, r1, r3
 847 0422 FB6C     		ldr	r3, [r7, #76]
ARM GAS  C:\Users\dtjld\AppData\Local\Temp\ccQby7Tk.s 			page 19


 848 0424 4B40     		eors	r3, r3, r1
 849 0426 1A44     		add	r2, r2, r3
 850 0428 FB6A     		ldr	r3, [r7, #44]
 851 042a 1A44     		add	r2, r2, r3
 852 042c FB6D     		ldr	r3, [r7, #92]
 853 042e 1A44     		add	r2, r2, r3
 854 0430 464B     		ldr	r3, .L14
 855 0432 1344     		add	r3, r3, r2
 856 0434 FB65     		str	r3, [r7, #92]
 857 0436 7B6D     		ldr	r3, [r7, #84]
 858 0438 4FEAB303 		ror	r3, r3, #2
 859 043c 7B65     		str	r3, [r7, #84]
 190:C:/Users/dtjld/workspace/AIoT/src/LiteOS_Lab/iot_link/network/dtls/mbedtls/mbedtls-2.16.2/library\sha1.c ****     P( A, B, C, D, E, W[10] );
 860              		.loc 1 190 0
 861 043e FB6D     		ldr	r3, [r7, #92]
 862 0440 4FEAF362 		ror	r2, r3, #27
 863 0444 796D     		ldr	r1, [r7, #84]
 864 0446 3B6D     		ldr	r3, [r7, #80]
 865 0448 5940     		eors	r1, r1, r3
 866 044a BB6D     		ldr	r3, [r7, #88]
 867 044c 1940     		ands	r1, r1, r3
 868 044e 3B6D     		ldr	r3, [r7, #80]
 869 0450 4B40     		eors	r3, r3, r1
 870 0452 1A44     		add	r2, r2, r3
 871 0454 3B6B     		ldr	r3, [r7, #48]
 872 0456 1A44     		add	r2, r2, r3
 873 0458 FB6C     		ldr	r3, [r7, #76]
 874 045a 1A44     		add	r2, r2, r3
 875 045c 3B4B     		ldr	r3, .L14
 876 045e 1344     		add	r3, r3, r2
 877 0460 FB64     		str	r3, [r7, #76]
 878 0462 BB6D     		ldr	r3, [r7, #88]
 879 0464 4FEAB303 		ror	r3, r3, #2
 880 0468 BB65     		str	r3, [r7, #88]
 191:C:/Users/dtjld/workspace/AIoT/src/LiteOS_Lab/iot_link/network/dtls/mbedtls/mbedtls-2.16.2/library\sha1.c ****     P( E, A, B, C, D, W[11] );
 881              		.loc 1 191 0
 882 046a FB6C     		ldr	r3, [r7, #76]
 883 046c 4FEAF362 		ror	r2, r3, #27
 884 0470 B96D     		ldr	r1, [r7, #88]
 885 0472 7B6D     		ldr	r3, [r7, #84]
 886 0474 5940     		eors	r1, r1, r3
 887 0476 FB6D     		ldr	r3, [r7, #92]
 888 0478 1940     		ands	r1, r1, r3
 889 047a 7B6D     		ldr	r3, [r7, #84]
 890 047c 4B40     		eors	r3, r3, r1
 891 047e 1A44     		add	r2, r2, r3
 892 0480 7B6B     		ldr	r3, [r7, #52]
 893 0482 1A44     		add	r2, r2, r3
 894 0484 3B6D     		ldr	r3, [r7, #80]
 895 0486 1A44     		add	r2, r2, r3
 896 0488 304B     		ldr	r3, .L14
 897 048a 1344     		add	r3, r3, r2
 898 048c 3B65     		str	r3, [r7, #80]
 899 048e FB6D     		ldr	r3, [r7, #92]
 900 0490 4FEAB303 		ror	r3, r3, #2
 901 0494 FB65     		str	r3, [r7, #92]
 192:C:/Users/dtjld/workspace/AIoT/src/LiteOS_Lab/iot_link/network/dtls/mbedtls/mbedtls-2.16.2/library\sha1.c ****     P( D, E, A, B, C, W[12] );
ARM GAS  C:\Users\dtjld\AppData\Local\Temp\ccQby7Tk.s 			page 20


 902              		.loc 1 192 0
 903 0496 3B6D     		ldr	r3, [r7, #80]
 904 0498 4FEAF362 		ror	r2, r3, #27
 905 049c F96D     		ldr	r1, [r7, #92]
 906 049e BB6D     		ldr	r3, [r7, #88]
 907 04a0 5940     		eors	r1, r1, r3
 908 04a2 FB6C     		ldr	r3, [r7, #76]
 909 04a4 1940     		ands	r1, r1, r3
 910 04a6 BB6D     		ldr	r3, [r7, #88]
 911 04a8 4B40     		eors	r3, r3, r1
 912 04aa 1A44     		add	r2, r2, r3
 913 04ac BB6B     		ldr	r3, [r7, #56]
 914 04ae 1A44     		add	r2, r2, r3
 915 04b0 7B6D     		ldr	r3, [r7, #84]
 916 04b2 1A44     		add	r2, r2, r3
 917 04b4 254B     		ldr	r3, .L14
 918 04b6 1344     		add	r3, r3, r2
 919 04b8 7B65     		str	r3, [r7, #84]
 920 04ba FB6C     		ldr	r3, [r7, #76]
 921 04bc 4FEAB303 		ror	r3, r3, #2
 922 04c0 FB64     		str	r3, [r7, #76]
 193:C:/Users/dtjld/workspace/AIoT/src/LiteOS_Lab/iot_link/network/dtls/mbedtls/mbedtls-2.16.2/library\sha1.c ****     P( C, D, E, A, B, W[13] );
 923              		.loc 1 193 0
 924 04c2 7B6D     		ldr	r3, [r7, #84]
 925 04c4 4FEAF362 		ror	r2, r3, #27
 926 04c8 F96C     		ldr	r1, [r7, #76]
 927 04ca FB6D     		ldr	r3, [r7, #92]
 928 04cc 5940     		eors	r1, r1, r3
 929 04ce 3B6D     		ldr	r3, [r7, #80]
 930 04d0 1940     		ands	r1, r1, r3
 931 04d2 FB6D     		ldr	r3, [r7, #92]
 932 04d4 4B40     		eors	r3, r3, r1
 933 04d6 1A44     		add	r2, r2, r3
 934 04d8 FB6B     		ldr	r3, [r7, #60]
 935 04da 1A44     		add	r2, r2, r3
 936 04dc BB6D     		ldr	r3, [r7, #88]
 937 04de 1A44     		add	r2, r2, r3
 938 04e0 1A4B     		ldr	r3, .L14
 939 04e2 1344     		add	r3, r3, r2
 940 04e4 BB65     		str	r3, [r7, #88]
 941 04e6 3B6D     		ldr	r3, [r7, #80]
 942 04e8 4FEAB303 		ror	r3, r3, #2
 943 04ec 3B65     		str	r3, [r7, #80]
 194:C:/Users/dtjld/workspace/AIoT/src/LiteOS_Lab/iot_link/network/dtls/mbedtls/mbedtls-2.16.2/library\sha1.c ****     P( B, C, D, E, A, W[14] );
 944              		.loc 1 194 0
 945 04ee BB6D     		ldr	r3, [r7, #88]
 946 04f0 4FEAF362 		ror	r2, r3, #27
 947 04f4 396D     		ldr	r1, [r7, #80]
 948 04f6 FB6C     		ldr	r3, [r7, #76]
 949 04f8 5940     		eors	r1, r1, r3
 950 04fa 7B6D     		ldr	r3, [r7, #84]
 951 04fc 1940     		ands	r1, r1, r3
 952 04fe FB6C     		ldr	r3, [r7, #76]
 953 0500 4B40     		eors	r3, r3, r1
 954 0502 1A44     		add	r2, r2, r3
 955 0504 3B6C     		ldr	r3, [r7, #64]
 956 0506 1A44     		add	r2, r2, r3
ARM GAS  C:\Users\dtjld\AppData\Local\Temp\ccQby7Tk.s 			page 21


 957 0508 FB6D     		ldr	r3, [r7, #92]
 958 050a 1A44     		add	r2, r2, r3
 959 050c 0F4B     		ldr	r3, .L14
 960 050e 1344     		add	r3, r3, r2
 961 0510 FB65     		str	r3, [r7, #92]
 962 0512 7B6D     		ldr	r3, [r7, #84]
 963 0514 4FEAB303 		ror	r3, r3, #2
 964 0518 7B65     		str	r3, [r7, #84]
 195:C:/Users/dtjld/workspace/AIoT/src/LiteOS_Lab/iot_link/network/dtls/mbedtls/mbedtls-2.16.2/library\sha1.c ****     P( A, B, C, D, E, W[15] );
 965              		.loc 1 195 0
 966 051a FB6D     		ldr	r3, [r7, #92]
 967 051c 4FEAF362 		ror	r2, r3, #27
 968 0520 796D     		ldr	r1, [r7, #84]
 969 0522 3B6D     		ldr	r3, [r7, #80]
 970 0524 5940     		eors	r1, r1, r3
 971 0526 BB6D     		ldr	r3, [r7, #88]
 972 0528 1940     		ands	r1, r1, r3
 973 052a 3B6D     		ldr	r3, [r7, #80]
 974 052c 4B40     		eors	r3, r3, r1
 975 052e 1A44     		add	r2, r2, r3
 976 0530 7B6C     		ldr	r3, [r7, #68]
 977 0532 1A44     		add	r2, r2, r3
 978 0534 FB6C     		ldr	r3, [r7, #76]
 979 0536 1A44     		add	r2, r2, r3
 980 0538 044B     		ldr	r3, .L14
 981 053a 1344     		add	r3, r3, r2
 982 053c FB64     		str	r3, [r7, #76]
 983 053e BB6D     		ldr	r3, [r7, #88]
 984 0540 4FEAB303 		ror	r3, r3, #2
 985 0544 BB65     		str	r3, [r7, #88]
 196:C:/Users/dtjld/workspace/AIoT/src/LiteOS_Lab/iot_link/network/dtls/mbedtls/mbedtls-2.16.2/library\sha1.c ****     P( E, A, B, C, D, R(16) );
 986              		.loc 1 196 0
 987 0546 FA6B     		ldr	r2, [r7, #60]
 988 0548 02E0     		b	.L15
 989              	.L16:
 990 054a 00BF     		.align	2
 991              	.L14:
 992 054c 9979825A 		.word	1518500249
 993              	.L15:
 994 0550 BB6A     		ldr	r3, [r7, #40]
 995 0552 5A40     		eors	r2, r2, r3
 996 0554 3B69     		ldr	r3, [r7, #16]
 997 0556 5A40     		eors	r2, r2, r3
 998 0558 BB68     		ldr	r3, [r7, #8]
 999 055a 5340     		eors	r3, r3, r2
 1000 055c BB64     		str	r3, [r7, #72]
 1001 055e FB6C     		ldr	r3, [r7, #76]
 1002 0560 4FEAF362 		ror	r2, r3, #27
 1003 0564 B96D     		ldr	r1, [r7, #88]
 1004 0566 7B6D     		ldr	r3, [r7, #84]
 1005 0568 5940     		eors	r1, r1, r3
 1006 056a FB6D     		ldr	r3, [r7, #92]
 1007 056c 1940     		ands	r1, r1, r3
 1008 056e 7B6D     		ldr	r3, [r7, #84]
 1009 0570 4B40     		eors	r3, r3, r1
 1010 0572 1A44     		add	r2, r2, r3
 1011 0574 BB6C     		ldr	r3, [r7, #72]
ARM GAS  C:\Users\dtjld\AppData\Local\Temp\ccQby7Tk.s 			page 22


 1012 0576 4FEAF373 		ror	r3, r3, #31
 1013 057a BB60     		str	r3, [r7, #8]
 1014 057c BB68     		ldr	r3, [r7, #8]
 1015 057e 1A44     		add	r2, r2, r3
 1016 0580 A54B     		ldr	r3, .L17
 1017 0582 1344     		add	r3, r3, r2
 1018 0584 3A6D     		ldr	r2, [r7, #80]
 1019 0586 1344     		add	r3, r3, r2
 1020 0588 3B65     		str	r3, [r7, #80]
 1021 058a FB6D     		ldr	r3, [r7, #92]
 1022 058c 4FEAB303 		ror	r3, r3, #2
 1023 0590 FB65     		str	r3, [r7, #92]
 197:C:/Users/dtjld/workspace/AIoT/src/LiteOS_Lab/iot_link/network/dtls/mbedtls/mbedtls-2.16.2/library\sha1.c ****     P( D, E, A, B, C, R(17) );
 1024              		.loc 1 197 0
 1025 0592 3A6C     		ldr	r2, [r7, #64]
 1026 0594 FB6A     		ldr	r3, [r7, #44]
 1027 0596 5A40     		eors	r2, r2, r3
 1028 0598 7B69     		ldr	r3, [r7, #20]
 1029 059a 5A40     		eors	r2, r2, r3
 1030 059c FB68     		ldr	r3, [r7, #12]
 1031 059e 5340     		eors	r3, r3, r2
 1032 05a0 BB64     		str	r3, [r7, #72]
 1033 05a2 3B6D     		ldr	r3, [r7, #80]
 1034 05a4 4FEAF362 		ror	r2, r3, #27
 1035 05a8 F96D     		ldr	r1, [r7, #92]
 1036 05aa BB6D     		ldr	r3, [r7, #88]
 1037 05ac 5940     		eors	r1, r1, r3
 1038 05ae FB6C     		ldr	r3, [r7, #76]
 1039 05b0 1940     		ands	r1, r1, r3
 1040 05b2 BB6D     		ldr	r3, [r7, #88]
 1041 05b4 4B40     		eors	r3, r3, r1
 1042 05b6 1A44     		add	r2, r2, r3
 1043 05b8 BB6C     		ldr	r3, [r7, #72]
 1044 05ba 4FEAF373 		ror	r3, r3, #31
 1045 05be FB60     		str	r3, [r7, #12]
 1046 05c0 FB68     		ldr	r3, [r7, #12]
 1047 05c2 1A44     		add	r2, r2, r3
 1048 05c4 944B     		ldr	r3, .L17
 1049 05c6 1344     		add	r3, r3, r2
 1050 05c8 7A6D     		ldr	r2, [r7, #84]
 1051 05ca 1344     		add	r3, r3, r2
 1052 05cc 7B65     		str	r3, [r7, #84]
 1053 05ce FB6C     		ldr	r3, [r7, #76]
 1054 05d0 4FEAB303 		ror	r3, r3, #2
 1055 05d4 FB64     		str	r3, [r7, #76]
 198:C:/Users/dtjld/workspace/AIoT/src/LiteOS_Lab/iot_link/network/dtls/mbedtls/mbedtls-2.16.2/library\sha1.c ****     P( C, D, E, A, B, R(18) );
 1056              		.loc 1 198 0
 1057 05d6 7A6C     		ldr	r2, [r7, #68]
 1058 05d8 3B6B     		ldr	r3, [r7, #48]
 1059 05da 5A40     		eors	r2, r2, r3
 1060 05dc BB69     		ldr	r3, [r7, #24]
 1061 05de 5A40     		eors	r2, r2, r3
 1062 05e0 3B69     		ldr	r3, [r7, #16]
 1063 05e2 5340     		eors	r3, r3, r2
 1064 05e4 BB64     		str	r3, [r7, #72]
 1065 05e6 7B6D     		ldr	r3, [r7, #84]
 1066 05e8 4FEAF362 		ror	r2, r3, #27
ARM GAS  C:\Users\dtjld\AppData\Local\Temp\ccQby7Tk.s 			page 23


 1067 05ec F96C     		ldr	r1, [r7, #76]
 1068 05ee FB6D     		ldr	r3, [r7, #92]
 1069 05f0 5940     		eors	r1, r1, r3
 1070 05f2 3B6D     		ldr	r3, [r7, #80]
 1071 05f4 1940     		ands	r1, r1, r3
 1072 05f6 FB6D     		ldr	r3, [r7, #92]
 1073 05f8 4B40     		eors	r3, r3, r1
 1074 05fa 1A44     		add	r2, r2, r3
 1075 05fc BB6C     		ldr	r3, [r7, #72]
 1076 05fe 4FEAF373 		ror	r3, r3, #31
 1077 0602 3B61     		str	r3, [r7, #16]
 1078 0604 3B69     		ldr	r3, [r7, #16]
 1079 0606 1A44     		add	r2, r2, r3
 1080 0608 834B     		ldr	r3, .L17
 1081 060a 1344     		add	r3, r3, r2
 1082 060c BA6D     		ldr	r2, [r7, #88]
 1083 060e 1344     		add	r3, r3, r2
 1084 0610 BB65     		str	r3, [r7, #88]
 1085 0612 3B6D     		ldr	r3, [r7, #80]
 1086 0614 4FEAB303 		ror	r3, r3, #2
 1087 0618 3B65     		str	r3, [r7, #80]
 199:C:/Users/dtjld/workspace/AIoT/src/LiteOS_Lab/iot_link/network/dtls/mbedtls/mbedtls-2.16.2/library\sha1.c ****     P( B, C, D, E, A, R(19) );
 1088              		.loc 1 199 0
 1089 061a BA68     		ldr	r2, [r7, #8]
 1090 061c 7B6B     		ldr	r3, [r7, #52]
 1091 061e 5A40     		eors	r2, r2, r3
 1092 0620 FB69     		ldr	r3, [r7, #28]
 1093 0622 5A40     		eors	r2, r2, r3
 1094 0624 7B69     		ldr	r3, [r7, #20]
 1095 0626 5340     		eors	r3, r3, r2
 1096 0628 BB64     		str	r3, [r7, #72]
 1097 062a BB6D     		ldr	r3, [r7, #88]
 1098 062c 4FEAF362 		ror	r2, r3, #27
 1099 0630 396D     		ldr	r1, [r7, #80]
 1100 0632 FB6C     		ldr	r3, [r7, #76]
 1101 0634 5940     		eors	r1, r1, r3
 1102 0636 7B6D     		ldr	r3, [r7, #84]
 1103 0638 1940     		ands	r1, r1, r3
 1104 063a FB6C     		ldr	r3, [r7, #76]
 1105 063c 4B40     		eors	r3, r3, r1
 1106 063e 1A44     		add	r2, r2, r3
 1107 0640 BB6C     		ldr	r3, [r7, #72]
 1108 0642 4FEAF373 		ror	r3, r3, #31
 1109 0646 7B61     		str	r3, [r7, #20]
 1110 0648 7B69     		ldr	r3, [r7, #20]
 1111 064a 1A44     		add	r2, r2, r3
 1112 064c 724B     		ldr	r3, .L17
 1113 064e 1344     		add	r3, r3, r2
 1114 0650 FA6D     		ldr	r2, [r7, #92]
 1115 0652 1344     		add	r3, r3, r2
 1116 0654 FB65     		str	r3, [r7, #92]
 1117 0656 7B6D     		ldr	r3, [r7, #84]
 1118 0658 4FEAB303 		ror	r3, r3, #2
 1119 065c 7B65     		str	r3, [r7, #84]
 200:C:/Users/dtjld/workspace/AIoT/src/LiteOS_Lab/iot_link/network/dtls/mbedtls/mbedtls-2.16.2/library\sha1.c **** 
 201:C:/Users/dtjld/workspace/AIoT/src/LiteOS_Lab/iot_link/network/dtls/mbedtls/mbedtls-2.16.2/library\sha1.c **** #undef K
 202:C:/Users/dtjld/workspace/AIoT/src/LiteOS_Lab/iot_link/network/dtls/mbedtls/mbedtls-2.16.2/library\sha1.c **** #undef F
ARM GAS  C:\Users\dtjld\AppData\Local\Temp\ccQby7Tk.s 			page 24


 203:C:/Users/dtjld/workspace/AIoT/src/LiteOS_Lab/iot_link/network/dtls/mbedtls/mbedtls-2.16.2/library\sha1.c **** 
 204:C:/Users/dtjld/workspace/AIoT/src/LiteOS_Lab/iot_link/network/dtls/mbedtls/mbedtls-2.16.2/library\sha1.c **** #define F(x,y,z) ((x) ^ (y) ^ (z))
 205:C:/Users/dtjld/workspace/AIoT/src/LiteOS_Lab/iot_link/network/dtls/mbedtls/mbedtls-2.16.2/library\sha1.c **** #define K 0x6ED9EBA1
 206:C:/Users/dtjld/workspace/AIoT/src/LiteOS_Lab/iot_link/network/dtls/mbedtls/mbedtls-2.16.2/library\sha1.c **** 
 207:C:/Users/dtjld/workspace/AIoT/src/LiteOS_Lab/iot_link/network/dtls/mbedtls/mbedtls-2.16.2/library\sha1.c ****     P( A, B, C, D, E, R(20) );
 1120              		.loc 1 207 0
 1121 065e FA68     		ldr	r2, [r7, #12]
 1122 0660 BB6B     		ldr	r3, [r7, #56]
 1123 0662 5A40     		eors	r2, r2, r3
 1124 0664 3B6A     		ldr	r3, [r7, #32]
 1125 0666 5A40     		eors	r2, r2, r3
 1126 0668 BB69     		ldr	r3, [r7, #24]
 1127 066a 5340     		eors	r3, r3, r2
 1128 066c BB64     		str	r3, [r7, #72]
 1129 066e FB6D     		ldr	r3, [r7, #92]
 1130 0670 4FEAF362 		ror	r2, r3, #27
 1131 0674 B96D     		ldr	r1, [r7, #88]
 1132 0676 7B6D     		ldr	r3, [r7, #84]
 1133 0678 5940     		eors	r1, r1, r3
 1134 067a 3B6D     		ldr	r3, [r7, #80]
 1135 067c 4B40     		eors	r3, r3, r1
 1136 067e 1A44     		add	r2, r2, r3
 1137 0680 BB6C     		ldr	r3, [r7, #72]
 1138 0682 4FEAF373 		ror	r3, r3, #31
 1139 0686 BB61     		str	r3, [r7, #24]
 1140 0688 BB69     		ldr	r3, [r7, #24]
 1141 068a 1A44     		add	r2, r2, r3
 1142 068c 634B     		ldr	r3, .L17+4
 1143 068e 1344     		add	r3, r3, r2
 1144 0690 FA6C     		ldr	r2, [r7, #76]
 1145 0692 1344     		add	r3, r3, r2
 1146 0694 FB64     		str	r3, [r7, #76]
 1147 0696 BB6D     		ldr	r3, [r7, #88]
 1148 0698 4FEAB303 		ror	r3, r3, #2
 1149 069c BB65     		str	r3, [r7, #88]
 208:C:/Users/dtjld/workspace/AIoT/src/LiteOS_Lab/iot_link/network/dtls/mbedtls/mbedtls-2.16.2/library\sha1.c ****     P( E, A, B, C, D, R(21) );
 1150              		.loc 1 208 0
 1151 069e 3A69     		ldr	r2, [r7, #16]
 1152 06a0 FB6B     		ldr	r3, [r7, #60]
 1153 06a2 5A40     		eors	r2, r2, r3
 1154 06a4 7B6A     		ldr	r3, [r7, #36]
 1155 06a6 5A40     		eors	r2, r2, r3
 1156 06a8 FB69     		ldr	r3, [r7, #28]
 1157 06aa 5340     		eors	r3, r3, r2
 1158 06ac BB64     		str	r3, [r7, #72]
 1159 06ae FB6C     		ldr	r3, [r7, #76]
 1160 06b0 4FEAF362 		ror	r2, r3, #27
 1161 06b4 F96D     		ldr	r1, [r7, #92]
 1162 06b6 BB6D     		ldr	r3, [r7, #88]
 1163 06b8 5940     		eors	r1, r1, r3
 1164 06ba 7B6D     		ldr	r3, [r7, #84]
 1165 06bc 4B40     		eors	r3, r3, r1
 1166 06be 1A44     		add	r2, r2, r3
 1167 06c0 BB6C     		ldr	r3, [r7, #72]
 1168 06c2 4FEAF373 		ror	r3, r3, #31
 1169 06c6 FB61     		str	r3, [r7, #28]
 1170 06c8 FB69     		ldr	r3, [r7, #28]
ARM GAS  C:\Users\dtjld\AppData\Local\Temp\ccQby7Tk.s 			page 25


 1171 06ca 1A44     		add	r2, r2, r3
 1172 06cc 534B     		ldr	r3, .L17+4
 1173 06ce 1344     		add	r3, r3, r2
 1174 06d0 3A6D     		ldr	r2, [r7, #80]
 1175 06d2 1344     		add	r3, r3, r2
 1176 06d4 3B65     		str	r3, [r7, #80]
 1177 06d6 FB6D     		ldr	r3, [r7, #92]
 1178 06d8 4FEAB303 		ror	r3, r3, #2
 1179 06dc FB65     		str	r3, [r7, #92]
 209:C:/Users/dtjld/workspace/AIoT/src/LiteOS_Lab/iot_link/network/dtls/mbedtls/mbedtls-2.16.2/library\sha1.c ****     P( D, E, A, B, C, R(22) );
 1180              		.loc 1 209 0
 1181 06de 7A69     		ldr	r2, [r7, #20]
 1182 06e0 3B6C     		ldr	r3, [r7, #64]
 1183 06e2 5A40     		eors	r2, r2, r3
 1184 06e4 BB6A     		ldr	r3, [r7, #40]
 1185 06e6 5A40     		eors	r2, r2, r3
 1186 06e8 3B6A     		ldr	r3, [r7, #32]
 1187 06ea 5340     		eors	r3, r3, r2
 1188 06ec BB64     		str	r3, [r7, #72]
 1189 06ee 3B6D     		ldr	r3, [r7, #80]
 1190 06f0 4FEAF362 		ror	r2, r3, #27
 1191 06f4 F96C     		ldr	r1, [r7, #76]
 1192 06f6 FB6D     		ldr	r3, [r7, #92]
 1193 06f8 5940     		eors	r1, r1, r3
 1194 06fa BB6D     		ldr	r3, [r7, #88]
 1195 06fc 4B40     		eors	r3, r3, r1
 1196 06fe 1A44     		add	r2, r2, r3
 1197 0700 BB6C     		ldr	r3, [r7, #72]
 1198 0702 4FEAF373 		ror	r3, r3, #31
 1199 0706 3B62     		str	r3, [r7, #32]
 1200 0708 3B6A     		ldr	r3, [r7, #32]
 1201 070a 1A44     		add	r2, r2, r3
 1202 070c 434B     		ldr	r3, .L17+4
 1203 070e 1344     		add	r3, r3, r2
 1204 0710 7A6D     		ldr	r2, [r7, #84]
 1205 0712 1344     		add	r3, r3, r2
 1206 0714 7B65     		str	r3, [r7, #84]
 1207 0716 FB6C     		ldr	r3, [r7, #76]
 1208 0718 4FEAB303 		ror	r3, r3, #2
 1209 071c FB64     		str	r3, [r7, #76]
 210:C:/Users/dtjld/workspace/AIoT/src/LiteOS_Lab/iot_link/network/dtls/mbedtls/mbedtls-2.16.2/library\sha1.c ****     P( C, D, E, A, B, R(23) );
 1210              		.loc 1 210 0
 1211 071e BA69     		ldr	r2, [r7, #24]
 1212 0720 7B6C     		ldr	r3, [r7, #68]
 1213 0722 5A40     		eors	r2, r2, r3
 1214 0724 FB6A     		ldr	r3, [r7, #44]
 1215 0726 5A40     		eors	r2, r2, r3
 1216 0728 7B6A     		ldr	r3, [r7, #36]
 1217 072a 5340     		eors	r3, r3, r2
 1218 072c BB64     		str	r3, [r7, #72]
 1219 072e 7B6D     		ldr	r3, [r7, #84]
 1220 0730 4FEAF362 		ror	r2, r3, #27
 1221 0734 396D     		ldr	r1, [r7, #80]
 1222 0736 FB6C     		ldr	r3, [r7, #76]
 1223 0738 5940     		eors	r1, r1, r3
 1224 073a FB6D     		ldr	r3, [r7, #92]
 1225 073c 4B40     		eors	r3, r3, r1
ARM GAS  C:\Users\dtjld\AppData\Local\Temp\ccQby7Tk.s 			page 26


 1226 073e 1A44     		add	r2, r2, r3
 1227 0740 BB6C     		ldr	r3, [r7, #72]
 1228 0742 4FEAF373 		ror	r3, r3, #31
 1229 0746 7B62     		str	r3, [r7, #36]
 1230 0748 7B6A     		ldr	r3, [r7, #36]
 1231 074a 1A44     		add	r2, r2, r3
 1232 074c 334B     		ldr	r3, .L17+4
 1233 074e 1344     		add	r3, r3, r2
 1234 0750 BA6D     		ldr	r2, [r7, #88]
 1235 0752 1344     		add	r3, r3, r2
 1236 0754 BB65     		str	r3, [r7, #88]
 1237 0756 3B6D     		ldr	r3, [r7, #80]
 1238 0758 4FEAB303 		ror	r3, r3, #2
 1239 075c 3B65     		str	r3, [r7, #80]
 211:C:/Users/dtjld/workspace/AIoT/src/LiteOS_Lab/iot_link/network/dtls/mbedtls/mbedtls-2.16.2/library\sha1.c ****     P( B, C, D, E, A, R(24) );
 1240              		.loc 1 211 0
 1241 075e FA69     		ldr	r2, [r7, #28]
 1242 0760 BB68     		ldr	r3, [r7, #8]
 1243 0762 5A40     		eors	r2, r2, r3
 1244 0764 3B6B     		ldr	r3, [r7, #48]
 1245 0766 5A40     		eors	r2, r2, r3
 1246 0768 BB6A     		ldr	r3, [r7, #40]
 1247 076a 5340     		eors	r3, r3, r2
 1248 076c BB64     		str	r3, [r7, #72]
 1249 076e BB6D     		ldr	r3, [r7, #88]
 1250 0770 4FEAF362 		ror	r2, r3, #27
 1251 0774 796D     		ldr	r1, [r7, #84]
 1252 0776 3B6D     		ldr	r3, [r7, #80]
 1253 0778 5940     		eors	r1, r1, r3
 1254 077a FB6C     		ldr	r3, [r7, #76]
 1255 077c 4B40     		eors	r3, r3, r1
 1256 077e 1A44     		add	r2, r2, r3
 1257 0780 BB6C     		ldr	r3, [r7, #72]
 1258 0782 4FEAF373 		ror	r3, r3, #31
 1259 0786 BB62     		str	r3, [r7, #40]
 1260 0788 BB6A     		ldr	r3, [r7, #40]
 1261 078a 1A44     		add	r2, r2, r3
 1262 078c 234B     		ldr	r3, .L17+4
 1263 078e 1344     		add	r3, r3, r2
 1264 0790 FA6D     		ldr	r2, [r7, #92]
 1265 0792 1344     		add	r3, r3, r2
 1266 0794 FB65     		str	r3, [r7, #92]
 1267 0796 7B6D     		ldr	r3, [r7, #84]
 1268 0798 4FEAB303 		ror	r3, r3, #2
 1269 079c 7B65     		str	r3, [r7, #84]
 212:C:/Users/dtjld/workspace/AIoT/src/LiteOS_Lab/iot_link/network/dtls/mbedtls/mbedtls-2.16.2/library\sha1.c ****     P( A, B, C, D, E, R(25) );
 1270              		.loc 1 212 0
 1271 079e 3A6A     		ldr	r2, [r7, #32]
 1272 07a0 FB68     		ldr	r3, [r7, #12]
 1273 07a2 5A40     		eors	r2, r2, r3
 1274 07a4 7B6B     		ldr	r3, [r7, #52]
 1275 07a6 5A40     		eors	r2, r2, r3
 1276 07a8 FB6A     		ldr	r3, [r7, #44]
 1277 07aa 5340     		eors	r3, r3, r2
 1278 07ac BB64     		str	r3, [r7, #72]
 1279 07ae FB6D     		ldr	r3, [r7, #92]
 1280 07b0 4FEAF362 		ror	r2, r3, #27
ARM GAS  C:\Users\dtjld\AppData\Local\Temp\ccQby7Tk.s 			page 27


 1281 07b4 B96D     		ldr	r1, [r7, #88]
 1282 07b6 7B6D     		ldr	r3, [r7, #84]
 1283 07b8 5940     		eors	r1, r1, r3
 1284 07ba 3B6D     		ldr	r3, [r7, #80]
 1285 07bc 4B40     		eors	r3, r3, r1
 1286 07be 1A44     		add	r2, r2, r3
 1287 07c0 BB6C     		ldr	r3, [r7, #72]
 1288 07c2 4FEAF373 		ror	r3, r3, #31
 1289 07c6 FB62     		str	r3, [r7, #44]
 1290 07c8 FB6A     		ldr	r3, [r7, #44]
 1291 07ca 1A44     		add	r2, r2, r3
 1292 07cc 134B     		ldr	r3, .L17+4
 1293 07ce 1344     		add	r3, r3, r2
 1294 07d0 FA6C     		ldr	r2, [r7, #76]
 1295 07d2 1344     		add	r3, r3, r2
 1296 07d4 FB64     		str	r3, [r7, #76]
 1297 07d6 BB6D     		ldr	r3, [r7, #88]
 1298 07d8 4FEAB303 		ror	r3, r3, #2
 1299 07dc BB65     		str	r3, [r7, #88]
 213:C:/Users/dtjld/workspace/AIoT/src/LiteOS_Lab/iot_link/network/dtls/mbedtls/mbedtls-2.16.2/library\sha1.c ****     P( E, A, B, C, D, R(26) );
 1300              		.loc 1 213 0
 1301 07de 7A6A     		ldr	r2, [r7, #36]
 1302 07e0 3B69     		ldr	r3, [r7, #16]
 1303 07e2 5A40     		eors	r2, r2, r3
 1304 07e4 BB6B     		ldr	r3, [r7, #56]
 1305 07e6 5A40     		eors	r2, r2, r3
 1306 07e8 3B6B     		ldr	r3, [r7, #48]
 1307 07ea 5340     		eors	r3, r3, r2
 1308 07ec BB64     		str	r3, [r7, #72]
 1309 07ee FB6C     		ldr	r3, [r7, #76]
 1310 07f0 4FEAF362 		ror	r2, r3, #27
 1311 07f4 F96D     		ldr	r1, [r7, #92]
 1312 07f6 BB6D     		ldr	r3, [r7, #88]
 1313 07f8 5940     		eors	r1, r1, r3
 1314 07fa 7B6D     		ldr	r3, [r7, #84]
 1315 07fc 4B40     		eors	r3, r3, r1
 1316 07fe 1A44     		add	r2, r2, r3
 1317 0800 BB6C     		ldr	r3, [r7, #72]
 1318 0802 4FEAF373 		ror	r3, r3, #31
 1319 0806 3B63     		str	r3, [r7, #48]
 1320 0808 3B6B     		ldr	r3, [r7, #48]
 1321 080a 1A44     		add	r2, r2, r3
 1322 080c 034B     		ldr	r3, .L17+4
 1323 080e 1344     		add	r3, r3, r2
 1324 0810 3A6D     		ldr	r2, [r7, #80]
 1325 0812 1344     		add	r3, r3, r2
 1326 0814 3B65     		str	r3, [r7, #80]
 1327 0816 03E0     		b	.L18
 1328              	.L19:
 1329              		.align	2
 1330              	.L17:
 1331 0818 9979825A 		.word	1518500249
 1332 081c A1EBD96E 		.word	1859775393
 1333              	.L18:
 1334 0820 FB6D     		ldr	r3, [r7, #92]
 1335 0822 4FEAB303 		ror	r3, r3, #2
 1336 0826 FB65     		str	r3, [r7, #92]
ARM GAS  C:\Users\dtjld\AppData\Local\Temp\ccQby7Tk.s 			page 28


 214:C:/Users/dtjld/workspace/AIoT/src/LiteOS_Lab/iot_link/network/dtls/mbedtls/mbedtls-2.16.2/library\sha1.c ****     P( D, E, A, B, C, R(27) );
 1337              		.loc 1 214 0
 1338 0828 BA6A     		ldr	r2, [r7, #40]
 1339 082a 7B69     		ldr	r3, [r7, #20]
 1340 082c 5A40     		eors	r2, r2, r3
 1341 082e FB6B     		ldr	r3, [r7, #60]
 1342 0830 5A40     		eors	r2, r2, r3
 1343 0832 7B6B     		ldr	r3, [r7, #52]
 1344 0834 5340     		eors	r3, r3, r2
 1345 0836 BB64     		str	r3, [r7, #72]
 1346 0838 3B6D     		ldr	r3, [r7, #80]
 1347 083a 4FEAF362 		ror	r2, r3, #27
 1348 083e F96C     		ldr	r1, [r7, #76]
 1349 0840 FB6D     		ldr	r3, [r7, #92]
 1350 0842 5940     		eors	r1, r1, r3
 1351 0844 BB6D     		ldr	r3, [r7, #88]
 1352 0846 4B40     		eors	r3, r3, r1
 1353 0848 1A44     		add	r2, r2, r3
 1354 084a BB6C     		ldr	r3, [r7, #72]
 1355 084c 4FEAF373 		ror	r3, r3, #31
 1356 0850 7B63     		str	r3, [r7, #52]
 1357 0852 7B6B     		ldr	r3, [r7, #52]
 1358 0854 1A44     		add	r2, r2, r3
 1359 0856 A64B     		ldr	r3, .L20
 1360 0858 1344     		add	r3, r3, r2
 1361 085a 7A6D     		ldr	r2, [r7, #84]
 1362 085c 1344     		add	r3, r3, r2
 1363 085e 7B65     		str	r3, [r7, #84]
 1364 0860 FB6C     		ldr	r3, [r7, #76]
 1365 0862 4FEAB303 		ror	r3, r3, #2
 1366 0866 FB64     		str	r3, [r7, #76]
 215:C:/Users/dtjld/workspace/AIoT/src/LiteOS_Lab/iot_link/network/dtls/mbedtls/mbedtls-2.16.2/library\sha1.c ****     P( C, D, E, A, B, R(28) );
 1367              		.loc 1 215 0
 1368 0868 FA6A     		ldr	r2, [r7, #44]
 1369 086a BB69     		ldr	r3, [r7, #24]
 1370 086c 5A40     		eors	r2, r2, r3
 1371 086e 3B6C     		ldr	r3, [r7, #64]
 1372 0870 5A40     		eors	r2, r2, r3
 1373 0872 BB6B     		ldr	r3, [r7, #56]
 1374 0874 5340     		eors	r3, r3, r2
 1375 0876 BB64     		str	r3, [r7, #72]
 1376 0878 7B6D     		ldr	r3, [r7, #84]
 1377 087a 4FEAF362 		ror	r2, r3, #27
 1378 087e 396D     		ldr	r1, [r7, #80]
 1379 0880 FB6C     		ldr	r3, [r7, #76]
 1380 0882 5940     		eors	r1, r1, r3
 1381 0884 FB6D     		ldr	r3, [r7, #92]
 1382 0886 4B40     		eors	r3, r3, r1
 1383 0888 1A44     		add	r2, r2, r3
 1384 088a BB6C     		ldr	r3, [r7, #72]
 1385 088c 4FEAF373 		ror	r3, r3, #31
 1386 0890 BB63     		str	r3, [r7, #56]
 1387 0892 BB6B     		ldr	r3, [r7, #56]
 1388 0894 1A44     		add	r2, r2, r3
 1389 0896 964B     		ldr	r3, .L20
 1390 0898 1344     		add	r3, r3, r2
 1391 089a BA6D     		ldr	r2, [r7, #88]
ARM GAS  C:\Users\dtjld\AppData\Local\Temp\ccQby7Tk.s 			page 29


 1392 089c 1344     		add	r3, r3, r2
 1393 089e BB65     		str	r3, [r7, #88]
 1394 08a0 3B6D     		ldr	r3, [r7, #80]
 1395 08a2 4FEAB303 		ror	r3, r3, #2
 1396 08a6 3B65     		str	r3, [r7, #80]
 216:C:/Users/dtjld/workspace/AIoT/src/LiteOS_Lab/iot_link/network/dtls/mbedtls/mbedtls-2.16.2/library\sha1.c ****     P( B, C, D, E, A, R(29) );
 1397              		.loc 1 216 0
 1398 08a8 3A6B     		ldr	r2, [r7, #48]
 1399 08aa FB69     		ldr	r3, [r7, #28]
 1400 08ac 5A40     		eors	r2, r2, r3
 1401 08ae 7B6C     		ldr	r3, [r7, #68]
 1402 08b0 5A40     		eors	r2, r2, r3
 1403 08b2 FB6B     		ldr	r3, [r7, #60]
 1404 08b4 5340     		eors	r3, r3, r2
 1405 08b6 BB64     		str	r3, [r7, #72]
 1406 08b8 BB6D     		ldr	r3, [r7, #88]
 1407 08ba 4FEAF362 		ror	r2, r3, #27
 1408 08be 796D     		ldr	r1, [r7, #84]
 1409 08c0 3B6D     		ldr	r3, [r7, #80]
 1410 08c2 5940     		eors	r1, r1, r3
 1411 08c4 FB6C     		ldr	r3, [r7, #76]
 1412 08c6 4B40     		eors	r3, r3, r1
 1413 08c8 1A44     		add	r2, r2, r3
 1414 08ca BB6C     		ldr	r3, [r7, #72]
 1415 08cc 4FEAF373 		ror	r3, r3, #31
 1416 08d0 FB63     		str	r3, [r7, #60]
 1417 08d2 FB6B     		ldr	r3, [r7, #60]
 1418 08d4 1A44     		add	r2, r2, r3
 1419 08d6 864B     		ldr	r3, .L20
 1420 08d8 1344     		add	r3, r3, r2
 1421 08da FA6D     		ldr	r2, [r7, #92]
 1422 08dc 1344     		add	r3, r3, r2
 1423 08de FB65     		str	r3, [r7, #92]
 1424 08e0 7B6D     		ldr	r3, [r7, #84]
 1425 08e2 4FEAB303 		ror	r3, r3, #2
 1426 08e6 7B65     		str	r3, [r7, #84]
 217:C:/Users/dtjld/workspace/AIoT/src/LiteOS_Lab/iot_link/network/dtls/mbedtls/mbedtls-2.16.2/library\sha1.c ****     P( A, B, C, D, E, R(30) );
 1427              		.loc 1 217 0
 1428 08e8 7A6B     		ldr	r2, [r7, #52]
 1429 08ea 3B6A     		ldr	r3, [r7, #32]
 1430 08ec 5A40     		eors	r2, r2, r3
 1431 08ee BB68     		ldr	r3, [r7, #8]
 1432 08f0 5A40     		eors	r2, r2, r3
 1433 08f2 3B6C     		ldr	r3, [r7, #64]
 1434 08f4 5340     		eors	r3, r3, r2
 1435 08f6 BB64     		str	r3, [r7, #72]
 1436 08f8 FB6D     		ldr	r3, [r7, #92]
 1437 08fa 4FEAF362 		ror	r2, r3, #27
 1438 08fe B96D     		ldr	r1, [r7, #88]
 1439 0900 7B6D     		ldr	r3, [r7, #84]
 1440 0902 5940     		eors	r1, r1, r3
 1441 0904 3B6D     		ldr	r3, [r7, #80]
 1442 0906 4B40     		eors	r3, r3, r1
 1443 0908 1A44     		add	r2, r2, r3
 1444 090a BB6C     		ldr	r3, [r7, #72]
 1445 090c 4FEAF373 		ror	r3, r3, #31
 1446 0910 3B64     		str	r3, [r7, #64]
ARM GAS  C:\Users\dtjld\AppData\Local\Temp\ccQby7Tk.s 			page 30


 1447 0912 3B6C     		ldr	r3, [r7, #64]
 1448 0914 1A44     		add	r2, r2, r3
 1449 0916 764B     		ldr	r3, .L20
 1450 0918 1344     		add	r3, r3, r2
 1451 091a FA6C     		ldr	r2, [r7, #76]
 1452 091c 1344     		add	r3, r3, r2
 1453 091e FB64     		str	r3, [r7, #76]
 1454 0920 BB6D     		ldr	r3, [r7, #88]
 1455 0922 4FEAB303 		ror	r3, r3, #2
 1456 0926 BB65     		str	r3, [r7, #88]
 218:C:/Users/dtjld/workspace/AIoT/src/LiteOS_Lab/iot_link/network/dtls/mbedtls/mbedtls-2.16.2/library\sha1.c ****     P( E, A, B, C, D, R(31) );
 1457              		.loc 1 218 0
 1458 0928 BA6B     		ldr	r2, [r7, #56]
 1459 092a 7B6A     		ldr	r3, [r7, #36]
 1460 092c 5A40     		eors	r2, r2, r3
 1461 092e FB68     		ldr	r3, [r7, #12]
 1462 0930 5A40     		eors	r2, r2, r3
 1463 0932 7B6C     		ldr	r3, [r7, #68]
 1464 0934 5340     		eors	r3, r3, r2
 1465 0936 BB64     		str	r3, [r7, #72]
 1466 0938 FB6C     		ldr	r3, [r7, #76]
 1467 093a 4FEAF362 		ror	r2, r3, #27
 1468 093e F96D     		ldr	r1, [r7, #92]
 1469 0940 BB6D     		ldr	r3, [r7, #88]
 1470 0942 5940     		eors	r1, r1, r3
 1471 0944 7B6D     		ldr	r3, [r7, #84]
 1472 0946 4B40     		eors	r3, r3, r1
 1473 0948 1A44     		add	r2, r2, r3
 1474 094a BB6C     		ldr	r3, [r7, #72]
 1475 094c 4FEAF373 		ror	r3, r3, #31
 1476 0950 7B64     		str	r3, [r7, #68]
 1477 0952 7B6C     		ldr	r3, [r7, #68]
 1478 0954 1A44     		add	r2, r2, r3
 1479 0956 664B     		ldr	r3, .L20
 1480 0958 1344     		add	r3, r3, r2
 1481 095a 3A6D     		ldr	r2, [r7, #80]
 1482 095c 1344     		add	r3, r3, r2
 1483 095e 3B65     		str	r3, [r7, #80]
 1484 0960 FB6D     		ldr	r3, [r7, #92]
 1485 0962 4FEAB303 		ror	r3, r3, #2
 1486 0966 FB65     		str	r3, [r7, #92]
 219:C:/Users/dtjld/workspace/AIoT/src/LiteOS_Lab/iot_link/network/dtls/mbedtls/mbedtls-2.16.2/library\sha1.c ****     P( D, E, A, B, C, R(32) );
 1487              		.loc 1 219 0
 1488 0968 FA6B     		ldr	r2, [r7, #60]
 1489 096a BB6A     		ldr	r3, [r7, #40]
 1490 096c 5A40     		eors	r2, r2, r3
 1491 096e 3B69     		ldr	r3, [r7, #16]
 1492 0970 5A40     		eors	r2, r2, r3
 1493 0972 BB68     		ldr	r3, [r7, #8]
 1494 0974 5340     		eors	r3, r3, r2
 1495 0976 BB64     		str	r3, [r7, #72]
 1496 0978 3B6D     		ldr	r3, [r7, #80]
 1497 097a 4FEAF362 		ror	r2, r3, #27
 1498 097e F96C     		ldr	r1, [r7, #76]
 1499 0980 FB6D     		ldr	r3, [r7, #92]
 1500 0982 5940     		eors	r1, r1, r3
 1501 0984 BB6D     		ldr	r3, [r7, #88]
ARM GAS  C:\Users\dtjld\AppData\Local\Temp\ccQby7Tk.s 			page 31


 1502 0986 4B40     		eors	r3, r3, r1
 1503 0988 1A44     		add	r2, r2, r3
 1504 098a BB6C     		ldr	r3, [r7, #72]
 1505 098c 4FEAF373 		ror	r3, r3, #31
 1506 0990 BB60     		str	r3, [r7, #8]
 1507 0992 BB68     		ldr	r3, [r7, #8]
 1508 0994 1A44     		add	r2, r2, r3
 1509 0996 564B     		ldr	r3, .L20
 1510 0998 1344     		add	r3, r3, r2
 1511 099a 7A6D     		ldr	r2, [r7, #84]
 1512 099c 1344     		add	r3, r3, r2
 1513 099e 7B65     		str	r3, [r7, #84]
 1514 09a0 FB6C     		ldr	r3, [r7, #76]
 1515 09a2 4FEAB303 		ror	r3, r3, #2
 1516 09a6 FB64     		str	r3, [r7, #76]
 220:C:/Users/dtjld/workspace/AIoT/src/LiteOS_Lab/iot_link/network/dtls/mbedtls/mbedtls-2.16.2/library\sha1.c ****     P( C, D, E, A, B, R(33) );
 1517              		.loc 1 220 0
 1518 09a8 3A6C     		ldr	r2, [r7, #64]
 1519 09aa FB6A     		ldr	r3, [r7, #44]
 1520 09ac 5A40     		eors	r2, r2, r3
 1521 09ae 7B69     		ldr	r3, [r7, #20]
 1522 09b0 5A40     		eors	r2, r2, r3
 1523 09b2 FB68     		ldr	r3, [r7, #12]
 1524 09b4 5340     		eors	r3, r3, r2
 1525 09b6 BB64     		str	r3, [r7, #72]
 1526 09b8 7B6D     		ldr	r3, [r7, #84]
 1527 09ba 4FEAF362 		ror	r2, r3, #27
 1528 09be 396D     		ldr	r1, [r7, #80]
 1529 09c0 FB6C     		ldr	r3, [r7, #76]
 1530 09c2 5940     		eors	r1, r1, r3
 1531 09c4 FB6D     		ldr	r3, [r7, #92]
 1532 09c6 4B40     		eors	r3, r3, r1
 1533 09c8 1A44     		add	r2, r2, r3
 1534 09ca BB6C     		ldr	r3, [r7, #72]
 1535 09cc 4FEAF373 		ror	r3, r3, #31
 1536 09d0 FB60     		str	r3, [r7, #12]
 1537 09d2 FB68     		ldr	r3, [r7, #12]
 1538 09d4 1A44     		add	r2, r2, r3
 1539 09d6 464B     		ldr	r3, .L20
 1540 09d8 1344     		add	r3, r3, r2
 1541 09da BA6D     		ldr	r2, [r7, #88]
 1542 09dc 1344     		add	r3, r3, r2
 1543 09de BB65     		str	r3, [r7, #88]
 1544 09e0 3B6D     		ldr	r3, [r7, #80]
 1545 09e2 4FEAB303 		ror	r3, r3, #2
 1546 09e6 3B65     		str	r3, [r7, #80]
 221:C:/Users/dtjld/workspace/AIoT/src/LiteOS_Lab/iot_link/network/dtls/mbedtls/mbedtls-2.16.2/library\sha1.c ****     P( B, C, D, E, A, R(34) );
 1547              		.loc 1 221 0
 1548 09e8 7A6C     		ldr	r2, [r7, #68]
 1549 09ea 3B6B     		ldr	r3, [r7, #48]
 1550 09ec 5A40     		eors	r2, r2, r3
 1551 09ee BB69     		ldr	r3, [r7, #24]
 1552 09f0 5A40     		eors	r2, r2, r3
 1553 09f2 3B69     		ldr	r3, [r7, #16]
 1554 09f4 5340     		eors	r3, r3, r2
 1555 09f6 BB64     		str	r3, [r7, #72]
 1556 09f8 BB6D     		ldr	r3, [r7, #88]
ARM GAS  C:\Users\dtjld\AppData\Local\Temp\ccQby7Tk.s 			page 32


 1557 09fa 4FEAF362 		ror	r2, r3, #27
 1558 09fe 796D     		ldr	r1, [r7, #84]
 1559 0a00 3B6D     		ldr	r3, [r7, #80]
 1560 0a02 5940     		eors	r1, r1, r3
 1561 0a04 FB6C     		ldr	r3, [r7, #76]
 1562 0a06 4B40     		eors	r3, r3, r1
 1563 0a08 1A44     		add	r2, r2, r3
 1564 0a0a BB6C     		ldr	r3, [r7, #72]
 1565 0a0c 4FEAF373 		ror	r3, r3, #31
 1566 0a10 3B61     		str	r3, [r7, #16]
 1567 0a12 3B69     		ldr	r3, [r7, #16]
 1568 0a14 1A44     		add	r2, r2, r3
 1569 0a16 364B     		ldr	r3, .L20
 1570 0a18 1344     		add	r3, r3, r2
 1571 0a1a FA6D     		ldr	r2, [r7, #92]
 1572 0a1c 1344     		add	r3, r3, r2
 1573 0a1e FB65     		str	r3, [r7, #92]
 1574 0a20 7B6D     		ldr	r3, [r7, #84]
 1575 0a22 4FEAB303 		ror	r3, r3, #2
 1576 0a26 7B65     		str	r3, [r7, #84]
 222:C:/Users/dtjld/workspace/AIoT/src/LiteOS_Lab/iot_link/network/dtls/mbedtls/mbedtls-2.16.2/library\sha1.c ****     P( A, B, C, D, E, R(35) );
 1577              		.loc 1 222 0
 1578 0a28 BA68     		ldr	r2, [r7, #8]
 1579 0a2a 7B6B     		ldr	r3, [r7, #52]
 1580 0a2c 5A40     		eors	r2, r2, r3
 1581 0a2e FB69     		ldr	r3, [r7, #28]
 1582 0a30 5A40     		eors	r2, r2, r3
 1583 0a32 7B69     		ldr	r3, [r7, #20]
 1584 0a34 5340     		eors	r3, r3, r2
 1585 0a36 BB64     		str	r3, [r7, #72]
 1586 0a38 FB6D     		ldr	r3, [r7, #92]
 1587 0a3a 4FEAF362 		ror	r2, r3, #27
 1588 0a3e B96D     		ldr	r1, [r7, #88]
 1589 0a40 7B6D     		ldr	r3, [r7, #84]
 1590 0a42 5940     		eors	r1, r1, r3
 1591 0a44 3B6D     		ldr	r3, [r7, #80]
 1592 0a46 4B40     		eors	r3, r3, r1
 1593 0a48 1A44     		add	r2, r2, r3
 1594 0a4a BB6C     		ldr	r3, [r7, #72]
 1595 0a4c 4FEAF373 		ror	r3, r3, #31
 1596 0a50 7B61     		str	r3, [r7, #20]
 1597 0a52 7B69     		ldr	r3, [r7, #20]
 1598 0a54 1A44     		add	r2, r2, r3
 1599 0a56 264B     		ldr	r3, .L20
 1600 0a58 1344     		add	r3, r3, r2
 1601 0a5a FA6C     		ldr	r2, [r7, #76]
 1602 0a5c 1344     		add	r3, r3, r2
 1603 0a5e FB64     		str	r3, [r7, #76]
 1604 0a60 BB6D     		ldr	r3, [r7, #88]
 1605 0a62 4FEAB303 		ror	r3, r3, #2
 1606 0a66 BB65     		str	r3, [r7, #88]
 223:C:/Users/dtjld/workspace/AIoT/src/LiteOS_Lab/iot_link/network/dtls/mbedtls/mbedtls-2.16.2/library\sha1.c ****     P( E, A, B, C, D, R(36) );
 1607              		.loc 1 223 0
 1608 0a68 FA68     		ldr	r2, [r7, #12]
 1609 0a6a BB6B     		ldr	r3, [r7, #56]
 1610 0a6c 5A40     		eors	r2, r2, r3
 1611 0a6e 3B6A     		ldr	r3, [r7, #32]
ARM GAS  C:\Users\dtjld\AppData\Local\Temp\ccQby7Tk.s 			page 33


 1612 0a70 5A40     		eors	r2, r2, r3
 1613 0a72 BB69     		ldr	r3, [r7, #24]
 1614 0a74 5340     		eors	r3, r3, r2
 1615 0a76 BB64     		str	r3, [r7, #72]
 1616 0a78 FB6C     		ldr	r3, [r7, #76]
 1617 0a7a 4FEAF362 		ror	r2, r3, #27
 1618 0a7e F96D     		ldr	r1, [r7, #92]
 1619 0a80 BB6D     		ldr	r3, [r7, #88]
 1620 0a82 5940     		eors	r1, r1, r3
 1621 0a84 7B6D     		ldr	r3, [r7, #84]
 1622 0a86 4B40     		eors	r3, r3, r1
 1623 0a88 1A44     		add	r2, r2, r3
 1624 0a8a BB6C     		ldr	r3, [r7, #72]
 1625 0a8c 4FEAF373 		ror	r3, r3, #31
 1626 0a90 BB61     		str	r3, [r7, #24]
 1627 0a92 BB69     		ldr	r3, [r7, #24]
 1628 0a94 1A44     		add	r2, r2, r3
 1629 0a96 164B     		ldr	r3, .L20
 1630 0a98 1344     		add	r3, r3, r2
 1631 0a9a 3A6D     		ldr	r2, [r7, #80]
 1632 0a9c 1344     		add	r3, r3, r2
 1633 0a9e 3B65     		str	r3, [r7, #80]
 1634 0aa0 FB6D     		ldr	r3, [r7, #92]
 1635 0aa2 4FEAB303 		ror	r3, r3, #2
 1636 0aa6 FB65     		str	r3, [r7, #92]
 224:C:/Users/dtjld/workspace/AIoT/src/LiteOS_Lab/iot_link/network/dtls/mbedtls/mbedtls-2.16.2/library\sha1.c ****     P( D, E, A, B, C, R(37) );
 1637              		.loc 1 224 0
 1638 0aa8 3A69     		ldr	r2, [r7, #16]
 1639 0aaa FB6B     		ldr	r3, [r7, #60]
 1640 0aac 5A40     		eors	r2, r2, r3
 1641 0aae 7B6A     		ldr	r3, [r7, #36]
 1642 0ab0 5A40     		eors	r2, r2, r3
 1643 0ab2 FB69     		ldr	r3, [r7, #28]
 1644 0ab4 5340     		eors	r3, r3, r2
 1645 0ab6 BB64     		str	r3, [r7, #72]
 1646 0ab8 3B6D     		ldr	r3, [r7, #80]
 1647 0aba 4FEAF362 		ror	r2, r3, #27
 1648 0abe F96C     		ldr	r1, [r7, #76]
 1649 0ac0 FB6D     		ldr	r3, [r7, #92]
 1650 0ac2 5940     		eors	r1, r1, r3
 1651 0ac4 BB6D     		ldr	r3, [r7, #88]
 1652 0ac6 4B40     		eors	r3, r3, r1
 1653 0ac8 1A44     		add	r2, r2, r3
 1654 0aca BB6C     		ldr	r3, [r7, #72]
 1655 0acc 4FEAF373 		ror	r3, r3, #31
 1656 0ad0 FB61     		str	r3, [r7, #28]
 1657 0ad2 FB69     		ldr	r3, [r7, #28]
 1658 0ad4 1A44     		add	r2, r2, r3
 1659 0ad6 064B     		ldr	r3, .L20
 1660 0ad8 1344     		add	r3, r3, r2
 1661 0ada 7A6D     		ldr	r2, [r7, #84]
 1662 0adc 1344     		add	r3, r3, r2
 1663 0ade 7B65     		str	r3, [r7, #84]
 1664 0ae0 FB6C     		ldr	r3, [r7, #76]
 1665 0ae2 4FEAB303 		ror	r3, r3, #2
 1666 0ae6 FB64     		str	r3, [r7, #76]
 225:C:/Users/dtjld/workspace/AIoT/src/LiteOS_Lab/iot_link/network/dtls/mbedtls/mbedtls-2.16.2/library\sha1.c ****     P( C, D, E, A, B, R(38) );
ARM GAS  C:\Users\dtjld\AppData\Local\Temp\ccQby7Tk.s 			page 34


 1667              		.loc 1 225 0
 1668 0ae8 7A69     		ldr	r2, [r7, #20]
 1669 0aea 3B6C     		ldr	r3, [r7, #64]
 1670 0aec 02E0     		b	.L21
 1671              	.L22:
 1672 0aee 00BF     		.align	2
 1673              	.L20:
 1674 0af0 A1EBD96E 		.word	1859775393
 1675              	.L21:
 1676 0af4 5A40     		eors	r2, r2, r3
 1677 0af6 BB6A     		ldr	r3, [r7, #40]
 1678 0af8 5A40     		eors	r2, r2, r3
 1679 0afa 3B6A     		ldr	r3, [r7, #32]
 1680 0afc 5340     		eors	r3, r3, r2
 1681 0afe BB64     		str	r3, [r7, #72]
 1682 0b00 7B6D     		ldr	r3, [r7, #84]
 1683 0b02 4FEAF362 		ror	r2, r3, #27
 1684 0b06 396D     		ldr	r1, [r7, #80]
 1685 0b08 FB6C     		ldr	r3, [r7, #76]
 1686 0b0a 5940     		eors	r1, r1, r3
 1687 0b0c FB6D     		ldr	r3, [r7, #92]
 1688 0b0e 4B40     		eors	r3, r3, r1
 1689 0b10 1A44     		add	r2, r2, r3
 1690 0b12 BB6C     		ldr	r3, [r7, #72]
 1691 0b14 4FEAF373 		ror	r3, r3, #31
 1692 0b18 3B62     		str	r3, [r7, #32]
 1693 0b1a 3B6A     		ldr	r3, [r7, #32]
 1694 0b1c 1A44     		add	r2, r2, r3
 1695 0b1e A64B     		ldr	r3, .L23
 1696 0b20 1344     		add	r3, r3, r2
 1697 0b22 BA6D     		ldr	r2, [r7, #88]
 1698 0b24 1344     		add	r3, r3, r2
 1699 0b26 BB65     		str	r3, [r7, #88]
 1700 0b28 3B6D     		ldr	r3, [r7, #80]
 1701 0b2a 4FEAB303 		ror	r3, r3, #2
 1702 0b2e 3B65     		str	r3, [r7, #80]
 226:C:/Users/dtjld/workspace/AIoT/src/LiteOS_Lab/iot_link/network/dtls/mbedtls/mbedtls-2.16.2/library\sha1.c ****     P( B, C, D, E, A, R(39) );
 1703              		.loc 1 226 0
 1704 0b30 BA69     		ldr	r2, [r7, #24]
 1705 0b32 7B6C     		ldr	r3, [r7, #68]
 1706 0b34 5A40     		eors	r2, r2, r3
 1707 0b36 FB6A     		ldr	r3, [r7, #44]
 1708 0b38 5A40     		eors	r2, r2, r3
 1709 0b3a 7B6A     		ldr	r3, [r7, #36]
 1710 0b3c 5340     		eors	r3, r3, r2
 1711 0b3e BB64     		str	r3, [r7, #72]
 1712 0b40 BB6D     		ldr	r3, [r7, #88]
 1713 0b42 4FEAF362 		ror	r2, r3, #27
 1714 0b46 796D     		ldr	r1, [r7, #84]
 1715 0b48 3B6D     		ldr	r3, [r7, #80]
 1716 0b4a 5940     		eors	r1, r1, r3
 1717 0b4c FB6C     		ldr	r3, [r7, #76]
 1718 0b4e 4B40     		eors	r3, r3, r1
 1719 0b50 1A44     		add	r2, r2, r3
 1720 0b52 BB6C     		ldr	r3, [r7, #72]
 1721 0b54 4FEAF373 		ror	r3, r3, #31
 1722 0b58 7B62     		str	r3, [r7, #36]
ARM GAS  C:\Users\dtjld\AppData\Local\Temp\ccQby7Tk.s 			page 35


 1723 0b5a 7B6A     		ldr	r3, [r7, #36]
 1724 0b5c 1A44     		add	r2, r2, r3
 1725 0b5e 964B     		ldr	r3, .L23
 1726 0b60 1344     		add	r3, r3, r2
 1727 0b62 FA6D     		ldr	r2, [r7, #92]
 1728 0b64 1344     		add	r3, r3, r2
 1729 0b66 FB65     		str	r3, [r7, #92]
 1730 0b68 7B6D     		ldr	r3, [r7, #84]
 1731 0b6a 4FEAB303 		ror	r3, r3, #2
 1732 0b6e 7B65     		str	r3, [r7, #84]
 227:C:/Users/dtjld/workspace/AIoT/src/LiteOS_Lab/iot_link/network/dtls/mbedtls/mbedtls-2.16.2/library\sha1.c **** 
 228:C:/Users/dtjld/workspace/AIoT/src/LiteOS_Lab/iot_link/network/dtls/mbedtls/mbedtls-2.16.2/library\sha1.c **** #undef K
 229:C:/Users/dtjld/workspace/AIoT/src/LiteOS_Lab/iot_link/network/dtls/mbedtls/mbedtls-2.16.2/library\sha1.c **** #undef F
 230:C:/Users/dtjld/workspace/AIoT/src/LiteOS_Lab/iot_link/network/dtls/mbedtls/mbedtls-2.16.2/library\sha1.c **** 
 231:C:/Users/dtjld/workspace/AIoT/src/LiteOS_Lab/iot_link/network/dtls/mbedtls/mbedtls-2.16.2/library\sha1.c **** #define F(x,y,z) (((x) & (y)) | ((z) & ((x) | (y))))
 232:C:/Users/dtjld/workspace/AIoT/src/LiteOS_Lab/iot_link/network/dtls/mbedtls/mbedtls-2.16.2/library\sha1.c **** #define K 0x8F1BBCDC
 233:C:/Users/dtjld/workspace/AIoT/src/LiteOS_Lab/iot_link/network/dtls/mbedtls/mbedtls-2.16.2/library\sha1.c **** 
 234:C:/Users/dtjld/workspace/AIoT/src/LiteOS_Lab/iot_link/network/dtls/mbedtls/mbedtls-2.16.2/library\sha1.c ****     P( A, B, C, D, E, R(40) );
 1733              		.loc 1 234 0
 1734 0b70 FA69     		ldr	r2, [r7, #28]
 1735 0b72 BB68     		ldr	r3, [r7, #8]
 1736 0b74 5A40     		eors	r2, r2, r3
 1737 0b76 3B6B     		ldr	r3, [r7, #48]
 1738 0b78 5A40     		eors	r2, r2, r3
 1739 0b7a BB6A     		ldr	r3, [r7, #40]
 1740 0b7c 5340     		eors	r3, r3, r2
 1741 0b7e BB64     		str	r3, [r7, #72]
 1742 0b80 FB6D     		ldr	r3, [r7, #92]
 1743 0b82 4FEAF362 		ror	r2, r3, #27
 1744 0b86 B96D     		ldr	r1, [r7, #88]
 1745 0b88 7B6D     		ldr	r3, [r7, #84]
 1746 0b8a 1940     		ands	r1, r1, r3
 1747 0b8c B86D     		ldr	r0, [r7, #88]
 1748 0b8e 7B6D     		ldr	r3, [r7, #84]
 1749 0b90 1843     		orrs	r0, r0, r3
 1750 0b92 3B6D     		ldr	r3, [r7, #80]
 1751 0b94 0340     		ands	r3, r3, r0
 1752 0b96 0B43     		orrs	r3, r3, r1
 1753 0b98 1A44     		add	r2, r2, r3
 1754 0b9a BB6C     		ldr	r3, [r7, #72]
 1755 0b9c 4FEAF373 		ror	r3, r3, #31
 1756 0ba0 BB62     		str	r3, [r7, #40]
 1757 0ba2 BB6A     		ldr	r3, [r7, #40]
 1758 0ba4 1A44     		add	r2, r2, r3
 1759 0ba6 854B     		ldr	r3, .L23+4
 1760 0ba8 1344     		add	r3, r3, r2
 1761 0baa FA6C     		ldr	r2, [r7, #76]
 1762 0bac 1344     		add	r3, r3, r2
 1763 0bae FB64     		str	r3, [r7, #76]
 1764 0bb0 BB6D     		ldr	r3, [r7, #88]
 1765 0bb2 4FEAB303 		ror	r3, r3, #2
 1766 0bb6 BB65     		str	r3, [r7, #88]
 235:C:/Users/dtjld/workspace/AIoT/src/LiteOS_Lab/iot_link/network/dtls/mbedtls/mbedtls-2.16.2/library\sha1.c ****     P( E, A, B, C, D, R(41) );
 1767              		.loc 1 235 0
 1768 0bb8 3A6A     		ldr	r2, [r7, #32]
 1769 0bba FB68     		ldr	r3, [r7, #12]
 1770 0bbc 5A40     		eors	r2, r2, r3
ARM GAS  C:\Users\dtjld\AppData\Local\Temp\ccQby7Tk.s 			page 36


 1771 0bbe 7B6B     		ldr	r3, [r7, #52]
 1772 0bc0 5A40     		eors	r2, r2, r3
 1773 0bc2 FB6A     		ldr	r3, [r7, #44]
 1774 0bc4 5340     		eors	r3, r3, r2
 1775 0bc6 BB64     		str	r3, [r7, #72]
 1776 0bc8 FB6C     		ldr	r3, [r7, #76]
 1777 0bca 4FEAF362 		ror	r2, r3, #27
 1778 0bce F96D     		ldr	r1, [r7, #92]
 1779 0bd0 BB6D     		ldr	r3, [r7, #88]
 1780 0bd2 1940     		ands	r1, r1, r3
 1781 0bd4 F86D     		ldr	r0, [r7, #92]
 1782 0bd6 BB6D     		ldr	r3, [r7, #88]
 1783 0bd8 1843     		orrs	r0, r0, r3
 1784 0bda 7B6D     		ldr	r3, [r7, #84]
 1785 0bdc 0340     		ands	r3, r3, r0
 1786 0bde 0B43     		orrs	r3, r3, r1
 1787 0be0 1A44     		add	r2, r2, r3
 1788 0be2 BB6C     		ldr	r3, [r7, #72]
 1789 0be4 4FEAF373 		ror	r3, r3, #31
 1790 0be8 FB62     		str	r3, [r7, #44]
 1791 0bea FB6A     		ldr	r3, [r7, #44]
 1792 0bec 1A44     		add	r2, r2, r3
 1793 0bee 734B     		ldr	r3, .L23+4
 1794 0bf0 1344     		add	r3, r3, r2
 1795 0bf2 3A6D     		ldr	r2, [r7, #80]
 1796 0bf4 1344     		add	r3, r3, r2
 1797 0bf6 3B65     		str	r3, [r7, #80]
 1798 0bf8 FB6D     		ldr	r3, [r7, #92]
 1799 0bfa 4FEAB303 		ror	r3, r3, #2
 1800 0bfe FB65     		str	r3, [r7, #92]
 236:C:/Users/dtjld/workspace/AIoT/src/LiteOS_Lab/iot_link/network/dtls/mbedtls/mbedtls-2.16.2/library\sha1.c ****     P( D, E, A, B, C, R(42) );
 1801              		.loc 1 236 0
 1802 0c00 7A6A     		ldr	r2, [r7, #36]
 1803 0c02 3B69     		ldr	r3, [r7, #16]
 1804 0c04 5A40     		eors	r2, r2, r3
 1805 0c06 BB6B     		ldr	r3, [r7, #56]
 1806 0c08 5A40     		eors	r2, r2, r3
 1807 0c0a 3B6B     		ldr	r3, [r7, #48]
 1808 0c0c 5340     		eors	r3, r3, r2
 1809 0c0e BB64     		str	r3, [r7, #72]
 1810 0c10 3B6D     		ldr	r3, [r7, #80]
 1811 0c12 4FEAF362 		ror	r2, r3, #27
 1812 0c16 F96C     		ldr	r1, [r7, #76]
 1813 0c18 FB6D     		ldr	r3, [r7, #92]
 1814 0c1a 1940     		ands	r1, r1, r3
 1815 0c1c F86C     		ldr	r0, [r7, #76]
 1816 0c1e FB6D     		ldr	r3, [r7, #92]
 1817 0c20 1843     		orrs	r0, r0, r3
 1818 0c22 BB6D     		ldr	r3, [r7, #88]
 1819 0c24 0340     		ands	r3, r3, r0
 1820 0c26 0B43     		orrs	r3, r3, r1
 1821 0c28 1A44     		add	r2, r2, r3
 1822 0c2a BB6C     		ldr	r3, [r7, #72]
 1823 0c2c 4FEAF373 		ror	r3, r3, #31
 1824 0c30 3B63     		str	r3, [r7, #48]
 1825 0c32 3B6B     		ldr	r3, [r7, #48]
 1826 0c34 1A44     		add	r2, r2, r3
ARM GAS  C:\Users\dtjld\AppData\Local\Temp\ccQby7Tk.s 			page 37


 1827 0c36 614B     		ldr	r3, .L23+4
 1828 0c38 1344     		add	r3, r3, r2
 1829 0c3a 7A6D     		ldr	r2, [r7, #84]
 1830 0c3c 1344     		add	r3, r3, r2
 1831 0c3e 7B65     		str	r3, [r7, #84]
 1832 0c40 FB6C     		ldr	r3, [r7, #76]
 1833 0c42 4FEAB303 		ror	r3, r3, #2
 1834 0c46 FB64     		str	r3, [r7, #76]
 237:C:/Users/dtjld/workspace/AIoT/src/LiteOS_Lab/iot_link/network/dtls/mbedtls/mbedtls-2.16.2/library\sha1.c ****     P( C, D, E, A, B, R(43) );
 1835              		.loc 1 237 0
 1836 0c48 BA6A     		ldr	r2, [r7, #40]
 1837 0c4a 7B69     		ldr	r3, [r7, #20]
 1838 0c4c 5A40     		eors	r2, r2, r3
 1839 0c4e FB6B     		ldr	r3, [r7, #60]
 1840 0c50 5A40     		eors	r2, r2, r3
 1841 0c52 7B6B     		ldr	r3, [r7, #52]
 1842 0c54 5340     		eors	r3, r3, r2
 1843 0c56 BB64     		str	r3, [r7, #72]
 1844 0c58 7B6D     		ldr	r3, [r7, #84]
 1845 0c5a 4FEAF362 		ror	r2, r3, #27
 1846 0c5e 396D     		ldr	r1, [r7, #80]
 1847 0c60 FB6C     		ldr	r3, [r7, #76]
 1848 0c62 1940     		ands	r1, r1, r3
 1849 0c64 386D     		ldr	r0, [r7, #80]
 1850 0c66 FB6C     		ldr	r3, [r7, #76]
 1851 0c68 1843     		orrs	r0, r0, r3
 1852 0c6a FB6D     		ldr	r3, [r7, #92]
 1853 0c6c 0340     		ands	r3, r3, r0
 1854 0c6e 0B43     		orrs	r3, r3, r1
 1855 0c70 1A44     		add	r2, r2, r3
 1856 0c72 BB6C     		ldr	r3, [r7, #72]
 1857 0c74 4FEAF373 		ror	r3, r3, #31
 1858 0c78 7B63     		str	r3, [r7, #52]
 1859 0c7a 7B6B     		ldr	r3, [r7, #52]
 1860 0c7c 1A44     		add	r2, r2, r3
 1861 0c7e 4F4B     		ldr	r3, .L23+4
 1862 0c80 1344     		add	r3, r3, r2
 1863 0c82 BA6D     		ldr	r2, [r7, #88]
 1864 0c84 1344     		add	r3, r3, r2
 1865 0c86 BB65     		str	r3, [r7, #88]
 1866 0c88 3B6D     		ldr	r3, [r7, #80]
 1867 0c8a 4FEAB303 		ror	r3, r3, #2
 1868 0c8e 3B65     		str	r3, [r7, #80]
 238:C:/Users/dtjld/workspace/AIoT/src/LiteOS_Lab/iot_link/network/dtls/mbedtls/mbedtls-2.16.2/library\sha1.c ****     P( B, C, D, E, A, R(44) );
 1869              		.loc 1 238 0
 1870 0c90 FA6A     		ldr	r2, [r7, #44]
 1871 0c92 BB69     		ldr	r3, [r7, #24]
 1872 0c94 5A40     		eors	r2, r2, r3
 1873 0c96 3B6C     		ldr	r3, [r7, #64]
 1874 0c98 5A40     		eors	r2, r2, r3
 1875 0c9a BB6B     		ldr	r3, [r7, #56]
 1876 0c9c 5340     		eors	r3, r3, r2
 1877 0c9e BB64     		str	r3, [r7, #72]
 1878 0ca0 BB6D     		ldr	r3, [r7, #88]
 1879 0ca2 4FEAF362 		ror	r2, r3, #27
 1880 0ca6 796D     		ldr	r1, [r7, #84]
 1881 0ca8 3B6D     		ldr	r3, [r7, #80]
ARM GAS  C:\Users\dtjld\AppData\Local\Temp\ccQby7Tk.s 			page 38


 1882 0caa 1940     		ands	r1, r1, r3
 1883 0cac 786D     		ldr	r0, [r7, #84]
 1884 0cae 3B6D     		ldr	r3, [r7, #80]
 1885 0cb0 1843     		orrs	r0, r0, r3
 1886 0cb2 FB6C     		ldr	r3, [r7, #76]
 1887 0cb4 0340     		ands	r3, r3, r0
 1888 0cb6 0B43     		orrs	r3, r3, r1
 1889 0cb8 1A44     		add	r2, r2, r3
 1890 0cba BB6C     		ldr	r3, [r7, #72]
 1891 0cbc 4FEAF373 		ror	r3, r3, #31
 1892 0cc0 BB63     		str	r3, [r7, #56]
 1893 0cc2 BB6B     		ldr	r3, [r7, #56]
 1894 0cc4 1A44     		add	r2, r2, r3
 1895 0cc6 3D4B     		ldr	r3, .L23+4
 1896 0cc8 1344     		add	r3, r3, r2
 1897 0cca FA6D     		ldr	r2, [r7, #92]
 1898 0ccc 1344     		add	r3, r3, r2
 1899 0cce FB65     		str	r3, [r7, #92]
 1900 0cd0 7B6D     		ldr	r3, [r7, #84]
 1901 0cd2 4FEAB303 		ror	r3, r3, #2
 1902 0cd6 7B65     		str	r3, [r7, #84]
 239:C:/Users/dtjld/workspace/AIoT/src/LiteOS_Lab/iot_link/network/dtls/mbedtls/mbedtls-2.16.2/library\sha1.c ****     P( A, B, C, D, E, R(45) );
 1903              		.loc 1 239 0
 1904 0cd8 3A6B     		ldr	r2, [r7, #48]
 1905 0cda FB69     		ldr	r3, [r7, #28]
 1906 0cdc 5A40     		eors	r2, r2, r3
 1907 0cde 7B6C     		ldr	r3, [r7, #68]
 1908 0ce0 5A40     		eors	r2, r2, r3
 1909 0ce2 FB6B     		ldr	r3, [r7, #60]
 1910 0ce4 5340     		eors	r3, r3, r2
 1911 0ce6 BB64     		str	r3, [r7, #72]
 1912 0ce8 FB6D     		ldr	r3, [r7, #92]
 1913 0cea 4FEAF362 		ror	r2, r3, #27
 1914 0cee B96D     		ldr	r1, [r7, #88]
 1915 0cf0 7B6D     		ldr	r3, [r7, #84]
 1916 0cf2 1940     		ands	r1, r1, r3
 1917 0cf4 B86D     		ldr	r0, [r7, #88]
 1918 0cf6 7B6D     		ldr	r3, [r7, #84]
 1919 0cf8 1843     		orrs	r0, r0, r3
 1920 0cfa 3B6D     		ldr	r3, [r7, #80]
 1921 0cfc 0340     		ands	r3, r3, r0
 1922 0cfe 0B43     		orrs	r3, r3, r1
 1923 0d00 1A44     		add	r2, r2, r3
 1924 0d02 BB6C     		ldr	r3, [r7, #72]
 1925 0d04 4FEAF373 		ror	r3, r3, #31
 1926 0d08 FB63     		str	r3, [r7, #60]
 1927 0d0a FB6B     		ldr	r3, [r7, #60]
 1928 0d0c 1A44     		add	r2, r2, r3
 1929 0d0e 2B4B     		ldr	r3, .L23+4
 1930 0d10 1344     		add	r3, r3, r2
 1931 0d12 FA6C     		ldr	r2, [r7, #76]
 1932 0d14 1344     		add	r3, r3, r2
 1933 0d16 FB64     		str	r3, [r7, #76]
 1934 0d18 BB6D     		ldr	r3, [r7, #88]
 1935 0d1a 4FEAB303 		ror	r3, r3, #2
 1936 0d1e BB65     		str	r3, [r7, #88]
 240:C:/Users/dtjld/workspace/AIoT/src/LiteOS_Lab/iot_link/network/dtls/mbedtls/mbedtls-2.16.2/library\sha1.c ****     P( E, A, B, C, D, R(46) );
ARM GAS  C:\Users\dtjld\AppData\Local\Temp\ccQby7Tk.s 			page 39


 1937              		.loc 1 240 0
 1938 0d20 7A6B     		ldr	r2, [r7, #52]
 1939 0d22 3B6A     		ldr	r3, [r7, #32]
 1940 0d24 5A40     		eors	r2, r2, r3
 1941 0d26 BB68     		ldr	r3, [r7, #8]
 1942 0d28 5A40     		eors	r2, r2, r3
 1943 0d2a 3B6C     		ldr	r3, [r7, #64]
 1944 0d2c 5340     		eors	r3, r3, r2
 1945 0d2e BB64     		str	r3, [r7, #72]
 1946 0d30 FB6C     		ldr	r3, [r7, #76]
 1947 0d32 4FEAF362 		ror	r2, r3, #27
 1948 0d36 F96D     		ldr	r1, [r7, #92]
 1949 0d38 BB6D     		ldr	r3, [r7, #88]
 1950 0d3a 1940     		ands	r1, r1, r3
 1951 0d3c F86D     		ldr	r0, [r7, #92]
 1952 0d3e BB6D     		ldr	r3, [r7, #88]
 1953 0d40 1843     		orrs	r0, r0, r3
 1954 0d42 7B6D     		ldr	r3, [r7, #84]
 1955 0d44 0340     		ands	r3, r3, r0
 1956 0d46 0B43     		orrs	r3, r3, r1
 1957 0d48 1A44     		add	r2, r2, r3
 1958 0d4a BB6C     		ldr	r3, [r7, #72]
 1959 0d4c 4FEAF373 		ror	r3, r3, #31
 1960 0d50 3B64     		str	r3, [r7, #64]
 1961 0d52 3B6C     		ldr	r3, [r7, #64]
 1962 0d54 1A44     		add	r2, r2, r3
 1963 0d56 194B     		ldr	r3, .L23+4
 1964 0d58 1344     		add	r3, r3, r2
 1965 0d5a 3A6D     		ldr	r2, [r7, #80]
 1966 0d5c 1344     		add	r3, r3, r2
 1967 0d5e 3B65     		str	r3, [r7, #80]
 1968 0d60 FB6D     		ldr	r3, [r7, #92]
 1969 0d62 4FEAB303 		ror	r3, r3, #2
 1970 0d66 FB65     		str	r3, [r7, #92]
 241:C:/Users/dtjld/workspace/AIoT/src/LiteOS_Lab/iot_link/network/dtls/mbedtls/mbedtls-2.16.2/library\sha1.c ****     P( D, E, A, B, C, R(47) );
 1971              		.loc 1 241 0
 1972 0d68 BA6B     		ldr	r2, [r7, #56]
 1973 0d6a 7B6A     		ldr	r3, [r7, #36]
 1974 0d6c 5A40     		eors	r2, r2, r3
 1975 0d6e FB68     		ldr	r3, [r7, #12]
 1976 0d70 5A40     		eors	r2, r2, r3
 1977 0d72 7B6C     		ldr	r3, [r7, #68]
 1978 0d74 5340     		eors	r3, r3, r2
 1979 0d76 BB64     		str	r3, [r7, #72]
 1980 0d78 3B6D     		ldr	r3, [r7, #80]
 1981 0d7a 4FEAF362 		ror	r2, r3, #27
 1982 0d7e F96C     		ldr	r1, [r7, #76]
 1983 0d80 FB6D     		ldr	r3, [r7, #92]
 1984 0d82 1940     		ands	r1, r1, r3
 1985 0d84 F86C     		ldr	r0, [r7, #76]
 1986 0d86 FB6D     		ldr	r3, [r7, #92]
 1987 0d88 1843     		orrs	r0, r0, r3
 1988 0d8a BB6D     		ldr	r3, [r7, #88]
 1989 0d8c 0340     		ands	r3, r3, r0
 1990 0d8e 0B43     		orrs	r3, r3, r1
 1991 0d90 1A44     		add	r2, r2, r3
 1992 0d92 BB6C     		ldr	r3, [r7, #72]
ARM GAS  C:\Users\dtjld\AppData\Local\Temp\ccQby7Tk.s 			page 40


 1993 0d94 4FEAF373 		ror	r3, r3, #31
 1994 0d98 7B64     		str	r3, [r7, #68]
 1995 0d9a 7B6C     		ldr	r3, [r7, #68]
 1996 0d9c 1A44     		add	r2, r2, r3
 1997 0d9e 074B     		ldr	r3, .L23+4
 1998 0da0 1344     		add	r3, r3, r2
 1999 0da2 7A6D     		ldr	r2, [r7, #84]
 2000 0da4 1344     		add	r3, r3, r2
 2001 0da6 7B65     		str	r3, [r7, #84]
 2002 0da8 FB6C     		ldr	r3, [r7, #76]
 2003 0daa 4FEAB303 		ror	r3, r3, #2
 2004 0dae FB64     		str	r3, [r7, #76]
 242:C:/Users/dtjld/workspace/AIoT/src/LiteOS_Lab/iot_link/network/dtls/mbedtls/mbedtls-2.16.2/library\sha1.c ****     P( C, D, E, A, B, R(48) );
 2005              		.loc 1 242 0
 2006 0db0 FA6B     		ldr	r2, [r7, #60]
 2007 0db2 BB6A     		ldr	r3, [r7, #40]
 2008 0db4 5A40     		eors	r2, r2, r3
 2009 0db6 03E0     		b	.L24
 2010              	.L25:
 2011              		.align	2
 2012              	.L23:
 2013 0db8 A1EBD96E 		.word	1859775393
 2014 0dbc DCBC1B8F 		.word	-1894007588
 2015              	.L24:
 2016 0dc0 3B69     		ldr	r3, [r7, #16]
 2017 0dc2 5A40     		eors	r2, r2, r3
 2018 0dc4 BB68     		ldr	r3, [r7, #8]
 2019 0dc6 5340     		eors	r3, r3, r2
 2020 0dc8 BB64     		str	r3, [r7, #72]
 2021 0dca 7B6D     		ldr	r3, [r7, #84]
 2022 0dcc 4FEAF362 		ror	r2, r3, #27
 2023 0dd0 396D     		ldr	r1, [r7, #80]
 2024 0dd2 FB6C     		ldr	r3, [r7, #76]
 2025 0dd4 1940     		ands	r1, r1, r3
 2026 0dd6 386D     		ldr	r0, [r7, #80]
 2027 0dd8 FB6C     		ldr	r3, [r7, #76]
 2028 0dda 1843     		orrs	r0, r0, r3
 2029 0ddc FB6D     		ldr	r3, [r7, #92]
 2030 0dde 0340     		ands	r3, r3, r0
 2031 0de0 0B43     		orrs	r3, r3, r1
 2032 0de2 1A44     		add	r2, r2, r3
 2033 0de4 BB6C     		ldr	r3, [r7, #72]
 2034 0de6 4FEAF373 		ror	r3, r3, #31
 2035 0dea BB60     		str	r3, [r7, #8]
 2036 0dec BB68     		ldr	r3, [r7, #8]
 2037 0dee 1A44     		add	r2, r2, r3
 2038 0df0 A64B     		ldr	r3, .L26
 2039 0df2 1344     		add	r3, r3, r2
 2040 0df4 BA6D     		ldr	r2, [r7, #88]
 2041 0df6 1344     		add	r3, r3, r2
 2042 0df8 BB65     		str	r3, [r7, #88]
 2043 0dfa 3B6D     		ldr	r3, [r7, #80]
 2044 0dfc 4FEAB303 		ror	r3, r3, #2
 2045 0e00 3B65     		str	r3, [r7, #80]
 243:C:/Users/dtjld/workspace/AIoT/src/LiteOS_Lab/iot_link/network/dtls/mbedtls/mbedtls-2.16.2/library\sha1.c ****     P( B, C, D, E, A, R(49) );
 2046              		.loc 1 243 0
 2047 0e02 3A6C     		ldr	r2, [r7, #64]
ARM GAS  C:\Users\dtjld\AppData\Local\Temp\ccQby7Tk.s 			page 41


 2048 0e04 FB6A     		ldr	r3, [r7, #44]
 2049 0e06 5A40     		eors	r2, r2, r3
 2050 0e08 7B69     		ldr	r3, [r7, #20]
 2051 0e0a 5A40     		eors	r2, r2, r3
 2052 0e0c FB68     		ldr	r3, [r7, #12]
 2053 0e0e 5340     		eors	r3, r3, r2
 2054 0e10 BB64     		str	r3, [r7, #72]
 2055 0e12 BB6D     		ldr	r3, [r7, #88]
 2056 0e14 4FEAF362 		ror	r2, r3, #27
 2057 0e18 796D     		ldr	r1, [r7, #84]
 2058 0e1a 3B6D     		ldr	r3, [r7, #80]
 2059 0e1c 1940     		ands	r1, r1, r3
 2060 0e1e 786D     		ldr	r0, [r7, #84]
 2061 0e20 3B6D     		ldr	r3, [r7, #80]
 2062 0e22 1843     		orrs	r0, r0, r3
 2063 0e24 FB6C     		ldr	r3, [r7, #76]
 2064 0e26 0340     		ands	r3, r3, r0
 2065 0e28 0B43     		orrs	r3, r3, r1
 2066 0e2a 1A44     		add	r2, r2, r3
 2067 0e2c BB6C     		ldr	r3, [r7, #72]
 2068 0e2e 4FEAF373 		ror	r3, r3, #31
 2069 0e32 FB60     		str	r3, [r7, #12]
 2070 0e34 FB68     		ldr	r3, [r7, #12]
 2071 0e36 1A44     		add	r2, r2, r3
 2072 0e38 944B     		ldr	r3, .L26
 2073 0e3a 1344     		add	r3, r3, r2
 2074 0e3c FA6D     		ldr	r2, [r7, #92]
 2075 0e3e 1344     		add	r3, r3, r2
 2076 0e40 FB65     		str	r3, [r7, #92]
 2077 0e42 7B6D     		ldr	r3, [r7, #84]
 2078 0e44 4FEAB303 		ror	r3, r3, #2
 2079 0e48 7B65     		str	r3, [r7, #84]
 244:C:/Users/dtjld/workspace/AIoT/src/LiteOS_Lab/iot_link/network/dtls/mbedtls/mbedtls-2.16.2/library\sha1.c ****     P( A, B, C, D, E, R(50) );
 2080              		.loc 1 244 0
 2081 0e4a 7A6C     		ldr	r2, [r7, #68]
 2082 0e4c 3B6B     		ldr	r3, [r7, #48]
 2083 0e4e 5A40     		eors	r2, r2, r3
 2084 0e50 BB69     		ldr	r3, [r7, #24]
 2085 0e52 5A40     		eors	r2, r2, r3
 2086 0e54 3B69     		ldr	r3, [r7, #16]
 2087 0e56 5340     		eors	r3, r3, r2
 2088 0e58 BB64     		str	r3, [r7, #72]
 2089 0e5a FB6D     		ldr	r3, [r7, #92]
 2090 0e5c 4FEAF362 		ror	r2, r3, #27
 2091 0e60 B96D     		ldr	r1, [r7, #88]
 2092 0e62 7B6D     		ldr	r3, [r7, #84]
 2093 0e64 1940     		ands	r1, r1, r3
 2094 0e66 B86D     		ldr	r0, [r7, #88]
 2095 0e68 7B6D     		ldr	r3, [r7, #84]
 2096 0e6a 1843     		orrs	r0, r0, r3
 2097 0e6c 3B6D     		ldr	r3, [r7, #80]
 2098 0e6e 0340     		ands	r3, r3, r0
 2099 0e70 0B43     		orrs	r3, r3, r1
 2100 0e72 1A44     		add	r2, r2, r3
 2101 0e74 BB6C     		ldr	r3, [r7, #72]
 2102 0e76 4FEAF373 		ror	r3, r3, #31
 2103 0e7a 3B61     		str	r3, [r7, #16]
ARM GAS  C:\Users\dtjld\AppData\Local\Temp\ccQby7Tk.s 			page 42


 2104 0e7c 3B69     		ldr	r3, [r7, #16]
 2105 0e7e 1A44     		add	r2, r2, r3
 2106 0e80 824B     		ldr	r3, .L26
 2107 0e82 1344     		add	r3, r3, r2
 2108 0e84 FA6C     		ldr	r2, [r7, #76]
 2109 0e86 1344     		add	r3, r3, r2
 2110 0e88 FB64     		str	r3, [r7, #76]
 2111 0e8a BB6D     		ldr	r3, [r7, #88]
 2112 0e8c 4FEAB303 		ror	r3, r3, #2
 2113 0e90 BB65     		str	r3, [r7, #88]
 245:C:/Users/dtjld/workspace/AIoT/src/LiteOS_Lab/iot_link/network/dtls/mbedtls/mbedtls-2.16.2/library\sha1.c ****     P( E, A, B, C, D, R(51) );
 2114              		.loc 1 245 0
 2115 0e92 BA68     		ldr	r2, [r7, #8]
 2116 0e94 7B6B     		ldr	r3, [r7, #52]
 2117 0e96 5A40     		eors	r2, r2, r3
 2118 0e98 FB69     		ldr	r3, [r7, #28]
 2119 0e9a 5A40     		eors	r2, r2, r3
 2120 0e9c 7B69     		ldr	r3, [r7, #20]
 2121 0e9e 5340     		eors	r3, r3, r2
 2122 0ea0 BB64     		str	r3, [r7, #72]
 2123 0ea2 FB6C     		ldr	r3, [r7, #76]
 2124 0ea4 4FEAF362 		ror	r2, r3, #27
 2125 0ea8 F96D     		ldr	r1, [r7, #92]
 2126 0eaa BB6D     		ldr	r3, [r7, #88]
 2127 0eac 1940     		ands	r1, r1, r3
 2128 0eae F86D     		ldr	r0, [r7, #92]
 2129 0eb0 BB6D     		ldr	r3, [r7, #88]
 2130 0eb2 1843     		orrs	r0, r0, r3
 2131 0eb4 7B6D     		ldr	r3, [r7, #84]
 2132 0eb6 0340     		ands	r3, r3, r0
 2133 0eb8 0B43     		orrs	r3, r3, r1
 2134 0eba 1A44     		add	r2, r2, r3
 2135 0ebc BB6C     		ldr	r3, [r7, #72]
 2136 0ebe 4FEAF373 		ror	r3, r3, #31
 2137 0ec2 7B61     		str	r3, [r7, #20]
 2138 0ec4 7B69     		ldr	r3, [r7, #20]
 2139 0ec6 1A44     		add	r2, r2, r3
 2140 0ec8 704B     		ldr	r3, .L26
 2141 0eca 1344     		add	r3, r3, r2
 2142 0ecc 3A6D     		ldr	r2, [r7, #80]
 2143 0ece 1344     		add	r3, r3, r2
 2144 0ed0 3B65     		str	r3, [r7, #80]
 2145 0ed2 FB6D     		ldr	r3, [r7, #92]
 2146 0ed4 4FEAB303 		ror	r3, r3, #2
 2147 0ed8 FB65     		str	r3, [r7, #92]
 246:C:/Users/dtjld/workspace/AIoT/src/LiteOS_Lab/iot_link/network/dtls/mbedtls/mbedtls-2.16.2/library\sha1.c ****     P( D, E, A, B, C, R(52) );
 2148              		.loc 1 246 0
 2149 0eda FA68     		ldr	r2, [r7, #12]
 2150 0edc BB6B     		ldr	r3, [r7, #56]
 2151 0ede 5A40     		eors	r2, r2, r3
 2152 0ee0 3B6A     		ldr	r3, [r7, #32]
 2153 0ee2 5A40     		eors	r2, r2, r3
 2154 0ee4 BB69     		ldr	r3, [r7, #24]
 2155 0ee6 5340     		eors	r3, r3, r2
 2156 0ee8 BB64     		str	r3, [r7, #72]
 2157 0eea 3B6D     		ldr	r3, [r7, #80]
 2158 0eec 4FEAF362 		ror	r2, r3, #27
ARM GAS  C:\Users\dtjld\AppData\Local\Temp\ccQby7Tk.s 			page 43


 2159 0ef0 F96C     		ldr	r1, [r7, #76]
 2160 0ef2 FB6D     		ldr	r3, [r7, #92]
 2161 0ef4 1940     		ands	r1, r1, r3
 2162 0ef6 F86C     		ldr	r0, [r7, #76]
 2163 0ef8 FB6D     		ldr	r3, [r7, #92]
 2164 0efa 1843     		orrs	r0, r0, r3
 2165 0efc BB6D     		ldr	r3, [r7, #88]
 2166 0efe 0340     		ands	r3, r3, r0
 2167 0f00 0B43     		orrs	r3, r3, r1
 2168 0f02 1A44     		add	r2, r2, r3
 2169 0f04 BB6C     		ldr	r3, [r7, #72]
 2170 0f06 4FEAF373 		ror	r3, r3, #31
 2171 0f0a BB61     		str	r3, [r7, #24]
 2172 0f0c BB69     		ldr	r3, [r7, #24]
 2173 0f0e 1A44     		add	r2, r2, r3
 2174 0f10 5E4B     		ldr	r3, .L26
 2175 0f12 1344     		add	r3, r3, r2
 2176 0f14 7A6D     		ldr	r2, [r7, #84]
 2177 0f16 1344     		add	r3, r3, r2
 2178 0f18 7B65     		str	r3, [r7, #84]
 2179 0f1a FB6C     		ldr	r3, [r7, #76]
 2180 0f1c 4FEAB303 		ror	r3, r3, #2
 2181 0f20 FB64     		str	r3, [r7, #76]
 247:C:/Users/dtjld/workspace/AIoT/src/LiteOS_Lab/iot_link/network/dtls/mbedtls/mbedtls-2.16.2/library\sha1.c ****     P( C, D, E, A, B, R(53) );
 2182              		.loc 1 247 0
 2183 0f22 3A69     		ldr	r2, [r7, #16]
 2184 0f24 FB6B     		ldr	r3, [r7, #60]
 2185 0f26 5A40     		eors	r2, r2, r3
 2186 0f28 7B6A     		ldr	r3, [r7, #36]
 2187 0f2a 5A40     		eors	r2, r2, r3
 2188 0f2c FB69     		ldr	r3, [r7, #28]
 2189 0f2e 5340     		eors	r3, r3, r2
 2190 0f30 BB64     		str	r3, [r7, #72]
 2191 0f32 7B6D     		ldr	r3, [r7, #84]
 2192 0f34 4FEAF362 		ror	r2, r3, #27
 2193 0f38 396D     		ldr	r1, [r7, #80]
 2194 0f3a FB6C     		ldr	r3, [r7, #76]
 2195 0f3c 1940     		ands	r1, r1, r3
 2196 0f3e 386D     		ldr	r0, [r7, #80]
 2197 0f40 FB6C     		ldr	r3, [r7, #76]
 2198 0f42 1843     		orrs	r0, r0, r3
 2199 0f44 FB6D     		ldr	r3, [r7, #92]
 2200 0f46 0340     		ands	r3, r3, r0
 2201 0f48 0B43     		orrs	r3, r3, r1
 2202 0f4a 1A44     		add	r2, r2, r3
 2203 0f4c BB6C     		ldr	r3, [r7, #72]
 2204 0f4e 4FEAF373 		ror	r3, r3, #31
 2205 0f52 FB61     		str	r3, [r7, #28]
 2206 0f54 FB69     		ldr	r3, [r7, #28]
 2207 0f56 1A44     		add	r2, r2, r3
 2208 0f58 4C4B     		ldr	r3, .L26
 2209 0f5a 1344     		add	r3, r3, r2
 2210 0f5c BA6D     		ldr	r2, [r7, #88]
 2211 0f5e 1344     		add	r3, r3, r2
 2212 0f60 BB65     		str	r3, [r7, #88]
 2213 0f62 3B6D     		ldr	r3, [r7, #80]
 2214 0f64 4FEAB303 		ror	r3, r3, #2
ARM GAS  C:\Users\dtjld\AppData\Local\Temp\ccQby7Tk.s 			page 44


 2215 0f68 3B65     		str	r3, [r7, #80]
 248:C:/Users/dtjld/workspace/AIoT/src/LiteOS_Lab/iot_link/network/dtls/mbedtls/mbedtls-2.16.2/library\sha1.c ****     P( B, C, D, E, A, R(54) );
 2216              		.loc 1 248 0
 2217 0f6a 7A69     		ldr	r2, [r7, #20]
 2218 0f6c 3B6C     		ldr	r3, [r7, #64]
 2219 0f6e 5A40     		eors	r2, r2, r3
 2220 0f70 BB6A     		ldr	r3, [r7, #40]
 2221 0f72 5A40     		eors	r2, r2, r3
 2222 0f74 3B6A     		ldr	r3, [r7, #32]
 2223 0f76 5340     		eors	r3, r3, r2
 2224 0f78 BB64     		str	r3, [r7, #72]
 2225 0f7a BB6D     		ldr	r3, [r7, #88]
 2226 0f7c 4FEAF362 		ror	r2, r3, #27
 2227 0f80 796D     		ldr	r1, [r7, #84]
 2228 0f82 3B6D     		ldr	r3, [r7, #80]
 2229 0f84 1940     		ands	r1, r1, r3
 2230 0f86 786D     		ldr	r0, [r7, #84]
 2231 0f88 3B6D     		ldr	r3, [r7, #80]
 2232 0f8a 1843     		orrs	r0, r0, r3
 2233 0f8c FB6C     		ldr	r3, [r7, #76]
 2234 0f8e 0340     		ands	r3, r3, r0
 2235 0f90 0B43     		orrs	r3, r3, r1
 2236 0f92 1A44     		add	r2, r2, r3
 2237 0f94 BB6C     		ldr	r3, [r7, #72]
 2238 0f96 4FEAF373 		ror	r3, r3, #31
 2239 0f9a 3B62     		str	r3, [r7, #32]
 2240 0f9c 3B6A     		ldr	r3, [r7, #32]
 2241 0f9e 1A44     		add	r2, r2, r3
 2242 0fa0 3A4B     		ldr	r3, .L26
 2243 0fa2 1344     		add	r3, r3, r2
 2244 0fa4 FA6D     		ldr	r2, [r7, #92]
 2245 0fa6 1344     		add	r3, r3, r2
 2246 0fa8 FB65     		str	r3, [r7, #92]
 2247 0faa 7B6D     		ldr	r3, [r7, #84]
 2248 0fac 4FEAB303 		ror	r3, r3, #2
 2249 0fb0 7B65     		str	r3, [r7, #84]
 249:C:/Users/dtjld/workspace/AIoT/src/LiteOS_Lab/iot_link/network/dtls/mbedtls/mbedtls-2.16.2/library\sha1.c ****     P( A, B, C, D, E, R(55) );
 2250              		.loc 1 249 0
 2251 0fb2 BA69     		ldr	r2, [r7, #24]
 2252 0fb4 7B6C     		ldr	r3, [r7, #68]
 2253 0fb6 5A40     		eors	r2, r2, r3
 2254 0fb8 FB6A     		ldr	r3, [r7, #44]
 2255 0fba 5A40     		eors	r2, r2, r3
 2256 0fbc 7B6A     		ldr	r3, [r7, #36]
 2257 0fbe 5340     		eors	r3, r3, r2
 2258 0fc0 BB64     		str	r3, [r7, #72]
 2259 0fc2 FB6D     		ldr	r3, [r7, #92]
 2260 0fc4 4FEAF362 		ror	r2, r3, #27
 2261 0fc8 B96D     		ldr	r1, [r7, #88]
 2262 0fca 7B6D     		ldr	r3, [r7, #84]
 2263 0fcc 1940     		ands	r1, r1, r3
 2264 0fce B86D     		ldr	r0, [r7, #88]
 2265 0fd0 7B6D     		ldr	r3, [r7, #84]
 2266 0fd2 1843     		orrs	r0, r0, r3
 2267 0fd4 3B6D     		ldr	r3, [r7, #80]
 2268 0fd6 0340     		ands	r3, r3, r0
 2269 0fd8 0B43     		orrs	r3, r3, r1
ARM GAS  C:\Users\dtjld\AppData\Local\Temp\ccQby7Tk.s 			page 45


 2270 0fda 1A44     		add	r2, r2, r3
 2271 0fdc BB6C     		ldr	r3, [r7, #72]
 2272 0fde 4FEAF373 		ror	r3, r3, #31
 2273 0fe2 7B62     		str	r3, [r7, #36]
 2274 0fe4 7B6A     		ldr	r3, [r7, #36]
 2275 0fe6 1A44     		add	r2, r2, r3
 2276 0fe8 284B     		ldr	r3, .L26
 2277 0fea 1344     		add	r3, r3, r2
 2278 0fec FA6C     		ldr	r2, [r7, #76]
 2279 0fee 1344     		add	r3, r3, r2
 2280 0ff0 FB64     		str	r3, [r7, #76]
 2281 0ff2 BB6D     		ldr	r3, [r7, #88]
 2282 0ff4 4FEAB303 		ror	r3, r3, #2
 2283 0ff8 BB65     		str	r3, [r7, #88]
 250:C:/Users/dtjld/workspace/AIoT/src/LiteOS_Lab/iot_link/network/dtls/mbedtls/mbedtls-2.16.2/library\sha1.c ****     P( E, A, B, C, D, R(56) );
 2284              		.loc 1 250 0
 2285 0ffa FA69     		ldr	r2, [r7, #28]
 2286 0ffc BB68     		ldr	r3, [r7, #8]
 2287 0ffe 5A40     		eors	r2, r2, r3
 2288 1000 3B6B     		ldr	r3, [r7, #48]
 2289 1002 5A40     		eors	r2, r2, r3
 2290 1004 BB6A     		ldr	r3, [r7, #40]
 2291 1006 5340     		eors	r3, r3, r2
 2292 1008 BB64     		str	r3, [r7, #72]
 2293 100a FB6C     		ldr	r3, [r7, #76]
 2294 100c 4FEAF362 		ror	r2, r3, #27
 2295 1010 F96D     		ldr	r1, [r7, #92]
 2296 1012 BB6D     		ldr	r3, [r7, #88]
 2297 1014 1940     		ands	r1, r1, r3
 2298 1016 F86D     		ldr	r0, [r7, #92]
 2299 1018 BB6D     		ldr	r3, [r7, #88]
 2300 101a 1843     		orrs	r0, r0, r3
 2301 101c 7B6D     		ldr	r3, [r7, #84]
 2302 101e 0340     		ands	r3, r3, r0
 2303 1020 0B43     		orrs	r3, r3, r1
 2304 1022 1A44     		add	r2, r2, r3
 2305 1024 BB6C     		ldr	r3, [r7, #72]
 2306 1026 4FEAF373 		ror	r3, r3, #31
 2307 102a BB62     		str	r3, [r7, #40]
 2308 102c BB6A     		ldr	r3, [r7, #40]
 2309 102e 1A44     		add	r2, r2, r3
 2310 1030 164B     		ldr	r3, .L26
 2311 1032 1344     		add	r3, r3, r2
 2312 1034 3A6D     		ldr	r2, [r7, #80]
 2313 1036 1344     		add	r3, r3, r2
 2314 1038 3B65     		str	r3, [r7, #80]
 2315 103a FB6D     		ldr	r3, [r7, #92]
 2316 103c 4FEAB303 		ror	r3, r3, #2
 2317 1040 FB65     		str	r3, [r7, #92]
 251:C:/Users/dtjld/workspace/AIoT/src/LiteOS_Lab/iot_link/network/dtls/mbedtls/mbedtls-2.16.2/library\sha1.c ****     P( D, E, A, B, C, R(57) );
 2318              		.loc 1 251 0
 2319 1042 3A6A     		ldr	r2, [r7, #32]
 2320 1044 FB68     		ldr	r3, [r7, #12]
 2321 1046 5A40     		eors	r2, r2, r3
 2322 1048 7B6B     		ldr	r3, [r7, #52]
 2323 104a 5A40     		eors	r2, r2, r3
 2324 104c FB6A     		ldr	r3, [r7, #44]
ARM GAS  C:\Users\dtjld\AppData\Local\Temp\ccQby7Tk.s 			page 46


 2325 104e 5340     		eors	r3, r3, r2
 2326 1050 BB64     		str	r3, [r7, #72]
 2327 1052 3B6D     		ldr	r3, [r7, #80]
 2328 1054 4FEAF362 		ror	r2, r3, #27
 2329 1058 F96C     		ldr	r1, [r7, #76]
 2330 105a FB6D     		ldr	r3, [r7, #92]
 2331 105c 1940     		ands	r1, r1, r3
 2332 105e F86C     		ldr	r0, [r7, #76]
 2333 1060 FB6D     		ldr	r3, [r7, #92]
 2334 1062 1843     		orrs	r0, r0, r3
 2335 1064 BB6D     		ldr	r3, [r7, #88]
 2336 1066 0340     		ands	r3, r3, r0
 2337 1068 0B43     		orrs	r3, r3, r1
 2338 106a 1A44     		add	r2, r2, r3
 2339 106c BB6C     		ldr	r3, [r7, #72]
 2340 106e 4FEAF373 		ror	r3, r3, #31
 2341 1072 FB62     		str	r3, [r7, #44]
 2342 1074 FB6A     		ldr	r3, [r7, #44]
 2343 1076 1A44     		add	r2, r2, r3
 2344 1078 044B     		ldr	r3, .L26
 2345 107a 1344     		add	r3, r3, r2
 2346 107c 7A6D     		ldr	r2, [r7, #84]
 2347 107e 1344     		add	r3, r3, r2
 2348 1080 7B65     		str	r3, [r7, #84]
 2349 1082 FB6C     		ldr	r3, [r7, #76]
 2350 1084 4FEAB303 		ror	r3, r3, #2
 2351 1088 02E0     		b	.L27
 2352              	.L28:
 2353 108a 00BF     		.align	2
 2354              	.L26:
 2355 108c DCBC1B8F 		.word	-1894007588
 2356              	.L27:
 2357 1090 FB64     		str	r3, [r7, #76]
 252:C:/Users/dtjld/workspace/AIoT/src/LiteOS_Lab/iot_link/network/dtls/mbedtls/mbedtls-2.16.2/library\sha1.c ****     P( C, D, E, A, B, R(58) );
 2358              		.loc 1 252 0
 2359 1092 7A6A     		ldr	r2, [r7, #36]
 2360 1094 3B69     		ldr	r3, [r7, #16]
 2361 1096 5A40     		eors	r2, r2, r3
 2362 1098 BB6B     		ldr	r3, [r7, #56]
 2363 109a 5A40     		eors	r2, r2, r3
 2364 109c 3B6B     		ldr	r3, [r7, #48]
 2365 109e 5340     		eors	r3, r3, r2
 2366 10a0 BB64     		str	r3, [r7, #72]
 2367 10a2 7B6D     		ldr	r3, [r7, #84]
 2368 10a4 4FEAF362 		ror	r2, r3, #27
 2369 10a8 396D     		ldr	r1, [r7, #80]
 2370 10aa FB6C     		ldr	r3, [r7, #76]
 2371 10ac 1940     		ands	r1, r1, r3
 2372 10ae 386D     		ldr	r0, [r7, #80]
 2373 10b0 FB6C     		ldr	r3, [r7, #76]
 2374 10b2 1843     		orrs	r0, r0, r3
 2375 10b4 FB6D     		ldr	r3, [r7, #92]
 2376 10b6 0340     		ands	r3, r3, r0
 2377 10b8 0B43     		orrs	r3, r3, r1
 2378 10ba 1A44     		add	r2, r2, r3
 2379 10bc BB6C     		ldr	r3, [r7, #72]
 2380 10be 4FEAF373 		ror	r3, r3, #31
ARM GAS  C:\Users\dtjld\AppData\Local\Temp\ccQby7Tk.s 			page 47


 2381 10c2 3B63     		str	r3, [r7, #48]
 2382 10c4 3B6B     		ldr	r3, [r7, #48]
 2383 10c6 1A44     		add	r2, r2, r3
 2384 10c8 A64B     		ldr	r3, .L29
 2385 10ca 1344     		add	r3, r3, r2
 2386 10cc BA6D     		ldr	r2, [r7, #88]
 2387 10ce 1344     		add	r3, r3, r2
 2388 10d0 BB65     		str	r3, [r7, #88]
 2389 10d2 3B6D     		ldr	r3, [r7, #80]
 2390 10d4 4FEAB303 		ror	r3, r3, #2
 2391 10d8 3B65     		str	r3, [r7, #80]
 253:C:/Users/dtjld/workspace/AIoT/src/LiteOS_Lab/iot_link/network/dtls/mbedtls/mbedtls-2.16.2/library\sha1.c ****     P( B, C, D, E, A, R(59) );
 2392              		.loc 1 253 0
 2393 10da BA6A     		ldr	r2, [r7, #40]
 2394 10dc 7B69     		ldr	r3, [r7, #20]
 2395 10de 5A40     		eors	r2, r2, r3
 2396 10e0 FB6B     		ldr	r3, [r7, #60]
 2397 10e2 5A40     		eors	r2, r2, r3
 2398 10e4 7B6B     		ldr	r3, [r7, #52]
 2399 10e6 5340     		eors	r3, r3, r2
 2400 10e8 BB64     		str	r3, [r7, #72]
 2401 10ea BB6D     		ldr	r3, [r7, #88]
 2402 10ec 4FEAF362 		ror	r2, r3, #27
 2403 10f0 796D     		ldr	r1, [r7, #84]
 2404 10f2 3B6D     		ldr	r3, [r7, #80]
 2405 10f4 1940     		ands	r1, r1, r3
 2406 10f6 786D     		ldr	r0, [r7, #84]
 2407 10f8 3B6D     		ldr	r3, [r7, #80]
 2408 10fa 1843     		orrs	r0, r0, r3
 2409 10fc FB6C     		ldr	r3, [r7, #76]
 2410 10fe 0340     		ands	r3, r3, r0
 2411 1100 0B43     		orrs	r3, r3, r1
 2412 1102 1A44     		add	r2, r2, r3
 2413 1104 BB6C     		ldr	r3, [r7, #72]
 2414 1106 4FEAF373 		ror	r3, r3, #31
 2415 110a 7B63     		str	r3, [r7, #52]
 2416 110c 7B6B     		ldr	r3, [r7, #52]
 2417 110e 1A44     		add	r2, r2, r3
 2418 1110 944B     		ldr	r3, .L29
 2419 1112 1344     		add	r3, r3, r2
 2420 1114 FA6D     		ldr	r2, [r7, #92]
 2421 1116 1344     		add	r3, r3, r2
 2422 1118 FB65     		str	r3, [r7, #92]
 2423 111a 7B6D     		ldr	r3, [r7, #84]
 2424 111c 4FEAB303 		ror	r3, r3, #2
 2425 1120 7B65     		str	r3, [r7, #84]
 254:C:/Users/dtjld/workspace/AIoT/src/LiteOS_Lab/iot_link/network/dtls/mbedtls/mbedtls-2.16.2/library\sha1.c **** 
 255:C:/Users/dtjld/workspace/AIoT/src/LiteOS_Lab/iot_link/network/dtls/mbedtls/mbedtls-2.16.2/library\sha1.c **** #undef K
 256:C:/Users/dtjld/workspace/AIoT/src/LiteOS_Lab/iot_link/network/dtls/mbedtls/mbedtls-2.16.2/library\sha1.c **** #undef F
 257:C:/Users/dtjld/workspace/AIoT/src/LiteOS_Lab/iot_link/network/dtls/mbedtls/mbedtls-2.16.2/library\sha1.c **** 
 258:C:/Users/dtjld/workspace/AIoT/src/LiteOS_Lab/iot_link/network/dtls/mbedtls/mbedtls-2.16.2/library\sha1.c **** #define F(x,y,z) ((x) ^ (y) ^ (z))
 259:C:/Users/dtjld/workspace/AIoT/src/LiteOS_Lab/iot_link/network/dtls/mbedtls/mbedtls-2.16.2/library\sha1.c **** #define K 0xCA62C1D6
 260:C:/Users/dtjld/workspace/AIoT/src/LiteOS_Lab/iot_link/network/dtls/mbedtls/mbedtls-2.16.2/library\sha1.c **** 
 261:C:/Users/dtjld/workspace/AIoT/src/LiteOS_Lab/iot_link/network/dtls/mbedtls/mbedtls-2.16.2/library\sha1.c ****     P( A, B, C, D, E, R(60) );
 2426              		.loc 1 261 0
 2427 1122 FA6A     		ldr	r2, [r7, #44]
 2428 1124 BB69     		ldr	r3, [r7, #24]
ARM GAS  C:\Users\dtjld\AppData\Local\Temp\ccQby7Tk.s 			page 48


 2429 1126 5A40     		eors	r2, r2, r3
 2430 1128 3B6C     		ldr	r3, [r7, #64]
 2431 112a 5A40     		eors	r2, r2, r3
 2432 112c BB6B     		ldr	r3, [r7, #56]
 2433 112e 5340     		eors	r3, r3, r2
 2434 1130 BB64     		str	r3, [r7, #72]
 2435 1132 FB6D     		ldr	r3, [r7, #92]
 2436 1134 4FEAF362 		ror	r2, r3, #27
 2437 1138 B96D     		ldr	r1, [r7, #88]
 2438 113a 7B6D     		ldr	r3, [r7, #84]
 2439 113c 5940     		eors	r1, r1, r3
 2440 113e 3B6D     		ldr	r3, [r7, #80]
 2441 1140 4B40     		eors	r3, r3, r1
 2442 1142 1A44     		add	r2, r2, r3
 2443 1144 BB6C     		ldr	r3, [r7, #72]
 2444 1146 4FEAF373 		ror	r3, r3, #31
 2445 114a BB63     		str	r3, [r7, #56]
 2446 114c BB6B     		ldr	r3, [r7, #56]
 2447 114e 1A44     		add	r2, r2, r3
 2448 1150 854B     		ldr	r3, .L29+4
 2449 1152 1344     		add	r3, r3, r2
 2450 1154 FA6C     		ldr	r2, [r7, #76]
 2451 1156 1344     		add	r3, r3, r2
 2452 1158 FB64     		str	r3, [r7, #76]
 2453 115a BB6D     		ldr	r3, [r7, #88]
 2454 115c 4FEAB303 		ror	r3, r3, #2
 2455 1160 BB65     		str	r3, [r7, #88]
 262:C:/Users/dtjld/workspace/AIoT/src/LiteOS_Lab/iot_link/network/dtls/mbedtls/mbedtls-2.16.2/library\sha1.c ****     P( E, A, B, C, D, R(61) );
 2456              		.loc 1 262 0
 2457 1162 3A6B     		ldr	r2, [r7, #48]
 2458 1164 FB69     		ldr	r3, [r7, #28]
 2459 1166 5A40     		eors	r2, r2, r3
 2460 1168 7B6C     		ldr	r3, [r7, #68]
 2461 116a 5A40     		eors	r2, r2, r3
 2462 116c FB6B     		ldr	r3, [r7, #60]
 2463 116e 5340     		eors	r3, r3, r2
 2464 1170 BB64     		str	r3, [r7, #72]
 2465 1172 FB6C     		ldr	r3, [r7, #76]
 2466 1174 4FEAF362 		ror	r2, r3, #27
 2467 1178 F96D     		ldr	r1, [r7, #92]
 2468 117a BB6D     		ldr	r3, [r7, #88]
 2469 117c 5940     		eors	r1, r1, r3
 2470 117e 7B6D     		ldr	r3, [r7, #84]
 2471 1180 4B40     		eors	r3, r3, r1
 2472 1182 1A44     		add	r2, r2, r3
 2473 1184 BB6C     		ldr	r3, [r7, #72]
 2474 1186 4FEAF373 		ror	r3, r3, #31
 2475 118a FB63     		str	r3, [r7, #60]
 2476 118c FB6B     		ldr	r3, [r7, #60]
 2477 118e 1A44     		add	r2, r2, r3
 2478 1190 754B     		ldr	r3, .L29+4
 2479 1192 1344     		add	r3, r3, r2
 2480 1194 3A6D     		ldr	r2, [r7, #80]
 2481 1196 1344     		add	r3, r3, r2
 2482 1198 3B65     		str	r3, [r7, #80]
 2483 119a FB6D     		ldr	r3, [r7, #92]
 2484 119c 4FEAB303 		ror	r3, r3, #2
ARM GAS  C:\Users\dtjld\AppData\Local\Temp\ccQby7Tk.s 			page 49


 2485 11a0 FB65     		str	r3, [r7, #92]
 263:C:/Users/dtjld/workspace/AIoT/src/LiteOS_Lab/iot_link/network/dtls/mbedtls/mbedtls-2.16.2/library\sha1.c ****     P( D, E, A, B, C, R(62) );
 2486              		.loc 1 263 0
 2487 11a2 7A6B     		ldr	r2, [r7, #52]
 2488 11a4 3B6A     		ldr	r3, [r7, #32]
 2489 11a6 5A40     		eors	r2, r2, r3
 2490 11a8 BB68     		ldr	r3, [r7, #8]
 2491 11aa 5A40     		eors	r2, r2, r3
 2492 11ac 3B6C     		ldr	r3, [r7, #64]
 2493 11ae 5340     		eors	r3, r3, r2
 2494 11b0 BB64     		str	r3, [r7, #72]
 2495 11b2 3B6D     		ldr	r3, [r7, #80]
 2496 11b4 4FEAF362 		ror	r2, r3, #27
 2497 11b8 F96C     		ldr	r1, [r7, #76]
 2498 11ba FB6D     		ldr	r3, [r7, #92]
 2499 11bc 5940     		eors	r1, r1, r3
 2500 11be BB6D     		ldr	r3, [r7, #88]
 2501 11c0 4B40     		eors	r3, r3, r1
 2502 11c2 1A44     		add	r2, r2, r3
 2503 11c4 BB6C     		ldr	r3, [r7, #72]
 2504 11c6 4FEAF373 		ror	r3, r3, #31
 2505 11ca 3B64     		str	r3, [r7, #64]
 2506 11cc 3B6C     		ldr	r3, [r7, #64]
 2507 11ce 1A44     		add	r2, r2, r3
 2508 11d0 654B     		ldr	r3, .L29+4
 2509 11d2 1344     		add	r3, r3, r2
 2510 11d4 7A6D     		ldr	r2, [r7, #84]
 2511 11d6 1344     		add	r3, r3, r2
 2512 11d8 7B65     		str	r3, [r7, #84]
 2513 11da FB6C     		ldr	r3, [r7, #76]
 2514 11dc 4FEAB303 		ror	r3, r3, #2
 2515 11e0 FB64     		str	r3, [r7, #76]
 264:C:/Users/dtjld/workspace/AIoT/src/LiteOS_Lab/iot_link/network/dtls/mbedtls/mbedtls-2.16.2/library\sha1.c ****     P( C, D, E, A, B, R(63) );
 2516              		.loc 1 264 0
 2517 11e2 BA6B     		ldr	r2, [r7, #56]
 2518 11e4 7B6A     		ldr	r3, [r7, #36]
 2519 11e6 5A40     		eors	r2, r2, r3
 2520 11e8 FB68     		ldr	r3, [r7, #12]
 2521 11ea 5A40     		eors	r2, r2, r3
 2522 11ec 7B6C     		ldr	r3, [r7, #68]
 2523 11ee 5340     		eors	r3, r3, r2
 2524 11f0 BB64     		str	r3, [r7, #72]
 2525 11f2 7B6D     		ldr	r3, [r7, #84]
 2526 11f4 4FEAF362 		ror	r2, r3, #27
 2527 11f8 396D     		ldr	r1, [r7, #80]
 2528 11fa FB6C     		ldr	r3, [r7, #76]
 2529 11fc 5940     		eors	r1, r1, r3
 2530 11fe FB6D     		ldr	r3, [r7, #92]
 2531 1200 4B40     		eors	r3, r3, r1
 2532 1202 1A44     		add	r2, r2, r3
 2533 1204 BB6C     		ldr	r3, [r7, #72]
 2534 1206 4FEAF373 		ror	r3, r3, #31
 2535 120a 7B64     		str	r3, [r7, #68]
 2536 120c 7B6C     		ldr	r3, [r7, #68]
 2537 120e 1A44     		add	r2, r2, r3
 2538 1210 554B     		ldr	r3, .L29+4
 2539 1212 1344     		add	r3, r3, r2
ARM GAS  C:\Users\dtjld\AppData\Local\Temp\ccQby7Tk.s 			page 50


 2540 1214 BA6D     		ldr	r2, [r7, #88]
 2541 1216 1344     		add	r3, r3, r2
 2542 1218 BB65     		str	r3, [r7, #88]
 2543 121a 3B6D     		ldr	r3, [r7, #80]
 2544 121c 4FEAB303 		ror	r3, r3, #2
 2545 1220 3B65     		str	r3, [r7, #80]
 265:C:/Users/dtjld/workspace/AIoT/src/LiteOS_Lab/iot_link/network/dtls/mbedtls/mbedtls-2.16.2/library\sha1.c ****     P( B, C, D, E, A, R(64) );
 2546              		.loc 1 265 0
 2547 1222 FA6B     		ldr	r2, [r7, #60]
 2548 1224 BB6A     		ldr	r3, [r7, #40]
 2549 1226 5A40     		eors	r2, r2, r3
 2550 1228 3B69     		ldr	r3, [r7, #16]
 2551 122a 5A40     		eors	r2, r2, r3
 2552 122c BB68     		ldr	r3, [r7, #8]
 2553 122e 5340     		eors	r3, r3, r2
 2554 1230 BB64     		str	r3, [r7, #72]
 2555 1232 BB6D     		ldr	r3, [r7, #88]
 2556 1234 4FEAF362 		ror	r2, r3, #27
 2557 1238 796D     		ldr	r1, [r7, #84]
 2558 123a 3B6D     		ldr	r3, [r7, #80]
 2559 123c 5940     		eors	r1, r1, r3
 2560 123e FB6C     		ldr	r3, [r7, #76]
 2561 1240 4B40     		eors	r3, r3, r1
 2562 1242 1A44     		add	r2, r2, r3
 2563 1244 BB6C     		ldr	r3, [r7, #72]
 2564 1246 4FEAF373 		ror	r3, r3, #31
 2565 124a BB60     		str	r3, [r7, #8]
 2566 124c BB68     		ldr	r3, [r7, #8]
 2567 124e 1A44     		add	r2, r2, r3
 2568 1250 454B     		ldr	r3, .L29+4
 2569 1252 1344     		add	r3, r3, r2
 2570 1254 FA6D     		ldr	r2, [r7, #92]
 2571 1256 1344     		add	r3, r3, r2
 2572 1258 FB65     		str	r3, [r7, #92]
 2573 125a 7B6D     		ldr	r3, [r7, #84]
 2574 125c 4FEAB303 		ror	r3, r3, #2
 2575 1260 7B65     		str	r3, [r7, #84]
 266:C:/Users/dtjld/workspace/AIoT/src/LiteOS_Lab/iot_link/network/dtls/mbedtls/mbedtls-2.16.2/library\sha1.c ****     P( A, B, C, D, E, R(65) );
 2576              		.loc 1 266 0
 2577 1262 3A6C     		ldr	r2, [r7, #64]
 2578 1264 FB6A     		ldr	r3, [r7, #44]
 2579 1266 5A40     		eors	r2, r2, r3
 2580 1268 7B69     		ldr	r3, [r7, #20]
 2581 126a 5A40     		eors	r2, r2, r3
 2582 126c FB68     		ldr	r3, [r7, #12]
 2583 126e 5340     		eors	r3, r3, r2
 2584 1270 BB64     		str	r3, [r7, #72]
 2585 1272 FB6D     		ldr	r3, [r7, #92]
 2586 1274 4FEAF362 		ror	r2, r3, #27
 2587 1278 B96D     		ldr	r1, [r7, #88]
 2588 127a 7B6D     		ldr	r3, [r7, #84]
 2589 127c 5940     		eors	r1, r1, r3
 2590 127e 3B6D     		ldr	r3, [r7, #80]
 2591 1280 4B40     		eors	r3, r3, r1
 2592 1282 1A44     		add	r2, r2, r3
 2593 1284 BB6C     		ldr	r3, [r7, #72]
 2594 1286 4FEAF373 		ror	r3, r3, #31
ARM GAS  C:\Users\dtjld\AppData\Local\Temp\ccQby7Tk.s 			page 51


 2595 128a FB60     		str	r3, [r7, #12]
 2596 128c FB68     		ldr	r3, [r7, #12]
 2597 128e 1A44     		add	r2, r2, r3
 2598 1290 354B     		ldr	r3, .L29+4
 2599 1292 1344     		add	r3, r3, r2
 2600 1294 FA6C     		ldr	r2, [r7, #76]
 2601 1296 1344     		add	r3, r3, r2
 2602 1298 FB64     		str	r3, [r7, #76]
 2603 129a BB6D     		ldr	r3, [r7, #88]
 2604 129c 4FEAB303 		ror	r3, r3, #2
 2605 12a0 BB65     		str	r3, [r7, #88]
 267:C:/Users/dtjld/workspace/AIoT/src/LiteOS_Lab/iot_link/network/dtls/mbedtls/mbedtls-2.16.2/library\sha1.c ****     P( E, A, B, C, D, R(66) );
 2606              		.loc 1 267 0
 2607 12a2 7A6C     		ldr	r2, [r7, #68]
 2608 12a4 3B6B     		ldr	r3, [r7, #48]
 2609 12a6 5A40     		eors	r2, r2, r3
 2610 12a8 BB69     		ldr	r3, [r7, #24]
 2611 12aa 5A40     		eors	r2, r2, r3
 2612 12ac 3B69     		ldr	r3, [r7, #16]
 2613 12ae 5340     		eors	r3, r3, r2
 2614 12b0 BB64     		str	r3, [r7, #72]
 2615 12b2 FB6C     		ldr	r3, [r7, #76]
 2616 12b4 4FEAF362 		ror	r2, r3, #27
 2617 12b8 F96D     		ldr	r1, [r7, #92]
 2618 12ba BB6D     		ldr	r3, [r7, #88]
 2619 12bc 5940     		eors	r1, r1, r3
 2620 12be 7B6D     		ldr	r3, [r7, #84]
 2621 12c0 4B40     		eors	r3, r3, r1
 2622 12c2 1A44     		add	r2, r2, r3
 2623 12c4 BB6C     		ldr	r3, [r7, #72]
 2624 12c6 4FEAF373 		ror	r3, r3, #31
 2625 12ca 3B61     		str	r3, [r7, #16]
 2626 12cc 3B69     		ldr	r3, [r7, #16]
 2627 12ce 1A44     		add	r2, r2, r3
 2628 12d0 254B     		ldr	r3, .L29+4
 2629 12d2 1344     		add	r3, r3, r2
 2630 12d4 3A6D     		ldr	r2, [r7, #80]
 2631 12d6 1344     		add	r3, r3, r2
 2632 12d8 3B65     		str	r3, [r7, #80]
 2633 12da FB6D     		ldr	r3, [r7, #92]
 2634 12dc 4FEAB303 		ror	r3, r3, #2
 2635 12e0 FB65     		str	r3, [r7, #92]
 268:C:/Users/dtjld/workspace/AIoT/src/LiteOS_Lab/iot_link/network/dtls/mbedtls/mbedtls-2.16.2/library\sha1.c ****     P( D, E, A, B, C, R(67) );
 2636              		.loc 1 268 0
 2637 12e2 BA68     		ldr	r2, [r7, #8]
 2638 12e4 7B6B     		ldr	r3, [r7, #52]
 2639 12e6 5A40     		eors	r2, r2, r3
 2640 12e8 FB69     		ldr	r3, [r7, #28]
 2641 12ea 5A40     		eors	r2, r2, r3
 2642 12ec 7B69     		ldr	r3, [r7, #20]
 2643 12ee 5340     		eors	r3, r3, r2
 2644 12f0 BB64     		str	r3, [r7, #72]
 2645 12f2 3B6D     		ldr	r3, [r7, #80]
 2646 12f4 4FEAF362 		ror	r2, r3, #27
 2647 12f8 F96C     		ldr	r1, [r7, #76]
 2648 12fa FB6D     		ldr	r3, [r7, #92]
 2649 12fc 5940     		eors	r1, r1, r3
ARM GAS  C:\Users\dtjld\AppData\Local\Temp\ccQby7Tk.s 			page 52


 2650 12fe BB6D     		ldr	r3, [r7, #88]
 2651 1300 4B40     		eors	r3, r3, r1
 2652 1302 1A44     		add	r2, r2, r3
 2653 1304 BB6C     		ldr	r3, [r7, #72]
 2654 1306 4FEAF373 		ror	r3, r3, #31
 2655 130a 7B61     		str	r3, [r7, #20]
 2656 130c 7B69     		ldr	r3, [r7, #20]
 2657 130e 1A44     		add	r2, r2, r3
 2658 1310 154B     		ldr	r3, .L29+4
 2659 1312 1344     		add	r3, r3, r2
 2660 1314 7A6D     		ldr	r2, [r7, #84]
 2661 1316 1344     		add	r3, r3, r2
 2662 1318 7B65     		str	r3, [r7, #84]
 2663 131a FB6C     		ldr	r3, [r7, #76]
 2664 131c 4FEAB303 		ror	r3, r3, #2
 2665 1320 FB64     		str	r3, [r7, #76]
 269:C:/Users/dtjld/workspace/AIoT/src/LiteOS_Lab/iot_link/network/dtls/mbedtls/mbedtls-2.16.2/library\sha1.c ****     P( C, D, E, A, B, R(68) );
 2666              		.loc 1 269 0
 2667 1322 FA68     		ldr	r2, [r7, #12]
 2668 1324 BB6B     		ldr	r3, [r7, #56]
 2669 1326 5A40     		eors	r2, r2, r3
 2670 1328 3B6A     		ldr	r3, [r7, #32]
 2671 132a 5A40     		eors	r2, r2, r3
 2672 132c BB69     		ldr	r3, [r7, #24]
 2673 132e 5340     		eors	r3, r3, r2
 2674 1330 BB64     		str	r3, [r7, #72]
 2675 1332 7B6D     		ldr	r3, [r7, #84]
 2676 1334 4FEAF362 		ror	r2, r3, #27
 2677 1338 396D     		ldr	r1, [r7, #80]
 2678 133a FB6C     		ldr	r3, [r7, #76]
 2679 133c 5940     		eors	r1, r1, r3
 2680 133e FB6D     		ldr	r3, [r7, #92]
 2681 1340 4B40     		eors	r3, r3, r1
 2682 1342 1A44     		add	r2, r2, r3
 2683 1344 BB6C     		ldr	r3, [r7, #72]
 2684 1346 4FEAF373 		ror	r3, r3, #31
 2685 134a BB61     		str	r3, [r7, #24]
 2686 134c BB69     		ldr	r3, [r7, #24]
 2687 134e 1A44     		add	r2, r2, r3
 2688 1350 054B     		ldr	r3, .L29+4
 2689 1352 1344     		add	r3, r3, r2
 2690 1354 BA6D     		ldr	r2, [r7, #88]
 2691 1356 1344     		add	r3, r3, r2
 2692 1358 BB65     		str	r3, [r7, #88]
 2693 135a 3B6D     		ldr	r3, [r7, #80]
 2694 135c 4FEAB303 		ror	r3, r3, #2
 2695 1360 04E0     		b	.L30
 2696              	.L31:
 2697 1362 00BF     		.align	2
 2698              	.L29:
 2699 1364 DCBC1B8F 		.word	-1894007588
 2700 1368 D6C162CA 		.word	-899497514
 2701              	.L30:
 2702 136c 3B65     		str	r3, [r7, #80]
 270:C:/Users/dtjld/workspace/AIoT/src/LiteOS_Lab/iot_link/network/dtls/mbedtls/mbedtls-2.16.2/library\sha1.c ****     P( B, C, D, E, A, R(69) );
 2703              		.loc 1 270 0
 2704 136e 3A69     		ldr	r2, [r7, #16]
ARM GAS  C:\Users\dtjld\AppData\Local\Temp\ccQby7Tk.s 			page 53


 2705 1370 FB6B     		ldr	r3, [r7, #60]
 2706 1372 5A40     		eors	r2, r2, r3
 2707 1374 7B6A     		ldr	r3, [r7, #36]
 2708 1376 5A40     		eors	r2, r2, r3
 2709 1378 FB69     		ldr	r3, [r7, #28]
 2710 137a 5340     		eors	r3, r3, r2
 2711 137c BB64     		str	r3, [r7, #72]
 2712 137e BB6D     		ldr	r3, [r7, #88]
 2713 1380 4FEAF362 		ror	r2, r3, #27
 2714 1384 796D     		ldr	r1, [r7, #84]
 2715 1386 3B6D     		ldr	r3, [r7, #80]
 2716 1388 5940     		eors	r1, r1, r3
 2717 138a FB6C     		ldr	r3, [r7, #76]
 2718 138c 4B40     		eors	r3, r3, r1
 2719 138e 1A44     		add	r2, r2, r3
 2720 1390 BB6C     		ldr	r3, [r7, #72]
 2721 1392 4FEAF373 		ror	r3, r3, #31
 2722 1396 FB61     		str	r3, [r7, #28]
 2723 1398 FB69     		ldr	r3, [r7, #28]
 2724 139a 1A44     		add	r2, r2, r3
 2725 139c A54B     		ldr	r3, .L32
 2726 139e 1344     		add	r3, r3, r2
 2727 13a0 FA6D     		ldr	r2, [r7, #92]
 2728 13a2 1344     		add	r3, r3, r2
 2729 13a4 FB65     		str	r3, [r7, #92]
 2730 13a6 7B6D     		ldr	r3, [r7, #84]
 2731 13a8 4FEAB303 		ror	r3, r3, #2
 2732 13ac 7B65     		str	r3, [r7, #84]
 271:C:/Users/dtjld/workspace/AIoT/src/LiteOS_Lab/iot_link/network/dtls/mbedtls/mbedtls-2.16.2/library\sha1.c ****     P( A, B, C, D, E, R(70) );
 2733              		.loc 1 271 0
 2734 13ae 7A69     		ldr	r2, [r7, #20]
 2735 13b0 3B6C     		ldr	r3, [r7, #64]
 2736 13b2 5A40     		eors	r2, r2, r3
 2737 13b4 BB6A     		ldr	r3, [r7, #40]
 2738 13b6 5A40     		eors	r2, r2, r3
 2739 13b8 3B6A     		ldr	r3, [r7, #32]
 2740 13ba 5340     		eors	r3, r3, r2
 2741 13bc BB64     		str	r3, [r7, #72]
 2742 13be FB6D     		ldr	r3, [r7, #92]
 2743 13c0 4FEAF362 		ror	r2, r3, #27
 2744 13c4 B96D     		ldr	r1, [r7, #88]
 2745 13c6 7B6D     		ldr	r3, [r7, #84]
 2746 13c8 5940     		eors	r1, r1, r3
 2747 13ca 3B6D     		ldr	r3, [r7, #80]
 2748 13cc 4B40     		eors	r3, r3, r1
 2749 13ce 1A44     		add	r2, r2, r3
 2750 13d0 BB6C     		ldr	r3, [r7, #72]
 2751 13d2 4FEAF373 		ror	r3, r3, #31
 2752 13d6 3B62     		str	r3, [r7, #32]
 2753 13d8 3B6A     		ldr	r3, [r7, #32]
 2754 13da 1A44     		add	r2, r2, r3
 2755 13dc 954B     		ldr	r3, .L32
 2756 13de 1344     		add	r3, r3, r2
 2757 13e0 FA6C     		ldr	r2, [r7, #76]
 2758 13e2 1344     		add	r3, r3, r2
 2759 13e4 FB64     		str	r3, [r7, #76]
 2760 13e6 BB6D     		ldr	r3, [r7, #88]
ARM GAS  C:\Users\dtjld\AppData\Local\Temp\ccQby7Tk.s 			page 54


 2761 13e8 4FEAB303 		ror	r3, r3, #2
 2762 13ec BB65     		str	r3, [r7, #88]
 272:C:/Users/dtjld/workspace/AIoT/src/LiteOS_Lab/iot_link/network/dtls/mbedtls/mbedtls-2.16.2/library\sha1.c ****     P( E, A, B, C, D, R(71) );
 2763              		.loc 1 272 0
 2764 13ee BA69     		ldr	r2, [r7, #24]
 2765 13f0 7B6C     		ldr	r3, [r7, #68]
 2766 13f2 5A40     		eors	r2, r2, r3
 2767 13f4 FB6A     		ldr	r3, [r7, #44]
 2768 13f6 5A40     		eors	r2, r2, r3
 2769 13f8 7B6A     		ldr	r3, [r7, #36]
 2770 13fa 5340     		eors	r3, r3, r2
 2771 13fc BB64     		str	r3, [r7, #72]
 2772 13fe FB6C     		ldr	r3, [r7, #76]
 2773 1400 4FEAF362 		ror	r2, r3, #27
 2774 1404 F96D     		ldr	r1, [r7, #92]
 2775 1406 BB6D     		ldr	r3, [r7, #88]
 2776 1408 5940     		eors	r1, r1, r3
 2777 140a 7B6D     		ldr	r3, [r7, #84]
 2778 140c 4B40     		eors	r3, r3, r1
 2779 140e 1A44     		add	r2, r2, r3
 2780 1410 BB6C     		ldr	r3, [r7, #72]
 2781 1412 4FEAF373 		ror	r3, r3, #31
 2782 1416 7B62     		str	r3, [r7, #36]
 2783 1418 7B6A     		ldr	r3, [r7, #36]
 2784 141a 1A44     		add	r2, r2, r3
 2785 141c 854B     		ldr	r3, .L32
 2786 141e 1344     		add	r3, r3, r2
 2787 1420 3A6D     		ldr	r2, [r7, #80]
 2788 1422 1344     		add	r3, r3, r2
 2789 1424 3B65     		str	r3, [r7, #80]
 2790 1426 FB6D     		ldr	r3, [r7, #92]
 2791 1428 4FEAB303 		ror	r3, r3, #2
 2792 142c FB65     		str	r3, [r7, #92]
 273:C:/Users/dtjld/workspace/AIoT/src/LiteOS_Lab/iot_link/network/dtls/mbedtls/mbedtls-2.16.2/library\sha1.c ****     P( D, E, A, B, C, R(72) );
 2793              		.loc 1 273 0
 2794 142e FA69     		ldr	r2, [r7, #28]
 2795 1430 BB68     		ldr	r3, [r7, #8]
 2796 1432 5A40     		eors	r2, r2, r3
 2797 1434 3B6B     		ldr	r3, [r7, #48]
 2798 1436 5A40     		eors	r2, r2, r3
 2799 1438 BB6A     		ldr	r3, [r7, #40]
 2800 143a 5340     		eors	r3, r3, r2
 2801 143c BB64     		str	r3, [r7, #72]
 2802 143e 3B6D     		ldr	r3, [r7, #80]
 2803 1440 4FEAF362 		ror	r2, r3, #27
 2804 1444 F96C     		ldr	r1, [r7, #76]
 2805 1446 FB6D     		ldr	r3, [r7, #92]
 2806 1448 5940     		eors	r1, r1, r3
 2807 144a BB6D     		ldr	r3, [r7, #88]
 2808 144c 4B40     		eors	r3, r3, r1
 2809 144e 1A44     		add	r2, r2, r3
 2810 1450 BB6C     		ldr	r3, [r7, #72]
 2811 1452 4FEAF373 		ror	r3, r3, #31
 2812 1456 BB62     		str	r3, [r7, #40]
 2813 1458 BB6A     		ldr	r3, [r7, #40]
 2814 145a 1A44     		add	r2, r2, r3
 2815 145c 754B     		ldr	r3, .L32
ARM GAS  C:\Users\dtjld\AppData\Local\Temp\ccQby7Tk.s 			page 55


 2816 145e 1344     		add	r3, r3, r2
 2817 1460 7A6D     		ldr	r2, [r7, #84]
 2818 1462 1344     		add	r3, r3, r2
 2819 1464 7B65     		str	r3, [r7, #84]
 2820 1466 FB6C     		ldr	r3, [r7, #76]
 2821 1468 4FEAB303 		ror	r3, r3, #2
 2822 146c FB64     		str	r3, [r7, #76]
 274:C:/Users/dtjld/workspace/AIoT/src/LiteOS_Lab/iot_link/network/dtls/mbedtls/mbedtls-2.16.2/library\sha1.c ****     P( C, D, E, A, B, R(73) );
 2823              		.loc 1 274 0
 2824 146e 3A6A     		ldr	r2, [r7, #32]
 2825 1470 FB68     		ldr	r3, [r7, #12]
 2826 1472 5A40     		eors	r2, r2, r3
 2827 1474 7B6B     		ldr	r3, [r7, #52]
 2828 1476 5A40     		eors	r2, r2, r3
 2829 1478 FB6A     		ldr	r3, [r7, #44]
 2830 147a 5340     		eors	r3, r3, r2
 2831 147c BB64     		str	r3, [r7, #72]
 2832 147e 7B6D     		ldr	r3, [r7, #84]
 2833 1480 4FEAF362 		ror	r2, r3, #27
 2834 1484 396D     		ldr	r1, [r7, #80]
 2835 1486 FB6C     		ldr	r3, [r7, #76]
 2836 1488 5940     		eors	r1, r1, r3
 2837 148a FB6D     		ldr	r3, [r7, #92]
 2838 148c 4B40     		eors	r3, r3, r1
 2839 148e 1A44     		add	r2, r2, r3
 2840 1490 BB6C     		ldr	r3, [r7, #72]
 2841 1492 4FEAF373 		ror	r3, r3, #31
 2842 1496 FB62     		str	r3, [r7, #44]
 2843 1498 FB6A     		ldr	r3, [r7, #44]
 2844 149a 1A44     		add	r2, r2, r3
 2845 149c 654B     		ldr	r3, .L32
 2846 149e 1344     		add	r3, r3, r2
 2847 14a0 BA6D     		ldr	r2, [r7, #88]
 2848 14a2 1344     		add	r3, r3, r2
 2849 14a4 BB65     		str	r3, [r7, #88]
 2850 14a6 3B6D     		ldr	r3, [r7, #80]
 2851 14a8 4FEAB303 		ror	r3, r3, #2
 2852 14ac 3B65     		str	r3, [r7, #80]
 275:C:/Users/dtjld/workspace/AIoT/src/LiteOS_Lab/iot_link/network/dtls/mbedtls/mbedtls-2.16.2/library\sha1.c ****     P( B, C, D, E, A, R(74) );
 2853              		.loc 1 275 0
 2854 14ae 7A6A     		ldr	r2, [r7, #36]
 2855 14b0 3B69     		ldr	r3, [r7, #16]
 2856 14b2 5A40     		eors	r2, r2, r3
 2857 14b4 BB6B     		ldr	r3, [r7, #56]
 2858 14b6 5A40     		eors	r2, r2, r3
 2859 14b8 3B6B     		ldr	r3, [r7, #48]
 2860 14ba 5340     		eors	r3, r3, r2
 2861 14bc BB64     		str	r3, [r7, #72]
 2862 14be BB6D     		ldr	r3, [r7, #88]
 2863 14c0 4FEAF362 		ror	r2, r3, #27
 2864 14c4 796D     		ldr	r1, [r7, #84]
 2865 14c6 3B6D     		ldr	r3, [r7, #80]
 2866 14c8 5940     		eors	r1, r1, r3
 2867 14ca FB6C     		ldr	r3, [r7, #76]
 2868 14cc 4B40     		eors	r3, r3, r1
 2869 14ce 1A44     		add	r2, r2, r3
 2870 14d0 BB6C     		ldr	r3, [r7, #72]
ARM GAS  C:\Users\dtjld\AppData\Local\Temp\ccQby7Tk.s 			page 56


 2871 14d2 4FEAF373 		ror	r3, r3, #31
 2872 14d6 3B63     		str	r3, [r7, #48]
 2873 14d8 3B6B     		ldr	r3, [r7, #48]
 2874 14da 1A44     		add	r2, r2, r3
 2875 14dc 554B     		ldr	r3, .L32
 2876 14de 1344     		add	r3, r3, r2
 2877 14e0 FA6D     		ldr	r2, [r7, #92]
 2878 14e2 1344     		add	r3, r3, r2
 2879 14e4 FB65     		str	r3, [r7, #92]
 2880 14e6 7B6D     		ldr	r3, [r7, #84]
 2881 14e8 4FEAB303 		ror	r3, r3, #2
 2882 14ec 7B65     		str	r3, [r7, #84]
 276:C:/Users/dtjld/workspace/AIoT/src/LiteOS_Lab/iot_link/network/dtls/mbedtls/mbedtls-2.16.2/library\sha1.c ****     P( A, B, C, D, E, R(75) );
 2883              		.loc 1 276 0
 2884 14ee BA6A     		ldr	r2, [r7, #40]
 2885 14f0 7B69     		ldr	r3, [r7, #20]
 2886 14f2 5A40     		eors	r2, r2, r3
 2887 14f4 FB6B     		ldr	r3, [r7, #60]
 2888 14f6 5A40     		eors	r2, r2, r3
 2889 14f8 7B6B     		ldr	r3, [r7, #52]
 2890 14fa 5340     		eors	r3, r3, r2
 2891 14fc BB64     		str	r3, [r7, #72]
 2892 14fe FB6D     		ldr	r3, [r7, #92]
 2893 1500 4FEAF362 		ror	r2, r3, #27
 2894 1504 B96D     		ldr	r1, [r7, #88]
 2895 1506 7B6D     		ldr	r3, [r7, #84]
 2896 1508 5940     		eors	r1, r1, r3
 2897 150a 3B6D     		ldr	r3, [r7, #80]
 2898 150c 4B40     		eors	r3, r3, r1
 2899 150e 1A44     		add	r2, r2, r3
 2900 1510 BB6C     		ldr	r3, [r7, #72]
 2901 1512 4FEAF373 		ror	r3, r3, #31
 2902 1516 7B63     		str	r3, [r7, #52]
 2903 1518 7B6B     		ldr	r3, [r7, #52]
 2904 151a 1A44     		add	r2, r2, r3
 2905 151c 454B     		ldr	r3, .L32
 2906 151e 1344     		add	r3, r3, r2
 2907 1520 FA6C     		ldr	r2, [r7, #76]
 2908 1522 1344     		add	r3, r3, r2
 2909 1524 FB64     		str	r3, [r7, #76]
 2910 1526 BB6D     		ldr	r3, [r7, #88]
 2911 1528 4FEAB303 		ror	r3, r3, #2
 2912 152c BB65     		str	r3, [r7, #88]
 277:C:/Users/dtjld/workspace/AIoT/src/LiteOS_Lab/iot_link/network/dtls/mbedtls/mbedtls-2.16.2/library\sha1.c ****     P( E, A, B, C, D, R(76) );
 2913              		.loc 1 277 0
 2914 152e FA6A     		ldr	r2, [r7, #44]
 2915 1530 BB69     		ldr	r3, [r7, #24]
 2916 1532 5A40     		eors	r2, r2, r3
 2917 1534 3B6C     		ldr	r3, [r7, #64]
 2918 1536 5A40     		eors	r2, r2, r3
 2919 1538 BB6B     		ldr	r3, [r7, #56]
 2920 153a 5340     		eors	r3, r3, r2
 2921 153c BB64     		str	r3, [r7, #72]
 2922 153e FB6C     		ldr	r3, [r7, #76]
 2923 1540 4FEAF362 		ror	r2, r3, #27
 2924 1544 F96D     		ldr	r1, [r7, #92]
 2925 1546 BB6D     		ldr	r3, [r7, #88]
ARM GAS  C:\Users\dtjld\AppData\Local\Temp\ccQby7Tk.s 			page 57


 2926 1548 5940     		eors	r1, r1, r3
 2927 154a 7B6D     		ldr	r3, [r7, #84]
 2928 154c 4B40     		eors	r3, r3, r1
 2929 154e 1A44     		add	r2, r2, r3
 2930 1550 BB6C     		ldr	r3, [r7, #72]
 2931 1552 4FEAF373 		ror	r3, r3, #31
 2932 1556 BB63     		str	r3, [r7, #56]
 2933 1558 BB6B     		ldr	r3, [r7, #56]
 2934 155a 1A44     		add	r2, r2, r3
 2935 155c 354B     		ldr	r3, .L32
 2936 155e 1344     		add	r3, r3, r2
 2937 1560 3A6D     		ldr	r2, [r7, #80]
 2938 1562 1344     		add	r3, r3, r2
 2939 1564 3B65     		str	r3, [r7, #80]
 2940 1566 FB6D     		ldr	r3, [r7, #92]
 2941 1568 4FEAB303 		ror	r3, r3, #2
 2942 156c FB65     		str	r3, [r7, #92]
 278:C:/Users/dtjld/workspace/AIoT/src/LiteOS_Lab/iot_link/network/dtls/mbedtls/mbedtls-2.16.2/library\sha1.c ****     P( D, E, A, B, C, R(77) );
 2943              		.loc 1 278 0
 2944 156e 3A6B     		ldr	r2, [r7, #48]
 2945 1570 FB69     		ldr	r3, [r7, #28]
 2946 1572 5A40     		eors	r2, r2, r3
 2947 1574 7B6C     		ldr	r3, [r7, #68]
 2948 1576 5A40     		eors	r2, r2, r3
 2949 1578 FB6B     		ldr	r3, [r7, #60]
 2950 157a 5340     		eors	r3, r3, r2
 2951 157c BB64     		str	r3, [r7, #72]
 2952 157e 3B6D     		ldr	r3, [r7, #80]
 2953 1580 4FEAF362 		ror	r2, r3, #27
 2954 1584 F96C     		ldr	r1, [r7, #76]
 2955 1586 FB6D     		ldr	r3, [r7, #92]
 2956 1588 5940     		eors	r1, r1, r3
 2957 158a BB6D     		ldr	r3, [r7, #88]
 2958 158c 4B40     		eors	r3, r3, r1
 2959 158e 1A44     		add	r2, r2, r3
 2960 1590 BB6C     		ldr	r3, [r7, #72]
 2961 1592 4FEAF373 		ror	r3, r3, #31
 2962 1596 FB63     		str	r3, [r7, #60]
 2963 1598 FB6B     		ldr	r3, [r7, #60]
 2964 159a 1A44     		add	r2, r2, r3
 2965 159c 254B     		ldr	r3, .L32
 2966 159e 1344     		add	r3, r3, r2
 2967 15a0 7A6D     		ldr	r2, [r7, #84]
 2968 15a2 1344     		add	r3, r3, r2
 2969 15a4 7B65     		str	r3, [r7, #84]
 2970 15a6 FB6C     		ldr	r3, [r7, #76]
 2971 15a8 4FEAB303 		ror	r3, r3, #2
 2972 15ac FB64     		str	r3, [r7, #76]
 279:C:/Users/dtjld/workspace/AIoT/src/LiteOS_Lab/iot_link/network/dtls/mbedtls/mbedtls-2.16.2/library\sha1.c ****     P( C, D, E, A, B, R(78) );
 2973              		.loc 1 279 0
 2974 15ae 7A6B     		ldr	r2, [r7, #52]
 2975 15b0 3B6A     		ldr	r3, [r7, #32]
 2976 15b2 5A40     		eors	r2, r2, r3
 2977 15b4 BB68     		ldr	r3, [r7, #8]
 2978 15b6 5A40     		eors	r2, r2, r3
 2979 15b8 3B6C     		ldr	r3, [r7, #64]
 2980 15ba 5340     		eors	r3, r3, r2
ARM GAS  C:\Users\dtjld\AppData\Local\Temp\ccQby7Tk.s 			page 58


 2981 15bc BB64     		str	r3, [r7, #72]
 2982 15be 7B6D     		ldr	r3, [r7, #84]
 2983 15c0 4FEAF362 		ror	r2, r3, #27
 2984 15c4 396D     		ldr	r1, [r7, #80]
 2985 15c6 FB6C     		ldr	r3, [r7, #76]
 2986 15c8 5940     		eors	r1, r1, r3
 2987 15ca FB6D     		ldr	r3, [r7, #92]
 2988 15cc 4B40     		eors	r3, r3, r1
 2989 15ce 1A44     		add	r2, r2, r3
 2990 15d0 BB6C     		ldr	r3, [r7, #72]
 2991 15d2 4FEAF373 		ror	r3, r3, #31
 2992 15d6 3B64     		str	r3, [r7, #64]
 2993 15d8 3B6C     		ldr	r3, [r7, #64]
 2994 15da 1A44     		add	r2, r2, r3
 2995 15dc 154B     		ldr	r3, .L32
 2996 15de 1344     		add	r3, r3, r2
 2997 15e0 BA6D     		ldr	r2, [r7, #88]
 2998 15e2 1344     		add	r3, r3, r2
 2999 15e4 BB65     		str	r3, [r7, #88]
 3000 15e6 3B6D     		ldr	r3, [r7, #80]
 3001 15e8 4FEAB303 		ror	r3, r3, #2
 3002 15ec 3B65     		str	r3, [r7, #80]
 280:C:/Users/dtjld/workspace/AIoT/src/LiteOS_Lab/iot_link/network/dtls/mbedtls/mbedtls-2.16.2/library\sha1.c ****     P( B, C, D, E, A, R(79) );
 3003              		.loc 1 280 0
 3004 15ee BA6B     		ldr	r2, [r7, #56]
 3005 15f0 7B6A     		ldr	r3, [r7, #36]
 3006 15f2 5A40     		eors	r2, r2, r3
 3007 15f4 FB68     		ldr	r3, [r7, #12]
 3008 15f6 5A40     		eors	r2, r2, r3
 3009 15f8 7B6C     		ldr	r3, [r7, #68]
 3010 15fa 5340     		eors	r3, r3, r2
 3011 15fc BB64     		str	r3, [r7, #72]
 3012 15fe BB6D     		ldr	r3, [r7, #88]
 3013 1600 4FEAF362 		ror	r2, r3, #27
 3014 1604 796D     		ldr	r1, [r7, #84]
 3015 1606 3B6D     		ldr	r3, [r7, #80]
 3016 1608 5940     		eors	r1, r1, r3
 3017 160a FB6C     		ldr	r3, [r7, #76]
 3018 160c 4B40     		eors	r3, r3, r1
 3019 160e 1A44     		add	r2, r2, r3
 3020 1610 BB6C     		ldr	r3, [r7, #72]
 3021 1612 4FEAF373 		ror	r3, r3, #31
 3022 1616 7B64     		str	r3, [r7, #68]
 3023 1618 7B6C     		ldr	r3, [r7, #68]
 3024 161a 1A44     		add	r2, r2, r3
 3025 161c 054B     		ldr	r3, .L32
 3026 161e 1344     		add	r3, r3, r2
 3027 1620 FA6D     		ldr	r2, [r7, #92]
 3028 1622 1344     		add	r3, r3, r2
 3029 1624 FB65     		str	r3, [r7, #92]
 3030 1626 7B6D     		ldr	r3, [r7, #84]
 3031 1628 4FEAB303 		ror	r3, r3, #2
 3032 162c 7B65     		str	r3, [r7, #84]
 281:C:/Users/dtjld/workspace/AIoT/src/LiteOS_Lab/iot_link/network/dtls/mbedtls/mbedtls-2.16.2/library\sha1.c **** 
 282:C:/Users/dtjld/workspace/AIoT/src/LiteOS_Lab/iot_link/network/dtls/mbedtls/mbedtls-2.16.2/library\sha1.c **** #undef K
 283:C:/Users/dtjld/workspace/AIoT/src/LiteOS_Lab/iot_link/network/dtls/mbedtls/mbedtls-2.16.2/library\sha1.c **** #undef F
 284:C:/Users/dtjld/workspace/AIoT/src/LiteOS_Lab/iot_link/network/dtls/mbedtls/mbedtls-2.16.2/library\sha1.c **** 
ARM GAS  C:\Users\dtjld\AppData\Local\Temp\ccQby7Tk.s 			page 59


 285:C:/Users/dtjld/workspace/AIoT/src/LiteOS_Lab/iot_link/network/dtls/mbedtls/mbedtls-2.16.2/library\sha1.c ****     ctx->state[0] += A;
 3033              		.loc 1 285 0
 3034 162e 7B68     		ldr	r3, [r7, #4]
 3035 1630 9A68     		ldr	r2, [r3, #8]
 3036 1632 01E0     		b	.L33
 3037              	.L34:
 3038              		.align	2
 3039              	.L32:
 3040 1634 D6C162CA 		.word	-899497514
 3041              	.L33:
 3042 1638 FB6D     		ldr	r3, [r7, #92]
 3043 163a 1A44     		add	r2, r2, r3
 3044 163c 7B68     		ldr	r3, [r7, #4]
 3045 163e 9A60     		str	r2, [r3, #8]
 286:C:/Users/dtjld/workspace/AIoT/src/LiteOS_Lab/iot_link/network/dtls/mbedtls/mbedtls-2.16.2/library\sha1.c ****     ctx->state[1] += B;
 3046              		.loc 1 286 0
 3047 1640 7B68     		ldr	r3, [r7, #4]
 3048 1642 DA68     		ldr	r2, [r3, #12]
 3049 1644 BB6D     		ldr	r3, [r7, #88]
 3050 1646 1A44     		add	r2, r2, r3
 3051 1648 7B68     		ldr	r3, [r7, #4]
 3052 164a DA60     		str	r2, [r3, #12]
 287:C:/Users/dtjld/workspace/AIoT/src/LiteOS_Lab/iot_link/network/dtls/mbedtls/mbedtls-2.16.2/library\sha1.c ****     ctx->state[2] += C;
 3053              		.loc 1 287 0
 3054 164c 7B68     		ldr	r3, [r7, #4]
 3055 164e 1A69     		ldr	r2, [r3, #16]
 3056 1650 7B6D     		ldr	r3, [r7, #84]
 3057 1652 1A44     		add	r2, r2, r3
 3058 1654 7B68     		ldr	r3, [r7, #4]
 3059 1656 1A61     		str	r2, [r3, #16]
 288:C:/Users/dtjld/workspace/AIoT/src/LiteOS_Lab/iot_link/network/dtls/mbedtls/mbedtls-2.16.2/library\sha1.c ****     ctx->state[3] += D;
 3060              		.loc 1 288 0
 3061 1658 7B68     		ldr	r3, [r7, #4]
 3062 165a 5A69     		ldr	r2, [r3, #20]
 3063 165c 3B6D     		ldr	r3, [r7, #80]
 3064 165e 1A44     		add	r2, r2, r3
 3065 1660 7B68     		ldr	r3, [r7, #4]
 3066 1662 5A61     		str	r2, [r3, #20]
 289:C:/Users/dtjld/workspace/AIoT/src/LiteOS_Lab/iot_link/network/dtls/mbedtls/mbedtls-2.16.2/library\sha1.c ****     ctx->state[4] += E;
 3067              		.loc 1 289 0
 3068 1664 7B68     		ldr	r3, [r7, #4]
 3069 1666 9A69     		ldr	r2, [r3, #24]
 3070 1668 FB6C     		ldr	r3, [r7, #76]
 3071 166a 1A44     		add	r2, r2, r3
 3072 166c 7B68     		ldr	r3, [r7, #4]
 3073 166e 9A61     		str	r2, [r3, #24]
 290:C:/Users/dtjld/workspace/AIoT/src/LiteOS_Lab/iot_link/network/dtls/mbedtls/mbedtls-2.16.2/library\sha1.c **** 
 291:C:/Users/dtjld/workspace/AIoT/src/LiteOS_Lab/iot_link/network/dtls/mbedtls/mbedtls-2.16.2/library\sha1.c ****     return( 0 );
 3074              		.loc 1 291 0
 3075 1670 0023     		movs	r3, #0
 292:C:/Users/dtjld/workspace/AIoT/src/LiteOS_Lab/iot_link/network/dtls/mbedtls/mbedtls-2.16.2/library\sha1.c **** }
 3076              		.loc 1 292 0
 3077 1672 1846     		mov	r0, r3
 3078 1674 6437     		adds	r7, r7, #100
 3079              	.LCFI29:
 3080              		.cfi_def_cfa_offset 4
 3081 1676 BD46     		mov	sp, r7
ARM GAS  C:\Users\dtjld\AppData\Local\Temp\ccQby7Tk.s 			page 60


 3082              	.LCFI30:
 3083              		.cfi_def_cfa_register 13
 3084              		@ sp needed
 3085 1678 5DF8047B 		ldr	r7, [sp], #4
 3086              	.LCFI31:
 3087              		.cfi_restore 7
 3088              		.cfi_def_cfa_offset 0
 3089 167c 7047     		bx	lr
 3090              		.cfi_endproc
 3091              	.LFE8:
 3093 167e 00BF     		.section	.text.mbedtls_sha1_process,"ax",%progbits
 3094              		.align	1
 3095              		.global	mbedtls_sha1_process
 3096              		.syntax unified
 3097              		.thumb
 3098              		.thumb_func
 3099              		.fpu fpv4-sp-d16
 3101              	mbedtls_sha1_process:
 3102              	.LFB9:
 293:C:/Users/dtjld/workspace/AIoT/src/LiteOS_Lab/iot_link/network/dtls/mbedtls/mbedtls-2.16.2/library\sha1.c **** 
 294:C:/Users/dtjld/workspace/AIoT/src/LiteOS_Lab/iot_link/network/dtls/mbedtls/mbedtls-2.16.2/library\sha1.c **** #if !defined(MBEDTLS_DEPRECATED_REMOVED)
 295:C:/Users/dtjld/workspace/AIoT/src/LiteOS_Lab/iot_link/network/dtls/mbedtls/mbedtls-2.16.2/library\sha1.c **** void mbedtls_sha1_process( mbedtls_sha1_context *ctx,
 296:C:/Users/dtjld/workspace/AIoT/src/LiteOS_Lab/iot_link/network/dtls/mbedtls/mbedtls-2.16.2/library\sha1.c ****                            const unsigned char data[64] )
 297:C:/Users/dtjld/workspace/AIoT/src/LiteOS_Lab/iot_link/network/dtls/mbedtls/mbedtls-2.16.2/library\sha1.c **** {
 3103              		.loc 1 297 0
 3104              		.cfi_startproc
 3105              		@ args = 0, pretend = 0, frame = 8
 3106              		@ frame_needed = 1, uses_anonymous_args = 0
 3107 0000 80B5     		push	{r7, lr}
 3108              	.LCFI32:
 3109              		.cfi_def_cfa_offset 8
 3110              		.cfi_offset 7, -8
 3111              		.cfi_offset 14, -4
 3112 0002 82B0     		sub	sp, sp, #8
 3113              	.LCFI33:
 3114              		.cfi_def_cfa_offset 16
 3115 0004 00AF     		add	r7, sp, #0
 3116              	.LCFI34:
 3117              		.cfi_def_cfa_register 7
 3118 0006 7860     		str	r0, [r7, #4]
 3119 0008 3960     		str	r1, [r7]
 298:C:/Users/dtjld/workspace/AIoT/src/LiteOS_Lab/iot_link/network/dtls/mbedtls/mbedtls-2.16.2/library\sha1.c ****     mbedtls_internal_sha1_process( ctx, data );
 3120              		.loc 1 298 0
 3121 000a 3968     		ldr	r1, [r7]
 3122 000c 7868     		ldr	r0, [r7, #4]
 3123 000e FFF7FEFF 		bl	mbedtls_internal_sha1_process
 299:C:/Users/dtjld/workspace/AIoT/src/LiteOS_Lab/iot_link/network/dtls/mbedtls/mbedtls-2.16.2/library\sha1.c **** }
 3124              		.loc 1 299 0
 3125 0012 00BF     		nop
 3126 0014 0837     		adds	r7, r7, #8
 3127              	.LCFI35:
 3128              		.cfi_def_cfa_offset 8
 3129 0016 BD46     		mov	sp, r7
 3130              	.LCFI36:
 3131              		.cfi_def_cfa_register 13
 3132              		@ sp needed
 3133 0018 80BD     		pop	{r7, pc}
ARM GAS  C:\Users\dtjld\AppData\Local\Temp\ccQby7Tk.s 			page 61


 3134              		.cfi_endproc
 3135              	.LFE9:
 3137              		.section	.text.mbedtls_sha1_update_ret,"ax",%progbits
 3138              		.align	1
 3139              		.global	mbedtls_sha1_update_ret
 3140              		.syntax unified
 3141              		.thumb
 3142              		.thumb_func
 3143              		.fpu fpv4-sp-d16
 3145              	mbedtls_sha1_update_ret:
 3146              	.LFB10:
 300:C:/Users/dtjld/workspace/AIoT/src/LiteOS_Lab/iot_link/network/dtls/mbedtls/mbedtls-2.16.2/library\sha1.c **** #endif
 301:C:/Users/dtjld/workspace/AIoT/src/LiteOS_Lab/iot_link/network/dtls/mbedtls/mbedtls-2.16.2/library\sha1.c **** #endif /* !MBEDTLS_SHA1_PROCESS_ALT */
 302:C:/Users/dtjld/workspace/AIoT/src/LiteOS_Lab/iot_link/network/dtls/mbedtls/mbedtls-2.16.2/library\sha1.c **** 
 303:C:/Users/dtjld/workspace/AIoT/src/LiteOS_Lab/iot_link/network/dtls/mbedtls/mbedtls-2.16.2/library\sha1.c **** /*
 304:C:/Users/dtjld/workspace/AIoT/src/LiteOS_Lab/iot_link/network/dtls/mbedtls/mbedtls-2.16.2/library\sha1.c ****  * SHA-1 process buffer
 305:C:/Users/dtjld/workspace/AIoT/src/LiteOS_Lab/iot_link/network/dtls/mbedtls/mbedtls-2.16.2/library\sha1.c ****  */
 306:C:/Users/dtjld/workspace/AIoT/src/LiteOS_Lab/iot_link/network/dtls/mbedtls/mbedtls-2.16.2/library\sha1.c **** int mbedtls_sha1_update_ret( mbedtls_sha1_context *ctx,
 307:C:/Users/dtjld/workspace/AIoT/src/LiteOS_Lab/iot_link/network/dtls/mbedtls/mbedtls-2.16.2/library\sha1.c ****                              const unsigned char *input,
 308:C:/Users/dtjld/workspace/AIoT/src/LiteOS_Lab/iot_link/network/dtls/mbedtls/mbedtls-2.16.2/library\sha1.c ****                              size_t ilen )
 309:C:/Users/dtjld/workspace/AIoT/src/LiteOS_Lab/iot_link/network/dtls/mbedtls/mbedtls-2.16.2/library\sha1.c **** {
 3147              		.loc 1 309 0
 3148              		.cfi_startproc
 3149              		@ args = 0, pretend = 0, frame = 32
 3150              		@ frame_needed = 1, uses_anonymous_args = 0
 3151 0000 80B5     		push	{r7, lr}
 3152              	.LCFI37:
 3153              		.cfi_def_cfa_offset 8
 3154              		.cfi_offset 7, -8
 3155              		.cfi_offset 14, -4
 3156 0002 88B0     		sub	sp, sp, #32
 3157              	.LCFI38:
 3158              		.cfi_def_cfa_offset 40
 3159 0004 00AF     		add	r7, sp, #0
 3160              	.LCFI39:
 3161              		.cfi_def_cfa_register 7
 3162 0006 F860     		str	r0, [r7, #12]
 3163 0008 B960     		str	r1, [r7, #8]
 3164 000a 7A60     		str	r2, [r7, #4]
 310:C:/Users/dtjld/workspace/AIoT/src/LiteOS_Lab/iot_link/network/dtls/mbedtls/mbedtls-2.16.2/library\sha1.c ****     int ret;
 311:C:/Users/dtjld/workspace/AIoT/src/LiteOS_Lab/iot_link/network/dtls/mbedtls/mbedtls-2.16.2/library\sha1.c ****     size_t fill;
 312:C:/Users/dtjld/workspace/AIoT/src/LiteOS_Lab/iot_link/network/dtls/mbedtls/mbedtls-2.16.2/library\sha1.c ****     uint32_t left;
 313:C:/Users/dtjld/workspace/AIoT/src/LiteOS_Lab/iot_link/network/dtls/mbedtls/mbedtls-2.16.2/library\sha1.c **** 
 314:C:/Users/dtjld/workspace/AIoT/src/LiteOS_Lab/iot_link/network/dtls/mbedtls/mbedtls-2.16.2/library\sha1.c ****     SHA1_VALIDATE_RET( ctx != NULL );
 315:C:/Users/dtjld/workspace/AIoT/src/LiteOS_Lab/iot_link/network/dtls/mbedtls/mbedtls-2.16.2/library\sha1.c ****     SHA1_VALIDATE_RET( ilen == 0 || input != NULL );
 316:C:/Users/dtjld/workspace/AIoT/src/LiteOS_Lab/iot_link/network/dtls/mbedtls/mbedtls-2.16.2/library\sha1.c **** 
 317:C:/Users/dtjld/workspace/AIoT/src/LiteOS_Lab/iot_link/network/dtls/mbedtls/mbedtls-2.16.2/library\sha1.c ****     if( ilen == 0 )
 3165              		.loc 1 317 0
 3166 000c 7B68     		ldr	r3, [r7, #4]
 3167 000e 002B     		cmp	r3, #0
 3168 0010 01D1     		bne	.L37
 318:C:/Users/dtjld/workspace/AIoT/src/LiteOS_Lab/iot_link/network/dtls/mbedtls/mbedtls-2.16.2/library\sha1.c ****         return( 0 );
 3169              		.loc 1 318 0
 3170 0012 0023     		movs	r3, #0
 3171 0014 65E0     		b	.L38
 3172              	.L37:
 319:C:/Users/dtjld/workspace/AIoT/src/LiteOS_Lab/iot_link/network/dtls/mbedtls/mbedtls-2.16.2/library\sha1.c **** 
ARM GAS  C:\Users\dtjld\AppData\Local\Temp\ccQby7Tk.s 			page 62


 320:C:/Users/dtjld/workspace/AIoT/src/LiteOS_Lab/iot_link/network/dtls/mbedtls/mbedtls-2.16.2/library\sha1.c ****     left = ctx->total[0] & 0x3F;
 3173              		.loc 1 320 0
 3174 0016 FB68     		ldr	r3, [r7, #12]
 3175 0018 1B68     		ldr	r3, [r3]
 3176 001a 03F03F03 		and	r3, r3, #63
 3177 001e FB61     		str	r3, [r7, #28]
 321:C:/Users/dtjld/workspace/AIoT/src/LiteOS_Lab/iot_link/network/dtls/mbedtls/mbedtls-2.16.2/library\sha1.c ****     fill = 64 - left;
 3178              		.loc 1 321 0
 3179 0020 FB69     		ldr	r3, [r7, #28]
 3180 0022 C3F14003 		rsb	r3, r3, #64
 3181 0026 BB61     		str	r3, [r7, #24]
 322:C:/Users/dtjld/workspace/AIoT/src/LiteOS_Lab/iot_link/network/dtls/mbedtls/mbedtls-2.16.2/library\sha1.c **** 
 323:C:/Users/dtjld/workspace/AIoT/src/LiteOS_Lab/iot_link/network/dtls/mbedtls/mbedtls-2.16.2/library\sha1.c ****     ctx->total[0] += (uint32_t) ilen;
 3182              		.loc 1 323 0
 3183 0028 FB68     		ldr	r3, [r7, #12]
 3184 002a 1A68     		ldr	r2, [r3]
 3185 002c 7B68     		ldr	r3, [r7, #4]
 3186 002e 1A44     		add	r2, r2, r3
 3187 0030 FB68     		ldr	r3, [r7, #12]
 3188 0032 1A60     		str	r2, [r3]
 324:C:/Users/dtjld/workspace/AIoT/src/LiteOS_Lab/iot_link/network/dtls/mbedtls/mbedtls-2.16.2/library\sha1.c ****     ctx->total[0] &= 0xFFFFFFFF;
 3189              		.loc 1 324 0
 3190 0034 FB68     		ldr	r3, [r7, #12]
 3191 0036 1A68     		ldr	r2, [r3]
 3192 0038 FB68     		ldr	r3, [r7, #12]
 3193 003a 1A60     		str	r2, [r3]
 325:C:/Users/dtjld/workspace/AIoT/src/LiteOS_Lab/iot_link/network/dtls/mbedtls/mbedtls-2.16.2/library\sha1.c **** 
 326:C:/Users/dtjld/workspace/AIoT/src/LiteOS_Lab/iot_link/network/dtls/mbedtls/mbedtls-2.16.2/library\sha1.c ****     if( ctx->total[0] < (uint32_t) ilen )
 3194              		.loc 1 326 0
 3195 003c FB68     		ldr	r3, [r7, #12]
 3196 003e 1B68     		ldr	r3, [r3]
 3197 0040 7A68     		ldr	r2, [r7, #4]
 3198 0042 9A42     		cmp	r2, r3
 3199 0044 04D9     		bls	.L39
 327:C:/Users/dtjld/workspace/AIoT/src/LiteOS_Lab/iot_link/network/dtls/mbedtls/mbedtls-2.16.2/library\sha1.c ****         ctx->total[1]++;
 3200              		.loc 1 327 0
 3201 0046 FB68     		ldr	r3, [r7, #12]
 3202 0048 5B68     		ldr	r3, [r3, #4]
 3203 004a 5A1C     		adds	r2, r3, #1
 3204 004c FB68     		ldr	r3, [r7, #12]
 3205 004e 5A60     		str	r2, [r3, #4]
 3206              	.L39:
 328:C:/Users/dtjld/workspace/AIoT/src/LiteOS_Lab/iot_link/network/dtls/mbedtls/mbedtls-2.16.2/library\sha1.c **** 
 329:C:/Users/dtjld/workspace/AIoT/src/LiteOS_Lab/iot_link/network/dtls/mbedtls/mbedtls-2.16.2/library\sha1.c ****     if( left && ilen >= fill )
 3207              		.loc 1 329 0
 3208 0050 FB69     		ldr	r3, [r7, #28]
 3209 0052 002B     		cmp	r3, #0
 3210 0054 34D0     		beq	.L42
 3211              		.loc 1 329 0 is_stmt 0 discriminator 1
 3212 0056 7A68     		ldr	r2, [r7, #4]
 3213 0058 BB69     		ldr	r3, [r7, #24]
 3214 005a 9A42     		cmp	r2, r3
 3215 005c 30D3     		bcc	.L42
 330:C:/Users/dtjld/workspace/AIoT/src/LiteOS_Lab/iot_link/network/dtls/mbedtls/mbedtls-2.16.2/library\sha1.c ****     {
 331:C:/Users/dtjld/workspace/AIoT/src/LiteOS_Lab/iot_link/network/dtls/mbedtls/mbedtls-2.16.2/library\sha1.c ****         memcpy( (void *) (ctx->buffer + left), input, fill );
 3216              		.loc 1 331 0 is_stmt 1
 3217 005e FB68     		ldr	r3, [r7, #12]
ARM GAS  C:\Users\dtjld\AppData\Local\Temp\ccQby7Tk.s 			page 63


 3218 0060 03F11C02 		add	r2, r3, #28
 3219 0064 FB69     		ldr	r3, [r7, #28]
 3220 0066 1344     		add	r3, r3, r2
 3221 0068 BA69     		ldr	r2, [r7, #24]
 3222 006a B968     		ldr	r1, [r7, #8]
 3223 006c 1846     		mov	r0, r3
 3224 006e FFF7FEFF 		bl	memcpy
 332:C:/Users/dtjld/workspace/AIoT/src/LiteOS_Lab/iot_link/network/dtls/mbedtls/mbedtls-2.16.2/library\sha1.c **** 
 333:C:/Users/dtjld/workspace/AIoT/src/LiteOS_Lab/iot_link/network/dtls/mbedtls/mbedtls-2.16.2/library\sha1.c ****         if( ( ret = mbedtls_internal_sha1_process( ctx, ctx->buffer ) ) != 0 )
 3225              		.loc 1 333 0
 3226 0072 FB68     		ldr	r3, [r7, #12]
 3227 0074 1C33     		adds	r3, r3, #28
 3228 0076 1946     		mov	r1, r3
 3229 0078 F868     		ldr	r0, [r7, #12]
 3230 007a FFF7FEFF 		bl	mbedtls_internal_sha1_process
 3231 007e 7861     		str	r0, [r7, #20]
 3232 0080 7B69     		ldr	r3, [r7, #20]
 3233 0082 002B     		cmp	r3, #0
 3234 0084 01D0     		beq	.L41
 334:C:/Users/dtjld/workspace/AIoT/src/LiteOS_Lab/iot_link/network/dtls/mbedtls/mbedtls-2.16.2/library\sha1.c ****             return( ret );
 3235              		.loc 1 334 0
 3236 0086 7B69     		ldr	r3, [r7, #20]
 3237 0088 2BE0     		b	.L38
 3238              	.L41:
 335:C:/Users/dtjld/workspace/AIoT/src/LiteOS_Lab/iot_link/network/dtls/mbedtls/mbedtls-2.16.2/library\sha1.c **** 
 336:C:/Users/dtjld/workspace/AIoT/src/LiteOS_Lab/iot_link/network/dtls/mbedtls/mbedtls-2.16.2/library\sha1.c ****         input += fill;
 3239              		.loc 1 336 0
 3240 008a BA68     		ldr	r2, [r7, #8]
 3241 008c BB69     		ldr	r3, [r7, #24]
 3242 008e 1344     		add	r3, r3, r2
 3243 0090 BB60     		str	r3, [r7, #8]
 337:C:/Users/dtjld/workspace/AIoT/src/LiteOS_Lab/iot_link/network/dtls/mbedtls/mbedtls-2.16.2/library\sha1.c ****         ilen  -= fill;
 3244              		.loc 1 337 0
 3245 0092 7A68     		ldr	r2, [r7, #4]
 3246 0094 BB69     		ldr	r3, [r7, #24]
 3247 0096 D31A     		subs	r3, r2, r3
 3248 0098 7B60     		str	r3, [r7, #4]
 338:C:/Users/dtjld/workspace/AIoT/src/LiteOS_Lab/iot_link/network/dtls/mbedtls/mbedtls-2.16.2/library\sha1.c ****         left = 0;
 3249              		.loc 1 338 0
 3250 009a 0023     		movs	r3, #0
 3251 009c FB61     		str	r3, [r7, #28]
 339:C:/Users/dtjld/workspace/AIoT/src/LiteOS_Lab/iot_link/network/dtls/mbedtls/mbedtls-2.16.2/library\sha1.c ****     }
 340:C:/Users/dtjld/workspace/AIoT/src/LiteOS_Lab/iot_link/network/dtls/mbedtls/mbedtls-2.16.2/library\sha1.c **** 
 341:C:/Users/dtjld/workspace/AIoT/src/LiteOS_Lab/iot_link/network/dtls/mbedtls/mbedtls-2.16.2/library\sha1.c ****     while( ilen >= 64 )
 3252              		.loc 1 341 0
 3253 009e 0FE0     		b	.L42
 3254              	.L44:
 342:C:/Users/dtjld/workspace/AIoT/src/LiteOS_Lab/iot_link/network/dtls/mbedtls/mbedtls-2.16.2/library\sha1.c ****     {
 343:C:/Users/dtjld/workspace/AIoT/src/LiteOS_Lab/iot_link/network/dtls/mbedtls/mbedtls-2.16.2/library\sha1.c ****         if( ( ret = mbedtls_internal_sha1_process( ctx, input ) ) != 0 )
 3255              		.loc 1 343 0
 3256 00a0 B968     		ldr	r1, [r7, #8]
 3257 00a2 F868     		ldr	r0, [r7, #12]
 3258 00a4 FFF7FEFF 		bl	mbedtls_internal_sha1_process
 3259 00a8 7861     		str	r0, [r7, #20]
 3260 00aa 7B69     		ldr	r3, [r7, #20]
 3261 00ac 002B     		cmp	r3, #0
 3262 00ae 01D0     		beq	.L43
ARM GAS  C:\Users\dtjld\AppData\Local\Temp\ccQby7Tk.s 			page 64


 344:C:/Users/dtjld/workspace/AIoT/src/LiteOS_Lab/iot_link/network/dtls/mbedtls/mbedtls-2.16.2/library\sha1.c ****             return( ret );
 3263              		.loc 1 344 0
 3264 00b0 7B69     		ldr	r3, [r7, #20]
 3265 00b2 16E0     		b	.L38
 3266              	.L43:
 345:C:/Users/dtjld/workspace/AIoT/src/LiteOS_Lab/iot_link/network/dtls/mbedtls/mbedtls-2.16.2/library\sha1.c **** 
 346:C:/Users/dtjld/workspace/AIoT/src/LiteOS_Lab/iot_link/network/dtls/mbedtls/mbedtls-2.16.2/library\sha1.c ****         input += 64;
 3267              		.loc 1 346 0
 3268 00b4 BB68     		ldr	r3, [r7, #8]
 3269 00b6 4033     		adds	r3, r3, #64
 3270 00b8 BB60     		str	r3, [r7, #8]
 347:C:/Users/dtjld/workspace/AIoT/src/LiteOS_Lab/iot_link/network/dtls/mbedtls/mbedtls-2.16.2/library\sha1.c ****         ilen  -= 64;
 3271              		.loc 1 347 0
 3272 00ba 7B68     		ldr	r3, [r7, #4]
 3273 00bc 403B     		subs	r3, r3, #64
 3274 00be 7B60     		str	r3, [r7, #4]
 3275              	.L42:
 341:C:/Users/dtjld/workspace/AIoT/src/LiteOS_Lab/iot_link/network/dtls/mbedtls/mbedtls-2.16.2/library\sha1.c ****     {
 3276              		.loc 1 341 0
 3277 00c0 7B68     		ldr	r3, [r7, #4]
 3278 00c2 3F2B     		cmp	r3, #63
 3279 00c4 ECD8     		bhi	.L44
 348:C:/Users/dtjld/workspace/AIoT/src/LiteOS_Lab/iot_link/network/dtls/mbedtls/mbedtls-2.16.2/library\sha1.c ****     }
 349:C:/Users/dtjld/workspace/AIoT/src/LiteOS_Lab/iot_link/network/dtls/mbedtls/mbedtls-2.16.2/library\sha1.c **** 
 350:C:/Users/dtjld/workspace/AIoT/src/LiteOS_Lab/iot_link/network/dtls/mbedtls/mbedtls-2.16.2/library\sha1.c ****     if( ilen > 0 )
 3280              		.loc 1 350 0
 3281 00c6 7B68     		ldr	r3, [r7, #4]
 3282 00c8 002B     		cmp	r3, #0
 3283 00ca 09D0     		beq	.L45
 351:C:/Users/dtjld/workspace/AIoT/src/LiteOS_Lab/iot_link/network/dtls/mbedtls/mbedtls-2.16.2/library\sha1.c ****         memcpy( (void *) (ctx->buffer + left), input, ilen );
 3284              		.loc 1 351 0
 3285 00cc FB68     		ldr	r3, [r7, #12]
 3286 00ce 03F11C02 		add	r2, r3, #28
 3287 00d2 FB69     		ldr	r3, [r7, #28]
 3288 00d4 1344     		add	r3, r3, r2
 3289 00d6 7A68     		ldr	r2, [r7, #4]
 3290 00d8 B968     		ldr	r1, [r7, #8]
 3291 00da 1846     		mov	r0, r3
 3292 00dc FFF7FEFF 		bl	memcpy
 3293              	.L45:
 352:C:/Users/dtjld/workspace/AIoT/src/LiteOS_Lab/iot_link/network/dtls/mbedtls/mbedtls-2.16.2/library\sha1.c **** 
 353:C:/Users/dtjld/workspace/AIoT/src/LiteOS_Lab/iot_link/network/dtls/mbedtls/mbedtls-2.16.2/library\sha1.c ****     return( 0 );
 3294              		.loc 1 353 0
 3295 00e0 0023     		movs	r3, #0
 3296              	.L38:
 354:C:/Users/dtjld/workspace/AIoT/src/LiteOS_Lab/iot_link/network/dtls/mbedtls/mbedtls-2.16.2/library\sha1.c **** }
 3297              		.loc 1 354 0
 3298 00e2 1846     		mov	r0, r3
 3299 00e4 2037     		adds	r7, r7, #32
 3300              	.LCFI40:
 3301              		.cfi_def_cfa_offset 8
 3302 00e6 BD46     		mov	sp, r7
 3303              	.LCFI41:
 3304              		.cfi_def_cfa_register 13
 3305              		@ sp needed
 3306 00e8 80BD     		pop	{r7, pc}
 3307              		.cfi_endproc
ARM GAS  C:\Users\dtjld\AppData\Local\Temp\ccQby7Tk.s 			page 65


 3308              	.LFE10:
 3310              		.section	.text.mbedtls_sha1_update,"ax",%progbits
 3311              		.align	1
 3312              		.global	mbedtls_sha1_update
 3313              		.syntax unified
 3314              		.thumb
 3315              		.thumb_func
 3316              		.fpu fpv4-sp-d16
 3318              	mbedtls_sha1_update:
 3319              	.LFB11:
 355:C:/Users/dtjld/workspace/AIoT/src/LiteOS_Lab/iot_link/network/dtls/mbedtls/mbedtls-2.16.2/library\sha1.c **** 
 356:C:/Users/dtjld/workspace/AIoT/src/LiteOS_Lab/iot_link/network/dtls/mbedtls/mbedtls-2.16.2/library\sha1.c **** #if !defined(MBEDTLS_DEPRECATED_REMOVED)
 357:C:/Users/dtjld/workspace/AIoT/src/LiteOS_Lab/iot_link/network/dtls/mbedtls/mbedtls-2.16.2/library\sha1.c **** void mbedtls_sha1_update( mbedtls_sha1_context *ctx,
 358:C:/Users/dtjld/workspace/AIoT/src/LiteOS_Lab/iot_link/network/dtls/mbedtls/mbedtls-2.16.2/library\sha1.c ****                           const unsigned char *input,
 359:C:/Users/dtjld/workspace/AIoT/src/LiteOS_Lab/iot_link/network/dtls/mbedtls/mbedtls-2.16.2/library\sha1.c ****                           size_t ilen )
 360:C:/Users/dtjld/workspace/AIoT/src/LiteOS_Lab/iot_link/network/dtls/mbedtls/mbedtls-2.16.2/library\sha1.c **** {
 3320              		.loc 1 360 0
 3321              		.cfi_startproc
 3322              		@ args = 0, pretend = 0, frame = 16
 3323              		@ frame_needed = 1, uses_anonymous_args = 0
 3324 0000 80B5     		push	{r7, lr}
 3325              	.LCFI42:
 3326              		.cfi_def_cfa_offset 8
 3327              		.cfi_offset 7, -8
 3328              		.cfi_offset 14, -4
 3329 0002 84B0     		sub	sp, sp, #16
 3330              	.LCFI43:
 3331              		.cfi_def_cfa_offset 24
 3332 0004 00AF     		add	r7, sp, #0
 3333              	.LCFI44:
 3334              		.cfi_def_cfa_register 7
 3335 0006 F860     		str	r0, [r7, #12]
 3336 0008 B960     		str	r1, [r7, #8]
 3337 000a 7A60     		str	r2, [r7, #4]
 361:C:/Users/dtjld/workspace/AIoT/src/LiteOS_Lab/iot_link/network/dtls/mbedtls/mbedtls-2.16.2/library\sha1.c ****     mbedtls_sha1_update_ret( ctx, input, ilen );
 3338              		.loc 1 361 0
 3339 000c 7A68     		ldr	r2, [r7, #4]
 3340 000e B968     		ldr	r1, [r7, #8]
 3341 0010 F868     		ldr	r0, [r7, #12]
 3342 0012 FFF7FEFF 		bl	mbedtls_sha1_update_ret
 362:C:/Users/dtjld/workspace/AIoT/src/LiteOS_Lab/iot_link/network/dtls/mbedtls/mbedtls-2.16.2/library\sha1.c **** }
 3343              		.loc 1 362 0
 3344 0016 00BF     		nop
 3345 0018 1037     		adds	r7, r7, #16
 3346              	.LCFI45:
 3347              		.cfi_def_cfa_offset 8
 3348 001a BD46     		mov	sp, r7
 3349              	.LCFI46:
 3350              		.cfi_def_cfa_register 13
 3351              		@ sp needed
 3352 001c 80BD     		pop	{r7, pc}
 3353              		.cfi_endproc
 3354              	.LFE11:
 3356              		.section	.text.mbedtls_sha1_finish_ret,"ax",%progbits
 3357              		.align	1
 3358              		.global	mbedtls_sha1_finish_ret
 3359              		.syntax unified
ARM GAS  C:\Users\dtjld\AppData\Local\Temp\ccQby7Tk.s 			page 66


 3360              		.thumb
 3361              		.thumb_func
 3362              		.fpu fpv4-sp-d16
 3364              	mbedtls_sha1_finish_ret:
 3365              	.LFB12:
 363:C:/Users/dtjld/workspace/AIoT/src/LiteOS_Lab/iot_link/network/dtls/mbedtls/mbedtls-2.16.2/library\sha1.c **** #endif
 364:C:/Users/dtjld/workspace/AIoT/src/LiteOS_Lab/iot_link/network/dtls/mbedtls/mbedtls-2.16.2/library\sha1.c **** 
 365:C:/Users/dtjld/workspace/AIoT/src/LiteOS_Lab/iot_link/network/dtls/mbedtls/mbedtls-2.16.2/library\sha1.c **** /*
 366:C:/Users/dtjld/workspace/AIoT/src/LiteOS_Lab/iot_link/network/dtls/mbedtls/mbedtls-2.16.2/library\sha1.c ****  * SHA-1 final digest
 367:C:/Users/dtjld/workspace/AIoT/src/LiteOS_Lab/iot_link/network/dtls/mbedtls/mbedtls-2.16.2/library\sha1.c ****  */
 368:C:/Users/dtjld/workspace/AIoT/src/LiteOS_Lab/iot_link/network/dtls/mbedtls/mbedtls-2.16.2/library\sha1.c **** int mbedtls_sha1_finish_ret( mbedtls_sha1_context *ctx,
 369:C:/Users/dtjld/workspace/AIoT/src/LiteOS_Lab/iot_link/network/dtls/mbedtls/mbedtls-2.16.2/library\sha1.c ****                              unsigned char output[20] )
 370:C:/Users/dtjld/workspace/AIoT/src/LiteOS_Lab/iot_link/network/dtls/mbedtls/mbedtls-2.16.2/library\sha1.c **** {
 3366              		.loc 1 370 0
 3367              		.cfi_startproc
 3368              		@ args = 0, pretend = 0, frame = 24
 3369              		@ frame_needed = 1, uses_anonymous_args = 0
 3370 0000 80B5     		push	{r7, lr}
 3371              	.LCFI47:
 3372              		.cfi_def_cfa_offset 8
 3373              		.cfi_offset 7, -8
 3374              		.cfi_offset 14, -4
 3375 0002 86B0     		sub	sp, sp, #24
 3376              	.LCFI48:
 3377              		.cfi_def_cfa_offset 32
 3378 0004 00AF     		add	r7, sp, #0
 3379              	.LCFI49:
 3380              		.cfi_def_cfa_register 7
 3381 0006 7860     		str	r0, [r7, #4]
 3382 0008 3960     		str	r1, [r7]
 371:C:/Users/dtjld/workspace/AIoT/src/LiteOS_Lab/iot_link/network/dtls/mbedtls/mbedtls-2.16.2/library\sha1.c ****     int ret;
 372:C:/Users/dtjld/workspace/AIoT/src/LiteOS_Lab/iot_link/network/dtls/mbedtls/mbedtls-2.16.2/library\sha1.c ****     uint32_t used;
 373:C:/Users/dtjld/workspace/AIoT/src/LiteOS_Lab/iot_link/network/dtls/mbedtls/mbedtls-2.16.2/library\sha1.c ****     uint32_t high, low;
 374:C:/Users/dtjld/workspace/AIoT/src/LiteOS_Lab/iot_link/network/dtls/mbedtls/mbedtls-2.16.2/library\sha1.c **** 
 375:C:/Users/dtjld/workspace/AIoT/src/LiteOS_Lab/iot_link/network/dtls/mbedtls/mbedtls-2.16.2/library\sha1.c ****     SHA1_VALIDATE_RET( ctx != NULL );
 376:C:/Users/dtjld/workspace/AIoT/src/LiteOS_Lab/iot_link/network/dtls/mbedtls/mbedtls-2.16.2/library\sha1.c ****     SHA1_VALIDATE_RET( (unsigned char *)output != NULL );
 377:C:/Users/dtjld/workspace/AIoT/src/LiteOS_Lab/iot_link/network/dtls/mbedtls/mbedtls-2.16.2/library\sha1.c **** 
 378:C:/Users/dtjld/workspace/AIoT/src/LiteOS_Lab/iot_link/network/dtls/mbedtls/mbedtls-2.16.2/library\sha1.c ****     /*
 379:C:/Users/dtjld/workspace/AIoT/src/LiteOS_Lab/iot_link/network/dtls/mbedtls/mbedtls-2.16.2/library\sha1.c ****      * Add padding: 0x80 then 0x00 until 8 bytes remain for the length
 380:C:/Users/dtjld/workspace/AIoT/src/LiteOS_Lab/iot_link/network/dtls/mbedtls/mbedtls-2.16.2/library\sha1.c ****      */
 381:C:/Users/dtjld/workspace/AIoT/src/LiteOS_Lab/iot_link/network/dtls/mbedtls/mbedtls-2.16.2/library\sha1.c ****     used = ctx->total[0] & 0x3F;
 3383              		.loc 1 381 0
 3384 000a 7B68     		ldr	r3, [r7, #4]
 3385 000c 1B68     		ldr	r3, [r3]
 3386 000e 03F03F03 		and	r3, r3, #63
 3387 0012 7B61     		str	r3, [r7, #20]
 382:C:/Users/dtjld/workspace/AIoT/src/LiteOS_Lab/iot_link/network/dtls/mbedtls/mbedtls-2.16.2/library\sha1.c **** 
 383:C:/Users/dtjld/workspace/AIoT/src/LiteOS_Lab/iot_link/network/dtls/mbedtls/mbedtls-2.16.2/library\sha1.c ****     ctx->buffer[used++] = 0x80;
 3388              		.loc 1 383 0
 3389 0014 7B69     		ldr	r3, [r7, #20]
 3390 0016 5A1C     		adds	r2, r3, #1
 3391 0018 7A61     		str	r2, [r7, #20]
 3392 001a 7A68     		ldr	r2, [r7, #4]
 3393 001c 1344     		add	r3, r3, r2
 3394 001e 8022     		movs	r2, #128
 3395 0020 1A77     		strb	r2, [r3, #28]
 384:C:/Users/dtjld/workspace/AIoT/src/LiteOS_Lab/iot_link/network/dtls/mbedtls/mbedtls-2.16.2/library\sha1.c **** 
ARM GAS  C:\Users\dtjld\AppData\Local\Temp\ccQby7Tk.s 			page 67


 385:C:/Users/dtjld/workspace/AIoT/src/LiteOS_Lab/iot_link/network/dtls/mbedtls/mbedtls-2.16.2/library\sha1.c ****     if( used <= 56 )
 3396              		.loc 1 385 0
 3397 0022 7B69     		ldr	r3, [r7, #20]
 3398 0024 382B     		cmp	r3, #56
 3399 0026 0CD8     		bhi	.L48
 386:C:/Users/dtjld/workspace/AIoT/src/LiteOS_Lab/iot_link/network/dtls/mbedtls/mbedtls-2.16.2/library\sha1.c ****     {
 387:C:/Users/dtjld/workspace/AIoT/src/LiteOS_Lab/iot_link/network/dtls/mbedtls/mbedtls-2.16.2/library\sha1.c ****         /* Enough room for padding + length in current block */
 388:C:/Users/dtjld/workspace/AIoT/src/LiteOS_Lab/iot_link/network/dtls/mbedtls/mbedtls-2.16.2/library\sha1.c ****         memset( ctx->buffer + used, 0, 56 - used );
 3400              		.loc 1 388 0
 3401 0028 7B68     		ldr	r3, [r7, #4]
 3402 002a 03F11C02 		add	r2, r3, #28
 3403 002e 7B69     		ldr	r3, [r7, #20]
 3404 0030 D018     		adds	r0, r2, r3
 3405 0032 7B69     		ldr	r3, [r7, #20]
 3406 0034 C3F13803 		rsb	r3, r3, #56
 3407 0038 1A46     		mov	r2, r3
 3408 003a 0021     		movs	r1, #0
 3409 003c FFF7FEFF 		bl	memset
 3410 0040 1EE0     		b	.L49
 3411              	.L48:
 389:C:/Users/dtjld/workspace/AIoT/src/LiteOS_Lab/iot_link/network/dtls/mbedtls/mbedtls-2.16.2/library\sha1.c ****     }
 390:C:/Users/dtjld/workspace/AIoT/src/LiteOS_Lab/iot_link/network/dtls/mbedtls/mbedtls-2.16.2/library\sha1.c ****     else
 391:C:/Users/dtjld/workspace/AIoT/src/LiteOS_Lab/iot_link/network/dtls/mbedtls/mbedtls-2.16.2/library\sha1.c ****     {
 392:C:/Users/dtjld/workspace/AIoT/src/LiteOS_Lab/iot_link/network/dtls/mbedtls/mbedtls-2.16.2/library\sha1.c ****         /* We'll need an extra block */
 393:C:/Users/dtjld/workspace/AIoT/src/LiteOS_Lab/iot_link/network/dtls/mbedtls/mbedtls-2.16.2/library\sha1.c ****         memset( ctx->buffer + used, 0, 64 - used );
 3412              		.loc 1 393 0
 3413 0042 7B68     		ldr	r3, [r7, #4]
 3414 0044 03F11C02 		add	r2, r3, #28
 3415 0048 7B69     		ldr	r3, [r7, #20]
 3416 004a D018     		adds	r0, r2, r3
 3417 004c 7B69     		ldr	r3, [r7, #20]
 3418 004e C3F14003 		rsb	r3, r3, #64
 3419 0052 1A46     		mov	r2, r3
 3420 0054 0021     		movs	r1, #0
 3421 0056 FFF7FEFF 		bl	memset
 394:C:/Users/dtjld/workspace/AIoT/src/LiteOS_Lab/iot_link/network/dtls/mbedtls/mbedtls-2.16.2/library\sha1.c **** 
 395:C:/Users/dtjld/workspace/AIoT/src/LiteOS_Lab/iot_link/network/dtls/mbedtls/mbedtls-2.16.2/library\sha1.c ****         if( ( ret = mbedtls_internal_sha1_process( ctx, ctx->buffer ) ) != 0 )
 3422              		.loc 1 395 0
 3423 005a 7B68     		ldr	r3, [r7, #4]
 3424 005c 1C33     		adds	r3, r3, #28
 3425 005e 1946     		mov	r1, r3
 3426 0060 7868     		ldr	r0, [r7, #4]
 3427 0062 FFF7FEFF 		bl	mbedtls_internal_sha1_process
 3428 0066 3861     		str	r0, [r7, #16]
 3429 0068 3B69     		ldr	r3, [r7, #16]
 3430 006a 002B     		cmp	r3, #0
 3431 006c 01D0     		beq	.L50
 396:C:/Users/dtjld/workspace/AIoT/src/LiteOS_Lab/iot_link/network/dtls/mbedtls/mbedtls-2.16.2/library\sha1.c ****             return( ret );
 3432              		.loc 1 396 0
 3433 006e 3B69     		ldr	r3, [r7, #16]
 3434 0070 D3E0     		b	.L51
 3435              	.L50:
 397:C:/Users/dtjld/workspace/AIoT/src/LiteOS_Lab/iot_link/network/dtls/mbedtls/mbedtls-2.16.2/library\sha1.c **** 
 398:C:/Users/dtjld/workspace/AIoT/src/LiteOS_Lab/iot_link/network/dtls/mbedtls/mbedtls-2.16.2/library\sha1.c ****         memset( ctx->buffer, 0, 56 );
 3436              		.loc 1 398 0
 3437 0072 7B68     		ldr	r3, [r7, #4]
 3438 0074 1C33     		adds	r3, r3, #28
ARM GAS  C:\Users\dtjld\AppData\Local\Temp\ccQby7Tk.s 			page 68


 3439 0076 3822     		movs	r2, #56
 3440 0078 0021     		movs	r1, #0
 3441 007a 1846     		mov	r0, r3
 3442 007c FFF7FEFF 		bl	memset
 3443              	.L49:
 399:C:/Users/dtjld/workspace/AIoT/src/LiteOS_Lab/iot_link/network/dtls/mbedtls/mbedtls-2.16.2/library\sha1.c ****     }
 400:C:/Users/dtjld/workspace/AIoT/src/LiteOS_Lab/iot_link/network/dtls/mbedtls/mbedtls-2.16.2/library\sha1.c **** 
 401:C:/Users/dtjld/workspace/AIoT/src/LiteOS_Lab/iot_link/network/dtls/mbedtls/mbedtls-2.16.2/library\sha1.c ****     /*
 402:C:/Users/dtjld/workspace/AIoT/src/LiteOS_Lab/iot_link/network/dtls/mbedtls/mbedtls-2.16.2/library\sha1.c ****      * Add message length
 403:C:/Users/dtjld/workspace/AIoT/src/LiteOS_Lab/iot_link/network/dtls/mbedtls/mbedtls-2.16.2/library\sha1.c ****      */
 404:C:/Users/dtjld/workspace/AIoT/src/LiteOS_Lab/iot_link/network/dtls/mbedtls/mbedtls-2.16.2/library\sha1.c ****     high = ( ctx->total[0] >> 29 )
 3444              		.loc 1 404 0
 3445 0080 7B68     		ldr	r3, [r7, #4]
 3446 0082 1B68     		ldr	r3, [r3]
 3447 0084 5A0F     		lsrs	r2, r3, #29
 405:C:/Users/dtjld/workspace/AIoT/src/LiteOS_Lab/iot_link/network/dtls/mbedtls/mbedtls-2.16.2/library\sha1.c ****          | ( ctx->total[1] <<  3 );
 3448              		.loc 1 405 0
 3449 0086 7B68     		ldr	r3, [r7, #4]
 3450 0088 5B68     		ldr	r3, [r3, #4]
 3451 008a DB00     		lsls	r3, r3, #3
 404:C:/Users/dtjld/workspace/AIoT/src/LiteOS_Lab/iot_link/network/dtls/mbedtls/mbedtls-2.16.2/library\sha1.c ****          | ( ctx->total[1] <<  3 );
 3452              		.loc 1 404 0
 3453 008c 1343     		orrs	r3, r3, r2
 3454 008e FB60     		str	r3, [r7, #12]
 406:C:/Users/dtjld/workspace/AIoT/src/LiteOS_Lab/iot_link/network/dtls/mbedtls/mbedtls-2.16.2/library\sha1.c ****     low  = ( ctx->total[0] <<  3 );
 3455              		.loc 1 406 0
 3456 0090 7B68     		ldr	r3, [r7, #4]
 3457 0092 1B68     		ldr	r3, [r3]
 3458 0094 DB00     		lsls	r3, r3, #3
 3459 0096 BB60     		str	r3, [r7, #8]
 407:C:/Users/dtjld/workspace/AIoT/src/LiteOS_Lab/iot_link/network/dtls/mbedtls/mbedtls-2.16.2/library\sha1.c **** 
 408:C:/Users/dtjld/workspace/AIoT/src/LiteOS_Lab/iot_link/network/dtls/mbedtls/mbedtls-2.16.2/library\sha1.c ****     PUT_UINT32_BE( high, ctx->buffer, 56 );
 3460              		.loc 1 408 0
 3461 0098 FB68     		ldr	r3, [r7, #12]
 3462 009a 1B0E     		lsrs	r3, r3, #24
 3463 009c DAB2     		uxtb	r2, r3
 3464 009e 7B68     		ldr	r3, [r7, #4]
 3465 00a0 83F85420 		strb	r2, [r3, #84]
 3466 00a4 FB68     		ldr	r3, [r7, #12]
 3467 00a6 1B0C     		lsrs	r3, r3, #16
 3468 00a8 DAB2     		uxtb	r2, r3
 3469 00aa 7B68     		ldr	r3, [r7, #4]
 3470 00ac 83F85520 		strb	r2, [r3, #85]
 3471 00b0 FB68     		ldr	r3, [r7, #12]
 3472 00b2 1B0A     		lsrs	r3, r3, #8
 3473 00b4 DAB2     		uxtb	r2, r3
 3474 00b6 7B68     		ldr	r3, [r7, #4]
 3475 00b8 83F85620 		strb	r2, [r3, #86]
 3476 00bc FB68     		ldr	r3, [r7, #12]
 3477 00be DAB2     		uxtb	r2, r3
 3478 00c0 7B68     		ldr	r3, [r7, #4]
 3479 00c2 83F85720 		strb	r2, [r3, #87]
 409:C:/Users/dtjld/workspace/AIoT/src/LiteOS_Lab/iot_link/network/dtls/mbedtls/mbedtls-2.16.2/library\sha1.c ****     PUT_UINT32_BE( low,  ctx->buffer, 60 );
 3480              		.loc 1 409 0
 3481 00c6 BB68     		ldr	r3, [r7, #8]
 3482 00c8 1B0E     		lsrs	r3, r3, #24
 3483 00ca DAB2     		uxtb	r2, r3
ARM GAS  C:\Users\dtjld\AppData\Local\Temp\ccQby7Tk.s 			page 69


 3484 00cc 7B68     		ldr	r3, [r7, #4]
 3485 00ce 83F85820 		strb	r2, [r3, #88]
 3486 00d2 BB68     		ldr	r3, [r7, #8]
 3487 00d4 1B0C     		lsrs	r3, r3, #16
 3488 00d6 DAB2     		uxtb	r2, r3
 3489 00d8 7B68     		ldr	r3, [r7, #4]
 3490 00da 83F85920 		strb	r2, [r3, #89]
 3491 00de BB68     		ldr	r3, [r7, #8]
 3492 00e0 1B0A     		lsrs	r3, r3, #8
 3493 00e2 DAB2     		uxtb	r2, r3
 3494 00e4 7B68     		ldr	r3, [r7, #4]
 3495 00e6 83F85A20 		strb	r2, [r3, #90]
 3496 00ea BB68     		ldr	r3, [r7, #8]
 3497 00ec DAB2     		uxtb	r2, r3
 3498 00ee 7B68     		ldr	r3, [r7, #4]
 3499 00f0 83F85B20 		strb	r2, [r3, #91]
 410:C:/Users/dtjld/workspace/AIoT/src/LiteOS_Lab/iot_link/network/dtls/mbedtls/mbedtls-2.16.2/library\sha1.c **** 
 411:C:/Users/dtjld/workspace/AIoT/src/LiteOS_Lab/iot_link/network/dtls/mbedtls/mbedtls-2.16.2/library\sha1.c ****     if( ( ret = mbedtls_internal_sha1_process( ctx, ctx->buffer ) ) != 0 )
 3500              		.loc 1 411 0
 3501 00f4 7B68     		ldr	r3, [r7, #4]
 3502 00f6 1C33     		adds	r3, r3, #28
 3503 00f8 1946     		mov	r1, r3
 3504 00fa 7868     		ldr	r0, [r7, #4]
 3505 00fc FFF7FEFF 		bl	mbedtls_internal_sha1_process
 3506 0100 3861     		str	r0, [r7, #16]
 3507 0102 3B69     		ldr	r3, [r7, #16]
 3508 0104 002B     		cmp	r3, #0
 3509 0106 01D0     		beq	.L52
 412:C:/Users/dtjld/workspace/AIoT/src/LiteOS_Lab/iot_link/network/dtls/mbedtls/mbedtls-2.16.2/library\sha1.c ****         return( ret );
 3510              		.loc 1 412 0
 3511 0108 3B69     		ldr	r3, [r7, #16]
 3512 010a 86E0     		b	.L51
 3513              	.L52:
 413:C:/Users/dtjld/workspace/AIoT/src/LiteOS_Lab/iot_link/network/dtls/mbedtls/mbedtls-2.16.2/library\sha1.c **** 
 414:C:/Users/dtjld/workspace/AIoT/src/LiteOS_Lab/iot_link/network/dtls/mbedtls/mbedtls-2.16.2/library\sha1.c ****     /*
 415:C:/Users/dtjld/workspace/AIoT/src/LiteOS_Lab/iot_link/network/dtls/mbedtls/mbedtls-2.16.2/library\sha1.c ****      * Output final state
 416:C:/Users/dtjld/workspace/AIoT/src/LiteOS_Lab/iot_link/network/dtls/mbedtls/mbedtls-2.16.2/library\sha1.c ****      */
 417:C:/Users/dtjld/workspace/AIoT/src/LiteOS_Lab/iot_link/network/dtls/mbedtls/mbedtls-2.16.2/library\sha1.c ****     PUT_UINT32_BE( ctx->state[0], output,  0 );
 3514              		.loc 1 417 0
 3515 010c 7B68     		ldr	r3, [r7, #4]
 3516 010e 9B68     		ldr	r3, [r3, #8]
 3517 0110 1B0E     		lsrs	r3, r3, #24
 3518 0112 DAB2     		uxtb	r2, r3
 3519 0114 3B68     		ldr	r3, [r7]
 3520 0116 1A70     		strb	r2, [r3]
 3521 0118 7B68     		ldr	r3, [r7, #4]
 3522 011a 9B68     		ldr	r3, [r3, #8]
 3523 011c 1A0C     		lsrs	r2, r3, #16
 3524 011e 3B68     		ldr	r3, [r7]
 3525 0120 0133     		adds	r3, r3, #1
 3526 0122 D2B2     		uxtb	r2, r2
 3527 0124 1A70     		strb	r2, [r3]
 3528 0126 7B68     		ldr	r3, [r7, #4]
 3529 0128 9B68     		ldr	r3, [r3, #8]
 3530 012a 1A0A     		lsrs	r2, r3, #8
 3531 012c 3B68     		ldr	r3, [r7]
 3532 012e 0233     		adds	r3, r3, #2
ARM GAS  C:\Users\dtjld\AppData\Local\Temp\ccQby7Tk.s 			page 70


 3533 0130 D2B2     		uxtb	r2, r2
 3534 0132 1A70     		strb	r2, [r3]
 3535 0134 7B68     		ldr	r3, [r7, #4]
 3536 0136 9A68     		ldr	r2, [r3, #8]
 3537 0138 3B68     		ldr	r3, [r7]
 3538 013a 0333     		adds	r3, r3, #3
 3539 013c D2B2     		uxtb	r2, r2
 3540 013e 1A70     		strb	r2, [r3]
 418:C:/Users/dtjld/workspace/AIoT/src/LiteOS_Lab/iot_link/network/dtls/mbedtls/mbedtls-2.16.2/library\sha1.c ****     PUT_UINT32_BE( ctx->state[1], output,  4 );
 3541              		.loc 1 418 0
 3542 0140 7B68     		ldr	r3, [r7, #4]
 3543 0142 DB68     		ldr	r3, [r3, #12]
 3544 0144 1A0E     		lsrs	r2, r3, #24
 3545 0146 3B68     		ldr	r3, [r7]
 3546 0148 0433     		adds	r3, r3, #4
 3547 014a D2B2     		uxtb	r2, r2
 3548 014c 1A70     		strb	r2, [r3]
 3549 014e 7B68     		ldr	r3, [r7, #4]
 3550 0150 DB68     		ldr	r3, [r3, #12]
 3551 0152 1A0C     		lsrs	r2, r3, #16
 3552 0154 3B68     		ldr	r3, [r7]
 3553 0156 0533     		adds	r3, r3, #5
 3554 0158 D2B2     		uxtb	r2, r2
 3555 015a 1A70     		strb	r2, [r3]
 3556 015c 7B68     		ldr	r3, [r7, #4]
 3557 015e DB68     		ldr	r3, [r3, #12]
 3558 0160 1A0A     		lsrs	r2, r3, #8
 3559 0162 3B68     		ldr	r3, [r7]
 3560 0164 0633     		adds	r3, r3, #6
 3561 0166 D2B2     		uxtb	r2, r2
 3562 0168 1A70     		strb	r2, [r3]
 3563 016a 7B68     		ldr	r3, [r7, #4]
 3564 016c DA68     		ldr	r2, [r3, #12]
 3565 016e 3B68     		ldr	r3, [r7]
 3566 0170 0733     		adds	r3, r3, #7
 3567 0172 D2B2     		uxtb	r2, r2
 3568 0174 1A70     		strb	r2, [r3]
 419:C:/Users/dtjld/workspace/AIoT/src/LiteOS_Lab/iot_link/network/dtls/mbedtls/mbedtls-2.16.2/library\sha1.c ****     PUT_UINT32_BE( ctx->state[2], output,  8 );
 3569              		.loc 1 419 0
 3570 0176 7B68     		ldr	r3, [r7, #4]
 3571 0178 1B69     		ldr	r3, [r3, #16]
 3572 017a 1A0E     		lsrs	r2, r3, #24
 3573 017c 3B68     		ldr	r3, [r7]
 3574 017e 0833     		adds	r3, r3, #8
 3575 0180 D2B2     		uxtb	r2, r2
 3576 0182 1A70     		strb	r2, [r3]
 3577 0184 7B68     		ldr	r3, [r7, #4]
 3578 0186 1B69     		ldr	r3, [r3, #16]
 3579 0188 1A0C     		lsrs	r2, r3, #16
 3580 018a 3B68     		ldr	r3, [r7]
 3581 018c 0933     		adds	r3, r3, #9
 3582 018e D2B2     		uxtb	r2, r2
 3583 0190 1A70     		strb	r2, [r3]
 3584 0192 7B68     		ldr	r3, [r7, #4]
 3585 0194 1B69     		ldr	r3, [r3, #16]
 3586 0196 1A0A     		lsrs	r2, r3, #8
 3587 0198 3B68     		ldr	r3, [r7]
ARM GAS  C:\Users\dtjld\AppData\Local\Temp\ccQby7Tk.s 			page 71


 3588 019a 0A33     		adds	r3, r3, #10
 3589 019c D2B2     		uxtb	r2, r2
 3590 019e 1A70     		strb	r2, [r3]
 3591 01a0 7B68     		ldr	r3, [r7, #4]
 3592 01a2 1A69     		ldr	r2, [r3, #16]
 3593 01a4 3B68     		ldr	r3, [r7]
 3594 01a6 0B33     		adds	r3, r3, #11
 3595 01a8 D2B2     		uxtb	r2, r2
 3596 01aa 1A70     		strb	r2, [r3]
 420:C:/Users/dtjld/workspace/AIoT/src/LiteOS_Lab/iot_link/network/dtls/mbedtls/mbedtls-2.16.2/library\sha1.c ****     PUT_UINT32_BE( ctx->state[3], output, 12 );
 3597              		.loc 1 420 0
 3598 01ac 7B68     		ldr	r3, [r7, #4]
 3599 01ae 5B69     		ldr	r3, [r3, #20]
 3600 01b0 1A0E     		lsrs	r2, r3, #24
 3601 01b2 3B68     		ldr	r3, [r7]
 3602 01b4 0C33     		adds	r3, r3, #12
 3603 01b6 D2B2     		uxtb	r2, r2
 3604 01b8 1A70     		strb	r2, [r3]
 3605 01ba 7B68     		ldr	r3, [r7, #4]
 3606 01bc 5B69     		ldr	r3, [r3, #20]
 3607 01be 1A0C     		lsrs	r2, r3, #16
 3608 01c0 3B68     		ldr	r3, [r7]
 3609 01c2 0D33     		adds	r3, r3, #13
 3610 01c4 D2B2     		uxtb	r2, r2
 3611 01c6 1A70     		strb	r2, [r3]
 3612 01c8 7B68     		ldr	r3, [r7, #4]
 3613 01ca 5B69     		ldr	r3, [r3, #20]
 3614 01cc 1A0A     		lsrs	r2, r3, #8
 3615 01ce 3B68     		ldr	r3, [r7]
 3616 01d0 0E33     		adds	r3, r3, #14
 3617 01d2 D2B2     		uxtb	r2, r2
 3618 01d4 1A70     		strb	r2, [r3]
 3619 01d6 7B68     		ldr	r3, [r7, #4]
 3620 01d8 5A69     		ldr	r2, [r3, #20]
 3621 01da 3B68     		ldr	r3, [r7]
 3622 01dc 0F33     		adds	r3, r3, #15
 3623 01de D2B2     		uxtb	r2, r2
 3624 01e0 1A70     		strb	r2, [r3]
 421:C:/Users/dtjld/workspace/AIoT/src/LiteOS_Lab/iot_link/network/dtls/mbedtls/mbedtls-2.16.2/library\sha1.c ****     PUT_UINT32_BE( ctx->state[4], output, 16 );
 3625              		.loc 1 421 0
 3626 01e2 7B68     		ldr	r3, [r7, #4]
 3627 01e4 9B69     		ldr	r3, [r3, #24]
 3628 01e6 1A0E     		lsrs	r2, r3, #24
 3629 01e8 3B68     		ldr	r3, [r7]
 3630 01ea 1033     		adds	r3, r3, #16
 3631 01ec D2B2     		uxtb	r2, r2
 3632 01ee 1A70     		strb	r2, [r3]
 3633 01f0 7B68     		ldr	r3, [r7, #4]
 3634 01f2 9B69     		ldr	r3, [r3, #24]
 3635 01f4 1A0C     		lsrs	r2, r3, #16
 3636 01f6 3B68     		ldr	r3, [r7]
 3637 01f8 1133     		adds	r3, r3, #17
 3638 01fa D2B2     		uxtb	r2, r2
 3639 01fc 1A70     		strb	r2, [r3]
 3640 01fe 7B68     		ldr	r3, [r7, #4]
 3641 0200 9B69     		ldr	r3, [r3, #24]
 3642 0202 1A0A     		lsrs	r2, r3, #8
ARM GAS  C:\Users\dtjld\AppData\Local\Temp\ccQby7Tk.s 			page 72


 3643 0204 3B68     		ldr	r3, [r7]
 3644 0206 1233     		adds	r3, r3, #18
 3645 0208 D2B2     		uxtb	r2, r2
 3646 020a 1A70     		strb	r2, [r3]
 3647 020c 7B68     		ldr	r3, [r7, #4]
 3648 020e 9A69     		ldr	r2, [r3, #24]
 3649 0210 3B68     		ldr	r3, [r7]
 3650 0212 1333     		adds	r3, r3, #19
 3651 0214 D2B2     		uxtb	r2, r2
 3652 0216 1A70     		strb	r2, [r3]
 422:C:/Users/dtjld/workspace/AIoT/src/LiteOS_Lab/iot_link/network/dtls/mbedtls/mbedtls-2.16.2/library\sha1.c **** 
 423:C:/Users/dtjld/workspace/AIoT/src/LiteOS_Lab/iot_link/network/dtls/mbedtls/mbedtls-2.16.2/library\sha1.c ****     return( 0 );
 3653              		.loc 1 423 0
 3654 0218 0023     		movs	r3, #0
 3655              	.L51:
 424:C:/Users/dtjld/workspace/AIoT/src/LiteOS_Lab/iot_link/network/dtls/mbedtls/mbedtls-2.16.2/library\sha1.c **** }
 3656              		.loc 1 424 0
 3657 021a 1846     		mov	r0, r3
 3658 021c 1837     		adds	r7, r7, #24
 3659              	.LCFI50:
 3660              		.cfi_def_cfa_offset 8
 3661 021e BD46     		mov	sp, r7
 3662              	.LCFI51:
 3663              		.cfi_def_cfa_register 13
 3664              		@ sp needed
 3665 0220 80BD     		pop	{r7, pc}
 3666              		.cfi_endproc
 3667              	.LFE12:
 3669              		.section	.text.mbedtls_sha1_finish,"ax",%progbits
 3670              		.align	1
 3671              		.global	mbedtls_sha1_finish
 3672              		.syntax unified
 3673              		.thumb
 3674              		.thumb_func
 3675              		.fpu fpv4-sp-d16
 3677              	mbedtls_sha1_finish:
 3678              	.LFB13:
 425:C:/Users/dtjld/workspace/AIoT/src/LiteOS_Lab/iot_link/network/dtls/mbedtls/mbedtls-2.16.2/library\sha1.c **** 
 426:C:/Users/dtjld/workspace/AIoT/src/LiteOS_Lab/iot_link/network/dtls/mbedtls/mbedtls-2.16.2/library\sha1.c **** #if !defined(MBEDTLS_DEPRECATED_REMOVED)
 427:C:/Users/dtjld/workspace/AIoT/src/LiteOS_Lab/iot_link/network/dtls/mbedtls/mbedtls-2.16.2/library\sha1.c **** void mbedtls_sha1_finish( mbedtls_sha1_context *ctx,
 428:C:/Users/dtjld/workspace/AIoT/src/LiteOS_Lab/iot_link/network/dtls/mbedtls/mbedtls-2.16.2/library\sha1.c ****                           unsigned char output[20] )
 429:C:/Users/dtjld/workspace/AIoT/src/LiteOS_Lab/iot_link/network/dtls/mbedtls/mbedtls-2.16.2/library\sha1.c **** {
 3679              		.loc 1 429 0
 3680              		.cfi_startproc
 3681              		@ args = 0, pretend = 0, frame = 8
 3682              		@ frame_needed = 1, uses_anonymous_args = 0
 3683 0000 80B5     		push	{r7, lr}
 3684              	.LCFI52:
 3685              		.cfi_def_cfa_offset 8
 3686              		.cfi_offset 7, -8
 3687              		.cfi_offset 14, -4
 3688 0002 82B0     		sub	sp, sp, #8
 3689              	.LCFI53:
 3690              		.cfi_def_cfa_offset 16
 3691 0004 00AF     		add	r7, sp, #0
 3692              	.LCFI54:
 3693              		.cfi_def_cfa_register 7
ARM GAS  C:\Users\dtjld\AppData\Local\Temp\ccQby7Tk.s 			page 73


 3694 0006 7860     		str	r0, [r7, #4]
 3695 0008 3960     		str	r1, [r7]
 430:C:/Users/dtjld/workspace/AIoT/src/LiteOS_Lab/iot_link/network/dtls/mbedtls/mbedtls-2.16.2/library\sha1.c ****     mbedtls_sha1_finish_ret( ctx, output );
 3696              		.loc 1 430 0
 3697 000a 3968     		ldr	r1, [r7]
 3698 000c 7868     		ldr	r0, [r7, #4]
 3699 000e FFF7FEFF 		bl	mbedtls_sha1_finish_ret
 431:C:/Users/dtjld/workspace/AIoT/src/LiteOS_Lab/iot_link/network/dtls/mbedtls/mbedtls-2.16.2/library\sha1.c **** }
 3700              		.loc 1 431 0
 3701 0012 00BF     		nop
 3702 0014 0837     		adds	r7, r7, #8
 3703              	.LCFI55:
 3704              		.cfi_def_cfa_offset 8
 3705 0016 BD46     		mov	sp, r7
 3706              	.LCFI56:
 3707              		.cfi_def_cfa_register 13
 3708              		@ sp needed
 3709 0018 80BD     		pop	{r7, pc}
 3710              		.cfi_endproc
 3711              	.LFE13:
 3713              		.section	.text.mbedtls_sha1_ret,"ax",%progbits
 3714              		.align	1
 3715              		.global	mbedtls_sha1_ret
 3716              		.syntax unified
 3717              		.thumb
 3718              		.thumb_func
 3719              		.fpu fpv4-sp-d16
 3721              	mbedtls_sha1_ret:
 3722              	.LFB14:
 432:C:/Users/dtjld/workspace/AIoT/src/LiteOS_Lab/iot_link/network/dtls/mbedtls/mbedtls-2.16.2/library\sha1.c **** #endif
 433:C:/Users/dtjld/workspace/AIoT/src/LiteOS_Lab/iot_link/network/dtls/mbedtls/mbedtls-2.16.2/library\sha1.c **** 
 434:C:/Users/dtjld/workspace/AIoT/src/LiteOS_Lab/iot_link/network/dtls/mbedtls/mbedtls-2.16.2/library\sha1.c **** #endif /* !MBEDTLS_SHA1_ALT */
 435:C:/Users/dtjld/workspace/AIoT/src/LiteOS_Lab/iot_link/network/dtls/mbedtls/mbedtls-2.16.2/library\sha1.c **** 
 436:C:/Users/dtjld/workspace/AIoT/src/LiteOS_Lab/iot_link/network/dtls/mbedtls/mbedtls-2.16.2/library\sha1.c **** /*
 437:C:/Users/dtjld/workspace/AIoT/src/LiteOS_Lab/iot_link/network/dtls/mbedtls/mbedtls-2.16.2/library\sha1.c ****  * output = SHA-1( input buffer )
 438:C:/Users/dtjld/workspace/AIoT/src/LiteOS_Lab/iot_link/network/dtls/mbedtls/mbedtls-2.16.2/library\sha1.c ****  */
 439:C:/Users/dtjld/workspace/AIoT/src/LiteOS_Lab/iot_link/network/dtls/mbedtls/mbedtls-2.16.2/library\sha1.c **** int mbedtls_sha1_ret( const unsigned char *input,
 440:C:/Users/dtjld/workspace/AIoT/src/LiteOS_Lab/iot_link/network/dtls/mbedtls/mbedtls-2.16.2/library\sha1.c ****                       size_t ilen,
 441:C:/Users/dtjld/workspace/AIoT/src/LiteOS_Lab/iot_link/network/dtls/mbedtls/mbedtls-2.16.2/library\sha1.c ****                       unsigned char output[20] )
 442:C:/Users/dtjld/workspace/AIoT/src/LiteOS_Lab/iot_link/network/dtls/mbedtls/mbedtls-2.16.2/library\sha1.c **** {
 3723              		.loc 1 442 0
 3724              		.cfi_startproc
 3725              		@ args = 0, pretend = 0, frame = 112
 3726              		@ frame_needed = 1, uses_anonymous_args = 0
 3727 0000 80B5     		push	{r7, lr}
 3728              	.LCFI57:
 3729              		.cfi_def_cfa_offset 8
 3730              		.cfi_offset 7, -8
 3731              		.cfi_offset 14, -4
 3732 0002 9CB0     		sub	sp, sp, #112
 3733              	.LCFI58:
 3734              		.cfi_def_cfa_offset 120
 3735 0004 00AF     		add	r7, sp, #0
 3736              	.LCFI59:
 3737              		.cfi_def_cfa_register 7
 3738 0006 F860     		str	r0, [r7, #12]
 3739 0008 B960     		str	r1, [r7, #8]
ARM GAS  C:\Users\dtjld\AppData\Local\Temp\ccQby7Tk.s 			page 74


 3740 000a 7A60     		str	r2, [r7, #4]
 443:C:/Users/dtjld/workspace/AIoT/src/LiteOS_Lab/iot_link/network/dtls/mbedtls/mbedtls-2.16.2/library\sha1.c ****     int ret;
 444:C:/Users/dtjld/workspace/AIoT/src/LiteOS_Lab/iot_link/network/dtls/mbedtls/mbedtls-2.16.2/library\sha1.c ****     mbedtls_sha1_context ctx;
 445:C:/Users/dtjld/workspace/AIoT/src/LiteOS_Lab/iot_link/network/dtls/mbedtls/mbedtls-2.16.2/library\sha1.c **** 
 446:C:/Users/dtjld/workspace/AIoT/src/LiteOS_Lab/iot_link/network/dtls/mbedtls/mbedtls-2.16.2/library\sha1.c ****     SHA1_VALIDATE_RET( ilen == 0 || input != NULL );
 447:C:/Users/dtjld/workspace/AIoT/src/LiteOS_Lab/iot_link/network/dtls/mbedtls/mbedtls-2.16.2/library\sha1.c ****     SHA1_VALIDATE_RET( (unsigned char *)output != NULL );
 448:C:/Users/dtjld/workspace/AIoT/src/LiteOS_Lab/iot_link/network/dtls/mbedtls/mbedtls-2.16.2/library\sha1.c **** 
 449:C:/Users/dtjld/workspace/AIoT/src/LiteOS_Lab/iot_link/network/dtls/mbedtls/mbedtls-2.16.2/library\sha1.c ****     mbedtls_sha1_init( &ctx );
 3741              		.loc 1 449 0
 3742 000c 07F11003 		add	r3, r7, #16
 3743 0010 1846     		mov	r0, r3
 3744 0012 FFF7FEFF 		bl	mbedtls_sha1_init
 450:C:/Users/dtjld/workspace/AIoT/src/LiteOS_Lab/iot_link/network/dtls/mbedtls/mbedtls-2.16.2/library\sha1.c **** 
 451:C:/Users/dtjld/workspace/AIoT/src/LiteOS_Lab/iot_link/network/dtls/mbedtls/mbedtls-2.16.2/library\sha1.c ****     if( ( ret = mbedtls_sha1_starts_ret( &ctx ) ) != 0 )
 3745              		.loc 1 451 0
 3746 0016 07F11003 		add	r3, r7, #16
 3747 001a 1846     		mov	r0, r3
 3748 001c FFF7FEFF 		bl	mbedtls_sha1_starts_ret
 3749 0020 F866     		str	r0, [r7, #108]
 3750 0022 FB6E     		ldr	r3, [r7, #108]
 3751 0024 002B     		cmp	r3, #0
 3752 0026 14D1     		bne	.L59
 452:C:/Users/dtjld/workspace/AIoT/src/LiteOS_Lab/iot_link/network/dtls/mbedtls/mbedtls-2.16.2/library\sha1.c ****         goto exit;
 453:C:/Users/dtjld/workspace/AIoT/src/LiteOS_Lab/iot_link/network/dtls/mbedtls/mbedtls-2.16.2/library\sha1.c **** 
 454:C:/Users/dtjld/workspace/AIoT/src/LiteOS_Lab/iot_link/network/dtls/mbedtls/mbedtls-2.16.2/library\sha1.c ****     if( ( ret = mbedtls_sha1_update_ret( &ctx, input, ilen ) ) != 0 )
 3753              		.loc 1 454 0
 3754 0028 07F11003 		add	r3, r7, #16
 3755 002c BA68     		ldr	r2, [r7, #8]
 3756 002e F968     		ldr	r1, [r7, #12]
 3757 0030 1846     		mov	r0, r3
 3758 0032 FFF7FEFF 		bl	mbedtls_sha1_update_ret
 3759 0036 F866     		str	r0, [r7, #108]
 3760 0038 FB6E     		ldr	r3, [r7, #108]
 3761 003a 002B     		cmp	r3, #0
 3762 003c 0BD1     		bne	.L60
 455:C:/Users/dtjld/workspace/AIoT/src/LiteOS_Lab/iot_link/network/dtls/mbedtls/mbedtls-2.16.2/library\sha1.c ****         goto exit;
 456:C:/Users/dtjld/workspace/AIoT/src/LiteOS_Lab/iot_link/network/dtls/mbedtls/mbedtls-2.16.2/library\sha1.c **** 
 457:C:/Users/dtjld/workspace/AIoT/src/LiteOS_Lab/iot_link/network/dtls/mbedtls/mbedtls-2.16.2/library\sha1.c ****     if( ( ret = mbedtls_sha1_finish_ret( &ctx, output ) ) != 0 )
 3763              		.loc 1 457 0
 3764 003e 07F11003 		add	r3, r7, #16
 3765 0042 7968     		ldr	r1, [r7, #4]
 3766 0044 1846     		mov	r0, r3
 3767 0046 FFF7FEFF 		bl	mbedtls_sha1_finish_ret
 3768 004a F866     		str	r0, [r7, #108]
 3769 004c FB6E     		ldr	r3, [r7, #108]
 3770 004e 002B     		cmp	r3, #0
 458:C:/Users/dtjld/workspace/AIoT/src/LiteOS_Lab/iot_link/network/dtls/mbedtls/mbedtls-2.16.2/library\sha1.c ****         goto exit;
 459:C:/Users/dtjld/workspace/AIoT/src/LiteOS_Lab/iot_link/network/dtls/mbedtls/mbedtls-2.16.2/library\sha1.c **** 
 460:C:/Users/dtjld/workspace/AIoT/src/LiteOS_Lab/iot_link/network/dtls/mbedtls/mbedtls-2.16.2/library\sha1.c **** exit:
 3771              		.loc 1 460 0
 3772 0050 02E0     		b	.L56
 3773              	.L59:
 452:C:/Users/dtjld/workspace/AIoT/src/LiteOS_Lab/iot_link/network/dtls/mbedtls/mbedtls-2.16.2/library\sha1.c **** 
 3774              		.loc 1 452 0
 3775 0052 00BF     		nop
 3776 0054 00E0     		b	.L56
 3777              	.L60:
ARM GAS  C:\Users\dtjld\AppData\Local\Temp\ccQby7Tk.s 			page 75


 455:C:/Users/dtjld/workspace/AIoT/src/LiteOS_Lab/iot_link/network/dtls/mbedtls/mbedtls-2.16.2/library\sha1.c ****         goto exit;
 3778              		.loc 1 455 0
 3779 0056 00BF     		nop
 3780              	.L56:
 461:C:/Users/dtjld/workspace/AIoT/src/LiteOS_Lab/iot_link/network/dtls/mbedtls/mbedtls-2.16.2/library\sha1.c ****     mbedtls_sha1_free( &ctx );
 3781              		.loc 1 461 0
 3782 0058 07F11003 		add	r3, r7, #16
 3783 005c 1846     		mov	r0, r3
 3784 005e FFF7FEFF 		bl	mbedtls_sha1_free
 462:C:/Users/dtjld/workspace/AIoT/src/LiteOS_Lab/iot_link/network/dtls/mbedtls/mbedtls-2.16.2/library\sha1.c **** 
 463:C:/Users/dtjld/workspace/AIoT/src/LiteOS_Lab/iot_link/network/dtls/mbedtls/mbedtls-2.16.2/library\sha1.c ****     return( ret );
 3785              		.loc 1 463 0
 3786 0062 FB6E     		ldr	r3, [r7, #108]
 464:C:/Users/dtjld/workspace/AIoT/src/LiteOS_Lab/iot_link/network/dtls/mbedtls/mbedtls-2.16.2/library\sha1.c **** }
 3787              		.loc 1 464 0
 3788 0064 1846     		mov	r0, r3
 3789 0066 7037     		adds	r7, r7, #112
 3790              	.LCFI60:
 3791              		.cfi_def_cfa_offset 8
 3792 0068 BD46     		mov	sp, r7
 3793              	.LCFI61:
 3794              		.cfi_def_cfa_register 13
 3795              		@ sp needed
 3796 006a 80BD     		pop	{r7, pc}
 3797              		.cfi_endproc
 3798              	.LFE14:
 3800              		.section	.text.mbedtls_sha1,"ax",%progbits
 3801              		.align	1
 3802              		.global	mbedtls_sha1
 3803              		.syntax unified
 3804              		.thumb
 3805              		.thumb_func
 3806              		.fpu fpv4-sp-d16
 3808              	mbedtls_sha1:
 3809              	.LFB15:
 465:C:/Users/dtjld/workspace/AIoT/src/LiteOS_Lab/iot_link/network/dtls/mbedtls/mbedtls-2.16.2/library\sha1.c **** 
 466:C:/Users/dtjld/workspace/AIoT/src/LiteOS_Lab/iot_link/network/dtls/mbedtls/mbedtls-2.16.2/library\sha1.c **** #if !defined(MBEDTLS_DEPRECATED_REMOVED)
 467:C:/Users/dtjld/workspace/AIoT/src/LiteOS_Lab/iot_link/network/dtls/mbedtls/mbedtls-2.16.2/library\sha1.c **** void mbedtls_sha1( const unsigned char *input,
 468:C:/Users/dtjld/workspace/AIoT/src/LiteOS_Lab/iot_link/network/dtls/mbedtls/mbedtls-2.16.2/library\sha1.c ****                    size_t ilen,
 469:C:/Users/dtjld/workspace/AIoT/src/LiteOS_Lab/iot_link/network/dtls/mbedtls/mbedtls-2.16.2/library\sha1.c ****                    unsigned char output[20] )
 470:C:/Users/dtjld/workspace/AIoT/src/LiteOS_Lab/iot_link/network/dtls/mbedtls/mbedtls-2.16.2/library\sha1.c **** {
 3810              		.loc 1 470 0
 3811              		.cfi_startproc
 3812              		@ args = 0, pretend = 0, frame = 16
 3813              		@ frame_needed = 1, uses_anonymous_args = 0
 3814 0000 80B5     		push	{r7, lr}
 3815              	.LCFI62:
 3816              		.cfi_def_cfa_offset 8
 3817              		.cfi_offset 7, -8
 3818              		.cfi_offset 14, -4
 3819 0002 84B0     		sub	sp, sp, #16
 3820              	.LCFI63:
 3821              		.cfi_def_cfa_offset 24
 3822 0004 00AF     		add	r7, sp, #0
 3823              	.LCFI64:
 3824              		.cfi_def_cfa_register 7
 3825 0006 F860     		str	r0, [r7, #12]
ARM GAS  C:\Users\dtjld\AppData\Local\Temp\ccQby7Tk.s 			page 76


 3826 0008 B960     		str	r1, [r7, #8]
 3827 000a 7A60     		str	r2, [r7, #4]
 471:C:/Users/dtjld/workspace/AIoT/src/LiteOS_Lab/iot_link/network/dtls/mbedtls/mbedtls-2.16.2/library\sha1.c ****     mbedtls_sha1_ret( input, ilen, output );
 3828              		.loc 1 471 0
 3829 000c 7A68     		ldr	r2, [r7, #4]
 3830 000e B968     		ldr	r1, [r7, #8]
 3831 0010 F868     		ldr	r0, [r7, #12]
 3832 0012 FFF7FEFF 		bl	mbedtls_sha1_ret
 472:C:/Users/dtjld/workspace/AIoT/src/LiteOS_Lab/iot_link/network/dtls/mbedtls/mbedtls-2.16.2/library\sha1.c **** }
 3833              		.loc 1 472 0
 3834 0016 00BF     		nop
 3835 0018 1037     		adds	r7, r7, #16
 3836              	.LCFI65:
 3837              		.cfi_def_cfa_offset 8
 3838 001a BD46     		mov	sp, r7
 3839              	.LCFI66:
 3840              		.cfi_def_cfa_register 13
 3841              		@ sp needed
 3842 001c 80BD     		pop	{r7, pc}
 3843              		.cfi_endproc
 3844              	.LFE15:
 3846              		.section	.rodata.sha1_test_buf,"a",%progbits
 3847              		.align	2
 3850              	sha1_test_buf:
 3851 0000 61626300 		.ascii	"abc\000"
 3852 0004 00000000 		.space	53
 3852      00000000 
 3852      00000000 
 3852      00000000 
 3852      00000000 
 3853 0039 61626364 		.ascii	"abcdbcdecdefdefgefghfghighijhijkijkljklmklmnlmnomno"
 3853      62636465 
 3853      63646566 
 3853      64656667 
 3853      65666768 
 3854 006c 706E6F70 		.ascii	"pnopq\000"
 3854      7100
 3855 0072 00       		.ascii	"\000"
 3856 0073 00000000 		.space	56
 3856      00000000 
 3856      00000000 
 3856      00000000 
 3856      00000000 
 3857              		.section	.rodata.sha1_test_buflen,"a",%progbits
 3858              		.align	2
 3861              	sha1_test_buflen:
 3862 0000 03000000 		.word	3
 3863 0004 38000000 		.word	56
 3864 0008 E8030000 		.word	1000
 3865              		.section	.rodata.sha1_test_sum,"a",%progbits
 3866              		.align	2
 3869              	sha1_test_sum:
 3870 0000 A9       		.byte	-87
 3871 0001 99       		.byte	-103
 3872 0002 3E       		.byte	62
 3873 0003 36       		.byte	54
 3874 0004 47       		.byte	71
ARM GAS  C:\Users\dtjld\AppData\Local\Temp\ccQby7Tk.s 			page 77


 3875 0005 06       		.byte	6
 3876 0006 81       		.byte	-127
 3877 0007 6A       		.byte	106
 3878 0008 BA       		.byte	-70
 3879 0009 3E       		.byte	62
 3880 000a 25       		.byte	37
 3881 000b 71       		.byte	113
 3882 000c 78       		.byte	120
 3883 000d 50       		.byte	80
 3884 000e C2       		.byte	-62
 3885 000f 6C       		.byte	108
 3886 0010 9C       		.byte	-100
 3887 0011 D0       		.byte	-48
 3888 0012 D8       		.byte	-40
 3889 0013 9D       		.byte	-99
 3890 0014 84       		.byte	-124
 3891 0015 98       		.byte	-104
 3892 0016 3E       		.byte	62
 3893 0017 44       		.byte	68
 3894 0018 1C       		.byte	28
 3895 0019 3B       		.byte	59
 3896 001a D2       		.byte	-46
 3897 001b 6E       		.byte	110
 3898 001c BA       		.byte	-70
 3899 001d AE       		.byte	-82
 3900 001e 4A       		.byte	74
 3901 001f A1       		.byte	-95
 3902 0020 F9       		.byte	-7
 3903 0021 51       		.byte	81
 3904 0022 29       		.byte	41
 3905 0023 E5       		.byte	-27
 3906 0024 E5       		.byte	-27
 3907 0025 46       		.byte	70
 3908 0026 70       		.byte	112
 3909 0027 F1       		.byte	-15
 3910 0028 34       		.byte	52
 3911 0029 AA       		.byte	-86
 3912 002a 97       		.byte	-105
 3913 002b 3C       		.byte	60
 3914 002c D4       		.byte	-44
 3915 002d C4       		.byte	-60
 3916 002e DA       		.byte	-38
 3917 002f A4       		.byte	-92
 3918 0030 F6       		.byte	-10
 3919 0031 1E       		.byte	30
 3920 0032 EB       		.byte	-21
 3921 0033 2B       		.byte	43
 3922 0034 DB       		.byte	-37
 3923 0035 AD       		.byte	-83
 3924 0036 27       		.byte	39
 3925 0037 31       		.byte	49
 3926 0038 65       		.byte	101
 3927 0039 34       		.byte	52
 3928 003a 01       		.byte	1
 3929 003b 6F       		.byte	111
 3930              		.section	.rodata
 3931              		.align	2
ARM GAS  C:\Users\dtjld\AppData\Local\Temp\ccQby7Tk.s 			page 78


 3932              	.LC0:
 3933 0000 20205348 		.ascii	"  SHA-1 test #%d: \000"
 3933      412D3120 
 3933      74657374 
 3933      20232564 
 3933      3A2000
 3934 0013 00       		.align	2
 3935              	.LC1:
 3936 0014 70617373 		.ascii	"passed\012\000"
 3936      65640A00 
 3937              		.align	2
 3938              	.LC2:
 3939 001c 0A00     		.ascii	"\012\000"
 3940 001e 0000     		.align	2
 3941              	.LC3:
 3942 0020 6661696C 		.ascii	"failed\012\000"
 3942      65640A00 
 3943              		.section	.text.mbedtls_sha1_self_test,"ax",%progbits
 3944              		.align	1
 3945              		.global	mbedtls_sha1_self_test
 3946              		.syntax unified
 3947              		.thumb
 3948              		.thumb_func
 3949              		.fpu fpv4-sp-d16
 3951              	mbedtls_sha1_self_test:
 3952              	.LFB16:
 473:C:/Users/dtjld/workspace/AIoT/src/LiteOS_Lab/iot_link/network/dtls/mbedtls/mbedtls-2.16.2/library\sha1.c **** #endif
 474:C:/Users/dtjld/workspace/AIoT/src/LiteOS_Lab/iot_link/network/dtls/mbedtls/mbedtls-2.16.2/library\sha1.c **** 
 475:C:/Users/dtjld/workspace/AIoT/src/LiteOS_Lab/iot_link/network/dtls/mbedtls/mbedtls-2.16.2/library\sha1.c **** #if defined(MBEDTLS_SELF_TEST)
 476:C:/Users/dtjld/workspace/AIoT/src/LiteOS_Lab/iot_link/network/dtls/mbedtls/mbedtls-2.16.2/library\sha1.c **** /*
 477:C:/Users/dtjld/workspace/AIoT/src/LiteOS_Lab/iot_link/network/dtls/mbedtls/mbedtls-2.16.2/library\sha1.c ****  * FIPS-180-1 test vectors
 478:C:/Users/dtjld/workspace/AIoT/src/LiteOS_Lab/iot_link/network/dtls/mbedtls/mbedtls-2.16.2/library\sha1.c ****  */
 479:C:/Users/dtjld/workspace/AIoT/src/LiteOS_Lab/iot_link/network/dtls/mbedtls/mbedtls-2.16.2/library\sha1.c **** static const unsigned char sha1_test_buf[3][57] =
 480:C:/Users/dtjld/workspace/AIoT/src/LiteOS_Lab/iot_link/network/dtls/mbedtls/mbedtls-2.16.2/library\sha1.c **** {
 481:C:/Users/dtjld/workspace/AIoT/src/LiteOS_Lab/iot_link/network/dtls/mbedtls/mbedtls-2.16.2/library\sha1.c ****     { "abc" },
 482:C:/Users/dtjld/workspace/AIoT/src/LiteOS_Lab/iot_link/network/dtls/mbedtls/mbedtls-2.16.2/library\sha1.c ****     { "abcdbcdecdefdefgefghfghighijhijkijkljklmklmnlmnomnopnopq" },
 483:C:/Users/dtjld/workspace/AIoT/src/LiteOS_Lab/iot_link/network/dtls/mbedtls/mbedtls-2.16.2/library\sha1.c ****     { "" }
 484:C:/Users/dtjld/workspace/AIoT/src/LiteOS_Lab/iot_link/network/dtls/mbedtls/mbedtls-2.16.2/library\sha1.c **** };
 485:C:/Users/dtjld/workspace/AIoT/src/LiteOS_Lab/iot_link/network/dtls/mbedtls/mbedtls-2.16.2/library\sha1.c **** 
 486:C:/Users/dtjld/workspace/AIoT/src/LiteOS_Lab/iot_link/network/dtls/mbedtls/mbedtls-2.16.2/library\sha1.c **** static const size_t sha1_test_buflen[3] =
 487:C:/Users/dtjld/workspace/AIoT/src/LiteOS_Lab/iot_link/network/dtls/mbedtls/mbedtls-2.16.2/library\sha1.c **** {
 488:C:/Users/dtjld/workspace/AIoT/src/LiteOS_Lab/iot_link/network/dtls/mbedtls/mbedtls-2.16.2/library\sha1.c ****     3, 56, 1000
 489:C:/Users/dtjld/workspace/AIoT/src/LiteOS_Lab/iot_link/network/dtls/mbedtls/mbedtls-2.16.2/library\sha1.c **** };
 490:C:/Users/dtjld/workspace/AIoT/src/LiteOS_Lab/iot_link/network/dtls/mbedtls/mbedtls-2.16.2/library\sha1.c **** 
 491:C:/Users/dtjld/workspace/AIoT/src/LiteOS_Lab/iot_link/network/dtls/mbedtls/mbedtls-2.16.2/library\sha1.c **** static const unsigned char sha1_test_sum[3][20] =
 492:C:/Users/dtjld/workspace/AIoT/src/LiteOS_Lab/iot_link/network/dtls/mbedtls/mbedtls-2.16.2/library\sha1.c **** {
 493:C:/Users/dtjld/workspace/AIoT/src/LiteOS_Lab/iot_link/network/dtls/mbedtls/mbedtls-2.16.2/library\sha1.c ****     { 0xA9, 0x99, 0x3E, 0x36, 0x47, 0x06, 0x81, 0x6A, 0xBA, 0x3E,
 494:C:/Users/dtjld/workspace/AIoT/src/LiteOS_Lab/iot_link/network/dtls/mbedtls/mbedtls-2.16.2/library\sha1.c ****       0x25, 0x71, 0x78, 0x50, 0xC2, 0x6C, 0x9C, 0xD0, 0xD8, 0x9D },
 495:C:/Users/dtjld/workspace/AIoT/src/LiteOS_Lab/iot_link/network/dtls/mbedtls/mbedtls-2.16.2/library\sha1.c ****     { 0x84, 0x98, 0x3E, 0x44, 0x1C, 0x3B, 0xD2, 0x6E, 0xBA, 0xAE,
 496:C:/Users/dtjld/workspace/AIoT/src/LiteOS_Lab/iot_link/network/dtls/mbedtls/mbedtls-2.16.2/library\sha1.c ****       0x4A, 0xA1, 0xF9, 0x51, 0x29, 0xE5, 0xE5, 0x46, 0x70, 0xF1 },
 497:C:/Users/dtjld/workspace/AIoT/src/LiteOS_Lab/iot_link/network/dtls/mbedtls/mbedtls-2.16.2/library\sha1.c ****     { 0x34, 0xAA, 0x97, 0x3C, 0xD4, 0xC4, 0xDA, 0xA4, 0xF6, 0x1E,
 498:C:/Users/dtjld/workspace/AIoT/src/LiteOS_Lab/iot_link/network/dtls/mbedtls/mbedtls-2.16.2/library\sha1.c ****       0xEB, 0x2B, 0xDB, 0xAD, 0x27, 0x31, 0x65, 0x34, 0x01, 0x6F }
 499:C:/Users/dtjld/workspace/AIoT/src/LiteOS_Lab/iot_link/network/dtls/mbedtls/mbedtls-2.16.2/library\sha1.c **** };
 500:C:/Users/dtjld/workspace/AIoT/src/LiteOS_Lab/iot_link/network/dtls/mbedtls/mbedtls-2.16.2/library\sha1.c **** 
 501:C:/Users/dtjld/workspace/AIoT/src/LiteOS_Lab/iot_link/network/dtls/mbedtls/mbedtls-2.16.2/library\sha1.c **** /*
 502:C:/Users/dtjld/workspace/AIoT/src/LiteOS_Lab/iot_link/network/dtls/mbedtls/mbedtls-2.16.2/library\sha1.c ****  * Checkup routine
 503:C:/Users/dtjld/workspace/AIoT/src/LiteOS_Lab/iot_link/network/dtls/mbedtls/mbedtls-2.16.2/library\sha1.c ****  */
ARM GAS  C:\Users\dtjld\AppData\Local\Temp\ccQby7Tk.s 			page 79


 504:C:/Users/dtjld/workspace/AIoT/src/LiteOS_Lab/iot_link/network/dtls/mbedtls/mbedtls-2.16.2/library\sha1.c **** int mbedtls_sha1_self_test( int verbose )
 505:C:/Users/dtjld/workspace/AIoT/src/LiteOS_Lab/iot_link/network/dtls/mbedtls/mbedtls-2.16.2/library\sha1.c **** {
 3953              		.loc 1 505 0
 3954              		.cfi_startproc
 3955              		@ args = 0, pretend = 0, frame = 1160
 3956              		@ frame_needed = 1, uses_anonymous_args = 0
 3957 0000 80B5     		push	{r7, lr}
 3958              	.LCFI67:
 3959              		.cfi_def_cfa_offset 8
 3960              		.cfi_offset 7, -8
 3961              		.cfi_offset 14, -4
 3962 0002 ADF5916D 		sub	sp, sp, #1160
 3963              	.LCFI68:
 3964              		.cfi_def_cfa_offset 1168
 3965 0006 00AF     		add	r7, sp, #0
 3966              	.LCFI69:
 3967              		.cfi_def_cfa_register 7
 3968 0008 3B1D     		adds	r3, r7, #4
 3969 000a 1860     		str	r0, [r3]
 506:C:/Users/dtjld/workspace/AIoT/src/LiteOS_Lab/iot_link/network/dtls/mbedtls/mbedtls-2.16.2/library\sha1.c ****     int i, j, buflen, ret = 0;
 3970              		.loc 1 506 0
 3971 000c 0023     		movs	r3, #0
 3972 000e C7F87C34 		str	r3, [r7, #1148]
 507:C:/Users/dtjld/workspace/AIoT/src/LiteOS_Lab/iot_link/network/dtls/mbedtls/mbedtls-2.16.2/library\sha1.c ****     unsigned char buf[1024];
 508:C:/Users/dtjld/workspace/AIoT/src/LiteOS_Lab/iot_link/network/dtls/mbedtls/mbedtls-2.16.2/library\sha1.c ****     unsigned char sha1sum[20];
 509:C:/Users/dtjld/workspace/AIoT/src/LiteOS_Lab/iot_link/network/dtls/mbedtls/mbedtls-2.16.2/library\sha1.c ****     mbedtls_sha1_context ctx;
 510:C:/Users/dtjld/workspace/AIoT/src/LiteOS_Lab/iot_link/network/dtls/mbedtls/mbedtls-2.16.2/library\sha1.c **** 
 511:C:/Users/dtjld/workspace/AIoT/src/LiteOS_Lab/iot_link/network/dtls/mbedtls/mbedtls-2.16.2/library\sha1.c ****     mbedtls_sha1_init( &ctx );
 3973              		.loc 1 511 0
 3974 0012 07F10803 		add	r3, r7, #8
 3975 0016 1846     		mov	r0, r3
 3976 0018 FFF7FEFF 		bl	mbedtls_sha1_init
 512:C:/Users/dtjld/workspace/AIoT/src/LiteOS_Lab/iot_link/network/dtls/mbedtls/mbedtls-2.16.2/library\sha1.c **** 
 513:C:/Users/dtjld/workspace/AIoT/src/LiteOS_Lab/iot_link/network/dtls/mbedtls/mbedtls-2.16.2/library\sha1.c ****     /*
 514:C:/Users/dtjld/workspace/AIoT/src/LiteOS_Lab/iot_link/network/dtls/mbedtls/mbedtls-2.16.2/library\sha1.c ****      * SHA-1
 515:C:/Users/dtjld/workspace/AIoT/src/LiteOS_Lab/iot_link/network/dtls/mbedtls/mbedtls-2.16.2/library\sha1.c ****      */
 516:C:/Users/dtjld/workspace/AIoT/src/LiteOS_Lab/iot_link/network/dtls/mbedtls/mbedtls-2.16.2/library\sha1.c ****     for( i = 0; i < 3; i++ )
 3977              		.loc 1 516 0
 3978 001c 0023     		movs	r3, #0
 3979 001e C7F88434 		str	r3, [r7, #1156]
 3980 0022 8EE0     		b	.L63
 3981              	.L75:
 517:C:/Users/dtjld/workspace/AIoT/src/LiteOS_Lab/iot_link/network/dtls/mbedtls/mbedtls-2.16.2/library\sha1.c ****     {
 518:C:/Users/dtjld/workspace/AIoT/src/LiteOS_Lab/iot_link/network/dtls/mbedtls/mbedtls-2.16.2/library\sha1.c ****         if( verbose != 0 )
 3982              		.loc 1 518 0
 3983 0024 3B1D     		adds	r3, r7, #4
 3984 0026 1B68     		ldr	r3, [r3]
 3985 0028 002B     		cmp	r3, #0
 3986 002a 07D0     		beq	.L64
 519:C:/Users/dtjld/workspace/AIoT/src/LiteOS_Lab/iot_link/network/dtls/mbedtls/mbedtls-2.16.2/library\sha1.c ****             mbedtls_printf( "  SHA-1 test #%d: ", i + 1 );
 3987              		.loc 1 519 0
 3988 002c 5B4B     		ldr	r3, .L85
 3989 002e 1B68     		ldr	r3, [r3]
 3990 0030 D7F88424 		ldr	r2, [r7, #1156]
 3991 0034 0132     		adds	r2, r2, #1
 3992 0036 1146     		mov	r1, r2
 3993 0038 5948     		ldr	r0, .L85+4
ARM GAS  C:\Users\dtjld\AppData\Local\Temp\ccQby7Tk.s 			page 80


 3994 003a 9847     		blx	r3
 3995              	.LVL0:
 3996              	.L64:
 520:C:/Users/dtjld/workspace/AIoT/src/LiteOS_Lab/iot_link/network/dtls/mbedtls/mbedtls-2.16.2/library\sha1.c **** 
 521:C:/Users/dtjld/workspace/AIoT/src/LiteOS_Lab/iot_link/network/dtls/mbedtls/mbedtls-2.16.2/library\sha1.c ****         if( ( ret = mbedtls_sha1_starts_ret( &ctx ) ) != 0 )
 3997              		.loc 1 521 0
 3998 003c 07F10803 		add	r3, r7, #8
 3999 0040 1846     		mov	r0, r3
 4000 0042 FFF7FEFF 		bl	mbedtls_sha1_starts_ret
 4001 0046 C7F87C04 		str	r0, [r7, #1148]
 4002 004a D7F87C34 		ldr	r3, [r7, #1148]
 4003 004e 002B     		cmp	r3, #0
 4004 0050 40F08580 		bne	.L79
 522:C:/Users/dtjld/workspace/AIoT/src/LiteOS_Lab/iot_link/network/dtls/mbedtls/mbedtls-2.16.2/library\sha1.c ****             goto fail;
 523:C:/Users/dtjld/workspace/AIoT/src/LiteOS_Lab/iot_link/network/dtls/mbedtls/mbedtls-2.16.2/library\sha1.c **** 
 524:C:/Users/dtjld/workspace/AIoT/src/LiteOS_Lab/iot_link/network/dtls/mbedtls/mbedtls-2.16.2/library\sha1.c ****         if( i == 2 )
 4005              		.loc 1 524 0
 4006 0054 D7F88434 		ldr	r3, [r7, #1156]
 4007 0058 022B     		cmp	r3, #2
 4008 005a 29D1     		bne	.L67
 525:C:/Users/dtjld/workspace/AIoT/src/LiteOS_Lab/iot_link/network/dtls/mbedtls/mbedtls-2.16.2/library\sha1.c ****         {
 526:C:/Users/dtjld/workspace/AIoT/src/LiteOS_Lab/iot_link/network/dtls/mbedtls/mbedtls-2.16.2/library\sha1.c ****             memset( buf, 'a', buflen = 1000 );
 4009              		.loc 1 526 0
 4010 005c 4FF47A73 		mov	r3, #1000
 4011 0060 C7F87834 		str	r3, [r7, #1144]
 4012 0064 07F17803 		add	r3, r7, #120
 4013 0068 4FF47A72 		mov	r2, #1000
 4014 006c 6121     		movs	r1, #97
 4015 006e 1846     		mov	r0, r3
 4016 0070 FFF7FEFF 		bl	memset
 527:C:/Users/dtjld/workspace/AIoT/src/LiteOS_Lab/iot_link/network/dtls/mbedtls/mbedtls-2.16.2/library\sha1.c **** 
 528:C:/Users/dtjld/workspace/AIoT/src/LiteOS_Lab/iot_link/network/dtls/mbedtls/mbedtls-2.16.2/library\sha1.c ****             for( j = 0; j < 1000; j++ )
 4017              		.loc 1 528 0
 4018 0074 0023     		movs	r3, #0
 4019 0076 C7F88034 		str	r3, [r7, #1152]
 4020 007a 13E0     		b	.L68
 4021              	.L70:
 529:C:/Users/dtjld/workspace/AIoT/src/LiteOS_Lab/iot_link/network/dtls/mbedtls/mbedtls-2.16.2/library\sha1.c ****             {
 530:C:/Users/dtjld/workspace/AIoT/src/LiteOS_Lab/iot_link/network/dtls/mbedtls/mbedtls-2.16.2/library\sha1.c ****                 ret = mbedtls_sha1_update_ret( &ctx, buf, buflen );
 4022              		.loc 1 530 0
 4023 007c D7F87824 		ldr	r2, [r7, #1144]
 4024 0080 07F17801 		add	r1, r7, #120
 4025 0084 07F10803 		add	r3, r7, #8
 4026 0088 1846     		mov	r0, r3
 4027 008a FFF7FEFF 		bl	mbedtls_sha1_update_ret
 4028 008e C7F87C04 		str	r0, [r7, #1148]
 531:C:/Users/dtjld/workspace/AIoT/src/LiteOS_Lab/iot_link/network/dtls/mbedtls/mbedtls-2.16.2/library\sha1.c ****                 if( ret != 0 )
 4029              		.loc 1 531 0
 4030 0092 D7F87C34 		ldr	r3, [r7, #1148]
 4031 0096 002B     		cmp	r3, #0
 4032 0098 63D1     		bne	.L80
 528:C:/Users/dtjld/workspace/AIoT/src/LiteOS_Lab/iot_link/network/dtls/mbedtls/mbedtls-2.16.2/library\sha1.c ****             {
 4033              		.loc 1 528 0 discriminator 2
 4034 009a D7F88034 		ldr	r3, [r7, #1152]
 4035 009e 0133     		adds	r3, r3, #1
 4036 00a0 C7F88034 		str	r3, [r7, #1152]
 4037              	.L68:
ARM GAS  C:\Users\dtjld\AppData\Local\Temp\ccQby7Tk.s 			page 81


 528:C:/Users/dtjld/workspace/AIoT/src/LiteOS_Lab/iot_link/network/dtls/mbedtls/mbedtls-2.16.2/library\sha1.c ****             {
 4038              		.loc 1 528 0 is_stmt 0 discriminator 1
 4039 00a4 D7F88034 		ldr	r3, [r7, #1152]
 4040 00a8 B3F57A7F 		cmp	r3, #1000
 4041 00ac E6DB     		blt	.L70
 4042 00ae 18E0     		b	.L71
 4043              	.L67:
 532:C:/Users/dtjld/workspace/AIoT/src/LiteOS_Lab/iot_link/network/dtls/mbedtls/mbedtls-2.16.2/library\sha1.c ****                     goto fail;
 533:C:/Users/dtjld/workspace/AIoT/src/LiteOS_Lab/iot_link/network/dtls/mbedtls/mbedtls-2.16.2/library\sha1.c ****             }
 534:C:/Users/dtjld/workspace/AIoT/src/LiteOS_Lab/iot_link/network/dtls/mbedtls/mbedtls-2.16.2/library\sha1.c ****         }
 535:C:/Users/dtjld/workspace/AIoT/src/LiteOS_Lab/iot_link/network/dtls/mbedtls/mbedtls-2.16.2/library\sha1.c ****         else
 536:C:/Users/dtjld/workspace/AIoT/src/LiteOS_Lab/iot_link/network/dtls/mbedtls/mbedtls-2.16.2/library\sha1.c ****         {
 537:C:/Users/dtjld/workspace/AIoT/src/LiteOS_Lab/iot_link/network/dtls/mbedtls/mbedtls-2.16.2/library\sha1.c ****             ret = mbedtls_sha1_update_ret( &ctx, sha1_test_buf[i],
 4044              		.loc 1 537 0 is_stmt 1
 4045 00b0 D7F88424 		ldr	r2, [r7, #1156]
 4046 00b4 1346     		mov	r3, r2
 4047 00b6 DB00     		lsls	r3, r3, #3
 4048 00b8 9B1A     		subs	r3, r3, r2
 4049 00ba DB00     		lsls	r3, r3, #3
 4050 00bc 1344     		add	r3, r3, r2
 4051 00be 394A     		ldr	r2, .L85+8
 4052 00c0 9918     		adds	r1, r3, r2
 4053 00c2 394A     		ldr	r2, .L85+12
 4054 00c4 D7F88434 		ldr	r3, [r7, #1156]
 4055 00c8 52F82320 		ldr	r2, [r2, r3, lsl #2]
 4056 00cc 07F10803 		add	r3, r7, #8
 4057 00d0 1846     		mov	r0, r3
 4058 00d2 FFF7FEFF 		bl	mbedtls_sha1_update_ret
 4059 00d6 C7F87C04 		str	r0, [r7, #1148]
 538:C:/Users/dtjld/workspace/AIoT/src/LiteOS_Lab/iot_link/network/dtls/mbedtls/mbedtls-2.16.2/library\sha1.c ****                                            sha1_test_buflen[i] );
 539:C:/Users/dtjld/workspace/AIoT/src/LiteOS_Lab/iot_link/network/dtls/mbedtls/mbedtls-2.16.2/library\sha1.c ****             if( ret != 0 )
 4060              		.loc 1 539 0
 4061 00da D7F87C34 		ldr	r3, [r7, #1148]
 4062 00de 002B     		cmp	r3, #0
 4063 00e0 41D1     		bne	.L81
 4064              	.L71:
 540:C:/Users/dtjld/workspace/AIoT/src/LiteOS_Lab/iot_link/network/dtls/mbedtls/mbedtls-2.16.2/library\sha1.c ****                 goto fail;
 541:C:/Users/dtjld/workspace/AIoT/src/LiteOS_Lab/iot_link/network/dtls/mbedtls/mbedtls-2.16.2/library\sha1.c ****         }
 542:C:/Users/dtjld/workspace/AIoT/src/LiteOS_Lab/iot_link/network/dtls/mbedtls/mbedtls-2.16.2/library\sha1.c **** 
 543:C:/Users/dtjld/workspace/AIoT/src/LiteOS_Lab/iot_link/network/dtls/mbedtls/mbedtls-2.16.2/library\sha1.c ****         if( ( ret = mbedtls_sha1_finish_ret( &ctx, sha1sum ) ) != 0 )
 4065              		.loc 1 543 0
 4066 00e2 07F16402 		add	r2, r7, #100
 4067 00e6 07F10803 		add	r3, r7, #8
 4068 00ea 1146     		mov	r1, r2
 4069 00ec 1846     		mov	r0, r3
 4070 00ee FFF7FEFF 		bl	mbedtls_sha1_finish_ret
 4071 00f2 C7F87C04 		str	r0, [r7, #1148]
 4072 00f6 D7F87C34 		ldr	r3, [r7, #1148]
 4073 00fa 002B     		cmp	r3, #0
 4074 00fc 35D1     		bne	.L82
 544:C:/Users/dtjld/workspace/AIoT/src/LiteOS_Lab/iot_link/network/dtls/mbedtls/mbedtls-2.16.2/library\sha1.c ****             goto fail;
 545:C:/Users/dtjld/workspace/AIoT/src/LiteOS_Lab/iot_link/network/dtls/mbedtls/mbedtls-2.16.2/library\sha1.c **** 
 546:C:/Users/dtjld/workspace/AIoT/src/LiteOS_Lab/iot_link/network/dtls/mbedtls/mbedtls-2.16.2/library\sha1.c ****         if( memcmp( sha1sum, sha1_test_sum[i], 20 ) != 0 )
 4075              		.loc 1 546 0
 4076 00fe D7F88424 		ldr	r2, [r7, #1156]
 4077 0102 1346     		mov	r3, r2
 4078 0104 9B00     		lsls	r3, r3, #2
ARM GAS  C:\Users\dtjld\AppData\Local\Temp\ccQby7Tk.s 			page 82


 4079 0106 1344     		add	r3, r3, r2
 4080 0108 9B00     		lsls	r3, r3, #2
 4081 010a 284A     		ldr	r2, .L85+16
 4082 010c 9918     		adds	r1, r3, r2
 4083 010e 07F16403 		add	r3, r7, #100
 4084 0112 1422     		movs	r2, #20
 4085 0114 1846     		mov	r0, r3
 4086 0116 FFF7FEFF 		bl	memcmp
 4087 011a 0346     		mov	r3, r0
 4088 011c 002B     		cmp	r3, #0
 4089 011e 03D0     		beq	.L73
 547:C:/Users/dtjld/workspace/AIoT/src/LiteOS_Lab/iot_link/network/dtls/mbedtls/mbedtls-2.16.2/library\sha1.c ****         {
 548:C:/Users/dtjld/workspace/AIoT/src/LiteOS_Lab/iot_link/network/dtls/mbedtls/mbedtls-2.16.2/library\sha1.c ****             ret = 1;
 4090              		.loc 1 548 0
 4091 0120 0123     		movs	r3, #1
 4092 0122 C7F87C34 		str	r3, [r7, #1148]
 549:C:/Users/dtjld/workspace/AIoT/src/LiteOS_Lab/iot_link/network/dtls/mbedtls/mbedtls-2.16.2/library\sha1.c ****             goto fail;
 4093              		.loc 1 549 0
 4094 0126 21E0     		b	.L66
 4095              	.L73:
 550:C:/Users/dtjld/workspace/AIoT/src/LiteOS_Lab/iot_link/network/dtls/mbedtls/mbedtls-2.16.2/library\sha1.c ****         }
 551:C:/Users/dtjld/workspace/AIoT/src/LiteOS_Lab/iot_link/network/dtls/mbedtls/mbedtls-2.16.2/library\sha1.c **** 
 552:C:/Users/dtjld/workspace/AIoT/src/LiteOS_Lab/iot_link/network/dtls/mbedtls/mbedtls-2.16.2/library\sha1.c ****         if( verbose != 0 )
 4096              		.loc 1 552 0
 4097 0128 3B1D     		adds	r3, r7, #4
 4098 012a 1B68     		ldr	r3, [r3]
 4099 012c 002B     		cmp	r3, #0
 4100 012e 03D0     		beq	.L74
 553:C:/Users/dtjld/workspace/AIoT/src/LiteOS_Lab/iot_link/network/dtls/mbedtls/mbedtls-2.16.2/library\sha1.c ****             mbedtls_printf( "passed\n" );
 4101              		.loc 1 553 0
 4102 0130 1A4B     		ldr	r3, .L85
 4103 0132 1B68     		ldr	r3, [r3]
 4104 0134 1E48     		ldr	r0, .L85+20
 4105 0136 9847     		blx	r3
 4106              	.LVL1:
 4107              	.L74:
 516:C:/Users/dtjld/workspace/AIoT/src/LiteOS_Lab/iot_link/network/dtls/mbedtls/mbedtls-2.16.2/library\sha1.c ****     {
 4108              		.loc 1 516 0 discriminator 2
 4109 0138 D7F88434 		ldr	r3, [r7, #1156]
 4110 013c 0133     		adds	r3, r3, #1
 4111 013e C7F88434 		str	r3, [r7, #1156]
 4112              	.L63:
 516:C:/Users/dtjld/workspace/AIoT/src/LiteOS_Lab/iot_link/network/dtls/mbedtls/mbedtls-2.16.2/library\sha1.c ****     {
 4113              		.loc 1 516 0 is_stmt 0 discriminator 1
 4114 0142 D7F88434 		ldr	r3, [r7, #1156]
 4115 0146 022B     		cmp	r3, #2
 4116 0148 7FF76CAF 		ble	.L75
 554:C:/Users/dtjld/workspace/AIoT/src/LiteOS_Lab/iot_link/network/dtls/mbedtls/mbedtls-2.16.2/library\sha1.c ****     }
 555:C:/Users/dtjld/workspace/AIoT/src/LiteOS_Lab/iot_link/network/dtls/mbedtls/mbedtls-2.16.2/library\sha1.c **** 
 556:C:/Users/dtjld/workspace/AIoT/src/LiteOS_Lab/iot_link/network/dtls/mbedtls/mbedtls-2.16.2/library\sha1.c ****     if( verbose != 0 )
 4117              		.loc 1 556 0 is_stmt 1
 4118 014c 3B1D     		adds	r3, r7, #4
 4119 014e 1B68     		ldr	r3, [r3]
 4120 0150 002B     		cmp	r3, #0
 4121 0152 14D0     		beq	.L83
 557:C:/Users/dtjld/workspace/AIoT/src/LiteOS_Lab/iot_link/network/dtls/mbedtls/mbedtls-2.16.2/library\sha1.c ****         mbedtls_printf( "\n" );
 4122              		.loc 1 557 0
ARM GAS  C:\Users\dtjld\AppData\Local\Temp\ccQby7Tk.s 			page 83


 4123 0154 114B     		ldr	r3, .L85
 4124 0156 1B68     		ldr	r3, [r3]
 4125 0158 1648     		ldr	r0, .L85+24
 4126 015a 9847     		blx	r3
 4127              	.LVL2:
 558:C:/Users/dtjld/workspace/AIoT/src/LiteOS_Lab/iot_link/network/dtls/mbedtls/mbedtls-2.16.2/library\sha1.c **** 
 559:C:/Users/dtjld/workspace/AIoT/src/LiteOS_Lab/iot_link/network/dtls/mbedtls/mbedtls-2.16.2/library\sha1.c ****     goto exit;
 4128              		.loc 1 559 0
 4129 015c 0FE0     		b	.L83
 4130              	.L79:
 522:C:/Users/dtjld/workspace/AIoT/src/LiteOS_Lab/iot_link/network/dtls/mbedtls/mbedtls-2.16.2/library\sha1.c **** 
 4131              		.loc 1 522 0
 4132 015e 00BF     		nop
 4133 0160 04E0     		b	.L66
 4134              	.L80:
 532:C:/Users/dtjld/workspace/AIoT/src/LiteOS_Lab/iot_link/network/dtls/mbedtls/mbedtls-2.16.2/library\sha1.c ****             }
 4135              		.loc 1 532 0
 4136 0162 00BF     		nop
 4137 0164 02E0     		b	.L66
 4138              	.L81:
 540:C:/Users/dtjld/workspace/AIoT/src/LiteOS_Lab/iot_link/network/dtls/mbedtls/mbedtls-2.16.2/library\sha1.c ****         }
 4139              		.loc 1 540 0
 4140 0166 00BF     		nop
 4141 0168 00E0     		b	.L66
 4142              	.L82:
 544:C:/Users/dtjld/workspace/AIoT/src/LiteOS_Lab/iot_link/network/dtls/mbedtls/mbedtls-2.16.2/library\sha1.c **** 
 4143              		.loc 1 544 0
 4144 016a 00BF     		nop
 4145              	.L66:
 560:C:/Users/dtjld/workspace/AIoT/src/LiteOS_Lab/iot_link/network/dtls/mbedtls/mbedtls-2.16.2/library\sha1.c **** 
 561:C:/Users/dtjld/workspace/AIoT/src/LiteOS_Lab/iot_link/network/dtls/mbedtls/mbedtls-2.16.2/library\sha1.c **** fail:
 562:C:/Users/dtjld/workspace/AIoT/src/LiteOS_Lab/iot_link/network/dtls/mbedtls/mbedtls-2.16.2/library\sha1.c ****     if( verbose != 0 )
 4146              		.loc 1 562 0
 4147 016c 3B1D     		adds	r3, r7, #4
 4148 016e 1B68     		ldr	r3, [r3]
 4149 0170 002B     		cmp	r3, #0
 4150 0172 06D0     		beq	.L84
 563:C:/Users/dtjld/workspace/AIoT/src/LiteOS_Lab/iot_link/network/dtls/mbedtls/mbedtls-2.16.2/library\sha1.c ****         mbedtls_printf( "failed\n" );
 4151              		.loc 1 563 0
 4152 0174 094B     		ldr	r3, .L85
 4153 0176 1B68     		ldr	r3, [r3]
 4154 0178 0F48     		ldr	r0, .L85+28
 4155 017a 9847     		blx	r3
 4156              	.LVL3:
 4157 017c 02E0     		b	.L77
 4158              	.L83:
 559:C:/Users/dtjld/workspace/AIoT/src/LiteOS_Lab/iot_link/network/dtls/mbedtls/mbedtls-2.16.2/library\sha1.c **** 
 4159              		.loc 1 559 0
 4160 017e 00BF     		nop
 4161 0180 00E0     		b	.L77
 4162              	.L84:
 564:C:/Users/dtjld/workspace/AIoT/src/LiteOS_Lab/iot_link/network/dtls/mbedtls/mbedtls-2.16.2/library\sha1.c **** 
 565:C:/Users/dtjld/workspace/AIoT/src/LiteOS_Lab/iot_link/network/dtls/mbedtls/mbedtls-2.16.2/library\sha1.c **** exit:
 4163              		.loc 1 565 0
 4164 0182 00BF     		nop
 4165              	.L77:
 566:C:/Users/dtjld/workspace/AIoT/src/LiteOS_Lab/iot_link/network/dtls/mbedtls/mbedtls-2.16.2/library\sha1.c ****     mbedtls_sha1_free( &ctx );
ARM GAS  C:\Users\dtjld\AppData\Local\Temp\ccQby7Tk.s 			page 84


 4166              		.loc 1 566 0
 4167 0184 07F10803 		add	r3, r7, #8
 4168 0188 1846     		mov	r0, r3
 4169 018a FFF7FEFF 		bl	mbedtls_sha1_free
 567:C:/Users/dtjld/workspace/AIoT/src/LiteOS_Lab/iot_link/network/dtls/mbedtls/mbedtls-2.16.2/library\sha1.c **** 
 568:C:/Users/dtjld/workspace/AIoT/src/LiteOS_Lab/iot_link/network/dtls/mbedtls/mbedtls-2.16.2/library\sha1.c ****     return( ret );
 4170              		.loc 1 568 0
 4171 018e D7F87C34 		ldr	r3, [r7, #1148]
 569:C:/Users/dtjld/workspace/AIoT/src/LiteOS_Lab/iot_link/network/dtls/mbedtls/mbedtls-2.16.2/library\sha1.c **** }
 4172              		.loc 1 569 0
 4173 0192 1846     		mov	r0, r3
 4174 0194 07F59167 		add	r7, r7, #1160
 4175              	.LCFI70:
 4176              		.cfi_def_cfa_offset 8
 4177 0198 BD46     		mov	sp, r7
 4178              	.LCFI71:
 4179              		.cfi_def_cfa_register 13
 4180              		@ sp needed
 4181 019a 80BD     		pop	{r7, pc}
 4182              	.L86:
 4183              		.align	2
 4184              	.L85:
 4185 019c 00000000 		.word	mbedtls_printf
 4186 01a0 00000000 		.word	.LC0
 4187 01a4 00000000 		.word	sha1_test_buf
 4188 01a8 00000000 		.word	sha1_test_buflen
 4189 01ac 00000000 		.word	sha1_test_sum
 4190 01b0 14000000 		.word	.LC1
 4191 01b4 1C000000 		.word	.LC2
 4192 01b8 20000000 		.word	.LC3
 4193              		.cfi_endproc
 4194              	.LFE16:
 4196              		.text
 4197              	.Letext0:
 4198              		.file 2 "c:\\ac6\\systemworkbench\\plugins\\fr.ac6.mcu.externaltools.arm-none.win32_1.16.0.2018071
 4199              		.file 3 "c:\\ac6\\systemworkbench\\plugins\\fr.ac6.mcu.externaltools.arm-none.win32_1.16.0.2018071
 4200              		.file 4 "c:\\ac6\\systemworkbench\\plugins\\fr.ac6.mcu.externaltools.arm-none.win32_1.16.0.2018071
 4201              		.file 5 "C:/Users/dtjld/workspace/AIoT/src/LiteOS_Lab/iot_link/network/dtls/mbedtls/mbedtls-2.16.2
 4202              		.file 6 "c:\\ac6\\systemworkbench\\plugins\\fr.ac6.mcu.externaltools.arm-none.win32_1.16.0.2018071
 4203              		.file 7 "c:\\ac6\\systemworkbench\\plugins\\fr.ac6.mcu.externaltools.arm-none.win32_1.16.0.2018071
 4204              		.file 8 "c:\\ac6\\systemworkbench\\plugins\\fr.ac6.mcu.externaltools.arm-none.win32_1.16.0.2018071
 4205              		.file 9 "c:\\ac6\\systemworkbench\\plugins\\fr.ac6.mcu.externaltools.arm-none.win32_1.16.0.2018071
 4206              		.file 10 "c:\\ac6\\systemworkbench\\plugins\\fr.ac6.mcu.externaltools.arm-none.win32_1.16.0.201807
 4207              		.file 11 "C:/Users/dtjld/workspace/AIoT/src/LiteOS_Lab/iot_link/network/dtls/mbedtls/mbedtls-2.16.
ARM GAS  C:\Users\dtjld\AppData\Local\Temp\ccQby7Tk.s 			page 85

