ARM GAS  C:\Users\dtjld\AppData\Local\Temp\cczibexU.s 			page 1


   1              		.cpu cortex-m4
   2              		.eabi_attribute 27, 1
   3              		.eabi_attribute 28, 1
   4              		.eabi_attribute 20, 1
   5              		.eabi_attribute 21, 1
   6              		.eabi_attribute 23, 3
   7              		.eabi_attribute 24, 1
   8              		.eabi_attribute 25, 1
   9              		.eabi_attribute 26, 1
  10              		.eabi_attribute 30, 6
  11              		.eabi_attribute 34, 1
  12              		.eabi_attribute 18, 4
  13              		.file	"sha512.c"
  14              		.text
  15              	.Ltext0:
  16              		.cfi_sections	.debug_frame
  17              		.section	.text.mbedtls_sha512_init,"ax",%progbits
  18              		.align	1
  19              		.global	mbedtls_sha512_init
  20              		.syntax unified
  21              		.thumb
  22              		.thumb_func
  23              		.fpu fpv4-sp-d16
  25              	mbedtls_sha512_init:
  26              	.LFB3:
  27              		.file 1 "C:/Users/dtjld/workspace/AIoT/src/LiteOS_Lab/iot_link/network/dtls/mbedtls/mbedtls-2.16.2
   1:C:/Users/dtjld/workspace/AIoT/src/LiteOS_Lab/iot_link/network/dtls/mbedtls/mbedtls-2.16.2/library\sha512.c **** /*
   2:C:/Users/dtjld/workspace/AIoT/src/LiteOS_Lab/iot_link/network/dtls/mbedtls/mbedtls-2.16.2/library\sha512.c ****  *  FIPS-180-2 compliant SHA-384/512 implementation
   3:C:/Users/dtjld/workspace/AIoT/src/LiteOS_Lab/iot_link/network/dtls/mbedtls/mbedtls-2.16.2/library\sha512.c ****  *
   4:C:/Users/dtjld/workspace/AIoT/src/LiteOS_Lab/iot_link/network/dtls/mbedtls/mbedtls-2.16.2/library\sha512.c ****  *  Copyright (C) 2006-2015, ARM Limited, All Rights Reserved
   5:C:/Users/dtjld/workspace/AIoT/src/LiteOS_Lab/iot_link/network/dtls/mbedtls/mbedtls-2.16.2/library\sha512.c ****  *  SPDX-License-Identifier: Apache-2.0
   6:C:/Users/dtjld/workspace/AIoT/src/LiteOS_Lab/iot_link/network/dtls/mbedtls/mbedtls-2.16.2/library\sha512.c ****  *
   7:C:/Users/dtjld/workspace/AIoT/src/LiteOS_Lab/iot_link/network/dtls/mbedtls/mbedtls-2.16.2/library\sha512.c ****  *  Licensed under the Apache License, Version 2.0 (the "License"); you may
   8:C:/Users/dtjld/workspace/AIoT/src/LiteOS_Lab/iot_link/network/dtls/mbedtls/mbedtls-2.16.2/library\sha512.c ****  *  not use this file except in compliance with the License.
   9:C:/Users/dtjld/workspace/AIoT/src/LiteOS_Lab/iot_link/network/dtls/mbedtls/mbedtls-2.16.2/library\sha512.c ****  *  You may obtain a copy of the License at
  10:C:/Users/dtjld/workspace/AIoT/src/LiteOS_Lab/iot_link/network/dtls/mbedtls/mbedtls-2.16.2/library\sha512.c ****  *
  11:C:/Users/dtjld/workspace/AIoT/src/LiteOS_Lab/iot_link/network/dtls/mbedtls/mbedtls-2.16.2/library\sha512.c ****  *  http://www.apache.org/licenses/LICENSE-2.0
  12:C:/Users/dtjld/workspace/AIoT/src/LiteOS_Lab/iot_link/network/dtls/mbedtls/mbedtls-2.16.2/library\sha512.c ****  *
  13:C:/Users/dtjld/workspace/AIoT/src/LiteOS_Lab/iot_link/network/dtls/mbedtls/mbedtls-2.16.2/library\sha512.c ****  *  Unless required by applicable law or agreed to in writing, software
  14:C:/Users/dtjld/workspace/AIoT/src/LiteOS_Lab/iot_link/network/dtls/mbedtls/mbedtls-2.16.2/library\sha512.c ****  *  distributed under the License is distributed on an "AS IS" BASIS, WITHOUT
  15:C:/Users/dtjld/workspace/AIoT/src/LiteOS_Lab/iot_link/network/dtls/mbedtls/mbedtls-2.16.2/library\sha512.c ****  *  WARRANTIES OR CONDITIONS OF ANY KIND, either express or implied.
  16:C:/Users/dtjld/workspace/AIoT/src/LiteOS_Lab/iot_link/network/dtls/mbedtls/mbedtls-2.16.2/library\sha512.c ****  *  See the License for the specific language governing permissions and
  17:C:/Users/dtjld/workspace/AIoT/src/LiteOS_Lab/iot_link/network/dtls/mbedtls/mbedtls-2.16.2/library\sha512.c ****  *  limitations under the License.
  18:C:/Users/dtjld/workspace/AIoT/src/LiteOS_Lab/iot_link/network/dtls/mbedtls/mbedtls-2.16.2/library\sha512.c ****  *
  19:C:/Users/dtjld/workspace/AIoT/src/LiteOS_Lab/iot_link/network/dtls/mbedtls/mbedtls-2.16.2/library\sha512.c ****  *  This file is part of mbed TLS (https://tls.mbed.org)
  20:C:/Users/dtjld/workspace/AIoT/src/LiteOS_Lab/iot_link/network/dtls/mbedtls/mbedtls-2.16.2/library\sha512.c ****  */
  21:C:/Users/dtjld/workspace/AIoT/src/LiteOS_Lab/iot_link/network/dtls/mbedtls/mbedtls-2.16.2/library\sha512.c **** /*
  22:C:/Users/dtjld/workspace/AIoT/src/LiteOS_Lab/iot_link/network/dtls/mbedtls/mbedtls-2.16.2/library\sha512.c ****  *  The SHA-512 Secure Hash Standard was published by NIST in 2002.
  23:C:/Users/dtjld/workspace/AIoT/src/LiteOS_Lab/iot_link/network/dtls/mbedtls/mbedtls-2.16.2/library\sha512.c ****  *
  24:C:/Users/dtjld/workspace/AIoT/src/LiteOS_Lab/iot_link/network/dtls/mbedtls/mbedtls-2.16.2/library\sha512.c ****  *  http://csrc.nist.gov/publications/fips/fips180-2/fips180-2.pdf
  25:C:/Users/dtjld/workspace/AIoT/src/LiteOS_Lab/iot_link/network/dtls/mbedtls/mbedtls-2.16.2/library\sha512.c ****  */
  26:C:/Users/dtjld/workspace/AIoT/src/LiteOS_Lab/iot_link/network/dtls/mbedtls/mbedtls-2.16.2/library\sha512.c **** 
  27:C:/Users/dtjld/workspace/AIoT/src/LiteOS_Lab/iot_link/network/dtls/mbedtls/mbedtls-2.16.2/library\sha512.c **** #if !defined(MBEDTLS_CONFIG_FILE)
  28:C:/Users/dtjld/workspace/AIoT/src/LiteOS_Lab/iot_link/network/dtls/mbedtls/mbedtls-2.16.2/library\sha512.c **** #include "mbedtls/config.h"
  29:C:/Users/dtjld/workspace/AIoT/src/LiteOS_Lab/iot_link/network/dtls/mbedtls/mbedtls-2.16.2/library\sha512.c **** #else
  30:C:/Users/dtjld/workspace/AIoT/src/LiteOS_Lab/iot_link/network/dtls/mbedtls/mbedtls-2.16.2/library\sha512.c **** #include MBEDTLS_CONFIG_FILE
  31:C:/Users/dtjld/workspace/AIoT/src/LiteOS_Lab/iot_link/network/dtls/mbedtls/mbedtls-2.16.2/library\sha512.c **** #endif
ARM GAS  C:\Users\dtjld\AppData\Local\Temp\cczibexU.s 			page 2


  32:C:/Users/dtjld/workspace/AIoT/src/LiteOS_Lab/iot_link/network/dtls/mbedtls/mbedtls-2.16.2/library\sha512.c **** 
  33:C:/Users/dtjld/workspace/AIoT/src/LiteOS_Lab/iot_link/network/dtls/mbedtls/mbedtls-2.16.2/library\sha512.c **** #if defined(MBEDTLS_SHA512_C)
  34:C:/Users/dtjld/workspace/AIoT/src/LiteOS_Lab/iot_link/network/dtls/mbedtls/mbedtls-2.16.2/library\sha512.c **** 
  35:C:/Users/dtjld/workspace/AIoT/src/LiteOS_Lab/iot_link/network/dtls/mbedtls/mbedtls-2.16.2/library\sha512.c **** #include "mbedtls/sha512.h"
  36:C:/Users/dtjld/workspace/AIoT/src/LiteOS_Lab/iot_link/network/dtls/mbedtls/mbedtls-2.16.2/library\sha512.c **** #include "mbedtls/platform_util.h"
  37:C:/Users/dtjld/workspace/AIoT/src/LiteOS_Lab/iot_link/network/dtls/mbedtls/mbedtls-2.16.2/library\sha512.c **** 
  38:C:/Users/dtjld/workspace/AIoT/src/LiteOS_Lab/iot_link/network/dtls/mbedtls/mbedtls-2.16.2/library\sha512.c **** #if defined(_MSC_VER) || defined(__WATCOMC__)
  39:C:/Users/dtjld/workspace/AIoT/src/LiteOS_Lab/iot_link/network/dtls/mbedtls/mbedtls-2.16.2/library\sha512.c ****   #define UL64(x) x##ui64
  40:C:/Users/dtjld/workspace/AIoT/src/LiteOS_Lab/iot_link/network/dtls/mbedtls/mbedtls-2.16.2/library\sha512.c **** #else
  41:C:/Users/dtjld/workspace/AIoT/src/LiteOS_Lab/iot_link/network/dtls/mbedtls/mbedtls-2.16.2/library\sha512.c ****   #define UL64(x) x##ULL
  42:C:/Users/dtjld/workspace/AIoT/src/LiteOS_Lab/iot_link/network/dtls/mbedtls/mbedtls-2.16.2/library\sha512.c **** #endif
  43:C:/Users/dtjld/workspace/AIoT/src/LiteOS_Lab/iot_link/network/dtls/mbedtls/mbedtls-2.16.2/library\sha512.c **** 
  44:C:/Users/dtjld/workspace/AIoT/src/LiteOS_Lab/iot_link/network/dtls/mbedtls/mbedtls-2.16.2/library\sha512.c **** #include <string.h>
  45:C:/Users/dtjld/workspace/AIoT/src/LiteOS_Lab/iot_link/network/dtls/mbedtls/mbedtls-2.16.2/library\sha512.c **** 
  46:C:/Users/dtjld/workspace/AIoT/src/LiteOS_Lab/iot_link/network/dtls/mbedtls/mbedtls-2.16.2/library\sha512.c **** #if defined(MBEDTLS_SELF_TEST)
  47:C:/Users/dtjld/workspace/AIoT/src/LiteOS_Lab/iot_link/network/dtls/mbedtls/mbedtls-2.16.2/library\sha512.c **** #if defined(MBEDTLS_PLATFORM_C)
  48:C:/Users/dtjld/workspace/AIoT/src/LiteOS_Lab/iot_link/network/dtls/mbedtls/mbedtls-2.16.2/library\sha512.c **** #include "mbedtls/platform.h"
  49:C:/Users/dtjld/workspace/AIoT/src/LiteOS_Lab/iot_link/network/dtls/mbedtls/mbedtls-2.16.2/library\sha512.c **** #else
  50:C:/Users/dtjld/workspace/AIoT/src/LiteOS_Lab/iot_link/network/dtls/mbedtls/mbedtls-2.16.2/library\sha512.c **** #include <stdio.h>
  51:C:/Users/dtjld/workspace/AIoT/src/LiteOS_Lab/iot_link/network/dtls/mbedtls/mbedtls-2.16.2/library\sha512.c **** #include <stdlib.h>
  52:C:/Users/dtjld/workspace/AIoT/src/LiteOS_Lab/iot_link/network/dtls/mbedtls/mbedtls-2.16.2/library\sha512.c **** #define mbedtls_printf printf
  53:C:/Users/dtjld/workspace/AIoT/src/LiteOS_Lab/iot_link/network/dtls/mbedtls/mbedtls-2.16.2/library\sha512.c **** #define mbedtls_calloc    calloc
  54:C:/Users/dtjld/workspace/AIoT/src/LiteOS_Lab/iot_link/network/dtls/mbedtls/mbedtls-2.16.2/library\sha512.c **** #define mbedtls_free       free
  55:C:/Users/dtjld/workspace/AIoT/src/LiteOS_Lab/iot_link/network/dtls/mbedtls/mbedtls-2.16.2/library\sha512.c **** #endif /* MBEDTLS_PLATFORM_C */
  56:C:/Users/dtjld/workspace/AIoT/src/LiteOS_Lab/iot_link/network/dtls/mbedtls/mbedtls-2.16.2/library\sha512.c **** #endif /* MBEDTLS_SELF_TEST */
  57:C:/Users/dtjld/workspace/AIoT/src/LiteOS_Lab/iot_link/network/dtls/mbedtls/mbedtls-2.16.2/library\sha512.c **** 
  58:C:/Users/dtjld/workspace/AIoT/src/LiteOS_Lab/iot_link/network/dtls/mbedtls/mbedtls-2.16.2/library\sha512.c **** #define SHA512_VALIDATE_RET(cond)                           \
  59:C:/Users/dtjld/workspace/AIoT/src/LiteOS_Lab/iot_link/network/dtls/mbedtls/mbedtls-2.16.2/library\sha512.c ****     MBEDTLS_INTERNAL_VALIDATE_RET( cond, MBEDTLS_ERR_SHA512_BAD_INPUT_DATA )
  60:C:/Users/dtjld/workspace/AIoT/src/LiteOS_Lab/iot_link/network/dtls/mbedtls/mbedtls-2.16.2/library\sha512.c **** #define SHA512_VALIDATE(cond)  MBEDTLS_INTERNAL_VALIDATE( cond )
  61:C:/Users/dtjld/workspace/AIoT/src/LiteOS_Lab/iot_link/network/dtls/mbedtls/mbedtls-2.16.2/library\sha512.c **** 
  62:C:/Users/dtjld/workspace/AIoT/src/LiteOS_Lab/iot_link/network/dtls/mbedtls/mbedtls-2.16.2/library\sha512.c **** #if !defined(MBEDTLS_SHA512_ALT)
  63:C:/Users/dtjld/workspace/AIoT/src/LiteOS_Lab/iot_link/network/dtls/mbedtls/mbedtls-2.16.2/library\sha512.c **** 
  64:C:/Users/dtjld/workspace/AIoT/src/LiteOS_Lab/iot_link/network/dtls/mbedtls/mbedtls-2.16.2/library\sha512.c **** /*
  65:C:/Users/dtjld/workspace/AIoT/src/LiteOS_Lab/iot_link/network/dtls/mbedtls/mbedtls-2.16.2/library\sha512.c ****  * 64-bit integer manipulation macros (big endian)
  66:C:/Users/dtjld/workspace/AIoT/src/LiteOS_Lab/iot_link/network/dtls/mbedtls/mbedtls-2.16.2/library\sha512.c ****  */
  67:C:/Users/dtjld/workspace/AIoT/src/LiteOS_Lab/iot_link/network/dtls/mbedtls/mbedtls-2.16.2/library\sha512.c **** #ifndef GET_UINT64_BE
  68:C:/Users/dtjld/workspace/AIoT/src/LiteOS_Lab/iot_link/network/dtls/mbedtls/mbedtls-2.16.2/library\sha512.c **** #define GET_UINT64_BE(n,b,i)                            \
  69:C:/Users/dtjld/workspace/AIoT/src/LiteOS_Lab/iot_link/network/dtls/mbedtls/mbedtls-2.16.2/library\sha512.c **** {                                                       \
  70:C:/Users/dtjld/workspace/AIoT/src/LiteOS_Lab/iot_link/network/dtls/mbedtls/mbedtls-2.16.2/library\sha512.c ****     (n) = ( (uint64_t) (b)[(i)    ] << 56 )       \
  71:C:/Users/dtjld/workspace/AIoT/src/LiteOS_Lab/iot_link/network/dtls/mbedtls/mbedtls-2.16.2/library\sha512.c ****         | ( (uint64_t) (b)[(i) + 1] << 48 )       \
  72:C:/Users/dtjld/workspace/AIoT/src/LiteOS_Lab/iot_link/network/dtls/mbedtls/mbedtls-2.16.2/library\sha512.c ****         | ( (uint64_t) (b)[(i) + 2] << 40 )       \
  73:C:/Users/dtjld/workspace/AIoT/src/LiteOS_Lab/iot_link/network/dtls/mbedtls/mbedtls-2.16.2/library\sha512.c ****         | ( (uint64_t) (b)[(i) + 3] << 32 )       \
  74:C:/Users/dtjld/workspace/AIoT/src/LiteOS_Lab/iot_link/network/dtls/mbedtls/mbedtls-2.16.2/library\sha512.c ****         | ( (uint64_t) (b)[(i) + 4] << 24 )       \
  75:C:/Users/dtjld/workspace/AIoT/src/LiteOS_Lab/iot_link/network/dtls/mbedtls/mbedtls-2.16.2/library\sha512.c ****         | ( (uint64_t) (b)[(i) + 5] << 16 )       \
  76:C:/Users/dtjld/workspace/AIoT/src/LiteOS_Lab/iot_link/network/dtls/mbedtls/mbedtls-2.16.2/library\sha512.c ****         | ( (uint64_t) (b)[(i) + 6] <<  8 )       \
  77:C:/Users/dtjld/workspace/AIoT/src/LiteOS_Lab/iot_link/network/dtls/mbedtls/mbedtls-2.16.2/library\sha512.c ****         | ( (uint64_t) (b)[(i) + 7]       );      \
  78:C:/Users/dtjld/workspace/AIoT/src/LiteOS_Lab/iot_link/network/dtls/mbedtls/mbedtls-2.16.2/library\sha512.c **** }
  79:C:/Users/dtjld/workspace/AIoT/src/LiteOS_Lab/iot_link/network/dtls/mbedtls/mbedtls-2.16.2/library\sha512.c **** #endif /* GET_UINT64_BE */
  80:C:/Users/dtjld/workspace/AIoT/src/LiteOS_Lab/iot_link/network/dtls/mbedtls/mbedtls-2.16.2/library\sha512.c **** 
  81:C:/Users/dtjld/workspace/AIoT/src/LiteOS_Lab/iot_link/network/dtls/mbedtls/mbedtls-2.16.2/library\sha512.c **** #ifndef PUT_UINT64_BE
  82:C:/Users/dtjld/workspace/AIoT/src/LiteOS_Lab/iot_link/network/dtls/mbedtls/mbedtls-2.16.2/library\sha512.c **** #define PUT_UINT64_BE(n,b,i)                            \
  83:C:/Users/dtjld/workspace/AIoT/src/LiteOS_Lab/iot_link/network/dtls/mbedtls/mbedtls-2.16.2/library\sha512.c **** {                                                       \
  84:C:/Users/dtjld/workspace/AIoT/src/LiteOS_Lab/iot_link/network/dtls/mbedtls/mbedtls-2.16.2/library\sha512.c ****     (b)[(i)    ] = (unsigned char) ( (n) >> 56 );       \
  85:C:/Users/dtjld/workspace/AIoT/src/LiteOS_Lab/iot_link/network/dtls/mbedtls/mbedtls-2.16.2/library\sha512.c ****     (b)[(i) + 1] = (unsigned char) ( (n) >> 48 );       \
  86:C:/Users/dtjld/workspace/AIoT/src/LiteOS_Lab/iot_link/network/dtls/mbedtls/mbedtls-2.16.2/library\sha512.c ****     (b)[(i) + 2] = (unsigned char) ( (n) >> 40 );       \
  87:C:/Users/dtjld/workspace/AIoT/src/LiteOS_Lab/iot_link/network/dtls/mbedtls/mbedtls-2.16.2/library\sha512.c ****     (b)[(i) + 3] = (unsigned char) ( (n) >> 32 );       \
  88:C:/Users/dtjld/workspace/AIoT/src/LiteOS_Lab/iot_link/network/dtls/mbedtls/mbedtls-2.16.2/library\sha512.c ****     (b)[(i) + 4] = (unsigned char) ( (n) >> 24 );       \
ARM GAS  C:\Users\dtjld\AppData\Local\Temp\cczibexU.s 			page 3


  89:C:/Users/dtjld/workspace/AIoT/src/LiteOS_Lab/iot_link/network/dtls/mbedtls/mbedtls-2.16.2/library\sha512.c ****     (b)[(i) + 5] = (unsigned char) ( (n) >> 16 );       \
  90:C:/Users/dtjld/workspace/AIoT/src/LiteOS_Lab/iot_link/network/dtls/mbedtls/mbedtls-2.16.2/library\sha512.c ****     (b)[(i) + 6] = (unsigned char) ( (n) >>  8 );       \
  91:C:/Users/dtjld/workspace/AIoT/src/LiteOS_Lab/iot_link/network/dtls/mbedtls/mbedtls-2.16.2/library\sha512.c ****     (b)[(i) + 7] = (unsigned char) ( (n)       );       \
  92:C:/Users/dtjld/workspace/AIoT/src/LiteOS_Lab/iot_link/network/dtls/mbedtls/mbedtls-2.16.2/library\sha512.c **** }
  93:C:/Users/dtjld/workspace/AIoT/src/LiteOS_Lab/iot_link/network/dtls/mbedtls/mbedtls-2.16.2/library\sha512.c **** #endif /* PUT_UINT64_BE */
  94:C:/Users/dtjld/workspace/AIoT/src/LiteOS_Lab/iot_link/network/dtls/mbedtls/mbedtls-2.16.2/library\sha512.c **** 
  95:C:/Users/dtjld/workspace/AIoT/src/LiteOS_Lab/iot_link/network/dtls/mbedtls/mbedtls-2.16.2/library\sha512.c **** void mbedtls_sha512_init( mbedtls_sha512_context *ctx )
  96:C:/Users/dtjld/workspace/AIoT/src/LiteOS_Lab/iot_link/network/dtls/mbedtls/mbedtls-2.16.2/library\sha512.c **** {
  28              		.loc 1 96 0
  29              		.cfi_startproc
  30              		@ args = 0, pretend = 0, frame = 8
  31              		@ frame_needed = 1, uses_anonymous_args = 0
  32 0000 80B5     		push	{r7, lr}
  33              	.LCFI0:
  34              		.cfi_def_cfa_offset 8
  35              		.cfi_offset 7, -8
  36              		.cfi_offset 14, -4
  37 0002 82B0     		sub	sp, sp, #8
  38              	.LCFI1:
  39              		.cfi_def_cfa_offset 16
  40 0004 00AF     		add	r7, sp, #0
  41              	.LCFI2:
  42              		.cfi_def_cfa_register 7
  43 0006 7860     		str	r0, [r7, #4]
  97:C:/Users/dtjld/workspace/AIoT/src/LiteOS_Lab/iot_link/network/dtls/mbedtls/mbedtls-2.16.2/library\sha512.c ****     SHA512_VALIDATE( ctx != NULL );
  98:C:/Users/dtjld/workspace/AIoT/src/LiteOS_Lab/iot_link/network/dtls/mbedtls/mbedtls-2.16.2/library\sha512.c **** 
  99:C:/Users/dtjld/workspace/AIoT/src/LiteOS_Lab/iot_link/network/dtls/mbedtls/mbedtls-2.16.2/library\sha512.c ****     memset( ctx, 0, sizeof( mbedtls_sha512_context ) );
  44              		.loc 1 99 0
  45 0008 D822     		movs	r2, #216
  46 000a 0021     		movs	r1, #0
  47 000c 7868     		ldr	r0, [r7, #4]
  48 000e FFF7FEFF 		bl	memset
 100:C:/Users/dtjld/workspace/AIoT/src/LiteOS_Lab/iot_link/network/dtls/mbedtls/mbedtls-2.16.2/library\sha512.c **** }
  49              		.loc 1 100 0
  50 0012 00BF     		nop
  51 0014 0837     		adds	r7, r7, #8
  52              	.LCFI3:
  53              		.cfi_def_cfa_offset 8
  54 0016 BD46     		mov	sp, r7
  55              	.LCFI4:
  56              		.cfi_def_cfa_register 13
  57              		@ sp needed
  58 0018 80BD     		pop	{r7, pc}
  59              		.cfi_endproc
  60              	.LFE3:
  62              		.section	.text.mbedtls_sha512_free,"ax",%progbits
  63              		.align	1
  64              		.global	mbedtls_sha512_free
  65              		.syntax unified
  66              		.thumb
  67              		.thumb_func
  68              		.fpu fpv4-sp-d16
  70              	mbedtls_sha512_free:
  71              	.LFB4:
 101:C:/Users/dtjld/workspace/AIoT/src/LiteOS_Lab/iot_link/network/dtls/mbedtls/mbedtls-2.16.2/library\sha512.c **** 
 102:C:/Users/dtjld/workspace/AIoT/src/LiteOS_Lab/iot_link/network/dtls/mbedtls/mbedtls-2.16.2/library\sha512.c **** void mbedtls_sha512_free( mbedtls_sha512_context *ctx )
 103:C:/Users/dtjld/workspace/AIoT/src/LiteOS_Lab/iot_link/network/dtls/mbedtls/mbedtls-2.16.2/library\sha512.c **** {
ARM GAS  C:\Users\dtjld\AppData\Local\Temp\cczibexU.s 			page 4


  72              		.loc 1 103 0
  73              		.cfi_startproc
  74              		@ args = 0, pretend = 0, frame = 8
  75              		@ frame_needed = 1, uses_anonymous_args = 0
  76 0000 80B5     		push	{r7, lr}
  77              	.LCFI5:
  78              		.cfi_def_cfa_offset 8
  79              		.cfi_offset 7, -8
  80              		.cfi_offset 14, -4
  81 0002 82B0     		sub	sp, sp, #8
  82              	.LCFI6:
  83              		.cfi_def_cfa_offset 16
  84 0004 00AF     		add	r7, sp, #0
  85              	.LCFI7:
  86              		.cfi_def_cfa_register 7
  87 0006 7860     		str	r0, [r7, #4]
 104:C:/Users/dtjld/workspace/AIoT/src/LiteOS_Lab/iot_link/network/dtls/mbedtls/mbedtls-2.16.2/library\sha512.c ****     if( ctx == NULL )
  88              		.loc 1 104 0
  89 0008 7B68     		ldr	r3, [r7, #4]
  90 000a 002B     		cmp	r3, #0
  91 000c 04D0     		beq	.L5
 105:C:/Users/dtjld/workspace/AIoT/src/LiteOS_Lab/iot_link/network/dtls/mbedtls/mbedtls-2.16.2/library\sha512.c ****         return;
 106:C:/Users/dtjld/workspace/AIoT/src/LiteOS_Lab/iot_link/network/dtls/mbedtls/mbedtls-2.16.2/library\sha512.c **** 
 107:C:/Users/dtjld/workspace/AIoT/src/LiteOS_Lab/iot_link/network/dtls/mbedtls/mbedtls-2.16.2/library\sha512.c ****     mbedtls_platform_zeroize( ctx, sizeof( mbedtls_sha512_context ) );
  92              		.loc 1 107 0
  93 000e D821     		movs	r1, #216
  94 0010 7868     		ldr	r0, [r7, #4]
  95 0012 FFF7FEFF 		bl	mbedtls_platform_zeroize
  96 0016 00E0     		b	.L2
  97              	.L5:
 105:C:/Users/dtjld/workspace/AIoT/src/LiteOS_Lab/iot_link/network/dtls/mbedtls/mbedtls-2.16.2/library\sha512.c ****         return;
  98              		.loc 1 105 0
  99 0018 00BF     		nop
 100              	.L2:
 108:C:/Users/dtjld/workspace/AIoT/src/LiteOS_Lab/iot_link/network/dtls/mbedtls/mbedtls-2.16.2/library\sha512.c **** }
 101              		.loc 1 108 0
 102 001a 0837     		adds	r7, r7, #8
 103              	.LCFI8:
 104              		.cfi_def_cfa_offset 8
 105 001c BD46     		mov	sp, r7
 106              	.LCFI9:
 107              		.cfi_def_cfa_register 13
 108              		@ sp needed
 109 001e 80BD     		pop	{r7, pc}
 110              		.cfi_endproc
 111              	.LFE4:
 113              		.section	.text.mbedtls_sha512_clone,"ax",%progbits
 114              		.align	1
 115              		.global	mbedtls_sha512_clone
 116              		.syntax unified
 117              		.thumb
 118              		.thumb_func
 119              		.fpu fpv4-sp-d16
 121              	mbedtls_sha512_clone:
 122              	.LFB5:
 109:C:/Users/dtjld/workspace/AIoT/src/LiteOS_Lab/iot_link/network/dtls/mbedtls/mbedtls-2.16.2/library\sha512.c **** 
 110:C:/Users/dtjld/workspace/AIoT/src/LiteOS_Lab/iot_link/network/dtls/mbedtls/mbedtls-2.16.2/library\sha512.c **** void mbedtls_sha512_clone( mbedtls_sha512_context *dst,
ARM GAS  C:\Users\dtjld\AppData\Local\Temp\cczibexU.s 			page 5


 111:C:/Users/dtjld/workspace/AIoT/src/LiteOS_Lab/iot_link/network/dtls/mbedtls/mbedtls-2.16.2/library\sha512.c ****                            const mbedtls_sha512_context *src )
 112:C:/Users/dtjld/workspace/AIoT/src/LiteOS_Lab/iot_link/network/dtls/mbedtls/mbedtls-2.16.2/library\sha512.c **** {
 123              		.loc 1 112 0
 124              		.cfi_startproc
 125              		@ args = 0, pretend = 0, frame = 8
 126              		@ frame_needed = 1, uses_anonymous_args = 0
 127 0000 80B5     		push	{r7, lr}
 128              	.LCFI10:
 129              		.cfi_def_cfa_offset 8
 130              		.cfi_offset 7, -8
 131              		.cfi_offset 14, -4
 132 0002 82B0     		sub	sp, sp, #8
 133              	.LCFI11:
 134              		.cfi_def_cfa_offset 16
 135 0004 00AF     		add	r7, sp, #0
 136              	.LCFI12:
 137              		.cfi_def_cfa_register 7
 138 0006 7860     		str	r0, [r7, #4]
 139 0008 3960     		str	r1, [r7]
 113:C:/Users/dtjld/workspace/AIoT/src/LiteOS_Lab/iot_link/network/dtls/mbedtls/mbedtls-2.16.2/library\sha512.c ****     SHA512_VALIDATE( dst != NULL );
 114:C:/Users/dtjld/workspace/AIoT/src/LiteOS_Lab/iot_link/network/dtls/mbedtls/mbedtls-2.16.2/library\sha512.c ****     SHA512_VALIDATE( src != NULL );
 115:C:/Users/dtjld/workspace/AIoT/src/LiteOS_Lab/iot_link/network/dtls/mbedtls/mbedtls-2.16.2/library\sha512.c **** 
 116:C:/Users/dtjld/workspace/AIoT/src/LiteOS_Lab/iot_link/network/dtls/mbedtls/mbedtls-2.16.2/library\sha512.c ****     *dst = *src;
 140              		.loc 1 116 0
 141 000a 7A68     		ldr	r2, [r7, #4]
 142 000c 3B68     		ldr	r3, [r7]
 143 000e 1046     		mov	r0, r2
 144 0010 1946     		mov	r1, r3
 145 0012 D823     		movs	r3, #216
 146 0014 1A46     		mov	r2, r3
 147 0016 FFF7FEFF 		bl	memcpy
 117:C:/Users/dtjld/workspace/AIoT/src/LiteOS_Lab/iot_link/network/dtls/mbedtls/mbedtls-2.16.2/library\sha512.c **** }
 148              		.loc 1 117 0
 149 001a 00BF     		nop
 150 001c 0837     		adds	r7, r7, #8
 151              	.LCFI13:
 152              		.cfi_def_cfa_offset 8
 153 001e BD46     		mov	sp, r7
 154              	.LCFI14:
 155              		.cfi_def_cfa_register 13
 156              		@ sp needed
 157 0020 80BD     		pop	{r7, pc}
 158              		.cfi_endproc
 159              	.LFE5:
 161              		.section	.text.mbedtls_sha512_starts_ret,"ax",%progbits
 162              		.align	1
 163              		.global	mbedtls_sha512_starts_ret
 164              		.syntax unified
 165              		.thumb
 166              		.thumb_func
 167              		.fpu fpv4-sp-d16
 169              	mbedtls_sha512_starts_ret:
 170              	.LFB6:
 118:C:/Users/dtjld/workspace/AIoT/src/LiteOS_Lab/iot_link/network/dtls/mbedtls/mbedtls-2.16.2/library\sha512.c **** 
 119:C:/Users/dtjld/workspace/AIoT/src/LiteOS_Lab/iot_link/network/dtls/mbedtls/mbedtls-2.16.2/library\sha512.c **** /*
 120:C:/Users/dtjld/workspace/AIoT/src/LiteOS_Lab/iot_link/network/dtls/mbedtls/mbedtls-2.16.2/library\sha512.c ****  * SHA-512 context setup
 121:C:/Users/dtjld/workspace/AIoT/src/LiteOS_Lab/iot_link/network/dtls/mbedtls/mbedtls-2.16.2/library\sha512.c ****  */
ARM GAS  C:\Users\dtjld\AppData\Local\Temp\cczibexU.s 			page 6


 122:C:/Users/dtjld/workspace/AIoT/src/LiteOS_Lab/iot_link/network/dtls/mbedtls/mbedtls-2.16.2/library\sha512.c **** int mbedtls_sha512_starts_ret( mbedtls_sha512_context *ctx, int is384 )
 123:C:/Users/dtjld/workspace/AIoT/src/LiteOS_Lab/iot_link/network/dtls/mbedtls/mbedtls-2.16.2/library\sha512.c **** {
 171              		.loc 1 123 0
 172              		.cfi_startproc
 173              		@ args = 0, pretend = 0, frame = 8
 174              		@ frame_needed = 1, uses_anonymous_args = 0
 175              		@ link register save eliminated.
 176 0000 90B4     		push	{r4, r7}
 177              	.LCFI15:
 178              		.cfi_def_cfa_offset 8
 179              		.cfi_offset 4, -8
 180              		.cfi_offset 7, -4
 181 0002 82B0     		sub	sp, sp, #8
 182              	.LCFI16:
 183              		.cfi_def_cfa_offset 16
 184 0004 00AF     		add	r7, sp, #0
 185              	.LCFI17:
 186              		.cfi_def_cfa_register 7
 187 0006 7860     		str	r0, [r7, #4]
 188 0008 3960     		str	r1, [r7]
 124:C:/Users/dtjld/workspace/AIoT/src/LiteOS_Lab/iot_link/network/dtls/mbedtls/mbedtls-2.16.2/library\sha512.c ****     SHA512_VALIDATE_RET( ctx != NULL );
 125:C:/Users/dtjld/workspace/AIoT/src/LiteOS_Lab/iot_link/network/dtls/mbedtls/mbedtls-2.16.2/library\sha512.c ****     SHA512_VALIDATE_RET( is384 == 0 || is384 == 1 );
 126:C:/Users/dtjld/workspace/AIoT/src/LiteOS_Lab/iot_link/network/dtls/mbedtls/mbedtls-2.16.2/library\sha512.c **** 
 127:C:/Users/dtjld/workspace/AIoT/src/LiteOS_Lab/iot_link/network/dtls/mbedtls/mbedtls-2.16.2/library\sha512.c ****     ctx->total[0] = 0;
 189              		.loc 1 127 0
 190 000a 7A68     		ldr	r2, [r7, #4]
 191 000c 4FF00003 		mov	r3, #0
 192 0010 4FF00004 		mov	r4, #0
 193 0014 C2E90034 		strd	r3, [r2]
 128:C:/Users/dtjld/workspace/AIoT/src/LiteOS_Lab/iot_link/network/dtls/mbedtls/mbedtls-2.16.2/library\sha512.c ****     ctx->total[1] = 0;
 194              		.loc 1 128 0
 195 0018 7A68     		ldr	r2, [r7, #4]
 196 001a 4FF00003 		mov	r3, #0
 197 001e 4FF00004 		mov	r4, #0
 198 0022 C2E90234 		strd	r3, [r2, #8]
 129:C:/Users/dtjld/workspace/AIoT/src/LiteOS_Lab/iot_link/network/dtls/mbedtls/mbedtls-2.16.2/library\sha512.c **** 
 130:C:/Users/dtjld/workspace/AIoT/src/LiteOS_Lab/iot_link/network/dtls/mbedtls/mbedtls-2.16.2/library\sha512.c ****     if( is384 == 0 )
 199              		.loc 1 130 0
 200 0026 3B68     		ldr	r3, [r7]
 201 0028 002B     		cmp	r3, #0
 202 002a 30D1     		bne	.L8
 131:C:/Users/dtjld/workspace/AIoT/src/LiteOS_Lab/iot_link/network/dtls/mbedtls/mbedtls-2.16.2/library\sha512.c ****     {
 132:C:/Users/dtjld/workspace/AIoT/src/LiteOS_Lab/iot_link/network/dtls/mbedtls/mbedtls-2.16.2/library\sha512.c ****         /* SHA-512 */
 133:C:/Users/dtjld/workspace/AIoT/src/LiteOS_Lab/iot_link/network/dtls/mbedtls/mbedtls-2.16.2/library\sha512.c ****         ctx->state[0] = UL64(0x6A09E667F3BCC908);
 203              		.loc 1 133 0
 204 002c 7A68     		ldr	r2, [r7, #4]
 205 002e 36A4     		adr	r4, .L11
 206 0030 D4E90034 		ldrd	r3, [r4]
 207 0034 C2E90434 		strd	r3, [r2, #16]
 134:C:/Users/dtjld/workspace/AIoT/src/LiteOS_Lab/iot_link/network/dtls/mbedtls/mbedtls-2.16.2/library\sha512.c ****         ctx->state[1] = UL64(0xBB67AE8584CAA73B);
 208              		.loc 1 134 0
 209 0038 7A68     		ldr	r2, [r7, #4]
 210 003a 35A4     		adr	r4, .L11+8
 211 003c D4E90034 		ldrd	r3, [r4]
 212 0040 C2E90634 		strd	r3, [r2, #24]
 135:C:/Users/dtjld/workspace/AIoT/src/LiteOS_Lab/iot_link/network/dtls/mbedtls/mbedtls-2.16.2/library\sha512.c ****         ctx->state[2] = UL64(0x3C6EF372FE94F82B);
 213              		.loc 1 135 0
ARM GAS  C:\Users\dtjld\AppData\Local\Temp\cczibexU.s 			page 7


 214 0044 7A68     		ldr	r2, [r7, #4]
 215 0046 34A4     		adr	r4, .L11+16
 216 0048 D4E90034 		ldrd	r3, [r4]
 217 004c C2E90834 		strd	r3, [r2, #32]
 136:C:/Users/dtjld/workspace/AIoT/src/LiteOS_Lab/iot_link/network/dtls/mbedtls/mbedtls-2.16.2/library\sha512.c ****         ctx->state[3] = UL64(0xA54FF53A5F1D36F1);
 218              		.loc 1 136 0
 219 0050 7A68     		ldr	r2, [r7, #4]
 220 0052 33A4     		adr	r4, .L11+24
 221 0054 D4E90034 		ldrd	r3, [r4]
 222 0058 C2E90A34 		strd	r3, [r2, #40]
 137:C:/Users/dtjld/workspace/AIoT/src/LiteOS_Lab/iot_link/network/dtls/mbedtls/mbedtls-2.16.2/library\sha512.c ****         ctx->state[4] = UL64(0x510E527FADE682D1);
 223              		.loc 1 137 0
 224 005c 7A68     		ldr	r2, [r7, #4]
 225 005e 32A4     		adr	r4, .L11+32
 226 0060 D4E90034 		ldrd	r3, [r4]
 227 0064 C2E90C34 		strd	r3, [r2, #48]
 138:C:/Users/dtjld/workspace/AIoT/src/LiteOS_Lab/iot_link/network/dtls/mbedtls/mbedtls-2.16.2/library\sha512.c ****         ctx->state[5] = UL64(0x9B05688C2B3E6C1F);
 228              		.loc 1 138 0
 229 0068 7A68     		ldr	r2, [r7, #4]
 230 006a 31A4     		adr	r4, .L11+40
 231 006c D4E90034 		ldrd	r3, [r4]
 232 0070 C2E90E34 		strd	r3, [r2, #56]
 139:C:/Users/dtjld/workspace/AIoT/src/LiteOS_Lab/iot_link/network/dtls/mbedtls/mbedtls-2.16.2/library\sha512.c ****         ctx->state[6] = UL64(0x1F83D9ABFB41BD6B);
 233              		.loc 1 139 0
 234 0074 7A68     		ldr	r2, [r7, #4]
 235 0076 30A4     		adr	r4, .L11+48
 236 0078 D4E90034 		ldrd	r3, [r4]
 237 007c C2E91034 		strd	r3, [r2, #64]
 140:C:/Users/dtjld/workspace/AIoT/src/LiteOS_Lab/iot_link/network/dtls/mbedtls/mbedtls-2.16.2/library\sha512.c ****         ctx->state[7] = UL64(0x5BE0CD19137E2179);
 238              		.loc 1 140 0
 239 0080 7A68     		ldr	r2, [r7, #4]
 240 0082 2FA4     		adr	r4, .L11+56
 241 0084 D4E90034 		ldrd	r3, [r4]
 242 0088 C2E91234 		strd	r3, [r2, #72]
 243 008c 2FE0     		b	.L9
 244              	.L8:
 141:C:/Users/dtjld/workspace/AIoT/src/LiteOS_Lab/iot_link/network/dtls/mbedtls/mbedtls-2.16.2/library\sha512.c ****     }
 142:C:/Users/dtjld/workspace/AIoT/src/LiteOS_Lab/iot_link/network/dtls/mbedtls/mbedtls-2.16.2/library\sha512.c ****     else
 143:C:/Users/dtjld/workspace/AIoT/src/LiteOS_Lab/iot_link/network/dtls/mbedtls/mbedtls-2.16.2/library\sha512.c ****     {
 144:C:/Users/dtjld/workspace/AIoT/src/LiteOS_Lab/iot_link/network/dtls/mbedtls/mbedtls-2.16.2/library\sha512.c ****         /* SHA-384 */
 145:C:/Users/dtjld/workspace/AIoT/src/LiteOS_Lab/iot_link/network/dtls/mbedtls/mbedtls-2.16.2/library\sha512.c ****         ctx->state[0] = UL64(0xCBBB9D5DC1059ED8);
 245              		.loc 1 145 0
 246 008e 7A68     		ldr	r2, [r7, #4]
 247 0090 2DA4     		adr	r4, .L11+64
 248 0092 D4E90034 		ldrd	r3, [r4]
 249 0096 C2E90434 		strd	r3, [r2, #16]
 146:C:/Users/dtjld/workspace/AIoT/src/LiteOS_Lab/iot_link/network/dtls/mbedtls/mbedtls-2.16.2/library\sha512.c ****         ctx->state[1] = UL64(0x629A292A367CD507);
 250              		.loc 1 146 0
 251 009a 7A68     		ldr	r2, [r7, #4]
 252 009c 2CA4     		adr	r4, .L11+72
 253 009e D4E90034 		ldrd	r3, [r4]
 254 00a2 C2E90634 		strd	r3, [r2, #24]
 147:C:/Users/dtjld/workspace/AIoT/src/LiteOS_Lab/iot_link/network/dtls/mbedtls/mbedtls-2.16.2/library\sha512.c ****         ctx->state[2] = UL64(0x9159015A3070DD17);
 255              		.loc 1 147 0
 256 00a6 7A68     		ldr	r2, [r7, #4]
 257 00a8 2BA4     		adr	r4, .L11+80
 258 00aa D4E90034 		ldrd	r3, [r4]
ARM GAS  C:\Users\dtjld\AppData\Local\Temp\cczibexU.s 			page 8


 259 00ae C2E90834 		strd	r3, [r2, #32]
 148:C:/Users/dtjld/workspace/AIoT/src/LiteOS_Lab/iot_link/network/dtls/mbedtls/mbedtls-2.16.2/library\sha512.c ****         ctx->state[3] = UL64(0x152FECD8F70E5939);
 260              		.loc 1 148 0
 261 00b2 7A68     		ldr	r2, [r7, #4]
 262 00b4 2AA4     		adr	r4, .L11+88
 263 00b6 D4E90034 		ldrd	r3, [r4]
 264 00ba C2E90A34 		strd	r3, [r2, #40]
 149:C:/Users/dtjld/workspace/AIoT/src/LiteOS_Lab/iot_link/network/dtls/mbedtls/mbedtls-2.16.2/library\sha512.c ****         ctx->state[4] = UL64(0x67332667FFC00B31);
 265              		.loc 1 149 0
 266 00be 7A68     		ldr	r2, [r7, #4]
 267 00c0 29A4     		adr	r4, .L11+96
 268 00c2 D4E90034 		ldrd	r3, [r4]
 269 00c6 C2E90C34 		strd	r3, [r2, #48]
 150:C:/Users/dtjld/workspace/AIoT/src/LiteOS_Lab/iot_link/network/dtls/mbedtls/mbedtls-2.16.2/library\sha512.c ****         ctx->state[5] = UL64(0x8EB44A8768581511);
 270              		.loc 1 150 0
 271 00ca 7A68     		ldr	r2, [r7, #4]
 272 00cc 28A4     		adr	r4, .L11+104
 273 00ce D4E90034 		ldrd	r3, [r4]
 274 00d2 C2E90E34 		strd	r3, [r2, #56]
 151:C:/Users/dtjld/workspace/AIoT/src/LiteOS_Lab/iot_link/network/dtls/mbedtls/mbedtls-2.16.2/library\sha512.c ****         ctx->state[6] = UL64(0xDB0C2E0D64F98FA7);
 275              		.loc 1 151 0
 276 00d6 7A68     		ldr	r2, [r7, #4]
 277 00d8 27A4     		adr	r4, .L11+112
 278 00da D4E90034 		ldrd	r3, [r4]
 279 00de C2E91034 		strd	r3, [r2, #64]
 152:C:/Users/dtjld/workspace/AIoT/src/LiteOS_Lab/iot_link/network/dtls/mbedtls/mbedtls-2.16.2/library\sha512.c ****         ctx->state[7] = UL64(0x47B5481DBEFA4FA4);
 280              		.loc 1 152 0
 281 00e2 7A68     		ldr	r2, [r7, #4]
 282 00e4 26A4     		adr	r4, .L11+120
 283 00e6 D4E90034 		ldrd	r3, [r4]
 284 00ea C2E91234 		strd	r3, [r2, #72]
 285              	.L9:
 153:C:/Users/dtjld/workspace/AIoT/src/LiteOS_Lab/iot_link/network/dtls/mbedtls/mbedtls-2.16.2/library\sha512.c ****     }
 154:C:/Users/dtjld/workspace/AIoT/src/LiteOS_Lab/iot_link/network/dtls/mbedtls/mbedtls-2.16.2/library\sha512.c **** 
 155:C:/Users/dtjld/workspace/AIoT/src/LiteOS_Lab/iot_link/network/dtls/mbedtls/mbedtls-2.16.2/library\sha512.c ****     ctx->is384 = is384;
 286              		.loc 1 155 0
 287 00ee 7B68     		ldr	r3, [r7, #4]
 288 00f0 3A68     		ldr	r2, [r7]
 289 00f2 C3F8D020 		str	r2, [r3, #208]
 156:C:/Users/dtjld/workspace/AIoT/src/LiteOS_Lab/iot_link/network/dtls/mbedtls/mbedtls-2.16.2/library\sha512.c **** 
 157:C:/Users/dtjld/workspace/AIoT/src/LiteOS_Lab/iot_link/network/dtls/mbedtls/mbedtls-2.16.2/library\sha512.c ****     return( 0 );
 290              		.loc 1 157 0
 291 00f6 0023     		movs	r3, #0
 158:C:/Users/dtjld/workspace/AIoT/src/LiteOS_Lab/iot_link/network/dtls/mbedtls/mbedtls-2.16.2/library\sha512.c **** }
 292              		.loc 1 158 0
 293 00f8 1846     		mov	r0, r3
 294 00fa 0837     		adds	r7, r7, #8
 295              	.LCFI18:
 296              		.cfi_def_cfa_offset 8
 297 00fc BD46     		mov	sp, r7
 298              	.LCFI19:
 299              		.cfi_def_cfa_register 13
 300              		@ sp needed
 301 00fe 90BC     		pop	{r4, r7}
 302              	.LCFI20:
 303              		.cfi_restore 7
 304              		.cfi_restore 4
ARM GAS  C:\Users\dtjld\AppData\Local\Temp\cczibexU.s 			page 9


 305              		.cfi_def_cfa_offset 0
 306 0100 7047     		bx	lr
 307              	.L12:
 308 0102 00BFAFF3 		.align	3
 308      0080
 309              	.L11:
 310 0108 08C9BCF3 		.word	-205731576
 311 010c 67E6096A 		.word	1779033703
 312 0110 3BA7CA84 		.word	-2067093701
 313 0114 85AE67BB 		.word	-1150833019
 314 0118 2BF894FE 		.word	-23791573
 315 011c 72F36E3C 		.word	1013904242
 316 0120 F1361D5F 		.word	1595750129
 317 0124 3AF54FA5 		.word	-1521486534
 318 0128 D182E6AD 		.word	-1377402159
 319 012c 7F520E51 		.word	1359893119
 320 0130 1F6C3E2B 		.word	725511199
 321 0134 8C68059B 		.word	-1694144372
 322 0138 6BBD41FB 		.word	-79577749
 323 013c ABD9831F 		.word	528734635
 324 0140 79217E13 		.word	327033209
 325 0144 19CDE05B 		.word	1541459225
 326 0148 D89E05C1 		.word	-1056596264
 327 014c 5D9DBBCB 		.word	-876896931
 328 0150 07D57C36 		.word	914150663
 329 0154 2A299A62 		.word	1654270250
 330 0158 17DD7030 		.word	812702999
 331 015c 5A015991 		.word	-1856437926
 332 0160 39590EF7 		.word	-150054599
 333 0164 D8EC2F15 		.word	355462360
 334 0168 310BC0FF 		.word	-4191439
 335 016c 67263367 		.word	1731405415
 336 0170 11155868 		.word	1750603025
 337 0174 874AB48E 		.word	-1900787065
 338 0178 A78FF964 		.word	1694076839
 339 017c 0D2E0CDB 		.word	-619958771
 340 0180 A44FFABE 		.word	-1090891868
 341 0184 1D48B547 		.word	1203062813
 342              		.cfi_endproc
 343              	.LFE6:
 345              		.section	.text.mbedtls_sha512_starts,"ax",%progbits
 346              		.align	1
 347              		.global	mbedtls_sha512_starts
 348              		.syntax unified
 349              		.thumb
 350              		.thumb_func
 351              		.fpu fpv4-sp-d16
 353              	mbedtls_sha512_starts:
 354              	.LFB7:
 159:C:/Users/dtjld/workspace/AIoT/src/LiteOS_Lab/iot_link/network/dtls/mbedtls/mbedtls-2.16.2/library\sha512.c **** 
 160:C:/Users/dtjld/workspace/AIoT/src/LiteOS_Lab/iot_link/network/dtls/mbedtls/mbedtls-2.16.2/library\sha512.c **** #if !defined(MBEDTLS_DEPRECATED_REMOVED)
 161:C:/Users/dtjld/workspace/AIoT/src/LiteOS_Lab/iot_link/network/dtls/mbedtls/mbedtls-2.16.2/library\sha512.c **** void mbedtls_sha512_starts( mbedtls_sha512_context *ctx,
 162:C:/Users/dtjld/workspace/AIoT/src/LiteOS_Lab/iot_link/network/dtls/mbedtls/mbedtls-2.16.2/library\sha512.c ****                             int is384 )
 163:C:/Users/dtjld/workspace/AIoT/src/LiteOS_Lab/iot_link/network/dtls/mbedtls/mbedtls-2.16.2/library\sha512.c **** {
 355              		.loc 1 163 0
 356              		.cfi_startproc
 357              		@ args = 0, pretend = 0, frame = 8
ARM GAS  C:\Users\dtjld\AppData\Local\Temp\cczibexU.s 			page 10


 358              		@ frame_needed = 1, uses_anonymous_args = 0
 359 0000 80B5     		push	{r7, lr}
 360              	.LCFI21:
 361              		.cfi_def_cfa_offset 8
 362              		.cfi_offset 7, -8
 363              		.cfi_offset 14, -4
 364 0002 82B0     		sub	sp, sp, #8
 365              	.LCFI22:
 366              		.cfi_def_cfa_offset 16
 367 0004 00AF     		add	r7, sp, #0
 368              	.LCFI23:
 369              		.cfi_def_cfa_register 7
 370 0006 7860     		str	r0, [r7, #4]
 371 0008 3960     		str	r1, [r7]
 164:C:/Users/dtjld/workspace/AIoT/src/LiteOS_Lab/iot_link/network/dtls/mbedtls/mbedtls-2.16.2/library\sha512.c ****     mbedtls_sha512_starts_ret( ctx, is384 );
 372              		.loc 1 164 0
 373 000a 3968     		ldr	r1, [r7]
 374 000c 7868     		ldr	r0, [r7, #4]
 375 000e FFF7FEFF 		bl	mbedtls_sha512_starts_ret
 165:C:/Users/dtjld/workspace/AIoT/src/LiteOS_Lab/iot_link/network/dtls/mbedtls/mbedtls-2.16.2/library\sha512.c **** }
 376              		.loc 1 165 0
 377 0012 00BF     		nop
 378 0014 0837     		adds	r7, r7, #8
 379              	.LCFI24:
 380              		.cfi_def_cfa_offset 8
 381 0016 BD46     		mov	sp, r7
 382              	.LCFI25:
 383              		.cfi_def_cfa_register 13
 384              		@ sp needed
 385 0018 80BD     		pop	{r7, pc}
 386              		.cfi_endproc
 387              	.LFE7:
 389              		.section	.rodata.K,"a",%progbits
 390              		.align	3
 393              	K:
 394 0000 22AE28D7 		.word	-685199838
 395 0004 982F8A42 		.word	1116352408
 396 0008 CD65EF23 		.word	602891725
 397 000c 91443771 		.word	1899447441
 398 0010 2F3B4DEC 		.word	-330482897
 399 0014 CFFBC0B5 		.word	-1245643825
 400 0018 BCDB8981 		.word	-2121671748
 401 001c A5DBB5E9 		.word	-373957723
 402 0020 38B548F3 		.word	-213338824
 403 0024 5BC25639 		.word	961987163
 404 0028 19D005B6 		.word	-1241133031
 405 002c F111F159 		.word	1508970993
 406 0030 9B4F19AF 		.word	-1357295717
 407 0034 A4823F92 		.word	-1841331548
 408 0038 18816DDA 		.word	-630357736
 409 003c D55E1CAB 		.word	-1424204075
 410 0040 420203A3 		.word	-1560083902
 411 0044 98AA07D8 		.word	-670586216
 412 0048 BE6F7045 		.word	1164996542
 413 004c 015B8312 		.word	310598401
 414 0050 8CB2E44E 		.word	1323610764
 415 0054 BE853124 		.word	607225278
ARM GAS  C:\Users\dtjld\AppData\Local\Temp\cczibexU.s 			page 11


 416 0058 E2B4FFD5 		.word	-704662302
 417 005c C37D0C55 		.word	1426881987
 418 0060 6F897BF2 		.word	-226784913
 419 0064 745DBE72 		.word	1925078388
 420 0068 B196163B 		.word	991336113
 421 006c FEB1DE80 		.word	-2132889090
 422 0070 3512C725 		.word	633803317
 423 0074 A706DC9B 		.word	-1680079193
 424 0078 942669CF 		.word	-815192428
 425 007c 74F19BC1 		.word	-1046744716
 426 0080 D24AF19E 		.word	-1628353838
 427 0084 C1699BE4 		.word	-459576895
 428 0088 E3254F38 		.word	944711139
 429 008c 8647BEEF 		.word	-272742522
 430 0090 B5D58C8B 		.word	-1953704523
 431 0094 C69DC10F 		.word	264347078
 432 0098 659CAC77 		.word	2007800933
 433 009c CCA10C24 		.word	604807628
 434 00a0 75022B59 		.word	1495990901
 435 00a4 6F2CE92D 		.word	770255983
 436 00a8 83E4A66E 		.word	1856431235
 437 00ac AA84744A 		.word	1249150122
 438 00b0 D4FB41BD 		.word	-1119749164
 439 00b4 DCA9B05C 		.word	1555081692
 440 00b8 B5531183 		.word	-2096016459
 441 00bc DA88F976 		.word	1996064986
 442 00c0 ABDF66EE 		.word	-295247957
 443 00c4 52513E98 		.word	-1740746414
 444 00c8 1032B42D 		.word	766784016
 445 00cc 6DC631A8 		.word	-1473132947
 446 00d0 3F21FB98 		.word	-1728372417
 447 00d4 C82703B0 		.word	-1341970488
 448 00d8 E40EEFBE 		.word	-1091629340
 449 00dc C77F59BF 		.word	-1084653625
 450 00e0 C28FA83D 		.word	1034457026
 451 00e4 F30BE0C6 		.word	-958395405
 452 00e8 25A70A93 		.word	-1828018395
 453 00ec 4791A7D5 		.word	-710438585
 454 00f0 6F8203E0 		.word	-536640913
 455 00f4 5163CA06 		.word	113926993
 456 00f8 706E0E0A 		.word	168717936
 457 00fc 67292914 		.word	338241895
 458 0100 FC2FD246 		.word	1188179964
 459 0104 850AB727 		.word	666307205
 460 0108 26C9265C 		.word	1546045734
 461 010c 38211B2E 		.word	773529912
 462 0110 ED2AC45A 		.word	1522805485
 463 0114 FC6D2C4D 		.word	1294757372
 464 0118 DFB3959D 		.word	-1651133473
 465 011c 130D3853 		.word	1396182291
 466 0120 DE63AF8B 		.word	-1951439906
 467 0124 54730A65 		.word	1695183700
 468 0128 A8B2773C 		.word	1014477480
 469 012c BB0A6A76 		.word	1986661051
 470 0130 E6AEED47 		.word	1206759142
 471 0134 2EC9C281 		.word	-2117940946
 472 0138 3B358214 		.word	344077627
ARM GAS  C:\Users\dtjld\AppData\Local\Temp\cczibexU.s 			page 12


 473 013c 852C7292 		.word	-1838011259
 474 0140 6403F14C 		.word	1290863460
 475 0144 A1E8BFA2 		.word	-1564481375
 476 0148 013042BC 		.word	-1136513023
 477 014c 4B661AA8 		.word	-1474664885
 478 0150 9197F8D0 		.word	-789014639
 479 0154 708B4BC2 		.word	-1035236496
 480 0158 30BE5406 		.word	106217008
 481 015c A3516CC7 		.word	-949202525
 482 0160 1852EFD6 		.word	-688958952
 483 0164 19E892D1 		.word	-778901479
 484 0168 10A96555 		.word	1432725776
 485 016c 240699D6 		.word	-694614492
 486 0170 2A207157 		.word	1467031594
 487 0174 85350EF4 		.word	-200395387
 488 0178 B8D1BB32 		.word	851169720
 489 017c 70A06A10 		.word	275423344
 490 0180 C8D0D2B8 		.word	-1194143544
 491 0184 16C1A419 		.word	430227734
 492 0188 53AB4151 		.word	1363258195
 493 018c 086C371E 		.word	506948616
 494 0190 99EB8EDF 		.word	-544281703
 495 0194 4C774827 		.word	659060556
 496 0198 A8489BE1 		.word	-509917016
 497 019c B5BCB034 		.word	883997877
 498 01a0 635AC9C5 		.word	-976659869
 499 01a4 B30C1C39 		.word	958139571
 500 01a8 CB8A41E3 		.word	-482243893
 501 01ac 4AAAD84E 		.word	1322822218
 502 01b0 73E36377 		.word	2003034995
 503 01b4 4FCA9C5B 		.word	1537002063
 504 01b8 A3B8B2D6 		.word	-692930397
 505 01bc F36F2E68 		.word	1747873779
 506 01c0 FCB2EF5D 		.word	1575990012
 507 01c4 EE828F74 		.word	1955562222
 508 01c8 602F1743 		.word	1125592928
 509 01cc 6F63A578 		.word	2024104815
 510 01d0 72ABF0A1 		.word	-1578062990
 511 01d4 1478C884 		.word	-2067236844
 512 01d8 EC39641A 		.word	442776044
 513 01dc 0802C78C 		.word	-1933114872
 514 01e0 281E6323 		.word	593698344
 515 01e4 FAFFBE90 		.word	-1866530822
 516 01e8 E9BD82DE 		.word	-561857047
 517 01ec EB6C50A4 		.word	-1538233109
 518 01f0 1579C6B2 		.word	-1295615723
 519 01f4 F7A3F9BE 		.word	-1090935817
 520 01f8 2B5372E3 		.word	-479046869
 521 01fc F27871C6 		.word	-965641998
 522 0200 9C6126EA 		.word	-366583396
 523 0204 CE3E27CA 		.word	-903397682
 524 0208 07C2C021 		.word	566280711
 525 020c C7B886D1 		.word	-779700025
 526 0210 1EEBE0CD 		.word	-840897762
 527 0214 D67DDAEA 		.word	-354779690
 528 0218 78D16EEE 		.word	-294727304
 529 021c 7F4F7DF5 		.word	-176337025
ARM GAS  C:\Users\dtjld\AppData\Local\Temp\cczibexU.s 			page 13


 530 0220 BA6F1772 		.word	1914138554
 531 0224 AA67F006 		.word	116418474
 532 0228 A698C8A2 		.word	-1563912026
 533 022c C57D630A 		.word	174292421
 534 0230 AE0DF9BE 		.word	-1090974290
 535 0234 04983F11 		.word	289380356
 536 0238 1B471C13 		.word	320620315
 537 023c 350B711B 		.word	460393269
 538 0240 847D0423 		.word	587496836
 539 0244 F577DB28 		.word	685471733
 540 0248 9324C740 		.word	1086792851
 541 024c 7BABCA32 		.word	852142971
 542 0250 BCBEC915 		.word	365543100
 543 0254 0ABE9E3C 		.word	1017036298
 544 0258 4C0D109C 		.word	-1676669620
 545 025c C4671D43 		.word	1126000580
 546 0260 B6423ECB 		.word	-885112138
 547 0264 BED4C54C 		.word	1288033470
 548 0268 2A7E65FC 		.word	-60457430
 549 026c 9C297F59 		.word	1501505948
 550 0270 ECFAD63A 		.word	987167468
 551 0274 AB6FCB5F 		.word	1607167915
 552 0278 1758474A 		.word	1246189591
 553 027c 8C19446C 		.word	1816402316
 554              		.section	.text.mbedtls_internal_sha512_process,"ax",%progbits
 555              		.align	1
 556              		.global	mbedtls_internal_sha512_process
 557              		.syntax unified
 558              		.thumb
 559              		.thumb_func
 560              		.fpu fpv4-sp-d16
 562              	mbedtls_internal_sha512_process:
 563              	.LFB8:
 166:C:/Users/dtjld/workspace/AIoT/src/LiteOS_Lab/iot_link/network/dtls/mbedtls/mbedtls-2.16.2/library\sha512.c **** #endif
 167:C:/Users/dtjld/workspace/AIoT/src/LiteOS_Lab/iot_link/network/dtls/mbedtls/mbedtls-2.16.2/library\sha512.c **** 
 168:C:/Users/dtjld/workspace/AIoT/src/LiteOS_Lab/iot_link/network/dtls/mbedtls/mbedtls-2.16.2/library\sha512.c **** #if !defined(MBEDTLS_SHA512_PROCESS_ALT)
 169:C:/Users/dtjld/workspace/AIoT/src/LiteOS_Lab/iot_link/network/dtls/mbedtls/mbedtls-2.16.2/library\sha512.c **** 
 170:C:/Users/dtjld/workspace/AIoT/src/LiteOS_Lab/iot_link/network/dtls/mbedtls/mbedtls-2.16.2/library\sha512.c **** /*
 171:C:/Users/dtjld/workspace/AIoT/src/LiteOS_Lab/iot_link/network/dtls/mbedtls/mbedtls-2.16.2/library\sha512.c ****  * Round constants
 172:C:/Users/dtjld/workspace/AIoT/src/LiteOS_Lab/iot_link/network/dtls/mbedtls/mbedtls-2.16.2/library\sha512.c ****  */
 173:C:/Users/dtjld/workspace/AIoT/src/LiteOS_Lab/iot_link/network/dtls/mbedtls/mbedtls-2.16.2/library\sha512.c **** static const uint64_t K[80] =
 174:C:/Users/dtjld/workspace/AIoT/src/LiteOS_Lab/iot_link/network/dtls/mbedtls/mbedtls-2.16.2/library\sha512.c **** {
 175:C:/Users/dtjld/workspace/AIoT/src/LiteOS_Lab/iot_link/network/dtls/mbedtls/mbedtls-2.16.2/library\sha512.c ****     UL64(0x428A2F98D728AE22),  UL64(0x7137449123EF65CD),
 176:C:/Users/dtjld/workspace/AIoT/src/LiteOS_Lab/iot_link/network/dtls/mbedtls/mbedtls-2.16.2/library\sha512.c ****     UL64(0xB5C0FBCFEC4D3B2F),  UL64(0xE9B5DBA58189DBBC),
 177:C:/Users/dtjld/workspace/AIoT/src/LiteOS_Lab/iot_link/network/dtls/mbedtls/mbedtls-2.16.2/library\sha512.c ****     UL64(0x3956C25BF348B538),  UL64(0x59F111F1B605D019),
 178:C:/Users/dtjld/workspace/AIoT/src/LiteOS_Lab/iot_link/network/dtls/mbedtls/mbedtls-2.16.2/library\sha512.c ****     UL64(0x923F82A4AF194F9B),  UL64(0xAB1C5ED5DA6D8118),
 179:C:/Users/dtjld/workspace/AIoT/src/LiteOS_Lab/iot_link/network/dtls/mbedtls/mbedtls-2.16.2/library\sha512.c ****     UL64(0xD807AA98A3030242),  UL64(0x12835B0145706FBE),
 180:C:/Users/dtjld/workspace/AIoT/src/LiteOS_Lab/iot_link/network/dtls/mbedtls/mbedtls-2.16.2/library\sha512.c ****     UL64(0x243185BE4EE4B28C),  UL64(0x550C7DC3D5FFB4E2),
 181:C:/Users/dtjld/workspace/AIoT/src/LiteOS_Lab/iot_link/network/dtls/mbedtls/mbedtls-2.16.2/library\sha512.c ****     UL64(0x72BE5D74F27B896F),  UL64(0x80DEB1FE3B1696B1),
 182:C:/Users/dtjld/workspace/AIoT/src/LiteOS_Lab/iot_link/network/dtls/mbedtls/mbedtls-2.16.2/library\sha512.c ****     UL64(0x9BDC06A725C71235),  UL64(0xC19BF174CF692694),
 183:C:/Users/dtjld/workspace/AIoT/src/LiteOS_Lab/iot_link/network/dtls/mbedtls/mbedtls-2.16.2/library\sha512.c ****     UL64(0xE49B69C19EF14AD2),  UL64(0xEFBE4786384F25E3),
 184:C:/Users/dtjld/workspace/AIoT/src/LiteOS_Lab/iot_link/network/dtls/mbedtls/mbedtls-2.16.2/library\sha512.c ****     UL64(0x0FC19DC68B8CD5B5),  UL64(0x240CA1CC77AC9C65),
 185:C:/Users/dtjld/workspace/AIoT/src/LiteOS_Lab/iot_link/network/dtls/mbedtls/mbedtls-2.16.2/library\sha512.c ****     UL64(0x2DE92C6F592B0275),  UL64(0x4A7484AA6EA6E483),
 186:C:/Users/dtjld/workspace/AIoT/src/LiteOS_Lab/iot_link/network/dtls/mbedtls/mbedtls-2.16.2/library\sha512.c ****     UL64(0x5CB0A9DCBD41FBD4),  UL64(0x76F988DA831153B5),
 187:C:/Users/dtjld/workspace/AIoT/src/LiteOS_Lab/iot_link/network/dtls/mbedtls/mbedtls-2.16.2/library\sha512.c ****     UL64(0x983E5152EE66DFAB),  UL64(0xA831C66D2DB43210),
 188:C:/Users/dtjld/workspace/AIoT/src/LiteOS_Lab/iot_link/network/dtls/mbedtls/mbedtls-2.16.2/library\sha512.c ****     UL64(0xB00327C898FB213F),  UL64(0xBF597FC7BEEF0EE4),
 189:C:/Users/dtjld/workspace/AIoT/src/LiteOS_Lab/iot_link/network/dtls/mbedtls/mbedtls-2.16.2/library\sha512.c ****     UL64(0xC6E00BF33DA88FC2),  UL64(0xD5A79147930AA725),
ARM GAS  C:\Users\dtjld\AppData\Local\Temp\cczibexU.s 			page 14


 190:C:/Users/dtjld/workspace/AIoT/src/LiteOS_Lab/iot_link/network/dtls/mbedtls/mbedtls-2.16.2/library\sha512.c ****     UL64(0x06CA6351E003826F),  UL64(0x142929670A0E6E70),
 191:C:/Users/dtjld/workspace/AIoT/src/LiteOS_Lab/iot_link/network/dtls/mbedtls/mbedtls-2.16.2/library\sha512.c ****     UL64(0x27B70A8546D22FFC),  UL64(0x2E1B21385C26C926),
 192:C:/Users/dtjld/workspace/AIoT/src/LiteOS_Lab/iot_link/network/dtls/mbedtls/mbedtls-2.16.2/library\sha512.c ****     UL64(0x4D2C6DFC5AC42AED),  UL64(0x53380D139D95B3DF),
 193:C:/Users/dtjld/workspace/AIoT/src/LiteOS_Lab/iot_link/network/dtls/mbedtls/mbedtls-2.16.2/library\sha512.c ****     UL64(0x650A73548BAF63DE),  UL64(0x766A0ABB3C77B2A8),
 194:C:/Users/dtjld/workspace/AIoT/src/LiteOS_Lab/iot_link/network/dtls/mbedtls/mbedtls-2.16.2/library\sha512.c ****     UL64(0x81C2C92E47EDAEE6),  UL64(0x92722C851482353B),
 195:C:/Users/dtjld/workspace/AIoT/src/LiteOS_Lab/iot_link/network/dtls/mbedtls/mbedtls-2.16.2/library\sha512.c ****     UL64(0xA2BFE8A14CF10364),  UL64(0xA81A664BBC423001),
 196:C:/Users/dtjld/workspace/AIoT/src/LiteOS_Lab/iot_link/network/dtls/mbedtls/mbedtls-2.16.2/library\sha512.c ****     UL64(0xC24B8B70D0F89791),  UL64(0xC76C51A30654BE30),
 197:C:/Users/dtjld/workspace/AIoT/src/LiteOS_Lab/iot_link/network/dtls/mbedtls/mbedtls-2.16.2/library\sha512.c ****     UL64(0xD192E819D6EF5218),  UL64(0xD69906245565A910),
 198:C:/Users/dtjld/workspace/AIoT/src/LiteOS_Lab/iot_link/network/dtls/mbedtls/mbedtls-2.16.2/library\sha512.c ****     UL64(0xF40E35855771202A),  UL64(0x106AA07032BBD1B8),
 199:C:/Users/dtjld/workspace/AIoT/src/LiteOS_Lab/iot_link/network/dtls/mbedtls/mbedtls-2.16.2/library\sha512.c ****     UL64(0x19A4C116B8D2D0C8),  UL64(0x1E376C085141AB53),
 200:C:/Users/dtjld/workspace/AIoT/src/LiteOS_Lab/iot_link/network/dtls/mbedtls/mbedtls-2.16.2/library\sha512.c ****     UL64(0x2748774CDF8EEB99),  UL64(0x34B0BCB5E19B48A8),
 201:C:/Users/dtjld/workspace/AIoT/src/LiteOS_Lab/iot_link/network/dtls/mbedtls/mbedtls-2.16.2/library\sha512.c ****     UL64(0x391C0CB3C5C95A63),  UL64(0x4ED8AA4AE3418ACB),
 202:C:/Users/dtjld/workspace/AIoT/src/LiteOS_Lab/iot_link/network/dtls/mbedtls/mbedtls-2.16.2/library\sha512.c ****     UL64(0x5B9CCA4F7763E373),  UL64(0x682E6FF3D6B2B8A3),
 203:C:/Users/dtjld/workspace/AIoT/src/LiteOS_Lab/iot_link/network/dtls/mbedtls/mbedtls-2.16.2/library\sha512.c ****     UL64(0x748F82EE5DEFB2FC),  UL64(0x78A5636F43172F60),
 204:C:/Users/dtjld/workspace/AIoT/src/LiteOS_Lab/iot_link/network/dtls/mbedtls/mbedtls-2.16.2/library\sha512.c ****     UL64(0x84C87814A1F0AB72),  UL64(0x8CC702081A6439EC),
 205:C:/Users/dtjld/workspace/AIoT/src/LiteOS_Lab/iot_link/network/dtls/mbedtls/mbedtls-2.16.2/library\sha512.c ****     UL64(0x90BEFFFA23631E28),  UL64(0xA4506CEBDE82BDE9),
 206:C:/Users/dtjld/workspace/AIoT/src/LiteOS_Lab/iot_link/network/dtls/mbedtls/mbedtls-2.16.2/library\sha512.c ****     UL64(0xBEF9A3F7B2C67915),  UL64(0xC67178F2E372532B),
 207:C:/Users/dtjld/workspace/AIoT/src/LiteOS_Lab/iot_link/network/dtls/mbedtls/mbedtls-2.16.2/library\sha512.c ****     UL64(0xCA273ECEEA26619C),  UL64(0xD186B8C721C0C207),
 208:C:/Users/dtjld/workspace/AIoT/src/LiteOS_Lab/iot_link/network/dtls/mbedtls/mbedtls-2.16.2/library\sha512.c ****     UL64(0xEADA7DD6CDE0EB1E),  UL64(0xF57D4F7FEE6ED178),
 209:C:/Users/dtjld/workspace/AIoT/src/LiteOS_Lab/iot_link/network/dtls/mbedtls/mbedtls-2.16.2/library\sha512.c ****     UL64(0x06F067AA72176FBA),  UL64(0x0A637DC5A2C898A6),
 210:C:/Users/dtjld/workspace/AIoT/src/LiteOS_Lab/iot_link/network/dtls/mbedtls/mbedtls-2.16.2/library\sha512.c ****     UL64(0x113F9804BEF90DAE),  UL64(0x1B710B35131C471B),
 211:C:/Users/dtjld/workspace/AIoT/src/LiteOS_Lab/iot_link/network/dtls/mbedtls/mbedtls-2.16.2/library\sha512.c ****     UL64(0x28DB77F523047D84),  UL64(0x32CAAB7B40C72493),
 212:C:/Users/dtjld/workspace/AIoT/src/LiteOS_Lab/iot_link/network/dtls/mbedtls/mbedtls-2.16.2/library\sha512.c ****     UL64(0x3C9EBE0A15C9BEBC),  UL64(0x431D67C49C100D4C),
 213:C:/Users/dtjld/workspace/AIoT/src/LiteOS_Lab/iot_link/network/dtls/mbedtls/mbedtls-2.16.2/library\sha512.c ****     UL64(0x4CC5D4BECB3E42B6),  UL64(0x597F299CFC657E2A),
 214:C:/Users/dtjld/workspace/AIoT/src/LiteOS_Lab/iot_link/network/dtls/mbedtls/mbedtls-2.16.2/library\sha512.c ****     UL64(0x5FCB6FAB3AD6FAEC),  UL64(0x6C44198C4A475817)
 215:C:/Users/dtjld/workspace/AIoT/src/LiteOS_Lab/iot_link/network/dtls/mbedtls/mbedtls-2.16.2/library\sha512.c **** };
 216:C:/Users/dtjld/workspace/AIoT/src/LiteOS_Lab/iot_link/network/dtls/mbedtls/mbedtls-2.16.2/library\sha512.c **** 
 217:C:/Users/dtjld/workspace/AIoT/src/LiteOS_Lab/iot_link/network/dtls/mbedtls/mbedtls-2.16.2/library\sha512.c **** int mbedtls_internal_sha512_process( mbedtls_sha512_context *ctx,
 218:C:/Users/dtjld/workspace/AIoT/src/LiteOS_Lab/iot_link/network/dtls/mbedtls/mbedtls-2.16.2/library\sha512.c ****                                      const unsigned char data[128] )
 219:C:/Users/dtjld/workspace/AIoT/src/LiteOS_Lab/iot_link/network/dtls/mbedtls/mbedtls-2.16.2/library\sha512.c **** {
 564              		.loc 1 219 0
 565              		.cfi_startproc
 566              		@ args = 0, pretend = 0, frame = 1144
 567              		@ frame_needed = 1, uses_anonymous_args = 0
 568              		@ link register save eliminated.
 569 0000 2DE9F00F 		push	{r4, r5, r6, r7, r8, r9, r10, fp}
 570              	.LCFI26:
 571              		.cfi_def_cfa_offset 32
 572              		.cfi_offset 4, -32
 573              		.cfi_offset 5, -28
 574              		.cfi_offset 6, -24
 575              		.cfi_offset 7, -20
 576              		.cfi_offset 8, -16
 577              		.cfi_offset 9, -12
 578              		.cfi_offset 10, -8
 579              		.cfi_offset 11, -4
 580 0004 ADF58F6D 		sub	sp, sp, #1144
 581              	.LCFI27:
 582              		.cfi_def_cfa_offset 1176
 583 0008 00AF     		add	r7, sp, #0
 584              	.LCFI28:
 585              		.cfi_def_cfa_register 7
 586 000a 07F5CE73 		add	r3, r7, #412
 587 000e 1860     		str	r0, [r3]
 588 0010 07F5CC73 		add	r3, r7, #408
 589 0014 1960     		str	r1, [r3]
 220:C:/Users/dtjld/workspace/AIoT/src/LiteOS_Lab/iot_link/network/dtls/mbedtls/mbedtls-2.16.2/library\sha512.c ****     int i;
ARM GAS  C:\Users\dtjld\AppData\Local\Temp\cczibexU.s 			page 15


 221:C:/Users/dtjld/workspace/AIoT/src/LiteOS_Lab/iot_link/network/dtls/mbedtls/mbedtls-2.16.2/library\sha512.c ****     uint64_t temp1, temp2, W[80];
 222:C:/Users/dtjld/workspace/AIoT/src/LiteOS_Lab/iot_link/network/dtls/mbedtls/mbedtls-2.16.2/library\sha512.c ****     uint64_t A, B, C, D, E, F, G, H;
 223:C:/Users/dtjld/workspace/AIoT/src/LiteOS_Lab/iot_link/network/dtls/mbedtls/mbedtls-2.16.2/library\sha512.c **** 
 224:C:/Users/dtjld/workspace/AIoT/src/LiteOS_Lab/iot_link/network/dtls/mbedtls/mbedtls-2.16.2/library\sha512.c ****     SHA512_VALIDATE_RET( ctx != NULL );
 225:C:/Users/dtjld/workspace/AIoT/src/LiteOS_Lab/iot_link/network/dtls/mbedtls/mbedtls-2.16.2/library\sha512.c ****     SHA512_VALIDATE_RET( (const unsigned char *)data != NULL );
 226:C:/Users/dtjld/workspace/AIoT/src/LiteOS_Lab/iot_link/network/dtls/mbedtls/mbedtls-2.16.2/library\sha512.c **** 
 227:C:/Users/dtjld/workspace/AIoT/src/LiteOS_Lab/iot_link/network/dtls/mbedtls/mbedtls-2.16.2/library\sha512.c **** #define  SHR(x,n) ((x) >> (n))
 228:C:/Users/dtjld/workspace/AIoT/src/LiteOS_Lab/iot_link/network/dtls/mbedtls/mbedtls-2.16.2/library\sha512.c **** #define ROTR(x,n) (SHR((x),(n)) | ((x) << (64 - (n))))
 229:C:/Users/dtjld/workspace/AIoT/src/LiteOS_Lab/iot_link/network/dtls/mbedtls/mbedtls-2.16.2/library\sha512.c **** 
 230:C:/Users/dtjld/workspace/AIoT/src/LiteOS_Lab/iot_link/network/dtls/mbedtls/mbedtls-2.16.2/library\sha512.c **** #define S0(x) (ROTR(x, 1) ^ ROTR(x, 8) ^  SHR(x, 7))
 231:C:/Users/dtjld/workspace/AIoT/src/LiteOS_Lab/iot_link/network/dtls/mbedtls/mbedtls-2.16.2/library\sha512.c **** #define S1(x) (ROTR(x,19) ^ ROTR(x,61) ^  SHR(x, 6))
 232:C:/Users/dtjld/workspace/AIoT/src/LiteOS_Lab/iot_link/network/dtls/mbedtls/mbedtls-2.16.2/library\sha512.c **** 
 233:C:/Users/dtjld/workspace/AIoT/src/LiteOS_Lab/iot_link/network/dtls/mbedtls/mbedtls-2.16.2/library\sha512.c **** #define S2(x) (ROTR(x,28) ^ ROTR(x,34) ^ ROTR(x,39))
 234:C:/Users/dtjld/workspace/AIoT/src/LiteOS_Lab/iot_link/network/dtls/mbedtls/mbedtls-2.16.2/library\sha512.c **** #define S3(x) (ROTR(x,14) ^ ROTR(x,18) ^ ROTR(x,41))
 235:C:/Users/dtjld/workspace/AIoT/src/LiteOS_Lab/iot_link/network/dtls/mbedtls/mbedtls-2.16.2/library\sha512.c **** 
 236:C:/Users/dtjld/workspace/AIoT/src/LiteOS_Lab/iot_link/network/dtls/mbedtls/mbedtls-2.16.2/library\sha512.c **** #define F0(x,y,z) (((x) & (y)) | ((z) & ((x) | (y))))
 237:C:/Users/dtjld/workspace/AIoT/src/LiteOS_Lab/iot_link/network/dtls/mbedtls/mbedtls-2.16.2/library\sha512.c **** #define F1(x,y,z) ((z) ^ ((x) & ((y) ^ (z))))
 238:C:/Users/dtjld/workspace/AIoT/src/LiteOS_Lab/iot_link/network/dtls/mbedtls/mbedtls-2.16.2/library\sha512.c **** 
 239:C:/Users/dtjld/workspace/AIoT/src/LiteOS_Lab/iot_link/network/dtls/mbedtls/mbedtls-2.16.2/library\sha512.c **** #define P(a,b,c,d,e,f,g,h,x,K)                                  \
 240:C:/Users/dtjld/workspace/AIoT/src/LiteOS_Lab/iot_link/network/dtls/mbedtls/mbedtls-2.16.2/library\sha512.c ****     do                                                          \
 241:C:/Users/dtjld/workspace/AIoT/src/LiteOS_Lab/iot_link/network/dtls/mbedtls/mbedtls-2.16.2/library\sha512.c ****     {                                                           \
 242:C:/Users/dtjld/workspace/AIoT/src/LiteOS_Lab/iot_link/network/dtls/mbedtls/mbedtls-2.16.2/library\sha512.c ****         temp1 = (h) + S3(e) + F1((e),(f),(g)) + (K) + (x);      \
 243:C:/Users/dtjld/workspace/AIoT/src/LiteOS_Lab/iot_link/network/dtls/mbedtls/mbedtls-2.16.2/library\sha512.c ****         temp2 = S2(a) + F0((a),(b),(c));                        \
 244:C:/Users/dtjld/workspace/AIoT/src/LiteOS_Lab/iot_link/network/dtls/mbedtls/mbedtls-2.16.2/library\sha512.c ****         (d) += temp1; (h) = temp1 + temp2;                      \
 245:C:/Users/dtjld/workspace/AIoT/src/LiteOS_Lab/iot_link/network/dtls/mbedtls/mbedtls-2.16.2/library\sha512.c ****     } while( 0 )
 246:C:/Users/dtjld/workspace/AIoT/src/LiteOS_Lab/iot_link/network/dtls/mbedtls/mbedtls-2.16.2/library\sha512.c **** 
 247:C:/Users/dtjld/workspace/AIoT/src/LiteOS_Lab/iot_link/network/dtls/mbedtls/mbedtls-2.16.2/library\sha512.c ****     for( i = 0; i < 16; i++ )
 590              		.loc 1 247 0
 591 0016 0023     		movs	r3, #0
 592 0018 C7F87434 		str	r3, [r7, #1140]
 593 001c BCE0     		b	.L15
 594              	.L16:
 248:C:/Users/dtjld/workspace/AIoT/src/LiteOS_Lab/iot_link/network/dtls/mbedtls/mbedtls-2.16.2/library\sha512.c ****     {
 249:C:/Users/dtjld/workspace/AIoT/src/LiteOS_Lab/iot_link/network/dtls/mbedtls/mbedtls-2.16.2/library\sha512.c ****         GET_UINT64_BE( W[i], data, i << 3 );
 595              		.loc 1 249 0 discriminator 3
 596 001e D7F87434 		ldr	r3, [r7, #1140]
 597 0022 DB00     		lsls	r3, r3, #3
 598 0024 1A46     		mov	r2, r3
 599 0026 07F5CC73 		add	r3, r7, #408
 600 002a 1B68     		ldr	r3, [r3]
 601 002c 1344     		add	r3, r3, r2
 602 002e 1B78     		ldrb	r3, [r3]	@ zero_extendqisi2
 603 0030 DBB2     		uxtb	r3, r3
 604 0032 4FF00004 		mov	r4, #0
 605 0036 4FF00005 		mov	r5, #0
 606 003a 4FF00006 		mov	r6, #0
 607 003e 1E06     		lsls	r6, r3, #24
 608 0040 0025     		movs	r5, #0
 609 0042 D7F87434 		ldr	r3, [r7, #1140]
 610 0046 DB00     		lsls	r3, r3, #3
 611 0048 5A1C     		adds	r2, r3, #1
 612 004a 07F5CC73 		add	r3, r7, #408
 613 004e 1B68     		ldr	r3, [r3]
 614 0050 1344     		add	r3, r3, r2
 615 0052 1B78     		ldrb	r3, [r3]	@ zero_extendqisi2
 616 0054 DBB2     		uxtb	r3, r3
 617 0056 4FF00004 		mov	r4, #0
ARM GAS  C:\Users\dtjld\AppData\Local\Temp\cczibexU.s 			page 16


 618 005a 4FF00001 		mov	r1, #0
 619 005e 4FF00002 		mov	r2, #0
 620 0062 1A04     		lsls	r2, r3, #16
 621 0064 0021     		movs	r1, #0
 622 0066 45EA0103 		orr	r3, r5, r1
 623 006a 46EA0204 		orr	r4, r6, r2
 624 006e 1D46     		mov	r5, r3
 625 0070 2646     		mov	r6, r4
 626 0072 D7F87434 		ldr	r3, [r7, #1140]
 627 0076 DB00     		lsls	r3, r3, #3
 628 0078 9A1C     		adds	r2, r3, #2
 629 007a 07F5CC73 		add	r3, r7, #408
 630 007e 1B68     		ldr	r3, [r3]
 631 0080 1344     		add	r3, r3, r2
 632 0082 1B78     		ldrb	r3, [r3]	@ zero_extendqisi2
 633 0084 DBB2     		uxtb	r3, r3
 634 0086 4FF00004 		mov	r4, #0
 635 008a 4FF00001 		mov	r1, #0
 636 008e 4FF00002 		mov	r2, #0
 637 0092 1A02     		lsls	r2, r3, #8
 638 0094 0021     		movs	r1, #0
 639 0096 45EA0105 		orr	r5, r5, r1
 640 009a 46EA0206 		orr	r6, r6, r2
 641 009e D7F87434 		ldr	r3, [r7, #1140]
 642 00a2 DB00     		lsls	r3, r3, #3
 643 00a4 DA1C     		adds	r2, r3, #3
 644 00a6 07F5CC73 		add	r3, r7, #408
 645 00aa 1B68     		ldr	r3, [r3]
 646 00ac 1344     		add	r3, r3, r2
 647 00ae 1B78     		ldrb	r3, [r3]	@ zero_extendqisi2
 648 00b0 DBB2     		uxtb	r3, r3
 649 00b2 4FF00004 		mov	r4, #0
 650 00b6 4FF00001 		mov	r1, #0
 651 00ba 4FF00002 		mov	r2, #0
 652 00be 1A00     		movs	r2, r3
 653 00c0 0021     		movs	r1, #0
 654 00c2 45EA0103 		orr	r3, r5, r1
 655 00c6 46EA0204 		orr	r4, r6, r2
 656 00ca 1846     		mov	r0, r3
 657 00cc 2146     		mov	r1, r4
 658 00ce D7F87434 		ldr	r3, [r7, #1140]
 659 00d2 DB00     		lsls	r3, r3, #3
 660 00d4 1A1D     		adds	r2, r3, #4
 661 00d6 07F5CC73 		add	r3, r7, #408
 662 00da 1B68     		ldr	r3, [r3]
 663 00dc 1344     		add	r3, r3, r2
 664 00de 1B78     		ldrb	r3, [r3]	@ zero_extendqisi2
 665 00e0 DBB2     		uxtb	r3, r3
 666 00e2 4FF00004 		mov	r4, #0
 667 00e6 4FEA1329 		lsr	r9, r3, #8
 668 00ea 4FEA0368 		lsl	r8, r3, #24
 669 00ee 40EA0805 		orr	r5, r0, r8
 670 00f2 41EA0906 		orr	r6, r1, r9
 671 00f6 D7F87434 		ldr	r3, [r7, #1140]
 672 00fa DB00     		lsls	r3, r3, #3
 673 00fc 5A1D     		adds	r2, r3, #5
 674 00fe 07F5CC73 		add	r3, r7, #408
ARM GAS  C:\Users\dtjld\AppData\Local\Temp\cczibexU.s 			page 17


 675 0102 1B68     		ldr	r3, [r3]
 676 0104 1344     		add	r3, r3, r2
 677 0106 1B78     		ldrb	r3, [r3]	@ zero_extendqisi2
 678 0108 DBB2     		uxtb	r3, r3
 679 010a 4FF00004 		mov	r4, #0
 680 010e 4FF00001 		mov	r1, #0
 681 0112 4FF00002 		mov	r2, #0
 682 0116 2204     		lsls	r2, r4, #16
 683 0118 42EA1342 		orr	r2, r2, r3, lsr #16
 684 011c 1904     		lsls	r1, r3, #16
 685 011e 45EA0105 		orr	r5, r5, r1
 686 0122 46EA0206 		orr	r6, r6, r2
 687 0126 D7F87434 		ldr	r3, [r7, #1140]
 688 012a DB00     		lsls	r3, r3, #3
 689 012c 9A1D     		adds	r2, r3, #6
 690 012e 07F5CC73 		add	r3, r7, #408
 691 0132 1B68     		ldr	r3, [r3]
 692 0134 1344     		add	r3, r3, r2
 693 0136 1B78     		ldrb	r3, [r3]	@ zero_extendqisi2
 694 0138 DBB2     		uxtb	r3, r3
 695 013a 4FF00004 		mov	r4, #0
 696 013e 4FF00001 		mov	r1, #0
 697 0142 4FF00002 		mov	r2, #0
 698 0146 2202     		lsls	r2, r4, #8
 699 0148 42EA1362 		orr	r2, r2, r3, lsr #24
 700 014c 1902     		lsls	r1, r3, #8
 701 014e 45EA0103 		orr	r3, r5, r1
 702 0152 46EA0204 		orr	r4, r6, r2
 703 0156 1846     		mov	r0, r3
 704 0158 2146     		mov	r1, r4
 705 015a D7F87434 		ldr	r3, [r7, #1140]
 706 015e DB00     		lsls	r3, r3, #3
 707 0160 DA1D     		adds	r2, r3, #7
 708 0162 07F5CC73 		add	r3, r7, #408
 709 0166 1B68     		ldr	r3, [r3]
 710 0168 1344     		add	r3, r3, r2
 711 016a 1B78     		ldrb	r3, [r3]	@ zero_extendqisi2
 712 016c DBB2     		uxtb	r3, r3
 713 016e 4FF00004 		mov	r4, #0
 714 0172 40EA0305 		orr	r5, r0, r3
 715 0176 41EA0406 		orr	r6, r1, r4
 716 017a 2946     		mov	r1, r5
 717 017c 3246     		mov	r2, r6
 718 017e 07F5D070 		add	r0, r7, #416
 719 0182 D7F87434 		ldr	r3, [r7, #1140]
 720 0186 DB00     		lsls	r3, r3, #3
 721 0188 0344     		add	r3, r3, r0
 722 018a C3E90012 		strd	r1, [r3]
 247:C:/Users/dtjld/workspace/AIoT/src/LiteOS_Lab/iot_link/network/dtls/mbedtls/mbedtls-2.16.2/library\sha512.c ****     {
 723              		.loc 1 247 0 discriminator 3
 724 018e D7F87434 		ldr	r3, [r7, #1140]
 725 0192 0133     		adds	r3, r3, #1
 726 0194 C7F87434 		str	r3, [r7, #1140]
 727              	.L15:
 247:C:/Users/dtjld/workspace/AIoT/src/LiteOS_Lab/iot_link/network/dtls/mbedtls/mbedtls-2.16.2/library\sha512.c ****     {
 728              		.loc 1 247 0 is_stmt 0 discriminator 1
 729 0198 D7F87434 		ldr	r3, [r7, #1140]
ARM GAS  C:\Users\dtjld\AppData\Local\Temp\cczibexU.s 			page 18


 730 019c 0F2B     		cmp	r3, #15
 731 019e 7FF73EAF 		ble	.L16
 250:C:/Users/dtjld/workspace/AIoT/src/LiteOS_Lab/iot_link/network/dtls/mbedtls/mbedtls-2.16.2/library\sha512.c ****     }
 251:C:/Users/dtjld/workspace/AIoT/src/LiteOS_Lab/iot_link/network/dtls/mbedtls/mbedtls-2.16.2/library\sha512.c **** 
 252:C:/Users/dtjld/workspace/AIoT/src/LiteOS_Lab/iot_link/network/dtls/mbedtls/mbedtls-2.16.2/library\sha512.c ****     for( ; i < 80; i++ )
 732              		.loc 1 252 0 is_stmt 1
 733 01a2 B5E0     		b	.L17
 734              	.L18:
 253:C:/Users/dtjld/workspace/AIoT/src/LiteOS_Lab/iot_link/network/dtls/mbedtls/mbedtls-2.16.2/library\sha512.c ****     {
 254:C:/Users/dtjld/workspace/AIoT/src/LiteOS_Lab/iot_link/network/dtls/mbedtls/mbedtls-2.16.2/library\sha512.c ****         W[i] = S1(W[i -  2]) + W[i -  7] +
 735              		.loc 1 254 0 discriminator 2
 736 01a4 D7F87434 		ldr	r3, [r7, #1140]
 737 01a8 023B     		subs	r3, r3, #2
 738 01aa 07F5D072 		add	r2, r7, #416
 739 01ae DB00     		lsls	r3, r3, #3
 740 01b0 1344     		add	r3, r3, r2
 741 01b2 D3E90034 		ldrd	r3, [r3]
 742 01b6 6103     		lsls	r1, r4, #13
 743 01b8 DA0C     		lsrs	r2, r3, #19
 744 01ba 0A43     		orrs	r2, r2, r1
 745 01bc C7F89021 		str	r2, [r7, #400]
 746 01c0 5A03     		lsls	r2, r3, #13
 747 01c2 E30C     		lsrs	r3, r4, #19
 748 01c4 1343     		orrs	r3, r3, r2
 749 01c6 C7F89431 		str	r3, [r7, #404]
 750 01ca D7F87434 		ldr	r3, [r7, #1140]
 751 01ce 023B     		subs	r3, r3, #2
 752 01d0 07F5D072 		add	r2, r7, #416
 753 01d4 DB00     		lsls	r3, r3, #3
 754 01d6 1344     		add	r3, r3, r2
 755 01d8 D3E90034 		ldrd	r3, [r3]
 756 01dc 590F     		lsrs	r1, r3, #29
 757 01de E200     		lsls	r2, r4, #3
 758 01e0 0A43     		orrs	r2, r2, r1
 759 01e2 C7F88C21 		str	r2, [r7, #396]
 760 01e6 620F     		lsrs	r2, r4, #29
 761 01e8 DB00     		lsls	r3, r3, #3
 762 01ea 1343     		orrs	r3, r3, r2
 763 01ec C7F88831 		str	r3, [r7, #392]
 764 01f0 07F5C873 		add	r3, r7, #400
 765 01f4 D3E90056 		ldrd	r5, [r3]
 766 01f8 07F5C473 		add	r3, r7, #392
 767 01fc D3E90034 		ldrd	r3, [r3]
 768 0200 85EA0305 		eor	r5, r5, r3
 769 0204 86EA0406 		eor	r6, r6, r4
 770 0208 D7F87434 		ldr	r3, [r7, #1140]
 771 020c 023B     		subs	r3, r3, #2
 772 020e 07F5D072 		add	r2, r7, #416
 773 0212 DB00     		lsls	r3, r3, #3
 774 0214 1344     		add	r3, r3, r2
 775 0216 D3E90034 		ldrd	r3, [r3]
 776 021a 4FF00001 		mov	r1, #0
 777 021e 4FF00002 		mov	r2, #0
 778 0222 9909     		lsrs	r1, r3, #6
 779 0224 41EA8461 		orr	r1, r1, r4, lsl #26
 780 0228 A209     		lsrs	r2, r4, #6
 781 022a 85EA0103 		eor	r3, r5, r1
ARM GAS  C:\Users\dtjld\AppData\Local\Temp\cczibexU.s 			page 19


 782 022e 86EA0204 		eor	r4, r6, r2
 783 0232 1846     		mov	r0, r3
 784 0234 2146     		mov	r1, r4
 785 0236 D7F87434 		ldr	r3, [r7, #1140]
 786 023a 073B     		subs	r3, r3, #7
 787 023c 07F5D072 		add	r2, r7, #416
 788 0240 DB00     		lsls	r3, r3, #3
 789 0242 1344     		add	r3, r3, r2
 790 0244 D3E90034 		ldrd	r3, [r3]
 791 0248 10EB0308 		adds	r8, r0, r3
 792 024c 41EB0409 		adc	r9, r1, r4
 255:C:/Users/dtjld/workspace/AIoT/src/LiteOS_Lab/iot_link/network/dtls/mbedtls/mbedtls-2.16.2/library\sha512.c ****                S0(W[i - 15]) + W[i - 16];
 793              		.loc 1 255 0 discriminator 2
 794 0250 D7F87434 		ldr	r3, [r7, #1140]
 795 0254 0F3B     		subs	r3, r3, #15
 796 0256 07F5D072 		add	r2, r7, #416
 797 025a DB00     		lsls	r3, r3, #3
 798 025c 1344     		add	r3, r3, r2
 799 025e D3E90034 		ldrd	r3, [r3]
 800 0262 E107     		lsls	r1, r4, #31
 801 0264 5A08     		lsrs	r2, r3, #1
 802 0266 0A43     		orrs	r2, r2, r1
 803 0268 C7F88021 		str	r2, [r7, #384]
 804 026c DA07     		lsls	r2, r3, #31
 805 026e 6308     		lsrs	r3, r4, #1
 806 0270 1343     		orrs	r3, r3, r2
 807 0272 C7F88431 		str	r3, [r7, #388]
 808 0276 D7F87434 		ldr	r3, [r7, #1140]
 809 027a 0F3B     		subs	r3, r3, #15
 810 027c 07F5D072 		add	r2, r7, #416
 811 0280 DB00     		lsls	r3, r3, #3
 812 0282 1344     		add	r3, r3, r2
 813 0284 D3E90034 		ldrd	r3, [r3]
 814 0288 2106     		lsls	r1, r4, #24
 815 028a 1A0A     		lsrs	r2, r3, #8
 816 028c 41EA020A 		orr	r10, r1, r2
 817 0290 1A06     		lsls	r2, r3, #24
 818 0292 230A     		lsrs	r3, r4, #8
 819 0294 42EA030B 		orr	fp, r2, r3
 820 0298 07F5C073 		add	r3, r7, #384
 821 029c D3E90056 		ldrd	r5, [r3]
 822 02a0 85EA0A05 		eor	r5, r5, r10
 823 02a4 86EA0B06 		eor	r6, r6, fp
 824 02a8 D7F87434 		ldr	r3, [r7, #1140]
 825 02ac 0F3B     		subs	r3, r3, #15
 826 02ae 07F5D072 		add	r2, r7, #416
 827 02b2 DB00     		lsls	r3, r3, #3
 828 02b4 1344     		add	r3, r3, r2
 829 02b6 D3E90034 		ldrd	r3, [r3]
 830 02ba 4FF00001 		mov	r1, #0
 831 02be 4FF00002 		mov	r2, #0
 832 02c2 D909     		lsrs	r1, r3, #7
 833 02c4 41EA4461 		orr	r1, r1, r4, lsl #25
 834 02c8 E209     		lsrs	r2, r4, #7
 835 02ca 85EA0103 		eor	r3, r5, r1
 836 02ce 86EA0204 		eor	r4, r6, r2
 254:C:/Users/dtjld/workspace/AIoT/src/LiteOS_Lab/iot_link/network/dtls/mbedtls/mbedtls-2.16.2/library\sha512.c ****                S0(W[i - 15]) + W[i - 16];
ARM GAS  C:\Users\dtjld\AppData\Local\Temp\cczibexU.s 			page 20


 837              		.loc 1 254 0 discriminator 2
 838 02d2 18EB0300 		adds	r0, r8, r3
 839 02d6 49EB0401 		adc	r1, r9, r4
 840              		.loc 1 255 0 discriminator 2
 841 02da D7F87434 		ldr	r3, [r7, #1140]
 842 02de 103B     		subs	r3, r3, #16
 843 02e0 07F5D072 		add	r2, r7, #416
 844 02e4 DB00     		lsls	r3, r3, #3
 845 02e6 1344     		add	r3, r3, r2
 846 02e8 D3E90034 		ldrd	r3, [r3]
 847 02ec C518     		adds	r5, r0, r3
 848 02ee 41EB0406 		adc	r6, r1, r4
 849 02f2 2946     		mov	r1, r5
 850 02f4 3246     		mov	r2, r6
 254:C:/Users/dtjld/workspace/AIoT/src/LiteOS_Lab/iot_link/network/dtls/mbedtls/mbedtls-2.16.2/library\sha512.c ****                S0(W[i - 15]) + W[i - 16];
 851              		.loc 1 254 0 discriminator 2
 852 02f6 07F5D070 		add	r0, r7, #416
 853 02fa D7F87434 		ldr	r3, [r7, #1140]
 854 02fe DB00     		lsls	r3, r3, #3
 855 0300 0344     		add	r3, r3, r0
 856 0302 C3E90012 		strd	r1, [r3]
 252:C:/Users/dtjld/workspace/AIoT/src/LiteOS_Lab/iot_link/network/dtls/mbedtls/mbedtls-2.16.2/library\sha512.c ****     {
 857              		.loc 1 252 0 discriminator 2
 858 0306 D7F87434 		ldr	r3, [r7, #1140]
 859 030a 0133     		adds	r3, r3, #1
 860 030c C7F87434 		str	r3, [r7, #1140]
 861              	.L17:
 252:C:/Users/dtjld/workspace/AIoT/src/LiteOS_Lab/iot_link/network/dtls/mbedtls/mbedtls-2.16.2/library\sha512.c ****     {
 862              		.loc 1 252 0 is_stmt 0 discriminator 1
 863 0310 D7F87434 		ldr	r3, [r7, #1140]
 864 0314 4F2B     		cmp	r3, #79
 865 0316 7FF745AF 		ble	.L18
 256:C:/Users/dtjld/workspace/AIoT/src/LiteOS_Lab/iot_link/network/dtls/mbedtls/mbedtls-2.16.2/library\sha512.c ****     }
 257:C:/Users/dtjld/workspace/AIoT/src/LiteOS_Lab/iot_link/network/dtls/mbedtls/mbedtls-2.16.2/library\sha512.c **** 
 258:C:/Users/dtjld/workspace/AIoT/src/LiteOS_Lab/iot_link/network/dtls/mbedtls/mbedtls-2.16.2/library\sha512.c ****     A = ctx->state[0];
 866              		.loc 1 258 0 is_stmt 1
 867 031a 07F5CE73 		add	r3, r7, #412
 868 031e 1B68     		ldr	r3, [r3]
 869 0320 D3E90434 		ldrd	r3, [r3, #16]
 870 0324 07F58D62 		add	r2, r7, #1128
 871 0328 C2E90034 		strd	r3, [r2]
 259:C:/Users/dtjld/workspace/AIoT/src/LiteOS_Lab/iot_link/network/dtls/mbedtls/mbedtls-2.16.2/library\sha512.c ****     B = ctx->state[1];
 872              		.loc 1 259 0
 873 032c 07F5CE73 		add	r3, r7, #412
 874 0330 1B68     		ldr	r3, [r3]
 875 0332 D3E90634 		ldrd	r3, [r3, #24]
 876 0336 07F58C62 		add	r2, r7, #1120
 877 033a C2E90034 		strd	r3, [r2]
 260:C:/Users/dtjld/workspace/AIoT/src/LiteOS_Lab/iot_link/network/dtls/mbedtls/mbedtls-2.16.2/library\sha512.c ****     C = ctx->state[2];
 878              		.loc 1 260 0
 879 033e 07F5CE73 		add	r3, r7, #412
 880 0342 1B68     		ldr	r3, [r3]
 881 0344 D3E90834 		ldrd	r3, [r3, #32]
 882 0348 07F58B62 		add	r2, r7, #1112
 883 034c C2E90034 		strd	r3, [r2]
 261:C:/Users/dtjld/workspace/AIoT/src/LiteOS_Lab/iot_link/network/dtls/mbedtls/mbedtls-2.16.2/library\sha512.c ****     D = ctx->state[3];
 884              		.loc 1 261 0
ARM GAS  C:\Users\dtjld\AppData\Local\Temp\cczibexU.s 			page 21


 885 0350 07F5CE73 		add	r3, r7, #412
 886 0354 1B68     		ldr	r3, [r3]
 887 0356 D3E90A34 		ldrd	r3, [r3, #40]
 888 035a 07F58A62 		add	r2, r7, #1104
 889 035e C2E90034 		strd	r3, [r2]
 262:C:/Users/dtjld/workspace/AIoT/src/LiteOS_Lab/iot_link/network/dtls/mbedtls/mbedtls-2.16.2/library\sha512.c ****     E = ctx->state[4];
 890              		.loc 1 262 0
 891 0362 07F5CE73 		add	r3, r7, #412
 892 0366 1B68     		ldr	r3, [r3]
 893 0368 D3E90C34 		ldrd	r3, [r3, #48]
 894 036c 07F58962 		add	r2, r7, #1096
 895 0370 C2E90034 		strd	r3, [r2]
 263:C:/Users/dtjld/workspace/AIoT/src/LiteOS_Lab/iot_link/network/dtls/mbedtls/mbedtls-2.16.2/library\sha512.c ****     F = ctx->state[5];
 896              		.loc 1 263 0
 897 0374 07F5CE73 		add	r3, r7, #412
 898 0378 1B68     		ldr	r3, [r3]
 899 037a D3E90E34 		ldrd	r3, [r3, #56]
 900 037e 07F58862 		add	r2, r7, #1088
 901 0382 C2E90034 		strd	r3, [r2]
 264:C:/Users/dtjld/workspace/AIoT/src/LiteOS_Lab/iot_link/network/dtls/mbedtls/mbedtls-2.16.2/library\sha512.c ****     G = ctx->state[6];
 902              		.loc 1 264 0
 903 0386 07F5CE73 		add	r3, r7, #412
 904 038a 1B68     		ldr	r3, [r3]
 905 038c D3E91034 		ldrd	r3, [r3, #64]
 906 0390 07F58762 		add	r2, r7, #1080
 907 0394 C2E90034 		strd	r3, [r2]
 265:C:/Users/dtjld/workspace/AIoT/src/LiteOS_Lab/iot_link/network/dtls/mbedtls/mbedtls-2.16.2/library\sha512.c ****     H = ctx->state[7];
 908              		.loc 1 265 0
 909 0398 07F5CE73 		add	r3, r7, #412
 910 039c 1B68     		ldr	r3, [r3]
 911 039e D3E91234 		ldrd	r3, [r3, #72]
 912 03a2 07F58662 		add	r2, r7, #1072
 913 03a6 C2E90034 		strd	r3, [r2]
 266:C:/Users/dtjld/workspace/AIoT/src/LiteOS_Lab/iot_link/network/dtls/mbedtls/mbedtls-2.16.2/library\sha512.c ****     i = 0;
 914              		.loc 1 266 0
 915 03aa 0023     		movs	r3, #0
 916 03ac C7F87434 		str	r3, [r7, #1140]
 917              	.L19:
 267:C:/Users/dtjld/workspace/AIoT/src/LiteOS_Lab/iot_link/network/dtls/mbedtls/mbedtls-2.16.2/library\sha512.c **** 
 268:C:/Users/dtjld/workspace/AIoT/src/LiteOS_Lab/iot_link/network/dtls/mbedtls/mbedtls-2.16.2/library\sha512.c ****     do
 269:C:/Users/dtjld/workspace/AIoT/src/LiteOS_Lab/iot_link/network/dtls/mbedtls/mbedtls-2.16.2/library\sha512.c ****     {
 270:C:/Users/dtjld/workspace/AIoT/src/LiteOS_Lab/iot_link/network/dtls/mbedtls/mbedtls-2.16.2/library\sha512.c ****         P( A, B, C, D, E, F, G, H, W[i], K[i] ); i++;
 918              		.loc 1 270 0 discriminator 1
 919 03b0 D7F84C34 		ldr	r3, [r7, #1100]
 920 03b4 9A04     		lsls	r2, r3, #18
 921 03b6 D7F84834 		ldr	r3, [r7, #1096]
 922 03ba 9B0B     		lsrs	r3, r3, #14
 923 03bc 1343     		orrs	r3, r3, r2
 924 03be C7F87831 		str	r3, [r7, #376]
 925 03c2 D7F84834 		ldr	r3, [r7, #1096]
 926 03c6 9A04     		lsls	r2, r3, #18
 927 03c8 D7F84C34 		ldr	r3, [r7, #1100]
 928 03cc 9B0B     		lsrs	r3, r3, #14
 929 03ce 1343     		orrs	r3, r3, r2
 930 03d0 C7F87C31 		str	r3, [r7, #380]
 931 03d4 D7F84C34 		ldr	r3, [r7, #1100]
 932 03d8 9A03     		lsls	r2, r3, #14
ARM GAS  C:\Users\dtjld\AppData\Local\Temp\cczibexU.s 			page 22


 933 03da D7F84834 		ldr	r3, [r7, #1096]
 934 03de 9B0C     		lsrs	r3, r3, #18
 935 03e0 1343     		orrs	r3, r3, r2
 936 03e2 C7F87031 		str	r3, [r7, #368]
 937 03e6 D7F84834 		ldr	r3, [r7, #1096]
 938 03ea 9A03     		lsls	r2, r3, #14
 939 03ec D7F84C34 		ldr	r3, [r7, #1100]
 940 03f0 9B0C     		lsrs	r3, r3, #18
 941 03f2 1343     		orrs	r3, r3, r2
 942 03f4 C7F87431 		str	r3, [r7, #372]
 943 03f8 07F5BC73 		add	r3, r7, #376
 944 03fc D3E90001 		ldrd	r0, [r3]
 945 0400 07F5B873 		add	r3, r7, #368
 946 0404 D3E90034 		ldrd	r3, [r3]
 947 0408 80EA0300 		eor	r0, r0, r3
 948 040c 81EA0401 		eor	r1, r1, r4
 949 0410 D7F84834 		ldr	r3, [r7, #1096]
 950 0414 5A0A     		lsrs	r2, r3, #9
 951 0416 D7F84C34 		ldr	r3, [r7, #1100]
 952 041a DB05     		lsls	r3, r3, #23
 953 041c 1343     		orrs	r3, r3, r2
 954 041e C7F86C31 		str	r3, [r7, #364]
 955 0422 D7F84C34 		ldr	r3, [r7, #1100]
 956 0426 5A0A     		lsrs	r2, r3, #9
 957 0428 D7F84834 		ldr	r3, [r7, #1096]
 958 042c DB05     		lsls	r3, r3, #23
 959 042e 1343     		orrs	r3, r3, r2
 960 0430 C7F86831 		str	r3, [r7, #360]
 961 0434 07F5B473 		add	r3, r7, #360
 962 0438 D3E90034 		ldrd	r3, [r3]
 963 043c 83EA0003 		eor	r3, r3, r0
 964 0440 84EA0104 		eor	r4, r4, r1
 965 0444 1946     		mov	r1, r3
 966 0446 2246     		mov	r2, r4
 967 0448 07F58663 		add	r3, r7, #1072
 968 044c D3E90034 		ldrd	r3, [r3]
 969 0450 CD18     		adds	r5, r1, r3
 970 0452 42EB0406 		adc	r6, r2, r4
 971 0456 07F58863 		add	r3, r7, #1088
 972 045a D3E90012 		ldrd	r1, [r3]
 973 045e 07F58763 		add	r3, r7, #1080
 974 0462 D3E90034 		ldrd	r3, [r3]
 975 0466 81EA0308 		eor	r8, r1, r3
 976 046a 82EA0409 		eor	r9, r2, r4
 977 046e 07F58963 		add	r3, r7, #1096
 978 0472 D3E90034 		ldrd	r3, [r3]
 979 0476 08EA0301 		and	r1, r8, r3
 980 047a 09EA0402 		and	r2, r9, r4
 981 047e 07F58763 		add	r3, r7, #1080
 982 0482 D3E90034 		ldrd	r3, [r3]
 983 0486 83EA0108 		eor	r8, r3, r1
 984 048a 84EA0209 		eor	r9, r4, r2
 985 048e 15EB080A 		adds	r10, r5, r8
 986 0492 46EB090B 		adc	fp, r6, r9
 987 0496 D54A     		ldr	r2, .L21
 988 0498 D7F87434 		ldr	r3, [r7, #1140]
 989 049c DB00     		lsls	r3, r3, #3
ARM GAS  C:\Users\dtjld\AppData\Local\Temp\cczibexU.s 			page 23


 990 049e 1344     		add	r3, r3, r2
 991 04a0 D3E90034 		ldrd	r3, [r3]
 992 04a4 1AEB0300 		adds	r0, r10, r3
 993 04a8 4BEB0401 		adc	r1, fp, r4
 994 04ac 07F5D072 		add	r2, r7, #416
 995 04b0 D7F87434 		ldr	r3, [r7, #1140]
 996 04b4 DB00     		lsls	r3, r3, #3
 997 04b6 1344     		add	r3, r3, r2
 998 04b8 D3E90056 		ldrd	r5, [r3]
 999 04bc 2B18     		adds	r3, r5, r0
 1000 04be 46EB0104 		adc	r4, r6, r1
 1001 04c2 07F58562 		add	r2, r7, #1064
 1002 04c6 C2E90034 		strd	r3, [r2]
 1003 04ca D7F86C34 		ldr	r3, [r7, #1132]
 1004 04ce 1A01     		lsls	r2, r3, #4
 1005 04d0 D7F86834 		ldr	r3, [r7, #1128]
 1006 04d4 1B0F     		lsrs	r3, r3, #28
 1007 04d6 1343     		orrs	r3, r3, r2
 1008 04d8 C7F86031 		str	r3, [r7, #352]
 1009 04dc D7F86834 		ldr	r3, [r7, #1128]
 1010 04e0 1A01     		lsls	r2, r3, #4
 1011 04e2 D7F86C34 		ldr	r3, [r7, #1132]
 1012 04e6 1B0F     		lsrs	r3, r3, #28
 1013 04e8 1343     		orrs	r3, r3, r2
 1014 04ea C7F86431 		str	r3, [r7, #356]
 1015 04ee D7F86834 		ldr	r3, [r7, #1128]
 1016 04f2 9A08     		lsrs	r2, r3, #2
 1017 04f4 D7F86C34 		ldr	r3, [r7, #1132]
 1018 04f8 9B07     		lsls	r3, r3, #30
 1019 04fa 1343     		orrs	r3, r3, r2
 1020 04fc C7F85C31 		str	r3, [r7, #348]
 1021 0500 D7F86C34 		ldr	r3, [r7, #1132]
 1022 0504 9A08     		lsrs	r2, r3, #2
 1023 0506 D7F86834 		ldr	r3, [r7, #1128]
 1024 050a 9B07     		lsls	r3, r3, #30
 1025 050c 1343     		orrs	r3, r3, r2
 1026 050e C7F85831 		str	r3, [r7, #344]
 1027 0512 07F5B073 		add	r3, r7, #352
 1028 0516 D3E90001 		ldrd	r0, [r3]
 1029 051a 07F5AC73 		add	r3, r7, #344
 1030 051e D3E90034 		ldrd	r3, [r3]
 1031 0522 80EA0300 		eor	r0, r0, r3
 1032 0526 81EA0401 		eor	r1, r1, r4
 1033 052a D7F86834 		ldr	r3, [r7, #1128]
 1034 052e DA09     		lsrs	r2, r3, #7
 1035 0530 D7F86C34 		ldr	r3, [r7, #1132]
 1036 0534 5B06     		lsls	r3, r3, #25
 1037 0536 1343     		orrs	r3, r3, r2
 1038 0538 C7F85431 		str	r3, [r7, #340]
 1039 053c D7F86C34 		ldr	r3, [r7, #1132]
 1040 0540 DA09     		lsrs	r2, r3, #7
 1041 0542 D7F86834 		ldr	r3, [r7, #1128]
 1042 0546 5B06     		lsls	r3, r3, #25
 1043 0548 1343     		orrs	r3, r3, r2
 1044 054a C7F85031 		str	r3, [r7, #336]
 1045 054e 07F5A873 		add	r3, r7, #336
 1046 0552 D3E90089 		ldrd	r8, [r3]
ARM GAS  C:\Users\dtjld\AppData\Local\Temp\cczibexU.s 			page 24


 1047 0556 88EA0008 		eor	r8, r8, r0
 1048 055a 89EA0109 		eor	r9, r9, r1
 1049 055e 07F58D63 		add	r3, r7, #1128
 1050 0562 D3E90012 		ldrd	r1, [r3]
 1051 0566 07F58C63 		add	r3, r7, #1120
 1052 056a D3E90034 		ldrd	r3, [r3]
 1053 056e 01EA0305 		and	r5, r1, r3
 1054 0572 02EA0406 		and	r6, r2, r4
 1055 0576 07F58D63 		add	r3, r7, #1128
 1056 057a D3E90012 		ldrd	r1, [r3]
 1057 057e 07F58C63 		add	r3, r7, #1120
 1058 0582 D3E90034 		ldrd	r3, [r3]
 1059 0586 41EA030A 		orr	r10, r1, r3
 1060 058a 42EA040B 		orr	fp, r2, r4
 1061 058e 07F58B63 		add	r3, r7, #1112
 1062 0592 D3E90034 		ldrd	r3, [r3]
 1063 0596 03EA0A01 		and	r1, r3, r10
 1064 059a 04EA0B02 		and	r2, r4, fp
 1065 059e 41EA050A 		orr	r10, r1, r5
 1066 05a2 42EA060B 		orr	fp, r2, r6
 1067 05a6 1AEB0803 		adds	r3, r10, r8
 1068 05aa 4BEB0904 		adc	r4, fp, r9
 1069 05ae 07F58462 		add	r2, r7, #1056
 1070 05b2 C2E90034 		strd	r3, [r2]
 1071 05b6 07F58A63 		add	r3, r7, #1104
 1072 05ba D3E90012 		ldrd	r1, [r3]
 1073 05be 07F58563 		add	r3, r7, #1064
 1074 05c2 D3E90034 		ldrd	r3, [r3]
 1075 05c6 5D18     		adds	r5, r3, r1
 1076 05c8 44EB0206 		adc	r6, r4, r2
 1077 05cc 07F58A63 		add	r3, r7, #1104
 1078 05d0 C3E90056 		strd	r5, [r3]
 1079 05d4 07F58563 		add	r3, r7, #1064
 1080 05d8 D3E90012 		ldrd	r1, [r3]
 1081 05dc 07F58463 		add	r3, r7, #1056
 1082 05e0 D3E90034 		ldrd	r3, [r3]
 1083 05e4 5D18     		adds	r5, r3, r1
 1084 05e6 44EB0206 		adc	r6, r4, r2
 1085 05ea 07F58663 		add	r3, r7, #1072
 1086 05ee C3E90056 		strd	r5, [r3]
 1087 05f2 D7F87434 		ldr	r3, [r7, #1140]
 1088 05f6 0133     		adds	r3, r3, #1
 1089 05f8 C7F87434 		str	r3, [r7, #1140]
 271:C:/Users/dtjld/workspace/AIoT/src/LiteOS_Lab/iot_link/network/dtls/mbedtls/mbedtls-2.16.2/library\sha512.c ****         P( H, A, B, C, D, E, F, G, W[i], K[i] ); i++;
 1090              		.loc 1 271 0 discriminator 1
 1091 05fc D7F85434 		ldr	r3, [r7, #1108]
 1092 0600 9A04     		lsls	r2, r3, #18
 1093 0602 D7F85034 		ldr	r3, [r7, #1104]
 1094 0606 9B0B     		lsrs	r3, r3, #14
 1095 0608 1343     		orrs	r3, r3, r2
 1096 060a C7F84831 		str	r3, [r7, #328]
 1097 060e D7F85034 		ldr	r3, [r7, #1104]
 1098 0612 9A04     		lsls	r2, r3, #18
 1099 0614 D7F85434 		ldr	r3, [r7, #1108]
 1100 0618 9B0B     		lsrs	r3, r3, #14
 1101 061a 1343     		orrs	r3, r3, r2
 1102 061c C7F84C31 		str	r3, [r7, #332]
ARM GAS  C:\Users\dtjld\AppData\Local\Temp\cczibexU.s 			page 25


 1103 0620 D7F85434 		ldr	r3, [r7, #1108]
 1104 0624 9A03     		lsls	r2, r3, #14
 1105 0626 D7F85034 		ldr	r3, [r7, #1104]
 1106 062a 9B0C     		lsrs	r3, r3, #18
 1107 062c 1343     		orrs	r3, r3, r2
 1108 062e C7F84031 		str	r3, [r7, #320]
 1109 0632 D7F85034 		ldr	r3, [r7, #1104]
 1110 0636 9A03     		lsls	r2, r3, #14
 1111 0638 D7F85434 		ldr	r3, [r7, #1108]
 1112 063c 9B0C     		lsrs	r3, r3, #18
 1113 063e 1343     		orrs	r3, r3, r2
 1114 0640 C7F84431 		str	r3, [r7, #324]
 1115 0644 07F5A473 		add	r3, r7, #328
 1116 0648 D3E90001 		ldrd	r0, [r3]
 1117 064c 07F5A073 		add	r3, r7, #320
 1118 0650 D3E90034 		ldrd	r3, [r3]
 1119 0654 80EA0300 		eor	r0, r0, r3
 1120 0658 81EA0401 		eor	r1, r1, r4
 1121 065c D7F85034 		ldr	r3, [r7, #1104]
 1122 0660 5A0A     		lsrs	r2, r3, #9
 1123 0662 D7F85434 		ldr	r3, [r7, #1108]
 1124 0666 DB05     		lsls	r3, r3, #23
 1125 0668 1343     		orrs	r3, r3, r2
 1126 066a C7F83C31 		str	r3, [r7, #316]
 1127 066e D7F85434 		ldr	r3, [r7, #1108]
 1128 0672 5A0A     		lsrs	r2, r3, #9
 1129 0674 D7F85034 		ldr	r3, [r7, #1104]
 1130 0678 DB05     		lsls	r3, r3, #23
 1131 067a 1343     		orrs	r3, r3, r2
 1132 067c C7F83831 		str	r3, [r7, #312]
 1133 0680 07F59C73 		add	r3, r7, #312
 1134 0684 D3E90034 		ldrd	r3, [r3]
 1135 0688 83EA0003 		eor	r3, r3, r0
 1136 068c 84EA0104 		eor	r4, r4, r1
 1137 0690 1946     		mov	r1, r3
 1138 0692 2246     		mov	r2, r4
 1139 0694 07F58763 		add	r3, r7, #1080
 1140 0698 D3E90034 		ldrd	r3, [r3]
 1141 069c CD18     		adds	r5, r1, r3
 1142 069e 42EB0406 		adc	r6, r2, r4
 1143 06a2 07F58963 		add	r3, r7, #1096
 1144 06a6 D3E90012 		ldrd	r1, [r3]
 1145 06aa 07F58863 		add	r3, r7, #1088
 1146 06ae D3E90034 		ldrd	r3, [r3]
 1147 06b2 81EA0308 		eor	r8, r1, r3
 1148 06b6 82EA0409 		eor	r9, r2, r4
 1149 06ba 07F58A63 		add	r3, r7, #1104
 1150 06be D3E90034 		ldrd	r3, [r3]
 1151 06c2 08EA0301 		and	r1, r8, r3
 1152 06c6 09EA0402 		and	r2, r9, r4
 1153 06ca 07F58863 		add	r3, r7, #1088
 1154 06ce D3E90034 		ldrd	r3, [r3]
 1155 06d2 83EA0108 		eor	r8, r3, r1
 1156 06d6 84EA0209 		eor	r9, r4, r2
 1157 06da 15EB080A 		adds	r10, r5, r8
 1158 06de 46EB090B 		adc	fp, r6, r9
 1159 06e2 424A     		ldr	r2, .L21
ARM GAS  C:\Users\dtjld\AppData\Local\Temp\cczibexU.s 			page 26


 1160 06e4 D7F87434 		ldr	r3, [r7, #1140]
 1161 06e8 DB00     		lsls	r3, r3, #3
 1162 06ea 1344     		add	r3, r3, r2
 1163 06ec D3E90034 		ldrd	r3, [r3]
 1164 06f0 1AEB0300 		adds	r0, r10, r3
 1165 06f4 4BEB0401 		adc	r1, fp, r4
 1166 06f8 07F5D072 		add	r2, r7, #416
 1167 06fc D7F87434 		ldr	r3, [r7, #1140]
 1168 0700 DB00     		lsls	r3, r3, #3
 1169 0702 1344     		add	r3, r3, r2
 1170 0704 D3E90056 		ldrd	r5, [r3]
 1171 0708 2B18     		adds	r3, r5, r0
 1172 070a 46EB0104 		adc	r4, r6, r1
 1173 070e 07F58562 		add	r2, r7, #1064
 1174 0712 C2E90034 		strd	r3, [r2]
 1175 0716 D7F83434 		ldr	r3, [r7, #1076]
 1176 071a 1A01     		lsls	r2, r3, #4
 1177 071c D7F83034 		ldr	r3, [r7, #1072]
 1178 0720 1B0F     		lsrs	r3, r3, #28
 1179 0722 1343     		orrs	r3, r3, r2
 1180 0724 C7F83031 		str	r3, [r7, #304]
 1181 0728 D7F83034 		ldr	r3, [r7, #1072]
 1182 072c 1A01     		lsls	r2, r3, #4
 1183 072e D7F83434 		ldr	r3, [r7, #1076]
 1184 0732 1B0F     		lsrs	r3, r3, #28
 1185 0734 1343     		orrs	r3, r3, r2
 1186 0736 C7F83431 		str	r3, [r7, #308]
 1187 073a D7F83034 		ldr	r3, [r7, #1072]
 1188 073e 9A08     		lsrs	r2, r3, #2
 1189 0740 D7F83434 		ldr	r3, [r7, #1076]
 1190 0744 9B07     		lsls	r3, r3, #30
 1191 0746 1343     		orrs	r3, r3, r2
 1192 0748 C7F82C31 		str	r3, [r7, #300]
 1193 074c D7F83434 		ldr	r3, [r7, #1076]
 1194 0750 9A08     		lsrs	r2, r3, #2
 1195 0752 D7F83034 		ldr	r3, [r7, #1072]
 1196 0756 9B07     		lsls	r3, r3, #30
 1197 0758 1343     		orrs	r3, r3, r2
 1198 075a C7F82831 		str	r3, [r7, #296]
 1199 075e 07F59873 		add	r3, r7, #304
 1200 0762 D3E90001 		ldrd	r0, [r3]
 1201 0766 07F59473 		add	r3, r7, #296
 1202 076a D3E90034 		ldrd	r3, [r3]
 1203 076e 80EA0300 		eor	r0, r0, r3
 1204 0772 81EA0401 		eor	r1, r1, r4
 1205 0776 D7F83034 		ldr	r3, [r7, #1072]
 1206 077a DA09     		lsrs	r2, r3, #7
 1207 077c D7F83434 		ldr	r3, [r7, #1076]
 1208 0780 5B06     		lsls	r3, r3, #25
 1209 0782 1343     		orrs	r3, r3, r2
 1210 0784 C7F82431 		str	r3, [r7, #292]
 1211 0788 D7F83434 		ldr	r3, [r7, #1076]
 1212 078c DA09     		lsrs	r2, r3, #7
 1213 078e D7F83034 		ldr	r3, [r7, #1072]
 1214 0792 5B06     		lsls	r3, r3, #25
 1215 0794 1343     		orrs	r3, r3, r2
 1216 0796 C7F82031 		str	r3, [r7, #288]
ARM GAS  C:\Users\dtjld\AppData\Local\Temp\cczibexU.s 			page 27


 1217 079a 07F59073 		add	r3, r7, #288
 1218 079e D3E90089 		ldrd	r8, [r3]
 1219 07a2 88EA0008 		eor	r8, r8, r0
 1220 07a6 89EA0109 		eor	r9, r9, r1
 1221 07aa 07F58663 		add	r3, r7, #1072
 1222 07ae D3E90012 		ldrd	r1, [r3]
 1223 07b2 07F58D63 		add	r3, r7, #1128
 1224 07b6 D3E90034 		ldrd	r3, [r3]
 1225 07ba 01EA0305 		and	r5, r1, r3
 1226 07be 02EA0406 		and	r6, r2, r4
 1227 07c2 07F58663 		add	r3, r7, #1072
 1228 07c6 D3E90012 		ldrd	r1, [r3]
 1229 07ca 07F58D63 		add	r3, r7, #1128
 1230 07ce D3E90034 		ldrd	r3, [r3]
 1231 07d2 41EA030A 		orr	r10, r1, r3
 1232 07d6 42EA040B 		orr	fp, r2, r4
 1233 07da 07F58C63 		add	r3, r7, #1120
 1234 07de D3E90034 		ldrd	r3, [r3]
 1235 07e2 03EA0A01 		and	r1, r3, r10
 1236 07e6 04EA0B02 		and	r2, r4, fp
 1237 07ea 01E0     		b	.L22
 1238              	.L23:
 1239              		.align	2
 1240              	.L21:
 1241 07ec 00000000 		.word	K
 1242              	.L22:
 1243 07f0 41EA050A 		orr	r10, r1, r5
 1244 07f4 42EA060B 		orr	fp, r2, r6
 1245 07f8 1AEB0803 		adds	r3, r10, r8
 1246 07fc 4BEB0904 		adc	r4, fp, r9
 1247 0800 07F58462 		add	r2, r7, #1056
 1248 0804 C2E90034 		strd	r3, [r2]
 1249 0808 07F58B63 		add	r3, r7, #1112
 1250 080c D3E90012 		ldrd	r1, [r3]
 1251 0810 07F58563 		add	r3, r7, #1064
 1252 0814 D3E90034 		ldrd	r3, [r3]
 1253 0818 5D18     		adds	r5, r3, r1
 1254 081a 44EB0206 		adc	r6, r4, r2
 1255 081e 07F58B63 		add	r3, r7, #1112
 1256 0822 C3E90056 		strd	r5, [r3]
 1257 0826 07F58563 		add	r3, r7, #1064
 1258 082a D3E90012 		ldrd	r1, [r3]
 1259 082e 07F58463 		add	r3, r7, #1056
 1260 0832 D3E90034 		ldrd	r3, [r3]
 1261 0836 5D18     		adds	r5, r3, r1
 1262 0838 44EB0206 		adc	r6, r4, r2
 1263 083c 07F58763 		add	r3, r7, #1080
 1264 0840 C3E90056 		strd	r5, [r3]
 1265 0844 D7F87434 		ldr	r3, [r7, #1140]
 1266 0848 0133     		adds	r3, r3, #1
 1267 084a C7F87434 		str	r3, [r7, #1140]
 272:C:/Users/dtjld/workspace/AIoT/src/LiteOS_Lab/iot_link/network/dtls/mbedtls/mbedtls-2.16.2/library\sha512.c ****         P( G, H, A, B, C, D, E, F, W[i], K[i] ); i++;
 1268              		.loc 1 272 0 discriminator 1
 1269 084e D7F85C34 		ldr	r3, [r7, #1116]
 1270 0852 9A04     		lsls	r2, r3, #18
 1271 0854 D7F85834 		ldr	r3, [r7, #1112]
 1272 0858 9B0B     		lsrs	r3, r3, #14
ARM GAS  C:\Users\dtjld\AppData\Local\Temp\cczibexU.s 			page 28


 1273 085a 1343     		orrs	r3, r3, r2
 1274 085c C7F81831 		str	r3, [r7, #280]
 1275 0860 D7F85834 		ldr	r3, [r7, #1112]
 1276 0864 9A04     		lsls	r2, r3, #18
 1277 0866 D7F85C34 		ldr	r3, [r7, #1116]
 1278 086a 9B0B     		lsrs	r3, r3, #14
 1279 086c 1343     		orrs	r3, r3, r2
 1280 086e C7F81C31 		str	r3, [r7, #284]
 1281 0872 D7F85C34 		ldr	r3, [r7, #1116]
 1282 0876 9A03     		lsls	r2, r3, #14
 1283 0878 D7F85834 		ldr	r3, [r7, #1112]
 1284 087c 9B0C     		lsrs	r3, r3, #18
 1285 087e 1343     		orrs	r3, r3, r2
 1286 0880 C7F81031 		str	r3, [r7, #272]
 1287 0884 D7F85834 		ldr	r3, [r7, #1112]
 1288 0888 9A03     		lsls	r2, r3, #14
 1289 088a D7F85C34 		ldr	r3, [r7, #1116]
 1290 088e 9B0C     		lsrs	r3, r3, #18
 1291 0890 1343     		orrs	r3, r3, r2
 1292 0892 C7F81431 		str	r3, [r7, #276]
 1293 0896 07F58C73 		add	r3, r7, #280
 1294 089a D3E90001 		ldrd	r0, [r3]
 1295 089e 07F58873 		add	r3, r7, #272
 1296 08a2 D3E90034 		ldrd	r3, [r3]
 1297 08a6 80EA0300 		eor	r0, r0, r3
 1298 08aa 81EA0401 		eor	r1, r1, r4
 1299 08ae D7F85834 		ldr	r3, [r7, #1112]
 1300 08b2 5A0A     		lsrs	r2, r3, #9
 1301 08b4 D7F85C34 		ldr	r3, [r7, #1116]
 1302 08b8 DB05     		lsls	r3, r3, #23
 1303 08ba 1343     		orrs	r3, r3, r2
 1304 08bc C7F80C31 		str	r3, [r7, #268]
 1305 08c0 D7F85C34 		ldr	r3, [r7, #1116]
 1306 08c4 5A0A     		lsrs	r2, r3, #9
 1307 08c6 D7F85834 		ldr	r3, [r7, #1112]
 1308 08ca DB05     		lsls	r3, r3, #23
 1309 08cc 1343     		orrs	r3, r3, r2
 1310 08ce C7F80831 		str	r3, [r7, #264]
 1311 08d2 07F58473 		add	r3, r7, #264
 1312 08d6 D3E90034 		ldrd	r3, [r3]
 1313 08da 83EA0003 		eor	r3, r3, r0
 1314 08de 84EA0104 		eor	r4, r4, r1
 1315 08e2 1946     		mov	r1, r3
 1316 08e4 2246     		mov	r2, r4
 1317 08e6 07F58863 		add	r3, r7, #1088
 1318 08ea D3E90034 		ldrd	r3, [r3]
 1319 08ee CD18     		adds	r5, r1, r3
 1320 08f0 42EB0406 		adc	r6, r2, r4
 1321 08f4 07F58A63 		add	r3, r7, #1104
 1322 08f8 D3E90012 		ldrd	r1, [r3]
 1323 08fc 07F58963 		add	r3, r7, #1096
 1324 0900 D3E90034 		ldrd	r3, [r3]
 1325 0904 81EA0308 		eor	r8, r1, r3
 1326 0908 82EA0409 		eor	r9, r2, r4
 1327 090c 07F58B63 		add	r3, r7, #1112
 1328 0910 D3E90034 		ldrd	r3, [r3]
 1329 0914 08EA0301 		and	r1, r8, r3
ARM GAS  C:\Users\dtjld\AppData\Local\Temp\cczibexU.s 			page 29


 1330 0918 09EA0402 		and	r2, r9, r4
 1331 091c 07F58963 		add	r3, r7, #1096
 1332 0920 D3E90034 		ldrd	r3, [r3]
 1333 0924 83EA0108 		eor	r8, r3, r1
 1334 0928 84EA0209 		eor	r9, r4, r2
 1335 092c 15EB080A 		adds	r10, r5, r8
 1336 0930 46EB090B 		adc	fp, r6, r9
 1337 0934 D44A     		ldr	r2, .L24
 1338 0936 D7F87434 		ldr	r3, [r7, #1140]
 1339 093a DB00     		lsls	r3, r3, #3
 1340 093c 1344     		add	r3, r3, r2
 1341 093e D3E90034 		ldrd	r3, [r3]
 1342 0942 1AEB0300 		adds	r0, r10, r3
 1343 0946 4BEB0401 		adc	r1, fp, r4
 1344 094a 07F5D072 		add	r2, r7, #416
 1345 094e D7F87434 		ldr	r3, [r7, #1140]
 1346 0952 DB00     		lsls	r3, r3, #3
 1347 0954 1344     		add	r3, r3, r2
 1348 0956 D3E90056 		ldrd	r5, [r3]
 1349 095a 2B18     		adds	r3, r5, r0
 1350 095c 46EB0104 		adc	r4, r6, r1
 1351 0960 07F58562 		add	r2, r7, #1064
 1352 0964 C2E90034 		strd	r3, [r2]
 1353 0968 D7F83C34 		ldr	r3, [r7, #1084]
 1354 096c 1A01     		lsls	r2, r3, #4
 1355 096e D7F83834 		ldr	r3, [r7, #1080]
 1356 0972 1B0F     		lsrs	r3, r3, #28
 1357 0974 1343     		orrs	r3, r3, r2
 1358 0976 C7F80031 		str	r3, [r7, #256]
 1359 097a D7F83834 		ldr	r3, [r7, #1080]
 1360 097e 1A01     		lsls	r2, r3, #4
 1361 0980 D7F83C34 		ldr	r3, [r7, #1084]
 1362 0984 1B0F     		lsrs	r3, r3, #28
 1363 0986 1343     		orrs	r3, r3, r2
 1364 0988 C7F80431 		str	r3, [r7, #260]
 1365 098c D7F83834 		ldr	r3, [r7, #1080]
 1366 0990 9A08     		lsrs	r2, r3, #2
 1367 0992 D7F83C34 		ldr	r3, [r7, #1084]
 1368 0996 9B07     		lsls	r3, r3, #30
 1369 0998 1343     		orrs	r3, r3, r2
 1370 099a C7F8FC30 		str	r3, [r7, #252]
 1371 099e D7F83C34 		ldr	r3, [r7, #1084]
 1372 09a2 9A08     		lsrs	r2, r3, #2
 1373 09a4 D7F83834 		ldr	r3, [r7, #1080]
 1374 09a8 9B07     		lsls	r3, r3, #30
 1375 09aa 1343     		orrs	r3, r3, r2
 1376 09ac C7F8F830 		str	r3, [r7, #248]
 1377 09b0 07F58073 		add	r3, r7, #256
 1378 09b4 D3E90001 		ldrd	r0, [r3]
 1379 09b8 D7E93E34 		ldrd	r3, [r7, #248]
 1380 09bc 80EA0300 		eor	r0, r0, r3
 1381 09c0 81EA0401 		eor	r1, r1, r4
 1382 09c4 D7F83834 		ldr	r3, [r7, #1080]
 1383 09c8 DA09     		lsrs	r2, r3, #7
 1384 09ca D7F83C34 		ldr	r3, [r7, #1084]
 1385 09ce 5B06     		lsls	r3, r3, #25
 1386 09d0 1343     		orrs	r3, r3, r2
ARM GAS  C:\Users\dtjld\AppData\Local\Temp\cczibexU.s 			page 30


 1387 09d2 C7F8F430 		str	r3, [r7, #244]
 1388 09d6 D7F83C34 		ldr	r3, [r7, #1084]
 1389 09da DA09     		lsrs	r2, r3, #7
 1390 09dc D7F83834 		ldr	r3, [r7, #1080]
 1391 09e0 5B06     		lsls	r3, r3, #25
 1392 09e2 1343     		orrs	r3, r3, r2
 1393 09e4 C7F8F030 		str	r3, [r7, #240]
 1394 09e8 D7E93C89 		ldrd	r8, [r7, #240]
 1395 09ec 88EA0008 		eor	r8, r8, r0
 1396 09f0 89EA0109 		eor	r9, r9, r1
 1397 09f4 07F58763 		add	r3, r7, #1080
 1398 09f8 D3E90012 		ldrd	r1, [r3]
 1399 09fc 07F58663 		add	r3, r7, #1072
 1400 0a00 D3E90034 		ldrd	r3, [r3]
 1401 0a04 01EA0305 		and	r5, r1, r3
 1402 0a08 02EA0406 		and	r6, r2, r4
 1403 0a0c 07F58763 		add	r3, r7, #1080
 1404 0a10 D3E90012 		ldrd	r1, [r3]
 1405 0a14 07F58663 		add	r3, r7, #1072
 1406 0a18 D3E90034 		ldrd	r3, [r3]
 1407 0a1c 41EA030A 		orr	r10, r1, r3
 1408 0a20 42EA040B 		orr	fp, r2, r4
 1409 0a24 07F58D63 		add	r3, r7, #1128
 1410 0a28 D3E90034 		ldrd	r3, [r3]
 1411 0a2c 03EA0A01 		and	r1, r3, r10
 1412 0a30 04EA0B02 		and	r2, r4, fp
 1413 0a34 41EA050A 		orr	r10, r1, r5
 1414 0a38 42EA060B 		orr	fp, r2, r6
 1415 0a3c 1AEB0803 		adds	r3, r10, r8
 1416 0a40 4BEB0904 		adc	r4, fp, r9
 1417 0a44 07F58462 		add	r2, r7, #1056
 1418 0a48 C2E90034 		strd	r3, [r2]
 1419 0a4c 07F58C63 		add	r3, r7, #1120
 1420 0a50 D3E90012 		ldrd	r1, [r3]
 1421 0a54 07F58563 		add	r3, r7, #1064
 1422 0a58 D3E90034 		ldrd	r3, [r3]
 1423 0a5c 5D18     		adds	r5, r3, r1
 1424 0a5e 44EB0206 		adc	r6, r4, r2
 1425 0a62 07F58C63 		add	r3, r7, #1120
 1426 0a66 C3E90056 		strd	r5, [r3]
 1427 0a6a 07F58563 		add	r3, r7, #1064
 1428 0a6e D3E90012 		ldrd	r1, [r3]
 1429 0a72 07F58463 		add	r3, r7, #1056
 1430 0a76 D3E90034 		ldrd	r3, [r3]
 1431 0a7a 5D18     		adds	r5, r3, r1
 1432 0a7c 44EB0206 		adc	r6, r4, r2
 1433 0a80 07F58863 		add	r3, r7, #1088
 1434 0a84 C3E90056 		strd	r5, [r3]
 1435 0a88 D7F87434 		ldr	r3, [r7, #1140]
 1436 0a8c 0133     		adds	r3, r3, #1
 1437 0a8e C7F87434 		str	r3, [r7, #1140]
 273:C:/Users/dtjld/workspace/AIoT/src/LiteOS_Lab/iot_link/network/dtls/mbedtls/mbedtls-2.16.2/library\sha512.c ****         P( F, G, H, A, B, C, D, E, W[i], K[i] ); i++;
 1438              		.loc 1 273 0 discriminator 1
 1439 0a92 D7F86434 		ldr	r3, [r7, #1124]
 1440 0a96 9A04     		lsls	r2, r3, #18
 1441 0a98 D7F86034 		ldr	r3, [r7, #1120]
 1442 0a9c 9B0B     		lsrs	r3, r3, #14
ARM GAS  C:\Users\dtjld\AppData\Local\Temp\cczibexU.s 			page 31


 1443 0a9e 1343     		orrs	r3, r3, r2
 1444 0aa0 C7F8E830 		str	r3, [r7, #232]
 1445 0aa4 D7F86034 		ldr	r3, [r7, #1120]
 1446 0aa8 9A04     		lsls	r2, r3, #18
 1447 0aaa D7F86434 		ldr	r3, [r7, #1124]
 1448 0aae 9B0B     		lsrs	r3, r3, #14
 1449 0ab0 1343     		orrs	r3, r3, r2
 1450 0ab2 C7F8EC30 		str	r3, [r7, #236]
 1451 0ab6 D7F86434 		ldr	r3, [r7, #1124]
 1452 0aba 9A03     		lsls	r2, r3, #14
 1453 0abc D7F86034 		ldr	r3, [r7, #1120]
 1454 0ac0 9B0C     		lsrs	r3, r3, #18
 1455 0ac2 1343     		orrs	r3, r3, r2
 1456 0ac4 C7F8E030 		str	r3, [r7, #224]
 1457 0ac8 D7F86034 		ldr	r3, [r7, #1120]
 1458 0acc 9A03     		lsls	r2, r3, #14
 1459 0ace D7F86434 		ldr	r3, [r7, #1124]
 1460 0ad2 9B0C     		lsrs	r3, r3, #18
 1461 0ad4 1343     		orrs	r3, r3, r2
 1462 0ad6 C7F8E430 		str	r3, [r7, #228]
 1463 0ada D7E93A01 		ldrd	r0, [r7, #232]
 1464 0ade D7E93834 		ldrd	r3, [r7, #224]
 1465 0ae2 80EA0300 		eor	r0, r0, r3
 1466 0ae6 81EA0401 		eor	r1, r1, r4
 1467 0aea D7F86034 		ldr	r3, [r7, #1120]
 1468 0aee 5A0A     		lsrs	r2, r3, #9
 1469 0af0 D7F86434 		ldr	r3, [r7, #1124]
 1470 0af4 DB05     		lsls	r3, r3, #23
 1471 0af6 1343     		orrs	r3, r3, r2
 1472 0af8 C7F8DC30 		str	r3, [r7, #220]
 1473 0afc D7F86434 		ldr	r3, [r7, #1124]
 1474 0b00 5A0A     		lsrs	r2, r3, #9
 1475 0b02 D7F86034 		ldr	r3, [r7, #1120]
 1476 0b06 DB05     		lsls	r3, r3, #23
 1477 0b08 1343     		orrs	r3, r3, r2
 1478 0b0a C7F8D830 		str	r3, [r7, #216]
 1479 0b0e D7E93634 		ldrd	r3, [r7, #216]
 1480 0b12 83EA0003 		eor	r3, r3, r0
 1481 0b16 84EA0104 		eor	r4, r4, r1
 1482 0b1a 1946     		mov	r1, r3
 1483 0b1c 2246     		mov	r2, r4
 1484 0b1e 07F58963 		add	r3, r7, #1096
 1485 0b22 D3E90034 		ldrd	r3, [r3]
 1486 0b26 CD18     		adds	r5, r1, r3
 1487 0b28 42EB0406 		adc	r6, r2, r4
 1488 0b2c 07F58B63 		add	r3, r7, #1112
 1489 0b30 D3E90012 		ldrd	r1, [r3]
 1490 0b34 07F58A63 		add	r3, r7, #1104
 1491 0b38 D3E90034 		ldrd	r3, [r3]
 1492 0b3c 81EA0308 		eor	r8, r1, r3
 1493 0b40 82EA0409 		eor	r9, r2, r4
 1494 0b44 07F58C63 		add	r3, r7, #1120
 1495 0b48 D3E90034 		ldrd	r3, [r3]
 1496 0b4c 08EA0301 		and	r1, r8, r3
 1497 0b50 09EA0402 		and	r2, r9, r4
 1498 0b54 07F58A63 		add	r3, r7, #1104
 1499 0b58 D3E90034 		ldrd	r3, [r3]
ARM GAS  C:\Users\dtjld\AppData\Local\Temp\cczibexU.s 			page 32


 1500 0b5c 83EA0108 		eor	r8, r3, r1
 1501 0b60 84EA0209 		eor	r9, r4, r2
 1502 0b64 15EB080A 		adds	r10, r5, r8
 1503 0b68 46EB090B 		adc	fp, r6, r9
 1504 0b6c 464A     		ldr	r2, .L24
 1505 0b6e D7F87434 		ldr	r3, [r7, #1140]
 1506 0b72 DB00     		lsls	r3, r3, #3
 1507 0b74 1344     		add	r3, r3, r2
 1508 0b76 D3E90034 		ldrd	r3, [r3]
 1509 0b7a 1AEB0300 		adds	r0, r10, r3
 1510 0b7e 4BEB0401 		adc	r1, fp, r4
 1511 0b82 07F5D072 		add	r2, r7, #416
 1512 0b86 D7F87434 		ldr	r3, [r7, #1140]
 1513 0b8a DB00     		lsls	r3, r3, #3
 1514 0b8c 1344     		add	r3, r3, r2
 1515 0b8e D3E90056 		ldrd	r5, [r3]
 1516 0b92 2B18     		adds	r3, r5, r0
 1517 0b94 46EB0104 		adc	r4, r6, r1
 1518 0b98 07F58562 		add	r2, r7, #1064
 1519 0b9c C2E90034 		strd	r3, [r2]
 1520 0ba0 D7F84434 		ldr	r3, [r7, #1092]
 1521 0ba4 1A01     		lsls	r2, r3, #4
 1522 0ba6 D7F84034 		ldr	r3, [r7, #1088]
 1523 0baa 1B0F     		lsrs	r3, r3, #28
 1524 0bac 1343     		orrs	r3, r3, r2
 1525 0bae C7F8D030 		str	r3, [r7, #208]
 1526 0bb2 D7F84034 		ldr	r3, [r7, #1088]
 1527 0bb6 1A01     		lsls	r2, r3, #4
 1528 0bb8 D7F84434 		ldr	r3, [r7, #1092]
 1529 0bbc 1B0F     		lsrs	r3, r3, #28
 1530 0bbe 1343     		orrs	r3, r3, r2
 1531 0bc0 C7F8D430 		str	r3, [r7, #212]
 1532 0bc4 D7F84034 		ldr	r3, [r7, #1088]
 1533 0bc8 9A08     		lsrs	r2, r3, #2
 1534 0bca D7F84434 		ldr	r3, [r7, #1092]
 1535 0bce 9B07     		lsls	r3, r3, #30
 1536 0bd0 1343     		orrs	r3, r3, r2
 1537 0bd2 C7F8CC30 		str	r3, [r7, #204]
 1538 0bd6 D7F84434 		ldr	r3, [r7, #1092]
 1539 0bda 9A08     		lsrs	r2, r3, #2
 1540 0bdc D7F84034 		ldr	r3, [r7, #1088]
 1541 0be0 9B07     		lsls	r3, r3, #30
 1542 0be2 1343     		orrs	r3, r3, r2
 1543 0be4 C7F8C830 		str	r3, [r7, #200]
 1544 0be8 D7E93401 		ldrd	r0, [r7, #208]
 1545 0bec D7E93234 		ldrd	r3, [r7, #200]
 1546 0bf0 80EA0300 		eor	r0, r0, r3
 1547 0bf4 81EA0401 		eor	r1, r1, r4
 1548 0bf8 D7F84034 		ldr	r3, [r7, #1088]
 1549 0bfc DA09     		lsrs	r2, r3, #7
 1550 0bfe D7F84434 		ldr	r3, [r7, #1092]
 1551 0c02 5B06     		lsls	r3, r3, #25
 1552 0c04 1343     		orrs	r3, r3, r2
 1553 0c06 C7F8C430 		str	r3, [r7, #196]
 1554 0c0a D7F84434 		ldr	r3, [r7, #1092]
 1555 0c0e DA09     		lsrs	r2, r3, #7
 1556 0c10 D7F84034 		ldr	r3, [r7, #1088]
ARM GAS  C:\Users\dtjld\AppData\Local\Temp\cczibexU.s 			page 33


 1557 0c14 5B06     		lsls	r3, r3, #25
 1558 0c16 1343     		orrs	r3, r3, r2
 1559 0c18 C7F8C030 		str	r3, [r7, #192]
 1560 0c1c D7E93089 		ldrd	r8, [r7, #192]
 1561 0c20 88EA0008 		eor	r8, r8, r0
 1562 0c24 89EA0109 		eor	r9, r9, r1
 1563 0c28 07F58863 		add	r3, r7, #1088
 1564 0c2c D3E90012 		ldrd	r1, [r3]
 1565 0c30 07F58763 		add	r3, r7, #1080
 1566 0c34 D3E90034 		ldrd	r3, [r3]
 1567 0c38 01EA0305 		and	r5, r1, r3
 1568 0c3c 02EA0406 		and	r6, r2, r4
 1569 0c40 07F58863 		add	r3, r7, #1088
 1570 0c44 D3E90012 		ldrd	r1, [r3]
 1571 0c48 07F58763 		add	r3, r7, #1080
 1572 0c4c D3E90034 		ldrd	r3, [r3]
 1573 0c50 41EA030A 		orr	r10, r1, r3
 1574 0c54 42EA040B 		orr	fp, r2, r4
 1575 0c58 07F58663 		add	r3, r7, #1072
 1576 0c5c D3E90034 		ldrd	r3, [r3]
 1577 0c60 03EA0A01 		and	r1, r3, r10
 1578 0c64 04EA0B02 		and	r2, r4, fp
 1579 0c68 41EA050A 		orr	r10, r1, r5
 1580 0c6c 42EA060B 		orr	fp, r2, r6
 1581 0c70 1AEB0803 		adds	r3, r10, r8
 1582 0c74 4BEB0904 		adc	r4, fp, r9
 1583 0c78 07F58462 		add	r2, r7, #1056
 1584 0c7c C2E90034 		strd	r3, [r2]
 1585 0c80 07F58D63 		add	r3, r7, #1128
 1586 0c84 02E0     		b	.L25
 1587              	.L26:
 1588 0c86 00BF     		.align	2
 1589              	.L24:
 1590 0c88 00000000 		.word	K
 1591              	.L25:
 1592 0c8c D3E90012 		ldrd	r1, [r3]
 1593 0c90 07F58563 		add	r3, r7, #1064
 1594 0c94 D3E90034 		ldrd	r3, [r3]
 1595 0c98 5D18     		adds	r5, r3, r1
 1596 0c9a 44EB0206 		adc	r6, r4, r2
 1597 0c9e 07F58D63 		add	r3, r7, #1128
 1598 0ca2 C3E90056 		strd	r5, [r3]
 1599 0ca6 07F58563 		add	r3, r7, #1064
 1600 0caa D3E90012 		ldrd	r1, [r3]
 1601 0cae 07F58463 		add	r3, r7, #1056
 1602 0cb2 D3E90034 		ldrd	r3, [r3]
 1603 0cb6 5D18     		adds	r5, r3, r1
 1604 0cb8 44EB0206 		adc	r6, r4, r2
 1605 0cbc 07F58963 		add	r3, r7, #1096
 1606 0cc0 C3E90056 		strd	r5, [r3]
 1607 0cc4 D7F87434 		ldr	r3, [r7, #1140]
 1608 0cc8 0133     		adds	r3, r3, #1
 1609 0cca C7F87434 		str	r3, [r7, #1140]
 274:C:/Users/dtjld/workspace/AIoT/src/LiteOS_Lab/iot_link/network/dtls/mbedtls/mbedtls-2.16.2/library\sha512.c ****         P( E, F, G, H, A, B, C, D, W[i], K[i] ); i++;
 1610              		.loc 1 274 0 discriminator 1
 1611 0cce D7F86C34 		ldr	r3, [r7, #1132]
 1612 0cd2 9A04     		lsls	r2, r3, #18
ARM GAS  C:\Users\dtjld\AppData\Local\Temp\cczibexU.s 			page 34


 1613 0cd4 D7F86834 		ldr	r3, [r7, #1128]
 1614 0cd8 9B0B     		lsrs	r3, r3, #14
 1615 0cda 1343     		orrs	r3, r3, r2
 1616 0cdc C7F8B830 		str	r3, [r7, #184]
 1617 0ce0 D7F86834 		ldr	r3, [r7, #1128]
 1618 0ce4 9A04     		lsls	r2, r3, #18
 1619 0ce6 D7F86C34 		ldr	r3, [r7, #1132]
 1620 0cea 9B0B     		lsrs	r3, r3, #14
 1621 0cec 1343     		orrs	r3, r3, r2
 1622 0cee C7F8BC30 		str	r3, [r7, #188]
 1623 0cf2 D7F86C34 		ldr	r3, [r7, #1132]
 1624 0cf6 9A03     		lsls	r2, r3, #14
 1625 0cf8 D7F86834 		ldr	r3, [r7, #1128]
 1626 0cfc 9B0C     		lsrs	r3, r3, #18
 1627 0cfe 1343     		orrs	r3, r3, r2
 1628 0d00 C7F8B030 		str	r3, [r7, #176]
 1629 0d04 D7F86834 		ldr	r3, [r7, #1128]
 1630 0d08 9A03     		lsls	r2, r3, #14
 1631 0d0a D7F86C34 		ldr	r3, [r7, #1132]
 1632 0d0e 9B0C     		lsrs	r3, r3, #18
 1633 0d10 1343     		orrs	r3, r3, r2
 1634 0d12 C7F8B430 		str	r3, [r7, #180]
 1635 0d16 D7E92E01 		ldrd	r0, [r7, #184]
 1636 0d1a D7E92C34 		ldrd	r3, [r7, #176]
 1637 0d1e 80EA0300 		eor	r0, r0, r3
 1638 0d22 81EA0401 		eor	r1, r1, r4
 1639 0d26 D7F86834 		ldr	r3, [r7, #1128]
 1640 0d2a 5A0A     		lsrs	r2, r3, #9
 1641 0d2c D7F86C34 		ldr	r3, [r7, #1132]
 1642 0d30 DB05     		lsls	r3, r3, #23
 1643 0d32 1343     		orrs	r3, r3, r2
 1644 0d34 C7F8AC30 		str	r3, [r7, #172]
 1645 0d38 D7F86C34 		ldr	r3, [r7, #1132]
 1646 0d3c 5A0A     		lsrs	r2, r3, #9
 1647 0d3e D7F86834 		ldr	r3, [r7, #1128]
 1648 0d42 DB05     		lsls	r3, r3, #23
 1649 0d44 1343     		orrs	r3, r3, r2
 1650 0d46 C7F8A830 		str	r3, [r7, #168]
 1651 0d4a D7E92A34 		ldrd	r3, [r7, #168]
 1652 0d4e 83EA0003 		eor	r3, r3, r0
 1653 0d52 84EA0104 		eor	r4, r4, r1
 1654 0d56 1946     		mov	r1, r3
 1655 0d58 2246     		mov	r2, r4
 1656 0d5a 07F58A63 		add	r3, r7, #1104
 1657 0d5e D3E90034 		ldrd	r3, [r3]
 1658 0d62 CD18     		adds	r5, r1, r3
 1659 0d64 42EB0406 		adc	r6, r2, r4
 1660 0d68 07F58C63 		add	r3, r7, #1120
 1661 0d6c D3E90012 		ldrd	r1, [r3]
 1662 0d70 07F58B63 		add	r3, r7, #1112
 1663 0d74 D3E90034 		ldrd	r3, [r3]
 1664 0d78 81EA0308 		eor	r8, r1, r3
 1665 0d7c 82EA0409 		eor	r9, r2, r4
 1666 0d80 07F58D63 		add	r3, r7, #1128
 1667 0d84 D3E90034 		ldrd	r3, [r3]
 1668 0d88 08EA0301 		and	r1, r8, r3
 1669 0d8c 09EA0402 		and	r2, r9, r4
ARM GAS  C:\Users\dtjld\AppData\Local\Temp\cczibexU.s 			page 35


 1670 0d90 07F58B63 		add	r3, r7, #1112
 1671 0d94 D3E90034 		ldrd	r3, [r3]
 1672 0d98 83EA0108 		eor	r8, r3, r1
 1673 0d9c 84EA0209 		eor	r9, r4, r2
 1674 0da0 15EB080A 		adds	r10, r5, r8
 1675 0da4 46EB090B 		adc	fp, r6, r9
 1676 0da8 CF4A     		ldr	r2, .L27
 1677 0daa D7F87434 		ldr	r3, [r7, #1140]
 1678 0dae DB00     		lsls	r3, r3, #3
 1679 0db0 1344     		add	r3, r3, r2
 1680 0db2 D3E90034 		ldrd	r3, [r3]
 1681 0db6 1AEB0300 		adds	r0, r10, r3
 1682 0dba 4BEB0401 		adc	r1, fp, r4
 1683 0dbe 07F5D072 		add	r2, r7, #416
 1684 0dc2 D7F87434 		ldr	r3, [r7, #1140]
 1685 0dc6 DB00     		lsls	r3, r3, #3
 1686 0dc8 1344     		add	r3, r3, r2
 1687 0dca D3E90056 		ldrd	r5, [r3]
 1688 0dce 2B18     		adds	r3, r5, r0
 1689 0dd0 46EB0104 		adc	r4, r6, r1
 1690 0dd4 07F58562 		add	r2, r7, #1064
 1691 0dd8 C2E90034 		strd	r3, [r2]
 1692 0ddc D7F84C34 		ldr	r3, [r7, #1100]
 1693 0de0 1A01     		lsls	r2, r3, #4
 1694 0de2 D7F84834 		ldr	r3, [r7, #1096]
 1695 0de6 1B0F     		lsrs	r3, r3, #28
 1696 0de8 1343     		orrs	r3, r3, r2
 1697 0dea C7F8A030 		str	r3, [r7, #160]
 1698 0dee D7F84834 		ldr	r3, [r7, #1096]
 1699 0df2 1A01     		lsls	r2, r3, #4
 1700 0df4 D7F84C34 		ldr	r3, [r7, #1100]
 1701 0df8 1B0F     		lsrs	r3, r3, #28
 1702 0dfa 1343     		orrs	r3, r3, r2
 1703 0dfc C7F8A430 		str	r3, [r7, #164]
 1704 0e00 D7F84834 		ldr	r3, [r7, #1096]
 1705 0e04 9A08     		lsrs	r2, r3, #2
 1706 0e06 D7F84C34 		ldr	r3, [r7, #1100]
 1707 0e0a 9B07     		lsls	r3, r3, #30
 1708 0e0c 1343     		orrs	r3, r3, r2
 1709 0e0e C7F89C30 		str	r3, [r7, #156]
 1710 0e12 D7F84C34 		ldr	r3, [r7, #1100]
 1711 0e16 9A08     		lsrs	r2, r3, #2
 1712 0e18 D7F84834 		ldr	r3, [r7, #1096]
 1713 0e1c 9B07     		lsls	r3, r3, #30
 1714 0e1e 1343     		orrs	r3, r3, r2
 1715 0e20 C7F89830 		str	r3, [r7, #152]
 1716 0e24 D7E92801 		ldrd	r0, [r7, #160]
 1717 0e28 D7E92634 		ldrd	r3, [r7, #152]
 1718 0e2c 80EA0300 		eor	r0, r0, r3
 1719 0e30 81EA0401 		eor	r1, r1, r4
 1720 0e34 D7F84834 		ldr	r3, [r7, #1096]
 1721 0e38 DA09     		lsrs	r2, r3, #7
 1722 0e3a D7F84C34 		ldr	r3, [r7, #1100]
 1723 0e3e 5B06     		lsls	r3, r3, #25
 1724 0e40 1343     		orrs	r3, r3, r2
 1725 0e42 C7F89430 		str	r3, [r7, #148]
 1726 0e46 D7F84C34 		ldr	r3, [r7, #1100]
ARM GAS  C:\Users\dtjld\AppData\Local\Temp\cczibexU.s 			page 36


 1727 0e4a DA09     		lsrs	r2, r3, #7
 1728 0e4c D7F84834 		ldr	r3, [r7, #1096]
 1729 0e50 5B06     		lsls	r3, r3, #25
 1730 0e52 1343     		orrs	r3, r3, r2
 1731 0e54 C7F89030 		str	r3, [r7, #144]
 1732 0e58 D7E92489 		ldrd	r8, [r7, #144]
 1733 0e5c 88EA0008 		eor	r8, r8, r0
 1734 0e60 89EA0109 		eor	r9, r9, r1
 1735 0e64 07F58963 		add	r3, r7, #1096
 1736 0e68 D3E90012 		ldrd	r1, [r3]
 1737 0e6c 07F58863 		add	r3, r7, #1088
 1738 0e70 D3E90034 		ldrd	r3, [r3]
 1739 0e74 01EA0305 		and	r5, r1, r3
 1740 0e78 02EA0406 		and	r6, r2, r4
 1741 0e7c 07F58963 		add	r3, r7, #1096
 1742 0e80 D3E90012 		ldrd	r1, [r3]
 1743 0e84 07F58863 		add	r3, r7, #1088
 1744 0e88 D3E90034 		ldrd	r3, [r3]
 1745 0e8c 41EA030A 		orr	r10, r1, r3
 1746 0e90 42EA040B 		orr	fp, r2, r4
 1747 0e94 07F58763 		add	r3, r7, #1080
 1748 0e98 D3E90034 		ldrd	r3, [r3]
 1749 0e9c 03EA0A01 		and	r1, r3, r10
 1750 0ea0 04EA0B02 		and	r2, r4, fp
 1751 0ea4 41EA050A 		orr	r10, r1, r5
 1752 0ea8 42EA060B 		orr	fp, r2, r6
 1753 0eac 1AEB0803 		adds	r3, r10, r8
 1754 0eb0 4BEB0904 		adc	r4, fp, r9
 1755 0eb4 07F58462 		add	r2, r7, #1056
 1756 0eb8 C2E90034 		strd	r3, [r2]
 1757 0ebc 07F58663 		add	r3, r7, #1072
 1758 0ec0 D3E90012 		ldrd	r1, [r3]
 1759 0ec4 07F58563 		add	r3, r7, #1064
 1760 0ec8 D3E90034 		ldrd	r3, [r3]
 1761 0ecc 5D18     		adds	r5, r3, r1
 1762 0ece 44EB0206 		adc	r6, r4, r2
 1763 0ed2 07F58663 		add	r3, r7, #1072
 1764 0ed6 C3E90056 		strd	r5, [r3]
 1765 0eda 07F58563 		add	r3, r7, #1064
 1766 0ede D3E90012 		ldrd	r1, [r3]
 1767 0ee2 07F58463 		add	r3, r7, #1056
 1768 0ee6 D3E90034 		ldrd	r3, [r3]
 1769 0eea 5D18     		adds	r5, r3, r1
 1770 0eec 44EB0206 		adc	r6, r4, r2
 1771 0ef0 07F58A63 		add	r3, r7, #1104
 1772 0ef4 C3E90056 		strd	r5, [r3]
 1773 0ef8 D7F87434 		ldr	r3, [r7, #1140]
 1774 0efc 0133     		adds	r3, r3, #1
 1775 0efe C7F87434 		str	r3, [r7, #1140]
 275:C:/Users/dtjld/workspace/AIoT/src/LiteOS_Lab/iot_link/network/dtls/mbedtls/mbedtls-2.16.2/library\sha512.c ****         P( D, E, F, G, H, A, B, C, W[i], K[i] ); i++;
 1776              		.loc 1 275 0 discriminator 1
 1777 0f02 D7F83434 		ldr	r3, [r7, #1076]
 1778 0f06 9A04     		lsls	r2, r3, #18
 1779 0f08 D7F83034 		ldr	r3, [r7, #1072]
 1780 0f0c 9B0B     		lsrs	r3, r3, #14
 1781 0f0e 1343     		orrs	r3, r3, r2
 1782 0f10 C7F88830 		str	r3, [r7, #136]
ARM GAS  C:\Users\dtjld\AppData\Local\Temp\cczibexU.s 			page 37


 1783 0f14 D7F83034 		ldr	r3, [r7, #1072]
 1784 0f18 9A04     		lsls	r2, r3, #18
 1785 0f1a D7F83434 		ldr	r3, [r7, #1076]
 1786 0f1e 9B0B     		lsrs	r3, r3, #14
 1787 0f20 1343     		orrs	r3, r3, r2
 1788 0f22 C7F88C30 		str	r3, [r7, #140]
 1789 0f26 D7F83434 		ldr	r3, [r7, #1076]
 1790 0f2a 9A03     		lsls	r2, r3, #14
 1791 0f2c D7F83034 		ldr	r3, [r7, #1072]
 1792 0f30 9B0C     		lsrs	r3, r3, #18
 1793 0f32 1343     		orrs	r3, r3, r2
 1794 0f34 C7F88030 		str	r3, [r7, #128]
 1795 0f38 D7F83034 		ldr	r3, [r7, #1072]
 1796 0f3c 9A03     		lsls	r2, r3, #14
 1797 0f3e D7F83434 		ldr	r3, [r7, #1076]
 1798 0f42 9B0C     		lsrs	r3, r3, #18
 1799 0f44 1343     		orrs	r3, r3, r2
 1800 0f46 C7F88430 		str	r3, [r7, #132]
 1801 0f4a D7E92201 		ldrd	r0, [r7, #136]
 1802 0f4e D7E92034 		ldrd	r3, [r7, #128]
 1803 0f52 80EA0300 		eor	r0, r0, r3
 1804 0f56 81EA0401 		eor	r1, r1, r4
 1805 0f5a D7F83034 		ldr	r3, [r7, #1072]
 1806 0f5e 5A0A     		lsrs	r2, r3, #9
 1807 0f60 D7F83434 		ldr	r3, [r7, #1076]
 1808 0f64 DB05     		lsls	r3, r3, #23
 1809 0f66 1343     		orrs	r3, r3, r2
 1810 0f68 FB67     		str	r3, [r7, #124]
 1811 0f6a D7F83434 		ldr	r3, [r7, #1076]
 1812 0f6e 5A0A     		lsrs	r2, r3, #9
 1813 0f70 D7F83034 		ldr	r3, [r7, #1072]
 1814 0f74 DB05     		lsls	r3, r3, #23
 1815 0f76 1343     		orrs	r3, r3, r2
 1816 0f78 BB67     		str	r3, [r7, #120]
 1817 0f7a D7E91E34 		ldrd	r3, [r7, #120]
 1818 0f7e 83EA0003 		eor	r3, r3, r0
 1819 0f82 84EA0104 		eor	r4, r4, r1
 1820 0f86 1946     		mov	r1, r3
 1821 0f88 2246     		mov	r2, r4
 1822 0f8a 07F58B63 		add	r3, r7, #1112
 1823 0f8e D3E90034 		ldrd	r3, [r3]
 1824 0f92 CD18     		adds	r5, r1, r3
 1825 0f94 42EB0406 		adc	r6, r2, r4
 1826 0f98 07F58D63 		add	r3, r7, #1128
 1827 0f9c D3E90012 		ldrd	r1, [r3]
 1828 0fa0 07F58C63 		add	r3, r7, #1120
 1829 0fa4 D3E90034 		ldrd	r3, [r3]
 1830 0fa8 81EA0308 		eor	r8, r1, r3
 1831 0fac 82EA0409 		eor	r9, r2, r4
 1832 0fb0 07F58663 		add	r3, r7, #1072
 1833 0fb4 D3E90034 		ldrd	r3, [r3]
 1834 0fb8 08EA0301 		and	r1, r8, r3
 1835 0fbc 09EA0402 		and	r2, r9, r4
 1836 0fc0 07F58C63 		add	r3, r7, #1120
 1837 0fc4 D3E90034 		ldrd	r3, [r3]
 1838 0fc8 83EA0108 		eor	r8, r3, r1
 1839 0fcc 84EA0209 		eor	r9, r4, r2
ARM GAS  C:\Users\dtjld\AppData\Local\Temp\cczibexU.s 			page 38


 1840 0fd0 15EB080A 		adds	r10, r5, r8
 1841 0fd4 46EB090B 		adc	fp, r6, r9
 1842 0fd8 434A     		ldr	r2, .L27
 1843 0fda D7F87434 		ldr	r3, [r7, #1140]
 1844 0fde DB00     		lsls	r3, r3, #3
 1845 0fe0 1344     		add	r3, r3, r2
 1846 0fe2 D3E90034 		ldrd	r3, [r3]
 1847 0fe6 1AEB0300 		adds	r0, r10, r3
 1848 0fea 4BEB0401 		adc	r1, fp, r4
 1849 0fee 07F5D072 		add	r2, r7, #416
 1850 0ff2 D7F87434 		ldr	r3, [r7, #1140]
 1851 0ff6 DB00     		lsls	r3, r3, #3
 1852 0ff8 1344     		add	r3, r3, r2
 1853 0ffa D3E90056 		ldrd	r5, [r3]
 1854 0ffe 2B18     		adds	r3, r5, r0
 1855 1000 46EB0104 		adc	r4, r6, r1
 1856 1004 07F58562 		add	r2, r7, #1064
 1857 1008 C2E90034 		strd	r3, [r2]
 1858 100c D7F85434 		ldr	r3, [r7, #1108]
 1859 1010 1A01     		lsls	r2, r3, #4
 1860 1012 D7F85034 		ldr	r3, [r7, #1104]
 1861 1016 1B0F     		lsrs	r3, r3, #28
 1862 1018 1343     		orrs	r3, r3, r2
 1863 101a 3B67     		str	r3, [r7, #112]
 1864 101c D7F85034 		ldr	r3, [r7, #1104]
 1865 1020 1A01     		lsls	r2, r3, #4
 1866 1022 D7F85434 		ldr	r3, [r7, #1108]
 1867 1026 1B0F     		lsrs	r3, r3, #28
 1868 1028 1343     		orrs	r3, r3, r2
 1869 102a 7B67     		str	r3, [r7, #116]
 1870 102c D7F85034 		ldr	r3, [r7, #1104]
 1871 1030 9A08     		lsrs	r2, r3, #2
 1872 1032 D7F85434 		ldr	r3, [r7, #1108]
 1873 1036 9B07     		lsls	r3, r3, #30
 1874 1038 1343     		orrs	r3, r3, r2
 1875 103a FB66     		str	r3, [r7, #108]
 1876 103c D7F85434 		ldr	r3, [r7, #1108]
 1877 1040 9A08     		lsrs	r2, r3, #2
 1878 1042 D7F85034 		ldr	r3, [r7, #1104]
 1879 1046 9B07     		lsls	r3, r3, #30
 1880 1048 1343     		orrs	r3, r3, r2
 1881 104a BB66     		str	r3, [r7, #104]
 1882 104c D7E91C01 		ldrd	r0, [r7, #112]
 1883 1050 D7E91A34 		ldrd	r3, [r7, #104]
 1884 1054 80EA0300 		eor	r0, r0, r3
 1885 1058 81EA0401 		eor	r1, r1, r4
 1886 105c D7F85034 		ldr	r3, [r7, #1104]
 1887 1060 DA09     		lsrs	r2, r3, #7
 1888 1062 D7F85434 		ldr	r3, [r7, #1108]
 1889 1066 5B06     		lsls	r3, r3, #25
 1890 1068 1343     		orrs	r3, r3, r2
 1891 106a 7B66     		str	r3, [r7, #100]
 1892 106c D7F85434 		ldr	r3, [r7, #1108]
 1893 1070 DA09     		lsrs	r2, r3, #7
 1894 1072 D7F85034 		ldr	r3, [r7, #1104]
 1895 1076 5B06     		lsls	r3, r3, #25
 1896 1078 1343     		orrs	r3, r3, r2
ARM GAS  C:\Users\dtjld\AppData\Local\Temp\cczibexU.s 			page 39


 1897 107a 3B66     		str	r3, [r7, #96]
 1898 107c D7E91889 		ldrd	r8, [r7, #96]
 1899 1080 88EA0008 		eor	r8, r8, r0
 1900 1084 89EA0109 		eor	r9, r9, r1
 1901 1088 07F58A63 		add	r3, r7, #1104
 1902 108c D3E90012 		ldrd	r1, [r3]
 1903 1090 07F58963 		add	r3, r7, #1096
 1904 1094 D3E90034 		ldrd	r3, [r3]
 1905 1098 01EA0305 		and	r5, r1, r3
 1906 109c 02EA0406 		and	r6, r2, r4
 1907 10a0 07F58A63 		add	r3, r7, #1104
 1908 10a4 D3E90012 		ldrd	r1, [r3]
 1909 10a8 07F58963 		add	r3, r7, #1096
 1910 10ac D3E90034 		ldrd	r3, [r3]
 1911 10b0 41EA030A 		orr	r10, r1, r3
 1912 10b4 42EA040B 		orr	fp, r2, r4
 1913 10b8 07F58863 		add	r3, r7, #1088
 1914 10bc D3E90034 		ldrd	r3, [r3]
 1915 10c0 03EA0A01 		and	r1, r3, r10
 1916 10c4 04EA0B02 		and	r2, r4, fp
 1917 10c8 41EA050A 		orr	r10, r1, r5
 1918 10cc 42EA060B 		orr	fp, r2, r6
 1919 10d0 1AEB0803 		adds	r3, r10, r8
 1920 10d4 4BEB0904 		adc	r4, fp, r9
 1921 10d8 07F58462 		add	r2, r7, #1056
 1922 10dc C2E90034 		strd	r3, [r2]
 1923 10e0 07F58763 		add	r3, r7, #1080
 1924 10e4 02E0     		b	.L28
 1925              	.L29:
 1926 10e6 00BF     		.align	2
 1927              	.L27:
 1928 10e8 00000000 		.word	K
 1929              	.L28:
 1930 10ec D3E90012 		ldrd	r1, [r3]
 1931 10f0 07F58563 		add	r3, r7, #1064
 1932 10f4 D3E90034 		ldrd	r3, [r3]
 1933 10f8 5D18     		adds	r5, r3, r1
 1934 10fa 44EB0206 		adc	r6, r4, r2
 1935 10fe 07F58763 		add	r3, r7, #1080
 1936 1102 C3E90056 		strd	r5, [r3]
 1937 1106 07F58563 		add	r3, r7, #1064
 1938 110a D3E90012 		ldrd	r1, [r3]
 1939 110e 07F58463 		add	r3, r7, #1056
 1940 1112 D3E90034 		ldrd	r3, [r3]
 1941 1116 5D18     		adds	r5, r3, r1
 1942 1118 44EB0206 		adc	r6, r4, r2
 1943 111c 07F58B63 		add	r3, r7, #1112
 1944 1120 C3E90056 		strd	r5, [r3]
 1945 1124 D7F87434 		ldr	r3, [r7, #1140]
 1946 1128 0133     		adds	r3, r3, #1
 1947 112a C7F87434 		str	r3, [r7, #1140]
 276:C:/Users/dtjld/workspace/AIoT/src/LiteOS_Lab/iot_link/network/dtls/mbedtls/mbedtls-2.16.2/library\sha512.c ****         P( C, D, E, F, G, H, A, B, W[i], K[i] ); i++;
 1948              		.loc 1 276 0 discriminator 1
 1949 112e D7F83C34 		ldr	r3, [r7, #1084]
 1950 1132 9A04     		lsls	r2, r3, #18
 1951 1134 D7F83834 		ldr	r3, [r7, #1080]
 1952 1138 9B0B     		lsrs	r3, r3, #14
ARM GAS  C:\Users\dtjld\AppData\Local\Temp\cczibexU.s 			page 40


 1953 113a 1343     		orrs	r3, r3, r2
 1954 113c BB65     		str	r3, [r7, #88]
 1955 113e D7F83834 		ldr	r3, [r7, #1080]
 1956 1142 9A04     		lsls	r2, r3, #18
 1957 1144 D7F83C34 		ldr	r3, [r7, #1084]
 1958 1148 9B0B     		lsrs	r3, r3, #14
 1959 114a 1343     		orrs	r3, r3, r2
 1960 114c FB65     		str	r3, [r7, #92]
 1961 114e D7F83C34 		ldr	r3, [r7, #1084]
 1962 1152 9A03     		lsls	r2, r3, #14
 1963 1154 D7F83834 		ldr	r3, [r7, #1080]
 1964 1158 9B0C     		lsrs	r3, r3, #18
 1965 115a 1343     		orrs	r3, r3, r2
 1966 115c 3B65     		str	r3, [r7, #80]
 1967 115e D7F83834 		ldr	r3, [r7, #1080]
 1968 1162 9A03     		lsls	r2, r3, #14
 1969 1164 D7F83C34 		ldr	r3, [r7, #1084]
 1970 1168 9B0C     		lsrs	r3, r3, #18
 1971 116a 1343     		orrs	r3, r3, r2
 1972 116c 7B65     		str	r3, [r7, #84]
 1973 116e D7E91601 		ldrd	r0, [r7, #88]
 1974 1172 D7E91434 		ldrd	r3, [r7, #80]
 1975 1176 80EA0300 		eor	r0, r0, r3
 1976 117a 81EA0401 		eor	r1, r1, r4
 1977 117e D7F83834 		ldr	r3, [r7, #1080]
 1978 1182 5A0A     		lsrs	r2, r3, #9
 1979 1184 D7F83C34 		ldr	r3, [r7, #1084]
 1980 1188 DB05     		lsls	r3, r3, #23
 1981 118a 1343     		orrs	r3, r3, r2
 1982 118c FB64     		str	r3, [r7, #76]
 1983 118e D7F83C34 		ldr	r3, [r7, #1084]
 1984 1192 5A0A     		lsrs	r2, r3, #9
 1985 1194 D7F83834 		ldr	r3, [r7, #1080]
 1986 1198 DB05     		lsls	r3, r3, #23
 1987 119a 1343     		orrs	r3, r3, r2
 1988 119c BB64     		str	r3, [r7, #72]
 1989 119e D7E91234 		ldrd	r3, [r7, #72]
 1990 11a2 83EA0003 		eor	r3, r3, r0
 1991 11a6 84EA0104 		eor	r4, r4, r1
 1992 11aa 1946     		mov	r1, r3
 1993 11ac 2246     		mov	r2, r4
 1994 11ae 07F58C63 		add	r3, r7, #1120
 1995 11b2 D3E90034 		ldrd	r3, [r3]
 1996 11b6 CD18     		adds	r5, r1, r3
 1997 11b8 42EB0406 		adc	r6, r2, r4
 1998 11bc 07F58663 		add	r3, r7, #1072
 1999 11c0 D3E90012 		ldrd	r1, [r3]
 2000 11c4 07F58D63 		add	r3, r7, #1128
 2001 11c8 D3E90034 		ldrd	r3, [r3]
 2002 11cc 81EA0308 		eor	r8, r1, r3
 2003 11d0 82EA0409 		eor	r9, r2, r4
 2004 11d4 07F58763 		add	r3, r7, #1080
 2005 11d8 D3E90034 		ldrd	r3, [r3]
 2006 11dc 08EA0301 		and	r1, r8, r3
 2007 11e0 09EA0402 		and	r2, r9, r4
 2008 11e4 07F58D63 		add	r3, r7, #1128
 2009 11e8 D3E90034 		ldrd	r3, [r3]
ARM GAS  C:\Users\dtjld\AppData\Local\Temp\cczibexU.s 			page 41


 2010 11ec 83EA0108 		eor	r8, r3, r1
 2011 11f0 84EA0209 		eor	r9, r4, r2
 2012 11f4 15EB080A 		adds	r10, r5, r8
 2013 11f8 46EB090B 		adc	fp, r6, r9
 2014 11fc CA4A     		ldr	r2, .L30
 2015 11fe D7F87434 		ldr	r3, [r7, #1140]
 2016 1202 DB00     		lsls	r3, r3, #3
 2017 1204 1344     		add	r3, r3, r2
 2018 1206 D3E90034 		ldrd	r3, [r3]
 2019 120a 1AEB0300 		adds	r0, r10, r3
 2020 120e 4BEB0401 		adc	r1, fp, r4
 2021 1212 07F5D072 		add	r2, r7, #416
 2022 1216 D7F87434 		ldr	r3, [r7, #1140]
 2023 121a DB00     		lsls	r3, r3, #3
 2024 121c 1344     		add	r3, r3, r2
 2025 121e D3E90056 		ldrd	r5, [r3]
 2026 1222 2B18     		adds	r3, r5, r0
 2027 1224 46EB0104 		adc	r4, r6, r1
 2028 1228 07F58562 		add	r2, r7, #1064
 2029 122c C2E90034 		strd	r3, [r2]
 2030 1230 D7F85C34 		ldr	r3, [r7, #1116]
 2031 1234 1A01     		lsls	r2, r3, #4
 2032 1236 D7F85834 		ldr	r3, [r7, #1112]
 2033 123a 1B0F     		lsrs	r3, r3, #28
 2034 123c 1343     		orrs	r3, r3, r2
 2035 123e 3B64     		str	r3, [r7, #64]
 2036 1240 D7F85834 		ldr	r3, [r7, #1112]
 2037 1244 1A01     		lsls	r2, r3, #4
 2038 1246 D7F85C34 		ldr	r3, [r7, #1116]
 2039 124a 1B0F     		lsrs	r3, r3, #28
 2040 124c 1343     		orrs	r3, r3, r2
 2041 124e 7B64     		str	r3, [r7, #68]
 2042 1250 D7F85834 		ldr	r3, [r7, #1112]
 2043 1254 9A08     		lsrs	r2, r3, #2
 2044 1256 D7F85C34 		ldr	r3, [r7, #1116]
 2045 125a 9B07     		lsls	r3, r3, #30
 2046 125c 1343     		orrs	r3, r3, r2
 2047 125e FB63     		str	r3, [r7, #60]
 2048 1260 D7F85C34 		ldr	r3, [r7, #1116]
 2049 1264 9A08     		lsrs	r2, r3, #2
 2050 1266 D7F85834 		ldr	r3, [r7, #1112]
 2051 126a 9B07     		lsls	r3, r3, #30
 2052 126c 1343     		orrs	r3, r3, r2
 2053 126e BB63     		str	r3, [r7, #56]
 2054 1270 D7E91001 		ldrd	r0, [r7, #64]
 2055 1274 D7E90E34 		ldrd	r3, [r7, #56]
 2056 1278 80EA0300 		eor	r0, r0, r3
 2057 127c 81EA0401 		eor	r1, r1, r4
 2058 1280 D7F85834 		ldr	r3, [r7, #1112]
 2059 1284 DA09     		lsrs	r2, r3, #7
 2060 1286 D7F85C34 		ldr	r3, [r7, #1116]
 2061 128a 5B06     		lsls	r3, r3, #25
 2062 128c 1343     		orrs	r3, r3, r2
 2063 128e 7B63     		str	r3, [r7, #52]
 2064 1290 D7F85C34 		ldr	r3, [r7, #1116]
 2065 1294 DA09     		lsrs	r2, r3, #7
 2066 1296 D7F85834 		ldr	r3, [r7, #1112]
ARM GAS  C:\Users\dtjld\AppData\Local\Temp\cczibexU.s 			page 42


 2067 129a 5B06     		lsls	r3, r3, #25
 2068 129c 1343     		orrs	r3, r3, r2
 2069 129e 3B63     		str	r3, [r7, #48]
 2070 12a0 D7E90C89 		ldrd	r8, [r7, #48]
 2071 12a4 88EA0008 		eor	r8, r8, r0
 2072 12a8 89EA0109 		eor	r9, r9, r1
 2073 12ac 07F58B63 		add	r3, r7, #1112
 2074 12b0 D3E90012 		ldrd	r1, [r3]
 2075 12b4 07F58A63 		add	r3, r7, #1104
 2076 12b8 D3E90034 		ldrd	r3, [r3]
 2077 12bc 01EA0305 		and	r5, r1, r3
 2078 12c0 02EA0406 		and	r6, r2, r4
 2079 12c4 07F58B63 		add	r3, r7, #1112
 2080 12c8 D3E90012 		ldrd	r1, [r3]
 2081 12cc 07F58A63 		add	r3, r7, #1104
 2082 12d0 D3E90034 		ldrd	r3, [r3]
 2083 12d4 41EA030A 		orr	r10, r1, r3
 2084 12d8 42EA040B 		orr	fp, r2, r4
 2085 12dc 07F58963 		add	r3, r7, #1096
 2086 12e0 D3E90034 		ldrd	r3, [r3]
 2087 12e4 03EA0A01 		and	r1, r3, r10
 2088 12e8 04EA0B02 		and	r2, r4, fp
 2089 12ec 41EA050A 		orr	r10, r1, r5
 2090 12f0 42EA060B 		orr	fp, r2, r6
 2091 12f4 1AEB0803 		adds	r3, r10, r8
 2092 12f8 4BEB0904 		adc	r4, fp, r9
 2093 12fc 07F58462 		add	r2, r7, #1056
 2094 1300 C2E90034 		strd	r3, [r2]
 2095 1304 07F58863 		add	r3, r7, #1088
 2096 1308 D3E90012 		ldrd	r1, [r3]
 2097 130c 07F58563 		add	r3, r7, #1064
 2098 1310 D3E90034 		ldrd	r3, [r3]
 2099 1314 5D18     		adds	r5, r3, r1
 2100 1316 44EB0206 		adc	r6, r4, r2
 2101 131a 07F58863 		add	r3, r7, #1088
 2102 131e C3E90056 		strd	r5, [r3]
 2103 1322 07F58563 		add	r3, r7, #1064
 2104 1326 D3E90012 		ldrd	r1, [r3]
 2105 132a 07F58463 		add	r3, r7, #1056
 2106 132e D3E90034 		ldrd	r3, [r3]
 2107 1332 5D18     		adds	r5, r3, r1
 2108 1334 44EB0206 		adc	r6, r4, r2
 2109 1338 07F58C63 		add	r3, r7, #1120
 2110 133c C3E90056 		strd	r5, [r3]
 2111 1340 D7F87434 		ldr	r3, [r7, #1140]
 2112 1344 0133     		adds	r3, r3, #1
 2113 1346 C7F87434 		str	r3, [r7, #1140]
 277:C:/Users/dtjld/workspace/AIoT/src/LiteOS_Lab/iot_link/network/dtls/mbedtls/mbedtls-2.16.2/library\sha512.c ****         P( B, C, D, E, F, G, H, A, W[i], K[i] ); i++;
 2114              		.loc 1 277 0 discriminator 1
 2115 134a D7F84434 		ldr	r3, [r7, #1092]
 2116 134e 9A04     		lsls	r2, r3, #18
 2117 1350 D7F84034 		ldr	r3, [r7, #1088]
 2118 1354 9B0B     		lsrs	r3, r3, #14
 2119 1356 1343     		orrs	r3, r3, r2
 2120 1358 BB62     		str	r3, [r7, #40]
 2121 135a D7F84034 		ldr	r3, [r7, #1088]
 2122 135e 9A04     		lsls	r2, r3, #18
ARM GAS  C:\Users\dtjld\AppData\Local\Temp\cczibexU.s 			page 43


 2123 1360 D7F84434 		ldr	r3, [r7, #1092]
 2124 1364 9B0B     		lsrs	r3, r3, #14
 2125 1366 1343     		orrs	r3, r3, r2
 2126 1368 FB62     		str	r3, [r7, #44]
 2127 136a D7F84434 		ldr	r3, [r7, #1092]
 2128 136e 9A03     		lsls	r2, r3, #14
 2129 1370 D7F84034 		ldr	r3, [r7, #1088]
 2130 1374 9B0C     		lsrs	r3, r3, #18
 2131 1376 1343     		orrs	r3, r3, r2
 2132 1378 3B62     		str	r3, [r7, #32]
 2133 137a D7F84034 		ldr	r3, [r7, #1088]
 2134 137e 9A03     		lsls	r2, r3, #14
 2135 1380 D7F84434 		ldr	r3, [r7, #1092]
 2136 1384 9B0C     		lsrs	r3, r3, #18
 2137 1386 1343     		orrs	r3, r3, r2
 2138 1388 7B62     		str	r3, [r7, #36]
 2139 138a D7E90A01 		ldrd	r0, [r7, #40]
 2140 138e D7E90834 		ldrd	r3, [r7, #32]
 2141 1392 80EA0300 		eor	r0, r0, r3
 2142 1396 81EA0401 		eor	r1, r1, r4
 2143 139a D7F84034 		ldr	r3, [r7, #1088]
 2144 139e 5A0A     		lsrs	r2, r3, #9
 2145 13a0 D7F84434 		ldr	r3, [r7, #1092]
 2146 13a4 DB05     		lsls	r3, r3, #23
 2147 13a6 1343     		orrs	r3, r3, r2
 2148 13a8 FB61     		str	r3, [r7, #28]
 2149 13aa D7F84434 		ldr	r3, [r7, #1092]
 2150 13ae 5A0A     		lsrs	r2, r3, #9
 2151 13b0 D7F84034 		ldr	r3, [r7, #1088]
 2152 13b4 DB05     		lsls	r3, r3, #23
 2153 13b6 1343     		orrs	r3, r3, r2
 2154 13b8 BB61     		str	r3, [r7, #24]
 2155 13ba D7E90634 		ldrd	r3, [r7, #24]
 2156 13be 83EA0003 		eor	r3, r3, r0
 2157 13c2 84EA0104 		eor	r4, r4, r1
 2158 13c6 1946     		mov	r1, r3
 2159 13c8 2246     		mov	r2, r4
 2160 13ca 07F58D63 		add	r3, r7, #1128
 2161 13ce D3E90034 		ldrd	r3, [r3]
 2162 13d2 CD18     		adds	r5, r1, r3
 2163 13d4 42EB0406 		adc	r6, r2, r4
 2164 13d8 07F58763 		add	r3, r7, #1080
 2165 13dc D3E90012 		ldrd	r1, [r3]
 2166 13e0 07F58663 		add	r3, r7, #1072
 2167 13e4 D3E90034 		ldrd	r3, [r3]
 2168 13e8 81EA0308 		eor	r8, r1, r3
 2169 13ec 82EA0409 		eor	r9, r2, r4
 2170 13f0 07F58863 		add	r3, r7, #1088
 2171 13f4 D3E90034 		ldrd	r3, [r3]
 2172 13f8 08EA0301 		and	r1, r8, r3
 2173 13fc 09EA0402 		and	r2, r9, r4
 2174 1400 07F58663 		add	r3, r7, #1072
 2175 1404 D3E90034 		ldrd	r3, [r3]
 2176 1408 83EA0108 		eor	r8, r3, r1
 2177 140c 84EA0209 		eor	r9, r4, r2
 2178 1410 15EB080A 		adds	r10, r5, r8
 2179 1414 46EB090B 		adc	fp, r6, r9
ARM GAS  C:\Users\dtjld\AppData\Local\Temp\cczibexU.s 			page 44


 2180 1418 434A     		ldr	r2, .L30
 2181 141a D7F87434 		ldr	r3, [r7, #1140]
 2182 141e DB00     		lsls	r3, r3, #3
 2183 1420 1344     		add	r3, r3, r2
 2184 1422 D3E90034 		ldrd	r3, [r3]
 2185 1426 1AEB0300 		adds	r0, r10, r3
 2186 142a 4BEB0401 		adc	r1, fp, r4
 2187 142e 07F5D072 		add	r2, r7, #416
 2188 1432 D7F87434 		ldr	r3, [r7, #1140]
 2189 1436 DB00     		lsls	r3, r3, #3
 2190 1438 1344     		add	r3, r3, r2
 2191 143a D3E90056 		ldrd	r5, [r3]
 2192 143e 2B18     		adds	r3, r5, r0
 2193 1440 46EB0104 		adc	r4, r6, r1
 2194 1444 07F58562 		add	r2, r7, #1064
 2195 1448 C2E90034 		strd	r3, [r2]
 2196 144c D7F86434 		ldr	r3, [r7, #1124]
 2197 1450 1A01     		lsls	r2, r3, #4
 2198 1452 D7F86034 		ldr	r3, [r7, #1120]
 2199 1456 1B0F     		lsrs	r3, r3, #28
 2200 1458 1343     		orrs	r3, r3, r2
 2201 145a 3B61     		str	r3, [r7, #16]
 2202 145c D7F86034 		ldr	r3, [r7, #1120]
 2203 1460 1A01     		lsls	r2, r3, #4
 2204 1462 D7F86434 		ldr	r3, [r7, #1124]
 2205 1466 1B0F     		lsrs	r3, r3, #28
 2206 1468 1343     		orrs	r3, r3, r2
 2207 146a 7B61     		str	r3, [r7, #20]
 2208 146c D7F86034 		ldr	r3, [r7, #1120]
 2209 1470 9A08     		lsrs	r2, r3, #2
 2210 1472 D7F86434 		ldr	r3, [r7, #1124]
 2211 1476 9B07     		lsls	r3, r3, #30
 2212 1478 1343     		orrs	r3, r3, r2
 2213 147a FB60     		str	r3, [r7, #12]
 2214 147c D7F86434 		ldr	r3, [r7, #1124]
 2215 1480 9A08     		lsrs	r2, r3, #2
 2216 1482 D7F86034 		ldr	r3, [r7, #1120]
 2217 1486 9B07     		lsls	r3, r3, #30
 2218 1488 1343     		orrs	r3, r3, r2
 2219 148a BB60     		str	r3, [r7, #8]
 2220 148c D7E90401 		ldrd	r0, [r7, #16]
 2221 1490 D7E90234 		ldrd	r3, [r7, #8]
 2222 1494 80EA0300 		eor	r0, r0, r3
 2223 1498 81EA0401 		eor	r1, r1, r4
 2224 149c D7F86034 		ldr	r3, [r7, #1120]
 2225 14a0 DA09     		lsrs	r2, r3, #7
 2226 14a2 D7F86434 		ldr	r3, [r7, #1124]
 2227 14a6 5B06     		lsls	r3, r3, #25
 2228 14a8 1343     		orrs	r3, r3, r2
 2229 14aa 7B60     		str	r3, [r7, #4]
 2230 14ac D7F86434 		ldr	r3, [r7, #1124]
 2231 14b0 DA09     		lsrs	r2, r3, #7
 2232 14b2 D7F86034 		ldr	r3, [r7, #1120]
 2233 14b6 5B06     		lsls	r3, r3, #25
 2234 14b8 1343     		orrs	r3, r3, r2
 2235 14ba 3B60     		str	r3, [r7]
 2236 14bc D7E90089 		ldrd	r8, [r7]
ARM GAS  C:\Users\dtjld\AppData\Local\Temp\cczibexU.s 			page 45


 2237 14c0 88EA0008 		eor	r8, r8, r0
 2238 14c4 89EA0109 		eor	r9, r9, r1
 2239 14c8 07F58C63 		add	r3, r7, #1120
 2240 14cc D3E90012 		ldrd	r1, [r3]
 2241 14d0 07F58B63 		add	r3, r7, #1112
 2242 14d4 D3E90034 		ldrd	r3, [r3]
 2243 14d8 01EA0305 		and	r5, r1, r3
 2244 14dc 02EA0406 		and	r6, r2, r4
 2245 14e0 07F58C63 		add	r3, r7, #1120
 2246 14e4 D3E90012 		ldrd	r1, [r3]
 2247 14e8 07F58B63 		add	r3, r7, #1112
 2248 14ec D3E90034 		ldrd	r3, [r3]
 2249 14f0 41EA030A 		orr	r10, r1, r3
 2250 14f4 42EA040B 		orr	fp, r2, r4
 2251 14f8 07F58A63 		add	r3, r7, #1104
 2252 14fc D3E90034 		ldrd	r3, [r3]
 2253 1500 03EA0A01 		and	r1, r3, r10
 2254 1504 04EA0B02 		and	r2, r4, fp
 2255 1508 41EA050A 		orr	r10, r1, r5
 2256 150c 42EA060B 		orr	fp, r2, r6
 2257 1510 1AEB0803 		adds	r3, r10, r8
 2258 1514 4BEB0904 		adc	r4, fp, r9
 2259 1518 07F58462 		add	r2, r7, #1056
 2260 151c C2E90034 		strd	r3, [r2]
 2261 1520 07F58963 		add	r3, r7, #1096
 2262 1524 02E0     		b	.L31
 2263              	.L32:
 2264 1526 00BF     		.align	2
 2265              	.L30:
 2266 1528 00000000 		.word	K
 2267              	.L31:
 2268 152c D3E90012 		ldrd	r1, [r3]
 2269 1530 07F58563 		add	r3, r7, #1064
 2270 1534 D3E90034 		ldrd	r3, [r3]
 2271 1538 5D18     		adds	r5, r3, r1
 2272 153a 44EB0206 		adc	r6, r4, r2
 2273 153e 07F58963 		add	r3, r7, #1096
 2274 1542 C3E90056 		strd	r5, [r3]
 2275 1546 07F58563 		add	r3, r7, #1064
 2276 154a D3E90012 		ldrd	r1, [r3]
 2277 154e 07F58463 		add	r3, r7, #1056
 2278 1552 D3E90034 		ldrd	r3, [r3]
 2279 1556 5D18     		adds	r5, r3, r1
 2280 1558 44EB0206 		adc	r6, r4, r2
 2281 155c 07F58D63 		add	r3, r7, #1128
 2282 1560 C3E90056 		strd	r5, [r3]
 2283 1564 D7F87434 		ldr	r3, [r7, #1140]
 2284 1568 0133     		adds	r3, r3, #1
 2285 156a C7F87434 		str	r3, [r7, #1140]
 278:C:/Users/dtjld/workspace/AIoT/src/LiteOS_Lab/iot_link/network/dtls/mbedtls/mbedtls-2.16.2/library\sha512.c ****     }
 279:C:/Users/dtjld/workspace/AIoT/src/LiteOS_Lab/iot_link/network/dtls/mbedtls/mbedtls-2.16.2/library\sha512.c ****     while( i < 80 );
 2286              		.loc 1 279 0 discriminator 1
 2287 156e D7F87434 		ldr	r3, [r7, #1140]
 2288 1572 4F2B     		cmp	r3, #79
 2289 1574 7EF71CAF 		ble	.L19
 280:C:/Users/dtjld/workspace/AIoT/src/LiteOS_Lab/iot_link/network/dtls/mbedtls/mbedtls-2.16.2/library\sha512.c **** 
 281:C:/Users/dtjld/workspace/AIoT/src/LiteOS_Lab/iot_link/network/dtls/mbedtls/mbedtls-2.16.2/library\sha512.c ****     ctx->state[0] += A;
ARM GAS  C:\Users\dtjld\AppData\Local\Temp\cczibexU.s 			page 46


 2290              		.loc 1 281 0
 2291 1578 07F5CE73 		add	r3, r7, #412
 2292 157c 1B68     		ldr	r3, [r3]
 2293 157e D3E90412 		ldrd	r1, [r3, #16]
 2294 1582 07F58D63 		add	r3, r7, #1128
 2295 1586 D3E90034 		ldrd	r3, [r3]
 2296 158a 5D18     		adds	r5, r3, r1
 2297 158c 44EB0206 		adc	r6, r4, r2
 2298 1590 07F5CE72 		add	r2, r7, #412
 2299 1594 1268     		ldr	r2, [r2]
 2300 1596 C2E90456 		strd	r5, [r2, #16]
 282:C:/Users/dtjld/workspace/AIoT/src/LiteOS_Lab/iot_link/network/dtls/mbedtls/mbedtls-2.16.2/library\sha512.c ****     ctx->state[1] += B;
 2301              		.loc 1 282 0
 2302 159a 07F5CE73 		add	r3, r7, #412
 2303 159e 1B68     		ldr	r3, [r3]
 2304 15a0 D3E90612 		ldrd	r1, [r3, #24]
 2305 15a4 07F58C63 		add	r3, r7, #1120
 2306 15a8 D3E90034 		ldrd	r3, [r3]
 2307 15ac 5D18     		adds	r5, r3, r1
 2308 15ae 44EB0206 		adc	r6, r4, r2
 2309 15b2 07F5CE72 		add	r2, r7, #412
 2310 15b6 1268     		ldr	r2, [r2]
 2311 15b8 C2E90656 		strd	r5, [r2, #24]
 283:C:/Users/dtjld/workspace/AIoT/src/LiteOS_Lab/iot_link/network/dtls/mbedtls/mbedtls-2.16.2/library\sha512.c ****     ctx->state[2] += C;
 2312              		.loc 1 283 0
 2313 15bc 07F5CE73 		add	r3, r7, #412
 2314 15c0 1B68     		ldr	r3, [r3]
 2315 15c2 D3E90812 		ldrd	r1, [r3, #32]
 2316 15c6 07F58B63 		add	r3, r7, #1112
 2317 15ca D3E90034 		ldrd	r3, [r3]
 2318 15ce 5D18     		adds	r5, r3, r1
 2319 15d0 44EB0206 		adc	r6, r4, r2
 2320 15d4 07F5CE72 		add	r2, r7, #412
 2321 15d8 1268     		ldr	r2, [r2]
 2322 15da C2E90856 		strd	r5, [r2, #32]
 284:C:/Users/dtjld/workspace/AIoT/src/LiteOS_Lab/iot_link/network/dtls/mbedtls/mbedtls-2.16.2/library\sha512.c ****     ctx->state[3] += D;
 2323              		.loc 1 284 0
 2324 15de 07F5CE73 		add	r3, r7, #412
 2325 15e2 1B68     		ldr	r3, [r3]
 2326 15e4 D3E90A12 		ldrd	r1, [r3, #40]
 2327 15e8 07F58A63 		add	r3, r7, #1104
 2328 15ec D3E90034 		ldrd	r3, [r3]
 2329 15f0 5D18     		adds	r5, r3, r1
 2330 15f2 44EB0206 		adc	r6, r4, r2
 2331 15f6 07F5CE72 		add	r2, r7, #412
 2332 15fa 1268     		ldr	r2, [r2]
 2333 15fc C2E90A56 		strd	r5, [r2, #40]
 285:C:/Users/dtjld/workspace/AIoT/src/LiteOS_Lab/iot_link/network/dtls/mbedtls/mbedtls-2.16.2/library\sha512.c ****     ctx->state[4] += E;
 2334              		.loc 1 285 0
 2335 1600 07F5CE73 		add	r3, r7, #412
 2336 1604 1B68     		ldr	r3, [r3]
 2337 1606 D3E90C12 		ldrd	r1, [r3, #48]
 2338 160a 07F58963 		add	r3, r7, #1096
 2339 160e D3E90034 		ldrd	r3, [r3]
 2340 1612 5D18     		adds	r5, r3, r1
 2341 1614 44EB0206 		adc	r6, r4, r2
 2342 1618 07F5CE72 		add	r2, r7, #412
ARM GAS  C:\Users\dtjld\AppData\Local\Temp\cczibexU.s 			page 47


 2343 161c 1268     		ldr	r2, [r2]
 2344 161e C2E90C56 		strd	r5, [r2, #48]
 286:C:/Users/dtjld/workspace/AIoT/src/LiteOS_Lab/iot_link/network/dtls/mbedtls/mbedtls-2.16.2/library\sha512.c ****     ctx->state[5] += F;
 2345              		.loc 1 286 0
 2346 1622 07F5CE73 		add	r3, r7, #412
 2347 1626 1B68     		ldr	r3, [r3]
 2348 1628 D3E90E12 		ldrd	r1, [r3, #56]
 2349 162c 07F58863 		add	r3, r7, #1088
 2350 1630 D3E90034 		ldrd	r3, [r3]
 2351 1634 5D18     		adds	r5, r3, r1
 2352 1636 44EB0206 		adc	r6, r4, r2
 2353 163a 07F5CE72 		add	r2, r7, #412
 2354 163e 1268     		ldr	r2, [r2]
 2355 1640 C2E90E56 		strd	r5, [r2, #56]
 287:C:/Users/dtjld/workspace/AIoT/src/LiteOS_Lab/iot_link/network/dtls/mbedtls/mbedtls-2.16.2/library\sha512.c ****     ctx->state[6] += G;
 2356              		.loc 1 287 0
 2357 1644 07F5CE73 		add	r3, r7, #412
 2358 1648 1B68     		ldr	r3, [r3]
 2359 164a D3E91012 		ldrd	r1, [r3, #64]
 2360 164e 07F58763 		add	r3, r7, #1080
 2361 1652 D3E90034 		ldrd	r3, [r3]
 2362 1656 5D18     		adds	r5, r3, r1
 2363 1658 44EB0206 		adc	r6, r4, r2
 2364 165c 07F5CE72 		add	r2, r7, #412
 2365 1660 1268     		ldr	r2, [r2]
 2366 1662 C2E91056 		strd	r5, [r2, #64]
 288:C:/Users/dtjld/workspace/AIoT/src/LiteOS_Lab/iot_link/network/dtls/mbedtls/mbedtls-2.16.2/library\sha512.c ****     ctx->state[7] += H;
 2367              		.loc 1 288 0
 2368 1666 07F5CE73 		add	r3, r7, #412
 2369 166a 1B68     		ldr	r3, [r3]
 2370 166c D3E91212 		ldrd	r1, [r3, #72]
 2371 1670 07F58663 		add	r3, r7, #1072
 2372 1674 D3E90034 		ldrd	r3, [r3]
 2373 1678 5D18     		adds	r5, r3, r1
 2374 167a 44EB0206 		adc	r6, r4, r2
 2375 167e 07F5CE72 		add	r2, r7, #412
 2376 1682 1268     		ldr	r2, [r2]
 2377 1684 C2E91256 		strd	r5, [r2, #72]
 289:C:/Users/dtjld/workspace/AIoT/src/LiteOS_Lab/iot_link/network/dtls/mbedtls/mbedtls-2.16.2/library\sha512.c **** 
 290:C:/Users/dtjld/workspace/AIoT/src/LiteOS_Lab/iot_link/network/dtls/mbedtls/mbedtls-2.16.2/library\sha512.c ****     return( 0 );
 2378              		.loc 1 290 0
 2379 1688 0023     		movs	r3, #0
 291:C:/Users/dtjld/workspace/AIoT/src/LiteOS_Lab/iot_link/network/dtls/mbedtls/mbedtls-2.16.2/library\sha512.c **** }
 2380              		.loc 1 291 0
 2381 168a 1846     		mov	r0, r3
 2382 168c 07F58F67 		add	r7, r7, #1144
 2383              	.LCFI29:
 2384              		.cfi_def_cfa_offset 32
 2385 1690 BD46     		mov	sp, r7
 2386              	.LCFI30:
 2387              		.cfi_def_cfa_register 13
 2388              		@ sp needed
 2389 1692 BDE8F00F 		pop	{r4, r5, r6, r7, r8, r9, r10, fp}
 2390              	.LCFI31:
 2391              		.cfi_restore 11
 2392              		.cfi_restore 10
 2393              		.cfi_restore 9
ARM GAS  C:\Users\dtjld\AppData\Local\Temp\cczibexU.s 			page 48


 2394              		.cfi_restore 8
 2395              		.cfi_restore 7
 2396              		.cfi_restore 6
 2397              		.cfi_restore 5
 2398              		.cfi_restore 4
 2399              		.cfi_def_cfa_offset 0
 2400 1696 7047     		bx	lr
 2401              		.cfi_endproc
 2402              	.LFE8:
 2404              		.section	.text.mbedtls_sha512_process,"ax",%progbits
 2405              		.align	1
 2406              		.global	mbedtls_sha512_process
 2407              		.syntax unified
 2408              		.thumb
 2409              		.thumb_func
 2410              		.fpu fpv4-sp-d16
 2412              	mbedtls_sha512_process:
 2413              	.LFB9:
 292:C:/Users/dtjld/workspace/AIoT/src/LiteOS_Lab/iot_link/network/dtls/mbedtls/mbedtls-2.16.2/library\sha512.c **** 
 293:C:/Users/dtjld/workspace/AIoT/src/LiteOS_Lab/iot_link/network/dtls/mbedtls/mbedtls-2.16.2/library\sha512.c **** #if !defined(MBEDTLS_DEPRECATED_REMOVED)
 294:C:/Users/dtjld/workspace/AIoT/src/LiteOS_Lab/iot_link/network/dtls/mbedtls/mbedtls-2.16.2/library\sha512.c **** void mbedtls_sha512_process( mbedtls_sha512_context *ctx,
 295:C:/Users/dtjld/workspace/AIoT/src/LiteOS_Lab/iot_link/network/dtls/mbedtls/mbedtls-2.16.2/library\sha512.c ****                              const unsigned char data[128] )
 296:C:/Users/dtjld/workspace/AIoT/src/LiteOS_Lab/iot_link/network/dtls/mbedtls/mbedtls-2.16.2/library\sha512.c **** {
 2414              		.loc 1 296 0
 2415              		.cfi_startproc
 2416              		@ args = 0, pretend = 0, frame = 8
 2417              		@ frame_needed = 1, uses_anonymous_args = 0
 2418 0000 80B5     		push	{r7, lr}
 2419              	.LCFI32:
 2420              		.cfi_def_cfa_offset 8
 2421              		.cfi_offset 7, -8
 2422              		.cfi_offset 14, -4
 2423 0002 82B0     		sub	sp, sp, #8
 2424              	.LCFI33:
 2425              		.cfi_def_cfa_offset 16
 2426 0004 00AF     		add	r7, sp, #0
 2427              	.LCFI34:
 2428              		.cfi_def_cfa_register 7
 2429 0006 7860     		str	r0, [r7, #4]
 2430 0008 3960     		str	r1, [r7]
 297:C:/Users/dtjld/workspace/AIoT/src/LiteOS_Lab/iot_link/network/dtls/mbedtls/mbedtls-2.16.2/library\sha512.c ****     mbedtls_internal_sha512_process( ctx, data );
 2431              		.loc 1 297 0
 2432 000a 3968     		ldr	r1, [r7]
 2433 000c 7868     		ldr	r0, [r7, #4]
 2434 000e FFF7FEFF 		bl	mbedtls_internal_sha512_process
 298:C:/Users/dtjld/workspace/AIoT/src/LiteOS_Lab/iot_link/network/dtls/mbedtls/mbedtls-2.16.2/library\sha512.c **** }
 2435              		.loc 1 298 0
 2436 0012 00BF     		nop
 2437 0014 0837     		adds	r7, r7, #8
 2438              	.LCFI35:
 2439              		.cfi_def_cfa_offset 8
 2440 0016 BD46     		mov	sp, r7
 2441              	.LCFI36:
 2442              		.cfi_def_cfa_register 13
 2443              		@ sp needed
 2444 0018 80BD     		pop	{r7, pc}
 2445              		.cfi_endproc
ARM GAS  C:\Users\dtjld\AppData\Local\Temp\cczibexU.s 			page 49


 2446              	.LFE9:
 2448              		.section	.text.mbedtls_sha512_update_ret,"ax",%progbits
 2449              		.align	1
 2450              		.global	mbedtls_sha512_update_ret
 2451              		.syntax unified
 2452              		.thumb
 2453              		.thumb_func
 2454              		.fpu fpv4-sp-d16
 2456              	mbedtls_sha512_update_ret:
 2457              	.LFB10:
 299:C:/Users/dtjld/workspace/AIoT/src/LiteOS_Lab/iot_link/network/dtls/mbedtls/mbedtls-2.16.2/library\sha512.c **** #endif
 300:C:/Users/dtjld/workspace/AIoT/src/LiteOS_Lab/iot_link/network/dtls/mbedtls/mbedtls-2.16.2/library\sha512.c **** #endif /* !MBEDTLS_SHA512_PROCESS_ALT */
 301:C:/Users/dtjld/workspace/AIoT/src/LiteOS_Lab/iot_link/network/dtls/mbedtls/mbedtls-2.16.2/library\sha512.c **** 
 302:C:/Users/dtjld/workspace/AIoT/src/LiteOS_Lab/iot_link/network/dtls/mbedtls/mbedtls-2.16.2/library\sha512.c **** /*
 303:C:/Users/dtjld/workspace/AIoT/src/LiteOS_Lab/iot_link/network/dtls/mbedtls/mbedtls-2.16.2/library\sha512.c ****  * SHA-512 process buffer
 304:C:/Users/dtjld/workspace/AIoT/src/LiteOS_Lab/iot_link/network/dtls/mbedtls/mbedtls-2.16.2/library\sha512.c ****  */
 305:C:/Users/dtjld/workspace/AIoT/src/LiteOS_Lab/iot_link/network/dtls/mbedtls/mbedtls-2.16.2/library\sha512.c **** int mbedtls_sha512_update_ret( mbedtls_sha512_context *ctx,
 306:C:/Users/dtjld/workspace/AIoT/src/LiteOS_Lab/iot_link/network/dtls/mbedtls/mbedtls-2.16.2/library\sha512.c ****                                const unsigned char *input,
 307:C:/Users/dtjld/workspace/AIoT/src/LiteOS_Lab/iot_link/network/dtls/mbedtls/mbedtls-2.16.2/library\sha512.c ****                                size_t ilen )
 308:C:/Users/dtjld/workspace/AIoT/src/LiteOS_Lab/iot_link/network/dtls/mbedtls/mbedtls-2.16.2/library\sha512.c **** {
 2458              		.loc 1 308 0
 2459              		.cfi_startproc
 2460              		@ args = 0, pretend = 0, frame = 32
 2461              		@ frame_needed = 1, uses_anonymous_args = 0
 2462 0000 2DE99048 		push	{r4, r7, fp, lr}
 2463              	.LCFI37:
 2464              		.cfi_def_cfa_offset 16
 2465              		.cfi_offset 4, -16
 2466              		.cfi_offset 7, -12
 2467              		.cfi_offset 11, -8
 2468              		.cfi_offset 14, -4
 2469 0004 88B0     		sub	sp, sp, #32
 2470              	.LCFI38:
 2471              		.cfi_def_cfa_offset 48
 2472 0006 00AF     		add	r7, sp, #0
 2473              	.LCFI39:
 2474              		.cfi_def_cfa_register 7
 2475 0008 F860     		str	r0, [r7, #12]
 2476 000a B960     		str	r1, [r7, #8]
 2477 000c 7A60     		str	r2, [r7, #4]
 309:C:/Users/dtjld/workspace/AIoT/src/LiteOS_Lab/iot_link/network/dtls/mbedtls/mbedtls-2.16.2/library\sha512.c ****     int ret;
 310:C:/Users/dtjld/workspace/AIoT/src/LiteOS_Lab/iot_link/network/dtls/mbedtls/mbedtls-2.16.2/library\sha512.c ****     size_t fill;
 311:C:/Users/dtjld/workspace/AIoT/src/LiteOS_Lab/iot_link/network/dtls/mbedtls/mbedtls-2.16.2/library\sha512.c ****     unsigned int left;
 312:C:/Users/dtjld/workspace/AIoT/src/LiteOS_Lab/iot_link/network/dtls/mbedtls/mbedtls-2.16.2/library\sha512.c **** 
 313:C:/Users/dtjld/workspace/AIoT/src/LiteOS_Lab/iot_link/network/dtls/mbedtls/mbedtls-2.16.2/library\sha512.c ****     SHA512_VALIDATE_RET( ctx != NULL );
 314:C:/Users/dtjld/workspace/AIoT/src/LiteOS_Lab/iot_link/network/dtls/mbedtls/mbedtls-2.16.2/library\sha512.c ****     SHA512_VALIDATE_RET( ilen == 0 || input != NULL );
 315:C:/Users/dtjld/workspace/AIoT/src/LiteOS_Lab/iot_link/network/dtls/mbedtls/mbedtls-2.16.2/library\sha512.c **** 
 316:C:/Users/dtjld/workspace/AIoT/src/LiteOS_Lab/iot_link/network/dtls/mbedtls/mbedtls-2.16.2/library\sha512.c ****     if( ilen == 0 )
 2478              		.loc 1 316 0
 2479 000e 7B68     		ldr	r3, [r7, #4]
 2480 0010 002B     		cmp	r3, #0
 2481 0012 01D1     		bne	.L35
 317:C:/Users/dtjld/workspace/AIoT/src/LiteOS_Lab/iot_link/network/dtls/mbedtls/mbedtls-2.16.2/library\sha512.c ****         return( 0 );
 2482              		.loc 1 317 0
 2483 0014 0023     		movs	r3, #0
 2484 0016 73E0     		b	.L36
 2485              	.L35:
ARM GAS  C:\Users\dtjld\AppData\Local\Temp\cczibexU.s 			page 50


 318:C:/Users/dtjld/workspace/AIoT/src/LiteOS_Lab/iot_link/network/dtls/mbedtls/mbedtls-2.16.2/library\sha512.c **** 
 319:C:/Users/dtjld/workspace/AIoT/src/LiteOS_Lab/iot_link/network/dtls/mbedtls/mbedtls-2.16.2/library\sha512.c ****     left = (unsigned int) (ctx->total[0] & 0x7F);
 2486              		.loc 1 319 0
 2487 0018 FB68     		ldr	r3, [r7, #12]
 2488 001a D3E90034 		ldrd	r3, [r3]
 2489 001e 03F07F03 		and	r3, r3, #127
 2490 0022 FB61     		str	r3, [r7, #28]
 320:C:/Users/dtjld/workspace/AIoT/src/LiteOS_Lab/iot_link/network/dtls/mbedtls/mbedtls-2.16.2/library\sha512.c ****     fill = 128 - left;
 2491              		.loc 1 320 0
 2492 0024 FB69     		ldr	r3, [r7, #28]
 2493 0026 C3F18003 		rsb	r3, r3, #128
 2494 002a BB61     		str	r3, [r7, #24]
 321:C:/Users/dtjld/workspace/AIoT/src/LiteOS_Lab/iot_link/network/dtls/mbedtls/mbedtls-2.16.2/library\sha512.c **** 
 322:C:/Users/dtjld/workspace/AIoT/src/LiteOS_Lab/iot_link/network/dtls/mbedtls/mbedtls-2.16.2/library\sha512.c ****     ctx->total[0] += (uint64_t) ilen;
 2495              		.loc 1 322 0
 2496 002c FB68     		ldr	r3, [r7, #12]
 2497 002e D3E90012 		ldrd	r1, [r3]
 2498 0032 7B68     		ldr	r3, [r7, #4]
 2499 0034 9B46     		mov	fp, r3
 2500 0036 4FF0000C 		mov	ip, #0
 2501 003a 1BEB0103 		adds	r3, fp, r1
 2502 003e 4CEB0204 		adc	r4, ip, r2
 2503 0042 FA68     		ldr	r2, [r7, #12]
 2504 0044 C2E90034 		strd	r3, [r2]
 323:C:/Users/dtjld/workspace/AIoT/src/LiteOS_Lab/iot_link/network/dtls/mbedtls/mbedtls-2.16.2/library\sha512.c **** 
 324:C:/Users/dtjld/workspace/AIoT/src/LiteOS_Lab/iot_link/network/dtls/mbedtls/mbedtls-2.16.2/library\sha512.c ****     if( ctx->total[0] < (uint64_t) ilen )
 2505              		.loc 1 324 0
 2506 0048 FB68     		ldr	r3, [r7, #12]
 2507 004a D3E90012 		ldrd	r1, [r3]
 2508 004e 7B68     		ldr	r3, [r7, #4]
 2509 0050 4FF00004 		mov	r4, #0
 2510 0054 A242     		cmp	r2, r4
 2511 0056 08BF     		it	eq
 2512 0058 9942     		cmpeq	r1, r3
 2513 005a 08D2     		bcs	.L37
 325:C:/Users/dtjld/workspace/AIoT/src/LiteOS_Lab/iot_link/network/dtls/mbedtls/mbedtls-2.16.2/library\sha512.c ****         ctx->total[1]++;
 2514              		.loc 1 325 0
 2515 005c FB68     		ldr	r3, [r7, #12]
 2516 005e D3E90212 		ldrd	r1, [r3, #8]
 2517 0062 4B1C     		adds	r3, r1, #1
 2518 0064 42F10004 		adc	r4, r2, #0
 2519 0068 FA68     		ldr	r2, [r7, #12]
 2520 006a C2E90234 		strd	r3, [r2, #8]
 2521              	.L37:
 326:C:/Users/dtjld/workspace/AIoT/src/LiteOS_Lab/iot_link/network/dtls/mbedtls/mbedtls-2.16.2/library\sha512.c **** 
 327:C:/Users/dtjld/workspace/AIoT/src/LiteOS_Lab/iot_link/network/dtls/mbedtls/mbedtls-2.16.2/library\sha512.c ****     if( left && ilen >= fill )
 2522              		.loc 1 327 0
 2523 006e FB69     		ldr	r3, [r7, #28]
 2524 0070 002B     		cmp	r3, #0
 2525 0072 34D0     		beq	.L40
 2526              		.loc 1 327 0 is_stmt 0 discriminator 1
 2527 0074 7A68     		ldr	r2, [r7, #4]
 2528 0076 BB69     		ldr	r3, [r7, #24]
 2529 0078 9A42     		cmp	r2, r3
 2530 007a 30D3     		bcc	.L40
 328:C:/Users/dtjld/workspace/AIoT/src/LiteOS_Lab/iot_link/network/dtls/mbedtls/mbedtls-2.16.2/library\sha512.c ****     {
 329:C:/Users/dtjld/workspace/AIoT/src/LiteOS_Lab/iot_link/network/dtls/mbedtls/mbedtls-2.16.2/library\sha512.c ****         memcpy( (void *) (ctx->buffer + left), input, fill );
ARM GAS  C:\Users\dtjld\AppData\Local\Temp\cczibexU.s 			page 51


 2531              		.loc 1 329 0 is_stmt 1
 2532 007c FB68     		ldr	r3, [r7, #12]
 2533 007e 03F15002 		add	r2, r3, #80
 2534 0082 FB69     		ldr	r3, [r7, #28]
 2535 0084 1344     		add	r3, r3, r2
 2536 0086 BA69     		ldr	r2, [r7, #24]
 2537 0088 B968     		ldr	r1, [r7, #8]
 2538 008a 1846     		mov	r0, r3
 2539 008c FFF7FEFF 		bl	memcpy
 330:C:/Users/dtjld/workspace/AIoT/src/LiteOS_Lab/iot_link/network/dtls/mbedtls/mbedtls-2.16.2/library\sha512.c **** 
 331:C:/Users/dtjld/workspace/AIoT/src/LiteOS_Lab/iot_link/network/dtls/mbedtls/mbedtls-2.16.2/library\sha512.c ****         if( ( ret = mbedtls_internal_sha512_process( ctx, ctx->buffer ) ) != 0 )
 2540              		.loc 1 331 0
 2541 0090 FB68     		ldr	r3, [r7, #12]
 2542 0092 5033     		adds	r3, r3, #80
 2543 0094 1946     		mov	r1, r3
 2544 0096 F868     		ldr	r0, [r7, #12]
 2545 0098 FFF7FEFF 		bl	mbedtls_internal_sha512_process
 2546 009c 7861     		str	r0, [r7, #20]
 2547 009e 7B69     		ldr	r3, [r7, #20]
 2548 00a0 002B     		cmp	r3, #0
 2549 00a2 01D0     		beq	.L39
 332:C:/Users/dtjld/workspace/AIoT/src/LiteOS_Lab/iot_link/network/dtls/mbedtls/mbedtls-2.16.2/library\sha512.c ****             return( ret );
 2550              		.loc 1 332 0
 2551 00a4 7B69     		ldr	r3, [r7, #20]
 2552 00a6 2BE0     		b	.L36
 2553              	.L39:
 333:C:/Users/dtjld/workspace/AIoT/src/LiteOS_Lab/iot_link/network/dtls/mbedtls/mbedtls-2.16.2/library\sha512.c **** 
 334:C:/Users/dtjld/workspace/AIoT/src/LiteOS_Lab/iot_link/network/dtls/mbedtls/mbedtls-2.16.2/library\sha512.c ****         input += fill;
 2554              		.loc 1 334 0
 2555 00a8 BA68     		ldr	r2, [r7, #8]
 2556 00aa BB69     		ldr	r3, [r7, #24]
 2557 00ac 1344     		add	r3, r3, r2
 2558 00ae BB60     		str	r3, [r7, #8]
 335:C:/Users/dtjld/workspace/AIoT/src/LiteOS_Lab/iot_link/network/dtls/mbedtls/mbedtls-2.16.2/library\sha512.c ****         ilen  -= fill;
 2559              		.loc 1 335 0
 2560 00b0 7A68     		ldr	r2, [r7, #4]
 2561 00b2 BB69     		ldr	r3, [r7, #24]
 2562 00b4 D31A     		subs	r3, r2, r3
 2563 00b6 7B60     		str	r3, [r7, #4]
 336:C:/Users/dtjld/workspace/AIoT/src/LiteOS_Lab/iot_link/network/dtls/mbedtls/mbedtls-2.16.2/library\sha512.c ****         left = 0;
 2564              		.loc 1 336 0
 2565 00b8 0023     		movs	r3, #0
 2566 00ba FB61     		str	r3, [r7, #28]
 337:C:/Users/dtjld/workspace/AIoT/src/LiteOS_Lab/iot_link/network/dtls/mbedtls/mbedtls-2.16.2/library\sha512.c ****     }
 338:C:/Users/dtjld/workspace/AIoT/src/LiteOS_Lab/iot_link/network/dtls/mbedtls/mbedtls-2.16.2/library\sha512.c **** 
 339:C:/Users/dtjld/workspace/AIoT/src/LiteOS_Lab/iot_link/network/dtls/mbedtls/mbedtls-2.16.2/library\sha512.c ****     while( ilen >= 128 )
 2567              		.loc 1 339 0
 2568 00bc 0FE0     		b	.L40
 2569              	.L42:
 340:C:/Users/dtjld/workspace/AIoT/src/LiteOS_Lab/iot_link/network/dtls/mbedtls/mbedtls-2.16.2/library\sha512.c ****     {
 341:C:/Users/dtjld/workspace/AIoT/src/LiteOS_Lab/iot_link/network/dtls/mbedtls/mbedtls-2.16.2/library\sha512.c ****         if( ( ret = mbedtls_internal_sha512_process( ctx, input ) ) != 0 )
 2570              		.loc 1 341 0
 2571 00be B968     		ldr	r1, [r7, #8]
 2572 00c0 F868     		ldr	r0, [r7, #12]
 2573 00c2 FFF7FEFF 		bl	mbedtls_internal_sha512_process
 2574 00c6 7861     		str	r0, [r7, #20]
 2575 00c8 7B69     		ldr	r3, [r7, #20]
ARM GAS  C:\Users\dtjld\AppData\Local\Temp\cczibexU.s 			page 52


 2576 00ca 002B     		cmp	r3, #0
 2577 00cc 01D0     		beq	.L41
 342:C:/Users/dtjld/workspace/AIoT/src/LiteOS_Lab/iot_link/network/dtls/mbedtls/mbedtls-2.16.2/library\sha512.c ****             return( ret );
 2578              		.loc 1 342 0
 2579 00ce 7B69     		ldr	r3, [r7, #20]
 2580 00d0 16E0     		b	.L36
 2581              	.L41:
 343:C:/Users/dtjld/workspace/AIoT/src/LiteOS_Lab/iot_link/network/dtls/mbedtls/mbedtls-2.16.2/library\sha512.c **** 
 344:C:/Users/dtjld/workspace/AIoT/src/LiteOS_Lab/iot_link/network/dtls/mbedtls/mbedtls-2.16.2/library\sha512.c ****         input += 128;
 2582              		.loc 1 344 0
 2583 00d2 BB68     		ldr	r3, [r7, #8]
 2584 00d4 8033     		adds	r3, r3, #128
 2585 00d6 BB60     		str	r3, [r7, #8]
 345:C:/Users/dtjld/workspace/AIoT/src/LiteOS_Lab/iot_link/network/dtls/mbedtls/mbedtls-2.16.2/library\sha512.c ****         ilen  -= 128;
 2586              		.loc 1 345 0
 2587 00d8 7B68     		ldr	r3, [r7, #4]
 2588 00da 803B     		subs	r3, r3, #128
 2589 00dc 7B60     		str	r3, [r7, #4]
 2590              	.L40:
 339:C:/Users/dtjld/workspace/AIoT/src/LiteOS_Lab/iot_link/network/dtls/mbedtls/mbedtls-2.16.2/library\sha512.c ****     {
 2591              		.loc 1 339 0
 2592 00de 7B68     		ldr	r3, [r7, #4]
 2593 00e0 7F2B     		cmp	r3, #127
 2594 00e2 ECD8     		bhi	.L42
 346:C:/Users/dtjld/workspace/AIoT/src/LiteOS_Lab/iot_link/network/dtls/mbedtls/mbedtls-2.16.2/library\sha512.c ****     }
 347:C:/Users/dtjld/workspace/AIoT/src/LiteOS_Lab/iot_link/network/dtls/mbedtls/mbedtls-2.16.2/library\sha512.c **** 
 348:C:/Users/dtjld/workspace/AIoT/src/LiteOS_Lab/iot_link/network/dtls/mbedtls/mbedtls-2.16.2/library\sha512.c ****     if( ilen > 0 )
 2595              		.loc 1 348 0
 2596 00e4 7B68     		ldr	r3, [r7, #4]
 2597 00e6 002B     		cmp	r3, #0
 2598 00e8 09D0     		beq	.L43
 349:C:/Users/dtjld/workspace/AIoT/src/LiteOS_Lab/iot_link/network/dtls/mbedtls/mbedtls-2.16.2/library\sha512.c ****         memcpy( (void *) (ctx->buffer + left), input, ilen );
 2599              		.loc 1 349 0
 2600 00ea FB68     		ldr	r3, [r7, #12]
 2601 00ec 03F15002 		add	r2, r3, #80
 2602 00f0 FB69     		ldr	r3, [r7, #28]
 2603 00f2 1344     		add	r3, r3, r2
 2604 00f4 7A68     		ldr	r2, [r7, #4]
 2605 00f6 B968     		ldr	r1, [r7, #8]
 2606 00f8 1846     		mov	r0, r3
 2607 00fa FFF7FEFF 		bl	memcpy
 2608              	.L43:
 350:C:/Users/dtjld/workspace/AIoT/src/LiteOS_Lab/iot_link/network/dtls/mbedtls/mbedtls-2.16.2/library\sha512.c **** 
 351:C:/Users/dtjld/workspace/AIoT/src/LiteOS_Lab/iot_link/network/dtls/mbedtls/mbedtls-2.16.2/library\sha512.c ****     return( 0 );
 2609              		.loc 1 351 0
 2610 00fe 0023     		movs	r3, #0
 2611              	.L36:
 352:C:/Users/dtjld/workspace/AIoT/src/LiteOS_Lab/iot_link/network/dtls/mbedtls/mbedtls-2.16.2/library\sha512.c **** }
 2612              		.loc 1 352 0
 2613 0100 1846     		mov	r0, r3
 2614 0102 2037     		adds	r7, r7, #32
 2615              	.LCFI40:
 2616              		.cfi_def_cfa_offset 16
 2617 0104 BD46     		mov	sp, r7
 2618              	.LCFI41:
 2619              		.cfi_def_cfa_register 13
 2620              		@ sp needed
ARM GAS  C:\Users\dtjld\AppData\Local\Temp\cczibexU.s 			page 53


 2621 0106 BDE89088 		pop	{r4, r7, fp, pc}
 2622              		.cfi_endproc
 2623              	.LFE10:
 2625              		.section	.text.mbedtls_sha512_update,"ax",%progbits
 2626              		.align	1
 2627              		.global	mbedtls_sha512_update
 2628              		.syntax unified
 2629              		.thumb
 2630              		.thumb_func
 2631              		.fpu fpv4-sp-d16
 2633              	mbedtls_sha512_update:
 2634              	.LFB11:
 353:C:/Users/dtjld/workspace/AIoT/src/LiteOS_Lab/iot_link/network/dtls/mbedtls/mbedtls-2.16.2/library\sha512.c **** 
 354:C:/Users/dtjld/workspace/AIoT/src/LiteOS_Lab/iot_link/network/dtls/mbedtls/mbedtls-2.16.2/library\sha512.c **** #if !defined(MBEDTLS_DEPRECATED_REMOVED)
 355:C:/Users/dtjld/workspace/AIoT/src/LiteOS_Lab/iot_link/network/dtls/mbedtls/mbedtls-2.16.2/library\sha512.c **** void mbedtls_sha512_update( mbedtls_sha512_context *ctx,
 356:C:/Users/dtjld/workspace/AIoT/src/LiteOS_Lab/iot_link/network/dtls/mbedtls/mbedtls-2.16.2/library\sha512.c ****                             const unsigned char *input,
 357:C:/Users/dtjld/workspace/AIoT/src/LiteOS_Lab/iot_link/network/dtls/mbedtls/mbedtls-2.16.2/library\sha512.c ****                             size_t ilen )
 358:C:/Users/dtjld/workspace/AIoT/src/LiteOS_Lab/iot_link/network/dtls/mbedtls/mbedtls-2.16.2/library\sha512.c **** {
 2635              		.loc 1 358 0
 2636              		.cfi_startproc
 2637              		@ args = 0, pretend = 0, frame = 16
 2638              		@ frame_needed = 1, uses_anonymous_args = 0
 2639 0000 80B5     		push	{r7, lr}
 2640              	.LCFI42:
 2641              		.cfi_def_cfa_offset 8
 2642              		.cfi_offset 7, -8
 2643              		.cfi_offset 14, -4
 2644 0002 84B0     		sub	sp, sp, #16
 2645              	.LCFI43:
 2646              		.cfi_def_cfa_offset 24
 2647 0004 00AF     		add	r7, sp, #0
 2648              	.LCFI44:
 2649              		.cfi_def_cfa_register 7
 2650 0006 F860     		str	r0, [r7, #12]
 2651 0008 B960     		str	r1, [r7, #8]
 2652 000a 7A60     		str	r2, [r7, #4]
 359:C:/Users/dtjld/workspace/AIoT/src/LiteOS_Lab/iot_link/network/dtls/mbedtls/mbedtls-2.16.2/library\sha512.c ****     mbedtls_sha512_update_ret( ctx, input, ilen );
 2653              		.loc 1 359 0
 2654 000c 7A68     		ldr	r2, [r7, #4]
 2655 000e B968     		ldr	r1, [r7, #8]
 2656 0010 F868     		ldr	r0, [r7, #12]
 2657 0012 FFF7FEFF 		bl	mbedtls_sha512_update_ret
 360:C:/Users/dtjld/workspace/AIoT/src/LiteOS_Lab/iot_link/network/dtls/mbedtls/mbedtls-2.16.2/library\sha512.c **** }
 2658              		.loc 1 360 0
 2659 0016 00BF     		nop
 2660 0018 1037     		adds	r7, r7, #16
 2661              	.LCFI45:
 2662              		.cfi_def_cfa_offset 8
 2663 001a BD46     		mov	sp, r7
 2664              	.LCFI46:
 2665              		.cfi_def_cfa_register 13
 2666              		@ sp needed
 2667 001c 80BD     		pop	{r7, pc}
 2668              		.cfi_endproc
 2669              	.LFE11:
 2671              		.section	.text.mbedtls_sha512_finish_ret,"ax",%progbits
 2672              		.align	1
ARM GAS  C:\Users\dtjld\AppData\Local\Temp\cczibexU.s 			page 54


 2673              		.global	mbedtls_sha512_finish_ret
 2674              		.syntax unified
 2675              		.thumb
 2676              		.thumb_func
 2677              		.fpu fpv4-sp-d16
 2679              	mbedtls_sha512_finish_ret:
 2680              	.LFB12:
 361:C:/Users/dtjld/workspace/AIoT/src/LiteOS_Lab/iot_link/network/dtls/mbedtls/mbedtls-2.16.2/library\sha512.c **** #endif
 362:C:/Users/dtjld/workspace/AIoT/src/LiteOS_Lab/iot_link/network/dtls/mbedtls/mbedtls-2.16.2/library\sha512.c **** 
 363:C:/Users/dtjld/workspace/AIoT/src/LiteOS_Lab/iot_link/network/dtls/mbedtls/mbedtls-2.16.2/library\sha512.c **** /*
 364:C:/Users/dtjld/workspace/AIoT/src/LiteOS_Lab/iot_link/network/dtls/mbedtls/mbedtls-2.16.2/library\sha512.c ****  * SHA-512 final digest
 365:C:/Users/dtjld/workspace/AIoT/src/LiteOS_Lab/iot_link/network/dtls/mbedtls/mbedtls-2.16.2/library\sha512.c ****  */
 366:C:/Users/dtjld/workspace/AIoT/src/LiteOS_Lab/iot_link/network/dtls/mbedtls/mbedtls-2.16.2/library\sha512.c **** int mbedtls_sha512_finish_ret( mbedtls_sha512_context *ctx,
 367:C:/Users/dtjld/workspace/AIoT/src/LiteOS_Lab/iot_link/network/dtls/mbedtls/mbedtls-2.16.2/library\sha512.c ****                                unsigned char output[64] )
 368:C:/Users/dtjld/workspace/AIoT/src/LiteOS_Lab/iot_link/network/dtls/mbedtls/mbedtls-2.16.2/library\sha512.c **** {
 2681              		.loc 1 368 0
 2682              		.cfi_startproc
 2683              		@ args = 0, pretend = 0, frame = 32
 2684              		@ frame_needed = 1, uses_anonymous_args = 0
 2685 0000 2DE9F048 		push	{r4, r5, r6, r7, fp, lr}
 2686              	.LCFI47:
 2687              		.cfi_def_cfa_offset 24
 2688              		.cfi_offset 4, -24
 2689              		.cfi_offset 5, -20
 2690              		.cfi_offset 6, -16
 2691              		.cfi_offset 7, -12
 2692              		.cfi_offset 11, -8
 2693              		.cfi_offset 14, -4
 2694 0004 88B0     		sub	sp, sp, #32
 2695              	.LCFI48:
 2696              		.cfi_def_cfa_offset 56
 2697 0006 00AF     		add	r7, sp, #0
 2698              	.LCFI49:
 2699              		.cfi_def_cfa_register 7
 2700 0008 7860     		str	r0, [r7, #4]
 2701 000a 3960     		str	r1, [r7]
 369:C:/Users/dtjld/workspace/AIoT/src/LiteOS_Lab/iot_link/network/dtls/mbedtls/mbedtls-2.16.2/library\sha512.c ****     int ret;
 370:C:/Users/dtjld/workspace/AIoT/src/LiteOS_Lab/iot_link/network/dtls/mbedtls/mbedtls-2.16.2/library\sha512.c ****     unsigned used;
 371:C:/Users/dtjld/workspace/AIoT/src/LiteOS_Lab/iot_link/network/dtls/mbedtls/mbedtls-2.16.2/library\sha512.c ****     uint64_t high, low;
 372:C:/Users/dtjld/workspace/AIoT/src/LiteOS_Lab/iot_link/network/dtls/mbedtls/mbedtls-2.16.2/library\sha512.c **** 
 373:C:/Users/dtjld/workspace/AIoT/src/LiteOS_Lab/iot_link/network/dtls/mbedtls/mbedtls-2.16.2/library\sha512.c ****     SHA512_VALIDATE_RET( ctx != NULL );
 374:C:/Users/dtjld/workspace/AIoT/src/LiteOS_Lab/iot_link/network/dtls/mbedtls/mbedtls-2.16.2/library\sha512.c ****     SHA512_VALIDATE_RET( (unsigned char *)output != NULL );
 375:C:/Users/dtjld/workspace/AIoT/src/LiteOS_Lab/iot_link/network/dtls/mbedtls/mbedtls-2.16.2/library\sha512.c **** 
 376:C:/Users/dtjld/workspace/AIoT/src/LiteOS_Lab/iot_link/network/dtls/mbedtls/mbedtls-2.16.2/library\sha512.c ****     /*
 377:C:/Users/dtjld/workspace/AIoT/src/LiteOS_Lab/iot_link/network/dtls/mbedtls/mbedtls-2.16.2/library\sha512.c ****      * Add padding: 0x80 then 0x00 until 16 bytes remain for the length
 378:C:/Users/dtjld/workspace/AIoT/src/LiteOS_Lab/iot_link/network/dtls/mbedtls/mbedtls-2.16.2/library\sha512.c ****      */
 379:C:/Users/dtjld/workspace/AIoT/src/LiteOS_Lab/iot_link/network/dtls/mbedtls/mbedtls-2.16.2/library\sha512.c ****     used = ctx->total[0] & 0x7F;
 2702              		.loc 1 379 0
 2703 000c 7B68     		ldr	r3, [r7, #4]
 2704 000e D3E90034 		ldrd	r3, [r3]
 2705 0012 03F07F03 		and	r3, r3, #127
 2706 0016 FB61     		str	r3, [r7, #28]
 380:C:/Users/dtjld/workspace/AIoT/src/LiteOS_Lab/iot_link/network/dtls/mbedtls/mbedtls-2.16.2/library\sha512.c **** 
 381:C:/Users/dtjld/workspace/AIoT/src/LiteOS_Lab/iot_link/network/dtls/mbedtls/mbedtls-2.16.2/library\sha512.c ****     ctx->buffer[used++] = 0x80;
 2707              		.loc 1 381 0
 2708 0018 FB69     		ldr	r3, [r7, #28]
 2709 001a 5A1C     		adds	r2, r3, #1
ARM GAS  C:\Users\dtjld\AppData\Local\Temp\cczibexU.s 			page 55


 2710 001c FA61     		str	r2, [r7, #28]
 2711 001e 7A68     		ldr	r2, [r7, #4]
 2712 0020 1344     		add	r3, r3, r2
 2713 0022 8022     		movs	r2, #128
 2714 0024 83F85020 		strb	r2, [r3, #80]
 382:C:/Users/dtjld/workspace/AIoT/src/LiteOS_Lab/iot_link/network/dtls/mbedtls/mbedtls-2.16.2/library\sha512.c **** 
 383:C:/Users/dtjld/workspace/AIoT/src/LiteOS_Lab/iot_link/network/dtls/mbedtls/mbedtls-2.16.2/library\sha512.c ****     if( used <= 112 )
 2715              		.loc 1 383 0
 2716 0028 FB69     		ldr	r3, [r7, #28]
 2717 002a 702B     		cmp	r3, #112
 2718 002c 0CD8     		bhi	.L46
 384:C:/Users/dtjld/workspace/AIoT/src/LiteOS_Lab/iot_link/network/dtls/mbedtls/mbedtls-2.16.2/library\sha512.c ****     {
 385:C:/Users/dtjld/workspace/AIoT/src/LiteOS_Lab/iot_link/network/dtls/mbedtls/mbedtls-2.16.2/library\sha512.c ****         /* Enough room for padding + length in current block */
 386:C:/Users/dtjld/workspace/AIoT/src/LiteOS_Lab/iot_link/network/dtls/mbedtls/mbedtls-2.16.2/library\sha512.c ****         memset( ctx->buffer + used, 0, 112 - used );
 2719              		.loc 1 386 0
 2720 002e 7B68     		ldr	r3, [r7, #4]
 2721 0030 03F15002 		add	r2, r3, #80
 2722 0034 FB69     		ldr	r3, [r7, #28]
 2723 0036 D018     		adds	r0, r2, r3
 2724 0038 FB69     		ldr	r3, [r7, #28]
 2725 003a C3F17003 		rsb	r3, r3, #112
 2726 003e 1A46     		mov	r2, r3
 2727 0040 0021     		movs	r1, #0
 2728 0042 FFF7FEFF 		bl	memset
 2729 0046 1FE0     		b	.L47
 2730              	.L46:
 387:C:/Users/dtjld/workspace/AIoT/src/LiteOS_Lab/iot_link/network/dtls/mbedtls/mbedtls-2.16.2/library\sha512.c ****     }
 388:C:/Users/dtjld/workspace/AIoT/src/LiteOS_Lab/iot_link/network/dtls/mbedtls/mbedtls-2.16.2/library\sha512.c ****     else
 389:C:/Users/dtjld/workspace/AIoT/src/LiteOS_Lab/iot_link/network/dtls/mbedtls/mbedtls-2.16.2/library\sha512.c ****     {
 390:C:/Users/dtjld/workspace/AIoT/src/LiteOS_Lab/iot_link/network/dtls/mbedtls/mbedtls-2.16.2/library\sha512.c ****         /* We'll need an extra block */
 391:C:/Users/dtjld/workspace/AIoT/src/LiteOS_Lab/iot_link/network/dtls/mbedtls/mbedtls-2.16.2/library\sha512.c ****         memset( ctx->buffer + used, 0, 128 - used );
 2731              		.loc 1 391 0
 2732 0048 7B68     		ldr	r3, [r7, #4]
 2733 004a 03F15002 		add	r2, r3, #80
 2734 004e FB69     		ldr	r3, [r7, #28]
 2735 0050 D018     		adds	r0, r2, r3
 2736 0052 FB69     		ldr	r3, [r7, #28]
 2737 0054 C3F18003 		rsb	r3, r3, #128
 2738 0058 1A46     		mov	r2, r3
 2739 005a 0021     		movs	r1, #0
 2740 005c FFF7FEFF 		bl	memset
 392:C:/Users/dtjld/workspace/AIoT/src/LiteOS_Lab/iot_link/network/dtls/mbedtls/mbedtls-2.16.2/library\sha512.c **** 
 393:C:/Users/dtjld/workspace/AIoT/src/LiteOS_Lab/iot_link/network/dtls/mbedtls/mbedtls-2.16.2/library\sha512.c ****         if( ( ret = mbedtls_internal_sha512_process( ctx, ctx->buffer ) ) != 0 )
 2741              		.loc 1 393 0
 2742 0060 7B68     		ldr	r3, [r7, #4]
 2743 0062 5033     		adds	r3, r3, #80
 2744 0064 1946     		mov	r1, r3
 2745 0066 7868     		ldr	r0, [r7, #4]
 2746 0068 FFF7FEFF 		bl	mbedtls_internal_sha512_process
 2747 006c B861     		str	r0, [r7, #24]
 2748 006e BB69     		ldr	r3, [r7, #24]
 2749 0070 002B     		cmp	r3, #0
 2750 0072 02D0     		beq	.L48
 394:C:/Users/dtjld/workspace/AIoT/src/LiteOS_Lab/iot_link/network/dtls/mbedtls/mbedtls-2.16.2/library\sha512.c ****             return( ret );
 2751              		.loc 1 394 0
 2752 0074 BB69     		ldr	r3, [r7, #24]
 2753 0076 00F03EBC 		b	.L49
ARM GAS  C:\Users\dtjld\AppData\Local\Temp\cczibexU.s 			page 56


 2754              	.L48:
 395:C:/Users/dtjld/workspace/AIoT/src/LiteOS_Lab/iot_link/network/dtls/mbedtls/mbedtls-2.16.2/library\sha512.c **** 
 396:C:/Users/dtjld/workspace/AIoT/src/LiteOS_Lab/iot_link/network/dtls/mbedtls/mbedtls-2.16.2/library\sha512.c ****         memset( ctx->buffer, 0, 112 );
 2755              		.loc 1 396 0
 2756 007a 7B68     		ldr	r3, [r7, #4]
 2757 007c 5033     		adds	r3, r3, #80
 2758 007e 7022     		movs	r2, #112
 2759 0080 0021     		movs	r1, #0
 2760 0082 1846     		mov	r0, r3
 2761 0084 FFF7FEFF 		bl	memset
 2762              	.L47:
 397:C:/Users/dtjld/workspace/AIoT/src/LiteOS_Lab/iot_link/network/dtls/mbedtls/mbedtls-2.16.2/library\sha512.c ****     }
 398:C:/Users/dtjld/workspace/AIoT/src/LiteOS_Lab/iot_link/network/dtls/mbedtls/mbedtls-2.16.2/library\sha512.c **** 
 399:C:/Users/dtjld/workspace/AIoT/src/LiteOS_Lab/iot_link/network/dtls/mbedtls/mbedtls-2.16.2/library\sha512.c ****     /*
 400:C:/Users/dtjld/workspace/AIoT/src/LiteOS_Lab/iot_link/network/dtls/mbedtls/mbedtls-2.16.2/library\sha512.c ****      * Add message length
 401:C:/Users/dtjld/workspace/AIoT/src/LiteOS_Lab/iot_link/network/dtls/mbedtls/mbedtls-2.16.2/library\sha512.c ****      */
 402:C:/Users/dtjld/workspace/AIoT/src/LiteOS_Lab/iot_link/network/dtls/mbedtls/mbedtls-2.16.2/library\sha512.c ****     high = ( ctx->total[0] >> 61 )
 2763              		.loc 1 402 0
 2764 0088 7B68     		ldr	r3, [r7, #4]
 2765 008a D3E90034 		ldrd	r3, [r3]
 2766 008e 4FF00005 		mov	r5, #0
 2767 0092 4FF00006 		mov	r6, #0
 2768 0096 650F     		lsrs	r5, r4, #29
 2769 0098 0026     		movs	r6, #0
 403:C:/Users/dtjld/workspace/AIoT/src/LiteOS_Lab/iot_link/network/dtls/mbedtls/mbedtls-2.16.2/library\sha512.c ****          | ( ctx->total[1] <<  3 );
 2770              		.loc 1 403 0
 2771 009a 7B68     		ldr	r3, [r7, #4]
 2772 009c D3E90212 		ldrd	r1, [r3, #8]
 2773 00a0 4FF0000B 		mov	fp, #0
 2774 00a4 4FF0000C 		mov	ip, #0
 2775 00a8 4FEAC20C 		lsl	ip, r2, #3
 2776 00ac 4CEA517C 		orr	ip, ip, r1, lsr #29
 2777 00b0 4FEAC10B 		lsl	fp, r1, #3
 402:C:/Users/dtjld/workspace/AIoT/src/LiteOS_Lab/iot_link/network/dtls/mbedtls/mbedtls-2.16.2/library\sha512.c ****          | ( ctx->total[1] <<  3 );
 2778              		.loc 1 402 0
 2779 00b4 4BEA0503 		orr	r3, fp, r5
 2780 00b8 4CEA0604 		orr	r4, ip, r6
 2781 00bc C7E90434 		strd	r3, [r7, #16]
 404:C:/Users/dtjld/workspace/AIoT/src/LiteOS_Lab/iot_link/network/dtls/mbedtls/mbedtls-2.16.2/library\sha512.c ****     low  = ( ctx->total[0] <<  3 );
 2782              		.loc 1 404 0
 2783 00c0 7B68     		ldr	r3, [r7, #4]
 2784 00c2 D3E90012 		ldrd	r1, [r3]
 2785 00c6 4FF00003 		mov	r3, #0
 2786 00ca 4FF00004 		mov	r4, #0
 2787 00ce D400     		lsls	r4, r2, #3
 2788 00d0 44EA5174 		orr	r4, r4, r1, lsr #29
 2789 00d4 CB00     		lsls	r3, r1, #3
 2790 00d6 C7E90234 		strd	r3, [r7, #8]
 405:C:/Users/dtjld/workspace/AIoT/src/LiteOS_Lab/iot_link/network/dtls/mbedtls/mbedtls-2.16.2/library\sha512.c **** 
 406:C:/Users/dtjld/workspace/AIoT/src/LiteOS_Lab/iot_link/network/dtls/mbedtls/mbedtls-2.16.2/library\sha512.c ****     PUT_UINT64_BE( high, ctx->buffer, 112 );
 2791              		.loc 1 406 0
 2792 00da D7E90412 		ldrd	r1, [r7, #16]
 2793 00de 4FF00003 		mov	r3, #0
 2794 00e2 4FF00004 		mov	r4, #0
 2795 00e6 130E     		lsrs	r3, r2, #24
 2796 00e8 0024     		movs	r4, #0
 2797 00ea DAB2     		uxtb	r2, r3
ARM GAS  C:\Users\dtjld\AppData\Local\Temp\cczibexU.s 			page 57


 2798 00ec 7B68     		ldr	r3, [r7, #4]
 2799 00ee 83F8C020 		strb	r2, [r3, #192]
 2800 00f2 D7E90412 		ldrd	r1, [r7, #16]
 2801 00f6 4FF00003 		mov	r3, #0
 2802 00fa 4FF00004 		mov	r4, #0
 2803 00fe 130C     		lsrs	r3, r2, #16
 2804 0100 0024     		movs	r4, #0
 2805 0102 DAB2     		uxtb	r2, r3
 2806 0104 7B68     		ldr	r3, [r7, #4]
 2807 0106 83F8C120 		strb	r2, [r3, #193]
 2808 010a D7E90412 		ldrd	r1, [r7, #16]
 2809 010e 4FF00003 		mov	r3, #0
 2810 0112 4FF00004 		mov	r4, #0
 2811 0116 130A     		lsrs	r3, r2, #8
 2812 0118 0024     		movs	r4, #0
 2813 011a DAB2     		uxtb	r2, r3
 2814 011c 7B68     		ldr	r3, [r7, #4]
 2815 011e 83F8C220 		strb	r2, [r3, #194]
 2816 0122 D7E90412 		ldrd	r1, [r7, #16]
 2817 0126 4FF00003 		mov	r3, #0
 2818 012a 4FF00004 		mov	r4, #0
 2819 012e 1300     		movs	r3, r2
 2820 0130 0024     		movs	r4, #0
 2821 0132 DAB2     		uxtb	r2, r3
 2822 0134 7B68     		ldr	r3, [r7, #4]
 2823 0136 83F8C320 		strb	r2, [r3, #195]
 2824 013a D7E90412 		ldrd	r1, [r7, #16]
 2825 013e 4FF00003 		mov	r3, #0
 2826 0142 4FF00004 		mov	r4, #0
 2827 0146 0B0E     		lsrs	r3, r1, #24
 2828 0148 43EA0223 		orr	r3, r3, r2, lsl #8
 2829 014c 140E     		lsrs	r4, r2, #24
 2830 014e DAB2     		uxtb	r2, r3
 2831 0150 7B68     		ldr	r3, [r7, #4]
 2832 0152 83F8C420 		strb	r2, [r3, #196]
 2833 0156 D7E90412 		ldrd	r1, [r7, #16]
 2834 015a 4FF00003 		mov	r3, #0
 2835 015e 4FF00004 		mov	r4, #0
 2836 0162 0B0C     		lsrs	r3, r1, #16
 2837 0164 43EA0243 		orr	r3, r3, r2, lsl #16
 2838 0168 140C     		lsrs	r4, r2, #16
 2839 016a DAB2     		uxtb	r2, r3
 2840 016c 7B68     		ldr	r3, [r7, #4]
 2841 016e 83F8C520 		strb	r2, [r3, #197]
 2842 0172 D7E90412 		ldrd	r1, [r7, #16]
 2843 0176 4FF00003 		mov	r3, #0
 2844 017a 4FF00004 		mov	r4, #0
 2845 017e 0B0A     		lsrs	r3, r1, #8
 2846 0180 43EA0263 		orr	r3, r3, r2, lsl #24
 2847 0184 140A     		lsrs	r4, r2, #8
 2848 0186 DAB2     		uxtb	r2, r3
 2849 0188 7B68     		ldr	r3, [r7, #4]
 2850 018a 83F8C620 		strb	r2, [r3, #198]
 2851 018e 3A7C     		ldrb	r2, [r7, #16]	@ zero_extendqisi2
 2852 0190 7B68     		ldr	r3, [r7, #4]
 2853 0192 83F8C720 		strb	r2, [r3, #199]
 407:C:/Users/dtjld/workspace/AIoT/src/LiteOS_Lab/iot_link/network/dtls/mbedtls/mbedtls-2.16.2/library\sha512.c ****     PUT_UINT64_BE( low,  ctx->buffer, 120 );
ARM GAS  C:\Users\dtjld\AppData\Local\Temp\cczibexU.s 			page 58


 2854              		.loc 1 407 0
 2855 0196 D7E90212 		ldrd	r1, [r7, #8]
 2856 019a 4FF00003 		mov	r3, #0
 2857 019e 4FF00004 		mov	r4, #0
 2858 01a2 130E     		lsrs	r3, r2, #24
 2859 01a4 0024     		movs	r4, #0
 2860 01a6 DAB2     		uxtb	r2, r3
 2861 01a8 7B68     		ldr	r3, [r7, #4]
 2862 01aa 83F8C820 		strb	r2, [r3, #200]
 2863 01ae D7E90212 		ldrd	r1, [r7, #8]
 2864 01b2 4FF00003 		mov	r3, #0
 2865 01b6 4FF00004 		mov	r4, #0
 2866 01ba 130C     		lsrs	r3, r2, #16
 2867 01bc 0024     		movs	r4, #0
 2868 01be DAB2     		uxtb	r2, r3
 2869 01c0 7B68     		ldr	r3, [r7, #4]
 2870 01c2 83F8C920 		strb	r2, [r3, #201]
 2871 01c6 D7E90212 		ldrd	r1, [r7, #8]
 2872 01ca 4FF00003 		mov	r3, #0
 2873 01ce 4FF00004 		mov	r4, #0
 2874 01d2 130A     		lsrs	r3, r2, #8
 2875 01d4 0024     		movs	r4, #0
 2876 01d6 DAB2     		uxtb	r2, r3
 2877 01d8 7B68     		ldr	r3, [r7, #4]
 2878 01da 83F8CA20 		strb	r2, [r3, #202]
 2879 01de D7E90212 		ldrd	r1, [r7, #8]
 2880 01e2 4FF00003 		mov	r3, #0
 2881 01e6 4FF00004 		mov	r4, #0
 2882 01ea 1300     		movs	r3, r2
 2883 01ec 0024     		movs	r4, #0
 2884 01ee DAB2     		uxtb	r2, r3
 2885 01f0 7B68     		ldr	r3, [r7, #4]
 2886 01f2 83F8CB20 		strb	r2, [r3, #203]
 2887 01f6 D7E90212 		ldrd	r1, [r7, #8]
 2888 01fa 4FF00003 		mov	r3, #0
 2889 01fe 4FF00004 		mov	r4, #0
 2890 0202 0B0E     		lsrs	r3, r1, #24
 2891 0204 43EA0223 		orr	r3, r3, r2, lsl #8
 2892 0208 140E     		lsrs	r4, r2, #24
 2893 020a DAB2     		uxtb	r2, r3
 2894 020c 7B68     		ldr	r3, [r7, #4]
 2895 020e 83F8CC20 		strb	r2, [r3, #204]
 2896 0212 D7E90212 		ldrd	r1, [r7, #8]
 2897 0216 4FF00003 		mov	r3, #0
 2898 021a 4FF00004 		mov	r4, #0
 2899 021e 0B0C     		lsrs	r3, r1, #16
 2900 0220 43EA0243 		orr	r3, r3, r2, lsl #16
 2901 0224 140C     		lsrs	r4, r2, #16
 2902 0226 DAB2     		uxtb	r2, r3
 2903 0228 7B68     		ldr	r3, [r7, #4]
 2904 022a 83F8CD20 		strb	r2, [r3, #205]
 2905 022e D7E90212 		ldrd	r1, [r7, #8]
 2906 0232 4FF00003 		mov	r3, #0
 2907 0236 4FF00004 		mov	r4, #0
 2908 023a 0B0A     		lsrs	r3, r1, #8
 2909 023c 43EA0263 		orr	r3, r3, r2, lsl #24
 2910 0240 140A     		lsrs	r4, r2, #8
ARM GAS  C:\Users\dtjld\AppData\Local\Temp\cczibexU.s 			page 59


 2911 0242 DAB2     		uxtb	r2, r3
 2912 0244 7B68     		ldr	r3, [r7, #4]
 2913 0246 83F8CE20 		strb	r2, [r3, #206]
 2914 024a 3A7A     		ldrb	r2, [r7, #8]	@ zero_extendqisi2
 2915 024c 7B68     		ldr	r3, [r7, #4]
 2916 024e 83F8CF20 		strb	r2, [r3, #207]
 408:C:/Users/dtjld/workspace/AIoT/src/LiteOS_Lab/iot_link/network/dtls/mbedtls/mbedtls-2.16.2/library\sha512.c **** 
 409:C:/Users/dtjld/workspace/AIoT/src/LiteOS_Lab/iot_link/network/dtls/mbedtls/mbedtls-2.16.2/library\sha512.c ****     if( ( ret = mbedtls_internal_sha512_process( ctx, ctx->buffer ) ) != 0 )
 2917              		.loc 1 409 0
 2918 0252 7B68     		ldr	r3, [r7, #4]
 2919 0254 5033     		adds	r3, r3, #80
 2920 0256 1946     		mov	r1, r3
 2921 0258 7868     		ldr	r0, [r7, #4]
 2922 025a FFF7FEFF 		bl	mbedtls_internal_sha512_process
 2923 025e B861     		str	r0, [r7, #24]
 2924 0260 BB69     		ldr	r3, [r7, #24]
 2925 0262 002B     		cmp	r3, #0
 2926 0264 01D0     		beq	.L50
 410:C:/Users/dtjld/workspace/AIoT/src/LiteOS_Lab/iot_link/network/dtls/mbedtls/mbedtls-2.16.2/library\sha512.c ****         return( ret );
 2927              		.loc 1 410 0
 2928 0266 BB69     		ldr	r3, [r7, #24]
 2929 0268 45E3     		b	.L49
 2930              	.L50:
 411:C:/Users/dtjld/workspace/AIoT/src/LiteOS_Lab/iot_link/network/dtls/mbedtls/mbedtls-2.16.2/library\sha512.c **** 
 412:C:/Users/dtjld/workspace/AIoT/src/LiteOS_Lab/iot_link/network/dtls/mbedtls/mbedtls-2.16.2/library\sha512.c ****     /*
 413:C:/Users/dtjld/workspace/AIoT/src/LiteOS_Lab/iot_link/network/dtls/mbedtls/mbedtls-2.16.2/library\sha512.c ****      * Output final state
 414:C:/Users/dtjld/workspace/AIoT/src/LiteOS_Lab/iot_link/network/dtls/mbedtls/mbedtls-2.16.2/library\sha512.c ****      */
 415:C:/Users/dtjld/workspace/AIoT/src/LiteOS_Lab/iot_link/network/dtls/mbedtls/mbedtls-2.16.2/library\sha512.c ****     PUT_UINT64_BE( ctx->state[0], output,  0 );
 2931              		.loc 1 415 0
 2932 026a 7B68     		ldr	r3, [r7, #4]
 2933 026c D3E90412 		ldrd	r1, [r3, #16]
 2934 0270 4FF00003 		mov	r3, #0
 2935 0274 4FF00004 		mov	r4, #0
 2936 0278 130E     		lsrs	r3, r2, #24
 2937 027a 0024     		movs	r4, #0
 2938 027c DAB2     		uxtb	r2, r3
 2939 027e 3B68     		ldr	r3, [r7]
 2940 0280 1A70     		strb	r2, [r3]
 2941 0282 7B68     		ldr	r3, [r7, #4]
 2942 0284 D3E90412 		ldrd	r1, [r3, #16]
 2943 0288 4FF00003 		mov	r3, #0
 2944 028c 4FF00004 		mov	r4, #0
 2945 0290 130C     		lsrs	r3, r2, #16
 2946 0292 0024     		movs	r4, #0
 2947 0294 3A68     		ldr	r2, [r7]
 2948 0296 0132     		adds	r2, r2, #1
 2949 0298 DBB2     		uxtb	r3, r3
 2950 029a 1370     		strb	r3, [r2]
 2951 029c 7B68     		ldr	r3, [r7, #4]
 2952 029e D3E90412 		ldrd	r1, [r3, #16]
 2953 02a2 4FF00003 		mov	r3, #0
 2954 02a6 4FF00004 		mov	r4, #0
 2955 02aa 130A     		lsrs	r3, r2, #8
 2956 02ac 0024     		movs	r4, #0
 2957 02ae 3A68     		ldr	r2, [r7]
 2958 02b0 0232     		adds	r2, r2, #2
 2959 02b2 DBB2     		uxtb	r3, r3
ARM GAS  C:\Users\dtjld\AppData\Local\Temp\cczibexU.s 			page 60


 2960 02b4 1370     		strb	r3, [r2]
 2961 02b6 7B68     		ldr	r3, [r7, #4]
 2962 02b8 D3E90412 		ldrd	r1, [r3, #16]
 2963 02bc 4FF00003 		mov	r3, #0
 2964 02c0 4FF00004 		mov	r4, #0
 2965 02c4 1300     		movs	r3, r2
 2966 02c6 0024     		movs	r4, #0
 2967 02c8 3A68     		ldr	r2, [r7]
 2968 02ca 0332     		adds	r2, r2, #3
 2969 02cc DBB2     		uxtb	r3, r3
 2970 02ce 1370     		strb	r3, [r2]
 2971 02d0 7B68     		ldr	r3, [r7, #4]
 2972 02d2 D3E90412 		ldrd	r1, [r3, #16]
 2973 02d6 4FF00003 		mov	r3, #0
 2974 02da 4FF00004 		mov	r4, #0
 2975 02de 0B0E     		lsrs	r3, r1, #24
 2976 02e0 43EA0223 		orr	r3, r3, r2, lsl #8
 2977 02e4 140E     		lsrs	r4, r2, #24
 2978 02e6 3A68     		ldr	r2, [r7]
 2979 02e8 0432     		adds	r2, r2, #4
 2980 02ea DBB2     		uxtb	r3, r3
 2981 02ec 1370     		strb	r3, [r2]
 2982 02ee 7B68     		ldr	r3, [r7, #4]
 2983 02f0 D3E90412 		ldrd	r1, [r3, #16]
 2984 02f4 4FF00003 		mov	r3, #0
 2985 02f8 4FF00004 		mov	r4, #0
 2986 02fc 0B0C     		lsrs	r3, r1, #16
 2987 02fe 43EA0243 		orr	r3, r3, r2, lsl #16
 2988 0302 140C     		lsrs	r4, r2, #16
 2989 0304 3A68     		ldr	r2, [r7]
 2990 0306 0532     		adds	r2, r2, #5
 2991 0308 DBB2     		uxtb	r3, r3
 2992 030a 1370     		strb	r3, [r2]
 2993 030c 7B68     		ldr	r3, [r7, #4]
 2994 030e D3E90412 		ldrd	r1, [r3, #16]
 2995 0312 4FF00003 		mov	r3, #0
 2996 0316 4FF00004 		mov	r4, #0
 2997 031a 0B0A     		lsrs	r3, r1, #8
 2998 031c 43EA0263 		orr	r3, r3, r2, lsl #24
 2999 0320 140A     		lsrs	r4, r2, #8
 3000 0322 3A68     		ldr	r2, [r7]
 3001 0324 0632     		adds	r2, r2, #6
 3002 0326 DBB2     		uxtb	r3, r3
 3003 0328 1370     		strb	r3, [r2]
 3004 032a 7B68     		ldr	r3, [r7, #4]
 3005 032c D3E90434 		ldrd	r3, [r3, #16]
 3006 0330 3A68     		ldr	r2, [r7]
 3007 0332 0732     		adds	r2, r2, #7
 3008 0334 DBB2     		uxtb	r3, r3
 3009 0336 1370     		strb	r3, [r2]
 416:C:/Users/dtjld/workspace/AIoT/src/LiteOS_Lab/iot_link/network/dtls/mbedtls/mbedtls-2.16.2/library\sha512.c ****     PUT_UINT64_BE( ctx->state[1], output,  8 );
 3010              		.loc 1 416 0
 3011 0338 7B68     		ldr	r3, [r7, #4]
 3012 033a D3E90612 		ldrd	r1, [r3, #24]
 3013 033e 4FF00003 		mov	r3, #0
 3014 0342 4FF00004 		mov	r4, #0
 3015 0346 130E     		lsrs	r3, r2, #24
ARM GAS  C:\Users\dtjld\AppData\Local\Temp\cczibexU.s 			page 61


 3016 0348 0024     		movs	r4, #0
 3017 034a 3A68     		ldr	r2, [r7]
 3018 034c 0832     		adds	r2, r2, #8
 3019 034e DBB2     		uxtb	r3, r3
 3020 0350 1370     		strb	r3, [r2]
 3021 0352 7B68     		ldr	r3, [r7, #4]
 3022 0354 D3E90612 		ldrd	r1, [r3, #24]
 3023 0358 4FF00003 		mov	r3, #0
 3024 035c 4FF00004 		mov	r4, #0
 3025 0360 130C     		lsrs	r3, r2, #16
 3026 0362 0024     		movs	r4, #0
 3027 0364 3A68     		ldr	r2, [r7]
 3028 0366 0932     		adds	r2, r2, #9
 3029 0368 DBB2     		uxtb	r3, r3
 3030 036a 1370     		strb	r3, [r2]
 3031 036c 7B68     		ldr	r3, [r7, #4]
 3032 036e D3E90612 		ldrd	r1, [r3, #24]
 3033 0372 4FF00003 		mov	r3, #0
 3034 0376 4FF00004 		mov	r4, #0
 3035 037a 130A     		lsrs	r3, r2, #8
 3036 037c 0024     		movs	r4, #0
 3037 037e 3A68     		ldr	r2, [r7]
 3038 0380 0A32     		adds	r2, r2, #10
 3039 0382 DBB2     		uxtb	r3, r3
 3040 0384 1370     		strb	r3, [r2]
 3041 0386 7B68     		ldr	r3, [r7, #4]
 3042 0388 D3E90612 		ldrd	r1, [r3, #24]
 3043 038c 4FF00003 		mov	r3, #0
 3044 0390 4FF00004 		mov	r4, #0
 3045 0394 1300     		movs	r3, r2
 3046 0396 0024     		movs	r4, #0
 3047 0398 3A68     		ldr	r2, [r7]
 3048 039a 0B32     		adds	r2, r2, #11
 3049 039c DBB2     		uxtb	r3, r3
 3050 039e 1370     		strb	r3, [r2]
 3051 03a0 7B68     		ldr	r3, [r7, #4]
 3052 03a2 D3E90612 		ldrd	r1, [r3, #24]
 3053 03a6 4FF00003 		mov	r3, #0
 3054 03aa 4FF00004 		mov	r4, #0
 3055 03ae 0B0E     		lsrs	r3, r1, #24
 3056 03b0 43EA0223 		orr	r3, r3, r2, lsl #8
 3057 03b4 140E     		lsrs	r4, r2, #24
 3058 03b6 3A68     		ldr	r2, [r7]
 3059 03b8 0C32     		adds	r2, r2, #12
 3060 03ba DBB2     		uxtb	r3, r3
 3061 03bc 1370     		strb	r3, [r2]
 3062 03be 7B68     		ldr	r3, [r7, #4]
 3063 03c0 D3E90612 		ldrd	r1, [r3, #24]
 3064 03c4 4FF00003 		mov	r3, #0
 3065 03c8 4FF00004 		mov	r4, #0
 3066 03cc 0B0C     		lsrs	r3, r1, #16
 3067 03ce 43EA0243 		orr	r3, r3, r2, lsl #16
 3068 03d2 140C     		lsrs	r4, r2, #16
 3069 03d4 3A68     		ldr	r2, [r7]
 3070 03d6 0D32     		adds	r2, r2, #13
 3071 03d8 DBB2     		uxtb	r3, r3
 3072 03da 1370     		strb	r3, [r2]
ARM GAS  C:\Users\dtjld\AppData\Local\Temp\cczibexU.s 			page 62


 3073 03dc 7B68     		ldr	r3, [r7, #4]
 3074 03de D3E90612 		ldrd	r1, [r3, #24]
 3075 03e2 4FF00003 		mov	r3, #0
 3076 03e6 4FF00004 		mov	r4, #0
 3077 03ea 0B0A     		lsrs	r3, r1, #8
 3078 03ec 43EA0263 		orr	r3, r3, r2, lsl #24
 3079 03f0 140A     		lsrs	r4, r2, #8
 3080 03f2 3A68     		ldr	r2, [r7]
 3081 03f4 0E32     		adds	r2, r2, #14
 3082 03f6 DBB2     		uxtb	r3, r3
 3083 03f8 1370     		strb	r3, [r2]
 3084 03fa 7B68     		ldr	r3, [r7, #4]
 3085 03fc D3E90634 		ldrd	r3, [r3, #24]
 3086 0400 3A68     		ldr	r2, [r7]
 3087 0402 0F32     		adds	r2, r2, #15
 3088 0404 DBB2     		uxtb	r3, r3
 3089 0406 1370     		strb	r3, [r2]
 417:C:/Users/dtjld/workspace/AIoT/src/LiteOS_Lab/iot_link/network/dtls/mbedtls/mbedtls-2.16.2/library\sha512.c ****     PUT_UINT64_BE( ctx->state[2], output, 16 );
 3090              		.loc 1 417 0
 3091 0408 7B68     		ldr	r3, [r7, #4]
 3092 040a D3E90812 		ldrd	r1, [r3, #32]
 3093 040e 4FF00003 		mov	r3, #0
 3094 0412 4FF00004 		mov	r4, #0
 3095 0416 130E     		lsrs	r3, r2, #24
 3096 0418 0024     		movs	r4, #0
 3097 041a 3A68     		ldr	r2, [r7]
 3098 041c 1032     		adds	r2, r2, #16
 3099 041e DBB2     		uxtb	r3, r3
 3100 0420 1370     		strb	r3, [r2]
 3101 0422 7B68     		ldr	r3, [r7, #4]
 3102 0424 D3E90812 		ldrd	r1, [r3, #32]
 3103 0428 4FF00003 		mov	r3, #0
 3104 042c 4FF00004 		mov	r4, #0
 3105 0430 130C     		lsrs	r3, r2, #16
 3106 0432 0024     		movs	r4, #0
 3107 0434 3A68     		ldr	r2, [r7]
 3108 0436 1132     		adds	r2, r2, #17
 3109 0438 DBB2     		uxtb	r3, r3
 3110 043a 1370     		strb	r3, [r2]
 3111 043c 7B68     		ldr	r3, [r7, #4]
 3112 043e D3E90812 		ldrd	r1, [r3, #32]
 3113 0442 4FF00003 		mov	r3, #0
 3114 0446 4FF00004 		mov	r4, #0
 3115 044a 130A     		lsrs	r3, r2, #8
 3116 044c 0024     		movs	r4, #0
 3117 044e 3A68     		ldr	r2, [r7]
 3118 0450 1232     		adds	r2, r2, #18
 3119 0452 DBB2     		uxtb	r3, r3
 3120 0454 1370     		strb	r3, [r2]
 3121 0456 7B68     		ldr	r3, [r7, #4]
 3122 0458 D3E90812 		ldrd	r1, [r3, #32]
 3123 045c 4FF00003 		mov	r3, #0
 3124 0460 4FF00004 		mov	r4, #0
 3125 0464 1300     		movs	r3, r2
 3126 0466 0024     		movs	r4, #0
 3127 0468 3A68     		ldr	r2, [r7]
 3128 046a 1332     		adds	r2, r2, #19
ARM GAS  C:\Users\dtjld\AppData\Local\Temp\cczibexU.s 			page 63


 3129 046c DBB2     		uxtb	r3, r3
 3130 046e 1370     		strb	r3, [r2]
 3131 0470 7B68     		ldr	r3, [r7, #4]
 3132 0472 D3E90812 		ldrd	r1, [r3, #32]
 3133 0476 4FF00003 		mov	r3, #0
 3134 047a 4FF00004 		mov	r4, #0
 3135 047e 0B0E     		lsrs	r3, r1, #24
 3136 0480 43EA0223 		orr	r3, r3, r2, lsl #8
 3137 0484 140E     		lsrs	r4, r2, #24
 3138 0486 3A68     		ldr	r2, [r7]
 3139 0488 1432     		adds	r2, r2, #20
 3140 048a DBB2     		uxtb	r3, r3
 3141 048c 1370     		strb	r3, [r2]
 3142 048e 7B68     		ldr	r3, [r7, #4]
 3143 0490 D3E90812 		ldrd	r1, [r3, #32]
 3144 0494 4FF00003 		mov	r3, #0
 3145 0498 4FF00004 		mov	r4, #0
 3146 049c 0B0C     		lsrs	r3, r1, #16
 3147 049e 43EA0243 		orr	r3, r3, r2, lsl #16
 3148 04a2 140C     		lsrs	r4, r2, #16
 3149 04a4 3A68     		ldr	r2, [r7]
 3150 04a6 1532     		adds	r2, r2, #21
 3151 04a8 DBB2     		uxtb	r3, r3
 3152 04aa 1370     		strb	r3, [r2]
 3153 04ac 7B68     		ldr	r3, [r7, #4]
 3154 04ae D3E90812 		ldrd	r1, [r3, #32]
 3155 04b2 4FF00003 		mov	r3, #0
 3156 04b6 4FF00004 		mov	r4, #0
 3157 04ba 0B0A     		lsrs	r3, r1, #8
 3158 04bc 43EA0263 		orr	r3, r3, r2, lsl #24
 3159 04c0 140A     		lsrs	r4, r2, #8
 3160 04c2 3A68     		ldr	r2, [r7]
 3161 04c4 1632     		adds	r2, r2, #22
 3162 04c6 DBB2     		uxtb	r3, r3
 3163 04c8 1370     		strb	r3, [r2]
 3164 04ca 7B68     		ldr	r3, [r7, #4]
 3165 04cc D3E90834 		ldrd	r3, [r3, #32]
 3166 04d0 3A68     		ldr	r2, [r7]
 3167 04d2 1732     		adds	r2, r2, #23
 3168 04d4 DBB2     		uxtb	r3, r3
 3169 04d6 1370     		strb	r3, [r2]
 418:C:/Users/dtjld/workspace/AIoT/src/LiteOS_Lab/iot_link/network/dtls/mbedtls/mbedtls-2.16.2/library\sha512.c ****     PUT_UINT64_BE( ctx->state[3], output, 24 );
 3170              		.loc 1 418 0
 3171 04d8 7B68     		ldr	r3, [r7, #4]
 3172 04da D3E90A12 		ldrd	r1, [r3, #40]
 3173 04de 4FF00003 		mov	r3, #0
 3174 04e2 4FF00004 		mov	r4, #0
 3175 04e6 130E     		lsrs	r3, r2, #24
 3176 04e8 0024     		movs	r4, #0
 3177 04ea 3A68     		ldr	r2, [r7]
 3178 04ec 1832     		adds	r2, r2, #24
 3179 04ee DBB2     		uxtb	r3, r3
 3180 04f0 1370     		strb	r3, [r2]
 3181 04f2 7B68     		ldr	r3, [r7, #4]
 3182 04f4 D3E90A12 		ldrd	r1, [r3, #40]
 3183 04f8 4FF00003 		mov	r3, #0
 3184 04fc 4FF00004 		mov	r4, #0
ARM GAS  C:\Users\dtjld\AppData\Local\Temp\cczibexU.s 			page 64


 3185 0500 130C     		lsrs	r3, r2, #16
 3186 0502 0024     		movs	r4, #0
 3187 0504 3A68     		ldr	r2, [r7]
 3188 0506 1932     		adds	r2, r2, #25
 3189 0508 DBB2     		uxtb	r3, r3
 3190 050a 1370     		strb	r3, [r2]
 3191 050c 7B68     		ldr	r3, [r7, #4]
 3192 050e D3E90A12 		ldrd	r1, [r3, #40]
 3193 0512 4FF00003 		mov	r3, #0
 3194 0516 4FF00004 		mov	r4, #0
 3195 051a 130A     		lsrs	r3, r2, #8
 3196 051c 0024     		movs	r4, #0
 3197 051e 3A68     		ldr	r2, [r7]
 3198 0520 1A32     		adds	r2, r2, #26
 3199 0522 DBB2     		uxtb	r3, r3
 3200 0524 1370     		strb	r3, [r2]
 3201 0526 7B68     		ldr	r3, [r7, #4]
 3202 0528 D3E90A12 		ldrd	r1, [r3, #40]
 3203 052c 4FF00003 		mov	r3, #0
 3204 0530 4FF00004 		mov	r4, #0
 3205 0534 1300     		movs	r3, r2
 3206 0536 0024     		movs	r4, #0
 3207 0538 3A68     		ldr	r2, [r7]
 3208 053a 1B32     		adds	r2, r2, #27
 3209 053c DBB2     		uxtb	r3, r3
 3210 053e 1370     		strb	r3, [r2]
 3211 0540 7B68     		ldr	r3, [r7, #4]
 3212 0542 D3E90A12 		ldrd	r1, [r3, #40]
 3213 0546 4FF00003 		mov	r3, #0
 3214 054a 4FF00004 		mov	r4, #0
 3215 054e 0B0E     		lsrs	r3, r1, #24
 3216 0550 43EA0223 		orr	r3, r3, r2, lsl #8
 3217 0554 140E     		lsrs	r4, r2, #24
 3218 0556 3A68     		ldr	r2, [r7]
 3219 0558 1C32     		adds	r2, r2, #28
 3220 055a DBB2     		uxtb	r3, r3
 3221 055c 1370     		strb	r3, [r2]
 3222 055e 7B68     		ldr	r3, [r7, #4]
 3223 0560 D3E90A12 		ldrd	r1, [r3, #40]
 3224 0564 4FF00003 		mov	r3, #0
 3225 0568 4FF00004 		mov	r4, #0
 3226 056c 0B0C     		lsrs	r3, r1, #16
 3227 056e 43EA0243 		orr	r3, r3, r2, lsl #16
 3228 0572 140C     		lsrs	r4, r2, #16
 3229 0574 3A68     		ldr	r2, [r7]
 3230 0576 1D32     		adds	r2, r2, #29
 3231 0578 DBB2     		uxtb	r3, r3
 3232 057a 1370     		strb	r3, [r2]
 3233 057c 7B68     		ldr	r3, [r7, #4]
 3234 057e D3E90A12 		ldrd	r1, [r3, #40]
 3235 0582 4FF00003 		mov	r3, #0
 3236 0586 4FF00004 		mov	r4, #0
 3237 058a 0B0A     		lsrs	r3, r1, #8
 3238 058c 43EA0263 		orr	r3, r3, r2, lsl #24
 3239 0590 140A     		lsrs	r4, r2, #8
 3240 0592 3A68     		ldr	r2, [r7]
 3241 0594 1E32     		adds	r2, r2, #30
ARM GAS  C:\Users\dtjld\AppData\Local\Temp\cczibexU.s 			page 65


 3242 0596 DBB2     		uxtb	r3, r3
 3243 0598 1370     		strb	r3, [r2]
 3244 059a 7B68     		ldr	r3, [r7, #4]
 3245 059c D3E90A34 		ldrd	r3, [r3, #40]
 3246 05a0 3A68     		ldr	r2, [r7]
 3247 05a2 1F32     		adds	r2, r2, #31
 3248 05a4 DBB2     		uxtb	r3, r3
 3249 05a6 1370     		strb	r3, [r2]
 419:C:/Users/dtjld/workspace/AIoT/src/LiteOS_Lab/iot_link/network/dtls/mbedtls/mbedtls-2.16.2/library\sha512.c ****     PUT_UINT64_BE( ctx->state[4], output, 32 );
 3250              		.loc 1 419 0
 3251 05a8 7B68     		ldr	r3, [r7, #4]
 3252 05aa D3E90C12 		ldrd	r1, [r3, #48]
 3253 05ae 4FF00003 		mov	r3, #0
 3254 05b2 4FF00004 		mov	r4, #0
 3255 05b6 130E     		lsrs	r3, r2, #24
 3256 05b8 0024     		movs	r4, #0
 3257 05ba 3A68     		ldr	r2, [r7]
 3258 05bc 2032     		adds	r2, r2, #32
 3259 05be DBB2     		uxtb	r3, r3
 3260 05c0 1370     		strb	r3, [r2]
 3261 05c2 7B68     		ldr	r3, [r7, #4]
 3262 05c4 D3E90C12 		ldrd	r1, [r3, #48]
 3263 05c8 4FF00003 		mov	r3, #0
 3264 05cc 4FF00004 		mov	r4, #0
 3265 05d0 130C     		lsrs	r3, r2, #16
 3266 05d2 0024     		movs	r4, #0
 3267 05d4 3A68     		ldr	r2, [r7]
 3268 05d6 2132     		adds	r2, r2, #33
 3269 05d8 DBB2     		uxtb	r3, r3
 3270 05da 1370     		strb	r3, [r2]
 3271 05dc 7B68     		ldr	r3, [r7, #4]
 3272 05de D3E90C12 		ldrd	r1, [r3, #48]
 3273 05e2 4FF00003 		mov	r3, #0
 3274 05e6 4FF00004 		mov	r4, #0
 3275 05ea 130A     		lsrs	r3, r2, #8
 3276 05ec 0024     		movs	r4, #0
 3277 05ee 3A68     		ldr	r2, [r7]
 3278 05f0 2232     		adds	r2, r2, #34
 3279 05f2 DBB2     		uxtb	r3, r3
 3280 05f4 1370     		strb	r3, [r2]
 3281 05f6 7B68     		ldr	r3, [r7, #4]
 3282 05f8 D3E90C12 		ldrd	r1, [r3, #48]
 3283 05fc 4FF00003 		mov	r3, #0
 3284 0600 4FF00004 		mov	r4, #0
 3285 0604 1300     		movs	r3, r2
 3286 0606 0024     		movs	r4, #0
 3287 0608 3A68     		ldr	r2, [r7]
 3288 060a 2332     		adds	r2, r2, #35
 3289 060c DBB2     		uxtb	r3, r3
 3290 060e 1370     		strb	r3, [r2]
 3291 0610 7B68     		ldr	r3, [r7, #4]
 3292 0612 D3E90C12 		ldrd	r1, [r3, #48]
 3293 0616 4FF00003 		mov	r3, #0
 3294 061a 4FF00004 		mov	r4, #0
 3295 061e 0B0E     		lsrs	r3, r1, #24
 3296 0620 43EA0223 		orr	r3, r3, r2, lsl #8
 3297 0624 140E     		lsrs	r4, r2, #24
ARM GAS  C:\Users\dtjld\AppData\Local\Temp\cczibexU.s 			page 66


 3298 0626 3A68     		ldr	r2, [r7]
 3299 0628 2432     		adds	r2, r2, #36
 3300 062a DBB2     		uxtb	r3, r3
 3301 062c 1370     		strb	r3, [r2]
 3302 062e 7B68     		ldr	r3, [r7, #4]
 3303 0630 D3E90C12 		ldrd	r1, [r3, #48]
 3304 0634 4FF00003 		mov	r3, #0
 3305 0638 4FF00004 		mov	r4, #0
 3306 063c 0B0C     		lsrs	r3, r1, #16
 3307 063e 43EA0243 		orr	r3, r3, r2, lsl #16
 3308 0642 140C     		lsrs	r4, r2, #16
 3309 0644 3A68     		ldr	r2, [r7]
 3310 0646 2532     		adds	r2, r2, #37
 3311 0648 DBB2     		uxtb	r3, r3
 3312 064a 1370     		strb	r3, [r2]
 3313 064c 7B68     		ldr	r3, [r7, #4]
 3314 064e D3E90C12 		ldrd	r1, [r3, #48]
 3315 0652 4FF00003 		mov	r3, #0
 3316 0656 4FF00004 		mov	r4, #0
 3317 065a 0B0A     		lsrs	r3, r1, #8
 3318 065c 43EA0263 		orr	r3, r3, r2, lsl #24
 3319 0660 140A     		lsrs	r4, r2, #8
 3320 0662 3A68     		ldr	r2, [r7]
 3321 0664 2632     		adds	r2, r2, #38
 3322 0666 DBB2     		uxtb	r3, r3
 3323 0668 1370     		strb	r3, [r2]
 3324 066a 7B68     		ldr	r3, [r7, #4]
 3325 066c D3E90C34 		ldrd	r3, [r3, #48]
 3326 0670 3A68     		ldr	r2, [r7]
 3327 0672 2732     		adds	r2, r2, #39
 3328 0674 DBB2     		uxtb	r3, r3
 3329 0676 1370     		strb	r3, [r2]
 420:C:/Users/dtjld/workspace/AIoT/src/LiteOS_Lab/iot_link/network/dtls/mbedtls/mbedtls-2.16.2/library\sha512.c ****     PUT_UINT64_BE( ctx->state[5], output, 40 );
 3330              		.loc 1 420 0
 3331 0678 7B68     		ldr	r3, [r7, #4]
 3332 067a D3E90E12 		ldrd	r1, [r3, #56]
 3333 067e 4FF00003 		mov	r3, #0
 3334 0682 4FF00004 		mov	r4, #0
 3335 0686 130E     		lsrs	r3, r2, #24
 3336 0688 0024     		movs	r4, #0
 3337 068a 3A68     		ldr	r2, [r7]
 3338 068c 2832     		adds	r2, r2, #40
 3339 068e DBB2     		uxtb	r3, r3
 3340 0690 1370     		strb	r3, [r2]
 3341 0692 7B68     		ldr	r3, [r7, #4]
 3342 0694 D3E90E12 		ldrd	r1, [r3, #56]
 3343 0698 4FF00003 		mov	r3, #0
 3344 069c 4FF00004 		mov	r4, #0
 3345 06a0 130C     		lsrs	r3, r2, #16
 3346 06a2 0024     		movs	r4, #0
 3347 06a4 3A68     		ldr	r2, [r7]
 3348 06a6 2932     		adds	r2, r2, #41
 3349 06a8 DBB2     		uxtb	r3, r3
 3350 06aa 1370     		strb	r3, [r2]
 3351 06ac 7B68     		ldr	r3, [r7, #4]
 3352 06ae D3E90E12 		ldrd	r1, [r3, #56]
 3353 06b2 4FF00003 		mov	r3, #0
ARM GAS  C:\Users\dtjld\AppData\Local\Temp\cczibexU.s 			page 67


 3354 06b6 4FF00004 		mov	r4, #0
 3355 06ba 130A     		lsrs	r3, r2, #8
 3356 06bc 0024     		movs	r4, #0
 3357 06be 3A68     		ldr	r2, [r7]
 3358 06c0 2A32     		adds	r2, r2, #42
 3359 06c2 DBB2     		uxtb	r3, r3
 3360 06c4 1370     		strb	r3, [r2]
 3361 06c6 7B68     		ldr	r3, [r7, #4]
 3362 06c8 D3E90E12 		ldrd	r1, [r3, #56]
 3363 06cc 4FF00003 		mov	r3, #0
 3364 06d0 4FF00004 		mov	r4, #0
 3365 06d4 1300     		movs	r3, r2
 3366 06d6 0024     		movs	r4, #0
 3367 06d8 3A68     		ldr	r2, [r7]
 3368 06da 2B32     		adds	r2, r2, #43
 3369 06dc DBB2     		uxtb	r3, r3
 3370 06de 1370     		strb	r3, [r2]
 3371 06e0 7B68     		ldr	r3, [r7, #4]
 3372 06e2 D3E90E12 		ldrd	r1, [r3, #56]
 3373 06e6 4FF00003 		mov	r3, #0
 3374 06ea 4FF00004 		mov	r4, #0
 3375 06ee 0B0E     		lsrs	r3, r1, #24
 3376 06f0 43EA0223 		orr	r3, r3, r2, lsl #8
 3377 06f4 140E     		lsrs	r4, r2, #24
 3378 06f6 3A68     		ldr	r2, [r7]
 3379 06f8 2C32     		adds	r2, r2, #44
 3380 06fa DBB2     		uxtb	r3, r3
 3381 06fc 1370     		strb	r3, [r2]
 3382 06fe 7B68     		ldr	r3, [r7, #4]
 3383 0700 D3E90E12 		ldrd	r1, [r3, #56]
 3384 0704 4FF00003 		mov	r3, #0
 3385 0708 4FF00004 		mov	r4, #0
 3386 070c 0B0C     		lsrs	r3, r1, #16
 3387 070e 43EA0243 		orr	r3, r3, r2, lsl #16
 3388 0712 140C     		lsrs	r4, r2, #16
 3389 0714 3A68     		ldr	r2, [r7]
 3390 0716 2D32     		adds	r2, r2, #45
 3391 0718 DBB2     		uxtb	r3, r3
 3392 071a 1370     		strb	r3, [r2]
 3393 071c 7B68     		ldr	r3, [r7, #4]
 3394 071e D3E90E12 		ldrd	r1, [r3, #56]
 3395 0722 4FF00003 		mov	r3, #0
 3396 0726 4FF00004 		mov	r4, #0
 3397 072a 0B0A     		lsrs	r3, r1, #8
 3398 072c 43EA0263 		orr	r3, r3, r2, lsl #24
 3399 0730 140A     		lsrs	r4, r2, #8
 3400 0732 3A68     		ldr	r2, [r7]
 3401 0734 2E32     		adds	r2, r2, #46
 3402 0736 DBB2     		uxtb	r3, r3
 3403 0738 1370     		strb	r3, [r2]
 3404 073a 7B68     		ldr	r3, [r7, #4]
 3405 073c D3E90E34 		ldrd	r3, [r3, #56]
 3406 0740 3A68     		ldr	r2, [r7]
 3407 0742 2F32     		adds	r2, r2, #47
 3408 0744 DBB2     		uxtb	r3, r3
 3409 0746 1370     		strb	r3, [r2]
 421:C:/Users/dtjld/workspace/AIoT/src/LiteOS_Lab/iot_link/network/dtls/mbedtls/mbedtls-2.16.2/library\sha512.c **** 
ARM GAS  C:\Users\dtjld\AppData\Local\Temp\cczibexU.s 			page 68


 422:C:/Users/dtjld/workspace/AIoT/src/LiteOS_Lab/iot_link/network/dtls/mbedtls/mbedtls-2.16.2/library\sha512.c ****     if( ctx->is384 == 0 )
 3410              		.loc 1 422 0
 3411 0748 7B68     		ldr	r3, [r7, #4]
 3412 074a D3F8D030 		ldr	r3, [r3, #208]
 3413 074e 002B     		cmp	r3, #0
 3414 0750 40F0D080 		bne	.L51
 423:C:/Users/dtjld/workspace/AIoT/src/LiteOS_Lab/iot_link/network/dtls/mbedtls/mbedtls-2.16.2/library\sha512.c ****     {
 424:C:/Users/dtjld/workspace/AIoT/src/LiteOS_Lab/iot_link/network/dtls/mbedtls/mbedtls-2.16.2/library\sha512.c ****         PUT_UINT64_BE( ctx->state[6], output, 48 );
 3415              		.loc 1 424 0
 3416 0754 7B68     		ldr	r3, [r7, #4]
 3417 0756 D3E91012 		ldrd	r1, [r3, #64]
 3418 075a 4FF00003 		mov	r3, #0
 3419 075e 4FF00004 		mov	r4, #0
 3420 0762 130E     		lsrs	r3, r2, #24
 3421 0764 0024     		movs	r4, #0
 3422 0766 3A68     		ldr	r2, [r7]
 3423 0768 3032     		adds	r2, r2, #48
 3424 076a DBB2     		uxtb	r3, r3
 3425 076c 1370     		strb	r3, [r2]
 3426 076e 7B68     		ldr	r3, [r7, #4]
 3427 0770 D3E91012 		ldrd	r1, [r3, #64]
 3428 0774 4FF00003 		mov	r3, #0
 3429 0778 4FF00004 		mov	r4, #0
 3430 077c 130C     		lsrs	r3, r2, #16
 3431 077e 0024     		movs	r4, #0
 3432 0780 3A68     		ldr	r2, [r7]
 3433 0782 3132     		adds	r2, r2, #49
 3434 0784 DBB2     		uxtb	r3, r3
 3435 0786 1370     		strb	r3, [r2]
 3436 0788 7B68     		ldr	r3, [r7, #4]
 3437 078a D3E91012 		ldrd	r1, [r3, #64]
 3438 078e 4FF00003 		mov	r3, #0
 3439 0792 4FF00004 		mov	r4, #0
 3440 0796 130A     		lsrs	r3, r2, #8
 3441 0798 0024     		movs	r4, #0
 3442 079a 3A68     		ldr	r2, [r7]
 3443 079c 3232     		adds	r2, r2, #50
 3444 079e DBB2     		uxtb	r3, r3
 3445 07a0 1370     		strb	r3, [r2]
 3446 07a2 7B68     		ldr	r3, [r7, #4]
 3447 07a4 D3E91012 		ldrd	r1, [r3, #64]
 3448 07a8 4FF00003 		mov	r3, #0
 3449 07ac 4FF00004 		mov	r4, #0
 3450 07b0 1300     		movs	r3, r2
 3451 07b2 0024     		movs	r4, #0
 3452 07b4 3A68     		ldr	r2, [r7]
 3453 07b6 3332     		adds	r2, r2, #51
 3454 07b8 DBB2     		uxtb	r3, r3
 3455 07ba 1370     		strb	r3, [r2]
 3456 07bc 7B68     		ldr	r3, [r7, #4]
 3457 07be D3E91012 		ldrd	r1, [r3, #64]
 3458 07c2 4FF00003 		mov	r3, #0
 3459 07c6 4FF00004 		mov	r4, #0
 3460 07ca 0B0E     		lsrs	r3, r1, #24
 3461 07cc 43EA0223 		orr	r3, r3, r2, lsl #8
 3462 07d0 140E     		lsrs	r4, r2, #24
 3463 07d2 3A68     		ldr	r2, [r7]
ARM GAS  C:\Users\dtjld\AppData\Local\Temp\cczibexU.s 			page 69


 3464 07d4 3432     		adds	r2, r2, #52
 3465 07d6 DBB2     		uxtb	r3, r3
 3466 07d8 1370     		strb	r3, [r2]
 3467 07da 7B68     		ldr	r3, [r7, #4]
 3468 07dc D3E91012 		ldrd	r1, [r3, #64]
 3469 07e0 4FF00003 		mov	r3, #0
 3470 07e4 4FF00004 		mov	r4, #0
 3471 07e8 0B0C     		lsrs	r3, r1, #16
 3472 07ea 43EA0243 		orr	r3, r3, r2, lsl #16
 3473 07ee 140C     		lsrs	r4, r2, #16
 3474 07f0 3A68     		ldr	r2, [r7]
 3475 07f2 3532     		adds	r2, r2, #53
 3476 07f4 DBB2     		uxtb	r3, r3
 3477 07f6 1370     		strb	r3, [r2]
 3478 07f8 7B68     		ldr	r3, [r7, #4]
 3479 07fa D3E91012 		ldrd	r1, [r3, #64]
 3480 07fe 4FF00003 		mov	r3, #0
 3481 0802 4FF00004 		mov	r4, #0
 3482 0806 0B0A     		lsrs	r3, r1, #8
 3483 0808 43EA0263 		orr	r3, r3, r2, lsl #24
 3484 080c 140A     		lsrs	r4, r2, #8
 3485 080e 3A68     		ldr	r2, [r7]
 3486 0810 3632     		adds	r2, r2, #54
 3487 0812 DBB2     		uxtb	r3, r3
 3488 0814 1370     		strb	r3, [r2]
 3489 0816 7B68     		ldr	r3, [r7, #4]
 3490 0818 D3E91034 		ldrd	r3, [r3, #64]
 3491 081c 3A68     		ldr	r2, [r7]
 3492 081e 3732     		adds	r2, r2, #55
 3493 0820 DBB2     		uxtb	r3, r3
 3494 0822 1370     		strb	r3, [r2]
 425:C:/Users/dtjld/workspace/AIoT/src/LiteOS_Lab/iot_link/network/dtls/mbedtls/mbedtls-2.16.2/library\sha512.c ****         PUT_UINT64_BE( ctx->state[7], output, 56 );
 3495              		.loc 1 425 0
 3496 0824 7B68     		ldr	r3, [r7, #4]
 3497 0826 D3E91212 		ldrd	r1, [r3, #72]
 3498 082a 4FF00003 		mov	r3, #0
 3499 082e 4FF00004 		mov	r4, #0
 3500 0832 130E     		lsrs	r3, r2, #24
 3501 0834 0024     		movs	r4, #0
 3502 0836 3A68     		ldr	r2, [r7]
 3503 0838 3832     		adds	r2, r2, #56
 3504 083a DBB2     		uxtb	r3, r3
 3505 083c 1370     		strb	r3, [r2]
 3506 083e 7B68     		ldr	r3, [r7, #4]
 3507 0840 D3E91212 		ldrd	r1, [r3, #72]
 3508 0844 4FF00003 		mov	r3, #0
 3509 0848 4FF00004 		mov	r4, #0
 3510 084c 130C     		lsrs	r3, r2, #16
 3511 084e 0024     		movs	r4, #0
 3512 0850 3A68     		ldr	r2, [r7]
 3513 0852 3932     		adds	r2, r2, #57
 3514 0854 DBB2     		uxtb	r3, r3
 3515 0856 1370     		strb	r3, [r2]
 3516 0858 7B68     		ldr	r3, [r7, #4]
 3517 085a D3E91212 		ldrd	r1, [r3, #72]
 3518 085e 4FF00003 		mov	r3, #0
 3519 0862 4FF00004 		mov	r4, #0
ARM GAS  C:\Users\dtjld\AppData\Local\Temp\cczibexU.s 			page 70


 3520 0866 130A     		lsrs	r3, r2, #8
 3521 0868 0024     		movs	r4, #0
 3522 086a 3A68     		ldr	r2, [r7]
 3523 086c 3A32     		adds	r2, r2, #58
 3524 086e DBB2     		uxtb	r3, r3
 3525 0870 1370     		strb	r3, [r2]
 3526 0872 7B68     		ldr	r3, [r7, #4]
 3527 0874 D3E91212 		ldrd	r1, [r3, #72]
 3528 0878 4FF00003 		mov	r3, #0
 3529 087c 4FF00004 		mov	r4, #0
 3530 0880 1300     		movs	r3, r2
 3531 0882 0024     		movs	r4, #0
 3532 0884 3A68     		ldr	r2, [r7]
 3533 0886 3B32     		adds	r2, r2, #59
 3534 0888 DBB2     		uxtb	r3, r3
 3535 088a 1370     		strb	r3, [r2]
 3536 088c 7B68     		ldr	r3, [r7, #4]
 3537 088e D3E91212 		ldrd	r1, [r3, #72]
 3538 0892 4FF00003 		mov	r3, #0
 3539 0896 4FF00004 		mov	r4, #0
 3540 089a 0B0E     		lsrs	r3, r1, #24
 3541 089c 43EA0223 		orr	r3, r3, r2, lsl #8
 3542 08a0 140E     		lsrs	r4, r2, #24
 3543 08a2 3A68     		ldr	r2, [r7]
 3544 08a4 3C32     		adds	r2, r2, #60
 3545 08a6 DBB2     		uxtb	r3, r3
 3546 08a8 1370     		strb	r3, [r2]
 3547 08aa 7B68     		ldr	r3, [r7, #4]
 3548 08ac D3E91212 		ldrd	r1, [r3, #72]
 3549 08b0 4FF00003 		mov	r3, #0
 3550 08b4 4FF00004 		mov	r4, #0
 3551 08b8 0B0C     		lsrs	r3, r1, #16
 3552 08ba 43EA0243 		orr	r3, r3, r2, lsl #16
 3553 08be 140C     		lsrs	r4, r2, #16
 3554 08c0 3A68     		ldr	r2, [r7]
 3555 08c2 3D32     		adds	r2, r2, #61
 3556 08c4 DBB2     		uxtb	r3, r3
 3557 08c6 1370     		strb	r3, [r2]
 3558 08c8 7B68     		ldr	r3, [r7, #4]
 3559 08ca D3E91212 		ldrd	r1, [r3, #72]
 3560 08ce 4FF00003 		mov	r3, #0
 3561 08d2 4FF00004 		mov	r4, #0
 3562 08d6 0B0A     		lsrs	r3, r1, #8
 3563 08d8 43EA0263 		orr	r3, r3, r2, lsl #24
 3564 08dc 140A     		lsrs	r4, r2, #8
 3565 08de 3A68     		ldr	r2, [r7]
 3566 08e0 3E32     		adds	r2, r2, #62
 3567 08e2 DBB2     		uxtb	r3, r3
 3568 08e4 1370     		strb	r3, [r2]
 3569 08e6 7B68     		ldr	r3, [r7, #4]
 3570 08e8 D3E91234 		ldrd	r3, [r3, #72]
 3571 08ec 3A68     		ldr	r2, [r7]
 3572 08ee 3F32     		adds	r2, r2, #63
 3573 08f0 DBB2     		uxtb	r3, r3
 3574 08f2 1370     		strb	r3, [r2]
 3575              	.L51:
 426:C:/Users/dtjld/workspace/AIoT/src/LiteOS_Lab/iot_link/network/dtls/mbedtls/mbedtls-2.16.2/library\sha512.c ****     }
ARM GAS  C:\Users\dtjld\AppData\Local\Temp\cczibexU.s 			page 71


 427:C:/Users/dtjld/workspace/AIoT/src/LiteOS_Lab/iot_link/network/dtls/mbedtls/mbedtls-2.16.2/library\sha512.c **** 
 428:C:/Users/dtjld/workspace/AIoT/src/LiteOS_Lab/iot_link/network/dtls/mbedtls/mbedtls-2.16.2/library\sha512.c ****     return( 0 );
 3576              		.loc 1 428 0
 3577 08f4 0023     		movs	r3, #0
 3578              	.L49:
 429:C:/Users/dtjld/workspace/AIoT/src/LiteOS_Lab/iot_link/network/dtls/mbedtls/mbedtls-2.16.2/library\sha512.c **** }
 3579              		.loc 1 429 0
 3580 08f6 1846     		mov	r0, r3
 3581 08f8 2037     		adds	r7, r7, #32
 3582              	.LCFI50:
 3583              		.cfi_def_cfa_offset 24
 3584 08fa BD46     		mov	sp, r7
 3585              	.LCFI51:
 3586              		.cfi_def_cfa_register 13
 3587              		@ sp needed
 3588 08fc BDE8F088 		pop	{r4, r5, r6, r7, fp, pc}
 3589              		.cfi_endproc
 3590              	.LFE12:
 3592              		.section	.text.mbedtls_sha512_finish,"ax",%progbits
 3593              		.align	1
 3594              		.global	mbedtls_sha512_finish
 3595              		.syntax unified
 3596              		.thumb
 3597              		.thumb_func
 3598              		.fpu fpv4-sp-d16
 3600              	mbedtls_sha512_finish:
 3601              	.LFB13:
 430:C:/Users/dtjld/workspace/AIoT/src/LiteOS_Lab/iot_link/network/dtls/mbedtls/mbedtls-2.16.2/library\sha512.c **** 
 431:C:/Users/dtjld/workspace/AIoT/src/LiteOS_Lab/iot_link/network/dtls/mbedtls/mbedtls-2.16.2/library\sha512.c **** #if !defined(MBEDTLS_DEPRECATED_REMOVED)
 432:C:/Users/dtjld/workspace/AIoT/src/LiteOS_Lab/iot_link/network/dtls/mbedtls/mbedtls-2.16.2/library\sha512.c **** void mbedtls_sha512_finish( mbedtls_sha512_context *ctx,
 433:C:/Users/dtjld/workspace/AIoT/src/LiteOS_Lab/iot_link/network/dtls/mbedtls/mbedtls-2.16.2/library\sha512.c ****                             unsigned char output[64] )
 434:C:/Users/dtjld/workspace/AIoT/src/LiteOS_Lab/iot_link/network/dtls/mbedtls/mbedtls-2.16.2/library\sha512.c **** {
 3602              		.loc 1 434 0
 3603              		.cfi_startproc
 3604              		@ args = 0, pretend = 0, frame = 8
 3605              		@ frame_needed = 1, uses_anonymous_args = 0
 3606 0000 80B5     		push	{r7, lr}
 3607              	.LCFI52:
 3608              		.cfi_def_cfa_offset 8
 3609              		.cfi_offset 7, -8
 3610              		.cfi_offset 14, -4
 3611 0002 82B0     		sub	sp, sp, #8
 3612              	.LCFI53:
 3613              		.cfi_def_cfa_offset 16
 3614 0004 00AF     		add	r7, sp, #0
 3615              	.LCFI54:
 3616              		.cfi_def_cfa_register 7
 3617 0006 7860     		str	r0, [r7, #4]
 3618 0008 3960     		str	r1, [r7]
 435:C:/Users/dtjld/workspace/AIoT/src/LiteOS_Lab/iot_link/network/dtls/mbedtls/mbedtls-2.16.2/library\sha512.c ****     mbedtls_sha512_finish_ret( ctx, output );
 3619              		.loc 1 435 0
 3620 000a 3968     		ldr	r1, [r7]
 3621 000c 7868     		ldr	r0, [r7, #4]
 3622 000e FFF7FEFF 		bl	mbedtls_sha512_finish_ret
 436:C:/Users/dtjld/workspace/AIoT/src/LiteOS_Lab/iot_link/network/dtls/mbedtls/mbedtls-2.16.2/library\sha512.c **** }
 3623              		.loc 1 436 0
 3624 0012 00BF     		nop
ARM GAS  C:\Users\dtjld\AppData\Local\Temp\cczibexU.s 			page 72


 3625 0014 0837     		adds	r7, r7, #8
 3626              	.LCFI55:
 3627              		.cfi_def_cfa_offset 8
 3628 0016 BD46     		mov	sp, r7
 3629              	.LCFI56:
 3630              		.cfi_def_cfa_register 13
 3631              		@ sp needed
 3632 0018 80BD     		pop	{r7, pc}
 3633              		.cfi_endproc
 3634              	.LFE13:
 3636              		.section	.text.mbedtls_sha512_ret,"ax",%progbits
 3637              		.align	1
 3638              		.global	mbedtls_sha512_ret
 3639              		.syntax unified
 3640              		.thumb
 3641              		.thumb_func
 3642              		.fpu fpv4-sp-d16
 3644              	mbedtls_sha512_ret:
 3645              	.LFB14:
 437:C:/Users/dtjld/workspace/AIoT/src/LiteOS_Lab/iot_link/network/dtls/mbedtls/mbedtls-2.16.2/library\sha512.c **** #endif
 438:C:/Users/dtjld/workspace/AIoT/src/LiteOS_Lab/iot_link/network/dtls/mbedtls/mbedtls-2.16.2/library\sha512.c **** 
 439:C:/Users/dtjld/workspace/AIoT/src/LiteOS_Lab/iot_link/network/dtls/mbedtls/mbedtls-2.16.2/library\sha512.c **** #endif /* !MBEDTLS_SHA512_ALT */
 440:C:/Users/dtjld/workspace/AIoT/src/LiteOS_Lab/iot_link/network/dtls/mbedtls/mbedtls-2.16.2/library\sha512.c **** 
 441:C:/Users/dtjld/workspace/AIoT/src/LiteOS_Lab/iot_link/network/dtls/mbedtls/mbedtls-2.16.2/library\sha512.c **** /*
 442:C:/Users/dtjld/workspace/AIoT/src/LiteOS_Lab/iot_link/network/dtls/mbedtls/mbedtls-2.16.2/library\sha512.c ****  * output = SHA-512( input buffer )
 443:C:/Users/dtjld/workspace/AIoT/src/LiteOS_Lab/iot_link/network/dtls/mbedtls/mbedtls-2.16.2/library\sha512.c ****  */
 444:C:/Users/dtjld/workspace/AIoT/src/LiteOS_Lab/iot_link/network/dtls/mbedtls/mbedtls-2.16.2/library\sha512.c **** int mbedtls_sha512_ret( const unsigned char *input,
 445:C:/Users/dtjld/workspace/AIoT/src/LiteOS_Lab/iot_link/network/dtls/mbedtls/mbedtls-2.16.2/library\sha512.c ****                     size_t ilen,
 446:C:/Users/dtjld/workspace/AIoT/src/LiteOS_Lab/iot_link/network/dtls/mbedtls/mbedtls-2.16.2/library\sha512.c ****                     unsigned char output[64],
 447:C:/Users/dtjld/workspace/AIoT/src/LiteOS_Lab/iot_link/network/dtls/mbedtls/mbedtls-2.16.2/library\sha512.c ****                     int is384 )
 448:C:/Users/dtjld/workspace/AIoT/src/LiteOS_Lab/iot_link/network/dtls/mbedtls/mbedtls-2.16.2/library\sha512.c **** {
 3646              		.loc 1 448 0
 3647              		.cfi_startproc
 3648              		@ args = 0, pretend = 0, frame = 240
 3649              		@ frame_needed = 1, uses_anonymous_args = 0
 3650 0000 80B5     		push	{r7, lr}
 3651              	.LCFI57:
 3652              		.cfi_def_cfa_offset 8
 3653              		.cfi_offset 7, -8
 3654              		.cfi_offset 14, -4
 3655 0002 BCB0     		sub	sp, sp, #240
 3656              	.LCFI58:
 3657              		.cfi_def_cfa_offset 248
 3658 0004 00AF     		add	r7, sp, #0
 3659              	.LCFI59:
 3660              		.cfi_def_cfa_register 7
 3661 0006 F860     		str	r0, [r7, #12]
 3662 0008 B960     		str	r1, [r7, #8]
 3663 000a 7A60     		str	r2, [r7, #4]
 3664 000c 3B60     		str	r3, [r7]
 449:C:/Users/dtjld/workspace/AIoT/src/LiteOS_Lab/iot_link/network/dtls/mbedtls/mbedtls-2.16.2/library\sha512.c ****     int ret;
 450:C:/Users/dtjld/workspace/AIoT/src/LiteOS_Lab/iot_link/network/dtls/mbedtls/mbedtls-2.16.2/library\sha512.c ****     mbedtls_sha512_context ctx;
 451:C:/Users/dtjld/workspace/AIoT/src/LiteOS_Lab/iot_link/network/dtls/mbedtls/mbedtls-2.16.2/library\sha512.c **** 
 452:C:/Users/dtjld/workspace/AIoT/src/LiteOS_Lab/iot_link/network/dtls/mbedtls/mbedtls-2.16.2/library\sha512.c ****     SHA512_VALIDATE_RET( is384 == 0 || is384 == 1 );
 453:C:/Users/dtjld/workspace/AIoT/src/LiteOS_Lab/iot_link/network/dtls/mbedtls/mbedtls-2.16.2/library\sha512.c ****     SHA512_VALIDATE_RET( ilen == 0 || input != NULL );
 454:C:/Users/dtjld/workspace/AIoT/src/LiteOS_Lab/iot_link/network/dtls/mbedtls/mbedtls-2.16.2/library\sha512.c ****     SHA512_VALIDATE_RET( (unsigned char *)output != NULL );
 455:C:/Users/dtjld/workspace/AIoT/src/LiteOS_Lab/iot_link/network/dtls/mbedtls/mbedtls-2.16.2/library\sha512.c **** 
ARM GAS  C:\Users\dtjld\AppData\Local\Temp\cczibexU.s 			page 73


 456:C:/Users/dtjld/workspace/AIoT/src/LiteOS_Lab/iot_link/network/dtls/mbedtls/mbedtls-2.16.2/library\sha512.c ****     mbedtls_sha512_init( &ctx );
 3665              		.loc 1 456 0
 3666 000e 07F11003 		add	r3, r7, #16
 3667 0012 1846     		mov	r0, r3
 3668 0014 FFF7FEFF 		bl	mbedtls_sha512_init
 457:C:/Users/dtjld/workspace/AIoT/src/LiteOS_Lab/iot_link/network/dtls/mbedtls/mbedtls-2.16.2/library\sha512.c **** 
 458:C:/Users/dtjld/workspace/AIoT/src/LiteOS_Lab/iot_link/network/dtls/mbedtls/mbedtls-2.16.2/library\sha512.c ****     if( ( ret = mbedtls_sha512_starts_ret( &ctx, is384 ) ) != 0 )
 3669              		.loc 1 458 0
 3670 0018 07F11003 		add	r3, r7, #16
 3671 001c 3968     		ldr	r1, [r7]
 3672 001e 1846     		mov	r0, r3
 3673 0020 FFF7FEFF 		bl	mbedtls_sha512_starts_ret
 3674 0024 C7F8EC00 		str	r0, [r7, #236]
 3675 0028 D7F8EC30 		ldr	r3, [r7, #236]
 3676 002c 002B     		cmp	r3, #0
 3677 002e 18D1     		bne	.L58
 459:C:/Users/dtjld/workspace/AIoT/src/LiteOS_Lab/iot_link/network/dtls/mbedtls/mbedtls-2.16.2/library\sha512.c ****         goto exit;
 460:C:/Users/dtjld/workspace/AIoT/src/LiteOS_Lab/iot_link/network/dtls/mbedtls/mbedtls-2.16.2/library\sha512.c **** 
 461:C:/Users/dtjld/workspace/AIoT/src/LiteOS_Lab/iot_link/network/dtls/mbedtls/mbedtls-2.16.2/library\sha512.c ****     if( ( ret = mbedtls_sha512_update_ret( &ctx, input, ilen ) ) != 0 )
 3678              		.loc 1 461 0
 3679 0030 07F11003 		add	r3, r7, #16
 3680 0034 BA68     		ldr	r2, [r7, #8]
 3681 0036 F968     		ldr	r1, [r7, #12]
 3682 0038 1846     		mov	r0, r3
 3683 003a FFF7FEFF 		bl	mbedtls_sha512_update_ret
 3684 003e C7F8EC00 		str	r0, [r7, #236]
 3685 0042 D7F8EC30 		ldr	r3, [r7, #236]
 3686 0046 002B     		cmp	r3, #0
 3687 0048 0DD1     		bne	.L59
 462:C:/Users/dtjld/workspace/AIoT/src/LiteOS_Lab/iot_link/network/dtls/mbedtls/mbedtls-2.16.2/library\sha512.c ****         goto exit;
 463:C:/Users/dtjld/workspace/AIoT/src/LiteOS_Lab/iot_link/network/dtls/mbedtls/mbedtls-2.16.2/library\sha512.c **** 
 464:C:/Users/dtjld/workspace/AIoT/src/LiteOS_Lab/iot_link/network/dtls/mbedtls/mbedtls-2.16.2/library\sha512.c ****     if( ( ret = mbedtls_sha512_finish_ret( &ctx, output ) ) != 0 )
 3688              		.loc 1 464 0
 3689 004a 07F11003 		add	r3, r7, #16
 3690 004e 7968     		ldr	r1, [r7, #4]
 3691 0050 1846     		mov	r0, r3
 3692 0052 FFF7FEFF 		bl	mbedtls_sha512_finish_ret
 3693 0056 C7F8EC00 		str	r0, [r7, #236]
 3694 005a D7F8EC30 		ldr	r3, [r7, #236]
 3695 005e 002B     		cmp	r3, #0
 465:C:/Users/dtjld/workspace/AIoT/src/LiteOS_Lab/iot_link/network/dtls/mbedtls/mbedtls-2.16.2/library\sha512.c ****         goto exit;
 466:C:/Users/dtjld/workspace/AIoT/src/LiteOS_Lab/iot_link/network/dtls/mbedtls/mbedtls-2.16.2/library\sha512.c **** 
 467:C:/Users/dtjld/workspace/AIoT/src/LiteOS_Lab/iot_link/network/dtls/mbedtls/mbedtls-2.16.2/library\sha512.c **** exit:
 3696              		.loc 1 467 0
 3697 0060 02E0     		b	.L55
 3698              	.L58:
 459:C:/Users/dtjld/workspace/AIoT/src/LiteOS_Lab/iot_link/network/dtls/mbedtls/mbedtls-2.16.2/library\sha512.c **** 
 3699              		.loc 1 459 0
 3700 0062 00BF     		nop
 3701 0064 00E0     		b	.L55
 3702              	.L59:
 462:C:/Users/dtjld/workspace/AIoT/src/LiteOS_Lab/iot_link/network/dtls/mbedtls/mbedtls-2.16.2/library\sha512.c ****         goto exit;
 3703              		.loc 1 462 0
 3704 0066 00BF     		nop
 3705              	.L55:
 468:C:/Users/dtjld/workspace/AIoT/src/LiteOS_Lab/iot_link/network/dtls/mbedtls/mbedtls-2.16.2/library\sha512.c ****     mbedtls_sha512_free( &ctx );
 3706              		.loc 1 468 0
ARM GAS  C:\Users\dtjld\AppData\Local\Temp\cczibexU.s 			page 74


 3707 0068 07F11003 		add	r3, r7, #16
 3708 006c 1846     		mov	r0, r3
 3709 006e FFF7FEFF 		bl	mbedtls_sha512_free
 469:C:/Users/dtjld/workspace/AIoT/src/LiteOS_Lab/iot_link/network/dtls/mbedtls/mbedtls-2.16.2/library\sha512.c **** 
 470:C:/Users/dtjld/workspace/AIoT/src/LiteOS_Lab/iot_link/network/dtls/mbedtls/mbedtls-2.16.2/library\sha512.c ****     return( ret );
 3710              		.loc 1 470 0
 3711 0072 D7F8EC30 		ldr	r3, [r7, #236]
 471:C:/Users/dtjld/workspace/AIoT/src/LiteOS_Lab/iot_link/network/dtls/mbedtls/mbedtls-2.16.2/library\sha512.c **** }
 3712              		.loc 1 471 0
 3713 0076 1846     		mov	r0, r3
 3714 0078 F037     		adds	r7, r7, #240
 3715              	.LCFI60:
 3716              		.cfi_def_cfa_offset 8
 3717 007a BD46     		mov	sp, r7
 3718              	.LCFI61:
 3719              		.cfi_def_cfa_register 13
 3720              		@ sp needed
 3721 007c 80BD     		pop	{r7, pc}
 3722              		.cfi_endproc
 3723              	.LFE14:
 3725              		.section	.text.mbedtls_sha512,"ax",%progbits
 3726              		.align	1
 3727              		.global	mbedtls_sha512
 3728              		.syntax unified
 3729              		.thumb
 3730              		.thumb_func
 3731              		.fpu fpv4-sp-d16
 3733              	mbedtls_sha512:
 3734              	.LFB15:
 472:C:/Users/dtjld/workspace/AIoT/src/LiteOS_Lab/iot_link/network/dtls/mbedtls/mbedtls-2.16.2/library\sha512.c **** 
 473:C:/Users/dtjld/workspace/AIoT/src/LiteOS_Lab/iot_link/network/dtls/mbedtls/mbedtls-2.16.2/library\sha512.c **** #if !defined(MBEDTLS_DEPRECATED_REMOVED)
 474:C:/Users/dtjld/workspace/AIoT/src/LiteOS_Lab/iot_link/network/dtls/mbedtls/mbedtls-2.16.2/library\sha512.c **** void mbedtls_sha512( const unsigned char *input,
 475:C:/Users/dtjld/workspace/AIoT/src/LiteOS_Lab/iot_link/network/dtls/mbedtls/mbedtls-2.16.2/library\sha512.c ****                      size_t ilen,
 476:C:/Users/dtjld/workspace/AIoT/src/LiteOS_Lab/iot_link/network/dtls/mbedtls/mbedtls-2.16.2/library\sha512.c ****                      unsigned char output[64],
 477:C:/Users/dtjld/workspace/AIoT/src/LiteOS_Lab/iot_link/network/dtls/mbedtls/mbedtls-2.16.2/library\sha512.c ****                      int is384 )
 478:C:/Users/dtjld/workspace/AIoT/src/LiteOS_Lab/iot_link/network/dtls/mbedtls/mbedtls-2.16.2/library\sha512.c **** {
 3735              		.loc 1 478 0
 3736              		.cfi_startproc
 3737              		@ args = 0, pretend = 0, frame = 16
 3738              		@ frame_needed = 1, uses_anonymous_args = 0
 3739 0000 80B5     		push	{r7, lr}
 3740              	.LCFI62:
 3741              		.cfi_def_cfa_offset 8
 3742              		.cfi_offset 7, -8
 3743              		.cfi_offset 14, -4
 3744 0002 84B0     		sub	sp, sp, #16
 3745              	.LCFI63:
 3746              		.cfi_def_cfa_offset 24
 3747 0004 00AF     		add	r7, sp, #0
 3748              	.LCFI64:
 3749              		.cfi_def_cfa_register 7
 3750 0006 F860     		str	r0, [r7, #12]
 3751 0008 B960     		str	r1, [r7, #8]
 3752 000a 7A60     		str	r2, [r7, #4]
 3753 000c 3B60     		str	r3, [r7]
 479:C:/Users/dtjld/workspace/AIoT/src/LiteOS_Lab/iot_link/network/dtls/mbedtls/mbedtls-2.16.2/library\sha512.c ****     mbedtls_sha512_ret( input, ilen, output, is384 );
 3754              		.loc 1 479 0
ARM GAS  C:\Users\dtjld\AppData\Local\Temp\cczibexU.s 			page 75


 3755 000e 3B68     		ldr	r3, [r7]
 3756 0010 7A68     		ldr	r2, [r7, #4]
 3757 0012 B968     		ldr	r1, [r7, #8]
 3758 0014 F868     		ldr	r0, [r7, #12]
 3759 0016 FFF7FEFF 		bl	mbedtls_sha512_ret
 480:C:/Users/dtjld/workspace/AIoT/src/LiteOS_Lab/iot_link/network/dtls/mbedtls/mbedtls-2.16.2/library\sha512.c **** }
 3760              		.loc 1 480 0
 3761 001a 00BF     		nop
 3762 001c 1037     		adds	r7, r7, #16
 3763              	.LCFI65:
 3764              		.cfi_def_cfa_offset 8
 3765 001e BD46     		mov	sp, r7
 3766              	.LCFI66:
 3767              		.cfi_def_cfa_register 13
 3768              		@ sp needed
 3769 0020 80BD     		pop	{r7, pc}
 3770              		.cfi_endproc
 3771              	.LFE15:
 3773              		.section	.rodata.sha512_test_buf,"a",%progbits
 3774              		.align	2
 3777              	sha512_test_buf:
 3778 0000 61626300 		.ascii	"abc\000"
 3779 0004 00000000 		.space	109
 3779      00000000 
 3779      00000000 
 3779      00000000 
 3779      00000000 
 3780 0071 61626364 		.ascii	"abcdefghbcdefghicdefghijdefghijkefghijklfghijklmghi"
 3780      65666768 
 3780      62636465 
 3780      66676869 
 3780      63646566 
 3781 00a4 6A6B6C6D 		.ascii	"jklmnhijklmnoijklmnopjklmnopqklmnopqrlmnopqrsmnopqr"
 3781      6E68696A 
 3781      6B6C6D6E 
 3781      6F696A6B 
 3781      6C6D6E6F 
 3782 00d7 73746E6F 		.ascii	"stnopqrstu\000"
 3782      70717273 
 3782      747500
 3783 00e2 00       		.ascii	"\000"
 3784 00e3 00000000 		.space	112
 3784      00000000 
 3784      00000000 
 3784      00000000 
 3784      00000000 
 3785              		.section	.rodata.sha512_test_buflen,"a",%progbits
 3786              		.align	2
 3789              	sha512_test_buflen:
 3790 0000 03000000 		.word	3
 3791 0004 70000000 		.word	112
 3792 0008 E8030000 		.word	1000
 3793              		.section	.rodata.sha512_test_sum,"a",%progbits
 3794              		.align	2
 3797              	sha512_test_sum:
 3798 0000 CB       		.byte	-53
 3799 0001 00       		.byte	0
ARM GAS  C:\Users\dtjld\AppData\Local\Temp\cczibexU.s 			page 76


 3800 0002 75       		.byte	117
 3801 0003 3F       		.byte	63
 3802 0004 45       		.byte	69
 3803 0005 A3       		.byte	-93
 3804 0006 5E       		.byte	94
 3805 0007 8B       		.byte	-117
 3806 0008 B5       		.byte	-75
 3807 0009 A0       		.byte	-96
 3808 000a 3D       		.byte	61
 3809 000b 69       		.byte	105
 3810 000c 9A       		.byte	-102
 3811 000d C6       		.byte	-58
 3812 000e 50       		.byte	80
 3813 000f 07       		.byte	7
 3814 0010 27       		.byte	39
 3815 0011 2C       		.byte	44
 3816 0012 32       		.byte	50
 3817 0013 AB       		.byte	-85
 3818 0014 0E       		.byte	14
 3819 0015 DE       		.byte	-34
 3820 0016 D1       		.byte	-47
 3821 0017 63       		.byte	99
 3822 0018 1A       		.byte	26
 3823 0019 8B       		.byte	-117
 3824 001a 60       		.byte	96
 3825 001b 5A       		.byte	90
 3826 001c 43       		.byte	67
 3827 001d FF       		.byte	-1
 3828 001e 5B       		.byte	91
 3829 001f ED       		.byte	-19
 3830 0020 80       		.byte	-128
 3831 0021 86       		.byte	-122
 3832 0022 07       		.byte	7
 3833 0023 2B       		.byte	43
 3834 0024 A1       		.byte	-95
 3835 0025 E7       		.byte	-25
 3836 0026 CC       		.byte	-52
 3837 0027 23       		.byte	35
 3838 0028 58       		.byte	88
 3839 0029 BA       		.byte	-70
 3840 002a EC       		.byte	-20
 3841 002b A1       		.byte	-95
 3842 002c 34       		.byte	52
 3843 002d C8       		.byte	-56
 3844 002e 25       		.byte	37
 3845 002f A7       		.byte	-89
 3846 0030 00000000 		.space	16
 3846      00000000 
 3846      00000000 
 3846      00000000 
 3847 0040 09       		.byte	9
 3848 0041 33       		.byte	51
 3849 0042 0C       		.byte	12
 3850 0043 33       		.byte	51
 3851 0044 F7       		.byte	-9
 3852 0045 11       		.byte	17
 3853 0046 47       		.byte	71
ARM GAS  C:\Users\dtjld\AppData\Local\Temp\cczibexU.s 			page 77


 3854 0047 E8       		.byte	-24
 3855 0048 3D       		.byte	61
 3856 0049 19       		.byte	25
 3857 004a 2F       		.byte	47
 3858 004b C7       		.byte	-57
 3859 004c 82       		.byte	-126
 3860 004d CD       		.byte	-51
 3861 004e 1B       		.byte	27
 3862 004f 47       		.byte	71
 3863 0050 53       		.byte	83
 3864 0051 11       		.byte	17
 3865 0052 1B       		.byte	27
 3866 0053 17       		.byte	23
 3867 0054 3B       		.byte	59
 3868 0055 3B       		.byte	59
 3869 0056 05       		.byte	5
 3870 0057 D2       		.byte	-46
 3871 0058 2F       		.byte	47
 3872 0059 A0       		.byte	-96
 3873 005a 80       		.byte	-128
 3874 005b 86       		.byte	-122
 3875 005c E3       		.byte	-29
 3876 005d B0       		.byte	-80
 3877 005e F7       		.byte	-9
 3878 005f 12       		.byte	18
 3879 0060 FC       		.byte	-4
 3880 0061 C7       		.byte	-57
 3881 0062 C7       		.byte	-57
 3882 0063 1A       		.byte	26
 3883 0064 55       		.byte	85
 3884 0065 7E       		.byte	126
 3885 0066 2D       		.byte	45
 3886 0067 B9       		.byte	-71
 3887 0068 66       		.byte	102
 3888 0069 C3       		.byte	-61
 3889 006a E9       		.byte	-23
 3890 006b FA       		.byte	-6
 3891 006c 91       		.byte	-111
 3892 006d 74       		.byte	116
 3893 006e 60       		.byte	96
 3894 006f 39       		.byte	57
 3895 0070 00000000 		.space	16
 3895      00000000 
 3895      00000000 
 3895      00000000 
 3896 0080 9D       		.byte	-99
 3897 0081 0E       		.byte	14
 3898 0082 18       		.byte	24
 3899 0083 09       		.byte	9
 3900 0084 71       		.byte	113
 3901 0085 64       		.byte	100
 3902 0086 74       		.byte	116
 3903 0087 CB       		.byte	-53
 3904 0088 08       		.byte	8
 3905 0089 6E       		.byte	110
 3906 008a 83       		.byte	-125
 3907 008b 4E       		.byte	78
ARM GAS  C:\Users\dtjld\AppData\Local\Temp\cczibexU.s 			page 78


 3908 008c 31       		.byte	49
 3909 008d 0A       		.byte	10
 3910 008e 4A       		.byte	74
 3911 008f 1C       		.byte	28
 3912 0090 ED       		.byte	-19
 3913 0091 14       		.byte	20
 3914 0092 9E       		.byte	-98
 3915 0093 9C       		.byte	-100
 3916 0094 00       		.byte	0
 3917 0095 F2       		.byte	-14
 3918 0096 48       		.byte	72
 3919 0097 52       		.byte	82
 3920 0098 79       		.byte	121
 3921 0099 72       		.byte	114
 3922 009a CE       		.byte	-50
 3923 009b C5       		.byte	-59
 3924 009c 70       		.byte	112
 3925 009d 4C       		.byte	76
 3926 009e 2A       		.byte	42
 3927 009f 5B       		.byte	91
 3928 00a0 07       		.byte	7
 3929 00a1 B8       		.byte	-72
 3930 00a2 B3       		.byte	-77
 3931 00a3 DC       		.byte	-36
 3932 00a4 38       		.byte	56
 3933 00a5 EC       		.byte	-20
 3934 00a6 C4       		.byte	-60
 3935 00a7 EB       		.byte	-21
 3936 00a8 AE       		.byte	-82
 3937 00a9 97       		.byte	-105
 3938 00aa DD       		.byte	-35
 3939 00ab D8       		.byte	-40
 3940 00ac 7F       		.byte	127
 3941 00ad 3D       		.byte	61
 3942 00ae 89       		.byte	-119
 3943 00af 85       		.byte	-123
 3944 00b0 00000000 		.space	16
 3944      00000000 
 3944      00000000 
 3944      00000000 
 3945 00c0 DD       		.byte	-35
 3946 00c1 AF       		.byte	-81
 3947 00c2 35       		.byte	53
 3948 00c3 A1       		.byte	-95
 3949 00c4 93       		.byte	-109
 3950 00c5 61       		.byte	97
 3951 00c6 7A       		.byte	122
 3952 00c7 BA       		.byte	-70
 3953 00c8 CC       		.byte	-52
 3954 00c9 41       		.byte	65
 3955 00ca 73       		.byte	115
 3956 00cb 49       		.byte	73
 3957 00cc AE       		.byte	-82
 3958 00cd 20       		.byte	32
 3959 00ce 41       		.byte	65
 3960 00cf 31       		.byte	49
 3961 00d0 12       		.byte	18
ARM GAS  C:\Users\dtjld\AppData\Local\Temp\cczibexU.s 			page 79


 3962 00d1 E6       		.byte	-26
 3963 00d2 FA       		.byte	-6
 3964 00d3 4E       		.byte	78
 3965 00d4 89       		.byte	-119
 3966 00d5 A9       		.byte	-87
 3967 00d6 7E       		.byte	126
 3968 00d7 A2       		.byte	-94
 3969 00d8 0A       		.byte	10
 3970 00d9 9E       		.byte	-98
 3971 00da EE       		.byte	-18
 3972 00db E6       		.byte	-26
 3973 00dc 4B       		.byte	75
 3974 00dd 55       		.byte	85
 3975 00de D3       		.byte	-45
 3976 00df 9A       		.byte	-102
 3977 00e0 21       		.byte	33
 3978 00e1 92       		.byte	-110
 3979 00e2 99       		.byte	-103
 3980 00e3 2A       		.byte	42
 3981 00e4 27       		.byte	39
 3982 00e5 4F       		.byte	79
 3983 00e6 C1       		.byte	-63
 3984 00e7 A8       		.byte	-88
 3985 00e8 36       		.byte	54
 3986 00e9 BA       		.byte	-70
 3987 00ea 3C       		.byte	60
 3988 00eb 23       		.byte	35
 3989 00ec A3       		.byte	-93
 3990 00ed FE       		.byte	-2
 3991 00ee EB       		.byte	-21
 3992 00ef BD       		.byte	-67
 3993 00f0 45       		.byte	69
 3994 00f1 4D       		.byte	77
 3995 00f2 44       		.byte	68
 3996 00f3 23       		.byte	35
 3997 00f4 64       		.byte	100
 3998 00f5 3C       		.byte	60
 3999 00f6 E8       		.byte	-24
 4000 00f7 0E       		.byte	14
 4001 00f8 2A       		.byte	42
 4002 00f9 9A       		.byte	-102
 4003 00fa C9       		.byte	-55
 4004 00fb 4F       		.byte	79
 4005 00fc A5       		.byte	-91
 4006 00fd 4C       		.byte	76
 4007 00fe A4       		.byte	-92
 4008 00ff 9F       		.byte	-97
 4009 0100 8E       		.byte	-114
 4010 0101 95       		.byte	-107
 4011 0102 9B       		.byte	-101
 4012 0103 75       		.byte	117
 4013 0104 DA       		.byte	-38
 4014 0105 E3       		.byte	-29
 4015 0106 13       		.byte	19
 4016 0107 DA       		.byte	-38
 4017 0108 8C       		.byte	-116
 4018 0109 F4       		.byte	-12
ARM GAS  C:\Users\dtjld\AppData\Local\Temp\cczibexU.s 			page 80


 4019 010a F7       		.byte	-9
 4020 010b 28       		.byte	40
 4021 010c 14       		.byte	20
 4022 010d FC       		.byte	-4
 4023 010e 14       		.byte	20
 4024 010f 3F       		.byte	63
 4025 0110 8F       		.byte	-113
 4026 0111 77       		.byte	119
 4027 0112 79       		.byte	121
 4028 0113 C6       		.byte	-58
 4029 0114 EB       		.byte	-21
 4030 0115 9F       		.byte	-97
 4031 0116 7F       		.byte	127
 4032 0117 A1       		.byte	-95
 4033 0118 72       		.byte	114
 4034 0119 99       		.byte	-103
 4035 011a AE       		.byte	-82
 4036 011b AD       		.byte	-83
 4037 011c B6       		.byte	-74
 4038 011d 88       		.byte	-120
 4039 011e 90       		.byte	-112
 4040 011f 18       		.byte	24
 4041 0120 50       		.byte	80
 4042 0121 1D       		.byte	29
 4043 0122 28       		.byte	40
 4044 0123 9E       		.byte	-98
 4045 0124 49       		.byte	73
 4046 0125 00       		.byte	0
 4047 0126 F7       		.byte	-9
 4048 0127 E4       		.byte	-28
 4049 0128 33       		.byte	51
 4050 0129 1B       		.byte	27
 4051 012a 99       		.byte	-103
 4052 012b DE       		.byte	-34
 4053 012c C4       		.byte	-60
 4054 012d B5       		.byte	-75
 4055 012e 43       		.byte	67
 4056 012f 3A       		.byte	58
 4057 0130 C7       		.byte	-57
 4058 0131 D3       		.byte	-45
 4059 0132 29       		.byte	41
 4060 0133 EE       		.byte	-18
 4061 0134 B6       		.byte	-74
 4062 0135 DD       		.byte	-35
 4063 0136 26       		.byte	38
 4064 0137 54       		.byte	84
 4065 0138 5E       		.byte	94
 4066 0139 96       		.byte	-106
 4067 013a E5       		.byte	-27
 4068 013b 5B       		.byte	91
 4069 013c 87       		.byte	-121
 4070 013d 4B       		.byte	75
 4071 013e E9       		.byte	-23
 4072 013f 09       		.byte	9
 4073 0140 E7       		.byte	-25
 4074 0141 18       		.byte	24
 4075 0142 48       		.byte	72
ARM GAS  C:\Users\dtjld\AppData\Local\Temp\cczibexU.s 			page 81


 4076 0143 3D       		.byte	61
 4077 0144 0C       		.byte	12
 4078 0145 E7       		.byte	-25
 4079 0146 69       		.byte	105
 4080 0147 64       		.byte	100
 4081 0148 4E       		.byte	78
 4082 0149 2E       		.byte	46
 4083 014a 42       		.byte	66
 4084 014b C7       		.byte	-57
 4085 014c BC       		.byte	-68
 4086 014d 15       		.byte	21
 4087 014e B4       		.byte	-76
 4088 014f 63       		.byte	99
 4089 0150 8E       		.byte	-114
 4090 0151 1F       		.byte	31
 4091 0152 98       		.byte	-104
 4092 0153 B1       		.byte	-79
 4093 0154 3B       		.byte	59
 4094 0155 20       		.byte	32
 4095 0156 44       		.byte	68
 4096 0157 28       		.byte	40
 4097 0158 56       		.byte	86
 4098 0159 32       		.byte	50
 4099 015a A8       		.byte	-88
 4100 015b 03       		.byte	3
 4101 015c AF       		.byte	-81
 4102 015d A9       		.byte	-87
 4103 015e 73       		.byte	115
 4104 015f EB       		.byte	-21
 4105 0160 DE       		.byte	-34
 4106 0161 0F       		.byte	15
 4107 0162 F2       		.byte	-14
 4108 0163 44       		.byte	68
 4109 0164 87       		.byte	-121
 4110 0165 7E       		.byte	126
 4111 0166 A6       		.byte	-90
 4112 0167 0A       		.byte	10
 4113 0168 4C       		.byte	76
 4114 0169 B0       		.byte	-80
 4115 016a 43       		.byte	67
 4116 016b 2C       		.byte	44
 4117 016c E5       		.byte	-27
 4118 016d 77       		.byte	119
 4119 016e C3       		.byte	-61
 4120 016f 1B       		.byte	27
 4121 0170 EB       		.byte	-21
 4122 0171 00       		.byte	0
 4123 0172 9C       		.byte	-100
 4124 0173 5C       		.byte	92
 4125 0174 2C       		.byte	44
 4126 0175 49       		.byte	73
 4127 0176 AA       		.byte	-86
 4128 0177 2E       		.byte	46
 4129 0178 4E       		.byte	78
 4130 0179 AD       		.byte	-83
 4131 017a B2       		.byte	-78
 4132 017b 17       		.byte	23
ARM GAS  C:\Users\dtjld\AppData\Local\Temp\cczibexU.s 			page 82


 4133 017c AD       		.byte	-83
 4134 017d 8C       		.byte	-116
 4135 017e C0       		.byte	-64
 4136 017f 9B       		.byte	-101
 4137              		.section	.rodata
 4138              		.align	2
 4139              	.LC0:
 4140 0000 42756666 		.ascii	"Buffer allocation failed\012\000"
 4140      65722061 
 4140      6C6C6F63 
 4140      6174696F 
 4140      6E206661 
 4141 001a 0000     		.align	2
 4142              	.LC1:
 4143 001c 20205348 		.ascii	"  SHA-%d test #%d: \000"
 4143      412D2564 
 4143      20746573 
 4143      74202325 
 4143      643A2000 
 4144              		.align	2
 4145              	.LC2:
 4146 0030 70617373 		.ascii	"passed\012\000"
 4146      65640A00 
 4147              		.align	2
 4148              	.LC3:
 4149 0038 0A00     		.ascii	"\012\000"
 4150 003a 0000     		.align	2
 4151              	.LC4:
 4152 003c 6661696C 		.ascii	"failed\012\000"
 4152      65640A00 
 4153              		.section	.text.mbedtls_sha512_self_test,"ax",%progbits
 4154              		.align	1
 4155              		.global	mbedtls_sha512_self_test
 4156              		.syntax unified
 4157              		.thumb
 4158              		.thumb_func
 4159              		.fpu fpv4-sp-d16
 4161              	mbedtls_sha512_self_test:
 4162              	.LFB16:
 481:C:/Users/dtjld/workspace/AIoT/src/LiteOS_Lab/iot_link/network/dtls/mbedtls/mbedtls-2.16.2/library\sha512.c **** #endif
 482:C:/Users/dtjld/workspace/AIoT/src/LiteOS_Lab/iot_link/network/dtls/mbedtls/mbedtls-2.16.2/library\sha512.c **** 
 483:C:/Users/dtjld/workspace/AIoT/src/LiteOS_Lab/iot_link/network/dtls/mbedtls/mbedtls-2.16.2/library\sha512.c **** #if defined(MBEDTLS_SELF_TEST)
 484:C:/Users/dtjld/workspace/AIoT/src/LiteOS_Lab/iot_link/network/dtls/mbedtls/mbedtls-2.16.2/library\sha512.c **** 
 485:C:/Users/dtjld/workspace/AIoT/src/LiteOS_Lab/iot_link/network/dtls/mbedtls/mbedtls-2.16.2/library\sha512.c **** /*
 486:C:/Users/dtjld/workspace/AIoT/src/LiteOS_Lab/iot_link/network/dtls/mbedtls/mbedtls-2.16.2/library\sha512.c ****  * FIPS-180-2 test vectors
 487:C:/Users/dtjld/workspace/AIoT/src/LiteOS_Lab/iot_link/network/dtls/mbedtls/mbedtls-2.16.2/library\sha512.c ****  */
 488:C:/Users/dtjld/workspace/AIoT/src/LiteOS_Lab/iot_link/network/dtls/mbedtls/mbedtls-2.16.2/library\sha512.c **** static const unsigned char sha512_test_buf[3][113] =
 489:C:/Users/dtjld/workspace/AIoT/src/LiteOS_Lab/iot_link/network/dtls/mbedtls/mbedtls-2.16.2/library\sha512.c **** {
 490:C:/Users/dtjld/workspace/AIoT/src/LiteOS_Lab/iot_link/network/dtls/mbedtls/mbedtls-2.16.2/library\sha512.c ****     { "abc" },
 491:C:/Users/dtjld/workspace/AIoT/src/LiteOS_Lab/iot_link/network/dtls/mbedtls/mbedtls-2.16.2/library\sha512.c ****     { "abcdefghbcdefghicdefghijdefghijkefghijklfghijklmghijklmn"
 492:C:/Users/dtjld/workspace/AIoT/src/LiteOS_Lab/iot_link/network/dtls/mbedtls/mbedtls-2.16.2/library\sha512.c ****       "hijklmnoijklmnopjklmnopqklmnopqrlmnopqrsmnopqrstnopqrstu" },
 493:C:/Users/dtjld/workspace/AIoT/src/LiteOS_Lab/iot_link/network/dtls/mbedtls/mbedtls-2.16.2/library\sha512.c ****     { "" }
 494:C:/Users/dtjld/workspace/AIoT/src/LiteOS_Lab/iot_link/network/dtls/mbedtls/mbedtls-2.16.2/library\sha512.c **** };
 495:C:/Users/dtjld/workspace/AIoT/src/LiteOS_Lab/iot_link/network/dtls/mbedtls/mbedtls-2.16.2/library\sha512.c **** 
 496:C:/Users/dtjld/workspace/AIoT/src/LiteOS_Lab/iot_link/network/dtls/mbedtls/mbedtls-2.16.2/library\sha512.c **** static const size_t sha512_test_buflen[3] =
 497:C:/Users/dtjld/workspace/AIoT/src/LiteOS_Lab/iot_link/network/dtls/mbedtls/mbedtls-2.16.2/library\sha512.c **** {
 498:C:/Users/dtjld/workspace/AIoT/src/LiteOS_Lab/iot_link/network/dtls/mbedtls/mbedtls-2.16.2/library\sha512.c ****     3, 112, 1000
ARM GAS  C:\Users\dtjld\AppData\Local\Temp\cczibexU.s 			page 83


 499:C:/Users/dtjld/workspace/AIoT/src/LiteOS_Lab/iot_link/network/dtls/mbedtls/mbedtls-2.16.2/library\sha512.c **** };
 500:C:/Users/dtjld/workspace/AIoT/src/LiteOS_Lab/iot_link/network/dtls/mbedtls/mbedtls-2.16.2/library\sha512.c **** 
 501:C:/Users/dtjld/workspace/AIoT/src/LiteOS_Lab/iot_link/network/dtls/mbedtls/mbedtls-2.16.2/library\sha512.c **** static const unsigned char sha512_test_sum[6][64] =
 502:C:/Users/dtjld/workspace/AIoT/src/LiteOS_Lab/iot_link/network/dtls/mbedtls/mbedtls-2.16.2/library\sha512.c **** {
 503:C:/Users/dtjld/workspace/AIoT/src/LiteOS_Lab/iot_link/network/dtls/mbedtls/mbedtls-2.16.2/library\sha512.c ****     /*
 504:C:/Users/dtjld/workspace/AIoT/src/LiteOS_Lab/iot_link/network/dtls/mbedtls/mbedtls-2.16.2/library\sha512.c ****      * SHA-384 test vectors
 505:C:/Users/dtjld/workspace/AIoT/src/LiteOS_Lab/iot_link/network/dtls/mbedtls/mbedtls-2.16.2/library\sha512.c ****      */
 506:C:/Users/dtjld/workspace/AIoT/src/LiteOS_Lab/iot_link/network/dtls/mbedtls/mbedtls-2.16.2/library\sha512.c ****     { 0xCB, 0x00, 0x75, 0x3F, 0x45, 0xA3, 0x5E, 0x8B,
 507:C:/Users/dtjld/workspace/AIoT/src/LiteOS_Lab/iot_link/network/dtls/mbedtls/mbedtls-2.16.2/library\sha512.c ****       0xB5, 0xA0, 0x3D, 0x69, 0x9A, 0xC6, 0x50, 0x07,
 508:C:/Users/dtjld/workspace/AIoT/src/LiteOS_Lab/iot_link/network/dtls/mbedtls/mbedtls-2.16.2/library\sha512.c ****       0x27, 0x2C, 0x32, 0xAB, 0x0E, 0xDE, 0xD1, 0x63,
 509:C:/Users/dtjld/workspace/AIoT/src/LiteOS_Lab/iot_link/network/dtls/mbedtls/mbedtls-2.16.2/library\sha512.c ****       0x1A, 0x8B, 0x60, 0x5A, 0x43, 0xFF, 0x5B, 0xED,
 510:C:/Users/dtjld/workspace/AIoT/src/LiteOS_Lab/iot_link/network/dtls/mbedtls/mbedtls-2.16.2/library\sha512.c ****       0x80, 0x86, 0x07, 0x2B, 0xA1, 0xE7, 0xCC, 0x23,
 511:C:/Users/dtjld/workspace/AIoT/src/LiteOS_Lab/iot_link/network/dtls/mbedtls/mbedtls-2.16.2/library\sha512.c ****       0x58, 0xBA, 0xEC, 0xA1, 0x34, 0xC8, 0x25, 0xA7 },
 512:C:/Users/dtjld/workspace/AIoT/src/LiteOS_Lab/iot_link/network/dtls/mbedtls/mbedtls-2.16.2/library\sha512.c ****     { 0x09, 0x33, 0x0C, 0x33, 0xF7, 0x11, 0x47, 0xE8,
 513:C:/Users/dtjld/workspace/AIoT/src/LiteOS_Lab/iot_link/network/dtls/mbedtls/mbedtls-2.16.2/library\sha512.c ****       0x3D, 0x19, 0x2F, 0xC7, 0x82, 0xCD, 0x1B, 0x47,
 514:C:/Users/dtjld/workspace/AIoT/src/LiteOS_Lab/iot_link/network/dtls/mbedtls/mbedtls-2.16.2/library\sha512.c ****       0x53, 0x11, 0x1B, 0x17, 0x3B, 0x3B, 0x05, 0xD2,
 515:C:/Users/dtjld/workspace/AIoT/src/LiteOS_Lab/iot_link/network/dtls/mbedtls/mbedtls-2.16.2/library\sha512.c ****       0x2F, 0xA0, 0x80, 0x86, 0xE3, 0xB0, 0xF7, 0x12,
 516:C:/Users/dtjld/workspace/AIoT/src/LiteOS_Lab/iot_link/network/dtls/mbedtls/mbedtls-2.16.2/library\sha512.c ****       0xFC, 0xC7, 0xC7, 0x1A, 0x55, 0x7E, 0x2D, 0xB9,
 517:C:/Users/dtjld/workspace/AIoT/src/LiteOS_Lab/iot_link/network/dtls/mbedtls/mbedtls-2.16.2/library\sha512.c ****       0x66, 0xC3, 0xE9, 0xFA, 0x91, 0x74, 0x60, 0x39 },
 518:C:/Users/dtjld/workspace/AIoT/src/LiteOS_Lab/iot_link/network/dtls/mbedtls/mbedtls-2.16.2/library\sha512.c ****     { 0x9D, 0x0E, 0x18, 0x09, 0x71, 0x64, 0x74, 0xCB,
 519:C:/Users/dtjld/workspace/AIoT/src/LiteOS_Lab/iot_link/network/dtls/mbedtls/mbedtls-2.16.2/library\sha512.c ****       0x08, 0x6E, 0x83, 0x4E, 0x31, 0x0A, 0x4A, 0x1C,
 520:C:/Users/dtjld/workspace/AIoT/src/LiteOS_Lab/iot_link/network/dtls/mbedtls/mbedtls-2.16.2/library\sha512.c ****       0xED, 0x14, 0x9E, 0x9C, 0x00, 0xF2, 0x48, 0x52,
 521:C:/Users/dtjld/workspace/AIoT/src/LiteOS_Lab/iot_link/network/dtls/mbedtls/mbedtls-2.16.2/library\sha512.c ****       0x79, 0x72, 0xCE, 0xC5, 0x70, 0x4C, 0x2A, 0x5B,
 522:C:/Users/dtjld/workspace/AIoT/src/LiteOS_Lab/iot_link/network/dtls/mbedtls/mbedtls-2.16.2/library\sha512.c ****       0x07, 0xB8, 0xB3, 0xDC, 0x38, 0xEC, 0xC4, 0xEB,
 523:C:/Users/dtjld/workspace/AIoT/src/LiteOS_Lab/iot_link/network/dtls/mbedtls/mbedtls-2.16.2/library\sha512.c ****       0xAE, 0x97, 0xDD, 0xD8, 0x7F, 0x3D, 0x89, 0x85 },
 524:C:/Users/dtjld/workspace/AIoT/src/LiteOS_Lab/iot_link/network/dtls/mbedtls/mbedtls-2.16.2/library\sha512.c **** 
 525:C:/Users/dtjld/workspace/AIoT/src/LiteOS_Lab/iot_link/network/dtls/mbedtls/mbedtls-2.16.2/library\sha512.c ****     /*
 526:C:/Users/dtjld/workspace/AIoT/src/LiteOS_Lab/iot_link/network/dtls/mbedtls/mbedtls-2.16.2/library\sha512.c ****      * SHA-512 test vectors
 527:C:/Users/dtjld/workspace/AIoT/src/LiteOS_Lab/iot_link/network/dtls/mbedtls/mbedtls-2.16.2/library\sha512.c ****      */
 528:C:/Users/dtjld/workspace/AIoT/src/LiteOS_Lab/iot_link/network/dtls/mbedtls/mbedtls-2.16.2/library\sha512.c ****     { 0xDD, 0xAF, 0x35, 0xA1, 0x93, 0x61, 0x7A, 0xBA,
 529:C:/Users/dtjld/workspace/AIoT/src/LiteOS_Lab/iot_link/network/dtls/mbedtls/mbedtls-2.16.2/library\sha512.c ****       0xCC, 0x41, 0x73, 0x49, 0xAE, 0x20, 0x41, 0x31,
 530:C:/Users/dtjld/workspace/AIoT/src/LiteOS_Lab/iot_link/network/dtls/mbedtls/mbedtls-2.16.2/library\sha512.c ****       0x12, 0xE6, 0xFA, 0x4E, 0x89, 0xA9, 0x7E, 0xA2,
 531:C:/Users/dtjld/workspace/AIoT/src/LiteOS_Lab/iot_link/network/dtls/mbedtls/mbedtls-2.16.2/library\sha512.c ****       0x0A, 0x9E, 0xEE, 0xE6, 0x4B, 0x55, 0xD3, 0x9A,
 532:C:/Users/dtjld/workspace/AIoT/src/LiteOS_Lab/iot_link/network/dtls/mbedtls/mbedtls-2.16.2/library\sha512.c ****       0x21, 0x92, 0x99, 0x2A, 0x27, 0x4F, 0xC1, 0xA8,
 533:C:/Users/dtjld/workspace/AIoT/src/LiteOS_Lab/iot_link/network/dtls/mbedtls/mbedtls-2.16.2/library\sha512.c ****       0x36, 0xBA, 0x3C, 0x23, 0xA3, 0xFE, 0xEB, 0xBD,
 534:C:/Users/dtjld/workspace/AIoT/src/LiteOS_Lab/iot_link/network/dtls/mbedtls/mbedtls-2.16.2/library\sha512.c ****       0x45, 0x4D, 0x44, 0x23, 0x64, 0x3C, 0xE8, 0x0E,
 535:C:/Users/dtjld/workspace/AIoT/src/LiteOS_Lab/iot_link/network/dtls/mbedtls/mbedtls-2.16.2/library\sha512.c ****       0x2A, 0x9A, 0xC9, 0x4F, 0xA5, 0x4C, 0xA4, 0x9F },
 536:C:/Users/dtjld/workspace/AIoT/src/LiteOS_Lab/iot_link/network/dtls/mbedtls/mbedtls-2.16.2/library\sha512.c ****     { 0x8E, 0x95, 0x9B, 0x75, 0xDA, 0xE3, 0x13, 0xDA,
 537:C:/Users/dtjld/workspace/AIoT/src/LiteOS_Lab/iot_link/network/dtls/mbedtls/mbedtls-2.16.2/library\sha512.c ****       0x8C, 0xF4, 0xF7, 0x28, 0x14, 0xFC, 0x14, 0x3F,
 538:C:/Users/dtjld/workspace/AIoT/src/LiteOS_Lab/iot_link/network/dtls/mbedtls/mbedtls-2.16.2/library\sha512.c ****       0x8F, 0x77, 0x79, 0xC6, 0xEB, 0x9F, 0x7F, 0xA1,
 539:C:/Users/dtjld/workspace/AIoT/src/LiteOS_Lab/iot_link/network/dtls/mbedtls/mbedtls-2.16.2/library\sha512.c ****       0x72, 0x99, 0xAE, 0xAD, 0xB6, 0x88, 0x90, 0x18,
 540:C:/Users/dtjld/workspace/AIoT/src/LiteOS_Lab/iot_link/network/dtls/mbedtls/mbedtls-2.16.2/library\sha512.c ****       0x50, 0x1D, 0x28, 0x9E, 0x49, 0x00, 0xF7, 0xE4,
 541:C:/Users/dtjld/workspace/AIoT/src/LiteOS_Lab/iot_link/network/dtls/mbedtls/mbedtls-2.16.2/library\sha512.c ****       0x33, 0x1B, 0x99, 0xDE, 0xC4, 0xB5, 0x43, 0x3A,
 542:C:/Users/dtjld/workspace/AIoT/src/LiteOS_Lab/iot_link/network/dtls/mbedtls/mbedtls-2.16.2/library\sha512.c ****       0xC7, 0xD3, 0x29, 0xEE, 0xB6, 0xDD, 0x26, 0x54,
 543:C:/Users/dtjld/workspace/AIoT/src/LiteOS_Lab/iot_link/network/dtls/mbedtls/mbedtls-2.16.2/library\sha512.c ****       0x5E, 0x96, 0xE5, 0x5B, 0x87, 0x4B, 0xE9, 0x09 },
 544:C:/Users/dtjld/workspace/AIoT/src/LiteOS_Lab/iot_link/network/dtls/mbedtls/mbedtls-2.16.2/library\sha512.c ****     { 0xE7, 0x18, 0x48, 0x3D, 0x0C, 0xE7, 0x69, 0x64,
 545:C:/Users/dtjld/workspace/AIoT/src/LiteOS_Lab/iot_link/network/dtls/mbedtls/mbedtls-2.16.2/library\sha512.c ****       0x4E, 0x2E, 0x42, 0xC7, 0xBC, 0x15, 0xB4, 0x63,
 546:C:/Users/dtjld/workspace/AIoT/src/LiteOS_Lab/iot_link/network/dtls/mbedtls/mbedtls-2.16.2/library\sha512.c ****       0x8E, 0x1F, 0x98, 0xB1, 0x3B, 0x20, 0x44, 0x28,
 547:C:/Users/dtjld/workspace/AIoT/src/LiteOS_Lab/iot_link/network/dtls/mbedtls/mbedtls-2.16.2/library\sha512.c ****       0x56, 0x32, 0xA8, 0x03, 0xAF, 0xA9, 0x73, 0xEB,
 548:C:/Users/dtjld/workspace/AIoT/src/LiteOS_Lab/iot_link/network/dtls/mbedtls/mbedtls-2.16.2/library\sha512.c ****       0xDE, 0x0F, 0xF2, 0x44, 0x87, 0x7E, 0xA6, 0x0A,
 549:C:/Users/dtjld/workspace/AIoT/src/LiteOS_Lab/iot_link/network/dtls/mbedtls/mbedtls-2.16.2/library\sha512.c ****       0x4C, 0xB0, 0x43, 0x2C, 0xE5, 0x77, 0xC3, 0x1B,
 550:C:/Users/dtjld/workspace/AIoT/src/LiteOS_Lab/iot_link/network/dtls/mbedtls/mbedtls-2.16.2/library\sha512.c ****       0xEB, 0x00, 0x9C, 0x5C, 0x2C, 0x49, 0xAA, 0x2E,
 551:C:/Users/dtjld/workspace/AIoT/src/LiteOS_Lab/iot_link/network/dtls/mbedtls/mbedtls-2.16.2/library\sha512.c ****       0x4E, 0xAD, 0xB2, 0x17, 0xAD, 0x8C, 0xC0, 0x9B }
 552:C:/Users/dtjld/workspace/AIoT/src/LiteOS_Lab/iot_link/network/dtls/mbedtls/mbedtls-2.16.2/library\sha512.c **** };
 553:C:/Users/dtjld/workspace/AIoT/src/LiteOS_Lab/iot_link/network/dtls/mbedtls/mbedtls-2.16.2/library\sha512.c **** 
 554:C:/Users/dtjld/workspace/AIoT/src/LiteOS_Lab/iot_link/network/dtls/mbedtls/mbedtls-2.16.2/library\sha512.c **** /*
 555:C:/Users/dtjld/workspace/AIoT/src/LiteOS_Lab/iot_link/network/dtls/mbedtls/mbedtls-2.16.2/library\sha512.c ****  * Checkup routine
ARM GAS  C:\Users\dtjld\AppData\Local\Temp\cczibexU.s 			page 84


 556:C:/Users/dtjld/workspace/AIoT/src/LiteOS_Lab/iot_link/network/dtls/mbedtls/mbedtls-2.16.2/library\sha512.c ****  */
 557:C:/Users/dtjld/workspace/AIoT/src/LiteOS_Lab/iot_link/network/dtls/mbedtls/mbedtls-2.16.2/library\sha512.c **** int mbedtls_sha512_self_test( int verbose )
 558:C:/Users/dtjld/workspace/AIoT/src/LiteOS_Lab/iot_link/network/dtls/mbedtls/mbedtls-2.16.2/library\sha512.c **** {
 4163              		.loc 1 558 0
 4164              		.cfi_startproc
 4165              		@ args = 0, pretend = 0, frame = 312
 4166              		@ frame_needed = 1, uses_anonymous_args = 0
 4167 0000 80B5     		push	{r7, lr}
 4168              	.LCFI67:
 4169              		.cfi_def_cfa_offset 8
 4170              		.cfi_offset 7, -8
 4171              		.cfi_offset 14, -4
 4172 0002 CEB0     		sub	sp, sp, #312
 4173              	.LCFI68:
 4174              		.cfi_def_cfa_offset 320
 4175 0004 00AF     		add	r7, sp, #0
 4176              	.LCFI69:
 4177              		.cfi_def_cfa_register 7
 4178 0006 3B1D     		adds	r3, r7, #4
 4179 0008 1860     		str	r0, [r3]
 559:C:/Users/dtjld/workspace/AIoT/src/LiteOS_Lab/iot_link/network/dtls/mbedtls/mbedtls-2.16.2/library\sha512.c ****     int i, j, k, buflen, ret = 0;
 4180              		.loc 1 559 0
 4181 000a 0023     		movs	r3, #0
 4182 000c C7F82C31 		str	r3, [r7, #300]
 560:C:/Users/dtjld/workspace/AIoT/src/LiteOS_Lab/iot_link/network/dtls/mbedtls/mbedtls-2.16.2/library\sha512.c ****     unsigned char *buf;
 561:C:/Users/dtjld/workspace/AIoT/src/LiteOS_Lab/iot_link/network/dtls/mbedtls/mbedtls-2.16.2/library\sha512.c ****     unsigned char sha512sum[64];
 562:C:/Users/dtjld/workspace/AIoT/src/LiteOS_Lab/iot_link/network/dtls/mbedtls/mbedtls-2.16.2/library\sha512.c ****     mbedtls_sha512_context ctx;
 563:C:/Users/dtjld/workspace/AIoT/src/LiteOS_Lab/iot_link/network/dtls/mbedtls/mbedtls-2.16.2/library\sha512.c **** 
 564:C:/Users/dtjld/workspace/AIoT/src/LiteOS_Lab/iot_link/network/dtls/mbedtls/mbedtls-2.16.2/library\sha512.c ****     buf = mbedtls_calloc( 1024, sizeof(unsigned char) );
 4183              		.loc 1 564 0
 4184 0010 0121     		movs	r1, #1
 4185 0012 4FF48060 		mov	r0, #1024
 4186 0016 FFF7FEFF 		bl	mbedtls_calloc
 4187 001a C7F82801 		str	r0, [r7, #296]
 565:C:/Users/dtjld/workspace/AIoT/src/LiteOS_Lab/iot_link/network/dtls/mbedtls/mbedtls-2.16.2/library\sha512.c ****     if( NULL == buf )
 4188              		.loc 1 565 0
 4189 001e D7F82831 		ldr	r3, [r7, #296]
 4190 0022 002B     		cmp	r3, #0
 4191 0024 09D1     		bne	.L62
 566:C:/Users/dtjld/workspace/AIoT/src/LiteOS_Lab/iot_link/network/dtls/mbedtls/mbedtls-2.16.2/library\sha512.c ****     {
 567:C:/Users/dtjld/workspace/AIoT/src/LiteOS_Lab/iot_link/network/dtls/mbedtls/mbedtls-2.16.2/library\sha512.c ****         if( verbose != 0 )
 4192              		.loc 1 567 0
 4193 0026 3B1D     		adds	r3, r7, #4
 4194 0028 1B68     		ldr	r3, [r3]
 4195 002a 002B     		cmp	r3, #0
 4196 002c 03D0     		beq	.L63
 568:C:/Users/dtjld/workspace/AIoT/src/LiteOS_Lab/iot_link/network/dtls/mbedtls/mbedtls-2.16.2/library\sha512.c ****             mbedtls_printf( "Buffer allocation failed\n" );
 4197              		.loc 1 568 0
 4198 002e 764B     		ldr	r3, .L87
 4199 0030 1B68     		ldr	r3, [r3]
 4200 0032 7648     		ldr	r0, .L87+4
 4201 0034 9847     		blx	r3
 4202              	.LVL0:
 4203              	.L63:
 569:C:/Users/dtjld/workspace/AIoT/src/LiteOS_Lab/iot_link/network/dtls/mbedtls/mbedtls-2.16.2/library\sha512.c **** 
 570:C:/Users/dtjld/workspace/AIoT/src/LiteOS_Lab/iot_link/network/dtls/mbedtls/mbedtls-2.16.2/library\sha512.c ****         return( 1 );
 4204              		.loc 1 570 0
ARM GAS  C:\Users\dtjld\AppData\Local\Temp\cczibexU.s 			page 85


 4205 0036 0123     		movs	r3, #1
 4206 0038 E0E0     		b	.L80
 4207              	.L62:
 571:C:/Users/dtjld/workspace/AIoT/src/LiteOS_Lab/iot_link/network/dtls/mbedtls/mbedtls-2.16.2/library\sha512.c ****     }
 572:C:/Users/dtjld/workspace/AIoT/src/LiteOS_Lab/iot_link/network/dtls/mbedtls/mbedtls-2.16.2/library\sha512.c **** 
 573:C:/Users/dtjld/workspace/AIoT/src/LiteOS_Lab/iot_link/network/dtls/mbedtls/mbedtls-2.16.2/library\sha512.c ****     mbedtls_sha512_init( &ctx );
 4208              		.loc 1 573 0
 4209 003a 07F10803 		add	r3, r7, #8
 4210 003e 1846     		mov	r0, r3
 4211 0040 FFF7FEFF 		bl	mbedtls_sha512_init
 574:C:/Users/dtjld/workspace/AIoT/src/LiteOS_Lab/iot_link/network/dtls/mbedtls/mbedtls-2.16.2/library\sha512.c **** 
 575:C:/Users/dtjld/workspace/AIoT/src/LiteOS_Lab/iot_link/network/dtls/mbedtls/mbedtls-2.16.2/library\sha512.c ****     for( i = 0; i < 6; i++ )
 4212              		.loc 1 575 0
 4213 0044 0023     		movs	r3, #0
 4214 0046 C7F83431 		str	r3, [r7, #308]
 4215 004a ABE0     		b	.L65
 4216              	.L77:
 576:C:/Users/dtjld/workspace/AIoT/src/LiteOS_Lab/iot_link/network/dtls/mbedtls/mbedtls-2.16.2/library\sha512.c ****     {
 577:C:/Users/dtjld/workspace/AIoT/src/LiteOS_Lab/iot_link/network/dtls/mbedtls/mbedtls-2.16.2/library\sha512.c ****         j = i % 3;
 4217              		.loc 1 577 0
 4218 004c D7F83421 		ldr	r2, [r7, #308]
 4219 0050 6F4B     		ldr	r3, .L87+8
 4220 0052 83FB0231 		smull	r3, r1, r3, r2
 4221 0056 D317     		asrs	r3, r2, #31
 4222 0058 C91A     		subs	r1, r1, r3
 4223 005a 0B46     		mov	r3, r1
 4224 005c 5B00     		lsls	r3, r3, #1
 4225 005e 0B44     		add	r3, r3, r1
 4226 0060 D31A     		subs	r3, r2, r3
 4227 0062 C7F83031 		str	r3, [r7, #304]
 578:C:/Users/dtjld/workspace/AIoT/src/LiteOS_Lab/iot_link/network/dtls/mbedtls/mbedtls-2.16.2/library\sha512.c ****         k = i < 3;
 4228              		.loc 1 578 0
 4229 0066 D7F83431 		ldr	r3, [r7, #308]
 4230 006a 022B     		cmp	r3, #2
 4231 006c D4BF     		ite	le
 4232 006e 0123     		movle	r3, #1
 4233 0070 0023     		movgt	r3, #0
 4234 0072 DBB2     		uxtb	r3, r3
 4235 0074 C7F82431 		str	r3, [r7, #292]
 579:C:/Users/dtjld/workspace/AIoT/src/LiteOS_Lab/iot_link/network/dtls/mbedtls/mbedtls-2.16.2/library\sha512.c **** 
 580:C:/Users/dtjld/workspace/AIoT/src/LiteOS_Lab/iot_link/network/dtls/mbedtls/mbedtls-2.16.2/library\sha512.c ****         if( verbose != 0 )
 4236              		.loc 1 580 0
 4237 0078 3B1D     		adds	r3, r7, #4
 4238 007a 1B68     		ldr	r3, [r3]
 4239 007c 002B     		cmp	r3, #0
 4240 007e 0BD0     		beq	.L66
