ARM GAS  C:\Users\dtjld\AppData\Local\Temp\ccnoWzb8.s 			page 1


   1              		.cpu cortex-m4
   2              		.eabi_attribute 27, 1
   3              		.eabi_attribute 28, 1
   4              		.eabi_attribute 20, 1
   5              		.eabi_attribute 21, 1
   6              		.eabi_attribute 23, 3
   7              		.eabi_attribute 24, 1
   8              		.eabi_attribute 25, 1
   9              		.eabi_attribute 26, 1
  10              		.eabi_attribute 30, 6
  11              		.eabi_attribute 34, 1
  12              		.eabi_attribute 18, 4
  13              		.file	"ssl_ticket.c"
  14              		.text
  15              	.Ltext0:
  16              		.cfi_sections	.debug_frame
  17              		.section	.text.mbedtls_cipher_get_key_bitlen,"ax",%progbits
  18              		.align	1
  19              		.syntax unified
  20              		.thumb
  21              		.thumb_func
  22              		.fpu fpv4-sp-d16
  24              	mbedtls_cipher_get_key_bitlen:
  25              	.LFB11:
  26              		.file 1 "C:/Users/dtjld/workspace/AIoT/src/LiteOS_Lab/iot_link/network/dtls/mbedtls/mbedtls-2.16.2
   1:C:/Users/dtjld/workspace/AIoT/src/LiteOS_Lab/iot_link/network/dtls/mbedtls/mbedtls-2.16.2/include/mbedtls\cipher.h **** /**
   2:C:/Users/dtjld/workspace/AIoT/src/LiteOS_Lab/iot_link/network/dtls/mbedtls/mbedtls-2.16.2/include/mbedtls\cipher.h ****  * \file cipher.h
   3:C:/Users/dtjld/workspace/AIoT/src/LiteOS_Lab/iot_link/network/dtls/mbedtls/mbedtls-2.16.2/include/mbedtls\cipher.h ****  *
   4:C:/Users/dtjld/workspace/AIoT/src/LiteOS_Lab/iot_link/network/dtls/mbedtls/mbedtls-2.16.2/include/mbedtls\cipher.h ****  * \brief This file contains an abstraction interface for use with the cipher
   5:C:/Users/dtjld/workspace/AIoT/src/LiteOS_Lab/iot_link/network/dtls/mbedtls/mbedtls-2.16.2/include/mbedtls\cipher.h ****  * primitives provided by the library. It provides a common interface to all of
   6:C:/Users/dtjld/workspace/AIoT/src/LiteOS_Lab/iot_link/network/dtls/mbedtls/mbedtls-2.16.2/include/mbedtls\cipher.h ****  * the available cipher operations.
   7:C:/Users/dtjld/workspace/AIoT/src/LiteOS_Lab/iot_link/network/dtls/mbedtls/mbedtls-2.16.2/include/mbedtls\cipher.h ****  *
   8:C:/Users/dtjld/workspace/AIoT/src/LiteOS_Lab/iot_link/network/dtls/mbedtls/mbedtls-2.16.2/include/mbedtls\cipher.h ****  * \author Adriaan de Jong <dejong@fox-it.com>
   9:C:/Users/dtjld/workspace/AIoT/src/LiteOS_Lab/iot_link/network/dtls/mbedtls/mbedtls-2.16.2/include/mbedtls\cipher.h ****  */
  10:C:/Users/dtjld/workspace/AIoT/src/LiteOS_Lab/iot_link/network/dtls/mbedtls/mbedtls-2.16.2/include/mbedtls\cipher.h **** /*
  11:C:/Users/dtjld/workspace/AIoT/src/LiteOS_Lab/iot_link/network/dtls/mbedtls/mbedtls-2.16.2/include/mbedtls\cipher.h ****  *  Copyright (C) 2006-2018, Arm Limited (or its affiliates), All Rights Reserved
  12:C:/Users/dtjld/workspace/AIoT/src/LiteOS_Lab/iot_link/network/dtls/mbedtls/mbedtls-2.16.2/include/mbedtls\cipher.h ****  *  SPDX-License-Identifier: Apache-2.0
  13:C:/Users/dtjld/workspace/AIoT/src/LiteOS_Lab/iot_link/network/dtls/mbedtls/mbedtls-2.16.2/include/mbedtls\cipher.h ****  *
  14:C:/Users/dtjld/workspace/AIoT/src/LiteOS_Lab/iot_link/network/dtls/mbedtls/mbedtls-2.16.2/include/mbedtls\cipher.h ****  *  Licensed under the Apache License, Version 2.0 (the "License"); you may
  15:C:/Users/dtjld/workspace/AIoT/src/LiteOS_Lab/iot_link/network/dtls/mbedtls/mbedtls-2.16.2/include/mbedtls\cipher.h ****  *  not use this file except in compliance with the License.
  16:C:/Users/dtjld/workspace/AIoT/src/LiteOS_Lab/iot_link/network/dtls/mbedtls/mbedtls-2.16.2/include/mbedtls\cipher.h ****  *  You may obtain a copy of the License at
  17:C:/Users/dtjld/workspace/AIoT/src/LiteOS_Lab/iot_link/network/dtls/mbedtls/mbedtls-2.16.2/include/mbedtls\cipher.h ****  *
  18:C:/Users/dtjld/workspace/AIoT/src/LiteOS_Lab/iot_link/network/dtls/mbedtls/mbedtls-2.16.2/include/mbedtls\cipher.h ****  *  http://www.apache.org/licenses/LICENSE-2.0
  19:C:/Users/dtjld/workspace/AIoT/src/LiteOS_Lab/iot_link/network/dtls/mbedtls/mbedtls-2.16.2/include/mbedtls\cipher.h ****  *
  20:C:/Users/dtjld/workspace/AIoT/src/LiteOS_Lab/iot_link/network/dtls/mbedtls/mbedtls-2.16.2/include/mbedtls\cipher.h ****  *  Unless required by applicable law or agreed to in writing, software
  21:C:/Users/dtjld/workspace/AIoT/src/LiteOS_Lab/iot_link/network/dtls/mbedtls/mbedtls-2.16.2/include/mbedtls\cipher.h ****  *  distributed under the License is distributed on an "AS IS" BASIS, WITHOUT
  22:C:/Users/dtjld/workspace/AIoT/src/LiteOS_Lab/iot_link/network/dtls/mbedtls/mbedtls-2.16.2/include/mbedtls\cipher.h ****  *  WARRANTIES OR CONDITIONS OF ANY KIND, either express or implied.
  23:C:/Users/dtjld/workspace/AIoT/src/LiteOS_Lab/iot_link/network/dtls/mbedtls/mbedtls-2.16.2/include/mbedtls\cipher.h ****  *  See the License for the specific language governing permissions and
  24:C:/Users/dtjld/workspace/AIoT/src/LiteOS_Lab/iot_link/network/dtls/mbedtls/mbedtls-2.16.2/include/mbedtls\cipher.h ****  *  limitations under the License.
  25:C:/Users/dtjld/workspace/AIoT/src/LiteOS_Lab/iot_link/network/dtls/mbedtls/mbedtls-2.16.2/include/mbedtls\cipher.h ****  *
  26:C:/Users/dtjld/workspace/AIoT/src/LiteOS_Lab/iot_link/network/dtls/mbedtls/mbedtls-2.16.2/include/mbedtls\cipher.h ****  *  This file is part of Mbed TLS (https://tls.mbed.org)
  27:C:/Users/dtjld/workspace/AIoT/src/LiteOS_Lab/iot_link/network/dtls/mbedtls/mbedtls-2.16.2/include/mbedtls\cipher.h ****  */
  28:C:/Users/dtjld/workspace/AIoT/src/LiteOS_Lab/iot_link/network/dtls/mbedtls/mbedtls-2.16.2/include/mbedtls\cipher.h **** 
  29:C:/Users/dtjld/workspace/AIoT/src/LiteOS_Lab/iot_link/network/dtls/mbedtls/mbedtls-2.16.2/include/mbedtls\cipher.h **** #ifndef MBEDTLS_CIPHER_H
  30:C:/Users/dtjld/workspace/AIoT/src/LiteOS_Lab/iot_link/network/dtls/mbedtls/mbedtls-2.16.2/include/mbedtls\cipher.h **** #define MBEDTLS_CIPHER_H
  31:C:/Users/dtjld/workspace/AIoT/src/LiteOS_Lab/iot_link/network/dtls/mbedtls/mbedtls-2.16.2/include/mbedtls\cipher.h **** 
  32:C:/Users/dtjld/workspace/AIoT/src/LiteOS_Lab/iot_link/network/dtls/mbedtls/mbedtls-2.16.2/include/mbedtls\cipher.h **** #if !defined(MBEDTLS_CONFIG_FILE)
ARM GAS  C:\Users\dtjld\AppData\Local\Temp\ccnoWzb8.s 			page 2


  33:C:/Users/dtjld/workspace/AIoT/src/LiteOS_Lab/iot_link/network/dtls/mbedtls/mbedtls-2.16.2/include/mbedtls\cipher.h **** #include "config.h"
  34:C:/Users/dtjld/workspace/AIoT/src/LiteOS_Lab/iot_link/network/dtls/mbedtls/mbedtls-2.16.2/include/mbedtls\cipher.h **** #else
  35:C:/Users/dtjld/workspace/AIoT/src/LiteOS_Lab/iot_link/network/dtls/mbedtls/mbedtls-2.16.2/include/mbedtls\cipher.h **** #include MBEDTLS_CONFIG_FILE
  36:C:/Users/dtjld/workspace/AIoT/src/LiteOS_Lab/iot_link/network/dtls/mbedtls/mbedtls-2.16.2/include/mbedtls\cipher.h **** #endif
  37:C:/Users/dtjld/workspace/AIoT/src/LiteOS_Lab/iot_link/network/dtls/mbedtls/mbedtls-2.16.2/include/mbedtls\cipher.h **** 
  38:C:/Users/dtjld/workspace/AIoT/src/LiteOS_Lab/iot_link/network/dtls/mbedtls/mbedtls-2.16.2/include/mbedtls\cipher.h **** #include <stddef.h>
  39:C:/Users/dtjld/workspace/AIoT/src/LiteOS_Lab/iot_link/network/dtls/mbedtls/mbedtls-2.16.2/include/mbedtls\cipher.h **** #include "platform_util.h"
  40:C:/Users/dtjld/workspace/AIoT/src/LiteOS_Lab/iot_link/network/dtls/mbedtls/mbedtls-2.16.2/include/mbedtls\cipher.h **** 
  41:C:/Users/dtjld/workspace/AIoT/src/LiteOS_Lab/iot_link/network/dtls/mbedtls/mbedtls-2.16.2/include/mbedtls\cipher.h **** #if defined(MBEDTLS_GCM_C) || defined(MBEDTLS_CCM_C) || defined(MBEDTLS_CHACHAPOLY_C)
  42:C:/Users/dtjld/workspace/AIoT/src/LiteOS_Lab/iot_link/network/dtls/mbedtls/mbedtls-2.16.2/include/mbedtls\cipher.h **** #define MBEDTLS_CIPHER_MODE_AEAD
  43:C:/Users/dtjld/workspace/AIoT/src/LiteOS_Lab/iot_link/network/dtls/mbedtls/mbedtls-2.16.2/include/mbedtls\cipher.h **** #endif
  44:C:/Users/dtjld/workspace/AIoT/src/LiteOS_Lab/iot_link/network/dtls/mbedtls/mbedtls-2.16.2/include/mbedtls\cipher.h **** 
  45:C:/Users/dtjld/workspace/AIoT/src/LiteOS_Lab/iot_link/network/dtls/mbedtls/mbedtls-2.16.2/include/mbedtls\cipher.h **** #if defined(MBEDTLS_CIPHER_MODE_CBC)
  46:C:/Users/dtjld/workspace/AIoT/src/LiteOS_Lab/iot_link/network/dtls/mbedtls/mbedtls-2.16.2/include/mbedtls\cipher.h **** #define MBEDTLS_CIPHER_MODE_WITH_PADDING
  47:C:/Users/dtjld/workspace/AIoT/src/LiteOS_Lab/iot_link/network/dtls/mbedtls/mbedtls-2.16.2/include/mbedtls\cipher.h **** #endif
  48:C:/Users/dtjld/workspace/AIoT/src/LiteOS_Lab/iot_link/network/dtls/mbedtls/mbedtls-2.16.2/include/mbedtls\cipher.h **** 
  49:C:/Users/dtjld/workspace/AIoT/src/LiteOS_Lab/iot_link/network/dtls/mbedtls/mbedtls-2.16.2/include/mbedtls\cipher.h **** #if defined(MBEDTLS_ARC4_C) || defined(MBEDTLS_CIPHER_NULL_CIPHER) || \
  50:C:/Users/dtjld/workspace/AIoT/src/LiteOS_Lab/iot_link/network/dtls/mbedtls/mbedtls-2.16.2/include/mbedtls\cipher.h ****     defined(MBEDTLS_CHACHA20_C)
  51:C:/Users/dtjld/workspace/AIoT/src/LiteOS_Lab/iot_link/network/dtls/mbedtls/mbedtls-2.16.2/include/mbedtls\cipher.h **** #define MBEDTLS_CIPHER_MODE_STREAM
  52:C:/Users/dtjld/workspace/AIoT/src/LiteOS_Lab/iot_link/network/dtls/mbedtls/mbedtls-2.16.2/include/mbedtls\cipher.h **** #endif
  53:C:/Users/dtjld/workspace/AIoT/src/LiteOS_Lab/iot_link/network/dtls/mbedtls/mbedtls-2.16.2/include/mbedtls\cipher.h **** 
  54:C:/Users/dtjld/workspace/AIoT/src/LiteOS_Lab/iot_link/network/dtls/mbedtls/mbedtls-2.16.2/include/mbedtls\cipher.h **** #if ( defined(__ARMCC_VERSION) || defined(_MSC_VER) ) && \
  55:C:/Users/dtjld/workspace/AIoT/src/LiteOS_Lab/iot_link/network/dtls/mbedtls/mbedtls-2.16.2/include/mbedtls\cipher.h ****     !defined(inline) && !defined(__cplusplus)
  56:C:/Users/dtjld/workspace/AIoT/src/LiteOS_Lab/iot_link/network/dtls/mbedtls/mbedtls-2.16.2/include/mbedtls\cipher.h **** #define inline __inline
  57:C:/Users/dtjld/workspace/AIoT/src/LiteOS_Lab/iot_link/network/dtls/mbedtls/mbedtls-2.16.2/include/mbedtls\cipher.h **** #endif
  58:C:/Users/dtjld/workspace/AIoT/src/LiteOS_Lab/iot_link/network/dtls/mbedtls/mbedtls-2.16.2/include/mbedtls\cipher.h **** 
  59:C:/Users/dtjld/workspace/AIoT/src/LiteOS_Lab/iot_link/network/dtls/mbedtls/mbedtls-2.16.2/include/mbedtls\cipher.h **** #define MBEDTLS_ERR_CIPHER_FEATURE_UNAVAILABLE  -0x6080  /**< The selected feature is not available
  60:C:/Users/dtjld/workspace/AIoT/src/LiteOS_Lab/iot_link/network/dtls/mbedtls/mbedtls-2.16.2/include/mbedtls\cipher.h **** #define MBEDTLS_ERR_CIPHER_BAD_INPUT_DATA       -0x6100  /**< Bad input parameters. */
  61:C:/Users/dtjld/workspace/AIoT/src/LiteOS_Lab/iot_link/network/dtls/mbedtls/mbedtls-2.16.2/include/mbedtls\cipher.h **** #define MBEDTLS_ERR_CIPHER_ALLOC_FAILED         -0x6180  /**< Failed to allocate memory. */
  62:C:/Users/dtjld/workspace/AIoT/src/LiteOS_Lab/iot_link/network/dtls/mbedtls/mbedtls-2.16.2/include/mbedtls\cipher.h **** #define MBEDTLS_ERR_CIPHER_INVALID_PADDING      -0x6200  /**< Input data contains invalid padding a
  63:C:/Users/dtjld/workspace/AIoT/src/LiteOS_Lab/iot_link/network/dtls/mbedtls/mbedtls-2.16.2/include/mbedtls\cipher.h **** #define MBEDTLS_ERR_CIPHER_FULL_BLOCK_EXPECTED  -0x6280  /**< Decryption of block requires a full b
  64:C:/Users/dtjld/workspace/AIoT/src/LiteOS_Lab/iot_link/network/dtls/mbedtls/mbedtls-2.16.2/include/mbedtls\cipher.h **** #define MBEDTLS_ERR_CIPHER_AUTH_FAILED          -0x6300  /**< Authentication failed (for AEAD modes
  65:C:/Users/dtjld/workspace/AIoT/src/LiteOS_Lab/iot_link/network/dtls/mbedtls/mbedtls-2.16.2/include/mbedtls\cipher.h **** #define MBEDTLS_ERR_CIPHER_INVALID_CONTEXT      -0x6380  /**< The context is invalid. For example, 
  66:C:/Users/dtjld/workspace/AIoT/src/LiteOS_Lab/iot_link/network/dtls/mbedtls/mbedtls-2.16.2/include/mbedtls\cipher.h **** 
  67:C:/Users/dtjld/workspace/AIoT/src/LiteOS_Lab/iot_link/network/dtls/mbedtls/mbedtls-2.16.2/include/mbedtls\cipher.h **** /* MBEDTLS_ERR_CIPHER_HW_ACCEL_FAILED is deprecated and should not be used. */
  68:C:/Users/dtjld/workspace/AIoT/src/LiteOS_Lab/iot_link/network/dtls/mbedtls/mbedtls-2.16.2/include/mbedtls\cipher.h **** #define MBEDTLS_ERR_CIPHER_HW_ACCEL_FAILED      -0x6400  /**< Cipher hardware accelerator failed. *
  69:C:/Users/dtjld/workspace/AIoT/src/LiteOS_Lab/iot_link/network/dtls/mbedtls/mbedtls-2.16.2/include/mbedtls\cipher.h **** 
  70:C:/Users/dtjld/workspace/AIoT/src/LiteOS_Lab/iot_link/network/dtls/mbedtls/mbedtls-2.16.2/include/mbedtls\cipher.h **** #define MBEDTLS_CIPHER_VARIABLE_IV_LEN     0x01    /**< Cipher accepts IVs of variable length. */
  71:C:/Users/dtjld/workspace/AIoT/src/LiteOS_Lab/iot_link/network/dtls/mbedtls/mbedtls-2.16.2/include/mbedtls\cipher.h **** #define MBEDTLS_CIPHER_VARIABLE_KEY_LEN    0x02    /**< Cipher accepts keys of variable length. */
  72:C:/Users/dtjld/workspace/AIoT/src/LiteOS_Lab/iot_link/network/dtls/mbedtls/mbedtls-2.16.2/include/mbedtls\cipher.h **** 
  73:C:/Users/dtjld/workspace/AIoT/src/LiteOS_Lab/iot_link/network/dtls/mbedtls/mbedtls-2.16.2/include/mbedtls\cipher.h **** #ifdef __cplusplus
  74:C:/Users/dtjld/workspace/AIoT/src/LiteOS_Lab/iot_link/network/dtls/mbedtls/mbedtls-2.16.2/include/mbedtls\cipher.h **** extern "C" {
  75:C:/Users/dtjld/workspace/AIoT/src/LiteOS_Lab/iot_link/network/dtls/mbedtls/mbedtls-2.16.2/include/mbedtls\cipher.h **** #endif
  76:C:/Users/dtjld/workspace/AIoT/src/LiteOS_Lab/iot_link/network/dtls/mbedtls/mbedtls-2.16.2/include/mbedtls\cipher.h **** 
  77:C:/Users/dtjld/workspace/AIoT/src/LiteOS_Lab/iot_link/network/dtls/mbedtls/mbedtls-2.16.2/include/mbedtls\cipher.h **** /**
  78:C:/Users/dtjld/workspace/AIoT/src/LiteOS_Lab/iot_link/network/dtls/mbedtls/mbedtls-2.16.2/include/mbedtls\cipher.h ****  * \brief     Supported cipher types.
  79:C:/Users/dtjld/workspace/AIoT/src/LiteOS_Lab/iot_link/network/dtls/mbedtls/mbedtls-2.16.2/include/mbedtls\cipher.h ****  *
  80:C:/Users/dtjld/workspace/AIoT/src/LiteOS_Lab/iot_link/network/dtls/mbedtls/mbedtls-2.16.2/include/mbedtls\cipher.h ****  * \warning   RC4 and DES are considered weak ciphers and their use
  81:C:/Users/dtjld/workspace/AIoT/src/LiteOS_Lab/iot_link/network/dtls/mbedtls/mbedtls-2.16.2/include/mbedtls\cipher.h ****  *            constitutes a security risk. Arm recommends considering stronger
  82:C:/Users/dtjld/workspace/AIoT/src/LiteOS_Lab/iot_link/network/dtls/mbedtls/mbedtls-2.16.2/include/mbedtls\cipher.h ****  *            ciphers instead.
  83:C:/Users/dtjld/workspace/AIoT/src/LiteOS_Lab/iot_link/network/dtls/mbedtls/mbedtls-2.16.2/include/mbedtls\cipher.h ****  */
  84:C:/Users/dtjld/workspace/AIoT/src/LiteOS_Lab/iot_link/network/dtls/mbedtls/mbedtls-2.16.2/include/mbedtls\cipher.h **** typedef enum {
  85:C:/Users/dtjld/workspace/AIoT/src/LiteOS_Lab/iot_link/network/dtls/mbedtls/mbedtls-2.16.2/include/mbedtls\cipher.h ****     MBEDTLS_CIPHER_ID_NONE = 0,  /**< Placeholder to mark the end of cipher ID lists. */
  86:C:/Users/dtjld/workspace/AIoT/src/LiteOS_Lab/iot_link/network/dtls/mbedtls/mbedtls-2.16.2/include/mbedtls\cipher.h ****     MBEDTLS_CIPHER_ID_NULL,      /**< The identity cipher, treated as a stream cipher. */
  87:C:/Users/dtjld/workspace/AIoT/src/LiteOS_Lab/iot_link/network/dtls/mbedtls/mbedtls-2.16.2/include/mbedtls\cipher.h ****     MBEDTLS_CIPHER_ID_AES,       /**< The AES cipher. */
  88:C:/Users/dtjld/workspace/AIoT/src/LiteOS_Lab/iot_link/network/dtls/mbedtls/mbedtls-2.16.2/include/mbedtls\cipher.h ****     MBEDTLS_CIPHER_ID_DES,       /**< The DES cipher. */
  89:C:/Users/dtjld/workspace/AIoT/src/LiteOS_Lab/iot_link/network/dtls/mbedtls/mbedtls-2.16.2/include/mbedtls\cipher.h ****     MBEDTLS_CIPHER_ID_3DES,      /**< The Triple DES cipher. */
ARM GAS  C:\Users\dtjld\AppData\Local\Temp\ccnoWzb8.s 			page 3


  90:C:/Users/dtjld/workspace/AIoT/src/LiteOS_Lab/iot_link/network/dtls/mbedtls/mbedtls-2.16.2/include/mbedtls\cipher.h ****     MBEDTLS_CIPHER_ID_CAMELLIA,  /**< The Camellia cipher. */
  91:C:/Users/dtjld/workspace/AIoT/src/LiteOS_Lab/iot_link/network/dtls/mbedtls/mbedtls-2.16.2/include/mbedtls\cipher.h ****     MBEDTLS_CIPHER_ID_BLOWFISH,  /**< The Blowfish cipher. */
  92:C:/Users/dtjld/workspace/AIoT/src/LiteOS_Lab/iot_link/network/dtls/mbedtls/mbedtls-2.16.2/include/mbedtls\cipher.h ****     MBEDTLS_CIPHER_ID_ARC4,      /**< The RC4 cipher. */
  93:C:/Users/dtjld/workspace/AIoT/src/LiteOS_Lab/iot_link/network/dtls/mbedtls/mbedtls-2.16.2/include/mbedtls\cipher.h ****     MBEDTLS_CIPHER_ID_ARIA,      /**< The Aria cipher. */
  94:C:/Users/dtjld/workspace/AIoT/src/LiteOS_Lab/iot_link/network/dtls/mbedtls/mbedtls-2.16.2/include/mbedtls\cipher.h ****     MBEDTLS_CIPHER_ID_CHACHA20,  /**< The ChaCha20 cipher. */
  95:C:/Users/dtjld/workspace/AIoT/src/LiteOS_Lab/iot_link/network/dtls/mbedtls/mbedtls-2.16.2/include/mbedtls\cipher.h **** } mbedtls_cipher_id_t;
  96:C:/Users/dtjld/workspace/AIoT/src/LiteOS_Lab/iot_link/network/dtls/mbedtls/mbedtls-2.16.2/include/mbedtls\cipher.h **** 
  97:C:/Users/dtjld/workspace/AIoT/src/LiteOS_Lab/iot_link/network/dtls/mbedtls/mbedtls-2.16.2/include/mbedtls\cipher.h **** /**
  98:C:/Users/dtjld/workspace/AIoT/src/LiteOS_Lab/iot_link/network/dtls/mbedtls/mbedtls-2.16.2/include/mbedtls\cipher.h ****  * \brief     Supported {cipher type, cipher mode} pairs.
  99:C:/Users/dtjld/workspace/AIoT/src/LiteOS_Lab/iot_link/network/dtls/mbedtls/mbedtls-2.16.2/include/mbedtls\cipher.h ****  *
 100:C:/Users/dtjld/workspace/AIoT/src/LiteOS_Lab/iot_link/network/dtls/mbedtls/mbedtls-2.16.2/include/mbedtls\cipher.h ****  * \warning   RC4 and DES are considered weak ciphers and their use
 101:C:/Users/dtjld/workspace/AIoT/src/LiteOS_Lab/iot_link/network/dtls/mbedtls/mbedtls-2.16.2/include/mbedtls\cipher.h ****  *            constitutes a security risk. Arm recommends considering stronger
 102:C:/Users/dtjld/workspace/AIoT/src/LiteOS_Lab/iot_link/network/dtls/mbedtls/mbedtls-2.16.2/include/mbedtls\cipher.h ****  *            ciphers instead.
 103:C:/Users/dtjld/workspace/AIoT/src/LiteOS_Lab/iot_link/network/dtls/mbedtls/mbedtls-2.16.2/include/mbedtls\cipher.h ****  */
 104:C:/Users/dtjld/workspace/AIoT/src/LiteOS_Lab/iot_link/network/dtls/mbedtls/mbedtls-2.16.2/include/mbedtls\cipher.h **** typedef enum {
 105:C:/Users/dtjld/workspace/AIoT/src/LiteOS_Lab/iot_link/network/dtls/mbedtls/mbedtls-2.16.2/include/mbedtls\cipher.h ****     MBEDTLS_CIPHER_NONE = 0,             /**< Placeholder to mark the end of cipher-pair lists. */
 106:C:/Users/dtjld/workspace/AIoT/src/LiteOS_Lab/iot_link/network/dtls/mbedtls/mbedtls-2.16.2/include/mbedtls\cipher.h ****     MBEDTLS_CIPHER_NULL,                 /**< The identity stream cipher. */
 107:C:/Users/dtjld/workspace/AIoT/src/LiteOS_Lab/iot_link/network/dtls/mbedtls/mbedtls-2.16.2/include/mbedtls\cipher.h ****     MBEDTLS_CIPHER_AES_128_ECB,          /**< AES cipher with 128-bit ECB mode. */
 108:C:/Users/dtjld/workspace/AIoT/src/LiteOS_Lab/iot_link/network/dtls/mbedtls/mbedtls-2.16.2/include/mbedtls\cipher.h ****     MBEDTLS_CIPHER_AES_192_ECB,          /**< AES cipher with 192-bit ECB mode. */
 109:C:/Users/dtjld/workspace/AIoT/src/LiteOS_Lab/iot_link/network/dtls/mbedtls/mbedtls-2.16.2/include/mbedtls\cipher.h ****     MBEDTLS_CIPHER_AES_256_ECB,          /**< AES cipher with 256-bit ECB mode. */
 110:C:/Users/dtjld/workspace/AIoT/src/LiteOS_Lab/iot_link/network/dtls/mbedtls/mbedtls-2.16.2/include/mbedtls\cipher.h ****     MBEDTLS_CIPHER_AES_128_CBC,          /**< AES cipher with 128-bit CBC mode. */
 111:C:/Users/dtjld/workspace/AIoT/src/LiteOS_Lab/iot_link/network/dtls/mbedtls/mbedtls-2.16.2/include/mbedtls\cipher.h ****     MBEDTLS_CIPHER_AES_192_CBC,          /**< AES cipher with 192-bit CBC mode. */
 112:C:/Users/dtjld/workspace/AIoT/src/LiteOS_Lab/iot_link/network/dtls/mbedtls/mbedtls-2.16.2/include/mbedtls\cipher.h ****     MBEDTLS_CIPHER_AES_256_CBC,          /**< AES cipher with 256-bit CBC mode. */
 113:C:/Users/dtjld/workspace/AIoT/src/LiteOS_Lab/iot_link/network/dtls/mbedtls/mbedtls-2.16.2/include/mbedtls\cipher.h ****     MBEDTLS_CIPHER_AES_128_CFB128,       /**< AES cipher with 128-bit CFB128 mode. */
 114:C:/Users/dtjld/workspace/AIoT/src/LiteOS_Lab/iot_link/network/dtls/mbedtls/mbedtls-2.16.2/include/mbedtls\cipher.h ****     MBEDTLS_CIPHER_AES_192_CFB128,       /**< AES cipher with 192-bit CFB128 mode. */
 115:C:/Users/dtjld/workspace/AIoT/src/LiteOS_Lab/iot_link/network/dtls/mbedtls/mbedtls-2.16.2/include/mbedtls\cipher.h ****     MBEDTLS_CIPHER_AES_256_CFB128,       /**< AES cipher with 256-bit CFB128 mode. */
 116:C:/Users/dtjld/workspace/AIoT/src/LiteOS_Lab/iot_link/network/dtls/mbedtls/mbedtls-2.16.2/include/mbedtls\cipher.h ****     MBEDTLS_CIPHER_AES_128_CTR,          /**< AES cipher with 128-bit CTR mode. */
 117:C:/Users/dtjld/workspace/AIoT/src/LiteOS_Lab/iot_link/network/dtls/mbedtls/mbedtls-2.16.2/include/mbedtls\cipher.h ****     MBEDTLS_CIPHER_AES_192_CTR,          /**< AES cipher with 192-bit CTR mode. */
 118:C:/Users/dtjld/workspace/AIoT/src/LiteOS_Lab/iot_link/network/dtls/mbedtls/mbedtls-2.16.2/include/mbedtls\cipher.h ****     MBEDTLS_CIPHER_AES_256_CTR,          /**< AES cipher with 256-bit CTR mode. */
 119:C:/Users/dtjld/workspace/AIoT/src/LiteOS_Lab/iot_link/network/dtls/mbedtls/mbedtls-2.16.2/include/mbedtls\cipher.h ****     MBEDTLS_CIPHER_AES_128_GCM,          /**< AES cipher with 128-bit GCM mode. */
 120:C:/Users/dtjld/workspace/AIoT/src/LiteOS_Lab/iot_link/network/dtls/mbedtls/mbedtls-2.16.2/include/mbedtls\cipher.h ****     MBEDTLS_CIPHER_AES_192_GCM,          /**< AES cipher with 192-bit GCM mode. */
 121:C:/Users/dtjld/workspace/AIoT/src/LiteOS_Lab/iot_link/network/dtls/mbedtls/mbedtls-2.16.2/include/mbedtls\cipher.h ****     MBEDTLS_CIPHER_AES_256_GCM,          /**< AES cipher with 256-bit GCM mode. */
 122:C:/Users/dtjld/workspace/AIoT/src/LiteOS_Lab/iot_link/network/dtls/mbedtls/mbedtls-2.16.2/include/mbedtls\cipher.h ****     MBEDTLS_CIPHER_CAMELLIA_128_ECB,     /**< Camellia cipher with 128-bit ECB mode. */
 123:C:/Users/dtjld/workspace/AIoT/src/LiteOS_Lab/iot_link/network/dtls/mbedtls/mbedtls-2.16.2/include/mbedtls\cipher.h ****     MBEDTLS_CIPHER_CAMELLIA_192_ECB,     /**< Camellia cipher with 192-bit ECB mode. */
 124:C:/Users/dtjld/workspace/AIoT/src/LiteOS_Lab/iot_link/network/dtls/mbedtls/mbedtls-2.16.2/include/mbedtls\cipher.h ****     MBEDTLS_CIPHER_CAMELLIA_256_ECB,     /**< Camellia cipher with 256-bit ECB mode. */
 125:C:/Users/dtjld/workspace/AIoT/src/LiteOS_Lab/iot_link/network/dtls/mbedtls/mbedtls-2.16.2/include/mbedtls\cipher.h ****     MBEDTLS_CIPHER_CAMELLIA_128_CBC,     /**< Camellia cipher with 128-bit CBC mode. */
 126:C:/Users/dtjld/workspace/AIoT/src/LiteOS_Lab/iot_link/network/dtls/mbedtls/mbedtls-2.16.2/include/mbedtls\cipher.h ****     MBEDTLS_CIPHER_CAMELLIA_192_CBC,     /**< Camellia cipher with 192-bit CBC mode. */
 127:C:/Users/dtjld/workspace/AIoT/src/LiteOS_Lab/iot_link/network/dtls/mbedtls/mbedtls-2.16.2/include/mbedtls\cipher.h ****     MBEDTLS_CIPHER_CAMELLIA_256_CBC,     /**< Camellia cipher with 256-bit CBC mode. */
 128:C:/Users/dtjld/workspace/AIoT/src/LiteOS_Lab/iot_link/network/dtls/mbedtls/mbedtls-2.16.2/include/mbedtls\cipher.h ****     MBEDTLS_CIPHER_CAMELLIA_128_CFB128,  /**< Camellia cipher with 128-bit CFB128 mode. */
 129:C:/Users/dtjld/workspace/AIoT/src/LiteOS_Lab/iot_link/network/dtls/mbedtls/mbedtls-2.16.2/include/mbedtls\cipher.h ****     MBEDTLS_CIPHER_CAMELLIA_192_CFB128,  /**< Camellia cipher with 192-bit CFB128 mode. */
 130:C:/Users/dtjld/workspace/AIoT/src/LiteOS_Lab/iot_link/network/dtls/mbedtls/mbedtls-2.16.2/include/mbedtls\cipher.h ****     MBEDTLS_CIPHER_CAMELLIA_256_CFB128,  /**< Camellia cipher with 256-bit CFB128 mode. */
 131:C:/Users/dtjld/workspace/AIoT/src/LiteOS_Lab/iot_link/network/dtls/mbedtls/mbedtls-2.16.2/include/mbedtls\cipher.h ****     MBEDTLS_CIPHER_CAMELLIA_128_CTR,     /**< Camellia cipher with 128-bit CTR mode. */
 132:C:/Users/dtjld/workspace/AIoT/src/LiteOS_Lab/iot_link/network/dtls/mbedtls/mbedtls-2.16.2/include/mbedtls\cipher.h ****     MBEDTLS_CIPHER_CAMELLIA_192_CTR,     /**< Camellia cipher with 192-bit CTR mode. */
 133:C:/Users/dtjld/workspace/AIoT/src/LiteOS_Lab/iot_link/network/dtls/mbedtls/mbedtls-2.16.2/include/mbedtls\cipher.h ****     MBEDTLS_CIPHER_CAMELLIA_256_CTR,     /**< Camellia cipher with 256-bit CTR mode. */
 134:C:/Users/dtjld/workspace/AIoT/src/LiteOS_Lab/iot_link/network/dtls/mbedtls/mbedtls-2.16.2/include/mbedtls\cipher.h ****     MBEDTLS_CIPHER_CAMELLIA_128_GCM,     /**< Camellia cipher with 128-bit GCM mode. */
 135:C:/Users/dtjld/workspace/AIoT/src/LiteOS_Lab/iot_link/network/dtls/mbedtls/mbedtls-2.16.2/include/mbedtls\cipher.h ****     MBEDTLS_CIPHER_CAMELLIA_192_GCM,     /**< Camellia cipher with 192-bit GCM mode. */
 136:C:/Users/dtjld/workspace/AIoT/src/LiteOS_Lab/iot_link/network/dtls/mbedtls/mbedtls-2.16.2/include/mbedtls\cipher.h ****     MBEDTLS_CIPHER_CAMELLIA_256_GCM,     /**< Camellia cipher with 256-bit GCM mode. */
 137:C:/Users/dtjld/workspace/AIoT/src/LiteOS_Lab/iot_link/network/dtls/mbedtls/mbedtls-2.16.2/include/mbedtls\cipher.h ****     MBEDTLS_CIPHER_DES_ECB,              /**< DES cipher with ECB mode. */
 138:C:/Users/dtjld/workspace/AIoT/src/LiteOS_Lab/iot_link/network/dtls/mbedtls/mbedtls-2.16.2/include/mbedtls\cipher.h ****     MBEDTLS_CIPHER_DES_CBC,              /**< DES cipher with CBC mode. */
 139:C:/Users/dtjld/workspace/AIoT/src/LiteOS_Lab/iot_link/network/dtls/mbedtls/mbedtls-2.16.2/include/mbedtls\cipher.h ****     MBEDTLS_CIPHER_DES_EDE_ECB,          /**< DES cipher with EDE ECB mode. */
 140:C:/Users/dtjld/workspace/AIoT/src/LiteOS_Lab/iot_link/network/dtls/mbedtls/mbedtls-2.16.2/include/mbedtls\cipher.h ****     MBEDTLS_CIPHER_DES_EDE_CBC,          /**< DES cipher with EDE CBC mode. */
 141:C:/Users/dtjld/workspace/AIoT/src/LiteOS_Lab/iot_link/network/dtls/mbedtls/mbedtls-2.16.2/include/mbedtls\cipher.h ****     MBEDTLS_CIPHER_DES_EDE3_ECB,         /**< DES cipher with EDE3 ECB mode. */
 142:C:/Users/dtjld/workspace/AIoT/src/LiteOS_Lab/iot_link/network/dtls/mbedtls/mbedtls-2.16.2/include/mbedtls\cipher.h ****     MBEDTLS_CIPHER_DES_EDE3_CBC,         /**< DES cipher with EDE3 CBC mode. */
 143:C:/Users/dtjld/workspace/AIoT/src/LiteOS_Lab/iot_link/network/dtls/mbedtls/mbedtls-2.16.2/include/mbedtls\cipher.h ****     MBEDTLS_CIPHER_BLOWFISH_ECB,         /**< Blowfish cipher with ECB mode. */
 144:C:/Users/dtjld/workspace/AIoT/src/LiteOS_Lab/iot_link/network/dtls/mbedtls/mbedtls-2.16.2/include/mbedtls\cipher.h ****     MBEDTLS_CIPHER_BLOWFISH_CBC,         /**< Blowfish cipher with CBC mode. */
 145:C:/Users/dtjld/workspace/AIoT/src/LiteOS_Lab/iot_link/network/dtls/mbedtls/mbedtls-2.16.2/include/mbedtls\cipher.h ****     MBEDTLS_CIPHER_BLOWFISH_CFB64,       /**< Blowfish cipher with CFB64 mode. */
 146:C:/Users/dtjld/workspace/AIoT/src/LiteOS_Lab/iot_link/network/dtls/mbedtls/mbedtls-2.16.2/include/mbedtls\cipher.h ****     MBEDTLS_CIPHER_BLOWFISH_CTR,         /**< Blowfish cipher with CTR mode. */
ARM GAS  C:\Users\dtjld\AppData\Local\Temp\ccnoWzb8.s 			page 4


 147:C:/Users/dtjld/workspace/AIoT/src/LiteOS_Lab/iot_link/network/dtls/mbedtls/mbedtls-2.16.2/include/mbedtls\cipher.h ****     MBEDTLS_CIPHER_ARC4_128,             /**< RC4 cipher with 128-bit mode. */
 148:C:/Users/dtjld/workspace/AIoT/src/LiteOS_Lab/iot_link/network/dtls/mbedtls/mbedtls-2.16.2/include/mbedtls\cipher.h ****     MBEDTLS_CIPHER_AES_128_CCM,          /**< AES cipher with 128-bit CCM mode. */
 149:C:/Users/dtjld/workspace/AIoT/src/LiteOS_Lab/iot_link/network/dtls/mbedtls/mbedtls-2.16.2/include/mbedtls\cipher.h ****     MBEDTLS_CIPHER_AES_192_CCM,          /**< AES cipher with 192-bit CCM mode. */
 150:C:/Users/dtjld/workspace/AIoT/src/LiteOS_Lab/iot_link/network/dtls/mbedtls/mbedtls-2.16.2/include/mbedtls\cipher.h ****     MBEDTLS_CIPHER_AES_256_CCM,          /**< AES cipher with 256-bit CCM mode. */
 151:C:/Users/dtjld/workspace/AIoT/src/LiteOS_Lab/iot_link/network/dtls/mbedtls/mbedtls-2.16.2/include/mbedtls\cipher.h ****     MBEDTLS_CIPHER_CAMELLIA_128_CCM,     /**< Camellia cipher with 128-bit CCM mode. */
 152:C:/Users/dtjld/workspace/AIoT/src/LiteOS_Lab/iot_link/network/dtls/mbedtls/mbedtls-2.16.2/include/mbedtls\cipher.h ****     MBEDTLS_CIPHER_CAMELLIA_192_CCM,     /**< Camellia cipher with 192-bit CCM mode. */
 153:C:/Users/dtjld/workspace/AIoT/src/LiteOS_Lab/iot_link/network/dtls/mbedtls/mbedtls-2.16.2/include/mbedtls\cipher.h ****     MBEDTLS_CIPHER_CAMELLIA_256_CCM,     /**< Camellia cipher with 256-bit CCM mode. */
 154:C:/Users/dtjld/workspace/AIoT/src/LiteOS_Lab/iot_link/network/dtls/mbedtls/mbedtls-2.16.2/include/mbedtls\cipher.h ****     MBEDTLS_CIPHER_ARIA_128_ECB,         /**< Aria cipher with 128-bit key and ECB mode. */
 155:C:/Users/dtjld/workspace/AIoT/src/LiteOS_Lab/iot_link/network/dtls/mbedtls/mbedtls-2.16.2/include/mbedtls\cipher.h ****     MBEDTLS_CIPHER_ARIA_192_ECB,         /**< Aria cipher with 192-bit key and ECB mode. */
 156:C:/Users/dtjld/workspace/AIoT/src/LiteOS_Lab/iot_link/network/dtls/mbedtls/mbedtls-2.16.2/include/mbedtls\cipher.h ****     MBEDTLS_CIPHER_ARIA_256_ECB,         /**< Aria cipher with 256-bit key and ECB mode. */
 157:C:/Users/dtjld/workspace/AIoT/src/LiteOS_Lab/iot_link/network/dtls/mbedtls/mbedtls-2.16.2/include/mbedtls\cipher.h ****     MBEDTLS_CIPHER_ARIA_128_CBC,         /**< Aria cipher with 128-bit key and CBC mode. */
 158:C:/Users/dtjld/workspace/AIoT/src/LiteOS_Lab/iot_link/network/dtls/mbedtls/mbedtls-2.16.2/include/mbedtls\cipher.h ****     MBEDTLS_CIPHER_ARIA_192_CBC,         /**< Aria cipher with 192-bit key and CBC mode. */
 159:C:/Users/dtjld/workspace/AIoT/src/LiteOS_Lab/iot_link/network/dtls/mbedtls/mbedtls-2.16.2/include/mbedtls\cipher.h ****     MBEDTLS_CIPHER_ARIA_256_CBC,         /**< Aria cipher with 256-bit key and CBC mode. */
 160:C:/Users/dtjld/workspace/AIoT/src/LiteOS_Lab/iot_link/network/dtls/mbedtls/mbedtls-2.16.2/include/mbedtls\cipher.h ****     MBEDTLS_CIPHER_ARIA_128_CFB128,      /**< Aria cipher with 128-bit key and CFB-128 mode. */
 161:C:/Users/dtjld/workspace/AIoT/src/LiteOS_Lab/iot_link/network/dtls/mbedtls/mbedtls-2.16.2/include/mbedtls\cipher.h ****     MBEDTLS_CIPHER_ARIA_192_CFB128,      /**< Aria cipher with 192-bit key and CFB-128 mode. */
 162:C:/Users/dtjld/workspace/AIoT/src/LiteOS_Lab/iot_link/network/dtls/mbedtls/mbedtls-2.16.2/include/mbedtls\cipher.h ****     MBEDTLS_CIPHER_ARIA_256_CFB128,      /**< Aria cipher with 256-bit key and CFB-128 mode. */
 163:C:/Users/dtjld/workspace/AIoT/src/LiteOS_Lab/iot_link/network/dtls/mbedtls/mbedtls-2.16.2/include/mbedtls\cipher.h ****     MBEDTLS_CIPHER_ARIA_128_CTR,         /**< Aria cipher with 128-bit key and CTR mode. */
 164:C:/Users/dtjld/workspace/AIoT/src/LiteOS_Lab/iot_link/network/dtls/mbedtls/mbedtls-2.16.2/include/mbedtls\cipher.h ****     MBEDTLS_CIPHER_ARIA_192_CTR,         /**< Aria cipher with 192-bit key and CTR mode. */
 165:C:/Users/dtjld/workspace/AIoT/src/LiteOS_Lab/iot_link/network/dtls/mbedtls/mbedtls-2.16.2/include/mbedtls\cipher.h ****     MBEDTLS_CIPHER_ARIA_256_CTR,         /**< Aria cipher with 256-bit key and CTR mode. */
 166:C:/Users/dtjld/workspace/AIoT/src/LiteOS_Lab/iot_link/network/dtls/mbedtls/mbedtls-2.16.2/include/mbedtls\cipher.h ****     MBEDTLS_CIPHER_ARIA_128_GCM,         /**< Aria cipher with 128-bit key and GCM mode. */
 167:C:/Users/dtjld/workspace/AIoT/src/LiteOS_Lab/iot_link/network/dtls/mbedtls/mbedtls-2.16.2/include/mbedtls\cipher.h ****     MBEDTLS_CIPHER_ARIA_192_GCM,         /**< Aria cipher with 192-bit key and GCM mode. */
 168:C:/Users/dtjld/workspace/AIoT/src/LiteOS_Lab/iot_link/network/dtls/mbedtls/mbedtls-2.16.2/include/mbedtls\cipher.h ****     MBEDTLS_CIPHER_ARIA_256_GCM,         /**< Aria cipher with 256-bit key and GCM mode. */
 169:C:/Users/dtjld/workspace/AIoT/src/LiteOS_Lab/iot_link/network/dtls/mbedtls/mbedtls-2.16.2/include/mbedtls\cipher.h ****     MBEDTLS_CIPHER_ARIA_128_CCM,         /**< Aria cipher with 128-bit key and CCM mode. */
 170:C:/Users/dtjld/workspace/AIoT/src/LiteOS_Lab/iot_link/network/dtls/mbedtls/mbedtls-2.16.2/include/mbedtls\cipher.h ****     MBEDTLS_CIPHER_ARIA_192_CCM,         /**< Aria cipher with 192-bit key and CCM mode. */
 171:C:/Users/dtjld/workspace/AIoT/src/LiteOS_Lab/iot_link/network/dtls/mbedtls/mbedtls-2.16.2/include/mbedtls\cipher.h ****     MBEDTLS_CIPHER_ARIA_256_CCM,         /**< Aria cipher with 256-bit key and CCM mode. */
 172:C:/Users/dtjld/workspace/AIoT/src/LiteOS_Lab/iot_link/network/dtls/mbedtls/mbedtls-2.16.2/include/mbedtls\cipher.h ****     MBEDTLS_CIPHER_AES_128_OFB,          /**< AES 128-bit cipher in OFB mode. */
 173:C:/Users/dtjld/workspace/AIoT/src/LiteOS_Lab/iot_link/network/dtls/mbedtls/mbedtls-2.16.2/include/mbedtls\cipher.h ****     MBEDTLS_CIPHER_AES_192_OFB,          /**< AES 192-bit cipher in OFB mode. */
 174:C:/Users/dtjld/workspace/AIoT/src/LiteOS_Lab/iot_link/network/dtls/mbedtls/mbedtls-2.16.2/include/mbedtls\cipher.h ****     MBEDTLS_CIPHER_AES_256_OFB,          /**< AES 256-bit cipher in OFB mode. */
 175:C:/Users/dtjld/workspace/AIoT/src/LiteOS_Lab/iot_link/network/dtls/mbedtls/mbedtls-2.16.2/include/mbedtls\cipher.h ****     MBEDTLS_CIPHER_AES_128_XTS,          /**< AES 128-bit cipher in XTS block mode. */
 176:C:/Users/dtjld/workspace/AIoT/src/LiteOS_Lab/iot_link/network/dtls/mbedtls/mbedtls-2.16.2/include/mbedtls\cipher.h ****     MBEDTLS_CIPHER_AES_256_XTS,          /**< AES 256-bit cipher in XTS block mode. */
 177:C:/Users/dtjld/workspace/AIoT/src/LiteOS_Lab/iot_link/network/dtls/mbedtls/mbedtls-2.16.2/include/mbedtls\cipher.h ****     MBEDTLS_CIPHER_CHACHA20,             /**< ChaCha20 stream cipher. */
 178:C:/Users/dtjld/workspace/AIoT/src/LiteOS_Lab/iot_link/network/dtls/mbedtls/mbedtls-2.16.2/include/mbedtls\cipher.h ****     MBEDTLS_CIPHER_CHACHA20_POLY1305,    /**< ChaCha20-Poly1305 AEAD cipher. */
 179:C:/Users/dtjld/workspace/AIoT/src/LiteOS_Lab/iot_link/network/dtls/mbedtls/mbedtls-2.16.2/include/mbedtls\cipher.h **** } mbedtls_cipher_type_t;
 180:C:/Users/dtjld/workspace/AIoT/src/LiteOS_Lab/iot_link/network/dtls/mbedtls/mbedtls-2.16.2/include/mbedtls\cipher.h **** 
 181:C:/Users/dtjld/workspace/AIoT/src/LiteOS_Lab/iot_link/network/dtls/mbedtls/mbedtls-2.16.2/include/mbedtls\cipher.h **** /** Supported cipher modes. */
 182:C:/Users/dtjld/workspace/AIoT/src/LiteOS_Lab/iot_link/network/dtls/mbedtls/mbedtls-2.16.2/include/mbedtls\cipher.h **** typedef enum {
 183:C:/Users/dtjld/workspace/AIoT/src/LiteOS_Lab/iot_link/network/dtls/mbedtls/mbedtls-2.16.2/include/mbedtls\cipher.h ****     MBEDTLS_MODE_NONE = 0,               /**< None. */
 184:C:/Users/dtjld/workspace/AIoT/src/LiteOS_Lab/iot_link/network/dtls/mbedtls/mbedtls-2.16.2/include/mbedtls\cipher.h ****     MBEDTLS_MODE_ECB,                    /**< The ECB cipher mode. */
 185:C:/Users/dtjld/workspace/AIoT/src/LiteOS_Lab/iot_link/network/dtls/mbedtls/mbedtls-2.16.2/include/mbedtls\cipher.h ****     MBEDTLS_MODE_CBC,                    /**< The CBC cipher mode. */
 186:C:/Users/dtjld/workspace/AIoT/src/LiteOS_Lab/iot_link/network/dtls/mbedtls/mbedtls-2.16.2/include/mbedtls\cipher.h ****     MBEDTLS_MODE_CFB,                    /**< The CFB cipher mode. */
 187:C:/Users/dtjld/workspace/AIoT/src/LiteOS_Lab/iot_link/network/dtls/mbedtls/mbedtls-2.16.2/include/mbedtls\cipher.h ****     MBEDTLS_MODE_OFB,                    /**< The OFB cipher mode. */
 188:C:/Users/dtjld/workspace/AIoT/src/LiteOS_Lab/iot_link/network/dtls/mbedtls/mbedtls-2.16.2/include/mbedtls\cipher.h ****     MBEDTLS_MODE_CTR,                    /**< The CTR cipher mode. */
 189:C:/Users/dtjld/workspace/AIoT/src/LiteOS_Lab/iot_link/network/dtls/mbedtls/mbedtls-2.16.2/include/mbedtls\cipher.h ****     MBEDTLS_MODE_GCM,                    /**< The GCM cipher mode. */
 190:C:/Users/dtjld/workspace/AIoT/src/LiteOS_Lab/iot_link/network/dtls/mbedtls/mbedtls-2.16.2/include/mbedtls\cipher.h ****     MBEDTLS_MODE_STREAM,                 /**< The stream cipher mode. */
 191:C:/Users/dtjld/workspace/AIoT/src/LiteOS_Lab/iot_link/network/dtls/mbedtls/mbedtls-2.16.2/include/mbedtls\cipher.h ****     MBEDTLS_MODE_CCM,                    /**< The CCM cipher mode. */
 192:C:/Users/dtjld/workspace/AIoT/src/LiteOS_Lab/iot_link/network/dtls/mbedtls/mbedtls-2.16.2/include/mbedtls\cipher.h ****     MBEDTLS_MODE_XTS,                    /**< The XTS cipher mode. */
 193:C:/Users/dtjld/workspace/AIoT/src/LiteOS_Lab/iot_link/network/dtls/mbedtls/mbedtls-2.16.2/include/mbedtls\cipher.h ****     MBEDTLS_MODE_CHACHAPOLY,             /**< The ChaCha-Poly cipher mode. */
 194:C:/Users/dtjld/workspace/AIoT/src/LiteOS_Lab/iot_link/network/dtls/mbedtls/mbedtls-2.16.2/include/mbedtls\cipher.h **** } mbedtls_cipher_mode_t;
 195:C:/Users/dtjld/workspace/AIoT/src/LiteOS_Lab/iot_link/network/dtls/mbedtls/mbedtls-2.16.2/include/mbedtls\cipher.h **** 
 196:C:/Users/dtjld/workspace/AIoT/src/LiteOS_Lab/iot_link/network/dtls/mbedtls/mbedtls-2.16.2/include/mbedtls\cipher.h **** /** Supported cipher padding types. */
 197:C:/Users/dtjld/workspace/AIoT/src/LiteOS_Lab/iot_link/network/dtls/mbedtls/mbedtls-2.16.2/include/mbedtls\cipher.h **** typedef enum {
 198:C:/Users/dtjld/workspace/AIoT/src/LiteOS_Lab/iot_link/network/dtls/mbedtls/mbedtls-2.16.2/include/mbedtls\cipher.h ****     MBEDTLS_PADDING_PKCS7 = 0,     /**< PKCS7 padding (default).        */
 199:C:/Users/dtjld/workspace/AIoT/src/LiteOS_Lab/iot_link/network/dtls/mbedtls/mbedtls-2.16.2/include/mbedtls\cipher.h ****     MBEDTLS_PADDING_ONE_AND_ZEROS, /**< ISO/IEC 7816-4 padding.         */
 200:C:/Users/dtjld/workspace/AIoT/src/LiteOS_Lab/iot_link/network/dtls/mbedtls/mbedtls-2.16.2/include/mbedtls\cipher.h ****     MBEDTLS_PADDING_ZEROS_AND_LEN, /**< ANSI X.923 padding.             */
 201:C:/Users/dtjld/workspace/AIoT/src/LiteOS_Lab/iot_link/network/dtls/mbedtls/mbedtls-2.16.2/include/mbedtls\cipher.h ****     MBEDTLS_PADDING_ZEROS,         /**< Zero padding (not reversible). */
 202:C:/Users/dtjld/workspace/AIoT/src/LiteOS_Lab/iot_link/network/dtls/mbedtls/mbedtls-2.16.2/include/mbedtls\cipher.h ****     MBEDTLS_PADDING_NONE,          /**< Never pad (full blocks only).   */
 203:C:/Users/dtjld/workspace/AIoT/src/LiteOS_Lab/iot_link/network/dtls/mbedtls/mbedtls-2.16.2/include/mbedtls\cipher.h **** } mbedtls_cipher_padding_t;
ARM GAS  C:\Users\dtjld\AppData\Local\Temp\ccnoWzb8.s 			page 5


 204:C:/Users/dtjld/workspace/AIoT/src/LiteOS_Lab/iot_link/network/dtls/mbedtls/mbedtls-2.16.2/include/mbedtls\cipher.h **** 
 205:C:/Users/dtjld/workspace/AIoT/src/LiteOS_Lab/iot_link/network/dtls/mbedtls/mbedtls-2.16.2/include/mbedtls\cipher.h **** /** Type of operation. */
 206:C:/Users/dtjld/workspace/AIoT/src/LiteOS_Lab/iot_link/network/dtls/mbedtls/mbedtls-2.16.2/include/mbedtls\cipher.h **** typedef enum {
 207:C:/Users/dtjld/workspace/AIoT/src/LiteOS_Lab/iot_link/network/dtls/mbedtls/mbedtls-2.16.2/include/mbedtls\cipher.h ****     MBEDTLS_OPERATION_NONE = -1,
 208:C:/Users/dtjld/workspace/AIoT/src/LiteOS_Lab/iot_link/network/dtls/mbedtls/mbedtls-2.16.2/include/mbedtls\cipher.h ****     MBEDTLS_DECRYPT = 0,
 209:C:/Users/dtjld/workspace/AIoT/src/LiteOS_Lab/iot_link/network/dtls/mbedtls/mbedtls-2.16.2/include/mbedtls\cipher.h ****     MBEDTLS_ENCRYPT,
 210:C:/Users/dtjld/workspace/AIoT/src/LiteOS_Lab/iot_link/network/dtls/mbedtls/mbedtls-2.16.2/include/mbedtls\cipher.h **** } mbedtls_operation_t;
 211:C:/Users/dtjld/workspace/AIoT/src/LiteOS_Lab/iot_link/network/dtls/mbedtls/mbedtls-2.16.2/include/mbedtls\cipher.h **** 
 212:C:/Users/dtjld/workspace/AIoT/src/LiteOS_Lab/iot_link/network/dtls/mbedtls/mbedtls-2.16.2/include/mbedtls\cipher.h **** enum {
 213:C:/Users/dtjld/workspace/AIoT/src/LiteOS_Lab/iot_link/network/dtls/mbedtls/mbedtls-2.16.2/include/mbedtls\cipher.h ****     /** Undefined key length. */
 214:C:/Users/dtjld/workspace/AIoT/src/LiteOS_Lab/iot_link/network/dtls/mbedtls/mbedtls-2.16.2/include/mbedtls\cipher.h ****     MBEDTLS_KEY_LENGTH_NONE = 0,
 215:C:/Users/dtjld/workspace/AIoT/src/LiteOS_Lab/iot_link/network/dtls/mbedtls/mbedtls-2.16.2/include/mbedtls\cipher.h ****     /** Key length, in bits (including parity), for DES keys. */
 216:C:/Users/dtjld/workspace/AIoT/src/LiteOS_Lab/iot_link/network/dtls/mbedtls/mbedtls-2.16.2/include/mbedtls\cipher.h ****     MBEDTLS_KEY_LENGTH_DES  = 64,
 217:C:/Users/dtjld/workspace/AIoT/src/LiteOS_Lab/iot_link/network/dtls/mbedtls/mbedtls-2.16.2/include/mbedtls\cipher.h ****     /** Key length in bits, including parity, for DES in two-key EDE. */
 218:C:/Users/dtjld/workspace/AIoT/src/LiteOS_Lab/iot_link/network/dtls/mbedtls/mbedtls-2.16.2/include/mbedtls\cipher.h ****     MBEDTLS_KEY_LENGTH_DES_EDE = 128,
 219:C:/Users/dtjld/workspace/AIoT/src/LiteOS_Lab/iot_link/network/dtls/mbedtls/mbedtls-2.16.2/include/mbedtls\cipher.h ****     /** Key length in bits, including parity, for DES in three-key EDE. */
 220:C:/Users/dtjld/workspace/AIoT/src/LiteOS_Lab/iot_link/network/dtls/mbedtls/mbedtls-2.16.2/include/mbedtls\cipher.h ****     MBEDTLS_KEY_LENGTH_DES_EDE3 = 192,
 221:C:/Users/dtjld/workspace/AIoT/src/LiteOS_Lab/iot_link/network/dtls/mbedtls/mbedtls-2.16.2/include/mbedtls\cipher.h **** };
 222:C:/Users/dtjld/workspace/AIoT/src/LiteOS_Lab/iot_link/network/dtls/mbedtls/mbedtls-2.16.2/include/mbedtls\cipher.h **** 
 223:C:/Users/dtjld/workspace/AIoT/src/LiteOS_Lab/iot_link/network/dtls/mbedtls/mbedtls-2.16.2/include/mbedtls\cipher.h **** /** Maximum length of any IV, in Bytes. */
 224:C:/Users/dtjld/workspace/AIoT/src/LiteOS_Lab/iot_link/network/dtls/mbedtls/mbedtls-2.16.2/include/mbedtls\cipher.h **** #define MBEDTLS_MAX_IV_LENGTH      16
 225:C:/Users/dtjld/workspace/AIoT/src/LiteOS_Lab/iot_link/network/dtls/mbedtls/mbedtls-2.16.2/include/mbedtls\cipher.h **** /** Maximum block size of any cipher, in Bytes. */
 226:C:/Users/dtjld/workspace/AIoT/src/LiteOS_Lab/iot_link/network/dtls/mbedtls/mbedtls-2.16.2/include/mbedtls\cipher.h **** #define MBEDTLS_MAX_BLOCK_LENGTH   16
 227:C:/Users/dtjld/workspace/AIoT/src/LiteOS_Lab/iot_link/network/dtls/mbedtls/mbedtls-2.16.2/include/mbedtls\cipher.h **** 
 228:C:/Users/dtjld/workspace/AIoT/src/LiteOS_Lab/iot_link/network/dtls/mbedtls/mbedtls-2.16.2/include/mbedtls\cipher.h **** /**
 229:C:/Users/dtjld/workspace/AIoT/src/LiteOS_Lab/iot_link/network/dtls/mbedtls/mbedtls-2.16.2/include/mbedtls\cipher.h ****  * Base cipher information (opaque struct).
 230:C:/Users/dtjld/workspace/AIoT/src/LiteOS_Lab/iot_link/network/dtls/mbedtls/mbedtls-2.16.2/include/mbedtls\cipher.h ****  */
 231:C:/Users/dtjld/workspace/AIoT/src/LiteOS_Lab/iot_link/network/dtls/mbedtls/mbedtls-2.16.2/include/mbedtls\cipher.h **** typedef struct mbedtls_cipher_base_t mbedtls_cipher_base_t;
 232:C:/Users/dtjld/workspace/AIoT/src/LiteOS_Lab/iot_link/network/dtls/mbedtls/mbedtls-2.16.2/include/mbedtls\cipher.h **** 
 233:C:/Users/dtjld/workspace/AIoT/src/LiteOS_Lab/iot_link/network/dtls/mbedtls/mbedtls-2.16.2/include/mbedtls\cipher.h **** /**
 234:C:/Users/dtjld/workspace/AIoT/src/LiteOS_Lab/iot_link/network/dtls/mbedtls/mbedtls-2.16.2/include/mbedtls\cipher.h ****  * CMAC context (opaque struct).
 235:C:/Users/dtjld/workspace/AIoT/src/LiteOS_Lab/iot_link/network/dtls/mbedtls/mbedtls-2.16.2/include/mbedtls\cipher.h ****  */
 236:C:/Users/dtjld/workspace/AIoT/src/LiteOS_Lab/iot_link/network/dtls/mbedtls/mbedtls-2.16.2/include/mbedtls\cipher.h **** typedef struct mbedtls_cmac_context_t mbedtls_cmac_context_t;
 237:C:/Users/dtjld/workspace/AIoT/src/LiteOS_Lab/iot_link/network/dtls/mbedtls/mbedtls-2.16.2/include/mbedtls\cipher.h **** 
 238:C:/Users/dtjld/workspace/AIoT/src/LiteOS_Lab/iot_link/network/dtls/mbedtls/mbedtls-2.16.2/include/mbedtls\cipher.h **** /**
 239:C:/Users/dtjld/workspace/AIoT/src/LiteOS_Lab/iot_link/network/dtls/mbedtls/mbedtls-2.16.2/include/mbedtls\cipher.h ****  * Cipher information. Allows calling cipher functions
 240:C:/Users/dtjld/workspace/AIoT/src/LiteOS_Lab/iot_link/network/dtls/mbedtls/mbedtls-2.16.2/include/mbedtls\cipher.h ****  * in a generic way.
 241:C:/Users/dtjld/workspace/AIoT/src/LiteOS_Lab/iot_link/network/dtls/mbedtls/mbedtls-2.16.2/include/mbedtls\cipher.h ****  */
 242:C:/Users/dtjld/workspace/AIoT/src/LiteOS_Lab/iot_link/network/dtls/mbedtls/mbedtls-2.16.2/include/mbedtls\cipher.h **** typedef struct mbedtls_cipher_info_t
 243:C:/Users/dtjld/workspace/AIoT/src/LiteOS_Lab/iot_link/network/dtls/mbedtls/mbedtls-2.16.2/include/mbedtls\cipher.h **** {
 244:C:/Users/dtjld/workspace/AIoT/src/LiteOS_Lab/iot_link/network/dtls/mbedtls/mbedtls-2.16.2/include/mbedtls\cipher.h ****     /** Full cipher identifier. For example,
 245:C:/Users/dtjld/workspace/AIoT/src/LiteOS_Lab/iot_link/network/dtls/mbedtls/mbedtls-2.16.2/include/mbedtls\cipher.h ****      * MBEDTLS_CIPHER_AES_256_CBC.
 246:C:/Users/dtjld/workspace/AIoT/src/LiteOS_Lab/iot_link/network/dtls/mbedtls/mbedtls-2.16.2/include/mbedtls\cipher.h ****      */
 247:C:/Users/dtjld/workspace/AIoT/src/LiteOS_Lab/iot_link/network/dtls/mbedtls/mbedtls-2.16.2/include/mbedtls\cipher.h ****     mbedtls_cipher_type_t type;
 248:C:/Users/dtjld/workspace/AIoT/src/LiteOS_Lab/iot_link/network/dtls/mbedtls/mbedtls-2.16.2/include/mbedtls\cipher.h **** 
 249:C:/Users/dtjld/workspace/AIoT/src/LiteOS_Lab/iot_link/network/dtls/mbedtls/mbedtls-2.16.2/include/mbedtls\cipher.h ****     /** The cipher mode. For example, MBEDTLS_MODE_CBC. */
 250:C:/Users/dtjld/workspace/AIoT/src/LiteOS_Lab/iot_link/network/dtls/mbedtls/mbedtls-2.16.2/include/mbedtls\cipher.h ****     mbedtls_cipher_mode_t mode;
 251:C:/Users/dtjld/workspace/AIoT/src/LiteOS_Lab/iot_link/network/dtls/mbedtls/mbedtls-2.16.2/include/mbedtls\cipher.h **** 
 252:C:/Users/dtjld/workspace/AIoT/src/LiteOS_Lab/iot_link/network/dtls/mbedtls/mbedtls-2.16.2/include/mbedtls\cipher.h ****     /** The cipher key length, in bits. This is the
 253:C:/Users/dtjld/workspace/AIoT/src/LiteOS_Lab/iot_link/network/dtls/mbedtls/mbedtls-2.16.2/include/mbedtls\cipher.h ****      * default length for variable sized ciphers.
 254:C:/Users/dtjld/workspace/AIoT/src/LiteOS_Lab/iot_link/network/dtls/mbedtls/mbedtls-2.16.2/include/mbedtls\cipher.h ****      * Includes parity bits for ciphers like DES.
 255:C:/Users/dtjld/workspace/AIoT/src/LiteOS_Lab/iot_link/network/dtls/mbedtls/mbedtls-2.16.2/include/mbedtls\cipher.h ****      */
 256:C:/Users/dtjld/workspace/AIoT/src/LiteOS_Lab/iot_link/network/dtls/mbedtls/mbedtls-2.16.2/include/mbedtls\cipher.h ****     unsigned int key_bitlen;
 257:C:/Users/dtjld/workspace/AIoT/src/LiteOS_Lab/iot_link/network/dtls/mbedtls/mbedtls-2.16.2/include/mbedtls\cipher.h **** 
 258:C:/Users/dtjld/workspace/AIoT/src/LiteOS_Lab/iot_link/network/dtls/mbedtls/mbedtls-2.16.2/include/mbedtls\cipher.h ****     /** Name of the cipher. */
 259:C:/Users/dtjld/workspace/AIoT/src/LiteOS_Lab/iot_link/network/dtls/mbedtls/mbedtls-2.16.2/include/mbedtls\cipher.h ****     const char * name;
 260:C:/Users/dtjld/workspace/AIoT/src/LiteOS_Lab/iot_link/network/dtls/mbedtls/mbedtls-2.16.2/include/mbedtls\cipher.h **** 
ARM GAS  C:\Users\dtjld\AppData\Local\Temp\ccnoWzb8.s 			page 6


 261:C:/Users/dtjld/workspace/AIoT/src/LiteOS_Lab/iot_link/network/dtls/mbedtls/mbedtls-2.16.2/include/mbedtls\cipher.h ****     /** IV or nonce size, in Bytes.
 262:C:/Users/dtjld/workspace/AIoT/src/LiteOS_Lab/iot_link/network/dtls/mbedtls/mbedtls-2.16.2/include/mbedtls\cipher.h ****      * For ciphers that accept variable IV sizes,
 263:C:/Users/dtjld/workspace/AIoT/src/LiteOS_Lab/iot_link/network/dtls/mbedtls/mbedtls-2.16.2/include/mbedtls\cipher.h ****      * this is the recommended size.
 264:C:/Users/dtjld/workspace/AIoT/src/LiteOS_Lab/iot_link/network/dtls/mbedtls/mbedtls-2.16.2/include/mbedtls\cipher.h ****      */
 265:C:/Users/dtjld/workspace/AIoT/src/LiteOS_Lab/iot_link/network/dtls/mbedtls/mbedtls-2.16.2/include/mbedtls\cipher.h ****     unsigned int iv_size;
 266:C:/Users/dtjld/workspace/AIoT/src/LiteOS_Lab/iot_link/network/dtls/mbedtls/mbedtls-2.16.2/include/mbedtls\cipher.h **** 
 267:C:/Users/dtjld/workspace/AIoT/src/LiteOS_Lab/iot_link/network/dtls/mbedtls/mbedtls-2.16.2/include/mbedtls\cipher.h ****     /** Bitflag comprised of MBEDTLS_CIPHER_VARIABLE_IV_LEN and
 268:C:/Users/dtjld/workspace/AIoT/src/LiteOS_Lab/iot_link/network/dtls/mbedtls/mbedtls-2.16.2/include/mbedtls\cipher.h ****      *  MBEDTLS_CIPHER_VARIABLE_KEY_LEN indicating whether the
 269:C:/Users/dtjld/workspace/AIoT/src/LiteOS_Lab/iot_link/network/dtls/mbedtls/mbedtls-2.16.2/include/mbedtls\cipher.h ****      *  cipher supports variable IV or variable key sizes, respectively.
 270:C:/Users/dtjld/workspace/AIoT/src/LiteOS_Lab/iot_link/network/dtls/mbedtls/mbedtls-2.16.2/include/mbedtls\cipher.h ****      */
 271:C:/Users/dtjld/workspace/AIoT/src/LiteOS_Lab/iot_link/network/dtls/mbedtls/mbedtls-2.16.2/include/mbedtls\cipher.h ****     int flags;
 272:C:/Users/dtjld/workspace/AIoT/src/LiteOS_Lab/iot_link/network/dtls/mbedtls/mbedtls-2.16.2/include/mbedtls\cipher.h **** 
 273:C:/Users/dtjld/workspace/AIoT/src/LiteOS_Lab/iot_link/network/dtls/mbedtls/mbedtls-2.16.2/include/mbedtls\cipher.h ****     /** The block size, in Bytes. */
 274:C:/Users/dtjld/workspace/AIoT/src/LiteOS_Lab/iot_link/network/dtls/mbedtls/mbedtls-2.16.2/include/mbedtls\cipher.h ****     unsigned int block_size;
 275:C:/Users/dtjld/workspace/AIoT/src/LiteOS_Lab/iot_link/network/dtls/mbedtls/mbedtls-2.16.2/include/mbedtls\cipher.h **** 
 276:C:/Users/dtjld/workspace/AIoT/src/LiteOS_Lab/iot_link/network/dtls/mbedtls/mbedtls-2.16.2/include/mbedtls\cipher.h ****     /** Struct for base cipher information and functions. */
 277:C:/Users/dtjld/workspace/AIoT/src/LiteOS_Lab/iot_link/network/dtls/mbedtls/mbedtls-2.16.2/include/mbedtls\cipher.h ****     const mbedtls_cipher_base_t *base;
 278:C:/Users/dtjld/workspace/AIoT/src/LiteOS_Lab/iot_link/network/dtls/mbedtls/mbedtls-2.16.2/include/mbedtls\cipher.h **** 
 279:C:/Users/dtjld/workspace/AIoT/src/LiteOS_Lab/iot_link/network/dtls/mbedtls/mbedtls-2.16.2/include/mbedtls\cipher.h **** } mbedtls_cipher_info_t;
 280:C:/Users/dtjld/workspace/AIoT/src/LiteOS_Lab/iot_link/network/dtls/mbedtls/mbedtls-2.16.2/include/mbedtls\cipher.h **** 
 281:C:/Users/dtjld/workspace/AIoT/src/LiteOS_Lab/iot_link/network/dtls/mbedtls/mbedtls-2.16.2/include/mbedtls\cipher.h **** /**
 282:C:/Users/dtjld/workspace/AIoT/src/LiteOS_Lab/iot_link/network/dtls/mbedtls/mbedtls-2.16.2/include/mbedtls\cipher.h ****  * Generic cipher context.
 283:C:/Users/dtjld/workspace/AIoT/src/LiteOS_Lab/iot_link/network/dtls/mbedtls/mbedtls-2.16.2/include/mbedtls\cipher.h ****  */
 284:C:/Users/dtjld/workspace/AIoT/src/LiteOS_Lab/iot_link/network/dtls/mbedtls/mbedtls-2.16.2/include/mbedtls\cipher.h **** typedef struct mbedtls_cipher_context_t
 285:C:/Users/dtjld/workspace/AIoT/src/LiteOS_Lab/iot_link/network/dtls/mbedtls/mbedtls-2.16.2/include/mbedtls\cipher.h **** {
 286:C:/Users/dtjld/workspace/AIoT/src/LiteOS_Lab/iot_link/network/dtls/mbedtls/mbedtls-2.16.2/include/mbedtls\cipher.h ****     /** Information about the associated cipher. */
 287:C:/Users/dtjld/workspace/AIoT/src/LiteOS_Lab/iot_link/network/dtls/mbedtls/mbedtls-2.16.2/include/mbedtls\cipher.h ****     const mbedtls_cipher_info_t *cipher_info;
 288:C:/Users/dtjld/workspace/AIoT/src/LiteOS_Lab/iot_link/network/dtls/mbedtls/mbedtls-2.16.2/include/mbedtls\cipher.h **** 
 289:C:/Users/dtjld/workspace/AIoT/src/LiteOS_Lab/iot_link/network/dtls/mbedtls/mbedtls-2.16.2/include/mbedtls\cipher.h ****     /** Key length to use. */
 290:C:/Users/dtjld/workspace/AIoT/src/LiteOS_Lab/iot_link/network/dtls/mbedtls/mbedtls-2.16.2/include/mbedtls\cipher.h ****     int key_bitlen;
 291:C:/Users/dtjld/workspace/AIoT/src/LiteOS_Lab/iot_link/network/dtls/mbedtls/mbedtls-2.16.2/include/mbedtls\cipher.h **** 
 292:C:/Users/dtjld/workspace/AIoT/src/LiteOS_Lab/iot_link/network/dtls/mbedtls/mbedtls-2.16.2/include/mbedtls\cipher.h ****     /** Operation that the key of the context has been
 293:C:/Users/dtjld/workspace/AIoT/src/LiteOS_Lab/iot_link/network/dtls/mbedtls/mbedtls-2.16.2/include/mbedtls\cipher.h ****      * initialized for.
 294:C:/Users/dtjld/workspace/AIoT/src/LiteOS_Lab/iot_link/network/dtls/mbedtls/mbedtls-2.16.2/include/mbedtls\cipher.h ****      */
 295:C:/Users/dtjld/workspace/AIoT/src/LiteOS_Lab/iot_link/network/dtls/mbedtls/mbedtls-2.16.2/include/mbedtls\cipher.h ****     mbedtls_operation_t operation;
 296:C:/Users/dtjld/workspace/AIoT/src/LiteOS_Lab/iot_link/network/dtls/mbedtls/mbedtls-2.16.2/include/mbedtls\cipher.h **** 
 297:C:/Users/dtjld/workspace/AIoT/src/LiteOS_Lab/iot_link/network/dtls/mbedtls/mbedtls-2.16.2/include/mbedtls\cipher.h **** #if defined(MBEDTLS_CIPHER_MODE_WITH_PADDING)
 298:C:/Users/dtjld/workspace/AIoT/src/LiteOS_Lab/iot_link/network/dtls/mbedtls/mbedtls-2.16.2/include/mbedtls\cipher.h ****     /** Padding functions to use, if relevant for
 299:C:/Users/dtjld/workspace/AIoT/src/LiteOS_Lab/iot_link/network/dtls/mbedtls/mbedtls-2.16.2/include/mbedtls\cipher.h ****      * the specific cipher mode.
 300:C:/Users/dtjld/workspace/AIoT/src/LiteOS_Lab/iot_link/network/dtls/mbedtls/mbedtls-2.16.2/include/mbedtls\cipher.h ****      */
 301:C:/Users/dtjld/workspace/AIoT/src/LiteOS_Lab/iot_link/network/dtls/mbedtls/mbedtls-2.16.2/include/mbedtls\cipher.h ****     void (*add_padding)( unsigned char *output, size_t olen, size_t data_len );
 302:C:/Users/dtjld/workspace/AIoT/src/LiteOS_Lab/iot_link/network/dtls/mbedtls/mbedtls-2.16.2/include/mbedtls\cipher.h ****     int (*get_padding)( unsigned char *input, size_t ilen, size_t *data_len );
 303:C:/Users/dtjld/workspace/AIoT/src/LiteOS_Lab/iot_link/network/dtls/mbedtls/mbedtls-2.16.2/include/mbedtls\cipher.h **** #endif
 304:C:/Users/dtjld/workspace/AIoT/src/LiteOS_Lab/iot_link/network/dtls/mbedtls/mbedtls-2.16.2/include/mbedtls\cipher.h **** 
 305:C:/Users/dtjld/workspace/AIoT/src/LiteOS_Lab/iot_link/network/dtls/mbedtls/mbedtls-2.16.2/include/mbedtls\cipher.h ****     /** Buffer for input that has not been processed yet. */
 306:C:/Users/dtjld/workspace/AIoT/src/LiteOS_Lab/iot_link/network/dtls/mbedtls/mbedtls-2.16.2/include/mbedtls\cipher.h ****     unsigned char unprocessed_data[MBEDTLS_MAX_BLOCK_LENGTH];
 307:C:/Users/dtjld/workspace/AIoT/src/LiteOS_Lab/iot_link/network/dtls/mbedtls/mbedtls-2.16.2/include/mbedtls\cipher.h **** 
 308:C:/Users/dtjld/workspace/AIoT/src/LiteOS_Lab/iot_link/network/dtls/mbedtls/mbedtls-2.16.2/include/mbedtls\cipher.h ****     /** Number of Bytes that have not been processed yet. */
 309:C:/Users/dtjld/workspace/AIoT/src/LiteOS_Lab/iot_link/network/dtls/mbedtls/mbedtls-2.16.2/include/mbedtls\cipher.h ****     size_t unprocessed_len;
 310:C:/Users/dtjld/workspace/AIoT/src/LiteOS_Lab/iot_link/network/dtls/mbedtls/mbedtls-2.16.2/include/mbedtls\cipher.h **** 
 311:C:/Users/dtjld/workspace/AIoT/src/LiteOS_Lab/iot_link/network/dtls/mbedtls/mbedtls-2.16.2/include/mbedtls\cipher.h ****     /** Current IV or NONCE_COUNTER for CTR-mode, data unit (or sector) number
 312:C:/Users/dtjld/workspace/AIoT/src/LiteOS_Lab/iot_link/network/dtls/mbedtls/mbedtls-2.16.2/include/mbedtls\cipher.h ****      * for XTS-mode. */
 313:C:/Users/dtjld/workspace/AIoT/src/LiteOS_Lab/iot_link/network/dtls/mbedtls/mbedtls-2.16.2/include/mbedtls\cipher.h ****     unsigned char iv[MBEDTLS_MAX_IV_LENGTH];
 314:C:/Users/dtjld/workspace/AIoT/src/LiteOS_Lab/iot_link/network/dtls/mbedtls/mbedtls-2.16.2/include/mbedtls\cipher.h **** 
 315:C:/Users/dtjld/workspace/AIoT/src/LiteOS_Lab/iot_link/network/dtls/mbedtls/mbedtls-2.16.2/include/mbedtls\cipher.h ****     /** IV size in Bytes, for ciphers with variable-length IVs. */
 316:C:/Users/dtjld/workspace/AIoT/src/LiteOS_Lab/iot_link/network/dtls/mbedtls/mbedtls-2.16.2/include/mbedtls\cipher.h ****     size_t iv_size;
 317:C:/Users/dtjld/workspace/AIoT/src/LiteOS_Lab/iot_link/network/dtls/mbedtls/mbedtls-2.16.2/include/mbedtls\cipher.h **** 
ARM GAS  C:\Users\dtjld\AppData\Local\Temp\ccnoWzb8.s 			page 7


 318:C:/Users/dtjld/workspace/AIoT/src/LiteOS_Lab/iot_link/network/dtls/mbedtls/mbedtls-2.16.2/include/mbedtls\cipher.h ****     /** The cipher-specific context. */
 319:C:/Users/dtjld/workspace/AIoT/src/LiteOS_Lab/iot_link/network/dtls/mbedtls/mbedtls-2.16.2/include/mbedtls\cipher.h ****     void *cipher_ctx;
 320:C:/Users/dtjld/workspace/AIoT/src/LiteOS_Lab/iot_link/network/dtls/mbedtls/mbedtls-2.16.2/include/mbedtls\cipher.h **** 
 321:C:/Users/dtjld/workspace/AIoT/src/LiteOS_Lab/iot_link/network/dtls/mbedtls/mbedtls-2.16.2/include/mbedtls\cipher.h **** #if defined(MBEDTLS_CMAC_C)
 322:C:/Users/dtjld/workspace/AIoT/src/LiteOS_Lab/iot_link/network/dtls/mbedtls/mbedtls-2.16.2/include/mbedtls\cipher.h ****     /** CMAC-specific context. */
 323:C:/Users/dtjld/workspace/AIoT/src/LiteOS_Lab/iot_link/network/dtls/mbedtls/mbedtls-2.16.2/include/mbedtls\cipher.h ****     mbedtls_cmac_context_t *cmac_ctx;
 324:C:/Users/dtjld/workspace/AIoT/src/LiteOS_Lab/iot_link/network/dtls/mbedtls/mbedtls-2.16.2/include/mbedtls\cipher.h **** #endif
 325:C:/Users/dtjld/workspace/AIoT/src/LiteOS_Lab/iot_link/network/dtls/mbedtls/mbedtls-2.16.2/include/mbedtls\cipher.h **** } mbedtls_cipher_context_t;
 326:C:/Users/dtjld/workspace/AIoT/src/LiteOS_Lab/iot_link/network/dtls/mbedtls/mbedtls-2.16.2/include/mbedtls\cipher.h **** 
 327:C:/Users/dtjld/workspace/AIoT/src/LiteOS_Lab/iot_link/network/dtls/mbedtls/mbedtls-2.16.2/include/mbedtls\cipher.h **** /**
 328:C:/Users/dtjld/workspace/AIoT/src/LiteOS_Lab/iot_link/network/dtls/mbedtls/mbedtls-2.16.2/include/mbedtls\cipher.h ****  * \brief This function retrieves the list of ciphers supported by the generic
 329:C:/Users/dtjld/workspace/AIoT/src/LiteOS_Lab/iot_link/network/dtls/mbedtls/mbedtls-2.16.2/include/mbedtls\cipher.h ****  * cipher module.
 330:C:/Users/dtjld/workspace/AIoT/src/LiteOS_Lab/iot_link/network/dtls/mbedtls/mbedtls-2.16.2/include/mbedtls\cipher.h ****  *
 331:C:/Users/dtjld/workspace/AIoT/src/LiteOS_Lab/iot_link/network/dtls/mbedtls/mbedtls-2.16.2/include/mbedtls\cipher.h ****  * \return      A statically-allocated array of ciphers. The last entry
 332:C:/Users/dtjld/workspace/AIoT/src/LiteOS_Lab/iot_link/network/dtls/mbedtls/mbedtls-2.16.2/include/mbedtls\cipher.h ****  *              is zero.
 333:C:/Users/dtjld/workspace/AIoT/src/LiteOS_Lab/iot_link/network/dtls/mbedtls/mbedtls-2.16.2/include/mbedtls\cipher.h ****  */
 334:C:/Users/dtjld/workspace/AIoT/src/LiteOS_Lab/iot_link/network/dtls/mbedtls/mbedtls-2.16.2/include/mbedtls\cipher.h **** const int *mbedtls_cipher_list( void );
 335:C:/Users/dtjld/workspace/AIoT/src/LiteOS_Lab/iot_link/network/dtls/mbedtls/mbedtls-2.16.2/include/mbedtls\cipher.h **** 
 336:C:/Users/dtjld/workspace/AIoT/src/LiteOS_Lab/iot_link/network/dtls/mbedtls/mbedtls-2.16.2/include/mbedtls\cipher.h **** /**
 337:C:/Users/dtjld/workspace/AIoT/src/LiteOS_Lab/iot_link/network/dtls/mbedtls/mbedtls-2.16.2/include/mbedtls\cipher.h ****  * \brief               This function retrieves the cipher-information
 338:C:/Users/dtjld/workspace/AIoT/src/LiteOS_Lab/iot_link/network/dtls/mbedtls/mbedtls-2.16.2/include/mbedtls\cipher.h ****  *                      structure associated with the given cipher name.
 339:C:/Users/dtjld/workspace/AIoT/src/LiteOS_Lab/iot_link/network/dtls/mbedtls/mbedtls-2.16.2/include/mbedtls\cipher.h ****  *
 340:C:/Users/dtjld/workspace/AIoT/src/LiteOS_Lab/iot_link/network/dtls/mbedtls/mbedtls-2.16.2/include/mbedtls\cipher.h ****  * \param cipher_name   Name of the cipher to search for. This must not be
 341:C:/Users/dtjld/workspace/AIoT/src/LiteOS_Lab/iot_link/network/dtls/mbedtls/mbedtls-2.16.2/include/mbedtls\cipher.h ****  *                      \c NULL.
 342:C:/Users/dtjld/workspace/AIoT/src/LiteOS_Lab/iot_link/network/dtls/mbedtls/mbedtls-2.16.2/include/mbedtls\cipher.h ****  *
 343:C:/Users/dtjld/workspace/AIoT/src/LiteOS_Lab/iot_link/network/dtls/mbedtls/mbedtls-2.16.2/include/mbedtls\cipher.h ****  * \return              The cipher information structure associated with the
 344:C:/Users/dtjld/workspace/AIoT/src/LiteOS_Lab/iot_link/network/dtls/mbedtls/mbedtls-2.16.2/include/mbedtls\cipher.h ****  *                      given \p cipher_name.
 345:C:/Users/dtjld/workspace/AIoT/src/LiteOS_Lab/iot_link/network/dtls/mbedtls/mbedtls-2.16.2/include/mbedtls\cipher.h ****  * \return              \c NULL if the associated cipher information is not found.
 346:C:/Users/dtjld/workspace/AIoT/src/LiteOS_Lab/iot_link/network/dtls/mbedtls/mbedtls-2.16.2/include/mbedtls\cipher.h ****  */
 347:C:/Users/dtjld/workspace/AIoT/src/LiteOS_Lab/iot_link/network/dtls/mbedtls/mbedtls-2.16.2/include/mbedtls\cipher.h **** const mbedtls_cipher_info_t *mbedtls_cipher_info_from_string( const char *cipher_name );
 348:C:/Users/dtjld/workspace/AIoT/src/LiteOS_Lab/iot_link/network/dtls/mbedtls/mbedtls-2.16.2/include/mbedtls\cipher.h **** 
 349:C:/Users/dtjld/workspace/AIoT/src/LiteOS_Lab/iot_link/network/dtls/mbedtls/mbedtls-2.16.2/include/mbedtls\cipher.h **** /**
 350:C:/Users/dtjld/workspace/AIoT/src/LiteOS_Lab/iot_link/network/dtls/mbedtls/mbedtls-2.16.2/include/mbedtls\cipher.h ****  * \brief               This function retrieves the cipher-information
 351:C:/Users/dtjld/workspace/AIoT/src/LiteOS_Lab/iot_link/network/dtls/mbedtls/mbedtls-2.16.2/include/mbedtls\cipher.h ****  *                      structure associated with the given cipher type.
 352:C:/Users/dtjld/workspace/AIoT/src/LiteOS_Lab/iot_link/network/dtls/mbedtls/mbedtls-2.16.2/include/mbedtls\cipher.h ****  *
 353:C:/Users/dtjld/workspace/AIoT/src/LiteOS_Lab/iot_link/network/dtls/mbedtls/mbedtls-2.16.2/include/mbedtls\cipher.h ****  * \param cipher_type   Type of the cipher to search for.
 354:C:/Users/dtjld/workspace/AIoT/src/LiteOS_Lab/iot_link/network/dtls/mbedtls/mbedtls-2.16.2/include/mbedtls\cipher.h ****  *
 355:C:/Users/dtjld/workspace/AIoT/src/LiteOS_Lab/iot_link/network/dtls/mbedtls/mbedtls-2.16.2/include/mbedtls\cipher.h ****  * \return              The cipher information structure associated with the
 356:C:/Users/dtjld/workspace/AIoT/src/LiteOS_Lab/iot_link/network/dtls/mbedtls/mbedtls-2.16.2/include/mbedtls\cipher.h ****  *                      given \p cipher_type.
 357:C:/Users/dtjld/workspace/AIoT/src/LiteOS_Lab/iot_link/network/dtls/mbedtls/mbedtls-2.16.2/include/mbedtls\cipher.h ****  * \return              \c NULL if the associated cipher information is not found.
 358:C:/Users/dtjld/workspace/AIoT/src/LiteOS_Lab/iot_link/network/dtls/mbedtls/mbedtls-2.16.2/include/mbedtls\cipher.h ****  */
 359:C:/Users/dtjld/workspace/AIoT/src/LiteOS_Lab/iot_link/network/dtls/mbedtls/mbedtls-2.16.2/include/mbedtls\cipher.h **** const mbedtls_cipher_info_t *mbedtls_cipher_info_from_type( const mbedtls_cipher_type_t cipher_type
 360:C:/Users/dtjld/workspace/AIoT/src/LiteOS_Lab/iot_link/network/dtls/mbedtls/mbedtls-2.16.2/include/mbedtls\cipher.h **** 
 361:C:/Users/dtjld/workspace/AIoT/src/LiteOS_Lab/iot_link/network/dtls/mbedtls/mbedtls-2.16.2/include/mbedtls\cipher.h **** /**
 362:C:/Users/dtjld/workspace/AIoT/src/LiteOS_Lab/iot_link/network/dtls/mbedtls/mbedtls-2.16.2/include/mbedtls\cipher.h ****  * \brief               This function retrieves the cipher-information
 363:C:/Users/dtjld/workspace/AIoT/src/LiteOS_Lab/iot_link/network/dtls/mbedtls/mbedtls-2.16.2/include/mbedtls\cipher.h ****  *                      structure associated with the given cipher ID,
 364:C:/Users/dtjld/workspace/AIoT/src/LiteOS_Lab/iot_link/network/dtls/mbedtls/mbedtls-2.16.2/include/mbedtls\cipher.h ****  *                      key size and mode.
 365:C:/Users/dtjld/workspace/AIoT/src/LiteOS_Lab/iot_link/network/dtls/mbedtls/mbedtls-2.16.2/include/mbedtls\cipher.h ****  *
 366:C:/Users/dtjld/workspace/AIoT/src/LiteOS_Lab/iot_link/network/dtls/mbedtls/mbedtls-2.16.2/include/mbedtls\cipher.h ****  * \param cipher_id     The ID of the cipher to search for. For example,
 367:C:/Users/dtjld/workspace/AIoT/src/LiteOS_Lab/iot_link/network/dtls/mbedtls/mbedtls-2.16.2/include/mbedtls\cipher.h ****  *                      #MBEDTLS_CIPHER_ID_AES.
 368:C:/Users/dtjld/workspace/AIoT/src/LiteOS_Lab/iot_link/network/dtls/mbedtls/mbedtls-2.16.2/include/mbedtls\cipher.h ****  * \param key_bitlen    The length of the key in bits.
 369:C:/Users/dtjld/workspace/AIoT/src/LiteOS_Lab/iot_link/network/dtls/mbedtls/mbedtls-2.16.2/include/mbedtls\cipher.h ****  * \param mode          The cipher mode. For example, #MBEDTLS_MODE_CBC.
 370:C:/Users/dtjld/workspace/AIoT/src/LiteOS_Lab/iot_link/network/dtls/mbedtls/mbedtls-2.16.2/include/mbedtls\cipher.h ****  *
 371:C:/Users/dtjld/workspace/AIoT/src/LiteOS_Lab/iot_link/network/dtls/mbedtls/mbedtls-2.16.2/include/mbedtls\cipher.h ****  * \return              The cipher information structure associated with the
 372:C:/Users/dtjld/workspace/AIoT/src/LiteOS_Lab/iot_link/network/dtls/mbedtls/mbedtls-2.16.2/include/mbedtls\cipher.h ****  *                      given \p cipher_id.
 373:C:/Users/dtjld/workspace/AIoT/src/LiteOS_Lab/iot_link/network/dtls/mbedtls/mbedtls-2.16.2/include/mbedtls\cipher.h ****  * \return              \c NULL if the associated cipher information is not found.
 374:C:/Users/dtjld/workspace/AIoT/src/LiteOS_Lab/iot_link/network/dtls/mbedtls/mbedtls-2.16.2/include/mbedtls\cipher.h ****  */
ARM GAS  C:\Users\dtjld\AppData\Local\Temp\ccnoWzb8.s 			page 8


 375:C:/Users/dtjld/workspace/AIoT/src/LiteOS_Lab/iot_link/network/dtls/mbedtls/mbedtls-2.16.2/include/mbedtls\cipher.h **** const mbedtls_cipher_info_t *mbedtls_cipher_info_from_values( const mbedtls_cipher_id_t cipher_id,
 376:C:/Users/dtjld/workspace/AIoT/src/LiteOS_Lab/iot_link/network/dtls/mbedtls/mbedtls-2.16.2/include/mbedtls\cipher.h ****                                               int key_bitlen,
 377:C:/Users/dtjld/workspace/AIoT/src/LiteOS_Lab/iot_link/network/dtls/mbedtls/mbedtls-2.16.2/include/mbedtls\cipher.h ****                                               const mbedtls_cipher_mode_t mode );
 378:C:/Users/dtjld/workspace/AIoT/src/LiteOS_Lab/iot_link/network/dtls/mbedtls/mbedtls-2.16.2/include/mbedtls\cipher.h **** 
 379:C:/Users/dtjld/workspace/AIoT/src/LiteOS_Lab/iot_link/network/dtls/mbedtls/mbedtls-2.16.2/include/mbedtls\cipher.h **** /**
 380:C:/Users/dtjld/workspace/AIoT/src/LiteOS_Lab/iot_link/network/dtls/mbedtls/mbedtls-2.16.2/include/mbedtls\cipher.h ****  * \brief               This function initializes a \p cipher_context as NONE.
 381:C:/Users/dtjld/workspace/AIoT/src/LiteOS_Lab/iot_link/network/dtls/mbedtls/mbedtls-2.16.2/include/mbedtls\cipher.h ****  *
 382:C:/Users/dtjld/workspace/AIoT/src/LiteOS_Lab/iot_link/network/dtls/mbedtls/mbedtls-2.16.2/include/mbedtls\cipher.h ****  * \param ctx           The context to be initialized. This must not be \c NULL.
 383:C:/Users/dtjld/workspace/AIoT/src/LiteOS_Lab/iot_link/network/dtls/mbedtls/mbedtls-2.16.2/include/mbedtls\cipher.h ****  */
 384:C:/Users/dtjld/workspace/AIoT/src/LiteOS_Lab/iot_link/network/dtls/mbedtls/mbedtls-2.16.2/include/mbedtls\cipher.h **** void mbedtls_cipher_init( mbedtls_cipher_context_t *ctx );
 385:C:/Users/dtjld/workspace/AIoT/src/LiteOS_Lab/iot_link/network/dtls/mbedtls/mbedtls-2.16.2/include/mbedtls\cipher.h **** 
 386:C:/Users/dtjld/workspace/AIoT/src/LiteOS_Lab/iot_link/network/dtls/mbedtls/mbedtls-2.16.2/include/mbedtls\cipher.h **** /**
 387:C:/Users/dtjld/workspace/AIoT/src/LiteOS_Lab/iot_link/network/dtls/mbedtls/mbedtls-2.16.2/include/mbedtls\cipher.h ****  * \brief               This function frees and clears the cipher-specific
 388:C:/Users/dtjld/workspace/AIoT/src/LiteOS_Lab/iot_link/network/dtls/mbedtls/mbedtls-2.16.2/include/mbedtls\cipher.h ****  *                      context of \p ctx. Freeing \p ctx itself remains the
 389:C:/Users/dtjld/workspace/AIoT/src/LiteOS_Lab/iot_link/network/dtls/mbedtls/mbedtls-2.16.2/include/mbedtls\cipher.h ****  *                      responsibility of the caller.
 390:C:/Users/dtjld/workspace/AIoT/src/LiteOS_Lab/iot_link/network/dtls/mbedtls/mbedtls-2.16.2/include/mbedtls\cipher.h ****  *
 391:C:/Users/dtjld/workspace/AIoT/src/LiteOS_Lab/iot_link/network/dtls/mbedtls/mbedtls-2.16.2/include/mbedtls\cipher.h ****  * \param ctx           The context to be freed. If this is \c NULL, the
 392:C:/Users/dtjld/workspace/AIoT/src/LiteOS_Lab/iot_link/network/dtls/mbedtls/mbedtls-2.16.2/include/mbedtls\cipher.h ****  *                      function has no effect, otherwise this must point to an
 393:C:/Users/dtjld/workspace/AIoT/src/LiteOS_Lab/iot_link/network/dtls/mbedtls/mbedtls-2.16.2/include/mbedtls\cipher.h ****  *                      initialized context.
 394:C:/Users/dtjld/workspace/AIoT/src/LiteOS_Lab/iot_link/network/dtls/mbedtls/mbedtls-2.16.2/include/mbedtls\cipher.h ****  */
 395:C:/Users/dtjld/workspace/AIoT/src/LiteOS_Lab/iot_link/network/dtls/mbedtls/mbedtls-2.16.2/include/mbedtls\cipher.h **** void mbedtls_cipher_free( mbedtls_cipher_context_t *ctx );
 396:C:/Users/dtjld/workspace/AIoT/src/LiteOS_Lab/iot_link/network/dtls/mbedtls/mbedtls-2.16.2/include/mbedtls\cipher.h **** 
 397:C:/Users/dtjld/workspace/AIoT/src/LiteOS_Lab/iot_link/network/dtls/mbedtls/mbedtls-2.16.2/include/mbedtls\cipher.h **** 
 398:C:/Users/dtjld/workspace/AIoT/src/LiteOS_Lab/iot_link/network/dtls/mbedtls/mbedtls-2.16.2/include/mbedtls\cipher.h **** /**
 399:C:/Users/dtjld/workspace/AIoT/src/LiteOS_Lab/iot_link/network/dtls/mbedtls/mbedtls-2.16.2/include/mbedtls\cipher.h ****  * \brief               This function initializes and fills the cipher-context
 400:C:/Users/dtjld/workspace/AIoT/src/LiteOS_Lab/iot_link/network/dtls/mbedtls/mbedtls-2.16.2/include/mbedtls\cipher.h ****  *                      structure with the appropriate values. It also clears
 401:C:/Users/dtjld/workspace/AIoT/src/LiteOS_Lab/iot_link/network/dtls/mbedtls/mbedtls-2.16.2/include/mbedtls\cipher.h ****  *                      the structure.
 402:C:/Users/dtjld/workspace/AIoT/src/LiteOS_Lab/iot_link/network/dtls/mbedtls/mbedtls-2.16.2/include/mbedtls\cipher.h ****  *
 403:C:/Users/dtjld/workspace/AIoT/src/LiteOS_Lab/iot_link/network/dtls/mbedtls/mbedtls-2.16.2/include/mbedtls\cipher.h ****  * \param ctx           The context to initialize. This must be initialized.
 404:C:/Users/dtjld/workspace/AIoT/src/LiteOS_Lab/iot_link/network/dtls/mbedtls/mbedtls-2.16.2/include/mbedtls\cipher.h ****  * \param cipher_info   The cipher to use.
 405:C:/Users/dtjld/workspace/AIoT/src/LiteOS_Lab/iot_link/network/dtls/mbedtls/mbedtls-2.16.2/include/mbedtls\cipher.h ****  *
 406:C:/Users/dtjld/workspace/AIoT/src/LiteOS_Lab/iot_link/network/dtls/mbedtls/mbedtls-2.16.2/include/mbedtls\cipher.h ****  * \return              \c 0 on success.
 407:C:/Users/dtjld/workspace/AIoT/src/LiteOS_Lab/iot_link/network/dtls/mbedtls/mbedtls-2.16.2/include/mbedtls\cipher.h ****  * \return              #MBEDTLS_ERR_CIPHER_BAD_INPUT_DATA on
 408:C:/Users/dtjld/workspace/AIoT/src/LiteOS_Lab/iot_link/network/dtls/mbedtls/mbedtls-2.16.2/include/mbedtls\cipher.h ****  *                      parameter-verification failure.
 409:C:/Users/dtjld/workspace/AIoT/src/LiteOS_Lab/iot_link/network/dtls/mbedtls/mbedtls-2.16.2/include/mbedtls\cipher.h ****  * \return              #MBEDTLS_ERR_CIPHER_ALLOC_FAILED if allocation of the
 410:C:/Users/dtjld/workspace/AIoT/src/LiteOS_Lab/iot_link/network/dtls/mbedtls/mbedtls-2.16.2/include/mbedtls\cipher.h ****  *                      cipher-specific context fails.
 411:C:/Users/dtjld/workspace/AIoT/src/LiteOS_Lab/iot_link/network/dtls/mbedtls/mbedtls-2.16.2/include/mbedtls\cipher.h ****  *
 412:C:/Users/dtjld/workspace/AIoT/src/LiteOS_Lab/iot_link/network/dtls/mbedtls/mbedtls-2.16.2/include/mbedtls\cipher.h ****  * \internal Currently, the function also clears the structure.
 413:C:/Users/dtjld/workspace/AIoT/src/LiteOS_Lab/iot_link/network/dtls/mbedtls/mbedtls-2.16.2/include/mbedtls\cipher.h ****  * In future versions, the caller will be required to call
 414:C:/Users/dtjld/workspace/AIoT/src/LiteOS_Lab/iot_link/network/dtls/mbedtls/mbedtls-2.16.2/include/mbedtls\cipher.h ****  * mbedtls_cipher_init() on the structure first.
 415:C:/Users/dtjld/workspace/AIoT/src/LiteOS_Lab/iot_link/network/dtls/mbedtls/mbedtls-2.16.2/include/mbedtls\cipher.h ****  */
 416:C:/Users/dtjld/workspace/AIoT/src/LiteOS_Lab/iot_link/network/dtls/mbedtls/mbedtls-2.16.2/include/mbedtls\cipher.h **** int mbedtls_cipher_setup( mbedtls_cipher_context_t *ctx,
 417:C:/Users/dtjld/workspace/AIoT/src/LiteOS_Lab/iot_link/network/dtls/mbedtls/mbedtls-2.16.2/include/mbedtls\cipher.h ****                           const mbedtls_cipher_info_t *cipher_info );
 418:C:/Users/dtjld/workspace/AIoT/src/LiteOS_Lab/iot_link/network/dtls/mbedtls/mbedtls-2.16.2/include/mbedtls\cipher.h **** 
 419:C:/Users/dtjld/workspace/AIoT/src/LiteOS_Lab/iot_link/network/dtls/mbedtls/mbedtls-2.16.2/include/mbedtls\cipher.h **** /**
 420:C:/Users/dtjld/workspace/AIoT/src/LiteOS_Lab/iot_link/network/dtls/mbedtls/mbedtls-2.16.2/include/mbedtls\cipher.h ****  * \brief        This function returns the block size of the given cipher.
 421:C:/Users/dtjld/workspace/AIoT/src/LiteOS_Lab/iot_link/network/dtls/mbedtls/mbedtls-2.16.2/include/mbedtls\cipher.h ****  *
 422:C:/Users/dtjld/workspace/AIoT/src/LiteOS_Lab/iot_link/network/dtls/mbedtls/mbedtls-2.16.2/include/mbedtls\cipher.h ****  * \param ctx    The context of the cipher. This must be initialized.
 423:C:/Users/dtjld/workspace/AIoT/src/LiteOS_Lab/iot_link/network/dtls/mbedtls/mbedtls-2.16.2/include/mbedtls\cipher.h ****  *
 424:C:/Users/dtjld/workspace/AIoT/src/LiteOS_Lab/iot_link/network/dtls/mbedtls/mbedtls-2.16.2/include/mbedtls\cipher.h ****  * \return       The block size of the underlying cipher.
 425:C:/Users/dtjld/workspace/AIoT/src/LiteOS_Lab/iot_link/network/dtls/mbedtls/mbedtls-2.16.2/include/mbedtls\cipher.h ****  * \return       \c 0 if \p ctx has not been initialized.
 426:C:/Users/dtjld/workspace/AIoT/src/LiteOS_Lab/iot_link/network/dtls/mbedtls/mbedtls-2.16.2/include/mbedtls\cipher.h ****  */
 427:C:/Users/dtjld/workspace/AIoT/src/LiteOS_Lab/iot_link/network/dtls/mbedtls/mbedtls-2.16.2/include/mbedtls\cipher.h **** static inline unsigned int mbedtls_cipher_get_block_size(
 428:C:/Users/dtjld/workspace/AIoT/src/LiteOS_Lab/iot_link/network/dtls/mbedtls/mbedtls-2.16.2/include/mbedtls\cipher.h ****     const mbedtls_cipher_context_t *ctx )
 429:C:/Users/dtjld/workspace/AIoT/src/LiteOS_Lab/iot_link/network/dtls/mbedtls/mbedtls-2.16.2/include/mbedtls\cipher.h **** {
 430:C:/Users/dtjld/workspace/AIoT/src/LiteOS_Lab/iot_link/network/dtls/mbedtls/mbedtls-2.16.2/include/mbedtls\cipher.h ****     MBEDTLS_INTERNAL_VALIDATE_RET( ctx != NULL, 0 );
 431:C:/Users/dtjld/workspace/AIoT/src/LiteOS_Lab/iot_link/network/dtls/mbedtls/mbedtls-2.16.2/include/mbedtls\cipher.h ****     if( ctx->cipher_info == NULL )
ARM GAS  C:\Users\dtjld\AppData\Local\Temp\ccnoWzb8.s 			page 9


 432:C:/Users/dtjld/workspace/AIoT/src/LiteOS_Lab/iot_link/network/dtls/mbedtls/mbedtls-2.16.2/include/mbedtls\cipher.h ****         return 0;
 433:C:/Users/dtjld/workspace/AIoT/src/LiteOS_Lab/iot_link/network/dtls/mbedtls/mbedtls-2.16.2/include/mbedtls\cipher.h **** 
 434:C:/Users/dtjld/workspace/AIoT/src/LiteOS_Lab/iot_link/network/dtls/mbedtls/mbedtls-2.16.2/include/mbedtls\cipher.h ****     return ctx->cipher_info->block_size;
 435:C:/Users/dtjld/workspace/AIoT/src/LiteOS_Lab/iot_link/network/dtls/mbedtls/mbedtls-2.16.2/include/mbedtls\cipher.h **** }
 436:C:/Users/dtjld/workspace/AIoT/src/LiteOS_Lab/iot_link/network/dtls/mbedtls/mbedtls-2.16.2/include/mbedtls\cipher.h **** 
 437:C:/Users/dtjld/workspace/AIoT/src/LiteOS_Lab/iot_link/network/dtls/mbedtls/mbedtls-2.16.2/include/mbedtls\cipher.h **** /**
 438:C:/Users/dtjld/workspace/AIoT/src/LiteOS_Lab/iot_link/network/dtls/mbedtls/mbedtls-2.16.2/include/mbedtls\cipher.h ****  * \brief        This function returns the mode of operation for
 439:C:/Users/dtjld/workspace/AIoT/src/LiteOS_Lab/iot_link/network/dtls/mbedtls/mbedtls-2.16.2/include/mbedtls\cipher.h ****  *               the cipher. For example, MBEDTLS_MODE_CBC.
 440:C:/Users/dtjld/workspace/AIoT/src/LiteOS_Lab/iot_link/network/dtls/mbedtls/mbedtls-2.16.2/include/mbedtls\cipher.h ****  *
 441:C:/Users/dtjld/workspace/AIoT/src/LiteOS_Lab/iot_link/network/dtls/mbedtls/mbedtls-2.16.2/include/mbedtls\cipher.h ****  * \param ctx    The context of the cipher. This must be initialized.
 442:C:/Users/dtjld/workspace/AIoT/src/LiteOS_Lab/iot_link/network/dtls/mbedtls/mbedtls-2.16.2/include/mbedtls\cipher.h ****  *
 443:C:/Users/dtjld/workspace/AIoT/src/LiteOS_Lab/iot_link/network/dtls/mbedtls/mbedtls-2.16.2/include/mbedtls\cipher.h ****  * \return       The mode of operation.
 444:C:/Users/dtjld/workspace/AIoT/src/LiteOS_Lab/iot_link/network/dtls/mbedtls/mbedtls-2.16.2/include/mbedtls\cipher.h ****  * \return       #MBEDTLS_MODE_NONE if \p ctx has not been initialized.
 445:C:/Users/dtjld/workspace/AIoT/src/LiteOS_Lab/iot_link/network/dtls/mbedtls/mbedtls-2.16.2/include/mbedtls\cipher.h ****  */
 446:C:/Users/dtjld/workspace/AIoT/src/LiteOS_Lab/iot_link/network/dtls/mbedtls/mbedtls-2.16.2/include/mbedtls\cipher.h **** static inline mbedtls_cipher_mode_t mbedtls_cipher_get_cipher_mode(
 447:C:/Users/dtjld/workspace/AIoT/src/LiteOS_Lab/iot_link/network/dtls/mbedtls/mbedtls-2.16.2/include/mbedtls\cipher.h ****     const mbedtls_cipher_context_t *ctx )
 448:C:/Users/dtjld/workspace/AIoT/src/LiteOS_Lab/iot_link/network/dtls/mbedtls/mbedtls-2.16.2/include/mbedtls\cipher.h **** {
 449:C:/Users/dtjld/workspace/AIoT/src/LiteOS_Lab/iot_link/network/dtls/mbedtls/mbedtls-2.16.2/include/mbedtls\cipher.h ****     MBEDTLS_INTERNAL_VALIDATE_RET( ctx != NULL, MBEDTLS_MODE_NONE );
 450:C:/Users/dtjld/workspace/AIoT/src/LiteOS_Lab/iot_link/network/dtls/mbedtls/mbedtls-2.16.2/include/mbedtls\cipher.h ****     if( ctx->cipher_info == NULL )
 451:C:/Users/dtjld/workspace/AIoT/src/LiteOS_Lab/iot_link/network/dtls/mbedtls/mbedtls-2.16.2/include/mbedtls\cipher.h ****         return MBEDTLS_MODE_NONE;
 452:C:/Users/dtjld/workspace/AIoT/src/LiteOS_Lab/iot_link/network/dtls/mbedtls/mbedtls-2.16.2/include/mbedtls\cipher.h **** 
 453:C:/Users/dtjld/workspace/AIoT/src/LiteOS_Lab/iot_link/network/dtls/mbedtls/mbedtls-2.16.2/include/mbedtls\cipher.h ****     return ctx->cipher_info->mode;
 454:C:/Users/dtjld/workspace/AIoT/src/LiteOS_Lab/iot_link/network/dtls/mbedtls/mbedtls-2.16.2/include/mbedtls\cipher.h **** }
 455:C:/Users/dtjld/workspace/AIoT/src/LiteOS_Lab/iot_link/network/dtls/mbedtls/mbedtls-2.16.2/include/mbedtls\cipher.h **** 
 456:C:/Users/dtjld/workspace/AIoT/src/LiteOS_Lab/iot_link/network/dtls/mbedtls/mbedtls-2.16.2/include/mbedtls\cipher.h **** /**
 457:C:/Users/dtjld/workspace/AIoT/src/LiteOS_Lab/iot_link/network/dtls/mbedtls/mbedtls-2.16.2/include/mbedtls\cipher.h ****  * \brief       This function returns the size of the IV or nonce
 458:C:/Users/dtjld/workspace/AIoT/src/LiteOS_Lab/iot_link/network/dtls/mbedtls/mbedtls-2.16.2/include/mbedtls\cipher.h ****  *              of the cipher, in Bytes.
 459:C:/Users/dtjld/workspace/AIoT/src/LiteOS_Lab/iot_link/network/dtls/mbedtls/mbedtls-2.16.2/include/mbedtls\cipher.h ****  *
 460:C:/Users/dtjld/workspace/AIoT/src/LiteOS_Lab/iot_link/network/dtls/mbedtls/mbedtls-2.16.2/include/mbedtls\cipher.h ****  * \param ctx   The context of the cipher. This must be initialized.
 461:C:/Users/dtjld/workspace/AIoT/src/LiteOS_Lab/iot_link/network/dtls/mbedtls/mbedtls-2.16.2/include/mbedtls\cipher.h ****  *
 462:C:/Users/dtjld/workspace/AIoT/src/LiteOS_Lab/iot_link/network/dtls/mbedtls/mbedtls-2.16.2/include/mbedtls\cipher.h ****  * \return      The recommended IV size if no IV has been set.
 463:C:/Users/dtjld/workspace/AIoT/src/LiteOS_Lab/iot_link/network/dtls/mbedtls/mbedtls-2.16.2/include/mbedtls\cipher.h ****  * \return      \c 0 for ciphers not using an IV or a nonce.
 464:C:/Users/dtjld/workspace/AIoT/src/LiteOS_Lab/iot_link/network/dtls/mbedtls/mbedtls-2.16.2/include/mbedtls\cipher.h ****  * \return      The actual size if an IV has been set.
 465:C:/Users/dtjld/workspace/AIoT/src/LiteOS_Lab/iot_link/network/dtls/mbedtls/mbedtls-2.16.2/include/mbedtls\cipher.h ****  */
 466:C:/Users/dtjld/workspace/AIoT/src/LiteOS_Lab/iot_link/network/dtls/mbedtls/mbedtls-2.16.2/include/mbedtls\cipher.h **** static inline int mbedtls_cipher_get_iv_size(
 467:C:/Users/dtjld/workspace/AIoT/src/LiteOS_Lab/iot_link/network/dtls/mbedtls/mbedtls-2.16.2/include/mbedtls\cipher.h ****     const mbedtls_cipher_context_t *ctx )
 468:C:/Users/dtjld/workspace/AIoT/src/LiteOS_Lab/iot_link/network/dtls/mbedtls/mbedtls-2.16.2/include/mbedtls\cipher.h **** {
 469:C:/Users/dtjld/workspace/AIoT/src/LiteOS_Lab/iot_link/network/dtls/mbedtls/mbedtls-2.16.2/include/mbedtls\cipher.h ****     MBEDTLS_INTERNAL_VALIDATE_RET( ctx != NULL, 0 );
 470:C:/Users/dtjld/workspace/AIoT/src/LiteOS_Lab/iot_link/network/dtls/mbedtls/mbedtls-2.16.2/include/mbedtls\cipher.h ****     if( ctx->cipher_info == NULL )
 471:C:/Users/dtjld/workspace/AIoT/src/LiteOS_Lab/iot_link/network/dtls/mbedtls/mbedtls-2.16.2/include/mbedtls\cipher.h ****         return 0;
 472:C:/Users/dtjld/workspace/AIoT/src/LiteOS_Lab/iot_link/network/dtls/mbedtls/mbedtls-2.16.2/include/mbedtls\cipher.h **** 
 473:C:/Users/dtjld/workspace/AIoT/src/LiteOS_Lab/iot_link/network/dtls/mbedtls/mbedtls-2.16.2/include/mbedtls\cipher.h ****     if( ctx->iv_size != 0 )
 474:C:/Users/dtjld/workspace/AIoT/src/LiteOS_Lab/iot_link/network/dtls/mbedtls/mbedtls-2.16.2/include/mbedtls\cipher.h ****         return (int) ctx->iv_size;
 475:C:/Users/dtjld/workspace/AIoT/src/LiteOS_Lab/iot_link/network/dtls/mbedtls/mbedtls-2.16.2/include/mbedtls\cipher.h **** 
 476:C:/Users/dtjld/workspace/AIoT/src/LiteOS_Lab/iot_link/network/dtls/mbedtls/mbedtls-2.16.2/include/mbedtls\cipher.h ****     return (int) ctx->cipher_info->iv_size;
 477:C:/Users/dtjld/workspace/AIoT/src/LiteOS_Lab/iot_link/network/dtls/mbedtls/mbedtls-2.16.2/include/mbedtls\cipher.h **** }
 478:C:/Users/dtjld/workspace/AIoT/src/LiteOS_Lab/iot_link/network/dtls/mbedtls/mbedtls-2.16.2/include/mbedtls\cipher.h **** 
 479:C:/Users/dtjld/workspace/AIoT/src/LiteOS_Lab/iot_link/network/dtls/mbedtls/mbedtls-2.16.2/include/mbedtls\cipher.h **** /**
 480:C:/Users/dtjld/workspace/AIoT/src/LiteOS_Lab/iot_link/network/dtls/mbedtls/mbedtls-2.16.2/include/mbedtls\cipher.h ****  * \brief               This function returns the type of the given cipher.
 481:C:/Users/dtjld/workspace/AIoT/src/LiteOS_Lab/iot_link/network/dtls/mbedtls/mbedtls-2.16.2/include/mbedtls\cipher.h ****  *
 482:C:/Users/dtjld/workspace/AIoT/src/LiteOS_Lab/iot_link/network/dtls/mbedtls/mbedtls-2.16.2/include/mbedtls\cipher.h ****  * \param ctx           The context of the cipher. This must be initialized.
 483:C:/Users/dtjld/workspace/AIoT/src/LiteOS_Lab/iot_link/network/dtls/mbedtls/mbedtls-2.16.2/include/mbedtls\cipher.h ****  *
 484:C:/Users/dtjld/workspace/AIoT/src/LiteOS_Lab/iot_link/network/dtls/mbedtls/mbedtls-2.16.2/include/mbedtls\cipher.h ****  * \return              The type of the cipher.
 485:C:/Users/dtjld/workspace/AIoT/src/LiteOS_Lab/iot_link/network/dtls/mbedtls/mbedtls-2.16.2/include/mbedtls\cipher.h ****  * \return              #MBEDTLS_CIPHER_NONE if \p ctx has not been initialized.
 486:C:/Users/dtjld/workspace/AIoT/src/LiteOS_Lab/iot_link/network/dtls/mbedtls/mbedtls-2.16.2/include/mbedtls\cipher.h ****  */
 487:C:/Users/dtjld/workspace/AIoT/src/LiteOS_Lab/iot_link/network/dtls/mbedtls/mbedtls-2.16.2/include/mbedtls\cipher.h **** static inline mbedtls_cipher_type_t mbedtls_cipher_get_type(
 488:C:/Users/dtjld/workspace/AIoT/src/LiteOS_Lab/iot_link/network/dtls/mbedtls/mbedtls-2.16.2/include/mbedtls\cipher.h ****     const mbedtls_cipher_context_t *ctx )
ARM GAS  C:\Users\dtjld\AppData\Local\Temp\ccnoWzb8.s 			page 10


 489:C:/Users/dtjld/workspace/AIoT/src/LiteOS_Lab/iot_link/network/dtls/mbedtls/mbedtls-2.16.2/include/mbedtls\cipher.h **** {
 490:C:/Users/dtjld/workspace/AIoT/src/LiteOS_Lab/iot_link/network/dtls/mbedtls/mbedtls-2.16.2/include/mbedtls\cipher.h ****     MBEDTLS_INTERNAL_VALIDATE_RET(
 491:C:/Users/dtjld/workspace/AIoT/src/LiteOS_Lab/iot_link/network/dtls/mbedtls/mbedtls-2.16.2/include/mbedtls\cipher.h ****         ctx != NULL, MBEDTLS_CIPHER_NONE );
 492:C:/Users/dtjld/workspace/AIoT/src/LiteOS_Lab/iot_link/network/dtls/mbedtls/mbedtls-2.16.2/include/mbedtls\cipher.h ****     if( ctx->cipher_info == NULL )
 493:C:/Users/dtjld/workspace/AIoT/src/LiteOS_Lab/iot_link/network/dtls/mbedtls/mbedtls-2.16.2/include/mbedtls\cipher.h ****         return MBEDTLS_CIPHER_NONE;
 494:C:/Users/dtjld/workspace/AIoT/src/LiteOS_Lab/iot_link/network/dtls/mbedtls/mbedtls-2.16.2/include/mbedtls\cipher.h **** 
 495:C:/Users/dtjld/workspace/AIoT/src/LiteOS_Lab/iot_link/network/dtls/mbedtls/mbedtls-2.16.2/include/mbedtls\cipher.h ****     return ctx->cipher_info->type;
 496:C:/Users/dtjld/workspace/AIoT/src/LiteOS_Lab/iot_link/network/dtls/mbedtls/mbedtls-2.16.2/include/mbedtls\cipher.h **** }
 497:C:/Users/dtjld/workspace/AIoT/src/LiteOS_Lab/iot_link/network/dtls/mbedtls/mbedtls-2.16.2/include/mbedtls\cipher.h **** 
 498:C:/Users/dtjld/workspace/AIoT/src/LiteOS_Lab/iot_link/network/dtls/mbedtls/mbedtls-2.16.2/include/mbedtls\cipher.h **** /**
 499:C:/Users/dtjld/workspace/AIoT/src/LiteOS_Lab/iot_link/network/dtls/mbedtls/mbedtls-2.16.2/include/mbedtls\cipher.h ****  * \brief               This function returns the name of the given cipher
 500:C:/Users/dtjld/workspace/AIoT/src/LiteOS_Lab/iot_link/network/dtls/mbedtls/mbedtls-2.16.2/include/mbedtls\cipher.h ****  *                      as a string.
 501:C:/Users/dtjld/workspace/AIoT/src/LiteOS_Lab/iot_link/network/dtls/mbedtls/mbedtls-2.16.2/include/mbedtls\cipher.h ****  *
 502:C:/Users/dtjld/workspace/AIoT/src/LiteOS_Lab/iot_link/network/dtls/mbedtls/mbedtls-2.16.2/include/mbedtls\cipher.h ****  * \param ctx           The context of the cipher. This must be initialized.
 503:C:/Users/dtjld/workspace/AIoT/src/LiteOS_Lab/iot_link/network/dtls/mbedtls/mbedtls-2.16.2/include/mbedtls\cipher.h ****  *
 504:C:/Users/dtjld/workspace/AIoT/src/LiteOS_Lab/iot_link/network/dtls/mbedtls/mbedtls-2.16.2/include/mbedtls\cipher.h ****  * \return              The name of the cipher.
 505:C:/Users/dtjld/workspace/AIoT/src/LiteOS_Lab/iot_link/network/dtls/mbedtls/mbedtls-2.16.2/include/mbedtls\cipher.h ****  * \return              NULL if \p ctx has not been not initialized.
 506:C:/Users/dtjld/workspace/AIoT/src/LiteOS_Lab/iot_link/network/dtls/mbedtls/mbedtls-2.16.2/include/mbedtls\cipher.h ****  */
 507:C:/Users/dtjld/workspace/AIoT/src/LiteOS_Lab/iot_link/network/dtls/mbedtls/mbedtls-2.16.2/include/mbedtls\cipher.h **** static inline const char *mbedtls_cipher_get_name(
 508:C:/Users/dtjld/workspace/AIoT/src/LiteOS_Lab/iot_link/network/dtls/mbedtls/mbedtls-2.16.2/include/mbedtls\cipher.h ****     const mbedtls_cipher_context_t *ctx )
 509:C:/Users/dtjld/workspace/AIoT/src/LiteOS_Lab/iot_link/network/dtls/mbedtls/mbedtls-2.16.2/include/mbedtls\cipher.h **** {
 510:C:/Users/dtjld/workspace/AIoT/src/LiteOS_Lab/iot_link/network/dtls/mbedtls/mbedtls-2.16.2/include/mbedtls\cipher.h ****     MBEDTLS_INTERNAL_VALIDATE_RET( ctx != NULL, 0 );
 511:C:/Users/dtjld/workspace/AIoT/src/LiteOS_Lab/iot_link/network/dtls/mbedtls/mbedtls-2.16.2/include/mbedtls\cipher.h ****     if( ctx->cipher_info == NULL )
 512:C:/Users/dtjld/workspace/AIoT/src/LiteOS_Lab/iot_link/network/dtls/mbedtls/mbedtls-2.16.2/include/mbedtls\cipher.h ****         return 0;
 513:C:/Users/dtjld/workspace/AIoT/src/LiteOS_Lab/iot_link/network/dtls/mbedtls/mbedtls-2.16.2/include/mbedtls\cipher.h **** 
 514:C:/Users/dtjld/workspace/AIoT/src/LiteOS_Lab/iot_link/network/dtls/mbedtls/mbedtls-2.16.2/include/mbedtls\cipher.h ****     return ctx->cipher_info->name;
 515:C:/Users/dtjld/workspace/AIoT/src/LiteOS_Lab/iot_link/network/dtls/mbedtls/mbedtls-2.16.2/include/mbedtls\cipher.h **** }
 516:C:/Users/dtjld/workspace/AIoT/src/LiteOS_Lab/iot_link/network/dtls/mbedtls/mbedtls-2.16.2/include/mbedtls\cipher.h **** 
 517:C:/Users/dtjld/workspace/AIoT/src/LiteOS_Lab/iot_link/network/dtls/mbedtls/mbedtls-2.16.2/include/mbedtls\cipher.h **** /**
 518:C:/Users/dtjld/workspace/AIoT/src/LiteOS_Lab/iot_link/network/dtls/mbedtls/mbedtls-2.16.2/include/mbedtls\cipher.h ****  * \brief               This function returns the key length of the cipher.
 519:C:/Users/dtjld/workspace/AIoT/src/LiteOS_Lab/iot_link/network/dtls/mbedtls/mbedtls-2.16.2/include/mbedtls\cipher.h ****  *
 520:C:/Users/dtjld/workspace/AIoT/src/LiteOS_Lab/iot_link/network/dtls/mbedtls/mbedtls-2.16.2/include/mbedtls\cipher.h ****  * \param ctx           The context of the cipher. This must be initialized.
 521:C:/Users/dtjld/workspace/AIoT/src/LiteOS_Lab/iot_link/network/dtls/mbedtls/mbedtls-2.16.2/include/mbedtls\cipher.h ****  *
 522:C:/Users/dtjld/workspace/AIoT/src/LiteOS_Lab/iot_link/network/dtls/mbedtls/mbedtls-2.16.2/include/mbedtls\cipher.h ****  * \return              The key length of the cipher in bits.
 523:C:/Users/dtjld/workspace/AIoT/src/LiteOS_Lab/iot_link/network/dtls/mbedtls/mbedtls-2.16.2/include/mbedtls\cipher.h ****  * \return              #MBEDTLS_KEY_LENGTH_NONE if ctx \p has not been
 524:C:/Users/dtjld/workspace/AIoT/src/LiteOS_Lab/iot_link/network/dtls/mbedtls/mbedtls-2.16.2/include/mbedtls\cipher.h ****  *                      initialized.
 525:C:/Users/dtjld/workspace/AIoT/src/LiteOS_Lab/iot_link/network/dtls/mbedtls/mbedtls-2.16.2/include/mbedtls\cipher.h ****  */
 526:C:/Users/dtjld/workspace/AIoT/src/LiteOS_Lab/iot_link/network/dtls/mbedtls/mbedtls-2.16.2/include/mbedtls\cipher.h **** static inline int mbedtls_cipher_get_key_bitlen(
 527:C:/Users/dtjld/workspace/AIoT/src/LiteOS_Lab/iot_link/network/dtls/mbedtls/mbedtls-2.16.2/include/mbedtls\cipher.h ****     const mbedtls_cipher_context_t *ctx )
 528:C:/Users/dtjld/workspace/AIoT/src/LiteOS_Lab/iot_link/network/dtls/mbedtls/mbedtls-2.16.2/include/mbedtls\cipher.h **** {
  27              		.loc 1 528 0
  28              		.cfi_startproc
  29              		@ args = 0, pretend = 0, frame = 8
  30              		@ frame_needed = 1, uses_anonymous_args = 0
  31              		@ link register save eliminated.
  32 0000 80B4     		push	{r7}
  33              	.LCFI0:
  34              		.cfi_def_cfa_offset 4
  35              		.cfi_offset 7, -4
  36 0002 83B0     		sub	sp, sp, #12
  37              	.LCFI1:
  38              		.cfi_def_cfa_offset 16
  39 0004 00AF     		add	r7, sp, #0
  40              	.LCFI2:
  41              		.cfi_def_cfa_register 7
  42 0006 7860     		str	r0, [r7, #4]
 529:C:/Users/dtjld/workspace/AIoT/src/LiteOS_Lab/iot_link/network/dtls/mbedtls/mbedtls-2.16.2/include/mbedtls\cipher.h ****     MBEDTLS_INTERNAL_VALIDATE_RET(
ARM GAS  C:\Users\dtjld\AppData\Local\Temp\ccnoWzb8.s 			page 11


 530:C:/Users/dtjld/workspace/AIoT/src/LiteOS_Lab/iot_link/network/dtls/mbedtls/mbedtls-2.16.2/include/mbedtls\cipher.h ****         ctx != NULL, MBEDTLS_KEY_LENGTH_NONE );
 531:C:/Users/dtjld/workspace/AIoT/src/LiteOS_Lab/iot_link/network/dtls/mbedtls/mbedtls-2.16.2/include/mbedtls\cipher.h ****     if( ctx->cipher_info == NULL )
  43              		.loc 1 531 0
  44 0008 7B68     		ldr	r3, [r7, #4]
  45 000a 1B68     		ldr	r3, [r3]
  46 000c 002B     		cmp	r3, #0
  47 000e 01D1     		bne	.L2
 532:C:/Users/dtjld/workspace/AIoT/src/LiteOS_Lab/iot_link/network/dtls/mbedtls/mbedtls-2.16.2/include/mbedtls\cipher.h ****         return MBEDTLS_KEY_LENGTH_NONE;
  48              		.loc 1 532 0
  49 0010 0023     		movs	r3, #0
  50 0012 02E0     		b	.L3
  51              	.L2:
 533:C:/Users/dtjld/workspace/AIoT/src/LiteOS_Lab/iot_link/network/dtls/mbedtls/mbedtls-2.16.2/include/mbedtls\cipher.h **** 
 534:C:/Users/dtjld/workspace/AIoT/src/LiteOS_Lab/iot_link/network/dtls/mbedtls/mbedtls-2.16.2/include/mbedtls\cipher.h ****     return (int) ctx->cipher_info->key_bitlen;
  52              		.loc 1 534 0
  53 0014 7B68     		ldr	r3, [r7, #4]
  54 0016 1B68     		ldr	r3, [r3]
  55 0018 5B68     		ldr	r3, [r3, #4]
  56              	.L3:
 535:C:/Users/dtjld/workspace/AIoT/src/LiteOS_Lab/iot_link/network/dtls/mbedtls/mbedtls-2.16.2/include/mbedtls\cipher.h **** }
  57              		.loc 1 535 0
  58 001a 1846     		mov	r0, r3
  59 001c 0C37     		adds	r7, r7, #12
  60              	.LCFI3:
  61              		.cfi_def_cfa_offset 4
  62 001e BD46     		mov	sp, r7
  63              	.LCFI4:
  64              		.cfi_def_cfa_register 13
  65              		@ sp needed
  66 0020 5DF8047B 		ldr	r7, [sp], #4
  67              	.LCFI5:
  68              		.cfi_restore 7
  69              		.cfi_def_cfa_offset 0
  70 0024 7047     		bx	lr
  71              		.cfi_endproc
  72              	.LFE11:
  74              		.section	.text.mbedtls_ssl_ticket_init,"ax",%progbits
  75              		.align	1
  76              		.global	mbedtls_ssl_ticket_init
  77              		.syntax unified
  78              		.thumb
  79              		.thumb_func
  80              		.fpu fpv4-sp-d16
  82              	mbedtls_ssl_ticket_init:
  83              	.LFB20:
  84              		.file 2 "C:/Users/dtjld/workspace/AIoT/src/LiteOS_Lab/iot_link/network/dtls/mbedtls/mbedtls-2.16.2
   1:C:/Users/dtjld/workspace/AIoT/src/LiteOS_Lab/iot_link/network/dtls/mbedtls/mbedtls-2.16.2/library\ssl_ticket.c **** /*
   2:C:/Users/dtjld/workspace/AIoT/src/LiteOS_Lab/iot_link/network/dtls/mbedtls/mbedtls-2.16.2/library\ssl_ticket.c ****  *  TLS server tickets callbacks implementation
   3:C:/Users/dtjld/workspace/AIoT/src/LiteOS_Lab/iot_link/network/dtls/mbedtls/mbedtls-2.16.2/library\ssl_ticket.c ****  *
   4:C:/Users/dtjld/workspace/AIoT/src/LiteOS_Lab/iot_link/network/dtls/mbedtls/mbedtls-2.16.2/library\ssl_ticket.c ****  *  Copyright (C) 2006-2015, ARM Limited, All Rights Reserved
   5:C:/Users/dtjld/workspace/AIoT/src/LiteOS_Lab/iot_link/network/dtls/mbedtls/mbedtls-2.16.2/library\ssl_ticket.c ****  *  SPDX-License-Identifier: Apache-2.0
   6:C:/Users/dtjld/workspace/AIoT/src/LiteOS_Lab/iot_link/network/dtls/mbedtls/mbedtls-2.16.2/library\ssl_ticket.c ****  *
   7:C:/Users/dtjld/workspace/AIoT/src/LiteOS_Lab/iot_link/network/dtls/mbedtls/mbedtls-2.16.2/library\ssl_ticket.c ****  *  Licensed under the Apache License, Version 2.0 (the "License"); you may
   8:C:/Users/dtjld/workspace/AIoT/src/LiteOS_Lab/iot_link/network/dtls/mbedtls/mbedtls-2.16.2/library\ssl_ticket.c ****  *  not use this file except in compliance with the License.
   9:C:/Users/dtjld/workspace/AIoT/src/LiteOS_Lab/iot_link/network/dtls/mbedtls/mbedtls-2.16.2/library\ssl_ticket.c ****  *  You may obtain a copy of the License at
  10:C:/Users/dtjld/workspace/AIoT/src/LiteOS_Lab/iot_link/network/dtls/mbedtls/mbedtls-2.16.2/library\ssl_ticket.c ****  *
  11:C:/Users/dtjld/workspace/AIoT/src/LiteOS_Lab/iot_link/network/dtls/mbedtls/mbedtls-2.16.2/library\ssl_ticket.c ****  *  http://www.apache.org/licenses/LICENSE-2.0
ARM GAS  C:\Users\dtjld\AppData\Local\Temp\ccnoWzb8.s 			page 12


  12:C:/Users/dtjld/workspace/AIoT/src/LiteOS_Lab/iot_link/network/dtls/mbedtls/mbedtls-2.16.2/library\ssl_ticket.c ****  *
  13:C:/Users/dtjld/workspace/AIoT/src/LiteOS_Lab/iot_link/network/dtls/mbedtls/mbedtls-2.16.2/library\ssl_ticket.c ****  *  Unless required by applicable law or agreed to in writing, software
  14:C:/Users/dtjld/workspace/AIoT/src/LiteOS_Lab/iot_link/network/dtls/mbedtls/mbedtls-2.16.2/library\ssl_ticket.c ****  *  distributed under the License is distributed on an "AS IS" BASIS, WITHOUT
  15:C:/Users/dtjld/workspace/AIoT/src/LiteOS_Lab/iot_link/network/dtls/mbedtls/mbedtls-2.16.2/library\ssl_ticket.c ****  *  WARRANTIES OR CONDITIONS OF ANY KIND, either express or implied.
  16:C:/Users/dtjld/workspace/AIoT/src/LiteOS_Lab/iot_link/network/dtls/mbedtls/mbedtls-2.16.2/library\ssl_ticket.c ****  *  See the License for the specific language governing permissions and
  17:C:/Users/dtjld/workspace/AIoT/src/LiteOS_Lab/iot_link/network/dtls/mbedtls/mbedtls-2.16.2/library\ssl_ticket.c ****  *  limitations under the License.
  18:C:/Users/dtjld/workspace/AIoT/src/LiteOS_Lab/iot_link/network/dtls/mbedtls/mbedtls-2.16.2/library\ssl_ticket.c ****  *
  19:C:/Users/dtjld/workspace/AIoT/src/LiteOS_Lab/iot_link/network/dtls/mbedtls/mbedtls-2.16.2/library\ssl_ticket.c ****  *  This file is part of mbed TLS (https://tls.mbed.org)
  20:C:/Users/dtjld/workspace/AIoT/src/LiteOS_Lab/iot_link/network/dtls/mbedtls/mbedtls-2.16.2/library\ssl_ticket.c ****  */
  21:C:/Users/dtjld/workspace/AIoT/src/LiteOS_Lab/iot_link/network/dtls/mbedtls/mbedtls-2.16.2/library\ssl_ticket.c **** 
  22:C:/Users/dtjld/workspace/AIoT/src/LiteOS_Lab/iot_link/network/dtls/mbedtls/mbedtls-2.16.2/library\ssl_ticket.c **** #if !defined(MBEDTLS_CONFIG_FILE)
  23:C:/Users/dtjld/workspace/AIoT/src/LiteOS_Lab/iot_link/network/dtls/mbedtls/mbedtls-2.16.2/library\ssl_ticket.c **** #include "mbedtls/config.h"
  24:C:/Users/dtjld/workspace/AIoT/src/LiteOS_Lab/iot_link/network/dtls/mbedtls/mbedtls-2.16.2/library\ssl_ticket.c **** #else
  25:C:/Users/dtjld/workspace/AIoT/src/LiteOS_Lab/iot_link/network/dtls/mbedtls/mbedtls-2.16.2/library\ssl_ticket.c **** #include MBEDTLS_CONFIG_FILE
  26:C:/Users/dtjld/workspace/AIoT/src/LiteOS_Lab/iot_link/network/dtls/mbedtls/mbedtls-2.16.2/library\ssl_ticket.c **** #endif
  27:C:/Users/dtjld/workspace/AIoT/src/LiteOS_Lab/iot_link/network/dtls/mbedtls/mbedtls-2.16.2/library\ssl_ticket.c **** 
  28:C:/Users/dtjld/workspace/AIoT/src/LiteOS_Lab/iot_link/network/dtls/mbedtls/mbedtls-2.16.2/library\ssl_ticket.c **** #if defined(MBEDTLS_SSL_TICKET_C)
  29:C:/Users/dtjld/workspace/AIoT/src/LiteOS_Lab/iot_link/network/dtls/mbedtls/mbedtls-2.16.2/library\ssl_ticket.c **** 
  30:C:/Users/dtjld/workspace/AIoT/src/LiteOS_Lab/iot_link/network/dtls/mbedtls/mbedtls-2.16.2/library\ssl_ticket.c **** #if defined(MBEDTLS_PLATFORM_C)
  31:C:/Users/dtjld/workspace/AIoT/src/LiteOS_Lab/iot_link/network/dtls/mbedtls/mbedtls-2.16.2/library\ssl_ticket.c **** #include "mbedtls/platform.h"
  32:C:/Users/dtjld/workspace/AIoT/src/LiteOS_Lab/iot_link/network/dtls/mbedtls/mbedtls-2.16.2/library\ssl_ticket.c **** #else
  33:C:/Users/dtjld/workspace/AIoT/src/LiteOS_Lab/iot_link/network/dtls/mbedtls/mbedtls-2.16.2/library\ssl_ticket.c **** #include <stdlib.h>
  34:C:/Users/dtjld/workspace/AIoT/src/LiteOS_Lab/iot_link/network/dtls/mbedtls/mbedtls-2.16.2/library\ssl_ticket.c **** #define mbedtls_calloc    calloc
  35:C:/Users/dtjld/workspace/AIoT/src/LiteOS_Lab/iot_link/network/dtls/mbedtls/mbedtls-2.16.2/library\ssl_ticket.c **** #define mbedtls_free      free
  36:C:/Users/dtjld/workspace/AIoT/src/LiteOS_Lab/iot_link/network/dtls/mbedtls/mbedtls-2.16.2/library\ssl_ticket.c **** #endif
  37:C:/Users/dtjld/workspace/AIoT/src/LiteOS_Lab/iot_link/network/dtls/mbedtls/mbedtls-2.16.2/library\ssl_ticket.c **** 
  38:C:/Users/dtjld/workspace/AIoT/src/LiteOS_Lab/iot_link/network/dtls/mbedtls/mbedtls-2.16.2/library\ssl_ticket.c **** #include "mbedtls/ssl_ticket.h"
  39:C:/Users/dtjld/workspace/AIoT/src/LiteOS_Lab/iot_link/network/dtls/mbedtls/mbedtls-2.16.2/library\ssl_ticket.c **** #include "mbedtls/platform_util.h"
  40:C:/Users/dtjld/workspace/AIoT/src/LiteOS_Lab/iot_link/network/dtls/mbedtls/mbedtls-2.16.2/library\ssl_ticket.c **** 
  41:C:/Users/dtjld/workspace/AIoT/src/LiteOS_Lab/iot_link/network/dtls/mbedtls/mbedtls-2.16.2/library\ssl_ticket.c **** #include <string.h>
  42:C:/Users/dtjld/workspace/AIoT/src/LiteOS_Lab/iot_link/network/dtls/mbedtls/mbedtls-2.16.2/library\ssl_ticket.c **** 
  43:C:/Users/dtjld/workspace/AIoT/src/LiteOS_Lab/iot_link/network/dtls/mbedtls/mbedtls-2.16.2/library\ssl_ticket.c **** /*
  44:C:/Users/dtjld/workspace/AIoT/src/LiteOS_Lab/iot_link/network/dtls/mbedtls/mbedtls-2.16.2/library\ssl_ticket.c ****  * Initialze context
  45:C:/Users/dtjld/workspace/AIoT/src/LiteOS_Lab/iot_link/network/dtls/mbedtls/mbedtls-2.16.2/library\ssl_ticket.c ****  */
  46:C:/Users/dtjld/workspace/AIoT/src/LiteOS_Lab/iot_link/network/dtls/mbedtls/mbedtls-2.16.2/library\ssl_ticket.c **** void mbedtls_ssl_ticket_init( mbedtls_ssl_ticket_context *ctx )
  47:C:/Users/dtjld/workspace/AIoT/src/LiteOS_Lab/iot_link/network/dtls/mbedtls/mbedtls-2.16.2/library\ssl_ticket.c **** {
  85              		.loc 2 47 0
  86              		.cfi_startproc
  87              		@ args = 0, pretend = 0, frame = 8
  88              		@ frame_needed = 1, uses_anonymous_args = 0
  89 0000 80B5     		push	{r7, lr}
  90              	.LCFI6:
  91              		.cfi_def_cfa_offset 8
  92              		.cfi_offset 7, -8
  93              		.cfi_offset 14, -4
  94 0002 82B0     		sub	sp, sp, #8
  95              	.LCFI7:
  96              		.cfi_def_cfa_offset 16
  97 0004 00AF     		add	r7, sp, #0
  98              	.LCFI8:
  99              		.cfi_def_cfa_register 7
 100 0006 7860     		str	r0, [r7, #4]
  48:C:/Users/dtjld/workspace/AIoT/src/LiteOS_Lab/iot_link/network/dtls/mbedtls/mbedtls-2.16.2/library\ssl_ticket.c ****     memset( ctx, 0, sizeof( mbedtls_ssl_ticket_context ) );
 101              		.loc 2 48 0
 102 0008 A022     		movs	r2, #160
 103 000a 0021     		movs	r1, #0
 104 000c 7868     		ldr	r0, [r7, #4]
ARM GAS  C:\Users\dtjld\AppData\Local\Temp\ccnoWzb8.s 			page 13


 105 000e FFF7FEFF 		bl	memset
  49:C:/Users/dtjld/workspace/AIoT/src/LiteOS_Lab/iot_link/network/dtls/mbedtls/mbedtls-2.16.2/library\ssl_ticket.c **** 
  50:C:/Users/dtjld/workspace/AIoT/src/LiteOS_Lab/iot_link/network/dtls/mbedtls/mbedtls-2.16.2/library\ssl_ticket.c **** #if defined(MBEDTLS_THREADING_C)
  51:C:/Users/dtjld/workspace/AIoT/src/LiteOS_Lab/iot_link/network/dtls/mbedtls/mbedtls-2.16.2/library\ssl_ticket.c ****     mbedtls_mutex_init( &ctx->mutex );
  52:C:/Users/dtjld/workspace/AIoT/src/LiteOS_Lab/iot_link/network/dtls/mbedtls/mbedtls-2.16.2/library\ssl_ticket.c **** #endif
  53:C:/Users/dtjld/workspace/AIoT/src/LiteOS_Lab/iot_link/network/dtls/mbedtls/mbedtls-2.16.2/library\ssl_ticket.c **** }
 106              		.loc 2 53 0
 107 0012 00BF     		nop
 108 0014 0837     		adds	r7, r7, #8
 109              	.LCFI9:
 110              		.cfi_def_cfa_offset 8
 111 0016 BD46     		mov	sp, r7
 112              	.LCFI10:
 113              		.cfi_def_cfa_register 13
 114              		@ sp needed
 115 0018 80BD     		pop	{r7, pc}
 116              		.cfi_endproc
 117              	.LFE20:
 119              		.section	.text.ssl_ticket_gen_key,"ax",%progbits
 120              		.align	1
 121              		.syntax unified
 122              		.thumb
 123              		.thumb_func
 124              		.fpu fpv4-sp-d16
 126              	ssl_ticket_gen_key:
 127              	.LFB21:
  54:C:/Users/dtjld/workspace/AIoT/src/LiteOS_Lab/iot_link/network/dtls/mbedtls/mbedtls-2.16.2/library\ssl_ticket.c **** 
  55:C:/Users/dtjld/workspace/AIoT/src/LiteOS_Lab/iot_link/network/dtls/mbedtls/mbedtls-2.16.2/library\ssl_ticket.c **** #define MAX_KEY_BYTES 32    /* 256 bits */
  56:C:/Users/dtjld/workspace/AIoT/src/LiteOS_Lab/iot_link/network/dtls/mbedtls/mbedtls-2.16.2/library\ssl_ticket.c **** 
  57:C:/Users/dtjld/workspace/AIoT/src/LiteOS_Lab/iot_link/network/dtls/mbedtls/mbedtls-2.16.2/library\ssl_ticket.c **** /*
  58:C:/Users/dtjld/workspace/AIoT/src/LiteOS_Lab/iot_link/network/dtls/mbedtls/mbedtls-2.16.2/library\ssl_ticket.c ****  * Generate/update a key
  59:C:/Users/dtjld/workspace/AIoT/src/LiteOS_Lab/iot_link/network/dtls/mbedtls/mbedtls-2.16.2/library\ssl_ticket.c ****  */
  60:C:/Users/dtjld/workspace/AIoT/src/LiteOS_Lab/iot_link/network/dtls/mbedtls/mbedtls-2.16.2/library\ssl_ticket.c **** static int ssl_ticket_gen_key( mbedtls_ssl_ticket_context *ctx,
  61:C:/Users/dtjld/workspace/AIoT/src/LiteOS_Lab/iot_link/network/dtls/mbedtls/mbedtls-2.16.2/library\ssl_ticket.c ****                                unsigned char index )
  62:C:/Users/dtjld/workspace/AIoT/src/LiteOS_Lab/iot_link/network/dtls/mbedtls/mbedtls-2.16.2/library\ssl_ticket.c **** {
 128              		.loc 2 62 0
 129              		.cfi_startproc
 130              		@ args = 0, pretend = 0, frame = 48
 131              		@ frame_needed = 1, uses_anonymous_args = 0
 132 0000 90B5     		push	{r4, r7, lr}
 133              	.LCFI11:
 134              		.cfi_def_cfa_offset 12
 135              		.cfi_offset 4, -12
 136              		.cfi_offset 7, -8
 137              		.cfi_offset 14, -4
 138 0002 8DB0     		sub	sp, sp, #52
 139              	.LCFI12:
 140              		.cfi_def_cfa_offset 64
 141 0004 00AF     		add	r7, sp, #0
 142              	.LCFI13:
 143              		.cfi_def_cfa_register 7
 144 0006 7860     		str	r0, [r7, #4]
 145 0008 0B46     		mov	r3, r1
 146 000a FB70     		strb	r3, [r7, #3]
  63:C:/Users/dtjld/workspace/AIoT/src/LiteOS_Lab/iot_link/network/dtls/mbedtls/mbedtls-2.16.2/library\ssl_ticket.c ****     int ret;
  64:C:/Users/dtjld/workspace/AIoT/src/LiteOS_Lab/iot_link/network/dtls/mbedtls/mbedtls-2.16.2/library\ssl_ticket.c ****     unsigned char buf[MAX_KEY_BYTES];
  65:C:/Users/dtjld/workspace/AIoT/src/LiteOS_Lab/iot_link/network/dtls/mbedtls/mbedtls-2.16.2/library\ssl_ticket.c ****     mbedtls_ssl_ticket_key *key = ctx->keys + index;
ARM GAS  C:\Users\dtjld\AppData\Local\Temp\ccnoWzb8.s 			page 14


 147              		.loc 2 65 0
 148 000c 7968     		ldr	r1, [r7, #4]
 149 000e FA78     		ldrb	r2, [r7, #3]	@ zero_extendqisi2
 150 0010 1346     		mov	r3, r2
 151 0012 DB00     		lsls	r3, r3, #3
 152 0014 1344     		add	r3, r3, r2
 153 0016 DB00     		lsls	r3, r3, #3
 154 0018 0B44     		add	r3, r3, r1
 155 001a FB62     		str	r3, [r7, #44]
  66:C:/Users/dtjld/workspace/AIoT/src/LiteOS_Lab/iot_link/network/dtls/mbedtls/mbedtls-2.16.2/library\ssl_ticket.c **** 
  67:C:/Users/dtjld/workspace/AIoT/src/LiteOS_Lab/iot_link/network/dtls/mbedtls/mbedtls-2.16.2/library\ssl_ticket.c **** #if defined(MBEDTLS_HAVE_TIME)
  68:C:/Users/dtjld/workspace/AIoT/src/LiteOS_Lab/iot_link/network/dtls/mbedtls/mbedtls-2.16.2/library\ssl_ticket.c ****     key->generation_time = (uint32_t) mbedtls_time( NULL );
  69:C:/Users/dtjld/workspace/AIoT/src/LiteOS_Lab/iot_link/network/dtls/mbedtls/mbedtls-2.16.2/library\ssl_ticket.c **** #endif
  70:C:/Users/dtjld/workspace/AIoT/src/LiteOS_Lab/iot_link/network/dtls/mbedtls/mbedtls-2.16.2/library\ssl_ticket.c **** 
  71:C:/Users/dtjld/workspace/AIoT/src/LiteOS_Lab/iot_link/network/dtls/mbedtls/mbedtls-2.16.2/library\ssl_ticket.c ****     if( ( ret = ctx->f_rng( ctx->p_rng, key->name, sizeof( key->name ) ) ) != 0 )
 156              		.loc 2 71 0
 157 001c 7B68     		ldr	r3, [r7, #4]
 158 001e D3F89830 		ldr	r3, [r3, #152]
 159 0022 7A68     		ldr	r2, [r7, #4]
 160 0024 D2F89C00 		ldr	r0, [r2, #156]
 161 0028 F96A     		ldr	r1, [r7, #44]
 162 002a 0422     		movs	r2, #4
 163 002c 9847     		blx	r3
 164              	.LVL0:
 165 002e B862     		str	r0, [r7, #40]
 166 0030 BB6A     		ldr	r3, [r7, #40]
 167 0032 002B     		cmp	r3, #0
 168 0034 01D0     		beq	.L6
  72:C:/Users/dtjld/workspace/AIoT/src/LiteOS_Lab/iot_link/network/dtls/mbedtls/mbedtls-2.16.2/library\ssl_ticket.c ****         return( ret );
 169              		.loc 2 72 0
 170 0036 BB6A     		ldr	r3, [r7, #40]
 171 0038 26E0     		b	.L9
 172              	.L6:
  73:C:/Users/dtjld/workspace/AIoT/src/LiteOS_Lab/iot_link/network/dtls/mbedtls/mbedtls-2.16.2/library\ssl_ticket.c **** 
  74:C:/Users/dtjld/workspace/AIoT/src/LiteOS_Lab/iot_link/network/dtls/mbedtls/mbedtls-2.16.2/library\ssl_ticket.c ****     if( ( ret = ctx->f_rng( ctx->p_rng, buf, sizeof( buf ) ) ) != 0 )
 173              		.loc 2 74 0
 174 003a 7B68     		ldr	r3, [r7, #4]
 175 003c D3F89830 		ldr	r3, [r3, #152]
 176 0040 7A68     		ldr	r2, [r7, #4]
 177 0042 D2F89C00 		ldr	r0, [r2, #156]
 178 0046 07F10801 		add	r1, r7, #8
 179 004a 2022     		movs	r2, #32
 180 004c 9847     		blx	r3
 181              	.LVL1:
 182 004e B862     		str	r0, [r7, #40]
 183 0050 BB6A     		ldr	r3, [r7, #40]
 184 0052 002B     		cmp	r3, #0
 185 0054 01D0     		beq	.L8
  75:C:/Users/dtjld/workspace/AIoT/src/LiteOS_Lab/iot_link/network/dtls/mbedtls/mbedtls-2.16.2/library\ssl_ticket.c ****         return( ret );
 186              		.loc 2 75 0
 187 0056 BB6A     		ldr	r3, [r7, #40]
 188 0058 16E0     		b	.L9
 189              	.L8:
  76:C:/Users/dtjld/workspace/AIoT/src/LiteOS_Lab/iot_link/network/dtls/mbedtls/mbedtls-2.16.2/library\ssl_ticket.c **** 
  77:C:/Users/dtjld/workspace/AIoT/src/LiteOS_Lab/iot_link/network/dtls/mbedtls/mbedtls-2.16.2/library\ssl_ticket.c ****     /* With GCM and CCM, same context can encrypt & decrypt */
  78:C:/Users/dtjld/workspace/AIoT/src/LiteOS_Lab/iot_link/network/dtls/mbedtls/mbedtls-2.16.2/library\ssl_ticket.c ****     ret = mbedtls_cipher_setkey( &key->ctx, buf,
 190              		.loc 2 78 0
ARM GAS  C:\Users\dtjld\AppData\Local\Temp\ccnoWzb8.s 			page 15


 191 005a FB6A     		ldr	r3, [r7, #44]
 192 005c 03F10804 		add	r4, r3, #8
  79:C:/Users/dtjld/workspace/AIoT/src/LiteOS_Lab/iot_link/network/dtls/mbedtls/mbedtls-2.16.2/library\ssl_ticket.c ****                                  mbedtls_cipher_get_key_bitlen( &key->ctx ),
 193              		.loc 2 79 0
 194 0060 FB6A     		ldr	r3, [r7, #44]
 195 0062 0833     		adds	r3, r3, #8
  78:C:/Users/dtjld/workspace/AIoT/src/LiteOS_Lab/iot_link/network/dtls/mbedtls/mbedtls-2.16.2/library\ssl_ticket.c ****                                  mbedtls_cipher_get_key_bitlen( &key->ctx ),
 196              		.loc 2 78 0
 197 0064 1846     		mov	r0, r3
 198 0066 FFF7FEFF 		bl	mbedtls_cipher_get_key_bitlen
 199 006a 0246     		mov	r2, r0
 200 006c 07F10801 		add	r1, r7, #8
 201 0070 0123     		movs	r3, #1
 202 0072 2046     		mov	r0, r4
 203 0074 FFF7FEFF 		bl	mbedtls_cipher_setkey
 204 0078 B862     		str	r0, [r7, #40]
  80:C:/Users/dtjld/workspace/AIoT/src/LiteOS_Lab/iot_link/network/dtls/mbedtls/mbedtls-2.16.2/library\ssl_ticket.c ****                                  MBEDTLS_ENCRYPT );
  81:C:/Users/dtjld/workspace/AIoT/src/LiteOS_Lab/iot_link/network/dtls/mbedtls/mbedtls-2.16.2/library\ssl_ticket.c **** 
  82:C:/Users/dtjld/workspace/AIoT/src/LiteOS_Lab/iot_link/network/dtls/mbedtls/mbedtls-2.16.2/library\ssl_ticket.c ****     mbedtls_platform_zeroize( buf, sizeof( buf ) );
 205              		.loc 2 82 0
 206 007a 07F10803 		add	r3, r7, #8
 207 007e 2021     		movs	r1, #32
 208 0080 1846     		mov	r0, r3
 209 0082 FFF7FEFF 		bl	mbedtls_platform_zeroize
  83:C:/Users/dtjld/workspace/AIoT/src/LiteOS_Lab/iot_link/network/dtls/mbedtls/mbedtls-2.16.2/library\ssl_ticket.c **** 
  84:C:/Users/dtjld/workspace/AIoT/src/LiteOS_Lab/iot_link/network/dtls/mbedtls/mbedtls-2.16.2/library\ssl_ticket.c ****     return( ret );
 210              		.loc 2 84 0
 211 0086 BB6A     		ldr	r3, [r7, #40]
 212              	.L9:
  85:C:/Users/dtjld/workspace/AIoT/src/LiteOS_Lab/iot_link/network/dtls/mbedtls/mbedtls-2.16.2/library\ssl_ticket.c **** }
 213              		.loc 2 85 0 discriminator 1
 214 0088 1846     		mov	r0, r3
 215 008a 3437     		adds	r7, r7, #52
 216              	.LCFI14:
 217              		.cfi_def_cfa_offset 12
 218 008c BD46     		mov	sp, r7
 219              	.LCFI15:
 220              		.cfi_def_cfa_register 13
 221              		@ sp needed
 222 008e 90BD     		pop	{r4, r7, pc}
 223              		.cfi_endproc
 224              	.LFE21:
 226              		.section	.text.ssl_ticket_update_keys,"ax",%progbits
 227              		.align	1
 228              		.syntax unified
 229              		.thumb
 230              		.thumb_func
 231              		.fpu fpv4-sp-d16
 233              	ssl_ticket_update_keys:
 234              	.LFB22:
  86:C:/Users/dtjld/workspace/AIoT/src/LiteOS_Lab/iot_link/network/dtls/mbedtls/mbedtls-2.16.2/library\ssl_ticket.c **** 
  87:C:/Users/dtjld/workspace/AIoT/src/LiteOS_Lab/iot_link/network/dtls/mbedtls/mbedtls-2.16.2/library\ssl_ticket.c **** /*
  88:C:/Users/dtjld/workspace/AIoT/src/LiteOS_Lab/iot_link/network/dtls/mbedtls/mbedtls-2.16.2/library\ssl_ticket.c ****  * Rotate/generate keys if necessary
  89:C:/Users/dtjld/workspace/AIoT/src/LiteOS_Lab/iot_link/network/dtls/mbedtls/mbedtls-2.16.2/library\ssl_ticket.c ****  */
  90:C:/Users/dtjld/workspace/AIoT/src/LiteOS_Lab/iot_link/network/dtls/mbedtls/mbedtls-2.16.2/library\ssl_ticket.c **** static int ssl_ticket_update_keys( mbedtls_ssl_ticket_context *ctx )
  91:C:/Users/dtjld/workspace/AIoT/src/LiteOS_Lab/iot_link/network/dtls/mbedtls/mbedtls-2.16.2/library\ssl_ticket.c **** {
 235              		.loc 2 91 0
ARM GAS  C:\Users\dtjld\AppData\Local\Temp\ccnoWzb8.s 			page 16


 236              		.cfi_startproc
 237              		@ args = 0, pretend = 0, frame = 8
 238              		@ frame_needed = 1, uses_anonymous_args = 0
 239              		@ link register save eliminated.
 240 0000 80B4     		push	{r7}
 241              	.LCFI16:
 242              		.cfi_def_cfa_offset 4
 243              		.cfi_offset 7, -4
 244 0002 83B0     		sub	sp, sp, #12
 245              	.LCFI17:
 246              		.cfi_def_cfa_offset 16
 247 0004 00AF     		add	r7, sp, #0
 248              	.LCFI18:
 249              		.cfi_def_cfa_register 7
 250 0006 7860     		str	r0, [r7, #4]
  92:C:/Users/dtjld/workspace/AIoT/src/LiteOS_Lab/iot_link/network/dtls/mbedtls/mbedtls-2.16.2/library\ssl_ticket.c **** #if !defined(MBEDTLS_HAVE_TIME)
  93:C:/Users/dtjld/workspace/AIoT/src/LiteOS_Lab/iot_link/network/dtls/mbedtls/mbedtls-2.16.2/library\ssl_ticket.c ****     ((void) ctx);
  94:C:/Users/dtjld/workspace/AIoT/src/LiteOS_Lab/iot_link/network/dtls/mbedtls/mbedtls-2.16.2/library\ssl_ticket.c **** #else
  95:C:/Users/dtjld/workspace/AIoT/src/LiteOS_Lab/iot_link/network/dtls/mbedtls/mbedtls-2.16.2/library\ssl_ticket.c ****     if( ctx->ticket_lifetime != 0 )
  96:C:/Users/dtjld/workspace/AIoT/src/LiteOS_Lab/iot_link/network/dtls/mbedtls/mbedtls-2.16.2/library\ssl_ticket.c ****     {
  97:C:/Users/dtjld/workspace/AIoT/src/LiteOS_Lab/iot_link/network/dtls/mbedtls/mbedtls-2.16.2/library\ssl_ticket.c ****         uint32_t current_time = (uint32_t) mbedtls_time( NULL );
  98:C:/Users/dtjld/workspace/AIoT/src/LiteOS_Lab/iot_link/network/dtls/mbedtls/mbedtls-2.16.2/library\ssl_ticket.c ****         uint32_t key_time = ctx->keys[ctx->active].generation_time;
  99:C:/Users/dtjld/workspace/AIoT/src/LiteOS_Lab/iot_link/network/dtls/mbedtls/mbedtls-2.16.2/library\ssl_ticket.c **** 
 100:C:/Users/dtjld/workspace/AIoT/src/LiteOS_Lab/iot_link/network/dtls/mbedtls/mbedtls-2.16.2/library\ssl_ticket.c ****         if( current_time >= key_time &&
 101:C:/Users/dtjld/workspace/AIoT/src/LiteOS_Lab/iot_link/network/dtls/mbedtls/mbedtls-2.16.2/library\ssl_ticket.c ****             current_time - key_time < ctx->ticket_lifetime )
 102:C:/Users/dtjld/workspace/AIoT/src/LiteOS_Lab/iot_link/network/dtls/mbedtls/mbedtls-2.16.2/library\ssl_ticket.c ****         {
 103:C:/Users/dtjld/workspace/AIoT/src/LiteOS_Lab/iot_link/network/dtls/mbedtls/mbedtls-2.16.2/library\ssl_ticket.c ****             return( 0 );
 104:C:/Users/dtjld/workspace/AIoT/src/LiteOS_Lab/iot_link/network/dtls/mbedtls/mbedtls-2.16.2/library\ssl_ticket.c ****         }
 105:C:/Users/dtjld/workspace/AIoT/src/LiteOS_Lab/iot_link/network/dtls/mbedtls/mbedtls-2.16.2/library\ssl_ticket.c **** 
 106:C:/Users/dtjld/workspace/AIoT/src/LiteOS_Lab/iot_link/network/dtls/mbedtls/mbedtls-2.16.2/library\ssl_ticket.c ****         ctx->active = 1 - ctx->active;
 107:C:/Users/dtjld/workspace/AIoT/src/LiteOS_Lab/iot_link/network/dtls/mbedtls/mbedtls-2.16.2/library\ssl_ticket.c **** 
 108:C:/Users/dtjld/workspace/AIoT/src/LiteOS_Lab/iot_link/network/dtls/mbedtls/mbedtls-2.16.2/library\ssl_ticket.c ****         return( ssl_ticket_gen_key( ctx, ctx->active ) );
 109:C:/Users/dtjld/workspace/AIoT/src/LiteOS_Lab/iot_link/network/dtls/mbedtls/mbedtls-2.16.2/library\ssl_ticket.c ****     }
 110:C:/Users/dtjld/workspace/AIoT/src/LiteOS_Lab/iot_link/network/dtls/mbedtls/mbedtls-2.16.2/library\ssl_ticket.c ****     else
 111:C:/Users/dtjld/workspace/AIoT/src/LiteOS_Lab/iot_link/network/dtls/mbedtls/mbedtls-2.16.2/library\ssl_ticket.c **** #endif /* MBEDTLS_HAVE_TIME */
 112:C:/Users/dtjld/workspace/AIoT/src/LiteOS_Lab/iot_link/network/dtls/mbedtls/mbedtls-2.16.2/library\ssl_ticket.c ****         return( 0 );
 251              		.loc 2 112 0
 252 0008 0023     		movs	r3, #0
 113:C:/Users/dtjld/workspace/AIoT/src/LiteOS_Lab/iot_link/network/dtls/mbedtls/mbedtls-2.16.2/library\ssl_ticket.c **** }
 253              		.loc 2 113 0
 254 000a 1846     		mov	r0, r3
 255 000c 0C37     		adds	r7, r7, #12
 256              	.LCFI19:
 257              		.cfi_def_cfa_offset 4
 258 000e BD46     		mov	sp, r7
 259              	.LCFI20:
 260              		.cfi_def_cfa_register 13
 261              		@ sp needed
 262 0010 5DF8047B 		ldr	r7, [sp], #4
 263              	.LCFI21:
 264              		.cfi_restore 7
 265              		.cfi_def_cfa_offset 0
 266 0014 7047     		bx	lr
 267              		.cfi_endproc
 268              	.LFE22:
 270              		.section	.text.mbedtls_ssl_ticket_setup,"ax",%progbits
 271              		.align	1
ARM GAS  C:\Users\dtjld\AppData\Local\Temp\ccnoWzb8.s 			page 17


 272              		.global	mbedtls_ssl_ticket_setup
 273              		.syntax unified
 274              		.thumb
 275              		.thumb_func
 276              		.fpu fpv4-sp-d16
 278              	mbedtls_ssl_ticket_setup:
 279              	.LFB23:
 114:C:/Users/dtjld/workspace/AIoT/src/LiteOS_Lab/iot_link/network/dtls/mbedtls/mbedtls-2.16.2/library\ssl_ticket.c **** 
 115:C:/Users/dtjld/workspace/AIoT/src/LiteOS_Lab/iot_link/network/dtls/mbedtls/mbedtls-2.16.2/library\ssl_ticket.c **** /*
 116:C:/Users/dtjld/workspace/AIoT/src/LiteOS_Lab/iot_link/network/dtls/mbedtls/mbedtls-2.16.2/library\ssl_ticket.c ****  * Setup context for actual use
 117:C:/Users/dtjld/workspace/AIoT/src/LiteOS_Lab/iot_link/network/dtls/mbedtls/mbedtls-2.16.2/library\ssl_ticket.c ****  */
 118:C:/Users/dtjld/workspace/AIoT/src/LiteOS_Lab/iot_link/network/dtls/mbedtls/mbedtls-2.16.2/library\ssl_ticket.c **** int mbedtls_ssl_ticket_setup( mbedtls_ssl_ticket_context *ctx,
 119:C:/Users/dtjld/workspace/AIoT/src/LiteOS_Lab/iot_link/network/dtls/mbedtls/mbedtls-2.16.2/library\ssl_ticket.c ****     int (*f_rng)(void *, unsigned char *, size_t), void *p_rng,
 120:C:/Users/dtjld/workspace/AIoT/src/LiteOS_Lab/iot_link/network/dtls/mbedtls/mbedtls-2.16.2/library\ssl_ticket.c ****     mbedtls_cipher_type_t cipher,
 121:C:/Users/dtjld/workspace/AIoT/src/LiteOS_Lab/iot_link/network/dtls/mbedtls/mbedtls-2.16.2/library\ssl_ticket.c ****     uint32_t lifetime )
 122:C:/Users/dtjld/workspace/AIoT/src/LiteOS_Lab/iot_link/network/dtls/mbedtls/mbedtls-2.16.2/library\ssl_ticket.c **** {
 280              		.loc 2 122 0
 281              		.cfi_startproc
 282              		@ args = 4, pretend = 0, frame = 24
 283              		@ frame_needed = 1, uses_anonymous_args = 0
 284 0000 80B5     		push	{r7, lr}
 285              	.LCFI22:
 286              		.cfi_def_cfa_offset 8
 287              		.cfi_offset 7, -8
 288              		.cfi_offset 14, -4
 289 0002 86B0     		sub	sp, sp, #24
 290              	.LCFI23:
 291              		.cfi_def_cfa_offset 32
 292 0004 00AF     		add	r7, sp, #0
 293              	.LCFI24:
 294              		.cfi_def_cfa_register 7
 295 0006 F860     		str	r0, [r7, #12]
 296 0008 B960     		str	r1, [r7, #8]
 297 000a 7A60     		str	r2, [r7, #4]
 298 000c FB70     		strb	r3, [r7, #3]
 123:C:/Users/dtjld/workspace/AIoT/src/LiteOS_Lab/iot_link/network/dtls/mbedtls/mbedtls-2.16.2/library\ssl_ticket.c ****     int ret;
 124:C:/Users/dtjld/workspace/AIoT/src/LiteOS_Lab/iot_link/network/dtls/mbedtls/mbedtls-2.16.2/library\ssl_ticket.c ****     const mbedtls_cipher_info_t *cipher_info;
 125:C:/Users/dtjld/workspace/AIoT/src/LiteOS_Lab/iot_link/network/dtls/mbedtls/mbedtls-2.16.2/library\ssl_ticket.c **** 
 126:C:/Users/dtjld/workspace/AIoT/src/LiteOS_Lab/iot_link/network/dtls/mbedtls/mbedtls-2.16.2/library\ssl_ticket.c ****     ctx->f_rng = f_rng;
 299              		.loc 2 126 0
 300 000e FB68     		ldr	r3, [r7, #12]
 301 0010 BA68     		ldr	r2, [r7, #8]
 302 0012 C3F89820 		str	r2, [r3, #152]
 127:C:/Users/dtjld/workspace/AIoT/src/LiteOS_Lab/iot_link/network/dtls/mbedtls/mbedtls-2.16.2/library\ssl_ticket.c ****     ctx->p_rng = p_rng;
 303              		.loc 2 127 0
 304 0016 FB68     		ldr	r3, [r7, #12]
 305 0018 7A68     		ldr	r2, [r7, #4]
 306 001a C3F89C20 		str	r2, [r3, #156]
 128:C:/Users/dtjld/workspace/AIoT/src/LiteOS_Lab/iot_link/network/dtls/mbedtls/mbedtls-2.16.2/library\ssl_ticket.c **** 
 129:C:/Users/dtjld/workspace/AIoT/src/LiteOS_Lab/iot_link/network/dtls/mbedtls/mbedtls-2.16.2/library\ssl_ticket.c ****     ctx->ticket_lifetime = lifetime;
 307              		.loc 2 129 0
 308 001e FB68     		ldr	r3, [r7, #12]
 309 0020 3A6A     		ldr	r2, [r7, #32]
 310 0022 C3F89420 		str	r2, [r3, #148]
 130:C:/Users/dtjld/workspace/AIoT/src/LiteOS_Lab/iot_link/network/dtls/mbedtls/mbedtls-2.16.2/library\ssl_ticket.c **** 
 131:C:/Users/dtjld/workspace/AIoT/src/LiteOS_Lab/iot_link/network/dtls/mbedtls/mbedtls-2.16.2/library\ssl_ticket.c ****     cipher_info = mbedtls_cipher_info_from_type( cipher);
 311              		.loc 2 131 0
ARM GAS  C:\Users\dtjld\AppData\Local\Temp\ccnoWzb8.s 			page 18


 312 0026 FB78     		ldrb	r3, [r7, #3]	@ zero_extendqisi2
 313 0028 1846     		mov	r0, r3
 314 002a FFF7FEFF 		bl	mbedtls_cipher_info_from_type
 315 002e 3861     		str	r0, [r7, #16]
 132:C:/Users/dtjld/workspace/AIoT/src/LiteOS_Lab/iot_link/network/dtls/mbedtls/mbedtls-2.16.2/library\ssl_ticket.c ****     if( cipher_info == NULL )
 316              		.loc 2 132 0
 317 0030 3B69     		ldr	r3, [r7, #16]
 318 0032 002B     		cmp	r3, #0
 319 0034 01D1     		bne	.L13
 133:C:/Users/dtjld/workspace/AIoT/src/LiteOS_Lab/iot_link/network/dtls/mbedtls/mbedtls-2.16.2/library\ssl_ticket.c ****         return( MBEDTLS_ERR_SSL_BAD_INPUT_DATA );
 320              		.loc 2 133 0
 321 0036 204B     		ldr	r3, .L21
 322 0038 39E0     		b	.L14
 323              	.L13:
 134:C:/Users/dtjld/workspace/AIoT/src/LiteOS_Lab/iot_link/network/dtls/mbedtls/mbedtls-2.16.2/library\ssl_ticket.c **** 
 135:C:/Users/dtjld/workspace/AIoT/src/LiteOS_Lab/iot_link/network/dtls/mbedtls/mbedtls-2.16.2/library\ssl_ticket.c ****     if( cipher_info->mode != MBEDTLS_MODE_GCM &&
 324              		.loc 2 135 0
 325 003a 3B69     		ldr	r3, [r7, #16]
 326 003c 5B78     		ldrb	r3, [r3, #1]	@ zero_extendqisi2
 327 003e 062B     		cmp	r3, #6
 328 0040 05D0     		beq	.L15
 136:C:/Users/dtjld/workspace/AIoT/src/LiteOS_Lab/iot_link/network/dtls/mbedtls/mbedtls-2.16.2/library\ssl_ticket.c ****         cipher_info->mode != MBEDTLS_MODE_CCM )
 329              		.loc 2 136 0 discriminator 1
 330 0042 3B69     		ldr	r3, [r7, #16]
 331 0044 5B78     		ldrb	r3, [r3, #1]	@ zero_extendqisi2
 135:C:/Users/dtjld/workspace/AIoT/src/LiteOS_Lab/iot_link/network/dtls/mbedtls/mbedtls-2.16.2/library\ssl_ticket.c ****         cipher_info->mode != MBEDTLS_MODE_CCM )
 332              		.loc 2 135 0 discriminator 1
 333 0046 082B     		cmp	r3, #8
 334 0048 01D0     		beq	.L15
 137:C:/Users/dtjld/workspace/AIoT/src/LiteOS_Lab/iot_link/network/dtls/mbedtls/mbedtls-2.16.2/library\ssl_ticket.c ****     {
 138:C:/Users/dtjld/workspace/AIoT/src/LiteOS_Lab/iot_link/network/dtls/mbedtls/mbedtls-2.16.2/library\ssl_ticket.c ****         return( MBEDTLS_ERR_SSL_BAD_INPUT_DATA );
 335              		.loc 2 138 0
 336 004a 1B4B     		ldr	r3, .L21
 337 004c 2FE0     		b	.L14
 338              	.L15:
 139:C:/Users/dtjld/workspace/AIoT/src/LiteOS_Lab/iot_link/network/dtls/mbedtls/mbedtls-2.16.2/library\ssl_ticket.c ****     }
 140:C:/Users/dtjld/workspace/AIoT/src/LiteOS_Lab/iot_link/network/dtls/mbedtls/mbedtls-2.16.2/library\ssl_ticket.c **** 
 141:C:/Users/dtjld/workspace/AIoT/src/LiteOS_Lab/iot_link/network/dtls/mbedtls/mbedtls-2.16.2/library\ssl_ticket.c ****     if( cipher_info->key_bitlen > 8 * MAX_KEY_BYTES )
 339              		.loc 2 141 0
 340 004e 3B69     		ldr	r3, [r7, #16]
 341 0050 5B68     		ldr	r3, [r3, #4]
 342 0052 B3F5807F 		cmp	r3, #256
 343 0056 01D9     		bls	.L16
 142:C:/Users/dtjld/workspace/AIoT/src/LiteOS_Lab/iot_link/network/dtls/mbedtls/mbedtls-2.16.2/library\ssl_ticket.c ****         return( MBEDTLS_ERR_SSL_BAD_INPUT_DATA );
 344              		.loc 2 142 0
 345 0058 174B     		ldr	r3, .L21
 346 005a 28E0     		b	.L14
 347              	.L16:
 143:C:/Users/dtjld/workspace/AIoT/src/LiteOS_Lab/iot_link/network/dtls/mbedtls/mbedtls-2.16.2/library\ssl_ticket.c **** 
 144:C:/Users/dtjld/workspace/AIoT/src/LiteOS_Lab/iot_link/network/dtls/mbedtls/mbedtls-2.16.2/library\ssl_ticket.c ****     if( ( ret = mbedtls_cipher_setup( &ctx->keys[0].ctx, cipher_info ) ) != 0 ||
 348              		.loc 2 144 0
 349 005c FB68     		ldr	r3, [r7, #12]
 350 005e 0833     		adds	r3, r3, #8
 351 0060 3969     		ldr	r1, [r7, #16]
 352 0062 1846     		mov	r0, r3
 353 0064 FFF7FEFF 		bl	mbedtls_cipher_setup
 354 0068 7861     		str	r0, [r7, #20]
ARM GAS  C:\Users\dtjld\AppData\Local\Temp\ccnoWzb8.s 			page 19


 355 006a 7B69     		ldr	r3, [r7, #20]
 356 006c 002B     		cmp	r3, #0
 357 006e 09D1     		bne	.L17
 145:C:/Users/dtjld/workspace/AIoT/src/LiteOS_Lab/iot_link/network/dtls/mbedtls/mbedtls-2.16.2/library\ssl_ticket.c ****         ( ret = mbedtls_cipher_setup( &ctx->keys[1].ctx, cipher_info ) ) != 0 )
 358              		.loc 2 145 0 discriminator 1
 359 0070 FB68     		ldr	r3, [r7, #12]
 360 0072 5033     		adds	r3, r3, #80
 144:C:/Users/dtjld/workspace/AIoT/src/LiteOS_Lab/iot_link/network/dtls/mbedtls/mbedtls-2.16.2/library\ssl_ticket.c ****         ( ret = mbedtls_cipher_setup( &ctx->keys[1].ctx, cipher_info ) ) != 0 )
 361              		.loc 2 144 0 discriminator 1
 362 0074 3969     		ldr	r1, [r7, #16]
 363 0076 1846     		mov	r0, r3
 364 0078 FFF7FEFF 		bl	mbedtls_cipher_setup
 365 007c 7861     		str	r0, [r7, #20]
 366 007e 7B69     		ldr	r3, [r7, #20]
 367 0080 002B     		cmp	r3, #0
 368 0082 01D0     		beq	.L18
 369              	.L17:
 146:C:/Users/dtjld/workspace/AIoT/src/LiteOS_Lab/iot_link/network/dtls/mbedtls/mbedtls-2.16.2/library\ssl_ticket.c ****     {
 147:C:/Users/dtjld/workspace/AIoT/src/LiteOS_Lab/iot_link/network/dtls/mbedtls/mbedtls-2.16.2/library\ssl_ticket.c ****         return( ret );
 370              		.loc 2 147 0
 371 0084 7B69     		ldr	r3, [r7, #20]
 372 0086 12E0     		b	.L14
 373              	.L18:
 148:C:/Users/dtjld/workspace/AIoT/src/LiteOS_Lab/iot_link/network/dtls/mbedtls/mbedtls-2.16.2/library\ssl_ticket.c ****     }
 149:C:/Users/dtjld/workspace/AIoT/src/LiteOS_Lab/iot_link/network/dtls/mbedtls/mbedtls-2.16.2/library\ssl_ticket.c **** 
 150:C:/Users/dtjld/workspace/AIoT/src/LiteOS_Lab/iot_link/network/dtls/mbedtls/mbedtls-2.16.2/library\ssl_ticket.c ****     if( ( ret = ssl_ticket_gen_key( ctx, 0 ) ) != 0 ||
 374              		.loc 2 150 0
 375 0088 0021     		movs	r1, #0
 376 008a F868     		ldr	r0, [r7, #12]
 377 008c FFF7FEFF 		bl	ssl_ticket_gen_key
 378 0090 7861     		str	r0, [r7, #20]
 379 0092 7B69     		ldr	r3, [r7, #20]
 380 0094 002B     		cmp	r3, #0
 381 0096 07D1     		bne	.L19
 382              		.loc 2 150 0 is_stmt 0 discriminator 1
 383 0098 0121     		movs	r1, #1
 384 009a F868     		ldr	r0, [r7, #12]
 385 009c FFF7FEFF 		bl	ssl_ticket_gen_key
 386 00a0 7861     		str	r0, [r7, #20]
 387 00a2 7B69     		ldr	r3, [r7, #20]
 388 00a4 002B     		cmp	r3, #0
 389 00a6 01D0     		beq	.L20
 390              	.L19:
 151:C:/Users/dtjld/workspace/AIoT/src/LiteOS_Lab/iot_link/network/dtls/mbedtls/mbedtls-2.16.2/library\ssl_ticket.c ****         ( ret = ssl_ticket_gen_key( ctx, 1 ) ) != 0 )
 152:C:/Users/dtjld/workspace/AIoT/src/LiteOS_Lab/iot_link/network/dtls/mbedtls/mbedtls-2.16.2/library\ssl_ticket.c ****     {
 153:C:/Users/dtjld/workspace/AIoT/src/LiteOS_Lab/iot_link/network/dtls/mbedtls/mbedtls-2.16.2/library\ssl_ticket.c ****         return( ret );
 391              		.loc 2 153 0 is_stmt 1
 392 00a8 7B69     		ldr	r3, [r7, #20]
 393 00aa 00E0     		b	.L14
 394              	.L20:
 154:C:/Users/dtjld/workspace/AIoT/src/LiteOS_Lab/iot_link/network/dtls/mbedtls/mbedtls-2.16.2/library\ssl_ticket.c ****     }
 155:C:/Users/dtjld/workspace/AIoT/src/LiteOS_Lab/iot_link/network/dtls/mbedtls/mbedtls-2.16.2/library\ssl_ticket.c **** 
 156:C:/Users/dtjld/workspace/AIoT/src/LiteOS_Lab/iot_link/network/dtls/mbedtls/mbedtls-2.16.2/library\ssl_ticket.c ****     return( 0 );
 395              		.loc 2 156 0
 396 00ac 0023     		movs	r3, #0
 397              	.L14:
 157:C:/Users/dtjld/workspace/AIoT/src/LiteOS_Lab/iot_link/network/dtls/mbedtls/mbedtls-2.16.2/library\ssl_ticket.c **** }
ARM GAS  C:\Users\dtjld\AppData\Local\Temp\ccnoWzb8.s 			page 20


 398              		.loc 2 157 0
 399 00ae 1846     		mov	r0, r3
 400 00b0 1837     		adds	r7, r7, #24
 401              	.LCFI25:
 402              		.cfi_def_cfa_offset 8
 403 00b2 BD46     		mov	sp, r7
 404              	.LCFI26:
 405              		.cfi_def_cfa_register 13
 406              		@ sp needed
 407 00b4 80BD     		pop	{r7, pc}
 408              	.L22:
 409 00b6 00BF     		.align	2
 410              	.L21:
 411 00b8 008FFFFF 		.word	-28928
 412              		.cfi_endproc
 413              	.LFE23:
 415              		.section	.text.ssl_save_session,"ax",%progbits
 416              		.align	1
 417              		.syntax unified
 418              		.thumb
 419              		.thumb_func
 420              		.fpu fpv4-sp-d16
 422              	ssl_save_session:
 423              	.LFB24:
 158:C:/Users/dtjld/workspace/AIoT/src/LiteOS_Lab/iot_link/network/dtls/mbedtls/mbedtls-2.16.2/library\ssl_ticket.c **** 
 159:C:/Users/dtjld/workspace/AIoT/src/LiteOS_Lab/iot_link/network/dtls/mbedtls/mbedtls-2.16.2/library\ssl_ticket.c **** /*
 160:C:/Users/dtjld/workspace/AIoT/src/LiteOS_Lab/iot_link/network/dtls/mbedtls/mbedtls-2.16.2/library\ssl_ticket.c ****  * Serialize a session in the following format:
 161:C:/Users/dtjld/workspace/AIoT/src/LiteOS_Lab/iot_link/network/dtls/mbedtls/mbedtls-2.16.2/library\ssl_ticket.c ****  *  0   .   n-1     session structure, n = sizeof(mbedtls_ssl_session)
 162:C:/Users/dtjld/workspace/AIoT/src/LiteOS_Lab/iot_link/network/dtls/mbedtls/mbedtls-2.16.2/library\ssl_ticket.c ****  *  n   .   n+2     peer_cert length = m (0 if no certificate)
 163:C:/Users/dtjld/workspace/AIoT/src/LiteOS_Lab/iot_link/network/dtls/mbedtls/mbedtls-2.16.2/library\ssl_ticket.c ****  *  n+3 .   n+2+m   peer cert ASN.1
 164:C:/Users/dtjld/workspace/AIoT/src/LiteOS_Lab/iot_link/network/dtls/mbedtls/mbedtls-2.16.2/library\ssl_ticket.c ****  */
 165:C:/Users/dtjld/workspace/AIoT/src/LiteOS_Lab/iot_link/network/dtls/mbedtls/mbedtls-2.16.2/library\ssl_ticket.c **** static int ssl_save_session( const mbedtls_ssl_session *session,
 166:C:/Users/dtjld/workspace/AIoT/src/LiteOS_Lab/iot_link/network/dtls/mbedtls/mbedtls-2.16.2/library\ssl_ticket.c ****                              unsigned char *buf, size_t buf_len,
 167:C:/Users/dtjld/workspace/AIoT/src/LiteOS_Lab/iot_link/network/dtls/mbedtls/mbedtls-2.16.2/library\ssl_ticket.c ****                              size_t *olen )
 168:C:/Users/dtjld/workspace/AIoT/src/LiteOS_Lab/iot_link/network/dtls/mbedtls/mbedtls-2.16.2/library\ssl_ticket.c **** {
 424              		.loc 2 168 0
 425              		.cfi_startproc
 426              		@ args = 0, pretend = 0, frame = 32
 427              		@ frame_needed = 1, uses_anonymous_args = 0
 428 0000 80B5     		push	{r7, lr}
 429              	.LCFI27:
 430              		.cfi_def_cfa_offset 8
 431              		.cfi_offset 7, -8
 432              		.cfi_offset 14, -4
 433 0002 88B0     		sub	sp, sp, #32
 434              	.LCFI28:
 435              		.cfi_def_cfa_offset 40
 436 0004 00AF     		add	r7, sp, #0
 437              	.LCFI29:
 438              		.cfi_def_cfa_register 7
 439 0006 F860     		str	r0, [r7, #12]
 440 0008 B960     		str	r1, [r7, #8]
 441 000a 7A60     		str	r2, [r7, #4]
 442 000c 3B60     		str	r3, [r7]
 169:C:/Users/dtjld/workspace/AIoT/src/LiteOS_Lab/iot_link/network/dtls/mbedtls/mbedtls-2.16.2/library\ssl_ticket.c ****     unsigned char *p = buf;
 443              		.loc 2 169 0
 444 000e BB68     		ldr	r3, [r7, #8]
ARM GAS  C:\Users\dtjld\AppData\Local\Temp\ccnoWzb8.s 			page 21


 445 0010 BB61     		str	r3, [r7, #24]
 170:C:/Users/dtjld/workspace/AIoT/src/LiteOS_Lab/iot_link/network/dtls/mbedtls/mbedtls-2.16.2/library\ssl_ticket.c ****     size_t left = buf_len;
 446              		.loc 2 170 0
 447 0012 7B68     		ldr	r3, [r7, #4]
 448 0014 7B61     		str	r3, [r7, #20]
 171:C:/Users/dtjld/workspace/AIoT/src/LiteOS_Lab/iot_link/network/dtls/mbedtls/mbedtls-2.16.2/library\ssl_ticket.c **** #if defined(MBEDTLS_X509_CRT_PARSE_C)
 172:C:/Users/dtjld/workspace/AIoT/src/LiteOS_Lab/iot_link/network/dtls/mbedtls/mbedtls-2.16.2/library\ssl_ticket.c ****     size_t cert_len;
 173:C:/Users/dtjld/workspace/AIoT/src/LiteOS_Lab/iot_link/network/dtls/mbedtls/mbedtls-2.16.2/library\ssl_ticket.c **** #endif /* MBEDTLS_X509_CRT_PARSE_C */
 174:C:/Users/dtjld/workspace/AIoT/src/LiteOS_Lab/iot_link/network/dtls/mbedtls/mbedtls-2.16.2/library\ssl_ticket.c **** 
 175:C:/Users/dtjld/workspace/AIoT/src/LiteOS_Lab/iot_link/network/dtls/mbedtls/mbedtls-2.16.2/library\ssl_ticket.c ****     if( left < sizeof( mbedtls_ssl_session ) )
 449              		.loc 2 175 0
 450 0016 7B69     		ldr	r3, [r7, #20]
 451 0018 7B2B     		cmp	r3, #123
 452 001a 01D8     		bhi	.L24
 176:C:/Users/dtjld/workspace/AIoT/src/LiteOS_Lab/iot_link/network/dtls/mbedtls/mbedtls-2.16.2/library\ssl_ticket.c ****         return( MBEDTLS_ERR_SSL_BUFFER_TOO_SMALL );
 453              		.loc 2 176 0
 454 001c 264B     		ldr	r3, .L30
 455 001e 47E0     		b	.L25
 456              	.L24:
 177:C:/Users/dtjld/workspace/AIoT/src/LiteOS_Lab/iot_link/network/dtls/mbedtls/mbedtls-2.16.2/library\ssl_ticket.c **** 
 178:C:/Users/dtjld/workspace/AIoT/src/LiteOS_Lab/iot_link/network/dtls/mbedtls/mbedtls-2.16.2/library\ssl_ticket.c ****     memcpy( p, session, sizeof( mbedtls_ssl_session ) );
 457              		.loc 2 178 0
 458 0020 7C22     		movs	r2, #124
 459 0022 F968     		ldr	r1, [r7, #12]
 460 0024 B869     		ldr	r0, [r7, #24]
 461 0026 FFF7FEFF 		bl	memcpy
 179:C:/Users/dtjld/workspace/AIoT/src/LiteOS_Lab/iot_link/network/dtls/mbedtls/mbedtls-2.16.2/library\ssl_ticket.c ****     p += sizeof( mbedtls_ssl_session );
 462              		.loc 2 179 0
 463 002a BB69     		ldr	r3, [r7, #24]
 464 002c 7C33     		adds	r3, r3, #124
 465 002e BB61     		str	r3, [r7, #24]
 180:C:/Users/dtjld/workspace/AIoT/src/LiteOS_Lab/iot_link/network/dtls/mbedtls/mbedtls-2.16.2/library\ssl_ticket.c ****     left -= sizeof( mbedtls_ssl_session );
 466              		.loc 2 180 0
 467 0030 7B69     		ldr	r3, [r7, #20]
 468 0032 7C3B     		subs	r3, r3, #124
 469 0034 7B61     		str	r3, [r7, #20]
 181:C:/Users/dtjld/workspace/AIoT/src/LiteOS_Lab/iot_link/network/dtls/mbedtls/mbedtls-2.16.2/library\ssl_ticket.c **** 
 182:C:/Users/dtjld/workspace/AIoT/src/LiteOS_Lab/iot_link/network/dtls/mbedtls/mbedtls-2.16.2/library\ssl_ticket.c **** #if defined(MBEDTLS_X509_CRT_PARSE_C)
 183:C:/Users/dtjld/workspace/AIoT/src/LiteOS_Lab/iot_link/network/dtls/mbedtls/mbedtls-2.16.2/library\ssl_ticket.c ****     if( session->peer_cert == NULL )
 470              		.loc 2 183 0
 471 0036 FB68     		ldr	r3, [r7, #12]
 472 0038 DB6D     		ldr	r3, [r3, #92]
 473 003a 002B     		cmp	r3, #0
 474 003c 02D1     		bne	.L26
 184:C:/Users/dtjld/workspace/AIoT/src/LiteOS_Lab/iot_link/network/dtls/mbedtls/mbedtls-2.16.2/library\ssl_ticket.c ****         cert_len = 0;
 475              		.loc 2 184 0
 476 003e 0023     		movs	r3, #0
 477 0040 FB61     		str	r3, [r7, #28]
 478 0042 03E0     		b	.L27
 479              	.L26:
 185:C:/Users/dtjld/workspace/AIoT/src/LiteOS_Lab/iot_link/network/dtls/mbedtls/mbedtls-2.16.2/library\ssl_ticket.c ****     else
 186:C:/Users/dtjld/workspace/AIoT/src/LiteOS_Lab/iot_link/network/dtls/mbedtls/mbedtls-2.16.2/library\ssl_ticket.c ****         cert_len = session->peer_cert->raw.len;
 480              		.loc 2 186 0
 481 0044 FB68     		ldr	r3, [r7, #12]
 482 0046 DB6D     		ldr	r3, [r3, #92]
 483 0048 5B68     		ldr	r3, [r3, #4]
 484 004a FB61     		str	r3, [r7, #28]
ARM GAS  C:\Users\dtjld\AppData\Local\Temp\ccnoWzb8.s 			page 22


 485              	.L27:
 187:C:/Users/dtjld/workspace/AIoT/src/LiteOS_Lab/iot_link/network/dtls/mbedtls/mbedtls-2.16.2/library\ssl_ticket.c **** 
 188:C:/Users/dtjld/workspace/AIoT/src/LiteOS_Lab/iot_link/network/dtls/mbedtls/mbedtls-2.16.2/library\ssl_ticket.c ****     if( left < 3 + cert_len )
 486              		.loc 2 188 0
 487 004c FB69     		ldr	r3, [r7, #28]
 488 004e 0333     		adds	r3, r3, #3
 489 0050 7A69     		ldr	r2, [r7, #20]
 490 0052 9A42     		cmp	r2, r3
 491 0054 01D2     		bcs	.L28
 189:C:/Users/dtjld/workspace/AIoT/src/LiteOS_Lab/iot_link/network/dtls/mbedtls/mbedtls-2.16.2/library\ssl_ticket.c ****         return( MBEDTLS_ERR_SSL_BUFFER_TOO_SMALL );
 492              		.loc 2 189 0
 493 0056 184B     		ldr	r3, .L30
 494 0058 2AE0     		b	.L25
 495              	.L28:
 190:C:/Users/dtjld/workspace/AIoT/src/LiteOS_Lab/iot_link/network/dtls/mbedtls/mbedtls-2.16.2/library\ssl_ticket.c **** 
 191:C:/Users/dtjld/workspace/AIoT/src/LiteOS_Lab/iot_link/network/dtls/mbedtls/mbedtls-2.16.2/library\ssl_ticket.c ****     *p++ = (unsigned char)( ( cert_len >> 16 ) & 0xFF );
 496              		.loc 2 191 0
 497 005a FB69     		ldr	r3, [r7, #28]
 498 005c 190C     		lsrs	r1, r3, #16
 499 005e BB69     		ldr	r3, [r7, #24]
 500 0060 5A1C     		adds	r2, r3, #1
 501 0062 BA61     		str	r2, [r7, #24]
 502 0064 CAB2     		uxtb	r2, r1
 503 0066 1A70     		strb	r2, [r3]
 192:C:/Users/dtjld/workspace/AIoT/src/LiteOS_Lab/iot_link/network/dtls/mbedtls/mbedtls-2.16.2/library\ssl_ticket.c ****     *p++ = (unsigned char)( ( cert_len >>  8 ) & 0xFF );
 504              		.loc 2 192 0
 505 0068 FB69     		ldr	r3, [r7, #28]
 506 006a 190A     		lsrs	r1, r3, #8
 507 006c BB69     		ldr	r3, [r7, #24]
 508 006e 5A1C     		adds	r2, r3, #1
 509 0070 BA61     		str	r2, [r7, #24]
 510 0072 CAB2     		uxtb	r2, r1
 511 0074 1A70     		strb	r2, [r3]
 193:C:/Users/dtjld/workspace/AIoT/src/LiteOS_Lab/iot_link/network/dtls/mbedtls/mbedtls-2.16.2/library\ssl_ticket.c ****     *p++ = (unsigned char)( ( cert_len       ) & 0xFF );
 512              		.loc 2 193 0
 513 0076 BB69     		ldr	r3, [r7, #24]
 514 0078 5A1C     		adds	r2, r3, #1
 515 007a BA61     		str	r2, [r7, #24]
 516 007c FA69     		ldr	r2, [r7, #28]
 517 007e D2B2     		uxtb	r2, r2
 518 0080 1A70     		strb	r2, [r3]
 194:C:/Users/dtjld/workspace/AIoT/src/LiteOS_Lab/iot_link/network/dtls/mbedtls/mbedtls-2.16.2/library\ssl_ticket.c **** 
 195:C:/Users/dtjld/workspace/AIoT/src/LiteOS_Lab/iot_link/network/dtls/mbedtls/mbedtls-2.16.2/library\ssl_ticket.c ****     if( session->peer_cert != NULL )
 519              		.loc 2 195 0
 520 0082 FB68     		ldr	r3, [r7, #12]
 521 0084 DB6D     		ldr	r3, [r3, #92]
 522 0086 002B     		cmp	r3, #0
 523 0088 07D0     		beq	.L29
 196:C:/Users/dtjld/workspace/AIoT/src/LiteOS_Lab/iot_link/network/dtls/mbedtls/mbedtls-2.16.2/library\ssl_ticket.c ****         memcpy( p, session->peer_cert->raw.p, cert_len );
 524              		.loc 2 196 0
 525 008a FB68     		ldr	r3, [r7, #12]
 526 008c DB6D     		ldr	r3, [r3, #92]
 527 008e 9B68     		ldr	r3, [r3, #8]
 528 0090 FA69     		ldr	r2, [r7, #28]
 529 0092 1946     		mov	r1, r3
 530 0094 B869     		ldr	r0, [r7, #24]
 531 0096 FFF7FEFF 		bl	memcpy
ARM GAS  C:\Users\dtjld\AppData\Local\Temp\ccnoWzb8.s 			page 23


 532              	.L29:
 197:C:/Users/dtjld/workspace/AIoT/src/LiteOS_Lab/iot_link/network/dtls/mbedtls/mbedtls-2.16.2/library\ssl_ticket.c **** 
 198:C:/Users/dtjld/workspace/AIoT/src/LiteOS_Lab/iot_link/network/dtls/mbedtls/mbedtls-2.16.2/library\ssl_ticket.c ****     p += cert_len;
 533              		.loc 2 198 0
 534 009a BA69     		ldr	r2, [r7, #24]
 535 009c FB69     		ldr	r3, [r7, #28]
 536 009e 1344     		add	r3, r3, r2
 537 00a0 BB61     		str	r3, [r7, #24]
 199:C:/Users/dtjld/workspace/AIoT/src/LiteOS_Lab/iot_link/network/dtls/mbedtls/mbedtls-2.16.2/library\ssl_ticket.c **** #endif /* MBEDTLS_X509_CRT_PARSE_C */
 200:C:/Users/dtjld/workspace/AIoT/src/LiteOS_Lab/iot_link/network/dtls/mbedtls/mbedtls-2.16.2/library\ssl_ticket.c **** 
 201:C:/Users/dtjld/workspace/AIoT/src/LiteOS_Lab/iot_link/network/dtls/mbedtls/mbedtls-2.16.2/library\ssl_ticket.c ****     *olen = p - buf;
 538              		.loc 2 201 0
 539 00a2 BA69     		ldr	r2, [r7, #24]
 540 00a4 BB68     		ldr	r3, [r7, #8]
 541 00a6 D31A     		subs	r3, r2, r3
 542 00a8 1A46     		mov	r2, r3
 543 00aa 3B68     		ldr	r3, [r7]
 544 00ac 1A60     		str	r2, [r3]
 202:C:/Users/dtjld/workspace/AIoT/src/LiteOS_Lab/iot_link/network/dtls/mbedtls/mbedtls-2.16.2/library\ssl_ticket.c **** 
 203:C:/Users/dtjld/workspace/AIoT/src/LiteOS_Lab/iot_link/network/dtls/mbedtls/mbedtls-2.16.2/library\ssl_ticket.c ****     return( 0 );
 545              		.loc 2 203 0
 546 00ae 0023     		movs	r3, #0
 547              	.L25:
 204:C:/Users/dtjld/workspace/AIoT/src/LiteOS_Lab/iot_link/network/dtls/mbedtls/mbedtls-2.16.2/library\ssl_ticket.c **** }
 548              		.loc 2 204 0
 549 00b0 1846     		mov	r0, r3
 550 00b2 2037     		adds	r7, r7, #32
 551              	.LCFI30:
 552              		.cfi_def_cfa_offset 8
 553 00b4 BD46     		mov	sp, r7
 554              	.LCFI31:
 555              		.cfi_def_cfa_register 13
 556              		@ sp needed
 557 00b6 80BD     		pop	{r7, pc}
 558              	.L31:
 559              		.align	2
 560              	.L30:
 561 00b8 0096FFFF 		.word	-27136
 562              		.cfi_endproc
 563              	.LFE24:
 565              		.section	.text.ssl_load_session,"ax",%progbits
 566              		.align	1
 567              		.syntax unified
 568              		.thumb
 569              		.thumb_func
 570              		.fpu fpv4-sp-d16
 572              	ssl_load_session:
 573              	.LFB25:
 205:C:/Users/dtjld/workspace/AIoT/src/LiteOS_Lab/iot_link/network/dtls/mbedtls/mbedtls-2.16.2/library\ssl_ticket.c **** 
 206:C:/Users/dtjld/workspace/AIoT/src/LiteOS_Lab/iot_link/network/dtls/mbedtls/mbedtls-2.16.2/library\ssl_ticket.c **** /*
 207:C:/Users/dtjld/workspace/AIoT/src/LiteOS_Lab/iot_link/network/dtls/mbedtls/mbedtls-2.16.2/library\ssl_ticket.c ****  * Unserialise session, see ssl_save_session()
 208:C:/Users/dtjld/workspace/AIoT/src/LiteOS_Lab/iot_link/network/dtls/mbedtls/mbedtls-2.16.2/library\ssl_ticket.c ****  */
 209:C:/Users/dtjld/workspace/AIoT/src/LiteOS_Lab/iot_link/network/dtls/mbedtls/mbedtls-2.16.2/library\ssl_ticket.c **** static int ssl_load_session( mbedtls_ssl_session *session,
 210:C:/Users/dtjld/workspace/AIoT/src/LiteOS_Lab/iot_link/network/dtls/mbedtls/mbedtls-2.16.2/library\ssl_ticket.c ****                              const unsigned char *buf, size_t len )
 211:C:/Users/dtjld/workspace/AIoT/src/LiteOS_Lab/iot_link/network/dtls/mbedtls/mbedtls-2.16.2/library\ssl_ticket.c **** {
 574              		.loc 2 211 0
 575              		.cfi_startproc
ARM GAS  C:\Users\dtjld\AppData\Local\Temp\ccnoWzb8.s 			page 24


 576              		@ args = 0, pretend = 0, frame = 32
 577              		@ frame_needed = 1, uses_anonymous_args = 0
 578 0000 80B5     		push	{r7, lr}
 579              	.LCFI32:
 580              		.cfi_def_cfa_offset 8
 581              		.cfi_offset 7, -8
 582              		.cfi_offset 14, -4
 583 0002 88B0     		sub	sp, sp, #32
 584              	.LCFI33:
 585              		.cfi_def_cfa_offset 40
 586 0004 00AF     		add	r7, sp, #0
 587              	.LCFI34:
 588              		.cfi_def_cfa_register 7
 589 0006 F860     		str	r0, [r7, #12]
 590 0008 B960     		str	r1, [r7, #8]
 591 000a 7A60     		str	r2, [r7, #4]
 212:C:/Users/dtjld/workspace/AIoT/src/LiteOS_Lab/iot_link/network/dtls/mbedtls/mbedtls-2.16.2/library\ssl_ticket.c ****     const unsigned char *p = buf;
 592              		.loc 2 212 0
 593 000c BB68     		ldr	r3, [r7, #8]
 594 000e FB61     		str	r3, [r7, #28]
 213:C:/Users/dtjld/workspace/AIoT/src/LiteOS_Lab/iot_link/network/dtls/mbedtls/mbedtls-2.16.2/library\ssl_ticket.c ****     const unsigned char * const end = buf + len;
 595              		.loc 2 213 0
 596 0010 BA68     		ldr	r2, [r7, #8]
 597 0012 7B68     		ldr	r3, [r7, #4]
 598 0014 1344     		add	r3, r3, r2
 599 0016 BB61     		str	r3, [r7, #24]
 214:C:/Users/dtjld/workspace/AIoT/src/LiteOS_Lab/iot_link/network/dtls/mbedtls/mbedtls-2.16.2/library\ssl_ticket.c **** #if defined(MBEDTLS_X509_CRT_PARSE_C)
 215:C:/Users/dtjld/workspace/AIoT/src/LiteOS_Lab/iot_link/network/dtls/mbedtls/mbedtls-2.16.2/library\ssl_ticket.c ****     size_t cert_len;
 216:C:/Users/dtjld/workspace/AIoT/src/LiteOS_Lab/iot_link/network/dtls/mbedtls/mbedtls-2.16.2/library\ssl_ticket.c **** #endif /* MBEDTLS_X509_CRT_PARSE_C */
 217:C:/Users/dtjld/workspace/AIoT/src/LiteOS_Lab/iot_link/network/dtls/mbedtls/mbedtls-2.16.2/library\ssl_ticket.c **** 
 218:C:/Users/dtjld/workspace/AIoT/src/LiteOS_Lab/iot_link/network/dtls/mbedtls/mbedtls-2.16.2/library\ssl_ticket.c ****     if( sizeof( mbedtls_ssl_session ) > (size_t)( end - p ) )
 600              		.loc 2 218 0
 601 0018 BA69     		ldr	r2, [r7, #24]
 602 001a FB69     		ldr	r3, [r7, #28]
 603 001c D31A     		subs	r3, r2, r3
 604 001e 7B2B     		cmp	r3, #123
 605 0020 01D8     		bhi	.L33
 219:C:/Users/dtjld/workspace/AIoT/src/LiteOS_Lab/iot_link/network/dtls/mbedtls/mbedtls-2.16.2/library\ssl_ticket.c ****         return( MBEDTLS_ERR_SSL_BAD_INPUT_DATA );
 606              		.loc 2 219 0
 607 0022 364B     		ldr	r3, .L42
 608 0024 66E0     		b	.L34
 609              	.L33:
 220:C:/Users/dtjld/workspace/AIoT/src/LiteOS_Lab/iot_link/network/dtls/mbedtls/mbedtls-2.16.2/library\ssl_ticket.c **** 
 221:C:/Users/dtjld/workspace/AIoT/src/LiteOS_Lab/iot_link/network/dtls/mbedtls/mbedtls-2.16.2/library\ssl_ticket.c ****     memcpy( session, p, sizeof( mbedtls_ssl_session ) );
 610              		.loc 2 221 0
 611 0026 7C22     		movs	r2, #124
 612 0028 F969     		ldr	r1, [r7, #28]
 613 002a F868     		ldr	r0, [r7, #12]
 614 002c FFF7FEFF 		bl	memcpy
 222:C:/Users/dtjld/workspace/AIoT/src/LiteOS_Lab/iot_link/network/dtls/mbedtls/mbedtls-2.16.2/library\ssl_ticket.c ****     p += sizeof( mbedtls_ssl_session );
 615              		.loc 2 222 0
 616 0030 FB69     		ldr	r3, [r7, #28]
 617 0032 7C33     		adds	r3, r3, #124
 618 0034 FB61     		str	r3, [r7, #28]
 223:C:/Users/dtjld/workspace/AIoT/src/LiteOS_Lab/iot_link/network/dtls/mbedtls/mbedtls-2.16.2/library\ssl_ticket.c **** 
 224:C:/Users/dtjld/workspace/AIoT/src/LiteOS_Lab/iot_link/network/dtls/mbedtls/mbedtls-2.16.2/library\ssl_ticket.c **** #if defined(MBEDTLS_X509_CRT_PARSE_C)
 225:C:/Users/dtjld/workspace/AIoT/src/LiteOS_Lab/iot_link/network/dtls/mbedtls/mbedtls-2.16.2/library\ssl_ticket.c ****     if( 3 > (size_t)( end - p ) )
ARM GAS  C:\Users\dtjld\AppData\Local\Temp\ccnoWzb8.s 			page 25


 619              		.loc 2 225 0
 620 0036 BA69     		ldr	r2, [r7, #24]
 621 0038 FB69     		ldr	r3, [r7, #28]
 622 003a D31A     		subs	r3, r2, r3
 623 003c 022B     		cmp	r3, #2
 624 003e 01D8     		bhi	.L35
 226:C:/Users/dtjld/workspace/AIoT/src/LiteOS_Lab/iot_link/network/dtls/mbedtls/mbedtls-2.16.2/library\ssl_ticket.c ****         return( MBEDTLS_ERR_SSL_BAD_INPUT_DATA );
 625              		.loc 2 226 0
 626 0040 2E4B     		ldr	r3, .L42
 627 0042 57E0     		b	.L34
 628              	.L35:
 227:C:/Users/dtjld/workspace/AIoT/src/LiteOS_Lab/iot_link/network/dtls/mbedtls/mbedtls-2.16.2/library\ssl_ticket.c **** 
 228:C:/Users/dtjld/workspace/AIoT/src/LiteOS_Lab/iot_link/network/dtls/mbedtls/mbedtls-2.16.2/library\ssl_ticket.c ****     cert_len = ( p[0] << 16 ) | ( p[1] << 8 ) | p[2];
 629              		.loc 2 228 0
 630 0044 FB69     		ldr	r3, [r7, #28]
 631 0046 1B78     		ldrb	r3, [r3]	@ zero_extendqisi2
 632 0048 1A04     		lsls	r2, r3, #16
 633 004a FB69     		ldr	r3, [r7, #28]
 634 004c 0133     		adds	r3, r3, #1
 635 004e 1B78     		ldrb	r3, [r3]	@ zero_extendqisi2
 636 0050 1B02     		lsls	r3, r3, #8
 637 0052 1343     		orrs	r3, r3, r2
 638 0054 FA69     		ldr	r2, [r7, #28]
 639 0056 0232     		adds	r2, r2, #2
 640 0058 1278     		ldrb	r2, [r2]	@ zero_extendqisi2
 641 005a 1343     		orrs	r3, r3, r2
 642 005c 7B61     		str	r3, [r7, #20]
 229:C:/Users/dtjld/workspace/AIoT/src/LiteOS_Lab/iot_link/network/dtls/mbedtls/mbedtls-2.16.2/library\ssl_ticket.c ****     p += 3;
 643              		.loc 2 229 0
 644 005e FB69     		ldr	r3, [r7, #28]
 645 0060 0333     		adds	r3, r3, #3
 646 0062 FB61     		str	r3, [r7, #28]
 230:C:/Users/dtjld/workspace/AIoT/src/LiteOS_Lab/iot_link/network/dtls/mbedtls/mbedtls-2.16.2/library\ssl_ticket.c **** 
 231:C:/Users/dtjld/workspace/AIoT/src/LiteOS_Lab/iot_link/network/dtls/mbedtls/mbedtls-2.16.2/library\ssl_ticket.c ****     if( cert_len == 0 )
 647              		.loc 2 231 0
 648 0064 7B69     		ldr	r3, [r7, #20]
 649 0066 002B     		cmp	r3, #0
 650 0068 03D1     		bne	.L36
 232:C:/Users/dtjld/workspace/AIoT/src/LiteOS_Lab/iot_link/network/dtls/mbedtls/mbedtls-2.16.2/library\ssl_ticket.c ****     {
 233:C:/Users/dtjld/workspace/AIoT/src/LiteOS_Lab/iot_link/network/dtls/mbedtls/mbedtls-2.16.2/library\ssl_ticket.c ****         session->peer_cert = NULL;
 651              		.loc 2 233 0
 652 006a FB68     		ldr	r3, [r7, #12]
 653 006c 0022     		movs	r2, #0
 654 006e DA65     		str	r2, [r3, #92]
 655 0070 39E0     		b	.L37
 656              	.L36:
 657              	.LBB2:
 234:C:/Users/dtjld/workspace/AIoT/src/LiteOS_Lab/iot_link/network/dtls/mbedtls/mbedtls-2.16.2/library\ssl_ticket.c ****     }
 235:C:/Users/dtjld/workspace/AIoT/src/LiteOS_Lab/iot_link/network/dtls/mbedtls/mbedtls-2.16.2/library\ssl_ticket.c ****     else
 236:C:/Users/dtjld/workspace/AIoT/src/LiteOS_Lab/iot_link/network/dtls/mbedtls/mbedtls-2.16.2/library\ssl_ticket.c ****     {
 237:C:/Users/dtjld/workspace/AIoT/src/LiteOS_Lab/iot_link/network/dtls/mbedtls/mbedtls-2.16.2/library\ssl_ticket.c ****         int ret;
 238:C:/Users/dtjld/workspace/AIoT/src/LiteOS_Lab/iot_link/network/dtls/mbedtls/mbedtls-2.16.2/library\ssl_ticket.c **** 
 239:C:/Users/dtjld/workspace/AIoT/src/LiteOS_Lab/iot_link/network/dtls/mbedtls/mbedtls-2.16.2/library\ssl_ticket.c ****         if( cert_len > (size_t)( end - p ) )
 658              		.loc 2 239 0
 659 0072 BA69     		ldr	r2, [r7, #24]
 660 0074 FB69     		ldr	r3, [r7, #28]
 661 0076 D31A     		subs	r3, r2, r3
ARM GAS  C:\Users\dtjld\AppData\Local\Temp\ccnoWzb8.s 			page 26


 662 0078 1A46     		mov	r2, r3
 663 007a 7B69     		ldr	r3, [r7, #20]
 664 007c 9342     		cmp	r3, r2
 665 007e 01D9     		bls	.L38
 240:C:/Users/dtjld/workspace/AIoT/src/LiteOS_Lab/iot_link/network/dtls/mbedtls/mbedtls-2.16.2/library\ssl_ticket.c ****             return( MBEDTLS_ERR_SSL_BAD_INPUT_DATA );
 666              		.loc 2 240 0
 667 0080 1E4B     		ldr	r3, .L42
 668 0082 37E0     		b	.L34
 669              	.L38:
 241:C:/Users/dtjld/workspace/AIoT/src/LiteOS_Lab/iot_link/network/dtls/mbedtls/mbedtls-2.16.2/library\ssl_ticket.c **** 
 242:C:/Users/dtjld/workspace/AIoT/src/LiteOS_Lab/iot_link/network/dtls/mbedtls/mbedtls-2.16.2/library\ssl_ticket.c ****         session->peer_cert = mbedtls_calloc( 1, sizeof( mbedtls_x509_crt ) );
 670              		.loc 2 242 0
 671 0084 4FF49A71 		mov	r1, #308
 672 0088 0120     		movs	r0, #1
 673 008a FFF7FEFF 		bl	mbedtls_calloc
 674 008e 0246     		mov	r2, r0
 675 0090 FB68     		ldr	r3, [r7, #12]
 676 0092 DA65     		str	r2, [r3, #92]
 243:C:/Users/dtjld/workspace/AIoT/src/LiteOS_Lab/iot_link/network/dtls/mbedtls/mbedtls-2.16.2/library\ssl_ticket.c **** 
 244:C:/Users/dtjld/workspace/AIoT/src/LiteOS_Lab/iot_link/network/dtls/mbedtls/mbedtls-2.16.2/library\ssl_ticket.c ****         if( session->peer_cert == NULL )
 677              		.loc 2 244 0
 678 0094 FB68     		ldr	r3, [r7, #12]
 679 0096 DB6D     		ldr	r3, [r3, #92]
 680 0098 002B     		cmp	r3, #0
 681 009a 01D1     		bne	.L39
 245:C:/Users/dtjld/workspace/AIoT/src/LiteOS_Lab/iot_link/network/dtls/mbedtls/mbedtls-2.16.2/library\ssl_ticket.c ****             return( MBEDTLS_ERR_SSL_ALLOC_FAILED );
 682              		.loc 2 245 0
 683 009c 184B     		ldr	r3, .L42+4
 684 009e 29E0     		b	.L34
 685              	.L39:
 246:C:/Users/dtjld/workspace/AIoT/src/LiteOS_Lab/iot_link/network/dtls/mbedtls/mbedtls-2.16.2/library\ssl_ticket.c **** 
 247:C:/Users/dtjld/workspace/AIoT/src/LiteOS_Lab/iot_link/network/dtls/mbedtls/mbedtls-2.16.2/library\ssl_ticket.c ****         mbedtls_x509_crt_init( session->peer_cert );
 686              		.loc 2 247 0
 687 00a0 FB68     		ldr	r3, [r7, #12]
 688 00a2 DB6D     		ldr	r3, [r3, #92]
 689 00a4 1846     		mov	r0, r3
 690 00a6 FFF7FEFF 		bl	mbedtls_x509_crt_init
 248:C:/Users/dtjld/workspace/AIoT/src/LiteOS_Lab/iot_link/network/dtls/mbedtls/mbedtls-2.16.2/library\ssl_ticket.c **** 
 249:C:/Users/dtjld/workspace/AIoT/src/LiteOS_Lab/iot_link/network/dtls/mbedtls/mbedtls-2.16.2/library\ssl_ticket.c ****         if( ( ret = mbedtls_x509_crt_parse_der( session->peer_cert,
 691              		.loc 2 249 0
 692 00aa FB68     		ldr	r3, [r7, #12]
 693 00ac DB6D     		ldr	r3, [r3, #92]
 694 00ae 7A69     		ldr	r2, [r7, #20]
 695 00b0 F969     		ldr	r1, [r7, #28]
 696 00b2 1846     		mov	r0, r3
 697 00b4 FFF7FEFF 		bl	mbedtls_x509_crt_parse_der
 698 00b8 3861     		str	r0, [r7, #16]
 699 00ba 3B69     		ldr	r3, [r7, #16]
 700 00bc 002B     		cmp	r3, #0
 701 00be 0ED0     		beq	.L40
 250:C:/Users/dtjld/workspace/AIoT/src/LiteOS_Lab/iot_link/network/dtls/mbedtls/mbedtls-2.16.2/library\ssl_ticket.c ****                                                 p, cert_len ) ) != 0 )
 251:C:/Users/dtjld/workspace/AIoT/src/LiteOS_Lab/iot_link/network/dtls/mbedtls/mbedtls-2.16.2/library\ssl_ticket.c ****         {
 252:C:/Users/dtjld/workspace/AIoT/src/LiteOS_Lab/iot_link/network/dtls/mbedtls/mbedtls-2.16.2/library\ssl_ticket.c ****             mbedtls_x509_crt_free( session->peer_cert );
 702              		.loc 2 252 0
 703 00c0 FB68     		ldr	r3, [r7, #12]
 704 00c2 DB6D     		ldr	r3, [r3, #92]
 705 00c4 1846     		mov	r0, r3
ARM GAS  C:\Users\dtjld\AppData\Local\Temp\ccnoWzb8.s 			page 27


 706 00c6 FFF7FEFF 		bl	mbedtls_x509_crt_free
 253:C:/Users/dtjld/workspace/AIoT/src/LiteOS_Lab/iot_link/network/dtls/mbedtls/mbedtls-2.16.2/library\ssl_ticket.c ****             mbedtls_free( session->peer_cert );
 707              		.loc 2 253 0
 708 00ca FB68     		ldr	r3, [r7, #12]
 709 00cc DB6D     		ldr	r3, [r3, #92]
 710 00ce 1846     		mov	r0, r3
 711 00d0 FFF7FEFF 		bl	mbedtls_free
 254:C:/Users/dtjld/workspace/AIoT/src/LiteOS_Lab/iot_link/network/dtls/mbedtls/mbedtls-2.16.2/library\ssl_ticket.c ****             session->peer_cert = NULL;
 712              		.loc 2 254 0
 713 00d4 FB68     		ldr	r3, [r7, #12]
 714 00d6 0022     		movs	r2, #0
 715 00d8 DA65     		str	r2, [r3, #92]
 255:C:/Users/dtjld/workspace/AIoT/src/LiteOS_Lab/iot_link/network/dtls/mbedtls/mbedtls-2.16.2/library\ssl_ticket.c ****             return( ret );
 716              		.loc 2 255 0
 717 00da 3B69     		ldr	r3, [r7, #16]
 718 00dc 0AE0     		b	.L34
 719              	.L40:
 256:C:/Users/dtjld/workspace/AIoT/src/LiteOS_Lab/iot_link/network/dtls/mbedtls/mbedtls-2.16.2/library\ssl_ticket.c ****         }
 257:C:/Users/dtjld/workspace/AIoT/src/LiteOS_Lab/iot_link/network/dtls/mbedtls/mbedtls-2.16.2/library\ssl_ticket.c **** 
 258:C:/Users/dtjld/workspace/AIoT/src/LiteOS_Lab/iot_link/network/dtls/mbedtls/mbedtls-2.16.2/library\ssl_ticket.c ****         p += cert_len;
 720              		.loc 2 258 0
 721 00de FA69     		ldr	r2, [r7, #28]
 722 00e0 7B69     		ldr	r3, [r7, #20]
 723 00e2 1344     		add	r3, r3, r2
 724 00e4 FB61     		str	r3, [r7, #28]
 725              	.L37:
 726              	.LBE2:
 259:C:/Users/dtjld/workspace/AIoT/src/LiteOS_Lab/iot_link/network/dtls/mbedtls/mbedtls-2.16.2/library\ssl_ticket.c ****     }
 260:C:/Users/dtjld/workspace/AIoT/src/LiteOS_Lab/iot_link/network/dtls/mbedtls/mbedtls-2.16.2/library\ssl_ticket.c **** #endif /* MBEDTLS_X509_CRT_PARSE_C */
 261:C:/Users/dtjld/workspace/AIoT/src/LiteOS_Lab/iot_link/network/dtls/mbedtls/mbedtls-2.16.2/library\ssl_ticket.c **** 
 262:C:/Users/dtjld/workspace/AIoT/src/LiteOS_Lab/iot_link/network/dtls/mbedtls/mbedtls-2.16.2/library\ssl_ticket.c ****     if( p != end )
 727              		.loc 2 262 0
 728 00e6 FA69     		ldr	r2, [r7, #28]
 729 00e8 BB69     		ldr	r3, [r7, #24]
 730 00ea 9A42     		cmp	r2, r3
 731 00ec 01D0     		beq	.L41
 263:C:/Users/dtjld/workspace/AIoT/src/LiteOS_Lab/iot_link/network/dtls/mbedtls/mbedtls-2.16.2/library\ssl_ticket.c ****         return( MBEDTLS_ERR_SSL_BAD_INPUT_DATA );
 732              		.loc 2 263 0
 733 00ee 034B     		ldr	r3, .L42
 734 00f0 00E0     		b	.L34
 735              	.L41:
 264:C:/Users/dtjld/workspace/AIoT/src/LiteOS_Lab/iot_link/network/dtls/mbedtls/mbedtls-2.16.2/library\ssl_ticket.c **** 
 265:C:/Users/dtjld/workspace/AIoT/src/LiteOS_Lab/iot_link/network/dtls/mbedtls/mbedtls-2.16.2/library\ssl_ticket.c ****     return( 0 );
 736              		.loc 2 265 0
 737 00f2 0023     		movs	r3, #0
 738              	.L34:
 266:C:/Users/dtjld/workspace/AIoT/src/LiteOS_Lab/iot_link/network/dtls/mbedtls/mbedtls-2.16.2/library\ssl_ticket.c **** }
 739              		.loc 2 266 0
 740 00f4 1846     		mov	r0, r3
 741 00f6 2037     		adds	r7, r7, #32
 742              	.LCFI35:
 743              		.cfi_def_cfa_offset 8
 744 00f8 BD46     		mov	sp, r7
 745              	.LCFI36:
 746              		.cfi_def_cfa_register 13
 747              		@ sp needed
 748 00fa 80BD     		pop	{r7, pc}
ARM GAS  C:\Users\dtjld\AppData\Local\Temp\ccnoWzb8.s 			page 28


 749              	.L43:
 750              		.align	2
 751              	.L42:
 752 00fc 008FFFFF 		.word	-28928
 753 0100 0081FFFF 		.word	-32512
 754              		.cfi_endproc
 755              	.LFE25:
 757              		.section	.text.mbedtls_ssl_ticket_write,"ax",%progbits
 758              		.align	1
 759              		.global	mbedtls_ssl_ticket_write
 760              		.syntax unified
 761              		.thumb
 762              		.thumb_func
 763              		.fpu fpv4-sp-d16
 765              	mbedtls_ssl_ticket_write:
 766              	.LFB26:
 267:C:/Users/dtjld/workspace/AIoT/src/LiteOS_Lab/iot_link/network/dtls/mbedtls/mbedtls-2.16.2/library\ssl_ticket.c **** 
 268:C:/Users/dtjld/workspace/AIoT/src/LiteOS_Lab/iot_link/network/dtls/mbedtls/mbedtls-2.16.2/library\ssl_ticket.c **** /*
 269:C:/Users/dtjld/workspace/AIoT/src/LiteOS_Lab/iot_link/network/dtls/mbedtls/mbedtls-2.16.2/library\ssl_ticket.c ****  * Create session ticket, with the following structure:
 270:C:/Users/dtjld/workspace/AIoT/src/LiteOS_Lab/iot_link/network/dtls/mbedtls/mbedtls-2.16.2/library\ssl_ticket.c ****  *
 271:C:/Users/dtjld/workspace/AIoT/src/LiteOS_Lab/iot_link/network/dtls/mbedtls/mbedtls-2.16.2/library\ssl_ticket.c ****  *    struct {
 272:C:/Users/dtjld/workspace/AIoT/src/LiteOS_Lab/iot_link/network/dtls/mbedtls/mbedtls-2.16.2/library\ssl_ticket.c ****  *        opaque key_name[4];
 273:C:/Users/dtjld/workspace/AIoT/src/LiteOS_Lab/iot_link/network/dtls/mbedtls/mbedtls-2.16.2/library\ssl_ticket.c ****  *        opaque iv[12];
 274:C:/Users/dtjld/workspace/AIoT/src/LiteOS_Lab/iot_link/network/dtls/mbedtls/mbedtls-2.16.2/library\ssl_ticket.c ****  *        opaque encrypted_state<0..2^16-1>;
 275:C:/Users/dtjld/workspace/AIoT/src/LiteOS_Lab/iot_link/network/dtls/mbedtls/mbedtls-2.16.2/library\ssl_ticket.c ****  *        opaque tag[16];
 276:C:/Users/dtjld/workspace/AIoT/src/LiteOS_Lab/iot_link/network/dtls/mbedtls/mbedtls-2.16.2/library\ssl_ticket.c ****  *    } ticket;
 277:C:/Users/dtjld/workspace/AIoT/src/LiteOS_Lab/iot_link/network/dtls/mbedtls/mbedtls-2.16.2/library\ssl_ticket.c ****  *
 278:C:/Users/dtjld/workspace/AIoT/src/LiteOS_Lab/iot_link/network/dtls/mbedtls/mbedtls-2.16.2/library\ssl_ticket.c ****  * The key_name, iv, and length of encrypted_state are the additional
 279:C:/Users/dtjld/workspace/AIoT/src/LiteOS_Lab/iot_link/network/dtls/mbedtls/mbedtls-2.16.2/library\ssl_ticket.c ****  * authenticated data.
 280:C:/Users/dtjld/workspace/AIoT/src/LiteOS_Lab/iot_link/network/dtls/mbedtls/mbedtls-2.16.2/library\ssl_ticket.c ****  */
 281:C:/Users/dtjld/workspace/AIoT/src/LiteOS_Lab/iot_link/network/dtls/mbedtls/mbedtls-2.16.2/library\ssl_ticket.c **** int mbedtls_ssl_ticket_write( void *p_ticket,
 282:C:/Users/dtjld/workspace/AIoT/src/LiteOS_Lab/iot_link/network/dtls/mbedtls/mbedtls-2.16.2/library\ssl_ticket.c ****                               const mbedtls_ssl_session *session,
 283:C:/Users/dtjld/workspace/AIoT/src/LiteOS_Lab/iot_link/network/dtls/mbedtls/mbedtls-2.16.2/library\ssl_ticket.c ****                               unsigned char *start,
 284:C:/Users/dtjld/workspace/AIoT/src/LiteOS_Lab/iot_link/network/dtls/mbedtls/mbedtls-2.16.2/library\ssl_ticket.c ****                               const unsigned char *end,
 285:C:/Users/dtjld/workspace/AIoT/src/LiteOS_Lab/iot_link/network/dtls/mbedtls/mbedtls-2.16.2/library\ssl_ticket.c ****                               size_t *tlen,
 286:C:/Users/dtjld/workspace/AIoT/src/LiteOS_Lab/iot_link/network/dtls/mbedtls/mbedtls-2.16.2/library\ssl_ticket.c ****                               uint32_t *ticket_lifetime )
 287:C:/Users/dtjld/workspace/AIoT/src/LiteOS_Lab/iot_link/network/dtls/mbedtls/mbedtls-2.16.2/library\ssl_ticket.c **** {
 767              		.loc 2 287 0
 768              		.cfi_startproc
 769              		@ args = 8, pretend = 0, frame = 56
 770              		@ frame_needed = 1, uses_anonymous_args = 0
 771 0000 80B5     		push	{r7, lr}
 772              	.LCFI37:
 773              		.cfi_def_cfa_offset 8
 774              		.cfi_offset 7, -8
 775              		.cfi_offset 14, -4
 776 0002 96B0     		sub	sp, sp, #88
 777              	.LCFI38:
 778              		.cfi_def_cfa_offset 96
 779 0004 08AF     		add	r7, sp, #32
 780              	.LCFI39:
 781              		.cfi_def_cfa 7, 64
 782 0006 F860     		str	r0, [r7, #12]
 783 0008 B960     		str	r1, [r7, #8]
 784 000a 7A60     		str	r2, [r7, #4]
 785 000c 3B60     		str	r3, [r7]
 288:C:/Users/dtjld/workspace/AIoT/src/LiteOS_Lab/iot_link/network/dtls/mbedtls/mbedtls-2.16.2/library\ssl_ticket.c ****     int ret;
ARM GAS  C:\Users\dtjld\AppData\Local\Temp\ccnoWzb8.s 			page 29


 289:C:/Users/dtjld/workspace/AIoT/src/LiteOS_Lab/iot_link/network/dtls/mbedtls/mbedtls-2.16.2/library\ssl_ticket.c ****     mbedtls_ssl_ticket_context *ctx = p_ticket;
 786              		.loc 2 289 0
 787 000e FB68     		ldr	r3, [r7, #12]
 788 0010 3B63     		str	r3, [r7, #48]
 290:C:/Users/dtjld/workspace/AIoT/src/LiteOS_Lab/iot_link/network/dtls/mbedtls/mbedtls-2.16.2/library\ssl_ticket.c ****     mbedtls_ssl_ticket_key *key;
 291:C:/Users/dtjld/workspace/AIoT/src/LiteOS_Lab/iot_link/network/dtls/mbedtls/mbedtls-2.16.2/library\ssl_ticket.c ****     unsigned char *key_name = start;
 789              		.loc 2 291 0
 790 0012 7B68     		ldr	r3, [r7, #4]
 791 0014 FB62     		str	r3, [r7, #44]
 292:C:/Users/dtjld/workspace/AIoT/src/LiteOS_Lab/iot_link/network/dtls/mbedtls/mbedtls-2.16.2/library\ssl_ticket.c ****     unsigned char *iv = start + 4;
 792              		.loc 2 292 0
 793 0016 7B68     		ldr	r3, [r7, #4]
 794 0018 0433     		adds	r3, r3, #4
 795 001a BB62     		str	r3, [r7, #40]
 293:C:/Users/dtjld/workspace/AIoT/src/LiteOS_Lab/iot_link/network/dtls/mbedtls/mbedtls-2.16.2/library\ssl_ticket.c ****     unsigned char *state_len_bytes = iv + 12;
 796              		.loc 2 293 0
 797 001c BB6A     		ldr	r3, [r7, #40]
 798 001e 0C33     		adds	r3, r3, #12
 799 0020 7B62     		str	r3, [r7, #36]
 294:C:/Users/dtjld/workspace/AIoT/src/LiteOS_Lab/iot_link/network/dtls/mbedtls/mbedtls-2.16.2/library\ssl_ticket.c ****     unsigned char *state = state_len_bytes + 2;
 800              		.loc 2 294 0
 801 0022 7B6A     		ldr	r3, [r7, #36]
 802 0024 0233     		adds	r3, r3, #2
 803 0026 3B62     		str	r3, [r7, #32]
 295:C:/Users/dtjld/workspace/AIoT/src/LiteOS_Lab/iot_link/network/dtls/mbedtls/mbedtls-2.16.2/library\ssl_ticket.c ****     unsigned char *tag;
 296:C:/Users/dtjld/workspace/AIoT/src/LiteOS_Lab/iot_link/network/dtls/mbedtls/mbedtls-2.16.2/library\ssl_ticket.c ****     size_t clear_len, ciph_len;
 297:C:/Users/dtjld/workspace/AIoT/src/LiteOS_Lab/iot_link/network/dtls/mbedtls/mbedtls-2.16.2/library\ssl_ticket.c **** 
 298:C:/Users/dtjld/workspace/AIoT/src/LiteOS_Lab/iot_link/network/dtls/mbedtls/mbedtls-2.16.2/library\ssl_ticket.c ****     *tlen = 0;
 804              		.loc 2 298 0
 805 0028 3B6C     		ldr	r3, [r7, #64]
 806 002a 0022     		movs	r2, #0
 807 002c 1A60     		str	r2, [r3]
 299:C:/Users/dtjld/workspace/AIoT/src/LiteOS_Lab/iot_link/network/dtls/mbedtls/mbedtls-2.16.2/library\ssl_ticket.c **** 
 300:C:/Users/dtjld/workspace/AIoT/src/LiteOS_Lab/iot_link/network/dtls/mbedtls/mbedtls-2.16.2/library\ssl_ticket.c ****     if( ctx == NULL || ctx->f_rng == NULL )
 808              		.loc 2 300 0
 809 002e 3B6B     		ldr	r3, [r7, #48]
 810 0030 002B     		cmp	r3, #0
 811 0032 04D0     		beq	.L45
 812              		.loc 2 300 0 is_stmt 0 discriminator 1
 813 0034 3B6B     		ldr	r3, [r7, #48]
 814 0036 D3F89830 		ldr	r3, [r3, #152]
 815 003a 002B     		cmp	r3, #0
 816 003c 01D1     		bne	.L46
 817              	.L45:
 301:C:/Users/dtjld/workspace/AIoT/src/LiteOS_Lab/iot_link/network/dtls/mbedtls/mbedtls-2.16.2/library\ssl_ticket.c ****         return( MBEDTLS_ERR_SSL_BAD_INPUT_DATA );
 818              		.loc 2 301 0 is_stmt 1
 819 003e 434B     		ldr	r3, .L59
 820 0040 7FE0     		b	.L54
 821              	.L46:
 302:C:/Users/dtjld/workspace/AIoT/src/LiteOS_Lab/iot_link/network/dtls/mbedtls/mbedtls-2.16.2/library\ssl_ticket.c **** 
 303:C:/Users/dtjld/workspace/AIoT/src/LiteOS_Lab/iot_link/network/dtls/mbedtls/mbedtls-2.16.2/library\ssl_ticket.c ****     /* We need at least 4 bytes for key_name, 12 for IV, 2 for len 16 for tag,
 304:C:/Users/dtjld/workspace/AIoT/src/LiteOS_Lab/iot_link/network/dtls/mbedtls/mbedtls-2.16.2/library\ssl_ticket.c ****      * in addition to session itself, that will be checked when writing it. */
 305:C:/Users/dtjld/workspace/AIoT/src/LiteOS_Lab/iot_link/network/dtls/mbedtls/mbedtls-2.16.2/library\ssl_ticket.c ****     if( end - start < 4 + 12 + 2 + 16 )
 822              		.loc 2 305 0
 823 0042 3A68     		ldr	r2, [r7]
 824 0044 7B68     		ldr	r3, [r7, #4]
 825 0046 D31A     		subs	r3, r2, r3
ARM GAS  C:\Users\dtjld\AppData\Local\Temp\ccnoWzb8.s 			page 30


 826 0048 212B     		cmp	r3, #33
 827 004a 01DC     		bgt	.L48
 306:C:/Users/dtjld/workspace/AIoT/src/LiteOS_Lab/iot_link/network/dtls/mbedtls/mbedtls-2.16.2/library\ssl_ticket.c ****         return( MBEDTLS_ERR_SSL_BUFFER_TOO_SMALL );
 828              		.loc 2 306 0
 829 004c 404B     		ldr	r3, .L59+4
 830 004e 78E0     		b	.L54
 831              	.L48:
 307:C:/Users/dtjld/workspace/AIoT/src/LiteOS_Lab/iot_link/network/dtls/mbedtls/mbedtls-2.16.2/library\ssl_ticket.c **** 
 308:C:/Users/dtjld/workspace/AIoT/src/LiteOS_Lab/iot_link/network/dtls/mbedtls/mbedtls-2.16.2/library\ssl_ticket.c **** #if defined(MBEDTLS_THREADING_C)
 309:C:/Users/dtjld/workspace/AIoT/src/LiteOS_Lab/iot_link/network/dtls/mbedtls/mbedtls-2.16.2/library\ssl_ticket.c ****     if( ( ret = mbedtls_mutex_lock( &ctx->mutex ) ) != 0 )
 310:C:/Users/dtjld/workspace/AIoT/src/LiteOS_Lab/iot_link/network/dtls/mbedtls/mbedtls-2.16.2/library\ssl_ticket.c ****         return( ret );
 311:C:/Users/dtjld/workspace/AIoT/src/LiteOS_Lab/iot_link/network/dtls/mbedtls/mbedtls-2.16.2/library\ssl_ticket.c **** #endif
 312:C:/Users/dtjld/workspace/AIoT/src/LiteOS_Lab/iot_link/network/dtls/mbedtls/mbedtls-2.16.2/library\ssl_ticket.c **** 
 313:C:/Users/dtjld/workspace/AIoT/src/LiteOS_Lab/iot_link/network/dtls/mbedtls/mbedtls-2.16.2/library\ssl_ticket.c ****     if( ( ret = ssl_ticket_update_keys( ctx ) ) != 0 )
 832              		.loc 2 313 0
 833 0050 386B     		ldr	r0, [r7, #48]
 834 0052 FFF7FEFF 		bl	ssl_ticket_update_keys
 835 0056 7863     		str	r0, [r7, #52]
 836 0058 7B6B     		ldr	r3, [r7, #52]
 837 005a 002B     		cmp	r3, #0
 838 005c 69D1     		bne	.L55
 314:C:/Users/dtjld/workspace/AIoT/src/LiteOS_Lab/iot_link/network/dtls/mbedtls/mbedtls-2.16.2/library\ssl_ticket.c ****         goto cleanup;
 315:C:/Users/dtjld/workspace/AIoT/src/LiteOS_Lab/iot_link/network/dtls/mbedtls/mbedtls-2.16.2/library\ssl_ticket.c **** 
 316:C:/Users/dtjld/workspace/AIoT/src/LiteOS_Lab/iot_link/network/dtls/mbedtls/mbedtls-2.16.2/library\ssl_ticket.c ****     key = &ctx->keys[ctx->active];
 839              		.loc 2 316 0
 840 005e 3B6B     		ldr	r3, [r7, #48]
 841 0060 93F89030 		ldrb	r3, [r3, #144]	@ zero_extendqisi2
 842 0064 1A46     		mov	r2, r3
 843 0066 1346     		mov	r3, r2
 844 0068 DB00     		lsls	r3, r3, #3
 845 006a 1344     		add	r3, r3, r2
 846 006c DB00     		lsls	r3, r3, #3
 847 006e 3A6B     		ldr	r2, [r7, #48]
 848 0070 1344     		add	r3, r3, r2
 849 0072 FB61     		str	r3, [r7, #28]
 317:C:/Users/dtjld/workspace/AIoT/src/LiteOS_Lab/iot_link/network/dtls/mbedtls/mbedtls-2.16.2/library\ssl_ticket.c **** 
 318:C:/Users/dtjld/workspace/AIoT/src/LiteOS_Lab/iot_link/network/dtls/mbedtls/mbedtls-2.16.2/library\ssl_ticket.c ****     *ticket_lifetime = ctx->ticket_lifetime;
 850              		.loc 2 318 0
 851 0074 3B6B     		ldr	r3, [r7, #48]
 852 0076 D3F89420 		ldr	r2, [r3, #148]
 853 007a 7B6C     		ldr	r3, [r7, #68]
 854 007c 1A60     		str	r2, [r3]
 319:C:/Users/dtjld/workspace/AIoT/src/LiteOS_Lab/iot_link/network/dtls/mbedtls/mbedtls-2.16.2/library\ssl_ticket.c **** 
 320:C:/Users/dtjld/workspace/AIoT/src/LiteOS_Lab/iot_link/network/dtls/mbedtls/mbedtls-2.16.2/library\ssl_ticket.c ****     memcpy( key_name, key->name, 4 );
 855              		.loc 2 320 0
 856 007e FB69     		ldr	r3, [r7, #28]
 857 0080 1B68     		ldr	r3, [r3]	@ unaligned
 858 0082 1A46     		mov	r2, r3
 859 0084 FB6A     		ldr	r3, [r7, #44]
 860 0086 1A60     		str	r2, [r3]	@ unaligned
 321:C:/Users/dtjld/workspace/AIoT/src/LiteOS_Lab/iot_link/network/dtls/mbedtls/mbedtls-2.16.2/library\ssl_ticket.c **** 
 322:C:/Users/dtjld/workspace/AIoT/src/LiteOS_Lab/iot_link/network/dtls/mbedtls/mbedtls-2.16.2/library\ssl_ticket.c ****     if( ( ret = ctx->f_rng( ctx->p_rng, iv, 12 ) ) != 0 )
 861              		.loc 2 322 0
 862 0088 3B6B     		ldr	r3, [r7, #48]
 863 008a D3F89830 		ldr	r3, [r3, #152]
 864 008e 3A6B     		ldr	r2, [r7, #48]
 865 0090 D2F89C00 		ldr	r0, [r2, #156]
ARM GAS  C:\Users\dtjld\AppData\Local\Temp\ccnoWzb8.s 			page 31


 866 0094 0C22     		movs	r2, #12
 867 0096 B96A     		ldr	r1, [r7, #40]
 868 0098 9847     		blx	r3
 869              	.LVL2:
 870 009a 7863     		str	r0, [r7, #52]
 871 009c 7B6B     		ldr	r3, [r7, #52]
 872 009e 002B     		cmp	r3, #0
 873 00a0 49D1     		bne	.L56
 323:C:/Users/dtjld/workspace/AIoT/src/LiteOS_Lab/iot_link/network/dtls/mbedtls/mbedtls-2.16.2/library\ssl_ticket.c ****         goto cleanup;
 324:C:/Users/dtjld/workspace/AIoT/src/LiteOS_Lab/iot_link/network/dtls/mbedtls/mbedtls-2.16.2/library\ssl_ticket.c **** 
 325:C:/Users/dtjld/workspace/AIoT/src/LiteOS_Lab/iot_link/network/dtls/mbedtls/mbedtls-2.16.2/library\ssl_ticket.c ****     /* Dump session state */
 326:C:/Users/dtjld/workspace/AIoT/src/LiteOS_Lab/iot_link/network/dtls/mbedtls/mbedtls-2.16.2/library\ssl_ticket.c ****     if( ( ret = ssl_save_session( session,
 327:C:/Users/dtjld/workspace/AIoT/src/LiteOS_Lab/iot_link/network/dtls/mbedtls/mbedtls-2.16.2/library\ssl_ticket.c ****                                   state, end - state, &clear_len ) ) != 0 ||
 874              		.loc 2 327 0
 875 00a2 3A68     		ldr	r2, [r7]
 876 00a4 3B6A     		ldr	r3, [r7, #32]
 877 00a6 D31A     		subs	r3, r2, r3
 326:C:/Users/dtjld/workspace/AIoT/src/LiteOS_Lab/iot_link/network/dtls/mbedtls/mbedtls-2.16.2/library\ssl_ticket.c ****                                   state, end - state, &clear_len ) ) != 0 ||
 878              		.loc 2 326 0
 879 00a8 1A46     		mov	r2, r3
 880 00aa 07F11403 		add	r3, r7, #20
 881 00ae 396A     		ldr	r1, [r7, #32]
 882 00b0 B868     		ldr	r0, [r7, #8]
 883 00b2 FFF7FEFF 		bl	ssl_save_session
 884 00b6 7863     		str	r0, [r7, #52]
 885 00b8 7B6B     		ldr	r3, [r7, #52]
 886 00ba 002B     		cmp	r3, #0
 887 00bc 3DD1     		bne	.L57
 328:C:/Users/dtjld/workspace/AIoT/src/LiteOS_Lab/iot_link/network/dtls/mbedtls/mbedtls-2.16.2/library\ssl_ticket.c ****         (unsigned long) clear_len > 65535 )
 888              		.loc 2 328 0
 889 00be 7B69     		ldr	r3, [r7, #20]
 327:C:/Users/dtjld/workspace/AIoT/src/LiteOS_Lab/iot_link/network/dtls/mbedtls/mbedtls-2.16.2/library\ssl_ticket.c ****         (unsigned long) clear_len > 65535 )
 890              		.loc 2 327 0
 891 00c0 B3F5803F 		cmp	r3, #65536
 892 00c4 39D2     		bcs	.L57
 329:C:/Users/dtjld/workspace/AIoT/src/LiteOS_Lab/iot_link/network/dtls/mbedtls/mbedtls-2.16.2/library\ssl_ticket.c ****     {
 330:C:/Users/dtjld/workspace/AIoT/src/LiteOS_Lab/iot_link/network/dtls/mbedtls/mbedtls-2.16.2/library\ssl_ticket.c ****          goto cleanup;
 331:C:/Users/dtjld/workspace/AIoT/src/LiteOS_Lab/iot_link/network/dtls/mbedtls/mbedtls-2.16.2/library\ssl_ticket.c ****     }
 332:C:/Users/dtjld/workspace/AIoT/src/LiteOS_Lab/iot_link/network/dtls/mbedtls/mbedtls-2.16.2/library\ssl_ticket.c ****     state_len_bytes[0] = ( clear_len >> 8 ) & 0xff;
 893              		.loc 2 332 0
 894 00c6 7B69     		ldr	r3, [r7, #20]
 895 00c8 1B0A     		lsrs	r3, r3, #8
 896 00ca DAB2     		uxtb	r2, r3
 897 00cc 7B6A     		ldr	r3, [r7, #36]
 898 00ce 1A70     		strb	r2, [r3]
 333:C:/Users/dtjld/workspace/AIoT/src/LiteOS_Lab/iot_link/network/dtls/mbedtls/mbedtls-2.16.2/library\ssl_ticket.c ****     state_len_bytes[1] = ( clear_len      ) & 0xff;
 899              		.loc 2 333 0
 900 00d0 7A69     		ldr	r2, [r7, #20]
 901 00d2 7B6A     		ldr	r3, [r7, #36]
 902 00d4 0133     		adds	r3, r3, #1
 903 00d6 D2B2     		uxtb	r2, r2
 904 00d8 1A70     		strb	r2, [r3]
 334:C:/Users/dtjld/workspace/AIoT/src/LiteOS_Lab/iot_link/network/dtls/mbedtls/mbedtls-2.16.2/library\ssl_ticket.c **** 
 335:C:/Users/dtjld/workspace/AIoT/src/LiteOS_Lab/iot_link/network/dtls/mbedtls/mbedtls-2.16.2/library\ssl_ticket.c ****     /* Encrypt and authenticate */
 336:C:/Users/dtjld/workspace/AIoT/src/LiteOS_Lab/iot_link/network/dtls/mbedtls/mbedtls-2.16.2/library\ssl_ticket.c ****     tag = state + clear_len;
 905              		.loc 2 336 0
 906 00da 7B69     		ldr	r3, [r7, #20]
ARM GAS  C:\Users\dtjld\AppData\Local\Temp\ccnoWzb8.s 			page 32


 907 00dc 3A6A     		ldr	r2, [r7, #32]
 908 00de 1344     		add	r3, r3, r2
 909 00e0 BB61     		str	r3, [r7, #24]
 337:C:/Users/dtjld/workspace/AIoT/src/LiteOS_Lab/iot_link/network/dtls/mbedtls/mbedtls-2.16.2/library\ssl_ticket.c ****     if( ( ret = mbedtls_cipher_auth_encrypt( &key->ctx,
 910              		.loc 2 337 0
 911 00e2 FB69     		ldr	r3, [r7, #28]
 912 00e4 03F10800 		add	r0, r3, #8
 913 00e8 7B69     		ldr	r3, [r7, #20]
 914 00ea 1022     		movs	r2, #16
 915 00ec 0692     		str	r2, [sp, #24]
 916 00ee BA69     		ldr	r2, [r7, #24]
 917 00f0 0592     		str	r2, [sp, #20]
 918 00f2 07F11002 		add	r2, r7, #16
 919 00f6 0492     		str	r2, [sp, #16]
 920 00f8 3A6A     		ldr	r2, [r7, #32]
 921 00fa 0392     		str	r2, [sp, #12]
 922 00fc 0293     		str	r3, [sp, #8]
 923 00fe 3B6A     		ldr	r3, [r7, #32]
 924 0100 0193     		str	r3, [sp, #4]
 925 0102 1223     		movs	r3, #18
 926 0104 0093     		str	r3, [sp]
 927 0106 FB6A     		ldr	r3, [r7, #44]
 928 0108 0C22     		movs	r2, #12
 929 010a B96A     		ldr	r1, [r7, #40]
 930 010c FFF7FEFF 		bl	mbedtls_cipher_auth_encrypt
 931 0110 7863     		str	r0, [r7, #52]
 932 0112 7B6B     		ldr	r3, [r7, #52]
 933 0114 002B     		cmp	r3, #0
 934 0116 12D1     		bne	.L58
 338:C:/Users/dtjld/workspace/AIoT/src/LiteOS_Lab/iot_link/network/dtls/mbedtls/mbedtls-2.16.2/library\ssl_ticket.c ****                     iv, 12, key_name, 4 + 12 + 2,
 339:C:/Users/dtjld/workspace/AIoT/src/LiteOS_Lab/iot_link/network/dtls/mbedtls/mbedtls-2.16.2/library\ssl_ticket.c ****                     state, clear_len, state, &ciph_len, tag, 16 ) ) != 0 )
 340:C:/Users/dtjld/workspace/AIoT/src/LiteOS_Lab/iot_link/network/dtls/mbedtls/mbedtls-2.16.2/library\ssl_ticket.c ****     {
 341:C:/Users/dtjld/workspace/AIoT/src/LiteOS_Lab/iot_link/network/dtls/mbedtls/mbedtls-2.16.2/library\ssl_ticket.c ****         goto cleanup;
 342:C:/Users/dtjld/workspace/AIoT/src/LiteOS_Lab/iot_link/network/dtls/mbedtls/mbedtls-2.16.2/library\ssl_ticket.c ****     }
 343:C:/Users/dtjld/workspace/AIoT/src/LiteOS_Lab/iot_link/network/dtls/mbedtls/mbedtls-2.16.2/library\ssl_ticket.c ****     if( ciph_len != clear_len )
 935              		.loc 2 343 0
 936 0118 3A69     		ldr	r2, [r7, #16]
 937 011a 7B69     		ldr	r3, [r7, #20]
 938 011c 9A42     		cmp	r2, r3
 939 011e 02D0     		beq	.L53
 344:C:/Users/dtjld/workspace/AIoT/src/LiteOS_Lab/iot_link/network/dtls/mbedtls/mbedtls-2.16.2/library\ssl_ticket.c ****     {
 345:C:/Users/dtjld/workspace/AIoT/src/LiteOS_Lab/iot_link/network/dtls/mbedtls/mbedtls-2.16.2/library\ssl_ticket.c ****         ret = MBEDTLS_ERR_SSL_INTERNAL_ERROR;
 940              		.loc 2 345 0
 941 0120 0C4B     		ldr	r3, .L59+8
 942 0122 7B63     		str	r3, [r7, #52]
 346:C:/Users/dtjld/workspace/AIoT/src/LiteOS_Lab/iot_link/network/dtls/mbedtls/mbedtls-2.16.2/library\ssl_ticket.c ****         goto cleanup;
 943              		.loc 2 346 0
 944 0124 0CE0     		b	.L50
 945              	.L53:
 347:C:/Users/dtjld/workspace/AIoT/src/LiteOS_Lab/iot_link/network/dtls/mbedtls/mbedtls-2.16.2/library\ssl_ticket.c ****     }
 348:C:/Users/dtjld/workspace/AIoT/src/LiteOS_Lab/iot_link/network/dtls/mbedtls/mbedtls-2.16.2/library\ssl_ticket.c **** 
 349:C:/Users/dtjld/workspace/AIoT/src/LiteOS_Lab/iot_link/network/dtls/mbedtls/mbedtls-2.16.2/library\ssl_ticket.c ****     *tlen = 4 + 12 + 2 + 16 + ciph_len;
 946              		.loc 2 349 0
 947 0126 3B69     		ldr	r3, [r7, #16]
 948 0128 03F12202 		add	r2, r3, #34
 949 012c 3B6C     		ldr	r3, [r7, #64]
 950 012e 1A60     		str	r2, [r3]
ARM GAS  C:\Users\dtjld\AppData\Local\Temp\ccnoWzb8.s 			page 33


 951 0130 06E0     		b	.L50
 952              	.L55:
 314:C:/Users/dtjld/workspace/AIoT/src/LiteOS_Lab/iot_link/network/dtls/mbedtls/mbedtls-2.16.2/library\ssl_ticket.c **** 
 953              		.loc 2 314 0
 954 0132 00BF     		nop
 955 0134 04E0     		b	.L50
 956              	.L56:
 323:C:/Users/dtjld/workspace/AIoT/src/LiteOS_Lab/iot_link/network/dtls/mbedtls/mbedtls-2.16.2/library\ssl_ticket.c **** 
 957              		.loc 2 323 0
 958 0136 00BF     		nop
 959 0138 02E0     		b	.L50
 960              	.L57:
 350:C:/Users/dtjld/workspace/AIoT/src/LiteOS_Lab/iot_link/network/dtls/mbedtls/mbedtls-2.16.2/library\ssl_ticket.c **** 
 351:C:/Users/dtjld/workspace/AIoT/src/LiteOS_Lab/iot_link/network/dtls/mbedtls/mbedtls-2.16.2/library\ssl_ticket.c **** cleanup:
 961              		.loc 2 351 0
 962 013a 00BF     		nop
 963 013c 00E0     		b	.L50
 964              	.L58:
 341:C:/Users/dtjld/workspace/AIoT/src/LiteOS_Lab/iot_link/network/dtls/mbedtls/mbedtls-2.16.2/library\ssl_ticket.c ****     }
 965              		.loc 2 341 0
 966 013e 00BF     		nop
 967              	.L50:
 352:C:/Users/dtjld/workspace/AIoT/src/LiteOS_Lab/iot_link/network/dtls/mbedtls/mbedtls-2.16.2/library\ssl_ticket.c **** #if defined(MBEDTLS_THREADING_C)
 353:C:/Users/dtjld/workspace/AIoT/src/LiteOS_Lab/iot_link/network/dtls/mbedtls/mbedtls-2.16.2/library\ssl_ticket.c ****     if( mbedtls_mutex_unlock( &ctx->mutex ) != 0 )
 354:C:/Users/dtjld/workspace/AIoT/src/LiteOS_Lab/iot_link/network/dtls/mbedtls/mbedtls-2.16.2/library\ssl_ticket.c ****         return( MBEDTLS_ERR_THREADING_MUTEX_ERROR );
 355:C:/Users/dtjld/workspace/AIoT/src/LiteOS_Lab/iot_link/network/dtls/mbedtls/mbedtls-2.16.2/library\ssl_ticket.c **** #endif
 356:C:/Users/dtjld/workspace/AIoT/src/LiteOS_Lab/iot_link/network/dtls/mbedtls/mbedtls-2.16.2/library\ssl_ticket.c **** 
 357:C:/Users/dtjld/workspace/AIoT/src/LiteOS_Lab/iot_link/network/dtls/mbedtls/mbedtls-2.16.2/library\ssl_ticket.c ****     return( ret );
 968              		.loc 2 357 0
 969 0140 7B6B     		ldr	r3, [r7, #52]
 970              	.L54:
 358:C:/Users/dtjld/workspace/AIoT/src/LiteOS_Lab/iot_link/network/dtls/mbedtls/mbedtls-2.16.2/library\ssl_ticket.c **** }
 971              		.loc 2 358 0 discriminator 1
 972 0142 1846     		mov	r0, r3
 973 0144 3837     		adds	r7, r7, #56
 974              	.LCFI40:
 975              		.cfi_def_cfa_offset 8
 976 0146 BD46     		mov	sp, r7
 977              	.LCFI41:
 978              		.cfi_def_cfa_register 13
 979              		@ sp needed
 980 0148 80BD     		pop	{r7, pc}
 981              	.L60:
 982 014a 00BF     		.align	2
 983              	.L59:
 984 014c 008FFFFF 		.word	-28928
 985 0150 0096FFFF 		.word	-27136
 986 0154 0094FFFF 		.word	-27648
 987              		.cfi_endproc
 988              	.LFE26:
 990              		.section	.text.ssl_ticket_select_key,"ax",%progbits
 991              		.align	1
 992              		.syntax unified
 993              		.thumb
 994              		.thumb_func
 995              		.fpu fpv4-sp-d16
 997              	ssl_ticket_select_key:
ARM GAS  C:\Users\dtjld\AppData\Local\Temp\ccnoWzb8.s 			page 34


 998              	.LFB27:
 359:C:/Users/dtjld/workspace/AIoT/src/LiteOS_Lab/iot_link/network/dtls/mbedtls/mbedtls-2.16.2/library\ssl_ticket.c **** 
 360:C:/Users/dtjld/workspace/AIoT/src/LiteOS_Lab/iot_link/network/dtls/mbedtls/mbedtls-2.16.2/library\ssl_ticket.c **** /*
 361:C:/Users/dtjld/workspace/AIoT/src/LiteOS_Lab/iot_link/network/dtls/mbedtls/mbedtls-2.16.2/library\ssl_ticket.c ****  * Select key based on name
 362:C:/Users/dtjld/workspace/AIoT/src/LiteOS_Lab/iot_link/network/dtls/mbedtls/mbedtls-2.16.2/library\ssl_ticket.c ****  */
 363:C:/Users/dtjld/workspace/AIoT/src/LiteOS_Lab/iot_link/network/dtls/mbedtls/mbedtls-2.16.2/library\ssl_ticket.c **** static mbedtls_ssl_ticket_key *ssl_ticket_select_key(
 364:C:/Users/dtjld/workspace/AIoT/src/LiteOS_Lab/iot_link/network/dtls/mbedtls/mbedtls-2.16.2/library\ssl_ticket.c ****         mbedtls_ssl_ticket_context *ctx,
 365:C:/Users/dtjld/workspace/AIoT/src/LiteOS_Lab/iot_link/network/dtls/mbedtls/mbedtls-2.16.2/library\ssl_ticket.c ****         const unsigned char name[4] )
 366:C:/Users/dtjld/workspace/AIoT/src/LiteOS_Lab/iot_link/network/dtls/mbedtls/mbedtls-2.16.2/library\ssl_ticket.c **** {
 999              		.loc 2 366 0
 1000              		.cfi_startproc
 1001              		@ args = 0, pretend = 0, frame = 16
 1002              		@ frame_needed = 1, uses_anonymous_args = 0
 1003 0000 80B5     		push	{r7, lr}
 1004              	.LCFI42:
 1005              		.cfi_def_cfa_offset 8
 1006              		.cfi_offset 7, -8
 1007              		.cfi_offset 14, -4
 1008 0002 84B0     		sub	sp, sp, #16
 1009              	.LCFI43:
 1010              		.cfi_def_cfa_offset 24
 1011 0004 00AF     		add	r7, sp, #0
 1012              	.LCFI44:
 1013              		.cfi_def_cfa_register 7
 1014 0006 7860     		str	r0, [r7, #4]
 1015 0008 3960     		str	r1, [r7]
 367:C:/Users/dtjld/workspace/AIoT/src/LiteOS_Lab/iot_link/network/dtls/mbedtls/mbedtls-2.16.2/library\ssl_ticket.c ****     unsigned char i;
 368:C:/Users/dtjld/workspace/AIoT/src/LiteOS_Lab/iot_link/network/dtls/mbedtls/mbedtls-2.16.2/library\ssl_ticket.c **** 
 369:C:/Users/dtjld/workspace/AIoT/src/LiteOS_Lab/iot_link/network/dtls/mbedtls/mbedtls-2.16.2/library\ssl_ticket.c ****     for( i = 0; i < sizeof( ctx->keys ) / sizeof( *ctx->keys ); i++ )
 1016              		.loc 2 369 0
 1017 000a 0023     		movs	r3, #0
 1018 000c FB73     		strb	r3, [r7, #15]
 1019 000e 19E0     		b	.L62
 1020              	.L65:
 370:C:/Users/dtjld/workspace/AIoT/src/LiteOS_Lab/iot_link/network/dtls/mbedtls/mbedtls-2.16.2/library\ssl_ticket.c ****         if( memcmp( name, ctx->keys[i].name, 4 ) == 0 )
 1021              		.loc 2 370 0
 1022 0010 FA7B     		ldrb	r2, [r7, #15]	@ zero_extendqisi2
 1023 0012 1346     		mov	r3, r2
 1024 0014 DB00     		lsls	r3, r3, #3
 1025 0016 1344     		add	r3, r3, r2
 1026 0018 DB00     		lsls	r3, r3, #3
 1027 001a 7A68     		ldr	r2, [r7, #4]
 1028 001c 1344     		add	r3, r3, r2
 1029 001e 0422     		movs	r2, #4
 1030 0020 1946     		mov	r1, r3
 1031 0022 3868     		ldr	r0, [r7]
 1032 0024 FFF7FEFF 		bl	memcmp
 1033 0028 0346     		mov	r3, r0
 1034 002a 002B     		cmp	r3, #0
 1035 002c 07D1     		bne	.L63
 371:C:/Users/dtjld/workspace/AIoT/src/LiteOS_Lab/iot_link/network/dtls/mbedtls/mbedtls-2.16.2/library\ssl_ticket.c ****             return( &ctx->keys[i] );
 1036              		.loc 2 371 0
 1037 002e FA7B     		ldrb	r2, [r7, #15]	@ zero_extendqisi2
 1038 0030 1346     		mov	r3, r2
 1039 0032 DB00     		lsls	r3, r3, #3
 1040 0034 1344     		add	r3, r3, r2
 1041 0036 DB00     		lsls	r3, r3, #3
ARM GAS  C:\Users\dtjld\AppData\Local\Temp\ccnoWzb8.s 			page 35


 1042 0038 7A68     		ldr	r2, [r7, #4]
 1043 003a 1344     		add	r3, r3, r2
 1044 003c 06E0     		b	.L64
 1045              	.L63:
 369:C:/Users/dtjld/workspace/AIoT/src/LiteOS_Lab/iot_link/network/dtls/mbedtls/mbedtls-2.16.2/library\ssl_ticket.c ****         if( memcmp( name, ctx->keys[i].name, 4 ) == 0 )
 1046              		.loc 2 369 0 discriminator 2
 1047 003e FB7B     		ldrb	r3, [r7, #15]	@ zero_extendqisi2
 1048 0040 0133     		adds	r3, r3, #1
 1049 0042 FB73     		strb	r3, [r7, #15]
 1050              	.L62:
 369:C:/Users/dtjld/workspace/AIoT/src/LiteOS_Lab/iot_link/network/dtls/mbedtls/mbedtls-2.16.2/library\ssl_ticket.c ****         if( memcmp( name, ctx->keys[i].name, 4 ) == 0 )
 1051              		.loc 2 369 0 is_stmt 0 discriminator 1
 1052 0044 FB7B     		ldrb	r3, [r7, #15]	@ zero_extendqisi2
 1053 0046 012B     		cmp	r3, #1
 1054 0048 E2D9     		bls	.L65
 372:C:/Users/dtjld/workspace/AIoT/src/LiteOS_Lab/iot_link/network/dtls/mbedtls/mbedtls-2.16.2/library\ssl_ticket.c **** 
 373:C:/Users/dtjld/workspace/AIoT/src/LiteOS_Lab/iot_link/network/dtls/mbedtls/mbedtls-2.16.2/library\ssl_ticket.c ****     return( NULL );
 1055              		.loc 2 373 0 is_stmt 1
 1056 004a 0023     		movs	r3, #0
 1057              	.L64:
 374:C:/Users/dtjld/workspace/AIoT/src/LiteOS_Lab/iot_link/network/dtls/mbedtls/mbedtls-2.16.2/library\ssl_ticket.c **** }
 1058              		.loc 2 374 0
 1059 004c 1846     		mov	r0, r3
 1060 004e 1037     		adds	r7, r7, #16
 1061              	.LCFI45:
 1062              		.cfi_def_cfa_offset 8
 1063 0050 BD46     		mov	sp, r7
 1064              	.LCFI46:
 1065              		.cfi_def_cfa_register 13
 1066              		@ sp needed
 1067 0052 80BD     		pop	{r7, pc}
 1068              		.cfi_endproc
 1069              	.LFE27:
 1071              		.section	.text.mbedtls_ssl_ticket_parse,"ax",%progbits
 1072              		.align	1
 1073              		.global	mbedtls_ssl_ticket_parse
 1074              		.syntax unified
 1075              		.thumb
 1076              		.thumb_func
 1077              		.fpu fpv4-sp-d16
 1079              	mbedtls_ssl_ticket_parse:
 1080              	.LFB28:
 375:C:/Users/dtjld/workspace/AIoT/src/LiteOS_Lab/iot_link/network/dtls/mbedtls/mbedtls-2.16.2/library\ssl_ticket.c **** 
 376:C:/Users/dtjld/workspace/AIoT/src/LiteOS_Lab/iot_link/network/dtls/mbedtls/mbedtls-2.16.2/library\ssl_ticket.c **** /*
 377:C:/Users/dtjld/workspace/AIoT/src/LiteOS_Lab/iot_link/network/dtls/mbedtls/mbedtls-2.16.2/library\ssl_ticket.c ****  * Load session ticket (see mbedtls_ssl_ticket_write for structure)
 378:C:/Users/dtjld/workspace/AIoT/src/LiteOS_Lab/iot_link/network/dtls/mbedtls/mbedtls-2.16.2/library\ssl_ticket.c ****  */
 379:C:/Users/dtjld/workspace/AIoT/src/LiteOS_Lab/iot_link/network/dtls/mbedtls/mbedtls-2.16.2/library\ssl_ticket.c **** int mbedtls_ssl_ticket_parse( void *p_ticket,
 380:C:/Users/dtjld/workspace/AIoT/src/LiteOS_Lab/iot_link/network/dtls/mbedtls/mbedtls-2.16.2/library\ssl_ticket.c ****                               mbedtls_ssl_session *session,
 381:C:/Users/dtjld/workspace/AIoT/src/LiteOS_Lab/iot_link/network/dtls/mbedtls/mbedtls-2.16.2/library\ssl_ticket.c ****                               unsigned char *buf,
 382:C:/Users/dtjld/workspace/AIoT/src/LiteOS_Lab/iot_link/network/dtls/mbedtls/mbedtls-2.16.2/library\ssl_ticket.c ****                               size_t len )
 383:C:/Users/dtjld/workspace/AIoT/src/LiteOS_Lab/iot_link/network/dtls/mbedtls/mbedtls-2.16.2/library\ssl_ticket.c **** {
 1081              		.loc 2 383 0
 1082              		.cfi_startproc
 1083              		@ args = 0, pretend = 0, frame = 56
 1084              		@ frame_needed = 1, uses_anonymous_args = 0
 1085 0000 80B5     		push	{r7, lr}
 1086              	.LCFI47:
ARM GAS  C:\Users\dtjld\AppData\Local\Temp\ccnoWzb8.s 			page 36


 1087              		.cfi_def_cfa_offset 8
 1088              		.cfi_offset 7, -8
 1089              		.cfi_offset 14, -4
 1090 0002 96B0     		sub	sp, sp, #88
 1091              	.LCFI48:
 1092              		.cfi_def_cfa_offset 96
 1093 0004 08AF     		add	r7, sp, #32
 1094              	.LCFI49:
 1095              		.cfi_def_cfa 7, 64
 1096 0006 F860     		str	r0, [r7, #12]
 1097 0008 B960     		str	r1, [r7, #8]
 1098 000a 7A60     		str	r2, [r7, #4]
 1099 000c 3B60     		str	r3, [r7]
 384:C:/Users/dtjld/workspace/AIoT/src/LiteOS_Lab/iot_link/network/dtls/mbedtls/mbedtls-2.16.2/library\ssl_ticket.c ****     int ret;
 385:C:/Users/dtjld/workspace/AIoT/src/LiteOS_Lab/iot_link/network/dtls/mbedtls/mbedtls-2.16.2/library\ssl_ticket.c ****     mbedtls_ssl_ticket_context *ctx = p_ticket;
 1100              		.loc 2 385 0
 1101 000e FB68     		ldr	r3, [r7, #12]
 1102 0010 3B63     		str	r3, [r7, #48]
 386:C:/Users/dtjld/workspace/AIoT/src/LiteOS_Lab/iot_link/network/dtls/mbedtls/mbedtls-2.16.2/library\ssl_ticket.c ****     mbedtls_ssl_ticket_key *key;
 387:C:/Users/dtjld/workspace/AIoT/src/LiteOS_Lab/iot_link/network/dtls/mbedtls/mbedtls-2.16.2/library\ssl_ticket.c ****     unsigned char *key_name = buf;
 1103              		.loc 2 387 0
 1104 0012 7B68     		ldr	r3, [r7, #4]
 1105 0014 FB62     		str	r3, [r7, #44]
 388:C:/Users/dtjld/workspace/AIoT/src/LiteOS_Lab/iot_link/network/dtls/mbedtls/mbedtls-2.16.2/library\ssl_ticket.c ****     unsigned char *iv = buf + 4;
 1106              		.loc 2 388 0
 1107 0016 7B68     		ldr	r3, [r7, #4]
 1108 0018 0433     		adds	r3, r3, #4
 1109 001a BB62     		str	r3, [r7, #40]
 389:C:/Users/dtjld/workspace/AIoT/src/LiteOS_Lab/iot_link/network/dtls/mbedtls/mbedtls-2.16.2/library\ssl_ticket.c ****     unsigned char *enc_len_p = iv + 12;
 1110              		.loc 2 389 0
 1111 001c BB6A     		ldr	r3, [r7, #40]
 1112 001e 0C33     		adds	r3, r3, #12
 1113 0020 7B62     		str	r3, [r7, #36]
 390:C:/Users/dtjld/workspace/AIoT/src/LiteOS_Lab/iot_link/network/dtls/mbedtls/mbedtls-2.16.2/library\ssl_ticket.c ****     unsigned char *ticket = enc_len_p + 2;
 1114              		.loc 2 390 0
 1115 0022 7B6A     		ldr	r3, [r7, #36]
 1116 0024 0233     		adds	r3, r3, #2
 1117 0026 3B62     		str	r3, [r7, #32]
 391:C:/Users/dtjld/workspace/AIoT/src/LiteOS_Lab/iot_link/network/dtls/mbedtls/mbedtls-2.16.2/library\ssl_ticket.c ****     unsigned char *tag;
 392:C:/Users/dtjld/workspace/AIoT/src/LiteOS_Lab/iot_link/network/dtls/mbedtls/mbedtls-2.16.2/library\ssl_ticket.c ****     size_t enc_len, clear_len;
 393:C:/Users/dtjld/workspace/AIoT/src/LiteOS_Lab/iot_link/network/dtls/mbedtls/mbedtls-2.16.2/library\ssl_ticket.c **** 
 394:C:/Users/dtjld/workspace/AIoT/src/LiteOS_Lab/iot_link/network/dtls/mbedtls/mbedtls-2.16.2/library\ssl_ticket.c ****     if( ctx == NULL || ctx->f_rng == NULL )
 1118              		.loc 2 394 0
 1119 0028 3B6B     		ldr	r3, [r7, #48]
 1120 002a 002B     		cmp	r3, #0
 1121 002c 04D0     		beq	.L67
 1122              		.loc 2 394 0 is_stmt 0 discriminator 1
 1123 002e 3B6B     		ldr	r3, [r7, #48]
 1124 0030 D3F89830 		ldr	r3, [r3, #152]
 1125 0034 002B     		cmp	r3, #0
 1126 0036 01D1     		bne	.L68
 1127              	.L67:
 395:C:/Users/dtjld/workspace/AIoT/src/LiteOS_Lab/iot_link/network/dtls/mbedtls/mbedtls-2.16.2/library\ssl_ticket.c ****         return( MBEDTLS_ERR_SSL_BAD_INPUT_DATA );
 1128              		.loc 2 395 0 is_stmt 1
 1129 0038 334B     		ldr	r3, .L81
 1130 003a 61E0     		b	.L78
 1131              	.L68:
ARM GAS  C:\Users\dtjld\AppData\Local\Temp\ccnoWzb8.s 			page 37


 396:C:/Users/dtjld/workspace/AIoT/src/LiteOS_Lab/iot_link/network/dtls/mbedtls/mbedtls-2.16.2/library\ssl_ticket.c **** 
 397:C:/Users/dtjld/workspace/AIoT/src/LiteOS_Lab/iot_link/network/dtls/mbedtls/mbedtls-2.16.2/library\ssl_ticket.c ****     /* See mbedtls_ssl_ticket_write() */
 398:C:/Users/dtjld/workspace/AIoT/src/LiteOS_Lab/iot_link/network/dtls/mbedtls/mbedtls-2.16.2/library\ssl_ticket.c ****     if( len < 4 + 12 + 2 + 16 )
 1132              		.loc 2 398 0
 1133 003c 3B68     		ldr	r3, [r7]
 1134 003e 212B     		cmp	r3, #33
 1135 0040 01D8     		bhi	.L70
 399:C:/Users/dtjld/workspace/AIoT/src/LiteOS_Lab/iot_link/network/dtls/mbedtls/mbedtls-2.16.2/library\ssl_ticket.c ****         return( MBEDTLS_ERR_SSL_BAD_INPUT_DATA );
 1136              		.loc 2 399 0
 1137 0042 314B     		ldr	r3, .L81
 1138 0044 5CE0     		b	.L78
 1139              	.L70:
 400:C:/Users/dtjld/workspace/AIoT/src/LiteOS_Lab/iot_link/network/dtls/mbedtls/mbedtls-2.16.2/library\ssl_ticket.c **** 
 401:C:/Users/dtjld/workspace/AIoT/src/LiteOS_Lab/iot_link/network/dtls/mbedtls/mbedtls-2.16.2/library\ssl_ticket.c **** #if defined(MBEDTLS_THREADING_C)
 402:C:/Users/dtjld/workspace/AIoT/src/LiteOS_Lab/iot_link/network/dtls/mbedtls/mbedtls-2.16.2/library\ssl_ticket.c ****     if( ( ret = mbedtls_mutex_lock( &ctx->mutex ) ) != 0 )
 403:C:/Users/dtjld/workspace/AIoT/src/LiteOS_Lab/iot_link/network/dtls/mbedtls/mbedtls-2.16.2/library\ssl_ticket.c ****         return( ret );
 404:C:/Users/dtjld/workspace/AIoT/src/LiteOS_Lab/iot_link/network/dtls/mbedtls/mbedtls-2.16.2/library\ssl_ticket.c **** #endif
 405:C:/Users/dtjld/workspace/AIoT/src/LiteOS_Lab/iot_link/network/dtls/mbedtls/mbedtls-2.16.2/library\ssl_ticket.c **** 
 406:C:/Users/dtjld/workspace/AIoT/src/LiteOS_Lab/iot_link/network/dtls/mbedtls/mbedtls-2.16.2/library\ssl_ticket.c ****     if( ( ret = ssl_ticket_update_keys( ctx ) ) != 0 )
 1140              		.loc 2 406 0
 1141 0046 386B     		ldr	r0, [r7, #48]
 1142 0048 FFF7FEFF 		bl	ssl_ticket_update_keys
 1143 004c 7863     		str	r0, [r7, #52]
 1144 004e 7B6B     		ldr	r3, [r7, #52]
 1145 0050 002B     		cmp	r3, #0
 1146 0052 51D1     		bne	.L79
 407:C:/Users/dtjld/workspace/AIoT/src/LiteOS_Lab/iot_link/network/dtls/mbedtls/mbedtls-2.16.2/library\ssl_ticket.c ****         goto cleanup;
 408:C:/Users/dtjld/workspace/AIoT/src/LiteOS_Lab/iot_link/network/dtls/mbedtls/mbedtls-2.16.2/library\ssl_ticket.c **** 
 409:C:/Users/dtjld/workspace/AIoT/src/LiteOS_Lab/iot_link/network/dtls/mbedtls/mbedtls-2.16.2/library\ssl_ticket.c ****     enc_len = ( enc_len_p[0] << 8 ) | enc_len_p[1];
 1147              		.loc 2 409 0
 1148 0054 7B6A     		ldr	r3, [r7, #36]
 1149 0056 1B78     		ldrb	r3, [r3]	@ zero_extendqisi2
 1150 0058 1B02     		lsls	r3, r3, #8
 1151 005a 7A6A     		ldr	r2, [r7, #36]
 1152 005c 0132     		adds	r2, r2, #1
 1153 005e 1278     		ldrb	r2, [r2]	@ zero_extendqisi2
 1154 0060 1343     		orrs	r3, r3, r2
 1155 0062 FB61     		str	r3, [r7, #28]
 410:C:/Users/dtjld/workspace/AIoT/src/LiteOS_Lab/iot_link/network/dtls/mbedtls/mbedtls-2.16.2/library\ssl_ticket.c ****     tag = ticket + enc_len;
 1156              		.loc 2 410 0
 1157 0064 3A6A     		ldr	r2, [r7, #32]
 1158 0066 FB69     		ldr	r3, [r7, #28]
 1159 0068 1344     		add	r3, r3, r2
 1160 006a BB61     		str	r3, [r7, #24]
 411:C:/Users/dtjld/workspace/AIoT/src/LiteOS_Lab/iot_link/network/dtls/mbedtls/mbedtls-2.16.2/library\ssl_ticket.c **** 
 412:C:/Users/dtjld/workspace/AIoT/src/LiteOS_Lab/iot_link/network/dtls/mbedtls/mbedtls-2.16.2/library\ssl_ticket.c ****     if( len != 4 + 12 + 2 + enc_len + 16 )
 1161              		.loc 2 412 0
 1162 006c FB69     		ldr	r3, [r7, #28]
 1163 006e 2233     		adds	r3, r3, #34
 1164 0070 3A68     		ldr	r2, [r7]
 1165 0072 9A42     		cmp	r2, r3
 1166 0074 02D0     		beq	.L73
 413:C:/Users/dtjld/workspace/AIoT/src/LiteOS_Lab/iot_link/network/dtls/mbedtls/mbedtls-2.16.2/library\ssl_ticket.c ****     {
 414:C:/Users/dtjld/workspace/AIoT/src/LiteOS_Lab/iot_link/network/dtls/mbedtls/mbedtls-2.16.2/library\ssl_ticket.c ****         ret = MBEDTLS_ERR_SSL_BAD_INPUT_DATA;
 1167              		.loc 2 414 0
 1168 0076 244B     		ldr	r3, .L81
 1169 0078 7B63     		str	r3, [r7, #52]
ARM GAS  C:\Users\dtjld\AppData\Local\Temp\ccnoWzb8.s 			page 38


 415:C:/Users/dtjld/workspace/AIoT/src/LiteOS_Lab/iot_link/network/dtls/mbedtls/mbedtls-2.16.2/library\ssl_ticket.c ****         goto cleanup;
 1170              		.loc 2 415 0
 1171 007a 40E0     		b	.L72
 1172              	.L73:
 416:C:/Users/dtjld/workspace/AIoT/src/LiteOS_Lab/iot_link/network/dtls/mbedtls/mbedtls-2.16.2/library\ssl_ticket.c ****     }
 417:C:/Users/dtjld/workspace/AIoT/src/LiteOS_Lab/iot_link/network/dtls/mbedtls/mbedtls-2.16.2/library\ssl_ticket.c **** 
 418:C:/Users/dtjld/workspace/AIoT/src/LiteOS_Lab/iot_link/network/dtls/mbedtls/mbedtls-2.16.2/library\ssl_ticket.c ****     /* Select key */
 419:C:/Users/dtjld/workspace/AIoT/src/LiteOS_Lab/iot_link/network/dtls/mbedtls/mbedtls-2.16.2/library\ssl_ticket.c ****     if( ( key = ssl_ticket_select_key( ctx, key_name ) ) == NULL )
 1173              		.loc 2 419 0
 1174 007c F96A     		ldr	r1, [r7, #44]
 1175 007e 386B     		ldr	r0, [r7, #48]
 1176 0080 FFF7FEFF 		bl	ssl_ticket_select_key
 1177 0084 7861     		str	r0, [r7, #20]
 1178 0086 7B69     		ldr	r3, [r7, #20]
 1179 0088 002B     		cmp	r3, #0
 1180 008a 02D1     		bne	.L74
 420:C:/Users/dtjld/workspace/AIoT/src/LiteOS_Lab/iot_link/network/dtls/mbedtls/mbedtls-2.16.2/library\ssl_ticket.c ****     {
 421:C:/Users/dtjld/workspace/AIoT/src/LiteOS_Lab/iot_link/network/dtls/mbedtls/mbedtls-2.16.2/library\ssl_ticket.c ****         /* We can't know for sure but this is a likely option unless we're
 422:C:/Users/dtjld/workspace/AIoT/src/LiteOS_Lab/iot_link/network/dtls/mbedtls/mbedtls-2.16.2/library\ssl_ticket.c ****          * under attack - this is only informative anyway */
 423:C:/Users/dtjld/workspace/AIoT/src/LiteOS_Lab/iot_link/network/dtls/mbedtls/mbedtls-2.16.2/library\ssl_ticket.c ****         ret = MBEDTLS_ERR_SSL_SESSION_TICKET_EXPIRED;
 1181              		.loc 2 423 0
 1182 008c 1F4B     		ldr	r3, .L81+4
 1183 008e 7B63     		str	r3, [r7, #52]
 424:C:/Users/dtjld/workspace/AIoT/src/LiteOS_Lab/iot_link/network/dtls/mbedtls/mbedtls-2.16.2/library\ssl_ticket.c ****         goto cleanup;
 1184              		.loc 2 424 0
 1185 0090 35E0     		b	.L72
 1186              	.L74:
 425:C:/Users/dtjld/workspace/AIoT/src/LiteOS_Lab/iot_link/network/dtls/mbedtls/mbedtls-2.16.2/library\ssl_ticket.c ****     }
 426:C:/Users/dtjld/workspace/AIoT/src/LiteOS_Lab/iot_link/network/dtls/mbedtls/mbedtls-2.16.2/library\ssl_ticket.c **** 
 427:C:/Users/dtjld/workspace/AIoT/src/LiteOS_Lab/iot_link/network/dtls/mbedtls/mbedtls-2.16.2/library\ssl_ticket.c ****     /* Decrypt and authenticate */
 428:C:/Users/dtjld/workspace/AIoT/src/LiteOS_Lab/iot_link/network/dtls/mbedtls/mbedtls-2.16.2/library\ssl_ticket.c ****     if( ( ret = mbedtls_cipher_auth_decrypt( &key->ctx, iv, 12,
 1187              		.loc 2 428 0
 1188 0092 7B69     		ldr	r3, [r7, #20]
 1189 0094 03F10800 		add	r0, r3, #8
 1190 0098 1023     		movs	r3, #16
 1191 009a 0693     		str	r3, [sp, #24]
 1192 009c BB69     		ldr	r3, [r7, #24]
 1193 009e 0593     		str	r3, [sp, #20]
 1194 00a0 07F11003 		add	r3, r7, #16
 1195 00a4 0493     		str	r3, [sp, #16]
 1196 00a6 3B6A     		ldr	r3, [r7, #32]
 1197 00a8 0393     		str	r3, [sp, #12]
 1198 00aa FB69     		ldr	r3, [r7, #28]
 1199 00ac 0293     		str	r3, [sp, #8]
 1200 00ae 3B6A     		ldr	r3, [r7, #32]
 1201 00b0 0193     		str	r3, [sp, #4]
 1202 00b2 1223     		movs	r3, #18
 1203 00b4 0093     		str	r3, [sp]
 1204 00b6 FB6A     		ldr	r3, [r7, #44]
 1205 00b8 0C22     		movs	r2, #12
 1206 00ba B96A     		ldr	r1, [r7, #40]
 1207 00bc FFF7FEFF 		bl	mbedtls_cipher_auth_decrypt
 1208 00c0 7863     		str	r0, [r7, #52]
 1209 00c2 7B6B     		ldr	r3, [r7, #52]
 1210 00c4 002B     		cmp	r3, #0
 1211 00c6 06D0     		beq	.L75
 429:C:/Users/dtjld/workspace/AIoT/src/LiteOS_Lab/iot_link/network/dtls/mbedtls/mbedtls-2.16.2/library\ssl_ticket.c ****                     key_name, 4 + 12 + 2, ticket, enc_len,
ARM GAS  C:\Users\dtjld\AppData\Local\Temp\ccnoWzb8.s 			page 39


 430:C:/Users/dtjld/workspace/AIoT/src/LiteOS_Lab/iot_link/network/dtls/mbedtls/mbedtls-2.16.2/library\ssl_ticket.c ****                     ticket, &clear_len, tag, 16 ) ) != 0 )
 431:C:/Users/dtjld/workspace/AIoT/src/LiteOS_Lab/iot_link/network/dtls/mbedtls/mbedtls-2.16.2/library\ssl_ticket.c ****     {
 432:C:/Users/dtjld/workspace/AIoT/src/LiteOS_Lab/iot_link/network/dtls/mbedtls/mbedtls-2.16.2/library\ssl_ticket.c ****         if( ret == MBEDTLS_ERR_CIPHER_AUTH_FAILED )
 1212              		.loc 2 432 0
 1213 00c8 7B6B     		ldr	r3, [r7, #52]
 1214 00ca 13F5C64F 		cmn	r3, #25344
 1215 00ce 15D1     		bne	.L80
 433:C:/Users/dtjld/workspace/AIoT/src/LiteOS_Lab/iot_link/network/dtls/mbedtls/mbedtls-2.16.2/library\ssl_ticket.c ****             ret = MBEDTLS_ERR_SSL_INVALID_MAC;
 1216              		.loc 2 433 0
 1217 00d0 0F4B     		ldr	r3, .L81+8
 1218 00d2 7B63     		str	r3, [r7, #52]
 434:C:/Users/dtjld/workspace/AIoT/src/LiteOS_Lab/iot_link/network/dtls/mbedtls/mbedtls-2.16.2/library\ssl_ticket.c **** 
 435:C:/Users/dtjld/workspace/AIoT/src/LiteOS_Lab/iot_link/network/dtls/mbedtls/mbedtls-2.16.2/library\ssl_ticket.c ****         goto cleanup;
 1219              		.loc 2 435 0
 1220 00d4 12E0     		b	.L80
 1221              	.L75:
 436:C:/Users/dtjld/workspace/AIoT/src/LiteOS_Lab/iot_link/network/dtls/mbedtls/mbedtls-2.16.2/library\ssl_ticket.c ****     }
 437:C:/Users/dtjld/workspace/AIoT/src/LiteOS_Lab/iot_link/network/dtls/mbedtls/mbedtls-2.16.2/library\ssl_ticket.c ****     if( clear_len != enc_len )
 1222              		.loc 2 437 0
 1223 00d6 3B69     		ldr	r3, [r7, #16]
 1224 00d8 FA69     		ldr	r2, [r7, #28]
 1225 00da 9A42     		cmp	r2, r3
 1226 00dc 02D0     		beq	.L77
 438:C:/Users/dtjld/workspace/AIoT/src/LiteOS_Lab/iot_link/network/dtls/mbedtls/mbedtls-2.16.2/library\ssl_ticket.c ****     {
 439:C:/Users/dtjld/workspace/AIoT/src/LiteOS_Lab/iot_link/network/dtls/mbedtls/mbedtls-2.16.2/library\ssl_ticket.c ****         ret = MBEDTLS_ERR_SSL_INTERNAL_ERROR;
 1227              		.loc 2 439 0
 1228 00de 0D4B     		ldr	r3, .L81+12
 1229 00e0 7B63     		str	r3, [r7, #52]
 440:C:/Users/dtjld/workspace/AIoT/src/LiteOS_Lab/iot_link/network/dtls/mbedtls/mbedtls-2.16.2/library\ssl_ticket.c ****         goto cleanup;
 1230              		.loc 2 440 0
 1231 00e2 0CE0     		b	.L72
 1232              	.L77:
 441:C:/Users/dtjld/workspace/AIoT/src/LiteOS_Lab/iot_link/network/dtls/mbedtls/mbedtls-2.16.2/library\ssl_ticket.c ****     }
 442:C:/Users/dtjld/workspace/AIoT/src/LiteOS_Lab/iot_link/network/dtls/mbedtls/mbedtls-2.16.2/library\ssl_ticket.c **** 
 443:C:/Users/dtjld/workspace/AIoT/src/LiteOS_Lab/iot_link/network/dtls/mbedtls/mbedtls-2.16.2/library\ssl_ticket.c ****     /* Actually load session */
 444:C:/Users/dtjld/workspace/AIoT/src/LiteOS_Lab/iot_link/network/dtls/mbedtls/mbedtls-2.16.2/library\ssl_ticket.c ****     if( ( ret = ssl_load_session( session, ticket, clear_len ) ) != 0 )
 1233              		.loc 2 444 0
 1234 00e4 3B69     		ldr	r3, [r7, #16]
 1235 00e6 1A46     		mov	r2, r3
 1236 00e8 396A     		ldr	r1, [r7, #32]
 1237 00ea B868     		ldr	r0, [r7, #8]
 1238 00ec FFF7FEFF 		bl	ssl_load_session
 1239 00f0 7863     		str	r0, [r7, #52]
 1240 00f2 7B6B     		ldr	r3, [r7, #52]
 1241 00f4 002B     		cmp	r3, #0
 445:C:/Users/dtjld/workspace/AIoT/src/LiteOS_Lab/iot_link/network/dtls/mbedtls/mbedtls-2.16.2/library\ssl_ticket.c ****         goto cleanup;
 446:C:/Users/dtjld/workspace/AIoT/src/LiteOS_Lab/iot_link/network/dtls/mbedtls/mbedtls-2.16.2/library\ssl_ticket.c **** 
 447:C:/Users/dtjld/workspace/AIoT/src/LiteOS_Lab/iot_link/network/dtls/mbedtls/mbedtls-2.16.2/library\ssl_ticket.c **** #if defined(MBEDTLS_HAVE_TIME)
 448:C:/Users/dtjld/workspace/AIoT/src/LiteOS_Lab/iot_link/network/dtls/mbedtls/mbedtls-2.16.2/library\ssl_ticket.c ****     {
 449:C:/Users/dtjld/workspace/AIoT/src/LiteOS_Lab/iot_link/network/dtls/mbedtls/mbedtls-2.16.2/library\ssl_ticket.c ****         /* Check for expiration */
 450:C:/Users/dtjld/workspace/AIoT/src/LiteOS_Lab/iot_link/network/dtls/mbedtls/mbedtls-2.16.2/library\ssl_ticket.c ****         mbedtls_time_t current_time = mbedtls_time( NULL );
 451:C:/Users/dtjld/workspace/AIoT/src/LiteOS_Lab/iot_link/network/dtls/mbedtls/mbedtls-2.16.2/library\ssl_ticket.c **** 
 452:C:/Users/dtjld/workspace/AIoT/src/LiteOS_Lab/iot_link/network/dtls/mbedtls/mbedtls-2.16.2/library\ssl_ticket.c ****         if( current_time < session->start ||
 453:C:/Users/dtjld/workspace/AIoT/src/LiteOS_Lab/iot_link/network/dtls/mbedtls/mbedtls-2.16.2/library\ssl_ticket.c ****             (uint32_t)( current_time - session->start ) > ctx->ticket_lifetime )
 454:C:/Users/dtjld/workspace/AIoT/src/LiteOS_Lab/iot_link/network/dtls/mbedtls/mbedtls-2.16.2/library\ssl_ticket.c ****         {
 455:C:/Users/dtjld/workspace/AIoT/src/LiteOS_Lab/iot_link/network/dtls/mbedtls/mbedtls-2.16.2/library\ssl_ticket.c ****             ret = MBEDTLS_ERR_SSL_SESSION_TICKET_EXPIRED;
 456:C:/Users/dtjld/workspace/AIoT/src/LiteOS_Lab/iot_link/network/dtls/mbedtls/mbedtls-2.16.2/library\ssl_ticket.c ****             goto cleanup;
ARM GAS  C:\Users\dtjld\AppData\Local\Temp\ccnoWzb8.s 			page 40


 457:C:/Users/dtjld/workspace/AIoT/src/LiteOS_Lab/iot_link/network/dtls/mbedtls/mbedtls-2.16.2/library\ssl_ticket.c ****         }
 458:C:/Users/dtjld/workspace/AIoT/src/LiteOS_Lab/iot_link/network/dtls/mbedtls/mbedtls-2.16.2/library\ssl_ticket.c ****     }
 459:C:/Users/dtjld/workspace/AIoT/src/LiteOS_Lab/iot_link/network/dtls/mbedtls/mbedtls-2.16.2/library\ssl_ticket.c **** #endif
 460:C:/Users/dtjld/workspace/AIoT/src/LiteOS_Lab/iot_link/network/dtls/mbedtls/mbedtls-2.16.2/library\ssl_ticket.c **** 
 461:C:/Users/dtjld/workspace/AIoT/src/LiteOS_Lab/iot_link/network/dtls/mbedtls/mbedtls-2.16.2/library\ssl_ticket.c **** cleanup:
 1242              		.loc 2 461 0
 1243 00f6 02E0     		b	.L72
 1244              	.L79:
 407:C:/Users/dtjld/workspace/AIoT/src/LiteOS_Lab/iot_link/network/dtls/mbedtls/mbedtls-2.16.2/library\ssl_ticket.c **** 
 1245              		.loc 2 407 0
 1246 00f8 00BF     		nop
 1247 00fa 00E0     		b	.L72
 1248              	.L80:
 435:C:/Users/dtjld/workspace/AIoT/src/LiteOS_Lab/iot_link/network/dtls/mbedtls/mbedtls-2.16.2/library\ssl_ticket.c ****     }
 1249              		.loc 2 435 0
 1250 00fc 00BF     		nop
 1251              	.L72:
 462:C:/Users/dtjld/workspace/AIoT/src/LiteOS_Lab/iot_link/network/dtls/mbedtls/mbedtls-2.16.2/library\ssl_ticket.c **** #if defined(MBEDTLS_THREADING_C)
 463:C:/Users/dtjld/workspace/AIoT/src/LiteOS_Lab/iot_link/network/dtls/mbedtls/mbedtls-2.16.2/library\ssl_ticket.c ****     if( mbedtls_mutex_unlock( &ctx->mutex ) != 0 )
 464:C:/Users/dtjld/workspace/AIoT/src/LiteOS_Lab/iot_link/network/dtls/mbedtls/mbedtls-2.16.2/library\ssl_ticket.c ****         return( MBEDTLS_ERR_THREADING_MUTEX_ERROR );
 465:C:/Users/dtjld/workspace/AIoT/src/LiteOS_Lab/iot_link/network/dtls/mbedtls/mbedtls-2.16.2/library\ssl_ticket.c **** #endif
 466:C:/Users/dtjld/workspace/AIoT/src/LiteOS_Lab/iot_link/network/dtls/mbedtls/mbedtls-2.16.2/library\ssl_ticket.c **** 
 467:C:/Users/dtjld/workspace/AIoT/src/LiteOS_Lab/iot_link/network/dtls/mbedtls/mbedtls-2.16.2/library\ssl_ticket.c ****     return( ret );
 1252              		.loc 2 467 0
 1253 00fe 7B6B     		ldr	r3, [r7, #52]
 1254              	.L78:
 468:C:/Users/dtjld/workspace/AIoT/src/LiteOS_Lab/iot_link/network/dtls/mbedtls/mbedtls-2.16.2/library\ssl_ticket.c **** }
 1255              		.loc 2 468 0 discriminator 1
 1256 0100 1846     		mov	r0, r3
 1257 0102 3837     		adds	r7, r7, #56
 1258              	.LCFI50:
 1259              		.cfi_def_cfa_offset 8
 1260 0104 BD46     		mov	sp, r7
 1261              	.LCFI51:
 1262              		.cfi_def_cfa_register 13
 1263              		@ sp needed
 1264 0106 80BD     		pop	{r7, pc}
 1265              	.L82:
 1266              		.align	2
 1267              	.L81:
 1268 0108 008FFFFF 		.word	-28928
 1269 010c 8092FFFF 		.word	-28032
 1270 0110 808EFFFF 		.word	-29056
 1271 0114 0094FFFF 		.word	-27648
 1272              		.cfi_endproc
 1273              	.LFE28:
 1275              		.section	.text.mbedtls_ssl_ticket_free,"ax",%progbits
 1276              		.align	1
 1277              		.global	mbedtls_ssl_ticket_free
 1278              		.syntax unified
 1279              		.thumb
 1280              		.thumb_func
 1281              		.fpu fpv4-sp-d16
 1283              	mbedtls_ssl_ticket_free:
 1284              	.LFB29:
 469:C:/Users/dtjld/workspace/AIoT/src/LiteOS_Lab/iot_link/network/dtls/mbedtls/mbedtls-2.16.2/library\ssl_ticket.c **** 
 470:C:/Users/dtjld/workspace/AIoT/src/LiteOS_Lab/iot_link/network/dtls/mbedtls/mbedtls-2.16.2/library\ssl_ticket.c **** /*
ARM GAS  C:\Users\dtjld\AppData\Local\Temp\ccnoWzb8.s 			page 41


 471:C:/Users/dtjld/workspace/AIoT/src/LiteOS_Lab/iot_link/network/dtls/mbedtls/mbedtls-2.16.2/library\ssl_ticket.c ****  * Free context
 472:C:/Users/dtjld/workspace/AIoT/src/LiteOS_Lab/iot_link/network/dtls/mbedtls/mbedtls-2.16.2/library\ssl_ticket.c ****  */
 473:C:/Users/dtjld/workspace/AIoT/src/LiteOS_Lab/iot_link/network/dtls/mbedtls/mbedtls-2.16.2/library\ssl_ticket.c **** void mbedtls_ssl_ticket_free( mbedtls_ssl_ticket_context *ctx )
 474:C:/Users/dtjld/workspace/AIoT/src/LiteOS_Lab/iot_link/network/dtls/mbedtls/mbedtls-2.16.2/library\ssl_ticket.c **** {
 1285              		.loc 2 474 0
 1286              		.cfi_startproc
 1287              		@ args = 0, pretend = 0, frame = 8
 1288              		@ frame_needed = 1, uses_anonymous_args = 0
 1289 0000 80B5     		push	{r7, lr}
 1290              	.LCFI52:
 1291              		.cfi_def_cfa_offset 8
 1292              		.cfi_offset 7, -8
 1293              		.cfi_offset 14, -4
 1294 0002 82B0     		sub	sp, sp, #8
 1295              	.LCFI53:
 1296              		.cfi_def_cfa_offset 16
 1297 0004 00AF     		add	r7, sp, #0
 1298              	.LCFI54:
 1299              		.cfi_def_cfa_register 7
 1300 0006 7860     		str	r0, [r7, #4]
 475:C:/Users/dtjld/workspace/AIoT/src/LiteOS_Lab/iot_link/network/dtls/mbedtls/mbedtls-2.16.2/library\ssl_ticket.c ****     mbedtls_cipher_free( &ctx->keys[0].ctx );
 1301              		.loc 2 475 0
 1302 0008 7B68     		ldr	r3, [r7, #4]
 1303 000a 0833     		adds	r3, r3, #8
 1304 000c 1846     		mov	r0, r3
 1305 000e FFF7FEFF 		bl	mbedtls_cipher_free
 476:C:/Users/dtjld/workspace/AIoT/src/LiteOS_Lab/iot_link/network/dtls/mbedtls/mbedtls-2.16.2/library\ssl_ticket.c ****     mbedtls_cipher_free( &ctx->keys[1].ctx );
 1306              		.loc 2 476 0
 1307 0012 7B68     		ldr	r3, [r7, #4]
 1308 0014 5033     		adds	r3, r3, #80
 1309 0016 1846     		mov	r0, r3
 1310 0018 FFF7FEFF 		bl	mbedtls_cipher_free
 477:C:/Users/dtjld/workspace/AIoT/src/LiteOS_Lab/iot_link/network/dtls/mbedtls/mbedtls-2.16.2/library\ssl_ticket.c **** 
 478:C:/Users/dtjld/workspace/AIoT/src/LiteOS_Lab/iot_link/network/dtls/mbedtls/mbedtls-2.16.2/library\ssl_ticket.c **** #if defined(MBEDTLS_THREADING_C)
 479:C:/Users/dtjld/workspace/AIoT/src/LiteOS_Lab/iot_link/network/dtls/mbedtls/mbedtls-2.16.2/library\ssl_ticket.c ****     mbedtls_mutex_free( &ctx->mutex );
 480:C:/Users/dtjld/workspace/AIoT/src/LiteOS_Lab/iot_link/network/dtls/mbedtls/mbedtls-2.16.2/library\ssl_ticket.c **** #endif
 481:C:/Users/dtjld/workspace/AIoT/src/LiteOS_Lab/iot_link/network/dtls/mbedtls/mbedtls-2.16.2/library\ssl_ticket.c **** 
 482:C:/Users/dtjld/workspace/AIoT/src/LiteOS_Lab/iot_link/network/dtls/mbedtls/mbedtls-2.16.2/library\ssl_ticket.c ****     mbedtls_platform_zeroize( ctx, sizeof( mbedtls_ssl_ticket_context ) );
 1311              		.loc 2 482 0
 1312 001c A021     		movs	r1, #160
 1313 001e 7868     		ldr	r0, [r7, #4]
 1314 0020 FFF7FEFF 		bl	mbedtls_platform_zeroize
 483:C:/Users/dtjld/workspace/AIoT/src/LiteOS_Lab/iot_link/network/dtls/mbedtls/mbedtls-2.16.2/library\ssl_ticket.c **** }
 1315              		.loc 2 483 0
 1316 0024 00BF     		nop
 1317 0026 0837     		adds	r7, r7, #8
 1318              	.LCFI55:
 1319              		.cfi_def_cfa_offset 8
 1320 0028 BD46     		mov	sp, r7
 1321              	.LCFI56:
 1322              		.cfi_def_cfa_register 13
 1323              		@ sp needed
 1324 002a 80BD     		pop	{r7, pc}
 1325              		.cfi_endproc
 1326              	.LFE29:
 1328              		.text
 1329              	.Letext0:
ARM GAS  C:\Users\dtjld\AppData\Local\Temp\ccnoWzb8.s 			page 42


 1330              		.file 3 "c:\\ac6\\systemworkbench\\plugins\\fr.ac6.mcu.externaltools.arm-none.win32_1.16.0.2018071
 1331              		.file 4 "c:\\ac6\\systemworkbench\\plugins\\fr.ac6.mcu.externaltools.arm-none.win32_1.16.0.2018071
 1332              		.file 5 "c:\\ac6\\systemworkbench\\plugins\\fr.ac6.mcu.externaltools.arm-none.win32_1.16.0.2018071
 1333              		.file 6 "c:\\ac6\\systemworkbench\\plugins\\fr.ac6.mcu.externaltools.arm-none.win32_1.16.0.2018071
 1334              		.file 7 "c:\\ac6\\systemworkbench\\plugins\\fr.ac6.mcu.externaltools.arm-none.win32_1.16.0.2018071
 1335              		.file 8 "c:\\ac6\\systemworkbench\\plugins\\fr.ac6.mcu.externaltools.arm-none.win32_1.16.0.2018071
 1336              		.file 9 "c:\\ac6\\systemworkbench\\plugins\\fr.ac6.mcu.externaltools.arm-none.win32_1.16.0.2018071
 1337              		.file 10 "c:\\ac6\\systemworkbench\\plugins\\fr.ac6.mcu.externaltools.arm-none.win32_1.16.0.201807
 1338              		.file 11 "C:/Users/dtjld/workspace/AIoT/src/LiteOS_Lab/iot_link/network/dtls/mbedtls/mbedtls-2.16.
 1339              		.file 12 "C:/Users/dtjld/workspace/AIoT/src/LiteOS_Lab/iot_link/network/dtls/mbedtls/mbedtls-2.16.
 1340              		.file 13 "C:/Users/dtjld/workspace/AIoT/src/LiteOS_Lab/iot_link/network/dtls/mbedtls/mbedtls-2.16.
 1341              		.file 14 "C:/Users/dtjld/workspace/AIoT/src/LiteOS_Lab/iot_link/network/dtls/mbedtls/mbedtls-2.16.
 1342              		.file 15 "C:/Users/dtjld/workspace/AIoT/src/LiteOS_Lab/iot_link/network/dtls/mbedtls/mbedtls-2.16.
 1343              		.file 16 "C:/Users/dtjld/workspace/AIoT/src/LiteOS_Lab/iot_link/network/dtls/mbedtls/mbedtls-2.16.
 1344              		.file 17 "C:/Users/dtjld/workspace/AIoT/src/LiteOS_Lab/iot_link/network/dtls/mbedtls/mbedtls-2.16.
 1345              		.file 18 "C:/Users/dtjld/workspace/AIoT/src/LiteOS_Lab/iot_link/network/dtls/mbedtls/mbedtls-2.16.
ARM GAS  C:\Users\dtjld\AppData\Local\Temp\ccnoWzb8.s 			page 43

