ARM GAS  C:\Users\dtjld\AppData\Local\Temp\cc0z6O28.s 			page 1


   1              		.cpu cortex-m4
   2              		.eabi_attribute 27, 1
   3              		.eabi_attribute 28, 1
   4              		.eabi_attribute 20, 1
   5              		.eabi_attribute 21, 1
   6              		.eabi_attribute 23, 3
   7              		.eabi_attribute 24, 1
   8              		.eabi_attribute 25, 1
   9              		.eabi_attribute 26, 1
  10              		.eabi_attribute 30, 6
  11              		.eabi_attribute 34, 1
  12              		.eabi_attribute 18, 4
  13              		.file	"ssl_cookie.c"
  14              		.text
  15              	.Ltext0:
  16              		.cfi_sections	.debug_frame
  17              		.section	.text.mbedtls_ssl_safer_memcmp,"ax",%progbits
  18              		.align	1
  19              		.syntax unified
  20              		.thumb
  21              		.thumb_func
  22              		.fpu fpv4-sp-d16
  24              	mbedtls_ssl_safer_memcmp:
  25              	.LFB25:
  26              		.file 1 "C:/Users/dtjld/workspace/AIoT/src/LiteOS_Lab/iot_link/network/dtls/mbedtls/mbedtls-2.16.2
   1:C:/Users/dtjld/workspace/AIoT/src/LiteOS_Lab/iot_link/network/dtls/mbedtls/mbedtls-2.16.2/include/mbedtls\ssl_internal.h **** /**
   2:C:/Users/dtjld/workspace/AIoT/src/LiteOS_Lab/iot_link/network/dtls/mbedtls/mbedtls-2.16.2/include/mbedtls\ssl_internal.h ****  * \file ssl_internal.h
   3:C:/Users/dtjld/workspace/AIoT/src/LiteOS_Lab/iot_link/network/dtls/mbedtls/mbedtls-2.16.2/include/mbedtls\ssl_internal.h ****  *
   4:C:/Users/dtjld/workspace/AIoT/src/LiteOS_Lab/iot_link/network/dtls/mbedtls/mbedtls-2.16.2/include/mbedtls\ssl_internal.h ****  * \brief Internal functions shared by the SSL modules
   5:C:/Users/dtjld/workspace/AIoT/src/LiteOS_Lab/iot_link/network/dtls/mbedtls/mbedtls-2.16.2/include/mbedtls\ssl_internal.h ****  */
   6:C:/Users/dtjld/workspace/AIoT/src/LiteOS_Lab/iot_link/network/dtls/mbedtls/mbedtls-2.16.2/include/mbedtls\ssl_internal.h **** /*
   7:C:/Users/dtjld/workspace/AIoT/src/LiteOS_Lab/iot_link/network/dtls/mbedtls/mbedtls-2.16.2/include/mbedtls\ssl_internal.h ****  *  Copyright (C) 2006-2015, ARM Limited, All Rights Reserved
   8:C:/Users/dtjld/workspace/AIoT/src/LiteOS_Lab/iot_link/network/dtls/mbedtls/mbedtls-2.16.2/include/mbedtls\ssl_internal.h ****  *  SPDX-License-Identifier: Apache-2.0
   9:C:/Users/dtjld/workspace/AIoT/src/LiteOS_Lab/iot_link/network/dtls/mbedtls/mbedtls-2.16.2/include/mbedtls\ssl_internal.h ****  *
  10:C:/Users/dtjld/workspace/AIoT/src/LiteOS_Lab/iot_link/network/dtls/mbedtls/mbedtls-2.16.2/include/mbedtls\ssl_internal.h ****  *  Licensed under the Apache License, Version 2.0 (the "License"); you may
  11:C:/Users/dtjld/workspace/AIoT/src/LiteOS_Lab/iot_link/network/dtls/mbedtls/mbedtls-2.16.2/include/mbedtls\ssl_internal.h ****  *  not use this file except in compliance with the License.
  12:C:/Users/dtjld/workspace/AIoT/src/LiteOS_Lab/iot_link/network/dtls/mbedtls/mbedtls-2.16.2/include/mbedtls\ssl_internal.h ****  *  You may obtain a copy of the License at
  13:C:/Users/dtjld/workspace/AIoT/src/LiteOS_Lab/iot_link/network/dtls/mbedtls/mbedtls-2.16.2/include/mbedtls\ssl_internal.h ****  *
  14:C:/Users/dtjld/workspace/AIoT/src/LiteOS_Lab/iot_link/network/dtls/mbedtls/mbedtls-2.16.2/include/mbedtls\ssl_internal.h ****  *  http://www.apache.org/licenses/LICENSE-2.0
  15:C:/Users/dtjld/workspace/AIoT/src/LiteOS_Lab/iot_link/network/dtls/mbedtls/mbedtls-2.16.2/include/mbedtls\ssl_internal.h ****  *
  16:C:/Users/dtjld/workspace/AIoT/src/LiteOS_Lab/iot_link/network/dtls/mbedtls/mbedtls-2.16.2/include/mbedtls\ssl_internal.h ****  *  Unless required by applicable law or agreed to in writing, software
  17:C:/Users/dtjld/workspace/AIoT/src/LiteOS_Lab/iot_link/network/dtls/mbedtls/mbedtls-2.16.2/include/mbedtls\ssl_internal.h ****  *  distributed under the License is distributed on an "AS IS" BASIS, WITHOUT
  18:C:/Users/dtjld/workspace/AIoT/src/LiteOS_Lab/iot_link/network/dtls/mbedtls/mbedtls-2.16.2/include/mbedtls\ssl_internal.h ****  *  WARRANTIES OR CONDITIONS OF ANY KIND, either express or implied.
  19:C:/Users/dtjld/workspace/AIoT/src/LiteOS_Lab/iot_link/network/dtls/mbedtls/mbedtls-2.16.2/include/mbedtls\ssl_internal.h ****  *  See the License for the specific language governing permissions and
  20:C:/Users/dtjld/workspace/AIoT/src/LiteOS_Lab/iot_link/network/dtls/mbedtls/mbedtls-2.16.2/include/mbedtls\ssl_internal.h ****  *  limitations under the License.
  21:C:/Users/dtjld/workspace/AIoT/src/LiteOS_Lab/iot_link/network/dtls/mbedtls/mbedtls-2.16.2/include/mbedtls\ssl_internal.h ****  *
  22:C:/Users/dtjld/workspace/AIoT/src/LiteOS_Lab/iot_link/network/dtls/mbedtls/mbedtls-2.16.2/include/mbedtls\ssl_internal.h ****  *  This file is part of mbed TLS (https://tls.mbed.org)
  23:C:/Users/dtjld/workspace/AIoT/src/LiteOS_Lab/iot_link/network/dtls/mbedtls/mbedtls-2.16.2/include/mbedtls\ssl_internal.h ****  */
  24:C:/Users/dtjld/workspace/AIoT/src/LiteOS_Lab/iot_link/network/dtls/mbedtls/mbedtls-2.16.2/include/mbedtls\ssl_internal.h **** #ifndef MBEDTLS_SSL_INTERNAL_H
  25:C:/Users/dtjld/workspace/AIoT/src/LiteOS_Lab/iot_link/network/dtls/mbedtls/mbedtls-2.16.2/include/mbedtls\ssl_internal.h **** #define MBEDTLS_SSL_INTERNAL_H
  26:C:/Users/dtjld/workspace/AIoT/src/LiteOS_Lab/iot_link/network/dtls/mbedtls/mbedtls-2.16.2/include/mbedtls\ssl_internal.h **** 
  27:C:/Users/dtjld/workspace/AIoT/src/LiteOS_Lab/iot_link/network/dtls/mbedtls/mbedtls-2.16.2/include/mbedtls\ssl_internal.h **** #if !defined(MBEDTLS_CONFIG_FILE)
  28:C:/Users/dtjld/workspace/AIoT/src/LiteOS_Lab/iot_link/network/dtls/mbedtls/mbedtls-2.16.2/include/mbedtls\ssl_internal.h **** #include "config.h"
  29:C:/Users/dtjld/workspace/AIoT/src/LiteOS_Lab/iot_link/network/dtls/mbedtls/mbedtls-2.16.2/include/mbedtls\ssl_internal.h **** #else
  30:C:/Users/dtjld/workspace/AIoT/src/LiteOS_Lab/iot_link/network/dtls/mbedtls/mbedtls-2.16.2/include/mbedtls\ssl_internal.h **** #include MBEDTLS_CONFIG_FILE
  31:C:/Users/dtjld/workspace/AIoT/src/LiteOS_Lab/iot_link/network/dtls/mbedtls/mbedtls-2.16.2/include/mbedtls\ssl_internal.h **** #endif
  32:C:/Users/dtjld/workspace/AIoT/src/LiteOS_Lab/iot_link/network/dtls/mbedtls/mbedtls-2.16.2/include/mbedtls\ssl_internal.h **** 
ARM GAS  C:\Users\dtjld\AppData\Local\Temp\cc0z6O28.s 			page 2


  33:C:/Users/dtjld/workspace/AIoT/src/LiteOS_Lab/iot_link/network/dtls/mbedtls/mbedtls-2.16.2/include/mbedtls\ssl_internal.h **** #include "ssl.h"
  34:C:/Users/dtjld/workspace/AIoT/src/LiteOS_Lab/iot_link/network/dtls/mbedtls/mbedtls-2.16.2/include/mbedtls\ssl_internal.h **** #include "cipher.h"
  35:C:/Users/dtjld/workspace/AIoT/src/LiteOS_Lab/iot_link/network/dtls/mbedtls/mbedtls-2.16.2/include/mbedtls\ssl_internal.h **** 
  36:C:/Users/dtjld/workspace/AIoT/src/LiteOS_Lab/iot_link/network/dtls/mbedtls/mbedtls-2.16.2/include/mbedtls\ssl_internal.h **** #if defined(MBEDTLS_MD5_C)
  37:C:/Users/dtjld/workspace/AIoT/src/LiteOS_Lab/iot_link/network/dtls/mbedtls/mbedtls-2.16.2/include/mbedtls\ssl_internal.h **** #include "md5.h"
  38:C:/Users/dtjld/workspace/AIoT/src/LiteOS_Lab/iot_link/network/dtls/mbedtls/mbedtls-2.16.2/include/mbedtls\ssl_internal.h **** #endif
  39:C:/Users/dtjld/workspace/AIoT/src/LiteOS_Lab/iot_link/network/dtls/mbedtls/mbedtls-2.16.2/include/mbedtls\ssl_internal.h **** 
  40:C:/Users/dtjld/workspace/AIoT/src/LiteOS_Lab/iot_link/network/dtls/mbedtls/mbedtls-2.16.2/include/mbedtls\ssl_internal.h **** #if defined(MBEDTLS_SHA1_C)
  41:C:/Users/dtjld/workspace/AIoT/src/LiteOS_Lab/iot_link/network/dtls/mbedtls/mbedtls-2.16.2/include/mbedtls\ssl_internal.h **** #include "sha1.h"
  42:C:/Users/dtjld/workspace/AIoT/src/LiteOS_Lab/iot_link/network/dtls/mbedtls/mbedtls-2.16.2/include/mbedtls\ssl_internal.h **** #endif
  43:C:/Users/dtjld/workspace/AIoT/src/LiteOS_Lab/iot_link/network/dtls/mbedtls/mbedtls-2.16.2/include/mbedtls\ssl_internal.h **** 
  44:C:/Users/dtjld/workspace/AIoT/src/LiteOS_Lab/iot_link/network/dtls/mbedtls/mbedtls-2.16.2/include/mbedtls\ssl_internal.h **** #if defined(MBEDTLS_SHA256_C)
  45:C:/Users/dtjld/workspace/AIoT/src/LiteOS_Lab/iot_link/network/dtls/mbedtls/mbedtls-2.16.2/include/mbedtls\ssl_internal.h **** #include "sha256.h"
  46:C:/Users/dtjld/workspace/AIoT/src/LiteOS_Lab/iot_link/network/dtls/mbedtls/mbedtls-2.16.2/include/mbedtls\ssl_internal.h **** #endif
  47:C:/Users/dtjld/workspace/AIoT/src/LiteOS_Lab/iot_link/network/dtls/mbedtls/mbedtls-2.16.2/include/mbedtls\ssl_internal.h **** 
  48:C:/Users/dtjld/workspace/AIoT/src/LiteOS_Lab/iot_link/network/dtls/mbedtls/mbedtls-2.16.2/include/mbedtls\ssl_internal.h **** #if defined(MBEDTLS_SHA512_C)
  49:C:/Users/dtjld/workspace/AIoT/src/LiteOS_Lab/iot_link/network/dtls/mbedtls/mbedtls-2.16.2/include/mbedtls\ssl_internal.h **** #include "sha512.h"
  50:C:/Users/dtjld/workspace/AIoT/src/LiteOS_Lab/iot_link/network/dtls/mbedtls/mbedtls-2.16.2/include/mbedtls\ssl_internal.h **** #endif
  51:C:/Users/dtjld/workspace/AIoT/src/LiteOS_Lab/iot_link/network/dtls/mbedtls/mbedtls-2.16.2/include/mbedtls\ssl_internal.h **** 
  52:C:/Users/dtjld/workspace/AIoT/src/LiteOS_Lab/iot_link/network/dtls/mbedtls/mbedtls-2.16.2/include/mbedtls\ssl_internal.h **** #if defined(MBEDTLS_KEY_EXCHANGE_ECJPAKE_ENABLED)
  53:C:/Users/dtjld/workspace/AIoT/src/LiteOS_Lab/iot_link/network/dtls/mbedtls/mbedtls-2.16.2/include/mbedtls\ssl_internal.h **** #include "ecjpake.h"
  54:C:/Users/dtjld/workspace/AIoT/src/LiteOS_Lab/iot_link/network/dtls/mbedtls/mbedtls-2.16.2/include/mbedtls\ssl_internal.h **** #endif
  55:C:/Users/dtjld/workspace/AIoT/src/LiteOS_Lab/iot_link/network/dtls/mbedtls/mbedtls-2.16.2/include/mbedtls\ssl_internal.h **** 
  56:C:/Users/dtjld/workspace/AIoT/src/LiteOS_Lab/iot_link/network/dtls/mbedtls/mbedtls-2.16.2/include/mbedtls\ssl_internal.h **** #if ( defined(__ARMCC_VERSION) || defined(_MSC_VER) ) && \
  57:C:/Users/dtjld/workspace/AIoT/src/LiteOS_Lab/iot_link/network/dtls/mbedtls/mbedtls-2.16.2/include/mbedtls\ssl_internal.h ****     !defined(inline) && !defined(__cplusplus)
  58:C:/Users/dtjld/workspace/AIoT/src/LiteOS_Lab/iot_link/network/dtls/mbedtls/mbedtls-2.16.2/include/mbedtls\ssl_internal.h **** #define inline __inline
  59:C:/Users/dtjld/workspace/AIoT/src/LiteOS_Lab/iot_link/network/dtls/mbedtls/mbedtls-2.16.2/include/mbedtls\ssl_internal.h **** #endif
  60:C:/Users/dtjld/workspace/AIoT/src/LiteOS_Lab/iot_link/network/dtls/mbedtls/mbedtls-2.16.2/include/mbedtls\ssl_internal.h **** 
  61:C:/Users/dtjld/workspace/AIoT/src/LiteOS_Lab/iot_link/network/dtls/mbedtls/mbedtls-2.16.2/include/mbedtls\ssl_internal.h **** /* Determine minimum supported version */
  62:C:/Users/dtjld/workspace/AIoT/src/LiteOS_Lab/iot_link/network/dtls/mbedtls/mbedtls-2.16.2/include/mbedtls\ssl_internal.h **** #define MBEDTLS_SSL_MIN_MAJOR_VERSION           MBEDTLS_SSL_MAJOR_VERSION_3
  63:C:/Users/dtjld/workspace/AIoT/src/LiteOS_Lab/iot_link/network/dtls/mbedtls/mbedtls-2.16.2/include/mbedtls\ssl_internal.h **** 
  64:C:/Users/dtjld/workspace/AIoT/src/LiteOS_Lab/iot_link/network/dtls/mbedtls/mbedtls-2.16.2/include/mbedtls\ssl_internal.h **** #if defined(MBEDTLS_SSL_PROTO_SSL3)
  65:C:/Users/dtjld/workspace/AIoT/src/LiteOS_Lab/iot_link/network/dtls/mbedtls/mbedtls-2.16.2/include/mbedtls\ssl_internal.h **** #define MBEDTLS_SSL_MIN_MINOR_VERSION           MBEDTLS_SSL_MINOR_VERSION_0
  66:C:/Users/dtjld/workspace/AIoT/src/LiteOS_Lab/iot_link/network/dtls/mbedtls/mbedtls-2.16.2/include/mbedtls\ssl_internal.h **** #else
  67:C:/Users/dtjld/workspace/AIoT/src/LiteOS_Lab/iot_link/network/dtls/mbedtls/mbedtls-2.16.2/include/mbedtls\ssl_internal.h **** #if defined(MBEDTLS_SSL_PROTO_TLS1)
  68:C:/Users/dtjld/workspace/AIoT/src/LiteOS_Lab/iot_link/network/dtls/mbedtls/mbedtls-2.16.2/include/mbedtls\ssl_internal.h **** #define MBEDTLS_SSL_MIN_MINOR_VERSION           MBEDTLS_SSL_MINOR_VERSION_1
  69:C:/Users/dtjld/workspace/AIoT/src/LiteOS_Lab/iot_link/network/dtls/mbedtls/mbedtls-2.16.2/include/mbedtls\ssl_internal.h **** #else
  70:C:/Users/dtjld/workspace/AIoT/src/LiteOS_Lab/iot_link/network/dtls/mbedtls/mbedtls-2.16.2/include/mbedtls\ssl_internal.h **** #if defined(MBEDTLS_SSL_PROTO_TLS1_1)
  71:C:/Users/dtjld/workspace/AIoT/src/LiteOS_Lab/iot_link/network/dtls/mbedtls/mbedtls-2.16.2/include/mbedtls\ssl_internal.h **** #define MBEDTLS_SSL_MIN_MINOR_VERSION           MBEDTLS_SSL_MINOR_VERSION_2
  72:C:/Users/dtjld/workspace/AIoT/src/LiteOS_Lab/iot_link/network/dtls/mbedtls/mbedtls-2.16.2/include/mbedtls\ssl_internal.h **** #else
  73:C:/Users/dtjld/workspace/AIoT/src/LiteOS_Lab/iot_link/network/dtls/mbedtls/mbedtls-2.16.2/include/mbedtls\ssl_internal.h **** #if defined(MBEDTLS_SSL_PROTO_TLS1_2)
  74:C:/Users/dtjld/workspace/AIoT/src/LiteOS_Lab/iot_link/network/dtls/mbedtls/mbedtls-2.16.2/include/mbedtls\ssl_internal.h **** #define MBEDTLS_SSL_MIN_MINOR_VERSION           MBEDTLS_SSL_MINOR_VERSION_3
  75:C:/Users/dtjld/workspace/AIoT/src/LiteOS_Lab/iot_link/network/dtls/mbedtls/mbedtls-2.16.2/include/mbedtls\ssl_internal.h **** #endif /* MBEDTLS_SSL_PROTO_TLS1_2 */
  76:C:/Users/dtjld/workspace/AIoT/src/LiteOS_Lab/iot_link/network/dtls/mbedtls/mbedtls-2.16.2/include/mbedtls\ssl_internal.h **** #endif /* MBEDTLS_SSL_PROTO_TLS1_1 */
  77:C:/Users/dtjld/workspace/AIoT/src/LiteOS_Lab/iot_link/network/dtls/mbedtls/mbedtls-2.16.2/include/mbedtls\ssl_internal.h **** #endif /* MBEDTLS_SSL_PROTO_TLS1   */
  78:C:/Users/dtjld/workspace/AIoT/src/LiteOS_Lab/iot_link/network/dtls/mbedtls/mbedtls-2.16.2/include/mbedtls\ssl_internal.h **** #endif /* MBEDTLS_SSL_PROTO_SSL3   */
  79:C:/Users/dtjld/workspace/AIoT/src/LiteOS_Lab/iot_link/network/dtls/mbedtls/mbedtls-2.16.2/include/mbedtls\ssl_internal.h **** 
  80:C:/Users/dtjld/workspace/AIoT/src/LiteOS_Lab/iot_link/network/dtls/mbedtls/mbedtls-2.16.2/include/mbedtls\ssl_internal.h **** #define MBEDTLS_SSL_MIN_VALID_MINOR_VERSION MBEDTLS_SSL_MINOR_VERSION_1
  81:C:/Users/dtjld/workspace/AIoT/src/LiteOS_Lab/iot_link/network/dtls/mbedtls/mbedtls-2.16.2/include/mbedtls\ssl_internal.h **** #define MBEDTLS_SSL_MIN_VALID_MAJOR_VERSION MBEDTLS_SSL_MAJOR_VERSION_3
  82:C:/Users/dtjld/workspace/AIoT/src/LiteOS_Lab/iot_link/network/dtls/mbedtls/mbedtls-2.16.2/include/mbedtls\ssl_internal.h **** 
  83:C:/Users/dtjld/workspace/AIoT/src/LiteOS_Lab/iot_link/network/dtls/mbedtls/mbedtls-2.16.2/include/mbedtls\ssl_internal.h **** /* Determine maximum supported version */
  84:C:/Users/dtjld/workspace/AIoT/src/LiteOS_Lab/iot_link/network/dtls/mbedtls/mbedtls-2.16.2/include/mbedtls\ssl_internal.h **** #define MBEDTLS_SSL_MAX_MAJOR_VERSION           MBEDTLS_SSL_MAJOR_VERSION_3
  85:C:/Users/dtjld/workspace/AIoT/src/LiteOS_Lab/iot_link/network/dtls/mbedtls/mbedtls-2.16.2/include/mbedtls\ssl_internal.h **** 
  86:C:/Users/dtjld/workspace/AIoT/src/LiteOS_Lab/iot_link/network/dtls/mbedtls/mbedtls-2.16.2/include/mbedtls\ssl_internal.h **** #if defined(MBEDTLS_SSL_PROTO_TLS1_2)
  87:C:/Users/dtjld/workspace/AIoT/src/LiteOS_Lab/iot_link/network/dtls/mbedtls/mbedtls-2.16.2/include/mbedtls\ssl_internal.h **** #define MBEDTLS_SSL_MAX_MINOR_VERSION           MBEDTLS_SSL_MINOR_VERSION_3
  88:C:/Users/dtjld/workspace/AIoT/src/LiteOS_Lab/iot_link/network/dtls/mbedtls/mbedtls-2.16.2/include/mbedtls\ssl_internal.h **** #else
  89:C:/Users/dtjld/workspace/AIoT/src/LiteOS_Lab/iot_link/network/dtls/mbedtls/mbedtls-2.16.2/include/mbedtls\ssl_internal.h **** #if defined(MBEDTLS_SSL_PROTO_TLS1_1)
ARM GAS  C:\Users\dtjld\AppData\Local\Temp\cc0z6O28.s 			page 3


  90:C:/Users/dtjld/workspace/AIoT/src/LiteOS_Lab/iot_link/network/dtls/mbedtls/mbedtls-2.16.2/include/mbedtls\ssl_internal.h **** #define MBEDTLS_SSL_MAX_MINOR_VERSION           MBEDTLS_SSL_MINOR_VERSION_2
  91:C:/Users/dtjld/workspace/AIoT/src/LiteOS_Lab/iot_link/network/dtls/mbedtls/mbedtls-2.16.2/include/mbedtls\ssl_internal.h **** #else
  92:C:/Users/dtjld/workspace/AIoT/src/LiteOS_Lab/iot_link/network/dtls/mbedtls/mbedtls-2.16.2/include/mbedtls\ssl_internal.h **** #if defined(MBEDTLS_SSL_PROTO_TLS1)
  93:C:/Users/dtjld/workspace/AIoT/src/LiteOS_Lab/iot_link/network/dtls/mbedtls/mbedtls-2.16.2/include/mbedtls\ssl_internal.h **** #define MBEDTLS_SSL_MAX_MINOR_VERSION           MBEDTLS_SSL_MINOR_VERSION_1
  94:C:/Users/dtjld/workspace/AIoT/src/LiteOS_Lab/iot_link/network/dtls/mbedtls/mbedtls-2.16.2/include/mbedtls\ssl_internal.h **** #else
  95:C:/Users/dtjld/workspace/AIoT/src/LiteOS_Lab/iot_link/network/dtls/mbedtls/mbedtls-2.16.2/include/mbedtls\ssl_internal.h **** #if defined(MBEDTLS_SSL_PROTO_SSL3)
  96:C:/Users/dtjld/workspace/AIoT/src/LiteOS_Lab/iot_link/network/dtls/mbedtls/mbedtls-2.16.2/include/mbedtls\ssl_internal.h **** #define MBEDTLS_SSL_MAX_MINOR_VERSION           MBEDTLS_SSL_MINOR_VERSION_0
  97:C:/Users/dtjld/workspace/AIoT/src/LiteOS_Lab/iot_link/network/dtls/mbedtls/mbedtls-2.16.2/include/mbedtls\ssl_internal.h **** #endif /* MBEDTLS_SSL_PROTO_SSL3   */
  98:C:/Users/dtjld/workspace/AIoT/src/LiteOS_Lab/iot_link/network/dtls/mbedtls/mbedtls-2.16.2/include/mbedtls\ssl_internal.h **** #endif /* MBEDTLS_SSL_PROTO_TLS1   */
  99:C:/Users/dtjld/workspace/AIoT/src/LiteOS_Lab/iot_link/network/dtls/mbedtls/mbedtls-2.16.2/include/mbedtls\ssl_internal.h **** #endif /* MBEDTLS_SSL_PROTO_TLS1_1 */
 100:C:/Users/dtjld/workspace/AIoT/src/LiteOS_Lab/iot_link/network/dtls/mbedtls/mbedtls-2.16.2/include/mbedtls\ssl_internal.h **** #endif /* MBEDTLS_SSL_PROTO_TLS1_2 */
 101:C:/Users/dtjld/workspace/AIoT/src/LiteOS_Lab/iot_link/network/dtls/mbedtls/mbedtls-2.16.2/include/mbedtls\ssl_internal.h **** 
 102:C:/Users/dtjld/workspace/AIoT/src/LiteOS_Lab/iot_link/network/dtls/mbedtls/mbedtls-2.16.2/include/mbedtls\ssl_internal.h **** /* Shorthand for restartable ECC */
 103:C:/Users/dtjld/workspace/AIoT/src/LiteOS_Lab/iot_link/network/dtls/mbedtls/mbedtls-2.16.2/include/mbedtls\ssl_internal.h **** #if defined(MBEDTLS_ECP_RESTARTABLE) && \
 104:C:/Users/dtjld/workspace/AIoT/src/LiteOS_Lab/iot_link/network/dtls/mbedtls/mbedtls-2.16.2/include/mbedtls\ssl_internal.h ****     defined(MBEDTLS_SSL_CLI_C) && \
 105:C:/Users/dtjld/workspace/AIoT/src/LiteOS_Lab/iot_link/network/dtls/mbedtls/mbedtls-2.16.2/include/mbedtls\ssl_internal.h ****     defined(MBEDTLS_SSL_PROTO_TLS1_2) && \
 106:C:/Users/dtjld/workspace/AIoT/src/LiteOS_Lab/iot_link/network/dtls/mbedtls/mbedtls-2.16.2/include/mbedtls\ssl_internal.h ****     defined(MBEDTLS_KEY_EXCHANGE_ECDHE_ECDSA_ENABLED)
 107:C:/Users/dtjld/workspace/AIoT/src/LiteOS_Lab/iot_link/network/dtls/mbedtls/mbedtls-2.16.2/include/mbedtls\ssl_internal.h **** #define MBEDTLS_SSL__ECP_RESTARTABLE
 108:C:/Users/dtjld/workspace/AIoT/src/LiteOS_Lab/iot_link/network/dtls/mbedtls/mbedtls-2.16.2/include/mbedtls\ssl_internal.h **** #endif
 109:C:/Users/dtjld/workspace/AIoT/src/LiteOS_Lab/iot_link/network/dtls/mbedtls/mbedtls-2.16.2/include/mbedtls\ssl_internal.h **** 
 110:C:/Users/dtjld/workspace/AIoT/src/LiteOS_Lab/iot_link/network/dtls/mbedtls/mbedtls-2.16.2/include/mbedtls\ssl_internal.h **** #define MBEDTLS_SSL_INITIAL_HANDSHAKE           0
 111:C:/Users/dtjld/workspace/AIoT/src/LiteOS_Lab/iot_link/network/dtls/mbedtls/mbedtls-2.16.2/include/mbedtls\ssl_internal.h **** #define MBEDTLS_SSL_RENEGOTIATION_IN_PROGRESS   1   /* In progress */
 112:C:/Users/dtjld/workspace/AIoT/src/LiteOS_Lab/iot_link/network/dtls/mbedtls/mbedtls-2.16.2/include/mbedtls\ssl_internal.h **** #define MBEDTLS_SSL_RENEGOTIATION_DONE          2   /* Done or aborted */
 113:C:/Users/dtjld/workspace/AIoT/src/LiteOS_Lab/iot_link/network/dtls/mbedtls/mbedtls-2.16.2/include/mbedtls\ssl_internal.h **** #define MBEDTLS_SSL_RENEGOTIATION_PENDING       3   /* Requested (server only) */
 114:C:/Users/dtjld/workspace/AIoT/src/LiteOS_Lab/iot_link/network/dtls/mbedtls/mbedtls-2.16.2/include/mbedtls\ssl_internal.h **** 
 115:C:/Users/dtjld/workspace/AIoT/src/LiteOS_Lab/iot_link/network/dtls/mbedtls/mbedtls-2.16.2/include/mbedtls\ssl_internal.h **** /*
 116:C:/Users/dtjld/workspace/AIoT/src/LiteOS_Lab/iot_link/network/dtls/mbedtls/mbedtls-2.16.2/include/mbedtls\ssl_internal.h ****  * DTLS retransmission states, see RFC 6347 4.2.4
 117:C:/Users/dtjld/workspace/AIoT/src/LiteOS_Lab/iot_link/network/dtls/mbedtls/mbedtls-2.16.2/include/mbedtls\ssl_internal.h ****  *
 118:C:/Users/dtjld/workspace/AIoT/src/LiteOS_Lab/iot_link/network/dtls/mbedtls/mbedtls-2.16.2/include/mbedtls\ssl_internal.h ****  * The SENDING state is merged in PREPARING for initial sends,
 119:C:/Users/dtjld/workspace/AIoT/src/LiteOS_Lab/iot_link/network/dtls/mbedtls/mbedtls-2.16.2/include/mbedtls\ssl_internal.h ****  * but is distinct for resends.
 120:C:/Users/dtjld/workspace/AIoT/src/LiteOS_Lab/iot_link/network/dtls/mbedtls/mbedtls-2.16.2/include/mbedtls\ssl_internal.h ****  *
 121:C:/Users/dtjld/workspace/AIoT/src/LiteOS_Lab/iot_link/network/dtls/mbedtls/mbedtls-2.16.2/include/mbedtls\ssl_internal.h ****  * Note: initial state is wrong for server, but is not used anyway.
 122:C:/Users/dtjld/workspace/AIoT/src/LiteOS_Lab/iot_link/network/dtls/mbedtls/mbedtls-2.16.2/include/mbedtls\ssl_internal.h ****  */
 123:C:/Users/dtjld/workspace/AIoT/src/LiteOS_Lab/iot_link/network/dtls/mbedtls/mbedtls-2.16.2/include/mbedtls\ssl_internal.h **** #define MBEDTLS_SSL_RETRANS_PREPARING       0
 124:C:/Users/dtjld/workspace/AIoT/src/LiteOS_Lab/iot_link/network/dtls/mbedtls/mbedtls-2.16.2/include/mbedtls\ssl_internal.h **** #define MBEDTLS_SSL_RETRANS_SENDING         1
 125:C:/Users/dtjld/workspace/AIoT/src/LiteOS_Lab/iot_link/network/dtls/mbedtls/mbedtls-2.16.2/include/mbedtls\ssl_internal.h **** #define MBEDTLS_SSL_RETRANS_WAITING         2
 126:C:/Users/dtjld/workspace/AIoT/src/LiteOS_Lab/iot_link/network/dtls/mbedtls/mbedtls-2.16.2/include/mbedtls\ssl_internal.h **** #define MBEDTLS_SSL_RETRANS_FINISHED        3
 127:C:/Users/dtjld/workspace/AIoT/src/LiteOS_Lab/iot_link/network/dtls/mbedtls/mbedtls-2.16.2/include/mbedtls\ssl_internal.h **** 
 128:C:/Users/dtjld/workspace/AIoT/src/LiteOS_Lab/iot_link/network/dtls/mbedtls/mbedtls-2.16.2/include/mbedtls\ssl_internal.h **** /*
 129:C:/Users/dtjld/workspace/AIoT/src/LiteOS_Lab/iot_link/network/dtls/mbedtls/mbedtls-2.16.2/include/mbedtls\ssl_internal.h ****  * Allow extra bytes for record, authentication and encryption overhead:
 130:C:/Users/dtjld/workspace/AIoT/src/LiteOS_Lab/iot_link/network/dtls/mbedtls/mbedtls-2.16.2/include/mbedtls\ssl_internal.h ****  * counter (8) + header (5) + IV(16) + MAC (16-48) + padding (0-256)
 131:C:/Users/dtjld/workspace/AIoT/src/LiteOS_Lab/iot_link/network/dtls/mbedtls/mbedtls-2.16.2/include/mbedtls\ssl_internal.h ****  * and allow for a maximum of 1024 of compression expansion if
 132:C:/Users/dtjld/workspace/AIoT/src/LiteOS_Lab/iot_link/network/dtls/mbedtls/mbedtls-2.16.2/include/mbedtls\ssl_internal.h ****  * enabled.
 133:C:/Users/dtjld/workspace/AIoT/src/LiteOS_Lab/iot_link/network/dtls/mbedtls/mbedtls-2.16.2/include/mbedtls\ssl_internal.h ****  */
 134:C:/Users/dtjld/workspace/AIoT/src/LiteOS_Lab/iot_link/network/dtls/mbedtls/mbedtls-2.16.2/include/mbedtls\ssl_internal.h **** #if defined(MBEDTLS_ZLIB_SUPPORT)
 135:C:/Users/dtjld/workspace/AIoT/src/LiteOS_Lab/iot_link/network/dtls/mbedtls/mbedtls-2.16.2/include/mbedtls\ssl_internal.h **** #define MBEDTLS_SSL_COMPRESSION_ADD          1024
 136:C:/Users/dtjld/workspace/AIoT/src/LiteOS_Lab/iot_link/network/dtls/mbedtls/mbedtls-2.16.2/include/mbedtls\ssl_internal.h **** #else
 137:C:/Users/dtjld/workspace/AIoT/src/LiteOS_Lab/iot_link/network/dtls/mbedtls/mbedtls-2.16.2/include/mbedtls\ssl_internal.h **** #define MBEDTLS_SSL_COMPRESSION_ADD             0
 138:C:/Users/dtjld/workspace/AIoT/src/LiteOS_Lab/iot_link/network/dtls/mbedtls/mbedtls-2.16.2/include/mbedtls\ssl_internal.h **** #endif
 139:C:/Users/dtjld/workspace/AIoT/src/LiteOS_Lab/iot_link/network/dtls/mbedtls/mbedtls-2.16.2/include/mbedtls\ssl_internal.h **** 
 140:C:/Users/dtjld/workspace/AIoT/src/LiteOS_Lab/iot_link/network/dtls/mbedtls/mbedtls-2.16.2/include/mbedtls\ssl_internal.h **** #if defined(MBEDTLS_ARC4_C) || defined(MBEDTLS_CIPHER_MODE_CBC)
 141:C:/Users/dtjld/workspace/AIoT/src/LiteOS_Lab/iot_link/network/dtls/mbedtls/mbedtls-2.16.2/include/mbedtls\ssl_internal.h **** /* Ciphersuites using HMAC */
 142:C:/Users/dtjld/workspace/AIoT/src/LiteOS_Lab/iot_link/network/dtls/mbedtls/mbedtls-2.16.2/include/mbedtls\ssl_internal.h **** #if defined(MBEDTLS_SHA512_C)
 143:C:/Users/dtjld/workspace/AIoT/src/LiteOS_Lab/iot_link/network/dtls/mbedtls/mbedtls-2.16.2/include/mbedtls\ssl_internal.h **** #define MBEDTLS_SSL_MAC_ADD                 48  /* SHA-384 used for HMAC */
 144:C:/Users/dtjld/workspace/AIoT/src/LiteOS_Lab/iot_link/network/dtls/mbedtls/mbedtls-2.16.2/include/mbedtls\ssl_internal.h **** #elif defined(MBEDTLS_SHA256_C)
 145:C:/Users/dtjld/workspace/AIoT/src/LiteOS_Lab/iot_link/network/dtls/mbedtls/mbedtls-2.16.2/include/mbedtls\ssl_internal.h **** #define MBEDTLS_SSL_MAC_ADD                 32  /* SHA-256 used for HMAC */
 146:C:/Users/dtjld/workspace/AIoT/src/LiteOS_Lab/iot_link/network/dtls/mbedtls/mbedtls-2.16.2/include/mbedtls\ssl_internal.h **** #else
ARM GAS  C:\Users\dtjld\AppData\Local\Temp\cc0z6O28.s 			page 4


 147:C:/Users/dtjld/workspace/AIoT/src/LiteOS_Lab/iot_link/network/dtls/mbedtls/mbedtls-2.16.2/include/mbedtls\ssl_internal.h **** #define MBEDTLS_SSL_MAC_ADD                 20  /* SHA-1   used for HMAC */
 148:C:/Users/dtjld/workspace/AIoT/src/LiteOS_Lab/iot_link/network/dtls/mbedtls/mbedtls-2.16.2/include/mbedtls\ssl_internal.h **** #endif
 149:C:/Users/dtjld/workspace/AIoT/src/LiteOS_Lab/iot_link/network/dtls/mbedtls/mbedtls-2.16.2/include/mbedtls\ssl_internal.h **** #else
 150:C:/Users/dtjld/workspace/AIoT/src/LiteOS_Lab/iot_link/network/dtls/mbedtls/mbedtls-2.16.2/include/mbedtls\ssl_internal.h **** /* AEAD ciphersuites: GCM and CCM use a 128 bits tag */
 151:C:/Users/dtjld/workspace/AIoT/src/LiteOS_Lab/iot_link/network/dtls/mbedtls/mbedtls-2.16.2/include/mbedtls\ssl_internal.h **** #define MBEDTLS_SSL_MAC_ADD                 16
 152:C:/Users/dtjld/workspace/AIoT/src/LiteOS_Lab/iot_link/network/dtls/mbedtls/mbedtls-2.16.2/include/mbedtls\ssl_internal.h **** #endif
 153:C:/Users/dtjld/workspace/AIoT/src/LiteOS_Lab/iot_link/network/dtls/mbedtls/mbedtls-2.16.2/include/mbedtls\ssl_internal.h **** 
 154:C:/Users/dtjld/workspace/AIoT/src/LiteOS_Lab/iot_link/network/dtls/mbedtls/mbedtls-2.16.2/include/mbedtls\ssl_internal.h **** #if defined(MBEDTLS_CIPHER_MODE_CBC)
 155:C:/Users/dtjld/workspace/AIoT/src/LiteOS_Lab/iot_link/network/dtls/mbedtls/mbedtls-2.16.2/include/mbedtls\ssl_internal.h **** #define MBEDTLS_SSL_PADDING_ADD            256
 156:C:/Users/dtjld/workspace/AIoT/src/LiteOS_Lab/iot_link/network/dtls/mbedtls/mbedtls-2.16.2/include/mbedtls\ssl_internal.h **** #else
 157:C:/Users/dtjld/workspace/AIoT/src/LiteOS_Lab/iot_link/network/dtls/mbedtls/mbedtls-2.16.2/include/mbedtls\ssl_internal.h **** #define MBEDTLS_SSL_PADDING_ADD              0
 158:C:/Users/dtjld/workspace/AIoT/src/LiteOS_Lab/iot_link/network/dtls/mbedtls/mbedtls-2.16.2/include/mbedtls\ssl_internal.h **** #endif
 159:C:/Users/dtjld/workspace/AIoT/src/LiteOS_Lab/iot_link/network/dtls/mbedtls/mbedtls-2.16.2/include/mbedtls\ssl_internal.h **** 
 160:C:/Users/dtjld/workspace/AIoT/src/LiteOS_Lab/iot_link/network/dtls/mbedtls/mbedtls-2.16.2/include/mbedtls\ssl_internal.h **** #define MBEDTLS_SSL_PAYLOAD_OVERHEAD ( MBEDTLS_SSL_COMPRESSION_ADD +    \
 161:C:/Users/dtjld/workspace/AIoT/src/LiteOS_Lab/iot_link/network/dtls/mbedtls/mbedtls-2.16.2/include/mbedtls\ssl_internal.h ****                                        MBEDTLS_MAX_IV_LENGTH +          \
 162:C:/Users/dtjld/workspace/AIoT/src/LiteOS_Lab/iot_link/network/dtls/mbedtls/mbedtls-2.16.2/include/mbedtls\ssl_internal.h ****                                        MBEDTLS_SSL_MAC_ADD +            \
 163:C:/Users/dtjld/workspace/AIoT/src/LiteOS_Lab/iot_link/network/dtls/mbedtls/mbedtls-2.16.2/include/mbedtls\ssl_internal.h ****                                        MBEDTLS_SSL_PADDING_ADD          \
 164:C:/Users/dtjld/workspace/AIoT/src/LiteOS_Lab/iot_link/network/dtls/mbedtls/mbedtls-2.16.2/include/mbedtls\ssl_internal.h ****                                        )
 165:C:/Users/dtjld/workspace/AIoT/src/LiteOS_Lab/iot_link/network/dtls/mbedtls/mbedtls-2.16.2/include/mbedtls\ssl_internal.h **** 
 166:C:/Users/dtjld/workspace/AIoT/src/LiteOS_Lab/iot_link/network/dtls/mbedtls/mbedtls-2.16.2/include/mbedtls\ssl_internal.h **** #define MBEDTLS_SSL_IN_PAYLOAD_LEN ( MBEDTLS_SSL_PAYLOAD_OVERHEAD + \
 167:C:/Users/dtjld/workspace/AIoT/src/LiteOS_Lab/iot_link/network/dtls/mbedtls/mbedtls-2.16.2/include/mbedtls\ssl_internal.h ****                                      ( MBEDTLS_SSL_IN_CONTENT_LEN ) )
 168:C:/Users/dtjld/workspace/AIoT/src/LiteOS_Lab/iot_link/network/dtls/mbedtls/mbedtls-2.16.2/include/mbedtls\ssl_internal.h **** 
 169:C:/Users/dtjld/workspace/AIoT/src/LiteOS_Lab/iot_link/network/dtls/mbedtls/mbedtls-2.16.2/include/mbedtls\ssl_internal.h **** #define MBEDTLS_SSL_OUT_PAYLOAD_LEN ( MBEDTLS_SSL_PAYLOAD_OVERHEAD + \
 170:C:/Users/dtjld/workspace/AIoT/src/LiteOS_Lab/iot_link/network/dtls/mbedtls/mbedtls-2.16.2/include/mbedtls\ssl_internal.h ****                                       ( MBEDTLS_SSL_OUT_CONTENT_LEN ) )
 171:C:/Users/dtjld/workspace/AIoT/src/LiteOS_Lab/iot_link/network/dtls/mbedtls/mbedtls-2.16.2/include/mbedtls\ssl_internal.h **** 
 172:C:/Users/dtjld/workspace/AIoT/src/LiteOS_Lab/iot_link/network/dtls/mbedtls/mbedtls-2.16.2/include/mbedtls\ssl_internal.h **** /* The maximum number of buffered handshake messages. */
 173:C:/Users/dtjld/workspace/AIoT/src/LiteOS_Lab/iot_link/network/dtls/mbedtls/mbedtls-2.16.2/include/mbedtls\ssl_internal.h **** #define MBEDTLS_SSL_MAX_BUFFERED_HS 4
 174:C:/Users/dtjld/workspace/AIoT/src/LiteOS_Lab/iot_link/network/dtls/mbedtls/mbedtls-2.16.2/include/mbedtls\ssl_internal.h **** 
 175:C:/Users/dtjld/workspace/AIoT/src/LiteOS_Lab/iot_link/network/dtls/mbedtls/mbedtls-2.16.2/include/mbedtls\ssl_internal.h **** /* Maximum length we can advertise as our max content length for
 176:C:/Users/dtjld/workspace/AIoT/src/LiteOS_Lab/iot_link/network/dtls/mbedtls/mbedtls-2.16.2/include/mbedtls\ssl_internal.h ****    RFC 6066 max_fragment_length extension negotiation purposes
 177:C:/Users/dtjld/workspace/AIoT/src/LiteOS_Lab/iot_link/network/dtls/mbedtls/mbedtls-2.16.2/include/mbedtls\ssl_internal.h ****    (the lesser of both sizes, if they are unequal.)
 178:C:/Users/dtjld/workspace/AIoT/src/LiteOS_Lab/iot_link/network/dtls/mbedtls/mbedtls-2.16.2/include/mbedtls\ssl_internal.h ****  */
 179:C:/Users/dtjld/workspace/AIoT/src/LiteOS_Lab/iot_link/network/dtls/mbedtls/mbedtls-2.16.2/include/mbedtls\ssl_internal.h **** #define MBEDTLS_TLS_EXT_ADV_CONTENT_LEN (                            \
 180:C:/Users/dtjld/workspace/AIoT/src/LiteOS_Lab/iot_link/network/dtls/mbedtls/mbedtls-2.16.2/include/mbedtls\ssl_internal.h ****         (MBEDTLS_SSL_IN_CONTENT_LEN > MBEDTLS_SSL_OUT_CONTENT_LEN)   \
 181:C:/Users/dtjld/workspace/AIoT/src/LiteOS_Lab/iot_link/network/dtls/mbedtls/mbedtls-2.16.2/include/mbedtls\ssl_internal.h ****         ? ( MBEDTLS_SSL_OUT_CONTENT_LEN )                            \
 182:C:/Users/dtjld/workspace/AIoT/src/LiteOS_Lab/iot_link/network/dtls/mbedtls/mbedtls-2.16.2/include/mbedtls\ssl_internal.h ****         : ( MBEDTLS_SSL_IN_CONTENT_LEN )                             \
 183:C:/Users/dtjld/workspace/AIoT/src/LiteOS_Lab/iot_link/network/dtls/mbedtls/mbedtls-2.16.2/include/mbedtls\ssl_internal.h ****         )
 184:C:/Users/dtjld/workspace/AIoT/src/LiteOS_Lab/iot_link/network/dtls/mbedtls/mbedtls-2.16.2/include/mbedtls\ssl_internal.h **** 
 185:C:/Users/dtjld/workspace/AIoT/src/LiteOS_Lab/iot_link/network/dtls/mbedtls/mbedtls-2.16.2/include/mbedtls\ssl_internal.h **** /*
 186:C:/Users/dtjld/workspace/AIoT/src/LiteOS_Lab/iot_link/network/dtls/mbedtls/mbedtls-2.16.2/include/mbedtls\ssl_internal.h ****  * Check that we obey the standard's message size bounds
 187:C:/Users/dtjld/workspace/AIoT/src/LiteOS_Lab/iot_link/network/dtls/mbedtls/mbedtls-2.16.2/include/mbedtls\ssl_internal.h ****  */
 188:C:/Users/dtjld/workspace/AIoT/src/LiteOS_Lab/iot_link/network/dtls/mbedtls/mbedtls-2.16.2/include/mbedtls\ssl_internal.h **** 
 189:C:/Users/dtjld/workspace/AIoT/src/LiteOS_Lab/iot_link/network/dtls/mbedtls/mbedtls-2.16.2/include/mbedtls\ssl_internal.h **** #if MBEDTLS_SSL_MAX_CONTENT_LEN > 16384
 190:C:/Users/dtjld/workspace/AIoT/src/LiteOS_Lab/iot_link/network/dtls/mbedtls/mbedtls-2.16.2/include/mbedtls\ssl_internal.h **** #error "Bad configuration - record content too large."
 191:C:/Users/dtjld/workspace/AIoT/src/LiteOS_Lab/iot_link/network/dtls/mbedtls/mbedtls-2.16.2/include/mbedtls\ssl_internal.h **** #endif
 192:C:/Users/dtjld/workspace/AIoT/src/LiteOS_Lab/iot_link/network/dtls/mbedtls/mbedtls-2.16.2/include/mbedtls\ssl_internal.h **** 
 193:C:/Users/dtjld/workspace/AIoT/src/LiteOS_Lab/iot_link/network/dtls/mbedtls/mbedtls-2.16.2/include/mbedtls\ssl_internal.h **** #if MBEDTLS_SSL_IN_CONTENT_LEN > MBEDTLS_SSL_MAX_CONTENT_LEN
 194:C:/Users/dtjld/workspace/AIoT/src/LiteOS_Lab/iot_link/network/dtls/mbedtls/mbedtls-2.16.2/include/mbedtls\ssl_internal.h **** #error "Bad configuration - incoming record content should not be larger than MBEDTLS_SSL_MAX_CONTE
 195:C:/Users/dtjld/workspace/AIoT/src/LiteOS_Lab/iot_link/network/dtls/mbedtls/mbedtls-2.16.2/include/mbedtls\ssl_internal.h **** #endif
 196:C:/Users/dtjld/workspace/AIoT/src/LiteOS_Lab/iot_link/network/dtls/mbedtls/mbedtls-2.16.2/include/mbedtls\ssl_internal.h **** 
 197:C:/Users/dtjld/workspace/AIoT/src/LiteOS_Lab/iot_link/network/dtls/mbedtls/mbedtls-2.16.2/include/mbedtls\ssl_internal.h **** #if MBEDTLS_SSL_OUT_CONTENT_LEN > MBEDTLS_SSL_MAX_CONTENT_LEN
 198:C:/Users/dtjld/workspace/AIoT/src/LiteOS_Lab/iot_link/network/dtls/mbedtls/mbedtls-2.16.2/include/mbedtls\ssl_internal.h **** #error "Bad configuration - outgoing record content should not be larger than MBEDTLS_SSL_MAX_CONTE
 199:C:/Users/dtjld/workspace/AIoT/src/LiteOS_Lab/iot_link/network/dtls/mbedtls/mbedtls-2.16.2/include/mbedtls\ssl_internal.h **** #endif
 200:C:/Users/dtjld/workspace/AIoT/src/LiteOS_Lab/iot_link/network/dtls/mbedtls/mbedtls-2.16.2/include/mbedtls\ssl_internal.h **** 
 201:C:/Users/dtjld/workspace/AIoT/src/LiteOS_Lab/iot_link/network/dtls/mbedtls/mbedtls-2.16.2/include/mbedtls\ssl_internal.h **** #if MBEDTLS_SSL_IN_PAYLOAD_LEN > MBEDTLS_SSL_MAX_CONTENT_LEN + 2048
 202:C:/Users/dtjld/workspace/AIoT/src/LiteOS_Lab/iot_link/network/dtls/mbedtls/mbedtls-2.16.2/include/mbedtls\ssl_internal.h **** #error "Bad configuration - incoming protected record payload too large."
 203:C:/Users/dtjld/workspace/AIoT/src/LiteOS_Lab/iot_link/network/dtls/mbedtls/mbedtls-2.16.2/include/mbedtls\ssl_internal.h **** #endif
ARM GAS  C:\Users\dtjld\AppData\Local\Temp\cc0z6O28.s 			page 5


 204:C:/Users/dtjld/workspace/AIoT/src/LiteOS_Lab/iot_link/network/dtls/mbedtls/mbedtls-2.16.2/include/mbedtls\ssl_internal.h **** 
 205:C:/Users/dtjld/workspace/AIoT/src/LiteOS_Lab/iot_link/network/dtls/mbedtls/mbedtls-2.16.2/include/mbedtls\ssl_internal.h **** #if MBEDTLS_SSL_OUT_PAYLOAD_LEN > MBEDTLS_SSL_MAX_CONTENT_LEN + 2048
 206:C:/Users/dtjld/workspace/AIoT/src/LiteOS_Lab/iot_link/network/dtls/mbedtls/mbedtls-2.16.2/include/mbedtls\ssl_internal.h **** #error "Bad configuration - outgoing protected record payload too large."
 207:C:/Users/dtjld/workspace/AIoT/src/LiteOS_Lab/iot_link/network/dtls/mbedtls/mbedtls-2.16.2/include/mbedtls\ssl_internal.h **** #endif
 208:C:/Users/dtjld/workspace/AIoT/src/LiteOS_Lab/iot_link/network/dtls/mbedtls/mbedtls-2.16.2/include/mbedtls\ssl_internal.h **** 
 209:C:/Users/dtjld/workspace/AIoT/src/LiteOS_Lab/iot_link/network/dtls/mbedtls/mbedtls-2.16.2/include/mbedtls\ssl_internal.h **** /* Calculate buffer sizes */
 210:C:/Users/dtjld/workspace/AIoT/src/LiteOS_Lab/iot_link/network/dtls/mbedtls/mbedtls-2.16.2/include/mbedtls\ssl_internal.h **** 
 211:C:/Users/dtjld/workspace/AIoT/src/LiteOS_Lab/iot_link/network/dtls/mbedtls/mbedtls-2.16.2/include/mbedtls\ssl_internal.h **** /* Note: Even though the TLS record header is only 5 bytes
 212:C:/Users/dtjld/workspace/AIoT/src/LiteOS_Lab/iot_link/network/dtls/mbedtls/mbedtls-2.16.2/include/mbedtls\ssl_internal.h ****    long, we're internally using 8 bytes to store the
 213:C:/Users/dtjld/workspace/AIoT/src/LiteOS_Lab/iot_link/network/dtls/mbedtls/mbedtls-2.16.2/include/mbedtls\ssl_internal.h ****    implicit sequence number. */
 214:C:/Users/dtjld/workspace/AIoT/src/LiteOS_Lab/iot_link/network/dtls/mbedtls/mbedtls-2.16.2/include/mbedtls\ssl_internal.h **** #define MBEDTLS_SSL_HEADER_LEN 13
 215:C:/Users/dtjld/workspace/AIoT/src/LiteOS_Lab/iot_link/network/dtls/mbedtls/mbedtls-2.16.2/include/mbedtls\ssl_internal.h **** 
 216:C:/Users/dtjld/workspace/AIoT/src/LiteOS_Lab/iot_link/network/dtls/mbedtls/mbedtls-2.16.2/include/mbedtls\ssl_internal.h **** #define MBEDTLS_SSL_IN_BUFFER_LEN  \
 217:C:/Users/dtjld/workspace/AIoT/src/LiteOS_Lab/iot_link/network/dtls/mbedtls/mbedtls-2.16.2/include/mbedtls\ssl_internal.h ****     ( ( MBEDTLS_SSL_HEADER_LEN ) + ( MBEDTLS_SSL_IN_PAYLOAD_LEN ) )
 218:C:/Users/dtjld/workspace/AIoT/src/LiteOS_Lab/iot_link/network/dtls/mbedtls/mbedtls-2.16.2/include/mbedtls\ssl_internal.h **** 
 219:C:/Users/dtjld/workspace/AIoT/src/LiteOS_Lab/iot_link/network/dtls/mbedtls/mbedtls-2.16.2/include/mbedtls\ssl_internal.h **** #define MBEDTLS_SSL_OUT_BUFFER_LEN  \
 220:C:/Users/dtjld/workspace/AIoT/src/LiteOS_Lab/iot_link/network/dtls/mbedtls/mbedtls-2.16.2/include/mbedtls\ssl_internal.h ****     ( ( MBEDTLS_SSL_HEADER_LEN ) + ( MBEDTLS_SSL_OUT_PAYLOAD_LEN ) )
 221:C:/Users/dtjld/workspace/AIoT/src/LiteOS_Lab/iot_link/network/dtls/mbedtls/mbedtls-2.16.2/include/mbedtls\ssl_internal.h **** 
 222:C:/Users/dtjld/workspace/AIoT/src/LiteOS_Lab/iot_link/network/dtls/mbedtls/mbedtls-2.16.2/include/mbedtls\ssl_internal.h **** #ifdef MBEDTLS_ZLIB_SUPPORT
 223:C:/Users/dtjld/workspace/AIoT/src/LiteOS_Lab/iot_link/network/dtls/mbedtls/mbedtls-2.16.2/include/mbedtls\ssl_internal.h **** /* Compression buffer holds both IN and OUT buffers, so should be size of the larger */
 224:C:/Users/dtjld/workspace/AIoT/src/LiteOS_Lab/iot_link/network/dtls/mbedtls/mbedtls-2.16.2/include/mbedtls\ssl_internal.h **** #define MBEDTLS_SSL_COMPRESS_BUFFER_LEN (                               \
 225:C:/Users/dtjld/workspace/AIoT/src/LiteOS_Lab/iot_link/network/dtls/mbedtls/mbedtls-2.16.2/include/mbedtls\ssl_internal.h ****         ( MBEDTLS_SSL_IN_BUFFER_LEN > MBEDTLS_SSL_OUT_BUFFER_LEN )      \
 226:C:/Users/dtjld/workspace/AIoT/src/LiteOS_Lab/iot_link/network/dtls/mbedtls/mbedtls-2.16.2/include/mbedtls\ssl_internal.h ****         ? MBEDTLS_SSL_IN_BUFFER_LEN                                     \
 227:C:/Users/dtjld/workspace/AIoT/src/LiteOS_Lab/iot_link/network/dtls/mbedtls/mbedtls-2.16.2/include/mbedtls\ssl_internal.h ****         : MBEDTLS_SSL_OUT_BUFFER_LEN                                    \
 228:C:/Users/dtjld/workspace/AIoT/src/LiteOS_Lab/iot_link/network/dtls/mbedtls/mbedtls-2.16.2/include/mbedtls\ssl_internal.h ****         )
 229:C:/Users/dtjld/workspace/AIoT/src/LiteOS_Lab/iot_link/network/dtls/mbedtls/mbedtls-2.16.2/include/mbedtls\ssl_internal.h **** #endif
 230:C:/Users/dtjld/workspace/AIoT/src/LiteOS_Lab/iot_link/network/dtls/mbedtls/mbedtls-2.16.2/include/mbedtls\ssl_internal.h **** 
 231:C:/Users/dtjld/workspace/AIoT/src/LiteOS_Lab/iot_link/network/dtls/mbedtls/mbedtls-2.16.2/include/mbedtls\ssl_internal.h **** /*
 232:C:/Users/dtjld/workspace/AIoT/src/LiteOS_Lab/iot_link/network/dtls/mbedtls/mbedtls-2.16.2/include/mbedtls\ssl_internal.h ****  * TLS extension flags (for extensions with outgoing ServerHello content
 233:C:/Users/dtjld/workspace/AIoT/src/LiteOS_Lab/iot_link/network/dtls/mbedtls/mbedtls-2.16.2/include/mbedtls\ssl_internal.h ****  * that need it (e.g. for RENEGOTIATION_INFO the server already knows because
 234:C:/Users/dtjld/workspace/AIoT/src/LiteOS_Lab/iot_link/network/dtls/mbedtls/mbedtls-2.16.2/include/mbedtls\ssl_internal.h ****  * of state of the renegotiation flag, so no indicator is required)
 235:C:/Users/dtjld/workspace/AIoT/src/LiteOS_Lab/iot_link/network/dtls/mbedtls/mbedtls-2.16.2/include/mbedtls\ssl_internal.h ****  */
 236:C:/Users/dtjld/workspace/AIoT/src/LiteOS_Lab/iot_link/network/dtls/mbedtls/mbedtls-2.16.2/include/mbedtls\ssl_internal.h **** #define MBEDTLS_TLS_EXT_SUPPORTED_POINT_FORMATS_PRESENT (1 << 0)
 237:C:/Users/dtjld/workspace/AIoT/src/LiteOS_Lab/iot_link/network/dtls/mbedtls/mbedtls-2.16.2/include/mbedtls\ssl_internal.h **** #define MBEDTLS_TLS_EXT_ECJPAKE_KKPP_OK                 (1 << 1)
 238:C:/Users/dtjld/workspace/AIoT/src/LiteOS_Lab/iot_link/network/dtls/mbedtls/mbedtls-2.16.2/include/mbedtls\ssl_internal.h **** 
 239:C:/Users/dtjld/workspace/AIoT/src/LiteOS_Lab/iot_link/network/dtls/mbedtls/mbedtls-2.16.2/include/mbedtls\ssl_internal.h **** #ifdef __cplusplus
 240:C:/Users/dtjld/workspace/AIoT/src/LiteOS_Lab/iot_link/network/dtls/mbedtls/mbedtls-2.16.2/include/mbedtls\ssl_internal.h **** extern "C" {
 241:C:/Users/dtjld/workspace/AIoT/src/LiteOS_Lab/iot_link/network/dtls/mbedtls/mbedtls-2.16.2/include/mbedtls\ssl_internal.h **** #endif
 242:C:/Users/dtjld/workspace/AIoT/src/LiteOS_Lab/iot_link/network/dtls/mbedtls/mbedtls-2.16.2/include/mbedtls\ssl_internal.h **** 
 243:C:/Users/dtjld/workspace/AIoT/src/LiteOS_Lab/iot_link/network/dtls/mbedtls/mbedtls-2.16.2/include/mbedtls\ssl_internal.h **** #if defined(MBEDTLS_SSL_PROTO_TLS1_2) && \
 244:C:/Users/dtjld/workspace/AIoT/src/LiteOS_Lab/iot_link/network/dtls/mbedtls/mbedtls-2.16.2/include/mbedtls\ssl_internal.h ****     defined(MBEDTLS_KEY_EXCHANGE__WITH_CERT__ENABLED)
 245:C:/Users/dtjld/workspace/AIoT/src/LiteOS_Lab/iot_link/network/dtls/mbedtls/mbedtls-2.16.2/include/mbedtls\ssl_internal.h **** /*
 246:C:/Users/dtjld/workspace/AIoT/src/LiteOS_Lab/iot_link/network/dtls/mbedtls/mbedtls-2.16.2/include/mbedtls\ssl_internal.h ****  * Abstraction for a grid of allowed signature-hash-algorithm pairs.
 247:C:/Users/dtjld/workspace/AIoT/src/LiteOS_Lab/iot_link/network/dtls/mbedtls/mbedtls-2.16.2/include/mbedtls\ssl_internal.h ****  */
 248:C:/Users/dtjld/workspace/AIoT/src/LiteOS_Lab/iot_link/network/dtls/mbedtls/mbedtls-2.16.2/include/mbedtls\ssl_internal.h **** struct mbedtls_ssl_sig_hash_set_t
 249:C:/Users/dtjld/workspace/AIoT/src/LiteOS_Lab/iot_link/network/dtls/mbedtls/mbedtls-2.16.2/include/mbedtls\ssl_internal.h **** {
 250:C:/Users/dtjld/workspace/AIoT/src/LiteOS_Lab/iot_link/network/dtls/mbedtls/mbedtls-2.16.2/include/mbedtls\ssl_internal.h ****     /* At the moment, we only need to remember a single suitable
 251:C:/Users/dtjld/workspace/AIoT/src/LiteOS_Lab/iot_link/network/dtls/mbedtls/mbedtls-2.16.2/include/mbedtls\ssl_internal.h ****      * hash algorithm per signature algorithm. As long as that's
 252:C:/Users/dtjld/workspace/AIoT/src/LiteOS_Lab/iot_link/network/dtls/mbedtls/mbedtls-2.16.2/include/mbedtls\ssl_internal.h ****      * the case - and we don't need a general lookup function -
 253:C:/Users/dtjld/workspace/AIoT/src/LiteOS_Lab/iot_link/network/dtls/mbedtls/mbedtls-2.16.2/include/mbedtls\ssl_internal.h ****      * we can implement the sig-hash-set as a map from signatures
 254:C:/Users/dtjld/workspace/AIoT/src/LiteOS_Lab/iot_link/network/dtls/mbedtls/mbedtls-2.16.2/include/mbedtls\ssl_internal.h ****      * to hash algorithms. */
 255:C:/Users/dtjld/workspace/AIoT/src/LiteOS_Lab/iot_link/network/dtls/mbedtls/mbedtls-2.16.2/include/mbedtls\ssl_internal.h ****     mbedtls_md_type_t rsa;
 256:C:/Users/dtjld/workspace/AIoT/src/LiteOS_Lab/iot_link/network/dtls/mbedtls/mbedtls-2.16.2/include/mbedtls\ssl_internal.h ****     mbedtls_md_type_t ecdsa;
 257:C:/Users/dtjld/workspace/AIoT/src/LiteOS_Lab/iot_link/network/dtls/mbedtls/mbedtls-2.16.2/include/mbedtls\ssl_internal.h **** };
 258:C:/Users/dtjld/workspace/AIoT/src/LiteOS_Lab/iot_link/network/dtls/mbedtls/mbedtls-2.16.2/include/mbedtls\ssl_internal.h **** #endif /* MBEDTLS_SSL_PROTO_TLS1_2 &&
 259:C:/Users/dtjld/workspace/AIoT/src/LiteOS_Lab/iot_link/network/dtls/mbedtls/mbedtls-2.16.2/include/mbedtls\ssl_internal.h ****           MBEDTLS_KEY_EXCHANGE__WITH_CERT__ENABLED */
 260:C:/Users/dtjld/workspace/AIoT/src/LiteOS_Lab/iot_link/network/dtls/mbedtls/mbedtls-2.16.2/include/mbedtls\ssl_internal.h **** 
ARM GAS  C:\Users\dtjld\AppData\Local\Temp\cc0z6O28.s 			page 6


 261:C:/Users/dtjld/workspace/AIoT/src/LiteOS_Lab/iot_link/network/dtls/mbedtls/mbedtls-2.16.2/include/mbedtls\ssl_internal.h **** /*
 262:C:/Users/dtjld/workspace/AIoT/src/LiteOS_Lab/iot_link/network/dtls/mbedtls/mbedtls-2.16.2/include/mbedtls\ssl_internal.h ****  * This structure contains the parameters only needed during handshake.
 263:C:/Users/dtjld/workspace/AIoT/src/LiteOS_Lab/iot_link/network/dtls/mbedtls/mbedtls-2.16.2/include/mbedtls\ssl_internal.h ****  */
 264:C:/Users/dtjld/workspace/AIoT/src/LiteOS_Lab/iot_link/network/dtls/mbedtls/mbedtls-2.16.2/include/mbedtls\ssl_internal.h **** struct mbedtls_ssl_handshake_params
 265:C:/Users/dtjld/workspace/AIoT/src/LiteOS_Lab/iot_link/network/dtls/mbedtls/mbedtls-2.16.2/include/mbedtls\ssl_internal.h **** {
 266:C:/Users/dtjld/workspace/AIoT/src/LiteOS_Lab/iot_link/network/dtls/mbedtls/mbedtls-2.16.2/include/mbedtls\ssl_internal.h ****     /*
 267:C:/Users/dtjld/workspace/AIoT/src/LiteOS_Lab/iot_link/network/dtls/mbedtls/mbedtls-2.16.2/include/mbedtls\ssl_internal.h ****      * Handshake specific crypto variables
 268:C:/Users/dtjld/workspace/AIoT/src/LiteOS_Lab/iot_link/network/dtls/mbedtls/mbedtls-2.16.2/include/mbedtls\ssl_internal.h ****      */
 269:C:/Users/dtjld/workspace/AIoT/src/LiteOS_Lab/iot_link/network/dtls/mbedtls/mbedtls-2.16.2/include/mbedtls\ssl_internal.h **** 
 270:C:/Users/dtjld/workspace/AIoT/src/LiteOS_Lab/iot_link/network/dtls/mbedtls/mbedtls-2.16.2/include/mbedtls\ssl_internal.h **** #if defined(MBEDTLS_SSL_PROTO_TLS1_2) && \
 271:C:/Users/dtjld/workspace/AIoT/src/LiteOS_Lab/iot_link/network/dtls/mbedtls/mbedtls-2.16.2/include/mbedtls\ssl_internal.h ****     defined(MBEDTLS_KEY_EXCHANGE__WITH_CERT__ENABLED)
 272:C:/Users/dtjld/workspace/AIoT/src/LiteOS_Lab/iot_link/network/dtls/mbedtls/mbedtls-2.16.2/include/mbedtls\ssl_internal.h ****     mbedtls_ssl_sig_hash_set_t hash_algs;             /*!<  Set of suitable sig-hash pairs */
 273:C:/Users/dtjld/workspace/AIoT/src/LiteOS_Lab/iot_link/network/dtls/mbedtls/mbedtls-2.16.2/include/mbedtls\ssl_internal.h **** #endif
 274:C:/Users/dtjld/workspace/AIoT/src/LiteOS_Lab/iot_link/network/dtls/mbedtls/mbedtls-2.16.2/include/mbedtls\ssl_internal.h **** #if defined(MBEDTLS_DHM_C)
 275:C:/Users/dtjld/workspace/AIoT/src/LiteOS_Lab/iot_link/network/dtls/mbedtls/mbedtls-2.16.2/include/mbedtls\ssl_internal.h ****     mbedtls_dhm_context dhm_ctx;                /*!<  DHM key exchange        */
 276:C:/Users/dtjld/workspace/AIoT/src/LiteOS_Lab/iot_link/network/dtls/mbedtls/mbedtls-2.16.2/include/mbedtls\ssl_internal.h **** #endif
 277:C:/Users/dtjld/workspace/AIoT/src/LiteOS_Lab/iot_link/network/dtls/mbedtls/mbedtls-2.16.2/include/mbedtls\ssl_internal.h **** #if defined(MBEDTLS_ECDH_C)
 278:C:/Users/dtjld/workspace/AIoT/src/LiteOS_Lab/iot_link/network/dtls/mbedtls/mbedtls-2.16.2/include/mbedtls\ssl_internal.h ****     mbedtls_ecdh_context ecdh_ctx;              /*!<  ECDH key exchange       */
 279:C:/Users/dtjld/workspace/AIoT/src/LiteOS_Lab/iot_link/network/dtls/mbedtls/mbedtls-2.16.2/include/mbedtls\ssl_internal.h **** #endif
 280:C:/Users/dtjld/workspace/AIoT/src/LiteOS_Lab/iot_link/network/dtls/mbedtls/mbedtls-2.16.2/include/mbedtls\ssl_internal.h **** #if defined(MBEDTLS_KEY_EXCHANGE_ECJPAKE_ENABLED)
 281:C:/Users/dtjld/workspace/AIoT/src/LiteOS_Lab/iot_link/network/dtls/mbedtls/mbedtls-2.16.2/include/mbedtls\ssl_internal.h ****     mbedtls_ecjpake_context ecjpake_ctx;        /*!< EC J-PAKE key exchange */
 282:C:/Users/dtjld/workspace/AIoT/src/LiteOS_Lab/iot_link/network/dtls/mbedtls/mbedtls-2.16.2/include/mbedtls\ssl_internal.h **** #if defined(MBEDTLS_SSL_CLI_C)
 283:C:/Users/dtjld/workspace/AIoT/src/LiteOS_Lab/iot_link/network/dtls/mbedtls/mbedtls-2.16.2/include/mbedtls\ssl_internal.h ****     unsigned char *ecjpake_cache;               /*!< Cache for ClientHello ext */
 284:C:/Users/dtjld/workspace/AIoT/src/LiteOS_Lab/iot_link/network/dtls/mbedtls/mbedtls-2.16.2/include/mbedtls\ssl_internal.h ****     size_t ecjpake_cache_len;                   /*!< Length of cached data */
 285:C:/Users/dtjld/workspace/AIoT/src/LiteOS_Lab/iot_link/network/dtls/mbedtls/mbedtls-2.16.2/include/mbedtls\ssl_internal.h **** #endif
 286:C:/Users/dtjld/workspace/AIoT/src/LiteOS_Lab/iot_link/network/dtls/mbedtls/mbedtls-2.16.2/include/mbedtls\ssl_internal.h **** #endif /* MBEDTLS_KEY_EXCHANGE_ECJPAKE_ENABLED */
 287:C:/Users/dtjld/workspace/AIoT/src/LiteOS_Lab/iot_link/network/dtls/mbedtls/mbedtls-2.16.2/include/mbedtls\ssl_internal.h **** #if defined(MBEDTLS_ECDH_C) || defined(MBEDTLS_ECDSA_C) || \
 288:C:/Users/dtjld/workspace/AIoT/src/LiteOS_Lab/iot_link/network/dtls/mbedtls/mbedtls-2.16.2/include/mbedtls\ssl_internal.h ****     defined(MBEDTLS_KEY_EXCHANGE_ECJPAKE_ENABLED)
 289:C:/Users/dtjld/workspace/AIoT/src/LiteOS_Lab/iot_link/network/dtls/mbedtls/mbedtls-2.16.2/include/mbedtls\ssl_internal.h ****     const mbedtls_ecp_curve_info **curves;      /*!<  Supported elliptic curves */
 290:C:/Users/dtjld/workspace/AIoT/src/LiteOS_Lab/iot_link/network/dtls/mbedtls/mbedtls-2.16.2/include/mbedtls\ssl_internal.h **** #endif
 291:C:/Users/dtjld/workspace/AIoT/src/LiteOS_Lab/iot_link/network/dtls/mbedtls/mbedtls-2.16.2/include/mbedtls\ssl_internal.h **** #if defined(MBEDTLS_KEY_EXCHANGE__SOME__PSK_ENABLED)
 292:C:/Users/dtjld/workspace/AIoT/src/LiteOS_Lab/iot_link/network/dtls/mbedtls/mbedtls-2.16.2/include/mbedtls\ssl_internal.h ****     unsigned char *psk;                 /*!<  PSK from the callback         */
 293:C:/Users/dtjld/workspace/AIoT/src/LiteOS_Lab/iot_link/network/dtls/mbedtls/mbedtls-2.16.2/include/mbedtls\ssl_internal.h ****     size_t psk_len;                     /*!<  Length of PSK from callback   */
 294:C:/Users/dtjld/workspace/AIoT/src/LiteOS_Lab/iot_link/network/dtls/mbedtls/mbedtls-2.16.2/include/mbedtls\ssl_internal.h **** #endif
 295:C:/Users/dtjld/workspace/AIoT/src/LiteOS_Lab/iot_link/network/dtls/mbedtls/mbedtls-2.16.2/include/mbedtls\ssl_internal.h **** #if defined(MBEDTLS_X509_CRT_PARSE_C)
 296:C:/Users/dtjld/workspace/AIoT/src/LiteOS_Lab/iot_link/network/dtls/mbedtls/mbedtls-2.16.2/include/mbedtls\ssl_internal.h ****     mbedtls_ssl_key_cert *key_cert;     /*!< chosen key/cert pair (server)  */
 297:C:/Users/dtjld/workspace/AIoT/src/LiteOS_Lab/iot_link/network/dtls/mbedtls/mbedtls-2.16.2/include/mbedtls\ssl_internal.h **** #if defined(MBEDTLS_SSL_SERVER_NAME_INDICATION)
 298:C:/Users/dtjld/workspace/AIoT/src/LiteOS_Lab/iot_link/network/dtls/mbedtls/mbedtls-2.16.2/include/mbedtls\ssl_internal.h ****     int sni_authmode;                   /*!< authmode from SNI callback     */
 299:C:/Users/dtjld/workspace/AIoT/src/LiteOS_Lab/iot_link/network/dtls/mbedtls/mbedtls-2.16.2/include/mbedtls\ssl_internal.h ****     mbedtls_ssl_key_cert *sni_key_cert; /*!< key/cert list from SNI         */
 300:C:/Users/dtjld/workspace/AIoT/src/LiteOS_Lab/iot_link/network/dtls/mbedtls/mbedtls-2.16.2/include/mbedtls\ssl_internal.h ****     mbedtls_x509_crt *sni_ca_chain;     /*!< trusted CAs from SNI callback  */
 301:C:/Users/dtjld/workspace/AIoT/src/LiteOS_Lab/iot_link/network/dtls/mbedtls/mbedtls-2.16.2/include/mbedtls\ssl_internal.h ****     mbedtls_x509_crl *sni_ca_crl;       /*!< trusted CAs CRLs from SNI      */
 302:C:/Users/dtjld/workspace/AIoT/src/LiteOS_Lab/iot_link/network/dtls/mbedtls/mbedtls-2.16.2/include/mbedtls\ssl_internal.h **** #endif /* MBEDTLS_SSL_SERVER_NAME_INDICATION */
 303:C:/Users/dtjld/workspace/AIoT/src/LiteOS_Lab/iot_link/network/dtls/mbedtls/mbedtls-2.16.2/include/mbedtls\ssl_internal.h **** #endif /* MBEDTLS_X509_CRT_PARSE_C */
 304:C:/Users/dtjld/workspace/AIoT/src/LiteOS_Lab/iot_link/network/dtls/mbedtls/mbedtls-2.16.2/include/mbedtls\ssl_internal.h **** #if defined(MBEDTLS_SSL__ECP_RESTARTABLE)
 305:C:/Users/dtjld/workspace/AIoT/src/LiteOS_Lab/iot_link/network/dtls/mbedtls/mbedtls-2.16.2/include/mbedtls\ssl_internal.h ****     int ecrs_enabled;                   /*!< Handshake supports EC restart? */
 306:C:/Users/dtjld/workspace/AIoT/src/LiteOS_Lab/iot_link/network/dtls/mbedtls/mbedtls-2.16.2/include/mbedtls\ssl_internal.h ****     mbedtls_x509_crt_restart_ctx ecrs_ctx;  /*!< restart context            */
 307:C:/Users/dtjld/workspace/AIoT/src/LiteOS_Lab/iot_link/network/dtls/mbedtls/mbedtls-2.16.2/include/mbedtls\ssl_internal.h ****     enum { /* this complements ssl->state with info on intra-state operations */
 308:C:/Users/dtjld/workspace/AIoT/src/LiteOS_Lab/iot_link/network/dtls/mbedtls/mbedtls-2.16.2/include/mbedtls\ssl_internal.h ****         ssl_ecrs_none = 0,              /*!< nothing going on (yet)         */
 309:C:/Users/dtjld/workspace/AIoT/src/LiteOS_Lab/iot_link/network/dtls/mbedtls/mbedtls-2.16.2/include/mbedtls\ssl_internal.h ****         ssl_ecrs_crt_verify,            /*!< Certificate: crt_verify()      */
 310:C:/Users/dtjld/workspace/AIoT/src/LiteOS_Lab/iot_link/network/dtls/mbedtls/mbedtls-2.16.2/include/mbedtls\ssl_internal.h ****         ssl_ecrs_ske_start_processing,  /*!< ServerKeyExchange: pk_verify() */
 311:C:/Users/dtjld/workspace/AIoT/src/LiteOS_Lab/iot_link/network/dtls/mbedtls/mbedtls-2.16.2/include/mbedtls\ssl_internal.h ****         ssl_ecrs_cke_ecdh_calc_secret,  /*!< ClientKeyExchange: ECDH step 2 */
 312:C:/Users/dtjld/workspace/AIoT/src/LiteOS_Lab/iot_link/network/dtls/mbedtls/mbedtls-2.16.2/include/mbedtls\ssl_internal.h ****         ssl_ecrs_crt_vrfy_sign,         /*!< CertificateVerify: pk_sign()   */
 313:C:/Users/dtjld/workspace/AIoT/src/LiteOS_Lab/iot_link/network/dtls/mbedtls/mbedtls-2.16.2/include/mbedtls\ssl_internal.h ****     } ecrs_state;                       /*!< current (or last) operation    */
 314:C:/Users/dtjld/workspace/AIoT/src/LiteOS_Lab/iot_link/network/dtls/mbedtls/mbedtls-2.16.2/include/mbedtls\ssl_internal.h ****     size_t ecrs_n;                      /*!< place for saving a length      */
 315:C:/Users/dtjld/workspace/AIoT/src/LiteOS_Lab/iot_link/network/dtls/mbedtls/mbedtls-2.16.2/include/mbedtls\ssl_internal.h **** #endif
 316:C:/Users/dtjld/workspace/AIoT/src/LiteOS_Lab/iot_link/network/dtls/mbedtls/mbedtls-2.16.2/include/mbedtls\ssl_internal.h **** #if defined(MBEDTLS_SSL_PROTO_DTLS)
 317:C:/Users/dtjld/workspace/AIoT/src/LiteOS_Lab/iot_link/network/dtls/mbedtls/mbedtls-2.16.2/include/mbedtls\ssl_internal.h ****     unsigned int out_msg_seq;           /*!<  Outgoing handshake sequence number */
ARM GAS  C:\Users\dtjld\AppData\Local\Temp\cc0z6O28.s 			page 7


 318:C:/Users/dtjld/workspace/AIoT/src/LiteOS_Lab/iot_link/network/dtls/mbedtls/mbedtls-2.16.2/include/mbedtls\ssl_internal.h ****     unsigned int in_msg_seq;            /*!<  Incoming handshake sequence number */
 319:C:/Users/dtjld/workspace/AIoT/src/LiteOS_Lab/iot_link/network/dtls/mbedtls/mbedtls-2.16.2/include/mbedtls\ssl_internal.h **** 
 320:C:/Users/dtjld/workspace/AIoT/src/LiteOS_Lab/iot_link/network/dtls/mbedtls/mbedtls-2.16.2/include/mbedtls\ssl_internal.h ****     unsigned char *verify_cookie;       /*!<  Cli: HelloVerifyRequest cookie
 321:C:/Users/dtjld/workspace/AIoT/src/LiteOS_Lab/iot_link/network/dtls/mbedtls/mbedtls-2.16.2/include/mbedtls\ssl_internal.h ****                                               Srv: unused                    */
 322:C:/Users/dtjld/workspace/AIoT/src/LiteOS_Lab/iot_link/network/dtls/mbedtls/mbedtls-2.16.2/include/mbedtls\ssl_internal.h ****     unsigned char verify_cookie_len;    /*!<  Cli: cookie length
 323:C:/Users/dtjld/workspace/AIoT/src/LiteOS_Lab/iot_link/network/dtls/mbedtls/mbedtls-2.16.2/include/mbedtls\ssl_internal.h ****                                               Srv: flag for sending a cookie */
 324:C:/Users/dtjld/workspace/AIoT/src/LiteOS_Lab/iot_link/network/dtls/mbedtls/mbedtls-2.16.2/include/mbedtls\ssl_internal.h **** 
 325:C:/Users/dtjld/workspace/AIoT/src/LiteOS_Lab/iot_link/network/dtls/mbedtls/mbedtls-2.16.2/include/mbedtls\ssl_internal.h ****     uint32_t retransmit_timeout;        /*!<  Current value of timeout       */
 326:C:/Users/dtjld/workspace/AIoT/src/LiteOS_Lab/iot_link/network/dtls/mbedtls/mbedtls-2.16.2/include/mbedtls\ssl_internal.h ****     unsigned char retransmit_state;     /*!<  Retransmission state           */
 327:C:/Users/dtjld/workspace/AIoT/src/LiteOS_Lab/iot_link/network/dtls/mbedtls/mbedtls-2.16.2/include/mbedtls\ssl_internal.h ****     mbedtls_ssl_flight_item *flight;    /*!<  Current outgoing flight        */
 328:C:/Users/dtjld/workspace/AIoT/src/LiteOS_Lab/iot_link/network/dtls/mbedtls/mbedtls-2.16.2/include/mbedtls\ssl_internal.h ****     mbedtls_ssl_flight_item *cur_msg;   /*!<  Current message in flight      */
 329:C:/Users/dtjld/workspace/AIoT/src/LiteOS_Lab/iot_link/network/dtls/mbedtls/mbedtls-2.16.2/include/mbedtls\ssl_internal.h ****     unsigned char *cur_msg_p;           /*!<  Position in current message    */
 330:C:/Users/dtjld/workspace/AIoT/src/LiteOS_Lab/iot_link/network/dtls/mbedtls/mbedtls-2.16.2/include/mbedtls\ssl_internal.h ****     unsigned int in_flight_start_seq;   /*!<  Minimum message sequence in the
 331:C:/Users/dtjld/workspace/AIoT/src/LiteOS_Lab/iot_link/network/dtls/mbedtls/mbedtls-2.16.2/include/mbedtls\ssl_internal.h ****                                               flight being received          */
 332:C:/Users/dtjld/workspace/AIoT/src/LiteOS_Lab/iot_link/network/dtls/mbedtls/mbedtls-2.16.2/include/mbedtls\ssl_internal.h ****     mbedtls_ssl_transform *alt_transform_out;   /*!<  Alternative transform for
 333:C:/Users/dtjld/workspace/AIoT/src/LiteOS_Lab/iot_link/network/dtls/mbedtls/mbedtls-2.16.2/include/mbedtls\ssl_internal.h ****                                               resending messages             */
 334:C:/Users/dtjld/workspace/AIoT/src/LiteOS_Lab/iot_link/network/dtls/mbedtls/mbedtls-2.16.2/include/mbedtls\ssl_internal.h ****     unsigned char alt_out_ctr[8];       /*!<  Alternative record epoch/counter
 335:C:/Users/dtjld/workspace/AIoT/src/LiteOS_Lab/iot_link/network/dtls/mbedtls/mbedtls-2.16.2/include/mbedtls\ssl_internal.h ****                                               for resending messages         */
 336:C:/Users/dtjld/workspace/AIoT/src/LiteOS_Lab/iot_link/network/dtls/mbedtls/mbedtls-2.16.2/include/mbedtls\ssl_internal.h **** 
 337:C:/Users/dtjld/workspace/AIoT/src/LiteOS_Lab/iot_link/network/dtls/mbedtls/mbedtls-2.16.2/include/mbedtls\ssl_internal.h ****     struct
 338:C:/Users/dtjld/workspace/AIoT/src/LiteOS_Lab/iot_link/network/dtls/mbedtls/mbedtls-2.16.2/include/mbedtls\ssl_internal.h ****     {
 339:C:/Users/dtjld/workspace/AIoT/src/LiteOS_Lab/iot_link/network/dtls/mbedtls/mbedtls-2.16.2/include/mbedtls\ssl_internal.h ****         size_t total_bytes_buffered; /*!< Cumulative size of heap allocated
 340:C:/Users/dtjld/workspace/AIoT/src/LiteOS_Lab/iot_link/network/dtls/mbedtls/mbedtls-2.16.2/include/mbedtls\ssl_internal.h ****                                       *   buffers used for message buffering. */
 341:C:/Users/dtjld/workspace/AIoT/src/LiteOS_Lab/iot_link/network/dtls/mbedtls/mbedtls-2.16.2/include/mbedtls\ssl_internal.h **** 
 342:C:/Users/dtjld/workspace/AIoT/src/LiteOS_Lab/iot_link/network/dtls/mbedtls/mbedtls-2.16.2/include/mbedtls\ssl_internal.h ****         uint8_t seen_ccs;               /*!< Indicates if a CCS message has
 343:C:/Users/dtjld/workspace/AIoT/src/LiteOS_Lab/iot_link/network/dtls/mbedtls/mbedtls-2.16.2/include/mbedtls\ssl_internal.h ****                                          *   been seen in the current flight. */
 344:C:/Users/dtjld/workspace/AIoT/src/LiteOS_Lab/iot_link/network/dtls/mbedtls/mbedtls-2.16.2/include/mbedtls\ssl_internal.h **** 
 345:C:/Users/dtjld/workspace/AIoT/src/LiteOS_Lab/iot_link/network/dtls/mbedtls/mbedtls-2.16.2/include/mbedtls\ssl_internal.h ****         struct mbedtls_ssl_hs_buffer
 346:C:/Users/dtjld/workspace/AIoT/src/LiteOS_Lab/iot_link/network/dtls/mbedtls/mbedtls-2.16.2/include/mbedtls\ssl_internal.h ****         {
 347:C:/Users/dtjld/workspace/AIoT/src/LiteOS_Lab/iot_link/network/dtls/mbedtls/mbedtls-2.16.2/include/mbedtls\ssl_internal.h ****             unsigned is_valid      : 1;
 348:C:/Users/dtjld/workspace/AIoT/src/LiteOS_Lab/iot_link/network/dtls/mbedtls/mbedtls-2.16.2/include/mbedtls\ssl_internal.h ****             unsigned is_fragmented : 1;
 349:C:/Users/dtjld/workspace/AIoT/src/LiteOS_Lab/iot_link/network/dtls/mbedtls/mbedtls-2.16.2/include/mbedtls\ssl_internal.h ****             unsigned is_complete   : 1;
 350:C:/Users/dtjld/workspace/AIoT/src/LiteOS_Lab/iot_link/network/dtls/mbedtls/mbedtls-2.16.2/include/mbedtls\ssl_internal.h ****             unsigned char *data;
 351:C:/Users/dtjld/workspace/AIoT/src/LiteOS_Lab/iot_link/network/dtls/mbedtls/mbedtls-2.16.2/include/mbedtls\ssl_internal.h ****             size_t data_len;
 352:C:/Users/dtjld/workspace/AIoT/src/LiteOS_Lab/iot_link/network/dtls/mbedtls/mbedtls-2.16.2/include/mbedtls\ssl_internal.h ****         } hs[MBEDTLS_SSL_MAX_BUFFERED_HS];
 353:C:/Users/dtjld/workspace/AIoT/src/LiteOS_Lab/iot_link/network/dtls/mbedtls/mbedtls-2.16.2/include/mbedtls\ssl_internal.h **** 
 354:C:/Users/dtjld/workspace/AIoT/src/LiteOS_Lab/iot_link/network/dtls/mbedtls/mbedtls-2.16.2/include/mbedtls\ssl_internal.h ****         struct
 355:C:/Users/dtjld/workspace/AIoT/src/LiteOS_Lab/iot_link/network/dtls/mbedtls/mbedtls-2.16.2/include/mbedtls\ssl_internal.h ****         {
 356:C:/Users/dtjld/workspace/AIoT/src/LiteOS_Lab/iot_link/network/dtls/mbedtls/mbedtls-2.16.2/include/mbedtls\ssl_internal.h ****             unsigned char *data;
 357:C:/Users/dtjld/workspace/AIoT/src/LiteOS_Lab/iot_link/network/dtls/mbedtls/mbedtls-2.16.2/include/mbedtls\ssl_internal.h ****             size_t len;
 358:C:/Users/dtjld/workspace/AIoT/src/LiteOS_Lab/iot_link/network/dtls/mbedtls/mbedtls-2.16.2/include/mbedtls\ssl_internal.h ****             unsigned epoch;
 359:C:/Users/dtjld/workspace/AIoT/src/LiteOS_Lab/iot_link/network/dtls/mbedtls/mbedtls-2.16.2/include/mbedtls\ssl_internal.h ****         } future_record;
 360:C:/Users/dtjld/workspace/AIoT/src/LiteOS_Lab/iot_link/network/dtls/mbedtls/mbedtls-2.16.2/include/mbedtls\ssl_internal.h **** 
 361:C:/Users/dtjld/workspace/AIoT/src/LiteOS_Lab/iot_link/network/dtls/mbedtls/mbedtls-2.16.2/include/mbedtls\ssl_internal.h ****     } buffering;
 362:C:/Users/dtjld/workspace/AIoT/src/LiteOS_Lab/iot_link/network/dtls/mbedtls/mbedtls-2.16.2/include/mbedtls\ssl_internal.h **** 
 363:C:/Users/dtjld/workspace/AIoT/src/LiteOS_Lab/iot_link/network/dtls/mbedtls/mbedtls-2.16.2/include/mbedtls\ssl_internal.h ****     uint16_t mtu;                       /*!<  Handshake mtu, used to fragment outgoing messages */
 364:C:/Users/dtjld/workspace/AIoT/src/LiteOS_Lab/iot_link/network/dtls/mbedtls/mbedtls-2.16.2/include/mbedtls\ssl_internal.h **** #endif /* MBEDTLS_SSL_PROTO_DTLS */
 365:C:/Users/dtjld/workspace/AIoT/src/LiteOS_Lab/iot_link/network/dtls/mbedtls/mbedtls-2.16.2/include/mbedtls\ssl_internal.h **** 
 366:C:/Users/dtjld/workspace/AIoT/src/LiteOS_Lab/iot_link/network/dtls/mbedtls/mbedtls-2.16.2/include/mbedtls\ssl_internal.h ****     /*
 367:C:/Users/dtjld/workspace/AIoT/src/LiteOS_Lab/iot_link/network/dtls/mbedtls/mbedtls-2.16.2/include/mbedtls\ssl_internal.h ****      * Checksum contexts
 368:C:/Users/dtjld/workspace/AIoT/src/LiteOS_Lab/iot_link/network/dtls/mbedtls/mbedtls-2.16.2/include/mbedtls\ssl_internal.h ****      */
 369:C:/Users/dtjld/workspace/AIoT/src/LiteOS_Lab/iot_link/network/dtls/mbedtls/mbedtls-2.16.2/include/mbedtls\ssl_internal.h **** #if defined(MBEDTLS_SSL_PROTO_SSL3) || defined(MBEDTLS_SSL_PROTO_TLS1) || \
 370:C:/Users/dtjld/workspace/AIoT/src/LiteOS_Lab/iot_link/network/dtls/mbedtls/mbedtls-2.16.2/include/mbedtls\ssl_internal.h ****     defined(MBEDTLS_SSL_PROTO_TLS1_1)
 371:C:/Users/dtjld/workspace/AIoT/src/LiteOS_Lab/iot_link/network/dtls/mbedtls/mbedtls-2.16.2/include/mbedtls\ssl_internal.h ****        mbedtls_md5_context fin_md5;
 372:C:/Users/dtjld/workspace/AIoT/src/LiteOS_Lab/iot_link/network/dtls/mbedtls/mbedtls-2.16.2/include/mbedtls\ssl_internal.h ****       mbedtls_sha1_context fin_sha1;
 373:C:/Users/dtjld/workspace/AIoT/src/LiteOS_Lab/iot_link/network/dtls/mbedtls/mbedtls-2.16.2/include/mbedtls\ssl_internal.h **** #endif
 374:C:/Users/dtjld/workspace/AIoT/src/LiteOS_Lab/iot_link/network/dtls/mbedtls/mbedtls-2.16.2/include/mbedtls\ssl_internal.h **** #if defined(MBEDTLS_SSL_PROTO_TLS1_2)
ARM GAS  C:\Users\dtjld\AppData\Local\Temp\cc0z6O28.s 			page 8


 375:C:/Users/dtjld/workspace/AIoT/src/LiteOS_Lab/iot_link/network/dtls/mbedtls/mbedtls-2.16.2/include/mbedtls\ssl_internal.h **** #if defined(MBEDTLS_SHA256_C)
 376:C:/Users/dtjld/workspace/AIoT/src/LiteOS_Lab/iot_link/network/dtls/mbedtls/mbedtls-2.16.2/include/mbedtls\ssl_internal.h ****     mbedtls_sha256_context fin_sha256;
 377:C:/Users/dtjld/workspace/AIoT/src/LiteOS_Lab/iot_link/network/dtls/mbedtls/mbedtls-2.16.2/include/mbedtls\ssl_internal.h **** #endif
 378:C:/Users/dtjld/workspace/AIoT/src/LiteOS_Lab/iot_link/network/dtls/mbedtls/mbedtls-2.16.2/include/mbedtls\ssl_internal.h **** #if defined(MBEDTLS_SHA512_C)
 379:C:/Users/dtjld/workspace/AIoT/src/LiteOS_Lab/iot_link/network/dtls/mbedtls/mbedtls-2.16.2/include/mbedtls\ssl_internal.h ****     mbedtls_sha512_context fin_sha512;
 380:C:/Users/dtjld/workspace/AIoT/src/LiteOS_Lab/iot_link/network/dtls/mbedtls/mbedtls-2.16.2/include/mbedtls\ssl_internal.h **** #endif
 381:C:/Users/dtjld/workspace/AIoT/src/LiteOS_Lab/iot_link/network/dtls/mbedtls/mbedtls-2.16.2/include/mbedtls\ssl_internal.h **** #endif /* MBEDTLS_SSL_PROTO_TLS1_2 */
 382:C:/Users/dtjld/workspace/AIoT/src/LiteOS_Lab/iot_link/network/dtls/mbedtls/mbedtls-2.16.2/include/mbedtls\ssl_internal.h **** 
 383:C:/Users/dtjld/workspace/AIoT/src/LiteOS_Lab/iot_link/network/dtls/mbedtls/mbedtls-2.16.2/include/mbedtls\ssl_internal.h ****     void (*update_checksum)(mbedtls_ssl_context *, const unsigned char *, size_t);
 384:C:/Users/dtjld/workspace/AIoT/src/LiteOS_Lab/iot_link/network/dtls/mbedtls/mbedtls-2.16.2/include/mbedtls\ssl_internal.h ****     void (*calc_verify)(mbedtls_ssl_context *, unsigned char *);
 385:C:/Users/dtjld/workspace/AIoT/src/LiteOS_Lab/iot_link/network/dtls/mbedtls/mbedtls-2.16.2/include/mbedtls\ssl_internal.h ****     void (*calc_finished)(mbedtls_ssl_context *, unsigned char *, int);
 386:C:/Users/dtjld/workspace/AIoT/src/LiteOS_Lab/iot_link/network/dtls/mbedtls/mbedtls-2.16.2/include/mbedtls\ssl_internal.h ****     int  (*tls_prf)(const unsigned char *, size_t, const char *,
 387:C:/Users/dtjld/workspace/AIoT/src/LiteOS_Lab/iot_link/network/dtls/mbedtls/mbedtls-2.16.2/include/mbedtls\ssl_internal.h ****                     const unsigned char *, size_t,
 388:C:/Users/dtjld/workspace/AIoT/src/LiteOS_Lab/iot_link/network/dtls/mbedtls/mbedtls-2.16.2/include/mbedtls\ssl_internal.h ****                     unsigned char *, size_t);
 389:C:/Users/dtjld/workspace/AIoT/src/LiteOS_Lab/iot_link/network/dtls/mbedtls/mbedtls-2.16.2/include/mbedtls\ssl_internal.h **** 
 390:C:/Users/dtjld/workspace/AIoT/src/LiteOS_Lab/iot_link/network/dtls/mbedtls/mbedtls-2.16.2/include/mbedtls\ssl_internal.h ****     size_t pmslen;                      /*!<  premaster length        */
 391:C:/Users/dtjld/workspace/AIoT/src/LiteOS_Lab/iot_link/network/dtls/mbedtls/mbedtls-2.16.2/include/mbedtls\ssl_internal.h **** 
 392:C:/Users/dtjld/workspace/AIoT/src/LiteOS_Lab/iot_link/network/dtls/mbedtls/mbedtls-2.16.2/include/mbedtls\ssl_internal.h ****     unsigned char randbytes[64];        /*!<  random bytes            */
 393:C:/Users/dtjld/workspace/AIoT/src/LiteOS_Lab/iot_link/network/dtls/mbedtls/mbedtls-2.16.2/include/mbedtls\ssl_internal.h ****     unsigned char premaster[MBEDTLS_PREMASTER_SIZE];
 394:C:/Users/dtjld/workspace/AIoT/src/LiteOS_Lab/iot_link/network/dtls/mbedtls/mbedtls-2.16.2/include/mbedtls\ssl_internal.h ****                                         /*!<  premaster secret        */
 395:C:/Users/dtjld/workspace/AIoT/src/LiteOS_Lab/iot_link/network/dtls/mbedtls/mbedtls-2.16.2/include/mbedtls\ssl_internal.h **** 
 396:C:/Users/dtjld/workspace/AIoT/src/LiteOS_Lab/iot_link/network/dtls/mbedtls/mbedtls-2.16.2/include/mbedtls\ssl_internal.h ****     int resume;                         /*!<  session resume indicator*/
 397:C:/Users/dtjld/workspace/AIoT/src/LiteOS_Lab/iot_link/network/dtls/mbedtls/mbedtls-2.16.2/include/mbedtls\ssl_internal.h ****     int max_major_ver;                  /*!< max. major version client*/
 398:C:/Users/dtjld/workspace/AIoT/src/LiteOS_Lab/iot_link/network/dtls/mbedtls/mbedtls-2.16.2/include/mbedtls\ssl_internal.h ****     int max_minor_ver;                  /*!< max. minor version client*/
 399:C:/Users/dtjld/workspace/AIoT/src/LiteOS_Lab/iot_link/network/dtls/mbedtls/mbedtls-2.16.2/include/mbedtls\ssl_internal.h ****     int cli_exts;                       /*!< client extension presence*/
 400:C:/Users/dtjld/workspace/AIoT/src/LiteOS_Lab/iot_link/network/dtls/mbedtls/mbedtls-2.16.2/include/mbedtls\ssl_internal.h **** 
 401:C:/Users/dtjld/workspace/AIoT/src/LiteOS_Lab/iot_link/network/dtls/mbedtls/mbedtls-2.16.2/include/mbedtls\ssl_internal.h **** #if defined(MBEDTLS_SSL_SESSION_TICKETS)
 402:C:/Users/dtjld/workspace/AIoT/src/LiteOS_Lab/iot_link/network/dtls/mbedtls/mbedtls-2.16.2/include/mbedtls\ssl_internal.h ****     int new_session_ticket;             /*!< use NewSessionTicket?    */
 403:C:/Users/dtjld/workspace/AIoT/src/LiteOS_Lab/iot_link/network/dtls/mbedtls/mbedtls-2.16.2/include/mbedtls\ssl_internal.h **** #endif /* MBEDTLS_SSL_SESSION_TICKETS */
 404:C:/Users/dtjld/workspace/AIoT/src/LiteOS_Lab/iot_link/network/dtls/mbedtls/mbedtls-2.16.2/include/mbedtls\ssl_internal.h **** #if defined(MBEDTLS_SSL_EXTENDED_MASTER_SECRET)
 405:C:/Users/dtjld/workspace/AIoT/src/LiteOS_Lab/iot_link/network/dtls/mbedtls/mbedtls-2.16.2/include/mbedtls\ssl_internal.h ****     int extended_ms;                    /*!< use Extended Master Secret? */
 406:C:/Users/dtjld/workspace/AIoT/src/LiteOS_Lab/iot_link/network/dtls/mbedtls/mbedtls-2.16.2/include/mbedtls\ssl_internal.h **** #endif
 407:C:/Users/dtjld/workspace/AIoT/src/LiteOS_Lab/iot_link/network/dtls/mbedtls/mbedtls-2.16.2/include/mbedtls\ssl_internal.h **** 
 408:C:/Users/dtjld/workspace/AIoT/src/LiteOS_Lab/iot_link/network/dtls/mbedtls/mbedtls-2.16.2/include/mbedtls\ssl_internal.h **** #if defined(MBEDTLS_SSL_ASYNC_PRIVATE)
 409:C:/Users/dtjld/workspace/AIoT/src/LiteOS_Lab/iot_link/network/dtls/mbedtls/mbedtls-2.16.2/include/mbedtls\ssl_internal.h ****     unsigned int async_in_progress : 1; /*!< an asynchronous operation is in progress */
 410:C:/Users/dtjld/workspace/AIoT/src/LiteOS_Lab/iot_link/network/dtls/mbedtls/mbedtls-2.16.2/include/mbedtls\ssl_internal.h **** #endif /* MBEDTLS_SSL_ASYNC_PRIVATE */
 411:C:/Users/dtjld/workspace/AIoT/src/LiteOS_Lab/iot_link/network/dtls/mbedtls/mbedtls-2.16.2/include/mbedtls\ssl_internal.h **** 
 412:C:/Users/dtjld/workspace/AIoT/src/LiteOS_Lab/iot_link/network/dtls/mbedtls/mbedtls-2.16.2/include/mbedtls\ssl_internal.h **** #if defined(MBEDTLS_SSL_ASYNC_PRIVATE)
 413:C:/Users/dtjld/workspace/AIoT/src/LiteOS_Lab/iot_link/network/dtls/mbedtls/mbedtls-2.16.2/include/mbedtls\ssl_internal.h ****     /** Asynchronous operation context. This field is meant for use by the
 414:C:/Users/dtjld/workspace/AIoT/src/LiteOS_Lab/iot_link/network/dtls/mbedtls/mbedtls-2.16.2/include/mbedtls\ssl_internal.h ****      * asynchronous operation callbacks (mbedtls_ssl_config::f_async_sign_start,
 415:C:/Users/dtjld/workspace/AIoT/src/LiteOS_Lab/iot_link/network/dtls/mbedtls/mbedtls-2.16.2/include/mbedtls\ssl_internal.h ****      * mbedtls_ssl_config::f_async_decrypt_start,
 416:C:/Users/dtjld/workspace/AIoT/src/LiteOS_Lab/iot_link/network/dtls/mbedtls/mbedtls-2.16.2/include/mbedtls\ssl_internal.h ****      * mbedtls_ssl_config::f_async_resume, mbedtls_ssl_config::f_async_cancel).
 417:C:/Users/dtjld/workspace/AIoT/src/LiteOS_Lab/iot_link/network/dtls/mbedtls/mbedtls-2.16.2/include/mbedtls\ssl_internal.h ****      * The library does not use it internally. */
 418:C:/Users/dtjld/workspace/AIoT/src/LiteOS_Lab/iot_link/network/dtls/mbedtls/mbedtls-2.16.2/include/mbedtls\ssl_internal.h ****     void *user_async_ctx;
 419:C:/Users/dtjld/workspace/AIoT/src/LiteOS_Lab/iot_link/network/dtls/mbedtls/mbedtls-2.16.2/include/mbedtls\ssl_internal.h **** #endif /* MBEDTLS_SSL_ASYNC_PRIVATE */
 420:C:/Users/dtjld/workspace/AIoT/src/LiteOS_Lab/iot_link/network/dtls/mbedtls/mbedtls-2.16.2/include/mbedtls\ssl_internal.h **** };
 421:C:/Users/dtjld/workspace/AIoT/src/LiteOS_Lab/iot_link/network/dtls/mbedtls/mbedtls-2.16.2/include/mbedtls\ssl_internal.h **** 
 422:C:/Users/dtjld/workspace/AIoT/src/LiteOS_Lab/iot_link/network/dtls/mbedtls/mbedtls-2.16.2/include/mbedtls\ssl_internal.h **** typedef struct mbedtls_ssl_hs_buffer mbedtls_ssl_hs_buffer;
 423:C:/Users/dtjld/workspace/AIoT/src/LiteOS_Lab/iot_link/network/dtls/mbedtls/mbedtls-2.16.2/include/mbedtls\ssl_internal.h **** 
 424:C:/Users/dtjld/workspace/AIoT/src/LiteOS_Lab/iot_link/network/dtls/mbedtls/mbedtls-2.16.2/include/mbedtls\ssl_internal.h **** /*
 425:C:/Users/dtjld/workspace/AIoT/src/LiteOS_Lab/iot_link/network/dtls/mbedtls/mbedtls-2.16.2/include/mbedtls\ssl_internal.h ****  * This structure contains a full set of runtime transform parameters
 426:C:/Users/dtjld/workspace/AIoT/src/LiteOS_Lab/iot_link/network/dtls/mbedtls/mbedtls-2.16.2/include/mbedtls\ssl_internal.h ****  * either in negotiation or active.
 427:C:/Users/dtjld/workspace/AIoT/src/LiteOS_Lab/iot_link/network/dtls/mbedtls/mbedtls-2.16.2/include/mbedtls\ssl_internal.h ****  */
 428:C:/Users/dtjld/workspace/AIoT/src/LiteOS_Lab/iot_link/network/dtls/mbedtls/mbedtls-2.16.2/include/mbedtls\ssl_internal.h **** struct mbedtls_ssl_transform
 429:C:/Users/dtjld/workspace/AIoT/src/LiteOS_Lab/iot_link/network/dtls/mbedtls/mbedtls-2.16.2/include/mbedtls\ssl_internal.h **** {
 430:C:/Users/dtjld/workspace/AIoT/src/LiteOS_Lab/iot_link/network/dtls/mbedtls/mbedtls-2.16.2/include/mbedtls\ssl_internal.h ****     /*
 431:C:/Users/dtjld/workspace/AIoT/src/LiteOS_Lab/iot_link/network/dtls/mbedtls/mbedtls-2.16.2/include/mbedtls\ssl_internal.h ****      * Session specific crypto layer
ARM GAS  C:\Users\dtjld\AppData\Local\Temp\cc0z6O28.s 			page 9


 432:C:/Users/dtjld/workspace/AIoT/src/LiteOS_Lab/iot_link/network/dtls/mbedtls/mbedtls-2.16.2/include/mbedtls\ssl_internal.h ****      */
 433:C:/Users/dtjld/workspace/AIoT/src/LiteOS_Lab/iot_link/network/dtls/mbedtls/mbedtls-2.16.2/include/mbedtls\ssl_internal.h ****     const mbedtls_ssl_ciphersuite_t *ciphersuite_info;
 434:C:/Users/dtjld/workspace/AIoT/src/LiteOS_Lab/iot_link/network/dtls/mbedtls/mbedtls-2.16.2/include/mbedtls\ssl_internal.h ****                                         /*!<  Chosen cipersuite_info  */
 435:C:/Users/dtjld/workspace/AIoT/src/LiteOS_Lab/iot_link/network/dtls/mbedtls/mbedtls-2.16.2/include/mbedtls\ssl_internal.h ****     unsigned int keylen;                /*!<  symmetric key length (bytes)  */
 436:C:/Users/dtjld/workspace/AIoT/src/LiteOS_Lab/iot_link/network/dtls/mbedtls/mbedtls-2.16.2/include/mbedtls\ssl_internal.h ****     size_t minlen;                      /*!<  min. ciphertext length  */
 437:C:/Users/dtjld/workspace/AIoT/src/LiteOS_Lab/iot_link/network/dtls/mbedtls/mbedtls-2.16.2/include/mbedtls\ssl_internal.h ****     size_t ivlen;                       /*!<  IV length               */
 438:C:/Users/dtjld/workspace/AIoT/src/LiteOS_Lab/iot_link/network/dtls/mbedtls/mbedtls-2.16.2/include/mbedtls\ssl_internal.h ****     size_t fixed_ivlen;                 /*!<  Fixed part of IV (AEAD) */
 439:C:/Users/dtjld/workspace/AIoT/src/LiteOS_Lab/iot_link/network/dtls/mbedtls/mbedtls-2.16.2/include/mbedtls\ssl_internal.h ****     size_t maclen;                      /*!<  MAC length              */
 440:C:/Users/dtjld/workspace/AIoT/src/LiteOS_Lab/iot_link/network/dtls/mbedtls/mbedtls-2.16.2/include/mbedtls\ssl_internal.h **** 
 441:C:/Users/dtjld/workspace/AIoT/src/LiteOS_Lab/iot_link/network/dtls/mbedtls/mbedtls-2.16.2/include/mbedtls\ssl_internal.h ****     unsigned char iv_enc[16];           /*!<  IV (encryption)         */
 442:C:/Users/dtjld/workspace/AIoT/src/LiteOS_Lab/iot_link/network/dtls/mbedtls/mbedtls-2.16.2/include/mbedtls\ssl_internal.h ****     unsigned char iv_dec[16];           /*!<  IV (decryption)         */
 443:C:/Users/dtjld/workspace/AIoT/src/LiteOS_Lab/iot_link/network/dtls/mbedtls/mbedtls-2.16.2/include/mbedtls\ssl_internal.h **** 
 444:C:/Users/dtjld/workspace/AIoT/src/LiteOS_Lab/iot_link/network/dtls/mbedtls/mbedtls-2.16.2/include/mbedtls\ssl_internal.h **** #if defined(MBEDTLS_SSL_PROTO_SSL3)
 445:C:/Users/dtjld/workspace/AIoT/src/LiteOS_Lab/iot_link/network/dtls/mbedtls/mbedtls-2.16.2/include/mbedtls\ssl_internal.h ****     /* Needed only for SSL v3.0 secret */
 446:C:/Users/dtjld/workspace/AIoT/src/LiteOS_Lab/iot_link/network/dtls/mbedtls/mbedtls-2.16.2/include/mbedtls\ssl_internal.h ****     unsigned char mac_enc[20];          /*!<  SSL v3.0 secret (enc)   */
 447:C:/Users/dtjld/workspace/AIoT/src/LiteOS_Lab/iot_link/network/dtls/mbedtls/mbedtls-2.16.2/include/mbedtls\ssl_internal.h ****     unsigned char mac_dec[20];          /*!<  SSL v3.0 secret (dec)   */
 448:C:/Users/dtjld/workspace/AIoT/src/LiteOS_Lab/iot_link/network/dtls/mbedtls/mbedtls-2.16.2/include/mbedtls\ssl_internal.h **** #endif /* MBEDTLS_SSL_PROTO_SSL3 */
 449:C:/Users/dtjld/workspace/AIoT/src/LiteOS_Lab/iot_link/network/dtls/mbedtls/mbedtls-2.16.2/include/mbedtls\ssl_internal.h **** 
 450:C:/Users/dtjld/workspace/AIoT/src/LiteOS_Lab/iot_link/network/dtls/mbedtls/mbedtls-2.16.2/include/mbedtls\ssl_internal.h ****     mbedtls_md_context_t md_ctx_enc;            /*!<  MAC (encryption)        */
 451:C:/Users/dtjld/workspace/AIoT/src/LiteOS_Lab/iot_link/network/dtls/mbedtls/mbedtls-2.16.2/include/mbedtls\ssl_internal.h ****     mbedtls_md_context_t md_ctx_dec;            /*!<  MAC (decryption)        */
 452:C:/Users/dtjld/workspace/AIoT/src/LiteOS_Lab/iot_link/network/dtls/mbedtls/mbedtls-2.16.2/include/mbedtls\ssl_internal.h **** 
 453:C:/Users/dtjld/workspace/AIoT/src/LiteOS_Lab/iot_link/network/dtls/mbedtls/mbedtls-2.16.2/include/mbedtls\ssl_internal.h ****     mbedtls_cipher_context_t cipher_ctx_enc;    /*!<  encryption context      */
 454:C:/Users/dtjld/workspace/AIoT/src/LiteOS_Lab/iot_link/network/dtls/mbedtls/mbedtls-2.16.2/include/mbedtls\ssl_internal.h ****     mbedtls_cipher_context_t cipher_ctx_dec;    /*!<  decryption context      */
 455:C:/Users/dtjld/workspace/AIoT/src/LiteOS_Lab/iot_link/network/dtls/mbedtls/mbedtls-2.16.2/include/mbedtls\ssl_internal.h **** 
 456:C:/Users/dtjld/workspace/AIoT/src/LiteOS_Lab/iot_link/network/dtls/mbedtls/mbedtls-2.16.2/include/mbedtls\ssl_internal.h ****     /*
 457:C:/Users/dtjld/workspace/AIoT/src/LiteOS_Lab/iot_link/network/dtls/mbedtls/mbedtls-2.16.2/include/mbedtls\ssl_internal.h ****      * Session specific compression layer
 458:C:/Users/dtjld/workspace/AIoT/src/LiteOS_Lab/iot_link/network/dtls/mbedtls/mbedtls-2.16.2/include/mbedtls\ssl_internal.h ****      */
 459:C:/Users/dtjld/workspace/AIoT/src/LiteOS_Lab/iot_link/network/dtls/mbedtls/mbedtls-2.16.2/include/mbedtls\ssl_internal.h **** #if defined(MBEDTLS_ZLIB_SUPPORT)
 460:C:/Users/dtjld/workspace/AIoT/src/LiteOS_Lab/iot_link/network/dtls/mbedtls/mbedtls-2.16.2/include/mbedtls\ssl_internal.h ****     z_stream ctx_deflate;               /*!<  compression context     */
 461:C:/Users/dtjld/workspace/AIoT/src/LiteOS_Lab/iot_link/network/dtls/mbedtls/mbedtls-2.16.2/include/mbedtls\ssl_internal.h ****     z_stream ctx_inflate;               /*!<  decompression context   */
 462:C:/Users/dtjld/workspace/AIoT/src/LiteOS_Lab/iot_link/network/dtls/mbedtls/mbedtls-2.16.2/include/mbedtls\ssl_internal.h **** #endif
 463:C:/Users/dtjld/workspace/AIoT/src/LiteOS_Lab/iot_link/network/dtls/mbedtls/mbedtls-2.16.2/include/mbedtls\ssl_internal.h **** };
 464:C:/Users/dtjld/workspace/AIoT/src/LiteOS_Lab/iot_link/network/dtls/mbedtls/mbedtls-2.16.2/include/mbedtls\ssl_internal.h **** 
 465:C:/Users/dtjld/workspace/AIoT/src/LiteOS_Lab/iot_link/network/dtls/mbedtls/mbedtls-2.16.2/include/mbedtls\ssl_internal.h **** #if defined(MBEDTLS_X509_CRT_PARSE_C)
 466:C:/Users/dtjld/workspace/AIoT/src/LiteOS_Lab/iot_link/network/dtls/mbedtls/mbedtls-2.16.2/include/mbedtls\ssl_internal.h **** /*
 467:C:/Users/dtjld/workspace/AIoT/src/LiteOS_Lab/iot_link/network/dtls/mbedtls/mbedtls-2.16.2/include/mbedtls\ssl_internal.h ****  * List of certificate + private key pairs
 468:C:/Users/dtjld/workspace/AIoT/src/LiteOS_Lab/iot_link/network/dtls/mbedtls/mbedtls-2.16.2/include/mbedtls\ssl_internal.h ****  */
 469:C:/Users/dtjld/workspace/AIoT/src/LiteOS_Lab/iot_link/network/dtls/mbedtls/mbedtls-2.16.2/include/mbedtls\ssl_internal.h **** struct mbedtls_ssl_key_cert
 470:C:/Users/dtjld/workspace/AIoT/src/LiteOS_Lab/iot_link/network/dtls/mbedtls/mbedtls-2.16.2/include/mbedtls\ssl_internal.h **** {
 471:C:/Users/dtjld/workspace/AIoT/src/LiteOS_Lab/iot_link/network/dtls/mbedtls/mbedtls-2.16.2/include/mbedtls\ssl_internal.h ****     mbedtls_x509_crt *cert;                 /*!< cert                       */
 472:C:/Users/dtjld/workspace/AIoT/src/LiteOS_Lab/iot_link/network/dtls/mbedtls/mbedtls-2.16.2/include/mbedtls\ssl_internal.h ****     mbedtls_pk_context *key;                /*!< private key                */
 473:C:/Users/dtjld/workspace/AIoT/src/LiteOS_Lab/iot_link/network/dtls/mbedtls/mbedtls-2.16.2/include/mbedtls\ssl_internal.h ****     mbedtls_ssl_key_cert *next;             /*!< next key/cert pair         */
 474:C:/Users/dtjld/workspace/AIoT/src/LiteOS_Lab/iot_link/network/dtls/mbedtls/mbedtls-2.16.2/include/mbedtls\ssl_internal.h **** };
 475:C:/Users/dtjld/workspace/AIoT/src/LiteOS_Lab/iot_link/network/dtls/mbedtls/mbedtls-2.16.2/include/mbedtls\ssl_internal.h **** #endif /* MBEDTLS_X509_CRT_PARSE_C */
 476:C:/Users/dtjld/workspace/AIoT/src/LiteOS_Lab/iot_link/network/dtls/mbedtls/mbedtls-2.16.2/include/mbedtls\ssl_internal.h **** 
 477:C:/Users/dtjld/workspace/AIoT/src/LiteOS_Lab/iot_link/network/dtls/mbedtls/mbedtls-2.16.2/include/mbedtls\ssl_internal.h **** #if defined(MBEDTLS_SSL_PROTO_DTLS)
 478:C:/Users/dtjld/workspace/AIoT/src/LiteOS_Lab/iot_link/network/dtls/mbedtls/mbedtls-2.16.2/include/mbedtls\ssl_internal.h **** /*
 479:C:/Users/dtjld/workspace/AIoT/src/LiteOS_Lab/iot_link/network/dtls/mbedtls/mbedtls-2.16.2/include/mbedtls\ssl_internal.h ****  * List of handshake messages kept around for resending
 480:C:/Users/dtjld/workspace/AIoT/src/LiteOS_Lab/iot_link/network/dtls/mbedtls/mbedtls-2.16.2/include/mbedtls\ssl_internal.h ****  */
 481:C:/Users/dtjld/workspace/AIoT/src/LiteOS_Lab/iot_link/network/dtls/mbedtls/mbedtls-2.16.2/include/mbedtls\ssl_internal.h **** struct mbedtls_ssl_flight_item
 482:C:/Users/dtjld/workspace/AIoT/src/LiteOS_Lab/iot_link/network/dtls/mbedtls/mbedtls-2.16.2/include/mbedtls\ssl_internal.h **** {
 483:C:/Users/dtjld/workspace/AIoT/src/LiteOS_Lab/iot_link/network/dtls/mbedtls/mbedtls-2.16.2/include/mbedtls\ssl_internal.h ****     unsigned char *p;       /*!< message, including handshake headers   */
 484:C:/Users/dtjld/workspace/AIoT/src/LiteOS_Lab/iot_link/network/dtls/mbedtls/mbedtls-2.16.2/include/mbedtls\ssl_internal.h ****     size_t len;             /*!< length of p                            */
 485:C:/Users/dtjld/workspace/AIoT/src/LiteOS_Lab/iot_link/network/dtls/mbedtls/mbedtls-2.16.2/include/mbedtls\ssl_internal.h ****     unsigned char type;     /*!< type of the message: handshake or CCS  */
 486:C:/Users/dtjld/workspace/AIoT/src/LiteOS_Lab/iot_link/network/dtls/mbedtls/mbedtls-2.16.2/include/mbedtls\ssl_internal.h ****     mbedtls_ssl_flight_item *next;  /*!< next handshake message(s)              */
 487:C:/Users/dtjld/workspace/AIoT/src/LiteOS_Lab/iot_link/network/dtls/mbedtls/mbedtls-2.16.2/include/mbedtls\ssl_internal.h **** };
 488:C:/Users/dtjld/workspace/AIoT/src/LiteOS_Lab/iot_link/network/dtls/mbedtls/mbedtls-2.16.2/include/mbedtls\ssl_internal.h **** #endif /* MBEDTLS_SSL_PROTO_DTLS */
ARM GAS  C:\Users\dtjld\AppData\Local\Temp\cc0z6O28.s 			page 10


 489:C:/Users/dtjld/workspace/AIoT/src/LiteOS_Lab/iot_link/network/dtls/mbedtls/mbedtls-2.16.2/include/mbedtls\ssl_internal.h **** 
 490:C:/Users/dtjld/workspace/AIoT/src/LiteOS_Lab/iot_link/network/dtls/mbedtls/mbedtls-2.16.2/include/mbedtls\ssl_internal.h **** #if defined(MBEDTLS_SSL_PROTO_TLS1_2) && \
 491:C:/Users/dtjld/workspace/AIoT/src/LiteOS_Lab/iot_link/network/dtls/mbedtls/mbedtls-2.16.2/include/mbedtls\ssl_internal.h ****     defined(MBEDTLS_KEY_EXCHANGE__WITH_CERT__ENABLED)
 492:C:/Users/dtjld/workspace/AIoT/src/LiteOS_Lab/iot_link/network/dtls/mbedtls/mbedtls-2.16.2/include/mbedtls\ssl_internal.h **** 
 493:C:/Users/dtjld/workspace/AIoT/src/LiteOS_Lab/iot_link/network/dtls/mbedtls/mbedtls-2.16.2/include/mbedtls\ssl_internal.h **** /* Find an entry in a signature-hash set matching a given hash algorithm. */
 494:C:/Users/dtjld/workspace/AIoT/src/LiteOS_Lab/iot_link/network/dtls/mbedtls/mbedtls-2.16.2/include/mbedtls\ssl_internal.h **** mbedtls_md_type_t mbedtls_ssl_sig_hash_set_find( mbedtls_ssl_sig_hash_set_t *set,
 495:C:/Users/dtjld/workspace/AIoT/src/LiteOS_Lab/iot_link/network/dtls/mbedtls/mbedtls-2.16.2/include/mbedtls\ssl_internal.h ****                                                  mbedtls_pk_type_t sig_alg );
 496:C:/Users/dtjld/workspace/AIoT/src/LiteOS_Lab/iot_link/network/dtls/mbedtls/mbedtls-2.16.2/include/mbedtls\ssl_internal.h **** /* Add a signature-hash-pair to a signature-hash set */
 497:C:/Users/dtjld/workspace/AIoT/src/LiteOS_Lab/iot_link/network/dtls/mbedtls/mbedtls-2.16.2/include/mbedtls\ssl_internal.h **** void mbedtls_ssl_sig_hash_set_add( mbedtls_ssl_sig_hash_set_t *set,
 498:C:/Users/dtjld/workspace/AIoT/src/LiteOS_Lab/iot_link/network/dtls/mbedtls/mbedtls-2.16.2/include/mbedtls\ssl_internal.h ****                                    mbedtls_pk_type_t sig_alg,
 499:C:/Users/dtjld/workspace/AIoT/src/LiteOS_Lab/iot_link/network/dtls/mbedtls/mbedtls-2.16.2/include/mbedtls\ssl_internal.h ****                                    mbedtls_md_type_t md_alg );
 500:C:/Users/dtjld/workspace/AIoT/src/LiteOS_Lab/iot_link/network/dtls/mbedtls/mbedtls-2.16.2/include/mbedtls\ssl_internal.h **** /* Allow exactly one hash algorithm for each signature. */
 501:C:/Users/dtjld/workspace/AIoT/src/LiteOS_Lab/iot_link/network/dtls/mbedtls/mbedtls-2.16.2/include/mbedtls\ssl_internal.h **** void mbedtls_ssl_sig_hash_set_const_hash( mbedtls_ssl_sig_hash_set_t *set,
 502:C:/Users/dtjld/workspace/AIoT/src/LiteOS_Lab/iot_link/network/dtls/mbedtls/mbedtls-2.16.2/include/mbedtls\ssl_internal.h ****                                           mbedtls_md_type_t md_alg );
 503:C:/Users/dtjld/workspace/AIoT/src/LiteOS_Lab/iot_link/network/dtls/mbedtls/mbedtls-2.16.2/include/mbedtls\ssl_internal.h **** 
 504:C:/Users/dtjld/workspace/AIoT/src/LiteOS_Lab/iot_link/network/dtls/mbedtls/mbedtls-2.16.2/include/mbedtls\ssl_internal.h **** /* Setup an empty signature-hash set */
 505:C:/Users/dtjld/workspace/AIoT/src/LiteOS_Lab/iot_link/network/dtls/mbedtls/mbedtls-2.16.2/include/mbedtls\ssl_internal.h **** static inline void mbedtls_ssl_sig_hash_set_init( mbedtls_ssl_sig_hash_set_t *set )
 506:C:/Users/dtjld/workspace/AIoT/src/LiteOS_Lab/iot_link/network/dtls/mbedtls/mbedtls-2.16.2/include/mbedtls\ssl_internal.h **** {
 507:C:/Users/dtjld/workspace/AIoT/src/LiteOS_Lab/iot_link/network/dtls/mbedtls/mbedtls-2.16.2/include/mbedtls\ssl_internal.h ****     mbedtls_ssl_sig_hash_set_const_hash( set, MBEDTLS_MD_NONE );
 508:C:/Users/dtjld/workspace/AIoT/src/LiteOS_Lab/iot_link/network/dtls/mbedtls/mbedtls-2.16.2/include/mbedtls\ssl_internal.h **** }
 509:C:/Users/dtjld/workspace/AIoT/src/LiteOS_Lab/iot_link/network/dtls/mbedtls/mbedtls-2.16.2/include/mbedtls\ssl_internal.h **** 
 510:C:/Users/dtjld/workspace/AIoT/src/LiteOS_Lab/iot_link/network/dtls/mbedtls/mbedtls-2.16.2/include/mbedtls\ssl_internal.h **** #endif /* MBEDTLS_SSL_PROTO_TLS1_2) &&
 511:C:/Users/dtjld/workspace/AIoT/src/LiteOS_Lab/iot_link/network/dtls/mbedtls/mbedtls-2.16.2/include/mbedtls\ssl_internal.h ****           MBEDTLS_KEY_EXCHANGE__WITH_CERT__ENABLED */
 512:C:/Users/dtjld/workspace/AIoT/src/LiteOS_Lab/iot_link/network/dtls/mbedtls/mbedtls-2.16.2/include/mbedtls\ssl_internal.h **** 
 513:C:/Users/dtjld/workspace/AIoT/src/LiteOS_Lab/iot_link/network/dtls/mbedtls/mbedtls-2.16.2/include/mbedtls\ssl_internal.h **** /**
 514:C:/Users/dtjld/workspace/AIoT/src/LiteOS_Lab/iot_link/network/dtls/mbedtls/mbedtls-2.16.2/include/mbedtls\ssl_internal.h ****  * \brief           Free referenced items in an SSL transform context and clear
 515:C:/Users/dtjld/workspace/AIoT/src/LiteOS_Lab/iot_link/network/dtls/mbedtls/mbedtls-2.16.2/include/mbedtls\ssl_internal.h ****  *                  memory
 516:C:/Users/dtjld/workspace/AIoT/src/LiteOS_Lab/iot_link/network/dtls/mbedtls/mbedtls-2.16.2/include/mbedtls\ssl_internal.h ****  *
 517:C:/Users/dtjld/workspace/AIoT/src/LiteOS_Lab/iot_link/network/dtls/mbedtls/mbedtls-2.16.2/include/mbedtls\ssl_internal.h ****  * \param transform SSL transform context
 518:C:/Users/dtjld/workspace/AIoT/src/LiteOS_Lab/iot_link/network/dtls/mbedtls/mbedtls-2.16.2/include/mbedtls\ssl_internal.h ****  */
 519:C:/Users/dtjld/workspace/AIoT/src/LiteOS_Lab/iot_link/network/dtls/mbedtls/mbedtls-2.16.2/include/mbedtls\ssl_internal.h **** void mbedtls_ssl_transform_free( mbedtls_ssl_transform *transform );
 520:C:/Users/dtjld/workspace/AIoT/src/LiteOS_Lab/iot_link/network/dtls/mbedtls/mbedtls-2.16.2/include/mbedtls\ssl_internal.h **** 
 521:C:/Users/dtjld/workspace/AIoT/src/LiteOS_Lab/iot_link/network/dtls/mbedtls/mbedtls-2.16.2/include/mbedtls\ssl_internal.h **** /**
 522:C:/Users/dtjld/workspace/AIoT/src/LiteOS_Lab/iot_link/network/dtls/mbedtls/mbedtls-2.16.2/include/mbedtls\ssl_internal.h ****  * \brief           Free referenced items in an SSL handshake context and clear
 523:C:/Users/dtjld/workspace/AIoT/src/LiteOS_Lab/iot_link/network/dtls/mbedtls/mbedtls-2.16.2/include/mbedtls\ssl_internal.h ****  *                  memory
 524:C:/Users/dtjld/workspace/AIoT/src/LiteOS_Lab/iot_link/network/dtls/mbedtls/mbedtls-2.16.2/include/mbedtls\ssl_internal.h ****  *
 525:C:/Users/dtjld/workspace/AIoT/src/LiteOS_Lab/iot_link/network/dtls/mbedtls/mbedtls-2.16.2/include/mbedtls\ssl_internal.h ****  * \param ssl       SSL context
 526:C:/Users/dtjld/workspace/AIoT/src/LiteOS_Lab/iot_link/network/dtls/mbedtls/mbedtls-2.16.2/include/mbedtls\ssl_internal.h ****  */
 527:C:/Users/dtjld/workspace/AIoT/src/LiteOS_Lab/iot_link/network/dtls/mbedtls/mbedtls-2.16.2/include/mbedtls\ssl_internal.h **** void mbedtls_ssl_handshake_free( mbedtls_ssl_context *ssl );
 528:C:/Users/dtjld/workspace/AIoT/src/LiteOS_Lab/iot_link/network/dtls/mbedtls/mbedtls-2.16.2/include/mbedtls\ssl_internal.h **** 
 529:C:/Users/dtjld/workspace/AIoT/src/LiteOS_Lab/iot_link/network/dtls/mbedtls/mbedtls-2.16.2/include/mbedtls\ssl_internal.h **** int mbedtls_ssl_handshake_client_step( mbedtls_ssl_context *ssl );
 530:C:/Users/dtjld/workspace/AIoT/src/LiteOS_Lab/iot_link/network/dtls/mbedtls/mbedtls-2.16.2/include/mbedtls\ssl_internal.h **** int mbedtls_ssl_handshake_server_step( mbedtls_ssl_context *ssl );
 531:C:/Users/dtjld/workspace/AIoT/src/LiteOS_Lab/iot_link/network/dtls/mbedtls/mbedtls-2.16.2/include/mbedtls\ssl_internal.h **** void mbedtls_ssl_handshake_wrapup( mbedtls_ssl_context *ssl );
 532:C:/Users/dtjld/workspace/AIoT/src/LiteOS_Lab/iot_link/network/dtls/mbedtls/mbedtls-2.16.2/include/mbedtls\ssl_internal.h **** 
 533:C:/Users/dtjld/workspace/AIoT/src/LiteOS_Lab/iot_link/network/dtls/mbedtls/mbedtls-2.16.2/include/mbedtls\ssl_internal.h **** int mbedtls_ssl_send_fatal_handshake_failure( mbedtls_ssl_context *ssl );
 534:C:/Users/dtjld/workspace/AIoT/src/LiteOS_Lab/iot_link/network/dtls/mbedtls/mbedtls-2.16.2/include/mbedtls\ssl_internal.h **** 
 535:C:/Users/dtjld/workspace/AIoT/src/LiteOS_Lab/iot_link/network/dtls/mbedtls/mbedtls-2.16.2/include/mbedtls\ssl_internal.h **** void mbedtls_ssl_reset_checksum( mbedtls_ssl_context *ssl );
 536:C:/Users/dtjld/workspace/AIoT/src/LiteOS_Lab/iot_link/network/dtls/mbedtls/mbedtls-2.16.2/include/mbedtls\ssl_internal.h **** int mbedtls_ssl_derive_keys( mbedtls_ssl_context *ssl );
 537:C:/Users/dtjld/workspace/AIoT/src/LiteOS_Lab/iot_link/network/dtls/mbedtls/mbedtls-2.16.2/include/mbedtls\ssl_internal.h **** 
 538:C:/Users/dtjld/workspace/AIoT/src/LiteOS_Lab/iot_link/network/dtls/mbedtls/mbedtls-2.16.2/include/mbedtls\ssl_internal.h **** int mbedtls_ssl_handle_message_type( mbedtls_ssl_context *ssl );
 539:C:/Users/dtjld/workspace/AIoT/src/LiteOS_Lab/iot_link/network/dtls/mbedtls/mbedtls-2.16.2/include/mbedtls\ssl_internal.h **** int mbedtls_ssl_prepare_handshake_record( mbedtls_ssl_context *ssl );
 540:C:/Users/dtjld/workspace/AIoT/src/LiteOS_Lab/iot_link/network/dtls/mbedtls/mbedtls-2.16.2/include/mbedtls\ssl_internal.h **** void mbedtls_ssl_update_handshake_status( mbedtls_ssl_context *ssl );
 541:C:/Users/dtjld/workspace/AIoT/src/LiteOS_Lab/iot_link/network/dtls/mbedtls/mbedtls-2.16.2/include/mbedtls\ssl_internal.h **** 
 542:C:/Users/dtjld/workspace/AIoT/src/LiteOS_Lab/iot_link/network/dtls/mbedtls/mbedtls-2.16.2/include/mbedtls\ssl_internal.h **** /**
 543:C:/Users/dtjld/workspace/AIoT/src/LiteOS_Lab/iot_link/network/dtls/mbedtls/mbedtls-2.16.2/include/mbedtls\ssl_internal.h ****  * \brief       Update record layer
 544:C:/Users/dtjld/workspace/AIoT/src/LiteOS_Lab/iot_link/network/dtls/mbedtls/mbedtls-2.16.2/include/mbedtls\ssl_internal.h ****  *
 545:C:/Users/dtjld/workspace/AIoT/src/LiteOS_Lab/iot_link/network/dtls/mbedtls/mbedtls-2.16.2/include/mbedtls\ssl_internal.h ****  *              This function roughly separates the implementation
ARM GAS  C:\Users\dtjld\AppData\Local\Temp\cc0z6O28.s 			page 11


 546:C:/Users/dtjld/workspace/AIoT/src/LiteOS_Lab/iot_link/network/dtls/mbedtls/mbedtls-2.16.2/include/mbedtls\ssl_internal.h ****  *              of the logic of (D)TLS from the implementation
 547:C:/Users/dtjld/workspace/AIoT/src/LiteOS_Lab/iot_link/network/dtls/mbedtls/mbedtls-2.16.2/include/mbedtls\ssl_internal.h ****  *              of the secure transport.
 548:C:/Users/dtjld/workspace/AIoT/src/LiteOS_Lab/iot_link/network/dtls/mbedtls/mbedtls-2.16.2/include/mbedtls\ssl_internal.h ****  *
 549:C:/Users/dtjld/workspace/AIoT/src/LiteOS_Lab/iot_link/network/dtls/mbedtls/mbedtls-2.16.2/include/mbedtls\ssl_internal.h ****  * \param  ssl              The SSL context to use.
 550:C:/Users/dtjld/workspace/AIoT/src/LiteOS_Lab/iot_link/network/dtls/mbedtls/mbedtls-2.16.2/include/mbedtls\ssl_internal.h ****  * \param  update_hs_digest This indicates if the handshake digest
 551:C:/Users/dtjld/workspace/AIoT/src/LiteOS_Lab/iot_link/network/dtls/mbedtls/mbedtls-2.16.2/include/mbedtls\ssl_internal.h ****  *                          should be automatically updated in case
 552:C:/Users/dtjld/workspace/AIoT/src/LiteOS_Lab/iot_link/network/dtls/mbedtls/mbedtls-2.16.2/include/mbedtls\ssl_internal.h ****  *                          a handshake message is found.
 553:C:/Users/dtjld/workspace/AIoT/src/LiteOS_Lab/iot_link/network/dtls/mbedtls/mbedtls-2.16.2/include/mbedtls\ssl_internal.h ****  *
 554:C:/Users/dtjld/workspace/AIoT/src/LiteOS_Lab/iot_link/network/dtls/mbedtls/mbedtls-2.16.2/include/mbedtls\ssl_internal.h ****  * \return      0 or non-zero error code.
 555:C:/Users/dtjld/workspace/AIoT/src/LiteOS_Lab/iot_link/network/dtls/mbedtls/mbedtls-2.16.2/include/mbedtls\ssl_internal.h ****  *
 556:C:/Users/dtjld/workspace/AIoT/src/LiteOS_Lab/iot_link/network/dtls/mbedtls/mbedtls-2.16.2/include/mbedtls\ssl_internal.h ****  * \note        A clarification on what is called 'record layer' here
 557:C:/Users/dtjld/workspace/AIoT/src/LiteOS_Lab/iot_link/network/dtls/mbedtls/mbedtls-2.16.2/include/mbedtls\ssl_internal.h ****  *              is in order, as many sensible definitions are possible:
 558:C:/Users/dtjld/workspace/AIoT/src/LiteOS_Lab/iot_link/network/dtls/mbedtls/mbedtls-2.16.2/include/mbedtls\ssl_internal.h ****  *
 559:C:/Users/dtjld/workspace/AIoT/src/LiteOS_Lab/iot_link/network/dtls/mbedtls/mbedtls-2.16.2/include/mbedtls\ssl_internal.h ****  *              The record layer takes as input an untrusted underlying
 560:C:/Users/dtjld/workspace/AIoT/src/LiteOS_Lab/iot_link/network/dtls/mbedtls/mbedtls-2.16.2/include/mbedtls\ssl_internal.h ****  *              transport (stream or datagram) and transforms it into
 561:C:/Users/dtjld/workspace/AIoT/src/LiteOS_Lab/iot_link/network/dtls/mbedtls/mbedtls-2.16.2/include/mbedtls\ssl_internal.h ****  *              a serially multiplexed, secure transport, which
 562:C:/Users/dtjld/workspace/AIoT/src/LiteOS_Lab/iot_link/network/dtls/mbedtls/mbedtls-2.16.2/include/mbedtls\ssl_internal.h ****  *              conceptually provides the following:
 563:C:/Users/dtjld/workspace/AIoT/src/LiteOS_Lab/iot_link/network/dtls/mbedtls/mbedtls-2.16.2/include/mbedtls\ssl_internal.h ****  *
 564:C:/Users/dtjld/workspace/AIoT/src/LiteOS_Lab/iot_link/network/dtls/mbedtls/mbedtls-2.16.2/include/mbedtls\ssl_internal.h ****  *              (1) Three datagram based, content-agnostic transports
 565:C:/Users/dtjld/workspace/AIoT/src/LiteOS_Lab/iot_link/network/dtls/mbedtls/mbedtls-2.16.2/include/mbedtls\ssl_internal.h ****  *                  for handshake, alert and CCS messages.
 566:C:/Users/dtjld/workspace/AIoT/src/LiteOS_Lab/iot_link/network/dtls/mbedtls/mbedtls-2.16.2/include/mbedtls\ssl_internal.h ****  *              (2) One stream- or datagram-based transport
 567:C:/Users/dtjld/workspace/AIoT/src/LiteOS_Lab/iot_link/network/dtls/mbedtls/mbedtls-2.16.2/include/mbedtls\ssl_internal.h ****  *                  for application data.
 568:C:/Users/dtjld/workspace/AIoT/src/LiteOS_Lab/iot_link/network/dtls/mbedtls/mbedtls-2.16.2/include/mbedtls\ssl_internal.h ****  *              (3) Functionality for changing the underlying transform
 569:C:/Users/dtjld/workspace/AIoT/src/LiteOS_Lab/iot_link/network/dtls/mbedtls/mbedtls-2.16.2/include/mbedtls\ssl_internal.h ****  *                  securing the contents.
 570:C:/Users/dtjld/workspace/AIoT/src/LiteOS_Lab/iot_link/network/dtls/mbedtls/mbedtls-2.16.2/include/mbedtls\ssl_internal.h ****  *
 571:C:/Users/dtjld/workspace/AIoT/src/LiteOS_Lab/iot_link/network/dtls/mbedtls/mbedtls-2.16.2/include/mbedtls\ssl_internal.h ****  *              The interface to this functionality is given as follows:
 572:C:/Users/dtjld/workspace/AIoT/src/LiteOS_Lab/iot_link/network/dtls/mbedtls/mbedtls-2.16.2/include/mbedtls\ssl_internal.h ****  *
 573:C:/Users/dtjld/workspace/AIoT/src/LiteOS_Lab/iot_link/network/dtls/mbedtls/mbedtls-2.16.2/include/mbedtls\ssl_internal.h ****  *              a Updating
 574:C:/Users/dtjld/workspace/AIoT/src/LiteOS_Lab/iot_link/network/dtls/mbedtls/mbedtls-2.16.2/include/mbedtls\ssl_internal.h ****  *                [Currently implemented by mbedtls_ssl_read_record]
 575:C:/Users/dtjld/workspace/AIoT/src/LiteOS_Lab/iot_link/network/dtls/mbedtls/mbedtls-2.16.2/include/mbedtls\ssl_internal.h ****  *
 576:C:/Users/dtjld/workspace/AIoT/src/LiteOS_Lab/iot_link/network/dtls/mbedtls/mbedtls-2.16.2/include/mbedtls\ssl_internal.h ****  *                Check if and on which of the four 'ports' data is pending:
 577:C:/Users/dtjld/workspace/AIoT/src/LiteOS_Lab/iot_link/network/dtls/mbedtls/mbedtls-2.16.2/include/mbedtls\ssl_internal.h ****  *                Nothing, a controlling datagram of type (1), or application
 578:C:/Users/dtjld/workspace/AIoT/src/LiteOS_Lab/iot_link/network/dtls/mbedtls/mbedtls-2.16.2/include/mbedtls\ssl_internal.h ****  *                data (2). In any case data is present, internal buffers
 579:C:/Users/dtjld/workspace/AIoT/src/LiteOS_Lab/iot_link/network/dtls/mbedtls/mbedtls-2.16.2/include/mbedtls\ssl_internal.h ****  *                provide access to the data for the user to process it.
 580:C:/Users/dtjld/workspace/AIoT/src/LiteOS_Lab/iot_link/network/dtls/mbedtls/mbedtls-2.16.2/include/mbedtls\ssl_internal.h ****  *                Consumption of type (1) datagrams is done automatically
 581:C:/Users/dtjld/workspace/AIoT/src/LiteOS_Lab/iot_link/network/dtls/mbedtls/mbedtls-2.16.2/include/mbedtls\ssl_internal.h ****  *                on the next update, invalidating that the internal buffers
 582:C:/Users/dtjld/workspace/AIoT/src/LiteOS_Lab/iot_link/network/dtls/mbedtls/mbedtls-2.16.2/include/mbedtls\ssl_internal.h ****  *                for previous datagrams, while consumption of application
 583:C:/Users/dtjld/workspace/AIoT/src/LiteOS_Lab/iot_link/network/dtls/mbedtls/mbedtls-2.16.2/include/mbedtls\ssl_internal.h ****  *                data (2) is user-controlled.
 584:C:/Users/dtjld/workspace/AIoT/src/LiteOS_Lab/iot_link/network/dtls/mbedtls/mbedtls-2.16.2/include/mbedtls\ssl_internal.h ****  *
 585:C:/Users/dtjld/workspace/AIoT/src/LiteOS_Lab/iot_link/network/dtls/mbedtls/mbedtls-2.16.2/include/mbedtls\ssl_internal.h ****  *              b Reading of application data
 586:C:/Users/dtjld/workspace/AIoT/src/LiteOS_Lab/iot_link/network/dtls/mbedtls/mbedtls-2.16.2/include/mbedtls\ssl_internal.h ****  *                [Currently manual adaption of ssl->in_offt pointer]
 587:C:/Users/dtjld/workspace/AIoT/src/LiteOS_Lab/iot_link/network/dtls/mbedtls/mbedtls-2.16.2/include/mbedtls\ssl_internal.h ****  *
 588:C:/Users/dtjld/workspace/AIoT/src/LiteOS_Lab/iot_link/network/dtls/mbedtls/mbedtls-2.16.2/include/mbedtls\ssl_internal.h ****  *                As mentioned in the last paragraph, consumption of data
 589:C:/Users/dtjld/workspace/AIoT/src/LiteOS_Lab/iot_link/network/dtls/mbedtls/mbedtls-2.16.2/include/mbedtls\ssl_internal.h ****  *                is different from the automatic consumption of control
 590:C:/Users/dtjld/workspace/AIoT/src/LiteOS_Lab/iot_link/network/dtls/mbedtls/mbedtls-2.16.2/include/mbedtls\ssl_internal.h ****  *                datagrams (1) because application data is treated as a stream.
 591:C:/Users/dtjld/workspace/AIoT/src/LiteOS_Lab/iot_link/network/dtls/mbedtls/mbedtls-2.16.2/include/mbedtls\ssl_internal.h ****  *
 592:C:/Users/dtjld/workspace/AIoT/src/LiteOS_Lab/iot_link/network/dtls/mbedtls/mbedtls-2.16.2/include/mbedtls\ssl_internal.h ****  *              c Tracking availability of application data
 593:C:/Users/dtjld/workspace/AIoT/src/LiteOS_Lab/iot_link/network/dtls/mbedtls/mbedtls-2.16.2/include/mbedtls\ssl_internal.h ****  *                [Currently manually through decreasing ssl->in_msglen]
 594:C:/Users/dtjld/workspace/AIoT/src/LiteOS_Lab/iot_link/network/dtls/mbedtls/mbedtls-2.16.2/include/mbedtls\ssl_internal.h ****  *
 595:C:/Users/dtjld/workspace/AIoT/src/LiteOS_Lab/iot_link/network/dtls/mbedtls/mbedtls-2.16.2/include/mbedtls\ssl_internal.h ****  *                For efficiency and to retain datagram semantics for
 596:C:/Users/dtjld/workspace/AIoT/src/LiteOS_Lab/iot_link/network/dtls/mbedtls/mbedtls-2.16.2/include/mbedtls\ssl_internal.h ****  *                application data in case of DTLS, the record layer
 597:C:/Users/dtjld/workspace/AIoT/src/LiteOS_Lab/iot_link/network/dtls/mbedtls/mbedtls-2.16.2/include/mbedtls\ssl_internal.h ****  *                provides functionality for checking how much application
 598:C:/Users/dtjld/workspace/AIoT/src/LiteOS_Lab/iot_link/network/dtls/mbedtls/mbedtls-2.16.2/include/mbedtls\ssl_internal.h ****  *                data is still available in the internal buffer.
 599:C:/Users/dtjld/workspace/AIoT/src/LiteOS_Lab/iot_link/network/dtls/mbedtls/mbedtls-2.16.2/include/mbedtls\ssl_internal.h ****  *
 600:C:/Users/dtjld/workspace/AIoT/src/LiteOS_Lab/iot_link/network/dtls/mbedtls/mbedtls-2.16.2/include/mbedtls\ssl_internal.h ****  *              d Changing the transformation securing the communication.
 601:C:/Users/dtjld/workspace/AIoT/src/LiteOS_Lab/iot_link/network/dtls/mbedtls/mbedtls-2.16.2/include/mbedtls\ssl_internal.h ****  *
 602:C:/Users/dtjld/workspace/AIoT/src/LiteOS_Lab/iot_link/network/dtls/mbedtls/mbedtls-2.16.2/include/mbedtls\ssl_internal.h ****  *              Given an opaque implementation of the record layer in the
ARM GAS  C:\Users\dtjld\AppData\Local\Temp\cc0z6O28.s 			page 12


 603:C:/Users/dtjld/workspace/AIoT/src/LiteOS_Lab/iot_link/network/dtls/mbedtls/mbedtls-2.16.2/include/mbedtls\ssl_internal.h ****  *              above sense, it should be possible to implement the logic
 604:C:/Users/dtjld/workspace/AIoT/src/LiteOS_Lab/iot_link/network/dtls/mbedtls/mbedtls-2.16.2/include/mbedtls\ssl_internal.h ****  *              of (D)TLS on top of it without the need to know anything
 605:C:/Users/dtjld/workspace/AIoT/src/LiteOS_Lab/iot_link/network/dtls/mbedtls/mbedtls-2.16.2/include/mbedtls\ssl_internal.h ****  *              about the record layer's internals. This is done e.g.
 606:C:/Users/dtjld/workspace/AIoT/src/LiteOS_Lab/iot_link/network/dtls/mbedtls/mbedtls-2.16.2/include/mbedtls\ssl_internal.h ****  *              in all the handshake handling functions, and in the
 607:C:/Users/dtjld/workspace/AIoT/src/LiteOS_Lab/iot_link/network/dtls/mbedtls/mbedtls-2.16.2/include/mbedtls\ssl_internal.h ****  *              application data reading function mbedtls_ssl_read.
 608:C:/Users/dtjld/workspace/AIoT/src/LiteOS_Lab/iot_link/network/dtls/mbedtls/mbedtls-2.16.2/include/mbedtls\ssl_internal.h ****  *
 609:C:/Users/dtjld/workspace/AIoT/src/LiteOS_Lab/iot_link/network/dtls/mbedtls/mbedtls-2.16.2/include/mbedtls\ssl_internal.h ****  * \note        The above tries to give a conceptual picture of the
 610:C:/Users/dtjld/workspace/AIoT/src/LiteOS_Lab/iot_link/network/dtls/mbedtls/mbedtls-2.16.2/include/mbedtls\ssl_internal.h ****  *              record layer, but the current implementation deviates
 611:C:/Users/dtjld/workspace/AIoT/src/LiteOS_Lab/iot_link/network/dtls/mbedtls/mbedtls-2.16.2/include/mbedtls\ssl_internal.h ****  *              from it in some places. For example, our implementation of
 612:C:/Users/dtjld/workspace/AIoT/src/LiteOS_Lab/iot_link/network/dtls/mbedtls/mbedtls-2.16.2/include/mbedtls\ssl_internal.h ****  *              the update functionality through mbedtls_ssl_read_record
 613:C:/Users/dtjld/workspace/AIoT/src/LiteOS_Lab/iot_link/network/dtls/mbedtls/mbedtls-2.16.2/include/mbedtls\ssl_internal.h ****  *              discards datagrams depending on the current state, which
 614:C:/Users/dtjld/workspace/AIoT/src/LiteOS_Lab/iot_link/network/dtls/mbedtls/mbedtls-2.16.2/include/mbedtls\ssl_internal.h ****  *              wouldn't fall under the record layer's responsibility
 615:C:/Users/dtjld/workspace/AIoT/src/LiteOS_Lab/iot_link/network/dtls/mbedtls/mbedtls-2.16.2/include/mbedtls\ssl_internal.h ****  *              following the above definition.
 616:C:/Users/dtjld/workspace/AIoT/src/LiteOS_Lab/iot_link/network/dtls/mbedtls/mbedtls-2.16.2/include/mbedtls\ssl_internal.h ****  *
 617:C:/Users/dtjld/workspace/AIoT/src/LiteOS_Lab/iot_link/network/dtls/mbedtls/mbedtls-2.16.2/include/mbedtls\ssl_internal.h ****  */
 618:C:/Users/dtjld/workspace/AIoT/src/LiteOS_Lab/iot_link/network/dtls/mbedtls/mbedtls-2.16.2/include/mbedtls\ssl_internal.h **** int mbedtls_ssl_read_record( mbedtls_ssl_context *ssl,
 619:C:/Users/dtjld/workspace/AIoT/src/LiteOS_Lab/iot_link/network/dtls/mbedtls/mbedtls-2.16.2/include/mbedtls\ssl_internal.h ****                              unsigned update_hs_digest );
 620:C:/Users/dtjld/workspace/AIoT/src/LiteOS_Lab/iot_link/network/dtls/mbedtls/mbedtls-2.16.2/include/mbedtls\ssl_internal.h **** int mbedtls_ssl_fetch_input( mbedtls_ssl_context *ssl, size_t nb_want );
 621:C:/Users/dtjld/workspace/AIoT/src/LiteOS_Lab/iot_link/network/dtls/mbedtls/mbedtls-2.16.2/include/mbedtls\ssl_internal.h **** 
 622:C:/Users/dtjld/workspace/AIoT/src/LiteOS_Lab/iot_link/network/dtls/mbedtls/mbedtls-2.16.2/include/mbedtls\ssl_internal.h **** int mbedtls_ssl_write_handshake_msg( mbedtls_ssl_context *ssl );
 623:C:/Users/dtjld/workspace/AIoT/src/LiteOS_Lab/iot_link/network/dtls/mbedtls/mbedtls-2.16.2/include/mbedtls\ssl_internal.h **** int mbedtls_ssl_write_record( mbedtls_ssl_context *ssl, uint8_t force_flush );
 624:C:/Users/dtjld/workspace/AIoT/src/LiteOS_Lab/iot_link/network/dtls/mbedtls/mbedtls-2.16.2/include/mbedtls\ssl_internal.h **** int mbedtls_ssl_flush_output( mbedtls_ssl_context *ssl );
 625:C:/Users/dtjld/workspace/AIoT/src/LiteOS_Lab/iot_link/network/dtls/mbedtls/mbedtls-2.16.2/include/mbedtls\ssl_internal.h **** 
 626:C:/Users/dtjld/workspace/AIoT/src/LiteOS_Lab/iot_link/network/dtls/mbedtls/mbedtls-2.16.2/include/mbedtls\ssl_internal.h **** int mbedtls_ssl_parse_certificate( mbedtls_ssl_context *ssl );
 627:C:/Users/dtjld/workspace/AIoT/src/LiteOS_Lab/iot_link/network/dtls/mbedtls/mbedtls-2.16.2/include/mbedtls\ssl_internal.h **** int mbedtls_ssl_write_certificate( mbedtls_ssl_context *ssl );
 628:C:/Users/dtjld/workspace/AIoT/src/LiteOS_Lab/iot_link/network/dtls/mbedtls/mbedtls-2.16.2/include/mbedtls\ssl_internal.h **** 
 629:C:/Users/dtjld/workspace/AIoT/src/LiteOS_Lab/iot_link/network/dtls/mbedtls/mbedtls-2.16.2/include/mbedtls\ssl_internal.h **** int mbedtls_ssl_parse_change_cipher_spec( mbedtls_ssl_context *ssl );
 630:C:/Users/dtjld/workspace/AIoT/src/LiteOS_Lab/iot_link/network/dtls/mbedtls/mbedtls-2.16.2/include/mbedtls\ssl_internal.h **** int mbedtls_ssl_write_change_cipher_spec( mbedtls_ssl_context *ssl );
 631:C:/Users/dtjld/workspace/AIoT/src/LiteOS_Lab/iot_link/network/dtls/mbedtls/mbedtls-2.16.2/include/mbedtls\ssl_internal.h **** 
 632:C:/Users/dtjld/workspace/AIoT/src/LiteOS_Lab/iot_link/network/dtls/mbedtls/mbedtls-2.16.2/include/mbedtls\ssl_internal.h **** int mbedtls_ssl_parse_finished( mbedtls_ssl_context *ssl );
 633:C:/Users/dtjld/workspace/AIoT/src/LiteOS_Lab/iot_link/network/dtls/mbedtls/mbedtls-2.16.2/include/mbedtls\ssl_internal.h **** int mbedtls_ssl_write_finished( mbedtls_ssl_context *ssl );
 634:C:/Users/dtjld/workspace/AIoT/src/LiteOS_Lab/iot_link/network/dtls/mbedtls/mbedtls-2.16.2/include/mbedtls\ssl_internal.h **** 
 635:C:/Users/dtjld/workspace/AIoT/src/LiteOS_Lab/iot_link/network/dtls/mbedtls/mbedtls-2.16.2/include/mbedtls\ssl_internal.h **** void mbedtls_ssl_optimize_checksum( mbedtls_ssl_context *ssl,
 636:C:/Users/dtjld/workspace/AIoT/src/LiteOS_Lab/iot_link/network/dtls/mbedtls/mbedtls-2.16.2/include/mbedtls\ssl_internal.h ****                             const mbedtls_ssl_ciphersuite_t *ciphersuite_info );
 637:C:/Users/dtjld/workspace/AIoT/src/LiteOS_Lab/iot_link/network/dtls/mbedtls/mbedtls-2.16.2/include/mbedtls\ssl_internal.h **** 
 638:C:/Users/dtjld/workspace/AIoT/src/LiteOS_Lab/iot_link/network/dtls/mbedtls/mbedtls-2.16.2/include/mbedtls\ssl_internal.h **** #if defined(MBEDTLS_KEY_EXCHANGE__SOME__PSK_ENABLED)
 639:C:/Users/dtjld/workspace/AIoT/src/LiteOS_Lab/iot_link/network/dtls/mbedtls/mbedtls-2.16.2/include/mbedtls\ssl_internal.h **** int mbedtls_ssl_psk_derive_premaster( mbedtls_ssl_context *ssl, mbedtls_key_exchange_type_t key_ex 
 640:C:/Users/dtjld/workspace/AIoT/src/LiteOS_Lab/iot_link/network/dtls/mbedtls/mbedtls-2.16.2/include/mbedtls\ssl_internal.h **** #endif
 641:C:/Users/dtjld/workspace/AIoT/src/LiteOS_Lab/iot_link/network/dtls/mbedtls/mbedtls-2.16.2/include/mbedtls\ssl_internal.h **** 
 642:C:/Users/dtjld/workspace/AIoT/src/LiteOS_Lab/iot_link/network/dtls/mbedtls/mbedtls-2.16.2/include/mbedtls\ssl_internal.h **** #if defined(MBEDTLS_PK_C)
 643:C:/Users/dtjld/workspace/AIoT/src/LiteOS_Lab/iot_link/network/dtls/mbedtls/mbedtls-2.16.2/include/mbedtls\ssl_internal.h **** unsigned char mbedtls_ssl_sig_from_pk( mbedtls_pk_context *pk );
 644:C:/Users/dtjld/workspace/AIoT/src/LiteOS_Lab/iot_link/network/dtls/mbedtls/mbedtls-2.16.2/include/mbedtls\ssl_internal.h **** unsigned char mbedtls_ssl_sig_from_pk_alg( mbedtls_pk_type_t type );
 645:C:/Users/dtjld/workspace/AIoT/src/LiteOS_Lab/iot_link/network/dtls/mbedtls/mbedtls-2.16.2/include/mbedtls\ssl_internal.h **** mbedtls_pk_type_t mbedtls_ssl_pk_alg_from_sig( unsigned char sig );
 646:C:/Users/dtjld/workspace/AIoT/src/LiteOS_Lab/iot_link/network/dtls/mbedtls/mbedtls-2.16.2/include/mbedtls\ssl_internal.h **** #endif
 647:C:/Users/dtjld/workspace/AIoT/src/LiteOS_Lab/iot_link/network/dtls/mbedtls/mbedtls-2.16.2/include/mbedtls\ssl_internal.h **** 
 648:C:/Users/dtjld/workspace/AIoT/src/LiteOS_Lab/iot_link/network/dtls/mbedtls/mbedtls-2.16.2/include/mbedtls\ssl_internal.h **** mbedtls_md_type_t mbedtls_ssl_md_alg_from_hash( unsigned char hash );
 649:C:/Users/dtjld/workspace/AIoT/src/LiteOS_Lab/iot_link/network/dtls/mbedtls/mbedtls-2.16.2/include/mbedtls\ssl_internal.h **** unsigned char mbedtls_ssl_hash_from_md_alg( int md );
 650:C:/Users/dtjld/workspace/AIoT/src/LiteOS_Lab/iot_link/network/dtls/mbedtls/mbedtls-2.16.2/include/mbedtls\ssl_internal.h **** int mbedtls_ssl_set_calc_verify_md( mbedtls_ssl_context *ssl, int md );
 651:C:/Users/dtjld/workspace/AIoT/src/LiteOS_Lab/iot_link/network/dtls/mbedtls/mbedtls-2.16.2/include/mbedtls\ssl_internal.h **** 
 652:C:/Users/dtjld/workspace/AIoT/src/LiteOS_Lab/iot_link/network/dtls/mbedtls/mbedtls-2.16.2/include/mbedtls\ssl_internal.h **** #if defined(MBEDTLS_ECP_C)
 653:C:/Users/dtjld/workspace/AIoT/src/LiteOS_Lab/iot_link/network/dtls/mbedtls/mbedtls-2.16.2/include/mbedtls\ssl_internal.h **** int mbedtls_ssl_check_curve( const mbedtls_ssl_context *ssl, mbedtls_ecp_group_id grp_id );
 654:C:/Users/dtjld/workspace/AIoT/src/LiteOS_Lab/iot_link/network/dtls/mbedtls/mbedtls-2.16.2/include/mbedtls\ssl_internal.h **** #endif
 655:C:/Users/dtjld/workspace/AIoT/src/LiteOS_Lab/iot_link/network/dtls/mbedtls/mbedtls-2.16.2/include/mbedtls\ssl_internal.h **** 
 656:C:/Users/dtjld/workspace/AIoT/src/LiteOS_Lab/iot_link/network/dtls/mbedtls/mbedtls-2.16.2/include/mbedtls\ssl_internal.h **** #if defined(MBEDTLS_KEY_EXCHANGE__WITH_CERT__ENABLED)
 657:C:/Users/dtjld/workspace/AIoT/src/LiteOS_Lab/iot_link/network/dtls/mbedtls/mbedtls-2.16.2/include/mbedtls\ssl_internal.h **** int mbedtls_ssl_check_sig_hash( const mbedtls_ssl_context *ssl,
 658:C:/Users/dtjld/workspace/AIoT/src/LiteOS_Lab/iot_link/network/dtls/mbedtls/mbedtls-2.16.2/include/mbedtls\ssl_internal.h ****                                 mbedtls_md_type_t md );
 659:C:/Users/dtjld/workspace/AIoT/src/LiteOS_Lab/iot_link/network/dtls/mbedtls/mbedtls-2.16.2/include/mbedtls\ssl_internal.h **** #endif
ARM GAS  C:\Users\dtjld\AppData\Local\Temp\cc0z6O28.s 			page 13


 660:C:/Users/dtjld/workspace/AIoT/src/LiteOS_Lab/iot_link/network/dtls/mbedtls/mbedtls-2.16.2/include/mbedtls\ssl_internal.h **** 
 661:C:/Users/dtjld/workspace/AIoT/src/LiteOS_Lab/iot_link/network/dtls/mbedtls/mbedtls-2.16.2/include/mbedtls\ssl_internal.h **** #if defined(MBEDTLS_X509_CRT_PARSE_C)
 662:C:/Users/dtjld/workspace/AIoT/src/LiteOS_Lab/iot_link/network/dtls/mbedtls/mbedtls-2.16.2/include/mbedtls\ssl_internal.h **** static inline mbedtls_pk_context *mbedtls_ssl_own_key( mbedtls_ssl_context *ssl )
 663:C:/Users/dtjld/workspace/AIoT/src/LiteOS_Lab/iot_link/network/dtls/mbedtls/mbedtls-2.16.2/include/mbedtls\ssl_internal.h **** {
 664:C:/Users/dtjld/workspace/AIoT/src/LiteOS_Lab/iot_link/network/dtls/mbedtls/mbedtls-2.16.2/include/mbedtls\ssl_internal.h ****     mbedtls_ssl_key_cert *key_cert;
 665:C:/Users/dtjld/workspace/AIoT/src/LiteOS_Lab/iot_link/network/dtls/mbedtls/mbedtls-2.16.2/include/mbedtls\ssl_internal.h **** 
 666:C:/Users/dtjld/workspace/AIoT/src/LiteOS_Lab/iot_link/network/dtls/mbedtls/mbedtls-2.16.2/include/mbedtls\ssl_internal.h ****     if( ssl->handshake != NULL && ssl->handshake->key_cert != NULL )
 667:C:/Users/dtjld/workspace/AIoT/src/LiteOS_Lab/iot_link/network/dtls/mbedtls/mbedtls-2.16.2/include/mbedtls\ssl_internal.h ****         key_cert = ssl->handshake->key_cert;
 668:C:/Users/dtjld/workspace/AIoT/src/LiteOS_Lab/iot_link/network/dtls/mbedtls/mbedtls-2.16.2/include/mbedtls\ssl_internal.h ****     else
 669:C:/Users/dtjld/workspace/AIoT/src/LiteOS_Lab/iot_link/network/dtls/mbedtls/mbedtls-2.16.2/include/mbedtls\ssl_internal.h ****         key_cert = ssl->conf->key_cert;
 670:C:/Users/dtjld/workspace/AIoT/src/LiteOS_Lab/iot_link/network/dtls/mbedtls/mbedtls-2.16.2/include/mbedtls\ssl_internal.h **** 
 671:C:/Users/dtjld/workspace/AIoT/src/LiteOS_Lab/iot_link/network/dtls/mbedtls/mbedtls-2.16.2/include/mbedtls\ssl_internal.h ****     return( key_cert == NULL ? NULL : key_cert->key );
 672:C:/Users/dtjld/workspace/AIoT/src/LiteOS_Lab/iot_link/network/dtls/mbedtls/mbedtls-2.16.2/include/mbedtls\ssl_internal.h **** }
 673:C:/Users/dtjld/workspace/AIoT/src/LiteOS_Lab/iot_link/network/dtls/mbedtls/mbedtls-2.16.2/include/mbedtls\ssl_internal.h **** 
 674:C:/Users/dtjld/workspace/AIoT/src/LiteOS_Lab/iot_link/network/dtls/mbedtls/mbedtls-2.16.2/include/mbedtls\ssl_internal.h **** static inline mbedtls_x509_crt *mbedtls_ssl_own_cert( mbedtls_ssl_context *ssl )
 675:C:/Users/dtjld/workspace/AIoT/src/LiteOS_Lab/iot_link/network/dtls/mbedtls/mbedtls-2.16.2/include/mbedtls\ssl_internal.h **** {
 676:C:/Users/dtjld/workspace/AIoT/src/LiteOS_Lab/iot_link/network/dtls/mbedtls/mbedtls-2.16.2/include/mbedtls\ssl_internal.h ****     mbedtls_ssl_key_cert *key_cert;
 677:C:/Users/dtjld/workspace/AIoT/src/LiteOS_Lab/iot_link/network/dtls/mbedtls/mbedtls-2.16.2/include/mbedtls\ssl_internal.h **** 
 678:C:/Users/dtjld/workspace/AIoT/src/LiteOS_Lab/iot_link/network/dtls/mbedtls/mbedtls-2.16.2/include/mbedtls\ssl_internal.h ****     if( ssl->handshake != NULL && ssl->handshake->key_cert != NULL )
 679:C:/Users/dtjld/workspace/AIoT/src/LiteOS_Lab/iot_link/network/dtls/mbedtls/mbedtls-2.16.2/include/mbedtls\ssl_internal.h ****         key_cert = ssl->handshake->key_cert;
 680:C:/Users/dtjld/workspace/AIoT/src/LiteOS_Lab/iot_link/network/dtls/mbedtls/mbedtls-2.16.2/include/mbedtls\ssl_internal.h ****     else
 681:C:/Users/dtjld/workspace/AIoT/src/LiteOS_Lab/iot_link/network/dtls/mbedtls/mbedtls-2.16.2/include/mbedtls\ssl_internal.h ****         key_cert = ssl->conf->key_cert;
 682:C:/Users/dtjld/workspace/AIoT/src/LiteOS_Lab/iot_link/network/dtls/mbedtls/mbedtls-2.16.2/include/mbedtls\ssl_internal.h **** 
 683:C:/Users/dtjld/workspace/AIoT/src/LiteOS_Lab/iot_link/network/dtls/mbedtls/mbedtls-2.16.2/include/mbedtls\ssl_internal.h ****     return( key_cert == NULL ? NULL : key_cert->cert );
 684:C:/Users/dtjld/workspace/AIoT/src/LiteOS_Lab/iot_link/network/dtls/mbedtls/mbedtls-2.16.2/include/mbedtls\ssl_internal.h **** }
 685:C:/Users/dtjld/workspace/AIoT/src/LiteOS_Lab/iot_link/network/dtls/mbedtls/mbedtls-2.16.2/include/mbedtls\ssl_internal.h **** 
 686:C:/Users/dtjld/workspace/AIoT/src/LiteOS_Lab/iot_link/network/dtls/mbedtls/mbedtls-2.16.2/include/mbedtls\ssl_internal.h **** /*
 687:C:/Users/dtjld/workspace/AIoT/src/LiteOS_Lab/iot_link/network/dtls/mbedtls/mbedtls-2.16.2/include/mbedtls\ssl_internal.h ****  * Check usage of a certificate wrt extensions:
 688:C:/Users/dtjld/workspace/AIoT/src/LiteOS_Lab/iot_link/network/dtls/mbedtls/mbedtls-2.16.2/include/mbedtls\ssl_internal.h ****  * keyUsage, extendedKeyUsage (later), and nSCertType (later).
 689:C:/Users/dtjld/workspace/AIoT/src/LiteOS_Lab/iot_link/network/dtls/mbedtls/mbedtls-2.16.2/include/mbedtls\ssl_internal.h ****  *
 690:C:/Users/dtjld/workspace/AIoT/src/LiteOS_Lab/iot_link/network/dtls/mbedtls/mbedtls-2.16.2/include/mbedtls\ssl_internal.h ****  * Warning: cert_endpoint is the endpoint of the cert (ie, of our peer when we
 691:C:/Users/dtjld/workspace/AIoT/src/LiteOS_Lab/iot_link/network/dtls/mbedtls/mbedtls-2.16.2/include/mbedtls\ssl_internal.h ****  * check a cert we received from them)!
 692:C:/Users/dtjld/workspace/AIoT/src/LiteOS_Lab/iot_link/network/dtls/mbedtls/mbedtls-2.16.2/include/mbedtls\ssl_internal.h ****  *
 693:C:/Users/dtjld/workspace/AIoT/src/LiteOS_Lab/iot_link/network/dtls/mbedtls/mbedtls-2.16.2/include/mbedtls\ssl_internal.h ****  * Return 0 if everything is OK, -1 if not.
 694:C:/Users/dtjld/workspace/AIoT/src/LiteOS_Lab/iot_link/network/dtls/mbedtls/mbedtls-2.16.2/include/mbedtls\ssl_internal.h ****  */
 695:C:/Users/dtjld/workspace/AIoT/src/LiteOS_Lab/iot_link/network/dtls/mbedtls/mbedtls-2.16.2/include/mbedtls\ssl_internal.h **** int mbedtls_ssl_check_cert_usage( const mbedtls_x509_crt *cert,
 696:C:/Users/dtjld/workspace/AIoT/src/LiteOS_Lab/iot_link/network/dtls/mbedtls/mbedtls-2.16.2/include/mbedtls\ssl_internal.h ****                           const mbedtls_ssl_ciphersuite_t *ciphersuite,
 697:C:/Users/dtjld/workspace/AIoT/src/LiteOS_Lab/iot_link/network/dtls/mbedtls/mbedtls-2.16.2/include/mbedtls\ssl_internal.h ****                           int cert_endpoint,
 698:C:/Users/dtjld/workspace/AIoT/src/LiteOS_Lab/iot_link/network/dtls/mbedtls/mbedtls-2.16.2/include/mbedtls\ssl_internal.h ****                           uint32_t *flags );
 699:C:/Users/dtjld/workspace/AIoT/src/LiteOS_Lab/iot_link/network/dtls/mbedtls/mbedtls-2.16.2/include/mbedtls\ssl_internal.h **** #endif /* MBEDTLS_X509_CRT_PARSE_C */
 700:C:/Users/dtjld/workspace/AIoT/src/LiteOS_Lab/iot_link/network/dtls/mbedtls/mbedtls-2.16.2/include/mbedtls\ssl_internal.h **** 
 701:C:/Users/dtjld/workspace/AIoT/src/LiteOS_Lab/iot_link/network/dtls/mbedtls/mbedtls-2.16.2/include/mbedtls\ssl_internal.h **** void mbedtls_ssl_write_version( int major, int minor, int transport,
 702:C:/Users/dtjld/workspace/AIoT/src/LiteOS_Lab/iot_link/network/dtls/mbedtls/mbedtls-2.16.2/include/mbedtls\ssl_internal.h ****                         unsigned char ver[2] );
 703:C:/Users/dtjld/workspace/AIoT/src/LiteOS_Lab/iot_link/network/dtls/mbedtls/mbedtls-2.16.2/include/mbedtls\ssl_internal.h **** void mbedtls_ssl_read_version( int *major, int *minor, int transport,
 704:C:/Users/dtjld/workspace/AIoT/src/LiteOS_Lab/iot_link/network/dtls/mbedtls/mbedtls-2.16.2/include/mbedtls\ssl_internal.h ****                        const unsigned char ver[2] );
 705:C:/Users/dtjld/workspace/AIoT/src/LiteOS_Lab/iot_link/network/dtls/mbedtls/mbedtls-2.16.2/include/mbedtls\ssl_internal.h **** 
 706:C:/Users/dtjld/workspace/AIoT/src/LiteOS_Lab/iot_link/network/dtls/mbedtls/mbedtls-2.16.2/include/mbedtls\ssl_internal.h **** static inline size_t mbedtls_ssl_hdr_len( const mbedtls_ssl_context *ssl )
 707:C:/Users/dtjld/workspace/AIoT/src/LiteOS_Lab/iot_link/network/dtls/mbedtls/mbedtls-2.16.2/include/mbedtls\ssl_internal.h **** {
 708:C:/Users/dtjld/workspace/AIoT/src/LiteOS_Lab/iot_link/network/dtls/mbedtls/mbedtls-2.16.2/include/mbedtls\ssl_internal.h **** #if defined(MBEDTLS_SSL_PROTO_DTLS)
 709:C:/Users/dtjld/workspace/AIoT/src/LiteOS_Lab/iot_link/network/dtls/mbedtls/mbedtls-2.16.2/include/mbedtls\ssl_internal.h ****     if( ssl->conf->transport == MBEDTLS_SSL_TRANSPORT_DATAGRAM )
 710:C:/Users/dtjld/workspace/AIoT/src/LiteOS_Lab/iot_link/network/dtls/mbedtls/mbedtls-2.16.2/include/mbedtls\ssl_internal.h ****         return( 13 );
 711:C:/Users/dtjld/workspace/AIoT/src/LiteOS_Lab/iot_link/network/dtls/mbedtls/mbedtls-2.16.2/include/mbedtls\ssl_internal.h **** #else
 712:C:/Users/dtjld/workspace/AIoT/src/LiteOS_Lab/iot_link/network/dtls/mbedtls/mbedtls-2.16.2/include/mbedtls\ssl_internal.h ****     ((void) ssl);
 713:C:/Users/dtjld/workspace/AIoT/src/LiteOS_Lab/iot_link/network/dtls/mbedtls/mbedtls-2.16.2/include/mbedtls\ssl_internal.h **** #endif
 714:C:/Users/dtjld/workspace/AIoT/src/LiteOS_Lab/iot_link/network/dtls/mbedtls/mbedtls-2.16.2/include/mbedtls\ssl_internal.h ****     return( 5 );
 715:C:/Users/dtjld/workspace/AIoT/src/LiteOS_Lab/iot_link/network/dtls/mbedtls/mbedtls-2.16.2/include/mbedtls\ssl_internal.h **** }
 716:C:/Users/dtjld/workspace/AIoT/src/LiteOS_Lab/iot_link/network/dtls/mbedtls/mbedtls-2.16.2/include/mbedtls\ssl_internal.h **** 
ARM GAS  C:\Users\dtjld\AppData\Local\Temp\cc0z6O28.s 			page 14


 717:C:/Users/dtjld/workspace/AIoT/src/LiteOS_Lab/iot_link/network/dtls/mbedtls/mbedtls-2.16.2/include/mbedtls\ssl_internal.h **** static inline size_t mbedtls_ssl_hs_hdr_len( const mbedtls_ssl_context *ssl )
 718:C:/Users/dtjld/workspace/AIoT/src/LiteOS_Lab/iot_link/network/dtls/mbedtls/mbedtls-2.16.2/include/mbedtls\ssl_internal.h **** {
 719:C:/Users/dtjld/workspace/AIoT/src/LiteOS_Lab/iot_link/network/dtls/mbedtls/mbedtls-2.16.2/include/mbedtls\ssl_internal.h **** #if defined(MBEDTLS_SSL_PROTO_DTLS)
 720:C:/Users/dtjld/workspace/AIoT/src/LiteOS_Lab/iot_link/network/dtls/mbedtls/mbedtls-2.16.2/include/mbedtls\ssl_internal.h ****     if( ssl->conf->transport == MBEDTLS_SSL_TRANSPORT_DATAGRAM )
 721:C:/Users/dtjld/workspace/AIoT/src/LiteOS_Lab/iot_link/network/dtls/mbedtls/mbedtls-2.16.2/include/mbedtls\ssl_internal.h ****         return( 12 );
 722:C:/Users/dtjld/workspace/AIoT/src/LiteOS_Lab/iot_link/network/dtls/mbedtls/mbedtls-2.16.2/include/mbedtls\ssl_internal.h **** #else
 723:C:/Users/dtjld/workspace/AIoT/src/LiteOS_Lab/iot_link/network/dtls/mbedtls/mbedtls-2.16.2/include/mbedtls\ssl_internal.h ****     ((void) ssl);
 724:C:/Users/dtjld/workspace/AIoT/src/LiteOS_Lab/iot_link/network/dtls/mbedtls/mbedtls-2.16.2/include/mbedtls\ssl_internal.h **** #endif
 725:C:/Users/dtjld/workspace/AIoT/src/LiteOS_Lab/iot_link/network/dtls/mbedtls/mbedtls-2.16.2/include/mbedtls\ssl_internal.h ****     return( 4 );
 726:C:/Users/dtjld/workspace/AIoT/src/LiteOS_Lab/iot_link/network/dtls/mbedtls/mbedtls-2.16.2/include/mbedtls\ssl_internal.h **** }
 727:C:/Users/dtjld/workspace/AIoT/src/LiteOS_Lab/iot_link/network/dtls/mbedtls/mbedtls-2.16.2/include/mbedtls\ssl_internal.h **** 
 728:C:/Users/dtjld/workspace/AIoT/src/LiteOS_Lab/iot_link/network/dtls/mbedtls/mbedtls-2.16.2/include/mbedtls\ssl_internal.h **** #if defined(MBEDTLS_SSL_PROTO_DTLS)
 729:C:/Users/dtjld/workspace/AIoT/src/LiteOS_Lab/iot_link/network/dtls/mbedtls/mbedtls-2.16.2/include/mbedtls\ssl_internal.h **** void mbedtls_ssl_send_flight_completed( mbedtls_ssl_context *ssl );
 730:C:/Users/dtjld/workspace/AIoT/src/LiteOS_Lab/iot_link/network/dtls/mbedtls/mbedtls-2.16.2/include/mbedtls\ssl_internal.h **** void mbedtls_ssl_recv_flight_completed( mbedtls_ssl_context *ssl );
 731:C:/Users/dtjld/workspace/AIoT/src/LiteOS_Lab/iot_link/network/dtls/mbedtls/mbedtls-2.16.2/include/mbedtls\ssl_internal.h **** int mbedtls_ssl_resend( mbedtls_ssl_context *ssl );
 732:C:/Users/dtjld/workspace/AIoT/src/LiteOS_Lab/iot_link/network/dtls/mbedtls/mbedtls-2.16.2/include/mbedtls\ssl_internal.h **** int mbedtls_ssl_flight_transmit( mbedtls_ssl_context *ssl );
 733:C:/Users/dtjld/workspace/AIoT/src/LiteOS_Lab/iot_link/network/dtls/mbedtls/mbedtls-2.16.2/include/mbedtls\ssl_internal.h **** #endif
 734:C:/Users/dtjld/workspace/AIoT/src/LiteOS_Lab/iot_link/network/dtls/mbedtls/mbedtls-2.16.2/include/mbedtls\ssl_internal.h **** 
 735:C:/Users/dtjld/workspace/AIoT/src/LiteOS_Lab/iot_link/network/dtls/mbedtls/mbedtls-2.16.2/include/mbedtls\ssl_internal.h **** /* Visible for testing purposes only */
 736:C:/Users/dtjld/workspace/AIoT/src/LiteOS_Lab/iot_link/network/dtls/mbedtls/mbedtls-2.16.2/include/mbedtls\ssl_internal.h **** #if defined(MBEDTLS_SSL_DTLS_ANTI_REPLAY)
 737:C:/Users/dtjld/workspace/AIoT/src/LiteOS_Lab/iot_link/network/dtls/mbedtls/mbedtls-2.16.2/include/mbedtls\ssl_internal.h **** int mbedtls_ssl_dtls_replay_check( mbedtls_ssl_context *ssl );
 738:C:/Users/dtjld/workspace/AIoT/src/LiteOS_Lab/iot_link/network/dtls/mbedtls/mbedtls-2.16.2/include/mbedtls\ssl_internal.h **** void mbedtls_ssl_dtls_replay_update( mbedtls_ssl_context *ssl );
 739:C:/Users/dtjld/workspace/AIoT/src/LiteOS_Lab/iot_link/network/dtls/mbedtls/mbedtls-2.16.2/include/mbedtls\ssl_internal.h **** #endif
 740:C:/Users/dtjld/workspace/AIoT/src/LiteOS_Lab/iot_link/network/dtls/mbedtls/mbedtls-2.16.2/include/mbedtls\ssl_internal.h **** 
 741:C:/Users/dtjld/workspace/AIoT/src/LiteOS_Lab/iot_link/network/dtls/mbedtls/mbedtls-2.16.2/include/mbedtls\ssl_internal.h **** /* constant-time buffer comparison */
 742:C:/Users/dtjld/workspace/AIoT/src/LiteOS_Lab/iot_link/network/dtls/mbedtls/mbedtls-2.16.2/include/mbedtls\ssl_internal.h **** static inline int mbedtls_ssl_safer_memcmp( const void *a, const void *b, size_t n )
 743:C:/Users/dtjld/workspace/AIoT/src/LiteOS_Lab/iot_link/network/dtls/mbedtls/mbedtls-2.16.2/include/mbedtls\ssl_internal.h **** {
  27              		.loc 1 743 0
  28              		.cfi_startproc
  29              		@ args = 0, pretend = 0, frame = 32
  30              		@ frame_needed = 1, uses_anonymous_args = 0
  31              		@ link register save eliminated.
  32 0000 80B4     		push	{r7}
  33              	.LCFI0:
  34              		.cfi_def_cfa_offset 4
  35              		.cfi_offset 7, -4
  36 0002 89B0     		sub	sp, sp, #36
  37              	.LCFI1:
  38              		.cfi_def_cfa_offset 40
  39 0004 00AF     		add	r7, sp, #0
  40              	.LCFI2:
  41              		.cfi_def_cfa_register 7
  42 0006 F860     		str	r0, [r7, #12]
  43 0008 B960     		str	r1, [r7, #8]
  44 000a 7A60     		str	r2, [r7, #4]
 744:C:/Users/dtjld/workspace/AIoT/src/LiteOS_Lab/iot_link/network/dtls/mbedtls/mbedtls-2.16.2/include/mbedtls\ssl_internal.h ****     size_t i;
 745:C:/Users/dtjld/workspace/AIoT/src/LiteOS_Lab/iot_link/network/dtls/mbedtls/mbedtls-2.16.2/include/mbedtls\ssl_internal.h ****     volatile const unsigned char *A = (volatile const unsigned char *) a;
  45              		.loc 1 745 0
  46 000c FB68     		ldr	r3, [r7, #12]
  47 000e BB61     		str	r3, [r7, #24]
 746:C:/Users/dtjld/workspace/AIoT/src/LiteOS_Lab/iot_link/network/dtls/mbedtls/mbedtls-2.16.2/include/mbedtls\ssl_internal.h ****     volatile const unsigned char *B = (volatile const unsigned char *) b;
  48              		.loc 1 746 0
  49 0010 BB68     		ldr	r3, [r7, #8]
  50 0012 7B61     		str	r3, [r7, #20]
 747:C:/Users/dtjld/workspace/AIoT/src/LiteOS_Lab/iot_link/network/dtls/mbedtls/mbedtls-2.16.2/include/mbedtls\ssl_internal.h ****     volatile unsigned char diff = 0;
  51              		.loc 1 747 0
  52 0014 0023     		movs	r3, #0
ARM GAS  C:\Users\dtjld\AppData\Local\Temp\cc0z6O28.s 			page 15


  53 0016 7B74     		strb	r3, [r7, #17]
 748:C:/Users/dtjld/workspace/AIoT/src/LiteOS_Lab/iot_link/network/dtls/mbedtls/mbedtls-2.16.2/include/mbedtls\ssl_internal.h **** 
 749:C:/Users/dtjld/workspace/AIoT/src/LiteOS_Lab/iot_link/network/dtls/mbedtls/mbedtls-2.16.2/include/mbedtls\ssl_internal.h ****     for( i = 0; i < n; i++ )
  54              		.loc 1 749 0
  55 0018 0023     		movs	r3, #0
  56 001a FB61     		str	r3, [r7, #28]
  57 001c 15E0     		b	.L2
  58              	.L3:
  59              	.LBB2:
 750:C:/Users/dtjld/workspace/AIoT/src/LiteOS_Lab/iot_link/network/dtls/mbedtls/mbedtls-2.16.2/include/mbedtls\ssl_internal.h ****     {
 751:C:/Users/dtjld/workspace/AIoT/src/LiteOS_Lab/iot_link/network/dtls/mbedtls/mbedtls-2.16.2/include/mbedtls\ssl_internal.h ****         /* Read volatile data in order before computing diff.
 752:C:/Users/dtjld/workspace/AIoT/src/LiteOS_Lab/iot_link/network/dtls/mbedtls/mbedtls-2.16.2/include/mbedtls\ssl_internal.h ****          * This avoids IAR compiler warning:
 753:C:/Users/dtjld/workspace/AIoT/src/LiteOS_Lab/iot_link/network/dtls/mbedtls/mbedtls-2.16.2/include/mbedtls\ssl_internal.h ****          * 'the order of volatile accesses is undefined ..' */
 754:C:/Users/dtjld/workspace/AIoT/src/LiteOS_Lab/iot_link/network/dtls/mbedtls/mbedtls-2.16.2/include/mbedtls\ssl_internal.h ****         unsigned char x = A[i], y = B[i];
  60              		.loc 1 754 0 discriminator 3
  61 001e BA69     		ldr	r2, [r7, #24]
  62 0020 FB69     		ldr	r3, [r7, #28]
  63 0022 1344     		add	r3, r3, r2
  64 0024 1B78     		ldrb	r3, [r3]
  65 0026 FB74     		strb	r3, [r7, #19]
  66 0028 7A69     		ldr	r2, [r7, #20]
  67 002a FB69     		ldr	r3, [r7, #28]
  68 002c 1344     		add	r3, r3, r2
  69 002e 1B78     		ldrb	r3, [r3]
  70 0030 BB74     		strb	r3, [r7, #18]
 755:C:/Users/dtjld/workspace/AIoT/src/LiteOS_Lab/iot_link/network/dtls/mbedtls/mbedtls-2.16.2/include/mbedtls\ssl_internal.h ****         diff |= x ^ y;
  71              		.loc 1 755 0 discriminator 3
  72 0032 FA7C     		ldrb	r2, [r7, #19]
  73 0034 BB7C     		ldrb	r3, [r7, #18]
  74 0036 5340     		eors	r3, r3, r2
  75 0038 DAB2     		uxtb	r2, r3
  76 003a 7B7C     		ldrb	r3, [r7, #17]
  77 003c DBB2     		uxtb	r3, r3
  78 003e 1343     		orrs	r3, r3, r2
  79 0040 DBB2     		uxtb	r3, r3
  80 0042 7B74     		strb	r3, [r7, #17]
  81              	.LBE2:
 749:C:/Users/dtjld/workspace/AIoT/src/LiteOS_Lab/iot_link/network/dtls/mbedtls/mbedtls-2.16.2/include/mbedtls\ssl_internal.h ****     {
  82              		.loc 1 749 0 discriminator 3
  83 0044 FB69     		ldr	r3, [r7, #28]
  84 0046 0133     		adds	r3, r3, #1
  85 0048 FB61     		str	r3, [r7, #28]
  86              	.L2:
 749:C:/Users/dtjld/workspace/AIoT/src/LiteOS_Lab/iot_link/network/dtls/mbedtls/mbedtls-2.16.2/include/mbedtls\ssl_internal.h ****     {
  87              		.loc 1 749 0 is_stmt 0 discriminator 1
  88 004a FA69     		ldr	r2, [r7, #28]
  89 004c 7B68     		ldr	r3, [r7, #4]
  90 004e 9A42     		cmp	r2, r3
  91 0050 E5D3     		bcc	.L3
 756:C:/Users/dtjld/workspace/AIoT/src/LiteOS_Lab/iot_link/network/dtls/mbedtls/mbedtls-2.16.2/include/mbedtls\ssl_internal.h ****     }
 757:C:/Users/dtjld/workspace/AIoT/src/LiteOS_Lab/iot_link/network/dtls/mbedtls/mbedtls-2.16.2/include/mbedtls\ssl_internal.h **** 
 758:C:/Users/dtjld/workspace/AIoT/src/LiteOS_Lab/iot_link/network/dtls/mbedtls/mbedtls-2.16.2/include/mbedtls\ssl_internal.h ****     return( diff );
  92              		.loc 1 758 0 is_stmt 1
  93 0052 7B7C     		ldrb	r3, [r7, #17]
  94 0054 DBB2     		uxtb	r3, r3
 759:C:/Users/dtjld/workspace/AIoT/src/LiteOS_Lab/iot_link/network/dtls/mbedtls/mbedtls-2.16.2/include/mbedtls\ssl_internal.h **** }
  95              		.loc 1 759 0
ARM GAS  C:\Users\dtjld\AppData\Local\Temp\cc0z6O28.s 			page 16


  96 0056 1846     		mov	r0, r3
  97 0058 2437     		adds	r7, r7, #36
  98              	.LCFI3:
  99              		.cfi_def_cfa_offset 4
 100 005a BD46     		mov	sp, r7
 101              	.LCFI4:
 102              		.cfi_def_cfa_register 13
 103              		@ sp needed
 104 005c 5DF8047B 		ldr	r7, [sp], #4
 105              	.LCFI5:
 106              		.cfi_restore 7
 107              		.cfi_def_cfa_offset 0
 108 0060 7047     		bx	lr
 109              		.cfi_endproc
 110              	.LFE25:
 112              		.section	.text.mbedtls_ssl_cookie_init,"ax",%progbits
 113              		.align	1
 114              		.global	mbedtls_ssl_cookie_init
 115              		.syntax unified
 116              		.thumb
 117              		.thumb_func
 118              		.fpu fpv4-sp-d16
 120              	mbedtls_ssl_cookie_init:
 121              	.LFB26:
 122              		.file 2 "C:/Users/dtjld/workspace/AIoT/src/LiteOS_Lab/iot_link/network/dtls/mbedtls/mbedtls-2.16.2
   1:C:/Users/dtjld/workspace/AIoT/src/LiteOS_Lab/iot_link/network/dtls/mbedtls/mbedtls-2.16.2/library\ssl_cookie.c **** /*
   2:C:/Users/dtjld/workspace/AIoT/src/LiteOS_Lab/iot_link/network/dtls/mbedtls/mbedtls-2.16.2/library\ssl_cookie.c ****  *  DTLS cookie callbacks implementation
   3:C:/Users/dtjld/workspace/AIoT/src/LiteOS_Lab/iot_link/network/dtls/mbedtls/mbedtls-2.16.2/library\ssl_cookie.c ****  *
   4:C:/Users/dtjld/workspace/AIoT/src/LiteOS_Lab/iot_link/network/dtls/mbedtls/mbedtls-2.16.2/library\ssl_cookie.c ****  *  Copyright (C) 2006-2015, ARM Limited, All Rights Reserved
   5:C:/Users/dtjld/workspace/AIoT/src/LiteOS_Lab/iot_link/network/dtls/mbedtls/mbedtls-2.16.2/library\ssl_cookie.c ****  *  SPDX-License-Identifier: Apache-2.0
   6:C:/Users/dtjld/workspace/AIoT/src/LiteOS_Lab/iot_link/network/dtls/mbedtls/mbedtls-2.16.2/library\ssl_cookie.c ****  *
   7:C:/Users/dtjld/workspace/AIoT/src/LiteOS_Lab/iot_link/network/dtls/mbedtls/mbedtls-2.16.2/library\ssl_cookie.c ****  *  Licensed under the Apache License, Version 2.0 (the "License"); you may
   8:C:/Users/dtjld/workspace/AIoT/src/LiteOS_Lab/iot_link/network/dtls/mbedtls/mbedtls-2.16.2/library\ssl_cookie.c ****  *  not use this file except in compliance with the License.
   9:C:/Users/dtjld/workspace/AIoT/src/LiteOS_Lab/iot_link/network/dtls/mbedtls/mbedtls-2.16.2/library\ssl_cookie.c ****  *  You may obtain a copy of the License at
  10:C:/Users/dtjld/workspace/AIoT/src/LiteOS_Lab/iot_link/network/dtls/mbedtls/mbedtls-2.16.2/library\ssl_cookie.c ****  *
  11:C:/Users/dtjld/workspace/AIoT/src/LiteOS_Lab/iot_link/network/dtls/mbedtls/mbedtls-2.16.2/library\ssl_cookie.c ****  *  http://www.apache.org/licenses/LICENSE-2.0
  12:C:/Users/dtjld/workspace/AIoT/src/LiteOS_Lab/iot_link/network/dtls/mbedtls/mbedtls-2.16.2/library\ssl_cookie.c ****  *
  13:C:/Users/dtjld/workspace/AIoT/src/LiteOS_Lab/iot_link/network/dtls/mbedtls/mbedtls-2.16.2/library\ssl_cookie.c ****  *  Unless required by applicable law or agreed to in writing, software
  14:C:/Users/dtjld/workspace/AIoT/src/LiteOS_Lab/iot_link/network/dtls/mbedtls/mbedtls-2.16.2/library\ssl_cookie.c ****  *  distributed under the License is distributed on an "AS IS" BASIS, WITHOUT
  15:C:/Users/dtjld/workspace/AIoT/src/LiteOS_Lab/iot_link/network/dtls/mbedtls/mbedtls-2.16.2/library\ssl_cookie.c ****  *  WARRANTIES OR CONDITIONS OF ANY KIND, either express or implied.
  16:C:/Users/dtjld/workspace/AIoT/src/LiteOS_Lab/iot_link/network/dtls/mbedtls/mbedtls-2.16.2/library\ssl_cookie.c ****  *  See the License for the specific language governing permissions and
  17:C:/Users/dtjld/workspace/AIoT/src/LiteOS_Lab/iot_link/network/dtls/mbedtls/mbedtls-2.16.2/library\ssl_cookie.c ****  *  limitations under the License.
  18:C:/Users/dtjld/workspace/AIoT/src/LiteOS_Lab/iot_link/network/dtls/mbedtls/mbedtls-2.16.2/library\ssl_cookie.c ****  *
  19:C:/Users/dtjld/workspace/AIoT/src/LiteOS_Lab/iot_link/network/dtls/mbedtls/mbedtls-2.16.2/library\ssl_cookie.c ****  *  This file is part of mbed TLS (https://tls.mbed.org)
  20:C:/Users/dtjld/workspace/AIoT/src/LiteOS_Lab/iot_link/network/dtls/mbedtls/mbedtls-2.16.2/library\ssl_cookie.c ****  */
  21:C:/Users/dtjld/workspace/AIoT/src/LiteOS_Lab/iot_link/network/dtls/mbedtls/mbedtls-2.16.2/library\ssl_cookie.c **** /*
  22:C:/Users/dtjld/workspace/AIoT/src/LiteOS_Lab/iot_link/network/dtls/mbedtls/mbedtls-2.16.2/library\ssl_cookie.c ****  * These session callbacks use a simple chained list
  23:C:/Users/dtjld/workspace/AIoT/src/LiteOS_Lab/iot_link/network/dtls/mbedtls/mbedtls-2.16.2/library\ssl_cookie.c ****  * to store and retrieve the session information.
  24:C:/Users/dtjld/workspace/AIoT/src/LiteOS_Lab/iot_link/network/dtls/mbedtls/mbedtls-2.16.2/library\ssl_cookie.c ****  */
  25:C:/Users/dtjld/workspace/AIoT/src/LiteOS_Lab/iot_link/network/dtls/mbedtls/mbedtls-2.16.2/library\ssl_cookie.c **** 
  26:C:/Users/dtjld/workspace/AIoT/src/LiteOS_Lab/iot_link/network/dtls/mbedtls/mbedtls-2.16.2/library\ssl_cookie.c **** #if !defined(MBEDTLS_CONFIG_FILE)
  27:C:/Users/dtjld/workspace/AIoT/src/LiteOS_Lab/iot_link/network/dtls/mbedtls/mbedtls-2.16.2/library\ssl_cookie.c **** #include "mbedtls/config.h"
  28:C:/Users/dtjld/workspace/AIoT/src/LiteOS_Lab/iot_link/network/dtls/mbedtls/mbedtls-2.16.2/library\ssl_cookie.c **** #else
  29:C:/Users/dtjld/workspace/AIoT/src/LiteOS_Lab/iot_link/network/dtls/mbedtls/mbedtls-2.16.2/library\ssl_cookie.c **** #include MBEDTLS_CONFIG_FILE
  30:C:/Users/dtjld/workspace/AIoT/src/LiteOS_Lab/iot_link/network/dtls/mbedtls/mbedtls-2.16.2/library\ssl_cookie.c **** #endif
  31:C:/Users/dtjld/workspace/AIoT/src/LiteOS_Lab/iot_link/network/dtls/mbedtls/mbedtls-2.16.2/library\ssl_cookie.c **** 
  32:C:/Users/dtjld/workspace/AIoT/src/LiteOS_Lab/iot_link/network/dtls/mbedtls/mbedtls-2.16.2/library\ssl_cookie.c **** #if defined(MBEDTLS_SSL_COOKIE_C)
ARM GAS  C:\Users\dtjld\AppData\Local\Temp\cc0z6O28.s 			page 17


  33:C:/Users/dtjld/workspace/AIoT/src/LiteOS_Lab/iot_link/network/dtls/mbedtls/mbedtls-2.16.2/library\ssl_cookie.c **** 
  34:C:/Users/dtjld/workspace/AIoT/src/LiteOS_Lab/iot_link/network/dtls/mbedtls/mbedtls-2.16.2/library\ssl_cookie.c **** #if defined(MBEDTLS_PLATFORM_C)
  35:C:/Users/dtjld/workspace/AIoT/src/LiteOS_Lab/iot_link/network/dtls/mbedtls/mbedtls-2.16.2/library\ssl_cookie.c **** #include "mbedtls/platform.h"
  36:C:/Users/dtjld/workspace/AIoT/src/LiteOS_Lab/iot_link/network/dtls/mbedtls/mbedtls-2.16.2/library\ssl_cookie.c **** #else
  37:C:/Users/dtjld/workspace/AIoT/src/LiteOS_Lab/iot_link/network/dtls/mbedtls/mbedtls-2.16.2/library\ssl_cookie.c **** #define mbedtls_calloc    calloc
  38:C:/Users/dtjld/workspace/AIoT/src/LiteOS_Lab/iot_link/network/dtls/mbedtls/mbedtls-2.16.2/library\ssl_cookie.c **** #define mbedtls_free      free
  39:C:/Users/dtjld/workspace/AIoT/src/LiteOS_Lab/iot_link/network/dtls/mbedtls/mbedtls-2.16.2/library\ssl_cookie.c **** #endif
  40:C:/Users/dtjld/workspace/AIoT/src/LiteOS_Lab/iot_link/network/dtls/mbedtls/mbedtls-2.16.2/library\ssl_cookie.c **** 
  41:C:/Users/dtjld/workspace/AIoT/src/LiteOS_Lab/iot_link/network/dtls/mbedtls/mbedtls-2.16.2/library\ssl_cookie.c **** #include "mbedtls/ssl_cookie.h"
  42:C:/Users/dtjld/workspace/AIoT/src/LiteOS_Lab/iot_link/network/dtls/mbedtls/mbedtls-2.16.2/library\ssl_cookie.c **** #include "mbedtls/ssl_internal.h"
  43:C:/Users/dtjld/workspace/AIoT/src/LiteOS_Lab/iot_link/network/dtls/mbedtls/mbedtls-2.16.2/library\ssl_cookie.c **** #include "mbedtls/platform_util.h"
  44:C:/Users/dtjld/workspace/AIoT/src/LiteOS_Lab/iot_link/network/dtls/mbedtls/mbedtls-2.16.2/library\ssl_cookie.c **** 
  45:C:/Users/dtjld/workspace/AIoT/src/LiteOS_Lab/iot_link/network/dtls/mbedtls/mbedtls-2.16.2/library\ssl_cookie.c **** #include <string.h>
  46:C:/Users/dtjld/workspace/AIoT/src/LiteOS_Lab/iot_link/network/dtls/mbedtls/mbedtls-2.16.2/library\ssl_cookie.c **** 
  47:C:/Users/dtjld/workspace/AIoT/src/LiteOS_Lab/iot_link/network/dtls/mbedtls/mbedtls-2.16.2/library\ssl_cookie.c **** /*
  48:C:/Users/dtjld/workspace/AIoT/src/LiteOS_Lab/iot_link/network/dtls/mbedtls/mbedtls-2.16.2/library\ssl_cookie.c ****  * If DTLS is in use, then at least one of SHA-1, SHA-256, SHA-512 is
  49:C:/Users/dtjld/workspace/AIoT/src/LiteOS_Lab/iot_link/network/dtls/mbedtls/mbedtls-2.16.2/library\ssl_cookie.c ****  * available. Try SHA-256 first, 512 wastes resources since we need to stay
  50:C:/Users/dtjld/workspace/AIoT/src/LiteOS_Lab/iot_link/network/dtls/mbedtls/mbedtls-2.16.2/library\ssl_cookie.c ****  * with max 32 bytes of cookie for DTLS 1.0
  51:C:/Users/dtjld/workspace/AIoT/src/LiteOS_Lab/iot_link/network/dtls/mbedtls/mbedtls-2.16.2/library\ssl_cookie.c ****  */
  52:C:/Users/dtjld/workspace/AIoT/src/LiteOS_Lab/iot_link/network/dtls/mbedtls/mbedtls-2.16.2/library\ssl_cookie.c **** #if defined(MBEDTLS_SHA256_C)
  53:C:/Users/dtjld/workspace/AIoT/src/LiteOS_Lab/iot_link/network/dtls/mbedtls/mbedtls-2.16.2/library\ssl_cookie.c **** #define COOKIE_MD           MBEDTLS_MD_SHA224
  54:C:/Users/dtjld/workspace/AIoT/src/LiteOS_Lab/iot_link/network/dtls/mbedtls/mbedtls-2.16.2/library\ssl_cookie.c **** #define COOKIE_MD_OUTLEN    32
  55:C:/Users/dtjld/workspace/AIoT/src/LiteOS_Lab/iot_link/network/dtls/mbedtls/mbedtls-2.16.2/library\ssl_cookie.c **** #define COOKIE_HMAC_LEN     28
  56:C:/Users/dtjld/workspace/AIoT/src/LiteOS_Lab/iot_link/network/dtls/mbedtls/mbedtls-2.16.2/library\ssl_cookie.c **** #elif defined(MBEDTLS_SHA512_C)
  57:C:/Users/dtjld/workspace/AIoT/src/LiteOS_Lab/iot_link/network/dtls/mbedtls/mbedtls-2.16.2/library\ssl_cookie.c **** #define COOKIE_MD           MBEDTLS_MD_SHA384
  58:C:/Users/dtjld/workspace/AIoT/src/LiteOS_Lab/iot_link/network/dtls/mbedtls/mbedtls-2.16.2/library\ssl_cookie.c **** #define COOKIE_MD_OUTLEN    48
  59:C:/Users/dtjld/workspace/AIoT/src/LiteOS_Lab/iot_link/network/dtls/mbedtls/mbedtls-2.16.2/library\ssl_cookie.c **** #define COOKIE_HMAC_LEN     28
  60:C:/Users/dtjld/workspace/AIoT/src/LiteOS_Lab/iot_link/network/dtls/mbedtls/mbedtls-2.16.2/library\ssl_cookie.c **** #elif defined(MBEDTLS_SHA1_C)
  61:C:/Users/dtjld/workspace/AIoT/src/LiteOS_Lab/iot_link/network/dtls/mbedtls/mbedtls-2.16.2/library\ssl_cookie.c **** #define COOKIE_MD           MBEDTLS_MD_SHA1
  62:C:/Users/dtjld/workspace/AIoT/src/LiteOS_Lab/iot_link/network/dtls/mbedtls/mbedtls-2.16.2/library\ssl_cookie.c **** #define COOKIE_MD_OUTLEN    20
  63:C:/Users/dtjld/workspace/AIoT/src/LiteOS_Lab/iot_link/network/dtls/mbedtls/mbedtls-2.16.2/library\ssl_cookie.c **** #define COOKIE_HMAC_LEN     20
  64:C:/Users/dtjld/workspace/AIoT/src/LiteOS_Lab/iot_link/network/dtls/mbedtls/mbedtls-2.16.2/library\ssl_cookie.c **** #else
  65:C:/Users/dtjld/workspace/AIoT/src/LiteOS_Lab/iot_link/network/dtls/mbedtls/mbedtls-2.16.2/library\ssl_cookie.c **** #error "DTLS hello verify needs SHA-1 or SHA-2"
  66:C:/Users/dtjld/workspace/AIoT/src/LiteOS_Lab/iot_link/network/dtls/mbedtls/mbedtls-2.16.2/library\ssl_cookie.c **** #endif
  67:C:/Users/dtjld/workspace/AIoT/src/LiteOS_Lab/iot_link/network/dtls/mbedtls/mbedtls-2.16.2/library\ssl_cookie.c **** 
  68:C:/Users/dtjld/workspace/AIoT/src/LiteOS_Lab/iot_link/network/dtls/mbedtls/mbedtls-2.16.2/library\ssl_cookie.c **** /*
  69:C:/Users/dtjld/workspace/AIoT/src/LiteOS_Lab/iot_link/network/dtls/mbedtls/mbedtls-2.16.2/library\ssl_cookie.c ****  * Cookies are formed of a 4-bytes timestamp (or serial number) and
  70:C:/Users/dtjld/workspace/AIoT/src/LiteOS_Lab/iot_link/network/dtls/mbedtls/mbedtls-2.16.2/library\ssl_cookie.c ****  * an HMAC of timestemp and client ID.
  71:C:/Users/dtjld/workspace/AIoT/src/LiteOS_Lab/iot_link/network/dtls/mbedtls/mbedtls-2.16.2/library\ssl_cookie.c ****  */
  72:C:/Users/dtjld/workspace/AIoT/src/LiteOS_Lab/iot_link/network/dtls/mbedtls/mbedtls-2.16.2/library\ssl_cookie.c **** #define COOKIE_LEN      ( 4 + COOKIE_HMAC_LEN )
  73:C:/Users/dtjld/workspace/AIoT/src/LiteOS_Lab/iot_link/network/dtls/mbedtls/mbedtls-2.16.2/library\ssl_cookie.c **** 
  74:C:/Users/dtjld/workspace/AIoT/src/LiteOS_Lab/iot_link/network/dtls/mbedtls/mbedtls-2.16.2/library\ssl_cookie.c **** void mbedtls_ssl_cookie_init( mbedtls_ssl_cookie_ctx *ctx )
  75:C:/Users/dtjld/workspace/AIoT/src/LiteOS_Lab/iot_link/network/dtls/mbedtls/mbedtls-2.16.2/library\ssl_cookie.c **** {
 123              		.loc 2 75 0
 124              		.cfi_startproc
 125              		@ args = 0, pretend = 0, frame = 8
 126              		@ frame_needed = 1, uses_anonymous_args = 0
 127 0000 80B5     		push	{r7, lr}
 128              	.LCFI6:
 129              		.cfi_def_cfa_offset 8
 130              		.cfi_offset 7, -8
 131              		.cfi_offset 14, -4
 132 0002 82B0     		sub	sp, sp, #8
 133              	.LCFI7:
 134              		.cfi_def_cfa_offset 16
 135 0004 00AF     		add	r7, sp, #0
 136              	.LCFI8:
ARM GAS  C:\Users\dtjld\AppData\Local\Temp\cc0z6O28.s 			page 18


 137              		.cfi_def_cfa_register 7
 138 0006 7860     		str	r0, [r7, #4]
  76:C:/Users/dtjld/workspace/AIoT/src/LiteOS_Lab/iot_link/network/dtls/mbedtls/mbedtls-2.16.2/library\ssl_cookie.c ****     mbedtls_md_init( &ctx->hmac_ctx );
 139              		.loc 2 76 0
 140 0008 7B68     		ldr	r3, [r7, #4]
 141 000a 1846     		mov	r0, r3
 142 000c FFF7FEFF 		bl	mbedtls_md_init
  77:C:/Users/dtjld/workspace/AIoT/src/LiteOS_Lab/iot_link/network/dtls/mbedtls/mbedtls-2.16.2/library\ssl_cookie.c **** #if !defined(MBEDTLS_HAVE_TIME)
  78:C:/Users/dtjld/workspace/AIoT/src/LiteOS_Lab/iot_link/network/dtls/mbedtls/mbedtls-2.16.2/library\ssl_cookie.c ****     ctx->serial = 0;
 143              		.loc 2 78 0
 144 0010 7B68     		ldr	r3, [r7, #4]
 145 0012 0022     		movs	r2, #0
 146 0014 DA60     		str	r2, [r3, #12]
  79:C:/Users/dtjld/workspace/AIoT/src/LiteOS_Lab/iot_link/network/dtls/mbedtls/mbedtls-2.16.2/library\ssl_cookie.c **** #endif
  80:C:/Users/dtjld/workspace/AIoT/src/LiteOS_Lab/iot_link/network/dtls/mbedtls/mbedtls-2.16.2/library\ssl_cookie.c ****     ctx->timeout = MBEDTLS_SSL_COOKIE_TIMEOUT;
 147              		.loc 2 80 0
 148 0016 7B68     		ldr	r3, [r7, #4]
 149 0018 3C22     		movs	r2, #60
 150 001a 1A61     		str	r2, [r3, #16]
  81:C:/Users/dtjld/workspace/AIoT/src/LiteOS_Lab/iot_link/network/dtls/mbedtls/mbedtls-2.16.2/library\ssl_cookie.c **** 
  82:C:/Users/dtjld/workspace/AIoT/src/LiteOS_Lab/iot_link/network/dtls/mbedtls/mbedtls-2.16.2/library\ssl_cookie.c **** #if defined(MBEDTLS_THREADING_C)
  83:C:/Users/dtjld/workspace/AIoT/src/LiteOS_Lab/iot_link/network/dtls/mbedtls/mbedtls-2.16.2/library\ssl_cookie.c ****     mbedtls_mutex_init( &ctx->mutex );
  84:C:/Users/dtjld/workspace/AIoT/src/LiteOS_Lab/iot_link/network/dtls/mbedtls/mbedtls-2.16.2/library\ssl_cookie.c **** #endif
  85:C:/Users/dtjld/workspace/AIoT/src/LiteOS_Lab/iot_link/network/dtls/mbedtls/mbedtls-2.16.2/library\ssl_cookie.c **** }
 151              		.loc 2 85 0
 152 001c 00BF     		nop
 153 001e 0837     		adds	r7, r7, #8
 154              	.LCFI9:
 155              		.cfi_def_cfa_offset 8
 156 0020 BD46     		mov	sp, r7
 157              	.LCFI10:
 158              		.cfi_def_cfa_register 13
 159              		@ sp needed
 160 0022 80BD     		pop	{r7, pc}
 161              		.cfi_endproc
 162              	.LFE26:
 164              		.section	.text.mbedtls_ssl_cookie_set_timeout,"ax",%progbits
 165              		.align	1
 166              		.global	mbedtls_ssl_cookie_set_timeout
 167              		.syntax unified
 168              		.thumb
 169              		.thumb_func
 170              		.fpu fpv4-sp-d16
 172              	mbedtls_ssl_cookie_set_timeout:
 173              	.LFB27:
  86:C:/Users/dtjld/workspace/AIoT/src/LiteOS_Lab/iot_link/network/dtls/mbedtls/mbedtls-2.16.2/library\ssl_cookie.c **** 
  87:C:/Users/dtjld/workspace/AIoT/src/LiteOS_Lab/iot_link/network/dtls/mbedtls/mbedtls-2.16.2/library\ssl_cookie.c **** void mbedtls_ssl_cookie_set_timeout( mbedtls_ssl_cookie_ctx *ctx, unsigned long delay )
  88:C:/Users/dtjld/workspace/AIoT/src/LiteOS_Lab/iot_link/network/dtls/mbedtls/mbedtls-2.16.2/library\ssl_cookie.c **** {
 174              		.loc 2 88 0
 175              		.cfi_startproc
 176              		@ args = 0, pretend = 0, frame = 8
 177              		@ frame_needed = 1, uses_anonymous_args = 0
 178              		@ link register save eliminated.
 179 0000 80B4     		push	{r7}
 180              	.LCFI11:
 181              		.cfi_def_cfa_offset 4
 182              		.cfi_offset 7, -4
ARM GAS  C:\Users\dtjld\AppData\Local\Temp\cc0z6O28.s 			page 19


 183 0002 83B0     		sub	sp, sp, #12
 184              	.LCFI12:
 185              		.cfi_def_cfa_offset 16
 186 0004 00AF     		add	r7, sp, #0
 187              	.LCFI13:
 188              		.cfi_def_cfa_register 7
 189 0006 7860     		str	r0, [r7, #4]
 190 0008 3960     		str	r1, [r7]
  89:C:/Users/dtjld/workspace/AIoT/src/LiteOS_Lab/iot_link/network/dtls/mbedtls/mbedtls-2.16.2/library\ssl_cookie.c ****     ctx->timeout = delay;
 191              		.loc 2 89 0
 192 000a 7B68     		ldr	r3, [r7, #4]
 193 000c 3A68     		ldr	r2, [r7]
 194 000e 1A61     		str	r2, [r3, #16]
  90:C:/Users/dtjld/workspace/AIoT/src/LiteOS_Lab/iot_link/network/dtls/mbedtls/mbedtls-2.16.2/library\ssl_cookie.c **** }
 195              		.loc 2 90 0
 196 0010 00BF     		nop
 197 0012 0C37     		adds	r7, r7, #12
 198              	.LCFI14:
 199              		.cfi_def_cfa_offset 4
 200 0014 BD46     		mov	sp, r7
 201              	.LCFI15:
 202              		.cfi_def_cfa_register 13
 203              		@ sp needed
 204 0016 5DF8047B 		ldr	r7, [sp], #4
 205              	.LCFI16:
 206              		.cfi_restore 7
 207              		.cfi_def_cfa_offset 0
 208 001a 7047     		bx	lr
 209              		.cfi_endproc
 210              	.LFE27:
 212              		.section	.text.mbedtls_ssl_cookie_free,"ax",%progbits
 213              		.align	1
 214              		.global	mbedtls_ssl_cookie_free
 215              		.syntax unified
 216              		.thumb
 217              		.thumb_func
 218              		.fpu fpv4-sp-d16
 220              	mbedtls_ssl_cookie_free:
 221              	.LFB28:
  91:C:/Users/dtjld/workspace/AIoT/src/LiteOS_Lab/iot_link/network/dtls/mbedtls/mbedtls-2.16.2/library\ssl_cookie.c **** 
  92:C:/Users/dtjld/workspace/AIoT/src/LiteOS_Lab/iot_link/network/dtls/mbedtls/mbedtls-2.16.2/library\ssl_cookie.c **** void mbedtls_ssl_cookie_free( mbedtls_ssl_cookie_ctx *ctx )
  93:C:/Users/dtjld/workspace/AIoT/src/LiteOS_Lab/iot_link/network/dtls/mbedtls/mbedtls-2.16.2/library\ssl_cookie.c **** {
 222              		.loc 2 93 0
 223              		.cfi_startproc
 224              		@ args = 0, pretend = 0, frame = 8
 225              		@ frame_needed = 1, uses_anonymous_args = 0
 226 0000 80B5     		push	{r7, lr}
 227              	.LCFI17:
 228              		.cfi_def_cfa_offset 8
 229              		.cfi_offset 7, -8
 230              		.cfi_offset 14, -4
 231 0002 82B0     		sub	sp, sp, #8
 232              	.LCFI18:
 233              		.cfi_def_cfa_offset 16
 234 0004 00AF     		add	r7, sp, #0
 235              	.LCFI19:
 236              		.cfi_def_cfa_register 7
ARM GAS  C:\Users\dtjld\AppData\Local\Temp\cc0z6O28.s 			page 20


 237 0006 7860     		str	r0, [r7, #4]
  94:C:/Users/dtjld/workspace/AIoT/src/LiteOS_Lab/iot_link/network/dtls/mbedtls/mbedtls-2.16.2/library\ssl_cookie.c ****     mbedtls_md_free( &ctx->hmac_ctx );
 238              		.loc 2 94 0
 239 0008 7B68     		ldr	r3, [r7, #4]
 240 000a 1846     		mov	r0, r3
 241 000c FFF7FEFF 		bl	mbedtls_md_free
  95:C:/Users/dtjld/workspace/AIoT/src/LiteOS_Lab/iot_link/network/dtls/mbedtls/mbedtls-2.16.2/library\ssl_cookie.c **** 
  96:C:/Users/dtjld/workspace/AIoT/src/LiteOS_Lab/iot_link/network/dtls/mbedtls/mbedtls-2.16.2/library\ssl_cookie.c **** #if defined(MBEDTLS_THREADING_C)
  97:C:/Users/dtjld/workspace/AIoT/src/LiteOS_Lab/iot_link/network/dtls/mbedtls/mbedtls-2.16.2/library\ssl_cookie.c ****     mbedtls_mutex_free( &ctx->mutex );
  98:C:/Users/dtjld/workspace/AIoT/src/LiteOS_Lab/iot_link/network/dtls/mbedtls/mbedtls-2.16.2/library\ssl_cookie.c **** #endif
  99:C:/Users/dtjld/workspace/AIoT/src/LiteOS_Lab/iot_link/network/dtls/mbedtls/mbedtls-2.16.2/library\ssl_cookie.c **** 
 100:C:/Users/dtjld/workspace/AIoT/src/LiteOS_Lab/iot_link/network/dtls/mbedtls/mbedtls-2.16.2/library\ssl_cookie.c ****     mbedtls_platform_zeroize( ctx, sizeof( mbedtls_ssl_cookie_ctx ) );
 242              		.loc 2 100 0
 243 0010 1421     		movs	r1, #20
 244 0012 7868     		ldr	r0, [r7, #4]
 245 0014 FFF7FEFF 		bl	mbedtls_platform_zeroize
 101:C:/Users/dtjld/workspace/AIoT/src/LiteOS_Lab/iot_link/network/dtls/mbedtls/mbedtls-2.16.2/library\ssl_cookie.c **** }
 246              		.loc 2 101 0
 247 0018 00BF     		nop
 248 001a 0837     		adds	r7, r7, #8
 249              	.LCFI20:
 250              		.cfi_def_cfa_offset 8
 251 001c BD46     		mov	sp, r7
 252              	.LCFI21:
 253              		.cfi_def_cfa_register 13
 254              		@ sp needed
 255 001e 80BD     		pop	{r7, pc}
 256              		.cfi_endproc
 257              	.LFE28:
 259              		.section	.text.mbedtls_ssl_cookie_setup,"ax",%progbits
 260              		.align	1
 261              		.global	mbedtls_ssl_cookie_setup
 262              		.syntax unified
 263              		.thumb
 264              		.thumb_func
 265              		.fpu fpv4-sp-d16
 267              	mbedtls_ssl_cookie_setup:
 268              	.LFB29:
 102:C:/Users/dtjld/workspace/AIoT/src/LiteOS_Lab/iot_link/network/dtls/mbedtls/mbedtls-2.16.2/library\ssl_cookie.c **** 
 103:C:/Users/dtjld/workspace/AIoT/src/LiteOS_Lab/iot_link/network/dtls/mbedtls/mbedtls-2.16.2/library\ssl_cookie.c **** int mbedtls_ssl_cookie_setup( mbedtls_ssl_cookie_ctx *ctx,
 104:C:/Users/dtjld/workspace/AIoT/src/LiteOS_Lab/iot_link/network/dtls/mbedtls/mbedtls-2.16.2/library\ssl_cookie.c ****                       int (*f_rng)(void *, unsigned char *, size_t),
 105:C:/Users/dtjld/workspace/AIoT/src/LiteOS_Lab/iot_link/network/dtls/mbedtls/mbedtls-2.16.2/library\ssl_cookie.c ****                       void *p_rng )
 106:C:/Users/dtjld/workspace/AIoT/src/LiteOS_Lab/iot_link/network/dtls/mbedtls/mbedtls-2.16.2/library\ssl_cookie.c **** {
 269              		.loc 2 106 0
 270              		.cfi_startproc
 271              		@ args = 0, pretend = 0, frame = 56
 272              		@ frame_needed = 1, uses_anonymous_args = 0
 273 0000 90B5     		push	{r4, r7, lr}
 274              	.LCFI22:
 275              		.cfi_def_cfa_offset 12
 276              		.cfi_offset 4, -12
 277              		.cfi_offset 7, -8
 278              		.cfi_offset 14, -4
 279 0002 8FB0     		sub	sp, sp, #60
 280              	.LCFI23:
 281              		.cfi_def_cfa_offset 72
 282 0004 00AF     		add	r7, sp, #0
ARM GAS  C:\Users\dtjld\AppData\Local\Temp\cc0z6O28.s 			page 21


 283              	.LCFI24:
 284              		.cfi_def_cfa_register 7
 285 0006 F860     		str	r0, [r7, #12]
 286 0008 B960     		str	r1, [r7, #8]
 287 000a 7A60     		str	r2, [r7, #4]
 107:C:/Users/dtjld/workspace/AIoT/src/LiteOS_Lab/iot_link/network/dtls/mbedtls/mbedtls-2.16.2/library\ssl_cookie.c ****     int ret;
 108:C:/Users/dtjld/workspace/AIoT/src/LiteOS_Lab/iot_link/network/dtls/mbedtls/mbedtls-2.16.2/library\ssl_cookie.c ****     unsigned char key[COOKIE_MD_OUTLEN];
 109:C:/Users/dtjld/workspace/AIoT/src/LiteOS_Lab/iot_link/network/dtls/mbedtls/mbedtls-2.16.2/library\ssl_cookie.c **** 
 110:C:/Users/dtjld/workspace/AIoT/src/LiteOS_Lab/iot_link/network/dtls/mbedtls/mbedtls-2.16.2/library\ssl_cookie.c ****     if( ( ret = f_rng( p_rng, key, sizeof( key ) ) ) != 0 )
 288              		.loc 2 110 0
 289 000c 07F11401 		add	r1, r7, #20
 290 0010 BB68     		ldr	r3, [r7, #8]
 291 0012 2022     		movs	r2, #32
 292 0014 7868     		ldr	r0, [r7, #4]
 293 0016 9847     		blx	r3
 294              	.LVL0:
 295 0018 7863     		str	r0, [r7, #52]
 296 001a 7B6B     		ldr	r3, [r7, #52]
 297 001c 002B     		cmp	r3, #0
 298 001e 01D0     		beq	.L9
 111:C:/Users/dtjld/workspace/AIoT/src/LiteOS_Lab/iot_link/network/dtls/mbedtls/mbedtls-2.16.2/library\ssl_cookie.c ****         return( ret );
 299              		.loc 2 111 0
 300 0020 7B6B     		ldr	r3, [r7, #52]
 301 0022 23E0     		b	.L13
 302              	.L9:
 112:C:/Users/dtjld/workspace/AIoT/src/LiteOS_Lab/iot_link/network/dtls/mbedtls/mbedtls-2.16.2/library\ssl_cookie.c **** 
 113:C:/Users/dtjld/workspace/AIoT/src/LiteOS_Lab/iot_link/network/dtls/mbedtls/mbedtls-2.16.2/library\ssl_cookie.c ****     ret = mbedtls_md_setup( &ctx->hmac_ctx, mbedtls_md_info_from_type( COOKIE_MD ), 1 );
 303              		.loc 2 113 0
 304 0024 FC68     		ldr	r4, [r7, #12]
 305 0026 0520     		movs	r0, #5
 306 0028 FFF7FEFF 		bl	mbedtls_md_info_from_type
 307 002c 0346     		mov	r3, r0
 308 002e 0122     		movs	r2, #1
 309 0030 1946     		mov	r1, r3
 310 0032 2046     		mov	r0, r4
 311 0034 FFF7FEFF 		bl	mbedtls_md_setup
 312 0038 7863     		str	r0, [r7, #52]
 114:C:/Users/dtjld/workspace/AIoT/src/LiteOS_Lab/iot_link/network/dtls/mbedtls/mbedtls-2.16.2/library\ssl_cookie.c ****     if( ret != 0 )
 313              		.loc 2 114 0
 314 003a 7B6B     		ldr	r3, [r7, #52]
 315 003c 002B     		cmp	r3, #0
 316 003e 01D0     		beq	.L11
 115:C:/Users/dtjld/workspace/AIoT/src/LiteOS_Lab/iot_link/network/dtls/mbedtls/mbedtls-2.16.2/library\ssl_cookie.c ****         return( ret );
 317              		.loc 2 115 0
 318 0040 7B6B     		ldr	r3, [r7, #52]
 319 0042 13E0     		b	.L13
 320              	.L11:
 116:C:/Users/dtjld/workspace/AIoT/src/LiteOS_Lab/iot_link/network/dtls/mbedtls/mbedtls-2.16.2/library\ssl_cookie.c **** 
 117:C:/Users/dtjld/workspace/AIoT/src/LiteOS_Lab/iot_link/network/dtls/mbedtls/mbedtls-2.16.2/library\ssl_cookie.c ****     ret = mbedtls_md_hmac_starts( &ctx->hmac_ctx, key, sizeof( key ) );
 321              		.loc 2 117 0
 322 0044 FB68     		ldr	r3, [r7, #12]
 323 0046 07F11401 		add	r1, r7, #20
 324 004a 2022     		movs	r2, #32
 325 004c 1846     		mov	r0, r3
 326 004e FFF7FEFF 		bl	mbedtls_md_hmac_starts
 327 0052 7863     		str	r0, [r7, #52]
 118:C:/Users/dtjld/workspace/AIoT/src/LiteOS_Lab/iot_link/network/dtls/mbedtls/mbedtls-2.16.2/library\ssl_cookie.c ****     if( ret != 0 )
ARM GAS  C:\Users\dtjld\AppData\Local\Temp\cc0z6O28.s 			page 22


 328              		.loc 2 118 0
 329 0054 7B6B     		ldr	r3, [r7, #52]
 330 0056 002B     		cmp	r3, #0
 331 0058 01D0     		beq	.L12
 119:C:/Users/dtjld/workspace/AIoT/src/LiteOS_Lab/iot_link/network/dtls/mbedtls/mbedtls-2.16.2/library\ssl_cookie.c ****         return( ret );
 332              		.loc 2 119 0
 333 005a 7B6B     		ldr	r3, [r7, #52]
 334 005c 06E0     		b	.L13
 335              	.L12:
 120:C:/Users/dtjld/workspace/AIoT/src/LiteOS_Lab/iot_link/network/dtls/mbedtls/mbedtls-2.16.2/library\ssl_cookie.c **** 
 121:C:/Users/dtjld/workspace/AIoT/src/LiteOS_Lab/iot_link/network/dtls/mbedtls/mbedtls-2.16.2/library\ssl_cookie.c ****     mbedtls_platform_zeroize( key, sizeof( key ) );
 336              		.loc 2 121 0
 337 005e 07F11403 		add	r3, r7, #20
 338 0062 2021     		movs	r1, #32
 339 0064 1846     		mov	r0, r3
 340 0066 FFF7FEFF 		bl	mbedtls_platform_zeroize
 122:C:/Users/dtjld/workspace/AIoT/src/LiteOS_Lab/iot_link/network/dtls/mbedtls/mbedtls-2.16.2/library\ssl_cookie.c **** 
 123:C:/Users/dtjld/workspace/AIoT/src/LiteOS_Lab/iot_link/network/dtls/mbedtls/mbedtls-2.16.2/library\ssl_cookie.c ****     return( 0 );
 341              		.loc 2 123 0
 342 006a 0023     		movs	r3, #0
 343              	.L13:
 124:C:/Users/dtjld/workspace/AIoT/src/LiteOS_Lab/iot_link/network/dtls/mbedtls/mbedtls-2.16.2/library\ssl_cookie.c **** }
 344              		.loc 2 124 0 discriminator 1
 345 006c 1846     		mov	r0, r3
 346 006e 3C37     		adds	r7, r7, #60
 347              	.LCFI25:
 348              		.cfi_def_cfa_offset 12
 349 0070 BD46     		mov	sp, r7
 350              	.LCFI26:
 351              		.cfi_def_cfa_register 13
 352              		@ sp needed
 353 0072 90BD     		pop	{r4, r7, pc}
 354              		.cfi_endproc
 355              	.LFE29:
 357              		.section	.text.ssl_cookie_hmac,"ax",%progbits
 358              		.align	1
 359              		.syntax unified
 360              		.thumb
 361              		.thumb_func
 362              		.fpu fpv4-sp-d16
 364              	ssl_cookie_hmac:
 365              	.LFB30:
 125:C:/Users/dtjld/workspace/AIoT/src/LiteOS_Lab/iot_link/network/dtls/mbedtls/mbedtls-2.16.2/library\ssl_cookie.c **** 
 126:C:/Users/dtjld/workspace/AIoT/src/LiteOS_Lab/iot_link/network/dtls/mbedtls/mbedtls-2.16.2/library\ssl_cookie.c **** /*
 127:C:/Users/dtjld/workspace/AIoT/src/LiteOS_Lab/iot_link/network/dtls/mbedtls/mbedtls-2.16.2/library\ssl_cookie.c ****  * Generate the HMAC part of a cookie
 128:C:/Users/dtjld/workspace/AIoT/src/LiteOS_Lab/iot_link/network/dtls/mbedtls/mbedtls-2.16.2/library\ssl_cookie.c ****  */
 129:C:/Users/dtjld/workspace/AIoT/src/LiteOS_Lab/iot_link/network/dtls/mbedtls/mbedtls-2.16.2/library\ssl_cookie.c **** static int ssl_cookie_hmac( mbedtls_md_context_t *hmac_ctx,
 130:C:/Users/dtjld/workspace/AIoT/src/LiteOS_Lab/iot_link/network/dtls/mbedtls/mbedtls-2.16.2/library\ssl_cookie.c ****                             const unsigned char time[4],
 131:C:/Users/dtjld/workspace/AIoT/src/LiteOS_Lab/iot_link/network/dtls/mbedtls/mbedtls-2.16.2/library\ssl_cookie.c ****                             unsigned char **p, unsigned char *end,
 132:C:/Users/dtjld/workspace/AIoT/src/LiteOS_Lab/iot_link/network/dtls/mbedtls/mbedtls-2.16.2/library\ssl_cookie.c ****                             const unsigned char *cli_id, size_t cli_id_len )
 133:C:/Users/dtjld/workspace/AIoT/src/LiteOS_Lab/iot_link/network/dtls/mbedtls/mbedtls-2.16.2/library\ssl_cookie.c **** {
 366              		.loc 2 133 0
 367              		.cfi_startproc
 368              		@ args = 8, pretend = 0, frame = 48
 369              		@ frame_needed = 1, uses_anonymous_args = 0
 370 0000 80B5     		push	{r7, lr}
 371              	.LCFI27:
ARM GAS  C:\Users\dtjld\AppData\Local\Temp\cc0z6O28.s 			page 23


 372              		.cfi_def_cfa_offset 8
 373              		.cfi_offset 7, -8
 374              		.cfi_offset 14, -4
 375 0002 8CB0     		sub	sp, sp, #48
 376              	.LCFI28:
 377              		.cfi_def_cfa_offset 56
 378 0004 00AF     		add	r7, sp, #0
 379              	.LCFI29:
 380              		.cfi_def_cfa_register 7
 381 0006 F860     		str	r0, [r7, #12]
 382 0008 B960     		str	r1, [r7, #8]
 383 000a 7A60     		str	r2, [r7, #4]
 384 000c 3B60     		str	r3, [r7]
 134:C:/Users/dtjld/workspace/AIoT/src/LiteOS_Lab/iot_link/network/dtls/mbedtls/mbedtls-2.16.2/library\ssl_cookie.c ****     unsigned char hmac_out[COOKIE_MD_OUTLEN];
 135:C:/Users/dtjld/workspace/AIoT/src/LiteOS_Lab/iot_link/network/dtls/mbedtls/mbedtls-2.16.2/library\ssl_cookie.c **** 
 136:C:/Users/dtjld/workspace/AIoT/src/LiteOS_Lab/iot_link/network/dtls/mbedtls/mbedtls-2.16.2/library\ssl_cookie.c ****     if( (size_t)( end - *p ) < COOKIE_HMAC_LEN )
 385              		.loc 2 136 0
 386 000e 3B68     		ldr	r3, [r7]
 387 0010 7A68     		ldr	r2, [r7, #4]
 388 0012 1268     		ldr	r2, [r2]
 389 0014 9B1A     		subs	r3, r3, r2
 390 0016 1B2B     		cmp	r3, #27
 391 0018 01D8     		bhi	.L15
 137:C:/Users/dtjld/workspace/AIoT/src/LiteOS_Lab/iot_link/network/dtls/mbedtls/mbedtls-2.16.2/library\ssl_cookie.c ****         return( MBEDTLS_ERR_SSL_BUFFER_TOO_SMALL );
 392              		.loc 2 137 0
 393 001a 1B4B     		ldr	r3, .L20
 394 001c 2FE0     		b	.L19
 395              	.L15:
 138:C:/Users/dtjld/workspace/AIoT/src/LiteOS_Lab/iot_link/network/dtls/mbedtls/mbedtls-2.16.2/library\ssl_cookie.c **** 
 139:C:/Users/dtjld/workspace/AIoT/src/LiteOS_Lab/iot_link/network/dtls/mbedtls/mbedtls-2.16.2/library\ssl_cookie.c ****     if( mbedtls_md_hmac_reset(  hmac_ctx ) != 0 ||
 396              		.loc 2 139 0
 397 001e F868     		ldr	r0, [r7, #12]
 398 0020 FFF7FEFF 		bl	mbedtls_md_hmac_reset
 399 0024 0346     		mov	r3, r0
 400 0026 002B     		cmp	r3, #0
 401 0028 18D1     		bne	.L17
 140:C:/Users/dtjld/workspace/AIoT/src/LiteOS_Lab/iot_link/network/dtls/mbedtls/mbedtls-2.16.2/library\ssl_cookie.c ****         mbedtls_md_hmac_update( hmac_ctx, time, 4 ) != 0 ||
 402              		.loc 2 140 0 discriminator 1
 403 002a 0422     		movs	r2, #4
 404 002c B968     		ldr	r1, [r7, #8]
 405 002e F868     		ldr	r0, [r7, #12]
 406 0030 FFF7FEFF 		bl	mbedtls_md_hmac_update
 407 0034 0346     		mov	r3, r0
 139:C:/Users/dtjld/workspace/AIoT/src/LiteOS_Lab/iot_link/network/dtls/mbedtls/mbedtls-2.16.2/library\ssl_cookie.c ****         mbedtls_md_hmac_update( hmac_ctx, time, 4 ) != 0 ||
 408              		.loc 2 139 0 discriminator 1
 409 0036 002B     		cmp	r3, #0
 410 0038 10D1     		bne	.L17
 141:C:/Users/dtjld/workspace/AIoT/src/LiteOS_Lab/iot_link/network/dtls/mbedtls/mbedtls-2.16.2/library\ssl_cookie.c ****         mbedtls_md_hmac_update( hmac_ctx, cli_id, cli_id_len ) != 0 ||
 411              		.loc 2 141 0
 412 003a FA6B     		ldr	r2, [r7, #60]
 413 003c B96B     		ldr	r1, [r7, #56]
 414 003e F868     		ldr	r0, [r7, #12]
 415 0040 FFF7FEFF 		bl	mbedtls_md_hmac_update
 416 0044 0346     		mov	r3, r0
 140:C:/Users/dtjld/workspace/AIoT/src/LiteOS_Lab/iot_link/network/dtls/mbedtls/mbedtls-2.16.2/library\ssl_cookie.c ****         mbedtls_md_hmac_update( hmac_ctx, time, 4 ) != 0 ||
 417              		.loc 2 140 0
 418 0046 002B     		cmp	r3, #0
ARM GAS  C:\Users\dtjld\AppData\Local\Temp\cc0z6O28.s 			page 24


 419 0048 08D1     		bne	.L17
 142:C:/Users/dtjld/workspace/AIoT/src/LiteOS_Lab/iot_link/network/dtls/mbedtls/mbedtls-2.16.2/library\ssl_cookie.c ****         mbedtls_md_hmac_finish( hmac_ctx, hmac_out ) != 0 )
 420              		.loc 2 142 0
 421 004a 07F11003 		add	r3, r7, #16
 422 004e 1946     		mov	r1, r3
 423 0050 F868     		ldr	r0, [r7, #12]
 424 0052 FFF7FEFF 		bl	mbedtls_md_hmac_finish
 425 0056 0346     		mov	r3, r0
 141:C:/Users/dtjld/workspace/AIoT/src/LiteOS_Lab/iot_link/network/dtls/mbedtls/mbedtls-2.16.2/library\ssl_cookie.c ****         mbedtls_md_hmac_update( hmac_ctx, cli_id, cli_id_len ) != 0 ||
 426              		.loc 2 141 0
 427 0058 002B     		cmp	r3, #0
 428 005a 01D0     		beq	.L18
 429              	.L17:
 143:C:/Users/dtjld/workspace/AIoT/src/LiteOS_Lab/iot_link/network/dtls/mbedtls/mbedtls-2.16.2/library\ssl_cookie.c ****     {
 144:C:/Users/dtjld/workspace/AIoT/src/LiteOS_Lab/iot_link/network/dtls/mbedtls/mbedtls-2.16.2/library\ssl_cookie.c ****         return( MBEDTLS_ERR_SSL_INTERNAL_ERROR );
 430              		.loc 2 144 0
 431 005c 0B4B     		ldr	r3, .L20+4
 432 005e 0EE0     		b	.L19
 433              	.L18:
 145:C:/Users/dtjld/workspace/AIoT/src/LiteOS_Lab/iot_link/network/dtls/mbedtls/mbedtls-2.16.2/library\ssl_cookie.c ****     }
 146:C:/Users/dtjld/workspace/AIoT/src/LiteOS_Lab/iot_link/network/dtls/mbedtls/mbedtls-2.16.2/library\ssl_cookie.c **** 
 147:C:/Users/dtjld/workspace/AIoT/src/LiteOS_Lab/iot_link/network/dtls/mbedtls/mbedtls-2.16.2/library\ssl_cookie.c ****     memcpy( *p, hmac_out, COOKIE_HMAC_LEN );
 434              		.loc 2 147 0
 435 0060 7B68     		ldr	r3, [r7, #4]
 436 0062 1B68     		ldr	r3, [r3]
 437 0064 07F11001 		add	r1, r7, #16
 438 0068 1C22     		movs	r2, #28
 439 006a 1846     		mov	r0, r3
 440 006c FFF7FEFF 		bl	memcpy
 148:C:/Users/dtjld/workspace/AIoT/src/LiteOS_Lab/iot_link/network/dtls/mbedtls/mbedtls-2.16.2/library\ssl_cookie.c ****     *p += COOKIE_HMAC_LEN;
 441              		.loc 2 148 0
 442 0070 7B68     		ldr	r3, [r7, #4]
 443 0072 1B68     		ldr	r3, [r3]
 444 0074 03F11C02 		add	r2, r3, #28
 445 0078 7B68     		ldr	r3, [r7, #4]
 446 007a 1A60     		str	r2, [r3]
 149:C:/Users/dtjld/workspace/AIoT/src/LiteOS_Lab/iot_link/network/dtls/mbedtls/mbedtls-2.16.2/library\ssl_cookie.c **** 
 150:C:/Users/dtjld/workspace/AIoT/src/LiteOS_Lab/iot_link/network/dtls/mbedtls/mbedtls-2.16.2/library\ssl_cookie.c ****     return( 0 );
 447              		.loc 2 150 0
 448 007c 0023     		movs	r3, #0
 449              	.L19:
 151:C:/Users/dtjld/workspace/AIoT/src/LiteOS_Lab/iot_link/network/dtls/mbedtls/mbedtls-2.16.2/library\ssl_cookie.c **** }
 450              		.loc 2 151 0 discriminator 1
 451 007e 1846     		mov	r0, r3
 452 0080 3037     		adds	r7, r7, #48
 453              	.LCFI30:
 454              		.cfi_def_cfa_offset 8
 455 0082 BD46     		mov	sp, r7
 456              	.LCFI31:
 457              		.cfi_def_cfa_register 13
 458              		@ sp needed
 459 0084 80BD     		pop	{r7, pc}
 460              	.L21:
 461 0086 00BF     		.align	2
 462              	.L20:
 463 0088 0096FFFF 		.word	-27136
 464 008c 0094FFFF 		.word	-27648
ARM GAS  C:\Users\dtjld\AppData\Local\Temp\cc0z6O28.s 			page 25


 465              		.cfi_endproc
 466              	.LFE30:
 468              		.section	.text.mbedtls_ssl_cookie_write,"ax",%progbits
 469              		.align	1
 470              		.global	mbedtls_ssl_cookie_write
 471              		.syntax unified
 472              		.thumb
 473              		.thumb_func
 474              		.fpu fpv4-sp-d16
 476              	mbedtls_ssl_cookie_write:
 477              	.LFB31:
 152:C:/Users/dtjld/workspace/AIoT/src/LiteOS_Lab/iot_link/network/dtls/mbedtls/mbedtls-2.16.2/library\ssl_cookie.c **** 
 153:C:/Users/dtjld/workspace/AIoT/src/LiteOS_Lab/iot_link/network/dtls/mbedtls/mbedtls-2.16.2/library\ssl_cookie.c **** /*
 154:C:/Users/dtjld/workspace/AIoT/src/LiteOS_Lab/iot_link/network/dtls/mbedtls/mbedtls-2.16.2/library\ssl_cookie.c ****  * Generate cookie for DTLS ClientHello verification
 155:C:/Users/dtjld/workspace/AIoT/src/LiteOS_Lab/iot_link/network/dtls/mbedtls/mbedtls-2.16.2/library\ssl_cookie.c ****  */
 156:C:/Users/dtjld/workspace/AIoT/src/LiteOS_Lab/iot_link/network/dtls/mbedtls/mbedtls-2.16.2/library\ssl_cookie.c **** int mbedtls_ssl_cookie_write( void *p_ctx,
 157:C:/Users/dtjld/workspace/AIoT/src/LiteOS_Lab/iot_link/network/dtls/mbedtls/mbedtls-2.16.2/library\ssl_cookie.c ****                       unsigned char **p, unsigned char *end,
 158:C:/Users/dtjld/workspace/AIoT/src/LiteOS_Lab/iot_link/network/dtls/mbedtls/mbedtls-2.16.2/library\ssl_cookie.c ****                       const unsigned char *cli_id, size_t cli_id_len )
 159:C:/Users/dtjld/workspace/AIoT/src/LiteOS_Lab/iot_link/network/dtls/mbedtls/mbedtls-2.16.2/library\ssl_cookie.c **** {
 478              		.loc 2 159 0
 479              		.cfi_startproc
 480              		@ args = 4, pretend = 0, frame = 32
 481              		@ frame_needed = 1, uses_anonymous_args = 0
 482 0000 80B5     		push	{r7, lr}
 483              	.LCFI32:
 484              		.cfi_def_cfa_offset 8
 485              		.cfi_offset 7, -8
 486              		.cfi_offset 14, -4
 487 0002 8AB0     		sub	sp, sp, #40
 488              	.LCFI33:
 489              		.cfi_def_cfa_offset 48
 490 0004 02AF     		add	r7, sp, #8
 491              	.LCFI34:
 492              		.cfi_def_cfa 7, 40
 493 0006 F860     		str	r0, [r7, #12]
 494 0008 B960     		str	r1, [r7, #8]
 495 000a 7A60     		str	r2, [r7, #4]
 496 000c 3B60     		str	r3, [r7]
 160:C:/Users/dtjld/workspace/AIoT/src/LiteOS_Lab/iot_link/network/dtls/mbedtls/mbedtls-2.16.2/library\ssl_cookie.c ****     int ret;
 161:C:/Users/dtjld/workspace/AIoT/src/LiteOS_Lab/iot_link/network/dtls/mbedtls/mbedtls-2.16.2/library\ssl_cookie.c ****     mbedtls_ssl_cookie_ctx *ctx = (mbedtls_ssl_cookie_ctx *) p_ctx;
 497              		.loc 2 161 0
 498 000e FB68     		ldr	r3, [r7, #12]
 499 0010 FB61     		str	r3, [r7, #28]
 162:C:/Users/dtjld/workspace/AIoT/src/LiteOS_Lab/iot_link/network/dtls/mbedtls/mbedtls-2.16.2/library\ssl_cookie.c ****     unsigned long t;
 163:C:/Users/dtjld/workspace/AIoT/src/LiteOS_Lab/iot_link/network/dtls/mbedtls/mbedtls-2.16.2/library\ssl_cookie.c **** 
 164:C:/Users/dtjld/workspace/AIoT/src/LiteOS_Lab/iot_link/network/dtls/mbedtls/mbedtls-2.16.2/library\ssl_cookie.c ****     if( ctx == NULL || cli_id == NULL )
 500              		.loc 2 164 0
 501 0012 FB69     		ldr	r3, [r7, #28]
 502 0014 002B     		cmp	r3, #0
 503 0016 02D0     		beq	.L23
 504              		.loc 2 164 0 is_stmt 0 discriminator 1
 505 0018 3B68     		ldr	r3, [r7]
 506 001a 002B     		cmp	r3, #0
 507 001c 01D1     		bne	.L24
 508              	.L23:
 165:C:/Users/dtjld/workspace/AIoT/src/LiteOS_Lab/iot_link/network/dtls/mbedtls/mbedtls-2.16.2/library\ssl_cookie.c ****         return( MBEDTLS_ERR_SSL_BAD_INPUT_DATA );
 509              		.loc 2 165 0 is_stmt 1
ARM GAS  C:\Users\dtjld\AppData\Local\Temp\cc0z6O28.s 			page 26


 510 001e 204B     		ldr	r3, .L27
 511 0020 3AE0     		b	.L25
 512              	.L24:
 166:C:/Users/dtjld/workspace/AIoT/src/LiteOS_Lab/iot_link/network/dtls/mbedtls/mbedtls-2.16.2/library\ssl_cookie.c **** 
 167:C:/Users/dtjld/workspace/AIoT/src/LiteOS_Lab/iot_link/network/dtls/mbedtls/mbedtls-2.16.2/library\ssl_cookie.c ****     if( (size_t)( end - *p ) < COOKIE_LEN )
 513              		.loc 2 167 0
 514 0022 7B68     		ldr	r3, [r7, #4]
 515 0024 BA68     		ldr	r2, [r7, #8]
 516 0026 1268     		ldr	r2, [r2]
 517 0028 9B1A     		subs	r3, r3, r2
 518 002a 1F2B     		cmp	r3, #31
 519 002c 01D8     		bhi	.L26
 168:C:/Users/dtjld/workspace/AIoT/src/LiteOS_Lab/iot_link/network/dtls/mbedtls/mbedtls-2.16.2/library\ssl_cookie.c ****         return( MBEDTLS_ERR_SSL_BUFFER_TOO_SMALL );
 520              		.loc 2 168 0
 521 002e 1D4B     		ldr	r3, .L27+4
 522 0030 32E0     		b	.L25
 523              	.L26:
 169:C:/Users/dtjld/workspace/AIoT/src/LiteOS_Lab/iot_link/network/dtls/mbedtls/mbedtls-2.16.2/library\ssl_cookie.c **** 
 170:C:/Users/dtjld/workspace/AIoT/src/LiteOS_Lab/iot_link/network/dtls/mbedtls/mbedtls-2.16.2/library\ssl_cookie.c **** #if defined(MBEDTLS_HAVE_TIME)
 171:C:/Users/dtjld/workspace/AIoT/src/LiteOS_Lab/iot_link/network/dtls/mbedtls/mbedtls-2.16.2/library\ssl_cookie.c ****     t = (unsigned long) mbedtls_time( NULL );
 172:C:/Users/dtjld/workspace/AIoT/src/LiteOS_Lab/iot_link/network/dtls/mbedtls/mbedtls-2.16.2/library\ssl_cookie.c **** #else
 173:C:/Users/dtjld/workspace/AIoT/src/LiteOS_Lab/iot_link/network/dtls/mbedtls/mbedtls-2.16.2/library\ssl_cookie.c ****     t = ctx->serial++;
 524              		.loc 2 173 0
 525 0032 FB69     		ldr	r3, [r7, #28]
 526 0034 DB68     		ldr	r3, [r3, #12]
 527 0036 591C     		adds	r1, r3, #1
 528 0038 FA69     		ldr	r2, [r7, #28]
 529 003a D160     		str	r1, [r2, #12]
 530 003c BB61     		str	r3, [r7, #24]
 174:C:/Users/dtjld/workspace/AIoT/src/LiteOS_Lab/iot_link/network/dtls/mbedtls/mbedtls-2.16.2/library\ssl_cookie.c **** #endif
 175:C:/Users/dtjld/workspace/AIoT/src/LiteOS_Lab/iot_link/network/dtls/mbedtls/mbedtls-2.16.2/library\ssl_cookie.c **** 
 176:C:/Users/dtjld/workspace/AIoT/src/LiteOS_Lab/iot_link/network/dtls/mbedtls/mbedtls-2.16.2/library\ssl_cookie.c ****     (*p)[0] = (unsigned char)( t >> 24 );
 531              		.loc 2 176 0
 532 003e BB69     		ldr	r3, [r7, #24]
 533 0040 1A0E     		lsrs	r2, r3, #24
 534 0042 BB68     		ldr	r3, [r7, #8]
 535 0044 1B68     		ldr	r3, [r3]
 536 0046 D2B2     		uxtb	r2, r2
 537 0048 1A70     		strb	r2, [r3]
 177:C:/Users/dtjld/workspace/AIoT/src/LiteOS_Lab/iot_link/network/dtls/mbedtls/mbedtls-2.16.2/library\ssl_cookie.c ****     (*p)[1] = (unsigned char)( t >> 16 );
 538              		.loc 2 177 0
 539 004a BB69     		ldr	r3, [r7, #24]
 540 004c 1A0C     		lsrs	r2, r3, #16
 541 004e BB68     		ldr	r3, [r7, #8]
 542 0050 1B68     		ldr	r3, [r3]
 543 0052 0133     		adds	r3, r3, #1
 544 0054 D2B2     		uxtb	r2, r2
 545 0056 1A70     		strb	r2, [r3]
 178:C:/Users/dtjld/workspace/AIoT/src/LiteOS_Lab/iot_link/network/dtls/mbedtls/mbedtls-2.16.2/library\ssl_cookie.c ****     (*p)[2] = (unsigned char)( t >>  8 );
 546              		.loc 2 178 0
 547 0058 BB69     		ldr	r3, [r7, #24]
 548 005a 1A0A     		lsrs	r2, r3, #8
 549 005c BB68     		ldr	r3, [r7, #8]
 550 005e 1B68     		ldr	r3, [r3]
 551 0060 0233     		adds	r3, r3, #2
 552 0062 D2B2     		uxtb	r2, r2
 553 0064 1A70     		strb	r2, [r3]
ARM GAS  C:\Users\dtjld\AppData\Local\Temp\cc0z6O28.s 			page 27


 179:C:/Users/dtjld/workspace/AIoT/src/LiteOS_Lab/iot_link/network/dtls/mbedtls/mbedtls-2.16.2/library\ssl_cookie.c ****     (*p)[3] = (unsigned char)( t       );
 554              		.loc 2 179 0
 555 0066 BB68     		ldr	r3, [r7, #8]
 556 0068 1B68     		ldr	r3, [r3]
 557 006a 0333     		adds	r3, r3, #3
 558 006c BA69     		ldr	r2, [r7, #24]
 559 006e D2B2     		uxtb	r2, r2
 560 0070 1A70     		strb	r2, [r3]
 180:C:/Users/dtjld/workspace/AIoT/src/LiteOS_Lab/iot_link/network/dtls/mbedtls/mbedtls-2.16.2/library\ssl_cookie.c ****     *p += 4;
 561              		.loc 2 180 0
 562 0072 BB68     		ldr	r3, [r7, #8]
 563 0074 1B68     		ldr	r3, [r3]
 564 0076 1A1D     		adds	r2, r3, #4
 565 0078 BB68     		ldr	r3, [r7, #8]
 566 007a 1A60     		str	r2, [r3]
 181:C:/Users/dtjld/workspace/AIoT/src/LiteOS_Lab/iot_link/network/dtls/mbedtls/mbedtls-2.16.2/library\ssl_cookie.c **** 
 182:C:/Users/dtjld/workspace/AIoT/src/LiteOS_Lab/iot_link/network/dtls/mbedtls/mbedtls-2.16.2/library\ssl_cookie.c **** #if defined(MBEDTLS_THREADING_C)
 183:C:/Users/dtjld/workspace/AIoT/src/LiteOS_Lab/iot_link/network/dtls/mbedtls/mbedtls-2.16.2/library\ssl_cookie.c ****     if( ( ret = mbedtls_mutex_lock( &ctx->mutex ) ) != 0 )
 184:C:/Users/dtjld/workspace/AIoT/src/LiteOS_Lab/iot_link/network/dtls/mbedtls/mbedtls-2.16.2/library\ssl_cookie.c ****         return( MBEDTLS_ERR_SSL_INTERNAL_ERROR + ret );
 185:C:/Users/dtjld/workspace/AIoT/src/LiteOS_Lab/iot_link/network/dtls/mbedtls/mbedtls-2.16.2/library\ssl_cookie.c **** #endif
 186:C:/Users/dtjld/workspace/AIoT/src/LiteOS_Lab/iot_link/network/dtls/mbedtls/mbedtls-2.16.2/library\ssl_cookie.c **** 
 187:C:/Users/dtjld/workspace/AIoT/src/LiteOS_Lab/iot_link/network/dtls/mbedtls/mbedtls-2.16.2/library\ssl_cookie.c ****     ret = ssl_cookie_hmac( &ctx->hmac_ctx, *p - 4,
 567              		.loc 2 187 0
 568 007c F869     		ldr	r0, [r7, #28]
 569 007e BB68     		ldr	r3, [r7, #8]
 570 0080 1B68     		ldr	r3, [r3]
 571 0082 191F     		subs	r1, r3, #4
 572 0084 BB6A     		ldr	r3, [r7, #40]
 573 0086 0193     		str	r3, [sp, #4]
 574 0088 3B68     		ldr	r3, [r7]
 575 008a 0093     		str	r3, [sp]
 576 008c 7B68     		ldr	r3, [r7, #4]
 577 008e BA68     		ldr	r2, [r7, #8]
 578 0090 FFF7FEFF 		bl	ssl_cookie_hmac
 579 0094 7861     		str	r0, [r7, #20]
 188:C:/Users/dtjld/workspace/AIoT/src/LiteOS_Lab/iot_link/network/dtls/mbedtls/mbedtls-2.16.2/library\ssl_cookie.c ****                            p, end, cli_id, cli_id_len );
 189:C:/Users/dtjld/workspace/AIoT/src/LiteOS_Lab/iot_link/network/dtls/mbedtls/mbedtls-2.16.2/library\ssl_cookie.c **** 
 190:C:/Users/dtjld/workspace/AIoT/src/LiteOS_Lab/iot_link/network/dtls/mbedtls/mbedtls-2.16.2/library\ssl_cookie.c **** #if defined(MBEDTLS_THREADING_C)
 191:C:/Users/dtjld/workspace/AIoT/src/LiteOS_Lab/iot_link/network/dtls/mbedtls/mbedtls-2.16.2/library\ssl_cookie.c ****     if( mbedtls_mutex_unlock( &ctx->mutex ) != 0 )
 192:C:/Users/dtjld/workspace/AIoT/src/LiteOS_Lab/iot_link/network/dtls/mbedtls/mbedtls-2.16.2/library\ssl_cookie.c ****         return( MBEDTLS_ERR_SSL_INTERNAL_ERROR +
 193:C:/Users/dtjld/workspace/AIoT/src/LiteOS_Lab/iot_link/network/dtls/mbedtls/mbedtls-2.16.2/library\ssl_cookie.c ****                 MBEDTLS_ERR_THREADING_MUTEX_ERROR );
 194:C:/Users/dtjld/workspace/AIoT/src/LiteOS_Lab/iot_link/network/dtls/mbedtls/mbedtls-2.16.2/library\ssl_cookie.c **** #endif
 195:C:/Users/dtjld/workspace/AIoT/src/LiteOS_Lab/iot_link/network/dtls/mbedtls/mbedtls-2.16.2/library\ssl_cookie.c **** 
 196:C:/Users/dtjld/workspace/AIoT/src/LiteOS_Lab/iot_link/network/dtls/mbedtls/mbedtls-2.16.2/library\ssl_cookie.c ****     return( ret );
 580              		.loc 2 196 0
 581 0096 7B69     		ldr	r3, [r7, #20]
 582              	.L25:
 197:C:/Users/dtjld/workspace/AIoT/src/LiteOS_Lab/iot_link/network/dtls/mbedtls/mbedtls-2.16.2/library\ssl_cookie.c **** }
 583              		.loc 2 197 0
 584 0098 1846     		mov	r0, r3
 585 009a 2037     		adds	r7, r7, #32
 586              	.LCFI35:
 587              		.cfi_def_cfa_offset 8
 588 009c BD46     		mov	sp, r7
 589              	.LCFI36:
 590              		.cfi_def_cfa_register 13
 591              		@ sp needed
ARM GAS  C:\Users\dtjld\AppData\Local\Temp\cc0z6O28.s 			page 28


 592 009e 80BD     		pop	{r7, pc}
 593              	.L28:
 594              		.align	2
 595              	.L27:
 596 00a0 008FFFFF 		.word	-28928
 597 00a4 0096FFFF 		.word	-27136
 598              		.cfi_endproc
 599              	.LFE31:
 601              		.section	.text.mbedtls_ssl_cookie_check,"ax",%progbits
 602              		.align	1
 603              		.global	mbedtls_ssl_cookie_check
 604              		.syntax unified
 605              		.thumb
 606              		.thumb_func
 607              		.fpu fpv4-sp-d16
 609              	mbedtls_ssl_cookie_check:
 610              	.LFB32:
 198:C:/Users/dtjld/workspace/AIoT/src/LiteOS_Lab/iot_link/network/dtls/mbedtls/mbedtls-2.16.2/library\ssl_cookie.c **** 
 199:C:/Users/dtjld/workspace/AIoT/src/LiteOS_Lab/iot_link/network/dtls/mbedtls/mbedtls-2.16.2/library\ssl_cookie.c **** /*
 200:C:/Users/dtjld/workspace/AIoT/src/LiteOS_Lab/iot_link/network/dtls/mbedtls/mbedtls-2.16.2/library\ssl_cookie.c ****  * Check a cookie
 201:C:/Users/dtjld/workspace/AIoT/src/LiteOS_Lab/iot_link/network/dtls/mbedtls/mbedtls-2.16.2/library\ssl_cookie.c ****  */
 202:C:/Users/dtjld/workspace/AIoT/src/LiteOS_Lab/iot_link/network/dtls/mbedtls/mbedtls-2.16.2/library\ssl_cookie.c **** int mbedtls_ssl_cookie_check( void *p_ctx,
 203:C:/Users/dtjld/workspace/AIoT/src/LiteOS_Lab/iot_link/network/dtls/mbedtls/mbedtls-2.16.2/library\ssl_cookie.c ****                       const unsigned char *cookie, size_t cookie_len,
 204:C:/Users/dtjld/workspace/AIoT/src/LiteOS_Lab/iot_link/network/dtls/mbedtls/mbedtls-2.16.2/library\ssl_cookie.c ****                       const unsigned char *cli_id, size_t cli_id_len )
 205:C:/Users/dtjld/workspace/AIoT/src/LiteOS_Lab/iot_link/network/dtls/mbedtls/mbedtls-2.16.2/library\ssl_cookie.c **** {
 611              		.loc 2 205 0
 612              		.cfi_startproc
 613              		@ args = 4, pretend = 0, frame = 64
 614              		@ frame_needed = 1, uses_anonymous_args = 0
 615 0000 80B5     		push	{r7, lr}
 616              	.LCFI37:
 617              		.cfi_def_cfa_offset 8
 618              		.cfi_offset 7, -8
 619              		.cfi_offset 14, -4
 620 0002 92B0     		sub	sp, sp, #72
 621              	.LCFI38:
 622              		.cfi_def_cfa_offset 80
 623 0004 02AF     		add	r7, sp, #8
 624              	.LCFI39:
 625              		.cfi_def_cfa 7, 72
 626 0006 F860     		str	r0, [r7, #12]
 627 0008 B960     		str	r1, [r7, #8]
 628 000a 7A60     		str	r2, [r7, #4]
 629 000c 3B60     		str	r3, [r7]
 206:C:/Users/dtjld/workspace/AIoT/src/LiteOS_Lab/iot_link/network/dtls/mbedtls/mbedtls-2.16.2/library\ssl_cookie.c ****     unsigned char ref_hmac[COOKIE_HMAC_LEN];
 207:C:/Users/dtjld/workspace/AIoT/src/LiteOS_Lab/iot_link/network/dtls/mbedtls/mbedtls-2.16.2/library\ssl_cookie.c ****     int ret = 0;
 630              		.loc 2 207 0
 631 000e 0023     		movs	r3, #0
 632 0010 FB63     		str	r3, [r7, #60]
 208:C:/Users/dtjld/workspace/AIoT/src/LiteOS_Lab/iot_link/network/dtls/mbedtls/mbedtls-2.16.2/library\ssl_cookie.c ****     unsigned char *p = ref_hmac;
 633              		.loc 2 208 0
 634 0012 07F11403 		add	r3, r7, #20
 635 0016 3B61     		str	r3, [r7, #16]
 209:C:/Users/dtjld/workspace/AIoT/src/LiteOS_Lab/iot_link/network/dtls/mbedtls/mbedtls-2.16.2/library\ssl_cookie.c ****     mbedtls_ssl_cookie_ctx *ctx = (mbedtls_ssl_cookie_ctx *) p_ctx;
 636              		.loc 2 209 0
 637 0018 FB68     		ldr	r3, [r7, #12]
 638 001a BB63     		str	r3, [r7, #56]
ARM GAS  C:\Users\dtjld\AppData\Local\Temp\cc0z6O28.s 			page 29


 210:C:/Users/dtjld/workspace/AIoT/src/LiteOS_Lab/iot_link/network/dtls/mbedtls/mbedtls-2.16.2/library\ssl_cookie.c ****     unsigned long cur_time, cookie_time;
 211:C:/Users/dtjld/workspace/AIoT/src/LiteOS_Lab/iot_link/network/dtls/mbedtls/mbedtls-2.16.2/library\ssl_cookie.c **** 
 212:C:/Users/dtjld/workspace/AIoT/src/LiteOS_Lab/iot_link/network/dtls/mbedtls/mbedtls-2.16.2/library\ssl_cookie.c ****     if( ctx == NULL || cli_id == NULL )
 639              		.loc 2 212 0
 640 001c BB6B     		ldr	r3, [r7, #56]
 641 001e 002B     		cmp	r3, #0
 642 0020 02D0     		beq	.L30
 643              		.loc 2 212 0 is_stmt 0 discriminator 1
 644 0022 3B68     		ldr	r3, [r7]
 645 0024 002B     		cmp	r3, #0
 646 0026 01D1     		bne	.L31
 647              	.L30:
 213:C:/Users/dtjld/workspace/AIoT/src/LiteOS_Lab/iot_link/network/dtls/mbedtls/mbedtls-2.16.2/library\ssl_cookie.c ****         return( MBEDTLS_ERR_SSL_BAD_INPUT_DATA );
 648              		.loc 2 213 0 is_stmt 1
 649 0028 2B4B     		ldr	r3, .L39
 650 002a 50E0     		b	.L38
 651              	.L31:
 214:C:/Users/dtjld/workspace/AIoT/src/LiteOS_Lab/iot_link/network/dtls/mbedtls/mbedtls-2.16.2/library\ssl_cookie.c **** 
 215:C:/Users/dtjld/workspace/AIoT/src/LiteOS_Lab/iot_link/network/dtls/mbedtls/mbedtls-2.16.2/library\ssl_cookie.c ****     if( cookie_len != COOKIE_LEN )
 652              		.loc 2 215 0
 653 002c 7B68     		ldr	r3, [r7, #4]
 654 002e 202B     		cmp	r3, #32
 655 0030 02D0     		beq	.L33
 216:C:/Users/dtjld/workspace/AIoT/src/LiteOS_Lab/iot_link/network/dtls/mbedtls/mbedtls-2.16.2/library\ssl_cookie.c ****         return( -1 );
 656              		.loc 2 216 0
 657 0032 4FF0FF33 		mov	r3, #-1
 658 0036 4AE0     		b	.L38
 659              	.L33:
 217:C:/Users/dtjld/workspace/AIoT/src/LiteOS_Lab/iot_link/network/dtls/mbedtls/mbedtls-2.16.2/library\ssl_cookie.c **** 
 218:C:/Users/dtjld/workspace/AIoT/src/LiteOS_Lab/iot_link/network/dtls/mbedtls/mbedtls-2.16.2/library\ssl_cookie.c **** #if defined(MBEDTLS_THREADING_C)
 219:C:/Users/dtjld/workspace/AIoT/src/LiteOS_Lab/iot_link/network/dtls/mbedtls/mbedtls-2.16.2/library\ssl_cookie.c ****     if( ( ret = mbedtls_mutex_lock( &ctx->mutex ) ) != 0 )
 220:C:/Users/dtjld/workspace/AIoT/src/LiteOS_Lab/iot_link/network/dtls/mbedtls/mbedtls-2.16.2/library\ssl_cookie.c ****         return( MBEDTLS_ERR_SSL_INTERNAL_ERROR + ret );
 221:C:/Users/dtjld/workspace/AIoT/src/LiteOS_Lab/iot_link/network/dtls/mbedtls/mbedtls-2.16.2/library\ssl_cookie.c **** #endif
 222:C:/Users/dtjld/workspace/AIoT/src/LiteOS_Lab/iot_link/network/dtls/mbedtls/mbedtls-2.16.2/library\ssl_cookie.c **** 
 223:C:/Users/dtjld/workspace/AIoT/src/LiteOS_Lab/iot_link/network/dtls/mbedtls/mbedtls-2.16.2/library\ssl_cookie.c ****     if( ssl_cookie_hmac( &ctx->hmac_ctx, cookie,
 660              		.loc 2 223 0
 661 0038 B86B     		ldr	r0, [r7, #56]
 662 003a 3B69     		ldr	r3, [r7, #16]
 663 003c 03F11C01 		add	r1, r3, #28
 664 0040 07F11002 		add	r2, r7, #16
 665 0044 BB6C     		ldr	r3, [r7, #72]
 666 0046 0193     		str	r3, [sp, #4]
 667 0048 3B68     		ldr	r3, [r7]
 668 004a 0093     		str	r3, [sp]
 669 004c 0B46     		mov	r3, r1
 670 004e B968     		ldr	r1, [r7, #8]
 671 0050 FFF7FEFF 		bl	ssl_cookie_hmac
 672 0054 0346     		mov	r3, r0
 673 0056 002B     		cmp	r3, #0
 674 0058 02D0     		beq	.L34
 224:C:/Users/dtjld/workspace/AIoT/src/LiteOS_Lab/iot_link/network/dtls/mbedtls/mbedtls-2.16.2/library\ssl_cookie.c ****                          &p, p + sizeof( ref_hmac ),
 225:C:/Users/dtjld/workspace/AIoT/src/LiteOS_Lab/iot_link/network/dtls/mbedtls/mbedtls-2.16.2/library\ssl_cookie.c ****                          cli_id, cli_id_len ) != 0 )
 226:C:/Users/dtjld/workspace/AIoT/src/LiteOS_Lab/iot_link/network/dtls/mbedtls/mbedtls-2.16.2/library\ssl_cookie.c ****         ret = -1;
 675              		.loc 2 226 0
 676 005a 4FF0FF33 		mov	r3, #-1
 677 005e FB63     		str	r3, [r7, #60]
 678              	.L34:
ARM GAS  C:\Users\dtjld\AppData\Local\Temp\cc0z6O28.s 			page 30


 227:C:/Users/dtjld/workspace/AIoT/src/LiteOS_Lab/iot_link/network/dtls/mbedtls/mbedtls-2.16.2/library\ssl_cookie.c **** 
 228:C:/Users/dtjld/workspace/AIoT/src/LiteOS_Lab/iot_link/network/dtls/mbedtls/mbedtls-2.16.2/library\ssl_cookie.c **** #if defined(MBEDTLS_THREADING_C)
 229:C:/Users/dtjld/workspace/AIoT/src/LiteOS_Lab/iot_link/network/dtls/mbedtls/mbedtls-2.16.2/library\ssl_cookie.c ****     if( mbedtls_mutex_unlock( &ctx->mutex ) != 0 )
 230:C:/Users/dtjld/workspace/AIoT/src/LiteOS_Lab/iot_link/network/dtls/mbedtls/mbedtls-2.16.2/library\ssl_cookie.c ****         return( MBEDTLS_ERR_SSL_INTERNAL_ERROR +
 231:C:/Users/dtjld/workspace/AIoT/src/LiteOS_Lab/iot_link/network/dtls/mbedtls/mbedtls-2.16.2/library\ssl_cookie.c ****                 MBEDTLS_ERR_THREADING_MUTEX_ERROR );
 232:C:/Users/dtjld/workspace/AIoT/src/LiteOS_Lab/iot_link/network/dtls/mbedtls/mbedtls-2.16.2/library\ssl_cookie.c **** #endif
 233:C:/Users/dtjld/workspace/AIoT/src/LiteOS_Lab/iot_link/network/dtls/mbedtls/mbedtls-2.16.2/library\ssl_cookie.c **** 
 234:C:/Users/dtjld/workspace/AIoT/src/LiteOS_Lab/iot_link/network/dtls/mbedtls/mbedtls-2.16.2/library\ssl_cookie.c ****     if( ret != 0 )
 679              		.loc 2 234 0
 680 0060 FB6B     		ldr	r3, [r7, #60]
 681 0062 002B     		cmp	r3, #0
 682 0064 01D0     		beq	.L35
 235:C:/Users/dtjld/workspace/AIoT/src/LiteOS_Lab/iot_link/network/dtls/mbedtls/mbedtls-2.16.2/library\ssl_cookie.c ****         return( ret );
 683              		.loc 2 235 0
 684 0066 FB6B     		ldr	r3, [r7, #60]
 685 0068 31E0     		b	.L38
 686              	.L35:
 236:C:/Users/dtjld/workspace/AIoT/src/LiteOS_Lab/iot_link/network/dtls/mbedtls/mbedtls-2.16.2/library\ssl_cookie.c **** 
 237:C:/Users/dtjld/workspace/AIoT/src/LiteOS_Lab/iot_link/network/dtls/mbedtls/mbedtls-2.16.2/library\ssl_cookie.c ****     if( mbedtls_ssl_safer_memcmp( cookie + 4, ref_hmac, sizeof( ref_hmac ) ) != 0 )
 687              		.loc 2 237 0
 688 006a BB68     		ldr	r3, [r7, #8]
 689 006c 0433     		adds	r3, r3, #4
 690 006e 07F11401 		add	r1, r7, #20
 691 0072 1C22     		movs	r2, #28
 692 0074 1846     		mov	r0, r3
 693 0076 FFF7FEFF 		bl	mbedtls_ssl_safer_memcmp
 694 007a 0346     		mov	r3, r0
 695 007c 002B     		cmp	r3, #0
 696 007e 02D0     		beq	.L36
 238:C:/Users/dtjld/workspace/AIoT/src/LiteOS_Lab/iot_link/network/dtls/mbedtls/mbedtls-2.16.2/library\ssl_cookie.c ****         return( -1 );
 697              		.loc 2 238 0
 698 0080 4FF0FF33 		mov	r3, #-1
 699 0084 23E0     		b	.L38
 700              	.L36:
 239:C:/Users/dtjld/workspace/AIoT/src/LiteOS_Lab/iot_link/network/dtls/mbedtls/mbedtls-2.16.2/library\ssl_cookie.c **** 
 240:C:/Users/dtjld/workspace/AIoT/src/LiteOS_Lab/iot_link/network/dtls/mbedtls/mbedtls-2.16.2/library\ssl_cookie.c **** #if defined(MBEDTLS_HAVE_TIME)
 241:C:/Users/dtjld/workspace/AIoT/src/LiteOS_Lab/iot_link/network/dtls/mbedtls/mbedtls-2.16.2/library\ssl_cookie.c ****     cur_time = (unsigned long) mbedtls_time( NULL );
 242:C:/Users/dtjld/workspace/AIoT/src/LiteOS_Lab/iot_link/network/dtls/mbedtls/mbedtls-2.16.2/library\ssl_cookie.c **** #else
 243:C:/Users/dtjld/workspace/AIoT/src/LiteOS_Lab/iot_link/network/dtls/mbedtls/mbedtls-2.16.2/library\ssl_cookie.c ****     cur_time = ctx->serial;
 701              		.loc 2 243 0
 702 0086 BB6B     		ldr	r3, [r7, #56]
 703 0088 DB68     		ldr	r3, [r3, #12]
 704 008a 7B63     		str	r3, [r7, #52]
 244:C:/Users/dtjld/workspace/AIoT/src/LiteOS_Lab/iot_link/network/dtls/mbedtls/mbedtls-2.16.2/library\ssl_cookie.c **** #endif
 245:C:/Users/dtjld/workspace/AIoT/src/LiteOS_Lab/iot_link/network/dtls/mbedtls/mbedtls-2.16.2/library\ssl_cookie.c **** 
 246:C:/Users/dtjld/workspace/AIoT/src/LiteOS_Lab/iot_link/network/dtls/mbedtls/mbedtls-2.16.2/library\ssl_cookie.c ****     cookie_time = ( (unsigned long) cookie[0] << 24 ) |
 705              		.loc 2 246 0
 706 008c BB68     		ldr	r3, [r7, #8]
 707 008e 1B78     		ldrb	r3, [r3]	@ zero_extendqisi2
 708 0090 1A06     		lsls	r2, r3, #24
 247:C:/Users/dtjld/workspace/AIoT/src/LiteOS_Lab/iot_link/network/dtls/mbedtls/mbedtls-2.16.2/library\ssl_cookie.c ****                   ( (unsigned long) cookie[1] << 16 ) |
 709              		.loc 2 247 0
 710 0092 BB68     		ldr	r3, [r7, #8]
 711 0094 0133     		adds	r3, r3, #1
 712 0096 1B78     		ldrb	r3, [r3]	@ zero_extendqisi2
 713 0098 1B04     		lsls	r3, r3, #16
 246:C:/Users/dtjld/workspace/AIoT/src/LiteOS_Lab/iot_link/network/dtls/mbedtls/mbedtls-2.16.2/library\ssl_cookie.c ****                   ( (unsigned long) cookie[1] << 16 ) |
ARM GAS  C:\Users\dtjld\AppData\Local\Temp\cc0z6O28.s 			page 31


 714              		.loc 2 246 0
 715 009a 1A43     		orrs	r2, r2, r3
 248:C:/Users/dtjld/workspace/AIoT/src/LiteOS_Lab/iot_link/network/dtls/mbedtls/mbedtls-2.16.2/library\ssl_cookie.c ****                   ( (unsigned long) cookie[2] <<  8 ) |
 716              		.loc 2 248 0
 717 009c BB68     		ldr	r3, [r7, #8]
 718 009e 0233     		adds	r3, r3, #2
 719 00a0 1B78     		ldrb	r3, [r3]	@ zero_extendqisi2
 720 00a2 1B02     		lsls	r3, r3, #8
 247:C:/Users/dtjld/workspace/AIoT/src/LiteOS_Lab/iot_link/network/dtls/mbedtls/mbedtls-2.16.2/library\ssl_cookie.c ****                   ( (unsigned long) cookie[1] << 16 ) |
 721              		.loc 2 247 0
 722 00a4 1343     		orrs	r3, r3, r2
 249:C:/Users/dtjld/workspace/AIoT/src/LiteOS_Lab/iot_link/network/dtls/mbedtls/mbedtls-2.16.2/library\ssl_cookie.c ****                   ( (unsigned long) cookie[3]       );
 723              		.loc 2 249 0
 724 00a6 BA68     		ldr	r2, [r7, #8]
 725 00a8 0332     		adds	r2, r2, #3
 726 00aa 1278     		ldrb	r2, [r2]	@ zero_extendqisi2
 246:C:/Users/dtjld/workspace/AIoT/src/LiteOS_Lab/iot_link/network/dtls/mbedtls/mbedtls-2.16.2/library\ssl_cookie.c ****                   ( (unsigned long) cookie[1] << 16 ) |
 727              		.loc 2 246 0
 728 00ac 1343     		orrs	r3, r3, r2
 729 00ae 3B63     		str	r3, [r7, #48]
 250:C:/Users/dtjld/workspace/AIoT/src/LiteOS_Lab/iot_link/network/dtls/mbedtls/mbedtls-2.16.2/library\ssl_cookie.c **** 
 251:C:/Users/dtjld/workspace/AIoT/src/LiteOS_Lab/iot_link/network/dtls/mbedtls/mbedtls-2.16.2/library\ssl_cookie.c ****     if( ctx->timeout != 0 && cur_time - cookie_time > ctx->timeout )
 730              		.loc 2 251 0
 731 00b0 BB6B     		ldr	r3, [r7, #56]
 732 00b2 1B69     		ldr	r3, [r3, #16]
 733 00b4 002B     		cmp	r3, #0
 734 00b6 09D0     		beq	.L37
 735              		.loc 2 251 0 is_stmt 0 discriminator 1
 736 00b8 7A6B     		ldr	r2, [r7, #52]
 737 00ba 3B6B     		ldr	r3, [r7, #48]
 738 00bc D21A     		subs	r2, r2, r3
 739 00be BB6B     		ldr	r3, [r7, #56]
 740 00c0 1B69     		ldr	r3, [r3, #16]
 741 00c2 9A42     		cmp	r2, r3
 742 00c4 02D9     		bls	.L37
 252:C:/Users/dtjld/workspace/AIoT/src/LiteOS_Lab/iot_link/network/dtls/mbedtls/mbedtls-2.16.2/library\ssl_cookie.c ****         return( -1 );
 743              		.loc 2 252 0 is_stmt 1
 744 00c6 4FF0FF33 		mov	r3, #-1
 745 00ca 00E0     		b	.L38
 746              	.L37:
 253:C:/Users/dtjld/workspace/AIoT/src/LiteOS_Lab/iot_link/network/dtls/mbedtls/mbedtls-2.16.2/library\ssl_cookie.c **** 
 254:C:/Users/dtjld/workspace/AIoT/src/LiteOS_Lab/iot_link/network/dtls/mbedtls/mbedtls-2.16.2/library\ssl_cookie.c ****     return( 0 );
 747              		.loc 2 254 0
 748 00cc 0023     		movs	r3, #0
 749              	.L38:
 255:C:/Users/dtjld/workspace/AIoT/src/LiteOS_Lab/iot_link/network/dtls/mbedtls/mbedtls-2.16.2/library\ssl_cookie.c **** }
 750              		.loc 2 255 0 discriminator 1
 751 00ce 1846     		mov	r0, r3
 752 00d0 4037     		adds	r7, r7, #64
 753              	.LCFI40:
 754              		.cfi_def_cfa_offset 8
 755 00d2 BD46     		mov	sp, r7
 756              	.LCFI41:
 757              		.cfi_def_cfa_register 13
 758              		@ sp needed
 759 00d4 80BD     		pop	{r7, pc}
 760              	.L40:
ARM GAS  C:\Users\dtjld\AppData\Local\Temp\cc0z6O28.s 			page 32


 761 00d6 00BF     		.align	2
 762              	.L39:
 763 00d8 008FFFFF 		.word	-28928
 764              		.cfi_endproc
 765              	.LFE32:
 767              		.text
 768              	.Letext0:
 769              		.file 3 "c:\\ac6\\systemworkbench\\plugins\\fr.ac6.mcu.externaltools.arm-none.win32_1.16.0.2018071
 770              		.file 4 "c:\\ac6\\systemworkbench\\plugins\\fr.ac6.mcu.externaltools.arm-none.win32_1.16.0.2018071
 771              		.file 5 "c:\\ac6\\systemworkbench\\plugins\\fr.ac6.mcu.externaltools.arm-none.win32_1.16.0.2018071
 772              		.file 6 "c:\\ac6\\systemworkbench\\plugins\\fr.ac6.mcu.externaltools.arm-none.win32_1.16.0.2018071
 773              		.file 7 "c:\\ac6\\systemworkbench\\plugins\\fr.ac6.mcu.externaltools.arm-none.win32_1.16.0.2018071
 774              		.file 8 "c:\\ac6\\systemworkbench\\plugins\\fr.ac6.mcu.externaltools.arm-none.win32_1.16.0.2018071
 775              		.file 9 "c:\\ac6\\systemworkbench\\plugins\\fr.ac6.mcu.externaltools.arm-none.win32_1.16.0.2018071
 776              		.file 10 "c:\\ac6\\systemworkbench\\plugins\\fr.ac6.mcu.externaltools.arm-none.win32_1.16.0.201807
 777              		.file 11 "C:/Users/dtjld/workspace/AIoT/src/LiteOS_Lab/iot_link/network/dtls/mbedtls/mbedtls-2.16.
 778              		.file 12 "C:/Users/dtjld/workspace/AIoT/src/LiteOS_Lab/iot_link/network/dtls/mbedtls/mbedtls-2.16.
 779              		.file 13 "C:/Users/dtjld/workspace/AIoT/src/LiteOS_Lab/iot_link/network/dtls/mbedtls/mbedtls-2.16.
 780              		.file 14 "C:/Users/dtjld/workspace/AIoT/src/LiteOS_Lab/iot_link/network/dtls/mbedtls/mbedtls-2.16.
ARM GAS  C:\Users\dtjld\AppData\Local\Temp\cc0z6O28.s 			page 33


DEFINED SYMBOLS
                            *ABS*:00000000 ssl_cookie.c
C:\Users\dtjld\AppData\Local\Temp\cc0z6O28.s:18     .text.mbedtls_ssl_safer_memcmp:00000000 $t
C:\Users\dtjld\AppData\Local\Temp\cc0z6O28.s:24     .text.mbedtls_ssl_safer_memcmp:00000000 mbedtls_ssl_safer_memcmp
C:\Users\dtjld\AppData\Local\Temp\cc0z6O28.s:113    .text.mbedtls_ssl_cookie_init:00000000 $t
C:\Users\dtjld\AppData\Local\Temp\cc0z6O28.s:120    .text.mbedtls_ssl_cookie_init:00000000 mbedtls_ssl_cookie_init
C:\Users\dtjld\AppData\Local\Temp\cc0z6O28.s:165    .text.mbedtls_ssl_cookie_set_timeout:00000000 $t
C:\Users\dtjld\AppData\Local\Temp\cc0z6O28.s:172    .text.mbedtls_ssl_cookie_set_timeout:00000000 mbedtls_ssl_cookie_set_timeout
C:\Users\dtjld\AppData\Local\Temp\cc0z6O28.s:213    .text.mbedtls_ssl_cookie_free:00000000 $t
C:\Users\dtjld\AppData\Local\Temp\cc0z6O28.s:220    .text.mbedtls_ssl_cookie_free:00000000 mbedtls_ssl_cookie_free
C:\Users\dtjld\AppData\Local\Temp\cc0z6O28.s:260    .text.mbedtls_ssl_cookie_setup:00000000 $t
C:\Users\dtjld\AppData\Local\Temp\cc0z6O28.s:267    .text.mbedtls_ssl_cookie_setup:00000000 mbedtls_ssl_cookie_setup
C:\Users\dtjld\AppData\Local\Temp\cc0z6O28.s:358    .text.ssl_cookie_hmac:00000000 $t
C:\Users\dtjld\AppData\Local\Temp\cc0z6O28.s:364    .text.ssl_cookie_hmac:00000000 ssl_cookie_hmac
C:\Users\dtjld\AppData\Local\Temp\cc0z6O28.s:463    .text.ssl_cookie_hmac:00000088 $d
C:\Users\dtjld\AppData\Local\Temp\cc0z6O28.s:469    .text.mbedtls_ssl_cookie_write:00000000 $t
C:\Users\dtjld\AppData\Local\Temp\cc0z6O28.s:476    .text.mbedtls_ssl_cookie_write:00000000 mbedtls_ssl_cookie_write
C:\Users\dtjld\AppData\Local\Temp\cc0z6O28.s:596    .text.mbedtls_ssl_cookie_write:000000a0 $d
C:\Users\dtjld\AppData\Local\Temp\cc0z6O28.s:602    .text.mbedtls_ssl_cookie_check:00000000 $t
C:\Users\dtjld\AppData\Local\Temp\cc0z6O28.s:609    .text.mbedtls_ssl_cookie_check:00000000 mbedtls_ssl_cookie_check
C:\Users\dtjld\AppData\Local\Temp\cc0z6O28.s:763    .text.mbedtls_ssl_cookie_check:000000d8 $d

UNDEFINED SYMBOLS
mbedtls_md_init
mbedtls_md_free
mbedtls_platform_zeroize
mbedtls_md_info_from_type
mbedtls_md_setup
mbedtls_md_hmac_starts
mbedtls_md_hmac_reset
mbedtls_md_hmac_update
mbedtls_md_hmac_finish
memcpy
