ARM GAS  C:\Users\dtjld\AppData\Local\Temp\ccA8prOd.s 			page 1


   1              		.cpu cortex-m4
   2              		.eabi_attribute 27, 1
   3              		.eabi_attribute 28, 1
   4              		.eabi_attribute 20, 1
   5              		.eabi_attribute 21, 1
   6              		.eabi_attribute 23, 3
   7              		.eabi_attribute 24, 1
   8              		.eabi_attribute 25, 1
   9              		.eabi_attribute 26, 1
  10              		.eabi_attribute 30, 6
  11              		.eabi_attribute 34, 1
  12              		.eabi_attribute 18, 4
  13              		.file	"ssl_cli.c"
  14              		.text
  15              	.Ltext0:
  16              		.cfi_sections	.debug_frame
  17              		.section	.text.mbedtls_pk_ec,"ax",%progbits
  18              		.align	1
  19              		.syntax unified
  20              		.thumb
  21              		.thumb_func
  22              		.fpu fpv4-sp-d16
  24              	mbedtls_pk_ec:
  25              	.LFB4:
  26              		.file 1 "C:/Users/dtjld/workspace/AIoT/src/LiteOS_Lab/iot_link/network/dtls/mbedtls/mbedtls-2.16.2
   1:C:/Users/dtjld/workspace/AIoT/src/LiteOS_Lab/iot_link/network/dtls/mbedtls/mbedtls-2.16.2/include/mbedtls\pk.h **** /**
   2:C:/Users/dtjld/workspace/AIoT/src/LiteOS_Lab/iot_link/network/dtls/mbedtls/mbedtls-2.16.2/include/mbedtls\pk.h ****  * \file pk.h
   3:C:/Users/dtjld/workspace/AIoT/src/LiteOS_Lab/iot_link/network/dtls/mbedtls/mbedtls-2.16.2/include/mbedtls\pk.h ****  *
   4:C:/Users/dtjld/workspace/AIoT/src/LiteOS_Lab/iot_link/network/dtls/mbedtls/mbedtls-2.16.2/include/mbedtls\pk.h ****  * \brief Public Key abstraction layer
   5:C:/Users/dtjld/workspace/AIoT/src/LiteOS_Lab/iot_link/network/dtls/mbedtls/mbedtls-2.16.2/include/mbedtls\pk.h ****  */
   6:C:/Users/dtjld/workspace/AIoT/src/LiteOS_Lab/iot_link/network/dtls/mbedtls/mbedtls-2.16.2/include/mbedtls\pk.h **** /*
   7:C:/Users/dtjld/workspace/AIoT/src/LiteOS_Lab/iot_link/network/dtls/mbedtls/mbedtls-2.16.2/include/mbedtls\pk.h ****  *  Copyright (C) 2006-2015, ARM Limited, All Rights Reserved
   8:C:/Users/dtjld/workspace/AIoT/src/LiteOS_Lab/iot_link/network/dtls/mbedtls/mbedtls-2.16.2/include/mbedtls\pk.h ****  *  SPDX-License-Identifier: Apache-2.0
   9:C:/Users/dtjld/workspace/AIoT/src/LiteOS_Lab/iot_link/network/dtls/mbedtls/mbedtls-2.16.2/include/mbedtls\pk.h ****  *
  10:C:/Users/dtjld/workspace/AIoT/src/LiteOS_Lab/iot_link/network/dtls/mbedtls/mbedtls-2.16.2/include/mbedtls\pk.h ****  *  Licensed under the Apache License, Version 2.0 (the "License"); you may
  11:C:/Users/dtjld/workspace/AIoT/src/LiteOS_Lab/iot_link/network/dtls/mbedtls/mbedtls-2.16.2/include/mbedtls\pk.h ****  *  not use this file except in compliance with the License.
  12:C:/Users/dtjld/workspace/AIoT/src/LiteOS_Lab/iot_link/network/dtls/mbedtls/mbedtls-2.16.2/include/mbedtls\pk.h ****  *  You may obtain a copy of the License at
  13:C:/Users/dtjld/workspace/AIoT/src/LiteOS_Lab/iot_link/network/dtls/mbedtls/mbedtls-2.16.2/include/mbedtls\pk.h ****  *
  14:C:/Users/dtjld/workspace/AIoT/src/LiteOS_Lab/iot_link/network/dtls/mbedtls/mbedtls-2.16.2/include/mbedtls\pk.h ****  *  http://www.apache.org/licenses/LICENSE-2.0
  15:C:/Users/dtjld/workspace/AIoT/src/LiteOS_Lab/iot_link/network/dtls/mbedtls/mbedtls-2.16.2/include/mbedtls\pk.h ****  *
  16:C:/Users/dtjld/workspace/AIoT/src/LiteOS_Lab/iot_link/network/dtls/mbedtls/mbedtls-2.16.2/include/mbedtls\pk.h ****  *  Unless required by applicable law or agreed to in writing, software
  17:C:/Users/dtjld/workspace/AIoT/src/LiteOS_Lab/iot_link/network/dtls/mbedtls/mbedtls-2.16.2/include/mbedtls\pk.h ****  *  distributed under the License is distributed on an "AS IS" BASIS, WITHOUT
  18:C:/Users/dtjld/workspace/AIoT/src/LiteOS_Lab/iot_link/network/dtls/mbedtls/mbedtls-2.16.2/include/mbedtls\pk.h ****  *  WARRANTIES OR CONDITIONS OF ANY KIND, either express or implied.
  19:C:/Users/dtjld/workspace/AIoT/src/LiteOS_Lab/iot_link/network/dtls/mbedtls/mbedtls-2.16.2/include/mbedtls\pk.h ****  *  See the License for the specific language governing permissions and
  20:C:/Users/dtjld/workspace/AIoT/src/LiteOS_Lab/iot_link/network/dtls/mbedtls/mbedtls-2.16.2/include/mbedtls\pk.h ****  *  limitations under the License.
  21:C:/Users/dtjld/workspace/AIoT/src/LiteOS_Lab/iot_link/network/dtls/mbedtls/mbedtls-2.16.2/include/mbedtls\pk.h ****  *
  22:C:/Users/dtjld/workspace/AIoT/src/LiteOS_Lab/iot_link/network/dtls/mbedtls/mbedtls-2.16.2/include/mbedtls\pk.h ****  *  This file is part of mbed TLS (https://tls.mbed.org)
  23:C:/Users/dtjld/workspace/AIoT/src/LiteOS_Lab/iot_link/network/dtls/mbedtls/mbedtls-2.16.2/include/mbedtls\pk.h ****  */
  24:C:/Users/dtjld/workspace/AIoT/src/LiteOS_Lab/iot_link/network/dtls/mbedtls/mbedtls-2.16.2/include/mbedtls\pk.h **** 
  25:C:/Users/dtjld/workspace/AIoT/src/LiteOS_Lab/iot_link/network/dtls/mbedtls/mbedtls-2.16.2/include/mbedtls\pk.h **** #ifndef MBEDTLS_PK_H
  26:C:/Users/dtjld/workspace/AIoT/src/LiteOS_Lab/iot_link/network/dtls/mbedtls/mbedtls-2.16.2/include/mbedtls\pk.h **** #define MBEDTLS_PK_H
  27:C:/Users/dtjld/workspace/AIoT/src/LiteOS_Lab/iot_link/network/dtls/mbedtls/mbedtls-2.16.2/include/mbedtls\pk.h **** 
  28:C:/Users/dtjld/workspace/AIoT/src/LiteOS_Lab/iot_link/network/dtls/mbedtls/mbedtls-2.16.2/include/mbedtls\pk.h **** #if !defined(MBEDTLS_CONFIG_FILE)
  29:C:/Users/dtjld/workspace/AIoT/src/LiteOS_Lab/iot_link/network/dtls/mbedtls/mbedtls-2.16.2/include/mbedtls\pk.h **** #include "config.h"
  30:C:/Users/dtjld/workspace/AIoT/src/LiteOS_Lab/iot_link/network/dtls/mbedtls/mbedtls-2.16.2/include/mbedtls\pk.h **** #else
  31:C:/Users/dtjld/workspace/AIoT/src/LiteOS_Lab/iot_link/network/dtls/mbedtls/mbedtls-2.16.2/include/mbedtls\pk.h **** #include MBEDTLS_CONFIG_FILE
  32:C:/Users/dtjld/workspace/AIoT/src/LiteOS_Lab/iot_link/network/dtls/mbedtls/mbedtls-2.16.2/include/mbedtls\pk.h **** #endif
ARM GAS  C:\Users\dtjld\AppData\Local\Temp\ccA8prOd.s 			page 2


  33:C:/Users/dtjld/workspace/AIoT/src/LiteOS_Lab/iot_link/network/dtls/mbedtls/mbedtls-2.16.2/include/mbedtls\pk.h **** 
  34:C:/Users/dtjld/workspace/AIoT/src/LiteOS_Lab/iot_link/network/dtls/mbedtls/mbedtls-2.16.2/include/mbedtls\pk.h **** #include "md.h"
  35:C:/Users/dtjld/workspace/AIoT/src/LiteOS_Lab/iot_link/network/dtls/mbedtls/mbedtls-2.16.2/include/mbedtls\pk.h **** 
  36:C:/Users/dtjld/workspace/AIoT/src/LiteOS_Lab/iot_link/network/dtls/mbedtls/mbedtls-2.16.2/include/mbedtls\pk.h **** #if defined(MBEDTLS_RSA_C)
  37:C:/Users/dtjld/workspace/AIoT/src/LiteOS_Lab/iot_link/network/dtls/mbedtls/mbedtls-2.16.2/include/mbedtls\pk.h **** #include "rsa.h"
  38:C:/Users/dtjld/workspace/AIoT/src/LiteOS_Lab/iot_link/network/dtls/mbedtls/mbedtls-2.16.2/include/mbedtls\pk.h **** #endif
  39:C:/Users/dtjld/workspace/AIoT/src/LiteOS_Lab/iot_link/network/dtls/mbedtls/mbedtls-2.16.2/include/mbedtls\pk.h **** 
  40:C:/Users/dtjld/workspace/AIoT/src/LiteOS_Lab/iot_link/network/dtls/mbedtls/mbedtls-2.16.2/include/mbedtls\pk.h **** #if defined(MBEDTLS_ECP_C)
  41:C:/Users/dtjld/workspace/AIoT/src/LiteOS_Lab/iot_link/network/dtls/mbedtls/mbedtls-2.16.2/include/mbedtls\pk.h **** #include "ecp.h"
  42:C:/Users/dtjld/workspace/AIoT/src/LiteOS_Lab/iot_link/network/dtls/mbedtls/mbedtls-2.16.2/include/mbedtls\pk.h **** #endif
  43:C:/Users/dtjld/workspace/AIoT/src/LiteOS_Lab/iot_link/network/dtls/mbedtls/mbedtls-2.16.2/include/mbedtls\pk.h **** 
  44:C:/Users/dtjld/workspace/AIoT/src/LiteOS_Lab/iot_link/network/dtls/mbedtls/mbedtls-2.16.2/include/mbedtls\pk.h **** #if defined(MBEDTLS_ECDSA_C)
  45:C:/Users/dtjld/workspace/AIoT/src/LiteOS_Lab/iot_link/network/dtls/mbedtls/mbedtls-2.16.2/include/mbedtls\pk.h **** #include "ecdsa.h"
  46:C:/Users/dtjld/workspace/AIoT/src/LiteOS_Lab/iot_link/network/dtls/mbedtls/mbedtls-2.16.2/include/mbedtls\pk.h **** #endif
  47:C:/Users/dtjld/workspace/AIoT/src/LiteOS_Lab/iot_link/network/dtls/mbedtls/mbedtls-2.16.2/include/mbedtls\pk.h **** 
  48:C:/Users/dtjld/workspace/AIoT/src/LiteOS_Lab/iot_link/network/dtls/mbedtls/mbedtls-2.16.2/include/mbedtls\pk.h **** #if ( defined(__ARMCC_VERSION) || defined(_MSC_VER) ) && \
  49:C:/Users/dtjld/workspace/AIoT/src/LiteOS_Lab/iot_link/network/dtls/mbedtls/mbedtls-2.16.2/include/mbedtls\pk.h ****     !defined(inline) && !defined(__cplusplus)
  50:C:/Users/dtjld/workspace/AIoT/src/LiteOS_Lab/iot_link/network/dtls/mbedtls/mbedtls-2.16.2/include/mbedtls\pk.h **** #define inline __inline
  51:C:/Users/dtjld/workspace/AIoT/src/LiteOS_Lab/iot_link/network/dtls/mbedtls/mbedtls-2.16.2/include/mbedtls\pk.h **** #endif
  52:C:/Users/dtjld/workspace/AIoT/src/LiteOS_Lab/iot_link/network/dtls/mbedtls/mbedtls-2.16.2/include/mbedtls\pk.h **** 
  53:C:/Users/dtjld/workspace/AIoT/src/LiteOS_Lab/iot_link/network/dtls/mbedtls/mbedtls-2.16.2/include/mbedtls\pk.h **** #define MBEDTLS_ERR_PK_ALLOC_FAILED        -0x3F80  /**< Memory allocation failed. */
  54:C:/Users/dtjld/workspace/AIoT/src/LiteOS_Lab/iot_link/network/dtls/mbedtls/mbedtls-2.16.2/include/mbedtls\pk.h **** #define MBEDTLS_ERR_PK_TYPE_MISMATCH       -0x3F00  /**< Type mismatch, eg attempt to encrypt with 
  55:C:/Users/dtjld/workspace/AIoT/src/LiteOS_Lab/iot_link/network/dtls/mbedtls/mbedtls-2.16.2/include/mbedtls\pk.h **** #define MBEDTLS_ERR_PK_BAD_INPUT_DATA      -0x3E80  /**< Bad input parameters to function. */
  56:C:/Users/dtjld/workspace/AIoT/src/LiteOS_Lab/iot_link/network/dtls/mbedtls/mbedtls-2.16.2/include/mbedtls\pk.h **** #define MBEDTLS_ERR_PK_FILE_IO_ERROR       -0x3E00  /**< Read/write of file failed. */
  57:C:/Users/dtjld/workspace/AIoT/src/LiteOS_Lab/iot_link/network/dtls/mbedtls/mbedtls-2.16.2/include/mbedtls\pk.h **** #define MBEDTLS_ERR_PK_KEY_INVALID_VERSION -0x3D80  /**< Unsupported key version */
  58:C:/Users/dtjld/workspace/AIoT/src/LiteOS_Lab/iot_link/network/dtls/mbedtls/mbedtls-2.16.2/include/mbedtls\pk.h **** #define MBEDTLS_ERR_PK_KEY_INVALID_FORMAT  -0x3D00  /**< Invalid key tag or value. */
  59:C:/Users/dtjld/workspace/AIoT/src/LiteOS_Lab/iot_link/network/dtls/mbedtls/mbedtls-2.16.2/include/mbedtls\pk.h **** #define MBEDTLS_ERR_PK_UNKNOWN_PK_ALG      -0x3C80  /**< Key algorithm is unsupported (only RSA and
  60:C:/Users/dtjld/workspace/AIoT/src/LiteOS_Lab/iot_link/network/dtls/mbedtls/mbedtls-2.16.2/include/mbedtls\pk.h **** #define MBEDTLS_ERR_PK_PASSWORD_REQUIRED   -0x3C00  /**< Private key password can't be empty. */
  61:C:/Users/dtjld/workspace/AIoT/src/LiteOS_Lab/iot_link/network/dtls/mbedtls/mbedtls-2.16.2/include/mbedtls\pk.h **** #define MBEDTLS_ERR_PK_PASSWORD_MISMATCH   -0x3B80  /**< Given private key password does not allow 
  62:C:/Users/dtjld/workspace/AIoT/src/LiteOS_Lab/iot_link/network/dtls/mbedtls/mbedtls-2.16.2/include/mbedtls\pk.h **** #define MBEDTLS_ERR_PK_INVALID_PUBKEY      -0x3B00  /**< The pubkey tag or value is invalid (only R
  63:C:/Users/dtjld/workspace/AIoT/src/LiteOS_Lab/iot_link/network/dtls/mbedtls/mbedtls-2.16.2/include/mbedtls\pk.h **** #define MBEDTLS_ERR_PK_INVALID_ALG         -0x3A80  /**< The algorithm tag or value is invalid. */
  64:C:/Users/dtjld/workspace/AIoT/src/LiteOS_Lab/iot_link/network/dtls/mbedtls/mbedtls-2.16.2/include/mbedtls\pk.h **** #define MBEDTLS_ERR_PK_UNKNOWN_NAMED_CURVE -0x3A00  /**< Elliptic curve is unsupported (only NIST c
  65:C:/Users/dtjld/workspace/AIoT/src/LiteOS_Lab/iot_link/network/dtls/mbedtls/mbedtls-2.16.2/include/mbedtls\pk.h **** #define MBEDTLS_ERR_PK_FEATURE_UNAVAILABLE -0x3980  /**< Unavailable feature, e.g. RSA disabled for
  66:C:/Users/dtjld/workspace/AIoT/src/LiteOS_Lab/iot_link/network/dtls/mbedtls/mbedtls-2.16.2/include/mbedtls\pk.h **** #define MBEDTLS_ERR_PK_SIG_LEN_MISMATCH    -0x3900  /**< The buffer contains a valid signature foll
  67:C:/Users/dtjld/workspace/AIoT/src/LiteOS_Lab/iot_link/network/dtls/mbedtls/mbedtls-2.16.2/include/mbedtls\pk.h **** 
  68:C:/Users/dtjld/workspace/AIoT/src/LiteOS_Lab/iot_link/network/dtls/mbedtls/mbedtls-2.16.2/include/mbedtls\pk.h **** /* MBEDTLS_ERR_PK_HW_ACCEL_FAILED is deprecated and should not be used. */
  69:C:/Users/dtjld/workspace/AIoT/src/LiteOS_Lab/iot_link/network/dtls/mbedtls/mbedtls-2.16.2/include/mbedtls\pk.h **** #define MBEDTLS_ERR_PK_HW_ACCEL_FAILED     -0x3880  /**< PK hardware accelerator failed. */
  70:C:/Users/dtjld/workspace/AIoT/src/LiteOS_Lab/iot_link/network/dtls/mbedtls/mbedtls-2.16.2/include/mbedtls\pk.h **** 
  71:C:/Users/dtjld/workspace/AIoT/src/LiteOS_Lab/iot_link/network/dtls/mbedtls/mbedtls-2.16.2/include/mbedtls\pk.h **** #ifdef __cplusplus
  72:C:/Users/dtjld/workspace/AIoT/src/LiteOS_Lab/iot_link/network/dtls/mbedtls/mbedtls-2.16.2/include/mbedtls\pk.h **** extern "C" {
  73:C:/Users/dtjld/workspace/AIoT/src/LiteOS_Lab/iot_link/network/dtls/mbedtls/mbedtls-2.16.2/include/mbedtls\pk.h **** #endif
  74:C:/Users/dtjld/workspace/AIoT/src/LiteOS_Lab/iot_link/network/dtls/mbedtls/mbedtls-2.16.2/include/mbedtls\pk.h **** 
  75:C:/Users/dtjld/workspace/AIoT/src/LiteOS_Lab/iot_link/network/dtls/mbedtls/mbedtls-2.16.2/include/mbedtls\pk.h **** /**
  76:C:/Users/dtjld/workspace/AIoT/src/LiteOS_Lab/iot_link/network/dtls/mbedtls/mbedtls-2.16.2/include/mbedtls\pk.h ****  * \brief          Public key types
  77:C:/Users/dtjld/workspace/AIoT/src/LiteOS_Lab/iot_link/network/dtls/mbedtls/mbedtls-2.16.2/include/mbedtls\pk.h ****  */
  78:C:/Users/dtjld/workspace/AIoT/src/LiteOS_Lab/iot_link/network/dtls/mbedtls/mbedtls-2.16.2/include/mbedtls\pk.h **** typedef enum {
  79:C:/Users/dtjld/workspace/AIoT/src/LiteOS_Lab/iot_link/network/dtls/mbedtls/mbedtls-2.16.2/include/mbedtls\pk.h ****     MBEDTLS_PK_NONE=0,
  80:C:/Users/dtjld/workspace/AIoT/src/LiteOS_Lab/iot_link/network/dtls/mbedtls/mbedtls-2.16.2/include/mbedtls\pk.h ****     MBEDTLS_PK_RSA,
  81:C:/Users/dtjld/workspace/AIoT/src/LiteOS_Lab/iot_link/network/dtls/mbedtls/mbedtls-2.16.2/include/mbedtls\pk.h ****     MBEDTLS_PK_ECKEY,
  82:C:/Users/dtjld/workspace/AIoT/src/LiteOS_Lab/iot_link/network/dtls/mbedtls/mbedtls-2.16.2/include/mbedtls\pk.h ****     MBEDTLS_PK_ECKEY_DH,
  83:C:/Users/dtjld/workspace/AIoT/src/LiteOS_Lab/iot_link/network/dtls/mbedtls/mbedtls-2.16.2/include/mbedtls\pk.h ****     MBEDTLS_PK_ECDSA,
  84:C:/Users/dtjld/workspace/AIoT/src/LiteOS_Lab/iot_link/network/dtls/mbedtls/mbedtls-2.16.2/include/mbedtls\pk.h ****     MBEDTLS_PK_RSA_ALT,
  85:C:/Users/dtjld/workspace/AIoT/src/LiteOS_Lab/iot_link/network/dtls/mbedtls/mbedtls-2.16.2/include/mbedtls\pk.h ****     MBEDTLS_PK_RSASSA_PSS,
  86:C:/Users/dtjld/workspace/AIoT/src/LiteOS_Lab/iot_link/network/dtls/mbedtls/mbedtls-2.16.2/include/mbedtls\pk.h **** } mbedtls_pk_type_t;
  87:C:/Users/dtjld/workspace/AIoT/src/LiteOS_Lab/iot_link/network/dtls/mbedtls/mbedtls-2.16.2/include/mbedtls\pk.h **** 
  88:C:/Users/dtjld/workspace/AIoT/src/LiteOS_Lab/iot_link/network/dtls/mbedtls/mbedtls-2.16.2/include/mbedtls\pk.h **** /**
  89:C:/Users/dtjld/workspace/AIoT/src/LiteOS_Lab/iot_link/network/dtls/mbedtls/mbedtls-2.16.2/include/mbedtls\pk.h ****  * \brief           Options for RSASSA-PSS signature verification.
ARM GAS  C:\Users\dtjld\AppData\Local\Temp\ccA8prOd.s 			page 3


  90:C:/Users/dtjld/workspace/AIoT/src/LiteOS_Lab/iot_link/network/dtls/mbedtls/mbedtls-2.16.2/include/mbedtls\pk.h ****  *                  See \c mbedtls_rsa_rsassa_pss_verify_ext()
  91:C:/Users/dtjld/workspace/AIoT/src/LiteOS_Lab/iot_link/network/dtls/mbedtls/mbedtls-2.16.2/include/mbedtls\pk.h ****  */
  92:C:/Users/dtjld/workspace/AIoT/src/LiteOS_Lab/iot_link/network/dtls/mbedtls/mbedtls-2.16.2/include/mbedtls\pk.h **** typedef struct mbedtls_pk_rsassa_pss_options
  93:C:/Users/dtjld/workspace/AIoT/src/LiteOS_Lab/iot_link/network/dtls/mbedtls/mbedtls-2.16.2/include/mbedtls\pk.h **** {
  94:C:/Users/dtjld/workspace/AIoT/src/LiteOS_Lab/iot_link/network/dtls/mbedtls/mbedtls-2.16.2/include/mbedtls\pk.h ****     mbedtls_md_type_t mgf1_hash_id;
  95:C:/Users/dtjld/workspace/AIoT/src/LiteOS_Lab/iot_link/network/dtls/mbedtls/mbedtls-2.16.2/include/mbedtls\pk.h ****     int expected_salt_len;
  96:C:/Users/dtjld/workspace/AIoT/src/LiteOS_Lab/iot_link/network/dtls/mbedtls/mbedtls-2.16.2/include/mbedtls\pk.h **** 
  97:C:/Users/dtjld/workspace/AIoT/src/LiteOS_Lab/iot_link/network/dtls/mbedtls/mbedtls-2.16.2/include/mbedtls\pk.h **** } mbedtls_pk_rsassa_pss_options;
  98:C:/Users/dtjld/workspace/AIoT/src/LiteOS_Lab/iot_link/network/dtls/mbedtls/mbedtls-2.16.2/include/mbedtls\pk.h **** 
  99:C:/Users/dtjld/workspace/AIoT/src/LiteOS_Lab/iot_link/network/dtls/mbedtls/mbedtls-2.16.2/include/mbedtls\pk.h **** /**
 100:C:/Users/dtjld/workspace/AIoT/src/LiteOS_Lab/iot_link/network/dtls/mbedtls/mbedtls-2.16.2/include/mbedtls\pk.h ****  * \brief           Types for interfacing with the debug module
 101:C:/Users/dtjld/workspace/AIoT/src/LiteOS_Lab/iot_link/network/dtls/mbedtls/mbedtls-2.16.2/include/mbedtls\pk.h ****  */
 102:C:/Users/dtjld/workspace/AIoT/src/LiteOS_Lab/iot_link/network/dtls/mbedtls/mbedtls-2.16.2/include/mbedtls\pk.h **** typedef enum
 103:C:/Users/dtjld/workspace/AIoT/src/LiteOS_Lab/iot_link/network/dtls/mbedtls/mbedtls-2.16.2/include/mbedtls\pk.h **** {
 104:C:/Users/dtjld/workspace/AIoT/src/LiteOS_Lab/iot_link/network/dtls/mbedtls/mbedtls-2.16.2/include/mbedtls\pk.h ****     MBEDTLS_PK_DEBUG_NONE = 0,
 105:C:/Users/dtjld/workspace/AIoT/src/LiteOS_Lab/iot_link/network/dtls/mbedtls/mbedtls-2.16.2/include/mbedtls\pk.h ****     MBEDTLS_PK_DEBUG_MPI,
 106:C:/Users/dtjld/workspace/AIoT/src/LiteOS_Lab/iot_link/network/dtls/mbedtls/mbedtls-2.16.2/include/mbedtls\pk.h ****     MBEDTLS_PK_DEBUG_ECP,
 107:C:/Users/dtjld/workspace/AIoT/src/LiteOS_Lab/iot_link/network/dtls/mbedtls/mbedtls-2.16.2/include/mbedtls\pk.h **** } mbedtls_pk_debug_type;
 108:C:/Users/dtjld/workspace/AIoT/src/LiteOS_Lab/iot_link/network/dtls/mbedtls/mbedtls-2.16.2/include/mbedtls\pk.h **** 
 109:C:/Users/dtjld/workspace/AIoT/src/LiteOS_Lab/iot_link/network/dtls/mbedtls/mbedtls-2.16.2/include/mbedtls\pk.h **** /**
 110:C:/Users/dtjld/workspace/AIoT/src/LiteOS_Lab/iot_link/network/dtls/mbedtls/mbedtls-2.16.2/include/mbedtls\pk.h ****  * \brief           Item to send to the debug module
 111:C:/Users/dtjld/workspace/AIoT/src/LiteOS_Lab/iot_link/network/dtls/mbedtls/mbedtls-2.16.2/include/mbedtls\pk.h ****  */
 112:C:/Users/dtjld/workspace/AIoT/src/LiteOS_Lab/iot_link/network/dtls/mbedtls/mbedtls-2.16.2/include/mbedtls\pk.h **** typedef struct mbedtls_pk_debug_item
 113:C:/Users/dtjld/workspace/AIoT/src/LiteOS_Lab/iot_link/network/dtls/mbedtls/mbedtls-2.16.2/include/mbedtls\pk.h **** {
 114:C:/Users/dtjld/workspace/AIoT/src/LiteOS_Lab/iot_link/network/dtls/mbedtls/mbedtls-2.16.2/include/mbedtls\pk.h ****     mbedtls_pk_debug_type type;
 115:C:/Users/dtjld/workspace/AIoT/src/LiteOS_Lab/iot_link/network/dtls/mbedtls/mbedtls-2.16.2/include/mbedtls\pk.h ****     const char *name;
 116:C:/Users/dtjld/workspace/AIoT/src/LiteOS_Lab/iot_link/network/dtls/mbedtls/mbedtls-2.16.2/include/mbedtls\pk.h ****     void *value;
 117:C:/Users/dtjld/workspace/AIoT/src/LiteOS_Lab/iot_link/network/dtls/mbedtls/mbedtls-2.16.2/include/mbedtls\pk.h **** } mbedtls_pk_debug_item;
 118:C:/Users/dtjld/workspace/AIoT/src/LiteOS_Lab/iot_link/network/dtls/mbedtls/mbedtls-2.16.2/include/mbedtls\pk.h **** 
 119:C:/Users/dtjld/workspace/AIoT/src/LiteOS_Lab/iot_link/network/dtls/mbedtls/mbedtls-2.16.2/include/mbedtls\pk.h **** /** Maximum number of item send for debugging, plus 1 */
 120:C:/Users/dtjld/workspace/AIoT/src/LiteOS_Lab/iot_link/network/dtls/mbedtls/mbedtls-2.16.2/include/mbedtls\pk.h **** #define MBEDTLS_PK_DEBUG_MAX_ITEMS 3
 121:C:/Users/dtjld/workspace/AIoT/src/LiteOS_Lab/iot_link/network/dtls/mbedtls/mbedtls-2.16.2/include/mbedtls\pk.h **** 
 122:C:/Users/dtjld/workspace/AIoT/src/LiteOS_Lab/iot_link/network/dtls/mbedtls/mbedtls-2.16.2/include/mbedtls\pk.h **** /**
 123:C:/Users/dtjld/workspace/AIoT/src/LiteOS_Lab/iot_link/network/dtls/mbedtls/mbedtls-2.16.2/include/mbedtls\pk.h ****  * \brief           Public key information and operations
 124:C:/Users/dtjld/workspace/AIoT/src/LiteOS_Lab/iot_link/network/dtls/mbedtls/mbedtls-2.16.2/include/mbedtls\pk.h ****  */
 125:C:/Users/dtjld/workspace/AIoT/src/LiteOS_Lab/iot_link/network/dtls/mbedtls/mbedtls-2.16.2/include/mbedtls\pk.h **** typedef struct mbedtls_pk_info_t mbedtls_pk_info_t;
 126:C:/Users/dtjld/workspace/AIoT/src/LiteOS_Lab/iot_link/network/dtls/mbedtls/mbedtls-2.16.2/include/mbedtls\pk.h **** 
 127:C:/Users/dtjld/workspace/AIoT/src/LiteOS_Lab/iot_link/network/dtls/mbedtls/mbedtls-2.16.2/include/mbedtls\pk.h **** /**
 128:C:/Users/dtjld/workspace/AIoT/src/LiteOS_Lab/iot_link/network/dtls/mbedtls/mbedtls-2.16.2/include/mbedtls\pk.h ****  * \brief           Public key container
 129:C:/Users/dtjld/workspace/AIoT/src/LiteOS_Lab/iot_link/network/dtls/mbedtls/mbedtls-2.16.2/include/mbedtls\pk.h ****  */
 130:C:/Users/dtjld/workspace/AIoT/src/LiteOS_Lab/iot_link/network/dtls/mbedtls/mbedtls-2.16.2/include/mbedtls\pk.h **** typedef struct mbedtls_pk_context
 131:C:/Users/dtjld/workspace/AIoT/src/LiteOS_Lab/iot_link/network/dtls/mbedtls/mbedtls-2.16.2/include/mbedtls\pk.h **** {
 132:C:/Users/dtjld/workspace/AIoT/src/LiteOS_Lab/iot_link/network/dtls/mbedtls/mbedtls-2.16.2/include/mbedtls\pk.h ****     const mbedtls_pk_info_t *   pk_info; /**< Public key information         */
 133:C:/Users/dtjld/workspace/AIoT/src/LiteOS_Lab/iot_link/network/dtls/mbedtls/mbedtls-2.16.2/include/mbedtls\pk.h ****     void *                      pk_ctx;  /**< Underlying public key context  */
 134:C:/Users/dtjld/workspace/AIoT/src/LiteOS_Lab/iot_link/network/dtls/mbedtls/mbedtls-2.16.2/include/mbedtls\pk.h **** } mbedtls_pk_context;
 135:C:/Users/dtjld/workspace/AIoT/src/LiteOS_Lab/iot_link/network/dtls/mbedtls/mbedtls-2.16.2/include/mbedtls\pk.h **** 
 136:C:/Users/dtjld/workspace/AIoT/src/LiteOS_Lab/iot_link/network/dtls/mbedtls/mbedtls-2.16.2/include/mbedtls\pk.h **** #if defined(MBEDTLS_ECDSA_C) && defined(MBEDTLS_ECP_RESTARTABLE)
 137:C:/Users/dtjld/workspace/AIoT/src/LiteOS_Lab/iot_link/network/dtls/mbedtls/mbedtls-2.16.2/include/mbedtls\pk.h **** /**
 138:C:/Users/dtjld/workspace/AIoT/src/LiteOS_Lab/iot_link/network/dtls/mbedtls/mbedtls-2.16.2/include/mbedtls\pk.h ****  * \brief           Context for resuming operations
 139:C:/Users/dtjld/workspace/AIoT/src/LiteOS_Lab/iot_link/network/dtls/mbedtls/mbedtls-2.16.2/include/mbedtls\pk.h ****  */
 140:C:/Users/dtjld/workspace/AIoT/src/LiteOS_Lab/iot_link/network/dtls/mbedtls/mbedtls-2.16.2/include/mbedtls\pk.h **** typedef struct
 141:C:/Users/dtjld/workspace/AIoT/src/LiteOS_Lab/iot_link/network/dtls/mbedtls/mbedtls-2.16.2/include/mbedtls\pk.h **** {
 142:C:/Users/dtjld/workspace/AIoT/src/LiteOS_Lab/iot_link/network/dtls/mbedtls/mbedtls-2.16.2/include/mbedtls\pk.h ****     const mbedtls_pk_info_t *   pk_info; /**< Public key information         */
 143:C:/Users/dtjld/workspace/AIoT/src/LiteOS_Lab/iot_link/network/dtls/mbedtls/mbedtls-2.16.2/include/mbedtls\pk.h ****     void *                      rs_ctx;  /**< Underlying restart context     */
 144:C:/Users/dtjld/workspace/AIoT/src/LiteOS_Lab/iot_link/network/dtls/mbedtls/mbedtls-2.16.2/include/mbedtls\pk.h **** } mbedtls_pk_restart_ctx;
 145:C:/Users/dtjld/workspace/AIoT/src/LiteOS_Lab/iot_link/network/dtls/mbedtls/mbedtls-2.16.2/include/mbedtls\pk.h **** #else /* MBEDTLS_ECDSA_C && MBEDTLS_ECP_RESTARTABLE */
 146:C:/Users/dtjld/workspace/AIoT/src/LiteOS_Lab/iot_link/network/dtls/mbedtls/mbedtls-2.16.2/include/mbedtls\pk.h **** /* Now we can declare functions that take a pointer to that */
ARM GAS  C:\Users\dtjld\AppData\Local\Temp\ccA8prOd.s 			page 4


 147:C:/Users/dtjld/workspace/AIoT/src/LiteOS_Lab/iot_link/network/dtls/mbedtls/mbedtls-2.16.2/include/mbedtls\pk.h **** typedef void mbedtls_pk_restart_ctx;
 148:C:/Users/dtjld/workspace/AIoT/src/LiteOS_Lab/iot_link/network/dtls/mbedtls/mbedtls-2.16.2/include/mbedtls\pk.h **** #endif /* MBEDTLS_ECDSA_C && MBEDTLS_ECP_RESTARTABLE */
 149:C:/Users/dtjld/workspace/AIoT/src/LiteOS_Lab/iot_link/network/dtls/mbedtls/mbedtls-2.16.2/include/mbedtls\pk.h **** 
 150:C:/Users/dtjld/workspace/AIoT/src/LiteOS_Lab/iot_link/network/dtls/mbedtls/mbedtls-2.16.2/include/mbedtls\pk.h **** #if defined(MBEDTLS_RSA_C)
 151:C:/Users/dtjld/workspace/AIoT/src/LiteOS_Lab/iot_link/network/dtls/mbedtls/mbedtls-2.16.2/include/mbedtls\pk.h **** /**
 152:C:/Users/dtjld/workspace/AIoT/src/LiteOS_Lab/iot_link/network/dtls/mbedtls/mbedtls-2.16.2/include/mbedtls\pk.h ****  * Quick access to an RSA context inside a PK context.
 153:C:/Users/dtjld/workspace/AIoT/src/LiteOS_Lab/iot_link/network/dtls/mbedtls/mbedtls-2.16.2/include/mbedtls\pk.h ****  *
 154:C:/Users/dtjld/workspace/AIoT/src/LiteOS_Lab/iot_link/network/dtls/mbedtls/mbedtls-2.16.2/include/mbedtls\pk.h ****  * \warning You must make sure the PK context actually holds an RSA context
 155:C:/Users/dtjld/workspace/AIoT/src/LiteOS_Lab/iot_link/network/dtls/mbedtls/mbedtls-2.16.2/include/mbedtls\pk.h ****  * before using this function!
 156:C:/Users/dtjld/workspace/AIoT/src/LiteOS_Lab/iot_link/network/dtls/mbedtls/mbedtls-2.16.2/include/mbedtls\pk.h ****  */
 157:C:/Users/dtjld/workspace/AIoT/src/LiteOS_Lab/iot_link/network/dtls/mbedtls/mbedtls-2.16.2/include/mbedtls\pk.h **** static inline mbedtls_rsa_context *mbedtls_pk_rsa( const mbedtls_pk_context pk )
 158:C:/Users/dtjld/workspace/AIoT/src/LiteOS_Lab/iot_link/network/dtls/mbedtls/mbedtls-2.16.2/include/mbedtls\pk.h **** {
 159:C:/Users/dtjld/workspace/AIoT/src/LiteOS_Lab/iot_link/network/dtls/mbedtls/mbedtls-2.16.2/include/mbedtls\pk.h ****     return( (mbedtls_rsa_context *) (pk).pk_ctx );
 160:C:/Users/dtjld/workspace/AIoT/src/LiteOS_Lab/iot_link/network/dtls/mbedtls/mbedtls-2.16.2/include/mbedtls\pk.h **** }
 161:C:/Users/dtjld/workspace/AIoT/src/LiteOS_Lab/iot_link/network/dtls/mbedtls/mbedtls-2.16.2/include/mbedtls\pk.h **** #endif /* MBEDTLS_RSA_C */
 162:C:/Users/dtjld/workspace/AIoT/src/LiteOS_Lab/iot_link/network/dtls/mbedtls/mbedtls-2.16.2/include/mbedtls\pk.h **** 
 163:C:/Users/dtjld/workspace/AIoT/src/LiteOS_Lab/iot_link/network/dtls/mbedtls/mbedtls-2.16.2/include/mbedtls\pk.h **** #if defined(MBEDTLS_ECP_C)
 164:C:/Users/dtjld/workspace/AIoT/src/LiteOS_Lab/iot_link/network/dtls/mbedtls/mbedtls-2.16.2/include/mbedtls\pk.h **** /**
 165:C:/Users/dtjld/workspace/AIoT/src/LiteOS_Lab/iot_link/network/dtls/mbedtls/mbedtls-2.16.2/include/mbedtls\pk.h ****  * Quick access to an EC context inside a PK context.
 166:C:/Users/dtjld/workspace/AIoT/src/LiteOS_Lab/iot_link/network/dtls/mbedtls/mbedtls-2.16.2/include/mbedtls\pk.h ****  *
 167:C:/Users/dtjld/workspace/AIoT/src/LiteOS_Lab/iot_link/network/dtls/mbedtls/mbedtls-2.16.2/include/mbedtls\pk.h ****  * \warning You must make sure the PK context actually holds an EC context
 168:C:/Users/dtjld/workspace/AIoT/src/LiteOS_Lab/iot_link/network/dtls/mbedtls/mbedtls-2.16.2/include/mbedtls\pk.h ****  * before using this function!
 169:C:/Users/dtjld/workspace/AIoT/src/LiteOS_Lab/iot_link/network/dtls/mbedtls/mbedtls-2.16.2/include/mbedtls\pk.h ****  */
 170:C:/Users/dtjld/workspace/AIoT/src/LiteOS_Lab/iot_link/network/dtls/mbedtls/mbedtls-2.16.2/include/mbedtls\pk.h **** static inline mbedtls_ecp_keypair *mbedtls_pk_ec( const mbedtls_pk_context pk )
 171:C:/Users/dtjld/workspace/AIoT/src/LiteOS_Lab/iot_link/network/dtls/mbedtls/mbedtls-2.16.2/include/mbedtls\pk.h **** {
  27              		.loc 1 171 0
  28              		.cfi_startproc
  29              		@ args = 0, pretend = 0, frame = 8
  30              		@ frame_needed = 1, uses_anonymous_args = 0
  31              		@ link register save eliminated.
  32 0000 80B4     		push	{r7}
  33              	.LCFI0:
  34              		.cfi_def_cfa_offset 4
  35              		.cfi_offset 7, -4
  36 0002 83B0     		sub	sp, sp, #12
  37              	.LCFI1:
  38              		.cfi_def_cfa_offset 16
  39 0004 00AF     		add	r7, sp, #0
  40              	.LCFI2:
  41              		.cfi_def_cfa_register 7
  42 0006 3B46     		mov	r3, r7
  43 0008 83E80300 		stm	r3, {r0, r1}
 172:C:/Users/dtjld/workspace/AIoT/src/LiteOS_Lab/iot_link/network/dtls/mbedtls/mbedtls-2.16.2/include/mbedtls\pk.h ****     return( (mbedtls_ecp_keypair *) (pk).pk_ctx );
  44              		.loc 1 172 0
  45 000c 7B68     		ldr	r3, [r7, #4]
 173:C:/Users/dtjld/workspace/AIoT/src/LiteOS_Lab/iot_link/network/dtls/mbedtls/mbedtls-2.16.2/include/mbedtls\pk.h **** }
  46              		.loc 1 173 0
  47 000e 1846     		mov	r0, r3
  48 0010 0C37     		adds	r7, r7, #12
  49              	.LCFI3:
  50              		.cfi_def_cfa_offset 4
  51 0012 BD46     		mov	sp, r7
  52              	.LCFI4:
  53              		.cfi_def_cfa_register 13
  54              		@ sp needed
  55 0014 5DF8047B 		ldr	r7, [sp], #4
  56              	.LCFI5:
ARM GAS  C:\Users\dtjld\AppData\Local\Temp\ccA8prOd.s 			page 5


  57              		.cfi_restore 7
  58              		.cfi_def_cfa_offset 0
  59 0018 7047     		bx	lr
  60              		.cfi_endproc
  61              	.LFE4:
  63              		.section	.text.mbedtls_ssl_ciphersuite_cert_req_allowed,"ax",%progbits
  64              		.align	1
  65              		.syntax unified
  66              		.thumb
  67              		.thumb_func
  68              		.fpu fpv4-sp-d16
  70              	mbedtls_ssl_ciphersuite_cert_req_allowed:
  71              	.LFB16:
  72              		.file 2 "C:/Users/dtjld/workspace/AIoT/src/LiteOS_Lab/iot_link/network/dtls/mbedtls/mbedtls-2.16.2
   1:C:/Users/dtjld/workspace/AIoT/src/LiteOS_Lab/iot_link/network/dtls/mbedtls/mbedtls-2.16.2/include/mbedtls\ssl_ciphersuites.h **** /**
   2:C:/Users/dtjld/workspace/AIoT/src/LiteOS_Lab/iot_link/network/dtls/mbedtls/mbedtls-2.16.2/include/mbedtls\ssl_ciphersuites.h ****  * \file ssl_ciphersuites.h
   3:C:/Users/dtjld/workspace/AIoT/src/LiteOS_Lab/iot_link/network/dtls/mbedtls/mbedtls-2.16.2/include/mbedtls\ssl_ciphersuites.h ****  *
   4:C:/Users/dtjld/workspace/AIoT/src/LiteOS_Lab/iot_link/network/dtls/mbedtls/mbedtls-2.16.2/include/mbedtls\ssl_ciphersuites.h ****  * \brief SSL Ciphersuites for mbed TLS
   5:C:/Users/dtjld/workspace/AIoT/src/LiteOS_Lab/iot_link/network/dtls/mbedtls/mbedtls-2.16.2/include/mbedtls\ssl_ciphersuites.h ****  */
   6:C:/Users/dtjld/workspace/AIoT/src/LiteOS_Lab/iot_link/network/dtls/mbedtls/mbedtls-2.16.2/include/mbedtls\ssl_ciphersuites.h **** /*
   7:C:/Users/dtjld/workspace/AIoT/src/LiteOS_Lab/iot_link/network/dtls/mbedtls/mbedtls-2.16.2/include/mbedtls\ssl_ciphersuites.h ****  *  Copyright (C) 2006-2015, ARM Limited, All Rights Reserved
   8:C:/Users/dtjld/workspace/AIoT/src/LiteOS_Lab/iot_link/network/dtls/mbedtls/mbedtls-2.16.2/include/mbedtls\ssl_ciphersuites.h ****  *  SPDX-License-Identifier: Apache-2.0
   9:C:/Users/dtjld/workspace/AIoT/src/LiteOS_Lab/iot_link/network/dtls/mbedtls/mbedtls-2.16.2/include/mbedtls\ssl_ciphersuites.h ****  *
  10:C:/Users/dtjld/workspace/AIoT/src/LiteOS_Lab/iot_link/network/dtls/mbedtls/mbedtls-2.16.2/include/mbedtls\ssl_ciphersuites.h ****  *  Licensed under the Apache License, Version 2.0 (the "License"); you may
  11:C:/Users/dtjld/workspace/AIoT/src/LiteOS_Lab/iot_link/network/dtls/mbedtls/mbedtls-2.16.2/include/mbedtls\ssl_ciphersuites.h ****  *  not use this file except in compliance with the License.
  12:C:/Users/dtjld/workspace/AIoT/src/LiteOS_Lab/iot_link/network/dtls/mbedtls/mbedtls-2.16.2/include/mbedtls\ssl_ciphersuites.h ****  *  You may obtain a copy of the License at
  13:C:/Users/dtjld/workspace/AIoT/src/LiteOS_Lab/iot_link/network/dtls/mbedtls/mbedtls-2.16.2/include/mbedtls\ssl_ciphersuites.h ****  *
  14:C:/Users/dtjld/workspace/AIoT/src/LiteOS_Lab/iot_link/network/dtls/mbedtls/mbedtls-2.16.2/include/mbedtls\ssl_ciphersuites.h ****  *  http://www.apache.org/licenses/LICENSE-2.0
  15:C:/Users/dtjld/workspace/AIoT/src/LiteOS_Lab/iot_link/network/dtls/mbedtls/mbedtls-2.16.2/include/mbedtls\ssl_ciphersuites.h ****  *
  16:C:/Users/dtjld/workspace/AIoT/src/LiteOS_Lab/iot_link/network/dtls/mbedtls/mbedtls-2.16.2/include/mbedtls\ssl_ciphersuites.h ****  *  Unless required by applicable law or agreed to in writing, software
  17:C:/Users/dtjld/workspace/AIoT/src/LiteOS_Lab/iot_link/network/dtls/mbedtls/mbedtls-2.16.2/include/mbedtls\ssl_ciphersuites.h ****  *  distributed under the License is distributed on an "AS IS" BASIS, WITHOUT
  18:C:/Users/dtjld/workspace/AIoT/src/LiteOS_Lab/iot_link/network/dtls/mbedtls/mbedtls-2.16.2/include/mbedtls\ssl_ciphersuites.h ****  *  WARRANTIES OR CONDITIONS OF ANY KIND, either express or implied.
  19:C:/Users/dtjld/workspace/AIoT/src/LiteOS_Lab/iot_link/network/dtls/mbedtls/mbedtls-2.16.2/include/mbedtls\ssl_ciphersuites.h ****  *  See the License for the specific language governing permissions and
  20:C:/Users/dtjld/workspace/AIoT/src/LiteOS_Lab/iot_link/network/dtls/mbedtls/mbedtls-2.16.2/include/mbedtls\ssl_ciphersuites.h ****  *  limitations under the License.
  21:C:/Users/dtjld/workspace/AIoT/src/LiteOS_Lab/iot_link/network/dtls/mbedtls/mbedtls-2.16.2/include/mbedtls\ssl_ciphersuites.h ****  *
  22:C:/Users/dtjld/workspace/AIoT/src/LiteOS_Lab/iot_link/network/dtls/mbedtls/mbedtls-2.16.2/include/mbedtls\ssl_ciphersuites.h ****  *  This file is part of mbed TLS (https://tls.mbed.org)
  23:C:/Users/dtjld/workspace/AIoT/src/LiteOS_Lab/iot_link/network/dtls/mbedtls/mbedtls-2.16.2/include/mbedtls\ssl_ciphersuites.h ****  */
  24:C:/Users/dtjld/workspace/AIoT/src/LiteOS_Lab/iot_link/network/dtls/mbedtls/mbedtls-2.16.2/include/mbedtls\ssl_ciphersuites.h **** #ifndef MBEDTLS_SSL_CIPHERSUITES_H
  25:C:/Users/dtjld/workspace/AIoT/src/LiteOS_Lab/iot_link/network/dtls/mbedtls/mbedtls-2.16.2/include/mbedtls\ssl_ciphersuites.h **** #define MBEDTLS_SSL_CIPHERSUITES_H
  26:C:/Users/dtjld/workspace/AIoT/src/LiteOS_Lab/iot_link/network/dtls/mbedtls/mbedtls-2.16.2/include/mbedtls\ssl_ciphersuites.h **** 
  27:C:/Users/dtjld/workspace/AIoT/src/LiteOS_Lab/iot_link/network/dtls/mbedtls/mbedtls-2.16.2/include/mbedtls\ssl_ciphersuites.h **** #if !defined(MBEDTLS_CONFIG_FILE)
  28:C:/Users/dtjld/workspace/AIoT/src/LiteOS_Lab/iot_link/network/dtls/mbedtls/mbedtls-2.16.2/include/mbedtls\ssl_ciphersuites.h **** #include "config.h"
  29:C:/Users/dtjld/workspace/AIoT/src/LiteOS_Lab/iot_link/network/dtls/mbedtls/mbedtls-2.16.2/include/mbedtls\ssl_ciphersuites.h **** #else
  30:C:/Users/dtjld/workspace/AIoT/src/LiteOS_Lab/iot_link/network/dtls/mbedtls/mbedtls-2.16.2/include/mbedtls\ssl_ciphersuites.h **** #include MBEDTLS_CONFIG_FILE
  31:C:/Users/dtjld/workspace/AIoT/src/LiteOS_Lab/iot_link/network/dtls/mbedtls/mbedtls-2.16.2/include/mbedtls\ssl_ciphersuites.h **** #endif
  32:C:/Users/dtjld/workspace/AIoT/src/LiteOS_Lab/iot_link/network/dtls/mbedtls/mbedtls-2.16.2/include/mbedtls\ssl_ciphersuites.h **** 
  33:C:/Users/dtjld/workspace/AIoT/src/LiteOS_Lab/iot_link/network/dtls/mbedtls/mbedtls-2.16.2/include/mbedtls\ssl_ciphersuites.h **** #include "pk.h"
  34:C:/Users/dtjld/workspace/AIoT/src/LiteOS_Lab/iot_link/network/dtls/mbedtls/mbedtls-2.16.2/include/mbedtls\ssl_ciphersuites.h **** #include "cipher.h"
  35:C:/Users/dtjld/workspace/AIoT/src/LiteOS_Lab/iot_link/network/dtls/mbedtls/mbedtls-2.16.2/include/mbedtls\ssl_ciphersuites.h **** #include "md.h"
  36:C:/Users/dtjld/workspace/AIoT/src/LiteOS_Lab/iot_link/network/dtls/mbedtls/mbedtls-2.16.2/include/mbedtls\ssl_ciphersuites.h **** 
  37:C:/Users/dtjld/workspace/AIoT/src/LiteOS_Lab/iot_link/network/dtls/mbedtls/mbedtls-2.16.2/include/mbedtls\ssl_ciphersuites.h **** #ifdef __cplusplus
  38:C:/Users/dtjld/workspace/AIoT/src/LiteOS_Lab/iot_link/network/dtls/mbedtls/mbedtls-2.16.2/include/mbedtls\ssl_ciphersuites.h **** extern "C" {
  39:C:/Users/dtjld/workspace/AIoT/src/LiteOS_Lab/iot_link/network/dtls/mbedtls/mbedtls-2.16.2/include/mbedtls\ssl_ciphersuites.h **** #endif
  40:C:/Users/dtjld/workspace/AIoT/src/LiteOS_Lab/iot_link/network/dtls/mbedtls/mbedtls-2.16.2/include/mbedtls\ssl_ciphersuites.h **** 
  41:C:/Users/dtjld/workspace/AIoT/src/LiteOS_Lab/iot_link/network/dtls/mbedtls/mbedtls-2.16.2/include/mbedtls\ssl_ciphersuites.h **** /*
  42:C:/Users/dtjld/workspace/AIoT/src/LiteOS_Lab/iot_link/network/dtls/mbedtls/mbedtls-2.16.2/include/mbedtls\ssl_ciphersuites.h ****  * Supported ciphersuites (Official IANA names)
  43:C:/Users/dtjld/workspace/AIoT/src/LiteOS_Lab/iot_link/network/dtls/mbedtls/mbedtls-2.16.2/include/mbedtls\ssl_ciphersuites.h ****  */
ARM GAS  C:\Users\dtjld\AppData\Local\Temp\ccA8prOd.s 			page 6


  44:C:/Users/dtjld/workspace/AIoT/src/LiteOS_Lab/iot_link/network/dtls/mbedtls/mbedtls-2.16.2/include/mbedtls\ssl_ciphersuites.h **** #define MBEDTLS_TLS_RSA_WITH_NULL_MD5                    0x01   /**< Weak! */
  45:C:/Users/dtjld/workspace/AIoT/src/LiteOS_Lab/iot_link/network/dtls/mbedtls/mbedtls-2.16.2/include/mbedtls\ssl_ciphersuites.h **** #define MBEDTLS_TLS_RSA_WITH_NULL_SHA                    0x02   /**< Weak! */
  46:C:/Users/dtjld/workspace/AIoT/src/LiteOS_Lab/iot_link/network/dtls/mbedtls/mbedtls-2.16.2/include/mbedtls\ssl_ciphersuites.h **** 
  47:C:/Users/dtjld/workspace/AIoT/src/LiteOS_Lab/iot_link/network/dtls/mbedtls/mbedtls-2.16.2/include/mbedtls\ssl_ciphersuites.h **** #define MBEDTLS_TLS_RSA_WITH_RC4_128_MD5                 0x04
  48:C:/Users/dtjld/workspace/AIoT/src/LiteOS_Lab/iot_link/network/dtls/mbedtls/mbedtls-2.16.2/include/mbedtls\ssl_ciphersuites.h **** #define MBEDTLS_TLS_RSA_WITH_RC4_128_SHA                 0x05
  49:C:/Users/dtjld/workspace/AIoT/src/LiteOS_Lab/iot_link/network/dtls/mbedtls/mbedtls-2.16.2/include/mbedtls\ssl_ciphersuites.h **** #define MBEDTLS_TLS_RSA_WITH_DES_CBC_SHA                 0x09   /**< Weak! Not in TLS 1.2 */
  50:C:/Users/dtjld/workspace/AIoT/src/LiteOS_Lab/iot_link/network/dtls/mbedtls/mbedtls-2.16.2/include/mbedtls\ssl_ciphersuites.h **** 
  51:C:/Users/dtjld/workspace/AIoT/src/LiteOS_Lab/iot_link/network/dtls/mbedtls/mbedtls-2.16.2/include/mbedtls\ssl_ciphersuites.h **** #define MBEDTLS_TLS_RSA_WITH_3DES_EDE_CBC_SHA            0x0A
  52:C:/Users/dtjld/workspace/AIoT/src/LiteOS_Lab/iot_link/network/dtls/mbedtls/mbedtls-2.16.2/include/mbedtls\ssl_ciphersuites.h **** 
  53:C:/Users/dtjld/workspace/AIoT/src/LiteOS_Lab/iot_link/network/dtls/mbedtls/mbedtls-2.16.2/include/mbedtls\ssl_ciphersuites.h **** #define MBEDTLS_TLS_DHE_RSA_WITH_DES_CBC_SHA             0x15   /**< Weak! Not in TLS 1.2 */
  54:C:/Users/dtjld/workspace/AIoT/src/LiteOS_Lab/iot_link/network/dtls/mbedtls/mbedtls-2.16.2/include/mbedtls\ssl_ciphersuites.h **** #define MBEDTLS_TLS_DHE_RSA_WITH_3DES_EDE_CBC_SHA        0x16
  55:C:/Users/dtjld/workspace/AIoT/src/LiteOS_Lab/iot_link/network/dtls/mbedtls/mbedtls-2.16.2/include/mbedtls\ssl_ciphersuites.h **** 
  56:C:/Users/dtjld/workspace/AIoT/src/LiteOS_Lab/iot_link/network/dtls/mbedtls/mbedtls-2.16.2/include/mbedtls\ssl_ciphersuites.h **** #define MBEDTLS_TLS_PSK_WITH_NULL_SHA                    0x2C   /**< Weak! */
  57:C:/Users/dtjld/workspace/AIoT/src/LiteOS_Lab/iot_link/network/dtls/mbedtls/mbedtls-2.16.2/include/mbedtls\ssl_ciphersuites.h **** #define MBEDTLS_TLS_DHE_PSK_WITH_NULL_SHA                0x2D   /**< Weak! */
  58:C:/Users/dtjld/workspace/AIoT/src/LiteOS_Lab/iot_link/network/dtls/mbedtls/mbedtls-2.16.2/include/mbedtls\ssl_ciphersuites.h **** #define MBEDTLS_TLS_RSA_PSK_WITH_NULL_SHA                0x2E   /**< Weak! */
  59:C:/Users/dtjld/workspace/AIoT/src/LiteOS_Lab/iot_link/network/dtls/mbedtls/mbedtls-2.16.2/include/mbedtls\ssl_ciphersuites.h **** #define MBEDTLS_TLS_RSA_WITH_AES_128_CBC_SHA             0x2F
  60:C:/Users/dtjld/workspace/AIoT/src/LiteOS_Lab/iot_link/network/dtls/mbedtls/mbedtls-2.16.2/include/mbedtls\ssl_ciphersuites.h **** 
  61:C:/Users/dtjld/workspace/AIoT/src/LiteOS_Lab/iot_link/network/dtls/mbedtls/mbedtls-2.16.2/include/mbedtls\ssl_ciphersuites.h **** #define MBEDTLS_TLS_DHE_RSA_WITH_AES_128_CBC_SHA         0x33
  62:C:/Users/dtjld/workspace/AIoT/src/LiteOS_Lab/iot_link/network/dtls/mbedtls/mbedtls-2.16.2/include/mbedtls\ssl_ciphersuites.h **** #define MBEDTLS_TLS_RSA_WITH_AES_256_CBC_SHA             0x35
  63:C:/Users/dtjld/workspace/AIoT/src/LiteOS_Lab/iot_link/network/dtls/mbedtls/mbedtls-2.16.2/include/mbedtls\ssl_ciphersuites.h **** #define MBEDTLS_TLS_DHE_RSA_WITH_AES_256_CBC_SHA         0x39
  64:C:/Users/dtjld/workspace/AIoT/src/LiteOS_Lab/iot_link/network/dtls/mbedtls/mbedtls-2.16.2/include/mbedtls\ssl_ciphersuites.h **** 
  65:C:/Users/dtjld/workspace/AIoT/src/LiteOS_Lab/iot_link/network/dtls/mbedtls/mbedtls-2.16.2/include/mbedtls\ssl_ciphersuites.h **** #define MBEDTLS_TLS_RSA_WITH_NULL_SHA256                 0x3B   /**< Weak! */
  66:C:/Users/dtjld/workspace/AIoT/src/LiteOS_Lab/iot_link/network/dtls/mbedtls/mbedtls-2.16.2/include/mbedtls\ssl_ciphersuites.h **** #define MBEDTLS_TLS_RSA_WITH_AES_128_CBC_SHA256          0x3C   /**< TLS 1.2 */
  67:C:/Users/dtjld/workspace/AIoT/src/LiteOS_Lab/iot_link/network/dtls/mbedtls/mbedtls-2.16.2/include/mbedtls\ssl_ciphersuites.h **** #define MBEDTLS_TLS_RSA_WITH_AES_256_CBC_SHA256          0x3D   /**< TLS 1.2 */
  68:C:/Users/dtjld/workspace/AIoT/src/LiteOS_Lab/iot_link/network/dtls/mbedtls/mbedtls-2.16.2/include/mbedtls\ssl_ciphersuites.h **** 
  69:C:/Users/dtjld/workspace/AIoT/src/LiteOS_Lab/iot_link/network/dtls/mbedtls/mbedtls-2.16.2/include/mbedtls\ssl_ciphersuites.h **** #define MBEDTLS_TLS_RSA_WITH_CAMELLIA_128_CBC_SHA        0x41
  70:C:/Users/dtjld/workspace/AIoT/src/LiteOS_Lab/iot_link/network/dtls/mbedtls/mbedtls-2.16.2/include/mbedtls\ssl_ciphersuites.h **** #define MBEDTLS_TLS_DHE_RSA_WITH_CAMELLIA_128_CBC_SHA    0x45
  71:C:/Users/dtjld/workspace/AIoT/src/LiteOS_Lab/iot_link/network/dtls/mbedtls/mbedtls-2.16.2/include/mbedtls\ssl_ciphersuites.h **** 
  72:C:/Users/dtjld/workspace/AIoT/src/LiteOS_Lab/iot_link/network/dtls/mbedtls/mbedtls-2.16.2/include/mbedtls\ssl_ciphersuites.h **** #define MBEDTLS_TLS_DHE_RSA_WITH_AES_128_CBC_SHA256      0x67   /**< TLS 1.2 */
  73:C:/Users/dtjld/workspace/AIoT/src/LiteOS_Lab/iot_link/network/dtls/mbedtls/mbedtls-2.16.2/include/mbedtls\ssl_ciphersuites.h **** #define MBEDTLS_TLS_DHE_RSA_WITH_AES_256_CBC_SHA256      0x6B   /**< TLS 1.2 */
  74:C:/Users/dtjld/workspace/AIoT/src/LiteOS_Lab/iot_link/network/dtls/mbedtls/mbedtls-2.16.2/include/mbedtls\ssl_ciphersuites.h **** 
  75:C:/Users/dtjld/workspace/AIoT/src/LiteOS_Lab/iot_link/network/dtls/mbedtls/mbedtls-2.16.2/include/mbedtls\ssl_ciphersuites.h **** #define MBEDTLS_TLS_RSA_WITH_CAMELLIA_256_CBC_SHA        0x84
  76:C:/Users/dtjld/workspace/AIoT/src/LiteOS_Lab/iot_link/network/dtls/mbedtls/mbedtls-2.16.2/include/mbedtls\ssl_ciphersuites.h **** #define MBEDTLS_TLS_DHE_RSA_WITH_CAMELLIA_256_CBC_SHA    0x88
  77:C:/Users/dtjld/workspace/AIoT/src/LiteOS_Lab/iot_link/network/dtls/mbedtls/mbedtls-2.16.2/include/mbedtls\ssl_ciphersuites.h **** 
  78:C:/Users/dtjld/workspace/AIoT/src/LiteOS_Lab/iot_link/network/dtls/mbedtls/mbedtls-2.16.2/include/mbedtls\ssl_ciphersuites.h **** #define MBEDTLS_TLS_PSK_WITH_RC4_128_SHA                 0x8A
  79:C:/Users/dtjld/workspace/AIoT/src/LiteOS_Lab/iot_link/network/dtls/mbedtls/mbedtls-2.16.2/include/mbedtls\ssl_ciphersuites.h **** #define MBEDTLS_TLS_PSK_WITH_3DES_EDE_CBC_SHA            0x8B
  80:C:/Users/dtjld/workspace/AIoT/src/LiteOS_Lab/iot_link/network/dtls/mbedtls/mbedtls-2.16.2/include/mbedtls\ssl_ciphersuites.h **** #define MBEDTLS_TLS_PSK_WITH_AES_128_CBC_SHA             0x8C
  81:C:/Users/dtjld/workspace/AIoT/src/LiteOS_Lab/iot_link/network/dtls/mbedtls/mbedtls-2.16.2/include/mbedtls\ssl_ciphersuites.h **** #define MBEDTLS_TLS_PSK_WITH_AES_256_CBC_SHA             0x8D
  82:C:/Users/dtjld/workspace/AIoT/src/LiteOS_Lab/iot_link/network/dtls/mbedtls/mbedtls-2.16.2/include/mbedtls\ssl_ciphersuites.h **** 
  83:C:/Users/dtjld/workspace/AIoT/src/LiteOS_Lab/iot_link/network/dtls/mbedtls/mbedtls-2.16.2/include/mbedtls\ssl_ciphersuites.h **** #define MBEDTLS_TLS_DHE_PSK_WITH_RC4_128_SHA             0x8E
  84:C:/Users/dtjld/workspace/AIoT/src/LiteOS_Lab/iot_link/network/dtls/mbedtls/mbedtls-2.16.2/include/mbedtls\ssl_ciphersuites.h **** #define MBEDTLS_TLS_DHE_PSK_WITH_3DES_EDE_CBC_SHA        0x8F
  85:C:/Users/dtjld/workspace/AIoT/src/LiteOS_Lab/iot_link/network/dtls/mbedtls/mbedtls-2.16.2/include/mbedtls\ssl_ciphersuites.h **** #define MBEDTLS_TLS_DHE_PSK_WITH_AES_128_CBC_SHA         0x90
  86:C:/Users/dtjld/workspace/AIoT/src/LiteOS_Lab/iot_link/network/dtls/mbedtls/mbedtls-2.16.2/include/mbedtls\ssl_ciphersuites.h **** #define MBEDTLS_TLS_DHE_PSK_WITH_AES_256_CBC_SHA         0x91
  87:C:/Users/dtjld/workspace/AIoT/src/LiteOS_Lab/iot_link/network/dtls/mbedtls/mbedtls-2.16.2/include/mbedtls\ssl_ciphersuites.h **** 
  88:C:/Users/dtjld/workspace/AIoT/src/LiteOS_Lab/iot_link/network/dtls/mbedtls/mbedtls-2.16.2/include/mbedtls\ssl_ciphersuites.h **** #define MBEDTLS_TLS_RSA_PSK_WITH_RC4_128_SHA             0x92
  89:C:/Users/dtjld/workspace/AIoT/src/LiteOS_Lab/iot_link/network/dtls/mbedtls/mbedtls-2.16.2/include/mbedtls\ssl_ciphersuites.h **** #define MBEDTLS_TLS_RSA_PSK_WITH_3DES_EDE_CBC_SHA        0x93
  90:C:/Users/dtjld/workspace/AIoT/src/LiteOS_Lab/iot_link/network/dtls/mbedtls/mbedtls-2.16.2/include/mbedtls\ssl_ciphersuites.h **** #define MBEDTLS_TLS_RSA_PSK_WITH_AES_128_CBC_SHA         0x94
  91:C:/Users/dtjld/workspace/AIoT/src/LiteOS_Lab/iot_link/network/dtls/mbedtls/mbedtls-2.16.2/include/mbedtls\ssl_ciphersuites.h **** #define MBEDTLS_TLS_RSA_PSK_WITH_AES_256_CBC_SHA         0x95
  92:C:/Users/dtjld/workspace/AIoT/src/LiteOS_Lab/iot_link/network/dtls/mbedtls/mbedtls-2.16.2/include/mbedtls\ssl_ciphersuites.h **** 
  93:C:/Users/dtjld/workspace/AIoT/src/LiteOS_Lab/iot_link/network/dtls/mbedtls/mbedtls-2.16.2/include/mbedtls\ssl_ciphersuites.h **** #define MBEDTLS_TLS_RSA_WITH_AES_128_GCM_SHA256          0x9C   /**< TLS 1.2 */
  94:C:/Users/dtjld/workspace/AIoT/src/LiteOS_Lab/iot_link/network/dtls/mbedtls/mbedtls-2.16.2/include/mbedtls\ssl_ciphersuites.h **** #define MBEDTLS_TLS_RSA_WITH_AES_256_GCM_SHA384          0x9D   /**< TLS 1.2 */
  95:C:/Users/dtjld/workspace/AIoT/src/LiteOS_Lab/iot_link/network/dtls/mbedtls/mbedtls-2.16.2/include/mbedtls\ssl_ciphersuites.h **** #define MBEDTLS_TLS_DHE_RSA_WITH_AES_128_GCM_SHA256      0x9E   /**< TLS 1.2 */
  96:C:/Users/dtjld/workspace/AIoT/src/LiteOS_Lab/iot_link/network/dtls/mbedtls/mbedtls-2.16.2/include/mbedtls\ssl_ciphersuites.h **** #define MBEDTLS_TLS_DHE_RSA_WITH_AES_256_GCM_SHA384      0x9F   /**< TLS 1.2 */
  97:C:/Users/dtjld/workspace/AIoT/src/LiteOS_Lab/iot_link/network/dtls/mbedtls/mbedtls-2.16.2/include/mbedtls\ssl_ciphersuites.h **** 
  98:C:/Users/dtjld/workspace/AIoT/src/LiteOS_Lab/iot_link/network/dtls/mbedtls/mbedtls-2.16.2/include/mbedtls\ssl_ciphersuites.h **** #define MBEDTLS_TLS_PSK_WITH_AES_128_GCM_SHA256          0xA8   /**< TLS 1.2 */
  99:C:/Users/dtjld/workspace/AIoT/src/LiteOS_Lab/iot_link/network/dtls/mbedtls/mbedtls-2.16.2/include/mbedtls\ssl_ciphersuites.h **** #define MBEDTLS_TLS_PSK_WITH_AES_256_GCM_SHA384          0xA9   /**< TLS 1.2 */
 100:C:/Users/dtjld/workspace/AIoT/src/LiteOS_Lab/iot_link/network/dtls/mbedtls/mbedtls-2.16.2/include/mbedtls\ssl_ciphersuites.h **** #define MBEDTLS_TLS_DHE_PSK_WITH_AES_128_GCM_SHA256      0xAA   /**< TLS 1.2 */
ARM GAS  C:\Users\dtjld\AppData\Local\Temp\ccA8prOd.s 			page 7


 101:C:/Users/dtjld/workspace/AIoT/src/LiteOS_Lab/iot_link/network/dtls/mbedtls/mbedtls-2.16.2/include/mbedtls\ssl_ciphersuites.h **** #define MBEDTLS_TLS_DHE_PSK_WITH_AES_256_GCM_SHA384      0xAB   /**< TLS 1.2 */
 102:C:/Users/dtjld/workspace/AIoT/src/LiteOS_Lab/iot_link/network/dtls/mbedtls/mbedtls-2.16.2/include/mbedtls\ssl_ciphersuites.h **** #define MBEDTLS_TLS_RSA_PSK_WITH_AES_128_GCM_SHA256      0xAC   /**< TLS 1.2 */
 103:C:/Users/dtjld/workspace/AIoT/src/LiteOS_Lab/iot_link/network/dtls/mbedtls/mbedtls-2.16.2/include/mbedtls\ssl_ciphersuites.h **** #define MBEDTLS_TLS_RSA_PSK_WITH_AES_256_GCM_SHA384      0xAD   /**< TLS 1.2 */
 104:C:/Users/dtjld/workspace/AIoT/src/LiteOS_Lab/iot_link/network/dtls/mbedtls/mbedtls-2.16.2/include/mbedtls\ssl_ciphersuites.h **** 
 105:C:/Users/dtjld/workspace/AIoT/src/LiteOS_Lab/iot_link/network/dtls/mbedtls/mbedtls-2.16.2/include/mbedtls\ssl_ciphersuites.h **** #define MBEDTLS_TLS_PSK_WITH_AES_128_CBC_SHA256          0xAE
 106:C:/Users/dtjld/workspace/AIoT/src/LiteOS_Lab/iot_link/network/dtls/mbedtls/mbedtls-2.16.2/include/mbedtls\ssl_ciphersuites.h **** #define MBEDTLS_TLS_PSK_WITH_AES_256_CBC_SHA384          0xAF
 107:C:/Users/dtjld/workspace/AIoT/src/LiteOS_Lab/iot_link/network/dtls/mbedtls/mbedtls-2.16.2/include/mbedtls\ssl_ciphersuites.h **** #define MBEDTLS_TLS_PSK_WITH_NULL_SHA256                 0xB0   /**< Weak! */
 108:C:/Users/dtjld/workspace/AIoT/src/LiteOS_Lab/iot_link/network/dtls/mbedtls/mbedtls-2.16.2/include/mbedtls\ssl_ciphersuites.h **** #define MBEDTLS_TLS_PSK_WITH_NULL_SHA384                 0xB1   /**< Weak! */
 109:C:/Users/dtjld/workspace/AIoT/src/LiteOS_Lab/iot_link/network/dtls/mbedtls/mbedtls-2.16.2/include/mbedtls\ssl_ciphersuites.h **** 
 110:C:/Users/dtjld/workspace/AIoT/src/LiteOS_Lab/iot_link/network/dtls/mbedtls/mbedtls-2.16.2/include/mbedtls\ssl_ciphersuites.h **** #define MBEDTLS_TLS_DHE_PSK_WITH_AES_128_CBC_SHA256      0xB2
 111:C:/Users/dtjld/workspace/AIoT/src/LiteOS_Lab/iot_link/network/dtls/mbedtls/mbedtls-2.16.2/include/mbedtls\ssl_ciphersuites.h **** #define MBEDTLS_TLS_DHE_PSK_WITH_AES_256_CBC_SHA384      0xB3
 112:C:/Users/dtjld/workspace/AIoT/src/LiteOS_Lab/iot_link/network/dtls/mbedtls/mbedtls-2.16.2/include/mbedtls\ssl_ciphersuites.h **** #define MBEDTLS_TLS_DHE_PSK_WITH_NULL_SHA256             0xB4   /**< Weak! */
 113:C:/Users/dtjld/workspace/AIoT/src/LiteOS_Lab/iot_link/network/dtls/mbedtls/mbedtls-2.16.2/include/mbedtls\ssl_ciphersuites.h **** #define MBEDTLS_TLS_DHE_PSK_WITH_NULL_SHA384             0xB5   /**< Weak! */
 114:C:/Users/dtjld/workspace/AIoT/src/LiteOS_Lab/iot_link/network/dtls/mbedtls/mbedtls-2.16.2/include/mbedtls\ssl_ciphersuites.h **** 
 115:C:/Users/dtjld/workspace/AIoT/src/LiteOS_Lab/iot_link/network/dtls/mbedtls/mbedtls-2.16.2/include/mbedtls\ssl_ciphersuites.h **** #define MBEDTLS_TLS_RSA_PSK_WITH_AES_128_CBC_SHA256      0xB6
 116:C:/Users/dtjld/workspace/AIoT/src/LiteOS_Lab/iot_link/network/dtls/mbedtls/mbedtls-2.16.2/include/mbedtls\ssl_ciphersuites.h **** #define MBEDTLS_TLS_RSA_PSK_WITH_AES_256_CBC_SHA384      0xB7
 117:C:/Users/dtjld/workspace/AIoT/src/LiteOS_Lab/iot_link/network/dtls/mbedtls/mbedtls-2.16.2/include/mbedtls\ssl_ciphersuites.h **** #define MBEDTLS_TLS_RSA_PSK_WITH_NULL_SHA256             0xB8   /**< Weak! */
 118:C:/Users/dtjld/workspace/AIoT/src/LiteOS_Lab/iot_link/network/dtls/mbedtls/mbedtls-2.16.2/include/mbedtls\ssl_ciphersuites.h **** #define MBEDTLS_TLS_RSA_PSK_WITH_NULL_SHA384             0xB9   /**< Weak! */
 119:C:/Users/dtjld/workspace/AIoT/src/LiteOS_Lab/iot_link/network/dtls/mbedtls/mbedtls-2.16.2/include/mbedtls\ssl_ciphersuites.h **** 
 120:C:/Users/dtjld/workspace/AIoT/src/LiteOS_Lab/iot_link/network/dtls/mbedtls/mbedtls-2.16.2/include/mbedtls\ssl_ciphersuites.h **** #define MBEDTLS_TLS_RSA_WITH_CAMELLIA_128_CBC_SHA256     0xBA   /**< TLS 1.2 */
 121:C:/Users/dtjld/workspace/AIoT/src/LiteOS_Lab/iot_link/network/dtls/mbedtls/mbedtls-2.16.2/include/mbedtls\ssl_ciphersuites.h **** #define MBEDTLS_TLS_DHE_RSA_WITH_CAMELLIA_128_CBC_SHA256 0xBE   /**< TLS 1.2 */
 122:C:/Users/dtjld/workspace/AIoT/src/LiteOS_Lab/iot_link/network/dtls/mbedtls/mbedtls-2.16.2/include/mbedtls\ssl_ciphersuites.h **** 
 123:C:/Users/dtjld/workspace/AIoT/src/LiteOS_Lab/iot_link/network/dtls/mbedtls/mbedtls-2.16.2/include/mbedtls\ssl_ciphersuites.h **** #define MBEDTLS_TLS_RSA_WITH_CAMELLIA_256_CBC_SHA256     0xC0   /**< TLS 1.2 */
 124:C:/Users/dtjld/workspace/AIoT/src/LiteOS_Lab/iot_link/network/dtls/mbedtls/mbedtls-2.16.2/include/mbedtls\ssl_ciphersuites.h **** #define MBEDTLS_TLS_DHE_RSA_WITH_CAMELLIA_256_CBC_SHA256 0xC4   /**< TLS 1.2 */
 125:C:/Users/dtjld/workspace/AIoT/src/LiteOS_Lab/iot_link/network/dtls/mbedtls/mbedtls-2.16.2/include/mbedtls\ssl_ciphersuites.h **** 
 126:C:/Users/dtjld/workspace/AIoT/src/LiteOS_Lab/iot_link/network/dtls/mbedtls/mbedtls-2.16.2/include/mbedtls\ssl_ciphersuites.h **** #define MBEDTLS_TLS_ECDH_ECDSA_WITH_NULL_SHA             0xC001 /**< Weak! */
 127:C:/Users/dtjld/workspace/AIoT/src/LiteOS_Lab/iot_link/network/dtls/mbedtls/mbedtls-2.16.2/include/mbedtls\ssl_ciphersuites.h **** #define MBEDTLS_TLS_ECDH_ECDSA_WITH_RC4_128_SHA          0xC002 /**< Not in SSL3! */
 128:C:/Users/dtjld/workspace/AIoT/src/LiteOS_Lab/iot_link/network/dtls/mbedtls/mbedtls-2.16.2/include/mbedtls\ssl_ciphersuites.h **** #define MBEDTLS_TLS_ECDH_ECDSA_WITH_3DES_EDE_CBC_SHA     0xC003 /**< Not in SSL3! */
 129:C:/Users/dtjld/workspace/AIoT/src/LiteOS_Lab/iot_link/network/dtls/mbedtls/mbedtls-2.16.2/include/mbedtls\ssl_ciphersuites.h **** #define MBEDTLS_TLS_ECDH_ECDSA_WITH_AES_128_CBC_SHA      0xC004 /**< Not in SSL3! */
 130:C:/Users/dtjld/workspace/AIoT/src/LiteOS_Lab/iot_link/network/dtls/mbedtls/mbedtls-2.16.2/include/mbedtls\ssl_ciphersuites.h **** #define MBEDTLS_TLS_ECDH_ECDSA_WITH_AES_256_CBC_SHA      0xC005 /**< Not in SSL3! */
 131:C:/Users/dtjld/workspace/AIoT/src/LiteOS_Lab/iot_link/network/dtls/mbedtls/mbedtls-2.16.2/include/mbedtls\ssl_ciphersuites.h **** 
 132:C:/Users/dtjld/workspace/AIoT/src/LiteOS_Lab/iot_link/network/dtls/mbedtls/mbedtls-2.16.2/include/mbedtls\ssl_ciphersuites.h **** #define MBEDTLS_TLS_ECDHE_ECDSA_WITH_NULL_SHA            0xC006 /**< Weak! */
 133:C:/Users/dtjld/workspace/AIoT/src/LiteOS_Lab/iot_link/network/dtls/mbedtls/mbedtls-2.16.2/include/mbedtls\ssl_ciphersuites.h **** #define MBEDTLS_TLS_ECDHE_ECDSA_WITH_RC4_128_SHA         0xC007 /**< Not in SSL3! */
 134:C:/Users/dtjld/workspace/AIoT/src/LiteOS_Lab/iot_link/network/dtls/mbedtls/mbedtls-2.16.2/include/mbedtls\ssl_ciphersuites.h **** #define MBEDTLS_TLS_ECDHE_ECDSA_WITH_3DES_EDE_CBC_SHA    0xC008 /**< Not in SSL3! */
 135:C:/Users/dtjld/workspace/AIoT/src/LiteOS_Lab/iot_link/network/dtls/mbedtls/mbedtls-2.16.2/include/mbedtls\ssl_ciphersuites.h **** #define MBEDTLS_TLS_ECDHE_ECDSA_WITH_AES_128_CBC_SHA     0xC009 /**< Not in SSL3! */
 136:C:/Users/dtjld/workspace/AIoT/src/LiteOS_Lab/iot_link/network/dtls/mbedtls/mbedtls-2.16.2/include/mbedtls\ssl_ciphersuites.h **** #define MBEDTLS_TLS_ECDHE_ECDSA_WITH_AES_256_CBC_SHA     0xC00A /**< Not in SSL3! */
 137:C:/Users/dtjld/workspace/AIoT/src/LiteOS_Lab/iot_link/network/dtls/mbedtls/mbedtls-2.16.2/include/mbedtls\ssl_ciphersuites.h **** 
 138:C:/Users/dtjld/workspace/AIoT/src/LiteOS_Lab/iot_link/network/dtls/mbedtls/mbedtls-2.16.2/include/mbedtls\ssl_ciphersuites.h **** #define MBEDTLS_TLS_ECDH_RSA_WITH_NULL_SHA               0xC00B /**< Weak! */
 139:C:/Users/dtjld/workspace/AIoT/src/LiteOS_Lab/iot_link/network/dtls/mbedtls/mbedtls-2.16.2/include/mbedtls\ssl_ciphersuites.h **** #define MBEDTLS_TLS_ECDH_RSA_WITH_RC4_128_SHA            0xC00C /**< Not in SSL3! */
 140:C:/Users/dtjld/workspace/AIoT/src/LiteOS_Lab/iot_link/network/dtls/mbedtls/mbedtls-2.16.2/include/mbedtls\ssl_ciphersuites.h **** #define MBEDTLS_TLS_ECDH_RSA_WITH_3DES_EDE_CBC_SHA       0xC00D /**< Not in SSL3! */
 141:C:/Users/dtjld/workspace/AIoT/src/LiteOS_Lab/iot_link/network/dtls/mbedtls/mbedtls-2.16.2/include/mbedtls\ssl_ciphersuites.h **** #define MBEDTLS_TLS_ECDH_RSA_WITH_AES_128_CBC_SHA        0xC00E /**< Not in SSL3! */
 142:C:/Users/dtjld/workspace/AIoT/src/LiteOS_Lab/iot_link/network/dtls/mbedtls/mbedtls-2.16.2/include/mbedtls\ssl_ciphersuites.h **** #define MBEDTLS_TLS_ECDH_RSA_WITH_AES_256_CBC_SHA        0xC00F /**< Not in SSL3! */
 143:C:/Users/dtjld/workspace/AIoT/src/LiteOS_Lab/iot_link/network/dtls/mbedtls/mbedtls-2.16.2/include/mbedtls\ssl_ciphersuites.h **** 
 144:C:/Users/dtjld/workspace/AIoT/src/LiteOS_Lab/iot_link/network/dtls/mbedtls/mbedtls-2.16.2/include/mbedtls\ssl_ciphersuites.h **** #define MBEDTLS_TLS_ECDHE_RSA_WITH_NULL_SHA              0xC010 /**< Weak! */
 145:C:/Users/dtjld/workspace/AIoT/src/LiteOS_Lab/iot_link/network/dtls/mbedtls/mbedtls-2.16.2/include/mbedtls\ssl_ciphersuites.h **** #define MBEDTLS_TLS_ECDHE_RSA_WITH_RC4_128_SHA           0xC011 /**< Not in SSL3! */
 146:C:/Users/dtjld/workspace/AIoT/src/LiteOS_Lab/iot_link/network/dtls/mbedtls/mbedtls-2.16.2/include/mbedtls\ssl_ciphersuites.h **** #define MBEDTLS_TLS_ECDHE_RSA_WITH_3DES_EDE_CBC_SHA      0xC012 /**< Not in SSL3! */
 147:C:/Users/dtjld/workspace/AIoT/src/LiteOS_Lab/iot_link/network/dtls/mbedtls/mbedtls-2.16.2/include/mbedtls\ssl_ciphersuites.h **** #define MBEDTLS_TLS_ECDHE_RSA_WITH_AES_128_CBC_SHA       0xC013 /**< Not in SSL3! */
 148:C:/Users/dtjld/workspace/AIoT/src/LiteOS_Lab/iot_link/network/dtls/mbedtls/mbedtls-2.16.2/include/mbedtls\ssl_ciphersuites.h **** #define MBEDTLS_TLS_ECDHE_RSA_WITH_AES_256_CBC_SHA       0xC014 /**< Not in SSL3! */
 149:C:/Users/dtjld/workspace/AIoT/src/LiteOS_Lab/iot_link/network/dtls/mbedtls/mbedtls-2.16.2/include/mbedtls\ssl_ciphersuites.h **** 
 150:C:/Users/dtjld/workspace/AIoT/src/LiteOS_Lab/iot_link/network/dtls/mbedtls/mbedtls-2.16.2/include/mbedtls\ssl_ciphersuites.h **** #define MBEDTLS_TLS_ECDHE_ECDSA_WITH_AES_128_CBC_SHA256  0xC023 /**< TLS 1.2 */
 151:C:/Users/dtjld/workspace/AIoT/src/LiteOS_Lab/iot_link/network/dtls/mbedtls/mbedtls-2.16.2/include/mbedtls\ssl_ciphersuites.h **** #define MBEDTLS_TLS_ECDHE_ECDSA_WITH_AES_256_CBC_SHA384  0xC024 /**< TLS 1.2 */
 152:C:/Users/dtjld/workspace/AIoT/src/LiteOS_Lab/iot_link/network/dtls/mbedtls/mbedtls-2.16.2/include/mbedtls\ssl_ciphersuites.h **** #define MBEDTLS_TLS_ECDH_ECDSA_WITH_AES_128_CBC_SHA256   0xC025 /**< TLS 1.2 */
 153:C:/Users/dtjld/workspace/AIoT/src/LiteOS_Lab/iot_link/network/dtls/mbedtls/mbedtls-2.16.2/include/mbedtls\ssl_ciphersuites.h **** #define MBEDTLS_TLS_ECDH_ECDSA_WITH_AES_256_CBC_SHA384   0xC026 /**< TLS 1.2 */
 154:C:/Users/dtjld/workspace/AIoT/src/LiteOS_Lab/iot_link/network/dtls/mbedtls/mbedtls-2.16.2/include/mbedtls\ssl_ciphersuites.h **** #define MBEDTLS_TLS_ECDHE_RSA_WITH_AES_128_CBC_SHA256    0xC027 /**< TLS 1.2 */
 155:C:/Users/dtjld/workspace/AIoT/src/LiteOS_Lab/iot_link/network/dtls/mbedtls/mbedtls-2.16.2/include/mbedtls\ssl_ciphersuites.h **** #define MBEDTLS_TLS_ECDHE_RSA_WITH_AES_256_CBC_SHA384    0xC028 /**< TLS 1.2 */
 156:C:/Users/dtjld/workspace/AIoT/src/LiteOS_Lab/iot_link/network/dtls/mbedtls/mbedtls-2.16.2/include/mbedtls\ssl_ciphersuites.h **** #define MBEDTLS_TLS_ECDH_RSA_WITH_AES_128_CBC_SHA256     0xC029 /**< TLS 1.2 */
 157:C:/Users/dtjld/workspace/AIoT/src/LiteOS_Lab/iot_link/network/dtls/mbedtls/mbedtls-2.16.2/include/mbedtls\ssl_ciphersuites.h **** #define MBEDTLS_TLS_ECDH_RSA_WITH_AES_256_CBC_SHA384     0xC02A /**< TLS 1.2 */
ARM GAS  C:\Users\dtjld\AppData\Local\Temp\ccA8prOd.s 			page 8


 158:C:/Users/dtjld/workspace/AIoT/src/LiteOS_Lab/iot_link/network/dtls/mbedtls/mbedtls-2.16.2/include/mbedtls\ssl_ciphersuites.h **** 
 159:C:/Users/dtjld/workspace/AIoT/src/LiteOS_Lab/iot_link/network/dtls/mbedtls/mbedtls-2.16.2/include/mbedtls\ssl_ciphersuites.h **** #define MBEDTLS_TLS_ECDHE_ECDSA_WITH_AES_128_GCM_SHA256  0xC02B /**< TLS 1.2 */
 160:C:/Users/dtjld/workspace/AIoT/src/LiteOS_Lab/iot_link/network/dtls/mbedtls/mbedtls-2.16.2/include/mbedtls\ssl_ciphersuites.h **** #define MBEDTLS_TLS_ECDHE_ECDSA_WITH_AES_256_GCM_SHA384  0xC02C /**< TLS 1.2 */
 161:C:/Users/dtjld/workspace/AIoT/src/LiteOS_Lab/iot_link/network/dtls/mbedtls/mbedtls-2.16.2/include/mbedtls\ssl_ciphersuites.h **** #define MBEDTLS_TLS_ECDH_ECDSA_WITH_AES_128_GCM_SHA256   0xC02D /**< TLS 1.2 */
 162:C:/Users/dtjld/workspace/AIoT/src/LiteOS_Lab/iot_link/network/dtls/mbedtls/mbedtls-2.16.2/include/mbedtls\ssl_ciphersuites.h **** #define MBEDTLS_TLS_ECDH_ECDSA_WITH_AES_256_GCM_SHA384   0xC02E /**< TLS 1.2 */
 163:C:/Users/dtjld/workspace/AIoT/src/LiteOS_Lab/iot_link/network/dtls/mbedtls/mbedtls-2.16.2/include/mbedtls\ssl_ciphersuites.h **** #define MBEDTLS_TLS_ECDHE_RSA_WITH_AES_128_GCM_SHA256    0xC02F /**< TLS 1.2 */
 164:C:/Users/dtjld/workspace/AIoT/src/LiteOS_Lab/iot_link/network/dtls/mbedtls/mbedtls-2.16.2/include/mbedtls\ssl_ciphersuites.h **** #define MBEDTLS_TLS_ECDHE_RSA_WITH_AES_256_GCM_SHA384    0xC030 /**< TLS 1.2 */
 165:C:/Users/dtjld/workspace/AIoT/src/LiteOS_Lab/iot_link/network/dtls/mbedtls/mbedtls-2.16.2/include/mbedtls\ssl_ciphersuites.h **** #define MBEDTLS_TLS_ECDH_RSA_WITH_AES_128_GCM_SHA256     0xC031 /**< TLS 1.2 */
 166:C:/Users/dtjld/workspace/AIoT/src/LiteOS_Lab/iot_link/network/dtls/mbedtls/mbedtls-2.16.2/include/mbedtls\ssl_ciphersuites.h **** #define MBEDTLS_TLS_ECDH_RSA_WITH_AES_256_GCM_SHA384     0xC032 /**< TLS 1.2 */
 167:C:/Users/dtjld/workspace/AIoT/src/LiteOS_Lab/iot_link/network/dtls/mbedtls/mbedtls-2.16.2/include/mbedtls\ssl_ciphersuites.h **** 
 168:C:/Users/dtjld/workspace/AIoT/src/LiteOS_Lab/iot_link/network/dtls/mbedtls/mbedtls-2.16.2/include/mbedtls\ssl_ciphersuites.h **** #define MBEDTLS_TLS_ECDHE_PSK_WITH_RC4_128_SHA           0xC033 /**< Not in SSL3! */
 169:C:/Users/dtjld/workspace/AIoT/src/LiteOS_Lab/iot_link/network/dtls/mbedtls/mbedtls-2.16.2/include/mbedtls\ssl_ciphersuites.h **** #define MBEDTLS_TLS_ECDHE_PSK_WITH_3DES_EDE_CBC_SHA      0xC034 /**< Not in SSL3! */
 170:C:/Users/dtjld/workspace/AIoT/src/LiteOS_Lab/iot_link/network/dtls/mbedtls/mbedtls-2.16.2/include/mbedtls\ssl_ciphersuites.h **** #define MBEDTLS_TLS_ECDHE_PSK_WITH_AES_128_CBC_SHA       0xC035 /**< Not in SSL3! */
 171:C:/Users/dtjld/workspace/AIoT/src/LiteOS_Lab/iot_link/network/dtls/mbedtls/mbedtls-2.16.2/include/mbedtls\ssl_ciphersuites.h **** #define MBEDTLS_TLS_ECDHE_PSK_WITH_AES_256_CBC_SHA       0xC036 /**< Not in SSL3! */
 172:C:/Users/dtjld/workspace/AIoT/src/LiteOS_Lab/iot_link/network/dtls/mbedtls/mbedtls-2.16.2/include/mbedtls\ssl_ciphersuites.h **** #define MBEDTLS_TLS_ECDHE_PSK_WITH_AES_128_CBC_SHA256    0xC037 /**< Not in SSL3! */
 173:C:/Users/dtjld/workspace/AIoT/src/LiteOS_Lab/iot_link/network/dtls/mbedtls/mbedtls-2.16.2/include/mbedtls\ssl_ciphersuites.h **** #define MBEDTLS_TLS_ECDHE_PSK_WITH_AES_256_CBC_SHA384    0xC038 /**< Not in SSL3! */
 174:C:/Users/dtjld/workspace/AIoT/src/LiteOS_Lab/iot_link/network/dtls/mbedtls/mbedtls-2.16.2/include/mbedtls\ssl_ciphersuites.h **** #define MBEDTLS_TLS_ECDHE_PSK_WITH_NULL_SHA              0xC039 /**< Weak! No SSL3! */
 175:C:/Users/dtjld/workspace/AIoT/src/LiteOS_Lab/iot_link/network/dtls/mbedtls/mbedtls-2.16.2/include/mbedtls\ssl_ciphersuites.h **** #define MBEDTLS_TLS_ECDHE_PSK_WITH_NULL_SHA256           0xC03A /**< Weak! No SSL3! */
 176:C:/Users/dtjld/workspace/AIoT/src/LiteOS_Lab/iot_link/network/dtls/mbedtls/mbedtls-2.16.2/include/mbedtls\ssl_ciphersuites.h **** #define MBEDTLS_TLS_ECDHE_PSK_WITH_NULL_SHA384           0xC03B /**< Weak! No SSL3! */
 177:C:/Users/dtjld/workspace/AIoT/src/LiteOS_Lab/iot_link/network/dtls/mbedtls/mbedtls-2.16.2/include/mbedtls\ssl_ciphersuites.h **** 
 178:C:/Users/dtjld/workspace/AIoT/src/LiteOS_Lab/iot_link/network/dtls/mbedtls/mbedtls-2.16.2/include/mbedtls\ssl_ciphersuites.h **** #define MBEDTLS_TLS_RSA_WITH_ARIA_128_CBC_SHA256         0xC03C /**< TLS 1.2 */
 179:C:/Users/dtjld/workspace/AIoT/src/LiteOS_Lab/iot_link/network/dtls/mbedtls/mbedtls-2.16.2/include/mbedtls\ssl_ciphersuites.h **** #define MBEDTLS_TLS_RSA_WITH_ARIA_256_CBC_SHA384         0xC03D /**< TLS 1.2 */
 180:C:/Users/dtjld/workspace/AIoT/src/LiteOS_Lab/iot_link/network/dtls/mbedtls/mbedtls-2.16.2/include/mbedtls\ssl_ciphersuites.h **** #define MBEDTLS_TLS_DHE_RSA_WITH_ARIA_128_CBC_SHA256     0xC044 /**< TLS 1.2 */
 181:C:/Users/dtjld/workspace/AIoT/src/LiteOS_Lab/iot_link/network/dtls/mbedtls/mbedtls-2.16.2/include/mbedtls\ssl_ciphersuites.h **** #define MBEDTLS_TLS_DHE_RSA_WITH_ARIA_256_CBC_SHA384     0xC045 /**< TLS 1.2 */
 182:C:/Users/dtjld/workspace/AIoT/src/LiteOS_Lab/iot_link/network/dtls/mbedtls/mbedtls-2.16.2/include/mbedtls\ssl_ciphersuites.h **** #define MBEDTLS_TLS_ECDHE_ECDSA_WITH_ARIA_128_CBC_SHA256 0xC048 /**< TLS 1.2 */
 183:C:/Users/dtjld/workspace/AIoT/src/LiteOS_Lab/iot_link/network/dtls/mbedtls/mbedtls-2.16.2/include/mbedtls\ssl_ciphersuites.h **** #define MBEDTLS_TLS_ECDHE_ECDSA_WITH_ARIA_256_CBC_SHA384 0xC049 /**< TLS 1.2 */
 184:C:/Users/dtjld/workspace/AIoT/src/LiteOS_Lab/iot_link/network/dtls/mbedtls/mbedtls-2.16.2/include/mbedtls\ssl_ciphersuites.h **** #define MBEDTLS_TLS_ECDH_ECDSA_WITH_ARIA_128_CBC_SHA256  0xC04A /**< TLS 1.2 */
 185:C:/Users/dtjld/workspace/AIoT/src/LiteOS_Lab/iot_link/network/dtls/mbedtls/mbedtls-2.16.2/include/mbedtls\ssl_ciphersuites.h **** #define MBEDTLS_TLS_ECDH_ECDSA_WITH_ARIA_256_CBC_SHA384  0xC04B /**< TLS 1.2 */
 186:C:/Users/dtjld/workspace/AIoT/src/LiteOS_Lab/iot_link/network/dtls/mbedtls/mbedtls-2.16.2/include/mbedtls\ssl_ciphersuites.h **** #define MBEDTLS_TLS_ECDHE_RSA_WITH_ARIA_128_CBC_SHA256   0xC04C /**< TLS 1.2 */
 187:C:/Users/dtjld/workspace/AIoT/src/LiteOS_Lab/iot_link/network/dtls/mbedtls/mbedtls-2.16.2/include/mbedtls\ssl_ciphersuites.h **** #define MBEDTLS_TLS_ECDHE_RSA_WITH_ARIA_256_CBC_SHA384   0xC04D /**< TLS 1.2 */
 188:C:/Users/dtjld/workspace/AIoT/src/LiteOS_Lab/iot_link/network/dtls/mbedtls/mbedtls-2.16.2/include/mbedtls\ssl_ciphersuites.h **** #define MBEDTLS_TLS_ECDH_RSA_WITH_ARIA_128_CBC_SHA256    0xC04E /**< TLS 1.2 */
 189:C:/Users/dtjld/workspace/AIoT/src/LiteOS_Lab/iot_link/network/dtls/mbedtls/mbedtls-2.16.2/include/mbedtls\ssl_ciphersuites.h **** #define MBEDTLS_TLS_ECDH_RSA_WITH_ARIA_256_CBC_SHA384    0xC04F /**< TLS 1.2 */
 190:C:/Users/dtjld/workspace/AIoT/src/LiteOS_Lab/iot_link/network/dtls/mbedtls/mbedtls-2.16.2/include/mbedtls\ssl_ciphersuites.h **** #define MBEDTLS_TLS_RSA_WITH_ARIA_128_GCM_SHA256         0xC050 /**< TLS 1.2 */
 191:C:/Users/dtjld/workspace/AIoT/src/LiteOS_Lab/iot_link/network/dtls/mbedtls/mbedtls-2.16.2/include/mbedtls\ssl_ciphersuites.h **** #define MBEDTLS_TLS_RSA_WITH_ARIA_256_GCM_SHA384         0xC051 /**< TLS 1.2 */
 192:C:/Users/dtjld/workspace/AIoT/src/LiteOS_Lab/iot_link/network/dtls/mbedtls/mbedtls-2.16.2/include/mbedtls\ssl_ciphersuites.h **** #define MBEDTLS_TLS_DHE_RSA_WITH_ARIA_128_GCM_SHA256     0xC052 /**< TLS 1.2 */
 193:C:/Users/dtjld/workspace/AIoT/src/LiteOS_Lab/iot_link/network/dtls/mbedtls/mbedtls-2.16.2/include/mbedtls\ssl_ciphersuites.h **** #define MBEDTLS_TLS_DHE_RSA_WITH_ARIA_256_GCM_SHA384     0xC053 /**< TLS 1.2 */
 194:C:/Users/dtjld/workspace/AIoT/src/LiteOS_Lab/iot_link/network/dtls/mbedtls/mbedtls-2.16.2/include/mbedtls\ssl_ciphersuites.h **** #define MBEDTLS_TLS_ECDHE_ECDSA_WITH_ARIA_128_GCM_SHA256 0xC05C /**< TLS 1.2 */
 195:C:/Users/dtjld/workspace/AIoT/src/LiteOS_Lab/iot_link/network/dtls/mbedtls/mbedtls-2.16.2/include/mbedtls\ssl_ciphersuites.h **** #define MBEDTLS_TLS_ECDHE_ECDSA_WITH_ARIA_256_GCM_SHA384 0xC05D /**< TLS 1.2 */
 196:C:/Users/dtjld/workspace/AIoT/src/LiteOS_Lab/iot_link/network/dtls/mbedtls/mbedtls-2.16.2/include/mbedtls\ssl_ciphersuites.h **** #define MBEDTLS_TLS_ECDH_ECDSA_WITH_ARIA_128_GCM_SHA256  0xC05E /**< TLS 1.2 */
 197:C:/Users/dtjld/workspace/AIoT/src/LiteOS_Lab/iot_link/network/dtls/mbedtls/mbedtls-2.16.2/include/mbedtls\ssl_ciphersuites.h **** #define MBEDTLS_TLS_ECDH_ECDSA_WITH_ARIA_256_GCM_SHA384  0xC05F /**< TLS 1.2 */
 198:C:/Users/dtjld/workspace/AIoT/src/LiteOS_Lab/iot_link/network/dtls/mbedtls/mbedtls-2.16.2/include/mbedtls\ssl_ciphersuites.h **** #define MBEDTLS_TLS_ECDHE_RSA_WITH_ARIA_128_GCM_SHA256   0xC060 /**< TLS 1.2 */
 199:C:/Users/dtjld/workspace/AIoT/src/LiteOS_Lab/iot_link/network/dtls/mbedtls/mbedtls-2.16.2/include/mbedtls\ssl_ciphersuites.h **** #define MBEDTLS_TLS_ECDHE_RSA_WITH_ARIA_256_GCM_SHA384   0xC061 /**< TLS 1.2 */
 200:C:/Users/dtjld/workspace/AIoT/src/LiteOS_Lab/iot_link/network/dtls/mbedtls/mbedtls-2.16.2/include/mbedtls\ssl_ciphersuites.h **** #define MBEDTLS_TLS_ECDH_RSA_WITH_ARIA_128_GCM_SHA256    0xC062 /**< TLS 1.2 */
 201:C:/Users/dtjld/workspace/AIoT/src/LiteOS_Lab/iot_link/network/dtls/mbedtls/mbedtls-2.16.2/include/mbedtls\ssl_ciphersuites.h **** #define MBEDTLS_TLS_ECDH_RSA_WITH_ARIA_256_GCM_SHA384    0xC063 /**< TLS 1.2 */
 202:C:/Users/dtjld/workspace/AIoT/src/LiteOS_Lab/iot_link/network/dtls/mbedtls/mbedtls-2.16.2/include/mbedtls\ssl_ciphersuites.h **** #define MBEDTLS_TLS_PSK_WITH_ARIA_128_CBC_SHA256         0xC064 /**< TLS 1.2 */
 203:C:/Users/dtjld/workspace/AIoT/src/LiteOS_Lab/iot_link/network/dtls/mbedtls/mbedtls-2.16.2/include/mbedtls\ssl_ciphersuites.h **** #define MBEDTLS_TLS_PSK_WITH_ARIA_256_CBC_SHA384         0xC065 /**< TLS 1.2 */
 204:C:/Users/dtjld/workspace/AIoT/src/LiteOS_Lab/iot_link/network/dtls/mbedtls/mbedtls-2.16.2/include/mbedtls\ssl_ciphersuites.h **** #define MBEDTLS_TLS_DHE_PSK_WITH_ARIA_128_CBC_SHA256     0xC066 /**< TLS 1.2 */
 205:C:/Users/dtjld/workspace/AIoT/src/LiteOS_Lab/iot_link/network/dtls/mbedtls/mbedtls-2.16.2/include/mbedtls\ssl_ciphersuites.h **** #define MBEDTLS_TLS_DHE_PSK_WITH_ARIA_256_CBC_SHA384     0xC067 /**< TLS 1.2 */
 206:C:/Users/dtjld/workspace/AIoT/src/LiteOS_Lab/iot_link/network/dtls/mbedtls/mbedtls-2.16.2/include/mbedtls\ssl_ciphersuites.h **** #define MBEDTLS_TLS_RSA_PSK_WITH_ARIA_128_CBC_SHA256     0xC068 /**< TLS 1.2 */
 207:C:/Users/dtjld/workspace/AIoT/src/LiteOS_Lab/iot_link/network/dtls/mbedtls/mbedtls-2.16.2/include/mbedtls\ssl_ciphersuites.h **** #define MBEDTLS_TLS_RSA_PSK_WITH_ARIA_256_CBC_SHA384     0xC069 /**< TLS 1.2 */
 208:C:/Users/dtjld/workspace/AIoT/src/LiteOS_Lab/iot_link/network/dtls/mbedtls/mbedtls-2.16.2/include/mbedtls\ssl_ciphersuites.h **** #define MBEDTLS_TLS_PSK_WITH_ARIA_128_GCM_SHA256         0xC06A /**< TLS 1.2 */
 209:C:/Users/dtjld/workspace/AIoT/src/LiteOS_Lab/iot_link/network/dtls/mbedtls/mbedtls-2.16.2/include/mbedtls\ssl_ciphersuites.h **** #define MBEDTLS_TLS_PSK_WITH_ARIA_256_GCM_SHA384         0xC06B /**< TLS 1.2 */
 210:C:/Users/dtjld/workspace/AIoT/src/LiteOS_Lab/iot_link/network/dtls/mbedtls/mbedtls-2.16.2/include/mbedtls\ssl_ciphersuites.h **** #define MBEDTLS_TLS_DHE_PSK_WITH_ARIA_128_GCM_SHA256     0xC06C /**< TLS 1.2 */
 211:C:/Users/dtjld/workspace/AIoT/src/LiteOS_Lab/iot_link/network/dtls/mbedtls/mbedtls-2.16.2/include/mbedtls\ssl_ciphersuites.h **** #define MBEDTLS_TLS_DHE_PSK_WITH_ARIA_256_GCM_SHA384     0xC06D /**< TLS 1.2 */
 212:C:/Users/dtjld/workspace/AIoT/src/LiteOS_Lab/iot_link/network/dtls/mbedtls/mbedtls-2.16.2/include/mbedtls\ssl_ciphersuites.h **** #define MBEDTLS_TLS_RSA_PSK_WITH_ARIA_128_GCM_SHA256     0xC06E /**< TLS 1.2 */
 213:C:/Users/dtjld/workspace/AIoT/src/LiteOS_Lab/iot_link/network/dtls/mbedtls/mbedtls-2.16.2/include/mbedtls\ssl_ciphersuites.h **** #define MBEDTLS_TLS_RSA_PSK_WITH_ARIA_256_GCM_SHA384     0xC06F /**< TLS 1.2 */
 214:C:/Users/dtjld/workspace/AIoT/src/LiteOS_Lab/iot_link/network/dtls/mbedtls/mbedtls-2.16.2/include/mbedtls\ssl_ciphersuites.h **** #define MBEDTLS_TLS_ECDHE_PSK_WITH_ARIA_128_CBC_SHA256   0xC070 /**< TLS 1.2 */
ARM GAS  C:\Users\dtjld\AppData\Local\Temp\ccA8prOd.s 			page 9


 215:C:/Users/dtjld/workspace/AIoT/src/LiteOS_Lab/iot_link/network/dtls/mbedtls/mbedtls-2.16.2/include/mbedtls\ssl_ciphersuites.h **** #define MBEDTLS_TLS_ECDHE_PSK_WITH_ARIA_256_CBC_SHA384   0xC071 /**< TLS 1.2 */
 216:C:/Users/dtjld/workspace/AIoT/src/LiteOS_Lab/iot_link/network/dtls/mbedtls/mbedtls-2.16.2/include/mbedtls\ssl_ciphersuites.h **** 
 217:C:/Users/dtjld/workspace/AIoT/src/LiteOS_Lab/iot_link/network/dtls/mbedtls/mbedtls-2.16.2/include/mbedtls\ssl_ciphersuites.h **** #define MBEDTLS_TLS_ECDHE_ECDSA_WITH_CAMELLIA_128_CBC_SHA256 0xC072 /**< Not in SSL3! */
 218:C:/Users/dtjld/workspace/AIoT/src/LiteOS_Lab/iot_link/network/dtls/mbedtls/mbedtls-2.16.2/include/mbedtls\ssl_ciphersuites.h **** #define MBEDTLS_TLS_ECDHE_ECDSA_WITH_CAMELLIA_256_CBC_SHA384 0xC073 /**< Not in SSL3! */
 219:C:/Users/dtjld/workspace/AIoT/src/LiteOS_Lab/iot_link/network/dtls/mbedtls/mbedtls-2.16.2/include/mbedtls\ssl_ciphersuites.h **** #define MBEDTLS_TLS_ECDH_ECDSA_WITH_CAMELLIA_128_CBC_SHA256  0xC074 /**< Not in SSL3! */
 220:C:/Users/dtjld/workspace/AIoT/src/LiteOS_Lab/iot_link/network/dtls/mbedtls/mbedtls-2.16.2/include/mbedtls\ssl_ciphersuites.h **** #define MBEDTLS_TLS_ECDH_ECDSA_WITH_CAMELLIA_256_CBC_SHA384  0xC075 /**< Not in SSL3! */
 221:C:/Users/dtjld/workspace/AIoT/src/LiteOS_Lab/iot_link/network/dtls/mbedtls/mbedtls-2.16.2/include/mbedtls\ssl_ciphersuites.h **** #define MBEDTLS_TLS_ECDHE_RSA_WITH_CAMELLIA_128_CBC_SHA256   0xC076 /**< Not in SSL3! */
 222:C:/Users/dtjld/workspace/AIoT/src/LiteOS_Lab/iot_link/network/dtls/mbedtls/mbedtls-2.16.2/include/mbedtls\ssl_ciphersuites.h **** #define MBEDTLS_TLS_ECDHE_RSA_WITH_CAMELLIA_256_CBC_SHA384   0xC077 /**< Not in SSL3! */
 223:C:/Users/dtjld/workspace/AIoT/src/LiteOS_Lab/iot_link/network/dtls/mbedtls/mbedtls-2.16.2/include/mbedtls\ssl_ciphersuites.h **** #define MBEDTLS_TLS_ECDH_RSA_WITH_CAMELLIA_128_CBC_SHA256    0xC078 /**< Not in SSL3! */
 224:C:/Users/dtjld/workspace/AIoT/src/LiteOS_Lab/iot_link/network/dtls/mbedtls/mbedtls-2.16.2/include/mbedtls\ssl_ciphersuites.h **** #define MBEDTLS_TLS_ECDH_RSA_WITH_CAMELLIA_256_CBC_SHA384    0xC079 /**< Not in SSL3! */
 225:C:/Users/dtjld/workspace/AIoT/src/LiteOS_Lab/iot_link/network/dtls/mbedtls/mbedtls-2.16.2/include/mbedtls\ssl_ciphersuites.h **** 
 226:C:/Users/dtjld/workspace/AIoT/src/LiteOS_Lab/iot_link/network/dtls/mbedtls/mbedtls-2.16.2/include/mbedtls\ssl_ciphersuites.h **** #define MBEDTLS_TLS_RSA_WITH_CAMELLIA_128_GCM_SHA256         0xC07A /**< TLS 1.2 */
 227:C:/Users/dtjld/workspace/AIoT/src/LiteOS_Lab/iot_link/network/dtls/mbedtls/mbedtls-2.16.2/include/mbedtls\ssl_ciphersuites.h **** #define MBEDTLS_TLS_RSA_WITH_CAMELLIA_256_GCM_SHA384         0xC07B /**< TLS 1.2 */
 228:C:/Users/dtjld/workspace/AIoT/src/LiteOS_Lab/iot_link/network/dtls/mbedtls/mbedtls-2.16.2/include/mbedtls\ssl_ciphersuites.h **** #define MBEDTLS_TLS_DHE_RSA_WITH_CAMELLIA_128_GCM_SHA256     0xC07C /**< TLS 1.2 */
 229:C:/Users/dtjld/workspace/AIoT/src/LiteOS_Lab/iot_link/network/dtls/mbedtls/mbedtls-2.16.2/include/mbedtls\ssl_ciphersuites.h **** #define MBEDTLS_TLS_DHE_RSA_WITH_CAMELLIA_256_GCM_SHA384     0xC07D /**< TLS 1.2 */
 230:C:/Users/dtjld/workspace/AIoT/src/LiteOS_Lab/iot_link/network/dtls/mbedtls/mbedtls-2.16.2/include/mbedtls\ssl_ciphersuites.h **** #define MBEDTLS_TLS_ECDHE_ECDSA_WITH_CAMELLIA_128_GCM_SHA256 0xC086 /**< TLS 1.2 */
 231:C:/Users/dtjld/workspace/AIoT/src/LiteOS_Lab/iot_link/network/dtls/mbedtls/mbedtls-2.16.2/include/mbedtls\ssl_ciphersuites.h **** #define MBEDTLS_TLS_ECDHE_ECDSA_WITH_CAMELLIA_256_GCM_SHA384 0xC087 /**< TLS 1.2 */
 232:C:/Users/dtjld/workspace/AIoT/src/LiteOS_Lab/iot_link/network/dtls/mbedtls/mbedtls-2.16.2/include/mbedtls\ssl_ciphersuites.h **** #define MBEDTLS_TLS_ECDH_ECDSA_WITH_CAMELLIA_128_GCM_SHA256  0xC088 /**< TLS 1.2 */
 233:C:/Users/dtjld/workspace/AIoT/src/LiteOS_Lab/iot_link/network/dtls/mbedtls/mbedtls-2.16.2/include/mbedtls\ssl_ciphersuites.h **** #define MBEDTLS_TLS_ECDH_ECDSA_WITH_CAMELLIA_256_GCM_SHA384  0xC089 /**< TLS 1.2 */
 234:C:/Users/dtjld/workspace/AIoT/src/LiteOS_Lab/iot_link/network/dtls/mbedtls/mbedtls-2.16.2/include/mbedtls\ssl_ciphersuites.h **** #define MBEDTLS_TLS_ECDHE_RSA_WITH_CAMELLIA_128_GCM_SHA256   0xC08A /**< TLS 1.2 */
 235:C:/Users/dtjld/workspace/AIoT/src/LiteOS_Lab/iot_link/network/dtls/mbedtls/mbedtls-2.16.2/include/mbedtls\ssl_ciphersuites.h **** #define MBEDTLS_TLS_ECDHE_RSA_WITH_CAMELLIA_256_GCM_SHA384   0xC08B /**< TLS 1.2 */
 236:C:/Users/dtjld/workspace/AIoT/src/LiteOS_Lab/iot_link/network/dtls/mbedtls/mbedtls-2.16.2/include/mbedtls\ssl_ciphersuites.h **** #define MBEDTLS_TLS_ECDH_RSA_WITH_CAMELLIA_128_GCM_SHA256    0xC08C /**< TLS 1.2 */
 237:C:/Users/dtjld/workspace/AIoT/src/LiteOS_Lab/iot_link/network/dtls/mbedtls/mbedtls-2.16.2/include/mbedtls\ssl_ciphersuites.h **** #define MBEDTLS_TLS_ECDH_RSA_WITH_CAMELLIA_256_GCM_SHA384    0xC08D /**< TLS 1.2 */
 238:C:/Users/dtjld/workspace/AIoT/src/LiteOS_Lab/iot_link/network/dtls/mbedtls/mbedtls-2.16.2/include/mbedtls\ssl_ciphersuites.h **** 
 239:C:/Users/dtjld/workspace/AIoT/src/LiteOS_Lab/iot_link/network/dtls/mbedtls/mbedtls-2.16.2/include/mbedtls\ssl_ciphersuites.h **** #define MBEDTLS_TLS_PSK_WITH_CAMELLIA_128_GCM_SHA256       0xC08E /**< TLS 1.2 */
 240:C:/Users/dtjld/workspace/AIoT/src/LiteOS_Lab/iot_link/network/dtls/mbedtls/mbedtls-2.16.2/include/mbedtls\ssl_ciphersuites.h **** #define MBEDTLS_TLS_PSK_WITH_CAMELLIA_256_GCM_SHA384       0xC08F /**< TLS 1.2 */
 241:C:/Users/dtjld/workspace/AIoT/src/LiteOS_Lab/iot_link/network/dtls/mbedtls/mbedtls-2.16.2/include/mbedtls\ssl_ciphersuites.h **** #define MBEDTLS_TLS_DHE_PSK_WITH_CAMELLIA_128_GCM_SHA256   0xC090 /**< TLS 1.2 */
 242:C:/Users/dtjld/workspace/AIoT/src/LiteOS_Lab/iot_link/network/dtls/mbedtls/mbedtls-2.16.2/include/mbedtls\ssl_ciphersuites.h **** #define MBEDTLS_TLS_DHE_PSK_WITH_CAMELLIA_256_GCM_SHA384   0xC091 /**< TLS 1.2 */
 243:C:/Users/dtjld/workspace/AIoT/src/LiteOS_Lab/iot_link/network/dtls/mbedtls/mbedtls-2.16.2/include/mbedtls\ssl_ciphersuites.h **** #define MBEDTLS_TLS_RSA_PSK_WITH_CAMELLIA_128_GCM_SHA256   0xC092 /**< TLS 1.2 */
 244:C:/Users/dtjld/workspace/AIoT/src/LiteOS_Lab/iot_link/network/dtls/mbedtls/mbedtls-2.16.2/include/mbedtls\ssl_ciphersuites.h **** #define MBEDTLS_TLS_RSA_PSK_WITH_CAMELLIA_256_GCM_SHA384   0xC093 /**< TLS 1.2 */
 245:C:/Users/dtjld/workspace/AIoT/src/LiteOS_Lab/iot_link/network/dtls/mbedtls/mbedtls-2.16.2/include/mbedtls\ssl_ciphersuites.h **** 
 246:C:/Users/dtjld/workspace/AIoT/src/LiteOS_Lab/iot_link/network/dtls/mbedtls/mbedtls-2.16.2/include/mbedtls\ssl_ciphersuites.h **** #define MBEDTLS_TLS_PSK_WITH_CAMELLIA_128_CBC_SHA256       0xC094
 247:C:/Users/dtjld/workspace/AIoT/src/LiteOS_Lab/iot_link/network/dtls/mbedtls/mbedtls-2.16.2/include/mbedtls\ssl_ciphersuites.h **** #define MBEDTLS_TLS_PSK_WITH_CAMELLIA_256_CBC_SHA384       0xC095
 248:C:/Users/dtjld/workspace/AIoT/src/LiteOS_Lab/iot_link/network/dtls/mbedtls/mbedtls-2.16.2/include/mbedtls\ssl_ciphersuites.h **** #define MBEDTLS_TLS_DHE_PSK_WITH_CAMELLIA_128_CBC_SHA256   0xC096
 249:C:/Users/dtjld/workspace/AIoT/src/LiteOS_Lab/iot_link/network/dtls/mbedtls/mbedtls-2.16.2/include/mbedtls\ssl_ciphersuites.h **** #define MBEDTLS_TLS_DHE_PSK_WITH_CAMELLIA_256_CBC_SHA384   0xC097
 250:C:/Users/dtjld/workspace/AIoT/src/LiteOS_Lab/iot_link/network/dtls/mbedtls/mbedtls-2.16.2/include/mbedtls\ssl_ciphersuites.h **** #define MBEDTLS_TLS_RSA_PSK_WITH_CAMELLIA_128_CBC_SHA256   0xC098
 251:C:/Users/dtjld/workspace/AIoT/src/LiteOS_Lab/iot_link/network/dtls/mbedtls/mbedtls-2.16.2/include/mbedtls\ssl_ciphersuites.h **** #define MBEDTLS_TLS_RSA_PSK_WITH_CAMELLIA_256_CBC_SHA384   0xC099
 252:C:/Users/dtjld/workspace/AIoT/src/LiteOS_Lab/iot_link/network/dtls/mbedtls/mbedtls-2.16.2/include/mbedtls\ssl_ciphersuites.h **** #define MBEDTLS_TLS_ECDHE_PSK_WITH_CAMELLIA_128_CBC_SHA256 0xC09A /**< Not in SSL3! */
 253:C:/Users/dtjld/workspace/AIoT/src/LiteOS_Lab/iot_link/network/dtls/mbedtls/mbedtls-2.16.2/include/mbedtls\ssl_ciphersuites.h **** #define MBEDTLS_TLS_ECDHE_PSK_WITH_CAMELLIA_256_CBC_SHA384 0xC09B /**< Not in SSL3! */
 254:C:/Users/dtjld/workspace/AIoT/src/LiteOS_Lab/iot_link/network/dtls/mbedtls/mbedtls-2.16.2/include/mbedtls\ssl_ciphersuites.h **** 
 255:C:/Users/dtjld/workspace/AIoT/src/LiteOS_Lab/iot_link/network/dtls/mbedtls/mbedtls-2.16.2/include/mbedtls\ssl_ciphersuites.h **** #define MBEDTLS_TLS_RSA_WITH_AES_128_CCM                0xC09C  /**< TLS 1.2 */
 256:C:/Users/dtjld/workspace/AIoT/src/LiteOS_Lab/iot_link/network/dtls/mbedtls/mbedtls-2.16.2/include/mbedtls\ssl_ciphersuites.h **** #define MBEDTLS_TLS_RSA_WITH_AES_256_CCM                0xC09D  /**< TLS 1.2 */
 257:C:/Users/dtjld/workspace/AIoT/src/LiteOS_Lab/iot_link/network/dtls/mbedtls/mbedtls-2.16.2/include/mbedtls\ssl_ciphersuites.h **** #define MBEDTLS_TLS_DHE_RSA_WITH_AES_128_CCM            0xC09E  /**< TLS 1.2 */
 258:C:/Users/dtjld/workspace/AIoT/src/LiteOS_Lab/iot_link/network/dtls/mbedtls/mbedtls-2.16.2/include/mbedtls\ssl_ciphersuites.h **** #define MBEDTLS_TLS_DHE_RSA_WITH_AES_256_CCM            0xC09F  /**< TLS 1.2 */
 259:C:/Users/dtjld/workspace/AIoT/src/LiteOS_Lab/iot_link/network/dtls/mbedtls/mbedtls-2.16.2/include/mbedtls\ssl_ciphersuites.h **** #define MBEDTLS_TLS_RSA_WITH_AES_128_CCM_8              0xC0A0  /**< TLS 1.2 */
 260:C:/Users/dtjld/workspace/AIoT/src/LiteOS_Lab/iot_link/network/dtls/mbedtls/mbedtls-2.16.2/include/mbedtls\ssl_ciphersuites.h **** #define MBEDTLS_TLS_RSA_WITH_AES_256_CCM_8              0xC0A1  /**< TLS 1.2 */
 261:C:/Users/dtjld/workspace/AIoT/src/LiteOS_Lab/iot_link/network/dtls/mbedtls/mbedtls-2.16.2/include/mbedtls\ssl_ciphersuites.h **** #define MBEDTLS_TLS_DHE_RSA_WITH_AES_128_CCM_8          0xC0A2  /**< TLS 1.2 */
 262:C:/Users/dtjld/workspace/AIoT/src/LiteOS_Lab/iot_link/network/dtls/mbedtls/mbedtls-2.16.2/include/mbedtls\ssl_ciphersuites.h **** #define MBEDTLS_TLS_DHE_RSA_WITH_AES_256_CCM_8          0xC0A3  /**< TLS 1.2 */
 263:C:/Users/dtjld/workspace/AIoT/src/LiteOS_Lab/iot_link/network/dtls/mbedtls/mbedtls-2.16.2/include/mbedtls\ssl_ciphersuites.h **** #define MBEDTLS_TLS_PSK_WITH_AES_128_CCM                0xC0A4  /**< TLS 1.2 */
 264:C:/Users/dtjld/workspace/AIoT/src/LiteOS_Lab/iot_link/network/dtls/mbedtls/mbedtls-2.16.2/include/mbedtls\ssl_ciphersuites.h **** #define MBEDTLS_TLS_PSK_WITH_AES_256_CCM                0xC0A5  /**< TLS 1.2 */
 265:C:/Users/dtjld/workspace/AIoT/src/LiteOS_Lab/iot_link/network/dtls/mbedtls/mbedtls-2.16.2/include/mbedtls\ssl_ciphersuites.h **** #define MBEDTLS_TLS_DHE_PSK_WITH_AES_128_CCM            0xC0A6  /**< TLS 1.2 */
 266:C:/Users/dtjld/workspace/AIoT/src/LiteOS_Lab/iot_link/network/dtls/mbedtls/mbedtls-2.16.2/include/mbedtls\ssl_ciphersuites.h **** #define MBEDTLS_TLS_DHE_PSK_WITH_AES_256_CCM            0xC0A7  /**< TLS 1.2 */
 267:C:/Users/dtjld/workspace/AIoT/src/LiteOS_Lab/iot_link/network/dtls/mbedtls/mbedtls-2.16.2/include/mbedtls\ssl_ciphersuites.h **** #define MBEDTLS_TLS_PSK_WITH_AES_128_CCM_8              0xC0A8  /**< TLS 1.2 */
 268:C:/Users/dtjld/workspace/AIoT/src/LiteOS_Lab/iot_link/network/dtls/mbedtls/mbedtls-2.16.2/include/mbedtls\ssl_ciphersuites.h **** #define MBEDTLS_TLS_PSK_WITH_AES_256_CCM_8              0xC0A9  /**< TLS 1.2 */
 269:C:/Users/dtjld/workspace/AIoT/src/LiteOS_Lab/iot_link/network/dtls/mbedtls/mbedtls-2.16.2/include/mbedtls\ssl_ciphersuites.h **** #define MBEDTLS_TLS_DHE_PSK_WITH_AES_128_CCM_8          0xC0AA  /**< TLS 1.2 */
 270:C:/Users/dtjld/workspace/AIoT/src/LiteOS_Lab/iot_link/network/dtls/mbedtls/mbedtls-2.16.2/include/mbedtls\ssl_ciphersuites.h **** #define MBEDTLS_TLS_DHE_PSK_WITH_AES_256_CCM_8          0xC0AB  /**< TLS 1.2 */
 271:C:/Users/dtjld/workspace/AIoT/src/LiteOS_Lab/iot_link/network/dtls/mbedtls/mbedtls-2.16.2/include/mbedtls\ssl_ciphersuites.h **** /* The last two are named with PSK_DHE in the RFC, which looks like a typo */
ARM GAS  C:\Users\dtjld\AppData\Local\Temp\ccA8prOd.s 			page 10


 272:C:/Users/dtjld/workspace/AIoT/src/LiteOS_Lab/iot_link/network/dtls/mbedtls/mbedtls-2.16.2/include/mbedtls\ssl_ciphersuites.h **** 
 273:C:/Users/dtjld/workspace/AIoT/src/LiteOS_Lab/iot_link/network/dtls/mbedtls/mbedtls-2.16.2/include/mbedtls\ssl_ciphersuites.h **** #define MBEDTLS_TLS_ECDHE_ECDSA_WITH_AES_128_CCM        0xC0AC  /**< TLS 1.2 */
 274:C:/Users/dtjld/workspace/AIoT/src/LiteOS_Lab/iot_link/network/dtls/mbedtls/mbedtls-2.16.2/include/mbedtls\ssl_ciphersuites.h **** #define MBEDTLS_TLS_ECDHE_ECDSA_WITH_AES_256_CCM        0xC0AD  /**< TLS 1.2 */
 275:C:/Users/dtjld/workspace/AIoT/src/LiteOS_Lab/iot_link/network/dtls/mbedtls/mbedtls-2.16.2/include/mbedtls\ssl_ciphersuites.h **** #define MBEDTLS_TLS_ECDHE_ECDSA_WITH_AES_128_CCM_8      0xC0AE  /**< TLS 1.2 */
 276:C:/Users/dtjld/workspace/AIoT/src/LiteOS_Lab/iot_link/network/dtls/mbedtls/mbedtls-2.16.2/include/mbedtls\ssl_ciphersuites.h **** #define MBEDTLS_TLS_ECDHE_ECDSA_WITH_AES_256_CCM_8      0xC0AF  /**< TLS 1.2 */
 277:C:/Users/dtjld/workspace/AIoT/src/LiteOS_Lab/iot_link/network/dtls/mbedtls/mbedtls-2.16.2/include/mbedtls\ssl_ciphersuites.h **** 
 278:C:/Users/dtjld/workspace/AIoT/src/LiteOS_Lab/iot_link/network/dtls/mbedtls/mbedtls-2.16.2/include/mbedtls\ssl_ciphersuites.h **** #define MBEDTLS_TLS_ECJPAKE_WITH_AES_128_CCM_8          0xC0FF  /**< experimental */
 279:C:/Users/dtjld/workspace/AIoT/src/LiteOS_Lab/iot_link/network/dtls/mbedtls/mbedtls-2.16.2/include/mbedtls\ssl_ciphersuites.h **** 
 280:C:/Users/dtjld/workspace/AIoT/src/LiteOS_Lab/iot_link/network/dtls/mbedtls/mbedtls-2.16.2/include/mbedtls\ssl_ciphersuites.h **** /* RFC 7905 */
 281:C:/Users/dtjld/workspace/AIoT/src/LiteOS_Lab/iot_link/network/dtls/mbedtls/mbedtls-2.16.2/include/mbedtls\ssl_ciphersuites.h **** #define MBEDTLS_TLS_ECDHE_RSA_WITH_CHACHA20_POLY1305_SHA256   0xCCA8 /**< TLS 1.2 */
 282:C:/Users/dtjld/workspace/AIoT/src/LiteOS_Lab/iot_link/network/dtls/mbedtls/mbedtls-2.16.2/include/mbedtls\ssl_ciphersuites.h **** #define MBEDTLS_TLS_ECDHE_ECDSA_WITH_CHACHA20_POLY1305_SHA256 0xCCA9 /**< TLS 1.2 */
 283:C:/Users/dtjld/workspace/AIoT/src/LiteOS_Lab/iot_link/network/dtls/mbedtls/mbedtls-2.16.2/include/mbedtls\ssl_ciphersuites.h **** #define MBEDTLS_TLS_DHE_RSA_WITH_CHACHA20_POLY1305_SHA256     0xCCAA /**< TLS 1.2 */
 284:C:/Users/dtjld/workspace/AIoT/src/LiteOS_Lab/iot_link/network/dtls/mbedtls/mbedtls-2.16.2/include/mbedtls\ssl_ciphersuites.h **** #define MBEDTLS_TLS_PSK_WITH_CHACHA20_POLY1305_SHA256         0xCCAB /**< TLS 1.2 */
 285:C:/Users/dtjld/workspace/AIoT/src/LiteOS_Lab/iot_link/network/dtls/mbedtls/mbedtls-2.16.2/include/mbedtls\ssl_ciphersuites.h **** #define MBEDTLS_TLS_ECDHE_PSK_WITH_CHACHA20_POLY1305_SHA256   0xCCAC /**< TLS 1.2 */
 286:C:/Users/dtjld/workspace/AIoT/src/LiteOS_Lab/iot_link/network/dtls/mbedtls/mbedtls-2.16.2/include/mbedtls\ssl_ciphersuites.h **** #define MBEDTLS_TLS_DHE_PSK_WITH_CHACHA20_POLY1305_SHA256     0xCCAD /**< TLS 1.2 */
 287:C:/Users/dtjld/workspace/AIoT/src/LiteOS_Lab/iot_link/network/dtls/mbedtls/mbedtls-2.16.2/include/mbedtls\ssl_ciphersuites.h **** #define MBEDTLS_TLS_RSA_PSK_WITH_CHACHA20_POLY1305_SHA256     0xCCAE /**< TLS 1.2 */
 288:C:/Users/dtjld/workspace/AIoT/src/LiteOS_Lab/iot_link/network/dtls/mbedtls/mbedtls-2.16.2/include/mbedtls\ssl_ciphersuites.h **** 
 289:C:/Users/dtjld/workspace/AIoT/src/LiteOS_Lab/iot_link/network/dtls/mbedtls/mbedtls-2.16.2/include/mbedtls\ssl_ciphersuites.h **** /* Reminder: update mbedtls_ssl_premaster_secret when adding a new key exchange.
 290:C:/Users/dtjld/workspace/AIoT/src/LiteOS_Lab/iot_link/network/dtls/mbedtls/mbedtls-2.16.2/include/mbedtls\ssl_ciphersuites.h ****  * Reminder: update MBEDTLS_KEY_EXCHANGE__xxx below
 291:C:/Users/dtjld/workspace/AIoT/src/LiteOS_Lab/iot_link/network/dtls/mbedtls/mbedtls-2.16.2/include/mbedtls\ssl_ciphersuites.h ****  */
 292:C:/Users/dtjld/workspace/AIoT/src/LiteOS_Lab/iot_link/network/dtls/mbedtls/mbedtls-2.16.2/include/mbedtls\ssl_ciphersuites.h **** typedef enum {
 293:C:/Users/dtjld/workspace/AIoT/src/LiteOS_Lab/iot_link/network/dtls/mbedtls/mbedtls-2.16.2/include/mbedtls\ssl_ciphersuites.h ****     MBEDTLS_KEY_EXCHANGE_NONE = 0,
 294:C:/Users/dtjld/workspace/AIoT/src/LiteOS_Lab/iot_link/network/dtls/mbedtls/mbedtls-2.16.2/include/mbedtls\ssl_ciphersuites.h ****     MBEDTLS_KEY_EXCHANGE_RSA,
 295:C:/Users/dtjld/workspace/AIoT/src/LiteOS_Lab/iot_link/network/dtls/mbedtls/mbedtls-2.16.2/include/mbedtls\ssl_ciphersuites.h ****     MBEDTLS_KEY_EXCHANGE_DHE_RSA,
 296:C:/Users/dtjld/workspace/AIoT/src/LiteOS_Lab/iot_link/network/dtls/mbedtls/mbedtls-2.16.2/include/mbedtls\ssl_ciphersuites.h ****     MBEDTLS_KEY_EXCHANGE_ECDHE_RSA,
 297:C:/Users/dtjld/workspace/AIoT/src/LiteOS_Lab/iot_link/network/dtls/mbedtls/mbedtls-2.16.2/include/mbedtls\ssl_ciphersuites.h ****     MBEDTLS_KEY_EXCHANGE_ECDHE_ECDSA,
 298:C:/Users/dtjld/workspace/AIoT/src/LiteOS_Lab/iot_link/network/dtls/mbedtls/mbedtls-2.16.2/include/mbedtls\ssl_ciphersuites.h ****     MBEDTLS_KEY_EXCHANGE_PSK,
 299:C:/Users/dtjld/workspace/AIoT/src/LiteOS_Lab/iot_link/network/dtls/mbedtls/mbedtls-2.16.2/include/mbedtls\ssl_ciphersuites.h ****     MBEDTLS_KEY_EXCHANGE_DHE_PSK,
 300:C:/Users/dtjld/workspace/AIoT/src/LiteOS_Lab/iot_link/network/dtls/mbedtls/mbedtls-2.16.2/include/mbedtls\ssl_ciphersuites.h ****     MBEDTLS_KEY_EXCHANGE_RSA_PSK,
 301:C:/Users/dtjld/workspace/AIoT/src/LiteOS_Lab/iot_link/network/dtls/mbedtls/mbedtls-2.16.2/include/mbedtls\ssl_ciphersuites.h ****     MBEDTLS_KEY_EXCHANGE_ECDHE_PSK,
 302:C:/Users/dtjld/workspace/AIoT/src/LiteOS_Lab/iot_link/network/dtls/mbedtls/mbedtls-2.16.2/include/mbedtls\ssl_ciphersuites.h ****     MBEDTLS_KEY_EXCHANGE_ECDH_RSA,
 303:C:/Users/dtjld/workspace/AIoT/src/LiteOS_Lab/iot_link/network/dtls/mbedtls/mbedtls-2.16.2/include/mbedtls\ssl_ciphersuites.h ****     MBEDTLS_KEY_EXCHANGE_ECDH_ECDSA,
 304:C:/Users/dtjld/workspace/AIoT/src/LiteOS_Lab/iot_link/network/dtls/mbedtls/mbedtls-2.16.2/include/mbedtls\ssl_ciphersuites.h ****     MBEDTLS_KEY_EXCHANGE_ECJPAKE,
 305:C:/Users/dtjld/workspace/AIoT/src/LiteOS_Lab/iot_link/network/dtls/mbedtls/mbedtls-2.16.2/include/mbedtls\ssl_ciphersuites.h **** } mbedtls_key_exchange_type_t;
 306:C:/Users/dtjld/workspace/AIoT/src/LiteOS_Lab/iot_link/network/dtls/mbedtls/mbedtls-2.16.2/include/mbedtls\ssl_ciphersuites.h **** 
 307:C:/Users/dtjld/workspace/AIoT/src/LiteOS_Lab/iot_link/network/dtls/mbedtls/mbedtls-2.16.2/include/mbedtls\ssl_ciphersuites.h **** /* Key exchanges using a certificate */
 308:C:/Users/dtjld/workspace/AIoT/src/LiteOS_Lab/iot_link/network/dtls/mbedtls/mbedtls-2.16.2/include/mbedtls\ssl_ciphersuites.h **** #if defined(MBEDTLS_KEY_EXCHANGE_RSA_ENABLED)           || \
 309:C:/Users/dtjld/workspace/AIoT/src/LiteOS_Lab/iot_link/network/dtls/mbedtls/mbedtls-2.16.2/include/mbedtls\ssl_ciphersuites.h ****     defined(MBEDTLS_KEY_EXCHANGE_DHE_RSA_ENABLED)       || \
 310:C:/Users/dtjld/workspace/AIoT/src/LiteOS_Lab/iot_link/network/dtls/mbedtls/mbedtls-2.16.2/include/mbedtls\ssl_ciphersuites.h ****     defined(MBEDTLS_KEY_EXCHANGE_ECDHE_RSA_ENABLED)     || \
 311:C:/Users/dtjld/workspace/AIoT/src/LiteOS_Lab/iot_link/network/dtls/mbedtls/mbedtls-2.16.2/include/mbedtls\ssl_ciphersuites.h ****     defined(MBEDTLS_KEY_EXCHANGE_ECDHE_ECDSA_ENABLED)   || \
 312:C:/Users/dtjld/workspace/AIoT/src/LiteOS_Lab/iot_link/network/dtls/mbedtls/mbedtls-2.16.2/include/mbedtls\ssl_ciphersuites.h ****     defined(MBEDTLS_KEY_EXCHANGE_RSA_PSK_ENABLED)       || \
 313:C:/Users/dtjld/workspace/AIoT/src/LiteOS_Lab/iot_link/network/dtls/mbedtls/mbedtls-2.16.2/include/mbedtls\ssl_ciphersuites.h ****     defined(MBEDTLS_KEY_EXCHANGE_ECDH_RSA_ENABLED)      || \
 314:C:/Users/dtjld/workspace/AIoT/src/LiteOS_Lab/iot_link/network/dtls/mbedtls/mbedtls-2.16.2/include/mbedtls\ssl_ciphersuites.h ****     defined(MBEDTLS_KEY_EXCHANGE_ECDH_ECDSA_ENABLED)
 315:C:/Users/dtjld/workspace/AIoT/src/LiteOS_Lab/iot_link/network/dtls/mbedtls/mbedtls-2.16.2/include/mbedtls\ssl_ciphersuites.h **** #define MBEDTLS_KEY_EXCHANGE__WITH_CERT__ENABLED
 316:C:/Users/dtjld/workspace/AIoT/src/LiteOS_Lab/iot_link/network/dtls/mbedtls/mbedtls-2.16.2/include/mbedtls\ssl_ciphersuites.h **** #endif
 317:C:/Users/dtjld/workspace/AIoT/src/LiteOS_Lab/iot_link/network/dtls/mbedtls/mbedtls-2.16.2/include/mbedtls\ssl_ciphersuites.h **** 
 318:C:/Users/dtjld/workspace/AIoT/src/LiteOS_Lab/iot_link/network/dtls/mbedtls/mbedtls-2.16.2/include/mbedtls\ssl_ciphersuites.h **** /* Key exchanges allowing client certificate requests */
 319:C:/Users/dtjld/workspace/AIoT/src/LiteOS_Lab/iot_link/network/dtls/mbedtls/mbedtls-2.16.2/include/mbedtls\ssl_ciphersuites.h **** #if defined(MBEDTLS_KEY_EXCHANGE_RSA_ENABLED)           ||       \
 320:C:/Users/dtjld/workspace/AIoT/src/LiteOS_Lab/iot_link/network/dtls/mbedtls/mbedtls-2.16.2/include/mbedtls\ssl_ciphersuites.h ****     defined(MBEDTLS_KEY_EXCHANGE_DHE_RSA_ENABLED)       ||       \
 321:C:/Users/dtjld/workspace/AIoT/src/LiteOS_Lab/iot_link/network/dtls/mbedtls/mbedtls-2.16.2/include/mbedtls\ssl_ciphersuites.h ****     defined(MBEDTLS_KEY_EXCHANGE_ECDH_RSA_ENABLED)      ||       \
 322:C:/Users/dtjld/workspace/AIoT/src/LiteOS_Lab/iot_link/network/dtls/mbedtls/mbedtls-2.16.2/include/mbedtls\ssl_ciphersuites.h ****     defined(MBEDTLS_KEY_EXCHANGE_ECDHE_RSA_ENABLED)     ||       \
 323:C:/Users/dtjld/workspace/AIoT/src/LiteOS_Lab/iot_link/network/dtls/mbedtls/mbedtls-2.16.2/include/mbedtls\ssl_ciphersuites.h ****     defined(MBEDTLS_KEY_EXCHANGE_ECDH_ECDSA_ENABLED)    ||       \
 324:C:/Users/dtjld/workspace/AIoT/src/LiteOS_Lab/iot_link/network/dtls/mbedtls/mbedtls-2.16.2/include/mbedtls\ssl_ciphersuites.h ****     defined(MBEDTLS_KEY_EXCHANGE_ECDHE_ECDSA_ENABLED)
 325:C:/Users/dtjld/workspace/AIoT/src/LiteOS_Lab/iot_link/network/dtls/mbedtls/mbedtls-2.16.2/include/mbedtls\ssl_ciphersuites.h **** #define MBEDTLS_KEY_EXCHANGE__CERT_REQ_ALLOWED__ENABLED
 326:C:/Users/dtjld/workspace/AIoT/src/LiteOS_Lab/iot_link/network/dtls/mbedtls/mbedtls-2.16.2/include/mbedtls\ssl_ciphersuites.h **** #endif
 327:C:/Users/dtjld/workspace/AIoT/src/LiteOS_Lab/iot_link/network/dtls/mbedtls/mbedtls-2.16.2/include/mbedtls\ssl_ciphersuites.h **** 
 328:C:/Users/dtjld/workspace/AIoT/src/LiteOS_Lab/iot_link/network/dtls/mbedtls/mbedtls-2.16.2/include/mbedtls\ssl_ciphersuites.h **** /* Key exchanges involving server signature in ServerKeyExchange */
ARM GAS  C:\Users\dtjld\AppData\Local\Temp\ccA8prOd.s 			page 11


 329:C:/Users/dtjld/workspace/AIoT/src/LiteOS_Lab/iot_link/network/dtls/mbedtls/mbedtls-2.16.2/include/mbedtls\ssl_ciphersuites.h **** #if defined(MBEDTLS_KEY_EXCHANGE_DHE_RSA_ENABLED)       || \
 330:C:/Users/dtjld/workspace/AIoT/src/LiteOS_Lab/iot_link/network/dtls/mbedtls/mbedtls-2.16.2/include/mbedtls\ssl_ciphersuites.h ****     defined(MBEDTLS_KEY_EXCHANGE_ECDHE_RSA_ENABLED)     || \
 331:C:/Users/dtjld/workspace/AIoT/src/LiteOS_Lab/iot_link/network/dtls/mbedtls/mbedtls-2.16.2/include/mbedtls\ssl_ciphersuites.h ****     defined(MBEDTLS_KEY_EXCHANGE_ECDHE_ECDSA_ENABLED)
 332:C:/Users/dtjld/workspace/AIoT/src/LiteOS_Lab/iot_link/network/dtls/mbedtls/mbedtls-2.16.2/include/mbedtls\ssl_ciphersuites.h **** #define MBEDTLS_KEY_EXCHANGE__WITH_SERVER_SIGNATURE__ENABLED
 333:C:/Users/dtjld/workspace/AIoT/src/LiteOS_Lab/iot_link/network/dtls/mbedtls/mbedtls-2.16.2/include/mbedtls\ssl_ciphersuites.h **** #endif
 334:C:/Users/dtjld/workspace/AIoT/src/LiteOS_Lab/iot_link/network/dtls/mbedtls/mbedtls-2.16.2/include/mbedtls\ssl_ciphersuites.h **** 
 335:C:/Users/dtjld/workspace/AIoT/src/LiteOS_Lab/iot_link/network/dtls/mbedtls/mbedtls-2.16.2/include/mbedtls\ssl_ciphersuites.h **** /* Key exchanges using ECDH */
 336:C:/Users/dtjld/workspace/AIoT/src/LiteOS_Lab/iot_link/network/dtls/mbedtls/mbedtls-2.16.2/include/mbedtls\ssl_ciphersuites.h **** #if defined(MBEDTLS_KEY_EXCHANGE_ECDH_RSA_ENABLED)      || \
 337:C:/Users/dtjld/workspace/AIoT/src/LiteOS_Lab/iot_link/network/dtls/mbedtls/mbedtls-2.16.2/include/mbedtls\ssl_ciphersuites.h ****     defined(MBEDTLS_KEY_EXCHANGE_ECDH_ECDSA_ENABLED)
 338:C:/Users/dtjld/workspace/AIoT/src/LiteOS_Lab/iot_link/network/dtls/mbedtls/mbedtls-2.16.2/include/mbedtls\ssl_ciphersuites.h **** #define MBEDTLS_KEY_EXCHANGE__SOME__ECDH_ENABLED
 339:C:/Users/dtjld/workspace/AIoT/src/LiteOS_Lab/iot_link/network/dtls/mbedtls/mbedtls-2.16.2/include/mbedtls\ssl_ciphersuites.h **** #endif
 340:C:/Users/dtjld/workspace/AIoT/src/LiteOS_Lab/iot_link/network/dtls/mbedtls/mbedtls-2.16.2/include/mbedtls\ssl_ciphersuites.h **** 
 341:C:/Users/dtjld/workspace/AIoT/src/LiteOS_Lab/iot_link/network/dtls/mbedtls/mbedtls-2.16.2/include/mbedtls\ssl_ciphersuites.h **** /* Key exchanges that don't involve ephemeral keys */
 342:C:/Users/dtjld/workspace/AIoT/src/LiteOS_Lab/iot_link/network/dtls/mbedtls/mbedtls-2.16.2/include/mbedtls\ssl_ciphersuites.h **** #if defined(MBEDTLS_KEY_EXCHANGE_RSA_ENABLED)           || \
 343:C:/Users/dtjld/workspace/AIoT/src/LiteOS_Lab/iot_link/network/dtls/mbedtls/mbedtls-2.16.2/include/mbedtls\ssl_ciphersuites.h ****     defined(MBEDTLS_KEY_EXCHANGE_PSK_ENABLED)           || \
 344:C:/Users/dtjld/workspace/AIoT/src/LiteOS_Lab/iot_link/network/dtls/mbedtls/mbedtls-2.16.2/include/mbedtls\ssl_ciphersuites.h ****     defined(MBEDTLS_KEY_EXCHANGE_RSA_PSK_ENABLED)       || \
 345:C:/Users/dtjld/workspace/AIoT/src/LiteOS_Lab/iot_link/network/dtls/mbedtls/mbedtls-2.16.2/include/mbedtls\ssl_ciphersuites.h ****     defined(MBEDTLS_KEY_EXCHANGE__SOME__ECDH_ENABLED)
 346:C:/Users/dtjld/workspace/AIoT/src/LiteOS_Lab/iot_link/network/dtls/mbedtls/mbedtls-2.16.2/include/mbedtls\ssl_ciphersuites.h **** #define MBEDTLS_KEY_EXCHANGE__SOME_NON_PFS__ENABLED
 347:C:/Users/dtjld/workspace/AIoT/src/LiteOS_Lab/iot_link/network/dtls/mbedtls/mbedtls-2.16.2/include/mbedtls\ssl_ciphersuites.h **** #endif
 348:C:/Users/dtjld/workspace/AIoT/src/LiteOS_Lab/iot_link/network/dtls/mbedtls/mbedtls-2.16.2/include/mbedtls\ssl_ciphersuites.h **** 
 349:C:/Users/dtjld/workspace/AIoT/src/LiteOS_Lab/iot_link/network/dtls/mbedtls/mbedtls-2.16.2/include/mbedtls\ssl_ciphersuites.h **** /* Key exchanges that involve ephemeral keys */
 350:C:/Users/dtjld/workspace/AIoT/src/LiteOS_Lab/iot_link/network/dtls/mbedtls/mbedtls-2.16.2/include/mbedtls\ssl_ciphersuites.h **** #if defined(MBEDTLS_KEY_EXCHANGE_DHE_RSA_ENABLED)       || \
 351:C:/Users/dtjld/workspace/AIoT/src/LiteOS_Lab/iot_link/network/dtls/mbedtls/mbedtls-2.16.2/include/mbedtls\ssl_ciphersuites.h ****     defined(MBEDTLS_KEY_EXCHANGE_DHE_PSK_ENABLED)       || \
 352:C:/Users/dtjld/workspace/AIoT/src/LiteOS_Lab/iot_link/network/dtls/mbedtls/mbedtls-2.16.2/include/mbedtls\ssl_ciphersuites.h ****     defined(MBEDTLS_KEY_EXCHANGE_ECDHE_RSA_ENABLED)     || \
 353:C:/Users/dtjld/workspace/AIoT/src/LiteOS_Lab/iot_link/network/dtls/mbedtls/mbedtls-2.16.2/include/mbedtls\ssl_ciphersuites.h ****     defined(MBEDTLS_KEY_EXCHANGE_ECDHE_PSK_ENABLED)     || \
 354:C:/Users/dtjld/workspace/AIoT/src/LiteOS_Lab/iot_link/network/dtls/mbedtls/mbedtls-2.16.2/include/mbedtls\ssl_ciphersuites.h ****     defined(MBEDTLS_KEY_EXCHANGE_ECDHE_ECDSA_ENABLED)   || \
 355:C:/Users/dtjld/workspace/AIoT/src/LiteOS_Lab/iot_link/network/dtls/mbedtls/mbedtls-2.16.2/include/mbedtls\ssl_ciphersuites.h ****     defined(MBEDTLS_KEY_EXCHANGE_ECJPAKE_ENABLED)
 356:C:/Users/dtjld/workspace/AIoT/src/LiteOS_Lab/iot_link/network/dtls/mbedtls/mbedtls-2.16.2/include/mbedtls\ssl_ciphersuites.h **** #define MBEDTLS_KEY_EXCHANGE__SOME_PFS__ENABLED
 357:C:/Users/dtjld/workspace/AIoT/src/LiteOS_Lab/iot_link/network/dtls/mbedtls/mbedtls-2.16.2/include/mbedtls\ssl_ciphersuites.h **** #endif
 358:C:/Users/dtjld/workspace/AIoT/src/LiteOS_Lab/iot_link/network/dtls/mbedtls/mbedtls-2.16.2/include/mbedtls\ssl_ciphersuites.h **** 
 359:C:/Users/dtjld/workspace/AIoT/src/LiteOS_Lab/iot_link/network/dtls/mbedtls/mbedtls-2.16.2/include/mbedtls\ssl_ciphersuites.h **** /* Key exchanges using a PSK */
 360:C:/Users/dtjld/workspace/AIoT/src/LiteOS_Lab/iot_link/network/dtls/mbedtls/mbedtls-2.16.2/include/mbedtls\ssl_ciphersuites.h **** #if defined(MBEDTLS_KEY_EXCHANGE_PSK_ENABLED)           || \
 361:C:/Users/dtjld/workspace/AIoT/src/LiteOS_Lab/iot_link/network/dtls/mbedtls/mbedtls-2.16.2/include/mbedtls\ssl_ciphersuites.h ****     defined(MBEDTLS_KEY_EXCHANGE_RSA_PSK_ENABLED)       || \
 362:C:/Users/dtjld/workspace/AIoT/src/LiteOS_Lab/iot_link/network/dtls/mbedtls/mbedtls-2.16.2/include/mbedtls\ssl_ciphersuites.h ****     defined(MBEDTLS_KEY_EXCHANGE_DHE_PSK_ENABLED)       || \
 363:C:/Users/dtjld/workspace/AIoT/src/LiteOS_Lab/iot_link/network/dtls/mbedtls/mbedtls-2.16.2/include/mbedtls\ssl_ciphersuites.h ****     defined(MBEDTLS_KEY_EXCHANGE_ECDHE_PSK_ENABLED)
 364:C:/Users/dtjld/workspace/AIoT/src/LiteOS_Lab/iot_link/network/dtls/mbedtls/mbedtls-2.16.2/include/mbedtls\ssl_ciphersuites.h **** #define MBEDTLS_KEY_EXCHANGE__SOME__PSK_ENABLED
 365:C:/Users/dtjld/workspace/AIoT/src/LiteOS_Lab/iot_link/network/dtls/mbedtls/mbedtls-2.16.2/include/mbedtls\ssl_ciphersuites.h **** #endif
 366:C:/Users/dtjld/workspace/AIoT/src/LiteOS_Lab/iot_link/network/dtls/mbedtls/mbedtls-2.16.2/include/mbedtls\ssl_ciphersuites.h **** 
 367:C:/Users/dtjld/workspace/AIoT/src/LiteOS_Lab/iot_link/network/dtls/mbedtls/mbedtls-2.16.2/include/mbedtls\ssl_ciphersuites.h **** /* Key exchanges using DHE */
 368:C:/Users/dtjld/workspace/AIoT/src/LiteOS_Lab/iot_link/network/dtls/mbedtls/mbedtls-2.16.2/include/mbedtls\ssl_ciphersuites.h **** #if defined(MBEDTLS_KEY_EXCHANGE_DHE_RSA_ENABLED)       || \
 369:C:/Users/dtjld/workspace/AIoT/src/LiteOS_Lab/iot_link/network/dtls/mbedtls/mbedtls-2.16.2/include/mbedtls\ssl_ciphersuites.h ****     defined(MBEDTLS_KEY_EXCHANGE_DHE_PSK_ENABLED)
 370:C:/Users/dtjld/workspace/AIoT/src/LiteOS_Lab/iot_link/network/dtls/mbedtls/mbedtls-2.16.2/include/mbedtls\ssl_ciphersuites.h **** #define MBEDTLS_KEY_EXCHANGE__SOME__DHE_ENABLED
 371:C:/Users/dtjld/workspace/AIoT/src/LiteOS_Lab/iot_link/network/dtls/mbedtls/mbedtls-2.16.2/include/mbedtls\ssl_ciphersuites.h **** #endif
 372:C:/Users/dtjld/workspace/AIoT/src/LiteOS_Lab/iot_link/network/dtls/mbedtls/mbedtls-2.16.2/include/mbedtls\ssl_ciphersuites.h **** 
 373:C:/Users/dtjld/workspace/AIoT/src/LiteOS_Lab/iot_link/network/dtls/mbedtls/mbedtls-2.16.2/include/mbedtls\ssl_ciphersuites.h **** /* Key exchanges using ECDHE */
 374:C:/Users/dtjld/workspace/AIoT/src/LiteOS_Lab/iot_link/network/dtls/mbedtls/mbedtls-2.16.2/include/mbedtls\ssl_ciphersuites.h **** #if defined(MBEDTLS_KEY_EXCHANGE_ECDHE_RSA_ENABLED)     || \
 375:C:/Users/dtjld/workspace/AIoT/src/LiteOS_Lab/iot_link/network/dtls/mbedtls/mbedtls-2.16.2/include/mbedtls\ssl_ciphersuites.h ****     defined(MBEDTLS_KEY_EXCHANGE_ECDHE_ECDSA_ENABLED)   || \
 376:C:/Users/dtjld/workspace/AIoT/src/LiteOS_Lab/iot_link/network/dtls/mbedtls/mbedtls-2.16.2/include/mbedtls\ssl_ciphersuites.h ****     defined(MBEDTLS_KEY_EXCHANGE_ECDHE_PSK_ENABLED)
 377:C:/Users/dtjld/workspace/AIoT/src/LiteOS_Lab/iot_link/network/dtls/mbedtls/mbedtls-2.16.2/include/mbedtls\ssl_ciphersuites.h **** #define MBEDTLS_KEY_EXCHANGE__SOME__ECDHE_ENABLED
 378:C:/Users/dtjld/workspace/AIoT/src/LiteOS_Lab/iot_link/network/dtls/mbedtls/mbedtls-2.16.2/include/mbedtls\ssl_ciphersuites.h **** #endif
 379:C:/Users/dtjld/workspace/AIoT/src/LiteOS_Lab/iot_link/network/dtls/mbedtls/mbedtls-2.16.2/include/mbedtls\ssl_ciphersuites.h **** 
 380:C:/Users/dtjld/workspace/AIoT/src/LiteOS_Lab/iot_link/network/dtls/mbedtls/mbedtls-2.16.2/include/mbedtls\ssl_ciphersuites.h **** typedef struct mbedtls_ssl_ciphersuite_t mbedtls_ssl_ciphersuite_t;
 381:C:/Users/dtjld/workspace/AIoT/src/LiteOS_Lab/iot_link/network/dtls/mbedtls/mbedtls-2.16.2/include/mbedtls\ssl_ciphersuites.h **** 
 382:C:/Users/dtjld/workspace/AIoT/src/LiteOS_Lab/iot_link/network/dtls/mbedtls/mbedtls-2.16.2/include/mbedtls\ssl_ciphersuites.h **** #define MBEDTLS_CIPHERSUITE_WEAK       0x01    /**< Weak ciphersuite flag  */
 383:C:/Users/dtjld/workspace/AIoT/src/LiteOS_Lab/iot_link/network/dtls/mbedtls/mbedtls-2.16.2/include/mbedtls\ssl_ciphersuites.h **** #define MBEDTLS_CIPHERSUITE_SHORT_TAG  0x02    /**< Short authentication tag,
 384:C:/Users/dtjld/workspace/AIoT/src/LiteOS_Lab/iot_link/network/dtls/mbedtls/mbedtls-2.16.2/include/mbedtls\ssl_ciphersuites.h ****                                                      eg for CCM_8 */
 385:C:/Users/dtjld/workspace/AIoT/src/LiteOS_Lab/iot_link/network/dtls/mbedtls/mbedtls-2.16.2/include/mbedtls\ssl_ciphersuites.h **** #define MBEDTLS_CIPHERSUITE_NODTLS     0x04    /**< Can't be used with DTLS */
ARM GAS  C:\Users\dtjld\AppData\Local\Temp\ccA8prOd.s 			page 12


 386:C:/Users/dtjld/workspace/AIoT/src/LiteOS_Lab/iot_link/network/dtls/mbedtls/mbedtls-2.16.2/include/mbedtls\ssl_ciphersuites.h **** 
 387:C:/Users/dtjld/workspace/AIoT/src/LiteOS_Lab/iot_link/network/dtls/mbedtls/mbedtls-2.16.2/include/mbedtls\ssl_ciphersuites.h **** /**
 388:C:/Users/dtjld/workspace/AIoT/src/LiteOS_Lab/iot_link/network/dtls/mbedtls/mbedtls-2.16.2/include/mbedtls\ssl_ciphersuites.h ****  * \brief   This structure is used for storing ciphersuite information
 389:C:/Users/dtjld/workspace/AIoT/src/LiteOS_Lab/iot_link/network/dtls/mbedtls/mbedtls-2.16.2/include/mbedtls\ssl_ciphersuites.h ****  */
 390:C:/Users/dtjld/workspace/AIoT/src/LiteOS_Lab/iot_link/network/dtls/mbedtls/mbedtls-2.16.2/include/mbedtls\ssl_ciphersuites.h **** struct mbedtls_ssl_ciphersuite_t
 391:C:/Users/dtjld/workspace/AIoT/src/LiteOS_Lab/iot_link/network/dtls/mbedtls/mbedtls-2.16.2/include/mbedtls\ssl_ciphersuites.h **** {
 392:C:/Users/dtjld/workspace/AIoT/src/LiteOS_Lab/iot_link/network/dtls/mbedtls/mbedtls-2.16.2/include/mbedtls\ssl_ciphersuites.h ****     int id;
 393:C:/Users/dtjld/workspace/AIoT/src/LiteOS_Lab/iot_link/network/dtls/mbedtls/mbedtls-2.16.2/include/mbedtls\ssl_ciphersuites.h ****     const char * name;
 394:C:/Users/dtjld/workspace/AIoT/src/LiteOS_Lab/iot_link/network/dtls/mbedtls/mbedtls-2.16.2/include/mbedtls\ssl_ciphersuites.h **** 
 395:C:/Users/dtjld/workspace/AIoT/src/LiteOS_Lab/iot_link/network/dtls/mbedtls/mbedtls-2.16.2/include/mbedtls\ssl_ciphersuites.h ****     mbedtls_cipher_type_t cipher;
 396:C:/Users/dtjld/workspace/AIoT/src/LiteOS_Lab/iot_link/network/dtls/mbedtls/mbedtls-2.16.2/include/mbedtls\ssl_ciphersuites.h ****     mbedtls_md_type_t mac;
 397:C:/Users/dtjld/workspace/AIoT/src/LiteOS_Lab/iot_link/network/dtls/mbedtls/mbedtls-2.16.2/include/mbedtls\ssl_ciphersuites.h ****     mbedtls_key_exchange_type_t key_exchange;
 398:C:/Users/dtjld/workspace/AIoT/src/LiteOS_Lab/iot_link/network/dtls/mbedtls/mbedtls-2.16.2/include/mbedtls\ssl_ciphersuites.h **** 
 399:C:/Users/dtjld/workspace/AIoT/src/LiteOS_Lab/iot_link/network/dtls/mbedtls/mbedtls-2.16.2/include/mbedtls\ssl_ciphersuites.h ****     int min_major_ver;
 400:C:/Users/dtjld/workspace/AIoT/src/LiteOS_Lab/iot_link/network/dtls/mbedtls/mbedtls-2.16.2/include/mbedtls\ssl_ciphersuites.h ****     int min_minor_ver;
 401:C:/Users/dtjld/workspace/AIoT/src/LiteOS_Lab/iot_link/network/dtls/mbedtls/mbedtls-2.16.2/include/mbedtls\ssl_ciphersuites.h ****     int max_major_ver;
 402:C:/Users/dtjld/workspace/AIoT/src/LiteOS_Lab/iot_link/network/dtls/mbedtls/mbedtls-2.16.2/include/mbedtls\ssl_ciphersuites.h ****     int max_minor_ver;
 403:C:/Users/dtjld/workspace/AIoT/src/LiteOS_Lab/iot_link/network/dtls/mbedtls/mbedtls-2.16.2/include/mbedtls\ssl_ciphersuites.h **** 
 404:C:/Users/dtjld/workspace/AIoT/src/LiteOS_Lab/iot_link/network/dtls/mbedtls/mbedtls-2.16.2/include/mbedtls\ssl_ciphersuites.h ****     unsigned char flags;
 405:C:/Users/dtjld/workspace/AIoT/src/LiteOS_Lab/iot_link/network/dtls/mbedtls/mbedtls-2.16.2/include/mbedtls\ssl_ciphersuites.h **** };
 406:C:/Users/dtjld/workspace/AIoT/src/LiteOS_Lab/iot_link/network/dtls/mbedtls/mbedtls-2.16.2/include/mbedtls\ssl_ciphersuites.h **** 
 407:C:/Users/dtjld/workspace/AIoT/src/LiteOS_Lab/iot_link/network/dtls/mbedtls/mbedtls-2.16.2/include/mbedtls\ssl_ciphersuites.h **** const int *mbedtls_ssl_list_ciphersuites( void );
 408:C:/Users/dtjld/workspace/AIoT/src/LiteOS_Lab/iot_link/network/dtls/mbedtls/mbedtls-2.16.2/include/mbedtls\ssl_ciphersuites.h **** 
 409:C:/Users/dtjld/workspace/AIoT/src/LiteOS_Lab/iot_link/network/dtls/mbedtls/mbedtls-2.16.2/include/mbedtls\ssl_ciphersuites.h **** const mbedtls_ssl_ciphersuite_t *mbedtls_ssl_ciphersuite_from_string( const char *ciphersuite_name 
 410:C:/Users/dtjld/workspace/AIoT/src/LiteOS_Lab/iot_link/network/dtls/mbedtls/mbedtls-2.16.2/include/mbedtls\ssl_ciphersuites.h **** const mbedtls_ssl_ciphersuite_t *mbedtls_ssl_ciphersuite_from_id( int ciphersuite_id );
 411:C:/Users/dtjld/workspace/AIoT/src/LiteOS_Lab/iot_link/network/dtls/mbedtls/mbedtls-2.16.2/include/mbedtls\ssl_ciphersuites.h **** 
 412:C:/Users/dtjld/workspace/AIoT/src/LiteOS_Lab/iot_link/network/dtls/mbedtls/mbedtls-2.16.2/include/mbedtls\ssl_ciphersuites.h **** #if defined(MBEDTLS_PK_C)
 413:C:/Users/dtjld/workspace/AIoT/src/LiteOS_Lab/iot_link/network/dtls/mbedtls/mbedtls-2.16.2/include/mbedtls\ssl_ciphersuites.h **** mbedtls_pk_type_t mbedtls_ssl_get_ciphersuite_sig_pk_alg( const mbedtls_ssl_ciphersuite_t *info );
 414:C:/Users/dtjld/workspace/AIoT/src/LiteOS_Lab/iot_link/network/dtls/mbedtls/mbedtls-2.16.2/include/mbedtls\ssl_ciphersuites.h **** mbedtls_pk_type_t mbedtls_ssl_get_ciphersuite_sig_alg( const mbedtls_ssl_ciphersuite_t *info );
 415:C:/Users/dtjld/workspace/AIoT/src/LiteOS_Lab/iot_link/network/dtls/mbedtls/mbedtls-2.16.2/include/mbedtls\ssl_ciphersuites.h **** #endif
 416:C:/Users/dtjld/workspace/AIoT/src/LiteOS_Lab/iot_link/network/dtls/mbedtls/mbedtls-2.16.2/include/mbedtls\ssl_ciphersuites.h **** 
 417:C:/Users/dtjld/workspace/AIoT/src/LiteOS_Lab/iot_link/network/dtls/mbedtls/mbedtls-2.16.2/include/mbedtls\ssl_ciphersuites.h **** int mbedtls_ssl_ciphersuite_uses_ec( const mbedtls_ssl_ciphersuite_t *info );
 418:C:/Users/dtjld/workspace/AIoT/src/LiteOS_Lab/iot_link/network/dtls/mbedtls/mbedtls-2.16.2/include/mbedtls\ssl_ciphersuites.h **** int mbedtls_ssl_ciphersuite_uses_psk( const mbedtls_ssl_ciphersuite_t *info );
 419:C:/Users/dtjld/workspace/AIoT/src/LiteOS_Lab/iot_link/network/dtls/mbedtls/mbedtls-2.16.2/include/mbedtls\ssl_ciphersuites.h **** 
 420:C:/Users/dtjld/workspace/AIoT/src/LiteOS_Lab/iot_link/network/dtls/mbedtls/mbedtls-2.16.2/include/mbedtls\ssl_ciphersuites.h **** #if defined(MBEDTLS_KEY_EXCHANGE__SOME_PFS__ENABLED)
 421:C:/Users/dtjld/workspace/AIoT/src/LiteOS_Lab/iot_link/network/dtls/mbedtls/mbedtls-2.16.2/include/mbedtls\ssl_ciphersuites.h **** static inline int mbedtls_ssl_ciphersuite_has_pfs( const mbedtls_ssl_ciphersuite_t *info )
 422:C:/Users/dtjld/workspace/AIoT/src/LiteOS_Lab/iot_link/network/dtls/mbedtls/mbedtls-2.16.2/include/mbedtls\ssl_ciphersuites.h **** {
 423:C:/Users/dtjld/workspace/AIoT/src/LiteOS_Lab/iot_link/network/dtls/mbedtls/mbedtls-2.16.2/include/mbedtls\ssl_ciphersuites.h ****     switch( info->key_exchange )
 424:C:/Users/dtjld/workspace/AIoT/src/LiteOS_Lab/iot_link/network/dtls/mbedtls/mbedtls-2.16.2/include/mbedtls\ssl_ciphersuites.h ****     {
 425:C:/Users/dtjld/workspace/AIoT/src/LiteOS_Lab/iot_link/network/dtls/mbedtls/mbedtls-2.16.2/include/mbedtls\ssl_ciphersuites.h ****         case MBEDTLS_KEY_EXCHANGE_DHE_RSA:
 426:C:/Users/dtjld/workspace/AIoT/src/LiteOS_Lab/iot_link/network/dtls/mbedtls/mbedtls-2.16.2/include/mbedtls\ssl_ciphersuites.h ****         case MBEDTLS_KEY_EXCHANGE_DHE_PSK:
 427:C:/Users/dtjld/workspace/AIoT/src/LiteOS_Lab/iot_link/network/dtls/mbedtls/mbedtls-2.16.2/include/mbedtls\ssl_ciphersuites.h ****         case MBEDTLS_KEY_EXCHANGE_ECDHE_RSA:
 428:C:/Users/dtjld/workspace/AIoT/src/LiteOS_Lab/iot_link/network/dtls/mbedtls/mbedtls-2.16.2/include/mbedtls\ssl_ciphersuites.h ****         case MBEDTLS_KEY_EXCHANGE_ECDHE_PSK:
 429:C:/Users/dtjld/workspace/AIoT/src/LiteOS_Lab/iot_link/network/dtls/mbedtls/mbedtls-2.16.2/include/mbedtls\ssl_ciphersuites.h ****         case MBEDTLS_KEY_EXCHANGE_ECDHE_ECDSA:
 430:C:/Users/dtjld/workspace/AIoT/src/LiteOS_Lab/iot_link/network/dtls/mbedtls/mbedtls-2.16.2/include/mbedtls\ssl_ciphersuites.h ****         case MBEDTLS_KEY_EXCHANGE_ECJPAKE:
 431:C:/Users/dtjld/workspace/AIoT/src/LiteOS_Lab/iot_link/network/dtls/mbedtls/mbedtls-2.16.2/include/mbedtls\ssl_ciphersuites.h ****             return( 1 );
 432:C:/Users/dtjld/workspace/AIoT/src/LiteOS_Lab/iot_link/network/dtls/mbedtls/mbedtls-2.16.2/include/mbedtls\ssl_ciphersuites.h **** 
 433:C:/Users/dtjld/workspace/AIoT/src/LiteOS_Lab/iot_link/network/dtls/mbedtls/mbedtls-2.16.2/include/mbedtls\ssl_ciphersuites.h ****         default:
 434:C:/Users/dtjld/workspace/AIoT/src/LiteOS_Lab/iot_link/network/dtls/mbedtls/mbedtls-2.16.2/include/mbedtls\ssl_ciphersuites.h ****             return( 0 );
 435:C:/Users/dtjld/workspace/AIoT/src/LiteOS_Lab/iot_link/network/dtls/mbedtls/mbedtls-2.16.2/include/mbedtls\ssl_ciphersuites.h ****     }
 436:C:/Users/dtjld/workspace/AIoT/src/LiteOS_Lab/iot_link/network/dtls/mbedtls/mbedtls-2.16.2/include/mbedtls\ssl_ciphersuites.h **** }
 437:C:/Users/dtjld/workspace/AIoT/src/LiteOS_Lab/iot_link/network/dtls/mbedtls/mbedtls-2.16.2/include/mbedtls\ssl_ciphersuites.h **** #endif /* MBEDTLS_KEY_EXCHANGE__SOME_PFS__ENABLED */
 438:C:/Users/dtjld/workspace/AIoT/src/LiteOS_Lab/iot_link/network/dtls/mbedtls/mbedtls-2.16.2/include/mbedtls\ssl_ciphersuites.h **** 
 439:C:/Users/dtjld/workspace/AIoT/src/LiteOS_Lab/iot_link/network/dtls/mbedtls/mbedtls-2.16.2/include/mbedtls\ssl_ciphersuites.h **** #if defined(MBEDTLS_KEY_EXCHANGE__SOME_NON_PFS__ENABLED)
 440:C:/Users/dtjld/workspace/AIoT/src/LiteOS_Lab/iot_link/network/dtls/mbedtls/mbedtls-2.16.2/include/mbedtls\ssl_ciphersuites.h **** static inline int mbedtls_ssl_ciphersuite_no_pfs( const mbedtls_ssl_ciphersuite_t *info )
 441:C:/Users/dtjld/workspace/AIoT/src/LiteOS_Lab/iot_link/network/dtls/mbedtls/mbedtls-2.16.2/include/mbedtls\ssl_ciphersuites.h **** {
 442:C:/Users/dtjld/workspace/AIoT/src/LiteOS_Lab/iot_link/network/dtls/mbedtls/mbedtls-2.16.2/include/mbedtls\ssl_ciphersuites.h ****     switch( info->key_exchange )
ARM GAS  C:\Users\dtjld\AppData\Local\Temp\ccA8prOd.s 			page 13


 443:C:/Users/dtjld/workspace/AIoT/src/LiteOS_Lab/iot_link/network/dtls/mbedtls/mbedtls-2.16.2/include/mbedtls\ssl_ciphersuites.h ****     {
 444:C:/Users/dtjld/workspace/AIoT/src/LiteOS_Lab/iot_link/network/dtls/mbedtls/mbedtls-2.16.2/include/mbedtls\ssl_ciphersuites.h ****         case MBEDTLS_KEY_EXCHANGE_ECDH_RSA:
 445:C:/Users/dtjld/workspace/AIoT/src/LiteOS_Lab/iot_link/network/dtls/mbedtls/mbedtls-2.16.2/include/mbedtls\ssl_ciphersuites.h ****         case MBEDTLS_KEY_EXCHANGE_ECDH_ECDSA:
 446:C:/Users/dtjld/workspace/AIoT/src/LiteOS_Lab/iot_link/network/dtls/mbedtls/mbedtls-2.16.2/include/mbedtls\ssl_ciphersuites.h ****         case MBEDTLS_KEY_EXCHANGE_RSA:
 447:C:/Users/dtjld/workspace/AIoT/src/LiteOS_Lab/iot_link/network/dtls/mbedtls/mbedtls-2.16.2/include/mbedtls\ssl_ciphersuites.h ****         case MBEDTLS_KEY_EXCHANGE_PSK:
 448:C:/Users/dtjld/workspace/AIoT/src/LiteOS_Lab/iot_link/network/dtls/mbedtls/mbedtls-2.16.2/include/mbedtls\ssl_ciphersuites.h ****         case MBEDTLS_KEY_EXCHANGE_RSA_PSK:
 449:C:/Users/dtjld/workspace/AIoT/src/LiteOS_Lab/iot_link/network/dtls/mbedtls/mbedtls-2.16.2/include/mbedtls\ssl_ciphersuites.h ****             return( 1 );
 450:C:/Users/dtjld/workspace/AIoT/src/LiteOS_Lab/iot_link/network/dtls/mbedtls/mbedtls-2.16.2/include/mbedtls\ssl_ciphersuites.h **** 
 451:C:/Users/dtjld/workspace/AIoT/src/LiteOS_Lab/iot_link/network/dtls/mbedtls/mbedtls-2.16.2/include/mbedtls\ssl_ciphersuites.h ****         default:
 452:C:/Users/dtjld/workspace/AIoT/src/LiteOS_Lab/iot_link/network/dtls/mbedtls/mbedtls-2.16.2/include/mbedtls\ssl_ciphersuites.h ****             return( 0 );
 453:C:/Users/dtjld/workspace/AIoT/src/LiteOS_Lab/iot_link/network/dtls/mbedtls/mbedtls-2.16.2/include/mbedtls\ssl_ciphersuites.h ****     }
 454:C:/Users/dtjld/workspace/AIoT/src/LiteOS_Lab/iot_link/network/dtls/mbedtls/mbedtls-2.16.2/include/mbedtls\ssl_ciphersuites.h **** }
 455:C:/Users/dtjld/workspace/AIoT/src/LiteOS_Lab/iot_link/network/dtls/mbedtls/mbedtls-2.16.2/include/mbedtls\ssl_ciphersuites.h **** #endif /* MBEDTLS_KEY_EXCHANGE__SOME_NON_PFS__ENABLED */
 456:C:/Users/dtjld/workspace/AIoT/src/LiteOS_Lab/iot_link/network/dtls/mbedtls/mbedtls-2.16.2/include/mbedtls\ssl_ciphersuites.h **** 
 457:C:/Users/dtjld/workspace/AIoT/src/LiteOS_Lab/iot_link/network/dtls/mbedtls/mbedtls-2.16.2/include/mbedtls\ssl_ciphersuites.h **** #if defined(MBEDTLS_KEY_EXCHANGE__SOME__ECDH_ENABLED)
 458:C:/Users/dtjld/workspace/AIoT/src/LiteOS_Lab/iot_link/network/dtls/mbedtls/mbedtls-2.16.2/include/mbedtls\ssl_ciphersuites.h **** static inline int mbedtls_ssl_ciphersuite_uses_ecdh( const mbedtls_ssl_ciphersuite_t *info )
 459:C:/Users/dtjld/workspace/AIoT/src/LiteOS_Lab/iot_link/network/dtls/mbedtls/mbedtls-2.16.2/include/mbedtls\ssl_ciphersuites.h **** {
 460:C:/Users/dtjld/workspace/AIoT/src/LiteOS_Lab/iot_link/network/dtls/mbedtls/mbedtls-2.16.2/include/mbedtls\ssl_ciphersuites.h ****     switch( info->key_exchange )
 461:C:/Users/dtjld/workspace/AIoT/src/LiteOS_Lab/iot_link/network/dtls/mbedtls/mbedtls-2.16.2/include/mbedtls\ssl_ciphersuites.h ****     {
 462:C:/Users/dtjld/workspace/AIoT/src/LiteOS_Lab/iot_link/network/dtls/mbedtls/mbedtls-2.16.2/include/mbedtls\ssl_ciphersuites.h ****         case MBEDTLS_KEY_EXCHANGE_ECDH_RSA:
 463:C:/Users/dtjld/workspace/AIoT/src/LiteOS_Lab/iot_link/network/dtls/mbedtls/mbedtls-2.16.2/include/mbedtls\ssl_ciphersuites.h ****         case MBEDTLS_KEY_EXCHANGE_ECDH_ECDSA:
 464:C:/Users/dtjld/workspace/AIoT/src/LiteOS_Lab/iot_link/network/dtls/mbedtls/mbedtls-2.16.2/include/mbedtls\ssl_ciphersuites.h ****             return( 1 );
 465:C:/Users/dtjld/workspace/AIoT/src/LiteOS_Lab/iot_link/network/dtls/mbedtls/mbedtls-2.16.2/include/mbedtls\ssl_ciphersuites.h **** 
 466:C:/Users/dtjld/workspace/AIoT/src/LiteOS_Lab/iot_link/network/dtls/mbedtls/mbedtls-2.16.2/include/mbedtls\ssl_ciphersuites.h ****         default:
 467:C:/Users/dtjld/workspace/AIoT/src/LiteOS_Lab/iot_link/network/dtls/mbedtls/mbedtls-2.16.2/include/mbedtls\ssl_ciphersuites.h ****             return( 0 );
 468:C:/Users/dtjld/workspace/AIoT/src/LiteOS_Lab/iot_link/network/dtls/mbedtls/mbedtls-2.16.2/include/mbedtls\ssl_ciphersuites.h ****     }
 469:C:/Users/dtjld/workspace/AIoT/src/LiteOS_Lab/iot_link/network/dtls/mbedtls/mbedtls-2.16.2/include/mbedtls\ssl_ciphersuites.h **** }
 470:C:/Users/dtjld/workspace/AIoT/src/LiteOS_Lab/iot_link/network/dtls/mbedtls/mbedtls-2.16.2/include/mbedtls\ssl_ciphersuites.h **** #endif /* MBEDTLS_KEY_EXCHANGE__SOME__ECDH_ENABLED */
 471:C:/Users/dtjld/workspace/AIoT/src/LiteOS_Lab/iot_link/network/dtls/mbedtls/mbedtls-2.16.2/include/mbedtls\ssl_ciphersuites.h **** 
 472:C:/Users/dtjld/workspace/AIoT/src/LiteOS_Lab/iot_link/network/dtls/mbedtls/mbedtls-2.16.2/include/mbedtls\ssl_ciphersuites.h **** static inline int mbedtls_ssl_ciphersuite_cert_req_allowed( const mbedtls_ssl_ciphersuite_t *info )
 473:C:/Users/dtjld/workspace/AIoT/src/LiteOS_Lab/iot_link/network/dtls/mbedtls/mbedtls-2.16.2/include/mbedtls\ssl_ciphersuites.h **** {
  73              		.loc 2 473 0
  74              		.cfi_startproc
  75              		@ args = 0, pretend = 0, frame = 8
  76              		@ frame_needed = 1, uses_anonymous_args = 0
  77              		@ link register save eliminated.
  78 0000 80B4     		push	{r7}
  79              	.LCFI6:
  80              		.cfi_def_cfa_offset 4
  81              		.cfi_offset 7, -4
  82 0002 83B0     		sub	sp, sp, #12
  83              	.LCFI7:
  84              		.cfi_def_cfa_offset 16
  85 0004 00AF     		add	r7, sp, #0
  86              	.LCFI8:
  87              		.cfi_def_cfa_register 7
  88 0006 7860     		str	r0, [r7, #4]
 474:C:/Users/dtjld/workspace/AIoT/src/LiteOS_Lab/iot_link/network/dtls/mbedtls/mbedtls-2.16.2/include/mbedtls\ssl_ciphersuites.h ****     switch( info->key_exchange )
  89              		.loc 2 474 0
  90 0008 7B68     		ldr	r3, [r7, #4]
  91 000a 9B7A     		ldrb	r3, [r3, #10]	@ zero_extendqisi2
  92 000c 013B     		subs	r3, r3, #1
  93 000e 092B     		cmp	r3, #9
  94 0010 18D8     		bhi	.L4
  95 0012 01A2     		adr	r2, .L6
  96 0014 52F823F0 		ldr	pc, [r2, r3, lsl #2]
  97              		.p2align 2
ARM GAS  C:\Users\dtjld\AppData\Local\Temp\ccA8prOd.s 			page 14


  98              	.L6:
  99 0018 41000000 		.word	.L5+1
 100 001c 41000000 		.word	.L5+1
 101 0020 41000000 		.word	.L5+1
 102 0024 41000000 		.word	.L5+1
 103 0028 45000000 		.word	.L4+1
 104 002c 45000000 		.word	.L4+1
 105 0030 45000000 		.word	.L4+1
 106 0034 45000000 		.word	.L4+1
 107 0038 41000000 		.word	.L5+1
 108 003c 41000000 		.word	.L5+1
 109              		.p2align 1
 110              	.L5:
 475:C:/Users/dtjld/workspace/AIoT/src/LiteOS_Lab/iot_link/network/dtls/mbedtls/mbedtls-2.16.2/include/mbedtls\ssl_ciphersuites.h ****     {
 476:C:/Users/dtjld/workspace/AIoT/src/LiteOS_Lab/iot_link/network/dtls/mbedtls/mbedtls-2.16.2/include/mbedtls\ssl_ciphersuites.h ****         case MBEDTLS_KEY_EXCHANGE_RSA:
 477:C:/Users/dtjld/workspace/AIoT/src/LiteOS_Lab/iot_link/network/dtls/mbedtls/mbedtls-2.16.2/include/mbedtls\ssl_ciphersuites.h ****         case MBEDTLS_KEY_EXCHANGE_DHE_RSA:
 478:C:/Users/dtjld/workspace/AIoT/src/LiteOS_Lab/iot_link/network/dtls/mbedtls/mbedtls-2.16.2/include/mbedtls\ssl_ciphersuites.h ****         case MBEDTLS_KEY_EXCHANGE_ECDH_RSA:
 479:C:/Users/dtjld/workspace/AIoT/src/LiteOS_Lab/iot_link/network/dtls/mbedtls/mbedtls-2.16.2/include/mbedtls\ssl_ciphersuites.h ****         case MBEDTLS_KEY_EXCHANGE_ECDHE_RSA:
 480:C:/Users/dtjld/workspace/AIoT/src/LiteOS_Lab/iot_link/network/dtls/mbedtls/mbedtls-2.16.2/include/mbedtls\ssl_ciphersuites.h ****         case MBEDTLS_KEY_EXCHANGE_ECDH_ECDSA:
 481:C:/Users/dtjld/workspace/AIoT/src/LiteOS_Lab/iot_link/network/dtls/mbedtls/mbedtls-2.16.2/include/mbedtls\ssl_ciphersuites.h ****         case MBEDTLS_KEY_EXCHANGE_ECDHE_ECDSA:
 482:C:/Users/dtjld/workspace/AIoT/src/LiteOS_Lab/iot_link/network/dtls/mbedtls/mbedtls-2.16.2/include/mbedtls\ssl_ciphersuites.h ****             return( 1 );
 111              		.loc 2 482 0
 112 0040 0123     		movs	r3, #1
 113 0042 00E0     		b	.L7
 114              	.L4:
 483:C:/Users/dtjld/workspace/AIoT/src/LiteOS_Lab/iot_link/network/dtls/mbedtls/mbedtls-2.16.2/include/mbedtls\ssl_ciphersuites.h **** 
 484:C:/Users/dtjld/workspace/AIoT/src/LiteOS_Lab/iot_link/network/dtls/mbedtls/mbedtls-2.16.2/include/mbedtls\ssl_ciphersuites.h ****         default:
 485:C:/Users/dtjld/workspace/AIoT/src/LiteOS_Lab/iot_link/network/dtls/mbedtls/mbedtls-2.16.2/include/mbedtls\ssl_ciphersuites.h ****             return( 0 );
 115              		.loc 2 485 0
 116 0044 0023     		movs	r3, #0
 117              	.L7:
 486:C:/Users/dtjld/workspace/AIoT/src/LiteOS_Lab/iot_link/network/dtls/mbedtls/mbedtls-2.16.2/include/mbedtls\ssl_ciphersuites.h ****     }
 487:C:/Users/dtjld/workspace/AIoT/src/LiteOS_Lab/iot_link/network/dtls/mbedtls/mbedtls-2.16.2/include/mbedtls\ssl_ciphersuites.h **** }
 118              		.loc 2 487 0
 119 0046 1846     		mov	r0, r3
 120 0048 0C37     		adds	r7, r7, #12
 121              	.LCFI9:
 122              		.cfi_def_cfa_offset 4
 123 004a BD46     		mov	sp, r7
 124              	.LCFI10:
 125              		.cfi_def_cfa_register 13
 126              		@ sp needed
 127 004c 5DF8047B 		ldr	r7, [sp], #4
 128              	.LCFI11:
 129              		.cfi_restore 7
 130              		.cfi_def_cfa_offset 0
 131 0050 7047     		bx	lr
 132              		.cfi_endproc
 133              	.LFE16:
 135 0052 00BF     		.section	.text.mbedtls_ssl_ciphersuite_uses_server_signature,"ax",%progbits
 136              		.align	1
 137              		.syntax unified
 138              		.thumb
 139              		.thumb_func
 140              		.fpu fpv4-sp-d16
 142              	mbedtls_ssl_ciphersuite_uses_server_signature:
 143              	.LFB19:
ARM GAS  C:\Users\dtjld\AppData\Local\Temp\ccA8prOd.s 			page 15


 488:C:/Users/dtjld/workspace/AIoT/src/LiteOS_Lab/iot_link/network/dtls/mbedtls/mbedtls-2.16.2/include/mbedtls\ssl_ciphersuites.h **** 
 489:C:/Users/dtjld/workspace/AIoT/src/LiteOS_Lab/iot_link/network/dtls/mbedtls/mbedtls-2.16.2/include/mbedtls\ssl_ciphersuites.h **** #if defined(MBEDTLS_KEY_EXCHANGE__SOME__DHE_ENABLED)
 490:C:/Users/dtjld/workspace/AIoT/src/LiteOS_Lab/iot_link/network/dtls/mbedtls/mbedtls-2.16.2/include/mbedtls\ssl_ciphersuites.h **** static inline int mbedtls_ssl_ciphersuite_uses_dhe( const mbedtls_ssl_ciphersuite_t *info )
 491:C:/Users/dtjld/workspace/AIoT/src/LiteOS_Lab/iot_link/network/dtls/mbedtls/mbedtls-2.16.2/include/mbedtls\ssl_ciphersuites.h **** {
 492:C:/Users/dtjld/workspace/AIoT/src/LiteOS_Lab/iot_link/network/dtls/mbedtls/mbedtls-2.16.2/include/mbedtls\ssl_ciphersuites.h ****     switch( info->key_exchange )
 493:C:/Users/dtjld/workspace/AIoT/src/LiteOS_Lab/iot_link/network/dtls/mbedtls/mbedtls-2.16.2/include/mbedtls\ssl_ciphersuites.h ****     {
 494:C:/Users/dtjld/workspace/AIoT/src/LiteOS_Lab/iot_link/network/dtls/mbedtls/mbedtls-2.16.2/include/mbedtls\ssl_ciphersuites.h ****         case MBEDTLS_KEY_EXCHANGE_DHE_RSA:
 495:C:/Users/dtjld/workspace/AIoT/src/LiteOS_Lab/iot_link/network/dtls/mbedtls/mbedtls-2.16.2/include/mbedtls\ssl_ciphersuites.h ****         case MBEDTLS_KEY_EXCHANGE_DHE_PSK:
 496:C:/Users/dtjld/workspace/AIoT/src/LiteOS_Lab/iot_link/network/dtls/mbedtls/mbedtls-2.16.2/include/mbedtls\ssl_ciphersuites.h ****             return( 1 );
 497:C:/Users/dtjld/workspace/AIoT/src/LiteOS_Lab/iot_link/network/dtls/mbedtls/mbedtls-2.16.2/include/mbedtls\ssl_ciphersuites.h **** 
 498:C:/Users/dtjld/workspace/AIoT/src/LiteOS_Lab/iot_link/network/dtls/mbedtls/mbedtls-2.16.2/include/mbedtls\ssl_ciphersuites.h ****         default:
 499:C:/Users/dtjld/workspace/AIoT/src/LiteOS_Lab/iot_link/network/dtls/mbedtls/mbedtls-2.16.2/include/mbedtls\ssl_ciphersuites.h ****             return( 0 );
 500:C:/Users/dtjld/workspace/AIoT/src/LiteOS_Lab/iot_link/network/dtls/mbedtls/mbedtls-2.16.2/include/mbedtls\ssl_ciphersuites.h ****     }
 501:C:/Users/dtjld/workspace/AIoT/src/LiteOS_Lab/iot_link/network/dtls/mbedtls/mbedtls-2.16.2/include/mbedtls\ssl_ciphersuites.h **** }
 502:C:/Users/dtjld/workspace/AIoT/src/LiteOS_Lab/iot_link/network/dtls/mbedtls/mbedtls-2.16.2/include/mbedtls\ssl_ciphersuites.h **** #endif /* MBEDTLS_KEY_EXCHANGE__SOME__DHE_ENABLED) */
 503:C:/Users/dtjld/workspace/AIoT/src/LiteOS_Lab/iot_link/network/dtls/mbedtls/mbedtls-2.16.2/include/mbedtls\ssl_ciphersuites.h **** 
 504:C:/Users/dtjld/workspace/AIoT/src/LiteOS_Lab/iot_link/network/dtls/mbedtls/mbedtls-2.16.2/include/mbedtls\ssl_ciphersuites.h **** #if defined(MBEDTLS_KEY_EXCHANGE__SOME__ECDHE_ENABLED)
 505:C:/Users/dtjld/workspace/AIoT/src/LiteOS_Lab/iot_link/network/dtls/mbedtls/mbedtls-2.16.2/include/mbedtls\ssl_ciphersuites.h **** static inline int mbedtls_ssl_ciphersuite_uses_ecdhe( const mbedtls_ssl_ciphersuite_t *info )
 506:C:/Users/dtjld/workspace/AIoT/src/LiteOS_Lab/iot_link/network/dtls/mbedtls/mbedtls-2.16.2/include/mbedtls\ssl_ciphersuites.h **** {
 507:C:/Users/dtjld/workspace/AIoT/src/LiteOS_Lab/iot_link/network/dtls/mbedtls/mbedtls-2.16.2/include/mbedtls\ssl_ciphersuites.h ****     switch( info->key_exchange )
 508:C:/Users/dtjld/workspace/AIoT/src/LiteOS_Lab/iot_link/network/dtls/mbedtls/mbedtls-2.16.2/include/mbedtls\ssl_ciphersuites.h ****     {
 509:C:/Users/dtjld/workspace/AIoT/src/LiteOS_Lab/iot_link/network/dtls/mbedtls/mbedtls-2.16.2/include/mbedtls\ssl_ciphersuites.h ****         case MBEDTLS_KEY_EXCHANGE_ECDHE_ECDSA:
 510:C:/Users/dtjld/workspace/AIoT/src/LiteOS_Lab/iot_link/network/dtls/mbedtls/mbedtls-2.16.2/include/mbedtls\ssl_ciphersuites.h ****         case MBEDTLS_KEY_EXCHANGE_ECDHE_RSA:
 511:C:/Users/dtjld/workspace/AIoT/src/LiteOS_Lab/iot_link/network/dtls/mbedtls/mbedtls-2.16.2/include/mbedtls\ssl_ciphersuites.h ****         case MBEDTLS_KEY_EXCHANGE_ECDHE_PSK:
 512:C:/Users/dtjld/workspace/AIoT/src/LiteOS_Lab/iot_link/network/dtls/mbedtls/mbedtls-2.16.2/include/mbedtls\ssl_ciphersuites.h ****             return( 1 );
 513:C:/Users/dtjld/workspace/AIoT/src/LiteOS_Lab/iot_link/network/dtls/mbedtls/mbedtls-2.16.2/include/mbedtls\ssl_ciphersuites.h **** 
 514:C:/Users/dtjld/workspace/AIoT/src/LiteOS_Lab/iot_link/network/dtls/mbedtls/mbedtls-2.16.2/include/mbedtls\ssl_ciphersuites.h ****         default:
 515:C:/Users/dtjld/workspace/AIoT/src/LiteOS_Lab/iot_link/network/dtls/mbedtls/mbedtls-2.16.2/include/mbedtls\ssl_ciphersuites.h ****             return( 0 );
 516:C:/Users/dtjld/workspace/AIoT/src/LiteOS_Lab/iot_link/network/dtls/mbedtls/mbedtls-2.16.2/include/mbedtls\ssl_ciphersuites.h ****     }
 517:C:/Users/dtjld/workspace/AIoT/src/LiteOS_Lab/iot_link/network/dtls/mbedtls/mbedtls-2.16.2/include/mbedtls\ssl_ciphersuites.h **** }
 518:C:/Users/dtjld/workspace/AIoT/src/LiteOS_Lab/iot_link/network/dtls/mbedtls/mbedtls-2.16.2/include/mbedtls\ssl_ciphersuites.h **** #endif /* MBEDTLS_KEY_EXCHANGE__SOME__ECDHE_ENABLED) */
 519:C:/Users/dtjld/workspace/AIoT/src/LiteOS_Lab/iot_link/network/dtls/mbedtls/mbedtls-2.16.2/include/mbedtls\ssl_ciphersuites.h **** 
 520:C:/Users/dtjld/workspace/AIoT/src/LiteOS_Lab/iot_link/network/dtls/mbedtls/mbedtls-2.16.2/include/mbedtls\ssl_ciphersuites.h **** #if defined(MBEDTLS_KEY_EXCHANGE__WITH_SERVER_SIGNATURE__ENABLED)
 521:C:/Users/dtjld/workspace/AIoT/src/LiteOS_Lab/iot_link/network/dtls/mbedtls/mbedtls-2.16.2/include/mbedtls\ssl_ciphersuites.h **** static inline int mbedtls_ssl_ciphersuite_uses_server_signature( const mbedtls_ssl_ciphersuite_t *i
 522:C:/Users/dtjld/workspace/AIoT/src/LiteOS_Lab/iot_link/network/dtls/mbedtls/mbedtls-2.16.2/include/mbedtls\ssl_ciphersuites.h **** {
 144              		.loc 2 522 0
 145              		.cfi_startproc
 146              		@ args = 0, pretend = 0, frame = 8
 147              		@ frame_needed = 1, uses_anonymous_args = 0
 148              		@ link register save eliminated.
 149 0000 80B4     		push	{r7}
 150              	.LCFI12:
 151              		.cfi_def_cfa_offset 4
 152              		.cfi_offset 7, -4
 153 0002 83B0     		sub	sp, sp, #12
 154              	.LCFI13:
 155              		.cfi_def_cfa_offset 16
 156 0004 00AF     		add	r7, sp, #0
 157              	.LCFI14:
 158              		.cfi_def_cfa_register 7
 159 0006 7860     		str	r0, [r7, #4]
 523:C:/Users/dtjld/workspace/AIoT/src/LiteOS_Lab/iot_link/network/dtls/mbedtls/mbedtls-2.16.2/include/mbedtls\ssl_ciphersuites.h ****     switch( info->key_exchange )
 160              		.loc 2 523 0
 161 0008 7B68     		ldr	r3, [r7, #4]
 162 000a 9B7A     		ldrb	r3, [r3, #10]	@ zero_extendqisi2
 163 000c 023B     		subs	r3, r3, #2
 164 000e 022B     		cmp	r3, #2
ARM GAS  C:\Users\dtjld\AppData\Local\Temp\ccA8prOd.s 			page 16


 165 0010 01D8     		bhi	.L9
 524:C:/Users/dtjld/workspace/AIoT/src/LiteOS_Lab/iot_link/network/dtls/mbedtls/mbedtls-2.16.2/include/mbedtls\ssl_ciphersuites.h ****     {
 525:C:/Users/dtjld/workspace/AIoT/src/LiteOS_Lab/iot_link/network/dtls/mbedtls/mbedtls-2.16.2/include/mbedtls\ssl_ciphersuites.h ****         case MBEDTLS_KEY_EXCHANGE_DHE_RSA:
 526:C:/Users/dtjld/workspace/AIoT/src/LiteOS_Lab/iot_link/network/dtls/mbedtls/mbedtls-2.16.2/include/mbedtls\ssl_ciphersuites.h ****         case MBEDTLS_KEY_EXCHANGE_ECDHE_RSA:
 527:C:/Users/dtjld/workspace/AIoT/src/LiteOS_Lab/iot_link/network/dtls/mbedtls/mbedtls-2.16.2/include/mbedtls\ssl_ciphersuites.h ****         case MBEDTLS_KEY_EXCHANGE_ECDHE_ECDSA:
 528:C:/Users/dtjld/workspace/AIoT/src/LiteOS_Lab/iot_link/network/dtls/mbedtls/mbedtls-2.16.2/include/mbedtls\ssl_ciphersuites.h ****             return( 1 );
 166              		.loc 2 528 0
 167 0012 0123     		movs	r3, #1
 168 0014 00E0     		b	.L11
 169              	.L9:
 529:C:/Users/dtjld/workspace/AIoT/src/LiteOS_Lab/iot_link/network/dtls/mbedtls/mbedtls-2.16.2/include/mbedtls\ssl_ciphersuites.h **** 
 530:C:/Users/dtjld/workspace/AIoT/src/LiteOS_Lab/iot_link/network/dtls/mbedtls/mbedtls-2.16.2/include/mbedtls\ssl_ciphersuites.h ****         default:
 531:C:/Users/dtjld/workspace/AIoT/src/LiteOS_Lab/iot_link/network/dtls/mbedtls/mbedtls-2.16.2/include/mbedtls\ssl_ciphersuites.h ****             return( 0 );
 170              		.loc 2 531 0
 171 0016 0023     		movs	r3, #0
 172              	.L11:
 532:C:/Users/dtjld/workspace/AIoT/src/LiteOS_Lab/iot_link/network/dtls/mbedtls/mbedtls-2.16.2/include/mbedtls\ssl_ciphersuites.h ****     }
 533:C:/Users/dtjld/workspace/AIoT/src/LiteOS_Lab/iot_link/network/dtls/mbedtls/mbedtls-2.16.2/include/mbedtls\ssl_ciphersuites.h **** }
 173              		.loc 2 533 0
 174 0018 1846     		mov	r0, r3
 175 001a 0C37     		adds	r7, r7, #12
 176              	.LCFI15:
 177              		.cfi_def_cfa_offset 4
 178 001c BD46     		mov	sp, r7
 179              	.LCFI16:
 180              		.cfi_def_cfa_register 13
 181              		@ sp needed
 182 001e 5DF8047B 		ldr	r7, [sp], #4
 183              	.LCFI17:
 184              		.cfi_restore 7
 185              		.cfi_def_cfa_offset 0
 186 0022 7047     		bx	lr
 187              		.cfi_endproc
 188              	.LFE19:
 190              		.section	.text.mbedtls_ssl_own_key,"ax",%progbits
 191              		.align	1
 192              		.syntax unified
 193              		.thumb
 194              		.thumb_func
 195              		.fpu fpv4-sp-d16
 197              	mbedtls_ssl_own_key:
 198              	.LFB21:
 199              		.file 3 "C:/Users/dtjld/workspace/AIoT/src/LiteOS_Lab/iot_link/network/dtls/mbedtls/mbedtls-2.16.2
   1:C:/Users/dtjld/workspace/AIoT/src/LiteOS_Lab/iot_link/network/dtls/mbedtls/mbedtls-2.16.2/include/mbedtls\ssl_internal.h **** /**
   2:C:/Users/dtjld/workspace/AIoT/src/LiteOS_Lab/iot_link/network/dtls/mbedtls/mbedtls-2.16.2/include/mbedtls\ssl_internal.h ****  * \file ssl_internal.h
   3:C:/Users/dtjld/workspace/AIoT/src/LiteOS_Lab/iot_link/network/dtls/mbedtls/mbedtls-2.16.2/include/mbedtls\ssl_internal.h ****  *
   4:C:/Users/dtjld/workspace/AIoT/src/LiteOS_Lab/iot_link/network/dtls/mbedtls/mbedtls-2.16.2/include/mbedtls\ssl_internal.h ****  * \brief Internal functions shared by the SSL modules
   5:C:/Users/dtjld/workspace/AIoT/src/LiteOS_Lab/iot_link/network/dtls/mbedtls/mbedtls-2.16.2/include/mbedtls\ssl_internal.h ****  */
   6:C:/Users/dtjld/workspace/AIoT/src/LiteOS_Lab/iot_link/network/dtls/mbedtls/mbedtls-2.16.2/include/mbedtls\ssl_internal.h **** /*
   7:C:/Users/dtjld/workspace/AIoT/src/LiteOS_Lab/iot_link/network/dtls/mbedtls/mbedtls-2.16.2/include/mbedtls\ssl_internal.h ****  *  Copyright (C) 2006-2015, ARM Limited, All Rights Reserved
   8:C:/Users/dtjld/workspace/AIoT/src/LiteOS_Lab/iot_link/network/dtls/mbedtls/mbedtls-2.16.2/include/mbedtls\ssl_internal.h ****  *  SPDX-License-Identifier: Apache-2.0
   9:C:/Users/dtjld/workspace/AIoT/src/LiteOS_Lab/iot_link/network/dtls/mbedtls/mbedtls-2.16.2/include/mbedtls\ssl_internal.h ****  *
  10:C:/Users/dtjld/workspace/AIoT/src/LiteOS_Lab/iot_link/network/dtls/mbedtls/mbedtls-2.16.2/include/mbedtls\ssl_internal.h ****  *  Licensed under the Apache License, Version 2.0 (the "License"); you may
  11:C:/Users/dtjld/workspace/AIoT/src/LiteOS_Lab/iot_link/network/dtls/mbedtls/mbedtls-2.16.2/include/mbedtls\ssl_internal.h ****  *  not use this file except in compliance with the License.
  12:C:/Users/dtjld/workspace/AIoT/src/LiteOS_Lab/iot_link/network/dtls/mbedtls/mbedtls-2.16.2/include/mbedtls\ssl_internal.h ****  *  You may obtain a copy of the License at
  13:C:/Users/dtjld/workspace/AIoT/src/LiteOS_Lab/iot_link/network/dtls/mbedtls/mbedtls-2.16.2/include/mbedtls\ssl_internal.h ****  *
  14:C:/Users/dtjld/workspace/AIoT/src/LiteOS_Lab/iot_link/network/dtls/mbedtls/mbedtls-2.16.2/include/mbedtls\ssl_internal.h ****  *  http://www.apache.org/licenses/LICENSE-2.0
ARM GAS  C:\Users\dtjld\AppData\Local\Temp\ccA8prOd.s 			page 17


  15:C:/Users/dtjld/workspace/AIoT/src/LiteOS_Lab/iot_link/network/dtls/mbedtls/mbedtls-2.16.2/include/mbedtls\ssl_internal.h ****  *
  16:C:/Users/dtjld/workspace/AIoT/src/LiteOS_Lab/iot_link/network/dtls/mbedtls/mbedtls-2.16.2/include/mbedtls\ssl_internal.h ****  *  Unless required by applicable law or agreed to in writing, software
  17:C:/Users/dtjld/workspace/AIoT/src/LiteOS_Lab/iot_link/network/dtls/mbedtls/mbedtls-2.16.2/include/mbedtls\ssl_internal.h ****  *  distributed under the License is distributed on an "AS IS" BASIS, WITHOUT
  18:C:/Users/dtjld/workspace/AIoT/src/LiteOS_Lab/iot_link/network/dtls/mbedtls/mbedtls-2.16.2/include/mbedtls\ssl_internal.h ****  *  WARRANTIES OR CONDITIONS OF ANY KIND, either express or implied.
  19:C:/Users/dtjld/workspace/AIoT/src/LiteOS_Lab/iot_link/network/dtls/mbedtls/mbedtls-2.16.2/include/mbedtls\ssl_internal.h ****  *  See the License for the specific language governing permissions and
  20:C:/Users/dtjld/workspace/AIoT/src/LiteOS_Lab/iot_link/network/dtls/mbedtls/mbedtls-2.16.2/include/mbedtls\ssl_internal.h ****  *  limitations under the License.
  21:C:/Users/dtjld/workspace/AIoT/src/LiteOS_Lab/iot_link/network/dtls/mbedtls/mbedtls-2.16.2/include/mbedtls\ssl_internal.h ****  *
  22:C:/Users/dtjld/workspace/AIoT/src/LiteOS_Lab/iot_link/network/dtls/mbedtls/mbedtls-2.16.2/include/mbedtls\ssl_internal.h ****  *  This file is part of mbed TLS (https://tls.mbed.org)
  23:C:/Users/dtjld/workspace/AIoT/src/LiteOS_Lab/iot_link/network/dtls/mbedtls/mbedtls-2.16.2/include/mbedtls\ssl_internal.h ****  */
  24:C:/Users/dtjld/workspace/AIoT/src/LiteOS_Lab/iot_link/network/dtls/mbedtls/mbedtls-2.16.2/include/mbedtls\ssl_internal.h **** #ifndef MBEDTLS_SSL_INTERNAL_H
  25:C:/Users/dtjld/workspace/AIoT/src/LiteOS_Lab/iot_link/network/dtls/mbedtls/mbedtls-2.16.2/include/mbedtls\ssl_internal.h **** #define MBEDTLS_SSL_INTERNAL_H
  26:C:/Users/dtjld/workspace/AIoT/src/LiteOS_Lab/iot_link/network/dtls/mbedtls/mbedtls-2.16.2/include/mbedtls\ssl_internal.h **** 
  27:C:/Users/dtjld/workspace/AIoT/src/LiteOS_Lab/iot_link/network/dtls/mbedtls/mbedtls-2.16.2/include/mbedtls\ssl_internal.h **** #if !defined(MBEDTLS_CONFIG_FILE)
  28:C:/Users/dtjld/workspace/AIoT/src/LiteOS_Lab/iot_link/network/dtls/mbedtls/mbedtls-2.16.2/include/mbedtls\ssl_internal.h **** #include "config.h"
  29:C:/Users/dtjld/workspace/AIoT/src/LiteOS_Lab/iot_link/network/dtls/mbedtls/mbedtls-2.16.2/include/mbedtls\ssl_internal.h **** #else
  30:C:/Users/dtjld/workspace/AIoT/src/LiteOS_Lab/iot_link/network/dtls/mbedtls/mbedtls-2.16.2/include/mbedtls\ssl_internal.h **** #include MBEDTLS_CONFIG_FILE
  31:C:/Users/dtjld/workspace/AIoT/src/LiteOS_Lab/iot_link/network/dtls/mbedtls/mbedtls-2.16.2/include/mbedtls\ssl_internal.h **** #endif
  32:C:/Users/dtjld/workspace/AIoT/src/LiteOS_Lab/iot_link/network/dtls/mbedtls/mbedtls-2.16.2/include/mbedtls\ssl_internal.h **** 
  33:C:/Users/dtjld/workspace/AIoT/src/LiteOS_Lab/iot_link/network/dtls/mbedtls/mbedtls-2.16.2/include/mbedtls\ssl_internal.h **** #include "ssl.h"
  34:C:/Users/dtjld/workspace/AIoT/src/LiteOS_Lab/iot_link/network/dtls/mbedtls/mbedtls-2.16.2/include/mbedtls\ssl_internal.h **** #include "cipher.h"
  35:C:/Users/dtjld/workspace/AIoT/src/LiteOS_Lab/iot_link/network/dtls/mbedtls/mbedtls-2.16.2/include/mbedtls\ssl_internal.h **** 
  36:C:/Users/dtjld/workspace/AIoT/src/LiteOS_Lab/iot_link/network/dtls/mbedtls/mbedtls-2.16.2/include/mbedtls\ssl_internal.h **** #if defined(MBEDTLS_MD5_C)
  37:C:/Users/dtjld/workspace/AIoT/src/LiteOS_Lab/iot_link/network/dtls/mbedtls/mbedtls-2.16.2/include/mbedtls\ssl_internal.h **** #include "md5.h"
  38:C:/Users/dtjld/workspace/AIoT/src/LiteOS_Lab/iot_link/network/dtls/mbedtls/mbedtls-2.16.2/include/mbedtls\ssl_internal.h **** #endif
  39:C:/Users/dtjld/workspace/AIoT/src/LiteOS_Lab/iot_link/network/dtls/mbedtls/mbedtls-2.16.2/include/mbedtls\ssl_internal.h **** 
  40:C:/Users/dtjld/workspace/AIoT/src/LiteOS_Lab/iot_link/network/dtls/mbedtls/mbedtls-2.16.2/include/mbedtls\ssl_internal.h **** #if defined(MBEDTLS_SHA1_C)
  41:C:/Users/dtjld/workspace/AIoT/src/LiteOS_Lab/iot_link/network/dtls/mbedtls/mbedtls-2.16.2/include/mbedtls\ssl_internal.h **** #include "sha1.h"
  42:C:/Users/dtjld/workspace/AIoT/src/LiteOS_Lab/iot_link/network/dtls/mbedtls/mbedtls-2.16.2/include/mbedtls\ssl_internal.h **** #endif
  43:C:/Users/dtjld/workspace/AIoT/src/LiteOS_Lab/iot_link/network/dtls/mbedtls/mbedtls-2.16.2/include/mbedtls\ssl_internal.h **** 
  44:C:/Users/dtjld/workspace/AIoT/src/LiteOS_Lab/iot_link/network/dtls/mbedtls/mbedtls-2.16.2/include/mbedtls\ssl_internal.h **** #if defined(MBEDTLS_SHA256_C)
  45:C:/Users/dtjld/workspace/AIoT/src/LiteOS_Lab/iot_link/network/dtls/mbedtls/mbedtls-2.16.2/include/mbedtls\ssl_internal.h **** #include "sha256.h"
  46:C:/Users/dtjld/workspace/AIoT/src/LiteOS_Lab/iot_link/network/dtls/mbedtls/mbedtls-2.16.2/include/mbedtls\ssl_internal.h **** #endif
  47:C:/Users/dtjld/workspace/AIoT/src/LiteOS_Lab/iot_link/network/dtls/mbedtls/mbedtls-2.16.2/include/mbedtls\ssl_internal.h **** 
  48:C:/Users/dtjld/workspace/AIoT/src/LiteOS_Lab/iot_link/network/dtls/mbedtls/mbedtls-2.16.2/include/mbedtls\ssl_internal.h **** #if defined(MBEDTLS_SHA512_C)
  49:C:/Users/dtjld/workspace/AIoT/src/LiteOS_Lab/iot_link/network/dtls/mbedtls/mbedtls-2.16.2/include/mbedtls\ssl_internal.h **** #include "sha512.h"
  50:C:/Users/dtjld/workspace/AIoT/src/LiteOS_Lab/iot_link/network/dtls/mbedtls/mbedtls-2.16.2/include/mbedtls\ssl_internal.h **** #endif
  51:C:/Users/dtjld/workspace/AIoT/src/LiteOS_Lab/iot_link/network/dtls/mbedtls/mbedtls-2.16.2/include/mbedtls\ssl_internal.h **** 
  52:C:/Users/dtjld/workspace/AIoT/src/LiteOS_Lab/iot_link/network/dtls/mbedtls/mbedtls-2.16.2/include/mbedtls\ssl_internal.h **** #if defined(MBEDTLS_KEY_EXCHANGE_ECJPAKE_ENABLED)
  53:C:/Users/dtjld/workspace/AIoT/src/LiteOS_Lab/iot_link/network/dtls/mbedtls/mbedtls-2.16.2/include/mbedtls\ssl_internal.h **** #include "ecjpake.h"
  54:C:/Users/dtjld/workspace/AIoT/src/LiteOS_Lab/iot_link/network/dtls/mbedtls/mbedtls-2.16.2/include/mbedtls\ssl_internal.h **** #endif
  55:C:/Users/dtjld/workspace/AIoT/src/LiteOS_Lab/iot_link/network/dtls/mbedtls/mbedtls-2.16.2/include/mbedtls\ssl_internal.h **** 
  56:C:/Users/dtjld/workspace/AIoT/src/LiteOS_Lab/iot_link/network/dtls/mbedtls/mbedtls-2.16.2/include/mbedtls\ssl_internal.h **** #if ( defined(__ARMCC_VERSION) || defined(_MSC_VER) ) && \
  57:C:/Users/dtjld/workspace/AIoT/src/LiteOS_Lab/iot_link/network/dtls/mbedtls/mbedtls-2.16.2/include/mbedtls\ssl_internal.h ****     !defined(inline) && !defined(__cplusplus)
  58:C:/Users/dtjld/workspace/AIoT/src/LiteOS_Lab/iot_link/network/dtls/mbedtls/mbedtls-2.16.2/include/mbedtls\ssl_internal.h **** #define inline __inline
  59:C:/Users/dtjld/workspace/AIoT/src/LiteOS_Lab/iot_link/network/dtls/mbedtls/mbedtls-2.16.2/include/mbedtls\ssl_internal.h **** #endif
  60:C:/Users/dtjld/workspace/AIoT/src/LiteOS_Lab/iot_link/network/dtls/mbedtls/mbedtls-2.16.2/include/mbedtls\ssl_internal.h **** 
  61:C:/Users/dtjld/workspace/AIoT/src/LiteOS_Lab/iot_link/network/dtls/mbedtls/mbedtls-2.16.2/include/mbedtls\ssl_internal.h **** /* Determine minimum supported version */
  62:C:/Users/dtjld/workspace/AIoT/src/LiteOS_Lab/iot_link/network/dtls/mbedtls/mbedtls-2.16.2/include/mbedtls\ssl_internal.h **** #define MBEDTLS_SSL_MIN_MAJOR_VERSION           MBEDTLS_SSL_MAJOR_VERSION_3
  63:C:/Users/dtjld/workspace/AIoT/src/LiteOS_Lab/iot_link/network/dtls/mbedtls/mbedtls-2.16.2/include/mbedtls\ssl_internal.h **** 
  64:C:/Users/dtjld/workspace/AIoT/src/LiteOS_Lab/iot_link/network/dtls/mbedtls/mbedtls-2.16.2/include/mbedtls\ssl_internal.h **** #if defined(MBEDTLS_SSL_PROTO_SSL3)
  65:C:/Users/dtjld/workspace/AIoT/src/LiteOS_Lab/iot_link/network/dtls/mbedtls/mbedtls-2.16.2/include/mbedtls\ssl_internal.h **** #define MBEDTLS_SSL_MIN_MINOR_VERSION           MBEDTLS_SSL_MINOR_VERSION_0
  66:C:/Users/dtjld/workspace/AIoT/src/LiteOS_Lab/iot_link/network/dtls/mbedtls/mbedtls-2.16.2/include/mbedtls\ssl_internal.h **** #else
  67:C:/Users/dtjld/workspace/AIoT/src/LiteOS_Lab/iot_link/network/dtls/mbedtls/mbedtls-2.16.2/include/mbedtls\ssl_internal.h **** #if defined(MBEDTLS_SSL_PROTO_TLS1)
  68:C:/Users/dtjld/workspace/AIoT/src/LiteOS_Lab/iot_link/network/dtls/mbedtls/mbedtls-2.16.2/include/mbedtls\ssl_internal.h **** #define MBEDTLS_SSL_MIN_MINOR_VERSION           MBEDTLS_SSL_MINOR_VERSION_1
  69:C:/Users/dtjld/workspace/AIoT/src/LiteOS_Lab/iot_link/network/dtls/mbedtls/mbedtls-2.16.2/include/mbedtls\ssl_internal.h **** #else
  70:C:/Users/dtjld/workspace/AIoT/src/LiteOS_Lab/iot_link/network/dtls/mbedtls/mbedtls-2.16.2/include/mbedtls\ssl_internal.h **** #if defined(MBEDTLS_SSL_PROTO_TLS1_1)
  71:C:/Users/dtjld/workspace/AIoT/src/LiteOS_Lab/iot_link/network/dtls/mbedtls/mbedtls-2.16.2/include/mbedtls\ssl_internal.h **** #define MBEDTLS_SSL_MIN_MINOR_VERSION           MBEDTLS_SSL_MINOR_VERSION_2
ARM GAS  C:\Users\dtjld\AppData\Local\Temp\ccA8prOd.s 			page 18


  72:C:/Users/dtjld/workspace/AIoT/src/LiteOS_Lab/iot_link/network/dtls/mbedtls/mbedtls-2.16.2/include/mbedtls\ssl_internal.h **** #else
  73:C:/Users/dtjld/workspace/AIoT/src/LiteOS_Lab/iot_link/network/dtls/mbedtls/mbedtls-2.16.2/include/mbedtls\ssl_internal.h **** #if defined(MBEDTLS_SSL_PROTO_TLS1_2)
  74:C:/Users/dtjld/workspace/AIoT/src/LiteOS_Lab/iot_link/network/dtls/mbedtls/mbedtls-2.16.2/include/mbedtls\ssl_internal.h **** #define MBEDTLS_SSL_MIN_MINOR_VERSION           MBEDTLS_SSL_MINOR_VERSION_3
  75:C:/Users/dtjld/workspace/AIoT/src/LiteOS_Lab/iot_link/network/dtls/mbedtls/mbedtls-2.16.2/include/mbedtls\ssl_internal.h **** #endif /* MBEDTLS_SSL_PROTO_TLS1_2 */
  76:C:/Users/dtjld/workspace/AIoT/src/LiteOS_Lab/iot_link/network/dtls/mbedtls/mbedtls-2.16.2/include/mbedtls\ssl_internal.h **** #endif /* MBEDTLS_SSL_PROTO_TLS1_1 */
  77:C:/Users/dtjld/workspace/AIoT/src/LiteOS_Lab/iot_link/network/dtls/mbedtls/mbedtls-2.16.2/include/mbedtls\ssl_internal.h **** #endif /* MBEDTLS_SSL_PROTO_TLS1   */
  78:C:/Users/dtjld/workspace/AIoT/src/LiteOS_Lab/iot_link/network/dtls/mbedtls/mbedtls-2.16.2/include/mbedtls\ssl_internal.h **** #endif /* MBEDTLS_SSL_PROTO_SSL3   */
  79:C:/Users/dtjld/workspace/AIoT/src/LiteOS_Lab/iot_link/network/dtls/mbedtls/mbedtls-2.16.2/include/mbedtls\ssl_internal.h **** 
  80:C:/Users/dtjld/workspace/AIoT/src/LiteOS_Lab/iot_link/network/dtls/mbedtls/mbedtls-2.16.2/include/mbedtls\ssl_internal.h **** #define MBEDTLS_SSL_MIN_VALID_MINOR_VERSION MBEDTLS_SSL_MINOR_VERSION_1
  81:C:/Users/dtjld/workspace/AIoT/src/LiteOS_Lab/iot_link/network/dtls/mbedtls/mbedtls-2.16.2/include/mbedtls\ssl_internal.h **** #define MBEDTLS_SSL_MIN_VALID_MAJOR_VERSION MBEDTLS_SSL_MAJOR_VERSION_3
  82:C:/Users/dtjld/workspace/AIoT/src/LiteOS_Lab/iot_link/network/dtls/mbedtls/mbedtls-2.16.2/include/mbedtls\ssl_internal.h **** 
  83:C:/Users/dtjld/workspace/AIoT/src/LiteOS_Lab/iot_link/network/dtls/mbedtls/mbedtls-2.16.2/include/mbedtls\ssl_internal.h **** /* Determine maximum supported version */
  84:C:/Users/dtjld/workspace/AIoT/src/LiteOS_Lab/iot_link/network/dtls/mbedtls/mbedtls-2.16.2/include/mbedtls\ssl_internal.h **** #define MBEDTLS_SSL_MAX_MAJOR_VERSION           MBEDTLS_SSL_MAJOR_VERSION_3
  85:C:/Users/dtjld/workspace/AIoT/src/LiteOS_Lab/iot_link/network/dtls/mbedtls/mbedtls-2.16.2/include/mbedtls\ssl_internal.h **** 
  86:C:/Users/dtjld/workspace/AIoT/src/LiteOS_Lab/iot_link/network/dtls/mbedtls/mbedtls-2.16.2/include/mbedtls\ssl_internal.h **** #if defined(MBEDTLS_SSL_PROTO_TLS1_2)
  87:C:/Users/dtjld/workspace/AIoT/src/LiteOS_Lab/iot_link/network/dtls/mbedtls/mbedtls-2.16.2/include/mbedtls\ssl_internal.h **** #define MBEDTLS_SSL_MAX_MINOR_VERSION           MBEDTLS_SSL_MINOR_VERSION_3
  88:C:/Users/dtjld/workspace/AIoT/src/LiteOS_Lab/iot_link/network/dtls/mbedtls/mbedtls-2.16.2/include/mbedtls\ssl_internal.h **** #else
  89:C:/Users/dtjld/workspace/AIoT/src/LiteOS_Lab/iot_link/network/dtls/mbedtls/mbedtls-2.16.2/include/mbedtls\ssl_internal.h **** #if defined(MBEDTLS_SSL_PROTO_TLS1_1)
  90:C:/Users/dtjld/workspace/AIoT/src/LiteOS_Lab/iot_link/network/dtls/mbedtls/mbedtls-2.16.2/include/mbedtls\ssl_internal.h **** #define MBEDTLS_SSL_MAX_MINOR_VERSION           MBEDTLS_SSL_MINOR_VERSION_2
  91:C:/Users/dtjld/workspace/AIoT/src/LiteOS_Lab/iot_link/network/dtls/mbedtls/mbedtls-2.16.2/include/mbedtls\ssl_internal.h **** #else
  92:C:/Users/dtjld/workspace/AIoT/src/LiteOS_Lab/iot_link/network/dtls/mbedtls/mbedtls-2.16.2/include/mbedtls\ssl_internal.h **** #if defined(MBEDTLS_SSL_PROTO_TLS1)
  93:C:/Users/dtjld/workspace/AIoT/src/LiteOS_Lab/iot_link/network/dtls/mbedtls/mbedtls-2.16.2/include/mbedtls\ssl_internal.h **** #define MBEDTLS_SSL_MAX_MINOR_VERSION           MBEDTLS_SSL_MINOR_VERSION_1
  94:C:/Users/dtjld/workspace/AIoT/src/LiteOS_Lab/iot_link/network/dtls/mbedtls/mbedtls-2.16.2/include/mbedtls\ssl_internal.h **** #else
  95:C:/Users/dtjld/workspace/AIoT/src/LiteOS_Lab/iot_link/network/dtls/mbedtls/mbedtls-2.16.2/include/mbedtls\ssl_internal.h **** #if defined(MBEDTLS_SSL_PROTO_SSL3)
  96:C:/Users/dtjld/workspace/AIoT/src/LiteOS_Lab/iot_link/network/dtls/mbedtls/mbedtls-2.16.2/include/mbedtls\ssl_internal.h **** #define MBEDTLS_SSL_MAX_MINOR_VERSION           MBEDTLS_SSL_MINOR_VERSION_0
  97:C:/Users/dtjld/workspace/AIoT/src/LiteOS_Lab/iot_link/network/dtls/mbedtls/mbedtls-2.16.2/include/mbedtls\ssl_internal.h **** #endif /* MBEDTLS_SSL_PROTO_SSL3   */
  98:C:/Users/dtjld/workspace/AIoT/src/LiteOS_Lab/iot_link/network/dtls/mbedtls/mbedtls-2.16.2/include/mbedtls\ssl_internal.h **** #endif /* MBEDTLS_SSL_PROTO_TLS1   */
  99:C:/Users/dtjld/workspace/AIoT/src/LiteOS_Lab/iot_link/network/dtls/mbedtls/mbedtls-2.16.2/include/mbedtls\ssl_internal.h **** #endif /* MBEDTLS_SSL_PROTO_TLS1_1 */
 100:C:/Users/dtjld/workspace/AIoT/src/LiteOS_Lab/iot_link/network/dtls/mbedtls/mbedtls-2.16.2/include/mbedtls\ssl_internal.h **** #endif /* MBEDTLS_SSL_PROTO_TLS1_2 */
 101:C:/Users/dtjld/workspace/AIoT/src/LiteOS_Lab/iot_link/network/dtls/mbedtls/mbedtls-2.16.2/include/mbedtls\ssl_internal.h **** 
 102:C:/Users/dtjld/workspace/AIoT/src/LiteOS_Lab/iot_link/network/dtls/mbedtls/mbedtls-2.16.2/include/mbedtls\ssl_internal.h **** /* Shorthand for restartable ECC */
 103:C:/Users/dtjld/workspace/AIoT/src/LiteOS_Lab/iot_link/network/dtls/mbedtls/mbedtls-2.16.2/include/mbedtls\ssl_internal.h **** #if defined(MBEDTLS_ECP_RESTARTABLE) && \
 104:C:/Users/dtjld/workspace/AIoT/src/LiteOS_Lab/iot_link/network/dtls/mbedtls/mbedtls-2.16.2/include/mbedtls\ssl_internal.h ****     defined(MBEDTLS_SSL_CLI_C) && \
 105:C:/Users/dtjld/workspace/AIoT/src/LiteOS_Lab/iot_link/network/dtls/mbedtls/mbedtls-2.16.2/include/mbedtls\ssl_internal.h ****     defined(MBEDTLS_SSL_PROTO_TLS1_2) && \
 106:C:/Users/dtjld/workspace/AIoT/src/LiteOS_Lab/iot_link/network/dtls/mbedtls/mbedtls-2.16.2/include/mbedtls\ssl_internal.h ****     defined(MBEDTLS_KEY_EXCHANGE_ECDHE_ECDSA_ENABLED)
 107:C:/Users/dtjld/workspace/AIoT/src/LiteOS_Lab/iot_link/network/dtls/mbedtls/mbedtls-2.16.2/include/mbedtls\ssl_internal.h **** #define MBEDTLS_SSL__ECP_RESTARTABLE
 108:C:/Users/dtjld/workspace/AIoT/src/LiteOS_Lab/iot_link/network/dtls/mbedtls/mbedtls-2.16.2/include/mbedtls\ssl_internal.h **** #endif
 109:C:/Users/dtjld/workspace/AIoT/src/LiteOS_Lab/iot_link/network/dtls/mbedtls/mbedtls-2.16.2/include/mbedtls\ssl_internal.h **** 
 110:C:/Users/dtjld/workspace/AIoT/src/LiteOS_Lab/iot_link/network/dtls/mbedtls/mbedtls-2.16.2/include/mbedtls\ssl_internal.h **** #define MBEDTLS_SSL_INITIAL_HANDSHAKE           0
 111:C:/Users/dtjld/workspace/AIoT/src/LiteOS_Lab/iot_link/network/dtls/mbedtls/mbedtls-2.16.2/include/mbedtls\ssl_internal.h **** #define MBEDTLS_SSL_RENEGOTIATION_IN_PROGRESS   1   /* In progress */
 112:C:/Users/dtjld/workspace/AIoT/src/LiteOS_Lab/iot_link/network/dtls/mbedtls/mbedtls-2.16.2/include/mbedtls\ssl_internal.h **** #define MBEDTLS_SSL_RENEGOTIATION_DONE          2   /* Done or aborted */
 113:C:/Users/dtjld/workspace/AIoT/src/LiteOS_Lab/iot_link/network/dtls/mbedtls/mbedtls-2.16.2/include/mbedtls\ssl_internal.h **** #define MBEDTLS_SSL_RENEGOTIATION_PENDING       3   /* Requested (server only) */
 114:C:/Users/dtjld/workspace/AIoT/src/LiteOS_Lab/iot_link/network/dtls/mbedtls/mbedtls-2.16.2/include/mbedtls\ssl_internal.h **** 
 115:C:/Users/dtjld/workspace/AIoT/src/LiteOS_Lab/iot_link/network/dtls/mbedtls/mbedtls-2.16.2/include/mbedtls\ssl_internal.h **** /*
 116:C:/Users/dtjld/workspace/AIoT/src/LiteOS_Lab/iot_link/network/dtls/mbedtls/mbedtls-2.16.2/include/mbedtls\ssl_internal.h ****  * DTLS retransmission states, see RFC 6347 4.2.4
 117:C:/Users/dtjld/workspace/AIoT/src/LiteOS_Lab/iot_link/network/dtls/mbedtls/mbedtls-2.16.2/include/mbedtls\ssl_internal.h ****  *
 118:C:/Users/dtjld/workspace/AIoT/src/LiteOS_Lab/iot_link/network/dtls/mbedtls/mbedtls-2.16.2/include/mbedtls\ssl_internal.h ****  * The SENDING state is merged in PREPARING for initial sends,
 119:C:/Users/dtjld/workspace/AIoT/src/LiteOS_Lab/iot_link/network/dtls/mbedtls/mbedtls-2.16.2/include/mbedtls\ssl_internal.h ****  * but is distinct for resends.
 120:C:/Users/dtjld/workspace/AIoT/src/LiteOS_Lab/iot_link/network/dtls/mbedtls/mbedtls-2.16.2/include/mbedtls\ssl_internal.h ****  *
 121:C:/Users/dtjld/workspace/AIoT/src/LiteOS_Lab/iot_link/network/dtls/mbedtls/mbedtls-2.16.2/include/mbedtls\ssl_internal.h ****  * Note: initial state is wrong for server, but is not used anyway.
 122:C:/Users/dtjld/workspace/AIoT/src/LiteOS_Lab/iot_link/network/dtls/mbedtls/mbedtls-2.16.2/include/mbedtls\ssl_internal.h ****  */
 123:C:/Users/dtjld/workspace/AIoT/src/LiteOS_Lab/iot_link/network/dtls/mbedtls/mbedtls-2.16.2/include/mbedtls\ssl_internal.h **** #define MBEDTLS_SSL_RETRANS_PREPARING       0
 124:C:/Users/dtjld/workspace/AIoT/src/LiteOS_Lab/iot_link/network/dtls/mbedtls/mbedtls-2.16.2/include/mbedtls\ssl_internal.h **** #define MBEDTLS_SSL_RETRANS_SENDING         1
 125:C:/Users/dtjld/workspace/AIoT/src/LiteOS_Lab/iot_link/network/dtls/mbedtls/mbedtls-2.16.2/include/mbedtls\ssl_internal.h **** #define MBEDTLS_SSL_RETRANS_WAITING         2
 126:C:/Users/dtjld/workspace/AIoT/src/LiteOS_Lab/iot_link/network/dtls/mbedtls/mbedtls-2.16.2/include/mbedtls\ssl_internal.h **** #define MBEDTLS_SSL_RETRANS_FINISHED        3
 127:C:/Users/dtjld/workspace/AIoT/src/LiteOS_Lab/iot_link/network/dtls/mbedtls/mbedtls-2.16.2/include/mbedtls\ssl_internal.h **** 
 128:C:/Users/dtjld/workspace/AIoT/src/LiteOS_Lab/iot_link/network/dtls/mbedtls/mbedtls-2.16.2/include/mbedtls\ssl_internal.h **** /*
ARM GAS  C:\Users\dtjld\AppData\Local\Temp\ccA8prOd.s 			page 19


 129:C:/Users/dtjld/workspace/AIoT/src/LiteOS_Lab/iot_link/network/dtls/mbedtls/mbedtls-2.16.2/include/mbedtls\ssl_internal.h ****  * Allow extra bytes for record, authentication and encryption overhead:
 130:C:/Users/dtjld/workspace/AIoT/src/LiteOS_Lab/iot_link/network/dtls/mbedtls/mbedtls-2.16.2/include/mbedtls\ssl_internal.h ****  * counter (8) + header (5) + IV(16) + MAC (16-48) + padding (0-256)
 131:C:/Users/dtjld/workspace/AIoT/src/LiteOS_Lab/iot_link/network/dtls/mbedtls/mbedtls-2.16.2/include/mbedtls\ssl_internal.h ****  * and allow for a maximum of 1024 of compression expansion if
 132:C:/Users/dtjld/workspace/AIoT/src/LiteOS_Lab/iot_link/network/dtls/mbedtls/mbedtls-2.16.2/include/mbedtls\ssl_internal.h ****  * enabled.
 133:C:/Users/dtjld/workspace/AIoT/src/LiteOS_Lab/iot_link/network/dtls/mbedtls/mbedtls-2.16.2/include/mbedtls\ssl_internal.h ****  */
 134:C:/Users/dtjld/workspace/AIoT/src/LiteOS_Lab/iot_link/network/dtls/mbedtls/mbedtls-2.16.2/include/mbedtls\ssl_internal.h **** #if defined(MBEDTLS_ZLIB_SUPPORT)
 135:C:/Users/dtjld/workspace/AIoT/src/LiteOS_Lab/iot_link/network/dtls/mbedtls/mbedtls-2.16.2/include/mbedtls\ssl_internal.h **** #define MBEDTLS_SSL_COMPRESSION_ADD          1024
 136:C:/Users/dtjld/workspace/AIoT/src/LiteOS_Lab/iot_link/network/dtls/mbedtls/mbedtls-2.16.2/include/mbedtls\ssl_internal.h **** #else
 137:C:/Users/dtjld/workspace/AIoT/src/LiteOS_Lab/iot_link/network/dtls/mbedtls/mbedtls-2.16.2/include/mbedtls\ssl_internal.h **** #define MBEDTLS_SSL_COMPRESSION_ADD             0
 138:C:/Users/dtjld/workspace/AIoT/src/LiteOS_Lab/iot_link/network/dtls/mbedtls/mbedtls-2.16.2/include/mbedtls\ssl_internal.h **** #endif
 139:C:/Users/dtjld/workspace/AIoT/src/LiteOS_Lab/iot_link/network/dtls/mbedtls/mbedtls-2.16.2/include/mbedtls\ssl_internal.h **** 
 140:C:/Users/dtjld/workspace/AIoT/src/LiteOS_Lab/iot_link/network/dtls/mbedtls/mbedtls-2.16.2/include/mbedtls\ssl_internal.h **** #if defined(MBEDTLS_ARC4_C) || defined(MBEDTLS_CIPHER_MODE_CBC)
 141:C:/Users/dtjld/workspace/AIoT/src/LiteOS_Lab/iot_link/network/dtls/mbedtls/mbedtls-2.16.2/include/mbedtls\ssl_internal.h **** /* Ciphersuites using HMAC */
 142:C:/Users/dtjld/workspace/AIoT/src/LiteOS_Lab/iot_link/network/dtls/mbedtls/mbedtls-2.16.2/include/mbedtls\ssl_internal.h **** #if defined(MBEDTLS_SHA512_C)
 143:C:/Users/dtjld/workspace/AIoT/src/LiteOS_Lab/iot_link/network/dtls/mbedtls/mbedtls-2.16.2/include/mbedtls\ssl_internal.h **** #define MBEDTLS_SSL_MAC_ADD                 48  /* SHA-384 used for HMAC */
 144:C:/Users/dtjld/workspace/AIoT/src/LiteOS_Lab/iot_link/network/dtls/mbedtls/mbedtls-2.16.2/include/mbedtls\ssl_internal.h **** #elif defined(MBEDTLS_SHA256_C)
 145:C:/Users/dtjld/workspace/AIoT/src/LiteOS_Lab/iot_link/network/dtls/mbedtls/mbedtls-2.16.2/include/mbedtls\ssl_internal.h **** #define MBEDTLS_SSL_MAC_ADD                 32  /* SHA-256 used for HMAC */
 146:C:/Users/dtjld/workspace/AIoT/src/LiteOS_Lab/iot_link/network/dtls/mbedtls/mbedtls-2.16.2/include/mbedtls\ssl_internal.h **** #else
 147:C:/Users/dtjld/workspace/AIoT/src/LiteOS_Lab/iot_link/network/dtls/mbedtls/mbedtls-2.16.2/include/mbedtls\ssl_internal.h **** #define MBEDTLS_SSL_MAC_ADD                 20  /* SHA-1   used for HMAC */
 148:C:/Users/dtjld/workspace/AIoT/src/LiteOS_Lab/iot_link/network/dtls/mbedtls/mbedtls-2.16.2/include/mbedtls\ssl_internal.h **** #endif
 149:C:/Users/dtjld/workspace/AIoT/src/LiteOS_Lab/iot_link/network/dtls/mbedtls/mbedtls-2.16.2/include/mbedtls\ssl_internal.h **** #else
 150:C:/Users/dtjld/workspace/AIoT/src/LiteOS_Lab/iot_link/network/dtls/mbedtls/mbedtls-2.16.2/include/mbedtls\ssl_internal.h **** /* AEAD ciphersuites: GCM and CCM use a 128 bits tag */
 151:C:/Users/dtjld/workspace/AIoT/src/LiteOS_Lab/iot_link/network/dtls/mbedtls/mbedtls-2.16.2/include/mbedtls\ssl_internal.h **** #define MBEDTLS_SSL_MAC_ADD                 16
 152:C:/Users/dtjld/workspace/AIoT/src/LiteOS_Lab/iot_link/network/dtls/mbedtls/mbedtls-2.16.2/include/mbedtls\ssl_internal.h **** #endif
 153:C:/Users/dtjld/workspace/AIoT/src/LiteOS_Lab/iot_link/network/dtls/mbedtls/mbedtls-2.16.2/include/mbedtls\ssl_internal.h **** 
 154:C:/Users/dtjld/workspace/AIoT/src/LiteOS_Lab/iot_link/network/dtls/mbedtls/mbedtls-2.16.2/include/mbedtls\ssl_internal.h **** #if defined(MBEDTLS_CIPHER_MODE_CBC)
 155:C:/Users/dtjld/workspace/AIoT/src/LiteOS_Lab/iot_link/network/dtls/mbedtls/mbedtls-2.16.2/include/mbedtls\ssl_internal.h **** #define MBEDTLS_SSL_PADDING_ADD            256
 156:C:/Users/dtjld/workspace/AIoT/src/LiteOS_Lab/iot_link/network/dtls/mbedtls/mbedtls-2.16.2/include/mbedtls\ssl_internal.h **** #else
 157:C:/Users/dtjld/workspace/AIoT/src/LiteOS_Lab/iot_link/network/dtls/mbedtls/mbedtls-2.16.2/include/mbedtls\ssl_internal.h **** #define MBEDTLS_SSL_PADDING_ADD              0
 158:C:/Users/dtjld/workspace/AIoT/src/LiteOS_Lab/iot_link/network/dtls/mbedtls/mbedtls-2.16.2/include/mbedtls\ssl_internal.h **** #endif
 159:C:/Users/dtjld/workspace/AIoT/src/LiteOS_Lab/iot_link/network/dtls/mbedtls/mbedtls-2.16.2/include/mbedtls\ssl_internal.h **** 
 160:C:/Users/dtjld/workspace/AIoT/src/LiteOS_Lab/iot_link/network/dtls/mbedtls/mbedtls-2.16.2/include/mbedtls\ssl_internal.h **** #define MBEDTLS_SSL_PAYLOAD_OVERHEAD ( MBEDTLS_SSL_COMPRESSION_ADD +    \
 161:C:/Users/dtjld/workspace/AIoT/src/LiteOS_Lab/iot_link/network/dtls/mbedtls/mbedtls-2.16.2/include/mbedtls\ssl_internal.h ****                                        MBEDTLS_MAX_IV_LENGTH +          \
 162:C:/Users/dtjld/workspace/AIoT/src/LiteOS_Lab/iot_link/network/dtls/mbedtls/mbedtls-2.16.2/include/mbedtls\ssl_internal.h ****                                        MBEDTLS_SSL_MAC_ADD +            \
 163:C:/Users/dtjld/workspace/AIoT/src/LiteOS_Lab/iot_link/network/dtls/mbedtls/mbedtls-2.16.2/include/mbedtls\ssl_internal.h ****                                        MBEDTLS_SSL_PADDING_ADD          \
 164:C:/Users/dtjld/workspace/AIoT/src/LiteOS_Lab/iot_link/network/dtls/mbedtls/mbedtls-2.16.2/include/mbedtls\ssl_internal.h ****                                        )
 165:C:/Users/dtjld/workspace/AIoT/src/LiteOS_Lab/iot_link/network/dtls/mbedtls/mbedtls-2.16.2/include/mbedtls\ssl_internal.h **** 
 166:C:/Users/dtjld/workspace/AIoT/src/LiteOS_Lab/iot_link/network/dtls/mbedtls/mbedtls-2.16.2/include/mbedtls\ssl_internal.h **** #define MBEDTLS_SSL_IN_PAYLOAD_LEN ( MBEDTLS_SSL_PAYLOAD_OVERHEAD + \
 167:C:/Users/dtjld/workspace/AIoT/src/LiteOS_Lab/iot_link/network/dtls/mbedtls/mbedtls-2.16.2/include/mbedtls\ssl_internal.h ****                                      ( MBEDTLS_SSL_IN_CONTENT_LEN ) )
 168:C:/Users/dtjld/workspace/AIoT/src/LiteOS_Lab/iot_link/network/dtls/mbedtls/mbedtls-2.16.2/include/mbedtls\ssl_internal.h **** 
 169:C:/Users/dtjld/workspace/AIoT/src/LiteOS_Lab/iot_link/network/dtls/mbedtls/mbedtls-2.16.2/include/mbedtls\ssl_internal.h **** #define MBEDTLS_SSL_OUT_PAYLOAD_LEN ( MBEDTLS_SSL_PAYLOAD_OVERHEAD + \
 170:C:/Users/dtjld/workspace/AIoT/src/LiteOS_Lab/iot_link/network/dtls/mbedtls/mbedtls-2.16.2/include/mbedtls\ssl_internal.h ****                                       ( MBEDTLS_SSL_OUT_CONTENT_LEN ) )
 171:C:/Users/dtjld/workspace/AIoT/src/LiteOS_Lab/iot_link/network/dtls/mbedtls/mbedtls-2.16.2/include/mbedtls\ssl_internal.h **** 
 172:C:/Users/dtjld/workspace/AIoT/src/LiteOS_Lab/iot_link/network/dtls/mbedtls/mbedtls-2.16.2/include/mbedtls\ssl_internal.h **** /* The maximum number of buffered handshake messages. */
 173:C:/Users/dtjld/workspace/AIoT/src/LiteOS_Lab/iot_link/network/dtls/mbedtls/mbedtls-2.16.2/include/mbedtls\ssl_internal.h **** #define MBEDTLS_SSL_MAX_BUFFERED_HS 4
 174:C:/Users/dtjld/workspace/AIoT/src/LiteOS_Lab/iot_link/network/dtls/mbedtls/mbedtls-2.16.2/include/mbedtls\ssl_internal.h **** 
 175:C:/Users/dtjld/workspace/AIoT/src/LiteOS_Lab/iot_link/network/dtls/mbedtls/mbedtls-2.16.2/include/mbedtls\ssl_internal.h **** /* Maximum length we can advertise as our max content length for
 176:C:/Users/dtjld/workspace/AIoT/src/LiteOS_Lab/iot_link/network/dtls/mbedtls/mbedtls-2.16.2/include/mbedtls\ssl_internal.h ****    RFC 6066 max_fragment_length extension negotiation purposes
 177:C:/Users/dtjld/workspace/AIoT/src/LiteOS_Lab/iot_link/network/dtls/mbedtls/mbedtls-2.16.2/include/mbedtls\ssl_internal.h ****    (the lesser of both sizes, if they are unequal.)
 178:C:/Users/dtjld/workspace/AIoT/src/LiteOS_Lab/iot_link/network/dtls/mbedtls/mbedtls-2.16.2/include/mbedtls\ssl_internal.h ****  */
 179:C:/Users/dtjld/workspace/AIoT/src/LiteOS_Lab/iot_link/network/dtls/mbedtls/mbedtls-2.16.2/include/mbedtls\ssl_internal.h **** #define MBEDTLS_TLS_EXT_ADV_CONTENT_LEN (                            \
 180:C:/Users/dtjld/workspace/AIoT/src/LiteOS_Lab/iot_link/network/dtls/mbedtls/mbedtls-2.16.2/include/mbedtls\ssl_internal.h ****         (MBEDTLS_SSL_IN_CONTENT_LEN > MBEDTLS_SSL_OUT_CONTENT_LEN)   \
 181:C:/Users/dtjld/workspace/AIoT/src/LiteOS_Lab/iot_link/network/dtls/mbedtls/mbedtls-2.16.2/include/mbedtls\ssl_internal.h ****         ? ( MBEDTLS_SSL_OUT_CONTENT_LEN )                            \
 182:C:/Users/dtjld/workspace/AIoT/src/LiteOS_Lab/iot_link/network/dtls/mbedtls/mbedtls-2.16.2/include/mbedtls\ssl_internal.h ****         : ( MBEDTLS_SSL_IN_CONTENT_LEN )                             \
 183:C:/Users/dtjld/workspace/AIoT/src/LiteOS_Lab/iot_link/network/dtls/mbedtls/mbedtls-2.16.2/include/mbedtls\ssl_internal.h ****         )
 184:C:/Users/dtjld/workspace/AIoT/src/LiteOS_Lab/iot_link/network/dtls/mbedtls/mbedtls-2.16.2/include/mbedtls\ssl_internal.h **** 
 185:C:/Users/dtjld/workspace/AIoT/src/LiteOS_Lab/iot_link/network/dtls/mbedtls/mbedtls-2.16.2/include/mbedtls\ssl_internal.h **** /*
ARM GAS  C:\Users\dtjld\AppData\Local\Temp\ccA8prOd.s 			page 20


 186:C:/Users/dtjld/workspace/AIoT/src/LiteOS_Lab/iot_link/network/dtls/mbedtls/mbedtls-2.16.2/include/mbedtls\ssl_internal.h ****  * Check that we obey the standard's message size bounds
 187:C:/Users/dtjld/workspace/AIoT/src/LiteOS_Lab/iot_link/network/dtls/mbedtls/mbedtls-2.16.2/include/mbedtls\ssl_internal.h ****  */
 188:C:/Users/dtjld/workspace/AIoT/src/LiteOS_Lab/iot_link/network/dtls/mbedtls/mbedtls-2.16.2/include/mbedtls\ssl_internal.h **** 
 189:C:/Users/dtjld/workspace/AIoT/src/LiteOS_Lab/iot_link/network/dtls/mbedtls/mbedtls-2.16.2/include/mbedtls\ssl_internal.h **** #if MBEDTLS_SSL_MAX_CONTENT_LEN > 16384
 190:C:/Users/dtjld/workspace/AIoT/src/LiteOS_Lab/iot_link/network/dtls/mbedtls/mbedtls-2.16.2/include/mbedtls\ssl_internal.h **** #error "Bad configuration - record content too large."
 191:C:/Users/dtjld/workspace/AIoT/src/LiteOS_Lab/iot_link/network/dtls/mbedtls/mbedtls-2.16.2/include/mbedtls\ssl_internal.h **** #endif
 192:C:/Users/dtjld/workspace/AIoT/src/LiteOS_Lab/iot_link/network/dtls/mbedtls/mbedtls-2.16.2/include/mbedtls\ssl_internal.h **** 
 193:C:/Users/dtjld/workspace/AIoT/src/LiteOS_Lab/iot_link/network/dtls/mbedtls/mbedtls-2.16.2/include/mbedtls\ssl_internal.h **** #if MBEDTLS_SSL_IN_CONTENT_LEN > MBEDTLS_SSL_MAX_CONTENT_LEN
 194:C:/Users/dtjld/workspace/AIoT/src/LiteOS_Lab/iot_link/network/dtls/mbedtls/mbedtls-2.16.2/include/mbedtls\ssl_internal.h **** #error "Bad configuration - incoming record content should not be larger than MBEDTLS_SSL_MAX_CONTE
 195:C:/Users/dtjld/workspace/AIoT/src/LiteOS_Lab/iot_link/network/dtls/mbedtls/mbedtls-2.16.2/include/mbedtls\ssl_internal.h **** #endif
 196:C:/Users/dtjld/workspace/AIoT/src/LiteOS_Lab/iot_link/network/dtls/mbedtls/mbedtls-2.16.2/include/mbedtls\ssl_internal.h **** 
 197:C:/Users/dtjld/workspace/AIoT/src/LiteOS_Lab/iot_link/network/dtls/mbedtls/mbedtls-2.16.2/include/mbedtls\ssl_internal.h **** #if MBEDTLS_SSL_OUT_CONTENT_LEN > MBEDTLS_SSL_MAX_CONTENT_LEN
 198:C:/Users/dtjld/workspace/AIoT/src/LiteOS_Lab/iot_link/network/dtls/mbedtls/mbedtls-2.16.2/include/mbedtls\ssl_internal.h **** #error "Bad configuration - outgoing record content should not be larger than MBEDTLS_SSL_MAX_CONTE
 199:C:/Users/dtjld/workspace/AIoT/src/LiteOS_Lab/iot_link/network/dtls/mbedtls/mbedtls-2.16.2/include/mbedtls\ssl_internal.h **** #endif
 200:C:/Users/dtjld/workspace/AIoT/src/LiteOS_Lab/iot_link/network/dtls/mbedtls/mbedtls-2.16.2/include/mbedtls\ssl_internal.h **** 
 201:C:/Users/dtjld/workspace/AIoT/src/LiteOS_Lab/iot_link/network/dtls/mbedtls/mbedtls-2.16.2/include/mbedtls\ssl_internal.h **** #if MBEDTLS_SSL_IN_PAYLOAD_LEN > MBEDTLS_SSL_MAX_CONTENT_LEN + 2048
 202:C:/Users/dtjld/workspace/AIoT/src/LiteOS_Lab/iot_link/network/dtls/mbedtls/mbedtls-2.16.2/include/mbedtls\ssl_internal.h **** #error "Bad configuration - incoming protected record payload too large."
 203:C:/Users/dtjld/workspace/AIoT/src/LiteOS_Lab/iot_link/network/dtls/mbedtls/mbedtls-2.16.2/include/mbedtls\ssl_internal.h **** #endif
 204:C:/Users/dtjld/workspace/AIoT/src/LiteOS_Lab/iot_link/network/dtls/mbedtls/mbedtls-2.16.2/include/mbedtls\ssl_internal.h **** 
 205:C:/Users/dtjld/workspace/AIoT/src/LiteOS_Lab/iot_link/network/dtls/mbedtls/mbedtls-2.16.2/include/mbedtls\ssl_internal.h **** #if MBEDTLS_SSL_OUT_PAYLOAD_LEN > MBEDTLS_SSL_MAX_CONTENT_LEN + 2048
 206:C:/Users/dtjld/workspace/AIoT/src/LiteOS_Lab/iot_link/network/dtls/mbedtls/mbedtls-2.16.2/include/mbedtls\ssl_internal.h **** #error "Bad configuration - outgoing protected record payload too large."
 207:C:/Users/dtjld/workspace/AIoT/src/LiteOS_Lab/iot_link/network/dtls/mbedtls/mbedtls-2.16.2/include/mbedtls\ssl_internal.h **** #endif
 208:C:/Users/dtjld/workspace/AIoT/src/LiteOS_Lab/iot_link/network/dtls/mbedtls/mbedtls-2.16.2/include/mbedtls\ssl_internal.h **** 
 209:C:/Users/dtjld/workspace/AIoT/src/LiteOS_Lab/iot_link/network/dtls/mbedtls/mbedtls-2.16.2/include/mbedtls\ssl_internal.h **** /* Calculate buffer sizes */
 210:C:/Users/dtjld/workspace/AIoT/src/LiteOS_Lab/iot_link/network/dtls/mbedtls/mbedtls-2.16.2/include/mbedtls\ssl_internal.h **** 
 211:C:/Users/dtjld/workspace/AIoT/src/LiteOS_Lab/iot_link/network/dtls/mbedtls/mbedtls-2.16.2/include/mbedtls\ssl_internal.h **** /* Note: Even though the TLS record header is only 5 bytes
 212:C:/Users/dtjld/workspace/AIoT/src/LiteOS_Lab/iot_link/network/dtls/mbedtls/mbedtls-2.16.2/include/mbedtls\ssl_internal.h ****    long, we're internally using 8 bytes to store the
 213:C:/Users/dtjld/workspace/AIoT/src/LiteOS_Lab/iot_link/network/dtls/mbedtls/mbedtls-2.16.2/include/mbedtls\ssl_internal.h ****    implicit sequence number. */
 214:C:/Users/dtjld/workspace/AIoT/src/LiteOS_Lab/iot_link/network/dtls/mbedtls/mbedtls-2.16.2/include/mbedtls\ssl_internal.h **** #define MBEDTLS_SSL_HEADER_LEN 13
 215:C:/Users/dtjld/workspace/AIoT/src/LiteOS_Lab/iot_link/network/dtls/mbedtls/mbedtls-2.16.2/include/mbedtls\ssl_internal.h **** 
 216:C:/Users/dtjld/workspace/AIoT/src/LiteOS_Lab/iot_link/network/dtls/mbedtls/mbedtls-2.16.2/include/mbedtls\ssl_internal.h **** #define MBEDTLS_SSL_IN_BUFFER_LEN  \
 217:C:/Users/dtjld/workspace/AIoT/src/LiteOS_Lab/iot_link/network/dtls/mbedtls/mbedtls-2.16.2/include/mbedtls\ssl_internal.h ****     ( ( MBEDTLS_SSL_HEADER_LEN ) + ( MBEDTLS_SSL_IN_PAYLOAD_LEN ) )
 218:C:/Users/dtjld/workspace/AIoT/src/LiteOS_Lab/iot_link/network/dtls/mbedtls/mbedtls-2.16.2/include/mbedtls\ssl_internal.h **** 
 219:C:/Users/dtjld/workspace/AIoT/src/LiteOS_Lab/iot_link/network/dtls/mbedtls/mbedtls-2.16.2/include/mbedtls\ssl_internal.h **** #define MBEDTLS_SSL_OUT_BUFFER_LEN  \
 220:C:/Users/dtjld/workspace/AIoT/src/LiteOS_Lab/iot_link/network/dtls/mbedtls/mbedtls-2.16.2/include/mbedtls\ssl_internal.h ****     ( ( MBEDTLS_SSL_HEADER_LEN ) + ( MBEDTLS_SSL_OUT_PAYLOAD_LEN ) )
 221:C:/Users/dtjld/workspace/AIoT/src/LiteOS_Lab/iot_link/network/dtls/mbedtls/mbedtls-2.16.2/include/mbedtls\ssl_internal.h **** 
 222:C:/Users/dtjld/workspace/AIoT/src/LiteOS_Lab/iot_link/network/dtls/mbedtls/mbedtls-2.16.2/include/mbedtls\ssl_internal.h **** #ifdef MBEDTLS_ZLIB_SUPPORT
 223:C:/Users/dtjld/workspace/AIoT/src/LiteOS_Lab/iot_link/network/dtls/mbedtls/mbedtls-2.16.2/include/mbedtls\ssl_internal.h **** /* Compression buffer holds both IN and OUT buffers, so should be size of the larger */
 224:C:/Users/dtjld/workspace/AIoT/src/LiteOS_Lab/iot_link/network/dtls/mbedtls/mbedtls-2.16.2/include/mbedtls\ssl_internal.h **** #define MBEDTLS_SSL_COMPRESS_BUFFER_LEN (                               \
 225:C:/Users/dtjld/workspace/AIoT/src/LiteOS_Lab/iot_link/network/dtls/mbedtls/mbedtls-2.16.2/include/mbedtls\ssl_internal.h ****         ( MBEDTLS_SSL_IN_BUFFER_LEN > MBEDTLS_SSL_OUT_BUFFER_LEN )      \
 226:C:/Users/dtjld/workspace/AIoT/src/LiteOS_Lab/iot_link/network/dtls/mbedtls/mbedtls-2.16.2/include/mbedtls\ssl_internal.h ****         ? MBEDTLS_SSL_IN_BUFFER_LEN                                     \
 227:C:/Users/dtjld/workspace/AIoT/src/LiteOS_Lab/iot_link/network/dtls/mbedtls/mbedtls-2.16.2/include/mbedtls\ssl_internal.h ****         : MBEDTLS_SSL_OUT_BUFFER_LEN                                    \
 228:C:/Users/dtjld/workspace/AIoT/src/LiteOS_Lab/iot_link/network/dtls/mbedtls/mbedtls-2.16.2/include/mbedtls\ssl_internal.h ****         )
 229:C:/Users/dtjld/workspace/AIoT/src/LiteOS_Lab/iot_link/network/dtls/mbedtls/mbedtls-2.16.2/include/mbedtls\ssl_internal.h **** #endif
 230:C:/Users/dtjld/workspace/AIoT/src/LiteOS_Lab/iot_link/network/dtls/mbedtls/mbedtls-2.16.2/include/mbedtls\ssl_internal.h **** 
 231:C:/Users/dtjld/workspace/AIoT/src/LiteOS_Lab/iot_link/network/dtls/mbedtls/mbedtls-2.16.2/include/mbedtls\ssl_internal.h **** /*
 232:C:/Users/dtjld/workspace/AIoT/src/LiteOS_Lab/iot_link/network/dtls/mbedtls/mbedtls-2.16.2/include/mbedtls\ssl_internal.h ****  * TLS extension flags (for extensions with outgoing ServerHello content
 233:C:/Users/dtjld/workspace/AIoT/src/LiteOS_Lab/iot_link/network/dtls/mbedtls/mbedtls-2.16.2/include/mbedtls\ssl_internal.h ****  * that need it (e.g. for RENEGOTIATION_INFO the server already knows because
 234:C:/Users/dtjld/workspace/AIoT/src/LiteOS_Lab/iot_link/network/dtls/mbedtls/mbedtls-2.16.2/include/mbedtls\ssl_internal.h ****  * of state of the renegotiation flag, so no indicator is required)
 235:C:/Users/dtjld/workspace/AIoT/src/LiteOS_Lab/iot_link/network/dtls/mbedtls/mbedtls-2.16.2/include/mbedtls\ssl_internal.h ****  */
 236:C:/Users/dtjld/workspace/AIoT/src/LiteOS_Lab/iot_link/network/dtls/mbedtls/mbedtls-2.16.2/include/mbedtls\ssl_internal.h **** #define MBEDTLS_TLS_EXT_SUPPORTED_POINT_FORMATS_PRESENT (1 << 0)
 237:C:/Users/dtjld/workspace/AIoT/src/LiteOS_Lab/iot_link/network/dtls/mbedtls/mbedtls-2.16.2/include/mbedtls\ssl_internal.h **** #define MBEDTLS_TLS_EXT_ECJPAKE_KKPP_OK                 (1 << 1)
 238:C:/Users/dtjld/workspace/AIoT/src/LiteOS_Lab/iot_link/network/dtls/mbedtls/mbedtls-2.16.2/include/mbedtls\ssl_internal.h **** 
 239:C:/Users/dtjld/workspace/AIoT/src/LiteOS_Lab/iot_link/network/dtls/mbedtls/mbedtls-2.16.2/include/mbedtls\ssl_internal.h **** #ifdef __cplusplus
 240:C:/Users/dtjld/workspace/AIoT/src/LiteOS_Lab/iot_link/network/dtls/mbedtls/mbedtls-2.16.2/include/mbedtls\ssl_internal.h **** extern "C" {
 241:C:/Users/dtjld/workspace/AIoT/src/LiteOS_Lab/iot_link/network/dtls/mbedtls/mbedtls-2.16.2/include/mbedtls\ssl_internal.h **** #endif
 242:C:/Users/dtjld/workspace/AIoT/src/LiteOS_Lab/iot_link/network/dtls/mbedtls/mbedtls-2.16.2/include/mbedtls\ssl_internal.h **** 
ARM GAS  C:\Users\dtjld\AppData\Local\Temp\ccA8prOd.s 			page 21


 243:C:/Users/dtjld/workspace/AIoT/src/LiteOS_Lab/iot_link/network/dtls/mbedtls/mbedtls-2.16.2/include/mbedtls\ssl_internal.h **** #if defined(MBEDTLS_SSL_PROTO_TLS1_2) && \
 244:C:/Users/dtjld/workspace/AIoT/src/LiteOS_Lab/iot_link/network/dtls/mbedtls/mbedtls-2.16.2/include/mbedtls\ssl_internal.h ****     defined(MBEDTLS_KEY_EXCHANGE__WITH_CERT__ENABLED)
 245:C:/Users/dtjld/workspace/AIoT/src/LiteOS_Lab/iot_link/network/dtls/mbedtls/mbedtls-2.16.2/include/mbedtls\ssl_internal.h **** /*
 246:C:/Users/dtjld/workspace/AIoT/src/LiteOS_Lab/iot_link/network/dtls/mbedtls/mbedtls-2.16.2/include/mbedtls\ssl_internal.h ****  * Abstraction for a grid of allowed signature-hash-algorithm pairs.
 247:C:/Users/dtjld/workspace/AIoT/src/LiteOS_Lab/iot_link/network/dtls/mbedtls/mbedtls-2.16.2/include/mbedtls\ssl_internal.h ****  */
 248:C:/Users/dtjld/workspace/AIoT/src/LiteOS_Lab/iot_link/network/dtls/mbedtls/mbedtls-2.16.2/include/mbedtls\ssl_internal.h **** struct mbedtls_ssl_sig_hash_set_t
 249:C:/Users/dtjld/workspace/AIoT/src/LiteOS_Lab/iot_link/network/dtls/mbedtls/mbedtls-2.16.2/include/mbedtls\ssl_internal.h **** {
 250:C:/Users/dtjld/workspace/AIoT/src/LiteOS_Lab/iot_link/network/dtls/mbedtls/mbedtls-2.16.2/include/mbedtls\ssl_internal.h ****     /* At the moment, we only need to remember a single suitable
 251:C:/Users/dtjld/workspace/AIoT/src/LiteOS_Lab/iot_link/network/dtls/mbedtls/mbedtls-2.16.2/include/mbedtls\ssl_internal.h ****      * hash algorithm per signature algorithm. As long as that's
 252:C:/Users/dtjld/workspace/AIoT/src/LiteOS_Lab/iot_link/network/dtls/mbedtls/mbedtls-2.16.2/include/mbedtls\ssl_internal.h ****      * the case - and we don't need a general lookup function -
 253:C:/Users/dtjld/workspace/AIoT/src/LiteOS_Lab/iot_link/network/dtls/mbedtls/mbedtls-2.16.2/include/mbedtls\ssl_internal.h ****      * we can implement the sig-hash-set as a map from signatures
 254:C:/Users/dtjld/workspace/AIoT/src/LiteOS_Lab/iot_link/network/dtls/mbedtls/mbedtls-2.16.2/include/mbedtls\ssl_internal.h ****      * to hash algorithms. */
 255:C:/Users/dtjld/workspace/AIoT/src/LiteOS_Lab/iot_link/network/dtls/mbedtls/mbedtls-2.16.2/include/mbedtls\ssl_internal.h ****     mbedtls_md_type_t rsa;
 256:C:/Users/dtjld/workspace/AIoT/src/LiteOS_Lab/iot_link/network/dtls/mbedtls/mbedtls-2.16.2/include/mbedtls\ssl_internal.h ****     mbedtls_md_type_t ecdsa;
 257:C:/Users/dtjld/workspace/AIoT/src/LiteOS_Lab/iot_link/network/dtls/mbedtls/mbedtls-2.16.2/include/mbedtls\ssl_internal.h **** };
 258:C:/Users/dtjld/workspace/AIoT/src/LiteOS_Lab/iot_link/network/dtls/mbedtls/mbedtls-2.16.2/include/mbedtls\ssl_internal.h **** #endif /* MBEDTLS_SSL_PROTO_TLS1_2 &&
 259:C:/Users/dtjld/workspace/AIoT/src/LiteOS_Lab/iot_link/network/dtls/mbedtls/mbedtls-2.16.2/include/mbedtls\ssl_internal.h ****           MBEDTLS_KEY_EXCHANGE__WITH_CERT__ENABLED */
 260:C:/Users/dtjld/workspace/AIoT/src/LiteOS_Lab/iot_link/network/dtls/mbedtls/mbedtls-2.16.2/include/mbedtls\ssl_internal.h **** 
 261:C:/Users/dtjld/workspace/AIoT/src/LiteOS_Lab/iot_link/network/dtls/mbedtls/mbedtls-2.16.2/include/mbedtls\ssl_internal.h **** /*
 262:C:/Users/dtjld/workspace/AIoT/src/LiteOS_Lab/iot_link/network/dtls/mbedtls/mbedtls-2.16.2/include/mbedtls\ssl_internal.h ****  * This structure contains the parameters only needed during handshake.
 263:C:/Users/dtjld/workspace/AIoT/src/LiteOS_Lab/iot_link/network/dtls/mbedtls/mbedtls-2.16.2/include/mbedtls\ssl_internal.h ****  */
 264:C:/Users/dtjld/workspace/AIoT/src/LiteOS_Lab/iot_link/network/dtls/mbedtls/mbedtls-2.16.2/include/mbedtls\ssl_internal.h **** struct mbedtls_ssl_handshake_params
 265:C:/Users/dtjld/workspace/AIoT/src/LiteOS_Lab/iot_link/network/dtls/mbedtls/mbedtls-2.16.2/include/mbedtls\ssl_internal.h **** {
 266:C:/Users/dtjld/workspace/AIoT/src/LiteOS_Lab/iot_link/network/dtls/mbedtls/mbedtls-2.16.2/include/mbedtls\ssl_internal.h ****     /*
 267:C:/Users/dtjld/workspace/AIoT/src/LiteOS_Lab/iot_link/network/dtls/mbedtls/mbedtls-2.16.2/include/mbedtls\ssl_internal.h ****      * Handshake specific crypto variables
 268:C:/Users/dtjld/workspace/AIoT/src/LiteOS_Lab/iot_link/network/dtls/mbedtls/mbedtls-2.16.2/include/mbedtls\ssl_internal.h ****      */
 269:C:/Users/dtjld/workspace/AIoT/src/LiteOS_Lab/iot_link/network/dtls/mbedtls/mbedtls-2.16.2/include/mbedtls\ssl_internal.h **** 
 270:C:/Users/dtjld/workspace/AIoT/src/LiteOS_Lab/iot_link/network/dtls/mbedtls/mbedtls-2.16.2/include/mbedtls\ssl_internal.h **** #if defined(MBEDTLS_SSL_PROTO_TLS1_2) && \
 271:C:/Users/dtjld/workspace/AIoT/src/LiteOS_Lab/iot_link/network/dtls/mbedtls/mbedtls-2.16.2/include/mbedtls\ssl_internal.h ****     defined(MBEDTLS_KEY_EXCHANGE__WITH_CERT__ENABLED)
 272:C:/Users/dtjld/workspace/AIoT/src/LiteOS_Lab/iot_link/network/dtls/mbedtls/mbedtls-2.16.2/include/mbedtls\ssl_internal.h ****     mbedtls_ssl_sig_hash_set_t hash_algs;             /*!<  Set of suitable sig-hash pairs */
 273:C:/Users/dtjld/workspace/AIoT/src/LiteOS_Lab/iot_link/network/dtls/mbedtls/mbedtls-2.16.2/include/mbedtls\ssl_internal.h **** #endif
 274:C:/Users/dtjld/workspace/AIoT/src/LiteOS_Lab/iot_link/network/dtls/mbedtls/mbedtls-2.16.2/include/mbedtls\ssl_internal.h **** #if defined(MBEDTLS_DHM_C)
 275:C:/Users/dtjld/workspace/AIoT/src/LiteOS_Lab/iot_link/network/dtls/mbedtls/mbedtls-2.16.2/include/mbedtls\ssl_internal.h ****     mbedtls_dhm_context dhm_ctx;                /*!<  DHM key exchange        */
 276:C:/Users/dtjld/workspace/AIoT/src/LiteOS_Lab/iot_link/network/dtls/mbedtls/mbedtls-2.16.2/include/mbedtls\ssl_internal.h **** #endif
 277:C:/Users/dtjld/workspace/AIoT/src/LiteOS_Lab/iot_link/network/dtls/mbedtls/mbedtls-2.16.2/include/mbedtls\ssl_internal.h **** #if defined(MBEDTLS_ECDH_C)
 278:C:/Users/dtjld/workspace/AIoT/src/LiteOS_Lab/iot_link/network/dtls/mbedtls/mbedtls-2.16.2/include/mbedtls\ssl_internal.h ****     mbedtls_ecdh_context ecdh_ctx;              /*!<  ECDH key exchange       */
 279:C:/Users/dtjld/workspace/AIoT/src/LiteOS_Lab/iot_link/network/dtls/mbedtls/mbedtls-2.16.2/include/mbedtls\ssl_internal.h **** #endif
 280:C:/Users/dtjld/workspace/AIoT/src/LiteOS_Lab/iot_link/network/dtls/mbedtls/mbedtls-2.16.2/include/mbedtls\ssl_internal.h **** #if defined(MBEDTLS_KEY_EXCHANGE_ECJPAKE_ENABLED)
 281:C:/Users/dtjld/workspace/AIoT/src/LiteOS_Lab/iot_link/network/dtls/mbedtls/mbedtls-2.16.2/include/mbedtls\ssl_internal.h ****     mbedtls_ecjpake_context ecjpake_ctx;        /*!< EC J-PAKE key exchange */
 282:C:/Users/dtjld/workspace/AIoT/src/LiteOS_Lab/iot_link/network/dtls/mbedtls/mbedtls-2.16.2/include/mbedtls\ssl_internal.h **** #if defined(MBEDTLS_SSL_CLI_C)
 283:C:/Users/dtjld/workspace/AIoT/src/LiteOS_Lab/iot_link/network/dtls/mbedtls/mbedtls-2.16.2/include/mbedtls\ssl_internal.h ****     unsigned char *ecjpake_cache;               /*!< Cache for ClientHello ext */
 284:C:/Users/dtjld/workspace/AIoT/src/LiteOS_Lab/iot_link/network/dtls/mbedtls/mbedtls-2.16.2/include/mbedtls\ssl_internal.h ****     size_t ecjpake_cache_len;                   /*!< Length of cached data */
 285:C:/Users/dtjld/workspace/AIoT/src/LiteOS_Lab/iot_link/network/dtls/mbedtls/mbedtls-2.16.2/include/mbedtls\ssl_internal.h **** #endif
 286:C:/Users/dtjld/workspace/AIoT/src/LiteOS_Lab/iot_link/network/dtls/mbedtls/mbedtls-2.16.2/include/mbedtls\ssl_internal.h **** #endif /* MBEDTLS_KEY_EXCHANGE_ECJPAKE_ENABLED */
 287:C:/Users/dtjld/workspace/AIoT/src/LiteOS_Lab/iot_link/network/dtls/mbedtls/mbedtls-2.16.2/include/mbedtls\ssl_internal.h **** #if defined(MBEDTLS_ECDH_C) || defined(MBEDTLS_ECDSA_C) || \
 288:C:/Users/dtjld/workspace/AIoT/src/LiteOS_Lab/iot_link/network/dtls/mbedtls/mbedtls-2.16.2/include/mbedtls\ssl_internal.h ****     defined(MBEDTLS_KEY_EXCHANGE_ECJPAKE_ENABLED)
 289:C:/Users/dtjld/workspace/AIoT/src/LiteOS_Lab/iot_link/network/dtls/mbedtls/mbedtls-2.16.2/include/mbedtls\ssl_internal.h ****     const mbedtls_ecp_curve_info **curves;      /*!<  Supported elliptic curves */
 290:C:/Users/dtjld/workspace/AIoT/src/LiteOS_Lab/iot_link/network/dtls/mbedtls/mbedtls-2.16.2/include/mbedtls\ssl_internal.h **** #endif
 291:C:/Users/dtjld/workspace/AIoT/src/LiteOS_Lab/iot_link/network/dtls/mbedtls/mbedtls-2.16.2/include/mbedtls\ssl_internal.h **** #if defined(MBEDTLS_KEY_EXCHANGE__SOME__PSK_ENABLED)
 292:C:/Users/dtjld/workspace/AIoT/src/LiteOS_Lab/iot_link/network/dtls/mbedtls/mbedtls-2.16.2/include/mbedtls\ssl_internal.h ****     unsigned char *psk;                 /*!<  PSK from the callback         */
 293:C:/Users/dtjld/workspace/AIoT/src/LiteOS_Lab/iot_link/network/dtls/mbedtls/mbedtls-2.16.2/include/mbedtls\ssl_internal.h ****     size_t psk_len;                     /*!<  Length of PSK from callback   */
 294:C:/Users/dtjld/workspace/AIoT/src/LiteOS_Lab/iot_link/network/dtls/mbedtls/mbedtls-2.16.2/include/mbedtls\ssl_internal.h **** #endif
 295:C:/Users/dtjld/workspace/AIoT/src/LiteOS_Lab/iot_link/network/dtls/mbedtls/mbedtls-2.16.2/include/mbedtls\ssl_internal.h **** #if defined(MBEDTLS_X509_CRT_PARSE_C)
 296:C:/Users/dtjld/workspace/AIoT/src/LiteOS_Lab/iot_link/network/dtls/mbedtls/mbedtls-2.16.2/include/mbedtls\ssl_internal.h ****     mbedtls_ssl_key_cert *key_cert;     /*!< chosen key/cert pair (server)  */
 297:C:/Users/dtjld/workspace/AIoT/src/LiteOS_Lab/iot_link/network/dtls/mbedtls/mbedtls-2.16.2/include/mbedtls\ssl_internal.h **** #if defined(MBEDTLS_SSL_SERVER_NAME_INDICATION)
 298:C:/Users/dtjld/workspace/AIoT/src/LiteOS_Lab/iot_link/network/dtls/mbedtls/mbedtls-2.16.2/include/mbedtls\ssl_internal.h ****     int sni_authmode;                   /*!< authmode from SNI callback     */
 299:C:/Users/dtjld/workspace/AIoT/src/LiteOS_Lab/iot_link/network/dtls/mbedtls/mbedtls-2.16.2/include/mbedtls\ssl_internal.h ****     mbedtls_ssl_key_cert *sni_key_cert; /*!< key/cert list from SNI         */
ARM GAS  C:\Users\dtjld\AppData\Local\Temp\ccA8prOd.s 			page 22


 300:C:/Users/dtjld/workspace/AIoT/src/LiteOS_Lab/iot_link/network/dtls/mbedtls/mbedtls-2.16.2/include/mbedtls\ssl_internal.h ****     mbedtls_x509_crt *sni_ca_chain;     /*!< trusted CAs from SNI callback  */
 301:C:/Users/dtjld/workspace/AIoT/src/LiteOS_Lab/iot_link/network/dtls/mbedtls/mbedtls-2.16.2/include/mbedtls\ssl_internal.h ****     mbedtls_x509_crl *sni_ca_crl;       /*!< trusted CAs CRLs from SNI      */
 302:C:/Users/dtjld/workspace/AIoT/src/LiteOS_Lab/iot_link/network/dtls/mbedtls/mbedtls-2.16.2/include/mbedtls\ssl_internal.h **** #endif /* MBEDTLS_SSL_SERVER_NAME_INDICATION */
 303:C:/Users/dtjld/workspace/AIoT/src/LiteOS_Lab/iot_link/network/dtls/mbedtls/mbedtls-2.16.2/include/mbedtls\ssl_internal.h **** #endif /* MBEDTLS_X509_CRT_PARSE_C */
 304:C:/Users/dtjld/workspace/AIoT/src/LiteOS_Lab/iot_link/network/dtls/mbedtls/mbedtls-2.16.2/include/mbedtls\ssl_internal.h **** #if defined(MBEDTLS_SSL__ECP_RESTARTABLE)
 305:C:/Users/dtjld/workspace/AIoT/src/LiteOS_Lab/iot_link/network/dtls/mbedtls/mbedtls-2.16.2/include/mbedtls\ssl_internal.h ****     int ecrs_enabled;                   /*!< Handshake supports EC restart? */
 306:C:/Users/dtjld/workspace/AIoT/src/LiteOS_Lab/iot_link/network/dtls/mbedtls/mbedtls-2.16.2/include/mbedtls\ssl_internal.h ****     mbedtls_x509_crt_restart_ctx ecrs_ctx;  /*!< restart context            */
 307:C:/Users/dtjld/workspace/AIoT/src/LiteOS_Lab/iot_link/network/dtls/mbedtls/mbedtls-2.16.2/include/mbedtls\ssl_internal.h ****     enum { /* this complements ssl->state with info on intra-state operations */
 308:C:/Users/dtjld/workspace/AIoT/src/LiteOS_Lab/iot_link/network/dtls/mbedtls/mbedtls-2.16.2/include/mbedtls\ssl_internal.h ****         ssl_ecrs_none = 0,              /*!< nothing going on (yet)         */
 309:C:/Users/dtjld/workspace/AIoT/src/LiteOS_Lab/iot_link/network/dtls/mbedtls/mbedtls-2.16.2/include/mbedtls\ssl_internal.h ****         ssl_ecrs_crt_verify,            /*!< Certificate: crt_verify()      */
 310:C:/Users/dtjld/workspace/AIoT/src/LiteOS_Lab/iot_link/network/dtls/mbedtls/mbedtls-2.16.2/include/mbedtls\ssl_internal.h ****         ssl_ecrs_ske_start_processing,  /*!< ServerKeyExchange: pk_verify() */
 311:C:/Users/dtjld/workspace/AIoT/src/LiteOS_Lab/iot_link/network/dtls/mbedtls/mbedtls-2.16.2/include/mbedtls\ssl_internal.h ****         ssl_ecrs_cke_ecdh_calc_secret,  /*!< ClientKeyExchange: ECDH step 2 */
 312:C:/Users/dtjld/workspace/AIoT/src/LiteOS_Lab/iot_link/network/dtls/mbedtls/mbedtls-2.16.2/include/mbedtls\ssl_internal.h ****         ssl_ecrs_crt_vrfy_sign,         /*!< CertificateVerify: pk_sign()   */
 313:C:/Users/dtjld/workspace/AIoT/src/LiteOS_Lab/iot_link/network/dtls/mbedtls/mbedtls-2.16.2/include/mbedtls\ssl_internal.h ****     } ecrs_state;                       /*!< current (or last) operation    */
 314:C:/Users/dtjld/workspace/AIoT/src/LiteOS_Lab/iot_link/network/dtls/mbedtls/mbedtls-2.16.2/include/mbedtls\ssl_internal.h ****     size_t ecrs_n;                      /*!< place for saving a length      */
 315:C:/Users/dtjld/workspace/AIoT/src/LiteOS_Lab/iot_link/network/dtls/mbedtls/mbedtls-2.16.2/include/mbedtls\ssl_internal.h **** #endif
 316:C:/Users/dtjld/workspace/AIoT/src/LiteOS_Lab/iot_link/network/dtls/mbedtls/mbedtls-2.16.2/include/mbedtls\ssl_internal.h **** #if defined(MBEDTLS_SSL_PROTO_DTLS)
 317:C:/Users/dtjld/workspace/AIoT/src/LiteOS_Lab/iot_link/network/dtls/mbedtls/mbedtls-2.16.2/include/mbedtls\ssl_internal.h ****     unsigned int out_msg_seq;           /*!<  Outgoing handshake sequence number */
 318:C:/Users/dtjld/workspace/AIoT/src/LiteOS_Lab/iot_link/network/dtls/mbedtls/mbedtls-2.16.2/include/mbedtls\ssl_internal.h ****     unsigned int in_msg_seq;            /*!<  Incoming handshake sequence number */
 319:C:/Users/dtjld/workspace/AIoT/src/LiteOS_Lab/iot_link/network/dtls/mbedtls/mbedtls-2.16.2/include/mbedtls\ssl_internal.h **** 
 320:C:/Users/dtjld/workspace/AIoT/src/LiteOS_Lab/iot_link/network/dtls/mbedtls/mbedtls-2.16.2/include/mbedtls\ssl_internal.h ****     unsigned char *verify_cookie;       /*!<  Cli: HelloVerifyRequest cookie
 321:C:/Users/dtjld/workspace/AIoT/src/LiteOS_Lab/iot_link/network/dtls/mbedtls/mbedtls-2.16.2/include/mbedtls\ssl_internal.h ****                                               Srv: unused                    */
 322:C:/Users/dtjld/workspace/AIoT/src/LiteOS_Lab/iot_link/network/dtls/mbedtls/mbedtls-2.16.2/include/mbedtls\ssl_internal.h ****     unsigned char verify_cookie_len;    /*!<  Cli: cookie length
 323:C:/Users/dtjld/workspace/AIoT/src/LiteOS_Lab/iot_link/network/dtls/mbedtls/mbedtls-2.16.2/include/mbedtls\ssl_internal.h ****                                               Srv: flag for sending a cookie */
 324:C:/Users/dtjld/workspace/AIoT/src/LiteOS_Lab/iot_link/network/dtls/mbedtls/mbedtls-2.16.2/include/mbedtls\ssl_internal.h **** 
 325:C:/Users/dtjld/workspace/AIoT/src/LiteOS_Lab/iot_link/network/dtls/mbedtls/mbedtls-2.16.2/include/mbedtls\ssl_internal.h ****     uint32_t retransmit_timeout;        /*!<  Current value of timeout       */
 326:C:/Users/dtjld/workspace/AIoT/src/LiteOS_Lab/iot_link/network/dtls/mbedtls/mbedtls-2.16.2/include/mbedtls\ssl_internal.h ****     unsigned char retransmit_state;     /*!<  Retransmission state           */
 327:C:/Users/dtjld/workspace/AIoT/src/LiteOS_Lab/iot_link/network/dtls/mbedtls/mbedtls-2.16.2/include/mbedtls\ssl_internal.h ****     mbedtls_ssl_flight_item *flight;    /*!<  Current outgoing flight        */
 328:C:/Users/dtjld/workspace/AIoT/src/LiteOS_Lab/iot_link/network/dtls/mbedtls/mbedtls-2.16.2/include/mbedtls\ssl_internal.h ****     mbedtls_ssl_flight_item *cur_msg;   /*!<  Current message in flight      */
 329:C:/Users/dtjld/workspace/AIoT/src/LiteOS_Lab/iot_link/network/dtls/mbedtls/mbedtls-2.16.2/include/mbedtls\ssl_internal.h ****     unsigned char *cur_msg_p;           /*!<  Position in current message    */
 330:C:/Users/dtjld/workspace/AIoT/src/LiteOS_Lab/iot_link/network/dtls/mbedtls/mbedtls-2.16.2/include/mbedtls\ssl_internal.h ****     unsigned int in_flight_start_seq;   /*!<  Minimum message sequence in the
 331:C:/Users/dtjld/workspace/AIoT/src/LiteOS_Lab/iot_link/network/dtls/mbedtls/mbedtls-2.16.2/include/mbedtls\ssl_internal.h ****                                               flight being received          */
 332:C:/Users/dtjld/workspace/AIoT/src/LiteOS_Lab/iot_link/network/dtls/mbedtls/mbedtls-2.16.2/include/mbedtls\ssl_internal.h ****     mbedtls_ssl_transform *alt_transform_out;   /*!<  Alternative transform for
 333:C:/Users/dtjld/workspace/AIoT/src/LiteOS_Lab/iot_link/network/dtls/mbedtls/mbedtls-2.16.2/include/mbedtls\ssl_internal.h ****                                               resending messages             */
 334:C:/Users/dtjld/workspace/AIoT/src/LiteOS_Lab/iot_link/network/dtls/mbedtls/mbedtls-2.16.2/include/mbedtls\ssl_internal.h ****     unsigned char alt_out_ctr[8];       /*!<  Alternative record epoch/counter
 335:C:/Users/dtjld/workspace/AIoT/src/LiteOS_Lab/iot_link/network/dtls/mbedtls/mbedtls-2.16.2/include/mbedtls\ssl_internal.h ****                                               for resending messages         */
 336:C:/Users/dtjld/workspace/AIoT/src/LiteOS_Lab/iot_link/network/dtls/mbedtls/mbedtls-2.16.2/include/mbedtls\ssl_internal.h **** 
 337:C:/Users/dtjld/workspace/AIoT/src/LiteOS_Lab/iot_link/network/dtls/mbedtls/mbedtls-2.16.2/include/mbedtls\ssl_internal.h ****     struct
 338:C:/Users/dtjld/workspace/AIoT/src/LiteOS_Lab/iot_link/network/dtls/mbedtls/mbedtls-2.16.2/include/mbedtls\ssl_internal.h ****     {
 339:C:/Users/dtjld/workspace/AIoT/src/LiteOS_Lab/iot_link/network/dtls/mbedtls/mbedtls-2.16.2/include/mbedtls\ssl_internal.h ****         size_t total_bytes_buffered; /*!< Cumulative size of heap allocated
 340:C:/Users/dtjld/workspace/AIoT/src/LiteOS_Lab/iot_link/network/dtls/mbedtls/mbedtls-2.16.2/include/mbedtls\ssl_internal.h ****                                       *   buffers used for message buffering. */
 341:C:/Users/dtjld/workspace/AIoT/src/LiteOS_Lab/iot_link/network/dtls/mbedtls/mbedtls-2.16.2/include/mbedtls\ssl_internal.h **** 
 342:C:/Users/dtjld/workspace/AIoT/src/LiteOS_Lab/iot_link/network/dtls/mbedtls/mbedtls-2.16.2/include/mbedtls\ssl_internal.h ****         uint8_t seen_ccs;               /*!< Indicates if a CCS message has
 343:C:/Users/dtjld/workspace/AIoT/src/LiteOS_Lab/iot_link/network/dtls/mbedtls/mbedtls-2.16.2/include/mbedtls\ssl_internal.h ****                                          *   been seen in the current flight. */
 344:C:/Users/dtjld/workspace/AIoT/src/LiteOS_Lab/iot_link/network/dtls/mbedtls/mbedtls-2.16.2/include/mbedtls\ssl_internal.h **** 
 345:C:/Users/dtjld/workspace/AIoT/src/LiteOS_Lab/iot_link/network/dtls/mbedtls/mbedtls-2.16.2/include/mbedtls\ssl_internal.h ****         struct mbedtls_ssl_hs_buffer
 346:C:/Users/dtjld/workspace/AIoT/src/LiteOS_Lab/iot_link/network/dtls/mbedtls/mbedtls-2.16.2/include/mbedtls\ssl_internal.h ****         {
 347:C:/Users/dtjld/workspace/AIoT/src/LiteOS_Lab/iot_link/network/dtls/mbedtls/mbedtls-2.16.2/include/mbedtls\ssl_internal.h ****             unsigned is_valid      : 1;
 348:C:/Users/dtjld/workspace/AIoT/src/LiteOS_Lab/iot_link/network/dtls/mbedtls/mbedtls-2.16.2/include/mbedtls\ssl_internal.h ****             unsigned is_fragmented : 1;
 349:C:/Users/dtjld/workspace/AIoT/src/LiteOS_Lab/iot_link/network/dtls/mbedtls/mbedtls-2.16.2/include/mbedtls\ssl_internal.h ****             unsigned is_complete   : 1;
 350:C:/Users/dtjld/workspace/AIoT/src/LiteOS_Lab/iot_link/network/dtls/mbedtls/mbedtls-2.16.2/include/mbedtls\ssl_internal.h ****             unsigned char *data;
 351:C:/Users/dtjld/workspace/AIoT/src/LiteOS_Lab/iot_link/network/dtls/mbedtls/mbedtls-2.16.2/include/mbedtls\ssl_internal.h ****             size_t data_len;
 352:C:/Users/dtjld/workspace/AIoT/src/LiteOS_Lab/iot_link/network/dtls/mbedtls/mbedtls-2.16.2/include/mbedtls\ssl_internal.h ****         } hs[MBEDTLS_SSL_MAX_BUFFERED_HS];
 353:C:/Users/dtjld/workspace/AIoT/src/LiteOS_Lab/iot_link/network/dtls/mbedtls/mbedtls-2.16.2/include/mbedtls\ssl_internal.h **** 
 354:C:/Users/dtjld/workspace/AIoT/src/LiteOS_Lab/iot_link/network/dtls/mbedtls/mbedtls-2.16.2/include/mbedtls\ssl_internal.h ****         struct
 355:C:/Users/dtjld/workspace/AIoT/src/LiteOS_Lab/iot_link/network/dtls/mbedtls/mbedtls-2.16.2/include/mbedtls\ssl_internal.h ****         {
 356:C:/Users/dtjld/workspace/AIoT/src/LiteOS_Lab/iot_link/network/dtls/mbedtls/mbedtls-2.16.2/include/mbedtls\ssl_internal.h ****             unsigned char *data;
ARM GAS  C:\Users\dtjld\AppData\Local\Temp\ccA8prOd.s 			page 23


 357:C:/Users/dtjld/workspace/AIoT/src/LiteOS_Lab/iot_link/network/dtls/mbedtls/mbedtls-2.16.2/include/mbedtls\ssl_internal.h ****             size_t len;
 358:C:/Users/dtjld/workspace/AIoT/src/LiteOS_Lab/iot_link/network/dtls/mbedtls/mbedtls-2.16.2/include/mbedtls\ssl_internal.h ****             unsigned epoch;
 359:C:/Users/dtjld/workspace/AIoT/src/LiteOS_Lab/iot_link/network/dtls/mbedtls/mbedtls-2.16.2/include/mbedtls\ssl_internal.h ****         } future_record;
 360:C:/Users/dtjld/workspace/AIoT/src/LiteOS_Lab/iot_link/network/dtls/mbedtls/mbedtls-2.16.2/include/mbedtls\ssl_internal.h **** 
 361:C:/Users/dtjld/workspace/AIoT/src/LiteOS_Lab/iot_link/network/dtls/mbedtls/mbedtls-2.16.2/include/mbedtls\ssl_internal.h ****     } buffering;
 362:C:/Users/dtjld/workspace/AIoT/src/LiteOS_Lab/iot_link/network/dtls/mbedtls/mbedtls-2.16.2/include/mbedtls\ssl_internal.h **** 
 363:C:/Users/dtjld/workspace/AIoT/src/LiteOS_Lab/iot_link/network/dtls/mbedtls/mbedtls-2.16.2/include/mbedtls\ssl_internal.h ****     uint16_t mtu;                       /*!<  Handshake mtu, used to fragment outgoing messages */
 364:C:/Users/dtjld/workspace/AIoT/src/LiteOS_Lab/iot_link/network/dtls/mbedtls/mbedtls-2.16.2/include/mbedtls\ssl_internal.h **** #endif /* MBEDTLS_SSL_PROTO_DTLS */
 365:C:/Users/dtjld/workspace/AIoT/src/LiteOS_Lab/iot_link/network/dtls/mbedtls/mbedtls-2.16.2/include/mbedtls\ssl_internal.h **** 
 366:C:/Users/dtjld/workspace/AIoT/src/LiteOS_Lab/iot_link/network/dtls/mbedtls/mbedtls-2.16.2/include/mbedtls\ssl_internal.h ****     /*
 367:C:/Users/dtjld/workspace/AIoT/src/LiteOS_Lab/iot_link/network/dtls/mbedtls/mbedtls-2.16.2/include/mbedtls\ssl_internal.h ****      * Checksum contexts
 368:C:/Users/dtjld/workspace/AIoT/src/LiteOS_Lab/iot_link/network/dtls/mbedtls/mbedtls-2.16.2/include/mbedtls\ssl_internal.h ****      */
 369:C:/Users/dtjld/workspace/AIoT/src/LiteOS_Lab/iot_link/network/dtls/mbedtls/mbedtls-2.16.2/include/mbedtls\ssl_internal.h **** #if defined(MBEDTLS_SSL_PROTO_SSL3) || defined(MBEDTLS_SSL_PROTO_TLS1) || \
 370:C:/Users/dtjld/workspace/AIoT/src/LiteOS_Lab/iot_link/network/dtls/mbedtls/mbedtls-2.16.2/include/mbedtls\ssl_internal.h ****     defined(MBEDTLS_SSL_PROTO_TLS1_1)
 371:C:/Users/dtjld/workspace/AIoT/src/LiteOS_Lab/iot_link/network/dtls/mbedtls/mbedtls-2.16.2/include/mbedtls\ssl_internal.h ****        mbedtls_md5_context fin_md5;
 372:C:/Users/dtjld/workspace/AIoT/src/LiteOS_Lab/iot_link/network/dtls/mbedtls/mbedtls-2.16.2/include/mbedtls\ssl_internal.h ****       mbedtls_sha1_context fin_sha1;
 373:C:/Users/dtjld/workspace/AIoT/src/LiteOS_Lab/iot_link/network/dtls/mbedtls/mbedtls-2.16.2/include/mbedtls\ssl_internal.h **** #endif
 374:C:/Users/dtjld/workspace/AIoT/src/LiteOS_Lab/iot_link/network/dtls/mbedtls/mbedtls-2.16.2/include/mbedtls\ssl_internal.h **** #if defined(MBEDTLS_SSL_PROTO_TLS1_2)
 375:C:/Users/dtjld/workspace/AIoT/src/LiteOS_Lab/iot_link/network/dtls/mbedtls/mbedtls-2.16.2/include/mbedtls\ssl_internal.h **** #if defined(MBEDTLS_SHA256_C)
 376:C:/Users/dtjld/workspace/AIoT/src/LiteOS_Lab/iot_link/network/dtls/mbedtls/mbedtls-2.16.2/include/mbedtls\ssl_internal.h ****     mbedtls_sha256_context fin_sha256;
 377:C:/Users/dtjld/workspace/AIoT/src/LiteOS_Lab/iot_link/network/dtls/mbedtls/mbedtls-2.16.2/include/mbedtls\ssl_internal.h **** #endif
 378:C:/Users/dtjld/workspace/AIoT/src/LiteOS_Lab/iot_link/network/dtls/mbedtls/mbedtls-2.16.2/include/mbedtls\ssl_internal.h **** #if defined(MBEDTLS_SHA512_C)
 379:C:/Users/dtjld/workspace/AIoT/src/LiteOS_Lab/iot_link/network/dtls/mbedtls/mbedtls-2.16.2/include/mbedtls\ssl_internal.h ****     mbedtls_sha512_context fin_sha512;
 380:C:/Users/dtjld/workspace/AIoT/src/LiteOS_Lab/iot_link/network/dtls/mbedtls/mbedtls-2.16.2/include/mbedtls\ssl_internal.h **** #endif
 381:C:/Users/dtjld/workspace/AIoT/src/LiteOS_Lab/iot_link/network/dtls/mbedtls/mbedtls-2.16.2/include/mbedtls\ssl_internal.h **** #endif /* MBEDTLS_SSL_PROTO_TLS1_2 */
 382:C:/Users/dtjld/workspace/AIoT/src/LiteOS_Lab/iot_link/network/dtls/mbedtls/mbedtls-2.16.2/include/mbedtls\ssl_internal.h **** 
 383:C:/Users/dtjld/workspace/AIoT/src/LiteOS_Lab/iot_link/network/dtls/mbedtls/mbedtls-2.16.2/include/mbedtls\ssl_internal.h ****     void (*update_checksum)(mbedtls_ssl_context *, const unsigned char *, size_t);
 384:C:/Users/dtjld/workspace/AIoT/src/LiteOS_Lab/iot_link/network/dtls/mbedtls/mbedtls-2.16.2/include/mbedtls\ssl_internal.h ****     void (*calc_verify)(mbedtls_ssl_context *, unsigned char *);
 385:C:/Users/dtjld/workspace/AIoT/src/LiteOS_Lab/iot_link/network/dtls/mbedtls/mbedtls-2.16.2/include/mbedtls\ssl_internal.h ****     void (*calc_finished)(mbedtls_ssl_context *, unsigned char *, int);
 386:C:/Users/dtjld/workspace/AIoT/src/LiteOS_Lab/iot_link/network/dtls/mbedtls/mbedtls-2.16.2/include/mbedtls\ssl_internal.h ****     int  (*tls_prf)(const unsigned char *, size_t, const char *,
 387:C:/Users/dtjld/workspace/AIoT/src/LiteOS_Lab/iot_link/network/dtls/mbedtls/mbedtls-2.16.2/include/mbedtls\ssl_internal.h ****                     const unsigned char *, size_t,
 388:C:/Users/dtjld/workspace/AIoT/src/LiteOS_Lab/iot_link/network/dtls/mbedtls/mbedtls-2.16.2/include/mbedtls\ssl_internal.h ****                     unsigned char *, size_t);
 389:C:/Users/dtjld/workspace/AIoT/src/LiteOS_Lab/iot_link/network/dtls/mbedtls/mbedtls-2.16.2/include/mbedtls\ssl_internal.h **** 
 390:C:/Users/dtjld/workspace/AIoT/src/LiteOS_Lab/iot_link/network/dtls/mbedtls/mbedtls-2.16.2/include/mbedtls\ssl_internal.h ****     size_t pmslen;                      /*!<  premaster length        */
 391:C:/Users/dtjld/workspace/AIoT/src/LiteOS_Lab/iot_link/network/dtls/mbedtls/mbedtls-2.16.2/include/mbedtls\ssl_internal.h **** 
 392:C:/Users/dtjld/workspace/AIoT/src/LiteOS_Lab/iot_link/network/dtls/mbedtls/mbedtls-2.16.2/include/mbedtls\ssl_internal.h ****     unsigned char randbytes[64];        /*!<  random bytes            */
 393:C:/Users/dtjld/workspace/AIoT/src/LiteOS_Lab/iot_link/network/dtls/mbedtls/mbedtls-2.16.2/include/mbedtls\ssl_internal.h ****     unsigned char premaster[MBEDTLS_PREMASTER_SIZE];
 394:C:/Users/dtjld/workspace/AIoT/src/LiteOS_Lab/iot_link/network/dtls/mbedtls/mbedtls-2.16.2/include/mbedtls\ssl_internal.h ****                                         /*!<  premaster secret        */
 395:C:/Users/dtjld/workspace/AIoT/src/LiteOS_Lab/iot_link/network/dtls/mbedtls/mbedtls-2.16.2/include/mbedtls\ssl_internal.h **** 
 396:C:/Users/dtjld/workspace/AIoT/src/LiteOS_Lab/iot_link/network/dtls/mbedtls/mbedtls-2.16.2/include/mbedtls\ssl_internal.h ****     int resume;                         /*!<  session resume indicator*/
 397:C:/Users/dtjld/workspace/AIoT/src/LiteOS_Lab/iot_link/network/dtls/mbedtls/mbedtls-2.16.2/include/mbedtls\ssl_internal.h ****     int max_major_ver;                  /*!< max. major version client*/
 398:C:/Users/dtjld/workspace/AIoT/src/LiteOS_Lab/iot_link/network/dtls/mbedtls/mbedtls-2.16.2/include/mbedtls\ssl_internal.h ****     int max_minor_ver;                  /*!< max. minor version client*/
 399:C:/Users/dtjld/workspace/AIoT/src/LiteOS_Lab/iot_link/network/dtls/mbedtls/mbedtls-2.16.2/include/mbedtls\ssl_internal.h ****     int cli_exts;                       /*!< client extension presence*/
 400:C:/Users/dtjld/workspace/AIoT/src/LiteOS_Lab/iot_link/network/dtls/mbedtls/mbedtls-2.16.2/include/mbedtls\ssl_internal.h **** 
 401:C:/Users/dtjld/workspace/AIoT/src/LiteOS_Lab/iot_link/network/dtls/mbedtls/mbedtls-2.16.2/include/mbedtls\ssl_internal.h **** #if defined(MBEDTLS_SSL_SESSION_TICKETS)
 402:C:/Users/dtjld/workspace/AIoT/src/LiteOS_Lab/iot_link/network/dtls/mbedtls/mbedtls-2.16.2/include/mbedtls\ssl_internal.h ****     int new_session_ticket;             /*!< use NewSessionTicket?    */
 403:C:/Users/dtjld/workspace/AIoT/src/LiteOS_Lab/iot_link/network/dtls/mbedtls/mbedtls-2.16.2/include/mbedtls\ssl_internal.h **** #endif /* MBEDTLS_SSL_SESSION_TICKETS */
 404:C:/Users/dtjld/workspace/AIoT/src/LiteOS_Lab/iot_link/network/dtls/mbedtls/mbedtls-2.16.2/include/mbedtls\ssl_internal.h **** #if defined(MBEDTLS_SSL_EXTENDED_MASTER_SECRET)
 405:C:/Users/dtjld/workspace/AIoT/src/LiteOS_Lab/iot_link/network/dtls/mbedtls/mbedtls-2.16.2/include/mbedtls\ssl_internal.h ****     int extended_ms;                    /*!< use Extended Master Secret? */
 406:C:/Users/dtjld/workspace/AIoT/src/LiteOS_Lab/iot_link/network/dtls/mbedtls/mbedtls-2.16.2/include/mbedtls\ssl_internal.h **** #endif
 407:C:/Users/dtjld/workspace/AIoT/src/LiteOS_Lab/iot_link/network/dtls/mbedtls/mbedtls-2.16.2/include/mbedtls\ssl_internal.h **** 
 408:C:/Users/dtjld/workspace/AIoT/src/LiteOS_Lab/iot_link/network/dtls/mbedtls/mbedtls-2.16.2/include/mbedtls\ssl_internal.h **** #if defined(MBEDTLS_SSL_ASYNC_PRIVATE)
 409:C:/Users/dtjld/workspace/AIoT/src/LiteOS_Lab/iot_link/network/dtls/mbedtls/mbedtls-2.16.2/include/mbedtls\ssl_internal.h ****     unsigned int async_in_progress : 1; /*!< an asynchronous operation is in progress */
 410:C:/Users/dtjld/workspace/AIoT/src/LiteOS_Lab/iot_link/network/dtls/mbedtls/mbedtls-2.16.2/include/mbedtls\ssl_internal.h **** #endif /* MBEDTLS_SSL_ASYNC_PRIVATE */
 411:C:/Users/dtjld/workspace/AIoT/src/LiteOS_Lab/iot_link/network/dtls/mbedtls/mbedtls-2.16.2/include/mbedtls\ssl_internal.h **** 
 412:C:/Users/dtjld/workspace/AIoT/src/LiteOS_Lab/iot_link/network/dtls/mbedtls/mbedtls-2.16.2/include/mbedtls\ssl_internal.h **** #if defined(MBEDTLS_SSL_ASYNC_PRIVATE)
 413:C:/Users/dtjld/workspace/AIoT/src/LiteOS_Lab/iot_link/network/dtls/mbedtls/mbedtls-2.16.2/include/mbedtls\ssl_internal.h ****     /** Asynchronous operation context. This field is meant for use by the
ARM GAS  C:\Users\dtjld\AppData\Local\Temp\ccA8prOd.s 			page 24


 414:C:/Users/dtjld/workspace/AIoT/src/LiteOS_Lab/iot_link/network/dtls/mbedtls/mbedtls-2.16.2/include/mbedtls\ssl_internal.h ****      * asynchronous operation callbacks (mbedtls_ssl_config::f_async_sign_start,
 415:C:/Users/dtjld/workspace/AIoT/src/LiteOS_Lab/iot_link/network/dtls/mbedtls/mbedtls-2.16.2/include/mbedtls\ssl_internal.h ****      * mbedtls_ssl_config::f_async_decrypt_start,
 416:C:/Users/dtjld/workspace/AIoT/src/LiteOS_Lab/iot_link/network/dtls/mbedtls/mbedtls-2.16.2/include/mbedtls\ssl_internal.h ****      * mbedtls_ssl_config::f_async_resume, mbedtls_ssl_config::f_async_cancel).
 417:C:/Users/dtjld/workspace/AIoT/src/LiteOS_Lab/iot_link/network/dtls/mbedtls/mbedtls-2.16.2/include/mbedtls\ssl_internal.h ****      * The library does not use it internally. */
 418:C:/Users/dtjld/workspace/AIoT/src/LiteOS_Lab/iot_link/network/dtls/mbedtls/mbedtls-2.16.2/include/mbedtls\ssl_internal.h ****     void *user_async_ctx;
 419:C:/Users/dtjld/workspace/AIoT/src/LiteOS_Lab/iot_link/network/dtls/mbedtls/mbedtls-2.16.2/include/mbedtls\ssl_internal.h **** #endif /* MBEDTLS_SSL_ASYNC_PRIVATE */
 420:C:/Users/dtjld/workspace/AIoT/src/LiteOS_Lab/iot_link/network/dtls/mbedtls/mbedtls-2.16.2/include/mbedtls\ssl_internal.h **** };
 421:C:/Users/dtjld/workspace/AIoT/src/LiteOS_Lab/iot_link/network/dtls/mbedtls/mbedtls-2.16.2/include/mbedtls\ssl_internal.h **** 
 422:C:/Users/dtjld/workspace/AIoT/src/LiteOS_Lab/iot_link/network/dtls/mbedtls/mbedtls-2.16.2/include/mbedtls\ssl_internal.h **** typedef struct mbedtls_ssl_hs_buffer mbedtls_ssl_hs_buffer;
 423:C:/Users/dtjld/workspace/AIoT/src/LiteOS_Lab/iot_link/network/dtls/mbedtls/mbedtls-2.16.2/include/mbedtls\ssl_internal.h **** 
 424:C:/Users/dtjld/workspace/AIoT/src/LiteOS_Lab/iot_link/network/dtls/mbedtls/mbedtls-2.16.2/include/mbedtls\ssl_internal.h **** /*
 425:C:/Users/dtjld/workspace/AIoT/src/LiteOS_Lab/iot_link/network/dtls/mbedtls/mbedtls-2.16.2/include/mbedtls\ssl_internal.h ****  * This structure contains a full set of runtime transform parameters
 426:C:/Users/dtjld/workspace/AIoT/src/LiteOS_Lab/iot_link/network/dtls/mbedtls/mbedtls-2.16.2/include/mbedtls\ssl_internal.h ****  * either in negotiation or active.
 427:C:/Users/dtjld/workspace/AIoT/src/LiteOS_Lab/iot_link/network/dtls/mbedtls/mbedtls-2.16.2/include/mbedtls\ssl_internal.h ****  */
 428:C:/Users/dtjld/workspace/AIoT/src/LiteOS_Lab/iot_link/network/dtls/mbedtls/mbedtls-2.16.2/include/mbedtls\ssl_internal.h **** struct mbedtls_ssl_transform
 429:C:/Users/dtjld/workspace/AIoT/src/LiteOS_Lab/iot_link/network/dtls/mbedtls/mbedtls-2.16.2/include/mbedtls\ssl_internal.h **** {
 430:C:/Users/dtjld/workspace/AIoT/src/LiteOS_Lab/iot_link/network/dtls/mbedtls/mbedtls-2.16.2/include/mbedtls\ssl_internal.h ****     /*
 431:C:/Users/dtjld/workspace/AIoT/src/LiteOS_Lab/iot_link/network/dtls/mbedtls/mbedtls-2.16.2/include/mbedtls\ssl_internal.h ****      * Session specific crypto layer
 432:C:/Users/dtjld/workspace/AIoT/src/LiteOS_Lab/iot_link/network/dtls/mbedtls/mbedtls-2.16.2/include/mbedtls\ssl_internal.h ****      */
 433:C:/Users/dtjld/workspace/AIoT/src/LiteOS_Lab/iot_link/network/dtls/mbedtls/mbedtls-2.16.2/include/mbedtls\ssl_internal.h ****     const mbedtls_ssl_ciphersuite_t *ciphersuite_info;
 434:C:/Users/dtjld/workspace/AIoT/src/LiteOS_Lab/iot_link/network/dtls/mbedtls/mbedtls-2.16.2/include/mbedtls\ssl_internal.h ****                                         /*!<  Chosen cipersuite_info  */
 435:C:/Users/dtjld/workspace/AIoT/src/LiteOS_Lab/iot_link/network/dtls/mbedtls/mbedtls-2.16.2/include/mbedtls\ssl_internal.h ****     unsigned int keylen;                /*!<  symmetric key length (bytes)  */
 436:C:/Users/dtjld/workspace/AIoT/src/LiteOS_Lab/iot_link/network/dtls/mbedtls/mbedtls-2.16.2/include/mbedtls\ssl_internal.h ****     size_t minlen;                      /*!<  min. ciphertext length  */
 437:C:/Users/dtjld/workspace/AIoT/src/LiteOS_Lab/iot_link/network/dtls/mbedtls/mbedtls-2.16.2/include/mbedtls\ssl_internal.h ****     size_t ivlen;                       /*!<  IV length               */
 438:C:/Users/dtjld/workspace/AIoT/src/LiteOS_Lab/iot_link/network/dtls/mbedtls/mbedtls-2.16.2/include/mbedtls\ssl_internal.h ****     size_t fixed_ivlen;                 /*!<  Fixed part of IV (AEAD) */
 439:C:/Users/dtjld/workspace/AIoT/src/LiteOS_Lab/iot_link/network/dtls/mbedtls/mbedtls-2.16.2/include/mbedtls\ssl_internal.h ****     size_t maclen;                      /*!<  MAC length              */
 440:C:/Users/dtjld/workspace/AIoT/src/LiteOS_Lab/iot_link/network/dtls/mbedtls/mbedtls-2.16.2/include/mbedtls\ssl_internal.h **** 
 441:C:/Users/dtjld/workspace/AIoT/src/LiteOS_Lab/iot_link/network/dtls/mbedtls/mbedtls-2.16.2/include/mbedtls\ssl_internal.h ****     unsigned char iv_enc[16];           /*!<  IV (encryption)         */
 442:C:/Users/dtjld/workspace/AIoT/src/LiteOS_Lab/iot_link/network/dtls/mbedtls/mbedtls-2.16.2/include/mbedtls\ssl_internal.h ****     unsigned char iv_dec[16];           /*!<  IV (decryption)         */
 443:C:/Users/dtjld/workspace/AIoT/src/LiteOS_Lab/iot_link/network/dtls/mbedtls/mbedtls-2.16.2/include/mbedtls\ssl_internal.h **** 
 444:C:/Users/dtjld/workspace/AIoT/src/LiteOS_Lab/iot_link/network/dtls/mbedtls/mbedtls-2.16.2/include/mbedtls\ssl_internal.h **** #if defined(MBEDTLS_SSL_PROTO_SSL3)
 445:C:/Users/dtjld/workspace/AIoT/src/LiteOS_Lab/iot_link/network/dtls/mbedtls/mbedtls-2.16.2/include/mbedtls\ssl_internal.h ****     /* Needed only for SSL v3.0 secret */
 446:C:/Users/dtjld/workspace/AIoT/src/LiteOS_Lab/iot_link/network/dtls/mbedtls/mbedtls-2.16.2/include/mbedtls\ssl_internal.h ****     unsigned char mac_enc[20];          /*!<  SSL v3.0 secret (enc)   */
 447:C:/Users/dtjld/workspace/AIoT/src/LiteOS_Lab/iot_link/network/dtls/mbedtls/mbedtls-2.16.2/include/mbedtls\ssl_internal.h ****     unsigned char mac_dec[20];          /*!<  SSL v3.0 secret (dec)   */
 448:C:/Users/dtjld/workspace/AIoT/src/LiteOS_Lab/iot_link/network/dtls/mbedtls/mbedtls-2.16.2/include/mbedtls\ssl_internal.h **** #endif /* MBEDTLS_SSL_PROTO_SSL3 */
 449:C:/Users/dtjld/workspace/AIoT/src/LiteOS_Lab/iot_link/network/dtls/mbedtls/mbedtls-2.16.2/include/mbedtls\ssl_internal.h **** 
 450:C:/Users/dtjld/workspace/AIoT/src/LiteOS_Lab/iot_link/network/dtls/mbedtls/mbedtls-2.16.2/include/mbedtls\ssl_internal.h ****     mbedtls_md_context_t md_ctx_enc;            /*!<  MAC (encryption)        */
 451:C:/Users/dtjld/workspace/AIoT/src/LiteOS_Lab/iot_link/network/dtls/mbedtls/mbedtls-2.16.2/include/mbedtls\ssl_internal.h ****     mbedtls_md_context_t md_ctx_dec;            /*!<  MAC (decryption)        */
 452:C:/Users/dtjld/workspace/AIoT/src/LiteOS_Lab/iot_link/network/dtls/mbedtls/mbedtls-2.16.2/include/mbedtls\ssl_internal.h **** 
 453:C:/Users/dtjld/workspace/AIoT/src/LiteOS_Lab/iot_link/network/dtls/mbedtls/mbedtls-2.16.2/include/mbedtls\ssl_internal.h ****     mbedtls_cipher_context_t cipher_ctx_enc;    /*!<  encryption context      */
 454:C:/Users/dtjld/workspace/AIoT/src/LiteOS_Lab/iot_link/network/dtls/mbedtls/mbedtls-2.16.2/include/mbedtls\ssl_internal.h ****     mbedtls_cipher_context_t cipher_ctx_dec;    /*!<  decryption context      */
 455:C:/Users/dtjld/workspace/AIoT/src/LiteOS_Lab/iot_link/network/dtls/mbedtls/mbedtls-2.16.2/include/mbedtls\ssl_internal.h **** 
 456:C:/Users/dtjld/workspace/AIoT/src/LiteOS_Lab/iot_link/network/dtls/mbedtls/mbedtls-2.16.2/include/mbedtls\ssl_internal.h ****     /*
 457:C:/Users/dtjld/workspace/AIoT/src/LiteOS_Lab/iot_link/network/dtls/mbedtls/mbedtls-2.16.2/include/mbedtls\ssl_internal.h ****      * Session specific compression layer
 458:C:/Users/dtjld/workspace/AIoT/src/LiteOS_Lab/iot_link/network/dtls/mbedtls/mbedtls-2.16.2/include/mbedtls\ssl_internal.h ****      */
 459:C:/Users/dtjld/workspace/AIoT/src/LiteOS_Lab/iot_link/network/dtls/mbedtls/mbedtls-2.16.2/include/mbedtls\ssl_internal.h **** #if defined(MBEDTLS_ZLIB_SUPPORT)
 460:C:/Users/dtjld/workspace/AIoT/src/LiteOS_Lab/iot_link/network/dtls/mbedtls/mbedtls-2.16.2/include/mbedtls\ssl_internal.h ****     z_stream ctx_deflate;               /*!<  compression context     */
 461:C:/Users/dtjld/workspace/AIoT/src/LiteOS_Lab/iot_link/network/dtls/mbedtls/mbedtls-2.16.2/include/mbedtls\ssl_internal.h ****     z_stream ctx_inflate;               /*!<  decompression context   */
 462:C:/Users/dtjld/workspace/AIoT/src/LiteOS_Lab/iot_link/network/dtls/mbedtls/mbedtls-2.16.2/include/mbedtls\ssl_internal.h **** #endif
 463:C:/Users/dtjld/workspace/AIoT/src/LiteOS_Lab/iot_link/network/dtls/mbedtls/mbedtls-2.16.2/include/mbedtls\ssl_internal.h **** };
 464:C:/Users/dtjld/workspace/AIoT/src/LiteOS_Lab/iot_link/network/dtls/mbedtls/mbedtls-2.16.2/include/mbedtls\ssl_internal.h **** 
 465:C:/Users/dtjld/workspace/AIoT/src/LiteOS_Lab/iot_link/network/dtls/mbedtls/mbedtls-2.16.2/include/mbedtls\ssl_internal.h **** #if defined(MBEDTLS_X509_CRT_PARSE_C)
 466:C:/Users/dtjld/workspace/AIoT/src/LiteOS_Lab/iot_link/network/dtls/mbedtls/mbedtls-2.16.2/include/mbedtls\ssl_internal.h **** /*
 467:C:/Users/dtjld/workspace/AIoT/src/LiteOS_Lab/iot_link/network/dtls/mbedtls/mbedtls-2.16.2/include/mbedtls\ssl_internal.h ****  * List of certificate + private key pairs
 468:C:/Users/dtjld/workspace/AIoT/src/LiteOS_Lab/iot_link/network/dtls/mbedtls/mbedtls-2.16.2/include/mbedtls\ssl_internal.h ****  */
 469:C:/Users/dtjld/workspace/AIoT/src/LiteOS_Lab/iot_link/network/dtls/mbedtls/mbedtls-2.16.2/include/mbedtls\ssl_internal.h **** struct mbedtls_ssl_key_cert
 470:C:/Users/dtjld/workspace/AIoT/src/LiteOS_Lab/iot_link/network/dtls/mbedtls/mbedtls-2.16.2/include/mbedtls\ssl_internal.h **** {
ARM GAS  C:\Users\dtjld\AppData\Local\Temp\ccA8prOd.s 			page 25


 471:C:/Users/dtjld/workspace/AIoT/src/LiteOS_Lab/iot_link/network/dtls/mbedtls/mbedtls-2.16.2/include/mbedtls\ssl_internal.h ****     mbedtls_x509_crt *cert;                 /*!< cert                       */
 472:C:/Users/dtjld/workspace/AIoT/src/LiteOS_Lab/iot_link/network/dtls/mbedtls/mbedtls-2.16.2/include/mbedtls\ssl_internal.h ****     mbedtls_pk_context *key;                /*!< private key                */
 473:C:/Users/dtjld/workspace/AIoT/src/LiteOS_Lab/iot_link/network/dtls/mbedtls/mbedtls-2.16.2/include/mbedtls\ssl_internal.h ****     mbedtls_ssl_key_cert *next;             /*!< next key/cert pair         */
 474:C:/Users/dtjld/workspace/AIoT/src/LiteOS_Lab/iot_link/network/dtls/mbedtls/mbedtls-2.16.2/include/mbedtls\ssl_internal.h **** };
 475:C:/Users/dtjld/workspace/AIoT/src/LiteOS_Lab/iot_link/network/dtls/mbedtls/mbedtls-2.16.2/include/mbedtls\ssl_internal.h **** #endif /* MBEDTLS_X509_CRT_PARSE_C */
 476:C:/Users/dtjld/workspace/AIoT/src/LiteOS_Lab/iot_link/network/dtls/mbedtls/mbedtls-2.16.2/include/mbedtls\ssl_internal.h **** 
 477:C:/Users/dtjld/workspace/AIoT/src/LiteOS_Lab/iot_link/network/dtls/mbedtls/mbedtls-2.16.2/include/mbedtls\ssl_internal.h **** #if defined(MBEDTLS_SSL_PROTO_DTLS)
 478:C:/Users/dtjld/workspace/AIoT/src/LiteOS_Lab/iot_link/network/dtls/mbedtls/mbedtls-2.16.2/include/mbedtls\ssl_internal.h **** /*
 479:C:/Users/dtjld/workspace/AIoT/src/LiteOS_Lab/iot_link/network/dtls/mbedtls/mbedtls-2.16.2/include/mbedtls\ssl_internal.h ****  * List of handshake messages kept around for resending
 480:C:/Users/dtjld/workspace/AIoT/src/LiteOS_Lab/iot_link/network/dtls/mbedtls/mbedtls-2.16.2/include/mbedtls\ssl_internal.h ****  */
 481:C:/Users/dtjld/workspace/AIoT/src/LiteOS_Lab/iot_link/network/dtls/mbedtls/mbedtls-2.16.2/include/mbedtls\ssl_internal.h **** struct mbedtls_ssl_flight_item
 482:C:/Users/dtjld/workspace/AIoT/src/LiteOS_Lab/iot_link/network/dtls/mbedtls/mbedtls-2.16.2/include/mbedtls\ssl_internal.h **** {
 483:C:/Users/dtjld/workspace/AIoT/src/LiteOS_Lab/iot_link/network/dtls/mbedtls/mbedtls-2.16.2/include/mbedtls\ssl_internal.h ****     unsigned char *p;       /*!< message, including handshake headers   */
 484:C:/Users/dtjld/workspace/AIoT/src/LiteOS_Lab/iot_link/network/dtls/mbedtls/mbedtls-2.16.2/include/mbedtls\ssl_internal.h ****     size_t len;             /*!< length of p                            */
 485:C:/Users/dtjld/workspace/AIoT/src/LiteOS_Lab/iot_link/network/dtls/mbedtls/mbedtls-2.16.2/include/mbedtls\ssl_internal.h ****     unsigned char type;     /*!< type of the message: handshake or CCS  */
 486:C:/Users/dtjld/workspace/AIoT/src/LiteOS_Lab/iot_link/network/dtls/mbedtls/mbedtls-2.16.2/include/mbedtls\ssl_internal.h ****     mbedtls_ssl_flight_item *next;  /*!< next handshake message(s)              */
 487:C:/Users/dtjld/workspace/AIoT/src/LiteOS_Lab/iot_link/network/dtls/mbedtls/mbedtls-2.16.2/include/mbedtls\ssl_internal.h **** };
 488:C:/Users/dtjld/workspace/AIoT/src/LiteOS_Lab/iot_link/network/dtls/mbedtls/mbedtls-2.16.2/include/mbedtls\ssl_internal.h **** #endif /* MBEDTLS_SSL_PROTO_DTLS */
 489:C:/Users/dtjld/workspace/AIoT/src/LiteOS_Lab/iot_link/network/dtls/mbedtls/mbedtls-2.16.2/include/mbedtls\ssl_internal.h **** 
 490:C:/Users/dtjld/workspace/AIoT/src/LiteOS_Lab/iot_link/network/dtls/mbedtls/mbedtls-2.16.2/include/mbedtls\ssl_internal.h **** #if defined(MBEDTLS_SSL_PROTO_TLS1_2) && \
 491:C:/Users/dtjld/workspace/AIoT/src/LiteOS_Lab/iot_link/network/dtls/mbedtls/mbedtls-2.16.2/include/mbedtls\ssl_internal.h ****     defined(MBEDTLS_KEY_EXCHANGE__WITH_CERT__ENABLED)
 492:C:/Users/dtjld/workspace/AIoT/src/LiteOS_Lab/iot_link/network/dtls/mbedtls/mbedtls-2.16.2/include/mbedtls\ssl_internal.h **** 
 493:C:/Users/dtjld/workspace/AIoT/src/LiteOS_Lab/iot_link/network/dtls/mbedtls/mbedtls-2.16.2/include/mbedtls\ssl_internal.h **** /* Find an entry in a signature-hash set matching a given hash algorithm. */
 494:C:/Users/dtjld/workspace/AIoT/src/LiteOS_Lab/iot_link/network/dtls/mbedtls/mbedtls-2.16.2/include/mbedtls\ssl_internal.h **** mbedtls_md_type_t mbedtls_ssl_sig_hash_set_find( mbedtls_ssl_sig_hash_set_t *set,
 495:C:/Users/dtjld/workspace/AIoT/src/LiteOS_Lab/iot_link/network/dtls/mbedtls/mbedtls-2.16.2/include/mbedtls\ssl_internal.h ****                                                  mbedtls_pk_type_t sig_alg );
 496:C:/Users/dtjld/workspace/AIoT/src/LiteOS_Lab/iot_link/network/dtls/mbedtls/mbedtls-2.16.2/include/mbedtls\ssl_internal.h **** /* Add a signature-hash-pair to a signature-hash set */
 497:C:/Users/dtjld/workspace/AIoT/src/LiteOS_Lab/iot_link/network/dtls/mbedtls/mbedtls-2.16.2/include/mbedtls\ssl_internal.h **** void mbedtls_ssl_sig_hash_set_add( mbedtls_ssl_sig_hash_set_t *set,
 498:C:/Users/dtjld/workspace/AIoT/src/LiteOS_Lab/iot_link/network/dtls/mbedtls/mbedtls-2.16.2/include/mbedtls\ssl_internal.h ****                                    mbedtls_pk_type_t sig_alg,
 499:C:/Users/dtjld/workspace/AIoT/src/LiteOS_Lab/iot_link/network/dtls/mbedtls/mbedtls-2.16.2/include/mbedtls\ssl_internal.h ****                                    mbedtls_md_type_t md_alg );
 500:C:/Users/dtjld/workspace/AIoT/src/LiteOS_Lab/iot_link/network/dtls/mbedtls/mbedtls-2.16.2/include/mbedtls\ssl_internal.h **** /* Allow exactly one hash algorithm for each signature. */
 501:C:/Users/dtjld/workspace/AIoT/src/LiteOS_Lab/iot_link/network/dtls/mbedtls/mbedtls-2.16.2/include/mbedtls\ssl_internal.h **** void mbedtls_ssl_sig_hash_set_const_hash( mbedtls_ssl_sig_hash_set_t *set,
 502:C:/Users/dtjld/workspace/AIoT/src/LiteOS_Lab/iot_link/network/dtls/mbedtls/mbedtls-2.16.2/include/mbedtls\ssl_internal.h ****                                           mbedtls_md_type_t md_alg );
 503:C:/Users/dtjld/workspace/AIoT/src/LiteOS_Lab/iot_link/network/dtls/mbedtls/mbedtls-2.16.2/include/mbedtls\ssl_internal.h **** 
 504:C:/Users/dtjld/workspace/AIoT/src/LiteOS_Lab/iot_link/network/dtls/mbedtls/mbedtls-2.16.2/include/mbedtls\ssl_internal.h **** /* Setup an empty signature-hash set */
 505:C:/Users/dtjld/workspace/AIoT/src/LiteOS_Lab/iot_link/network/dtls/mbedtls/mbedtls-2.16.2/include/mbedtls\ssl_internal.h **** static inline void mbedtls_ssl_sig_hash_set_init( mbedtls_ssl_sig_hash_set_t *set )
 506:C:/Users/dtjld/workspace/AIoT/src/LiteOS_Lab/iot_link/network/dtls/mbedtls/mbedtls-2.16.2/include/mbedtls\ssl_internal.h **** {
 507:C:/Users/dtjld/workspace/AIoT/src/LiteOS_Lab/iot_link/network/dtls/mbedtls/mbedtls-2.16.2/include/mbedtls\ssl_internal.h ****     mbedtls_ssl_sig_hash_set_const_hash( set, MBEDTLS_MD_NONE );
 508:C:/Users/dtjld/workspace/AIoT/src/LiteOS_Lab/iot_link/network/dtls/mbedtls/mbedtls-2.16.2/include/mbedtls\ssl_internal.h **** }
 509:C:/Users/dtjld/workspace/AIoT/src/LiteOS_Lab/iot_link/network/dtls/mbedtls/mbedtls-2.16.2/include/mbedtls\ssl_internal.h **** 
 510:C:/Users/dtjld/workspace/AIoT/src/LiteOS_Lab/iot_link/network/dtls/mbedtls/mbedtls-2.16.2/include/mbedtls\ssl_internal.h **** #endif /* MBEDTLS_SSL_PROTO_TLS1_2) &&
 511:C:/Users/dtjld/workspace/AIoT/src/LiteOS_Lab/iot_link/network/dtls/mbedtls/mbedtls-2.16.2/include/mbedtls\ssl_internal.h ****           MBEDTLS_KEY_EXCHANGE__WITH_CERT__ENABLED */
 512:C:/Users/dtjld/workspace/AIoT/src/LiteOS_Lab/iot_link/network/dtls/mbedtls/mbedtls-2.16.2/include/mbedtls\ssl_internal.h **** 
 513:C:/Users/dtjld/workspace/AIoT/src/LiteOS_Lab/iot_link/network/dtls/mbedtls/mbedtls-2.16.2/include/mbedtls\ssl_internal.h **** /**
 514:C:/Users/dtjld/workspace/AIoT/src/LiteOS_Lab/iot_link/network/dtls/mbedtls/mbedtls-2.16.2/include/mbedtls\ssl_internal.h ****  * \brief           Free referenced items in an SSL transform context and clear
 515:C:/Users/dtjld/workspace/AIoT/src/LiteOS_Lab/iot_link/network/dtls/mbedtls/mbedtls-2.16.2/include/mbedtls\ssl_internal.h ****  *                  memory
 516:C:/Users/dtjld/workspace/AIoT/src/LiteOS_Lab/iot_link/network/dtls/mbedtls/mbedtls-2.16.2/include/mbedtls\ssl_internal.h ****  *
 517:C:/Users/dtjld/workspace/AIoT/src/LiteOS_Lab/iot_link/network/dtls/mbedtls/mbedtls-2.16.2/include/mbedtls\ssl_internal.h ****  * \param transform SSL transform context
 518:C:/Users/dtjld/workspace/AIoT/src/LiteOS_Lab/iot_link/network/dtls/mbedtls/mbedtls-2.16.2/include/mbedtls\ssl_internal.h ****  */
 519:C:/Users/dtjld/workspace/AIoT/src/LiteOS_Lab/iot_link/network/dtls/mbedtls/mbedtls-2.16.2/include/mbedtls\ssl_internal.h **** void mbedtls_ssl_transform_free( mbedtls_ssl_transform *transform );
 520:C:/Users/dtjld/workspace/AIoT/src/LiteOS_Lab/iot_link/network/dtls/mbedtls/mbedtls-2.16.2/include/mbedtls\ssl_internal.h **** 
 521:C:/Users/dtjld/workspace/AIoT/src/LiteOS_Lab/iot_link/network/dtls/mbedtls/mbedtls-2.16.2/include/mbedtls\ssl_internal.h **** /**
 522:C:/Users/dtjld/workspace/AIoT/src/LiteOS_Lab/iot_link/network/dtls/mbedtls/mbedtls-2.16.2/include/mbedtls\ssl_internal.h ****  * \brief           Free referenced items in an SSL handshake context and clear
 523:C:/Users/dtjld/workspace/AIoT/src/LiteOS_Lab/iot_link/network/dtls/mbedtls/mbedtls-2.16.2/include/mbedtls\ssl_internal.h ****  *                  memory
 524:C:/Users/dtjld/workspace/AIoT/src/LiteOS_Lab/iot_link/network/dtls/mbedtls/mbedtls-2.16.2/include/mbedtls\ssl_internal.h ****  *
 525:C:/Users/dtjld/workspace/AIoT/src/LiteOS_Lab/iot_link/network/dtls/mbedtls/mbedtls-2.16.2/include/mbedtls\ssl_internal.h ****  * \param ssl       SSL context
 526:C:/Users/dtjld/workspace/AIoT/src/LiteOS_Lab/iot_link/network/dtls/mbedtls/mbedtls-2.16.2/include/mbedtls\ssl_internal.h ****  */
 527:C:/Users/dtjld/workspace/AIoT/src/LiteOS_Lab/iot_link/network/dtls/mbedtls/mbedtls-2.16.2/include/mbedtls\ssl_internal.h **** void mbedtls_ssl_handshake_free( mbedtls_ssl_context *ssl );
ARM GAS  C:\Users\dtjld\AppData\Local\Temp\ccA8prOd.s 			page 26


 528:C:/Users/dtjld/workspace/AIoT/src/LiteOS_Lab/iot_link/network/dtls/mbedtls/mbedtls-2.16.2/include/mbedtls\ssl_internal.h **** 
 529:C:/Users/dtjld/workspace/AIoT/src/LiteOS_Lab/iot_link/network/dtls/mbedtls/mbedtls-2.16.2/include/mbedtls\ssl_internal.h **** int mbedtls_ssl_handshake_client_step( mbedtls_ssl_context *ssl );
 530:C:/Users/dtjld/workspace/AIoT/src/LiteOS_Lab/iot_link/network/dtls/mbedtls/mbedtls-2.16.2/include/mbedtls\ssl_internal.h **** int mbedtls_ssl_handshake_server_step( mbedtls_ssl_context *ssl );
 531:C:/Users/dtjld/workspace/AIoT/src/LiteOS_Lab/iot_link/network/dtls/mbedtls/mbedtls-2.16.2/include/mbedtls\ssl_internal.h **** void mbedtls_ssl_handshake_wrapup( mbedtls_ssl_context *ssl );
 532:C:/Users/dtjld/workspace/AIoT/src/LiteOS_Lab/iot_link/network/dtls/mbedtls/mbedtls-2.16.2/include/mbedtls\ssl_internal.h **** 
 533:C:/Users/dtjld/workspace/AIoT/src/LiteOS_Lab/iot_link/network/dtls/mbedtls/mbedtls-2.16.2/include/mbedtls\ssl_internal.h **** int mbedtls_ssl_send_fatal_handshake_failure( mbedtls_ssl_context *ssl );
 534:C:/Users/dtjld/workspace/AIoT/src/LiteOS_Lab/iot_link/network/dtls/mbedtls/mbedtls-2.16.2/include/mbedtls\ssl_internal.h **** 
 535:C:/Users/dtjld/workspace/AIoT/src/LiteOS_Lab/iot_link/network/dtls/mbedtls/mbedtls-2.16.2/include/mbedtls\ssl_internal.h **** void mbedtls_ssl_reset_checksum( mbedtls_ssl_context *ssl );
 536:C:/Users/dtjld/workspace/AIoT/src/LiteOS_Lab/iot_link/network/dtls/mbedtls/mbedtls-2.16.2/include/mbedtls\ssl_internal.h **** int mbedtls_ssl_derive_keys( mbedtls_ssl_context *ssl );
 537:C:/Users/dtjld/workspace/AIoT/src/LiteOS_Lab/iot_link/network/dtls/mbedtls/mbedtls-2.16.2/include/mbedtls\ssl_internal.h **** 
 538:C:/Users/dtjld/workspace/AIoT/src/LiteOS_Lab/iot_link/network/dtls/mbedtls/mbedtls-2.16.2/include/mbedtls\ssl_internal.h **** int mbedtls_ssl_handle_message_type( mbedtls_ssl_context *ssl );
 539:C:/Users/dtjld/workspace/AIoT/src/LiteOS_Lab/iot_link/network/dtls/mbedtls/mbedtls-2.16.2/include/mbedtls\ssl_internal.h **** int mbedtls_ssl_prepare_handshake_record( mbedtls_ssl_context *ssl );
 540:C:/Users/dtjld/workspace/AIoT/src/LiteOS_Lab/iot_link/network/dtls/mbedtls/mbedtls-2.16.2/include/mbedtls\ssl_internal.h **** void mbedtls_ssl_update_handshake_status( mbedtls_ssl_context *ssl );
 541:C:/Users/dtjld/workspace/AIoT/src/LiteOS_Lab/iot_link/network/dtls/mbedtls/mbedtls-2.16.2/include/mbedtls\ssl_internal.h **** 
 542:C:/Users/dtjld/workspace/AIoT/src/LiteOS_Lab/iot_link/network/dtls/mbedtls/mbedtls-2.16.2/include/mbedtls\ssl_internal.h **** /**
 543:C:/Users/dtjld/workspace/AIoT/src/LiteOS_Lab/iot_link/network/dtls/mbedtls/mbedtls-2.16.2/include/mbedtls\ssl_internal.h ****  * \brief       Update record layer
 544:C:/Users/dtjld/workspace/AIoT/src/LiteOS_Lab/iot_link/network/dtls/mbedtls/mbedtls-2.16.2/include/mbedtls\ssl_internal.h ****  *
 545:C:/Users/dtjld/workspace/AIoT/src/LiteOS_Lab/iot_link/network/dtls/mbedtls/mbedtls-2.16.2/include/mbedtls\ssl_internal.h ****  *              This function roughly separates the implementation
 546:C:/Users/dtjld/workspace/AIoT/src/LiteOS_Lab/iot_link/network/dtls/mbedtls/mbedtls-2.16.2/include/mbedtls\ssl_internal.h ****  *              of the logic of (D)TLS from the implementation
 547:C:/Users/dtjld/workspace/AIoT/src/LiteOS_Lab/iot_link/network/dtls/mbedtls/mbedtls-2.16.2/include/mbedtls\ssl_internal.h ****  *              of the secure transport.
 548:C:/Users/dtjld/workspace/AIoT/src/LiteOS_Lab/iot_link/network/dtls/mbedtls/mbedtls-2.16.2/include/mbedtls\ssl_internal.h ****  *
 549:C:/Users/dtjld/workspace/AIoT/src/LiteOS_Lab/iot_link/network/dtls/mbedtls/mbedtls-2.16.2/include/mbedtls\ssl_internal.h ****  * \param  ssl              The SSL context to use.
 550:C:/Users/dtjld/workspace/AIoT/src/LiteOS_Lab/iot_link/network/dtls/mbedtls/mbedtls-2.16.2/include/mbedtls\ssl_internal.h ****  * \param  update_hs_digest This indicates if the handshake digest
 551:C:/Users/dtjld/workspace/AIoT/src/LiteOS_Lab/iot_link/network/dtls/mbedtls/mbedtls-2.16.2/include/mbedtls\ssl_internal.h ****  *                          should be automatically updated in case
 552:C:/Users/dtjld/workspace/AIoT/src/LiteOS_Lab/iot_link/network/dtls/mbedtls/mbedtls-2.16.2/include/mbedtls\ssl_internal.h ****  *                          a handshake message is found.
 553:C:/Users/dtjld/workspace/AIoT/src/LiteOS_Lab/iot_link/network/dtls/mbedtls/mbedtls-2.16.2/include/mbedtls\ssl_internal.h ****  *
 554:C:/Users/dtjld/workspace/AIoT/src/LiteOS_Lab/iot_link/network/dtls/mbedtls/mbedtls-2.16.2/include/mbedtls\ssl_internal.h ****  * \return      0 or non-zero error code.
 555:C:/Users/dtjld/workspace/AIoT/src/LiteOS_Lab/iot_link/network/dtls/mbedtls/mbedtls-2.16.2/include/mbedtls\ssl_internal.h ****  *
 556:C:/Users/dtjld/workspace/AIoT/src/LiteOS_Lab/iot_link/network/dtls/mbedtls/mbedtls-2.16.2/include/mbedtls\ssl_internal.h ****  * \note        A clarification on what is called 'record layer' here
 557:C:/Users/dtjld/workspace/AIoT/src/LiteOS_Lab/iot_link/network/dtls/mbedtls/mbedtls-2.16.2/include/mbedtls\ssl_internal.h ****  *              is in order, as many sensible definitions are possible:
 558:C:/Users/dtjld/workspace/AIoT/src/LiteOS_Lab/iot_link/network/dtls/mbedtls/mbedtls-2.16.2/include/mbedtls\ssl_internal.h ****  *
 559:C:/Users/dtjld/workspace/AIoT/src/LiteOS_Lab/iot_link/network/dtls/mbedtls/mbedtls-2.16.2/include/mbedtls\ssl_internal.h ****  *              The record layer takes as input an untrusted underlying
 560:C:/Users/dtjld/workspace/AIoT/src/LiteOS_Lab/iot_link/network/dtls/mbedtls/mbedtls-2.16.2/include/mbedtls\ssl_internal.h ****  *              transport (stream or datagram) and transforms it into
 561:C:/Users/dtjld/workspace/AIoT/src/LiteOS_Lab/iot_link/network/dtls/mbedtls/mbedtls-2.16.2/include/mbedtls\ssl_internal.h ****  *              a serially multiplexed, secure transport, which
 562:C:/Users/dtjld/workspace/AIoT/src/LiteOS_Lab/iot_link/network/dtls/mbedtls/mbedtls-2.16.2/include/mbedtls\ssl_internal.h ****  *              conceptually provides the following:
 563:C:/Users/dtjld/workspace/AIoT/src/LiteOS_Lab/iot_link/network/dtls/mbedtls/mbedtls-2.16.2/include/mbedtls\ssl_internal.h ****  *
 564:C:/Users/dtjld/workspace/AIoT/src/LiteOS_Lab/iot_link/network/dtls/mbedtls/mbedtls-2.16.2/include/mbedtls\ssl_internal.h ****  *              (1) Three datagram based, content-agnostic transports
 565:C:/Users/dtjld/workspace/AIoT/src/LiteOS_Lab/iot_link/network/dtls/mbedtls/mbedtls-2.16.2/include/mbedtls\ssl_internal.h ****  *                  for handshake, alert and CCS messages.
 566:C:/Users/dtjld/workspace/AIoT/src/LiteOS_Lab/iot_link/network/dtls/mbedtls/mbedtls-2.16.2/include/mbedtls\ssl_internal.h ****  *              (2) One stream- or datagram-based transport
 567:C:/Users/dtjld/workspace/AIoT/src/LiteOS_Lab/iot_link/network/dtls/mbedtls/mbedtls-2.16.2/include/mbedtls\ssl_internal.h ****  *                  for application data.
 568:C:/Users/dtjld/workspace/AIoT/src/LiteOS_Lab/iot_link/network/dtls/mbedtls/mbedtls-2.16.2/include/mbedtls\ssl_internal.h ****  *              (3) Functionality for changing the underlying transform
 569:C:/Users/dtjld/workspace/AIoT/src/LiteOS_Lab/iot_link/network/dtls/mbedtls/mbedtls-2.16.2/include/mbedtls\ssl_internal.h ****  *                  securing the contents.
 570:C:/Users/dtjld/workspace/AIoT/src/LiteOS_Lab/iot_link/network/dtls/mbedtls/mbedtls-2.16.2/include/mbedtls\ssl_internal.h ****  *
 571:C:/Users/dtjld/workspace/AIoT/src/LiteOS_Lab/iot_link/network/dtls/mbedtls/mbedtls-2.16.2/include/mbedtls\ssl_internal.h ****  *              The interface to this functionality is given as follows:
 572:C:/Users/dtjld/workspace/AIoT/src/LiteOS_Lab/iot_link/network/dtls/mbedtls/mbedtls-2.16.2/include/mbedtls\ssl_internal.h ****  *
 573:C:/Users/dtjld/workspace/AIoT/src/LiteOS_Lab/iot_link/network/dtls/mbedtls/mbedtls-2.16.2/include/mbedtls\ssl_internal.h ****  *              a Updating
 574:C:/Users/dtjld/workspace/AIoT/src/LiteOS_Lab/iot_link/network/dtls/mbedtls/mbedtls-2.16.2/include/mbedtls\ssl_internal.h ****  *                [Currently implemented by mbedtls_ssl_read_record]
 575:C:/Users/dtjld/workspace/AIoT/src/LiteOS_Lab/iot_link/network/dtls/mbedtls/mbedtls-2.16.2/include/mbedtls\ssl_internal.h ****  *
 576:C:/Users/dtjld/workspace/AIoT/src/LiteOS_Lab/iot_link/network/dtls/mbedtls/mbedtls-2.16.2/include/mbedtls\ssl_internal.h ****  *                Check if and on which of the four 'ports' data is pending:
 577:C:/Users/dtjld/workspace/AIoT/src/LiteOS_Lab/iot_link/network/dtls/mbedtls/mbedtls-2.16.2/include/mbedtls\ssl_internal.h ****  *                Nothing, a controlling datagram of type (1), or application
 578:C:/Users/dtjld/workspace/AIoT/src/LiteOS_Lab/iot_link/network/dtls/mbedtls/mbedtls-2.16.2/include/mbedtls\ssl_internal.h ****  *                data (2). In any case data is present, internal buffers
 579:C:/Users/dtjld/workspace/AIoT/src/LiteOS_Lab/iot_link/network/dtls/mbedtls/mbedtls-2.16.2/include/mbedtls\ssl_internal.h ****  *                provide access to the data for the user to process it.
 580:C:/Users/dtjld/workspace/AIoT/src/LiteOS_Lab/iot_link/network/dtls/mbedtls/mbedtls-2.16.2/include/mbedtls\ssl_internal.h ****  *                Consumption of type (1) datagrams is done automatically
 581:C:/Users/dtjld/workspace/AIoT/src/LiteOS_Lab/iot_link/network/dtls/mbedtls/mbedtls-2.16.2/include/mbedtls\ssl_internal.h ****  *                on the next update, invalidating that the internal buffers
 582:C:/Users/dtjld/workspace/AIoT/src/LiteOS_Lab/iot_link/network/dtls/mbedtls/mbedtls-2.16.2/include/mbedtls\ssl_internal.h ****  *                for previous datagrams, while consumption of application
 583:C:/Users/dtjld/workspace/AIoT/src/LiteOS_Lab/iot_link/network/dtls/mbedtls/mbedtls-2.16.2/include/mbedtls\ssl_internal.h ****  *                data (2) is user-controlled.
 584:C:/Users/dtjld/workspace/AIoT/src/LiteOS_Lab/iot_link/network/dtls/mbedtls/mbedtls-2.16.2/include/mbedtls\ssl_internal.h ****  *
ARM GAS  C:\Users\dtjld\AppData\Local\Temp\ccA8prOd.s 			page 27


 585:C:/Users/dtjld/workspace/AIoT/src/LiteOS_Lab/iot_link/network/dtls/mbedtls/mbedtls-2.16.2/include/mbedtls\ssl_internal.h ****  *              b Reading of application data
 586:C:/Users/dtjld/workspace/AIoT/src/LiteOS_Lab/iot_link/network/dtls/mbedtls/mbedtls-2.16.2/include/mbedtls\ssl_internal.h ****  *                [Currently manual adaption of ssl->in_offt pointer]
 587:C:/Users/dtjld/workspace/AIoT/src/LiteOS_Lab/iot_link/network/dtls/mbedtls/mbedtls-2.16.2/include/mbedtls\ssl_internal.h ****  *
 588:C:/Users/dtjld/workspace/AIoT/src/LiteOS_Lab/iot_link/network/dtls/mbedtls/mbedtls-2.16.2/include/mbedtls\ssl_internal.h ****  *                As mentioned in the last paragraph, consumption of data
 589:C:/Users/dtjld/workspace/AIoT/src/LiteOS_Lab/iot_link/network/dtls/mbedtls/mbedtls-2.16.2/include/mbedtls\ssl_internal.h ****  *                is different from the automatic consumption of control
 590:C:/Users/dtjld/workspace/AIoT/src/LiteOS_Lab/iot_link/network/dtls/mbedtls/mbedtls-2.16.2/include/mbedtls\ssl_internal.h ****  *                datagrams (1) because application data is treated as a stream.
 591:C:/Users/dtjld/workspace/AIoT/src/LiteOS_Lab/iot_link/network/dtls/mbedtls/mbedtls-2.16.2/include/mbedtls\ssl_internal.h ****  *
 592:C:/Users/dtjld/workspace/AIoT/src/LiteOS_Lab/iot_link/network/dtls/mbedtls/mbedtls-2.16.2/include/mbedtls\ssl_internal.h ****  *              c Tracking availability of application data
 593:C:/Users/dtjld/workspace/AIoT/src/LiteOS_Lab/iot_link/network/dtls/mbedtls/mbedtls-2.16.2/include/mbedtls\ssl_internal.h ****  *                [Currently manually through decreasing ssl->in_msglen]
 594:C:/Users/dtjld/workspace/AIoT/src/LiteOS_Lab/iot_link/network/dtls/mbedtls/mbedtls-2.16.2/include/mbedtls\ssl_internal.h ****  *
 595:C:/Users/dtjld/workspace/AIoT/src/LiteOS_Lab/iot_link/network/dtls/mbedtls/mbedtls-2.16.2/include/mbedtls\ssl_internal.h ****  *                For efficiency and to retain datagram semantics for
 596:C:/Users/dtjld/workspace/AIoT/src/LiteOS_Lab/iot_link/network/dtls/mbedtls/mbedtls-2.16.2/include/mbedtls\ssl_internal.h ****  *                application data in case of DTLS, the record layer
 597:C:/Users/dtjld/workspace/AIoT/src/LiteOS_Lab/iot_link/network/dtls/mbedtls/mbedtls-2.16.2/include/mbedtls\ssl_internal.h ****  *                provides functionality for checking how much application
 598:C:/Users/dtjld/workspace/AIoT/src/LiteOS_Lab/iot_link/network/dtls/mbedtls/mbedtls-2.16.2/include/mbedtls\ssl_internal.h ****  *                data is still available in the internal buffer.
 599:C:/Users/dtjld/workspace/AIoT/src/LiteOS_Lab/iot_link/network/dtls/mbedtls/mbedtls-2.16.2/include/mbedtls\ssl_internal.h ****  *
 600:C:/Users/dtjld/workspace/AIoT/src/LiteOS_Lab/iot_link/network/dtls/mbedtls/mbedtls-2.16.2/include/mbedtls\ssl_internal.h ****  *              d Changing the transformation securing the communication.
 601:C:/Users/dtjld/workspace/AIoT/src/LiteOS_Lab/iot_link/network/dtls/mbedtls/mbedtls-2.16.2/include/mbedtls\ssl_internal.h ****  *
 602:C:/Users/dtjld/workspace/AIoT/src/LiteOS_Lab/iot_link/network/dtls/mbedtls/mbedtls-2.16.2/include/mbedtls\ssl_internal.h ****  *              Given an opaque implementation of the record layer in the
 603:C:/Users/dtjld/workspace/AIoT/src/LiteOS_Lab/iot_link/network/dtls/mbedtls/mbedtls-2.16.2/include/mbedtls\ssl_internal.h ****  *              above sense, it should be possible to implement the logic
 604:C:/Users/dtjld/workspace/AIoT/src/LiteOS_Lab/iot_link/network/dtls/mbedtls/mbedtls-2.16.2/include/mbedtls\ssl_internal.h ****  *              of (D)TLS on top of it without the need to know anything
 605:C:/Users/dtjld/workspace/AIoT/src/LiteOS_Lab/iot_link/network/dtls/mbedtls/mbedtls-2.16.2/include/mbedtls\ssl_internal.h ****  *              about the record layer's internals. This is done e.g.
 606:C:/Users/dtjld/workspace/AIoT/src/LiteOS_Lab/iot_link/network/dtls/mbedtls/mbedtls-2.16.2/include/mbedtls\ssl_internal.h ****  *              in all the handshake handling functions, and in the
 607:C:/Users/dtjld/workspace/AIoT/src/LiteOS_Lab/iot_link/network/dtls/mbedtls/mbedtls-2.16.2/include/mbedtls\ssl_internal.h ****  *              application data reading function mbedtls_ssl_read.
 608:C:/Users/dtjld/workspace/AIoT/src/LiteOS_Lab/iot_link/network/dtls/mbedtls/mbedtls-2.16.2/include/mbedtls\ssl_internal.h ****  *
 609:C:/Users/dtjld/workspace/AIoT/src/LiteOS_Lab/iot_link/network/dtls/mbedtls/mbedtls-2.16.2/include/mbedtls\ssl_internal.h ****  * \note        The above tries to give a conceptual picture of the
 610:C:/Users/dtjld/workspace/AIoT/src/LiteOS_Lab/iot_link/network/dtls/mbedtls/mbedtls-2.16.2/include/mbedtls\ssl_internal.h ****  *              record layer, but the current implementation deviates
 611:C:/Users/dtjld/workspace/AIoT/src/LiteOS_Lab/iot_link/network/dtls/mbedtls/mbedtls-2.16.2/include/mbedtls\ssl_internal.h ****  *              from it in some places. For example, our implementation of
 612:C:/Users/dtjld/workspace/AIoT/src/LiteOS_Lab/iot_link/network/dtls/mbedtls/mbedtls-2.16.2/include/mbedtls\ssl_internal.h ****  *              the update functionality through mbedtls_ssl_read_record
 613:C:/Users/dtjld/workspace/AIoT/src/LiteOS_Lab/iot_link/network/dtls/mbedtls/mbedtls-2.16.2/include/mbedtls\ssl_internal.h ****  *              discards datagrams depending on the current state, which
 614:C:/Users/dtjld/workspace/AIoT/src/LiteOS_Lab/iot_link/network/dtls/mbedtls/mbedtls-2.16.2/include/mbedtls\ssl_internal.h ****  *              wouldn't fall under the record layer's responsibility
 615:C:/Users/dtjld/workspace/AIoT/src/LiteOS_Lab/iot_link/network/dtls/mbedtls/mbedtls-2.16.2/include/mbedtls\ssl_internal.h ****  *              following the above definition.
 616:C:/Users/dtjld/workspace/AIoT/src/LiteOS_Lab/iot_link/network/dtls/mbedtls/mbedtls-2.16.2/include/mbedtls\ssl_internal.h ****  *
 617:C:/Users/dtjld/workspace/AIoT/src/LiteOS_Lab/iot_link/network/dtls/mbedtls/mbedtls-2.16.2/include/mbedtls\ssl_internal.h ****  */
 618:C:/Users/dtjld/workspace/AIoT/src/LiteOS_Lab/iot_link/network/dtls/mbedtls/mbedtls-2.16.2/include/mbedtls\ssl_internal.h **** int mbedtls_ssl_read_record( mbedtls_ssl_context *ssl,
 619:C:/Users/dtjld/workspace/AIoT/src/LiteOS_Lab/iot_link/network/dtls/mbedtls/mbedtls-2.16.2/include/mbedtls\ssl_internal.h ****                              unsigned update_hs_digest );
 620:C:/Users/dtjld/workspace/AIoT/src/LiteOS_Lab/iot_link/network/dtls/mbedtls/mbedtls-2.16.2/include/mbedtls\ssl_internal.h **** int mbedtls_ssl_fetch_input( mbedtls_ssl_context *ssl, size_t nb_want );
 621:C:/Users/dtjld/workspace/AIoT/src/LiteOS_Lab/iot_link/network/dtls/mbedtls/mbedtls-2.16.2/include/mbedtls\ssl_internal.h **** 
 622:C:/Users/dtjld/workspace/AIoT/src/LiteOS_Lab/iot_link/network/dtls/mbedtls/mbedtls-2.16.2/include/mbedtls\ssl_internal.h **** int mbedtls_ssl_write_handshake_msg( mbedtls_ssl_context *ssl );
 623:C:/Users/dtjld/workspace/AIoT/src/LiteOS_Lab/iot_link/network/dtls/mbedtls/mbedtls-2.16.2/include/mbedtls\ssl_internal.h **** int mbedtls_ssl_write_record( mbedtls_ssl_context *ssl, uint8_t force_flush );
 624:C:/Users/dtjld/workspace/AIoT/src/LiteOS_Lab/iot_link/network/dtls/mbedtls/mbedtls-2.16.2/include/mbedtls\ssl_internal.h **** int mbedtls_ssl_flush_output( mbedtls_ssl_context *ssl );
 625:C:/Users/dtjld/workspace/AIoT/src/LiteOS_Lab/iot_link/network/dtls/mbedtls/mbedtls-2.16.2/include/mbedtls\ssl_internal.h **** 
 626:C:/Users/dtjld/workspace/AIoT/src/LiteOS_Lab/iot_link/network/dtls/mbedtls/mbedtls-2.16.2/include/mbedtls\ssl_internal.h **** int mbedtls_ssl_parse_certificate( mbedtls_ssl_context *ssl );
 627:C:/Users/dtjld/workspace/AIoT/src/LiteOS_Lab/iot_link/network/dtls/mbedtls/mbedtls-2.16.2/include/mbedtls\ssl_internal.h **** int mbedtls_ssl_write_certificate( mbedtls_ssl_context *ssl );
 628:C:/Users/dtjld/workspace/AIoT/src/LiteOS_Lab/iot_link/network/dtls/mbedtls/mbedtls-2.16.2/include/mbedtls\ssl_internal.h **** 
 629:C:/Users/dtjld/workspace/AIoT/src/LiteOS_Lab/iot_link/network/dtls/mbedtls/mbedtls-2.16.2/include/mbedtls\ssl_internal.h **** int mbedtls_ssl_parse_change_cipher_spec( mbedtls_ssl_context *ssl );
 630:C:/Users/dtjld/workspace/AIoT/src/LiteOS_Lab/iot_link/network/dtls/mbedtls/mbedtls-2.16.2/include/mbedtls\ssl_internal.h **** int mbedtls_ssl_write_change_cipher_spec( mbedtls_ssl_context *ssl );
 631:C:/Users/dtjld/workspace/AIoT/src/LiteOS_Lab/iot_link/network/dtls/mbedtls/mbedtls-2.16.2/include/mbedtls\ssl_internal.h **** 
 632:C:/Users/dtjld/workspace/AIoT/src/LiteOS_Lab/iot_link/network/dtls/mbedtls/mbedtls-2.16.2/include/mbedtls\ssl_internal.h **** int mbedtls_ssl_parse_finished( mbedtls_ssl_context *ssl );
 633:C:/Users/dtjld/workspace/AIoT/src/LiteOS_Lab/iot_link/network/dtls/mbedtls/mbedtls-2.16.2/include/mbedtls\ssl_internal.h **** int mbedtls_ssl_write_finished( mbedtls_ssl_context *ssl );
 634:C:/Users/dtjld/workspace/AIoT/src/LiteOS_Lab/iot_link/network/dtls/mbedtls/mbedtls-2.16.2/include/mbedtls\ssl_internal.h **** 
 635:C:/Users/dtjld/workspace/AIoT/src/LiteOS_Lab/iot_link/network/dtls/mbedtls/mbedtls-2.16.2/include/mbedtls\ssl_internal.h **** void mbedtls_ssl_optimize_checksum( mbedtls_ssl_context *ssl,
 636:C:/Users/dtjld/workspace/AIoT/src/LiteOS_Lab/iot_link/network/dtls/mbedtls/mbedtls-2.16.2/include/mbedtls\ssl_internal.h ****                             const mbedtls_ssl_ciphersuite_t *ciphersuite_info );
 637:C:/Users/dtjld/workspace/AIoT/src/LiteOS_Lab/iot_link/network/dtls/mbedtls/mbedtls-2.16.2/include/mbedtls\ssl_internal.h **** 
 638:C:/Users/dtjld/workspace/AIoT/src/LiteOS_Lab/iot_link/network/dtls/mbedtls/mbedtls-2.16.2/include/mbedtls\ssl_internal.h **** #if defined(MBEDTLS_KEY_EXCHANGE__SOME__PSK_ENABLED)
 639:C:/Users/dtjld/workspace/AIoT/src/LiteOS_Lab/iot_link/network/dtls/mbedtls/mbedtls-2.16.2/include/mbedtls\ssl_internal.h **** int mbedtls_ssl_psk_derive_premaster( mbedtls_ssl_context *ssl, mbedtls_key_exchange_type_t key_ex 
 640:C:/Users/dtjld/workspace/AIoT/src/LiteOS_Lab/iot_link/network/dtls/mbedtls/mbedtls-2.16.2/include/mbedtls\ssl_internal.h **** #endif
 641:C:/Users/dtjld/workspace/AIoT/src/LiteOS_Lab/iot_link/network/dtls/mbedtls/mbedtls-2.16.2/include/mbedtls\ssl_internal.h **** 
ARM GAS  C:\Users\dtjld\AppData\Local\Temp\ccA8prOd.s 			page 28


 642:C:/Users/dtjld/workspace/AIoT/src/LiteOS_Lab/iot_link/network/dtls/mbedtls/mbedtls-2.16.2/include/mbedtls\ssl_internal.h **** #if defined(MBEDTLS_PK_C)
 643:C:/Users/dtjld/workspace/AIoT/src/LiteOS_Lab/iot_link/network/dtls/mbedtls/mbedtls-2.16.2/include/mbedtls\ssl_internal.h **** unsigned char mbedtls_ssl_sig_from_pk( mbedtls_pk_context *pk );
 644:C:/Users/dtjld/workspace/AIoT/src/LiteOS_Lab/iot_link/network/dtls/mbedtls/mbedtls-2.16.2/include/mbedtls\ssl_internal.h **** unsigned char mbedtls_ssl_sig_from_pk_alg( mbedtls_pk_type_t type );
 645:C:/Users/dtjld/workspace/AIoT/src/LiteOS_Lab/iot_link/network/dtls/mbedtls/mbedtls-2.16.2/include/mbedtls\ssl_internal.h **** mbedtls_pk_type_t mbedtls_ssl_pk_alg_from_sig( unsigned char sig );
 646:C:/Users/dtjld/workspace/AIoT/src/LiteOS_Lab/iot_link/network/dtls/mbedtls/mbedtls-2.16.2/include/mbedtls\ssl_internal.h **** #endif
 647:C:/Users/dtjld/workspace/AIoT/src/LiteOS_Lab/iot_link/network/dtls/mbedtls/mbedtls-2.16.2/include/mbedtls\ssl_internal.h **** 
 648:C:/Users/dtjld/workspace/AIoT/src/LiteOS_Lab/iot_link/network/dtls/mbedtls/mbedtls-2.16.2/include/mbedtls\ssl_internal.h **** mbedtls_md_type_t mbedtls_ssl_md_alg_from_hash( unsigned char hash );
 649:C:/Users/dtjld/workspace/AIoT/src/LiteOS_Lab/iot_link/network/dtls/mbedtls/mbedtls-2.16.2/include/mbedtls\ssl_internal.h **** unsigned char mbedtls_ssl_hash_from_md_alg( int md );
 650:C:/Users/dtjld/workspace/AIoT/src/LiteOS_Lab/iot_link/network/dtls/mbedtls/mbedtls-2.16.2/include/mbedtls\ssl_internal.h **** int mbedtls_ssl_set_calc_verify_md( mbedtls_ssl_context *ssl, int md );
 651:C:/Users/dtjld/workspace/AIoT/src/LiteOS_Lab/iot_link/network/dtls/mbedtls/mbedtls-2.16.2/include/mbedtls\ssl_internal.h **** 
 652:C:/Users/dtjld/workspace/AIoT/src/LiteOS_Lab/iot_link/network/dtls/mbedtls/mbedtls-2.16.2/include/mbedtls\ssl_internal.h **** #if defined(MBEDTLS_ECP_C)
 653:C:/Users/dtjld/workspace/AIoT/src/LiteOS_Lab/iot_link/network/dtls/mbedtls/mbedtls-2.16.2/include/mbedtls\ssl_internal.h **** int mbedtls_ssl_check_curve( const mbedtls_ssl_context *ssl, mbedtls_ecp_group_id grp_id );
 654:C:/Users/dtjld/workspace/AIoT/src/LiteOS_Lab/iot_link/network/dtls/mbedtls/mbedtls-2.16.2/include/mbedtls\ssl_internal.h **** #endif
 655:C:/Users/dtjld/workspace/AIoT/src/LiteOS_Lab/iot_link/network/dtls/mbedtls/mbedtls-2.16.2/include/mbedtls\ssl_internal.h **** 
 656:C:/Users/dtjld/workspace/AIoT/src/LiteOS_Lab/iot_link/network/dtls/mbedtls/mbedtls-2.16.2/include/mbedtls\ssl_internal.h **** #if defined(MBEDTLS_KEY_EXCHANGE__WITH_CERT__ENABLED)
 657:C:/Users/dtjld/workspace/AIoT/src/LiteOS_Lab/iot_link/network/dtls/mbedtls/mbedtls-2.16.2/include/mbedtls\ssl_internal.h **** int mbedtls_ssl_check_sig_hash( const mbedtls_ssl_context *ssl,
 658:C:/Users/dtjld/workspace/AIoT/src/LiteOS_Lab/iot_link/network/dtls/mbedtls/mbedtls-2.16.2/include/mbedtls\ssl_internal.h ****                                 mbedtls_md_type_t md );
 659:C:/Users/dtjld/workspace/AIoT/src/LiteOS_Lab/iot_link/network/dtls/mbedtls/mbedtls-2.16.2/include/mbedtls\ssl_internal.h **** #endif
 660:C:/Users/dtjld/workspace/AIoT/src/LiteOS_Lab/iot_link/network/dtls/mbedtls/mbedtls-2.16.2/include/mbedtls\ssl_internal.h **** 
 661:C:/Users/dtjld/workspace/AIoT/src/LiteOS_Lab/iot_link/network/dtls/mbedtls/mbedtls-2.16.2/include/mbedtls\ssl_internal.h **** #if defined(MBEDTLS_X509_CRT_PARSE_C)
 662:C:/Users/dtjld/workspace/AIoT/src/LiteOS_Lab/iot_link/network/dtls/mbedtls/mbedtls-2.16.2/include/mbedtls\ssl_internal.h **** static inline mbedtls_pk_context *mbedtls_ssl_own_key( mbedtls_ssl_context *ssl )
 663:C:/Users/dtjld/workspace/AIoT/src/LiteOS_Lab/iot_link/network/dtls/mbedtls/mbedtls-2.16.2/include/mbedtls\ssl_internal.h **** {
 200              		.loc 3 663 0
 201              		.cfi_startproc
 202              		@ args = 0, pretend = 0, frame = 16
 203              		@ frame_needed = 1, uses_anonymous_args = 0
 204              		@ link register save eliminated.
 205 0000 80B4     		push	{r7}
 206              	.LCFI18:
 207              		.cfi_def_cfa_offset 4
 208              		.cfi_offset 7, -4
 209 0002 85B0     		sub	sp, sp, #20
 210              	.LCFI19:
 211              		.cfi_def_cfa_offset 24
 212 0004 00AF     		add	r7, sp, #0
 213              	.LCFI20:
 214              		.cfi_def_cfa_register 7
 215 0006 7860     		str	r0, [r7, #4]
 664:C:/Users/dtjld/workspace/AIoT/src/LiteOS_Lab/iot_link/network/dtls/mbedtls/mbedtls-2.16.2/include/mbedtls\ssl_internal.h ****     mbedtls_ssl_key_cert *key_cert;
 665:C:/Users/dtjld/workspace/AIoT/src/LiteOS_Lab/iot_link/network/dtls/mbedtls/mbedtls-2.16.2/include/mbedtls\ssl_internal.h **** 
 666:C:/Users/dtjld/workspace/AIoT/src/LiteOS_Lab/iot_link/network/dtls/mbedtls/mbedtls-2.16.2/include/mbedtls\ssl_internal.h ****     if( ssl->handshake != NULL && ssl->handshake->key_cert != NULL )
 216              		.loc 3 666 0
 217 0008 7B68     		ldr	r3, [r7, #4]
 218 000a 9B6B     		ldr	r3, [r3, #56]
 219 000c 002B     		cmp	r3, #0
 220 000e 0BD0     		beq	.L13
 221              		.loc 3 666 0 is_stmt 0 discriminator 1
 222 0010 7B68     		ldr	r3, [r7, #4]
 223 0012 9B6B     		ldr	r3, [r3, #56]
 224 0014 D3F8C031 		ldr	r3, [r3, #448]
 225 0018 002B     		cmp	r3, #0
 226 001a 05D0     		beq	.L13
 667:C:/Users/dtjld/workspace/AIoT/src/LiteOS_Lab/iot_link/network/dtls/mbedtls/mbedtls-2.16.2/include/mbedtls\ssl_internal.h ****         key_cert = ssl->handshake->key_cert;
 227              		.loc 3 667 0 is_stmt 1
 228 001c 7B68     		ldr	r3, [r7, #4]
 229 001e 9B6B     		ldr	r3, [r3, #56]
 230 0020 D3F8C031 		ldr	r3, [r3, #448]
ARM GAS  C:\Users\dtjld\AppData\Local\Temp\ccA8prOd.s 			page 29


 231 0024 FB60     		str	r3, [r7, #12]
 232 0026 03E0     		b	.L14
 233              	.L13:
 668:C:/Users/dtjld/workspace/AIoT/src/LiteOS_Lab/iot_link/network/dtls/mbedtls/mbedtls-2.16.2/include/mbedtls\ssl_internal.h ****     else
 669:C:/Users/dtjld/workspace/AIoT/src/LiteOS_Lab/iot_link/network/dtls/mbedtls/mbedtls-2.16.2/include/mbedtls\ssl_internal.h ****         key_cert = ssl->conf->key_cert;
 234              		.loc 3 669 0
 235 0028 7B68     		ldr	r3, [r7, #4]
 236 002a 1B68     		ldr	r3, [r3]
 237 002c 9B6C     		ldr	r3, [r3, #72]
 238 002e FB60     		str	r3, [r7, #12]
 239              	.L14:
 670:C:/Users/dtjld/workspace/AIoT/src/LiteOS_Lab/iot_link/network/dtls/mbedtls/mbedtls-2.16.2/include/mbedtls\ssl_internal.h **** 
 671:C:/Users/dtjld/workspace/AIoT/src/LiteOS_Lab/iot_link/network/dtls/mbedtls/mbedtls-2.16.2/include/mbedtls\ssl_internal.h ****     return( key_cert == NULL ? NULL : key_cert->key );
 240              		.loc 3 671 0
