ARM GAS  C:\Users\dtjld\AppData\Local\Temp\cckhfJK6.s 			page 1


   1              		.cpu cortex-m4
   2              		.eabi_attribute 27, 1
   3              		.eabi_attribute 28, 1
   4              		.eabi_attribute 20, 1
   5              		.eabi_attribute 21, 1
   6              		.eabi_attribute 23, 3
   7              		.eabi_attribute 24, 1
   8              		.eabi_attribute 25, 1
   9              		.eabi_attribute 26, 1
  10              		.eabi_attribute 30, 6
  11              		.eabi_attribute 34, 1
  12              		.eabi_attribute 18, 4
  13              		.file	"version_features.c"
  14              		.text
  15              	.Ltext0:
  16              		.cfi_sections	.debug_frame
  17              		.section	.rodata
  18              		.align	2
  19              	.LC0:
  20 0000 4D424544 		.ascii	"MBEDTLS_PLATFORM_MEMORY\000"
  20      544C535F 
  20      504C4154 
  20      464F524D 
  20      5F4D454D 
  21              		.align	2
  22              	.LC1:
  23 0018 4D424544 		.ascii	"MBEDTLS_PLATFORM_PRINTF_ALT\000"
  23      544C535F 
  23      504C4154 
  23      464F524D 
  23      5F505249 
  24              		.align	2
  25              	.LC2:
  26 0034 4D424544 		.ascii	"MBEDTLS_PLATFORM_SNPRINTF_ALT\000"
  26      544C535F 
  26      504C4154 
  26      464F524D 
  26      5F534E50 
  27 0052 0000     		.align	2
  28              	.LC3:
  29 0054 4D424544 		.ascii	"MBEDTLS_ENTROPY_HARDWARE_ALT\000"
  29      544C535F 
  29      454E5452 
  29      4F50595F 
  29      48415244 
  30 0071 000000   		.align	2
  31              	.LC4:
  32 0074 4D424544 		.ascii	"MBEDTLS_AES_ROM_TABLES\000"
  32      544C535F 
  32      4145535F 
  32      524F4D5F 
  32      5441424C 
  33 008b 00       		.align	2
  34              	.LC5:
  35 008c 4D424544 		.ascii	"MBEDTLS_CIPHER_MODE_CBC\000"
  35      544C535F 
  35      43495048 
ARM GAS  C:\Users\dtjld\AppData\Local\Temp\cckhfJK6.s 			page 2


  35      45525F4D 
  35      4F44455F 
  36              		.align	2
  37              	.LC6:
  38 00a4 4D424544 		.ascii	"MBEDTLS_CIPHER_MODE_CFB\000"
  38      544C535F 
  38      43495048 
  38      45525F4D 
  38      4F44455F 
  39              		.align	2
  40              	.LC7:
  41 00bc 4D424544 		.ascii	"MBEDTLS_CIPHER_MODE_CTR\000"
  41      544C535F 
  41      43495048 
  41      45525F4D 
  41      4F44455F 
  42              		.align	2
  43              	.LC8:
  44 00d4 4D424544 		.ascii	"MBEDTLS_CIPHER_PADDING_PKCS7\000"
  44      544C535F 
  44      43495048 
  44      45525F50 
  44      41444449 
  45 00f1 000000   		.align	2
  46              	.LC9:
  47 00f4 4D424544 		.ascii	"MBEDTLS_CIPHER_PADDING_ONE_AND_ZEROS\000"
  47      544C535F 
  47      43495048 
  47      45525F50 
  47      41444449 
  48 0119 000000   		.align	2
  49              	.LC10:
  50 011c 4D424544 		.ascii	"MBEDTLS_CIPHER_PADDING_ZEROS_AND_LEN\000"
  50      544C535F 
  50      43495048 
  50      45525F50 
  50      41444449 
  51 0141 000000   		.align	2
  52              	.LC11:
  53 0144 4D424544 		.ascii	"MBEDTLS_CIPHER_PADDING_ZEROS\000"
  53      544C535F 
  53      43495048 
  53      45525F50 
  53      41444449 
  54 0161 000000   		.align	2
  55              	.LC12:
  56 0164 4D424544 		.ascii	"MBEDTLS_REMOVE_ARC4_CIPHERSUITES\000"
  56      544C535F 
  56      52454D4F 
  56      56455F41 
  56      5243345F 
  57 0185 000000   		.align	2
  58              	.LC13:
  59 0188 4D424544 		.ascii	"MBEDTLS_ECP_DP_SECP192R1_ENABLED\000"
  59      544C535F 
  59      4543505F 
  59      44505F53 
ARM GAS  C:\Users\dtjld\AppData\Local\Temp\cckhfJK6.s 			page 3


  59      45435031 
  60 01a9 000000   		.align	2
  61              	.LC14:
  62 01ac 4D424544 		.ascii	"MBEDTLS_ECP_DP_SECP224R1_ENABLED\000"
  62      544C535F 
  62      4543505F 
  62      44505F53 
  62      45435032 
  63 01cd 000000   		.align	2
  64              	.LC15:
  65 01d0 4D424544 		.ascii	"MBEDTLS_ECP_DP_SECP256R1_ENABLED\000"
  65      544C535F 
  65      4543505F 
  65      44505F53 
  65      45435032 
  66 01f1 000000   		.align	2
  67              	.LC16:
  68 01f4 4D424544 		.ascii	"MBEDTLS_ECP_DP_SECP384R1_ENABLED\000"
  68      544C535F 
  68      4543505F 
  68      44505F53 
  68      45435033 
  69 0215 000000   		.align	2
  70              	.LC17:
  71 0218 4D424544 		.ascii	"MBEDTLS_ECP_DP_SECP521R1_ENABLED\000"
  71      544C535F 
  71      4543505F 
  71      44505F53 
  71      45435035 
  72 0239 000000   		.align	2
  73              	.LC18:
  74 023c 4D424544 		.ascii	"MBEDTLS_ECP_DP_SECP192K1_ENABLED\000"
  74      544C535F 
  74      4543505F 
  74      44505F53 
  74      45435031 
  75 025d 000000   		.align	2
  76              	.LC19:
  77 0260 4D424544 		.ascii	"MBEDTLS_ECP_DP_SECP224K1_ENABLED\000"
  77      544C535F 
  77      4543505F 
  77      44505F53 
  77      45435032 
  78 0281 000000   		.align	2
  79              	.LC20:
  80 0284 4D424544 		.ascii	"MBEDTLS_ECP_DP_SECP256K1_ENABLED\000"
  80      544C535F 
  80      4543505F 
  80      44505F53 
  80      45435032 
  81 02a5 000000   		.align	2
  82              	.LC21:
  83 02a8 4D424544 		.ascii	"MBEDTLS_ECP_DP_BP256R1_ENABLED\000"
  83      544C535F 
  83      4543505F 
  83      44505F42 
  83      50323536 
ARM GAS  C:\Users\dtjld\AppData\Local\Temp\cckhfJK6.s 			page 4


  84 02c7 00       		.align	2
  85              	.LC22:
  86 02c8 4D424544 		.ascii	"MBEDTLS_ECP_DP_BP384R1_ENABLED\000"
  86      544C535F 
  86      4543505F 
  86      44505F42 
  86      50333834 
  87 02e7 00       		.align	2
  88              	.LC23:
  89 02e8 4D424544 		.ascii	"MBEDTLS_ECP_DP_BP512R1_ENABLED\000"
  89      544C535F 
  89      4543505F 
  89      44505F42 
  89      50353132 
  90 0307 00       		.align	2
  91              	.LC24:
  92 0308 4D424544 		.ascii	"MBEDTLS_ECP_DP_CURVE25519_ENABLED\000"
  92      544C535F 
  92      4543505F 
  92      44505F43 
  92      55525645 
  93 032a 0000     		.align	2
  94              	.LC25:
  95 032c 4D424544 		.ascii	"MBEDTLS_ECP_NIST_OPTIM\000"
  95      544C535F 
  95      4543505F 
  95      4E495354 
  95      5F4F5054 
  96 0343 00       		.align	2
  97              	.LC26:
  98 0344 4D424544 		.ascii	"MBEDTLS_ECDSA_DETERMINISTIC\000"
  98      544C535F 
  98      45434453 
  98      415F4445 
  98      5445524D 
  99              		.align	2
 100              	.LC27:
 101 0360 4D424544 		.ascii	"MBEDTLS_KEY_EXCHANGE_PSK_ENABLED\000"
 101      544C535F 
 101      4B45595F 
 101      45584348 
 101      414E4745 
 102 0381 000000   		.align	2
 103              	.LC28:
 104 0384 4D424544 		.ascii	"MBEDTLS_KEY_EXCHANGE_DHE_PSK_ENABLED\000"
 104      544C535F 
 104      4B45595F 
 104      45584348 
 104      414E4745 
 105 03a9 000000   		.align	2
 106              	.LC29:
 107 03ac 4D424544 		.ascii	"MBEDTLS_KEY_EXCHANGE_ECDHE_PSK_ENABLED\000"
 107      544C535F 
 107      4B45595F 
 107      45584348 
 107      414E4745 
 108 03d3 00       		.align	2
ARM GAS  C:\Users\dtjld\AppData\Local\Temp\cckhfJK6.s 			page 5


 109              	.LC30:
 110 03d4 4D424544 		.ascii	"MBEDTLS_KEY_EXCHANGE_RSA_ENABLED\000"
 110      544C535F 
 110      4B45595F 
 110      45584348 
 110      414E4745 
 111 03f5 000000   		.align	2
 112              	.LC31:
 113 03f8 4D424544 		.ascii	"MBEDTLS_KEY_EXCHANGE_DHE_RSA_ENABLED\000"
 113      544C535F 
 113      4B45595F 
 113      45584348 
 113      414E4745 
 114 041d 000000   		.align	2
 115              	.LC32:
 116 0420 4D424544 		.ascii	"MBEDTLS_KEY_EXCHANGE_ECDHE_RSA_ENABLED\000"
 116      544C535F 
 116      4B45595F 
 116      45584348 
 116      414E4745 
 117 0447 00       		.align	2
 118              	.LC33:
 119 0448 4D424544 		.ascii	"MBEDTLS_KEY_EXCHANGE_ECDHE_ECDSA_ENABLED\000"
 119      544C535F 
 119      4B45595F 
 119      45584348 
 119      414E4745 
 120 0471 000000   		.align	2
 121              	.LC34:
 122 0474 4D424544 		.ascii	"MBEDTLS_KEY_EXCHANGE_ECDH_ECDSA_ENABLED\000"
 122      544C535F 
 122      4B45595F 
 122      45584348 
 122      414E4745 
 123              		.align	2
 124              	.LC35:
 125 049c 4D424544 		.ascii	"MBEDTLS_PK_PARSE_EC_EXTENDED\000"
 125      544C535F 
 125      504B5F50 
 125      41525345 
 125      5F45435F 
 126 04b9 000000   		.align	2
 127              	.LC36:
 128 04bc 4D424544 		.ascii	"MBEDTLS_ERROR_STRERROR_DUMMY\000"
 128      544C535F 
 128      4552524F 
 128      525F5354 
 128      52455252 
 129 04d9 000000   		.align	2
 130              	.LC37:
 131 04dc 4D424544 		.ascii	"MBEDTLS_GENPRIME\000"
 131      544C535F 
 131      47454E50 
 131      52494D45 
 131      00
 132 04ed 000000   		.align	2
 133              	.LC38:
ARM GAS  C:\Users\dtjld\AppData\Local\Temp\cckhfJK6.s 			page 6


 134 04f0 4D424544 		.ascii	"MBEDTLS_NO_PLATFORM_ENTROPY\000"
 134      544C535F 
 134      4E4F5F50 
 134      4C415446 
 134      4F524D5F 
 135              		.align	2
 136              	.LC39:
 137 050c 4D424544 		.ascii	"MBEDTLS_PK_RSA_ALT_SUPPORT\000"
 137      544C535F 
 137      504B5F52 
 137      53415F41 
 137      4C545F53 
 138 0527 00       		.align	2
 139              	.LC40:
 140 0528 4D424544 		.ascii	"MBEDTLS_PKCS1_V15\000"
 140      544C535F 
 140      504B4353 
 140      315F5631 
 140      3500
 141 053a 0000     		.align	2
 142              	.LC41:
 143 053c 4D424544 		.ascii	"MBEDTLS_PKCS1_V21\000"
 143      544C535F 
 143      504B4353 
 143      315F5632 
 143      3100
 144 054e 0000     		.align	2
 145              	.LC42:
 146 0550 4D424544 		.ascii	"MBEDTLS_SELF_TEST\000"
 146      544C535F 
 146      53454C46 
 146      5F544553 
 146      5400
 147 0562 0000     		.align	2
 148              	.LC43:
 149 0564 4D424544 		.ascii	"MBEDTLS_SSL_ALL_ALERT_MESSAGES\000"
 149      544C535F 
 149      53534C5F 
 149      414C4C5F 
 149      414C4552 
 150 0583 00       		.align	2
 151              	.LC44:
 152 0584 4D424544 		.ascii	"MBEDTLS_SSL_ENCRYPT_THEN_MAC\000"
 152      544C535F 
 152      53534C5F 
 152      454E4352 
 152      5950545F 
 153 05a1 000000   		.align	2
 154              	.LC45:
 155 05a4 4D424544 		.ascii	"MBEDTLS_SSL_EXTENDED_MASTER_SECRET\000"
 155      544C535F 
 155      53534C5F 
 155      45585445 
 155      4E444544 
 156 05c7 00       		.align	2
 157              	.LC46:
 158 05c8 4D424544 		.ascii	"MBEDTLS_SSL_FALLBACK_SCSV\000"
ARM GAS  C:\Users\dtjld\AppData\Local\Temp\cckhfJK6.s 			page 7


 158      544C535F 
 158      53534C5F 
 158      46414C4C 
 158      4241434B 
 159 05e2 0000     		.align	2
 160              	.LC47:
 161 05e4 4D424544 		.ascii	"MBEDTLS_SSL_CBC_RECORD_SPLITTING\000"
 161      544C535F 
 161      53534C5F 
 161      4342435F 
 161      5245434F 
 162 0605 000000   		.align	2
 163              	.LC48:
 164 0608 4D424544 		.ascii	"MBEDTLS_SSL_RENEGOTIATION\000"
 164      544C535F 
 164      53534C5F 
 164      52454E45 
 164      474F5449 
 165 0622 0000     		.align	2
 166              	.LC49:
 167 0624 4D424544 		.ascii	"MBEDTLS_SSL_MAX_FRAGMENT_LENGTH\000"
 167      544C535F 
 167      53534C5F 
 167      4D41585F 
 167      46524147 
 168              		.align	2
 169              	.LC50:
 170 0644 4D424544 		.ascii	"MBEDTLS_SSL_PROTO_TLS1\000"
 170      544C535F 
 170      53534C5F 
 170      50524F54 
 170      4F5F544C 
 171 065b 00       		.align	2
 172              	.LC51:
 173 065c 4D424544 		.ascii	"MBEDTLS_SSL_PROTO_TLS1_1\000"
 173      544C535F 
 173      53534C5F 
 173      50524F54 
 173      4F5F544C 
 174 0675 000000   		.align	2
 175              	.LC52:
 176 0678 4D424544 		.ascii	"MBEDTLS_SSL_PROTO_TLS1_2\000"
 176      544C535F 
 176      53534C5F 
 176      50524F54 
 176      4F5F544C 
 177 0691 000000   		.align	2
 178              	.LC53:
 179 0694 4D424544 		.ascii	"MBEDTLS_SSL_ALPN\000"
 179      544C535F 
 179      53534C5F 
 179      414C504E 
 179      00
 180 06a5 000000   		.align	2
 181              	.LC54:
 182 06a8 4D424544 		.ascii	"MBEDTLS_SSL_SESSION_TICKETS\000"
 182      544C535F 
ARM GAS  C:\Users\dtjld\AppData\Local\Temp\cckhfJK6.s 			page 8


 182      53534C5F 
 182      53455353 
 182      494F4E5F 
 183              		.align	2
 184              	.LC55:
 185 06c4 4D424544 		.ascii	"MBEDTLS_SSL_EXPORT_KEYS\000"
 185      544C535F 
 185      53534C5F 
 185      4558504F 
 185      52545F4B 
 186              		.align	2
 187              	.LC56:
 188 06dc 4D424544 		.ascii	"MBEDTLS_SSL_TRUNCATED_HMAC\000"
 188      544C535F 
 188      53534C5F 
 188      5452554E 
 188      43415445 
 189 06f7 00       		.align	2
 190              	.LC57:
 191 06f8 4D424544 		.ascii	"MBEDTLS_VERSION_FEATURES\000"
 191      544C535F 
 191      56455253 
 191      494F4E5F 
 191      46454154 
 192 0711 000000   		.align	2
 193              	.LC58:
 194 0714 4D424544 		.ascii	"MBEDTLS_X509_CHECK_KEY_USAGE\000"
 194      544C535F 
 194      58353039 
 194      5F434845 
 194      434B5F4B 
 195 0731 000000   		.align	2
 196              	.LC59:
 197 0734 4D424544 		.ascii	"MBEDTLS_X509_CHECK_EXTENDED_KEY_USAGE\000"
 197      544C535F 
 197      58353039 
 197      5F434845 
 197      434B5F45 
 198 075a 0000     		.align	2
 199              	.LC60:
 200 075c 4D424544 		.ascii	"MBEDTLS_X509_RSASSA_PSS_SUPPORT\000"
 200      544C535F 
 200      58353039 
 200      5F525341 
 200      5353415F 
 201              		.align	2
 202              	.LC61:
 203 077c 4D424544 		.ascii	"MBEDTLS_AES_C\000"
 203      544C535F 
 203      4145535F 
 203      4300
 204 078a 0000     		.align	2
 205              	.LC62:
 206 078c 4D424544 		.ascii	"MBEDTLS_ARC4_C\000"
 206      544C535F 
 206      41524334 
 206      5F4300
ARM GAS  C:\Users\dtjld\AppData\Local\Temp\cckhfJK6.s 			page 9


 207 079b 00       		.align	2
 208              	.LC63:
 209 079c 4D424544 		.ascii	"MBEDTLS_ASN1_PARSE_C\000"
 209      544C535F 
 209      41534E31 
 209      5F504152 
 209      53455F43 
 210 07b1 000000   		.align	2
 211              	.LC64:
 212 07b4 4D424544 		.ascii	"MBEDTLS_ASN1_WRITE_C\000"
 212      544C535F 
 212      41534E31 
 212      5F575249 
 212      54455F43 
 213 07c9 000000   		.align	2
 214              	.LC65:
 215 07cc 4D424544 		.ascii	"MBEDTLS_BASE64_C\000"
 215      544C535F 
 215      42415345 
 215      36345F43 
 215      00
 216 07dd 000000   		.align	2
 217              	.LC66:
 218 07e0 4D424544 		.ascii	"MBEDTLS_BIGNUM_C\000"
 218      544C535F 
 218      4249474E 
 218      554D5F43 
 218      00
 219 07f1 000000   		.align	2
 220              	.LC67:
 221 07f4 4D424544 		.ascii	"MBEDTLS_BLOWFISH_C\000"
 221      544C535F 
 221      424C4F57 
 221      46495348 
 221      5F4300
 222 0807 00       		.align	2
 223              	.LC68:
 224 0808 4D424544 		.ascii	"MBEDTLS_CAMELLIA_C\000"
 224      544C535F 
 224      43414D45 
 224      4C4C4941 
 224      5F4300
 225 081b 00       		.align	2
 226              	.LC69:
 227 081c 4D424544 		.ascii	"MBEDTLS_CCM_C\000"
 227      544C535F 
 227      43434D5F 
 227      4300
 228 082a 0000     		.align	2
 229              	.LC70:
 230 082c 4D424544 		.ascii	"MBEDTLS_CERTS_C\000"
 230      544C535F 
 230      43455254 
 230      535F4300 
 231              		.align	2
 232              	.LC71:
 233 083c 4D424544 		.ascii	"MBEDTLS_CIPHER_C\000"
ARM GAS  C:\Users\dtjld\AppData\Local\Temp\cckhfJK6.s 			page 10


 233      544C535F 
 233      43495048 
 233      45525F43 
 233      00
 234 084d 000000   		.align	2
 235              	.LC72:
 236 0850 4D424544 		.ascii	"MBEDTLS_CTR_DRBG_C\000"
 236      544C535F 
 236      4354525F 
 236      44524247 
 236      5F4300
 237 0863 00       		.align	2
 238              	.LC73:
 239 0864 4D424544 		.ascii	"MBEDTLS_DEBUG_C\000"
 239      544C535F 
 239      44454255 
 239      475F4300 
 240              		.align	2
 241              	.LC74:
 242 0874 4D424544 		.ascii	"MBEDTLS_DES_C\000"
 242      544C535F 
 242      4445535F 
 242      4300
 243 0882 0000     		.align	2
 244              	.LC75:
 245 0884 4D424544 		.ascii	"MBEDTLS_DHM_C\000"
 245      544C535F 
 245      44484D5F 
 245      4300
 246 0892 0000     		.align	2
 247              	.LC76:
 248 0894 4D424544 		.ascii	"MBEDTLS_ECDH_C\000"
 248      544C535F 
 248      45434448 
 248      5F4300
 249 08a3 00       		.align	2
 250              	.LC77:
 251 08a4 4D424544 		.ascii	"MBEDTLS_ECDSA_C\000"
 251      544C535F 
 251      45434453 
 251      415F4300 
 252              		.align	2
 253              	.LC78:
 254 08b4 4D424544 		.ascii	"MBEDTLS_ECP_C\000"
 254      544C535F 
 254      4543505F 
 254      4300
 255 08c2 0000     		.align	2
 256              	.LC79:
 257 08c4 4D424544 		.ascii	"MBEDTLS_ENTROPY_C\000"
 257      544C535F 
 257      454E5452 
 257      4F50595F 
 257      4300
 258 08d6 0000     		.align	2
 259              	.LC80:
 260 08d8 4D424544 		.ascii	"MBEDTLS_ERROR_C\000"
ARM GAS  C:\Users\dtjld\AppData\Local\Temp\cckhfJK6.s 			page 11


 260      544C535F 
 260      4552524F 
 260      525F4300 
 261              		.align	2
 262              	.LC81:
 263 08e8 4D424544 		.ascii	"MBEDTLS_GCM_C\000"
 263      544C535F 
 263      47434D5F 
 263      4300
 264 08f6 0000     		.align	2
 265              	.LC82:
 266 08f8 4D424544 		.ascii	"MBEDTLS_HMAC_DRBG_C\000"
 266      544C535F 
 266      484D4143 
 266      5F445242 
 266      475F4300 
 267              		.align	2
 268              	.LC83:
 269 090c 4D424544 		.ascii	"MBEDTLS_MD_C\000"
 269      544C535F 
 269      4D445F43 
 269      00
 270 0919 000000   		.align	2
 271              	.LC84:
 272 091c 4D424544 		.ascii	"MBEDTLS_MD5_C\000"
 272      544C535F 
 272      4D44355F 
 272      4300
 273 092a 0000     		.align	2
 274              	.LC85:
 275 092c 4D424544 		.ascii	"MBEDTLS_OID_C\000"
 275      544C535F 
 275      4F49445F 
 275      4300
 276 093a 0000     		.align	2
 277              	.LC86:
 278 093c 4D424544 		.ascii	"MBEDTLS_PEM_PARSE_C\000"
 278      544C535F 
 278      50454D5F 
 278      50415253 
 278      455F4300 
 279              		.align	2
 280              	.LC87:
 281 0950 4D424544 		.ascii	"MBEDTLS_PEM_WRITE_C\000"
 281      544C535F 
 281      50454D5F 
 281      57524954 
 281      455F4300 
 282              		.align	2
 283              	.LC88:
 284 0964 4D424544 		.ascii	"MBEDTLS_PK_C\000"
 284      544C535F 
 284      504B5F43 
 284      00
 285 0971 000000   		.align	2
 286              	.LC89:
 287 0974 4D424544 		.ascii	"MBEDTLS_PK_PARSE_C\000"
ARM GAS  C:\Users\dtjld\AppData\Local\Temp\cckhfJK6.s 			page 12


 287      544C535F 
 287      504B5F50 
 287      41525345 
 287      5F4300
 288 0987 00       		.align	2
 289              	.LC90:
 290 0988 4D424544 		.ascii	"MBEDTLS_PK_WRITE_C\000"
 290      544C535F 
 290      504B5F57 
 290      52495445 
 290      5F4300
 291 099b 00       		.align	2
 292              	.LC91:
 293 099c 4D424544 		.ascii	"MBEDTLS_PKCS5_C\000"
 293      544C535F 
 293      504B4353 
 293      355F4300 
 294              		.align	2
 295              	.LC92:
 296 09ac 4D424544 		.ascii	"MBEDTLS_PKCS12_C\000"
 296      544C535F 
 296      504B4353 
 296      31325F43 
 296      00
 297 09bd 000000   		.align	2
 298              	.LC93:
 299 09c0 4D424544 		.ascii	"MBEDTLS_PLATFORM_C\000"
 299      544C535F 
 299      504C4154 
 299      464F524D 
 299      5F4300
 300 09d3 00       		.align	2
 301              	.LC94:
 302 09d4 4D424544 		.ascii	"MBEDTLS_RIPEMD160_C\000"
 302      544C535F 
 302      52495045 
 302      4D443136 
 302      305F4300 
 303              		.align	2
 304              	.LC95:
 305 09e8 4D424544 		.ascii	"MBEDTLS_RSA_C\000"
 305      544C535F 
 305      5253415F 
 305      4300
 306 09f6 0000     		.align	2
 307              	.LC96:
 308 09f8 4D424544 		.ascii	"MBEDTLS_SHA1_C\000"
 308      544C535F 
 308      53484131 
 308      5F4300
 309 0a07 00       		.align	2
 310              	.LC97:
 311 0a08 4D424544 		.ascii	"MBEDTLS_SHA256_C\000"
 311      544C535F 
 311      53484132 
 311      35365F43 
 311      00
ARM GAS  C:\Users\dtjld\AppData\Local\Temp\cckhfJK6.s 			page 13


 312 0a19 000000   		.align	2
 313              	.LC98:
 314 0a1c 4D424544 		.ascii	"MBEDTLS_SHA512_C\000"
 314      544C535F 
 314      53484135 
 314      31325F43 
 314      00
 315 0a2d 000000   		.align	2
 316              	.LC99:
 317 0a30 4D424544 		.ascii	"MBEDTLS_SSL_CACHE_C\000"
 317      544C535F 
 317      53534C5F 
 317      43414348 
 317      455F4300 
 318              		.align	2
 319              	.LC100:
 320 0a44 4D424544 		.ascii	"MBEDTLS_SSL_COOKIE_C\000"
 320      544C535F 
 320      53534C5F 
 320      434F4F4B 
 320      49455F43 
 321 0a59 000000   		.align	2
 322              	.LC101:
 323 0a5c 4D424544 		.ascii	"MBEDTLS_SSL_TICKET_C\000"
 323      544C535F 
 323      53534C5F 
 323      5449434B 
 323      45545F43 
 324 0a71 000000   		.align	2
 325              	.LC102:
 326 0a74 4D424544 		.ascii	"MBEDTLS_SSL_CLI_C\000"
 326      544C535F 
 326      53534C5F 
 326      434C495F 
 326      4300
 327 0a86 0000     		.align	2
 328              	.LC103:
 329 0a88 4D424544 		.ascii	"MBEDTLS_SSL_TLS_C\000"
 329      544C535F 
 329      53534C5F 
 329      544C535F 
 329      4300
 330 0a9a 0000     		.align	2
 331              	.LC104:
 332 0a9c 4D424544 		.ascii	"MBEDTLS_VERSION_C\000"
 332      544C535F 
 332      56455253 
 332      494F4E5F 
 332      4300
 333 0aae 0000     		.align	2
 334              	.LC105:
 335 0ab0 4D424544 		.ascii	"MBEDTLS_X509_USE_C\000"
 335      544C535F 
 335      58353039 
 335      5F555345 
 335      5F4300
 336 0ac3 00       		.align	2
ARM GAS  C:\Users\dtjld\AppData\Local\Temp\cckhfJK6.s 			page 14


 337              	.LC106:
 338 0ac4 4D424544 		.ascii	"MBEDTLS_X509_CRT_PARSE_C\000"
 338      544C535F 
 338      58353039 
 338      5F435254 
 338      5F504152 
 339 0add 000000   		.align	2
 340              	.LC107:
 341 0ae0 4D424544 		.ascii	"MBEDTLS_X509_CRL_PARSE_C\000"
 341      544C535F 
 341      58353039 
 341      5F43524C 
 341      5F504152 
 342 0af9 000000   		.align	2
 343              	.LC108:
 344 0afc 4D424544 		.ascii	"MBEDTLS_X509_CSR_PARSE_C\000"
 344      544C535F 
 344      58353039 
 344      5F435352 
 344      5F504152 
 345 0b15 000000   		.align	2
 346              	.LC109:
 347 0b18 4D424544 		.ascii	"MBEDTLS_X509_CREATE_C\000"
 347      544C535F 
 347      58353039 
 347      5F435245 
 347      4154455F 
 348 0b2e 0000     		.align	2
 349              	.LC110:
 350 0b30 4D424544 		.ascii	"MBEDTLS_X509_CRT_WRITE_C\000"
 350      544C535F 
 350      58353039 
 350      5F435254 
 350      5F575249 
 351 0b49 000000   		.align	2
 352              	.LC111:
 353 0b4c 4D424544 		.ascii	"MBEDTLS_X509_CSR_WRITE_C\000"
 353      544C535F 
 353      58353039 
 353      5F435352 
 353      5F575249 
 354 0b65 000000   		.align	2
 355              	.LC112:
 356 0b68 4D424544 		.ascii	"MBEDTLS_XTEA_C\000"
 356      544C535F 
 356      58544541 
 356      5F4300
 357              		.section	.data.features,"aw",%progbits
 358              		.align	2
 361              	features:
 362 0000 00000000 		.word	.LC0
 363 0004 18000000 		.word	.LC1
 364 0008 34000000 		.word	.LC2
 365 000c 54000000 		.word	.LC3
 366 0010 74000000 		.word	.LC4
 367 0014 8C000000 		.word	.LC5
 368 0018 A4000000 		.word	.LC6
ARM GAS  C:\Users\dtjld\AppData\Local\Temp\cckhfJK6.s 			page 15


 369 001c BC000000 		.word	.LC7
 370 0020 D4000000 		.word	.LC8
 371 0024 F4000000 		.word	.LC9
 372 0028 1C010000 		.word	.LC10
 373 002c 44010000 		.word	.LC11
 374 0030 64010000 		.word	.LC12
 375 0034 88010000 		.word	.LC13
 376 0038 AC010000 		.word	.LC14
 377 003c D0010000 		.word	.LC15
 378 0040 F4010000 		.word	.LC16
 379 0044 18020000 		.word	.LC17
 380 0048 3C020000 		.word	.LC18
 381 004c 60020000 		.word	.LC19
 382 0050 84020000 		.word	.LC20
 383 0054 A8020000 		.word	.LC21
 384 0058 C8020000 		.word	.LC22
 385 005c E8020000 		.word	.LC23
 386 0060 08030000 		.word	.LC24
 387 0064 2C030000 		.word	.LC25
 388 0068 44030000 		.word	.LC26
 389 006c 60030000 		.word	.LC27
 390 0070 84030000 		.word	.LC28
 391 0074 AC030000 		.word	.LC29
 392 0078 D4030000 		.word	.LC30
 393 007c F8030000 		.word	.LC31
 394 0080 20040000 		.word	.LC32
 395 0084 48040000 		.word	.LC33
 396 0088 74040000 		.word	.LC34
 397 008c 9C040000 		.word	.LC35
 398 0090 BC040000 		.word	.LC36
 399 0094 DC040000 		.word	.LC37
 400 0098 F0040000 		.word	.LC38
 401 009c 0C050000 		.word	.LC39
 402 00a0 28050000 		.word	.LC40
 403 00a4 3C050000 		.word	.LC41
 404 00a8 50050000 		.word	.LC42
 405 00ac 64050000 		.word	.LC43
 406 00b0 84050000 		.word	.LC44
 407 00b4 A4050000 		.word	.LC45
 408 00b8 C8050000 		.word	.LC46
 409 00bc E4050000 		.word	.LC47
 410 00c0 08060000 		.word	.LC48
 411 00c4 24060000 		.word	.LC49
 412 00c8 44060000 		.word	.LC50
 413 00cc 5C060000 		.word	.LC51
 414 00d0 78060000 		.word	.LC52
 415 00d4 94060000 		.word	.LC53
 416 00d8 A8060000 		.word	.LC54
 417 00dc C4060000 		.word	.LC55
 418 00e0 DC060000 		.word	.LC56
 419 00e4 F8060000 		.word	.LC57
 420 00e8 14070000 		.word	.LC58
 421 00ec 34070000 		.word	.LC59
 422 00f0 5C070000 		.word	.LC60
 423 00f4 7C070000 		.word	.LC61
 424 00f8 8C070000 		.word	.LC62
 425 00fc 9C070000 		.word	.LC63
ARM GAS  C:\Users\dtjld\AppData\Local\Temp\cckhfJK6.s 			page 16


 426 0100 B4070000 		.word	.LC64
 427 0104 CC070000 		.word	.LC65
 428 0108 E0070000 		.word	.LC66
 429 010c F4070000 		.word	.LC67
 430 0110 08080000 		.word	.LC68
 431 0114 1C080000 		.word	.LC69
 432 0118 2C080000 		.word	.LC70
 433 011c 3C080000 		.word	.LC71
 434 0120 50080000 		.word	.LC72
 435 0124 64080000 		.word	.LC73
 436 0128 74080000 		.word	.LC74
 437 012c 84080000 		.word	.LC75
 438 0130 94080000 		.word	.LC76
 439 0134 A4080000 		.word	.LC77
 440 0138 B4080000 		.word	.LC78
 441 013c C4080000 		.word	.LC79
 442 0140 D8080000 		.word	.LC80
 443 0144 E8080000 		.word	.LC81
 444 0148 F8080000 		.word	.LC82
 445 014c 0C090000 		.word	.LC83
 446 0150 1C090000 		.word	.LC84
 447 0154 2C090000 		.word	.LC85
 448 0158 3C090000 		.word	.LC86
 449 015c 50090000 		.word	.LC87
 450 0160 64090000 		.word	.LC88
 451 0164 74090000 		.word	.LC89
 452 0168 88090000 		.word	.LC90
 453 016c 9C090000 		.word	.LC91
 454 0170 AC090000 		.word	.LC92
 455 0174 C0090000 		.word	.LC93
 456 0178 D4090000 		.word	.LC94
 457 017c E8090000 		.word	.LC95
 458 0180 F8090000 		.word	.LC96
 459 0184 080A0000 		.word	.LC97
 460 0188 1C0A0000 		.word	.LC98
 461 018c 300A0000 		.word	.LC99
 462 0190 440A0000 		.word	.LC100
 463 0194 5C0A0000 		.word	.LC101
 464 0198 740A0000 		.word	.LC102
 465 019c 880A0000 		.word	.LC103
 466 01a0 9C0A0000 		.word	.LC104
 467 01a4 B00A0000 		.word	.LC105
 468 01a8 C40A0000 		.word	.LC106
 469 01ac E00A0000 		.word	.LC107
 470 01b0 FC0A0000 		.word	.LC108
 471 01b4 180B0000 		.word	.LC109
 472 01b8 300B0000 		.word	.LC110
 473 01bc 4C0B0000 		.word	.LC111
 474 01c0 680B0000 		.word	.LC112
 475 01c4 00000000 		.word	0
 476              		.section	.text.mbedtls_version_check_feature,"ax",%progbits
 477              		.align	1
 478              		.global	mbedtls_version_check_feature
 479              		.syntax unified
 480              		.thumb
 481              		.thumb_func
 482              		.fpu fpv4-sp-d16
ARM GAS  C:\Users\dtjld\AppData\Local\Temp\cckhfJK6.s 			page 17


 484              	mbedtls_version_check_feature:
 485              	.LFB0:
 486              		.file 1 "C:/Users/dtjld/workspace/AIoT/src/LiteOS_Lab/iot_link/network/dtls/mbedtls/mbedtls-2.16.2
   1:C:/Users/dtjld/workspace/AIoT/src/LiteOS_Lab/iot_link/network/dtls/mbedtls/mbedtls-2.16.2/library\version_features.c **** /*
   2:C:/Users/dtjld/workspace/AIoT/src/LiteOS_Lab/iot_link/network/dtls/mbedtls/mbedtls-2.16.2/library\version_features.c ****  *  Version feature information
   3:C:/Users/dtjld/workspace/AIoT/src/LiteOS_Lab/iot_link/network/dtls/mbedtls/mbedtls-2.16.2/library\version_features.c ****  *
   4:C:/Users/dtjld/workspace/AIoT/src/LiteOS_Lab/iot_link/network/dtls/mbedtls/mbedtls-2.16.2/library\version_features.c ****  *  Copyright (C) 2006-2015, ARM Limited, All Rights Reserved
   5:C:/Users/dtjld/workspace/AIoT/src/LiteOS_Lab/iot_link/network/dtls/mbedtls/mbedtls-2.16.2/library\version_features.c ****  *  SPDX-License-Identifier: Apache-2.0
   6:C:/Users/dtjld/workspace/AIoT/src/LiteOS_Lab/iot_link/network/dtls/mbedtls/mbedtls-2.16.2/library\version_features.c ****  *
   7:C:/Users/dtjld/workspace/AIoT/src/LiteOS_Lab/iot_link/network/dtls/mbedtls/mbedtls-2.16.2/library\version_features.c ****  *  Licensed under the Apache License, Version 2.0 (the "License"); you may
   8:C:/Users/dtjld/workspace/AIoT/src/LiteOS_Lab/iot_link/network/dtls/mbedtls/mbedtls-2.16.2/library\version_features.c ****  *  not use this file except in compliance with the License.
   9:C:/Users/dtjld/workspace/AIoT/src/LiteOS_Lab/iot_link/network/dtls/mbedtls/mbedtls-2.16.2/library\version_features.c ****  *  You may obtain a copy of the License at
  10:C:/Users/dtjld/workspace/AIoT/src/LiteOS_Lab/iot_link/network/dtls/mbedtls/mbedtls-2.16.2/library\version_features.c ****  *
  11:C:/Users/dtjld/workspace/AIoT/src/LiteOS_Lab/iot_link/network/dtls/mbedtls/mbedtls-2.16.2/library\version_features.c ****  *  http://www.apache.org/licenses/LICENSE-2.0
  12:C:/Users/dtjld/workspace/AIoT/src/LiteOS_Lab/iot_link/network/dtls/mbedtls/mbedtls-2.16.2/library\version_features.c ****  *
  13:C:/Users/dtjld/workspace/AIoT/src/LiteOS_Lab/iot_link/network/dtls/mbedtls/mbedtls-2.16.2/library\version_features.c ****  *  Unless required by applicable law or agreed to in writing, software
  14:C:/Users/dtjld/workspace/AIoT/src/LiteOS_Lab/iot_link/network/dtls/mbedtls/mbedtls-2.16.2/library\version_features.c ****  *  distributed under the License is distributed on an "AS IS" BASIS, WITHOUT
  15:C:/Users/dtjld/workspace/AIoT/src/LiteOS_Lab/iot_link/network/dtls/mbedtls/mbedtls-2.16.2/library\version_features.c ****  *  WARRANTIES OR CONDITIONS OF ANY KIND, either express or implied.
  16:C:/Users/dtjld/workspace/AIoT/src/LiteOS_Lab/iot_link/network/dtls/mbedtls/mbedtls-2.16.2/library\version_features.c ****  *  See the License for the specific language governing permissions and
  17:C:/Users/dtjld/workspace/AIoT/src/LiteOS_Lab/iot_link/network/dtls/mbedtls/mbedtls-2.16.2/library\version_features.c ****  *  limitations under the License.
  18:C:/Users/dtjld/workspace/AIoT/src/LiteOS_Lab/iot_link/network/dtls/mbedtls/mbedtls-2.16.2/library\version_features.c ****  *
  19:C:/Users/dtjld/workspace/AIoT/src/LiteOS_Lab/iot_link/network/dtls/mbedtls/mbedtls-2.16.2/library\version_features.c ****  *  This file is part of mbed TLS (https://tls.mbed.org)
  20:C:/Users/dtjld/workspace/AIoT/src/LiteOS_Lab/iot_link/network/dtls/mbedtls/mbedtls-2.16.2/library\version_features.c ****  */
  21:C:/Users/dtjld/workspace/AIoT/src/LiteOS_Lab/iot_link/network/dtls/mbedtls/mbedtls-2.16.2/library\version_features.c **** 
  22:C:/Users/dtjld/workspace/AIoT/src/LiteOS_Lab/iot_link/network/dtls/mbedtls/mbedtls-2.16.2/library\version_features.c **** #if !defined(MBEDTLS_CONFIG_FILE)
  23:C:/Users/dtjld/workspace/AIoT/src/LiteOS_Lab/iot_link/network/dtls/mbedtls/mbedtls-2.16.2/library\version_features.c **** #include "mbedtls/config.h"
  24:C:/Users/dtjld/workspace/AIoT/src/LiteOS_Lab/iot_link/network/dtls/mbedtls/mbedtls-2.16.2/library\version_features.c **** #else
  25:C:/Users/dtjld/workspace/AIoT/src/LiteOS_Lab/iot_link/network/dtls/mbedtls/mbedtls-2.16.2/library\version_features.c **** #include MBEDTLS_CONFIG_FILE
  26:C:/Users/dtjld/workspace/AIoT/src/LiteOS_Lab/iot_link/network/dtls/mbedtls/mbedtls-2.16.2/library\version_features.c **** #endif
  27:C:/Users/dtjld/workspace/AIoT/src/LiteOS_Lab/iot_link/network/dtls/mbedtls/mbedtls-2.16.2/library\version_features.c **** 
  28:C:/Users/dtjld/workspace/AIoT/src/LiteOS_Lab/iot_link/network/dtls/mbedtls/mbedtls-2.16.2/library\version_features.c **** #if defined(MBEDTLS_VERSION_C)
  29:C:/Users/dtjld/workspace/AIoT/src/LiteOS_Lab/iot_link/network/dtls/mbedtls/mbedtls-2.16.2/library\version_features.c **** 
  30:C:/Users/dtjld/workspace/AIoT/src/LiteOS_Lab/iot_link/network/dtls/mbedtls/mbedtls-2.16.2/library\version_features.c **** #include "mbedtls/version.h"
  31:C:/Users/dtjld/workspace/AIoT/src/LiteOS_Lab/iot_link/network/dtls/mbedtls/mbedtls-2.16.2/library\version_features.c **** 
  32:C:/Users/dtjld/workspace/AIoT/src/LiteOS_Lab/iot_link/network/dtls/mbedtls/mbedtls-2.16.2/library\version_features.c **** #include <string.h>
  33:C:/Users/dtjld/workspace/AIoT/src/LiteOS_Lab/iot_link/network/dtls/mbedtls/mbedtls-2.16.2/library\version_features.c **** 
  34:C:/Users/dtjld/workspace/AIoT/src/LiteOS_Lab/iot_link/network/dtls/mbedtls/mbedtls-2.16.2/library\version_features.c **** static const char *features[] = {
  35:C:/Users/dtjld/workspace/AIoT/src/LiteOS_Lab/iot_link/network/dtls/mbedtls/mbedtls-2.16.2/library\version_features.c **** #if defined(MBEDTLS_VERSION_FEATURES)
  36:C:/Users/dtjld/workspace/AIoT/src/LiteOS_Lab/iot_link/network/dtls/mbedtls/mbedtls-2.16.2/library\version_features.c **** #if defined(MBEDTLS_HAVE_ASM)
  37:C:/Users/dtjld/workspace/AIoT/src/LiteOS_Lab/iot_link/network/dtls/mbedtls/mbedtls-2.16.2/library\version_features.c ****     "MBEDTLS_HAVE_ASM",
  38:C:/Users/dtjld/workspace/AIoT/src/LiteOS_Lab/iot_link/network/dtls/mbedtls/mbedtls-2.16.2/library\version_features.c **** #endif /* MBEDTLS_HAVE_ASM */
  39:C:/Users/dtjld/workspace/AIoT/src/LiteOS_Lab/iot_link/network/dtls/mbedtls/mbedtls-2.16.2/library\version_features.c **** #if defined(MBEDTLS_NO_UDBL_DIVISION)
  40:C:/Users/dtjld/workspace/AIoT/src/LiteOS_Lab/iot_link/network/dtls/mbedtls/mbedtls-2.16.2/library\version_features.c ****     "MBEDTLS_NO_UDBL_DIVISION",
  41:C:/Users/dtjld/workspace/AIoT/src/LiteOS_Lab/iot_link/network/dtls/mbedtls/mbedtls-2.16.2/library\version_features.c **** #endif /* MBEDTLS_NO_UDBL_DIVISION */
  42:C:/Users/dtjld/workspace/AIoT/src/LiteOS_Lab/iot_link/network/dtls/mbedtls/mbedtls-2.16.2/library\version_features.c **** #if defined(MBEDTLS_NO_64BIT_MULTIPLICATION)
  43:C:/Users/dtjld/workspace/AIoT/src/LiteOS_Lab/iot_link/network/dtls/mbedtls/mbedtls-2.16.2/library\version_features.c ****     "MBEDTLS_NO_64BIT_MULTIPLICATION",
  44:C:/Users/dtjld/workspace/AIoT/src/LiteOS_Lab/iot_link/network/dtls/mbedtls/mbedtls-2.16.2/library\version_features.c **** #endif /* MBEDTLS_NO_64BIT_MULTIPLICATION */
  45:C:/Users/dtjld/workspace/AIoT/src/LiteOS_Lab/iot_link/network/dtls/mbedtls/mbedtls-2.16.2/library\version_features.c **** #if defined(MBEDTLS_HAVE_SSE2)
  46:C:/Users/dtjld/workspace/AIoT/src/LiteOS_Lab/iot_link/network/dtls/mbedtls/mbedtls-2.16.2/library\version_features.c ****     "MBEDTLS_HAVE_SSE2",
  47:C:/Users/dtjld/workspace/AIoT/src/LiteOS_Lab/iot_link/network/dtls/mbedtls/mbedtls-2.16.2/library\version_features.c **** #endif /* MBEDTLS_HAVE_SSE2 */
  48:C:/Users/dtjld/workspace/AIoT/src/LiteOS_Lab/iot_link/network/dtls/mbedtls/mbedtls-2.16.2/library\version_features.c **** #if defined(MBEDTLS_HAVE_TIME)
  49:C:/Users/dtjld/workspace/AIoT/src/LiteOS_Lab/iot_link/network/dtls/mbedtls/mbedtls-2.16.2/library\version_features.c ****     "MBEDTLS_HAVE_TIME",
  50:C:/Users/dtjld/workspace/AIoT/src/LiteOS_Lab/iot_link/network/dtls/mbedtls/mbedtls-2.16.2/library\version_features.c **** #endif /* MBEDTLS_HAVE_TIME */
  51:C:/Users/dtjld/workspace/AIoT/src/LiteOS_Lab/iot_link/network/dtls/mbedtls/mbedtls-2.16.2/library\version_features.c **** #if defined(MBEDTLS_HAVE_TIME_DATE)
  52:C:/Users/dtjld/workspace/AIoT/src/LiteOS_Lab/iot_link/network/dtls/mbedtls/mbedtls-2.16.2/library\version_features.c ****     "MBEDTLS_HAVE_TIME_DATE",
  53:C:/Users/dtjld/workspace/AIoT/src/LiteOS_Lab/iot_link/network/dtls/mbedtls/mbedtls-2.16.2/library\version_features.c **** #endif /* MBEDTLS_HAVE_TIME_DATE */
  54:C:/Users/dtjld/workspace/AIoT/src/LiteOS_Lab/iot_link/network/dtls/mbedtls/mbedtls-2.16.2/library\version_features.c **** #if defined(MBEDTLS_PLATFORM_MEMORY)
ARM GAS  C:\Users\dtjld\AppData\Local\Temp\cckhfJK6.s 			page 18


  55:C:/Users/dtjld/workspace/AIoT/src/LiteOS_Lab/iot_link/network/dtls/mbedtls/mbedtls-2.16.2/library\version_features.c ****     "MBEDTLS_PLATFORM_MEMORY",
  56:C:/Users/dtjld/workspace/AIoT/src/LiteOS_Lab/iot_link/network/dtls/mbedtls/mbedtls-2.16.2/library\version_features.c **** #endif /* MBEDTLS_PLATFORM_MEMORY */
  57:C:/Users/dtjld/workspace/AIoT/src/LiteOS_Lab/iot_link/network/dtls/mbedtls/mbedtls-2.16.2/library\version_features.c **** #if defined(MBEDTLS_PLATFORM_NO_STD_FUNCTIONS)
  58:C:/Users/dtjld/workspace/AIoT/src/LiteOS_Lab/iot_link/network/dtls/mbedtls/mbedtls-2.16.2/library\version_features.c ****     "MBEDTLS_PLATFORM_NO_STD_FUNCTIONS",
  59:C:/Users/dtjld/workspace/AIoT/src/LiteOS_Lab/iot_link/network/dtls/mbedtls/mbedtls-2.16.2/library\version_features.c **** #endif /* MBEDTLS_PLATFORM_NO_STD_FUNCTIONS */
  60:C:/Users/dtjld/workspace/AIoT/src/LiteOS_Lab/iot_link/network/dtls/mbedtls/mbedtls-2.16.2/library\version_features.c **** #if defined(MBEDTLS_PLATFORM_EXIT_ALT)
  61:C:/Users/dtjld/workspace/AIoT/src/LiteOS_Lab/iot_link/network/dtls/mbedtls/mbedtls-2.16.2/library\version_features.c ****     "MBEDTLS_PLATFORM_EXIT_ALT",
  62:C:/Users/dtjld/workspace/AIoT/src/LiteOS_Lab/iot_link/network/dtls/mbedtls/mbedtls-2.16.2/library\version_features.c **** #endif /* MBEDTLS_PLATFORM_EXIT_ALT */
  63:C:/Users/dtjld/workspace/AIoT/src/LiteOS_Lab/iot_link/network/dtls/mbedtls/mbedtls-2.16.2/library\version_features.c **** #if defined(MBEDTLS_PLATFORM_TIME_ALT)
  64:C:/Users/dtjld/workspace/AIoT/src/LiteOS_Lab/iot_link/network/dtls/mbedtls/mbedtls-2.16.2/library\version_features.c ****     "MBEDTLS_PLATFORM_TIME_ALT",
  65:C:/Users/dtjld/workspace/AIoT/src/LiteOS_Lab/iot_link/network/dtls/mbedtls/mbedtls-2.16.2/library\version_features.c **** #endif /* MBEDTLS_PLATFORM_TIME_ALT */
  66:C:/Users/dtjld/workspace/AIoT/src/LiteOS_Lab/iot_link/network/dtls/mbedtls/mbedtls-2.16.2/library\version_features.c **** #if defined(MBEDTLS_PLATFORM_FPRINTF_ALT)
  67:C:/Users/dtjld/workspace/AIoT/src/LiteOS_Lab/iot_link/network/dtls/mbedtls/mbedtls-2.16.2/library\version_features.c ****     "MBEDTLS_PLATFORM_FPRINTF_ALT",
  68:C:/Users/dtjld/workspace/AIoT/src/LiteOS_Lab/iot_link/network/dtls/mbedtls/mbedtls-2.16.2/library\version_features.c **** #endif /* MBEDTLS_PLATFORM_FPRINTF_ALT */
  69:C:/Users/dtjld/workspace/AIoT/src/LiteOS_Lab/iot_link/network/dtls/mbedtls/mbedtls-2.16.2/library\version_features.c **** #if defined(MBEDTLS_PLATFORM_PRINTF_ALT)
  70:C:/Users/dtjld/workspace/AIoT/src/LiteOS_Lab/iot_link/network/dtls/mbedtls/mbedtls-2.16.2/library\version_features.c ****     "MBEDTLS_PLATFORM_PRINTF_ALT",
  71:C:/Users/dtjld/workspace/AIoT/src/LiteOS_Lab/iot_link/network/dtls/mbedtls/mbedtls-2.16.2/library\version_features.c **** #endif /* MBEDTLS_PLATFORM_PRINTF_ALT */
  72:C:/Users/dtjld/workspace/AIoT/src/LiteOS_Lab/iot_link/network/dtls/mbedtls/mbedtls-2.16.2/library\version_features.c **** #if defined(MBEDTLS_PLATFORM_SNPRINTF_ALT)
  73:C:/Users/dtjld/workspace/AIoT/src/LiteOS_Lab/iot_link/network/dtls/mbedtls/mbedtls-2.16.2/library\version_features.c ****     "MBEDTLS_PLATFORM_SNPRINTF_ALT",
  74:C:/Users/dtjld/workspace/AIoT/src/LiteOS_Lab/iot_link/network/dtls/mbedtls/mbedtls-2.16.2/library\version_features.c **** #endif /* MBEDTLS_PLATFORM_SNPRINTF_ALT */
  75:C:/Users/dtjld/workspace/AIoT/src/LiteOS_Lab/iot_link/network/dtls/mbedtls/mbedtls-2.16.2/library\version_features.c **** #if defined(MBEDTLS_PLATFORM_NV_SEED_ALT)
  76:C:/Users/dtjld/workspace/AIoT/src/LiteOS_Lab/iot_link/network/dtls/mbedtls/mbedtls-2.16.2/library\version_features.c ****     "MBEDTLS_PLATFORM_NV_SEED_ALT",
  77:C:/Users/dtjld/workspace/AIoT/src/LiteOS_Lab/iot_link/network/dtls/mbedtls/mbedtls-2.16.2/library\version_features.c **** #endif /* MBEDTLS_PLATFORM_NV_SEED_ALT */
  78:C:/Users/dtjld/workspace/AIoT/src/LiteOS_Lab/iot_link/network/dtls/mbedtls/mbedtls-2.16.2/library\version_features.c **** #if defined(MBEDTLS_PLATFORM_SETUP_TEARDOWN_ALT)
  79:C:/Users/dtjld/workspace/AIoT/src/LiteOS_Lab/iot_link/network/dtls/mbedtls/mbedtls-2.16.2/library\version_features.c ****     "MBEDTLS_PLATFORM_SETUP_TEARDOWN_ALT",
  80:C:/Users/dtjld/workspace/AIoT/src/LiteOS_Lab/iot_link/network/dtls/mbedtls/mbedtls-2.16.2/library\version_features.c **** #endif /* MBEDTLS_PLATFORM_SETUP_TEARDOWN_ALT */
  81:C:/Users/dtjld/workspace/AIoT/src/LiteOS_Lab/iot_link/network/dtls/mbedtls/mbedtls-2.16.2/library\version_features.c **** #if defined(MBEDTLS_DEPRECATED_WARNING)
  82:C:/Users/dtjld/workspace/AIoT/src/LiteOS_Lab/iot_link/network/dtls/mbedtls/mbedtls-2.16.2/library\version_features.c ****     "MBEDTLS_DEPRECATED_WARNING",
  83:C:/Users/dtjld/workspace/AIoT/src/LiteOS_Lab/iot_link/network/dtls/mbedtls/mbedtls-2.16.2/library\version_features.c **** #endif /* MBEDTLS_DEPRECATED_WARNING */
  84:C:/Users/dtjld/workspace/AIoT/src/LiteOS_Lab/iot_link/network/dtls/mbedtls/mbedtls-2.16.2/library\version_features.c **** #if defined(MBEDTLS_DEPRECATED_REMOVED)
  85:C:/Users/dtjld/workspace/AIoT/src/LiteOS_Lab/iot_link/network/dtls/mbedtls/mbedtls-2.16.2/library\version_features.c ****     "MBEDTLS_DEPRECATED_REMOVED",
  86:C:/Users/dtjld/workspace/AIoT/src/LiteOS_Lab/iot_link/network/dtls/mbedtls/mbedtls-2.16.2/library\version_features.c **** #endif /* MBEDTLS_DEPRECATED_REMOVED */
  87:C:/Users/dtjld/workspace/AIoT/src/LiteOS_Lab/iot_link/network/dtls/mbedtls/mbedtls-2.16.2/library\version_features.c **** #if defined(MBEDTLS_CHECK_PARAMS)
  88:C:/Users/dtjld/workspace/AIoT/src/LiteOS_Lab/iot_link/network/dtls/mbedtls/mbedtls-2.16.2/library\version_features.c ****     "MBEDTLS_CHECK_PARAMS",
  89:C:/Users/dtjld/workspace/AIoT/src/LiteOS_Lab/iot_link/network/dtls/mbedtls/mbedtls-2.16.2/library\version_features.c **** #endif /* MBEDTLS_CHECK_PARAMS */
  90:C:/Users/dtjld/workspace/AIoT/src/LiteOS_Lab/iot_link/network/dtls/mbedtls/mbedtls-2.16.2/library\version_features.c **** #if defined(MBEDTLS_TIMING_ALT)
  91:C:/Users/dtjld/workspace/AIoT/src/LiteOS_Lab/iot_link/network/dtls/mbedtls/mbedtls-2.16.2/library\version_features.c ****     "MBEDTLS_TIMING_ALT",
  92:C:/Users/dtjld/workspace/AIoT/src/LiteOS_Lab/iot_link/network/dtls/mbedtls/mbedtls-2.16.2/library\version_features.c **** #endif /* MBEDTLS_TIMING_ALT */
  93:C:/Users/dtjld/workspace/AIoT/src/LiteOS_Lab/iot_link/network/dtls/mbedtls/mbedtls-2.16.2/library\version_features.c **** #if defined(MBEDTLS_AES_ALT)
  94:C:/Users/dtjld/workspace/AIoT/src/LiteOS_Lab/iot_link/network/dtls/mbedtls/mbedtls-2.16.2/library\version_features.c ****     "MBEDTLS_AES_ALT",
  95:C:/Users/dtjld/workspace/AIoT/src/LiteOS_Lab/iot_link/network/dtls/mbedtls/mbedtls-2.16.2/library\version_features.c **** #endif /* MBEDTLS_AES_ALT */
  96:C:/Users/dtjld/workspace/AIoT/src/LiteOS_Lab/iot_link/network/dtls/mbedtls/mbedtls-2.16.2/library\version_features.c **** #if defined(MBEDTLS_ARC4_ALT)
  97:C:/Users/dtjld/workspace/AIoT/src/LiteOS_Lab/iot_link/network/dtls/mbedtls/mbedtls-2.16.2/library\version_features.c ****     "MBEDTLS_ARC4_ALT",
  98:C:/Users/dtjld/workspace/AIoT/src/LiteOS_Lab/iot_link/network/dtls/mbedtls/mbedtls-2.16.2/library\version_features.c **** #endif /* MBEDTLS_ARC4_ALT */
  99:C:/Users/dtjld/workspace/AIoT/src/LiteOS_Lab/iot_link/network/dtls/mbedtls/mbedtls-2.16.2/library\version_features.c **** #if defined(MBEDTLS_ARIA_ALT)
 100:C:/Users/dtjld/workspace/AIoT/src/LiteOS_Lab/iot_link/network/dtls/mbedtls/mbedtls-2.16.2/library\version_features.c ****     "MBEDTLS_ARIA_ALT",
 101:C:/Users/dtjld/workspace/AIoT/src/LiteOS_Lab/iot_link/network/dtls/mbedtls/mbedtls-2.16.2/library\version_features.c **** #endif /* MBEDTLS_ARIA_ALT */
 102:C:/Users/dtjld/workspace/AIoT/src/LiteOS_Lab/iot_link/network/dtls/mbedtls/mbedtls-2.16.2/library\version_features.c **** #if defined(MBEDTLS_BLOWFISH_ALT)
 103:C:/Users/dtjld/workspace/AIoT/src/LiteOS_Lab/iot_link/network/dtls/mbedtls/mbedtls-2.16.2/library\version_features.c ****     "MBEDTLS_BLOWFISH_ALT",
 104:C:/Users/dtjld/workspace/AIoT/src/LiteOS_Lab/iot_link/network/dtls/mbedtls/mbedtls-2.16.2/library\version_features.c **** #endif /* MBEDTLS_BLOWFISH_ALT */
 105:C:/Users/dtjld/workspace/AIoT/src/LiteOS_Lab/iot_link/network/dtls/mbedtls/mbedtls-2.16.2/library\version_features.c **** #if defined(MBEDTLS_CAMELLIA_ALT)
 106:C:/Users/dtjld/workspace/AIoT/src/LiteOS_Lab/iot_link/network/dtls/mbedtls/mbedtls-2.16.2/library\version_features.c ****     "MBEDTLS_CAMELLIA_ALT",
 107:C:/Users/dtjld/workspace/AIoT/src/LiteOS_Lab/iot_link/network/dtls/mbedtls/mbedtls-2.16.2/library\version_features.c **** #endif /* MBEDTLS_CAMELLIA_ALT */
 108:C:/Users/dtjld/workspace/AIoT/src/LiteOS_Lab/iot_link/network/dtls/mbedtls/mbedtls-2.16.2/library\version_features.c **** #if defined(MBEDTLS_CCM_ALT)
 109:C:/Users/dtjld/workspace/AIoT/src/LiteOS_Lab/iot_link/network/dtls/mbedtls/mbedtls-2.16.2/library\version_features.c ****     "MBEDTLS_CCM_ALT",
 110:C:/Users/dtjld/workspace/AIoT/src/LiteOS_Lab/iot_link/network/dtls/mbedtls/mbedtls-2.16.2/library\version_features.c **** #endif /* MBEDTLS_CCM_ALT */
 111:C:/Users/dtjld/workspace/AIoT/src/LiteOS_Lab/iot_link/network/dtls/mbedtls/mbedtls-2.16.2/library\version_features.c **** #if defined(MBEDTLS_CHACHA20_ALT)
ARM GAS  C:\Users\dtjld\AppData\Local\Temp\cckhfJK6.s 			page 19


 112:C:/Users/dtjld/workspace/AIoT/src/LiteOS_Lab/iot_link/network/dtls/mbedtls/mbedtls-2.16.2/library\version_features.c ****     "MBEDTLS_CHACHA20_ALT",
 113:C:/Users/dtjld/workspace/AIoT/src/LiteOS_Lab/iot_link/network/dtls/mbedtls/mbedtls-2.16.2/library\version_features.c **** #endif /* MBEDTLS_CHACHA20_ALT */
 114:C:/Users/dtjld/workspace/AIoT/src/LiteOS_Lab/iot_link/network/dtls/mbedtls/mbedtls-2.16.2/library\version_features.c **** #if defined(MBEDTLS_CHACHAPOLY_ALT)
 115:C:/Users/dtjld/workspace/AIoT/src/LiteOS_Lab/iot_link/network/dtls/mbedtls/mbedtls-2.16.2/library\version_features.c ****     "MBEDTLS_CHACHAPOLY_ALT",
 116:C:/Users/dtjld/workspace/AIoT/src/LiteOS_Lab/iot_link/network/dtls/mbedtls/mbedtls-2.16.2/library\version_features.c **** #endif /* MBEDTLS_CHACHAPOLY_ALT */
 117:C:/Users/dtjld/workspace/AIoT/src/LiteOS_Lab/iot_link/network/dtls/mbedtls/mbedtls-2.16.2/library\version_features.c **** #if defined(MBEDTLS_CMAC_ALT)
 118:C:/Users/dtjld/workspace/AIoT/src/LiteOS_Lab/iot_link/network/dtls/mbedtls/mbedtls-2.16.2/library\version_features.c ****     "MBEDTLS_CMAC_ALT",
 119:C:/Users/dtjld/workspace/AIoT/src/LiteOS_Lab/iot_link/network/dtls/mbedtls/mbedtls-2.16.2/library\version_features.c **** #endif /* MBEDTLS_CMAC_ALT */
 120:C:/Users/dtjld/workspace/AIoT/src/LiteOS_Lab/iot_link/network/dtls/mbedtls/mbedtls-2.16.2/library\version_features.c **** #if defined(MBEDTLS_DES_ALT)
 121:C:/Users/dtjld/workspace/AIoT/src/LiteOS_Lab/iot_link/network/dtls/mbedtls/mbedtls-2.16.2/library\version_features.c ****     "MBEDTLS_DES_ALT",
 122:C:/Users/dtjld/workspace/AIoT/src/LiteOS_Lab/iot_link/network/dtls/mbedtls/mbedtls-2.16.2/library\version_features.c **** #endif /* MBEDTLS_DES_ALT */
 123:C:/Users/dtjld/workspace/AIoT/src/LiteOS_Lab/iot_link/network/dtls/mbedtls/mbedtls-2.16.2/library\version_features.c **** #if defined(MBEDTLS_DHM_ALT)
 124:C:/Users/dtjld/workspace/AIoT/src/LiteOS_Lab/iot_link/network/dtls/mbedtls/mbedtls-2.16.2/library\version_features.c ****     "MBEDTLS_DHM_ALT",
 125:C:/Users/dtjld/workspace/AIoT/src/LiteOS_Lab/iot_link/network/dtls/mbedtls/mbedtls-2.16.2/library\version_features.c **** #endif /* MBEDTLS_DHM_ALT */
 126:C:/Users/dtjld/workspace/AIoT/src/LiteOS_Lab/iot_link/network/dtls/mbedtls/mbedtls-2.16.2/library\version_features.c **** #if defined(MBEDTLS_ECJPAKE_ALT)
 127:C:/Users/dtjld/workspace/AIoT/src/LiteOS_Lab/iot_link/network/dtls/mbedtls/mbedtls-2.16.2/library\version_features.c ****     "MBEDTLS_ECJPAKE_ALT",
 128:C:/Users/dtjld/workspace/AIoT/src/LiteOS_Lab/iot_link/network/dtls/mbedtls/mbedtls-2.16.2/library\version_features.c **** #endif /* MBEDTLS_ECJPAKE_ALT */
 129:C:/Users/dtjld/workspace/AIoT/src/LiteOS_Lab/iot_link/network/dtls/mbedtls/mbedtls-2.16.2/library\version_features.c **** #if defined(MBEDTLS_GCM_ALT)
 130:C:/Users/dtjld/workspace/AIoT/src/LiteOS_Lab/iot_link/network/dtls/mbedtls/mbedtls-2.16.2/library\version_features.c ****     "MBEDTLS_GCM_ALT",
 131:C:/Users/dtjld/workspace/AIoT/src/LiteOS_Lab/iot_link/network/dtls/mbedtls/mbedtls-2.16.2/library\version_features.c **** #endif /* MBEDTLS_GCM_ALT */
 132:C:/Users/dtjld/workspace/AIoT/src/LiteOS_Lab/iot_link/network/dtls/mbedtls/mbedtls-2.16.2/library\version_features.c **** #if defined(MBEDTLS_NIST_KW_ALT)
 133:C:/Users/dtjld/workspace/AIoT/src/LiteOS_Lab/iot_link/network/dtls/mbedtls/mbedtls-2.16.2/library\version_features.c ****     "MBEDTLS_NIST_KW_ALT",
 134:C:/Users/dtjld/workspace/AIoT/src/LiteOS_Lab/iot_link/network/dtls/mbedtls/mbedtls-2.16.2/library\version_features.c **** #endif /* MBEDTLS_NIST_KW_ALT */
 135:C:/Users/dtjld/workspace/AIoT/src/LiteOS_Lab/iot_link/network/dtls/mbedtls/mbedtls-2.16.2/library\version_features.c **** #if defined(MBEDTLS_MD2_ALT)
 136:C:/Users/dtjld/workspace/AIoT/src/LiteOS_Lab/iot_link/network/dtls/mbedtls/mbedtls-2.16.2/library\version_features.c ****     "MBEDTLS_MD2_ALT",
 137:C:/Users/dtjld/workspace/AIoT/src/LiteOS_Lab/iot_link/network/dtls/mbedtls/mbedtls-2.16.2/library\version_features.c **** #endif /* MBEDTLS_MD2_ALT */
 138:C:/Users/dtjld/workspace/AIoT/src/LiteOS_Lab/iot_link/network/dtls/mbedtls/mbedtls-2.16.2/library\version_features.c **** #if defined(MBEDTLS_MD4_ALT)
 139:C:/Users/dtjld/workspace/AIoT/src/LiteOS_Lab/iot_link/network/dtls/mbedtls/mbedtls-2.16.2/library\version_features.c ****     "MBEDTLS_MD4_ALT",
 140:C:/Users/dtjld/workspace/AIoT/src/LiteOS_Lab/iot_link/network/dtls/mbedtls/mbedtls-2.16.2/library\version_features.c **** #endif /* MBEDTLS_MD4_ALT */
 141:C:/Users/dtjld/workspace/AIoT/src/LiteOS_Lab/iot_link/network/dtls/mbedtls/mbedtls-2.16.2/library\version_features.c **** #if defined(MBEDTLS_MD5_ALT)
 142:C:/Users/dtjld/workspace/AIoT/src/LiteOS_Lab/iot_link/network/dtls/mbedtls/mbedtls-2.16.2/library\version_features.c ****     "MBEDTLS_MD5_ALT",
 143:C:/Users/dtjld/workspace/AIoT/src/LiteOS_Lab/iot_link/network/dtls/mbedtls/mbedtls-2.16.2/library\version_features.c **** #endif /* MBEDTLS_MD5_ALT */
 144:C:/Users/dtjld/workspace/AIoT/src/LiteOS_Lab/iot_link/network/dtls/mbedtls/mbedtls-2.16.2/library\version_features.c **** #if defined(MBEDTLS_POLY1305_ALT)
 145:C:/Users/dtjld/workspace/AIoT/src/LiteOS_Lab/iot_link/network/dtls/mbedtls/mbedtls-2.16.2/library\version_features.c ****     "MBEDTLS_POLY1305_ALT",
 146:C:/Users/dtjld/workspace/AIoT/src/LiteOS_Lab/iot_link/network/dtls/mbedtls/mbedtls-2.16.2/library\version_features.c **** #endif /* MBEDTLS_POLY1305_ALT */
 147:C:/Users/dtjld/workspace/AIoT/src/LiteOS_Lab/iot_link/network/dtls/mbedtls/mbedtls-2.16.2/library\version_features.c **** #if defined(MBEDTLS_RIPEMD160_ALT)
 148:C:/Users/dtjld/workspace/AIoT/src/LiteOS_Lab/iot_link/network/dtls/mbedtls/mbedtls-2.16.2/library\version_features.c ****     "MBEDTLS_RIPEMD160_ALT",
 149:C:/Users/dtjld/workspace/AIoT/src/LiteOS_Lab/iot_link/network/dtls/mbedtls/mbedtls-2.16.2/library\version_features.c **** #endif /* MBEDTLS_RIPEMD160_ALT */
 150:C:/Users/dtjld/workspace/AIoT/src/LiteOS_Lab/iot_link/network/dtls/mbedtls/mbedtls-2.16.2/library\version_features.c **** #if defined(MBEDTLS_RSA_ALT)
 151:C:/Users/dtjld/workspace/AIoT/src/LiteOS_Lab/iot_link/network/dtls/mbedtls/mbedtls-2.16.2/library\version_features.c ****     "MBEDTLS_RSA_ALT",
 152:C:/Users/dtjld/workspace/AIoT/src/LiteOS_Lab/iot_link/network/dtls/mbedtls/mbedtls-2.16.2/library\version_features.c **** #endif /* MBEDTLS_RSA_ALT */
 153:C:/Users/dtjld/workspace/AIoT/src/LiteOS_Lab/iot_link/network/dtls/mbedtls/mbedtls-2.16.2/library\version_features.c **** #if defined(MBEDTLS_SHA1_ALT)
 154:C:/Users/dtjld/workspace/AIoT/src/LiteOS_Lab/iot_link/network/dtls/mbedtls/mbedtls-2.16.2/library\version_features.c ****     "MBEDTLS_SHA1_ALT",
 155:C:/Users/dtjld/workspace/AIoT/src/LiteOS_Lab/iot_link/network/dtls/mbedtls/mbedtls-2.16.2/library\version_features.c **** #endif /* MBEDTLS_SHA1_ALT */
 156:C:/Users/dtjld/workspace/AIoT/src/LiteOS_Lab/iot_link/network/dtls/mbedtls/mbedtls-2.16.2/library\version_features.c **** #if defined(MBEDTLS_SHA256_ALT)
 157:C:/Users/dtjld/workspace/AIoT/src/LiteOS_Lab/iot_link/network/dtls/mbedtls/mbedtls-2.16.2/library\version_features.c ****     "MBEDTLS_SHA256_ALT",
 158:C:/Users/dtjld/workspace/AIoT/src/LiteOS_Lab/iot_link/network/dtls/mbedtls/mbedtls-2.16.2/library\version_features.c **** #endif /* MBEDTLS_SHA256_ALT */
 159:C:/Users/dtjld/workspace/AIoT/src/LiteOS_Lab/iot_link/network/dtls/mbedtls/mbedtls-2.16.2/library\version_features.c **** #if defined(MBEDTLS_SHA512_ALT)
 160:C:/Users/dtjld/workspace/AIoT/src/LiteOS_Lab/iot_link/network/dtls/mbedtls/mbedtls-2.16.2/library\version_features.c ****     "MBEDTLS_SHA512_ALT",
 161:C:/Users/dtjld/workspace/AIoT/src/LiteOS_Lab/iot_link/network/dtls/mbedtls/mbedtls-2.16.2/library\version_features.c **** #endif /* MBEDTLS_SHA512_ALT */
 162:C:/Users/dtjld/workspace/AIoT/src/LiteOS_Lab/iot_link/network/dtls/mbedtls/mbedtls-2.16.2/library\version_features.c **** #if defined(MBEDTLS_XTEA_ALT)
 163:C:/Users/dtjld/workspace/AIoT/src/LiteOS_Lab/iot_link/network/dtls/mbedtls/mbedtls-2.16.2/library\version_features.c ****     "MBEDTLS_XTEA_ALT",
 164:C:/Users/dtjld/workspace/AIoT/src/LiteOS_Lab/iot_link/network/dtls/mbedtls/mbedtls-2.16.2/library\version_features.c **** #endif /* MBEDTLS_XTEA_ALT */
 165:C:/Users/dtjld/workspace/AIoT/src/LiteOS_Lab/iot_link/network/dtls/mbedtls/mbedtls-2.16.2/library\version_features.c **** #if defined(MBEDTLS_ECP_ALT)
 166:C:/Users/dtjld/workspace/AIoT/src/LiteOS_Lab/iot_link/network/dtls/mbedtls/mbedtls-2.16.2/library\version_features.c ****     "MBEDTLS_ECP_ALT",
 167:C:/Users/dtjld/workspace/AIoT/src/LiteOS_Lab/iot_link/network/dtls/mbedtls/mbedtls-2.16.2/library\version_features.c **** #endif /* MBEDTLS_ECP_ALT */
 168:C:/Users/dtjld/workspace/AIoT/src/LiteOS_Lab/iot_link/network/dtls/mbedtls/mbedtls-2.16.2/library\version_features.c **** #if defined(MBEDTLS_MD2_PROCESS_ALT)
ARM GAS  C:\Users\dtjld\AppData\Local\Temp\cckhfJK6.s 			page 20


 169:C:/Users/dtjld/workspace/AIoT/src/LiteOS_Lab/iot_link/network/dtls/mbedtls/mbedtls-2.16.2/library\version_features.c ****     "MBEDTLS_MD2_PROCESS_ALT",
 170:C:/Users/dtjld/workspace/AIoT/src/LiteOS_Lab/iot_link/network/dtls/mbedtls/mbedtls-2.16.2/library\version_features.c **** #endif /* MBEDTLS_MD2_PROCESS_ALT */
 171:C:/Users/dtjld/workspace/AIoT/src/LiteOS_Lab/iot_link/network/dtls/mbedtls/mbedtls-2.16.2/library\version_features.c **** #if defined(MBEDTLS_MD4_PROCESS_ALT)
 172:C:/Users/dtjld/workspace/AIoT/src/LiteOS_Lab/iot_link/network/dtls/mbedtls/mbedtls-2.16.2/library\version_features.c ****     "MBEDTLS_MD4_PROCESS_ALT",
 173:C:/Users/dtjld/workspace/AIoT/src/LiteOS_Lab/iot_link/network/dtls/mbedtls/mbedtls-2.16.2/library\version_features.c **** #endif /* MBEDTLS_MD4_PROCESS_ALT */
 174:C:/Users/dtjld/workspace/AIoT/src/LiteOS_Lab/iot_link/network/dtls/mbedtls/mbedtls-2.16.2/library\version_features.c **** #if defined(MBEDTLS_MD5_PROCESS_ALT)
 175:C:/Users/dtjld/workspace/AIoT/src/LiteOS_Lab/iot_link/network/dtls/mbedtls/mbedtls-2.16.2/library\version_features.c ****     "MBEDTLS_MD5_PROCESS_ALT",
 176:C:/Users/dtjld/workspace/AIoT/src/LiteOS_Lab/iot_link/network/dtls/mbedtls/mbedtls-2.16.2/library\version_features.c **** #endif /* MBEDTLS_MD5_PROCESS_ALT */
 177:C:/Users/dtjld/workspace/AIoT/src/LiteOS_Lab/iot_link/network/dtls/mbedtls/mbedtls-2.16.2/library\version_features.c **** #if defined(MBEDTLS_RIPEMD160_PROCESS_ALT)
 178:C:/Users/dtjld/workspace/AIoT/src/LiteOS_Lab/iot_link/network/dtls/mbedtls/mbedtls-2.16.2/library\version_features.c ****     "MBEDTLS_RIPEMD160_PROCESS_ALT",
 179:C:/Users/dtjld/workspace/AIoT/src/LiteOS_Lab/iot_link/network/dtls/mbedtls/mbedtls-2.16.2/library\version_features.c **** #endif /* MBEDTLS_RIPEMD160_PROCESS_ALT */
 180:C:/Users/dtjld/workspace/AIoT/src/LiteOS_Lab/iot_link/network/dtls/mbedtls/mbedtls-2.16.2/library\version_features.c **** #if defined(MBEDTLS_SHA1_PROCESS_ALT)
 181:C:/Users/dtjld/workspace/AIoT/src/LiteOS_Lab/iot_link/network/dtls/mbedtls/mbedtls-2.16.2/library\version_features.c ****     "MBEDTLS_SHA1_PROCESS_ALT",
 182:C:/Users/dtjld/workspace/AIoT/src/LiteOS_Lab/iot_link/network/dtls/mbedtls/mbedtls-2.16.2/library\version_features.c **** #endif /* MBEDTLS_SHA1_PROCESS_ALT */
 183:C:/Users/dtjld/workspace/AIoT/src/LiteOS_Lab/iot_link/network/dtls/mbedtls/mbedtls-2.16.2/library\version_features.c **** #if defined(MBEDTLS_SHA256_PROCESS_ALT)
 184:C:/Users/dtjld/workspace/AIoT/src/LiteOS_Lab/iot_link/network/dtls/mbedtls/mbedtls-2.16.2/library\version_features.c ****     "MBEDTLS_SHA256_PROCESS_ALT",
 185:C:/Users/dtjld/workspace/AIoT/src/LiteOS_Lab/iot_link/network/dtls/mbedtls/mbedtls-2.16.2/library\version_features.c **** #endif /* MBEDTLS_SHA256_PROCESS_ALT */
 186:C:/Users/dtjld/workspace/AIoT/src/LiteOS_Lab/iot_link/network/dtls/mbedtls/mbedtls-2.16.2/library\version_features.c **** #if defined(MBEDTLS_SHA512_PROCESS_ALT)
 187:C:/Users/dtjld/workspace/AIoT/src/LiteOS_Lab/iot_link/network/dtls/mbedtls/mbedtls-2.16.2/library\version_features.c ****     "MBEDTLS_SHA512_PROCESS_ALT",
 188:C:/Users/dtjld/workspace/AIoT/src/LiteOS_Lab/iot_link/network/dtls/mbedtls/mbedtls-2.16.2/library\version_features.c **** #endif /* MBEDTLS_SHA512_PROCESS_ALT */
 189:C:/Users/dtjld/workspace/AIoT/src/LiteOS_Lab/iot_link/network/dtls/mbedtls/mbedtls-2.16.2/library\version_features.c **** #if defined(MBEDTLS_DES_SETKEY_ALT)
 190:C:/Users/dtjld/workspace/AIoT/src/LiteOS_Lab/iot_link/network/dtls/mbedtls/mbedtls-2.16.2/library\version_features.c ****     "MBEDTLS_DES_SETKEY_ALT",
 191:C:/Users/dtjld/workspace/AIoT/src/LiteOS_Lab/iot_link/network/dtls/mbedtls/mbedtls-2.16.2/library\version_features.c **** #endif /* MBEDTLS_DES_SETKEY_ALT */
 192:C:/Users/dtjld/workspace/AIoT/src/LiteOS_Lab/iot_link/network/dtls/mbedtls/mbedtls-2.16.2/library\version_features.c **** #if defined(MBEDTLS_DES_CRYPT_ECB_ALT)
 193:C:/Users/dtjld/workspace/AIoT/src/LiteOS_Lab/iot_link/network/dtls/mbedtls/mbedtls-2.16.2/library\version_features.c ****     "MBEDTLS_DES_CRYPT_ECB_ALT",
 194:C:/Users/dtjld/workspace/AIoT/src/LiteOS_Lab/iot_link/network/dtls/mbedtls/mbedtls-2.16.2/library\version_features.c **** #endif /* MBEDTLS_DES_CRYPT_ECB_ALT */
 195:C:/Users/dtjld/workspace/AIoT/src/LiteOS_Lab/iot_link/network/dtls/mbedtls/mbedtls-2.16.2/library\version_features.c **** #if defined(MBEDTLS_DES3_CRYPT_ECB_ALT)
 196:C:/Users/dtjld/workspace/AIoT/src/LiteOS_Lab/iot_link/network/dtls/mbedtls/mbedtls-2.16.2/library\version_features.c ****     "MBEDTLS_DES3_CRYPT_ECB_ALT",
 197:C:/Users/dtjld/workspace/AIoT/src/LiteOS_Lab/iot_link/network/dtls/mbedtls/mbedtls-2.16.2/library\version_features.c **** #endif /* MBEDTLS_DES3_CRYPT_ECB_ALT */
 198:C:/Users/dtjld/workspace/AIoT/src/LiteOS_Lab/iot_link/network/dtls/mbedtls/mbedtls-2.16.2/library\version_features.c **** #if defined(MBEDTLS_AES_SETKEY_ENC_ALT)
 199:C:/Users/dtjld/workspace/AIoT/src/LiteOS_Lab/iot_link/network/dtls/mbedtls/mbedtls-2.16.2/library\version_features.c ****     "MBEDTLS_AES_SETKEY_ENC_ALT",
 200:C:/Users/dtjld/workspace/AIoT/src/LiteOS_Lab/iot_link/network/dtls/mbedtls/mbedtls-2.16.2/library\version_features.c **** #endif /* MBEDTLS_AES_SETKEY_ENC_ALT */
 201:C:/Users/dtjld/workspace/AIoT/src/LiteOS_Lab/iot_link/network/dtls/mbedtls/mbedtls-2.16.2/library\version_features.c **** #if defined(MBEDTLS_AES_SETKEY_DEC_ALT)
 202:C:/Users/dtjld/workspace/AIoT/src/LiteOS_Lab/iot_link/network/dtls/mbedtls/mbedtls-2.16.2/library\version_features.c ****     "MBEDTLS_AES_SETKEY_DEC_ALT",
 203:C:/Users/dtjld/workspace/AIoT/src/LiteOS_Lab/iot_link/network/dtls/mbedtls/mbedtls-2.16.2/library\version_features.c **** #endif /* MBEDTLS_AES_SETKEY_DEC_ALT */
 204:C:/Users/dtjld/workspace/AIoT/src/LiteOS_Lab/iot_link/network/dtls/mbedtls/mbedtls-2.16.2/library\version_features.c **** #if defined(MBEDTLS_AES_ENCRYPT_ALT)
 205:C:/Users/dtjld/workspace/AIoT/src/LiteOS_Lab/iot_link/network/dtls/mbedtls/mbedtls-2.16.2/library\version_features.c ****     "MBEDTLS_AES_ENCRYPT_ALT",
 206:C:/Users/dtjld/workspace/AIoT/src/LiteOS_Lab/iot_link/network/dtls/mbedtls/mbedtls-2.16.2/library\version_features.c **** #endif /* MBEDTLS_AES_ENCRYPT_ALT */
 207:C:/Users/dtjld/workspace/AIoT/src/LiteOS_Lab/iot_link/network/dtls/mbedtls/mbedtls-2.16.2/library\version_features.c **** #if defined(MBEDTLS_AES_DECRYPT_ALT)
 208:C:/Users/dtjld/workspace/AIoT/src/LiteOS_Lab/iot_link/network/dtls/mbedtls/mbedtls-2.16.2/library\version_features.c ****     "MBEDTLS_AES_DECRYPT_ALT",
 209:C:/Users/dtjld/workspace/AIoT/src/LiteOS_Lab/iot_link/network/dtls/mbedtls/mbedtls-2.16.2/library\version_features.c **** #endif /* MBEDTLS_AES_DECRYPT_ALT */
 210:C:/Users/dtjld/workspace/AIoT/src/LiteOS_Lab/iot_link/network/dtls/mbedtls/mbedtls-2.16.2/library\version_features.c **** #if defined(MBEDTLS_ECDH_GEN_PUBLIC_ALT)
 211:C:/Users/dtjld/workspace/AIoT/src/LiteOS_Lab/iot_link/network/dtls/mbedtls/mbedtls-2.16.2/library\version_features.c ****     "MBEDTLS_ECDH_GEN_PUBLIC_ALT",
 212:C:/Users/dtjld/workspace/AIoT/src/LiteOS_Lab/iot_link/network/dtls/mbedtls/mbedtls-2.16.2/library\version_features.c **** #endif /* MBEDTLS_ECDH_GEN_PUBLIC_ALT */
 213:C:/Users/dtjld/workspace/AIoT/src/LiteOS_Lab/iot_link/network/dtls/mbedtls/mbedtls-2.16.2/library\version_features.c **** #if defined(MBEDTLS_ECDH_COMPUTE_SHARED_ALT)
 214:C:/Users/dtjld/workspace/AIoT/src/LiteOS_Lab/iot_link/network/dtls/mbedtls/mbedtls-2.16.2/library\version_features.c ****     "MBEDTLS_ECDH_COMPUTE_SHARED_ALT",
 215:C:/Users/dtjld/workspace/AIoT/src/LiteOS_Lab/iot_link/network/dtls/mbedtls/mbedtls-2.16.2/library\version_features.c **** #endif /* MBEDTLS_ECDH_COMPUTE_SHARED_ALT */
 216:C:/Users/dtjld/workspace/AIoT/src/LiteOS_Lab/iot_link/network/dtls/mbedtls/mbedtls-2.16.2/library\version_features.c **** #if defined(MBEDTLS_ECDSA_VERIFY_ALT)
 217:C:/Users/dtjld/workspace/AIoT/src/LiteOS_Lab/iot_link/network/dtls/mbedtls/mbedtls-2.16.2/library\version_features.c ****     "MBEDTLS_ECDSA_VERIFY_ALT",
 218:C:/Users/dtjld/workspace/AIoT/src/LiteOS_Lab/iot_link/network/dtls/mbedtls/mbedtls-2.16.2/library\version_features.c **** #endif /* MBEDTLS_ECDSA_VERIFY_ALT */
 219:C:/Users/dtjld/workspace/AIoT/src/LiteOS_Lab/iot_link/network/dtls/mbedtls/mbedtls-2.16.2/library\version_features.c **** #if defined(MBEDTLS_ECDSA_SIGN_ALT)
 220:C:/Users/dtjld/workspace/AIoT/src/LiteOS_Lab/iot_link/network/dtls/mbedtls/mbedtls-2.16.2/library\version_features.c ****     "MBEDTLS_ECDSA_SIGN_ALT",
 221:C:/Users/dtjld/workspace/AIoT/src/LiteOS_Lab/iot_link/network/dtls/mbedtls/mbedtls-2.16.2/library\version_features.c **** #endif /* MBEDTLS_ECDSA_SIGN_ALT */
 222:C:/Users/dtjld/workspace/AIoT/src/LiteOS_Lab/iot_link/network/dtls/mbedtls/mbedtls-2.16.2/library\version_features.c **** #if defined(MBEDTLS_ECDSA_GENKEY_ALT)
 223:C:/Users/dtjld/workspace/AIoT/src/LiteOS_Lab/iot_link/network/dtls/mbedtls/mbedtls-2.16.2/library\version_features.c ****     "MBEDTLS_ECDSA_GENKEY_ALT",
 224:C:/Users/dtjld/workspace/AIoT/src/LiteOS_Lab/iot_link/network/dtls/mbedtls/mbedtls-2.16.2/library\version_features.c **** #endif /* MBEDTLS_ECDSA_GENKEY_ALT */
 225:C:/Users/dtjld/workspace/AIoT/src/LiteOS_Lab/iot_link/network/dtls/mbedtls/mbedtls-2.16.2/library\version_features.c **** #if defined(MBEDTLS_ECP_INTERNAL_ALT)
ARM GAS  C:\Users\dtjld\AppData\Local\Temp\cckhfJK6.s 			page 21


 226:C:/Users/dtjld/workspace/AIoT/src/LiteOS_Lab/iot_link/network/dtls/mbedtls/mbedtls-2.16.2/library\version_features.c ****     "MBEDTLS_ECP_INTERNAL_ALT",
 227:C:/Users/dtjld/workspace/AIoT/src/LiteOS_Lab/iot_link/network/dtls/mbedtls/mbedtls-2.16.2/library\version_features.c **** #endif /* MBEDTLS_ECP_INTERNAL_ALT */
 228:C:/Users/dtjld/workspace/AIoT/src/LiteOS_Lab/iot_link/network/dtls/mbedtls/mbedtls-2.16.2/library\version_features.c **** #if defined(MBEDTLS_ECP_RANDOMIZE_JAC_ALT)
 229:C:/Users/dtjld/workspace/AIoT/src/LiteOS_Lab/iot_link/network/dtls/mbedtls/mbedtls-2.16.2/library\version_features.c ****     "MBEDTLS_ECP_RANDOMIZE_JAC_ALT",
 230:C:/Users/dtjld/workspace/AIoT/src/LiteOS_Lab/iot_link/network/dtls/mbedtls/mbedtls-2.16.2/library\version_features.c **** #endif /* MBEDTLS_ECP_RANDOMIZE_JAC_ALT */
 231:C:/Users/dtjld/workspace/AIoT/src/LiteOS_Lab/iot_link/network/dtls/mbedtls/mbedtls-2.16.2/library\version_features.c **** #if defined(MBEDTLS_ECP_ADD_MIXED_ALT)
 232:C:/Users/dtjld/workspace/AIoT/src/LiteOS_Lab/iot_link/network/dtls/mbedtls/mbedtls-2.16.2/library\version_features.c ****     "MBEDTLS_ECP_ADD_MIXED_ALT",
 233:C:/Users/dtjld/workspace/AIoT/src/LiteOS_Lab/iot_link/network/dtls/mbedtls/mbedtls-2.16.2/library\version_features.c **** #endif /* MBEDTLS_ECP_ADD_MIXED_ALT */
 234:C:/Users/dtjld/workspace/AIoT/src/LiteOS_Lab/iot_link/network/dtls/mbedtls/mbedtls-2.16.2/library\version_features.c **** #if defined(MBEDTLS_ECP_DOUBLE_JAC_ALT)
 235:C:/Users/dtjld/workspace/AIoT/src/LiteOS_Lab/iot_link/network/dtls/mbedtls/mbedtls-2.16.2/library\version_features.c ****     "MBEDTLS_ECP_DOUBLE_JAC_ALT",
 236:C:/Users/dtjld/workspace/AIoT/src/LiteOS_Lab/iot_link/network/dtls/mbedtls/mbedtls-2.16.2/library\version_features.c **** #endif /* MBEDTLS_ECP_DOUBLE_JAC_ALT */
 237:C:/Users/dtjld/workspace/AIoT/src/LiteOS_Lab/iot_link/network/dtls/mbedtls/mbedtls-2.16.2/library\version_features.c **** #if defined(MBEDTLS_ECP_NORMALIZE_JAC_MANY_ALT)
 238:C:/Users/dtjld/workspace/AIoT/src/LiteOS_Lab/iot_link/network/dtls/mbedtls/mbedtls-2.16.2/library\version_features.c ****     "MBEDTLS_ECP_NORMALIZE_JAC_MANY_ALT",
 239:C:/Users/dtjld/workspace/AIoT/src/LiteOS_Lab/iot_link/network/dtls/mbedtls/mbedtls-2.16.2/library\version_features.c **** #endif /* MBEDTLS_ECP_NORMALIZE_JAC_MANY_ALT */
 240:C:/Users/dtjld/workspace/AIoT/src/LiteOS_Lab/iot_link/network/dtls/mbedtls/mbedtls-2.16.2/library\version_features.c **** #if defined(MBEDTLS_ECP_NORMALIZE_JAC_ALT)
 241:C:/Users/dtjld/workspace/AIoT/src/LiteOS_Lab/iot_link/network/dtls/mbedtls/mbedtls-2.16.2/library\version_features.c ****     "MBEDTLS_ECP_NORMALIZE_JAC_ALT",
 242:C:/Users/dtjld/workspace/AIoT/src/LiteOS_Lab/iot_link/network/dtls/mbedtls/mbedtls-2.16.2/library\version_features.c **** #endif /* MBEDTLS_ECP_NORMALIZE_JAC_ALT */
 243:C:/Users/dtjld/workspace/AIoT/src/LiteOS_Lab/iot_link/network/dtls/mbedtls/mbedtls-2.16.2/library\version_features.c **** #if defined(MBEDTLS_ECP_DOUBLE_ADD_MXZ_ALT)
 244:C:/Users/dtjld/workspace/AIoT/src/LiteOS_Lab/iot_link/network/dtls/mbedtls/mbedtls-2.16.2/library\version_features.c ****     "MBEDTLS_ECP_DOUBLE_ADD_MXZ_ALT",
 245:C:/Users/dtjld/workspace/AIoT/src/LiteOS_Lab/iot_link/network/dtls/mbedtls/mbedtls-2.16.2/library\version_features.c **** #endif /* MBEDTLS_ECP_DOUBLE_ADD_MXZ_ALT */
 246:C:/Users/dtjld/workspace/AIoT/src/LiteOS_Lab/iot_link/network/dtls/mbedtls/mbedtls-2.16.2/library\version_features.c **** #if defined(MBEDTLS_ECP_RANDOMIZE_MXZ_ALT)
 247:C:/Users/dtjld/workspace/AIoT/src/LiteOS_Lab/iot_link/network/dtls/mbedtls/mbedtls-2.16.2/library\version_features.c ****     "MBEDTLS_ECP_RANDOMIZE_MXZ_ALT",
 248:C:/Users/dtjld/workspace/AIoT/src/LiteOS_Lab/iot_link/network/dtls/mbedtls/mbedtls-2.16.2/library\version_features.c **** #endif /* MBEDTLS_ECP_RANDOMIZE_MXZ_ALT */
 249:C:/Users/dtjld/workspace/AIoT/src/LiteOS_Lab/iot_link/network/dtls/mbedtls/mbedtls-2.16.2/library\version_features.c **** #if defined(MBEDTLS_ECP_NORMALIZE_MXZ_ALT)
 250:C:/Users/dtjld/workspace/AIoT/src/LiteOS_Lab/iot_link/network/dtls/mbedtls/mbedtls-2.16.2/library\version_features.c ****     "MBEDTLS_ECP_NORMALIZE_MXZ_ALT",
 251:C:/Users/dtjld/workspace/AIoT/src/LiteOS_Lab/iot_link/network/dtls/mbedtls/mbedtls-2.16.2/library\version_features.c **** #endif /* MBEDTLS_ECP_NORMALIZE_MXZ_ALT */
 252:C:/Users/dtjld/workspace/AIoT/src/LiteOS_Lab/iot_link/network/dtls/mbedtls/mbedtls-2.16.2/library\version_features.c **** #if defined(MBEDTLS_TEST_NULL_ENTROPY)
 253:C:/Users/dtjld/workspace/AIoT/src/LiteOS_Lab/iot_link/network/dtls/mbedtls/mbedtls-2.16.2/library\version_features.c ****     "MBEDTLS_TEST_NULL_ENTROPY",
 254:C:/Users/dtjld/workspace/AIoT/src/LiteOS_Lab/iot_link/network/dtls/mbedtls/mbedtls-2.16.2/library\version_features.c **** #endif /* MBEDTLS_TEST_NULL_ENTROPY */
 255:C:/Users/dtjld/workspace/AIoT/src/LiteOS_Lab/iot_link/network/dtls/mbedtls/mbedtls-2.16.2/library\version_features.c **** #if defined(MBEDTLS_ENTROPY_HARDWARE_ALT)
 256:C:/Users/dtjld/workspace/AIoT/src/LiteOS_Lab/iot_link/network/dtls/mbedtls/mbedtls-2.16.2/library\version_features.c ****     "MBEDTLS_ENTROPY_HARDWARE_ALT",
 257:C:/Users/dtjld/workspace/AIoT/src/LiteOS_Lab/iot_link/network/dtls/mbedtls/mbedtls-2.16.2/library\version_features.c **** #endif /* MBEDTLS_ENTROPY_HARDWARE_ALT */
 258:C:/Users/dtjld/workspace/AIoT/src/LiteOS_Lab/iot_link/network/dtls/mbedtls/mbedtls-2.16.2/library\version_features.c **** #if defined(MBEDTLS_AES_ROM_TABLES)
 259:C:/Users/dtjld/workspace/AIoT/src/LiteOS_Lab/iot_link/network/dtls/mbedtls/mbedtls-2.16.2/library\version_features.c ****     "MBEDTLS_AES_ROM_TABLES",
 260:C:/Users/dtjld/workspace/AIoT/src/LiteOS_Lab/iot_link/network/dtls/mbedtls/mbedtls-2.16.2/library\version_features.c **** #endif /* MBEDTLS_AES_ROM_TABLES */
 261:C:/Users/dtjld/workspace/AIoT/src/LiteOS_Lab/iot_link/network/dtls/mbedtls/mbedtls-2.16.2/library\version_features.c **** #if defined(MBEDTLS_AES_FEWER_TABLES)
 262:C:/Users/dtjld/workspace/AIoT/src/LiteOS_Lab/iot_link/network/dtls/mbedtls/mbedtls-2.16.2/library\version_features.c ****     "MBEDTLS_AES_FEWER_TABLES",
 263:C:/Users/dtjld/workspace/AIoT/src/LiteOS_Lab/iot_link/network/dtls/mbedtls/mbedtls-2.16.2/library\version_features.c **** #endif /* MBEDTLS_AES_FEWER_TABLES */
 264:C:/Users/dtjld/workspace/AIoT/src/LiteOS_Lab/iot_link/network/dtls/mbedtls/mbedtls-2.16.2/library\version_features.c **** #if defined(MBEDTLS_CAMELLIA_SMALL_MEMORY)
 265:C:/Users/dtjld/workspace/AIoT/src/LiteOS_Lab/iot_link/network/dtls/mbedtls/mbedtls-2.16.2/library\version_features.c ****     "MBEDTLS_CAMELLIA_SMALL_MEMORY",
 266:C:/Users/dtjld/workspace/AIoT/src/LiteOS_Lab/iot_link/network/dtls/mbedtls/mbedtls-2.16.2/library\version_features.c **** #endif /* MBEDTLS_CAMELLIA_SMALL_MEMORY */
 267:C:/Users/dtjld/workspace/AIoT/src/LiteOS_Lab/iot_link/network/dtls/mbedtls/mbedtls-2.16.2/library\version_features.c **** #if defined(MBEDTLS_CIPHER_MODE_CBC)
 268:C:/Users/dtjld/workspace/AIoT/src/LiteOS_Lab/iot_link/network/dtls/mbedtls/mbedtls-2.16.2/library\version_features.c ****     "MBEDTLS_CIPHER_MODE_CBC",
 269:C:/Users/dtjld/workspace/AIoT/src/LiteOS_Lab/iot_link/network/dtls/mbedtls/mbedtls-2.16.2/library\version_features.c **** #endif /* MBEDTLS_CIPHER_MODE_CBC */
 270:C:/Users/dtjld/workspace/AIoT/src/LiteOS_Lab/iot_link/network/dtls/mbedtls/mbedtls-2.16.2/library\version_features.c **** #if defined(MBEDTLS_CIPHER_MODE_CFB)
 271:C:/Users/dtjld/workspace/AIoT/src/LiteOS_Lab/iot_link/network/dtls/mbedtls/mbedtls-2.16.2/library\version_features.c ****     "MBEDTLS_CIPHER_MODE_CFB",
 272:C:/Users/dtjld/workspace/AIoT/src/LiteOS_Lab/iot_link/network/dtls/mbedtls/mbedtls-2.16.2/library\version_features.c **** #endif /* MBEDTLS_CIPHER_MODE_CFB */
 273:C:/Users/dtjld/workspace/AIoT/src/LiteOS_Lab/iot_link/network/dtls/mbedtls/mbedtls-2.16.2/library\version_features.c **** #if defined(MBEDTLS_CIPHER_MODE_CTR)
 274:C:/Users/dtjld/workspace/AIoT/src/LiteOS_Lab/iot_link/network/dtls/mbedtls/mbedtls-2.16.2/library\version_features.c ****     "MBEDTLS_CIPHER_MODE_CTR",
 275:C:/Users/dtjld/workspace/AIoT/src/LiteOS_Lab/iot_link/network/dtls/mbedtls/mbedtls-2.16.2/library\version_features.c **** #endif /* MBEDTLS_CIPHER_MODE_CTR */
 276:C:/Users/dtjld/workspace/AIoT/src/LiteOS_Lab/iot_link/network/dtls/mbedtls/mbedtls-2.16.2/library\version_features.c **** #if defined(MBEDTLS_CIPHER_MODE_OFB)
 277:C:/Users/dtjld/workspace/AIoT/src/LiteOS_Lab/iot_link/network/dtls/mbedtls/mbedtls-2.16.2/library\version_features.c ****     "MBEDTLS_CIPHER_MODE_OFB",
 278:C:/Users/dtjld/workspace/AIoT/src/LiteOS_Lab/iot_link/network/dtls/mbedtls/mbedtls-2.16.2/library\version_features.c **** #endif /* MBEDTLS_CIPHER_MODE_OFB */
 279:C:/Users/dtjld/workspace/AIoT/src/LiteOS_Lab/iot_link/network/dtls/mbedtls/mbedtls-2.16.2/library\version_features.c **** #if defined(MBEDTLS_CIPHER_MODE_XTS)
 280:C:/Users/dtjld/workspace/AIoT/src/LiteOS_Lab/iot_link/network/dtls/mbedtls/mbedtls-2.16.2/library\version_features.c ****     "MBEDTLS_CIPHER_MODE_XTS",
 281:C:/Users/dtjld/workspace/AIoT/src/LiteOS_Lab/iot_link/network/dtls/mbedtls/mbedtls-2.16.2/library\version_features.c **** #endif /* MBEDTLS_CIPHER_MODE_XTS */
 282:C:/Users/dtjld/workspace/AIoT/src/LiteOS_Lab/iot_link/network/dtls/mbedtls/mbedtls-2.16.2/library\version_features.c **** #if defined(MBEDTLS_CIPHER_NULL_CIPHER)
ARM GAS  C:\Users\dtjld\AppData\Local\Temp\cckhfJK6.s 			page 22


 283:C:/Users/dtjld/workspace/AIoT/src/LiteOS_Lab/iot_link/network/dtls/mbedtls/mbedtls-2.16.2/library\version_features.c ****     "MBEDTLS_CIPHER_NULL_CIPHER",
 284:C:/Users/dtjld/workspace/AIoT/src/LiteOS_Lab/iot_link/network/dtls/mbedtls/mbedtls-2.16.2/library\version_features.c **** #endif /* MBEDTLS_CIPHER_NULL_CIPHER */
 285:C:/Users/dtjld/workspace/AIoT/src/LiteOS_Lab/iot_link/network/dtls/mbedtls/mbedtls-2.16.2/library\version_features.c **** #if defined(MBEDTLS_CIPHER_PADDING_PKCS7)
 286:C:/Users/dtjld/workspace/AIoT/src/LiteOS_Lab/iot_link/network/dtls/mbedtls/mbedtls-2.16.2/library\version_features.c ****     "MBEDTLS_CIPHER_PADDING_PKCS7",
 287:C:/Users/dtjld/workspace/AIoT/src/LiteOS_Lab/iot_link/network/dtls/mbedtls/mbedtls-2.16.2/library\version_features.c **** #endif /* MBEDTLS_CIPHER_PADDING_PKCS7 */
 288:C:/Users/dtjld/workspace/AIoT/src/LiteOS_Lab/iot_link/network/dtls/mbedtls/mbedtls-2.16.2/library\version_features.c **** #if defined(MBEDTLS_CIPHER_PADDING_ONE_AND_ZEROS)
 289:C:/Users/dtjld/workspace/AIoT/src/LiteOS_Lab/iot_link/network/dtls/mbedtls/mbedtls-2.16.2/library\version_features.c ****     "MBEDTLS_CIPHER_PADDING_ONE_AND_ZEROS",
 290:C:/Users/dtjld/workspace/AIoT/src/LiteOS_Lab/iot_link/network/dtls/mbedtls/mbedtls-2.16.2/library\version_features.c **** #endif /* MBEDTLS_CIPHER_PADDING_ONE_AND_ZEROS */
 291:C:/Users/dtjld/workspace/AIoT/src/LiteOS_Lab/iot_link/network/dtls/mbedtls/mbedtls-2.16.2/library\version_features.c **** #if defined(MBEDTLS_CIPHER_PADDING_ZEROS_AND_LEN)
 292:C:/Users/dtjld/workspace/AIoT/src/LiteOS_Lab/iot_link/network/dtls/mbedtls/mbedtls-2.16.2/library\version_features.c ****     "MBEDTLS_CIPHER_PADDING_ZEROS_AND_LEN",
 293:C:/Users/dtjld/workspace/AIoT/src/LiteOS_Lab/iot_link/network/dtls/mbedtls/mbedtls-2.16.2/library\version_features.c **** #endif /* MBEDTLS_CIPHER_PADDING_ZEROS_AND_LEN */
 294:C:/Users/dtjld/workspace/AIoT/src/LiteOS_Lab/iot_link/network/dtls/mbedtls/mbedtls-2.16.2/library\version_features.c **** #if defined(MBEDTLS_CIPHER_PADDING_ZEROS)
 295:C:/Users/dtjld/workspace/AIoT/src/LiteOS_Lab/iot_link/network/dtls/mbedtls/mbedtls-2.16.2/library\version_features.c ****     "MBEDTLS_CIPHER_PADDING_ZEROS",
 296:C:/Users/dtjld/workspace/AIoT/src/LiteOS_Lab/iot_link/network/dtls/mbedtls/mbedtls-2.16.2/library\version_features.c **** #endif /* MBEDTLS_CIPHER_PADDING_ZEROS */
 297:C:/Users/dtjld/workspace/AIoT/src/LiteOS_Lab/iot_link/network/dtls/mbedtls/mbedtls-2.16.2/library\version_features.c **** #if defined(MBEDTLS_ENABLE_WEAK_CIPHERSUITES)
 298:C:/Users/dtjld/workspace/AIoT/src/LiteOS_Lab/iot_link/network/dtls/mbedtls/mbedtls-2.16.2/library\version_features.c ****     "MBEDTLS_ENABLE_WEAK_CIPHERSUITES",
 299:C:/Users/dtjld/workspace/AIoT/src/LiteOS_Lab/iot_link/network/dtls/mbedtls/mbedtls-2.16.2/library\version_features.c **** #endif /* MBEDTLS_ENABLE_WEAK_CIPHERSUITES */
 300:C:/Users/dtjld/workspace/AIoT/src/LiteOS_Lab/iot_link/network/dtls/mbedtls/mbedtls-2.16.2/library\version_features.c **** #if defined(MBEDTLS_REMOVE_ARC4_CIPHERSUITES)
 301:C:/Users/dtjld/workspace/AIoT/src/LiteOS_Lab/iot_link/network/dtls/mbedtls/mbedtls-2.16.2/library\version_features.c ****     "MBEDTLS_REMOVE_ARC4_CIPHERSUITES",
 302:C:/Users/dtjld/workspace/AIoT/src/LiteOS_Lab/iot_link/network/dtls/mbedtls/mbedtls-2.16.2/library\version_features.c **** #endif /* MBEDTLS_REMOVE_ARC4_CIPHERSUITES */
 303:C:/Users/dtjld/workspace/AIoT/src/LiteOS_Lab/iot_link/network/dtls/mbedtls/mbedtls-2.16.2/library\version_features.c **** #if defined(MBEDTLS_REMOVE_3DES_CIPHERSUITES)
 304:C:/Users/dtjld/workspace/AIoT/src/LiteOS_Lab/iot_link/network/dtls/mbedtls/mbedtls-2.16.2/library\version_features.c ****     "MBEDTLS_REMOVE_3DES_CIPHERSUITES",
 305:C:/Users/dtjld/workspace/AIoT/src/LiteOS_Lab/iot_link/network/dtls/mbedtls/mbedtls-2.16.2/library\version_features.c **** #endif /* MBEDTLS_REMOVE_3DES_CIPHERSUITES */
 306:C:/Users/dtjld/workspace/AIoT/src/LiteOS_Lab/iot_link/network/dtls/mbedtls/mbedtls-2.16.2/library\version_features.c **** #if defined(MBEDTLS_ECP_DP_SECP192R1_ENABLED)
 307:C:/Users/dtjld/workspace/AIoT/src/LiteOS_Lab/iot_link/network/dtls/mbedtls/mbedtls-2.16.2/library\version_features.c ****     "MBEDTLS_ECP_DP_SECP192R1_ENABLED",
 308:C:/Users/dtjld/workspace/AIoT/src/LiteOS_Lab/iot_link/network/dtls/mbedtls/mbedtls-2.16.2/library\version_features.c **** #endif /* MBEDTLS_ECP_DP_SECP192R1_ENABLED */
 309:C:/Users/dtjld/workspace/AIoT/src/LiteOS_Lab/iot_link/network/dtls/mbedtls/mbedtls-2.16.2/library\version_features.c **** #if defined(MBEDTLS_ECP_DP_SECP224R1_ENABLED)
 310:C:/Users/dtjld/workspace/AIoT/src/LiteOS_Lab/iot_link/network/dtls/mbedtls/mbedtls-2.16.2/library\version_features.c ****     "MBEDTLS_ECP_DP_SECP224R1_ENABLED",
 311:C:/Users/dtjld/workspace/AIoT/src/LiteOS_Lab/iot_link/network/dtls/mbedtls/mbedtls-2.16.2/library\version_features.c **** #endif /* MBEDTLS_ECP_DP_SECP224R1_ENABLED */
 312:C:/Users/dtjld/workspace/AIoT/src/LiteOS_Lab/iot_link/network/dtls/mbedtls/mbedtls-2.16.2/library\version_features.c **** #if defined(MBEDTLS_ECP_DP_SECP256R1_ENABLED)
 313:C:/Users/dtjld/workspace/AIoT/src/LiteOS_Lab/iot_link/network/dtls/mbedtls/mbedtls-2.16.2/library\version_features.c ****     "MBEDTLS_ECP_DP_SECP256R1_ENABLED",
 314:C:/Users/dtjld/workspace/AIoT/src/LiteOS_Lab/iot_link/network/dtls/mbedtls/mbedtls-2.16.2/library\version_features.c **** #endif /* MBEDTLS_ECP_DP_SECP256R1_ENABLED */
 315:C:/Users/dtjld/workspace/AIoT/src/LiteOS_Lab/iot_link/network/dtls/mbedtls/mbedtls-2.16.2/library\version_features.c **** #if defined(MBEDTLS_ECP_DP_SECP384R1_ENABLED)
 316:C:/Users/dtjld/workspace/AIoT/src/LiteOS_Lab/iot_link/network/dtls/mbedtls/mbedtls-2.16.2/library\version_features.c ****     "MBEDTLS_ECP_DP_SECP384R1_ENABLED",
 317:C:/Users/dtjld/workspace/AIoT/src/LiteOS_Lab/iot_link/network/dtls/mbedtls/mbedtls-2.16.2/library\version_features.c **** #endif /* MBEDTLS_ECP_DP_SECP384R1_ENABLED */
 318:C:/Users/dtjld/workspace/AIoT/src/LiteOS_Lab/iot_link/network/dtls/mbedtls/mbedtls-2.16.2/library\version_features.c **** #if defined(MBEDTLS_ECP_DP_SECP521R1_ENABLED)
 319:C:/Users/dtjld/workspace/AIoT/src/LiteOS_Lab/iot_link/network/dtls/mbedtls/mbedtls-2.16.2/library\version_features.c ****     "MBEDTLS_ECP_DP_SECP521R1_ENABLED",
 320:C:/Users/dtjld/workspace/AIoT/src/LiteOS_Lab/iot_link/network/dtls/mbedtls/mbedtls-2.16.2/library\version_features.c **** #endif /* MBEDTLS_ECP_DP_SECP521R1_ENABLED */
 321:C:/Users/dtjld/workspace/AIoT/src/LiteOS_Lab/iot_link/network/dtls/mbedtls/mbedtls-2.16.2/library\version_features.c **** #if defined(MBEDTLS_ECP_DP_SECP192K1_ENABLED)
 322:C:/Users/dtjld/workspace/AIoT/src/LiteOS_Lab/iot_link/network/dtls/mbedtls/mbedtls-2.16.2/library\version_features.c ****     "MBEDTLS_ECP_DP_SECP192K1_ENABLED",
 323:C:/Users/dtjld/workspace/AIoT/src/LiteOS_Lab/iot_link/network/dtls/mbedtls/mbedtls-2.16.2/library\version_features.c **** #endif /* MBEDTLS_ECP_DP_SECP192K1_ENABLED */
 324:C:/Users/dtjld/workspace/AIoT/src/LiteOS_Lab/iot_link/network/dtls/mbedtls/mbedtls-2.16.2/library\version_features.c **** #if defined(MBEDTLS_ECP_DP_SECP224K1_ENABLED)
 325:C:/Users/dtjld/workspace/AIoT/src/LiteOS_Lab/iot_link/network/dtls/mbedtls/mbedtls-2.16.2/library\version_features.c ****     "MBEDTLS_ECP_DP_SECP224K1_ENABLED",
 326:C:/Users/dtjld/workspace/AIoT/src/LiteOS_Lab/iot_link/network/dtls/mbedtls/mbedtls-2.16.2/library\version_features.c **** #endif /* MBEDTLS_ECP_DP_SECP224K1_ENABLED */
 327:C:/Users/dtjld/workspace/AIoT/src/LiteOS_Lab/iot_link/network/dtls/mbedtls/mbedtls-2.16.2/library\version_features.c **** #if defined(MBEDTLS_ECP_DP_SECP256K1_ENABLED)
 328:C:/Users/dtjld/workspace/AIoT/src/LiteOS_Lab/iot_link/network/dtls/mbedtls/mbedtls-2.16.2/library\version_features.c ****     "MBEDTLS_ECP_DP_SECP256K1_ENABLED",
 329:C:/Users/dtjld/workspace/AIoT/src/LiteOS_Lab/iot_link/network/dtls/mbedtls/mbedtls-2.16.2/library\version_features.c **** #endif /* MBEDTLS_ECP_DP_SECP256K1_ENABLED */
 330:C:/Users/dtjld/workspace/AIoT/src/LiteOS_Lab/iot_link/network/dtls/mbedtls/mbedtls-2.16.2/library\version_features.c **** #if defined(MBEDTLS_ECP_DP_BP256R1_ENABLED)
 331:C:/Users/dtjld/workspace/AIoT/src/LiteOS_Lab/iot_link/network/dtls/mbedtls/mbedtls-2.16.2/library\version_features.c ****     "MBEDTLS_ECP_DP_BP256R1_ENABLED",
 332:C:/Users/dtjld/workspace/AIoT/src/LiteOS_Lab/iot_link/network/dtls/mbedtls/mbedtls-2.16.2/library\version_features.c **** #endif /* MBEDTLS_ECP_DP_BP256R1_ENABLED */
 333:C:/Users/dtjld/workspace/AIoT/src/LiteOS_Lab/iot_link/network/dtls/mbedtls/mbedtls-2.16.2/library\version_features.c **** #if defined(MBEDTLS_ECP_DP_BP384R1_ENABLED)
 334:C:/Users/dtjld/workspace/AIoT/src/LiteOS_Lab/iot_link/network/dtls/mbedtls/mbedtls-2.16.2/library\version_features.c ****     "MBEDTLS_ECP_DP_BP384R1_ENABLED",
 335:C:/Users/dtjld/workspace/AIoT/src/LiteOS_Lab/iot_link/network/dtls/mbedtls/mbedtls-2.16.2/library\version_features.c **** #endif /* MBEDTLS_ECP_DP_BP384R1_ENABLED */
 336:C:/Users/dtjld/workspace/AIoT/src/LiteOS_Lab/iot_link/network/dtls/mbedtls/mbedtls-2.16.2/library\version_features.c **** #if defined(MBEDTLS_ECP_DP_BP512R1_ENABLED)
 337:C:/Users/dtjld/workspace/AIoT/src/LiteOS_Lab/iot_link/network/dtls/mbedtls/mbedtls-2.16.2/library\version_features.c ****     "MBEDTLS_ECP_DP_BP512R1_ENABLED",
 338:C:/Users/dtjld/workspace/AIoT/src/LiteOS_Lab/iot_link/network/dtls/mbedtls/mbedtls-2.16.2/library\version_features.c **** #endif /* MBEDTLS_ECP_DP_BP512R1_ENABLED */
 339:C:/Users/dtjld/workspace/AIoT/src/LiteOS_Lab/iot_link/network/dtls/mbedtls/mbedtls-2.16.2/library\version_features.c **** #if defined(MBEDTLS_ECP_DP_CURVE25519_ENABLED)
ARM GAS  C:\Users\dtjld\AppData\Local\Temp\cckhfJK6.s 			page 23


 340:C:/Users/dtjld/workspace/AIoT/src/LiteOS_Lab/iot_link/network/dtls/mbedtls/mbedtls-2.16.2/library\version_features.c ****     "MBEDTLS_ECP_DP_CURVE25519_ENABLED",
 341:C:/Users/dtjld/workspace/AIoT/src/LiteOS_Lab/iot_link/network/dtls/mbedtls/mbedtls-2.16.2/library\version_features.c **** #endif /* MBEDTLS_ECP_DP_CURVE25519_ENABLED */
 342:C:/Users/dtjld/workspace/AIoT/src/LiteOS_Lab/iot_link/network/dtls/mbedtls/mbedtls-2.16.2/library\version_features.c **** #if defined(MBEDTLS_ECP_DP_CURVE448_ENABLED)
 343:C:/Users/dtjld/workspace/AIoT/src/LiteOS_Lab/iot_link/network/dtls/mbedtls/mbedtls-2.16.2/library\version_features.c ****     "MBEDTLS_ECP_DP_CURVE448_ENABLED",
 344:C:/Users/dtjld/workspace/AIoT/src/LiteOS_Lab/iot_link/network/dtls/mbedtls/mbedtls-2.16.2/library\version_features.c **** #endif /* MBEDTLS_ECP_DP_CURVE448_ENABLED */
 345:C:/Users/dtjld/workspace/AIoT/src/LiteOS_Lab/iot_link/network/dtls/mbedtls/mbedtls-2.16.2/library\version_features.c **** #if defined(MBEDTLS_ECP_NIST_OPTIM)
 346:C:/Users/dtjld/workspace/AIoT/src/LiteOS_Lab/iot_link/network/dtls/mbedtls/mbedtls-2.16.2/library\version_features.c ****     "MBEDTLS_ECP_NIST_OPTIM",
 347:C:/Users/dtjld/workspace/AIoT/src/LiteOS_Lab/iot_link/network/dtls/mbedtls/mbedtls-2.16.2/library\version_features.c **** #endif /* MBEDTLS_ECP_NIST_OPTIM */
 348:C:/Users/dtjld/workspace/AIoT/src/LiteOS_Lab/iot_link/network/dtls/mbedtls/mbedtls-2.16.2/library\version_features.c **** #if defined(MBEDTLS_ECP_RESTARTABLE)
 349:C:/Users/dtjld/workspace/AIoT/src/LiteOS_Lab/iot_link/network/dtls/mbedtls/mbedtls-2.16.2/library\version_features.c ****     "MBEDTLS_ECP_RESTARTABLE",
 350:C:/Users/dtjld/workspace/AIoT/src/LiteOS_Lab/iot_link/network/dtls/mbedtls/mbedtls-2.16.2/library\version_features.c **** #endif /* MBEDTLS_ECP_RESTARTABLE */
 351:C:/Users/dtjld/workspace/AIoT/src/LiteOS_Lab/iot_link/network/dtls/mbedtls/mbedtls-2.16.2/library\version_features.c **** #if defined(MBEDTLS_ECDSA_DETERMINISTIC)
 352:C:/Users/dtjld/workspace/AIoT/src/LiteOS_Lab/iot_link/network/dtls/mbedtls/mbedtls-2.16.2/library\version_features.c ****     "MBEDTLS_ECDSA_DETERMINISTIC",
 353:C:/Users/dtjld/workspace/AIoT/src/LiteOS_Lab/iot_link/network/dtls/mbedtls/mbedtls-2.16.2/library\version_features.c **** #endif /* MBEDTLS_ECDSA_DETERMINISTIC */
 354:C:/Users/dtjld/workspace/AIoT/src/LiteOS_Lab/iot_link/network/dtls/mbedtls/mbedtls-2.16.2/library\version_features.c **** #if defined(MBEDTLS_KEY_EXCHANGE_PSK_ENABLED)
 355:C:/Users/dtjld/workspace/AIoT/src/LiteOS_Lab/iot_link/network/dtls/mbedtls/mbedtls-2.16.2/library\version_features.c ****     "MBEDTLS_KEY_EXCHANGE_PSK_ENABLED",
 356:C:/Users/dtjld/workspace/AIoT/src/LiteOS_Lab/iot_link/network/dtls/mbedtls/mbedtls-2.16.2/library\version_features.c **** #endif /* MBEDTLS_KEY_EXCHANGE_PSK_ENABLED */
 357:C:/Users/dtjld/workspace/AIoT/src/LiteOS_Lab/iot_link/network/dtls/mbedtls/mbedtls-2.16.2/library\version_features.c **** #if defined(MBEDTLS_KEY_EXCHANGE_DHE_PSK_ENABLED)
 358:C:/Users/dtjld/workspace/AIoT/src/LiteOS_Lab/iot_link/network/dtls/mbedtls/mbedtls-2.16.2/library\version_features.c ****     "MBEDTLS_KEY_EXCHANGE_DHE_PSK_ENABLED",
 359:C:/Users/dtjld/workspace/AIoT/src/LiteOS_Lab/iot_link/network/dtls/mbedtls/mbedtls-2.16.2/library\version_features.c **** #endif /* MBEDTLS_KEY_EXCHANGE_DHE_PSK_ENABLED */
 360:C:/Users/dtjld/workspace/AIoT/src/LiteOS_Lab/iot_link/network/dtls/mbedtls/mbedtls-2.16.2/library\version_features.c **** #if defined(MBEDTLS_KEY_EXCHANGE_ECDHE_PSK_ENABLED)
 361:C:/Users/dtjld/workspace/AIoT/src/LiteOS_Lab/iot_link/network/dtls/mbedtls/mbedtls-2.16.2/library\version_features.c ****     "MBEDTLS_KEY_EXCHANGE_ECDHE_PSK_ENABLED",
 362:C:/Users/dtjld/workspace/AIoT/src/LiteOS_Lab/iot_link/network/dtls/mbedtls/mbedtls-2.16.2/library\version_features.c **** #endif /* MBEDTLS_KEY_EXCHANGE_ECDHE_PSK_ENABLED */
 363:C:/Users/dtjld/workspace/AIoT/src/LiteOS_Lab/iot_link/network/dtls/mbedtls/mbedtls-2.16.2/library\version_features.c **** #if defined(MBEDTLS_KEY_EXCHANGE_RSA_PSK_ENABLED)
 364:C:/Users/dtjld/workspace/AIoT/src/LiteOS_Lab/iot_link/network/dtls/mbedtls/mbedtls-2.16.2/library\version_features.c ****     "MBEDTLS_KEY_EXCHANGE_RSA_PSK_ENABLED",
 365:C:/Users/dtjld/workspace/AIoT/src/LiteOS_Lab/iot_link/network/dtls/mbedtls/mbedtls-2.16.2/library\version_features.c **** #endif /* MBEDTLS_KEY_EXCHANGE_RSA_PSK_ENABLED */
 366:C:/Users/dtjld/workspace/AIoT/src/LiteOS_Lab/iot_link/network/dtls/mbedtls/mbedtls-2.16.2/library\version_features.c **** #if defined(MBEDTLS_KEY_EXCHANGE_RSA_ENABLED)
 367:C:/Users/dtjld/workspace/AIoT/src/LiteOS_Lab/iot_link/network/dtls/mbedtls/mbedtls-2.16.2/library\version_features.c ****     "MBEDTLS_KEY_EXCHANGE_RSA_ENABLED",
 368:C:/Users/dtjld/workspace/AIoT/src/LiteOS_Lab/iot_link/network/dtls/mbedtls/mbedtls-2.16.2/library\version_features.c **** #endif /* MBEDTLS_KEY_EXCHANGE_RSA_ENABLED */
 369:C:/Users/dtjld/workspace/AIoT/src/LiteOS_Lab/iot_link/network/dtls/mbedtls/mbedtls-2.16.2/library\version_features.c **** #if defined(MBEDTLS_KEY_EXCHANGE_DHE_RSA_ENABLED)
 370:C:/Users/dtjld/workspace/AIoT/src/LiteOS_Lab/iot_link/network/dtls/mbedtls/mbedtls-2.16.2/library\version_features.c ****     "MBEDTLS_KEY_EXCHANGE_DHE_RSA_ENABLED",
 371:C:/Users/dtjld/workspace/AIoT/src/LiteOS_Lab/iot_link/network/dtls/mbedtls/mbedtls-2.16.2/library\version_features.c **** #endif /* MBEDTLS_KEY_EXCHANGE_DHE_RSA_ENABLED */
 372:C:/Users/dtjld/workspace/AIoT/src/LiteOS_Lab/iot_link/network/dtls/mbedtls/mbedtls-2.16.2/library\version_features.c **** #if defined(MBEDTLS_KEY_EXCHANGE_ECDHE_RSA_ENABLED)
 373:C:/Users/dtjld/workspace/AIoT/src/LiteOS_Lab/iot_link/network/dtls/mbedtls/mbedtls-2.16.2/library\version_features.c ****     "MBEDTLS_KEY_EXCHANGE_ECDHE_RSA_ENABLED",
 374:C:/Users/dtjld/workspace/AIoT/src/LiteOS_Lab/iot_link/network/dtls/mbedtls/mbedtls-2.16.2/library\version_features.c **** #endif /* MBEDTLS_KEY_EXCHANGE_ECDHE_RSA_ENABLED */
 375:C:/Users/dtjld/workspace/AIoT/src/LiteOS_Lab/iot_link/network/dtls/mbedtls/mbedtls-2.16.2/library\version_features.c **** #if defined(MBEDTLS_KEY_EXCHANGE_ECDHE_ECDSA_ENABLED)
 376:C:/Users/dtjld/workspace/AIoT/src/LiteOS_Lab/iot_link/network/dtls/mbedtls/mbedtls-2.16.2/library\version_features.c ****     "MBEDTLS_KEY_EXCHANGE_ECDHE_ECDSA_ENABLED",
 377:C:/Users/dtjld/workspace/AIoT/src/LiteOS_Lab/iot_link/network/dtls/mbedtls/mbedtls-2.16.2/library\version_features.c **** #endif /* MBEDTLS_KEY_EXCHANGE_ECDHE_ECDSA_ENABLED */
 378:C:/Users/dtjld/workspace/AIoT/src/LiteOS_Lab/iot_link/network/dtls/mbedtls/mbedtls-2.16.2/library\version_features.c **** #if defined(MBEDTLS_KEY_EXCHANGE_ECDH_ECDSA_ENABLED)
 379:C:/Users/dtjld/workspace/AIoT/src/LiteOS_Lab/iot_link/network/dtls/mbedtls/mbedtls-2.16.2/library\version_features.c ****     "MBEDTLS_KEY_EXCHANGE_ECDH_ECDSA_ENABLED",
 380:C:/Users/dtjld/workspace/AIoT/src/LiteOS_Lab/iot_link/network/dtls/mbedtls/mbedtls-2.16.2/library\version_features.c **** #endif /* MBEDTLS_KEY_EXCHANGE_ECDH_ECDSA_ENABLED */
 381:C:/Users/dtjld/workspace/AIoT/src/LiteOS_Lab/iot_link/network/dtls/mbedtls/mbedtls-2.16.2/library\version_features.c **** #if defined(MBEDTLS_KEY_EXCHANGE_ECDH_RSA_ENABLED)
 382:C:/Users/dtjld/workspace/AIoT/src/LiteOS_Lab/iot_link/network/dtls/mbedtls/mbedtls-2.16.2/library\version_features.c ****     "MBEDTLS_KEY_EXCHANGE_ECDH_RSA_ENABLED",
 383:C:/Users/dtjld/workspace/AIoT/src/LiteOS_Lab/iot_link/network/dtls/mbedtls/mbedtls-2.16.2/library\version_features.c **** #endif /* MBEDTLS_KEY_EXCHANGE_ECDH_RSA_ENABLED */
 384:C:/Users/dtjld/workspace/AIoT/src/LiteOS_Lab/iot_link/network/dtls/mbedtls/mbedtls-2.16.2/library\version_features.c **** #if defined(MBEDTLS_KEY_EXCHANGE_ECJPAKE_ENABLED)
 385:C:/Users/dtjld/workspace/AIoT/src/LiteOS_Lab/iot_link/network/dtls/mbedtls/mbedtls-2.16.2/library\version_features.c ****     "MBEDTLS_KEY_EXCHANGE_ECJPAKE_ENABLED",
 386:C:/Users/dtjld/workspace/AIoT/src/LiteOS_Lab/iot_link/network/dtls/mbedtls/mbedtls-2.16.2/library\version_features.c **** #endif /* MBEDTLS_KEY_EXCHANGE_ECJPAKE_ENABLED */
 387:C:/Users/dtjld/workspace/AIoT/src/LiteOS_Lab/iot_link/network/dtls/mbedtls/mbedtls-2.16.2/library\version_features.c **** #if defined(MBEDTLS_PK_PARSE_EC_EXTENDED)
 388:C:/Users/dtjld/workspace/AIoT/src/LiteOS_Lab/iot_link/network/dtls/mbedtls/mbedtls-2.16.2/library\version_features.c ****     "MBEDTLS_PK_PARSE_EC_EXTENDED",
 389:C:/Users/dtjld/workspace/AIoT/src/LiteOS_Lab/iot_link/network/dtls/mbedtls/mbedtls-2.16.2/library\version_features.c **** #endif /* MBEDTLS_PK_PARSE_EC_EXTENDED */
 390:C:/Users/dtjld/workspace/AIoT/src/LiteOS_Lab/iot_link/network/dtls/mbedtls/mbedtls-2.16.2/library\version_features.c **** #if defined(MBEDTLS_ERROR_STRERROR_DUMMY)
 391:C:/Users/dtjld/workspace/AIoT/src/LiteOS_Lab/iot_link/network/dtls/mbedtls/mbedtls-2.16.2/library\version_features.c ****     "MBEDTLS_ERROR_STRERROR_DUMMY",
 392:C:/Users/dtjld/workspace/AIoT/src/LiteOS_Lab/iot_link/network/dtls/mbedtls/mbedtls-2.16.2/library\version_features.c **** #endif /* MBEDTLS_ERROR_STRERROR_DUMMY */
 393:C:/Users/dtjld/workspace/AIoT/src/LiteOS_Lab/iot_link/network/dtls/mbedtls/mbedtls-2.16.2/library\version_features.c **** #if defined(MBEDTLS_GENPRIME)
 394:C:/Users/dtjld/workspace/AIoT/src/LiteOS_Lab/iot_link/network/dtls/mbedtls/mbedtls-2.16.2/library\version_features.c ****     "MBEDTLS_GENPRIME",
 395:C:/Users/dtjld/workspace/AIoT/src/LiteOS_Lab/iot_link/network/dtls/mbedtls/mbedtls-2.16.2/library\version_features.c **** #endif /* MBEDTLS_GENPRIME */
 396:C:/Users/dtjld/workspace/AIoT/src/LiteOS_Lab/iot_link/network/dtls/mbedtls/mbedtls-2.16.2/library\version_features.c **** #if defined(MBEDTLS_FS_IO)
ARM GAS  C:\Users\dtjld\AppData\Local\Temp\cckhfJK6.s 			page 24


 397:C:/Users/dtjld/workspace/AIoT/src/LiteOS_Lab/iot_link/network/dtls/mbedtls/mbedtls-2.16.2/library\version_features.c ****     "MBEDTLS_FS_IO",
 398:C:/Users/dtjld/workspace/AIoT/src/LiteOS_Lab/iot_link/network/dtls/mbedtls/mbedtls-2.16.2/library\version_features.c **** #endif /* MBEDTLS_FS_IO */
 399:C:/Users/dtjld/workspace/AIoT/src/LiteOS_Lab/iot_link/network/dtls/mbedtls/mbedtls-2.16.2/library\version_features.c **** #if defined(MBEDTLS_NO_DEFAULT_ENTROPY_SOURCES)
 400:C:/Users/dtjld/workspace/AIoT/src/LiteOS_Lab/iot_link/network/dtls/mbedtls/mbedtls-2.16.2/library\version_features.c ****     "MBEDTLS_NO_DEFAULT_ENTROPY_SOURCES",
 401:C:/Users/dtjld/workspace/AIoT/src/LiteOS_Lab/iot_link/network/dtls/mbedtls/mbedtls-2.16.2/library\version_features.c **** #endif /* MBEDTLS_NO_DEFAULT_ENTROPY_SOURCES */
 402:C:/Users/dtjld/workspace/AIoT/src/LiteOS_Lab/iot_link/network/dtls/mbedtls/mbedtls-2.16.2/library\version_features.c **** #if defined(MBEDTLS_NO_PLATFORM_ENTROPY)
 403:C:/Users/dtjld/workspace/AIoT/src/LiteOS_Lab/iot_link/network/dtls/mbedtls/mbedtls-2.16.2/library\version_features.c ****     "MBEDTLS_NO_PLATFORM_ENTROPY",
 404:C:/Users/dtjld/workspace/AIoT/src/LiteOS_Lab/iot_link/network/dtls/mbedtls/mbedtls-2.16.2/library\version_features.c **** #endif /* MBEDTLS_NO_PLATFORM_ENTROPY */
 405:C:/Users/dtjld/workspace/AIoT/src/LiteOS_Lab/iot_link/network/dtls/mbedtls/mbedtls-2.16.2/library\version_features.c **** #if defined(MBEDTLS_ENTROPY_FORCE_SHA256)
 406:C:/Users/dtjld/workspace/AIoT/src/LiteOS_Lab/iot_link/network/dtls/mbedtls/mbedtls-2.16.2/library\version_features.c ****     "MBEDTLS_ENTROPY_FORCE_SHA256",
 407:C:/Users/dtjld/workspace/AIoT/src/LiteOS_Lab/iot_link/network/dtls/mbedtls/mbedtls-2.16.2/library\version_features.c **** #endif /* MBEDTLS_ENTROPY_FORCE_SHA256 */
 408:C:/Users/dtjld/workspace/AIoT/src/LiteOS_Lab/iot_link/network/dtls/mbedtls/mbedtls-2.16.2/library\version_features.c **** #if defined(MBEDTLS_ENTROPY_NV_SEED)
 409:C:/Users/dtjld/workspace/AIoT/src/LiteOS_Lab/iot_link/network/dtls/mbedtls/mbedtls-2.16.2/library\version_features.c ****     "MBEDTLS_ENTROPY_NV_SEED",
 410:C:/Users/dtjld/workspace/AIoT/src/LiteOS_Lab/iot_link/network/dtls/mbedtls/mbedtls-2.16.2/library\version_features.c **** #endif /* MBEDTLS_ENTROPY_NV_SEED */
 411:C:/Users/dtjld/workspace/AIoT/src/LiteOS_Lab/iot_link/network/dtls/mbedtls/mbedtls-2.16.2/library\version_features.c **** #if defined(MBEDTLS_MEMORY_DEBUG)
 412:C:/Users/dtjld/workspace/AIoT/src/LiteOS_Lab/iot_link/network/dtls/mbedtls/mbedtls-2.16.2/library\version_features.c ****     "MBEDTLS_MEMORY_DEBUG",
 413:C:/Users/dtjld/workspace/AIoT/src/LiteOS_Lab/iot_link/network/dtls/mbedtls/mbedtls-2.16.2/library\version_features.c **** #endif /* MBEDTLS_MEMORY_DEBUG */
 414:C:/Users/dtjld/workspace/AIoT/src/LiteOS_Lab/iot_link/network/dtls/mbedtls/mbedtls-2.16.2/library\version_features.c **** #if defined(MBEDTLS_MEMORY_BACKTRACE)
 415:C:/Users/dtjld/workspace/AIoT/src/LiteOS_Lab/iot_link/network/dtls/mbedtls/mbedtls-2.16.2/library\version_features.c ****     "MBEDTLS_MEMORY_BACKTRACE",
 416:C:/Users/dtjld/workspace/AIoT/src/LiteOS_Lab/iot_link/network/dtls/mbedtls/mbedtls-2.16.2/library\version_features.c **** #endif /* MBEDTLS_MEMORY_BACKTRACE */
 417:C:/Users/dtjld/workspace/AIoT/src/LiteOS_Lab/iot_link/network/dtls/mbedtls/mbedtls-2.16.2/library\version_features.c **** #if defined(MBEDTLS_PK_RSA_ALT_SUPPORT)
 418:C:/Users/dtjld/workspace/AIoT/src/LiteOS_Lab/iot_link/network/dtls/mbedtls/mbedtls-2.16.2/library\version_features.c ****     "MBEDTLS_PK_RSA_ALT_SUPPORT",
 419:C:/Users/dtjld/workspace/AIoT/src/LiteOS_Lab/iot_link/network/dtls/mbedtls/mbedtls-2.16.2/library\version_features.c **** #endif /* MBEDTLS_PK_RSA_ALT_SUPPORT */
 420:C:/Users/dtjld/workspace/AIoT/src/LiteOS_Lab/iot_link/network/dtls/mbedtls/mbedtls-2.16.2/library\version_features.c **** #if defined(MBEDTLS_PKCS1_V15)
 421:C:/Users/dtjld/workspace/AIoT/src/LiteOS_Lab/iot_link/network/dtls/mbedtls/mbedtls-2.16.2/library\version_features.c ****     "MBEDTLS_PKCS1_V15",
 422:C:/Users/dtjld/workspace/AIoT/src/LiteOS_Lab/iot_link/network/dtls/mbedtls/mbedtls-2.16.2/library\version_features.c **** #endif /* MBEDTLS_PKCS1_V15 */
 423:C:/Users/dtjld/workspace/AIoT/src/LiteOS_Lab/iot_link/network/dtls/mbedtls/mbedtls-2.16.2/library\version_features.c **** #if defined(MBEDTLS_PKCS1_V21)
 424:C:/Users/dtjld/workspace/AIoT/src/LiteOS_Lab/iot_link/network/dtls/mbedtls/mbedtls-2.16.2/library\version_features.c ****     "MBEDTLS_PKCS1_V21",
 425:C:/Users/dtjld/workspace/AIoT/src/LiteOS_Lab/iot_link/network/dtls/mbedtls/mbedtls-2.16.2/library\version_features.c **** #endif /* MBEDTLS_PKCS1_V21 */
 426:C:/Users/dtjld/workspace/AIoT/src/LiteOS_Lab/iot_link/network/dtls/mbedtls/mbedtls-2.16.2/library\version_features.c **** #if defined(MBEDTLS_RSA_NO_CRT)
 427:C:/Users/dtjld/workspace/AIoT/src/LiteOS_Lab/iot_link/network/dtls/mbedtls/mbedtls-2.16.2/library\version_features.c ****     "MBEDTLS_RSA_NO_CRT",
 428:C:/Users/dtjld/workspace/AIoT/src/LiteOS_Lab/iot_link/network/dtls/mbedtls/mbedtls-2.16.2/library\version_features.c **** #endif /* MBEDTLS_RSA_NO_CRT */
 429:C:/Users/dtjld/workspace/AIoT/src/LiteOS_Lab/iot_link/network/dtls/mbedtls/mbedtls-2.16.2/library\version_features.c **** #if defined(MBEDTLS_SELF_TEST)
 430:C:/Users/dtjld/workspace/AIoT/src/LiteOS_Lab/iot_link/network/dtls/mbedtls/mbedtls-2.16.2/library\version_features.c ****     "MBEDTLS_SELF_TEST",
 431:C:/Users/dtjld/workspace/AIoT/src/LiteOS_Lab/iot_link/network/dtls/mbedtls/mbedtls-2.16.2/library\version_features.c **** #endif /* MBEDTLS_SELF_TEST */
 432:C:/Users/dtjld/workspace/AIoT/src/LiteOS_Lab/iot_link/network/dtls/mbedtls/mbedtls-2.16.2/library\version_features.c **** #if defined(MBEDTLS_SHA256_SMALLER)
 433:C:/Users/dtjld/workspace/AIoT/src/LiteOS_Lab/iot_link/network/dtls/mbedtls/mbedtls-2.16.2/library\version_features.c ****     "MBEDTLS_SHA256_SMALLER",
 434:C:/Users/dtjld/workspace/AIoT/src/LiteOS_Lab/iot_link/network/dtls/mbedtls/mbedtls-2.16.2/library\version_features.c **** #endif /* MBEDTLS_SHA256_SMALLER */
 435:C:/Users/dtjld/workspace/AIoT/src/LiteOS_Lab/iot_link/network/dtls/mbedtls/mbedtls-2.16.2/library\version_features.c **** #if defined(MBEDTLS_SSL_ALL_ALERT_MESSAGES)
 436:C:/Users/dtjld/workspace/AIoT/src/LiteOS_Lab/iot_link/network/dtls/mbedtls/mbedtls-2.16.2/library\version_features.c ****     "MBEDTLS_SSL_ALL_ALERT_MESSAGES",
 437:C:/Users/dtjld/workspace/AIoT/src/LiteOS_Lab/iot_link/network/dtls/mbedtls/mbedtls-2.16.2/library\version_features.c **** #endif /* MBEDTLS_SSL_ALL_ALERT_MESSAGES */
 438:C:/Users/dtjld/workspace/AIoT/src/LiteOS_Lab/iot_link/network/dtls/mbedtls/mbedtls-2.16.2/library\version_features.c **** #if defined(MBEDTLS_SSL_ASYNC_PRIVATE)
 439:C:/Users/dtjld/workspace/AIoT/src/LiteOS_Lab/iot_link/network/dtls/mbedtls/mbedtls-2.16.2/library\version_features.c ****     "MBEDTLS_SSL_ASYNC_PRIVATE",
 440:C:/Users/dtjld/workspace/AIoT/src/LiteOS_Lab/iot_link/network/dtls/mbedtls/mbedtls-2.16.2/library\version_features.c **** #endif /* MBEDTLS_SSL_ASYNC_PRIVATE */
 441:C:/Users/dtjld/workspace/AIoT/src/LiteOS_Lab/iot_link/network/dtls/mbedtls/mbedtls-2.16.2/library\version_features.c **** #if defined(MBEDTLS_SSL_DEBUG_ALL)
 442:C:/Users/dtjld/workspace/AIoT/src/LiteOS_Lab/iot_link/network/dtls/mbedtls/mbedtls-2.16.2/library\version_features.c ****     "MBEDTLS_SSL_DEBUG_ALL",
 443:C:/Users/dtjld/workspace/AIoT/src/LiteOS_Lab/iot_link/network/dtls/mbedtls/mbedtls-2.16.2/library\version_features.c **** #endif /* MBEDTLS_SSL_DEBUG_ALL */
 444:C:/Users/dtjld/workspace/AIoT/src/LiteOS_Lab/iot_link/network/dtls/mbedtls/mbedtls-2.16.2/library\version_features.c **** #if defined(MBEDTLS_SSL_ENCRYPT_THEN_MAC)
 445:C:/Users/dtjld/workspace/AIoT/src/LiteOS_Lab/iot_link/network/dtls/mbedtls/mbedtls-2.16.2/library\version_features.c ****     "MBEDTLS_SSL_ENCRYPT_THEN_MAC",
 446:C:/Users/dtjld/workspace/AIoT/src/LiteOS_Lab/iot_link/network/dtls/mbedtls/mbedtls-2.16.2/library\version_features.c **** #endif /* MBEDTLS_SSL_ENCRYPT_THEN_MAC */
 447:C:/Users/dtjld/workspace/AIoT/src/LiteOS_Lab/iot_link/network/dtls/mbedtls/mbedtls-2.16.2/library\version_features.c **** #if defined(MBEDTLS_SSL_EXTENDED_MASTER_SECRET)
 448:C:/Users/dtjld/workspace/AIoT/src/LiteOS_Lab/iot_link/network/dtls/mbedtls/mbedtls-2.16.2/library\version_features.c ****     "MBEDTLS_SSL_EXTENDED_MASTER_SECRET",
 449:C:/Users/dtjld/workspace/AIoT/src/LiteOS_Lab/iot_link/network/dtls/mbedtls/mbedtls-2.16.2/library\version_features.c **** #endif /* MBEDTLS_SSL_EXTENDED_MASTER_SECRET */
 450:C:/Users/dtjld/workspace/AIoT/src/LiteOS_Lab/iot_link/network/dtls/mbedtls/mbedtls-2.16.2/library\version_features.c **** #if defined(MBEDTLS_SSL_FALLBACK_SCSV)
 451:C:/Users/dtjld/workspace/AIoT/src/LiteOS_Lab/iot_link/network/dtls/mbedtls/mbedtls-2.16.2/library\version_features.c ****     "MBEDTLS_SSL_FALLBACK_SCSV",
 452:C:/Users/dtjld/workspace/AIoT/src/LiteOS_Lab/iot_link/network/dtls/mbedtls/mbedtls-2.16.2/library\version_features.c **** #endif /* MBEDTLS_SSL_FALLBACK_SCSV */
 453:C:/Users/dtjld/workspace/AIoT/src/LiteOS_Lab/iot_link/network/dtls/mbedtls/mbedtls-2.16.2/library\version_features.c **** #if defined(MBEDTLS_SSL_HW_RECORD_ACCEL)
ARM GAS  C:\Users\dtjld\AppData\Local\Temp\cckhfJK6.s 			page 25


 454:C:/Users/dtjld/workspace/AIoT/src/LiteOS_Lab/iot_link/network/dtls/mbedtls/mbedtls-2.16.2/library\version_features.c ****     "MBEDTLS_SSL_HW_RECORD_ACCEL",
 455:C:/Users/dtjld/workspace/AIoT/src/LiteOS_Lab/iot_link/network/dtls/mbedtls/mbedtls-2.16.2/library\version_features.c **** #endif /* MBEDTLS_SSL_HW_RECORD_ACCEL */
 456:C:/Users/dtjld/workspace/AIoT/src/LiteOS_Lab/iot_link/network/dtls/mbedtls/mbedtls-2.16.2/library\version_features.c **** #if defined(MBEDTLS_SSL_CBC_RECORD_SPLITTING)
 457:C:/Users/dtjld/workspace/AIoT/src/LiteOS_Lab/iot_link/network/dtls/mbedtls/mbedtls-2.16.2/library\version_features.c ****     "MBEDTLS_SSL_CBC_RECORD_SPLITTING",
 458:C:/Users/dtjld/workspace/AIoT/src/LiteOS_Lab/iot_link/network/dtls/mbedtls/mbedtls-2.16.2/library\version_features.c **** #endif /* MBEDTLS_SSL_CBC_RECORD_SPLITTING */
 459:C:/Users/dtjld/workspace/AIoT/src/LiteOS_Lab/iot_link/network/dtls/mbedtls/mbedtls-2.16.2/library\version_features.c **** #if defined(MBEDTLS_SSL_RENEGOTIATION)
 460:C:/Users/dtjld/workspace/AIoT/src/LiteOS_Lab/iot_link/network/dtls/mbedtls/mbedtls-2.16.2/library\version_features.c ****     "MBEDTLS_SSL_RENEGOTIATION",
 461:C:/Users/dtjld/workspace/AIoT/src/LiteOS_Lab/iot_link/network/dtls/mbedtls/mbedtls-2.16.2/library\version_features.c **** #endif /* MBEDTLS_SSL_RENEGOTIATION */
 462:C:/Users/dtjld/workspace/AIoT/src/LiteOS_Lab/iot_link/network/dtls/mbedtls/mbedtls-2.16.2/library\version_features.c **** #if defined(MBEDTLS_SSL_SRV_SUPPORT_SSLV2_CLIENT_HELLO)
 463:C:/Users/dtjld/workspace/AIoT/src/LiteOS_Lab/iot_link/network/dtls/mbedtls/mbedtls-2.16.2/library\version_features.c ****     "MBEDTLS_SSL_SRV_SUPPORT_SSLV2_CLIENT_HELLO",
 464:C:/Users/dtjld/workspace/AIoT/src/LiteOS_Lab/iot_link/network/dtls/mbedtls/mbedtls-2.16.2/library\version_features.c **** #endif /* MBEDTLS_SSL_SRV_SUPPORT_SSLV2_CLIENT_HELLO */
 465:C:/Users/dtjld/workspace/AIoT/src/LiteOS_Lab/iot_link/network/dtls/mbedtls/mbedtls-2.16.2/library\version_features.c **** #if defined(MBEDTLS_SSL_SRV_RESPECT_CLIENT_PREFERENCE)
 466:C:/Users/dtjld/workspace/AIoT/src/LiteOS_Lab/iot_link/network/dtls/mbedtls/mbedtls-2.16.2/library\version_features.c ****     "MBEDTLS_SSL_SRV_RESPECT_CLIENT_PREFERENCE",
 467:C:/Users/dtjld/workspace/AIoT/src/LiteOS_Lab/iot_link/network/dtls/mbedtls/mbedtls-2.16.2/library\version_features.c **** #endif /* MBEDTLS_SSL_SRV_RESPECT_CLIENT_PREFERENCE */
 468:C:/Users/dtjld/workspace/AIoT/src/LiteOS_Lab/iot_link/network/dtls/mbedtls/mbedtls-2.16.2/library\version_features.c **** #if defined(MBEDTLS_SSL_MAX_FRAGMENT_LENGTH)
 469:C:/Users/dtjld/workspace/AIoT/src/LiteOS_Lab/iot_link/network/dtls/mbedtls/mbedtls-2.16.2/library\version_features.c ****     "MBEDTLS_SSL_MAX_FRAGMENT_LENGTH",
 470:C:/Users/dtjld/workspace/AIoT/src/LiteOS_Lab/iot_link/network/dtls/mbedtls/mbedtls-2.16.2/library\version_features.c **** #endif /* MBEDTLS_SSL_MAX_FRAGMENT_LENGTH */
 471:C:/Users/dtjld/workspace/AIoT/src/LiteOS_Lab/iot_link/network/dtls/mbedtls/mbedtls-2.16.2/library\version_features.c **** #if defined(MBEDTLS_SSL_PROTO_SSL3)
 472:C:/Users/dtjld/workspace/AIoT/src/LiteOS_Lab/iot_link/network/dtls/mbedtls/mbedtls-2.16.2/library\version_features.c ****     "MBEDTLS_SSL_PROTO_SSL3",
 473:C:/Users/dtjld/workspace/AIoT/src/LiteOS_Lab/iot_link/network/dtls/mbedtls/mbedtls-2.16.2/library\version_features.c **** #endif /* MBEDTLS_SSL_PROTO_SSL3 */
 474:C:/Users/dtjld/workspace/AIoT/src/LiteOS_Lab/iot_link/network/dtls/mbedtls/mbedtls-2.16.2/library\version_features.c **** #if defined(MBEDTLS_SSL_PROTO_TLS1)
 475:C:/Users/dtjld/workspace/AIoT/src/LiteOS_Lab/iot_link/network/dtls/mbedtls/mbedtls-2.16.2/library\version_features.c ****     "MBEDTLS_SSL_PROTO_TLS1",
 476:C:/Users/dtjld/workspace/AIoT/src/LiteOS_Lab/iot_link/network/dtls/mbedtls/mbedtls-2.16.2/library\version_features.c **** #endif /* MBEDTLS_SSL_PROTO_TLS1 */
 477:C:/Users/dtjld/workspace/AIoT/src/LiteOS_Lab/iot_link/network/dtls/mbedtls/mbedtls-2.16.2/library\version_features.c **** #if defined(MBEDTLS_SSL_PROTO_TLS1_1)
 478:C:/Users/dtjld/workspace/AIoT/src/LiteOS_Lab/iot_link/network/dtls/mbedtls/mbedtls-2.16.2/library\version_features.c ****     "MBEDTLS_SSL_PROTO_TLS1_1",
 479:C:/Users/dtjld/workspace/AIoT/src/LiteOS_Lab/iot_link/network/dtls/mbedtls/mbedtls-2.16.2/library\version_features.c **** #endif /* MBEDTLS_SSL_PROTO_TLS1_1 */
 480:C:/Users/dtjld/workspace/AIoT/src/LiteOS_Lab/iot_link/network/dtls/mbedtls/mbedtls-2.16.2/library\version_features.c **** #if defined(MBEDTLS_SSL_PROTO_TLS1_2)
 481:C:/Users/dtjld/workspace/AIoT/src/LiteOS_Lab/iot_link/network/dtls/mbedtls/mbedtls-2.16.2/library\version_features.c ****     "MBEDTLS_SSL_PROTO_TLS1_2",
 482:C:/Users/dtjld/workspace/AIoT/src/LiteOS_Lab/iot_link/network/dtls/mbedtls/mbedtls-2.16.2/library\version_features.c **** #endif /* MBEDTLS_SSL_PROTO_TLS1_2 */
 483:C:/Users/dtjld/workspace/AIoT/src/LiteOS_Lab/iot_link/network/dtls/mbedtls/mbedtls-2.16.2/library\version_features.c **** #if defined(MBEDTLS_SSL_PROTO_DTLS)
 484:C:/Users/dtjld/workspace/AIoT/src/LiteOS_Lab/iot_link/network/dtls/mbedtls/mbedtls-2.16.2/library\version_features.c ****     "MBEDTLS_SSL_PROTO_DTLS",
 485:C:/Users/dtjld/workspace/AIoT/src/LiteOS_Lab/iot_link/network/dtls/mbedtls/mbedtls-2.16.2/library\version_features.c **** #endif /* MBEDTLS_SSL_PROTO_DTLS */
 486:C:/Users/dtjld/workspace/AIoT/src/LiteOS_Lab/iot_link/network/dtls/mbedtls/mbedtls-2.16.2/library\version_features.c **** #if defined(MBEDTLS_SSL_ALPN)
 487:C:/Users/dtjld/workspace/AIoT/src/LiteOS_Lab/iot_link/network/dtls/mbedtls/mbedtls-2.16.2/library\version_features.c ****     "MBEDTLS_SSL_ALPN",
 488:C:/Users/dtjld/workspace/AIoT/src/LiteOS_Lab/iot_link/network/dtls/mbedtls/mbedtls-2.16.2/library\version_features.c **** #endif /* MBEDTLS_SSL_ALPN */
 489:C:/Users/dtjld/workspace/AIoT/src/LiteOS_Lab/iot_link/network/dtls/mbedtls/mbedtls-2.16.2/library\version_features.c **** #if defined(MBEDTLS_SSL_DTLS_ANTI_REPLAY)
 490:C:/Users/dtjld/workspace/AIoT/src/LiteOS_Lab/iot_link/network/dtls/mbedtls/mbedtls-2.16.2/library\version_features.c ****     "MBEDTLS_SSL_DTLS_ANTI_REPLAY",
 491:C:/Users/dtjld/workspace/AIoT/src/LiteOS_Lab/iot_link/network/dtls/mbedtls/mbedtls-2.16.2/library\version_features.c **** #endif /* MBEDTLS_SSL_DTLS_ANTI_REPLAY */
 492:C:/Users/dtjld/workspace/AIoT/src/LiteOS_Lab/iot_link/network/dtls/mbedtls/mbedtls-2.16.2/library\version_features.c **** #if defined(MBEDTLS_SSL_DTLS_HELLO_VERIFY)
 493:C:/Users/dtjld/workspace/AIoT/src/LiteOS_Lab/iot_link/network/dtls/mbedtls/mbedtls-2.16.2/library\version_features.c ****     "MBEDTLS_SSL_DTLS_HELLO_VERIFY",
 494:C:/Users/dtjld/workspace/AIoT/src/LiteOS_Lab/iot_link/network/dtls/mbedtls/mbedtls-2.16.2/library\version_features.c **** #endif /* MBEDTLS_SSL_DTLS_HELLO_VERIFY */
 495:C:/Users/dtjld/workspace/AIoT/src/LiteOS_Lab/iot_link/network/dtls/mbedtls/mbedtls-2.16.2/library\version_features.c **** #if defined(MBEDTLS_SSL_DTLS_CLIENT_PORT_REUSE)
 496:C:/Users/dtjld/workspace/AIoT/src/LiteOS_Lab/iot_link/network/dtls/mbedtls/mbedtls-2.16.2/library\version_features.c ****     "MBEDTLS_SSL_DTLS_CLIENT_PORT_REUSE",
 497:C:/Users/dtjld/workspace/AIoT/src/LiteOS_Lab/iot_link/network/dtls/mbedtls/mbedtls-2.16.2/library\version_features.c **** #endif /* MBEDTLS_SSL_DTLS_CLIENT_PORT_REUSE */
 498:C:/Users/dtjld/workspace/AIoT/src/LiteOS_Lab/iot_link/network/dtls/mbedtls/mbedtls-2.16.2/library\version_features.c **** #if defined(MBEDTLS_SSL_DTLS_BADMAC_LIMIT)
 499:C:/Users/dtjld/workspace/AIoT/src/LiteOS_Lab/iot_link/network/dtls/mbedtls/mbedtls-2.16.2/library\version_features.c ****     "MBEDTLS_SSL_DTLS_BADMAC_LIMIT",
 500:C:/Users/dtjld/workspace/AIoT/src/LiteOS_Lab/iot_link/network/dtls/mbedtls/mbedtls-2.16.2/library\version_features.c **** #endif /* MBEDTLS_SSL_DTLS_BADMAC_LIMIT */
 501:C:/Users/dtjld/workspace/AIoT/src/LiteOS_Lab/iot_link/network/dtls/mbedtls/mbedtls-2.16.2/library\version_features.c **** #if defined(MBEDTLS_SSL_SESSION_TICKETS)
 502:C:/Users/dtjld/workspace/AIoT/src/LiteOS_Lab/iot_link/network/dtls/mbedtls/mbedtls-2.16.2/library\version_features.c ****     "MBEDTLS_SSL_SESSION_TICKETS",
 503:C:/Users/dtjld/workspace/AIoT/src/LiteOS_Lab/iot_link/network/dtls/mbedtls/mbedtls-2.16.2/library\version_features.c **** #endif /* MBEDTLS_SSL_SESSION_TICKETS */
 504:C:/Users/dtjld/workspace/AIoT/src/LiteOS_Lab/iot_link/network/dtls/mbedtls/mbedtls-2.16.2/library\version_features.c **** #if defined(MBEDTLS_SSL_EXPORT_KEYS)
 505:C:/Users/dtjld/workspace/AIoT/src/LiteOS_Lab/iot_link/network/dtls/mbedtls/mbedtls-2.16.2/library\version_features.c ****     "MBEDTLS_SSL_EXPORT_KEYS",
 506:C:/Users/dtjld/workspace/AIoT/src/LiteOS_Lab/iot_link/network/dtls/mbedtls/mbedtls-2.16.2/library\version_features.c **** #endif /* MBEDTLS_SSL_EXPORT_KEYS */
 507:C:/Users/dtjld/workspace/AIoT/src/LiteOS_Lab/iot_link/network/dtls/mbedtls/mbedtls-2.16.2/library\version_features.c **** #if defined(MBEDTLS_SSL_SERVER_NAME_INDICATION)
 508:C:/Users/dtjld/workspace/AIoT/src/LiteOS_Lab/iot_link/network/dtls/mbedtls/mbedtls-2.16.2/library\version_features.c ****     "MBEDTLS_SSL_SERVER_NAME_INDICATION",
 509:C:/Users/dtjld/workspace/AIoT/src/LiteOS_Lab/iot_link/network/dtls/mbedtls/mbedtls-2.16.2/library\version_features.c **** #endif /* MBEDTLS_SSL_SERVER_NAME_INDICATION */
 510:C:/Users/dtjld/workspace/AIoT/src/LiteOS_Lab/iot_link/network/dtls/mbedtls/mbedtls-2.16.2/library\version_features.c **** #if defined(MBEDTLS_SSL_TRUNCATED_HMAC)
ARM GAS  C:\Users\dtjld\AppData\Local\Temp\cckhfJK6.s 			page 26


 511:C:/Users/dtjld/workspace/AIoT/src/LiteOS_Lab/iot_link/network/dtls/mbedtls/mbedtls-2.16.2/library\version_features.c ****     "MBEDTLS_SSL_TRUNCATED_HMAC",
 512:C:/Users/dtjld/workspace/AIoT/src/LiteOS_Lab/iot_link/network/dtls/mbedtls/mbedtls-2.16.2/library\version_features.c **** #endif /* MBEDTLS_SSL_TRUNCATED_HMAC */
 513:C:/Users/dtjld/workspace/AIoT/src/LiteOS_Lab/iot_link/network/dtls/mbedtls/mbedtls-2.16.2/library\version_features.c **** #if defined(MBEDTLS_SSL_TRUNCATED_HMAC_COMPAT)
 514:C:/Users/dtjld/workspace/AIoT/src/LiteOS_Lab/iot_link/network/dtls/mbedtls/mbedtls-2.16.2/library\version_features.c ****     "MBEDTLS_SSL_TRUNCATED_HMAC_COMPAT",
 515:C:/Users/dtjld/workspace/AIoT/src/LiteOS_Lab/iot_link/network/dtls/mbedtls/mbedtls-2.16.2/library\version_features.c **** #endif /* MBEDTLS_SSL_TRUNCATED_HMAC_COMPAT */
 516:C:/Users/dtjld/workspace/AIoT/src/LiteOS_Lab/iot_link/network/dtls/mbedtls/mbedtls-2.16.2/library\version_features.c **** #if defined(MBEDTLS_THREADING_ALT)
 517:C:/Users/dtjld/workspace/AIoT/src/LiteOS_Lab/iot_link/network/dtls/mbedtls/mbedtls-2.16.2/library\version_features.c ****     "MBEDTLS_THREADING_ALT",
 518:C:/Users/dtjld/workspace/AIoT/src/LiteOS_Lab/iot_link/network/dtls/mbedtls/mbedtls-2.16.2/library\version_features.c **** #endif /* MBEDTLS_THREADING_ALT */
 519:C:/Users/dtjld/workspace/AIoT/src/LiteOS_Lab/iot_link/network/dtls/mbedtls/mbedtls-2.16.2/library\version_features.c **** #if defined(MBEDTLS_THREADING_PTHREAD)
 520:C:/Users/dtjld/workspace/AIoT/src/LiteOS_Lab/iot_link/network/dtls/mbedtls/mbedtls-2.16.2/library\version_features.c ****     "MBEDTLS_THREADING_PTHREAD",
 521:C:/Users/dtjld/workspace/AIoT/src/LiteOS_Lab/iot_link/network/dtls/mbedtls/mbedtls-2.16.2/library\version_features.c **** #endif /* MBEDTLS_THREADING_PTHREAD */
 522:C:/Users/dtjld/workspace/AIoT/src/LiteOS_Lab/iot_link/network/dtls/mbedtls/mbedtls-2.16.2/library\version_features.c **** #if defined(MBEDTLS_VERSION_FEATURES)
 523:C:/Users/dtjld/workspace/AIoT/src/LiteOS_Lab/iot_link/network/dtls/mbedtls/mbedtls-2.16.2/library\version_features.c ****     "MBEDTLS_VERSION_FEATURES",
 524:C:/Users/dtjld/workspace/AIoT/src/LiteOS_Lab/iot_link/network/dtls/mbedtls/mbedtls-2.16.2/library\version_features.c **** #endif /* MBEDTLS_VERSION_FEATURES */
 525:C:/Users/dtjld/workspace/AIoT/src/LiteOS_Lab/iot_link/network/dtls/mbedtls/mbedtls-2.16.2/library\version_features.c **** #if defined(MBEDTLS_X509_ALLOW_EXTENSIONS_NON_V3)
 526:C:/Users/dtjld/workspace/AIoT/src/LiteOS_Lab/iot_link/network/dtls/mbedtls/mbedtls-2.16.2/library\version_features.c ****     "MBEDTLS_X509_ALLOW_EXTENSIONS_NON_V3",
 527:C:/Users/dtjld/workspace/AIoT/src/LiteOS_Lab/iot_link/network/dtls/mbedtls/mbedtls-2.16.2/library\version_features.c **** #endif /* MBEDTLS_X509_ALLOW_EXTENSIONS_NON_V3 */
 528:C:/Users/dtjld/workspace/AIoT/src/LiteOS_Lab/iot_link/network/dtls/mbedtls/mbedtls-2.16.2/library\version_features.c **** #if defined(MBEDTLS_X509_ALLOW_UNSUPPORTED_CRITICAL_EXTENSION)
 529:C:/Users/dtjld/workspace/AIoT/src/LiteOS_Lab/iot_link/network/dtls/mbedtls/mbedtls-2.16.2/library\version_features.c ****     "MBEDTLS_X509_ALLOW_UNSUPPORTED_CRITICAL_EXTENSION",
 530:C:/Users/dtjld/workspace/AIoT/src/LiteOS_Lab/iot_link/network/dtls/mbedtls/mbedtls-2.16.2/library\version_features.c **** #endif /* MBEDTLS_X509_ALLOW_UNSUPPORTED_CRITICAL_EXTENSION */
 531:C:/Users/dtjld/workspace/AIoT/src/LiteOS_Lab/iot_link/network/dtls/mbedtls/mbedtls-2.16.2/library\version_features.c **** #if defined(MBEDTLS_X509_CHECK_KEY_USAGE)
 532:C:/Users/dtjld/workspace/AIoT/src/LiteOS_Lab/iot_link/network/dtls/mbedtls/mbedtls-2.16.2/library\version_features.c ****     "MBEDTLS_X509_CHECK_KEY_USAGE",
 533:C:/Users/dtjld/workspace/AIoT/src/LiteOS_Lab/iot_link/network/dtls/mbedtls/mbedtls-2.16.2/library\version_features.c **** #endif /* MBEDTLS_X509_CHECK_KEY_USAGE */
 534:C:/Users/dtjld/workspace/AIoT/src/LiteOS_Lab/iot_link/network/dtls/mbedtls/mbedtls-2.16.2/library\version_features.c **** #if defined(MBEDTLS_X509_CHECK_EXTENDED_KEY_USAGE)
 535:C:/Users/dtjld/workspace/AIoT/src/LiteOS_Lab/iot_link/network/dtls/mbedtls/mbedtls-2.16.2/library\version_features.c ****     "MBEDTLS_X509_CHECK_EXTENDED_KEY_USAGE",
 536:C:/Users/dtjld/workspace/AIoT/src/LiteOS_Lab/iot_link/network/dtls/mbedtls/mbedtls-2.16.2/library\version_features.c **** #endif /* MBEDTLS_X509_CHECK_EXTENDED_KEY_USAGE */
 537:C:/Users/dtjld/workspace/AIoT/src/LiteOS_Lab/iot_link/network/dtls/mbedtls/mbedtls-2.16.2/library\version_features.c **** #if defined(MBEDTLS_X509_RSASSA_PSS_SUPPORT)
 538:C:/Users/dtjld/workspace/AIoT/src/LiteOS_Lab/iot_link/network/dtls/mbedtls/mbedtls-2.16.2/library\version_features.c ****     "MBEDTLS_X509_RSASSA_PSS_SUPPORT",
 539:C:/Users/dtjld/workspace/AIoT/src/LiteOS_Lab/iot_link/network/dtls/mbedtls/mbedtls-2.16.2/library\version_features.c **** #endif /* MBEDTLS_X509_RSASSA_PSS_SUPPORT */
 540:C:/Users/dtjld/workspace/AIoT/src/LiteOS_Lab/iot_link/network/dtls/mbedtls/mbedtls-2.16.2/library\version_features.c **** #if defined(MBEDTLS_ZLIB_SUPPORT)
 541:C:/Users/dtjld/workspace/AIoT/src/LiteOS_Lab/iot_link/network/dtls/mbedtls/mbedtls-2.16.2/library\version_features.c ****     "MBEDTLS_ZLIB_SUPPORT",
 542:C:/Users/dtjld/workspace/AIoT/src/LiteOS_Lab/iot_link/network/dtls/mbedtls/mbedtls-2.16.2/library\version_features.c **** #endif /* MBEDTLS_ZLIB_SUPPORT */
 543:C:/Users/dtjld/workspace/AIoT/src/LiteOS_Lab/iot_link/network/dtls/mbedtls/mbedtls-2.16.2/library\version_features.c **** #if defined(MBEDTLS_AESNI_C)
 544:C:/Users/dtjld/workspace/AIoT/src/LiteOS_Lab/iot_link/network/dtls/mbedtls/mbedtls-2.16.2/library\version_features.c ****     "MBEDTLS_AESNI_C",
 545:C:/Users/dtjld/workspace/AIoT/src/LiteOS_Lab/iot_link/network/dtls/mbedtls/mbedtls-2.16.2/library\version_features.c **** #endif /* MBEDTLS_AESNI_C */
 546:C:/Users/dtjld/workspace/AIoT/src/LiteOS_Lab/iot_link/network/dtls/mbedtls/mbedtls-2.16.2/library\version_features.c **** #if defined(MBEDTLS_AES_C)
 547:C:/Users/dtjld/workspace/AIoT/src/LiteOS_Lab/iot_link/network/dtls/mbedtls/mbedtls-2.16.2/library\version_features.c ****     "MBEDTLS_AES_C",
 548:C:/Users/dtjld/workspace/AIoT/src/LiteOS_Lab/iot_link/network/dtls/mbedtls/mbedtls-2.16.2/library\version_features.c **** #endif /* MBEDTLS_AES_C */
 549:C:/Users/dtjld/workspace/AIoT/src/LiteOS_Lab/iot_link/network/dtls/mbedtls/mbedtls-2.16.2/library\version_features.c **** #if defined(MBEDTLS_ARC4_C)
 550:C:/Users/dtjld/workspace/AIoT/src/LiteOS_Lab/iot_link/network/dtls/mbedtls/mbedtls-2.16.2/library\version_features.c ****     "MBEDTLS_ARC4_C",
 551:C:/Users/dtjld/workspace/AIoT/src/LiteOS_Lab/iot_link/network/dtls/mbedtls/mbedtls-2.16.2/library\version_features.c **** #endif /* MBEDTLS_ARC4_C */
 552:C:/Users/dtjld/workspace/AIoT/src/LiteOS_Lab/iot_link/network/dtls/mbedtls/mbedtls-2.16.2/library\version_features.c **** #if defined(MBEDTLS_ASN1_PARSE_C)
 553:C:/Users/dtjld/workspace/AIoT/src/LiteOS_Lab/iot_link/network/dtls/mbedtls/mbedtls-2.16.2/library\version_features.c ****     "MBEDTLS_ASN1_PARSE_C",
 554:C:/Users/dtjld/workspace/AIoT/src/LiteOS_Lab/iot_link/network/dtls/mbedtls/mbedtls-2.16.2/library\version_features.c **** #endif /* MBEDTLS_ASN1_PARSE_C */
 555:C:/Users/dtjld/workspace/AIoT/src/LiteOS_Lab/iot_link/network/dtls/mbedtls/mbedtls-2.16.2/library\version_features.c **** #if defined(MBEDTLS_ASN1_WRITE_C)
 556:C:/Users/dtjld/workspace/AIoT/src/LiteOS_Lab/iot_link/network/dtls/mbedtls/mbedtls-2.16.2/library\version_features.c ****     "MBEDTLS_ASN1_WRITE_C",
 557:C:/Users/dtjld/workspace/AIoT/src/LiteOS_Lab/iot_link/network/dtls/mbedtls/mbedtls-2.16.2/library\version_features.c **** #endif /* MBEDTLS_ASN1_WRITE_C */
 558:C:/Users/dtjld/workspace/AIoT/src/LiteOS_Lab/iot_link/network/dtls/mbedtls/mbedtls-2.16.2/library\version_features.c **** #if defined(MBEDTLS_BASE64_C)
 559:C:/Users/dtjld/workspace/AIoT/src/LiteOS_Lab/iot_link/network/dtls/mbedtls/mbedtls-2.16.2/library\version_features.c ****     "MBEDTLS_BASE64_C",
 560:C:/Users/dtjld/workspace/AIoT/src/LiteOS_Lab/iot_link/network/dtls/mbedtls/mbedtls-2.16.2/library\version_features.c **** #endif /* MBEDTLS_BASE64_C */
 561:C:/Users/dtjld/workspace/AIoT/src/LiteOS_Lab/iot_link/network/dtls/mbedtls/mbedtls-2.16.2/library\version_features.c **** #if defined(MBEDTLS_BIGNUM_C)
 562:C:/Users/dtjld/workspace/AIoT/src/LiteOS_Lab/iot_link/network/dtls/mbedtls/mbedtls-2.16.2/library\version_features.c ****     "MBEDTLS_BIGNUM_C",
 563:C:/Users/dtjld/workspace/AIoT/src/LiteOS_Lab/iot_link/network/dtls/mbedtls/mbedtls-2.16.2/library\version_features.c **** #endif /* MBEDTLS_BIGNUM_C */
 564:C:/Users/dtjld/workspace/AIoT/src/LiteOS_Lab/iot_link/network/dtls/mbedtls/mbedtls-2.16.2/library\version_features.c **** #if defined(MBEDTLS_BLOWFISH_C)
 565:C:/Users/dtjld/workspace/AIoT/src/LiteOS_Lab/iot_link/network/dtls/mbedtls/mbedtls-2.16.2/library\version_features.c ****     "MBEDTLS_BLOWFISH_C",
 566:C:/Users/dtjld/workspace/AIoT/src/LiteOS_Lab/iot_link/network/dtls/mbedtls/mbedtls-2.16.2/library\version_features.c **** #endif /* MBEDTLS_BLOWFISH_C */
 567:C:/Users/dtjld/workspace/AIoT/src/LiteOS_Lab/iot_link/network/dtls/mbedtls/mbedtls-2.16.2/library\version_features.c **** #if defined(MBEDTLS_CAMELLIA_C)
ARM GAS  C:\Users\dtjld\AppData\Local\Temp\cckhfJK6.s 			page 27


 568:C:/Users/dtjld/workspace/AIoT/src/LiteOS_Lab/iot_link/network/dtls/mbedtls/mbedtls-2.16.2/library\version_features.c ****     "MBEDTLS_CAMELLIA_C",
 569:C:/Users/dtjld/workspace/AIoT/src/LiteOS_Lab/iot_link/network/dtls/mbedtls/mbedtls-2.16.2/library\version_features.c **** #endif /* MBEDTLS_CAMELLIA_C */
 570:C:/Users/dtjld/workspace/AIoT/src/LiteOS_Lab/iot_link/network/dtls/mbedtls/mbedtls-2.16.2/library\version_features.c **** #if defined(MBEDTLS_ARIA_C)
 571:C:/Users/dtjld/workspace/AIoT/src/LiteOS_Lab/iot_link/network/dtls/mbedtls/mbedtls-2.16.2/library\version_features.c ****     "MBEDTLS_ARIA_C",
 572:C:/Users/dtjld/workspace/AIoT/src/LiteOS_Lab/iot_link/network/dtls/mbedtls/mbedtls-2.16.2/library\version_features.c **** #endif /* MBEDTLS_ARIA_C */
 573:C:/Users/dtjld/workspace/AIoT/src/LiteOS_Lab/iot_link/network/dtls/mbedtls/mbedtls-2.16.2/library\version_features.c **** #if defined(MBEDTLS_CCM_C)
 574:C:/Users/dtjld/workspace/AIoT/src/LiteOS_Lab/iot_link/network/dtls/mbedtls/mbedtls-2.16.2/library\version_features.c ****     "MBEDTLS_CCM_C",
 575:C:/Users/dtjld/workspace/AIoT/src/LiteOS_Lab/iot_link/network/dtls/mbedtls/mbedtls-2.16.2/library\version_features.c **** #endif /* MBEDTLS_CCM_C */
 576:C:/Users/dtjld/workspace/AIoT/src/LiteOS_Lab/iot_link/network/dtls/mbedtls/mbedtls-2.16.2/library\version_features.c **** #if defined(MBEDTLS_CERTS_C)
 577:C:/Users/dtjld/workspace/AIoT/src/LiteOS_Lab/iot_link/network/dtls/mbedtls/mbedtls-2.16.2/library\version_features.c ****     "MBEDTLS_CERTS_C",
 578:C:/Users/dtjld/workspace/AIoT/src/LiteOS_Lab/iot_link/network/dtls/mbedtls/mbedtls-2.16.2/library\version_features.c **** #endif /* MBEDTLS_CERTS_C */
 579:C:/Users/dtjld/workspace/AIoT/src/LiteOS_Lab/iot_link/network/dtls/mbedtls/mbedtls-2.16.2/library\version_features.c **** #if defined(MBEDTLS_CHACHA20_C)
 580:C:/Users/dtjld/workspace/AIoT/src/LiteOS_Lab/iot_link/network/dtls/mbedtls/mbedtls-2.16.2/library\version_features.c ****     "MBEDTLS_CHACHA20_C",
 581:C:/Users/dtjld/workspace/AIoT/src/LiteOS_Lab/iot_link/network/dtls/mbedtls/mbedtls-2.16.2/library\version_features.c **** #endif /* MBEDTLS_CHACHA20_C */
 582:C:/Users/dtjld/workspace/AIoT/src/LiteOS_Lab/iot_link/network/dtls/mbedtls/mbedtls-2.16.2/library\version_features.c **** #if defined(MBEDTLS_CHACHAPOLY_C)
 583:C:/Users/dtjld/workspace/AIoT/src/LiteOS_Lab/iot_link/network/dtls/mbedtls/mbedtls-2.16.2/library\version_features.c ****     "MBEDTLS_CHACHAPOLY_C",
 584:C:/Users/dtjld/workspace/AIoT/src/LiteOS_Lab/iot_link/network/dtls/mbedtls/mbedtls-2.16.2/library\version_features.c **** #endif /* MBEDTLS_CHACHAPOLY_C */
 585:C:/Users/dtjld/workspace/AIoT/src/LiteOS_Lab/iot_link/network/dtls/mbedtls/mbedtls-2.16.2/library\version_features.c **** #if defined(MBEDTLS_CIPHER_C)
 586:C:/Users/dtjld/workspace/AIoT/src/LiteOS_Lab/iot_link/network/dtls/mbedtls/mbedtls-2.16.2/library\version_features.c ****     "MBEDTLS_CIPHER_C",
 587:C:/Users/dtjld/workspace/AIoT/src/LiteOS_Lab/iot_link/network/dtls/mbedtls/mbedtls-2.16.2/library\version_features.c **** #endif /* MBEDTLS_CIPHER_C */
 588:C:/Users/dtjld/workspace/AIoT/src/LiteOS_Lab/iot_link/network/dtls/mbedtls/mbedtls-2.16.2/library\version_features.c **** #if defined(MBEDTLS_CMAC_C)
 589:C:/Users/dtjld/workspace/AIoT/src/LiteOS_Lab/iot_link/network/dtls/mbedtls/mbedtls-2.16.2/library\version_features.c ****     "MBEDTLS_CMAC_C",
 590:C:/Users/dtjld/workspace/AIoT/src/LiteOS_Lab/iot_link/network/dtls/mbedtls/mbedtls-2.16.2/library\version_features.c **** #endif /* MBEDTLS_CMAC_C */
 591:C:/Users/dtjld/workspace/AIoT/src/LiteOS_Lab/iot_link/network/dtls/mbedtls/mbedtls-2.16.2/library\version_features.c **** #if defined(MBEDTLS_CTR_DRBG_C)
 592:C:/Users/dtjld/workspace/AIoT/src/LiteOS_Lab/iot_link/network/dtls/mbedtls/mbedtls-2.16.2/library\version_features.c ****     "MBEDTLS_CTR_DRBG_C",
 593:C:/Users/dtjld/workspace/AIoT/src/LiteOS_Lab/iot_link/network/dtls/mbedtls/mbedtls-2.16.2/library\version_features.c **** #endif /* MBEDTLS_CTR_DRBG_C */
 594:C:/Users/dtjld/workspace/AIoT/src/LiteOS_Lab/iot_link/network/dtls/mbedtls/mbedtls-2.16.2/library\version_features.c **** #if defined(MBEDTLS_DEBUG_C)
 595:C:/Users/dtjld/workspace/AIoT/src/LiteOS_Lab/iot_link/network/dtls/mbedtls/mbedtls-2.16.2/library\version_features.c ****     "MBEDTLS_DEBUG_C",
 596:C:/Users/dtjld/workspace/AIoT/src/LiteOS_Lab/iot_link/network/dtls/mbedtls/mbedtls-2.16.2/library\version_features.c **** #endif /* MBEDTLS_DEBUG_C */
 597:C:/Users/dtjld/workspace/AIoT/src/LiteOS_Lab/iot_link/network/dtls/mbedtls/mbedtls-2.16.2/library\version_features.c **** #if defined(MBEDTLS_DES_C)
 598:C:/Users/dtjld/workspace/AIoT/src/LiteOS_Lab/iot_link/network/dtls/mbedtls/mbedtls-2.16.2/library\version_features.c ****     "MBEDTLS_DES_C",
 599:C:/Users/dtjld/workspace/AIoT/src/LiteOS_Lab/iot_link/network/dtls/mbedtls/mbedtls-2.16.2/library\version_features.c **** #endif /* MBEDTLS_DES_C */
 600:C:/Users/dtjld/workspace/AIoT/src/LiteOS_Lab/iot_link/network/dtls/mbedtls/mbedtls-2.16.2/library\version_features.c **** #if defined(MBEDTLS_DHM_C)
 601:C:/Users/dtjld/workspace/AIoT/src/LiteOS_Lab/iot_link/network/dtls/mbedtls/mbedtls-2.16.2/library\version_features.c ****     "MBEDTLS_DHM_C",
 602:C:/Users/dtjld/workspace/AIoT/src/LiteOS_Lab/iot_link/network/dtls/mbedtls/mbedtls-2.16.2/library\version_features.c **** #endif /* MBEDTLS_DHM_C */
 603:C:/Users/dtjld/workspace/AIoT/src/LiteOS_Lab/iot_link/network/dtls/mbedtls/mbedtls-2.16.2/library\version_features.c **** #if defined(MBEDTLS_ECDH_C)
 604:C:/Users/dtjld/workspace/AIoT/src/LiteOS_Lab/iot_link/network/dtls/mbedtls/mbedtls-2.16.2/library\version_features.c ****     "MBEDTLS_ECDH_C",
 605:C:/Users/dtjld/workspace/AIoT/src/LiteOS_Lab/iot_link/network/dtls/mbedtls/mbedtls-2.16.2/library\version_features.c **** #endif /* MBEDTLS_ECDH_C */
 606:C:/Users/dtjld/workspace/AIoT/src/LiteOS_Lab/iot_link/network/dtls/mbedtls/mbedtls-2.16.2/library\version_features.c **** #if defined(MBEDTLS_ECDSA_C)
 607:C:/Users/dtjld/workspace/AIoT/src/LiteOS_Lab/iot_link/network/dtls/mbedtls/mbedtls-2.16.2/library\version_features.c ****     "MBEDTLS_ECDSA_C",
 608:C:/Users/dtjld/workspace/AIoT/src/LiteOS_Lab/iot_link/network/dtls/mbedtls/mbedtls-2.16.2/library\version_features.c **** #endif /* MBEDTLS_ECDSA_C */
 609:C:/Users/dtjld/workspace/AIoT/src/LiteOS_Lab/iot_link/network/dtls/mbedtls/mbedtls-2.16.2/library\version_features.c **** #if defined(MBEDTLS_ECJPAKE_C)
 610:C:/Users/dtjld/workspace/AIoT/src/LiteOS_Lab/iot_link/network/dtls/mbedtls/mbedtls-2.16.2/library\version_features.c ****     "MBEDTLS_ECJPAKE_C",
 611:C:/Users/dtjld/workspace/AIoT/src/LiteOS_Lab/iot_link/network/dtls/mbedtls/mbedtls-2.16.2/library\version_features.c **** #endif /* MBEDTLS_ECJPAKE_C */
 612:C:/Users/dtjld/workspace/AIoT/src/LiteOS_Lab/iot_link/network/dtls/mbedtls/mbedtls-2.16.2/library\version_features.c **** #if defined(MBEDTLS_ECP_C)
 613:C:/Users/dtjld/workspace/AIoT/src/LiteOS_Lab/iot_link/network/dtls/mbedtls/mbedtls-2.16.2/library\version_features.c ****     "MBEDTLS_ECP_C",
 614:C:/Users/dtjld/workspace/AIoT/src/LiteOS_Lab/iot_link/network/dtls/mbedtls/mbedtls-2.16.2/library\version_features.c **** #endif /* MBEDTLS_ECP_C */
 615:C:/Users/dtjld/workspace/AIoT/src/LiteOS_Lab/iot_link/network/dtls/mbedtls/mbedtls-2.16.2/library\version_features.c **** #if defined(MBEDTLS_ENTROPY_C)
 616:C:/Users/dtjld/workspace/AIoT/src/LiteOS_Lab/iot_link/network/dtls/mbedtls/mbedtls-2.16.2/library\version_features.c ****     "MBEDTLS_ENTROPY_C",
 617:C:/Users/dtjld/workspace/AIoT/src/LiteOS_Lab/iot_link/network/dtls/mbedtls/mbedtls-2.16.2/library\version_features.c **** #endif /* MBEDTLS_ENTROPY_C */
 618:C:/Users/dtjld/workspace/AIoT/src/LiteOS_Lab/iot_link/network/dtls/mbedtls/mbedtls-2.16.2/library\version_features.c **** #if defined(MBEDTLS_ERROR_C)
 619:C:/Users/dtjld/workspace/AIoT/src/LiteOS_Lab/iot_link/network/dtls/mbedtls/mbedtls-2.16.2/library\version_features.c ****     "MBEDTLS_ERROR_C",
 620:C:/Users/dtjld/workspace/AIoT/src/LiteOS_Lab/iot_link/network/dtls/mbedtls/mbedtls-2.16.2/library\version_features.c **** #endif /* MBEDTLS_ERROR_C */
 621:C:/Users/dtjld/workspace/AIoT/src/LiteOS_Lab/iot_link/network/dtls/mbedtls/mbedtls-2.16.2/library\version_features.c **** #if defined(MBEDTLS_GCM_C)
 622:C:/Users/dtjld/workspace/AIoT/src/LiteOS_Lab/iot_link/network/dtls/mbedtls/mbedtls-2.16.2/library\version_features.c ****     "MBEDTLS_GCM_C",
 623:C:/Users/dtjld/workspace/AIoT/src/LiteOS_Lab/iot_link/network/dtls/mbedtls/mbedtls-2.16.2/library\version_features.c **** #endif /* MBEDTLS_GCM_C */
 624:C:/Users/dtjld/workspace/AIoT/src/LiteOS_Lab/iot_link/network/dtls/mbedtls/mbedtls-2.16.2/library\version_features.c **** #if defined(MBEDTLS_HAVEGE_C)
ARM GAS  C:\Users\dtjld\AppData\Local\Temp\cckhfJK6.s 			page 28


 625:C:/Users/dtjld/workspace/AIoT/src/LiteOS_Lab/iot_link/network/dtls/mbedtls/mbedtls-2.16.2/library\version_features.c ****     "MBEDTLS_HAVEGE_C",
 626:C:/Users/dtjld/workspace/AIoT/src/LiteOS_Lab/iot_link/network/dtls/mbedtls/mbedtls-2.16.2/library\version_features.c **** #endif /* MBEDTLS_HAVEGE_C */
 627:C:/Users/dtjld/workspace/AIoT/src/LiteOS_Lab/iot_link/network/dtls/mbedtls/mbedtls-2.16.2/library\version_features.c **** #if defined(MBEDTLS_HKDF_C)
 628:C:/Users/dtjld/workspace/AIoT/src/LiteOS_Lab/iot_link/network/dtls/mbedtls/mbedtls-2.16.2/library\version_features.c ****     "MBEDTLS_HKDF_C",
 629:C:/Users/dtjld/workspace/AIoT/src/LiteOS_Lab/iot_link/network/dtls/mbedtls/mbedtls-2.16.2/library\version_features.c **** #endif /* MBEDTLS_HKDF_C */
 630:C:/Users/dtjld/workspace/AIoT/src/LiteOS_Lab/iot_link/network/dtls/mbedtls/mbedtls-2.16.2/library\version_features.c **** #if defined(MBEDTLS_HMAC_DRBG_C)
 631:C:/Users/dtjld/workspace/AIoT/src/LiteOS_Lab/iot_link/network/dtls/mbedtls/mbedtls-2.16.2/library\version_features.c ****     "MBEDTLS_HMAC_DRBG_C",
 632:C:/Users/dtjld/workspace/AIoT/src/LiteOS_Lab/iot_link/network/dtls/mbedtls/mbedtls-2.16.2/library\version_features.c **** #endif /* MBEDTLS_HMAC_DRBG_C */
 633:C:/Users/dtjld/workspace/AIoT/src/LiteOS_Lab/iot_link/network/dtls/mbedtls/mbedtls-2.16.2/library\version_features.c **** #if defined(MBEDTLS_NIST_KW_C)
 634:C:/Users/dtjld/workspace/AIoT/src/LiteOS_Lab/iot_link/network/dtls/mbedtls/mbedtls-2.16.2/library\version_features.c ****     "MBEDTLS_NIST_KW_C",
 635:C:/Users/dtjld/workspace/AIoT/src/LiteOS_Lab/iot_link/network/dtls/mbedtls/mbedtls-2.16.2/library\version_features.c **** #endif /* MBEDTLS_NIST_KW_C */
 636:C:/Users/dtjld/workspace/AIoT/src/LiteOS_Lab/iot_link/network/dtls/mbedtls/mbedtls-2.16.2/library\version_features.c **** #if defined(MBEDTLS_MD_C)
 637:C:/Users/dtjld/workspace/AIoT/src/LiteOS_Lab/iot_link/network/dtls/mbedtls/mbedtls-2.16.2/library\version_features.c ****     "MBEDTLS_MD_C",
 638:C:/Users/dtjld/workspace/AIoT/src/LiteOS_Lab/iot_link/network/dtls/mbedtls/mbedtls-2.16.2/library\version_features.c **** #endif /* MBEDTLS_MD_C */
 639:C:/Users/dtjld/workspace/AIoT/src/LiteOS_Lab/iot_link/network/dtls/mbedtls/mbedtls-2.16.2/library\version_features.c **** #if defined(MBEDTLS_MD2_C)
 640:C:/Users/dtjld/workspace/AIoT/src/LiteOS_Lab/iot_link/network/dtls/mbedtls/mbedtls-2.16.2/library\version_features.c ****     "MBEDTLS_MD2_C",
 641:C:/Users/dtjld/workspace/AIoT/src/LiteOS_Lab/iot_link/network/dtls/mbedtls/mbedtls-2.16.2/library\version_features.c **** #endif /* MBEDTLS_MD2_C */
 642:C:/Users/dtjld/workspace/AIoT/src/LiteOS_Lab/iot_link/network/dtls/mbedtls/mbedtls-2.16.2/library\version_features.c **** #if defined(MBEDTLS_MD4_C)
 643:C:/Users/dtjld/workspace/AIoT/src/LiteOS_Lab/iot_link/network/dtls/mbedtls/mbedtls-2.16.2/library\version_features.c ****     "MBEDTLS_MD4_C",
 644:C:/Users/dtjld/workspace/AIoT/src/LiteOS_Lab/iot_link/network/dtls/mbedtls/mbedtls-2.16.2/library\version_features.c **** #endif /* MBEDTLS_MD4_C */
 645:C:/Users/dtjld/workspace/AIoT/src/LiteOS_Lab/iot_link/network/dtls/mbedtls/mbedtls-2.16.2/library\version_features.c **** #if defined(MBEDTLS_MD5_C)
 646:C:/Users/dtjld/workspace/AIoT/src/LiteOS_Lab/iot_link/network/dtls/mbedtls/mbedtls-2.16.2/library\version_features.c ****     "MBEDTLS_MD5_C",
 647:C:/Users/dtjld/workspace/AIoT/src/LiteOS_Lab/iot_link/network/dtls/mbedtls/mbedtls-2.16.2/library\version_features.c **** #endif /* MBEDTLS_MD5_C */
 648:C:/Users/dtjld/workspace/AIoT/src/LiteOS_Lab/iot_link/network/dtls/mbedtls/mbedtls-2.16.2/library\version_features.c **** #if defined(MBEDTLS_MEMORY_BUFFER_ALLOC_C)
 649:C:/Users/dtjld/workspace/AIoT/src/LiteOS_Lab/iot_link/network/dtls/mbedtls/mbedtls-2.16.2/library\version_features.c ****     "MBEDTLS_MEMORY_BUFFER_ALLOC_C",
 650:C:/Users/dtjld/workspace/AIoT/src/LiteOS_Lab/iot_link/network/dtls/mbedtls/mbedtls-2.16.2/library\version_features.c **** #endif /* MBEDTLS_MEMORY_BUFFER_ALLOC_C */
 651:C:/Users/dtjld/workspace/AIoT/src/LiteOS_Lab/iot_link/network/dtls/mbedtls/mbedtls-2.16.2/library\version_features.c **** #if defined(MBEDTLS_NET_C)
 652:C:/Users/dtjld/workspace/AIoT/src/LiteOS_Lab/iot_link/network/dtls/mbedtls/mbedtls-2.16.2/library\version_features.c ****     "MBEDTLS_NET_C",
 653:C:/Users/dtjld/workspace/AIoT/src/LiteOS_Lab/iot_link/network/dtls/mbedtls/mbedtls-2.16.2/library\version_features.c **** #endif /* MBEDTLS_NET_C */
 654:C:/Users/dtjld/workspace/AIoT/src/LiteOS_Lab/iot_link/network/dtls/mbedtls/mbedtls-2.16.2/library\version_features.c **** #if defined(MBEDTLS_OID_C)
 655:C:/Users/dtjld/workspace/AIoT/src/LiteOS_Lab/iot_link/network/dtls/mbedtls/mbedtls-2.16.2/library\version_features.c ****     "MBEDTLS_OID_C",
 656:C:/Users/dtjld/workspace/AIoT/src/LiteOS_Lab/iot_link/network/dtls/mbedtls/mbedtls-2.16.2/library\version_features.c **** #endif /* MBEDTLS_OID_C */
 657:C:/Users/dtjld/workspace/AIoT/src/LiteOS_Lab/iot_link/network/dtls/mbedtls/mbedtls-2.16.2/library\version_features.c **** #if defined(MBEDTLS_PADLOCK_C)
 658:C:/Users/dtjld/workspace/AIoT/src/LiteOS_Lab/iot_link/network/dtls/mbedtls/mbedtls-2.16.2/library\version_features.c ****     "MBEDTLS_PADLOCK_C",
 659:C:/Users/dtjld/workspace/AIoT/src/LiteOS_Lab/iot_link/network/dtls/mbedtls/mbedtls-2.16.2/library\version_features.c **** #endif /* MBEDTLS_PADLOCK_C */
 660:C:/Users/dtjld/workspace/AIoT/src/LiteOS_Lab/iot_link/network/dtls/mbedtls/mbedtls-2.16.2/library\version_features.c **** #if defined(MBEDTLS_PEM_PARSE_C)
 661:C:/Users/dtjld/workspace/AIoT/src/LiteOS_Lab/iot_link/network/dtls/mbedtls/mbedtls-2.16.2/library\version_features.c ****     "MBEDTLS_PEM_PARSE_C",
 662:C:/Users/dtjld/workspace/AIoT/src/LiteOS_Lab/iot_link/network/dtls/mbedtls/mbedtls-2.16.2/library\version_features.c **** #endif /* MBEDTLS_PEM_PARSE_C */
 663:C:/Users/dtjld/workspace/AIoT/src/LiteOS_Lab/iot_link/network/dtls/mbedtls/mbedtls-2.16.2/library\version_features.c **** #if defined(MBEDTLS_PEM_WRITE_C)
 664:C:/Users/dtjld/workspace/AIoT/src/LiteOS_Lab/iot_link/network/dtls/mbedtls/mbedtls-2.16.2/library\version_features.c ****     "MBEDTLS_PEM_WRITE_C",
 665:C:/Users/dtjld/workspace/AIoT/src/LiteOS_Lab/iot_link/network/dtls/mbedtls/mbedtls-2.16.2/library\version_features.c **** #endif /* MBEDTLS_PEM_WRITE_C */
 666:C:/Users/dtjld/workspace/AIoT/src/LiteOS_Lab/iot_link/network/dtls/mbedtls/mbedtls-2.16.2/library\version_features.c **** #if defined(MBEDTLS_PK_C)
 667:C:/Users/dtjld/workspace/AIoT/src/LiteOS_Lab/iot_link/network/dtls/mbedtls/mbedtls-2.16.2/library\version_features.c ****     "MBEDTLS_PK_C",
 668:C:/Users/dtjld/workspace/AIoT/src/LiteOS_Lab/iot_link/network/dtls/mbedtls/mbedtls-2.16.2/library\version_features.c **** #endif /* MBEDTLS_PK_C */
 669:C:/Users/dtjld/workspace/AIoT/src/LiteOS_Lab/iot_link/network/dtls/mbedtls/mbedtls-2.16.2/library\version_features.c **** #if defined(MBEDTLS_PK_PARSE_C)
 670:C:/Users/dtjld/workspace/AIoT/src/LiteOS_Lab/iot_link/network/dtls/mbedtls/mbedtls-2.16.2/library\version_features.c ****     "MBEDTLS_PK_PARSE_C",
 671:C:/Users/dtjld/workspace/AIoT/src/LiteOS_Lab/iot_link/network/dtls/mbedtls/mbedtls-2.16.2/library\version_features.c **** #endif /* MBEDTLS_PK_PARSE_C */
 672:C:/Users/dtjld/workspace/AIoT/src/LiteOS_Lab/iot_link/network/dtls/mbedtls/mbedtls-2.16.2/library\version_features.c **** #if defined(MBEDTLS_PK_WRITE_C)
 673:C:/Users/dtjld/workspace/AIoT/src/LiteOS_Lab/iot_link/network/dtls/mbedtls/mbedtls-2.16.2/library\version_features.c ****     "MBEDTLS_PK_WRITE_C",
 674:C:/Users/dtjld/workspace/AIoT/src/LiteOS_Lab/iot_link/network/dtls/mbedtls/mbedtls-2.16.2/library\version_features.c **** #endif /* MBEDTLS_PK_WRITE_C */
 675:C:/Users/dtjld/workspace/AIoT/src/LiteOS_Lab/iot_link/network/dtls/mbedtls/mbedtls-2.16.2/library\version_features.c **** #if defined(MBEDTLS_PKCS5_C)
 676:C:/Users/dtjld/workspace/AIoT/src/LiteOS_Lab/iot_link/network/dtls/mbedtls/mbedtls-2.16.2/library\version_features.c ****     "MBEDTLS_PKCS5_C",
 677:C:/Users/dtjld/workspace/AIoT/src/LiteOS_Lab/iot_link/network/dtls/mbedtls/mbedtls-2.16.2/library\version_features.c **** #endif /* MBEDTLS_PKCS5_C */
 678:C:/Users/dtjld/workspace/AIoT/src/LiteOS_Lab/iot_link/network/dtls/mbedtls/mbedtls-2.16.2/library\version_features.c **** #if defined(MBEDTLS_PKCS11_C)
 679:C:/Users/dtjld/workspace/AIoT/src/LiteOS_Lab/iot_link/network/dtls/mbedtls/mbedtls-2.16.2/library\version_features.c ****     "MBEDTLS_PKCS11_C",
 680:C:/Users/dtjld/workspace/AIoT/src/LiteOS_Lab/iot_link/network/dtls/mbedtls/mbedtls-2.16.2/library\version_features.c **** #endif /* MBEDTLS_PKCS11_C */
 681:C:/Users/dtjld/workspace/AIoT/src/LiteOS_Lab/iot_link/network/dtls/mbedtls/mbedtls-2.16.2/library\version_features.c **** #if defined(MBEDTLS_PKCS12_C)
ARM GAS  C:\Users\dtjld\AppData\Local\Temp\cckhfJK6.s 			page 29


 682:C:/Users/dtjld/workspace/AIoT/src/LiteOS_Lab/iot_link/network/dtls/mbedtls/mbedtls-2.16.2/library\version_features.c ****     "MBEDTLS_PKCS12_C",
 683:C:/Users/dtjld/workspace/AIoT/src/LiteOS_Lab/iot_link/network/dtls/mbedtls/mbedtls-2.16.2/library\version_features.c **** #endif /* MBEDTLS_PKCS12_C */
 684:C:/Users/dtjld/workspace/AIoT/src/LiteOS_Lab/iot_link/network/dtls/mbedtls/mbedtls-2.16.2/library\version_features.c **** #if defined(MBEDTLS_PLATFORM_C)
 685:C:/Users/dtjld/workspace/AIoT/src/LiteOS_Lab/iot_link/network/dtls/mbedtls/mbedtls-2.16.2/library\version_features.c ****     "MBEDTLS_PLATFORM_C",
 686:C:/Users/dtjld/workspace/AIoT/src/LiteOS_Lab/iot_link/network/dtls/mbedtls/mbedtls-2.16.2/library\version_features.c **** #endif /* MBEDTLS_PLATFORM_C */
 687:C:/Users/dtjld/workspace/AIoT/src/LiteOS_Lab/iot_link/network/dtls/mbedtls/mbedtls-2.16.2/library\version_features.c **** #if defined(MBEDTLS_POLY1305_C)
 688:C:/Users/dtjld/workspace/AIoT/src/LiteOS_Lab/iot_link/network/dtls/mbedtls/mbedtls-2.16.2/library\version_features.c ****     "MBEDTLS_POLY1305_C",
 689:C:/Users/dtjld/workspace/AIoT/src/LiteOS_Lab/iot_link/network/dtls/mbedtls/mbedtls-2.16.2/library\version_features.c **** #endif /* MBEDTLS_POLY1305_C */
 690:C:/Users/dtjld/workspace/AIoT/src/LiteOS_Lab/iot_link/network/dtls/mbedtls/mbedtls-2.16.2/library\version_features.c **** #if defined(MBEDTLS_RIPEMD160_C)
 691:C:/Users/dtjld/workspace/AIoT/src/LiteOS_Lab/iot_link/network/dtls/mbedtls/mbedtls-2.16.2/library\version_features.c ****     "MBEDTLS_RIPEMD160_C",
 692:C:/Users/dtjld/workspace/AIoT/src/LiteOS_Lab/iot_link/network/dtls/mbedtls/mbedtls-2.16.2/library\version_features.c **** #endif /* MBEDTLS_RIPEMD160_C */
 693:C:/Users/dtjld/workspace/AIoT/src/LiteOS_Lab/iot_link/network/dtls/mbedtls/mbedtls-2.16.2/library\version_features.c **** #if defined(MBEDTLS_RSA_C)
 694:C:/Users/dtjld/workspace/AIoT/src/LiteOS_Lab/iot_link/network/dtls/mbedtls/mbedtls-2.16.2/library\version_features.c ****     "MBEDTLS_RSA_C",
 695:C:/Users/dtjld/workspace/AIoT/src/LiteOS_Lab/iot_link/network/dtls/mbedtls/mbedtls-2.16.2/library\version_features.c **** #endif /* MBEDTLS_RSA_C */
 696:C:/Users/dtjld/workspace/AIoT/src/LiteOS_Lab/iot_link/network/dtls/mbedtls/mbedtls-2.16.2/library\version_features.c **** #if defined(MBEDTLS_SHA1_C)
 697:C:/Users/dtjld/workspace/AIoT/src/LiteOS_Lab/iot_link/network/dtls/mbedtls/mbedtls-2.16.2/library\version_features.c ****     "MBEDTLS_SHA1_C",
 698:C:/Users/dtjld/workspace/AIoT/src/LiteOS_Lab/iot_link/network/dtls/mbedtls/mbedtls-2.16.2/library\version_features.c **** #endif /* MBEDTLS_SHA1_C */
 699:C:/Users/dtjld/workspace/AIoT/src/LiteOS_Lab/iot_link/network/dtls/mbedtls/mbedtls-2.16.2/library\version_features.c **** #if defined(MBEDTLS_SHA256_C)
 700:C:/Users/dtjld/workspace/AIoT/src/LiteOS_Lab/iot_link/network/dtls/mbedtls/mbedtls-2.16.2/library\version_features.c ****     "MBEDTLS_SHA256_C",
 701:C:/Users/dtjld/workspace/AIoT/src/LiteOS_Lab/iot_link/network/dtls/mbedtls/mbedtls-2.16.2/library\version_features.c **** #endif /* MBEDTLS_SHA256_C */
 702:C:/Users/dtjld/workspace/AIoT/src/LiteOS_Lab/iot_link/network/dtls/mbedtls/mbedtls-2.16.2/library\version_features.c **** #if defined(MBEDTLS_SHA512_C)
 703:C:/Users/dtjld/workspace/AIoT/src/LiteOS_Lab/iot_link/network/dtls/mbedtls/mbedtls-2.16.2/library\version_features.c ****     "MBEDTLS_SHA512_C",
 704:C:/Users/dtjld/workspace/AIoT/src/LiteOS_Lab/iot_link/network/dtls/mbedtls/mbedtls-2.16.2/library\version_features.c **** #endif /* MBEDTLS_SHA512_C */
 705:C:/Users/dtjld/workspace/AIoT/src/LiteOS_Lab/iot_link/network/dtls/mbedtls/mbedtls-2.16.2/library\version_features.c **** #if defined(MBEDTLS_SSL_CACHE_C)
 706:C:/Users/dtjld/workspace/AIoT/src/LiteOS_Lab/iot_link/network/dtls/mbedtls/mbedtls-2.16.2/library\version_features.c ****     "MBEDTLS_SSL_CACHE_C",
 707:C:/Users/dtjld/workspace/AIoT/src/LiteOS_Lab/iot_link/network/dtls/mbedtls/mbedtls-2.16.2/library\version_features.c **** #endif /* MBEDTLS_SSL_CACHE_C */
 708:C:/Users/dtjld/workspace/AIoT/src/LiteOS_Lab/iot_link/network/dtls/mbedtls/mbedtls-2.16.2/library\version_features.c **** #if defined(MBEDTLS_SSL_COOKIE_C)
 709:C:/Users/dtjld/workspace/AIoT/src/LiteOS_Lab/iot_link/network/dtls/mbedtls/mbedtls-2.16.2/library\version_features.c ****     "MBEDTLS_SSL_COOKIE_C",
 710:C:/Users/dtjld/workspace/AIoT/src/LiteOS_Lab/iot_link/network/dtls/mbedtls/mbedtls-2.16.2/library\version_features.c **** #endif /* MBEDTLS_SSL_COOKIE_C */
 711:C:/Users/dtjld/workspace/AIoT/src/LiteOS_Lab/iot_link/network/dtls/mbedtls/mbedtls-2.16.2/library\version_features.c **** #if defined(MBEDTLS_SSL_TICKET_C)
 712:C:/Users/dtjld/workspace/AIoT/src/LiteOS_Lab/iot_link/network/dtls/mbedtls/mbedtls-2.16.2/library\version_features.c ****     "MBEDTLS_SSL_TICKET_C",
 713:C:/Users/dtjld/workspace/AIoT/src/LiteOS_Lab/iot_link/network/dtls/mbedtls/mbedtls-2.16.2/library\version_features.c **** #endif /* MBEDTLS_SSL_TICKET_C */
 714:C:/Users/dtjld/workspace/AIoT/src/LiteOS_Lab/iot_link/network/dtls/mbedtls/mbedtls-2.16.2/library\version_features.c **** #if defined(MBEDTLS_SSL_CLI_C)
 715:C:/Users/dtjld/workspace/AIoT/src/LiteOS_Lab/iot_link/network/dtls/mbedtls/mbedtls-2.16.2/library\version_features.c ****     "MBEDTLS_SSL_CLI_C",
 716:C:/Users/dtjld/workspace/AIoT/src/LiteOS_Lab/iot_link/network/dtls/mbedtls/mbedtls-2.16.2/library\version_features.c **** #endif /* MBEDTLS_SSL_CLI_C */
 717:C:/Users/dtjld/workspace/AIoT/src/LiteOS_Lab/iot_link/network/dtls/mbedtls/mbedtls-2.16.2/library\version_features.c **** #if defined(MBEDTLS_SSL_SRV_C)
 718:C:/Users/dtjld/workspace/AIoT/src/LiteOS_Lab/iot_link/network/dtls/mbedtls/mbedtls-2.16.2/library\version_features.c ****     "MBEDTLS_SSL_SRV_C",
 719:C:/Users/dtjld/workspace/AIoT/src/LiteOS_Lab/iot_link/network/dtls/mbedtls/mbedtls-2.16.2/library\version_features.c **** #endif /* MBEDTLS_SSL_SRV_C */
 720:C:/Users/dtjld/workspace/AIoT/src/LiteOS_Lab/iot_link/network/dtls/mbedtls/mbedtls-2.16.2/library\version_features.c **** #if defined(MBEDTLS_SSL_TLS_C)
 721:C:/Users/dtjld/workspace/AIoT/src/LiteOS_Lab/iot_link/network/dtls/mbedtls/mbedtls-2.16.2/library\version_features.c ****     "MBEDTLS_SSL_TLS_C",
 722:C:/Users/dtjld/workspace/AIoT/src/LiteOS_Lab/iot_link/network/dtls/mbedtls/mbedtls-2.16.2/library\version_features.c **** #endif /* MBEDTLS_SSL_TLS_C */
 723:C:/Users/dtjld/workspace/AIoT/src/LiteOS_Lab/iot_link/network/dtls/mbedtls/mbedtls-2.16.2/library\version_features.c **** #if defined(MBEDTLS_THREADING_C)
 724:C:/Users/dtjld/workspace/AIoT/src/LiteOS_Lab/iot_link/network/dtls/mbedtls/mbedtls-2.16.2/library\version_features.c ****     "MBEDTLS_THREADING_C",
 725:C:/Users/dtjld/workspace/AIoT/src/LiteOS_Lab/iot_link/network/dtls/mbedtls/mbedtls-2.16.2/library\version_features.c **** #endif /* MBEDTLS_THREADING_C */
 726:C:/Users/dtjld/workspace/AIoT/src/LiteOS_Lab/iot_link/network/dtls/mbedtls/mbedtls-2.16.2/library\version_features.c **** #if defined(MBEDTLS_TIMING_C)
 727:C:/Users/dtjld/workspace/AIoT/src/LiteOS_Lab/iot_link/network/dtls/mbedtls/mbedtls-2.16.2/library\version_features.c ****     "MBEDTLS_TIMING_C",
 728:C:/Users/dtjld/workspace/AIoT/src/LiteOS_Lab/iot_link/network/dtls/mbedtls/mbedtls-2.16.2/library\version_features.c **** #endif /* MBEDTLS_TIMING_C */
 729:C:/Users/dtjld/workspace/AIoT/src/LiteOS_Lab/iot_link/network/dtls/mbedtls/mbedtls-2.16.2/library\version_features.c **** #if defined(MBEDTLS_VERSION_C)
 730:C:/Users/dtjld/workspace/AIoT/src/LiteOS_Lab/iot_link/network/dtls/mbedtls/mbedtls-2.16.2/library\version_features.c ****     "MBEDTLS_VERSION_C",
 731:C:/Users/dtjld/workspace/AIoT/src/LiteOS_Lab/iot_link/network/dtls/mbedtls/mbedtls-2.16.2/library\version_features.c **** #endif /* MBEDTLS_VERSION_C */
 732:C:/Users/dtjld/workspace/AIoT/src/LiteOS_Lab/iot_link/network/dtls/mbedtls/mbedtls-2.16.2/library\version_features.c **** #if defined(MBEDTLS_X509_USE_C)
 733:C:/Users/dtjld/workspace/AIoT/src/LiteOS_Lab/iot_link/network/dtls/mbedtls/mbedtls-2.16.2/library\version_features.c ****     "MBEDTLS_X509_USE_C",
 734:C:/Users/dtjld/workspace/AIoT/src/LiteOS_Lab/iot_link/network/dtls/mbedtls/mbedtls-2.16.2/library\version_features.c **** #endif /* MBEDTLS_X509_USE_C */
 735:C:/Users/dtjld/workspace/AIoT/src/LiteOS_Lab/iot_link/network/dtls/mbedtls/mbedtls-2.16.2/library\version_features.c **** #if defined(MBEDTLS_X509_CRT_PARSE_C)
 736:C:/Users/dtjld/workspace/AIoT/src/LiteOS_Lab/iot_link/network/dtls/mbedtls/mbedtls-2.16.2/library\version_features.c ****     "MBEDTLS_X509_CRT_PARSE_C",
 737:C:/Users/dtjld/workspace/AIoT/src/LiteOS_Lab/iot_link/network/dtls/mbedtls/mbedtls-2.16.2/library\version_features.c **** #endif /* MBEDTLS_X509_CRT_PARSE_C */
 738:C:/Users/dtjld/workspace/AIoT/src/LiteOS_Lab/iot_link/network/dtls/mbedtls/mbedtls-2.16.2/library\version_features.c **** #if defined(MBEDTLS_X509_CRL_PARSE_C)
ARM GAS  C:\Users\dtjld\AppData\Local\Temp\cckhfJK6.s 			page 30


 739:C:/Users/dtjld/workspace/AIoT/src/LiteOS_Lab/iot_link/network/dtls/mbedtls/mbedtls-2.16.2/library\version_features.c ****     "MBEDTLS_X509_CRL_PARSE_C",
 740:C:/Users/dtjld/workspace/AIoT/src/LiteOS_Lab/iot_link/network/dtls/mbedtls/mbedtls-2.16.2/library\version_features.c **** #endif /* MBEDTLS_X509_CRL_PARSE_C */
 741:C:/Users/dtjld/workspace/AIoT/src/LiteOS_Lab/iot_link/network/dtls/mbedtls/mbedtls-2.16.2/library\version_features.c **** #if defined(MBEDTLS_X509_CSR_PARSE_C)
 742:C:/Users/dtjld/workspace/AIoT/src/LiteOS_Lab/iot_link/network/dtls/mbedtls/mbedtls-2.16.2/library\version_features.c ****     "MBEDTLS_X509_CSR_PARSE_C",
 743:C:/Users/dtjld/workspace/AIoT/src/LiteOS_Lab/iot_link/network/dtls/mbedtls/mbedtls-2.16.2/library\version_features.c **** #endif /* MBEDTLS_X509_CSR_PARSE_C */
 744:C:/Users/dtjld/workspace/AIoT/src/LiteOS_Lab/iot_link/network/dtls/mbedtls/mbedtls-2.16.2/library\version_features.c **** #if defined(MBEDTLS_X509_CREATE_C)
 745:C:/Users/dtjld/workspace/AIoT/src/LiteOS_Lab/iot_link/network/dtls/mbedtls/mbedtls-2.16.2/library\version_features.c ****     "MBEDTLS_X509_CREATE_C",
 746:C:/Users/dtjld/workspace/AIoT/src/LiteOS_Lab/iot_link/network/dtls/mbedtls/mbedtls-2.16.2/library\version_features.c **** #endif /* MBEDTLS_X509_CREATE_C */
 747:C:/Users/dtjld/workspace/AIoT/src/LiteOS_Lab/iot_link/network/dtls/mbedtls/mbedtls-2.16.2/library\version_features.c **** #if defined(MBEDTLS_X509_CRT_WRITE_C)
 748:C:/Users/dtjld/workspace/AIoT/src/LiteOS_Lab/iot_link/network/dtls/mbedtls/mbedtls-2.16.2/library\version_features.c ****     "MBEDTLS_X509_CRT_WRITE_C",
 749:C:/Users/dtjld/workspace/AIoT/src/LiteOS_Lab/iot_link/network/dtls/mbedtls/mbedtls-2.16.2/library\version_features.c **** #endif /* MBEDTLS_X509_CRT_WRITE_C */
 750:C:/Users/dtjld/workspace/AIoT/src/LiteOS_Lab/iot_link/network/dtls/mbedtls/mbedtls-2.16.2/library\version_features.c **** #if defined(MBEDTLS_X509_CSR_WRITE_C)
 751:C:/Users/dtjld/workspace/AIoT/src/LiteOS_Lab/iot_link/network/dtls/mbedtls/mbedtls-2.16.2/library\version_features.c ****     "MBEDTLS_X509_CSR_WRITE_C",
 752:C:/Users/dtjld/workspace/AIoT/src/LiteOS_Lab/iot_link/network/dtls/mbedtls/mbedtls-2.16.2/library\version_features.c **** #endif /* MBEDTLS_X509_CSR_WRITE_C */
 753:C:/Users/dtjld/workspace/AIoT/src/LiteOS_Lab/iot_link/network/dtls/mbedtls/mbedtls-2.16.2/library\version_features.c **** #if defined(MBEDTLS_XTEA_C)
 754:C:/Users/dtjld/workspace/AIoT/src/LiteOS_Lab/iot_link/network/dtls/mbedtls/mbedtls-2.16.2/library\version_features.c ****     "MBEDTLS_XTEA_C",
 755:C:/Users/dtjld/workspace/AIoT/src/LiteOS_Lab/iot_link/network/dtls/mbedtls/mbedtls-2.16.2/library\version_features.c **** #endif /* MBEDTLS_XTEA_C */
 756:C:/Users/dtjld/workspace/AIoT/src/LiteOS_Lab/iot_link/network/dtls/mbedtls/mbedtls-2.16.2/library\version_features.c **** #endif /* MBEDTLS_VERSION_FEATURES */
 757:C:/Users/dtjld/workspace/AIoT/src/LiteOS_Lab/iot_link/network/dtls/mbedtls/mbedtls-2.16.2/library\version_features.c ****     NULL
 758:C:/Users/dtjld/workspace/AIoT/src/LiteOS_Lab/iot_link/network/dtls/mbedtls/mbedtls-2.16.2/library\version_features.c **** };
 759:C:/Users/dtjld/workspace/AIoT/src/LiteOS_Lab/iot_link/network/dtls/mbedtls/mbedtls-2.16.2/library\version_features.c **** 
 760:C:/Users/dtjld/workspace/AIoT/src/LiteOS_Lab/iot_link/network/dtls/mbedtls/mbedtls-2.16.2/library\version_features.c **** int mbedtls_version_check_feature( const char *feature )
 761:C:/Users/dtjld/workspace/AIoT/src/LiteOS_Lab/iot_link/network/dtls/mbedtls/mbedtls-2.16.2/library\version_features.c **** {
 487              		.loc 1 761 0
 488              		.cfi_startproc
 489              		@ args = 0, pretend = 0, frame = 16
 490              		@ frame_needed = 1, uses_anonymous_args = 0
 491 0000 80B5     		push	{r7, lr}
 492              	.LCFI0:
 493              		.cfi_def_cfa_offset 8
 494              		.cfi_offset 7, -8
 495              		.cfi_offset 14, -4
 496 0002 84B0     		sub	sp, sp, #16
 497              	.LCFI1:
 498              		.cfi_def_cfa_offset 24
 499 0004 00AF     		add	r7, sp, #0
 500              	.LCFI2:
 501              		.cfi_def_cfa_register 7
 502 0006 7860     		str	r0, [r7, #4]
 762:C:/Users/dtjld/workspace/AIoT/src/LiteOS_Lab/iot_link/network/dtls/mbedtls/mbedtls-2.16.2/library\version_features.c ****     const char **idx = features;
 503              		.loc 1 762 0
 504 0008 134B     		ldr	r3, .L8
 505 000a FB60     		str	r3, [r7, #12]
 763:C:/Users/dtjld/workspace/AIoT/src/LiteOS_Lab/iot_link/network/dtls/mbedtls/mbedtls-2.16.2/library\version_features.c **** 
 764:C:/Users/dtjld/workspace/AIoT/src/LiteOS_Lab/iot_link/network/dtls/mbedtls/mbedtls-2.16.2/library\version_features.c ****     if( *idx == NULL )
 506              		.loc 1 764 0
 507 000c FB68     		ldr	r3, [r7, #12]
 508 000e 1B68     		ldr	r3, [r3]
 509 0010 002B     		cmp	r3, #0
 510 0012 02D1     		bne	.L2
 765:C:/Users/dtjld/workspace/AIoT/src/LiteOS_Lab/iot_link/network/dtls/mbedtls/mbedtls-2.16.2/library\version_features.c ****         return( -2 );
 511              		.loc 1 765 0
 512 0014 6FF00103 		mvn	r3, #1
 513 0018 19E0     		b	.L3
 514              	.L2:
 766:C:/Users/dtjld/workspace/AIoT/src/LiteOS_Lab/iot_link/network/dtls/mbedtls/mbedtls-2.16.2/library\version_features.c **** 
 767:C:/Users/dtjld/workspace/AIoT/src/LiteOS_Lab/iot_link/network/dtls/mbedtls/mbedtls-2.16.2/library\version_features.c ****     if( feature == NULL )
ARM GAS  C:\Users\dtjld\AppData\Local\Temp\cckhfJK6.s 			page 31


 515              		.loc 1 767 0
 516 001a 7B68     		ldr	r3, [r7, #4]
 517 001c 002B     		cmp	r3, #0
 518 001e 10D1     		bne	.L5
 768:C:/Users/dtjld/workspace/AIoT/src/LiteOS_Lab/iot_link/network/dtls/mbedtls/mbedtls-2.16.2/library\version_features.c ****         return( -1 );
 519              		.loc 1 768 0
 520 0020 4FF0FF33 		mov	r3, #-1
 521 0024 13E0     		b	.L3
 522              	.L7:
 769:C:/Users/dtjld/workspace/AIoT/src/LiteOS_Lab/iot_link/network/dtls/mbedtls/mbedtls-2.16.2/library\version_features.c **** 
 770:C:/Users/dtjld/workspace/AIoT/src/LiteOS_Lab/iot_link/network/dtls/mbedtls/mbedtls-2.16.2/library\version_features.c ****     while( *idx != NULL )
 771:C:/Users/dtjld/workspace/AIoT/src/LiteOS_Lab/iot_link/network/dtls/mbedtls/mbedtls-2.16.2/library\version_features.c ****     {
 772:C:/Users/dtjld/workspace/AIoT/src/LiteOS_Lab/iot_link/network/dtls/mbedtls/mbedtls-2.16.2/library\version_features.c ****         if( !strcmp( *idx, feature ) )
 523              		.loc 1 772 0
 524 0026 FB68     		ldr	r3, [r7, #12]
 525 0028 1B68     		ldr	r3, [r3]
 526 002a 7968     		ldr	r1, [r7, #4]
 527 002c 1846     		mov	r0, r3
 528 002e FFF7FEFF 		bl	strcmp
 529 0032 0346     		mov	r3, r0
 530 0034 002B     		cmp	r3, #0
 531 0036 01D1     		bne	.L6
 773:C:/Users/dtjld/workspace/AIoT/src/LiteOS_Lab/iot_link/network/dtls/mbedtls/mbedtls-2.16.2/library\version_features.c ****             return( 0 );
 532              		.loc 1 773 0
 533 0038 0023     		movs	r3, #0
 534 003a 08E0     		b	.L3
 535              	.L6:
 774:C:/Users/dtjld/workspace/AIoT/src/LiteOS_Lab/iot_link/network/dtls/mbedtls/mbedtls-2.16.2/library\version_features.c ****         idx++;
 536              		.loc 1 774 0
 537 003c FB68     		ldr	r3, [r7, #12]
 538 003e 0433     		adds	r3, r3, #4
 539 0040 FB60     		str	r3, [r7, #12]
 540              	.L5:
 770:C:/Users/dtjld/workspace/AIoT/src/LiteOS_Lab/iot_link/network/dtls/mbedtls/mbedtls-2.16.2/library\version_features.c ****     {
 541              		.loc 1 770 0
 542 0042 FB68     		ldr	r3, [r7, #12]
 543 0044 1B68     		ldr	r3, [r3]
 544 0046 002B     		cmp	r3, #0
 545 0048 EDD1     		bne	.L7
 775:C:/Users/dtjld/workspace/AIoT/src/LiteOS_Lab/iot_link/network/dtls/mbedtls/mbedtls-2.16.2/library\version_features.c ****     }
 776:C:/Users/dtjld/workspace/AIoT/src/LiteOS_Lab/iot_link/network/dtls/mbedtls/mbedtls-2.16.2/library\version_features.c ****     return( -1 );
 546              		.loc 1 776 0
 547 004a 4FF0FF33 		mov	r3, #-1
 548              	.L3:
 777:C:/Users/dtjld/workspace/AIoT/src/LiteOS_Lab/iot_link/network/dtls/mbedtls/mbedtls-2.16.2/library\version_features.c **** }
 549              		.loc 1 777 0
 550 004e 1846     		mov	r0, r3
 551 0050 1037     		adds	r7, r7, #16
 552              	.LCFI3:
 553              		.cfi_def_cfa_offset 8
 554 0052 BD46     		mov	sp, r7
 555              	.LCFI4:
 556              		.cfi_def_cfa_register 13
 557              		@ sp needed
 558 0054 80BD     		pop	{r7, pc}
 559              	.L9:
 560 0056 00BF     		.align	2
ARM GAS  C:\Users\dtjld\AppData\Local\Temp\cckhfJK6.s 			page 32


 561              	.L8:
 562 0058 00000000 		.word	features
 563              		.cfi_endproc
 564              	.LFE0:
 566              		.text
 567              	.Letext0:
 568              		.file 2 "c:\\ac6\\systemworkbench\\plugins\\fr.ac6.mcu.externaltools.arm-none.win32_1.16.0.2018071
 569              		.file 3 "c:\\ac6\\systemworkbench\\plugins\\fr.ac6.mcu.externaltools.arm-none.win32_1.16.0.2018071
 570              		.file 4 "c:\\ac6\\systemworkbench\\plugins\\fr.ac6.mcu.externaltools.arm-none.win32_1.16.0.2018071
 571              		.file 5 "c:\\ac6\\systemworkbench\\plugins\\fr.ac6.mcu.externaltools.arm-none.win32_1.16.0.2018071
ARM GAS  C:\Users\dtjld\AppData\Local\Temp\cckhfJK6.s 			page 33


DEFINED SYMBOLS
                            *ABS*:00000000 version_features.c
C:\Users\dtjld\AppData\Local\Temp\cckhfJK6.s:18     .rodata:00000000 $d
C:\Users\dtjld\AppData\Local\Temp\cckhfJK6.s:358    .data.features:00000000 $d
C:\Users\dtjld\AppData\Local\Temp\cckhfJK6.s:361    .data.features:00000000 features
C:\Users\dtjld\AppData\Local\Temp\cckhfJK6.s:477    .text.mbedtls_version_check_feature:00000000 $t
C:\Users\dtjld\AppData\Local\Temp\cckhfJK6.s:484    .text.mbedtls_version_check_feature:00000000 mbedtls_version_check_feature
C:\Users\dtjld\AppData\Local\Temp\cckhfJK6.s:562    .text.mbedtls_version_check_feature:00000058 $d

UNDEFINED SYMBOLS
strcmp
