ARM GAS  C:\Users\dtjld\AppData\Local\Temp\ccJIykE0.s 			page 1


   1              		.cpu cortex-m4
   2              		.eabi_attribute 27, 1
   3              		.eabi_attribute 28, 1
   4              		.eabi_attribute 20, 1
   5              		.eabi_attribute 21, 1
   6              		.eabi_attribute 23, 3
   7              		.eabi_attribute 24, 1
   8              		.eabi_attribute 25, 1
   9              		.eabi_attribute 26, 1
  10              		.eabi_attribute 30, 6
  11              		.eabi_attribute 34, 1
  12              		.eabi_attribute 18, 4
  13              		.file	"x509_crl.c"
  14              		.text
  15              	.Ltext0:
  16              		.cfi_sections	.debug_frame
  17              		.section	.text.x509_crl_get_version,"ax",%progbits
  18              		.align	1
  19              		.syntax unified
  20              		.thumb
  21              		.thumb_func
  22              		.fpu fpv4-sp-d16
  24              	x509_crl_get_version:
  25              	.LFB13:
  26              		.file 1 "C:/Users/dtjld/workspace/AIoT/src/LiteOS_Lab/iot_link/network/dtls/mbedtls/mbedtls-2.16.2
   1:C:/Users/dtjld/workspace/AIoT/src/LiteOS_Lab/iot_link/network/dtls/mbedtls/mbedtls-2.16.2/library\x509_crl.c **** /*
   2:C:/Users/dtjld/workspace/AIoT/src/LiteOS_Lab/iot_link/network/dtls/mbedtls/mbedtls-2.16.2/library\x509_crl.c ****  *  X.509 Certidicate Revocation List (CRL) parsing
   3:C:/Users/dtjld/workspace/AIoT/src/LiteOS_Lab/iot_link/network/dtls/mbedtls/mbedtls-2.16.2/library\x509_crl.c ****  *
   4:C:/Users/dtjld/workspace/AIoT/src/LiteOS_Lab/iot_link/network/dtls/mbedtls/mbedtls-2.16.2/library\x509_crl.c ****  *  Copyright (C) 2006-2015, ARM Limited, All Rights Reserved
   5:C:/Users/dtjld/workspace/AIoT/src/LiteOS_Lab/iot_link/network/dtls/mbedtls/mbedtls-2.16.2/library\x509_crl.c ****  *  SPDX-License-Identifier: Apache-2.0
   6:C:/Users/dtjld/workspace/AIoT/src/LiteOS_Lab/iot_link/network/dtls/mbedtls/mbedtls-2.16.2/library\x509_crl.c ****  *
   7:C:/Users/dtjld/workspace/AIoT/src/LiteOS_Lab/iot_link/network/dtls/mbedtls/mbedtls-2.16.2/library\x509_crl.c ****  *  Licensed under the Apache License, Version 2.0 (the "License"); you may
   8:C:/Users/dtjld/workspace/AIoT/src/LiteOS_Lab/iot_link/network/dtls/mbedtls/mbedtls-2.16.2/library\x509_crl.c ****  *  not use this file except in compliance with the License.
   9:C:/Users/dtjld/workspace/AIoT/src/LiteOS_Lab/iot_link/network/dtls/mbedtls/mbedtls-2.16.2/library\x509_crl.c ****  *  You may obtain a copy of the License at
  10:C:/Users/dtjld/workspace/AIoT/src/LiteOS_Lab/iot_link/network/dtls/mbedtls/mbedtls-2.16.2/library\x509_crl.c ****  *
  11:C:/Users/dtjld/workspace/AIoT/src/LiteOS_Lab/iot_link/network/dtls/mbedtls/mbedtls-2.16.2/library\x509_crl.c ****  *  http://www.apache.org/licenses/LICENSE-2.0
  12:C:/Users/dtjld/workspace/AIoT/src/LiteOS_Lab/iot_link/network/dtls/mbedtls/mbedtls-2.16.2/library\x509_crl.c ****  *
  13:C:/Users/dtjld/workspace/AIoT/src/LiteOS_Lab/iot_link/network/dtls/mbedtls/mbedtls-2.16.2/library\x509_crl.c ****  *  Unless required by applicable law or agreed to in writing, software
  14:C:/Users/dtjld/workspace/AIoT/src/LiteOS_Lab/iot_link/network/dtls/mbedtls/mbedtls-2.16.2/library\x509_crl.c ****  *  distributed under the License is distributed on an "AS IS" BASIS, WITHOUT
  15:C:/Users/dtjld/workspace/AIoT/src/LiteOS_Lab/iot_link/network/dtls/mbedtls/mbedtls-2.16.2/library\x509_crl.c ****  *  WARRANTIES OR CONDITIONS OF ANY KIND, either express or implied.
  16:C:/Users/dtjld/workspace/AIoT/src/LiteOS_Lab/iot_link/network/dtls/mbedtls/mbedtls-2.16.2/library\x509_crl.c ****  *  See the License for the specific language governing permissions and
  17:C:/Users/dtjld/workspace/AIoT/src/LiteOS_Lab/iot_link/network/dtls/mbedtls/mbedtls-2.16.2/library\x509_crl.c ****  *  limitations under the License.
  18:C:/Users/dtjld/workspace/AIoT/src/LiteOS_Lab/iot_link/network/dtls/mbedtls/mbedtls-2.16.2/library\x509_crl.c ****  *
  19:C:/Users/dtjld/workspace/AIoT/src/LiteOS_Lab/iot_link/network/dtls/mbedtls/mbedtls-2.16.2/library\x509_crl.c ****  *  This file is part of mbed TLS (https://tls.mbed.org)
  20:C:/Users/dtjld/workspace/AIoT/src/LiteOS_Lab/iot_link/network/dtls/mbedtls/mbedtls-2.16.2/library\x509_crl.c ****  */
  21:C:/Users/dtjld/workspace/AIoT/src/LiteOS_Lab/iot_link/network/dtls/mbedtls/mbedtls-2.16.2/library\x509_crl.c **** /*
  22:C:/Users/dtjld/workspace/AIoT/src/LiteOS_Lab/iot_link/network/dtls/mbedtls/mbedtls-2.16.2/library\x509_crl.c ****  *  The ITU-T X.509 standard defines a certificate format for PKI.
  23:C:/Users/dtjld/workspace/AIoT/src/LiteOS_Lab/iot_link/network/dtls/mbedtls/mbedtls-2.16.2/library\x509_crl.c ****  *
  24:C:/Users/dtjld/workspace/AIoT/src/LiteOS_Lab/iot_link/network/dtls/mbedtls/mbedtls-2.16.2/library\x509_crl.c ****  *  http://www.ietf.org/rfc/rfc5280.txt (Certificates and CRLs)
  25:C:/Users/dtjld/workspace/AIoT/src/LiteOS_Lab/iot_link/network/dtls/mbedtls/mbedtls-2.16.2/library\x509_crl.c ****  *  http://www.ietf.org/rfc/rfc3279.txt (Alg IDs for CRLs)
  26:C:/Users/dtjld/workspace/AIoT/src/LiteOS_Lab/iot_link/network/dtls/mbedtls/mbedtls-2.16.2/library\x509_crl.c ****  *  http://www.ietf.org/rfc/rfc2986.txt (CSRs, aka PKCS#10)
  27:C:/Users/dtjld/workspace/AIoT/src/LiteOS_Lab/iot_link/network/dtls/mbedtls/mbedtls-2.16.2/library\x509_crl.c ****  *
  28:C:/Users/dtjld/workspace/AIoT/src/LiteOS_Lab/iot_link/network/dtls/mbedtls/mbedtls-2.16.2/library\x509_crl.c ****  *  http://www.itu.int/ITU-T/studygroups/com17/languages/X.680-0207.pdf
  29:C:/Users/dtjld/workspace/AIoT/src/LiteOS_Lab/iot_link/network/dtls/mbedtls/mbedtls-2.16.2/library\x509_crl.c ****  *  http://www.itu.int/ITU-T/studygroups/com17/languages/X.690-0207.pdf
  30:C:/Users/dtjld/workspace/AIoT/src/LiteOS_Lab/iot_link/network/dtls/mbedtls/mbedtls-2.16.2/library\x509_crl.c ****  */
  31:C:/Users/dtjld/workspace/AIoT/src/LiteOS_Lab/iot_link/network/dtls/mbedtls/mbedtls-2.16.2/library\x509_crl.c **** 
  32:C:/Users/dtjld/workspace/AIoT/src/LiteOS_Lab/iot_link/network/dtls/mbedtls/mbedtls-2.16.2/library\x509_crl.c **** #if !defined(MBEDTLS_CONFIG_FILE)
ARM GAS  C:\Users\dtjld\AppData\Local\Temp\ccJIykE0.s 			page 2


  33:C:/Users/dtjld/workspace/AIoT/src/LiteOS_Lab/iot_link/network/dtls/mbedtls/mbedtls-2.16.2/library\x509_crl.c **** #include "mbedtls/config.h"
  34:C:/Users/dtjld/workspace/AIoT/src/LiteOS_Lab/iot_link/network/dtls/mbedtls/mbedtls-2.16.2/library\x509_crl.c **** #else
  35:C:/Users/dtjld/workspace/AIoT/src/LiteOS_Lab/iot_link/network/dtls/mbedtls/mbedtls-2.16.2/library\x509_crl.c **** #include MBEDTLS_CONFIG_FILE
  36:C:/Users/dtjld/workspace/AIoT/src/LiteOS_Lab/iot_link/network/dtls/mbedtls/mbedtls-2.16.2/library\x509_crl.c **** #endif
  37:C:/Users/dtjld/workspace/AIoT/src/LiteOS_Lab/iot_link/network/dtls/mbedtls/mbedtls-2.16.2/library\x509_crl.c **** 
  38:C:/Users/dtjld/workspace/AIoT/src/LiteOS_Lab/iot_link/network/dtls/mbedtls/mbedtls-2.16.2/library\x509_crl.c **** #if defined(MBEDTLS_X509_CRL_PARSE_C)
  39:C:/Users/dtjld/workspace/AIoT/src/LiteOS_Lab/iot_link/network/dtls/mbedtls/mbedtls-2.16.2/library\x509_crl.c **** 
  40:C:/Users/dtjld/workspace/AIoT/src/LiteOS_Lab/iot_link/network/dtls/mbedtls/mbedtls-2.16.2/library\x509_crl.c **** #include "mbedtls/x509_crl.h"
  41:C:/Users/dtjld/workspace/AIoT/src/LiteOS_Lab/iot_link/network/dtls/mbedtls/mbedtls-2.16.2/library\x509_crl.c **** #include "mbedtls/oid.h"
  42:C:/Users/dtjld/workspace/AIoT/src/LiteOS_Lab/iot_link/network/dtls/mbedtls/mbedtls-2.16.2/library\x509_crl.c **** #include "mbedtls/platform_util.h"
  43:C:/Users/dtjld/workspace/AIoT/src/LiteOS_Lab/iot_link/network/dtls/mbedtls/mbedtls-2.16.2/library\x509_crl.c **** 
  44:C:/Users/dtjld/workspace/AIoT/src/LiteOS_Lab/iot_link/network/dtls/mbedtls/mbedtls-2.16.2/library\x509_crl.c **** #include <string.h>
  45:C:/Users/dtjld/workspace/AIoT/src/LiteOS_Lab/iot_link/network/dtls/mbedtls/mbedtls-2.16.2/library\x509_crl.c **** 
  46:C:/Users/dtjld/workspace/AIoT/src/LiteOS_Lab/iot_link/network/dtls/mbedtls/mbedtls-2.16.2/library\x509_crl.c **** #if defined(MBEDTLS_PEM_PARSE_C)
  47:C:/Users/dtjld/workspace/AIoT/src/LiteOS_Lab/iot_link/network/dtls/mbedtls/mbedtls-2.16.2/library\x509_crl.c **** #include "mbedtls/pem.h"
  48:C:/Users/dtjld/workspace/AIoT/src/LiteOS_Lab/iot_link/network/dtls/mbedtls/mbedtls-2.16.2/library\x509_crl.c **** #endif
  49:C:/Users/dtjld/workspace/AIoT/src/LiteOS_Lab/iot_link/network/dtls/mbedtls/mbedtls-2.16.2/library\x509_crl.c **** 
  50:C:/Users/dtjld/workspace/AIoT/src/LiteOS_Lab/iot_link/network/dtls/mbedtls/mbedtls-2.16.2/library\x509_crl.c **** #if defined(MBEDTLS_PLATFORM_C)
  51:C:/Users/dtjld/workspace/AIoT/src/LiteOS_Lab/iot_link/network/dtls/mbedtls/mbedtls-2.16.2/library\x509_crl.c **** #include "mbedtls/platform.h"
  52:C:/Users/dtjld/workspace/AIoT/src/LiteOS_Lab/iot_link/network/dtls/mbedtls/mbedtls-2.16.2/library\x509_crl.c **** #else
  53:C:/Users/dtjld/workspace/AIoT/src/LiteOS_Lab/iot_link/network/dtls/mbedtls/mbedtls-2.16.2/library\x509_crl.c **** #include <stdlib.h>
  54:C:/Users/dtjld/workspace/AIoT/src/LiteOS_Lab/iot_link/network/dtls/mbedtls/mbedtls-2.16.2/library\x509_crl.c **** #include <stdio.h>
  55:C:/Users/dtjld/workspace/AIoT/src/LiteOS_Lab/iot_link/network/dtls/mbedtls/mbedtls-2.16.2/library\x509_crl.c **** #define mbedtls_free       free
  56:C:/Users/dtjld/workspace/AIoT/src/LiteOS_Lab/iot_link/network/dtls/mbedtls/mbedtls-2.16.2/library\x509_crl.c **** #define mbedtls_calloc    calloc
  57:C:/Users/dtjld/workspace/AIoT/src/LiteOS_Lab/iot_link/network/dtls/mbedtls/mbedtls-2.16.2/library\x509_crl.c **** #define mbedtls_snprintf   snprintf
  58:C:/Users/dtjld/workspace/AIoT/src/LiteOS_Lab/iot_link/network/dtls/mbedtls/mbedtls-2.16.2/library\x509_crl.c **** #endif
  59:C:/Users/dtjld/workspace/AIoT/src/LiteOS_Lab/iot_link/network/dtls/mbedtls/mbedtls-2.16.2/library\x509_crl.c **** 
  60:C:/Users/dtjld/workspace/AIoT/src/LiteOS_Lab/iot_link/network/dtls/mbedtls/mbedtls-2.16.2/library\x509_crl.c **** #if defined(_WIN32) && !defined(EFIX64) && !defined(EFI32)
  61:C:/Users/dtjld/workspace/AIoT/src/LiteOS_Lab/iot_link/network/dtls/mbedtls/mbedtls-2.16.2/library\x509_crl.c **** #include <windows.h>
  62:C:/Users/dtjld/workspace/AIoT/src/LiteOS_Lab/iot_link/network/dtls/mbedtls/mbedtls-2.16.2/library\x509_crl.c **** #else
  63:C:/Users/dtjld/workspace/AIoT/src/LiteOS_Lab/iot_link/network/dtls/mbedtls/mbedtls-2.16.2/library\x509_crl.c **** #include <time.h>
  64:C:/Users/dtjld/workspace/AIoT/src/LiteOS_Lab/iot_link/network/dtls/mbedtls/mbedtls-2.16.2/library\x509_crl.c **** #endif
  65:C:/Users/dtjld/workspace/AIoT/src/LiteOS_Lab/iot_link/network/dtls/mbedtls/mbedtls-2.16.2/library\x509_crl.c **** 
  66:C:/Users/dtjld/workspace/AIoT/src/LiteOS_Lab/iot_link/network/dtls/mbedtls/mbedtls-2.16.2/library\x509_crl.c **** #if defined(MBEDTLS_FS_IO) || defined(EFIX64) || defined(EFI32)
  67:C:/Users/dtjld/workspace/AIoT/src/LiteOS_Lab/iot_link/network/dtls/mbedtls/mbedtls-2.16.2/library\x509_crl.c **** #include <stdio.h>
  68:C:/Users/dtjld/workspace/AIoT/src/LiteOS_Lab/iot_link/network/dtls/mbedtls/mbedtls-2.16.2/library\x509_crl.c **** #endif
  69:C:/Users/dtjld/workspace/AIoT/src/LiteOS_Lab/iot_link/network/dtls/mbedtls/mbedtls-2.16.2/library\x509_crl.c **** 
  70:C:/Users/dtjld/workspace/AIoT/src/LiteOS_Lab/iot_link/network/dtls/mbedtls/mbedtls-2.16.2/library\x509_crl.c **** /*
  71:C:/Users/dtjld/workspace/AIoT/src/LiteOS_Lab/iot_link/network/dtls/mbedtls/mbedtls-2.16.2/library\x509_crl.c ****  *  Version  ::=  INTEGER  {  v1(0), v2(1)  }
  72:C:/Users/dtjld/workspace/AIoT/src/LiteOS_Lab/iot_link/network/dtls/mbedtls/mbedtls-2.16.2/library\x509_crl.c ****  */
  73:C:/Users/dtjld/workspace/AIoT/src/LiteOS_Lab/iot_link/network/dtls/mbedtls/mbedtls-2.16.2/library\x509_crl.c **** static int x509_crl_get_version( unsigned char **p,
  74:C:/Users/dtjld/workspace/AIoT/src/LiteOS_Lab/iot_link/network/dtls/mbedtls/mbedtls-2.16.2/library\x509_crl.c ****                              const unsigned char *end,
  75:C:/Users/dtjld/workspace/AIoT/src/LiteOS_Lab/iot_link/network/dtls/mbedtls/mbedtls-2.16.2/library\x509_crl.c ****                              int *ver )
  76:C:/Users/dtjld/workspace/AIoT/src/LiteOS_Lab/iot_link/network/dtls/mbedtls/mbedtls-2.16.2/library\x509_crl.c **** {
  27              		.loc 1 76 0
  28              		.cfi_startproc
  29              		@ args = 0, pretend = 0, frame = 24
  30              		@ frame_needed = 1, uses_anonymous_args = 0
  31 0000 80B5     		push	{r7, lr}
  32              	.LCFI0:
  33              		.cfi_def_cfa_offset 8
  34              		.cfi_offset 7, -8
  35              		.cfi_offset 14, -4
  36 0002 86B0     		sub	sp, sp, #24
  37              	.LCFI1:
  38              		.cfi_def_cfa_offset 32
  39 0004 00AF     		add	r7, sp, #0
ARM GAS  C:\Users\dtjld\AppData\Local\Temp\ccJIykE0.s 			page 3


  40              	.LCFI2:
  41              		.cfi_def_cfa_register 7
  42 0006 F860     		str	r0, [r7, #12]
  43 0008 B960     		str	r1, [r7, #8]
  44 000a 7A60     		str	r2, [r7, #4]
  77:C:/Users/dtjld/workspace/AIoT/src/LiteOS_Lab/iot_link/network/dtls/mbedtls/mbedtls-2.16.2/library\x509_crl.c ****     int ret;
  78:C:/Users/dtjld/workspace/AIoT/src/LiteOS_Lab/iot_link/network/dtls/mbedtls/mbedtls-2.16.2/library\x509_crl.c **** 
  79:C:/Users/dtjld/workspace/AIoT/src/LiteOS_Lab/iot_link/network/dtls/mbedtls/mbedtls-2.16.2/library\x509_crl.c ****     if( ( ret = mbedtls_asn1_get_int( p, end, ver ) ) != 0 )
  45              		.loc 1 79 0
  46 000c 7A68     		ldr	r2, [r7, #4]
  47 000e B968     		ldr	r1, [r7, #8]
  48 0010 F868     		ldr	r0, [r7, #12]
  49 0012 FFF7FEFF 		bl	mbedtls_asn1_get_int
  50 0016 7861     		str	r0, [r7, #20]
  51 0018 7B69     		ldr	r3, [r7, #20]
  52 001a 002B     		cmp	r3, #0
  53 001c 0CD0     		beq	.L2
  80:C:/Users/dtjld/workspace/AIoT/src/LiteOS_Lab/iot_link/network/dtls/mbedtls/mbedtls-2.16.2/library\x509_crl.c ****     {
  81:C:/Users/dtjld/workspace/AIoT/src/LiteOS_Lab/iot_link/network/dtls/mbedtls/mbedtls-2.16.2/library\x509_crl.c ****         if( ret == MBEDTLS_ERR_ASN1_UNEXPECTED_TAG )
  54              		.loc 1 81 0
  55 001e 7B69     		ldr	r3, [r7, #20]
  56 0020 13F1620F 		cmn	r3, #98
  57 0024 04D1     		bne	.L3
  82:C:/Users/dtjld/workspace/AIoT/src/LiteOS_Lab/iot_link/network/dtls/mbedtls/mbedtls-2.16.2/library\x509_crl.c ****         {
  83:C:/Users/dtjld/workspace/AIoT/src/LiteOS_Lab/iot_link/network/dtls/mbedtls/mbedtls-2.16.2/library\x509_crl.c ****             *ver = 0;
  58              		.loc 1 83 0
  59 0026 7B68     		ldr	r3, [r7, #4]
  60 0028 0022     		movs	r2, #0
  61 002a 1A60     		str	r2, [r3]
  84:C:/Users/dtjld/workspace/AIoT/src/LiteOS_Lab/iot_link/network/dtls/mbedtls/mbedtls-2.16.2/library\x509_crl.c ****             return( 0 );
  62              		.loc 1 84 0
  63 002c 0023     		movs	r3, #0
  64 002e 04E0     		b	.L4
  65              	.L3:
  85:C:/Users/dtjld/workspace/AIoT/src/LiteOS_Lab/iot_link/network/dtls/mbedtls/mbedtls-2.16.2/library\x509_crl.c ****         }
  86:C:/Users/dtjld/workspace/AIoT/src/LiteOS_Lab/iot_link/network/dtls/mbedtls/mbedtls-2.16.2/library\x509_crl.c **** 
  87:C:/Users/dtjld/workspace/AIoT/src/LiteOS_Lab/iot_link/network/dtls/mbedtls/mbedtls-2.16.2/library\x509_crl.c ****         return( MBEDTLS_ERR_X509_INVALID_VERSION + ret );
  66              		.loc 1 87 0
  67 0030 7B69     		ldr	r3, [r7, #20]
  68 0032 A3F50853 		sub	r3, r3, #8704
  69 0036 00E0     		b	.L4
  70              	.L2:
  88:C:/Users/dtjld/workspace/AIoT/src/LiteOS_Lab/iot_link/network/dtls/mbedtls/mbedtls-2.16.2/library\x509_crl.c ****     }
  89:C:/Users/dtjld/workspace/AIoT/src/LiteOS_Lab/iot_link/network/dtls/mbedtls/mbedtls-2.16.2/library\x509_crl.c **** 
  90:C:/Users/dtjld/workspace/AIoT/src/LiteOS_Lab/iot_link/network/dtls/mbedtls/mbedtls-2.16.2/library\x509_crl.c ****     return( 0 );
  71              		.loc 1 90 0
  72 0038 0023     		movs	r3, #0
  73              	.L4:
  91:C:/Users/dtjld/workspace/AIoT/src/LiteOS_Lab/iot_link/network/dtls/mbedtls/mbedtls-2.16.2/library\x509_crl.c **** }
  74              		.loc 1 91 0
  75 003a 1846     		mov	r0, r3
  76 003c 1837     		adds	r7, r7, #24
  77              	.LCFI3:
  78              		.cfi_def_cfa_offset 8
  79 003e BD46     		mov	sp, r7
  80              	.LCFI4:
  81              		.cfi_def_cfa_register 13
ARM GAS  C:\Users\dtjld\AppData\Local\Temp\ccJIykE0.s 			page 4


  82              		@ sp needed
  83 0040 80BD     		pop	{r7, pc}
  84              		.cfi_endproc
  85              	.LFE13:
  87              		.section	.text.x509_get_crl_ext,"ax",%progbits
  88              		.align	1
  89              		.syntax unified
  90              		.thumb
  91              		.thumb_func
  92              		.fpu fpv4-sp-d16
  94              	x509_get_crl_ext:
  95              	.LFB14:
  92:C:/Users/dtjld/workspace/AIoT/src/LiteOS_Lab/iot_link/network/dtls/mbedtls/mbedtls-2.16.2/library\x509_crl.c **** 
  93:C:/Users/dtjld/workspace/AIoT/src/LiteOS_Lab/iot_link/network/dtls/mbedtls/mbedtls-2.16.2/library\x509_crl.c **** /*
  94:C:/Users/dtjld/workspace/AIoT/src/LiteOS_Lab/iot_link/network/dtls/mbedtls/mbedtls-2.16.2/library\x509_crl.c ****  * X.509 CRL v2 extensions
  95:C:/Users/dtjld/workspace/AIoT/src/LiteOS_Lab/iot_link/network/dtls/mbedtls/mbedtls-2.16.2/library\x509_crl.c ****  *
  96:C:/Users/dtjld/workspace/AIoT/src/LiteOS_Lab/iot_link/network/dtls/mbedtls/mbedtls-2.16.2/library\x509_crl.c ****  * We currently don't parse any extension's content, but we do check that the
  97:C:/Users/dtjld/workspace/AIoT/src/LiteOS_Lab/iot_link/network/dtls/mbedtls/mbedtls-2.16.2/library\x509_crl.c ****  * list of extensions is well-formed and abort on critical extensions (that
  98:C:/Users/dtjld/workspace/AIoT/src/LiteOS_Lab/iot_link/network/dtls/mbedtls/mbedtls-2.16.2/library\x509_crl.c ****  * are unsupported as we don't support any extension so far)
  99:C:/Users/dtjld/workspace/AIoT/src/LiteOS_Lab/iot_link/network/dtls/mbedtls/mbedtls-2.16.2/library\x509_crl.c ****  */
 100:C:/Users/dtjld/workspace/AIoT/src/LiteOS_Lab/iot_link/network/dtls/mbedtls/mbedtls-2.16.2/library\x509_crl.c **** static int x509_get_crl_ext( unsigned char **p,
 101:C:/Users/dtjld/workspace/AIoT/src/LiteOS_Lab/iot_link/network/dtls/mbedtls/mbedtls-2.16.2/library\x509_crl.c ****                              const unsigned char *end,
 102:C:/Users/dtjld/workspace/AIoT/src/LiteOS_Lab/iot_link/network/dtls/mbedtls/mbedtls-2.16.2/library\x509_crl.c ****                              mbedtls_x509_buf *ext )
 103:C:/Users/dtjld/workspace/AIoT/src/LiteOS_Lab/iot_link/network/dtls/mbedtls/mbedtls-2.16.2/library\x509_crl.c **** {
  96              		.loc 1 103 0
  97              		.cfi_startproc
  98              		@ args = 0, pretend = 0, frame = 32
  99              		@ frame_needed = 1, uses_anonymous_args = 0
 100 0000 80B5     		push	{r7, lr}
 101              	.LCFI5:
 102              		.cfi_def_cfa_offset 8
 103              		.cfi_offset 7, -8
 104              		.cfi_offset 14, -4
 105 0002 88B0     		sub	sp, sp, #32
 106              	.LCFI6:
 107              		.cfi_def_cfa_offset 40
 108 0004 00AF     		add	r7, sp, #0
 109              	.LCFI7:
 110              		.cfi_def_cfa_register 7
 111 0006 F860     		str	r0, [r7, #12]
 112 0008 B960     		str	r1, [r7, #8]
 113 000a 7A60     		str	r2, [r7, #4]
 104:C:/Users/dtjld/workspace/AIoT/src/LiteOS_Lab/iot_link/network/dtls/mbedtls/mbedtls-2.16.2/library\x509_crl.c ****     int ret;
 105:C:/Users/dtjld/workspace/AIoT/src/LiteOS_Lab/iot_link/network/dtls/mbedtls/mbedtls-2.16.2/library\x509_crl.c **** 
 106:C:/Users/dtjld/workspace/AIoT/src/LiteOS_Lab/iot_link/network/dtls/mbedtls/mbedtls-2.16.2/library\x509_crl.c ****     if( *p == end )
 114              		.loc 1 106 0
 115 000c FB68     		ldr	r3, [r7, #12]
 116 000e 1B68     		ldr	r3, [r3]
 117 0010 BA68     		ldr	r2, [r7, #8]
 118 0012 9A42     		cmp	r2, r3
 119 0014 01D1     		bne	.L6
 107:C:/Users/dtjld/workspace/AIoT/src/LiteOS_Lab/iot_link/network/dtls/mbedtls/mbedtls-2.16.2/library\x509_crl.c ****         return( 0 );
 120              		.loc 1 107 0
 121 0016 0023     		movs	r3, #0
 122 0018 7EE0     		b	.L7
 123              	.L6:
 108:C:/Users/dtjld/workspace/AIoT/src/LiteOS_Lab/iot_link/network/dtls/mbedtls/mbedtls-2.16.2/library\x509_crl.c **** 
ARM GAS  C:\Users\dtjld\AppData\Local\Temp\ccJIykE0.s 			page 5


 109:C:/Users/dtjld/workspace/AIoT/src/LiteOS_Lab/iot_link/network/dtls/mbedtls/mbedtls-2.16.2/library\x509_crl.c ****     /*
 110:C:/Users/dtjld/workspace/AIoT/src/LiteOS_Lab/iot_link/network/dtls/mbedtls/mbedtls-2.16.2/library\x509_crl.c ****      * crlExtensions           [0]  EXPLICIT Extensions OPTIONAL
 111:C:/Users/dtjld/workspace/AIoT/src/LiteOS_Lab/iot_link/network/dtls/mbedtls/mbedtls-2.16.2/library\x509_crl.c ****      *                              -- if present, version MUST be v2
 112:C:/Users/dtjld/workspace/AIoT/src/LiteOS_Lab/iot_link/network/dtls/mbedtls/mbedtls-2.16.2/library\x509_crl.c ****      */
 113:C:/Users/dtjld/workspace/AIoT/src/LiteOS_Lab/iot_link/network/dtls/mbedtls/mbedtls-2.16.2/library\x509_crl.c ****     if( ( ret = mbedtls_x509_get_ext( p, end, ext, 0 ) ) != 0 )
 124              		.loc 1 113 0
 125 001a 0023     		movs	r3, #0
 126 001c 7A68     		ldr	r2, [r7, #4]
 127 001e B968     		ldr	r1, [r7, #8]
 128 0020 F868     		ldr	r0, [r7, #12]
 129 0022 FFF7FEFF 		bl	mbedtls_x509_get_ext
 130 0026 F861     		str	r0, [r7, #28]
 131 0028 FB69     		ldr	r3, [r7, #28]
 132 002a 002B     		cmp	r3, #0
 133 002c 01D0     		beq	.L8
 114:C:/Users/dtjld/workspace/AIoT/src/LiteOS_Lab/iot_link/network/dtls/mbedtls/mbedtls-2.16.2/library\x509_crl.c ****         return( ret );
 134              		.loc 1 114 0
 135 002e FB69     		ldr	r3, [r7, #28]
 136 0030 72E0     		b	.L7
 137              	.L8:
 115:C:/Users/dtjld/workspace/AIoT/src/LiteOS_Lab/iot_link/network/dtls/mbedtls/mbedtls-2.16.2/library\x509_crl.c **** 
 116:C:/Users/dtjld/workspace/AIoT/src/LiteOS_Lab/iot_link/network/dtls/mbedtls/mbedtls-2.16.2/library\x509_crl.c ****     end = ext->p + ext->len;
 138              		.loc 1 116 0
 139 0032 7B68     		ldr	r3, [r7, #4]
 140 0034 9A68     		ldr	r2, [r3, #8]
 141 0036 7B68     		ldr	r3, [r7, #4]
 142 0038 5B68     		ldr	r3, [r3, #4]
 143 003a 1344     		add	r3, r3, r2
 144 003c BB60     		str	r3, [r7, #8]
 117:C:/Users/dtjld/workspace/AIoT/src/LiteOS_Lab/iot_link/network/dtls/mbedtls/mbedtls-2.16.2/library\x509_crl.c **** 
 118:C:/Users/dtjld/workspace/AIoT/src/LiteOS_Lab/iot_link/network/dtls/mbedtls/mbedtls-2.16.2/library\x509_crl.c ****     while( *p < end )
 145              		.loc 1 118 0
 146 003e 5EE0     		b	.L9
 147              	.L17:
 148              	.LBB2:
 119:C:/Users/dtjld/workspace/AIoT/src/LiteOS_Lab/iot_link/network/dtls/mbedtls/mbedtls-2.16.2/library\x509_crl.c ****     {
 120:C:/Users/dtjld/workspace/AIoT/src/LiteOS_Lab/iot_link/network/dtls/mbedtls/mbedtls-2.16.2/library\x509_crl.c ****         /*
 121:C:/Users/dtjld/workspace/AIoT/src/LiteOS_Lab/iot_link/network/dtls/mbedtls/mbedtls-2.16.2/library\x509_crl.c ****          * Extension  ::=  SEQUENCE  {
 122:C:/Users/dtjld/workspace/AIoT/src/LiteOS_Lab/iot_link/network/dtls/mbedtls/mbedtls-2.16.2/library\x509_crl.c ****          *      extnID      OBJECT IDENTIFIER,
 123:C:/Users/dtjld/workspace/AIoT/src/LiteOS_Lab/iot_link/network/dtls/mbedtls/mbedtls-2.16.2/library\x509_crl.c ****          *      critical    BOOLEAN DEFAULT FALSE,
 124:C:/Users/dtjld/workspace/AIoT/src/LiteOS_Lab/iot_link/network/dtls/mbedtls/mbedtls-2.16.2/library\x509_crl.c ****          *      extnValue   OCTET STRING  }
 125:C:/Users/dtjld/workspace/AIoT/src/LiteOS_Lab/iot_link/network/dtls/mbedtls/mbedtls-2.16.2/library\x509_crl.c ****          */
 126:C:/Users/dtjld/workspace/AIoT/src/LiteOS_Lab/iot_link/network/dtls/mbedtls/mbedtls-2.16.2/library\x509_crl.c ****         int is_critical = 0;
 149              		.loc 1 126 0
 150 0040 0023     		movs	r3, #0
 151 0042 7B61     		str	r3, [r7, #20]
 127:C:/Users/dtjld/workspace/AIoT/src/LiteOS_Lab/iot_link/network/dtls/mbedtls/mbedtls-2.16.2/library\x509_crl.c ****         const unsigned char *end_ext_data;
 128:C:/Users/dtjld/workspace/AIoT/src/LiteOS_Lab/iot_link/network/dtls/mbedtls/mbedtls-2.16.2/library\x509_crl.c ****         size_t len;
 129:C:/Users/dtjld/workspace/AIoT/src/LiteOS_Lab/iot_link/network/dtls/mbedtls/mbedtls-2.16.2/library\x509_crl.c **** 
 130:C:/Users/dtjld/workspace/AIoT/src/LiteOS_Lab/iot_link/network/dtls/mbedtls/mbedtls-2.16.2/library\x509_crl.c ****         /* Get enclosing sequence tag */
 131:C:/Users/dtjld/workspace/AIoT/src/LiteOS_Lab/iot_link/network/dtls/mbedtls/mbedtls-2.16.2/library\x509_crl.c ****         if( ( ret = mbedtls_asn1_get_tag( p, end, &len,
 152              		.loc 1 131 0
 153 0044 07F11002 		add	r2, r7, #16
 154 0048 3023     		movs	r3, #48
 155 004a B968     		ldr	r1, [r7, #8]
 156 004c F868     		ldr	r0, [r7, #12]
 157 004e FFF7FEFF 		bl	mbedtls_asn1_get_tag
ARM GAS  C:\Users\dtjld\AppData\Local\Temp\ccJIykE0.s 			page 6


 158 0052 F861     		str	r0, [r7, #28]
 159 0054 FB69     		ldr	r3, [r7, #28]
 160 0056 002B     		cmp	r3, #0
 161 0058 03D0     		beq	.L10
 132:C:/Users/dtjld/workspace/AIoT/src/LiteOS_Lab/iot_link/network/dtls/mbedtls/mbedtls-2.16.2/library\x509_crl.c ****                 MBEDTLS_ASN1_CONSTRUCTED | MBEDTLS_ASN1_SEQUENCE ) ) != 0 )
 133:C:/Users/dtjld/workspace/AIoT/src/LiteOS_Lab/iot_link/network/dtls/mbedtls/mbedtls-2.16.2/library\x509_crl.c ****             return( MBEDTLS_ERR_X509_INVALID_EXTENSIONS + ret );
 162              		.loc 1 133 0
 163 005a FB69     		ldr	r3, [r7, #28]
 164 005c A3F51453 		sub	r3, r3, #9472
 165 0060 5AE0     		b	.L7
 166              	.L10:
 134:C:/Users/dtjld/workspace/AIoT/src/LiteOS_Lab/iot_link/network/dtls/mbedtls/mbedtls-2.16.2/library\x509_crl.c **** 
 135:C:/Users/dtjld/workspace/AIoT/src/LiteOS_Lab/iot_link/network/dtls/mbedtls/mbedtls-2.16.2/library\x509_crl.c ****         end_ext_data = *p + len;
 167              		.loc 1 135 0
 168 0062 FB68     		ldr	r3, [r7, #12]
 169 0064 1A68     		ldr	r2, [r3]
 170 0066 3B69     		ldr	r3, [r7, #16]
 171 0068 1344     		add	r3, r3, r2
 172 006a BB61     		str	r3, [r7, #24]
 136:C:/Users/dtjld/workspace/AIoT/src/LiteOS_Lab/iot_link/network/dtls/mbedtls/mbedtls-2.16.2/library\x509_crl.c **** 
 137:C:/Users/dtjld/workspace/AIoT/src/LiteOS_Lab/iot_link/network/dtls/mbedtls/mbedtls-2.16.2/library\x509_crl.c ****         /* Get OID (currently ignored) */
 138:C:/Users/dtjld/workspace/AIoT/src/LiteOS_Lab/iot_link/network/dtls/mbedtls/mbedtls-2.16.2/library\x509_crl.c ****         if( ( ret = mbedtls_asn1_get_tag( p, end_ext_data, &len,
 173              		.loc 1 138 0
 174 006c 07F11002 		add	r2, r7, #16
 175 0070 0623     		movs	r3, #6
 176 0072 B969     		ldr	r1, [r7, #24]
 177 0074 F868     		ldr	r0, [r7, #12]
 178 0076 FFF7FEFF 		bl	mbedtls_asn1_get_tag
 179 007a F861     		str	r0, [r7, #28]
 180 007c FB69     		ldr	r3, [r7, #28]
 181 007e 002B     		cmp	r3, #0
 182 0080 03D0     		beq	.L12
 139:C:/Users/dtjld/workspace/AIoT/src/LiteOS_Lab/iot_link/network/dtls/mbedtls/mbedtls-2.16.2/library\x509_crl.c ****                                           MBEDTLS_ASN1_OID ) ) != 0 )
 140:C:/Users/dtjld/workspace/AIoT/src/LiteOS_Lab/iot_link/network/dtls/mbedtls/mbedtls-2.16.2/library\x509_crl.c ****         {
 141:C:/Users/dtjld/workspace/AIoT/src/LiteOS_Lab/iot_link/network/dtls/mbedtls/mbedtls-2.16.2/library\x509_crl.c ****             return( MBEDTLS_ERR_X509_INVALID_EXTENSIONS + ret );
 183              		.loc 1 141 0
 184 0082 FB69     		ldr	r3, [r7, #28]
 185 0084 A3F51453 		sub	r3, r3, #9472
 186 0088 46E0     		b	.L7
 187              	.L12:
 142:C:/Users/dtjld/workspace/AIoT/src/LiteOS_Lab/iot_link/network/dtls/mbedtls/mbedtls-2.16.2/library\x509_crl.c ****         }
 143:C:/Users/dtjld/workspace/AIoT/src/LiteOS_Lab/iot_link/network/dtls/mbedtls/mbedtls-2.16.2/library\x509_crl.c ****         *p += len;
 188              		.loc 1 143 0
 189 008a FB68     		ldr	r3, [r7, #12]
 190 008c 1A68     		ldr	r2, [r3]
 191 008e 3B69     		ldr	r3, [r7, #16]
 192 0090 1A44     		add	r2, r2, r3
 193 0092 FB68     		ldr	r3, [r7, #12]
 194 0094 1A60     		str	r2, [r3]
 144:C:/Users/dtjld/workspace/AIoT/src/LiteOS_Lab/iot_link/network/dtls/mbedtls/mbedtls-2.16.2/library\x509_crl.c **** 
 145:C:/Users/dtjld/workspace/AIoT/src/LiteOS_Lab/iot_link/network/dtls/mbedtls/mbedtls-2.16.2/library\x509_crl.c ****         /* Get optional critical */
 146:C:/Users/dtjld/workspace/AIoT/src/LiteOS_Lab/iot_link/network/dtls/mbedtls/mbedtls-2.16.2/library\x509_crl.c ****         if( ( ret = mbedtls_asn1_get_bool( p, end_ext_data,
 195              		.loc 1 146 0
 196 0096 07F11403 		add	r3, r7, #20
 197 009a 1A46     		mov	r2, r3
 198 009c B969     		ldr	r1, [r7, #24]
 199 009e F868     		ldr	r0, [r7, #12]
ARM GAS  C:\Users\dtjld\AppData\Local\Temp\ccJIykE0.s 			page 7


 200 00a0 FFF7FEFF 		bl	mbedtls_asn1_get_bool
 201 00a4 F861     		str	r0, [r7, #28]
 202 00a6 FB69     		ldr	r3, [r7, #28]
 203 00a8 002B     		cmp	r3, #0
 204 00aa 07D0     		beq	.L13
 147:C:/Users/dtjld/workspace/AIoT/src/LiteOS_Lab/iot_link/network/dtls/mbedtls/mbedtls-2.16.2/library\x509_crl.c ****                                            &is_critical ) ) != 0 &&
 205              		.loc 1 147 0
 206 00ac FB69     		ldr	r3, [r7, #28]
 207 00ae 13F1620F 		cmn	r3, #98
 208 00b2 03D0     		beq	.L13
 148:C:/Users/dtjld/workspace/AIoT/src/LiteOS_Lab/iot_link/network/dtls/mbedtls/mbedtls-2.16.2/library\x509_crl.c ****             ( ret != MBEDTLS_ERR_ASN1_UNEXPECTED_TAG ) )
 149:C:/Users/dtjld/workspace/AIoT/src/LiteOS_Lab/iot_link/network/dtls/mbedtls/mbedtls-2.16.2/library\x509_crl.c ****         {
 150:C:/Users/dtjld/workspace/AIoT/src/LiteOS_Lab/iot_link/network/dtls/mbedtls/mbedtls-2.16.2/library\x509_crl.c ****             return( MBEDTLS_ERR_X509_INVALID_EXTENSIONS + ret );
 209              		.loc 1 150 0
 210 00b4 FB69     		ldr	r3, [r7, #28]
 211 00b6 A3F51453 		sub	r3, r3, #9472
 212 00ba 2DE0     		b	.L7
 213              	.L13:
 151:C:/Users/dtjld/workspace/AIoT/src/LiteOS_Lab/iot_link/network/dtls/mbedtls/mbedtls-2.16.2/library\x509_crl.c ****         }
 152:C:/Users/dtjld/workspace/AIoT/src/LiteOS_Lab/iot_link/network/dtls/mbedtls/mbedtls-2.16.2/library\x509_crl.c **** 
 153:C:/Users/dtjld/workspace/AIoT/src/LiteOS_Lab/iot_link/network/dtls/mbedtls/mbedtls-2.16.2/library\x509_crl.c ****         /* Data should be octet string type */
 154:C:/Users/dtjld/workspace/AIoT/src/LiteOS_Lab/iot_link/network/dtls/mbedtls/mbedtls-2.16.2/library\x509_crl.c ****         if( ( ret = mbedtls_asn1_get_tag( p, end_ext_data, &len,
 214              		.loc 1 154 0
 215 00bc 07F11002 		add	r2, r7, #16
 216 00c0 0423     		movs	r3, #4
 217 00c2 B969     		ldr	r1, [r7, #24]
 218 00c4 F868     		ldr	r0, [r7, #12]
 219 00c6 FFF7FEFF 		bl	mbedtls_asn1_get_tag
 220 00ca F861     		str	r0, [r7, #28]
 221 00cc FB69     		ldr	r3, [r7, #28]
 222 00ce 002B     		cmp	r3, #0
 223 00d0 03D0     		beq	.L14
 155:C:/Users/dtjld/workspace/AIoT/src/LiteOS_Lab/iot_link/network/dtls/mbedtls/mbedtls-2.16.2/library\x509_crl.c ****                 MBEDTLS_ASN1_OCTET_STRING ) ) != 0 )
 156:C:/Users/dtjld/workspace/AIoT/src/LiteOS_Lab/iot_link/network/dtls/mbedtls/mbedtls-2.16.2/library\x509_crl.c ****             return( MBEDTLS_ERR_X509_INVALID_EXTENSIONS + ret );
 224              		.loc 1 156 0
 225 00d2 FB69     		ldr	r3, [r7, #28]
 226 00d4 A3F51453 		sub	r3, r3, #9472
 227 00d8 1EE0     		b	.L7
 228              	.L14:
 157:C:/Users/dtjld/workspace/AIoT/src/LiteOS_Lab/iot_link/network/dtls/mbedtls/mbedtls-2.16.2/library\x509_crl.c **** 
 158:C:/Users/dtjld/workspace/AIoT/src/LiteOS_Lab/iot_link/network/dtls/mbedtls/mbedtls-2.16.2/library\x509_crl.c ****         /* Ignore data so far and just check its length */
 159:C:/Users/dtjld/workspace/AIoT/src/LiteOS_Lab/iot_link/network/dtls/mbedtls/mbedtls-2.16.2/library\x509_crl.c ****         *p += len;
 229              		.loc 1 159 0
 230 00da FB68     		ldr	r3, [r7, #12]
 231 00dc 1A68     		ldr	r2, [r3]
 232 00de 3B69     		ldr	r3, [r7, #16]
 233 00e0 1A44     		add	r2, r2, r3
 234 00e2 FB68     		ldr	r3, [r7, #12]
 235 00e4 1A60     		str	r2, [r3]
 160:C:/Users/dtjld/workspace/AIoT/src/LiteOS_Lab/iot_link/network/dtls/mbedtls/mbedtls-2.16.2/library\x509_crl.c ****         if( *p != end_ext_data )
 236              		.loc 1 160 0
 237 00e6 FB68     		ldr	r3, [r7, #12]
 238 00e8 1B68     		ldr	r3, [r3]
 239 00ea BA69     		ldr	r2, [r7, #24]
 240 00ec 9A42     		cmp	r2, r3
 241 00ee 01D0     		beq	.L15
 161:C:/Users/dtjld/workspace/AIoT/src/LiteOS_Lab/iot_link/network/dtls/mbedtls/mbedtls-2.16.2/library\x509_crl.c ****             return( MBEDTLS_ERR_X509_INVALID_EXTENSIONS +
ARM GAS  C:\Users\dtjld\AppData\Local\Temp\ccJIykE0.s 			page 8


 242              		.loc 1 161 0
 243 00f0 0B4B     		ldr	r3, .L19
 244 00f2 11E0     		b	.L7
 245              	.L15:
 162:C:/Users/dtjld/workspace/AIoT/src/LiteOS_Lab/iot_link/network/dtls/mbedtls/mbedtls-2.16.2/library\x509_crl.c ****                     MBEDTLS_ERR_ASN1_LENGTH_MISMATCH );
 163:C:/Users/dtjld/workspace/AIoT/src/LiteOS_Lab/iot_link/network/dtls/mbedtls/mbedtls-2.16.2/library\x509_crl.c **** 
 164:C:/Users/dtjld/workspace/AIoT/src/LiteOS_Lab/iot_link/network/dtls/mbedtls/mbedtls-2.16.2/library\x509_crl.c ****         /* Abort on (unsupported) critical extensions */
 165:C:/Users/dtjld/workspace/AIoT/src/LiteOS_Lab/iot_link/network/dtls/mbedtls/mbedtls-2.16.2/library\x509_crl.c ****         if( is_critical )
 246              		.loc 1 165 0
 247 00f4 7B69     		ldr	r3, [r7, #20]
 248 00f6 002B     		cmp	r3, #0
 249 00f8 01D0     		beq	.L9
 166:C:/Users/dtjld/workspace/AIoT/src/LiteOS_Lab/iot_link/network/dtls/mbedtls/mbedtls-2.16.2/library\x509_crl.c ****             return( MBEDTLS_ERR_X509_INVALID_EXTENSIONS +
 250              		.loc 1 166 0
 251 00fa 0A4B     		ldr	r3, .L19+4
 252 00fc 0CE0     		b	.L7
 253              	.L9:
 254              	.LBE2:
 118:C:/Users/dtjld/workspace/AIoT/src/LiteOS_Lab/iot_link/network/dtls/mbedtls/mbedtls-2.16.2/library\x509_crl.c ****     {
 255              		.loc 1 118 0
 256 00fe FB68     		ldr	r3, [r7, #12]
 257 0100 1B68     		ldr	r3, [r3]
 258 0102 BA68     		ldr	r2, [r7, #8]
 259 0104 9A42     		cmp	r2, r3
 260 0106 9BD8     		bhi	.L17
 167:C:/Users/dtjld/workspace/AIoT/src/LiteOS_Lab/iot_link/network/dtls/mbedtls/mbedtls-2.16.2/library\x509_crl.c ****                     MBEDTLS_ERR_ASN1_UNEXPECTED_TAG );
 168:C:/Users/dtjld/workspace/AIoT/src/LiteOS_Lab/iot_link/network/dtls/mbedtls/mbedtls-2.16.2/library\x509_crl.c ****     }
 169:C:/Users/dtjld/workspace/AIoT/src/LiteOS_Lab/iot_link/network/dtls/mbedtls/mbedtls-2.16.2/library\x509_crl.c **** 
 170:C:/Users/dtjld/workspace/AIoT/src/LiteOS_Lab/iot_link/network/dtls/mbedtls/mbedtls-2.16.2/library\x509_crl.c ****     if( *p != end )
 261              		.loc 1 170 0
 262 0108 FB68     		ldr	r3, [r7, #12]
 263 010a 1B68     		ldr	r3, [r3]
 264 010c BA68     		ldr	r2, [r7, #8]
 265 010e 9A42     		cmp	r2, r3
 266 0110 01D0     		beq	.L18
 171:C:/Users/dtjld/workspace/AIoT/src/LiteOS_Lab/iot_link/network/dtls/mbedtls/mbedtls-2.16.2/library\x509_crl.c ****         return( MBEDTLS_ERR_X509_INVALID_EXTENSIONS +
 267              		.loc 1 171 0
 268 0112 034B     		ldr	r3, .L19
 269 0114 00E0     		b	.L7
 270              	.L18:
 172:C:/Users/dtjld/workspace/AIoT/src/LiteOS_Lab/iot_link/network/dtls/mbedtls/mbedtls-2.16.2/library\x509_crl.c ****                 MBEDTLS_ERR_ASN1_LENGTH_MISMATCH );
 173:C:/Users/dtjld/workspace/AIoT/src/LiteOS_Lab/iot_link/network/dtls/mbedtls/mbedtls-2.16.2/library\x509_crl.c **** 
 174:C:/Users/dtjld/workspace/AIoT/src/LiteOS_Lab/iot_link/network/dtls/mbedtls/mbedtls-2.16.2/library\x509_crl.c ****     return( 0 );
 271              		.loc 1 174 0
 272 0116 0023     		movs	r3, #0
 273              	.L7:
 175:C:/Users/dtjld/workspace/AIoT/src/LiteOS_Lab/iot_link/network/dtls/mbedtls/mbedtls-2.16.2/library\x509_crl.c **** }
 274              		.loc 1 175 0
 275 0118 1846     		mov	r0, r3
 276 011a 2037     		adds	r7, r7, #32
 277              	.LCFI8:
 278              		.cfi_def_cfa_offset 8
 279 011c BD46     		mov	sp, r7
 280              	.LCFI9:
 281              		.cfi_def_cfa_register 13
 282              		@ sp needed
 283 011e 80BD     		pop	{r7, pc}
ARM GAS  C:\Users\dtjld\AppData\Local\Temp\ccJIykE0.s 			page 9


 284              	.L20:
 285              		.align	2
 286              	.L19:
 287 0120 9ADAFFFF 		.word	-9574
 288 0124 9EDAFFFF 		.word	-9570
 289              		.cfi_endproc
 290              	.LFE14:
 292              		.section	.text.x509_get_crl_entry_ext,"ax",%progbits
 293              		.align	1
 294              		.syntax unified
 295              		.thumb
 296              		.thumb_func
 297              		.fpu fpv4-sp-d16
 299              	x509_get_crl_entry_ext:
 300              	.LFB15:
 176:C:/Users/dtjld/workspace/AIoT/src/LiteOS_Lab/iot_link/network/dtls/mbedtls/mbedtls-2.16.2/library\x509_crl.c **** 
 177:C:/Users/dtjld/workspace/AIoT/src/LiteOS_Lab/iot_link/network/dtls/mbedtls/mbedtls-2.16.2/library\x509_crl.c **** /*
 178:C:/Users/dtjld/workspace/AIoT/src/LiteOS_Lab/iot_link/network/dtls/mbedtls/mbedtls-2.16.2/library\x509_crl.c ****  * X.509 CRL v2 entry extensions (no extensions parsed yet.)
 179:C:/Users/dtjld/workspace/AIoT/src/LiteOS_Lab/iot_link/network/dtls/mbedtls/mbedtls-2.16.2/library\x509_crl.c ****  */
 180:C:/Users/dtjld/workspace/AIoT/src/LiteOS_Lab/iot_link/network/dtls/mbedtls/mbedtls-2.16.2/library\x509_crl.c **** static int x509_get_crl_entry_ext( unsigned char **p,
 181:C:/Users/dtjld/workspace/AIoT/src/LiteOS_Lab/iot_link/network/dtls/mbedtls/mbedtls-2.16.2/library\x509_crl.c ****                              const unsigned char *end,
 182:C:/Users/dtjld/workspace/AIoT/src/LiteOS_Lab/iot_link/network/dtls/mbedtls/mbedtls-2.16.2/library\x509_crl.c ****                              mbedtls_x509_buf *ext )
 183:C:/Users/dtjld/workspace/AIoT/src/LiteOS_Lab/iot_link/network/dtls/mbedtls/mbedtls-2.16.2/library\x509_crl.c **** {
 301              		.loc 1 183 0
 302              		.cfi_startproc
 303              		@ args = 0, pretend = 0, frame = 24
 304              		@ frame_needed = 1, uses_anonymous_args = 0
 305 0000 80B5     		push	{r7, lr}
 306              	.LCFI10:
 307              		.cfi_def_cfa_offset 8
 308              		.cfi_offset 7, -8
 309              		.cfi_offset 14, -4
 310 0002 86B0     		sub	sp, sp, #24
 311              	.LCFI11:
 312              		.cfi_def_cfa_offset 32
 313 0004 00AF     		add	r7, sp, #0
 314              	.LCFI12:
 315              		.cfi_def_cfa_register 7
 316 0006 F860     		str	r0, [r7, #12]
 317 0008 B960     		str	r1, [r7, #8]
 318 000a 7A60     		str	r2, [r7, #4]
 184:C:/Users/dtjld/workspace/AIoT/src/LiteOS_Lab/iot_link/network/dtls/mbedtls/mbedtls-2.16.2/library\x509_crl.c ****     int ret;
 185:C:/Users/dtjld/workspace/AIoT/src/LiteOS_Lab/iot_link/network/dtls/mbedtls/mbedtls-2.16.2/library\x509_crl.c ****     size_t len = 0;
 319              		.loc 1 185 0
 320 000c 0023     		movs	r3, #0
 321 000e 3B61     		str	r3, [r7, #16]
 186:C:/Users/dtjld/workspace/AIoT/src/LiteOS_Lab/iot_link/network/dtls/mbedtls/mbedtls-2.16.2/library\x509_crl.c **** 
 187:C:/Users/dtjld/workspace/AIoT/src/LiteOS_Lab/iot_link/network/dtls/mbedtls/mbedtls-2.16.2/library\x509_crl.c ****     /* OPTIONAL */
 188:C:/Users/dtjld/workspace/AIoT/src/LiteOS_Lab/iot_link/network/dtls/mbedtls/mbedtls-2.16.2/library\x509_crl.c ****     if( end <= *p )
 322              		.loc 1 188 0
 323 0010 FB68     		ldr	r3, [r7, #12]
 324 0012 1B68     		ldr	r3, [r3]
 325 0014 BA68     		ldr	r2, [r7, #8]
 326 0016 9A42     		cmp	r2, r3
 327 0018 01D8     		bhi	.L22
 189:C:/Users/dtjld/workspace/AIoT/src/LiteOS_Lab/iot_link/network/dtls/mbedtls/mbedtls-2.16.2/library\x509_crl.c ****         return( 0 );
 328              		.loc 1 189 0
ARM GAS  C:\Users\dtjld\AppData\Local\Temp\ccJIykE0.s 			page 10


 329 001a 0023     		movs	r3, #0
 330 001c 53E0     		b	.L31
 331              	.L22:
 190:C:/Users/dtjld/workspace/AIoT/src/LiteOS_Lab/iot_link/network/dtls/mbedtls/mbedtls-2.16.2/library\x509_crl.c **** 
 191:C:/Users/dtjld/workspace/AIoT/src/LiteOS_Lab/iot_link/network/dtls/mbedtls/mbedtls-2.16.2/library\x509_crl.c ****     ext->tag = **p;
 332              		.loc 1 191 0
 333 001e FB68     		ldr	r3, [r7, #12]
 334 0020 1B68     		ldr	r3, [r3]
 335 0022 1B78     		ldrb	r3, [r3]	@ zero_extendqisi2
 336 0024 1A46     		mov	r2, r3
 337 0026 7B68     		ldr	r3, [r7, #4]
 338 0028 1A60     		str	r2, [r3]
 192:C:/Users/dtjld/workspace/AIoT/src/LiteOS_Lab/iot_link/network/dtls/mbedtls/mbedtls-2.16.2/library\x509_crl.c ****     ext->p = *p;
 339              		.loc 1 192 0
 340 002a FB68     		ldr	r3, [r7, #12]
 341 002c 1A68     		ldr	r2, [r3]
 342 002e 7B68     		ldr	r3, [r7, #4]
 343 0030 9A60     		str	r2, [r3, #8]
 193:C:/Users/dtjld/workspace/AIoT/src/LiteOS_Lab/iot_link/network/dtls/mbedtls/mbedtls-2.16.2/library\x509_crl.c **** 
 194:C:/Users/dtjld/workspace/AIoT/src/LiteOS_Lab/iot_link/network/dtls/mbedtls/mbedtls-2.16.2/library\x509_crl.c ****     /*
 195:C:/Users/dtjld/workspace/AIoT/src/LiteOS_Lab/iot_link/network/dtls/mbedtls/mbedtls-2.16.2/library\x509_crl.c ****      * Get CRL-entry extension sequence header
 196:C:/Users/dtjld/workspace/AIoT/src/LiteOS_Lab/iot_link/network/dtls/mbedtls/mbedtls-2.16.2/library\x509_crl.c ****      * crlEntryExtensions      Extensions OPTIONAL  -- if present, MUST be v2
 197:C:/Users/dtjld/workspace/AIoT/src/LiteOS_Lab/iot_link/network/dtls/mbedtls/mbedtls-2.16.2/library\x509_crl.c ****      */
 198:C:/Users/dtjld/workspace/AIoT/src/LiteOS_Lab/iot_link/network/dtls/mbedtls/mbedtls-2.16.2/library\x509_crl.c ****     if( ( ret = mbedtls_asn1_get_tag( p, end, &ext->len,
 344              		.loc 1 198 0
 345 0032 7B68     		ldr	r3, [r7, #4]
 346 0034 1A1D     		adds	r2, r3, #4
 347 0036 3023     		movs	r3, #48
 348 0038 B968     		ldr	r1, [r7, #8]
 349 003a F868     		ldr	r0, [r7, #12]
 350 003c FFF7FEFF 		bl	mbedtls_asn1_get_tag
 351 0040 7861     		str	r0, [r7, #20]
 352 0042 7B69     		ldr	r3, [r7, #20]
 353 0044 002B     		cmp	r3, #0
 354 0046 0CD0     		beq	.L24
 199:C:/Users/dtjld/workspace/AIoT/src/LiteOS_Lab/iot_link/network/dtls/mbedtls/mbedtls-2.16.2/library\x509_crl.c ****             MBEDTLS_ASN1_CONSTRUCTED | MBEDTLS_ASN1_SEQUENCE ) ) != 0 )
 200:C:/Users/dtjld/workspace/AIoT/src/LiteOS_Lab/iot_link/network/dtls/mbedtls/mbedtls-2.16.2/library\x509_crl.c ****     {
 201:C:/Users/dtjld/workspace/AIoT/src/LiteOS_Lab/iot_link/network/dtls/mbedtls/mbedtls-2.16.2/library\x509_crl.c ****         if( ret == MBEDTLS_ERR_ASN1_UNEXPECTED_TAG )
 355              		.loc 1 201 0
 356 0048 7B69     		ldr	r3, [r7, #20]
 357 004a 13F1620F 		cmn	r3, #98
 358 004e 04D1     		bne	.L25
 202:C:/Users/dtjld/workspace/AIoT/src/LiteOS_Lab/iot_link/network/dtls/mbedtls/mbedtls-2.16.2/library\x509_crl.c ****         {
 203:C:/Users/dtjld/workspace/AIoT/src/LiteOS_Lab/iot_link/network/dtls/mbedtls/mbedtls-2.16.2/library\x509_crl.c ****             ext->p = NULL;
 359              		.loc 1 203 0
 360 0050 7B68     		ldr	r3, [r7, #4]
 361 0052 0022     		movs	r2, #0
 362 0054 9A60     		str	r2, [r3, #8]
 204:C:/Users/dtjld/workspace/AIoT/src/LiteOS_Lab/iot_link/network/dtls/mbedtls/mbedtls-2.16.2/library\x509_crl.c ****             return( 0 );
 363              		.loc 1 204 0
 364 0056 0023     		movs	r3, #0
 365 0058 35E0     		b	.L31
 366              	.L25:
 205:C:/Users/dtjld/workspace/AIoT/src/LiteOS_Lab/iot_link/network/dtls/mbedtls/mbedtls-2.16.2/library\x509_crl.c ****         }
 206:C:/Users/dtjld/workspace/AIoT/src/LiteOS_Lab/iot_link/network/dtls/mbedtls/mbedtls-2.16.2/library\x509_crl.c ****         return( MBEDTLS_ERR_X509_INVALID_EXTENSIONS + ret );
 367              		.loc 1 206 0
 368 005a 7B69     		ldr	r3, [r7, #20]
ARM GAS  C:\Users\dtjld\AppData\Local\Temp\ccJIykE0.s 			page 11


 369 005c A3F51453 		sub	r3, r3, #9472
 370 0060 31E0     		b	.L31
 371              	.L24:
 207:C:/Users/dtjld/workspace/AIoT/src/LiteOS_Lab/iot_link/network/dtls/mbedtls/mbedtls-2.16.2/library\x509_crl.c ****     }
 208:C:/Users/dtjld/workspace/AIoT/src/LiteOS_Lab/iot_link/network/dtls/mbedtls/mbedtls-2.16.2/library\x509_crl.c **** 
 209:C:/Users/dtjld/workspace/AIoT/src/LiteOS_Lab/iot_link/network/dtls/mbedtls/mbedtls-2.16.2/library\x509_crl.c ****     end = *p + ext->len;
 372              		.loc 1 209 0
 373 0062 FB68     		ldr	r3, [r7, #12]
 374 0064 1A68     		ldr	r2, [r3]
 375 0066 7B68     		ldr	r3, [r7, #4]
 376 0068 5B68     		ldr	r3, [r3, #4]
 377 006a 1344     		add	r3, r3, r2
 378 006c BB60     		str	r3, [r7, #8]
 210:C:/Users/dtjld/workspace/AIoT/src/LiteOS_Lab/iot_link/network/dtls/mbedtls/mbedtls-2.16.2/library\x509_crl.c **** 
 211:C:/Users/dtjld/workspace/AIoT/src/LiteOS_Lab/iot_link/network/dtls/mbedtls/mbedtls-2.16.2/library\x509_crl.c ****     if( end != *p + ext->len )
 379              		.loc 1 211 0
 380 006e FB68     		ldr	r3, [r7, #12]
 381 0070 1A68     		ldr	r2, [r3]
 382 0072 7B68     		ldr	r3, [r7, #4]
 383 0074 5B68     		ldr	r3, [r3, #4]
 384 0076 1344     		add	r3, r3, r2
 385 0078 BA68     		ldr	r2, [r7, #8]
 386 007a 9A42     		cmp	r2, r3
 387 007c 16D0     		beq	.L27
 212:C:/Users/dtjld/workspace/AIoT/src/LiteOS_Lab/iot_link/network/dtls/mbedtls/mbedtls-2.16.2/library\x509_crl.c ****         return( MBEDTLS_ERR_X509_INVALID_EXTENSIONS +
 388              		.loc 1 212 0
 389 007e 144B     		ldr	r3, .L32
 390 0080 21E0     		b	.L31
 391              	.L29:
 213:C:/Users/dtjld/workspace/AIoT/src/LiteOS_Lab/iot_link/network/dtls/mbedtls/mbedtls-2.16.2/library\x509_crl.c ****                 MBEDTLS_ERR_ASN1_LENGTH_MISMATCH );
 214:C:/Users/dtjld/workspace/AIoT/src/LiteOS_Lab/iot_link/network/dtls/mbedtls/mbedtls-2.16.2/library\x509_crl.c **** 
 215:C:/Users/dtjld/workspace/AIoT/src/LiteOS_Lab/iot_link/network/dtls/mbedtls/mbedtls-2.16.2/library\x509_crl.c ****     while( *p < end )
 216:C:/Users/dtjld/workspace/AIoT/src/LiteOS_Lab/iot_link/network/dtls/mbedtls/mbedtls-2.16.2/library\x509_crl.c ****     {
 217:C:/Users/dtjld/workspace/AIoT/src/LiteOS_Lab/iot_link/network/dtls/mbedtls/mbedtls-2.16.2/library\x509_crl.c ****         if( ( ret = mbedtls_asn1_get_tag( p, end, &len,
 392              		.loc 1 217 0
 393 0082 07F11002 		add	r2, r7, #16
 394 0086 3023     		movs	r3, #48
 395 0088 B968     		ldr	r1, [r7, #8]
 396 008a F868     		ldr	r0, [r7, #12]
 397 008c FFF7FEFF 		bl	mbedtls_asn1_get_tag
 398 0090 7861     		str	r0, [r7, #20]
 399 0092 7B69     		ldr	r3, [r7, #20]
 400 0094 002B     		cmp	r3, #0
 401 0096 03D0     		beq	.L28
 218:C:/Users/dtjld/workspace/AIoT/src/LiteOS_Lab/iot_link/network/dtls/mbedtls/mbedtls-2.16.2/library\x509_crl.c ****                 MBEDTLS_ASN1_CONSTRUCTED | MBEDTLS_ASN1_SEQUENCE ) ) != 0 )
 219:C:/Users/dtjld/workspace/AIoT/src/LiteOS_Lab/iot_link/network/dtls/mbedtls/mbedtls-2.16.2/library\x509_crl.c ****             return( MBEDTLS_ERR_X509_INVALID_EXTENSIONS + ret );
 402              		.loc 1 219 0
 403 0098 7B69     		ldr	r3, [r7, #20]
 404 009a A3F51453 		sub	r3, r3, #9472
 405 009e 12E0     		b	.L31
 406              	.L28:
 220:C:/Users/dtjld/workspace/AIoT/src/LiteOS_Lab/iot_link/network/dtls/mbedtls/mbedtls-2.16.2/library\x509_crl.c **** 
 221:C:/Users/dtjld/workspace/AIoT/src/LiteOS_Lab/iot_link/network/dtls/mbedtls/mbedtls-2.16.2/library\x509_crl.c ****         *p += len;
 407              		.loc 1 221 0
 408 00a0 FB68     		ldr	r3, [r7, #12]
 409 00a2 1A68     		ldr	r2, [r3]
 410 00a4 3B69     		ldr	r3, [r7, #16]
ARM GAS  C:\Users\dtjld\AppData\Local\Temp\ccJIykE0.s 			page 12


 411 00a6 1A44     		add	r2, r2, r3
 412 00a8 FB68     		ldr	r3, [r7, #12]
 413 00aa 1A60     		str	r2, [r3]
 414              	.L27:
 215:C:/Users/dtjld/workspace/AIoT/src/LiteOS_Lab/iot_link/network/dtls/mbedtls/mbedtls-2.16.2/library\x509_crl.c ****     {
 415              		.loc 1 215 0
 416 00ac FB68     		ldr	r3, [r7, #12]
 417 00ae 1B68     		ldr	r3, [r3]
 418 00b0 BA68     		ldr	r2, [r7, #8]
 419 00b2 9A42     		cmp	r2, r3
 420 00b4 E5D8     		bhi	.L29
 222:C:/Users/dtjld/workspace/AIoT/src/LiteOS_Lab/iot_link/network/dtls/mbedtls/mbedtls-2.16.2/library\x509_crl.c ****     }
 223:C:/Users/dtjld/workspace/AIoT/src/LiteOS_Lab/iot_link/network/dtls/mbedtls/mbedtls-2.16.2/library\x509_crl.c **** 
 224:C:/Users/dtjld/workspace/AIoT/src/LiteOS_Lab/iot_link/network/dtls/mbedtls/mbedtls-2.16.2/library\x509_crl.c ****     if( *p != end )
 421              		.loc 1 224 0
 422 00b6 FB68     		ldr	r3, [r7, #12]
 423 00b8 1B68     		ldr	r3, [r3]
 424 00ba BA68     		ldr	r2, [r7, #8]
 425 00bc 9A42     		cmp	r2, r3
 426 00be 01D0     		beq	.L30
 225:C:/Users/dtjld/workspace/AIoT/src/LiteOS_Lab/iot_link/network/dtls/mbedtls/mbedtls-2.16.2/library\x509_crl.c ****         return( MBEDTLS_ERR_X509_INVALID_EXTENSIONS +
 427              		.loc 1 225 0
 428 00c0 034B     		ldr	r3, .L32
 429 00c2 00E0     		b	.L31
 430              	.L30:
 226:C:/Users/dtjld/workspace/AIoT/src/LiteOS_Lab/iot_link/network/dtls/mbedtls/mbedtls-2.16.2/library\x509_crl.c ****                 MBEDTLS_ERR_ASN1_LENGTH_MISMATCH );
 227:C:/Users/dtjld/workspace/AIoT/src/LiteOS_Lab/iot_link/network/dtls/mbedtls/mbedtls-2.16.2/library\x509_crl.c **** 
 228:C:/Users/dtjld/workspace/AIoT/src/LiteOS_Lab/iot_link/network/dtls/mbedtls/mbedtls-2.16.2/library\x509_crl.c ****     return( 0 );
 431              		.loc 1 228 0
 432 00c4 0023     		movs	r3, #0
 433              	.L31:
 229:C:/Users/dtjld/workspace/AIoT/src/LiteOS_Lab/iot_link/network/dtls/mbedtls/mbedtls-2.16.2/library\x509_crl.c **** }
 434              		.loc 1 229 0 discriminator 1
 435 00c6 1846     		mov	r0, r3
 436 00c8 1837     		adds	r7, r7, #24
 437              	.LCFI13:
 438              		.cfi_def_cfa_offset 8
 439 00ca BD46     		mov	sp, r7
 440              	.LCFI14:
 441              		.cfi_def_cfa_register 13
 442              		@ sp needed
 443 00cc 80BD     		pop	{r7, pc}
 444              	.L33:
 445 00ce 00BF     		.align	2
 446              	.L32:
 447 00d0 9ADAFFFF 		.word	-9574
 448              		.cfi_endproc
 449              	.LFE15:
 451              		.section	.text.x509_get_entries,"ax",%progbits
 452              		.align	1
 453              		.syntax unified
 454              		.thumb
 455              		.thumb_func
 456              		.fpu fpv4-sp-d16
 458              	x509_get_entries:
 459              	.LFB16:
 230:C:/Users/dtjld/workspace/AIoT/src/LiteOS_Lab/iot_link/network/dtls/mbedtls/mbedtls-2.16.2/library\x509_crl.c **** 
ARM GAS  C:\Users\dtjld\AppData\Local\Temp\ccJIykE0.s 			page 13


 231:C:/Users/dtjld/workspace/AIoT/src/LiteOS_Lab/iot_link/network/dtls/mbedtls/mbedtls-2.16.2/library\x509_crl.c **** /*
 232:C:/Users/dtjld/workspace/AIoT/src/LiteOS_Lab/iot_link/network/dtls/mbedtls/mbedtls-2.16.2/library\x509_crl.c ****  * X.509 CRL Entries
 233:C:/Users/dtjld/workspace/AIoT/src/LiteOS_Lab/iot_link/network/dtls/mbedtls/mbedtls-2.16.2/library\x509_crl.c ****  */
 234:C:/Users/dtjld/workspace/AIoT/src/LiteOS_Lab/iot_link/network/dtls/mbedtls/mbedtls-2.16.2/library\x509_crl.c **** static int x509_get_entries( unsigned char **p,
 235:C:/Users/dtjld/workspace/AIoT/src/LiteOS_Lab/iot_link/network/dtls/mbedtls/mbedtls-2.16.2/library\x509_crl.c ****                              const unsigned char *end,
 236:C:/Users/dtjld/workspace/AIoT/src/LiteOS_Lab/iot_link/network/dtls/mbedtls/mbedtls-2.16.2/library\x509_crl.c ****                              mbedtls_x509_crl_entry *entry )
 237:C:/Users/dtjld/workspace/AIoT/src/LiteOS_Lab/iot_link/network/dtls/mbedtls/mbedtls-2.16.2/library\x509_crl.c **** {
 460              		.loc 1 237 0
 461              		.cfi_startproc
 462              		@ args = 0, pretend = 0, frame = 40
 463              		@ frame_needed = 1, uses_anonymous_args = 0
 464 0000 80B5     		push	{r7, lr}
 465              	.LCFI15:
 466              		.cfi_def_cfa_offset 8
 467              		.cfi_offset 7, -8
 468              		.cfi_offset 14, -4
 469 0002 8AB0     		sub	sp, sp, #40
 470              	.LCFI16:
 471              		.cfi_def_cfa_offset 48
 472 0004 00AF     		add	r7, sp, #0
 473              	.LCFI17:
 474              		.cfi_def_cfa_register 7
 475 0006 F860     		str	r0, [r7, #12]
 476 0008 B960     		str	r1, [r7, #8]
 477 000a 7A60     		str	r2, [r7, #4]
 238:C:/Users/dtjld/workspace/AIoT/src/LiteOS_Lab/iot_link/network/dtls/mbedtls/mbedtls-2.16.2/library\x509_crl.c ****     int ret;
 239:C:/Users/dtjld/workspace/AIoT/src/LiteOS_Lab/iot_link/network/dtls/mbedtls/mbedtls-2.16.2/library\x509_crl.c ****     size_t entry_len;
 240:C:/Users/dtjld/workspace/AIoT/src/LiteOS_Lab/iot_link/network/dtls/mbedtls/mbedtls-2.16.2/library\x509_crl.c ****     mbedtls_x509_crl_entry *cur_entry = entry;
 478              		.loc 1 240 0
 479 000c 7B68     		ldr	r3, [r7, #4]
 480 000e 7B62     		str	r3, [r7, #36]
 241:C:/Users/dtjld/workspace/AIoT/src/LiteOS_Lab/iot_link/network/dtls/mbedtls/mbedtls-2.16.2/library\x509_crl.c **** 
 242:C:/Users/dtjld/workspace/AIoT/src/LiteOS_Lab/iot_link/network/dtls/mbedtls/mbedtls-2.16.2/library\x509_crl.c ****     if( *p == end )
 481              		.loc 1 242 0
 482 0010 FB68     		ldr	r3, [r7, #12]
 483 0012 1B68     		ldr	r3, [r3]
 484 0014 BA68     		ldr	r2, [r7, #8]
 485 0016 9A42     		cmp	r2, r3
 486 0018 01D1     		bne	.L35
 243:C:/Users/dtjld/workspace/AIoT/src/LiteOS_Lab/iot_link/network/dtls/mbedtls/mbedtls-2.16.2/library\x509_crl.c ****         return( 0 );
 487              		.loc 1 243 0
 488 001a 0023     		movs	r3, #0
 489 001c 79E0     		b	.L48
 490              	.L35:
 244:C:/Users/dtjld/workspace/AIoT/src/LiteOS_Lab/iot_link/network/dtls/mbedtls/mbedtls-2.16.2/library\x509_crl.c **** 
 245:C:/Users/dtjld/workspace/AIoT/src/LiteOS_Lab/iot_link/network/dtls/mbedtls/mbedtls-2.16.2/library\x509_crl.c ****     if( ( ret = mbedtls_asn1_get_tag( p, end, &entry_len,
 491              		.loc 1 245 0
 492 001e 07F11802 		add	r2, r7, #24
 493 0022 3023     		movs	r3, #48
 494 0024 B968     		ldr	r1, [r7, #8]
 495 0026 F868     		ldr	r0, [r7, #12]
 496 0028 FFF7FEFF 		bl	mbedtls_asn1_get_tag
 497 002c 3862     		str	r0, [r7, #32]
 498 002e 3B6A     		ldr	r3, [r7, #32]
 499 0030 002B     		cmp	r3, #0
 500 0032 07D0     		beq	.L37
 246:C:/Users/dtjld/workspace/AIoT/src/LiteOS_Lab/iot_link/network/dtls/mbedtls/mbedtls-2.16.2/library\x509_crl.c ****             MBEDTLS_ASN1_SEQUENCE | MBEDTLS_ASN1_CONSTRUCTED ) ) != 0 )
ARM GAS  C:\Users\dtjld\AppData\Local\Temp\ccJIykE0.s 			page 14


 247:C:/Users/dtjld/workspace/AIoT/src/LiteOS_Lab/iot_link/network/dtls/mbedtls/mbedtls-2.16.2/library\x509_crl.c ****     {
 248:C:/Users/dtjld/workspace/AIoT/src/LiteOS_Lab/iot_link/network/dtls/mbedtls/mbedtls-2.16.2/library\x509_crl.c ****         if( ret == MBEDTLS_ERR_ASN1_UNEXPECTED_TAG )
 501              		.loc 1 248 0
 502 0034 3B6A     		ldr	r3, [r7, #32]
 503 0036 13F1620F 		cmn	r3, #98
 504 003a 01D1     		bne	.L38
 249:C:/Users/dtjld/workspace/AIoT/src/LiteOS_Lab/iot_link/network/dtls/mbedtls/mbedtls-2.16.2/library\x509_crl.c ****             return( 0 );
 505              		.loc 1 249 0
 506 003c 0023     		movs	r3, #0
 507 003e 68E0     		b	.L48
 508              	.L38:
 250:C:/Users/dtjld/workspace/AIoT/src/LiteOS_Lab/iot_link/network/dtls/mbedtls/mbedtls-2.16.2/library\x509_crl.c **** 
 251:C:/Users/dtjld/workspace/AIoT/src/LiteOS_Lab/iot_link/network/dtls/mbedtls/mbedtls-2.16.2/library\x509_crl.c ****         return( ret );
 509              		.loc 1 251 0
 510 0040 3B6A     		ldr	r3, [r7, #32]
 511 0042 66E0     		b	.L48
 512              	.L37:
 252:C:/Users/dtjld/workspace/AIoT/src/LiteOS_Lab/iot_link/network/dtls/mbedtls/mbedtls-2.16.2/library\x509_crl.c ****     }
 253:C:/Users/dtjld/workspace/AIoT/src/LiteOS_Lab/iot_link/network/dtls/mbedtls/mbedtls-2.16.2/library\x509_crl.c **** 
 254:C:/Users/dtjld/workspace/AIoT/src/LiteOS_Lab/iot_link/network/dtls/mbedtls/mbedtls-2.16.2/library\x509_crl.c ****     end = *p + entry_len;
 513              		.loc 1 254 0
 514 0044 FB68     		ldr	r3, [r7, #12]
 515 0046 1A68     		ldr	r2, [r3]
 516 0048 BB69     		ldr	r3, [r7, #24]
 517 004a 1344     		add	r3, r3, r2
 518 004c BB60     		str	r3, [r7, #8]
 255:C:/Users/dtjld/workspace/AIoT/src/LiteOS_Lab/iot_link/network/dtls/mbedtls/mbedtls-2.16.2/library\x509_crl.c **** 
 256:C:/Users/dtjld/workspace/AIoT/src/LiteOS_Lab/iot_link/network/dtls/mbedtls/mbedtls-2.16.2/library\x509_crl.c ****     while( *p < end )
 519              		.loc 1 256 0
 520 004e 5AE0     		b	.L39
 521              	.L47:
 522              	.LBB3:
 257:C:/Users/dtjld/workspace/AIoT/src/LiteOS_Lab/iot_link/network/dtls/mbedtls/mbedtls-2.16.2/library\x509_crl.c ****     {
 258:C:/Users/dtjld/workspace/AIoT/src/LiteOS_Lab/iot_link/network/dtls/mbedtls/mbedtls-2.16.2/library\x509_crl.c ****         size_t len2;
 259:C:/Users/dtjld/workspace/AIoT/src/LiteOS_Lab/iot_link/network/dtls/mbedtls/mbedtls-2.16.2/library\x509_crl.c ****         const unsigned char *end2;
 260:C:/Users/dtjld/workspace/AIoT/src/LiteOS_Lab/iot_link/network/dtls/mbedtls/mbedtls-2.16.2/library\x509_crl.c **** 
 261:C:/Users/dtjld/workspace/AIoT/src/LiteOS_Lab/iot_link/network/dtls/mbedtls/mbedtls-2.16.2/library\x509_crl.c ****         if( ( ret = mbedtls_asn1_get_tag( p, end, &len2,
 523              		.loc 1 261 0
 524 0050 07F11402 		add	r2, r7, #20
 525 0054 3023     		movs	r3, #48
 526 0056 B968     		ldr	r1, [r7, #8]
 527 0058 F868     		ldr	r0, [r7, #12]
 528 005a FFF7FEFF 		bl	mbedtls_asn1_get_tag
 529 005e 3862     		str	r0, [r7, #32]
 530 0060 3B6A     		ldr	r3, [r7, #32]
 531 0062 002B     		cmp	r3, #0
 532 0064 01D0     		beq	.L40
 262:C:/Users/dtjld/workspace/AIoT/src/LiteOS_Lab/iot_link/network/dtls/mbedtls/mbedtls-2.16.2/library\x509_crl.c ****                 MBEDTLS_ASN1_SEQUENCE | MBEDTLS_ASN1_CONSTRUCTED ) ) != 0 )
 263:C:/Users/dtjld/workspace/AIoT/src/LiteOS_Lab/iot_link/network/dtls/mbedtls/mbedtls-2.16.2/library\x509_crl.c ****         {
 264:C:/Users/dtjld/workspace/AIoT/src/LiteOS_Lab/iot_link/network/dtls/mbedtls/mbedtls-2.16.2/library\x509_crl.c ****             return( ret );
 533              		.loc 1 264 0
 534 0066 3B6A     		ldr	r3, [r7, #32]
 535 0068 53E0     		b	.L48
 536              	.L40:
 265:C:/Users/dtjld/workspace/AIoT/src/LiteOS_Lab/iot_link/network/dtls/mbedtls/mbedtls-2.16.2/library\x509_crl.c ****         }
 266:C:/Users/dtjld/workspace/AIoT/src/LiteOS_Lab/iot_link/network/dtls/mbedtls/mbedtls-2.16.2/library\x509_crl.c **** 
 267:C:/Users/dtjld/workspace/AIoT/src/LiteOS_Lab/iot_link/network/dtls/mbedtls/mbedtls-2.16.2/library\x509_crl.c ****         cur_entry->raw.tag = **p;
ARM GAS  C:\Users\dtjld\AppData\Local\Temp\ccJIykE0.s 			page 15


 537              		.loc 1 267 0
 538 006a FB68     		ldr	r3, [r7, #12]
 539 006c 1B68     		ldr	r3, [r3]
 540 006e 1B78     		ldrb	r3, [r3]	@ zero_extendqisi2
 541 0070 1A46     		mov	r2, r3
 542 0072 7B6A     		ldr	r3, [r7, #36]
 543 0074 1A60     		str	r2, [r3]
 268:C:/Users/dtjld/workspace/AIoT/src/LiteOS_Lab/iot_link/network/dtls/mbedtls/mbedtls-2.16.2/library\x509_crl.c ****         cur_entry->raw.p = *p;
 544              		.loc 1 268 0
 545 0076 FB68     		ldr	r3, [r7, #12]
 546 0078 1A68     		ldr	r2, [r3]
 547 007a 7B6A     		ldr	r3, [r7, #36]
 548 007c 9A60     		str	r2, [r3, #8]
 269:C:/Users/dtjld/workspace/AIoT/src/LiteOS_Lab/iot_link/network/dtls/mbedtls/mbedtls-2.16.2/library\x509_crl.c ****         cur_entry->raw.len = len2;
 549              		.loc 1 269 0
 550 007e 7A69     		ldr	r2, [r7, #20]
 551 0080 7B6A     		ldr	r3, [r7, #36]
 552 0082 5A60     		str	r2, [r3, #4]
 270:C:/Users/dtjld/workspace/AIoT/src/LiteOS_Lab/iot_link/network/dtls/mbedtls/mbedtls-2.16.2/library\x509_crl.c ****         end2 = *p + len2;
 553              		.loc 1 270 0
 554 0084 FB68     		ldr	r3, [r7, #12]
 555 0086 1A68     		ldr	r2, [r3]
 556 0088 7B69     		ldr	r3, [r7, #20]
 557 008a 1344     		add	r3, r3, r2
 558 008c FB61     		str	r3, [r7, #28]
 271:C:/Users/dtjld/workspace/AIoT/src/LiteOS_Lab/iot_link/network/dtls/mbedtls/mbedtls-2.16.2/library\x509_crl.c **** 
 272:C:/Users/dtjld/workspace/AIoT/src/LiteOS_Lab/iot_link/network/dtls/mbedtls/mbedtls-2.16.2/library\x509_crl.c ****         if( ( ret = mbedtls_x509_get_serial( p, end2, &cur_entry->serial ) ) != 0 )
 559              		.loc 1 272 0
 560 008e 7B6A     		ldr	r3, [r7, #36]
 561 0090 0C33     		adds	r3, r3, #12
 562 0092 1A46     		mov	r2, r3
 563 0094 F969     		ldr	r1, [r7, #28]
 564 0096 F868     		ldr	r0, [r7, #12]
 565 0098 FFF7FEFF 		bl	mbedtls_x509_get_serial
 566 009c 3862     		str	r0, [r7, #32]
 567 009e 3B6A     		ldr	r3, [r7, #32]
 568 00a0 002B     		cmp	r3, #0
 569 00a2 01D0     		beq	.L42
 273:C:/Users/dtjld/workspace/AIoT/src/LiteOS_Lab/iot_link/network/dtls/mbedtls/mbedtls-2.16.2/library\x509_crl.c ****             return( ret );
 570              		.loc 1 273 0
 571 00a4 3B6A     		ldr	r3, [r7, #32]
 572 00a6 34E0     		b	.L48
 573              	.L42:
 274:C:/Users/dtjld/workspace/AIoT/src/LiteOS_Lab/iot_link/network/dtls/mbedtls/mbedtls-2.16.2/library\x509_crl.c **** 
 275:C:/Users/dtjld/workspace/AIoT/src/LiteOS_Lab/iot_link/network/dtls/mbedtls/mbedtls-2.16.2/library\x509_crl.c ****         if( ( ret = mbedtls_x509_get_time( p, end2,
 574              		.loc 1 275 0
 575 00a8 7B6A     		ldr	r3, [r7, #36]
 576 00aa 1833     		adds	r3, r3, #24
 577 00ac 1A46     		mov	r2, r3
 578 00ae F969     		ldr	r1, [r7, #28]
 579 00b0 F868     		ldr	r0, [r7, #12]
 580 00b2 FFF7FEFF 		bl	mbedtls_x509_get_time
 581 00b6 3862     		str	r0, [r7, #32]
 582 00b8 3B6A     		ldr	r3, [r7, #32]
 583 00ba 002B     		cmp	r3, #0
 584 00bc 01D0     		beq	.L43
 276:C:/Users/dtjld/workspace/AIoT/src/LiteOS_Lab/iot_link/network/dtls/mbedtls/mbedtls-2.16.2/library\x509_crl.c ****                                    &cur_entry->revocation_date ) ) != 0 )
ARM GAS  C:\Users\dtjld\AppData\Local\Temp\ccJIykE0.s 			page 16


 277:C:/Users/dtjld/workspace/AIoT/src/LiteOS_Lab/iot_link/network/dtls/mbedtls/mbedtls-2.16.2/library\x509_crl.c ****             return( ret );
 585              		.loc 1 277 0
 586 00be 3B6A     		ldr	r3, [r7, #32]
 587 00c0 27E0     		b	.L48
 588              	.L43:
 278:C:/Users/dtjld/workspace/AIoT/src/LiteOS_Lab/iot_link/network/dtls/mbedtls/mbedtls-2.16.2/library\x509_crl.c **** 
 279:C:/Users/dtjld/workspace/AIoT/src/LiteOS_Lab/iot_link/network/dtls/mbedtls/mbedtls-2.16.2/library\x509_crl.c ****         if( ( ret = x509_get_crl_entry_ext( p, end2,
 589              		.loc 1 279 0
 590 00c2 7B6A     		ldr	r3, [r7, #36]
 591 00c4 3033     		adds	r3, r3, #48
 592 00c6 1A46     		mov	r2, r3
 593 00c8 F969     		ldr	r1, [r7, #28]
 594 00ca F868     		ldr	r0, [r7, #12]
 595 00cc FFF7FEFF 		bl	x509_get_crl_entry_ext
 596 00d0 3862     		str	r0, [r7, #32]
 597 00d2 3B6A     		ldr	r3, [r7, #32]
 598 00d4 002B     		cmp	r3, #0
 599 00d6 01D0     		beq	.L44
 280:C:/Users/dtjld/workspace/AIoT/src/LiteOS_Lab/iot_link/network/dtls/mbedtls/mbedtls-2.16.2/library\x509_crl.c ****                                             &cur_entry->entry_ext ) ) != 0 )
 281:C:/Users/dtjld/workspace/AIoT/src/LiteOS_Lab/iot_link/network/dtls/mbedtls/mbedtls-2.16.2/library\x509_crl.c ****             return( ret );
 600              		.loc 1 281 0
 601 00d8 3B6A     		ldr	r3, [r7, #32]
 602 00da 1AE0     		b	.L48
 603              	.L44:
 282:C:/Users/dtjld/workspace/AIoT/src/LiteOS_Lab/iot_link/network/dtls/mbedtls/mbedtls-2.16.2/library\x509_crl.c **** 
 283:C:/Users/dtjld/workspace/AIoT/src/LiteOS_Lab/iot_link/network/dtls/mbedtls/mbedtls-2.16.2/library\x509_crl.c ****         if( *p < end )
 604              		.loc 1 283 0
 605 00dc FB68     		ldr	r3, [r7, #12]
 606 00de 1B68     		ldr	r3, [r3]
 607 00e0 BA68     		ldr	r2, [r7, #8]
 608 00e2 9A42     		cmp	r2, r3
 609 00e4 0FD9     		bls	.L39
 284:C:/Users/dtjld/workspace/AIoT/src/LiteOS_Lab/iot_link/network/dtls/mbedtls/mbedtls-2.16.2/library\x509_crl.c ****         {
 285:C:/Users/dtjld/workspace/AIoT/src/LiteOS_Lab/iot_link/network/dtls/mbedtls/mbedtls-2.16.2/library\x509_crl.c ****             cur_entry->next = mbedtls_calloc( 1, sizeof( mbedtls_x509_crl_entry ) );
 610              		.loc 1 285 0
 611 00e6 4021     		movs	r1, #64
 612 00e8 0120     		movs	r0, #1
 613 00ea FFF7FEFF 		bl	mbedtls_calloc
 614 00ee 0246     		mov	r2, r0
 615 00f0 7B6A     		ldr	r3, [r7, #36]
 616 00f2 DA63     		str	r2, [r3, #60]
 286:C:/Users/dtjld/workspace/AIoT/src/LiteOS_Lab/iot_link/network/dtls/mbedtls/mbedtls-2.16.2/library\x509_crl.c **** 
 287:C:/Users/dtjld/workspace/AIoT/src/LiteOS_Lab/iot_link/network/dtls/mbedtls/mbedtls-2.16.2/library\x509_crl.c ****             if( cur_entry->next == NULL )
 617              		.loc 1 287 0
 618 00f4 7B6A     		ldr	r3, [r7, #36]
 619 00f6 DB6B     		ldr	r3, [r3, #60]
 620 00f8 002B     		cmp	r3, #0
 621 00fa 01D1     		bne	.L46
 288:C:/Users/dtjld/workspace/AIoT/src/LiteOS_Lab/iot_link/network/dtls/mbedtls/mbedtls-2.16.2/library\x509_crl.c ****                 return( MBEDTLS_ERR_X509_ALLOC_FAILED );
 622              		.loc 1 288 0
 623 00fc 074B     		ldr	r3, .L49
 624 00fe 08E0     		b	.L48
 625              	.L46:
 289:C:/Users/dtjld/workspace/AIoT/src/LiteOS_Lab/iot_link/network/dtls/mbedtls/mbedtls-2.16.2/library\x509_crl.c **** 
 290:C:/Users/dtjld/workspace/AIoT/src/LiteOS_Lab/iot_link/network/dtls/mbedtls/mbedtls-2.16.2/library\x509_crl.c ****             cur_entry = cur_entry->next;
 626              		.loc 1 290 0
 627 0100 7B6A     		ldr	r3, [r7, #36]
ARM GAS  C:\Users\dtjld\AppData\Local\Temp\ccJIykE0.s 			page 17


 628 0102 DB6B     		ldr	r3, [r3, #60]
 629 0104 7B62     		str	r3, [r7, #36]
 630              	.L39:
 631              	.LBE3:
 256:C:/Users/dtjld/workspace/AIoT/src/LiteOS_Lab/iot_link/network/dtls/mbedtls/mbedtls-2.16.2/library\x509_crl.c ****     {
 632              		.loc 1 256 0
 633 0106 FB68     		ldr	r3, [r7, #12]
 634 0108 1B68     		ldr	r3, [r3]
 635 010a BA68     		ldr	r2, [r7, #8]
 636 010c 9A42     		cmp	r2, r3
 637 010e 9FD8     		bhi	.L47
 291:C:/Users/dtjld/workspace/AIoT/src/LiteOS_Lab/iot_link/network/dtls/mbedtls/mbedtls-2.16.2/library\x509_crl.c ****         }
 292:C:/Users/dtjld/workspace/AIoT/src/LiteOS_Lab/iot_link/network/dtls/mbedtls/mbedtls-2.16.2/library\x509_crl.c ****     }
 293:C:/Users/dtjld/workspace/AIoT/src/LiteOS_Lab/iot_link/network/dtls/mbedtls/mbedtls-2.16.2/library\x509_crl.c **** 
 294:C:/Users/dtjld/workspace/AIoT/src/LiteOS_Lab/iot_link/network/dtls/mbedtls/mbedtls-2.16.2/library\x509_crl.c ****     return( 0 );
 638              		.loc 1 294 0
 639 0110 0023     		movs	r3, #0
 640              	.L48:
 295:C:/Users/dtjld/workspace/AIoT/src/LiteOS_Lab/iot_link/network/dtls/mbedtls/mbedtls-2.16.2/library\x509_crl.c **** }
 641              		.loc 1 295 0 discriminator 1
 642 0112 1846     		mov	r0, r3
 643 0114 2837     		adds	r7, r7, #40
 644              	.LCFI18:
 645              		.cfi_def_cfa_offset 8
 646 0116 BD46     		mov	sp, r7
 647              	.LCFI19:
 648              		.cfi_def_cfa_register 13
 649              		@ sp needed
 650 0118 80BD     		pop	{r7, pc}
 651              	.L50:
 652 011a 00BF     		.align	2
 653              	.L49:
 654 011c 80D7FFFF 		.word	-10368
 655              		.cfi_endproc
 656              	.LFE16:
 658              		.section	.text.mbedtls_x509_crl_parse_der,"ax",%progbits
 659              		.align	1
 660              		.global	mbedtls_x509_crl_parse_der
 661              		.syntax unified
 662              		.thumb
 663              		.thumb_func
 664              		.fpu fpv4-sp-d16
 666              	mbedtls_x509_crl_parse_der:
 667              	.LFB17:
 296:C:/Users/dtjld/workspace/AIoT/src/LiteOS_Lab/iot_link/network/dtls/mbedtls/mbedtls-2.16.2/library\x509_crl.c **** 
 297:C:/Users/dtjld/workspace/AIoT/src/LiteOS_Lab/iot_link/network/dtls/mbedtls/mbedtls-2.16.2/library\x509_crl.c **** /*
 298:C:/Users/dtjld/workspace/AIoT/src/LiteOS_Lab/iot_link/network/dtls/mbedtls/mbedtls-2.16.2/library\x509_crl.c ****  * Parse one  CRLs in DER format and append it to the chained list
 299:C:/Users/dtjld/workspace/AIoT/src/LiteOS_Lab/iot_link/network/dtls/mbedtls/mbedtls-2.16.2/library\x509_crl.c ****  */
 300:C:/Users/dtjld/workspace/AIoT/src/LiteOS_Lab/iot_link/network/dtls/mbedtls/mbedtls-2.16.2/library\x509_crl.c **** int mbedtls_x509_crl_parse_der( mbedtls_x509_crl *chain,
 301:C:/Users/dtjld/workspace/AIoT/src/LiteOS_Lab/iot_link/network/dtls/mbedtls/mbedtls-2.16.2/library\x509_crl.c ****                         const unsigned char *buf, size_t buflen )
 302:C:/Users/dtjld/workspace/AIoT/src/LiteOS_Lab/iot_link/network/dtls/mbedtls/mbedtls-2.16.2/library\x509_crl.c **** {
 668              		.loc 1 302 0
 669              		.cfi_startproc
 670              		@ args = 0, pretend = 0, frame = 72
 671              		@ frame_needed = 1, uses_anonymous_args = 0
 672 0000 90B5     		push	{r4, r7, lr}
 673              	.LCFI20:
ARM GAS  C:\Users\dtjld\AppData\Local\Temp\ccJIykE0.s 			page 18


 674              		.cfi_def_cfa_offset 12
 675              		.cfi_offset 4, -12
 676              		.cfi_offset 7, -8
 677              		.cfi_offset 14, -4
 678 0002 95B0     		sub	sp, sp, #84
 679              	.LCFI21:
 680              		.cfi_def_cfa_offset 96
 681 0004 02AF     		add	r7, sp, #8
 682              	.LCFI22:
 683              		.cfi_def_cfa 7, 88
 684 0006 F860     		str	r0, [r7, #12]
 685 0008 B960     		str	r1, [r7, #8]
 686 000a 7A60     		str	r2, [r7, #4]
 303:C:/Users/dtjld/workspace/AIoT/src/LiteOS_Lab/iot_link/network/dtls/mbedtls/mbedtls-2.16.2/library\x509_crl.c ****     int ret;
 304:C:/Users/dtjld/workspace/AIoT/src/LiteOS_Lab/iot_link/network/dtls/mbedtls/mbedtls-2.16.2/library\x509_crl.c ****     size_t len;
 305:C:/Users/dtjld/workspace/AIoT/src/LiteOS_Lab/iot_link/network/dtls/mbedtls/mbedtls-2.16.2/library\x509_crl.c ****     unsigned char *p = NULL, *end = NULL;
 687              		.loc 1 305 0
 688 000c 0023     		movs	r3, #0
 689 000e 7B63     		str	r3, [r7, #52]
 690 0010 0023     		movs	r3, #0
 691 0012 FB63     		str	r3, [r7, #60]
 306:C:/Users/dtjld/workspace/AIoT/src/LiteOS_Lab/iot_link/network/dtls/mbedtls/mbedtls-2.16.2/library\x509_crl.c ****     mbedtls_x509_buf sig_params1, sig_params2, sig_oid2;
 307:C:/Users/dtjld/workspace/AIoT/src/LiteOS_Lab/iot_link/network/dtls/mbedtls/mbedtls-2.16.2/library\x509_crl.c ****     mbedtls_x509_crl *crl = chain;
 692              		.loc 1 307 0
 693 0014 FB68     		ldr	r3, [r7, #12]
 694 0016 3B64     		str	r3, [r7, #64]
 308:C:/Users/dtjld/workspace/AIoT/src/LiteOS_Lab/iot_link/network/dtls/mbedtls/mbedtls-2.16.2/library\x509_crl.c **** 
 309:C:/Users/dtjld/workspace/AIoT/src/LiteOS_Lab/iot_link/network/dtls/mbedtls/mbedtls-2.16.2/library\x509_crl.c ****     /*
 310:C:/Users/dtjld/workspace/AIoT/src/LiteOS_Lab/iot_link/network/dtls/mbedtls/mbedtls-2.16.2/library\x509_crl.c ****      * Check for valid input
 311:C:/Users/dtjld/workspace/AIoT/src/LiteOS_Lab/iot_link/network/dtls/mbedtls/mbedtls-2.16.2/library\x509_crl.c ****      */
 312:C:/Users/dtjld/workspace/AIoT/src/LiteOS_Lab/iot_link/network/dtls/mbedtls/mbedtls-2.16.2/library\x509_crl.c ****     if( crl == NULL || buf == NULL )
 695              		.loc 1 312 0
 696 0018 3B6C     		ldr	r3, [r7, #64]
 697 001a 002B     		cmp	r3, #0
 698 001c 02D0     		beq	.L52
 699              		.loc 1 312 0 is_stmt 0 discriminator 1
 700 001e BB68     		ldr	r3, [r7, #8]
 701 0020 002B     		cmp	r3, #0
 702 0022 01D1     		bne	.L53
 703              	.L52:
 313:C:/Users/dtjld/workspace/AIoT/src/LiteOS_Lab/iot_link/network/dtls/mbedtls/mbedtls-2.16.2/library\x509_crl.c ****         return( MBEDTLS_ERR_X509_BAD_INPUT_DATA );
 704              		.loc 1 313 0 is_stmt 1
 705 0024 A84B     		ldr	r3, .L83
 706 0026 E9E1     		b	.L82
 707              	.L53:
 314:C:/Users/dtjld/workspace/AIoT/src/LiteOS_Lab/iot_link/network/dtls/mbedtls/mbedtls-2.16.2/library\x509_crl.c **** 
 315:C:/Users/dtjld/workspace/AIoT/src/LiteOS_Lab/iot_link/network/dtls/mbedtls/mbedtls-2.16.2/library\x509_crl.c ****     memset( &sig_params1, 0, sizeof( mbedtls_x509_buf ) );
 708              		.loc 1 315 0
 709 0028 07F12803 		add	r3, r7, #40
 710 002c 0C22     		movs	r2, #12
 711 002e 0021     		movs	r1, #0
 712 0030 1846     		mov	r0, r3
 713 0032 FFF7FEFF 		bl	memset
 316:C:/Users/dtjld/workspace/AIoT/src/LiteOS_Lab/iot_link/network/dtls/mbedtls/mbedtls-2.16.2/library\x509_crl.c ****     memset( &sig_params2, 0, sizeof( mbedtls_x509_buf ) );
 714              		.loc 1 316 0
 715 0036 07F11C03 		add	r3, r7, #28
 716 003a 0C22     		movs	r2, #12
ARM GAS  C:\Users\dtjld\AppData\Local\Temp\ccJIykE0.s 			page 19


 717 003c 0021     		movs	r1, #0
 718 003e 1846     		mov	r0, r3
 719 0040 FFF7FEFF 		bl	memset
 317:C:/Users/dtjld/workspace/AIoT/src/LiteOS_Lab/iot_link/network/dtls/mbedtls/mbedtls-2.16.2/library\x509_crl.c ****     memset( &sig_oid2, 0, sizeof( mbedtls_x509_buf ) );
 720              		.loc 1 317 0
 721 0044 07F11003 		add	r3, r7, #16
 722 0048 0C22     		movs	r2, #12
 723 004a 0021     		movs	r1, #0
 724 004c 1846     		mov	r0, r3
 725 004e FFF7FEFF 		bl	memset
 318:C:/Users/dtjld/workspace/AIoT/src/LiteOS_Lab/iot_link/network/dtls/mbedtls/mbedtls-2.16.2/library\x509_crl.c **** 
 319:C:/Users/dtjld/workspace/AIoT/src/LiteOS_Lab/iot_link/network/dtls/mbedtls/mbedtls-2.16.2/library\x509_crl.c ****     /*
 320:C:/Users/dtjld/workspace/AIoT/src/LiteOS_Lab/iot_link/network/dtls/mbedtls/mbedtls-2.16.2/library\x509_crl.c ****      * Add new CRL on the end of the chain if needed.
 321:C:/Users/dtjld/workspace/AIoT/src/LiteOS_Lab/iot_link/network/dtls/mbedtls/mbedtls-2.16.2/library\x509_crl.c ****      */
 322:C:/Users/dtjld/workspace/AIoT/src/LiteOS_Lab/iot_link/network/dtls/mbedtls/mbedtls-2.16.2/library\x509_crl.c ****     while( crl->version != 0 && crl->next != NULL )
 726              		.loc 1 322 0
 727 0052 03E0     		b	.L55
 728              	.L57:
 323:C:/Users/dtjld/workspace/AIoT/src/LiteOS_Lab/iot_link/network/dtls/mbedtls/mbedtls-2.16.2/library\x509_crl.c ****         crl = crl->next;
 729              		.loc 1 323 0
 730 0054 3B6C     		ldr	r3, [r7, #64]
 731 0056 D3F8F030 		ldr	r3, [r3, #240]
 732 005a 3B64     		str	r3, [r7, #64]
 733              	.L55:
 322:C:/Users/dtjld/workspace/AIoT/src/LiteOS_Lab/iot_link/network/dtls/mbedtls/mbedtls-2.16.2/library\x509_crl.c ****         crl = crl->next;
 734              		.loc 1 322 0
 735 005c 3B6C     		ldr	r3, [r7, #64]
 736 005e 9B69     		ldr	r3, [r3, #24]
 737 0060 002B     		cmp	r3, #0
 738 0062 04D0     		beq	.L56
 322:C:/Users/dtjld/workspace/AIoT/src/LiteOS_Lab/iot_link/network/dtls/mbedtls/mbedtls-2.16.2/library\x509_crl.c ****         crl = crl->next;
 739              		.loc 1 322 0 is_stmt 0 discriminator 1
 740 0064 3B6C     		ldr	r3, [r7, #64]
 741 0066 D3F8F030 		ldr	r3, [r3, #240]
 742 006a 002B     		cmp	r3, #0
 743 006c F2D1     		bne	.L57
 744              	.L56:
 324:C:/Users/dtjld/workspace/AIoT/src/LiteOS_Lab/iot_link/network/dtls/mbedtls/mbedtls-2.16.2/library\x509_crl.c **** 
 325:C:/Users/dtjld/workspace/AIoT/src/LiteOS_Lab/iot_link/network/dtls/mbedtls/mbedtls-2.16.2/library\x509_crl.c ****     if( crl->version != 0 && crl->next == NULL )
 745              		.loc 1 325 0 is_stmt 1
 746 006e 3B6C     		ldr	r3, [r7, #64]
 747 0070 9B69     		ldr	r3, [r3, #24]
 748 0072 002B     		cmp	r3, #0
 749 0074 20D0     		beq	.L58
 750              		.loc 1 325 0 is_stmt 0 discriminator 1
 751 0076 3B6C     		ldr	r3, [r7, #64]
 752 0078 D3F8F030 		ldr	r3, [r3, #240]
 753 007c 002B     		cmp	r3, #0
 754 007e 1BD1     		bne	.L58
 326:C:/Users/dtjld/workspace/AIoT/src/LiteOS_Lab/iot_link/network/dtls/mbedtls/mbedtls-2.16.2/library\x509_crl.c ****     {
 327:C:/Users/dtjld/workspace/AIoT/src/LiteOS_Lab/iot_link/network/dtls/mbedtls/mbedtls-2.16.2/library\x509_crl.c ****         crl->next = mbedtls_calloc( 1, sizeof( mbedtls_x509_crl ) );
 755              		.loc 1 327 0 is_stmt 1
 756 0080 F421     		movs	r1, #244
 757 0082 0120     		movs	r0, #1
 758 0084 FFF7FEFF 		bl	mbedtls_calloc
 759 0088 0246     		mov	r2, r0
 760 008a 3B6C     		ldr	r3, [r7, #64]
ARM GAS  C:\Users\dtjld\AppData\Local\Temp\ccJIykE0.s 			page 20


 761 008c C3F8F020 		str	r2, [r3, #240]
 328:C:/Users/dtjld/workspace/AIoT/src/LiteOS_Lab/iot_link/network/dtls/mbedtls/mbedtls-2.16.2/library\x509_crl.c **** 
 329:C:/Users/dtjld/workspace/AIoT/src/LiteOS_Lab/iot_link/network/dtls/mbedtls/mbedtls-2.16.2/library\x509_crl.c ****         if( crl->next == NULL )
 762              		.loc 1 329 0
 763 0090 3B6C     		ldr	r3, [r7, #64]
 764 0092 D3F8F030 		ldr	r3, [r3, #240]
 765 0096 002B     		cmp	r3, #0
 766 0098 04D1     		bne	.L59
 330:C:/Users/dtjld/workspace/AIoT/src/LiteOS_Lab/iot_link/network/dtls/mbedtls/mbedtls-2.16.2/library\x509_crl.c ****         {
 331:C:/Users/dtjld/workspace/AIoT/src/LiteOS_Lab/iot_link/network/dtls/mbedtls/mbedtls-2.16.2/library\x509_crl.c ****             mbedtls_x509_crl_free( crl );
 767              		.loc 1 331 0
 768 009a 386C     		ldr	r0, [r7, #64]
 769 009c FFF7FEFF 		bl	mbedtls_x509_crl_free
 332:C:/Users/dtjld/workspace/AIoT/src/LiteOS_Lab/iot_link/network/dtls/mbedtls/mbedtls-2.16.2/library\x509_crl.c ****             return( MBEDTLS_ERR_X509_ALLOC_FAILED );
 770              		.loc 1 332 0
 771 00a0 8A4B     		ldr	r3, .L83+4
 772 00a2 ABE1     		b	.L82
 773              	.L59:
 333:C:/Users/dtjld/workspace/AIoT/src/LiteOS_Lab/iot_link/network/dtls/mbedtls/mbedtls-2.16.2/library\x509_crl.c ****         }
 334:C:/Users/dtjld/workspace/AIoT/src/LiteOS_Lab/iot_link/network/dtls/mbedtls/mbedtls-2.16.2/library\x509_crl.c **** 
 335:C:/Users/dtjld/workspace/AIoT/src/LiteOS_Lab/iot_link/network/dtls/mbedtls/mbedtls-2.16.2/library\x509_crl.c ****         mbedtls_x509_crl_init( crl->next );
 774              		.loc 1 335 0
 775 00a4 3B6C     		ldr	r3, [r7, #64]
 776 00a6 D3F8F030 		ldr	r3, [r3, #240]
 777 00aa 1846     		mov	r0, r3
 778 00ac FFF7FEFF 		bl	mbedtls_x509_crl_init
 336:C:/Users/dtjld/workspace/AIoT/src/LiteOS_Lab/iot_link/network/dtls/mbedtls/mbedtls-2.16.2/library\x509_crl.c ****         crl = crl->next;
 779              		.loc 1 336 0
 780 00b0 3B6C     		ldr	r3, [r7, #64]
 781 00b2 D3F8F030 		ldr	r3, [r3, #240]
 782 00b6 3B64     		str	r3, [r7, #64]
 783              	.L58:
 337:C:/Users/dtjld/workspace/AIoT/src/LiteOS_Lab/iot_link/network/dtls/mbedtls/mbedtls-2.16.2/library\x509_crl.c ****     }
 338:C:/Users/dtjld/workspace/AIoT/src/LiteOS_Lab/iot_link/network/dtls/mbedtls/mbedtls-2.16.2/library\x509_crl.c **** 
 339:C:/Users/dtjld/workspace/AIoT/src/LiteOS_Lab/iot_link/network/dtls/mbedtls/mbedtls-2.16.2/library\x509_crl.c ****     /*
 340:C:/Users/dtjld/workspace/AIoT/src/LiteOS_Lab/iot_link/network/dtls/mbedtls/mbedtls-2.16.2/library\x509_crl.c ****      * Copy raw DER-encoded CRL
 341:C:/Users/dtjld/workspace/AIoT/src/LiteOS_Lab/iot_link/network/dtls/mbedtls/mbedtls-2.16.2/library\x509_crl.c ****      */
 342:C:/Users/dtjld/workspace/AIoT/src/LiteOS_Lab/iot_link/network/dtls/mbedtls/mbedtls-2.16.2/library\x509_crl.c ****     if( buflen == 0 )
 784              		.loc 1 342 0
 785 00b8 7B68     		ldr	r3, [r7, #4]
 786 00ba 002B     		cmp	r3, #0
 787 00bc 01D1     		bne	.L60
 343:C:/Users/dtjld/workspace/AIoT/src/LiteOS_Lab/iot_link/network/dtls/mbedtls/mbedtls-2.16.2/library\x509_crl.c ****         return( MBEDTLS_ERR_X509_INVALID_FORMAT );
 788              		.loc 1 343 0
 789 00be 844B     		ldr	r3, .L83+8
 790 00c0 9CE1     		b	.L82
 791              	.L60:
 344:C:/Users/dtjld/workspace/AIoT/src/LiteOS_Lab/iot_link/network/dtls/mbedtls/mbedtls-2.16.2/library\x509_crl.c **** 
 345:C:/Users/dtjld/workspace/AIoT/src/LiteOS_Lab/iot_link/network/dtls/mbedtls/mbedtls-2.16.2/library\x509_crl.c ****     p = mbedtls_calloc( 1, buflen );
 792              		.loc 1 345 0
 793 00c2 7968     		ldr	r1, [r7, #4]
 794 00c4 0120     		movs	r0, #1
 795 00c6 FFF7FEFF 		bl	mbedtls_calloc
 796 00ca 0346     		mov	r3, r0
 797 00cc 7B63     		str	r3, [r7, #52]
 346:C:/Users/dtjld/workspace/AIoT/src/LiteOS_Lab/iot_link/network/dtls/mbedtls/mbedtls-2.16.2/library\x509_crl.c ****     if( p == NULL )
 798              		.loc 1 346 0
ARM GAS  C:\Users\dtjld\AppData\Local\Temp\ccJIykE0.s 			page 21


 799 00ce 7B6B     		ldr	r3, [r7, #52]
 800 00d0 002B     		cmp	r3, #0
 801 00d2 01D1     		bne	.L61
 347:C:/Users/dtjld/workspace/AIoT/src/LiteOS_Lab/iot_link/network/dtls/mbedtls/mbedtls-2.16.2/library\x509_crl.c ****         return( MBEDTLS_ERR_X509_ALLOC_FAILED );
 802              		.loc 1 347 0
 803 00d4 7D4B     		ldr	r3, .L83+4
 804 00d6 91E1     		b	.L82
 805              	.L61:
 348:C:/Users/dtjld/workspace/AIoT/src/LiteOS_Lab/iot_link/network/dtls/mbedtls/mbedtls-2.16.2/library\x509_crl.c **** 
 349:C:/Users/dtjld/workspace/AIoT/src/LiteOS_Lab/iot_link/network/dtls/mbedtls/mbedtls-2.16.2/library\x509_crl.c ****     memcpy( p, buf, buflen );
 806              		.loc 1 349 0
 807 00d8 7B6B     		ldr	r3, [r7, #52]
 808 00da 7A68     		ldr	r2, [r7, #4]
 809 00dc B968     		ldr	r1, [r7, #8]
 810 00de 1846     		mov	r0, r3
 811 00e0 FFF7FEFF 		bl	memcpy
 350:C:/Users/dtjld/workspace/AIoT/src/LiteOS_Lab/iot_link/network/dtls/mbedtls/mbedtls-2.16.2/library\x509_crl.c **** 
 351:C:/Users/dtjld/workspace/AIoT/src/LiteOS_Lab/iot_link/network/dtls/mbedtls/mbedtls-2.16.2/library\x509_crl.c ****     crl->raw.p = p;
 812              		.loc 1 351 0
 813 00e4 7A6B     		ldr	r2, [r7, #52]
 814 00e6 3B6C     		ldr	r3, [r7, #64]
 815 00e8 9A60     		str	r2, [r3, #8]
 352:C:/Users/dtjld/workspace/AIoT/src/LiteOS_Lab/iot_link/network/dtls/mbedtls/mbedtls-2.16.2/library\x509_crl.c ****     crl->raw.len = buflen;
 816              		.loc 1 352 0
 817 00ea 3B6C     		ldr	r3, [r7, #64]
 818 00ec 7A68     		ldr	r2, [r7, #4]
 819 00ee 5A60     		str	r2, [r3, #4]
 353:C:/Users/dtjld/workspace/AIoT/src/LiteOS_Lab/iot_link/network/dtls/mbedtls/mbedtls-2.16.2/library\x509_crl.c **** 
 354:C:/Users/dtjld/workspace/AIoT/src/LiteOS_Lab/iot_link/network/dtls/mbedtls/mbedtls-2.16.2/library\x509_crl.c ****     end = p + buflen;
 820              		.loc 1 354 0
 821 00f0 7A6B     		ldr	r2, [r7, #52]
 822 00f2 7B68     		ldr	r3, [r7, #4]
 823 00f4 1344     		add	r3, r3, r2
 824 00f6 FB63     		str	r3, [r7, #60]
 355:C:/Users/dtjld/workspace/AIoT/src/LiteOS_Lab/iot_link/network/dtls/mbedtls/mbedtls-2.16.2/library\x509_crl.c **** 
 356:C:/Users/dtjld/workspace/AIoT/src/LiteOS_Lab/iot_link/network/dtls/mbedtls/mbedtls-2.16.2/library\x509_crl.c ****     /*
 357:C:/Users/dtjld/workspace/AIoT/src/LiteOS_Lab/iot_link/network/dtls/mbedtls/mbedtls-2.16.2/library\x509_crl.c ****      * CertificateList  ::=  SEQUENCE  {
 358:C:/Users/dtjld/workspace/AIoT/src/LiteOS_Lab/iot_link/network/dtls/mbedtls/mbedtls-2.16.2/library\x509_crl.c ****      *      tbsCertList          TBSCertList,
 359:C:/Users/dtjld/workspace/AIoT/src/LiteOS_Lab/iot_link/network/dtls/mbedtls/mbedtls-2.16.2/library\x509_crl.c ****      *      signatureAlgorithm   AlgorithmIdentifier,
 360:C:/Users/dtjld/workspace/AIoT/src/LiteOS_Lab/iot_link/network/dtls/mbedtls/mbedtls-2.16.2/library\x509_crl.c ****      *      signatureValue       BIT STRING  }
 361:C:/Users/dtjld/workspace/AIoT/src/LiteOS_Lab/iot_link/network/dtls/mbedtls/mbedtls-2.16.2/library\x509_crl.c ****      */
 362:C:/Users/dtjld/workspace/AIoT/src/LiteOS_Lab/iot_link/network/dtls/mbedtls/mbedtls-2.16.2/library\x509_crl.c ****     if( ( ret = mbedtls_asn1_get_tag( &p, end, &len,
 825              		.loc 1 362 0
 826 00f8 07F13802 		add	r2, r7, #56
 827 00fc 07F13400 		add	r0, r7, #52
 828 0100 3023     		movs	r3, #48
 829 0102 F96B     		ldr	r1, [r7, #60]
 830 0104 FFF7FEFF 		bl	mbedtls_asn1_get_tag
 831 0108 7864     		str	r0, [r7, #68]
 832 010a 7B6C     		ldr	r3, [r7, #68]
 833 010c 002B     		cmp	r3, #0
 834 010e 04D0     		beq	.L62
 363:C:/Users/dtjld/workspace/AIoT/src/LiteOS_Lab/iot_link/network/dtls/mbedtls/mbedtls-2.16.2/library\x509_crl.c ****             MBEDTLS_ASN1_CONSTRUCTED | MBEDTLS_ASN1_SEQUENCE ) ) != 0 )
 364:C:/Users/dtjld/workspace/AIoT/src/LiteOS_Lab/iot_link/network/dtls/mbedtls/mbedtls-2.16.2/library\x509_crl.c ****     {
 365:C:/Users/dtjld/workspace/AIoT/src/LiteOS_Lab/iot_link/network/dtls/mbedtls/mbedtls-2.16.2/library\x509_crl.c ****         mbedtls_x509_crl_free( crl );
 835              		.loc 1 365 0
 836 0110 386C     		ldr	r0, [r7, #64]
ARM GAS  C:\Users\dtjld\AppData\Local\Temp\ccJIykE0.s 			page 22


 837 0112 FFF7FEFF 		bl	mbedtls_x509_crl_free
 366:C:/Users/dtjld/workspace/AIoT/src/LiteOS_Lab/iot_link/network/dtls/mbedtls/mbedtls-2.16.2/library\x509_crl.c ****         return( MBEDTLS_ERR_X509_INVALID_FORMAT );
 838              		.loc 1 366 0
 839 0116 6E4B     		ldr	r3, .L83+8
 840 0118 70E1     		b	.L82
 841              	.L62:
 367:C:/Users/dtjld/workspace/AIoT/src/LiteOS_Lab/iot_link/network/dtls/mbedtls/mbedtls-2.16.2/library\x509_crl.c ****     }
 368:C:/Users/dtjld/workspace/AIoT/src/LiteOS_Lab/iot_link/network/dtls/mbedtls/mbedtls-2.16.2/library\x509_crl.c **** 
 369:C:/Users/dtjld/workspace/AIoT/src/LiteOS_Lab/iot_link/network/dtls/mbedtls/mbedtls-2.16.2/library\x509_crl.c ****     if( len != (size_t) ( end - p ) )
 842              		.loc 1 369 0
 843 011a FB6B     		ldr	r3, [r7, #60]
 844 011c 7A6B     		ldr	r2, [r7, #52]
 845 011e 9B1A     		subs	r3, r3, r2
 846 0120 1A46     		mov	r2, r3
 847 0122 BB6B     		ldr	r3, [r7, #56]
 848 0124 9A42     		cmp	r2, r3
 849 0126 04D0     		beq	.L63
 370:C:/Users/dtjld/workspace/AIoT/src/LiteOS_Lab/iot_link/network/dtls/mbedtls/mbedtls-2.16.2/library\x509_crl.c ****     {
 371:C:/Users/dtjld/workspace/AIoT/src/LiteOS_Lab/iot_link/network/dtls/mbedtls/mbedtls-2.16.2/library\x509_crl.c ****         mbedtls_x509_crl_free( crl );
 850              		.loc 1 371 0
 851 0128 386C     		ldr	r0, [r7, #64]
 852 012a FFF7FEFF 		bl	mbedtls_x509_crl_free
 372:C:/Users/dtjld/workspace/AIoT/src/LiteOS_Lab/iot_link/network/dtls/mbedtls/mbedtls-2.16.2/library\x509_crl.c ****         return( MBEDTLS_ERR_X509_INVALID_FORMAT +
 853              		.loc 1 372 0
 854 012e 694B     		ldr	r3, .L83+12
 855 0130 64E1     		b	.L82
 856              	.L63:
 373:C:/Users/dtjld/workspace/AIoT/src/LiteOS_Lab/iot_link/network/dtls/mbedtls/mbedtls-2.16.2/library\x509_crl.c ****                 MBEDTLS_ERR_ASN1_LENGTH_MISMATCH );
 374:C:/Users/dtjld/workspace/AIoT/src/LiteOS_Lab/iot_link/network/dtls/mbedtls/mbedtls-2.16.2/library\x509_crl.c ****     }
 375:C:/Users/dtjld/workspace/AIoT/src/LiteOS_Lab/iot_link/network/dtls/mbedtls/mbedtls-2.16.2/library\x509_crl.c **** 
 376:C:/Users/dtjld/workspace/AIoT/src/LiteOS_Lab/iot_link/network/dtls/mbedtls/mbedtls-2.16.2/library\x509_crl.c ****     /*
 377:C:/Users/dtjld/workspace/AIoT/src/LiteOS_Lab/iot_link/network/dtls/mbedtls/mbedtls-2.16.2/library\x509_crl.c ****      * TBSCertList  ::=  SEQUENCE  {
 378:C:/Users/dtjld/workspace/AIoT/src/LiteOS_Lab/iot_link/network/dtls/mbedtls/mbedtls-2.16.2/library\x509_crl.c ****      */
 379:C:/Users/dtjld/workspace/AIoT/src/LiteOS_Lab/iot_link/network/dtls/mbedtls/mbedtls-2.16.2/library\x509_crl.c ****     crl->tbs.p = p;
 857              		.loc 1 379 0
 858 0132 7A6B     		ldr	r2, [r7, #52]
 859 0134 3B6C     		ldr	r3, [r7, #64]
 860 0136 5A61     		str	r2, [r3, #20]
 380:C:/Users/dtjld/workspace/AIoT/src/LiteOS_Lab/iot_link/network/dtls/mbedtls/mbedtls-2.16.2/library\x509_crl.c **** 
 381:C:/Users/dtjld/workspace/AIoT/src/LiteOS_Lab/iot_link/network/dtls/mbedtls/mbedtls-2.16.2/library\x509_crl.c ****     if( ( ret = mbedtls_asn1_get_tag( &p, end, &len,
 861              		.loc 1 381 0
 862 0138 07F13802 		add	r2, r7, #56
 863 013c 07F13400 		add	r0, r7, #52
 864 0140 3023     		movs	r3, #48
 865 0142 F96B     		ldr	r1, [r7, #60]
 866 0144 FFF7FEFF 		bl	mbedtls_asn1_get_tag
 867 0148 7864     		str	r0, [r7, #68]
 868 014a 7B6C     		ldr	r3, [r7, #68]
 869 014c 002B     		cmp	r3, #0
 870 014e 06D0     		beq	.L64
 382:C:/Users/dtjld/workspace/AIoT/src/LiteOS_Lab/iot_link/network/dtls/mbedtls/mbedtls-2.16.2/library\x509_crl.c ****             MBEDTLS_ASN1_CONSTRUCTED | MBEDTLS_ASN1_SEQUENCE ) ) != 0 )
 383:C:/Users/dtjld/workspace/AIoT/src/LiteOS_Lab/iot_link/network/dtls/mbedtls/mbedtls-2.16.2/library\x509_crl.c ****     {
 384:C:/Users/dtjld/workspace/AIoT/src/LiteOS_Lab/iot_link/network/dtls/mbedtls/mbedtls-2.16.2/library\x509_crl.c ****         mbedtls_x509_crl_free( crl );
 871              		.loc 1 384 0
 872 0150 386C     		ldr	r0, [r7, #64]
 873 0152 FFF7FEFF 		bl	mbedtls_x509_crl_free
 385:C:/Users/dtjld/workspace/AIoT/src/LiteOS_Lab/iot_link/network/dtls/mbedtls/mbedtls-2.16.2/library\x509_crl.c ****         return( MBEDTLS_ERR_X509_INVALID_FORMAT + ret );
ARM GAS  C:\Users\dtjld\AppData\Local\Temp\ccJIykE0.s 			page 23


 874              		.loc 1 385 0
 875 0156 7B6C     		ldr	r3, [r7, #68]
 876 0158 A3F50653 		sub	r3, r3, #8576
 877 015c 4EE1     		b	.L82
 878              	.L64:
 386:C:/Users/dtjld/workspace/AIoT/src/LiteOS_Lab/iot_link/network/dtls/mbedtls/mbedtls-2.16.2/library\x509_crl.c ****     }
 387:C:/Users/dtjld/workspace/AIoT/src/LiteOS_Lab/iot_link/network/dtls/mbedtls/mbedtls-2.16.2/library\x509_crl.c **** 
 388:C:/Users/dtjld/workspace/AIoT/src/LiteOS_Lab/iot_link/network/dtls/mbedtls/mbedtls-2.16.2/library\x509_crl.c ****     end = p + len;
 879              		.loc 1 388 0
 880 015e 7A6B     		ldr	r2, [r7, #52]
 881 0160 BB6B     		ldr	r3, [r7, #56]
 882 0162 1344     		add	r3, r3, r2
 883 0164 FB63     		str	r3, [r7, #60]
 389:C:/Users/dtjld/workspace/AIoT/src/LiteOS_Lab/iot_link/network/dtls/mbedtls/mbedtls-2.16.2/library\x509_crl.c ****     crl->tbs.len = end - crl->tbs.p;
 884              		.loc 1 389 0
 885 0166 FB6B     		ldr	r3, [r7, #60]
 886 0168 3A6C     		ldr	r2, [r7, #64]
 887 016a 5269     		ldr	r2, [r2, #20]
 888 016c 9B1A     		subs	r3, r3, r2
 889 016e 1A46     		mov	r2, r3
 890 0170 3B6C     		ldr	r3, [r7, #64]
 891 0172 1A61     		str	r2, [r3, #16]
 390:C:/Users/dtjld/workspace/AIoT/src/LiteOS_Lab/iot_link/network/dtls/mbedtls/mbedtls-2.16.2/library\x509_crl.c **** 
 391:C:/Users/dtjld/workspace/AIoT/src/LiteOS_Lab/iot_link/network/dtls/mbedtls/mbedtls-2.16.2/library\x509_crl.c ****     /*
 392:C:/Users/dtjld/workspace/AIoT/src/LiteOS_Lab/iot_link/network/dtls/mbedtls/mbedtls-2.16.2/library\x509_crl.c ****      * Version  ::=  INTEGER  OPTIONAL {  v1(0), v2(1)  }
 393:C:/Users/dtjld/workspace/AIoT/src/LiteOS_Lab/iot_link/network/dtls/mbedtls/mbedtls-2.16.2/library\x509_crl.c ****      *               -- if present, MUST be v2
 394:C:/Users/dtjld/workspace/AIoT/src/LiteOS_Lab/iot_link/network/dtls/mbedtls/mbedtls-2.16.2/library\x509_crl.c ****      *
 395:C:/Users/dtjld/workspace/AIoT/src/LiteOS_Lab/iot_link/network/dtls/mbedtls/mbedtls-2.16.2/library\x509_crl.c ****      * signature            AlgorithmIdentifier
 396:C:/Users/dtjld/workspace/AIoT/src/LiteOS_Lab/iot_link/network/dtls/mbedtls/mbedtls-2.16.2/library\x509_crl.c ****      */
 397:C:/Users/dtjld/workspace/AIoT/src/LiteOS_Lab/iot_link/network/dtls/mbedtls/mbedtls-2.16.2/library\x509_crl.c ****     if( ( ret = x509_crl_get_version( &p, end, &crl->version ) ) != 0 ||
 892              		.loc 1 397 0
 893 0174 3B6C     		ldr	r3, [r7, #64]
 894 0176 03F11802 		add	r2, r3, #24
 895 017a 07F13403 		add	r3, r7, #52
 896 017e F96B     		ldr	r1, [r7, #60]
 897 0180 1846     		mov	r0, r3
 898 0182 FFF7FEFF 		bl	x509_crl_get_version
 899 0186 7864     		str	r0, [r7, #68]
 900 0188 7B6C     		ldr	r3, [r7, #68]
 901 018a 002B     		cmp	r3, #0
 902 018c 0DD1     		bne	.L65
 398:C:/Users/dtjld/workspace/AIoT/src/LiteOS_Lab/iot_link/network/dtls/mbedtls/mbedtls-2.16.2/library\x509_crl.c ****         ( ret = mbedtls_x509_get_alg( &p, end, &crl->sig_oid, &sig_params1 ) ) != 0 )
 903              		.loc 1 398 0 discriminator 1
 904 018e 3B6C     		ldr	r3, [r7, #64]
 905 0190 03F11C02 		add	r2, r3, #28
 397:C:/Users/dtjld/workspace/AIoT/src/LiteOS_Lab/iot_link/network/dtls/mbedtls/mbedtls-2.16.2/library\x509_crl.c ****         ( ret = mbedtls_x509_get_alg( &p, end, &crl->sig_oid, &sig_params1 ) ) != 0 )
 906              		.loc 1 397 0 discriminator 1
 907 0194 07F12803 		add	r3, r7, #40
 908 0198 07F13400 		add	r0, r7, #52
 909 019c F96B     		ldr	r1, [r7, #60]
 910 019e FFF7FEFF 		bl	mbedtls_x509_get_alg
 911 01a2 7864     		str	r0, [r7, #68]
 912 01a4 7B6C     		ldr	r3, [r7, #68]
 913 01a6 002B     		cmp	r3, #0
 914 01a8 04D0     		beq	.L66
 915              	.L65:
 399:C:/Users/dtjld/workspace/AIoT/src/LiteOS_Lab/iot_link/network/dtls/mbedtls/mbedtls-2.16.2/library\x509_crl.c ****     {
ARM GAS  C:\Users\dtjld\AppData\Local\Temp\ccJIykE0.s 			page 24


 400:C:/Users/dtjld/workspace/AIoT/src/LiteOS_Lab/iot_link/network/dtls/mbedtls/mbedtls-2.16.2/library\x509_crl.c ****         mbedtls_x509_crl_free( crl );
 916              		.loc 1 400 0
 917 01aa 386C     		ldr	r0, [r7, #64]
 918 01ac FFF7FEFF 		bl	mbedtls_x509_crl_free
 401:C:/Users/dtjld/workspace/AIoT/src/LiteOS_Lab/iot_link/network/dtls/mbedtls/mbedtls-2.16.2/library\x509_crl.c ****         return( ret );
 919              		.loc 1 401 0
 920 01b0 7B6C     		ldr	r3, [r7, #68]
 921 01b2 23E1     		b	.L82
 922              	.L66:
 402:C:/Users/dtjld/workspace/AIoT/src/LiteOS_Lab/iot_link/network/dtls/mbedtls/mbedtls-2.16.2/library\x509_crl.c ****     }
 403:C:/Users/dtjld/workspace/AIoT/src/LiteOS_Lab/iot_link/network/dtls/mbedtls/mbedtls-2.16.2/library\x509_crl.c **** 
 404:C:/Users/dtjld/workspace/AIoT/src/LiteOS_Lab/iot_link/network/dtls/mbedtls/mbedtls-2.16.2/library\x509_crl.c ****     if( crl->version < 0 || crl->version > 1 )
 923              		.loc 1 404 0
 924 01b4 3B6C     		ldr	r3, [r7, #64]
 925 01b6 9B69     		ldr	r3, [r3, #24]
 926 01b8 002B     		cmp	r3, #0
 927 01ba 03DB     		blt	.L67
 928              		.loc 1 404 0 is_stmt 0 discriminator 1
 929 01bc 3B6C     		ldr	r3, [r7, #64]
 930 01be 9B69     		ldr	r3, [r3, #24]
 931 01c0 012B     		cmp	r3, #1
 932 01c2 04DD     		ble	.L68
 933              	.L67:
 405:C:/Users/dtjld/workspace/AIoT/src/LiteOS_Lab/iot_link/network/dtls/mbedtls/mbedtls-2.16.2/library\x509_crl.c ****     {
 406:C:/Users/dtjld/workspace/AIoT/src/LiteOS_Lab/iot_link/network/dtls/mbedtls/mbedtls-2.16.2/library\x509_crl.c ****         mbedtls_x509_crl_free( crl );
 934              		.loc 1 406 0 is_stmt 1
 935 01c4 386C     		ldr	r0, [r7, #64]
 936 01c6 FFF7FEFF 		bl	mbedtls_x509_crl_free
 407:C:/Users/dtjld/workspace/AIoT/src/LiteOS_Lab/iot_link/network/dtls/mbedtls/mbedtls-2.16.2/library\x509_crl.c ****         return( MBEDTLS_ERR_X509_UNKNOWN_VERSION );
 937              		.loc 1 407 0
 938 01ca 434B     		ldr	r3, .L83+16
 939 01cc 16E1     		b	.L82
 940              	.L68:
 408:C:/Users/dtjld/workspace/AIoT/src/LiteOS_Lab/iot_link/network/dtls/mbedtls/mbedtls-2.16.2/library\x509_crl.c ****     }
 409:C:/Users/dtjld/workspace/AIoT/src/LiteOS_Lab/iot_link/network/dtls/mbedtls/mbedtls-2.16.2/library\x509_crl.c **** 
 410:C:/Users/dtjld/workspace/AIoT/src/LiteOS_Lab/iot_link/network/dtls/mbedtls/mbedtls-2.16.2/library\x509_crl.c ****     crl->version++;
 941              		.loc 1 410 0
 942 01ce 3B6C     		ldr	r3, [r7, #64]
 943 01d0 9B69     		ldr	r3, [r3, #24]
 944 01d2 5A1C     		adds	r2, r3, #1
 945 01d4 3B6C     		ldr	r3, [r7, #64]
 946 01d6 9A61     		str	r2, [r3, #24]
 411:C:/Users/dtjld/workspace/AIoT/src/LiteOS_Lab/iot_link/network/dtls/mbedtls/mbedtls-2.16.2/library\x509_crl.c **** 
 412:C:/Users/dtjld/workspace/AIoT/src/LiteOS_Lab/iot_link/network/dtls/mbedtls/mbedtls-2.16.2/library\x509_crl.c ****     if( ( ret = mbedtls_x509_get_sig_alg( &crl->sig_oid, &sig_params1,
 947              		.loc 1 412 0
 948 01d8 3B6C     		ldr	r3, [r7, #64]
 949 01da 03F11C00 		add	r0, r3, #28
 950 01de 3B6C     		ldr	r3, [r7, #64]
 951 01e0 03F1E802 		add	r2, r3, #232
 952 01e4 3B6C     		ldr	r3, [r7, #64]
 953 01e6 03F1E904 		add	r4, r3, #233
 954 01ea 3B6C     		ldr	r3, [r7, #64]
 955 01ec EC33     		adds	r3, r3, #236
 956 01ee 07F12801 		add	r1, r7, #40
 957 01f2 0093     		str	r3, [sp]
 958 01f4 2346     		mov	r3, r4
 959 01f6 FFF7FEFF 		bl	mbedtls_x509_get_sig_alg
ARM GAS  C:\Users\dtjld\AppData\Local\Temp\ccJIykE0.s 			page 25


 960 01fa 7864     		str	r0, [r7, #68]
 961 01fc 7B6C     		ldr	r3, [r7, #68]
 962 01fe 002B     		cmp	r3, #0
 963 0200 04D0     		beq	.L69
 413:C:/Users/dtjld/workspace/AIoT/src/LiteOS_Lab/iot_link/network/dtls/mbedtls/mbedtls-2.16.2/library\x509_crl.c ****                                   &crl->sig_md, &crl->sig_pk,
 414:C:/Users/dtjld/workspace/AIoT/src/LiteOS_Lab/iot_link/network/dtls/mbedtls/mbedtls-2.16.2/library\x509_crl.c ****                                   &crl->sig_opts ) ) != 0 )
 415:C:/Users/dtjld/workspace/AIoT/src/LiteOS_Lab/iot_link/network/dtls/mbedtls/mbedtls-2.16.2/library\x509_crl.c ****     {
 416:C:/Users/dtjld/workspace/AIoT/src/LiteOS_Lab/iot_link/network/dtls/mbedtls/mbedtls-2.16.2/library\x509_crl.c ****         mbedtls_x509_crl_free( crl );
 964              		.loc 1 416 0
 965 0202 386C     		ldr	r0, [r7, #64]
 966 0204 FFF7FEFF 		bl	mbedtls_x509_crl_free
 417:C:/Users/dtjld/workspace/AIoT/src/LiteOS_Lab/iot_link/network/dtls/mbedtls/mbedtls-2.16.2/library\x509_crl.c ****         return( MBEDTLS_ERR_X509_UNKNOWN_SIG_ALG );
 967              		.loc 1 417 0
 968 0208 344B     		ldr	r3, .L83+20
 969 020a F7E0     		b	.L82
 970              	.L69:
 418:C:/Users/dtjld/workspace/AIoT/src/LiteOS_Lab/iot_link/network/dtls/mbedtls/mbedtls-2.16.2/library\x509_crl.c ****     }
 419:C:/Users/dtjld/workspace/AIoT/src/LiteOS_Lab/iot_link/network/dtls/mbedtls/mbedtls-2.16.2/library\x509_crl.c **** 
 420:C:/Users/dtjld/workspace/AIoT/src/LiteOS_Lab/iot_link/network/dtls/mbedtls/mbedtls-2.16.2/library\x509_crl.c ****     /*
 421:C:/Users/dtjld/workspace/AIoT/src/LiteOS_Lab/iot_link/network/dtls/mbedtls/mbedtls-2.16.2/library\x509_crl.c ****      * issuer               Name
 422:C:/Users/dtjld/workspace/AIoT/src/LiteOS_Lab/iot_link/network/dtls/mbedtls/mbedtls-2.16.2/library\x509_crl.c ****      */
 423:C:/Users/dtjld/workspace/AIoT/src/LiteOS_Lab/iot_link/network/dtls/mbedtls/mbedtls-2.16.2/library\x509_crl.c ****     crl->issuer_raw.p = p;
 971              		.loc 1 423 0
 972 020c 7A6B     		ldr	r2, [r7, #52]
 973 020e 3B6C     		ldr	r3, [r7, #64]
 974 0210 1A63     		str	r2, [r3, #48]
 424:C:/Users/dtjld/workspace/AIoT/src/LiteOS_Lab/iot_link/network/dtls/mbedtls/mbedtls-2.16.2/library\x509_crl.c **** 
 425:C:/Users/dtjld/workspace/AIoT/src/LiteOS_Lab/iot_link/network/dtls/mbedtls/mbedtls-2.16.2/library\x509_crl.c ****     if( ( ret = mbedtls_asn1_get_tag( &p, end, &len,
 975              		.loc 1 425 0
 976 0212 07F13802 		add	r2, r7, #56
 977 0216 07F13400 		add	r0, r7, #52
 978 021a 3023     		movs	r3, #48
 979 021c F96B     		ldr	r1, [r7, #60]
 980 021e FFF7FEFF 		bl	mbedtls_asn1_get_tag
 981 0222 7864     		str	r0, [r7, #68]
 982 0224 7B6C     		ldr	r3, [r7, #68]
 983 0226 002B     		cmp	r3, #0
 984 0228 06D0     		beq	.L70
 426:C:/Users/dtjld/workspace/AIoT/src/LiteOS_Lab/iot_link/network/dtls/mbedtls/mbedtls-2.16.2/library\x509_crl.c ****             MBEDTLS_ASN1_CONSTRUCTED | MBEDTLS_ASN1_SEQUENCE ) ) != 0 )
 427:C:/Users/dtjld/workspace/AIoT/src/LiteOS_Lab/iot_link/network/dtls/mbedtls/mbedtls-2.16.2/library\x509_crl.c ****     {
 428:C:/Users/dtjld/workspace/AIoT/src/LiteOS_Lab/iot_link/network/dtls/mbedtls/mbedtls-2.16.2/library\x509_crl.c ****         mbedtls_x509_crl_free( crl );
 985              		.loc 1 428 0
 986 022a 386C     		ldr	r0, [r7, #64]
 987 022c FFF7FEFF 		bl	mbedtls_x509_crl_free
 429:C:/Users/dtjld/workspace/AIoT/src/LiteOS_Lab/iot_link/network/dtls/mbedtls/mbedtls-2.16.2/library\x509_crl.c ****         return( MBEDTLS_ERR_X509_INVALID_FORMAT + ret );
 988              		.loc 1 429 0
 989 0230 7B6C     		ldr	r3, [r7, #68]
 990 0232 A3F50653 		sub	r3, r3, #8576
 991 0236 E1E0     		b	.L82
 992              	.L70:
 430:C:/Users/dtjld/workspace/AIoT/src/LiteOS_Lab/iot_link/network/dtls/mbedtls/mbedtls-2.16.2/library\x509_crl.c ****     }
 431:C:/Users/dtjld/workspace/AIoT/src/LiteOS_Lab/iot_link/network/dtls/mbedtls/mbedtls-2.16.2/library\x509_crl.c **** 
 432:C:/Users/dtjld/workspace/AIoT/src/LiteOS_Lab/iot_link/network/dtls/mbedtls/mbedtls-2.16.2/library\x509_crl.c ****     if( ( ret = mbedtls_x509_get_name( &p, p + len, &crl->issuer ) ) != 0 )
 993              		.loc 1 432 0
 994 0238 7A6B     		ldr	r2, [r7, #52]
 995 023a BB6B     		ldr	r3, [r7, #56]
 996 023c D118     		adds	r1, r2, r3
ARM GAS  C:\Users\dtjld\AppData\Local\Temp\ccJIykE0.s 			page 26


 997 023e 3B6C     		ldr	r3, [r7, #64]
 998 0240 03F13402 		add	r2, r3, #52
 999 0244 07F13403 		add	r3, r7, #52
 1000 0248 1846     		mov	r0, r3
 1001 024a FFF7FEFF 		bl	mbedtls_x509_get_name
 1002 024e 7864     		str	r0, [r7, #68]
 1003 0250 7B6C     		ldr	r3, [r7, #68]
 1004 0252 002B     		cmp	r3, #0
 1005 0254 04D0     		beq	.L71
 433:C:/Users/dtjld/workspace/AIoT/src/LiteOS_Lab/iot_link/network/dtls/mbedtls/mbedtls-2.16.2/library\x509_crl.c ****     {
 434:C:/Users/dtjld/workspace/AIoT/src/LiteOS_Lab/iot_link/network/dtls/mbedtls/mbedtls-2.16.2/library\x509_crl.c ****         mbedtls_x509_crl_free( crl );
 1006              		.loc 1 434 0
 1007 0256 386C     		ldr	r0, [r7, #64]
 1008 0258 FFF7FEFF 		bl	mbedtls_x509_crl_free
 435:C:/Users/dtjld/workspace/AIoT/src/LiteOS_Lab/iot_link/network/dtls/mbedtls/mbedtls-2.16.2/library\x509_crl.c ****         return( ret );
 1009              		.loc 1 435 0
 1010 025c 7B6C     		ldr	r3, [r7, #68]
 1011 025e CDE0     		b	.L82
 1012              	.L71:
 436:C:/Users/dtjld/workspace/AIoT/src/LiteOS_Lab/iot_link/network/dtls/mbedtls/mbedtls-2.16.2/library\x509_crl.c ****     }
 437:C:/Users/dtjld/workspace/AIoT/src/LiteOS_Lab/iot_link/network/dtls/mbedtls/mbedtls-2.16.2/library\x509_crl.c **** 
 438:C:/Users/dtjld/workspace/AIoT/src/LiteOS_Lab/iot_link/network/dtls/mbedtls/mbedtls-2.16.2/library\x509_crl.c ****     crl->issuer_raw.len = p - crl->issuer_raw.p;
 1013              		.loc 1 438 0
 1014 0260 7B6B     		ldr	r3, [r7, #52]
 1015 0262 1A46     		mov	r2, r3
 1016 0264 3B6C     		ldr	r3, [r7, #64]
 1017 0266 1B6B     		ldr	r3, [r3, #48]
 1018 0268 D31A     		subs	r3, r2, r3
 1019 026a 1A46     		mov	r2, r3
 1020 026c 3B6C     		ldr	r3, [r7, #64]
 1021 026e DA62     		str	r2, [r3, #44]
 439:C:/Users/dtjld/workspace/AIoT/src/LiteOS_Lab/iot_link/network/dtls/mbedtls/mbedtls-2.16.2/library\x509_crl.c **** 
 440:C:/Users/dtjld/workspace/AIoT/src/LiteOS_Lab/iot_link/network/dtls/mbedtls/mbedtls-2.16.2/library\x509_crl.c ****     /*
 441:C:/Users/dtjld/workspace/AIoT/src/LiteOS_Lab/iot_link/network/dtls/mbedtls/mbedtls-2.16.2/library\x509_crl.c ****      * thisUpdate          Time
 442:C:/Users/dtjld/workspace/AIoT/src/LiteOS_Lab/iot_link/network/dtls/mbedtls/mbedtls-2.16.2/library\x509_crl.c ****      * nextUpdate          Time OPTIONAL
 443:C:/Users/dtjld/workspace/AIoT/src/LiteOS_Lab/iot_link/network/dtls/mbedtls/mbedtls-2.16.2/library\x509_crl.c ****      */
 444:C:/Users/dtjld/workspace/AIoT/src/LiteOS_Lab/iot_link/network/dtls/mbedtls/mbedtls-2.16.2/library\x509_crl.c ****     if( ( ret = mbedtls_x509_get_time( &p, end, &crl->this_update ) ) != 0 )
 1022              		.loc 1 444 0
 1023 0270 3B6C     		ldr	r3, [r7, #64]
 1024 0272 03F15402 		add	r2, r3, #84
 1025 0276 07F13403 		add	r3, r7, #52
 1026 027a F96B     		ldr	r1, [r7, #60]
 1027 027c 1846     		mov	r0, r3
 1028 027e FFF7FEFF 		bl	mbedtls_x509_get_time
 1029 0282 7864     		str	r0, [r7, #68]
 1030 0284 7B6C     		ldr	r3, [r7, #68]
 1031 0286 002B     		cmp	r3, #0
 1032 0288 04D0     		beq	.L72
 445:C:/Users/dtjld/workspace/AIoT/src/LiteOS_Lab/iot_link/network/dtls/mbedtls/mbedtls-2.16.2/library\x509_crl.c ****     {
 446:C:/Users/dtjld/workspace/AIoT/src/LiteOS_Lab/iot_link/network/dtls/mbedtls/mbedtls-2.16.2/library\x509_crl.c ****         mbedtls_x509_crl_free( crl );
 1033              		.loc 1 446 0
 1034 028a 386C     		ldr	r0, [r7, #64]
 1035 028c FFF7FEFF 		bl	mbedtls_x509_crl_free
 447:C:/Users/dtjld/workspace/AIoT/src/LiteOS_Lab/iot_link/network/dtls/mbedtls/mbedtls-2.16.2/library\x509_crl.c ****         return( ret );
 1036              		.loc 1 447 0
 1037 0290 7B6C     		ldr	r3, [r7, #68]
 1038 0292 B3E0     		b	.L82
ARM GAS  C:\Users\dtjld\AppData\Local\Temp\ccJIykE0.s 			page 27


 1039              	.L72:
 448:C:/Users/dtjld/workspace/AIoT/src/LiteOS_Lab/iot_link/network/dtls/mbedtls/mbedtls-2.16.2/library\x509_crl.c ****     }
 449:C:/Users/dtjld/workspace/AIoT/src/LiteOS_Lab/iot_link/network/dtls/mbedtls/mbedtls-2.16.2/library\x509_crl.c **** 
 450:C:/Users/dtjld/workspace/AIoT/src/LiteOS_Lab/iot_link/network/dtls/mbedtls/mbedtls-2.16.2/library\x509_crl.c ****     if( ( ret = mbedtls_x509_get_time( &p, end, &crl->next_update ) ) != 0 )
 1040              		.loc 1 450 0
 1041 0294 3B6C     		ldr	r3, [r7, #64]
 1042 0296 03F16C02 		add	r2, r3, #108
 1043 029a 07F13403 		add	r3, r7, #52
 1044 029e F96B     		ldr	r1, [r7, #60]
 1045 02a0 1846     		mov	r0, r3
 1046 02a2 FFF7FEFF 		bl	mbedtls_x509_get_time
 1047 02a6 7864     		str	r0, [r7, #68]
 1048 02a8 7B6C     		ldr	r3, [r7, #68]
 1049 02aa 002B     		cmp	r3, #0
 1050 02ac 1CD0     		beq	.L73
 451:C:/Users/dtjld/workspace/AIoT/src/LiteOS_Lab/iot_link/network/dtls/mbedtls/mbedtls-2.16.2/library\x509_crl.c ****     {
 452:C:/Users/dtjld/workspace/AIoT/src/LiteOS_Lab/iot_link/network/dtls/mbedtls/mbedtls-2.16.2/library\x509_crl.c ****         if( ret != ( MBEDTLS_ERR_X509_INVALID_DATE +
 1051              		.loc 1 452 0
 1052 02ae 7B6C     		ldr	r3, [r7, #68]
 1053 02b0 0B4A     		ldr	r2, .L83+24
 1054 02b2 9342     		cmp	r3, r2
 1055 02b4 18D0     		beq	.L73
 453:C:/Users/dtjld/workspace/AIoT/src/LiteOS_Lab/iot_link/network/dtls/mbedtls/mbedtls-2.16.2/library\x509_crl.c ****                         MBEDTLS_ERR_ASN1_UNEXPECTED_TAG ) &&
 1056              		.loc 1 453 0
 1057 02b6 7B6C     		ldr	r3, [r7, #68]
 1058 02b8 0A4A     		ldr	r2, .L83+28
 1059 02ba 9342     		cmp	r3, r2
 1060 02bc 14D0     		beq	.L73
 454:C:/Users/dtjld/workspace/AIoT/src/LiteOS_Lab/iot_link/network/dtls/mbedtls/mbedtls-2.16.2/library\x509_crl.c ****             ret != ( MBEDTLS_ERR_X509_INVALID_DATE +
 455:C:/Users/dtjld/workspace/AIoT/src/LiteOS_Lab/iot_link/network/dtls/mbedtls/mbedtls-2.16.2/library\x509_crl.c ****                         MBEDTLS_ERR_ASN1_OUT_OF_DATA ) )
 456:C:/Users/dtjld/workspace/AIoT/src/LiteOS_Lab/iot_link/network/dtls/mbedtls/mbedtls-2.16.2/library\x509_crl.c ****         {
 457:C:/Users/dtjld/workspace/AIoT/src/LiteOS_Lab/iot_link/network/dtls/mbedtls/mbedtls-2.16.2/library\x509_crl.c ****             mbedtls_x509_crl_free( crl );
 1061              		.loc 1 457 0
 1062 02be 386C     		ldr	r0, [r7, #64]
 1063 02c0 FFF7FEFF 		bl	mbedtls_x509_crl_free
 458:C:/Users/dtjld/workspace/AIoT/src/LiteOS_Lab/iot_link/network/dtls/mbedtls/mbedtls-2.16.2/library\x509_crl.c ****             return( ret );
 1064              		.loc 1 458 0
 1065 02c4 7B6C     		ldr	r3, [r7, #68]
 1066 02c6 99E0     		b	.L82
 1067              	.L84:
 1068              		.align	2
 1069              	.L83:
 1070 02c8 00D8FFFF 		.word	-10240
 1071 02cc 80D7FFFF 		.word	-10368
 1072 02d0 80DEFFFF 		.word	-8576
 1073 02d4 1ADEFFFF 		.word	-8678
 1074 02d8 80DAFFFF 		.word	-9600
 1075 02dc 00DAFFFF 		.word	-9728
 1076 02e0 9EDBFFFF 		.word	-9314
 1077 02e4 A0DBFFFF 		.word	-9312
 1078              	.L73:
 459:C:/Users/dtjld/workspace/AIoT/src/LiteOS_Lab/iot_link/network/dtls/mbedtls/mbedtls-2.16.2/library\x509_crl.c ****         }
 460:C:/Users/dtjld/workspace/AIoT/src/LiteOS_Lab/iot_link/network/dtls/mbedtls/mbedtls-2.16.2/library\x509_crl.c ****     }
 461:C:/Users/dtjld/workspace/AIoT/src/LiteOS_Lab/iot_link/network/dtls/mbedtls/mbedtls-2.16.2/library\x509_crl.c **** 
 462:C:/Users/dtjld/workspace/AIoT/src/LiteOS_Lab/iot_link/network/dtls/mbedtls/mbedtls-2.16.2/library\x509_crl.c ****     /*
 463:C:/Users/dtjld/workspace/AIoT/src/LiteOS_Lab/iot_link/network/dtls/mbedtls/mbedtls-2.16.2/library\x509_crl.c ****      * revokedCertificates    SEQUENCE OF SEQUENCE   {
 464:C:/Users/dtjld/workspace/AIoT/src/LiteOS_Lab/iot_link/network/dtls/mbedtls/mbedtls-2.16.2/library\x509_crl.c ****      *      userCertificate        CertificateSerialNumber,
ARM GAS  C:\Users\dtjld\AppData\Local\Temp\ccJIykE0.s 			page 28


 465:C:/Users/dtjld/workspace/AIoT/src/LiteOS_Lab/iot_link/network/dtls/mbedtls/mbedtls-2.16.2/library\x509_crl.c ****      *      revocationDate         Time,
 466:C:/Users/dtjld/workspace/AIoT/src/LiteOS_Lab/iot_link/network/dtls/mbedtls/mbedtls-2.16.2/library\x509_crl.c ****      *      crlEntryExtensions     Extensions OPTIONAL
 467:C:/Users/dtjld/workspace/AIoT/src/LiteOS_Lab/iot_link/network/dtls/mbedtls/mbedtls-2.16.2/library\x509_crl.c ****      *                                   -- if present, MUST be v2
 468:C:/Users/dtjld/workspace/AIoT/src/LiteOS_Lab/iot_link/network/dtls/mbedtls/mbedtls-2.16.2/library\x509_crl.c ****      *                        } OPTIONAL
 469:C:/Users/dtjld/workspace/AIoT/src/LiteOS_Lab/iot_link/network/dtls/mbedtls/mbedtls-2.16.2/library\x509_crl.c ****      */
 470:C:/Users/dtjld/workspace/AIoT/src/LiteOS_Lab/iot_link/network/dtls/mbedtls/mbedtls-2.16.2/library\x509_crl.c ****     if( ( ret = x509_get_entries( &p, end, &crl->entry ) ) != 0 )
 1079              		.loc 1 470 0
 1080 02e8 3B6C     		ldr	r3, [r7, #64]
 1081 02ea 03F18402 		add	r2, r3, #132
 1082 02ee 07F13403 		add	r3, r7, #52
 1083 02f2 F96B     		ldr	r1, [r7, #60]
 1084 02f4 1846     		mov	r0, r3
 1085 02f6 FFF7FEFF 		bl	x509_get_entries
 1086 02fa 7864     		str	r0, [r7, #68]
 1087 02fc 7B6C     		ldr	r3, [r7, #68]
 1088 02fe 002B     		cmp	r3, #0
 1089 0300 04D0     		beq	.L74
 471:C:/Users/dtjld/workspace/AIoT/src/LiteOS_Lab/iot_link/network/dtls/mbedtls/mbedtls-2.16.2/library\x509_crl.c ****     {
 472:C:/Users/dtjld/workspace/AIoT/src/LiteOS_Lab/iot_link/network/dtls/mbedtls/mbedtls-2.16.2/library\x509_crl.c ****         mbedtls_x509_crl_free( crl );
 1090              		.loc 1 472 0
 1091 0302 386C     		ldr	r0, [r7, #64]
 1092 0304 FFF7FEFF 		bl	mbedtls_x509_crl_free
 473:C:/Users/dtjld/workspace/AIoT/src/LiteOS_Lab/iot_link/network/dtls/mbedtls/mbedtls-2.16.2/library\x509_crl.c ****         return( ret );
 1093              		.loc 1 473 0
 1094 0308 7B6C     		ldr	r3, [r7, #68]
 1095 030a 77E0     		b	.L82
 1096              	.L74:
 474:C:/Users/dtjld/workspace/AIoT/src/LiteOS_Lab/iot_link/network/dtls/mbedtls/mbedtls-2.16.2/library\x509_crl.c ****     }
 475:C:/Users/dtjld/workspace/AIoT/src/LiteOS_Lab/iot_link/network/dtls/mbedtls/mbedtls-2.16.2/library\x509_crl.c **** 
 476:C:/Users/dtjld/workspace/AIoT/src/LiteOS_Lab/iot_link/network/dtls/mbedtls/mbedtls-2.16.2/library\x509_crl.c ****     /*
 477:C:/Users/dtjld/workspace/AIoT/src/LiteOS_Lab/iot_link/network/dtls/mbedtls/mbedtls-2.16.2/library\x509_crl.c ****      * crlExtensions          EXPLICIT Extensions OPTIONAL
 478:C:/Users/dtjld/workspace/AIoT/src/LiteOS_Lab/iot_link/network/dtls/mbedtls/mbedtls-2.16.2/library\x509_crl.c ****      *                              -- if present, MUST be v2
 479:C:/Users/dtjld/workspace/AIoT/src/LiteOS_Lab/iot_link/network/dtls/mbedtls/mbedtls-2.16.2/library\x509_crl.c ****      */
 480:C:/Users/dtjld/workspace/AIoT/src/LiteOS_Lab/iot_link/network/dtls/mbedtls/mbedtls-2.16.2/library\x509_crl.c ****     if( crl->version == 2 )
 1097              		.loc 1 480 0
 1098 030c 3B6C     		ldr	r3, [r7, #64]
 1099 030e 9B69     		ldr	r3, [r3, #24]
 1100 0310 022B     		cmp	r3, #2
 1101 0312 11D1     		bne	.L75
 481:C:/Users/dtjld/workspace/AIoT/src/LiteOS_Lab/iot_link/network/dtls/mbedtls/mbedtls-2.16.2/library\x509_crl.c ****     {
 482:C:/Users/dtjld/workspace/AIoT/src/LiteOS_Lab/iot_link/network/dtls/mbedtls/mbedtls-2.16.2/library\x509_crl.c ****         ret = x509_get_crl_ext( &p, end, &crl->crl_ext );
 1102              		.loc 1 482 0
 1103 0314 3B6C     		ldr	r3, [r7, #64]
 1104 0316 03F1C402 		add	r2, r3, #196
 1105 031a 07F13403 		add	r3, r7, #52
 1106 031e F96B     		ldr	r1, [r7, #60]
 1107 0320 1846     		mov	r0, r3
 1108 0322 FFF7FEFF 		bl	x509_get_crl_ext
 1109 0326 7864     		str	r0, [r7, #68]
 483:C:/Users/dtjld/workspace/AIoT/src/LiteOS_Lab/iot_link/network/dtls/mbedtls/mbedtls-2.16.2/library\x509_crl.c **** 
 484:C:/Users/dtjld/workspace/AIoT/src/LiteOS_Lab/iot_link/network/dtls/mbedtls/mbedtls-2.16.2/library\x509_crl.c ****         if( ret != 0 )
 1110              		.loc 1 484 0
 1111 0328 7B6C     		ldr	r3, [r7, #68]
 1112 032a 002B     		cmp	r3, #0
 1113 032c 04D0     		beq	.L75
 485:C:/Users/dtjld/workspace/AIoT/src/LiteOS_Lab/iot_link/network/dtls/mbedtls/mbedtls-2.16.2/library\x509_crl.c ****         {
 486:C:/Users/dtjld/workspace/AIoT/src/LiteOS_Lab/iot_link/network/dtls/mbedtls/mbedtls-2.16.2/library\x509_crl.c ****             mbedtls_x509_crl_free( crl );
ARM GAS  C:\Users\dtjld\AppData\Local\Temp\ccJIykE0.s 			page 29


 1114              		.loc 1 486 0
 1115 032e 386C     		ldr	r0, [r7, #64]
 1116 0330 FFF7FEFF 		bl	mbedtls_x509_crl_free
 487:C:/Users/dtjld/workspace/AIoT/src/LiteOS_Lab/iot_link/network/dtls/mbedtls/mbedtls-2.16.2/library\x509_crl.c ****             return( ret );
 1117              		.loc 1 487 0
 1118 0334 7B6C     		ldr	r3, [r7, #68]
 1119 0336 61E0     		b	.L82
 1120              	.L75:
 488:C:/Users/dtjld/workspace/AIoT/src/LiteOS_Lab/iot_link/network/dtls/mbedtls/mbedtls-2.16.2/library\x509_crl.c ****         }
 489:C:/Users/dtjld/workspace/AIoT/src/LiteOS_Lab/iot_link/network/dtls/mbedtls/mbedtls-2.16.2/library\x509_crl.c ****     }
 490:C:/Users/dtjld/workspace/AIoT/src/LiteOS_Lab/iot_link/network/dtls/mbedtls/mbedtls-2.16.2/library\x509_crl.c **** 
 491:C:/Users/dtjld/workspace/AIoT/src/LiteOS_Lab/iot_link/network/dtls/mbedtls/mbedtls-2.16.2/library\x509_crl.c ****     if( p != end )
 1121              		.loc 1 491 0
 1122 0338 7B6B     		ldr	r3, [r7, #52]
 1123 033a FA6B     		ldr	r2, [r7, #60]
 1124 033c 9A42     		cmp	r2, r3
 1125 033e 04D0     		beq	.L76
 492:C:/Users/dtjld/workspace/AIoT/src/LiteOS_Lab/iot_link/network/dtls/mbedtls/mbedtls-2.16.2/library\x509_crl.c ****     {
 493:C:/Users/dtjld/workspace/AIoT/src/LiteOS_Lab/iot_link/network/dtls/mbedtls/mbedtls-2.16.2/library\x509_crl.c ****         mbedtls_x509_crl_free( crl );
 1126              		.loc 1 493 0
 1127 0340 386C     		ldr	r0, [r7, #64]
 1128 0342 FFF7FEFF 		bl	mbedtls_x509_crl_free
 494:C:/Users/dtjld/workspace/AIoT/src/LiteOS_Lab/iot_link/network/dtls/mbedtls/mbedtls-2.16.2/library\x509_crl.c ****         return( MBEDTLS_ERR_X509_INVALID_FORMAT +
 1129              		.loc 1 494 0
 1130 0346 2F4B     		ldr	r3, .L85
 1131 0348 58E0     		b	.L82
 1132              	.L76:
 495:C:/Users/dtjld/workspace/AIoT/src/LiteOS_Lab/iot_link/network/dtls/mbedtls/mbedtls-2.16.2/library\x509_crl.c ****                 MBEDTLS_ERR_ASN1_LENGTH_MISMATCH );
 496:C:/Users/dtjld/workspace/AIoT/src/LiteOS_Lab/iot_link/network/dtls/mbedtls/mbedtls-2.16.2/library\x509_crl.c ****     }
 497:C:/Users/dtjld/workspace/AIoT/src/LiteOS_Lab/iot_link/network/dtls/mbedtls/mbedtls-2.16.2/library\x509_crl.c **** 
 498:C:/Users/dtjld/workspace/AIoT/src/LiteOS_Lab/iot_link/network/dtls/mbedtls/mbedtls-2.16.2/library\x509_crl.c ****     end = crl->raw.p + crl->raw.len;
 1133              		.loc 1 498 0
 1134 034a 3B6C     		ldr	r3, [r7, #64]
 1135 034c 9A68     		ldr	r2, [r3, #8]
 1136 034e 3B6C     		ldr	r3, [r7, #64]
 1137 0350 5B68     		ldr	r3, [r3, #4]
 1138 0352 1344     		add	r3, r3, r2
 1139 0354 FB63     		str	r3, [r7, #60]
 499:C:/Users/dtjld/workspace/AIoT/src/LiteOS_Lab/iot_link/network/dtls/mbedtls/mbedtls-2.16.2/library\x509_crl.c **** 
 500:C:/Users/dtjld/workspace/AIoT/src/LiteOS_Lab/iot_link/network/dtls/mbedtls/mbedtls-2.16.2/library\x509_crl.c ****     /*
 501:C:/Users/dtjld/workspace/AIoT/src/LiteOS_Lab/iot_link/network/dtls/mbedtls/mbedtls-2.16.2/library\x509_crl.c ****      *  signatureAlgorithm   AlgorithmIdentifier,
 502:C:/Users/dtjld/workspace/AIoT/src/LiteOS_Lab/iot_link/network/dtls/mbedtls/mbedtls-2.16.2/library\x509_crl.c ****      *  signatureValue       BIT STRING
 503:C:/Users/dtjld/workspace/AIoT/src/LiteOS_Lab/iot_link/network/dtls/mbedtls/mbedtls-2.16.2/library\x509_crl.c ****      */
 504:C:/Users/dtjld/workspace/AIoT/src/LiteOS_Lab/iot_link/network/dtls/mbedtls/mbedtls-2.16.2/library\x509_crl.c ****     if( ( ret = mbedtls_x509_get_alg( &p, end, &sig_oid2, &sig_params2 ) ) != 0 )
 1140              		.loc 1 504 0
 1141 0356 07F11C03 		add	r3, r7, #28
 1142 035a 07F11002 		add	r2, r7, #16
 1143 035e 07F13400 		add	r0, r7, #52
 1144 0362 F96B     		ldr	r1, [r7, #60]
 1145 0364 FFF7FEFF 		bl	mbedtls_x509_get_alg
 1146 0368 7864     		str	r0, [r7, #68]
 1147 036a 7B6C     		ldr	r3, [r7, #68]
 1148 036c 002B     		cmp	r3, #0
 1149 036e 04D0     		beq	.L77
 505:C:/Users/dtjld/workspace/AIoT/src/LiteOS_Lab/iot_link/network/dtls/mbedtls/mbedtls-2.16.2/library\x509_crl.c ****     {
 506:C:/Users/dtjld/workspace/AIoT/src/LiteOS_Lab/iot_link/network/dtls/mbedtls/mbedtls-2.16.2/library\x509_crl.c ****         mbedtls_x509_crl_free( crl );
 1150              		.loc 1 506 0
ARM GAS  C:\Users\dtjld\AppData\Local\Temp\ccJIykE0.s 			page 30


 1151 0370 386C     		ldr	r0, [r7, #64]
 1152 0372 FFF7FEFF 		bl	mbedtls_x509_crl_free
 507:C:/Users/dtjld/workspace/AIoT/src/LiteOS_Lab/iot_link/network/dtls/mbedtls/mbedtls-2.16.2/library\x509_crl.c ****         return( ret );
 1153              		.loc 1 507 0
 1154 0376 7B6C     		ldr	r3, [r7, #68]
 1155 0378 40E0     		b	.L82
 1156              	.L77:
 508:C:/Users/dtjld/workspace/AIoT/src/LiteOS_Lab/iot_link/network/dtls/mbedtls/mbedtls-2.16.2/library\x509_crl.c ****     }
 509:C:/Users/dtjld/workspace/AIoT/src/LiteOS_Lab/iot_link/network/dtls/mbedtls/mbedtls-2.16.2/library\x509_crl.c **** 
 510:C:/Users/dtjld/workspace/AIoT/src/LiteOS_Lab/iot_link/network/dtls/mbedtls/mbedtls-2.16.2/library\x509_crl.c ****     if( crl->sig_oid.len != sig_oid2.len ||
 1157              		.loc 1 510 0
 1158 037a 3B6C     		ldr	r3, [r7, #64]
 1159 037c 1A6A     		ldr	r2, [r3, #32]
 1160 037e 7B69     		ldr	r3, [r7, #20]
 1161 0380 9A42     		cmp	r2, r3
 1162 0382 1AD1     		bne	.L78
 511:C:/Users/dtjld/workspace/AIoT/src/LiteOS_Lab/iot_link/network/dtls/mbedtls/mbedtls-2.16.2/library\x509_crl.c ****         memcmp( crl->sig_oid.p, sig_oid2.p, crl->sig_oid.len ) != 0 ||
 1163              		.loc 1 511 0 discriminator 1
 1164 0384 3B6C     		ldr	r3, [r7, #64]
 1165 0386 586A     		ldr	r0, [r3, #36]
 1166 0388 B969     		ldr	r1, [r7, #24]
 1167 038a 3B6C     		ldr	r3, [r7, #64]
 1168 038c 1B6A     		ldr	r3, [r3, #32]
 1169 038e 1A46     		mov	r2, r3
 1170 0390 FFF7FEFF 		bl	memcmp
 1171 0394 0346     		mov	r3, r0
 510:C:/Users/dtjld/workspace/AIoT/src/LiteOS_Lab/iot_link/network/dtls/mbedtls/mbedtls-2.16.2/library\x509_crl.c ****         memcmp( crl->sig_oid.p, sig_oid2.p, crl->sig_oid.len ) != 0 ||
 1172              		.loc 1 510 0 discriminator 1
 1173 0396 002B     		cmp	r3, #0
 1174 0398 0FD1     		bne	.L78
 512:C:/Users/dtjld/workspace/AIoT/src/LiteOS_Lab/iot_link/network/dtls/mbedtls/mbedtls-2.16.2/library\x509_crl.c ****         sig_params1.len != sig_params2.len ||
 1175              		.loc 1 512 0
 1176 039a FA6A     		ldr	r2, [r7, #44]
 1177 039c 3B6A     		ldr	r3, [r7, #32]
 511:C:/Users/dtjld/workspace/AIoT/src/LiteOS_Lab/iot_link/network/dtls/mbedtls/mbedtls-2.16.2/library\x509_crl.c ****         memcmp( crl->sig_oid.p, sig_oid2.p, crl->sig_oid.len ) != 0 ||
 1178              		.loc 1 511 0
 1179 039e 9A42     		cmp	r2, r3
 1180 03a0 0BD1     		bne	.L78
 513:C:/Users/dtjld/workspace/AIoT/src/LiteOS_Lab/iot_link/network/dtls/mbedtls/mbedtls-2.16.2/library\x509_crl.c ****         ( sig_params1.len != 0 &&
 1181              		.loc 1 513 0
 1182 03a2 FB6A     		ldr	r3, [r7, #44]
 512:C:/Users/dtjld/workspace/AIoT/src/LiteOS_Lab/iot_link/network/dtls/mbedtls/mbedtls-2.16.2/library\x509_crl.c ****         sig_params1.len != sig_params2.len ||
 1183              		.loc 1 512 0
 1184 03a4 002B     		cmp	r3, #0
 1185 03a6 0DD0     		beq	.L79
 514:C:/Users/dtjld/workspace/AIoT/src/LiteOS_Lab/iot_link/network/dtls/mbedtls/mbedtls-2.16.2/library\x509_crl.c ****           memcmp( sig_params1.p, sig_params2.p, sig_params1.len ) != 0 ) )
 1186              		.loc 1 514 0
 1187 03a8 3B6B     		ldr	r3, [r7, #48]
 1188 03aa 796A     		ldr	r1, [r7, #36]
 1189 03ac FA6A     		ldr	r2, [r7, #44]
 1190 03ae 1846     		mov	r0, r3
 1191 03b0 FFF7FEFF 		bl	memcmp
 1192 03b4 0346     		mov	r3, r0
 513:C:/Users/dtjld/workspace/AIoT/src/LiteOS_Lab/iot_link/network/dtls/mbedtls/mbedtls-2.16.2/library\x509_crl.c ****         ( sig_params1.len != 0 &&
 1193              		.loc 1 513 0
 1194 03b6 002B     		cmp	r3, #0
 1195 03b8 04D0     		beq	.L79
ARM GAS  C:\Users\dtjld\AppData\Local\Temp\ccJIykE0.s 			page 31


 1196              	.L78:
 515:C:/Users/dtjld/workspace/AIoT/src/LiteOS_Lab/iot_link/network/dtls/mbedtls/mbedtls-2.16.2/library\x509_crl.c ****     {
 516:C:/Users/dtjld/workspace/AIoT/src/LiteOS_Lab/iot_link/network/dtls/mbedtls/mbedtls-2.16.2/library\x509_crl.c ****         mbedtls_x509_crl_free( crl );
 1197              		.loc 1 516 0
 1198 03ba 386C     		ldr	r0, [r7, #64]
 1199 03bc FFF7FEFF 		bl	mbedtls_x509_crl_free
 517:C:/Users/dtjld/workspace/AIoT/src/LiteOS_Lab/iot_link/network/dtls/mbedtls/mbedtls-2.16.2/library\x509_crl.c ****         return( MBEDTLS_ERR_X509_SIG_MISMATCH );
 1200              		.loc 1 517 0
 1201 03c0 114B     		ldr	r3, .L85+4
 1202 03c2 1BE0     		b	.L82
 1203              	.L79:
 518:C:/Users/dtjld/workspace/AIoT/src/LiteOS_Lab/iot_link/network/dtls/mbedtls/mbedtls-2.16.2/library\x509_crl.c ****     }
 519:C:/Users/dtjld/workspace/AIoT/src/LiteOS_Lab/iot_link/network/dtls/mbedtls/mbedtls-2.16.2/library\x509_crl.c **** 
 520:C:/Users/dtjld/workspace/AIoT/src/LiteOS_Lab/iot_link/network/dtls/mbedtls/mbedtls-2.16.2/library\x509_crl.c ****     if( ( ret = mbedtls_x509_get_sig( &p, end, &crl->sig ) ) != 0 )
 1204              		.loc 1 520 0
 1205 03c4 3B6C     		ldr	r3, [r7, #64]
 1206 03c6 03F1DC02 		add	r2, r3, #220
 1207 03ca 07F13403 		add	r3, r7, #52
 1208 03ce F96B     		ldr	r1, [r7, #60]
 1209 03d0 1846     		mov	r0, r3
 1210 03d2 FFF7FEFF 		bl	mbedtls_x509_get_sig
 1211 03d6 7864     		str	r0, [r7, #68]
 1212 03d8 7B6C     		ldr	r3, [r7, #68]
 1213 03da 002B     		cmp	r3, #0
 1214 03dc 04D0     		beq	.L80
 521:C:/Users/dtjld/workspace/AIoT/src/LiteOS_Lab/iot_link/network/dtls/mbedtls/mbedtls-2.16.2/library\x509_crl.c ****     {
 522:C:/Users/dtjld/workspace/AIoT/src/LiteOS_Lab/iot_link/network/dtls/mbedtls/mbedtls-2.16.2/library\x509_crl.c ****         mbedtls_x509_crl_free( crl );
 1215              		.loc 1 522 0
 1216 03de 386C     		ldr	r0, [r7, #64]
 1217 03e0 FFF7FEFF 		bl	mbedtls_x509_crl_free
 523:C:/Users/dtjld/workspace/AIoT/src/LiteOS_Lab/iot_link/network/dtls/mbedtls/mbedtls-2.16.2/library\x509_crl.c ****         return( ret );
 1218              		.loc 1 523 0
 1219 03e4 7B6C     		ldr	r3, [r7, #68]
 1220 03e6 09E0     		b	.L82
 1221              	.L80:
 524:C:/Users/dtjld/workspace/AIoT/src/LiteOS_Lab/iot_link/network/dtls/mbedtls/mbedtls-2.16.2/library\x509_crl.c ****     }
 525:C:/Users/dtjld/workspace/AIoT/src/LiteOS_Lab/iot_link/network/dtls/mbedtls/mbedtls-2.16.2/library\x509_crl.c **** 
 526:C:/Users/dtjld/workspace/AIoT/src/LiteOS_Lab/iot_link/network/dtls/mbedtls/mbedtls-2.16.2/library\x509_crl.c ****     if( p != end )
 1222              		.loc 1 526 0
 1223 03e8 7B6B     		ldr	r3, [r7, #52]
 1224 03ea FA6B     		ldr	r2, [r7, #60]
 1225 03ec 9A42     		cmp	r2, r3
 1226 03ee 04D0     		beq	.L81
 527:C:/Users/dtjld/workspace/AIoT/src/LiteOS_Lab/iot_link/network/dtls/mbedtls/mbedtls-2.16.2/library\x509_crl.c ****     {
 528:C:/Users/dtjld/workspace/AIoT/src/LiteOS_Lab/iot_link/network/dtls/mbedtls/mbedtls-2.16.2/library\x509_crl.c ****         mbedtls_x509_crl_free( crl );
 1227              		.loc 1 528 0
 1228 03f0 386C     		ldr	r0, [r7, #64]
 1229 03f2 FFF7FEFF 		bl	mbedtls_x509_crl_free
 529:C:/Users/dtjld/workspace/AIoT/src/LiteOS_Lab/iot_link/network/dtls/mbedtls/mbedtls-2.16.2/library\x509_crl.c ****         return( MBEDTLS_ERR_X509_INVALID_FORMAT +
 1230              		.loc 1 529 0
 1231 03f6 034B     		ldr	r3, .L85
 1232 03f8 00E0     		b	.L82
 1233              	.L81:
 530:C:/Users/dtjld/workspace/AIoT/src/LiteOS_Lab/iot_link/network/dtls/mbedtls/mbedtls-2.16.2/library\x509_crl.c ****                 MBEDTLS_ERR_ASN1_LENGTH_MISMATCH );
 531:C:/Users/dtjld/workspace/AIoT/src/LiteOS_Lab/iot_link/network/dtls/mbedtls/mbedtls-2.16.2/library\x509_crl.c ****     }
 532:C:/Users/dtjld/workspace/AIoT/src/LiteOS_Lab/iot_link/network/dtls/mbedtls/mbedtls-2.16.2/library\x509_crl.c **** 
 533:C:/Users/dtjld/workspace/AIoT/src/LiteOS_Lab/iot_link/network/dtls/mbedtls/mbedtls-2.16.2/library\x509_crl.c ****     return( 0 );
ARM GAS  C:\Users\dtjld\AppData\Local\Temp\ccJIykE0.s 			page 32


 1234              		.loc 1 533 0
 1235 03fa 0023     		movs	r3, #0
 1236              	.L82:
 534:C:/Users/dtjld/workspace/AIoT/src/LiteOS_Lab/iot_link/network/dtls/mbedtls/mbedtls-2.16.2/library\x509_crl.c **** }
 1237              		.loc 1 534 0 discriminator 1
 1238 03fc 1846     		mov	r0, r3
 1239 03fe 4C37     		adds	r7, r7, #76
 1240              	.LCFI23:
 1241              		.cfi_def_cfa_offset 12
 1242 0400 BD46     		mov	sp, r7
 1243              	.LCFI24:
 1244              		.cfi_def_cfa_register 13
 1245              		@ sp needed
 1246 0402 90BD     		pop	{r4, r7, pc}
 1247              	.L86:
 1248              		.align	2
 1249              	.L85:
 1250 0404 1ADEFFFF 		.word	-8678
 1251 0408 80D9FFFF 		.word	-9856
 1252              		.cfi_endproc
 1253              	.LFE17:
 1255              		.section	.rodata
 1256              		.align	2
 1257              	.LC0:
 1258 0000 2D2D2D2D 		.ascii	"-----END X509 CRL-----\000"
 1258      2D454E44 
 1258      20583530 
 1258      39204352 
 1258      4C2D2D2D 
 1259 0017 00       		.align	2
 1260              	.LC1:
 1261 0018 2D2D2D2D 		.ascii	"-----BEGIN X509 CRL-----\000"
 1261      2D424547 
 1261      494E2058 
 1261      35303920 
 1261      43524C2D 
 1262              		.section	.text.mbedtls_x509_crl_parse,"ax",%progbits
 1263              		.align	1
 1264              		.global	mbedtls_x509_crl_parse
 1265              		.syntax unified
 1266              		.thumb
 1267              		.thumb_func
 1268              		.fpu fpv4-sp-d16
 1270              	mbedtls_x509_crl_parse:
 1271              	.LFB18:
 535:C:/Users/dtjld/workspace/AIoT/src/LiteOS_Lab/iot_link/network/dtls/mbedtls/mbedtls-2.16.2/library\x509_crl.c **** 
 536:C:/Users/dtjld/workspace/AIoT/src/LiteOS_Lab/iot_link/network/dtls/mbedtls/mbedtls-2.16.2/library\x509_crl.c **** /*
 537:C:/Users/dtjld/workspace/AIoT/src/LiteOS_Lab/iot_link/network/dtls/mbedtls/mbedtls-2.16.2/library\x509_crl.c ****  * Parse one or more CRLs and add them to the chained list
 538:C:/Users/dtjld/workspace/AIoT/src/LiteOS_Lab/iot_link/network/dtls/mbedtls/mbedtls-2.16.2/library\x509_crl.c ****  */
 539:C:/Users/dtjld/workspace/AIoT/src/LiteOS_Lab/iot_link/network/dtls/mbedtls/mbedtls-2.16.2/library\x509_crl.c **** int mbedtls_x509_crl_parse( mbedtls_x509_crl *chain, const unsigned char *buf, size_t buflen )
 540:C:/Users/dtjld/workspace/AIoT/src/LiteOS_Lab/iot_link/network/dtls/mbedtls/mbedtls-2.16.2/library\x509_crl.c **** {
 1272              		.loc 1 540 0
 1273              		.cfi_startproc
 1274              		@ args = 0, pretend = 0, frame = 40
 1275              		@ frame_needed = 1, uses_anonymous_args = 0
 1276 0000 80B5     		push	{r7, lr}
 1277              	.LCFI25:
ARM GAS  C:\Users\dtjld\AppData\Local\Temp\ccJIykE0.s 			page 33


 1278              		.cfi_def_cfa_offset 8
 1279              		.cfi_offset 7, -8
 1280              		.cfi_offset 14, -4
 1281 0002 8EB0     		sub	sp, sp, #56
 1282              	.LCFI26:
 1283              		.cfi_def_cfa_offset 64
 1284 0004 04AF     		add	r7, sp, #16
 1285              	.LCFI27:
 1286              		.cfi_def_cfa 7, 48
 1287 0006 F860     		str	r0, [r7, #12]
 1288 0008 B960     		str	r1, [r7, #8]
 1289 000a 7A60     		str	r2, [r7, #4]
 541:C:/Users/dtjld/workspace/AIoT/src/LiteOS_Lab/iot_link/network/dtls/mbedtls/mbedtls-2.16.2/library\x509_crl.c **** #if defined(MBEDTLS_PEM_PARSE_C)
 542:C:/Users/dtjld/workspace/AIoT/src/LiteOS_Lab/iot_link/network/dtls/mbedtls/mbedtls-2.16.2/library\x509_crl.c ****     int ret;
 543:C:/Users/dtjld/workspace/AIoT/src/LiteOS_Lab/iot_link/network/dtls/mbedtls/mbedtls-2.16.2/library\x509_crl.c ****     size_t use_len;
 544:C:/Users/dtjld/workspace/AIoT/src/LiteOS_Lab/iot_link/network/dtls/mbedtls/mbedtls-2.16.2/library\x509_crl.c ****     mbedtls_pem_context pem;
 545:C:/Users/dtjld/workspace/AIoT/src/LiteOS_Lab/iot_link/network/dtls/mbedtls/mbedtls-2.16.2/library\x509_crl.c ****     int is_pem = 0;
 1290              		.loc 1 545 0
 1291 000c 0023     		movs	r3, #0
 1292 000e 3B62     		str	r3, [r7, #32]
 546:C:/Users/dtjld/workspace/AIoT/src/LiteOS_Lab/iot_link/network/dtls/mbedtls/mbedtls-2.16.2/library\x509_crl.c **** 
 547:C:/Users/dtjld/workspace/AIoT/src/LiteOS_Lab/iot_link/network/dtls/mbedtls/mbedtls-2.16.2/library\x509_crl.c ****     if( chain == NULL || buf == NULL )
 1293              		.loc 1 547 0
 1294 0010 FB68     		ldr	r3, [r7, #12]
 1295 0012 002B     		cmp	r3, #0
 1296 0014 02D0     		beq	.L88
 1297              		.loc 1 547 0 is_stmt 0 discriminator 1
 1298 0016 BB68     		ldr	r3, [r7, #8]
 1299 0018 002B     		cmp	r3, #0
 1300 001a 01D1     		bne	.L89
 1301              	.L88:
 548:C:/Users/dtjld/workspace/AIoT/src/LiteOS_Lab/iot_link/network/dtls/mbedtls/mbedtls-2.16.2/library\x509_crl.c ****         return( MBEDTLS_ERR_X509_BAD_INPUT_DATA );
 1302              		.loc 1 548 0 is_stmt 1
 1303 001c 324B     		ldr	r3, .L99
 1304 001e 5EE0     		b	.L98
 1305              	.L89:
 549:C:/Users/dtjld/workspace/AIoT/src/LiteOS_Lab/iot_link/network/dtls/mbedtls/mbedtls-2.16.2/library\x509_crl.c **** 
 550:C:/Users/dtjld/workspace/AIoT/src/LiteOS_Lab/iot_link/network/dtls/mbedtls/mbedtls-2.16.2/library\x509_crl.c ****     do
 551:C:/Users/dtjld/workspace/AIoT/src/LiteOS_Lab/iot_link/network/dtls/mbedtls/mbedtls-2.16.2/library\x509_crl.c ****     {
 552:C:/Users/dtjld/workspace/AIoT/src/LiteOS_Lab/iot_link/network/dtls/mbedtls/mbedtls-2.16.2/library\x509_crl.c ****         mbedtls_pem_init( &pem );
 1306              		.loc 1 552 0
 1307 0020 07F11003 		add	r3, r7, #16
 1308 0024 1846     		mov	r0, r3
 1309 0026 FFF7FEFF 		bl	mbedtls_pem_init
 553:C:/Users/dtjld/workspace/AIoT/src/LiteOS_Lab/iot_link/network/dtls/mbedtls/mbedtls-2.16.2/library\x509_crl.c **** 
 554:C:/Users/dtjld/workspace/AIoT/src/LiteOS_Lab/iot_link/network/dtls/mbedtls/mbedtls-2.16.2/library\x509_crl.c ****         // Avoid calling mbedtls_pem_read_buffer() on non-null-terminated
 555:C:/Users/dtjld/workspace/AIoT/src/LiteOS_Lab/iot_link/network/dtls/mbedtls/mbedtls-2.16.2/library\x509_crl.c ****         // string
 556:C:/Users/dtjld/workspace/AIoT/src/LiteOS_Lab/iot_link/network/dtls/mbedtls/mbedtls-2.16.2/library\x509_crl.c ****         if( buflen == 0 || buf[buflen - 1] != '\0' )
 1310              		.loc 1 556 0
 1311 002a 7B68     		ldr	r3, [r7, #4]
 1312 002c 002B     		cmp	r3, #0
 1313 002e 06D0     		beq	.L91
 1314              		.loc 1 556 0 is_stmt 0 discriminator 1
 1315 0030 7B68     		ldr	r3, [r7, #4]
 1316 0032 013B     		subs	r3, r3, #1
 1317 0034 BA68     		ldr	r2, [r7, #8]
 1318 0036 1344     		add	r3, r3, r2
ARM GAS  C:\Users\dtjld\AppData\Local\Temp\ccJIykE0.s 			page 34


 1319 0038 1B78     		ldrb	r3, [r3]	@ zero_extendqisi2
 1320 003a 002B     		cmp	r3, #0
 1321 003c 02D0     		beq	.L92
 1322              	.L91:
 557:C:/Users/dtjld/workspace/AIoT/src/LiteOS_Lab/iot_link/network/dtls/mbedtls/mbedtls-2.16.2/library\x509_crl.c ****             ret = MBEDTLS_ERR_PEM_NO_HEADER_FOOTER_PRESENT;
 1323              		.loc 1 557 0 is_stmt 1
 1324 003e 2B4B     		ldr	r3, .L99+4
 1325 0040 7B62     		str	r3, [r7, #36]
 1326 0042 0EE0     		b	.L93
 1327              	.L92:
 558:C:/Users/dtjld/workspace/AIoT/src/LiteOS_Lab/iot_link/network/dtls/mbedtls/mbedtls-2.16.2/library\x509_crl.c ****         else
 559:C:/Users/dtjld/workspace/AIoT/src/LiteOS_Lab/iot_link/network/dtls/mbedtls/mbedtls-2.16.2/library\x509_crl.c ****             ret = mbedtls_pem_read_buffer( &pem,
 1328              		.loc 1 559 0
 1329 0044 07F11000 		add	r0, r7, #16
 1330 0048 07F11C03 		add	r3, r7, #28
 1331 004c 0293     		str	r3, [sp, #8]
 1332 004e 0023     		movs	r3, #0
 1333 0050 0193     		str	r3, [sp, #4]
 1334 0052 0023     		movs	r3, #0
 1335 0054 0093     		str	r3, [sp]
 1336 0056 BB68     		ldr	r3, [r7, #8]
 1337 0058 254A     		ldr	r2, .L99+8
 1338 005a 2649     		ldr	r1, .L99+12
 1339 005c FFF7FEFF 		bl	mbedtls_pem_read_buffer
 1340 0060 7862     		str	r0, [r7, #36]
 1341              	.L93:
 560:C:/Users/dtjld/workspace/AIoT/src/LiteOS_Lab/iot_link/network/dtls/mbedtls/mbedtls-2.16.2/library\x509_crl.c ****                                            "-----BEGIN X509 CRL-----",
 561:C:/Users/dtjld/workspace/AIoT/src/LiteOS_Lab/iot_link/network/dtls/mbedtls/mbedtls-2.16.2/library\x509_crl.c ****                                            "-----END X509 CRL-----",
 562:C:/Users/dtjld/workspace/AIoT/src/LiteOS_Lab/iot_link/network/dtls/mbedtls/mbedtls-2.16.2/library\x509_crl.c ****                                             buf, NULL, 0, &use_len );
 563:C:/Users/dtjld/workspace/AIoT/src/LiteOS_Lab/iot_link/network/dtls/mbedtls/mbedtls-2.16.2/library\x509_crl.c **** 
 564:C:/Users/dtjld/workspace/AIoT/src/LiteOS_Lab/iot_link/network/dtls/mbedtls/mbedtls-2.16.2/library\x509_crl.c ****         if( ret == 0 )
 1342              		.loc 1 564 0
 1343 0062 7B6A     		ldr	r3, [r7, #36]
 1344 0064 002B     		cmp	r3, #0
 1345 0066 1AD1     		bne	.L94
 565:C:/Users/dtjld/workspace/AIoT/src/LiteOS_Lab/iot_link/network/dtls/mbedtls/mbedtls-2.16.2/library\x509_crl.c ****         {
 566:C:/Users/dtjld/workspace/AIoT/src/LiteOS_Lab/iot_link/network/dtls/mbedtls/mbedtls-2.16.2/library\x509_crl.c ****             /*
 567:C:/Users/dtjld/workspace/AIoT/src/LiteOS_Lab/iot_link/network/dtls/mbedtls/mbedtls-2.16.2/library\x509_crl.c ****              * Was PEM encoded
 568:C:/Users/dtjld/workspace/AIoT/src/LiteOS_Lab/iot_link/network/dtls/mbedtls/mbedtls-2.16.2/library\x509_crl.c ****              */
 569:C:/Users/dtjld/workspace/AIoT/src/LiteOS_Lab/iot_link/network/dtls/mbedtls/mbedtls-2.16.2/library\x509_crl.c ****             is_pem = 1;
 1346              		.loc 1 569 0
 1347 0068 0123     		movs	r3, #1
 1348 006a 3B62     		str	r3, [r7, #32]
 570:C:/Users/dtjld/workspace/AIoT/src/LiteOS_Lab/iot_link/network/dtls/mbedtls/mbedtls-2.16.2/library\x509_crl.c **** 
 571:C:/Users/dtjld/workspace/AIoT/src/LiteOS_Lab/iot_link/network/dtls/mbedtls/mbedtls-2.16.2/library\x509_crl.c ****             buflen -= use_len;
 1349              		.loc 1 571 0
 1350 006c FB69     		ldr	r3, [r7, #28]
 1351 006e 7A68     		ldr	r2, [r7, #4]
 1352 0070 D31A     		subs	r3, r2, r3
 1353 0072 7B60     		str	r3, [r7, #4]
 572:C:/Users/dtjld/workspace/AIoT/src/LiteOS_Lab/iot_link/network/dtls/mbedtls/mbedtls-2.16.2/library\x509_crl.c ****             buf += use_len;
 1354              		.loc 1 572 0
 1355 0074 FB69     		ldr	r3, [r7, #28]
 1356 0076 BA68     		ldr	r2, [r7, #8]
 1357 0078 1344     		add	r3, r3, r2
 1358 007a BB60     		str	r3, [r7, #8]
 573:C:/Users/dtjld/workspace/AIoT/src/LiteOS_Lab/iot_link/network/dtls/mbedtls/mbedtls-2.16.2/library\x509_crl.c **** 
ARM GAS  C:\Users\dtjld\AppData\Local\Temp\ccJIykE0.s 			page 35


 574:C:/Users/dtjld/workspace/AIoT/src/LiteOS_Lab/iot_link/network/dtls/mbedtls/mbedtls-2.16.2/library\x509_crl.c ****             if( ( ret = mbedtls_x509_crl_parse_der( chain,
 575:C:/Users/dtjld/workspace/AIoT/src/LiteOS_Lab/iot_link/network/dtls/mbedtls/mbedtls-2.16.2/library\x509_crl.c ****                                             pem.buf, pem.buflen ) ) != 0 )
 1359              		.loc 1 575 0
 1360 007c 3B69     		ldr	r3, [r7, #16]
 574:C:/Users/dtjld/workspace/AIoT/src/LiteOS_Lab/iot_link/network/dtls/mbedtls/mbedtls-2.16.2/library\x509_crl.c ****                                             pem.buf, pem.buflen ) ) != 0 )
 1361              		.loc 1 574 0
 1362 007e 7A69     		ldr	r2, [r7, #20]
 1363 0080 1946     		mov	r1, r3
 1364 0082 F868     		ldr	r0, [r7, #12]
 1365 0084 FFF7FEFF 		bl	mbedtls_x509_crl_parse_der
 1366 0088 7862     		str	r0, [r7, #36]
 1367 008a 7B6A     		ldr	r3, [r7, #36]
 1368 008c 002B     		cmp	r3, #0
 1369 008e 10D0     		beq	.L95
 576:C:/Users/dtjld/workspace/AIoT/src/LiteOS_Lab/iot_link/network/dtls/mbedtls/mbedtls-2.16.2/library\x509_crl.c ****             {
 577:C:/Users/dtjld/workspace/AIoT/src/LiteOS_Lab/iot_link/network/dtls/mbedtls/mbedtls-2.16.2/library\x509_crl.c ****                 mbedtls_pem_free( &pem );
 1370              		.loc 1 577 0
 1371 0090 07F11003 		add	r3, r7, #16
 1372 0094 1846     		mov	r0, r3
 1373 0096 FFF7FEFF 		bl	mbedtls_pem_free
 578:C:/Users/dtjld/workspace/AIoT/src/LiteOS_Lab/iot_link/network/dtls/mbedtls/mbedtls-2.16.2/library\x509_crl.c ****                 return( ret );
 1374              		.loc 1 578 0
 1375 009a 7B6A     		ldr	r3, [r7, #36]
 1376 009c 1FE0     		b	.L98
 1377              	.L94:
 579:C:/Users/dtjld/workspace/AIoT/src/LiteOS_Lab/iot_link/network/dtls/mbedtls/mbedtls-2.16.2/library\x509_crl.c ****             }
 580:C:/Users/dtjld/workspace/AIoT/src/LiteOS_Lab/iot_link/network/dtls/mbedtls/mbedtls-2.16.2/library\x509_crl.c ****         }
 581:C:/Users/dtjld/workspace/AIoT/src/LiteOS_Lab/iot_link/network/dtls/mbedtls/mbedtls-2.16.2/library\x509_crl.c ****         else if( is_pem )
 1378              		.loc 1 581 0
 1379 009e 3B6A     		ldr	r3, [r7, #32]
 1380 00a0 002B     		cmp	r3, #0
 1381 00a2 06D0     		beq	.L95
 582:C:/Users/dtjld/workspace/AIoT/src/LiteOS_Lab/iot_link/network/dtls/mbedtls/mbedtls-2.16.2/library\x509_crl.c ****         {
 583:C:/Users/dtjld/workspace/AIoT/src/LiteOS_Lab/iot_link/network/dtls/mbedtls/mbedtls-2.16.2/library\x509_crl.c ****             mbedtls_pem_free( &pem );
 1382              		.loc 1 583 0
 1383 00a4 07F11003 		add	r3, r7, #16
 1384 00a8 1846     		mov	r0, r3
 1385 00aa FFF7FEFF 		bl	mbedtls_pem_free
 584:C:/Users/dtjld/workspace/AIoT/src/LiteOS_Lab/iot_link/network/dtls/mbedtls/mbedtls-2.16.2/library\x509_crl.c ****             return( ret );
 1386              		.loc 1 584 0
 1387 00ae 7B6A     		ldr	r3, [r7, #36]
 1388 00b0 15E0     		b	.L98
 1389              	.L95:
 585:C:/Users/dtjld/workspace/AIoT/src/LiteOS_Lab/iot_link/network/dtls/mbedtls/mbedtls-2.16.2/library\x509_crl.c ****         }
 586:C:/Users/dtjld/workspace/AIoT/src/LiteOS_Lab/iot_link/network/dtls/mbedtls/mbedtls-2.16.2/library\x509_crl.c **** 
 587:C:/Users/dtjld/workspace/AIoT/src/LiteOS_Lab/iot_link/network/dtls/mbedtls/mbedtls-2.16.2/library\x509_crl.c ****         mbedtls_pem_free( &pem );
 1390              		.loc 1 587 0
 1391 00b2 07F11003 		add	r3, r7, #16
 1392 00b6 1846     		mov	r0, r3
 1393 00b8 FFF7FEFF 		bl	mbedtls_pem_free
 588:C:/Users/dtjld/workspace/AIoT/src/LiteOS_Lab/iot_link/network/dtls/mbedtls/mbedtls-2.16.2/library\x509_crl.c ****     }
 589:C:/Users/dtjld/workspace/AIoT/src/LiteOS_Lab/iot_link/network/dtls/mbedtls/mbedtls-2.16.2/library\x509_crl.c ****     /* In the PEM case, buflen is 1 at the end, for the terminated NULL byte.
 590:C:/Users/dtjld/workspace/AIoT/src/LiteOS_Lab/iot_link/network/dtls/mbedtls/mbedtls-2.16.2/library\x509_crl.c ****      * And a valid CRL cannot be less than 1 byte anyway. */
 591:C:/Users/dtjld/workspace/AIoT/src/LiteOS_Lab/iot_link/network/dtls/mbedtls/mbedtls-2.16.2/library\x509_crl.c ****     while( is_pem && buflen > 1 );
 1394              		.loc 1 591 0
 1395 00bc 3B6A     		ldr	r3, [r7, #32]
 1396 00be 002B     		cmp	r3, #0
ARM GAS  C:\Users\dtjld\AppData\Local\Temp\ccJIykE0.s 			page 36


 1397 00c0 02D0     		beq	.L96
 1398              		.loc 1 591 0 is_stmt 0 discriminator 1
 1399 00c2 7B68     		ldr	r3, [r7, #4]
 1400 00c4 012B     		cmp	r3, #1
 1401 00c6 ABD8     		bhi	.L89
 1402              	.L96:
 592:C:/Users/dtjld/workspace/AIoT/src/LiteOS_Lab/iot_link/network/dtls/mbedtls/mbedtls-2.16.2/library\x509_crl.c **** 
 593:C:/Users/dtjld/workspace/AIoT/src/LiteOS_Lab/iot_link/network/dtls/mbedtls/mbedtls-2.16.2/library\x509_crl.c ****     if( is_pem )
 1403              		.loc 1 593 0 is_stmt 1
 1404 00c8 3B6A     		ldr	r3, [r7, #32]
 1405 00ca 002B     		cmp	r3, #0
 1406 00cc 01D0     		beq	.L97
 594:C:/Users/dtjld/workspace/AIoT/src/LiteOS_Lab/iot_link/network/dtls/mbedtls/mbedtls-2.16.2/library\x509_crl.c ****         return( 0 );
 1407              		.loc 1 594 0
 1408 00ce 0023     		movs	r3, #0
 1409 00d0 05E0     		b	.L98
 1410              	.L97:
 595:C:/Users/dtjld/workspace/AIoT/src/LiteOS_Lab/iot_link/network/dtls/mbedtls/mbedtls-2.16.2/library\x509_crl.c ****     else
 596:C:/Users/dtjld/workspace/AIoT/src/LiteOS_Lab/iot_link/network/dtls/mbedtls/mbedtls-2.16.2/library\x509_crl.c **** #endif /* MBEDTLS_PEM_PARSE_C */
 597:C:/Users/dtjld/workspace/AIoT/src/LiteOS_Lab/iot_link/network/dtls/mbedtls/mbedtls-2.16.2/library\x509_crl.c ****         return( mbedtls_x509_crl_parse_der( chain, buf, buflen ) );
 1411              		.loc 1 597 0
 1412 00d2 7A68     		ldr	r2, [r7, #4]
 1413 00d4 B968     		ldr	r1, [r7, #8]
 1414 00d6 F868     		ldr	r0, [r7, #12]
 1415 00d8 FFF7FEFF 		bl	mbedtls_x509_crl_parse_der
 1416 00dc 0346     		mov	r3, r0
 1417              	.L98:
 598:C:/Users/dtjld/workspace/AIoT/src/LiteOS_Lab/iot_link/network/dtls/mbedtls/mbedtls-2.16.2/library\x509_crl.c **** }
 1418              		.loc 1 598 0 discriminator 1
 1419 00de 1846     		mov	r0, r3
 1420 00e0 2837     		adds	r7, r7, #40
 1421              	.LCFI28:
 1422              		.cfi_def_cfa_offset 8
 1423 00e2 BD46     		mov	sp, r7
 1424              	.LCFI29:
 1425              		.cfi_def_cfa_register 13
 1426              		@ sp needed
 1427 00e4 80BD     		pop	{r7, pc}
 1428              	.L100:
 1429 00e6 00BF     		.align	2
 1430              	.L99:
 1431 00e8 00D8FFFF 		.word	-10240
 1432 00ec 80EFFFFF 		.word	-4224
 1433 00f0 00000000 		.word	.LC0
 1434 00f4 18000000 		.word	.LC1
 1435              		.cfi_endproc
 1436              	.LFE18:
 1438              		.section	.rodata
 1439 0031 000000   		.align	2
 1440              	.LC2:
 1441 0034 25734352 		.ascii	"%sCRL version   : %d\000"
 1441      4C207665 
 1441      7273696F 
 1441      6E202020 
 1441      3A202564 
 1442 0049 000000   		.align	2
 1443              	.LC3:
ARM GAS  C:\Users\dtjld\AppData\Local\Temp\ccJIykE0.s 			page 37


 1444 004c 0A257369 		.ascii	"\012%sissuer name   : \000"
 1444      73737565 
 1444      72206E61 
 1444      6D652020 
 1444      203A2000 
 1445              		.align	2
 1446              	.LC4:
 1447 0060 0A257374 		.ascii	"\012%sthis update   : %04d-%02d-%02d %02d:%02d:%02d"
 1447      68697320 
 1447      75706461 
 1447      74652020 
 1447      203A2025 
 1448 0090 00       		.ascii	"\000"
 1449 0091 000000   		.align	2
 1450              	.LC5:
 1451 0094 0A25736E 		.ascii	"\012%snext update   : %04d-%02d-%02d %02d:%02d:%02d"
 1451      65787420 
 1451      75706461 
 1451      74652020 
 1451      203A2025 
 1452 00c4 00       		.ascii	"\000"
 1453 00c5 000000   		.align	2
 1454              	.LC6:
 1455 00c8 0A257352 		.ascii	"\012%sRevoked certificates:\000"
 1455      65766F6B 
 1455      65642063 
 1455      65727469 
 1455      66696361 
 1456 00e1 000000   		.align	2
 1457              	.LC7:
 1458 00e4 0A257373 		.ascii	"\012%sserial number: \000"
 1458      65726961 
 1458      6C206E75 
 1458      6D626572 
 1458      3A2000
 1459 00f7 00       		.align	2
 1460              	.LC8:
 1461 00f8 20726576 		.ascii	" revocation date: %04d-%02d-%02d %02d:%02d:%02d\000"
 1461      6F636174 
 1461      696F6E20 
 1461      64617465 
 1461      3A202530 
 1462              		.align	2
 1463              	.LC9:
 1464 0128 0A257373 		.ascii	"\012%ssigned using  : \000"
 1464      69676E65 
 1464      64207573 
 1464      696E6720 
 1464      203A2000 
 1465              		.align	2
 1466              	.LC10:
 1467 013c 0A00     		.ascii	"\012\000"
 1468              		.section	.text.mbedtls_x509_crl_info,"ax",%progbits
 1469              		.align	1
 1470              		.global	mbedtls_x509_crl_info
 1471              		.syntax unified
 1472              		.thumb
ARM GAS  C:\Users\dtjld\AppData\Local\Temp\ccJIykE0.s 			page 38


 1473              		.thumb_func
 1474              		.fpu fpv4-sp-d16
 1476              	mbedtls_x509_crl_info:
 1477              	.LFB19:
 599:C:/Users/dtjld/workspace/AIoT/src/LiteOS_Lab/iot_link/network/dtls/mbedtls/mbedtls-2.16.2/library\x509_crl.c **** 
 600:C:/Users/dtjld/workspace/AIoT/src/LiteOS_Lab/iot_link/network/dtls/mbedtls/mbedtls-2.16.2/library\x509_crl.c **** #if defined(MBEDTLS_FS_IO)
 601:C:/Users/dtjld/workspace/AIoT/src/LiteOS_Lab/iot_link/network/dtls/mbedtls/mbedtls-2.16.2/library\x509_crl.c **** /*
 602:C:/Users/dtjld/workspace/AIoT/src/LiteOS_Lab/iot_link/network/dtls/mbedtls/mbedtls-2.16.2/library\x509_crl.c ****  * Load one or more CRLs and add them to the chained list
 603:C:/Users/dtjld/workspace/AIoT/src/LiteOS_Lab/iot_link/network/dtls/mbedtls/mbedtls-2.16.2/library\x509_crl.c ****  */
 604:C:/Users/dtjld/workspace/AIoT/src/LiteOS_Lab/iot_link/network/dtls/mbedtls/mbedtls-2.16.2/library\x509_crl.c **** int mbedtls_x509_crl_parse_file( mbedtls_x509_crl *chain, const char *path )
 605:C:/Users/dtjld/workspace/AIoT/src/LiteOS_Lab/iot_link/network/dtls/mbedtls/mbedtls-2.16.2/library\x509_crl.c **** {
 606:C:/Users/dtjld/workspace/AIoT/src/LiteOS_Lab/iot_link/network/dtls/mbedtls/mbedtls-2.16.2/library\x509_crl.c ****     int ret;
 607:C:/Users/dtjld/workspace/AIoT/src/LiteOS_Lab/iot_link/network/dtls/mbedtls/mbedtls-2.16.2/library\x509_crl.c ****     size_t n;
 608:C:/Users/dtjld/workspace/AIoT/src/LiteOS_Lab/iot_link/network/dtls/mbedtls/mbedtls-2.16.2/library\x509_crl.c ****     unsigned char *buf;
 609:C:/Users/dtjld/workspace/AIoT/src/LiteOS_Lab/iot_link/network/dtls/mbedtls/mbedtls-2.16.2/library\x509_crl.c **** 
 610:C:/Users/dtjld/workspace/AIoT/src/LiteOS_Lab/iot_link/network/dtls/mbedtls/mbedtls-2.16.2/library\x509_crl.c ****     if( ( ret = mbedtls_pk_load_file( path, &buf, &n ) ) != 0 )
 611:C:/Users/dtjld/workspace/AIoT/src/LiteOS_Lab/iot_link/network/dtls/mbedtls/mbedtls-2.16.2/library\x509_crl.c ****         return( ret );
 612:C:/Users/dtjld/workspace/AIoT/src/LiteOS_Lab/iot_link/network/dtls/mbedtls/mbedtls-2.16.2/library\x509_crl.c **** 
 613:C:/Users/dtjld/workspace/AIoT/src/LiteOS_Lab/iot_link/network/dtls/mbedtls/mbedtls-2.16.2/library\x509_crl.c ****     ret = mbedtls_x509_crl_parse( chain, buf, n );
 614:C:/Users/dtjld/workspace/AIoT/src/LiteOS_Lab/iot_link/network/dtls/mbedtls/mbedtls-2.16.2/library\x509_crl.c **** 
 615:C:/Users/dtjld/workspace/AIoT/src/LiteOS_Lab/iot_link/network/dtls/mbedtls/mbedtls-2.16.2/library\x509_crl.c ****     mbedtls_platform_zeroize( buf, n );
 616:C:/Users/dtjld/workspace/AIoT/src/LiteOS_Lab/iot_link/network/dtls/mbedtls/mbedtls-2.16.2/library\x509_crl.c ****     mbedtls_free( buf );
 617:C:/Users/dtjld/workspace/AIoT/src/LiteOS_Lab/iot_link/network/dtls/mbedtls/mbedtls-2.16.2/library\x509_crl.c **** 
 618:C:/Users/dtjld/workspace/AIoT/src/LiteOS_Lab/iot_link/network/dtls/mbedtls/mbedtls-2.16.2/library\x509_crl.c ****     return( ret );
 619:C:/Users/dtjld/workspace/AIoT/src/LiteOS_Lab/iot_link/network/dtls/mbedtls/mbedtls-2.16.2/library\x509_crl.c **** }
 620:C:/Users/dtjld/workspace/AIoT/src/LiteOS_Lab/iot_link/network/dtls/mbedtls/mbedtls-2.16.2/library\x509_crl.c **** #endif /* MBEDTLS_FS_IO */
 621:C:/Users/dtjld/workspace/AIoT/src/LiteOS_Lab/iot_link/network/dtls/mbedtls/mbedtls-2.16.2/library\x509_crl.c **** 
 622:C:/Users/dtjld/workspace/AIoT/src/LiteOS_Lab/iot_link/network/dtls/mbedtls/mbedtls-2.16.2/library\x509_crl.c **** /*
 623:C:/Users/dtjld/workspace/AIoT/src/LiteOS_Lab/iot_link/network/dtls/mbedtls/mbedtls-2.16.2/library\x509_crl.c ****  * Return an informational string about the certificate.
 624:C:/Users/dtjld/workspace/AIoT/src/LiteOS_Lab/iot_link/network/dtls/mbedtls/mbedtls-2.16.2/library\x509_crl.c ****  */
 625:C:/Users/dtjld/workspace/AIoT/src/LiteOS_Lab/iot_link/network/dtls/mbedtls/mbedtls-2.16.2/library\x509_crl.c **** #define BEFORE_COLON    14
 626:C:/Users/dtjld/workspace/AIoT/src/LiteOS_Lab/iot_link/network/dtls/mbedtls/mbedtls-2.16.2/library\x509_crl.c **** #define BC              "14"
 627:C:/Users/dtjld/workspace/AIoT/src/LiteOS_Lab/iot_link/network/dtls/mbedtls/mbedtls-2.16.2/library\x509_crl.c **** /*
 628:C:/Users/dtjld/workspace/AIoT/src/LiteOS_Lab/iot_link/network/dtls/mbedtls/mbedtls-2.16.2/library\x509_crl.c ****  * Return an informational string about the CRL.
 629:C:/Users/dtjld/workspace/AIoT/src/LiteOS_Lab/iot_link/network/dtls/mbedtls/mbedtls-2.16.2/library\x509_crl.c ****  */
 630:C:/Users/dtjld/workspace/AIoT/src/LiteOS_Lab/iot_link/network/dtls/mbedtls/mbedtls-2.16.2/library\x509_crl.c **** int mbedtls_x509_crl_info( char *buf, size_t size, const char *prefix,
 631:C:/Users/dtjld/workspace/AIoT/src/LiteOS_Lab/iot_link/network/dtls/mbedtls/mbedtls-2.16.2/library\x509_crl.c ****                    const mbedtls_x509_crl *crl )
 632:C:/Users/dtjld/workspace/AIoT/src/LiteOS_Lab/iot_link/network/dtls/mbedtls/mbedtls-2.16.2/library\x509_crl.c **** {
 1478              		.loc 1 632 0
 1479              		.cfi_startproc
 1480              		@ args = 0, pretend = 0, frame = 32
 1481              		@ frame_needed = 1, uses_anonymous_args = 0
 1482 0000 F0B5     		push	{r4, r5, r6, r7, lr}
 1483              	.LCFI30:
 1484              		.cfi_def_cfa_offset 20
 1485              		.cfi_offset 4, -20
 1486              		.cfi_offset 5, -16
 1487              		.cfi_offset 6, -12
 1488              		.cfi_offset 7, -8
 1489              		.cfi_offset 14, -4
 1490 0002 8FB0     		sub	sp, sp, #60
 1491              	.LCFI31:
 1492              		.cfi_def_cfa_offset 80
 1493 0004 06AF     		add	r7, sp, #24
 1494              	.LCFI32:
 1495              		.cfi_def_cfa 7, 56
 1496 0006 F860     		str	r0, [r7, #12]
ARM GAS  C:\Users\dtjld\AppData\Local\Temp\ccJIykE0.s 			page 39


 1497 0008 B960     		str	r1, [r7, #8]
 1498 000a 7A60     		str	r2, [r7, #4]
 1499 000c 3B60     		str	r3, [r7]
 633:C:/Users/dtjld/workspace/AIoT/src/LiteOS_Lab/iot_link/network/dtls/mbedtls/mbedtls-2.16.2/library\x509_crl.c ****     int ret;
 634:C:/Users/dtjld/workspace/AIoT/src/LiteOS_Lab/iot_link/network/dtls/mbedtls/mbedtls-2.16.2/library\x509_crl.c ****     size_t n;
 635:C:/Users/dtjld/workspace/AIoT/src/LiteOS_Lab/iot_link/network/dtls/mbedtls/mbedtls-2.16.2/library\x509_crl.c ****     char *p;
 636:C:/Users/dtjld/workspace/AIoT/src/LiteOS_Lab/iot_link/network/dtls/mbedtls/mbedtls-2.16.2/library\x509_crl.c ****     const mbedtls_x509_crl_entry *entry;
 637:C:/Users/dtjld/workspace/AIoT/src/LiteOS_Lab/iot_link/network/dtls/mbedtls/mbedtls-2.16.2/library\x509_crl.c **** 
 638:C:/Users/dtjld/workspace/AIoT/src/LiteOS_Lab/iot_link/network/dtls/mbedtls/mbedtls-2.16.2/library\x509_crl.c ****     p = buf;
 1500              		.loc 1 638 0
 1501 000e FB68     		ldr	r3, [r7, #12]
 1502 0010 BB61     		str	r3, [r7, #24]
 639:C:/Users/dtjld/workspace/AIoT/src/LiteOS_Lab/iot_link/network/dtls/mbedtls/mbedtls-2.16.2/library\x509_crl.c ****     n = size;
 1503              		.loc 1 639 0
 1504 0012 BB68     		ldr	r3, [r7, #8]
 1505 0014 FB61     		str	r3, [r7, #28]
 640:C:/Users/dtjld/workspace/AIoT/src/LiteOS_Lab/iot_link/network/dtls/mbedtls/mbedtls-2.16.2/library\x509_crl.c **** 
 641:C:/Users/dtjld/workspace/AIoT/src/LiteOS_Lab/iot_link/network/dtls/mbedtls/mbedtls-2.16.2/library\x509_crl.c ****     ret = mbedtls_snprintf( p, n, "%sCRL version   : %d",
 1506              		.loc 1 641 0
 1507 0016 764B     		ldr	r3, .L130
 1508 0018 1C68     		ldr	r4, [r3]
 1509 001a 3B68     		ldr	r3, [r7]
 1510 001c 9B69     		ldr	r3, [r3, #24]
 1511 001e 0093     		str	r3, [sp]
 1512 0020 7B68     		ldr	r3, [r7, #4]
 1513 0022 744A     		ldr	r2, .L130+4
 1514 0024 F969     		ldr	r1, [r7, #28]
 1515 0026 B869     		ldr	r0, [r7, #24]
 1516 0028 A047     		blx	r4
 1517              	.LVL0:
 1518 002a 3861     		str	r0, [r7, #16]
 642:C:/Users/dtjld/workspace/AIoT/src/LiteOS_Lab/iot_link/network/dtls/mbedtls/mbedtls-2.16.2/library\x509_crl.c ****                                prefix, crl->version );
 643:C:/Users/dtjld/workspace/AIoT/src/LiteOS_Lab/iot_link/network/dtls/mbedtls/mbedtls-2.16.2/library\x509_crl.c ****     MBEDTLS_X509_SAFE_SNPRINTF;
 1519              		.loc 1 643 0
 1520 002c 3B69     		ldr	r3, [r7, #16]
 1521 002e 002B     		cmp	r3, #0
 1522 0030 03DB     		blt	.L102
 1523              		.loc 1 643 0 is_stmt 0 discriminator 2
 1524 0032 3B69     		ldr	r3, [r7, #16]
 1525 0034 FA69     		ldr	r2, [r7, #28]
 1526 0036 9A42     		cmp	r2, r3
 1527 0038 01D8     		bhi	.L103
 1528              	.L102:
 1529              		.loc 1 643 0 discriminator 3
 1530 003a 6F4B     		ldr	r3, .L130+8
 1531 003c 7EE1     		b	.L104
 1532              	.L103:
 1533              		.loc 1 643 0 discriminator 4
 1534 003e 3B69     		ldr	r3, [r7, #16]
 1535 0040 FA69     		ldr	r2, [r7, #28]
 1536 0042 D31A     		subs	r3, r2, r3
 1537 0044 FB61     		str	r3, [r7, #28]
 1538 0046 3B69     		ldr	r3, [r7, #16]
 1539 0048 BA69     		ldr	r2, [r7, #24]
 1540 004a 1344     		add	r3, r3, r2
 1541 004c BB61     		str	r3, [r7, #24]
 644:C:/Users/dtjld/workspace/AIoT/src/LiteOS_Lab/iot_link/network/dtls/mbedtls/mbedtls-2.16.2/library\x509_crl.c **** 
ARM GAS  C:\Users\dtjld\AppData\Local\Temp\ccJIykE0.s 			page 40


 645:C:/Users/dtjld/workspace/AIoT/src/LiteOS_Lab/iot_link/network/dtls/mbedtls/mbedtls-2.16.2/library\x509_crl.c ****     ret = mbedtls_snprintf( p, n, "\n%sissuer name   : ", prefix );
 1542              		.loc 1 645 0 is_stmt 1 discriminator 4
 1543 004e 684B     		ldr	r3, .L130
 1544 0050 1C68     		ldr	r4, [r3]
 1545 0052 7B68     		ldr	r3, [r7, #4]
 1546 0054 694A     		ldr	r2, .L130+12
 1547 0056 F969     		ldr	r1, [r7, #28]
 1548 0058 B869     		ldr	r0, [r7, #24]
 1549 005a A047     		blx	r4
 1550              	.LVL1:
 1551 005c 3861     		str	r0, [r7, #16]
 646:C:/Users/dtjld/workspace/AIoT/src/LiteOS_Lab/iot_link/network/dtls/mbedtls/mbedtls-2.16.2/library\x509_crl.c ****     MBEDTLS_X509_SAFE_SNPRINTF;
 1552              		.loc 1 646 0 discriminator 4
 1553 005e 3B69     		ldr	r3, [r7, #16]
 1554 0060 002B     		cmp	r3, #0
 1555 0062 03DB     		blt	.L105
 1556              		.loc 1 646 0 is_stmt 0 discriminator 2
 1557 0064 3B69     		ldr	r3, [r7, #16]
 1558 0066 FA69     		ldr	r2, [r7, #28]
 1559 0068 9A42     		cmp	r2, r3
 1560 006a 01D8     		bhi	.L106
 1561              	.L105:
 1562              		.loc 1 646 0 discriminator 3
 1563 006c 624B     		ldr	r3, .L130+8
 1564 006e 65E1     		b	.L104
 1565              	.L106:
 1566              		.loc 1 646 0 discriminator 4
 1567 0070 3B69     		ldr	r3, [r7, #16]
 1568 0072 FA69     		ldr	r2, [r7, #28]
 1569 0074 D31A     		subs	r3, r2, r3
 1570 0076 FB61     		str	r3, [r7, #28]
 1571 0078 3B69     		ldr	r3, [r7, #16]
 1572 007a BA69     		ldr	r2, [r7, #24]
 1573 007c 1344     		add	r3, r3, r2
 1574 007e BB61     		str	r3, [r7, #24]
 647:C:/Users/dtjld/workspace/AIoT/src/LiteOS_Lab/iot_link/network/dtls/mbedtls/mbedtls-2.16.2/library\x509_crl.c ****     ret = mbedtls_x509_dn_gets( p, n, &crl->issuer );
 1575              		.loc 1 647 0 is_stmt 1 discriminator 4
 1576 0080 3B68     		ldr	r3, [r7]
 1577 0082 3433     		adds	r3, r3, #52
 1578 0084 1A46     		mov	r2, r3
 1579 0086 F969     		ldr	r1, [r7, #28]
 1580 0088 B869     		ldr	r0, [r7, #24]
 1581 008a FFF7FEFF 		bl	mbedtls_x509_dn_gets
 1582 008e 3861     		str	r0, [r7, #16]
 648:C:/Users/dtjld/workspace/AIoT/src/LiteOS_Lab/iot_link/network/dtls/mbedtls/mbedtls-2.16.2/library\x509_crl.c ****     MBEDTLS_X509_SAFE_SNPRINTF;
 1583              		.loc 1 648 0 discriminator 4
 1584 0090 3B69     		ldr	r3, [r7, #16]
 1585 0092 002B     		cmp	r3, #0
 1586 0094 03DB     		blt	.L107
 1587              		.loc 1 648 0 is_stmt 0 discriminator 2
 1588 0096 3B69     		ldr	r3, [r7, #16]
 1589 0098 FA69     		ldr	r2, [r7, #28]
 1590 009a 9A42     		cmp	r2, r3
 1591 009c 01D8     		bhi	.L108
 1592              	.L107:
 1593              		.loc 1 648 0 discriminator 3
 1594 009e 564B     		ldr	r3, .L130+8
ARM GAS  C:\Users\dtjld\AppData\Local\Temp\ccJIykE0.s 			page 41


 1595 00a0 4CE1     		b	.L104
 1596              	.L108:
 1597              		.loc 1 648 0 discriminator 4
 1598 00a2 3B69     		ldr	r3, [r7, #16]
 1599 00a4 FA69     		ldr	r2, [r7, #28]
 1600 00a6 D31A     		subs	r3, r2, r3
 1601 00a8 FB61     		str	r3, [r7, #28]
 1602 00aa 3B69     		ldr	r3, [r7, #16]
 1603 00ac BA69     		ldr	r2, [r7, #24]
 1604 00ae 1344     		add	r3, r3, r2
 1605 00b0 BB61     		str	r3, [r7, #24]
 649:C:/Users/dtjld/workspace/AIoT/src/LiteOS_Lab/iot_link/network/dtls/mbedtls/mbedtls-2.16.2/library\x509_crl.c **** 
 650:C:/Users/dtjld/workspace/AIoT/src/LiteOS_Lab/iot_link/network/dtls/mbedtls/mbedtls-2.16.2/library\x509_crl.c ****     ret = mbedtls_snprintf( p, n, "\n%sthis update   : " \
 1606              		.loc 1 650 0 is_stmt 1 discriminator 4
 1607 00b2 4F4B     		ldr	r3, .L130
 1608 00b4 1C68     		ldr	r4, [r3]
 1609 00b6 3B68     		ldr	r3, [r7]
 1610 00b8 5B6D     		ldr	r3, [r3, #84]
 1611 00ba 3A68     		ldr	r2, [r7]
 1612 00bc 926D     		ldr	r2, [r2, #88]
 1613 00be 3968     		ldr	r1, [r7]
 1614 00c0 C96D     		ldr	r1, [r1, #92]
 1615 00c2 3868     		ldr	r0, [r7]
 1616 00c4 006E     		ldr	r0, [r0, #96]
 1617 00c6 3D68     		ldr	r5, [r7]
 1618 00c8 6D6E     		ldr	r5, [r5, #100]
 1619 00ca 3E68     		ldr	r6, [r7]
 1620 00cc B66E     		ldr	r6, [r6, #104]
 1621 00ce 0596     		str	r6, [sp, #20]
 1622 00d0 0495     		str	r5, [sp, #16]
 1623 00d2 0390     		str	r0, [sp, #12]
 1624 00d4 0291     		str	r1, [sp, #8]
 1625 00d6 0192     		str	r2, [sp, #4]
 1626 00d8 0093     		str	r3, [sp]
 1627 00da 7B68     		ldr	r3, [r7, #4]
 1628 00dc 484A     		ldr	r2, .L130+16
 1629 00de F969     		ldr	r1, [r7, #28]
 1630 00e0 B869     		ldr	r0, [r7, #24]
 1631 00e2 A047     		blx	r4
 1632              	.LVL2:
 1633 00e4 3861     		str	r0, [r7, #16]
 651:C:/Users/dtjld/workspace/AIoT/src/LiteOS_Lab/iot_link/network/dtls/mbedtls/mbedtls-2.16.2/library\x509_crl.c ****                    "%04d-%02d-%02d %02d:%02d:%02d", prefix,
 652:C:/Users/dtjld/workspace/AIoT/src/LiteOS_Lab/iot_link/network/dtls/mbedtls/mbedtls-2.16.2/library\x509_crl.c ****                    crl->this_update.year, crl->this_update.mon,
 653:C:/Users/dtjld/workspace/AIoT/src/LiteOS_Lab/iot_link/network/dtls/mbedtls/mbedtls-2.16.2/library\x509_crl.c ****                    crl->this_update.day,  crl->this_update.hour,
 654:C:/Users/dtjld/workspace/AIoT/src/LiteOS_Lab/iot_link/network/dtls/mbedtls/mbedtls-2.16.2/library\x509_crl.c ****                    crl->this_update.min,  crl->this_update.sec );
 655:C:/Users/dtjld/workspace/AIoT/src/LiteOS_Lab/iot_link/network/dtls/mbedtls/mbedtls-2.16.2/library\x509_crl.c ****     MBEDTLS_X509_SAFE_SNPRINTF;
 1634              		.loc 1 655 0 discriminator 4
 1635 00e6 3B69     		ldr	r3, [r7, #16]
 1636 00e8 002B     		cmp	r3, #0
 1637 00ea 03DB     		blt	.L109
 1638              		.loc 1 655 0 is_stmt 0 discriminator 2
 1639 00ec 3B69     		ldr	r3, [r7, #16]
 1640 00ee FA69     		ldr	r2, [r7, #28]
 1641 00f0 9A42     		cmp	r2, r3
 1642 00f2 01D8     		bhi	.L110
 1643              	.L109:
 1644              		.loc 1 655 0 discriminator 3
ARM GAS  C:\Users\dtjld\AppData\Local\Temp\ccJIykE0.s 			page 42


 1645 00f4 404B     		ldr	r3, .L130+8
 1646 00f6 21E1     		b	.L104
 1647              	.L110:
 1648              		.loc 1 655 0 discriminator 4
 1649 00f8 3B69     		ldr	r3, [r7, #16]
 1650 00fa FA69     		ldr	r2, [r7, #28]
 1651 00fc D31A     		subs	r3, r2, r3
 1652 00fe FB61     		str	r3, [r7, #28]
 1653 0100 3B69     		ldr	r3, [r7, #16]
 1654 0102 BA69     		ldr	r2, [r7, #24]
 1655 0104 1344     		add	r3, r3, r2
 1656 0106 BB61     		str	r3, [r7, #24]
 656:C:/Users/dtjld/workspace/AIoT/src/LiteOS_Lab/iot_link/network/dtls/mbedtls/mbedtls-2.16.2/library\x509_crl.c **** 
 657:C:/Users/dtjld/workspace/AIoT/src/LiteOS_Lab/iot_link/network/dtls/mbedtls/mbedtls-2.16.2/library\x509_crl.c ****     ret = mbedtls_snprintf( p, n, "\n%snext update   : " \
 1657              		.loc 1 657 0 is_stmt 1 discriminator 4
 1658 0108 394B     		ldr	r3, .L130
 1659 010a 1C68     		ldr	r4, [r3]
 1660 010c 3B68     		ldr	r3, [r7]
 1661 010e DB6E     		ldr	r3, [r3, #108]
 1662 0110 3A68     		ldr	r2, [r7]
 1663 0112 126F     		ldr	r2, [r2, #112]
 1664 0114 3968     		ldr	r1, [r7]
 1665 0116 496F     		ldr	r1, [r1, #116]
 1666 0118 3868     		ldr	r0, [r7]
 1667 011a 806F     		ldr	r0, [r0, #120]
 1668 011c 3D68     		ldr	r5, [r7]
 1669 011e ED6F     		ldr	r5, [r5, #124]
 1670 0120 3E68     		ldr	r6, [r7]
 1671 0122 D6F88060 		ldr	r6, [r6, #128]
 1672 0126 0596     		str	r6, [sp, #20]
 1673 0128 0495     		str	r5, [sp, #16]
 1674 012a 0390     		str	r0, [sp, #12]
 1675 012c 0291     		str	r1, [sp, #8]
 1676 012e 0192     		str	r2, [sp, #4]
 1677 0130 0093     		str	r3, [sp]
 1678 0132 7B68     		ldr	r3, [r7, #4]
 1679 0134 334A     		ldr	r2, .L130+20
 1680 0136 F969     		ldr	r1, [r7, #28]
 1681 0138 B869     		ldr	r0, [r7, #24]
 1682 013a A047     		blx	r4
 1683              	.LVL3:
 1684 013c 3861     		str	r0, [r7, #16]
 658:C:/Users/dtjld/workspace/AIoT/src/LiteOS_Lab/iot_link/network/dtls/mbedtls/mbedtls-2.16.2/library\x509_crl.c ****                    "%04d-%02d-%02d %02d:%02d:%02d", prefix,
 659:C:/Users/dtjld/workspace/AIoT/src/LiteOS_Lab/iot_link/network/dtls/mbedtls/mbedtls-2.16.2/library\x509_crl.c ****                    crl->next_update.year, crl->next_update.mon,
 660:C:/Users/dtjld/workspace/AIoT/src/LiteOS_Lab/iot_link/network/dtls/mbedtls/mbedtls-2.16.2/library\x509_crl.c ****                    crl->next_update.day,  crl->next_update.hour,
 661:C:/Users/dtjld/workspace/AIoT/src/LiteOS_Lab/iot_link/network/dtls/mbedtls/mbedtls-2.16.2/library\x509_crl.c ****                    crl->next_update.min,  crl->next_update.sec );
 662:C:/Users/dtjld/workspace/AIoT/src/LiteOS_Lab/iot_link/network/dtls/mbedtls/mbedtls-2.16.2/library\x509_crl.c ****     MBEDTLS_X509_SAFE_SNPRINTF;
 1685              		.loc 1 662 0 discriminator 4
 1686 013e 3B69     		ldr	r3, [r7, #16]
 1687 0140 002B     		cmp	r3, #0
 1688 0142 03DB     		blt	.L111
 1689              		.loc 1 662 0 is_stmt 0 discriminator 2
 1690 0144 3B69     		ldr	r3, [r7, #16]
 1691 0146 FA69     		ldr	r2, [r7, #28]
 1692 0148 9A42     		cmp	r2, r3
 1693 014a 01D8     		bhi	.L112
 1694              	.L111:
ARM GAS  C:\Users\dtjld\AppData\Local\Temp\ccJIykE0.s 			page 43


 1695              		.loc 1 662 0 discriminator 3
 1696 014c 2A4B     		ldr	r3, .L130+8
 1697 014e F5E0     		b	.L104
 1698              	.L112:
 1699              		.loc 1 662 0 discriminator 4
 1700 0150 3B69     		ldr	r3, [r7, #16]
 1701 0152 FA69     		ldr	r2, [r7, #28]
 1702 0154 D31A     		subs	r3, r2, r3
 1703 0156 FB61     		str	r3, [r7, #28]
 1704 0158 3B69     		ldr	r3, [r7, #16]
 1705 015a BA69     		ldr	r2, [r7, #24]
 1706 015c 1344     		add	r3, r3, r2
 1707 015e BB61     		str	r3, [r7, #24]
 663:C:/Users/dtjld/workspace/AIoT/src/LiteOS_Lab/iot_link/network/dtls/mbedtls/mbedtls-2.16.2/library\x509_crl.c **** 
 664:C:/Users/dtjld/workspace/AIoT/src/LiteOS_Lab/iot_link/network/dtls/mbedtls/mbedtls-2.16.2/library\x509_crl.c ****     entry = &crl->entry;
 1708              		.loc 1 664 0 is_stmt 1 discriminator 4
 1709 0160 3B68     		ldr	r3, [r7]
 1710 0162 8433     		adds	r3, r3, #132
 1711 0164 7B61     		str	r3, [r7, #20]
 665:C:/Users/dtjld/workspace/AIoT/src/LiteOS_Lab/iot_link/network/dtls/mbedtls/mbedtls-2.16.2/library\x509_crl.c **** 
 666:C:/Users/dtjld/workspace/AIoT/src/LiteOS_Lab/iot_link/network/dtls/mbedtls/mbedtls-2.16.2/library\x509_crl.c ****     ret = mbedtls_snprintf( p, n, "\n%sRevoked certificates:",
 1712              		.loc 1 666 0 discriminator 4
 1713 0166 224B     		ldr	r3, .L130
 1714 0168 1C68     		ldr	r4, [r3]
 1715 016a 7B68     		ldr	r3, [r7, #4]
 1716 016c 264A     		ldr	r2, .L130+24
 1717 016e F969     		ldr	r1, [r7, #28]
 1718 0170 B869     		ldr	r0, [r7, #24]
 1719 0172 A047     		blx	r4
 1720              	.LVL4:
 1721 0174 3861     		str	r0, [r7, #16]
 667:C:/Users/dtjld/workspace/AIoT/src/LiteOS_Lab/iot_link/network/dtls/mbedtls/mbedtls-2.16.2/library\x509_crl.c ****                                prefix );
 668:C:/Users/dtjld/workspace/AIoT/src/LiteOS_Lab/iot_link/network/dtls/mbedtls/mbedtls-2.16.2/library\x509_crl.c ****     MBEDTLS_X509_SAFE_SNPRINTF;
 1722              		.loc 1 668 0 discriminator 4
 1723 0176 3B69     		ldr	r3, [r7, #16]
 1724 0178 002B     		cmp	r3, #0
 1725 017a 03DB     		blt	.L113
 1726              		.loc 1 668 0 is_stmt 0 discriminator 2
 1727 017c 3B69     		ldr	r3, [r7, #16]
 1728 017e FA69     		ldr	r2, [r7, #28]
 1729 0180 9A42     		cmp	r2, r3
 1730 0182 01D8     		bhi	.L114
 1731              	.L113:
 1732              		.loc 1 668 0 discriminator 3
 1733 0184 1C4B     		ldr	r3, .L130+8
 1734 0186 D9E0     		b	.L104
 1735              	.L114:
 1736              		.loc 1 668 0 discriminator 4
 1737 0188 3B69     		ldr	r3, [r7, #16]
 1738 018a FA69     		ldr	r2, [r7, #28]
 1739 018c D31A     		subs	r3, r2, r3
 1740 018e FB61     		str	r3, [r7, #28]
 1741 0190 3B69     		ldr	r3, [r7, #16]
 1742 0192 BA69     		ldr	r2, [r7, #24]
 1743 0194 1344     		add	r3, r3, r2
 1744 0196 BB61     		str	r3, [r7, #24]
 669:C:/Users/dtjld/workspace/AIoT/src/LiteOS_Lab/iot_link/network/dtls/mbedtls/mbedtls-2.16.2/library\x509_crl.c **** 
ARM GAS  C:\Users\dtjld\AppData\Local\Temp\ccJIykE0.s 			page 44


 670:C:/Users/dtjld/workspace/AIoT/src/LiteOS_Lab/iot_link/network/dtls/mbedtls/mbedtls-2.16.2/library\x509_crl.c ****     while( entry != NULL && entry->raw.len != 0 )
 1745              		.loc 1 670 0 is_stmt 1 discriminator 4
 1746 0198 6FE0     		b	.L115
 1747              	.L123:
 671:C:/Users/dtjld/workspace/AIoT/src/LiteOS_Lab/iot_link/network/dtls/mbedtls/mbedtls-2.16.2/library\x509_crl.c ****     {
 672:C:/Users/dtjld/workspace/AIoT/src/LiteOS_Lab/iot_link/network/dtls/mbedtls/mbedtls-2.16.2/library\x509_crl.c ****         ret = mbedtls_snprintf( p, n, "\n%sserial number: ",
 1748              		.loc 1 672 0
 1749 019a 154B     		ldr	r3, .L130
 1750 019c 1C68     		ldr	r4, [r3]
 1751 019e 7B68     		ldr	r3, [r7, #4]
 1752 01a0 1A4A     		ldr	r2, .L130+28
 1753 01a2 F969     		ldr	r1, [r7, #28]
 1754 01a4 B869     		ldr	r0, [r7, #24]
 1755 01a6 A047     		blx	r4
 1756              	.LVL5:
 1757 01a8 3861     		str	r0, [r7, #16]
 673:C:/Users/dtjld/workspace/AIoT/src/LiteOS_Lab/iot_link/network/dtls/mbedtls/mbedtls-2.16.2/library\x509_crl.c ****                                prefix );
 674:C:/Users/dtjld/workspace/AIoT/src/LiteOS_Lab/iot_link/network/dtls/mbedtls/mbedtls-2.16.2/library\x509_crl.c ****         MBEDTLS_X509_SAFE_SNPRINTF;
 1758              		.loc 1 674 0
 1759 01aa 3B69     		ldr	r3, [r7, #16]
 1760 01ac 002B     		cmp	r3, #0
 1761 01ae 03DB     		blt	.L116
 1762              		.loc 1 674 0 is_stmt 0 discriminator 2
 1763 01b0 3B69     		ldr	r3, [r7, #16]
 1764 01b2 FA69     		ldr	r2, [r7, #28]
 1765 01b4 9A42     		cmp	r2, r3
 1766 01b6 01D8     		bhi	.L117
 1767              	.L116:
 1768              		.loc 1 674 0 discriminator 3
 1769 01b8 0F4B     		ldr	r3, .L130+8
 1770 01ba BFE0     		b	.L104
 1771              	.L117:
 1772              		.loc 1 674 0 discriminator 4
 1773 01bc 3B69     		ldr	r3, [r7, #16]
 1774 01be FA69     		ldr	r2, [r7, #28]
 1775 01c0 D31A     		subs	r3, r2, r3
 1776 01c2 FB61     		str	r3, [r7, #28]
 1777 01c4 3B69     		ldr	r3, [r7, #16]
 1778 01c6 BA69     		ldr	r2, [r7, #24]
 1779 01c8 1344     		add	r3, r3, r2
 1780 01ca BB61     		str	r3, [r7, #24]
 675:C:/Users/dtjld/workspace/AIoT/src/LiteOS_Lab/iot_link/network/dtls/mbedtls/mbedtls-2.16.2/library\x509_crl.c **** 
 676:C:/Users/dtjld/workspace/AIoT/src/LiteOS_Lab/iot_link/network/dtls/mbedtls/mbedtls-2.16.2/library\x509_crl.c ****         ret = mbedtls_x509_serial_gets( p, n, &entry->serial );
 1781              		.loc 1 676 0 is_stmt 1 discriminator 4
 1782 01cc 7B69     		ldr	r3, [r7, #20]
 1783 01ce 0C33     		adds	r3, r3, #12
 1784 01d0 1A46     		mov	r2, r3
 1785 01d2 F969     		ldr	r1, [r7, #28]
 1786 01d4 B869     		ldr	r0, [r7, #24]
 1787 01d6 FFF7FEFF 		bl	mbedtls_x509_serial_gets
 1788 01da 3861     		str	r0, [r7, #16]
 677:C:/Users/dtjld/workspace/AIoT/src/LiteOS_Lab/iot_link/network/dtls/mbedtls/mbedtls-2.16.2/library\x509_crl.c ****         MBEDTLS_X509_SAFE_SNPRINTF;
 1789              		.loc 1 677 0 discriminator 4
 1790 01dc 3B69     		ldr	r3, [r7, #16]
 1791 01de 002B     		cmp	r3, #0
 1792 01e0 03DB     		blt	.L118
 1793              		.loc 1 677 0 is_stmt 0 discriminator 2
ARM GAS  C:\Users\dtjld\AppData\Local\Temp\ccJIykE0.s 			page 45


 1794 01e2 3B69     		ldr	r3, [r7, #16]
 1795 01e4 FA69     		ldr	r2, [r7, #28]
 1796 01e6 9A42     		cmp	r2, r3
 1797 01e8 12D8     		bhi	.L119
 1798              	.L118:
 1799              		.loc 1 677 0 discriminator 3
 1800 01ea 034B     		ldr	r3, .L130+8
 1801 01ec A6E0     		b	.L104
 1802              	.L131:
 1803 01ee 00BF     		.align	2
 1804              	.L130:
 1805 01f0 00000000 		.word	mbedtls_snprintf
 1806 01f4 34000000 		.word	.LC2
 1807 01f8 80D6FFFF 		.word	-10624
 1808 01fc 4C000000 		.word	.LC3
 1809 0200 60000000 		.word	.LC4
 1810 0204 94000000 		.word	.LC5
 1811 0208 C8000000 		.word	.LC6
 1812 020c E4000000 		.word	.LC7
 1813              	.L119:
 1814              		.loc 1 677 0 discriminator 4
 1815 0210 3B69     		ldr	r3, [r7, #16]
 1816 0212 FA69     		ldr	r2, [r7, #28]
 1817 0214 D31A     		subs	r3, r2, r3
 1818 0216 FB61     		str	r3, [r7, #28]
 1819 0218 3B69     		ldr	r3, [r7, #16]
 1820 021a BA69     		ldr	r2, [r7, #24]
 1821 021c 1344     		add	r3, r3, r2
 1822 021e BB61     		str	r3, [r7, #24]
 678:C:/Users/dtjld/workspace/AIoT/src/LiteOS_Lab/iot_link/network/dtls/mbedtls/mbedtls-2.16.2/library\x509_crl.c **** 
 679:C:/Users/dtjld/workspace/AIoT/src/LiteOS_Lab/iot_link/network/dtls/mbedtls/mbedtls-2.16.2/library\x509_crl.c ****         ret = mbedtls_snprintf( p, n, " revocation date: " \
 1823              		.loc 1 679 0 is_stmt 1 discriminator 4
 1824 0220 484B     		ldr	r3, .L132
 1825 0222 1C68     		ldr	r4, [r3]
 1826 0224 7B69     		ldr	r3, [r7, #20]
 1827 0226 9E69     		ldr	r6, [r3, #24]
 1828 0228 7B69     		ldr	r3, [r7, #20]
 1829 022a DB69     		ldr	r3, [r3, #28]
 1830 022c 7A69     		ldr	r2, [r7, #20]
 1831 022e 126A     		ldr	r2, [r2, #32]
 1832 0230 7969     		ldr	r1, [r7, #20]
 1833 0232 496A     		ldr	r1, [r1, #36]
 1834 0234 7869     		ldr	r0, [r7, #20]
 1835 0236 806A     		ldr	r0, [r0, #40]
 1836 0238 7D69     		ldr	r5, [r7, #20]
 1837 023a ED6A     		ldr	r5, [r5, #44]
 1838 023c 0495     		str	r5, [sp, #16]
 1839 023e 0390     		str	r0, [sp, #12]
 1840 0240 0291     		str	r1, [sp, #8]
 1841 0242 0192     		str	r2, [sp, #4]
 1842 0244 0093     		str	r3, [sp]
 1843 0246 3346     		mov	r3, r6
 1844 0248 3F4A     		ldr	r2, .L132+4
 1845 024a F969     		ldr	r1, [r7, #28]
 1846 024c B869     		ldr	r0, [r7, #24]
 1847 024e A047     		blx	r4
 1848              	.LVL6:
ARM GAS  C:\Users\dtjld\AppData\Local\Temp\ccJIykE0.s 			page 46


 1849 0250 3861     		str	r0, [r7, #16]
 680:C:/Users/dtjld/workspace/AIoT/src/LiteOS_Lab/iot_link/network/dtls/mbedtls/mbedtls-2.16.2/library\x509_crl.c ****                    "%04d-%02d-%02d %02d:%02d:%02d",
 681:C:/Users/dtjld/workspace/AIoT/src/LiteOS_Lab/iot_link/network/dtls/mbedtls/mbedtls-2.16.2/library\x509_crl.c ****                    entry->revocation_date.year, entry->revocation_date.mon,
 682:C:/Users/dtjld/workspace/AIoT/src/LiteOS_Lab/iot_link/network/dtls/mbedtls/mbedtls-2.16.2/library\x509_crl.c ****                    entry->revocation_date.day,  entry->revocation_date.hour,
 683:C:/Users/dtjld/workspace/AIoT/src/LiteOS_Lab/iot_link/network/dtls/mbedtls/mbedtls-2.16.2/library\x509_crl.c ****                    entry->revocation_date.min,  entry->revocation_date.sec );
 684:C:/Users/dtjld/workspace/AIoT/src/LiteOS_Lab/iot_link/network/dtls/mbedtls/mbedtls-2.16.2/library\x509_crl.c ****         MBEDTLS_X509_SAFE_SNPRINTF;
 1850              		.loc 1 684 0 discriminator 4
 1851 0252 3B69     		ldr	r3, [r7, #16]
 1852 0254 002B     		cmp	r3, #0
 1853 0256 03DB     		blt	.L120
 1854              		.loc 1 684 0 is_stmt 0 discriminator 2
 1855 0258 3B69     		ldr	r3, [r7, #16]
 1856 025a FA69     		ldr	r2, [r7, #28]
 1857 025c 9A42     		cmp	r2, r3
 1858 025e 01D8     		bhi	.L121
 1859              	.L120:
 1860              		.loc 1 684 0 discriminator 3
 1861 0260 3A4B     		ldr	r3, .L132+8
 1862 0262 6BE0     		b	.L104
 1863              	.L121:
 1864              		.loc 1 684 0 discriminator 4
 1865 0264 3B69     		ldr	r3, [r7, #16]
 1866 0266 FA69     		ldr	r2, [r7, #28]
 1867 0268 D31A     		subs	r3, r2, r3
 1868 026a FB61     		str	r3, [r7, #28]
 1869 026c 3B69     		ldr	r3, [r7, #16]
 1870 026e BA69     		ldr	r2, [r7, #24]
 1871 0270 1344     		add	r3, r3, r2
 1872 0272 BB61     		str	r3, [r7, #24]
 685:C:/Users/dtjld/workspace/AIoT/src/LiteOS_Lab/iot_link/network/dtls/mbedtls/mbedtls-2.16.2/library\x509_crl.c **** 
 686:C:/Users/dtjld/workspace/AIoT/src/LiteOS_Lab/iot_link/network/dtls/mbedtls/mbedtls-2.16.2/library\x509_crl.c ****         entry = entry->next;
 1873              		.loc 1 686 0 is_stmt 1 discriminator 4
 1874 0274 7B69     		ldr	r3, [r7, #20]
 1875 0276 DB6B     		ldr	r3, [r3, #60]
 1876 0278 7B61     		str	r3, [r7, #20]
 1877              	.L115:
 670:C:/Users/dtjld/workspace/AIoT/src/LiteOS_Lab/iot_link/network/dtls/mbedtls/mbedtls-2.16.2/library\x509_crl.c ****     {
 1878              		.loc 1 670 0
 1879 027a 7B69     		ldr	r3, [r7, #20]
 1880 027c 002B     		cmp	r3, #0
 1881 027e 03D0     		beq	.L122
 670:C:/Users/dtjld/workspace/AIoT/src/LiteOS_Lab/iot_link/network/dtls/mbedtls/mbedtls-2.16.2/library\x509_crl.c ****     {
 1882              		.loc 1 670 0 is_stmt 0 discriminator 1
 1883 0280 7B69     		ldr	r3, [r7, #20]
 1884 0282 5B68     		ldr	r3, [r3, #4]
 1885 0284 002B     		cmp	r3, #0
 1886 0286 88D1     		bne	.L123
 1887              	.L122:
 687:C:/Users/dtjld/workspace/AIoT/src/LiteOS_Lab/iot_link/network/dtls/mbedtls/mbedtls-2.16.2/library\x509_crl.c ****     }
 688:C:/Users/dtjld/workspace/AIoT/src/LiteOS_Lab/iot_link/network/dtls/mbedtls/mbedtls-2.16.2/library\x509_crl.c **** 
 689:C:/Users/dtjld/workspace/AIoT/src/LiteOS_Lab/iot_link/network/dtls/mbedtls/mbedtls-2.16.2/library\x509_crl.c ****     ret = mbedtls_snprintf( p, n, "\n%ssigned using  : ", prefix );
 1888              		.loc 1 689 0 is_stmt 1
 1889 0288 2E4B     		ldr	r3, .L132
 1890 028a 1C68     		ldr	r4, [r3]
 1891 028c 7B68     		ldr	r3, [r7, #4]
 1892 028e 304A     		ldr	r2, .L132+12
 1893 0290 F969     		ldr	r1, [r7, #28]
ARM GAS  C:\Users\dtjld\AppData\Local\Temp\ccJIykE0.s 			page 47


 1894 0292 B869     		ldr	r0, [r7, #24]
 1895 0294 A047     		blx	r4
 1896              	.LVL7:
 1897 0296 3861     		str	r0, [r7, #16]
 690:C:/Users/dtjld/workspace/AIoT/src/LiteOS_Lab/iot_link/network/dtls/mbedtls/mbedtls-2.16.2/library\x509_crl.c ****     MBEDTLS_X509_SAFE_SNPRINTF;
 1898              		.loc 1 690 0
 1899 0298 3B69     		ldr	r3, [r7, #16]
 1900 029a 002B     		cmp	r3, #0
 1901 029c 03DB     		blt	.L124
 1902              		.loc 1 690 0 is_stmt 0 discriminator 2
 1903 029e 3B69     		ldr	r3, [r7, #16]
 1904 02a0 FA69     		ldr	r2, [r7, #28]
 1905 02a2 9A42     		cmp	r2, r3
 1906 02a4 01D8     		bhi	.L125
 1907              	.L124:
 1908              		.loc 1 690 0 discriminator 3
 1909 02a6 294B     		ldr	r3, .L132+8
 1910 02a8 48E0     		b	.L104
 1911              	.L125:
 1912              		.loc 1 690 0 discriminator 4
 1913 02aa 3B69     		ldr	r3, [r7, #16]
 1914 02ac FA69     		ldr	r2, [r7, #28]
 1915 02ae D31A     		subs	r3, r2, r3
 1916 02b0 FB61     		str	r3, [r7, #28]
 1917 02b2 3B69     		ldr	r3, [r7, #16]
 1918 02b4 BA69     		ldr	r2, [r7, #24]
 1919 02b6 1344     		add	r3, r3, r2
 1920 02b8 BB61     		str	r3, [r7, #24]
 691:C:/Users/dtjld/workspace/AIoT/src/LiteOS_Lab/iot_link/network/dtls/mbedtls/mbedtls-2.16.2/library\x509_crl.c **** 
 692:C:/Users/dtjld/workspace/AIoT/src/LiteOS_Lab/iot_link/network/dtls/mbedtls/mbedtls-2.16.2/library\x509_crl.c ****     ret = mbedtls_x509_sig_alg_gets( p, n, &crl->sig_oid, crl->sig_pk, crl->sig_md,
 1921              		.loc 1 692 0 is_stmt 1 discriminator 4
 1922 02ba 3B68     		ldr	r3, [r7]
 1923 02bc 03F11C01 		add	r1, r3, #28
 1924 02c0 3B68     		ldr	r3, [r7]
 1925 02c2 93F8E900 		ldrb	r0, [r3, #233]	@ zero_extendqisi2
 1926 02c6 3B68     		ldr	r3, [r7]
 1927 02c8 93F8E830 		ldrb	r3, [r3, #232]	@ zero_extendqisi2
 693:C:/Users/dtjld/workspace/AIoT/src/LiteOS_Lab/iot_link/network/dtls/mbedtls/mbedtls-2.16.2/library\x509_crl.c ****                              crl->sig_opts );
 1928              		.loc 1 693 0 discriminator 4
 1929 02cc 3A68     		ldr	r2, [r7]
 1930 02ce D2F8EC20 		ldr	r2, [r2, #236]
 692:C:/Users/dtjld/workspace/AIoT/src/LiteOS_Lab/iot_link/network/dtls/mbedtls/mbedtls-2.16.2/library\x509_crl.c ****                              crl->sig_opts );
 1931              		.loc 1 692 0 discriminator 4
 1932 02d2 0192     		str	r2, [sp, #4]
 1933 02d4 0093     		str	r3, [sp]
 1934 02d6 0346     		mov	r3, r0
 1935 02d8 0A46     		mov	r2, r1
 1936 02da F969     		ldr	r1, [r7, #28]
 1937 02dc B869     		ldr	r0, [r7, #24]
 1938 02de FFF7FEFF 		bl	mbedtls_x509_sig_alg_gets
 1939 02e2 3861     		str	r0, [r7, #16]
 694:C:/Users/dtjld/workspace/AIoT/src/LiteOS_Lab/iot_link/network/dtls/mbedtls/mbedtls-2.16.2/library\x509_crl.c ****     MBEDTLS_X509_SAFE_SNPRINTF;
 1940              		.loc 1 694 0 discriminator 4
 1941 02e4 3B69     		ldr	r3, [r7, #16]
 1942 02e6 002B     		cmp	r3, #0
 1943 02e8 03DB     		blt	.L126
 1944              		.loc 1 694 0 is_stmt 0 discriminator 2
ARM GAS  C:\Users\dtjld\AppData\Local\Temp\ccJIykE0.s 			page 48


 1945 02ea 3B69     		ldr	r3, [r7, #16]
 1946 02ec FA69     		ldr	r2, [r7, #28]
 1947 02ee 9A42     		cmp	r2, r3
 1948 02f0 01D8     		bhi	.L127
 1949              	.L126:
 1950              		.loc 1 694 0 discriminator 3
 1951 02f2 164B     		ldr	r3, .L132+8
 1952 02f4 22E0     		b	.L104
 1953              	.L127:
 1954              		.loc 1 694 0 discriminator 4
 1955 02f6 3B69     		ldr	r3, [r7, #16]
 1956 02f8 FA69     		ldr	r2, [r7, #28]
 1957 02fa D31A     		subs	r3, r2, r3
 1958 02fc FB61     		str	r3, [r7, #28]
 1959 02fe 3B69     		ldr	r3, [r7, #16]
 1960 0300 BA69     		ldr	r2, [r7, #24]
 1961 0302 1344     		add	r3, r3, r2
 1962 0304 BB61     		str	r3, [r7, #24]
 695:C:/Users/dtjld/workspace/AIoT/src/LiteOS_Lab/iot_link/network/dtls/mbedtls/mbedtls-2.16.2/library\x509_crl.c **** 
 696:C:/Users/dtjld/workspace/AIoT/src/LiteOS_Lab/iot_link/network/dtls/mbedtls/mbedtls-2.16.2/library\x509_crl.c ****     ret = mbedtls_snprintf( p, n, "\n" );
 1963              		.loc 1 696 0 is_stmt 1 discriminator 4
 1964 0306 0F4B     		ldr	r3, .L132
 1965 0308 1B68     		ldr	r3, [r3]
 1966 030a 124A     		ldr	r2, .L132+16
 1967 030c F969     		ldr	r1, [r7, #28]
 1968 030e B869     		ldr	r0, [r7, #24]
 1969 0310 9847     		blx	r3
 1970              	.LVL8:
 1971 0312 3861     		str	r0, [r7, #16]
 697:C:/Users/dtjld/workspace/AIoT/src/LiteOS_Lab/iot_link/network/dtls/mbedtls/mbedtls-2.16.2/library\x509_crl.c ****     MBEDTLS_X509_SAFE_SNPRINTF;
 1972              		.loc 1 697 0 discriminator 4
 1973 0314 3B69     		ldr	r3, [r7, #16]
 1974 0316 002B     		cmp	r3, #0
 1975 0318 03DB     		blt	.L128
 1976              		.loc 1 697 0 is_stmt 0 discriminator 2
 1977 031a 3B69     		ldr	r3, [r7, #16]
 1978 031c FA69     		ldr	r2, [r7, #28]
 1979 031e 9A42     		cmp	r2, r3
 1980 0320 01D8     		bhi	.L129
 1981              	.L128:
 1982              		.loc 1 697 0 discriminator 3
 1983 0322 0A4B     		ldr	r3, .L132+8
 1984 0324 0AE0     		b	.L104
 1985              	.L129:
 1986              		.loc 1 697 0 discriminator 4
 1987 0326 3B69     		ldr	r3, [r7, #16]
 1988 0328 FA69     		ldr	r2, [r7, #28]
 1989 032a D31A     		subs	r3, r2, r3
 1990 032c FB61     		str	r3, [r7, #28]
 1991 032e 3B69     		ldr	r3, [r7, #16]
 1992 0330 BA69     		ldr	r2, [r7, #24]
 1993 0332 1344     		add	r3, r3, r2
 1994 0334 BB61     		str	r3, [r7, #24]
 698:C:/Users/dtjld/workspace/AIoT/src/LiteOS_Lab/iot_link/network/dtls/mbedtls/mbedtls-2.16.2/library\x509_crl.c **** 
 699:C:/Users/dtjld/workspace/AIoT/src/LiteOS_Lab/iot_link/network/dtls/mbedtls/mbedtls-2.16.2/library\x509_crl.c ****     return( (int) ( size - n ) );
 1995              		.loc 1 699 0 is_stmt 1 discriminator 4
 1996 0336 BA68     		ldr	r2, [r7, #8]
ARM GAS  C:\Users\dtjld\AppData\Local\Temp\ccJIykE0.s 			page 49


 1997 0338 FB69     		ldr	r3, [r7, #28]
 1998 033a D31A     		subs	r3, r2, r3
 1999              	.L104:
 700:C:/Users/dtjld/workspace/AIoT/src/LiteOS_Lab/iot_link/network/dtls/mbedtls/mbedtls-2.16.2/library\x509_crl.c **** }
 2000              		.loc 1 700 0
 2001 033c 1846     		mov	r0, r3
 2002 033e 2437     		adds	r7, r7, #36
 2003              	.LCFI33:
 2004              		.cfi_def_cfa_offset 20
 2005 0340 BD46     		mov	sp, r7
 2006              	.LCFI34:
 2007              		.cfi_def_cfa_register 13
 2008              		@ sp needed
 2009 0342 F0BD     		pop	{r4, r5, r6, r7, pc}
 2010              	.L133:
 2011              		.align	2
 2012              	.L132:
 2013 0344 00000000 		.word	mbedtls_snprintf
 2014 0348 F8000000 		.word	.LC8
 2015 034c 80D6FFFF 		.word	-10624
 2016 0350 28010000 		.word	.LC9
 2017 0354 3C010000 		.word	.LC10
 2018              		.cfi_endproc
 2019              	.LFE19:
 2021              		.section	.text.mbedtls_x509_crl_init,"ax",%progbits
 2022              		.align	1
 2023              		.global	mbedtls_x509_crl_init
 2024              		.syntax unified
 2025              		.thumb
 2026              		.thumb_func
 2027              		.fpu fpv4-sp-d16
 2029              	mbedtls_x509_crl_init:
 2030              	.LFB20:
 701:C:/Users/dtjld/workspace/AIoT/src/LiteOS_Lab/iot_link/network/dtls/mbedtls/mbedtls-2.16.2/library\x509_crl.c **** 
 702:C:/Users/dtjld/workspace/AIoT/src/LiteOS_Lab/iot_link/network/dtls/mbedtls/mbedtls-2.16.2/library\x509_crl.c **** /*
 703:C:/Users/dtjld/workspace/AIoT/src/LiteOS_Lab/iot_link/network/dtls/mbedtls/mbedtls-2.16.2/library\x509_crl.c ****  * Initialize a CRL chain
 704:C:/Users/dtjld/workspace/AIoT/src/LiteOS_Lab/iot_link/network/dtls/mbedtls/mbedtls-2.16.2/library\x509_crl.c ****  */
 705:C:/Users/dtjld/workspace/AIoT/src/LiteOS_Lab/iot_link/network/dtls/mbedtls/mbedtls-2.16.2/library\x509_crl.c **** void mbedtls_x509_crl_init( mbedtls_x509_crl *crl )
 706:C:/Users/dtjld/workspace/AIoT/src/LiteOS_Lab/iot_link/network/dtls/mbedtls/mbedtls-2.16.2/library\x509_crl.c **** {
 2031              		.loc 1 706 0
 2032              		.cfi_startproc
 2033              		@ args = 0, pretend = 0, frame = 8
 2034              		@ frame_needed = 1, uses_anonymous_args = 0
 2035 0000 80B5     		push	{r7, lr}
 2036              	.LCFI35:
 2037              		.cfi_def_cfa_offset 8
 2038              		.cfi_offset 7, -8
 2039              		.cfi_offset 14, -4
 2040 0002 82B0     		sub	sp, sp, #8
 2041              	.LCFI36:
 2042              		.cfi_def_cfa_offset 16
 2043 0004 00AF     		add	r7, sp, #0
 2044              	.LCFI37:
 2045              		.cfi_def_cfa_register 7
 2046 0006 7860     		str	r0, [r7, #4]
 707:C:/Users/dtjld/workspace/AIoT/src/LiteOS_Lab/iot_link/network/dtls/mbedtls/mbedtls-2.16.2/library\x509_crl.c ****     memset( crl, 0, sizeof(mbedtls_x509_crl) );
 2047              		.loc 1 707 0
ARM GAS  C:\Users\dtjld\AppData\Local\Temp\ccJIykE0.s 			page 50


 2048 0008 F422     		movs	r2, #244
 2049 000a 0021     		movs	r1, #0
 2050 000c 7868     		ldr	r0, [r7, #4]
 2051 000e FFF7FEFF 		bl	memset
 708:C:/Users/dtjld/workspace/AIoT/src/LiteOS_Lab/iot_link/network/dtls/mbedtls/mbedtls-2.16.2/library\x509_crl.c **** }
 2052              		.loc 1 708 0
 2053 0012 00BF     		nop
 2054 0014 0837     		adds	r7, r7, #8
 2055              	.LCFI38:
 2056              		.cfi_def_cfa_offset 8
 2057 0016 BD46     		mov	sp, r7
 2058              	.LCFI39:
 2059              		.cfi_def_cfa_register 13
 2060              		@ sp needed
 2061 0018 80BD     		pop	{r7, pc}
 2062              		.cfi_endproc
 2063              	.LFE20:
 2065              		.section	.text.mbedtls_x509_crl_free,"ax",%progbits
 2066              		.align	1
 2067              		.global	mbedtls_x509_crl_free
 2068              		.syntax unified
 2069              		.thumb
 2070              		.thumb_func
 2071              		.fpu fpv4-sp-d16
 2073              	mbedtls_x509_crl_free:
 2074              	.LFB21:
 709:C:/Users/dtjld/workspace/AIoT/src/LiteOS_Lab/iot_link/network/dtls/mbedtls/mbedtls-2.16.2/library\x509_crl.c **** 
 710:C:/Users/dtjld/workspace/AIoT/src/LiteOS_Lab/iot_link/network/dtls/mbedtls/mbedtls-2.16.2/library\x509_crl.c **** /*
 711:C:/Users/dtjld/workspace/AIoT/src/LiteOS_Lab/iot_link/network/dtls/mbedtls/mbedtls-2.16.2/library\x509_crl.c ****  * Unallocate all CRL data
 712:C:/Users/dtjld/workspace/AIoT/src/LiteOS_Lab/iot_link/network/dtls/mbedtls/mbedtls-2.16.2/library\x509_crl.c ****  */
 713:C:/Users/dtjld/workspace/AIoT/src/LiteOS_Lab/iot_link/network/dtls/mbedtls/mbedtls-2.16.2/library\x509_crl.c **** void mbedtls_x509_crl_free( mbedtls_x509_crl *crl )
 714:C:/Users/dtjld/workspace/AIoT/src/LiteOS_Lab/iot_link/network/dtls/mbedtls/mbedtls-2.16.2/library\x509_crl.c **** {
 2075              		.loc 1 714 0
 2076              		.cfi_startproc
 2077              		@ args = 0, pretend = 0, frame = 32
 2078              		@ frame_needed = 1, uses_anonymous_args = 0
 2079 0000 80B5     		push	{r7, lr}
 2080              	.LCFI40:
 2081              		.cfi_def_cfa_offset 8
 2082              		.cfi_offset 7, -8
 2083              		.cfi_offset 14, -4
 2084 0002 88B0     		sub	sp, sp, #32
 2085              	.LCFI41:
 2086              		.cfi_def_cfa_offset 40
 2087 0004 00AF     		add	r7, sp, #0
 2088              	.LCFI42:
 2089              		.cfi_def_cfa_register 7
 2090 0006 7860     		str	r0, [r7, #4]
 715:C:/Users/dtjld/workspace/AIoT/src/LiteOS_Lab/iot_link/network/dtls/mbedtls/mbedtls-2.16.2/library\x509_crl.c ****     mbedtls_x509_crl *crl_cur = crl;
 2091              		.loc 1 715 0
 2092 0008 7B68     		ldr	r3, [r7, #4]
 2093 000a FB61     		str	r3, [r7, #28]
 716:C:/Users/dtjld/workspace/AIoT/src/LiteOS_Lab/iot_link/network/dtls/mbedtls/mbedtls-2.16.2/library\x509_crl.c ****     mbedtls_x509_crl *crl_prv;
 717:C:/Users/dtjld/workspace/AIoT/src/LiteOS_Lab/iot_link/network/dtls/mbedtls/mbedtls-2.16.2/library\x509_crl.c ****     mbedtls_x509_name *name_cur;
 718:C:/Users/dtjld/workspace/AIoT/src/LiteOS_Lab/iot_link/network/dtls/mbedtls/mbedtls-2.16.2/library\x509_crl.c ****     mbedtls_x509_name *name_prv;
 719:C:/Users/dtjld/workspace/AIoT/src/LiteOS_Lab/iot_link/network/dtls/mbedtls/mbedtls-2.16.2/library\x509_crl.c ****     mbedtls_x509_crl_entry *entry_cur;
 720:C:/Users/dtjld/workspace/AIoT/src/LiteOS_Lab/iot_link/network/dtls/mbedtls/mbedtls-2.16.2/library\x509_crl.c ****     mbedtls_x509_crl_entry *entry_prv;
ARM GAS  C:\Users\dtjld\AppData\Local\Temp\ccJIykE0.s 			page 51


 721:C:/Users/dtjld/workspace/AIoT/src/LiteOS_Lab/iot_link/network/dtls/mbedtls/mbedtls-2.16.2/library\x509_crl.c **** 
 722:C:/Users/dtjld/workspace/AIoT/src/LiteOS_Lab/iot_link/network/dtls/mbedtls/mbedtls-2.16.2/library\x509_crl.c ****     if( crl == NULL )
 2094              		.loc 1 722 0
 2095 000c 7B68     		ldr	r3, [r7, #4]
 2096 000e 002B     		cmp	r3, #0
 2097 0010 5BD0     		beq	.L145
 2098              	.L136:
 723:C:/Users/dtjld/workspace/AIoT/src/LiteOS_Lab/iot_link/network/dtls/mbedtls/mbedtls-2.16.2/library\x509_crl.c ****         return;
 724:C:/Users/dtjld/workspace/AIoT/src/LiteOS_Lab/iot_link/network/dtls/mbedtls/mbedtls-2.16.2/library\x509_crl.c **** 
 725:C:/Users/dtjld/workspace/AIoT/src/LiteOS_Lab/iot_link/network/dtls/mbedtls/mbedtls-2.16.2/library\x509_crl.c ****     do
 726:C:/Users/dtjld/workspace/AIoT/src/LiteOS_Lab/iot_link/network/dtls/mbedtls/mbedtls-2.16.2/library\x509_crl.c ****     {
 727:C:/Users/dtjld/workspace/AIoT/src/LiteOS_Lab/iot_link/network/dtls/mbedtls/mbedtls-2.16.2/library\x509_crl.c **** #if defined(MBEDTLS_X509_RSASSA_PSS_SUPPORT)
 728:C:/Users/dtjld/workspace/AIoT/src/LiteOS_Lab/iot_link/network/dtls/mbedtls/mbedtls-2.16.2/library\x509_crl.c ****         mbedtls_free( crl_cur->sig_opts );
 2099              		.loc 1 728 0
 2100 0012 FB69     		ldr	r3, [r7, #28]
 2101 0014 D3F8EC30 		ldr	r3, [r3, #236]
 2102 0018 1846     		mov	r0, r3
 2103 001a FFF7FEFF 		bl	mbedtls_free
 729:C:/Users/dtjld/workspace/AIoT/src/LiteOS_Lab/iot_link/network/dtls/mbedtls/mbedtls-2.16.2/library\x509_crl.c **** #endif
 730:C:/Users/dtjld/workspace/AIoT/src/LiteOS_Lab/iot_link/network/dtls/mbedtls/mbedtls-2.16.2/library\x509_crl.c **** 
 731:C:/Users/dtjld/workspace/AIoT/src/LiteOS_Lab/iot_link/network/dtls/mbedtls/mbedtls-2.16.2/library\x509_crl.c ****         name_cur = crl_cur->issuer.next;
 2104              		.loc 1 731 0
 2105 001e FB69     		ldr	r3, [r7, #28]
 2106 0020 DB6C     		ldr	r3, [r3, #76]
 2107 0022 BB61     		str	r3, [r7, #24]
 732:C:/Users/dtjld/workspace/AIoT/src/LiteOS_Lab/iot_link/network/dtls/mbedtls/mbedtls-2.16.2/library\x509_crl.c ****         while( name_cur != NULL )
 2108              		.loc 1 732 0
 2109 0024 0BE0     		b	.L138
 2110              	.L139:
 733:C:/Users/dtjld/workspace/AIoT/src/LiteOS_Lab/iot_link/network/dtls/mbedtls/mbedtls-2.16.2/library\x509_crl.c ****         {
 734:C:/Users/dtjld/workspace/AIoT/src/LiteOS_Lab/iot_link/network/dtls/mbedtls/mbedtls-2.16.2/library\x509_crl.c ****             name_prv = name_cur;
 2111              		.loc 1 734 0
 2112 0026 BB69     		ldr	r3, [r7, #24]
 2113 0028 BB60     		str	r3, [r7, #8]
 735:C:/Users/dtjld/workspace/AIoT/src/LiteOS_Lab/iot_link/network/dtls/mbedtls/mbedtls-2.16.2/library\x509_crl.c ****             name_cur = name_cur->next;
 2114              		.loc 1 735 0
 2115 002a BB69     		ldr	r3, [r7, #24]
 2116 002c 9B69     		ldr	r3, [r3, #24]
 2117 002e BB61     		str	r3, [r7, #24]
 736:C:/Users/dtjld/workspace/AIoT/src/LiteOS_Lab/iot_link/network/dtls/mbedtls/mbedtls-2.16.2/library\x509_crl.c ****             mbedtls_platform_zeroize( name_prv, sizeof( mbedtls_x509_name ) );
 2118              		.loc 1 736 0
 2119 0030 2021     		movs	r1, #32
 2120 0032 B868     		ldr	r0, [r7, #8]
 2121 0034 FFF7FEFF 		bl	mbedtls_platform_zeroize
 737:C:/Users/dtjld/workspace/AIoT/src/LiteOS_Lab/iot_link/network/dtls/mbedtls/mbedtls-2.16.2/library\x509_crl.c ****             mbedtls_free( name_prv );
 2122              		.loc 1 737 0
 2123 0038 B868     		ldr	r0, [r7, #8]
 2124 003a FFF7FEFF 		bl	mbedtls_free
 2125              	.L138:
 732:C:/Users/dtjld/workspace/AIoT/src/LiteOS_Lab/iot_link/network/dtls/mbedtls/mbedtls-2.16.2/library\x509_crl.c ****         {
 2126              		.loc 1 732 0
 2127 003e BB69     		ldr	r3, [r7, #24]
 2128 0040 002B     		cmp	r3, #0
 2129 0042 F0D1     		bne	.L139
 738:C:/Users/dtjld/workspace/AIoT/src/LiteOS_Lab/iot_link/network/dtls/mbedtls/mbedtls-2.16.2/library\x509_crl.c ****         }
 739:C:/Users/dtjld/workspace/AIoT/src/LiteOS_Lab/iot_link/network/dtls/mbedtls/mbedtls-2.16.2/library\x509_crl.c **** 
 740:C:/Users/dtjld/workspace/AIoT/src/LiteOS_Lab/iot_link/network/dtls/mbedtls/mbedtls-2.16.2/library\x509_crl.c ****         entry_cur = crl_cur->entry.next;
ARM GAS  C:\Users\dtjld\AppData\Local\Temp\ccJIykE0.s 			page 52


 2130              		.loc 1 740 0
 2131 0044 FB69     		ldr	r3, [r7, #28]
 2132 0046 D3F8C030 		ldr	r3, [r3, #192]
 2133 004a 7B61     		str	r3, [r7, #20]
 741:C:/Users/dtjld/workspace/AIoT/src/LiteOS_Lab/iot_link/network/dtls/mbedtls/mbedtls-2.16.2/library\x509_crl.c ****         while( entry_cur != NULL )
 2134              		.loc 1 741 0
 2135 004c 0BE0     		b	.L140
 2136              	.L141:
 742:C:/Users/dtjld/workspace/AIoT/src/LiteOS_Lab/iot_link/network/dtls/mbedtls/mbedtls-2.16.2/library\x509_crl.c ****         {
 743:C:/Users/dtjld/workspace/AIoT/src/LiteOS_Lab/iot_link/network/dtls/mbedtls/mbedtls-2.16.2/library\x509_crl.c ****             entry_prv = entry_cur;
 2137              		.loc 1 743 0
 2138 004e 7B69     		ldr	r3, [r7, #20]
 2139 0050 FB60     		str	r3, [r7, #12]
 744:C:/Users/dtjld/workspace/AIoT/src/LiteOS_Lab/iot_link/network/dtls/mbedtls/mbedtls-2.16.2/library\x509_crl.c ****             entry_cur = entry_cur->next;
 2140              		.loc 1 744 0
 2141 0052 7B69     		ldr	r3, [r7, #20]
 2142 0054 DB6B     		ldr	r3, [r3, #60]
 2143 0056 7B61     		str	r3, [r7, #20]
 745:C:/Users/dtjld/workspace/AIoT/src/LiteOS_Lab/iot_link/network/dtls/mbedtls/mbedtls-2.16.2/library\x509_crl.c ****             mbedtls_platform_zeroize( entry_prv,
 2144              		.loc 1 745 0
 2145 0058 4021     		movs	r1, #64
 2146 005a F868     		ldr	r0, [r7, #12]
 2147 005c FFF7FEFF 		bl	mbedtls_platform_zeroize
 746:C:/Users/dtjld/workspace/AIoT/src/LiteOS_Lab/iot_link/network/dtls/mbedtls/mbedtls-2.16.2/library\x509_crl.c ****                                       sizeof( mbedtls_x509_crl_entry ) );
 747:C:/Users/dtjld/workspace/AIoT/src/LiteOS_Lab/iot_link/network/dtls/mbedtls/mbedtls-2.16.2/library\x509_crl.c ****             mbedtls_free( entry_prv );
 2148              		.loc 1 747 0
 2149 0060 F868     		ldr	r0, [r7, #12]
 2150 0062 FFF7FEFF 		bl	mbedtls_free
 2151              	.L140:
 741:C:/Users/dtjld/workspace/AIoT/src/LiteOS_Lab/iot_link/network/dtls/mbedtls/mbedtls-2.16.2/library\x509_crl.c ****         {
 2152              		.loc 1 741 0
 2153 0066 7B69     		ldr	r3, [r7, #20]
 2154 0068 002B     		cmp	r3, #0
 2155 006a F0D1     		bne	.L141
 748:C:/Users/dtjld/workspace/AIoT/src/LiteOS_Lab/iot_link/network/dtls/mbedtls/mbedtls-2.16.2/library\x509_crl.c ****         }
 749:C:/Users/dtjld/workspace/AIoT/src/LiteOS_Lab/iot_link/network/dtls/mbedtls/mbedtls-2.16.2/library\x509_crl.c **** 
 750:C:/Users/dtjld/workspace/AIoT/src/LiteOS_Lab/iot_link/network/dtls/mbedtls/mbedtls-2.16.2/library\x509_crl.c ****         if( crl_cur->raw.p != NULL )
 2156              		.loc 1 750 0
 2157 006c FB69     		ldr	r3, [r7, #28]
 2158 006e 9B68     		ldr	r3, [r3, #8]
 2159 0070 002B     		cmp	r3, #0
 2160 0072 0CD0     		beq	.L142
 751:C:/Users/dtjld/workspace/AIoT/src/LiteOS_Lab/iot_link/network/dtls/mbedtls/mbedtls-2.16.2/library\x509_crl.c ****         {
 752:C:/Users/dtjld/workspace/AIoT/src/LiteOS_Lab/iot_link/network/dtls/mbedtls/mbedtls-2.16.2/library\x509_crl.c ****             mbedtls_platform_zeroize( crl_cur->raw.p, crl_cur->raw.len );
 2161              		.loc 1 752 0
 2162 0074 FB69     		ldr	r3, [r7, #28]
 2163 0076 9A68     		ldr	r2, [r3, #8]
 2164 0078 FB69     		ldr	r3, [r7, #28]
 2165 007a 5B68     		ldr	r3, [r3, #4]
 2166 007c 1946     		mov	r1, r3
 2167 007e 1046     		mov	r0, r2
 2168 0080 FFF7FEFF 		bl	mbedtls_platform_zeroize
 753:C:/Users/dtjld/workspace/AIoT/src/LiteOS_Lab/iot_link/network/dtls/mbedtls/mbedtls-2.16.2/library\x509_crl.c ****             mbedtls_free( crl_cur->raw.p );
 2169              		.loc 1 753 0
 2170 0084 FB69     		ldr	r3, [r7, #28]
 2171 0086 9B68     		ldr	r3, [r3, #8]
 2172 0088 1846     		mov	r0, r3
ARM GAS  C:\Users\dtjld\AppData\Local\Temp\ccJIykE0.s 			page 53


 2173 008a FFF7FEFF 		bl	mbedtls_free
 2174              	.L142:
 754:C:/Users/dtjld/workspace/AIoT/src/LiteOS_Lab/iot_link/network/dtls/mbedtls/mbedtls-2.16.2/library\x509_crl.c ****         }
 755:C:/Users/dtjld/workspace/AIoT/src/LiteOS_Lab/iot_link/network/dtls/mbedtls/mbedtls-2.16.2/library\x509_crl.c **** 
 756:C:/Users/dtjld/workspace/AIoT/src/LiteOS_Lab/iot_link/network/dtls/mbedtls/mbedtls-2.16.2/library\x509_crl.c ****         crl_cur = crl_cur->next;
 2175              		.loc 1 756 0
 2176 008e FB69     		ldr	r3, [r7, #28]
 2177 0090 D3F8F030 		ldr	r3, [r3, #240]
 2178 0094 FB61     		str	r3, [r7, #28]
 757:C:/Users/dtjld/workspace/AIoT/src/LiteOS_Lab/iot_link/network/dtls/mbedtls/mbedtls-2.16.2/library\x509_crl.c ****     }
 758:C:/Users/dtjld/workspace/AIoT/src/LiteOS_Lab/iot_link/network/dtls/mbedtls/mbedtls-2.16.2/library\x509_crl.c ****     while( crl_cur != NULL );
 2179              		.loc 1 758 0
 2180 0096 FB69     		ldr	r3, [r7, #28]
 2181 0098 002B     		cmp	r3, #0
 2182 009a BAD1     		bne	.L136
 759:C:/Users/dtjld/workspace/AIoT/src/LiteOS_Lab/iot_link/network/dtls/mbedtls/mbedtls-2.16.2/library\x509_crl.c **** 
 760:C:/Users/dtjld/workspace/AIoT/src/LiteOS_Lab/iot_link/network/dtls/mbedtls/mbedtls-2.16.2/library\x509_crl.c ****     crl_cur = crl;
 2183              		.loc 1 760 0
 2184 009c 7B68     		ldr	r3, [r7, #4]
 2185 009e FB61     		str	r3, [r7, #28]
 2186              	.L144:
 761:C:/Users/dtjld/workspace/AIoT/src/LiteOS_Lab/iot_link/network/dtls/mbedtls/mbedtls-2.16.2/library\x509_crl.c ****     do
 762:C:/Users/dtjld/workspace/AIoT/src/LiteOS_Lab/iot_link/network/dtls/mbedtls/mbedtls-2.16.2/library\x509_crl.c ****     {
 763:C:/Users/dtjld/workspace/AIoT/src/LiteOS_Lab/iot_link/network/dtls/mbedtls/mbedtls-2.16.2/library\x509_crl.c ****         crl_prv = crl_cur;
 2187              		.loc 1 763 0
 2188 00a0 FB69     		ldr	r3, [r7, #28]
 2189 00a2 3B61     		str	r3, [r7, #16]
 764:C:/Users/dtjld/workspace/AIoT/src/LiteOS_Lab/iot_link/network/dtls/mbedtls/mbedtls-2.16.2/library\x509_crl.c ****         crl_cur = crl_cur->next;
 2190              		.loc 1 764 0
 2191 00a4 FB69     		ldr	r3, [r7, #28]
 2192 00a6 D3F8F030 		ldr	r3, [r3, #240]
 2193 00aa FB61     		str	r3, [r7, #28]
 765:C:/Users/dtjld/workspace/AIoT/src/LiteOS_Lab/iot_link/network/dtls/mbedtls/mbedtls-2.16.2/library\x509_crl.c **** 
 766:C:/Users/dtjld/workspace/AIoT/src/LiteOS_Lab/iot_link/network/dtls/mbedtls/mbedtls-2.16.2/library\x509_crl.c ****         mbedtls_platform_zeroize( crl_prv, sizeof( mbedtls_x509_crl ) );
 2194              		.loc 1 766 0
 2195 00ac F421     		movs	r1, #244
 2196 00ae 3869     		ldr	r0, [r7, #16]
 2197 00b0 FFF7FEFF 		bl	mbedtls_platform_zeroize
 767:C:/Users/dtjld/workspace/AIoT/src/LiteOS_Lab/iot_link/network/dtls/mbedtls/mbedtls-2.16.2/library\x509_crl.c ****         if( crl_prv != crl )
 2198              		.loc 1 767 0
 2199 00b4 3A69     		ldr	r2, [r7, #16]
 2200 00b6 7B68     		ldr	r3, [r7, #4]
 2201 00b8 9A42     		cmp	r2, r3
 2202 00ba 02D0     		beq	.L143
 768:C:/Users/dtjld/workspace/AIoT/src/LiteOS_Lab/iot_link/network/dtls/mbedtls/mbedtls-2.16.2/library\x509_crl.c ****             mbedtls_free( crl_prv );
 2203              		.loc 1 768 0
 2204 00bc 3869     		ldr	r0, [r7, #16]
 2205 00be FFF7FEFF 		bl	mbedtls_free
 2206              	.L143:
 769:C:/Users/dtjld/workspace/AIoT/src/LiteOS_Lab/iot_link/network/dtls/mbedtls/mbedtls-2.16.2/library\x509_crl.c ****     }
 770:C:/Users/dtjld/workspace/AIoT/src/LiteOS_Lab/iot_link/network/dtls/mbedtls/mbedtls-2.16.2/library\x509_crl.c ****     while( crl_cur != NULL );
 2207              		.loc 1 770 0
 2208 00c2 FB69     		ldr	r3, [r7, #28]
 2209 00c4 002B     		cmp	r3, #0
 2210 00c6 EBD1     		bne	.L144
 2211 00c8 00E0     		b	.L135
 2212              	.L145:
ARM GAS  C:\Users\dtjld\AppData\Local\Temp\ccJIykE0.s 			page 54


 723:C:/Users/dtjld/workspace/AIoT/src/LiteOS_Lab/iot_link/network/dtls/mbedtls/mbedtls-2.16.2/library\x509_crl.c **** 
 2213              		.loc 1 723 0
 2214 00ca 00BF     		nop
 2215              	.L135:
 771:C:/Users/dtjld/workspace/AIoT/src/LiteOS_Lab/iot_link/network/dtls/mbedtls/mbedtls-2.16.2/library\x509_crl.c **** }
 2216              		.loc 1 771 0
 2217 00cc 2037     		adds	r7, r7, #32
 2218              	.LCFI43:
 2219              		.cfi_def_cfa_offset 8
 2220 00ce BD46     		mov	sp, r7
 2221              	.LCFI44:
 2222              		.cfi_def_cfa_register 13
 2223              		@ sp needed
 2224 00d0 80BD     		pop	{r7, pc}
 2225              		.cfi_endproc
 2226              	.LFE21:
 2228              		.text
 2229              	.Letext0:
 2230              		.file 2 "C:/Users/dtjld/workspace/AIoT/src/LiteOS_Lab/iot_link/network/dtls/mbedtls/mbedtls-2.16.2
 2231              		.file 3 "c:\\ac6\\systemworkbench\\plugins\\fr.ac6.mcu.externaltools.arm-none.win32_1.16.0.2018071
 2232              		.file 4 "C:/Users/dtjld/workspace/AIoT/src/LiteOS_Lab/iot_link/network/dtls/mbedtls/mbedtls-2.16.2
 2233              		.file 5 "C:/Users/dtjld/workspace/AIoT/src/LiteOS_Lab/iot_link/network/dtls/mbedtls/mbedtls-2.16.2
 2234              		.file 6 "C:/Users/dtjld/workspace/AIoT/src/LiteOS_Lab/iot_link/network/dtls/mbedtls/mbedtls-2.16.2
 2235              		.file 7 "C:/Users/dtjld/workspace/AIoT/src/LiteOS_Lab/iot_link/network/dtls/mbedtls/mbedtls-2.16.2
 2236              		.file 8 "c:\\ac6\\systemworkbench\\plugins\\fr.ac6.mcu.externaltools.arm-none.win32_1.16.0.2018071
 2237              		.file 9 "c:\\ac6\\systemworkbench\\plugins\\fr.ac6.mcu.externaltools.arm-none.win32_1.16.0.2018071
 2238              		.file 10 "c:\\ac6\\systemworkbench\\plugins\\fr.ac6.mcu.externaltools.arm-none.win32_1.16.0.201807
 2239              		.file 11 "C:/Users/dtjld/workspace/AIoT/src/LiteOS_Lab/iot_link/network/dtls/mbedtls/mbedtls-2.16.
 2240              		.file 12 "c:\\ac6\\systemworkbench\\plugins\\fr.ac6.mcu.externaltools.arm-none.win32_1.16.0.201807
 2241              		.file 13 "c:\\ac6\\systemworkbench\\plugins\\fr.ac6.mcu.externaltools.arm-none.win32_1.16.0.201807
 2242              		.file 14 "C:/Users/dtjld/workspace/AIoT/src/LiteOS_Lab/iot_link/network/dtls/mbedtls/mbedtls-2.16.
ARM GAS  C:\Users\dtjld\AppData\Local\Temp\ccJIykE0.s 			page 55

