ARM GAS  C:\Users\dtjld\AppData\Local\Temp\ccCU8bQc.s 			page 1


   1              		.cpu cortex-m4
   2              		.eabi_attribute 27, 1
   3              		.eabi_attribute 28, 1
   4              		.eabi_attribute 20, 1
   5              		.eabi_attribute 21, 1
   6              		.eabi_attribute 23, 3
   7              		.eabi_attribute 24, 1
   8              		.eabi_attribute 25, 1
   9              		.eabi_attribute 26, 1
  10              		.eabi_attribute 30, 6
  11              		.eabi_attribute 34, 1
  12              		.eabi_attribute 18, 4
  13              		.file	"x509_create.c"
  14              		.text
  15              	.Ltext0:
  16              		.cfi_sections	.debug_frame
  17              		.section	.rodata
  18              		.align	2
  19              	.LC0:
  20 0000 434E00   		.ascii	"CN\000"
  21 0003 00       		.align	2
  22              	.LC1:
  23 0004 55040300 		.ascii	"U\004\003\000"
  24              		.align	2
  25              	.LC2:
  26 0008 636F6D6D 		.ascii	"commonName\000"
  26      6F6E4E61 
  26      6D6500
  27 0013 00       		.align	2
  28              	.LC3:
  29 0014 4300     		.ascii	"C\000"
  30 0016 0000     		.align	2
  31              	.LC4:
  32 0018 55040600 		.ascii	"U\004\006\000"
  33              		.align	2
  34              	.LC5:
  35 001c 636F756E 		.ascii	"countryName\000"
  35      7472794E 
  35      616D6500 
  36              		.align	2
  37              	.LC6:
  38 0028 4F00     		.ascii	"O\000"
  39 002a 0000     		.align	2
  40              	.LC7:
  41 002c 55040A00 		.ascii	"U\004\012\000"
  42              		.align	2
  43              	.LC8:
  44 0030 6F726761 		.ascii	"organizationName\000"
  44      6E697A61 
  44      74696F6E 
  44      4E616D65 
  44      00
  45 0041 000000   		.align	2
  46              	.LC9:
  47 0044 4C00     		.ascii	"L\000"
  48 0046 0000     		.align	2
  49              	.LC10:
ARM GAS  C:\Users\dtjld\AppData\Local\Temp\ccCU8bQc.s 			page 2


  50 0048 55040700 		.ascii	"U\004\007\000"
  51              		.align	2
  52              	.LC11:
  53 004c 6C6F6361 		.ascii	"locality\000"
  53      6C697479 
  53      00
  54 0055 000000   		.align	2
  55              	.LC12:
  56 0058 5200     		.ascii	"R\000"
  57 005a 0000     		.align	2
  58              	.LC13:
  59 005c 2A864886 		.ascii	"*\206H\206\367\015\001\011\001\000"
  59      F70D0109 
  59      0100
  60 0066 0000     		.align	2
  61              	.LC14:
  62 0068 4F5500   		.ascii	"OU\000"
  63 006b 00       		.align	2
  64              	.LC15:
  65 006c 55040B00 		.ascii	"U\004\013\000"
  66              		.align	2
  67              	.LC16:
  68 0070 6F726761 		.ascii	"organizationalUnitName\000"
  68      6E697A61 
  68      74696F6E 
  68      616C556E 
  68      69744E61 
  69 0087 00       		.align	2
  70              	.LC17:
  71 0088 535400   		.ascii	"ST\000"
  72 008b 00       		.align	2
  73              	.LC18:
  74 008c 55040800 		.ascii	"U\004\010\000"
  75              		.align	2
  76              	.LC19:
  77 0090 73746174 		.ascii	"stateOrProvinceName\000"
  77      654F7250 
  77      726F7669 
  77      6E63654E 
  77      616D6500 
  78              		.align	2
  79              	.LC20:
  80 00a4 656D6169 		.ascii	"emailAddress\000"
  80      6C416464 
  80      72657373 
  80      00
  81 00b1 000000   		.align	2
  82              	.LC21:
  83 00b4 73657269 		.ascii	"serialNumber\000"
  83      616C4E75 
  83      6D626572 
  83      00
  84 00c1 000000   		.align	2
  85              	.LC22:
  86 00c4 55040500 		.ascii	"U\004\005\000"
  87              		.align	2
  88              	.LC23:
ARM GAS  C:\Users\dtjld\AppData\Local\Temp\ccCU8bQc.s 			page 3


  89 00c8 706F7374 		.ascii	"postalAddress\000"
  89      616C4164 
  89      64726573 
  89      7300
  90 00d6 0000     		.align	2
  91              	.LC24:
  92 00d8 55041000 		.ascii	"U\004\020\000"
  93              		.align	2
  94              	.LC25:
  95 00dc 706F7374 		.ascii	"postalCode\000"
  95      616C436F 
  95      646500
  96 00e7 00       		.align	2
  97              	.LC26:
  98 00e8 55041100 		.ascii	"U\004\021\000"
  99              		.align	2
 100              	.LC27:
 101 00ec 646E5175 		.ascii	"dnQualifier\000"
 101      616C6966 
 101      69657200 
 102              		.align	2
 103              	.LC28:
 104 00f8 55042E00 		.ascii	"U\004.\000"
 105              		.align	2
 106              	.LC29:
 107 00fc 7469746C 		.ascii	"title\000"
 107      6500
 108 0102 0000     		.align	2
 109              	.LC30:
 110 0104 55040C00 		.ascii	"U\004\014\000"
 111              		.align	2
 112              	.LC31:
 113 0108 7375724E 		.ascii	"surName\000"
 113      616D6500 
 114              		.align	2
 115              	.LC32:
 116 0110 55040400 		.ascii	"U\004\004\000"
 117              		.align	2
 118              	.LC33:
 119 0114 534E00   		.ascii	"SN\000"
 120 0117 00       		.align	2
 121              	.LC34:
 122 0118 67697665 		.ascii	"givenName\000"
 122      6E4E616D 
 122      6500
 123 0122 0000     		.align	2
 124              	.LC35:
 125 0124 55042A00 		.ascii	"U\004*\000"
 126              		.align	2
 127              	.LC36:
 128 0128 474E00   		.ascii	"GN\000"
 129 012b 00       		.align	2
 130              	.LC37:
 131 012c 696E6974 		.ascii	"initials\000"
 131      69616C73 
 131      00
 132 0135 000000   		.align	2
ARM GAS  C:\Users\dtjld\AppData\Local\Temp\ccCU8bQc.s 			page 4


 133              	.LC38:
 134 0138 55042B00 		.ascii	"U\004+\000"
 135              		.align	2
 136              	.LC39:
 137 013c 70736575 		.ascii	"pseudonym\000"
 137      646F6E79 
 137      6D00
 138 0146 0000     		.align	2
 139              	.LC40:
 140 0148 55044100 		.ascii	"U\004A\000"
 141              		.align	2
 142              	.LC41:
 143 014c 67656E65 		.ascii	"generationQualifier\000"
 143      72617469 
 143      6F6E5175 
 143      616C6966 
 143      69657200 
 144              		.align	2
 145              	.LC42:
 146 0160 55042C00 		.ascii	"U\004,\000"
 147              		.align	2
 148              	.LC43:
 149 0164 646F6D61 		.ascii	"domainComponent\000"
 149      696E436F 
 149      6D706F6E 
 149      656E7400 
 150              		.align	2
 151              	.LC44:
 152 0174 09922689 		.ascii	"\011\222&\211\223\362,d\001\031\000"
 152      93F22C64 
 152      011900
 153 017f 00       		.align	2
 154              	.LC45:
 155 0180 444300   		.ascii	"DC\000"
 156              		.section	.rodata.x509_attrs,"a",%progbits
 157              		.align	2
 160              	x509_attrs:
 161 0000 00000000 		.word	.LC0
 162 0004 02000000 		.word	2
 163 0008 04000000 		.word	.LC1
 164 000c 0C000000 		.word	12
 165 0010 08000000 		.word	.LC2
 166 0014 0A000000 		.word	10
 167 0018 04000000 		.word	.LC1
 168 001c 0C000000 		.word	12
 169 0020 14000000 		.word	.LC3
 170 0024 01000000 		.word	1
 171 0028 18000000 		.word	.LC4
 172 002c 13000000 		.word	19
 173 0030 1C000000 		.word	.LC5
 174 0034 0B000000 		.word	11
 175 0038 18000000 		.word	.LC4
 176 003c 13000000 		.word	19
 177 0040 28000000 		.word	.LC6
 178 0044 01000000 		.word	1
 179 0048 2C000000 		.word	.LC7
 180 004c 0C000000 		.word	12
ARM GAS  C:\Users\dtjld\AppData\Local\Temp\ccCU8bQc.s 			page 5


 181 0050 30000000 		.word	.LC8
 182 0054 10000000 		.word	16
 183 0058 2C000000 		.word	.LC7
 184 005c 0C000000 		.word	12
 185 0060 44000000 		.word	.LC9
 186 0064 01000000 		.word	1
 187 0068 48000000 		.word	.LC10
 188 006c 0C000000 		.word	12
 189 0070 4C000000 		.word	.LC11
 190 0074 08000000 		.word	8
 191 0078 48000000 		.word	.LC10
 192 007c 0C000000 		.word	12
 193 0080 58000000 		.word	.LC12
 194 0084 01000000 		.word	1
 195 0088 5C000000 		.word	.LC13
 196 008c 16000000 		.word	22
 197 0090 68000000 		.word	.LC14
 198 0094 02000000 		.word	2
 199 0098 6C000000 		.word	.LC15
 200 009c 0C000000 		.word	12
 201 00a0 70000000 		.word	.LC16
 202 00a4 16000000 		.word	22
 203 00a8 6C000000 		.word	.LC15
 204 00ac 0C000000 		.word	12
 205 00b0 88000000 		.word	.LC17
 206 00b4 02000000 		.word	2
 207 00b8 8C000000 		.word	.LC18
 208 00bc 0C000000 		.word	12
 209 00c0 90000000 		.word	.LC19
 210 00c4 13000000 		.word	19
 211 00c8 8C000000 		.word	.LC18
 212 00cc 0C000000 		.word	12
 213 00d0 A4000000 		.word	.LC20
 214 00d4 0C000000 		.word	12
 215 00d8 5C000000 		.word	.LC13
 216 00dc 16000000 		.word	22
 217 00e0 B4000000 		.word	.LC21
 218 00e4 0C000000 		.word	12
 219 00e8 C4000000 		.word	.LC22
 220 00ec 13000000 		.word	19
 221 00f0 C8000000 		.word	.LC23
 222 00f4 0D000000 		.word	13
 223 00f8 D8000000 		.word	.LC24
 224 00fc 13000000 		.word	19
 225 0100 DC000000 		.word	.LC25
 226 0104 0A000000 		.word	10
 227 0108 E8000000 		.word	.LC26
 228 010c 13000000 		.word	19
 229 0110 EC000000 		.word	.LC27
 230 0114 0B000000 		.word	11
 231 0118 F8000000 		.word	.LC28
 232 011c 13000000 		.word	19
 233 0120 FC000000 		.word	.LC29
 234 0124 05000000 		.word	5
 235 0128 04010000 		.word	.LC30
 236 012c 0C000000 		.word	12
 237 0130 08010000 		.word	.LC31
ARM GAS  C:\Users\dtjld\AppData\Local\Temp\ccCU8bQc.s 			page 6


 238 0134 07000000 		.word	7
 239 0138 10010000 		.word	.LC32
 240 013c 0C000000 		.word	12
 241 0140 14010000 		.word	.LC33
 242 0144 02000000 		.word	2
 243 0148 10010000 		.word	.LC32
 244 014c 0C000000 		.word	12
 245 0150 18010000 		.word	.LC34
 246 0154 09000000 		.word	9
 247 0158 24010000 		.word	.LC35
 248 015c 0C000000 		.word	12
 249 0160 28010000 		.word	.LC36
 250 0164 02000000 		.word	2
 251 0168 24010000 		.word	.LC35
 252 016c 0C000000 		.word	12
 253 0170 2C010000 		.word	.LC37
 254 0174 08000000 		.word	8
 255 0178 38010000 		.word	.LC38
 256 017c 0C000000 		.word	12
 257 0180 3C010000 		.word	.LC39
 258 0184 09000000 		.word	9
 259 0188 48010000 		.word	.LC40
 260 018c 0C000000 		.word	12
 261 0190 4C010000 		.word	.LC41
 262 0194 13000000 		.word	19
 263 0198 60010000 		.word	.LC42
 264 019c 0C000000 		.word	12
 265 01a0 64010000 		.word	.LC43
 266 01a4 0F000000 		.word	15
 267 01a8 74010000 		.word	.LC44
 268 01ac 16000000 		.word	22
 269 01b0 80010000 		.word	.LC45
 270 01b4 02000000 		.word	2
 271 01b8 74010000 		.word	.LC44
 272 01bc 16000000 		.word	22
 273 01c0 00000000 		.word	0
 274 01c4 00000000 		.word	0
 275 01c8 00000000 		.word	0
 276 01cc 05000000 		.word	5
 277              		.section	.text.x509_attr_descr_from_name,"ax",%progbits
 278              		.align	1
 279              		.syntax unified
 280              		.thumb
 281              		.thumb_func
 282              		.fpu fpv4-sp-d16
 284              	x509_attr_descr_from_name:
 285              	.LFB10:
 286              		.file 1 "C:/Users/dtjld/workspace/AIoT/src/LiteOS_Lab/iot_link/network/dtls/mbedtls/mbedtls-2.16.2
   1:C:/Users/dtjld/workspace/AIoT/src/LiteOS_Lab/iot_link/network/dtls/mbedtls/mbedtls-2.16.2/library\x509_create.c **** /*
   2:C:/Users/dtjld/workspace/AIoT/src/LiteOS_Lab/iot_link/network/dtls/mbedtls/mbedtls-2.16.2/library\x509_create.c ****  *  X.509 base functions for creating certificates / CSRs
   3:C:/Users/dtjld/workspace/AIoT/src/LiteOS_Lab/iot_link/network/dtls/mbedtls/mbedtls-2.16.2/library\x509_create.c ****  *
   4:C:/Users/dtjld/workspace/AIoT/src/LiteOS_Lab/iot_link/network/dtls/mbedtls/mbedtls-2.16.2/library\x509_create.c ****  *  Copyright (C) 2006-2015, ARM Limited, All Rights Reserved
   5:C:/Users/dtjld/workspace/AIoT/src/LiteOS_Lab/iot_link/network/dtls/mbedtls/mbedtls-2.16.2/library\x509_create.c ****  *  SPDX-License-Identifier: Apache-2.0
   6:C:/Users/dtjld/workspace/AIoT/src/LiteOS_Lab/iot_link/network/dtls/mbedtls/mbedtls-2.16.2/library\x509_create.c ****  *
   7:C:/Users/dtjld/workspace/AIoT/src/LiteOS_Lab/iot_link/network/dtls/mbedtls/mbedtls-2.16.2/library\x509_create.c ****  *  Licensed under the Apache License, Version 2.0 (the "License"); you may
   8:C:/Users/dtjld/workspace/AIoT/src/LiteOS_Lab/iot_link/network/dtls/mbedtls/mbedtls-2.16.2/library\x509_create.c ****  *  not use this file except in compliance with the License.
   9:C:/Users/dtjld/workspace/AIoT/src/LiteOS_Lab/iot_link/network/dtls/mbedtls/mbedtls-2.16.2/library\x509_create.c ****  *  You may obtain a copy of the License at
ARM GAS  C:\Users\dtjld\AppData\Local\Temp\ccCU8bQc.s 			page 7


  10:C:/Users/dtjld/workspace/AIoT/src/LiteOS_Lab/iot_link/network/dtls/mbedtls/mbedtls-2.16.2/library\x509_create.c ****  *
  11:C:/Users/dtjld/workspace/AIoT/src/LiteOS_Lab/iot_link/network/dtls/mbedtls/mbedtls-2.16.2/library\x509_create.c ****  *  http://www.apache.org/licenses/LICENSE-2.0
  12:C:/Users/dtjld/workspace/AIoT/src/LiteOS_Lab/iot_link/network/dtls/mbedtls/mbedtls-2.16.2/library\x509_create.c ****  *
  13:C:/Users/dtjld/workspace/AIoT/src/LiteOS_Lab/iot_link/network/dtls/mbedtls/mbedtls-2.16.2/library\x509_create.c ****  *  Unless required by applicable law or agreed to in writing, software
  14:C:/Users/dtjld/workspace/AIoT/src/LiteOS_Lab/iot_link/network/dtls/mbedtls/mbedtls-2.16.2/library\x509_create.c ****  *  distributed under the License is distributed on an "AS IS" BASIS, WITHOUT
  15:C:/Users/dtjld/workspace/AIoT/src/LiteOS_Lab/iot_link/network/dtls/mbedtls/mbedtls-2.16.2/library\x509_create.c ****  *  WARRANTIES OR CONDITIONS OF ANY KIND, either express or implied.
  16:C:/Users/dtjld/workspace/AIoT/src/LiteOS_Lab/iot_link/network/dtls/mbedtls/mbedtls-2.16.2/library\x509_create.c ****  *  See the License for the specific language governing permissions and
  17:C:/Users/dtjld/workspace/AIoT/src/LiteOS_Lab/iot_link/network/dtls/mbedtls/mbedtls-2.16.2/library\x509_create.c ****  *  limitations under the License.
  18:C:/Users/dtjld/workspace/AIoT/src/LiteOS_Lab/iot_link/network/dtls/mbedtls/mbedtls-2.16.2/library\x509_create.c ****  *
  19:C:/Users/dtjld/workspace/AIoT/src/LiteOS_Lab/iot_link/network/dtls/mbedtls/mbedtls-2.16.2/library\x509_create.c ****  *  This file is part of mbed TLS (https://tls.mbed.org)
  20:C:/Users/dtjld/workspace/AIoT/src/LiteOS_Lab/iot_link/network/dtls/mbedtls/mbedtls-2.16.2/library\x509_create.c ****  */
  21:C:/Users/dtjld/workspace/AIoT/src/LiteOS_Lab/iot_link/network/dtls/mbedtls/mbedtls-2.16.2/library\x509_create.c **** 
  22:C:/Users/dtjld/workspace/AIoT/src/LiteOS_Lab/iot_link/network/dtls/mbedtls/mbedtls-2.16.2/library\x509_create.c **** #if !defined(MBEDTLS_CONFIG_FILE)
  23:C:/Users/dtjld/workspace/AIoT/src/LiteOS_Lab/iot_link/network/dtls/mbedtls/mbedtls-2.16.2/library\x509_create.c **** #include "mbedtls/config.h"
  24:C:/Users/dtjld/workspace/AIoT/src/LiteOS_Lab/iot_link/network/dtls/mbedtls/mbedtls-2.16.2/library\x509_create.c **** #else
  25:C:/Users/dtjld/workspace/AIoT/src/LiteOS_Lab/iot_link/network/dtls/mbedtls/mbedtls-2.16.2/library\x509_create.c **** #include MBEDTLS_CONFIG_FILE
  26:C:/Users/dtjld/workspace/AIoT/src/LiteOS_Lab/iot_link/network/dtls/mbedtls/mbedtls-2.16.2/library\x509_create.c **** #endif
  27:C:/Users/dtjld/workspace/AIoT/src/LiteOS_Lab/iot_link/network/dtls/mbedtls/mbedtls-2.16.2/library\x509_create.c **** 
  28:C:/Users/dtjld/workspace/AIoT/src/LiteOS_Lab/iot_link/network/dtls/mbedtls/mbedtls-2.16.2/library\x509_create.c **** #if defined(MBEDTLS_X509_CREATE_C)
  29:C:/Users/dtjld/workspace/AIoT/src/LiteOS_Lab/iot_link/network/dtls/mbedtls/mbedtls-2.16.2/library\x509_create.c **** 
  30:C:/Users/dtjld/workspace/AIoT/src/LiteOS_Lab/iot_link/network/dtls/mbedtls/mbedtls-2.16.2/library\x509_create.c **** #include "mbedtls/x509.h"
  31:C:/Users/dtjld/workspace/AIoT/src/LiteOS_Lab/iot_link/network/dtls/mbedtls/mbedtls-2.16.2/library\x509_create.c **** #include "mbedtls/asn1write.h"
  32:C:/Users/dtjld/workspace/AIoT/src/LiteOS_Lab/iot_link/network/dtls/mbedtls/mbedtls-2.16.2/library\x509_create.c **** #include "mbedtls/oid.h"
  33:C:/Users/dtjld/workspace/AIoT/src/LiteOS_Lab/iot_link/network/dtls/mbedtls/mbedtls-2.16.2/library\x509_create.c **** 
  34:C:/Users/dtjld/workspace/AIoT/src/LiteOS_Lab/iot_link/network/dtls/mbedtls/mbedtls-2.16.2/library\x509_create.c **** #include <string.h>
  35:C:/Users/dtjld/workspace/AIoT/src/LiteOS_Lab/iot_link/network/dtls/mbedtls/mbedtls-2.16.2/library\x509_create.c **** 
  36:C:/Users/dtjld/workspace/AIoT/src/LiteOS_Lab/iot_link/network/dtls/mbedtls/mbedtls-2.16.2/library\x509_create.c **** /* Structure linking OIDs for X.509 DN AttributeTypes to their
  37:C:/Users/dtjld/workspace/AIoT/src/LiteOS_Lab/iot_link/network/dtls/mbedtls/mbedtls-2.16.2/library\x509_create.c ****  * string representations and default string encodings used by Mbed TLS. */
  38:C:/Users/dtjld/workspace/AIoT/src/LiteOS_Lab/iot_link/network/dtls/mbedtls/mbedtls-2.16.2/library\x509_create.c **** typedef struct {
  39:C:/Users/dtjld/workspace/AIoT/src/LiteOS_Lab/iot_link/network/dtls/mbedtls/mbedtls-2.16.2/library\x509_create.c ****    const char *name; /* String representation of AttributeType, e.g.
  40:C:/Users/dtjld/workspace/AIoT/src/LiteOS_Lab/iot_link/network/dtls/mbedtls/mbedtls-2.16.2/library\x509_create.c ****                       * "CN" or "emailAddress". */
  41:C:/Users/dtjld/workspace/AIoT/src/LiteOS_Lab/iot_link/network/dtls/mbedtls/mbedtls-2.16.2/library\x509_create.c ****    size_t name_len;  /* Length of 'name', without trailing 0 byte. */
  42:C:/Users/dtjld/workspace/AIoT/src/LiteOS_Lab/iot_link/network/dtls/mbedtls/mbedtls-2.16.2/library\x509_create.c ****    const char *oid;  /* String representation of OID of AttributeType,
  43:C:/Users/dtjld/workspace/AIoT/src/LiteOS_Lab/iot_link/network/dtls/mbedtls/mbedtls-2.16.2/library\x509_create.c ****                       * as per RFC 5280, Appendix A.1. */
  44:C:/Users/dtjld/workspace/AIoT/src/LiteOS_Lab/iot_link/network/dtls/mbedtls/mbedtls-2.16.2/library\x509_create.c ****    int default_tag;  /* The default character encoding used for the
  45:C:/Users/dtjld/workspace/AIoT/src/LiteOS_Lab/iot_link/network/dtls/mbedtls/mbedtls-2.16.2/library\x509_create.c ****                       * given attribute type, e.g.
  46:C:/Users/dtjld/workspace/AIoT/src/LiteOS_Lab/iot_link/network/dtls/mbedtls/mbedtls-2.16.2/library\x509_create.c ****                       * MBEDTLS_ASN1_UTF8_STRING for UTF-8. */
  47:C:/Users/dtjld/workspace/AIoT/src/LiteOS_Lab/iot_link/network/dtls/mbedtls/mbedtls-2.16.2/library\x509_create.c **** } x509_attr_descriptor_t;
  48:C:/Users/dtjld/workspace/AIoT/src/LiteOS_Lab/iot_link/network/dtls/mbedtls/mbedtls-2.16.2/library\x509_create.c **** 
  49:C:/Users/dtjld/workspace/AIoT/src/LiteOS_Lab/iot_link/network/dtls/mbedtls/mbedtls-2.16.2/library\x509_create.c **** #define ADD_STRLEN( s )     s, sizeof( s ) - 1
  50:C:/Users/dtjld/workspace/AIoT/src/LiteOS_Lab/iot_link/network/dtls/mbedtls/mbedtls-2.16.2/library\x509_create.c **** 
  51:C:/Users/dtjld/workspace/AIoT/src/LiteOS_Lab/iot_link/network/dtls/mbedtls/mbedtls-2.16.2/library\x509_create.c **** /* X.509 DN attributes from RFC 5280, Appendix A.1. */
  52:C:/Users/dtjld/workspace/AIoT/src/LiteOS_Lab/iot_link/network/dtls/mbedtls/mbedtls-2.16.2/library\x509_create.c **** static const x509_attr_descriptor_t x509_attrs[] =
  53:C:/Users/dtjld/workspace/AIoT/src/LiteOS_Lab/iot_link/network/dtls/mbedtls/mbedtls-2.16.2/library\x509_create.c **** {
  54:C:/Users/dtjld/workspace/AIoT/src/LiteOS_Lab/iot_link/network/dtls/mbedtls/mbedtls-2.16.2/library\x509_create.c ****     { ADD_STRLEN( "CN" ),
  55:C:/Users/dtjld/workspace/AIoT/src/LiteOS_Lab/iot_link/network/dtls/mbedtls/mbedtls-2.16.2/library\x509_create.c ****       MBEDTLS_OID_AT_CN, MBEDTLS_ASN1_UTF8_STRING },
  56:C:/Users/dtjld/workspace/AIoT/src/LiteOS_Lab/iot_link/network/dtls/mbedtls/mbedtls-2.16.2/library\x509_create.c ****     { ADD_STRLEN( "commonName" ),
  57:C:/Users/dtjld/workspace/AIoT/src/LiteOS_Lab/iot_link/network/dtls/mbedtls/mbedtls-2.16.2/library\x509_create.c ****       MBEDTLS_OID_AT_CN, MBEDTLS_ASN1_UTF8_STRING },
  58:C:/Users/dtjld/workspace/AIoT/src/LiteOS_Lab/iot_link/network/dtls/mbedtls/mbedtls-2.16.2/library\x509_create.c ****     { ADD_STRLEN( "C" ),
  59:C:/Users/dtjld/workspace/AIoT/src/LiteOS_Lab/iot_link/network/dtls/mbedtls/mbedtls-2.16.2/library\x509_create.c ****       MBEDTLS_OID_AT_COUNTRY, MBEDTLS_ASN1_PRINTABLE_STRING },
  60:C:/Users/dtjld/workspace/AIoT/src/LiteOS_Lab/iot_link/network/dtls/mbedtls/mbedtls-2.16.2/library\x509_create.c ****     { ADD_STRLEN( "countryName" ),
  61:C:/Users/dtjld/workspace/AIoT/src/LiteOS_Lab/iot_link/network/dtls/mbedtls/mbedtls-2.16.2/library\x509_create.c ****       MBEDTLS_OID_AT_COUNTRY, MBEDTLS_ASN1_PRINTABLE_STRING },
  62:C:/Users/dtjld/workspace/AIoT/src/LiteOS_Lab/iot_link/network/dtls/mbedtls/mbedtls-2.16.2/library\x509_create.c ****     { ADD_STRLEN( "O" ),
  63:C:/Users/dtjld/workspace/AIoT/src/LiteOS_Lab/iot_link/network/dtls/mbedtls/mbedtls-2.16.2/library\x509_create.c ****       MBEDTLS_OID_AT_ORGANIZATION, MBEDTLS_ASN1_UTF8_STRING },
  64:C:/Users/dtjld/workspace/AIoT/src/LiteOS_Lab/iot_link/network/dtls/mbedtls/mbedtls-2.16.2/library\x509_create.c ****     { ADD_STRLEN( "organizationName" ),
  65:C:/Users/dtjld/workspace/AIoT/src/LiteOS_Lab/iot_link/network/dtls/mbedtls/mbedtls-2.16.2/library\x509_create.c ****       MBEDTLS_OID_AT_ORGANIZATION, MBEDTLS_ASN1_UTF8_STRING },
  66:C:/Users/dtjld/workspace/AIoT/src/LiteOS_Lab/iot_link/network/dtls/mbedtls/mbedtls-2.16.2/library\x509_create.c ****     { ADD_STRLEN( "L" ),
ARM GAS  C:\Users\dtjld\AppData\Local\Temp\ccCU8bQc.s 			page 8


  67:C:/Users/dtjld/workspace/AIoT/src/LiteOS_Lab/iot_link/network/dtls/mbedtls/mbedtls-2.16.2/library\x509_create.c ****       MBEDTLS_OID_AT_LOCALITY, MBEDTLS_ASN1_UTF8_STRING },
  68:C:/Users/dtjld/workspace/AIoT/src/LiteOS_Lab/iot_link/network/dtls/mbedtls/mbedtls-2.16.2/library\x509_create.c ****     { ADD_STRLEN( "locality" ),
  69:C:/Users/dtjld/workspace/AIoT/src/LiteOS_Lab/iot_link/network/dtls/mbedtls/mbedtls-2.16.2/library\x509_create.c ****       MBEDTLS_OID_AT_LOCALITY, MBEDTLS_ASN1_UTF8_STRING },
  70:C:/Users/dtjld/workspace/AIoT/src/LiteOS_Lab/iot_link/network/dtls/mbedtls/mbedtls-2.16.2/library\x509_create.c ****     { ADD_STRLEN( "R" ),
  71:C:/Users/dtjld/workspace/AIoT/src/LiteOS_Lab/iot_link/network/dtls/mbedtls/mbedtls-2.16.2/library\x509_create.c ****       MBEDTLS_OID_PKCS9_EMAIL, MBEDTLS_ASN1_IA5_STRING },
  72:C:/Users/dtjld/workspace/AIoT/src/LiteOS_Lab/iot_link/network/dtls/mbedtls/mbedtls-2.16.2/library\x509_create.c ****     { ADD_STRLEN( "OU" ),
  73:C:/Users/dtjld/workspace/AIoT/src/LiteOS_Lab/iot_link/network/dtls/mbedtls/mbedtls-2.16.2/library\x509_create.c ****       MBEDTLS_OID_AT_ORG_UNIT, MBEDTLS_ASN1_UTF8_STRING },
  74:C:/Users/dtjld/workspace/AIoT/src/LiteOS_Lab/iot_link/network/dtls/mbedtls/mbedtls-2.16.2/library\x509_create.c ****     { ADD_STRLEN( "organizationalUnitName" ),
  75:C:/Users/dtjld/workspace/AIoT/src/LiteOS_Lab/iot_link/network/dtls/mbedtls/mbedtls-2.16.2/library\x509_create.c ****       MBEDTLS_OID_AT_ORG_UNIT, MBEDTLS_ASN1_UTF8_STRING },
  76:C:/Users/dtjld/workspace/AIoT/src/LiteOS_Lab/iot_link/network/dtls/mbedtls/mbedtls-2.16.2/library\x509_create.c ****     { ADD_STRLEN( "ST" ),
  77:C:/Users/dtjld/workspace/AIoT/src/LiteOS_Lab/iot_link/network/dtls/mbedtls/mbedtls-2.16.2/library\x509_create.c ****       MBEDTLS_OID_AT_STATE, MBEDTLS_ASN1_UTF8_STRING },
  78:C:/Users/dtjld/workspace/AIoT/src/LiteOS_Lab/iot_link/network/dtls/mbedtls/mbedtls-2.16.2/library\x509_create.c ****     { ADD_STRLEN( "stateOrProvinceName" ),
  79:C:/Users/dtjld/workspace/AIoT/src/LiteOS_Lab/iot_link/network/dtls/mbedtls/mbedtls-2.16.2/library\x509_create.c ****       MBEDTLS_OID_AT_STATE, MBEDTLS_ASN1_UTF8_STRING },
  80:C:/Users/dtjld/workspace/AIoT/src/LiteOS_Lab/iot_link/network/dtls/mbedtls/mbedtls-2.16.2/library\x509_create.c ****     { ADD_STRLEN( "emailAddress" ),
  81:C:/Users/dtjld/workspace/AIoT/src/LiteOS_Lab/iot_link/network/dtls/mbedtls/mbedtls-2.16.2/library\x509_create.c ****       MBEDTLS_OID_PKCS9_EMAIL, MBEDTLS_ASN1_IA5_STRING },
  82:C:/Users/dtjld/workspace/AIoT/src/LiteOS_Lab/iot_link/network/dtls/mbedtls/mbedtls-2.16.2/library\x509_create.c ****     { ADD_STRLEN( "serialNumber" ),
  83:C:/Users/dtjld/workspace/AIoT/src/LiteOS_Lab/iot_link/network/dtls/mbedtls/mbedtls-2.16.2/library\x509_create.c ****       MBEDTLS_OID_AT_SERIAL_NUMBER, MBEDTLS_ASN1_PRINTABLE_STRING },
  84:C:/Users/dtjld/workspace/AIoT/src/LiteOS_Lab/iot_link/network/dtls/mbedtls/mbedtls-2.16.2/library\x509_create.c ****     { ADD_STRLEN( "postalAddress" ),
  85:C:/Users/dtjld/workspace/AIoT/src/LiteOS_Lab/iot_link/network/dtls/mbedtls/mbedtls-2.16.2/library\x509_create.c ****       MBEDTLS_OID_AT_POSTAL_ADDRESS, MBEDTLS_ASN1_PRINTABLE_STRING },
  86:C:/Users/dtjld/workspace/AIoT/src/LiteOS_Lab/iot_link/network/dtls/mbedtls/mbedtls-2.16.2/library\x509_create.c ****     { ADD_STRLEN( "postalCode" ),
  87:C:/Users/dtjld/workspace/AIoT/src/LiteOS_Lab/iot_link/network/dtls/mbedtls/mbedtls-2.16.2/library\x509_create.c ****       MBEDTLS_OID_AT_POSTAL_CODE, MBEDTLS_ASN1_PRINTABLE_STRING },
  88:C:/Users/dtjld/workspace/AIoT/src/LiteOS_Lab/iot_link/network/dtls/mbedtls/mbedtls-2.16.2/library\x509_create.c ****     { ADD_STRLEN( "dnQualifier" ),
  89:C:/Users/dtjld/workspace/AIoT/src/LiteOS_Lab/iot_link/network/dtls/mbedtls/mbedtls-2.16.2/library\x509_create.c ****       MBEDTLS_OID_AT_DN_QUALIFIER, MBEDTLS_ASN1_PRINTABLE_STRING },
  90:C:/Users/dtjld/workspace/AIoT/src/LiteOS_Lab/iot_link/network/dtls/mbedtls/mbedtls-2.16.2/library\x509_create.c ****     { ADD_STRLEN( "title" ),
  91:C:/Users/dtjld/workspace/AIoT/src/LiteOS_Lab/iot_link/network/dtls/mbedtls/mbedtls-2.16.2/library\x509_create.c ****       MBEDTLS_OID_AT_TITLE, MBEDTLS_ASN1_UTF8_STRING },
  92:C:/Users/dtjld/workspace/AIoT/src/LiteOS_Lab/iot_link/network/dtls/mbedtls/mbedtls-2.16.2/library\x509_create.c ****     { ADD_STRLEN( "surName" ),
  93:C:/Users/dtjld/workspace/AIoT/src/LiteOS_Lab/iot_link/network/dtls/mbedtls/mbedtls-2.16.2/library\x509_create.c ****       MBEDTLS_OID_AT_SUR_NAME, MBEDTLS_ASN1_UTF8_STRING },
  94:C:/Users/dtjld/workspace/AIoT/src/LiteOS_Lab/iot_link/network/dtls/mbedtls/mbedtls-2.16.2/library\x509_create.c ****     { ADD_STRLEN( "SN" ),
  95:C:/Users/dtjld/workspace/AIoT/src/LiteOS_Lab/iot_link/network/dtls/mbedtls/mbedtls-2.16.2/library\x509_create.c ****       MBEDTLS_OID_AT_SUR_NAME, MBEDTLS_ASN1_UTF8_STRING },
  96:C:/Users/dtjld/workspace/AIoT/src/LiteOS_Lab/iot_link/network/dtls/mbedtls/mbedtls-2.16.2/library\x509_create.c ****     { ADD_STRLEN( "givenName" ),
  97:C:/Users/dtjld/workspace/AIoT/src/LiteOS_Lab/iot_link/network/dtls/mbedtls/mbedtls-2.16.2/library\x509_create.c ****       MBEDTLS_OID_AT_GIVEN_NAME, MBEDTLS_ASN1_UTF8_STRING },
  98:C:/Users/dtjld/workspace/AIoT/src/LiteOS_Lab/iot_link/network/dtls/mbedtls/mbedtls-2.16.2/library\x509_create.c ****     { ADD_STRLEN( "GN" ),
  99:C:/Users/dtjld/workspace/AIoT/src/LiteOS_Lab/iot_link/network/dtls/mbedtls/mbedtls-2.16.2/library\x509_create.c ****       MBEDTLS_OID_AT_GIVEN_NAME, MBEDTLS_ASN1_UTF8_STRING },
 100:C:/Users/dtjld/workspace/AIoT/src/LiteOS_Lab/iot_link/network/dtls/mbedtls/mbedtls-2.16.2/library\x509_create.c ****     { ADD_STRLEN( "initials" ),
 101:C:/Users/dtjld/workspace/AIoT/src/LiteOS_Lab/iot_link/network/dtls/mbedtls/mbedtls-2.16.2/library\x509_create.c ****       MBEDTLS_OID_AT_INITIALS, MBEDTLS_ASN1_UTF8_STRING },
 102:C:/Users/dtjld/workspace/AIoT/src/LiteOS_Lab/iot_link/network/dtls/mbedtls/mbedtls-2.16.2/library\x509_create.c ****     { ADD_STRLEN( "pseudonym" ),
 103:C:/Users/dtjld/workspace/AIoT/src/LiteOS_Lab/iot_link/network/dtls/mbedtls/mbedtls-2.16.2/library\x509_create.c ****       MBEDTLS_OID_AT_PSEUDONYM, MBEDTLS_ASN1_UTF8_STRING },
 104:C:/Users/dtjld/workspace/AIoT/src/LiteOS_Lab/iot_link/network/dtls/mbedtls/mbedtls-2.16.2/library\x509_create.c ****     { ADD_STRLEN( "generationQualifier" ),
 105:C:/Users/dtjld/workspace/AIoT/src/LiteOS_Lab/iot_link/network/dtls/mbedtls/mbedtls-2.16.2/library\x509_create.c ****       MBEDTLS_OID_AT_GENERATION_QUALIFIER, MBEDTLS_ASN1_UTF8_STRING },
 106:C:/Users/dtjld/workspace/AIoT/src/LiteOS_Lab/iot_link/network/dtls/mbedtls/mbedtls-2.16.2/library\x509_create.c ****     { ADD_STRLEN( "domainComponent" ),
 107:C:/Users/dtjld/workspace/AIoT/src/LiteOS_Lab/iot_link/network/dtls/mbedtls/mbedtls-2.16.2/library\x509_create.c ****       MBEDTLS_OID_DOMAIN_COMPONENT, MBEDTLS_ASN1_IA5_STRING },
 108:C:/Users/dtjld/workspace/AIoT/src/LiteOS_Lab/iot_link/network/dtls/mbedtls/mbedtls-2.16.2/library\x509_create.c ****     { ADD_STRLEN( "DC" ),
 109:C:/Users/dtjld/workspace/AIoT/src/LiteOS_Lab/iot_link/network/dtls/mbedtls/mbedtls-2.16.2/library\x509_create.c ****       MBEDTLS_OID_DOMAIN_COMPONENT,   MBEDTLS_ASN1_IA5_STRING },
 110:C:/Users/dtjld/workspace/AIoT/src/LiteOS_Lab/iot_link/network/dtls/mbedtls/mbedtls-2.16.2/library\x509_create.c ****     { NULL, 0, NULL, MBEDTLS_ASN1_NULL }
 111:C:/Users/dtjld/workspace/AIoT/src/LiteOS_Lab/iot_link/network/dtls/mbedtls/mbedtls-2.16.2/library\x509_create.c **** };
 112:C:/Users/dtjld/workspace/AIoT/src/LiteOS_Lab/iot_link/network/dtls/mbedtls/mbedtls-2.16.2/library\x509_create.c **** 
 113:C:/Users/dtjld/workspace/AIoT/src/LiteOS_Lab/iot_link/network/dtls/mbedtls/mbedtls-2.16.2/library\x509_create.c **** static const x509_attr_descriptor_t *x509_attr_descr_from_name( const char *name, size_t name_len )
 114:C:/Users/dtjld/workspace/AIoT/src/LiteOS_Lab/iot_link/network/dtls/mbedtls/mbedtls-2.16.2/library\x509_create.c **** {
 287              		.loc 1 114 0
 288              		.cfi_startproc
 289              		@ args = 0, pretend = 0, frame = 16
 290              		@ frame_needed = 1, uses_anonymous_args = 0
 291 0000 80B5     		push	{r7, lr}
 292              	.LCFI0:
 293              		.cfi_def_cfa_offset 8
 294              		.cfi_offset 7, -8
 295              		.cfi_offset 14, -4
ARM GAS  C:\Users\dtjld\AppData\Local\Temp\ccCU8bQc.s 			page 9


 296 0002 84B0     		sub	sp, sp, #16
 297              	.LCFI1:
 298              		.cfi_def_cfa_offset 24
 299 0004 00AF     		add	r7, sp, #0
 300              	.LCFI2:
 301              		.cfi_def_cfa_register 7
 302 0006 7860     		str	r0, [r7, #4]
 303 0008 3960     		str	r1, [r7]
 115:C:/Users/dtjld/workspace/AIoT/src/LiteOS_Lab/iot_link/network/dtls/mbedtls/mbedtls-2.16.2/library\x509_create.c ****     const x509_attr_descriptor_t *cur;
 116:C:/Users/dtjld/workspace/AIoT/src/LiteOS_Lab/iot_link/network/dtls/mbedtls/mbedtls-2.16.2/library\x509_create.c **** 
 117:C:/Users/dtjld/workspace/AIoT/src/LiteOS_Lab/iot_link/network/dtls/mbedtls/mbedtls-2.16.2/library\x509_create.c ****     for( cur = x509_attrs; cur->name != NULL; cur++ )
 304              		.loc 1 117 0
 305 000a 134B     		ldr	r3, .L9
 306 000c FB60     		str	r3, [r7, #12]
 307 000e 11E0     		b	.L2
 308              	.L5:
 118:C:/Users/dtjld/workspace/AIoT/src/LiteOS_Lab/iot_link/network/dtls/mbedtls/mbedtls-2.16.2/library\x509_create.c ****         if( cur->name_len == name_len &&
 309              		.loc 1 118 0
 310 0010 FB68     		ldr	r3, [r7, #12]
 311 0012 5B68     		ldr	r3, [r3, #4]
 312 0014 3A68     		ldr	r2, [r7]
 313 0016 9A42     		cmp	r2, r3
 314 0018 09D1     		bne	.L3
 119:C:/Users/dtjld/workspace/AIoT/src/LiteOS_Lab/iot_link/network/dtls/mbedtls/mbedtls-2.16.2/library\x509_create.c ****             strncmp( cur->name, name, name_len ) == 0 )
 315              		.loc 1 119 0 discriminator 1
 316 001a FB68     		ldr	r3, [r7, #12]
 317 001c 1B68     		ldr	r3, [r3]
 318 001e 3A68     		ldr	r2, [r7]
 319 0020 7968     		ldr	r1, [r7, #4]
 320 0022 1846     		mov	r0, r3
 321 0024 FFF7FEFF 		bl	strncmp
 322 0028 0346     		mov	r3, r0
 118:C:/Users/dtjld/workspace/AIoT/src/LiteOS_Lab/iot_link/network/dtls/mbedtls/mbedtls-2.16.2/library\x509_create.c ****         if( cur->name_len == name_len &&
 323              		.loc 1 118 0 discriminator 1
 324 002a 002B     		cmp	r3, #0
 325 002c 07D0     		beq	.L8
 326              	.L3:
 117:C:/Users/dtjld/workspace/AIoT/src/LiteOS_Lab/iot_link/network/dtls/mbedtls/mbedtls-2.16.2/library\x509_create.c ****         if( cur->name_len == name_len &&
 327              		.loc 1 117 0 discriminator 2
 328 002e FB68     		ldr	r3, [r7, #12]
 329 0030 1033     		adds	r3, r3, #16
 330 0032 FB60     		str	r3, [r7, #12]
 331              	.L2:
 117:C:/Users/dtjld/workspace/AIoT/src/LiteOS_Lab/iot_link/network/dtls/mbedtls/mbedtls-2.16.2/library\x509_create.c ****         if( cur->name_len == name_len &&
 332              		.loc 1 117 0 is_stmt 0 discriminator 1
 333 0034 FB68     		ldr	r3, [r7, #12]
 334 0036 1B68     		ldr	r3, [r3]
 335 0038 002B     		cmp	r3, #0
 336 003a E9D1     		bne	.L5
 337 003c 00E0     		b	.L4
 338              	.L8:
 120:C:/Users/dtjld/workspace/AIoT/src/LiteOS_Lab/iot_link/network/dtls/mbedtls/mbedtls-2.16.2/library\x509_create.c ****             break;
 339              		.loc 1 120 0 is_stmt 1
 340 003e 00BF     		nop
 341              	.L4:
 121:C:/Users/dtjld/workspace/AIoT/src/LiteOS_Lab/iot_link/network/dtls/mbedtls/mbedtls-2.16.2/library\x509_create.c **** 
 122:C:/Users/dtjld/workspace/AIoT/src/LiteOS_Lab/iot_link/network/dtls/mbedtls/mbedtls-2.16.2/library\x509_create.c ****     if ( cur->name == NULL )
ARM GAS  C:\Users\dtjld\AppData\Local\Temp\ccCU8bQc.s 			page 10


 342              		.loc 1 122 0
 343 0040 FB68     		ldr	r3, [r7, #12]
 344 0042 1B68     		ldr	r3, [r3]
 345 0044 002B     		cmp	r3, #0
 346 0046 01D1     		bne	.L6
 123:C:/Users/dtjld/workspace/AIoT/src/LiteOS_Lab/iot_link/network/dtls/mbedtls/mbedtls-2.16.2/library\x509_create.c ****         return( NULL );
 347              		.loc 1 123 0
 348 0048 0023     		movs	r3, #0
 349 004a 00E0     		b	.L7
 350              	.L6:
 124:C:/Users/dtjld/workspace/AIoT/src/LiteOS_Lab/iot_link/network/dtls/mbedtls/mbedtls-2.16.2/library\x509_create.c **** 
 125:C:/Users/dtjld/workspace/AIoT/src/LiteOS_Lab/iot_link/network/dtls/mbedtls/mbedtls-2.16.2/library\x509_create.c ****     return( cur );
 351              		.loc 1 125 0
 352 004c FB68     		ldr	r3, [r7, #12]
 353              	.L7:
 126:C:/Users/dtjld/workspace/AIoT/src/LiteOS_Lab/iot_link/network/dtls/mbedtls/mbedtls-2.16.2/library\x509_create.c **** }
 354              		.loc 1 126 0
 355 004e 1846     		mov	r0, r3
 356 0050 1037     		adds	r7, r7, #16
 357              	.LCFI3:
 358              		.cfi_def_cfa_offset 8
 359 0052 BD46     		mov	sp, r7
 360              	.LCFI4:
 361              		.cfi_def_cfa_register 13
 362              		@ sp needed
 363 0054 80BD     		pop	{r7, pc}
 364              	.L10:
 365 0056 00BF     		.align	2
 366              	.L9:
 367 0058 00000000 		.word	x509_attrs
 368              		.cfi_endproc
 369              	.LFE10:
 371              		.section	.text.mbedtls_x509_string_to_names,"ax",%progbits
 372              		.align	1
 373              		.global	mbedtls_x509_string_to_names
 374              		.syntax unified
 375              		.thumb
 376              		.thumb_func
 377              		.fpu fpv4-sp-d16
 379              	mbedtls_x509_string_to_names:
 380              	.LFB11:
 127:C:/Users/dtjld/workspace/AIoT/src/LiteOS_Lab/iot_link/network/dtls/mbedtls/mbedtls-2.16.2/library\x509_create.c **** 
 128:C:/Users/dtjld/workspace/AIoT/src/LiteOS_Lab/iot_link/network/dtls/mbedtls/mbedtls-2.16.2/library\x509_create.c **** int mbedtls_x509_string_to_names( mbedtls_asn1_named_data **head, const char *name )
 129:C:/Users/dtjld/workspace/AIoT/src/LiteOS_Lab/iot_link/network/dtls/mbedtls/mbedtls-2.16.2/library\x509_create.c **** {
 381              		.loc 1 129 0
 382              		.cfi_startproc
 383              		@ args = 0, pretend = 0, frame = 304
 384              		@ frame_needed = 1, uses_anonymous_args = 0
 385 0000 80B5     		push	{r7, lr}
 386              	.LCFI5:
 387              		.cfi_def_cfa_offset 8
 388              		.cfi_offset 7, -8
 389              		.cfi_offset 14, -4
 390 0002 CEB0     		sub	sp, sp, #312
 391              	.LCFI6:
 392              		.cfi_def_cfa_offset 320
 393 0004 02AF     		add	r7, sp, #8
ARM GAS  C:\Users\dtjld\AppData\Local\Temp\ccCU8bQc.s 			page 11


 394              	.LCFI7:
 395              		.cfi_def_cfa 7, 312
 396 0006 3B1D     		adds	r3, r7, #4
 397 0008 1860     		str	r0, [r3]
 398 000a 3B46     		mov	r3, r7
 399 000c 1960     		str	r1, [r3]
 130:C:/Users/dtjld/workspace/AIoT/src/LiteOS_Lab/iot_link/network/dtls/mbedtls/mbedtls-2.16.2/library\x509_create.c ****     int ret = 0;
 400              		.loc 1 130 0
 401 000e 0023     		movs	r3, #0
 402 0010 C7F82C31 		str	r3, [r7, #300]
 131:C:/Users/dtjld/workspace/AIoT/src/LiteOS_Lab/iot_link/network/dtls/mbedtls/mbedtls-2.16.2/library\x509_create.c ****     const char *s = name, *c = s;
 403              		.loc 1 131 0
 404 0014 3B46     		mov	r3, r7
 405 0016 1B68     		ldr	r3, [r3]
 406 0018 C7F82831 		str	r3, [r7, #296]
 407 001c D7F82831 		ldr	r3, [r7, #296]
 408 0020 C7F82431 		str	r3, [r7, #292]
 132:C:/Users/dtjld/workspace/AIoT/src/LiteOS_Lab/iot_link/network/dtls/mbedtls/mbedtls-2.16.2/library\x509_create.c ****     const char *end = s + strlen( s );
 409              		.loc 1 132 0
 410 0024 D7F82801 		ldr	r0, [r7, #296]
 411 0028 FFF7FEFF 		bl	strlen
 412 002c 0246     		mov	r2, r0
 413 002e D7F82831 		ldr	r3, [r7, #296]
 414 0032 1344     		add	r3, r3, r2
 415 0034 C7F81031 		str	r3, [r7, #272]
 133:C:/Users/dtjld/workspace/AIoT/src/LiteOS_Lab/iot_link/network/dtls/mbedtls/mbedtls-2.16.2/library\x509_create.c ****     const char *oid = NULL;
 416              		.loc 1 133 0
 417 0038 0023     		movs	r3, #0
 418 003a C7F82031 		str	r3, [r7, #288]
 134:C:/Users/dtjld/workspace/AIoT/src/LiteOS_Lab/iot_link/network/dtls/mbedtls/mbedtls-2.16.2/library\x509_create.c ****     const x509_attr_descriptor_t* attr_descr = NULL;
 419              		.loc 1 134 0
 420 003e 0023     		movs	r3, #0
 421 0040 C7F81C31 		str	r3, [r7, #284]
 135:C:/Users/dtjld/workspace/AIoT/src/LiteOS_Lab/iot_link/network/dtls/mbedtls/mbedtls-2.16.2/library\x509_create.c ****     int in_tag = 1;
 422              		.loc 1 135 0
 423 0044 0123     		movs	r3, #1
 424 0046 C7F81831 		str	r3, [r7, #280]
 136:C:/Users/dtjld/workspace/AIoT/src/LiteOS_Lab/iot_link/network/dtls/mbedtls/mbedtls-2.16.2/library\x509_create.c ****     char data[MBEDTLS_X509_MAX_DN_NAME_SIZE];
 137:C:/Users/dtjld/workspace/AIoT/src/LiteOS_Lab/iot_link/network/dtls/mbedtls/mbedtls-2.16.2/library\x509_create.c ****     char *d = data;
 425              		.loc 1 137 0
 426 004a 07F10C03 		add	r3, r7, #12
 427 004e C7F81431 		str	r3, [r7, #276]
 138:C:/Users/dtjld/workspace/AIoT/src/LiteOS_Lab/iot_link/network/dtls/mbedtls/mbedtls-2.16.2/library\x509_create.c **** 
 139:C:/Users/dtjld/workspace/AIoT/src/LiteOS_Lab/iot_link/network/dtls/mbedtls/mbedtls-2.16.2/library\x509_create.c ****     /* Clear existing chain if present */
 140:C:/Users/dtjld/workspace/AIoT/src/LiteOS_Lab/iot_link/network/dtls/mbedtls/mbedtls-2.16.2/library\x509_create.c ****     mbedtls_asn1_free_named_data_list( head );
 428              		.loc 1 140 0
 429 0052 3B1D     		adds	r3, r7, #4
 430 0054 1868     		ldr	r0, [r3]
 431 0056 FFF7FEFF 		bl	mbedtls_asn1_free_named_data_list
 141:C:/Users/dtjld/workspace/AIoT/src/LiteOS_Lab/iot_link/network/dtls/mbedtls/mbedtls-2.16.2/library\x509_create.c **** 
 142:C:/Users/dtjld/workspace/AIoT/src/LiteOS_Lab/iot_link/network/dtls/mbedtls/mbedtls-2.16.2/library\x509_create.c ****     while( c <= end )
 432              		.loc 1 142 0
 433 005a C3E0     		b	.L12
 434              	.L27:
 143:C:/Users/dtjld/workspace/AIoT/src/LiteOS_Lab/iot_link/network/dtls/mbedtls/mbedtls-2.16.2/library\x509_create.c ****     {
 144:C:/Users/dtjld/workspace/AIoT/src/LiteOS_Lab/iot_link/network/dtls/mbedtls/mbedtls-2.16.2/library\x509_create.c ****         if( in_tag && *c == '=' )
 435              		.loc 1 144 0
ARM GAS  C:\Users\dtjld\AppData\Local\Temp\ccCU8bQc.s 			page 12


 436 005c D7F81831 		ldr	r3, [r7, #280]
 437 0060 002B     		cmp	r3, #0
 438 0062 29D0     		beq	.L13
 439              		.loc 1 144 0 is_stmt 0 discriminator 1
 440 0064 D7F82431 		ldr	r3, [r7, #292]
 441 0068 1B78     		ldrb	r3, [r3]	@ zero_extendqisi2
 442 006a 3D2B     		cmp	r3, #61
 443 006c 24D1     		bne	.L13
 145:C:/Users/dtjld/workspace/AIoT/src/LiteOS_Lab/iot_link/network/dtls/mbedtls/mbedtls-2.16.2/library\x509_create.c ****         {
 146:C:/Users/dtjld/workspace/AIoT/src/LiteOS_Lab/iot_link/network/dtls/mbedtls/mbedtls-2.16.2/library\x509_create.c ****             if( ( attr_descr = x509_attr_descr_from_name( s, c - s ) ) == NULL )
 444              		.loc 1 146 0 is_stmt 1
 445 006e D7F82421 		ldr	r2, [r7, #292]
 446 0072 D7F82831 		ldr	r3, [r7, #296]
 447 0076 D31A     		subs	r3, r2, r3
 448 0078 1946     		mov	r1, r3
 449 007a D7F82801 		ldr	r0, [r7, #296]
 450 007e FFF7FEFF 		bl	x509_attr_descr_from_name
 451 0082 C7F81C01 		str	r0, [r7, #284]
 452 0086 D7F81C31 		ldr	r3, [r7, #284]
 453 008a 002B     		cmp	r3, #0
 454 008c 03D1     		bne	.L14
 147:C:/Users/dtjld/workspace/AIoT/src/LiteOS_Lab/iot_link/network/dtls/mbedtls/mbedtls-2.16.2/library\x509_create.c ****             {
 148:C:/Users/dtjld/workspace/AIoT/src/LiteOS_Lab/iot_link/network/dtls/mbedtls/mbedtls-2.16.2/library\x509_create.c ****                 ret = MBEDTLS_ERR_X509_UNKNOWN_OID;
 455              		.loc 1 148 0
 456 008e 5D4B     		ldr	r3, .L30
 457 0090 C7F82C31 		str	r3, [r7, #300]
 149:C:/Users/dtjld/workspace/AIoT/src/LiteOS_Lab/iot_link/network/dtls/mbedtls/mbedtls-2.16.2/library\x509_create.c ****                 goto exit;
 458              		.loc 1 149 0
 459 0094 AEE0     		b	.L15
 460              	.L14:
 150:C:/Users/dtjld/workspace/AIoT/src/LiteOS_Lab/iot_link/network/dtls/mbedtls/mbedtls-2.16.2/library\x509_create.c ****             }
 151:C:/Users/dtjld/workspace/AIoT/src/LiteOS_Lab/iot_link/network/dtls/mbedtls/mbedtls-2.16.2/library\x509_create.c **** 
 152:C:/Users/dtjld/workspace/AIoT/src/LiteOS_Lab/iot_link/network/dtls/mbedtls/mbedtls-2.16.2/library\x509_create.c ****             oid = attr_descr->oid;
 461              		.loc 1 152 0
 462 0096 D7F81C31 		ldr	r3, [r7, #284]
 463 009a 9B68     		ldr	r3, [r3, #8]
 464 009c C7F82031 		str	r3, [r7, #288]
 153:C:/Users/dtjld/workspace/AIoT/src/LiteOS_Lab/iot_link/network/dtls/mbedtls/mbedtls-2.16.2/library\x509_create.c ****             s = c + 1;
 465              		.loc 1 153 0
 466 00a0 D7F82431 		ldr	r3, [r7, #292]
 467 00a4 0133     		adds	r3, r3, #1
 468 00a6 C7F82831 		str	r3, [r7, #296]
 154:C:/Users/dtjld/workspace/AIoT/src/LiteOS_Lab/iot_link/network/dtls/mbedtls/mbedtls-2.16.2/library\x509_create.c ****             in_tag = 0;
 469              		.loc 1 154 0
 470 00aa 0023     		movs	r3, #0
 471 00ac C7F81831 		str	r3, [r7, #280]
 155:C:/Users/dtjld/workspace/AIoT/src/LiteOS_Lab/iot_link/network/dtls/mbedtls/mbedtls-2.16.2/library\x509_create.c ****             d = data;
 472              		.loc 1 155 0
 473 00b0 07F10C03 		add	r3, r7, #12
 474 00b4 C7F81431 		str	r3, [r7, #276]
 475              	.L13:
 156:C:/Users/dtjld/workspace/AIoT/src/LiteOS_Lab/iot_link/network/dtls/mbedtls/mbedtls-2.16.2/library\x509_create.c ****         }
 157:C:/Users/dtjld/workspace/AIoT/src/LiteOS_Lab/iot_link/network/dtls/mbedtls/mbedtls-2.16.2/library\x509_create.c **** 
 158:C:/Users/dtjld/workspace/AIoT/src/LiteOS_Lab/iot_link/network/dtls/mbedtls/mbedtls-2.16.2/library\x509_create.c ****         if( !in_tag && *c == '\\' && c != end )
 476              		.loc 1 158 0
 477 00b8 D7F81831 		ldr	r3, [r7, #280]
 478 00bc 002B     		cmp	r3, #0
ARM GAS  C:\Users\dtjld\AppData\Local\Temp\ccCU8bQc.s 			page 13


 479 00be 1ED1     		bne	.L16
 480              		.loc 1 158 0 is_stmt 0 discriminator 1
 481 00c0 D7F82431 		ldr	r3, [r7, #292]
 482 00c4 1B78     		ldrb	r3, [r3]	@ zero_extendqisi2
 483 00c6 5C2B     		cmp	r3, #92
 484 00c8 19D1     		bne	.L16
 485              		.loc 1 158 0 discriminator 2
 486 00ca D7F82421 		ldr	r2, [r7, #292]
 487 00ce D7F81031 		ldr	r3, [r7, #272]
 488 00d2 9A42     		cmp	r2, r3
 489 00d4 13D0     		beq	.L16
 159:C:/Users/dtjld/workspace/AIoT/src/LiteOS_Lab/iot_link/network/dtls/mbedtls/mbedtls-2.16.2/library\x509_create.c ****         {
 160:C:/Users/dtjld/workspace/AIoT/src/LiteOS_Lab/iot_link/network/dtls/mbedtls/mbedtls-2.16.2/library\x509_create.c ****             c++;
 490              		.loc 1 160 0 is_stmt 1
 491 00d6 D7F82431 		ldr	r3, [r7, #292]
 492 00da 0133     		adds	r3, r3, #1
 493 00dc C7F82431 		str	r3, [r7, #292]
 161:C:/Users/dtjld/workspace/AIoT/src/LiteOS_Lab/iot_link/network/dtls/mbedtls/mbedtls-2.16.2/library\x509_create.c **** 
 162:C:/Users/dtjld/workspace/AIoT/src/LiteOS_Lab/iot_link/network/dtls/mbedtls/mbedtls-2.16.2/library\x509_create.c ****             /* Check for valid escaped characters */
 163:C:/Users/dtjld/workspace/AIoT/src/LiteOS_Lab/iot_link/network/dtls/mbedtls/mbedtls-2.16.2/library\x509_create.c ****             if( c == end || *c != ',' )
 494              		.loc 1 163 0
 495 00e0 D7F82421 		ldr	r2, [r7, #292]
 496 00e4 D7F81031 		ldr	r3, [r7, #272]
 497 00e8 9A42     		cmp	r2, r3
 498 00ea 04D0     		beq	.L17
 499              		.loc 1 163 0 is_stmt 0 discriminator 1
 500 00ec D7F82431 		ldr	r3, [r7, #292]
 501 00f0 1B78     		ldrb	r3, [r3]	@ zero_extendqisi2
 502 00f2 2C2B     		cmp	r3, #44
 503 00f4 50D0     		beq	.L29
 504              	.L17:
 164:C:/Users/dtjld/workspace/AIoT/src/LiteOS_Lab/iot_link/network/dtls/mbedtls/mbedtls-2.16.2/library\x509_create.c ****             {
 165:C:/Users/dtjld/workspace/AIoT/src/LiteOS_Lab/iot_link/network/dtls/mbedtls/mbedtls-2.16.2/library\x509_create.c ****                 ret = MBEDTLS_ERR_X509_INVALID_NAME;
 505              		.loc 1 165 0 is_stmt 1
 506 00f6 444B     		ldr	r3, .L30+4
 507 00f8 C7F82C31 		str	r3, [r7, #300]
 166:C:/Users/dtjld/workspace/AIoT/src/LiteOS_Lab/iot_link/network/dtls/mbedtls/mbedtls-2.16.2/library\x509_create.c ****                 goto exit;
 508              		.loc 1 166 0
 509 00fc 7AE0     		b	.L15
 510              	.L16:
 167:C:/Users/dtjld/workspace/AIoT/src/LiteOS_Lab/iot_link/network/dtls/mbedtls/mbedtls-2.16.2/library\x509_create.c ****             }
 168:C:/Users/dtjld/workspace/AIoT/src/LiteOS_Lab/iot_link/network/dtls/mbedtls/mbedtls-2.16.2/library\x509_create.c ****         }
 169:C:/Users/dtjld/workspace/AIoT/src/LiteOS_Lab/iot_link/network/dtls/mbedtls/mbedtls-2.16.2/library\x509_create.c ****         else if( !in_tag && ( *c == ',' || c == end ) )
 511              		.loc 1 169 0
 512 00fe D7F81831 		ldr	r3, [r7, #280]
 513 0102 002B     		cmp	r3, #0
 514 0104 49D1     		bne	.L19
 515              		.loc 1 169 0 is_stmt 0 discriminator 1
 516 0106 D7F82431 		ldr	r3, [r7, #292]
 517 010a 1B78     		ldrb	r3, [r3]	@ zero_extendqisi2
 518 010c 2C2B     		cmp	r3, #44
 519 010e 05D0     		beq	.L20
 520              		.loc 1 169 0 discriminator 2
 521 0110 D7F82421 		ldr	r2, [r7, #292]
 522 0114 D7F81031 		ldr	r3, [r7, #272]
 523 0118 9A42     		cmp	r2, r3
 524 011a 3ED1     		bne	.L19
ARM GAS  C:\Users\dtjld\AppData\Local\Temp\ccCU8bQc.s 			page 14


 525              	.L20:
 526              	.LBB2:
 170:C:/Users/dtjld/workspace/AIoT/src/LiteOS_Lab/iot_link/network/dtls/mbedtls/mbedtls-2.16.2/library\x509_create.c ****         {
 171:C:/Users/dtjld/workspace/AIoT/src/LiteOS_Lab/iot_link/network/dtls/mbedtls/mbedtls-2.16.2/library\x509_create.c ****             mbedtls_asn1_named_data* cur =
 172:C:/Users/dtjld/workspace/AIoT/src/LiteOS_Lab/iot_link/network/dtls/mbedtls/mbedtls-2.16.2/library\x509_create.c ****                 mbedtls_asn1_store_named_data( head, oid, strlen( oid ),
 527              		.loc 1 172 0 is_stmt 1
 528 011c D7F82001 		ldr	r0, [r7, #288]
 529 0120 FFF7FEFF 		bl	strlen
 530 0124 0146     		mov	r1, r0
 173:C:/Users/dtjld/workspace/AIoT/src/LiteOS_Lab/iot_link/network/dtls/mbedtls/mbedtls-2.16.2/library\x509_create.c ****                                                (unsigned char *) data,
 174:C:/Users/dtjld/workspace/AIoT/src/LiteOS_Lab/iot_link/network/dtls/mbedtls/mbedtls-2.16.2/library\x509_create.c ****                                                d - data );
 531              		.loc 1 174 0
 532 0126 D7F81421 		ldr	r2, [r7, #276]
 533 012a 07F10C03 		add	r3, r7, #12
 534 012e D31A     		subs	r3, r2, r3
 172:C:/Users/dtjld/workspace/AIoT/src/LiteOS_Lab/iot_link/network/dtls/mbedtls/mbedtls-2.16.2/library\x509_create.c ****                                                (unsigned char *) data,
 535              		.loc 1 172 0
 536 0130 1A46     		mov	r2, r3
 171:C:/Users/dtjld/workspace/AIoT/src/LiteOS_Lab/iot_link/network/dtls/mbedtls/mbedtls-2.16.2/library\x509_create.c ****                 mbedtls_asn1_store_named_data( head, oid, strlen( oid ),
 537              		.loc 1 171 0
 538 0132 07F10C03 		add	r3, r7, #12
 539 0136 381D     		adds	r0, r7, #4
 540 0138 0092     		str	r2, [sp]
 541 013a 0A46     		mov	r2, r1
 542 013c D7F82011 		ldr	r1, [r7, #288]
 543 0140 0068     		ldr	r0, [r0]
 544 0142 FFF7FEFF 		bl	mbedtls_asn1_store_named_data
 545 0146 C7F80C01 		str	r0, [r7, #268]
 175:C:/Users/dtjld/workspace/AIoT/src/LiteOS_Lab/iot_link/network/dtls/mbedtls/mbedtls-2.16.2/library\x509_create.c **** 
 176:C:/Users/dtjld/workspace/AIoT/src/LiteOS_Lab/iot_link/network/dtls/mbedtls/mbedtls-2.16.2/library\x509_create.c ****             if(cur == NULL )
 546              		.loc 1 176 0
 547 014a D7F80C31 		ldr	r3, [r7, #268]
 548 014e 002B     		cmp	r3, #0
 549 0150 01D1     		bne	.L21
 177:C:/Users/dtjld/workspace/AIoT/src/LiteOS_Lab/iot_link/network/dtls/mbedtls/mbedtls-2.16.2/library\x509_create.c ****             {
 178:C:/Users/dtjld/workspace/AIoT/src/LiteOS_Lab/iot_link/network/dtls/mbedtls/mbedtls-2.16.2/library\x509_create.c ****                 return( MBEDTLS_ERR_X509_ALLOC_FAILED );
 550              		.loc 1 178 0
 551 0152 2E4B     		ldr	r3, .L30+8
 552 0154 50E0     		b	.L28
 553              	.L21:
 179:C:/Users/dtjld/workspace/AIoT/src/LiteOS_Lab/iot_link/network/dtls/mbedtls/mbedtls-2.16.2/library\x509_create.c ****             }
 180:C:/Users/dtjld/workspace/AIoT/src/LiteOS_Lab/iot_link/network/dtls/mbedtls/mbedtls-2.16.2/library\x509_create.c **** 
 181:C:/Users/dtjld/workspace/AIoT/src/LiteOS_Lab/iot_link/network/dtls/mbedtls/mbedtls-2.16.2/library\x509_create.c ****             // set tagType
 182:C:/Users/dtjld/workspace/AIoT/src/LiteOS_Lab/iot_link/network/dtls/mbedtls/mbedtls-2.16.2/library\x509_create.c ****             cur->val.tag = attr_descr->default_tag;
 554              		.loc 1 182 0
 555 0156 D7F81C31 		ldr	r3, [r7, #284]
 556 015a DA68     		ldr	r2, [r3, #12]
 557 015c D7F80C31 		ldr	r3, [r7, #268]
 558 0160 DA60     		str	r2, [r3, #12]
 183:C:/Users/dtjld/workspace/AIoT/src/LiteOS_Lab/iot_link/network/dtls/mbedtls/mbedtls-2.16.2/library\x509_create.c **** 
 184:C:/Users/dtjld/workspace/AIoT/src/LiteOS_Lab/iot_link/network/dtls/mbedtls/mbedtls-2.16.2/library\x509_create.c ****             while( c < end && *(c + 1) == ' ' )
 559              		.loc 1 184 0
 560 0162 04E0     		b	.L23
 561              	.L25:
 185:C:/Users/dtjld/workspace/AIoT/src/LiteOS_Lab/iot_link/network/dtls/mbedtls/mbedtls-2.16.2/library\x509_create.c ****                 c++;
 562              		.loc 1 185 0
 563 0164 D7F82431 		ldr	r3, [r7, #292]
ARM GAS  C:\Users\dtjld\AppData\Local\Temp\ccCU8bQc.s 			page 15


 564 0168 0133     		adds	r3, r3, #1
 565 016a C7F82431 		str	r3, [r7, #292]
 566              	.L23:
 184:C:/Users/dtjld/workspace/AIoT/src/LiteOS_Lab/iot_link/network/dtls/mbedtls/mbedtls-2.16.2/library\x509_create.c ****                 c++;
 567              		.loc 1 184 0
 568 016e D7F82421 		ldr	r2, [r7, #292]
 569 0172 D7F81031 		ldr	r3, [r7, #272]
 570 0176 9A42     		cmp	r2, r3
 571 0178 05D2     		bcs	.L24
 184:C:/Users/dtjld/workspace/AIoT/src/LiteOS_Lab/iot_link/network/dtls/mbedtls/mbedtls-2.16.2/library\x509_create.c ****                 c++;
 572              		.loc 1 184 0 is_stmt 0 discriminator 1
 573 017a D7F82431 		ldr	r3, [r7, #292]
 574 017e 0133     		adds	r3, r3, #1
 575 0180 1B78     		ldrb	r3, [r3]	@ zero_extendqisi2
 576 0182 202B     		cmp	r3, #32
 577 0184 EED0     		beq	.L25
 578              	.L24:
 186:C:/Users/dtjld/workspace/AIoT/src/LiteOS_Lab/iot_link/network/dtls/mbedtls/mbedtls-2.16.2/library\x509_create.c **** 
 187:C:/Users/dtjld/workspace/AIoT/src/LiteOS_Lab/iot_link/network/dtls/mbedtls/mbedtls-2.16.2/library\x509_create.c ****             s = c + 1;
 579              		.loc 1 187 0 is_stmt 1
 580 0186 D7F82431 		ldr	r3, [r7, #292]
 581 018a 0133     		adds	r3, r3, #1
 582 018c C7F82831 		str	r3, [r7, #296]
 188:C:/Users/dtjld/workspace/AIoT/src/LiteOS_Lab/iot_link/network/dtls/mbedtls/mbedtls-2.16.2/library\x509_create.c ****             in_tag = 1;
 583              		.loc 1 188 0
 584 0190 0123     		movs	r3, #1
 585 0192 C7F81831 		str	r3, [r7, #280]
 586 0196 00E0     		b	.L19
 587              	.L29:
 588              	.LBE2:
 163:C:/Users/dtjld/workspace/AIoT/src/LiteOS_Lab/iot_link/network/dtls/mbedtls/mbedtls-2.16.2/library\x509_create.c ****             {
 589              		.loc 1 163 0
 590 0198 00BF     		nop
 591              	.L19:
 189:C:/Users/dtjld/workspace/AIoT/src/LiteOS_Lab/iot_link/network/dtls/mbedtls/mbedtls-2.16.2/library\x509_create.c ****         }
 190:C:/Users/dtjld/workspace/AIoT/src/LiteOS_Lab/iot_link/network/dtls/mbedtls/mbedtls-2.16.2/library\x509_create.c **** 
 191:C:/Users/dtjld/workspace/AIoT/src/LiteOS_Lab/iot_link/network/dtls/mbedtls/mbedtls-2.16.2/library\x509_create.c ****         if( !in_tag && s != c + 1 )
 592              		.loc 1 191 0
 593 019a D7F81831 		ldr	r3, [r7, #280]
 594 019e 002B     		cmp	r3, #0
 595 01a0 1BD1     		bne	.L26
 596              		.loc 1 191 0 is_stmt 0 discriminator 1
 597 01a2 D7F82431 		ldr	r3, [r7, #292]
 598 01a6 0133     		adds	r3, r3, #1
 599 01a8 D7F82821 		ldr	r2, [r7, #296]
 600 01ac 9A42     		cmp	r2, r3
 601 01ae 14D0     		beq	.L26
 192:C:/Users/dtjld/workspace/AIoT/src/LiteOS_Lab/iot_link/network/dtls/mbedtls/mbedtls-2.16.2/library\x509_create.c ****         {
 193:C:/Users/dtjld/workspace/AIoT/src/LiteOS_Lab/iot_link/network/dtls/mbedtls/mbedtls-2.16.2/library\x509_create.c ****             *(d++) = *c;
 602              		.loc 1 193 0 is_stmt 1
 603 01b0 D7F81431 		ldr	r3, [r7, #276]
 604 01b4 5A1C     		adds	r2, r3, #1
 605 01b6 C7F81421 		str	r2, [r7, #276]
 606 01ba D7F82421 		ldr	r2, [r7, #292]
 607 01be 1278     		ldrb	r2, [r2]	@ zero_extendqisi2
 608 01c0 1A70     		strb	r2, [r3]
 194:C:/Users/dtjld/workspace/AIoT/src/LiteOS_Lab/iot_link/network/dtls/mbedtls/mbedtls-2.16.2/library\x509_create.c **** 
ARM GAS  C:\Users\dtjld\AppData\Local\Temp\ccCU8bQc.s 			page 16


 195:C:/Users/dtjld/workspace/AIoT/src/LiteOS_Lab/iot_link/network/dtls/mbedtls/mbedtls-2.16.2/library\x509_create.c ****             if( d - data == MBEDTLS_X509_MAX_DN_NAME_SIZE )
 609              		.loc 1 195 0
 610 01c2 D7F81421 		ldr	r2, [r7, #276]
 611 01c6 07F10C03 		add	r3, r7, #12
 612 01ca D31A     		subs	r3, r2, r3
 613 01cc B3F5807F 		cmp	r3, #256
 614 01d0 03D1     		bne	.L26
 196:C:/Users/dtjld/workspace/AIoT/src/LiteOS_Lab/iot_link/network/dtls/mbedtls/mbedtls-2.16.2/library\x509_create.c ****             {
 197:C:/Users/dtjld/workspace/AIoT/src/LiteOS_Lab/iot_link/network/dtls/mbedtls/mbedtls-2.16.2/library\x509_create.c ****                 ret = MBEDTLS_ERR_X509_INVALID_NAME;
 615              		.loc 1 197 0
 616 01d2 0D4B     		ldr	r3, .L30+4
 617 01d4 C7F82C31 		str	r3, [r7, #300]
 198:C:/Users/dtjld/workspace/AIoT/src/LiteOS_Lab/iot_link/network/dtls/mbedtls/mbedtls-2.16.2/library\x509_create.c ****                 goto exit;
 618              		.loc 1 198 0
 619 01d8 0CE0     		b	.L15
 620              	.L26:
 199:C:/Users/dtjld/workspace/AIoT/src/LiteOS_Lab/iot_link/network/dtls/mbedtls/mbedtls-2.16.2/library\x509_create.c ****             }
 200:C:/Users/dtjld/workspace/AIoT/src/LiteOS_Lab/iot_link/network/dtls/mbedtls/mbedtls-2.16.2/library\x509_create.c ****         }
 201:C:/Users/dtjld/workspace/AIoT/src/LiteOS_Lab/iot_link/network/dtls/mbedtls/mbedtls-2.16.2/library\x509_create.c **** 
 202:C:/Users/dtjld/workspace/AIoT/src/LiteOS_Lab/iot_link/network/dtls/mbedtls/mbedtls-2.16.2/library\x509_create.c ****         c++;
 621              		.loc 1 202 0
 622 01da D7F82431 		ldr	r3, [r7, #292]
 623 01de 0133     		adds	r3, r3, #1
 624 01e0 C7F82431 		str	r3, [r7, #292]
 625              	.L12:
 142:C:/Users/dtjld/workspace/AIoT/src/LiteOS_Lab/iot_link/network/dtls/mbedtls/mbedtls-2.16.2/library\x509_create.c ****     {
 626              		.loc 1 142 0
 627 01e4 D7F82421 		ldr	r2, [r7, #292]
 628 01e8 D7F81031 		ldr	r3, [r7, #272]
 629 01ec 9A42     		cmp	r2, r3
 630 01ee 7FF635AF 		bls	.L27
 203:C:/Users/dtjld/workspace/AIoT/src/LiteOS_Lab/iot_link/network/dtls/mbedtls/mbedtls-2.16.2/library\x509_create.c ****     }
 204:C:/Users/dtjld/workspace/AIoT/src/LiteOS_Lab/iot_link/network/dtls/mbedtls/mbedtls-2.16.2/library\x509_create.c **** 
 205:C:/Users/dtjld/workspace/AIoT/src/LiteOS_Lab/iot_link/network/dtls/mbedtls/mbedtls-2.16.2/library\x509_create.c **** exit:
 631              		.loc 1 205 0
 632 01f2 00BF     		nop
 633              	.L15:
 206:C:/Users/dtjld/workspace/AIoT/src/LiteOS_Lab/iot_link/network/dtls/mbedtls/mbedtls-2.16.2/library\x509_create.c **** 
 207:C:/Users/dtjld/workspace/AIoT/src/LiteOS_Lab/iot_link/network/dtls/mbedtls/mbedtls-2.16.2/library\x509_create.c ****     return( ret );
 634              		.loc 1 207 0
 635 01f4 D7F82C31 		ldr	r3, [r7, #300]
 636              	.L28:
 208:C:/Users/dtjld/workspace/AIoT/src/LiteOS_Lab/iot_link/network/dtls/mbedtls/mbedtls-2.16.2/library\x509_create.c **** }
 637              		.loc 1 208 0 discriminator 1
 638 01f8 1846     		mov	r0, r3
 639 01fa 07F59877 		add	r7, r7, #304
 640              	.LCFI8:
 641              		.cfi_def_cfa_offset 8
 642 01fe BD46     		mov	sp, r7
 643              	.LCFI9:
 644              		.cfi_def_cfa_register 13
 645              		@ sp needed
 646 0200 80BD     		pop	{r7, pc}
 647              	.L31:
 648 0202 00BF     		.align	2
 649              	.L30:
 650 0204 00DFFFFF 		.word	-8448
ARM GAS  C:\Users\dtjld\AppData\Local\Temp\ccCU8bQc.s 			page 17


 651 0208 80DCFFFF 		.word	-9088
 652 020c 80D7FFFF 		.word	-10368
 653              		.cfi_endproc
 654              	.LFE11:
 656              		.section	.text.mbedtls_x509_set_extension,"ax",%progbits
 657              		.align	1
 658              		.global	mbedtls_x509_set_extension
 659              		.syntax unified
 660              		.thumb
 661              		.thumb_func
 662              		.fpu fpv4-sp-d16
 664              	mbedtls_x509_set_extension:
 665              	.LFB12:
 209:C:/Users/dtjld/workspace/AIoT/src/LiteOS_Lab/iot_link/network/dtls/mbedtls/mbedtls-2.16.2/library\x509_create.c **** 
 210:C:/Users/dtjld/workspace/AIoT/src/LiteOS_Lab/iot_link/network/dtls/mbedtls/mbedtls-2.16.2/library\x509_create.c **** /* The first byte of the value in the mbedtls_asn1_named_data structure is reserved
 211:C:/Users/dtjld/workspace/AIoT/src/LiteOS_Lab/iot_link/network/dtls/mbedtls/mbedtls-2.16.2/library\x509_create.c ****  * to store the critical boolean for us
 212:C:/Users/dtjld/workspace/AIoT/src/LiteOS_Lab/iot_link/network/dtls/mbedtls/mbedtls-2.16.2/library\x509_create.c ****  */
 213:C:/Users/dtjld/workspace/AIoT/src/LiteOS_Lab/iot_link/network/dtls/mbedtls/mbedtls-2.16.2/library\x509_create.c **** int mbedtls_x509_set_extension( mbedtls_asn1_named_data **head, const char *oid, size_t oid_len,
 214:C:/Users/dtjld/workspace/AIoT/src/LiteOS_Lab/iot_link/network/dtls/mbedtls/mbedtls-2.16.2/library\x509_create.c ****                         int critical, const unsigned char *val, size_t val_len )
 215:C:/Users/dtjld/workspace/AIoT/src/LiteOS_Lab/iot_link/network/dtls/mbedtls/mbedtls-2.16.2/library\x509_create.c **** {
 666              		.loc 1 215 0
 667              		.cfi_startproc
 668              		@ args = 8, pretend = 0, frame = 24
 669              		@ frame_needed = 1, uses_anonymous_args = 0
 670 0000 80B5     		push	{r7, lr}
 671              	.LCFI10:
 672              		.cfi_def_cfa_offset 8
 673              		.cfi_offset 7, -8
 674              		.cfi_offset 14, -4
 675 0002 88B0     		sub	sp, sp, #32
 676              	.LCFI11:
 677              		.cfi_def_cfa_offset 40
 678 0004 02AF     		add	r7, sp, #8
 679              	.LCFI12:
 680              		.cfi_def_cfa 7, 32
 681 0006 F860     		str	r0, [r7, #12]
 682 0008 B960     		str	r1, [r7, #8]
 683 000a 7A60     		str	r2, [r7, #4]
 684 000c 3B60     		str	r3, [r7]
 216:C:/Users/dtjld/workspace/AIoT/src/LiteOS_Lab/iot_link/network/dtls/mbedtls/mbedtls-2.16.2/library\x509_create.c ****     mbedtls_asn1_named_data *cur;
 217:C:/Users/dtjld/workspace/AIoT/src/LiteOS_Lab/iot_link/network/dtls/mbedtls/mbedtls-2.16.2/library\x509_create.c **** 
 218:C:/Users/dtjld/workspace/AIoT/src/LiteOS_Lab/iot_link/network/dtls/mbedtls/mbedtls-2.16.2/library\x509_create.c ****     if( ( cur = mbedtls_asn1_store_named_data( head, oid, oid_len,
 685              		.loc 1 218 0
 686 000e 7B6A     		ldr	r3, [r7, #36]
 687 0010 0133     		adds	r3, r3, #1
 688 0012 0093     		str	r3, [sp]
 689 0014 0023     		movs	r3, #0
 690 0016 7A68     		ldr	r2, [r7, #4]
 691 0018 B968     		ldr	r1, [r7, #8]
 692 001a F868     		ldr	r0, [r7, #12]
 693 001c FFF7FEFF 		bl	mbedtls_asn1_store_named_data
 694 0020 7861     		str	r0, [r7, #20]
 695 0022 7B69     		ldr	r3, [r7, #20]
 696 0024 002B     		cmp	r3, #0
 697 0026 01D1     		bne	.L33
 219:C:/Users/dtjld/workspace/AIoT/src/LiteOS_Lab/iot_link/network/dtls/mbedtls/mbedtls-2.16.2/library\x509_create.c ****                                        NULL, val_len + 1 ) ) == NULL )
 220:C:/Users/dtjld/workspace/AIoT/src/LiteOS_Lab/iot_link/network/dtls/mbedtls/mbedtls-2.16.2/library\x509_create.c ****     {
ARM GAS  C:\Users\dtjld\AppData\Local\Temp\ccCU8bQc.s 			page 18


 221:C:/Users/dtjld/workspace/AIoT/src/LiteOS_Lab/iot_link/network/dtls/mbedtls/mbedtls-2.16.2/library\x509_create.c ****         return( MBEDTLS_ERR_X509_ALLOC_FAILED );
 698              		.loc 1 221 0
 699 0028 094B     		ldr	r3, .L35
 700 002a 0DE0     		b	.L34
 701              	.L33:
 222:C:/Users/dtjld/workspace/AIoT/src/LiteOS_Lab/iot_link/network/dtls/mbedtls/mbedtls-2.16.2/library\x509_create.c ****     }
 223:C:/Users/dtjld/workspace/AIoT/src/LiteOS_Lab/iot_link/network/dtls/mbedtls/mbedtls-2.16.2/library\x509_create.c **** 
 224:C:/Users/dtjld/workspace/AIoT/src/LiteOS_Lab/iot_link/network/dtls/mbedtls/mbedtls-2.16.2/library\x509_create.c ****     cur->val.p[0] = critical;
 702              		.loc 1 224 0
 703 002c 7B69     		ldr	r3, [r7, #20]
 704 002e 5B69     		ldr	r3, [r3, #20]
 705 0030 3A68     		ldr	r2, [r7]
 706 0032 D2B2     		uxtb	r2, r2
 707 0034 1A70     		strb	r2, [r3]
 225:C:/Users/dtjld/workspace/AIoT/src/LiteOS_Lab/iot_link/network/dtls/mbedtls/mbedtls-2.16.2/library\x509_create.c ****     memcpy( cur->val.p + 1, val, val_len );
 708              		.loc 1 225 0
 709 0036 7B69     		ldr	r3, [r7, #20]
 710 0038 5B69     		ldr	r3, [r3, #20]
 711 003a 0133     		adds	r3, r3, #1
 712 003c 7A6A     		ldr	r2, [r7, #36]
 713 003e 396A     		ldr	r1, [r7, #32]
 714 0040 1846     		mov	r0, r3
 715 0042 FFF7FEFF 		bl	memcpy
 226:C:/Users/dtjld/workspace/AIoT/src/LiteOS_Lab/iot_link/network/dtls/mbedtls/mbedtls-2.16.2/library\x509_create.c **** 
 227:C:/Users/dtjld/workspace/AIoT/src/LiteOS_Lab/iot_link/network/dtls/mbedtls/mbedtls-2.16.2/library\x509_create.c ****     return( 0 );
 716              		.loc 1 227 0
 717 0046 0023     		movs	r3, #0
 718              	.L34:
 228:C:/Users/dtjld/workspace/AIoT/src/LiteOS_Lab/iot_link/network/dtls/mbedtls/mbedtls-2.16.2/library\x509_create.c **** }
 719              		.loc 1 228 0
 720 0048 1846     		mov	r0, r3
 721 004a 1837     		adds	r7, r7, #24
 722              	.LCFI13:
 723              		.cfi_def_cfa_offset 8
 724 004c BD46     		mov	sp, r7
 725              	.LCFI14:
 726              		.cfi_def_cfa_register 13
 727              		@ sp needed
 728 004e 80BD     		pop	{r7, pc}
 729              	.L36:
 730              		.align	2
 731              	.L35:
 732 0050 80D7FFFF 		.word	-10368
 733              		.cfi_endproc
 734              	.LFE12:
 736              		.section	.text.x509_write_name,"ax",%progbits
 737              		.align	1
 738              		.syntax unified
 739              		.thumb
 740              		.thumb_func
 741              		.fpu fpv4-sp-d16
 743              	x509_write_name:
 744              	.LFB13:
 229:C:/Users/dtjld/workspace/AIoT/src/LiteOS_Lab/iot_link/network/dtls/mbedtls/mbedtls-2.16.2/library\x509_create.c **** 
 230:C:/Users/dtjld/workspace/AIoT/src/LiteOS_Lab/iot_link/network/dtls/mbedtls/mbedtls-2.16.2/library\x509_create.c **** /*
 231:C:/Users/dtjld/workspace/AIoT/src/LiteOS_Lab/iot_link/network/dtls/mbedtls/mbedtls-2.16.2/library\x509_create.c ****  *  RelativeDistinguishedName ::=
 232:C:/Users/dtjld/workspace/AIoT/src/LiteOS_Lab/iot_link/network/dtls/mbedtls/mbedtls-2.16.2/library\x509_create.c ****  *    SET OF AttributeTypeAndValue
ARM GAS  C:\Users\dtjld\AppData\Local\Temp\ccCU8bQc.s 			page 19


 233:C:/Users/dtjld/workspace/AIoT/src/LiteOS_Lab/iot_link/network/dtls/mbedtls/mbedtls-2.16.2/library\x509_create.c ****  *
 234:C:/Users/dtjld/workspace/AIoT/src/LiteOS_Lab/iot_link/network/dtls/mbedtls/mbedtls-2.16.2/library\x509_create.c ****  *  AttributeTypeAndValue ::= SEQUENCE {
 235:C:/Users/dtjld/workspace/AIoT/src/LiteOS_Lab/iot_link/network/dtls/mbedtls/mbedtls-2.16.2/library\x509_create.c ****  *    type     AttributeType,
 236:C:/Users/dtjld/workspace/AIoT/src/LiteOS_Lab/iot_link/network/dtls/mbedtls/mbedtls-2.16.2/library\x509_create.c ****  *    value    AttributeValue }
 237:C:/Users/dtjld/workspace/AIoT/src/LiteOS_Lab/iot_link/network/dtls/mbedtls/mbedtls-2.16.2/library\x509_create.c ****  *
 238:C:/Users/dtjld/workspace/AIoT/src/LiteOS_Lab/iot_link/network/dtls/mbedtls/mbedtls-2.16.2/library\x509_create.c ****  *  AttributeType ::= OBJECT IDENTIFIER
 239:C:/Users/dtjld/workspace/AIoT/src/LiteOS_Lab/iot_link/network/dtls/mbedtls/mbedtls-2.16.2/library\x509_create.c ****  *
 240:C:/Users/dtjld/workspace/AIoT/src/LiteOS_Lab/iot_link/network/dtls/mbedtls/mbedtls-2.16.2/library\x509_create.c ****  *  AttributeValue ::= ANY DEFINED BY AttributeType
 241:C:/Users/dtjld/workspace/AIoT/src/LiteOS_Lab/iot_link/network/dtls/mbedtls/mbedtls-2.16.2/library\x509_create.c ****  */
 242:C:/Users/dtjld/workspace/AIoT/src/LiteOS_Lab/iot_link/network/dtls/mbedtls/mbedtls-2.16.2/library\x509_create.c **** static int x509_write_name( unsigned char **p, unsigned char *start, mbedtls_asn1_named_data* cur_n
 243:C:/Users/dtjld/workspace/AIoT/src/LiteOS_Lab/iot_link/network/dtls/mbedtls/mbedtls-2.16.2/library\x509_create.c **** {
 745              		.loc 1 243 0
 746              		.cfi_startproc
 747              		@ args = 0, pretend = 0, frame = 40
 748              		@ frame_needed = 1, uses_anonymous_args = 0
 749 0000 80B5     		push	{r7, lr}
 750              	.LCFI15:
 751              		.cfi_def_cfa_offset 8
 752              		.cfi_offset 7, -8
 753              		.cfi_offset 14, -4
 754 0002 8CB0     		sub	sp, sp, #48
 755              	.LCFI16:
 756              		.cfi_def_cfa_offset 56
 757 0004 02AF     		add	r7, sp, #8
 758              	.LCFI17:
 759              		.cfi_def_cfa 7, 48
 760 0006 F860     		str	r0, [r7, #12]
 761 0008 B960     		str	r1, [r7, #8]
 762 000a 7A60     		str	r2, [r7, #4]
 244:C:/Users/dtjld/workspace/AIoT/src/LiteOS_Lab/iot_link/network/dtls/mbedtls/mbedtls-2.16.2/library\x509_create.c ****     int ret;
 245:C:/Users/dtjld/workspace/AIoT/src/LiteOS_Lab/iot_link/network/dtls/mbedtls/mbedtls-2.16.2/library\x509_create.c ****     size_t len = 0;
 763              		.loc 1 245 0
 764 000c 0023     		movs	r3, #0
 765 000e 7B62     		str	r3, [r7, #36]
 246:C:/Users/dtjld/workspace/AIoT/src/LiteOS_Lab/iot_link/network/dtls/mbedtls/mbedtls-2.16.2/library\x509_create.c ****     const char *oid             = (const char*)cur_name->oid.p;
 766              		.loc 1 246 0
 767 0010 7B68     		ldr	r3, [r7, #4]
 768 0012 9B68     		ldr	r3, [r3, #8]
 769 0014 3B62     		str	r3, [r7, #32]
 247:C:/Users/dtjld/workspace/AIoT/src/LiteOS_Lab/iot_link/network/dtls/mbedtls/mbedtls-2.16.2/library\x509_create.c ****     size_t oid_len              = cur_name->oid.len;
 770              		.loc 1 247 0
 771 0016 7B68     		ldr	r3, [r7, #4]
 772 0018 5B68     		ldr	r3, [r3, #4]
 773 001a FB61     		str	r3, [r7, #28]
 248:C:/Users/dtjld/workspace/AIoT/src/LiteOS_Lab/iot_link/network/dtls/mbedtls/mbedtls-2.16.2/library\x509_create.c ****     const unsigned char *name   = cur_name->val.p;
 774              		.loc 1 248 0
 775 001c 7B68     		ldr	r3, [r7, #4]
 776 001e 5B69     		ldr	r3, [r3, #20]
 777 0020 BB61     		str	r3, [r7, #24]
 249:C:/Users/dtjld/workspace/AIoT/src/LiteOS_Lab/iot_link/network/dtls/mbedtls/mbedtls-2.16.2/library\x509_create.c ****     size_t name_len             = cur_name->val.len;
 778              		.loc 1 249 0
 779 0022 7B68     		ldr	r3, [r7, #4]
 780 0024 1B69     		ldr	r3, [r3, #16]
 781 0026 7B61     		str	r3, [r7, #20]
 250:C:/Users/dtjld/workspace/AIoT/src/LiteOS_Lab/iot_link/network/dtls/mbedtls/mbedtls-2.16.2/library\x509_create.c **** 
 251:C:/Users/dtjld/workspace/AIoT/src/LiteOS_Lab/iot_link/network/dtls/mbedtls/mbedtls-2.16.2/library\x509_create.c ****     // Write correct string tag and value
 252:C:/Users/dtjld/workspace/AIoT/src/LiteOS_Lab/iot_link/network/dtls/mbedtls/mbedtls-2.16.2/library\x509_create.c ****     MBEDTLS_ASN1_CHK_ADD( len, mbedtls_asn1_write_tagged_string( p, start,
ARM GAS  C:\Users\dtjld\AppData\Local\Temp\ccCU8bQc.s 			page 20


 782              		.loc 1 252 0
 783 0028 7B68     		ldr	r3, [r7, #4]
 784 002a DA68     		ldr	r2, [r3, #12]
 785 002c 7B69     		ldr	r3, [r7, #20]
 786 002e 0093     		str	r3, [sp]
 787 0030 BB69     		ldr	r3, [r7, #24]
 788 0032 B968     		ldr	r1, [r7, #8]
 789 0034 F868     		ldr	r0, [r7, #12]
 790 0036 FFF7FEFF 		bl	mbedtls_asn1_write_tagged_string
 791 003a 3861     		str	r0, [r7, #16]
 792 003c 3B69     		ldr	r3, [r7, #16]
 793 003e 002B     		cmp	r3, #0
 794 0040 01DA     		bge	.L38
 795              		.loc 1 252 0 is_stmt 0 discriminator 1
 796 0042 3B69     		ldr	r3, [r7, #16]
 797 0044 50E0     		b	.L39
 798              	.L38:
 799              		.loc 1 252 0 discriminator 2
 800 0046 3B69     		ldr	r3, [r7, #16]
 801 0048 7A6A     		ldr	r2, [r7, #36]
 802 004a 1344     		add	r3, r3, r2
 803 004c 7B62     		str	r3, [r7, #36]
 253:C:/Users/dtjld/workspace/AIoT/src/LiteOS_Lab/iot_link/network/dtls/mbedtls/mbedtls-2.16.2/library\x509_create.c ****                                                        cur_name->val.tag,
 254:C:/Users/dtjld/workspace/AIoT/src/LiteOS_Lab/iot_link/network/dtls/mbedtls/mbedtls-2.16.2/library\x509_create.c ****                                                        (const char *) name,
 255:C:/Users/dtjld/workspace/AIoT/src/LiteOS_Lab/iot_link/network/dtls/mbedtls/mbedtls-2.16.2/library\x509_create.c ****                                                        name_len ) );
 256:C:/Users/dtjld/workspace/AIoT/src/LiteOS_Lab/iot_link/network/dtls/mbedtls/mbedtls-2.16.2/library\x509_create.c ****     // Write OID
 257:C:/Users/dtjld/workspace/AIoT/src/LiteOS_Lab/iot_link/network/dtls/mbedtls/mbedtls-2.16.2/library\x509_create.c ****     //
 258:C:/Users/dtjld/workspace/AIoT/src/LiteOS_Lab/iot_link/network/dtls/mbedtls/mbedtls-2.16.2/library\x509_create.c ****     MBEDTLS_ASN1_CHK_ADD( len, mbedtls_asn1_write_oid( p, start, oid,
 804              		.loc 1 258 0 is_stmt 1 discriminator 2
 805 004e FB69     		ldr	r3, [r7, #28]
 806 0050 3A6A     		ldr	r2, [r7, #32]
 807 0052 B968     		ldr	r1, [r7, #8]
 808 0054 F868     		ldr	r0, [r7, #12]
 809 0056 FFF7FEFF 		bl	mbedtls_asn1_write_oid
 810 005a 3861     		str	r0, [r7, #16]
 811 005c 3B69     		ldr	r3, [r7, #16]
 812 005e 002B     		cmp	r3, #0
 813 0060 01DA     		bge	.L40
 814              		.loc 1 258 0 is_stmt 0 discriminator 1
 815 0062 3B69     		ldr	r3, [r7, #16]
 816 0064 40E0     		b	.L39
 817              	.L40:
 818              		.loc 1 258 0 discriminator 2
 819 0066 3B69     		ldr	r3, [r7, #16]
 820 0068 7A6A     		ldr	r2, [r7, #36]
 821 006a 1344     		add	r3, r3, r2
 822 006c 7B62     		str	r3, [r7, #36]
 259:C:/Users/dtjld/workspace/AIoT/src/LiteOS_Lab/iot_link/network/dtls/mbedtls/mbedtls-2.16.2/library\x509_create.c ****                                                        oid_len ) );
 260:C:/Users/dtjld/workspace/AIoT/src/LiteOS_Lab/iot_link/network/dtls/mbedtls/mbedtls-2.16.2/library\x509_create.c **** 
 261:C:/Users/dtjld/workspace/AIoT/src/LiteOS_Lab/iot_link/network/dtls/mbedtls/mbedtls-2.16.2/library\x509_create.c ****     MBEDTLS_ASN1_CHK_ADD( len, mbedtls_asn1_write_len( p, start, len ) );
 823              		.loc 1 261 0 is_stmt 1 discriminator 2
 824 006e 7A6A     		ldr	r2, [r7, #36]
 825 0070 B968     		ldr	r1, [r7, #8]
 826 0072 F868     		ldr	r0, [r7, #12]
 827 0074 FFF7FEFF 		bl	mbedtls_asn1_write_len
 828 0078 3861     		str	r0, [r7, #16]
 829 007a 3B69     		ldr	r3, [r7, #16]
ARM GAS  C:\Users\dtjld\AppData\Local\Temp\ccCU8bQc.s 			page 21


 830 007c 002B     		cmp	r3, #0
 831 007e 01DA     		bge	.L41
 832              		.loc 1 261 0 is_stmt 0 discriminator 1
 833 0080 3B69     		ldr	r3, [r7, #16]
 834 0082 31E0     		b	.L39
 835              	.L41:
 836              		.loc 1 261 0 discriminator 2
 837 0084 3B69     		ldr	r3, [r7, #16]
 838 0086 7A6A     		ldr	r2, [r7, #36]
 839 0088 1344     		add	r3, r3, r2
 840 008a 7B62     		str	r3, [r7, #36]
 262:C:/Users/dtjld/workspace/AIoT/src/LiteOS_Lab/iot_link/network/dtls/mbedtls/mbedtls-2.16.2/library\x509_create.c ****     MBEDTLS_ASN1_CHK_ADD( len, mbedtls_asn1_write_tag( p, start,
 841              		.loc 1 262 0 is_stmt 1 discriminator 2
 842 008c 3022     		movs	r2, #48
 843 008e B968     		ldr	r1, [r7, #8]
 844 0090 F868     		ldr	r0, [r7, #12]
 845 0092 FFF7FEFF 		bl	mbedtls_asn1_write_tag
 846 0096 3861     		str	r0, [r7, #16]
 847 0098 3B69     		ldr	r3, [r7, #16]
 848 009a 002B     		cmp	r3, #0
 849 009c 01DA     		bge	.L42
 850              		.loc 1 262 0 is_stmt 0 discriminator 1
 851 009e 3B69     		ldr	r3, [r7, #16]
 852 00a0 22E0     		b	.L39
 853              	.L42:
 854              		.loc 1 262 0 discriminator 2
 855 00a2 3B69     		ldr	r3, [r7, #16]
 856 00a4 7A6A     		ldr	r2, [r7, #36]
 857 00a6 1344     		add	r3, r3, r2
 858 00a8 7B62     		str	r3, [r7, #36]
 263:C:/Users/dtjld/workspace/AIoT/src/LiteOS_Lab/iot_link/network/dtls/mbedtls/mbedtls-2.16.2/library\x509_create.c ****                                                     MBEDTLS_ASN1_CONSTRUCTED |
 264:C:/Users/dtjld/workspace/AIoT/src/LiteOS_Lab/iot_link/network/dtls/mbedtls/mbedtls-2.16.2/library\x509_create.c ****                                                     MBEDTLS_ASN1_SEQUENCE ) );
 265:C:/Users/dtjld/workspace/AIoT/src/LiteOS_Lab/iot_link/network/dtls/mbedtls/mbedtls-2.16.2/library\x509_create.c **** 
 266:C:/Users/dtjld/workspace/AIoT/src/LiteOS_Lab/iot_link/network/dtls/mbedtls/mbedtls-2.16.2/library\x509_create.c ****     MBEDTLS_ASN1_CHK_ADD( len, mbedtls_asn1_write_len( p, start, len ) );
 859              		.loc 1 266 0 is_stmt 1 discriminator 2
 860 00aa 7A6A     		ldr	r2, [r7, #36]
 861 00ac B968     		ldr	r1, [r7, #8]
 862 00ae F868     		ldr	r0, [r7, #12]
 863 00b0 FFF7FEFF 		bl	mbedtls_asn1_write_len
 864 00b4 3861     		str	r0, [r7, #16]
 865 00b6 3B69     		ldr	r3, [r7, #16]
 866 00b8 002B     		cmp	r3, #0
 867 00ba 01DA     		bge	.L43
 868              		.loc 1 266 0 is_stmt 0 discriminator 1
 869 00bc 3B69     		ldr	r3, [r7, #16]
 870 00be 13E0     		b	.L39
 871              	.L43:
 872              		.loc 1 266 0 discriminator 2
 873 00c0 3B69     		ldr	r3, [r7, #16]
 874 00c2 7A6A     		ldr	r2, [r7, #36]
 875 00c4 1344     		add	r3, r3, r2
 876 00c6 7B62     		str	r3, [r7, #36]
 267:C:/Users/dtjld/workspace/AIoT/src/LiteOS_Lab/iot_link/network/dtls/mbedtls/mbedtls-2.16.2/library\x509_create.c ****     MBEDTLS_ASN1_CHK_ADD( len, mbedtls_asn1_write_tag( p, start,
 877              		.loc 1 267 0 is_stmt 1 discriminator 2
 878 00c8 3122     		movs	r2, #49
 879 00ca B968     		ldr	r1, [r7, #8]
 880 00cc F868     		ldr	r0, [r7, #12]
ARM GAS  C:\Users\dtjld\AppData\Local\Temp\ccCU8bQc.s 			page 22


 881 00ce FFF7FEFF 		bl	mbedtls_asn1_write_tag
 882 00d2 3861     		str	r0, [r7, #16]
 883 00d4 3B69     		ldr	r3, [r7, #16]
 884 00d6 002B     		cmp	r3, #0
 885 00d8 01DA     		bge	.L44
 886              		.loc 1 267 0 is_stmt 0 discriminator 1
 887 00da 3B69     		ldr	r3, [r7, #16]
 888 00dc 04E0     		b	.L39
 889              	.L44:
 890              		.loc 1 267 0 discriminator 2
 891 00de 3B69     		ldr	r3, [r7, #16]
 892 00e0 7A6A     		ldr	r2, [r7, #36]
 893 00e2 1344     		add	r3, r3, r2
 894 00e4 7B62     		str	r3, [r7, #36]
 268:C:/Users/dtjld/workspace/AIoT/src/LiteOS_Lab/iot_link/network/dtls/mbedtls/mbedtls-2.16.2/library\x509_create.c ****                                                  MBEDTLS_ASN1_CONSTRUCTED |
 269:C:/Users/dtjld/workspace/AIoT/src/LiteOS_Lab/iot_link/network/dtls/mbedtls/mbedtls-2.16.2/library\x509_create.c ****                                                  MBEDTLS_ASN1_SET ) );
 270:C:/Users/dtjld/workspace/AIoT/src/LiteOS_Lab/iot_link/network/dtls/mbedtls/mbedtls-2.16.2/library\x509_create.c **** 
 271:C:/Users/dtjld/workspace/AIoT/src/LiteOS_Lab/iot_link/network/dtls/mbedtls/mbedtls-2.16.2/library\x509_create.c ****     return( (int) len );
 895              		.loc 1 271 0 is_stmt 1 discriminator 2
 896 00e6 7B6A     		ldr	r3, [r7, #36]
 897              	.L39:
 272:C:/Users/dtjld/workspace/AIoT/src/LiteOS_Lab/iot_link/network/dtls/mbedtls/mbedtls-2.16.2/library\x509_create.c **** }
 898              		.loc 1 272 0
 899 00e8 1846     		mov	r0, r3
 900 00ea 2837     		adds	r7, r7, #40
 901              	.LCFI18:
 902              		.cfi_def_cfa_offset 8
 903 00ec BD46     		mov	sp, r7
 904              	.LCFI19:
 905              		.cfi_def_cfa_register 13
 906              		@ sp needed
 907 00ee 80BD     		pop	{r7, pc}
 908              		.cfi_endproc
 909              	.LFE13:
 911              		.section	.text.mbedtls_x509_write_names,"ax",%progbits
 912              		.align	1
 913              		.global	mbedtls_x509_write_names
 914              		.syntax unified
 915              		.thumb
 916              		.thumb_func
 917              		.fpu fpv4-sp-d16
 919              	mbedtls_x509_write_names:
 920              	.LFB14:
 273:C:/Users/dtjld/workspace/AIoT/src/LiteOS_Lab/iot_link/network/dtls/mbedtls/mbedtls-2.16.2/library\x509_create.c **** 
 274:C:/Users/dtjld/workspace/AIoT/src/LiteOS_Lab/iot_link/network/dtls/mbedtls/mbedtls-2.16.2/library\x509_create.c **** int mbedtls_x509_write_names( unsigned char **p, unsigned char *start,
 275:C:/Users/dtjld/workspace/AIoT/src/LiteOS_Lab/iot_link/network/dtls/mbedtls/mbedtls-2.16.2/library\x509_create.c ****                               mbedtls_asn1_named_data *first )
 276:C:/Users/dtjld/workspace/AIoT/src/LiteOS_Lab/iot_link/network/dtls/mbedtls/mbedtls-2.16.2/library\x509_create.c **** {
 921              		.loc 1 276 0
 922              		.cfi_startproc
 923              		@ args = 0, pretend = 0, frame = 32
 924              		@ frame_needed = 1, uses_anonymous_args = 0
 925 0000 80B5     		push	{r7, lr}
 926              	.LCFI20:
 927              		.cfi_def_cfa_offset 8
 928              		.cfi_offset 7, -8
 929              		.cfi_offset 14, -4
 930 0002 88B0     		sub	sp, sp, #32
ARM GAS  C:\Users\dtjld\AppData\Local\Temp\ccCU8bQc.s 			page 23


 931              	.LCFI21:
 932              		.cfi_def_cfa_offset 40
 933 0004 00AF     		add	r7, sp, #0
 934              	.LCFI22:
 935              		.cfi_def_cfa_register 7
 936 0006 F860     		str	r0, [r7, #12]
 937 0008 B960     		str	r1, [r7, #8]
 938 000a 7A60     		str	r2, [r7, #4]
 277:C:/Users/dtjld/workspace/AIoT/src/LiteOS_Lab/iot_link/network/dtls/mbedtls/mbedtls-2.16.2/library\x509_create.c ****     int ret;
 278:C:/Users/dtjld/workspace/AIoT/src/LiteOS_Lab/iot_link/network/dtls/mbedtls/mbedtls-2.16.2/library\x509_create.c ****     size_t len = 0;
 939              		.loc 1 278 0
 940 000c 0023     		movs	r3, #0
 941 000e FB61     		str	r3, [r7, #28]
 279:C:/Users/dtjld/workspace/AIoT/src/LiteOS_Lab/iot_link/network/dtls/mbedtls/mbedtls-2.16.2/library\x509_create.c ****     mbedtls_asn1_named_data *cur = first;
 942              		.loc 1 279 0
 943 0010 7B68     		ldr	r3, [r7, #4]
 944 0012 BB61     		str	r3, [r7, #24]
 280:C:/Users/dtjld/workspace/AIoT/src/LiteOS_Lab/iot_link/network/dtls/mbedtls/mbedtls-2.16.2/library\x509_create.c **** 
 281:C:/Users/dtjld/workspace/AIoT/src/LiteOS_Lab/iot_link/network/dtls/mbedtls/mbedtls-2.16.2/library\x509_create.c ****     while( cur != NULL )
 945              		.loc 1 281 0
 946 0014 11E0     		b	.L46
 947              	.L49:
 282:C:/Users/dtjld/workspace/AIoT/src/LiteOS_Lab/iot_link/network/dtls/mbedtls/mbedtls-2.16.2/library\x509_create.c ****     {
 283:C:/Users/dtjld/workspace/AIoT/src/LiteOS_Lab/iot_link/network/dtls/mbedtls/mbedtls-2.16.2/library\x509_create.c ****         MBEDTLS_ASN1_CHK_ADD( len, x509_write_name( p, start, cur ) );
 948              		.loc 1 283 0
 949 0016 BA69     		ldr	r2, [r7, #24]
 950 0018 B968     		ldr	r1, [r7, #8]
 951 001a F868     		ldr	r0, [r7, #12]
 952 001c FFF7FEFF 		bl	x509_write_name
 953 0020 7861     		str	r0, [r7, #20]
 954 0022 7B69     		ldr	r3, [r7, #20]
 955 0024 002B     		cmp	r3, #0
 956 0026 01DA     		bge	.L47
 957              		.loc 1 283 0 is_stmt 0 discriminator 1
 958 0028 7B69     		ldr	r3, [r7, #20]
 959 002a 28E0     		b	.L48
 960              	.L47:
 961              		.loc 1 283 0 discriminator 2
 962 002c 7B69     		ldr	r3, [r7, #20]
 963 002e FA69     		ldr	r2, [r7, #28]
 964 0030 1344     		add	r3, r3, r2
 965 0032 FB61     		str	r3, [r7, #28]
 284:C:/Users/dtjld/workspace/AIoT/src/LiteOS_Lab/iot_link/network/dtls/mbedtls/mbedtls-2.16.2/library\x509_create.c ****         cur = cur->next;
 966              		.loc 1 284 0 is_stmt 1 discriminator 2
 967 0034 BB69     		ldr	r3, [r7, #24]
 968 0036 9B69     		ldr	r3, [r3, #24]
 969 0038 BB61     		str	r3, [r7, #24]
 970              	.L46:
 281:C:/Users/dtjld/workspace/AIoT/src/LiteOS_Lab/iot_link/network/dtls/mbedtls/mbedtls-2.16.2/library\x509_create.c ****     {
 971              		.loc 1 281 0
 972 003a BB69     		ldr	r3, [r7, #24]
 973 003c 002B     		cmp	r3, #0
 974 003e EAD1     		bne	.L49
 285:C:/Users/dtjld/workspace/AIoT/src/LiteOS_Lab/iot_link/network/dtls/mbedtls/mbedtls-2.16.2/library\x509_create.c ****     }
 286:C:/Users/dtjld/workspace/AIoT/src/LiteOS_Lab/iot_link/network/dtls/mbedtls/mbedtls-2.16.2/library\x509_create.c **** 
 287:C:/Users/dtjld/workspace/AIoT/src/LiteOS_Lab/iot_link/network/dtls/mbedtls/mbedtls-2.16.2/library\x509_create.c ****     MBEDTLS_ASN1_CHK_ADD( len, mbedtls_asn1_write_len( p, start, len ) );
 975              		.loc 1 287 0
ARM GAS  C:\Users\dtjld\AppData\Local\Temp\ccCU8bQc.s 			page 24


 976 0040 FA69     		ldr	r2, [r7, #28]
 977 0042 B968     		ldr	r1, [r7, #8]
 978 0044 F868     		ldr	r0, [r7, #12]
 979 0046 FFF7FEFF 		bl	mbedtls_asn1_write_len
 980 004a 7861     		str	r0, [r7, #20]
 981 004c 7B69     		ldr	r3, [r7, #20]
 982 004e 002B     		cmp	r3, #0
 983 0050 01DA     		bge	.L50
 984              		.loc 1 287 0 is_stmt 0 discriminator 1
 985 0052 7B69     		ldr	r3, [r7, #20]
 986 0054 13E0     		b	.L48
 987              	.L50:
 988              		.loc 1 287 0 discriminator 2
 989 0056 7B69     		ldr	r3, [r7, #20]
 990 0058 FA69     		ldr	r2, [r7, #28]
 991 005a 1344     		add	r3, r3, r2
 992 005c FB61     		str	r3, [r7, #28]
 288:C:/Users/dtjld/workspace/AIoT/src/LiteOS_Lab/iot_link/network/dtls/mbedtls/mbedtls-2.16.2/library\x509_create.c ****     MBEDTLS_ASN1_CHK_ADD( len, mbedtls_asn1_write_tag( p, start, MBEDTLS_ASN1_CONSTRUCTED |
 993              		.loc 1 288 0 is_stmt 1 discriminator 2
 994 005e 3022     		movs	r2, #48
 995 0060 B968     		ldr	r1, [r7, #8]
 996 0062 F868     		ldr	r0, [r7, #12]
 997 0064 FFF7FEFF 		bl	mbedtls_asn1_write_tag
 998 0068 7861     		str	r0, [r7, #20]
 999 006a 7B69     		ldr	r3, [r7, #20]
 1000 006c 002B     		cmp	r3, #0
 1001 006e 01DA     		bge	.L51
 1002              		.loc 1 288 0 is_stmt 0 discriminator 1
 1003 0070 7B69     		ldr	r3, [r7, #20]
 1004 0072 04E0     		b	.L48
 1005              	.L51:
 1006              		.loc 1 288 0 discriminator 2
 1007 0074 7B69     		ldr	r3, [r7, #20]
 1008 0076 FA69     		ldr	r2, [r7, #28]
 1009 0078 1344     		add	r3, r3, r2
 1010 007a FB61     		str	r3, [r7, #28]
 289:C:/Users/dtjld/workspace/AIoT/src/LiteOS_Lab/iot_link/network/dtls/mbedtls/mbedtls-2.16.2/library\x509_create.c ****                                                  MBEDTLS_ASN1_SEQUENCE ) );
 290:C:/Users/dtjld/workspace/AIoT/src/LiteOS_Lab/iot_link/network/dtls/mbedtls/mbedtls-2.16.2/library\x509_create.c **** 
 291:C:/Users/dtjld/workspace/AIoT/src/LiteOS_Lab/iot_link/network/dtls/mbedtls/mbedtls-2.16.2/library\x509_create.c ****     return( (int) len );
 1011              		.loc 1 291 0 is_stmt 1 discriminator 2
 1012 007c FB69     		ldr	r3, [r7, #28]
 1013              	.L48:
 292:C:/Users/dtjld/workspace/AIoT/src/LiteOS_Lab/iot_link/network/dtls/mbedtls/mbedtls-2.16.2/library\x509_create.c **** }
 1014              		.loc 1 292 0
 1015 007e 1846     		mov	r0, r3
 1016 0080 2037     		adds	r7, r7, #32
 1017              	.LCFI23:
 1018              		.cfi_def_cfa_offset 8
 1019 0082 BD46     		mov	sp, r7
 1020              	.LCFI24:
 1021              		.cfi_def_cfa_register 13
 1022              		@ sp needed
 1023 0084 80BD     		pop	{r7, pc}
 1024              		.cfi_endproc
 1025              	.LFE14:
 1027              		.section	.text.mbedtls_x509_write_sig,"ax",%progbits
 1028              		.align	1
ARM GAS  C:\Users\dtjld\AppData\Local\Temp\ccCU8bQc.s 			page 25


 1029              		.global	mbedtls_x509_write_sig
 1030              		.syntax unified
 1031              		.thumb
 1032              		.thumb_func
 1033              		.fpu fpv4-sp-d16
 1035              	mbedtls_x509_write_sig:
 1036              	.LFB15:
 293:C:/Users/dtjld/workspace/AIoT/src/LiteOS_Lab/iot_link/network/dtls/mbedtls/mbedtls-2.16.2/library\x509_create.c **** 
 294:C:/Users/dtjld/workspace/AIoT/src/LiteOS_Lab/iot_link/network/dtls/mbedtls/mbedtls-2.16.2/library\x509_create.c **** int mbedtls_x509_write_sig( unsigned char **p, unsigned char *start,
 295:C:/Users/dtjld/workspace/AIoT/src/LiteOS_Lab/iot_link/network/dtls/mbedtls/mbedtls-2.16.2/library\x509_create.c ****                     const char *oid, size_t oid_len,
 296:C:/Users/dtjld/workspace/AIoT/src/LiteOS_Lab/iot_link/network/dtls/mbedtls/mbedtls-2.16.2/library\x509_create.c ****                     unsigned char *sig, size_t size )
 297:C:/Users/dtjld/workspace/AIoT/src/LiteOS_Lab/iot_link/network/dtls/mbedtls/mbedtls-2.16.2/library\x509_create.c **** {
 1037              		.loc 1 297 0
 1038              		.cfi_startproc
 1039              		@ args = 8, pretend = 0, frame = 24
 1040              		@ frame_needed = 1, uses_anonymous_args = 0
 1041 0000 80B5     		push	{r7, lr}
 1042              	.LCFI25:
 1043              		.cfi_def_cfa_offset 8
 1044              		.cfi_offset 7, -8
 1045              		.cfi_offset 14, -4
 1046 0002 88B0     		sub	sp, sp, #32
 1047              	.LCFI26:
 1048              		.cfi_def_cfa_offset 40
 1049 0004 02AF     		add	r7, sp, #8
 1050              	.LCFI27:
 1051              		.cfi_def_cfa 7, 32
 1052 0006 F860     		str	r0, [r7, #12]
 1053 0008 B960     		str	r1, [r7, #8]
 1054 000a 7A60     		str	r2, [r7, #4]
 1055 000c 3B60     		str	r3, [r7]
 298:C:/Users/dtjld/workspace/AIoT/src/LiteOS_Lab/iot_link/network/dtls/mbedtls/mbedtls-2.16.2/library\x509_create.c ****     int ret;
 299:C:/Users/dtjld/workspace/AIoT/src/LiteOS_Lab/iot_link/network/dtls/mbedtls/mbedtls-2.16.2/library\x509_create.c ****     size_t len = 0;
 1056              		.loc 1 299 0
 1057 000e 0023     		movs	r3, #0
 1058 0010 7B61     		str	r3, [r7, #20]
 300:C:/Users/dtjld/workspace/AIoT/src/LiteOS_Lab/iot_link/network/dtls/mbedtls/mbedtls-2.16.2/library\x509_create.c **** 
 301:C:/Users/dtjld/workspace/AIoT/src/LiteOS_Lab/iot_link/network/dtls/mbedtls/mbedtls-2.16.2/library\x509_create.c ****     if( *p < start || (size_t)( *p - start ) < size )
 1059              		.loc 1 301 0
 1060 0012 FB68     		ldr	r3, [r7, #12]
 1061 0014 1B68     		ldr	r3, [r3]
 1062 0016 BA68     		ldr	r2, [r7, #8]
 1063 0018 9A42     		cmp	r2, r3
 1064 001a 08D8     		bhi	.L53
 1065              		.loc 1 301 0 is_stmt 0 discriminator 1
 1066 001c FB68     		ldr	r3, [r7, #12]
 1067 001e 1B68     		ldr	r3, [r3]
 1068 0020 1A46     		mov	r2, r3
 1069 0022 BB68     		ldr	r3, [r7, #8]
 1070 0024 D31A     		subs	r3, r2, r3
 1071 0026 1A46     		mov	r2, r3
 1072 0028 7B6A     		ldr	r3, [r7, #36]
 1073 002a 9342     		cmp	r3, r2
 1074 002c 02D9     		bls	.L54
 1075              	.L53:
 302:C:/Users/dtjld/workspace/AIoT/src/LiteOS_Lab/iot_link/network/dtls/mbedtls/mbedtls-2.16.2/library\x509_create.c ****         return( MBEDTLS_ERR_ASN1_BUF_TOO_SMALL );
 1076              		.loc 1 302 0 is_stmt 1
ARM GAS  C:\Users\dtjld\AppData\Local\Temp\ccCU8bQc.s 			page 26


 1077 002e 6FF06B03 		mvn	r3, #107
 1078 0032 56E0     		b	.L55
 1079              	.L54:
 303:C:/Users/dtjld/workspace/AIoT/src/LiteOS_Lab/iot_link/network/dtls/mbedtls/mbedtls-2.16.2/library\x509_create.c **** 
 304:C:/Users/dtjld/workspace/AIoT/src/LiteOS_Lab/iot_link/network/dtls/mbedtls/mbedtls-2.16.2/library\x509_create.c ****     len = size;
 1080              		.loc 1 304 0
 1081 0034 7B6A     		ldr	r3, [r7, #36]
 1082 0036 7B61     		str	r3, [r7, #20]
 305:C:/Users/dtjld/workspace/AIoT/src/LiteOS_Lab/iot_link/network/dtls/mbedtls/mbedtls-2.16.2/library\x509_create.c ****     (*p) -= len;
 1083              		.loc 1 305 0
 1084 0038 FB68     		ldr	r3, [r7, #12]
 1085 003a 1A68     		ldr	r2, [r3]
 1086 003c 7B69     		ldr	r3, [r7, #20]
 1087 003e 5B42     		negs	r3, r3
 1088 0040 1A44     		add	r2, r2, r3
 1089 0042 FB68     		ldr	r3, [r7, #12]
 1090 0044 1A60     		str	r2, [r3]
 306:C:/Users/dtjld/workspace/AIoT/src/LiteOS_Lab/iot_link/network/dtls/mbedtls/mbedtls-2.16.2/library\x509_create.c ****     memcpy( *p, sig, len );
 1091              		.loc 1 306 0
 1092 0046 FB68     		ldr	r3, [r7, #12]
 1093 0048 1B68     		ldr	r3, [r3]
 1094 004a 7A69     		ldr	r2, [r7, #20]
 1095 004c 396A     		ldr	r1, [r7, #32]
 1096 004e 1846     		mov	r0, r3
 1097 0050 FFF7FEFF 		bl	memcpy
 307:C:/Users/dtjld/workspace/AIoT/src/LiteOS_Lab/iot_link/network/dtls/mbedtls/mbedtls-2.16.2/library\x509_create.c **** 
 308:C:/Users/dtjld/workspace/AIoT/src/LiteOS_Lab/iot_link/network/dtls/mbedtls/mbedtls-2.16.2/library\x509_create.c ****     if( *p - start < 1 )
 1098              		.loc 1 308 0
 1099 0054 FB68     		ldr	r3, [r7, #12]
 1100 0056 1B68     		ldr	r3, [r3]
 1101 0058 1A46     		mov	r2, r3
 1102 005a BB68     		ldr	r3, [r7, #8]
 1103 005c D31A     		subs	r3, r2, r3
 1104 005e 002B     		cmp	r3, #0
 1105 0060 02DC     		bgt	.L56
 309:C:/Users/dtjld/workspace/AIoT/src/LiteOS_Lab/iot_link/network/dtls/mbedtls/mbedtls-2.16.2/library\x509_create.c ****         return( MBEDTLS_ERR_ASN1_BUF_TOO_SMALL );
 1106              		.loc 1 309 0
 1107 0062 6FF06B03 		mvn	r3, #107
 1108 0066 3CE0     		b	.L55
 1109              	.L56:
 310:C:/Users/dtjld/workspace/AIoT/src/LiteOS_Lab/iot_link/network/dtls/mbedtls/mbedtls-2.16.2/library\x509_create.c **** 
 311:C:/Users/dtjld/workspace/AIoT/src/LiteOS_Lab/iot_link/network/dtls/mbedtls/mbedtls-2.16.2/library\x509_create.c ****     *--(*p) = 0;
 1110              		.loc 1 311 0
 1111 0068 FB68     		ldr	r3, [r7, #12]
 1112 006a 1B68     		ldr	r3, [r3]
 1113 006c 5A1E     		subs	r2, r3, #1
 1114 006e FB68     		ldr	r3, [r7, #12]
 1115 0070 1A60     		str	r2, [r3]
 1116 0072 FB68     		ldr	r3, [r7, #12]
 1117 0074 1B68     		ldr	r3, [r3]
 1118 0076 0022     		movs	r2, #0
 1119 0078 1A70     		strb	r2, [r3]
 312:C:/Users/dtjld/workspace/AIoT/src/LiteOS_Lab/iot_link/network/dtls/mbedtls/mbedtls-2.16.2/library\x509_create.c ****     len += 1;
 1120              		.loc 1 312 0
 1121 007a 7B69     		ldr	r3, [r7, #20]
 1122 007c 0133     		adds	r3, r3, #1
 1123 007e 7B61     		str	r3, [r7, #20]
ARM GAS  C:\Users\dtjld\AppData\Local\Temp\ccCU8bQc.s 			page 27


 313:C:/Users/dtjld/workspace/AIoT/src/LiteOS_Lab/iot_link/network/dtls/mbedtls/mbedtls-2.16.2/library\x509_create.c **** 
 314:C:/Users/dtjld/workspace/AIoT/src/LiteOS_Lab/iot_link/network/dtls/mbedtls/mbedtls-2.16.2/library\x509_create.c ****     MBEDTLS_ASN1_CHK_ADD( len, mbedtls_asn1_write_len( p, start, len ) );
 1124              		.loc 1 314 0
 1125 0080 7A69     		ldr	r2, [r7, #20]
 1126 0082 B968     		ldr	r1, [r7, #8]
 1127 0084 F868     		ldr	r0, [r7, #12]
 1128 0086 FFF7FEFF 		bl	mbedtls_asn1_write_len
 1129 008a 3861     		str	r0, [r7, #16]
 1130 008c 3B69     		ldr	r3, [r7, #16]
 1131 008e 002B     		cmp	r3, #0
 1132 0090 01DA     		bge	.L57
 1133              		.loc 1 314 0 is_stmt 0 discriminator 1
 1134 0092 3B69     		ldr	r3, [r7, #16]
 1135 0094 25E0     		b	.L55
 1136              	.L57:
 1137              		.loc 1 314 0 discriminator 2
 1138 0096 3B69     		ldr	r3, [r7, #16]
 1139 0098 7A69     		ldr	r2, [r7, #20]
 1140 009a 1344     		add	r3, r3, r2
 1141 009c 7B61     		str	r3, [r7, #20]
 315:C:/Users/dtjld/workspace/AIoT/src/LiteOS_Lab/iot_link/network/dtls/mbedtls/mbedtls-2.16.2/library\x509_create.c ****     MBEDTLS_ASN1_CHK_ADD( len, mbedtls_asn1_write_tag( p, start, MBEDTLS_ASN1_BIT_STRING ) );
 1142              		.loc 1 315 0 is_stmt 1 discriminator 2
 1143 009e 0322     		movs	r2, #3
 1144 00a0 B968     		ldr	r1, [r7, #8]
 1145 00a2 F868     		ldr	r0, [r7, #12]
 1146 00a4 FFF7FEFF 		bl	mbedtls_asn1_write_tag
 1147 00a8 3861     		str	r0, [r7, #16]
 1148 00aa 3B69     		ldr	r3, [r7, #16]
 1149 00ac 002B     		cmp	r3, #0
 1150 00ae 01DA     		bge	.L58
 1151              		.loc 1 315 0 is_stmt 0 discriminator 1
 1152 00b0 3B69     		ldr	r3, [r7, #16]
 1153 00b2 16E0     		b	.L55
 1154              	.L58:
 1155              		.loc 1 315 0 discriminator 2
 1156 00b4 3B69     		ldr	r3, [r7, #16]
 1157 00b6 7A69     		ldr	r2, [r7, #20]
 1158 00b8 1344     		add	r3, r3, r2
 1159 00ba 7B61     		str	r3, [r7, #20]
 316:C:/Users/dtjld/workspace/AIoT/src/LiteOS_Lab/iot_link/network/dtls/mbedtls/mbedtls-2.16.2/library\x509_create.c **** 
 317:C:/Users/dtjld/workspace/AIoT/src/LiteOS_Lab/iot_link/network/dtls/mbedtls/mbedtls-2.16.2/library\x509_create.c ****     // Write OID
 318:C:/Users/dtjld/workspace/AIoT/src/LiteOS_Lab/iot_link/network/dtls/mbedtls/mbedtls-2.16.2/library\x509_create.c ****     //
 319:C:/Users/dtjld/workspace/AIoT/src/LiteOS_Lab/iot_link/network/dtls/mbedtls/mbedtls-2.16.2/library\x509_create.c ****     MBEDTLS_ASN1_CHK_ADD( len, mbedtls_asn1_write_algorithm_identifier( p, start, oid,
 1160              		.loc 1 319 0 is_stmt 1 discriminator 2
 1161 00bc 0023     		movs	r3, #0
 1162 00be 0093     		str	r3, [sp]
 1163 00c0 3B68     		ldr	r3, [r7]
 1164 00c2 7A68     		ldr	r2, [r7, #4]
 1165 00c4 B968     		ldr	r1, [r7, #8]
 1166 00c6 F868     		ldr	r0, [r7, #12]
 1167 00c8 FFF7FEFF 		bl	mbedtls_asn1_write_algorithm_identifier
 1168 00cc 3861     		str	r0, [r7, #16]
 1169 00ce 3B69     		ldr	r3, [r7, #16]
 1170 00d0 002B     		cmp	r3, #0
 1171 00d2 01DA     		bge	.L59
 1172              		.loc 1 319 0 is_stmt 0 discriminator 1
 1173 00d4 3B69     		ldr	r3, [r7, #16]
ARM GAS  C:\Users\dtjld\AppData\Local\Temp\ccCU8bQc.s 			page 28


 1174 00d6 04E0     		b	.L55
 1175              	.L59:
 1176              		.loc 1 319 0 discriminator 2
 1177 00d8 3B69     		ldr	r3, [r7, #16]
 1178 00da 7A69     		ldr	r2, [r7, #20]
 1179 00dc 1344     		add	r3, r3, r2
 1180 00de 7B61     		str	r3, [r7, #20]
 320:C:/Users/dtjld/workspace/AIoT/src/LiteOS_Lab/iot_link/network/dtls/mbedtls/mbedtls-2.16.2/library\x509_create.c ****                                                         oid_len, 0 ) );
 321:C:/Users/dtjld/workspace/AIoT/src/LiteOS_Lab/iot_link/network/dtls/mbedtls/mbedtls-2.16.2/library\x509_create.c **** 
 322:C:/Users/dtjld/workspace/AIoT/src/LiteOS_Lab/iot_link/network/dtls/mbedtls/mbedtls-2.16.2/library\x509_create.c ****     return( (int) len );
 1181              		.loc 1 322 0 is_stmt 1 discriminator 2
 1182 00e0 7B69     		ldr	r3, [r7, #20]
 1183              	.L55:
 323:C:/Users/dtjld/workspace/AIoT/src/LiteOS_Lab/iot_link/network/dtls/mbedtls/mbedtls-2.16.2/library\x509_create.c **** }
 1184              		.loc 1 323 0
 1185 00e2 1846     		mov	r0, r3
 1186 00e4 1837     		adds	r7, r7, #24
 1187              	.LCFI28:
 1188              		.cfi_def_cfa_offset 8
 1189 00e6 BD46     		mov	sp, r7
 1190              	.LCFI29:
 1191              		.cfi_def_cfa_register 13
 1192              		@ sp needed
 1193 00e8 80BD     		pop	{r7, pc}
 1194              		.cfi_endproc
 1195              	.LFE15:
 1197              		.section	.text.x509_write_extension,"ax",%progbits
 1198              		.align	1
 1199              		.syntax unified
 1200              		.thumb
 1201              		.thumb_func
 1202              		.fpu fpv4-sp-d16
 1204              	x509_write_extension:
 1205              	.LFB16:
 324:C:/Users/dtjld/workspace/AIoT/src/LiteOS_Lab/iot_link/network/dtls/mbedtls/mbedtls-2.16.2/library\x509_create.c **** 
 325:C:/Users/dtjld/workspace/AIoT/src/LiteOS_Lab/iot_link/network/dtls/mbedtls/mbedtls-2.16.2/library\x509_create.c **** static int x509_write_extension( unsigned char **p, unsigned char *start,
 326:C:/Users/dtjld/workspace/AIoT/src/LiteOS_Lab/iot_link/network/dtls/mbedtls/mbedtls-2.16.2/library\x509_create.c ****                                  mbedtls_asn1_named_data *ext )
 327:C:/Users/dtjld/workspace/AIoT/src/LiteOS_Lab/iot_link/network/dtls/mbedtls/mbedtls-2.16.2/library\x509_create.c **** {
 1206              		.loc 1 327 0
 1207              		.cfi_startproc
 1208              		@ args = 0, pretend = 0, frame = 24
 1209              		@ frame_needed = 1, uses_anonymous_args = 0
 1210 0000 80B5     		push	{r7, lr}
 1211              	.LCFI30:
 1212              		.cfi_def_cfa_offset 8
 1213              		.cfi_offset 7, -8
 1214              		.cfi_offset 14, -4
 1215 0002 86B0     		sub	sp, sp, #24
 1216              	.LCFI31:
 1217              		.cfi_def_cfa_offset 32
 1218 0004 00AF     		add	r7, sp, #0
 1219              	.LCFI32:
 1220              		.cfi_def_cfa_register 7
 1221 0006 F860     		str	r0, [r7, #12]
 1222 0008 B960     		str	r1, [r7, #8]
 1223 000a 7A60     		str	r2, [r7, #4]
 328:C:/Users/dtjld/workspace/AIoT/src/LiteOS_Lab/iot_link/network/dtls/mbedtls/mbedtls-2.16.2/library\x509_create.c ****     int ret;
ARM GAS  C:\Users\dtjld\AppData\Local\Temp\ccCU8bQc.s 			page 29


 329:C:/Users/dtjld/workspace/AIoT/src/LiteOS_Lab/iot_link/network/dtls/mbedtls/mbedtls-2.16.2/library\x509_create.c ****     size_t len = 0;
 1224              		.loc 1 329 0
 1225 000c 0023     		movs	r3, #0
 1226 000e 7B61     		str	r3, [r7, #20]
 330:C:/Users/dtjld/workspace/AIoT/src/LiteOS_Lab/iot_link/network/dtls/mbedtls/mbedtls-2.16.2/library\x509_create.c **** 
 331:C:/Users/dtjld/workspace/AIoT/src/LiteOS_Lab/iot_link/network/dtls/mbedtls/mbedtls-2.16.2/library\x509_create.c ****     MBEDTLS_ASN1_CHK_ADD( len, mbedtls_asn1_write_raw_buffer( p, start, ext->val.p + 1,
 1227              		.loc 1 331 0
 1228 0010 7B68     		ldr	r3, [r7, #4]
 1229 0012 5B69     		ldr	r3, [r3, #20]
 1230 0014 5A1C     		adds	r2, r3, #1
 1231 0016 7B68     		ldr	r3, [r7, #4]
 1232 0018 1B69     		ldr	r3, [r3, #16]
 1233 001a 013B     		subs	r3, r3, #1
 1234 001c B968     		ldr	r1, [r7, #8]
 1235 001e F868     		ldr	r0, [r7, #12]
 1236 0020 FFF7FEFF 		bl	mbedtls_asn1_write_raw_buffer
 1237 0024 3861     		str	r0, [r7, #16]
 1238 0026 3B69     		ldr	r3, [r7, #16]
 1239 0028 002B     		cmp	r3, #0
 1240 002a 01DA     		bge	.L61
 1241              		.loc 1 331 0 is_stmt 0 discriminator 1
 1242 002c 3B69     		ldr	r3, [r7, #16]
 1243 002e 89E0     		b	.L62
 1244              	.L61:
 1245              		.loc 1 331 0 discriminator 2
 1246 0030 3B69     		ldr	r3, [r7, #16]
 1247 0032 7A69     		ldr	r2, [r7, #20]
 1248 0034 1344     		add	r3, r3, r2
 1249 0036 7B61     		str	r3, [r7, #20]
 332:C:/Users/dtjld/workspace/AIoT/src/LiteOS_Lab/iot_link/network/dtls/mbedtls/mbedtls-2.16.2/library\x509_create.c ****                                               ext->val.len - 1 ) );
 333:C:/Users/dtjld/workspace/AIoT/src/LiteOS_Lab/iot_link/network/dtls/mbedtls/mbedtls-2.16.2/library\x509_create.c ****     MBEDTLS_ASN1_CHK_ADD( len, mbedtls_asn1_write_len( p, start, ext->val.len - 1 ) );
 1250              		.loc 1 333 0 is_stmt 1 discriminator 2
 1251 0038 7B68     		ldr	r3, [r7, #4]
 1252 003a 1B69     		ldr	r3, [r3, #16]
 1253 003c 013B     		subs	r3, r3, #1
 1254 003e 1A46     		mov	r2, r3
 1255 0040 B968     		ldr	r1, [r7, #8]
 1256 0042 F868     		ldr	r0, [r7, #12]
 1257 0044 FFF7FEFF 		bl	mbedtls_asn1_write_len
 1258 0048 3861     		str	r0, [r7, #16]
 1259 004a 3B69     		ldr	r3, [r7, #16]
 1260 004c 002B     		cmp	r3, #0
 1261 004e 01DA     		bge	.L63
 1262              		.loc 1 333 0 is_stmt 0 discriminator 1
 1263 0050 3B69     		ldr	r3, [r7, #16]
 1264 0052 77E0     		b	.L62
 1265              	.L63:
 1266              		.loc 1 333 0 discriminator 2
 1267 0054 3B69     		ldr	r3, [r7, #16]
 1268 0056 7A69     		ldr	r2, [r7, #20]
 1269 0058 1344     		add	r3, r3, r2
 1270 005a 7B61     		str	r3, [r7, #20]
 334:C:/Users/dtjld/workspace/AIoT/src/LiteOS_Lab/iot_link/network/dtls/mbedtls/mbedtls-2.16.2/library\x509_create.c ****     MBEDTLS_ASN1_CHK_ADD( len, mbedtls_asn1_write_tag( p, start, MBEDTLS_ASN1_OCTET_STRING ) );
 1271              		.loc 1 334 0 is_stmt 1 discriminator 2
 1272 005c 0422     		movs	r2, #4
 1273 005e B968     		ldr	r1, [r7, #8]
 1274 0060 F868     		ldr	r0, [r7, #12]
ARM GAS  C:\Users\dtjld\AppData\Local\Temp\ccCU8bQc.s 			page 30


 1275 0062 FFF7FEFF 		bl	mbedtls_asn1_write_tag
 1276 0066 3861     		str	r0, [r7, #16]
 1277 0068 3B69     		ldr	r3, [r7, #16]
 1278 006a 002B     		cmp	r3, #0
 1279 006c 01DA     		bge	.L64
 1280              		.loc 1 334 0 is_stmt 0 discriminator 1
 1281 006e 3B69     		ldr	r3, [r7, #16]
 1282 0070 68E0     		b	.L62
 1283              	.L64:
 1284              		.loc 1 334 0 discriminator 2
 1285 0072 3B69     		ldr	r3, [r7, #16]
 1286 0074 7A69     		ldr	r2, [r7, #20]
 1287 0076 1344     		add	r3, r3, r2
 1288 0078 7B61     		str	r3, [r7, #20]
 335:C:/Users/dtjld/workspace/AIoT/src/LiteOS_Lab/iot_link/network/dtls/mbedtls/mbedtls-2.16.2/library\x509_create.c **** 
 336:C:/Users/dtjld/workspace/AIoT/src/LiteOS_Lab/iot_link/network/dtls/mbedtls/mbedtls-2.16.2/library\x509_create.c ****     if( ext->val.p[0] != 0 )
 1289              		.loc 1 336 0 is_stmt 1 discriminator 2
 1290 007a 7B68     		ldr	r3, [r7, #4]
 1291 007c 5B69     		ldr	r3, [r3, #20]
 1292 007e 1B78     		ldrb	r3, [r3]	@ zero_extendqisi2
 1293 0080 002B     		cmp	r3, #0
 1294 0082 0ED0     		beq	.L65
 337:C:/Users/dtjld/workspace/AIoT/src/LiteOS_Lab/iot_link/network/dtls/mbedtls/mbedtls-2.16.2/library\x509_create.c ****     {
 338:C:/Users/dtjld/workspace/AIoT/src/LiteOS_Lab/iot_link/network/dtls/mbedtls/mbedtls-2.16.2/library\x509_create.c ****         MBEDTLS_ASN1_CHK_ADD( len, mbedtls_asn1_write_bool( p, start, 1 ) );
 1295              		.loc 1 338 0
 1296 0084 0122     		movs	r2, #1
 1297 0086 B968     		ldr	r1, [r7, #8]
 1298 0088 F868     		ldr	r0, [r7, #12]
 1299 008a FFF7FEFF 		bl	mbedtls_asn1_write_bool
 1300 008e 3861     		str	r0, [r7, #16]
 1301 0090 3B69     		ldr	r3, [r7, #16]
 1302 0092 002B     		cmp	r3, #0
 1303 0094 01DA     		bge	.L66
 1304              		.loc 1 338 0 is_stmt 0 discriminator 1
 1305 0096 3B69     		ldr	r3, [r7, #16]
 1306 0098 54E0     		b	.L62
 1307              	.L66:
 1308              		.loc 1 338 0 discriminator 2
 1309 009a 3B69     		ldr	r3, [r7, #16]
 1310 009c 7A69     		ldr	r2, [r7, #20]
 1311 009e 1344     		add	r3, r3, r2
 1312 00a0 7B61     		str	r3, [r7, #20]
 1313              	.L65:
 339:C:/Users/dtjld/workspace/AIoT/src/LiteOS_Lab/iot_link/network/dtls/mbedtls/mbedtls-2.16.2/library\x509_create.c ****     }
 340:C:/Users/dtjld/workspace/AIoT/src/LiteOS_Lab/iot_link/network/dtls/mbedtls/mbedtls-2.16.2/library\x509_create.c **** 
 341:C:/Users/dtjld/workspace/AIoT/src/LiteOS_Lab/iot_link/network/dtls/mbedtls/mbedtls-2.16.2/library\x509_create.c ****     MBEDTLS_ASN1_CHK_ADD( len, mbedtls_asn1_write_raw_buffer( p, start, ext->oid.p,
 1314              		.loc 1 341 0 is_stmt 1
 1315 00a2 7B68     		ldr	r3, [r7, #4]
 1316 00a4 9A68     		ldr	r2, [r3, #8]
 1317 00a6 7B68     		ldr	r3, [r7, #4]
 1318 00a8 5B68     		ldr	r3, [r3, #4]
 1319 00aa B968     		ldr	r1, [r7, #8]
 1320 00ac F868     		ldr	r0, [r7, #12]
 1321 00ae FFF7FEFF 		bl	mbedtls_asn1_write_raw_buffer
 1322 00b2 3861     		str	r0, [r7, #16]
 1323 00b4 3B69     		ldr	r3, [r7, #16]
 1324 00b6 002B     		cmp	r3, #0
ARM GAS  C:\Users\dtjld\AppData\Local\Temp\ccCU8bQc.s 			page 31


 1325 00b8 01DA     		bge	.L67
 1326              		.loc 1 341 0 is_stmt 0 discriminator 1
 1327 00ba 3B69     		ldr	r3, [r7, #16]
 1328 00bc 42E0     		b	.L62
 1329              	.L67:
 1330              		.loc 1 341 0 discriminator 2
 1331 00be 3B69     		ldr	r3, [r7, #16]
 1332 00c0 7A69     		ldr	r2, [r7, #20]
 1333 00c2 1344     		add	r3, r3, r2
 1334 00c4 7B61     		str	r3, [r7, #20]
 342:C:/Users/dtjld/workspace/AIoT/src/LiteOS_Lab/iot_link/network/dtls/mbedtls/mbedtls-2.16.2/library\x509_create.c ****                                               ext->oid.len ) );
 343:C:/Users/dtjld/workspace/AIoT/src/LiteOS_Lab/iot_link/network/dtls/mbedtls/mbedtls-2.16.2/library\x509_create.c ****     MBEDTLS_ASN1_CHK_ADD( len, mbedtls_asn1_write_len( p, start, ext->oid.len ) );
 1335              		.loc 1 343 0 is_stmt 1 discriminator 2
 1336 00c6 7B68     		ldr	r3, [r7, #4]
 1337 00c8 5B68     		ldr	r3, [r3, #4]
 1338 00ca 1A46     		mov	r2, r3
 1339 00cc B968     		ldr	r1, [r7, #8]
 1340 00ce F868     		ldr	r0, [r7, #12]
 1341 00d0 FFF7FEFF 		bl	mbedtls_asn1_write_len
 1342 00d4 3861     		str	r0, [r7, #16]
 1343 00d6 3B69     		ldr	r3, [r7, #16]
 1344 00d8 002B     		cmp	r3, #0
 1345 00da 01DA     		bge	.L68
 1346              		.loc 1 343 0 is_stmt 0 discriminator 1
 1347 00dc 3B69     		ldr	r3, [r7, #16]
 1348 00de 31E0     		b	.L62
 1349              	.L68:
 1350              		.loc 1 343 0 discriminator 2
 1351 00e0 3B69     		ldr	r3, [r7, #16]
 1352 00e2 7A69     		ldr	r2, [r7, #20]
 1353 00e4 1344     		add	r3, r3, r2
 1354 00e6 7B61     		str	r3, [r7, #20]
 344:C:/Users/dtjld/workspace/AIoT/src/LiteOS_Lab/iot_link/network/dtls/mbedtls/mbedtls-2.16.2/library\x509_create.c ****     MBEDTLS_ASN1_CHK_ADD( len, mbedtls_asn1_write_tag( p, start, MBEDTLS_ASN1_OID ) );
 1355              		.loc 1 344 0 is_stmt 1 discriminator 2
 1356 00e8 0622     		movs	r2, #6
 1357 00ea B968     		ldr	r1, [r7, #8]
 1358 00ec F868     		ldr	r0, [r7, #12]
 1359 00ee FFF7FEFF 		bl	mbedtls_asn1_write_tag
 1360 00f2 3861     		str	r0, [r7, #16]
 1361 00f4 3B69     		ldr	r3, [r7, #16]
 1362 00f6 002B     		cmp	r3, #0
 1363 00f8 01DA     		bge	.L69
 1364              		.loc 1 344 0 is_stmt 0 discriminator 1
 1365 00fa 3B69     		ldr	r3, [r7, #16]
 1366 00fc 22E0     		b	.L62
 1367              	.L69:
 1368              		.loc 1 344 0 discriminator 2
 1369 00fe 3B69     		ldr	r3, [r7, #16]
 1370 0100 7A69     		ldr	r2, [r7, #20]
 1371 0102 1344     		add	r3, r3, r2
 1372 0104 7B61     		str	r3, [r7, #20]
 345:C:/Users/dtjld/workspace/AIoT/src/LiteOS_Lab/iot_link/network/dtls/mbedtls/mbedtls-2.16.2/library\x509_create.c **** 
 346:C:/Users/dtjld/workspace/AIoT/src/LiteOS_Lab/iot_link/network/dtls/mbedtls/mbedtls-2.16.2/library\x509_create.c ****     MBEDTLS_ASN1_CHK_ADD( len, mbedtls_asn1_write_len( p, start, len ) );
 1373              		.loc 1 346 0 is_stmt 1 discriminator 2
 1374 0106 7A69     		ldr	r2, [r7, #20]
 1375 0108 B968     		ldr	r1, [r7, #8]
 1376 010a F868     		ldr	r0, [r7, #12]
ARM GAS  C:\Users\dtjld\AppData\Local\Temp\ccCU8bQc.s 			page 32


 1377 010c FFF7FEFF 		bl	mbedtls_asn1_write_len
 1378 0110 3861     		str	r0, [r7, #16]
 1379 0112 3B69     		ldr	r3, [r7, #16]
 1380 0114 002B     		cmp	r3, #0
 1381 0116 01DA     		bge	.L70
 1382              		.loc 1 346 0 is_stmt 0 discriminator 1
 1383 0118 3B69     		ldr	r3, [r7, #16]
 1384 011a 13E0     		b	.L62
 1385              	.L70:
 1386              		.loc 1 346 0 discriminator 2
 1387 011c 3B69     		ldr	r3, [r7, #16]
 1388 011e 7A69     		ldr	r2, [r7, #20]
 1389 0120 1344     		add	r3, r3, r2
 1390 0122 7B61     		str	r3, [r7, #20]
 347:C:/Users/dtjld/workspace/AIoT/src/LiteOS_Lab/iot_link/network/dtls/mbedtls/mbedtls-2.16.2/library\x509_create.c ****     MBEDTLS_ASN1_CHK_ADD( len, mbedtls_asn1_write_tag( p, start, MBEDTLS_ASN1_CONSTRUCTED |
 1391              		.loc 1 347 0 is_stmt 1 discriminator 2
 1392 0124 3022     		movs	r2, #48
 1393 0126 B968     		ldr	r1, [r7, #8]
 1394 0128 F868     		ldr	r0, [r7, #12]
 1395 012a FFF7FEFF 		bl	mbedtls_asn1_write_tag
 1396 012e 3861     		str	r0, [r7, #16]
 1397 0130 3B69     		ldr	r3, [r7, #16]
 1398 0132 002B     		cmp	r3, #0
 1399 0134 01DA     		bge	.L71
 1400              		.loc 1 347 0 is_stmt 0 discriminator 1
 1401 0136 3B69     		ldr	r3, [r7, #16]
 1402 0138 04E0     		b	.L62
 1403              	.L71:
 1404              		.loc 1 347 0 discriminator 2
 1405 013a 3B69     		ldr	r3, [r7, #16]
 1406 013c 7A69     		ldr	r2, [r7, #20]
 1407 013e 1344     		add	r3, r3, r2
 1408 0140 7B61     		str	r3, [r7, #20]
 348:C:/Users/dtjld/workspace/AIoT/src/LiteOS_Lab/iot_link/network/dtls/mbedtls/mbedtls-2.16.2/library\x509_create.c ****                                                  MBEDTLS_ASN1_SEQUENCE ) );
 349:C:/Users/dtjld/workspace/AIoT/src/LiteOS_Lab/iot_link/network/dtls/mbedtls/mbedtls-2.16.2/library\x509_create.c **** 
 350:C:/Users/dtjld/workspace/AIoT/src/LiteOS_Lab/iot_link/network/dtls/mbedtls/mbedtls-2.16.2/library\x509_create.c ****     return( (int) len );
 1409              		.loc 1 350 0 is_stmt 1 discriminator 2
 1410 0142 7B69     		ldr	r3, [r7, #20]
 1411              	.L62:
 351:C:/Users/dtjld/workspace/AIoT/src/LiteOS_Lab/iot_link/network/dtls/mbedtls/mbedtls-2.16.2/library\x509_create.c **** }
 1412              		.loc 1 351 0
 1413 0144 1846     		mov	r0, r3
 1414 0146 1837     		adds	r7, r7, #24
 1415              	.LCFI33:
 1416              		.cfi_def_cfa_offset 8
 1417 0148 BD46     		mov	sp, r7
 1418              	.LCFI34:
 1419              		.cfi_def_cfa_register 13
 1420              		@ sp needed
 1421 014a 80BD     		pop	{r7, pc}
 1422              		.cfi_endproc
 1423              	.LFE16:
 1425              		.section	.text.mbedtls_x509_write_extensions,"ax",%progbits
 1426              		.align	1
 1427              		.global	mbedtls_x509_write_extensions
 1428              		.syntax unified
 1429              		.thumb
ARM GAS  C:\Users\dtjld\AppData\Local\Temp\ccCU8bQc.s 			page 33


 1430              		.thumb_func
 1431              		.fpu fpv4-sp-d16
 1433              	mbedtls_x509_write_extensions:
 1434              	.LFB17:
 352:C:/Users/dtjld/workspace/AIoT/src/LiteOS_Lab/iot_link/network/dtls/mbedtls/mbedtls-2.16.2/library\x509_create.c **** 
 353:C:/Users/dtjld/workspace/AIoT/src/LiteOS_Lab/iot_link/network/dtls/mbedtls/mbedtls-2.16.2/library\x509_create.c **** /*
 354:C:/Users/dtjld/workspace/AIoT/src/LiteOS_Lab/iot_link/network/dtls/mbedtls/mbedtls-2.16.2/library\x509_create.c ****  * Extension  ::=  SEQUENCE  {
 355:C:/Users/dtjld/workspace/AIoT/src/LiteOS_Lab/iot_link/network/dtls/mbedtls/mbedtls-2.16.2/library\x509_create.c ****  *     extnID      OBJECT IDENTIFIER,
 356:C:/Users/dtjld/workspace/AIoT/src/LiteOS_Lab/iot_link/network/dtls/mbedtls/mbedtls-2.16.2/library\x509_create.c ****  *     critical    BOOLEAN DEFAULT FALSE,
 357:C:/Users/dtjld/workspace/AIoT/src/LiteOS_Lab/iot_link/network/dtls/mbedtls/mbedtls-2.16.2/library\x509_create.c ****  *     extnValue   OCTET STRING
 358:C:/Users/dtjld/workspace/AIoT/src/LiteOS_Lab/iot_link/network/dtls/mbedtls/mbedtls-2.16.2/library\x509_create.c ****  *                 -- contains the DER encoding of an ASN.1 value
 359:C:/Users/dtjld/workspace/AIoT/src/LiteOS_Lab/iot_link/network/dtls/mbedtls/mbedtls-2.16.2/library\x509_create.c ****  *                 -- corresponding to the extension type identified
 360:C:/Users/dtjld/workspace/AIoT/src/LiteOS_Lab/iot_link/network/dtls/mbedtls/mbedtls-2.16.2/library\x509_create.c ****  *                 -- by extnID
 361:C:/Users/dtjld/workspace/AIoT/src/LiteOS_Lab/iot_link/network/dtls/mbedtls/mbedtls-2.16.2/library\x509_create.c ****  *     }
 362:C:/Users/dtjld/workspace/AIoT/src/LiteOS_Lab/iot_link/network/dtls/mbedtls/mbedtls-2.16.2/library\x509_create.c ****  */
 363:C:/Users/dtjld/workspace/AIoT/src/LiteOS_Lab/iot_link/network/dtls/mbedtls/mbedtls-2.16.2/library\x509_create.c **** int mbedtls_x509_write_extensions( unsigned char **p, unsigned char *start,
 364:C:/Users/dtjld/workspace/AIoT/src/LiteOS_Lab/iot_link/network/dtls/mbedtls/mbedtls-2.16.2/library\x509_create.c ****                            mbedtls_asn1_named_data *first )
 365:C:/Users/dtjld/workspace/AIoT/src/LiteOS_Lab/iot_link/network/dtls/mbedtls/mbedtls-2.16.2/library\x509_create.c **** {
 1435              		.loc 1 365 0
 1436              		.cfi_startproc
 1437              		@ args = 0, pretend = 0, frame = 32
 1438              		@ frame_needed = 1, uses_anonymous_args = 0
 1439 0000 80B5     		push	{r7, lr}
 1440              	.LCFI35:
 1441              		.cfi_def_cfa_offset 8
 1442              		.cfi_offset 7, -8
 1443              		.cfi_offset 14, -4
 1444 0002 88B0     		sub	sp, sp, #32
 1445              	.LCFI36:
 1446              		.cfi_def_cfa_offset 40
 1447 0004 00AF     		add	r7, sp, #0
 1448              	.LCFI37:
 1449              		.cfi_def_cfa_register 7
 1450 0006 F860     		str	r0, [r7, #12]
 1451 0008 B960     		str	r1, [r7, #8]
 1452 000a 7A60     		str	r2, [r7, #4]
 366:C:/Users/dtjld/workspace/AIoT/src/LiteOS_Lab/iot_link/network/dtls/mbedtls/mbedtls-2.16.2/library\x509_create.c ****     int ret;
 367:C:/Users/dtjld/workspace/AIoT/src/LiteOS_Lab/iot_link/network/dtls/mbedtls/mbedtls-2.16.2/library\x509_create.c ****     size_t len = 0;
 1453              		.loc 1 367 0
 1454 000c 0023     		movs	r3, #0
 1455 000e FB61     		str	r3, [r7, #28]
 368:C:/Users/dtjld/workspace/AIoT/src/LiteOS_Lab/iot_link/network/dtls/mbedtls/mbedtls-2.16.2/library\x509_create.c ****     mbedtls_asn1_named_data *cur_ext = first;
 1456              		.loc 1 368 0
 1457 0010 7B68     		ldr	r3, [r7, #4]
 1458 0012 BB61     		str	r3, [r7, #24]
 369:C:/Users/dtjld/workspace/AIoT/src/LiteOS_Lab/iot_link/network/dtls/mbedtls/mbedtls-2.16.2/library\x509_create.c **** 
 370:C:/Users/dtjld/workspace/AIoT/src/LiteOS_Lab/iot_link/network/dtls/mbedtls/mbedtls-2.16.2/library\x509_create.c ****     while( cur_ext != NULL )
 1459              		.loc 1 370 0
 1460 0014 11E0     		b	.L73
 1461              	.L76:
 371:C:/Users/dtjld/workspace/AIoT/src/LiteOS_Lab/iot_link/network/dtls/mbedtls/mbedtls-2.16.2/library\x509_create.c ****     {
 372:C:/Users/dtjld/workspace/AIoT/src/LiteOS_Lab/iot_link/network/dtls/mbedtls/mbedtls-2.16.2/library\x509_create.c ****         MBEDTLS_ASN1_CHK_ADD( len, x509_write_extension( p, start, cur_ext ) );
 1462              		.loc 1 372 0
 1463 0016 BA69     		ldr	r2, [r7, #24]
 1464 0018 B968     		ldr	r1, [r7, #8]
 1465 001a F868     		ldr	r0, [r7, #12]
 1466 001c FFF7FEFF 		bl	x509_write_extension
ARM GAS  C:\Users\dtjld\AppData\Local\Temp\ccCU8bQc.s 			page 34


 1467 0020 7861     		str	r0, [r7, #20]
 1468 0022 7B69     		ldr	r3, [r7, #20]
 1469 0024 002B     		cmp	r3, #0
 1470 0026 01DA     		bge	.L74
 1471              		.loc 1 372 0 is_stmt 0 discriminator 1
 1472 0028 7B69     		ldr	r3, [r7, #20]
 1473 002a 0AE0     		b	.L75
 1474              	.L74:
 1475              		.loc 1 372 0 discriminator 2
 1476 002c 7B69     		ldr	r3, [r7, #20]
 1477 002e FA69     		ldr	r2, [r7, #28]
 1478 0030 1344     		add	r3, r3, r2
 1479 0032 FB61     		str	r3, [r7, #28]
 373:C:/Users/dtjld/workspace/AIoT/src/LiteOS_Lab/iot_link/network/dtls/mbedtls/mbedtls-2.16.2/library\x509_create.c ****         cur_ext = cur_ext->next;
 1480              		.loc 1 373 0 is_stmt 1 discriminator 2
 1481 0034 BB69     		ldr	r3, [r7, #24]
 1482 0036 9B69     		ldr	r3, [r3, #24]
 1483 0038 BB61     		str	r3, [r7, #24]
 1484              	.L73:
 370:C:/Users/dtjld/workspace/AIoT/src/LiteOS_Lab/iot_link/network/dtls/mbedtls/mbedtls-2.16.2/library\x509_create.c ****     {
 1485              		.loc 1 370 0
 1486 003a BB69     		ldr	r3, [r7, #24]
 1487 003c 002B     		cmp	r3, #0
 1488 003e EAD1     		bne	.L76
 374:C:/Users/dtjld/workspace/AIoT/src/LiteOS_Lab/iot_link/network/dtls/mbedtls/mbedtls-2.16.2/library\x509_create.c ****     }
 375:C:/Users/dtjld/workspace/AIoT/src/LiteOS_Lab/iot_link/network/dtls/mbedtls/mbedtls-2.16.2/library\x509_create.c **** 
 376:C:/Users/dtjld/workspace/AIoT/src/LiteOS_Lab/iot_link/network/dtls/mbedtls/mbedtls-2.16.2/library\x509_create.c ****     return( (int) len );
 1489              		.loc 1 376 0
 1490 0040 FB69     		ldr	r3, [r7, #28]
 1491              	.L75:
 377:C:/Users/dtjld/workspace/AIoT/src/LiteOS_Lab/iot_link/network/dtls/mbedtls/mbedtls-2.16.2/library\x509_create.c **** }
 1492              		.loc 1 377 0
 1493 0042 1846     		mov	r0, r3
 1494 0044 2037     		adds	r7, r7, #32
 1495              	.LCFI38:
 1496              		.cfi_def_cfa_offset 8
 1497 0046 BD46     		mov	sp, r7
 1498              	.LCFI39:
 1499              		.cfi_def_cfa_register 13
 1500              		@ sp needed
 1501 0048 80BD     		pop	{r7, pc}
 1502              		.cfi_endproc
 1503              	.LFE17:
 1505              		.text
 1506              	.Letext0:
 1507              		.file 2 "C:/Users/dtjld/workspace/AIoT/src/LiteOS_Lab/iot_link/network/dtls/mbedtls/mbedtls-2.16.2
 1508              		.file 3 "c:\\ac6\\systemworkbench\\plugins\\fr.ac6.mcu.externaltools.arm-none.win32_1.16.0.2018071
 1509              		.file 4 "c:\\ac6\\systemworkbench\\plugins\\fr.ac6.mcu.externaltools.arm-none.win32_1.16.0.2018071
 1510              		.file 5 "c:\\ac6\\systemworkbench\\plugins\\fr.ac6.mcu.externaltools.arm-none.win32_1.16.0.2018071
 1511              		.file 6 "c:\\ac6\\systemworkbench\\plugins\\fr.ac6.mcu.externaltools.arm-none.win32_1.16.0.2018071
ARM GAS  C:\Users\dtjld\AppData\Local\Temp\ccCU8bQc.s 			page 35

