ARM GAS  C:\Users\dtjld\AppData\Local\Temp\ccTXdst3.s 			page 1


   1              		.cpu cortex-m4
   2              		.eabi_attribute 27, 1
   3              		.eabi_attribute 28, 1
   4              		.eabi_attribute 20, 1
   5              		.eabi_attribute 21, 1
   6              		.eabi_attribute 23, 3
   7              		.eabi_attribute 24, 1
   8              		.eabi_attribute 25, 1
   9              		.eabi_attribute 26, 1
  10              		.eabi_attribute 30, 6
  11              		.eabi_attribute 34, 1
  12              		.eabi_attribute 18, 4
  13              		.file	"x509_crt.c"
  14              		.text
  15              	.Ltext0:
  16              		.cfi_sections	.debug_frame
  17              		.section	.text.mbedtls_pk_ec,"ax",%progbits
  18              		.align	1
  19              		.syntax unified
  20              		.thumb
  21              		.thumb_func
  22              		.fpu fpv4-sp-d16
  24              	mbedtls_pk_ec:
  25              	.LFB1:
  26              		.file 1 "C:/Users/dtjld/workspace/AIoT/src/LiteOS_Lab/iot_link/network/dtls/mbedtls/mbedtls-2.16.2
   1:C:/Users/dtjld/workspace/AIoT/src/LiteOS_Lab/iot_link/network/dtls/mbedtls/mbedtls-2.16.2/include/mbedtls\pk.h **** /**
   2:C:/Users/dtjld/workspace/AIoT/src/LiteOS_Lab/iot_link/network/dtls/mbedtls/mbedtls-2.16.2/include/mbedtls\pk.h ****  * \file pk.h
   3:C:/Users/dtjld/workspace/AIoT/src/LiteOS_Lab/iot_link/network/dtls/mbedtls/mbedtls-2.16.2/include/mbedtls\pk.h ****  *
   4:C:/Users/dtjld/workspace/AIoT/src/LiteOS_Lab/iot_link/network/dtls/mbedtls/mbedtls-2.16.2/include/mbedtls\pk.h ****  * \brief Public Key abstraction layer
   5:C:/Users/dtjld/workspace/AIoT/src/LiteOS_Lab/iot_link/network/dtls/mbedtls/mbedtls-2.16.2/include/mbedtls\pk.h ****  */
   6:C:/Users/dtjld/workspace/AIoT/src/LiteOS_Lab/iot_link/network/dtls/mbedtls/mbedtls-2.16.2/include/mbedtls\pk.h **** /*
   7:C:/Users/dtjld/workspace/AIoT/src/LiteOS_Lab/iot_link/network/dtls/mbedtls/mbedtls-2.16.2/include/mbedtls\pk.h ****  *  Copyright (C) 2006-2015, ARM Limited, All Rights Reserved
   8:C:/Users/dtjld/workspace/AIoT/src/LiteOS_Lab/iot_link/network/dtls/mbedtls/mbedtls-2.16.2/include/mbedtls\pk.h ****  *  SPDX-License-Identifier: Apache-2.0
   9:C:/Users/dtjld/workspace/AIoT/src/LiteOS_Lab/iot_link/network/dtls/mbedtls/mbedtls-2.16.2/include/mbedtls\pk.h ****  *
  10:C:/Users/dtjld/workspace/AIoT/src/LiteOS_Lab/iot_link/network/dtls/mbedtls/mbedtls-2.16.2/include/mbedtls\pk.h ****  *  Licensed under the Apache License, Version 2.0 (the "License"); you may
  11:C:/Users/dtjld/workspace/AIoT/src/LiteOS_Lab/iot_link/network/dtls/mbedtls/mbedtls-2.16.2/include/mbedtls\pk.h ****  *  not use this file except in compliance with the License.
  12:C:/Users/dtjld/workspace/AIoT/src/LiteOS_Lab/iot_link/network/dtls/mbedtls/mbedtls-2.16.2/include/mbedtls\pk.h ****  *  You may obtain a copy of the License at
  13:C:/Users/dtjld/workspace/AIoT/src/LiteOS_Lab/iot_link/network/dtls/mbedtls/mbedtls-2.16.2/include/mbedtls\pk.h ****  *
  14:C:/Users/dtjld/workspace/AIoT/src/LiteOS_Lab/iot_link/network/dtls/mbedtls/mbedtls-2.16.2/include/mbedtls\pk.h ****  *  http://www.apache.org/licenses/LICENSE-2.0
  15:C:/Users/dtjld/workspace/AIoT/src/LiteOS_Lab/iot_link/network/dtls/mbedtls/mbedtls-2.16.2/include/mbedtls\pk.h ****  *
  16:C:/Users/dtjld/workspace/AIoT/src/LiteOS_Lab/iot_link/network/dtls/mbedtls/mbedtls-2.16.2/include/mbedtls\pk.h ****  *  Unless required by applicable law or agreed to in writing, software
  17:C:/Users/dtjld/workspace/AIoT/src/LiteOS_Lab/iot_link/network/dtls/mbedtls/mbedtls-2.16.2/include/mbedtls\pk.h ****  *  distributed under the License is distributed on an "AS IS" BASIS, WITHOUT
  18:C:/Users/dtjld/workspace/AIoT/src/LiteOS_Lab/iot_link/network/dtls/mbedtls/mbedtls-2.16.2/include/mbedtls\pk.h ****  *  WARRANTIES OR CONDITIONS OF ANY KIND, either express or implied.
  19:C:/Users/dtjld/workspace/AIoT/src/LiteOS_Lab/iot_link/network/dtls/mbedtls/mbedtls-2.16.2/include/mbedtls\pk.h ****  *  See the License for the specific language governing permissions and
  20:C:/Users/dtjld/workspace/AIoT/src/LiteOS_Lab/iot_link/network/dtls/mbedtls/mbedtls-2.16.2/include/mbedtls\pk.h ****  *  limitations under the License.
  21:C:/Users/dtjld/workspace/AIoT/src/LiteOS_Lab/iot_link/network/dtls/mbedtls/mbedtls-2.16.2/include/mbedtls\pk.h ****  *
  22:C:/Users/dtjld/workspace/AIoT/src/LiteOS_Lab/iot_link/network/dtls/mbedtls/mbedtls-2.16.2/include/mbedtls\pk.h ****  *  This file is part of mbed TLS (https://tls.mbed.org)
  23:C:/Users/dtjld/workspace/AIoT/src/LiteOS_Lab/iot_link/network/dtls/mbedtls/mbedtls-2.16.2/include/mbedtls\pk.h ****  */
  24:C:/Users/dtjld/workspace/AIoT/src/LiteOS_Lab/iot_link/network/dtls/mbedtls/mbedtls-2.16.2/include/mbedtls\pk.h **** 
  25:C:/Users/dtjld/workspace/AIoT/src/LiteOS_Lab/iot_link/network/dtls/mbedtls/mbedtls-2.16.2/include/mbedtls\pk.h **** #ifndef MBEDTLS_PK_H
  26:C:/Users/dtjld/workspace/AIoT/src/LiteOS_Lab/iot_link/network/dtls/mbedtls/mbedtls-2.16.2/include/mbedtls\pk.h **** #define MBEDTLS_PK_H
  27:C:/Users/dtjld/workspace/AIoT/src/LiteOS_Lab/iot_link/network/dtls/mbedtls/mbedtls-2.16.2/include/mbedtls\pk.h **** 
  28:C:/Users/dtjld/workspace/AIoT/src/LiteOS_Lab/iot_link/network/dtls/mbedtls/mbedtls-2.16.2/include/mbedtls\pk.h **** #if !defined(MBEDTLS_CONFIG_FILE)
  29:C:/Users/dtjld/workspace/AIoT/src/LiteOS_Lab/iot_link/network/dtls/mbedtls/mbedtls-2.16.2/include/mbedtls\pk.h **** #include "config.h"
  30:C:/Users/dtjld/workspace/AIoT/src/LiteOS_Lab/iot_link/network/dtls/mbedtls/mbedtls-2.16.2/include/mbedtls\pk.h **** #else
  31:C:/Users/dtjld/workspace/AIoT/src/LiteOS_Lab/iot_link/network/dtls/mbedtls/mbedtls-2.16.2/include/mbedtls\pk.h **** #include MBEDTLS_CONFIG_FILE
  32:C:/Users/dtjld/workspace/AIoT/src/LiteOS_Lab/iot_link/network/dtls/mbedtls/mbedtls-2.16.2/include/mbedtls\pk.h **** #endif
ARM GAS  C:\Users\dtjld\AppData\Local\Temp\ccTXdst3.s 			page 2


  33:C:/Users/dtjld/workspace/AIoT/src/LiteOS_Lab/iot_link/network/dtls/mbedtls/mbedtls-2.16.2/include/mbedtls\pk.h **** 
  34:C:/Users/dtjld/workspace/AIoT/src/LiteOS_Lab/iot_link/network/dtls/mbedtls/mbedtls-2.16.2/include/mbedtls\pk.h **** #include "md.h"
  35:C:/Users/dtjld/workspace/AIoT/src/LiteOS_Lab/iot_link/network/dtls/mbedtls/mbedtls-2.16.2/include/mbedtls\pk.h **** 
  36:C:/Users/dtjld/workspace/AIoT/src/LiteOS_Lab/iot_link/network/dtls/mbedtls/mbedtls-2.16.2/include/mbedtls\pk.h **** #if defined(MBEDTLS_RSA_C)
  37:C:/Users/dtjld/workspace/AIoT/src/LiteOS_Lab/iot_link/network/dtls/mbedtls/mbedtls-2.16.2/include/mbedtls\pk.h **** #include "rsa.h"
  38:C:/Users/dtjld/workspace/AIoT/src/LiteOS_Lab/iot_link/network/dtls/mbedtls/mbedtls-2.16.2/include/mbedtls\pk.h **** #endif
  39:C:/Users/dtjld/workspace/AIoT/src/LiteOS_Lab/iot_link/network/dtls/mbedtls/mbedtls-2.16.2/include/mbedtls\pk.h **** 
  40:C:/Users/dtjld/workspace/AIoT/src/LiteOS_Lab/iot_link/network/dtls/mbedtls/mbedtls-2.16.2/include/mbedtls\pk.h **** #if defined(MBEDTLS_ECP_C)
  41:C:/Users/dtjld/workspace/AIoT/src/LiteOS_Lab/iot_link/network/dtls/mbedtls/mbedtls-2.16.2/include/mbedtls\pk.h **** #include "ecp.h"
  42:C:/Users/dtjld/workspace/AIoT/src/LiteOS_Lab/iot_link/network/dtls/mbedtls/mbedtls-2.16.2/include/mbedtls\pk.h **** #endif
  43:C:/Users/dtjld/workspace/AIoT/src/LiteOS_Lab/iot_link/network/dtls/mbedtls/mbedtls-2.16.2/include/mbedtls\pk.h **** 
  44:C:/Users/dtjld/workspace/AIoT/src/LiteOS_Lab/iot_link/network/dtls/mbedtls/mbedtls-2.16.2/include/mbedtls\pk.h **** #if defined(MBEDTLS_ECDSA_C)
  45:C:/Users/dtjld/workspace/AIoT/src/LiteOS_Lab/iot_link/network/dtls/mbedtls/mbedtls-2.16.2/include/mbedtls\pk.h **** #include "ecdsa.h"
  46:C:/Users/dtjld/workspace/AIoT/src/LiteOS_Lab/iot_link/network/dtls/mbedtls/mbedtls-2.16.2/include/mbedtls\pk.h **** #endif
  47:C:/Users/dtjld/workspace/AIoT/src/LiteOS_Lab/iot_link/network/dtls/mbedtls/mbedtls-2.16.2/include/mbedtls\pk.h **** 
  48:C:/Users/dtjld/workspace/AIoT/src/LiteOS_Lab/iot_link/network/dtls/mbedtls/mbedtls-2.16.2/include/mbedtls\pk.h **** #if ( defined(__ARMCC_VERSION) || defined(_MSC_VER) ) && \
  49:C:/Users/dtjld/workspace/AIoT/src/LiteOS_Lab/iot_link/network/dtls/mbedtls/mbedtls-2.16.2/include/mbedtls\pk.h ****     !defined(inline) && !defined(__cplusplus)
  50:C:/Users/dtjld/workspace/AIoT/src/LiteOS_Lab/iot_link/network/dtls/mbedtls/mbedtls-2.16.2/include/mbedtls\pk.h **** #define inline __inline
  51:C:/Users/dtjld/workspace/AIoT/src/LiteOS_Lab/iot_link/network/dtls/mbedtls/mbedtls-2.16.2/include/mbedtls\pk.h **** #endif
  52:C:/Users/dtjld/workspace/AIoT/src/LiteOS_Lab/iot_link/network/dtls/mbedtls/mbedtls-2.16.2/include/mbedtls\pk.h **** 
  53:C:/Users/dtjld/workspace/AIoT/src/LiteOS_Lab/iot_link/network/dtls/mbedtls/mbedtls-2.16.2/include/mbedtls\pk.h **** #define MBEDTLS_ERR_PK_ALLOC_FAILED        -0x3F80  /**< Memory allocation failed. */
  54:C:/Users/dtjld/workspace/AIoT/src/LiteOS_Lab/iot_link/network/dtls/mbedtls/mbedtls-2.16.2/include/mbedtls\pk.h **** #define MBEDTLS_ERR_PK_TYPE_MISMATCH       -0x3F00  /**< Type mismatch, eg attempt to encrypt with 
  55:C:/Users/dtjld/workspace/AIoT/src/LiteOS_Lab/iot_link/network/dtls/mbedtls/mbedtls-2.16.2/include/mbedtls\pk.h **** #define MBEDTLS_ERR_PK_BAD_INPUT_DATA      -0x3E80  /**< Bad input parameters to function. */
  56:C:/Users/dtjld/workspace/AIoT/src/LiteOS_Lab/iot_link/network/dtls/mbedtls/mbedtls-2.16.2/include/mbedtls\pk.h **** #define MBEDTLS_ERR_PK_FILE_IO_ERROR       -0x3E00  /**< Read/write of file failed. */
  57:C:/Users/dtjld/workspace/AIoT/src/LiteOS_Lab/iot_link/network/dtls/mbedtls/mbedtls-2.16.2/include/mbedtls\pk.h **** #define MBEDTLS_ERR_PK_KEY_INVALID_VERSION -0x3D80  /**< Unsupported key version */
  58:C:/Users/dtjld/workspace/AIoT/src/LiteOS_Lab/iot_link/network/dtls/mbedtls/mbedtls-2.16.2/include/mbedtls\pk.h **** #define MBEDTLS_ERR_PK_KEY_INVALID_FORMAT  -0x3D00  /**< Invalid key tag or value. */
  59:C:/Users/dtjld/workspace/AIoT/src/LiteOS_Lab/iot_link/network/dtls/mbedtls/mbedtls-2.16.2/include/mbedtls\pk.h **** #define MBEDTLS_ERR_PK_UNKNOWN_PK_ALG      -0x3C80  /**< Key algorithm is unsupported (only RSA and
  60:C:/Users/dtjld/workspace/AIoT/src/LiteOS_Lab/iot_link/network/dtls/mbedtls/mbedtls-2.16.2/include/mbedtls\pk.h **** #define MBEDTLS_ERR_PK_PASSWORD_REQUIRED   -0x3C00  /**< Private key password can't be empty. */
  61:C:/Users/dtjld/workspace/AIoT/src/LiteOS_Lab/iot_link/network/dtls/mbedtls/mbedtls-2.16.2/include/mbedtls\pk.h **** #define MBEDTLS_ERR_PK_PASSWORD_MISMATCH   -0x3B80  /**< Given private key password does not allow 
  62:C:/Users/dtjld/workspace/AIoT/src/LiteOS_Lab/iot_link/network/dtls/mbedtls/mbedtls-2.16.2/include/mbedtls\pk.h **** #define MBEDTLS_ERR_PK_INVALID_PUBKEY      -0x3B00  /**< The pubkey tag or value is invalid (only R
  63:C:/Users/dtjld/workspace/AIoT/src/LiteOS_Lab/iot_link/network/dtls/mbedtls/mbedtls-2.16.2/include/mbedtls\pk.h **** #define MBEDTLS_ERR_PK_INVALID_ALG         -0x3A80  /**< The algorithm tag or value is invalid. */
  64:C:/Users/dtjld/workspace/AIoT/src/LiteOS_Lab/iot_link/network/dtls/mbedtls/mbedtls-2.16.2/include/mbedtls\pk.h **** #define MBEDTLS_ERR_PK_UNKNOWN_NAMED_CURVE -0x3A00  /**< Elliptic curve is unsupported (only NIST c
  65:C:/Users/dtjld/workspace/AIoT/src/LiteOS_Lab/iot_link/network/dtls/mbedtls/mbedtls-2.16.2/include/mbedtls\pk.h **** #define MBEDTLS_ERR_PK_FEATURE_UNAVAILABLE -0x3980  /**< Unavailable feature, e.g. RSA disabled for
  66:C:/Users/dtjld/workspace/AIoT/src/LiteOS_Lab/iot_link/network/dtls/mbedtls/mbedtls-2.16.2/include/mbedtls\pk.h **** #define MBEDTLS_ERR_PK_SIG_LEN_MISMATCH    -0x3900  /**< The buffer contains a valid signature foll
  67:C:/Users/dtjld/workspace/AIoT/src/LiteOS_Lab/iot_link/network/dtls/mbedtls/mbedtls-2.16.2/include/mbedtls\pk.h **** 
  68:C:/Users/dtjld/workspace/AIoT/src/LiteOS_Lab/iot_link/network/dtls/mbedtls/mbedtls-2.16.2/include/mbedtls\pk.h **** /* MBEDTLS_ERR_PK_HW_ACCEL_FAILED is deprecated and should not be used. */
  69:C:/Users/dtjld/workspace/AIoT/src/LiteOS_Lab/iot_link/network/dtls/mbedtls/mbedtls-2.16.2/include/mbedtls\pk.h **** #define MBEDTLS_ERR_PK_HW_ACCEL_FAILED     -0x3880  /**< PK hardware accelerator failed. */
  70:C:/Users/dtjld/workspace/AIoT/src/LiteOS_Lab/iot_link/network/dtls/mbedtls/mbedtls-2.16.2/include/mbedtls\pk.h **** 
  71:C:/Users/dtjld/workspace/AIoT/src/LiteOS_Lab/iot_link/network/dtls/mbedtls/mbedtls-2.16.2/include/mbedtls\pk.h **** #ifdef __cplusplus
  72:C:/Users/dtjld/workspace/AIoT/src/LiteOS_Lab/iot_link/network/dtls/mbedtls/mbedtls-2.16.2/include/mbedtls\pk.h **** extern "C" {
  73:C:/Users/dtjld/workspace/AIoT/src/LiteOS_Lab/iot_link/network/dtls/mbedtls/mbedtls-2.16.2/include/mbedtls\pk.h **** #endif
  74:C:/Users/dtjld/workspace/AIoT/src/LiteOS_Lab/iot_link/network/dtls/mbedtls/mbedtls-2.16.2/include/mbedtls\pk.h **** 
  75:C:/Users/dtjld/workspace/AIoT/src/LiteOS_Lab/iot_link/network/dtls/mbedtls/mbedtls-2.16.2/include/mbedtls\pk.h **** /**
  76:C:/Users/dtjld/workspace/AIoT/src/LiteOS_Lab/iot_link/network/dtls/mbedtls/mbedtls-2.16.2/include/mbedtls\pk.h ****  * \brief          Public key types
  77:C:/Users/dtjld/workspace/AIoT/src/LiteOS_Lab/iot_link/network/dtls/mbedtls/mbedtls-2.16.2/include/mbedtls\pk.h ****  */
  78:C:/Users/dtjld/workspace/AIoT/src/LiteOS_Lab/iot_link/network/dtls/mbedtls/mbedtls-2.16.2/include/mbedtls\pk.h **** typedef enum {
  79:C:/Users/dtjld/workspace/AIoT/src/LiteOS_Lab/iot_link/network/dtls/mbedtls/mbedtls-2.16.2/include/mbedtls\pk.h ****     MBEDTLS_PK_NONE=0,
  80:C:/Users/dtjld/workspace/AIoT/src/LiteOS_Lab/iot_link/network/dtls/mbedtls/mbedtls-2.16.2/include/mbedtls\pk.h ****     MBEDTLS_PK_RSA,
  81:C:/Users/dtjld/workspace/AIoT/src/LiteOS_Lab/iot_link/network/dtls/mbedtls/mbedtls-2.16.2/include/mbedtls\pk.h ****     MBEDTLS_PK_ECKEY,
  82:C:/Users/dtjld/workspace/AIoT/src/LiteOS_Lab/iot_link/network/dtls/mbedtls/mbedtls-2.16.2/include/mbedtls\pk.h ****     MBEDTLS_PK_ECKEY_DH,
  83:C:/Users/dtjld/workspace/AIoT/src/LiteOS_Lab/iot_link/network/dtls/mbedtls/mbedtls-2.16.2/include/mbedtls\pk.h ****     MBEDTLS_PK_ECDSA,
  84:C:/Users/dtjld/workspace/AIoT/src/LiteOS_Lab/iot_link/network/dtls/mbedtls/mbedtls-2.16.2/include/mbedtls\pk.h ****     MBEDTLS_PK_RSA_ALT,
  85:C:/Users/dtjld/workspace/AIoT/src/LiteOS_Lab/iot_link/network/dtls/mbedtls/mbedtls-2.16.2/include/mbedtls\pk.h ****     MBEDTLS_PK_RSASSA_PSS,
  86:C:/Users/dtjld/workspace/AIoT/src/LiteOS_Lab/iot_link/network/dtls/mbedtls/mbedtls-2.16.2/include/mbedtls\pk.h **** } mbedtls_pk_type_t;
  87:C:/Users/dtjld/workspace/AIoT/src/LiteOS_Lab/iot_link/network/dtls/mbedtls/mbedtls-2.16.2/include/mbedtls\pk.h **** 
  88:C:/Users/dtjld/workspace/AIoT/src/LiteOS_Lab/iot_link/network/dtls/mbedtls/mbedtls-2.16.2/include/mbedtls\pk.h **** /**
  89:C:/Users/dtjld/workspace/AIoT/src/LiteOS_Lab/iot_link/network/dtls/mbedtls/mbedtls-2.16.2/include/mbedtls\pk.h ****  * \brief           Options for RSASSA-PSS signature verification.
ARM GAS  C:\Users\dtjld\AppData\Local\Temp\ccTXdst3.s 			page 3


  90:C:/Users/dtjld/workspace/AIoT/src/LiteOS_Lab/iot_link/network/dtls/mbedtls/mbedtls-2.16.2/include/mbedtls\pk.h ****  *                  See \c mbedtls_rsa_rsassa_pss_verify_ext()
  91:C:/Users/dtjld/workspace/AIoT/src/LiteOS_Lab/iot_link/network/dtls/mbedtls/mbedtls-2.16.2/include/mbedtls\pk.h ****  */
  92:C:/Users/dtjld/workspace/AIoT/src/LiteOS_Lab/iot_link/network/dtls/mbedtls/mbedtls-2.16.2/include/mbedtls\pk.h **** typedef struct mbedtls_pk_rsassa_pss_options
  93:C:/Users/dtjld/workspace/AIoT/src/LiteOS_Lab/iot_link/network/dtls/mbedtls/mbedtls-2.16.2/include/mbedtls\pk.h **** {
  94:C:/Users/dtjld/workspace/AIoT/src/LiteOS_Lab/iot_link/network/dtls/mbedtls/mbedtls-2.16.2/include/mbedtls\pk.h ****     mbedtls_md_type_t mgf1_hash_id;
  95:C:/Users/dtjld/workspace/AIoT/src/LiteOS_Lab/iot_link/network/dtls/mbedtls/mbedtls-2.16.2/include/mbedtls\pk.h ****     int expected_salt_len;
  96:C:/Users/dtjld/workspace/AIoT/src/LiteOS_Lab/iot_link/network/dtls/mbedtls/mbedtls-2.16.2/include/mbedtls\pk.h **** 
  97:C:/Users/dtjld/workspace/AIoT/src/LiteOS_Lab/iot_link/network/dtls/mbedtls/mbedtls-2.16.2/include/mbedtls\pk.h **** } mbedtls_pk_rsassa_pss_options;
  98:C:/Users/dtjld/workspace/AIoT/src/LiteOS_Lab/iot_link/network/dtls/mbedtls/mbedtls-2.16.2/include/mbedtls\pk.h **** 
  99:C:/Users/dtjld/workspace/AIoT/src/LiteOS_Lab/iot_link/network/dtls/mbedtls/mbedtls-2.16.2/include/mbedtls\pk.h **** /**
 100:C:/Users/dtjld/workspace/AIoT/src/LiteOS_Lab/iot_link/network/dtls/mbedtls/mbedtls-2.16.2/include/mbedtls\pk.h ****  * \brief           Types for interfacing with the debug module
 101:C:/Users/dtjld/workspace/AIoT/src/LiteOS_Lab/iot_link/network/dtls/mbedtls/mbedtls-2.16.2/include/mbedtls\pk.h ****  */
 102:C:/Users/dtjld/workspace/AIoT/src/LiteOS_Lab/iot_link/network/dtls/mbedtls/mbedtls-2.16.2/include/mbedtls\pk.h **** typedef enum
 103:C:/Users/dtjld/workspace/AIoT/src/LiteOS_Lab/iot_link/network/dtls/mbedtls/mbedtls-2.16.2/include/mbedtls\pk.h **** {
 104:C:/Users/dtjld/workspace/AIoT/src/LiteOS_Lab/iot_link/network/dtls/mbedtls/mbedtls-2.16.2/include/mbedtls\pk.h ****     MBEDTLS_PK_DEBUG_NONE = 0,
 105:C:/Users/dtjld/workspace/AIoT/src/LiteOS_Lab/iot_link/network/dtls/mbedtls/mbedtls-2.16.2/include/mbedtls\pk.h ****     MBEDTLS_PK_DEBUG_MPI,
 106:C:/Users/dtjld/workspace/AIoT/src/LiteOS_Lab/iot_link/network/dtls/mbedtls/mbedtls-2.16.2/include/mbedtls\pk.h ****     MBEDTLS_PK_DEBUG_ECP,
 107:C:/Users/dtjld/workspace/AIoT/src/LiteOS_Lab/iot_link/network/dtls/mbedtls/mbedtls-2.16.2/include/mbedtls\pk.h **** } mbedtls_pk_debug_type;
 108:C:/Users/dtjld/workspace/AIoT/src/LiteOS_Lab/iot_link/network/dtls/mbedtls/mbedtls-2.16.2/include/mbedtls\pk.h **** 
 109:C:/Users/dtjld/workspace/AIoT/src/LiteOS_Lab/iot_link/network/dtls/mbedtls/mbedtls-2.16.2/include/mbedtls\pk.h **** /**
 110:C:/Users/dtjld/workspace/AIoT/src/LiteOS_Lab/iot_link/network/dtls/mbedtls/mbedtls-2.16.2/include/mbedtls\pk.h ****  * \brief           Item to send to the debug module
 111:C:/Users/dtjld/workspace/AIoT/src/LiteOS_Lab/iot_link/network/dtls/mbedtls/mbedtls-2.16.2/include/mbedtls\pk.h ****  */
 112:C:/Users/dtjld/workspace/AIoT/src/LiteOS_Lab/iot_link/network/dtls/mbedtls/mbedtls-2.16.2/include/mbedtls\pk.h **** typedef struct mbedtls_pk_debug_item
 113:C:/Users/dtjld/workspace/AIoT/src/LiteOS_Lab/iot_link/network/dtls/mbedtls/mbedtls-2.16.2/include/mbedtls\pk.h **** {
 114:C:/Users/dtjld/workspace/AIoT/src/LiteOS_Lab/iot_link/network/dtls/mbedtls/mbedtls-2.16.2/include/mbedtls\pk.h ****     mbedtls_pk_debug_type type;
 115:C:/Users/dtjld/workspace/AIoT/src/LiteOS_Lab/iot_link/network/dtls/mbedtls/mbedtls-2.16.2/include/mbedtls\pk.h ****     const char *name;
 116:C:/Users/dtjld/workspace/AIoT/src/LiteOS_Lab/iot_link/network/dtls/mbedtls/mbedtls-2.16.2/include/mbedtls\pk.h ****     void *value;
 117:C:/Users/dtjld/workspace/AIoT/src/LiteOS_Lab/iot_link/network/dtls/mbedtls/mbedtls-2.16.2/include/mbedtls\pk.h **** } mbedtls_pk_debug_item;
 118:C:/Users/dtjld/workspace/AIoT/src/LiteOS_Lab/iot_link/network/dtls/mbedtls/mbedtls-2.16.2/include/mbedtls\pk.h **** 
 119:C:/Users/dtjld/workspace/AIoT/src/LiteOS_Lab/iot_link/network/dtls/mbedtls/mbedtls-2.16.2/include/mbedtls\pk.h **** /** Maximum number of item send for debugging, plus 1 */
 120:C:/Users/dtjld/workspace/AIoT/src/LiteOS_Lab/iot_link/network/dtls/mbedtls/mbedtls-2.16.2/include/mbedtls\pk.h **** #define MBEDTLS_PK_DEBUG_MAX_ITEMS 3
 121:C:/Users/dtjld/workspace/AIoT/src/LiteOS_Lab/iot_link/network/dtls/mbedtls/mbedtls-2.16.2/include/mbedtls\pk.h **** 
 122:C:/Users/dtjld/workspace/AIoT/src/LiteOS_Lab/iot_link/network/dtls/mbedtls/mbedtls-2.16.2/include/mbedtls\pk.h **** /**
 123:C:/Users/dtjld/workspace/AIoT/src/LiteOS_Lab/iot_link/network/dtls/mbedtls/mbedtls-2.16.2/include/mbedtls\pk.h ****  * \brief           Public key information and operations
 124:C:/Users/dtjld/workspace/AIoT/src/LiteOS_Lab/iot_link/network/dtls/mbedtls/mbedtls-2.16.2/include/mbedtls\pk.h ****  */
 125:C:/Users/dtjld/workspace/AIoT/src/LiteOS_Lab/iot_link/network/dtls/mbedtls/mbedtls-2.16.2/include/mbedtls\pk.h **** typedef struct mbedtls_pk_info_t mbedtls_pk_info_t;
 126:C:/Users/dtjld/workspace/AIoT/src/LiteOS_Lab/iot_link/network/dtls/mbedtls/mbedtls-2.16.2/include/mbedtls\pk.h **** 
 127:C:/Users/dtjld/workspace/AIoT/src/LiteOS_Lab/iot_link/network/dtls/mbedtls/mbedtls-2.16.2/include/mbedtls\pk.h **** /**
 128:C:/Users/dtjld/workspace/AIoT/src/LiteOS_Lab/iot_link/network/dtls/mbedtls/mbedtls-2.16.2/include/mbedtls\pk.h ****  * \brief           Public key container
 129:C:/Users/dtjld/workspace/AIoT/src/LiteOS_Lab/iot_link/network/dtls/mbedtls/mbedtls-2.16.2/include/mbedtls\pk.h ****  */
 130:C:/Users/dtjld/workspace/AIoT/src/LiteOS_Lab/iot_link/network/dtls/mbedtls/mbedtls-2.16.2/include/mbedtls\pk.h **** typedef struct mbedtls_pk_context
 131:C:/Users/dtjld/workspace/AIoT/src/LiteOS_Lab/iot_link/network/dtls/mbedtls/mbedtls-2.16.2/include/mbedtls\pk.h **** {
 132:C:/Users/dtjld/workspace/AIoT/src/LiteOS_Lab/iot_link/network/dtls/mbedtls/mbedtls-2.16.2/include/mbedtls\pk.h ****     const mbedtls_pk_info_t *   pk_info; /**< Public key information         */
 133:C:/Users/dtjld/workspace/AIoT/src/LiteOS_Lab/iot_link/network/dtls/mbedtls/mbedtls-2.16.2/include/mbedtls\pk.h ****     void *                      pk_ctx;  /**< Underlying public key context  */
 134:C:/Users/dtjld/workspace/AIoT/src/LiteOS_Lab/iot_link/network/dtls/mbedtls/mbedtls-2.16.2/include/mbedtls\pk.h **** } mbedtls_pk_context;
 135:C:/Users/dtjld/workspace/AIoT/src/LiteOS_Lab/iot_link/network/dtls/mbedtls/mbedtls-2.16.2/include/mbedtls\pk.h **** 
 136:C:/Users/dtjld/workspace/AIoT/src/LiteOS_Lab/iot_link/network/dtls/mbedtls/mbedtls-2.16.2/include/mbedtls\pk.h **** #if defined(MBEDTLS_ECDSA_C) && defined(MBEDTLS_ECP_RESTARTABLE)
 137:C:/Users/dtjld/workspace/AIoT/src/LiteOS_Lab/iot_link/network/dtls/mbedtls/mbedtls-2.16.2/include/mbedtls\pk.h **** /**
 138:C:/Users/dtjld/workspace/AIoT/src/LiteOS_Lab/iot_link/network/dtls/mbedtls/mbedtls-2.16.2/include/mbedtls\pk.h ****  * \brief           Context for resuming operations
 139:C:/Users/dtjld/workspace/AIoT/src/LiteOS_Lab/iot_link/network/dtls/mbedtls/mbedtls-2.16.2/include/mbedtls\pk.h ****  */
 140:C:/Users/dtjld/workspace/AIoT/src/LiteOS_Lab/iot_link/network/dtls/mbedtls/mbedtls-2.16.2/include/mbedtls\pk.h **** typedef struct
 141:C:/Users/dtjld/workspace/AIoT/src/LiteOS_Lab/iot_link/network/dtls/mbedtls/mbedtls-2.16.2/include/mbedtls\pk.h **** {
 142:C:/Users/dtjld/workspace/AIoT/src/LiteOS_Lab/iot_link/network/dtls/mbedtls/mbedtls-2.16.2/include/mbedtls\pk.h ****     const mbedtls_pk_info_t *   pk_info; /**< Public key information         */
 143:C:/Users/dtjld/workspace/AIoT/src/LiteOS_Lab/iot_link/network/dtls/mbedtls/mbedtls-2.16.2/include/mbedtls\pk.h ****     void *                      rs_ctx;  /**< Underlying restart context     */
 144:C:/Users/dtjld/workspace/AIoT/src/LiteOS_Lab/iot_link/network/dtls/mbedtls/mbedtls-2.16.2/include/mbedtls\pk.h **** } mbedtls_pk_restart_ctx;
 145:C:/Users/dtjld/workspace/AIoT/src/LiteOS_Lab/iot_link/network/dtls/mbedtls/mbedtls-2.16.2/include/mbedtls\pk.h **** #else /* MBEDTLS_ECDSA_C && MBEDTLS_ECP_RESTARTABLE */
 146:C:/Users/dtjld/workspace/AIoT/src/LiteOS_Lab/iot_link/network/dtls/mbedtls/mbedtls-2.16.2/include/mbedtls\pk.h **** /* Now we can declare functions that take a pointer to that */
ARM GAS  C:\Users\dtjld\AppData\Local\Temp\ccTXdst3.s 			page 4


 147:C:/Users/dtjld/workspace/AIoT/src/LiteOS_Lab/iot_link/network/dtls/mbedtls/mbedtls-2.16.2/include/mbedtls\pk.h **** typedef void mbedtls_pk_restart_ctx;
 148:C:/Users/dtjld/workspace/AIoT/src/LiteOS_Lab/iot_link/network/dtls/mbedtls/mbedtls-2.16.2/include/mbedtls\pk.h **** #endif /* MBEDTLS_ECDSA_C && MBEDTLS_ECP_RESTARTABLE */
 149:C:/Users/dtjld/workspace/AIoT/src/LiteOS_Lab/iot_link/network/dtls/mbedtls/mbedtls-2.16.2/include/mbedtls\pk.h **** 
 150:C:/Users/dtjld/workspace/AIoT/src/LiteOS_Lab/iot_link/network/dtls/mbedtls/mbedtls-2.16.2/include/mbedtls\pk.h **** #if defined(MBEDTLS_RSA_C)
 151:C:/Users/dtjld/workspace/AIoT/src/LiteOS_Lab/iot_link/network/dtls/mbedtls/mbedtls-2.16.2/include/mbedtls\pk.h **** /**
 152:C:/Users/dtjld/workspace/AIoT/src/LiteOS_Lab/iot_link/network/dtls/mbedtls/mbedtls-2.16.2/include/mbedtls\pk.h ****  * Quick access to an RSA context inside a PK context.
 153:C:/Users/dtjld/workspace/AIoT/src/LiteOS_Lab/iot_link/network/dtls/mbedtls/mbedtls-2.16.2/include/mbedtls\pk.h ****  *
 154:C:/Users/dtjld/workspace/AIoT/src/LiteOS_Lab/iot_link/network/dtls/mbedtls/mbedtls-2.16.2/include/mbedtls\pk.h ****  * \warning You must make sure the PK context actually holds an RSA context
 155:C:/Users/dtjld/workspace/AIoT/src/LiteOS_Lab/iot_link/network/dtls/mbedtls/mbedtls-2.16.2/include/mbedtls\pk.h ****  * before using this function!
 156:C:/Users/dtjld/workspace/AIoT/src/LiteOS_Lab/iot_link/network/dtls/mbedtls/mbedtls-2.16.2/include/mbedtls\pk.h ****  */
 157:C:/Users/dtjld/workspace/AIoT/src/LiteOS_Lab/iot_link/network/dtls/mbedtls/mbedtls-2.16.2/include/mbedtls\pk.h **** static inline mbedtls_rsa_context *mbedtls_pk_rsa( const mbedtls_pk_context pk )
 158:C:/Users/dtjld/workspace/AIoT/src/LiteOS_Lab/iot_link/network/dtls/mbedtls/mbedtls-2.16.2/include/mbedtls\pk.h **** {
 159:C:/Users/dtjld/workspace/AIoT/src/LiteOS_Lab/iot_link/network/dtls/mbedtls/mbedtls-2.16.2/include/mbedtls\pk.h ****     return( (mbedtls_rsa_context *) (pk).pk_ctx );
 160:C:/Users/dtjld/workspace/AIoT/src/LiteOS_Lab/iot_link/network/dtls/mbedtls/mbedtls-2.16.2/include/mbedtls\pk.h **** }
 161:C:/Users/dtjld/workspace/AIoT/src/LiteOS_Lab/iot_link/network/dtls/mbedtls/mbedtls-2.16.2/include/mbedtls\pk.h **** #endif /* MBEDTLS_RSA_C */
 162:C:/Users/dtjld/workspace/AIoT/src/LiteOS_Lab/iot_link/network/dtls/mbedtls/mbedtls-2.16.2/include/mbedtls\pk.h **** 
 163:C:/Users/dtjld/workspace/AIoT/src/LiteOS_Lab/iot_link/network/dtls/mbedtls/mbedtls-2.16.2/include/mbedtls\pk.h **** #if defined(MBEDTLS_ECP_C)
 164:C:/Users/dtjld/workspace/AIoT/src/LiteOS_Lab/iot_link/network/dtls/mbedtls/mbedtls-2.16.2/include/mbedtls\pk.h **** /**
 165:C:/Users/dtjld/workspace/AIoT/src/LiteOS_Lab/iot_link/network/dtls/mbedtls/mbedtls-2.16.2/include/mbedtls\pk.h ****  * Quick access to an EC context inside a PK context.
 166:C:/Users/dtjld/workspace/AIoT/src/LiteOS_Lab/iot_link/network/dtls/mbedtls/mbedtls-2.16.2/include/mbedtls\pk.h ****  *
 167:C:/Users/dtjld/workspace/AIoT/src/LiteOS_Lab/iot_link/network/dtls/mbedtls/mbedtls-2.16.2/include/mbedtls\pk.h ****  * \warning You must make sure the PK context actually holds an EC context
 168:C:/Users/dtjld/workspace/AIoT/src/LiteOS_Lab/iot_link/network/dtls/mbedtls/mbedtls-2.16.2/include/mbedtls\pk.h ****  * before using this function!
 169:C:/Users/dtjld/workspace/AIoT/src/LiteOS_Lab/iot_link/network/dtls/mbedtls/mbedtls-2.16.2/include/mbedtls\pk.h ****  */
 170:C:/Users/dtjld/workspace/AIoT/src/LiteOS_Lab/iot_link/network/dtls/mbedtls/mbedtls-2.16.2/include/mbedtls\pk.h **** static inline mbedtls_ecp_keypair *mbedtls_pk_ec( const mbedtls_pk_context pk )
 171:C:/Users/dtjld/workspace/AIoT/src/LiteOS_Lab/iot_link/network/dtls/mbedtls/mbedtls-2.16.2/include/mbedtls\pk.h **** {
  27              		.loc 1 171 0
  28              		.cfi_startproc
  29              		@ args = 0, pretend = 0, frame = 8
  30              		@ frame_needed = 1, uses_anonymous_args = 0
  31              		@ link register save eliminated.
  32 0000 80B4     		push	{r7}
  33              	.LCFI0:
  34              		.cfi_def_cfa_offset 4
  35              		.cfi_offset 7, -4
  36 0002 83B0     		sub	sp, sp, #12
  37              	.LCFI1:
  38              		.cfi_def_cfa_offset 16
  39 0004 00AF     		add	r7, sp, #0
  40              	.LCFI2:
  41              		.cfi_def_cfa_register 7
  42 0006 3B46     		mov	r3, r7
  43 0008 83E80300 		stm	r3, {r0, r1}
 172:C:/Users/dtjld/workspace/AIoT/src/LiteOS_Lab/iot_link/network/dtls/mbedtls/mbedtls-2.16.2/include/mbedtls\pk.h ****     return( (mbedtls_ecp_keypair *) (pk).pk_ctx );
  44              		.loc 1 172 0
  45 000c 7B68     		ldr	r3, [r7, #4]
 173:C:/Users/dtjld/workspace/AIoT/src/LiteOS_Lab/iot_link/network/dtls/mbedtls/mbedtls-2.16.2/include/mbedtls\pk.h **** }
  46              		.loc 1 173 0
  47 000e 1846     		mov	r0, r3
  48 0010 0C37     		adds	r7, r7, #12
  49              	.LCFI3:
  50              		.cfi_def_cfa_offset 4
  51 0012 BD46     		mov	sp, r7
  52              	.LCFI4:
  53              		.cfi_def_cfa_register 13
  54              		@ sp needed
  55 0014 5DF8047B 		ldr	r7, [sp], #4
  56              	.LCFI5:
ARM GAS  C:\Users\dtjld\AppData\Local\Temp\ccTXdst3.s 			page 5


  57              		.cfi_restore 7
  58              		.cfi_def_cfa_offset 0
  59 0018 7047     		bx	lr
  60              		.cfi_endproc
  61              	.LFE1:
  63              		.global	mbedtls_x509_crt_profile_default
  64              		.section	.rodata.mbedtls_x509_crt_profile_default,"a",%progbits
  65              		.align	2
  68              	mbedtls_x509_crt_profile_default:
  69 0000 F0000000 		.word	240
  70 0004 FFFFFF0F 		.word	268435455
  71 0008 FFFFFF0F 		.word	268435455
  72 000c 00080000 		.word	2048
  73              		.global	mbedtls_x509_crt_profile_next
  74              		.section	.rodata.mbedtls_x509_crt_profile_next,"a",%progbits
  75              		.align	2
  78              	mbedtls_x509_crt_profile_next:
  79 0000 E0000000 		.word	224
  80 0004 FFFFFF0F 		.word	268435455
  81 0008 FC080000 		.word	2300
  82 000c 00080000 		.word	2048
  83              		.global	mbedtls_x509_crt_profile_suiteb
  84              		.section	.rodata.mbedtls_x509_crt_profile_suiteb,"a",%progbits
  85              		.align	2
  88              	mbedtls_x509_crt_profile_suiteb:
  89 0000 60000000 		.word	96
  90 0004 0A000000 		.word	10
  91 0008 0C000000 		.word	12
  92 000c 00000000 		.word	0
  93              		.section	.text.x509_profile_check_md_alg,"ax",%progbits
  94              		.align	1
  95              		.syntax unified
  96              		.thumb
  97              		.thumb_func
  98              		.fpu fpv4-sp-d16
 100              	x509_profile_check_md_alg:
 101              	.LFB13:
 102              		.file 2 "C:/Users/dtjld/workspace/AIoT/src/LiteOS_Lab/iot_link/network/dtls/mbedtls/mbedtls-2.16.2
   1:C:/Users/dtjld/workspace/AIoT/src/LiteOS_Lab/iot_link/network/dtls/mbedtls/mbedtls-2.16.2/library\x509_crt.c **** /*
   2:C:/Users/dtjld/workspace/AIoT/src/LiteOS_Lab/iot_link/network/dtls/mbedtls/mbedtls-2.16.2/library\x509_crt.c ****  *  X.509 certificate parsing and verification
   3:C:/Users/dtjld/workspace/AIoT/src/LiteOS_Lab/iot_link/network/dtls/mbedtls/mbedtls-2.16.2/library\x509_crt.c ****  *
   4:C:/Users/dtjld/workspace/AIoT/src/LiteOS_Lab/iot_link/network/dtls/mbedtls/mbedtls-2.16.2/library\x509_crt.c ****  *  Copyright (C) 2006-2015, ARM Limited, All Rights Reserved
   5:C:/Users/dtjld/workspace/AIoT/src/LiteOS_Lab/iot_link/network/dtls/mbedtls/mbedtls-2.16.2/library\x509_crt.c ****  *  SPDX-License-Identifier: Apache-2.0
   6:C:/Users/dtjld/workspace/AIoT/src/LiteOS_Lab/iot_link/network/dtls/mbedtls/mbedtls-2.16.2/library\x509_crt.c ****  *
   7:C:/Users/dtjld/workspace/AIoT/src/LiteOS_Lab/iot_link/network/dtls/mbedtls/mbedtls-2.16.2/library\x509_crt.c ****  *  Licensed under the Apache License, Version 2.0 (the "License"); you may
   8:C:/Users/dtjld/workspace/AIoT/src/LiteOS_Lab/iot_link/network/dtls/mbedtls/mbedtls-2.16.2/library\x509_crt.c ****  *  not use this file except in compliance with the License.
   9:C:/Users/dtjld/workspace/AIoT/src/LiteOS_Lab/iot_link/network/dtls/mbedtls/mbedtls-2.16.2/library\x509_crt.c ****  *  You may obtain a copy of the License at
  10:C:/Users/dtjld/workspace/AIoT/src/LiteOS_Lab/iot_link/network/dtls/mbedtls/mbedtls-2.16.2/library\x509_crt.c ****  *
  11:C:/Users/dtjld/workspace/AIoT/src/LiteOS_Lab/iot_link/network/dtls/mbedtls/mbedtls-2.16.2/library\x509_crt.c ****  *  http://www.apache.org/licenses/LICENSE-2.0
  12:C:/Users/dtjld/workspace/AIoT/src/LiteOS_Lab/iot_link/network/dtls/mbedtls/mbedtls-2.16.2/library\x509_crt.c ****  *
  13:C:/Users/dtjld/workspace/AIoT/src/LiteOS_Lab/iot_link/network/dtls/mbedtls/mbedtls-2.16.2/library\x509_crt.c ****  *  Unless required by applicable law or agreed to in writing, software
  14:C:/Users/dtjld/workspace/AIoT/src/LiteOS_Lab/iot_link/network/dtls/mbedtls/mbedtls-2.16.2/library\x509_crt.c ****  *  distributed under the License is distributed on an "AS IS" BASIS, WITHOUT
  15:C:/Users/dtjld/workspace/AIoT/src/LiteOS_Lab/iot_link/network/dtls/mbedtls/mbedtls-2.16.2/library\x509_crt.c ****  *  WARRANTIES OR CONDITIONS OF ANY KIND, either express or implied.
  16:C:/Users/dtjld/workspace/AIoT/src/LiteOS_Lab/iot_link/network/dtls/mbedtls/mbedtls-2.16.2/library\x509_crt.c ****  *  See the License for the specific language governing permissions and
  17:C:/Users/dtjld/workspace/AIoT/src/LiteOS_Lab/iot_link/network/dtls/mbedtls/mbedtls-2.16.2/library\x509_crt.c ****  *  limitations under the License.
  18:C:/Users/dtjld/workspace/AIoT/src/LiteOS_Lab/iot_link/network/dtls/mbedtls/mbedtls-2.16.2/library\x509_crt.c ****  *
  19:C:/Users/dtjld/workspace/AIoT/src/LiteOS_Lab/iot_link/network/dtls/mbedtls/mbedtls-2.16.2/library\x509_crt.c ****  *  This file is part of mbed TLS (https://tls.mbed.org)
ARM GAS  C:\Users\dtjld\AppData\Local\Temp\ccTXdst3.s 			page 6


  20:C:/Users/dtjld/workspace/AIoT/src/LiteOS_Lab/iot_link/network/dtls/mbedtls/mbedtls-2.16.2/library\x509_crt.c ****  */
  21:C:/Users/dtjld/workspace/AIoT/src/LiteOS_Lab/iot_link/network/dtls/mbedtls/mbedtls-2.16.2/library\x509_crt.c **** /*
  22:C:/Users/dtjld/workspace/AIoT/src/LiteOS_Lab/iot_link/network/dtls/mbedtls/mbedtls-2.16.2/library\x509_crt.c ****  *  The ITU-T X.509 standard defines a certificate format for PKI.
  23:C:/Users/dtjld/workspace/AIoT/src/LiteOS_Lab/iot_link/network/dtls/mbedtls/mbedtls-2.16.2/library\x509_crt.c ****  *
  24:C:/Users/dtjld/workspace/AIoT/src/LiteOS_Lab/iot_link/network/dtls/mbedtls/mbedtls-2.16.2/library\x509_crt.c ****  *  http://www.ietf.org/rfc/rfc5280.txt (Certificates and CRLs)
  25:C:/Users/dtjld/workspace/AIoT/src/LiteOS_Lab/iot_link/network/dtls/mbedtls/mbedtls-2.16.2/library\x509_crt.c ****  *  http://www.ietf.org/rfc/rfc3279.txt (Alg IDs for CRLs)
  26:C:/Users/dtjld/workspace/AIoT/src/LiteOS_Lab/iot_link/network/dtls/mbedtls/mbedtls-2.16.2/library\x509_crt.c ****  *  http://www.ietf.org/rfc/rfc2986.txt (CSRs, aka PKCS#10)
  27:C:/Users/dtjld/workspace/AIoT/src/LiteOS_Lab/iot_link/network/dtls/mbedtls/mbedtls-2.16.2/library\x509_crt.c ****  *
  28:C:/Users/dtjld/workspace/AIoT/src/LiteOS_Lab/iot_link/network/dtls/mbedtls/mbedtls-2.16.2/library\x509_crt.c ****  *  http://www.itu.int/ITU-T/studygroups/com17/languages/X.680-0207.pdf
  29:C:/Users/dtjld/workspace/AIoT/src/LiteOS_Lab/iot_link/network/dtls/mbedtls/mbedtls-2.16.2/library\x509_crt.c ****  *  http://www.itu.int/ITU-T/studygroups/com17/languages/X.690-0207.pdf
  30:C:/Users/dtjld/workspace/AIoT/src/LiteOS_Lab/iot_link/network/dtls/mbedtls/mbedtls-2.16.2/library\x509_crt.c ****  *
  31:C:/Users/dtjld/workspace/AIoT/src/LiteOS_Lab/iot_link/network/dtls/mbedtls/mbedtls-2.16.2/library\x509_crt.c ****  *  [SIRO] https://cabforum.org/wp-content/uploads/Chunghwatelecom201503cabforumV4.pdf
  32:C:/Users/dtjld/workspace/AIoT/src/LiteOS_Lab/iot_link/network/dtls/mbedtls/mbedtls-2.16.2/library\x509_crt.c ****  */
  33:C:/Users/dtjld/workspace/AIoT/src/LiteOS_Lab/iot_link/network/dtls/mbedtls/mbedtls-2.16.2/library\x509_crt.c **** 
  34:C:/Users/dtjld/workspace/AIoT/src/LiteOS_Lab/iot_link/network/dtls/mbedtls/mbedtls-2.16.2/library\x509_crt.c **** #if !defined(MBEDTLS_CONFIG_FILE)
  35:C:/Users/dtjld/workspace/AIoT/src/LiteOS_Lab/iot_link/network/dtls/mbedtls/mbedtls-2.16.2/library\x509_crt.c **** #include "mbedtls/config.h"
  36:C:/Users/dtjld/workspace/AIoT/src/LiteOS_Lab/iot_link/network/dtls/mbedtls/mbedtls-2.16.2/library\x509_crt.c **** #else
  37:C:/Users/dtjld/workspace/AIoT/src/LiteOS_Lab/iot_link/network/dtls/mbedtls/mbedtls-2.16.2/library\x509_crt.c **** #include MBEDTLS_CONFIG_FILE
  38:C:/Users/dtjld/workspace/AIoT/src/LiteOS_Lab/iot_link/network/dtls/mbedtls/mbedtls-2.16.2/library\x509_crt.c **** #endif
  39:C:/Users/dtjld/workspace/AIoT/src/LiteOS_Lab/iot_link/network/dtls/mbedtls/mbedtls-2.16.2/library\x509_crt.c **** 
  40:C:/Users/dtjld/workspace/AIoT/src/LiteOS_Lab/iot_link/network/dtls/mbedtls/mbedtls-2.16.2/library\x509_crt.c **** #if defined(MBEDTLS_X509_CRT_PARSE_C)
  41:C:/Users/dtjld/workspace/AIoT/src/LiteOS_Lab/iot_link/network/dtls/mbedtls/mbedtls-2.16.2/library\x509_crt.c **** 
  42:C:/Users/dtjld/workspace/AIoT/src/LiteOS_Lab/iot_link/network/dtls/mbedtls/mbedtls-2.16.2/library\x509_crt.c **** #include "mbedtls/x509_crt.h"
  43:C:/Users/dtjld/workspace/AIoT/src/LiteOS_Lab/iot_link/network/dtls/mbedtls/mbedtls-2.16.2/library\x509_crt.c **** #include "mbedtls/oid.h"
  44:C:/Users/dtjld/workspace/AIoT/src/LiteOS_Lab/iot_link/network/dtls/mbedtls/mbedtls-2.16.2/library\x509_crt.c **** #include "mbedtls/platform_util.h"
  45:C:/Users/dtjld/workspace/AIoT/src/LiteOS_Lab/iot_link/network/dtls/mbedtls/mbedtls-2.16.2/library\x509_crt.c **** 
  46:C:/Users/dtjld/workspace/AIoT/src/LiteOS_Lab/iot_link/network/dtls/mbedtls/mbedtls-2.16.2/library\x509_crt.c **** #include <string.h>
  47:C:/Users/dtjld/workspace/AIoT/src/LiteOS_Lab/iot_link/network/dtls/mbedtls/mbedtls-2.16.2/library\x509_crt.c **** 
  48:C:/Users/dtjld/workspace/AIoT/src/LiteOS_Lab/iot_link/network/dtls/mbedtls/mbedtls-2.16.2/library\x509_crt.c **** #if defined(MBEDTLS_PEM_PARSE_C)
  49:C:/Users/dtjld/workspace/AIoT/src/LiteOS_Lab/iot_link/network/dtls/mbedtls/mbedtls-2.16.2/library\x509_crt.c **** #include "mbedtls/pem.h"
  50:C:/Users/dtjld/workspace/AIoT/src/LiteOS_Lab/iot_link/network/dtls/mbedtls/mbedtls-2.16.2/library\x509_crt.c **** #endif
  51:C:/Users/dtjld/workspace/AIoT/src/LiteOS_Lab/iot_link/network/dtls/mbedtls/mbedtls-2.16.2/library\x509_crt.c **** 
  52:C:/Users/dtjld/workspace/AIoT/src/LiteOS_Lab/iot_link/network/dtls/mbedtls/mbedtls-2.16.2/library\x509_crt.c **** #if defined(MBEDTLS_PLATFORM_C)
  53:C:/Users/dtjld/workspace/AIoT/src/LiteOS_Lab/iot_link/network/dtls/mbedtls/mbedtls-2.16.2/library\x509_crt.c **** #include "mbedtls/platform.h"
  54:C:/Users/dtjld/workspace/AIoT/src/LiteOS_Lab/iot_link/network/dtls/mbedtls/mbedtls-2.16.2/library\x509_crt.c **** #else
  55:C:/Users/dtjld/workspace/AIoT/src/LiteOS_Lab/iot_link/network/dtls/mbedtls/mbedtls-2.16.2/library\x509_crt.c **** #include <stdio.h>
  56:C:/Users/dtjld/workspace/AIoT/src/LiteOS_Lab/iot_link/network/dtls/mbedtls/mbedtls-2.16.2/library\x509_crt.c **** #include <stdlib.h>
  57:C:/Users/dtjld/workspace/AIoT/src/LiteOS_Lab/iot_link/network/dtls/mbedtls/mbedtls-2.16.2/library\x509_crt.c **** #define mbedtls_free       free
  58:C:/Users/dtjld/workspace/AIoT/src/LiteOS_Lab/iot_link/network/dtls/mbedtls/mbedtls-2.16.2/library\x509_crt.c **** #define mbedtls_calloc    calloc
  59:C:/Users/dtjld/workspace/AIoT/src/LiteOS_Lab/iot_link/network/dtls/mbedtls/mbedtls-2.16.2/library\x509_crt.c **** #define mbedtls_snprintf   snprintf
  60:C:/Users/dtjld/workspace/AIoT/src/LiteOS_Lab/iot_link/network/dtls/mbedtls/mbedtls-2.16.2/library\x509_crt.c **** #endif
  61:C:/Users/dtjld/workspace/AIoT/src/LiteOS_Lab/iot_link/network/dtls/mbedtls/mbedtls-2.16.2/library\x509_crt.c **** 
  62:C:/Users/dtjld/workspace/AIoT/src/LiteOS_Lab/iot_link/network/dtls/mbedtls/mbedtls-2.16.2/library\x509_crt.c **** #if defined(MBEDTLS_THREADING_C)
  63:C:/Users/dtjld/workspace/AIoT/src/LiteOS_Lab/iot_link/network/dtls/mbedtls/mbedtls-2.16.2/library\x509_crt.c **** #include "mbedtls/threading.h"
  64:C:/Users/dtjld/workspace/AIoT/src/LiteOS_Lab/iot_link/network/dtls/mbedtls/mbedtls-2.16.2/library\x509_crt.c **** #endif
  65:C:/Users/dtjld/workspace/AIoT/src/LiteOS_Lab/iot_link/network/dtls/mbedtls/mbedtls-2.16.2/library\x509_crt.c **** 
  66:C:/Users/dtjld/workspace/AIoT/src/LiteOS_Lab/iot_link/network/dtls/mbedtls/mbedtls-2.16.2/library\x509_crt.c **** #if defined(_WIN32) && !defined(EFIX64) && !defined(EFI32)
  67:C:/Users/dtjld/workspace/AIoT/src/LiteOS_Lab/iot_link/network/dtls/mbedtls/mbedtls-2.16.2/library\x509_crt.c **** #include <windows.h>
  68:C:/Users/dtjld/workspace/AIoT/src/LiteOS_Lab/iot_link/network/dtls/mbedtls/mbedtls-2.16.2/library\x509_crt.c **** #else
  69:C:/Users/dtjld/workspace/AIoT/src/LiteOS_Lab/iot_link/network/dtls/mbedtls/mbedtls-2.16.2/library\x509_crt.c **** #include <time.h>
  70:C:/Users/dtjld/workspace/AIoT/src/LiteOS_Lab/iot_link/network/dtls/mbedtls/mbedtls-2.16.2/library\x509_crt.c **** #endif
  71:C:/Users/dtjld/workspace/AIoT/src/LiteOS_Lab/iot_link/network/dtls/mbedtls/mbedtls-2.16.2/library\x509_crt.c **** 
  72:C:/Users/dtjld/workspace/AIoT/src/LiteOS_Lab/iot_link/network/dtls/mbedtls/mbedtls-2.16.2/library\x509_crt.c **** #if defined(MBEDTLS_FS_IO)
  73:C:/Users/dtjld/workspace/AIoT/src/LiteOS_Lab/iot_link/network/dtls/mbedtls/mbedtls-2.16.2/library\x509_crt.c **** #include <stdio.h>
  74:C:/Users/dtjld/workspace/AIoT/src/LiteOS_Lab/iot_link/network/dtls/mbedtls/mbedtls-2.16.2/library\x509_crt.c **** #if !defined(_WIN32) || defined(EFIX64) || defined(EFI32)
  75:C:/Users/dtjld/workspace/AIoT/src/LiteOS_Lab/iot_link/network/dtls/mbedtls/mbedtls-2.16.2/library\x509_crt.c **** #include <sys/types.h>
  76:C:/Users/dtjld/workspace/AIoT/src/LiteOS_Lab/iot_link/network/dtls/mbedtls/mbedtls-2.16.2/library\x509_crt.c **** #include <sys/stat.h>
ARM GAS  C:\Users\dtjld\AppData\Local\Temp\ccTXdst3.s 			page 7


  77:C:/Users/dtjld/workspace/AIoT/src/LiteOS_Lab/iot_link/network/dtls/mbedtls/mbedtls-2.16.2/library\x509_crt.c **** #include <dirent.h>
  78:C:/Users/dtjld/workspace/AIoT/src/LiteOS_Lab/iot_link/network/dtls/mbedtls/mbedtls-2.16.2/library\x509_crt.c **** #endif /* !_WIN32 || EFIX64 || EFI32 */
  79:C:/Users/dtjld/workspace/AIoT/src/LiteOS_Lab/iot_link/network/dtls/mbedtls/mbedtls-2.16.2/library\x509_crt.c **** #endif
  80:C:/Users/dtjld/workspace/AIoT/src/LiteOS_Lab/iot_link/network/dtls/mbedtls/mbedtls-2.16.2/library\x509_crt.c **** 
  81:C:/Users/dtjld/workspace/AIoT/src/LiteOS_Lab/iot_link/network/dtls/mbedtls/mbedtls-2.16.2/library\x509_crt.c **** /*
  82:C:/Users/dtjld/workspace/AIoT/src/LiteOS_Lab/iot_link/network/dtls/mbedtls/mbedtls-2.16.2/library\x509_crt.c ****  * Item in a verification chain: cert and flags for it
  83:C:/Users/dtjld/workspace/AIoT/src/LiteOS_Lab/iot_link/network/dtls/mbedtls/mbedtls-2.16.2/library\x509_crt.c ****  */
  84:C:/Users/dtjld/workspace/AIoT/src/LiteOS_Lab/iot_link/network/dtls/mbedtls/mbedtls-2.16.2/library\x509_crt.c **** typedef struct {
  85:C:/Users/dtjld/workspace/AIoT/src/LiteOS_Lab/iot_link/network/dtls/mbedtls/mbedtls-2.16.2/library\x509_crt.c ****     mbedtls_x509_crt *crt;
  86:C:/Users/dtjld/workspace/AIoT/src/LiteOS_Lab/iot_link/network/dtls/mbedtls/mbedtls-2.16.2/library\x509_crt.c ****     uint32_t flags;
  87:C:/Users/dtjld/workspace/AIoT/src/LiteOS_Lab/iot_link/network/dtls/mbedtls/mbedtls-2.16.2/library\x509_crt.c **** } x509_crt_verify_chain_item;
  88:C:/Users/dtjld/workspace/AIoT/src/LiteOS_Lab/iot_link/network/dtls/mbedtls/mbedtls-2.16.2/library\x509_crt.c **** 
  89:C:/Users/dtjld/workspace/AIoT/src/LiteOS_Lab/iot_link/network/dtls/mbedtls/mbedtls-2.16.2/library\x509_crt.c **** /*
  90:C:/Users/dtjld/workspace/AIoT/src/LiteOS_Lab/iot_link/network/dtls/mbedtls/mbedtls-2.16.2/library\x509_crt.c ****  * Max size of verification chain: end-entity + intermediates + trusted root
  91:C:/Users/dtjld/workspace/AIoT/src/LiteOS_Lab/iot_link/network/dtls/mbedtls/mbedtls-2.16.2/library\x509_crt.c ****  */
  92:C:/Users/dtjld/workspace/AIoT/src/LiteOS_Lab/iot_link/network/dtls/mbedtls/mbedtls-2.16.2/library\x509_crt.c **** #define X509_MAX_VERIFY_CHAIN_SIZE    ( MBEDTLS_X509_MAX_INTERMEDIATE_CA + 2 )
  93:C:/Users/dtjld/workspace/AIoT/src/LiteOS_Lab/iot_link/network/dtls/mbedtls/mbedtls-2.16.2/library\x509_crt.c **** 
  94:C:/Users/dtjld/workspace/AIoT/src/LiteOS_Lab/iot_link/network/dtls/mbedtls/mbedtls-2.16.2/library\x509_crt.c **** /*
  95:C:/Users/dtjld/workspace/AIoT/src/LiteOS_Lab/iot_link/network/dtls/mbedtls/mbedtls-2.16.2/library\x509_crt.c ****  * Default profile
  96:C:/Users/dtjld/workspace/AIoT/src/LiteOS_Lab/iot_link/network/dtls/mbedtls/mbedtls-2.16.2/library\x509_crt.c ****  */
  97:C:/Users/dtjld/workspace/AIoT/src/LiteOS_Lab/iot_link/network/dtls/mbedtls/mbedtls-2.16.2/library\x509_crt.c **** const mbedtls_x509_crt_profile mbedtls_x509_crt_profile_default =
  98:C:/Users/dtjld/workspace/AIoT/src/LiteOS_Lab/iot_link/network/dtls/mbedtls/mbedtls-2.16.2/library\x509_crt.c **** {
  99:C:/Users/dtjld/workspace/AIoT/src/LiteOS_Lab/iot_link/network/dtls/mbedtls/mbedtls-2.16.2/library\x509_crt.c **** #if defined(MBEDTLS_TLS_DEFAULT_ALLOW_SHA1_IN_CERTIFICATES)
 100:C:/Users/dtjld/workspace/AIoT/src/LiteOS_Lab/iot_link/network/dtls/mbedtls/mbedtls-2.16.2/library\x509_crt.c ****     /* Allow SHA-1 (weak, but still safe in controlled environments) */
 101:C:/Users/dtjld/workspace/AIoT/src/LiteOS_Lab/iot_link/network/dtls/mbedtls/mbedtls-2.16.2/library\x509_crt.c ****     MBEDTLS_X509_ID_FLAG( MBEDTLS_MD_SHA1 ) |
 102:C:/Users/dtjld/workspace/AIoT/src/LiteOS_Lab/iot_link/network/dtls/mbedtls/mbedtls-2.16.2/library\x509_crt.c **** #endif
 103:C:/Users/dtjld/workspace/AIoT/src/LiteOS_Lab/iot_link/network/dtls/mbedtls/mbedtls-2.16.2/library\x509_crt.c ****     /* Only SHA-2 hashes */
 104:C:/Users/dtjld/workspace/AIoT/src/LiteOS_Lab/iot_link/network/dtls/mbedtls/mbedtls-2.16.2/library\x509_crt.c ****     MBEDTLS_X509_ID_FLAG( MBEDTLS_MD_SHA224 ) |
 105:C:/Users/dtjld/workspace/AIoT/src/LiteOS_Lab/iot_link/network/dtls/mbedtls/mbedtls-2.16.2/library\x509_crt.c ****     MBEDTLS_X509_ID_FLAG( MBEDTLS_MD_SHA256 ) |
 106:C:/Users/dtjld/workspace/AIoT/src/LiteOS_Lab/iot_link/network/dtls/mbedtls/mbedtls-2.16.2/library\x509_crt.c ****     MBEDTLS_X509_ID_FLAG( MBEDTLS_MD_SHA384 ) |
 107:C:/Users/dtjld/workspace/AIoT/src/LiteOS_Lab/iot_link/network/dtls/mbedtls/mbedtls-2.16.2/library\x509_crt.c ****     MBEDTLS_X509_ID_FLAG( MBEDTLS_MD_SHA512 ),
 108:C:/Users/dtjld/workspace/AIoT/src/LiteOS_Lab/iot_link/network/dtls/mbedtls/mbedtls-2.16.2/library\x509_crt.c ****     0xFFFFFFF, /* Any PK alg    */
 109:C:/Users/dtjld/workspace/AIoT/src/LiteOS_Lab/iot_link/network/dtls/mbedtls/mbedtls-2.16.2/library\x509_crt.c ****     0xFFFFFFF, /* Any curve     */
 110:C:/Users/dtjld/workspace/AIoT/src/LiteOS_Lab/iot_link/network/dtls/mbedtls/mbedtls-2.16.2/library\x509_crt.c ****     2048,
 111:C:/Users/dtjld/workspace/AIoT/src/LiteOS_Lab/iot_link/network/dtls/mbedtls/mbedtls-2.16.2/library\x509_crt.c **** };
 112:C:/Users/dtjld/workspace/AIoT/src/LiteOS_Lab/iot_link/network/dtls/mbedtls/mbedtls-2.16.2/library\x509_crt.c **** 
 113:C:/Users/dtjld/workspace/AIoT/src/LiteOS_Lab/iot_link/network/dtls/mbedtls/mbedtls-2.16.2/library\x509_crt.c **** /*
 114:C:/Users/dtjld/workspace/AIoT/src/LiteOS_Lab/iot_link/network/dtls/mbedtls/mbedtls-2.16.2/library\x509_crt.c ****  * Next-default profile
 115:C:/Users/dtjld/workspace/AIoT/src/LiteOS_Lab/iot_link/network/dtls/mbedtls/mbedtls-2.16.2/library\x509_crt.c ****  */
 116:C:/Users/dtjld/workspace/AIoT/src/LiteOS_Lab/iot_link/network/dtls/mbedtls/mbedtls-2.16.2/library\x509_crt.c **** const mbedtls_x509_crt_profile mbedtls_x509_crt_profile_next =
 117:C:/Users/dtjld/workspace/AIoT/src/LiteOS_Lab/iot_link/network/dtls/mbedtls/mbedtls-2.16.2/library\x509_crt.c **** {
 118:C:/Users/dtjld/workspace/AIoT/src/LiteOS_Lab/iot_link/network/dtls/mbedtls/mbedtls-2.16.2/library\x509_crt.c ****     /* Hashes from SHA-256 and above */
 119:C:/Users/dtjld/workspace/AIoT/src/LiteOS_Lab/iot_link/network/dtls/mbedtls/mbedtls-2.16.2/library\x509_crt.c ****     MBEDTLS_X509_ID_FLAG( MBEDTLS_MD_SHA256 ) |
 120:C:/Users/dtjld/workspace/AIoT/src/LiteOS_Lab/iot_link/network/dtls/mbedtls/mbedtls-2.16.2/library\x509_crt.c ****     MBEDTLS_X509_ID_FLAG( MBEDTLS_MD_SHA384 ) |
 121:C:/Users/dtjld/workspace/AIoT/src/LiteOS_Lab/iot_link/network/dtls/mbedtls/mbedtls-2.16.2/library\x509_crt.c ****     MBEDTLS_X509_ID_FLAG( MBEDTLS_MD_SHA512 ),
 122:C:/Users/dtjld/workspace/AIoT/src/LiteOS_Lab/iot_link/network/dtls/mbedtls/mbedtls-2.16.2/library\x509_crt.c ****     0xFFFFFFF, /* Any PK alg    */
 123:C:/Users/dtjld/workspace/AIoT/src/LiteOS_Lab/iot_link/network/dtls/mbedtls/mbedtls-2.16.2/library\x509_crt.c **** #if defined(MBEDTLS_ECP_C)
 124:C:/Users/dtjld/workspace/AIoT/src/LiteOS_Lab/iot_link/network/dtls/mbedtls/mbedtls-2.16.2/library\x509_crt.c ****     /* Curves at or above 128-bit security level */
 125:C:/Users/dtjld/workspace/AIoT/src/LiteOS_Lab/iot_link/network/dtls/mbedtls/mbedtls-2.16.2/library\x509_crt.c ****     MBEDTLS_X509_ID_FLAG( MBEDTLS_ECP_DP_SECP256R1 ) |
 126:C:/Users/dtjld/workspace/AIoT/src/LiteOS_Lab/iot_link/network/dtls/mbedtls/mbedtls-2.16.2/library\x509_crt.c ****     MBEDTLS_X509_ID_FLAG( MBEDTLS_ECP_DP_SECP384R1 ) |
 127:C:/Users/dtjld/workspace/AIoT/src/LiteOS_Lab/iot_link/network/dtls/mbedtls/mbedtls-2.16.2/library\x509_crt.c ****     MBEDTLS_X509_ID_FLAG( MBEDTLS_ECP_DP_SECP521R1 ) |
 128:C:/Users/dtjld/workspace/AIoT/src/LiteOS_Lab/iot_link/network/dtls/mbedtls/mbedtls-2.16.2/library\x509_crt.c ****     MBEDTLS_X509_ID_FLAG( MBEDTLS_ECP_DP_BP256R1 ) |
 129:C:/Users/dtjld/workspace/AIoT/src/LiteOS_Lab/iot_link/network/dtls/mbedtls/mbedtls-2.16.2/library\x509_crt.c ****     MBEDTLS_X509_ID_FLAG( MBEDTLS_ECP_DP_BP384R1 ) |
 130:C:/Users/dtjld/workspace/AIoT/src/LiteOS_Lab/iot_link/network/dtls/mbedtls/mbedtls-2.16.2/library\x509_crt.c ****     MBEDTLS_X509_ID_FLAG( MBEDTLS_ECP_DP_BP512R1 ) |
 131:C:/Users/dtjld/workspace/AIoT/src/LiteOS_Lab/iot_link/network/dtls/mbedtls/mbedtls-2.16.2/library\x509_crt.c ****     MBEDTLS_X509_ID_FLAG( MBEDTLS_ECP_DP_SECP256K1 ),
 132:C:/Users/dtjld/workspace/AIoT/src/LiteOS_Lab/iot_link/network/dtls/mbedtls/mbedtls-2.16.2/library\x509_crt.c **** #else
 133:C:/Users/dtjld/workspace/AIoT/src/LiteOS_Lab/iot_link/network/dtls/mbedtls/mbedtls-2.16.2/library\x509_crt.c ****     0,
ARM GAS  C:\Users\dtjld\AppData\Local\Temp\ccTXdst3.s 			page 8


 134:C:/Users/dtjld/workspace/AIoT/src/LiteOS_Lab/iot_link/network/dtls/mbedtls/mbedtls-2.16.2/library\x509_crt.c **** #endif
 135:C:/Users/dtjld/workspace/AIoT/src/LiteOS_Lab/iot_link/network/dtls/mbedtls/mbedtls-2.16.2/library\x509_crt.c ****     2048,
 136:C:/Users/dtjld/workspace/AIoT/src/LiteOS_Lab/iot_link/network/dtls/mbedtls/mbedtls-2.16.2/library\x509_crt.c **** };
 137:C:/Users/dtjld/workspace/AIoT/src/LiteOS_Lab/iot_link/network/dtls/mbedtls/mbedtls-2.16.2/library\x509_crt.c **** 
 138:C:/Users/dtjld/workspace/AIoT/src/LiteOS_Lab/iot_link/network/dtls/mbedtls/mbedtls-2.16.2/library\x509_crt.c **** /*
 139:C:/Users/dtjld/workspace/AIoT/src/LiteOS_Lab/iot_link/network/dtls/mbedtls/mbedtls-2.16.2/library\x509_crt.c ****  * NSA Suite B Profile
 140:C:/Users/dtjld/workspace/AIoT/src/LiteOS_Lab/iot_link/network/dtls/mbedtls/mbedtls-2.16.2/library\x509_crt.c ****  */
 141:C:/Users/dtjld/workspace/AIoT/src/LiteOS_Lab/iot_link/network/dtls/mbedtls/mbedtls-2.16.2/library\x509_crt.c **** const mbedtls_x509_crt_profile mbedtls_x509_crt_profile_suiteb =
 142:C:/Users/dtjld/workspace/AIoT/src/LiteOS_Lab/iot_link/network/dtls/mbedtls/mbedtls-2.16.2/library\x509_crt.c **** {
 143:C:/Users/dtjld/workspace/AIoT/src/LiteOS_Lab/iot_link/network/dtls/mbedtls/mbedtls-2.16.2/library\x509_crt.c ****     /* Only SHA-256 and 384 */
 144:C:/Users/dtjld/workspace/AIoT/src/LiteOS_Lab/iot_link/network/dtls/mbedtls/mbedtls-2.16.2/library\x509_crt.c ****     MBEDTLS_X509_ID_FLAG( MBEDTLS_MD_SHA256 ) |
 145:C:/Users/dtjld/workspace/AIoT/src/LiteOS_Lab/iot_link/network/dtls/mbedtls/mbedtls-2.16.2/library\x509_crt.c ****     MBEDTLS_X509_ID_FLAG( MBEDTLS_MD_SHA384 ),
 146:C:/Users/dtjld/workspace/AIoT/src/LiteOS_Lab/iot_link/network/dtls/mbedtls/mbedtls-2.16.2/library\x509_crt.c ****     /* Only ECDSA */
 147:C:/Users/dtjld/workspace/AIoT/src/LiteOS_Lab/iot_link/network/dtls/mbedtls/mbedtls-2.16.2/library\x509_crt.c ****     MBEDTLS_X509_ID_FLAG( MBEDTLS_PK_ECDSA ) |
 148:C:/Users/dtjld/workspace/AIoT/src/LiteOS_Lab/iot_link/network/dtls/mbedtls/mbedtls-2.16.2/library\x509_crt.c ****     MBEDTLS_X509_ID_FLAG( MBEDTLS_PK_ECKEY ),
 149:C:/Users/dtjld/workspace/AIoT/src/LiteOS_Lab/iot_link/network/dtls/mbedtls/mbedtls-2.16.2/library\x509_crt.c **** #if defined(MBEDTLS_ECP_C)
 150:C:/Users/dtjld/workspace/AIoT/src/LiteOS_Lab/iot_link/network/dtls/mbedtls/mbedtls-2.16.2/library\x509_crt.c ****     /* Only NIST P-256 and P-384 */
 151:C:/Users/dtjld/workspace/AIoT/src/LiteOS_Lab/iot_link/network/dtls/mbedtls/mbedtls-2.16.2/library\x509_crt.c ****     MBEDTLS_X509_ID_FLAG( MBEDTLS_ECP_DP_SECP256R1 ) |
 152:C:/Users/dtjld/workspace/AIoT/src/LiteOS_Lab/iot_link/network/dtls/mbedtls/mbedtls-2.16.2/library\x509_crt.c ****     MBEDTLS_X509_ID_FLAG( MBEDTLS_ECP_DP_SECP384R1 ),
 153:C:/Users/dtjld/workspace/AIoT/src/LiteOS_Lab/iot_link/network/dtls/mbedtls/mbedtls-2.16.2/library\x509_crt.c **** #else
 154:C:/Users/dtjld/workspace/AIoT/src/LiteOS_Lab/iot_link/network/dtls/mbedtls/mbedtls-2.16.2/library\x509_crt.c ****     0,
 155:C:/Users/dtjld/workspace/AIoT/src/LiteOS_Lab/iot_link/network/dtls/mbedtls/mbedtls-2.16.2/library\x509_crt.c **** #endif
 156:C:/Users/dtjld/workspace/AIoT/src/LiteOS_Lab/iot_link/network/dtls/mbedtls/mbedtls-2.16.2/library\x509_crt.c ****     0,
 157:C:/Users/dtjld/workspace/AIoT/src/LiteOS_Lab/iot_link/network/dtls/mbedtls/mbedtls-2.16.2/library\x509_crt.c **** };
 158:C:/Users/dtjld/workspace/AIoT/src/LiteOS_Lab/iot_link/network/dtls/mbedtls/mbedtls-2.16.2/library\x509_crt.c **** 
 159:C:/Users/dtjld/workspace/AIoT/src/LiteOS_Lab/iot_link/network/dtls/mbedtls/mbedtls-2.16.2/library\x509_crt.c **** /*
 160:C:/Users/dtjld/workspace/AIoT/src/LiteOS_Lab/iot_link/network/dtls/mbedtls/mbedtls-2.16.2/library\x509_crt.c ****  * Check md_alg against profile
 161:C:/Users/dtjld/workspace/AIoT/src/LiteOS_Lab/iot_link/network/dtls/mbedtls/mbedtls-2.16.2/library\x509_crt.c ****  * Return 0 if md_alg is acceptable for this profile, -1 otherwise
 162:C:/Users/dtjld/workspace/AIoT/src/LiteOS_Lab/iot_link/network/dtls/mbedtls/mbedtls-2.16.2/library\x509_crt.c ****  */
 163:C:/Users/dtjld/workspace/AIoT/src/LiteOS_Lab/iot_link/network/dtls/mbedtls/mbedtls-2.16.2/library\x509_crt.c **** static int x509_profile_check_md_alg( const mbedtls_x509_crt_profile *profile,
 164:C:/Users/dtjld/workspace/AIoT/src/LiteOS_Lab/iot_link/network/dtls/mbedtls/mbedtls-2.16.2/library\x509_crt.c ****                                       mbedtls_md_type_t md_alg )
 165:C:/Users/dtjld/workspace/AIoT/src/LiteOS_Lab/iot_link/network/dtls/mbedtls/mbedtls-2.16.2/library\x509_crt.c **** {
 103              		.loc 2 165 0
 104              		.cfi_startproc
 105              		@ args = 0, pretend = 0, frame = 8
 106              		@ frame_needed = 1, uses_anonymous_args = 0
 107              		@ link register save eliminated.
 108 0000 80B4     		push	{r7}
 109              	.LCFI6:
 110              		.cfi_def_cfa_offset 4
 111              		.cfi_offset 7, -4
 112 0002 83B0     		sub	sp, sp, #12
 113              	.LCFI7:
 114              		.cfi_def_cfa_offset 16
 115 0004 00AF     		add	r7, sp, #0
 116              	.LCFI8:
 117              		.cfi_def_cfa_register 7
 118 0006 7860     		str	r0, [r7, #4]
 119 0008 0B46     		mov	r3, r1
 120 000a FB70     		strb	r3, [r7, #3]
 166:C:/Users/dtjld/workspace/AIoT/src/LiteOS_Lab/iot_link/network/dtls/mbedtls/mbedtls-2.16.2/library\x509_crt.c ****     if( md_alg == MBEDTLS_MD_NONE )
 121              		.loc 2 166 0
 122 000c FB78     		ldrb	r3, [r7, #3]	@ zero_extendqisi2
 123 000e 002B     		cmp	r3, #0
 124 0010 02D1     		bne	.L4
 167:C:/Users/dtjld/workspace/AIoT/src/LiteOS_Lab/iot_link/network/dtls/mbedtls/mbedtls-2.16.2/library\x509_crt.c ****         return( -1 );
 125              		.loc 2 167 0
ARM GAS  C:\Users\dtjld\AppData\Local\Temp\ccTXdst3.s 			page 9


 126 0012 4FF0FF33 		mov	r3, #-1
 127 0016 0DE0     		b	.L5
 128              	.L4:
 168:C:/Users/dtjld/workspace/AIoT/src/LiteOS_Lab/iot_link/network/dtls/mbedtls/mbedtls-2.16.2/library\x509_crt.c **** 
 169:C:/Users/dtjld/workspace/AIoT/src/LiteOS_Lab/iot_link/network/dtls/mbedtls/mbedtls-2.16.2/library\x509_crt.c ****     if( ( profile->allowed_mds & MBEDTLS_X509_ID_FLAG( md_alg ) ) != 0 )
 129              		.loc 2 169 0
 130 0018 7B68     		ldr	r3, [r7, #4]
 131 001a 1B68     		ldr	r3, [r3]
 132 001c FA78     		ldrb	r2, [r7, #3]	@ zero_extendqisi2
 133 001e 013A     		subs	r2, r2, #1
 134 0020 0121     		movs	r1, #1
 135 0022 01FA02F2 		lsl	r2, r1, r2
 136 0026 1340     		ands	r3, r3, r2
 137 0028 002B     		cmp	r3, #0
 138 002a 01D0     		beq	.L6
 170:C:/Users/dtjld/workspace/AIoT/src/LiteOS_Lab/iot_link/network/dtls/mbedtls/mbedtls-2.16.2/library\x509_crt.c ****         return( 0 );
 139              		.loc 2 170 0
 140 002c 0023     		movs	r3, #0
 141 002e 01E0     		b	.L5
 142              	.L6:
 171:C:/Users/dtjld/workspace/AIoT/src/LiteOS_Lab/iot_link/network/dtls/mbedtls/mbedtls-2.16.2/library\x509_crt.c **** 
 172:C:/Users/dtjld/workspace/AIoT/src/LiteOS_Lab/iot_link/network/dtls/mbedtls/mbedtls-2.16.2/library\x509_crt.c ****     return( -1 );
 143              		.loc 2 172 0
 144 0030 4FF0FF33 		mov	r3, #-1
 145              	.L5:
 173:C:/Users/dtjld/workspace/AIoT/src/LiteOS_Lab/iot_link/network/dtls/mbedtls/mbedtls-2.16.2/library\x509_crt.c **** }
 146              		.loc 2 173 0
 147 0034 1846     		mov	r0, r3
 148 0036 0C37     		adds	r7, r7, #12
 149              	.LCFI9:
 150              		.cfi_def_cfa_offset 4
 151 0038 BD46     		mov	sp, r7
 152              	.LCFI10:
 153              		.cfi_def_cfa_register 13
 154              		@ sp needed
 155 003a 5DF8047B 		ldr	r7, [sp], #4
 156              	.LCFI11:
 157              		.cfi_restore 7
 158              		.cfi_def_cfa_offset 0
 159 003e 7047     		bx	lr
 160              		.cfi_endproc
 161              	.LFE13:
 163              		.section	.text.x509_profile_check_pk_alg,"ax",%progbits
 164              		.align	1
 165              		.syntax unified
 166              		.thumb
 167              		.thumb_func
 168              		.fpu fpv4-sp-d16
 170              	x509_profile_check_pk_alg:
 171              	.LFB14:
 174:C:/Users/dtjld/workspace/AIoT/src/LiteOS_Lab/iot_link/network/dtls/mbedtls/mbedtls-2.16.2/library\x509_crt.c **** 
 175:C:/Users/dtjld/workspace/AIoT/src/LiteOS_Lab/iot_link/network/dtls/mbedtls/mbedtls-2.16.2/library\x509_crt.c **** /*
 176:C:/Users/dtjld/workspace/AIoT/src/LiteOS_Lab/iot_link/network/dtls/mbedtls/mbedtls-2.16.2/library\x509_crt.c ****  * Check pk_alg against profile
 177:C:/Users/dtjld/workspace/AIoT/src/LiteOS_Lab/iot_link/network/dtls/mbedtls/mbedtls-2.16.2/library\x509_crt.c ****  * Return 0 if pk_alg is acceptable for this profile, -1 otherwise
 178:C:/Users/dtjld/workspace/AIoT/src/LiteOS_Lab/iot_link/network/dtls/mbedtls/mbedtls-2.16.2/library\x509_crt.c ****  */
 179:C:/Users/dtjld/workspace/AIoT/src/LiteOS_Lab/iot_link/network/dtls/mbedtls/mbedtls-2.16.2/library\x509_crt.c **** static int x509_profile_check_pk_alg( const mbedtls_x509_crt_profile *profile,
 180:C:/Users/dtjld/workspace/AIoT/src/LiteOS_Lab/iot_link/network/dtls/mbedtls/mbedtls-2.16.2/library\x509_crt.c ****                                       mbedtls_pk_type_t pk_alg )
ARM GAS  C:\Users\dtjld\AppData\Local\Temp\ccTXdst3.s 			page 10


 181:C:/Users/dtjld/workspace/AIoT/src/LiteOS_Lab/iot_link/network/dtls/mbedtls/mbedtls-2.16.2/library\x509_crt.c **** {
 172              		.loc 2 181 0
 173              		.cfi_startproc
 174              		@ args = 0, pretend = 0, frame = 8
 175              		@ frame_needed = 1, uses_anonymous_args = 0
 176              		@ link register save eliminated.
 177 0000 80B4     		push	{r7}
 178              	.LCFI12:
 179              		.cfi_def_cfa_offset 4
 180              		.cfi_offset 7, -4
 181 0002 83B0     		sub	sp, sp, #12
 182              	.LCFI13:
 183              		.cfi_def_cfa_offset 16
 184 0004 00AF     		add	r7, sp, #0
 185              	.LCFI14:
 186              		.cfi_def_cfa_register 7
 187 0006 7860     		str	r0, [r7, #4]
 188 0008 0B46     		mov	r3, r1
 189 000a FB70     		strb	r3, [r7, #3]
 182:C:/Users/dtjld/workspace/AIoT/src/LiteOS_Lab/iot_link/network/dtls/mbedtls/mbedtls-2.16.2/library\x509_crt.c ****     if( pk_alg == MBEDTLS_PK_NONE )
 190              		.loc 2 182 0
 191 000c FB78     		ldrb	r3, [r7, #3]	@ zero_extendqisi2
 192 000e 002B     		cmp	r3, #0
 193 0010 02D1     		bne	.L8
 183:C:/Users/dtjld/workspace/AIoT/src/LiteOS_Lab/iot_link/network/dtls/mbedtls/mbedtls-2.16.2/library\x509_crt.c ****         return( -1 );
 194              		.loc 2 183 0
 195 0012 4FF0FF33 		mov	r3, #-1
 196 0016 0DE0     		b	.L9
 197              	.L8:
 184:C:/Users/dtjld/workspace/AIoT/src/LiteOS_Lab/iot_link/network/dtls/mbedtls/mbedtls-2.16.2/library\x509_crt.c **** 
 185:C:/Users/dtjld/workspace/AIoT/src/LiteOS_Lab/iot_link/network/dtls/mbedtls/mbedtls-2.16.2/library\x509_crt.c ****     if( ( profile->allowed_pks & MBEDTLS_X509_ID_FLAG( pk_alg ) ) != 0 )
 198              		.loc 2 185 0
 199 0018 7B68     		ldr	r3, [r7, #4]
 200 001a 5B68     		ldr	r3, [r3, #4]
 201 001c FA78     		ldrb	r2, [r7, #3]	@ zero_extendqisi2
 202 001e 013A     		subs	r2, r2, #1
 203 0020 0121     		movs	r1, #1
 204 0022 01FA02F2 		lsl	r2, r1, r2
 205 0026 1340     		ands	r3, r3, r2
 206 0028 002B     		cmp	r3, #0
 207 002a 01D0     		beq	.L10
 186:C:/Users/dtjld/workspace/AIoT/src/LiteOS_Lab/iot_link/network/dtls/mbedtls/mbedtls-2.16.2/library\x509_crt.c ****         return( 0 );
 208              		.loc 2 186 0
 209 002c 0023     		movs	r3, #0
 210 002e 01E0     		b	.L9
 211              	.L10:
 187:C:/Users/dtjld/workspace/AIoT/src/LiteOS_Lab/iot_link/network/dtls/mbedtls/mbedtls-2.16.2/library\x509_crt.c **** 
 188:C:/Users/dtjld/workspace/AIoT/src/LiteOS_Lab/iot_link/network/dtls/mbedtls/mbedtls-2.16.2/library\x509_crt.c ****     return( -1 );
 212              		.loc 2 188 0
 213 0030 4FF0FF33 		mov	r3, #-1
 214              	.L9:
 189:C:/Users/dtjld/workspace/AIoT/src/LiteOS_Lab/iot_link/network/dtls/mbedtls/mbedtls-2.16.2/library\x509_crt.c **** }
 215              		.loc 2 189 0
 216 0034 1846     		mov	r0, r3
 217 0036 0C37     		adds	r7, r7, #12
 218              	.LCFI15:
 219              		.cfi_def_cfa_offset 4
ARM GAS  C:\Users\dtjld\AppData\Local\Temp\ccTXdst3.s 			page 11


 220 0038 BD46     		mov	sp, r7
 221              	.LCFI16:
 222              		.cfi_def_cfa_register 13
 223              		@ sp needed
 224 003a 5DF8047B 		ldr	r7, [sp], #4
 225              	.LCFI17:
 226              		.cfi_restore 7
 227              		.cfi_def_cfa_offset 0
 228 003e 7047     		bx	lr
 229              		.cfi_endproc
 230              	.LFE14:
 232              		.section	.text.x509_profile_check_key,"ax",%progbits
 233              		.align	1
 234              		.syntax unified
 235              		.thumb
 236              		.thumb_func
 237              		.fpu fpv4-sp-d16
 239              	x509_profile_check_key:
 240              	.LFB15:
 190:C:/Users/dtjld/workspace/AIoT/src/LiteOS_Lab/iot_link/network/dtls/mbedtls/mbedtls-2.16.2/library\x509_crt.c **** 
 191:C:/Users/dtjld/workspace/AIoT/src/LiteOS_Lab/iot_link/network/dtls/mbedtls/mbedtls-2.16.2/library\x509_crt.c **** /*
 192:C:/Users/dtjld/workspace/AIoT/src/LiteOS_Lab/iot_link/network/dtls/mbedtls/mbedtls-2.16.2/library\x509_crt.c ****  * Check key against profile
 193:C:/Users/dtjld/workspace/AIoT/src/LiteOS_Lab/iot_link/network/dtls/mbedtls/mbedtls-2.16.2/library\x509_crt.c ****  * Return 0 if pk is acceptable for this profile, -1 otherwise
 194:C:/Users/dtjld/workspace/AIoT/src/LiteOS_Lab/iot_link/network/dtls/mbedtls/mbedtls-2.16.2/library\x509_crt.c ****  */
 195:C:/Users/dtjld/workspace/AIoT/src/LiteOS_Lab/iot_link/network/dtls/mbedtls/mbedtls-2.16.2/library\x509_crt.c **** static int x509_profile_check_key( const mbedtls_x509_crt_profile *profile,
 196:C:/Users/dtjld/workspace/AIoT/src/LiteOS_Lab/iot_link/network/dtls/mbedtls/mbedtls-2.16.2/library\x509_crt.c ****                                    const mbedtls_pk_context *pk )
 197:C:/Users/dtjld/workspace/AIoT/src/LiteOS_Lab/iot_link/network/dtls/mbedtls/mbedtls-2.16.2/library\x509_crt.c **** {
 241              		.loc 2 197 0
 242              		.cfi_startproc
 243              		@ args = 0, pretend = 0, frame = 16
 244              		@ frame_needed = 1, uses_anonymous_args = 0
 245 0000 80B5     		push	{r7, lr}
 246              	.LCFI18:
 247              		.cfi_def_cfa_offset 8
 248              		.cfi_offset 7, -8
 249              		.cfi_offset 14, -4
 250 0002 84B0     		sub	sp, sp, #16
 251              	.LCFI19:
 252              		.cfi_def_cfa_offset 24
 253 0004 00AF     		add	r7, sp, #0
 254              	.LCFI20:
 255              		.cfi_def_cfa_register 7
 256 0006 7860     		str	r0, [r7, #4]
 257 0008 3960     		str	r1, [r7]
 198:C:/Users/dtjld/workspace/AIoT/src/LiteOS_Lab/iot_link/network/dtls/mbedtls/mbedtls-2.16.2/library\x509_crt.c ****     const mbedtls_pk_type_t pk_alg = mbedtls_pk_get_type( pk );
 258              		.loc 2 198 0
 259 000a 3868     		ldr	r0, [r7]
 260 000c FFF7FEFF 		bl	mbedtls_pk_get_type
 261 0010 0346     		mov	r3, r0
 262 0012 FB73     		strb	r3, [r7, #15]
 199:C:/Users/dtjld/workspace/AIoT/src/LiteOS_Lab/iot_link/network/dtls/mbedtls/mbedtls-2.16.2/library\x509_crt.c **** 
 200:C:/Users/dtjld/workspace/AIoT/src/LiteOS_Lab/iot_link/network/dtls/mbedtls/mbedtls-2.16.2/library\x509_crt.c **** #if defined(MBEDTLS_RSA_C)
 201:C:/Users/dtjld/workspace/AIoT/src/LiteOS_Lab/iot_link/network/dtls/mbedtls/mbedtls-2.16.2/library\x509_crt.c ****     if( pk_alg == MBEDTLS_PK_RSA || pk_alg == MBEDTLS_PK_RSASSA_PSS )
 263              		.loc 2 201 0
 264 0014 FB7B     		ldrb	r3, [r7, #15]	@ zero_extendqisi2
 265 0016 012B     		cmp	r3, #1
 266 0018 02D0     		beq	.L12
ARM GAS  C:\Users\dtjld\AppData\Local\Temp\ccTXdst3.s 			page 12


 267              		.loc 2 201 0 is_stmt 0 discriminator 1
 268 001a FB7B     		ldrb	r3, [r7, #15]	@ zero_extendqisi2
 269 001c 062B     		cmp	r3, #6
 270 001e 0CD1     		bne	.L13
 271              	.L12:
 202:C:/Users/dtjld/workspace/AIoT/src/LiteOS_Lab/iot_link/network/dtls/mbedtls/mbedtls-2.16.2/library\x509_crt.c ****     {
 203:C:/Users/dtjld/workspace/AIoT/src/LiteOS_Lab/iot_link/network/dtls/mbedtls/mbedtls-2.16.2/library\x509_crt.c ****         if( mbedtls_pk_get_bitlen( pk ) >= profile->rsa_min_bitlen )
 272              		.loc 2 203 0 is_stmt 1
 273 0020 3868     		ldr	r0, [r7]
 274 0022 FFF7FEFF 		bl	mbedtls_pk_get_bitlen
 275 0026 0246     		mov	r2, r0
 276 0028 7B68     		ldr	r3, [r7, #4]
 277 002a DB68     		ldr	r3, [r3, #12]
 278 002c 9A42     		cmp	r2, r3
 279 002e 01D3     		bcc	.L14
 204:C:/Users/dtjld/workspace/AIoT/src/LiteOS_Lab/iot_link/network/dtls/mbedtls/mbedtls-2.16.2/library\x509_crt.c ****             return( 0 );
 280              		.loc 2 204 0
 281 0030 0023     		movs	r3, #0
 282 0032 2AE0     		b	.L15
 283              	.L14:
 205:C:/Users/dtjld/workspace/AIoT/src/LiteOS_Lab/iot_link/network/dtls/mbedtls/mbedtls-2.16.2/library\x509_crt.c **** 
 206:C:/Users/dtjld/workspace/AIoT/src/LiteOS_Lab/iot_link/network/dtls/mbedtls/mbedtls-2.16.2/library\x509_crt.c ****         return( -1 );
 284              		.loc 2 206 0
 285 0034 4FF0FF33 		mov	r3, #-1
 286 0038 27E0     		b	.L15
 287              	.L13:
 207:C:/Users/dtjld/workspace/AIoT/src/LiteOS_Lab/iot_link/network/dtls/mbedtls/mbedtls-2.16.2/library\x509_crt.c ****     }
 208:C:/Users/dtjld/workspace/AIoT/src/LiteOS_Lab/iot_link/network/dtls/mbedtls/mbedtls-2.16.2/library\x509_crt.c **** #endif
 209:C:/Users/dtjld/workspace/AIoT/src/LiteOS_Lab/iot_link/network/dtls/mbedtls/mbedtls-2.16.2/library\x509_crt.c **** 
 210:C:/Users/dtjld/workspace/AIoT/src/LiteOS_Lab/iot_link/network/dtls/mbedtls/mbedtls-2.16.2/library\x509_crt.c **** #if defined(MBEDTLS_ECP_C)
 211:C:/Users/dtjld/workspace/AIoT/src/LiteOS_Lab/iot_link/network/dtls/mbedtls/mbedtls-2.16.2/library\x509_crt.c ****     if( pk_alg == MBEDTLS_PK_ECDSA ||
 288              		.loc 2 211 0
 289 003a FB7B     		ldrb	r3, [r7, #15]	@ zero_extendqisi2
 290 003c 042B     		cmp	r3, #4
 291 003e 05D0     		beq	.L16
 292              		.loc 2 211 0 is_stmt 0 discriminator 1
 293 0040 FB7B     		ldrb	r3, [r7, #15]	@ zero_extendqisi2
 294 0042 022B     		cmp	r3, #2
 295 0044 02D0     		beq	.L16
 212:C:/Users/dtjld/workspace/AIoT/src/LiteOS_Lab/iot_link/network/dtls/mbedtls/mbedtls-2.16.2/library\x509_crt.c ****         pk_alg == MBEDTLS_PK_ECKEY ||
 296              		.loc 2 212 0 is_stmt 1
 297 0046 FB7B     		ldrb	r3, [r7, #15]	@ zero_extendqisi2
 298 0048 032B     		cmp	r3, #3
 299 004a 1CD1     		bne	.L17
 300              	.L16:
 301              	.LBB2:
 213:C:/Users/dtjld/workspace/AIoT/src/LiteOS_Lab/iot_link/network/dtls/mbedtls/mbedtls-2.16.2/library\x509_crt.c ****         pk_alg == MBEDTLS_PK_ECKEY_DH )
 214:C:/Users/dtjld/workspace/AIoT/src/LiteOS_Lab/iot_link/network/dtls/mbedtls/mbedtls-2.16.2/library\x509_crt.c ****     {
 215:C:/Users/dtjld/workspace/AIoT/src/LiteOS_Lab/iot_link/network/dtls/mbedtls/mbedtls-2.16.2/library\x509_crt.c ****         const mbedtls_ecp_group_id gid = mbedtls_pk_ec( *pk )->grp.id;
 302              		.loc 2 215 0
 303 004c 3B68     		ldr	r3, [r7]
 304 004e 93E80300 		ldm	r3, {r0, r1}
 305 0052 FFF7FEFF 		bl	mbedtls_pk_ec
 306 0056 0346     		mov	r3, r0
 307 0058 1B78     		ldrb	r3, [r3]
 308 005a BB73     		strb	r3, [r7, #14]
 216:C:/Users/dtjld/workspace/AIoT/src/LiteOS_Lab/iot_link/network/dtls/mbedtls/mbedtls-2.16.2/library\x509_crt.c **** 
ARM GAS  C:\Users\dtjld\AppData\Local\Temp\ccTXdst3.s 			page 13


 217:C:/Users/dtjld/workspace/AIoT/src/LiteOS_Lab/iot_link/network/dtls/mbedtls/mbedtls-2.16.2/library\x509_crt.c ****         if( gid == MBEDTLS_ECP_DP_NONE )
 309              		.loc 2 217 0
 310 005c BB7B     		ldrb	r3, [r7, #14]	@ zero_extendqisi2
 311 005e 002B     		cmp	r3, #0
 312 0060 02D1     		bne	.L18
 218:C:/Users/dtjld/workspace/AIoT/src/LiteOS_Lab/iot_link/network/dtls/mbedtls/mbedtls-2.16.2/library\x509_crt.c ****             return( -1 );
 313              		.loc 2 218 0
 314 0062 4FF0FF33 		mov	r3, #-1
 315 0066 10E0     		b	.L15
 316              	.L18:
 219:C:/Users/dtjld/workspace/AIoT/src/LiteOS_Lab/iot_link/network/dtls/mbedtls/mbedtls-2.16.2/library\x509_crt.c **** 
 220:C:/Users/dtjld/workspace/AIoT/src/LiteOS_Lab/iot_link/network/dtls/mbedtls/mbedtls-2.16.2/library\x509_crt.c ****         if( ( profile->allowed_curves & MBEDTLS_X509_ID_FLAG( gid ) ) != 0 )
 317              		.loc 2 220 0
 318 0068 7B68     		ldr	r3, [r7, #4]
 319 006a 9B68     		ldr	r3, [r3, #8]
 320 006c BA7B     		ldrb	r2, [r7, #14]	@ zero_extendqisi2
 321 006e 013A     		subs	r2, r2, #1
 322 0070 0121     		movs	r1, #1
 323 0072 01FA02F2 		lsl	r2, r1, r2
 324 0076 1340     		ands	r3, r3, r2
 325 0078 002B     		cmp	r3, #0
 326 007a 01D0     		beq	.L19
 221:C:/Users/dtjld/workspace/AIoT/src/LiteOS_Lab/iot_link/network/dtls/mbedtls/mbedtls-2.16.2/library\x509_crt.c ****             return( 0 );
 327              		.loc 2 221 0
 328 007c 0023     		movs	r3, #0
 329 007e 04E0     		b	.L15
 330              	.L19:
 222:C:/Users/dtjld/workspace/AIoT/src/LiteOS_Lab/iot_link/network/dtls/mbedtls/mbedtls-2.16.2/library\x509_crt.c **** 
 223:C:/Users/dtjld/workspace/AIoT/src/LiteOS_Lab/iot_link/network/dtls/mbedtls/mbedtls-2.16.2/library\x509_crt.c ****         return( -1 );
 331              		.loc 2 223 0
 332 0080 4FF0FF33 		mov	r3, #-1
 333 0084 01E0     		b	.L15
 334              	.L17:
 335              	.LBE2:
 224:C:/Users/dtjld/workspace/AIoT/src/LiteOS_Lab/iot_link/network/dtls/mbedtls/mbedtls-2.16.2/library\x509_crt.c ****     }
 225:C:/Users/dtjld/workspace/AIoT/src/LiteOS_Lab/iot_link/network/dtls/mbedtls/mbedtls-2.16.2/library\x509_crt.c **** #endif
 226:C:/Users/dtjld/workspace/AIoT/src/LiteOS_Lab/iot_link/network/dtls/mbedtls/mbedtls-2.16.2/library\x509_crt.c **** 
 227:C:/Users/dtjld/workspace/AIoT/src/LiteOS_Lab/iot_link/network/dtls/mbedtls/mbedtls-2.16.2/library\x509_crt.c ****     return( -1 );
 336              		.loc 2 227 0
 337 0086 4FF0FF33 		mov	r3, #-1
 338              	.L15:
 228:C:/Users/dtjld/workspace/AIoT/src/LiteOS_Lab/iot_link/network/dtls/mbedtls/mbedtls-2.16.2/library\x509_crt.c **** }
 339              		.loc 2 228 0
 340 008a 1846     		mov	r0, r3
 341 008c 1037     		adds	r7, r7, #16
 342              	.LCFI21:
 343              		.cfi_def_cfa_offset 8
 344 008e BD46     		mov	sp, r7
 345              	.LCFI22:
 346              		.cfi_def_cfa_register 13
 347              		@ sp needed
 348 0090 80BD     		pop	{r7, pc}
 349              		.cfi_endproc
 350              	.LFE15:
 352              		.section	.text.x509_memcasecmp,"ax",%progbits
 353              		.align	1
 354              		.syntax unified
ARM GAS  C:\Users\dtjld\AppData\Local\Temp\ccTXdst3.s 			page 14


 355              		.thumb
 356              		.thumb_func
 357              		.fpu fpv4-sp-d16
 359              	x509_memcasecmp:
 360              	.LFB16:
 229:C:/Users/dtjld/workspace/AIoT/src/LiteOS_Lab/iot_link/network/dtls/mbedtls/mbedtls-2.16.2/library\x509_crt.c **** 
 230:C:/Users/dtjld/workspace/AIoT/src/LiteOS_Lab/iot_link/network/dtls/mbedtls/mbedtls-2.16.2/library\x509_crt.c **** /*
 231:C:/Users/dtjld/workspace/AIoT/src/LiteOS_Lab/iot_link/network/dtls/mbedtls/mbedtls-2.16.2/library\x509_crt.c ****  * Like memcmp, but case-insensitive and always returns -1 if different
 232:C:/Users/dtjld/workspace/AIoT/src/LiteOS_Lab/iot_link/network/dtls/mbedtls/mbedtls-2.16.2/library\x509_crt.c ****  */
 233:C:/Users/dtjld/workspace/AIoT/src/LiteOS_Lab/iot_link/network/dtls/mbedtls/mbedtls-2.16.2/library\x509_crt.c **** static int x509_memcasecmp( const void *s1, const void *s2, size_t len )
 234:C:/Users/dtjld/workspace/AIoT/src/LiteOS_Lab/iot_link/network/dtls/mbedtls/mbedtls-2.16.2/library\x509_crt.c **** {
 361              		.loc 2 234 0
 362              		.cfi_startproc
 363              		@ args = 0, pretend = 0, frame = 32
 364              		@ frame_needed = 1, uses_anonymous_args = 0
 365              		@ link register save eliminated.
 366 0000 80B4     		push	{r7}
 367              	.LCFI23:
 368              		.cfi_def_cfa_offset 4
 369              		.cfi_offset 7, -4
 370 0002 89B0     		sub	sp, sp, #36
 371              	.LCFI24:
 372              		.cfi_def_cfa_offset 40
 373 0004 00AF     		add	r7, sp, #0
 374              	.LCFI25:
 375              		.cfi_def_cfa_register 7
 376 0006 F860     		str	r0, [r7, #12]
 377 0008 B960     		str	r1, [r7, #8]
 378 000a 7A60     		str	r2, [r7, #4]
 235:C:/Users/dtjld/workspace/AIoT/src/LiteOS_Lab/iot_link/network/dtls/mbedtls/mbedtls-2.16.2/library\x509_crt.c ****     size_t i;
 236:C:/Users/dtjld/workspace/AIoT/src/LiteOS_Lab/iot_link/network/dtls/mbedtls/mbedtls-2.16.2/library\x509_crt.c ****     unsigned char diff;
 237:C:/Users/dtjld/workspace/AIoT/src/LiteOS_Lab/iot_link/network/dtls/mbedtls/mbedtls-2.16.2/library\x509_crt.c ****     const unsigned char *n1 = s1, *n2 = s2;
 379              		.loc 2 237 0
 380 000c FB68     		ldr	r3, [r7, #12]
 381 000e BB61     		str	r3, [r7, #24]
 382 0010 BB68     		ldr	r3, [r7, #8]
 383 0012 7B61     		str	r3, [r7, #20]
 238:C:/Users/dtjld/workspace/AIoT/src/LiteOS_Lab/iot_link/network/dtls/mbedtls/mbedtls-2.16.2/library\x509_crt.c **** 
 239:C:/Users/dtjld/workspace/AIoT/src/LiteOS_Lab/iot_link/network/dtls/mbedtls/mbedtls-2.16.2/library\x509_crt.c ****     for( i = 0; i < len; i++ )
 384              		.loc 2 239 0
 385 0014 0023     		movs	r3, #0
 386 0016 FB61     		str	r3, [r7, #28]
 387 0018 30E0     		b	.L21
 388              	.L28:
 240:C:/Users/dtjld/workspace/AIoT/src/LiteOS_Lab/iot_link/network/dtls/mbedtls/mbedtls-2.16.2/library\x509_crt.c ****     {
 241:C:/Users/dtjld/workspace/AIoT/src/LiteOS_Lab/iot_link/network/dtls/mbedtls/mbedtls-2.16.2/library\x509_crt.c ****         diff = n1[i] ^ n2[i];
 389              		.loc 2 241 0
 390 001a BA69     		ldr	r2, [r7, #24]
 391 001c FB69     		ldr	r3, [r7, #28]
 392 001e 1344     		add	r3, r3, r2
 393 0020 1A78     		ldrb	r2, [r3]	@ zero_extendqisi2
 394 0022 7969     		ldr	r1, [r7, #20]
 395 0024 FB69     		ldr	r3, [r7, #28]
 396 0026 0B44     		add	r3, r3, r1
 397 0028 1B78     		ldrb	r3, [r3]	@ zero_extendqisi2
 398 002a 5340     		eors	r3, r3, r2
 399 002c FB74     		strb	r3, [r7, #19]
ARM GAS  C:\Users\dtjld\AppData\Local\Temp\ccTXdst3.s 			page 15


 242:C:/Users/dtjld/workspace/AIoT/src/LiteOS_Lab/iot_link/network/dtls/mbedtls/mbedtls-2.16.2/library\x509_crt.c **** 
 243:C:/Users/dtjld/workspace/AIoT/src/LiteOS_Lab/iot_link/network/dtls/mbedtls/mbedtls-2.16.2/library\x509_crt.c ****         if( diff == 0 )
 400              		.loc 2 243 0
 401 002e FB7C     		ldrb	r3, [r7, #19]	@ zero_extendqisi2
 402 0030 002B     		cmp	r3, #0
 403 0032 1DD0     		beq	.L29
 244:C:/Users/dtjld/workspace/AIoT/src/LiteOS_Lab/iot_link/network/dtls/mbedtls/mbedtls-2.16.2/library\x509_crt.c ****             continue;
 245:C:/Users/dtjld/workspace/AIoT/src/LiteOS_Lab/iot_link/network/dtls/mbedtls/mbedtls-2.16.2/library\x509_crt.c **** 
 246:C:/Users/dtjld/workspace/AIoT/src/LiteOS_Lab/iot_link/network/dtls/mbedtls/mbedtls-2.16.2/library\x509_crt.c ****         if( diff == 32 &&
 404              		.loc 2 246 0
 405 0034 FB7C     		ldrb	r3, [r7, #19]	@ zero_extendqisi2
 406 0036 202B     		cmp	r3, #32
 407 0038 17D1     		bne	.L24
 247:C:/Users/dtjld/workspace/AIoT/src/LiteOS_Lab/iot_link/network/dtls/mbedtls/mbedtls-2.16.2/library\x509_crt.c ****             ( ( n1[i] >= 'a' && n1[i] <= 'z' ) ||
 408              		.loc 2 247 0 discriminator 1
 409 003a BA69     		ldr	r2, [r7, #24]
 410 003c FB69     		ldr	r3, [r7, #28]
 411 003e 1344     		add	r3, r3, r2
 412 0040 1B78     		ldrb	r3, [r3]	@ zero_extendqisi2
 246:C:/Users/dtjld/workspace/AIoT/src/LiteOS_Lab/iot_link/network/dtls/mbedtls/mbedtls-2.16.2/library\x509_crt.c ****             ( ( n1[i] >= 'a' && n1[i] <= 'z' ) ||
 413              		.loc 2 246 0 discriminator 1
 414 0042 602B     		cmp	r3, #96
 415 0044 05D9     		bls	.L25
 416              		.loc 2 247 0
 417 0046 BA69     		ldr	r2, [r7, #24]
 418 0048 FB69     		ldr	r3, [r7, #28]
 419 004a 1344     		add	r3, r3, r2
 420 004c 1B78     		ldrb	r3, [r3]	@ zero_extendqisi2
 421 004e 7A2B     		cmp	r3, #122
 422 0050 10D9     		bls	.L30
 423              	.L25:
 248:C:/Users/dtjld/workspace/AIoT/src/LiteOS_Lab/iot_link/network/dtls/mbedtls/mbedtls-2.16.2/library\x509_crt.c ****               ( n1[i] >= 'A' && n1[i] <= 'Z' ) ) )
 424              		.loc 2 248 0 discriminator 1
 425 0052 BA69     		ldr	r2, [r7, #24]
 426 0054 FB69     		ldr	r3, [r7, #28]
 427 0056 1344     		add	r3, r3, r2
 428 0058 1B78     		ldrb	r3, [r3]	@ zero_extendqisi2
 247:C:/Users/dtjld/workspace/AIoT/src/LiteOS_Lab/iot_link/network/dtls/mbedtls/mbedtls-2.16.2/library\x509_crt.c ****             ( ( n1[i] >= 'a' && n1[i] <= 'z' ) ||
 429              		.loc 2 247 0 discriminator 1
 430 005a 402B     		cmp	r3, #64
 431 005c 05D9     		bls	.L24
 432              		.loc 2 248 0
 433 005e BA69     		ldr	r2, [r7, #24]
 434 0060 FB69     		ldr	r3, [r7, #28]
 435 0062 1344     		add	r3, r3, r2
 436 0064 1B78     		ldrb	r3, [r3]	@ zero_extendqisi2
 437 0066 5A2B     		cmp	r3, #90
 438 0068 04D9     		bls	.L30
 439              	.L24:
 249:C:/Users/dtjld/workspace/AIoT/src/LiteOS_Lab/iot_link/network/dtls/mbedtls/mbedtls-2.16.2/library\x509_crt.c ****         {
 250:C:/Users/dtjld/workspace/AIoT/src/LiteOS_Lab/iot_link/network/dtls/mbedtls/mbedtls-2.16.2/library\x509_crt.c ****             continue;
 251:C:/Users/dtjld/workspace/AIoT/src/LiteOS_Lab/iot_link/network/dtls/mbedtls/mbedtls-2.16.2/library\x509_crt.c ****         }
 252:C:/Users/dtjld/workspace/AIoT/src/LiteOS_Lab/iot_link/network/dtls/mbedtls/mbedtls-2.16.2/library\x509_crt.c **** 
 253:C:/Users/dtjld/workspace/AIoT/src/LiteOS_Lab/iot_link/network/dtls/mbedtls/mbedtls-2.16.2/library\x509_crt.c ****         return( -1 );
 440              		.loc 2 253 0
 441 006a 4FF0FF33 		mov	r3, #-1
 442 006e 0AE0     		b	.L27
ARM GAS  C:\Users\dtjld\AppData\Local\Temp\ccTXdst3.s 			page 16


 443              	.L29:
 244:C:/Users/dtjld/workspace/AIoT/src/LiteOS_Lab/iot_link/network/dtls/mbedtls/mbedtls-2.16.2/library\x509_crt.c **** 
 444              		.loc 2 244 0
 445 0070 00BF     		nop
 446 0072 00E0     		b	.L23
 447              	.L30:
 250:C:/Users/dtjld/workspace/AIoT/src/LiteOS_Lab/iot_link/network/dtls/mbedtls/mbedtls-2.16.2/library\x509_crt.c ****         }
 448              		.loc 2 250 0
 449 0074 00BF     		nop
 450              	.L23:
 239:C:/Users/dtjld/workspace/AIoT/src/LiteOS_Lab/iot_link/network/dtls/mbedtls/mbedtls-2.16.2/library\x509_crt.c ****     {
 451              		.loc 2 239 0 discriminator 2
 452 0076 FB69     		ldr	r3, [r7, #28]
 453 0078 0133     		adds	r3, r3, #1
 454 007a FB61     		str	r3, [r7, #28]
 455              	.L21:
 239:C:/Users/dtjld/workspace/AIoT/src/LiteOS_Lab/iot_link/network/dtls/mbedtls/mbedtls-2.16.2/library\x509_crt.c ****     {
 456              		.loc 2 239 0 is_stmt 0 discriminator 1
 457 007c FA69     		ldr	r2, [r7, #28]
 458 007e 7B68     		ldr	r3, [r7, #4]
 459 0080 9A42     		cmp	r2, r3
 460 0082 CAD3     		bcc	.L28
 254:C:/Users/dtjld/workspace/AIoT/src/LiteOS_Lab/iot_link/network/dtls/mbedtls/mbedtls-2.16.2/library\x509_crt.c ****     }
 255:C:/Users/dtjld/workspace/AIoT/src/LiteOS_Lab/iot_link/network/dtls/mbedtls/mbedtls-2.16.2/library\x509_crt.c **** 
 256:C:/Users/dtjld/workspace/AIoT/src/LiteOS_Lab/iot_link/network/dtls/mbedtls/mbedtls-2.16.2/library\x509_crt.c ****     return( 0 );
 461              		.loc 2 256 0 is_stmt 1
 462 0084 0023     		movs	r3, #0
 463              	.L27:
 257:C:/Users/dtjld/workspace/AIoT/src/LiteOS_Lab/iot_link/network/dtls/mbedtls/mbedtls-2.16.2/library\x509_crt.c **** }
 464              		.loc 2 257 0
 465 0086 1846     		mov	r0, r3
 466 0088 2437     		adds	r7, r7, #36
 467              	.LCFI26:
 468              		.cfi_def_cfa_offset 4
 469 008a BD46     		mov	sp, r7
 470              	.LCFI27:
 471              		.cfi_def_cfa_register 13
 472              		@ sp needed
 473 008c 5DF8047B 		ldr	r7, [sp], #4
 474              	.LCFI28:
 475              		.cfi_restore 7
 476              		.cfi_def_cfa_offset 0
 477 0090 7047     		bx	lr
 478              		.cfi_endproc
 479              	.LFE16:
 481              		.section	.text.x509_check_wildcard,"ax",%progbits
 482              		.align	1
 483              		.syntax unified
 484              		.thumb
 485              		.thumb_func
 486              		.fpu fpv4-sp-d16
 488              	x509_check_wildcard:
 489              	.LFB17:
 258:C:/Users/dtjld/workspace/AIoT/src/LiteOS_Lab/iot_link/network/dtls/mbedtls/mbedtls-2.16.2/library\x509_crt.c **** 
 259:C:/Users/dtjld/workspace/AIoT/src/LiteOS_Lab/iot_link/network/dtls/mbedtls/mbedtls-2.16.2/library\x509_crt.c **** /*
 260:C:/Users/dtjld/workspace/AIoT/src/LiteOS_Lab/iot_link/network/dtls/mbedtls/mbedtls-2.16.2/library\x509_crt.c ****  * Return 0 if name matches wildcard, -1 otherwise
 261:C:/Users/dtjld/workspace/AIoT/src/LiteOS_Lab/iot_link/network/dtls/mbedtls/mbedtls-2.16.2/library\x509_crt.c ****  */
ARM GAS  C:\Users\dtjld\AppData\Local\Temp\ccTXdst3.s 			page 17


 262:C:/Users/dtjld/workspace/AIoT/src/LiteOS_Lab/iot_link/network/dtls/mbedtls/mbedtls-2.16.2/library\x509_crt.c **** static int x509_check_wildcard( const char *cn, const mbedtls_x509_buf *name )
 263:C:/Users/dtjld/workspace/AIoT/src/LiteOS_Lab/iot_link/network/dtls/mbedtls/mbedtls-2.16.2/library\x509_crt.c **** {
 490              		.loc 2 263 0
 491              		.cfi_startproc
 492              		@ args = 0, pretend = 0, frame = 24
 493              		@ frame_needed = 1, uses_anonymous_args = 0
 494 0000 80B5     		push	{r7, lr}
 495              	.LCFI29:
 496              		.cfi_def_cfa_offset 8
 497              		.cfi_offset 7, -8
 498              		.cfi_offset 14, -4
 499 0002 86B0     		sub	sp, sp, #24
 500              	.LCFI30:
 501              		.cfi_def_cfa_offset 32
 502 0004 00AF     		add	r7, sp, #0
 503              	.LCFI31:
 504              		.cfi_def_cfa_register 7
 505 0006 7860     		str	r0, [r7, #4]
 506 0008 3960     		str	r1, [r7]
 264:C:/Users/dtjld/workspace/AIoT/src/LiteOS_Lab/iot_link/network/dtls/mbedtls/mbedtls-2.16.2/library\x509_crt.c ****     size_t i;
 265:C:/Users/dtjld/workspace/AIoT/src/LiteOS_Lab/iot_link/network/dtls/mbedtls/mbedtls-2.16.2/library\x509_crt.c ****     size_t cn_idx = 0, cn_len = strlen( cn );
 507              		.loc 2 265 0
 508 000a 0023     		movs	r3, #0
 509 000c 3B61     		str	r3, [r7, #16]
 510 000e 7868     		ldr	r0, [r7, #4]
 511 0010 FFF7FEFF 		bl	strlen
 512 0014 F860     		str	r0, [r7, #12]
 266:C:/Users/dtjld/workspace/AIoT/src/LiteOS_Lab/iot_link/network/dtls/mbedtls/mbedtls-2.16.2/library\x509_crt.c **** 
 267:C:/Users/dtjld/workspace/AIoT/src/LiteOS_Lab/iot_link/network/dtls/mbedtls/mbedtls-2.16.2/library\x509_crt.c ****     /* We can't have a match if there is no wildcard to match */
 268:C:/Users/dtjld/workspace/AIoT/src/LiteOS_Lab/iot_link/network/dtls/mbedtls/mbedtls-2.16.2/library\x509_crt.c ****     if( name->len < 3 || name->p[0] != '*' || name->p[1] != '.' )
 513              		.loc 2 268 0
 514 0016 3B68     		ldr	r3, [r7]
 515 0018 5B68     		ldr	r3, [r3, #4]
 516 001a 022B     		cmp	r3, #2
 517 001c 0AD9     		bls	.L32
 518              		.loc 2 268 0 is_stmt 0 discriminator 1
 519 001e 3B68     		ldr	r3, [r7]
 520 0020 9B68     		ldr	r3, [r3, #8]
 521 0022 1B78     		ldrb	r3, [r3]	@ zero_extendqisi2
 522 0024 2A2B     		cmp	r3, #42
 523 0026 05D1     		bne	.L32
 524              		.loc 2 268 0 discriminator 2
 525 0028 3B68     		ldr	r3, [r7]
 526 002a 9B68     		ldr	r3, [r3, #8]
 527 002c 0133     		adds	r3, r3, #1
 528 002e 1B78     		ldrb	r3, [r3]	@ zero_extendqisi2
 529 0030 2E2B     		cmp	r3, #46
 530 0032 02D0     		beq	.L33
 531              	.L32:
 269:C:/Users/dtjld/workspace/AIoT/src/LiteOS_Lab/iot_link/network/dtls/mbedtls/mbedtls-2.16.2/library\x509_crt.c ****         return( -1 );
 532              		.loc 2 269 0 is_stmt 1
 533 0034 4FF0FF33 		mov	r3, #-1
 534 0038 33E0     		b	.L34
 535              	.L33:
 270:C:/Users/dtjld/workspace/AIoT/src/LiteOS_Lab/iot_link/network/dtls/mbedtls/mbedtls-2.16.2/library\x509_crt.c **** 
 271:C:/Users/dtjld/workspace/AIoT/src/LiteOS_Lab/iot_link/network/dtls/mbedtls/mbedtls-2.16.2/library\x509_crt.c ****     for( i = 0; i < cn_len; ++i )
 536              		.loc 2 271 0
ARM GAS  C:\Users\dtjld\AppData\Local\Temp\ccTXdst3.s 			page 18


 537 003a 0023     		movs	r3, #0
 538 003c 7B61     		str	r3, [r7, #20]
 539 003e 0BE0     		b	.L35
 540              	.L38:
 272:C:/Users/dtjld/workspace/AIoT/src/LiteOS_Lab/iot_link/network/dtls/mbedtls/mbedtls-2.16.2/library\x509_crt.c ****     {
 273:C:/Users/dtjld/workspace/AIoT/src/LiteOS_Lab/iot_link/network/dtls/mbedtls/mbedtls-2.16.2/library\x509_crt.c ****         if( cn[i] == '.' )
 541              		.loc 2 273 0
 542 0040 7A68     		ldr	r2, [r7, #4]
 543 0042 7B69     		ldr	r3, [r7, #20]
 544 0044 1344     		add	r3, r3, r2
 545 0046 1B78     		ldrb	r3, [r3]	@ zero_extendqisi2
 546 0048 2E2B     		cmp	r3, #46
 547 004a 02D1     		bne	.L36
 274:C:/Users/dtjld/workspace/AIoT/src/LiteOS_Lab/iot_link/network/dtls/mbedtls/mbedtls-2.16.2/library\x509_crt.c ****         {
 275:C:/Users/dtjld/workspace/AIoT/src/LiteOS_Lab/iot_link/network/dtls/mbedtls/mbedtls-2.16.2/library\x509_crt.c ****             cn_idx = i;
 548              		.loc 2 275 0
 549 004c 7B69     		ldr	r3, [r7, #20]
 550 004e 3B61     		str	r3, [r7, #16]
 276:C:/Users/dtjld/workspace/AIoT/src/LiteOS_Lab/iot_link/network/dtls/mbedtls/mbedtls-2.16.2/library\x509_crt.c ****             break;
 551              		.loc 2 276 0
 552 0050 06E0     		b	.L37
 553              	.L36:
 271:C:/Users/dtjld/workspace/AIoT/src/LiteOS_Lab/iot_link/network/dtls/mbedtls/mbedtls-2.16.2/library\x509_crt.c ****     {
 554              		.loc 2 271 0 discriminator 2
 555 0052 7B69     		ldr	r3, [r7, #20]
 556 0054 0133     		adds	r3, r3, #1
 557 0056 7B61     		str	r3, [r7, #20]
 558              	.L35:
 271:C:/Users/dtjld/workspace/AIoT/src/LiteOS_Lab/iot_link/network/dtls/mbedtls/mbedtls-2.16.2/library\x509_crt.c ****     {
 559              		.loc 2 271 0 is_stmt 0 discriminator 1
 560 0058 7A69     		ldr	r2, [r7, #20]
 561 005a FB68     		ldr	r3, [r7, #12]
 562 005c 9A42     		cmp	r2, r3
 563 005e EFD3     		bcc	.L38
 564              	.L37:
 277:C:/Users/dtjld/workspace/AIoT/src/LiteOS_Lab/iot_link/network/dtls/mbedtls/mbedtls-2.16.2/library\x509_crt.c ****         }
 278:C:/Users/dtjld/workspace/AIoT/src/LiteOS_Lab/iot_link/network/dtls/mbedtls/mbedtls-2.16.2/library\x509_crt.c ****     }
 279:C:/Users/dtjld/workspace/AIoT/src/LiteOS_Lab/iot_link/network/dtls/mbedtls/mbedtls-2.16.2/library\x509_crt.c **** 
 280:C:/Users/dtjld/workspace/AIoT/src/LiteOS_Lab/iot_link/network/dtls/mbedtls/mbedtls-2.16.2/library\x509_crt.c ****     if( cn_idx == 0 )
 565              		.loc 2 280 0 is_stmt 1
 566 0060 3B69     		ldr	r3, [r7, #16]
 567 0062 002B     		cmp	r3, #0
 568 0064 02D1     		bne	.L39
 281:C:/Users/dtjld/workspace/AIoT/src/LiteOS_Lab/iot_link/network/dtls/mbedtls/mbedtls-2.16.2/library\x509_crt.c ****         return( -1 );
 569              		.loc 2 281 0
 570 0066 4FF0FF33 		mov	r3, #-1
 571 006a 1AE0     		b	.L34
 572              	.L39:
 282:C:/Users/dtjld/workspace/AIoT/src/LiteOS_Lab/iot_link/network/dtls/mbedtls/mbedtls-2.16.2/library\x509_crt.c **** 
 283:C:/Users/dtjld/workspace/AIoT/src/LiteOS_Lab/iot_link/network/dtls/mbedtls/mbedtls-2.16.2/library\x509_crt.c ****     if( cn_len - cn_idx == name->len - 1 &&
 573              		.loc 2 283 0
 574 006c FA68     		ldr	r2, [r7, #12]
 575 006e 3B69     		ldr	r3, [r7, #16]
 576 0070 D21A     		subs	r2, r2, r3
 577 0072 3B68     		ldr	r3, [r7]
 578 0074 5B68     		ldr	r3, [r3, #4]
 579 0076 013B     		subs	r3, r3, #1
ARM GAS  C:\Users\dtjld\AppData\Local\Temp\ccTXdst3.s 			page 19


 580 0078 9A42     		cmp	r2, r3
 581 007a 10D1     		bne	.L40
 284:C:/Users/dtjld/workspace/AIoT/src/LiteOS_Lab/iot_link/network/dtls/mbedtls/mbedtls-2.16.2/library\x509_crt.c ****         x509_memcasecmp( name->p + 1, cn + cn_idx, name->len - 1 ) == 0 )
 582              		.loc 2 284 0 discriminator 1
 583 007c 3B68     		ldr	r3, [r7]
 584 007e 9B68     		ldr	r3, [r3, #8]
 585 0080 581C     		adds	r0, r3, #1
 586 0082 7A68     		ldr	r2, [r7, #4]
 587 0084 3B69     		ldr	r3, [r7, #16]
 588 0086 D118     		adds	r1, r2, r3
 589 0088 3B68     		ldr	r3, [r7]
 590 008a 5B68     		ldr	r3, [r3, #4]
 591 008c 013B     		subs	r3, r3, #1
 592 008e 1A46     		mov	r2, r3
 593 0090 FFF7FEFF 		bl	x509_memcasecmp
 594 0094 0346     		mov	r3, r0
 283:C:/Users/dtjld/workspace/AIoT/src/LiteOS_Lab/iot_link/network/dtls/mbedtls/mbedtls-2.16.2/library\x509_crt.c ****         x509_memcasecmp( name->p + 1, cn + cn_idx, name->len - 1 ) == 0 )
 595              		.loc 2 283 0 discriminator 1
 596 0096 002B     		cmp	r3, #0
 597 0098 01D1     		bne	.L40
 285:C:/Users/dtjld/workspace/AIoT/src/LiteOS_Lab/iot_link/network/dtls/mbedtls/mbedtls-2.16.2/library\x509_crt.c ****     {
 286:C:/Users/dtjld/workspace/AIoT/src/LiteOS_Lab/iot_link/network/dtls/mbedtls/mbedtls-2.16.2/library\x509_crt.c ****         return( 0 );
 598              		.loc 2 286 0
 599 009a 0023     		movs	r3, #0
 600 009c 01E0     		b	.L34
 601              	.L40:
 287:C:/Users/dtjld/workspace/AIoT/src/LiteOS_Lab/iot_link/network/dtls/mbedtls/mbedtls-2.16.2/library\x509_crt.c ****     }
 288:C:/Users/dtjld/workspace/AIoT/src/LiteOS_Lab/iot_link/network/dtls/mbedtls/mbedtls-2.16.2/library\x509_crt.c **** 
 289:C:/Users/dtjld/workspace/AIoT/src/LiteOS_Lab/iot_link/network/dtls/mbedtls/mbedtls-2.16.2/library\x509_crt.c ****     return( -1 );
 602              		.loc 2 289 0
 603 009e 4FF0FF33 		mov	r3, #-1
 604              	.L34:
 290:C:/Users/dtjld/workspace/AIoT/src/LiteOS_Lab/iot_link/network/dtls/mbedtls/mbedtls-2.16.2/library\x509_crt.c **** }
 605              		.loc 2 290 0
 606 00a2 1846     		mov	r0, r3
 607 00a4 1837     		adds	r7, r7, #24
 608              	.LCFI32:
 609              		.cfi_def_cfa_offset 8
 610 00a6 BD46     		mov	sp, r7
 611              	.LCFI33:
 612              		.cfi_def_cfa_register 13
 613              		@ sp needed
 614 00a8 80BD     		pop	{r7, pc}
 615              		.cfi_endproc
 616              	.LFE17:
 618              		.section	.text.x509_string_cmp,"ax",%progbits
 619              		.align	1
 620              		.syntax unified
 621              		.thumb
 622              		.thumb_func
 623              		.fpu fpv4-sp-d16
 625              	x509_string_cmp:
 626              	.LFB18:
 291:C:/Users/dtjld/workspace/AIoT/src/LiteOS_Lab/iot_link/network/dtls/mbedtls/mbedtls-2.16.2/library\x509_crt.c **** 
 292:C:/Users/dtjld/workspace/AIoT/src/LiteOS_Lab/iot_link/network/dtls/mbedtls/mbedtls-2.16.2/library\x509_crt.c **** /*
 293:C:/Users/dtjld/workspace/AIoT/src/LiteOS_Lab/iot_link/network/dtls/mbedtls/mbedtls-2.16.2/library\x509_crt.c ****  * Compare two X.509 strings, case-insensitive, and allowing for some encoding
 294:C:/Users/dtjld/workspace/AIoT/src/LiteOS_Lab/iot_link/network/dtls/mbedtls/mbedtls-2.16.2/library\x509_crt.c ****  * variations (but not all).
ARM GAS  C:\Users\dtjld\AppData\Local\Temp\ccTXdst3.s 			page 20


 295:C:/Users/dtjld/workspace/AIoT/src/LiteOS_Lab/iot_link/network/dtls/mbedtls/mbedtls-2.16.2/library\x509_crt.c ****  *
 296:C:/Users/dtjld/workspace/AIoT/src/LiteOS_Lab/iot_link/network/dtls/mbedtls/mbedtls-2.16.2/library\x509_crt.c ****  * Return 0 if equal, -1 otherwise.
 297:C:/Users/dtjld/workspace/AIoT/src/LiteOS_Lab/iot_link/network/dtls/mbedtls/mbedtls-2.16.2/library\x509_crt.c ****  */
 298:C:/Users/dtjld/workspace/AIoT/src/LiteOS_Lab/iot_link/network/dtls/mbedtls/mbedtls-2.16.2/library\x509_crt.c **** static int x509_string_cmp( const mbedtls_x509_buf *a, const mbedtls_x509_buf *b )
 299:C:/Users/dtjld/workspace/AIoT/src/LiteOS_Lab/iot_link/network/dtls/mbedtls/mbedtls-2.16.2/library\x509_crt.c **** {
 627              		.loc 2 299 0
 628              		.cfi_startproc
 629              		@ args = 0, pretend = 0, frame = 8
 630              		@ frame_needed = 1, uses_anonymous_args = 0
 631 0000 80B5     		push	{r7, lr}
 632              	.LCFI34:
 633              		.cfi_def_cfa_offset 8
 634              		.cfi_offset 7, -8
 635              		.cfi_offset 14, -4
 636 0002 82B0     		sub	sp, sp, #8
 637              	.LCFI35:
 638              		.cfi_def_cfa_offset 16
 639 0004 00AF     		add	r7, sp, #0
 640              	.LCFI36:
 641              		.cfi_def_cfa_register 7
 642 0006 7860     		str	r0, [r7, #4]
 643 0008 3960     		str	r1, [r7]
 300:C:/Users/dtjld/workspace/AIoT/src/LiteOS_Lab/iot_link/network/dtls/mbedtls/mbedtls-2.16.2/library\x509_crt.c ****     if( a->tag == b->tag &&
 644              		.loc 2 300 0
 645 000a 7B68     		ldr	r3, [r7, #4]
 646 000c 1A68     		ldr	r2, [r3]
 647 000e 3B68     		ldr	r3, [r7]
 648 0010 1B68     		ldr	r3, [r3]
 649 0012 9A42     		cmp	r2, r3
 650 0014 13D1     		bne	.L42
 301:C:/Users/dtjld/workspace/AIoT/src/LiteOS_Lab/iot_link/network/dtls/mbedtls/mbedtls-2.16.2/library\x509_crt.c ****         a->len == b->len &&
 651              		.loc 2 301 0 discriminator 1
 652 0016 7B68     		ldr	r3, [r7, #4]
 653 0018 5A68     		ldr	r2, [r3, #4]
 654 001a 3B68     		ldr	r3, [r7]
 655 001c 5B68     		ldr	r3, [r3, #4]
 300:C:/Users/dtjld/workspace/AIoT/src/LiteOS_Lab/iot_link/network/dtls/mbedtls/mbedtls-2.16.2/library\x509_crt.c ****     if( a->tag == b->tag &&
 656              		.loc 2 300 0 discriminator 1
 657 001e 9A42     		cmp	r2, r3
 658 0020 0DD1     		bne	.L42
 302:C:/Users/dtjld/workspace/AIoT/src/LiteOS_Lab/iot_link/network/dtls/mbedtls/mbedtls-2.16.2/library\x509_crt.c ****         memcmp( a->p, b->p, b->len ) == 0 )
 659              		.loc 2 302 0
 660 0022 7B68     		ldr	r3, [r7, #4]
 661 0024 9868     		ldr	r0, [r3, #8]
 662 0026 3B68     		ldr	r3, [r7]
 663 0028 9968     		ldr	r1, [r3, #8]
 664 002a 3B68     		ldr	r3, [r7]
 665 002c 5B68     		ldr	r3, [r3, #4]
 666 002e 1A46     		mov	r2, r3
 667 0030 FFF7FEFF 		bl	memcmp
 668 0034 0346     		mov	r3, r0
 301:C:/Users/dtjld/workspace/AIoT/src/LiteOS_Lab/iot_link/network/dtls/mbedtls/mbedtls-2.16.2/library\x509_crt.c ****         a->len == b->len &&
 669              		.loc 2 301 0
 670 0036 002B     		cmp	r3, #0
 671 0038 01D1     		bne	.L42
 303:C:/Users/dtjld/workspace/AIoT/src/LiteOS_Lab/iot_link/network/dtls/mbedtls/mbedtls-2.16.2/library\x509_crt.c ****     {
 304:C:/Users/dtjld/workspace/AIoT/src/LiteOS_Lab/iot_link/network/dtls/mbedtls/mbedtls-2.16.2/library\x509_crt.c ****         return( 0 );
ARM GAS  C:\Users\dtjld\AppData\Local\Temp\ccTXdst3.s 			page 21


 672              		.loc 2 304 0
 673 003a 0023     		movs	r3, #0
 674 003c 25E0     		b	.L43
 675              	.L42:
 305:C:/Users/dtjld/workspace/AIoT/src/LiteOS_Lab/iot_link/network/dtls/mbedtls/mbedtls-2.16.2/library\x509_crt.c ****     }
 306:C:/Users/dtjld/workspace/AIoT/src/LiteOS_Lab/iot_link/network/dtls/mbedtls/mbedtls-2.16.2/library\x509_crt.c **** 
 307:C:/Users/dtjld/workspace/AIoT/src/LiteOS_Lab/iot_link/network/dtls/mbedtls/mbedtls-2.16.2/library\x509_crt.c ****     if( ( a->tag == MBEDTLS_ASN1_UTF8_STRING || a->tag == MBEDTLS_ASN1_PRINTABLE_STRING ) &&
 676              		.loc 2 307 0
 677 003e 7B68     		ldr	r3, [r7, #4]
 678 0040 1B68     		ldr	r3, [r3]
 679 0042 0C2B     		cmp	r3, #12
 680 0044 03D0     		beq	.L44
 681              		.loc 2 307 0 is_stmt 0 discriminator 2
 682 0046 7B68     		ldr	r3, [r7, #4]
 683 0048 1B68     		ldr	r3, [r3]
 684 004a 132B     		cmp	r3, #19
 685 004c 1BD1     		bne	.L45
 686              	.L44:
 308:C:/Users/dtjld/workspace/AIoT/src/LiteOS_Lab/iot_link/network/dtls/mbedtls/mbedtls-2.16.2/library\x509_crt.c ****         ( b->tag == MBEDTLS_ASN1_UTF8_STRING || b->tag == MBEDTLS_ASN1_PRINTABLE_STRING ) &&
 687              		.loc 2 308 0 is_stmt 1 discriminator 3
 688 004e 3B68     		ldr	r3, [r7]
 689 0050 1B68     		ldr	r3, [r3]
 307:C:/Users/dtjld/workspace/AIoT/src/LiteOS_Lab/iot_link/network/dtls/mbedtls/mbedtls-2.16.2/library\x509_crt.c ****         ( b->tag == MBEDTLS_ASN1_UTF8_STRING || b->tag == MBEDTLS_ASN1_PRINTABLE_STRING ) &&
 690              		.loc 2 307 0 discriminator 3
 691 0052 0C2B     		cmp	r3, #12
 692 0054 03D0     		beq	.L46
 693              		.loc 2 308 0
 694 0056 3B68     		ldr	r3, [r7]
 695 0058 1B68     		ldr	r3, [r3]
 696 005a 132B     		cmp	r3, #19
 697 005c 13D1     		bne	.L45
 698              	.L46:
 309:C:/Users/dtjld/workspace/AIoT/src/LiteOS_Lab/iot_link/network/dtls/mbedtls/mbedtls-2.16.2/library\x509_crt.c ****         a->len == b->len &&
 699              		.loc 2 309 0 discriminator 1
 700 005e 7B68     		ldr	r3, [r7, #4]
 701 0060 5A68     		ldr	r2, [r3, #4]
 702 0062 3B68     		ldr	r3, [r7]
 703 0064 5B68     		ldr	r3, [r3, #4]
 308:C:/Users/dtjld/workspace/AIoT/src/LiteOS_Lab/iot_link/network/dtls/mbedtls/mbedtls-2.16.2/library\x509_crt.c ****         ( b->tag == MBEDTLS_ASN1_UTF8_STRING || b->tag == MBEDTLS_ASN1_PRINTABLE_STRING ) &&
 704              		.loc 2 308 0 discriminator 1
 705 0066 9A42     		cmp	r2, r3
 706 0068 0DD1     		bne	.L45
 310:C:/Users/dtjld/workspace/AIoT/src/LiteOS_Lab/iot_link/network/dtls/mbedtls/mbedtls-2.16.2/library\x509_crt.c ****         x509_memcasecmp( a->p, b->p, b->len ) == 0 )
 707              		.loc 2 310 0
 708 006a 7B68     		ldr	r3, [r7, #4]
 709 006c 9868     		ldr	r0, [r3, #8]
 710 006e 3B68     		ldr	r3, [r7]
 711 0070 9968     		ldr	r1, [r3, #8]
 712 0072 3B68     		ldr	r3, [r7]
 713 0074 5B68     		ldr	r3, [r3, #4]
 714 0076 1A46     		mov	r2, r3
 715 0078 FFF7FEFF 		bl	x509_memcasecmp
 716 007c 0346     		mov	r3, r0
 309:C:/Users/dtjld/workspace/AIoT/src/LiteOS_Lab/iot_link/network/dtls/mbedtls/mbedtls-2.16.2/library\x509_crt.c ****         a->len == b->len &&
 717              		.loc 2 309 0
 718 007e 002B     		cmp	r3, #0
 719 0080 01D1     		bne	.L45
ARM GAS  C:\Users\dtjld\AppData\Local\Temp\ccTXdst3.s 			page 22


 311:C:/Users/dtjld/workspace/AIoT/src/LiteOS_Lab/iot_link/network/dtls/mbedtls/mbedtls-2.16.2/library\x509_crt.c ****     {
 312:C:/Users/dtjld/workspace/AIoT/src/LiteOS_Lab/iot_link/network/dtls/mbedtls/mbedtls-2.16.2/library\x509_crt.c ****         return( 0 );
 720              		.loc 2 312 0
 721 0082 0023     		movs	r3, #0
 722 0084 01E0     		b	.L43
 723              	.L45:
 313:C:/Users/dtjld/workspace/AIoT/src/LiteOS_Lab/iot_link/network/dtls/mbedtls/mbedtls-2.16.2/library\x509_crt.c ****     }
 314:C:/Users/dtjld/workspace/AIoT/src/LiteOS_Lab/iot_link/network/dtls/mbedtls/mbedtls-2.16.2/library\x509_crt.c **** 
 315:C:/Users/dtjld/workspace/AIoT/src/LiteOS_Lab/iot_link/network/dtls/mbedtls/mbedtls-2.16.2/library\x509_crt.c ****     return( -1 );
 724              		.loc 2 315 0
 725 0086 4FF0FF33 		mov	r3, #-1
 726              	.L43:
 316:C:/Users/dtjld/workspace/AIoT/src/LiteOS_Lab/iot_link/network/dtls/mbedtls/mbedtls-2.16.2/library\x509_crt.c **** }
 727              		.loc 2 316 0
 728 008a 1846     		mov	r0, r3
 729 008c 0837     		adds	r7, r7, #8
 730              	.LCFI37:
 731              		.cfi_def_cfa_offset 8
 732 008e BD46     		mov	sp, r7
 733              	.LCFI38:
 734              		.cfi_def_cfa_register 13
 735              		@ sp needed
 736 0090 80BD     		pop	{r7, pc}
 737              		.cfi_endproc
 738              	.LFE18:
 740              		.section	.text.x509_name_cmp,"ax",%progbits
 741              		.align	1
 742              		.syntax unified
 743              		.thumb
 744              		.thumb_func
 745              		.fpu fpv4-sp-d16
 747              	x509_name_cmp:
 748              	.LFB19:
 317:C:/Users/dtjld/workspace/AIoT/src/LiteOS_Lab/iot_link/network/dtls/mbedtls/mbedtls-2.16.2/library\x509_crt.c **** 
 318:C:/Users/dtjld/workspace/AIoT/src/LiteOS_Lab/iot_link/network/dtls/mbedtls/mbedtls-2.16.2/library\x509_crt.c **** /*
 319:C:/Users/dtjld/workspace/AIoT/src/LiteOS_Lab/iot_link/network/dtls/mbedtls/mbedtls-2.16.2/library\x509_crt.c ****  * Compare two X.509 Names (aka rdnSequence).
 320:C:/Users/dtjld/workspace/AIoT/src/LiteOS_Lab/iot_link/network/dtls/mbedtls/mbedtls-2.16.2/library\x509_crt.c ****  *
 321:C:/Users/dtjld/workspace/AIoT/src/LiteOS_Lab/iot_link/network/dtls/mbedtls/mbedtls-2.16.2/library\x509_crt.c ****  * See RFC 5280 section 7.1, though we don't implement the whole algorithm:
 322:C:/Users/dtjld/workspace/AIoT/src/LiteOS_Lab/iot_link/network/dtls/mbedtls/mbedtls-2.16.2/library\x509_crt.c ****  * we sometimes return unequal when the full algorithm would return equal,
 323:C:/Users/dtjld/workspace/AIoT/src/LiteOS_Lab/iot_link/network/dtls/mbedtls/mbedtls-2.16.2/library\x509_crt.c ****  * but never the other way. (In particular, we don't do Unicode normalisation
 324:C:/Users/dtjld/workspace/AIoT/src/LiteOS_Lab/iot_link/network/dtls/mbedtls/mbedtls-2.16.2/library\x509_crt.c ****  * or space folding.)
 325:C:/Users/dtjld/workspace/AIoT/src/LiteOS_Lab/iot_link/network/dtls/mbedtls/mbedtls-2.16.2/library\x509_crt.c ****  *
 326:C:/Users/dtjld/workspace/AIoT/src/LiteOS_Lab/iot_link/network/dtls/mbedtls/mbedtls-2.16.2/library\x509_crt.c ****  * Return 0 if equal, -1 otherwise.
 327:C:/Users/dtjld/workspace/AIoT/src/LiteOS_Lab/iot_link/network/dtls/mbedtls/mbedtls-2.16.2/library\x509_crt.c ****  */
 328:C:/Users/dtjld/workspace/AIoT/src/LiteOS_Lab/iot_link/network/dtls/mbedtls/mbedtls-2.16.2/library\x509_crt.c **** static int x509_name_cmp( const mbedtls_x509_name *a, const mbedtls_x509_name *b )
 329:C:/Users/dtjld/workspace/AIoT/src/LiteOS_Lab/iot_link/network/dtls/mbedtls/mbedtls-2.16.2/library\x509_crt.c **** {
 749              		.loc 2 329 0
 750              		.cfi_startproc
 751              		@ args = 0, pretend = 0, frame = 8
 752              		@ frame_needed = 1, uses_anonymous_args = 0
 753 0000 80B5     		push	{r7, lr}
 754              	.LCFI39:
 755              		.cfi_def_cfa_offset 8
 756              		.cfi_offset 7, -8
 757              		.cfi_offset 14, -4
 758 0002 82B0     		sub	sp, sp, #8
 759              	.LCFI40:
ARM GAS  C:\Users\dtjld\AppData\Local\Temp\ccTXdst3.s 			page 23


 760              		.cfi_def_cfa_offset 16
 761 0004 00AF     		add	r7, sp, #0
 762              	.LCFI41:
 763              		.cfi_def_cfa_register 7
 764 0006 7860     		str	r0, [r7, #4]
 765 0008 3960     		str	r1, [r7]
 330:C:/Users/dtjld/workspace/AIoT/src/LiteOS_Lab/iot_link/network/dtls/mbedtls/mbedtls-2.16.2/library\x509_crt.c ****     /* Avoid recursion, it might not be optimised by the compiler */
 331:C:/Users/dtjld/workspace/AIoT/src/LiteOS_Lab/iot_link/network/dtls/mbedtls/mbedtls-2.16.2/library\x509_crt.c ****     while( a != NULL || b != NULL )
 766              		.loc 2 331 0
 767 000a 41E0     		b	.L48
 768              	.L56:
 332:C:/Users/dtjld/workspace/AIoT/src/LiteOS_Lab/iot_link/network/dtls/mbedtls/mbedtls-2.16.2/library\x509_crt.c ****     {
 333:C:/Users/dtjld/workspace/AIoT/src/LiteOS_Lab/iot_link/network/dtls/mbedtls/mbedtls-2.16.2/library\x509_crt.c ****         if( a == NULL || b == NULL )
 769              		.loc 2 333 0
 770 000c 7B68     		ldr	r3, [r7, #4]
 771 000e 002B     		cmp	r3, #0
 772 0010 02D0     		beq	.L49
 773              		.loc 2 333 0 is_stmt 0 discriminator 1
 774 0012 3B68     		ldr	r3, [r7]
 775 0014 002B     		cmp	r3, #0
 776 0016 02D1     		bne	.L50
 777              	.L49:
 334:C:/Users/dtjld/workspace/AIoT/src/LiteOS_Lab/iot_link/network/dtls/mbedtls/mbedtls-2.16.2/library\x509_crt.c ****             return( -1 );
 778              		.loc 2 334 0 is_stmt 1
 779 0018 4FF0FF33 		mov	r3, #-1
 780 001c 3FE0     		b	.L51
 781              	.L50:
 335:C:/Users/dtjld/workspace/AIoT/src/LiteOS_Lab/iot_link/network/dtls/mbedtls/mbedtls-2.16.2/library\x509_crt.c **** 
 336:C:/Users/dtjld/workspace/AIoT/src/LiteOS_Lab/iot_link/network/dtls/mbedtls/mbedtls-2.16.2/library\x509_crt.c ****         /* type */
 337:C:/Users/dtjld/workspace/AIoT/src/LiteOS_Lab/iot_link/network/dtls/mbedtls/mbedtls-2.16.2/library\x509_crt.c ****         if( a->oid.tag != b->oid.tag ||
 782              		.loc 2 337 0
 783 001e 7B68     		ldr	r3, [r7, #4]
 784 0020 1A68     		ldr	r2, [r3]
 785 0022 3B68     		ldr	r3, [r7]
 786 0024 1B68     		ldr	r3, [r3]
 787 0026 9A42     		cmp	r2, r3
 788 0028 11D1     		bne	.L52
 338:C:/Users/dtjld/workspace/AIoT/src/LiteOS_Lab/iot_link/network/dtls/mbedtls/mbedtls-2.16.2/library\x509_crt.c ****             a->oid.len != b->oid.len ||
 789              		.loc 2 338 0 discriminator 1
 790 002a 7B68     		ldr	r3, [r7, #4]
 791 002c 5A68     		ldr	r2, [r3, #4]
 792 002e 3B68     		ldr	r3, [r7]
 793 0030 5B68     		ldr	r3, [r3, #4]
 337:C:/Users/dtjld/workspace/AIoT/src/LiteOS_Lab/iot_link/network/dtls/mbedtls/mbedtls-2.16.2/library\x509_crt.c ****             a->oid.len != b->oid.len ||
 794              		.loc 2 337 0 discriminator 1
 795 0032 9A42     		cmp	r2, r3
 796 0034 0BD1     		bne	.L52
 339:C:/Users/dtjld/workspace/AIoT/src/LiteOS_Lab/iot_link/network/dtls/mbedtls/mbedtls-2.16.2/library\x509_crt.c ****             memcmp( a->oid.p, b->oid.p, b->oid.len ) != 0 )
 797              		.loc 2 339 0
 798 0036 7B68     		ldr	r3, [r7, #4]
 799 0038 9868     		ldr	r0, [r3, #8]
 800 003a 3B68     		ldr	r3, [r7]
 801 003c 9968     		ldr	r1, [r3, #8]
 802 003e 3B68     		ldr	r3, [r7]
 803 0040 5B68     		ldr	r3, [r3, #4]
 804 0042 1A46     		mov	r2, r3
 805 0044 FFF7FEFF 		bl	memcmp
ARM GAS  C:\Users\dtjld\AppData\Local\Temp\ccTXdst3.s 			page 24


 806 0048 0346     		mov	r3, r0
 338:C:/Users/dtjld/workspace/AIoT/src/LiteOS_Lab/iot_link/network/dtls/mbedtls/mbedtls-2.16.2/library\x509_crt.c ****             a->oid.len != b->oid.len ||
 807              		.loc 2 338 0
 808 004a 002B     		cmp	r3, #0
 809 004c 02D0     		beq	.L53
 810              	.L52:
 340:C:/Users/dtjld/workspace/AIoT/src/LiteOS_Lab/iot_link/network/dtls/mbedtls/mbedtls-2.16.2/library\x509_crt.c ****         {
 341:C:/Users/dtjld/workspace/AIoT/src/LiteOS_Lab/iot_link/network/dtls/mbedtls/mbedtls-2.16.2/library\x509_crt.c ****             return( -1 );
 811              		.loc 2 341 0
 812 004e 4FF0FF33 		mov	r3, #-1
 813 0052 24E0     		b	.L51
 814              	.L53:
 342:C:/Users/dtjld/workspace/AIoT/src/LiteOS_Lab/iot_link/network/dtls/mbedtls/mbedtls-2.16.2/library\x509_crt.c ****         }
 343:C:/Users/dtjld/workspace/AIoT/src/LiteOS_Lab/iot_link/network/dtls/mbedtls/mbedtls-2.16.2/library\x509_crt.c **** 
 344:C:/Users/dtjld/workspace/AIoT/src/LiteOS_Lab/iot_link/network/dtls/mbedtls/mbedtls-2.16.2/library\x509_crt.c ****         /* value */
 345:C:/Users/dtjld/workspace/AIoT/src/LiteOS_Lab/iot_link/network/dtls/mbedtls/mbedtls-2.16.2/library\x509_crt.c ****         if( x509_string_cmp( &a->val, &b->val ) != 0 )
 815              		.loc 2 345 0
 816 0054 7B68     		ldr	r3, [r7, #4]
 817 0056 03F10C02 		add	r2, r3, #12
 818 005a 3B68     		ldr	r3, [r7]
 819 005c 0C33     		adds	r3, r3, #12
 820 005e 1946     		mov	r1, r3
 821 0060 1046     		mov	r0, r2
 822 0062 FFF7FEFF 		bl	x509_string_cmp
 823 0066 0346     		mov	r3, r0
 824 0068 002B     		cmp	r3, #0
 825 006a 02D0     		beq	.L54
 346:C:/Users/dtjld/workspace/AIoT/src/LiteOS_Lab/iot_link/network/dtls/mbedtls/mbedtls-2.16.2/library\x509_crt.c ****             return( -1 );
 826              		.loc 2 346 0
 827 006c 4FF0FF33 		mov	r3, #-1
 828 0070 15E0     		b	.L51
 829              	.L54:
 347:C:/Users/dtjld/workspace/AIoT/src/LiteOS_Lab/iot_link/network/dtls/mbedtls/mbedtls-2.16.2/library\x509_crt.c **** 
 348:C:/Users/dtjld/workspace/AIoT/src/LiteOS_Lab/iot_link/network/dtls/mbedtls/mbedtls-2.16.2/library\x509_crt.c ****         /* structure of the list of sets */
 349:C:/Users/dtjld/workspace/AIoT/src/LiteOS_Lab/iot_link/network/dtls/mbedtls/mbedtls-2.16.2/library\x509_crt.c ****         if( a->next_merged != b->next_merged )
 830              		.loc 2 349 0
 831 0072 7B68     		ldr	r3, [r7, #4]
 832 0074 1A7F     		ldrb	r2, [r3, #28]	@ zero_extendqisi2
 833 0076 3B68     		ldr	r3, [r7]
 834 0078 1B7F     		ldrb	r3, [r3, #28]	@ zero_extendqisi2
 835 007a 9A42     		cmp	r2, r3
 836 007c 02D0     		beq	.L55
 350:C:/Users/dtjld/workspace/AIoT/src/LiteOS_Lab/iot_link/network/dtls/mbedtls/mbedtls-2.16.2/library\x509_crt.c ****             return( -1 );
 837              		.loc 2 350 0
 838 007e 4FF0FF33 		mov	r3, #-1
 839 0082 0CE0     		b	.L51
 840              	.L55:
 351:C:/Users/dtjld/workspace/AIoT/src/LiteOS_Lab/iot_link/network/dtls/mbedtls/mbedtls-2.16.2/library\x509_crt.c **** 
 352:C:/Users/dtjld/workspace/AIoT/src/LiteOS_Lab/iot_link/network/dtls/mbedtls/mbedtls-2.16.2/library\x509_crt.c ****         a = a->next;
 841              		.loc 2 352 0
 842 0084 7B68     		ldr	r3, [r7, #4]
 843 0086 9B69     		ldr	r3, [r3, #24]
 844 0088 7B60     		str	r3, [r7, #4]
 353:C:/Users/dtjld/workspace/AIoT/src/LiteOS_Lab/iot_link/network/dtls/mbedtls/mbedtls-2.16.2/library\x509_crt.c ****         b = b->next;
 845              		.loc 2 353 0
 846 008a 3B68     		ldr	r3, [r7]
 847 008c 9B69     		ldr	r3, [r3, #24]
ARM GAS  C:\Users\dtjld\AppData\Local\Temp\ccTXdst3.s 			page 25


 848 008e 3B60     		str	r3, [r7]
 849              	.L48:
 331:C:/Users/dtjld/workspace/AIoT/src/LiteOS_Lab/iot_link/network/dtls/mbedtls/mbedtls-2.16.2/library\x509_crt.c ****     {
 850              		.loc 2 331 0
 851 0090 7B68     		ldr	r3, [r7, #4]
 852 0092 002B     		cmp	r3, #0
 853 0094 BAD1     		bne	.L56
 331:C:/Users/dtjld/workspace/AIoT/src/LiteOS_Lab/iot_link/network/dtls/mbedtls/mbedtls-2.16.2/library\x509_crt.c ****     {
 854              		.loc 2 331 0 is_stmt 0 discriminator 1
 855 0096 3B68     		ldr	r3, [r7]
 856 0098 002B     		cmp	r3, #0
 857 009a B7D1     		bne	.L56
 354:C:/Users/dtjld/workspace/AIoT/src/LiteOS_Lab/iot_link/network/dtls/mbedtls/mbedtls-2.16.2/library\x509_crt.c ****     }
 355:C:/Users/dtjld/workspace/AIoT/src/LiteOS_Lab/iot_link/network/dtls/mbedtls/mbedtls-2.16.2/library\x509_crt.c **** 
 356:C:/Users/dtjld/workspace/AIoT/src/LiteOS_Lab/iot_link/network/dtls/mbedtls/mbedtls-2.16.2/library\x509_crt.c ****     /* a == NULL == b */
 357:C:/Users/dtjld/workspace/AIoT/src/LiteOS_Lab/iot_link/network/dtls/mbedtls/mbedtls-2.16.2/library\x509_crt.c ****     return( 0 );
 858              		.loc 2 357 0 is_stmt 1
 859 009c 0023     		movs	r3, #0
 860              	.L51:
 358:C:/Users/dtjld/workspace/AIoT/src/LiteOS_Lab/iot_link/network/dtls/mbedtls/mbedtls-2.16.2/library\x509_crt.c **** }
 861              		.loc 2 358 0
 862 009e 1846     		mov	r0, r3
 863 00a0 0837     		adds	r7, r7, #8
 864              	.LCFI42:
 865              		.cfi_def_cfa_offset 8
 866 00a2 BD46     		mov	sp, r7
 867              	.LCFI43:
 868              		.cfi_def_cfa_register 13
 869              		@ sp needed
 870 00a4 80BD     		pop	{r7, pc}
 871              		.cfi_endproc
 872              	.LFE19:
 874              		.section	.text.x509_crt_verify_chain_reset,"ax",%progbits
 875              		.align	1
 876              		.syntax unified
 877              		.thumb
 878              		.thumb_func
 879              		.fpu fpv4-sp-d16
 881              	x509_crt_verify_chain_reset:
 882              	.LFB20:
 359:C:/Users/dtjld/workspace/AIoT/src/LiteOS_Lab/iot_link/network/dtls/mbedtls/mbedtls-2.16.2/library\x509_crt.c **** 
 360:C:/Users/dtjld/workspace/AIoT/src/LiteOS_Lab/iot_link/network/dtls/mbedtls/mbedtls-2.16.2/library\x509_crt.c **** /*
 361:C:/Users/dtjld/workspace/AIoT/src/LiteOS_Lab/iot_link/network/dtls/mbedtls/mbedtls-2.16.2/library\x509_crt.c ****  * Reset (init or clear) a verify_chain
 362:C:/Users/dtjld/workspace/AIoT/src/LiteOS_Lab/iot_link/network/dtls/mbedtls/mbedtls-2.16.2/library\x509_crt.c ****  */
 363:C:/Users/dtjld/workspace/AIoT/src/LiteOS_Lab/iot_link/network/dtls/mbedtls/mbedtls-2.16.2/library\x509_crt.c **** static void x509_crt_verify_chain_reset(
 364:C:/Users/dtjld/workspace/AIoT/src/LiteOS_Lab/iot_link/network/dtls/mbedtls/mbedtls-2.16.2/library\x509_crt.c ****     mbedtls_x509_crt_verify_chain *ver_chain )
 365:C:/Users/dtjld/workspace/AIoT/src/LiteOS_Lab/iot_link/network/dtls/mbedtls/mbedtls-2.16.2/library\x509_crt.c **** {
 883              		.loc 2 365 0
 884              		.cfi_startproc
 885              		@ args = 0, pretend = 0, frame = 16
 886              		@ frame_needed = 1, uses_anonymous_args = 0
 887              		@ link register save eliminated.
 888 0000 80B4     		push	{r7}
 889              	.LCFI44:
 890              		.cfi_def_cfa_offset 4
 891              		.cfi_offset 7, -4
 892 0002 85B0     		sub	sp, sp, #20
ARM GAS  C:\Users\dtjld\AppData\Local\Temp\ccTXdst3.s 			page 26


 893              	.LCFI45:
 894              		.cfi_def_cfa_offset 24
 895 0004 00AF     		add	r7, sp, #0
 896              	.LCFI46:
 897              		.cfi_def_cfa_register 7
 898 0006 7860     		str	r0, [r7, #4]
 366:C:/Users/dtjld/workspace/AIoT/src/LiteOS_Lab/iot_link/network/dtls/mbedtls/mbedtls-2.16.2/library\x509_crt.c ****     size_t i;
 367:C:/Users/dtjld/workspace/AIoT/src/LiteOS_Lab/iot_link/network/dtls/mbedtls/mbedtls-2.16.2/library\x509_crt.c **** 
 368:C:/Users/dtjld/workspace/AIoT/src/LiteOS_Lab/iot_link/network/dtls/mbedtls/mbedtls-2.16.2/library\x509_crt.c ****     for( i = 0; i < MBEDTLS_X509_MAX_VERIFY_CHAIN_SIZE; i++ )
 899              		.loc 2 368 0
 900 0008 0023     		movs	r3, #0
 901 000a FB60     		str	r3, [r7, #12]
 902 000c 0EE0     		b	.L58
 903              	.L59:
 369:C:/Users/dtjld/workspace/AIoT/src/LiteOS_Lab/iot_link/network/dtls/mbedtls/mbedtls-2.16.2/library\x509_crt.c ****     {
 370:C:/Users/dtjld/workspace/AIoT/src/LiteOS_Lab/iot_link/network/dtls/mbedtls/mbedtls-2.16.2/library\x509_crt.c ****         ver_chain->items[i].crt = NULL;
 904              		.loc 2 370 0 discriminator 3
 905 000e 7B68     		ldr	r3, [r7, #4]
 906 0010 FA68     		ldr	r2, [r7, #12]
 907 0012 0021     		movs	r1, #0
 908 0014 43F83210 		str	r1, [r3, r2, lsl #3]
 371:C:/Users/dtjld/workspace/AIoT/src/LiteOS_Lab/iot_link/network/dtls/mbedtls/mbedtls-2.16.2/library\x509_crt.c ****         ver_chain->items[i].flags = (uint32_t) -1;
 909              		.loc 2 371 0 discriminator 3
 910 0018 7A68     		ldr	r2, [r7, #4]
 911 001a FB68     		ldr	r3, [r7, #12]
 912 001c DB00     		lsls	r3, r3, #3
 913 001e 1344     		add	r3, r3, r2
 914 0020 4FF0FF32 		mov	r2, #-1
 915 0024 5A60     		str	r2, [r3, #4]
 368:C:/Users/dtjld/workspace/AIoT/src/LiteOS_Lab/iot_link/network/dtls/mbedtls/mbedtls-2.16.2/library\x509_crt.c ****     {
 916              		.loc 2 368 0 discriminator 3
 917 0026 FB68     		ldr	r3, [r7, #12]
 918 0028 0133     		adds	r3, r3, #1
 919 002a FB60     		str	r3, [r7, #12]
 920              	.L58:
 368:C:/Users/dtjld/workspace/AIoT/src/LiteOS_Lab/iot_link/network/dtls/mbedtls/mbedtls-2.16.2/library\x509_crt.c ****     {
 921              		.loc 2 368 0 is_stmt 0 discriminator 1
 922 002c FB68     		ldr	r3, [r7, #12]
 923 002e 092B     		cmp	r3, #9
 924 0030 EDD9     		bls	.L59
 372:C:/Users/dtjld/workspace/AIoT/src/LiteOS_Lab/iot_link/network/dtls/mbedtls/mbedtls-2.16.2/library\x509_crt.c ****     }
 373:C:/Users/dtjld/workspace/AIoT/src/LiteOS_Lab/iot_link/network/dtls/mbedtls/mbedtls-2.16.2/library\x509_crt.c **** 
 374:C:/Users/dtjld/workspace/AIoT/src/LiteOS_Lab/iot_link/network/dtls/mbedtls/mbedtls-2.16.2/library\x509_crt.c ****     ver_chain->len = 0;
 925              		.loc 2 374 0 is_stmt 1
 926 0032 7B68     		ldr	r3, [r7, #4]
 927 0034 0022     		movs	r2, #0
 928 0036 1A65     		str	r2, [r3, #80]
 375:C:/Users/dtjld/workspace/AIoT/src/LiteOS_Lab/iot_link/network/dtls/mbedtls/mbedtls-2.16.2/library\x509_crt.c **** }
 929              		.loc 2 375 0
 930 0038 00BF     		nop
 931 003a 1437     		adds	r7, r7, #20
 932              	.LCFI47:
 933              		.cfi_def_cfa_offset 4
 934 003c BD46     		mov	sp, r7
 935              	.LCFI48:
 936              		.cfi_def_cfa_register 13
 937              		@ sp needed
ARM GAS  C:\Users\dtjld\AppData\Local\Temp\ccTXdst3.s 			page 27


 938 003e 5DF8047B 		ldr	r7, [sp], #4
 939              	.LCFI49:
 940              		.cfi_restore 7
 941              		.cfi_def_cfa_offset 0
 942 0042 7047     		bx	lr
 943              		.cfi_endproc
 944              	.LFE20:
 946              		.section	.text.x509_get_version,"ax",%progbits
 947              		.align	1
 948              		.syntax unified
 949              		.thumb
 950              		.thumb_func
 951              		.fpu fpv4-sp-d16
 953              	x509_get_version:
 954              	.LFB21:
 376:C:/Users/dtjld/workspace/AIoT/src/LiteOS_Lab/iot_link/network/dtls/mbedtls/mbedtls-2.16.2/library\x509_crt.c **** 
 377:C:/Users/dtjld/workspace/AIoT/src/LiteOS_Lab/iot_link/network/dtls/mbedtls/mbedtls-2.16.2/library\x509_crt.c **** /*
 378:C:/Users/dtjld/workspace/AIoT/src/LiteOS_Lab/iot_link/network/dtls/mbedtls/mbedtls-2.16.2/library\x509_crt.c ****  *  Version  ::=  INTEGER  {  v1(0), v2(1), v3(2)  }
 379:C:/Users/dtjld/workspace/AIoT/src/LiteOS_Lab/iot_link/network/dtls/mbedtls/mbedtls-2.16.2/library\x509_crt.c ****  */
 380:C:/Users/dtjld/workspace/AIoT/src/LiteOS_Lab/iot_link/network/dtls/mbedtls/mbedtls-2.16.2/library\x509_crt.c **** static int x509_get_version( unsigned char **p,
 381:C:/Users/dtjld/workspace/AIoT/src/LiteOS_Lab/iot_link/network/dtls/mbedtls/mbedtls-2.16.2/library\x509_crt.c ****                              const unsigned char *end,
 382:C:/Users/dtjld/workspace/AIoT/src/LiteOS_Lab/iot_link/network/dtls/mbedtls/mbedtls-2.16.2/library\x509_crt.c ****                              int *ver )
 383:C:/Users/dtjld/workspace/AIoT/src/LiteOS_Lab/iot_link/network/dtls/mbedtls/mbedtls-2.16.2/library\x509_crt.c **** {
 955              		.loc 2 383 0
 956              		.cfi_startproc
 957              		@ args = 0, pretend = 0, frame = 24
 958              		@ frame_needed = 1, uses_anonymous_args = 0
 959 0000 80B5     		push	{r7, lr}
 960              	.LCFI50:
 961              		.cfi_def_cfa_offset 8
 962              		.cfi_offset 7, -8
 963              		.cfi_offset 14, -4
 964 0002 86B0     		sub	sp, sp, #24
 965              	.LCFI51:
 966              		.cfi_def_cfa_offset 32
 967 0004 00AF     		add	r7, sp, #0
 968              	.LCFI52:
 969              		.cfi_def_cfa_register 7
 970 0006 F860     		str	r0, [r7, #12]
 971 0008 B960     		str	r1, [r7, #8]
 972 000a 7A60     		str	r2, [r7, #4]
 384:C:/Users/dtjld/workspace/AIoT/src/LiteOS_Lab/iot_link/network/dtls/mbedtls/mbedtls-2.16.2/library\x509_crt.c ****     int ret;
 385:C:/Users/dtjld/workspace/AIoT/src/LiteOS_Lab/iot_link/network/dtls/mbedtls/mbedtls-2.16.2/library\x509_crt.c ****     size_t len;
 386:C:/Users/dtjld/workspace/AIoT/src/LiteOS_Lab/iot_link/network/dtls/mbedtls/mbedtls-2.16.2/library\x509_crt.c **** 
 387:C:/Users/dtjld/workspace/AIoT/src/LiteOS_Lab/iot_link/network/dtls/mbedtls/mbedtls-2.16.2/library\x509_crt.c ****     if( ( ret = mbedtls_asn1_get_tag( p, end, &len,
 973              		.loc 2 387 0
 974 000c 07F11002 		add	r2, r7, #16
 975 0010 A023     		movs	r3, #160
 976 0012 B968     		ldr	r1, [r7, #8]
 977 0014 F868     		ldr	r0, [r7, #12]
 978 0016 FFF7FEFF 		bl	mbedtls_asn1_get_tag
 979 001a 7861     		str	r0, [r7, #20]
 980 001c 7B69     		ldr	r3, [r7, #20]
 981 001e 002B     		cmp	r3, #0
 982 0020 0CD0     		beq	.L61
 388:C:/Users/dtjld/workspace/AIoT/src/LiteOS_Lab/iot_link/network/dtls/mbedtls/mbedtls-2.16.2/library\x509_crt.c ****             MBEDTLS_ASN1_CONTEXT_SPECIFIC | MBEDTLS_ASN1_CONSTRUCTED | 0 ) ) != 0 )
 389:C:/Users/dtjld/workspace/AIoT/src/LiteOS_Lab/iot_link/network/dtls/mbedtls/mbedtls-2.16.2/library\x509_crt.c ****     {
ARM GAS  C:\Users\dtjld\AppData\Local\Temp\ccTXdst3.s 			page 28


 390:C:/Users/dtjld/workspace/AIoT/src/LiteOS_Lab/iot_link/network/dtls/mbedtls/mbedtls-2.16.2/library\x509_crt.c ****         if( ret == MBEDTLS_ERR_ASN1_UNEXPECTED_TAG )
 983              		.loc 2 390 0
 984 0022 7B69     		ldr	r3, [r7, #20]
 985 0024 13F1620F 		cmn	r3, #98
 986 0028 04D1     		bne	.L62
 391:C:/Users/dtjld/workspace/AIoT/src/LiteOS_Lab/iot_link/network/dtls/mbedtls/mbedtls-2.16.2/library\x509_crt.c ****         {
 392:C:/Users/dtjld/workspace/AIoT/src/LiteOS_Lab/iot_link/network/dtls/mbedtls/mbedtls-2.16.2/library\x509_crt.c ****             *ver = 0;
 987              		.loc 2 392 0
 988 002a 7B68     		ldr	r3, [r7, #4]
 989 002c 0022     		movs	r2, #0
 990 002e 1A60     		str	r2, [r3]
 393:C:/Users/dtjld/workspace/AIoT/src/LiteOS_Lab/iot_link/network/dtls/mbedtls/mbedtls-2.16.2/library\x509_crt.c ****             return( 0 );
 991              		.loc 2 393 0
 992 0030 0023     		movs	r3, #0
 993 0032 1DE0     		b	.L66
 994              	.L62:
 394:C:/Users/dtjld/workspace/AIoT/src/LiteOS_Lab/iot_link/network/dtls/mbedtls/mbedtls-2.16.2/library\x509_crt.c ****         }
 395:C:/Users/dtjld/workspace/AIoT/src/LiteOS_Lab/iot_link/network/dtls/mbedtls/mbedtls-2.16.2/library\x509_crt.c **** 
 396:C:/Users/dtjld/workspace/AIoT/src/LiteOS_Lab/iot_link/network/dtls/mbedtls/mbedtls-2.16.2/library\x509_crt.c ****         return( MBEDTLS_ERR_X509_INVALID_FORMAT + ret );
 995              		.loc 2 396 0
 996 0034 7B69     		ldr	r3, [r7, #20]
 997 0036 A3F50653 		sub	r3, r3, #8576
 998 003a 19E0     		b	.L66
 999              	.L61:
 397:C:/Users/dtjld/workspace/AIoT/src/LiteOS_Lab/iot_link/network/dtls/mbedtls/mbedtls-2.16.2/library\x509_crt.c ****     }
 398:C:/Users/dtjld/workspace/AIoT/src/LiteOS_Lab/iot_link/network/dtls/mbedtls/mbedtls-2.16.2/library\x509_crt.c **** 
 399:C:/Users/dtjld/workspace/AIoT/src/LiteOS_Lab/iot_link/network/dtls/mbedtls/mbedtls-2.16.2/library\x509_crt.c ****     end = *p + len;
 1000              		.loc 2 399 0
 1001 003c FB68     		ldr	r3, [r7, #12]
 1002 003e 1A68     		ldr	r2, [r3]
 1003 0040 3B69     		ldr	r3, [r7, #16]
 1004 0042 1344     		add	r3, r3, r2
 1005 0044 BB60     		str	r3, [r7, #8]
 400:C:/Users/dtjld/workspace/AIoT/src/LiteOS_Lab/iot_link/network/dtls/mbedtls/mbedtls-2.16.2/library\x509_crt.c **** 
 401:C:/Users/dtjld/workspace/AIoT/src/LiteOS_Lab/iot_link/network/dtls/mbedtls/mbedtls-2.16.2/library\x509_crt.c ****     if( ( ret = mbedtls_asn1_get_int( p, end, ver ) ) != 0 )
 1006              		.loc 2 401 0
 1007 0046 7A68     		ldr	r2, [r7, #4]
 1008 0048 B968     		ldr	r1, [r7, #8]
 1009 004a F868     		ldr	r0, [r7, #12]
 1010 004c FFF7FEFF 		bl	mbedtls_asn1_get_int
 1011 0050 7861     		str	r0, [r7, #20]
 1012 0052 7B69     		ldr	r3, [r7, #20]
 1013 0054 002B     		cmp	r3, #0
 1014 0056 03D0     		beq	.L64
 402:C:/Users/dtjld/workspace/AIoT/src/LiteOS_Lab/iot_link/network/dtls/mbedtls/mbedtls-2.16.2/library\x509_crt.c ****         return( MBEDTLS_ERR_X509_INVALID_VERSION + ret );
 1015              		.loc 2 402 0
 1016 0058 7B69     		ldr	r3, [r7, #20]
 1017 005a A3F50853 		sub	r3, r3, #8704
 1018 005e 07E0     		b	.L66
 1019              	.L64:
 403:C:/Users/dtjld/workspace/AIoT/src/LiteOS_Lab/iot_link/network/dtls/mbedtls/mbedtls-2.16.2/library\x509_crt.c **** 
 404:C:/Users/dtjld/workspace/AIoT/src/LiteOS_Lab/iot_link/network/dtls/mbedtls/mbedtls-2.16.2/library\x509_crt.c ****     if( *p != end )
 1020              		.loc 2 404 0
 1021 0060 FB68     		ldr	r3, [r7, #12]
 1022 0062 1B68     		ldr	r3, [r3]
 1023 0064 BA68     		ldr	r2, [r7, #8]
 1024 0066 9A42     		cmp	r2, r3
ARM GAS  C:\Users\dtjld\AppData\Local\Temp\ccTXdst3.s 			page 29


 1025 0068 01D0     		beq	.L65
 405:C:/Users/dtjld/workspace/AIoT/src/LiteOS_Lab/iot_link/network/dtls/mbedtls/mbedtls-2.16.2/library\x509_crt.c ****         return( MBEDTLS_ERR_X509_INVALID_VERSION +
 1026              		.loc 2 405 0
 1027 006a 034B     		ldr	r3, .L67
 1028 006c 00E0     		b	.L66
 1029              	.L65:
 406:C:/Users/dtjld/workspace/AIoT/src/LiteOS_Lab/iot_link/network/dtls/mbedtls/mbedtls-2.16.2/library\x509_crt.c ****                 MBEDTLS_ERR_ASN1_LENGTH_MISMATCH );
 407:C:/Users/dtjld/workspace/AIoT/src/LiteOS_Lab/iot_link/network/dtls/mbedtls/mbedtls-2.16.2/library\x509_crt.c **** 
 408:C:/Users/dtjld/workspace/AIoT/src/LiteOS_Lab/iot_link/network/dtls/mbedtls/mbedtls-2.16.2/library\x509_crt.c ****     return( 0 );
 1030              		.loc 2 408 0
 1031 006e 0023     		movs	r3, #0
 1032              	.L66:
 409:C:/Users/dtjld/workspace/AIoT/src/LiteOS_Lab/iot_link/network/dtls/mbedtls/mbedtls-2.16.2/library\x509_crt.c **** }
 1033              		.loc 2 409 0 discriminator 1
 1034 0070 1846     		mov	r0, r3
 1035 0072 1837     		adds	r7, r7, #24
 1036              	.LCFI53:
 1037              		.cfi_def_cfa_offset 8
 1038 0074 BD46     		mov	sp, r7
 1039              	.LCFI54:
 1040              		.cfi_def_cfa_register 13
 1041              		@ sp needed
 1042 0076 80BD     		pop	{r7, pc}
 1043              	.L68:
 1044              		.align	2
 1045              	.L67:
 1046 0078 9ADDFFFF 		.word	-8806
 1047              		.cfi_endproc
 1048              	.LFE21:
 1050              		.section	.text.x509_get_dates,"ax",%progbits
 1051              		.align	1
 1052              		.syntax unified
 1053              		.thumb
 1054              		.thumb_func
 1055              		.fpu fpv4-sp-d16
 1057              	x509_get_dates:
 1058              	.LFB22:
 410:C:/Users/dtjld/workspace/AIoT/src/LiteOS_Lab/iot_link/network/dtls/mbedtls/mbedtls-2.16.2/library\x509_crt.c **** 
 411:C:/Users/dtjld/workspace/AIoT/src/LiteOS_Lab/iot_link/network/dtls/mbedtls/mbedtls-2.16.2/library\x509_crt.c **** /*
 412:C:/Users/dtjld/workspace/AIoT/src/LiteOS_Lab/iot_link/network/dtls/mbedtls/mbedtls-2.16.2/library\x509_crt.c ****  *  Validity ::= SEQUENCE {
 413:C:/Users/dtjld/workspace/AIoT/src/LiteOS_Lab/iot_link/network/dtls/mbedtls/mbedtls-2.16.2/library\x509_crt.c ****  *       notBefore      Time,
 414:C:/Users/dtjld/workspace/AIoT/src/LiteOS_Lab/iot_link/network/dtls/mbedtls/mbedtls-2.16.2/library\x509_crt.c ****  *       notAfter       Time }
 415:C:/Users/dtjld/workspace/AIoT/src/LiteOS_Lab/iot_link/network/dtls/mbedtls/mbedtls-2.16.2/library\x509_crt.c ****  */
 416:C:/Users/dtjld/workspace/AIoT/src/LiteOS_Lab/iot_link/network/dtls/mbedtls/mbedtls-2.16.2/library\x509_crt.c **** static int x509_get_dates( unsigned char **p,
 417:C:/Users/dtjld/workspace/AIoT/src/LiteOS_Lab/iot_link/network/dtls/mbedtls/mbedtls-2.16.2/library\x509_crt.c ****                            const unsigned char *end,
 418:C:/Users/dtjld/workspace/AIoT/src/LiteOS_Lab/iot_link/network/dtls/mbedtls/mbedtls-2.16.2/library\x509_crt.c ****                            mbedtls_x509_time *from,
 419:C:/Users/dtjld/workspace/AIoT/src/LiteOS_Lab/iot_link/network/dtls/mbedtls/mbedtls-2.16.2/library\x509_crt.c ****                            mbedtls_x509_time *to )
 420:C:/Users/dtjld/workspace/AIoT/src/LiteOS_Lab/iot_link/network/dtls/mbedtls/mbedtls-2.16.2/library\x509_crt.c **** {
 1059              		.loc 2 420 0
 1060              		.cfi_startproc
 1061              		@ args = 0, pretend = 0, frame = 24
 1062              		@ frame_needed = 1, uses_anonymous_args = 0
 1063 0000 80B5     		push	{r7, lr}
 1064              	.LCFI55:
 1065              		.cfi_def_cfa_offset 8
 1066              		.cfi_offset 7, -8
 1067              		.cfi_offset 14, -4
ARM GAS  C:\Users\dtjld\AppData\Local\Temp\ccTXdst3.s 			page 30


 1068 0002 86B0     		sub	sp, sp, #24
 1069              	.LCFI56:
 1070              		.cfi_def_cfa_offset 32
 1071 0004 00AF     		add	r7, sp, #0
 1072              	.LCFI57:
 1073              		.cfi_def_cfa_register 7
 1074 0006 F860     		str	r0, [r7, #12]
 1075 0008 B960     		str	r1, [r7, #8]
 1076 000a 7A60     		str	r2, [r7, #4]
 1077 000c 3B60     		str	r3, [r7]
 421:C:/Users/dtjld/workspace/AIoT/src/LiteOS_Lab/iot_link/network/dtls/mbedtls/mbedtls-2.16.2/library\x509_crt.c ****     int ret;
 422:C:/Users/dtjld/workspace/AIoT/src/LiteOS_Lab/iot_link/network/dtls/mbedtls/mbedtls-2.16.2/library\x509_crt.c ****     size_t len;
 423:C:/Users/dtjld/workspace/AIoT/src/LiteOS_Lab/iot_link/network/dtls/mbedtls/mbedtls-2.16.2/library\x509_crt.c **** 
 424:C:/Users/dtjld/workspace/AIoT/src/LiteOS_Lab/iot_link/network/dtls/mbedtls/mbedtls-2.16.2/library\x509_crt.c ****     if( ( ret = mbedtls_asn1_get_tag( p, end, &len,
 1078              		.loc 2 424 0
 1079 000e 07F11002 		add	r2, r7, #16
 1080 0012 3023     		movs	r3, #48
 1081 0014 B968     		ldr	r1, [r7, #8]
 1082 0016 F868     		ldr	r0, [r7, #12]
 1083 0018 FFF7FEFF 		bl	mbedtls_asn1_get_tag
 1084 001c 7861     		str	r0, [r7, #20]
 1085 001e 7B69     		ldr	r3, [r7, #20]
 1086 0020 002B     		cmp	r3, #0
 1087 0022 03D0     		beq	.L70
 425:C:/Users/dtjld/workspace/AIoT/src/LiteOS_Lab/iot_link/network/dtls/mbedtls/mbedtls-2.16.2/library\x509_crt.c ****             MBEDTLS_ASN1_CONSTRUCTED | MBEDTLS_ASN1_SEQUENCE ) ) != 0 )
 426:C:/Users/dtjld/workspace/AIoT/src/LiteOS_Lab/iot_link/network/dtls/mbedtls/mbedtls-2.16.2/library\x509_crt.c ****         return( MBEDTLS_ERR_X509_INVALID_DATE + ret );
 1088              		.loc 2 426 0
 1089 0024 7B69     		ldr	r3, [r7, #20]
 1090 0026 A3F51053 		sub	r3, r3, #9216
 1091 002a 22E0     		b	.L75
 1092              	.L70:
 427:C:/Users/dtjld/workspace/AIoT/src/LiteOS_Lab/iot_link/network/dtls/mbedtls/mbedtls-2.16.2/library\x509_crt.c **** 
 428:C:/Users/dtjld/workspace/AIoT/src/LiteOS_Lab/iot_link/network/dtls/mbedtls/mbedtls-2.16.2/library\x509_crt.c ****     end = *p + len;
 1093              		.loc 2 428 0
 1094 002c FB68     		ldr	r3, [r7, #12]
 1095 002e 1A68     		ldr	r2, [r3]
 1096 0030 3B69     		ldr	r3, [r7, #16]
 1097 0032 1344     		add	r3, r3, r2
 1098 0034 BB60     		str	r3, [r7, #8]
 429:C:/Users/dtjld/workspace/AIoT/src/LiteOS_Lab/iot_link/network/dtls/mbedtls/mbedtls-2.16.2/library\x509_crt.c **** 
 430:C:/Users/dtjld/workspace/AIoT/src/LiteOS_Lab/iot_link/network/dtls/mbedtls/mbedtls-2.16.2/library\x509_crt.c ****     if( ( ret = mbedtls_x509_get_time( p, end, from ) ) != 0 )
 1099              		.loc 2 430 0
 1100 0036 7A68     		ldr	r2, [r7, #4]
 1101 0038 B968     		ldr	r1, [r7, #8]
 1102 003a F868     		ldr	r0, [r7, #12]
 1103 003c FFF7FEFF 		bl	mbedtls_x509_get_time
 1104 0040 7861     		str	r0, [r7, #20]
 1105 0042 7B69     		ldr	r3, [r7, #20]
 1106 0044 002B     		cmp	r3, #0
 1107 0046 01D0     		beq	.L72
 431:C:/Users/dtjld/workspace/AIoT/src/LiteOS_Lab/iot_link/network/dtls/mbedtls/mbedtls-2.16.2/library\x509_crt.c ****         return( ret );
 1108              		.loc 2 431 0
 1109 0048 7B69     		ldr	r3, [r7, #20]
 1110 004a 12E0     		b	.L75
 1111              	.L72:
 432:C:/Users/dtjld/workspace/AIoT/src/LiteOS_Lab/iot_link/network/dtls/mbedtls/mbedtls-2.16.2/library\x509_crt.c **** 
 433:C:/Users/dtjld/workspace/AIoT/src/LiteOS_Lab/iot_link/network/dtls/mbedtls/mbedtls-2.16.2/library\x509_crt.c ****     if( ( ret = mbedtls_x509_get_time( p, end, to ) ) != 0 )
ARM GAS  C:\Users\dtjld\AppData\Local\Temp\ccTXdst3.s 			page 31


 1112              		.loc 2 433 0
 1113 004c 3A68     		ldr	r2, [r7]
 1114 004e B968     		ldr	r1, [r7, #8]
 1115 0050 F868     		ldr	r0, [r7, #12]
 1116 0052 FFF7FEFF 		bl	mbedtls_x509_get_time
 1117 0056 7861     		str	r0, [r7, #20]
 1118 0058 7B69     		ldr	r3, [r7, #20]
 1119 005a 002B     		cmp	r3, #0
 1120 005c 01D0     		beq	.L73
 434:C:/Users/dtjld/workspace/AIoT/src/LiteOS_Lab/iot_link/network/dtls/mbedtls/mbedtls-2.16.2/library\x509_crt.c ****         return( ret );
 1121              		.loc 2 434 0
 1122 005e 7B69     		ldr	r3, [r7, #20]
 1123 0060 07E0     		b	.L75
 1124              	.L73:
 435:C:/Users/dtjld/workspace/AIoT/src/LiteOS_Lab/iot_link/network/dtls/mbedtls/mbedtls-2.16.2/library\x509_crt.c **** 
 436:C:/Users/dtjld/workspace/AIoT/src/LiteOS_Lab/iot_link/network/dtls/mbedtls/mbedtls-2.16.2/library\x509_crt.c ****     if( *p != end )
 1125              		.loc 2 436 0
 1126 0062 FB68     		ldr	r3, [r7, #12]
 1127 0064 1B68     		ldr	r3, [r3]
 1128 0066 BA68     		ldr	r2, [r7, #8]
 1129 0068 9A42     		cmp	r2, r3
 1130 006a 01D0     		beq	.L74
 437:C:/Users/dtjld/workspace/AIoT/src/LiteOS_Lab/iot_link/network/dtls/mbedtls/mbedtls-2.16.2/library\x509_crt.c ****         return( MBEDTLS_ERR_X509_INVALID_DATE +
 1131              		.loc 2 437 0
 1132 006c 034B     		ldr	r3, .L76
 1133 006e 00E0     		b	.L75
 1134              	.L74:
 438:C:/Users/dtjld/workspace/AIoT/src/LiteOS_Lab/iot_link/network/dtls/mbedtls/mbedtls-2.16.2/library\x509_crt.c ****                 MBEDTLS_ERR_ASN1_LENGTH_MISMATCH );
 439:C:/Users/dtjld/workspace/AIoT/src/LiteOS_Lab/iot_link/network/dtls/mbedtls/mbedtls-2.16.2/library\x509_crt.c **** 
 440:C:/Users/dtjld/workspace/AIoT/src/LiteOS_Lab/iot_link/network/dtls/mbedtls/mbedtls-2.16.2/library\x509_crt.c ****     return( 0 );
 1135              		.loc 2 440 0
 1136 0070 0023     		movs	r3, #0
 1137              	.L75:
 441:C:/Users/dtjld/workspace/AIoT/src/LiteOS_Lab/iot_link/network/dtls/mbedtls/mbedtls-2.16.2/library\x509_crt.c **** }
 1138              		.loc 2 441 0 discriminator 1
 1139 0072 1846     		mov	r0, r3
 1140 0074 1837     		adds	r7, r7, #24
 1141              	.LCFI58:
 1142              		.cfi_def_cfa_offset 8
 1143 0076 BD46     		mov	sp, r7
 1144              	.LCFI59:
 1145              		.cfi_def_cfa_register 13
 1146              		@ sp needed
 1147 0078 80BD     		pop	{r7, pc}
 1148              	.L77:
 1149 007a 00BF     		.align	2
 1150              	.L76:
 1151 007c 9ADBFFFF 		.word	-9318
 1152              		.cfi_endproc
 1153              	.LFE22:
 1155              		.section	.text.x509_get_uid,"ax",%progbits
 1156              		.align	1
 1157              		.syntax unified
 1158              		.thumb
 1159              		.thumb_func
 1160              		.fpu fpv4-sp-d16
 1162              	x509_get_uid:
ARM GAS  C:\Users\dtjld\AppData\Local\Temp\ccTXdst3.s 			page 32


 1163              	.LFB23:
 442:C:/Users/dtjld/workspace/AIoT/src/LiteOS_Lab/iot_link/network/dtls/mbedtls/mbedtls-2.16.2/library\x509_crt.c **** 
 443:C:/Users/dtjld/workspace/AIoT/src/LiteOS_Lab/iot_link/network/dtls/mbedtls/mbedtls-2.16.2/library\x509_crt.c **** /*
 444:C:/Users/dtjld/workspace/AIoT/src/LiteOS_Lab/iot_link/network/dtls/mbedtls/mbedtls-2.16.2/library\x509_crt.c ****  * X.509 v2/v3 unique identifier (not parsed)
 445:C:/Users/dtjld/workspace/AIoT/src/LiteOS_Lab/iot_link/network/dtls/mbedtls/mbedtls-2.16.2/library\x509_crt.c ****  */
 446:C:/Users/dtjld/workspace/AIoT/src/LiteOS_Lab/iot_link/network/dtls/mbedtls/mbedtls-2.16.2/library\x509_crt.c **** static int x509_get_uid( unsigned char **p,
 447:C:/Users/dtjld/workspace/AIoT/src/LiteOS_Lab/iot_link/network/dtls/mbedtls/mbedtls-2.16.2/library\x509_crt.c ****                          const unsigned char *end,
 448:C:/Users/dtjld/workspace/AIoT/src/LiteOS_Lab/iot_link/network/dtls/mbedtls/mbedtls-2.16.2/library\x509_crt.c ****                          mbedtls_x509_buf *uid, int n )
 449:C:/Users/dtjld/workspace/AIoT/src/LiteOS_Lab/iot_link/network/dtls/mbedtls/mbedtls-2.16.2/library\x509_crt.c **** {
 1164              		.loc 2 449 0
 1165              		.cfi_startproc
 1166              		@ args = 0, pretend = 0, frame = 24
 1167              		@ frame_needed = 1, uses_anonymous_args = 0
 1168 0000 80B5     		push	{r7, lr}
 1169              	.LCFI60:
 1170              		.cfi_def_cfa_offset 8
 1171              		.cfi_offset 7, -8
 1172              		.cfi_offset 14, -4
 1173 0002 86B0     		sub	sp, sp, #24
 1174              	.LCFI61:
 1175              		.cfi_def_cfa_offset 32
 1176 0004 00AF     		add	r7, sp, #0
 1177              	.LCFI62:
 1178              		.cfi_def_cfa_register 7
 1179 0006 F860     		str	r0, [r7, #12]
 1180 0008 B960     		str	r1, [r7, #8]
 1181 000a 7A60     		str	r2, [r7, #4]
 1182 000c 3B60     		str	r3, [r7]
 450:C:/Users/dtjld/workspace/AIoT/src/LiteOS_Lab/iot_link/network/dtls/mbedtls/mbedtls-2.16.2/library\x509_crt.c ****     int ret;
 451:C:/Users/dtjld/workspace/AIoT/src/LiteOS_Lab/iot_link/network/dtls/mbedtls/mbedtls-2.16.2/library\x509_crt.c **** 
 452:C:/Users/dtjld/workspace/AIoT/src/LiteOS_Lab/iot_link/network/dtls/mbedtls/mbedtls-2.16.2/library\x509_crt.c ****     if( *p == end )
 1183              		.loc 2 452 0
 1184 000e FB68     		ldr	r3, [r7, #12]
 1185 0010 1B68     		ldr	r3, [r3]
 1186 0012 BA68     		ldr	r2, [r7, #8]
 1187 0014 9A42     		cmp	r2, r3
 1188 0016 01D1     		bne	.L79
 453:C:/Users/dtjld/workspace/AIoT/src/LiteOS_Lab/iot_link/network/dtls/mbedtls/mbedtls-2.16.2/library\x509_crt.c ****         return( 0 );
 1189              		.loc 2 453 0
 1190 0018 0023     		movs	r3, #0
 1191 001a 28E0     		b	.L80
 1192              	.L79:
 454:C:/Users/dtjld/workspace/AIoT/src/LiteOS_Lab/iot_link/network/dtls/mbedtls/mbedtls-2.16.2/library\x509_crt.c **** 
 455:C:/Users/dtjld/workspace/AIoT/src/LiteOS_Lab/iot_link/network/dtls/mbedtls/mbedtls-2.16.2/library\x509_crt.c ****     uid->tag = **p;
 1193              		.loc 2 455 0
 1194 001c FB68     		ldr	r3, [r7, #12]
 1195 001e 1B68     		ldr	r3, [r3]
 1196 0020 1B78     		ldrb	r3, [r3]	@ zero_extendqisi2
 1197 0022 1A46     		mov	r2, r3
 1198 0024 7B68     		ldr	r3, [r7, #4]
 1199 0026 1A60     		str	r2, [r3]
 456:C:/Users/dtjld/workspace/AIoT/src/LiteOS_Lab/iot_link/network/dtls/mbedtls/mbedtls-2.16.2/library\x509_crt.c **** 
 457:C:/Users/dtjld/workspace/AIoT/src/LiteOS_Lab/iot_link/network/dtls/mbedtls/mbedtls-2.16.2/library\x509_crt.c ****     if( ( ret = mbedtls_asn1_get_tag( p, end, &uid->len,
 1200              		.loc 2 457 0
 1201 0028 7B68     		ldr	r3, [r7, #4]
 1202 002a 1A1D     		adds	r2, r3, #4
 1203 002c 3B68     		ldr	r3, [r7]
ARM GAS  C:\Users\dtjld\AppData\Local\Temp\ccTXdst3.s 			page 33


 1204 002e 43F0A003 		orr	r3, r3, #160
 1205 0032 B968     		ldr	r1, [r7, #8]
 1206 0034 F868     		ldr	r0, [r7, #12]
 1207 0036 FFF7FEFF 		bl	mbedtls_asn1_get_tag
 1208 003a 7861     		str	r0, [r7, #20]
 1209 003c 7B69     		ldr	r3, [r7, #20]
 1210 003e 002B     		cmp	r3, #0
 1211 0040 09D0     		beq	.L81
 458:C:/Users/dtjld/workspace/AIoT/src/LiteOS_Lab/iot_link/network/dtls/mbedtls/mbedtls-2.16.2/library\x509_crt.c ****             MBEDTLS_ASN1_CONTEXT_SPECIFIC | MBEDTLS_ASN1_CONSTRUCTED | n ) ) != 0 )
 459:C:/Users/dtjld/workspace/AIoT/src/LiteOS_Lab/iot_link/network/dtls/mbedtls/mbedtls-2.16.2/library\x509_crt.c ****     {
 460:C:/Users/dtjld/workspace/AIoT/src/LiteOS_Lab/iot_link/network/dtls/mbedtls/mbedtls-2.16.2/library\x509_crt.c ****         if( ret == MBEDTLS_ERR_ASN1_UNEXPECTED_TAG )
 1212              		.loc 2 460 0
 1213 0042 7B69     		ldr	r3, [r7, #20]
 1214 0044 13F1620F 		cmn	r3, #98
 1215 0048 01D1     		bne	.L82
 461:C:/Users/dtjld/workspace/AIoT/src/LiteOS_Lab/iot_link/network/dtls/mbedtls/mbedtls-2.16.2/library\x509_crt.c ****             return( 0 );
 1216              		.loc 2 461 0
 1217 004a 0023     		movs	r3, #0
 1218 004c 0FE0     		b	.L80
 1219              	.L82:
 462:C:/Users/dtjld/workspace/AIoT/src/LiteOS_Lab/iot_link/network/dtls/mbedtls/mbedtls-2.16.2/library\x509_crt.c **** 
 463:C:/Users/dtjld/workspace/AIoT/src/LiteOS_Lab/iot_link/network/dtls/mbedtls/mbedtls-2.16.2/library\x509_crt.c ****         return( MBEDTLS_ERR_X509_INVALID_FORMAT + ret );
 1220              		.loc 2 463 0
 1221 004e 7B69     		ldr	r3, [r7, #20]
 1222 0050 A3F50653 		sub	r3, r3, #8576
 1223 0054 0BE0     		b	.L80
 1224              	.L81:
 464:C:/Users/dtjld/workspace/AIoT/src/LiteOS_Lab/iot_link/network/dtls/mbedtls/mbedtls-2.16.2/library\x509_crt.c ****     }
 465:C:/Users/dtjld/workspace/AIoT/src/LiteOS_Lab/iot_link/network/dtls/mbedtls/mbedtls-2.16.2/library\x509_crt.c **** 
 466:C:/Users/dtjld/workspace/AIoT/src/LiteOS_Lab/iot_link/network/dtls/mbedtls/mbedtls-2.16.2/library\x509_crt.c ****     uid->p = *p;
 1225              		.loc 2 466 0
 1226 0056 FB68     		ldr	r3, [r7, #12]
 1227 0058 1A68     		ldr	r2, [r3]
 1228 005a 7B68     		ldr	r3, [r7, #4]
 1229 005c 9A60     		str	r2, [r3, #8]
 467:C:/Users/dtjld/workspace/AIoT/src/LiteOS_Lab/iot_link/network/dtls/mbedtls/mbedtls-2.16.2/library\x509_crt.c ****     *p += uid->len;
 1230              		.loc 2 467 0
 1231 005e FB68     		ldr	r3, [r7, #12]
 1232 0060 1A68     		ldr	r2, [r3]
 1233 0062 7B68     		ldr	r3, [r7, #4]
 1234 0064 5B68     		ldr	r3, [r3, #4]
 1235 0066 1A44     		add	r2, r2, r3
 1236 0068 FB68     		ldr	r3, [r7, #12]
 1237 006a 1A60     		str	r2, [r3]
 468:C:/Users/dtjld/workspace/AIoT/src/LiteOS_Lab/iot_link/network/dtls/mbedtls/mbedtls-2.16.2/library\x509_crt.c **** 
 469:C:/Users/dtjld/workspace/AIoT/src/LiteOS_Lab/iot_link/network/dtls/mbedtls/mbedtls-2.16.2/library\x509_crt.c ****     return( 0 );
 1238              		.loc 2 469 0
 1239 006c 0023     		movs	r3, #0
 1240              	.L80:
 470:C:/Users/dtjld/workspace/AIoT/src/LiteOS_Lab/iot_link/network/dtls/mbedtls/mbedtls-2.16.2/library\x509_crt.c **** }
 1241              		.loc 2 470 0
 1242 006e 1846     		mov	r0, r3
 1243 0070 1837     		adds	r7, r7, #24
 1244              	.LCFI63:
 1245              		.cfi_def_cfa_offset 8
 1246 0072 BD46     		mov	sp, r7
 1247              	.LCFI64:
ARM GAS  C:\Users\dtjld\AppData\Local\Temp\ccTXdst3.s 			page 34


 1248              		.cfi_def_cfa_register 13
 1249              		@ sp needed
 1250 0074 80BD     		pop	{r7, pc}
 1251              		.cfi_endproc
 1252              	.LFE23:
 1254              		.section	.text.x509_get_basic_constraints,"ax",%progbits
 1255              		.align	1
 1256              		.syntax unified
 1257              		.thumb
 1258              		.thumb_func
 1259              		.fpu fpv4-sp-d16
 1261              	x509_get_basic_constraints:
 1262              	.LFB24:
 471:C:/Users/dtjld/workspace/AIoT/src/LiteOS_Lab/iot_link/network/dtls/mbedtls/mbedtls-2.16.2/library\x509_crt.c **** 
 472:C:/Users/dtjld/workspace/AIoT/src/LiteOS_Lab/iot_link/network/dtls/mbedtls/mbedtls-2.16.2/library\x509_crt.c **** static int x509_get_basic_constraints( unsigned char **p,
 473:C:/Users/dtjld/workspace/AIoT/src/LiteOS_Lab/iot_link/network/dtls/mbedtls/mbedtls-2.16.2/library\x509_crt.c ****                                        const unsigned char *end,
 474:C:/Users/dtjld/workspace/AIoT/src/LiteOS_Lab/iot_link/network/dtls/mbedtls/mbedtls-2.16.2/library\x509_crt.c ****                                        int *ca_istrue,
 475:C:/Users/dtjld/workspace/AIoT/src/LiteOS_Lab/iot_link/network/dtls/mbedtls/mbedtls-2.16.2/library\x509_crt.c ****                                        int *max_pathlen )
 476:C:/Users/dtjld/workspace/AIoT/src/LiteOS_Lab/iot_link/network/dtls/mbedtls/mbedtls-2.16.2/library\x509_crt.c **** {
 1263              		.loc 2 476 0
 1264              		.cfi_startproc
 1265              		@ args = 0, pretend = 0, frame = 24
 1266              		@ frame_needed = 1, uses_anonymous_args = 0
 1267 0000 80B5     		push	{r7, lr}
 1268              	.LCFI65:
 1269              		.cfi_def_cfa_offset 8
 1270              		.cfi_offset 7, -8
 1271              		.cfi_offset 14, -4
 1272 0002 86B0     		sub	sp, sp, #24
 1273              	.LCFI66:
 1274              		.cfi_def_cfa_offset 32
 1275 0004 00AF     		add	r7, sp, #0
 1276              	.LCFI67:
 1277              		.cfi_def_cfa_register 7
 1278 0006 F860     		str	r0, [r7, #12]
 1279 0008 B960     		str	r1, [r7, #8]
 1280 000a 7A60     		str	r2, [r7, #4]
 1281 000c 3B60     		str	r3, [r7]
 477:C:/Users/dtjld/workspace/AIoT/src/LiteOS_Lab/iot_link/network/dtls/mbedtls/mbedtls-2.16.2/library\x509_crt.c ****     int ret;
 478:C:/Users/dtjld/workspace/AIoT/src/LiteOS_Lab/iot_link/network/dtls/mbedtls/mbedtls-2.16.2/library\x509_crt.c ****     size_t len;
 479:C:/Users/dtjld/workspace/AIoT/src/LiteOS_Lab/iot_link/network/dtls/mbedtls/mbedtls-2.16.2/library\x509_crt.c **** 
 480:C:/Users/dtjld/workspace/AIoT/src/LiteOS_Lab/iot_link/network/dtls/mbedtls/mbedtls-2.16.2/library\x509_crt.c ****     /*
 481:C:/Users/dtjld/workspace/AIoT/src/LiteOS_Lab/iot_link/network/dtls/mbedtls/mbedtls-2.16.2/library\x509_crt.c ****      * BasicConstraints ::= SEQUENCE {
 482:C:/Users/dtjld/workspace/AIoT/src/LiteOS_Lab/iot_link/network/dtls/mbedtls/mbedtls-2.16.2/library\x509_crt.c ****      *      cA                      BOOLEAN DEFAULT FALSE,
 483:C:/Users/dtjld/workspace/AIoT/src/LiteOS_Lab/iot_link/network/dtls/mbedtls/mbedtls-2.16.2/library\x509_crt.c ****      *      pathLenConstraint       INTEGER (0..MAX) OPTIONAL }
 484:C:/Users/dtjld/workspace/AIoT/src/LiteOS_Lab/iot_link/network/dtls/mbedtls/mbedtls-2.16.2/library\x509_crt.c ****      */
 485:C:/Users/dtjld/workspace/AIoT/src/LiteOS_Lab/iot_link/network/dtls/mbedtls/mbedtls-2.16.2/library\x509_crt.c ****     *ca_istrue = 0; /* DEFAULT FALSE */
 1282              		.loc 2 485 0
 1283 000e 7B68     		ldr	r3, [r7, #4]
 1284 0010 0022     		movs	r2, #0
 1285 0012 1A60     		str	r2, [r3]
 486:C:/Users/dtjld/workspace/AIoT/src/LiteOS_Lab/iot_link/network/dtls/mbedtls/mbedtls-2.16.2/library\x509_crt.c ****     *max_pathlen = 0; /* endless */
 1286              		.loc 2 486 0
 1287 0014 3B68     		ldr	r3, [r7]
 1288 0016 0022     		movs	r2, #0
 1289 0018 1A60     		str	r2, [r3]
 487:C:/Users/dtjld/workspace/AIoT/src/LiteOS_Lab/iot_link/network/dtls/mbedtls/mbedtls-2.16.2/library\x509_crt.c **** 
ARM GAS  C:\Users\dtjld\AppData\Local\Temp\ccTXdst3.s 			page 35


 488:C:/Users/dtjld/workspace/AIoT/src/LiteOS_Lab/iot_link/network/dtls/mbedtls/mbedtls-2.16.2/library\x509_crt.c ****     if( ( ret = mbedtls_asn1_get_tag( p, end, &len,
 1290              		.loc 2 488 0
 1291 001a 07F11002 		add	r2, r7, #16
 1292 001e 3023     		movs	r3, #48
 1293 0020 B968     		ldr	r1, [r7, #8]
 1294 0022 F868     		ldr	r0, [r7, #12]
 1295 0024 FFF7FEFF 		bl	mbedtls_asn1_get_tag
 1296 0028 7861     		str	r0, [r7, #20]
 1297 002a 7B69     		ldr	r3, [r7, #20]
 1298 002c 002B     		cmp	r3, #0
 1299 002e 03D0     		beq	.L84
 489:C:/Users/dtjld/workspace/AIoT/src/LiteOS_Lab/iot_link/network/dtls/mbedtls/mbedtls-2.16.2/library\x509_crt.c ****             MBEDTLS_ASN1_CONSTRUCTED | MBEDTLS_ASN1_SEQUENCE ) ) != 0 )
 490:C:/Users/dtjld/workspace/AIoT/src/LiteOS_Lab/iot_link/network/dtls/mbedtls/mbedtls-2.16.2/library\x509_crt.c ****         return( MBEDTLS_ERR_X509_INVALID_EXTENSIONS + ret );
 1300              		.loc 2 490 0
 1301 0030 7B69     		ldr	r3, [r7, #20]
 1302 0032 A3F51453 		sub	r3, r3, #9472
 1303 0036 48E0     		b	.L93
 1304              	.L84:
 491:C:/Users/dtjld/workspace/AIoT/src/LiteOS_Lab/iot_link/network/dtls/mbedtls/mbedtls-2.16.2/library\x509_crt.c **** 
 492:C:/Users/dtjld/workspace/AIoT/src/LiteOS_Lab/iot_link/network/dtls/mbedtls/mbedtls-2.16.2/library\x509_crt.c ****     if( *p == end )
 1305              		.loc 2 492 0
 1306 0038 FB68     		ldr	r3, [r7, #12]
 1307 003a 1B68     		ldr	r3, [r3]
 1308 003c BA68     		ldr	r2, [r7, #8]
 1309 003e 9A42     		cmp	r2, r3
 1310 0040 01D1     		bne	.L86
 493:C:/Users/dtjld/workspace/AIoT/src/LiteOS_Lab/iot_link/network/dtls/mbedtls/mbedtls-2.16.2/library\x509_crt.c ****         return( 0 );
 1311              		.loc 2 493 0
 1312 0042 0023     		movs	r3, #0
 1313 0044 41E0     		b	.L93
 1314              	.L86:
 494:C:/Users/dtjld/workspace/AIoT/src/LiteOS_Lab/iot_link/network/dtls/mbedtls/mbedtls-2.16.2/library\x509_crt.c **** 
 495:C:/Users/dtjld/workspace/AIoT/src/LiteOS_Lab/iot_link/network/dtls/mbedtls/mbedtls-2.16.2/library\x509_crt.c ****     if( ( ret = mbedtls_asn1_get_bool( p, end, ca_istrue ) ) != 0 )
 1315              		.loc 2 495 0
 1316 0046 7A68     		ldr	r2, [r7, #4]
 1317 0048 B968     		ldr	r1, [r7, #8]
 1318 004a F868     		ldr	r0, [r7, #12]
 1319 004c FFF7FEFF 		bl	mbedtls_asn1_get_bool
 1320 0050 7861     		str	r0, [r7, #20]
 1321 0052 7B69     		ldr	r3, [r7, #20]
 1322 0054 002B     		cmp	r3, #0
 1323 0056 17D0     		beq	.L87
 496:C:/Users/dtjld/workspace/AIoT/src/LiteOS_Lab/iot_link/network/dtls/mbedtls/mbedtls-2.16.2/library\x509_crt.c ****     {
 497:C:/Users/dtjld/workspace/AIoT/src/LiteOS_Lab/iot_link/network/dtls/mbedtls/mbedtls-2.16.2/library\x509_crt.c ****         if( ret == MBEDTLS_ERR_ASN1_UNEXPECTED_TAG )
 1324              		.loc 2 497 0
 1325 0058 7B69     		ldr	r3, [r7, #20]
 1326 005a 13F1620F 		cmn	r3, #98
 1327 005e 05D1     		bne	.L88
 498:C:/Users/dtjld/workspace/AIoT/src/LiteOS_Lab/iot_link/network/dtls/mbedtls/mbedtls-2.16.2/library\x509_crt.c ****             ret = mbedtls_asn1_get_int( p, end, ca_istrue );
 1328              		.loc 2 498 0
 1329 0060 7A68     		ldr	r2, [r7, #4]
 1330 0062 B968     		ldr	r1, [r7, #8]
 1331 0064 F868     		ldr	r0, [r7, #12]
 1332 0066 FFF7FEFF 		bl	mbedtls_asn1_get_int
 1333 006a 7861     		str	r0, [r7, #20]
 1334              	.L88:
 499:C:/Users/dtjld/workspace/AIoT/src/LiteOS_Lab/iot_link/network/dtls/mbedtls/mbedtls-2.16.2/library\x509_crt.c **** 
ARM GAS  C:\Users\dtjld\AppData\Local\Temp\ccTXdst3.s 			page 36


 500:C:/Users/dtjld/workspace/AIoT/src/LiteOS_Lab/iot_link/network/dtls/mbedtls/mbedtls-2.16.2/library\x509_crt.c ****         if( ret != 0 )
 1335              		.loc 2 500 0
 1336 006c 7B69     		ldr	r3, [r7, #20]
 1337 006e 002B     		cmp	r3, #0
 1338 0070 03D0     		beq	.L89
 501:C:/Users/dtjld/workspace/AIoT/src/LiteOS_Lab/iot_link/network/dtls/mbedtls/mbedtls-2.16.2/library\x509_crt.c ****             return( MBEDTLS_ERR_X509_INVALID_EXTENSIONS + ret );
 1339              		.loc 2 501 0
 1340 0072 7B69     		ldr	r3, [r7, #20]
 1341 0074 A3F51453 		sub	r3, r3, #9472
 1342 0078 27E0     		b	.L93
 1343              	.L89:
 502:C:/Users/dtjld/workspace/AIoT/src/LiteOS_Lab/iot_link/network/dtls/mbedtls/mbedtls-2.16.2/library\x509_crt.c **** 
 503:C:/Users/dtjld/workspace/AIoT/src/LiteOS_Lab/iot_link/network/dtls/mbedtls/mbedtls-2.16.2/library\x509_crt.c ****         if( *ca_istrue != 0 )
 1344              		.loc 2 503 0
 1345 007a 7B68     		ldr	r3, [r7, #4]
 1346 007c 1B68     		ldr	r3, [r3]
 1347 007e 002B     		cmp	r3, #0
 1348 0080 02D0     		beq	.L87
 504:C:/Users/dtjld/workspace/AIoT/src/LiteOS_Lab/iot_link/network/dtls/mbedtls/mbedtls-2.16.2/library\x509_crt.c ****             *ca_istrue = 1;
 1349              		.loc 2 504 0
 1350 0082 7B68     		ldr	r3, [r7, #4]
 1351 0084 0122     		movs	r2, #1
 1352 0086 1A60     		str	r2, [r3]
 1353              	.L87:
 505:C:/Users/dtjld/workspace/AIoT/src/LiteOS_Lab/iot_link/network/dtls/mbedtls/mbedtls-2.16.2/library\x509_crt.c ****     }
 506:C:/Users/dtjld/workspace/AIoT/src/LiteOS_Lab/iot_link/network/dtls/mbedtls/mbedtls-2.16.2/library\x509_crt.c **** 
 507:C:/Users/dtjld/workspace/AIoT/src/LiteOS_Lab/iot_link/network/dtls/mbedtls/mbedtls-2.16.2/library\x509_crt.c ****     if( *p == end )
 1354              		.loc 2 507 0
 1355 0088 FB68     		ldr	r3, [r7, #12]
 1356 008a 1B68     		ldr	r3, [r3]
 1357 008c BA68     		ldr	r2, [r7, #8]
 1358 008e 9A42     		cmp	r2, r3
 1359 0090 01D1     		bne	.L90
 508:C:/Users/dtjld/workspace/AIoT/src/LiteOS_Lab/iot_link/network/dtls/mbedtls/mbedtls-2.16.2/library\x509_crt.c ****         return( 0 );
 1360              		.loc 2 508 0
 1361 0092 0023     		movs	r3, #0
 1362 0094 19E0     		b	.L93
 1363              	.L90:
 509:C:/Users/dtjld/workspace/AIoT/src/LiteOS_Lab/iot_link/network/dtls/mbedtls/mbedtls-2.16.2/library\x509_crt.c **** 
 510:C:/Users/dtjld/workspace/AIoT/src/LiteOS_Lab/iot_link/network/dtls/mbedtls/mbedtls-2.16.2/library\x509_crt.c ****     if( ( ret = mbedtls_asn1_get_int( p, end, max_pathlen ) ) != 0 )
 1364              		.loc 2 510 0
 1365 0096 3A68     		ldr	r2, [r7]
 1366 0098 B968     		ldr	r1, [r7, #8]
 1367 009a F868     		ldr	r0, [r7, #12]
 1368 009c FFF7FEFF 		bl	mbedtls_asn1_get_int
 1369 00a0 7861     		str	r0, [r7, #20]
 1370 00a2 7B69     		ldr	r3, [r7, #20]
 1371 00a4 002B     		cmp	r3, #0
 1372 00a6 03D0     		beq	.L91
 511:C:/Users/dtjld/workspace/AIoT/src/LiteOS_Lab/iot_link/network/dtls/mbedtls/mbedtls-2.16.2/library\x509_crt.c ****         return( MBEDTLS_ERR_X509_INVALID_EXTENSIONS + ret );
 1373              		.loc 2 511 0
 1374 00a8 7B69     		ldr	r3, [r7, #20]
 1375 00aa A3F51453 		sub	r3, r3, #9472
 1376 00ae 0CE0     		b	.L93
 1377              	.L91:
 512:C:/Users/dtjld/workspace/AIoT/src/LiteOS_Lab/iot_link/network/dtls/mbedtls/mbedtls-2.16.2/library\x509_crt.c **** 
 513:C:/Users/dtjld/workspace/AIoT/src/LiteOS_Lab/iot_link/network/dtls/mbedtls/mbedtls-2.16.2/library\x509_crt.c ****     if( *p != end )
ARM GAS  C:\Users\dtjld\AppData\Local\Temp\ccTXdst3.s 			page 37


 1378              		.loc 2 513 0
 1379 00b0 FB68     		ldr	r3, [r7, #12]
 1380 00b2 1B68     		ldr	r3, [r3]
 1381 00b4 BA68     		ldr	r2, [r7, #8]
 1382 00b6 9A42     		cmp	r2, r3
 1383 00b8 01D0     		beq	.L92
 514:C:/Users/dtjld/workspace/AIoT/src/LiteOS_Lab/iot_link/network/dtls/mbedtls/mbedtls-2.16.2/library\x509_crt.c ****         return( MBEDTLS_ERR_X509_INVALID_EXTENSIONS +
 1384              		.loc 2 514 0
 1385 00ba 064B     		ldr	r3, .L94
 1386 00bc 05E0     		b	.L93
 1387              	.L92:
 515:C:/Users/dtjld/workspace/AIoT/src/LiteOS_Lab/iot_link/network/dtls/mbedtls/mbedtls-2.16.2/library\x509_crt.c ****                 MBEDTLS_ERR_ASN1_LENGTH_MISMATCH );
 516:C:/Users/dtjld/workspace/AIoT/src/LiteOS_Lab/iot_link/network/dtls/mbedtls/mbedtls-2.16.2/library\x509_crt.c **** 
 517:C:/Users/dtjld/workspace/AIoT/src/LiteOS_Lab/iot_link/network/dtls/mbedtls/mbedtls-2.16.2/library\x509_crt.c ****     (*max_pathlen)++;
 1388              		.loc 2 517 0
 1389 00be 3B68     		ldr	r3, [r7]
 1390 00c0 1B68     		ldr	r3, [r3]
 1391 00c2 5A1C     		adds	r2, r3, #1
 1392 00c4 3B68     		ldr	r3, [r7]
 1393 00c6 1A60     		str	r2, [r3]
 518:C:/Users/dtjld/workspace/AIoT/src/LiteOS_Lab/iot_link/network/dtls/mbedtls/mbedtls-2.16.2/library\x509_crt.c **** 
 519:C:/Users/dtjld/workspace/AIoT/src/LiteOS_Lab/iot_link/network/dtls/mbedtls/mbedtls-2.16.2/library\x509_crt.c ****     return( 0 );
 1394              		.loc 2 519 0
 1395 00c8 0023     		movs	r3, #0
 1396              	.L93:
 520:C:/Users/dtjld/workspace/AIoT/src/LiteOS_Lab/iot_link/network/dtls/mbedtls/mbedtls-2.16.2/library\x509_crt.c **** }
 1397              		.loc 2 520 0 discriminator 1
 1398 00ca 1846     		mov	r0, r3
 1399 00cc 1837     		adds	r7, r7, #24
 1400              	.LCFI68:
 1401              		.cfi_def_cfa_offset 8
 1402 00ce BD46     		mov	sp, r7
 1403              	.LCFI69:
 1404              		.cfi_def_cfa_register 13
 1405              		@ sp needed
 1406 00d0 80BD     		pop	{r7, pc}
 1407              	.L95:
 1408 00d2 00BF     		.align	2
 1409              	.L94:
 1410 00d4 9ADAFFFF 		.word	-9574
 1411              		.cfi_endproc
 1412              	.LFE24:
 1414              		.section	.text.x509_get_ns_cert_type,"ax",%progbits
 1415              		.align	1
 1416              		.syntax unified
 1417              		.thumb
 1418              		.thumb_func
 1419              		.fpu fpv4-sp-d16
 1421              	x509_get_ns_cert_type:
 1422              	.LFB25:
 521:C:/Users/dtjld/workspace/AIoT/src/LiteOS_Lab/iot_link/network/dtls/mbedtls/mbedtls-2.16.2/library\x509_crt.c **** 
 522:C:/Users/dtjld/workspace/AIoT/src/LiteOS_Lab/iot_link/network/dtls/mbedtls/mbedtls-2.16.2/library\x509_crt.c **** static int x509_get_ns_cert_type( unsigned char **p,
 523:C:/Users/dtjld/workspace/AIoT/src/LiteOS_Lab/iot_link/network/dtls/mbedtls/mbedtls-2.16.2/library\x509_crt.c ****                                        const unsigned char *end,
 524:C:/Users/dtjld/workspace/AIoT/src/LiteOS_Lab/iot_link/network/dtls/mbedtls/mbedtls-2.16.2/library\x509_crt.c ****                                        unsigned char *ns_cert_type)
 525:C:/Users/dtjld/workspace/AIoT/src/LiteOS_Lab/iot_link/network/dtls/mbedtls/mbedtls-2.16.2/library\x509_crt.c **** {
 1423              		.loc 2 525 0
 1424              		.cfi_startproc
ARM GAS  C:\Users\dtjld\AppData\Local\Temp\ccTXdst3.s 			page 38


 1425              		@ args = 0, pretend = 0, frame = 32
 1426              		@ frame_needed = 1, uses_anonymous_args = 0
 1427 0000 80B5     		push	{r7, lr}
 1428              	.LCFI70:
 1429              		.cfi_def_cfa_offset 8
 1430              		.cfi_offset 7, -8
 1431              		.cfi_offset 14, -4
 1432 0002 88B0     		sub	sp, sp, #32
 1433              	.LCFI71:
 1434              		.cfi_def_cfa_offset 40
 1435 0004 00AF     		add	r7, sp, #0
 1436              	.LCFI72:
 1437              		.cfi_def_cfa_register 7
 1438 0006 F860     		str	r0, [r7, #12]
 1439 0008 B960     		str	r1, [r7, #8]
 1440 000a 7A60     		str	r2, [r7, #4]
 526:C:/Users/dtjld/workspace/AIoT/src/LiteOS_Lab/iot_link/network/dtls/mbedtls/mbedtls-2.16.2/library\x509_crt.c ****     int ret;
 527:C:/Users/dtjld/workspace/AIoT/src/LiteOS_Lab/iot_link/network/dtls/mbedtls/mbedtls-2.16.2/library\x509_crt.c ****     mbedtls_x509_bitstring bs = { 0, 0, NULL };
 1441              		.loc 2 527 0
 1442 000c 0023     		movs	r3, #0
 1443 000e 3B61     		str	r3, [r7, #16]
 1444 0010 0023     		movs	r3, #0
 1445 0012 3B75     		strb	r3, [r7, #20]
 1446 0014 0023     		movs	r3, #0
 1447 0016 BB61     		str	r3, [r7, #24]
 528:C:/Users/dtjld/workspace/AIoT/src/LiteOS_Lab/iot_link/network/dtls/mbedtls/mbedtls-2.16.2/library\x509_crt.c **** 
 529:C:/Users/dtjld/workspace/AIoT/src/LiteOS_Lab/iot_link/network/dtls/mbedtls/mbedtls-2.16.2/library\x509_crt.c ****     if( ( ret = mbedtls_asn1_get_bitstring( p, end, &bs ) ) != 0 )
 1448              		.loc 2 529 0
 1449 0018 07F11003 		add	r3, r7, #16
 1450 001c 1A46     		mov	r2, r3
 1451 001e B968     		ldr	r1, [r7, #8]
 1452 0020 F868     		ldr	r0, [r7, #12]
 1453 0022 FFF7FEFF 		bl	mbedtls_asn1_get_bitstring
 1454 0026 F861     		str	r0, [r7, #28]
 1455 0028 FB69     		ldr	r3, [r7, #28]
 1456 002a 002B     		cmp	r3, #0
 1457 002c 03D0     		beq	.L97
 530:C:/Users/dtjld/workspace/AIoT/src/LiteOS_Lab/iot_link/network/dtls/mbedtls/mbedtls-2.16.2/library\x509_crt.c ****         return( MBEDTLS_ERR_X509_INVALID_EXTENSIONS + ret );
 1458              		.loc 2 530 0
 1459 002e FB69     		ldr	r3, [r7, #28]
 1460 0030 A3F51453 		sub	r3, r3, #9472
 1461 0034 09E0     		b	.L100
 1462              	.L97:
 531:C:/Users/dtjld/workspace/AIoT/src/LiteOS_Lab/iot_link/network/dtls/mbedtls/mbedtls-2.16.2/library\x509_crt.c **** 
 532:C:/Users/dtjld/workspace/AIoT/src/LiteOS_Lab/iot_link/network/dtls/mbedtls/mbedtls-2.16.2/library\x509_crt.c ****     if( bs.len != 1 )
 1463              		.loc 2 532 0
 1464 0036 3B69     		ldr	r3, [r7, #16]
 1465 0038 012B     		cmp	r3, #1
 1466 003a 01D0     		beq	.L99
 533:C:/Users/dtjld/workspace/AIoT/src/LiteOS_Lab/iot_link/network/dtls/mbedtls/mbedtls-2.16.2/library\x509_crt.c ****         return( MBEDTLS_ERR_X509_INVALID_EXTENSIONS +
 1467              		.loc 2 533 0
 1468 003c 054B     		ldr	r3, .L101
 1469 003e 04E0     		b	.L100
 1470              	.L99:
 534:C:/Users/dtjld/workspace/AIoT/src/LiteOS_Lab/iot_link/network/dtls/mbedtls/mbedtls-2.16.2/library\x509_crt.c ****                 MBEDTLS_ERR_ASN1_INVALID_LENGTH );
 535:C:/Users/dtjld/workspace/AIoT/src/LiteOS_Lab/iot_link/network/dtls/mbedtls/mbedtls-2.16.2/library\x509_crt.c **** 
 536:C:/Users/dtjld/workspace/AIoT/src/LiteOS_Lab/iot_link/network/dtls/mbedtls/mbedtls-2.16.2/library\x509_crt.c ****     /* Get actual bitstring */
ARM GAS  C:\Users\dtjld\AppData\Local\Temp\ccTXdst3.s 			page 39


 537:C:/Users/dtjld/workspace/AIoT/src/LiteOS_Lab/iot_link/network/dtls/mbedtls/mbedtls-2.16.2/library\x509_crt.c ****     *ns_cert_type = *bs.p;
 1471              		.loc 2 537 0
 1472 0040 BB69     		ldr	r3, [r7, #24]
 1473 0042 1A78     		ldrb	r2, [r3]	@ zero_extendqisi2
 1474 0044 7B68     		ldr	r3, [r7, #4]
 1475 0046 1A70     		strb	r2, [r3]
 538:C:/Users/dtjld/workspace/AIoT/src/LiteOS_Lab/iot_link/network/dtls/mbedtls/mbedtls-2.16.2/library\x509_crt.c ****     return( 0 );
 1476              		.loc 2 538 0
 1477 0048 0023     		movs	r3, #0
 1478              	.L100:
 539:C:/Users/dtjld/workspace/AIoT/src/LiteOS_Lab/iot_link/network/dtls/mbedtls/mbedtls-2.16.2/library\x509_crt.c **** }
 1479              		.loc 2 539 0 discriminator 1
 1480 004a 1846     		mov	r0, r3
 1481 004c 2037     		adds	r7, r7, #32
 1482              	.LCFI73:
 1483              		.cfi_def_cfa_offset 8
 1484 004e BD46     		mov	sp, r7
 1485              	.LCFI74:
 1486              		.cfi_def_cfa_register 13
 1487              		@ sp needed
 1488 0050 80BD     		pop	{r7, pc}
 1489              	.L102:
 1490 0052 00BF     		.align	2
 1491              	.L101:
 1492 0054 9CDAFFFF 		.word	-9572
 1493              		.cfi_endproc
 1494              	.LFE25:
 1496              		.section	.text.x509_get_key_usage,"ax",%progbits
 1497              		.align	1
 1498              		.syntax unified
 1499              		.thumb
 1500              		.thumb_func
 1501              		.fpu fpv4-sp-d16
 1503              	x509_get_key_usage:
 1504              	.LFB26:
 540:C:/Users/dtjld/workspace/AIoT/src/LiteOS_Lab/iot_link/network/dtls/mbedtls/mbedtls-2.16.2/library\x509_crt.c **** 
 541:C:/Users/dtjld/workspace/AIoT/src/LiteOS_Lab/iot_link/network/dtls/mbedtls/mbedtls-2.16.2/library\x509_crt.c **** static int x509_get_key_usage( unsigned char **p,
 542:C:/Users/dtjld/workspace/AIoT/src/LiteOS_Lab/iot_link/network/dtls/mbedtls/mbedtls-2.16.2/library\x509_crt.c ****                                const unsigned char *end,
 543:C:/Users/dtjld/workspace/AIoT/src/LiteOS_Lab/iot_link/network/dtls/mbedtls/mbedtls-2.16.2/library\x509_crt.c ****                                unsigned int *key_usage)
 544:C:/Users/dtjld/workspace/AIoT/src/LiteOS_Lab/iot_link/network/dtls/mbedtls/mbedtls-2.16.2/library\x509_crt.c **** {
 1505              		.loc 2 544 0
 1506              		.cfi_startproc
 1507              		@ args = 0, pretend = 0, frame = 40
 1508              		@ frame_needed = 1, uses_anonymous_args = 0
 1509 0000 80B5     		push	{r7, lr}
 1510              	.LCFI75:
 1511              		.cfi_def_cfa_offset 8
 1512              		.cfi_offset 7, -8
 1513              		.cfi_offset 14, -4
 1514 0002 8AB0     		sub	sp, sp, #40
 1515              	.LCFI76:
 1516              		.cfi_def_cfa_offset 48
 1517 0004 00AF     		add	r7, sp, #0
 1518              	.LCFI77:
 1519              		.cfi_def_cfa_register 7
 1520 0006 F860     		str	r0, [r7, #12]
 1521 0008 B960     		str	r1, [r7, #8]
ARM GAS  C:\Users\dtjld\AppData\Local\Temp\ccTXdst3.s 			page 40


 1522 000a 7A60     		str	r2, [r7, #4]
 545:C:/Users/dtjld/workspace/AIoT/src/LiteOS_Lab/iot_link/network/dtls/mbedtls/mbedtls-2.16.2/library\x509_crt.c ****     int ret;
 546:C:/Users/dtjld/workspace/AIoT/src/LiteOS_Lab/iot_link/network/dtls/mbedtls/mbedtls-2.16.2/library\x509_crt.c ****     size_t i;
 547:C:/Users/dtjld/workspace/AIoT/src/LiteOS_Lab/iot_link/network/dtls/mbedtls/mbedtls-2.16.2/library\x509_crt.c ****     mbedtls_x509_bitstring bs = { 0, 0, NULL };
 1523              		.loc 2 547 0
 1524 000c 0023     		movs	r3, #0
 1525 000e 7B61     		str	r3, [r7, #20]
 1526 0010 0023     		movs	r3, #0
 1527 0012 3B76     		strb	r3, [r7, #24]
 1528 0014 0023     		movs	r3, #0
 1529 0016 FB61     		str	r3, [r7, #28]
 548:C:/Users/dtjld/workspace/AIoT/src/LiteOS_Lab/iot_link/network/dtls/mbedtls/mbedtls-2.16.2/library\x509_crt.c **** 
 549:C:/Users/dtjld/workspace/AIoT/src/LiteOS_Lab/iot_link/network/dtls/mbedtls/mbedtls-2.16.2/library\x509_crt.c ****     if( ( ret = mbedtls_asn1_get_bitstring( p, end, &bs ) ) != 0 )
 1530              		.loc 2 549 0
 1531 0018 07F11403 		add	r3, r7, #20
 1532 001c 1A46     		mov	r2, r3
 1533 001e B968     		ldr	r1, [r7, #8]
 1534 0020 F868     		ldr	r0, [r7, #12]
 1535 0022 FFF7FEFF 		bl	mbedtls_asn1_get_bitstring
 1536 0026 3862     		str	r0, [r7, #32]
 1537 0028 3B6A     		ldr	r3, [r7, #32]
 1538 002a 002B     		cmp	r3, #0
 1539 002c 03D0     		beq	.L104
 550:C:/Users/dtjld/workspace/AIoT/src/LiteOS_Lab/iot_link/network/dtls/mbedtls/mbedtls-2.16.2/library\x509_crt.c ****         return( MBEDTLS_ERR_X509_INVALID_EXTENSIONS + ret );
 1540              		.loc 2 550 0
 1541 002e 3B6A     		ldr	r3, [r7, #32]
 1542 0030 A3F51453 		sub	r3, r3, #9472
 1543 0034 23E0     		b	.L110
 1544              	.L104:
 551:C:/Users/dtjld/workspace/AIoT/src/LiteOS_Lab/iot_link/network/dtls/mbedtls/mbedtls-2.16.2/library\x509_crt.c **** 
 552:C:/Users/dtjld/workspace/AIoT/src/LiteOS_Lab/iot_link/network/dtls/mbedtls/mbedtls-2.16.2/library\x509_crt.c ****     if( bs.len < 1 )
 1545              		.loc 2 552 0
 1546 0036 7B69     		ldr	r3, [r7, #20]
 1547 0038 002B     		cmp	r3, #0
 1548 003a 01D1     		bne	.L106
 553:C:/Users/dtjld/workspace/AIoT/src/LiteOS_Lab/iot_link/network/dtls/mbedtls/mbedtls-2.16.2/library\x509_crt.c ****         return( MBEDTLS_ERR_X509_INVALID_EXTENSIONS +
 1549              		.loc 2 553 0
 1550 003c 124B     		ldr	r3, .L111
 1551 003e 1EE0     		b	.L110
 1552              	.L106:
 554:C:/Users/dtjld/workspace/AIoT/src/LiteOS_Lab/iot_link/network/dtls/mbedtls/mbedtls-2.16.2/library\x509_crt.c ****                 MBEDTLS_ERR_ASN1_INVALID_LENGTH );
 555:C:/Users/dtjld/workspace/AIoT/src/LiteOS_Lab/iot_link/network/dtls/mbedtls/mbedtls-2.16.2/library\x509_crt.c **** 
 556:C:/Users/dtjld/workspace/AIoT/src/LiteOS_Lab/iot_link/network/dtls/mbedtls/mbedtls-2.16.2/library\x509_crt.c ****     /* Get actual bitstring */
 557:C:/Users/dtjld/workspace/AIoT/src/LiteOS_Lab/iot_link/network/dtls/mbedtls/mbedtls-2.16.2/library\x509_crt.c ****     *key_usage = 0;
 1553              		.loc 2 557 0
 1554 0040 7B68     		ldr	r3, [r7, #4]
 1555 0042 0022     		movs	r2, #0
 1556 0044 1A60     		str	r2, [r3]
 558:C:/Users/dtjld/workspace/AIoT/src/LiteOS_Lab/iot_link/network/dtls/mbedtls/mbedtls-2.16.2/library\x509_crt.c ****     for( i = 0; i < bs.len && i < sizeof( unsigned int ); i++ )
 1557              		.loc 2 558 0
 1558 0046 0023     		movs	r3, #0
 1559 0048 7B62     		str	r3, [r7, #36]
 1560 004a 10E0     		b	.L107
 1561              	.L109:
 559:C:/Users/dtjld/workspace/AIoT/src/LiteOS_Lab/iot_link/network/dtls/mbedtls/mbedtls-2.16.2/library\x509_crt.c ****     {
 560:C:/Users/dtjld/workspace/AIoT/src/LiteOS_Lab/iot_link/network/dtls/mbedtls/mbedtls-2.16.2/library\x509_crt.c ****         *key_usage |= (unsigned int) bs.p[i] << (8*i);
 1562              		.loc 2 560 0 discriminator 4
ARM GAS  C:\Users\dtjld\AppData\Local\Temp\ccTXdst3.s 			page 41


 1563 004c 7B68     		ldr	r3, [r7, #4]
 1564 004e 1A68     		ldr	r2, [r3]
 1565 0050 F969     		ldr	r1, [r7, #28]
 1566 0052 7B6A     		ldr	r3, [r7, #36]
 1567 0054 0B44     		add	r3, r3, r1
 1568 0056 1B78     		ldrb	r3, [r3]	@ zero_extendqisi2
 1569 0058 1946     		mov	r1, r3
 1570 005a 7B6A     		ldr	r3, [r7, #36]
 1571 005c DB00     		lsls	r3, r3, #3
 1572 005e 01FA03F3 		lsl	r3, r1, r3
 1573 0062 1A43     		orrs	r2, r2, r3
 1574 0064 7B68     		ldr	r3, [r7, #4]
 1575 0066 1A60     		str	r2, [r3]
 558:C:/Users/dtjld/workspace/AIoT/src/LiteOS_Lab/iot_link/network/dtls/mbedtls/mbedtls-2.16.2/library\x509_crt.c ****     for( i = 0; i < bs.len && i < sizeof( unsigned int ); i++ )
 1576              		.loc 2 558 0 discriminator 4
 1577 0068 7B6A     		ldr	r3, [r7, #36]
 1578 006a 0133     		adds	r3, r3, #1
 1579 006c 7B62     		str	r3, [r7, #36]
 1580              	.L107:
 558:C:/Users/dtjld/workspace/AIoT/src/LiteOS_Lab/iot_link/network/dtls/mbedtls/mbedtls-2.16.2/library\x509_crt.c ****     for( i = 0; i < bs.len && i < sizeof( unsigned int ); i++ )
 1581              		.loc 2 558 0 is_stmt 0 discriminator 1
 1582 006e 7B69     		ldr	r3, [r7, #20]
 1583 0070 7A6A     		ldr	r2, [r7, #36]
 1584 0072 9A42     		cmp	r2, r3
 1585 0074 02D2     		bcs	.L108
 558:C:/Users/dtjld/workspace/AIoT/src/LiteOS_Lab/iot_link/network/dtls/mbedtls/mbedtls-2.16.2/library\x509_crt.c ****     for( i = 0; i < bs.len && i < sizeof( unsigned int ); i++ )
 1586              		.loc 2 558 0 discriminator 3
 1587 0076 7B6A     		ldr	r3, [r7, #36]
 1588 0078 032B     		cmp	r3, #3
 1589 007a E7D9     		bls	.L109
 1590              	.L108:
 561:C:/Users/dtjld/workspace/AIoT/src/LiteOS_Lab/iot_link/network/dtls/mbedtls/mbedtls-2.16.2/library\x509_crt.c ****     }
 562:C:/Users/dtjld/workspace/AIoT/src/LiteOS_Lab/iot_link/network/dtls/mbedtls/mbedtls-2.16.2/library\x509_crt.c **** 
 563:C:/Users/dtjld/workspace/AIoT/src/LiteOS_Lab/iot_link/network/dtls/mbedtls/mbedtls-2.16.2/library\x509_crt.c ****     return( 0 );
 1591              		.loc 2 563 0 is_stmt 1
 1592 007c 0023     		movs	r3, #0
 1593              	.L110:
 564:C:/Users/dtjld/workspace/AIoT/src/LiteOS_Lab/iot_link/network/dtls/mbedtls/mbedtls-2.16.2/library\x509_crt.c **** }
 1594              		.loc 2 564 0 discriminator 1
 1595 007e 1846     		mov	r0, r3
 1596 0080 2837     		adds	r7, r7, #40
 1597              	.LCFI78:
 1598              		.cfi_def_cfa_offset 8
 1599 0082 BD46     		mov	sp, r7
 1600              	.LCFI79:
 1601              		.cfi_def_cfa_register 13
 1602              		@ sp needed
 1603 0084 80BD     		pop	{r7, pc}
 1604              	.L112:
 1605 0086 00BF     		.align	2
 1606              	.L111:
 1607 0088 9CDAFFFF 		.word	-9572
 1608              		.cfi_endproc
 1609              	.LFE26:
 1611              		.section	.text.x509_get_ext_key_usage,"ax",%progbits
 1612              		.align	1
 1613              		.syntax unified
ARM GAS  C:\Users\dtjld\AppData\Local\Temp\ccTXdst3.s 			page 42


 1614              		.thumb
 1615              		.thumb_func
 1616              		.fpu fpv4-sp-d16
 1618              	x509_get_ext_key_usage:
 1619              	.LFB27:
 565:C:/Users/dtjld/workspace/AIoT/src/LiteOS_Lab/iot_link/network/dtls/mbedtls/mbedtls-2.16.2/library\x509_crt.c **** 
 566:C:/Users/dtjld/workspace/AIoT/src/LiteOS_Lab/iot_link/network/dtls/mbedtls/mbedtls-2.16.2/library\x509_crt.c **** /*
 567:C:/Users/dtjld/workspace/AIoT/src/LiteOS_Lab/iot_link/network/dtls/mbedtls/mbedtls-2.16.2/library\x509_crt.c ****  * ExtKeyUsageSyntax ::= SEQUENCE SIZE (1..MAX) OF KeyPurposeId
 568:C:/Users/dtjld/workspace/AIoT/src/LiteOS_Lab/iot_link/network/dtls/mbedtls/mbedtls-2.16.2/library\x509_crt.c ****  *
 569:C:/Users/dtjld/workspace/AIoT/src/LiteOS_Lab/iot_link/network/dtls/mbedtls/mbedtls-2.16.2/library\x509_crt.c ****  * KeyPurposeId ::= OBJECT IDENTIFIER
 570:C:/Users/dtjld/workspace/AIoT/src/LiteOS_Lab/iot_link/network/dtls/mbedtls/mbedtls-2.16.2/library\x509_crt.c ****  */
 571:C:/Users/dtjld/workspace/AIoT/src/LiteOS_Lab/iot_link/network/dtls/mbedtls/mbedtls-2.16.2/library\x509_crt.c **** static int x509_get_ext_key_usage( unsigned char **p,
 572:C:/Users/dtjld/workspace/AIoT/src/LiteOS_Lab/iot_link/network/dtls/mbedtls/mbedtls-2.16.2/library\x509_crt.c ****                                const unsigned char *end,
 573:C:/Users/dtjld/workspace/AIoT/src/LiteOS_Lab/iot_link/network/dtls/mbedtls/mbedtls-2.16.2/library\x509_crt.c ****                                mbedtls_x509_sequence *ext_key_usage)
 574:C:/Users/dtjld/workspace/AIoT/src/LiteOS_Lab/iot_link/network/dtls/mbedtls/mbedtls-2.16.2/library\x509_crt.c **** {
 1620              		.loc 2 574 0
 1621              		.cfi_startproc
 1622              		@ args = 0, pretend = 0, frame = 24
 1623              		@ frame_needed = 1, uses_anonymous_args = 0
 1624 0000 80B5     		push	{r7, lr}
 1625              	.LCFI80:
 1626              		.cfi_def_cfa_offset 8
 1627              		.cfi_offset 7, -8
 1628              		.cfi_offset 14, -4
 1629 0002 86B0     		sub	sp, sp, #24
 1630              	.LCFI81:
 1631              		.cfi_def_cfa_offset 32
 1632 0004 00AF     		add	r7, sp, #0
 1633              	.LCFI82:
 1634              		.cfi_def_cfa_register 7
 1635 0006 F860     		str	r0, [r7, #12]
 1636 0008 B960     		str	r1, [r7, #8]
 1637 000a 7A60     		str	r2, [r7, #4]
 575:C:/Users/dtjld/workspace/AIoT/src/LiteOS_Lab/iot_link/network/dtls/mbedtls/mbedtls-2.16.2/library\x509_crt.c ****     int ret;
 576:C:/Users/dtjld/workspace/AIoT/src/LiteOS_Lab/iot_link/network/dtls/mbedtls/mbedtls-2.16.2/library\x509_crt.c **** 
 577:C:/Users/dtjld/workspace/AIoT/src/LiteOS_Lab/iot_link/network/dtls/mbedtls/mbedtls-2.16.2/library\x509_crt.c ****     if( ( ret = mbedtls_asn1_get_sequence_of( p, end, ext_key_usage, MBEDTLS_ASN1_OID ) ) != 0 )
 1638              		.loc 2 577 0
 1639 000c 0623     		movs	r3, #6
 1640 000e 7A68     		ldr	r2, [r7, #4]
 1641 0010 B968     		ldr	r1, [r7, #8]
 1642 0012 F868     		ldr	r0, [r7, #12]
 1643 0014 FFF7FEFF 		bl	mbedtls_asn1_get_sequence_of
 1644 0018 7861     		str	r0, [r7, #20]
 1645 001a 7B69     		ldr	r3, [r7, #20]
 1646 001c 002B     		cmp	r3, #0
 1647 001e 03D0     		beq	.L114
 578:C:/Users/dtjld/workspace/AIoT/src/LiteOS_Lab/iot_link/network/dtls/mbedtls/mbedtls-2.16.2/library\x509_crt.c ****         return( MBEDTLS_ERR_X509_INVALID_EXTENSIONS + ret );
 1648              		.loc 2 578 0
 1649 0020 7B69     		ldr	r3, [r7, #20]
 1650 0022 A3F51453 		sub	r3, r3, #9472
 1651 0026 06E0     		b	.L115
 1652              	.L114:
 579:C:/Users/dtjld/workspace/AIoT/src/LiteOS_Lab/iot_link/network/dtls/mbedtls/mbedtls-2.16.2/library\x509_crt.c **** 
 580:C:/Users/dtjld/workspace/AIoT/src/LiteOS_Lab/iot_link/network/dtls/mbedtls/mbedtls-2.16.2/library\x509_crt.c ****     /* Sequence length must be >= 1 */
 581:C:/Users/dtjld/workspace/AIoT/src/LiteOS_Lab/iot_link/network/dtls/mbedtls/mbedtls-2.16.2/library\x509_crt.c ****     if( ext_key_usage->buf.p == NULL )
 1653              		.loc 2 581 0
 1654 0028 7B68     		ldr	r3, [r7, #4]
ARM GAS  C:\Users\dtjld\AppData\Local\Temp\ccTXdst3.s 			page 43


 1655 002a 9B68     		ldr	r3, [r3, #8]
 1656 002c 002B     		cmp	r3, #0
 1657 002e 01D1     		bne	.L116
 582:C:/Users/dtjld/workspace/AIoT/src/LiteOS_Lab/iot_link/network/dtls/mbedtls/mbedtls-2.16.2/library\x509_crt.c ****         return( MBEDTLS_ERR_X509_INVALID_EXTENSIONS +
 1658              		.loc 2 582 0
 1659 0030 034B     		ldr	r3, .L117
 1660 0032 00E0     		b	.L115
 1661              	.L116:
 583:C:/Users/dtjld/workspace/AIoT/src/LiteOS_Lab/iot_link/network/dtls/mbedtls/mbedtls-2.16.2/library\x509_crt.c ****                 MBEDTLS_ERR_ASN1_INVALID_LENGTH );
 584:C:/Users/dtjld/workspace/AIoT/src/LiteOS_Lab/iot_link/network/dtls/mbedtls/mbedtls-2.16.2/library\x509_crt.c **** 
 585:C:/Users/dtjld/workspace/AIoT/src/LiteOS_Lab/iot_link/network/dtls/mbedtls/mbedtls-2.16.2/library\x509_crt.c ****     return( 0 );
 1662              		.loc 2 585 0
 1663 0034 0023     		movs	r3, #0
 1664              	.L115:
 586:C:/Users/dtjld/workspace/AIoT/src/LiteOS_Lab/iot_link/network/dtls/mbedtls/mbedtls-2.16.2/library\x509_crt.c **** }
 1665              		.loc 2 586 0
 1666 0036 1846     		mov	r0, r3
 1667 0038 1837     		adds	r7, r7, #24
 1668              	.LCFI83:
 1669              		.cfi_def_cfa_offset 8
 1670 003a BD46     		mov	sp, r7
 1671              	.LCFI84:
 1672              		.cfi_def_cfa_register 13
 1673              		@ sp needed
 1674 003c 80BD     		pop	{r7, pc}
 1675              	.L118:
 1676 003e 00BF     		.align	2
 1677              	.L117:
 1678 0040 9CDAFFFF 		.word	-9572
 1679              		.cfi_endproc
 1680              	.LFE27:
 1682              		.section	.text.x509_get_subject_alt_name,"ax",%progbits
 1683              		.align	1
 1684              		.syntax unified
 1685              		.thumb
 1686              		.thumb_func
 1687              		.fpu fpv4-sp-d16
 1689              	x509_get_subject_alt_name:
 1690              	.LFB28:
 587:C:/Users/dtjld/workspace/AIoT/src/LiteOS_Lab/iot_link/network/dtls/mbedtls/mbedtls-2.16.2/library\x509_crt.c **** 
 588:C:/Users/dtjld/workspace/AIoT/src/LiteOS_Lab/iot_link/network/dtls/mbedtls/mbedtls-2.16.2/library\x509_crt.c **** /*
 589:C:/Users/dtjld/workspace/AIoT/src/LiteOS_Lab/iot_link/network/dtls/mbedtls/mbedtls-2.16.2/library\x509_crt.c ****  * SubjectAltName ::= GeneralNames
 590:C:/Users/dtjld/workspace/AIoT/src/LiteOS_Lab/iot_link/network/dtls/mbedtls/mbedtls-2.16.2/library\x509_crt.c ****  *
 591:C:/Users/dtjld/workspace/AIoT/src/LiteOS_Lab/iot_link/network/dtls/mbedtls/mbedtls-2.16.2/library\x509_crt.c ****  * GeneralNames ::= SEQUENCE SIZE (1..MAX) OF GeneralName
 592:C:/Users/dtjld/workspace/AIoT/src/LiteOS_Lab/iot_link/network/dtls/mbedtls/mbedtls-2.16.2/library\x509_crt.c ****  *
 593:C:/Users/dtjld/workspace/AIoT/src/LiteOS_Lab/iot_link/network/dtls/mbedtls/mbedtls-2.16.2/library\x509_crt.c ****  * GeneralName ::= CHOICE {
 594:C:/Users/dtjld/workspace/AIoT/src/LiteOS_Lab/iot_link/network/dtls/mbedtls/mbedtls-2.16.2/library\x509_crt.c ****  *      otherName                       [0]     OtherName,
 595:C:/Users/dtjld/workspace/AIoT/src/LiteOS_Lab/iot_link/network/dtls/mbedtls/mbedtls-2.16.2/library\x509_crt.c ****  *      rfc822Name                      [1]     IA5String,
 596:C:/Users/dtjld/workspace/AIoT/src/LiteOS_Lab/iot_link/network/dtls/mbedtls/mbedtls-2.16.2/library\x509_crt.c ****  *      dNSName                         [2]     IA5String,
 597:C:/Users/dtjld/workspace/AIoT/src/LiteOS_Lab/iot_link/network/dtls/mbedtls/mbedtls-2.16.2/library\x509_crt.c ****  *      x400Address                     [3]     ORAddress,
 598:C:/Users/dtjld/workspace/AIoT/src/LiteOS_Lab/iot_link/network/dtls/mbedtls/mbedtls-2.16.2/library\x509_crt.c ****  *      directoryName                   [4]     Name,
 599:C:/Users/dtjld/workspace/AIoT/src/LiteOS_Lab/iot_link/network/dtls/mbedtls/mbedtls-2.16.2/library\x509_crt.c ****  *      ediPartyName                    [5]     EDIPartyName,
 600:C:/Users/dtjld/workspace/AIoT/src/LiteOS_Lab/iot_link/network/dtls/mbedtls/mbedtls-2.16.2/library\x509_crt.c ****  *      uniformResourceIdentifier       [6]     IA5String,
 601:C:/Users/dtjld/workspace/AIoT/src/LiteOS_Lab/iot_link/network/dtls/mbedtls/mbedtls-2.16.2/library\x509_crt.c ****  *      iPAddress                       [7]     OCTET STRING,
 602:C:/Users/dtjld/workspace/AIoT/src/LiteOS_Lab/iot_link/network/dtls/mbedtls/mbedtls-2.16.2/library\x509_crt.c ****  *      registeredID                    [8]     OBJECT IDENTIFIER }
 603:C:/Users/dtjld/workspace/AIoT/src/LiteOS_Lab/iot_link/network/dtls/mbedtls/mbedtls-2.16.2/library\x509_crt.c ****  *
 604:C:/Users/dtjld/workspace/AIoT/src/LiteOS_Lab/iot_link/network/dtls/mbedtls/mbedtls-2.16.2/library\x509_crt.c ****  * OtherName ::= SEQUENCE {
ARM GAS  C:\Users\dtjld\AppData\Local\Temp\ccTXdst3.s 			page 44


 605:C:/Users/dtjld/workspace/AIoT/src/LiteOS_Lab/iot_link/network/dtls/mbedtls/mbedtls-2.16.2/library\x509_crt.c ****  *      type-id    OBJECT IDENTIFIER,
 606:C:/Users/dtjld/workspace/AIoT/src/LiteOS_Lab/iot_link/network/dtls/mbedtls/mbedtls-2.16.2/library\x509_crt.c ****  *      value      [0] EXPLICIT ANY DEFINED BY type-id }
 607:C:/Users/dtjld/workspace/AIoT/src/LiteOS_Lab/iot_link/network/dtls/mbedtls/mbedtls-2.16.2/library\x509_crt.c ****  *
 608:C:/Users/dtjld/workspace/AIoT/src/LiteOS_Lab/iot_link/network/dtls/mbedtls/mbedtls-2.16.2/library\x509_crt.c ****  * EDIPartyName ::= SEQUENCE {
 609:C:/Users/dtjld/workspace/AIoT/src/LiteOS_Lab/iot_link/network/dtls/mbedtls/mbedtls-2.16.2/library\x509_crt.c ****  *      nameAssigner            [0]     DirectoryString OPTIONAL,
 610:C:/Users/dtjld/workspace/AIoT/src/LiteOS_Lab/iot_link/network/dtls/mbedtls/mbedtls-2.16.2/library\x509_crt.c ****  *      partyName               [1]     DirectoryString }
 611:C:/Users/dtjld/workspace/AIoT/src/LiteOS_Lab/iot_link/network/dtls/mbedtls/mbedtls-2.16.2/library\x509_crt.c ****  *
 612:C:/Users/dtjld/workspace/AIoT/src/LiteOS_Lab/iot_link/network/dtls/mbedtls/mbedtls-2.16.2/library\x509_crt.c ****  * NOTE: we only parse and use dNSName at this point.
 613:C:/Users/dtjld/workspace/AIoT/src/LiteOS_Lab/iot_link/network/dtls/mbedtls/mbedtls-2.16.2/library\x509_crt.c ****  */
 614:C:/Users/dtjld/workspace/AIoT/src/LiteOS_Lab/iot_link/network/dtls/mbedtls/mbedtls-2.16.2/library\x509_crt.c **** static int x509_get_subject_alt_name( unsigned char **p,
 615:C:/Users/dtjld/workspace/AIoT/src/LiteOS_Lab/iot_link/network/dtls/mbedtls/mbedtls-2.16.2/library\x509_crt.c ****                                       const unsigned char *end,
 616:C:/Users/dtjld/workspace/AIoT/src/LiteOS_Lab/iot_link/network/dtls/mbedtls/mbedtls-2.16.2/library\x509_crt.c ****                                       mbedtls_x509_sequence *subject_alt_name )
 617:C:/Users/dtjld/workspace/AIoT/src/LiteOS_Lab/iot_link/network/dtls/mbedtls/mbedtls-2.16.2/library\x509_crt.c **** {
 1691              		.loc 2 617 0
 1692              		.cfi_startproc
 1693              		@ args = 0, pretend = 0, frame = 40
 1694              		@ frame_needed = 1, uses_anonymous_args = 0
 1695 0000 80B5     		push	{r7, lr}
 1696              	.LCFI85:
 1697              		.cfi_def_cfa_offset 8
 1698              		.cfi_offset 7, -8
 1699              		.cfi_offset 14, -4
 1700 0002 8AB0     		sub	sp, sp, #40
 1701              	.LCFI86:
 1702              		.cfi_def_cfa_offset 48
 1703 0004 00AF     		add	r7, sp, #0
 1704              	.LCFI87:
 1705              		.cfi_def_cfa_register 7
 1706 0006 F860     		str	r0, [r7, #12]
 1707 0008 B960     		str	r1, [r7, #8]
 1708 000a 7A60     		str	r2, [r7, #4]
 618:C:/Users/dtjld/workspace/AIoT/src/LiteOS_Lab/iot_link/network/dtls/mbedtls/mbedtls-2.16.2/library\x509_crt.c ****     int ret;
 619:C:/Users/dtjld/workspace/AIoT/src/LiteOS_Lab/iot_link/network/dtls/mbedtls/mbedtls-2.16.2/library\x509_crt.c ****     size_t len, tag_len;
 620:C:/Users/dtjld/workspace/AIoT/src/LiteOS_Lab/iot_link/network/dtls/mbedtls/mbedtls-2.16.2/library\x509_crt.c ****     mbedtls_asn1_buf *buf;
 621:C:/Users/dtjld/workspace/AIoT/src/LiteOS_Lab/iot_link/network/dtls/mbedtls/mbedtls-2.16.2/library\x509_crt.c ****     unsigned char tag;
 622:C:/Users/dtjld/workspace/AIoT/src/LiteOS_Lab/iot_link/network/dtls/mbedtls/mbedtls-2.16.2/library\x509_crt.c ****     mbedtls_asn1_sequence *cur = subject_alt_name;
 1709              		.loc 2 622 0
 1710 000c 7B68     		ldr	r3, [r7, #4]
 1711 000e 7B62     		str	r3, [r7, #36]
 623:C:/Users/dtjld/workspace/AIoT/src/LiteOS_Lab/iot_link/network/dtls/mbedtls/mbedtls-2.16.2/library\x509_crt.c **** 
 624:C:/Users/dtjld/workspace/AIoT/src/LiteOS_Lab/iot_link/network/dtls/mbedtls/mbedtls-2.16.2/library\x509_crt.c ****     /* Get main sequence tag */
 625:C:/Users/dtjld/workspace/AIoT/src/LiteOS_Lab/iot_link/network/dtls/mbedtls/mbedtls-2.16.2/library\x509_crt.c ****     if( ( ret = mbedtls_asn1_get_tag( p, end, &len,
 1712              		.loc 2 625 0
 1713 0010 07F11402 		add	r2, r7, #20
 1714 0014 3023     		movs	r3, #48
 1715 0016 B968     		ldr	r1, [r7, #8]
 1716 0018 F868     		ldr	r0, [r7, #12]
 1717 001a FFF7FEFF 		bl	mbedtls_asn1_get_tag
 1718 001e 3862     		str	r0, [r7, #32]
 1719 0020 3B6A     		ldr	r3, [r7, #32]
 1720 0022 002B     		cmp	r3, #0
 1721 0024 03D0     		beq	.L120
 626:C:/Users/dtjld/workspace/AIoT/src/LiteOS_Lab/iot_link/network/dtls/mbedtls/mbedtls-2.16.2/library\x509_crt.c ****             MBEDTLS_ASN1_CONSTRUCTED | MBEDTLS_ASN1_SEQUENCE ) ) != 0 )
 627:C:/Users/dtjld/workspace/AIoT/src/LiteOS_Lab/iot_link/network/dtls/mbedtls/mbedtls-2.16.2/library\x509_crt.c ****         return( MBEDTLS_ERR_X509_INVALID_EXTENSIONS + ret );
 1722              		.loc 2 627 0
 1723 0026 3B6A     		ldr	r3, [r7, #32]
 1724 0028 A3F51453 		sub	r3, r3, #9472
ARM GAS  C:\Users\dtjld\AppData\Local\Temp\ccTXdst3.s 			page 45


 1725 002c 76E0     		b	.L133
 1726              	.L120:
 628:C:/Users/dtjld/workspace/AIoT/src/LiteOS_Lab/iot_link/network/dtls/mbedtls/mbedtls-2.16.2/library\x509_crt.c **** 
 629:C:/Users/dtjld/workspace/AIoT/src/LiteOS_Lab/iot_link/network/dtls/mbedtls/mbedtls-2.16.2/library\x509_crt.c ****     if( *p + len != end )
 1727              		.loc 2 629 0
 1728 002e FB68     		ldr	r3, [r7, #12]
 1729 0030 1A68     		ldr	r2, [r3]
 1730 0032 7B69     		ldr	r3, [r7, #20]
 1731 0034 1344     		add	r3, r3, r2
 1732 0036 BA68     		ldr	r2, [r7, #8]
 1733 0038 9A42     		cmp	r2, r3
 1734 003a 5FD0     		beq	.L123
 630:C:/Users/dtjld/workspace/AIoT/src/LiteOS_Lab/iot_link/network/dtls/mbedtls/mbedtls-2.16.2/library\x509_crt.c ****         return( MBEDTLS_ERR_X509_INVALID_EXTENSIONS +
 1735              		.loc 2 630 0
 1736 003c 394B     		ldr	r3, .L134
 1737 003e 6DE0     		b	.L133
 1738              	.L131:
 631:C:/Users/dtjld/workspace/AIoT/src/LiteOS_Lab/iot_link/network/dtls/mbedtls/mbedtls-2.16.2/library\x509_crt.c ****                 MBEDTLS_ERR_ASN1_LENGTH_MISMATCH );
 632:C:/Users/dtjld/workspace/AIoT/src/LiteOS_Lab/iot_link/network/dtls/mbedtls/mbedtls-2.16.2/library\x509_crt.c **** 
 633:C:/Users/dtjld/workspace/AIoT/src/LiteOS_Lab/iot_link/network/dtls/mbedtls/mbedtls-2.16.2/library\x509_crt.c ****     while( *p < end )
 634:C:/Users/dtjld/workspace/AIoT/src/LiteOS_Lab/iot_link/network/dtls/mbedtls/mbedtls-2.16.2/library\x509_crt.c ****     {
 635:C:/Users/dtjld/workspace/AIoT/src/LiteOS_Lab/iot_link/network/dtls/mbedtls/mbedtls-2.16.2/library\x509_crt.c ****         if( ( end - *p ) < 1 )
 1739              		.loc 2 635 0
 1740 0040 BB68     		ldr	r3, [r7, #8]
 1741 0042 FA68     		ldr	r2, [r7, #12]
 1742 0044 1268     		ldr	r2, [r2]
 1743 0046 9B1A     		subs	r3, r3, r2
 1744 0048 002B     		cmp	r3, #0
 1745 004a 01DC     		bgt	.L124
 636:C:/Users/dtjld/workspace/AIoT/src/LiteOS_Lab/iot_link/network/dtls/mbedtls/mbedtls-2.16.2/library\x509_crt.c ****             return( MBEDTLS_ERR_X509_INVALID_EXTENSIONS +
 1746              		.loc 2 636 0
 1747 004c 364B     		ldr	r3, .L134+4
 1748 004e 65E0     		b	.L133
 1749              	.L124:
 637:C:/Users/dtjld/workspace/AIoT/src/LiteOS_Lab/iot_link/network/dtls/mbedtls/mbedtls-2.16.2/library\x509_crt.c ****                     MBEDTLS_ERR_ASN1_OUT_OF_DATA );
 638:C:/Users/dtjld/workspace/AIoT/src/LiteOS_Lab/iot_link/network/dtls/mbedtls/mbedtls-2.16.2/library\x509_crt.c **** 
 639:C:/Users/dtjld/workspace/AIoT/src/LiteOS_Lab/iot_link/network/dtls/mbedtls/mbedtls-2.16.2/library\x509_crt.c ****         tag = **p;
 1750              		.loc 2 639 0
 1751 0050 FB68     		ldr	r3, [r7, #12]
 1752 0052 1B68     		ldr	r3, [r3]
 1753 0054 1B78     		ldrb	r3, [r3]
 1754 0056 FB77     		strb	r3, [r7, #31]
 640:C:/Users/dtjld/workspace/AIoT/src/LiteOS_Lab/iot_link/network/dtls/mbedtls/mbedtls-2.16.2/library\x509_crt.c ****         (*p)++;
 1755              		.loc 2 640 0
 1756 0058 FB68     		ldr	r3, [r7, #12]
 1757 005a 1B68     		ldr	r3, [r3]
 1758 005c 5A1C     		adds	r2, r3, #1
 1759 005e FB68     		ldr	r3, [r7, #12]
 1760 0060 1A60     		str	r2, [r3]
 641:C:/Users/dtjld/workspace/AIoT/src/LiteOS_Lab/iot_link/network/dtls/mbedtls/mbedtls-2.16.2/library\x509_crt.c ****         if( ( ret = mbedtls_asn1_get_len( p, end, &tag_len ) ) != 0 )
 1761              		.loc 2 641 0
 1762 0062 07F11003 		add	r3, r7, #16
 1763 0066 1A46     		mov	r2, r3
 1764 0068 B968     		ldr	r1, [r7, #8]
 1765 006a F868     		ldr	r0, [r7, #12]
 1766 006c FFF7FEFF 		bl	mbedtls_asn1_get_len
 1767 0070 3862     		str	r0, [r7, #32]
ARM GAS  C:\Users\dtjld\AppData\Local\Temp\ccTXdst3.s 			page 46


 1768 0072 3B6A     		ldr	r3, [r7, #32]
 1769 0074 002B     		cmp	r3, #0
 1770 0076 03D0     		beq	.L125
 642:C:/Users/dtjld/workspace/AIoT/src/LiteOS_Lab/iot_link/network/dtls/mbedtls/mbedtls-2.16.2/library\x509_crt.c ****             return( MBEDTLS_ERR_X509_INVALID_EXTENSIONS + ret );
 1771              		.loc 2 642 0
 1772 0078 3B6A     		ldr	r3, [r7, #32]
 1773 007a A3F51453 		sub	r3, r3, #9472
 1774 007e 4DE0     		b	.L133
 1775              	.L125:
 643:C:/Users/dtjld/workspace/AIoT/src/LiteOS_Lab/iot_link/network/dtls/mbedtls/mbedtls-2.16.2/library\x509_crt.c **** 
 644:C:/Users/dtjld/workspace/AIoT/src/LiteOS_Lab/iot_link/network/dtls/mbedtls/mbedtls-2.16.2/library\x509_crt.c ****         if( ( tag & MBEDTLS_ASN1_TAG_CLASS_MASK ) !=
 1776              		.loc 2 644 0
 1777 0080 FB7F     		ldrb	r3, [r7, #31]	@ zero_extendqisi2
 1778 0082 03F0C003 		and	r3, r3, #192
 1779 0086 802B     		cmp	r3, #128
 1780 0088 01D0     		beq	.L126
 645:C:/Users/dtjld/workspace/AIoT/src/LiteOS_Lab/iot_link/network/dtls/mbedtls/mbedtls-2.16.2/library\x509_crt.c ****                 MBEDTLS_ASN1_CONTEXT_SPECIFIC )
 646:C:/Users/dtjld/workspace/AIoT/src/LiteOS_Lab/iot_link/network/dtls/mbedtls/mbedtls-2.16.2/library\x509_crt.c ****         {
 647:C:/Users/dtjld/workspace/AIoT/src/LiteOS_Lab/iot_link/network/dtls/mbedtls/mbedtls-2.16.2/library\x509_crt.c ****             return( MBEDTLS_ERR_X509_INVALID_EXTENSIONS +
 1781              		.loc 2 647 0
 1782 008a 284B     		ldr	r3, .L134+8
 1783 008c 46E0     		b	.L133
 1784              	.L126:
 648:C:/Users/dtjld/workspace/AIoT/src/LiteOS_Lab/iot_link/network/dtls/mbedtls/mbedtls-2.16.2/library\x509_crt.c ****                     MBEDTLS_ERR_ASN1_UNEXPECTED_TAG );
 649:C:/Users/dtjld/workspace/AIoT/src/LiteOS_Lab/iot_link/network/dtls/mbedtls/mbedtls-2.16.2/library\x509_crt.c ****         }
 650:C:/Users/dtjld/workspace/AIoT/src/LiteOS_Lab/iot_link/network/dtls/mbedtls/mbedtls-2.16.2/library\x509_crt.c **** 
 651:C:/Users/dtjld/workspace/AIoT/src/LiteOS_Lab/iot_link/network/dtls/mbedtls/mbedtls-2.16.2/library\x509_crt.c ****         /* Skip everything but DNS name */
 652:C:/Users/dtjld/workspace/AIoT/src/LiteOS_Lab/iot_link/network/dtls/mbedtls/mbedtls-2.16.2/library\x509_crt.c ****         if( tag != ( MBEDTLS_ASN1_CONTEXT_SPECIFIC | 2 ) )
 1785              		.loc 2 652 0
 1786 008e FB7F     		ldrb	r3, [r7, #31]	@ zero_extendqisi2
 1787 0090 822B     		cmp	r3, #130
 1788 0092 06D0     		beq	.L127
 653:C:/Users/dtjld/workspace/AIoT/src/LiteOS_Lab/iot_link/network/dtls/mbedtls/mbedtls-2.16.2/library\x509_crt.c ****         {
 654:C:/Users/dtjld/workspace/AIoT/src/LiteOS_Lab/iot_link/network/dtls/mbedtls/mbedtls-2.16.2/library\x509_crt.c ****             *p += tag_len;
 1789              		.loc 2 654 0
 1790 0094 FB68     		ldr	r3, [r7, #12]
 1791 0096 1A68     		ldr	r2, [r3]
 1792 0098 3B69     		ldr	r3, [r7, #16]
 1793 009a 1A44     		add	r2, r2, r3
 1794 009c FB68     		ldr	r3, [r7, #12]
 1795 009e 1A60     		str	r2, [r3]
 655:C:/Users/dtjld/workspace/AIoT/src/LiteOS_Lab/iot_link/network/dtls/mbedtls/mbedtls-2.16.2/library\x509_crt.c ****             continue;
 1796              		.loc 2 655 0
 1797 00a0 2CE0     		b	.L123
 1798              	.L127:
 656:C:/Users/dtjld/workspace/AIoT/src/LiteOS_Lab/iot_link/network/dtls/mbedtls/mbedtls-2.16.2/library\x509_crt.c ****         }
 657:C:/Users/dtjld/workspace/AIoT/src/LiteOS_Lab/iot_link/network/dtls/mbedtls/mbedtls-2.16.2/library\x509_crt.c **** 
 658:C:/Users/dtjld/workspace/AIoT/src/LiteOS_Lab/iot_link/network/dtls/mbedtls/mbedtls-2.16.2/library\x509_crt.c ****         /* Allocate and assign next pointer */
 659:C:/Users/dtjld/workspace/AIoT/src/LiteOS_Lab/iot_link/network/dtls/mbedtls/mbedtls-2.16.2/library\x509_crt.c ****         if( cur->buf.p != NULL )
 1799              		.loc 2 659 0
 1800 00a2 7B6A     		ldr	r3, [r7, #36]
 1801 00a4 9B68     		ldr	r3, [r3, #8]
 1802 00a6 002B     		cmp	r3, #0
 1803 00a8 15D0     		beq	.L128
 660:C:/Users/dtjld/workspace/AIoT/src/LiteOS_Lab/iot_link/network/dtls/mbedtls/mbedtls-2.16.2/library\x509_crt.c ****         {
 661:C:/Users/dtjld/workspace/AIoT/src/LiteOS_Lab/iot_link/network/dtls/mbedtls/mbedtls-2.16.2/library\x509_crt.c ****             if( cur->next != NULL )
 1804              		.loc 2 661 0
ARM GAS  C:\Users\dtjld\AppData\Local\Temp\ccTXdst3.s 			page 47


 1805 00aa 7B6A     		ldr	r3, [r7, #36]
 1806 00ac DB68     		ldr	r3, [r3, #12]
 1807 00ae 002B     		cmp	r3, #0
 1808 00b0 01D0     		beq	.L129
 662:C:/Users/dtjld/workspace/AIoT/src/LiteOS_Lab/iot_link/network/dtls/mbedtls/mbedtls-2.16.2/library\x509_crt.c ****                 return( MBEDTLS_ERR_X509_INVALID_EXTENSIONS );
 1809              		.loc 2 662 0
 1810 00b2 1F4B     		ldr	r3, .L134+12
 1811 00b4 32E0     		b	.L133
 1812              	.L129:
 663:C:/Users/dtjld/workspace/AIoT/src/LiteOS_Lab/iot_link/network/dtls/mbedtls/mbedtls-2.16.2/library\x509_crt.c **** 
 664:C:/Users/dtjld/workspace/AIoT/src/LiteOS_Lab/iot_link/network/dtls/mbedtls/mbedtls-2.16.2/library\x509_crt.c ****             cur->next = mbedtls_calloc( 1, sizeof( mbedtls_asn1_sequence ) );
 1813              		.loc 2 664 0
 1814 00b6 1021     		movs	r1, #16
 1815 00b8 0120     		movs	r0, #1
 1816 00ba FFF7FEFF 		bl	mbedtls_calloc
 1817 00be 0246     		mov	r2, r0
 1818 00c0 7B6A     		ldr	r3, [r7, #36]
 1819 00c2 DA60     		str	r2, [r3, #12]
 665:C:/Users/dtjld/workspace/AIoT/src/LiteOS_Lab/iot_link/network/dtls/mbedtls/mbedtls-2.16.2/library\x509_crt.c **** 
 666:C:/Users/dtjld/workspace/AIoT/src/LiteOS_Lab/iot_link/network/dtls/mbedtls/mbedtls-2.16.2/library\x509_crt.c ****             if( cur->next == NULL )
 1820              		.loc 2 666 0
 1821 00c4 7B6A     		ldr	r3, [r7, #36]
 1822 00c6 DB68     		ldr	r3, [r3, #12]
 1823 00c8 002B     		cmp	r3, #0
 1824 00ca 01D1     		bne	.L130
 667:C:/Users/dtjld/workspace/AIoT/src/LiteOS_Lab/iot_link/network/dtls/mbedtls/mbedtls-2.16.2/library\x509_crt.c ****                 return( MBEDTLS_ERR_X509_INVALID_EXTENSIONS +
 1825              		.loc 2 667 0
 1826 00cc 194B     		ldr	r3, .L134+16
 1827 00ce 25E0     		b	.L133
 1828              	.L130:
 668:C:/Users/dtjld/workspace/AIoT/src/LiteOS_Lab/iot_link/network/dtls/mbedtls/mbedtls-2.16.2/library\x509_crt.c ****                         MBEDTLS_ERR_ASN1_ALLOC_FAILED );
 669:C:/Users/dtjld/workspace/AIoT/src/LiteOS_Lab/iot_link/network/dtls/mbedtls/mbedtls-2.16.2/library\x509_crt.c **** 
 670:C:/Users/dtjld/workspace/AIoT/src/LiteOS_Lab/iot_link/network/dtls/mbedtls/mbedtls-2.16.2/library\x509_crt.c ****             cur = cur->next;
 1829              		.loc 2 670 0
 1830 00d0 7B6A     		ldr	r3, [r7, #36]
 1831 00d2 DB68     		ldr	r3, [r3, #12]
 1832 00d4 7B62     		str	r3, [r7, #36]
 1833              	.L128:
 671:C:/Users/dtjld/workspace/AIoT/src/LiteOS_Lab/iot_link/network/dtls/mbedtls/mbedtls-2.16.2/library\x509_crt.c ****         }
 672:C:/Users/dtjld/workspace/AIoT/src/LiteOS_Lab/iot_link/network/dtls/mbedtls/mbedtls-2.16.2/library\x509_crt.c **** 
 673:C:/Users/dtjld/workspace/AIoT/src/LiteOS_Lab/iot_link/network/dtls/mbedtls/mbedtls-2.16.2/library\x509_crt.c ****         buf = &(cur->buf);
 1834              		.loc 2 673 0
 1835 00d6 7B6A     		ldr	r3, [r7, #36]
 1836 00d8 BB61     		str	r3, [r7, #24]
 674:C:/Users/dtjld/workspace/AIoT/src/LiteOS_Lab/iot_link/network/dtls/mbedtls/mbedtls-2.16.2/library\x509_crt.c ****         buf->tag = tag;
 1837              		.loc 2 674 0
 1838 00da FA7F     		ldrb	r2, [r7, #31]	@ zero_extendqisi2
 1839 00dc BB69     		ldr	r3, [r7, #24]
 1840 00de 1A60     		str	r2, [r3]
 675:C:/Users/dtjld/workspace/AIoT/src/LiteOS_Lab/iot_link/network/dtls/mbedtls/mbedtls-2.16.2/library\x509_crt.c ****         buf->p = *p;
 1841              		.loc 2 675 0
 1842 00e0 FB68     		ldr	r3, [r7, #12]
 1843 00e2 1A68     		ldr	r2, [r3]
 1844 00e4 BB69     		ldr	r3, [r7, #24]
 1845 00e6 9A60     		str	r2, [r3, #8]
 676:C:/Users/dtjld/workspace/AIoT/src/LiteOS_Lab/iot_link/network/dtls/mbedtls/mbedtls-2.16.2/library\x509_crt.c ****         buf->len = tag_len;
 1846              		.loc 2 676 0
ARM GAS  C:\Users\dtjld\AppData\Local\Temp\ccTXdst3.s 			page 48


 1847 00e8 3A69     		ldr	r2, [r7, #16]
 1848 00ea BB69     		ldr	r3, [r7, #24]
 1849 00ec 5A60     		str	r2, [r3, #4]
 677:C:/Users/dtjld/workspace/AIoT/src/LiteOS_Lab/iot_link/network/dtls/mbedtls/mbedtls-2.16.2/library\x509_crt.c ****         *p += buf->len;
 1850              		.loc 2 677 0
 1851 00ee FB68     		ldr	r3, [r7, #12]
 1852 00f0 1A68     		ldr	r2, [r3]
 1853 00f2 BB69     		ldr	r3, [r7, #24]
 1854 00f4 5B68     		ldr	r3, [r3, #4]
 1855 00f6 1A44     		add	r2, r2, r3
 1856 00f8 FB68     		ldr	r3, [r7, #12]
 1857 00fa 1A60     		str	r2, [r3]
 1858              	.L123:
 633:C:/Users/dtjld/workspace/AIoT/src/LiteOS_Lab/iot_link/network/dtls/mbedtls/mbedtls-2.16.2/library\x509_crt.c ****     {
 1859              		.loc 2 633 0
 1860 00fc FB68     		ldr	r3, [r7, #12]
 1861 00fe 1B68     		ldr	r3, [r3]
 1862 0100 BA68     		ldr	r2, [r7, #8]
 1863 0102 9A42     		cmp	r2, r3
 1864 0104 9CD8     		bhi	.L131
 678:C:/Users/dtjld/workspace/AIoT/src/LiteOS_Lab/iot_link/network/dtls/mbedtls/mbedtls-2.16.2/library\x509_crt.c ****     }
 679:C:/Users/dtjld/workspace/AIoT/src/LiteOS_Lab/iot_link/network/dtls/mbedtls/mbedtls-2.16.2/library\x509_crt.c **** 
 680:C:/Users/dtjld/workspace/AIoT/src/LiteOS_Lab/iot_link/network/dtls/mbedtls/mbedtls-2.16.2/library\x509_crt.c ****     /* Set final sequence entry's next pointer to NULL */
 681:C:/Users/dtjld/workspace/AIoT/src/LiteOS_Lab/iot_link/network/dtls/mbedtls/mbedtls-2.16.2/library\x509_crt.c ****     cur->next = NULL;
 1865              		.loc 2 681 0
 1866 0106 7B6A     		ldr	r3, [r7, #36]
 1867 0108 0022     		movs	r2, #0
 1868 010a DA60     		str	r2, [r3, #12]
 682:C:/Users/dtjld/workspace/AIoT/src/LiteOS_Lab/iot_link/network/dtls/mbedtls/mbedtls-2.16.2/library\x509_crt.c **** 
 683:C:/Users/dtjld/workspace/AIoT/src/LiteOS_Lab/iot_link/network/dtls/mbedtls/mbedtls-2.16.2/library\x509_crt.c ****     if( *p != end )
 1869              		.loc 2 683 0
 1870 010c FB68     		ldr	r3, [r7, #12]
 1871 010e 1B68     		ldr	r3, [r3]
 1872 0110 BA68     		ldr	r2, [r7, #8]
 1873 0112 9A42     		cmp	r2, r3
 1874 0114 01D0     		beq	.L132
 684:C:/Users/dtjld/workspace/AIoT/src/LiteOS_Lab/iot_link/network/dtls/mbedtls/mbedtls-2.16.2/library\x509_crt.c ****         return( MBEDTLS_ERR_X509_INVALID_EXTENSIONS +
 1875              		.loc 2 684 0
 1876 0116 034B     		ldr	r3, .L134
 1877 0118 00E0     		b	.L133
 1878              	.L132:
 685:C:/Users/dtjld/workspace/AIoT/src/LiteOS_Lab/iot_link/network/dtls/mbedtls/mbedtls-2.16.2/library\x509_crt.c ****                 MBEDTLS_ERR_ASN1_LENGTH_MISMATCH );
 686:C:/Users/dtjld/workspace/AIoT/src/LiteOS_Lab/iot_link/network/dtls/mbedtls/mbedtls-2.16.2/library\x509_crt.c **** 
 687:C:/Users/dtjld/workspace/AIoT/src/LiteOS_Lab/iot_link/network/dtls/mbedtls/mbedtls-2.16.2/library\x509_crt.c ****     return( 0 );
 1879              		.loc 2 687 0
 1880 011a 0023     		movs	r3, #0
 1881              	.L133:
 688:C:/Users/dtjld/workspace/AIoT/src/LiteOS_Lab/iot_link/network/dtls/mbedtls/mbedtls-2.16.2/library\x509_crt.c **** }
 1882              		.loc 2 688 0 discriminator 1
 1883 011c 1846     		mov	r0, r3
 1884 011e 2837     		adds	r7, r7, #40
 1885              	.LCFI88:
 1886              		.cfi_def_cfa_offset 8
 1887 0120 BD46     		mov	sp, r7
 1888              	.LCFI89:
 1889              		.cfi_def_cfa_register 13
 1890              		@ sp needed
ARM GAS  C:\Users\dtjld\AppData\Local\Temp\ccTXdst3.s 			page 49


 1891 0122 80BD     		pop	{r7, pc}
 1892              	.L135:
 1893              		.align	2
 1894              	.L134:
 1895 0124 9ADAFFFF 		.word	-9574
 1896 0128 A0DAFFFF 		.word	-9568
 1897 012c 9EDAFFFF 		.word	-9570
 1898 0130 00DBFFFF 		.word	-9472
 1899 0134 96DAFFFF 		.word	-9578
 1900              		.cfi_endproc
 1901              	.LFE28:
 1903              		.section	.text.x509_get_crt_ext,"ax",%progbits
 1904              		.align	1
 1905              		.syntax unified
 1906              		.thumb
 1907              		.thumb_func
 1908              		.fpu fpv4-sp-d16
 1910              	x509_get_crt_ext:
 1911              	.LFB29:
 689:C:/Users/dtjld/workspace/AIoT/src/LiteOS_Lab/iot_link/network/dtls/mbedtls/mbedtls-2.16.2/library\x509_crt.c **** 
 690:C:/Users/dtjld/workspace/AIoT/src/LiteOS_Lab/iot_link/network/dtls/mbedtls/mbedtls-2.16.2/library\x509_crt.c **** /*
 691:C:/Users/dtjld/workspace/AIoT/src/LiteOS_Lab/iot_link/network/dtls/mbedtls/mbedtls-2.16.2/library\x509_crt.c ****  * X.509 v3 extensions
 692:C:/Users/dtjld/workspace/AIoT/src/LiteOS_Lab/iot_link/network/dtls/mbedtls/mbedtls-2.16.2/library\x509_crt.c ****  *
 693:C:/Users/dtjld/workspace/AIoT/src/LiteOS_Lab/iot_link/network/dtls/mbedtls/mbedtls-2.16.2/library\x509_crt.c ****  */
 694:C:/Users/dtjld/workspace/AIoT/src/LiteOS_Lab/iot_link/network/dtls/mbedtls/mbedtls-2.16.2/library\x509_crt.c **** static int x509_get_crt_ext( unsigned char **p,
 695:C:/Users/dtjld/workspace/AIoT/src/LiteOS_Lab/iot_link/network/dtls/mbedtls/mbedtls-2.16.2/library\x509_crt.c ****                              const unsigned char *end,
 696:C:/Users/dtjld/workspace/AIoT/src/LiteOS_Lab/iot_link/network/dtls/mbedtls/mbedtls-2.16.2/library\x509_crt.c ****                              mbedtls_x509_crt *crt )
 697:C:/Users/dtjld/workspace/AIoT/src/LiteOS_Lab/iot_link/network/dtls/mbedtls/mbedtls-2.16.2/library\x509_crt.c **** {
 1912              		.loc 2 697 0
 1913              		.cfi_startproc
 1914              		@ args = 0, pretend = 0, frame = 56
 1915              		@ frame_needed = 1, uses_anonymous_args = 0
 1916 0000 80B5     		push	{r7, lr}
 1917              	.LCFI90:
 1918              		.cfi_def_cfa_offset 8
 1919              		.cfi_offset 7, -8
 1920              		.cfi_offset 14, -4
 1921 0002 8EB0     		sub	sp, sp, #56
 1922              	.LCFI91:
 1923              		.cfi_def_cfa_offset 64
 1924 0004 00AF     		add	r7, sp, #0
 1925              	.LCFI92:
 1926              		.cfi_def_cfa_register 7
 1927 0006 F860     		str	r0, [r7, #12]
 1928 0008 B960     		str	r1, [r7, #8]
 1929 000a 7A60     		str	r2, [r7, #4]
 698:C:/Users/dtjld/workspace/AIoT/src/LiteOS_Lab/iot_link/network/dtls/mbedtls/mbedtls-2.16.2/library\x509_crt.c ****     int ret;
 699:C:/Users/dtjld/workspace/AIoT/src/LiteOS_Lab/iot_link/network/dtls/mbedtls/mbedtls-2.16.2/library\x509_crt.c ****     size_t len;
 700:C:/Users/dtjld/workspace/AIoT/src/LiteOS_Lab/iot_link/network/dtls/mbedtls/mbedtls-2.16.2/library\x509_crt.c ****     unsigned char *end_ext_data, *end_ext_octet;
 701:C:/Users/dtjld/workspace/AIoT/src/LiteOS_Lab/iot_link/network/dtls/mbedtls/mbedtls-2.16.2/library\x509_crt.c **** 
 702:C:/Users/dtjld/workspace/AIoT/src/LiteOS_Lab/iot_link/network/dtls/mbedtls/mbedtls-2.16.2/library\x509_crt.c ****     if( *p == end )
 1930              		.loc 2 702 0
 1931 000c FB68     		ldr	r3, [r7, #12]
 1932 000e 1B68     		ldr	r3, [r3]
 1933 0010 BA68     		ldr	r2, [r7, #8]
 1934 0012 9A42     		cmp	r2, r3
 1935 0014 01D1     		bne	.L137
ARM GAS  C:\Users\dtjld\AppData\Local\Temp\ccTXdst3.s 			page 50


 703:C:/Users/dtjld/workspace/AIoT/src/LiteOS_Lab/iot_link/network/dtls/mbedtls/mbedtls-2.16.2/library\x509_crt.c ****         return( 0 );
 1936              		.loc 2 703 0
 1937 0016 0023     		movs	r3, #0
 1938 0018 14E1     		b	.L165
 1939              	.L137:
 704:C:/Users/dtjld/workspace/AIoT/src/LiteOS_Lab/iot_link/network/dtls/mbedtls/mbedtls-2.16.2/library\x509_crt.c **** 
 705:C:/Users/dtjld/workspace/AIoT/src/LiteOS_Lab/iot_link/network/dtls/mbedtls/mbedtls-2.16.2/library\x509_crt.c ****     if( ( ret = mbedtls_x509_get_ext( p, end, &crt->v3_ext, 3 ) ) != 0 )
 1940              		.loc 2 705 0
 1941 001a 7B68     		ldr	r3, [r7, #4]
 1942 001c 03F1DC02 		add	r2, r3, #220
 1943 0020 0323     		movs	r3, #3
 1944 0022 B968     		ldr	r1, [r7, #8]
 1945 0024 F868     		ldr	r0, [r7, #12]
 1946 0026 FFF7FEFF 		bl	mbedtls_x509_get_ext
 1947 002a 7863     		str	r0, [r7, #52]
 1948 002c 7B6B     		ldr	r3, [r7, #52]
 1949 002e 002B     		cmp	r3, #0
 1950 0030 01D0     		beq	.L139
 706:C:/Users/dtjld/workspace/AIoT/src/LiteOS_Lab/iot_link/network/dtls/mbedtls/mbedtls-2.16.2/library\x509_crt.c ****         return( ret );
 1951              		.loc 2 706 0
 1952 0032 7B6B     		ldr	r3, [r7, #52]
 1953 0034 06E1     		b	.L165
 1954              	.L139:
 707:C:/Users/dtjld/workspace/AIoT/src/LiteOS_Lab/iot_link/network/dtls/mbedtls/mbedtls-2.16.2/library\x509_crt.c **** 
 708:C:/Users/dtjld/workspace/AIoT/src/LiteOS_Lab/iot_link/network/dtls/mbedtls/mbedtls-2.16.2/library\x509_crt.c ****     end = crt->v3_ext.p + crt->v3_ext.len;
 1955              		.loc 2 708 0
 1956 0036 7B68     		ldr	r3, [r7, #4]
 1957 0038 D3F8E420 		ldr	r2, [r3, #228]
 1958 003c 7B68     		ldr	r3, [r7, #4]
 1959 003e D3F8E030 		ldr	r3, [r3, #224]
 1960 0042 1344     		add	r3, r3, r2
 1961 0044 BB60     		str	r3, [r7, #8]
 709:C:/Users/dtjld/workspace/AIoT/src/LiteOS_Lab/iot_link/network/dtls/mbedtls/mbedtls-2.16.2/library\x509_crt.c ****     while( *p < end )
 1962              		.loc 2 709 0
 1963 0046 EFE0     		b	.L140
 1964              	.L163:
 1965              	.LBB3:
 710:C:/Users/dtjld/workspace/AIoT/src/LiteOS_Lab/iot_link/network/dtls/mbedtls/mbedtls-2.16.2/library\x509_crt.c ****     {
 711:C:/Users/dtjld/workspace/AIoT/src/LiteOS_Lab/iot_link/network/dtls/mbedtls/mbedtls-2.16.2/library\x509_crt.c ****         /*
 712:C:/Users/dtjld/workspace/AIoT/src/LiteOS_Lab/iot_link/network/dtls/mbedtls/mbedtls-2.16.2/library\x509_crt.c ****          * Extension  ::=  SEQUENCE  {
 713:C:/Users/dtjld/workspace/AIoT/src/LiteOS_Lab/iot_link/network/dtls/mbedtls/mbedtls-2.16.2/library\x509_crt.c ****          *      extnID      OBJECT IDENTIFIER,
 714:C:/Users/dtjld/workspace/AIoT/src/LiteOS_Lab/iot_link/network/dtls/mbedtls/mbedtls-2.16.2/library\x509_crt.c ****          *      critical    BOOLEAN DEFAULT FALSE,
 715:C:/Users/dtjld/workspace/AIoT/src/LiteOS_Lab/iot_link/network/dtls/mbedtls/mbedtls-2.16.2/library\x509_crt.c ****          *      extnValue   OCTET STRING  }
 716:C:/Users/dtjld/workspace/AIoT/src/LiteOS_Lab/iot_link/network/dtls/mbedtls/mbedtls-2.16.2/library\x509_crt.c ****          */
 717:C:/Users/dtjld/workspace/AIoT/src/LiteOS_Lab/iot_link/network/dtls/mbedtls/mbedtls-2.16.2/library\x509_crt.c ****         mbedtls_x509_buf extn_oid = {0, 0, NULL};
 1966              		.loc 2 717 0
 1967 0048 0023     		movs	r3, #0
 1968 004a FB61     		str	r3, [r7, #28]
 1969 004c 0023     		movs	r3, #0
 1970 004e 3B62     		str	r3, [r7, #32]
 1971 0050 0023     		movs	r3, #0
 1972 0052 7B62     		str	r3, [r7, #36]
 718:C:/Users/dtjld/workspace/AIoT/src/LiteOS_Lab/iot_link/network/dtls/mbedtls/mbedtls-2.16.2/library\x509_crt.c ****         int is_critical = 0; /* DEFAULT FALSE */
 1973              		.loc 2 718 0
 1974 0054 0023     		movs	r3, #0
 1975 0056 BB61     		str	r3, [r7, #24]
 719:C:/Users/dtjld/workspace/AIoT/src/LiteOS_Lab/iot_link/network/dtls/mbedtls/mbedtls-2.16.2/library\x509_crt.c ****         int ext_type = 0;
ARM GAS  C:\Users\dtjld\AppData\Local\Temp\ccTXdst3.s 			page 51


 1976              		.loc 2 719 0
 1977 0058 0023     		movs	r3, #0
 1978 005a 7B61     		str	r3, [r7, #20]
 720:C:/Users/dtjld/workspace/AIoT/src/LiteOS_Lab/iot_link/network/dtls/mbedtls/mbedtls-2.16.2/library\x509_crt.c **** 
 721:C:/Users/dtjld/workspace/AIoT/src/LiteOS_Lab/iot_link/network/dtls/mbedtls/mbedtls-2.16.2/library\x509_crt.c ****         if( ( ret = mbedtls_asn1_get_tag( p, end, &len,
 1979              		.loc 2 721 0
 1980 005c 07F12802 		add	r2, r7, #40
 1981 0060 3023     		movs	r3, #48
 1982 0062 B968     		ldr	r1, [r7, #8]
 1983 0064 F868     		ldr	r0, [r7, #12]
 1984 0066 FFF7FEFF 		bl	mbedtls_asn1_get_tag
 1985 006a 7863     		str	r0, [r7, #52]
 1986 006c 7B6B     		ldr	r3, [r7, #52]
 1987 006e 002B     		cmp	r3, #0
 1988 0070 03D0     		beq	.L141
 722:C:/Users/dtjld/workspace/AIoT/src/LiteOS_Lab/iot_link/network/dtls/mbedtls/mbedtls-2.16.2/library\x509_crt.c ****                 MBEDTLS_ASN1_CONSTRUCTED | MBEDTLS_ASN1_SEQUENCE ) ) != 0 )
 723:C:/Users/dtjld/workspace/AIoT/src/LiteOS_Lab/iot_link/network/dtls/mbedtls/mbedtls-2.16.2/library\x509_crt.c ****             return( MBEDTLS_ERR_X509_INVALID_EXTENSIONS + ret );
 1989              		.loc 2 723 0
 1990 0072 7B6B     		ldr	r3, [r7, #52]
 1991 0074 A3F51453 		sub	r3, r3, #9472
 1992 0078 E4E0     		b	.L165
 1993              	.L141:
 724:C:/Users/dtjld/workspace/AIoT/src/LiteOS_Lab/iot_link/network/dtls/mbedtls/mbedtls-2.16.2/library\x509_crt.c **** 
 725:C:/Users/dtjld/workspace/AIoT/src/LiteOS_Lab/iot_link/network/dtls/mbedtls/mbedtls-2.16.2/library\x509_crt.c ****         end_ext_data = *p + len;
 1994              		.loc 2 725 0
 1995 007a FB68     		ldr	r3, [r7, #12]
 1996 007c 1A68     		ldr	r2, [r3]
 1997 007e BB6A     		ldr	r3, [r7, #40]
 1998 0080 1344     		add	r3, r3, r2
 1999 0082 3B63     		str	r3, [r7, #48]
 726:C:/Users/dtjld/workspace/AIoT/src/LiteOS_Lab/iot_link/network/dtls/mbedtls/mbedtls-2.16.2/library\x509_crt.c **** 
 727:C:/Users/dtjld/workspace/AIoT/src/LiteOS_Lab/iot_link/network/dtls/mbedtls/mbedtls-2.16.2/library\x509_crt.c ****         /* Get extension ID */
 728:C:/Users/dtjld/workspace/AIoT/src/LiteOS_Lab/iot_link/network/dtls/mbedtls/mbedtls-2.16.2/library\x509_crt.c ****         if( ( ret = mbedtls_asn1_get_tag( p, end_ext_data, &extn_oid.len,
 2000              		.loc 2 728 0
 2001 0084 07F11C03 		add	r3, r7, #28
 2002 0088 1A1D     		adds	r2, r3, #4
 2003 008a 0623     		movs	r3, #6
 2004 008c 396B     		ldr	r1, [r7, #48]
 2005 008e F868     		ldr	r0, [r7, #12]
 2006 0090 FFF7FEFF 		bl	mbedtls_asn1_get_tag
 2007 0094 7863     		str	r0, [r7, #52]
 2008 0096 7B6B     		ldr	r3, [r7, #52]
 2009 0098 002B     		cmp	r3, #0
 2010 009a 03D0     		beq	.L143
 729:C:/Users/dtjld/workspace/AIoT/src/LiteOS_Lab/iot_link/network/dtls/mbedtls/mbedtls-2.16.2/library\x509_crt.c ****                                           MBEDTLS_ASN1_OID ) ) != 0 )
 730:C:/Users/dtjld/workspace/AIoT/src/LiteOS_Lab/iot_link/network/dtls/mbedtls/mbedtls-2.16.2/library\x509_crt.c ****             return( MBEDTLS_ERR_X509_INVALID_EXTENSIONS + ret );
 2011              		.loc 2 730 0
 2012 009c 7B6B     		ldr	r3, [r7, #52]
 2013 009e A3F51453 		sub	r3, r3, #9472
 2014 00a2 CFE0     		b	.L165
 2015              	.L143:
 731:C:/Users/dtjld/workspace/AIoT/src/LiteOS_Lab/iot_link/network/dtls/mbedtls/mbedtls-2.16.2/library\x509_crt.c **** 
 732:C:/Users/dtjld/workspace/AIoT/src/LiteOS_Lab/iot_link/network/dtls/mbedtls/mbedtls-2.16.2/library\x509_crt.c ****         extn_oid.tag = MBEDTLS_ASN1_OID;
 2016              		.loc 2 732 0
 2017 00a4 0623     		movs	r3, #6
 2018 00a6 FB61     		str	r3, [r7, #28]
 733:C:/Users/dtjld/workspace/AIoT/src/LiteOS_Lab/iot_link/network/dtls/mbedtls/mbedtls-2.16.2/library\x509_crt.c ****         extn_oid.p = *p;
ARM GAS  C:\Users\dtjld\AppData\Local\Temp\ccTXdst3.s 			page 52


 2019              		.loc 2 733 0
 2020 00a8 FB68     		ldr	r3, [r7, #12]
 2021 00aa 1B68     		ldr	r3, [r3]
 2022 00ac 7B62     		str	r3, [r7, #36]
 734:C:/Users/dtjld/workspace/AIoT/src/LiteOS_Lab/iot_link/network/dtls/mbedtls/mbedtls-2.16.2/library\x509_crt.c ****         *p += extn_oid.len;
 2023              		.loc 2 734 0
 2024 00ae FB68     		ldr	r3, [r7, #12]
 2025 00b0 1A68     		ldr	r2, [r3]
 2026 00b2 3B6A     		ldr	r3, [r7, #32]
 2027 00b4 1A44     		add	r2, r2, r3
 2028 00b6 FB68     		ldr	r3, [r7, #12]
 2029 00b8 1A60     		str	r2, [r3]
 735:C:/Users/dtjld/workspace/AIoT/src/LiteOS_Lab/iot_link/network/dtls/mbedtls/mbedtls-2.16.2/library\x509_crt.c **** 
 736:C:/Users/dtjld/workspace/AIoT/src/LiteOS_Lab/iot_link/network/dtls/mbedtls/mbedtls-2.16.2/library\x509_crt.c ****         /* Get optional critical */
 737:C:/Users/dtjld/workspace/AIoT/src/LiteOS_Lab/iot_link/network/dtls/mbedtls/mbedtls-2.16.2/library\x509_crt.c ****         if( ( ret = mbedtls_asn1_get_bool( p, end_ext_data, &is_critical ) ) != 0 &&
 2030              		.loc 2 737 0
 2031 00ba 07F11803 		add	r3, r7, #24
 2032 00be 1A46     		mov	r2, r3
 2033 00c0 396B     		ldr	r1, [r7, #48]
 2034 00c2 F868     		ldr	r0, [r7, #12]
 2035 00c4 FFF7FEFF 		bl	mbedtls_asn1_get_bool
 2036 00c8 7863     		str	r0, [r7, #52]
 2037 00ca 7B6B     		ldr	r3, [r7, #52]
 2038 00cc 002B     		cmp	r3, #0
 2039 00ce 07D0     		beq	.L144
 2040              		.loc 2 737 0 is_stmt 0 discriminator 1
 2041 00d0 7B6B     		ldr	r3, [r7, #52]
 2042 00d2 13F1620F 		cmn	r3, #98
 2043 00d6 03D0     		beq	.L144
 738:C:/Users/dtjld/workspace/AIoT/src/LiteOS_Lab/iot_link/network/dtls/mbedtls/mbedtls-2.16.2/library\x509_crt.c ****             ( ret != MBEDTLS_ERR_ASN1_UNEXPECTED_TAG ) )
 739:C:/Users/dtjld/workspace/AIoT/src/LiteOS_Lab/iot_link/network/dtls/mbedtls/mbedtls-2.16.2/library\x509_crt.c ****             return( MBEDTLS_ERR_X509_INVALID_EXTENSIONS + ret );
 2044              		.loc 2 739 0 is_stmt 1
 2045 00d8 7B6B     		ldr	r3, [r7, #52]
 2046 00da A3F51453 		sub	r3, r3, #9472
 2047 00de B1E0     		b	.L165
 2048              	.L144:
 740:C:/Users/dtjld/workspace/AIoT/src/LiteOS_Lab/iot_link/network/dtls/mbedtls/mbedtls-2.16.2/library\x509_crt.c **** 
 741:C:/Users/dtjld/workspace/AIoT/src/LiteOS_Lab/iot_link/network/dtls/mbedtls/mbedtls-2.16.2/library\x509_crt.c ****         /* Data should be octet string type */
 742:C:/Users/dtjld/workspace/AIoT/src/LiteOS_Lab/iot_link/network/dtls/mbedtls/mbedtls-2.16.2/library\x509_crt.c ****         if( ( ret = mbedtls_asn1_get_tag( p, end_ext_data, &len,
 2049              		.loc 2 742 0
 2050 00e0 07F12802 		add	r2, r7, #40
 2051 00e4 0423     		movs	r3, #4
 2052 00e6 396B     		ldr	r1, [r7, #48]
 2053 00e8 F868     		ldr	r0, [r7, #12]
 2054 00ea FFF7FEFF 		bl	mbedtls_asn1_get_tag
 2055 00ee 7863     		str	r0, [r7, #52]
 2056 00f0 7B6B     		ldr	r3, [r7, #52]
 2057 00f2 002B     		cmp	r3, #0
 2058 00f4 03D0     		beq	.L145
 743:C:/Users/dtjld/workspace/AIoT/src/LiteOS_Lab/iot_link/network/dtls/mbedtls/mbedtls-2.16.2/library\x509_crt.c ****                 MBEDTLS_ASN1_OCTET_STRING ) ) != 0 )
 744:C:/Users/dtjld/workspace/AIoT/src/LiteOS_Lab/iot_link/network/dtls/mbedtls/mbedtls-2.16.2/library\x509_crt.c ****             return( MBEDTLS_ERR_X509_INVALID_EXTENSIONS + ret );
 2059              		.loc 2 744 0
 2060 00f6 7B6B     		ldr	r3, [r7, #52]
 2061 00f8 A3F51453 		sub	r3, r3, #9472
 2062 00fc A2E0     		b	.L165
 2063              	.L145:
 745:C:/Users/dtjld/workspace/AIoT/src/LiteOS_Lab/iot_link/network/dtls/mbedtls/mbedtls-2.16.2/library\x509_crt.c **** 
ARM GAS  C:\Users\dtjld\AppData\Local\Temp\ccTXdst3.s 			page 53


 746:C:/Users/dtjld/workspace/AIoT/src/LiteOS_Lab/iot_link/network/dtls/mbedtls/mbedtls-2.16.2/library\x509_crt.c ****         end_ext_octet = *p + len;
 2064              		.loc 2 746 0
 2065 00fe FB68     		ldr	r3, [r7, #12]
 2066 0100 1A68     		ldr	r2, [r3]
 2067 0102 BB6A     		ldr	r3, [r7, #40]
 2068 0104 1344     		add	r3, r3, r2
 2069 0106 FB62     		str	r3, [r7, #44]
 747:C:/Users/dtjld/workspace/AIoT/src/LiteOS_Lab/iot_link/network/dtls/mbedtls/mbedtls-2.16.2/library\x509_crt.c **** 
 748:C:/Users/dtjld/workspace/AIoT/src/LiteOS_Lab/iot_link/network/dtls/mbedtls/mbedtls-2.16.2/library\x509_crt.c ****         if( end_ext_octet != end_ext_data )
 2070              		.loc 2 748 0
 2071 0108 FA6A     		ldr	r2, [r7, #44]
 2072 010a 3B6B     		ldr	r3, [r7, #48]
 2073 010c 9A42     		cmp	r2, r3
 2074 010e 01D0     		beq	.L146
 749:C:/Users/dtjld/workspace/AIoT/src/LiteOS_Lab/iot_link/network/dtls/mbedtls/mbedtls-2.16.2/library\x509_crt.c ****             return( MBEDTLS_ERR_X509_INVALID_EXTENSIONS +
 2075              		.loc 2 749 0
 2076 0110 4E4B     		ldr	r3, .L171
 2077 0112 97E0     		b	.L165
 2078              	.L146:
 750:C:/Users/dtjld/workspace/AIoT/src/LiteOS_Lab/iot_link/network/dtls/mbedtls/mbedtls-2.16.2/library\x509_crt.c ****                     MBEDTLS_ERR_ASN1_LENGTH_MISMATCH );
 751:C:/Users/dtjld/workspace/AIoT/src/LiteOS_Lab/iot_link/network/dtls/mbedtls/mbedtls-2.16.2/library\x509_crt.c **** 
 752:C:/Users/dtjld/workspace/AIoT/src/LiteOS_Lab/iot_link/network/dtls/mbedtls/mbedtls-2.16.2/library\x509_crt.c ****         /*
 753:C:/Users/dtjld/workspace/AIoT/src/LiteOS_Lab/iot_link/network/dtls/mbedtls/mbedtls-2.16.2/library\x509_crt.c ****          * Detect supported extensions
 754:C:/Users/dtjld/workspace/AIoT/src/LiteOS_Lab/iot_link/network/dtls/mbedtls/mbedtls-2.16.2/library\x509_crt.c ****          */
 755:C:/Users/dtjld/workspace/AIoT/src/LiteOS_Lab/iot_link/network/dtls/mbedtls/mbedtls-2.16.2/library\x509_crt.c ****         ret = mbedtls_oid_get_x509_ext_type( &extn_oid, &ext_type );
 2079              		.loc 2 755 0
 2080 0114 07F11402 		add	r2, r7, #20
 2081 0118 07F11C03 		add	r3, r7, #28
 2082 011c 1146     		mov	r1, r2
 2083 011e 1846     		mov	r0, r3
 2084 0120 FFF7FEFF 		bl	mbedtls_oid_get_x509_ext_type
 2085 0124 7863     		str	r0, [r7, #52]
 756:C:/Users/dtjld/workspace/AIoT/src/LiteOS_Lab/iot_link/network/dtls/mbedtls/mbedtls-2.16.2/library\x509_crt.c **** 
 757:C:/Users/dtjld/workspace/AIoT/src/LiteOS_Lab/iot_link/network/dtls/mbedtls/mbedtls-2.16.2/library\x509_crt.c ****         if( ret != 0 )
 2086              		.loc 2 757 0
 2087 0126 7B6B     		ldr	r3, [r7, #52]
 2088 0128 002B     		cmp	r3, #0
 2089 012a 07D0     		beq	.L147
 758:C:/Users/dtjld/workspace/AIoT/src/LiteOS_Lab/iot_link/network/dtls/mbedtls/mbedtls-2.16.2/library\x509_crt.c ****         {
 759:C:/Users/dtjld/workspace/AIoT/src/LiteOS_Lab/iot_link/network/dtls/mbedtls/mbedtls-2.16.2/library\x509_crt.c ****             /* No parser found, skip extension */
 760:C:/Users/dtjld/workspace/AIoT/src/LiteOS_Lab/iot_link/network/dtls/mbedtls/mbedtls-2.16.2/library\x509_crt.c ****             *p = end_ext_octet;
 2090              		.loc 2 760 0
 2091 012c FB68     		ldr	r3, [r7, #12]
 2092 012e FA6A     		ldr	r2, [r7, #44]
 2093 0130 1A60     		str	r2, [r3]
 761:C:/Users/dtjld/workspace/AIoT/src/LiteOS_Lab/iot_link/network/dtls/mbedtls/mbedtls-2.16.2/library\x509_crt.c **** 
 762:C:/Users/dtjld/workspace/AIoT/src/LiteOS_Lab/iot_link/network/dtls/mbedtls/mbedtls-2.16.2/library\x509_crt.c **** #if !defined(MBEDTLS_X509_ALLOW_UNSUPPORTED_CRITICAL_EXTENSION)
 763:C:/Users/dtjld/workspace/AIoT/src/LiteOS_Lab/iot_link/network/dtls/mbedtls/mbedtls-2.16.2/library\x509_crt.c ****             if( is_critical )
 2094              		.loc 2 763 0
 2095 0132 BB69     		ldr	r3, [r7, #24]
 2096 0134 002B     		cmp	r3, #0
 2097 0136 77D0     		beq	.L140
 764:C:/Users/dtjld/workspace/AIoT/src/LiteOS_Lab/iot_link/network/dtls/mbedtls/mbedtls-2.16.2/library\x509_crt.c ****             {
 765:C:/Users/dtjld/workspace/AIoT/src/LiteOS_Lab/iot_link/network/dtls/mbedtls/mbedtls-2.16.2/library\x509_crt.c ****                 /* Data is marked as critical: fail */
 766:C:/Users/dtjld/workspace/AIoT/src/LiteOS_Lab/iot_link/network/dtls/mbedtls/mbedtls-2.16.2/library\x509_crt.c ****                 return( MBEDTLS_ERR_X509_INVALID_EXTENSIONS +
 2098              		.loc 2 766 0
 2099 0138 454B     		ldr	r3, .L171+4
ARM GAS  C:\Users\dtjld\AppData\Local\Temp\ccTXdst3.s 			page 54


 2100 013a 83E0     		b	.L165
 2101              	.L147:
 767:C:/Users/dtjld/workspace/AIoT/src/LiteOS_Lab/iot_link/network/dtls/mbedtls/mbedtls-2.16.2/library\x509_crt.c ****                         MBEDTLS_ERR_ASN1_UNEXPECTED_TAG );
 768:C:/Users/dtjld/workspace/AIoT/src/LiteOS_Lab/iot_link/network/dtls/mbedtls/mbedtls-2.16.2/library\x509_crt.c ****             }
 769:C:/Users/dtjld/workspace/AIoT/src/LiteOS_Lab/iot_link/network/dtls/mbedtls/mbedtls-2.16.2/library\x509_crt.c **** #endif
 770:C:/Users/dtjld/workspace/AIoT/src/LiteOS_Lab/iot_link/network/dtls/mbedtls/mbedtls-2.16.2/library\x509_crt.c ****             continue;
 771:C:/Users/dtjld/workspace/AIoT/src/LiteOS_Lab/iot_link/network/dtls/mbedtls/mbedtls-2.16.2/library\x509_crt.c ****         }
 772:C:/Users/dtjld/workspace/AIoT/src/LiteOS_Lab/iot_link/network/dtls/mbedtls/mbedtls-2.16.2/library\x509_crt.c **** 
 773:C:/Users/dtjld/workspace/AIoT/src/LiteOS_Lab/iot_link/network/dtls/mbedtls/mbedtls-2.16.2/library\x509_crt.c ****         /* Forbid repeated extensions */
 774:C:/Users/dtjld/workspace/AIoT/src/LiteOS_Lab/iot_link/network/dtls/mbedtls/mbedtls-2.16.2/library\x509_crt.c ****         if( ( crt->ext_types & ext_type ) != 0 )
 2102              		.loc 2 774 0
 2103 013c 7B68     		ldr	r3, [r7, #4]
 2104 013e D3F8F820 		ldr	r2, [r3, #248]
 2105 0142 7B69     		ldr	r3, [r7, #20]
 2106 0144 1340     		ands	r3, r3, r2
 2107 0146 002B     		cmp	r3, #0
 2108 0148 01D0     		beq	.L149
 775:C:/Users/dtjld/workspace/AIoT/src/LiteOS_Lab/iot_link/network/dtls/mbedtls/mbedtls-2.16.2/library\x509_crt.c ****             return( MBEDTLS_ERR_X509_INVALID_EXTENSIONS );
 2109              		.loc 2 775 0
 2110 014a 424B     		ldr	r3, .L171+8
 2111 014c 7AE0     		b	.L165
 2112              	.L149:
 776:C:/Users/dtjld/workspace/AIoT/src/LiteOS_Lab/iot_link/network/dtls/mbedtls/mbedtls-2.16.2/library\x509_crt.c **** 
 777:C:/Users/dtjld/workspace/AIoT/src/LiteOS_Lab/iot_link/network/dtls/mbedtls/mbedtls-2.16.2/library\x509_crt.c ****         crt->ext_types |= ext_type;
 2113              		.loc 2 777 0
 2114 014e 7B68     		ldr	r3, [r7, #4]
 2115 0150 D3F8F820 		ldr	r2, [r3, #248]
 2116 0154 7B69     		ldr	r3, [r7, #20]
 2117 0156 1A43     		orrs	r2, r2, r3
 2118 0158 7B68     		ldr	r3, [r7, #4]
 2119 015a C3F8F820 		str	r2, [r3, #248]
 778:C:/Users/dtjld/workspace/AIoT/src/LiteOS_Lab/iot_link/network/dtls/mbedtls/mbedtls-2.16.2/library\x509_crt.c **** 
 779:C:/Users/dtjld/workspace/AIoT/src/LiteOS_Lab/iot_link/network/dtls/mbedtls/mbedtls-2.16.2/library\x509_crt.c ****         switch( ext_type )
 2120              		.loc 2 779 0
 2121 015e 7B69     		ldr	r3, [r7, #20]
 2122 0160 B3F5807F 		cmp	r3, #256
 2123 0164 0ED0     		beq	.L151
 2124 0166 B3F5807F 		cmp	r3, #256
 2125 016a 04DC     		bgt	.L152
 2126 016c 042B     		cmp	r3, #4
 2127 016e 19D0     		beq	.L153
 2128 0170 202B     		cmp	r3, #32
 2129 0172 33D0     		beq	.L154
 2130 0174 4DE0     		b	.L150
 2131              	.L152:
 2132 0176 B3F5006F 		cmp	r3, #2048
 2133 017a 21D0     		beq	.L155
 2134 017c B3F5803F 		cmp	r3, #65536
 2135 0180 39D0     		beq	.L156
 2136 0182 46E0     		b	.L150
 2137              	.L151:
 780:C:/Users/dtjld/workspace/AIoT/src/LiteOS_Lab/iot_link/network/dtls/mbedtls/mbedtls-2.16.2/library\x509_crt.c ****         {
 781:C:/Users/dtjld/workspace/AIoT/src/LiteOS_Lab/iot_link/network/dtls/mbedtls/mbedtls-2.16.2/library\x509_crt.c ****         case MBEDTLS_X509_EXT_BASIC_CONSTRAINTS:
 782:C:/Users/dtjld/workspace/AIoT/src/LiteOS_Lab/iot_link/network/dtls/mbedtls/mbedtls-2.16.2/library\x509_crt.c ****             /* Parse basic constraints */
 783:C:/Users/dtjld/workspace/AIoT/src/LiteOS_Lab/iot_link/network/dtls/mbedtls/mbedtls-2.16.2/library\x509_crt.c ****             if( ( ret = x509_get_basic_constraints( p, end_ext_octet,
 2138              		.loc 2 783 0
 2139 0184 7B68     		ldr	r3, [r7, #4]
ARM GAS  C:\Users\dtjld\AppData\Local\Temp\ccTXdst3.s 			page 55


 2140 0186 03F1FC02 		add	r2, r3, #252
 2141 018a 7B68     		ldr	r3, [r7, #4]
 2142 018c 03F58073 		add	r3, r3, #256
 2143 0190 F96A     		ldr	r1, [r7, #44]
 2144 0192 F868     		ldr	r0, [r7, #12]
 2145 0194 FFF7FEFF 		bl	x509_get_basic_constraints
 2146 0198 7863     		str	r0, [r7, #52]
 2147 019a 7B6B     		ldr	r3, [r7, #52]
 2148 019c 002B     		cmp	r3, #0
 2149 019e 3AD0     		beq	.L166
 784:C:/Users/dtjld/workspace/AIoT/src/LiteOS_Lab/iot_link/network/dtls/mbedtls/mbedtls-2.16.2/library\x509_crt.c ****                     &crt->ca_istrue, &crt->max_pathlen ) ) != 0 )
 785:C:/Users/dtjld/workspace/AIoT/src/LiteOS_Lab/iot_link/network/dtls/mbedtls/mbedtls-2.16.2/library\x509_crt.c ****                 return( ret );
 2150              		.loc 2 785 0
 2151 01a0 7B6B     		ldr	r3, [r7, #52]
 2152 01a2 4FE0     		b	.L165
 2153              	.L153:
 786:C:/Users/dtjld/workspace/AIoT/src/LiteOS_Lab/iot_link/network/dtls/mbedtls/mbedtls-2.16.2/library\x509_crt.c ****             break;
 787:C:/Users/dtjld/workspace/AIoT/src/LiteOS_Lab/iot_link/network/dtls/mbedtls/mbedtls-2.16.2/library\x509_crt.c **** 
 788:C:/Users/dtjld/workspace/AIoT/src/LiteOS_Lab/iot_link/network/dtls/mbedtls/mbedtls-2.16.2/library\x509_crt.c ****         case MBEDTLS_X509_EXT_KEY_USAGE:
 789:C:/Users/dtjld/workspace/AIoT/src/LiteOS_Lab/iot_link/network/dtls/mbedtls/mbedtls-2.16.2/library\x509_crt.c ****             /* Parse key usage */
 790:C:/Users/dtjld/workspace/AIoT/src/LiteOS_Lab/iot_link/network/dtls/mbedtls/mbedtls-2.16.2/library\x509_crt.c ****             if( ( ret = x509_get_key_usage( p, end_ext_octet,
 2154              		.loc 2 790 0
 2155 01a4 7B68     		ldr	r3, [r7, #4]
 2156 01a6 03F58273 		add	r3, r3, #260
 2157 01aa 1A46     		mov	r2, r3
 2158 01ac F96A     		ldr	r1, [r7, #44]
 2159 01ae F868     		ldr	r0, [r7, #12]
 2160 01b0 FFF7FEFF 		bl	x509_get_key_usage
 2161 01b4 7863     		str	r0, [r7, #52]
 2162 01b6 7B6B     		ldr	r3, [r7, #52]
 2163 01b8 002B     		cmp	r3, #0
 2164 01ba 2ED0     		beq	.L167
 791:C:/Users/dtjld/workspace/AIoT/src/LiteOS_Lab/iot_link/network/dtls/mbedtls/mbedtls-2.16.2/library\x509_crt.c ****                     &crt->key_usage ) ) != 0 )
 792:C:/Users/dtjld/workspace/AIoT/src/LiteOS_Lab/iot_link/network/dtls/mbedtls/mbedtls-2.16.2/library\x509_crt.c ****                 return( ret );
 2165              		.loc 2 792 0
 2166 01bc 7B6B     		ldr	r3, [r7, #52]
 2167 01be 41E0     		b	.L165
 2168              	.L155:
 793:C:/Users/dtjld/workspace/AIoT/src/LiteOS_Lab/iot_link/network/dtls/mbedtls/mbedtls-2.16.2/library\x509_crt.c ****             break;
 794:C:/Users/dtjld/workspace/AIoT/src/LiteOS_Lab/iot_link/network/dtls/mbedtls/mbedtls-2.16.2/library\x509_crt.c **** 
 795:C:/Users/dtjld/workspace/AIoT/src/LiteOS_Lab/iot_link/network/dtls/mbedtls/mbedtls-2.16.2/library\x509_crt.c ****         case MBEDTLS_X509_EXT_EXTENDED_KEY_USAGE:
 796:C:/Users/dtjld/workspace/AIoT/src/LiteOS_Lab/iot_link/network/dtls/mbedtls/mbedtls-2.16.2/library\x509_crt.c ****             /* Parse extended key usage */
 797:C:/Users/dtjld/workspace/AIoT/src/LiteOS_Lab/iot_link/network/dtls/mbedtls/mbedtls-2.16.2/library\x509_crt.c ****             if( ( ret = x509_get_ext_key_usage( p, end_ext_octet,
 2169              		.loc 2 797 0
 2170 01c0 7B68     		ldr	r3, [r7, #4]
 2171 01c2 03F58473 		add	r3, r3, #264
 2172 01c6 1A46     		mov	r2, r3
 2173 01c8 F96A     		ldr	r1, [r7, #44]
 2174 01ca F868     		ldr	r0, [r7, #12]
 2175 01cc FFF7FEFF 		bl	x509_get_ext_key_usage
 2176 01d0 7863     		str	r0, [r7, #52]
 2177 01d2 7B6B     		ldr	r3, [r7, #52]
 2178 01d4 002B     		cmp	r3, #0
 2179 01d6 22D0     		beq	.L168
 798:C:/Users/dtjld/workspace/AIoT/src/LiteOS_Lab/iot_link/network/dtls/mbedtls/mbedtls-2.16.2/library\x509_crt.c ****                     &crt->ext_key_usage ) ) != 0 )
 799:C:/Users/dtjld/workspace/AIoT/src/LiteOS_Lab/iot_link/network/dtls/mbedtls/mbedtls-2.16.2/library\x509_crt.c ****                 return( ret );
 2180              		.loc 2 799 0
ARM GAS  C:\Users\dtjld\AppData\Local\Temp\ccTXdst3.s 			page 56


 2181 01d8 7B6B     		ldr	r3, [r7, #52]
 2182 01da 33E0     		b	.L165
 2183              	.L154:
 800:C:/Users/dtjld/workspace/AIoT/src/LiteOS_Lab/iot_link/network/dtls/mbedtls/mbedtls-2.16.2/library\x509_crt.c ****             break;
 801:C:/Users/dtjld/workspace/AIoT/src/LiteOS_Lab/iot_link/network/dtls/mbedtls/mbedtls-2.16.2/library\x509_crt.c **** 
 802:C:/Users/dtjld/workspace/AIoT/src/LiteOS_Lab/iot_link/network/dtls/mbedtls/mbedtls-2.16.2/library\x509_crt.c ****         case MBEDTLS_X509_EXT_SUBJECT_ALT_NAME:
 803:C:/Users/dtjld/workspace/AIoT/src/LiteOS_Lab/iot_link/network/dtls/mbedtls/mbedtls-2.16.2/library\x509_crt.c ****             /* Parse subject alt name */
 804:C:/Users/dtjld/workspace/AIoT/src/LiteOS_Lab/iot_link/network/dtls/mbedtls/mbedtls-2.16.2/library\x509_crt.c ****             if( ( ret = x509_get_subject_alt_name( p, end_ext_octet,
 2184              		.loc 2 804 0
 2185 01dc 7B68     		ldr	r3, [r7, #4]
 2186 01de E833     		adds	r3, r3, #232
 2187 01e0 1A46     		mov	r2, r3
 2188 01e2 F96A     		ldr	r1, [r7, #44]
 2189 01e4 F868     		ldr	r0, [r7, #12]
 2190 01e6 FFF7FEFF 		bl	x509_get_subject_alt_name
 2191 01ea 7863     		str	r0, [r7, #52]
 2192 01ec 7B6B     		ldr	r3, [r7, #52]
 2193 01ee 002B     		cmp	r3, #0
 2194 01f0 17D0     		beq	.L169
 805:C:/Users/dtjld/workspace/AIoT/src/LiteOS_Lab/iot_link/network/dtls/mbedtls/mbedtls-2.16.2/library\x509_crt.c ****                     &crt->subject_alt_names ) ) != 0 )
 806:C:/Users/dtjld/workspace/AIoT/src/LiteOS_Lab/iot_link/network/dtls/mbedtls/mbedtls-2.16.2/library\x509_crt.c ****                 return( ret );
 2195              		.loc 2 806 0
 2196 01f2 7B6B     		ldr	r3, [r7, #52]
 2197 01f4 26E0     		b	.L165
 2198              	.L156:
 807:C:/Users/dtjld/workspace/AIoT/src/LiteOS_Lab/iot_link/network/dtls/mbedtls/mbedtls-2.16.2/library\x509_crt.c ****             break;
 808:C:/Users/dtjld/workspace/AIoT/src/LiteOS_Lab/iot_link/network/dtls/mbedtls/mbedtls-2.16.2/library\x509_crt.c **** 
 809:C:/Users/dtjld/workspace/AIoT/src/LiteOS_Lab/iot_link/network/dtls/mbedtls/mbedtls-2.16.2/library\x509_crt.c ****         case MBEDTLS_X509_EXT_NS_CERT_TYPE:
 810:C:/Users/dtjld/workspace/AIoT/src/LiteOS_Lab/iot_link/network/dtls/mbedtls/mbedtls-2.16.2/library\x509_crt.c ****             /* Parse netscape certificate type */
 811:C:/Users/dtjld/workspace/AIoT/src/LiteOS_Lab/iot_link/network/dtls/mbedtls/mbedtls-2.16.2/library\x509_crt.c ****             if( ( ret = x509_get_ns_cert_type( p, end_ext_octet,
 2199              		.loc 2 811 0
 2200 01f6 7B68     		ldr	r3, [r7, #4]
 2201 01f8 03F58C73 		add	r3, r3, #280
 2202 01fc 1A46     		mov	r2, r3
 2203 01fe F96A     		ldr	r1, [r7, #44]
 2204 0200 F868     		ldr	r0, [r7, #12]
 2205 0202 FFF7FEFF 		bl	x509_get_ns_cert_type
 2206 0206 7863     		str	r0, [r7, #52]
 2207 0208 7B6B     		ldr	r3, [r7, #52]
 2208 020a 002B     		cmp	r3, #0
 2209 020c 0BD0     		beq	.L170
 812:C:/Users/dtjld/workspace/AIoT/src/LiteOS_Lab/iot_link/network/dtls/mbedtls/mbedtls-2.16.2/library\x509_crt.c ****                     &crt->ns_cert_type ) ) != 0 )
 813:C:/Users/dtjld/workspace/AIoT/src/LiteOS_Lab/iot_link/network/dtls/mbedtls/mbedtls-2.16.2/library\x509_crt.c ****                 return( ret );
 2210              		.loc 2 813 0
 2211 020e 7B6B     		ldr	r3, [r7, #52]
 2212 0210 18E0     		b	.L165
 2213              	.L150:
 814:C:/Users/dtjld/workspace/AIoT/src/LiteOS_Lab/iot_link/network/dtls/mbedtls/mbedtls-2.16.2/library\x509_crt.c ****             break;
 815:C:/Users/dtjld/workspace/AIoT/src/LiteOS_Lab/iot_link/network/dtls/mbedtls/mbedtls-2.16.2/library\x509_crt.c **** 
 816:C:/Users/dtjld/workspace/AIoT/src/LiteOS_Lab/iot_link/network/dtls/mbedtls/mbedtls-2.16.2/library\x509_crt.c ****         default:
 817:C:/Users/dtjld/workspace/AIoT/src/LiteOS_Lab/iot_link/network/dtls/mbedtls/mbedtls-2.16.2/library\x509_crt.c ****             return( MBEDTLS_ERR_X509_FEATURE_UNAVAILABLE );
 2214              		.loc 2 817 0
 2215 0212 114B     		ldr	r3, .L171+12
 2216 0214 16E0     		b	.L165
 2217              	.L166:
 786:C:/Users/dtjld/workspace/AIoT/src/LiteOS_Lab/iot_link/network/dtls/mbedtls/mbedtls-2.16.2/library\x509_crt.c **** 
 2218              		.loc 2 786 0
ARM GAS  C:\Users\dtjld\AppData\Local\Temp\ccTXdst3.s 			page 57


 2219 0216 00BF     		nop
 2220 0218 06E0     		b	.L140
 2221              	.L167:
 793:C:/Users/dtjld/workspace/AIoT/src/LiteOS_Lab/iot_link/network/dtls/mbedtls/mbedtls-2.16.2/library\x509_crt.c **** 
 2222              		.loc 2 793 0
 2223 021a 00BF     		nop
 2224 021c 04E0     		b	.L140
 2225              	.L168:
 800:C:/Users/dtjld/workspace/AIoT/src/LiteOS_Lab/iot_link/network/dtls/mbedtls/mbedtls-2.16.2/library\x509_crt.c **** 
 2226              		.loc 2 800 0
 2227 021e 00BF     		nop
 2228 0220 02E0     		b	.L140
 2229              	.L169:
 807:C:/Users/dtjld/workspace/AIoT/src/LiteOS_Lab/iot_link/network/dtls/mbedtls/mbedtls-2.16.2/library\x509_crt.c **** 
 2230              		.loc 2 807 0
 2231 0222 00BF     		nop
 2232 0224 00E0     		b	.L140
 2233              	.L170:
 814:C:/Users/dtjld/workspace/AIoT/src/LiteOS_Lab/iot_link/network/dtls/mbedtls/mbedtls-2.16.2/library\x509_crt.c **** 
 2234              		.loc 2 814 0
 2235 0226 00BF     		nop
 2236              	.L140:
 2237              	.LBE3:
 709:C:/Users/dtjld/workspace/AIoT/src/LiteOS_Lab/iot_link/network/dtls/mbedtls/mbedtls-2.16.2/library\x509_crt.c ****     {
 2238              		.loc 2 709 0
 2239 0228 FB68     		ldr	r3, [r7, #12]
 2240 022a 1B68     		ldr	r3, [r3]
 2241 022c BA68     		ldr	r2, [r7, #8]
 2242 022e 9A42     		cmp	r2, r3
 2243 0230 3FF60AAF 		bhi	.L163
 818:C:/Users/dtjld/workspace/AIoT/src/LiteOS_Lab/iot_link/network/dtls/mbedtls/mbedtls-2.16.2/library\x509_crt.c ****         }
 819:C:/Users/dtjld/workspace/AIoT/src/LiteOS_Lab/iot_link/network/dtls/mbedtls/mbedtls-2.16.2/library\x509_crt.c ****     }
 820:C:/Users/dtjld/workspace/AIoT/src/LiteOS_Lab/iot_link/network/dtls/mbedtls/mbedtls-2.16.2/library\x509_crt.c **** 
 821:C:/Users/dtjld/workspace/AIoT/src/LiteOS_Lab/iot_link/network/dtls/mbedtls/mbedtls-2.16.2/library\x509_crt.c ****     if( *p != end )
 2244              		.loc 2 821 0
 2245 0234 FB68     		ldr	r3, [r7, #12]
 2246 0236 1B68     		ldr	r3, [r3]
 2247 0238 BA68     		ldr	r2, [r7, #8]
 2248 023a 9A42     		cmp	r2, r3
 2249 023c 01D0     		beq	.L164
 822:C:/Users/dtjld/workspace/AIoT/src/LiteOS_Lab/iot_link/network/dtls/mbedtls/mbedtls-2.16.2/library\x509_crt.c ****         return( MBEDTLS_ERR_X509_INVALID_EXTENSIONS +
 2250              		.loc 2 822 0
 2251 023e 034B     		ldr	r3, .L171
 2252 0240 00E0     		b	.L165
 2253              	.L164:
 823:C:/Users/dtjld/workspace/AIoT/src/LiteOS_Lab/iot_link/network/dtls/mbedtls/mbedtls-2.16.2/library\x509_crt.c ****                 MBEDTLS_ERR_ASN1_LENGTH_MISMATCH );
 824:C:/Users/dtjld/workspace/AIoT/src/LiteOS_Lab/iot_link/network/dtls/mbedtls/mbedtls-2.16.2/library\x509_crt.c **** 
 825:C:/Users/dtjld/workspace/AIoT/src/LiteOS_Lab/iot_link/network/dtls/mbedtls/mbedtls-2.16.2/library\x509_crt.c ****     return( 0 );
 2254              		.loc 2 825 0
 2255 0242 0023     		movs	r3, #0
 2256              	.L165:
 826:C:/Users/dtjld/workspace/AIoT/src/LiteOS_Lab/iot_link/network/dtls/mbedtls/mbedtls-2.16.2/library\x509_crt.c **** }
 2257              		.loc 2 826 0 discriminator 6
 2258 0244 1846     		mov	r0, r3
 2259 0246 3837     		adds	r7, r7, #56
 2260              	.LCFI93:
 2261              		.cfi_def_cfa_offset 8
ARM GAS  C:\Users\dtjld\AppData\Local\Temp\ccTXdst3.s 			page 58


 2262 0248 BD46     		mov	sp, r7
 2263              	.LCFI94:
 2264              		.cfi_def_cfa_register 13
 2265              		@ sp needed
 2266 024a 80BD     		pop	{r7, pc}
 2267              	.L172:
 2268              		.align	2
 2269              	.L171:
 2270 024c 9ADAFFFF 		.word	-9574
 2271 0250 9EDAFFFF 		.word	-9570
 2272 0254 00DBFFFF 		.word	-9472
 2273 0258 80DFFFFF 		.word	-8320
 2274              		.cfi_endproc
 2275              	.LFE29:
 2277              		.section	.text.x509_crt_parse_der_core,"ax",%progbits
 2278              		.align	1
 2279              		.syntax unified
 2280              		.thumb
 2281              		.thumb_func
 2282              		.fpu fpv4-sp-d16
 2284              	x509_crt_parse_der_core:
 2285              	.LFB30:
 827:C:/Users/dtjld/workspace/AIoT/src/LiteOS_Lab/iot_link/network/dtls/mbedtls/mbedtls-2.16.2/library\x509_crt.c **** 
 828:C:/Users/dtjld/workspace/AIoT/src/LiteOS_Lab/iot_link/network/dtls/mbedtls/mbedtls-2.16.2/library\x509_crt.c **** /*
 829:C:/Users/dtjld/workspace/AIoT/src/LiteOS_Lab/iot_link/network/dtls/mbedtls/mbedtls-2.16.2/library\x509_crt.c ****  * Parse and fill a single X.509 certificate in DER format
 830:C:/Users/dtjld/workspace/AIoT/src/LiteOS_Lab/iot_link/network/dtls/mbedtls/mbedtls-2.16.2/library\x509_crt.c ****  */
 831:C:/Users/dtjld/workspace/AIoT/src/LiteOS_Lab/iot_link/network/dtls/mbedtls/mbedtls-2.16.2/library\x509_crt.c **** static int x509_crt_parse_der_core( mbedtls_x509_crt *crt, const unsigned char *buf,
 832:C:/Users/dtjld/workspace/AIoT/src/LiteOS_Lab/iot_link/network/dtls/mbedtls/mbedtls-2.16.2/library\x509_crt.c ****                                     size_t buflen )
 833:C:/Users/dtjld/workspace/AIoT/src/LiteOS_Lab/iot_link/network/dtls/mbedtls/mbedtls-2.16.2/library\x509_crt.c **** {
 2286              		.loc 2 833 0
 2287              		.cfi_startproc
 2288              		@ args = 0, pretend = 0, frame = 72
 2289              		@ frame_needed = 1, uses_anonymous_args = 0
 2290 0000 90B5     		push	{r4, r7, lr}
 2291              	.LCFI95:
 2292              		.cfi_def_cfa_offset 12
 2293              		.cfi_offset 4, -12
 2294              		.cfi_offset 7, -8
 2295              		.cfi_offset 14, -4
 2296 0002 95B0     		sub	sp, sp, #84
 2297              	.LCFI96:
 2298              		.cfi_def_cfa_offset 96
 2299 0004 02AF     		add	r7, sp, #8
 2300              	.LCFI97:
 2301              		.cfi_def_cfa 7, 88
 2302 0006 F860     		str	r0, [r7, #12]
 2303 0008 B960     		str	r1, [r7, #8]
 2304 000a 7A60     		str	r2, [r7, #4]
 834:C:/Users/dtjld/workspace/AIoT/src/LiteOS_Lab/iot_link/network/dtls/mbedtls/mbedtls-2.16.2/library\x509_crt.c ****     int ret;
 835:C:/Users/dtjld/workspace/AIoT/src/LiteOS_Lab/iot_link/network/dtls/mbedtls/mbedtls-2.16.2/library\x509_crt.c ****     size_t len;
 836:C:/Users/dtjld/workspace/AIoT/src/LiteOS_Lab/iot_link/network/dtls/mbedtls/mbedtls-2.16.2/library\x509_crt.c ****     unsigned char *p, *end, *crt_end;
 837:C:/Users/dtjld/workspace/AIoT/src/LiteOS_Lab/iot_link/network/dtls/mbedtls/mbedtls-2.16.2/library\x509_crt.c ****     mbedtls_x509_buf sig_params1, sig_params2, sig_oid2;
 838:C:/Users/dtjld/workspace/AIoT/src/LiteOS_Lab/iot_link/network/dtls/mbedtls/mbedtls-2.16.2/library\x509_crt.c **** 
 839:C:/Users/dtjld/workspace/AIoT/src/LiteOS_Lab/iot_link/network/dtls/mbedtls/mbedtls-2.16.2/library\x509_crt.c ****     memset( &sig_params1, 0, sizeof( mbedtls_x509_buf ) );
 2305              		.loc 2 839 0
 2306 000c 07F12803 		add	r3, r7, #40
 2307 0010 0C22     		movs	r2, #12
ARM GAS  C:\Users\dtjld\AppData\Local\Temp\ccTXdst3.s 			page 59


 2308 0012 0021     		movs	r1, #0
 2309 0014 1846     		mov	r0, r3
 2310 0016 FFF7FEFF 		bl	memset
 840:C:/Users/dtjld/workspace/AIoT/src/LiteOS_Lab/iot_link/network/dtls/mbedtls/mbedtls-2.16.2/library\x509_crt.c ****     memset( &sig_params2, 0, sizeof( mbedtls_x509_buf ) );
 2311              		.loc 2 840 0
 2312 001a 07F11C03 		add	r3, r7, #28
 2313 001e 0C22     		movs	r2, #12
 2314 0020 0021     		movs	r1, #0
 2315 0022 1846     		mov	r0, r3
 2316 0024 FFF7FEFF 		bl	memset
 841:C:/Users/dtjld/workspace/AIoT/src/LiteOS_Lab/iot_link/network/dtls/mbedtls/mbedtls-2.16.2/library\x509_crt.c ****     memset( &sig_oid2, 0, sizeof( mbedtls_x509_buf ) );
 2317              		.loc 2 841 0
 2318 0028 07F11003 		add	r3, r7, #16
 2319 002c 0C22     		movs	r2, #12
 2320 002e 0021     		movs	r1, #0
 2321 0030 1846     		mov	r0, r3
 2322 0032 FFF7FEFF 		bl	memset
 842:C:/Users/dtjld/workspace/AIoT/src/LiteOS_Lab/iot_link/network/dtls/mbedtls/mbedtls-2.16.2/library\x509_crt.c **** 
 843:C:/Users/dtjld/workspace/AIoT/src/LiteOS_Lab/iot_link/network/dtls/mbedtls/mbedtls-2.16.2/library\x509_crt.c ****     /*
 844:C:/Users/dtjld/workspace/AIoT/src/LiteOS_Lab/iot_link/network/dtls/mbedtls/mbedtls-2.16.2/library\x509_crt.c ****      * Check for valid input
 845:C:/Users/dtjld/workspace/AIoT/src/LiteOS_Lab/iot_link/network/dtls/mbedtls/mbedtls-2.16.2/library\x509_crt.c ****      */
 846:C:/Users/dtjld/workspace/AIoT/src/LiteOS_Lab/iot_link/network/dtls/mbedtls/mbedtls-2.16.2/library\x509_crt.c ****     if( crt == NULL || buf == NULL )
 2323              		.loc 2 846 0
 2324 0036 FB68     		ldr	r3, [r7, #12]
 2325 0038 002B     		cmp	r3, #0
 2326 003a 02D0     		beq	.L174
 2327              		.loc 2 846 0 is_stmt 0 discriminator 1
 2328 003c BB68     		ldr	r3, [r7, #8]
 2329 003e 002B     		cmp	r3, #0
 2330 0040 01D1     		bne	.L175
 2331              	.L174:
 847:C:/Users/dtjld/workspace/AIoT/src/LiteOS_Lab/iot_link/network/dtls/mbedtls/mbedtls-2.16.2/library\x509_crt.c ****         return( MBEDTLS_ERR_X509_BAD_INPUT_DATA );
 2332              		.loc 2 847 0 is_stmt 1
 2333 0042 A14B     		ldr	r3, .L204
 2334 0044 0AE2     		b	.L203
 2335              	.L175:
 848:C:/Users/dtjld/workspace/AIoT/src/LiteOS_Lab/iot_link/network/dtls/mbedtls/mbedtls-2.16.2/library\x509_crt.c **** 
 849:C:/Users/dtjld/workspace/AIoT/src/LiteOS_Lab/iot_link/network/dtls/mbedtls/mbedtls-2.16.2/library\x509_crt.c ****     // Use the original buffer until we figure out actual length
 850:C:/Users/dtjld/workspace/AIoT/src/LiteOS_Lab/iot_link/network/dtls/mbedtls/mbedtls-2.16.2/library\x509_crt.c ****     p = (unsigned char*) buf;
 2336              		.loc 2 850 0
 2337 0046 BB68     		ldr	r3, [r7, #8]
 2338 0048 7B63     		str	r3, [r7, #52]
 851:C:/Users/dtjld/workspace/AIoT/src/LiteOS_Lab/iot_link/network/dtls/mbedtls/mbedtls-2.16.2/library\x509_crt.c ****     len = buflen;
 2339              		.loc 2 851 0
 2340 004a 7B68     		ldr	r3, [r7, #4]
 2341 004c BB63     		str	r3, [r7, #56]
 852:C:/Users/dtjld/workspace/AIoT/src/LiteOS_Lab/iot_link/network/dtls/mbedtls/mbedtls-2.16.2/library\x509_crt.c ****     end = p + len;
 2342              		.loc 2 852 0
 2343 004e 7A6B     		ldr	r2, [r7, #52]
 2344 0050 BB6B     		ldr	r3, [r7, #56]
 2345 0052 1344     		add	r3, r3, r2
 2346 0054 3B64     		str	r3, [r7, #64]
 853:C:/Users/dtjld/workspace/AIoT/src/LiteOS_Lab/iot_link/network/dtls/mbedtls/mbedtls-2.16.2/library\x509_crt.c **** 
 854:C:/Users/dtjld/workspace/AIoT/src/LiteOS_Lab/iot_link/network/dtls/mbedtls/mbedtls-2.16.2/library\x509_crt.c ****     /*
 855:C:/Users/dtjld/workspace/AIoT/src/LiteOS_Lab/iot_link/network/dtls/mbedtls/mbedtls-2.16.2/library\x509_crt.c ****      * Certificate  ::=  SEQUENCE  {
 856:C:/Users/dtjld/workspace/AIoT/src/LiteOS_Lab/iot_link/network/dtls/mbedtls/mbedtls-2.16.2/library\x509_crt.c ****      *      tbsCertificate       TBSCertificate,
 857:C:/Users/dtjld/workspace/AIoT/src/LiteOS_Lab/iot_link/network/dtls/mbedtls/mbedtls-2.16.2/library\x509_crt.c ****      *      signatureAlgorithm   AlgorithmIdentifier,
ARM GAS  C:\Users\dtjld\AppData\Local\Temp\ccTXdst3.s 			page 60


 858:C:/Users/dtjld/workspace/AIoT/src/LiteOS_Lab/iot_link/network/dtls/mbedtls/mbedtls-2.16.2/library\x509_crt.c ****      *      signatureValue       BIT STRING  }
 859:C:/Users/dtjld/workspace/AIoT/src/LiteOS_Lab/iot_link/network/dtls/mbedtls/mbedtls-2.16.2/library\x509_crt.c ****      */
 860:C:/Users/dtjld/workspace/AIoT/src/LiteOS_Lab/iot_link/network/dtls/mbedtls/mbedtls-2.16.2/library\x509_crt.c ****     if( ( ret = mbedtls_asn1_get_tag( &p, end, &len,
 2347              		.loc 2 860 0
 2348 0056 07F13802 		add	r2, r7, #56
 2349 005a 07F13400 		add	r0, r7, #52
 2350 005e 3023     		movs	r3, #48
 2351 0060 396C     		ldr	r1, [r7, #64]
 2352 0062 FFF7FEFF 		bl	mbedtls_asn1_get_tag
 2353 0066 7864     		str	r0, [r7, #68]
 2354 0068 7B6C     		ldr	r3, [r7, #68]
 2355 006a 002B     		cmp	r3, #0
 2356 006c 04D0     		beq	.L177
 861:C:/Users/dtjld/workspace/AIoT/src/LiteOS_Lab/iot_link/network/dtls/mbedtls/mbedtls-2.16.2/library\x509_crt.c ****             MBEDTLS_ASN1_CONSTRUCTED | MBEDTLS_ASN1_SEQUENCE ) ) != 0 )
 862:C:/Users/dtjld/workspace/AIoT/src/LiteOS_Lab/iot_link/network/dtls/mbedtls/mbedtls-2.16.2/library\x509_crt.c ****     {
 863:C:/Users/dtjld/workspace/AIoT/src/LiteOS_Lab/iot_link/network/dtls/mbedtls/mbedtls-2.16.2/library\x509_crt.c ****         mbedtls_x509_crt_free( crt );
 2357              		.loc 2 863 0
 2358 006e F868     		ldr	r0, [r7, #12]
 2359 0070 FFF7FEFF 		bl	mbedtls_x509_crt_free
 864:C:/Users/dtjld/workspace/AIoT/src/LiteOS_Lab/iot_link/network/dtls/mbedtls/mbedtls-2.16.2/library\x509_crt.c ****         return( MBEDTLS_ERR_X509_INVALID_FORMAT );
 2360              		.loc 2 864 0
 2361 0074 954B     		ldr	r3, .L204+4
 2362 0076 F1E1     		b	.L203
 2363              	.L177:
 865:C:/Users/dtjld/workspace/AIoT/src/LiteOS_Lab/iot_link/network/dtls/mbedtls/mbedtls-2.16.2/library\x509_crt.c ****     }
 866:C:/Users/dtjld/workspace/AIoT/src/LiteOS_Lab/iot_link/network/dtls/mbedtls/mbedtls-2.16.2/library\x509_crt.c **** 
 867:C:/Users/dtjld/workspace/AIoT/src/LiteOS_Lab/iot_link/network/dtls/mbedtls/mbedtls-2.16.2/library\x509_crt.c ****     if( len > (size_t) ( end - p ) )
 2364              		.loc 2 867 0
 2365 0078 3B6C     		ldr	r3, [r7, #64]
 2366 007a 7A6B     		ldr	r2, [r7, #52]
 2367 007c 9B1A     		subs	r3, r3, r2
 2368 007e 1A46     		mov	r2, r3
 2369 0080 BB6B     		ldr	r3, [r7, #56]
 2370 0082 9A42     		cmp	r2, r3
 2371 0084 04D2     		bcs	.L178
 868:C:/Users/dtjld/workspace/AIoT/src/LiteOS_Lab/iot_link/network/dtls/mbedtls/mbedtls-2.16.2/library\x509_crt.c ****     {
 869:C:/Users/dtjld/workspace/AIoT/src/LiteOS_Lab/iot_link/network/dtls/mbedtls/mbedtls-2.16.2/library\x509_crt.c ****         mbedtls_x509_crt_free( crt );
 2372              		.loc 2 869 0
 2373 0086 F868     		ldr	r0, [r7, #12]
 2374 0088 FFF7FEFF 		bl	mbedtls_x509_crt_free
 870:C:/Users/dtjld/workspace/AIoT/src/LiteOS_Lab/iot_link/network/dtls/mbedtls/mbedtls-2.16.2/library\x509_crt.c ****         return( MBEDTLS_ERR_X509_INVALID_FORMAT +
 2375              		.loc 2 870 0
 2376 008c 904B     		ldr	r3, .L204+8
 2377 008e E5E1     		b	.L203
 2378              	.L178:
 871:C:/Users/dtjld/workspace/AIoT/src/LiteOS_Lab/iot_link/network/dtls/mbedtls/mbedtls-2.16.2/library\x509_crt.c ****                 MBEDTLS_ERR_ASN1_LENGTH_MISMATCH );
 872:C:/Users/dtjld/workspace/AIoT/src/LiteOS_Lab/iot_link/network/dtls/mbedtls/mbedtls-2.16.2/library\x509_crt.c ****     }
 873:C:/Users/dtjld/workspace/AIoT/src/LiteOS_Lab/iot_link/network/dtls/mbedtls/mbedtls-2.16.2/library\x509_crt.c ****     crt_end = p + len;
 2379              		.loc 2 873 0
 2380 0090 7A6B     		ldr	r2, [r7, #52]
 2381 0092 BB6B     		ldr	r3, [r7, #56]
 2382 0094 1344     		add	r3, r3, r2
 2383 0096 FB63     		str	r3, [r7, #60]
 874:C:/Users/dtjld/workspace/AIoT/src/LiteOS_Lab/iot_link/network/dtls/mbedtls/mbedtls-2.16.2/library\x509_crt.c **** 
 875:C:/Users/dtjld/workspace/AIoT/src/LiteOS_Lab/iot_link/network/dtls/mbedtls/mbedtls-2.16.2/library\x509_crt.c ****     // Create and populate a new buffer for the raw field
 876:C:/Users/dtjld/workspace/AIoT/src/LiteOS_Lab/iot_link/network/dtls/mbedtls/mbedtls-2.16.2/library\x509_crt.c ****     crt->raw.len = crt_end - buf;
 2384              		.loc 2 876 0
ARM GAS  C:\Users\dtjld\AppData\Local\Temp\ccTXdst3.s 			page 61


 2385 0098 FA6B     		ldr	r2, [r7, #60]
 2386 009a BB68     		ldr	r3, [r7, #8]
 2387 009c D31A     		subs	r3, r2, r3
 2388 009e 1A46     		mov	r2, r3
 2389 00a0 FB68     		ldr	r3, [r7, #12]
 2390 00a2 5A60     		str	r2, [r3, #4]
 877:C:/Users/dtjld/workspace/AIoT/src/LiteOS_Lab/iot_link/network/dtls/mbedtls/mbedtls-2.16.2/library\x509_crt.c ****     crt->raw.p = p = mbedtls_calloc( 1, crt->raw.len );
 2391              		.loc 2 877 0
 2392 00a4 FB68     		ldr	r3, [r7, #12]
 2393 00a6 5B68     		ldr	r3, [r3, #4]
 2394 00a8 1946     		mov	r1, r3
 2395 00aa 0120     		movs	r0, #1
 2396 00ac FFF7FEFF 		bl	mbedtls_calloc
 2397 00b0 0346     		mov	r3, r0
 2398 00b2 7B63     		str	r3, [r7, #52]
 2399 00b4 7A6B     		ldr	r2, [r7, #52]
 2400 00b6 FB68     		ldr	r3, [r7, #12]
 2401 00b8 9A60     		str	r2, [r3, #8]
 878:C:/Users/dtjld/workspace/AIoT/src/LiteOS_Lab/iot_link/network/dtls/mbedtls/mbedtls-2.16.2/library\x509_crt.c ****     if( p == NULL )
 2402              		.loc 2 878 0
 2403 00ba 7B6B     		ldr	r3, [r7, #52]
 2404 00bc 002B     		cmp	r3, #0
 2405 00be 01D1     		bne	.L179
